; Listing generated by Microsoft (R) Optimizing Compiler Version 16.00.30319.01 

	TITLE	D:\Lost Saga For Developer\Youtube\Tutorial\Source\src\LSClient\GUI\ADImagePanelWnd.cpp
	.686P
	.XMM
	include listing.inc
	.model	flat

INCLUDELIB MSVCRT
INCLUDELIB OLDNAMES

PUBLIC	?IsAvailableLink@ADProductLink@@QBE_NHHH@Z	; ADProductLink::IsAvailableLink
; Function compile flags: /Ogsp
; File d:\lost saga for developer\youtube\tutorial\source\src\lsclient\ioshopmanager.h
;	COMDAT ?IsAvailableLink@ADProductLink@@QBE_NHHH@Z
_TEXT	SEGMENT
_iValue1$ = 8						; size = 4
_iValue2$ = 12						; size = 4
_iValue3$ = 16						; size = 4
?IsAvailableLink@ADProductLink@@QBE_NHHH@Z PROC		; ADProductLink::IsAvailableLink, COMDAT
; _this$ = ecx

; 81   : 	{

  00000	55		 push	 ebp
  00001	8b ec		 mov	 ebp, esp

; 82   : 		switch( m_eADProductType )

  00003	8b 01		 mov	 eax, DWORD PTR [ecx]
  00005	48		 dec	 eax
  00006	74 39		 je	 SHORT $LN10@IsAvailabl
  00008	48		 dec	 eax
  00009	48		 dec	 eax
  0000a	74 0d		 je	 SHORT $LN4@IsAvailabl
  0000c	48		 dec	 eax
  0000d	48		 dec	 eax
  0000e	74 31		 je	 SHORT $LN10@IsAvailabl
  00010	48		 dec	 eax
  00011	48		 dec	 eax
  00012	74 15		 je	 SHORT $LN6@IsAvailabl
  00014	83 e8 05	 sub	 eax, 5
  00017	75 34		 jne	 SHORT $LN9@IsAvailabl
$LN4@IsAvailabl:

; 100  : 			}
; 101  : 			break;
; 102  : 		case ADPT_ETC:
; 103  : 			{
; 104  : 				if( m_iValue1 == iValue1 && m_iValue2 == iValue2 )

  00019	8b 41 0c	 mov	 eax, DWORD PTR [ecx+12]
  0001c	3b 45 08	 cmp	 eax, DWORD PTR _iValue1$[ebp]
  0001f	75 2c		 jne	 SHORT $LN9@IsAvailabl
  00021	8b 41 10	 mov	 eax, DWORD PTR [ecx+16]
  00024	3b 45 0c	 cmp	 eax, DWORD PTR _iValue2$[ebp]

; 105  : 					return true;

  00027	eb 1e		 jmp	 SHORT $LN15@IsAvailabl
$LN6@IsAvailabl:

; 88   : 			}
; 89   : 			break;
; 90   : 		case ADPT_EXTRA:
; 91   : 			{
; 92   : 				if( m_iValue1 == iValue1 )
; 93   : 					return true;
; 94   : 			}
; 95   : 			break;
; 96   : 		case ADPT_DECO:
; 97   : 			{
; 98   : 				if( m_iValue1 == iValue1 && m_iValue2 == iValue2 && m_iValue3 == iValue3 )

  00029	8b 41 0c	 mov	 eax, DWORD PTR [ecx+12]
  0002c	3b 45 08	 cmp	 eax, DWORD PTR _iValue1$[ebp]
  0002f	75 1c		 jne	 SHORT $LN9@IsAvailabl
  00031	8b 41 10	 mov	 eax, DWORD PTR [ecx+16]
  00034	3b 45 0c	 cmp	 eax, DWORD PTR _iValue2$[ebp]
  00037	75 14		 jne	 SHORT $LN9@IsAvailabl
  00039	8b 41 14	 mov	 eax, DWORD PTR [ecx+20]
  0003c	3b 45 10	 cmp	 eax, DWORD PTR _iValue3$[ebp]

; 99   : 					return true;

  0003f	eb 06		 jmp	 SHORT $LN15@IsAvailabl
$LN10@IsAvailabl:

; 83   : 		{
; 84   : 		case ADPT_SOLDIER:
; 85   : 			{
; 86   : 				if( m_iValue1 == iValue1 )

  00041	8b 41 0c	 mov	 eax, DWORD PTR [ecx+12]
  00044	3b 45 08	 cmp	 eax, DWORD PTR _iValue1$[ebp]
$LN15@IsAvailabl:
  00047	75 04		 jne	 SHORT $LN9@IsAvailabl

; 87   : 					return true;

  00049	b0 01		 mov	 al, 1
  0004b	eb 02		 jmp	 SHORT $LN13@IsAvailabl
$LN9@IsAvailabl:

; 106  : 			}
; 107  : 			break;
; 108  : 		case ADPT_COSTUME:
; 109  : 			{
; 110  : 				if( m_iValue1 == iValue1 && m_iValue2 == iValue2 )
; 111  : 					return true;
; 112  : 			}
; 113  : 			break;
; 114  : 		}
; 115  : 
; 116  : 		return false;

  0004d	32 c0		 xor	 al, al
$LN13@IsAvailabl:

; 117  : 	}

  0004f	5d		 pop	 ebp
  00050	c2 0c 00	 ret	 12			; 0000000cH
?IsAvailableLink@ADProductLink@@QBE_NHHH@Z ENDP		; ADProductLink::IsAvailableLink
_TEXT	ENDS
PUBLIC	?IsNoneLink@ADProductLink@@QBE_NXZ		; ADProductLink::IsNoneLink
; Function compile flags: /Ogsp
;	COMDAT ?IsNoneLink@ADProductLink@@QBE_NXZ
_TEXT	SEGMENT
?IsNoneLink@ADProductLink@@QBE_NXZ PROC			; ADProductLink::IsNoneLink, COMDAT
; _this$ = ecx

; 121  : 		if( m_eADProductType == ADPT_NONE )

  00000	33 c0		 xor	 eax, eax
  00002	39 01		 cmp	 DWORD PTR [ecx], eax
  00004	75 03		 jne	 SHORT $LN2@IsNoneLink
$LN5@IsNoneLink:

; 122  : 			return true;

  00006	b0 01		 mov	 al, 1

; 128  : 	}

  00008	c3		 ret	 0
$LN2@IsNoneLink:

; 123  : 
; 124  : 		if( m_iTab == 0 && m_iSubTab == 0 )

  00009	39 41 04	 cmp	 DWORD PTR [ecx+4], eax
  0000c	75 05		 jne	 SHORT $LN1@IsNoneLink
  0000e	39 41 08	 cmp	 DWORD PTR [ecx+8], eax

; 125  : 			return true;

  00011	74 f3		 je	 SHORT $LN5@IsNoneLink
$LN1@IsNoneLink:

; 126  : 
; 127  : 		return IsAvailableLink( 0, 0, 0 );

  00013	50		 push	 eax
  00014	50		 push	 eax
  00015	50		 push	 eax
  00016	e8 00 00 00 00	 call	 ?IsAvailableLink@ADProductLink@@QBE_NHHH@Z ; ADProductLink::IsAvailableLink

; 128  : 	}

  0001b	c3		 ret	 0
?IsNoneLink@ADProductLink@@QBE_NXZ ENDP			; ADProductLink::IsNoneLink
_TEXT	ENDS
PUBLIC	?iwm_hide@ADImagePanelWnd@@UAEXXZ		; ADImagePanelWnd::iwm_hide
; Function compile flags: /Ogsp
; File d:\lost saga for developer\youtube\tutorial\source\src\lsclient\gui\adimagepanelwnd.cpp
;	COMDAT ?iwm_hide@ADImagePanelWnd@@UAEXXZ
_TEXT	SEGMENT
?iwm_hide@ADImagePanelWnd@@UAEXXZ PROC			; ADImagePanelWnd::iwm_hide, COMDAT
; _this$ = ecx

; 66   : 	m_pCurrBanner		= NULL;

  00000	83 a1 1c 02 00
	00 00		 and	 DWORD PTR [ecx+540], 0

; 67   : 	m_pPrevBanner		= NULL;

  00007	83 a1 20 02 00
	00 00		 and	 DWORD PTR [ecx+544], 0

; 68   : }

  0000e	c3		 ret	 0
?iwm_hide@ADImagePanelWnd@@UAEXXZ ENDP			; ADImagePanelWnd::iwm_hide
_TEXT	ENDS
PUBLIC	?iwm_mouseover@ADImagePanelWnd@@UAEXABVioMouse@@@Z ; ADImagePanelWnd::iwm_mouseover
EXTRN	__imp_?ShowChildWnd@ioWnd@@QAEXK_N@Z:PROC
EXTRN	__imp_?IsShow@ioWnd@@QBE_NXZ:PROC
EXTRN	__imp_?iwm_mouseover@ioButton@@UAEXABVioMouse@@@Z:PROC
; Function compile flags: /Ogsp
;	COMDAT ?iwm_mouseover@ADImagePanelWnd@@UAEXABVioMouse@@@Z
_TEXT	SEGMENT
_mouse$ = 8						; size = 4
?iwm_mouseover@ADImagePanelWnd@@UAEXABVioMouse@@@Z PROC	; ADImagePanelWnd::iwm_mouseover, COMDAT
; _this$ = ecx

; 71   : {

  00000	55		 push	 ebp
  00001	8b ec		 mov	 ebp, esp
  00003	57		 push	 edi

; 72   : 	ioButton::iwm_mouseover( mouse );

  00004	ff 75 08	 push	 DWORD PTR _mouse$[ebp]
  00007	8b f9		 mov	 edi, ecx
  00009	ff 15 00 00 00
	00		 call	 DWORD PTR __imp_?iwm_mouseover@ioButton@@UAEXABVioMouse@@@Z

; 73   : 
; 74   : 	if( !IsShow() )

  0000f	8b cf		 mov	 ecx, edi
  00011	ff 15 00 00 00
	00		 call	 DWORD PTR __imp_?IsShow@ioWnd@@QBE_NXZ
  00017	84 c0		 test	 al, al
  00019	74 18		 je	 SHORT $LN2@iwm_mouseo

; 75   : 		return;
; 76   : 
; 77   : 	ShowChildWnd( ID_PREV_BTN );

  0001b	56		 push	 esi
  0001c	8b 35 00 00 00
	00		 mov	 esi, DWORD PTR __imp_?ShowChildWnd@ioWnd@@QAEXK_N@Z
  00022	6a 00		 push	 0
  00024	6a 01		 push	 1
  00026	8b cf		 mov	 ecx, edi
  00028	ff d6		 call	 esi

; 78   : 	ShowChildWnd( ID_NEXT_BTN );

  0002a	6a 00		 push	 0
  0002c	6a 02		 push	 2
  0002e	8b cf		 mov	 ecx, edi
  00030	ff d6		 call	 esi
  00032	5e		 pop	 esi
$LN2@iwm_mouseo:
  00033	5f		 pop	 edi

; 79   : }

  00034	5d		 pop	 ebp
  00035	c2 04 00	 ret	 4
?iwm_mouseover@ADImagePanelWnd@@UAEXABVioMouse@@@Z ENDP	; ADImagePanelWnd::iwm_mouseover
_TEXT	ENDS
PUBLIC	?iwm_mouseleave@ADImagePanelWnd@@UAEXABVioMouse@@@Z ; ADImagePanelWnd::iwm_mouseleave
EXTRN	__imp_?HideChildWnd@ioWnd@@QAEXK_N@Z:PROC
EXTRN	__imp_?IsInWndRect@ioWnd@@QAE_NABUtagPOINT@@@Z:PROC
EXTRN	__imp_?GetMousePos@ioMouse@@QBEABUtagPOINT@@XZ:PROC
EXTRN	__imp_?iwm_mouseleave@ioWnd@@UAEXABVioMouse@@@Z:PROC
; Function compile flags: /Ogsp
;	COMDAT ?iwm_mouseleave@ADImagePanelWnd@@UAEXABVioMouse@@@Z
_TEXT	SEGMENT
_mouse$ = 8						; size = 4
?iwm_mouseleave@ADImagePanelWnd@@UAEXABVioMouse@@@Z PROC ; ADImagePanelWnd::iwm_mouseleave, COMDAT
; _this$ = ecx

; 82   : {

  00000	55		 push	 ebp
  00001	8b ec		 mov	 ebp, esp
  00003	57		 push	 edi

; 83   : 	ioButton::iwm_mouseleave( mouse );

  00004	ff 75 08	 push	 DWORD PTR _mouse$[ebp]
  00007	8b f9		 mov	 edi, ecx
  00009	ff 15 00 00 00
	00		 call	 DWORD PTR __imp_?iwm_mouseleave@ioWnd@@UAEXABVioMouse@@@Z

; 84   : 
; 85   : 	if( !IsShow() )

  0000f	8b cf		 mov	 ecx, edi
  00011	ff 15 00 00 00
	00		 call	 DWORD PTR __imp_?IsShow@ioWnd@@QBE_NXZ
  00017	84 c0		 test	 al, al
  00019	74 2e		 je	 SHORT $LN1@iwm_mousel

; 86   : 		return;
; 87   : 
; 88   : 	if( !IsInWndRect( mouse.GetMousePos() ) )

  0001b	8b 4d 08	 mov	 ecx, DWORD PTR _mouse$[ebp]
  0001e	ff 15 00 00 00
	00		 call	 DWORD PTR __imp_?GetMousePos@ioMouse@@QBEABUtagPOINT@@XZ
  00024	50		 push	 eax
  00025	8b cf		 mov	 ecx, edi
  00027	ff 15 00 00 00
	00		 call	 DWORD PTR __imp_?IsInWndRect@ioWnd@@QAE_NABUtagPOINT@@@Z
  0002d	84 c0		 test	 al, al
  0002f	75 18		 jne	 SHORT $LN1@iwm_mousel

; 89   : 	{
; 90   : 		HideChildWnd( ID_PREV_BTN );

  00031	56		 push	 esi
  00032	8b 35 00 00 00
	00		 mov	 esi, DWORD PTR __imp_?HideChildWnd@ioWnd@@QAEXK_N@Z
  00038	6a 00		 push	 0
  0003a	6a 01		 push	 1
  0003c	8b cf		 mov	 ecx, edi
  0003e	ff d6		 call	 esi

; 91   : 		HideChildWnd( ID_NEXT_BTN );

  00040	6a 00		 push	 0
  00042	6a 02		 push	 2
  00044	8b cf		 mov	 ecx, edi
  00046	ff d6		 call	 esi
  00048	5e		 pop	 esi
$LN1@iwm_mousel:
  00049	5f		 pop	 edi

; 92   : 	}
; 93   : }

  0004a	5d		 pop	 ebp
  0004b	c2 04 00	 ret	 4
?iwm_mouseleave@ADImagePanelWnd@@UAEXABVioMouse@@@Z ENDP ; ADImagePanelWnd::iwm_mouseleave
_TEXT	ENDS
PUBLIC	?CheckDirectMoveADIndex@ADImagePanelWnd@@IAEXH@Z ; ADImagePanelWnd::CheckDirectMoveADIndex
; Function compile flags: /Ogsp
;	COMDAT ?CheckDirectMoveADIndex@ADImagePanelWnd@@IAEXH@Z
_TEXT	SEGMENT
_iTargetIndex$ = 8					; size = 4
?CheckDirectMoveADIndex@ADImagePanelWnd@@IAEXH@Z PROC	; ADImagePanelWnd::CheckDirectMoveADIndex, COMDAT
; _this$ = ecx

; 239  : {

  00000	55		 push	 ebp
  00001	8b ec		 mov	 ebp, esp

; 240  : 	if( m_iCurrIndex < iTargetIndex )

  00003	8b 91 18 02 00
	00		 mov	 edx, DWORD PTR [ecx+536]
  00009	8b 45 08	 mov	 eax, DWORD PTR _iTargetIndex$[ebp]
  0000c	3b d0		 cmp	 edx, eax
  0000e	7d 0c		 jge	 SHORT $LN6@CheckDirec

; 241  : 	{
; 242  : 		m_SlideMove		= SM_NEXT;

  00010	c7 81 04 02 00
	00 01 00 00 00	 mov	 DWORD PTR [ecx+516], 1

; 243  : 		m_iCurrIndex	= iTargetIndex;

  0001a	eb 09		 jmp	 SHORT $LN7@CheckDirec
$LN6@CheckDirec:

; 244  : 	}
; 245  : 	else if( m_iCurrIndex > iTargetIndex )

  0001c	7e 0d		 jle	 SHORT $LN1@CheckDirec

; 246  : 	{
; 247  : 		m_SlideMove		= SM_PREV;

  0001e	83 a1 04 02 00
	00 00		 and	 DWORD PTR [ecx+516], 0
$LN7@CheckDirec:

; 248  : 		m_iCurrIndex	= iTargetIndex;

  00025	89 81 18 02 00
	00		 mov	 DWORD PTR [ecx+536], eax
$LN1@CheckDirec:

; 249  : 	}
; 250  : }

  0002b	5d		 pop	 ebp
  0002c	c2 04 00	 ret	 4
?CheckDirectMoveADIndex@ADImagePanelWnd@@IAEXH@Z ENDP	; ADImagePanelWnd::CheckDirectMoveADIndex
_TEXT	ENDS
PUBLIC	?IsSliding@ADImagePanelWnd@@QAE_NXZ		; ADImagePanelWnd::IsSliding
; Function compile flags: /Ogsp
;	COMDAT ?IsSliding@ADImagePanelWnd@@QAE_NXZ
_TEXT	SEGMENT
?IsSliding@ADImagePanelWnd@@QAE_NXZ PROC		; ADImagePanelWnd::IsSliding, COMDAT
; _this$ = ecx

; 290  : 	if( m_ADState == ADS_PAGING )

  00000	83 b9 00 02 00
	00 01		 cmp	 DWORD PTR [ecx+512], 1
  00007	0f 94 c0	 sete	 al

; 291  : 		return true;
; 292  : 
; 293  : 	return false;
; 294  : }

  0000a	c3		 ret	 0
?IsSliding@ADImagePanelWnd@@QAE_NXZ ENDP		; ADImagePanelWnd::IsSliding
_TEXT	ENDS
PUBLIC	_sinf
EXTRN	__fltused:DWORD
EXTRN	__CIsin:PROC
; Function compile flags: /Ogsp
; File c:\program files (x86)\microsoft visual studio 10.0\vc\include\math.h
;	COMDAT _sinf
_TEXT	SEGMENT
tv69 = 8						; size = 4
__X$ = 8						; size = 4
_sinf	PROC						; COMDAT

; 430  :         {return ((float)sin((double)_X)); }

  00000	55		 push	 ebp
  00001	8b ec		 mov	 ebp, esp
  00003	d9 45 08	 fld	 DWORD PTR __X$[ebp]
  00006	e8 00 00 00 00	 call	 __CIsin
  0000b	d9 5d 08	 fstp	 DWORD PTR tv69[ebp]
  0000e	d9 45 08	 fld	 DWORD PTR tv69[ebp]
  00011	5d		 pop	 ebp
  00012	c3		 ret	 0
_sinf	ENDP
_TEXT	ENDS
PUBLIC	?sin@@YAMM@Z					; sin
; Function compile flags: /Ogsp
;	COMDAT ?sin@@YAMM@Z
_TEXT	SEGMENT
tv73 = 8						; size = 4
__X$ = 8						; size = 4
?sin@@YAMM@Z PROC					; sin, COMDAT

; 538  :         {return (sinf(_X)); }

  00000	55		 push	 ebp
  00001	8b ec		 mov	 ebp, esp
  00003	d9 45 08	 fld	 DWORD PTR __X$[ebp]
  00006	e8 00 00 00 00	 call	 __CIsin
  0000b	d9 5d 08	 fstp	 DWORD PTR tv73[ebp]
  0000e	d9 45 08	 fld	 DWORD PTR tv73[ebp]
  00011	5d		 pop	 ebp
  00012	c3		 ret	 0
?sin@@YAMM@Z ENDP					; sin
_TEXT	ENDS
PUBLIC	__real@4086080000000000
PUBLIC	__real@3ff921fb60000000
PUBLIC	__real@3ff0000000000000
PUBLIC	_this$GSCopy$
PUBLIC	__real@3f800000
PUBLIC	__$ArrayPad$
PUBLIC	?OnPrevPaigingRender@ADImagePanelWnd@@IAEXHH@Z	; ADImagePanelWnd::OnPrevPaigingRender
EXTRN	__imp_?RenderRect@ioUIRenderImage@@QAEXMMW4UIRenderType@@ABUtagRECT@@W4TextureFilterOption@@0@Z:PROC
EXTRN	___security_cookie:DWORD
EXTRN	@__security_check_cookie@4:PROC
EXTRN	__ftol2_sse:PROC
;	COMDAT __real@4086080000000000
CONST	SEGMENT
__real@4086080000000000 DQ 04086080000000000r	; 705
CONST	ENDS
;	COMDAT __real@3ff921fb60000000
CONST	SEGMENT
__real@3ff921fb60000000 DQ 03ff921fb60000000r	; 1.5708
CONST	ENDS
;	COMDAT __real@3ff0000000000000
CONST	SEGMENT
__real@3ff0000000000000 DQ 03ff0000000000000r	; 1
CONST	ENDS
;	COMDAT __real@3f800000
CONST	SEGMENT
__real@3f800000 DD 03f800000r			; 1
; Function compile flags: /Ogsp
; File d:\lost saga for developer\youtube\tutorial\source\src\lsclient\gui\adimagepanelwnd.cpp
CONST	ENDS
;	COMDAT ?OnPrevPaigingRender@ADImagePanelWnd@@IAEXHH@Z
_TEXT	SEGMENT
_this$GSCopy$ = -44					; size = 4
tv283 = -40						; size = 4
tv276 = -40						; size = 4
tv258 = -40						; size = 4
_RenderRect$507247 = -36				; size = 16
_RenderPrevRect$507245 = -20				; size = 16
_RenderRect$507238 = -20				; size = 16
__$ArrayPad$ = -4					; size = 4
_iXPos$ = 8						; size = 4
_iYPos$ = 12						; size = 4
?OnPrevPaigingRender@ADImagePanelWnd@@IAEXHH@Z PROC	; ADImagePanelWnd::OnPrevPaigingRender, COMDAT
; _this$ = ecx

; 406  : {	

  00000	55		 push	 ebp
  00001	8b ec		 mov	 ebp, esp
  00003	83 ec 2c	 sub	 esp, 44			; 0000002cH
  00006	a1 00 00 00 00	 mov	 eax, DWORD PTR ___security_cookie
  0000b	33 c5		 xor	 eax, ebp
  0000d	89 45 fc	 mov	 DWORD PTR __$ArrayPad$[ebp], eax
  00010	53		 push	 ebx
  00011	8b d9		 mov	 ebx, ecx

; 407  : 	if( m_fCurrRate == 1.0f )

  00013	f3 0f 10 83 34
	02 00 00	 movss	 xmm0, DWORD PTR [ebx+564]
  0001b	0f 2e 05 00 00
	00 00		 ucomiss xmm0, DWORD PTR __real@3f800000
  00022	9f		 lahf
  00023	56		 push	 esi

; 424  : 			m_pPrevBanner->RenderRect( iXPos + (705 - iNextWidth), iYPos, UI_RENDER_NORMAL, RenderRect );

  00024	89 5d d4	 mov	 DWORD PTR _this$GSCopy$[ebp], ebx
  00027	f3 0f 11 45 d8	 movss	 DWORD PTR tv258[ebp], xmm0
  0002c	f6 c4 44	 test	 ah, 68			; 00000044H
  0002f	7a 53		 jp	 SHORT $LN5@OnPrevPaig

; 408  : 	{
; 409  : 		RECT RenderRect = { 0, 0, 705, 224 };

  00031	8b 8b 1c 02 00
	00		 mov	 ecx, DWORD PTR [ebx+540]
  00037	33 f6		 xor	 esi, esi
  00039	89 75 ec	 mov	 DWORD PTR _RenderRect$507238[ebp], esi
  0003c	89 75 f0	 mov	 DWORD PTR _RenderRect$507238[ebp+4], esi
  0003f	c7 45 f4 c1 02
	00 00		 mov	 DWORD PTR _RenderRect$507238[ebp+8], 705 ; 000002c1H
  00046	c7 45 f8 e0 00
	00 00		 mov	 DWORD PTR _RenderRect$507238[ebp+12], 224 ; 000000e0H

; 410  : 		if( m_pCurrBanner )

  0004d	3b ce		 cmp	 ecx, esi
  0004f	0f 84 fa 00 00
	00		 je	 $LN1@OnPrevPaig

; 411  : 			m_pCurrBanner->RenderRect( iXPos, iYPos, UI_RENDER_NORMAL, RenderRect );

  00055	66 0f 6e 45 0c	 movd	 xmm0, DWORD PTR _iYPos$[ebp]
  0005a	56		 push	 esi
  0005b	56		 push	 esi
  0005c	8d 45 ec	 lea	 eax, DWORD PTR _RenderRect$507238[ebp]
  0005f	50		 push	 eax
  00060	56		 push	 esi
  00061	51		 push	 ecx
  00062	0f 5b c0	 cvtdq2ps xmm0, xmm0
  00065	51		 push	 ecx
  00066	f3 0f 11 44 24
	04		 movss	 DWORD PTR [esp+4], xmm0
  0006c	66 0f 6e 45 08	 movd	 xmm0, DWORD PTR _iXPos$[ebp]
  00071	0f 5b c0	 cvtdq2ps xmm0, xmm0
  00074	f3 0f 11 04 24	 movss	 DWORD PTR [esp], xmm0
  00079	ff 15 00 00 00
	00		 call	 DWORD PTR __imp_?RenderRect@ioUIRenderImage@@QAEXMMW4UIRenderType@@ABUtagRECT@@W4TextureFilterOption@@0@Z

; 412  : 	}
; 413  : 	else

  0007f	e9 cb 00 00 00	 jmp	 $LN1@OnPrevPaig
$LN5@OnPrevPaig:

; 414  : 	{
; 415  : 		int iCurrWidth = 705 * sin( D3DX_PI/2 * m_fCurrRate );
; 416  : 		int iNextWidth = 705 * sin( D3DX_PI/2 * ( 1.0f -  m_fCurrRate ) );

  00084	d9 45 d8	 fld	 DWORD PTR tv258[ebp]
  00087	57		 push	 edi
  00088	d9 e8		 fld1
  0008a	de e1		 fsubrp	 ST(1), ST(0)
  0008c	dc 0d 00 00 00
	00		 fmul	 QWORD PTR __real@3ff921fb60000000
  00092	d9 5d d8	 fstp	 DWORD PTR tv283[ebp]
  00095	d9 45 d8	 fld	 DWORD PTR tv283[ebp]
  00098	e8 00 00 00 00	 call	 __CIsin
  0009d	d9 5d d8	 fstp	 DWORD PTR tv276[ebp]
  000a0	d9 45 d8	 fld	 DWORD PTR tv276[ebp]
  000a3	dc 0d 00 00 00
	00		 fmul	 QWORD PTR __real@4086080000000000
  000a9	e8 00 00 00 00	 call	 __ftol2_sse

; 417  : 
; 418  : 		RECT RenderPrevRect = { iNextWidth, 0, 705, 224 };
; 419  : 		if( m_pCurrBanner )

  000ae	8b 8b 1c 02 00
	00		 mov	 ecx, DWORD PTR [ebx+540]
  000b4	8b 5d 08	 mov	 ebx, DWORD PTR _iXPos$[ebp]
  000b7	33 f6		 xor	 esi, esi
  000b9	8b f8		 mov	 edi, eax
  000bb	89 7d ec	 mov	 DWORD PTR _RenderPrevRect$507245[ebp], edi
  000be	89 75 f0	 mov	 DWORD PTR _RenderPrevRect$507245[ebp+4], esi
  000c1	c7 45 f4 c1 02
	00 00		 mov	 DWORD PTR _RenderPrevRect$507245[ebp+8], 705 ; 000002c1H
  000c8	c7 45 f8 e0 00
	00 00		 mov	 DWORD PTR _RenderPrevRect$507245[ebp+12], 224 ; 000000e0H
  000cf	3b ce		 cmp	 ecx, esi
  000d1	74 2d		 je	 SHORT $LN2@OnPrevPaig

; 420  : 			m_pCurrBanner->RenderRect( iXPos - iNextWidth, iYPos, UI_RENDER_NORMAL, RenderPrevRect );

  000d3	66 0f 6e 45 0c	 movd	 xmm0, DWORD PTR _iYPos$[ebp]
  000d8	56		 push	 esi
  000d9	56		 push	 esi
  000da	8d 45 ec	 lea	 eax, DWORD PTR _RenderPrevRect$507245[ebp]
  000dd	50		 push	 eax
  000de	56		 push	 esi
  000df	51		 push	 ecx
  000e0	0f 5b c0	 cvtdq2ps xmm0, xmm0
  000e3	51		 push	 ecx
  000e4	f3 0f 11 44 24
	04		 movss	 DWORD PTR [esp+4], xmm0
  000ea	8b c3		 mov	 eax, ebx
  000ec	2b c7		 sub	 eax, edi
  000ee	0f 57 c0	 xorps	 xmm0, xmm0
  000f1	f3 0f 2a c0	 cvtsi2ss xmm0, eax
  000f5	f3 0f 11 04 24	 movss	 DWORD PTR [esp], xmm0
  000fa	ff 15 00 00 00
	00		 call	 DWORD PTR __imp_?RenderRect@ioUIRenderImage@@QAEXMMW4UIRenderType@@ABUtagRECT@@W4TextureFilterOption@@0@Z
$LN2@OnPrevPaig:

; 421  : 
; 422  : 		RECT RenderRect = { 0, 0, iNextWidth, 224 };
; 423  : 		if( m_pPrevBanner )

  00100	8b 45 d4	 mov	 eax, DWORD PTR _this$GSCopy$[ebp]
  00103	8b 88 20 02 00
	00		 mov	 ecx, DWORD PTR [eax+544]
  00109	89 75 dc	 mov	 DWORD PTR _RenderRect$507247[ebp], esi
  0010c	89 75 e0	 mov	 DWORD PTR _RenderRect$507247[ebp+4], esi
  0010f	89 7d e4	 mov	 DWORD PTR _RenderRect$507247[ebp+8], edi
  00112	c7 45 e8 e0 00
	00 00		 mov	 DWORD PTR _RenderRect$507247[ebp+12], 224 ; 000000e0H
  00119	3b ce		 cmp	 ecx, esi
  0011b	74 31		 je	 SHORT $LN16@OnPrevPaig

; 424  : 			m_pPrevBanner->RenderRect( iXPos + (705 - iNextWidth), iYPos, UI_RENDER_NORMAL, RenderRect );

  0011d	66 0f 6e 45 0c	 movd	 xmm0, DWORD PTR _iYPos$[ebp]
  00122	56		 push	 esi
  00123	56		 push	 esi
  00124	8d 45 dc	 lea	 eax, DWORD PTR _RenderRect$507247[ebp]
  00127	50		 push	 eax
  00128	56		 push	 esi
  00129	51		 push	 ecx
  0012a	0f 5b c0	 cvtdq2ps xmm0, xmm0
  0012d	51		 push	 ecx
  0012e	f3 0f 11 44 24
	04		 movss	 DWORD PTR [esp+4], xmm0
  00134	2b df		 sub	 ebx, edi
  00136	81 c3 c1 02 00
	00		 add	 ebx, 705		; 000002c1H
  0013c	0f 57 c0	 xorps	 xmm0, xmm0
  0013f	f3 0f 2a c3	 cvtsi2ss xmm0, ebx
  00143	f3 0f 11 04 24	 movss	 DWORD PTR [esp], xmm0
  00148	ff 15 00 00 00
	00		 call	 DWORD PTR __imp_?RenderRect@ioUIRenderImage@@QAEXMMW4UIRenderType@@ABUtagRECT@@W4TextureFilterOption@@0@Z
$LN16@OnPrevPaig:
  0014e	5f		 pop	 edi
$LN1@OnPrevPaig:

; 425  : 	}
; 426  : }

  0014f	8b 4d fc	 mov	 ecx, DWORD PTR __$ArrayPad$[ebp]
  00152	5e		 pop	 esi
  00153	33 cd		 xor	 ecx, ebp
  00155	5b		 pop	 ebx
  00156	e8 00 00 00 00	 call	 @__security_check_cookie@4
  0015b	c9		 leave
  0015c	c2 08 00	 ret	 8
?OnPrevPaigingRender@ADImagePanelWnd@@IAEXHH@Z ENDP	; ADImagePanelWnd::OnPrevPaigingRender
_TEXT	ENDS
PUBLIC	_this$GSCopy$
PUBLIC	__$ArrayPad$
PUBLIC	?OnNextPaigingRender@ADImagePanelWnd@@IAEXHH@Z	; ADImagePanelWnd::OnNextPaigingRender
; Function compile flags: /Ogsp
;	COMDAT ?OnNextPaigingRender@ADImagePanelWnd@@IAEXHH@Z
_TEXT	SEGMENT
_this$GSCopy$ = -44					; size = 4
tv220 = -40						; size = 4
tv212 = -40						; size = 4
tv194 = -40						; size = 4
_RenderRect$507262 = -36				; size = 16
_RenderPrevRect$507260 = -20				; size = 16
_RenderRect$507255 = -20				; size = 16
__$ArrayPad$ = -4					; size = 4
_iXPos$ = 8						; size = 4
_iYPos$ = 12						; size = 4
?OnNextPaigingRender@ADImagePanelWnd@@IAEXHH@Z PROC	; ADImagePanelWnd::OnNextPaigingRender, COMDAT
; _this$ = ecx

; 429  : {

  00000	55		 push	 ebp
  00001	8b ec		 mov	 ebp, esp
  00003	83 ec 2c	 sub	 esp, 44			; 0000002cH
  00006	a1 00 00 00 00	 mov	 eax, DWORD PTR ___security_cookie
  0000b	33 c5		 xor	 eax, ebp
  0000d	89 45 fc	 mov	 DWORD PTR __$ArrayPad$[ebp], eax
  00010	53		 push	 ebx
  00011	8b d9		 mov	 ebx, ecx

; 430  : 	if( m_fCurrRate == 1.0f )

  00013	f3 0f 10 83 34
	02 00 00	 movss	 xmm0, DWORD PTR [ebx+564]
  0001b	0f 2e 05 00 00
	00 00		 ucomiss xmm0, DWORD PTR __real@3f800000
  00022	9f		 lahf
  00023	56		 push	 esi

; 446  : 			m_pCurrBanner->RenderRect( iXPos + (705 - iNextWidth), iYPos, UI_RENDER_NORMAL, RenderRect );

  00024	89 5d d4	 mov	 DWORD PTR _this$GSCopy$[ebp], ebx
  00027	f3 0f 11 45 d8	 movss	 DWORD PTR tv194[ebp], xmm0
  0002c	f6 c4 44	 test	 ah, 68			; 00000044H
  0002f	7a 53		 jp	 SHORT $LN5@OnNextPaig

; 431  : 	{
; 432  : 		RECT RenderRect = { 0, 0, 705, 224 };

  00031	8b 8b 20 02 00
	00		 mov	 ecx, DWORD PTR [ebx+544]
  00037	33 f6		 xor	 esi, esi
  00039	89 75 ec	 mov	 DWORD PTR _RenderRect$507255[ebp], esi
  0003c	89 75 f0	 mov	 DWORD PTR _RenderRect$507255[ebp+4], esi
  0003f	c7 45 f4 c1 02
	00 00		 mov	 DWORD PTR _RenderRect$507255[ebp+8], 705 ; 000002c1H
  00046	c7 45 f8 e0 00
	00 00		 mov	 DWORD PTR _RenderRect$507255[ebp+12], 224 ; 000000e0H

; 433  : 		if( m_pPrevBanner )

  0004d	3b ce		 cmp	 ecx, esi
  0004f	0f 84 f6 00 00
	00		 je	 $LN1@OnNextPaig

; 434  : 			m_pPrevBanner->RenderRect( iXPos, iYPos, UI_RENDER_NORMAL, RenderRect );

  00055	66 0f 6e 45 0c	 movd	 xmm0, DWORD PTR _iYPos$[ebp]
  0005a	56		 push	 esi
  0005b	56		 push	 esi
  0005c	8d 45 ec	 lea	 eax, DWORD PTR _RenderRect$507255[ebp]
  0005f	50		 push	 eax
  00060	56		 push	 esi
  00061	51		 push	 ecx
  00062	0f 5b c0	 cvtdq2ps xmm0, xmm0
  00065	51		 push	 ecx
  00066	f3 0f 11 44 24
	04		 movss	 DWORD PTR [esp+4], xmm0
  0006c	66 0f 6e 45 08	 movd	 xmm0, DWORD PTR _iXPos$[ebp]
  00071	0f 5b c0	 cvtdq2ps xmm0, xmm0
  00074	f3 0f 11 04 24	 movss	 DWORD PTR [esp], xmm0
  00079	ff 15 00 00 00
	00		 call	 DWORD PTR __imp_?RenderRect@ioUIRenderImage@@QAEXMMW4UIRenderType@@ABUtagRECT@@W4TextureFilterOption@@0@Z

; 435  : 	}
; 436  : 	else

  0007f	e9 c7 00 00 00	 jmp	 $LN1@OnNextPaig
$LN5@OnNextPaig:

; 437  : 	{		
; 438  : 		int iNextWidth = 705 * sin( D3DX_PI/2 * m_fCurrRate );

  00084	d9 45 d8	 fld	 DWORD PTR tv194[ebp]
  00087	57		 push	 edi
  00088	dc 0d 00 00 00
	00		 fmul	 QWORD PTR __real@3ff921fb60000000
  0008e	d9 5d d8	 fstp	 DWORD PTR tv220[ebp]
  00091	d9 45 d8	 fld	 DWORD PTR tv220[ebp]
  00094	e8 00 00 00 00	 call	 __CIsin
  00099	d9 5d d8	 fstp	 DWORD PTR tv212[ebp]
  0009c	d9 45 d8	 fld	 DWORD PTR tv212[ebp]
  0009f	dc 0d 00 00 00
	00		 fmul	 QWORD PTR __real@4086080000000000
  000a5	e8 00 00 00 00	 call	 __ftol2_sse

; 439  : 
; 440  : 		RECT RenderPrevRect = { iNextWidth, 0, 705, 224 };
; 441  : 		if( m_pPrevBanner )

  000aa	8b 8b 20 02 00
	00		 mov	 ecx, DWORD PTR [ebx+544]
  000b0	8b 5d 08	 mov	 ebx, DWORD PTR _iXPos$[ebp]
  000b3	33 f6		 xor	 esi, esi
  000b5	8b f8		 mov	 edi, eax
  000b7	89 7d ec	 mov	 DWORD PTR _RenderPrevRect$507260[ebp], edi
  000ba	89 75 f0	 mov	 DWORD PTR _RenderPrevRect$507260[ebp+4], esi
  000bd	c7 45 f4 c1 02
	00 00		 mov	 DWORD PTR _RenderPrevRect$507260[ebp+8], 705 ; 000002c1H
  000c4	c7 45 f8 e0 00
	00 00		 mov	 DWORD PTR _RenderPrevRect$507260[ebp+12], 224 ; 000000e0H
  000cb	3b ce		 cmp	 ecx, esi
  000cd	74 2d		 je	 SHORT $LN2@OnNextPaig

; 442  : 			m_pPrevBanner->RenderRect( iXPos - iNextWidth, iYPos, UI_RENDER_NORMAL, RenderPrevRect );

  000cf	66 0f 6e 45 0c	 movd	 xmm0, DWORD PTR _iYPos$[ebp]
  000d4	56		 push	 esi
  000d5	56		 push	 esi
  000d6	8d 45 ec	 lea	 eax, DWORD PTR _RenderPrevRect$507260[ebp]
  000d9	50		 push	 eax
  000da	56		 push	 esi
  000db	51		 push	 ecx
  000dc	0f 5b c0	 cvtdq2ps xmm0, xmm0
  000df	51		 push	 ecx
  000e0	f3 0f 11 44 24
	04		 movss	 DWORD PTR [esp+4], xmm0
  000e6	8b c3		 mov	 eax, ebx
  000e8	2b c7		 sub	 eax, edi
  000ea	0f 57 c0	 xorps	 xmm0, xmm0
  000ed	f3 0f 2a c0	 cvtsi2ss xmm0, eax
  000f1	f3 0f 11 04 24	 movss	 DWORD PTR [esp], xmm0
  000f6	ff 15 00 00 00
	00		 call	 DWORD PTR __imp_?RenderRect@ioUIRenderImage@@QAEXMMW4UIRenderType@@ABUtagRECT@@W4TextureFilterOption@@0@Z
$LN2@OnNextPaig:

; 443  : 		
; 444  : 		RECT RenderRect = { 0, 0, iNextWidth, 224 };
; 445  : 		if( m_pCurrBanner )

  000fc	8b 45 d4	 mov	 eax, DWORD PTR _this$GSCopy$[ebp]
  000ff	8b 88 1c 02 00
	00		 mov	 ecx, DWORD PTR [eax+540]
  00105	89 75 dc	 mov	 DWORD PTR _RenderRect$507262[ebp], esi
  00108	89 75 e0	 mov	 DWORD PTR _RenderRect$507262[ebp+4], esi
  0010b	89 7d e4	 mov	 DWORD PTR _RenderRect$507262[ebp+8], edi
  0010e	c7 45 e8 e0 00
	00 00		 mov	 DWORD PTR _RenderRect$507262[ebp+12], 224 ; 000000e0H
  00115	3b ce		 cmp	 ecx, esi
  00117	74 31		 je	 SHORT $LN12@OnNextPaig

; 446  : 			m_pCurrBanner->RenderRect( iXPos + (705 - iNextWidth), iYPos, UI_RENDER_NORMAL, RenderRect );

  00119	66 0f 6e 45 0c	 movd	 xmm0, DWORD PTR _iYPos$[ebp]
  0011e	56		 push	 esi
  0011f	56		 push	 esi
  00120	8d 45 dc	 lea	 eax, DWORD PTR _RenderRect$507262[ebp]
  00123	50		 push	 eax
  00124	56		 push	 esi
  00125	51		 push	 ecx
  00126	0f 5b c0	 cvtdq2ps xmm0, xmm0
  00129	51		 push	 ecx
  0012a	f3 0f 11 44 24
	04		 movss	 DWORD PTR [esp+4], xmm0
  00130	2b df		 sub	 ebx, edi
  00132	81 c3 c1 02 00
	00		 add	 ebx, 705		; 000002c1H
  00138	0f 57 c0	 xorps	 xmm0, xmm0
  0013b	f3 0f 2a c3	 cvtsi2ss xmm0, ebx
  0013f	f3 0f 11 04 24	 movss	 DWORD PTR [esp], xmm0
  00144	ff 15 00 00 00
	00		 call	 DWORD PTR __imp_?RenderRect@ioUIRenderImage@@QAEXMMW4UIRenderType@@ABUtagRECT@@W4TextureFilterOption@@0@Z
$LN12@OnNextPaig:
  0014a	5f		 pop	 edi
$LN1@OnNextPaig:

; 447  : 	}	
; 448  : }

  0014b	8b 4d fc	 mov	 ecx, DWORD PTR __$ArrayPad$[ebp]
  0014e	5e		 pop	 esi
  0014f	33 cd		 xor	 ecx, ebp
  00151	5b		 pop	 ebx
  00152	e8 00 00 00 00	 call	 @__security_check_cookie@4
  00157	c9		 leave
  00158	c2 08 00	 ret	 8
?OnNextPaigingRender@ADImagePanelWnd@@IAEXHH@Z ENDP	; ADImagePanelWnd::OnNextPaigingRender
_TEXT	ENDS
PUBLIC	??_7bad_alloc@std@@6B@				; std::bad_alloc::`vftable'
PUBLIC	??0bad_alloc@std@@QAE@PBD@Z			; std::bad_alloc::bad_alloc
PUBLIC	??_R4bad_alloc@std@@6B@				; std::bad_alloc::`RTTI Complete Object Locator'
PUBLIC	??_R0?AVbad_alloc@std@@@8			; std::bad_alloc `RTTI Type Descriptor'
PUBLIC	??_R3bad_alloc@std@@8				; std::bad_alloc::`RTTI Class Hierarchy Descriptor'
PUBLIC	??_R2bad_alloc@std@@8				; std::bad_alloc::`RTTI Base Class Array'
PUBLIC	??_R1A@?0A@EA@bad_alloc@std@@8			; std::bad_alloc::`RTTI Base Class Descriptor at (0,-1,0,64)'
PUBLIC	??_R1A@?0A@EA@exception@std@@8			; std::exception::`RTTI Base Class Descriptor at (0,-1,0,64)'
PUBLIC	??_R0?AVexception@std@@@8			; std::exception `RTTI Type Descriptor'
PUBLIC	??_R3exception@std@@8				; std::exception::`RTTI Class Hierarchy Descriptor'
PUBLIC	??_R2exception@std@@8				; std::exception::`RTTI Base Class Array'
EXTRN	__imp_??0exception@std@@QAE@ABQBD@Z:PROC
EXTRN	??_7type_info@@6B@:QWORD			; type_info::`vftable'
EXTRN	??_Ebad_alloc@std@@UAEPAXI@Z:PROC		; std::bad_alloc::`vector deleting destructor'
EXTRN	?what@exception@std@@UBEPBDXZ:PROC		; std::exception::what
;	COMDAT ??_R2exception@std@@8
; File c:\program files (x86)\microsoft visual studio 10.0\vc\include\exception
rdata$r	SEGMENT
??_R2exception@std@@8 DD FLAT:??_R1A@?0A@EA@exception@std@@8 ; std::exception::`RTTI Base Class Array'
rdata$r	ENDS
;	COMDAT ??_R3exception@std@@8
rdata$r	SEGMENT
??_R3exception@std@@8 DD 00H				; std::exception::`RTTI Class Hierarchy Descriptor'
	DD	00H
	DD	01H
	DD	FLAT:??_R2exception@std@@8
rdata$r	ENDS
;	COMDAT ??_R0?AVexception@std@@@8
_DATA	SEGMENT
??_R0?AVexception@std@@@8 DD FLAT:??_7type_info@@6B@	; std::exception `RTTI Type Descriptor'
	DD	00H
	DB	'.?AVexception@std@@', 00H
_DATA	ENDS
;	COMDAT ??_R1A@?0A@EA@exception@std@@8
rdata$r	SEGMENT
??_R1A@?0A@EA@exception@std@@8 DD FLAT:??_R0?AVexception@std@@@8 ; std::exception::`RTTI Base Class Descriptor at (0,-1,0,64)'
	DD	00H
	DD	00H
	DD	0ffffffffH
	DD	00H
	DD	040H
	DD	FLAT:??_R3exception@std@@8
rdata$r	ENDS
;	COMDAT ??_R1A@?0A@EA@bad_alloc@std@@8
rdata$r	SEGMENT
??_R1A@?0A@EA@bad_alloc@std@@8 DD FLAT:??_R0?AVbad_alloc@std@@@8 ; std::bad_alloc::`RTTI Base Class Descriptor at (0,-1,0,64)'
	DD	01H
	DD	00H
	DD	0ffffffffH
	DD	00H
	DD	040H
	DD	FLAT:??_R3bad_alloc@std@@8
rdata$r	ENDS
;	COMDAT ??_R2bad_alloc@std@@8
rdata$r	SEGMENT
??_R2bad_alloc@std@@8 DD FLAT:??_R1A@?0A@EA@bad_alloc@std@@8 ; std::bad_alloc::`RTTI Base Class Array'
	DD	FLAT:??_R1A@?0A@EA@exception@std@@8
rdata$r	ENDS
;	COMDAT ??_R3bad_alloc@std@@8
rdata$r	SEGMENT
??_R3bad_alloc@std@@8 DD 00H				; std::bad_alloc::`RTTI Class Hierarchy Descriptor'
	DD	00H
	DD	02H
	DD	FLAT:??_R2bad_alloc@std@@8
rdata$r	ENDS
;	COMDAT ??_R0?AVbad_alloc@std@@@8
_DATA	SEGMENT
??_R0?AVbad_alloc@std@@@8 DD FLAT:??_7type_info@@6B@	; std::bad_alloc `RTTI Type Descriptor'
	DD	00H
	DB	'.?AVbad_alloc@std@@', 00H
_DATA	ENDS
;	COMDAT ??_R4bad_alloc@std@@6B@
rdata$r	SEGMENT
??_R4bad_alloc@std@@6B@ DD 00H				; std::bad_alloc::`RTTI Complete Object Locator'
	DD	00H
	DD	00H
	DD	FLAT:??_R0?AVbad_alloc@std@@@8
	DD	FLAT:??_R3bad_alloc@std@@8
rdata$r	ENDS
;	COMDAT ??_7bad_alloc@std@@6B@
CONST	SEGMENT
??_7bad_alloc@std@@6B@ DD FLAT:??_R4bad_alloc@std@@6B@	; std::bad_alloc::`vftable'
	DD	FLAT:??_Ebad_alloc@std@@UAEPAXI@Z
	DD	FLAT:?what@exception@std@@UBEPBDXZ
; Function compile flags: /Ogsp
CONST	ENDS
;	COMDAT ??0bad_alloc@std@@QAE@PBD@Z
_TEXT	SEGMENT
__Message$ = 8						; size = 4
??0bad_alloc@std@@QAE@PBD@Z PROC			; std::bad_alloc::bad_alloc, COMDAT
; _this$ = ecx

; 345  : 		{	// construct from message string

  00000	55		 push	 ebp
  00001	8b ec		 mov	 ebp, esp
  00003	56		 push	 esi
  00004	8d 45 08	 lea	 eax, DWORD PTR __Message$[ebp]
  00007	50		 push	 eax
  00008	8b f1		 mov	 esi, ecx
  0000a	ff 15 00 00 00
	00		 call	 DWORD PTR __imp_??0exception@std@@QAE@ABQBD@Z
  00010	c7 06 00 00 00
	00		 mov	 DWORD PTR [esi], OFFSET ??_7bad_alloc@std@@6B@

; 346  : 		}

  00016	8b c6		 mov	 eax, esi
  00018	5e		 pop	 esi
  00019	5d		 pop	 ebp
  0001a	c2 04 00	 ret	 4
??0bad_alloc@std@@QAE@PBD@Z ENDP			; std::bad_alloc::bad_alloc
_TEXT	ENDS
PUBLIC	??1bad_alloc@std@@UAE@XZ			; std::bad_alloc::~bad_alloc
EXTRN	__imp_??1exception@std@@UAE@XZ:PROC
; Function compile flags: /Ogsp
;	COMDAT ??1bad_alloc@std@@UAE@XZ
_TEXT	SEGMENT
??1bad_alloc@std@@UAE@XZ PROC				; std::bad_alloc::~bad_alloc, COMDAT
; _this$ = ecx

; 354  : 		{	// destroy the object

  00000	c7 01 00 00 00
	00		 mov	 DWORD PTR [ecx], OFFSET ??_7bad_alloc@std@@6B@

; 355  : 		}

  00006	ff 25 00 00 00
	00		 jmp	 DWORD PTR __imp_??1exception@std@@UAE@XZ
??1bad_alloc@std@@UAE@XZ ENDP				; std::bad_alloc::~bad_alloc
_TEXT	ENDS
EXTRN	??3@YAXPAX@Z:PROC				; operator delete
; Function compile flags: /Ogsp
;	COMDAT ??_Gbad_alloc@std@@UAEPAXI@Z
_TEXT	SEGMENT
___flags$ = 8						; size = 4
??_Gbad_alloc@std@@UAEPAXI@Z PROC			; std::bad_alloc::`scalar deleting destructor', COMDAT
; _this$ = ecx
  00000	55		 push	 ebp
  00001	8b ec		 mov	 ebp, esp
  00003	56		 push	 esi
  00004	8b f1		 mov	 esi, ecx
  00006	c7 06 00 00 00
	00		 mov	 DWORD PTR [esi], OFFSET ??_7bad_alloc@std@@6B@
  0000c	ff 15 00 00 00
	00		 call	 DWORD PTR __imp_??1exception@std@@UAE@XZ
  00012	f6 45 08 01	 test	 BYTE PTR ___flags$[ebp], 1
  00016	74 07		 je	 SHORT $LN1@scalar
  00018	56		 push	 esi
  00019	e8 00 00 00 00	 call	 ??3@YAXPAX@Z		; operator delete
  0001e	59		 pop	 ecx
$LN1@scalar:
  0001f	8b c6		 mov	 eax, esi
  00021	5e		 pop	 esi
  00022	5d		 pop	 ebp
  00023	c2 04 00	 ret	 4
??_Gbad_alloc@std@@UAEPAXI@Z ENDP			; std::bad_alloc::`scalar deleting destructor'
_TEXT	ENDS
PUBLIC	?_Inside@?$vector@HV?$allocator@H@std@@@std@@IBE_NPBH@Z ; std::vector<int,std::allocator<int> >::_Inside
; Function compile flags: /Ogsp
; File c:\program files (x86)\microsoft visual studio 10.0\vc\include\vector
;	COMDAT ?_Inside@?$vector@HV?$allocator@H@std@@@std@@IBE_NPBH@Z
_TEXT	SEGMENT
__Ptr$ = 8						; size = 4
?_Inside@?$vector@HV?$allocator@H@std@@@std@@IBE_NPBH@Z PROC ; std::vector<int,std::allocator<int> >::_Inside, COMDAT
; _this$ = ecx

; 1285 : 		{	// test if _Ptr points inside vector

  00000	55		 push	 ebp
  00001	8b ec		 mov	 ebp, esp

; 1286 : 		return (_Ptr < this->_Mylast && this->_Myfirst <= _Ptr);

  00003	8b 45 08	 mov	 eax, DWORD PTR __Ptr$[ebp]
  00006	3b 41 04	 cmp	 eax, DWORD PTR [ecx+4]
  00009	73 09		 jae	 SHORT $LN3@Inside
  0000b	39 01		 cmp	 DWORD PTR [ecx], eax
  0000d	77 05		 ja	 SHORT $LN3@Inside
  0000f	33 c0		 xor	 eax, eax
  00011	40		 inc	 eax
  00012	eb 02		 jmp	 SHORT $LN4@Inside
$LN3@Inside:
  00014	33 c0		 xor	 eax, eax
$LN4@Inside:

; 1287 : 		}

  00016	5d		 pop	 ebp
  00017	c2 04 00	 ret	 4
?_Inside@?$vector@HV?$allocator@H@std@@@std@@IBE_NPBH@Z ENDP ; std::vector<int,std::allocator<int> >::_Inside
_TEXT	ENDS
PUBLIC	?_Orphan_range@?$vector@HV?$allocator@H@std@@@std@@IBEXPAH0@Z ; std::vector<int,std::allocator<int> >::_Orphan_range
; Function compile flags: /Ogsp
;	COMDAT ?_Orphan_range@?$vector@HV?$allocator@H@std@@@std@@IBEXPAH0@Z
_TEXT	SEGMENT
___formal$ = 8						; size = 4
___formal$ = 12						; size = 4
?_Orphan_range@?$vector@HV?$allocator@H@std@@@std@@IBEXPAH0@Z PROC ; std::vector<int,std::allocator<int> >::_Orphan_range, COMDAT
; _this$ = ecx

; 1454 : 		}

  00000	c2 08 00	 ret	 8
?_Orphan_range@?$vector@HV?$allocator@H@std@@@std@@IBEXPAH0@Z ENDP ; std::vector<int,std::allocator<int> >::_Orphan_range
_TEXT	ENDS
PUBLIC	??2@YAPAXIPAX@Z					; operator new
; Function compile flags: /Ogsp
; File c:\program files (x86)\microsoft visual studio 10.0\vc\include\new
;	COMDAT ??2@YAPAXIPAX@Z
_TEXT	SEGMENT
___formal$ = 8						; size = 4
__Where$ = 12						; size = 4
??2@YAPAXIPAX@Z PROC					; operator new, COMDAT

; 56   : 	{	// construct array with placement at _Where

  00000	55		 push	 ebp
  00001	8b ec		 mov	 ebp, esp

; 57   : 	return (_Where);

  00003	8b 45 0c	 mov	 eax, DWORD PTR __Where$[ebp]

; 58   : 	}

  00006	5d		 pop	 ebp
  00007	c3		 ret	 0
??2@YAPAXIPAX@Z ENDP					; operator new
_TEXT	ENDS
PUBLIC	??3@YAXPAX0@Z					; operator delete
; Function compile flags: /Ogsp
;	COMDAT ??3@YAXPAX0@Z
_TEXT	SEGMENT
___formal$ = 8						; size = 4
___formal$ = 12						; size = 4
??3@YAXPAX0@Z PROC					; operator delete, COMDAT

; 62   : 	}

  00000	c3		 ret	 0
??3@YAXPAX0@Z ENDP					; operator delete
_TEXT	ENDS
PUBLIC	??$addressof@$$CBH@std@@YAPBHABH@Z		; std::addressof<int const >
; Function compile flags: /Ogsp
; File c:\program files (x86)\microsoft visual studio 10.0\vc\include\xmemory
;	COMDAT ??$addressof@$$CBH@std@@YAPBHABH@Z
_TEXT	SEGMENT
__Val$ = 8						; size = 4
??$addressof@$$CBH@std@@YAPBHABH@Z PROC			; std::addressof<int const >, COMDAT

; 110  : 	{	// return address of _Val

  00000	55		 push	 ebp
  00001	8b ec		 mov	 ebp, esp

; 111  : 	return ((_Ty *) &(char&)_Val);

  00003	8b 45 08	 mov	 eax, DWORD PTR __Val$[ebp]

; 112  : 	}

  00006	5d		 pop	 ebp
  00007	c3		 ret	 0
??$addressof@$$CBH@std@@YAPBHABH@Z ENDP			; std::addressof<int const >
_TEXT	ENDS
PUBLIC	??$forward@ABH@std@@YAABHABH@Z			; std::forward<int const &>
; Function compile flags: /Ogsp
; File c:\program files (x86)\microsoft visual studio 10.0\vc\include\utility
;	COMDAT ??$forward@ABH@std@@YAABHABH@Z
_TEXT	SEGMENT
__Arg$ = 8						; size = 4
??$forward@ABH@std@@YAABHABH@Z PROC			; std::forward<int const &>, COMDAT

; 78   : 	{	// forward _Arg, given explicitly specified type parameter

  00000	55		 push	 ebp
  00001	8b ec		 mov	 ebp, esp

; 79   : 	return ((_Ty&&)_Arg);

  00003	8b 45 08	 mov	 eax, DWORD PTR __Arg$[ebp]

; 80   : 	}

  00006	5d		 pop	 ebp
  00007	c3		 ret	 0
??$forward@ABH@std@@YAABHABH@Z ENDP			; std::forward<int const &>
_TEXT	ENDS
PUBLIC	??$_Construct@HABH@std@@YAXPAHABH@Z		; std::_Construct<int,int const &>
; Function compile flags: /Ogsp
; File c:\program files (x86)\microsoft visual studio 10.0\vc\include\xmemory
;	COMDAT ??$_Construct@HABH@std@@YAXPAHABH@Z
_TEXT	SEGMENT
__Ptr$ = 8						; size = 4
__Val$ = 12						; size = 4
??$_Construct@HABH@std@@YAXPAHABH@Z PROC		; std::_Construct<int,int const &>, COMDAT

; 46   : 	{	// construct object at _Ptr with value _Val

  00000	55		 push	 ebp
  00001	8b ec		 mov	 ebp, esp

; 47   : 	void _FARQ *_Vptr = _Ptr;
; 48   : 	::new (_Vptr) _Ty1(_STD forward<_Ty2>(_Val));

  00003	8b 45 08	 mov	 eax, DWORD PTR __Ptr$[ebp]
  00006	85 c0		 test	 eax, eax
  00008	74 07		 je	 SHORT $LN3@Construct
  0000a	8b 4d 0c	 mov	 ecx, DWORD PTR __Val$[ebp]
  0000d	8b 09		 mov	 ecx, DWORD PTR [ecx]
  0000f	89 08		 mov	 DWORD PTR [eax], ecx
$LN3@Construct:

; 49   : 	}

  00011	5d		 pop	 ebp
  00012	c3		 ret	 0
??$_Construct@HABH@std@@YAXPAHABH@Z ENDP		; std::_Construct<int,int const &>
_TEXT	ENDS
PUBLIC	?_Adopt@_Iterator_base0@std@@QAEXPBX@Z		; std::_Iterator_base0::_Adopt
; Function compile flags: /Ogsp
; File c:\program files (x86)\microsoft visual studio 10.0\vc\include\xutility
;	COMDAT ?_Adopt@_Iterator_base0@std@@QAEXPBX@Z
_TEXT	SEGMENT
___formal$ = 8						; size = 4
?_Adopt@_Iterator_base0@std@@QAEXPBX@Z PROC		; std::_Iterator_base0::_Adopt, COMDAT
; _this$ = ecx

; 49   : 		}

  00000	c2 04 00	 ret	 4
?_Adopt@_Iterator_base0@std@@QAEXPBX@Z ENDP		; std::_Iterator_base0::_Adopt
_TEXT	ENDS
PUBLIC	?_DECSTR@@YAXPADH@Z				; _DECSTR
; Function compile flags: /Ogsp
; File d:\lost saga for developer\youtube\tutorial\source\src\lsclient\stringprotect.h
;	COMDAT ?_DECSTR@@YAXPADH@Z
_TEXT	SEGMENT
_s$ = 8							; size = 4
_l$ = 12						; size = 4
?_DECSTR@@YAXPADH@Z PROC				; _DECSTR, COMDAT

; 40   : __forceinline void _DECSTR(char* s, int l){int i=0,l4=(l-1)/4,*p=(int*)s;s[l-1]=0;for(;i<l4;++i)*(p++)^=0xEAEBECED;for(i=l4*4;i<l-1;++i)s[i]^=0xED-i%4;}

  00000	55		 push	 ebp
  00001	8b ec		 mov	 ebp, esp
  00003	8b 4d 0c	 mov	 ecx, DWORD PTR _l$[ebp]
  00006	56		 push	 esi
  00007	8b 75 08	 mov	 esi, DWORD PTR _s$[ebp]
  0000a	57		 push	 edi
  0000b	8d 79 ff	 lea	 edi, DWORD PTR [ecx-1]
  0000e	8b c7		 mov	 eax, edi
  00010	99		 cdq
  00011	83 e2 03	 and	 edx, 3
  00014	03 c2		 add	 eax, edx
  00016	c1 f8 02	 sar	 eax, 2
  00019	8b d6		 mov	 edx, esi
  0001b	c6 44 0e ff 00	 mov	 BYTE PTR [esi+ecx-1], 0
  00020	85 c0		 test	 eax, eax
  00022	7e 0e		 jle	 SHORT $LN4@DECSTR
  00024	8b c8		 mov	 ecx, eax
$LL6@DECSTR:
  00026	81 32 ed ec eb
	ea		 xor	 DWORD PTR [edx], -353637139 ; eaebecedH
  0002c	83 c2 04	 add	 edx, 4
  0002f	49		 dec	 ecx
  00030	75 f4		 jne	 SHORT $LL6@DECSTR
$LN4@DECSTR:
  00032	c1 e0 02	 shl	 eax, 2
  00035	eb 17		 jmp	 SHORT $LN14@DECSTR
$LL3@DECSTR:
  00037	8b c8		 mov	 ecx, eax
  00039	81 e1 03 00 00
	80		 and	 ecx, -2147483645	; 80000003H
  0003f	79 05		 jns	 SHORT $LN13@DECSTR
  00041	49		 dec	 ecx
  00042	83 c9 fc	 or	 ecx, -4			; fffffffcH
  00045	41		 inc	 ecx
$LN13@DECSTR:
  00046	b2 ed		 mov	 dl, -19			; ffffffedH
  00048	2a d1		 sub	 dl, cl
  0004a	30 14 30	 xor	 BYTE PTR [eax+esi], dl
  0004d	40		 inc	 eax
$LN14@DECSTR:
  0004e	3b c7		 cmp	 eax, edi
  00050	7c e5		 jl	 SHORT $LL3@DECSTR
  00052	5f		 pop	 edi
  00053	5e		 pop	 esi
  00054	5d		 pop	 ebp
  00055	c3		 ret	 0
?_DECSTR@@YAXPADH@Z ENDP				; _DECSTR
_TEXT	ENDS
PUBLIC	?size@?$vector@HV?$allocator@H@std@@@std@@QBEIXZ ; std::vector<int,std::allocator<int> >::size
; Function compile flags: /Ogsp
; File c:\program files (x86)\microsoft visual studio 10.0\vc\include\vector
;	COMDAT ?size@?$vector@HV?$allocator@H@std@@@std@@QBEIXZ
_TEXT	SEGMENT
?size@?$vector@HV?$allocator@H@std@@@std@@QBEIXZ PROC	; std::vector<int,std::allocator<int> >::size, COMDAT
; _this$ = ecx

; 879  : 		return (this->_Mylast - this->_Myfirst);

  00000	8b 41 04	 mov	 eax, DWORD PTR [ecx+4]
  00003	2b 01		 sub	 eax, DWORD PTR [ecx]
  00005	c1 f8 02	 sar	 eax, 2

; 880  : 		}

  00008	c3		 ret	 0
?size@?$vector@HV?$allocator@H@std@@@std@@QBEIXZ ENDP	; std::vector<int,std::allocator<int> >::size
_TEXT	ENDS
PUBLIC	??A?$vector@HV?$allocator@H@std@@@std@@QAEAAHI@Z ; std::vector<int,std::allocator<int> >::operator[]
; Function compile flags: /Ogsp
;	COMDAT ??A?$vector@HV?$allocator@H@std@@@std@@QAEAAHI@Z
_TEXT	SEGMENT
__Pos$ = 8						; size = 4
??A?$vector@HV?$allocator@H@std@@@std@@QAEAAHI@Z PROC	; std::vector<int,std::allocator<int> >::operator[], COMDAT
; _this$ = ecx

; 928  : 		{	// subscript mutable sequence

  00000	55		 push	 ebp
  00001	8b ec		 mov	 ebp, esp

; 929  :  #if _ITERATOR_DEBUG_LEVEL == 2
; 930  : 		if (size() <= _Pos)
; 931  : 			{	// report error
; 932  : 			_DEBUG_ERROR("vector subscript out of range");
; 933  : 			_SCL_SECURE_OUT_OF_RANGE;
; 934  : 			}
; 935  : 
; 936  :  #elif _ITERATOR_DEBUG_LEVEL == 1
; 937  : 		_SCL_SECURE_VALIDATE_RANGE(_Pos < size());
; 938  :  #endif /* _ITERATOR_DEBUG_LEVEL */
; 939  : 
; 940  : 		return (*(this->_Myfirst + _Pos));

  00003	8b 01		 mov	 eax, DWORD PTR [ecx]
  00005	8b 4d 08	 mov	 ecx, DWORD PTR __Pos$[ebp]
  00008	8d 04 88	 lea	 eax, DWORD PTR [eax+ecx*4]

; 941  : 		}

  0000b	5d		 pop	 ebp
  0000c	c2 04 00	 ret	 4
??A?$vector@HV?$allocator@H@std@@@std@@QAEAAHI@Z ENDP	; std::vector<int,std::allocator<int> >::operator[]
_TEXT	ENDS
PUBLIC	??0?$allocator@H@std@@QAE@XZ			; std::allocator<int>::allocator<int>
; Function compile flags: /Ogsp
; File c:\program files (x86)\microsoft visual studio 10.0\vc\include\xmemory
;	COMDAT ??0?$allocator@H@std@@QAE@XZ
_TEXT	SEGMENT
??0?$allocator@H@std@@QAE@XZ PROC			; std::allocator<int>::allocator<int>, COMDAT
; _this$ = ecx

; 161  : 	_ALLOCATOR() _THROW0()

  00000	8b c1		 mov	 eax, ecx

; 162  : 		{	// construct default allocator (do nothing)
; 163  : 		}

  00002	c3		 ret	 0
??0?$allocator@H@std@@QAE@XZ ENDP			; std::allocator<int>::allocator<int>
_TEXT	ENDS
PUBLIC	??1?$_Vector_val@HV?$allocator@H@std@@@std@@QAE@XZ ; std::_Vector_val<int,std::allocator<int> >::~_Vector_val<int,std::allocator<int> >
; Function compile flags: /Ogsp
; File c:\program files (x86)\microsoft visual studio 10.0\vc\include\vector
;	COMDAT ??1?$_Vector_val@HV?$allocator@H@std@@@std@@QAE@XZ
_TEXT	SEGMENT
??1?$_Vector_val@HV?$allocator@H@std@@@std@@QAE@XZ PROC	; std::_Vector_val<int,std::allocator<int> >::~_Vector_val<int,std::allocator<int> >, COMDAT
; _this$ = ecx

; 434  : 		}

  00000	c3		 ret	 0
??1?$_Vector_val@HV?$allocator@H@std@@@std@@QAE@XZ ENDP	; std::_Vector_val<int,std::allocator<int> >::~_Vector_val<int,std::allocator<int> >
_TEXT	ENDS
PUBLIC	??0?$_Vector_const_iterator@V?$_Vector_val@HV?$allocator@H@std@@@std@@@std@@QAE@PAHPBU_Container_base0@1@@Z ; std::_Vector_const_iterator<std::_Vector_val<int,std::allocator<int> > >::_Vector_const_iterator<std::_Vector_val<int,std::allocator<int> > >
; Function compile flags: /Ogsp
;	COMDAT ??0?$_Vector_const_iterator@V?$_Vector_val@HV?$allocator@H@std@@@std@@@std@@QAE@PAHPBU_Container_base0@1@@Z
_TEXT	SEGMENT
__Parg$ = 8						; size = 4
__Pvector$ = 12						; size = 4
??0?$_Vector_const_iterator@V?$_Vector_val@HV?$allocator@H@std@@@std@@@std@@QAE@PAHPBU_Container_base0@1@@Z PROC ; std::_Vector_const_iterator<std::_Vector_val<int,std::allocator<int> > >::_Vector_const_iterator<std::_Vector_val<int,std::allocator<int> > >, COMDAT
; _this$ = ecx

; 45   : 		{	// construct with pointer _Parg

  00000	55		 push	 ebp
  00001	8b ec		 mov	 ebp, esp
  00003	8b c1		 mov	 eax, ecx
  00005	8b 4d 08	 mov	 ecx, DWORD PTR __Parg$[ebp]
  00008	89 08		 mov	 DWORD PTR [eax], ecx

; 46   : 		this->_Adopt(_Pvector);
; 47   : 		}

  0000a	5d		 pop	 ebp
  0000b	c2 08 00	 ret	 8
??0?$_Vector_const_iterator@V?$_Vector_val@HV?$allocator@H@std@@@std@@@std@@QAE@PAHPBU_Container_base0@1@@Z ENDP ; std::_Vector_const_iterator<std::_Vector_val<int,std::allocator<int> > >::_Vector_const_iterator<std::_Vector_val<int,std::allocator<int> > >
_TEXT	ENDS
PUBLIC	??0?$_Vector_iterator@V?$_Vector_val@HV?$allocator@H@std@@@std@@@std@@QAE@PAHPBU_Container_base0@1@@Z ; std::_Vector_iterator<std::_Vector_val<int,std::allocator<int> > >::_Vector_iterator<std::_Vector_val<int,std::allocator<int> > >
; Function compile flags: /Ogsp
;	COMDAT ??0?$_Vector_iterator@V?$_Vector_val@HV?$allocator@H@std@@@std@@@std@@QAE@PAHPBU_Container_base0@1@@Z
_TEXT	SEGMENT
__Parg$ = 8						; size = 4
__Pvector$ = 12						; size = 4
??0?$_Vector_iterator@V?$_Vector_val@HV?$allocator@H@std@@@std@@@std@@QAE@PAHPBU_Container_base0@1@@Z PROC ; std::_Vector_iterator<std::_Vector_val<int,std::allocator<int> > >::_Vector_iterator<std::_Vector_val<int,std::allocator<int> > >, COMDAT
; _this$ = ecx

; 304  : 		{	// construct with pointer _Parg

  00000	55		 push	 ebp
  00001	8b ec		 mov	 ebp, esp
  00003	8b c1		 mov	 eax, ecx
  00005	8b 4d 08	 mov	 ecx, DWORD PTR __Parg$[ebp]
  00008	89 08		 mov	 DWORD PTR [eax], ecx

; 305  : 		}

  0000a	5d		 pop	 ebp
  0000b	c2 08 00	 ret	 8
??0?$_Vector_iterator@V?$_Vector_val@HV?$allocator@H@std@@@std@@@std@@QAE@PAHPBU_Container_base0@1@@Z ENDP ; std::_Vector_iterator<std::_Vector_val<int,std::allocator<int> > >::_Vector_iterator<std::_Vector_val<int,std::allocator<int> > >
_TEXT	ENDS
PUBLIC	??0?$allocator@H@std@@QAE@ABV01@@Z		; std::allocator<int>::allocator<int>
; Function compile flags: /Ogsp
; File c:\program files (x86)\microsoft visual studio 10.0\vc\include\xmemory
;	COMDAT ??0?$allocator@H@std@@QAE@ABV01@@Z
_TEXT	SEGMENT
___formal$ = 8						; size = 4
??0?$allocator@H@std@@QAE@ABV01@@Z PROC			; std::allocator<int>::allocator<int>, COMDAT
; _this$ = ecx

; 165  : 	_ALLOCATOR(const _ALLOCATOR<_Ty>&) _THROW0()

  00000	8b c1		 mov	 eax, ecx

; 166  : 		{	// construct by copying (do nothing)
; 167  : 		}

  00002	c2 04 00	 ret	 4
??0?$allocator@H@std@@QAE@ABV01@@Z ENDP			; std::allocator<int>::allocator<int>
_TEXT	ENDS
PUBLIC	?deallocate@?$allocator@H@std@@QAEXPAHI@Z	; std::allocator<int>::deallocate
; Function compile flags: /Ogsp
;	COMDAT ?deallocate@?$allocator@H@std@@QAEXPAHI@Z
_TEXT	SEGMENT
__Ptr$ = 8						; size = 4
___formal$ = 12						; size = 4
?deallocate@?$allocator@H@std@@QAEXPAHI@Z PROC		; std::allocator<int>::deallocate, COMDAT
; _this$ = ecx

; 181  : 		{	// deallocate object at _Ptr, ignore size

  00000	55		 push	 ebp
  00001	8b ec		 mov	 ebp, esp

; 182  : 		::operator delete(_Ptr);

  00003	ff 75 08	 push	 DWORD PTR __Ptr$[ebp]
  00006	e8 00 00 00 00	 call	 ??3@YAXPAX@Z		; operator delete
  0000b	59		 pop	 ecx

; 183  : 		}

  0000c	5d		 pop	 ebp
  0000d	c2 08 00	 ret	 8
?deallocate@?$allocator@H@std@@QAEXPAHI@Z ENDP		; std::allocator<int>::deallocate
_TEXT	ENDS
PUBLIC	?capacity@?$vector@HV?$allocator@H@std@@@std@@QBEIXZ ; std::vector<int,std::allocator<int> >::capacity
; Function compile flags: /Ogsp
; File c:\program files (x86)\microsoft visual studio 10.0\vc\include\vector
;	COMDAT ?capacity@?$vector@HV?$allocator@H@std@@@std@@QBEIXZ
_TEXT	SEGMENT
?capacity@?$vector@HV?$allocator@H@std@@@std@@QBEIXZ PROC ; std::vector<int,std::allocator<int> >::capacity, COMDAT
; _this$ = ecx

; 777  : 		return (this->_Myend - this->_Myfirst);

  00000	8b 41 08	 mov	 eax, DWORD PTR [ecx+8]
  00003	2b 01		 sub	 eax, DWORD PTR [ecx]
  00005	c1 f8 02	 sar	 eax, 2

; 778  : 		}

  00008	c3		 ret	 0
?capacity@?$vector@HV?$allocator@H@std@@@std@@QBEIXZ ENDP ; std::vector<int,std::allocator<int> >::capacity
_TEXT	ENDS
PUBLIC	?_Make_iter@?$vector@HV?$allocator@H@std@@@std@@QBE?AV?$_Vector_iterator@V?$_Vector_val@HV?$allocator@H@std@@@std@@@2@V?$_Vector_const_iterator@V?$_Vector_val@HV?$allocator@H@std@@@std@@@2@@Z ; std::vector<int,std::allocator<int> >::_Make_iter
; Function compile flags: /Ogsp
;	COMDAT ?_Make_iter@?$vector@HV?$allocator@H@std@@@std@@QBE?AV?$_Vector_iterator@V?$_Vector_val@HV?$allocator@H@std@@@std@@@2@V?$_Vector_const_iterator@V?$_Vector_val@HV?$allocator@H@std@@@std@@@2@@Z
_TEXT	SEGMENT
___$ReturnUdt$ = 8					; size = 4
__Where$ = 12						; size = 4
?_Make_iter@?$vector@HV?$allocator@H@std@@@std@@QBE?AV?$_Vector_iterator@V?$_Vector_val@HV?$allocator@H@std@@@std@@@2@V?$_Vector_const_iterator@V?$_Vector_val@HV?$allocator@H@std@@@std@@@2@@Z PROC ; std::vector<int,std::allocator<int> >::_Make_iter, COMDAT
; _this$ = ecx

; 801  : 		{	// make iterator from const_iterator

  00000	55		 push	 ebp
  00001	8b ec		 mov	 ebp, esp

; 802  : 		return (iterator(_Where._Ptr, this));

  00003	8b 45 08	 mov	 eax, DWORD PTR ___$ReturnUdt$[ebp]
  00006	8b 4d 0c	 mov	 ecx, DWORD PTR __Where$[ebp]
  00009	89 08		 mov	 DWORD PTR [eax], ecx

; 803  : 		}

  0000b	5d		 pop	 ebp
  0000c	c2 08 00	 ret	 8
?_Make_iter@?$vector@HV?$allocator@H@std@@@std@@QBE?AV?$_Vector_iterator@V?$_Vector_val@HV?$allocator@H@std@@@std@@@2@V?$_Vector_const_iterator@V?$_Vector_val@HV?$allocator@H@std@@@std@@@2@@Z ENDP ; std::vector<int,std::allocator<int> >::_Make_iter
_TEXT	ENDS
PUBLIC	??_C@_0BD@OLBABOEK@vector?$DMT?$DO?5too?5long?$AA@ ; `string'
PUBLIC	?_Xlen@?$vector@HV?$allocator@H@std@@@std@@IBEXXZ ; std::vector<int,std::allocator<int> >::_Xlen
EXTRN	__imp_?_Xlength_error@std@@YAXPBD@Z:PROC
;	COMDAT ??_C@_0BD@OLBABOEK@vector?$DMT?$DO?5too?5long?$AA@
CONST	SEGMENT
??_C@_0BD@OLBABOEK@vector?$DMT?$DO?5too?5long?$AA@ DB 'vector<T> too long'
	DB	00H						; `string'
; Function compile flags: /Ogsp
CONST	ENDS
;	COMDAT ?_Xlen@?$vector@HV?$allocator@H@std@@@std@@IBEXXZ
_TEXT	SEGMENT
?_Xlen@?$vector@HV?$allocator@H@std@@@std@@IBEXXZ PROC	; std::vector<int,std::allocator<int> >::_Xlen, COMDAT
; _this$ = ecx

; 1427 : 		_Xlength_error("vector<T> too long");

  00000	68 00 00 00 00	 push	 OFFSET ??_C@_0BD@OLBABOEK@vector?$DMT?$DO?5too?5long?$AA@
  00005	ff 15 00 00 00
	00		 call	 DWORD PTR __imp_?_Xlength_error@std@@YAXPBD@Z
$LN4@Xlen:
$LN3@Xlen:
  0000b	cc		 int	 3
?_Xlen@?$vector@HV?$allocator@H@std@@@std@@IBEXXZ ENDP	; std::vector<int,std::allocator<int> >::_Xlen
_TEXT	ENDS
PUBLIC	?max_size@?$allocator@H@std@@QBEIXZ		; std::allocator<int>::max_size
; Function compile flags: /Ogsp
; File c:\program files (x86)\microsoft visual studio 10.0\vc\include\xmemory
;	COMDAT ?max_size@?$allocator@H@std@@QBEIXZ
_TEXT	SEGMENT
?max_size@?$allocator@H@std@@QBEIXZ PROC		; std::allocator<int>::max_size, COMDAT
; _this$ = ecx

; 218  : 		_SIZT _Count = (_SIZT)(-1) / sizeof (_Ty);
; 219  : 		return (0 < _Count ? _Count : 1);

  00000	b8 ff ff ff 3f	 mov	 eax, 1073741823		; 3fffffffH

; 220  : 		}

  00005	c3		 ret	 0
?max_size@?$allocator@H@std@@QBEIXZ ENDP		; std::allocator<int>::max_size
_TEXT	ENDS
PUBLIC	?_Compat@?$_Vector_const_iterator@V?$_Vector_val@HV?$allocator@H@std@@@std@@@std@@QBEXABV12@@Z ; std::_Vector_const_iterator<std::_Vector_val<int,std::allocator<int> > >::_Compat
; Function compile flags: /Ogsp
; File c:\program files (x86)\microsoft visual studio 10.0\vc\include\vector
;	COMDAT ?_Compat@?$_Vector_const_iterator@V?$_Vector_val@HV?$allocator@H@std@@@std@@@std@@QBEXABV12@@Z
_TEXT	SEGMENT
___formal$ = 8						; size = 4
?_Compat@?$_Vector_const_iterator@V?$_Vector_val@HV?$allocator@H@std@@@std@@@std@@QBEXABV12@@Z PROC ; std::_Vector_const_iterator<std::_Vector_val<int,std::allocator<int> > >::_Compat, COMDAT
; _this$ = ecx

; 253  : 		}

  00000	c2 04 00	 ret	 4
?_Compat@?$_Vector_const_iterator@V?$_Vector_val@HV?$allocator@H@std@@@std@@@std@@QBEXABV12@@Z ENDP ; std::_Vector_const_iterator<std::_Vector_val<int,std::allocator<int> > >::_Compat
_TEXT	ENDS
PUBLIC	__TI2?AVbad_alloc@std@@
PUBLIC	??$_Allocate@H@std@@YAPAHIPAH@Z			; std::_Allocate<int>
PUBLIC	__CTA2?AVbad_alloc@std@@
PUBLIC	__CT??_R0?AVbad_alloc@std@@@8??0bad_alloc@std@@QAE@ABV01@@Z12
PUBLIC	??0bad_alloc@std@@QAE@ABV01@@Z			; std::bad_alloc::bad_alloc
PUBLIC	__CT??_R0?AVexception@std@@@8??0exception@std@@QAE@ABV01@@Z12
EXTRN	??2@YAPAXI@Z:PROC				; operator new
EXTRN	__CxxThrowException@8:PROC
EXTRN	??0exception@std@@QAE@ABV01@@Z:PROC		; std::exception::exception
;	COMDAT __CT??_R0?AVexception@std@@@8??0exception@std@@QAE@ABV01@@Z12
; File c:\program files (x86)\microsoft visual studio 10.0\vc\include\exception
xdata$x	SEGMENT
__CT??_R0?AVexception@std@@@8??0exception@std@@QAE@ABV01@@Z12 DD 00H
	DD	FLAT:??_R0?AVexception@std@@@8
	DD	00H
	DD	0ffffffffH
	ORG $+4
	DD	0cH
	DD	FLAT:??0exception@std@@QAE@ABV01@@Z
xdata$x	ENDS
;	COMDAT __CT??_R0?AVbad_alloc@std@@@8??0bad_alloc@std@@QAE@ABV01@@Z12
xdata$x	SEGMENT
__CT??_R0?AVbad_alloc@std@@@8??0bad_alloc@std@@QAE@ABV01@@Z12 DD 00H
	DD	FLAT:??_R0?AVbad_alloc@std@@@8
	DD	00H
	DD	0ffffffffH
	ORG $+4
	DD	0cH
	DD	FLAT:??0bad_alloc@std@@QAE@ABV01@@Z
xdata$x	ENDS
;	COMDAT __CTA2?AVbad_alloc@std@@
xdata$x	SEGMENT
__CTA2?AVbad_alloc@std@@ DD 02H
	DD	FLAT:__CT??_R0?AVbad_alloc@std@@@8??0bad_alloc@std@@QAE@ABV01@@Z12
	DD	FLAT:__CT??_R0?AVexception@std@@@8??0exception@std@@QAE@ABV01@@Z12
xdata$x	ENDS
;	COMDAT __TI2?AVbad_alloc@std@@
xdata$x	SEGMENT
__TI2?AVbad_alloc@std@@ DD 00H
	DD	FLAT:??1bad_alloc@std@@UAE@XZ
	DD	00H
	DD	FLAT:__CTA2?AVbad_alloc@std@@
; Function compile flags: /Ogsp
; File c:\program files (x86)\microsoft visual studio 10.0\vc\include\xmemory
xdata$x	ENDS
;	COMDAT ??$_Allocate@H@std@@YAPAHIPAH@Z
_TEXT	SEGMENT
$T507985 = -12						; size = 12
$T507990 = 8						; size = 4
__Count$ = 8						; size = 4
___formal$ = 12						; size = 4
??$_Allocate@H@std@@YAPAHIPAH@Z PROC			; std::_Allocate<int>, COMDAT

; 30   : 	{	// allocate storage for _Count elements of type _Ty

  00000	55		 push	 ebp
  00001	8b ec		 mov	 ebp, esp

; 31   : 	void *_Ptr = 0;
; 32   : 
; 33   : 	if (_Count <= 0)

  00003	8b 4d 08	 mov	 ecx, DWORD PTR __Count$[ebp]
  00006	83 ec 0c	 sub	 esp, 12			; 0000000cH
  00009	33 c0		 xor	 eax, eax
  0000b	85 c9		 test	 ecx, ecx

; 34   : 		_Count = 0;
; 35   : 	else if (((_SIZT)(-1) / sizeof (_Ty) < _Count)

  0000d	74 3e		 je	 SHORT $LN5@Allocate

; 36   : 		|| (_Ptr = ::operator new(_Count * sizeof (_Ty))) == 0)

  0000f	81 f9 ff ff ff
	3f		 cmp	 ecx, 1073741823		; 3fffffffH
  00015	77 10		 ja	 SHORT $LN1@Allocate
  00017	8b c1		 mov	 eax, ecx
  00019	c1 e0 02	 shl	 eax, 2
  0001c	50		 push	 eax
  0001d	e8 00 00 00 00	 call	 ??2@YAPAXI@Z		; operator new
  00022	59		 pop	 ecx
  00023	85 c0		 test	 eax, eax

; 38   : 
; 39   : 	return ((_Ty _FARQ *)_Ptr);

  00025	75 26		 jne	 SHORT $LN5@Allocate
$LN1@Allocate:

; 37   : 		_THROW_NCEE(bad_alloc, 0);

  00027	83 65 08 00	 and	 DWORD PTR $T507990[ebp], 0
  0002b	8d 45 08	 lea	 eax, DWORD PTR $T507990[ebp]
  0002e	50		 push	 eax
  0002f	8d 4d f4	 lea	 ecx, DWORD PTR $T507985[ebp]
  00032	ff 15 00 00 00
	00		 call	 DWORD PTR __imp_??0exception@std@@QAE@ABQBD@Z
  00038	68 00 00 00 00	 push	 OFFSET __TI2?AVbad_alloc@std@@
  0003d	8d 45 f4	 lea	 eax, DWORD PTR $T507985[ebp]
  00040	50		 push	 eax
  00041	c7 45 f4 00 00
	00 00		 mov	 DWORD PTR $T507985[ebp], OFFSET ??_7bad_alloc@std@@6B@
  00048	e8 00 00 00 00	 call	 __CxxThrowException@8
$LN10@Allocate:
$LN5@Allocate:

; 40   : 	}

  0004d	c9		 leave
  0004e	c3		 ret	 0
$LN9@Allocate:
??$_Allocate@H@std@@YAPAHIPAH@Z ENDP			; std::_Allocate<int>
_TEXT	ENDS
EXTRN	__imp_??0exception@std@@QAE@ABV01@@Z:PROC
; Function compile flags: /Ogsp
;	COMDAT ??0bad_alloc@std@@QAE@ABV01@@Z
_TEXT	SEGMENT
___that$ = 8						; size = 4
??0bad_alloc@std@@QAE@ABV01@@Z PROC			; std::bad_alloc::bad_alloc, COMDAT
; _this$ = ecx
  00000	55		 push	 ebp
  00001	8b ec		 mov	 ebp, esp
  00003	56		 push	 esi
  00004	ff 75 08	 push	 DWORD PTR ___that$[ebp]
  00007	8b f1		 mov	 esi, ecx
  00009	ff 15 00 00 00
	00		 call	 DWORD PTR __imp_??0exception@std@@QAE@ABV01@@Z
  0000f	c7 06 00 00 00
	00		 mov	 DWORD PTR [esi], OFFSET ??_7bad_alloc@std@@6B@
  00015	8b c6		 mov	 eax, esi
  00017	5e		 pop	 esi
  00018	5d		 pop	 ebp
  00019	c2 04 00	 ret	 4
??0bad_alloc@std@@QAE@ABV01@@Z ENDP			; std::bad_alloc::bad_alloc
_TEXT	ENDS
PUBLIC	??$forward@AAH@std@@YAAAHAAH@Z			; std::forward<int &>
; Function compile flags: /Ogsp
; File c:\program files (x86)\microsoft visual studio 10.0\vc\include\utility
;	COMDAT ??$forward@AAH@std@@YAAAHAAH@Z
_TEXT	SEGMENT
__Arg$ = 8						; size = 4
??$forward@AAH@std@@YAAAHAAH@Z PROC			; std::forward<int &>, COMDAT

; 78   : 	{	// forward _Arg, given explicitly specified type parameter

  00000	55		 push	 ebp
  00001	8b ec		 mov	 ebp, esp

; 79   : 	return ((_Ty&&)_Arg);

  00003	8b 45 08	 mov	 eax, DWORD PTR __Arg$[ebp]

; 80   : 	}

  00006	5d		 pop	 ebp
  00007	c3		 ret	 0
??$forward@AAH@std@@YAAAHAAH@Z ENDP			; std::forward<int &>
_TEXT	ENDS
PUBLIC	??$_Val_type@PAH@std@@YAPAHPAH@Z		; std::_Val_type<int *>
; Function compile flags: /Ogsp
; File c:\program files (x86)\microsoft visual studio 10.0\vc\include\xutility
;	COMDAT ??$_Val_type@PAH@std@@YAPAHPAH@Z
_TEXT	SEGMENT
___formal$ = 8						; size = 4
??$_Val_type@PAH@std@@YAPAHPAH@Z PROC			; std::_Val_type<int *>, COMDAT

; 790  : 	return (0);

  00000	33 c0		 xor	 eax, eax

; 791  : 	}

  00002	c3		 ret	 0
??$_Val_type@PAH@std@@YAPAHPAH@Z ENDP			; std::_Val_type<int *>
_TEXT	ENDS
PUBLIC	??$_Ptr_cat@HH@std@@YA?AU_Scalar_ptr_iterator_tag@0@PAH0@Z ; std::_Ptr_cat<int,int>
; Function compile flags: /Ogsp
;	COMDAT ??$_Ptr_cat@HH@std@@YA?AU_Scalar_ptr_iterator_tag@0@PAH0@Z
_TEXT	SEGMENT
__Cat$ = -1						; size = 1
___formal$ = 8						; size = 4
___formal$ = 12						; size = 4
??$_Ptr_cat@HH@std@@YA?AU_Scalar_ptr_iterator_tag@0@PAH0@Z PROC ; std::_Ptr_cat<int,int>, COMDAT

; 516  : 	{	// return pointer category from pointers

  00000	55		 push	 ebp
  00001	8b ec		 mov	 ebp, esp
  00003	51		 push	 ecx

; 517  : 	typename _Ptr_cat_helper<_Elem1, _Elem2>::_Type _Cat;
; 518  : 	return (_Cat);

  00004	8a 45 ff	 mov	 al, BYTE PTR __Cat$[ebp]

; 519  : 	}

  00007	c9		 leave
  00008	c3		 ret	 0
??$_Ptr_cat@HH@std@@YA?AU_Scalar_ptr_iterator_tag@0@PAH0@Z ENDP ; std::_Ptr_cat<int,int>
_TEXT	ENDS
PUBLIC	??$_Move@PAHPAH@std@@YAPAHPAH00U_Scalar_ptr_iterator_tag@0@@Z ; std::_Move<int *,int *>
EXTRN	__imp__memmove:PROC
; Function compile flags: /Ogsp
;	COMDAT ??$_Move@PAHPAH@std@@YAPAHPAH00U_Scalar_ptr_iterator_tag@0@@Z
_TEXT	SEGMENT
__First$ = 8						; size = 4
__Last$ = 12						; size = 4
__Dest$ = 16						; size = 4
___formal$ = 20						; size = 1
??$_Move@PAHPAH@std@@YAPAHPAH00U_Scalar_ptr_iterator_tag@0@@Z PROC ; std::_Move<int *,int *>, COMDAT

; 2522 : 	{	// move [_First, _Last) to [_Dest, ...), pointers to scalars

  00000	55		 push	 ebp
  00001	8b ec		 mov	 ebp, esp
  00003	56		 push	 esi

; 2523 : 	ptrdiff_t _Count = _Last - _First;

  00004	8b 75 0c	 mov	 esi, DWORD PTR __Last$[ebp]
  00007	2b 75 08	 sub	 esi, DWORD PTR __First$[ebp]
  0000a	57		 push	 edi

; 2524 : 	_CSTD memmove(&*_Dest, &*_First,
; 2525 : 		_Count * sizeof (*_First));

  0000b	8b 7d 10	 mov	 edi, DWORD PTR __Dest$[ebp]
  0000e	c1 fe 02	 sar	 esi, 2
  00011	c1 e6 02	 shl	 esi, 2
  00014	56		 push	 esi
  00015	ff 75 08	 push	 DWORD PTR __First$[ebp]
  00018	57		 push	 edi
  00019	ff 15 00 00 00
	00		 call	 DWORD PTR __imp__memmove
  0001f	83 c4 0c	 add	 esp, 12			; 0000000cH

; 2526 : 	return (_Dest + _Count);

  00022	8d 04 3e	 lea	 eax, DWORD PTR [esi+edi]
  00025	5f		 pop	 edi
  00026	5e		 pop	 esi

; 2527 : 	}

  00027	5d		 pop	 ebp
  00028	c3		 ret	 0
??$_Move@PAHPAH@std@@YAPAHPAH00U_Scalar_ptr_iterator_tag@0@@Z ENDP ; std::_Move<int *,int *>
_TEXT	ENDS
PUBLIC	??$_Destroy_range@V?$allocator@H@std@@@std@@YAXPAH0AAV?$allocator@H@0@U_Scalar_ptr_iterator_tag@0@@Z ; std::_Destroy_range<std::allocator<int> >
; Function compile flags: /Ogsp
; File c:\program files (x86)\microsoft visual studio 10.0\vc\include\xmemory
;	COMDAT ??$_Destroy_range@V?$allocator@H@std@@@std@@YAXPAH0AAV?$allocator@H@0@U_Scalar_ptr_iterator_tag@0@@Z
_TEXT	SEGMENT
__First$ = 8						; size = 4
__Last$ = 12						; size = 4
__Al$ = 16						; size = 4
___formal$ = 20						; size = 1
??$_Destroy_range@V?$allocator@H@std@@@std@@YAXPAH0AAV?$allocator@H@0@U_Scalar_ptr_iterator_tag@0@@Z PROC ; std::_Destroy_range<std::allocator<int> >, COMDAT

; 105  : 	}

  00000	c3		 ret	 0
??$_Destroy_range@V?$allocator@H@std@@@std@@YAXPAH0AAV?$allocator@H@0@U_Scalar_ptr_iterator_tag@0@@Z ENDP ; std::_Destroy_range<std::allocator<int> >
_TEXT	ENDS
PUBLIC	??$_Uninit_move@HHH@std@@YAPAHPAH00AAV?$allocator@H@0@0U_Scalar_ptr_iterator_tag@0@@Z ; std::_Uninit_move<int,int,int>
; Function compile flags: /Ogsp
; File c:\program files (x86)\microsoft visual studio 10.0\vc\include\memory
;	COMDAT ??$_Uninit_move@HHH@std@@YAPAHPAH00AAV?$allocator@H@0@0U_Scalar_ptr_iterator_tag@0@@Z
_TEXT	SEGMENT
__First$ = 8						; size = 4
__Last$ = 12						; size = 4
__Dest$ = 16						; size = 4
___formal$ = 20						; size = 4
___formal$ = 24						; size = 4
___formal$ = 28						; size = 1
??$_Uninit_move@HHH@std@@YAPAHPAH00AAV?$allocator@H@0@0U_Scalar_ptr_iterator_tag@0@@Z PROC ; std::_Uninit_move<int,int,int>, COMDAT

; 456  : 	{	// move [_First, _Last) to raw _Dest, scalar type

  00000	55		 push	 ebp
  00001	8b ec		 mov	 ebp, esp
  00003	56		 push	 esi

; 457  : 	_DEBUG_RANGE(_First, _Last);
; 458  : 	_DEBUG_POINTER(_Dest);
; 459  : 	size_t _Count = (size_t)(_Last - _First);

  00004	8b 75 0c	 mov	 esi, DWORD PTR __Last$[ebp]
  00007	2b 75 08	 sub	 esi, DWORD PTR __First$[ebp]
  0000a	c1 fe 02	 sar	 esi, 2

; 460  : 	return ((_Ty2 *)_CSTD memmove(&*_Dest, &*_First,
; 461  : 		_Count * sizeof (*_First)) + _Count);	// NB: non-overlapping move

  0000d	c1 e6 02	 shl	 esi, 2
  00010	56		 push	 esi
  00011	ff 75 08	 push	 DWORD PTR __First$[ebp]
  00014	ff 75 10	 push	 DWORD PTR __Dest$[ebp]
  00017	ff 15 00 00 00
	00		 call	 DWORD PTR __imp__memmove
  0001d	83 c4 0c	 add	 esp, 12			; 0000000cH
  00020	03 c6		 add	 eax, esi
  00022	5e		 pop	 esi

; 462  : 	}

  00023	5d		 pop	 ebp
  00024	c3		 ret	 0
??$_Uninit_move@HHH@std@@YAPAHPAH00AAV?$allocator@H@0@0U_Scalar_ptr_iterator_tag@0@@Z ENDP ; std::_Uninit_move<int,int,int>
_TEXT	ENDS
PUBLIC	?GetImage@ADImagePanelWnd@@IAEPAVioUIRenderImage@@H@Z ; ADImagePanelWnd::GetImage
EXTRN	?GetImageAD@ioShopManager@@QAEPBUADImage@@H@Z:PROC ; ioShopManager::GetImageAD
EXTRN	?GetSingleton@ioShopManager@@SAAAV1@XZ:PROC	; ioShopManager::GetSingleton
; Function compile flags: /Ogsp
; File d:\lost saga for developer\youtube\tutorial\source\src\lsclient\gui\adimagepanelwnd.cpp
;	COMDAT ?GetImage@ADImagePanelWnd@@IAEPAVioUIRenderImage@@H@Z
_TEXT	SEGMENT
_index$ = 8						; size = 4
?GetImage@ADImagePanelWnd@@IAEPAVioUIRenderImage@@H@Z PROC ; ADImagePanelWnd::GetImage, COMDAT
; _this$ = ecx

; 158  : {

  00000	55		 push	 ebp
  00001	8b ec		 mov	 ebp, esp

; 159  : 	if( index >= (int)m_ADIndexList.size() )

  00003	8b 81 0c 02 00
	00		 mov	 eax, DWORD PTR [ecx+524]
  00009	2b 81 08 02 00
	00		 sub	 eax, DWORD PTR [ecx+520]
  0000f	8b 55 08	 mov	 edx, DWORD PTR _index$[ebp]
  00012	c1 f8 02	 sar	 eax, 2
  00015	3b d0		 cmp	 edx, eax
  00017	7c 04		 jl	 SHORT $LN4@GetImage

; 160  : 	{
; 161  : 		index = 0;

  00019	33 d2		 xor	 edx, edx
  0001b	eb 07		 jmp	 SHORT $LN2@GetImage
$LN4@GetImage:

; 162  : 	}
; 163  : 	else if( index < 0 )

  0001d	85 d2		 test	 edx, edx
  0001f	79 03		 jns	 SHORT $LN2@GetImage

; 164  : 	{
; 165  : 		index = (int)m_ADIndexList.size() - 1;

  00021	8d 50 ff	 lea	 edx, DWORD PTR [eax-1]
$LN2@GetImage:

; 166  : 	}
; 167  : 
; 168  : 	const ADImage* pCurrAD = g_ShopManager.GetImageAD( m_ADIndexList[index] );

  00024	8b 81 08 02 00
	00		 mov	 eax, DWORD PTR [ecx+520]
  0002a	8d 04 90	 lea	 eax, DWORD PTR [eax+edx*4]
  0002d	ff 30		 push	 DWORD PTR [eax]
  0002f	e8 00 00 00 00	 call	 ?GetSingleton@ioShopManager@@SAAAV1@XZ ; ioShopManager::GetSingleton
  00034	8b c8		 mov	 ecx, eax
  00036	e8 00 00 00 00	 call	 ?GetImageAD@ioShopManager@@QAEPBUADImage@@H@Z ; ioShopManager::GetImageAD

; 169  : 	if( pCurrAD )

  0003b	85 c0		 test	 eax, eax
  0003d	74 05		 je	 SHORT $LN1@GetImage

; 170  : 	{
; 171  : 		return pCurrAD->m_pImage;

  0003f	8b 40 48	 mov	 eax, DWORD PTR [eax+72]
  00042	eb 02		 jmp	 SHORT $LN5@GetImage
$LN1@GetImage:

; 172  : 	}
; 173  : 
; 174  : 	return NULL;

  00044	33 c0		 xor	 eax, eax
$LN5@GetImage:

; 175  : }

  00046	5d		 pop	 ebp
  00047	c2 04 00	 ret	 4
?GetImage@ADImagePanelWnd@@IAEPAVioUIRenderImage@@H@Z ENDP ; ADImagePanelWnd::GetImage
_TEXT	ENDS
PUBLIC	?ChangeAD@ADImagePanelWnd@@IAEXXZ		; ADImagePanelWnd::ChangeAD
EXTRN	__imp_?GetLoopSec@ioFrameTimer@@QBEKXZ:PROC
EXTRN	__imp_?GetSingleton@ioFrameTimer@@SAAAV1@XZ:PROC
; Function compile flags: /Ogsp
;	COMDAT ?ChangeAD@ADImagePanelWnd@@IAEXXZ
_TEXT	SEGMENT
?ChangeAD@ADImagePanelWnd@@IAEXXZ PROC			; ADImagePanelWnd::ChangeAD, COMDAT
; _this$ = ecx

; 178  : {

  00000	56		 push	 esi
  00001	8b f1		 mov	 esi, ecx

; 179  : 	if( !COMPARE( m_iCurrIndex, 0, (int)m_ADIndexList.size() ) )

  00003	8b 86 18 02 00
	00		 mov	 eax, DWORD PTR [esi+536]
  00009	85 c0		 test	 eax, eax
  0000b	0f 88 c6 00 00
	00		 js	 $LN9@ChangeAD
  00011	8b 8e 0c 02 00
	00		 mov	 ecx, DWORD PTR [esi+524]
  00017	2b 8e 08 02 00
	00		 sub	 ecx, DWORD PTR [esi+520]
  0001d	c1 f9 02	 sar	 ecx, 2
  00020	3b c1		 cmp	 eax, ecx
  00022	0f 8d af 00 00
	00		 jge	 $LN9@ChangeAD

; 180  : 		return;
; 181  : 
; 182  : 	m_fCurrRate			= 0.0f;

  00028	0f 57 c0	 xorps	 xmm0, xmm0
  0002b	57		 push	 edi
  0002c	f3 0f 11 86 34
	02 00 00	 movss	 DWORD PTR [esi+564], xmm0

; 183  : 	m_ADState			= ADS_PAGING;

  00034	c7 86 00 02 00
	00 01 00 00 00	 mov	 DWORD PTR [esi+512], 1

; 184  : 	m_dPagingStartTime	= FRAMEGETTIME();

  0003e	ff 15 00 00 00
	00		 call	 DWORD PTR __imp_?GetSingleton@ioFrameTimer@@SAAAV1@XZ
  00044	8b c8		 mov	 ecx, eax
  00046	ff 15 00 00 00
	00		 call	 DWORD PTR __imp_?GetLoopSec@ioFrameTimer@@QBEKXZ

; 185  : 
; 186  : 	const ADImage* pCurrAD = g_ShopManager.GetImageAD( m_ADIndexList[m_iCurrIndex] );

  0004c	8b 8e 08 02 00
	00		 mov	 ecx, DWORD PTR [esi+520]
  00052	89 86 30 02 00
	00		 mov	 DWORD PTR [esi+560], eax
  00058	8b 86 18 02 00
	00		 mov	 eax, DWORD PTR [esi+536]
  0005e	8d 04 81	 lea	 eax, DWORD PTR [ecx+eax*4]
  00061	ff 30		 push	 DWORD PTR [eax]
  00063	e8 00 00 00 00	 call	 ?GetSingleton@ioShopManager@@SAAAV1@XZ ; ioShopManager::GetSingleton
  00068	8b c8		 mov	 ecx, eax
  0006a	e8 00 00 00 00	 call	 ?GetImageAD@ioShopManager@@QAEPBUADImage@@H@Z ; ioShopManager::GetImageAD
  0006f	8b f8		 mov	 edi, eax

; 187  : 	if( pCurrAD )

  00071	85 ff		 test	 edi, edi
  00073	74 53		 je	 SHORT $LN8@ChangeAD

; 188  : 	{
; 189  : 		if( m_pCurrBanner )

  00075	8b 86 1c 02 00
	00		 mov	 eax, DWORD PTR [esi+540]
  0007b	85 c0		 test	 eax, eax

; 190  : 		{
; 191  : 			m_pPrevBanner = m_pCurrBanner;
; 192  : 		}
; 193  : 		else

  0007d	75 26		 jne	 SHORT $LN18@ChangeAD

; 194  : 		{
; 195  : 			switch( m_SlideMove )

  0007f	8b 86 04 02 00
	00		 mov	 eax, DWORD PTR [esi+516]
  00085	83 e8 00	 sub	 eax, 0
  00088	74 0c		 je	 SHORT $LN2@ChangeAD
  0008a	48		 dec	 eax
  0008b	75 1e		 jne	 SHORT $LN4@ChangeAD

; 196  : 			{
; 197  : 			case SM_NEXT:
; 198  : 				m_pPrevBanner = GetImage( m_iCurrIndex + 1 );

  0008d	8b 86 18 02 00
	00		 mov	 eax, DWORD PTR [esi+536]
  00093	40		 inc	 eax

; 199  : 				break;

  00094	eb 07		 jmp	 SHORT $LN19@ChangeAD
$LN2@ChangeAD:

; 200  : 			case SM_PREV:
; 201  : 				m_pPrevBanner = GetImage( m_iCurrIndex - 1 );

  00096	8b 86 18 02 00
	00		 mov	 eax, DWORD PTR [esi+536]
  0009c	48		 dec	 eax
$LN19@ChangeAD:
  0009d	50		 push	 eax
  0009e	8b ce		 mov	 ecx, esi
  000a0	e8 00 00 00 00	 call	 ?GetImage@ADImagePanelWnd@@IAEPAVioUIRenderImage@@H@Z ; ADImagePanelWnd::GetImage
$LN18@ChangeAD:
  000a5	89 86 20 02 00
	00		 mov	 DWORD PTR [esi+544], eax
$LN4@ChangeAD:

; 202  : 				break;
; 203  : 			}
; 204  : 		}
; 205  : 
; 206  : 		m_pCurrBanner	= pCurrAD->m_pImage;

  000ab	8b 47 48	 mov	 eax, DWORD PTR [edi+72]
  000ae	89 86 1c 02 00
	00		 mov	 DWORD PTR [esi+540], eax

; 207  : 
; 208  : 		m_dwDelayTime	= pCurrAD->m_dwHoldTime;

  000b4	8b 47 40	 mov	 eax, DWORD PTR [edi+64]
  000b7	89 86 24 02 00
	00		 mov	 DWORD PTR [esi+548], eax

; 209  : 		m_dPagingTime	= pCurrAD->m_dPagingTime;

  000bd	8b 47 44	 mov	 eax, DWORD PTR [edi+68]
  000c0	89 86 2c 02 00
	00		 mov	 DWORD PTR [esi+556], eax

; 210  : 	}
; 211  : 	else

  000c6	eb 0e		 jmp	 SHORT $LN17@ChangeAD
$LN8@ChangeAD:

; 212  : 	{
; 213  : 		m_dwDelayTime	= 0;

  000c8	83 a6 24 02 00
	00 00		 and	 DWORD PTR [esi+548], 0

; 214  : 		m_dPagingTime	= 0;

  000cf	83 a6 2c 02 00
	00 00		 and	 DWORD PTR [esi+556], 0
$LN17@ChangeAD:
  000d6	5f		 pop	 edi
$LN9@ChangeAD:
  000d7	5e		 pop	 esi

; 215  : 	}
; 216  : }

  000d8	c3		 ret	 0
?ChangeAD@ADImagePanelWnd@@IAEXXZ ENDP			; ADImagePanelWnd::ChangeAD
_TEXT	ENDS
PUBLIC	?CheckPrevMoveADIndex@ADImagePanelWnd@@IAEXXZ	; ADImagePanelWnd::CheckPrevMoveADIndex
; Function compile flags: /Ogsp
;	COMDAT ?CheckPrevMoveADIndex@ADImagePanelWnd@@IAEXXZ
_TEXT	SEGMENT
?CheckPrevMoveADIndex@ADImagePanelWnd@@IAEXXZ PROC	; ADImagePanelWnd::CheckPrevMoveADIndex, COMDAT
; _this$ = ecx

; 220  : 	m_SlideMove = SM_PREV;

  00000	83 a1 04 02 00
	00 00		 and	 DWORD PTR [ecx+516], 0

; 221  : 	m_iCurrIndex--;

  00007	ff 89 18 02 00
	00		 dec	 DWORD PTR [ecx+536]
  0000d	8b 91 18 02 00
	00		 mov	 edx, DWORD PTR [ecx+536]

; 222  : 	if( !COMPARE( m_iCurrIndex, 0, (int)m_ADIndexList.size() ) )

  00013	78 15		 js	 SHORT $LN1@CheckPrevM
  00015	56		 push	 esi
  00016	8b b1 0c 02 00
	00		 mov	 esi, DWORD PTR [ecx+524]
  0001c	2b b1 08 02 00
	00		 sub	 esi, DWORD PTR [ecx+520]
  00022	c1 fe 02	 sar	 esi, 2
  00025	3b d6		 cmp	 edx, esi
  00027	5e		 pop	 esi
  00028	7c 16		 jl	 SHORT $LN2@CheckPrevM
$LN1@CheckPrevM:

; 223  : 	{
; 224  : 		m_iCurrIndex = (int)m_ADIndexList.size() - 1;

  0002a	8b 91 0c 02 00
	00		 mov	 edx, DWORD PTR [ecx+524]
  00030	2b 91 08 02 00
	00		 sub	 edx, DWORD PTR [ecx+520]
  00036	c1 fa 02	 sar	 edx, 2
  00039	4a		 dec	 edx
  0003a	89 91 18 02 00
	00		 mov	 DWORD PTR [ecx+536], edx
$LN2@CheckPrevM:

; 225  : 	}	
; 226  : }

  00040	c3		 ret	 0
?CheckPrevMoveADIndex@ADImagePanelWnd@@IAEXXZ ENDP	; ADImagePanelWnd::CheckPrevMoveADIndex
_TEXT	ENDS
PUBLIC	?CheckNextMoveADIndex@ADImagePanelWnd@@IAEXXZ	; ADImagePanelWnd::CheckNextMoveADIndex
; Function compile flags: /Ogsp
;	COMDAT ?CheckNextMoveADIndex@ADImagePanelWnd@@IAEXXZ
_TEXT	SEGMENT
?CheckNextMoveADIndex@ADImagePanelWnd@@IAEXXZ PROC	; ADImagePanelWnd::CheckNextMoveADIndex, COMDAT
; _this$ = ecx

; 230  : 	m_SlideMove = SM_NEXT;
; 231  : 	m_iCurrIndex++;

  00000	ff 81 18 02 00
	00		 inc	 DWORD PTR [ecx+536]
  00006	8b 91 18 02 00
	00		 mov	 edx, DWORD PTR [ecx+536]
  0000c	c7 81 04 02 00
	00 01 00 00 00	 mov	 DWORD PTR [ecx+516], 1

; 232  : 	if( !COMPARE( m_iCurrIndex, 0, (int)m_ADIndexList.size() ) )

  00016	78 15		 js	 SHORT $LN1@CheckNextM
  00018	56		 push	 esi
  00019	8b b1 0c 02 00
	00		 mov	 esi, DWORD PTR [ecx+524]
  0001f	2b b1 08 02 00
	00		 sub	 esi, DWORD PTR [ecx+520]
  00025	c1 fe 02	 sar	 esi, 2
  00028	3b d6		 cmp	 edx, esi
  0002a	5e		 pop	 esi
  0002b	7c 07		 jl	 SHORT $LN2@CheckNextM
$LN1@CheckNextM:

; 233  : 	{
; 234  : 		m_iCurrIndex = 0;

  0002d	83 a1 18 02 00
	00 00		 and	 DWORD PTR [ecx+536], 0
$LN2@CheckNextM:

; 235  : 	}
; 236  : }

  00034	c3		 ret	 0
?CheckNextMoveADIndex@ADImagePanelWnd@@IAEXXZ ENDP	; ADImagePanelWnd::CheckNextMoveADIndex
_TEXT	ENDS
PUBLIC	??_R0?AVioWnd@@@8				; ioWnd `RTTI Type Descriptor'
PUBLIC	??_R0?AVioRadioButton@@@8			; ioRadioButton `RTTI Type Descriptor'
PUBLIC	?ParseDirectADButton@ADImagePanelWnd@@IAEXXZ	; ADImagePanelWnd::ParseDirectADButton
EXTRN	__imp_?CheckRadioButton@ioWnd@@QAEXKKK@Z:PROC
EXTRN	__imp_?HideWnd@ioWnd@@QAEXXZ:PROC
EXTRN	__imp_?GetWidth@ioWnd@@QBEHXZ:PROC
EXTRN	__imp_?ShowWnd@ioWnd@@QAEXXZ:PROC
EXTRN	__imp_?SetWndPos@ioWnd@@QAEXHH@Z:PROC
EXTRN	__imp_?FindChildWnd@ioWnd@@QAEPAV1@K@Z:PROC
EXTRN	___RTDynamicCast:PROC
;	COMDAT ??_R0?AVioWnd@@@8
; File c:\program files (x86)\microsoft visual studio 10.0\vc\include\vector
_DATA	SEGMENT
??_R0?AVioWnd@@@8 DD FLAT:??_7type_info@@6B@		; ioWnd `RTTI Type Descriptor'
	DD	00H
	DB	'.?AVioWnd@@', 00H
_DATA	ENDS
;	COMDAT ??_R0?AVioRadioButton@@@8
_DATA	SEGMENT
??_R0?AVioRadioButton@@@8 DD FLAT:??_7type_info@@6B@	; ioRadioButton `RTTI Type Descriptor'
	DD	00H
	DB	'.?AVioRadioButton@@', 00H
; Function compile flags: /Ogsp
; File d:\lost saga for developer\youtube\tutorial\source\src\lsclient\gui\adimagepanelwnd.cpp
_DATA	ENDS
;	COMDAT ?ParseDirectADButton@ADImagePanelWnd@@IAEXXZ
_TEXT	SEGMENT
_pRadio$507165 = -4					; size = 4
?ParseDirectADButton@ADImagePanelWnd@@IAEXXZ PROC	; ADImagePanelWnd::ParseDirectADButton, COMDAT
; _this$ = ecx

; 253  : {

  00000	55		 push	 ebp
  00001	8b ec		 mov	 ebp, esp
  00003	51		 push	 ecx
  00004	53		 push	 ebx
  00005	56		 push	 esi
  00006	8b f1		 mov	 esi, ecx

; 254  : 	int i		= 0;
; 255  : 	int iXPos	= 692 - (int)m_ADIndexList.size() * 22;

  00008	8b 86 0c 02 00
	00		 mov	 eax, DWORD PTR [esi+524]
  0000e	2b 86 08 02 00
	00		 sub	 eax, DWORD PTR [esi+520]
  00014	57		 push	 edi
  00015	c1 f8 02	 sar	 eax, 2
  00018	6b c0 16	 imul	 eax, 22			; 00000016H
  0001b	bf b4 02 00 00	 mov	 edi, 692		; 000002b4H
  00020	33 db		 xor	 ebx, ebx
  00022	2b f8		 sub	 edi, eax
$LL19@ParseDirec:

; 258  : 	{
; 259  : 		ioRadioButton* pRadio = dynamic_cast<ioRadioButton*>( FindChildWnd( iButtonID ) );

  00024	6a 00		 push	 0
  00026	68 00 00 00 00	 push	 OFFSET ??_R0?AVioRadioButton@@@8
  0002b	68 00 00 00 00	 push	 OFFSET ??_R0?AVioWnd@@@8
  00030	6a 00		 push	 0
  00032	8d 43 0a	 lea	 eax, DWORD PTR [ebx+10]
  00035	50		 push	 eax
  00036	8b ce		 mov	 ecx, esi
  00038	ff 15 00 00 00
	00		 call	 DWORD PTR __imp_?FindChildWnd@ioWnd@@QAEPAV1@K@Z
  0003e	50		 push	 eax
  0003f	e8 00 00 00 00	 call	 ___RTDynamicCast
  00044	8b c8		 mov	 ecx, eax
  00046	83 c4 14	 add	 esp, 20			; 00000014H
  00049	89 4d fc	 mov	 DWORD PTR _pRadio$507165[ebp], ecx

; 260  : 		if( pRadio )

  0004c	85 c9		 test	 ecx, ecx
  0004e	74 5b		 je	 SHORT $LN7@ParseDirec

; 261  : 		{
; 262  : 			if( COMPARE( i, 0, (int)m_ADIndexList.size() ) )

  00050	85 db		 test	 ebx, ebx
  00052	78 51		 js	 SHORT $LN4@ParseDirec
  00054	8b 86 08 02 00
	00		 mov	 eax, DWORD PTR [esi+520]
  0005a	8b 96 0c 02 00
	00		 mov	 edx, DWORD PTR [esi+524]
  00060	2b d0		 sub	 edx, eax
  00062	c1 fa 02	 sar	 edx, 2
  00065	3b da		 cmp	 ebx, edx
  00067	7d 3c		 jge	 SHORT $LN4@ParseDirec

; 263  : 			{
; 264  : 				const ADImage* pCurrAD = g_ShopManager.GetImageAD( m_ADIndexList[i] );

  00069	8d 04 98	 lea	 eax, DWORD PTR [eax+ebx*4]
  0006c	ff 30		 push	 DWORD PTR [eax]
  0006e	e8 00 00 00 00	 call	 ?GetSingleton@ioShopManager@@SAAAV1@XZ ; ioShopManager::GetSingleton
  00073	8b c8		 mov	 ecx, eax
  00075	e8 00 00 00 00	 call	 ?GetImageAD@ioShopManager@@QAEPBUADImage@@H@Z ; ioShopManager::GetImageAD

; 265  : 				if( pCurrAD )
; 266  : 				{
; 267  : 					pRadio->SetWndPos( iXPos, 200 );

  0007a	8b 4d fc	 mov	 ecx, DWORD PTR _pRadio$507165[ebp]
  0007d	85 c0		 test	 eax, eax
  0007f	74 24		 je	 SHORT $LN4@ParseDirec
  00081	68 c8 00 00 00	 push	 200			; 000000c8H
  00086	57		 push	 edi
  00087	ff 15 00 00 00
	00		 call	 DWORD PTR __imp_?SetWndPos@ioWnd@@QAEXHH@Z

; 268  : 					pRadio->ShowWnd();

  0008d	8b 4d fc	 mov	 ecx, DWORD PTR _pRadio$507165[ebp]
  00090	ff 15 00 00 00
	00		 call	 DWORD PTR __imp_?ShowWnd@ioWnd@@QAEXXZ

; 269  : 
; 270  : 					iXPos += pRadio->GetWidth() + 4;

  00096	8b 4d fc	 mov	 ecx, DWORD PTR _pRadio$507165[ebp]
  00099	ff 15 00 00 00
	00		 call	 DWORD PTR __imp_?GetWidth@ioWnd@@QBEHXZ
  0009f	8d 7c 07 04	 lea	 edi, DWORD PTR [edi+eax+4]

; 271  : 				}
; 272  : 				else

  000a3	eb 06		 jmp	 SHORT $LN7@ParseDirec
$LN4@ParseDirec:

; 273  : 				{
; 274  : 					pRadio->HideWnd();
; 275  : 				}
; 276  : 			}
; 277  : 			else
; 278  : 			{
; 279  : 				pRadio->HideWnd();

  000a5	ff 15 00 00 00
	00		 call	 DWORD PTR __imp_?HideWnd@ioWnd@@QAEXXZ
$LN7@ParseDirec:

; 256  : 
; 257  : 	for( int iButtonID = ID_AD_DIRECT_BTN01; iButtonID < ID_AD_DIRECT_BTN_MAX; ++iButtonID, ++i )

  000ab	43		 inc	 ebx
  000ac	8d 43 0a	 lea	 eax, DWORD PTR [ebx+10]
  000af	83 f8 14	 cmp	 eax, 20			; 00000014H
  000b2	0f 8c 6c ff ff
	ff		 jl	 $LL19@ParseDirec

; 280  : 			}
; 281  : 		}
; 282  : 	}
; 283  : 
; 284  : 	CheckRadioButton( ID_AD_DIRECT_BTN01, ID_AD_DIRECT_BTN10, ID_AD_DIRECT_BTN01 + m_iCurrIndex );

  000b8	8b 86 18 02 00
	00		 mov	 eax, DWORD PTR [esi+536]
  000be	83 c0 0a	 add	 eax, 10			; 0000000aH
  000c1	50		 push	 eax
  000c2	6a 13		 push	 19			; 00000013H
  000c4	6a 0a		 push	 10			; 0000000aH
  000c6	8b ce		 mov	 ecx, esi
  000c8	ff 15 00 00 00
	00		 call	 DWORD PTR __imp_?CheckRadioButton@ioWnd@@QAEXKKK@Z
  000ce	5f		 pop	 edi
  000cf	5e		 pop	 esi
  000d0	5b		 pop	 ebx

; 285  : }

  000d1	c9		 leave
  000d2	c3		 ret	 0
?ParseDirectADButton@ADImagePanelWnd@@IAEXXZ ENDP	; ADImagePanelWnd::ParseDirectADButton
_TEXT	ENDS
PUBLIC	??_R0?AVNewShopWnd@@@8				; NewShopWnd `RTTI Type Descriptor'
PUBLIC	?MoveDirectLink@ADImagePanelWnd@@QAEXXZ		; ADImagePanelWnd::MoveDirectLink
EXTRN	?SetDirectSmallTab@NewShopWnd@@QAEXHHHH_N@Z:PROC ; NewShopWnd::SetDirectSmallTab
EXTRN	?SetReserveDecoSex@NewShopWnd@@QAEXH@Z:PROC	; NewShopWnd::SetReserveDecoSex
EXTRN	__imp_?FindWnd@ioGUIManager@@QAEPAVioWnd@@K@Z:PROC
EXTRN	?GetSingleton@ioSP2GUIManager@@SAAAV1@XZ:PROC	; ioSP2GUIManager::GetSingleton
;	COMDAT ??_R0?AVNewShopWnd@@@8
; File c:\program files (x86)\microsoft visual studio 10.0\vc\include\vector
_DATA	SEGMENT
??_R0?AVNewShopWnd@@@8 DD FLAT:??_7type_info@@6B@	; NewShopWnd `RTTI Type Descriptor'
	DD	00H
	DB	'.?AVNewShopWnd@@', 00H
; Function compile flags: /Ogsp
; File d:\lost saga for developer\youtube\tutorial\source\src\lsclient\gui\adimagepanelwnd.cpp
_DATA	ENDS
;	COMDAT ?MoveDirectLink@ADImagePanelWnd@@QAEXXZ
_TEXT	SEGMENT
?MoveDirectLink@ADImagePanelWnd@@QAEXXZ PROC		; ADImagePanelWnd::MoveDirectLink, COMDAT
; _this$ = ecx

; 297  : {

  00000	53		 push	 ebx
  00001	56		 push	 esi

; 298  : 	NewShopWnd *pNewShopWnd = dynamic_cast<NewShopWnd*> ( g_GUIMgr.FindWnd( NEW_SHOP_WND ) );

  00002	6a 00		 push	 0
  00004	68 00 00 00 00	 push	 OFFSET ??_R0?AVNewShopWnd@@@8
  00009	68 00 00 00 00	 push	 OFFSET ??_R0?AVioWnd@@@8
  0000e	6a 00		 push	 0
  00010	68 f8 17 00 00	 push	 6136			; 000017f8H
  00015	8b f1		 mov	 esi, ecx
  00017	e8 00 00 00 00	 call	 ?GetSingleton@ioSP2GUIManager@@SAAAV1@XZ ; ioSP2GUIManager::GetSingleton
  0001c	8b c8		 mov	 ecx, eax
  0001e	ff 15 00 00 00
	00		 call	 DWORD PTR __imp_?FindWnd@ioGUIManager@@QAEPAVioWnd@@K@Z
  00024	50		 push	 eax
  00025	e8 00 00 00 00	 call	 ___RTDynamicCast
  0002a	8b d8		 mov	 ebx, eax
  0002c	83 c4 14	 add	 esp, 20			; 00000014H

; 299  : 	if( !pNewShopWnd )

  0002f	85 db		 test	 ebx, ebx
  00031	74 66		 je	 SHORT $LN1@MoveDirect

; 300  : 		return;
; 301  : 
; 302  : 	const ADImage* pCurrAD = g_ShopManager.GetImageAD( m_ADIndexList[m_iCurrIndex] );

  00033	8b 86 18 02 00
	00		 mov	 eax, DWORD PTR [esi+536]
  00039	8b 8e 08 02 00
	00		 mov	 ecx, DWORD PTR [esi+520]
  0003f	8d 04 81	 lea	 eax, DWORD PTR [ecx+eax*4]
  00042	ff 30		 push	 DWORD PTR [eax]
  00044	e8 00 00 00 00	 call	 ?GetSingleton@ioShopManager@@SAAAV1@XZ ; ioShopManager::GetSingleton
  00049	8b c8		 mov	 ecx, eax
  0004b	e8 00 00 00 00	 call	 ?GetImageAD@ioShopManager@@QAEPBUADImage@@H@Z ; ioShopManager::GetImageAD
  00050	8b f0		 mov	 esi, eax

; 303  : 	if( !pCurrAD )

  00052	85 f6		 test	 esi, esi
  00054	74 43		 je	 SHORT $LN1@MoveDirect

; 304  : 		return;
; 305  : 	
; 306  : 	//  
; 307  : 	if( pCurrAD->m_Link.IsNoneLink() )

  00056	57		 push	 edi
  00057	8d 4e 28	 lea	 ecx, DWORD PTR [esi+40]
  0005a	e8 00 00 00 00	 call	 ?IsNoneLink@ADProductLink@@QBE_NXZ ; ADProductLink::IsNoneLink
  0005f	84 c0		 test	 al, al
  00061	75 35		 jne	 SHORT $LN10@MoveDirect

; 308  : 		return;
; 309  : 		
; 310  : 	if( pCurrAD->m_Link.m_eADProductType == ADPT_DECO )

  00063	83 7e 28 07	 cmp	 DWORD PTR [esi+40], 7

; 311  : 	{
; 312  : 		pNewShopWnd->SetReserveDecoSex( pCurrAD->m_Link.m_iValue1 );

  00067	8b cb		 mov	 ecx, ebx
  00069	75 14		 jne	 SHORT $LN2@MoveDirect
  0006b	ff 76 34	 push	 DWORD PTR [esi+52]
  0006e	e8 00 00 00 00	 call	 ?SetReserveDecoSex@NewShopWnd@@QAEXH@Z ; NewShopWnd::SetReserveDecoSex

; 313  : 		pNewShopWnd->SetDirectSmallTab( pCurrAD->m_Link.m_iTab, NewShopWnd::ID_SMALL_TAB_1_BTN + pCurrAD->m_Link.m_iSubTab, pCurrAD->m_Link.m_iValue2, pCurrAD->m_Link.m_iValue3 );

  00073	6a 01		 push	 1
  00075	ff 76 3c	 push	 DWORD PTR [esi+60]
  00078	8b cb		 mov	 ecx, ebx
  0007a	ff 76 38	 push	 DWORD PTR [esi+56]

; 314  : 	}
; 315  : 	else

  0007d	eb 08		 jmp	 SHORT $LN11@MoveDirect
$LN2@MoveDirect:

; 316  : 	{
; 317  : 		pNewShopWnd->SetDirectSmallTab( pCurrAD->m_Link.m_iTab, NewShopWnd::ID_SMALL_TAB_1_BTN + pCurrAD->m_Link.m_iSubTab, pCurrAD->m_Link.m_iValue1, pCurrAD->m_Link.m_iValue2 );

  0007f	6a 01		 push	 1
  00081	ff 76 38	 push	 DWORD PTR [esi+56]
  00084	ff 76 34	 push	 DWORD PTR [esi+52]
$LN11@MoveDirect:
  00087	8b 46 30	 mov	 eax, DWORD PTR [esi+48]
  0008a	05 c9 00 00 00	 add	 eax, 201		; 000000c9H
  0008f	50		 push	 eax
  00090	ff 76 2c	 push	 DWORD PTR [esi+44]
  00093	e8 00 00 00 00	 call	 ?SetDirectSmallTab@NewShopWnd@@QAEXHHHH_N@Z ; NewShopWnd::SetDirectSmallTab
$LN10@MoveDirect:
  00098	5f		 pop	 edi
$LN1@MoveDirect:
  00099	5e		 pop	 esi
  0009a	5b		 pop	 ebx

; 318  : 	}
; 319  : }

  0009b	c3		 ret	 0
?MoveDirectLink@ADImagePanelWnd@@QAEXXZ ENDP		; ADImagePanelWnd::MoveDirectLink
_TEXT	ENDS
PUBLIC	__real@4f800000
PUBLIC	?OnProcess@ADImagePanelWnd@@MAEXM@Z		; ADImagePanelWnd::OnProcess
;	COMDAT __real@4f800000
CONST	SEGMENT
__real@4f800000 DD 04f800000r			; 4.29497e+009
; Function compile flags: /Ogsp
CONST	ENDS
;	COMDAT ?OnProcess@ADImagePanelWnd@@MAEXM@Z
_TEXT	SEGMENT
tv241 = -4						; size = 4
tv238 = -4						; size = 4
tv208 = -4						; size = 4
_fTimePerSec$ = 8					; size = 4
?OnProcess@ADImagePanelWnd@@MAEXM@Z PROC		; ADImagePanelWnd::OnProcess, COMDAT
; _this$ = ecx

; 323  : {

  00000	55		 push	 ebp
  00001	8b ec		 mov	 ebp, esp
  00003	51		 push	 ecx
  00004	56		 push	 esi
  00005	8b f1		 mov	 esi, ecx

; 324  : 	if( !IsShow() )

  00007	ff 15 00 00 00
	00		 call	 DWORD PTR __imp_?IsShow@ioWnd@@QBE_NXZ
  0000d	84 c0		 test	 al, al
  0000f	0f 84 ef 00 00
	00		 je	 $LN5@OnProcess

; 325  : 		return;
; 326  : 
; 327  : 	DWORD dwCurTime = FRAMEGETTIME();

  00015	57		 push	 edi
  00016	ff 15 00 00 00
	00		 call	 DWORD PTR __imp_?GetSingleton@ioFrameTimer@@SAAAV1@XZ
  0001c	8b c8		 mov	 ecx, eax
  0001e	ff 15 00 00 00
	00		 call	 DWORD PTR __imp_?GetLoopSec@ioFrameTimer@@QBEKXZ
  00024	8b f8		 mov	 edi, eax

; 328  : 	switch( m_ADState )

  00026	8b 86 00 02 00
	00		 mov	 eax, DWORD PTR [esi+512]
  0002c	83 e8 00	 sub	 eax, 0
  0002f	0f 84 85 00 00
	00		 je	 $LN8@OnProcess
  00035	48		 dec	 eax
  00036	0f 85 c7 00 00
	00		 jne	 $LN16@OnProcess

; 345  : 			}
; 346  : 		}
; 347  : 		break;
; 348  : 	case ADS_PAGING:
; 349  : 		{
; 350  : 			DWORD dwMoveTime = dwCurTime - m_dPagingStartTime;

  0003c	8b c7		 mov	 eax, edi
  0003e	2b 86 30 02 00
	00		 sub	 eax, DWORD PTR [esi+560]

; 351  : 			m_fCurrRate = (float)dwMoveTime / m_dPagingTime;

  00044	89 45 fc	 mov	 DWORD PTR tv241[ebp], eax
  00047	db 45 fc	 fild	 DWORD PTR tv241[ebp]
  0004a	79 06		 jns	 SHORT $LN17@OnProcess
  0004c	d8 05 00 00 00
	00		 fadd	 DWORD PTR __real@4f800000
$LN17@OnProcess:
  00052	8b 86 2c 02 00
	00		 mov	 eax, DWORD PTR [esi+556]
  00058	db 86 2c 02 00
	00		 fild	 DWORD PTR [esi+556]
  0005e	85 c0		 test	 eax, eax
  00060	79 06		 jns	 SHORT $LN18@OnProcess
  00062	d8 05 00 00 00
	00		 fadd	 DWORD PTR __real@4f800000
$LN18@OnProcess:
  00068	de f9		 fdivp	 ST(1), ST(0)

; 352  : 			m_fCurrRate = min( m_fCurrRate, 1.0f );

  0006a	f3 0f 10 0d 00
	00 00 00	 movss	 xmm1, DWORD PTR __real@3f800000
  00072	d9 5d fc	 fstp	 DWORD PTR tv208[ebp]
  00075	d9 45 fc	 fld	 DWORD PTR tv208[ebp]
  00078	d9 9e 34 02 00
	00		 fstp	 DWORD PTR [esi+564]
  0007e	d9 45 fc	 fld	 DWORD PTR tv208[ebp]
  00081	d9 e8		 fld1
  00083	df f1		 fcomip	 ST(1)
  00085	dd d8		 fstp	 ST(0)
  00087	76 07		 jbe	 SHORT $LN14@OnProcess
  00089	f3 0f 10 45 fc	 movss	 xmm0, DWORD PTR tv208[ebp]
  0008e	eb 03		 jmp	 SHORT $LN15@OnProcess
$LN14@OnProcess:
  00090	0f 28 c1	 movaps	 xmm0, xmm1
$LN15@OnProcess:

; 353  : 
; 354  : 			if( m_fCurrRate == 1.0f )

  00093	0f 2e c1	 ucomiss xmm0, xmm1
  00096	9f		 lahf
  00097	f3 0f 11 86 34
	02 00 00	 movss	 DWORD PTR [esi+564], xmm0
  0009f	f6 c4 44	 test	 ah, 68			; 00000044H
  000a2	7a 5f		 jp	 SHORT $LN16@OnProcess

; 355  : 			{				
; 356  : 				ParseDirectADButton();

  000a4	8b ce		 mov	 ecx, esi
  000a6	e8 00 00 00 00	 call	 ?ParseDirectADButton@ADImagePanelWnd@@IAEXXZ ; ADImagePanelWnd::ParseDirectADButton

; 357  : 
; 358  : 				m_ADState			= ADS_DELAY;

  000ab	83 a6 00 02 00
	00 00		 and	 DWORD PTR [esi+512], 0

; 359  : 				m_dwDelayStartTime	= dwCurTime;

  000b2	89 be 28 02 00
	00		 mov	 DWORD PTR [esi+552], edi

; 360  : 			}			
; 361  : 		}
; 362  : 		break;

  000b8	eb 49		 jmp	 SHORT $LN16@OnProcess
$LN8@OnProcess:

; 329  : 	{
; 330  : 	case ADS_DELAY:
; 331  : 		if( m_dwDelayStartTime + m_dwDelayTime < dwCurTime )

  000ba	8b 86 28 02 00
	00		 mov	 eax, DWORD PTR [esi+552]
  000c0	03 86 24 02 00
	00		 add	 eax, DWORD PTR [esi+548]
  000c6	3b c7		 cmp	 eax, edi
  000c8	73 39		 jae	 SHORT $LN16@OnProcess

; 332  : 		{
; 333  : 			switch( m_SlideMove )

  000ca	8b 86 04 02 00
	00		 mov	 eax, DWORD PTR [esi+516]
  000d0	83 e8 00	 sub	 eax, 0
  000d3	74 0c		 je	 SHORT $LN4@OnProcess
  000d5	48		 dec	 eax
  000d6	75 2b		 jne	 SHORT $LN16@OnProcess

; 339  : 				break;
; 340  : 			case SM_NEXT:			
; 341  : 				CheckNextMoveADIndex();

  000d8	8b ce		 mov	 ecx, esi
  000da	e8 00 00 00 00	 call	 ?CheckNextMoveADIndex@ADImagePanelWnd@@IAEXXZ ; ADImagePanelWnd::CheckNextMoveADIndex

; 342  : 				ChangeAD();
; 343  : 				CheckRadioButton( ID_AD_DIRECT_BTN01, ID_AD_DIRECT_BTN10, ID_AD_DIRECT_BTN01 + m_iCurrIndex );
; 344  : 				break;

  000df	eb 07		 jmp	 SHORT $LN19@OnProcess
$LN4@OnProcess:

; 334  : 			{
; 335  : 			case SM_PREV:
; 336  : 				CheckPrevMoveADIndex();

  000e1	8b ce		 mov	 ecx, esi
  000e3	e8 00 00 00 00	 call	 ?CheckPrevMoveADIndex@ADImagePanelWnd@@IAEXXZ ; ADImagePanelWnd::CheckPrevMoveADIndex
$LN19@OnProcess:

; 337  : 				ChangeAD();

  000e8	e8 00 00 00 00	 call	 ?ChangeAD@ADImagePanelWnd@@IAEXXZ ; ADImagePanelWnd::ChangeAD

; 338  : 				CheckRadioButton( ID_AD_DIRECT_BTN01, ID_AD_DIRECT_BTN10, ID_AD_DIRECT_BTN01 + m_iCurrIndex );

  000ed	8b 86 18 02 00
	00		 mov	 eax, DWORD PTR [esi+536]
  000f3	83 c0 0a	 add	 eax, 10			; 0000000aH
  000f6	50		 push	 eax
  000f7	6a 13		 push	 19			; 00000013H
  000f9	6a 0a		 push	 10			; 0000000aH
  000fb	8b ce		 mov	 ecx, esi
  000fd	ff 15 00 00 00
	00		 call	 DWORD PTR __imp_?CheckRadioButton@ioWnd@@QAEXKKK@Z
$LN16@OnProcess:
  00103	5f		 pop	 edi
$LN5@OnProcess:
  00104	5e		 pop	 esi

; 363  : 	}
; 364  : }

  00105	c9		 leave
  00106	c2 04 00	 ret	 4
?OnProcess@ADImagePanelWnd@@MAEXM@Z ENDP		; ADImagePanelWnd::OnProcess
_TEXT	ENDS
PUBLIC	__$ArrayPad$
PUBLIC	?OnRender@ADImagePanelWnd@@MAEXXZ		; ADImagePanelWnd::OnRender
EXTRN	__imp_?GetDerivedPosY@ioWnd@@QBEHXZ:PROC
EXTRN	__imp_?GetDerivedPosX@ioWnd@@QBEHXZ:PROC
EXTRN	__imp_?OnRender@ioWnd@@MAEXXZ:PROC
; Function compile flags: /Ogsp
;	COMDAT ?OnRender@ADImagePanelWnd@@MAEXXZ
_TEXT	SEGMENT
_iYPos$ = -24						; size = 4
_RenderRect$507222 = -20				; size = 16
__$ArrayPad$ = -4					; size = 4
?OnRender@ADImagePanelWnd@@MAEXXZ PROC			; ADImagePanelWnd::OnRender, COMDAT
; _this$ = ecx

; 367  : {

  00000	55		 push	 ebp
  00001	8b ec		 mov	 ebp, esp
  00003	83 ec 18	 sub	 esp, 24			; 00000018H
  00006	a1 00 00 00 00	 mov	 eax, DWORD PTR ___security_cookie
  0000b	33 c5		 xor	 eax, ebp
  0000d	89 45 fc	 mov	 DWORD PTR __$ArrayPad$[ebp], eax
  00010	53		 push	 ebx
  00011	56		 push	 esi
  00012	57		 push	 edi
  00013	8b f1		 mov	 esi, ecx

; 368  : 	ioWnd::OnRender();

  00015	ff 15 00 00 00
	00		 call	 DWORD PTR __imp_?OnRender@ioWnd@@MAEXXZ

; 369  : 
; 370  : 	int iXPos = GetDerivedPosX();

  0001b	8b ce		 mov	 ecx, esi
  0001d	ff 15 00 00 00
	00		 call	 DWORD PTR __imp_?GetDerivedPosX@ioWnd@@QBEHXZ

; 371  : 	int iYPos = GetDerivedPosY();

  00023	8b ce		 mov	 ecx, esi
  00025	8b d8		 mov	 ebx, eax
  00027	ff 15 00 00 00
	00		 call	 DWORD PTR __imp_?GetDerivedPosY@ioWnd@@QBEHXZ
  0002d	8b d0		 mov	 edx, eax

; 372  : 
; 373  : 	switch( m_ADState )

  0002f	8b 86 00 02 00
	00		 mov	 eax, DWORD PTR [esi+512]
  00035	33 ff		 xor	 edi, edi
  00037	2b c7		 sub	 eax, edi
  00039	89 55 e8	 mov	 DWORD PTR _iYPos$[ebp], edx
  0003c	74 32		 je	 SHORT $LN8@OnRender
  0003e	48		 dec	 eax
  0003f	75 7b		 jne	 SHORT $LN7@OnRender

; 380  : 		}
; 381  : 		break;
; 382  : 	case ADS_PAGING:
; 383  : 		{
; 384  : 			switch( m_SlideMove )

  00041	8b 86 04 02 00
	00		 mov	 eax, DWORD PTR [esi+516]
  00047	2b c7		 sub	 eax, edi
  00049	74 14		 je	 SHORT $LN3@OnRender
  0004b	48		 dec	 eax
  0004c	75 6e		 jne	 SHORT $LN7@OnRender

; 389  : 				}
; 390  : 				break;
; 391  : 			case SM_NEXT:
; 392  : 				{
; 393  : 					OnNextPaigingRender( iXPos + 2, iYPos + 2 );

  0004e	83 c2 02	 add	 edx, 2
  00051	52		 push	 edx
  00052	8d 43 02	 lea	 eax, DWORD PTR [ebx+2]
  00055	50		 push	 eax
  00056	8b ce		 mov	 ecx, esi
  00058	e8 00 00 00 00	 call	 ?OnNextPaigingRender@ADImagePanelWnd@@IAEXHH@Z ; ADImagePanelWnd::OnNextPaigingRender

; 394  : 				}
; 395  : 				break;

  0005d	eb 5d		 jmp	 SHORT $LN7@OnRender
$LN3@OnRender:

; 385  : 			{
; 386  : 			case SM_PREV:
; 387  : 				{
; 388  : 					OnPrevPaigingRender( iXPos + 2, iYPos + 2 );

  0005f	83 c2 02	 add	 edx, 2
  00062	52		 push	 edx
  00063	8d 43 02	 lea	 eax, DWORD PTR [ebx+2]
  00066	50		 push	 eax
  00067	8b ce		 mov	 ecx, esi
  00069	e8 00 00 00 00	 call	 ?OnPrevPaigingRender@ADImagePanelWnd@@IAEXHH@Z ; ADImagePanelWnd::OnPrevPaigingRender

; 396  : 			}
; 397  : 		}
; 398  : 		break;

  0006e	eb 4c		 jmp	 SHORT $LN7@OnRender
$LN8@OnRender:

; 374  : 	{
; 375  : 	case ADS_DELAY:	
; 376  : 		{
; 377  : 			RECT RenderRect = { 0, 0, 705, 224 };
; 378  : 			if( m_pCurrBanner )

  00070	8b 8e 1c 02 00
	00		 mov	 ecx, DWORD PTR [esi+540]
  00076	89 7d ec	 mov	 DWORD PTR _RenderRect$507222[ebp], edi
  00079	89 7d f0	 mov	 DWORD PTR _RenderRect$507222[ebp+4], edi
  0007c	c7 45 f4 c1 02
	00 00		 mov	 DWORD PTR _RenderRect$507222[ebp+8], 705 ; 000002c1H
  00083	c7 45 f8 e0 00
	00 00		 mov	 DWORD PTR _RenderRect$507222[ebp+12], 224 ; 000000e0H
  0008a	3b cf		 cmp	 ecx, edi
  0008c	74 2e		 je	 SHORT $LN7@OnRender

; 379  : 				m_pCurrBanner->RenderRect( iXPos + 2, iYPos + 2, UI_RENDER_NORMAL, RenderRect );

  0008e	57		 push	 edi
  0008f	57		 push	 edi
  00090	8d 45 ec	 lea	 eax, DWORD PTR _RenderRect$507222[ebp]
  00093	50		 push	 eax
  00094	57		 push	 edi
  00095	0f 57 c0	 xorps	 xmm0, xmm0
  00098	51		 push	 ecx
  00099	83 c2 02	 add	 edx, 2
  0009c	f3 0f 2a c2	 cvtsi2ss xmm0, edx
  000a0	51		 push	 ecx
  000a1	f3 0f 11 44 24
	04		 movss	 DWORD PTR [esp+4], xmm0
  000a7	8d 43 02	 lea	 eax, DWORD PTR [ebx+2]
  000aa	0f 57 c0	 xorps	 xmm0, xmm0
  000ad	f3 0f 2a c0	 cvtsi2ss xmm0, eax
  000b1	f3 0f 11 04 24	 movss	 DWORD PTR [esp], xmm0
  000b6	ff 15 00 00 00
	00		 call	 DWORD PTR __imp_?RenderRect@ioUIRenderImage@@QAEXMMW4UIRenderType@@ABUtagRECT@@W4TextureFilterOption@@0@Z
$LN7@OnRender:

; 399  : 	}
; 400  : 
; 401  : 	if( m_pBorder )

  000bc	39 be fc 01 00
	00		 cmp	 DWORD PTR [esi+508], edi
  000c2	74 2a		 je	 SHORT $LN1@OnRender

; 402  : 		m_pBorder->Render( iXPos, iYPos );

  000c4	8b 8e fc 01 00
	00		 mov	 ecx, DWORD PTR [esi+508]
  000ca	66 0f 6e 45 e8	 movd	 xmm0, DWORD PTR _iYPos$[ebp]
  000cf	8b 01		 mov	 eax, DWORD PTR [ecx]
  000d1	57		 push	 edi
  000d2	57		 push	 edi
  000d3	57		 push	 edi
  000d4	57		 push	 edi
  000d5	51		 push	 ecx
  000d6	0f 5b c0	 cvtdq2ps xmm0, xmm0
  000d9	51		 push	 ecx
  000da	f3 0f 11 44 24
	04		 movss	 DWORD PTR [esp+4], xmm0
  000e0	0f 57 c0	 xorps	 xmm0, xmm0
  000e3	f3 0f 2a c3	 cvtsi2ss xmm0, ebx
  000e7	f3 0f 11 04 24	 movss	 DWORD PTR [esp], xmm0
  000ec	ff 10		 call	 DWORD PTR [eax]
$LN1@OnRender:

; 403  : }

  000ee	8b 4d fc	 mov	 ecx, DWORD PTR __$ArrayPad$[ebp]
  000f1	5f		 pop	 edi
  000f2	5e		 pop	 esi
  000f3	33 cd		 xor	 ecx, ebp
  000f5	5b		 pop	 ebx
  000f6	e8 00 00 00 00	 call	 @__security_check_cookie@4
  000fb	c9		 leave
  000fc	c3		 ret	 0
?OnRender@ADImagePanelWnd@@MAEXXZ ENDP			; ADImagePanelWnd::OnRender
_TEXT	ENDS
PUBLIC	__$ArrayPad$
PUBLIC	??$?8$06@@YA_NABVioHashString@@AAY06$$CBD@Z	; operator==<7>
EXTRN	__imp_?c_str@ioHashString@@QBEPBDXZ:PROC
; Function compile flags: /Ogsp
; File d:\lost saga for developer\youtube\tutorial\source\src\io3dengine\iohashstring.h
;	COMDAT ??$?8$06@@YA_NABVioHashString@@AAY06$$CBD@Z
_TEXT	SEGMENT
__t$ = -16						; size = 7
__$ArrayPad$ = -4					; size = 4
_lhs$ = 8						; size = 4
_t$ = 12						; size = 4
??$?8$06@@YA_NABVioHashString@@AAY06$$CBD@Z PROC	; operator==<7>, COMDAT

; 146  : {

  00000	55		 push	 ebp
  00001	8b ec		 mov	 ebp, esp
  00003	83 ec 10	 sub	 esp, 16			; 00000010H
  00006	a1 00 00 00 00	 mov	 eax, DWORD PTR ___security_cookie
  0000b	33 c5		 xor	 eax, ebp
  0000d	89 45 fc	 mov	 DWORD PTR __$ArrayPad$[ebp], eax
  00010	8b 45 0c	 mov	 eax, DWORD PTR _t$[ebp]

; 147  : 	_ENCSTR(t, _t); return ( strcmp( lhs.c_str(), _t ) == 0 );

  00013	8a 10		 mov	 dl, BYTE PTR [eax]
  00015	56		 push	 esi
  00016	57		 push	 edi
  00017	8b 7d 08	 mov	 edi, DWORD PTR _lhs$[ebp]
  0001a	84 d2		 test	 dl, dl
  0001c	0f 84 c0 00 00
	00		 je	 $LN96@operator
  00022	80 f2 ed	 xor	 dl, -19			; ffffffedH
  00025	88 55 f0	 mov	 BYTE PTR __t$[ebp], dl
  00028	8a 50 01	 mov	 dl, BYTE PTR [eax+1]
  0002b	84 d2		 test	 dl, dl
  0002d	0f 84 a9 00 00
	00		 je	 $LN95@operator
  00033	80 f2 ec	 xor	 dl, -20			; ffffffecH
  00036	88 55 f1	 mov	 BYTE PTR __t$[ebp+1], dl
  00039	8a 50 02	 mov	 dl, BYTE PTR [eax+2]
  0003c	84 d2		 test	 dl, dl
  0003e	0f 84 92 00 00
	00		 je	 $LN94@operator
  00044	80 f2 eb	 xor	 dl, -21			; ffffffebH
  00047	88 55 f2	 mov	 BYTE PTR __t$[ebp+2], dl
  0004a	8a 50 03	 mov	 dl, BYTE PTR [eax+3]
  0004d	84 d2		 test	 dl, dl
  0004f	74 7f		 je	 SHORT $LN93@operator
  00051	80 f2 ea	 xor	 dl, -22			; ffffffeaH
  00054	88 55 f3	 mov	 BYTE PTR __t$[ebp+3], dl
  00057	8a 50 04	 mov	 dl, BYTE PTR [eax+4]
  0005a	84 d2		 test	 dl, dl
  0005c	74 6c		 je	 SHORT $LN92@operator
  0005e	80 f2 ed	 xor	 dl, -19			; ffffffedH
  00061	88 55 f4	 mov	 BYTE PTR __t$[ebp+4], dl
  00064	8a 50 05	 mov	 dl, BYTE PTR [eax+5]
  00067	84 d2		 test	 dl, dl
  00069	74 59		 je	 SHORT $LN91@operator
  0006b	80 f2 ec	 xor	 dl, -20			; ffffffecH
  0006e	80 78 06 00	 cmp	 BYTE PTR [eax+6], 0
  00072	88 55 f5	 mov	 BYTE PTR __t$[ebp+5], dl
  00075	74 6f		 je	 SHORT $LN1@operator
  00077	8a 50 07	 mov	 dl, BYTE PTR [eax+7]
  0007a	84 d2		 test	 dl, dl
  0007c	74 40		 je	 SHORT $LN89@operator
  0007e	80 f2 ea	 xor	 dl, -22			; ffffffeaH
  00081	88 55 f7	 mov	 BYTE PTR __t$[ebp+7], dl
  00084	8a 50 08	 mov	 dl, BYTE PTR [eax+8]
  00087	84 d2		 test	 dl, dl
  00089	74 2d		 je	 SHORT $LN88@operator
  0008b	80 f2 ed	 xor	 dl, -19			; ffffffedH
  0008e	88 55 f8	 mov	 BYTE PTR __t$[ebp+8], dl
  00091	8a 50 09	 mov	 dl, BYTE PTR [eax+9]
  00094	84 d2		 test	 dl, dl
  00096	74 1a		 je	 SHORT $LN87@operator
  00098	8a 40 0a	 mov	 al, BYTE PTR [eax+10]
  0009b	80 f2 ec	 xor	 dl, -20			; ffffffecH
  0009e	88 55 f9	 mov	 BYTE PTR __t$[ebp+9], dl
  000a1	84 c0		 test	 al, al
  000a3	74 07		 je	 SHORT $LN86@operator
  000a5	34 eb		 xor	 al, -21			; ffffffebH
  000a7	88 45 fa	 mov	 BYTE PTR __t$[ebp+10], al
  000aa	eb 3a		 jmp	 SHORT $LN1@operator
$LN86@operator:
  000ac	c6 45 fa eb	 mov	 BYTE PTR __t$[ebp+10], -21 ; ffffffebH
  000b0	eb 34		 jmp	 SHORT $LN1@operator
$LN87@operator:
  000b2	c6 45 f9 ec	 mov	 BYTE PTR __t$[ebp+9], -20 ; ffffffecH
  000b6	eb 2e		 jmp	 SHORT $LN1@operator
$LN88@operator:
  000b8	c6 45 f8 ed	 mov	 BYTE PTR __t$[ebp+8], -19 ; ffffffedH
  000bc	eb 28		 jmp	 SHORT $LN1@operator
$LN89@operator:
  000be	c6 45 f7 ea	 mov	 BYTE PTR __t$[ebp+7], -22 ; ffffffeaH
  000c2	eb 22		 jmp	 SHORT $LN1@operator
$LN91@operator:
  000c4	c6 45 f5 ec	 mov	 BYTE PTR __t$[ebp+5], -20 ; ffffffecH
  000c8	eb 1c		 jmp	 SHORT $LN1@operator
$LN92@operator:
  000ca	c6 45 f4 ed	 mov	 BYTE PTR __t$[ebp+4], -19 ; ffffffedH
  000ce	eb 16		 jmp	 SHORT $LN1@operator
$LN93@operator:
  000d0	c6 45 f3 ea	 mov	 BYTE PTR __t$[ebp+3], -22 ; ffffffeaH
  000d4	eb 10		 jmp	 SHORT $LN1@operator
$LN94@operator:
  000d6	c6 45 f2 eb	 mov	 BYTE PTR __t$[ebp+2], -21 ; ffffffebH
  000da	eb 0a		 jmp	 SHORT $LN1@operator
$LN95@operator:
  000dc	c6 45 f1 ec	 mov	 BYTE PTR __t$[ebp+1], -20 ; ffffffecH
  000e0	eb 04		 jmp	 SHORT $LN1@operator
$LN96@operator:
  000e2	c6 45 f0 ed	 mov	 BYTE PTR __t$[ebp], -19	; ffffffedH
$LN1@operator:
  000e6	81 75 f0 ed ec
	eb ea		 xor	 DWORD PTR __t$[ebp], -353637139 ; eaebecedH
  000ed	6a 04		 push	 4
  000ef	c6 45 f6 00	 mov	 BYTE PTR __t$[ebp+6], 0
  000f3	58		 pop	 eax
$LL101@operator:
  000f4	8b c8		 mov	 ecx, eax
  000f6	81 e1 03 00 00
	80		 and	 ecx, -2147483645	; 80000003H
  000fc	79 05		 jns	 SHORT $LN115@operator
  000fe	49		 dec	 ecx
  000ff	83 c9 fc	 or	 ecx, -4			; fffffffcH
  00102	41		 inc	 ecx
$LN115@operator:
  00103	b2 ed		 mov	 dl, -19			; ffffffedH
  00105	2a d1		 sub	 dl, cl
  00107	30 54 05 f0	 xor	 BYTE PTR __t$[ebp+eax], dl
  0010b	40		 inc	 eax
  0010c	83 f8 06	 cmp	 eax, 6
  0010f	7c e3		 jl	 SHORT $LL101@operator
  00111	8b cf		 mov	 ecx, edi
  00113	8d 75 f0	 lea	 esi, DWORD PTR __t$[ebp]
  00116	ff 15 00 00 00
	00		 call	 DWORD PTR __imp_?c_str@ioHashString@@QBEPBDXZ
$LL111@operator:
  0011c	8a 08		 mov	 cl, BYTE PTR [eax]
  0011e	3a 0e		 cmp	 cl, BYTE PTR [esi]
  00120	75 1a		 jne	 SHORT $LN112@operator
  00122	84 c9		 test	 cl, cl
  00124	74 12		 je	 SHORT $LN113@operator
  00126	8a 48 01	 mov	 cl, BYTE PTR [eax+1]
  00129	3a 4e 01	 cmp	 cl, BYTE PTR [esi+1]
  0012c	75 0e		 jne	 SHORT $LN112@operator
  0012e	83 c0 02	 add	 eax, 2
  00131	83 c6 02	 add	 esi, 2
  00134	84 c9		 test	 cl, cl
  00136	75 e4		 jne	 SHORT $LL111@operator
$LN113@operator:
  00138	33 c0		 xor	 eax, eax
  0013a	eb 05		 jmp	 SHORT $LN114@operator
$LN112@operator:
  0013c	1b c0		 sbb	 eax, eax
  0013e	83 d8 ff	 sbb	 eax, -1
$LN114@operator:
  00141	33 c9		 xor	 ecx, ecx
  00143	85 c0		 test	 eax, eax
  00145	0f 94 c0	 sete	 al

; 148  : }

  00148	8b 4d fc	 mov	 ecx, DWORD PTR __$ArrayPad$[ebp]
  0014b	5f		 pop	 edi
  0014c	33 cd		 xor	 ecx, ebp
  0014e	5e		 pop	 esi
  0014f	e8 00 00 00 00	 call	 @__security_check_cookie@4
  00154	c9		 leave
  00155	c3		 ret	 0
??$?8$06@@YA_NABVioHashString@@AAY06$$CBD@Z ENDP	; operator==<7>
_TEXT	ENDS
PUBLIC	?construct@?$allocator@H@std@@QAEXPAHABH@Z	; std::allocator<int>::construct
; Function compile flags: /Ogsp
; File c:\program files (x86)\microsoft visual studio 10.0\vc\include\xmemory
;	COMDAT ?construct@?$allocator@H@std@@QAEXPAHABH@Z
_TEXT	SEGMENT
__Ptr$ = 8						; size = 4
__Val$ = 12						; size = 4
?construct@?$allocator@H@std@@QAEXPAHABH@Z PROC		; std::allocator<int>::construct, COMDAT
; _this$ = ecx

; 196  : 		{	// construct object at _Ptr with value _Val

  00000	55		 push	 ebp
  00001	8b ec		 mov	 ebp, esp

; 197  : 		_Construct(_Ptr, _Val);

  00003	8b 45 08	 mov	 eax, DWORD PTR __Ptr$[ebp]
  00006	85 c0		 test	 eax, eax
  00008	74 07		 je	 SHORT $LN5@construct
  0000a	8b 4d 0c	 mov	 ecx, DWORD PTR __Val$[ebp]
  0000d	8b 09		 mov	 ecx, DWORD PTR [ecx]
  0000f	89 08		 mov	 DWORD PTR [eax], ecx
$LN5@construct:

; 198  : 		}

  00011	5d		 pop	 ebp
  00012	c2 08 00	 ret	 8
?construct@?$allocator@H@std@@QAEXPAHABH@Z ENDP		; std::allocator<int>::construct
_TEXT	ENDS
PUBLIC	??$construct@AAH@?$allocator@H@std@@QAEXPAHAAH@Z ; std::allocator<int>::construct<int &>
; Function compile flags: /Ogsp
;	COMDAT ??$construct@AAH@?$allocator@H@std@@QAEXPAHAAH@Z
_TEXT	SEGMENT
__Ptr$ = 8						; size = 4
__Val$ = 12						; size = 4
??$construct@AAH@?$allocator@H@std@@QAEXPAHAAH@Z PROC	; std::allocator<int>::construct<int &>, COMDAT
; _this$ = ecx

; 206  : 		void construct(pointer _Ptr, _Other&& _Val)

  00000	55		 push	 ebp
  00001	8b ec		 mov	 ebp, esp

; 207  : 		{	// construct object at _Ptr with value _Val
; 208  : 		::new ((void _FARQ *)_Ptr) _Ty(_STD forward<_Other>(_Val));

  00003	8b 45 08	 mov	 eax, DWORD PTR __Ptr$[ebp]
  00006	85 c0		 test	 eax, eax
  00008	74 07		 je	 SHORT $LN3@construct@2
  0000a	8b 4d 0c	 mov	 ecx, DWORD PTR __Val$[ebp]
  0000d	8b 09		 mov	 ecx, DWORD PTR [ecx]
  0000f	89 08		 mov	 DWORD PTR [eax], ecx
$LN3@construct@2:

; 209  : 		}

  00011	5d		 pop	 ebp
  00012	c2 08 00	 ret	 8
??$construct@AAH@?$allocator@H@std@@QAEXPAHAAH@Z ENDP	; std::allocator<int>::construct<int &>
_TEXT	ENDS
PUBLIC	?begin@?$vector@HV?$allocator@H@std@@@std@@QAE?AV?$_Vector_iterator@V?$_Vector_val@HV?$allocator@H@std@@@std@@@2@XZ ; std::vector<int,std::allocator<int> >::begin
; Function compile flags: /Ogsp
; File c:\program files (x86)\microsoft visual studio 10.0\vc\include\vector
;	COMDAT ?begin@?$vector@HV?$allocator@H@std@@@std@@QAE?AV?$_Vector_iterator@V?$_Vector_val@HV?$allocator@H@std@@@std@@@2@XZ
_TEXT	SEGMENT
___$ReturnUdt$ = 8					; size = 4
?begin@?$vector@HV?$allocator@H@std@@@std@@QAE?AV?$_Vector_iterator@V?$_Vector_val@HV?$allocator@H@std@@@std@@@2@XZ PROC ; std::vector<int,std::allocator<int> >::begin, COMDAT
; _this$ = ecx

; 781  : 		{	// return iterator for beginning of mutable sequence

  00000	55		 push	 ebp
  00001	8b ec		 mov	 ebp, esp

; 782  : 		return (iterator(this->_Myfirst, this));

  00003	8b 09		 mov	 ecx, DWORD PTR [ecx]
  00005	8b 45 08	 mov	 eax, DWORD PTR ___$ReturnUdt$[ebp]
  00008	89 08		 mov	 DWORD PTR [eax], ecx

; 783  : 		}

  0000a	5d		 pop	 ebp
  0000b	c2 04 00	 ret	 4
?begin@?$vector@HV?$allocator@H@std@@@std@@QAE?AV?$_Vector_iterator@V?$_Vector_val@HV?$allocator@H@std@@@std@@@2@XZ ENDP ; std::vector<int,std::allocator<int> >::begin
_TEXT	ENDS
PUBLIC	?end@?$vector@HV?$allocator@H@std@@@std@@QAE?AV?$_Vector_iterator@V?$_Vector_val@HV?$allocator@H@std@@@std@@@2@XZ ; std::vector<int,std::allocator<int> >::end
; Function compile flags: /Ogsp
;	COMDAT ?end@?$vector@HV?$allocator@H@std@@@std@@QAE?AV?$_Vector_iterator@V?$_Vector_val@HV?$allocator@H@std@@@std@@@2@XZ
_TEXT	SEGMENT
___$ReturnUdt$ = 8					; size = 4
?end@?$vector@HV?$allocator@H@std@@@std@@QAE?AV?$_Vector_iterator@V?$_Vector_val@HV?$allocator@H@std@@@std@@@2@XZ PROC ; std::vector<int,std::allocator<int> >::end, COMDAT
; _this$ = ecx

; 791  : 		{	// return iterator for end of mutable sequence

  00000	55		 push	 ebp
  00001	8b ec		 mov	 ebp, esp

; 792  : 		return (iterator(this->_Mylast, this));

  00003	8b 49 04	 mov	 ecx, DWORD PTR [ecx+4]
  00006	8b 45 08	 mov	 eax, DWORD PTR ___$ReturnUdt$[ebp]
  00009	89 08		 mov	 DWORD PTR [eax], ecx

; 793  : 		}

  0000b	5d		 pop	 ebp
  0000c	c2 04 00	 ret	 4
?end@?$vector@HV?$allocator@H@std@@@std@@QAE?AV?$_Vector_iterator@V?$_Vector_val@HV?$allocator@H@std@@@std@@@2@XZ ENDP ; std::vector<int,std::allocator<int> >::end
_TEXT	ENDS
PUBLIC	??0?$_Vector_val@HV?$allocator@H@std@@@std@@QAE@V?$allocator@H@1@@Z ; std::_Vector_val<int,std::allocator<int> >::_Vector_val<int,std::allocator<int> >
; Function compile flags: /Ogsp
;	COMDAT ??0?$_Vector_val@HV?$allocator@H@std@@@std@@QAE@V?$allocator@H@1@@Z
_TEXT	SEGMENT
__Al$ = 8						; size = 1
??0?$_Vector_val@HV?$allocator@H@std@@@std@@QAE@V?$allocator@H@1@@Z PROC ; std::_Vector_val<int,std::allocator<int> >::_Vector_val<int,std::allocator<int> >, COMDAT
; _this$ = ecx

; 426  : 		{	// construct allocator from _Al

  00000	8b c1		 mov	 eax, ecx

; 427  : 		_Myfirst = 0;

  00002	33 c9		 xor	 ecx, ecx
  00004	89 08		 mov	 DWORD PTR [eax], ecx

; 428  : 		_Mylast = 0;

  00006	89 48 04	 mov	 DWORD PTR [eax+4], ecx

; 429  : 		_Myend = 0;

  00009	89 48 08	 mov	 DWORD PTR [eax+8], ecx

; 430  : 		}

  0000c	c2 04 00	 ret	 4
??0?$_Vector_val@HV?$allocator@H@std@@@std@@QAE@V?$allocator@H@1@@Z ENDP ; std::_Vector_val<int,std::allocator<int> >::_Vector_val<int,std::allocator<int> >
_TEXT	ENDS
PUBLIC	?max_size@?$vector@HV?$allocator@H@std@@@std@@QBEIXZ ; std::vector<int,std::allocator<int> >::max_size
; Function compile flags: /Ogsp
;	COMDAT ?max_size@?$vector@HV?$allocator@H@std@@@std@@QBEIXZ
_TEXT	SEGMENT
?max_size@?$vector@HV?$allocator@H@std@@@std@@QBEIXZ PROC ; std::vector<int,std::allocator<int> >::max_size, COMDAT
; _this$ = ecx

; 884  : 		return (this->_Alval.max_size());

  00000	b8 ff ff ff 3f	 mov	 eax, 1073741823		; 3fffffffH

; 885  : 		}

  00005	c3		 ret	 0
?max_size@?$vector@HV?$allocator@H@std@@@std@@QBEIXZ ENDP ; std::vector<int,std::allocator<int> >::max_size
_TEXT	ENDS
PUBLIC	?_Grow_to@?$vector@HV?$allocator@H@std@@@std@@IBEII@Z ; std::vector<int,std::allocator<int> >::_Grow_to
; Function compile flags: /Ogsp
;	COMDAT ?_Grow_to@?$vector@HV?$allocator@H@std@@@std@@IBEII@Z
_TEXT	SEGMENT
__Count$ = 8						; size = 4
?_Grow_to@?$vector@HV?$allocator@H@std@@@std@@IBEII@Z PROC ; std::vector<int,std::allocator<int> >::_Grow_to, COMDAT
; _this$ = ecx

; 1274 : 		{	// grow by 50% or at least to _Count

  00000	55		 push	 ebp
  00001	8b ec		 mov	 ebp, esp

; 1275 : 		size_type _Capacity = capacity();

  00003	8b 41 08	 mov	 eax, DWORD PTR [ecx+8]
  00006	2b 01		 sub	 eax, DWORD PTR [ecx]

; 1276 : 
; 1277 : 		_Capacity = max_size() - _Capacity / 2 < _Capacity
; 1278 : 			? 0 : _Capacity + _Capacity / 2;	// try to grow by 50%

  00008	ba ff ff ff 3f	 mov	 edx, 1073741823		; 3fffffffH
  0000d	c1 f8 02	 sar	 eax, 2
  00010	8b c8		 mov	 ecx, eax
  00012	d1 e9		 shr	 ecx, 1
  00014	2b d1		 sub	 edx, ecx
  00016	3b d0		 cmp	 edx, eax
  00018	73 04		 jae	 SHORT $LN4@Grow_to
  0001a	33 c0		 xor	 eax, eax
  0001c	eb 02		 jmp	 SHORT $LN5@Grow_to
$LN4@Grow_to:
  0001e	03 c1		 add	 eax, ecx
$LN5@Grow_to:

; 1279 : 		if (_Capacity < _Count)

  00020	3b 45 08	 cmp	 eax, DWORD PTR __Count$[ebp]

; 1280 : 			_Capacity = _Count;

  00023	0f 42 45 08	 cmovb	 eax, DWORD PTR __Count$[ebp]

; 1281 : 		return (_Capacity);
; 1282 : 		}

  00027	5d		 pop	 ebp
  00028	c2 04 00	 ret	 4
?_Grow_to@?$vector@HV?$allocator@H@std@@@std@@IBEII@Z ENDP ; std::vector<int,std::allocator<int> >::_Grow_to
_TEXT	ENDS
PUBLIC	?allocate@?$allocator@H@std@@QAEPAHI@Z		; std::allocator<int>::allocate
; Function compile flags: /Ogsp
; File c:\program files (x86)\microsoft visual studio 10.0\vc\include\xmemory
;	COMDAT ?allocate@?$allocator@H@std@@QAEPAHI@Z
_TEXT	SEGMENT
__Count$ = 8						; size = 4
?allocate@?$allocator@H@std@@QAEPAHI@Z PROC		; std::allocator<int>::allocate, COMDAT
; _this$ = ecx

; 186  : 		{	// allocate array of _Count elements

  00000	55		 push	 ebp
  00001	8b ec		 mov	 ebp, esp

; 187  : 		return (_Allocate(_Count, (pointer)0));

  00003	6a 00		 push	 0
  00005	ff 75 08	 push	 DWORD PTR __Count$[ebp]
  00008	e8 00 00 00 00	 call	 ??$_Allocate@H@std@@YAPAHIPAH@Z ; std::_Allocate<int>
  0000d	59		 pop	 ecx
  0000e	59		 pop	 ecx

; 188  : 		}

  0000f	5d		 pop	 ebp
  00010	c2 04 00	 ret	 4
?allocate@?$allocator@H@std@@QAEPAHI@Z ENDP		; std::allocator<int>::allocate
_TEXT	ENDS
PUBLIC	??8?$_Vector_const_iterator@V?$_Vector_val@HV?$allocator@H@std@@@std@@@std@@QBE_NABV01@@Z ; std::_Vector_const_iterator<std::_Vector_val<int,std::allocator<int> > >::operator==
; Function compile flags: /Ogsp
; File c:\program files (x86)\microsoft visual studio 10.0\vc\include\vector
;	COMDAT ??8?$_Vector_const_iterator@V?$_Vector_val@HV?$allocator@H@std@@@std@@@std@@QBE_NABV01@@Z
_TEXT	SEGMENT
__Right$ = 8						; size = 4
??8?$_Vector_const_iterator@V?$_Vector_val@HV?$allocator@H@std@@@std@@@std@@QBE_NABV01@@Z PROC ; std::_Vector_const_iterator<std::_Vector_val<int,std::allocator<int> > >::operator==, COMDAT
; _this$ = ecx

; 201  : 		{	// test for iterator equality

  00000	55		 push	 ebp
  00001	8b ec		 mov	 ebp, esp

; 202  : 		_Compat(_Right);
; 203  : 		return (this->_Ptr == _Right._Ptr);

  00003	8b 01		 mov	 eax, DWORD PTR [ecx]
  00005	8b 4d 08	 mov	 ecx, DWORD PTR __Right$[ebp]
  00008	2b 01		 sub	 eax, DWORD PTR [ecx]
  0000a	f7 d8		 neg	 eax
  0000c	1b c0		 sbb	 eax, eax
  0000e	40		 inc	 eax

; 204  : 		}

  0000f	5d		 pop	 ebp
  00010	c2 04 00	 ret	 4
??8?$_Vector_const_iterator@V?$_Vector_val@HV?$allocator@H@std@@@std@@@std@@QBE_NABV01@@Z ENDP ; std::_Vector_const_iterator<std::_Vector_val<int,std::allocator<int> > >::operator==
_TEXT	ENDS
PUBLIC	??$_Move@PAHPAH@std@@YAPAHPAH00@Z		; std::_Move<int *,int *>
; Function compile flags: /Ogsp
; File c:\program files (x86)\microsoft visual studio 10.0\vc\include\xutility
;	COMDAT ??$_Move@PAHPAH@std@@YAPAHPAH00@Z
_TEXT	SEGMENT
__Cat$508250 = -4					; size = 1
__First$ = 8						; size = 4
__Last$ = 12						; size = 4
__Dest$ = 16						; size = 4
??$_Move@PAHPAH@std@@YAPAHPAH00@Z PROC			; std::_Move<int *,int *>, COMDAT

; 2533 : 	{	// move [_First, _Last) to [_Dest, ...), unchecked

  00000	55		 push	 ebp
  00001	8b ec		 mov	 ebp, esp
  00003	51		 push	 ecx

; 2534 : 	return (_Move(_First, _Last,
; 2535 : 		_Dest, _Ptr_cat(_First, _Dest)));

  00004	ff 75 fc	 push	 DWORD PTR __Cat$508250[ebp]
  00007	ff 75 10	 push	 DWORD PTR __Dest$[ebp]
  0000a	ff 75 0c	 push	 DWORD PTR __Last$[ebp]
  0000d	ff 75 08	 push	 DWORD PTR __First$[ebp]
  00010	e8 00 00 00 00	 call	 ??$_Move@PAHPAH@std@@YAPAHPAH00U_Scalar_ptr_iterator_tag@0@@Z ; std::_Move<int *,int *>
  00015	83 c4 10	 add	 esp, 16			; 00000010H

; 2536 : 	}

  00018	c9		 leave
  00019	c3		 ret	 0
??$_Move@PAHPAH@std@@YAPAHPAH00@Z ENDP			; std::_Move<int *,int *>
_TEXT	ENDS
PUBLIC	??$_Destroy_range@V?$allocator@H@std@@@std@@YAXPAH0AAV?$allocator@H@0@@Z ; std::_Destroy_range<std::allocator<int> >
; Function compile flags: /Ogsp
; File c:\program files (x86)\microsoft visual studio 10.0\vc\include\xmemory
;	COMDAT ??$_Destroy_range@V?$allocator@H@std@@@std@@YAXPAH0AAV?$allocator@H@0@@Z
_TEXT	SEGMENT
__First$ = 8						; size = 4
__Last$ = 12						; size = 4
__Al$ = 16						; size = 4
??$_Destroy_range@V?$allocator@H@std@@@std@@YAXPAH0AAV?$allocator@H@0@@Z PROC ; std::_Destroy_range<std::allocator<int> >, COMDAT

; 88   : 	_Destroy_range(_First, _Last, _Al, _Ptr_cat(_First, _Last));
; 89   : 	}

  00000	c3		 ret	 0
??$_Destroy_range@V?$allocator@H@std@@@std@@YAXPAH0AAV?$allocator@H@0@@Z ENDP ; std::_Destroy_range<std::allocator<int> >
_TEXT	ENDS
PUBLIC	??$_Uninitialized_move@PAHPAHV?$allocator@H@std@@@std@@YAPAHPAH00AAV?$allocator@H@0@@Z ; std::_Uninitialized_move<int *,int *,std::allocator<int> >
; Function compile flags: /Ogsp
; File c:\program files (x86)\microsoft visual studio 10.0\vc\include\memory
;	COMDAT ??$_Uninitialized_move@PAHPAHV?$allocator@H@std@@@std@@YAPAHPAH00AAV?$allocator@H@0@@Z
_TEXT	SEGMENT
__First$ = 8						; size = 4
__Last$ = 12						; size = 4
__Dest$ = 16						; size = 4
__Al$ = 20						; size = 4
??$_Uninitialized_move@PAHPAHV?$allocator@H@std@@@std@@YAPAHPAH00AAV?$allocator@H@0@@Z PROC ; std::_Uninitialized_move<int *,int *,std::allocator<int> >, COMDAT

; 469  : 	{	// move [_First, _Last) to raw _Dest, using _Al

  00000	55		 push	 ebp
  00001	8b ec		 mov	 ebp, esp
  00003	56		 push	 esi

; 470  : 	return (_Uninit_move(_First, _Last, _Dest, _Al,
; 471  : 		_Val_type(_First), _Ptr_cat(_First, _Dest)));

  00004	8b 75 0c	 mov	 esi, DWORD PTR __Last$[ebp]
  00007	2b 75 08	 sub	 esi, DWORD PTR __First$[ebp]
  0000a	c1 fe 02	 sar	 esi, 2
  0000d	c1 e6 02	 shl	 esi, 2
  00010	56		 push	 esi
  00011	ff 75 08	 push	 DWORD PTR __First$[ebp]
  00014	ff 75 10	 push	 DWORD PTR __Dest$[ebp]
  00017	ff 15 00 00 00
	00		 call	 DWORD PTR __imp__memmove
  0001d	83 c4 0c	 add	 esp, 12			; 0000000cH
  00020	03 c6		 add	 eax, esi
  00022	5e		 pop	 esi

; 472  : 	}

  00023	5d		 pop	 ebp
  00024	c3		 ret	 0
??$_Uninitialized_move@PAHPAHV?$allocator@H@std@@@std@@YAPAHPAH00AAV?$allocator@H@0@@Z ENDP ; std::_Uninitialized_move<int *,int *,std::allocator<int> >
_TEXT	ENDS
PUBLIC	_this$GSCopy$
PUBLIC	__$ArrayPad$
PUBLIC	?AddRenderFrame@ADImagePanelWnd@@UAEXABVioHashString@@PAVioUIRenderFrame@@@Z ; ADImagePanelWnd::AddRenderFrame
EXTRN	__imp_?AddRenderFrame@ioWnd@@UAEXABVioHashString@@PAVioUIRenderFrame@@@Z:PROC
; Function compile flags: /Ogsp
; File d:\lost saga for developer\youtube\tutorial\source\src\lsclient\gui\adimagepanelwnd.cpp
;	COMDAT ?AddRenderFrame@ADImagePanelWnd@@UAEXABVioHashString@@PAVioUIRenderFrame@@@Z
_TEXT	SEGMENT
_this$GSCopy$ = -20					; size = 4
__t$508311 = -16					; size = 7
__$ArrayPad$ = -4					; size = 4
_szType$ = 8						; size = 4
_pFrame$ = 12						; size = 4
?AddRenderFrame@ADImagePanelWnd@@UAEXABVioHashString@@PAVioUIRenderFrame@@@Z PROC ; ADImagePanelWnd::AddRenderFrame, COMDAT
; _this$ = ecx

; 32   : {

  00000	55		 push	 ebp
  00001	8b ec		 mov	 ebp, esp
  00003	83 ec 14	 sub	 esp, 20			; 00000014H
  00006	a1 00 00 00 00	 mov	 eax, DWORD PTR ___security_cookie
  0000b	33 c5		 xor	 eax, ebp
  0000d	89 45 fc	 mov	 DWORD PTR __$ArrayPad$[ebp], eax
  00010	53		 push	 ebx
  00011	8b 5d 0c	 mov	 ebx, DWORD PTR _pFrame$[ebp]
  00014	56		 push	 esi
  00015	57		 push	 edi
  00016	8b 7d 08	 mov	 edi, DWORD PTR _szType$[ebp]

; 33   : 	if( szType == "Border" )

  00019	6a 04		 push	 4
  0001b	c7 45 f0 af 83
	99 8e		 mov	 DWORD PTR __t$508311[ebp], -1902541905 ; 8e9983afH
  00022	81 75 f0 ed ec
	eb ea		 xor	 DWORD PTR __t$508311[ebp], -353637139 ; eaebecedH
  00029	89 4d ec	 mov	 DWORD PTR _this$GSCopy$[ebp], ecx
  0002c	66 c7 45 f4 88
	9e		 mov	 WORD PTR __t$508311[ebp+4], 40584 ; 00009e88H
  00032	c6 45 f6 00	 mov	 BYTE PTR __t$508311[ebp+6], 0
  00036	58		 pop	 eax
$LL108@AddRenderF:
  00037	8b c8		 mov	 ecx, eax
  00039	81 e1 03 00 00
	80		 and	 ecx, -2147483645	; 80000003H
  0003f	79 05		 jns	 SHORT $LN122@AddRenderF
  00041	49		 dec	 ecx
  00042	83 c9 fc	 or	 ecx, -4			; fffffffcH
  00045	41		 inc	 ecx
$LN122@AddRenderF:
  00046	b2 ed		 mov	 dl, -19			; ffffffedH
  00048	2a d1		 sub	 dl, cl
  0004a	30 54 05 f0	 xor	 BYTE PTR __t$508311[ebp+eax], dl
  0004e	40		 inc	 eax
  0004f	83 f8 06	 cmp	 eax, 6
  00052	7c e3		 jl	 SHORT $LL108@AddRenderF
  00054	8b cf		 mov	 ecx, edi
  00056	8d 75 f0	 lea	 esi, DWORD PTR __t$508311[ebp]
  00059	ff 15 00 00 00
	00		 call	 DWORD PTR __imp_?c_str@ioHashString@@QBEPBDXZ
$LL118@AddRenderF:
  0005f	8a 08		 mov	 cl, BYTE PTR [eax]
  00061	3a 0e		 cmp	 cl, BYTE PTR [esi]
  00063	75 1a		 jne	 SHORT $LN119@AddRenderF
  00065	84 c9		 test	 cl, cl
  00067	74 12		 je	 SHORT $LN120@AddRenderF
  00069	8a 48 01	 mov	 cl, BYTE PTR [eax+1]
  0006c	3a 4e 01	 cmp	 cl, BYTE PTR [esi+1]
  0006f	75 0e		 jne	 SHORT $LN119@AddRenderF
  00071	83 c0 02	 add	 eax, 2
  00074	83 c6 02	 add	 esi, 2
  00077	84 c9		 test	 cl, cl
  00079	75 e4		 jne	 SHORT $LL118@AddRenderF
$LN120@AddRenderF:
  0007b	33 c0		 xor	 eax, eax
  0007d	eb 05		 jmp	 SHORT $LN121@AddRenderF
$LN119@AddRenderF:
  0007f	1b c0		 sbb	 eax, eax
  00081	83 d8 ff	 sbb	 eax, -1
$LN121@AddRenderF:
  00084	85 c0		 test	 eax, eax
  00086	75 23		 jne	 SHORT $LN3@AddRenderF

; 34   : 	{
; 35   : 		SAFEDELETE( m_pBorder );

  00088	8b 75 ec	 mov	 esi, DWORD PTR _this$GSCopy$[ebp]
  0008b	8b 8e fc 01 00
	00		 mov	 ecx, DWORD PTR [esi+508]
  00091	85 c9		 test	 ecx, ecx
  00093	74 0e		 je	 SHORT $LN2@AddRenderF
  00095	8b 01		 mov	 eax, DWORD PTR [ecx]
  00097	6a 01		 push	 1
  00099	ff 50 40	 call	 DWORD PTR [eax+64]
  0009c	83 a6 fc 01 00
	00 00		 and	 DWORD PTR [esi+508], 0
$LN2@AddRenderF:

; 36   : 		m_pBorder = pFrame;

  000a3	89 9e fc 01 00
	00		 mov	 DWORD PTR [esi+508], ebx

; 37   : 	}
; 38   : 	else

  000a9	eb 0b		 jmp	 SHORT $LN1@AddRenderF
$LN3@AddRenderF:

; 39   : 	{
; 40   : 		ioWnd::AddRenderFrame( szType, pFrame );

  000ab	8b 4d ec	 mov	 ecx, DWORD PTR _this$GSCopy$[ebp]
  000ae	53		 push	 ebx
  000af	57		 push	 edi
  000b0	ff 15 00 00 00
	00		 call	 DWORD PTR __imp_?AddRenderFrame@ioWnd@@UAEXABVioHashString@@PAVioUIRenderFrame@@@Z
$LN1@AddRenderF:

; 41   : 	}
; 42   : }

  000b6	8b 4d fc	 mov	 ecx, DWORD PTR __$ArrayPad$[ebp]
  000b9	5f		 pop	 edi
  000ba	5e		 pop	 esi
  000bb	33 cd		 xor	 ecx, ebp
  000bd	5b		 pop	 ebx
  000be	e8 00 00 00 00	 call	 @__security_check_cookie@4
  000c3	c9		 leave
  000c4	c2 08 00	 ret	 8
?AddRenderFrame@ADImagePanelWnd@@UAEXABVioHashString@@PAVioUIRenderFrame@@@Z ENDP ; ADImagePanelWnd::AddRenderFrame
_TEXT	ENDS
PUBLIC	?iwm_command@ADImagePanelWnd@@UAEXPAVioWnd@@HK@Z ; ADImagePanelWnd::iwm_command
EXTRN	__imp_?GetID@ioWnd@@QBEKXZ:PROC
; Function compile flags: /Ogsp
;	COMDAT ?iwm_command@ADImagePanelWnd@@UAEXPAVioWnd@@HK@Z
_TEXT	SEGMENT
_pWnd$ = 8						; size = 4
_cmd$ = 12						; size = 4
_param$ = 16						; size = 4
?iwm_command@ADImagePanelWnd@@UAEXPAVioWnd@@HK@Z PROC	; ADImagePanelWnd::iwm_command, COMDAT
; _this$ = ecx

; 96   : {

  00000	55		 push	 ebp
  00001	8b ec		 mov	 ebp, esp
  00003	56		 push	 esi
  00004	8b f1		 mov	 esi, ecx

; 97   : 	DWORD dwID = pWnd->GetID();

  00006	8b 4d 08	 mov	 ecx, DWORD PTR _pWnd$[ebp]
  00009	ff 15 00 00 00
	00		 call	 DWORD PTR __imp_?GetID@ioWnd@@QBEKXZ

; 98   : 	switch( dwID )

  0000f	83 f8 01	 cmp	 eax, 1
  00012	74 43		 je	 SHORT $LN6@iwm_comman
  00014	83 f8 02	 cmp	 eax, 2
  00017	74 26		 je	 SHORT $LN4@iwm_comman
  00019	83 f8 09	 cmp	 eax, 9
  0001c	76 6a		 jbe	 SHORT $LN5@iwm_comman
  0001e	83 f8 13	 cmp	 eax, 19			; 00000013H
  00021	77 65		 ja	 SHORT $LN5@iwm_comman

; 120  : 	case ID_AD_DIRECT_BTN01:
; 121  : 	case ID_AD_DIRECT_BTN02:
; 122  : 	case ID_AD_DIRECT_BTN03:
; 123  : 	case ID_AD_DIRECT_BTN04:
; 124  : 	case ID_AD_DIRECT_BTN05:
; 125  : 	case ID_AD_DIRECT_BTN06:
; 126  : 	case ID_AD_DIRECT_BTN07:
; 127  : 	case ID_AD_DIRECT_BTN08:
; 128  : 	case ID_AD_DIRECT_BTN09:
; 129  : 	case ID_AD_DIRECT_BTN10:
; 130  : 		{
; 131  : 			if( cmd == IOBN_BTNUP && m_ADState == ADS_DELAY )

  00023	83 7d 0c 11	 cmp	 DWORD PTR _cmd$[ebp], 17 ; 00000011H
  00027	75 5f		 jne	 SHORT $LN5@iwm_comman
  00029	83 be 00 02 00
	00 00		 cmp	 DWORD PTR [esi+512], 0
  00030	75 56		 jne	 SHORT $LN5@iwm_comman

; 132  : 			{				
; 133  : 				CheckDirectMoveADIndex( dwID - ID_AD_DIRECT_BTN01 );

  00032	83 c0 f6	 add	 eax, -10		; fffffff6H
  00035	50		 push	 eax
  00036	8b ce		 mov	 ecx, esi
  00038	e8 00 00 00 00	 call	 ?CheckDirectMoveADIndex@ADImagePanelWnd@@IAEXH@Z ; ADImagePanelWnd::CheckDirectMoveADIndex

; 134  : 				ChangeAD();
; 135  : 				CheckRadioButton( ID_AD_DIRECT_BTN01, ID_AD_DIRECT_BTN10, ID_AD_DIRECT_BTN01 + m_iCurrIndex );
; 136  : 			}
; 137  : 		}
; 138  : 		break;

  0003d	eb 2e		 jmp	 SHORT $LN11@iwm_comman
$LN4@iwm_comman:

; 107  : 			}
; 108  : 		}
; 109  : 		break;
; 110  : 	case ID_NEXT_BTN:
; 111  : 		{
; 112  : 			if( cmd == IOBN_BTNUP && m_ADState == ADS_DELAY )

  0003f	83 7d 0c 11	 cmp	 DWORD PTR _cmd$[ebp], 17 ; 00000011H
  00043	75 43		 jne	 SHORT $LN5@iwm_comman
  00045	83 be 00 02 00
	00 00		 cmp	 DWORD PTR [esi+512], 0
  0004c	75 3a		 jne	 SHORT $LN5@iwm_comman

; 113  : 			{				
; 114  : 				CheckNextMoveADIndex();

  0004e	8b ce		 mov	 ecx, esi
  00050	e8 00 00 00 00	 call	 ?CheckNextMoveADIndex@ADImagePanelWnd@@IAEXXZ ; ADImagePanelWnd::CheckNextMoveADIndex

; 115  : 				ChangeAD();
; 116  : 				CheckRadioButton( ID_AD_DIRECT_BTN01, ID_AD_DIRECT_BTN10, ID_AD_DIRECT_BTN01 + m_iCurrIndex );
; 117  : 			}
; 118  : 		}
; 119  : 		break;

  00055	eb 16		 jmp	 SHORT $LN11@iwm_comman
$LN6@iwm_comman:

; 99   : 	{
; 100  : 	case ID_PREV_BTN:
; 101  : 		{
; 102  : 			if( cmd == IOBN_BTNUP && m_ADState == ADS_DELAY )

  00057	83 7d 0c 11	 cmp	 DWORD PTR _cmd$[ebp], 17 ; 00000011H
  0005b	75 2b		 jne	 SHORT $LN5@iwm_comman
  0005d	83 be 00 02 00
	00 00		 cmp	 DWORD PTR [esi+512], 0
  00064	75 22		 jne	 SHORT $LN5@iwm_comman

; 103  : 			{				
; 104  : 				CheckPrevMoveADIndex();

  00066	8b ce		 mov	 ecx, esi
  00068	e8 00 00 00 00	 call	 ?CheckPrevMoveADIndex@ADImagePanelWnd@@IAEXXZ ; ADImagePanelWnd::CheckPrevMoveADIndex
$LN11@iwm_comman:

; 105  : 				ChangeAD();

  0006d	e8 00 00 00 00	 call	 ?ChangeAD@ADImagePanelWnd@@IAEXXZ ; ADImagePanelWnd::ChangeAD

; 106  : 				CheckRadioButton( ID_AD_DIRECT_BTN01, ID_AD_DIRECT_BTN10, ID_AD_DIRECT_BTN01 + m_iCurrIndex );

  00072	8b 86 18 02 00
	00		 mov	 eax, DWORD PTR [esi+536]
  00078	83 c0 0a	 add	 eax, 10			; 0000000aH
  0007b	50		 push	 eax
  0007c	6a 13		 push	 19			; 00000013H
  0007e	6a 0a		 push	 10			; 0000000aH
  00080	8b ce		 mov	 ecx, esi
  00082	ff 15 00 00 00
	00		 call	 DWORD PTR __imp_?CheckRadioButton@ioWnd@@QAEXKKK@Z
$LN5@iwm_comman:
  00088	5e		 pop	 esi

; 139  : 	}
; 140  : }

  00089	5d		 pop	 ebp
  0008a	c2 0c 00	 ret	 12			; 0000000cH
?iwm_command@ADImagePanelWnd@@UAEXPAVioWnd@@HK@Z ENDP	; ADImagePanelWnd::iwm_command
_TEXT	ENDS
PUBLIC	??$_Cons_val@V?$allocator@H@std@@HAAH@std@@YAXAAV?$allocator@H@0@PAHAAH@Z ; std::_Cons_val<std::allocator<int>,int,int &>
; Function compile flags: /Ogsp
; File c:\program files (x86)\microsoft visual studio 10.0\vc\include\xmemory
;	COMDAT ??$_Cons_val@V?$allocator@H@std@@HAAH@std@@YAXAAV?$allocator@H@0@PAHAAH@Z
_TEXT	SEGMENT
__Alval$ = 8						; size = 4
__Pdest$ = 12						; size = 4
__Src$ = 16						; size = 4
??$_Cons_val@V?$allocator@H@std@@HAAH@std@@YAXAAV?$allocator@H@0@PAHAAH@Z PROC ; std::_Cons_val<std::allocator<int>,int,int &>, COMDAT

; 279  : 	{	// construct using allocator

  00000	55		 push	 ebp
  00001	8b ec		 mov	 ebp, esp

; 280  : 	_Alval.construct(_Pdest, _STD forward<_Ty2>(_Src));

  00003	8b 45 0c	 mov	 eax, DWORD PTR __Pdest$[ebp]
  00006	85 c0		 test	 eax, eax
  00008	74 07		 je	 SHORT $LN7@Cons_val
  0000a	8b 4d 10	 mov	 ecx, DWORD PTR __Src$[ebp]
  0000d	8b 09		 mov	 ecx, DWORD PTR [ecx]
  0000f	89 08		 mov	 DWORD PTR [eax], ecx
$LN7@Cons_val:

; 281  : 	}

  00011	5d		 pop	 ebp
  00012	c3		 ret	 0
??$_Cons_val@V?$allocator@H@std@@HAAH@std@@YAXAAV?$allocator@H@0@PAHAAH@Z ENDP ; std::_Cons_val<std::allocator<int>,int,int &>
_TEXT	ENDS
PUBLIC	??$_Cons_val@V?$allocator@H@std@@HABH@std@@YAXAAV?$allocator@H@0@PAHABH@Z ; std::_Cons_val<std::allocator<int>,int,int const &>
; Function compile flags: /Ogsp
;	COMDAT ??$_Cons_val@V?$allocator@H@std@@HABH@std@@YAXAAV?$allocator@H@0@PAHABH@Z
_TEXT	SEGMENT
__Alval$ = 8						; size = 4
__Pdest$ = 12						; size = 4
__Src$ = 16						; size = 4
??$_Cons_val@V?$allocator@H@std@@HABH@std@@YAXAAV?$allocator@H@0@PAHABH@Z PROC ; std::_Cons_val<std::allocator<int>,int,int const &>, COMDAT

; 279  : 	{	// construct using allocator

  00000	55		 push	 ebp
  00001	8b ec		 mov	 ebp, esp

; 280  : 	_Alval.construct(_Pdest, _STD forward<_Ty2>(_Src));

  00003	8b 45 0c	 mov	 eax, DWORD PTR __Pdest$[ebp]
  00006	85 c0		 test	 eax, eax
  00008	74 07		 je	 SHORT $LN9@Cons_val@2
  0000a	8b 4d 10	 mov	 ecx, DWORD PTR __Src$[ebp]
  0000d	8b 09		 mov	 ecx, DWORD PTR [ecx]
  0000f	89 08		 mov	 DWORD PTR [eax], ecx
$LN9@Cons_val@2:

; 281  : 	}

  00011	5d		 pop	 ebp
  00012	c3		 ret	 0
??$_Cons_val@V?$allocator@H@std@@HABH@std@@YAXAAV?$allocator@H@0@PAHABH@Z ENDP ; std::_Cons_val<std::allocator<int>,int,int const &>
_TEXT	ENDS
PUBLIC	??0?$vector@HV?$allocator@H@std@@@std@@QAE@XZ	; std::vector<int,std::allocator<int> >::vector<int,std::allocator<int> >
; Function compile flags: /Ogsp
; File c:\program files (x86)\microsoft visual studio 10.0\vc\include\vector
;	COMDAT ??0?$vector@HV?$allocator@H@std@@@std@@QAE@XZ
_TEXT	SEGMENT
??0?$vector@HV?$allocator@H@std@@@std@@QAE@XZ PROC	; std::vector<int,std::allocator<int> >::vector<int,std::allocator<int> >, COMDAT
; _this$ = ecx

; 507  : 		{	// construct empty vector

  00000	8b c1		 mov	 eax, ecx
  00002	33 c9		 xor	 ecx, ecx
  00004	89 08		 mov	 DWORD PTR [eax], ecx
  00006	89 48 04	 mov	 DWORD PTR [eax+4], ecx
  00009	89 48 08	 mov	 DWORD PTR [eax+8], ecx

; 508  : 		}

  0000c	c3		 ret	 0
??0?$vector@HV?$allocator@H@std@@@std@@QAE@XZ ENDP	; std::vector<int,std::allocator<int> >::vector<int,std::allocator<int> >
_TEXT	ENDS
PUBLIC	?_Destroy@?$vector@HV?$allocator@H@std@@@std@@IAEXPAH0@Z ; std::vector<int,std::allocator<int> >::_Destroy
; Function compile flags: /Ogsp
;	COMDAT ?_Destroy@?$vector@HV?$allocator@H@std@@@std@@IAEXPAH0@Z
_TEXT	SEGMENT
__First$ = 8						; size = 4
__Last$ = 12						; size = 4
?_Destroy@?$vector@HV?$allocator@H@std@@@std@@IAEXPAH0@Z PROC ; std::vector<int,std::allocator<int> >::_Destroy, COMDAT
; _this$ = ecx

; 1270 : 		_Destroy_range(_First, _Last, this->_Alval);
; 1271 : 		}

  00000	c2 08 00	 ret	 8
?_Destroy@?$vector@HV?$allocator@H@std@@@std@@IAEXPAH0@Z ENDP ; std::vector<int,std::allocator<int> >::_Destroy
_TEXT	ENDS
PUBLIC	??9?$_Vector_const_iterator@V?$_Vector_val@HV?$allocator@H@std@@@std@@@std@@QBE_NABV01@@Z ; std::_Vector_const_iterator<std::_Vector_val<int,std::allocator<int> > >::operator!=
; Function compile flags: /Ogsp
;	COMDAT ??9?$_Vector_const_iterator@V?$_Vector_val@HV?$allocator@H@std@@@std@@@std@@QBE_NABV01@@Z
_TEXT	SEGMENT
__Right$ = 8						; size = 4
??9?$_Vector_const_iterator@V?$_Vector_val@HV?$allocator@H@std@@@std@@@std@@QBE_NABV01@@Z PROC ; std::_Vector_const_iterator<std::_Vector_val<int,std::allocator<int> > >::operator!=, COMDAT
; _this$ = ecx

; 207  : 		{	// test for iterator inequality

  00000	55		 push	 ebp
  00001	8b ec		 mov	 ebp, esp

; 208  : 		return (!(*this == _Right));

  00003	8b 01		 mov	 eax, DWORD PTR [ecx]
  00005	8b 55 08	 mov	 edx, DWORD PTR __Right$[ebp]
  00008	33 c9		 xor	 ecx, ecx
  0000a	3b 02		 cmp	 eax, DWORD PTR [edx]
  0000c	0f 95 c0	 setne	 al

; 209  : 		}

  0000f	5d		 pop	 ebp
  00010	c2 04 00	 ret	 4
??9?$_Vector_const_iterator@V?$_Vector_val@HV?$allocator@H@std@@@std@@@std@@QBE_NABV01@@Z ENDP ; std::_Vector_const_iterator<std::_Vector_val<int,std::allocator<int> > >::operator!=
_TEXT	ENDS
PUBLIC	??$_Umove@PAH@?$vector@HV?$allocator@H@std@@@std@@IAEPAHPAH00@Z ; std::vector<int,std::allocator<int> >::_Umove<int *>
; Function compile flags: /Ogsp
;	COMDAT ??$_Umove@PAH@?$vector@HV?$allocator@H@std@@@std@@IAEPAHPAH00@Z
_TEXT	SEGMENT
__First$ = 8						; size = 4
__Last$ = 12						; size = 4
__Ptr$ = 16						; size = 4
??$_Umove@PAH@?$vector@HV?$allocator@H@std@@@std@@IAEPAHPAH00@Z PROC ; std::vector<int,std::allocator<int> >::_Umove<int *>, COMDAT
; _this$ = ecx

; 1322 : 		pointer _Umove(_Iter _First, _Iter _Last, pointer _Ptr)

  00000	55		 push	 ebp
  00001	8b ec		 mov	 ebp, esp

; 1323 : 		{	// move initializing [_First, _Last), using allocator
; 1324 : 		return (_Uninitialized_move(_First, _Last,
; 1325 : 			_Ptr, this->_Alval));

  00003	83 c1 0c	 add	 ecx, 12			; 0000000cH
  00006	51		 push	 ecx
  00007	ff 75 10	 push	 DWORD PTR __Ptr$[ebp]
  0000a	ff 75 0c	 push	 DWORD PTR __Last$[ebp]
  0000d	ff 75 08	 push	 DWORD PTR __First$[ebp]
  00010	e8 00 00 00 00	 call	 ??$_Uninitialized_move@PAHPAHV?$allocator@H@std@@@std@@YAPAHPAH00AAV?$allocator@H@0@@Z ; std::_Uninitialized_move<int *,int *,std::allocator<int> >
  00015	83 c4 10	 add	 esp, 16			; 00000010H

; 1326 : 		}

  00018	5d		 pop	 ebp
  00019	c2 0c 00	 ret	 12			; 0000000cH
??$_Umove@PAH@?$vector@HV?$allocator@H@std@@@std@@IAEPAHPAH00@Z ENDP ; std::vector<int,std::allocator<int> >::_Umove<int *>
_TEXT	ENDS
PUBLIC	?erase@?$vector@HV?$allocator@H@std@@@std@@QAE?AV?$_Vector_iterator@V?$_Vector_val@HV?$allocator@H@std@@@std@@@2@V?$_Vector_const_iterator@V?$_Vector_val@HV?$allocator@H@std@@@std@@@2@0@Z ; std::vector<int,std::allocator<int> >::erase
; Function compile flags: /Ogsp
;	COMDAT ?erase@?$vector@HV?$allocator@H@std@@@std@@QAE?AV?$_Vector_iterator@V?$_Vector_val@HV?$allocator@H@std@@@std@@@2@V?$_Vector_const_iterator@V?$_Vector_val@HV?$allocator@H@std@@@std@@@2@0@Z
_TEXT	SEGMENT
___$ReturnUdt$ = 8					; size = 4
__First_arg$ = 12					; size = 4
__Cat$508614 = 16					; size = 1
__Last_arg$ = 16					; size = 4
?erase@?$vector@HV?$allocator@H@std@@@std@@QAE?AV?$_Vector_iterator@V?$_Vector_val@HV?$allocator@H@std@@@std@@@2@V?$_Vector_const_iterator@V?$_Vector_val@HV?$allocator@H@std@@@std@@@2@0@Z PROC ; std::vector<int,std::allocator<int> >::erase, COMDAT
; _this$ = ecx

; 1190 : 		{	// erase [_First, _Last)

  00000	55		 push	 ebp
  00001	8b ec		 mov	 ebp, esp

; 1191 : 		iterator _First = _Make_iter(_First_arg);

  00003	8b 45 0c	 mov	 eax, DWORD PTR __First_arg$[ebp]
  00006	56		 push	 esi
  00007	57		 push	 edi
  00008	8b 7d 08	 mov	 edi, DWORD PTR ___$ReturnUdt$[ebp]
  0000b	8b f1		 mov	 esi, ecx
  0000d	89 07		 mov	 DWORD PTR [edi], eax

; 1192 : 		iterator _Last = _Make_iter(_Last_arg);
; 1193 : 
; 1194 : 		if (_First != _Last)

  0000f	3b 45 10	 cmp	 eax, DWORD PTR __Last_arg$[ebp]
  00012	74 16		 je	 SHORT $LN1@erase

; 1195 : 			{	// worth doing, copy down over hole
; 1196 :  #if _ITERATOR_DEBUG_LEVEL == 2
; 1197 : 			if (_Last < _First || _VICONT(_First) != this
; 1198 : 				|| _VIPTR(_First) < this->_Myfirst
; 1199 : 				|| this->_Mylast < _VIPTR(_Last))
; 1200 : 				_DEBUG_ERROR("vector erase iterator outside range");
; 1201 : 			pointer _Ptr = _Move(_VIPTR(_Last), this->_Mylast,
; 1202 : 				_VIPTR(_First));
; 1203 : 			_Orphan_range(_VIPTR(_First), this->_Mylast);
; 1204 : 
; 1205 :  #else /* _ITERATOR_DEBUG_LEVEL == 2 */
; 1206 : 			pointer _Ptr = _Move(_VIPTR(_Last), this->_Mylast,
; 1207 : 				_VIPTR(_First));

  00014	ff 75 10	 push	 DWORD PTR __Cat$508614[ebp]
  00017	8b 4e 04	 mov	 ecx, DWORD PTR [esi+4]
  0001a	50		 push	 eax
  0001b	51		 push	 ecx
  0001c	ff 75 10	 push	 DWORD PTR __Last_arg$[ebp]
  0001f	e8 00 00 00 00	 call	 ??$_Move@PAHPAH@std@@YAPAHPAH00U_Scalar_ptr_iterator_tag@0@@Z ; std::_Move<int *,int *>
  00024	83 c4 10	 add	 esp, 16			; 00000010H

; 1208 :  #endif /* _ITERATOR_DEBUG_LEVEL == 2 */
; 1209 : 
; 1210 : 			_Destroy(_Ptr, this->_Mylast);
; 1211 : 			this->_Mylast = _Ptr;

  00027	89 46 04	 mov	 DWORD PTR [esi+4], eax
$LN1@erase:

; 1212 : 			}
; 1213 : 		return (_First);

  0002a	8b c7		 mov	 eax, edi
  0002c	5f		 pop	 edi
  0002d	5e		 pop	 esi

; 1214 : 		}

  0002e	5d		 pop	 ebp
  0002f	c2 0c 00	 ret	 12			; 0000000cH
?erase@?$vector@HV?$allocator@H@std@@@std@@QAE?AV?$_Vector_iterator@V?$_Vector_val@HV?$allocator@H@std@@@std@@@2@V?$_Vector_const_iterator@V?$_Vector_val@HV?$allocator@H@std@@@std@@@2@0@Z ENDP ; std::vector<int,std::allocator<int> >::erase
_TEXT	ENDS
PUBLIC	?_Tidy@?$vector@HV?$allocator@H@std@@@std@@IAEXXZ ; std::vector<int,std::allocator<int> >::_Tidy
EXTRN	__imp_?_Orphan_all@_Container_base0@std@@QAEXXZ:PROC
; Function compile flags: /Ogsp
;	COMDAT ?_Tidy@?$vector@HV?$allocator@H@std@@@std@@IAEXXZ
_TEXT	SEGMENT
?_Tidy@?$vector@HV?$allocator@H@std@@@std@@IAEXXZ PROC	; std::vector<int,std::allocator<int> >::_Tidy, COMDAT
; _this$ = ecx

; 1301 : 		{	// free all storage

  00000	56		 push	 esi
  00001	8b f1		 mov	 esi, ecx

; 1302 : 		if (this->_Myfirst != 0)

  00003	83 3e 00	 cmp	 DWORD PTR [esi], 0
  00006	74 0e		 je	 SHORT $LN12@Tidy

; 1303 : 			{	// something to free, destroy and deallocate it
; 1304 : 			this->_Orphan_all();

  00008	ff 15 00 00 00
	00		 call	 DWORD PTR __imp_?_Orphan_all@_Container_base0@std@@QAEXXZ

; 1305 : 			_Destroy(this->_Myfirst, this->_Mylast);
; 1306 : 			this->_Alval.deallocate(this->_Myfirst,
; 1307 : 				this->_Myend - this->_Myfirst);

  0000e	ff 36		 push	 DWORD PTR [esi]
  00010	e8 00 00 00 00	 call	 ??3@YAXPAX@Z		; operator delete
  00015	59		 pop	 ecx
$LN12@Tidy:

; 1308 : 			}
; 1309 : 		this->_Myfirst = 0;

  00016	83 26 00	 and	 DWORD PTR [esi], 0

; 1310 : 		this->_Mylast = 0;

  00019	83 66 04 00	 and	 DWORD PTR [esi+4], 0

; 1311 : 		this->_Myend = 0;

  0001d	83 66 08 00	 and	 DWORD PTR [esi+8], 0
  00021	5e		 pop	 esi

; 1312 : 		}

  00022	c3		 ret	 0
?_Tidy@?$vector@HV?$allocator@H@std@@@std@@IAEXXZ ENDP	; std::vector<int,std::allocator<int> >::_Tidy
_TEXT	ENDS
PUBLIC	?reserve@?$vector@HV?$allocator@H@std@@@std@@QAEXI@Z ; std::vector<int,std::allocator<int> >::reserve
; Function compile flags: /Ogsp
;	COMDAT ?reserve@?$vector@HV?$allocator@H@std@@@std@@QAEXI@Z
_TEXT	SEGMENT
__Count$ = 8						; size = 4
?reserve@?$vector@HV?$allocator@H@std@@@std@@QAEXI@Z PROC ; std::vector<int,std::allocator<int> >::reserve, COMDAT
; _this$ = ecx

; 746  : 		{	// determine new minimum length of allocated storage

  00000	55		 push	 ebp
  00001	8b ec		 mov	 ebp, esp

; 747  : 		if (max_size() < _Count)

  00003	81 7d 08 ff ff
	ff 3f		 cmp	 DWORD PTR __Count$[ebp], 1073741823 ; 3fffffffH
  0000a	56		 push	 esi
  0000b	8b f1		 mov	 esi, ecx
  0000d	76 0b		 jbe	 SHORT $LN5@reserve

; 748  : 			_Xlen();	// result too long

  0000f	68 00 00 00 00	 push	 OFFSET ??_C@_0BD@OLBABOEK@vector?$DMT?$DO?5too?5long?$AA@
  00014	ff 15 00 00 00
	00		 call	 DWORD PTR __imp_?_Xlength_error@std@@YAXPBD@Z
$LN43@reserve:
$LN5@reserve:

; 749  : 		else if (capacity() < _Count)

  0001a	8b 46 08	 mov	 eax, DWORD PTR [esi+8]
  0001d	2b 06		 sub	 eax, DWORD PTR [esi]
  0001f	c1 f8 02	 sar	 eax, 2
  00022	3b 45 08	 cmp	 eax, DWORD PTR __Count$[ebp]
  00025	73 52		 jae	 SHORT $LN3@reserve

; 750  : 			{	// not enough room, reallocate
; 751  : 			pointer _Ptr = this->_Alval.allocate(_Count);

  00027	53		 push	 ebx
  00028	57		 push	 edi
  00029	6a 00		 push	 0
  0002b	ff 75 08	 push	 DWORD PTR __Count$[ebp]
  0002e	e8 00 00 00 00	 call	 ??$_Allocate@H@std@@YAPAHIPAH@Z ; std::_Allocate<int>

; 752  : 
; 753  : 			_TRY_BEGIN
; 754  : 			_Umove(this->_Myfirst, this->_Mylast, _Ptr);

  00033	8b 0e		 mov	 ecx, DWORD PTR [esi]
  00035	8d 56 0c	 lea	 edx, DWORD PTR [esi+12]
  00038	52		 push	 edx
  00039	8b d8		 mov	 ebx, eax
  0003b	8b 46 04	 mov	 eax, DWORD PTR [esi+4]
  0003e	53		 push	 ebx
  0003f	50		 push	 eax
  00040	51		 push	 ecx
  00041	e8 00 00 00 00	 call	 ??$_Uninitialized_move@PAHPAHV?$allocator@H@std@@@std@@YAPAHPAH00AAV?$allocator@H@0@@Z ; std::_Uninitialized_move<int *,int *,std::allocator<int> >

; 755  : 			_CATCH_ALL
; 756  : 			this->_Alval.deallocate(_Ptr, _Count);
; 757  : 			_RERAISE;
; 758  : 			_CATCH_END
; 759  : 
; 760  : 			size_type _Size = size();

  00046	8b 06		 mov	 eax, DWORD PTR [esi]
  00048	8b 7e 04	 mov	 edi, DWORD PTR [esi+4]
  0004b	2b f8		 sub	 edi, eax
  0004d	83 c4 18	 add	 esp, 24			; 00000018H
  00050	c1 ff 02	 sar	 edi, 2

; 761  : 			if (this->_Myfirst != 0)

  00053	85 c0		 test	 eax, eax
  00055	74 07		 je	 SHORT $LN39@reserve

; 762  : 				{	// destroy and deallocate old array
; 763  : 				_Destroy(this->_Myfirst, this->_Mylast);
; 764  : 				this->_Alval.deallocate(this->_Myfirst,
; 765  : 					this->_Myend - this->_Myfirst);

  00057	50		 push	 eax
  00058	e8 00 00 00 00	 call	 ??3@YAXPAX@Z		; operator delete
  0005d	59		 pop	 ecx
$LN39@reserve:

; 766  : 				}
; 767  : 
; 768  : 			this->_Orphan_all();

  0005e	8b ce		 mov	 ecx, esi
  00060	ff 15 00 00 00
	00		 call	 DWORD PTR __imp_?_Orphan_all@_Container_base0@std@@QAEXXZ

; 769  : 			this->_Myend = _Ptr + _Count;

  00066	8b 45 08	 mov	 eax, DWORD PTR __Count$[ebp]
  00069	8d 04 83	 lea	 eax, DWORD PTR [ebx+eax*4]
  0006c	89 46 08	 mov	 DWORD PTR [esi+8], eax

; 770  : 			this->_Mylast = _Ptr + _Size;

  0006f	8d 04 bb	 lea	 eax, DWORD PTR [ebx+edi*4]
  00072	5f		 pop	 edi

; 771  : 			this->_Myfirst = _Ptr;

  00073	89 1e		 mov	 DWORD PTR [esi], ebx
  00075	89 46 04	 mov	 DWORD PTR [esi+4], eax
  00078	5b		 pop	 ebx
$LN3@reserve:
  00079	5e		 pop	 esi

; 772  : 			}
; 773  : 		}

  0007a	5d		 pop	 ebp
  0007b	c2 04 00	 ret	 4
$LN42@reserve:
?reserve@?$vector@HV?$allocator@H@std@@@std@@QAEXI@Z ENDP ; std::vector<int,std::allocator<int> >::reserve
_TEXT	ENDS
PUBLIC	??1?$vector@HV?$allocator@H@std@@@std@@QAE@XZ	; std::vector<int,std::allocator<int> >::~vector<int,std::allocator<int> >
; Function compile flags: /Ogsp
;	COMDAT ??1?$vector@HV?$allocator@H@std@@@std@@QAE@XZ
_TEXT	SEGMENT
??1?$vector@HV?$allocator@H@std@@@std@@QAE@XZ PROC	; std::vector<int,std::allocator<int> >::~vector<int,std::allocator<int> >, COMDAT
; _this$ = ecx

; 705  : 		_Tidy();

  00000	e9 00 00 00 00	 jmp	 ?_Tidy@?$vector@HV?$allocator@H@std@@@std@@IAEXXZ ; std::vector<int,std::allocator<int> >::_Tidy
??1?$vector@HV?$allocator@H@std@@@std@@QAE@XZ ENDP	; std::vector<int,std::allocator<int> >::~vector<int,std::allocator<int> >
_TEXT	ENDS
PUBLIC	?clear@?$vector@HV?$allocator@H@std@@@std@@QAEXXZ ; std::vector<int,std::allocator<int> >::clear
; Function compile flags: /Ogsp
;	COMDAT ?clear@?$vector@HV?$allocator@H@std@@@std@@QAEXXZ
_TEXT	SEGMENT
$T508779 = -4						; size = 4
?clear@?$vector@HV?$allocator@H@std@@@std@@QAEXXZ PROC	; std::vector<int,std::allocator<int> >::clear, COMDAT
; _this$ = ecx

; 1217 : 		{	// erase all

  00000	55		 push	 ebp
  00001	8b ec		 mov	 ebp, esp
  00003	51		 push	 ecx

; 1218 : 		erase(begin(), end());

  00004	8b 41 04	 mov	 eax, DWORD PTR [ecx+4]
  00007	8b 11		 mov	 edx, DWORD PTR [ecx]
  00009	50		 push	 eax
  0000a	52		 push	 edx
  0000b	8d 45 fc	 lea	 eax, DWORD PTR $T508779[ebp]
  0000e	50		 push	 eax
  0000f	e8 00 00 00 00	 call	 ?erase@?$vector@HV?$allocator@H@std@@@std@@QAE?AV?$_Vector_iterator@V?$_Vector_val@HV?$allocator@H@std@@@std@@@2@V?$_Vector_const_iterator@V?$_Vector_val@HV?$allocator@H@std@@@std@@@2@0@Z ; std::vector<int,std::allocator<int> >::erase

; 1219 : 		}

  00014	c9		 leave
  00015	c3		 ret	 0
?clear@?$vector@HV?$allocator@H@std@@@std@@QAEXXZ ENDP	; std::vector<int,std::allocator<int> >::clear
_TEXT	ENDS
PUBLIC	?_Reserve@?$vector@HV?$allocator@H@std@@@std@@IAEXI@Z ; std::vector<int,std::allocator<int> >::_Reserve
; Function compile flags: /Ogsp
;	COMDAT ?_Reserve@?$vector@HV?$allocator@H@std@@@std@@IAEXI@Z
_TEXT	SEGMENT
__Count$ = 8						; size = 4
?_Reserve@?$vector@HV?$allocator@H@std@@@std@@IAEXI@Z PROC ; std::vector<int,std::allocator<int> >::_Reserve, COMDAT
; _this$ = ecx

; 1290 : 		{	// ensure room for _Count new elements, grow exponentially

  00000	55		 push	 ebp
  00001	8b ec		 mov	 ebp, esp
  00003	56		 push	 esi
  00004	8b f1		 mov	 esi, ecx

; 1291 : 		size_type _Size = size();

  00006	8b 0e		 mov	 ecx, DWORD PTR [esi]
  00008	8b 46 04	 mov	 eax, DWORD PTR [esi+4]
  0000b	2b c1		 sub	 eax, ecx

; 1292 : 		if (max_size() - _Count < _Size)

  0000d	ba ff ff ff 3f	 mov	 edx, 1073741823		; 3fffffffH
  00012	2b 55 08	 sub	 edx, DWORD PTR __Count$[ebp]
  00015	c1 f8 02	 sar	 eax, 2
  00018	3b d0		 cmp	 edx, eax
  0001a	73 0b		 jae	 SHORT $LN4@Reserve

; 1293 : 			_Xlen();

  0001c	68 00 00 00 00	 push	 OFFSET ??_C@_0BD@OLBABOEK@vector?$DMT?$DO?5too?5long?$AA@
  00021	ff 15 00 00 00
	00		 call	 DWORD PTR __imp_?_Xlength_error@std@@YAXPBD@Z
$LN21@Reserve:
$LN4@Reserve:

; 1294 : 		else if ((_Size += _Count) <= capacity())

  00027	8b 56 08	 mov	 edx, DWORD PTR [esi+8]
  0002a	03 45 08	 add	 eax, DWORD PTR __Count$[ebp]
  0002d	2b d1		 sub	 edx, ecx
  0002f	c1 fa 02	 sar	 edx, 2
  00032	3b c2		 cmp	 eax, edx
  00034	76 10		 jbe	 SHORT $LN1@Reserve

; 1295 : 			;
; 1296 : 		else
; 1297 : 			reserve(_Grow_to(_Size));

  00036	50		 push	 eax
  00037	8b ce		 mov	 ecx, esi
  00039	e8 00 00 00 00	 call	 ?_Grow_to@?$vector@HV?$allocator@H@std@@@std@@IBEII@Z ; std::vector<int,std::allocator<int> >::_Grow_to
  0003e	50		 push	 eax
  0003f	8b ce		 mov	 ecx, esi
  00041	e8 00 00 00 00	 call	 ?reserve@?$vector@HV?$allocator@H@std@@@std@@QAEXI@Z ; std::vector<int,std::allocator<int> >::reserve
$LN1@Reserve:
  00046	5e		 pop	 esi

; 1298 : 		}

  00047	5d		 pop	 ebp
  00048	c2 04 00	 ret	 4
$LN20@Reserve:
?_Reserve@?$vector@HV?$allocator@H@std@@@std@@IAEXI@Z ENDP ; std::vector<int,std::allocator<int> >::_Reserve
_TEXT	ENDS
PUBLIC	??_7ADImagePanelWnd@@6B@			; ADImagePanelWnd::`vftable'
PUBLIC	??0ADImagePanelWnd@@QAE@XZ			; ADImagePanelWnd::ADImagePanelWnd
PUBLIC	??_R4ADImagePanelWnd@@6B@			; ADImagePanelWnd::`RTTI Complete Object Locator'
PUBLIC	??_R0?AVADImagePanelWnd@@@8			; ADImagePanelWnd `RTTI Type Descriptor'
PUBLIC	??_R3ADImagePanelWnd@@8				; ADImagePanelWnd::`RTTI Class Hierarchy Descriptor'
PUBLIC	??_R2ADImagePanelWnd@@8				; ADImagePanelWnd::`RTTI Base Class Array'
PUBLIC	??_R1A@?0A@EA@ADImagePanelWnd@@8		; ADImagePanelWnd::`RTTI Base Class Descriptor at (0,-1,0,64)'
PUBLIC	??_R1A@?0A@EA@ioButton@@8			; ioButton::`RTTI Base Class Descriptor at (0,-1,0,64)'
PUBLIC	??_R0?AVioButton@@@8				; ioButton `RTTI Type Descriptor'
PUBLIC	??_R3ioButton@@8				; ioButton::`RTTI Class Hierarchy Descriptor'
PUBLIC	??_R2ioButton@@8				; ioButton::`RTTI Base Class Array'
PUBLIC	??_R1A@?0A@EA@ioWnd@@8				; ioWnd::`RTTI Base Class Descriptor at (0,-1,0,64)'
PUBLIC	??_R3ioWnd@@8					; ioWnd::`RTTI Class Hierarchy Descriptor'
PUBLIC	??_R2ioWnd@@8					; ioWnd::`RTTI Base Class Array'
PUBLIC	?iwm_show@ADImagePanelWnd@@UAEXXZ		; ADImagePanelWnd::iwm_show
EXTRN	__imp_??0ioButton@@QAE@XZ:PROC
EXTRN	?AddRenderImage@ioButton@@UAEXABVioHashString@@PAVioUIRenderImage@@@Z:PROC ; ioButton::AddRenderImage
EXTRN	?AddTooltipHelp@ioWnd@@UAEXABVioHashString@@00@Z:PROC ; ioWnd::AddTooltipHelp
EXTRN	?ParseExtraInfo@ioButton@@UAEXAAVioXMLElement@@@Z:PROC ; ioButton::ParseExtraInfo
EXTRN	?AddNamedRenderImage@ioWnd@@UAEXABVioHashString@@PAVioUIRenderImage@@@Z:PROC ; ioWnd::AddNamedRenderImage
EXTRN	?RemoveNamedRenderImage@ioWnd@@UAEXABVioHashString@@@Z:PROC ; ioWnd::RemoveNamedRenderImage
EXTRN	?GetNamedRenderImage@ioWnd@@UBEPAVioUIRenderImage@@ABVioHashString@@@Z:PROC ; ioWnd::GetNamedRenderImage
EXTRN	?SetWindowAlpha@ioButton@@UAEXH@Z:PROC		; ioButton::SetWindowAlpha
EXTRN	?SetActive@ioWnd@@UAEXXZ:PROC			; ioWnd::SetActive
EXTRN	?SetInActive@ioWnd@@UAEXXZ:PROC			; ioWnd::SetInActive
EXTRN	?ClearElementImageList@ioWnd@@UAEXXZ:PROC	; ioWnd::ClearElementImageList
EXTRN	?SetSize@ioWnd@@UAEXHH@Z:PROC			; ioWnd::SetSize
EXTRN	?SetPositionToDefault@ioWnd@@UAEXHH_N0@Z:PROC	; ioWnd::SetPositionToDefault
EXTRN	?IsNeedProcess@ioWnd@@UBE_NXZ:PROC		; ioWnd::IsNeedProcess
EXTRN	?IsCanMouseReaction@ioWnd@@UBE_NXZ:PROC		; ioWnd::IsCanMouseReaction
EXTRN	?AddChild@ioWnd@@UAEXPAV1@@Z:PROC		; ioWnd::AddChild
EXTRN	?DeleteChild@ioWnd@@UAEXK@Z:PROC		; ioWnd::DeleteChild
EXTRN	?DeleteAllChild@ioWnd@@UAEXXZ:PROC		; ioWnd::DeleteAllChild
EXTRN	?OnRenderShowAndHide@ioWnd@@MAE_NXZ:PROC	; ioWnd::OnRenderShowAndHide
EXTRN	?OnRenderShowAndHideByDefault@ioWnd@@MAE_NK@Z:PROC ; ioWnd::OnRenderShowAndHideByDefault
EXTRN	?OnRenderShowAndHideByTop@ioWnd@@MAE_NK@Z:PROC	; ioWnd::OnRenderShowAndHideByTop
EXTRN	?OnRenderShowAndHideByDown@ioWnd@@MAE_NK@Z:PROC	; ioWnd::OnRenderShowAndHideByDown
EXTRN	?OnRenderAfterChild@ioWnd@@MAEXXZ:PROC		; ioWnd::OnRenderAfterChild
EXTRN	?OnMouseProcess@ioWnd@@MAEXABVioMouse@@@Z:PROC	; ioWnd::OnMouseProcess
EXTRN	?CheckFrameReSize@ioButton@@MAEXHHHH@Z:PROC	; ioButton::CheckFrameReSize
EXTRN	?RenderImageList@ioWnd@@MAEXHHW4UIRenderType@@@Z:PROC ; ioWnd::RenderImageList
EXTRN	?iwm_create@ioWnd@@UAEXXZ:PROC			; ioWnd::iwm_create
EXTRN	?iwm_destroy@ioWnd@@UAEXXZ:PROC			; ioWnd::iwm_destroy
EXTRN	?iwm_lbuttondown@ioButton@@UAEXABVioMouse@@@Z:PROC ; ioButton::iwm_lbuttondown
EXTRN	?iwm_lbuttonup@ioButton@@UAEXABVioMouse@@@Z:PROC ; ioButton::iwm_lbuttonup
EXTRN	?iwm_lbuttonDBLCLK@ioButton@@UAEXABVioMouse@@@Z:PROC ; ioButton::iwm_lbuttonDBLCLK
EXTRN	?iwm_rbuttondown@ioButton@@UAEXABVioMouse@@@Z:PROC ; ioButton::iwm_rbuttondown
EXTRN	?iwm_rbuttonup@ioButton@@UAEXABVioMouse@@@Z:PROC ; ioButton::iwm_rbuttonup
EXTRN	?iwm_mousemove@ioWnd@@UAEXABVioMouse@@@Z:PROC	; ioWnd::iwm_mousemove
EXTRN	?iwm_vscroll@ioWnd@@UAEXKH@Z:PROC		; ioWnd::iwm_vscroll
EXTRN	?iwm_wheel@ioWnd@@UAEXH@Z:PROC			; ioWnd::iwm_wheel
EXTRN	?iwm_esc@ioWnd@@UAE_NXZ:PROC			; ioWnd::iwm_esc
EXTRN	?iwm_spacebar@ioWnd@@UAE_NXZ:PROC		; ioWnd::iwm_spacebar
EXTRN	?iwm_gototop@ioWnd@@UAEXXZ:PROC			; ioWnd::iwm_gototop
EXTRN	?iwm_dragenter@ioWnd@@UAE?AW4IWDropEffect@@PAVioDragItem@@ABVioMouse@@@Z:PROC ; ioWnd::iwm_dragenter
EXTRN	?iwm_dragover@ioWnd@@UAE?AW4IWDropEffect@@PAVioDragItem@@ABVioMouse@@@Z:PROC ; ioWnd::iwm_dragover
EXTRN	?iwm_dragleave@ioWnd@@UAEXXZ:PROC		; ioWnd::iwm_dragleave
EXTRN	?iwm_dropitem@ioWnd@@UAE_NPAVioDragItem@@ABVioMouse@@PAV1@@Z:PROC ; ioWnd::iwm_dropitem
EXTRN	?iwm_dropdone@ioWnd@@UAEXPAVioDragItem@@PAV1@_N@Z:PROC ; ioWnd::iwm_dropdone
EXTRN	?IsEXType@ioWnd@@UBE_NXZ:PROC			; ioWnd::IsEXType
EXTRN	?GetWndType@ioButton@@UBEKXZ:PROC		; ioButton::GetWndType
EXTRN	?RenderWnd@ioWnd@@UAEXXZ:PROC			; ioWnd::RenderWnd
EXTRN	?SetIDEX@ioWnd@@UAEXAAK_N@Z:PROC		; ioWnd::SetIDEX
EXTRN	?ParseXML@ioWnd@@UAEXAAVioXMLElement@@@Z:PROC	; ioWnd::ParseXML
EXTRN	?GetHeaderFileName@ioButton@@UAEPBDXZ:PROC	; ioButton::GetHeaderFileName
EXTRN	?GetTemplateName@ioButton@@UAEPBDXZ:PROC	; ioButton::GetTemplateName
EXTRN	?GetDefClassName@ioButton@@UBEPBDXZ:PROC	; ioButton::GetDefClassName
EXTRN	?_Clone@ioButton@@UAEPAVioWnd@@XZ:PROC		; ioButton::_Clone
EXTRN	?Copy@ioButton@@UAEXPAVioWnd@@@Z:PROC		; ioButton::Copy
EXTRN	?Save@ioWnd@@UAE_NAAVioXMLElement@@@Z:PROC	; ioWnd::Save
EXTRN	?SetSaveData@ioButton@@UAEXAAVioXMLElement@@@Z:PROC ; ioButton::SetSaveData
EXTRN	?SetPosX@ioWnd@@UAEXH@Z:PROC			; ioWnd::SetPosX
EXTRN	?SetPosY@ioWnd@@UAEXH@Z:PROC			; ioWnd::SetPosY
EXTRN	?SetWidth@ioWnd@@UAEXH@Z:PROC			; ioWnd::SetWidth
EXTRN	?SetHeight@ioWnd@@UAEXH@Z:PROC			; ioWnd::SetHeight
EXTRN	?GetNumFixedRenderFrame@ioButton@@UBEHXZ:PROC	; ioButton::GetNumFixedRenderFrame
EXTRN	?GetFixedRenderFrameType@ioButton@@UAEPBDH@Z:PROC ; ioButton::GetFixedRenderFrameType
EXTRN	?GetRenderFrame@ioButton@@UAEPAPAVioUIRenderElement@@PBD@Z:PROC ; ioButton::GetRenderFrame
EXTRN	?GetNumFixedRenderImage@ioButton@@UBEHXZ:PROC	; ioButton::GetNumFixedRenderImage
EXTRN	?GetFixedRenderImageType@ioButton@@UAEPBDH@Z:PROC ; ioButton::GetFixedRenderImageType
EXTRN	?GetRenderImage@ioButton@@UAEPAPAVioUIRenderElement@@PBD@Z:PROC ; ioButton::GetRenderImage
EXTRN	?AddEffect@ioWnd@@UAEXABVioHashString@@PAVioUI3DEffectRender@@@Z:PROC ; ioWnd::AddEffect
EXTRN	?GetEffect@ioWnd@@UAEPAVioUI3DEffectRender@@VioHashString@@@Z:PROC ; ioWnd::GetEffect
EXTRN	??_EADImagePanelWnd@@UAEPAXI@Z:PROC		; ADImagePanelWnd::`vector deleting destructor'
EXTRN	?OnDrawNormal@ioButton@@MAEXHH@Z:PROC		; ioButton::OnDrawNormal
EXTRN	?OnDrawOvered@ioButton@@MAEXHH@Z:PROC		; ioButton::OnDrawOvered
EXTRN	?OnDrawOveredAdd@ioButton@@MAEXHH@Z:PROC	; ioButton::OnDrawOveredAdd
EXTRN	?OnDrawPushed@ioButton@@MAEXHH@Z:PROC		; ioButton::OnDrawPushed
EXTRN	?OnDrawDisabled@ioButton@@MAEXHH@Z:PROC		; ioButton::OnDrawDisabled
EXTRN	?OnDrawExDisabledNormal@ioButton@@MAEXHH@Z:PROC	; ioButton::OnDrawExDisabledNormal
EXTRN	?OnDrawExDisabledOvered@ioButton@@MAEXHH@Z:PROC	; ioButton::OnDrawExDisabledOvered
EXTRN	?OnDrawExDisabledPushed@ioButton@@MAEXHH@Z:PROC	; ioButton::OnDrawExDisabledPushed
EXTRN	?OnDrawBack@ioButton@@MAEXHH@Z:PROC		; ioButton::OnDrawBack
EXTRN	?OnDrawNormalList@ioButton@@MAEXHH@Z:PROC	; ioButton::OnDrawNormalList
EXTRN	?OnDrawDisableList@ioButton@@MAEXHH@Z:PROC	; ioButton::OnDrawDisableList
;	COMDAT ??_R2ioWnd@@8
; File c:\program files (x86)\microsoft visual studio 10.0\vc\include\xmemory
rdata$r	SEGMENT
??_R2ioWnd@@8 DD FLAT:??_R1A@?0A@EA@ioWnd@@8		; ioWnd::`RTTI Base Class Array'
rdata$r	ENDS
;	COMDAT ??_R3ioWnd@@8
rdata$r	SEGMENT
??_R3ioWnd@@8 DD 00H					; ioWnd::`RTTI Class Hierarchy Descriptor'
	DD	00H
	DD	01H
	DD	FLAT:??_R2ioWnd@@8
rdata$r	ENDS
;	COMDAT ??_R1A@?0A@EA@ioWnd@@8
rdata$r	SEGMENT
??_R1A@?0A@EA@ioWnd@@8 DD FLAT:??_R0?AVioWnd@@@8	; ioWnd::`RTTI Base Class Descriptor at (0,-1,0,64)'
	DD	00H
	DD	00H
	DD	0ffffffffH
	DD	00H
	DD	040H
	DD	FLAT:??_R3ioWnd@@8
rdata$r	ENDS
;	COMDAT ??_R2ioButton@@8
rdata$r	SEGMENT
??_R2ioButton@@8 DD FLAT:??_R1A@?0A@EA@ioButton@@8	; ioButton::`RTTI Base Class Array'
	DD	FLAT:??_R1A@?0A@EA@ioWnd@@8
rdata$r	ENDS
;	COMDAT ??_R3ioButton@@8
rdata$r	SEGMENT
??_R3ioButton@@8 DD 00H					; ioButton::`RTTI Class Hierarchy Descriptor'
	DD	00H
	DD	02H
	DD	FLAT:??_R2ioButton@@8
rdata$r	ENDS
;	COMDAT ??_R0?AVioButton@@@8
_DATA	SEGMENT
??_R0?AVioButton@@@8 DD FLAT:??_7type_info@@6B@		; ioButton `RTTI Type Descriptor'
	DD	00H
	DB	'.?AVioButton@@', 00H
_DATA	ENDS
;	COMDAT ??_R1A@?0A@EA@ioButton@@8
rdata$r	SEGMENT
??_R1A@?0A@EA@ioButton@@8 DD FLAT:??_R0?AVioButton@@@8	; ioButton::`RTTI Base Class Descriptor at (0,-1,0,64)'
	DD	01H
	DD	00H
	DD	0ffffffffH
	DD	00H
	DD	040H
	DD	FLAT:??_R3ioButton@@8
rdata$r	ENDS
;	COMDAT ??_R1A@?0A@EA@ADImagePanelWnd@@8
rdata$r	SEGMENT
??_R1A@?0A@EA@ADImagePanelWnd@@8 DD FLAT:??_R0?AVADImagePanelWnd@@@8 ; ADImagePanelWnd::`RTTI Base Class Descriptor at (0,-1,0,64)'
	DD	02H
	DD	00H
	DD	0ffffffffH
	DD	00H
	DD	040H
	DD	FLAT:??_R3ADImagePanelWnd@@8
rdata$r	ENDS
;	COMDAT ??_R2ADImagePanelWnd@@8
rdata$r	SEGMENT
??_R2ADImagePanelWnd@@8 DD FLAT:??_R1A@?0A@EA@ADImagePanelWnd@@8 ; ADImagePanelWnd::`RTTI Base Class Array'
	DD	FLAT:??_R1A@?0A@EA@ioButton@@8
	DD	FLAT:??_R1A@?0A@EA@ioWnd@@8
rdata$r	ENDS
;	COMDAT ??_R3ADImagePanelWnd@@8
rdata$r	SEGMENT
??_R3ADImagePanelWnd@@8 DD 00H				; ADImagePanelWnd::`RTTI Class Hierarchy Descriptor'
	DD	00H
	DD	03H
	DD	FLAT:??_R2ADImagePanelWnd@@8
rdata$r	ENDS
;	COMDAT ??_R0?AVADImagePanelWnd@@@8
_DATA	SEGMENT
??_R0?AVADImagePanelWnd@@@8 DD FLAT:??_7type_info@@6B@	; ADImagePanelWnd `RTTI Type Descriptor'
	DD	00H
	DB	'.?AVADImagePanelWnd@@', 00H
_DATA	ENDS
;	COMDAT ??_R4ADImagePanelWnd@@6B@
rdata$r	SEGMENT
??_R4ADImagePanelWnd@@6B@ DD 00H			; ADImagePanelWnd::`RTTI Complete Object Locator'
	DD	00H
	DD	00H
	DD	FLAT:??_R0?AVADImagePanelWnd@@@8
	DD	FLAT:??_R3ADImagePanelWnd@@8
rdata$r	ENDS
;	COMDAT ??_7ADImagePanelWnd@@6B@
CONST	SEGMENT
??_7ADImagePanelWnd@@6B@ DD FLAT:??_R4ADImagePanelWnd@@6B@ ; ADImagePanelWnd::`vftable'
	DD	FLAT:?AddRenderFrame@ADImagePanelWnd@@UAEXABVioHashString@@PAVioUIRenderFrame@@@Z
	DD	FLAT:?AddRenderImage@ioButton@@UAEXABVioHashString@@PAVioUIRenderImage@@@Z
	DD	FLAT:?AddTooltipHelp@ioWnd@@UAEXABVioHashString@@00@Z
	DD	FLAT:?ParseExtraInfo@ioButton@@UAEXAAVioXMLElement@@@Z
	DD	FLAT:?AddNamedRenderImage@ioWnd@@UAEXABVioHashString@@PAVioUIRenderImage@@@Z
	DD	FLAT:?RemoveNamedRenderImage@ioWnd@@UAEXABVioHashString@@@Z
	DD	FLAT:?GetNamedRenderImage@ioWnd@@UBEPAVioUIRenderImage@@ABVioHashString@@@Z
	DD	FLAT:?SetWindowAlpha@ioButton@@UAEXH@Z
	DD	FLAT:?SetActive@ioWnd@@UAEXXZ
	DD	FLAT:?SetInActive@ioWnd@@UAEXXZ
	DD	FLAT:?ClearElementImageList@ioWnd@@UAEXXZ
	DD	FLAT:?SetSize@ioWnd@@UAEXHH@Z
	DD	FLAT:?SetPositionToDefault@ioWnd@@UAEXHH_N0@Z
	DD	FLAT:?IsNeedProcess@ioWnd@@UBE_NXZ
	DD	FLAT:?IsCanMouseReaction@ioWnd@@UBE_NXZ
	DD	FLAT:?AddChild@ioWnd@@UAEXPAV1@@Z
	DD	FLAT:?DeleteChild@ioWnd@@UAEXK@Z
	DD	FLAT:?DeleteAllChild@ioWnd@@UAEXXZ
	DD	FLAT:?OnRenderShowAndHide@ioWnd@@MAE_NXZ
	DD	FLAT:?OnRenderShowAndHideByDefault@ioWnd@@MAE_NK@Z
	DD	FLAT:?OnRenderShowAndHideByTop@ioWnd@@MAE_NK@Z
	DD	FLAT:?OnRenderShowAndHideByDown@ioWnd@@MAE_NK@Z
	DD	FLAT:?OnRender@ADImagePanelWnd@@MAEXXZ
	DD	FLAT:?OnRenderAfterChild@ioWnd@@MAEXXZ
	DD	FLAT:?OnProcess@ADImagePanelWnd@@MAEXM@Z
	DD	FLAT:?OnMouseProcess@ioWnd@@MAEXABVioMouse@@@Z
	DD	FLAT:?CheckFrameReSize@ioButton@@MAEXHHHH@Z
	DD	FLAT:?RenderImageList@ioWnd@@MAEXHHW4UIRenderType@@@Z
	DD	FLAT:?iwm_create@ioWnd@@UAEXXZ
	DD	FLAT:?iwm_destroy@ioWnd@@UAEXXZ
	DD	FLAT:?iwm_lbuttondown@ioButton@@UAEXABVioMouse@@@Z
	DD	FLAT:?iwm_lbuttonup@ioButton@@UAEXABVioMouse@@@Z
	DD	FLAT:?iwm_lbuttonDBLCLK@ioButton@@UAEXABVioMouse@@@Z
	DD	FLAT:?iwm_rbuttondown@ioButton@@UAEXABVioMouse@@@Z
	DD	FLAT:?iwm_rbuttonup@ioButton@@UAEXABVioMouse@@@Z
	DD	FLAT:?iwm_command@ADImagePanelWnd@@UAEXPAVioWnd@@HK@Z
	DD	FLAT:?iwm_mouseover@ADImagePanelWnd@@UAEXABVioMouse@@@Z
	DD	FLAT:?iwm_mousemove@ioWnd@@UAEXABVioMouse@@@Z
	DD	FLAT:?iwm_mouseleave@ADImagePanelWnd@@UAEXABVioMouse@@@Z
	DD	FLAT:?iwm_vscroll@ioWnd@@UAEXKH@Z
	DD	FLAT:?iwm_wheel@ioWnd@@UAEXH@Z
	DD	FLAT:?iwm_show@ADImagePanelWnd@@UAEXXZ
	DD	FLAT:?iwm_hide@ADImagePanelWnd@@UAEXXZ
	DD	FLAT:?iwm_esc@ioWnd@@UAE_NXZ
	DD	FLAT:?iwm_spacebar@ioWnd@@UAE_NXZ
	DD	FLAT:?iwm_gototop@ioWnd@@UAEXXZ
	DD	FLAT:?iwm_dragenter@ioWnd@@UAE?AW4IWDropEffect@@PAVioDragItem@@ABVioMouse@@@Z
	DD	FLAT:?iwm_dragover@ioWnd@@UAE?AW4IWDropEffect@@PAVioDragItem@@ABVioMouse@@@Z
	DD	FLAT:?iwm_dragleave@ioWnd@@UAEXXZ
	DD	FLAT:?iwm_dropitem@ioWnd@@UAE_NPAVioDragItem@@ABVioMouse@@PAV1@@Z
	DD	FLAT:?iwm_dropdone@ioWnd@@UAEXPAVioDragItem@@PAV1@_N@Z
	DD	FLAT:?IsEXType@ioWnd@@UBE_NXZ
	DD	FLAT:?GetWndType@ioButton@@UBEKXZ
	DD	FLAT:?RenderWnd@ioWnd@@UAEXXZ
	DD	FLAT:?SetIDEX@ioWnd@@UAEXAAK_N@Z
	DD	FLAT:?ParseXML@ioWnd@@UAEXAAVioXMLElement@@@Z
	DD	FLAT:?GetHeaderFileName@ioButton@@UAEPBDXZ
	DD	FLAT:?GetTemplateName@ioButton@@UAEPBDXZ
	DD	FLAT:?GetDefClassName@ioButton@@UBEPBDXZ
	DD	FLAT:?_Clone@ioButton@@UAEPAVioWnd@@XZ
	DD	FLAT:?Copy@ioButton@@UAEXPAVioWnd@@@Z
	DD	FLAT:?Save@ioWnd@@UAE_NAAVioXMLElement@@@Z
	DD	FLAT:?SetSaveData@ioButton@@UAEXAAVioXMLElement@@@Z
	DD	FLAT:?SetPosX@ioWnd@@UAEXH@Z
	DD	FLAT:?SetPosY@ioWnd@@UAEXH@Z
	DD	FLAT:?SetWidth@ioWnd@@UAEXH@Z
	DD	FLAT:?SetHeight@ioWnd@@UAEXH@Z
	DD	FLAT:?GetNumFixedRenderFrame@ioButton@@UBEHXZ
	DD	FLAT:?GetFixedRenderFrameType@ioButton@@UAEPBDH@Z
	DD	FLAT:?GetRenderFrame@ioButton@@UAEPAPAVioUIRenderElement@@PBD@Z
	DD	FLAT:?GetNumFixedRenderImage@ioButton@@UBEHXZ
	DD	FLAT:?GetFixedRenderImageType@ioButton@@UAEPBDH@Z
	DD	FLAT:?GetRenderImage@ioButton@@UAEPAPAVioUIRenderElement@@PBD@Z
	DD	FLAT:?AddEffect@ioWnd@@UAEXABVioHashString@@PAVioUI3DEffectRender@@@Z
	DD	FLAT:?GetEffect@ioWnd@@UAEPAVioUI3DEffectRender@@VioHashString@@@Z
	DD	FLAT:??_EADImagePanelWnd@@UAEPAXI@Z
	DD	FLAT:?OnDrawNormal@ioButton@@MAEXHH@Z
	DD	FLAT:?OnDrawOvered@ioButton@@MAEXHH@Z
	DD	FLAT:?OnDrawOveredAdd@ioButton@@MAEXHH@Z
	DD	FLAT:?OnDrawPushed@ioButton@@MAEXHH@Z
	DD	FLAT:?OnDrawDisabled@ioButton@@MAEXHH@Z
	DD	FLAT:?OnDrawExDisabledNormal@ioButton@@MAEXHH@Z
	DD	FLAT:?OnDrawExDisabledOvered@ioButton@@MAEXHH@Z
	DD	FLAT:?OnDrawExDisabledPushed@ioButton@@MAEXHH@Z
	DD	FLAT:?OnDrawBack@ioButton@@MAEXHH@Z
	DD	FLAT:?OnDrawNormalList@ioButton@@MAEXHH@Z
	DD	FLAT:?OnDrawDisableList@ioButton@@MAEXHH@Z
; Function compile flags: /Ogsp
; File d:\lost saga for developer\youtube\tutorial\source\src\lsclient\gui\adimagepanelwnd.cpp
CONST	ENDS
;	COMDAT ??0ADImagePanelWnd@@QAE@XZ
_TEXT	SEGMENT
??0ADImagePanelWnd@@QAE@XZ PROC				; ADImagePanelWnd::ADImagePanelWnd, COMDAT
; _this$ = ecx

; 6    : {

  00000	56		 push	 esi
  00001	8b f1		 mov	 esi, ecx
  00003	ff 15 00 00 00
	00		 call	 DWORD PTR __imp_??0ioButton@@QAE@XZ

; 7    : 	m_pBorder			= NULL;
; 8    : 
; 9    : 	m_ADState			= ADS_DELAY;
; 10   : 	m_SlideMove			= SM_NEXT;
; 11   : 
; 12   : 	m_pCurrBanner		= NULL;
; 13   : 	m_pPrevBanner		= NULL;
; 14   : 
; 15   : 	m_dwDelayStartTime	= 0;
; 16   : 	m_dwDelayTime		= 0;
; 17   : 
; 18   : 	m_dPagingStartTime	= 0;
; 19   : 	m_dPagingTime		= 0;
; 20   : 
; 21   : 	m_fCurrRate			= 1.0f;

  00009	f3 0f 10 05 00
	00 00 00	 movss	 xmm0, DWORD PTR __real@3f800000
  00011	33 c9		 xor	 ecx, ecx
  00013	c7 06 00 00 00
	00		 mov	 DWORD PTR [esi], OFFSET ??_7ADImagePanelWnd@@6B@
  00019	89 8e 08 02 00
	00		 mov	 DWORD PTR [esi+520], ecx
  0001f	89 8e 0c 02 00
	00		 mov	 DWORD PTR [esi+524], ecx
  00025	89 8e 10 02 00
	00		 mov	 DWORD PTR [esi+528], ecx
  0002b	89 8e fc 01 00
	00		 mov	 DWORD PTR [esi+508], ecx
  00031	89 8e 00 02 00
	00		 mov	 DWORD PTR [esi+512], ecx
  00037	c7 86 04 02 00
	00 01 00 00 00	 mov	 DWORD PTR [esi+516], 1
  00041	89 8e 1c 02 00
	00		 mov	 DWORD PTR [esi+540], ecx
  00047	89 8e 20 02 00
	00		 mov	 DWORD PTR [esi+544], ecx
  0004d	89 8e 28 02 00
	00		 mov	 DWORD PTR [esi+552], ecx
  00053	89 8e 24 02 00
	00		 mov	 DWORD PTR [esi+548], ecx
  00059	89 8e 30 02 00
	00		 mov	 DWORD PTR [esi+560], ecx
  0005f	89 8e 2c 02 00
	00		 mov	 DWORD PTR [esi+556], ecx
  00065	f3 0f 11 86 34
	02 00 00	 movss	 DWORD PTR [esi+564], xmm0

; 22   : 
; 23   : 	m_iCurrIndex		= 0;

  0006d	89 8e 18 02 00
	00		 mov	 DWORD PTR [esi+536], ecx

; 24   : }

  00073	8b c6		 mov	 eax, esi
  00075	5e		 pop	 esi
  00076	c3		 ret	 0
??0ADImagePanelWnd@@QAE@XZ ENDP				; ADImagePanelWnd::ADImagePanelWnd
_TEXT	ENDS
PUBLIC	??1ADImagePanelWnd@@UAE@XZ			; ADImagePanelWnd::~ADImagePanelWnd
EXTRN	__imp_??1ioButton@@UAE@XZ:PROC
EXTRN	___CxxFrameHandler3:PROC
EXTRN	__EH_epilog3:PROC
EXTRN	__EH_prolog3:PROC
;	COMDAT xdata$x
; File c:\program files (x86)\microsoft visual studio 10.0\vc\include\vector
xdata$x	SEGMENT
__unwindtable$??1ADImagePanelWnd@@UAE@XZ DD 0ffffffffH
	DD	FLAT:__unwindfunclet$??1ADImagePanelWnd@@UAE@XZ$0
	DD	00H
	DD	FLAT:__unwindfunclet$??1ADImagePanelWnd@@UAE@XZ$1
__ehfuncinfo$??1ADImagePanelWnd@@UAE@XZ DD 019930522H
	DD	02H
	DD	FLAT:__unwindtable$??1ADImagePanelWnd@@UAE@XZ
	DD	2 DUP(00H)
	DD	2 DUP(00H)
	DD	00H
	DD	01H
; Function compile flags: /Ogsp
; File d:\lost saga for developer\youtube\tutorial\source\src\lsclient\gui\adimagepanelwnd.cpp
xdata$x	ENDS
;	COMDAT ??1ADImagePanelWnd@@UAE@XZ
_TEXT	SEGMENT
_this$ = -16						; size = 4
__$EHRec$ = -12						; size = 12
??1ADImagePanelWnd@@UAE@XZ PROC				; ADImagePanelWnd::~ADImagePanelWnd, COMDAT
; _this$ = ecx

; 27   : {

  00000	6a 04		 push	 4
  00002	b8 00 00 00 00	 mov	 eax, __ehhandler$??1ADImagePanelWnd@@UAE@XZ
  00007	e8 00 00 00 00	 call	 __EH_prolog3
  0000c	8b f9		 mov	 edi, ecx
  0000e	89 7d f0	 mov	 DWORD PTR _this$[ebp], edi
  00011	c7 07 00 00 00
	00		 mov	 DWORD PTR [edi], OFFSET ??_7ADImagePanelWnd@@6B@

; 28   : 	SAFEDELETE( m_pBorder );

  00017	8b 8f fc 01 00
	00		 mov	 ecx, DWORD PTR [edi+508]
  0001d	33 c0		 xor	 eax, eax
  0001f	40		 inc	 eax
  00020	89 45 fc	 mov	 DWORD PTR __$EHRec$[ebp+8], eax
  00023	85 c9		 test	 ecx, ecx
  00025	74 0d		 je	 SHORT $LN1@ADImagePan
  00027	8b 11		 mov	 edx, DWORD PTR [ecx]
  00029	50		 push	 eax
  0002a	ff 52 40	 call	 DWORD PTR [edx+64]
  0002d	83 a7 fc 01 00
	00 00		 and	 DWORD PTR [edi+508], 0
$LN1@ADImagePan:

; 29   : }

  00034	8d 8f 08 02 00
	00		 lea	 ecx, DWORD PTR [edi+520]
  0003a	c6 45 fc 00	 mov	 BYTE PTR __$EHRec$[ebp+8], 0
  0003e	e8 00 00 00 00	 call	 ?_Tidy@?$vector@HV?$allocator@H@std@@@std@@IAEXXZ ; std::vector<int,std::allocator<int> >::_Tidy
  00043	83 4d fc ff	 or	 DWORD PTR __$EHRec$[ebp+8], -1
  00047	8b cf		 mov	 ecx, edi
  00049	ff 15 00 00 00
	00		 call	 DWORD PTR __imp_??1ioButton@@UAE@XZ
  0004f	e8 00 00 00 00	 call	 __EH_epilog3
  00054	c3		 ret	 0
_TEXT	ENDS
;	COMDAT text$x
text$x	SEGMENT
__unwindfunclet$??1ADImagePanelWnd@@UAE@XZ$0:
  00000	8b 4d f0	 mov	 ecx, DWORD PTR _this$[ebp]
  00003	ff 25 00 00 00
	00		 jmp	 DWORD PTR __imp_??1ioButton@@UAE@XZ
__unwindfunclet$??1ADImagePanelWnd@@UAE@XZ$1:
  00009	8b 4d f0	 mov	 ecx, DWORD PTR _this$[ebp]
  0000c	81 c1 08 02 00
	00		 add	 ecx, 520		; 00000208H
  00012	e9 00 00 00 00	 jmp	 ??1?$vector@HV?$allocator@H@std@@@std@@QAE@XZ ; std::vector<int,std::allocator<int> >::~vector<int,std::allocator<int> >
__ehhandler$??1ADImagePanelWnd@@UAE@XZ:
  00017	8b 54 24 08	 mov	 edx, DWORD PTR [esp+8]
  0001b	8d 42 0c	 lea	 eax, DWORD PTR [edx+12]
  0001e	8b 4a ec	 mov	 ecx, DWORD PTR [edx-20]
  00021	33 c8		 xor	 ecx, eax
  00023	e8 00 00 00 00	 call	 @__security_check_cookie@4
  00028	b8 00 00 00 00	 mov	 eax, OFFSET __ehfuncinfo$??1ADImagePanelWnd@@UAE@XZ
  0002d	e9 00 00 00 00	 jmp	 ___CxxFrameHandler3
text$x	ENDS
??1ADImagePanelWnd@@UAE@XZ ENDP				; ADImagePanelWnd::~ADImagePanelWnd
PUBLIC	?push_back@?$vector@HV?$allocator@H@std@@@std@@QAEXABH@Z ; std::vector<int,std::allocator<int> >::push_back
; Function compile flags: /Ogsp
; File c:\program files (x86)\microsoft visual studio 10.0\vc\include\vector
;	COMDAT ?push_back@?$vector@HV?$allocator@H@std@@@std@@QAEXABH@Z
_TEXT	SEGMENT
__Val$ = 8						; size = 4
?push_back@?$vector@HV?$allocator@H@std@@@std@@QAEXABH@Z PROC ; std::vector<int,std::allocator<int> >::push_back, COMDAT
; _this$ = ecx

; 976  : 		{	// insert element at end

  00000	55		 push	 ebp
  00001	8b ec		 mov	 ebp, esp
  00003	56		 push	 esi
  00004	8b f1		 mov	 esi, ecx

; 977  : 		if (_Inside(_STD addressof(_Val)))

  00006	8b 46 04	 mov	 eax, DWORD PTR [esi+4]
  00009	57		 push	 edi
  0000a	8b 7d 08	 mov	 edi, DWORD PTR __Val$[ebp]
  0000d	3b f8		 cmp	 edi, eax
  0000f	73 27		 jae	 SHORT $LN4@push_back
  00011	8b 0e		 mov	 ecx, DWORD PTR [esi]
  00013	3b cf		 cmp	 ecx, edi
  00015	77 21		 ja	 SHORT $LN4@push_back

; 978  : 			{	// push back an element
; 979  : 			size_type _Idx = _STD addressof(_Val) - this->_Myfirst;

  00017	2b f9		 sub	 edi, ecx
  00019	c1 ff 02	 sar	 edi, 2

; 980  : 			if (this->_Mylast == this->_Myend)

  0001c	3b 46 08	 cmp	 eax, DWORD PTR [esi+8]
  0001f	75 09		 jne	 SHORT $LN3@push_back

; 981  : 				_Reserve(1);

  00021	6a 01		 push	 1
  00023	8b ce		 mov	 ecx, esi
  00025	e8 00 00 00 00	 call	 ?_Reserve@?$vector@HV?$allocator@H@std@@@std@@IAEXI@Z ; std::vector<int,std::allocator<int> >::_Reserve
$LN3@push_back:

; 982  : 			_Orphan_range(this->_Mylast, this->_Mylast);
; 983  : 			_Cons_val(this->_Alval,
; 984  : 				this->_Mylast,
; 985  : 				this->_Myfirst[_Idx]);

  0002a	8b 46 04	 mov	 eax, DWORD PTR [esi+4]
  0002d	85 c0		 test	 eax, eax
  0002f	74 20		 je	 SHORT $LN39@push_back
  00031	8b 0e		 mov	 ecx, DWORD PTR [esi]
  00033	8b 0c b9	 mov	 ecx, DWORD PTR [ecx+edi*4]

; 986  : 			++this->_Mylast;
; 987  : 			}
; 988  : 		else

  00036	eb 17		 jmp	 SHORT $LN46@push_back
$LN4@push_back:

; 989  : 			{	// push back a non-element
; 990  : 			if (this->_Mylast == this->_Myend)

  00038	3b 46 08	 cmp	 eax, DWORD PTR [esi+8]
  0003b	75 09		 jne	 SHORT $LN1@push_back

; 991  : 				_Reserve(1);

  0003d	6a 01		 push	 1
  0003f	8b ce		 mov	 ecx, esi
  00041	e8 00 00 00 00	 call	 ?_Reserve@?$vector@HV?$allocator@H@std@@@std@@IAEXI@Z ; std::vector<int,std::allocator<int> >::_Reserve
$LN1@push_back:

; 992  : 			_Orphan_range(this->_Mylast, this->_Mylast);
; 993  : 			_Cons_val(this->_Alval,
; 994  : 				this->_Mylast,
; 995  : 				_Val);

  00046	8b 46 04	 mov	 eax, DWORD PTR [esi+4]
  00049	85 c0		 test	 eax, eax
  0004b	74 04		 je	 SHORT $LN39@push_back
  0004d	8b 0f		 mov	 ecx, DWORD PTR [edi]
$LN46@push_back:
  0004f	89 08		 mov	 DWORD PTR [eax], ecx
$LN39@push_back:

; 996  : 			++this->_Mylast;

  00051	83 46 04 04	 add	 DWORD PTR [esi+4], 4
  00055	5f		 pop	 edi
  00056	5e		 pop	 esi

; 997  : 			}
; 998  : 		}

  00057	5d		 pop	 ebp
  00058	c2 04 00	 ret	 4
?push_back@?$vector@HV?$allocator@H@std@@@std@@QAEXABH@Z ENDP ; std::vector<int,std::allocator<int> >::push_back
; Function compile flags: /Ogsp
_TEXT	ENDS
;	COMDAT ??_GADImagePanelWnd@@UAEPAXI@Z
_TEXT	SEGMENT
___flags$ = 8						; size = 4
??_GADImagePanelWnd@@UAEPAXI@Z PROC			; ADImagePanelWnd::`scalar deleting destructor', COMDAT
; _this$ = ecx
  00000	55		 push	 ebp
  00001	8b ec		 mov	 ebp, esp
  00003	56		 push	 esi
  00004	8b f1		 mov	 esi, ecx
  00006	e8 00 00 00 00	 call	 ??1ADImagePanelWnd@@UAE@XZ ; ADImagePanelWnd::~ADImagePanelWnd
  0000b	f6 45 08 01	 test	 BYTE PTR ___flags$[ebp], 1
  0000f	74 07		 je	 SHORT $LN1@scalar@2
  00011	56		 push	 esi
  00012	e8 00 00 00 00	 call	 ??3@YAXPAX@Z		; operator delete
  00017	59		 pop	 ecx
$LN1@scalar@2:
  00018	8b c6		 mov	 eax, esi
  0001a	5e		 pop	 esi
  0001b	5d		 pop	 ebp
  0001c	c2 04 00	 ret	 4
??_GADImagePanelWnd@@UAEPAXI@Z ENDP			; ADImagePanelWnd::`scalar deleting destructor'
_TEXT	ENDS
PUBLIC	?ParseAD@ADImagePanelWnd@@IAEXXZ		; ADImagePanelWnd::ParseAD
EXTRN	?GetImageADCount@ioShopManager@@QAEHXZ:PROC	; ioShopManager::GetImageADCount
; Function compile flags: /Ogsp
; File d:\lost saga for developer\youtube\tutorial\source\src\lsclient\gui\adimagepanelwnd.cpp
;	COMDAT ?ParseAD@ADImagePanelWnd@@IAEXXZ
_TEXT	SEGMENT
$T509102 = -4						; size = 4
_i$507101 = -4						; size = 4
?ParseAD@ADImagePanelWnd@@IAEXXZ PROC			; ADImagePanelWnd::ParseAD, COMDAT
; _this$ = ecx

; 143  : {

  00000	55		 push	 ebp
  00001	8b ec		 mov	 ebp, esp
  00003	51		 push	 ecx
  00004	56		 push	 esi

; 144  : 	m_ADIndexList.clear();

  00005	8d b1 08 02 00
	00		 lea	 esi, DWORD PTR [ecx+520]
  0000b	8b 46 04	 mov	 eax, DWORD PTR [esi+4]
  0000e	8b 0e		 mov	 ecx, DWORD PTR [esi]
  00010	50		 push	 eax
  00011	51		 push	 ecx
  00012	8d 45 fc	 lea	 eax, DWORD PTR $T509102[ebp]
  00015	50		 push	 eax
  00016	8b ce		 mov	 ecx, esi
  00018	e8 00 00 00 00	 call	 ?erase@?$vector@HV?$allocator@H@std@@@std@@QAE?AV?$_Vector_iterator@V?$_Vector_val@HV?$allocator@H@std@@@std@@@2@V?$_Vector_const_iterator@V?$_Vector_val@HV?$allocator@H@std@@@std@@@2@0@Z ; std::vector<int,std::allocator<int> >::erase

; 145  : 
; 146  : 	//  
; 147  : 	for( int i = 0; i < g_ShopManager.GetImageADCount(); ++i )

  0001d	83 65 fc 00	 and	 DWORD PTR _i$507101[ebp], 0
  00021	e8 00 00 00 00	 call	 ?GetSingleton@ioShopManager@@SAAAV1@XZ ; ioShopManager::GetSingleton
  00026	8b c8		 mov	 ecx, eax
  00028	e8 00 00 00 00	 call	 ?GetImageADCount@ioShopManager@@QAEHXZ ; ioShopManager::GetImageADCount
  0002d	85 c0		 test	 eax, eax
  0002f	7e 32		 jle	 SHORT $LN2@ParseAD
$LL4@ParseAD:

; 148  : 	{
; 149  : 		const ADImage* pCurrAD = g_ShopManager.GetImageAD( i );

  00031	ff 75 fc	 push	 DWORD PTR _i$507101[ebp]
  00034	e8 00 00 00 00	 call	 ?GetSingleton@ioShopManager@@SAAAV1@XZ ; ioShopManager::GetSingleton
  00039	8b c8		 mov	 ecx, eax
  0003b	e8 00 00 00 00	 call	 ?GetImageAD@ioShopManager@@QAEPBUADImage@@H@Z ; ioShopManager::GetImageAD

; 150  : 		if( pCurrAD )

  00040	85 c0		 test	 eax, eax
  00042	74 0b		 je	 SHORT $LN3@ParseAD

; 151  : 		{
; 152  : 			m_ADIndexList.push_back( i );

  00044	8d 45 fc	 lea	 eax, DWORD PTR _i$507101[ebp]
  00047	50		 push	 eax
  00048	8b ce		 mov	 ecx, esi
  0004a	e8 00 00 00 00	 call	 ?push_back@?$vector@HV?$allocator@H@std@@@std@@QAEXABH@Z ; std::vector<int,std::allocator<int> >::push_back
$LN3@ParseAD:

; 145  : 
; 146  : 	//  
; 147  : 	for( int i = 0; i < g_ShopManager.GetImageADCount(); ++i )

  0004f	ff 45 fc	 inc	 DWORD PTR _i$507101[ebp]
  00052	e8 00 00 00 00	 call	 ?GetSingleton@ioShopManager@@SAAAV1@XZ ; ioShopManager::GetSingleton
  00057	8b c8		 mov	 ecx, eax
  00059	e8 00 00 00 00	 call	 ?GetImageADCount@ioShopManager@@QAEHXZ ; ioShopManager::GetImageADCount
  0005e	39 45 fc	 cmp	 DWORD PTR _i$507101[ebp], eax
  00061	7c ce		 jl	 SHORT $LL4@ParseAD
$LN2@ParseAD:
  00063	5e		 pop	 esi

; 153  : 		}
; 154  : 	}
; 155  : }

  00064	c9		 leave
  00065	c3		 ret	 0
?ParseAD@ADImagePanelWnd@@IAEXXZ ENDP			; ADImagePanelWnd::ParseAD
; Function compile flags: /Ogsp
_TEXT	ENDS
;	COMDAT ?iwm_show@ADImagePanelWnd@@UAEXXZ
_TEXT	SEGMENT
?iwm_show@ADImagePanelWnd@@UAEXXZ PROC			; ADImagePanelWnd::iwm_show, COMDAT
; _this$ = ecx

; 45   : {

  00000	53		 push	 ebx
  00001	56		 push	 esi
  00002	57		 push	 edi

; 46   : 	HideChildWnd( ID_PREV_BTN );

  00003	8b 3d 00 00 00
	00		 mov	 edi, DWORD PTR __imp_?HideChildWnd@ioWnd@@QAEXK_N@Z
  00009	33 db		 xor	 ebx, ebx
  0000b	53		 push	 ebx
  0000c	6a 01		 push	 1
  0000e	8b f1		 mov	 esi, ecx
  00010	ff d7		 call	 edi

; 47   : 	HideChildWnd( ID_NEXT_BTN );

  00012	53		 push	 ebx
  00013	6a 02		 push	 2
  00015	8b ce		 mov	 ecx, esi
  00017	ff d7		 call	 edi

; 48   : 
; 49   : 	m_dwDelayStartTime	= FRAMEGETTIME();

  00019	ff 15 00 00 00
	00		 call	 DWORD PTR __imp_?GetSingleton@ioFrameTimer@@SAAAV1@XZ
  0001f	8b c8		 mov	 ecx, eax
  00021	ff 15 00 00 00
	00		 call	 DWORD PTR __imp_?GetLoopSec@ioFrameTimer@@QBEKXZ

; 50   : 	m_fCurrRate			= 0.0f;

  00027	0f 57 c0	 xorps	 xmm0, xmm0

; 51   : 	m_iCurrIndex		= 0;
; 52   : 
; 53   : 	m_pCurrBanner		= NULL;
; 54   : 	m_pPrevBanner		= NULL;
; 55   : 	m_SlideMove			= SM_NEXT;
; 56   : 
; 57   : 	ParseAD();

  0002a	8b ce		 mov	 ecx, esi
  0002c	89 86 28 02 00
	00		 mov	 DWORD PTR [esi+552], eax
  00032	f3 0f 11 86 34
	02 00 00	 movss	 DWORD PTR [esi+564], xmm0
  0003a	89 9e 18 02 00
	00		 mov	 DWORD PTR [esi+536], ebx
  00040	89 9e 1c 02 00
	00		 mov	 DWORD PTR [esi+540], ebx
  00046	89 9e 20 02 00
	00		 mov	 DWORD PTR [esi+544], ebx
  0004c	c7 86 04 02 00
	00 01 00 00 00	 mov	 DWORD PTR [esi+516], 1
  00056	e8 00 00 00 00	 call	 ?ParseAD@ADImagePanelWnd@@IAEXXZ ; ADImagePanelWnd::ParseAD

; 58   : 	ChangeAD();

  0005b	8b ce		 mov	 ecx, esi
  0005d	e8 00 00 00 00	 call	 ?ChangeAD@ADImagePanelWnd@@IAEXXZ ; ADImagePanelWnd::ChangeAD

; 59   : 	ParseDirectADButton();

  00062	8b ce		 mov	 ecx, esi
  00064	e8 00 00 00 00	 call	 ?ParseDirectADButton@ADImagePanelWnd@@IAEXXZ ; ADImagePanelWnd::ParseDirectADButton
  00069	5f		 pop	 edi

; 60   : 
; 61   : 	m_ADState			= ADS_DELAY;

  0006a	89 9e 00 02 00
	00		 mov	 DWORD PTR [esi+512], ebx
  00070	5e		 pop	 esi
  00071	5b		 pop	 ebx

; 62   : }

  00072	c3		 ret	 0
?iwm_show@ADImagePanelWnd@@UAEXXZ ENDP			; ADImagePanelWnd::iwm_show
_TEXT	ENDS
END
