; Listing generated by Microsoft (R) Optimizing Compiler Version 16.00.30319.01 

	TITLE	D:\Lost Saga For Developer\Youtube\Tutorial\Source\src\LSClient\GUI\AnnouncementWnd.cpp
	.686P
	.XMM
	include listing.inc
	.model	flat

INCLUDELIB MSVCRT
INCLUDELIB OLDNAMES

PUBLIC	?ms_Singleton@?$Singleton@VioAnnouncementManualMgr@@@@1PAVioAnnouncementManualMgr@@A ; Singleton<ioAnnouncementManualMgr>::ms_Singleton
;	COMDAT ?ms_Singleton@?$Singleton@VioAnnouncementManualMgr@@@@1PAVioAnnouncementManualMgr@@A
_BSS	SEGMENT
?ms_Singleton@?$Singleton@VioAnnouncementManualMgr@@@@1PAVioAnnouncementManualMgr@@A DD 01H DUP (?) ; Singleton<ioAnnouncementManualMgr>::ms_Singleton
_BSS	ENDS
PUBLIC	??0?$Singleton@VioAnnouncementManualMgr@@@@QAE@XZ ; Singleton<ioAnnouncementManualMgr>::Singleton<ioAnnouncementManualMgr>
; Function compile flags: /Ogsp
; File d:\lost saga for developer\youtube\tutorial\source\src\io3dengine\iosingleton.h
;	COMDAT ??0?$Singleton@VioAnnouncementManualMgr@@@@QAE@XZ
_TEXT	SEGMENT
??0?$Singleton@VioAnnouncementManualMgr@@@@QAE@XZ PROC	; Singleton<ioAnnouncementManualMgr>::Singleton<ioAnnouncementManualMgr>, COMDAT
; _this$ = ecx

; 27   : 	Singleton()

  00000	8b c1		 mov	 eax, ecx

; 28   : 	{
; 29   : 		assert( !ms_Singleton );
; 30   : 		int offset = (int)(T*)1 - (int)(Singleton <T>*)(T*)1;
; 31   : 		ms_Singleton = (T*)((int)this + offset);

  00002	8d 48 db	 lea	 ecx, DWORD PTR [eax-37]
  00005	89 0d 00 00 00
	00		 mov	 DWORD PTR ?ms_Singleton@?$Singleton@VioAnnouncementManualMgr@@@@1PAVioAnnouncementManualMgr@@A, ecx ; Singleton<ioAnnouncementManualMgr>::ms_Singleton

; 32   : 	}

  0000b	c3		 ret	 0
??0?$Singleton@VioAnnouncementManualMgr@@@@QAE@XZ ENDP	; Singleton<ioAnnouncementManualMgr>::Singleton<ioAnnouncementManualMgr>
_TEXT	ENDS
PUBLIC	??1?$Singleton@VioAnnouncementManualMgr@@@@QAE@XZ ; Singleton<ioAnnouncementManualMgr>::~Singleton<ioAnnouncementManualMgr>
; Function compile flags: /Ogsp
;	COMDAT ??1?$Singleton@VioAnnouncementManualMgr@@@@QAE@XZ
_TEXT	SEGMENT
??1?$Singleton@VioAnnouncementManualMgr@@@@QAE@XZ PROC	; Singleton<ioAnnouncementManualMgr>::~Singleton<ioAnnouncementManualMgr>, COMDAT
; _this$ = ecx

; 36   : 		assert( ms_Singleton );
; 37   : 		ms_Singleton = 0;

  00000	83 25 00 00 00
	00 00		 and	 DWORD PTR ?ms_Singleton@?$Singleton@VioAnnouncementManualMgr@@@@1PAVioAnnouncementManualMgr@@A, 0 ; Singleton<ioAnnouncementManualMgr>::ms_Singleton

; 38   : 	}

  00007	c3		 ret	 0
??1?$Singleton@VioAnnouncementManualMgr@@@@QAE@XZ ENDP	; Singleton<ioAnnouncementManualMgr>::~Singleton<ioAnnouncementManualMgr>
_TEXT	ENDS
PUBLIC	?GetSingleton@?$Singleton@VioAnnouncementManualMgr@@@@SAAAVioAnnouncementManualMgr@@XZ ; Singleton<ioAnnouncementManualMgr>::GetSingleton
; Function compile flags: /Ogsp
;	COMDAT ?GetSingleton@?$Singleton@VioAnnouncementManualMgr@@@@SAAAVioAnnouncementManualMgr@@XZ
_TEXT	SEGMENT
?GetSingleton@?$Singleton@VioAnnouncementManualMgr@@@@SAAAVioAnnouncementManualMgr@@XZ PROC ; Singleton<ioAnnouncementManualMgr>::GetSingleton, COMDAT

; 42   : 		assert( ms_Singleton );
; 43   : 		return (*ms_Singleton);

  00000	a1 00 00 00 00	 mov	 eax, DWORD PTR ?ms_Singleton@?$Singleton@VioAnnouncementManualMgr@@@@1PAVioAnnouncementManualMgr@@A ; Singleton<ioAnnouncementManualMgr>::ms_Singleton

; 44   : 	}

  00005	c3		 ret	 0
?GetSingleton@?$Singleton@VioAnnouncementManualMgr@@@@SAAAVioAnnouncementManualMgr@@XZ ENDP ; Singleton<ioAnnouncementManualMgr>::GetSingleton
_TEXT	ENDS
PUBLIC	?GetSingletonPtr@?$Singleton@VioAnnouncementManualMgr@@@@SAPAVioAnnouncementManualMgr@@XZ ; Singleton<ioAnnouncementManualMgr>::GetSingletonPtr
; Function compile flags: /Ogsp
;	COMDAT ?GetSingletonPtr@?$Singleton@VioAnnouncementManualMgr@@@@SAPAVioAnnouncementManualMgr@@XZ
_TEXT	SEGMENT
?GetSingletonPtr@?$Singleton@VioAnnouncementManualMgr@@@@SAPAVioAnnouncementManualMgr@@XZ PROC ; Singleton<ioAnnouncementManualMgr>::GetSingletonPtr, COMDAT

; 48   : 		return ( ms_Singleton );

  00000	a1 00 00 00 00	 mov	 eax, DWORD PTR ?ms_Singleton@?$Singleton@VioAnnouncementManualMgr@@@@1PAVioAnnouncementManualMgr@@A ; Singleton<ioAnnouncementManualMgr>::ms_Singleton

; 49   : 	}

  00005	c3		 ret	 0
?GetSingletonPtr@?$Singleton@VioAnnouncementManualMgr@@@@SAPAVioAnnouncementManualMgr@@XZ ENDP ; Singleton<ioAnnouncementManualMgr>::GetSingletonPtr
_TEXT	ENDS
PUBLIC	??_7ioAnnouncementManualMgr@@6B@		; ioAnnouncementManualMgr::`vftable'
PUBLIC	??0ioAnnouncementManualMgr@@QAE@XZ		; ioAnnouncementManualMgr::ioAnnouncementManualMgr
PUBLIC	??_R4ioAnnouncementManualMgr@@6B@		; ioAnnouncementManualMgr::`RTTI Complete Object Locator'
PUBLIC	??_R0?AVioAnnouncementManualMgr@@@8		; ioAnnouncementManualMgr `RTTI Type Descriptor'
PUBLIC	??_R3ioAnnouncementManualMgr@@8			; ioAnnouncementManualMgr::`RTTI Class Hierarchy Descriptor'
PUBLIC	??_R2ioAnnouncementManualMgr@@8			; ioAnnouncementManualMgr::`RTTI Base Class Array'
PUBLIC	??_R1A@?0A@EA@ioAnnouncementManualMgr@@8	; ioAnnouncementManualMgr::`RTTI Base Class Descriptor at (0,-1,0,64)'
PUBLIC	??_R1A@?0A@EA@ManualMgr@@8			; ManualMgr::`RTTI Base Class Descriptor at (0,-1,0,64)'
PUBLIC	??_R0?AVManualMgr@@@8				; ManualMgr `RTTI Type Descriptor'
PUBLIC	??_R3ManualMgr@@8				; ManualMgr::`RTTI Class Hierarchy Descriptor'
PUBLIC	??_R2ManualMgr@@8				; ManualMgr::`RTTI Base Class Array'
PUBLIC	??_R1CF@?0A@EA@?$Singleton@VioAnnouncementManualMgr@@@@8 ; Singleton<ioAnnouncementManualMgr>::`RTTI Base Class Descriptor at (37,-1,0,64)'
PUBLIC	??_R0?AV?$Singleton@VioAnnouncementManualMgr@@@@@8 ; Singleton<ioAnnouncementManualMgr> `RTTI Type Descriptor'
PUBLIC	??_R3?$Singleton@VioAnnouncementManualMgr@@@@8	; Singleton<ioAnnouncementManualMgr>::`RTTI Class Hierarchy Descriptor'
PUBLIC	??_R2?$Singleton@VioAnnouncementManualMgr@@@@8	; Singleton<ioAnnouncementManualMgr>::`RTTI Base Class Array'
PUBLIC	??_R1A@?0A@EA@?$Singleton@VioAnnouncementManualMgr@@@@8 ; Singleton<ioAnnouncementManualMgr>::`RTTI Base Class Descriptor at (0,-1,0,64)'
EXTRN	??0ManualMgr@@QAE@XZ:PROC			; ManualMgr::ManualMgr
EXTRN	??_7type_info@@6B@:QWORD			; type_info::`vftable'
EXTRN	?ClearList@ManualMgr@@MAEXXZ:PROC		; ManualMgr::ClearList
EXTRN	?LoadManual@ManualMgr@@UAEXPBD@Z:PROC		; ManualMgr::LoadManual
EXTRN	?GetMaxLine@ManualMgr@@UAE?BHH@Z:PROC		; ManualMgr::GetMaxLine
EXTRN	?GetSpaceLine@ManualMgr@@UAE?BHHH@Z:PROC	; ManualMgr::GetSpaceLine
EXTRN	?SetPrinter@ManualMgr@@UAEXHHMAAVioComplexStringPrinter@@@Z:PROC ; ManualMgr::SetPrinter
EXTRN	??_EioAnnouncementManualMgr@@UAEPAXI@Z:PROC	; ioAnnouncementManualMgr::`vector deleting destructor'
;	COMDAT ??_R1A@?0A@EA@?$Singleton@VioAnnouncementManualMgr@@@@8
rdata$r	SEGMENT
??_R1A@?0A@EA@?$Singleton@VioAnnouncementManualMgr@@@@8 DD FLAT:??_R0?AV?$Singleton@VioAnnouncementManualMgr@@@@@8 ; Singleton<ioAnnouncementManualMgr>::`RTTI Base Class Descriptor at (0,-1,0,64)'
	DD	00H
	DD	00H
	DD	0ffffffffH
	DD	00H
	DD	040H
	DD	FLAT:??_R3?$Singleton@VioAnnouncementManualMgr@@@@8
rdata$r	ENDS
;	COMDAT ??_R2?$Singleton@VioAnnouncementManualMgr@@@@8
rdata$r	SEGMENT
??_R2?$Singleton@VioAnnouncementManualMgr@@@@8 DD FLAT:??_R1A@?0A@EA@?$Singleton@VioAnnouncementManualMgr@@@@8 ; Singleton<ioAnnouncementManualMgr>::`RTTI Base Class Array'
rdata$r	ENDS
;	COMDAT ??_R3?$Singleton@VioAnnouncementManualMgr@@@@8
rdata$r	SEGMENT
??_R3?$Singleton@VioAnnouncementManualMgr@@@@8 DD 00H	; Singleton<ioAnnouncementManualMgr>::`RTTI Class Hierarchy Descriptor'
	DD	00H
	DD	01H
	DD	FLAT:??_R2?$Singleton@VioAnnouncementManualMgr@@@@8
rdata$r	ENDS
;	COMDAT ??_R0?AV?$Singleton@VioAnnouncementManualMgr@@@@@8
_DATA	SEGMENT
??_R0?AV?$Singleton@VioAnnouncementManualMgr@@@@@8 DD FLAT:??_7type_info@@6B@ ; Singleton<ioAnnouncementManualMgr> `RTTI Type Descriptor'
	DD	00H
	DB	'.?AV?$Singleton@VioAnnouncementManualMgr@@@@', 00H
_DATA	ENDS
;	COMDAT ??_R1CF@?0A@EA@?$Singleton@VioAnnouncementManualMgr@@@@8
rdata$r	SEGMENT
??_R1CF@?0A@EA@?$Singleton@VioAnnouncementManualMgr@@@@8 DD FLAT:??_R0?AV?$Singleton@VioAnnouncementManualMgr@@@@@8 ; Singleton<ioAnnouncementManualMgr>::`RTTI Base Class Descriptor at (37,-1,0,64)'
	DD	00H
	DD	025H
	DD	0ffffffffH
	DD	00H
	DD	040H
	DD	FLAT:??_R3?$Singleton@VioAnnouncementManualMgr@@@@8
rdata$r	ENDS
;	COMDAT ??_R2ManualMgr@@8
rdata$r	SEGMENT
??_R2ManualMgr@@8 DD FLAT:??_R1A@?0A@EA@ManualMgr@@8	; ManualMgr::`RTTI Base Class Array'
rdata$r	ENDS
;	COMDAT ??_R3ManualMgr@@8
rdata$r	SEGMENT
??_R3ManualMgr@@8 DD 00H				; ManualMgr::`RTTI Class Hierarchy Descriptor'
	DD	00H
	DD	01H
	DD	FLAT:??_R2ManualMgr@@8
rdata$r	ENDS
;	COMDAT ??_R0?AVManualMgr@@@8
_DATA	SEGMENT
??_R0?AVManualMgr@@@8 DD FLAT:??_7type_info@@6B@	; ManualMgr `RTTI Type Descriptor'
	DD	00H
	DB	'.?AVManualMgr@@', 00H
_DATA	ENDS
;	COMDAT ??_R1A@?0A@EA@ManualMgr@@8
rdata$r	SEGMENT
??_R1A@?0A@EA@ManualMgr@@8 DD FLAT:??_R0?AVManualMgr@@@8 ; ManualMgr::`RTTI Base Class Descriptor at (0,-1,0,64)'
	DD	00H
	DD	00H
	DD	0ffffffffH
	DD	00H
	DD	040H
	DD	FLAT:??_R3ManualMgr@@8
rdata$r	ENDS
;	COMDAT ??_R1A@?0A@EA@ioAnnouncementManualMgr@@8
rdata$r	SEGMENT
??_R1A@?0A@EA@ioAnnouncementManualMgr@@8 DD FLAT:??_R0?AVioAnnouncementManualMgr@@@8 ; ioAnnouncementManualMgr::`RTTI Base Class Descriptor at (0,-1,0,64)'
	DD	02H
	DD	00H
	DD	0ffffffffH
	DD	00H
	DD	040H
	DD	FLAT:??_R3ioAnnouncementManualMgr@@8
rdata$r	ENDS
;	COMDAT ??_R2ioAnnouncementManualMgr@@8
rdata$r	SEGMENT
??_R2ioAnnouncementManualMgr@@8 DD FLAT:??_R1A@?0A@EA@ioAnnouncementManualMgr@@8 ; ioAnnouncementManualMgr::`RTTI Base Class Array'
	DD	FLAT:??_R1A@?0A@EA@ManualMgr@@8
	DD	FLAT:??_R1CF@?0A@EA@?$Singleton@VioAnnouncementManualMgr@@@@8
rdata$r	ENDS
;	COMDAT ??_R3ioAnnouncementManualMgr@@8
rdata$r	SEGMENT
??_R3ioAnnouncementManualMgr@@8 DD 00H			; ioAnnouncementManualMgr::`RTTI Class Hierarchy Descriptor'
	DD	01H
	DD	03H
	DD	FLAT:??_R2ioAnnouncementManualMgr@@8
rdata$r	ENDS
;	COMDAT ??_R0?AVioAnnouncementManualMgr@@@8
_DATA	SEGMENT
??_R0?AVioAnnouncementManualMgr@@@8 DD FLAT:??_7type_info@@6B@ ; ioAnnouncementManualMgr `RTTI Type Descriptor'
	DD	00H
	DB	'.?AVioAnnouncementManualMgr@@', 00H
_DATA	ENDS
;	COMDAT ??_R4ioAnnouncementManualMgr@@6B@
rdata$r	SEGMENT
??_R4ioAnnouncementManualMgr@@6B@ DD 00H		; ioAnnouncementManualMgr::`RTTI Complete Object Locator'
	DD	00H
	DD	00H
	DD	FLAT:??_R0?AVioAnnouncementManualMgr@@@8
	DD	FLAT:??_R3ioAnnouncementManualMgr@@8
rdata$r	ENDS
;	COMDAT ??_7ioAnnouncementManualMgr@@6B@
CONST	SEGMENT
??_7ioAnnouncementManualMgr@@6B@ DD FLAT:??_R4ioAnnouncementManualMgr@@6B@ ; ioAnnouncementManualMgr::`vftable'
	DD	FLAT:?ClearList@ManualMgr@@MAEXXZ
	DD	FLAT:?LoadManual@ManualMgr@@UAEXPBD@Z
	DD	FLAT:?GetMaxLine@ManualMgr@@UAE?BHH@Z
	DD	FLAT:?GetSpaceLine@ManualMgr@@UAE?BHHH@Z
	DD	FLAT:?SetPrinter@ManualMgr@@UAEXHHMAAVioComplexStringPrinter@@@Z
	DD	FLAT:??_EioAnnouncementManualMgr@@UAEPAXI@Z
; Function compile flags: /Ogsp
; File d:\lost saga for developer\youtube\tutorial\source\src\lsclient\gui\announcementwnd.cpp
CONST	ENDS
;	COMDAT ??0ioAnnouncementManualMgr@@QAE@XZ
_TEXT	SEGMENT
??0ioAnnouncementManualMgr@@QAE@XZ PROC			; ioAnnouncementManualMgr::ioAnnouncementManualMgr, COMDAT
; _this$ = ecx

; 8    : {

  00000	56		 push	 esi
  00001	8b f1		 mov	 esi, ecx
  00003	e8 00 00 00 00	 call	 ??0ManualMgr@@QAE@XZ	; ManualMgr::ManualMgr
  00008	89 35 00 00 00
	00		 mov	 DWORD PTR ?ms_Singleton@?$Singleton@VioAnnouncementManualMgr@@@@1PAVioAnnouncementManualMgr@@A, esi ; Singleton<ioAnnouncementManualMgr>::ms_Singleton
  0000e	c7 06 00 00 00
	00		 mov	 DWORD PTR [esi], OFFSET ??_7ioAnnouncementManualMgr@@6B@

; 9    : 
; 10   : }

  00014	8b c6		 mov	 eax, esi
  00016	5e		 pop	 esi
  00017	c3		 ret	 0
??0ioAnnouncementManualMgr@@QAE@XZ ENDP			; ioAnnouncementManualMgr::ioAnnouncementManualMgr
_TEXT	ENDS
PUBLIC	??1ioAnnouncementManualMgr@@UAE@XZ		; ioAnnouncementManualMgr::~ioAnnouncementManualMgr
EXTRN	??1ManualMgr@@UAE@XZ:PROC			; ManualMgr::~ManualMgr
; Function compile flags: /Ogsp
;	COMDAT ??1ioAnnouncementManualMgr@@UAE@XZ
_TEXT	SEGMENT
??1ioAnnouncementManualMgr@@UAE@XZ PROC			; ioAnnouncementManualMgr::~ioAnnouncementManualMgr, COMDAT
; _this$ = ecx

; 13   : {

  00000	c7 01 00 00 00
	00		 mov	 DWORD PTR [ecx], OFFSET ??_7ioAnnouncementManualMgr@@6B@

; 14   : 
; 15   : }

  00006	83 25 00 00 00
	00 00		 and	 DWORD PTR ?ms_Singleton@?$Singleton@VioAnnouncementManualMgr@@@@1PAVioAnnouncementManualMgr@@A, 0 ; Singleton<ioAnnouncementManualMgr>::ms_Singleton
  0000d	e9 00 00 00 00	 jmp	 ??1ManualMgr@@UAE@XZ	; ManualMgr::~ManualMgr
??1ioAnnouncementManualMgr@@UAE@XZ ENDP			; ioAnnouncementManualMgr::~ioAnnouncementManualMgr
_TEXT	ENDS
PUBLIC	?GetSingleton@ioAnnouncementManualMgr@@SAAAV1@XZ ; ioAnnouncementManualMgr::GetSingleton
; Function compile flags: /Ogsp
;	COMDAT ?GetSingleton@ioAnnouncementManualMgr@@SAAAV1@XZ
_TEXT	SEGMENT
?GetSingleton@ioAnnouncementManualMgr@@SAAAV1@XZ PROC	; ioAnnouncementManualMgr::GetSingleton, COMDAT

; 19   : 	return Singleton< ioAnnouncementManualMgr >::GetSingleton();

  00000	a1 00 00 00 00	 mov	 eax, DWORD PTR ?ms_Singleton@?$Singleton@VioAnnouncementManualMgr@@@@1PAVioAnnouncementManualMgr@@A ; Singleton<ioAnnouncementManualMgr>::ms_Singleton

; 20   : }

  00005	c3		 ret	 0
?GetSingleton@ioAnnouncementManualMgr@@SAAAV1@XZ ENDP	; ioAnnouncementManualMgr::GetSingleton
_TEXT	ENDS
PUBLIC	?GetSingletonPtr@ioAnnouncementManualMgr@@SAPAV1@XZ ; ioAnnouncementManualMgr::GetSingletonPtr
; Function compile flags: /Ogsp
;	COMDAT ?GetSingletonPtr@ioAnnouncementManualMgr@@SAPAV1@XZ
_TEXT	SEGMENT
?GetSingletonPtr@ioAnnouncementManualMgr@@SAPAV1@XZ PROC ; ioAnnouncementManualMgr::GetSingletonPtr, COMDAT

; 24   : 	return Singleton< ioAnnouncementManualMgr >::GetSingletonPtr();

  00000	a1 00 00 00 00	 mov	 eax, DWORD PTR ?ms_Singleton@?$Singleton@VioAnnouncementManualMgr@@@@1PAVioAnnouncementManualMgr@@A ; Singleton<ioAnnouncementManualMgr>::ms_Singleton

; 25   : }

  00005	c3		 ret	 0
?GetSingletonPtr@ioAnnouncementManualMgr@@SAPAV1@XZ ENDP ; ioAnnouncementManualMgr::GetSingletonPtr
_TEXT	ENDS
EXTRN	??3@YAXPAX@Z:PROC				; operator delete
; Function compile flags: /Ogsp
;	COMDAT ??_GioAnnouncementManualMgr@@UAEPAXI@Z
_TEXT	SEGMENT
___flags$ = 8						; size = 4
??_GioAnnouncementManualMgr@@UAEPAXI@Z PROC		; ioAnnouncementManualMgr::`scalar deleting destructor', COMDAT
; _this$ = ecx
  00000	55		 push	 ebp
  00001	8b ec		 mov	 ebp, esp
  00003	56		 push	 esi
  00004	8b f1		 mov	 esi, ecx
  00006	e8 00 00 00 00	 call	 ??1ioAnnouncementManualMgr@@UAE@XZ ; ioAnnouncementManualMgr::~ioAnnouncementManualMgr
  0000b	f6 45 08 01	 test	 BYTE PTR ___flags$[ebp], 1
  0000f	74 07		 je	 SHORT $LN1@scalar
  00011	56		 push	 esi
  00012	e8 00 00 00 00	 call	 ??3@YAXPAX@Z		; operator delete
  00017	59		 pop	 ecx
$LN1@scalar:
  00018	8b c6		 mov	 eax, esi
  0001a	5e		 pop	 esi
  0001b	5d		 pop	 ebp
  0001c	c2 04 00	 ret	 4
??_GioAnnouncementManualMgr@@UAEPAXI@Z ENDP		; ioAnnouncementManualMgr::`scalar deleting destructor'
_TEXT	ENDS
END
