; Listing generated by Microsoft (R) Optimizing Compiler Version 16.00.30319.01 

	TITLE	D:\Lost Saga For Developer\Youtube\Tutorial\Source\src\LSClient\GUI\BingoHelpToolTip.cpp
	.686P
	.XMM
	include listing.inc
	.model	flat

INCLUDELIB MSVCRT
INCLUDELIB OLDNAMES

PUBLIC	??_7BingoHelpToolTip@@6B@			; BingoHelpToolTip::`vftable'
PUBLIC	??0BingoHelpToolTip@@QAE@XZ			; BingoHelpToolTip::BingoHelpToolTip
PUBLIC	??_R4BingoHelpToolTip@@6B@			; BingoHelpToolTip::`RTTI Complete Object Locator'
PUBLIC	??_R0?AVBingoHelpToolTip@@@8			; BingoHelpToolTip `RTTI Type Descriptor'
PUBLIC	??_R3BingoHelpToolTip@@8			; BingoHelpToolTip::`RTTI Class Hierarchy Descriptor'
PUBLIC	??_R2BingoHelpToolTip@@8			; BingoHelpToolTip::`RTTI Base Class Array'
PUBLIC	??_R1A@?0A@EA@BingoHelpToolTip@@8		; BingoHelpToolTip::`RTTI Base Class Descriptor at (0,-1,0,64)'
PUBLIC	??_R1A@?0A@EA@ioWnd@@8				; ioWnd::`RTTI Base Class Descriptor at (0,-1,0,64)'
PUBLIC	??_R0?AVioWnd@@@8				; ioWnd `RTTI Type Descriptor'
PUBLIC	??_R3ioWnd@@8					; ioWnd::`RTTI Class Hierarchy Descriptor'
PUBLIC	??_R2ioWnd@@8					; ioWnd::`RTTI Base Class Array'
PUBLIC	?OnRender@BingoHelpToolTip@@MAEXXZ		; BingoHelpToolTip::OnRender
PUBLIC	?OnProcess@BingoHelpToolTip@@MAEXM@Z		; BingoHelpToolTip::OnProcess
PUBLIC	?iwm_show@BingoHelpToolTip@@UAEXXZ		; BingoHelpToolTip::iwm_show
PUBLIC	?iwm_hide@BingoHelpToolTip@@UAEXXZ		; BingoHelpToolTip::iwm_hide
EXTRN	__imp_??0ioWnd@@QAE@XZ:PROC
EXTRN	??_7type_info@@6B@:QWORD			; type_info::`vftable'
EXTRN	?AddRenderFrame@ioWnd@@UAEXABVioHashString@@PAVioUIRenderFrame@@@Z:PROC ; ioWnd::AddRenderFrame
EXTRN	?AddRenderImage@ioWnd@@UAEXABVioHashString@@PAVioUIRenderImage@@@Z:PROC ; ioWnd::AddRenderImage
EXTRN	?AddTooltipHelp@ioWnd@@UAEXABVioHashString@@00@Z:PROC ; ioWnd::AddTooltipHelp
EXTRN	?ParseExtraInfo@ioWnd@@UAEXAAVioXMLElement@@@Z:PROC ; ioWnd::ParseExtraInfo
EXTRN	?AddNamedRenderImage@ioWnd@@UAEXABVioHashString@@PAVioUIRenderImage@@@Z:PROC ; ioWnd::AddNamedRenderImage
EXTRN	?RemoveNamedRenderImage@ioWnd@@UAEXABVioHashString@@@Z:PROC ; ioWnd::RemoveNamedRenderImage
EXTRN	?GetNamedRenderImage@ioWnd@@UBEPAVioUIRenderImage@@ABVioHashString@@@Z:PROC ; ioWnd::GetNamedRenderImage
EXTRN	?SetWindowAlpha@ioWnd@@UAEXH@Z:PROC		; ioWnd::SetWindowAlpha
EXTRN	?SetActive@ioWnd@@UAEXXZ:PROC			; ioWnd::SetActive
EXTRN	?SetInActive@ioWnd@@UAEXXZ:PROC			; ioWnd::SetInActive
EXTRN	?ClearElementImageList@ioWnd@@UAEXXZ:PROC	; ioWnd::ClearElementImageList
EXTRN	?SetSize@ioWnd@@UAEXHH@Z:PROC			; ioWnd::SetSize
EXTRN	?SetPositionToDefault@ioWnd@@UAEXHH_N0@Z:PROC	; ioWnd::SetPositionToDefault
EXTRN	?IsNeedProcess@ioWnd@@UBE_NXZ:PROC		; ioWnd::IsNeedProcess
EXTRN	?IsCanMouseReaction@ioWnd@@UBE_NXZ:PROC		; ioWnd::IsCanMouseReaction
EXTRN	?AddChild@ioWnd@@UAEXPAV1@@Z:PROC		; ioWnd::AddChild
EXTRN	?DeleteChild@ioWnd@@UAEXK@Z:PROC		; ioWnd::DeleteChild
EXTRN	?DeleteAllChild@ioWnd@@UAEXXZ:PROC		; ioWnd::DeleteAllChild
EXTRN	?OnRenderShowAndHide@ioWnd@@MAE_NXZ:PROC	; ioWnd::OnRenderShowAndHide
EXTRN	?OnRenderShowAndHideByDefault@ioWnd@@MAE_NK@Z:PROC ; ioWnd::OnRenderShowAndHideByDefault
EXTRN	?OnRenderShowAndHideByTop@ioWnd@@MAE_NK@Z:PROC	; ioWnd::OnRenderShowAndHideByTop
EXTRN	?OnRenderShowAndHideByDown@ioWnd@@MAE_NK@Z:PROC	; ioWnd::OnRenderShowAndHideByDown
EXTRN	?OnRenderAfterChild@ioWnd@@MAEXXZ:PROC		; ioWnd::OnRenderAfterChild
EXTRN	?OnMouseProcess@ioWnd@@MAEXABVioMouse@@@Z:PROC	; ioWnd::OnMouseProcess
EXTRN	?CheckFrameReSize@ioWnd@@MAEXHHHH@Z:PROC	; ioWnd::CheckFrameReSize
EXTRN	?RenderImageList@ioWnd@@MAEXHHW4UIRenderType@@@Z:PROC ; ioWnd::RenderImageList
EXTRN	?iwm_create@ioWnd@@UAEXXZ:PROC			; ioWnd::iwm_create
EXTRN	?iwm_destroy@ioWnd@@UAEXXZ:PROC			; ioWnd::iwm_destroy
EXTRN	?iwm_lbuttondown@ioWnd@@UAEXABVioMouse@@@Z:PROC	; ioWnd::iwm_lbuttondown
EXTRN	?iwm_lbuttonup@ioWnd@@UAEXABVioMouse@@@Z:PROC	; ioWnd::iwm_lbuttonup
EXTRN	?iwm_lbuttonDBLCLK@ioWnd@@UAEXABVioMouse@@@Z:PROC ; ioWnd::iwm_lbuttonDBLCLK
EXTRN	?iwm_rbuttondown@ioWnd@@UAEXABVioMouse@@@Z:PROC	; ioWnd::iwm_rbuttondown
EXTRN	?iwm_rbuttonup@ioWnd@@UAEXABVioMouse@@@Z:PROC	; ioWnd::iwm_rbuttonup
EXTRN	?iwm_command@ioWnd@@UAEXPAV1@HK@Z:PROC		; ioWnd::iwm_command
EXTRN	?iwm_mouseover@ioWnd@@UAEXABVioMouse@@@Z:PROC	; ioWnd::iwm_mouseover
EXTRN	?iwm_mousemove@ioWnd@@UAEXABVioMouse@@@Z:PROC	; ioWnd::iwm_mousemove
EXTRN	?iwm_mouseleave@ioWnd@@UAEXABVioMouse@@@Z:PROC	; ioWnd::iwm_mouseleave
EXTRN	?iwm_vscroll@ioWnd@@UAEXKH@Z:PROC		; ioWnd::iwm_vscroll
EXTRN	?iwm_wheel@ioWnd@@UAEXH@Z:PROC			; ioWnd::iwm_wheel
EXTRN	?iwm_esc@ioWnd@@UAE_NXZ:PROC			; ioWnd::iwm_esc
EXTRN	?iwm_spacebar@ioWnd@@UAE_NXZ:PROC		; ioWnd::iwm_spacebar
EXTRN	?iwm_gototop@ioWnd@@UAEXXZ:PROC			; ioWnd::iwm_gototop
EXTRN	?iwm_dragenter@ioWnd@@UAE?AW4IWDropEffect@@PAVioDragItem@@ABVioMouse@@@Z:PROC ; ioWnd::iwm_dragenter
EXTRN	?iwm_dragover@ioWnd@@UAE?AW4IWDropEffect@@PAVioDragItem@@ABVioMouse@@@Z:PROC ; ioWnd::iwm_dragover
EXTRN	?iwm_dragleave@ioWnd@@UAEXXZ:PROC		; ioWnd::iwm_dragleave
EXTRN	?iwm_dropitem@ioWnd@@UAE_NPAVioDragItem@@ABVioMouse@@PAV1@@Z:PROC ; ioWnd::iwm_dropitem
EXTRN	?iwm_dropdone@ioWnd@@UAEXPAVioDragItem@@PAV1@_N@Z:PROC ; ioWnd::iwm_dropdone
EXTRN	?IsEXType@ioWnd@@UBE_NXZ:PROC			; ioWnd::IsEXType
EXTRN	?GetWndType@ioWnd@@UBEKXZ:PROC			; ioWnd::GetWndType
EXTRN	?RenderWnd@ioWnd@@UAEXXZ:PROC			; ioWnd::RenderWnd
EXTRN	?SetIDEX@ioWnd@@UAEXAAK_N@Z:PROC		; ioWnd::SetIDEX
EXTRN	?ParseXML@ioWnd@@UAEXAAVioXMLElement@@@Z:PROC	; ioWnd::ParseXML
EXTRN	?GetHeaderFileName@ioWnd@@UAEPBDXZ:PROC		; ioWnd::GetHeaderFileName
EXTRN	?GetTemplateName@ioWnd@@UAEPBDXZ:PROC		; ioWnd::GetTemplateName
EXTRN	?GetDefClassName@ioWnd@@UBEPBDXZ:PROC		; ioWnd::GetDefClassName
EXTRN	?_Clone@ioWnd@@UAEPAV1@XZ:PROC			; ioWnd::_Clone
EXTRN	?Copy@ioWnd@@UAEXPAV1@@Z:PROC			; ioWnd::Copy
EXTRN	?Save@ioWnd@@UAE_NAAVioXMLElement@@@Z:PROC	; ioWnd::Save
EXTRN	?SetSaveData@ioWnd@@UAEXAAVioXMLElement@@@Z:PROC ; ioWnd::SetSaveData
EXTRN	?SetPosX@ioWnd@@UAEXH@Z:PROC			; ioWnd::SetPosX
EXTRN	?SetPosY@ioWnd@@UAEXH@Z:PROC			; ioWnd::SetPosY
EXTRN	?SetWidth@ioWnd@@UAEXH@Z:PROC			; ioWnd::SetWidth
EXTRN	?SetHeight@ioWnd@@UAEXH@Z:PROC			; ioWnd::SetHeight
EXTRN	?GetNumFixedRenderFrame@ioWnd@@UBEHXZ:PROC	; ioWnd::GetNumFixedRenderFrame
EXTRN	?GetFixedRenderFrameType@ioWnd@@UAEPBDH@Z:PROC	; ioWnd::GetFixedRenderFrameType
EXTRN	?GetRenderFrame@ioWnd@@UAEPAPAVioUIRenderElement@@PBD@Z:PROC ; ioWnd::GetRenderFrame
EXTRN	?GetNumFixedRenderImage@ioWnd@@UBEHXZ:PROC	; ioWnd::GetNumFixedRenderImage
EXTRN	?GetFixedRenderImageType@ioWnd@@UAEPBDH@Z:PROC	; ioWnd::GetFixedRenderImageType
EXTRN	?GetRenderImage@ioWnd@@UAEPAPAVioUIRenderElement@@PBD@Z:PROC ; ioWnd::GetRenderImage
EXTRN	?AddEffect@ioWnd@@UAEXABVioHashString@@PAVioUI3DEffectRender@@@Z:PROC ; ioWnd::AddEffect
EXTRN	?GetEffect@ioWnd@@UAEPAVioUI3DEffectRender@@VioHashString@@@Z:PROC ; ioWnd::GetEffect
EXTRN	??_EBingoHelpToolTip@@UAEPAXI@Z:PROC		; BingoHelpToolTip::`vector deleting destructor'
;	COMDAT ??_R2ioWnd@@8
; File d:\lost saga for developer\youtube\tutorial\source\src\lsclient\gui\bingohelptooltip.cpp
rdata$r	SEGMENT
??_R2ioWnd@@8 DD FLAT:??_R1A@?0A@EA@ioWnd@@8		; ioWnd::`RTTI Base Class Array'
rdata$r	ENDS
;	COMDAT ??_R3ioWnd@@8
rdata$r	SEGMENT
??_R3ioWnd@@8 DD 00H					; ioWnd::`RTTI Class Hierarchy Descriptor'
	DD	00H
	DD	01H
	DD	FLAT:??_R2ioWnd@@8
rdata$r	ENDS
;	COMDAT ??_R0?AVioWnd@@@8
_DATA	SEGMENT
??_R0?AVioWnd@@@8 DD FLAT:??_7type_info@@6B@		; ioWnd `RTTI Type Descriptor'
	DD	00H
	DB	'.?AVioWnd@@', 00H
_DATA	ENDS
;	COMDAT ??_R1A@?0A@EA@ioWnd@@8
rdata$r	SEGMENT
??_R1A@?0A@EA@ioWnd@@8 DD FLAT:??_R0?AVioWnd@@@8	; ioWnd::`RTTI Base Class Descriptor at (0,-1,0,64)'
	DD	00H
	DD	00H
	DD	0ffffffffH
	DD	00H
	DD	040H
	DD	FLAT:??_R3ioWnd@@8
rdata$r	ENDS
;	COMDAT ??_R1A@?0A@EA@BingoHelpToolTip@@8
rdata$r	SEGMENT
??_R1A@?0A@EA@BingoHelpToolTip@@8 DD FLAT:??_R0?AVBingoHelpToolTip@@@8 ; BingoHelpToolTip::`RTTI Base Class Descriptor at (0,-1,0,64)'
	DD	01H
	DD	00H
	DD	0ffffffffH
	DD	00H
	DD	040H
	DD	FLAT:??_R3BingoHelpToolTip@@8
rdata$r	ENDS
;	COMDAT ??_R2BingoHelpToolTip@@8
rdata$r	SEGMENT
??_R2BingoHelpToolTip@@8 DD FLAT:??_R1A@?0A@EA@BingoHelpToolTip@@8 ; BingoHelpToolTip::`RTTI Base Class Array'
	DD	FLAT:??_R1A@?0A@EA@ioWnd@@8
rdata$r	ENDS
;	COMDAT ??_R3BingoHelpToolTip@@8
rdata$r	SEGMENT
??_R3BingoHelpToolTip@@8 DD 00H				; BingoHelpToolTip::`RTTI Class Hierarchy Descriptor'
	DD	00H
	DD	02H
	DD	FLAT:??_R2BingoHelpToolTip@@8
rdata$r	ENDS
;	COMDAT ??_R0?AVBingoHelpToolTip@@@8
_DATA	SEGMENT
??_R0?AVBingoHelpToolTip@@@8 DD FLAT:??_7type_info@@6B@	; BingoHelpToolTip `RTTI Type Descriptor'
	DD	00H
	DB	'.?AVBingoHelpToolTip@@', 00H
_DATA	ENDS
;	COMDAT ??_R4BingoHelpToolTip@@6B@
rdata$r	SEGMENT
??_R4BingoHelpToolTip@@6B@ DD 00H			; BingoHelpToolTip::`RTTI Complete Object Locator'
	DD	00H
	DD	00H
	DD	FLAT:??_R0?AVBingoHelpToolTip@@@8
	DD	FLAT:??_R3BingoHelpToolTip@@8
rdata$r	ENDS
;	COMDAT ??_7BingoHelpToolTip@@6B@
CONST	SEGMENT
??_7BingoHelpToolTip@@6B@ DD FLAT:??_R4BingoHelpToolTip@@6B@ ; BingoHelpToolTip::`vftable'
	DD	FLAT:?AddRenderFrame@ioWnd@@UAEXABVioHashString@@PAVioUIRenderFrame@@@Z
	DD	FLAT:?AddRenderImage@ioWnd@@UAEXABVioHashString@@PAVioUIRenderImage@@@Z
	DD	FLAT:?AddTooltipHelp@ioWnd@@UAEXABVioHashString@@00@Z
	DD	FLAT:?ParseExtraInfo@ioWnd@@UAEXAAVioXMLElement@@@Z
	DD	FLAT:?AddNamedRenderImage@ioWnd@@UAEXABVioHashString@@PAVioUIRenderImage@@@Z
	DD	FLAT:?RemoveNamedRenderImage@ioWnd@@UAEXABVioHashString@@@Z
	DD	FLAT:?GetNamedRenderImage@ioWnd@@UBEPAVioUIRenderImage@@ABVioHashString@@@Z
	DD	FLAT:?SetWindowAlpha@ioWnd@@UAEXH@Z
	DD	FLAT:?SetActive@ioWnd@@UAEXXZ
	DD	FLAT:?SetInActive@ioWnd@@UAEXXZ
	DD	FLAT:?ClearElementImageList@ioWnd@@UAEXXZ
	DD	FLAT:?SetSize@ioWnd@@UAEXHH@Z
	DD	FLAT:?SetPositionToDefault@ioWnd@@UAEXHH_N0@Z
	DD	FLAT:?IsNeedProcess@ioWnd@@UBE_NXZ
	DD	FLAT:?IsCanMouseReaction@ioWnd@@UBE_NXZ
	DD	FLAT:?AddChild@ioWnd@@UAEXPAV1@@Z
	DD	FLAT:?DeleteChild@ioWnd@@UAEXK@Z
	DD	FLAT:?DeleteAllChild@ioWnd@@UAEXXZ
	DD	FLAT:?OnRenderShowAndHide@ioWnd@@MAE_NXZ
	DD	FLAT:?OnRenderShowAndHideByDefault@ioWnd@@MAE_NK@Z
	DD	FLAT:?OnRenderShowAndHideByTop@ioWnd@@MAE_NK@Z
	DD	FLAT:?OnRenderShowAndHideByDown@ioWnd@@MAE_NK@Z
	DD	FLAT:?OnRender@BingoHelpToolTip@@MAEXXZ
	DD	FLAT:?OnRenderAfterChild@ioWnd@@MAEXXZ
	DD	FLAT:?OnProcess@BingoHelpToolTip@@MAEXM@Z
	DD	FLAT:?OnMouseProcess@ioWnd@@MAEXABVioMouse@@@Z
	DD	FLAT:?CheckFrameReSize@ioWnd@@MAEXHHHH@Z
	DD	FLAT:?RenderImageList@ioWnd@@MAEXHHW4UIRenderType@@@Z
	DD	FLAT:?iwm_create@ioWnd@@UAEXXZ
	DD	FLAT:?iwm_destroy@ioWnd@@UAEXXZ
	DD	FLAT:?iwm_lbuttondown@ioWnd@@UAEXABVioMouse@@@Z
	DD	FLAT:?iwm_lbuttonup@ioWnd@@UAEXABVioMouse@@@Z
	DD	FLAT:?iwm_lbuttonDBLCLK@ioWnd@@UAEXABVioMouse@@@Z
	DD	FLAT:?iwm_rbuttondown@ioWnd@@UAEXABVioMouse@@@Z
	DD	FLAT:?iwm_rbuttonup@ioWnd@@UAEXABVioMouse@@@Z
	DD	FLAT:?iwm_command@ioWnd@@UAEXPAV1@HK@Z
	DD	FLAT:?iwm_mouseover@ioWnd@@UAEXABVioMouse@@@Z
	DD	FLAT:?iwm_mousemove@ioWnd@@UAEXABVioMouse@@@Z
	DD	FLAT:?iwm_mouseleave@ioWnd@@UAEXABVioMouse@@@Z
	DD	FLAT:?iwm_vscroll@ioWnd@@UAEXKH@Z
	DD	FLAT:?iwm_wheel@ioWnd@@UAEXH@Z
	DD	FLAT:?iwm_show@BingoHelpToolTip@@UAEXXZ
	DD	FLAT:?iwm_hide@BingoHelpToolTip@@UAEXXZ
	DD	FLAT:?iwm_esc@ioWnd@@UAE_NXZ
	DD	FLAT:?iwm_spacebar@ioWnd@@UAE_NXZ
	DD	FLAT:?iwm_gototop@ioWnd@@UAEXXZ
	DD	FLAT:?iwm_dragenter@ioWnd@@UAE?AW4IWDropEffect@@PAVioDragItem@@ABVioMouse@@@Z
	DD	FLAT:?iwm_dragover@ioWnd@@UAE?AW4IWDropEffect@@PAVioDragItem@@ABVioMouse@@@Z
	DD	FLAT:?iwm_dragleave@ioWnd@@UAEXXZ
	DD	FLAT:?iwm_dropitem@ioWnd@@UAE_NPAVioDragItem@@ABVioMouse@@PAV1@@Z
	DD	FLAT:?iwm_dropdone@ioWnd@@UAEXPAVioDragItem@@PAV1@_N@Z
	DD	FLAT:?IsEXType@ioWnd@@UBE_NXZ
	DD	FLAT:?GetWndType@ioWnd@@UBEKXZ
	DD	FLAT:?RenderWnd@ioWnd@@UAEXXZ
	DD	FLAT:?SetIDEX@ioWnd@@UAEXAAK_N@Z
	DD	FLAT:?ParseXML@ioWnd@@UAEXAAVioXMLElement@@@Z
	DD	FLAT:?GetHeaderFileName@ioWnd@@UAEPBDXZ
	DD	FLAT:?GetTemplateName@ioWnd@@UAEPBDXZ
	DD	FLAT:?GetDefClassName@ioWnd@@UBEPBDXZ
	DD	FLAT:?_Clone@ioWnd@@UAEPAV1@XZ
	DD	FLAT:?Copy@ioWnd@@UAEXPAV1@@Z
	DD	FLAT:?Save@ioWnd@@UAE_NAAVioXMLElement@@@Z
	DD	FLAT:?SetSaveData@ioWnd@@UAEXAAVioXMLElement@@@Z
	DD	FLAT:?SetPosX@ioWnd@@UAEXH@Z
	DD	FLAT:?SetPosY@ioWnd@@UAEXH@Z
	DD	FLAT:?SetWidth@ioWnd@@UAEXH@Z
	DD	FLAT:?SetHeight@ioWnd@@UAEXH@Z
	DD	FLAT:?GetNumFixedRenderFrame@ioWnd@@UBEHXZ
	DD	FLAT:?GetFixedRenderFrameType@ioWnd@@UAEPBDH@Z
	DD	FLAT:?GetRenderFrame@ioWnd@@UAEPAPAVioUIRenderElement@@PBD@Z
	DD	FLAT:?GetNumFixedRenderImage@ioWnd@@UBEHXZ
	DD	FLAT:?GetFixedRenderImageType@ioWnd@@UAEPBDH@Z
	DD	FLAT:?GetRenderImage@ioWnd@@UAEPAPAVioUIRenderElement@@PBD@Z
	DD	FLAT:?AddEffect@ioWnd@@UAEXABVioHashString@@PAVioUI3DEffectRender@@@Z
	DD	FLAT:?GetEffect@ioWnd@@UAEPAVioUI3DEffectRender@@VioHashString@@@Z
	DD	FLAT:??_EBingoHelpToolTip@@UAEPAXI@Z
; Function compile flags: /Ogsp
CONST	ENDS
;	COMDAT ??0BingoHelpToolTip@@QAE@XZ
_TEXT	SEGMENT
??0BingoHelpToolTip@@QAE@XZ PROC			; BingoHelpToolTip::BingoHelpToolTip, COMDAT
; _this$ = ecx

; 8    : {

  00000	56		 push	 esi
  00001	8b f1		 mov	 esi, ecx
  00003	ff 15 00 00 00
	00		 call	 DWORD PTR __imp_??0ioWnd@@QAE@XZ

; 9    : 	m_dwParentID = 0;

  00009	83 a6 60 01 00
	00 00		 and	 DWORD PTR [esi+352], 0
  00010	c7 06 00 00 00
	00		 mov	 DWORD PTR [esi], OFFSET ??_7BingoHelpToolTip@@6B@

; 10   : }

  00016	8b c6		 mov	 eax, esi
  00018	5e		 pop	 esi
  00019	c3		 ret	 0
??0BingoHelpToolTip@@QAE@XZ ENDP			; BingoHelpToolTip::BingoHelpToolTip
_TEXT	ENDS
PUBLIC	??1BingoHelpToolTip@@UAE@XZ			; BingoHelpToolTip::~BingoHelpToolTip
EXTRN	__imp_??1ioWnd@@UAE@XZ:PROC
; Function compile flags: /Ogsp
;	COMDAT ??1BingoHelpToolTip@@UAE@XZ
_TEXT	SEGMENT
??1BingoHelpToolTip@@UAE@XZ PROC			; BingoHelpToolTip::~BingoHelpToolTip, COMDAT
; _this$ = ecx

; 13   : {

  00000	c7 01 00 00 00
	00		 mov	 DWORD PTR [ecx], OFFSET ??_7BingoHelpToolTip@@6B@

; 14   : 
; 15   : }

  00006	ff 25 00 00 00
	00		 jmp	 DWORD PTR __imp_??1ioWnd@@UAE@XZ
??1BingoHelpToolTip@@UAE@XZ ENDP			; BingoHelpToolTip::~BingoHelpToolTip
; Function compile flags: /Ogsp
_TEXT	ENDS
;	COMDAT ?iwm_show@BingoHelpToolTip@@UAEXXZ
_TEXT	SEGMENT
?iwm_show@BingoHelpToolTip@@UAEXXZ PROC			; BingoHelpToolTip::iwm_show, COMDAT
; _this$ = ecx

; 19   : }

  00000	c3		 ret	 0
?iwm_show@BingoHelpToolTip@@UAEXXZ ENDP			; BingoHelpToolTip::iwm_show
; Function compile flags: /Ogsp
_TEXT	ENDS
;	COMDAT ?iwm_hide@BingoHelpToolTip@@UAEXXZ
_TEXT	SEGMENT
?iwm_hide@BingoHelpToolTip@@UAEXXZ PROC			; BingoHelpToolTip::iwm_hide, COMDAT
; _this$ = ecx

; 23   : 	m_dwParentID = 0;

  00000	83 a1 60 01 00
	00 00		 and	 DWORD PTR [ecx+352], 0

; 24   : }

  00007	c3		 ret	 0
?iwm_hide@BingoHelpToolTip@@UAEXXZ ENDP			; BingoHelpToolTip::iwm_hide
_TEXT	ENDS
PUBLIC	?SetInfo@BingoHelpToolTip@@QAEXK@Z		; BingoHelpToolTip::SetInfo
EXTRN	__imp_?ShowWnd@ioWnd@@QAEXXZ:PROC
EXTRN	__imp_?IsShow@ioWnd@@QBE_NXZ:PROC
; Function compile flags: /Ogsp
;	COMDAT ?SetInfo@BingoHelpToolTip@@QAEXK@Z
_TEXT	SEGMENT
_dwParentID$ = 8					; size = 4
?SetInfo@BingoHelpToolTip@@QAEXK@Z PROC			; BingoHelpToolTip::SetInfo, COMDAT
; _this$ = ecx

; 144  : {

  00000	55		 push	 ebp
  00001	8b ec		 mov	 ebp, esp
  00003	56		 push	 esi
  00004	8b f1		 mov	 esi, ecx

; 145  : 	if( !IsShow() )

  00006	ff 15 00 00 00
	00		 call	 DWORD PTR __imp_?IsShow@ioWnd@@QBE_NXZ
  0000c	84 c0		 test	 al, al
  0000e	75 08		 jne	 SHORT $LN1@SetInfo

; 146  : 		ShowWnd();

  00010	8b ce		 mov	 ecx, esi
  00012	ff 15 00 00 00
	00		 call	 DWORD PTR __imp_?ShowWnd@ioWnd@@QAEXXZ
$LN1@SetInfo:

; 147  : 
; 148  : 	m_dwParentID = dwParentID;

  00018	8b 45 08	 mov	 eax, DWORD PTR _dwParentID$[ebp]
  0001b	89 86 60 01 00
	00		 mov	 DWORD PTR [esi+352], eax
  00021	5e		 pop	 esi

; 149  : }

  00022	5d		 pop	 ebp
  00023	c2 04 00	 ret	 4
?SetInfo@BingoHelpToolTip@@QAEXK@Z ENDP			; BingoHelpToolTip::SetInfo
_TEXT	ENDS
PUBLIC	?GetFullWidth@ioComplexStringPrinter@@QBEMXZ	; ioComplexStringPrinter::GetFullWidth
EXTRN	__fltused:DWORD
; Function compile flags: /Ogsp
; File d:\lost saga for developer\youtube\tutorial\source\src\lsclient\iocomplexstringprinter.h
;	COMDAT ?GetFullWidth@ioComplexStringPrinter@@QBEMXZ
_TEXT	SEGMENT
?GetFullWidth@ioComplexStringPrinter@@QBEMXZ PROC	; ioComplexStringPrinter::GetFullWidth, COMDAT
; _this$ = ecx

; 125  : 	inline float GetFullWidth() const { return m_fFullWidth; }

  00000	d9 41 1c	 fld	 DWORD PTR [ecx+28]
  00003	c3		 ret	 0
?GetFullWidth@ioComplexStringPrinter@@QBEMXZ ENDP	; ioComplexStringPrinter::GetFullWidth
_TEXT	ENDS
PUBLIC	?GetMouse@ioApplication@@QAEPAVioLSMouse@@XZ	; ioApplication::GetMouse
; Function compile flags: /Ogsp
; File d:\lost saga for developer\youtube\tutorial\source\src\lsclient\ioapplication.h
;	COMDAT ?GetMouse@ioApplication@@QAEPAVioLSMouse@@XZ
_TEXT	SEGMENT
?GetMouse@ioApplication@@QAEPAVioLSMouse@@XZ PROC	; ioApplication::GetMouse, COMDAT
; _this$ = ecx

; 796  : 	inline ioLSMouse* GetMouse(){ return &m_Mouse;	}

  00000	8d 81 90 00 00
	00		 lea	 eax, DWORD PTR [ecx+144]
  00006	c3		 ret	 0
?GetMouse@ioApplication@@QAEPAVioLSMouse@@XZ ENDP	; ioApplication::GetMouse
_TEXT	ENDS
EXTRN	??3@YAXPAX@Z:PROC				; operator delete
; Function compile flags: /Ogsp
;	COMDAT ??_GBingoHelpToolTip@@UAEPAXI@Z
_TEXT	SEGMENT
___flags$ = 8						; size = 4
??_GBingoHelpToolTip@@UAEPAXI@Z PROC			; BingoHelpToolTip::`scalar deleting destructor', COMDAT
; _this$ = ecx
  00000	55		 push	 ebp
  00001	8b ec		 mov	 ebp, esp
  00003	56		 push	 esi
  00004	8b f1		 mov	 esi, ecx
  00006	e8 00 00 00 00	 call	 ??1BingoHelpToolTip@@UAE@XZ ; BingoHelpToolTip::~BingoHelpToolTip
  0000b	f6 45 08 01	 test	 BYTE PTR ___flags$[ebp], 1
  0000f	74 07		 je	 SHORT $LN1@scalar
  00011	56		 push	 esi
  00012	e8 00 00 00 00	 call	 ??3@YAXPAX@Z		; operator delete
  00017	59		 pop	 ecx
$LN1@scalar:
  00018	8b c6		 mov	 eax, esi
  0001a	5e		 pop	 esi
  0001b	5d		 pop	 ebp
  0001c	c2 04 00	 ret	 4
??_GBingoHelpToolTip@@UAEPAXI@Z ENDP			; BingoHelpToolTip::`scalar deleting destructor'
_TEXT	ENDS
EXTRN	__imp_?SetScreenWndPos@ioWnd@@QAEXHH@Z:PROC
EXTRN	?Height@Setting@@SAHXZ:PROC			; Setting::Height
EXTRN	__imp_?GetHeight@ioWnd@@QBEHXZ:PROC
EXTRN	?Width@Setting@@SAHXZ:PROC			; Setting::Width
EXTRN	__imp_?GetWidth@ioWnd@@QBEHXZ:PROC
EXTRN	__imp_?GetMousePos@ioMouse@@QBEABUtagPOINT@@XZ:PROC
EXTRN	?SetToolTipCursor@ioLSMouse@@QAEXXZ:PROC	; ioLSMouse::SetToolTipCursor
EXTRN	?GetSingleton@ioApplication@@SAAAV1@XZ:PROC	; ioApplication::GetSingleton
; Function compile flags: /Ogsp
; File d:\lost saga for developer\youtube\tutorial\source\src\lsclient\gui\bingohelptooltip.cpp
;	COMDAT ?OnProcess@BingoHelpToolTip@@MAEXM@Z
_TEXT	SEGMENT
_iXPos$ = -8						; size = 4
_this$ = -4						; size = 4
_fTimePerSec$ = 8					; size = 4
?OnProcess@BingoHelpToolTip@@MAEXM@Z PROC		; BingoHelpToolTip::OnProcess, COMDAT
; _this$ = ecx

; 27   : {

  00000	55		 push	 ebp
  00001	8b ec		 mov	 ebp, esp
  00003	51		 push	 ecx
  00004	51		 push	 ecx
  00005	89 4d fc	 mov	 DWORD PTR _this$[ebp], ecx

; 28   : 	if( !IsShow() )

  00008	ff 15 00 00 00
	00		 call	 DWORD PTR __imp_?IsShow@ioWnd@@QBE_NXZ
  0000e	84 c0		 test	 al, al
  00010	0f 84 8c 00 00
	00		 je	 $LN5@OnProcess

; 29   : 		return;
; 30   : 
; 31   : 	ioLSMouse *pMouse = g_App.GetMouse();

  00016	56		 push	 esi
  00017	e8 00 00 00 00	 call	 ?GetSingleton@ioApplication@@SAAAV1@XZ ; ioApplication::GetSingleton
  0001c	8b f0		 mov	 esi, eax
  0001e	81 c6 90 00 00
	00		 add	 esi, 144		; 00000090H

; 32   : 	if( !pMouse )

  00024	74 7b		 je	 SHORT $LN10@OnProcess

; 33   : 		return;
; 34   : 
; 35   : 	pMouse->SetToolTipCursor();

  00026	53		 push	 ebx
  00027	57		 push	 edi
  00028	8b ce		 mov	 ecx, esi
  0002a	e8 00 00 00 00	 call	 ?SetToolTipCursor@ioLSMouse@@QAEXXZ ; ioLSMouse::SetToolTipCursor

; 36   : 	POINT pt = pMouse->GetMousePos();

  0002f	8b ce		 mov	 ecx, esi
  00031	ff 15 00 00 00
	00		 call	 DWORD PTR __imp_?GetMousePos@ioMouse@@QBEABUtagPOINT@@XZ
  00037	8b 30		 mov	 esi, DWORD PTR [eax]
  00039	8b 78 04	 mov	 edi, DWORD PTR [eax+4]

; 37   : 	int iXPos = pt.x + 8;
; 38   : 	int iYPos = pt.y + 8;
; 39   : 	
; 40   : 	int iXOffset = pt.x + GetWidth() + 8;

  0003c	8b 4d fc	 mov	 ecx, DWORD PTR _this$[ebp]
  0003f	8d 46 08	 lea	 eax, DWORD PTR [esi+8]
  00042	89 45 f8	 mov	 DWORD PTR _iXPos$[ebp], eax
  00045	8d 5f 08	 lea	 ebx, DWORD PTR [edi+8]
  00048	ff 15 00 00 00
	00		 call	 DWORD PTR __imp_?GetWidth@ioWnd@@QBEHXZ
  0004e	8d 74 30 08	 lea	 esi, DWORD PTR [eax+esi+8]

; 41   : 	if( Setting::Width() < iXOffset )

  00052	e8 00 00 00 00	 call	 ?Width@Setting@@SAHXZ	; Setting::Width
  00057	3b c6		 cmp	 eax, esi
  00059	7d 12		 jge	 SHORT $LN9@OnProcess

; 42   : 	{
; 43   : 		iXPos -= ( iXOffset - Setting::Width() ) + 8;

  0005b	e8 00 00 00 00	 call	 ?Width@Setting@@SAHXZ	; Setting::Width
  00060	6a f8		 push	 -8			; fffffff8H
  00062	59		 pop	 ecx
  00063	2b ce		 sub	 ecx, esi
  00065	03 4d f8	 add	 ecx, DWORD PTR _iXPos$[ebp]
  00068	8d 34 01	 lea	 esi, DWORD PTR [ecx+eax]
  0006b	eb 03		 jmp	 SHORT $LN2@OnProcess
$LN9@OnProcess:
  0006d	8b 75 f8	 mov	 esi, DWORD PTR _iXPos$[ebp]
$LN2@OnProcess:

; 44   : 	}
; 45   : 
; 46   : 	int iYOffset = pt.y + GetHeight() + 8;

  00070	8b 4d fc	 mov	 ecx, DWORD PTR _this$[ebp]
  00073	ff 15 00 00 00
	00		 call	 DWORD PTR __imp_?GetHeight@ioWnd@@QBEHXZ
  00079	8d 7c 38 08	 lea	 edi, DWORD PTR [eax+edi+8]

; 47   : 	if( Setting::Height() < iYOffset )

  0007d	e8 00 00 00 00	 call	 ?Height@Setting@@SAHXZ	; Setting::Height
  00082	3b c7		 cmp	 eax, edi
  00084	7d 0e		 jge	 SHORT $LN1@OnProcess

; 48   : 	{
; 49   : 		iYPos -= ( iYOffset - Setting::Height() ) + 8;

  00086	e8 00 00 00 00	 call	 ?Height@Setting@@SAHXZ	; Setting::Height
  0008b	6a f8		 push	 -8			; fffffff8H
  0008d	59		 pop	 ecx
  0008e	2b cf		 sub	 ecx, edi
  00090	03 d9		 add	 ebx, ecx
  00092	03 d8		 add	 ebx, eax
$LN1@OnProcess:

; 50   : 	}
; 51   : 
; 52   : 	SetScreenWndPos( iXPos, iYPos );

  00094	8b 4d fc	 mov	 ecx, DWORD PTR _this$[ebp]
  00097	53		 push	 ebx
  00098	56		 push	 esi
  00099	ff 15 00 00 00
	00		 call	 DWORD PTR __imp_?SetScreenWndPos@ioWnd@@QAEXHH@Z
  0009f	5f		 pop	 edi
  000a0	5b		 pop	 ebx
$LN10@OnProcess:
  000a1	5e		 pop	 esi
$LN5@OnProcess:

; 53   : }

  000a2	c9		 leave
  000a3	c2 04 00	 ret	 4
?OnProcess@BingoHelpToolTip@@MAEXM@Z ENDP		; BingoHelpToolTip::OnProcess
_TEXT	ENDS
PUBLIC	__real@3f19999a
PUBLIC	??_C@_0BL@PLGEBDJI@BingoHelpToolTip?3?3OnRender?$AA@ ; `string'
PUBLIC	??_C@_00CNPNBAHC@?$AA@				; `string'
EXTRN	??1ioComplexStringPrinter@@QAE@XZ:PROC		; ioComplexStringPrinter::~ioComplexStringPrinter
EXTRN	?ClearList@ioComplexStringPrinter@@QAEXXZ:PROC	; ioComplexStringPrinter::ClearList
EXTRN	?PrintFullText@ioComplexStringPrinter@@QAEXMMW4TextAlignType@@E@Z:PROC ; ioComplexStringPrinter::PrintFullText
EXTRN	?AddTextPiece@ioComplexStringPrinter@@QAAXMPBDZZ:PROC ; ioComplexStringPrinter::AddTextPiece
EXTRN	__imp_?GetString@ioStringManager@@QAEPADPBD0HW4FileNamePrefix@1@@Z:PROC
EXTRN	__imp_?GetSingleton@ioStringManager@@SAAAV1@XZ:PROC
EXTRN	?SetTextColor@ioComplexStringPrinter@@QAEXK@Z:PROC ; ioComplexStringPrinter::SetTextColor
EXTRN	?SetBkColor@ioComplexStringPrinter@@QAEXK@Z:PROC ; ioComplexStringPrinter::SetBkColor
EXTRN	?SetTextStyle@ioComplexStringPrinter@@QAEXW4TextStyle@@@Z:PROC ; ioComplexStringPrinter::SetTextStyle
EXTRN	??0ioComplexStringPrinter@@QAE@XZ:PROC		; ioComplexStringPrinter::ioComplexStringPrinter
EXTRN	__imp_?GetDerivedPosY@ioWnd@@QBEHXZ:PROC
EXTRN	__imp_?GetDerivedPosX@ioWnd@@QBEHXZ:PROC
EXTRN	__imp_?OnRender@ioWnd@@MAEXXZ:PROC
EXTRN	___CxxFrameHandler3:PROC
EXTRN	@__security_check_cookie@4:PROC
EXTRN	__EH_epilog3:PROC
EXTRN	__EH_prolog3:PROC
;	COMDAT __real@3f19999a
; File d:\lost saga for developer\youtube\tutorial\source\src\lsclient\iocomplexstringprinter.h
CONST	SEGMENT
__real@3f19999a DD 03f19999ar			; 0.6
CONST	ENDS
;	COMDAT ??_C@_0BL@PLGEBDJI@BingoHelpToolTip?3?3OnRender?$AA@
CONST	SEGMENT
??_C@_0BL@PLGEBDJI@BingoHelpToolTip?3?3OnRender?$AA@ DB 'BingoHelpToolTip'
	DB	'::OnRender', 00H				; `string'
CONST	ENDS
;	COMDAT ??_C@_00CNPNBAHC@?$AA@
CONST	SEGMENT
??_C@_00CNPNBAHC@?$AA@ DB 00H				; `string'
CONST	ENDS
;	COMDAT xdata$x
xdata$x	SEGMENT
__unwindtable$?OnRender@BingoHelpToolTip@@MAEXXZ DD 0ffffffffH
	DD	FLAT:__unwindfunclet$?OnRender@BingoHelpToolTip@@MAEXXZ$0
	DD	0ffffffffH
	DD	FLAT:__unwindfunclet$?OnRender@BingoHelpToolTip@@MAEXXZ$1
	DD	0ffffffffH
	DD	FLAT:__unwindfunclet$?OnRender@BingoHelpToolTip@@MAEXXZ$2
__ehfuncinfo$?OnRender@BingoHelpToolTip@@MAEXXZ DD 019930522H
	DD	03H
	DD	FLAT:__unwindtable$?OnRender@BingoHelpToolTip@@MAEXXZ
	DD	2 DUP(00H)
	DD	2 DUP(00H)
	DD	00H
	DD	01H
; Function compile flags: /Ogsp
; File d:\lost saga for developer\youtube\tutorial\source\src\lsclient\gui\bingohelptooltip.cpp
xdata$x	ENDS
;	COMDAT ?OnRender@BingoHelpToolTip@@MAEXXZ
_TEXT	SEGMENT
_kPrinter$505718 = -96					; size = 32
_kPrinter$505708 = -96					; size = 32
_kPrinter$505728 = -64					; size = 32
_iWidth1$505725 = -32					; size = 4
_iWidth2$505726 = -28					; size = 4
_iWidth1$505716 = -28					; size = 4
_iWidth1$505706 = -28					; size = 4
_this$ = -24						; size = 4
tv390 = -20						; size = 4
_iYPos$ = -16						; size = 4
__$EHRec$ = -12						; size = 12
?OnRender@BingoHelpToolTip@@MAEXXZ PROC			; BingoHelpToolTip::OnRender, COMDAT
; _this$ = ecx

; 56   : {

  00000	6a 54		 push	 84			; 00000054H
  00002	b8 00 00 00 00	 mov	 eax, __ehhandler$?OnRender@BingoHelpToolTip@@MAEXXZ
  00007	e8 00 00 00 00	 call	 __EH_prolog3
  0000c	8b f9		 mov	 edi, ecx
  0000e	89 7d e8	 mov	 DWORD PTR _this$[ebp], edi

; 57   : 	ioWnd::OnRender();

  00011	ff 15 00 00 00
	00		 call	 DWORD PTR __imp_?OnRender@ioWnd@@MAEXXZ

; 58   : 
; 59   : 	int iXPos = GetDerivedPosX();

  00017	8b cf		 mov	 ecx, edi
  00019	ff 15 00 00 00
	00		 call	 DWORD PTR __imp_?GetDerivedPosX@ioWnd@@QBEHXZ

; 60   : 	int iYPos = GetDerivedPosY();

  0001f	8b cf		 mov	 ecx, edi
  00021	8b f0		 mov	 esi, eax
  00023	ff 15 00 00 00
	00		 call	 DWORD PTR __imp_?GetDerivedPosY@ioWnd@@QBEHXZ
  00029	89 45 f0	 mov	 DWORD PTR _iYPos$[ebp], eax

; 61   : 
; 62   : 	switch( m_dwParentID )

  0002c	8b 87 60 01 00
	00		 mov	 eax, DWORD PTR [edi+352]
  00032	83 e8 14	 sub	 eax, 20			; 00000014H
  00035	0f 84 6f 02 00
	00		 je	 $LN3@OnRender
  0003b	48		 dec	 eax
  0003c	0f 84 ad 01 00
	00		 je	 $LN2@OnRender
  00042	48		 dec	 eax
  00043	0f 85 96 03 00
	00		 jne	 $LN4@OnRender

; 110  : 	case BingoRightWnd::ID_HELP_BTN_3:
; 111  : 		{
; 112  : 			int iWidth1 = 0;
; 113  : 			int iWidth2 = 0;
; 114  : 			int iWidth3 = 0;
; 115  : 
; 116  : 			ioComplexStringPrinter kPrinter;

  00049	8d 4d c0	 lea	 ecx, DWORD PTR _kPrinter$505728[ebp]
  0004c	e8 00 00 00 00	 call	 ??0ioComplexStringPrinter@@QAE@XZ ; ioComplexStringPrinter::ioComplexStringPrinter

; 117  : 			kPrinter.SetTextStyle( TS_NORMAL );

  00051	6a 00		 push	 0
  00053	8d 4d c0	 lea	 ecx, DWORD PTR _kPrinter$505728[ebp]
  00056	c7 45 fc 02 00
	00 00		 mov	 DWORD PTR __$EHRec$[ebp+8], 2
  0005d	e8 00 00 00 00	 call	 ?SetTextStyle@ioComplexStringPrinter@@QAEXW4TextStyle@@@Z ; ioComplexStringPrinter::SetTextStyle

; 118  : 			kPrinter.SetBkColor( TCT_DEFAULT_DARKGRAY );	

  00062	bf 3a 3a 3a ff	 mov	 edi, -12961222		; ff3a3a3aH
  00067	57		 push	 edi
  00068	8d 4d c0	 lea	 ecx, DWORD PTR _kPrinter$505728[ebp]
  0006b	e8 00 00 00 00	 call	 ?SetBkColor@ioComplexStringPrinter@@QAEXK@Z ; ioComplexStringPrinter::SetBkColor

; 119  : 			kPrinter.SetTextColor( TCT_DEFAULT_DARKGRAY );

  00070	57		 push	 edi
  00071	8d 4d c0	 lea	 ecx, DWORD PTR _kPrinter$505728[ebp]
  00074	e8 00 00 00 00	 call	 ?SetTextColor@ioComplexStringPrinter@@QAEXK@Z ; ioComplexStringPrinter::SetTextColor

; 120  : 			kPrinter.AddTextPiece( FONT_SIZE_12, STR(5) );

  00079	6a 00		 push	 0
  0007b	6a 05		 push	 5
  0007d	bb 00 00 00 00	 mov	 ebx, OFFSET ??_C@_00CNPNBAHC@?$AA@
  00082	53		 push	 ebx
  00083	bf 00 00 00 00	 mov	 edi, OFFSET ??_C@_0BL@PLGEBDJI@BingoHelpToolTip?3?3OnRender?$AA@
  00088	57		 push	 edi
  00089	ff 15 00 00 00
	00		 call	 DWORD PTR __imp_?GetSingleton@ioStringManager@@SAAAV1@XZ
  0008f	8b c8		 mov	 ecx, eax
  00091	ff 15 00 00 00
	00		 call	 DWORD PTR __imp_?GetString@ioStringManager@@QAEPADPBD0HW4FileNamePrefix@1@@Z
  00097	f3 0f 10 05 00
	00 00 00	 movss	 xmm0, DWORD PTR __real@3f19999a
  0009f	50		 push	 eax
  000a0	51		 push	 ecx
  000a1	8d 45 c0	 lea	 eax, DWORD PTR _kPrinter$505728[ebp]
  000a4	f3 0f 11 04 24	 movss	 DWORD PTR [esp], xmm0
  000a9	50		 push	 eax
  000aa	e8 00 00 00 00	 call	 ?AddTextPiece@ioComplexStringPrinter@@QAAXMPBDZZ ; ioComplexStringPrinter::AddTextPiece

; 121  : 			kPrinter.PrintFullText( iXPos + START_TEXT_XPOS, iYPos + START_TEXT_YPOS, TAT_LEFT );

  000af	8b 45 f0	 mov	 eax, DWORD PTR _iYPos$[ebp]
  000b2	83 c4 0c	 add	 esp, 12			; 0000000cH
  000b5	83 c6 07	 add	 esi, 7
  000b8	0f 57 c0	 xorps	 xmm0, xmm0
  000bb	f3 0f 2a c6	 cvtsi2ss xmm0, esi
  000bf	be ff 00 00 00	 mov	 esi, 255		; 000000ffH
  000c4	56		 push	 esi
  000c5	6a 00		 push	 0
  000c7	51		 push	 ecx
  000c8	51		 push	 ecx
  000c9	83 c0 06	 add	 eax, 6
  000cc	0f 57 c9	 xorps	 xmm1, xmm1
  000cf	f3 0f 2a c8	 cvtsi2ss xmm1, eax
  000d3	f3 0f 11 4c 24
	04		 movss	 DWORD PTR [esp+4], xmm1
  000d9	8d 4d c0	 lea	 ecx, DWORD PTR _kPrinter$505728[ebp]
  000dc	f3 0f 11 45 ec	 movss	 DWORD PTR tv390[ebp], xmm0
  000e1	f3 0f 11 04 24	 movss	 DWORD PTR [esp], xmm0
  000e6	e8 00 00 00 00	 call	 ?PrintFullText@ioComplexStringPrinter@@QAEXMMW4TextAlignType@@E@Z ; ioComplexStringPrinter::PrintFullText

; 122  : 			iWidth1 = static_cast<int>( kPrinter.GetFullWidth() );

  000eb	f3 0f 2c 45 dc	 cvttss2si eax, DWORD PTR _kPrinter$505728[ebp+28]

; 123  : 			kPrinter.ClearList();

  000f0	8d 4d c0	 lea	 ecx, DWORD PTR _kPrinter$505728[ebp]
  000f3	89 45 e0	 mov	 DWORD PTR _iWidth1$505725[ebp], eax
  000f6	e8 00 00 00 00	 call	 ?ClearList@ioComplexStringPrinter@@QAEXXZ ; ioComplexStringPrinter::ClearList

; 124  : 
; 125  : 			kPrinter.AddTextPiece( FONT_SIZE_12, STR(6) );

  000fb	6a 00		 push	 0
  000fd	6a 06		 push	 6
  000ff	53		 push	 ebx
  00100	57		 push	 edi
  00101	ff 15 00 00 00
	00		 call	 DWORD PTR __imp_?GetSingleton@ioStringManager@@SAAAV1@XZ
  00107	8b c8		 mov	 ecx, eax
  00109	ff 15 00 00 00
	00		 call	 DWORD PTR __imp_?GetString@ioStringManager@@QAEPADPBD0HW4FileNamePrefix@1@@Z
  0010f	f3 0f 10 05 00
	00 00 00	 movss	 xmm0, DWORD PTR __real@3f19999a
  00117	50		 push	 eax
  00118	51		 push	 ecx
  00119	8d 45 c0	 lea	 eax, DWORD PTR _kPrinter$505728[ebp]
  0011c	f3 0f 11 04 24	 movss	 DWORD PTR [esp], xmm0
  00121	50		 push	 eax
  00122	e8 00 00 00 00	 call	 ?AddTextPiece@ioComplexStringPrinter@@QAAXMPBDZZ ; ioComplexStringPrinter::AddTextPiece

; 126  : 			kPrinter.PrintFullText( iXPos + START_TEXT_XPOS, iYPos + START_TEXT_YPOS + TEXT_LINE_GAP, TAT_LEFT );

  00127	8b 45 f0	 mov	 eax, DWORD PTR _iYPos$[ebp]
  0012a	83 c4 0c	 add	 esp, 12			; 0000000cH
  0012d	56		 push	 esi
  0012e	6a 00		 push	 0
  00130	51		 push	 ecx
  00131	51		 push	 ecx
  00132	83 c0 16	 add	 eax, 22			; 00000016H
  00135	0f 57 c0	 xorps	 xmm0, xmm0
  00138	f3 0f 2a c0	 cvtsi2ss xmm0, eax
  0013c	f3 0f 11 44 24
	04		 movss	 DWORD PTR [esp+4], xmm0
  00142	f3 0f 10 45 ec	 movss	 xmm0, DWORD PTR tv390[ebp]
  00147	8d 4d c0	 lea	 ecx, DWORD PTR _kPrinter$505728[ebp]
  0014a	f3 0f 11 04 24	 movss	 DWORD PTR [esp], xmm0
  0014f	e8 00 00 00 00	 call	 ?PrintFullText@ioComplexStringPrinter@@QAEXMMW4TextAlignType@@E@Z ; ioComplexStringPrinter::PrintFullText

; 127  : 			iWidth2 = static_cast<int>( kPrinter.GetFullWidth() );

  00154	f3 0f 2c 45 dc	 cvttss2si eax, DWORD PTR _kPrinter$505728[ebp+28]

; 128  : 			kPrinter.ClearList();

  00159	8d 4d c0	 lea	 ecx, DWORD PTR _kPrinter$505728[ebp]
  0015c	89 45 e4	 mov	 DWORD PTR _iWidth2$505726[ebp], eax
  0015f	e8 00 00 00 00	 call	 ?ClearList@ioComplexStringPrinter@@QAEXXZ ; ioComplexStringPrinter::ClearList

; 129  : 
; 130  : 			kPrinter.AddTextPiece( FONT_SIZE_12, STR(7) );

  00164	6a 00		 push	 0
  00166	6a 07		 push	 7
  00168	53		 push	 ebx
  00169	57		 push	 edi
  0016a	ff 15 00 00 00
	00		 call	 DWORD PTR __imp_?GetSingleton@ioStringManager@@SAAAV1@XZ
  00170	8b c8		 mov	 ecx, eax
  00172	ff 15 00 00 00
	00		 call	 DWORD PTR __imp_?GetString@ioStringManager@@QAEPADPBD0HW4FileNamePrefix@1@@Z
  00178	f3 0f 10 05 00
	00 00 00	 movss	 xmm0, DWORD PTR __real@3f19999a
  00180	50		 push	 eax
  00181	51		 push	 ecx
  00182	8d 45 c0	 lea	 eax, DWORD PTR _kPrinter$505728[ebp]
  00185	f3 0f 11 04 24	 movss	 DWORD PTR [esp], xmm0
  0018a	50		 push	 eax
  0018b	e8 00 00 00 00	 call	 ?AddTextPiece@ioComplexStringPrinter@@QAAXMPBDZZ ; ioComplexStringPrinter::AddTextPiece

; 131  : 			kPrinter.PrintFullText( iXPos + START_TEXT_XPOS, iYPos + START_TEXT_YPOS + TEXT_LINE_GAP * 2, TAT_LEFT );

  00190	8b 45 f0	 mov	 eax, DWORD PTR _iYPos$[ebp]
  00193	83 c4 0c	 add	 esp, 12			; 0000000cH
  00196	56		 push	 esi
  00197	6a 00		 push	 0
  00199	51		 push	 ecx
  0019a	51		 push	 ecx
  0019b	83 c0 26	 add	 eax, 38			; 00000026H
  0019e	0f 57 c0	 xorps	 xmm0, xmm0
  001a1	f3 0f 2a c0	 cvtsi2ss xmm0, eax
  001a5	f3 0f 11 44 24
	04		 movss	 DWORD PTR [esp+4], xmm0
  001ab	f3 0f 10 45 ec	 movss	 xmm0, DWORD PTR tv390[ebp]
  001b0	8d 4d c0	 lea	 ecx, DWORD PTR _kPrinter$505728[ebp]
  001b3	f3 0f 11 04 24	 movss	 DWORD PTR [esp], xmm0
  001b8	e8 00 00 00 00	 call	 ?PrintFullText@ioComplexStringPrinter@@QAEXMMW4TextAlignType@@E@Z ; ioComplexStringPrinter::PrintFullText

; 132  : 			iWidth3 = static_cast<int>( kPrinter.GetFullWidth() );

  001bd	f3 0f 2c 75 dc	 cvttss2si esi, DWORD PTR _kPrinter$505728[ebp+28]

; 133  : 			kPrinter.ClearList();

  001c2	8d 4d c0	 lea	 ecx, DWORD PTR _kPrinter$505728[ebp]
  001c5	e8 00 00 00 00	 call	 ?ClearList@ioComplexStringPrinter@@QAEXXZ ; ioComplexStringPrinter::ClearList

; 134  : 
; 135  : 			int iWidth = max( iWidth1, iWidth2 );

  001ca	8b 45 e0	 mov	 eax, DWORD PTR _iWidth1$505725[ebp]
  001cd	3b 45 e4	 cmp	 eax, DWORD PTR _iWidth2$505726[ebp]

; 136  : 			iWidth = max( iWidth, iWidth3 );
; 137  : 			SetSize( iWidth + SIDE_TEXT_GAP, WND_HEIGHT + TEXT_LINE_GAP * 2 );

  001d0	8b 4d e8	 mov	 ecx, DWORD PTR _this$[ebp]
  001d3	0f 4e 45 e4	 cmovle	 eax, DWORD PTR _iWidth2$505726[ebp]
  001d7	8b 11		 mov	 edx, DWORD PTR [ecx]
  001d9	3b c6		 cmp	 eax, esi
  001db	0f 4e c6	 cmovle	 eax, esi
  001de	6a 3a		 push	 58			; 0000003aH
  001e0	83 c0 0e	 add	 eax, 14			; 0000000eH
  001e3	50		 push	 eax
  001e4	ff 52 2c	 call	 DWORD PTR [edx+44]

; 138  : 		}

  001e7	8d 4d c0	 lea	 ecx, DWORD PTR _kPrinter$505728[ebp]

; 139  : 		break;

  001ea	e9 e7 01 00 00	 jmp	 $LN34@OnRender
$LN2@OnRender:

; 86   : 		break;
; 87   : 	case BingoRightWnd::ID_HELP_BTN_2:
; 88   : 		{
; 89   : 			int iWidth1 = 0;
; 90   : 			int iWidth2 = 0;
; 91   : 
; 92   : 			ioComplexStringPrinter kPrinter;

  001ef	8d 4d a0	 lea	 ecx, DWORD PTR _kPrinter$505718[ebp]
  001f2	e8 00 00 00 00	 call	 ??0ioComplexStringPrinter@@QAE@XZ ; ioComplexStringPrinter::ioComplexStringPrinter

; 93   : 			kPrinter.SetTextStyle( TS_NORMAL );

  001f7	6a 00		 push	 0
  001f9	8d 4d a0	 lea	 ecx, DWORD PTR _kPrinter$505718[ebp]
  001fc	c7 45 fc 01 00
	00 00		 mov	 DWORD PTR __$EHRec$[ebp+8], 1
  00203	e8 00 00 00 00	 call	 ?SetTextStyle@ioComplexStringPrinter@@QAEXW4TextStyle@@@Z ; ioComplexStringPrinter::SetTextStyle

; 94   : 			kPrinter.SetBkColor( TCT_DEFAULT_DARKGRAY );	

  00208	bf 3a 3a 3a ff	 mov	 edi, -12961222		; ff3a3a3aH
  0020d	57		 push	 edi
  0020e	8d 4d a0	 lea	 ecx, DWORD PTR _kPrinter$505718[ebp]
  00211	e8 00 00 00 00	 call	 ?SetBkColor@ioComplexStringPrinter@@QAEXK@Z ; ioComplexStringPrinter::SetBkColor

; 95   : 			kPrinter.SetTextColor( TCT_DEFAULT_DARKGRAY );

  00216	57		 push	 edi
  00217	8d 4d a0	 lea	 ecx, DWORD PTR _kPrinter$505718[ebp]
  0021a	e8 00 00 00 00	 call	 ?SetTextColor@ioComplexStringPrinter@@QAEXK@Z ; ioComplexStringPrinter::SetTextColor

; 96   : 			kPrinter.AddTextPiece( FONT_SIZE_12, STR(3) );

  0021f	6a 00		 push	 0
  00221	6a 03		 push	 3
  00223	bb 00 00 00 00	 mov	 ebx, OFFSET ??_C@_00CNPNBAHC@?$AA@
  00228	53		 push	 ebx
  00229	bf 00 00 00 00	 mov	 edi, OFFSET ??_C@_0BL@PLGEBDJI@BingoHelpToolTip?3?3OnRender?$AA@
  0022e	57		 push	 edi
  0022f	ff 15 00 00 00
	00		 call	 DWORD PTR __imp_?GetSingleton@ioStringManager@@SAAAV1@XZ
  00235	8b c8		 mov	 ecx, eax
  00237	ff 15 00 00 00
	00		 call	 DWORD PTR __imp_?GetString@ioStringManager@@QAEPADPBD0HW4FileNamePrefix@1@@Z
  0023d	f3 0f 10 05 00
	00 00 00	 movss	 xmm0, DWORD PTR __real@3f19999a
  00245	50		 push	 eax
  00246	51		 push	 ecx
  00247	8d 45 a0	 lea	 eax, DWORD PTR _kPrinter$505718[ebp]
  0024a	f3 0f 11 04 24	 movss	 DWORD PTR [esp], xmm0
  0024f	50		 push	 eax
  00250	e8 00 00 00 00	 call	 ?AddTextPiece@ioComplexStringPrinter@@QAAXMPBDZZ ; ioComplexStringPrinter::AddTextPiece

; 97   : 			kPrinter.PrintFullText( iXPos + START_TEXT_XPOS, iYPos + START_TEXT_YPOS, TAT_LEFT );

  00255	8b 45 f0	 mov	 eax, DWORD PTR _iYPos$[ebp]
  00258	83 c4 0c	 add	 esp, 12			; 0000000cH
  0025b	83 c6 07	 add	 esi, 7
  0025e	0f 57 c0	 xorps	 xmm0, xmm0
  00261	f3 0f 2a c6	 cvtsi2ss xmm0, esi
  00265	be ff 00 00 00	 mov	 esi, 255		; 000000ffH
  0026a	56		 push	 esi
  0026b	6a 00		 push	 0
  0026d	51		 push	 ecx
  0026e	51		 push	 ecx
  0026f	83 c0 06	 add	 eax, 6
  00272	0f 57 c9	 xorps	 xmm1, xmm1
  00275	f3 0f 2a c8	 cvtsi2ss xmm1, eax
  00279	f3 0f 11 4c 24
	04		 movss	 DWORD PTR [esp+4], xmm1
  0027f	8d 4d a0	 lea	 ecx, DWORD PTR _kPrinter$505718[ebp]
  00282	f3 0f 11 45 ec	 movss	 DWORD PTR tv390[ebp], xmm0
  00287	f3 0f 11 04 24	 movss	 DWORD PTR [esp], xmm0
  0028c	e8 00 00 00 00	 call	 ?PrintFullText@ioComplexStringPrinter@@QAEXMMW4TextAlignType@@E@Z ; ioComplexStringPrinter::PrintFullText

; 98   : 			iWidth1 = static_cast<int>( kPrinter.GetFullWidth() );

  00291	f3 0f 2c 45 bc	 cvttss2si eax, DWORD PTR _kPrinter$505718[ebp+28]

; 99   : 			kPrinter.ClearList();

  00296	8d 4d a0	 lea	 ecx, DWORD PTR _kPrinter$505718[ebp]
  00299	89 45 e4	 mov	 DWORD PTR _iWidth1$505716[ebp], eax
  0029c	e8 00 00 00 00	 call	 ?ClearList@ioComplexStringPrinter@@QAEXXZ ; ioComplexStringPrinter::ClearList

; 100  : 
; 101  : 			kPrinter.AddTextPiece( FONT_SIZE_12, STR(4) );

  002a1	6a 00		 push	 0
  002a3	6a 04		 push	 4

; 102  : 			kPrinter.PrintFullText( iXPos + START_TEXT_XPOS, iYPos + START_TEXT_YPOS + TEXT_LINE_GAP, TAT_LEFT );
; 103  : 			iWidth2 = static_cast<int>( kPrinter.GetFullWidth() );
; 104  : 			kPrinter.ClearList();
; 105  : 
; 106  : 			int iWidth = max( iWidth1, iWidth2 );
; 107  : 			SetSize( iWidth + SIDE_TEXT_GAP, WND_HEIGHT + TEXT_LINE_GAP );
; 108  : 		}
; 109  : 		break;

  002a5	e9 b2 00 00 00	 jmp	 $LN36@OnRender
$LN3@OnRender:

; 63   : 	{
; 64   : 	case BingoRightWnd::ID_HELP_BTN_1:
; 65   : 		{
; 66   : 			int iWidth1 = 0;
; 67   : 			int iWidth2 = 0;
; 68   : 
; 69   : 			ioComplexStringPrinter kPrinter;

  002aa	8d 4d a0	 lea	 ecx, DWORD PTR _kPrinter$505708[ebp]
  002ad	e8 00 00 00 00	 call	 ??0ioComplexStringPrinter@@QAE@XZ ; ioComplexStringPrinter::ioComplexStringPrinter
  002b2	33 db		 xor	 ebx, ebx

; 70   : 			kPrinter.SetTextStyle( TS_NORMAL );

  002b4	53		 push	 ebx
  002b5	8d 4d a0	 lea	 ecx, DWORD PTR _kPrinter$505708[ebp]
  002b8	89 5d fc	 mov	 DWORD PTR __$EHRec$[ebp+8], ebx
  002bb	e8 00 00 00 00	 call	 ?SetTextStyle@ioComplexStringPrinter@@QAEXW4TextStyle@@@Z ; ioComplexStringPrinter::SetTextStyle

; 71   : 			kPrinter.SetBkColor( TCT_DEFAULT_DARKGRAY );	

  002c0	bf 3a 3a 3a ff	 mov	 edi, -12961222		; ff3a3a3aH
  002c5	57		 push	 edi
  002c6	8d 4d a0	 lea	 ecx, DWORD PTR _kPrinter$505708[ebp]
  002c9	e8 00 00 00 00	 call	 ?SetBkColor@ioComplexStringPrinter@@QAEXK@Z ; ioComplexStringPrinter::SetBkColor

; 72   : 			kPrinter.SetTextColor( TCT_DEFAULT_DARKGRAY );

  002ce	57		 push	 edi
  002cf	8d 4d a0	 lea	 ecx, DWORD PTR _kPrinter$505708[ebp]
  002d2	e8 00 00 00 00	 call	 ?SetTextColor@ioComplexStringPrinter@@QAEXK@Z ; ioComplexStringPrinter::SetTextColor

; 73   : 			kPrinter.AddTextPiece( FONT_SIZE_12, STR(1) );

  002d7	53		 push	 ebx
  002d8	6a 01		 push	 1
  002da	bb 00 00 00 00	 mov	 ebx, OFFSET ??_C@_00CNPNBAHC@?$AA@
  002df	53		 push	 ebx
  002e0	bf 00 00 00 00	 mov	 edi, OFFSET ??_C@_0BL@PLGEBDJI@BingoHelpToolTip?3?3OnRender?$AA@
  002e5	57		 push	 edi
  002e6	ff 15 00 00 00
	00		 call	 DWORD PTR __imp_?GetSingleton@ioStringManager@@SAAAV1@XZ
  002ec	8b c8		 mov	 ecx, eax
  002ee	ff 15 00 00 00
	00		 call	 DWORD PTR __imp_?GetString@ioStringManager@@QAEPADPBD0HW4FileNamePrefix@1@@Z
  002f4	f3 0f 10 05 00
	00 00 00	 movss	 xmm0, DWORD PTR __real@3f19999a
  002fc	50		 push	 eax
  002fd	51		 push	 ecx
  002fe	8d 45 a0	 lea	 eax, DWORD PTR _kPrinter$505708[ebp]
  00301	f3 0f 11 04 24	 movss	 DWORD PTR [esp], xmm0
  00306	50		 push	 eax
  00307	e8 00 00 00 00	 call	 ?AddTextPiece@ioComplexStringPrinter@@QAAXMPBDZZ ; ioComplexStringPrinter::AddTextPiece

; 74   : 			kPrinter.PrintFullText( iXPos + START_TEXT_XPOS, iYPos + START_TEXT_YPOS, TAT_LEFT );

  0030c	8b 45 f0	 mov	 eax, DWORD PTR _iYPos$[ebp]
  0030f	83 c4 0c	 add	 esp, 12			; 0000000cH
  00312	83 c6 07	 add	 esi, 7
  00315	0f 57 c0	 xorps	 xmm0, xmm0
  00318	f3 0f 2a c6	 cvtsi2ss xmm0, esi
  0031c	be ff 00 00 00	 mov	 esi, 255		; 000000ffH
  00321	56		 push	 esi
  00322	6a 00		 push	 0
  00324	51		 push	 ecx
  00325	51		 push	 ecx
  00326	83 c0 06	 add	 eax, 6
  00329	0f 57 c9	 xorps	 xmm1, xmm1
  0032c	f3 0f 2a c8	 cvtsi2ss xmm1, eax
  00330	f3 0f 11 4c 24
	04		 movss	 DWORD PTR [esp+4], xmm1
  00336	8d 4d a0	 lea	 ecx, DWORD PTR _kPrinter$505708[ebp]
  00339	f3 0f 11 45 ec	 movss	 DWORD PTR tv390[ebp], xmm0
  0033e	f3 0f 11 04 24	 movss	 DWORD PTR [esp], xmm0
  00343	e8 00 00 00 00	 call	 ?PrintFullText@ioComplexStringPrinter@@QAEXMMW4TextAlignType@@E@Z ; ioComplexStringPrinter::PrintFullText

; 75   : 			iWidth1 = static_cast<int>( kPrinter.GetFullWidth() );

  00348	f3 0f 2c 45 bc	 cvttss2si eax, DWORD PTR _kPrinter$505708[ebp+28]

; 76   : 			kPrinter.ClearList();

  0034d	8d 4d a0	 lea	 ecx, DWORD PTR _kPrinter$505708[ebp]
  00350	89 45 e4	 mov	 DWORD PTR _iWidth1$505706[ebp], eax
  00353	e8 00 00 00 00	 call	 ?ClearList@ioComplexStringPrinter@@QAEXXZ ; ioComplexStringPrinter::ClearList

; 77   : 
; 78   : 			kPrinter.AddTextPiece( FONT_SIZE_12, STR(2) );

  00358	6a 00		 push	 0
  0035a	6a 02		 push	 2
$LN36@OnRender:
  0035c	53		 push	 ebx
  0035d	57		 push	 edi
  0035e	ff 15 00 00 00
	00		 call	 DWORD PTR __imp_?GetSingleton@ioStringManager@@SAAAV1@XZ
  00364	8b c8		 mov	 ecx, eax
  00366	ff 15 00 00 00
	00		 call	 DWORD PTR __imp_?GetString@ioStringManager@@QAEPADPBD0HW4FileNamePrefix@1@@Z
  0036c	f3 0f 10 05 00
	00 00 00	 movss	 xmm0, DWORD PTR __real@3f19999a
  00374	50		 push	 eax
  00375	51		 push	 ecx
  00376	8d 45 a0	 lea	 eax, DWORD PTR _kPrinter$505708[ebp]
  00379	f3 0f 11 04 24	 movss	 DWORD PTR [esp], xmm0
  0037e	50		 push	 eax
  0037f	e8 00 00 00 00	 call	 ?AddTextPiece@ioComplexStringPrinter@@QAAXMPBDZZ ; ioComplexStringPrinter::AddTextPiece

; 79   : 			kPrinter.PrintFullText( iXPos + START_TEXT_XPOS, iYPos + START_TEXT_YPOS + TEXT_LINE_GAP, TAT_LEFT );

  00384	8b 45 f0	 mov	 eax, DWORD PTR _iYPos$[ebp]
  00387	83 c4 0c	 add	 esp, 12			; 0000000cH
  0038a	56		 push	 esi
  0038b	6a 00		 push	 0
  0038d	51		 push	 ecx
  0038e	51		 push	 ecx
  0038f	0f 57 c0	 xorps	 xmm0, xmm0
  00392	83 c0 16	 add	 eax, 22			; 00000016H
  00395	f3 0f 2a c0	 cvtsi2ss xmm0, eax
  00399	f3 0f 11 44 24
	04		 movss	 DWORD PTR [esp+4], xmm0
  0039f	f3 0f 10 45 ec	 movss	 xmm0, DWORD PTR tv390[ebp]
  003a4	8d 4d a0	 lea	 ecx, DWORD PTR _kPrinter$505708[ebp]
  003a7	f3 0f 11 04 24	 movss	 DWORD PTR [esp], xmm0
  003ac	e8 00 00 00 00	 call	 ?PrintFullText@ioComplexStringPrinter@@QAEXMMW4TextAlignType@@E@Z ; ioComplexStringPrinter::PrintFullText

; 80   : 			iWidth2 = static_cast<int>( kPrinter.GetFullWidth() );

  003b1	f3 0f 2c 75 bc	 cvttss2si esi, DWORD PTR _kPrinter$505708[ebp+28]

; 81   : 			kPrinter.ClearList();

  003b6	8d 4d a0	 lea	 ecx, DWORD PTR _kPrinter$505708[ebp]
  003b9	e8 00 00 00 00	 call	 ?ClearList@ioComplexStringPrinter@@QAEXXZ ; ioComplexStringPrinter::ClearList

; 82   : 
; 83   : 			int iWidth = max( iWidth1, iWidth2 );

  003be	39 75 e4	 cmp	 DWORD PTR _iWidth1$505706[ebp], esi

; 84   : 			SetSize( iWidth + SIDE_TEXT_GAP, WND_HEIGHT + TEXT_LINE_GAP );

  003c1	8b 4d e8	 mov	 ecx, DWORD PTR _this$[ebp]
  003c4	0f 4f 75 e4	 cmovg	 esi, DWORD PTR _iWidth1$505706[ebp]
  003c8	8b 01		 mov	 eax, DWORD PTR [ecx]
  003ca	6a 2a		 push	 42			; 0000002aH
  003cc	83 c6 0e	 add	 esi, 14			; 0000000eH
  003cf	56		 push	 esi
  003d0	ff 50 2c	 call	 DWORD PTR [eax+44]

; 85   : 		}

  003d3	8d 4d a0	 lea	 ecx, DWORD PTR _kPrinter$505708[ebp]
$LN34@OnRender:
  003d6	83 4d fc ff	 or	 DWORD PTR __$EHRec$[ebp+8], -1
  003da	e8 00 00 00 00	 call	 ??1ioComplexStringPrinter@@QAE@XZ ; ioComplexStringPrinter::~ioComplexStringPrinter
$LN4@OnRender:

; 140  : 	}
; 141  : }

  003df	e8 00 00 00 00	 call	 __EH_epilog3
  003e4	c3		 ret	 0
_TEXT	ENDS
;	COMDAT text$x
text$x	SEGMENT
__unwindfunclet$?OnRender@BingoHelpToolTip@@MAEXXZ$2:
  00000	8d 4d c0	 lea	 ecx, DWORD PTR _kPrinter$505728[ebp]
  00003	e9 00 00 00 00	 jmp	 ??1ioComplexStringPrinter@@QAE@XZ ; ioComplexStringPrinter::~ioComplexStringPrinter
__unwindfunclet$?OnRender@BingoHelpToolTip@@MAEXXZ$1:
  00008	8d 4d a0	 lea	 ecx, DWORD PTR _kPrinter$505718[ebp]
  0000b	e9 00 00 00 00	 jmp	 ??1ioComplexStringPrinter@@QAE@XZ ; ioComplexStringPrinter::~ioComplexStringPrinter
__unwindfunclet$?OnRender@BingoHelpToolTip@@MAEXXZ$0:
  00010	8d 4d a0	 lea	 ecx, DWORD PTR _kPrinter$505708[ebp]
  00013	e9 00 00 00 00	 jmp	 ??1ioComplexStringPrinter@@QAE@XZ ; ioComplexStringPrinter::~ioComplexStringPrinter
__ehhandler$?OnRender@BingoHelpToolTip@@MAEXXZ:
  00018	8b 54 24 08	 mov	 edx, DWORD PTR [esp+8]
  0001c	8d 42 0c	 lea	 eax, DWORD PTR [edx+12]
  0001f	8b 4a 9c	 mov	 ecx, DWORD PTR [edx-100]
  00022	33 c8		 xor	 ecx, eax
  00024	e8 00 00 00 00	 call	 @__security_check_cookie@4
  00029	b8 00 00 00 00	 mov	 eax, OFFSET __ehfuncinfo$?OnRender@BingoHelpToolTip@@MAEXXZ
  0002e	e9 00 00 00 00	 jmp	 ___CxxFrameHandler3
text$x	ENDS
?OnRender@BingoHelpToolTip@@MAEXXZ ENDP			; BingoHelpToolTip::OnRender
END
