; Listing generated by Microsoft (R) Optimizing Compiler Version 16.00.30319.01 

	TITLE	D:\Lost Saga For Developer\Youtube\Tutorial\Source\src\LSClient\GUI\BossMonsterGaugeWnd.cpp
	.686P
	.XMM
	include listing.inc
	.model	flat

INCLUDELIB MSVCRT
INCLUDELIB OLDNAMES

PUBLIC	?m_bPosToDefualt@BossMonsterGaugeWnd@@1_NA	; BossMonsterGaugeWnd::m_bPosToDefualt
_BSS	SEGMENT
?m_bPosToDefualt@BossMonsterGaugeWnd@@1_NA DB 01H DUP (?) ; BossMonsterGaugeWnd::m_bPosToDefualt
_BSS	ENDS
PUBLIC	??_C@_04IAEKAMNC@YPos?$AA@			; `string'
PUBLIC	??_C@_04LNCKCFGC@XPos?$AA@			; `string'
PUBLIC	??_C@_0BE@PPIFMGIH@BossMonsterGaugeWnd?$AA@	; `string'
PUBLIC	??_7BossMonsterGaugeWnd@@6B@			; BossMonsterGaugeWnd::`vftable'
PUBLIC	??1BossMonsterGaugeWnd@@UAE@XZ			; BossMonsterGaugeWnd::~BossMonsterGaugeWnd
PUBLIC	??_R4BossMonsterGaugeWnd@@6B@			; BossMonsterGaugeWnd::`RTTI Complete Object Locator'
PUBLIC	??_R0?AVBossMonsterGaugeWnd@@@8			; BossMonsterGaugeWnd `RTTI Type Descriptor'
PUBLIC	??_R3BossMonsterGaugeWnd@@8			; BossMonsterGaugeWnd::`RTTI Class Hierarchy Descriptor'
PUBLIC	??_R2BossMonsterGaugeWnd@@8			; BossMonsterGaugeWnd::`RTTI Base Class Array'
PUBLIC	??_R1A@?0A@EA@BossMonsterGaugeWnd@@8		; BossMonsterGaugeWnd::`RTTI Base Class Descriptor at (0,-1,0,64)'
PUBLIC	??_R1A@?0A@EA@ioMovingWnd@@8			; ioMovingWnd::`RTTI Base Class Descriptor at (0,-1,0,64)'
PUBLIC	??_R0?AVioMovingWnd@@@8				; ioMovingWnd `RTTI Type Descriptor'
PUBLIC	??_R3ioMovingWnd@@8				; ioMovingWnd::`RTTI Class Hierarchy Descriptor'
PUBLIC	??_R2ioMovingWnd@@8				; ioMovingWnd::`RTTI Base Class Array'
PUBLIC	??_R1A@?0A@EA@ioWnd@@8				; ioWnd::`RTTI Base Class Descriptor at (0,-1,0,64)'
PUBLIC	??_R0?AVioWnd@@@8				; ioWnd `RTTI Type Descriptor'
PUBLIC	??_R3ioWnd@@8					; ioWnd::`RTTI Class Hierarchy Descriptor'
PUBLIC	??_R2ioWnd@@8					; ioWnd::`RTTI Base Class Array'
PUBLIC	?AddRenderImage@BossMonsterGaugeWnd@@UAEXABVioHashString@@PAVioUIRenderImage@@@Z ; BossMonsterGaugeWnd::AddRenderImage
PUBLIC	?SetPositionToDefault@BossMonsterGaugeWnd@@UAEXHH_N0@Z ; BossMonsterGaugeWnd::SetPositionToDefault
PUBLIC	?OnRender@BossMonsterGaugeWnd@@MAEXXZ		; BossMonsterGaugeWnd::OnRender
PUBLIC	?OnProcess@BossMonsterGaugeWnd@@MAEXM@Z		; BossMonsterGaugeWnd::OnProcess
PUBLIC	?iwm_create@BossMonsterGaugeWnd@@UAEXXZ		; BossMonsterGaugeWnd::iwm_create
EXTRN	__imp_??1ioMovingWnd@@UAE@XZ:PROC
EXTRN	??1FSMStateMgr@@UAE@XZ:PROC			; FSMStateMgr::~FSMStateMgr
EXTRN	__imp_??1ioHashString@@QAE@XZ:PROC
EXTRN	?GUIPosSaveInt@ioSP2GUIManager@@QAEHPBD0HH@Z:PROC ; ioSP2GUIManager::GUIPosSaveInt
EXTRN	?GetSingleton@ioSP2GUIManager@@SAAAV1@XZ:PROC	; ioSP2GUIManager::GetSingleton
EXTRN	?Height@Setting@@SAHXZ:PROC			; Setting::Height
EXTRN	?Width@Setting@@SAHXZ:PROC			; Setting::Width
EXTRN	___CxxFrameHandler3:PROC
EXTRN	@__security_check_cookie@4:PROC
EXTRN	__EH_epilog3:PROC
EXTRN	__EH_prolog3:PROC
EXTRN	??_7type_info@@6B@:QWORD			; type_info::`vftable'
EXTRN	?AddRenderFrame@ioWnd@@UAEXABVioHashString@@PAVioUIRenderFrame@@@Z:PROC ; ioWnd::AddRenderFrame
EXTRN	?AddTooltipHelp@ioWnd@@UAEXABVioHashString@@00@Z:PROC ; ioWnd::AddTooltipHelp
EXTRN	?ParseExtraInfo@ioWnd@@UAEXAAVioXMLElement@@@Z:PROC ; ioWnd::ParseExtraInfo
EXTRN	?AddNamedRenderImage@ioWnd@@UAEXABVioHashString@@PAVioUIRenderImage@@@Z:PROC ; ioWnd::AddNamedRenderImage
EXTRN	?RemoveNamedRenderImage@ioWnd@@UAEXABVioHashString@@@Z:PROC ; ioWnd::RemoveNamedRenderImage
EXTRN	?GetNamedRenderImage@ioWnd@@UBEPAVioUIRenderImage@@ABVioHashString@@@Z:PROC ; ioWnd::GetNamedRenderImage
EXTRN	?SetWindowAlpha@ioWnd@@UAEXH@Z:PROC		; ioWnd::SetWindowAlpha
EXTRN	?SetActive@ioWnd@@UAEXXZ:PROC			; ioWnd::SetActive
EXTRN	?SetInActive@ioWnd@@UAEXXZ:PROC			; ioWnd::SetInActive
EXTRN	?ClearElementImageList@ioWnd@@UAEXXZ:PROC	; ioWnd::ClearElementImageList
EXTRN	?SetSize@ioWnd@@UAEXHH@Z:PROC			; ioWnd::SetSize
EXTRN	?IsNeedProcess@ioWnd@@UBE_NXZ:PROC		; ioWnd::IsNeedProcess
EXTRN	?IsCanMouseReaction@ioWnd@@UBE_NXZ:PROC		; ioWnd::IsCanMouseReaction
EXTRN	?AddChild@ioWnd@@UAEXPAV1@@Z:PROC		; ioWnd::AddChild
EXTRN	?DeleteChild@ioWnd@@UAEXK@Z:PROC		; ioWnd::DeleteChild
EXTRN	?DeleteAllChild@ioWnd@@UAEXXZ:PROC		; ioWnd::DeleteAllChild
EXTRN	?OnRenderShowAndHide@ioWnd@@MAE_NXZ:PROC	; ioWnd::OnRenderShowAndHide
EXTRN	?OnRenderShowAndHideByDefault@ioWnd@@MAE_NK@Z:PROC ; ioWnd::OnRenderShowAndHideByDefault
EXTRN	?OnRenderShowAndHideByTop@ioWnd@@MAE_NK@Z:PROC	; ioWnd::OnRenderShowAndHideByTop
EXTRN	?OnRenderShowAndHideByDown@ioWnd@@MAE_NK@Z:PROC	; ioWnd::OnRenderShowAndHideByDown
EXTRN	?OnRenderAfterChild@ioWnd@@MAEXXZ:PROC		; ioWnd::OnRenderAfterChild
EXTRN	?OnMouseProcess@ioMovingWnd@@MAEXABVioMouse@@@Z:PROC ; ioMovingWnd::OnMouseProcess
EXTRN	?CheckFrameReSize@ioWnd@@MAEXHHHH@Z:PROC	; ioWnd::CheckFrameReSize
EXTRN	?RenderImageList@ioWnd@@MAEXHHW4UIRenderType@@@Z:PROC ; ioWnd::RenderImageList
EXTRN	?iwm_destroy@ioWnd@@UAEXXZ:PROC			; ioWnd::iwm_destroy
EXTRN	?iwm_lbuttondown@ioMovingWnd@@UAEXABVioMouse@@@Z:PROC ; ioMovingWnd::iwm_lbuttondown
EXTRN	?iwm_lbuttonup@ioMovingWnd@@UAEXABVioMouse@@@Z:PROC ; ioMovingWnd::iwm_lbuttonup
EXTRN	?iwm_lbuttonDBLCLK@ioWnd@@UAEXABVioMouse@@@Z:PROC ; ioWnd::iwm_lbuttonDBLCLK
EXTRN	?iwm_rbuttondown@ioWnd@@UAEXABVioMouse@@@Z:PROC	; ioWnd::iwm_rbuttondown
EXTRN	?iwm_rbuttonup@ioWnd@@UAEXABVioMouse@@@Z:PROC	; ioWnd::iwm_rbuttonup
EXTRN	?iwm_command@ioWnd@@UAEXPAV1@HK@Z:PROC		; ioWnd::iwm_command
EXTRN	?iwm_mouseover@ioWnd@@UAEXABVioMouse@@@Z:PROC	; ioWnd::iwm_mouseover
EXTRN	?iwm_mousemove@ioWnd@@UAEXABVioMouse@@@Z:PROC	; ioWnd::iwm_mousemove
EXTRN	?iwm_mouseleave@ioWnd@@UAEXABVioMouse@@@Z:PROC	; ioWnd::iwm_mouseleave
EXTRN	?iwm_vscroll@ioWnd@@UAEXKH@Z:PROC		; ioWnd::iwm_vscroll
EXTRN	?iwm_wheel@ioWnd@@UAEXH@Z:PROC			; ioWnd::iwm_wheel
EXTRN	?iwm_show@ioWnd@@UAEXXZ:PROC			; ioWnd::iwm_show
EXTRN	?iwm_hide@ioWnd@@UAEXXZ:PROC			; ioWnd::iwm_hide
EXTRN	?iwm_esc@ioWnd@@UAE_NXZ:PROC			; ioWnd::iwm_esc
EXTRN	?iwm_spacebar@ioWnd@@UAE_NXZ:PROC		; ioWnd::iwm_spacebar
EXTRN	?iwm_gototop@ioWnd@@UAEXXZ:PROC			; ioWnd::iwm_gototop
EXTRN	?iwm_dragenter@ioWnd@@UAE?AW4IWDropEffect@@PAVioDragItem@@ABVioMouse@@@Z:PROC ; ioWnd::iwm_dragenter
EXTRN	?iwm_dragover@ioWnd@@UAE?AW4IWDropEffect@@PAVioDragItem@@ABVioMouse@@@Z:PROC ; ioWnd::iwm_dragover
EXTRN	?iwm_dragleave@ioWnd@@UAEXXZ:PROC		; ioWnd::iwm_dragleave
EXTRN	?iwm_dropitem@ioWnd@@UAE_NPAVioDragItem@@ABVioMouse@@PAV1@@Z:PROC ; ioWnd::iwm_dropitem
EXTRN	?iwm_dropdone@ioWnd@@UAEXPAVioDragItem@@PAV1@_N@Z:PROC ; ioWnd::iwm_dropdone
EXTRN	?IsEXType@ioWnd@@UBE_NXZ:PROC			; ioWnd::IsEXType
EXTRN	?GetWndType@ioWnd@@UBEKXZ:PROC			; ioWnd::GetWndType
EXTRN	?RenderWnd@ioWnd@@UAEXXZ:PROC			; ioWnd::RenderWnd
EXTRN	?SetIDEX@ioWnd@@UAEXAAK_N@Z:PROC		; ioWnd::SetIDEX
EXTRN	?ParseXML@ioWnd@@UAEXAAVioXMLElement@@@Z:PROC	; ioWnd::ParseXML
EXTRN	?GetHeaderFileName@ioWnd@@UAEPBDXZ:PROC		; ioWnd::GetHeaderFileName
EXTRN	?GetTemplateName@ioWnd@@UAEPBDXZ:PROC		; ioWnd::GetTemplateName
EXTRN	?GetDefClassName@ioWnd@@UBEPBDXZ:PROC		; ioWnd::GetDefClassName
EXTRN	?_Clone@ioWnd@@UAEPAV1@XZ:PROC			; ioWnd::_Clone
EXTRN	?Copy@ioWnd@@UAEXPAV1@@Z:PROC			; ioWnd::Copy
EXTRN	?Save@ioWnd@@UAE_NAAVioXMLElement@@@Z:PROC	; ioWnd::Save
EXTRN	?SetSaveData@ioWnd@@UAEXAAVioXMLElement@@@Z:PROC ; ioWnd::SetSaveData
EXTRN	?SetPosX@ioWnd@@UAEXH@Z:PROC			; ioWnd::SetPosX
EXTRN	?SetPosY@ioWnd@@UAEXH@Z:PROC			; ioWnd::SetPosY
EXTRN	?SetWidth@ioWnd@@UAEXH@Z:PROC			; ioWnd::SetWidth
EXTRN	?SetHeight@ioWnd@@UAEXH@Z:PROC			; ioWnd::SetHeight
EXTRN	?GetNumFixedRenderFrame@ioWnd@@UBEHXZ:PROC	; ioWnd::GetNumFixedRenderFrame
EXTRN	?GetFixedRenderFrameType@ioWnd@@UAEPBDH@Z:PROC	; ioWnd::GetFixedRenderFrameType
EXTRN	?GetRenderFrame@ioWnd@@UAEPAPAVioUIRenderElement@@PBD@Z:PROC ; ioWnd::GetRenderFrame
EXTRN	?GetNumFixedRenderImage@ioWnd@@UBEHXZ:PROC	; ioWnd::GetNumFixedRenderImage
EXTRN	?GetFixedRenderImageType@ioWnd@@UAEPBDH@Z:PROC	; ioWnd::GetFixedRenderImageType
EXTRN	?GetRenderImage@ioWnd@@UAEPAPAVioUIRenderElement@@PBD@Z:PROC ; ioWnd::GetRenderImage
EXTRN	?AddEffect@ioWnd@@UAEXABVioHashString@@PAVioUI3DEffectRender@@@Z:PROC ; ioWnd::AddEffect
EXTRN	?GetEffect@ioWnd@@UAEPAVioUI3DEffectRender@@VioHashString@@@Z:PROC ; ioWnd::GetEffect
EXTRN	??_EBossMonsterGaugeWnd@@UAEPAXI@Z:PROC		; BossMonsterGaugeWnd::`vector deleting destructor'
;	COMDAT ??_R2ioWnd@@8
; File d:\lost saga for developer\youtube\tutorial\source\src\lsclient\gui\bossmonstergaugewnd.cpp
rdata$r	SEGMENT
??_R2ioWnd@@8 DD FLAT:??_R1A@?0A@EA@ioWnd@@8		; ioWnd::`RTTI Base Class Array'
rdata$r	ENDS
;	COMDAT ??_R3ioWnd@@8
rdata$r	SEGMENT
??_R3ioWnd@@8 DD 00H					; ioWnd::`RTTI Class Hierarchy Descriptor'
	DD	00H
	DD	01H
	DD	FLAT:??_R2ioWnd@@8
rdata$r	ENDS
;	COMDAT ??_R0?AVioWnd@@@8
_DATA	SEGMENT
??_R0?AVioWnd@@@8 DD FLAT:??_7type_info@@6B@		; ioWnd `RTTI Type Descriptor'
	DD	00H
	DB	'.?AVioWnd@@', 00H
_DATA	ENDS
;	COMDAT ??_R1A@?0A@EA@ioWnd@@8
rdata$r	SEGMENT
??_R1A@?0A@EA@ioWnd@@8 DD FLAT:??_R0?AVioWnd@@@8	; ioWnd::`RTTI Base Class Descriptor at (0,-1,0,64)'
	DD	00H
	DD	00H
	DD	0ffffffffH
	DD	00H
	DD	040H
	DD	FLAT:??_R3ioWnd@@8
rdata$r	ENDS
;	COMDAT ??_R2ioMovingWnd@@8
rdata$r	SEGMENT
??_R2ioMovingWnd@@8 DD FLAT:??_R1A@?0A@EA@ioMovingWnd@@8 ; ioMovingWnd::`RTTI Base Class Array'
	DD	FLAT:??_R1A@?0A@EA@ioWnd@@8
rdata$r	ENDS
;	COMDAT ??_R3ioMovingWnd@@8
rdata$r	SEGMENT
??_R3ioMovingWnd@@8 DD 00H				; ioMovingWnd::`RTTI Class Hierarchy Descriptor'
	DD	00H
	DD	02H
	DD	FLAT:??_R2ioMovingWnd@@8
rdata$r	ENDS
;	COMDAT ??_R0?AVioMovingWnd@@@8
_DATA	SEGMENT
??_R0?AVioMovingWnd@@@8 DD FLAT:??_7type_info@@6B@	; ioMovingWnd `RTTI Type Descriptor'
	DD	00H
	DB	'.?AVioMovingWnd@@', 00H
_DATA	ENDS
;	COMDAT ??_R1A@?0A@EA@ioMovingWnd@@8
rdata$r	SEGMENT
??_R1A@?0A@EA@ioMovingWnd@@8 DD FLAT:??_R0?AVioMovingWnd@@@8 ; ioMovingWnd::`RTTI Base Class Descriptor at (0,-1,0,64)'
	DD	01H
	DD	00H
	DD	0ffffffffH
	DD	00H
	DD	040H
	DD	FLAT:??_R3ioMovingWnd@@8
rdata$r	ENDS
;	COMDAT ??_R1A@?0A@EA@BossMonsterGaugeWnd@@8
rdata$r	SEGMENT
??_R1A@?0A@EA@BossMonsterGaugeWnd@@8 DD FLAT:??_R0?AVBossMonsterGaugeWnd@@@8 ; BossMonsterGaugeWnd::`RTTI Base Class Descriptor at (0,-1,0,64)'
	DD	02H
	DD	00H
	DD	0ffffffffH
	DD	00H
	DD	040H
	DD	FLAT:??_R3BossMonsterGaugeWnd@@8
rdata$r	ENDS
;	COMDAT ??_R2BossMonsterGaugeWnd@@8
rdata$r	SEGMENT
??_R2BossMonsterGaugeWnd@@8 DD FLAT:??_R1A@?0A@EA@BossMonsterGaugeWnd@@8 ; BossMonsterGaugeWnd::`RTTI Base Class Array'
	DD	FLAT:??_R1A@?0A@EA@ioMovingWnd@@8
	DD	FLAT:??_R1A@?0A@EA@ioWnd@@8
rdata$r	ENDS
;	COMDAT ??_R3BossMonsterGaugeWnd@@8
rdata$r	SEGMENT
??_R3BossMonsterGaugeWnd@@8 DD 00H			; BossMonsterGaugeWnd::`RTTI Class Hierarchy Descriptor'
	DD	00H
	DD	03H
	DD	FLAT:??_R2BossMonsterGaugeWnd@@8
rdata$r	ENDS
;	COMDAT ??_R0?AVBossMonsterGaugeWnd@@@8
_DATA	SEGMENT
??_R0?AVBossMonsterGaugeWnd@@@8 DD FLAT:??_7type_info@@6B@ ; BossMonsterGaugeWnd `RTTI Type Descriptor'
	DD	00H
	DB	'.?AVBossMonsterGaugeWnd@@', 00H
_DATA	ENDS
;	COMDAT ??_R4BossMonsterGaugeWnd@@6B@
rdata$r	SEGMENT
??_R4BossMonsterGaugeWnd@@6B@ DD 00H			; BossMonsterGaugeWnd::`RTTI Complete Object Locator'
	DD	00H
	DD	00H
	DD	FLAT:??_R0?AVBossMonsterGaugeWnd@@@8
	DD	FLAT:??_R3BossMonsterGaugeWnd@@8
rdata$r	ENDS
;	COMDAT ??_C@_04IAEKAMNC@YPos?$AA@
CONST	SEGMENT
??_C@_04IAEKAMNC@YPos?$AA@ DB 'YPos', 00H		; `string'
CONST	ENDS
;	COMDAT ??_C@_04LNCKCFGC@XPos?$AA@
CONST	SEGMENT
??_C@_04LNCKCFGC@XPos?$AA@ DB 'XPos', 00H		; `string'
CONST	ENDS
;	COMDAT ??_C@_0BE@PPIFMGIH@BossMonsterGaugeWnd?$AA@
CONST	SEGMENT
??_C@_0BE@PPIFMGIH@BossMonsterGaugeWnd?$AA@ DB 'BossMonsterGaugeWnd', 00H ; `string'
CONST	ENDS
;	COMDAT ??_7BossMonsterGaugeWnd@@6B@
CONST	SEGMENT
??_7BossMonsterGaugeWnd@@6B@ DD FLAT:??_R4BossMonsterGaugeWnd@@6B@ ; BossMonsterGaugeWnd::`vftable'
	DD	FLAT:?AddRenderFrame@ioWnd@@UAEXABVioHashString@@PAVioUIRenderFrame@@@Z
	DD	FLAT:?AddRenderImage@BossMonsterGaugeWnd@@UAEXABVioHashString@@PAVioUIRenderImage@@@Z
	DD	FLAT:?AddTooltipHelp@ioWnd@@UAEXABVioHashString@@00@Z
	DD	FLAT:?ParseExtraInfo@ioWnd@@UAEXAAVioXMLElement@@@Z
	DD	FLAT:?AddNamedRenderImage@ioWnd@@UAEXABVioHashString@@PAVioUIRenderImage@@@Z
	DD	FLAT:?RemoveNamedRenderImage@ioWnd@@UAEXABVioHashString@@@Z
	DD	FLAT:?GetNamedRenderImage@ioWnd@@UBEPAVioUIRenderImage@@ABVioHashString@@@Z
	DD	FLAT:?SetWindowAlpha@ioWnd@@UAEXH@Z
	DD	FLAT:?SetActive@ioWnd@@UAEXXZ
	DD	FLAT:?SetInActive@ioWnd@@UAEXXZ
	DD	FLAT:?ClearElementImageList@ioWnd@@UAEXXZ
	DD	FLAT:?SetSize@ioWnd@@UAEXHH@Z
	DD	FLAT:?SetPositionToDefault@BossMonsterGaugeWnd@@UAEXHH_N0@Z
	DD	FLAT:?IsNeedProcess@ioWnd@@UBE_NXZ
	DD	FLAT:?IsCanMouseReaction@ioWnd@@UBE_NXZ
	DD	FLAT:?AddChild@ioWnd@@UAEXPAV1@@Z
	DD	FLAT:?DeleteChild@ioWnd@@UAEXK@Z
	DD	FLAT:?DeleteAllChild@ioWnd@@UAEXXZ
	DD	FLAT:?OnRenderShowAndHide@ioWnd@@MAE_NXZ
	DD	FLAT:?OnRenderShowAndHideByDefault@ioWnd@@MAE_NK@Z
	DD	FLAT:?OnRenderShowAndHideByTop@ioWnd@@MAE_NK@Z
	DD	FLAT:?OnRenderShowAndHideByDown@ioWnd@@MAE_NK@Z
	DD	FLAT:?OnRender@BossMonsterGaugeWnd@@MAEXXZ
	DD	FLAT:?OnRenderAfterChild@ioWnd@@MAEXXZ
	DD	FLAT:?OnProcess@BossMonsterGaugeWnd@@MAEXM@Z
	DD	FLAT:?OnMouseProcess@ioMovingWnd@@MAEXABVioMouse@@@Z
	DD	FLAT:?CheckFrameReSize@ioWnd@@MAEXHHHH@Z
	DD	FLAT:?RenderImageList@ioWnd@@MAEXHHW4UIRenderType@@@Z
	DD	FLAT:?iwm_create@BossMonsterGaugeWnd@@UAEXXZ
	DD	FLAT:?iwm_destroy@ioWnd@@UAEXXZ
	DD	FLAT:?iwm_lbuttondown@ioMovingWnd@@UAEXABVioMouse@@@Z
	DD	FLAT:?iwm_lbuttonup@ioMovingWnd@@UAEXABVioMouse@@@Z
	DD	FLAT:?iwm_lbuttonDBLCLK@ioWnd@@UAEXABVioMouse@@@Z
	DD	FLAT:?iwm_rbuttondown@ioWnd@@UAEXABVioMouse@@@Z
	DD	FLAT:?iwm_rbuttonup@ioWnd@@UAEXABVioMouse@@@Z
	DD	FLAT:?iwm_command@ioWnd@@UAEXPAV1@HK@Z
	DD	FLAT:?iwm_mouseover@ioWnd@@UAEXABVioMouse@@@Z
	DD	FLAT:?iwm_mousemove@ioWnd@@UAEXABVioMouse@@@Z
	DD	FLAT:?iwm_mouseleave@ioWnd@@UAEXABVioMouse@@@Z
	DD	FLAT:?iwm_vscroll@ioWnd@@UAEXKH@Z
	DD	FLAT:?iwm_wheel@ioWnd@@UAEXH@Z
	DD	FLAT:?iwm_show@ioWnd@@UAEXXZ
	DD	FLAT:?iwm_hide@ioWnd@@UAEXXZ
	DD	FLAT:?iwm_esc@ioWnd@@UAE_NXZ
	DD	FLAT:?iwm_spacebar@ioWnd@@UAE_NXZ
	DD	FLAT:?iwm_gototop@ioWnd@@UAEXXZ
	DD	FLAT:?iwm_dragenter@ioWnd@@UAE?AW4IWDropEffect@@PAVioDragItem@@ABVioMouse@@@Z
	DD	FLAT:?iwm_dragover@ioWnd@@UAE?AW4IWDropEffect@@PAVioDragItem@@ABVioMouse@@@Z
	DD	FLAT:?iwm_dragleave@ioWnd@@UAEXXZ
	DD	FLAT:?iwm_dropitem@ioWnd@@UAE_NPAVioDragItem@@ABVioMouse@@PAV1@@Z
	DD	FLAT:?iwm_dropdone@ioWnd@@UAEXPAVioDragItem@@PAV1@_N@Z
	DD	FLAT:?IsEXType@ioWnd@@UBE_NXZ
	DD	FLAT:?GetWndType@ioWnd@@UBEKXZ
	DD	FLAT:?RenderWnd@ioWnd@@UAEXXZ
	DD	FLAT:?SetIDEX@ioWnd@@UAEXAAK_N@Z
	DD	FLAT:?ParseXML@ioWnd@@UAEXAAVioXMLElement@@@Z
	DD	FLAT:?GetHeaderFileName@ioWnd@@UAEPBDXZ
	DD	FLAT:?GetTemplateName@ioWnd@@UAEPBDXZ
	DD	FLAT:?GetDefClassName@ioWnd@@UBEPBDXZ
	DD	FLAT:?_Clone@ioWnd@@UAEPAV1@XZ
	DD	FLAT:?Copy@ioWnd@@UAEXPAV1@@Z
	DD	FLAT:?Save@ioWnd@@UAE_NAAVioXMLElement@@@Z
	DD	FLAT:?SetSaveData@ioWnd@@UAEXAAVioXMLElement@@@Z
	DD	FLAT:?SetPosX@ioWnd@@UAEXH@Z
	DD	FLAT:?SetPosY@ioWnd@@UAEXH@Z
	DD	FLAT:?SetWidth@ioWnd@@UAEXH@Z
	DD	FLAT:?SetHeight@ioWnd@@UAEXH@Z
	DD	FLAT:?GetNumFixedRenderFrame@ioWnd@@UBEHXZ
	DD	FLAT:?GetFixedRenderFrameType@ioWnd@@UAEPBDH@Z
	DD	FLAT:?GetRenderFrame@ioWnd@@UAEPAPAVioUIRenderElement@@PBD@Z
	DD	FLAT:?GetNumFixedRenderImage@ioWnd@@UBEHXZ
	DD	FLAT:?GetFixedRenderImageType@ioWnd@@UAEPBDH@Z
	DD	FLAT:?GetRenderImage@ioWnd@@UAEPAPAVioUIRenderElement@@PBD@Z
	DD	FLAT:?AddEffect@ioWnd@@UAEXABVioHashString@@PAVioUI3DEffectRender@@@Z
	DD	FLAT:?GetEffect@ioWnd@@UAEPAVioUI3DEffectRender@@VioHashString@@@Z
	DD	FLAT:??_EBossMonsterGaugeWnd@@UAEPAXI@Z
CONST	ENDS
;	COMDAT xdata$x
xdata$x	SEGMENT
__unwindtable$??1BossMonsterGaugeWnd@@UAE@XZ DD 0ffffffffH
	DD	FLAT:__unwindfunclet$??1BossMonsterGaugeWnd@@UAE@XZ$0
	DD	00H
	DD	FLAT:__unwindfunclet$??1BossMonsterGaugeWnd@@UAE@XZ$1
	DD	01H
	DD	FLAT:__unwindfunclet$??1BossMonsterGaugeWnd@@UAE@XZ$2
	DD	02H
	DD	FLAT:__unwindfunclet$??1BossMonsterGaugeWnd@@UAE@XZ$3
__ehfuncinfo$??1BossMonsterGaugeWnd@@UAE@XZ DD 019930522H
	DD	04H
	DD	FLAT:__unwindtable$??1BossMonsterGaugeWnd@@UAE@XZ
	DD	2 DUP(00H)
	DD	2 DUP(00H)
	DD	00H
	DD	01H
; Function compile flags: /Ogsp
xdata$x	ENDS
;	COMDAT ??1BossMonsterGaugeWnd@@UAE@XZ
_TEXT	SEGMENT
_this$ = -16						; size = 4
__$EHRec$ = -12						; size = 12
??1BossMonsterGaugeWnd@@UAE@XZ PROC			; BossMonsterGaugeWnd::~BossMonsterGaugeWnd, COMDAT
; _this$ = ecx

; 32   : {

  00000	6a 04		 push	 4
  00002	b8 00 00 00 00	 mov	 eax, __ehhandler$??1BossMonsterGaugeWnd@@UAE@XZ
  00007	e8 00 00 00 00	 call	 __EH_prolog3
  0000c	8b f1		 mov	 esi, ecx
  0000e	89 75 f0	 mov	 DWORD PTR _this$[ebp], esi
  00011	c7 06 00 00 00
	00		 mov	 DWORD PTR [esi], OFFSET ??_7BossMonsterGaugeWnd@@6B@

; 33   : 	SAFEDELETE( m_pIconBackOrange );

  00017	8b 8e 90 01 00
	00		 mov	 ecx, DWORD PTR [esi+400]
  0001d	33 db		 xor	 ebx, ebx
  0001f	c7 45 fc 03 00
	00 00		 mov	 DWORD PTR __$EHRec$[ebp+8], 3
  00026	3b cb		 cmp	 ecx, ebx
  00028	74 0d		 je	 SHORT $LN9@BossMonste
  0002a	8b 01		 mov	 eax, DWORD PTR [ecx]
  0002c	6a 01		 push	 1
  0002e	ff 50 40	 call	 DWORD PTR [eax+64]
  00031	89 9e 90 01 00
	00		 mov	 DWORD PTR [esi+400], ebx
$LN9@BossMonste:

; 34   : 	SAFEDELETE( m_pIconBackRed );

  00037	8b 8e 94 01 00
	00		 mov	 ecx, DWORD PTR [esi+404]
  0003d	3b cb		 cmp	 ecx, ebx
  0003f	74 0d		 je	 SHORT $LN8@BossMonste
  00041	8b 01		 mov	 eax, DWORD PTR [ecx]
  00043	6a 01		 push	 1
  00045	ff 50 40	 call	 DWORD PTR [eax+64]
  00048	89 9e 94 01 00
	00		 mov	 DWORD PTR [esi+404], ebx
$LN8@BossMonste:

; 35   : 	SAFEDELETE( m_pGaugeBack );

  0004e	8b 8e 98 01 00
	00		 mov	 ecx, DWORD PTR [esi+408]
  00054	3b cb		 cmp	 ecx, ebx
  00056	74 0d		 je	 SHORT $LN7@BossMonste
  00058	8b 01		 mov	 eax, DWORD PTR [ecx]
  0005a	6a 01		 push	 1
  0005c	ff 50 40	 call	 DWORD PTR [eax+64]
  0005f	89 9e 98 01 00
	00		 mov	 DWORD PTR [esi+408], ebx
$LN7@BossMonste:

; 36   : 	SAFEDELETE( m_pGaugeOrange );

  00065	8b 8e 9c 01 00
	00		 mov	 ecx, DWORD PTR [esi+412]
  0006b	3b cb		 cmp	 ecx, ebx
  0006d	74 0d		 je	 SHORT $LN6@BossMonste
  0006f	8b 01		 mov	 eax, DWORD PTR [ecx]
  00071	6a 01		 push	 1
  00073	ff 50 40	 call	 DWORD PTR [eax+64]
  00076	89 9e 9c 01 00
	00		 mov	 DWORD PTR [esi+412], ebx
$LN6@BossMonste:

; 37   : 	SAFEDELETE( m_pGaugeRed );

  0007c	8b 8e a0 01 00
	00		 mov	 ecx, DWORD PTR [esi+416]
  00082	3b cb		 cmp	 ecx, ebx
  00084	74 0d		 je	 SHORT $LN5@BossMonste
  00086	8b 01		 mov	 eax, DWORD PTR [ecx]
  00088	6a 01		 push	 1
  0008a	ff 50 40	 call	 DWORD PTR [eax+64]
  0008d	89 9e a0 01 00
	00		 mov	 DWORD PTR [esi+416], ebx
$LN5@BossMonste:

; 38   : 	SAFEDELETE( m_pMonsterIcon );

  00093	8b 8e a4 01 00
	00		 mov	 ecx, DWORD PTR [esi+420]
  00099	3b cb		 cmp	 ecx, ebx
  0009b	74 0d		 je	 SHORT $LN4@BossMonste
  0009d	8b 01		 mov	 eax, DWORD PTR [ecx]
  0009f	6a 01		 push	 1
  000a1	ff 50 40	 call	 DWORD PTR [eax+64]
  000a4	89 9e a4 01 00
	00		 mov	 DWORD PTR [esi+420], ebx
$LN4@BossMonste:

; 39   : 
; 40   : 	if( !COMPARE( m_iDefaultX, 0, Setting::Width() ) || 
; 41   : 		!COMPARE( m_iDefaultY, 0, Setting::Height() ) )

  000aa	39 9e d8 01 00
	00		 cmp	 DWORD PTR [esi+472], ebx
  000b0	7c 5b		 jl	 SHORT $LN1@BossMonste
  000b2	e8 00 00 00 00	 call	 ?Width@Setting@@SAHXZ	; Setting::Width
  000b7	39 86 d8 01 00
	00		 cmp	 DWORD PTR [esi+472], eax
  000bd	7d 4e		 jge	 SHORT $LN1@BossMonste
  000bf	39 9e dc 01 00
	00		 cmp	 DWORD PTR [esi+476], ebx
  000c5	7c 46		 jl	 SHORT $LN1@BossMonste
  000c7	e8 00 00 00 00	 call	 ?Height@Setting@@SAHXZ	; Setting::Height
  000cc	39 86 dc 01 00
	00		 cmp	 DWORD PTR [esi+476], eax
  000d2	7d 39		 jge	 SHORT $LN1@BossMonste

; 42   : 		return;
; 43   : 
; 44   : 	g_GUIMgr.GUIPosSaveInt( "BossMonsterGaugeWnd", "XPos", m_iDefaultX ,POS_SAVE_VERSION );

  000d4	6a 04		 push	 4
  000d6	ff b6 d8 01 00
	00		 push	 DWORD PTR [esi+472]
  000dc	bf 00 00 00 00	 mov	 edi, OFFSET ??_C@_0BE@PPIFMGIH@BossMonsterGaugeWnd?$AA@
  000e1	68 00 00 00 00	 push	 OFFSET ??_C@_04LNCKCFGC@XPos?$AA@
  000e6	57		 push	 edi
  000e7	e8 00 00 00 00	 call	 ?GetSingleton@ioSP2GUIManager@@SAAAV1@XZ ; ioSP2GUIManager::GetSingleton
  000ec	8b c8		 mov	 ecx, eax
  000ee	e8 00 00 00 00	 call	 ?GUIPosSaveInt@ioSP2GUIManager@@QAEHPBD0HH@Z ; ioSP2GUIManager::GUIPosSaveInt

; 45   : 	g_GUIMgr.GUIPosSaveInt( "BossMonsterGaugeWnd", "YPos", m_iDefaultY ,POS_SAVE_VERSION );

  000f3	6a 04		 push	 4
  000f5	ff b6 dc 01 00
	00		 push	 DWORD PTR [esi+476]
  000fb	68 00 00 00 00	 push	 OFFSET ??_C@_04IAEKAMNC@YPos?$AA@
  00100	57		 push	 edi
  00101	e8 00 00 00 00	 call	 ?GetSingleton@ioSP2GUIManager@@SAAAV1@XZ ; ioSP2GUIManager::GetSingleton
  00106	8b c8		 mov	 ecx, eax
  00108	e8 00 00 00 00	 call	 ?GUIPosSaveInt@ioSP2GUIManager@@QAEHPBD0HH@Z ; ioSP2GUIManager::GUIPosSaveInt
$LN1@BossMonste:

; 46   : }

  0010d	8b 3d 00 00 00
	00		 mov	 edi, DWORD PTR __imp_??1ioHashString@@QAE@XZ
  00113	8d 8e f4 01 00
	00		 lea	 ecx, DWORD PTR [esi+500]
  00119	c6 45 fc 02	 mov	 BYTE PTR __$EHRec$[ebp+8], 2
  0011d	ff d7		 call	 edi
  0011f	8d 8e e4 01 00
	00		 lea	 ecx, DWORD PTR [esi+484]
  00125	c6 45 fc 01	 mov	 BYTE PTR __$EHRec$[ebp+8], 1
  00129	ff d7		 call	 edi
  0012b	8d 8e a8 01 00
	00		 lea	 ecx, DWORD PTR [esi+424]
  00131	88 5d fc	 mov	 BYTE PTR __$EHRec$[ebp+8], bl
  00134	e8 00 00 00 00	 call	 ??1FSMStateMgr@@UAE@XZ	; FSMStateMgr::~FSMStateMgr
  00139	83 4d fc ff	 or	 DWORD PTR __$EHRec$[ebp+8], -1
  0013d	8b ce		 mov	 ecx, esi
  0013f	ff 15 00 00 00
	00		 call	 DWORD PTR __imp_??1ioMovingWnd@@UAE@XZ
  00145	e8 00 00 00 00	 call	 __EH_epilog3
  0014a	c3		 ret	 0
_TEXT	ENDS
;	COMDAT text$x
text$x	SEGMENT
__unwindfunclet$??1BossMonsterGaugeWnd@@UAE@XZ$0:
  00000	8b 4d f0	 mov	 ecx, DWORD PTR _this$[ebp]
  00003	ff 25 00 00 00
	00		 jmp	 DWORD PTR __imp_??1ioMovingWnd@@UAE@XZ
__unwindfunclet$??1BossMonsterGaugeWnd@@UAE@XZ$1:
  00009	8b 4d f0	 mov	 ecx, DWORD PTR _this$[ebp]
  0000c	81 c1 a8 01 00
	00		 add	 ecx, 424		; 000001a8H
  00012	e9 00 00 00 00	 jmp	 ??1FSMStateMgr@@UAE@XZ	; FSMStateMgr::~FSMStateMgr
__unwindfunclet$??1BossMonsterGaugeWnd@@UAE@XZ$2:
  00017	8b 4d f0	 mov	 ecx, DWORD PTR _this$[ebp]
  0001a	81 c1 e4 01 00
	00		 add	 ecx, 484		; 000001e4H
  00020	ff 25 00 00 00
	00		 jmp	 DWORD PTR __imp_??1ioHashString@@QAE@XZ
__unwindfunclet$??1BossMonsterGaugeWnd@@UAE@XZ$3:
  00026	8b 4d f0	 mov	 ecx, DWORD PTR _this$[ebp]
  00029	81 c1 f4 01 00
	00		 add	 ecx, 500		; 000001f4H
  0002f	ff 25 00 00 00
	00		 jmp	 DWORD PTR __imp_??1ioHashString@@QAE@XZ
__ehhandler$??1BossMonsterGaugeWnd@@UAE@XZ:
  00035	8b 54 24 08	 mov	 edx, DWORD PTR [esp+8]
  00039	8d 42 0c	 lea	 eax, DWORD PTR [edx+12]
  0003c	8b 4a ec	 mov	 ecx, DWORD PTR [edx-20]
  0003f	33 c8		 xor	 ecx, eax
  00041	e8 00 00 00 00	 call	 @__security_check_cookie@4
  00046	b8 00 00 00 00	 mov	 eax, OFFSET __ehfuncinfo$??1BossMonsterGaugeWnd@@UAE@XZ
  0004b	e9 00 00 00 00	 jmp	 ___CxxFrameHandler3
text$x	ENDS
??1BossMonsterGaugeWnd@@UAE@XZ ENDP			; BossMonsterGaugeWnd::~BossMonsterGaugeWnd
PUBLIC	?return1@@YAIXZ					; return1
; Function compile flags: /Ogsp
; File d:\lost saga for developer\youtube\tutorial\source\src\lsclient\stdafx.h
;	COMDAT ?return1@@YAIXZ
_TEXT	SEGMENT
?return1@@YAIXZ PROC					; return1, COMDAT

; 17   : 	__forceinline unsigned int return1() { __asm mov eax, 1 };

  00000	b8 01 00 00 00	 mov	 eax, 1
  00005	c3		 ret	 0
?return1@@YAIXZ ENDP					; return1
_TEXT	ENDS
PUBLIC	?return5@@YAIXZ					; return5
; Function compile flags: /Ogsp
;	COMDAT ?return5@@YAIXZ
_TEXT	SEGMENT
?return5@@YAIXZ PROC					; return5, COMDAT

; 18   : 	__forceinline unsigned int return5() { __asm mov eax, 5 };

  00000	b8 05 00 00 00	 mov	 eax, 5
  00005	c3		 ret	 0
?return5@@YAIXZ ENDP					; return5
_TEXT	ENDS
PUBLIC	?return9@@YAIXZ					; return9
; Function compile flags: /Ogsp
;	COMDAT ?return9@@YAIXZ
_TEXT	SEGMENT
?return9@@YAIXZ PROC					; return9, COMDAT

; 20   : 	__forceinline unsigned int return9() { __asm mov eax, 9 };

  00000	b8 09 00 00 00	 mov	 eax, 9
  00005	c3		 ret	 0
?return9@@YAIXZ ENDP					; return9
_TEXT	ENDS
PUBLIC	?return10@@YAIXZ				; return10
; Function compile flags: /Ogsp
;	COMDAT ?return10@@YAIXZ
_TEXT	SEGMENT
?return10@@YAIXZ PROC					; return10, COMDAT

; 21   : 	__forceinline unsigned int return10() { __asm mov eax, 10 };

  00000	b8 0a 00 00 00	 mov	 eax, 10			; 0000000aH
  00005	c3		 ret	 0
?return10@@YAIXZ ENDP					; return10
_TEXT	ENDS
PUBLIC	?return100@@YAIXZ				; return100
; Function compile flags: /Ogsp
;	COMDAT ?return100@@YAIXZ
_TEXT	SEGMENT
?return100@@YAIXZ PROC					; return100, COMDAT

; 25   : 	__forceinline unsigned int return100() { __asm mov eax, 100 };

  00000	b8 64 00 00 00	 mov	 eax, 100		; 00000064H
  00005	c3		 ret	 0
?return100@@YAIXZ ENDP					; return100
_TEXT	ENDS
PUBLIC	?return1000@@YAIXZ				; return1000
; Function compile flags: /Ogsp
;	COMDAT ?return1000@@YAIXZ
_TEXT	SEGMENT
?return1000@@YAIXZ PROC					; return1000, COMDAT

; 29   : 	__forceinline unsigned int return1000() { __asm mov eax, 1000 };

  00000	b8 e8 03 00 00	 mov	 eax, 1000		; 000003e8H
  00005	c3		 ret	 0
?return1000@@YAIXZ ENDP					; return1000
_TEXT	ENDS
PUBLIC	?return1000000000@@YAIXZ			; return1000000000
; Function compile flags: /Ogsp
;	COMDAT ?return1000000000@@YAIXZ
_TEXT	SEGMENT
?return1000000000@@YAIXZ PROC				; return1000000000, COMDAT

; 30   : 	__forceinline unsigned int return1000000000() { __asm mov eax, 1000000000 };

  00000	b8 00 ca 9a 3b	 mov	 eax, 1000000000		; 3b9aca00H
  00005	c3		 ret	 0
?return1000000000@@YAIXZ ENDP				; return1000000000
_TEXT	ENDS
PUBLIC	?return_PI@@YAIXZ				; return_PI
; Function compile flags: /Ogsp
;	COMDAT ?return_PI@@YAIXZ
_TEXT	SEGMENT
?return_PI@@YAIXZ PROC					; return_PI, COMDAT

; 31   : 	__forceinline unsigned int return_PI() { __asm mov eax,   3141592654 };

  00000	b8 4e e6 40 bb	 mov	 eax, -1153374642	; bb40e64eH
  00005	c3		 ret	 0
?return_PI@@YAIXZ ENDP					; return_PI
_TEXT	ENDS
PUBLIC	__real@4f800000
PUBLIC	?UpdateGaugeAni@BossMonsterGaugeWnd@@IAEXXZ	; BossMonsterGaugeWnd::UpdateGaugeAni
EXTRN	__imp_?GetLoopSec@ioFrameTimer@@QBEKXZ:PROC
EXTRN	__imp_?GetSingleton@ioFrameTimer@@SAAAV1@XZ:PROC
EXTRN	__fltused:DWORD
;	COMDAT __real@4f800000
CONST	SEGMENT
__real@4f800000 DD 04f800000r			; 4.29497e+009
; Function compile flags: /Ogsp
; File d:\lost saga for developer\youtube\tutorial\source\src\lsclient\gui\bossmonstergaugewnd.cpp
CONST	ENDS
;	COMDAT ?UpdateGaugeAni@BossMonsterGaugeWnd@@IAEXXZ
_TEXT	SEGMENT
tv219 = -8						; size = 4
tv204 = -8						; size = 4
tv222 = -4						; size = 4
_fTick$505274 = -4					; size = 4
_fTime$ = -4						; size = 4
?UpdateGaugeAni@BossMonsterGaugeWnd@@IAEXXZ PROC	; BossMonsterGaugeWnd::UpdateGaugeAni, COMDAT
; _this$ = ecx

; 80   : {	

  00000	55		 push	 ebp
  00001	8b ec		 mov	 ebp, esp
  00003	51		 push	 ecx
  00004	51		 push	 ecx
  00005	56		 push	 esi
  00006	8b f1		 mov	 esi, ecx

; 81   : 	float fTime = (float)FRAMEGETTIME();

  00008	ff 15 00 00 00
	00		 call	 DWORD PTR __imp_?GetSingleton@ioFrameTimer@@SAAAV1@XZ
  0000e	8b c8		 mov	 ecx, eax
  00010	ff 15 00 00 00
	00		 call	 DWORD PTR __imp_?GetLoopSec@ioFrameTimer@@QBEKXZ
  00016	89 45 fc	 mov	 DWORD PTR tv222[ebp], eax
  00019	db 45 fc	 fild	 DWORD PTR tv222[ebp]
  0001c	85 c0		 test	 eax, eax
  0001e	79 06		 jns	 SHORT $LN12@UpdateGaug
  00020	d8 05 00 00 00
	00		 fadd	 DWORD PTR __real@4f800000
$LN12@UpdateGaug:
  00026	d9 5d fc	 fstp	 DWORD PTR _fTime$[ebp]

; 82   : 	if( fTime - m_fScreenTime > FLOAT100 )

  00029	b8 64 00 00 00	 mov	 eax, 100		; 00000064H
  0002e	d9 45 fc	 fld	 DWORD PTR _fTime$[ebp]
  00031	89 45 f8	 mov	 DWORD PTR tv219[ebp], eax
  00034	d8 a6 18 02 00
	00		 fsub	 DWORD PTR [esi+536]
  0003a	db 45 f8	 fild	 DWORD PTR tv219[ebp]
  0003d	85 c0		 test	 eax, eax
  0003f	79 06		 jns	 SHORT $LN13@UpdateGaug
  00041	d8 05 00 00 00
	00		 fadd	 DWORD PTR __real@4f800000
$LN13@UpdateGaug:
  00047	f3 0f 10 5d fc	 movss	 xmm3, DWORD PTR _fTime$[ebp]
  0004c	d9 c9		 fxch	 ST(1)
  0004e	df f1		 fcomip	 ST(1)
  00050	dd d8		 fstp	 ST(0)
  00052	76 18		 jbe	 SHORT $LN3@UpdateGaug

; 83   : 	{
; 84   : 		m_fScreenTime = fTime;
; 85   : 		m_bScreen = !m_bScreen;

  00054	80 be 14 02 00
	00 00		 cmp	 BYTE PTR [esi+532], 0
  0005b	f3 0f 11 9e 18
	02 00 00	 movss	 DWORD PTR [esi+536], xmm3
  00063	0f 94 c1	 sete	 cl
  00066	88 8e 14 02 00
	00		 mov	 BYTE PTR [esi+532], cl
$LN3@UpdateGaug:

; 86   : 	}
; 87   : 
; 88   : 	if( m_fAniHP > m_fCurHP )

  0006c	f3 0f 10 86 0c
	02 00 00	 movss	 xmm0, DWORD PTR [esi+524]
  00074	f3 0f 10 8e 08
	02 00 00	 movss	 xmm1, DWORD PTR [esi+520]
  0007c	0f 5a c0	 cvtps2pd xmm0, xmm0
  0007f	0f 5a c9	 cvtps2pd xmm1, xmm1
  00082	66 0f 2f c1	 comisd	 xmm0, xmm1
  00086	0f 86 8b 00 00
	00		 jbe	 $LN1@UpdateGaug

; 89   : 	{
; 90   : 		float fTick = FLOAT1000;

  0008c	b8 e8 03 00 00	 mov	 eax, 1000		; 000003e8H
  00091	89 45 f8	 mov	 DWORD PTR tv204[ebp], eax
  00094	db 45 f8	 fild	 DWORD PTR tv204[ebp]
  00097	85 c0		 test	 eax, eax
  00099	79 06		 jns	 SHORT $LN14@UpdateGaug
  0009b	d8 05 00 00 00
	00		 fadd	 DWORD PTR __real@4f800000
$LN14@UpdateGaug:

; 91   : 		float fGapTime = fTime - m_fCurAniTime;

  000a1	f3 0f 10 8e 10
	02 00 00	 movss	 xmm1, DWORD PTR [esi+528]
  000a9	d9 5d fc	 fstp	 DWORD PTR _fTick$505274[ebp]

; 92   : 		m_fAniHP = max( m_fCurHP, m_fAniHP - ( fGapTime / fTick ) );

  000ac	f3 0f 10 6d fc	 movss	 xmm5, DWORD PTR _fTick$505274[ebp]
  000b1	0f 5a c3	 cvtps2pd xmm0, xmm3
  000b4	0f 5a c9	 cvtps2pd xmm1, xmm1
  000b7	f2 0f 5c c1	 subsd	 xmm0, xmm1
  000bb	f3 0f 10 8e 08
	02 00 00	 movss	 xmm1, DWORD PTR [esi+520]
  000c3	0f 57 d2	 xorps	 xmm2, xmm2
  000c6	66 0f 5a d0	 cvtpd2ps xmm2, xmm0
  000ca	f3 0f 10 86 0c
	02 00 00	 movss	 xmm0, DWORD PTR [esi+524]
  000d2	0f 5a e2	 cvtps2pd xmm4, xmm2
  000d5	0f 5a ed	 cvtps2pd xmm5, xmm5
  000d8	f2 0f 5e e5	 divsd	 xmm4, xmm5
  000dc	0f 5a c0	 cvtps2pd xmm0, xmm0
  000df	f2 0f 5c c4	 subsd	 xmm0, xmm4
  000e3	0f 5a e1	 cvtps2pd xmm4, xmm1
  000e6	66 0f 2f e0	 comisd	 xmm4, xmm0
  000ea	76 06		 jbe	 SHORT $LN6@UpdateGaug
  000ec	0f 57 c0	 xorps	 xmm0, xmm0
  000ef	0f 5a c1	 cvtps2pd xmm0, xmm1
$LN6@UpdateGaug:

; 93   : 		if( fGapTime >= fTick )

  000f2	f3 0f 10 4d fc	 movss	 xmm1, DWORD PTR _fTick$505274[ebp]
  000f7	66 0f 5a c0	 cvtpd2ps xmm0, xmm0
  000fb	f3 0f 11 86 0c
	02 00 00	 movss	 DWORD PTR [esi+524], xmm0
  00103	0f 5a c9	 cvtps2pd xmm1, xmm1
  00106	0f 5a c2	 cvtps2pd xmm0, xmm2
  00109	66 0f 2f c1	 comisd	 xmm0, xmm1
  0010d	72 08		 jb	 SHORT $LN1@UpdateGaug

; 94   : 			m_fCurAniTime = fTime;

  0010f	f3 0f 11 9e 10
	02 00 00	 movss	 DWORD PTR [esi+528], xmm3
$LN1@UpdateGaug:
  00117	5e		 pop	 esi

; 95   : 	}
; 96   : }

  00118	c9		 leave
  00119	c3		 ret	 0
?UpdateGaugeAni@BossMonsterGaugeWnd@@IAEXXZ ENDP	; BossMonsterGaugeWnd::UpdateGaugeAni
_TEXT	ENDS
EXTRN	__imp_?GetDerivedPosY@ioWnd@@QBEHXZ:PROC
EXTRN	__imp_?GetDerivedPosX@ioWnd@@QBEHXZ:PROC
EXTRN	__imp_?SetWndPos@ioWnd@@QAEXHH@Z:PROC
EXTRN	__imp_?GetYPos@ioWnd@@QBEHXZ:PROC
EXTRN	?GUIPosLoadInt@ioSP2GUIManager@@QAEHPBD0HH@Z:PROC ; ioSP2GUIManager::GUIPosLoadInt
EXTRN	__imp_?GetXPos@ioWnd@@QBEHXZ:PROC
; Function compile flags: /Ogsp
;	COMDAT ?iwm_create@BossMonsterGaugeWnd@@UAEXXZ
_TEXT	SEGMENT
?iwm_create@BossMonsterGaugeWnd@@UAEXXZ PROC		; BossMonsterGaugeWnd::iwm_create, COMDAT
; _this$ = ecx

; 208  : {

  00000	53		 push	 ebx
  00001	56		 push	 esi
  00002	57		 push	 edi

; 209  : 	int iXPos = g_GUIMgr.GUIPosLoadInt( "BossMonsterGaugeWnd", "XPos", GetXPos() ,POS_SAVE_VERSION );

  00003	6a 04		 push	 4
  00005	8b f9		 mov	 edi, ecx
  00007	ff 15 00 00 00
	00		 call	 DWORD PTR __imp_?GetXPos@ioWnd@@QBEHXZ
  0000d	50		 push	 eax
  0000e	68 00 00 00 00	 push	 OFFSET ??_C@_04LNCKCFGC@XPos?$AA@
  00013	be 00 00 00 00	 mov	 esi, OFFSET ??_C@_0BE@PPIFMGIH@BossMonsterGaugeWnd?$AA@
  00018	56		 push	 esi
  00019	e8 00 00 00 00	 call	 ?GetSingleton@ioSP2GUIManager@@SAAAV1@XZ ; ioSP2GUIManager::GetSingleton
  0001e	8b c8		 mov	 ecx, eax
  00020	e8 00 00 00 00	 call	 ?GUIPosLoadInt@ioSP2GUIManager@@QAEHPBD0HH@Z ; ioSP2GUIManager::GUIPosLoadInt

; 210  : 	int iYPos = g_GUIMgr.GUIPosLoadInt( "BossMonsterGaugeWnd", "YPos", GetYPos() ,POS_SAVE_VERSION );

  00025	6a 04		 push	 4
  00027	8b cf		 mov	 ecx, edi
  00029	8b d8		 mov	 ebx, eax
  0002b	ff 15 00 00 00
	00		 call	 DWORD PTR __imp_?GetYPos@ioWnd@@QBEHXZ
  00031	50		 push	 eax
  00032	68 00 00 00 00	 push	 OFFSET ??_C@_04IAEKAMNC@YPos?$AA@
  00037	56		 push	 esi
  00038	e8 00 00 00 00	 call	 ?GetSingleton@ioSP2GUIManager@@SAAAV1@XZ ; ioSP2GUIManager::GetSingleton
  0003d	8b c8		 mov	 ecx, eax
  0003f	e8 00 00 00 00	 call	 ?GUIPosLoadInt@ioSP2GUIManager@@QAEHPBD0HH@Z ; ioSP2GUIManager::GUIPosLoadInt
  00044	8b f0		 mov	 esi, eax

; 211  : 
; 212  : 	if( COMPARE( iXPos, 0, Setting::Width() ) && 
; 213  : 		COMPARE( iYPos, 0, Setting::Height() ) )

  00046	85 db		 test	 ebx, ebx
  00048	78 20		 js	 SHORT $LN2@iwm_create
  0004a	e8 00 00 00 00	 call	 ?Width@Setting@@SAHXZ	; Setting::Width
  0004f	3b d8		 cmp	 ebx, eax
  00051	7d 17		 jge	 SHORT $LN2@iwm_create
  00053	85 f6		 test	 esi, esi
  00055	78 13		 js	 SHORT $LN2@iwm_create
  00057	e8 00 00 00 00	 call	 ?Height@Setting@@SAHXZ	; Setting::Height
  0005c	3b f0		 cmp	 esi, eax
  0005e	7d 0a		 jge	 SHORT $LN2@iwm_create

; 214  : 	{
; 215  : 		SetWndPos( iXPos, iYPos );

  00060	56		 push	 esi
  00061	53		 push	 ebx
  00062	8b cf		 mov	 ecx, edi
  00064	ff 15 00 00 00
	00		 call	 DWORD PTR __imp_?SetWndPos@ioWnd@@QAEXHH@Z
$LN2@iwm_create:

; 216  : 	}
; 217  : 
; 218  : 	m_iDefaultX = GetDerivedPosX();

  0006a	8b cf		 mov	 ecx, edi
  0006c	ff 15 00 00 00
	00		 call	 DWORD PTR __imp_?GetDerivedPosX@ioWnd@@QBEHXZ

; 219  : 	m_iDefaultY = GetDerivedPosY();

  00072	8b cf		 mov	 ecx, edi
  00074	89 87 d8 01 00
	00		 mov	 DWORD PTR [edi+472], eax
  0007a	ff 15 00 00 00
	00		 call	 DWORD PTR __imp_?GetDerivedPosY@ioWnd@@QBEHXZ
  00080	89 87 dc 01 00
	00		 mov	 DWORD PTR [edi+476], eax

; 220  : 
; 221  : 	if( m_bPosToDefualt )

  00086	80 3d 00 00 00
	00 00		 cmp	 BYTE PTR ?m_bPosToDefualt@BossMonsterGaugeWnd@@1_NA, 0 ; BossMonsterGaugeWnd::m_bPosToDefualt
  0008d	74 1e		 je	 SHORT $LN1@iwm_create

; 222  : 	{
; 223  : 		m_bPosToDefualt = false;
; 224  : 		SetPositionToDefault( Setting::Width(), Setting::Height(), true );

  0008f	6a 00		 push	 0
  00091	c6 05 00 00 00
	00 00		 mov	 BYTE PTR ?m_bPosToDefualt@BossMonsterGaugeWnd@@1_NA, 0 ; BossMonsterGaugeWnd::m_bPosToDefualt
  00098	8b 37		 mov	 esi, DWORD PTR [edi]
  0009a	6a 01		 push	 1
  0009c	e8 00 00 00 00	 call	 ?Height@Setting@@SAHXZ	; Setting::Height
  000a1	50		 push	 eax
  000a2	e8 00 00 00 00	 call	 ?Width@Setting@@SAHXZ	; Setting::Width
  000a7	50		 push	 eax
  000a8	8b cf		 mov	 ecx, edi
  000aa	ff 56 30	 call	 DWORD PTR [esi+48]
$LN1@iwm_create:

; 225  : 	}
; 226  : }

  000ad	5f		 pop	 edi
  000ae	5e		 pop	 esi
  000af	5b		 pop	 ebx
  000b0	c3		 ret	 0
?iwm_create@BossMonsterGaugeWnd@@UAEXXZ ENDP		; BossMonsterGaugeWnd::iwm_create
_TEXT	ENDS
PUBLIC	_cosf
EXTRN	__CIcos:PROC
; Function compile flags: /Ogsp
; File c:\program files (x86)\microsoft visual studio 10.0\vc\include\math.h
;	COMDAT _cosf
_TEXT	SEGMENT
tv69 = 8						; size = 4
__X$ = 8						; size = 4
_cosf	PROC						; COMDAT

; 410  :         {return ((float)cos((double)_X)); }

  00000	55		 push	 ebp
  00001	8b ec		 mov	 ebp, esp
  00003	d9 45 08	 fld	 DWORD PTR __X$[ebp]
  00006	e8 00 00 00 00	 call	 __CIcos
  0000b	d9 5d 08	 fstp	 DWORD PTR tv69[ebp]
  0000e	d9 45 08	 fld	 DWORD PTR tv69[ebp]
  00011	5d		 pop	 ebp
  00012	c3		 ret	 0
_cosf	ENDP
_TEXT	ENDS
PUBLIC	?SetBossMonster@BossMonsterGaugeWnd@@QAEXHABVioHashString@@0AAV2@@Z ; BossMonsterGaugeWnd::SetBossMonster
EXTRN	__imp_?CreateImageByFullName@ioUIImageSetManager@@QAEPAVioUIRenderImage@@ABVioHashString@@_N@Z:PROC
EXTRN	__imp_?GetSingleton@ioUIImageSetManager@@SAAAV1@XZ:PROC
EXTRN	__imp_??4ioHashString@@QAEAAV0@ABV0@@Z:PROC
; Function compile flags: /Ogsp
; File d:\lost saga for developer\youtube\tutorial\source\src\lsclient\gui\bossmonstergaugewnd.cpp
;	COMDAT ?SetBossMonster@BossMonsterGaugeWnd@@QAEXHABVioHashString@@0AAV2@@Z
_TEXT	SEGMENT
_iGaugeType$ = 8					; size = 4
_rkMonsterName$ = 12					; size = 4
_rkMonsterIcon$ = 16					; size = 4
_rkMonsterMent$ = 20					; size = 4
?SetBossMonster@BossMonsterGaugeWnd@@QAEXHABVioHashString@@0AAV2@@Z PROC ; BossMonsterGaugeWnd::SetBossMonster, COMDAT
; _this$ = ecx

; 229  : {

  00000	55		 push	 ebp
  00001	8b ec		 mov	 ebp, esp

; 230  : 	m_eGaugeType = (GaugeType)iGaugeType;

  00003	8b 45 08	 mov	 eax, DWORD PTR _iGaugeType$[ebp]
  00006	56		 push	 esi
  00007	57		 push	 edi

; 231  : 	m_szMonsterName = rkMonsterName;

  00008	ff 75 0c	 push	 DWORD PTR _rkMonsterName$[ebp]
  0000b	8b 3d 00 00 00
	00		 mov	 edi, DWORD PTR __imp_??4ioHashString@@QAEAAV0@ABV0@@Z
  00011	8b f1		 mov	 esi, ecx
  00013	8d 8e e4 01 00
	00		 lea	 ecx, DWORD PTR [esi+484]
  00019	89 86 e0 01 00
	00		 mov	 DWORD PTR [esi+480], eax
  0001f	ff d7		 call	 edi

; 232  : 	m_szMonsterMent = rkMonsterMent;

  00021	ff 75 14	 push	 DWORD PTR _rkMonsterMent$[ebp]
  00024	8d 8e f4 01 00
	00		 lea	 ecx, DWORD PTR [esi+500]
  0002a	ff d7		 call	 edi

; 233  : 	
; 234  : 	SAFEDELETE( m_pMonsterIcon );

  0002c	8b 8e a4 01 00
	00		 mov	 ecx, DWORD PTR [esi+420]
  00032	85 c9		 test	 ecx, ecx
  00034	74 0e		 je	 SHORT $LN1@SetBossMon
  00036	8b 01		 mov	 eax, DWORD PTR [ecx]
  00038	6a 01		 push	 1
  0003a	ff 50 40	 call	 DWORD PTR [eax+64]
  0003d	83 a6 a4 01 00
	00 00		 and	 DWORD PTR [esi+420], 0
$LN1@SetBossMon:

; 235  : 	m_pMonsterIcon = g_UIImageSetMgr.CreateImageByFullName( rkMonsterIcon );

  00044	6a 00		 push	 0
  00046	ff 75 10	 push	 DWORD PTR _rkMonsterIcon$[ebp]
  00049	ff 15 00 00 00
	00		 call	 DWORD PTR __imp_?GetSingleton@ioUIImageSetManager@@SAAAV1@XZ
  0004f	8b c8		 mov	 ecx, eax
  00051	ff 15 00 00 00
	00		 call	 DWORD PTR __imp_?CreateImageByFullName@ioUIImageSetManager@@QAEPAVioUIRenderImage@@ABVioHashString@@_N@Z

; 236  : 
; 237  : 	m_fAniHP = 0.0f;

  00057	0f 57 c0	 xorps	 xmm0, xmm0
  0005a	5f		 pop	 edi
  0005b	89 86 a4 01 00
	00		 mov	 DWORD PTR [esi+420], eax
  00061	f3 0f 11 86 0c
	02 00 00	 movss	 DWORD PTR [esi+524], xmm0
  00069	5e		 pop	 esi

; 238  : }

  0006a	5d		 pop	 ebp
  0006b	c2 10 00	 ret	 16			; 00000010H
?SetBossMonster@BossMonsterGaugeWnd@@QAEXHABVioHashString@@0AAV2@@Z ENDP ; BossMonsterGaugeWnd::SetBossMonster
_TEXT	ENDS
PUBLIC	_sinf
EXTRN	__CIsin:PROC
; Function compile flags: /Ogsp
; File c:\program files (x86)\microsoft visual studio 10.0\vc\include\math.h
;	COMDAT _sinf
_TEXT	SEGMENT
tv69 = 8						; size = 4
__X$ = 8						; size = 4
_sinf	PROC						; COMDAT

; 430  :         {return ((float)sin((double)_X)); }

  00000	55		 push	 ebp
  00001	8b ec		 mov	 ebp, esp
  00003	d9 45 08	 fld	 DWORD PTR __X$[ebp]
  00006	e8 00 00 00 00	 call	 __CIsin
  0000b	d9 5d 08	 fstp	 DWORD PTR tv69[ebp]
  0000e	d9 45 08	 fld	 DWORD PTR tv69[ebp]
  00011	5d		 pop	 ebp
  00012	c3		 ret	 0
_sinf	ENDP
_TEXT	ENDS
PUBLIC	?UpdateBossMonster@BossMonsterGaugeWnd@@QAEXMM@Z ; BossMonsterGaugeWnd::UpdateBossMonster
; Function compile flags: /Ogsp
; File d:\lost saga for developer\youtube\tutorial\source\src\lsclient\gui\bossmonstergaugewnd.cpp
;	COMDAT ?UpdateBossMonster@BossMonsterGaugeWnd@@QAEXMM@Z
_TEXT	SEGMENT
tv148 = 8						; size = 4
_fCurHP$ = 8						; size = 4
_fMaxHP$ = 12						; size = 4
?UpdateBossMonster@BossMonsterGaugeWnd@@QAEXMM@Z PROC	; BossMonsterGaugeWnd::UpdateBossMonster, COMDAT
; _this$ = ecx

; 241  : {

  00000	55		 push	 ebp
  00001	8b ec		 mov	 ebp, esp

; 242  : 	float fPrevHP = m_fCurHP;
; 243  : 	m_fCurHP = fCurHP;
; 244  : 	m_fMaxHP = fMaxHP;
; 245  : 	
; 246  : 	if( m_fAniHP == 0.0f && m_fCurHP > 0.0f )

  00003	0f 57 c0	 xorps	 xmm0, xmm0
  00006	f3 0f 10 4d 08	 movss	 xmm1, DWORD PTR _fCurHP$[ebp]
  0000b	f3 0f 10 55 0c	 movss	 xmm2, DWORD PTR _fMaxHP$[ebp]
  00010	56		 push	 esi
  00011	8b f1		 mov	 esi, ecx
  00013	f3 0f 10 a6 0c
	02 00 00	 movss	 xmm4, DWORD PTR [esi+524]
  0001b	f3 0f 10 9e 08
	02 00 00	 movss	 xmm3, DWORD PTR [esi+520]
  00023	0f 2e e0	 ucomiss xmm4, xmm0
  00026	9f		 lahf
  00027	f3 0f 11 8e 08
	02 00 00	 movss	 DWORD PTR [esi+520], xmm1
  0002f	f3 0f 11 96 04
	02 00 00	 movss	 DWORD PTR [esi+516], xmm2
  00037	f6 c4 44	 test	 ah, 68			; 00000044H
  0003a	7a 0f		 jp	 SHORT $LN3@UpdateBoss
  0003c	0f 2f c8	 comiss	 xmm1, xmm0
  0003f	76 0a		 jbe	 SHORT $LN3@UpdateBoss

; 247  : 	{	
; 248  : 		m_fAniHP = fMaxHP;

  00041	f3 0f 11 96 0c
	02 00 00	 movss	 DWORD PTR [esi+524], xmm2
  00049	eb 34		 jmp	 SHORT $LN1@UpdateBoss
$LN3@UpdateBoss:

; 249  : 	}
; 250  : 	else if( fPrevHP != m_fCurHP )

  0004b	0f 5a c3	 cvtps2pd xmm0, xmm3
  0004e	0f 5a c9	 cvtps2pd xmm1, xmm1
  00051	66 0f 2e c1	 ucomisd xmm0, xmm1
  00055	9f		 lahf
  00056	f6 c4 44	 test	 ah, 68			; 00000044H
  00059	7b 24		 jnp	 SHORT $LN1@UpdateBoss

; 251  : 	{
; 252  : 		m_fCurAniTime = FRAMEGETTIME();

  0005b	ff 15 00 00 00
	00		 call	 DWORD PTR __imp_?GetSingleton@ioFrameTimer@@SAAAV1@XZ
  00061	8b c8		 mov	 ecx, eax
  00063	ff 15 00 00 00
	00		 call	 DWORD PTR __imp_?GetLoopSec@ioFrameTimer@@QBEKXZ
  00069	89 45 08	 mov	 DWORD PTR tv148[ebp], eax
  0006c	db 45 08	 fild	 DWORD PTR tv148[ebp]
  0006f	85 c0		 test	 eax, eax
  00071	79 06		 jns	 SHORT $LN6@UpdateBoss
  00073	d8 05 00 00 00
	00		 fadd	 DWORD PTR __real@4f800000
$LN6@UpdateBoss:
  00079	d9 9e 10 02 00
	00		 fstp	 DWORD PTR [esi+528]
$LN1@UpdateBoss:
  0007f	5e		 pop	 esi

; 253  : 	}
; 254  : }

  00080	5d		 pop	 ebp
  00081	c2 08 00	 ret	 8
?UpdateBossMonster@BossMonsterGaugeWnd@@QAEXMM@Z ENDP	; BossMonsterGaugeWnd::UpdateBossMonster
_TEXT	ENDS
PUBLIC	?SetBlindOffSet@BossMonsterGaugeWnd@@QAEXH@Z	; BossMonsterGaugeWnd::SetBlindOffSet
; Function compile flags: /Ogsp
;	COMDAT ?SetBlindOffSet@BossMonsterGaugeWnd@@QAEXH@Z
_TEXT	SEGMENT
_iYOffSet$ = 8						; size = 4
?SetBlindOffSet@BossMonsterGaugeWnd@@QAEXH@Z PROC	; BossMonsterGaugeWnd::SetBlindOffSet, COMDAT
; _this$ = ecx

; 257  : {

  00000	55		 push	 ebp
  00001	8b ec		 mov	 ebp, esp

; 258  : 	m_iBlindOffSetY = iYOffSet;

  00003	8b 45 08	 mov	 eax, DWORD PTR _iYOffSet$[ebp]
  00006	89 81 d0 01 00
	00		 mov	 DWORD PTR [ecx+464], eax

; 259  : }

  0000c	5d		 pop	 ebp
  0000d	c2 04 00	 ret	 4
?SetBlindOffSet@BossMonsterGaugeWnd@@QAEXH@Z ENDP	; BossMonsterGaugeWnd::SetBlindOffSet
_TEXT	ENDS
PUBLIC	?InitAniState@BossMonsterGaugeWnd@@QAEXXZ	; BossMonsterGaugeWnd::InitAniState
EXTRN	?SetCurState@FSMStateMgr@@QAEXH@Z:PROC		; FSMStateMgr::SetCurState
; Function compile flags: /Ogsp
;	COMDAT ?InitAniState@BossMonsterGaugeWnd@@QAEXXZ
_TEXT	SEGMENT
?InitAniState@BossMonsterGaugeWnd@@QAEXXZ PROC		; BossMonsterGaugeWnd::InitAniState, COMDAT
; _this$ = ecx

; 263  : 	m_ShowAniState.SetCurState( SAT_NONE );

  00000	6a 00		 push	 0
  00002	81 c1 a8 01 00
	00		 add	 ecx, 424		; 000001a8H
  00008	e8 00 00 00 00	 call	 ?SetCurState@FSMStateMgr@@QAEXH@Z ; FSMStateMgr::SetCurState

; 264  : }

  0000d	c3		 ret	 0
?InitAniState@BossMonsterGaugeWnd@@QAEXXZ ENDP		; BossMonsterGaugeWnd::InitAniState
_TEXT	ENDS
PUBLIC	?InitShowAniState@BossMonsterGaugeWnd@@IAEXXZ	; BossMonsterGaugeWnd::InitShowAniState
EXTRN	??3@YAXPAX@Z:PROC				; operator delete
EXTRN	?Add@FSMStateMgr@@QAEXPAVFSMState@@@Z:PROC	; FSMStateMgr::Add
EXTRN	?Add@FSMState@@QAEXHHH@Z:PROC			; FSMState::Add
EXTRN	??0FSMState@@QAE@H@Z:PROC			; FSMState::FSMState
EXTRN	??2@YAPAXI@Z:PROC				; operator new
;	COMDAT xdata$x
xdata$x	SEGMENT
__ehfuncinfo$?InitShowAniState@BossMonsterGaugeWnd@@IAEXXZ DD 019930522H
	DD	08H
	DD	FLAT:__unwindtable$?InitShowAniState@BossMonsterGaugeWnd@@IAEXXZ
	DD	2 DUP(00H)
	DD	2 DUP(00H)
	DD	00H
	DD	01H
__unwindtable$?InitShowAniState@BossMonsterGaugeWnd@@IAEXXZ DD 0ffffffffH
	DD	FLAT:__unwindfunclet$?InitShowAniState@BossMonsterGaugeWnd@@IAEXXZ$0
	DD	0ffffffffH
	DD	FLAT:__unwindfunclet$?InitShowAniState@BossMonsterGaugeWnd@@IAEXXZ$1
	DD	0ffffffffH
	DD	FLAT:__unwindfunclet$?InitShowAniState@BossMonsterGaugeWnd@@IAEXXZ$2
	DD	0ffffffffH
	DD	FLAT:__unwindfunclet$?InitShowAniState@BossMonsterGaugeWnd@@IAEXXZ$3
	DD	0ffffffffH
	DD	FLAT:__unwindfunclet$?InitShowAniState@BossMonsterGaugeWnd@@IAEXXZ$4
	DD	0ffffffffH
	DD	FLAT:__unwindfunclet$?InitShowAniState@BossMonsterGaugeWnd@@IAEXXZ$5
	DD	0ffffffffH
	DD	FLAT:__unwindfunclet$?InitShowAniState@BossMonsterGaugeWnd@@IAEXXZ$6
	DD	0ffffffffH
	DD	FLAT:__unwindfunclet$?InitShowAniState@BossMonsterGaugeWnd@@IAEXXZ$7
; Function compile flags: /Ogsp
xdata$x	ENDS
;	COMDAT ?InitShowAniState@BossMonsterGaugeWnd@@IAEXXZ
_TEXT	SEGMENT
$T506442 = -20						; size = 4
$T506438 = -20						; size = 4
$T506434 = -20						; size = 4
$T506430 = -20						; size = 4
$T506426 = -20						; size = 4
$T506422 = -20						; size = 4
$T506418 = -20						; size = 4
$T506414 = -20						; size = 4
tv256 = -16						; size = 4
__$EHRec$ = -12						; size = 12
?InitShowAniState@BossMonsterGaugeWnd@@IAEXXZ PROC	; BossMonsterGaugeWnd::InitShowAniState, COMDAT
; _this$ = ecx

; 267  : {

  00000	6a 08		 push	 8
  00002	b8 00 00 00 00	 mov	 eax, __ehhandler$?InitShowAniState@BossMonsterGaugeWnd@@IAEXXZ
  00007	e8 00 00 00 00	 call	 __EH_prolog3

; 268  : 	enum { DELAY_DELAY = 165, DELAY_UP = 198, DELAY_DOWN = 66, DELAY_UP_STOP = 66, };
; 269  : 
; 270  : 	m_ShowAniState.SetCurState( SAT_NONE );

  0000c	81 c1 a8 01 00
	00		 add	 ecx, 424		; 000001a8H
  00012	33 db		 xor	 ebx, ebx
  00014	53		 push	 ebx
  00015	89 4d f0	 mov	 DWORD PTR tv256[ebp], ecx
  00018	e8 00 00 00 00	 call	 ?SetCurState@FSMStateMgr@@QAEXH@Z ; FSMStateMgr::SetCurState

; 271  : 
; 272  : 	FSMState *pState = new FSMState(SAT_NONE);

  0001d	6a 38		 push	 56			; 00000038H
  0001f	e8 00 00 00 00	 call	 ??2@YAPAXI@Z		; operator new
  00024	59		 pop	 ecx
  00025	89 45 ec	 mov	 DWORD PTR $T506414[ebp], eax
  00028	89 5d fc	 mov	 DWORD PTR __$EHRec$[ebp+8], ebx
  0002b	3b c3		 cmp	 eax, ebx
  0002d	74 0c		 je	 SHORT $LN11@InitShowAn
  0002f	53		 push	 ebx
  00030	8b c8		 mov	 ecx, eax
  00032	e8 00 00 00 00	 call	 ??0FSMState@@QAE@H@Z	; FSMState::FSMState
  00037	8b f0		 mov	 esi, eax
  00039	eb 02		 jmp	 SHORT $LN12@InitShowAn
$LN11@InitShowAn:
  0003b	33 f6		 xor	 esi, esi
$LN12@InitShowAn:
  0003d	83 4d fc ff	 or	 DWORD PTR __$EHRec$[ebp+8], -1

; 273  : 	if( pState )

  00041	6a 02		 push	 2
  00043	5f		 pop	 edi
  00044	3b f3		 cmp	 esi, ebx
  00046	74 25		 je	 SHORT $LN8@InitShowAn

; 274  : 	{
; 275  : 		pState->Add( SAT_DELAY,  SAT_DELAY );

  00048	6a ff		 push	 -1
  0004a	57		 push	 edi
  0004b	57		 push	 edi
  0004c	8b ce		 mov	 ecx, esi
  0004e	e8 00 00 00 00	 call	 ?Add@FSMState@@QAEXHHH@Z ; FSMState::Add

; 276  : 		pState->Add( SAT_START_ROUND, SAT_START_ROUND );

  00053	6a ff		 push	 -1
  00055	6a 01		 push	 1
  00057	6a 01		 push	 1
  00059	8b ce		 mov	 ecx, esi
  0005b	e8 00 00 00 00	 call	 ?Add@FSMState@@QAEXHHH@Z ; FSMState::Add

; 277  : 		pState->Add( SAT_END,  SAT_END );

  00060	6a ff		 push	 -1
  00062	6a 07		 push	 7
  00064	6a 07		 push	 7
  00066	8b ce		 mov	 ecx, esi
  00068	e8 00 00 00 00	 call	 ?Add@FSMState@@QAEXHHH@Z ; FSMState::Add
$LN8@InitShowAn:

; 278  : 	}
; 279  : 	m_ShowAniState.Add( pState );

  0006d	8b 4d f0	 mov	 ecx, DWORD PTR tv256[ebp]
  00070	56		 push	 esi
  00071	e8 00 00 00 00	 call	 ?Add@FSMStateMgr@@QAEXPAVFSMState@@@Z ; FSMStateMgr::Add

; 280  : 
; 281  : 	pState = new FSMState(SAT_START_ROUND);

  00076	6a 38		 push	 56			; 00000038H
  00078	e8 00 00 00 00	 call	 ??2@YAPAXI@Z		; operator new
  0007d	59		 pop	 ecx
  0007e	89 45 ec	 mov	 DWORD PTR $T506418[ebp], eax
  00081	33 c9		 xor	 ecx, ecx
  00083	41		 inc	 ecx
  00084	89 4d fc	 mov	 DWORD PTR __$EHRec$[ebp+8], ecx
  00087	3b c3		 cmp	 eax, ebx
  00089	74 0c		 je	 SHORT $LN13@InitShowAn
  0008b	51		 push	 ecx
  0008c	8b c8		 mov	 ecx, eax
  0008e	e8 00 00 00 00	 call	 ??0FSMState@@QAE@H@Z	; FSMState::FSMState
  00093	8b f0		 mov	 esi, eax
  00095	eb 02		 jmp	 SHORT $LN14@InitShowAn
$LN13@InitShowAn:
  00097	33 f6		 xor	 esi, esi
$LN14@InitShowAn:
  00099	83 4d fc ff	 or	 DWORD PTR __$EHRec$[ebp+8], -1

; 282  : 	if( pState )

  0009d	3b f3		 cmp	 esi, ebx
  0009f	74 16		 je	 SHORT $LN7@InitShowAn

; 283  : 	{
; 284  : 		pState->Add( SAT_DELAY,  SAT_DELAY);

  000a1	6a ff		 push	 -1
  000a3	57		 push	 edi
  000a4	57		 push	 edi
  000a5	8b ce		 mov	 ecx, esi
  000a7	e8 00 00 00 00	 call	 ?Add@FSMState@@QAEXHHH@Z ; FSMState::Add

; 285  : 		pState->Add( SAT_NONE,  SAT_NONE );

  000ac	6a ff		 push	 -1
  000ae	53		 push	 ebx
  000af	53		 push	 ebx
  000b0	8b ce		 mov	 ecx, esi
  000b2	e8 00 00 00 00	 call	 ?Add@FSMState@@QAEXHHH@Z ; FSMState::Add
$LN7@InitShowAn:

; 286  : 	}
; 287  : 	m_ShowAniState.Add( pState );	

  000b7	8b 4d f0	 mov	 ecx, DWORD PTR tv256[ebp]
  000ba	56		 push	 esi
  000bb	e8 00 00 00 00	 call	 ?Add@FSMStateMgr@@QAEXPAVFSMState@@@Z ; FSMStateMgr::Add

; 288  : 
; 289  : 	pState = new FSMState(SAT_DELAY);

  000c0	6a 38		 push	 56			; 00000038H
  000c2	e8 00 00 00 00	 call	 ??2@YAPAXI@Z		; operator new
  000c7	59		 pop	 ecx
  000c8	89 45 ec	 mov	 DWORD PTR $T506422[ebp], eax
  000cb	89 7d fc	 mov	 DWORD PTR __$EHRec$[ebp+8], edi
  000ce	3b c3		 cmp	 eax, ebx
  000d0	74 0c		 je	 SHORT $LN15@InitShowAn
  000d2	57		 push	 edi
  000d3	8b c8		 mov	 ecx, eax
  000d5	e8 00 00 00 00	 call	 ??0FSMState@@QAE@H@Z	; FSMState::FSMState
  000da	8b f0		 mov	 esi, eax
  000dc	eb 02		 jmp	 SHORT $LN16@InitShowAn
$LN15@InitShowAn:
  000de	33 f6		 xor	 esi, esi
$LN16@InitShowAn:
  000e0	83 4d fc ff	 or	 DWORD PTR __$EHRec$[ebp+8], -1

; 290  : 	if( pState )

  000e4	6a 03		 push	 3
  000e6	5b		 pop	 ebx
  000e7	85 f6		 test	 esi, esi
  000e9	74 0e		 je	 SHORT $LN6@InitShowAn

; 291  : 		pState->Add( SAT_DELAY,  SAT_UP , DELAY_DELAY);

  000eb	68 a5 00 00 00	 push	 165			; 000000a5H
  000f0	53		 push	 ebx
  000f1	57		 push	 edi
  000f2	8b ce		 mov	 ecx, esi
  000f4	e8 00 00 00 00	 call	 ?Add@FSMState@@QAEXHHH@Z ; FSMState::Add
$LN6@InitShowAn:

; 292  : 	m_ShowAniState.Add( pState );	

  000f9	8b 4d f0	 mov	 ecx, DWORD PTR tv256[ebp]
  000fc	56		 push	 esi
  000fd	e8 00 00 00 00	 call	 ?Add@FSMStateMgr@@QAEXPAVFSMState@@@Z ; FSMStateMgr::Add

; 293  : 
; 294  : 	pState = new FSMState(SAT_UP);

  00102	6a 38		 push	 56			; 00000038H
  00104	e8 00 00 00 00	 call	 ??2@YAPAXI@Z		; operator new
  00109	59		 pop	 ecx
  0010a	89 45 ec	 mov	 DWORD PTR $T506426[ebp], eax
  0010d	89 5d fc	 mov	 DWORD PTR __$EHRec$[ebp+8], ebx
  00110	85 c0		 test	 eax, eax
  00112	74 0c		 je	 SHORT $LN17@InitShowAn
  00114	53		 push	 ebx
  00115	8b c8		 mov	 ecx, eax
  00117	e8 00 00 00 00	 call	 ??0FSMState@@QAE@H@Z	; FSMState::FSMState
  0011c	8b f8		 mov	 edi, eax
  0011e	eb 02		 jmp	 SHORT $LN18@InitShowAn
$LN17@InitShowAn:
  00120	33 ff		 xor	 edi, edi
$LN18@InitShowAn:
  00122	83 4d fc ff	 or	 DWORD PTR __$EHRec$[ebp+8], -1

; 295  : 	if( pState )

  00126	6a 04		 push	 4
  00128	5e		 pop	 esi
  00129	85 ff		 test	 edi, edi
  0012b	74 0e		 je	 SHORT $LN5@InitShowAn

; 296  : 		pState->Add( SAT_UP,  SAT_DOWN , DELAY_UP);

  0012d	68 c6 00 00 00	 push	 198			; 000000c6H
  00132	56		 push	 esi
  00133	53		 push	 ebx
  00134	8b cf		 mov	 ecx, edi
  00136	e8 00 00 00 00	 call	 ?Add@FSMState@@QAEXHHH@Z ; FSMState::Add
$LN5@InitShowAn:

; 297  : 	m_ShowAniState.Add( pState );

  0013b	8b 4d f0	 mov	 ecx, DWORD PTR tv256[ebp]
  0013e	57		 push	 edi
  0013f	e8 00 00 00 00	 call	 ?Add@FSMStateMgr@@QAEXPAVFSMState@@@Z ; FSMStateMgr::Add

; 298  : 
; 299  : 	pState = new FSMState(SAT_DOWN);

  00144	6a 38		 push	 56			; 00000038H
  00146	e8 00 00 00 00	 call	 ??2@YAPAXI@Z		; operator new
  0014b	59		 pop	 ecx
  0014c	89 45 ec	 mov	 DWORD PTR $T506430[ebp], eax
  0014f	89 75 fc	 mov	 DWORD PTR __$EHRec$[ebp+8], esi
  00152	85 c0		 test	 eax, eax
  00154	74 0c		 je	 SHORT $LN19@InitShowAn
  00156	56		 push	 esi
  00157	8b c8		 mov	 ecx, eax
  00159	e8 00 00 00 00	 call	 ??0FSMState@@QAE@H@Z	; FSMState::FSMState
  0015e	8b d8		 mov	 ebx, eax
  00160	eb 02		 jmp	 SHORT $LN20@InitShowAn
$LN19@InitShowAn:
  00162	33 db		 xor	 ebx, ebx
$LN20@InitShowAn:
  00164	83 4d fc ff	 or	 DWORD PTR __$EHRec$[ebp+8], -1

; 300  : 	if( pState )

  00168	6a 05		 push	 5
  0016a	5f		 pop	 edi
  0016b	85 db		 test	 ebx, ebx
  0016d	74 0b		 je	 SHORT $LN4@InitShowAn

; 301  : 		pState->Add( SAT_DOWN,  SAT_UP_STOP , DELAY_DOWN );

  0016f	6a 42		 push	 66			; 00000042H
  00171	57		 push	 edi
  00172	56		 push	 esi
  00173	8b cb		 mov	 ecx, ebx
  00175	e8 00 00 00 00	 call	 ?Add@FSMState@@QAEXHHH@Z ; FSMState::Add
$LN4@InitShowAn:

; 302  : 	m_ShowAniState.Add( pState );

  0017a	8b 4d f0	 mov	 ecx, DWORD PTR tv256[ebp]
  0017d	53		 push	 ebx
  0017e	e8 00 00 00 00	 call	 ?Add@FSMStateMgr@@QAEXPAVFSMState@@@Z ; FSMStateMgr::Add

; 303  : 
; 304  : 	pState = new FSMState(SAT_UP_STOP);

  00183	6a 38		 push	 56			; 00000038H
  00185	e8 00 00 00 00	 call	 ??2@YAPAXI@Z		; operator new
  0018a	59		 pop	 ecx
  0018b	89 45 ec	 mov	 DWORD PTR $T506434[ebp], eax
  0018e	89 7d fc	 mov	 DWORD PTR __$EHRec$[ebp+8], edi
  00191	85 c0		 test	 eax, eax
  00193	74 0c		 je	 SHORT $LN21@InitShowAn
  00195	57		 push	 edi
  00196	8b c8		 mov	 ecx, eax
  00198	e8 00 00 00 00	 call	 ??0FSMState@@QAE@H@Z	; FSMState::FSMState
  0019d	8b d8		 mov	 ebx, eax
  0019f	eb 02		 jmp	 SHORT $LN22@InitShowAn
$LN21@InitShowAn:
  001a1	33 db		 xor	 ebx, ebx
$LN22@InitShowAn:
  001a3	83 4d fc ff	 or	 DWORD PTR __$EHRec$[ebp+8], -1

; 305  : 	if( pState )

  001a7	6a 06		 push	 6
  001a9	5e		 pop	 esi
  001aa	85 db		 test	 ebx, ebx
  001ac	74 0b		 je	 SHORT $LN3@InitShowAn

; 306  : 		pState->Add( SAT_UP_STOP,  SAT_STOP , DELAY_UP_STOP );

  001ae	6a 42		 push	 66			; 00000042H
  001b0	56		 push	 esi
  001b1	57		 push	 edi
  001b2	8b cb		 mov	 ecx, ebx
  001b4	e8 00 00 00 00	 call	 ?Add@FSMState@@QAEXHHH@Z ; FSMState::Add
$LN3@InitShowAn:

; 307  : 	m_ShowAniState.Add( pState );

  001b9	8b 4d f0	 mov	 ecx, DWORD PTR tv256[ebp]
  001bc	53		 push	 ebx
  001bd	e8 00 00 00 00	 call	 ?Add@FSMStateMgr@@QAEXPAVFSMState@@@Z ; FSMStateMgr::Add

; 308  : 
; 309  : 	pState = new FSMState(SAT_STOP);

  001c2	6a 38		 push	 56			; 00000038H
  001c4	e8 00 00 00 00	 call	 ??2@YAPAXI@Z		; operator new
  001c9	59		 pop	 ecx
  001ca	89 45 ec	 mov	 DWORD PTR $T506438[ebp], eax
  001cd	89 75 fc	 mov	 DWORD PTR __$EHRec$[ebp+8], esi
  001d0	85 c0		 test	 eax, eax
  001d2	74 0c		 je	 SHORT $LN23@InitShowAn
  001d4	56		 push	 esi
  001d5	8b c8		 mov	 ecx, eax
  001d7	e8 00 00 00 00	 call	 ??0FSMState@@QAE@H@Z	; FSMState::FSMState
  001dc	8b f0		 mov	 esi, eax
  001de	eb 02		 jmp	 SHORT $LN24@InitShowAn
$LN23@InitShowAn:
  001e0	33 f6		 xor	 esi, esi
$LN24@InitShowAn:
  001e2	83 cf ff	 or	 edi, -1
  001e5	89 7d fc	 mov	 DWORD PTR __$EHRec$[ebp+8], edi

; 310  : 	if( pState )

  001e8	85 f6		 test	 esi, esi
  001ea	74 0c		 je	 SHORT $LN2@InitShowAn

; 311  : 		pState->Add( SAT_END,  SAT_END );

  001ec	57		 push	 edi
  001ed	6a 07		 push	 7
  001ef	6a 07		 push	 7
  001f1	8b ce		 mov	 ecx, esi
  001f3	e8 00 00 00 00	 call	 ?Add@FSMState@@QAEXHHH@Z ; FSMState::Add
$LN2@InitShowAn:

; 312  : 	m_ShowAniState.Add( pState );

  001f8	8b 4d f0	 mov	 ecx, DWORD PTR tv256[ebp]
  001fb	56		 push	 esi
  001fc	e8 00 00 00 00	 call	 ?Add@FSMStateMgr@@QAEXPAVFSMState@@@Z ; FSMStateMgr::Add

; 313  : 
; 314  : 	pState = new FSMState(SAT_END);

  00201	6a 38		 push	 56			; 00000038H
  00203	e8 00 00 00 00	 call	 ??2@YAPAXI@Z		; operator new
  00208	59		 pop	 ecx
  00209	89 45 ec	 mov	 DWORD PTR $T506442[ebp], eax
  0020c	6a 07		 push	 7
  0020e	59		 pop	 ecx
  0020f	89 4d fc	 mov	 DWORD PTR __$EHRec$[ebp+8], ecx
  00212	85 c0		 test	 eax, eax
  00214	74 0c		 je	 SHORT $LN25@InitShowAn
  00216	51		 push	 ecx
  00217	8b c8		 mov	 ecx, eax
  00219	e8 00 00 00 00	 call	 ??0FSMState@@QAE@H@Z	; FSMState::FSMState
  0021e	8b f0		 mov	 esi, eax
  00220	eb 02		 jmp	 SHORT $LN26@InitShowAn
$LN25@InitShowAn:
  00222	33 f6		 xor	 esi, esi
$LN26@InitShowAn:
  00224	89 7d fc	 mov	 DWORD PTR __$EHRec$[ebp+8], edi

; 315  : 	if( pState )

  00227	85 f6		 test	 esi, esi
  00229	74 18		 je	 SHORT $LN1@InitShowAn

; 316  : 	{
; 317  : 		pState->Add( SAT_NONE,  SAT_NONE );

  0022b	57		 push	 edi
  0022c	6a 00		 push	 0
  0022e	6a 00		 push	 0
  00230	8b ce		 mov	 ecx, esi
  00232	e8 00 00 00 00	 call	 ?Add@FSMState@@QAEXHHH@Z ; FSMState::Add

; 318  : 		pState->Add( SAT_START_ROUND, SAT_START_ROUND );

  00237	57		 push	 edi
  00238	6a 01		 push	 1
  0023a	6a 01		 push	 1
  0023c	8b ce		 mov	 ecx, esi
  0023e	e8 00 00 00 00	 call	 ?Add@FSMState@@QAEXHHH@Z ; FSMState::Add
$LN1@InitShowAn:

; 319  : 	}
; 320  : 	m_ShowAniState.Add( pState );

  00243	8b 4d f0	 mov	 ecx, DWORD PTR tv256[ebp]
  00246	56		 push	 esi
  00247	e8 00 00 00 00	 call	 ?Add@FSMStateMgr@@QAEXPAVFSMState@@@Z ; FSMStateMgr::Add

; 321  : }

  0024c	e8 00 00 00 00	 call	 __EH_epilog3
  00251	c3		 ret	 0
_TEXT	ENDS
;	COMDAT text$x
text$x	SEGMENT
__unwindfunclet$?InitShowAniState@BossMonsterGaugeWnd@@IAEXXZ$0:
  00000	ff 75 ec	 push	 DWORD PTR $T506414[ebp]
  00003	e8 00 00 00 00	 call	 ??3@YAXPAX@Z		; operator delete
  00008	59		 pop	 ecx
  00009	c3		 ret	 0
__unwindfunclet$?InitShowAniState@BossMonsterGaugeWnd@@IAEXXZ$1:
  0000a	ff 75 ec	 push	 DWORD PTR $T506418[ebp]
  0000d	e8 00 00 00 00	 call	 ??3@YAXPAX@Z		; operator delete
  00012	59		 pop	 ecx
  00013	c3		 ret	 0
__unwindfunclet$?InitShowAniState@BossMonsterGaugeWnd@@IAEXXZ$2:
  00014	ff 75 ec	 push	 DWORD PTR $T506422[ebp]
  00017	e8 00 00 00 00	 call	 ??3@YAXPAX@Z		; operator delete
  0001c	59		 pop	 ecx
  0001d	c3		 ret	 0
__unwindfunclet$?InitShowAniState@BossMonsterGaugeWnd@@IAEXXZ$3:
  0001e	ff 75 ec	 push	 DWORD PTR $T506426[ebp]
  00021	e8 00 00 00 00	 call	 ??3@YAXPAX@Z		; operator delete
  00026	59		 pop	 ecx
  00027	c3		 ret	 0
__unwindfunclet$?InitShowAniState@BossMonsterGaugeWnd@@IAEXXZ$4:
  00028	ff 75 ec	 push	 DWORD PTR $T506430[ebp]
  0002b	e8 00 00 00 00	 call	 ??3@YAXPAX@Z		; operator delete
  00030	59		 pop	 ecx
  00031	c3		 ret	 0
__unwindfunclet$?InitShowAniState@BossMonsterGaugeWnd@@IAEXXZ$5:
  00032	ff 75 ec	 push	 DWORD PTR $T506434[ebp]
  00035	e8 00 00 00 00	 call	 ??3@YAXPAX@Z		; operator delete
  0003a	59		 pop	 ecx
  0003b	c3		 ret	 0
__unwindfunclet$?InitShowAniState@BossMonsterGaugeWnd@@IAEXXZ$6:
  0003c	ff 75 ec	 push	 DWORD PTR $T506438[ebp]
  0003f	e8 00 00 00 00	 call	 ??3@YAXPAX@Z		; operator delete
  00044	59		 pop	 ecx
  00045	c3		 ret	 0
__unwindfunclet$?InitShowAniState@BossMonsterGaugeWnd@@IAEXXZ$7:
  00046	ff 75 ec	 push	 DWORD PTR $T506442[ebp]
  00049	e8 00 00 00 00	 call	 ??3@YAXPAX@Z		; operator delete
  0004e	59		 pop	 ecx
  0004f	c3		 ret	 0
__ehhandler$?InitShowAniState@BossMonsterGaugeWnd@@IAEXXZ:
  00050	8b 54 24 08	 mov	 edx, DWORD PTR [esp+8]
  00054	8d 42 0c	 lea	 eax, DWORD PTR [edx+12]
  00057	8b 4a e8	 mov	 ecx, DWORD PTR [edx-24]
  0005a	33 c8		 xor	 ecx, eax
  0005c	e8 00 00 00 00	 call	 @__security_check_cookie@4
  00061	b8 00 00 00 00	 mov	 eax, OFFSET __ehfuncinfo$?InitShowAniState@BossMonsterGaugeWnd@@IAEXXZ
  00066	e9 00 00 00 00	 jmp	 ___CxxFrameHandler3
text$x	ENDS
?InitShowAniState@BossMonsterGaugeWnd@@IAEXXZ ENDP	; BossMonsterGaugeWnd::InitShowAniState
PUBLIC	?cos@@YAMM@Z					; cos
; Function compile flags: /Ogsp
; File c:\program files (x86)\microsoft visual studio 10.0\vc\include\math.h
;	COMDAT ?cos@@YAMM@Z
_TEXT	SEGMENT
tv73 = 8						; size = 4
__X$ = 8						; size = 4
?cos@@YAMM@Z PROC					; cos, COMDAT

; 512  :         {return (cosf(_X)); }

  00000	55		 push	 ebp
  00001	8b ec		 mov	 ebp, esp
  00003	d9 45 08	 fld	 DWORD PTR __X$[ebp]
  00006	e8 00 00 00 00	 call	 __CIcos
  0000b	d9 5d 08	 fstp	 DWORD PTR tv73[ebp]
  0000e	d9 45 08	 fld	 DWORD PTR tv73[ebp]
  00011	5d		 pop	 ebp
  00012	c3		 ret	 0
?cos@@YAMM@Z ENDP					; cos
_TEXT	ENDS
PUBLIC	?sin@@YAMM@Z					; sin
; Function compile flags: /Ogsp
;	COMDAT ?sin@@YAMM@Z
_TEXT	SEGMENT
tv73 = 8						; size = 4
__X$ = 8						; size = 4
?sin@@YAMM@Z PROC					; sin, COMDAT

; 538  :         {return (sinf(_X)); }

  00000	55		 push	 ebp
  00001	8b ec		 mov	 ebp, esp
  00003	d9 45 08	 fld	 DWORD PTR __X$[ebp]
  00006	e8 00 00 00 00	 call	 __CIsin
  0000b	d9 5d 08	 fstp	 DWORD PTR tv73[ebp]
  0000e	d9 45 08	 fld	 DWORD PTR tv73[ebp]
  00011	5d		 pop	 ebp
  00012	c3		 ret	 0
?sin@@YAMM@Z ENDP					; sin
_TEXT	ENDS
PUBLIC	?ChangeShowAniState@BossMonsterGaugeWnd@@QAEXW4ShowAniType@1@@Z ; BossMonsterGaugeWnd::ChangeShowAniState
EXTRN	?ChangeState@FSMStateMgr@@QAEHH@Z:PROC		; FSMStateMgr::ChangeState
; Function compile flags: /Ogsp
; File d:\lost saga for developer\youtube\tutorial\source\src\lsclient\gui\bossmonstergaugewnd.cpp
;	COMDAT ?ChangeShowAniState@BossMonsterGaugeWnd@@QAEXW4ShowAniType@1@@Z
_TEXT	SEGMENT
_eShowAniType$ = 8					; size = 4
?ChangeShowAniState@BossMonsterGaugeWnd@@QAEXW4ShowAniType@1@@Z PROC ; BossMonsterGaugeWnd::ChangeShowAniState, COMDAT
; _this$ = ecx

; 342  : {

  00000	55		 push	 ebp
  00001	8b ec		 mov	 ebp, esp

; 343  : 	m_ShowAniState.ChangeState( (int) eShowAniType );

  00003	81 c1 a8 01 00
	00		 add	 ecx, 424		; 000001a8H

; 344  : }

  00009	5d		 pop	 ebp

; 343  : 	m_ShowAniState.ChangeState( (int) eShowAniType );

  0000a	e9 00 00 00 00	 jmp	 ?ChangeState@FSMStateMgr@@QAEHH@Z ; FSMStateMgr::ChangeState
?ChangeShowAniState@BossMonsterGaugeWnd@@QAEXW4ShowAniType@1@@Z ENDP ; BossMonsterGaugeWnd::ChangeShowAniState
_TEXT	ENDS
PUBLIC	?UpdateDefaultPos@BossMonsterGaugeWnd@@IAEXXZ	; BossMonsterGaugeWnd::UpdateDefaultPos
EXTRN	__imp_?GetHeight@ioWnd@@QBEHXZ:PROC
EXTRN	__imp_?GetWidth@ioWnd@@QBEHXZ:PROC
EXTRN	__imp_?IsMoving@ioMovingWnd@@QAE_NXZ:PROC
EXTRN	?IsDragMove@ioSP2GUIManager@@QBE_NK@Z:PROC	; ioSP2GUIManager::IsDragMove
; Function compile flags: /Ogsp
;	COMDAT ?UpdateDefaultPos@BossMonsterGaugeWnd@@IAEXXZ
_TEXT	SEGMENT
?UpdateDefaultPos@BossMonsterGaugeWnd@@IAEXXZ PROC	; BossMonsterGaugeWnd::UpdateDefaultPos, COMDAT
; _this$ = ecx

; 400  : {

  00000	56		 push	 esi
  00001	8b f1		 mov	 esi, ecx

; 401  : 	if( g_GUIMgr.IsDragMove( m_dwID ) || IsMoving() )

  00003	ff 76 14	 push	 DWORD PTR [esi+20]
  00006	e8 00 00 00 00	 call	 ?GetSingleton@ioSP2GUIManager@@SAAAV1@XZ ; ioSP2GUIManager::GetSingleton
  0000b	8b c8		 mov	 ecx, eax
  0000d	e8 00 00 00 00	 call	 ?IsDragMove@ioSP2GUIManager@@QBE_NK@Z ; ioSP2GUIManager::IsDragMove
  00012	84 c0		 test	 al, al
  00014	75 10		 jne	 SHORT $LN5@UpdateDefa
  00016	8b ce		 mov	 ecx, esi
  00018	ff 15 00 00 00
	00		 call	 DWORD PTR __imp_?IsMoving@ioMovingWnd@@QAE_NXZ
  0001e	84 c0		 test	 al, al
  00020	0f 84 8d 00 00
	00		 je	 $LN1@UpdateDefa
$LN5@UpdateDefa:
  00026	53		 push	 ebx
  00027	57		 push	 edi

; 402  : 	{
; 403  : 		if( m_iDefaultX != GetXPos() )

  00028	8b ce		 mov	 ecx, esi
  0002a	ff 15 00 00 00
	00		 call	 DWORD PTR __imp_?GetXPos@ioWnd@@QBEHXZ
  00030	33 db		 xor	 ebx, ebx
  00032	43		 inc	 ebx
  00033	39 86 d8 01 00
	00		 cmp	 DWORD PTR [esi+472], eax
  00039	74 39		 je	 SHORT $LN3@UpdateDefa

; 404  : 		{
; 405  : 			if( COMPARE( GetXPos(), 0, (Setting::Width() - GetWidth() ) + 1 ))

  0003b	8b ce		 mov	 ecx, esi
  0003d	ff 15 00 00 00
	00		 call	 DWORD PTR __imp_?GetXPos@ioWnd@@QBEHXZ
  00043	85 c0		 test	 eax, eax
  00045	78 2d		 js	 SHORT $LN3@UpdateDefa
  00047	8b ce		 mov	 ecx, esi
  00049	ff 15 00 00 00
	00		 call	 DWORD PTR __imp_?GetWidth@ioWnd@@QBEHXZ
  0004f	8b fb		 mov	 edi, ebx
  00051	2b f8		 sub	 edi, eax
  00053	e8 00 00 00 00	 call	 ?Width@Setting@@SAHXZ	; Setting::Width
  00058	8b ce		 mov	 ecx, esi
  0005a	03 f8		 add	 edi, eax
  0005c	ff 15 00 00 00
	00		 call	 DWORD PTR __imp_?GetXPos@ioWnd@@QBEHXZ
  00062	3b c7		 cmp	 eax, edi
  00064	7d 0e		 jge	 SHORT $LN3@UpdateDefa

; 406  : 				m_iDefaultX = GetXPos();

  00066	8b ce		 mov	 ecx, esi
  00068	ff 15 00 00 00
	00		 call	 DWORD PTR __imp_?GetXPos@ioWnd@@QBEHXZ
  0006e	89 86 d8 01 00
	00		 mov	 DWORD PTR [esi+472], eax
$LN3@UpdateDefa:

; 407  : 		}
; 408  : 
; 409  : 		if( m_iDefaultY != GetYPos() )

  00074	8b ce		 mov	 ecx, esi
  00076	ff 15 00 00 00
	00		 call	 DWORD PTR __imp_?GetYPos@ioWnd@@QBEHXZ
  0007c	39 86 dc 01 00
	00		 cmp	 DWORD PTR [esi+476], eax
  00082	74 2d		 je	 SHORT $LN9@UpdateDefa

; 410  : 		{
; 411  : 			int iYPos = GetYPos() - m_iBlindOffSetY;

  00084	8b ce		 mov	 ecx, esi
  00086	ff 15 00 00 00
	00		 call	 DWORD PTR __imp_?GetYPos@ioWnd@@QBEHXZ
  0008c	8b f8		 mov	 edi, eax
  0008e	2b be d0 01 00
	00		 sub	 edi, DWORD PTR [esi+464]

; 412  : 			if( COMPARE( iYPos, 0, (Setting::Height() - GetHeight() ) + 1 ))

  00094	78 1b		 js	 SHORT $LN9@UpdateDefa
  00096	8b ce		 mov	 ecx, esi
  00098	ff 15 00 00 00
	00		 call	 DWORD PTR __imp_?GetHeight@ioWnd@@QBEHXZ
  0009e	2b d8		 sub	 ebx, eax
  000a0	e8 00 00 00 00	 call	 ?Height@Setting@@SAHXZ	; Setting::Height
  000a5	03 c3		 add	 eax, ebx
  000a7	3b f8		 cmp	 edi, eax
  000a9	7d 06		 jge	 SHORT $LN9@UpdateDefa

; 413  : 				m_iDefaultY = iYPos;

  000ab	89 be dc 01 00
	00		 mov	 DWORD PTR [esi+476], edi
$LN9@UpdateDefa:
  000b1	5f		 pop	 edi
  000b2	5b		 pop	 ebx
$LN1@UpdateDefa:
  000b3	5e		 pop	 esi

; 414  : 		}
; 415  : 	}
; 416  : }

  000b4	c3		 ret	 0
?UpdateDefaultPos@BossMonsterGaugeWnd@@IAEXXZ ENDP	; BossMonsterGaugeWnd::UpdateDefaultPos
_TEXT	ENDS
PUBLIC	__real@4082c00000000000
EXTRN	__imp_?SetPositionToDefault@ioMovingWnd@@UAEXHH_N0@Z:PROC
;	COMDAT __real@4082c00000000000
CONST	SEGMENT
__real@4082c00000000000 DQ 04082c00000000000r	; 600
; Function compile flags: /Ogsp
CONST	ENDS
;	COMDAT ?SetPositionToDefault@BossMonsterGaugeWnd@@UAEXHH_N0@Z
_TEXT	SEGMENT
_iTempDefYPos$ = -8					; size = 4
_fDefCenterYRate$ = -4					; size = 4
_iParentWidth$ = 8					; size = 4
_iParentHeight$ = 12					; size = 4
_bChildMove$ = 16					; size = 1
_bCreate$ = 20						; size = 1
?SetPositionToDefault@BossMonsterGaugeWnd@@UAEXHH_N0@Z PROC ; BossMonsterGaugeWnd::SetPositionToDefault, COMDAT
; _this$ = ecx

; 419  : {

  00000	55		 push	 ebp
  00001	8b ec		 mov	 ebp, esp
  00003	51		 push	 ecx
  00004	51		 push	 ecx
  00005	53		 push	 ebx
  00006	56		 push	 esi
  00007	8b f1		 mov	 esi, ecx

; 420  : 	int iTempDefXPos = m_iDefXPos;
; 421  : 	int iTempDefYPos = m_iDefYPos;

  00009	8b 86 c4 00 00
	00		 mov	 eax, DWORD PTR [esi+196]
  0000f	8b 9e c0 00 00
	00		 mov	 ebx, DWORD PTR [esi+192]
  00015	57		 push	 edi
  00016	89 45 f8	 mov	 DWORD PTR _iTempDefYPos$[ebp], eax

; 422  : 
; 423  : 	float fDefCenterY = (float)( m_iDefYPos + GetHeight() / 2 );

  00019	ff 15 00 00 00
	00		 call	 DWORD PTR __imp_?GetHeight@ioWnd@@QBEHXZ
  0001f	99		 cdq
  00020	2b c2		 sub	 eax, edx
  00022	d1 f8		 sar	 eax, 1
  00024	03 86 c4 00 00
	00		 add	 eax, DWORD PTR [esi+196]

; 424  : 	float fDefCenterYRate = fDefCenterY / 600.0f;

  0002a	0f 57 c0	 xorps	 xmm0, xmm0
  0002d	f3 0f 2a c0	 cvtsi2ss xmm0, eax
  00031	0f 5a c0	 cvtps2pd xmm0, xmm0
  00034	f2 0f 5e 05 00
	00 00 00	 divsd	 xmm0, QWORD PTR __real@4082c00000000000
  0003c	66 0f 5a c0	 cvtpd2ps xmm0, xmm0
  00040	f3 0f 11 45 fc	 movss	 DWORD PTR _fDefCenterYRate$[ebp], xmm0

; 425  : 
; 426  : 	m_iDefYPos = (int)( Setting::Height() * fDefCenterYRate ) - GetHeight() / 2;

  00045	e8 00 00 00 00	 call	 ?Height@Setting@@SAHXZ	; Setting::Height
  0004a	f3 0f 10 4d fc	 movss	 xmm1, DWORD PTR _fDefCenterYRate$[ebp]
  0004f	0f 57 c0	 xorps	 xmm0, xmm0
  00052	f3 0f 2a c0	 cvtsi2ss xmm0, eax
  00056	0f 5a c0	 cvtps2pd xmm0, xmm0
  00059	0f 5a c9	 cvtps2pd xmm1, xmm1
  0005c	f2 0f 59 c1	 mulsd	 xmm0, xmm1
  00060	8b ce		 mov	 ecx, esi
  00062	f2 0f 2c f8	 cvttsd2si edi, xmm0
  00066	ff 15 00 00 00
	00		 call	 DWORD PTR __imp_?GetHeight@ioWnd@@QBEHXZ

; 427  : 
; 428  : 	ioMovingWnd::SetPositionToDefault( iParentWidth, iParentHeight, bChildMove, bCreate );

  0006c	ff 75 14	 push	 DWORD PTR _bCreate$[ebp]
  0006f	99		 cdq
  00070	ff 75 10	 push	 DWORD PTR _bChildMove$[ebp]
  00073	2b c2		 sub	 eax, edx
  00075	ff 75 0c	 push	 DWORD PTR _iParentHeight$[ebp]
  00078	d1 f8		 sar	 eax, 1
  0007a	ff 75 08	 push	 DWORD PTR _iParentWidth$[ebp]
  0007d	2b f8		 sub	 edi, eax
  0007f	8b ce		 mov	 ecx, esi
  00081	89 be c4 00 00
	00		 mov	 DWORD PTR [esi+196], edi
  00087	ff 15 00 00 00
	00		 call	 DWORD PTR __imp_?SetPositionToDefault@ioMovingWnd@@UAEXHH_N0@Z

; 429  : 
; 430  : 	m_iDefXPos = iTempDefXPos;
; 431  : 	m_iDefYPos = iTempDefYPos;
; 432  : 
; 433  : 	if( !bCreate )

  0008d	80 7d 14 00	 cmp	 BYTE PTR _bCreate$[ebp], 0
  00091	8b 45 f8	 mov	 eax, DWORD PTR _iTempDefYPos$[ebp]
  00094	89 9e c0 00 00
	00		 mov	 DWORD PTR [esi+192], ebx
  0009a	89 86 c4 00 00
	00		 mov	 DWORD PTR [esi+196], eax
  000a0	75 33		 jne	 SHORT $LN1@SetPositio

; 434  : 	{
; 435  : 		m_iDefaultX = GetXPos();

  000a2	8b ce		 mov	 ecx, esi
  000a4	ff 15 00 00 00
	00		 call	 DWORD PTR __imp_?GetXPos@ioWnd@@QBEHXZ

; 436  : 		m_iDefaultY = GetYPos();

  000aa	8b ce		 mov	 ecx, esi
  000ac	89 86 d8 01 00
	00		 mov	 DWORD PTR [esi+472], eax
  000b2	ff 15 00 00 00
	00		 call	 DWORD PTR __imp_?GetYPos@ioWnd@@QBEHXZ

; 437  : 		SetWndPos( m_iDefaultX, m_iDefaultY + m_iBlindOffSetY );

  000b8	8b 8e d0 01 00
	00		 mov	 ecx, DWORD PTR [esi+464]
  000be	03 c8		 add	 ecx, eax
  000c0	51		 push	 ecx
  000c1	ff b6 d8 01 00
	00		 push	 DWORD PTR [esi+472]
  000c7	8b ce		 mov	 ecx, esi
  000c9	89 86 dc 01 00
	00		 mov	 DWORD PTR [esi+476], eax
  000cf	ff 15 00 00 00
	00		 call	 DWORD PTR __imp_?SetWndPos@ioWnd@@QAEXHH@Z
$LN1@SetPositio:
  000d5	5f		 pop	 edi
  000d6	5e		 pop	 esi
  000d7	5b		 pop	 ebx

; 438  : 	}
; 439  : }

  000d8	c9		 leave
  000d9	c2 10 00	 ret	 16			; 00000010H
?SetPositionToDefault@BossMonsterGaugeWnd@@UAEXHH_N0@Z ENDP ; BossMonsterGaugeWnd::SetPositionToDefault
_TEXT	ENDS
PUBLIC	?_DECSTR@@YAXPADH@Z				; _DECSTR
; Function compile flags: /Ogsp
; File d:\lost saga for developer\youtube\tutorial\source\src\lsclient\stringprotect.h
;	COMDAT ?_DECSTR@@YAXPADH@Z
_TEXT	SEGMENT
_s$ = 8							; size = 4
_l$ = 12						; size = 4
?_DECSTR@@YAXPADH@Z PROC				; _DECSTR, COMDAT

; 40   : __forceinline void _DECSTR(char* s, int l){int i=0,l4=(l-1)/4,*p=(int*)s;s[l-1]=0;for(;i<l4;++i)*(p++)^=0xEAEBECED;for(i=l4*4;i<l-1;++i)s[i]^=0xED-i%4;}

  00000	55		 push	 ebp
  00001	8b ec		 mov	 ebp, esp
  00003	8b 4d 0c	 mov	 ecx, DWORD PTR _l$[ebp]
  00006	56		 push	 esi
  00007	8b 75 08	 mov	 esi, DWORD PTR _s$[ebp]
  0000a	57		 push	 edi
  0000b	8d 79 ff	 lea	 edi, DWORD PTR [ecx-1]
  0000e	8b c7		 mov	 eax, edi
  00010	99		 cdq
  00011	83 e2 03	 and	 edx, 3
  00014	03 c2		 add	 eax, edx
  00016	c1 f8 02	 sar	 eax, 2
  00019	8b d6		 mov	 edx, esi
  0001b	c6 44 0e ff 00	 mov	 BYTE PTR [esi+ecx-1], 0
  00020	85 c0		 test	 eax, eax
  00022	7e 0e		 jle	 SHORT $LN4@DECSTR
  00024	8b c8		 mov	 ecx, eax
$LL6@DECSTR:
  00026	81 32 ed ec eb
	ea		 xor	 DWORD PTR [edx], -353637139 ; eaebecedH
  0002c	83 c2 04	 add	 edx, 4
  0002f	49		 dec	 ecx
  00030	75 f4		 jne	 SHORT $LL6@DECSTR
$LN4@DECSTR:
  00032	c1 e0 02	 shl	 eax, 2
  00035	eb 17		 jmp	 SHORT $LN14@DECSTR
$LL3@DECSTR:
  00037	8b c8		 mov	 ecx, eax
  00039	81 e1 03 00 00
	80		 and	 ecx, -2147483645	; 80000003H
  0003f	79 05		 jns	 SHORT $LN13@DECSTR
  00041	49		 dec	 ecx
  00042	83 c9 fc	 or	 ecx, -4			; fffffffcH
  00045	41		 inc	 ecx
$LN13@DECSTR:
  00046	b2 ed		 mov	 dl, -19			; ffffffedH
  00048	2a d1		 sub	 dl, cl
  0004a	30 14 30	 xor	 BYTE PTR [eax+esi], dl
  0004d	40		 inc	 eax
$LN14@DECSTR:
  0004e	3b c7		 cmp	 eax, edi
  00050	7c e5		 jl	 SHORT $LL3@DECSTR
  00052	5f		 pop	 edi
  00053	5e		 pop	 esi
  00054	5d		 pop	 ebp
  00055	c3		 ret	 0
?_DECSTR@@YAXPADH@Z ENDP				; _DECSTR
_TEXT	ENDS
PUBLIC	?GetCurState@FSMStateMgr@@QBEHXZ		; FSMStateMgr::GetCurState
; Function compile flags: /Ogsp
; File d:\lost saga for developer\youtube\tutorial\source\src\lsclient\gui\fsmstatemgr.h
;	COMDAT ?GetCurState@FSMStateMgr@@QBEHXZ
_TEXT	SEGMENT
?GetCurState@FSMStateMgr@@QBEHXZ PROC			; FSMStateMgr::GetCurState, COMDAT
; _this$ = ecx

; 52   : 	inline int GetCurState() const { return m_iCurState; }

  00000	8b 41 04	 mov	 eax, DWORD PTR [ecx+4]
  00003	c3		 ret	 0
?GetCurState@FSMStateMgr@@QBEHXZ ENDP			; FSMStateMgr::GetCurState
_TEXT	ENDS
PUBLIC	?GetCurTime@FSMStateMgr@@QBEKXZ			; FSMStateMgr::GetCurTime
; Function compile flags: /Ogsp
;	COMDAT ?GetCurTime@FSMStateMgr@@QBEKXZ
_TEXT	SEGMENT
?GetCurTime@FSMStateMgr@@QBEKXZ PROC			; FSMStateMgr::GetCurTime, COMDAT
; _this$ = ecx

; 55   : 	inline DWORD GetCurTime() const { return m_dwCurTime; }

  00000	8b 41 0c	 mov	 eax, DWORD PTR [ecx+12]
  00003	c3		 ret	 0
?GetCurTime@FSMStateMgr@@QBEKXZ ENDP			; FSMStateMgr::GetCurTime
_TEXT	ENDS
PUBLIC	?GetDelay@FSMStateMgr@@QBEHXZ			; FSMStateMgr::GetDelay
; Function compile flags: /Ogsp
;	COMDAT ?GetDelay@FSMStateMgr@@QBEHXZ
_TEXT	SEGMENT
?GetDelay@FSMStateMgr@@QBEHXZ PROC			; FSMStateMgr::GetDelay, COMDAT
; _this$ = ecx

; 61   : 	inline int GetDelay() const { return m_iCurDelay; }

  00000	8b 41 10	 mov	 eax, DWORD PTR [ecx+16]
  00003	c3		 ret	 0
?GetDelay@FSMStateMgr@@QBEHXZ ENDP			; FSMStateMgr::GetDelay
_TEXT	ENDS
PUBLIC	?IsSkipUIByBlind@ioSP2GUIManager@@QBE_NXZ	; ioSP2GUIManager::IsSkipUIByBlind
; Function compile flags: /Ogsp
; File d:\lost saga for developer\youtube\tutorial\source\src\lsclient\gui\iosp2guimanager.h
;	COMDAT ?IsSkipUIByBlind@ioSP2GUIManager@@QBE_NXZ
_TEXT	SEGMENT
?IsSkipUIByBlind@ioSP2GUIManager@@QBE_NXZ PROC		; ioSP2GUIManager::IsSkipUIByBlind, COMDAT
; _this$ = ecx

; 236  : 	inline bool IsSkipUIByBlind() const { return m_bSkipUIByBlind; }	

  00000	8a 81 e0 04 00
	00		 mov	 al, BYTE PTR [ecx+1248]
  00006	c3		 ret	 0
?IsSkipUIByBlind@ioSP2GUIManager@@QBE_NXZ ENDP		; ioSP2GUIManager::IsSkipUIByBlind
_TEXT	ENDS
PUBLIC	??0BossMonsterGaugeWnd@@QAE@XZ			; BossMonsterGaugeWnd::BossMonsterGaugeWnd
EXTRN	__imp_??0ioHashString@@QAE@XZ:PROC
EXTRN	??0FSMStateMgr@@QAE@XZ:PROC			; FSMStateMgr::FSMStateMgr
EXTRN	__imp_??0ioMovingWnd@@QAE@XZ:PROC
;	COMDAT xdata$x
; File d:\lost saga for developer\youtube\tutorial\source\src\lsclient\gui\bossmonstergaugewnd.cpp
xdata$x	SEGMENT
__unwindtable$??0BossMonsterGaugeWnd@@QAE@XZ DD 0ffffffffH
	DD	FLAT:__unwindfunclet$??0BossMonsterGaugeWnd@@QAE@XZ$0
	DD	00H
	DD	FLAT:__unwindfunclet$??0BossMonsterGaugeWnd@@QAE@XZ$1
	DD	01H
	DD	FLAT:__unwindfunclet$??0BossMonsterGaugeWnd@@QAE@XZ$2
	DD	02H
	DD	FLAT:__unwindfunclet$??0BossMonsterGaugeWnd@@QAE@XZ$3
__ehfuncinfo$??0BossMonsterGaugeWnd@@QAE@XZ DD 019930522H
	DD	04H
	DD	FLAT:__unwindtable$??0BossMonsterGaugeWnd@@QAE@XZ
	DD	2 DUP(00H)
	DD	2 DUP(00H)
	DD	00H
	DD	01H
; Function compile flags: /Ogsp
xdata$x	ENDS
;	COMDAT ??0BossMonsterGaugeWnd@@QAE@XZ
_TEXT	SEGMENT
_this$ = -16						; size = 4
__$EHRec$ = -12						; size = 12
??0BossMonsterGaugeWnd@@QAE@XZ PROC			; BossMonsterGaugeWnd::BossMonsterGaugeWnd, COMDAT
; _this$ = ecx

; 8    : {

  00000	6a 04		 push	 4
  00002	b8 00 00 00 00	 mov	 eax, __ehhandler$??0BossMonsterGaugeWnd@@QAE@XZ
  00007	e8 00 00 00 00	 call	 __EH_prolog3
  0000c	8b f1		 mov	 esi, ecx
  0000e	89 75 f0	 mov	 DWORD PTR _this$[ebp], esi
  00011	ff 15 00 00 00
	00		 call	 DWORD PTR __imp_??0ioMovingWnd@@QAE@XZ
  00017	33 db		 xor	 ebx, ebx
  00019	8d 8e a8 01 00
	00		 lea	 ecx, DWORD PTR [esi+424]
  0001f	89 5d fc	 mov	 DWORD PTR __$EHRec$[ebp+8], ebx
  00022	c7 06 00 00 00
	00		 mov	 DWORD PTR [esi], OFFSET ??_7BossMonsterGaugeWnd@@6B@
  00028	e8 00 00 00 00	 call	 ??0FSMStateMgr@@QAE@XZ	; FSMStateMgr::FSMStateMgr
  0002d	8b 3d 00 00 00
	00		 mov	 edi, DWORD PTR __imp_??0ioHashString@@QAE@XZ
  00033	8d 8e e4 01 00
	00		 lea	 ecx, DWORD PTR [esi+484]
  00039	c6 45 fc 01	 mov	 BYTE PTR __$EHRec$[ebp+8], 1
  0003d	ff d7		 call	 edi
  0003f	8d 8e f4 01 00
	00		 lea	 ecx, DWORD PTR [esi+500]
  00045	c6 45 fc 02	 mov	 BYTE PTR __$EHRec$[ebp+8], 2
  00049	ff d7		 call	 edi

; 9    : 	m_pIconBackOrange = NULL;
; 10   : 	m_pIconBackRed    = NULL;
; 11   : 	m_pGaugeBack      = NULL;
; 12   : 	m_pGaugeOrange    = NULL;
; 13   : 	m_pGaugeRed       = NULL;
; 14   : 	m_pMonsterIcon    = NULL;
; 15   : 
; 16   : 	m_iBlindOffSetY   = 0;
; 17   : 	m_iPreBlindOffSetY= 0;
; 18   : 	m_iDefaultX       = 0;
; 19   : 	m_iDefaultY       = 0;
; 20   : 
; 21   : 	m_eGaugeType = GAUGE_HALF_BOSS;
; 22   : 	m_fMaxHP = m_fCurHP = m_fAniHP = 0.0f;

  0004b	0f 57 c0	 xorps	 xmm0, xmm0

; 23   : 	m_fCurAniTime = 0.0f;
; 24   : 
; 25   : 	m_bScreen = false;
; 26   : 	m_fScreenTime = 0.0f;
; 27   : 
; 28   : 	InitShowAniState();

  0004e	8b ce		 mov	 ecx, esi
  00050	c6 45 fc 03	 mov	 BYTE PTR __$EHRec$[ebp+8], 3
  00054	89 9e 90 01 00
	00		 mov	 DWORD PTR [esi+400], ebx
  0005a	89 9e 94 01 00
	00		 mov	 DWORD PTR [esi+404], ebx
  00060	89 9e 98 01 00
	00		 mov	 DWORD PTR [esi+408], ebx
  00066	89 9e 9c 01 00
	00		 mov	 DWORD PTR [esi+412], ebx
  0006c	89 9e a0 01 00
	00		 mov	 DWORD PTR [esi+416], ebx
  00072	89 9e a4 01 00
	00		 mov	 DWORD PTR [esi+420], ebx
  00078	89 9e d0 01 00
	00		 mov	 DWORD PTR [esi+464], ebx
  0007e	89 9e d4 01 00
	00		 mov	 DWORD PTR [esi+468], ebx
  00084	89 9e d8 01 00
	00		 mov	 DWORD PTR [esi+472], ebx
  0008a	89 9e dc 01 00
	00		 mov	 DWORD PTR [esi+476], ebx
  00090	c7 86 e0 01 00
	00 01 00 00 00	 mov	 DWORD PTR [esi+480], 1
  0009a	f3 0f 11 86 0c
	02 00 00	 movss	 DWORD PTR [esi+524], xmm0
  000a2	f3 0f 11 86 08
	02 00 00	 movss	 DWORD PTR [esi+520], xmm0
  000aa	f3 0f 11 86 04
	02 00 00	 movss	 DWORD PTR [esi+516], xmm0
  000b2	f3 0f 11 86 10
	02 00 00	 movss	 DWORD PTR [esi+528], xmm0
  000ba	88 9e 14 02 00
	00		 mov	 BYTE PTR [esi+532], bl
  000c0	f3 0f 11 86 18
	02 00 00	 movss	 DWORD PTR [esi+536], xmm0
  000c8	e8 00 00 00 00	 call	 ?InitShowAniState@BossMonsterGaugeWnd@@IAEXXZ ; BossMonsterGaugeWnd::InitShowAniState

; 29   : }

  000cd	8b c6		 mov	 eax, esi
  000cf	e8 00 00 00 00	 call	 __EH_epilog3
  000d4	c3		 ret	 0
_TEXT	ENDS
;	COMDAT text$x
text$x	SEGMENT
__unwindfunclet$??0BossMonsterGaugeWnd@@QAE@XZ$0:
  00000	8b 4d f0	 mov	 ecx, DWORD PTR _this$[ebp]
  00003	ff 25 00 00 00
	00		 jmp	 DWORD PTR __imp_??1ioMovingWnd@@UAE@XZ
__unwindfunclet$??0BossMonsterGaugeWnd@@QAE@XZ$1:
  00009	8b 4d f0	 mov	 ecx, DWORD PTR _this$[ebp]
  0000c	81 c1 a8 01 00
	00		 add	 ecx, 424		; 000001a8H
  00012	e9 00 00 00 00	 jmp	 ??1FSMStateMgr@@UAE@XZ	; FSMStateMgr::~FSMStateMgr
__unwindfunclet$??0BossMonsterGaugeWnd@@QAE@XZ$2:
  00017	8b 4d f0	 mov	 ecx, DWORD PTR _this$[ebp]
  0001a	81 c1 e4 01 00
	00		 add	 ecx, 484		; 000001e4H
  00020	ff 25 00 00 00
	00		 jmp	 DWORD PTR __imp_??1ioHashString@@QAE@XZ
__unwindfunclet$??0BossMonsterGaugeWnd@@QAE@XZ$3:
  00026	8b 4d f0	 mov	 ecx, DWORD PTR _this$[ebp]
  00029	81 c1 f4 01 00
	00		 add	 ecx, 500		; 000001f4H
  0002f	ff 25 00 00 00
	00		 jmp	 DWORD PTR __imp_??1ioHashString@@QAE@XZ
__ehhandler$??0BossMonsterGaugeWnd@@QAE@XZ:
  00035	8b 54 24 08	 mov	 edx, DWORD PTR [esp+8]
  00039	8d 42 0c	 lea	 eax, DWORD PTR [edx+12]
  0003c	8b 4a ec	 mov	 ecx, DWORD PTR [edx-20]
  0003f	33 c8		 xor	 ecx, eax
  00041	e8 00 00 00 00	 call	 @__security_check_cookie@4
  00046	b8 00 00 00 00	 mov	 eax, OFFSET __ehfuncinfo$??0BossMonsterGaugeWnd@@QAE@XZ
  0004b	e9 00 00 00 00	 jmp	 ___CxxFrameHandler3
text$x	ENDS
??0BossMonsterGaugeWnd@@QAE@XZ ENDP			; BossMonsterGaugeWnd::BossMonsterGaugeWnd
; Function compile flags: /Ogsp
;	COMDAT ??_GBossMonsterGaugeWnd@@UAEPAXI@Z
_TEXT	SEGMENT
___flags$ = 8						; size = 4
??_GBossMonsterGaugeWnd@@UAEPAXI@Z PROC			; BossMonsterGaugeWnd::`scalar deleting destructor', COMDAT
; _this$ = ecx
  00000	55		 push	 ebp
  00001	8b ec		 mov	 ebp, esp
  00003	56		 push	 esi
  00004	8b f1		 mov	 esi, ecx
  00006	e8 00 00 00 00	 call	 ??1BossMonsterGaugeWnd@@UAE@XZ ; BossMonsterGaugeWnd::~BossMonsterGaugeWnd
  0000b	f6 45 08 01	 test	 BYTE PTR ___flags$[ebp], 1
  0000f	74 07		 je	 SHORT $LN1@scalar
  00011	56		 push	 esi
  00012	e8 00 00 00 00	 call	 ??3@YAXPAX@Z		; operator delete
  00017	59		 pop	 ecx
$LN1@scalar:
  00018	8b c6		 mov	 eax, esi
  0001a	5e		 pop	 esi
  0001b	5d		 pop	 ebp
  0001c	c2 04 00	 ret	 4
??_GBossMonsterGaugeWnd@@UAEPAXI@Z ENDP			; BossMonsterGaugeWnd::`scalar deleting destructor'
_TEXT	ENDS
PUBLIC	__real@3f266666
PUBLIC	??_C@_0BO@BKJHALLC@BossMonsterGaugeWnd?3?3OnRender?$AA@ ; `string'
PUBLIC	??_C@_00CNPNBAHC@?$AA@				; `string'
PUBLIC	__real@3e99999a
EXTRN	__imp_?PrintText@ioFontManager@@QAEXMMMPBD0@Z:PROC
EXTRN	__imp_?GetString@ioStringManager@@QAEPADPBD0HW4FileNamePrefix@1@@Z:PROC
EXTRN	__imp_?GetSingleton@ioStringManager@@SAAAV1@XZ:PROC
EXTRN	__imp_?c_str@ioHashString@@QBEPBDXZ:PROC
EXTRN	__imp_?SetTextColor@ioFontManager@@QAEXHHH@Z:PROC
EXTRN	__imp_?SetAlignType@ioFontManager@@QAEXW4TextAlignType@@@Z:PROC
EXTRN	__imp_?SetTextStyle@ioFontManager@@QAEXW4TextStyle@@@Z:PROC
EXTRN	__imp_?SetBkColor@ioFontManager@@QAEXHHH@Z:PROC
EXTRN	__imp_?GetSingleton@ioFontManager@@SAAAV1@XZ:PROC
EXTRN	__imp_?IsEmpty@ioHashString@@QBE_NXZ:PROC
EXTRN	__imp_?RenderWidthCut@ioUIRenderImage@@QAEXMMHHW4UIRenderType@@W4TextureFilterOption@@0@Z:PROC
EXTRN	__imp_?GetWidth@ioUIRenderElement@@QBEHXZ:PROC
EXTRN	__imp_?OnRender@ioWnd@@MAEXXZ:PROC
;	COMDAT __real@3f266666
; File d:\lost saga for developer\youtube\tutorial\source\src\lsclient\stdafx.h
CONST	SEGMENT
__real@3f266666 DD 03f266666r			; 0.65
CONST	ENDS
;	COMDAT ??_C@_0BO@BKJHALLC@BossMonsterGaugeWnd?3?3OnRender?$AA@
CONST	SEGMENT
??_C@_0BO@BKJHALLC@BossMonsterGaugeWnd?3?3OnRender?$AA@ DB 'BossMonsterGa'
	DB	'ugeWnd::OnRender', 00H			; `string'
CONST	ENDS
;	COMDAT ??_C@_00CNPNBAHC@?$AA@
CONST	SEGMENT
??_C@_00CNPNBAHC@?$AA@ DB 00H				; `string'
CONST	ENDS
;	COMDAT __real@3e99999a
CONST	SEGMENT
__real@3e99999a DD 03e99999ar			; 0.3
; Function compile flags: /Ogsp
; File d:\lost saga for developer\youtube\tutorial\source\src\lsclient\gui\bossmonstergaugewnd.cpp
CONST	ENDS
;	COMDAT ?OnRender@BossMonsterGaugeWnd@@MAEXXZ
_TEXT	SEGMENT
tv774 = -24						; size = 4
tv770 = -24						; size = 4
tv758 = -24						; size = 4
tv740 = -24						; size = 4
tv436 = -24						; size = 4
tv430 = -24						; size = 4
tv421 = -24						; size = 4
tv418 = -24						; size = 4
tv407 = -24						; size = 4
tv402 = -24						; size = 4
tv137 = -24						; size = 4
_fHPRate$505304 = -24					; size = 4
_fHPRate$505294 = -24					; size = 4
tv768 = -20						; size = 4
tv719 = -20						; size = 4
tv683 = -20						; size = 4
$T506549 = -20						; size = 4
_iXPos$ = -16						; size = 4
_iYPos$ = -12						; size = 4
tv723 = -8						; size = 4
$T506553 = -8						; size = 4
tv721 = -4						; size = 4
?OnRender@BossMonsterGaugeWnd@@MAEXXZ PROC		; BossMonsterGaugeWnd::OnRender, COMDAT
; _this$ = ecx

; 99   : {

  00000	55		 push	 ebp
  00001	8b ec		 mov	 ebp, esp
  00003	83 ec 18	 sub	 esp, 24			; 00000018H
  00006	56		 push	 esi
  00007	8b f1		 mov	 esi, ecx

; 100  : 	if( m_ShowAniState.GetCurState() == SAT_DELAY || 
; 101  : 		m_ShowAniState.GetCurState() == SAT_START_ROUND ) 

  00009	8b 86 ac 01 00
	00		 mov	 eax, DWORD PTR [esi+428]
  0000f	83 f8 02	 cmp	 eax, 2
  00012	0f 84 2d 06 00
	00		 je	 $LN17@OnRender
  00018	83 f8 01	 cmp	 eax, 1
  0001b	0f 84 24 06 00
	00		 je	 $LN17@OnRender

; 102  : 		return;
; 103  : 
; 104  : 	ioWnd::OnRender();

  00021	57		 push	 edi
  00022	ff 15 00 00 00
	00		 call	 DWORD PTR __imp_?OnRender@ioWnd@@MAEXXZ

; 105  : 
; 106  : 	int iXPos = GetDerivedPosX();

  00028	8b ce		 mov	 ecx, esi
  0002a	ff 15 00 00 00
	00		 call	 DWORD PTR __imp_?GetDerivedPosX@ioWnd@@QBEHXZ
  00030	8b f8		 mov	 edi, eax

; 107  : 	int iYPos = GetDerivedPosY();	

  00032	8b ce		 mov	 ecx, esi
  00034	89 7d f0	 mov	 DWORD PTR _iXPos$[ebp], edi
  00037	ff 15 00 00 00
	00		 call	 DWORD PTR __imp_?GetDerivedPosY@ioWnd@@QBEHXZ
  0003d	8b d0		 mov	 edx, eax
  0003f	89 55 f4	 mov	 DWORD PTR _iYPos$[ebp], edx

; 108  : 
; 109  : 	m_fMaxHP = max( FLOAT1, m_fMaxHP );      //

  00042	b8 01 00 00 00	 mov	 eax, 1
  00047	d9 86 04 02 00
	00		 fld	 DWORD PTR [esi+516]
  0004d	89 45 e8	 mov	 DWORD PTR tv770[ebp], eax
  00050	d9 5d ec	 fstp	 DWORD PTR tv683[ebp]
  00053	db 45 e8	 fild	 DWORD PTR tv770[ebp]
  00056	85 c0		 test	 eax, eax
  00058	79 06		 jns	 SHORT $LN43@OnRender
  0005a	d8 05 00 00 00
	00		 fadd	 DWORD PTR __real@4f800000
$LN43@OnRender:
  00060	d9 45 ec	 fld	 DWORD PTR tv683[ebp]
  00063	d9 c9		 fxch	 ST(1)
  00065	df f1		 fcomip	 ST(1)
  00067	dd d8		 fstp	 ST(0)
  00069	76 1f		 jbe	 SHORT $LN21@OnRender
  0006b	b8 01 00 00 00	 mov	 eax, 1
  00070	89 45 e8	 mov	 DWORD PTR tv758[ebp], eax
  00073	db 45 e8	 fild	 DWORD PTR tv758[ebp]
  00076	85 c0		 test	 eax, eax
  00078	79 06		 jns	 SHORT $LN44@OnRender
  0007a	d8 05 00 00 00
	00		 fadd	 DWORD PTR __real@4f800000
$LN44@OnRender:
  00080	d9 5d e8	 fstp	 DWORD PTR tv137[ebp]
  00083	f3 0f 10 45 e8	 movss	 xmm0, DWORD PTR tv137[ebp]
  00088	eb 05		 jmp	 SHORT $LN22@OnRender
$LN21@OnRender:
  0008a	f3 0f 10 45 ec	 movss	 xmm0, DWORD PTR tv683[ebp]
$LN22@OnRender:

; 110  : 	if( m_pGaugeBack )

  0008f	8b 8e 98 01 00
	00		 mov	 ecx, DWORD PTR [esi+408]
  00095	53		 push	 ebx
  00096	33 db		 xor	 ebx, ebx
  00098	f3 0f 11 86 04
	02 00 00	 movss	 DWORD PTR [esi+516], xmm0
  000a0	3b cb		 cmp	 ecx, ebx
  000a2	74 29		 je	 SHORT $LN16@OnRender

; 111  : 		m_pGaugeBack->Render( iXPos + 74, iYPos + 19 );

  000a4	8b 01		 mov	 eax, DWORD PTR [ecx]
  000a6	53		 push	 ebx
  000a7	53		 push	 ebx
  000a8	53		 push	 ebx
  000a9	53		 push	 ebx
  000aa	83 c2 13	 add	 edx, 19			; 00000013H
  000ad	0f 57 c0	 xorps	 xmm0, xmm0
  000b0	f3 0f 2a c2	 cvtsi2ss xmm0, edx
  000b4	51		 push	 ecx
  000b5	51		 push	 ecx
  000b6	f3 0f 11 44 24
	04		 movss	 DWORD PTR [esp+4], xmm0
  000bc	8d 57 4a	 lea	 edx, DWORD PTR [edi+74]
  000bf	0f 57 c0	 xorps	 xmm0, xmm0
  000c2	f3 0f 2a c2	 cvtsi2ss xmm0, edx
  000c6	f3 0f 11 04 24	 movss	 DWORD PTR [esp], xmm0
  000cb	ff 10		 call	 DWORD PTR [eax]
$LN16@OnRender:

; 112  : 
; 113  : 	switch( m_eGaugeType )

  000cd	8b 86 e0 01 00
	00		 mov	 eax, DWORD PTR [esi+480]
  000d3	48		 dec	 eax
  000d4	0f 84 2b 02 00
	00		 je	 $LN13@OnRender
  000da	48		 dec	 eax
  000db	0f 85 9c 04 00
	00		 jne	 $LN8@OnRender

; 149  : 			}
; 150  : 		}
; 151  : 		break;
; 152  : 	case GAUGE_LAST_BOSS:
; 153  : 		{
; 154  : 			if( m_pGaugeRed )

  000e1	8b 8e a0 01 00
	00		 mov	 ecx, DWORD PTR [esi+416]
  000e7	3b cb		 cmp	 ecx, ebx
  000e9	0f 84 7a 01 00
	00		 je	 $LN4@OnRender

; 155  : 			{
; 156  : 				float fHPRate = m_fCurHP / m_fMaxHP;

  000ef	f3 0f 10 86 08
	02 00 00	 movss	 xmm0, DWORD PTR [esi+520]
  000f7	f3 0f 10 8e 04
	02 00 00	 movss	 xmm1, DWORD PTR [esi+516]
  000ff	0f 5a c0	 cvtps2pd xmm0, xmm0
  00102	0f 5a c9	 cvtps2pd xmm1, xmm1
  00105	f2 0f 5e c1	 divsd	 xmm0, xmm1
  00109	66 0f 5a c0	 cvtpd2ps xmm0, xmm0
  0010d	f3 0f 11 45 e8	 movss	 DWORD PTR _fHPRate$505304[ebp], xmm0

; 157  : 				float fWidth = m_pGaugeRed->GetWidth() * fHPRate;

  00112	ff 15 00 00 00
	00		 call	 DWORD PTR __imp_?GetWidth@ioUIRenderElement@@QBEHXZ
  00118	f3 0f 10 4d e8	 movss	 xmm1, DWORD PTR _fHPRate$505304[ebp]

; 158  : 				m_pGaugeRed->RenderWidthCut( iXPos + 76, iYPos + 21, 0, fWidth );

  0011d	8b 4d f4	 mov	 ecx, DWORD PTR _iYPos$[ebp]
  00120	0f 57 c0	 xorps	 xmm0, xmm0
  00123	53		 push	 ebx
  00124	f3 0f 2a c0	 cvtsi2ss xmm0, eax
  00128	53		 push	 ebx
  00129	0f 5a c0	 cvtps2pd xmm0, xmm0
  0012c	0f 5a c9	 cvtps2pd xmm1, xmm1
  0012f	f2 0f 59 c1	 mulsd	 xmm0, xmm1
  00133	53		 push	 ebx
  00134	66 0f 5a c0	 cvtpd2ps xmm0, xmm0
  00138	f3 0f 2c c0	 cvttss2si eax, xmm0
  0013c	50		 push	 eax
  0013d	83 c1 15	 add	 ecx, 21			; 00000015H
  00140	53		 push	 ebx
  00141	51		 push	 ecx
  00142	51		 push	 ecx
  00143	83 c7 4c	 add	 edi, 76			; 0000004cH
  00146	0f 57 c0	 xorps	 xmm0, xmm0
  00149	f3 0f 2a c1	 cvtsi2ss xmm0, ecx
  0014d	8b 8e a0 01 00
	00		 mov	 ecx, DWORD PTR [esi+416]
  00153	0f 57 c9	 xorps	 xmm1, xmm1
  00156	f3 0f 2a cf	 cvtsi2ss xmm1, edi
  0015a	8b 3d 00 00 00
	00		 mov	 edi, DWORD PTR __imp_?RenderWidthCut@ioUIRenderImage@@QAEXMMHHW4UIRenderType@@W4TextureFilterOption@@0@Z
  00160	f3 0f 11 44 24
	04		 movss	 DWORD PTR [esp+4], xmm0
  00166	89 45 ec	 mov	 DWORD PTR tv719[ebp], eax
  00169	f3 0f 11 45 fc	 movss	 DWORD PTR tv721[ebp], xmm0
  0016e	f3 0f 11 4d f8	 movss	 DWORD PTR tv723[ebp], xmm1
  00173	f3 0f 11 0c 24	 movss	 DWORD PTR [esp], xmm1
  00178	ff d7		 call	 edi

; 159  : 				if( fHPRate <= 0.30f && m_bScreen )

  0017a	f3 0f 10 05 00
	00 00 00	 movss	 xmm0, DWORD PTR __real@3e99999a
  00182	0f 2f 45 e8	 comiss	 xmm0, DWORD PTR _fHPRate$505304[ebp]
  00186	72 2f		 jb	 SHORT $LN5@OnRender
  00188	38 9e 14 02 00
	00		 cmp	 BYTE PTR [esi+532], bl
  0018e	74 27		 je	 SHORT $LN5@OnRender

; 160  : 				{
; 161  : 					// Screen x 1
; 162  : 					m_pGaugeRed->RenderWidthCut( iXPos + 76, iYPos + 21, 0, fWidth, UI_RENDER_SCREEN );

  00190	f3 0f 10 45 fc	 movss	 xmm0, DWORD PTR tv721[ebp]
  00195	53		 push	 ebx
  00196	53		 push	 ebx
  00197	6a 01		 push	 1
  00199	ff 75 ec	 push	 DWORD PTR tv719[ebp]
  0019c	53		 push	 ebx
  0019d	51		 push	 ecx
  0019e	51		 push	 ecx
  0019f	8b 8e a0 01 00
	00		 mov	 ecx, DWORD PTR [esi+416]
  001a5	f3 0f 11 44 24
	04		 movss	 DWORD PTR [esp+4], xmm0
  001ab	f3 0f 10 45 f8	 movss	 xmm0, DWORD PTR tv723[ebp]
  001b0	f3 0f 11 04 24	 movss	 DWORD PTR [esp], xmm0
  001b5	ff d7		 call	 edi
$LN5@OnRender:

; 163  : 				}
; 164  : 
; 165  : 				if( m_fAniHP > m_fCurHP )

  001b7	f3 0f 10 86 0c
	02 00 00	 movss	 xmm0, DWORD PTR [esi+524]
  001bf	f3 0f 10 8e 08
	02 00 00	 movss	 xmm1, DWORD PTR [esi+520]
  001c7	0f 5a c0	 cvtps2pd xmm0, xmm0
  001ca	0f 5a c9	 cvtps2pd xmm1, xmm1
  001cd	66 0f 2f c1	 comisd	 xmm0, xmm1
  001d1	0f 86 8f 00 00
	00		 jbe	 $LN40@OnRender

; 166  : 				{
; 167  : 					float fAniWidth = m_pGaugeRed->GetWidth() * ( m_fAniHP / m_fMaxHP );

  001d7	8b 8e a0 01 00
	00		 mov	 ecx, DWORD PTR [esi+416]
  001dd	ff 15 00 00 00
	00		 call	 DWORD PTR __imp_?GetWidth@ioUIRenderElement@@QBEHXZ
  001e3	f3 0f 10 8e 0c
	02 00 00	 movss	 xmm1, DWORD PTR [esi+524]
  001eb	f3 0f 10 96 04
	02 00 00	 movss	 xmm2, DWORD PTR [esi+516]
  001f3	0f 57 c0	 xorps	 xmm0, xmm0

; 168  : 					// Screen x 2
; 169  : 					m_pGaugeRed->RenderWidthCut( iXPos + 76, iYPos + 21, fWidth, fAniWidth, UI_RENDER_SCREEN );

  001f6	53		 push	 ebx
  001f7	f3 0f 2a c0	 cvtsi2ss xmm0, eax
  001fb	53		 push	 ebx
  001fc	0f 5a c0	 cvtps2pd xmm0, xmm0
  001ff	0f 5a c9	 cvtps2pd xmm1, xmm1
  00202	0f 5a d2	 cvtps2pd xmm2, xmm2
  00205	6a 01		 push	 1
  00207	f2 0f 5e ca	 divsd	 xmm1, xmm2
  0020b	f2 0f 59 c1	 mulsd	 xmm0, xmm1
  0020f	66 0f 5a c0	 cvtpd2ps xmm0, xmm0
  00213	f3 0f 2c c0	 cvttss2si eax, xmm0
  00217	f3 0f 10 45 fc	 movss	 xmm0, DWORD PTR tv721[ebp]
  0021c	50		 push	 eax
  0021d	ff 75 ec	 push	 DWORD PTR tv719[ebp]
  00220	89 45 e8	 mov	 DWORD PTR tv740[ebp], eax
  00223	51		 push	 ecx
  00224	51		 push	 ecx
  00225	8b 8e a0 01 00
	00		 mov	 ecx, DWORD PTR [esi+416]
  0022b	f3 0f 11 44 24
	04		 movss	 DWORD PTR [esp+4], xmm0
  00231	f3 0f 10 45 f8	 movss	 xmm0, DWORD PTR tv723[ebp]
  00236	f3 0f 11 04 24	 movss	 DWORD PTR [esp], xmm0
  0023b	ff d7		 call	 edi

; 170  : 					m_pGaugeRed->RenderWidthCut( iXPos + 76, iYPos + 21, fWidth, fAniWidth, UI_RENDER_SCREEN );

  0023d	f3 0f 10 45 fc	 movss	 xmm0, DWORD PTR tv721[ebp]
  00242	53		 push	 ebx
  00243	53		 push	 ebx
  00244	6a 01		 push	 1
  00246	ff 75 e8	 push	 DWORD PTR tv740[ebp]
  00249	ff 75 ec	 push	 DWORD PTR tv719[ebp]
  0024c	51		 push	 ecx
  0024d	51		 push	 ecx
  0024e	8b 8e a0 01 00
	00		 mov	 ecx, DWORD PTR [esi+416]
  00254	f3 0f 11 44 24
	04		 movss	 DWORD PTR [esp+4], xmm0
  0025a	f3 0f 10 45 f8	 movss	 xmm0, DWORD PTR tv723[ebp]
  0025f	f3 0f 11 04 24	 movss	 DWORD PTR [esp], xmm0
  00264	ff d7		 call	 edi
$LN40@OnRender:
  00266	8b 7d f0	 mov	 edi, DWORD PTR _iXPos$[ebp]
$LN4@OnRender:

; 171  : 				}
; 172  : 			}
; 173  : 
; 174  : 			if( m_pIconBackRed )

  00269	8b 8e 94 01 00
	00		 mov	 ecx, DWORD PTR [esi+404]
  0026f	3b cb		 cmp	 ecx, ebx
  00271	74 2d		 je	 SHORT $LN3@OnRender

; 175  : 			{
; 176  : 				m_pIconBackRed->Render( iXPos + 5, iYPos - 20, UI_RENDER_SCREEN );

  00273	8b 55 f4	 mov	 edx, DWORD PTR _iYPos$[ebp]
  00276	8b 01		 mov	 eax, DWORD PTR [ecx]
  00278	53		 push	 ebx
  00279	53		 push	 ebx
  0027a	53		 push	 ebx
  0027b	6a 01		 push	 1
  0027d	0f 57 c0	 xorps	 xmm0, xmm0
  00280	51		 push	 ecx
  00281	83 c2 ec	 add	 edx, -20		; ffffffecH
  00284	f3 0f 2a c2	 cvtsi2ss xmm0, edx
  00288	51		 push	 ecx
  00289	f3 0f 11 44 24
	04		 movss	 DWORD PTR [esp+4], xmm0
  0028f	83 c7 05	 add	 edi, 5
  00292	0f 57 c0	 xorps	 xmm0, xmm0
  00295	f3 0f 2a c7	 cvtsi2ss xmm0, edi
  00299	f3 0f 11 04 24	 movss	 DWORD PTR [esp], xmm0
  0029e	ff 10		 call	 DWORD PTR [eax]
$LN3@OnRender:

; 177  : 			}
; 178  : 
; 179  : 			if( !m_szMonsterMent.IsEmpty() )

  002a0	8d 8e f4 01 00
	00		 lea	 ecx, DWORD PTR [esi+500]
  002a6	ff 15 00 00 00
	00		 call	 DWORD PTR __imp_?IsEmpty@ioHashString@@QBE_NXZ
  002ac	84 c0		 test	 al, al
  002ae	0f 85 c9 02 00
	00		 jne	 $LN8@OnRender

; 180  : 			{
; 181  : 				g_FontMgr.SetBkColor( 0, 0, 0 );

  002b4	8b 3d 00 00 00
	00		 mov	 edi, DWORD PTR __imp_?GetSingleton@ioFontManager@@SAAAV1@XZ
  002ba	53		 push	 ebx
  002bb	53		 push	 ebx
  002bc	53		 push	 ebx
  002bd	ff d7		 call	 edi
  002bf	8b c8		 mov	 ecx, eax
  002c1	ff 15 00 00 00
	00		 call	 DWORD PTR __imp_?SetBkColor@ioFontManager@@QAEXHHH@Z

; 182  : 				g_FontMgr.SetTextStyle( TS_OUTLINE_FULL_2X );

  002c7	6a 05		 push	 5
  002c9	ff d7		 call	 edi
  002cb	8b c8		 mov	 ecx, eax
  002cd	ff 15 00 00 00
	00		 call	 DWORD PTR __imp_?SetTextStyle@ioFontManager@@QAEXW4TextStyle@@@Z

; 183  : 				g_FontMgr.SetAlignType( TAT_LEFT );

  002d3	53		 push	 ebx
  002d4	ff d7		 call	 edi
  002d6	8b c8		 mov	 ecx, eax
  002d8	ff 15 00 00 00
	00		 call	 DWORD PTR __imp_?SetAlignType@ioFontManager@@QAEXW4TextAlignType@@@Z

; 184  : 				g_FontMgr.SetTextColor( 255, 60, 0 );

  002de	53		 push	 ebx
  002df	6a 3c		 push	 60			; 0000003cH
  002e1	68 ff 00 00 00	 push	 255			; 000000ffH
  002e6	ff d7		 call	 edi
  002e8	8b c8		 mov	 ecx, eax
  002ea	ff 15 00 00 00
	00		 call	 DWORD PTR __imp_?SetTextColor@ioFontManager@@QAEXHHH@Z

; 185  : 				g_FontMgr.PrintText( iXPos + 82, iYPos + 2, FONT_SIZE_13, STR(2), m_szMonsterMent.c_str() );

  002f0	8d 8e f4 01 00
	00		 lea	 ecx, DWORD PTR [esi+500]
  002f6	ff 15 00 00 00
	00		 call	 DWORD PTR __imp_?c_str@ioHashString@@QBEPBDXZ
  002fc	50		 push	 eax
  002fd	53		 push	 ebx
  002fe	6a 02		 push	 2

; 186  : 			}
; 187  : 		}
; 188  : 		break;

  00300	e9 1f 02 00 00	 jmp	 $LN49@OnRender
$LN13@OnRender:

; 114  : 	{
; 115  : 	case GAUGE_HALF_BOSS:
; 116  : 		{
; 117  : 			if( m_pGaugeOrange )

  00305	8b 8e 9c 01 00
	00		 mov	 ecx, DWORD PTR [esi+412]
  0030b	3b cb		 cmp	 ecx, ebx
  0030d	0f 84 7a 01 00
	00		 je	 $LN10@OnRender

; 118  : 			{
; 119  : 				float fHPRate = m_fCurHP / m_fMaxHP;

  00313	f3 0f 10 86 08
	02 00 00	 movss	 xmm0, DWORD PTR [esi+520]
  0031b	f3 0f 10 8e 04
	02 00 00	 movss	 xmm1, DWORD PTR [esi+516]
  00323	0f 5a c0	 cvtps2pd xmm0, xmm0
  00326	0f 5a c9	 cvtps2pd xmm1, xmm1
  00329	f2 0f 5e c1	 divsd	 xmm0, xmm1
  0032d	66 0f 5a c0	 cvtpd2ps xmm0, xmm0
  00331	f3 0f 11 45 e8	 movss	 DWORD PTR _fHPRate$505294[ebp], xmm0

; 120  : 				float fWidth = m_pGaugeOrange->GetWidth() * fHPRate;

  00336	ff 15 00 00 00
	00		 call	 DWORD PTR __imp_?GetWidth@ioUIRenderElement@@QBEHXZ
  0033c	f3 0f 10 4d e8	 movss	 xmm1, DWORD PTR _fHPRate$505294[ebp]

; 121  : 				m_pGaugeOrange->RenderWidthCut( iXPos + 76, iYPos + 21, 0, fWidth );

  00341	8b 4d f4	 mov	 ecx, DWORD PTR _iYPos$[ebp]
  00344	0f 57 c0	 xorps	 xmm0, xmm0
  00347	53		 push	 ebx
  00348	f3 0f 2a c0	 cvtsi2ss xmm0, eax
  0034c	53		 push	 ebx
  0034d	0f 5a c0	 cvtps2pd xmm0, xmm0
  00350	0f 5a c9	 cvtps2pd xmm1, xmm1
  00353	f2 0f 59 c1	 mulsd	 xmm0, xmm1
  00357	53		 push	 ebx
  00358	66 0f 5a c0	 cvtpd2ps xmm0, xmm0
  0035c	f3 0f 2c c0	 cvttss2si eax, xmm0
  00360	50		 push	 eax
  00361	83 c1 15	 add	 ecx, 21			; 00000015H
  00364	53		 push	 ebx
  00365	51		 push	 ecx
  00366	51		 push	 ecx
  00367	83 c7 4c	 add	 edi, 76			; 0000004cH
  0036a	0f 57 c0	 xorps	 xmm0, xmm0
  0036d	f3 0f 2a c1	 cvtsi2ss xmm0, ecx
  00371	8b 8e 9c 01 00
	00		 mov	 ecx, DWORD PTR [esi+412]
  00377	0f 57 c9	 xorps	 xmm1, xmm1
  0037a	f3 0f 2a cf	 cvtsi2ss xmm1, edi
  0037e	8b 3d 00 00 00
	00		 mov	 edi, DWORD PTR __imp_?RenderWidthCut@ioUIRenderImage@@QAEXMMHHW4UIRenderType@@W4TextureFilterOption@@0@Z
  00384	f3 0f 11 44 24
	04		 movss	 DWORD PTR [esp+4], xmm0
  0038a	89 45 ec	 mov	 DWORD PTR tv768[ebp], eax
  0038d	f3 0f 11 45 fc	 movss	 DWORD PTR tv721[ebp], xmm0
  00392	f3 0f 11 4d f8	 movss	 DWORD PTR tv723[ebp], xmm1
  00397	f3 0f 11 0c 24	 movss	 DWORD PTR [esp], xmm1
  0039c	ff d7		 call	 edi

; 122  : 				if( fHPRate <= 0.30f && m_bScreen )

  0039e	f3 0f 10 05 00
	00 00 00	 movss	 xmm0, DWORD PTR __real@3e99999a
  003a6	0f 2f 45 e8	 comiss	 xmm0, DWORD PTR _fHPRate$505294[ebp]
  003aa	72 2f		 jb	 SHORT $LN11@OnRender
  003ac	38 9e 14 02 00
	00		 cmp	 BYTE PTR [esi+532], bl
  003b2	74 27		 je	 SHORT $LN11@OnRender

; 123  : 				{
; 124  : 					// Screen x 1
; 125  : 					m_pGaugeOrange->RenderWidthCut( iXPos + 76, iYPos + 21, 0, fWidth, UI_RENDER_SCREEN );

  003b4	f3 0f 10 45 fc	 movss	 xmm0, DWORD PTR tv721[ebp]
  003b9	53		 push	 ebx
  003ba	53		 push	 ebx
  003bb	6a 01		 push	 1
  003bd	ff 75 ec	 push	 DWORD PTR tv768[ebp]
  003c0	53		 push	 ebx
  003c1	51		 push	 ecx
  003c2	51		 push	 ecx
  003c3	8b 8e 9c 01 00
	00		 mov	 ecx, DWORD PTR [esi+412]
  003c9	f3 0f 11 44 24
	04		 movss	 DWORD PTR [esp+4], xmm0
  003cf	f3 0f 10 45 f8	 movss	 xmm0, DWORD PTR tv723[ebp]
  003d4	f3 0f 11 04 24	 movss	 DWORD PTR [esp], xmm0
  003d9	ff d7		 call	 edi
$LN11@OnRender:

; 126  : 				}
; 127  : 
; 128  : 				if( m_fAniHP > m_fCurHP )

  003db	f3 0f 10 86 0c
	02 00 00	 movss	 xmm0, DWORD PTR [esi+524]
  003e3	f3 0f 10 8e 08
	02 00 00	 movss	 xmm1, DWORD PTR [esi+520]
  003eb	0f 5a c0	 cvtps2pd xmm0, xmm0
  003ee	0f 5a c9	 cvtps2pd xmm1, xmm1
  003f1	66 0f 2f c1	 comisd	 xmm0, xmm1
  003f5	0f 86 8f 00 00
	00		 jbe	 $LN39@OnRender

; 129  : 				{
; 130  : 					float fAniWidth = m_pGaugeOrange->GetWidth() * ( m_fAniHP / m_fMaxHP );

  003fb	8b 8e 9c 01 00
	00		 mov	 ecx, DWORD PTR [esi+412]
  00401	ff 15 00 00 00
	00		 call	 DWORD PTR __imp_?GetWidth@ioUIRenderElement@@QBEHXZ
  00407	f3 0f 10 8e 0c
	02 00 00	 movss	 xmm1, DWORD PTR [esi+524]
  0040f	f3 0f 10 96 04
	02 00 00	 movss	 xmm2, DWORD PTR [esi+516]
  00417	0f 57 c0	 xorps	 xmm0, xmm0

; 131  : 					// Screen x 2
; 132  : 					m_pGaugeOrange->RenderWidthCut( iXPos + 76, iYPos + 21, fWidth, fAniWidth, UI_RENDER_SCREEN );

  0041a	53		 push	 ebx
  0041b	f3 0f 2a c0	 cvtsi2ss xmm0, eax
  0041f	53		 push	 ebx
  00420	0f 5a c0	 cvtps2pd xmm0, xmm0
  00423	0f 5a c9	 cvtps2pd xmm1, xmm1
  00426	0f 5a d2	 cvtps2pd xmm2, xmm2
  00429	6a 01		 push	 1
  0042b	f2 0f 5e ca	 divsd	 xmm1, xmm2
  0042f	f2 0f 59 c1	 mulsd	 xmm0, xmm1
  00433	66 0f 5a c0	 cvtpd2ps xmm0, xmm0
  00437	f3 0f 2c c0	 cvttss2si eax, xmm0
  0043b	f3 0f 10 45 fc	 movss	 xmm0, DWORD PTR tv721[ebp]
  00440	50		 push	 eax
  00441	ff 75 ec	 push	 DWORD PTR tv768[ebp]
  00444	89 45 e8	 mov	 DWORD PTR tv774[ebp], eax
  00447	51		 push	 ecx
  00448	51		 push	 ecx
  00449	8b 8e 9c 01 00
	00		 mov	 ecx, DWORD PTR [esi+412]
  0044f	f3 0f 11 44 24
	04		 movss	 DWORD PTR [esp+4], xmm0
  00455	f3 0f 10 45 f8	 movss	 xmm0, DWORD PTR tv723[ebp]
  0045a	f3 0f 11 04 24	 movss	 DWORD PTR [esp], xmm0
  0045f	ff d7		 call	 edi

; 133  : 					m_pGaugeOrange->RenderWidthCut( iXPos + 76, iYPos + 21, fWidth, fAniWidth, UI_RENDER_SCREEN );

  00461	f3 0f 10 45 fc	 movss	 xmm0, DWORD PTR tv721[ebp]
  00466	53		 push	 ebx
  00467	53		 push	 ebx
  00468	6a 01		 push	 1
  0046a	ff 75 e8	 push	 DWORD PTR tv774[ebp]
  0046d	ff 75 ec	 push	 DWORD PTR tv768[ebp]
  00470	51		 push	 ecx
  00471	51		 push	 ecx
  00472	8b 8e 9c 01 00
	00		 mov	 ecx, DWORD PTR [esi+412]
  00478	f3 0f 11 44 24
	04		 movss	 DWORD PTR [esp+4], xmm0
  0047e	f3 0f 10 45 f8	 movss	 xmm0, DWORD PTR tv723[ebp]
  00483	f3 0f 11 04 24	 movss	 DWORD PTR [esp], xmm0
  00488	ff d7		 call	 edi
$LN39@OnRender:
  0048a	8b 7d f0	 mov	 edi, DWORD PTR _iXPos$[ebp]
$LN10@OnRender:

; 134  : 				}
; 135  : 			}
; 136  : 
; 137  : 			if( m_pIconBackOrange )

  0048d	8b 8e 90 01 00
	00		 mov	 ecx, DWORD PTR [esi+400]
  00493	3b cb		 cmp	 ecx, ebx
  00495	74 2d		 je	 SHORT $LN9@OnRender

; 138  : 			{
; 139  : 				m_pIconBackOrange->Render( iXPos + 5, iYPos - 20, UI_RENDER_SCREEN );

  00497	8b 55 f4	 mov	 edx, DWORD PTR _iYPos$[ebp]
  0049a	8b 01		 mov	 eax, DWORD PTR [ecx]
  0049c	53		 push	 ebx
  0049d	53		 push	 ebx
  0049e	53		 push	 ebx
  0049f	6a 01		 push	 1
  004a1	0f 57 c0	 xorps	 xmm0, xmm0
  004a4	51		 push	 ecx
  004a5	83 c2 ec	 add	 edx, -20		; ffffffecH
  004a8	f3 0f 2a c2	 cvtsi2ss xmm0, edx
  004ac	51		 push	 ecx
  004ad	f3 0f 11 44 24
	04		 movss	 DWORD PTR [esp+4], xmm0
  004b3	83 c7 05	 add	 edi, 5
  004b6	0f 57 c0	 xorps	 xmm0, xmm0
  004b9	f3 0f 2a c7	 cvtsi2ss xmm0, edi
  004bd	f3 0f 11 04 24	 movss	 DWORD PTR [esp], xmm0
  004c2	ff 10		 call	 DWORD PTR [eax]
$LN9@OnRender:

; 140  : 			}
; 141  : 
; 142  : 			if( !m_szMonsterMent.IsEmpty() )

  004c4	8d 8e f4 01 00
	00		 lea	 ecx, DWORD PTR [esi+500]
  004ca	ff 15 00 00 00
	00		 call	 DWORD PTR __imp_?IsEmpty@ioHashString@@QBE_NXZ
  004d0	84 c0		 test	 al, al
  004d2	0f 85 a5 00 00
	00		 jne	 $LN8@OnRender

; 143  : 			{
; 144  : 				g_FontMgr.SetBkColor( 0, 0, 0 );

  004d8	8b 3d 00 00 00
	00		 mov	 edi, DWORD PTR __imp_?GetSingleton@ioFontManager@@SAAAV1@XZ
  004de	53		 push	 ebx
  004df	53		 push	 ebx
  004e0	53		 push	 ebx
  004e1	ff d7		 call	 edi
  004e3	8b c8		 mov	 ecx, eax
  004e5	ff 15 00 00 00
	00		 call	 DWORD PTR __imp_?SetBkColor@ioFontManager@@QAEXHHH@Z

; 145  : 				g_FontMgr.SetTextStyle( TS_OUTLINE_FULL_2X );

  004eb	6a 05		 push	 5
  004ed	ff d7		 call	 edi
  004ef	8b c8		 mov	 ecx, eax
  004f1	ff 15 00 00 00
	00		 call	 DWORD PTR __imp_?SetTextStyle@ioFontManager@@QAEXW4TextStyle@@@Z

; 146  : 				g_FontMgr.SetAlignType( TAT_LEFT );

  004f7	53		 push	 ebx
  004f8	ff d7		 call	 edi
  004fa	8b c8		 mov	 ecx, eax
  004fc	ff 15 00 00 00
	00		 call	 DWORD PTR __imp_?SetAlignType@ioFontManager@@QAEXW4TextAlignType@@@Z

; 147  : 				g_FontMgr.SetTextColor( 255, 126, 0 );

  00502	53		 push	 ebx
  00503	6a 7e		 push	 126			; 0000007eH
  00505	68 ff 00 00 00	 push	 255			; 000000ffH
  0050a	ff d7		 call	 edi
  0050c	8b c8		 mov	 ecx, eax
  0050e	ff 15 00 00 00
	00		 call	 DWORD PTR __imp_?SetTextColor@ioFontManager@@QAEXHHH@Z

; 148  : 				g_FontMgr.PrintText( iXPos + 82, iYPos + 2, FONT_SIZE_13, STR(1), m_szMonsterMent.c_str() );

  00514	8d 8e f4 01 00
	00		 lea	 ecx, DWORD PTR [esi+500]
  0051a	ff 15 00 00 00
	00		 call	 DWORD PTR __imp_?c_str@ioHashString@@QBEPBDXZ
  00520	50		 push	 eax
  00521	53		 push	 ebx
  00522	6a 01		 push	 1
$LN49@OnRender:
  00524	68 00 00 00 00	 push	 OFFSET ??_C@_00CNPNBAHC@?$AA@
  00529	68 00 00 00 00	 push	 OFFSET ??_C@_0BO@BKJHALLC@BossMonsterGaugeWnd?3?3OnRender?$AA@
  0052e	ff 15 00 00 00
	00		 call	 DWORD PTR __imp_?GetSingleton@ioStringManager@@SAAAV1@XZ
  00534	8b c8		 mov	 ecx, eax
  00536	ff 15 00 00 00
	00		 call	 DWORD PTR __imp_?GetString@ioStringManager@@QAEPADPBD0HW4FileNamePrefix@1@@Z
  0053c	f3 0f 10 05 00
	00 00 00	 movss	 xmm0, DWORD PTR __real@3f266666
  00544	50		 push	 eax
  00545	8b 45 f4	 mov	 eax, DWORD PTR _iYPos$[ebp]
  00548	83 ec 0c	 sub	 esp, 12			; 0000000cH
  0054b	f3 0f 11 44 24
	08		 movss	 DWORD PTR [esp+8], xmm0
  00551	83 c0 02	 add	 eax, 2
  00554	0f 57 c0	 xorps	 xmm0, xmm0
  00557	f3 0f 2a c0	 cvtsi2ss xmm0, eax
  0055b	8b 45 f0	 mov	 eax, DWORD PTR _iXPos$[ebp]
  0055e	f3 0f 11 44 24
	04		 movss	 DWORD PTR [esp+4], xmm0
  00564	83 c0 52	 add	 eax, 82			; 00000052H
  00567	0f 57 c0	 xorps	 xmm0, xmm0
  0056a	f3 0f 2a c0	 cvtsi2ss xmm0, eax
  0056e	f3 0f 11 04 24	 movss	 DWORD PTR [esp], xmm0
  00573	ff d7		 call	 edi
  00575	8b c8		 mov	 ecx, eax
  00577	ff 15 00 00 00
	00		 call	 DWORD PTR __imp_?PrintText@ioFontManager@@QAEXMMMPBD0@Z
$LN8@OnRender:

; 189  : 	}
; 190  : 
; 191  : 	if( m_pMonsterIcon )

  0057d	39 9e a4 01 00
	00		 cmp	 DWORD PTR [esi+420], ebx
  00583	0f 84 ba 00 00
	00		 je	 $LN42@OnRender

; 192  : 	{
; 193  : 		m_pMonsterIcon->SetScale( FLOAT09, FLOAT09 );

  00589	b8 09 00 00 00	 mov	 eax, 9
  0058e	8b d0		 mov	 edx, eax
  00590	b8 0a 00 00 00	 mov	 eax, 10			; 0000000aH
  00595	8b f8		 mov	 edi, eax
  00597	b8 09 00 00 00	 mov	 eax, 9
  0059c	89 45 ec	 mov	 DWORD PTR $T506549[ebp], eax
  0059f	b8 0a 00 00 00	 mov	 eax, 10			; 0000000aH
  005a4	8b 8e a4 01 00
	00		 mov	 ecx, DWORD PTR [esi+420]
  005aa	89 55 e8	 mov	 DWORD PTR tv436[ebp], edx
  005ad	db 45 e8	 fild	 DWORD PTR tv436[ebp]
  005b0	89 45 f8	 mov	 DWORD PTR $T506553[ebp], eax
  005b3	8b 01		 mov	 eax, DWORD PTR [ecx]
  005b5	85 d2		 test	 edx, edx
  005b7	79 06		 jns	 SHORT $LN45@OnRender
  005b9	d8 05 00 00 00
	00		 fadd	 DWORD PTR __real@4f800000
$LN45@OnRender:
  005bf	89 7d e8	 mov	 DWORD PTR tv430[ebp], edi
  005c2	db 45 e8	 fild	 DWORD PTR tv430[ebp]
  005c5	85 ff		 test	 edi, edi
  005c7	79 06		 jns	 SHORT $LN46@OnRender
  005c9	d8 05 00 00 00
	00		 fadd	 DWORD PTR __real@4f800000
$LN46@OnRender:
  005cf	de f9		 fdivp	 ST(1), ST(0)
  005d1	8b 55 ec	 mov	 edx, DWORD PTR $T506549[ebp]
  005d4	51		 push	 ecx
  005d5	51		 push	 ecx
  005d6	d9 5d e8	 fstp	 DWORD PTR tv421[ebp]
  005d9	d9 45 e8	 fld	 DWORD PTR tv421[ebp]
  005dc	d9 5c 24 04	 fstp	 DWORD PTR [esp+4]
  005e0	db 45 ec	 fild	 DWORD PTR $T506549[ebp]
  005e3	85 d2		 test	 edx, edx
  005e5	79 06		 jns	 SHORT $LN47@OnRender
  005e7	d8 05 00 00 00
	00		 fadd	 DWORD PTR __real@4f800000
$LN47@OnRender:
  005ed	8b 55 f8	 mov	 edx, DWORD PTR $T506553[ebp]
  005f0	db 45 f8	 fild	 DWORD PTR $T506553[ebp]
  005f3	85 d2		 test	 edx, edx
  005f5	79 06		 jns	 SHORT $LN48@OnRender
  005f7	d8 05 00 00 00
	00		 fadd	 DWORD PTR __real@4f800000
$LN48@OnRender:
  005fd	de f9		 fdivp	 ST(1), ST(0)
  005ff	d9 5d e8	 fstp	 DWORD PTR tv402[ebp]
  00602	d9 45 e8	 fld	 DWORD PTR tv402[ebp]
  00605	d9 1c 24	 fstp	 DWORD PTR [esp]
  00608	ff 50 18	 call	 DWORD PTR [eax+24]

; 194  : 		m_pMonsterIcon->Render( iXPos + 51, iYPos + 27, UI_RENDER_NORMAL, TFO_BILINEAR );

  0060b	8b 4d f4	 mov	 ecx, DWORD PTR _iYPos$[ebp]
  0060e	8b b6 a4 01 00
	00		 mov	 esi, DWORD PTR [esi+420]
  00614	8b 06		 mov	 eax, DWORD PTR [esi]
  00616	53		 push	 ebx
  00617	53		 push	 ebx
  00618	83 c1 1b	 add	 ecx, 27			; 0000001bH
  0061b	6a 01		 push	 1
  0061d	53		 push	 ebx
  0061e	51		 push	 ecx
  0061f	51		 push	 ecx
  00620	0f 57 c0	 xorps	 xmm0, xmm0
  00623	f3 0f 2a c1	 cvtsi2ss xmm0, ecx
  00627	8b 4d f0	 mov	 ecx, DWORD PTR _iXPos$[ebp]
  0062a	f3 0f 11 44 24
	04		 movss	 DWORD PTR [esp+4], xmm0
  00630	83 c1 33	 add	 ecx, 51			; 00000033H
  00633	0f 57 c0	 xorps	 xmm0, xmm0
  00636	f3 0f 2a c1	 cvtsi2ss xmm0, ecx
  0063a	8b ce		 mov	 ecx, esi
  0063c	f3 0f 11 04 24	 movss	 DWORD PTR [esp], xmm0
  00641	ff 10		 call	 DWORD PTR [eax]
$LN42@OnRender:
  00643	5b		 pop	 ebx
  00644	5f		 pop	 edi
$LN17@OnRender:
  00645	5e		 pop	 esi

; 195  : 	}
; 196  : }

  00646	c9		 leave
  00647	c3		 ret	 0
?OnRender@BossMonsterGaugeWnd@@MAEXXZ ENDP		; BossMonsterGaugeWnd::OnRender
_TEXT	ENDS
PUBLIC	__real@4026000000000000
PUBLIC	?UpdateShowAni@BossMonsterGaugeWnd@@IAE_NXZ	; BossMonsterGaugeWnd::UpdateShowAni
EXTRN	?UpdateTime@FSMStateMgr@@QAEXXZ:PROC		; FSMStateMgr::UpdateTime
EXTRN	__ftol2_sse:PROC
;	COMDAT __real@4026000000000000
; File d:\lost saga for developer\youtube\tutorial\source\src\lsclient\gui\fsmstatemgr.h
CONST	SEGMENT
__real@4026000000000000 DQ 04026000000000000r	; 11
; Function compile flags: /Ogsp
; File d:\lost saga for developer\youtube\tutorial\source\src\lsclient\gui\bossmonstergaugewnd.cpp
CONST	ENDS
;	COMDAT ?UpdateShowAni@BossMonsterGaugeWnd@@IAE_NXZ
_TEXT	SEGMENT
tv304 = -16						; size = 8
tv302 = -16						; size = 8
tv295 = -16						; size = 8
tv529 = -8						; size = 4
tv525 = -8						; size = 4
tv521 = -8						; size = 4
tv517 = -8						; size = 4
tv514 = -8						; size = 4
tv510 = -8						; size = 4
tv506 = -8						; size = 4
tv502 = -8						; size = 4
tv495 = -8						; size = 4
tv430 = -8						; size = 4
tv426 = -8						; size = 4
tv421 = -8						; size = 4
tv417 = -8						; size = 4
tv382 = -8						; size = 4
tv378 = -8						; size = 4
tv373 = -8						; size = 4
tv368 = -8						; size = 4
tv362 = -8						; size = 4
_iStartYPos$505428 = -8					; size = 4
tv580 = -4						; size = 4
tv575 = -4						; size = 4
tv571 = -4						; size = 4
tv567 = -4						; size = 4
tv564 = -4						; size = 4
tv560 = -4						; size = 4
tv556 = -4						; size = 4
tv552 = -4						; size = 4
tv546 = -4						; size = 4
?UpdateShowAni@BossMonsterGaugeWnd@@IAE_NXZ PROC	; BossMonsterGaugeWnd::UpdateShowAni, COMDAT
; _this$ = ecx

; 347  : {

  00000	55		 push	 ebp
  00001	8b ec		 mov	 ebp, esp
  00003	83 ec 10	 sub	 esp, 16			; 00000010H
  00006	53		 push	 ebx
  00007	56		 push	 esi
  00008	57		 push	 edi
  00009	8b f1		 mov	 esi, ecx

; 348  : 	if( !g_GUIMgr.IsSkipUIByBlind() && m_ShowAniState.GetCurState() == SAT_NONE )

  0000b	e8 00 00 00 00	 call	 ?GetSingleton@ioSP2GUIManager@@SAAAV1@XZ ; ioSP2GUIManager::GetSingleton
  00010	33 db		 xor	 ebx, ebx
  00012	38 98 e0 04 00
	00		 cmp	 BYTE PTR [eax+1248], bl
  00018	75 15		 jne	 SHORT $LN81@UpdateShow
  0001a	39 9e ac 01 00
	00		 cmp	 DWORD PTR [esi+428], ebx
  00020	75 0d		 jne	 SHORT $LN81@UpdateShow

; 349  : 		m_ShowAniState.ChangeState( SAT_END );

  00022	6a 07		 push	 7
  00024	8d 8e a8 01 00
	00		 lea	 ecx, DWORD PTR [esi+424]
  0002a	e8 00 00 00 00	 call	 ?ChangeState@FSMStateMgr@@QAEHH@Z ; FSMStateMgr::ChangeState
$LN81@UpdateShow:

; 350  : 
; 351  : 	if( !g_GUIMgr.IsSkipUIByBlind() && m_ShowAniState.GetCurState() == SAT_START_ROUND )

  0002f	e8 00 00 00 00	 call	 ?GetSingleton@ioSP2GUIManager@@SAAAV1@XZ ; ioSP2GUIManager::GetSingleton
  00034	38 98 e0 04 00
	00		 cmp	 BYTE PTR [eax+1248], bl
  0003a	75 16		 jne	 SHORT $LN9@UpdateShow
  0003c	83 be ac 01 00
	00 01		 cmp	 DWORD PTR [esi+428], 1
  00043	75 0d		 jne	 SHORT $LN9@UpdateShow

; 352  : 		m_ShowAniState.ChangeState( SAT_DELAY );

  00045	6a 02		 push	 2
  00047	8d 8e a8 01 00
	00		 lea	 ecx, DWORD PTR [esi+424]
  0004d	e8 00 00 00 00	 call	 ?ChangeState@FSMStateMgr@@QAEHH@Z ; FSMStateMgr::ChangeState
$LN9@UpdateShow:

; 353  : 
; 354  : 	if( g_GUIMgr.IsSkipUIByBlind() && m_ShowAniState.GetCurState() == SAT_END )

  00052	e8 00 00 00 00	 call	 ?GetSingleton@ioSP2GUIManager@@SAAAV1@XZ ; ioSP2GUIManager::GetSingleton
  00057	38 98 e0 04 00
	00		 cmp	 BYTE PTR [eax+1248], bl
  0005d	74 15		 je	 SHORT $LN8@UpdateShow
  0005f	83 be ac 01 00
	00 07		 cmp	 DWORD PTR [esi+428], 7
  00066	75 0c		 jne	 SHORT $LN8@UpdateShow

; 355  : 		m_ShowAniState.ChangeState( SAT_NONE );

  00068	53		 push	 ebx
  00069	8d 8e a8 01 00
	00		 lea	 ecx, DWORD PTR [esi+424]
  0006f	e8 00 00 00 00	 call	 ?ChangeState@FSMStateMgr@@QAEHH@Z ; FSMStateMgr::ChangeState
$LN8@UpdateShow:

; 356  : 
; 357  : 	m_ShowAniState.UpdateTime();

  00074	8d 8e a8 01 00
	00		 lea	 ecx, DWORD PTR [esi+424]
  0007a	e8 00 00 00 00	 call	 ?UpdateTime@FSMStateMgr@@QAEXXZ ; FSMStateMgr::UpdateTime

; 358  : 
; 359  : 	if( m_ShowAniState.GetCurState() == SAT_UP )

  0007f	8b 86 ac 01 00
	00		 mov	 eax, DWORD PTR [esi+428]
  00085	83 f8 03	 cmp	 eax, 3
  00088	0f 85 d3 00 00
	00		 jne	 $LN7@UpdateShow

; 360  : 	{
; 361  : 		enum { MINUS_Y_POS = 140 };
; 362  : 		int iStartYPos = MINUS_Y_POS + m_iDefaultY;

  0008e	8b 86 dc 01 00
	00		 mov	 eax, DWORD PTR [esi+476]
  00094	05 8c 00 00 00	 add	 eax, 140		; 0000008cH
  00099	89 45 f8	 mov	 DWORD PTR _iStartYPos$505428[ebp], eax

; 363  : 		// /2->FLOAT05 
; 364  : 		int iCurYpos = m_iDefaultY - ( cos( (FLOAT_PI * FLOAT05 * m_ShowAniState.GetCurTime()  ) / m_ShowAniState.GetDelay() ) * iStartYPos );

  0009c	b8 4e e6 40 bb	 mov	 eax, -1153374642	; bb40e64eH
  000a1	8b d0		 mov	 edx, eax
  000a3	b8 00 ca 9a 3b	 mov	 eax, 1000000000		; 3b9aca00H
  000a8	8b f8		 mov	 edi, eax
  000aa	b8 05 00 00 00	 mov	 eax, 5
  000af	8b d8		 mov	 ebx, eax
  000b1	b8 0a 00 00 00	 mov	 eax, 10			; 0000000aH

; 365  : 		SetWndPos( m_iDefaultX, iCurYpos );

  000b6	db 86 dc 01 00
	00		 fild	 DWORD PTR [esi+476]
  000bc	89 5d fc	 mov	 DWORD PTR tv580[ebp], ebx
  000bf	db 45 fc	 fild	 DWORD PTR tv580[ebp]
  000c2	85 db		 test	 ebx, ebx
  000c4	79 06		 jns	 SHORT $LN82@UpdateShow
  000c6	d8 05 00 00 00
	00		 fadd	 DWORD PTR __real@4f800000
$LN82@UpdateShow:
  000cc	89 45 fc	 mov	 DWORD PTR tv575[ebp], eax
  000cf	db 45 fc	 fild	 DWORD PTR tv575[ebp]
  000d2	85 c0		 test	 eax, eax
  000d4	79 06		 jns	 SHORT $LN83@UpdateShow
  000d6	d8 05 00 00 00
	00		 fadd	 DWORD PTR __real@4f800000
$LN83@UpdateShow:

; 363  : 		// /2->FLOAT05 
; 364  : 		int iCurYpos = m_iDefaultY - ( cos( (FLOAT_PI * FLOAT05 * m_ShowAniState.GetCurTime()  ) / m_ShowAniState.GetDelay() ) * iStartYPos );

  000dc	de f9		 fdivp	 ST(1), ST(0)

; 365  : 		SetWndPos( m_iDefaultX, iCurYpos );

  000de	d9 5d fc	 fstp	 DWORD PTR tv571[ebp]
  000e1	d9 45 fc	 fld	 DWORD PTR tv571[ebp]
  000e4	89 55 fc	 mov	 DWORD PTR tv567[ebp], edx
  000e7	db 45 fc	 fild	 DWORD PTR tv567[ebp]
  000ea	85 d2		 test	 edx, edx
  000ec	79 06		 jns	 SHORT $LN84@UpdateShow
  000ee	d8 05 00 00 00
	00		 fadd	 DWORD PTR __real@4f800000
$LN84@UpdateShow:
  000f4	89 7d fc	 mov	 DWORD PTR tv564[ebp], edi
  000f7	db 45 fc	 fild	 DWORD PTR tv564[ebp]
  000fa	85 ff		 test	 edi, edi
  000fc	79 06		 jns	 SHORT $LN85@UpdateShow
  000fe	d8 05 00 00 00
	00		 fadd	 DWORD PTR __real@4f800000
$LN85@UpdateShow:

; 363  : 		// /2->FLOAT05 
; 364  : 		int iCurYpos = m_iDefaultY - ( cos( (FLOAT_PI * FLOAT05 * m_ShowAniState.GetCurTime()  ) / m_ShowAniState.GetDelay() ) * iStartYPos );

  00104	de f9		 fdivp	 ST(1), ST(0)

; 365  : 		SetWndPos( m_iDefaultX, iCurYpos );

  00106	8b 86 b4 01 00
	00		 mov	 eax, DWORD PTR [esi+436]
  0010c	d9 5d fc	 fstp	 DWORD PTR tv560[ebp]
  0010f	d8 4d fc	 fmul	 DWORD PTR tv560[ebp]
  00112	db 86 b4 01 00
	00		 fild	 DWORD PTR [esi+436]
  00118	85 c0		 test	 eax, eax
  0011a	79 06		 jns	 SHORT $LN86@UpdateShow
  0011c	d8 05 00 00 00
	00		 fadd	 DWORD PTR __real@4f800000
$LN86@UpdateShow:

; 363  : 		// /2->FLOAT05 
; 364  : 		int iCurYpos = m_iDefaultY - ( cos( (FLOAT_PI * FLOAT05 * m_ShowAniState.GetCurTime()  ) / m_ShowAniState.GetDelay() ) * iStartYPos );

  00122	de c9		 fmulp	 ST(1), ST(0)

; 365  : 		SetWndPos( m_iDefaultX, iCurYpos );

  00124	da b6 b8 01 00
	00		 fidiv	 DWORD PTR [esi+440]
  0012a	d9 5d fc	 fstp	 DWORD PTR tv552[ebp]
  0012d	d9 45 fc	 fld	 DWORD PTR tv552[ebp]
  00130	d9 c9		 fxch	 ST(1)
  00132	dd 5d f0	 fstp	 QWORD PTR tv304[ebp]
  00135	e8 00 00 00 00	 call	 __CIcos
  0013a	d9 5d fc	 fstp	 DWORD PTR tv546[ebp]
  0013d	d9 45 fc	 fld	 DWORD PTR tv546[ebp]
  00140	da 4d f8	 fimul	 DWORD PTR _iStartYPos$505428[ebp]
  00143	dc 6d f0	 fsubr	 QWORD PTR tv304[ebp]
$LN97@UpdateShow:
  00146	e8 00 00 00 00	 call	 __ftol2_sse
  0014b	50		 push	 eax
  0014c	ff b6 d8 01 00
	00		 push	 DWORD PTR [esi+472]
  00152	8b ce		 mov	 ecx, esi
  00154	ff 15 00 00 00
	00		 call	 DWORD PTR __imp_?SetWndPos@ioWnd@@QAEXHH@Z
$LN98@UpdateShow:

; 366  : 		return true;

  0015a	b0 01		 mov	 al, 1
  0015c	e9 a3 01 00 00	 jmp	 $LN11@UpdateShow
$LN7@UpdateShow:

; 367  : 	}
; 368  : 	else if( m_ShowAniState.GetCurState() == SAT_DOWN )

  00161	83 f8 04	 cmp	 eax, 4
  00164	0f 85 b2 00 00
	00		 jne	 $LN5@UpdateShow

; 369  : 	{
; 370  : 		enum { MAX_OFFSET_YPOS = 11 };
; 371  : 		// /2->FLOAT05 
; 372  : 		int iCurYpos = m_iDefaultY - ( sin( (FLOAT_PI * FLOAT05 * m_ShowAniState.GetCurTime()  ) / m_ShowAniState.GetDelay() ) * MAX_OFFSET_YPOS );	

  0016a	b8 4e e6 40 bb	 mov	 eax, -1153374642	; bb40e64eH
  0016f	8b c8		 mov	 ecx, eax
  00171	b8 00 ca 9a 3b	 mov	 eax, 1000000000		; 3b9aca00H
  00176	8b d0		 mov	 edx, eax
  00178	b8 05 00 00 00	 mov	 eax, 5
  0017d	8b f8		 mov	 edi, eax
  0017f	b8 0a 00 00 00	 mov	 eax, 10			; 0000000aH

; 373  : 		SetWndPos( m_iDefaultX, iCurYpos );

  00184	db 86 dc 01 00
	00		 fild	 DWORD PTR [esi+476]
  0018a	89 7d f8	 mov	 DWORD PTR tv529[ebp], edi
  0018d	db 45 f8	 fild	 DWORD PTR tv529[ebp]
  00190	85 ff		 test	 edi, edi
  00192	79 06		 jns	 SHORT $LN87@UpdateShow
  00194	d8 05 00 00 00
	00		 fadd	 DWORD PTR __real@4f800000
$LN87@UpdateShow:
  0019a	89 45 f8	 mov	 DWORD PTR tv525[ebp], eax
  0019d	db 45 f8	 fild	 DWORD PTR tv525[ebp]
  001a0	85 c0		 test	 eax, eax
  001a2	79 06		 jns	 SHORT $LN88@UpdateShow
  001a4	d8 05 00 00 00
	00		 fadd	 DWORD PTR __real@4f800000
$LN88@UpdateShow:

; 369  : 	{
; 370  : 		enum { MAX_OFFSET_YPOS = 11 };
; 371  : 		// /2->FLOAT05 
; 372  : 		int iCurYpos = m_iDefaultY - ( sin( (FLOAT_PI * FLOAT05 * m_ShowAniState.GetCurTime()  ) / m_ShowAniState.GetDelay() ) * MAX_OFFSET_YPOS );	

  001aa	de f9		 fdivp	 ST(1), ST(0)

; 373  : 		SetWndPos( m_iDefaultX, iCurYpos );

  001ac	d9 5d f8	 fstp	 DWORD PTR tv521[ebp]
  001af	d9 45 f8	 fld	 DWORD PTR tv521[ebp]
  001b2	89 4d f8	 mov	 DWORD PTR tv517[ebp], ecx
  001b5	db 45 f8	 fild	 DWORD PTR tv517[ebp]
  001b8	85 c9		 test	 ecx, ecx
  001ba	79 06		 jns	 SHORT $LN89@UpdateShow
  001bc	d8 05 00 00 00
	00		 fadd	 DWORD PTR __real@4f800000
$LN89@UpdateShow:
  001c2	89 55 f8	 mov	 DWORD PTR tv514[ebp], edx
  001c5	db 45 f8	 fild	 DWORD PTR tv514[ebp]
  001c8	85 d2		 test	 edx, edx
  001ca	79 06		 jns	 SHORT $LN90@UpdateShow
  001cc	d8 05 00 00 00
	00		 fadd	 DWORD PTR __real@4f800000
$LN90@UpdateShow:

; 369  : 	{
; 370  : 		enum { MAX_OFFSET_YPOS = 11 };
; 371  : 		// /2->FLOAT05 
; 372  : 		int iCurYpos = m_iDefaultY - ( sin( (FLOAT_PI * FLOAT05 * m_ShowAniState.GetCurTime()  ) / m_ShowAniState.GetDelay() ) * MAX_OFFSET_YPOS );	

  001d2	de f9		 fdivp	 ST(1), ST(0)

; 373  : 		SetWndPos( m_iDefaultX, iCurYpos );

  001d4	8b 86 b4 01 00
	00		 mov	 eax, DWORD PTR [esi+436]
  001da	d9 5d f8	 fstp	 DWORD PTR tv510[ebp]
  001dd	d8 4d f8	 fmul	 DWORD PTR tv510[ebp]
  001e0	db 86 b4 01 00
	00		 fild	 DWORD PTR [esi+436]
  001e6	85 c0		 test	 eax, eax
  001e8	79 06		 jns	 SHORT $LN91@UpdateShow
  001ea	d8 05 00 00 00
	00		 fadd	 DWORD PTR __real@4f800000
$LN91@UpdateShow:

; 369  : 	{
; 370  : 		enum { MAX_OFFSET_YPOS = 11 };
; 371  : 		// /2->FLOAT05 
; 372  : 		int iCurYpos = m_iDefaultY - ( sin( (FLOAT_PI * FLOAT05 * m_ShowAniState.GetCurTime()  ) / m_ShowAniState.GetDelay() ) * MAX_OFFSET_YPOS );	

  001f0	de c9		 fmulp	 ST(1), ST(0)

; 373  : 		SetWndPos( m_iDefaultX, iCurYpos );

  001f2	da b6 b8 01 00
	00		 fidiv	 DWORD PTR [esi+440]
  001f8	d9 5d f8	 fstp	 DWORD PTR tv502[ebp]
  001fb	d9 45 f8	 fld	 DWORD PTR tv502[ebp]
  001fe	d9 c9		 fxch	 ST(1)
  00200	dd 5d f0	 fstp	 QWORD PTR tv302[ebp]
  00203	e8 00 00 00 00	 call	 __CIsin
  00208	d9 5d f8	 fstp	 DWORD PTR tv495[ebp]
  0020b	d9 45 f8	 fld	 DWORD PTR tv495[ebp]
  0020e	dc 0d 00 00 00
	00		 fmul	 QWORD PTR __real@4026000000000000
  00214	dc 6d f0	 fsubr	 QWORD PTR tv302[ebp]

; 374  : 		return true;

  00217	e9 2a ff ff ff	 jmp	 $LN97@UpdateShow
$LN5@UpdateShow:

; 375  : 	}
; 376  : 	else if( m_ShowAniState.GetCurState() == SAT_UP_STOP )

  0021c	83 f8 05	 cmp	 eax, 5
  0021f	0f 85 b2 00 00
	00		 jne	 $LN3@UpdateShow

; 377  : 	{
; 378  : 		enum { MAX_OFFSET_YPOS = 11 };
; 379  : 		// /2->FLOAT05 
; 380  : 		int iCurYpos = m_iDefaultY - ( cos( (FLOAT_PI * FLOAT05 * m_ShowAniState.GetCurTime()  ) / m_ShowAniState.GetDelay() ) * MAX_OFFSET_YPOS );	

  00225	b8 4e e6 40 bb	 mov	 eax, -1153374642	; bb40e64eH
  0022a	8b c8		 mov	 ecx, eax
  0022c	b8 00 ca 9a 3b	 mov	 eax, 1000000000		; 3b9aca00H
  00231	8b d0		 mov	 edx, eax
  00233	b8 05 00 00 00	 mov	 eax, 5
  00238	8b f8		 mov	 edi, eax
  0023a	b8 0a 00 00 00	 mov	 eax, 10			; 0000000aH

; 381  : 		SetWndPos( m_iDefaultX, iCurYpos );

  0023f	db 86 dc 01 00
	00		 fild	 DWORD PTR [esi+476]
  00245	89 7d f8	 mov	 DWORD PTR tv430[ebp], edi
  00248	db 45 f8	 fild	 DWORD PTR tv430[ebp]
  0024b	85 ff		 test	 edi, edi
  0024d	79 06		 jns	 SHORT $LN92@UpdateShow
  0024f	d8 05 00 00 00
	00		 fadd	 DWORD PTR __real@4f800000
$LN92@UpdateShow:
  00255	89 45 f8	 mov	 DWORD PTR tv426[ebp], eax
  00258	db 45 f8	 fild	 DWORD PTR tv426[ebp]
  0025b	85 c0		 test	 eax, eax
  0025d	79 06		 jns	 SHORT $LN93@UpdateShow
  0025f	d8 05 00 00 00
	00		 fadd	 DWORD PTR __real@4f800000
$LN93@UpdateShow:

; 377  : 	{
; 378  : 		enum { MAX_OFFSET_YPOS = 11 };
; 379  : 		// /2->FLOAT05 
; 380  : 		int iCurYpos = m_iDefaultY - ( cos( (FLOAT_PI * FLOAT05 * m_ShowAniState.GetCurTime()  ) / m_ShowAniState.GetDelay() ) * MAX_OFFSET_YPOS );	

  00265	de f9		 fdivp	 ST(1), ST(0)

; 381  : 		SetWndPos( m_iDefaultX, iCurYpos );

  00267	d9 5d f8	 fstp	 DWORD PTR tv421[ebp]
  0026a	d9 45 f8	 fld	 DWORD PTR tv421[ebp]
  0026d	89 4d f8	 mov	 DWORD PTR tv417[ebp], ecx
  00270	db 45 f8	 fild	 DWORD PTR tv417[ebp]
  00273	85 c9		 test	 ecx, ecx
  00275	79 06		 jns	 SHORT $LN94@UpdateShow
  00277	d8 05 00 00 00
	00		 fadd	 DWORD PTR __real@4f800000
$LN94@UpdateShow:
  0027d	89 55 f8	 mov	 DWORD PTR tv382[ebp], edx
  00280	db 45 f8	 fild	 DWORD PTR tv382[ebp]
  00283	85 d2		 test	 edx, edx
  00285	79 06		 jns	 SHORT $LN95@UpdateShow
  00287	d8 05 00 00 00
	00		 fadd	 DWORD PTR __real@4f800000
$LN95@UpdateShow:

; 377  : 	{
; 378  : 		enum { MAX_OFFSET_YPOS = 11 };
; 379  : 		// /2->FLOAT05 
; 380  : 		int iCurYpos = m_iDefaultY - ( cos( (FLOAT_PI * FLOAT05 * m_ShowAniState.GetCurTime()  ) / m_ShowAniState.GetDelay() ) * MAX_OFFSET_YPOS );	

  0028d	de f9		 fdivp	 ST(1), ST(0)

; 381  : 		SetWndPos( m_iDefaultX, iCurYpos );

  0028f	8b 86 b4 01 00
	00		 mov	 eax, DWORD PTR [esi+436]
  00295	d9 5d f8	 fstp	 DWORD PTR tv378[ebp]
  00298	d8 4d f8	 fmul	 DWORD PTR tv378[ebp]
  0029b	db 86 b4 01 00
	00		 fild	 DWORD PTR [esi+436]
  002a1	85 c0		 test	 eax, eax
  002a3	79 06		 jns	 SHORT $LN96@UpdateShow
  002a5	d8 05 00 00 00
	00		 fadd	 DWORD PTR __real@4f800000
$LN96@UpdateShow:

; 377  : 	{
; 378  : 		enum { MAX_OFFSET_YPOS = 11 };
; 379  : 		// /2->FLOAT05 
; 380  : 		int iCurYpos = m_iDefaultY - ( cos( (FLOAT_PI * FLOAT05 * m_ShowAniState.GetCurTime()  ) / m_ShowAniState.GetDelay() ) * MAX_OFFSET_YPOS );	

  002ab	de c9		 fmulp	 ST(1), ST(0)

; 381  : 		SetWndPos( m_iDefaultX, iCurYpos );

  002ad	da b6 b8 01 00
	00		 fidiv	 DWORD PTR [esi+440]
  002b3	d9 5d f8	 fstp	 DWORD PTR tv368[ebp]
  002b6	d9 45 f8	 fld	 DWORD PTR tv368[ebp]
  002b9	d9 c9		 fxch	 ST(1)
  002bb	dd 5d f0	 fstp	 QWORD PTR tv295[ebp]
  002be	e8 00 00 00 00	 call	 __CIcos
  002c3	d9 5d f8	 fstp	 DWORD PTR tv362[ebp]
  002c6	d9 45 f8	 fld	 DWORD PTR tv362[ebp]
  002c9	dc 0d 00 00 00
	00		 fmul	 QWORD PTR __real@4026000000000000
  002cf	dc 6d f0	 fsubr	 QWORD PTR tv295[ebp]

; 382  : 		return true;

  002d2	e9 6f fe ff ff	 jmp	 $LN97@UpdateShow
$LN3@UpdateShow:

; 383  : 	}
; 384  : 	else if( m_ShowAniState.GetCurState() == SAT_STOP )

  002d7	83 f8 06	 cmp	 eax, 6
  002da	75 26		 jne	 SHORT $LN1@UpdateShow

; 385  : 	{
; 386  : 		SetWndPos( m_iDefaultX, m_iDefaultY );

  002dc	ff b6 dc 01 00
	00		 push	 DWORD PTR [esi+476]
  002e2	8b ce		 mov	 ecx, esi
  002e4	ff b6 d8 01 00
	00		 push	 DWORD PTR [esi+472]
  002ea	ff 15 00 00 00
	00		 call	 DWORD PTR __imp_?SetWndPos@ioWnd@@QAEXHH@Z

; 387  : 		m_ShowAniState.ChangeState( SAT_END );

  002f0	6a 07		 push	 7
  002f2	8d 8e a8 01 00
	00		 lea	 ecx, DWORD PTR [esi+424]
  002f8	e8 00 00 00 00	 call	 ?ChangeState@FSMStateMgr@@QAEHH@Z ; FSMStateMgr::ChangeState

; 388  : 		return true;

  002fd	e9 58 fe ff ff	 jmp	 $LN98@UpdateShow
$LN1@UpdateShow:

; 389  : 	}
; 390  : 
; 391  : 	return false;

  00302	32 c0		 xor	 al, al
$LN11@UpdateShow:
  00304	5f		 pop	 edi
  00305	5e		 pop	 esi
  00306	5b		 pop	 ebx

; 392  : }

  00307	c9		 leave
  00308	c3		 ret	 0
?UpdateShowAni@BossMonsterGaugeWnd@@IAE_NXZ ENDP	; BossMonsterGaugeWnd::UpdateShowAni
_TEXT	ENDS
PUBLIC	?GetCurShowAniState@BossMonsterGaugeWnd@@QAEHXZ	; BossMonsterGaugeWnd::GetCurShowAniState
; Function compile flags: /Ogsp
;	COMDAT ?GetCurShowAniState@BossMonsterGaugeWnd@@QAEHXZ
_TEXT	SEGMENT
?GetCurShowAniState@BossMonsterGaugeWnd@@QAEHXZ PROC	; BossMonsterGaugeWnd::GetCurShowAniState, COMDAT
; _this$ = ecx

; 396  : 	return m_ShowAniState.GetCurState();

  00000	8b 81 ac 01 00
	00		 mov	 eax, DWORD PTR [ecx+428]

; 397  : }

  00006	c3		 ret	 0
?GetCurShowAniState@BossMonsterGaugeWnd@@QAEHXZ ENDP	; BossMonsterGaugeWnd::GetCurShowAniState
_TEXT	ENDS
PUBLIC	__$ArrayPad$
PUBLIC	??$?8$0P@@@YA_NABVioHashString@@AAY0P@$$CBD@Z	; operator==<15>
EXTRN	___security_cookie:DWORD
; Function compile flags: /Ogsp
; File d:\lost saga for developer\youtube\tutorial\source\src\io3dengine\iohashstring.h
;	COMDAT ??$?8$0P@@@YA_NABVioHashString@@AAY0P@$$CBD@Z
_TEXT	SEGMENT
__t$ = -24						; size = 15
__$ArrayPad$ = -4					; size = 4
_lhs$ = 8						; size = 4
_t$ = 12						; size = 4
??$?8$0P@@@YA_NABVioHashString@@AAY0P@$$CBD@Z PROC	; operator==<15>, COMDAT

; 146  : {

  00000	55		 push	 ebp
  00001	8b ec		 mov	 ebp, esp
  00003	83 ec 18	 sub	 esp, 24			; 00000018H
  00006	a1 00 00 00 00	 mov	 eax, DWORD PTR ___security_cookie
  0000b	33 c5		 xor	 eax, ebp
  0000d	89 45 fc	 mov	 DWORD PTR __$ArrayPad$[ebp], eax
  00010	8b 45 0c	 mov	 eax, DWORD PTR _t$[ebp]

; 147  : 	_ENCSTR(t, _t); return ( strcmp( lhs.c_str(), _t ) == 0 );

  00013	8a 10		 mov	 dl, BYTE PTR [eax]
  00015	56		 push	 esi
  00016	57		 push	 edi
  00017	8b 7d 08	 mov	 edi, DWORD PTR _lhs$[ebp]
  0001a	84 d2		 test	 dl, dl
  0001c	0f 84 75 01 00
	00		 je	 $LN96@operator
  00022	80 f2 ed	 xor	 dl, -19			; ffffffedH
  00025	88 55 e8	 mov	 BYTE PTR __t$[ebp], dl
  00028	8a 50 01	 mov	 dl, BYTE PTR [eax+1]
  0002b	84 d2		 test	 dl, dl
  0002d	0f 84 5e 01 00
	00		 je	 $LN95@operator
  00033	b1 ec		 mov	 cl, -20			; ffffffecH
  00035	32 d1		 xor	 dl, cl
  00037	88 55 e9	 mov	 BYTE PTR __t$[ebp+1], dl
  0003a	8a 50 02	 mov	 dl, BYTE PTR [eax+2]
  0003d	84 d2		 test	 dl, dl
  0003f	0f 84 46 01 00
	00		 je	 $LN94@operator
  00045	80 f2 eb	 xor	 dl, -21			; ffffffebH
  00048	88 55 ea	 mov	 BYTE PTR __t$[ebp+2], dl
  0004b	8a 50 03	 mov	 dl, BYTE PTR [eax+3]
  0004e	84 d2		 test	 dl, dl
  00050	0f 84 2f 01 00
	00		 je	 $LN93@operator
  00056	80 f2 ea	 xor	 dl, -22			; ffffffeaH
  00059	88 55 eb	 mov	 BYTE PTR __t$[ebp+3], dl
  0005c	8a 50 04	 mov	 dl, BYTE PTR [eax+4]
  0005f	84 d2		 test	 dl, dl
  00061	0f 84 18 01 00
	00		 je	 $LN92@operator
  00067	80 f2 ed	 xor	 dl, -19			; ffffffedH
  0006a	88 55 ec	 mov	 BYTE PTR __t$[ebp+4], dl
  0006d	8a 50 05	 mov	 dl, BYTE PTR [eax+5]
  00070	84 d2		 test	 dl, dl
  00072	0f 84 02 01 00
	00		 je	 $LN91@operator
  00078	32 d1		 xor	 dl, cl
  0007a	88 55 ed	 mov	 BYTE PTR __t$[ebp+5], dl
  0007d	8a 50 06	 mov	 dl, BYTE PTR [eax+6]
  00080	84 d2		 test	 dl, dl
  00082	0f 84 ec 00 00
	00		 je	 $LN90@operator
  00088	80 f2 eb	 xor	 dl, -21			; ffffffebH
  0008b	88 55 ee	 mov	 BYTE PTR __t$[ebp+6], dl
  0008e	8a 50 07	 mov	 dl, BYTE PTR [eax+7]
  00091	84 d2		 test	 dl, dl
  00093	0f 84 d5 00 00
	00		 je	 $LN89@operator
  00099	80 f2 ea	 xor	 dl, -22			; ffffffeaH
  0009c	88 55 ef	 mov	 BYTE PTR __t$[ebp+7], dl
  0009f	8a 50 08	 mov	 dl, BYTE PTR [eax+8]
  000a2	84 d2		 test	 dl, dl
  000a4	0f 84 be 00 00
	00		 je	 $LN88@operator
  000aa	80 f2 ed	 xor	 dl, -19			; ffffffedH
  000ad	88 55 f0	 mov	 BYTE PTR __t$[ebp+8], dl
  000b0	8a 50 09	 mov	 dl, BYTE PTR [eax+9]
  000b3	84 d2		 test	 dl, dl
  000b5	0f 84 a8 00 00
	00		 je	 $LN87@operator
  000bb	32 d1		 xor	 dl, cl
  000bd	88 55 f1	 mov	 BYTE PTR __t$[ebp+9], dl
  000c0	8a 50 0a	 mov	 dl, BYTE PTR [eax+10]
  000c3	84 d2		 test	 dl, dl
  000c5	0f 84 92 00 00
	00		 je	 $LN86@operator
  000cb	80 f2 eb	 xor	 dl, -21			; ffffffebH
  000ce	88 55 f2	 mov	 BYTE PTR __t$[ebp+10], dl
  000d1	8a 50 0b	 mov	 dl, BYTE PTR [eax+11]
  000d4	84 d2		 test	 dl, dl
  000d6	74 7f		 je	 SHORT $LN85@operator
  000d8	80 f2 ea	 xor	 dl, -22			; ffffffeaH
  000db	88 55 f3	 mov	 BYTE PTR __t$[ebp+11], dl
  000de	8a 50 0c	 mov	 dl, BYTE PTR [eax+12]
  000e1	84 d2		 test	 dl, dl
  000e3	74 6c		 je	 SHORT $LN84@operator
  000e5	80 f2 ed	 xor	 dl, -19			; ffffffedH
  000e8	88 55 f4	 mov	 BYTE PTR __t$[ebp+12], dl
  000eb	8a 50 0d	 mov	 dl, BYTE PTR [eax+13]
  000ee	84 d2		 test	 dl, dl
  000f0	74 5a		 je	 SHORT $LN83@operator
  000f2	32 d1		 xor	 dl, cl
  000f4	80 78 0e 00	 cmp	 BYTE PTR [eax+14], 0
  000f8	88 55 f5	 mov	 BYTE PTR __t$[ebp+13], dl
  000fb	0f 84 9a 00 00
	00		 je	 $LN1@operator
  00101	8a 50 0f	 mov	 dl, BYTE PTR [eax+15]
  00104	84 d2		 test	 dl, dl
  00106	74 3e		 je	 SHORT $LN81@operator
  00108	80 f2 ea	 xor	 dl, -22			; ffffffeaH
  0010b	88 55 f7	 mov	 BYTE PTR __t$[ebp+15], dl
  0010e	8a 50 10	 mov	 dl, BYTE PTR [eax+16]
  00111	84 d2		 test	 dl, dl
  00113	74 2b		 je	 SHORT $LN80@operator
  00115	80 f2 ed	 xor	 dl, -19			; ffffffedH
  00118	88 55 f8	 mov	 BYTE PTR __t$[ebp+16], dl
  0011b	8a 50 11	 mov	 dl, BYTE PTR [eax+17]
  0011e	84 d2		 test	 dl, dl
  00120	74 19		 je	 SHORT $LN79@operator
  00122	8a 40 12	 mov	 al, BYTE PTR [eax+18]
  00125	32 d1		 xor	 dl, cl
  00127	88 55 f9	 mov	 BYTE PTR __t$[ebp+17], dl
  0012a	84 c0		 test	 al, al
  0012c	74 07		 je	 SHORT $LN78@operator
  0012e	34 eb		 xor	 al, -21			; ffffffebH
  00130	88 45 fa	 mov	 BYTE PTR __t$[ebp+18], al
  00133	eb 66		 jmp	 SHORT $LN1@operator
$LN78@operator:
  00135	c6 45 fa eb	 mov	 BYTE PTR __t$[ebp+18], -21 ; ffffffebH
  00139	eb 60		 jmp	 SHORT $LN1@operator
$LN79@operator:
  0013b	88 4d f9	 mov	 BYTE PTR __t$[ebp+17], cl
  0013e	eb 5b		 jmp	 SHORT $LN1@operator
$LN80@operator:
  00140	c6 45 f8 ed	 mov	 BYTE PTR __t$[ebp+16], -19 ; ffffffedH
  00144	eb 55		 jmp	 SHORT $LN1@operator
$LN81@operator:
  00146	c6 45 f7 ea	 mov	 BYTE PTR __t$[ebp+15], -22 ; ffffffeaH
  0014a	eb 4f		 jmp	 SHORT $LN1@operator
$LN83@operator:
  0014c	88 4d f5	 mov	 BYTE PTR __t$[ebp+13], cl
  0014f	eb 4a		 jmp	 SHORT $LN1@operator
$LN84@operator:
  00151	c6 45 f4 ed	 mov	 BYTE PTR __t$[ebp+12], -19 ; ffffffedH
  00155	eb 44		 jmp	 SHORT $LN1@operator
$LN85@operator:
  00157	c6 45 f3 ea	 mov	 BYTE PTR __t$[ebp+11], -22 ; ffffffeaH
  0015b	eb 3e		 jmp	 SHORT $LN1@operator
$LN86@operator:
  0015d	c6 45 f2 eb	 mov	 BYTE PTR __t$[ebp+10], -21 ; ffffffebH
  00161	eb 38		 jmp	 SHORT $LN1@operator
$LN87@operator:
  00163	88 4d f1	 mov	 BYTE PTR __t$[ebp+9], cl
  00166	eb 33		 jmp	 SHORT $LN1@operator
$LN88@operator:
  00168	c6 45 f0 ed	 mov	 BYTE PTR __t$[ebp+8], -19 ; ffffffedH
  0016c	eb 2d		 jmp	 SHORT $LN1@operator
$LN89@operator:
  0016e	c6 45 ef ea	 mov	 BYTE PTR __t$[ebp+7], -22 ; ffffffeaH
  00172	eb 27		 jmp	 SHORT $LN1@operator
$LN90@operator:
  00174	c6 45 ee eb	 mov	 BYTE PTR __t$[ebp+6], -21 ; ffffffebH
  00178	eb 21		 jmp	 SHORT $LN1@operator
$LN91@operator:
  0017a	88 4d ed	 mov	 BYTE PTR __t$[ebp+5], cl
  0017d	eb 1c		 jmp	 SHORT $LN1@operator
$LN92@operator:
  0017f	c6 45 ec ed	 mov	 BYTE PTR __t$[ebp+4], -19 ; ffffffedH
  00183	eb 16		 jmp	 SHORT $LN1@operator
$LN93@operator:
  00185	c6 45 eb ea	 mov	 BYTE PTR __t$[ebp+3], -22 ; ffffffeaH
  00189	eb 10		 jmp	 SHORT $LN1@operator
$LN94@operator:
  0018b	c6 45 ea eb	 mov	 BYTE PTR __t$[ebp+2], -21 ; ffffffebH
  0018f	eb 0a		 jmp	 SHORT $LN1@operator
$LN95@operator:
  00191	c6 45 e9 ec	 mov	 BYTE PTR __t$[ebp+1], -20 ; ffffffecH
  00195	eb 04		 jmp	 SHORT $LN1@operator
$LN96@operator:
  00197	c6 45 e8 ed	 mov	 BYTE PTR __t$[ebp], -19	; ffffffedH
$LN1@operator:
  0019b	6a 03		 push	 3
  0019d	8d 45 e8	 lea	 eax, DWORD PTR __t$[ebp]
  001a0	c6 45 f6 00	 mov	 BYTE PTR __t$[ebp+14], 0
  001a4	5a		 pop	 edx
$LL104@operator:
  001a5	81 30 ed ec eb
	ea		 xor	 DWORD PTR [eax], -353637139 ; eaebecedH
  001ab	83 c0 04	 add	 eax, 4
  001ae	4a		 dec	 edx
  001af	75 f4		 jne	 SHORT $LL104@operator
  001b1	6a 0c		 push	 12			; 0000000cH
  001b3	58		 pop	 eax
$LL101@operator:
  001b4	8b c8		 mov	 ecx, eax
  001b6	81 e1 03 00 00
	80		 and	 ecx, -2147483645	; 80000003H
  001bc	79 05		 jns	 SHORT $LN115@operator
  001be	49		 dec	 ecx
  001bf	83 c9 fc	 or	 ecx, -4			; fffffffcH
  001c2	41		 inc	 ecx
$LN115@operator:
  001c3	b2 ed		 mov	 dl, -19			; ffffffedH
  001c5	2a d1		 sub	 dl, cl
  001c7	30 54 05 e8	 xor	 BYTE PTR __t$[ebp+eax], dl
  001cb	40		 inc	 eax
  001cc	83 f8 0e	 cmp	 eax, 14			; 0000000eH
  001cf	7c e3		 jl	 SHORT $LL101@operator
  001d1	8b cf		 mov	 ecx, edi
  001d3	8d 75 e8	 lea	 esi, DWORD PTR __t$[ebp]
  001d6	ff 15 00 00 00
	00		 call	 DWORD PTR __imp_?c_str@ioHashString@@QBEPBDXZ
$LL111@operator:
  001dc	8a 08		 mov	 cl, BYTE PTR [eax]
  001de	3a 0e		 cmp	 cl, BYTE PTR [esi]
  001e0	75 1a		 jne	 SHORT $LN112@operator
  001e2	84 c9		 test	 cl, cl
  001e4	74 12		 je	 SHORT $LN113@operator
  001e6	8a 48 01	 mov	 cl, BYTE PTR [eax+1]
  001e9	3a 4e 01	 cmp	 cl, BYTE PTR [esi+1]
  001ec	75 0e		 jne	 SHORT $LN112@operator
  001ee	83 c0 02	 add	 eax, 2
  001f1	83 c6 02	 add	 esi, 2
  001f4	84 c9		 test	 cl, cl
  001f6	75 e4		 jne	 SHORT $LL111@operator
$LN113@operator:
  001f8	33 c0		 xor	 eax, eax
  001fa	eb 05		 jmp	 SHORT $LN114@operator
$LN112@operator:
  001fc	1b c0		 sbb	 eax, eax
  001fe	83 d8 ff	 sbb	 eax, -1
$LN114@operator:
  00201	33 c9		 xor	 ecx, ecx
  00203	85 c0		 test	 eax, eax
  00205	0f 94 c0	 sete	 al

; 148  : }

  00208	8b 4d fc	 mov	 ecx, DWORD PTR __$ArrayPad$[ebp]
  0020b	5f		 pop	 edi
  0020c	33 cd		 xor	 ecx, ebp
  0020e	5e		 pop	 esi
  0020f	e8 00 00 00 00	 call	 @__security_check_cookie@4
  00214	c9		 leave
  00215	c3		 ret	 0
??$?8$0P@@@YA_NABVioHashString@@AAY0P@$$CBD@Z ENDP	; operator==<15>
_TEXT	ENDS
PUBLIC	__$ArrayPad$
PUBLIC	??$?8$0M@@@YA_NABVioHashString@@AAY0M@$$CBD@Z	; operator==<12>
; Function compile flags: /Ogsp
;	COMDAT ??$?8$0M@@@YA_NABVioHashString@@AAY0M@$$CBD@Z
_TEXT	SEGMENT
__t$ = -20						; size = 12
__$ArrayPad$ = -4					; size = 4
_lhs$ = 8						; size = 4
_t$ = 12						; size = 4
??$?8$0M@@@YA_NABVioHashString@@AAY0M@$$CBD@Z PROC	; operator==<12>, COMDAT

; 146  : {

  00000	55		 push	 ebp
  00001	8b ec		 mov	 ebp, esp
  00003	83 ec 14	 sub	 esp, 20			; 00000014H
  00006	a1 00 00 00 00	 mov	 eax, DWORD PTR ___security_cookie
  0000b	33 c5		 xor	 eax, ebp
  0000d	89 45 fc	 mov	 DWORD PTR __$ArrayPad$[ebp], eax
  00010	8b 45 0c	 mov	 eax, DWORD PTR _t$[ebp]

; 147  : 	_ENCSTR(t, _t); return ( strcmp( lhs.c_str(), _t ) == 0 );

  00013	8a 10		 mov	 dl, BYTE PTR [eax]
  00015	56		 push	 esi
  00016	57		 push	 edi
  00017	8b 7d 08	 mov	 edi, DWORD PTR _lhs$[ebp]
  0001a	84 d2		 test	 dl, dl
  0001c	0f 84 32 01 00
	00		 je	 $LN96@operator@2
  00022	80 f2 ed	 xor	 dl, -19			; ffffffedH
  00025	88 55 ec	 mov	 BYTE PTR __t$[ebp], dl
  00028	8a 50 01	 mov	 dl, BYTE PTR [eax+1]
  0002b	84 d2		 test	 dl, dl
  0002d	0f 84 1b 01 00
	00		 je	 $LN95@operator@2
  00033	80 f2 ec	 xor	 dl, -20			; ffffffecH
  00036	88 55 ed	 mov	 BYTE PTR __t$[ebp+1], dl
  00039	8a 50 02	 mov	 dl, BYTE PTR [eax+2]
  0003c	84 d2		 test	 dl, dl
  0003e	0f 84 04 01 00
	00		 je	 $LN94@operator@2
  00044	b1 eb		 mov	 cl, -21			; ffffffebH
  00046	32 d1		 xor	 dl, cl
  00048	88 55 ee	 mov	 BYTE PTR __t$[ebp+2], dl
  0004b	8a 50 03	 mov	 dl, BYTE PTR [eax+3]
  0004e	84 d2		 test	 dl, dl
  00050	0f 84 ec 00 00
	00		 je	 $LN93@operator@2
  00056	80 f2 ea	 xor	 dl, -22			; ffffffeaH
  00059	88 55 ef	 mov	 BYTE PTR __t$[ebp+3], dl
  0005c	8a 50 04	 mov	 dl, BYTE PTR [eax+4]
  0005f	84 d2		 test	 dl, dl
  00061	0f 84 d5 00 00
	00		 je	 $LN92@operator@2
  00067	80 f2 ed	 xor	 dl, -19			; ffffffedH
  0006a	88 55 f0	 mov	 BYTE PTR __t$[ebp+4], dl
  0006d	8a 50 05	 mov	 dl, BYTE PTR [eax+5]
  00070	84 d2		 test	 dl, dl
  00072	0f 84 be 00 00
	00		 je	 $LN91@operator@2
  00078	80 f2 ec	 xor	 dl, -20			; ffffffecH
  0007b	88 55 f1	 mov	 BYTE PTR __t$[ebp+5], dl
  0007e	8a 50 06	 mov	 dl, BYTE PTR [eax+6]
  00081	84 d2		 test	 dl, dl
  00083	0f 84 a8 00 00
	00		 je	 $LN90@operator@2
  00089	32 d1		 xor	 dl, cl
  0008b	88 55 f2	 mov	 BYTE PTR __t$[ebp+6], dl
  0008e	8a 50 07	 mov	 dl, BYTE PTR [eax+7]
  00091	84 d2		 test	 dl, dl
  00093	0f 84 92 00 00
	00		 je	 $LN89@operator@2
  00099	80 f2 ea	 xor	 dl, -22			; ffffffeaH
  0009c	88 55 f3	 mov	 BYTE PTR __t$[ebp+7], dl
  0009f	8a 50 08	 mov	 dl, BYTE PTR [eax+8]
  000a2	84 d2		 test	 dl, dl
  000a4	74 7f		 je	 SHORT $LN88@operator@2
  000a6	80 f2 ed	 xor	 dl, -19			; ffffffedH
  000a9	88 55 f4	 mov	 BYTE PTR __t$[ebp+8], dl
  000ac	8a 50 09	 mov	 dl, BYTE PTR [eax+9]
  000af	84 d2		 test	 dl, dl
  000b1	74 6c		 je	 SHORT $LN87@operator@2
  000b3	80 f2 ec	 xor	 dl, -20			; ffffffecH
  000b6	88 55 f5	 mov	 BYTE PTR __t$[ebp+9], dl
  000b9	8a 50 0a	 mov	 dl, BYTE PTR [eax+10]
  000bc	84 d2		 test	 dl, dl
  000be	74 5a		 je	 SHORT $LN86@operator@2
  000c0	32 d1		 xor	 dl, cl
  000c2	80 78 0b 00	 cmp	 BYTE PTR [eax+11], 0
  000c6	88 55 f6	 mov	 BYTE PTR __t$[ebp+10], dl
  000c9	0f 84 89 00 00
	00		 je	 $LN1@operator@2
  000cf	8a 50 0c	 mov	 dl, BYTE PTR [eax+12]
  000d2	84 d2		 test	 dl, dl
  000d4	74 3e		 je	 SHORT $LN84@operator@2
  000d6	80 f2 ed	 xor	 dl, -19			; ffffffedH
  000d9	88 55 f8	 mov	 BYTE PTR __t$[ebp+12], dl
  000dc	8a 50 0d	 mov	 dl, BYTE PTR [eax+13]
  000df	84 d2		 test	 dl, dl
  000e1	74 2b		 je	 SHORT $LN83@operator@2
  000e3	80 f2 ec	 xor	 dl, -20			; ffffffecH
  000e6	88 55 f9	 mov	 BYTE PTR __t$[ebp+13], dl
  000e9	8a 50 0e	 mov	 dl, BYTE PTR [eax+14]
  000ec	84 d2		 test	 dl, dl
  000ee	74 19		 je	 SHORT $LN82@operator@2
  000f0	8a 40 0f	 mov	 al, BYTE PTR [eax+15]
  000f3	32 d1		 xor	 dl, cl
  000f5	88 55 fa	 mov	 BYTE PTR __t$[ebp+14], dl
  000f8	84 c0		 test	 al, al
  000fa	74 07		 je	 SHORT $LN81@operator@2
  000fc	34 ea		 xor	 al, -22			; ffffffeaH
  000fe	88 45 fb	 mov	 BYTE PTR __t$[ebp+15], al
  00101	eb 55		 jmp	 SHORT $LN1@operator@2
$LN81@operator@2:
  00103	c6 45 fb ea	 mov	 BYTE PTR __t$[ebp+15], -22 ; ffffffeaH
  00107	eb 4f		 jmp	 SHORT $LN1@operator@2
$LN82@operator@2:
  00109	88 4d fa	 mov	 BYTE PTR __t$[ebp+14], cl
  0010c	eb 4a		 jmp	 SHORT $LN1@operator@2
$LN83@operator@2:
  0010e	c6 45 f9 ec	 mov	 BYTE PTR __t$[ebp+13], -20 ; ffffffecH
  00112	eb 44		 jmp	 SHORT $LN1@operator@2
$LN84@operator@2:
  00114	c6 45 f8 ed	 mov	 BYTE PTR __t$[ebp+12], -19 ; ffffffedH
  00118	eb 3e		 jmp	 SHORT $LN1@operator@2
$LN86@operator@2:
  0011a	88 4d f6	 mov	 BYTE PTR __t$[ebp+10], cl
  0011d	eb 39		 jmp	 SHORT $LN1@operator@2
$LN87@operator@2:
  0011f	c6 45 f5 ec	 mov	 BYTE PTR __t$[ebp+9], -20 ; ffffffecH
  00123	eb 33		 jmp	 SHORT $LN1@operator@2
$LN88@operator@2:
  00125	c6 45 f4 ed	 mov	 BYTE PTR __t$[ebp+8], -19 ; ffffffedH
  00129	eb 2d		 jmp	 SHORT $LN1@operator@2
$LN89@operator@2:
  0012b	c6 45 f3 ea	 mov	 BYTE PTR __t$[ebp+7], -22 ; ffffffeaH
  0012f	eb 27		 jmp	 SHORT $LN1@operator@2
$LN90@operator@2:
  00131	88 4d f2	 mov	 BYTE PTR __t$[ebp+6], cl
  00134	eb 22		 jmp	 SHORT $LN1@operator@2
$LN91@operator@2:
  00136	c6 45 f1 ec	 mov	 BYTE PTR __t$[ebp+5], -20 ; ffffffecH
  0013a	eb 1c		 jmp	 SHORT $LN1@operator@2
$LN92@operator@2:
  0013c	c6 45 f0 ed	 mov	 BYTE PTR __t$[ebp+4], -19 ; ffffffedH
  00140	eb 16		 jmp	 SHORT $LN1@operator@2
$LN93@operator@2:
  00142	c6 45 ef ea	 mov	 BYTE PTR __t$[ebp+3], -22 ; ffffffeaH
  00146	eb 10		 jmp	 SHORT $LN1@operator@2
$LN94@operator@2:
  00148	c6 45 ee eb	 mov	 BYTE PTR __t$[ebp+2], -21 ; ffffffebH
  0014c	eb 0a		 jmp	 SHORT $LN1@operator@2
$LN95@operator@2:
  0014e	c6 45 ed ec	 mov	 BYTE PTR __t$[ebp+1], -20 ; ffffffecH
  00152	eb 04		 jmp	 SHORT $LN1@operator@2
$LN96@operator@2:
  00154	c6 45 ec ed	 mov	 BYTE PTR __t$[ebp], -19	; ffffffedH
$LN1@operator@2:
  00158	6a 02		 push	 2
  0015a	8d 45 ec	 lea	 eax, DWORD PTR __t$[ebp]
  0015d	c6 45 f7 00	 mov	 BYTE PTR __t$[ebp+11], 0
  00161	5a		 pop	 edx
$LL104@operator@2:
  00162	81 30 ed ec eb
	ea		 xor	 DWORD PTR [eax], -353637139 ; eaebecedH
  00168	83 c0 04	 add	 eax, 4
  0016b	4a		 dec	 edx
  0016c	75 f4		 jne	 SHORT $LL104@operator@2
  0016e	6a 08		 push	 8
  00170	58		 pop	 eax
$LL101@operator@2:
  00171	8b c8		 mov	 ecx, eax
  00173	81 e1 03 00 00
	80		 and	 ecx, -2147483645	; 80000003H
  00179	79 05		 jns	 SHORT $LN115@operator@2
  0017b	49		 dec	 ecx
  0017c	83 c9 fc	 or	 ecx, -4			; fffffffcH
  0017f	41		 inc	 ecx
$LN115@operator@2:
  00180	b2 ed		 mov	 dl, -19			; ffffffedH
  00182	2a d1		 sub	 dl, cl
  00184	30 54 05 ec	 xor	 BYTE PTR __t$[ebp+eax], dl
  00188	40		 inc	 eax
  00189	83 f8 0b	 cmp	 eax, 11			; 0000000bH
  0018c	7c e3		 jl	 SHORT $LL101@operator@2
  0018e	8b cf		 mov	 ecx, edi
  00190	8d 75 ec	 lea	 esi, DWORD PTR __t$[ebp]
  00193	ff 15 00 00 00
	00		 call	 DWORD PTR __imp_?c_str@ioHashString@@QBEPBDXZ
$LL111@operator@2:
  00199	8a 08		 mov	 cl, BYTE PTR [eax]
  0019b	3a 0e		 cmp	 cl, BYTE PTR [esi]
  0019d	75 1a		 jne	 SHORT $LN112@operator@2
  0019f	84 c9		 test	 cl, cl
  001a1	74 12		 je	 SHORT $LN113@operator@2
  001a3	8a 48 01	 mov	 cl, BYTE PTR [eax+1]
  001a6	3a 4e 01	 cmp	 cl, BYTE PTR [esi+1]
  001a9	75 0e		 jne	 SHORT $LN112@operator@2
  001ab	83 c0 02	 add	 eax, 2
  001ae	83 c6 02	 add	 esi, 2
  001b1	84 c9		 test	 cl, cl
  001b3	75 e4		 jne	 SHORT $LL111@operator@2
$LN113@operator@2:
  001b5	33 c0		 xor	 eax, eax
  001b7	eb 05		 jmp	 SHORT $LN114@operator@2
$LN112@operator@2:
  001b9	1b c0		 sbb	 eax, eax
  001bb	83 d8 ff	 sbb	 eax, -1
$LN114@operator@2:
  001be	33 c9		 xor	 ecx, ecx
  001c0	85 c0		 test	 eax, eax
  001c2	0f 94 c0	 sete	 al

; 148  : }

  001c5	8b 4d fc	 mov	 ecx, DWORD PTR __$ArrayPad$[ebp]
  001c8	5f		 pop	 edi
  001c9	33 cd		 xor	 ecx, ebp
  001cb	5e		 pop	 esi
  001cc	e8 00 00 00 00	 call	 @__security_check_cookie@4
  001d1	c9		 leave
  001d2	c3		 ret	 0
??$?8$0M@@@YA_NABVioHashString@@AAY0M@$$CBD@Z ENDP	; operator==<12>
_TEXT	ENDS
PUBLIC	__$ArrayPad$
PUBLIC	??$?8$09@@YA_NABVioHashString@@AAY09$$CBD@Z	; operator==<10>
; Function compile flags: /Ogsp
;	COMDAT ??$?8$09@@YA_NABVioHashString@@AAY09$$CBD@Z
_TEXT	SEGMENT
__t$ = -20						; size = 10
__$ArrayPad$ = -4					; size = 4
_lhs$ = 8						; size = 4
_t$ = 12						; size = 4
??$?8$09@@YA_NABVioHashString@@AAY09$$CBD@Z PROC	; operator==<10>, COMDAT

; 146  : {

  00000	55		 push	 ebp
  00001	8b ec		 mov	 ebp, esp
  00003	83 ec 14	 sub	 esp, 20			; 00000014H
  00006	a1 00 00 00 00	 mov	 eax, DWORD PTR ___security_cookie
  0000b	33 c5		 xor	 eax, ebp
  0000d	89 45 fc	 mov	 DWORD PTR __$ArrayPad$[ebp], eax
  00010	8b 45 0c	 mov	 eax, DWORD PTR _t$[ebp]

; 147  : 	_ENCSTR(t, _t); return ( strcmp( lhs.c_str(), _t ) == 0 );

  00013	8a 10		 mov	 dl, BYTE PTR [eax]
  00015	8b 4d 08	 mov	 ecx, DWORD PTR _lhs$[ebp]
  00018	84 d2		 test	 dl, dl
  0001a	0f 84 0d 01 00
	00		 je	 $LN96@operator@3
  00020	80 f2 ed	 xor	 dl, -19			; ffffffedH
  00023	88 55 ec	 mov	 BYTE PTR __t$[ebp], dl
  00026	8a 50 01	 mov	 dl, BYTE PTR [eax+1]
  00029	84 d2		 test	 dl, dl
  0002b	0f 84 f6 00 00
	00		 je	 $LN95@operator@3
  00031	80 f2 ec	 xor	 dl, -20			; ffffffecH
  00034	88 55 ed	 mov	 BYTE PTR __t$[ebp+1], dl
  00037	8a 50 02	 mov	 dl, BYTE PTR [eax+2]
  0003a	84 d2		 test	 dl, dl
  0003c	0f 84 df 00 00
	00		 je	 $LN94@operator@3
  00042	80 f2 eb	 xor	 dl, -21			; ffffffebH
  00045	88 55 ee	 mov	 BYTE PTR __t$[ebp+2], dl
  00048	8a 50 03	 mov	 dl, BYTE PTR [eax+3]
  0004b	84 d2		 test	 dl, dl
  0004d	0f 84 c8 00 00
	00		 je	 $LN93@operator@3
  00053	80 f2 ea	 xor	 dl, -22			; ffffffeaH
  00056	88 55 ef	 mov	 BYTE PTR __t$[ebp+3], dl
  00059	8a 50 04	 mov	 dl, BYTE PTR [eax+4]
  0005c	84 d2		 test	 dl, dl
  0005e	0f 84 b1 00 00
	00		 je	 $LN92@operator@3
  00064	80 f2 ed	 xor	 dl, -19			; ffffffedH
  00067	88 55 f0	 mov	 BYTE PTR __t$[ebp+4], dl
  0006a	8a 50 05	 mov	 dl, BYTE PTR [eax+5]
  0006d	84 d2		 test	 dl, dl
  0006f	0f 84 9a 00 00
	00		 je	 $LN91@operator@3
  00075	80 f2 ec	 xor	 dl, -20			; ffffffecH
  00078	88 55 f1	 mov	 BYTE PTR __t$[ebp+5], dl
  0007b	8a 50 06	 mov	 dl, BYTE PTR [eax+6]
  0007e	84 d2		 test	 dl, dl
  00080	0f 84 83 00 00
	00		 je	 $LN90@operator@3
  00086	80 f2 eb	 xor	 dl, -21			; ffffffebH
  00089	88 55 f2	 mov	 BYTE PTR __t$[ebp+6], dl
  0008c	8a 50 07	 mov	 dl, BYTE PTR [eax+7]
  0008f	84 d2		 test	 dl, dl
  00091	74 70		 je	 SHORT $LN89@operator@3
  00093	80 f2 ea	 xor	 dl, -22			; ffffffeaH
  00096	88 55 f3	 mov	 BYTE PTR __t$[ebp+7], dl
  00099	8a 50 08	 mov	 dl, BYTE PTR [eax+8]
  0009c	84 d2		 test	 dl, dl
  0009e	74 5d		 je	 SHORT $LN88@operator@3
  000a0	80 f2 ed	 xor	 dl, -19			; ffffffedH
  000a3	80 78 09 00	 cmp	 BYTE PTR [eax+9], 0
  000a7	88 55 f4	 mov	 BYTE PTR __t$[ebp+8], dl
  000aa	0f 84 81 00 00
	00		 je	 $LN1@operator@3
  000b0	8a 50 0a	 mov	 dl, BYTE PTR [eax+10]
  000b3	84 d2		 test	 dl, dl
  000b5	74 40		 je	 SHORT $LN86@operator@3
  000b7	80 f2 eb	 xor	 dl, -21			; ffffffebH
  000ba	88 55 f6	 mov	 BYTE PTR __t$[ebp+10], dl
  000bd	8a 50 0b	 mov	 dl, BYTE PTR [eax+11]
  000c0	84 d2		 test	 dl, dl
  000c2	74 2d		 je	 SHORT $LN85@operator@3
  000c4	80 f2 ea	 xor	 dl, -22			; ffffffeaH
  000c7	88 55 f7	 mov	 BYTE PTR __t$[ebp+11], dl
  000ca	8a 50 0c	 mov	 dl, BYTE PTR [eax+12]
  000cd	84 d2		 test	 dl, dl
  000cf	74 1a		 je	 SHORT $LN84@operator@3
  000d1	8a 40 0d	 mov	 al, BYTE PTR [eax+13]
  000d4	80 f2 ed	 xor	 dl, -19			; ffffffedH
  000d7	88 55 f8	 mov	 BYTE PTR __t$[ebp+12], dl
  000da	84 c0		 test	 al, al
  000dc	74 07		 je	 SHORT $LN83@operator@3
  000de	34 ec		 xor	 al, -20			; ffffffecH
  000e0	88 45 f9	 mov	 BYTE PTR __t$[ebp+13], al
  000e3	eb 4c		 jmp	 SHORT $LN1@operator@3
$LN83@operator@3:
  000e5	c6 45 f9 ec	 mov	 BYTE PTR __t$[ebp+13], -20 ; ffffffecH
  000e9	eb 46		 jmp	 SHORT $LN1@operator@3
$LN84@operator@3:
  000eb	c6 45 f8 ed	 mov	 BYTE PTR __t$[ebp+12], -19 ; ffffffedH
  000ef	eb 40		 jmp	 SHORT $LN1@operator@3
$LN85@operator@3:
  000f1	c6 45 f7 ea	 mov	 BYTE PTR __t$[ebp+11], -22 ; ffffffeaH
  000f5	eb 3a		 jmp	 SHORT $LN1@operator@3
$LN86@operator@3:
  000f7	c6 45 f6 eb	 mov	 BYTE PTR __t$[ebp+10], -21 ; ffffffebH
  000fb	eb 34		 jmp	 SHORT $LN1@operator@3
$LN88@operator@3:
  000fd	c6 45 f4 ed	 mov	 BYTE PTR __t$[ebp+8], -19 ; ffffffedH
  00101	eb 2e		 jmp	 SHORT $LN1@operator@3
$LN89@operator@3:
  00103	c6 45 f3 ea	 mov	 BYTE PTR __t$[ebp+7], -22 ; ffffffeaH
  00107	eb 28		 jmp	 SHORT $LN1@operator@3
$LN90@operator@3:
  00109	c6 45 f2 eb	 mov	 BYTE PTR __t$[ebp+6], -21 ; ffffffebH
  0010d	eb 22		 jmp	 SHORT $LN1@operator@3
$LN91@operator@3:
  0010f	c6 45 f1 ec	 mov	 BYTE PTR __t$[ebp+5], -20 ; ffffffecH
  00113	eb 1c		 jmp	 SHORT $LN1@operator@3
$LN92@operator@3:
  00115	c6 45 f0 ed	 mov	 BYTE PTR __t$[ebp+4], -19 ; ffffffedH
  00119	eb 16		 jmp	 SHORT $LN1@operator@3
$LN93@operator@3:
  0011b	c6 45 ef ea	 mov	 BYTE PTR __t$[ebp+3], -22 ; ffffffeaH
  0011f	eb 10		 jmp	 SHORT $LN1@operator@3
$LN94@operator@3:
  00121	c6 45 ee eb	 mov	 BYTE PTR __t$[ebp+2], -21 ; ffffffebH
  00125	eb 0a		 jmp	 SHORT $LN1@operator@3
$LN95@operator@3:
  00127	c6 45 ed ec	 mov	 BYTE PTR __t$[ebp+1], -20 ; ffffffecH
  0012b	eb 04		 jmp	 SHORT $LN1@operator@3
$LN96@operator@3:
  0012d	c6 45 ec ed	 mov	 BYTE PTR __t$[ebp], -19	; ffffffedH
$LN1@operator@3:
  00131	6a 02		 push	 2
  00133	8d 45 ec	 lea	 eax, DWORD PTR __t$[ebp]
  00136	c6 45 f5 00	 mov	 BYTE PTR __t$[ebp+9], 0
  0013a	5a		 pop	 edx
$LL104@operator@3:
  0013b	81 30 ed ec eb
	ea		 xor	 DWORD PTR [eax], -353637139 ; eaebecedH
  00141	83 c0 04	 add	 eax, 4
  00144	4a		 dec	 edx
  00145	75 f4		 jne	 SHORT $LL104@operator@3
  00147	80 75 f4 ed	 xor	 BYTE PTR __t$[ebp+8], -19 ; ffffffedH
  0014b	56		 push	 esi
  0014c	8d 75 ec	 lea	 esi, DWORD PTR __t$[ebp]
  0014f	ff 15 00 00 00
	00		 call	 DWORD PTR __imp_?c_str@ioHashString@@QBEPBDXZ
$LL111@operator@3:
  00155	8a 08		 mov	 cl, BYTE PTR [eax]
  00157	3a 0e		 cmp	 cl, BYTE PTR [esi]
  00159	75 1a		 jne	 SHORT $LN112@operator@3
  0015b	84 c9		 test	 cl, cl
  0015d	74 12		 je	 SHORT $LN113@operator@3
  0015f	8a 48 01	 mov	 cl, BYTE PTR [eax+1]
  00162	3a 4e 01	 cmp	 cl, BYTE PTR [esi+1]
  00165	75 0e		 jne	 SHORT $LN112@operator@3
  00167	83 c0 02	 add	 eax, 2
  0016a	83 c6 02	 add	 esi, 2
  0016d	84 c9		 test	 cl, cl
  0016f	75 e4		 jne	 SHORT $LL111@operator@3
$LN113@operator@3:
  00171	33 c0		 xor	 eax, eax
  00173	eb 05		 jmp	 SHORT $LN114@operator@3
$LN112@operator@3:
  00175	1b c0		 sbb	 eax, eax
  00177	83 d8 ff	 sbb	 eax, -1
$LN114@operator@3:
  0017a	33 c9		 xor	 ecx, ecx
  0017c	85 c0		 test	 eax, eax
  0017e	0f 94 c0	 sete	 al

; 148  : }

  00181	8b 4d fc	 mov	 ecx, DWORD PTR __$ArrayPad$[ebp]
  00184	33 cd		 xor	 ecx, ebp
  00186	5e		 pop	 esi
  00187	e8 00 00 00 00	 call	 @__security_check_cookie@4
  0018c	c9		 leave
  0018d	c3		 ret	 0
??$?8$09@@YA_NABVioHashString@@AAY09$$CBD@Z ENDP	; operator==<10>
_TEXT	ENDS
PUBLIC	__$ArrayPad$
PUBLIC	??$?8$08@@YA_NABVioHashString@@AAY08$$CBD@Z	; operator==<9>
; Function compile flags: /Ogsp
;	COMDAT ??$?8$08@@YA_NABVioHashString@@AAY08$$CBD@Z
_TEXT	SEGMENT
__t$ = -20						; size = 9
__$ArrayPad$ = -4					; size = 4
_lhs$ = 8						; size = 4
_t$ = 12						; size = 4
??$?8$08@@YA_NABVioHashString@@AAY08$$CBD@Z PROC	; operator==<9>, COMDAT

; 146  : {

  00000	55		 push	 ebp
  00001	8b ec		 mov	 ebp, esp
  00003	83 ec 14	 sub	 esp, 20			; 00000014H
  00006	a1 00 00 00 00	 mov	 eax, DWORD PTR ___security_cookie
  0000b	33 c5		 xor	 eax, ebp
  0000d	89 45 fc	 mov	 DWORD PTR __$ArrayPad$[ebp], eax
  00010	8b 45 0c	 mov	 eax, DWORD PTR _t$[ebp]

; 147  : 	_ENCSTR(t, _t); return ( strcmp( lhs.c_str(), _t ) == 0 );

  00013	8a 10		 mov	 dl, BYTE PTR [eax]
  00015	8b 4d 08	 mov	 ecx, DWORD PTR _lhs$[ebp]
  00018	84 d2		 test	 dl, dl
  0001a	0f 84 ee 00 00
	00		 je	 $LN96@operator@4
  00020	80 f2 ed	 xor	 dl, -19			; ffffffedH
  00023	88 55 ec	 mov	 BYTE PTR __t$[ebp], dl
  00026	8a 50 01	 mov	 dl, BYTE PTR [eax+1]
  00029	84 d2		 test	 dl, dl
  0002b	0f 84 d7 00 00
	00		 je	 $LN95@operator@4
  00031	80 f2 ec	 xor	 dl, -20			; ffffffecH
  00034	88 55 ed	 mov	 BYTE PTR __t$[ebp+1], dl
  00037	8a 50 02	 mov	 dl, BYTE PTR [eax+2]
  0003a	84 d2		 test	 dl, dl
  0003c	0f 84 c0 00 00
	00		 je	 $LN94@operator@4
  00042	80 f2 eb	 xor	 dl, -21			; ffffffebH
  00045	88 55 ee	 mov	 BYTE PTR __t$[ebp+2], dl
  00048	8a 50 03	 mov	 dl, BYTE PTR [eax+3]
  0004b	84 d2		 test	 dl, dl
  0004d	0f 84 a9 00 00
	00		 je	 $LN93@operator@4
  00053	80 f2 ea	 xor	 dl, -22			; ffffffeaH
  00056	88 55 ef	 mov	 BYTE PTR __t$[ebp+3], dl
  00059	8a 50 04	 mov	 dl, BYTE PTR [eax+4]
  0005c	84 d2		 test	 dl, dl
  0005e	0f 84 92 00 00
	00		 je	 $LN92@operator@4
  00064	80 f2 ed	 xor	 dl, -19			; ffffffedH
  00067	88 55 f0	 mov	 BYTE PTR __t$[ebp+4], dl
  0006a	8a 50 05	 mov	 dl, BYTE PTR [eax+5]
  0006d	84 d2		 test	 dl, dl
  0006f	74 7f		 je	 SHORT $LN91@operator@4
  00071	80 f2 ec	 xor	 dl, -20			; ffffffecH
  00074	88 55 f1	 mov	 BYTE PTR __t$[ebp+5], dl
  00077	8a 50 06	 mov	 dl, BYTE PTR [eax+6]
  0007a	84 d2		 test	 dl, dl
  0007c	74 6c		 je	 SHORT $LN90@operator@4
  0007e	80 f2 eb	 xor	 dl, -21			; ffffffebH
  00081	88 55 f2	 mov	 BYTE PTR __t$[ebp+6], dl
  00084	8a 50 07	 mov	 dl, BYTE PTR [eax+7]
  00087	84 d2		 test	 dl, dl
  00089	74 59		 je	 SHORT $LN89@operator@4
  0008b	80 f2 ea	 xor	 dl, -22			; ffffffeaH
  0008e	80 78 08 00	 cmp	 BYTE PTR [eax+8], 0
  00092	88 55 f3	 mov	 BYTE PTR __t$[ebp+7], dl
  00095	74 7b		 je	 SHORT $LN1@operator@4
  00097	8a 50 09	 mov	 dl, BYTE PTR [eax+9]
  0009a	84 d2		 test	 dl, dl
  0009c	74 40		 je	 SHORT $LN87@operator@4
  0009e	80 f2 ec	 xor	 dl, -20			; ffffffecH
  000a1	88 55 f5	 mov	 BYTE PTR __t$[ebp+9], dl
  000a4	8a 50 0a	 mov	 dl, BYTE PTR [eax+10]
  000a7	84 d2		 test	 dl, dl
  000a9	74 2d		 je	 SHORT $LN86@operator@4
  000ab	80 f2 eb	 xor	 dl, -21			; ffffffebH
  000ae	88 55 f6	 mov	 BYTE PTR __t$[ebp+10], dl
  000b1	8a 50 0b	 mov	 dl, BYTE PTR [eax+11]
  000b4	84 d2		 test	 dl, dl
  000b6	74 1a		 je	 SHORT $LN85@operator@4
  000b8	8a 40 0c	 mov	 al, BYTE PTR [eax+12]
  000bb	80 f2 ea	 xor	 dl, -22			; ffffffeaH
  000be	88 55 f7	 mov	 BYTE PTR __t$[ebp+11], dl
  000c1	84 c0		 test	 al, al
  000c3	74 07		 je	 SHORT $LN84@operator@4
  000c5	34 ed		 xor	 al, -19			; ffffffedH
  000c7	88 45 f8	 mov	 BYTE PTR __t$[ebp+12], al
  000ca	eb 46		 jmp	 SHORT $LN1@operator@4
$LN84@operator@4:
  000cc	c6 45 f8 ed	 mov	 BYTE PTR __t$[ebp+12], -19 ; ffffffedH
  000d0	eb 40		 jmp	 SHORT $LN1@operator@4
$LN85@operator@4:
  000d2	c6 45 f7 ea	 mov	 BYTE PTR __t$[ebp+11], -22 ; ffffffeaH
  000d6	eb 3a		 jmp	 SHORT $LN1@operator@4
$LN86@operator@4:
  000d8	c6 45 f6 eb	 mov	 BYTE PTR __t$[ebp+10], -21 ; ffffffebH
  000dc	eb 34		 jmp	 SHORT $LN1@operator@4
$LN87@operator@4:
  000de	c6 45 f5 ec	 mov	 BYTE PTR __t$[ebp+9], -20 ; ffffffecH
  000e2	eb 2e		 jmp	 SHORT $LN1@operator@4
$LN89@operator@4:
  000e4	c6 45 f3 ea	 mov	 BYTE PTR __t$[ebp+7], -22 ; ffffffeaH
  000e8	eb 28		 jmp	 SHORT $LN1@operator@4
$LN90@operator@4:
  000ea	c6 45 f2 eb	 mov	 BYTE PTR __t$[ebp+6], -21 ; ffffffebH
  000ee	eb 22		 jmp	 SHORT $LN1@operator@4
$LN91@operator@4:
  000f0	c6 45 f1 ec	 mov	 BYTE PTR __t$[ebp+5], -20 ; ffffffecH
  000f4	eb 1c		 jmp	 SHORT $LN1@operator@4
$LN92@operator@4:
  000f6	c6 45 f0 ed	 mov	 BYTE PTR __t$[ebp+4], -19 ; ffffffedH
  000fa	eb 16		 jmp	 SHORT $LN1@operator@4
$LN93@operator@4:
  000fc	c6 45 ef ea	 mov	 BYTE PTR __t$[ebp+3], -22 ; ffffffeaH
  00100	eb 10		 jmp	 SHORT $LN1@operator@4
$LN94@operator@4:
  00102	c6 45 ee eb	 mov	 BYTE PTR __t$[ebp+2], -21 ; ffffffebH
  00106	eb 0a		 jmp	 SHORT $LN1@operator@4
$LN95@operator@4:
  00108	c6 45 ed ec	 mov	 BYTE PTR __t$[ebp+1], -20 ; ffffffecH
  0010c	eb 04		 jmp	 SHORT $LN1@operator@4
$LN96@operator@4:
  0010e	c6 45 ec ed	 mov	 BYTE PTR __t$[ebp], -19	; ffffffedH
$LN1@operator@4:
  00112	6a 02		 push	 2
  00114	8d 45 ec	 lea	 eax, DWORD PTR __t$[ebp]
  00117	c6 45 f4 00	 mov	 BYTE PTR __t$[ebp+8], 0
  0011b	5a		 pop	 edx
$LL104@operator@4:
  0011c	81 30 ed ec eb
	ea		 xor	 DWORD PTR [eax], -353637139 ; eaebecedH
  00122	83 c0 04	 add	 eax, 4
  00125	4a		 dec	 edx
  00126	75 f4		 jne	 SHORT $LL104@operator@4
  00128	56		 push	 esi
  00129	8d 75 ec	 lea	 esi, DWORD PTR __t$[ebp]
  0012c	ff 15 00 00 00
	00		 call	 DWORD PTR __imp_?c_str@ioHashString@@QBEPBDXZ
$LL111@operator@4:
  00132	8a 08		 mov	 cl, BYTE PTR [eax]
  00134	3a 0e		 cmp	 cl, BYTE PTR [esi]
  00136	75 1a		 jne	 SHORT $LN112@operator@4
  00138	84 c9		 test	 cl, cl
  0013a	74 12		 je	 SHORT $LN113@operator@4
  0013c	8a 48 01	 mov	 cl, BYTE PTR [eax+1]
  0013f	3a 4e 01	 cmp	 cl, BYTE PTR [esi+1]
  00142	75 0e		 jne	 SHORT $LN112@operator@4
  00144	83 c0 02	 add	 eax, 2
  00147	83 c6 02	 add	 esi, 2
  0014a	84 c9		 test	 cl, cl
  0014c	75 e4		 jne	 SHORT $LL111@operator@4
$LN113@operator@4:
  0014e	33 c0		 xor	 eax, eax
  00150	eb 05		 jmp	 SHORT $LN114@operator@4
$LN112@operator@4:
  00152	1b c0		 sbb	 eax, eax
  00154	83 d8 ff	 sbb	 eax, -1
$LN114@operator@4:
  00157	33 c9		 xor	 ecx, ecx
  00159	85 c0		 test	 eax, eax
  0015b	0f 94 c0	 sete	 al

; 148  : }

  0015e	8b 4d fc	 mov	 ecx, DWORD PTR __$ArrayPad$[ebp]
  00161	33 cd		 xor	 ecx, ebp
  00163	5e		 pop	 esi
  00164	e8 00 00 00 00	 call	 @__security_check_cookie@4
  00169	c9		 leave
  0016a	c3		 ret	 0
??$?8$08@@YA_NABVioHashString@@AAY08$$CBD@Z ENDP	; operator==<9>
_TEXT	ENDS
PUBLIC	_pImage$GSCopy$
PUBLIC	_this$GSCopy$
PUBLIC	_szType$GSCopy$
PUBLIC	__$ArrayPad$
EXTRN	__imp_?AddRenderImage@ioWnd@@UAEXABVioHashString@@PAVioUIRenderImage@@@Z:PROC
; Function compile flags: /Ogsp
; File d:\lost saga for developer\youtube\tutorial\source\src\lsclient\gui\bossmonstergaugewnd.cpp
;	COMDAT ?AddRenderImage@BossMonsterGaugeWnd@@UAEXABVioHashString@@PAVioUIRenderImage@@@Z
_TEXT	SEGMENT
_pImage$GSCopy$ = -36					; size = 4
_this$GSCopy$ = -32					; size = 4
_szType$GSCopy$ = -28					; size = 4
__t$507269 = -24					; size = 12
__t$507019 = -24					; size = 12
__t$506881 = -24					; size = 15
__t$507381 = -20					; size = 9
__t$507182 = -20					; size = 10
__$ArrayPad$ = -4					; size = 4
_szType$ = 8						; size = 4
_pImage$ = 12						; size = 4
?AddRenderImage@BossMonsterGaugeWnd@@UAEXABVioHashString@@PAVioUIRenderImage@@@Z PROC ; BossMonsterGaugeWnd::AddRenderImage, COMDAT
; _this$ = ecx

; 49   : {	

  00000	55		 push	 ebp
  00001	8b ec		 mov	 ebp, esp
  00003	83 ec 24	 sub	 esp, 36			; 00000024H
  00006	a1 00 00 00 00	 mov	 eax, DWORD PTR ___security_cookie
  0000b	33 c5		 xor	 eax, ebp
  0000d	89 45 fc	 mov	 DWORD PTR __$ArrayPad$[ebp], eax
  00010	8b 45 08	 mov	 eax, DWORD PTR _szType$[ebp]
  00013	53		 push	 ebx
  00014	56		 push	 esi
  00015	57		 push	 edi

; 71   : 	{
; 72   : 		SAFEDELETE( m_pGaugeRed );

  00016	89 45 e4	 mov	 DWORD PTR _szType$GSCopy$[ebp], eax
  00019	8b 45 0c	 mov	 eax, DWORD PTR _pImage$[ebp]
  0001c	33 db		 xor	 ebx, ebx
  0001e	6a 03		 push	 3
  00020	89 4d e0	 mov	 DWORD PTR _this$GSCopy$[ebp], ecx
  00023	89 45 dc	 mov	 DWORD PTR _pImage$GSCopy$[ebp], eax
  00026	c7 45 e8 a4 8f
	84 84		 mov	 DWORD PTR __t$506881[ebp], -2071687260 ; 84848fa4H
  0002d	c7 45 ec af 8d
	88 81		 mov	 DWORD PTR __t$506881[ebp+4], -2121757265 ; 81888dafH
  00034	c7 45 f0 a2 9e
	8a 84		 mov	 DWORD PTR __t$506881[ebp+8], -2071290206 ; 848a9ea2H
  0003b	66 c7 45 f4 8a
	89		 mov	 WORD PTR __t$506881[ebp+12], 35210 ; 0000898aH
  00041	8d 45 e8	 lea	 eax, DWORD PTR __t$506881[ebp]
  00044	88 5d f6	 mov	 BYTE PTR __t$506881[ebp+14], bl
  00047	59		 pop	 ecx
$LL131@AddRenderI:

; 50   : 	if( szType == "IconBackOrange" )

  00048	81 30 ed ec eb
	ea		 xor	 DWORD PTR [eax], -353637139 ; eaebecedH
  0004e	83 c0 04	 add	 eax, 4
  00051	49		 dec	 ecx
  00052	75 f4		 jne	 SHORT $LL131@AddRenderI
  00054	6a 0c		 push	 12			; 0000000cH
  00056	58		 pop	 eax
$LL128@AddRenderI:
  00057	8b c8		 mov	 ecx, eax
  00059	81 e1 03 00 00
	80		 and	 ecx, -2147483645	; 80000003H
  0005f	79 05		 jns	 SHORT $LN602@AddRenderI
  00061	49		 dec	 ecx
  00062	83 c9 fc	 or	 ecx, -4			; fffffffcH
  00065	41		 inc	 ecx
$LN602@AddRenderI:
  00066	b2 ed		 mov	 dl, -19			; ffffffedH
  00068	2a d1		 sub	 dl, cl
  0006a	30 54 05 e8	 xor	 BYTE PTR __t$506881[ebp+eax], dl
  0006e	40		 inc	 eax
  0006f	83 f8 0e	 cmp	 eax, 14			; 0000000eH
  00072	7c e3		 jl	 SHORT $LL128@AddRenderI
  00074	8b 4d e4	 mov	 ecx, DWORD PTR _szType$GSCopy$[ebp]
  00077	8d 75 e8	 lea	 esi, DWORD PTR __t$506881[ebp]
  0007a	ff 15 00 00 00
	00		 call	 DWORD PTR __imp_?c_str@ioHashString@@QBEPBDXZ
  00080	6a 02		 push	 2
  00082	5f		 pop	 edi
$LL582@AddRenderI:
  00083	8a 08		 mov	 cl, BYTE PTR [eax]
  00085	3a 0e		 cmp	 cl, BYTE PTR [esi]
  00087	75 18		 jne	 SHORT $LN583@AddRenderI
  00089	3a cb		 cmp	 cl, bl
  0008b	74 10		 je	 SHORT $LN584@AddRenderI
  0008d	8a 48 01	 mov	 cl, BYTE PTR [eax+1]
  00090	3a 4e 01	 cmp	 cl, BYTE PTR [esi+1]
  00093	75 0c		 jne	 SHORT $LN583@AddRenderI
  00095	03 c7		 add	 eax, edi
  00097	03 f7		 add	 esi, edi
  00099	3a cb		 cmp	 cl, bl
  0009b	75 e6		 jne	 SHORT $LL582@AddRenderI
$LN584@AddRenderI:
  0009d	33 c0		 xor	 eax, eax
  0009f	eb 05		 jmp	 SHORT $LN585@AddRenderI
$LN583@AddRenderI:
  000a1	1b c0		 sbb	 eax, eax
  000a3	83 d8 ff	 sbb	 eax, -1
$LN585@AddRenderI:
  000a6	3b c3		 cmp	 eax, ebx
  000a8	75 28		 jne	 SHORT $LN578@AddRenderI

; 51   : 	{
; 52   : 		SAFEDELETE( m_pIconBackOrange );

  000aa	8b 75 e0	 mov	 esi, DWORD PTR _this$GSCopy$[ebp]
  000ad	8b 8e 90 01 00
	00		 mov	 ecx, DWORD PTR [esi+400]
  000b3	3b cb		 cmp	 ecx, ebx
  000b5	74 0d		 je	 SHORT $LN14@AddRenderI
  000b7	8b 01		 mov	 eax, DWORD PTR [ecx]
  000b9	6a 01		 push	 1
  000bb	ff 50 40	 call	 DWORD PTR [eax+64]
  000be	89 9e 90 01 00
	00		 mov	 DWORD PTR [esi+400], ebx
$LN14@AddRenderI:

; 53   : 		m_pIconBackOrange = pImage;

  000c4	8b 45 dc	 mov	 eax, DWORD PTR _pImage$GSCopy$[ebp]
  000c7	89 86 90 01 00
	00		 mov	 DWORD PTR [esi+400], eax
  000cd	e9 4f 02 00 00	 jmp	 $LN1@AddRenderI
$LN578@AddRenderI:

; 54   : 	}
; 55   : 	else if( szType == "IconBackRed" )

  000d2	c7 45 e8 a4 8f
	84 84		 mov	 DWORD PTR __t$507019[ebp], -2071687260 ; 84848fa4H
  000d9	c7 45 ec af 8d
	88 81		 mov	 DWORD PTR __t$507019[ebp+4], -2121757265 ; 81888dafH
  000e0	8d 45 e8	 lea	 eax, DWORD PTR __t$507019[ebp]
  000e3	c7 45 f0 bf 89
	8f 00		 mov	 DWORD PTR __t$507019[ebp+8], 9406911 ; 008f89bfH
  000ea	8b cf		 mov	 ecx, edi
$LL237@AddRenderI:
  000ec	81 30 ed ec eb
	ea		 xor	 DWORD PTR [eax], -353637139 ; eaebecedH
  000f2	83 c0 04	 add	 eax, 4
  000f5	49		 dec	 ecx
  000f6	75 f4		 jne	 SHORT $LL237@AddRenderI
  000f8	6a 08		 push	 8
  000fa	58		 pop	 eax
$LL234@AddRenderI:
  000fb	8b c8		 mov	 ecx, eax
  000fd	81 e1 03 00 00
	80		 and	 ecx, -2147483645	; 80000003H
  00103	79 05		 jns	 SHORT $LN603@AddRenderI
  00105	49		 dec	 ecx
  00106	83 c9 fc	 or	 ecx, -4			; fffffffcH
  00109	41		 inc	 ecx
$LN603@AddRenderI:
  0010a	b2 ed		 mov	 dl, -19			; ffffffedH
  0010c	2a d1		 sub	 dl, cl
  0010e	30 54 05 e8	 xor	 BYTE PTR __t$507019[ebp+eax], dl
  00112	40		 inc	 eax
  00113	83 f8 0b	 cmp	 eax, 11			; 0000000bH
  00116	7c e3		 jl	 SHORT $LL234@AddRenderI
  00118	8b 4d e4	 mov	 ecx, DWORD PTR _szType$GSCopy$[ebp]
  0011b	8d 75 e8	 lea	 esi, DWORD PTR __t$507019[ebp]
  0011e	ff 15 00 00 00
	00		 call	 DWORD PTR __imp_?c_str@ioHashString@@QBEPBDXZ
$LL586@AddRenderI:
  00124	8a 08		 mov	 cl, BYTE PTR [eax]
  00126	3a 0e		 cmp	 cl, BYTE PTR [esi]
  00128	75 18		 jne	 SHORT $LN587@AddRenderI
  0012a	3a cb		 cmp	 cl, bl
  0012c	74 10		 je	 SHORT $LN588@AddRenderI
  0012e	8a 48 01	 mov	 cl, BYTE PTR [eax+1]
  00131	3a 4e 01	 cmp	 cl, BYTE PTR [esi+1]
  00134	75 0c		 jne	 SHORT $LN587@AddRenderI
  00136	03 c7		 add	 eax, edi
  00138	03 f7		 add	 esi, edi
  0013a	3a cb		 cmp	 cl, bl
  0013c	75 e6		 jne	 SHORT $LL586@AddRenderI
$LN588@AddRenderI:
  0013e	33 c0		 xor	 eax, eax
  00140	eb 05		 jmp	 SHORT $LN589@AddRenderI
$LN587@AddRenderI:
  00142	1b c0		 sbb	 eax, eax
  00144	83 d8 ff	 sbb	 eax, -1
$LN589@AddRenderI:
  00147	3b c3		 cmp	 eax, ebx
  00149	75 28		 jne	 SHORT $LN579@AddRenderI

; 56   : 	{
; 57   : 		SAFEDELETE( m_pIconBackRed );

  0014b	8b 75 e0	 mov	 esi, DWORD PTR _this$GSCopy$[ebp]
  0014e	8b 8e 94 01 00
	00		 mov	 ecx, DWORD PTR [esi+404]
  00154	3b cb		 cmp	 ecx, ebx
  00156	74 0d		 je	 SHORT $LN11@AddRenderI
  00158	8b 01		 mov	 eax, DWORD PTR [ecx]
  0015a	6a 01		 push	 1
  0015c	ff 50 40	 call	 DWORD PTR [eax+64]
  0015f	89 9e 94 01 00
	00		 mov	 DWORD PTR [esi+404], ebx
$LN11@AddRenderI:

; 58   : 		m_pIconBackRed = pImage;

  00165	8b 45 dc	 mov	 eax, DWORD PTR _pImage$GSCopy$[ebp]
  00168	89 86 94 01 00
	00		 mov	 DWORD PTR [esi+404], eax
  0016e	e9 ae 01 00 00	 jmp	 $LN1@AddRenderI
$LN579@AddRenderI:

; 59   : 	}
; 60   : 	else if( szType == "GaugeBack" )

  00173	c7 45 ec aa 8d
	9e 8d		 mov	 DWORD PTR __t$507182[ebp], -1918988886 ; 8d9e8daaH
  0017a	c7 45 f0 88 ae
	8a 89		 mov	 DWORD PTR __t$507182[ebp+4], -1987400056 ; 898aae88H
  00181	8d 45 ec	 lea	 eax, DWORD PTR __t$507182[ebp]
  00184	66 c7 45 f4 86
	00		 mov	 WORD PTR __t$507182[ebp+8], 134 ; 00000086H
  0018a	8b cf		 mov	 ecx, edi
$LL343@AddRenderI:
  0018c	81 30 ed ec eb
	ea		 xor	 DWORD PTR [eax], -353637139 ; eaebecedH
  00192	83 c0 04	 add	 eax, 4
  00195	49		 dec	 ecx
  00196	75 f4		 jne	 SHORT $LL343@AddRenderI
  00198	8b 4d e4	 mov	 ecx, DWORD PTR _szType$GSCopy$[ebp]
  0019b	80 75 f4 ed	 xor	 BYTE PTR __t$507182[ebp+8], -19 ; ffffffedH
  0019f	8d 75 ec	 lea	 esi, DWORD PTR __t$507182[ebp]
  001a2	ff 15 00 00 00
	00		 call	 DWORD PTR __imp_?c_str@ioHashString@@QBEPBDXZ
$LL590@AddRenderI:
  001a8	8a 08		 mov	 cl, BYTE PTR [eax]
  001aa	3a 0e		 cmp	 cl, BYTE PTR [esi]
  001ac	75 18		 jne	 SHORT $LN591@AddRenderI
  001ae	3a cb		 cmp	 cl, bl
  001b0	74 10		 je	 SHORT $LN592@AddRenderI
  001b2	8a 48 01	 mov	 cl, BYTE PTR [eax+1]
  001b5	3a 4e 01	 cmp	 cl, BYTE PTR [esi+1]
  001b8	75 0c		 jne	 SHORT $LN591@AddRenderI
  001ba	03 c7		 add	 eax, edi
  001bc	03 f7		 add	 esi, edi
  001be	3a cb		 cmp	 cl, bl
  001c0	75 e6		 jne	 SHORT $LL590@AddRenderI
$LN592@AddRenderI:
  001c2	33 c0		 xor	 eax, eax
  001c4	eb 05		 jmp	 SHORT $LN593@AddRenderI
$LN591@AddRenderI:
  001c6	1b c0		 sbb	 eax, eax
  001c8	83 d8 ff	 sbb	 eax, -1
$LN593@AddRenderI:
  001cb	3b c3		 cmp	 eax, ebx
  001cd	75 28		 jne	 SHORT $LN580@AddRenderI

; 61   : 	{
; 62   : 		SAFEDELETE( m_pGaugeBack );

  001cf	8b 75 e0	 mov	 esi, DWORD PTR _this$GSCopy$[ebp]
  001d2	8b 8e 98 01 00
	00		 mov	 ecx, DWORD PTR [esi+408]
  001d8	3b cb		 cmp	 ecx, ebx
  001da	74 0d		 je	 SHORT $LN8@AddRenderI
  001dc	8b 01		 mov	 eax, DWORD PTR [ecx]
  001de	6a 01		 push	 1
  001e0	ff 50 40	 call	 DWORD PTR [eax+64]
  001e3	89 9e 98 01 00
	00		 mov	 DWORD PTR [esi+408], ebx
$LN8@AddRenderI:

; 63   : 		m_pGaugeBack = pImage;

  001e9	8b 45 dc	 mov	 eax, DWORD PTR _pImage$GSCopy$[ebp]
  001ec	89 86 98 01 00
	00		 mov	 DWORD PTR [esi+408], eax
  001f2	e9 2a 01 00 00	 jmp	 $LN1@AddRenderI
$LN580@AddRenderI:

; 64   : 	}
; 65   : 	else if( szType == "GaugeOrange" )

  001f7	c7 45 e8 aa 8d
	9e 8d		 mov	 DWORD PTR __t$507269[ebp], -1918988886 ; 8d9e8daaH
  001fe	c7 45 ec 88 a3
	99 8b		 mov	 DWORD PTR __t$507269[ebp+4], -1952865400 ; 8b99a388H
  00205	8d 45 e8	 lea	 eax, DWORD PTR __t$507269[ebp]
  00208	c7 45 f0 83 8b
	8e 00		 mov	 DWORD PTR __t$507269[ebp+8], 9341827 ; 008e8b83H
  0020f	8b cf		 mov	 ecx, edi
$LL449@AddRenderI:
  00211	81 30 ed ec eb
	ea		 xor	 DWORD PTR [eax], -353637139 ; eaebecedH
  00217	83 c0 04	 add	 eax, 4
  0021a	49		 dec	 ecx
  0021b	75 f4		 jne	 SHORT $LL449@AddRenderI
  0021d	6a 08		 push	 8
  0021f	58		 pop	 eax
$LL446@AddRenderI:
  00220	8b c8		 mov	 ecx, eax
  00222	81 e1 03 00 00
	80		 and	 ecx, -2147483645	; 80000003H
  00228	79 05		 jns	 SHORT $LN604@AddRenderI
  0022a	49		 dec	 ecx
  0022b	83 c9 fc	 or	 ecx, -4			; fffffffcH
  0022e	41		 inc	 ecx
$LN604@AddRenderI:
  0022f	b2 ed		 mov	 dl, -19			; ffffffedH
  00231	2a d1		 sub	 dl, cl
  00233	30 54 05 e8	 xor	 BYTE PTR __t$507269[ebp+eax], dl
  00237	40		 inc	 eax
  00238	83 f8 0b	 cmp	 eax, 11			; 0000000bH
  0023b	7c e3		 jl	 SHORT $LL446@AddRenderI
  0023d	8b 4d e4	 mov	 ecx, DWORD PTR _szType$GSCopy$[ebp]
  00240	8d 75 e8	 lea	 esi, DWORD PTR __t$507269[ebp]
  00243	ff 15 00 00 00
	00		 call	 DWORD PTR __imp_?c_str@ioHashString@@QBEPBDXZ
$LL594@AddRenderI:
  00249	8a 08		 mov	 cl, BYTE PTR [eax]
  0024b	3a 0e		 cmp	 cl, BYTE PTR [esi]
  0024d	75 18		 jne	 SHORT $LN595@AddRenderI
  0024f	3a cb		 cmp	 cl, bl
  00251	74 10		 je	 SHORT $LN596@AddRenderI
  00253	8a 48 01	 mov	 cl, BYTE PTR [eax+1]
  00256	3a 4e 01	 cmp	 cl, BYTE PTR [esi+1]
  00259	75 0c		 jne	 SHORT $LN595@AddRenderI
  0025b	03 c7		 add	 eax, edi
  0025d	03 f7		 add	 esi, edi
  0025f	3a cb		 cmp	 cl, bl
  00261	75 e6		 jne	 SHORT $LL594@AddRenderI
$LN596@AddRenderI:
  00263	33 c0		 xor	 eax, eax
  00265	eb 05		 jmp	 SHORT $LN597@AddRenderI
$LN595@AddRenderI:
  00267	1b c0		 sbb	 eax, eax
  00269	83 d8 ff	 sbb	 eax, -1
$LN597@AddRenderI:
  0026c	3b c3		 cmp	 eax, ebx
  0026e	75 28		 jne	 SHORT $LN581@AddRenderI

; 66   : 	{
; 67   : 		SAFEDELETE( m_pGaugeOrange );

  00270	8b 75 e0	 mov	 esi, DWORD PTR _this$GSCopy$[ebp]
  00273	8b 8e 9c 01 00
	00		 mov	 ecx, DWORD PTR [esi+412]
  00279	3b cb		 cmp	 ecx, ebx
  0027b	74 0d		 je	 SHORT $LN5@AddRenderI
  0027d	8b 01		 mov	 eax, DWORD PTR [ecx]
  0027f	6a 01		 push	 1
  00281	ff 50 40	 call	 DWORD PTR [eax+64]
  00284	89 9e 9c 01 00
	00		 mov	 DWORD PTR [esi+412], ebx
$LN5@AddRenderI:

; 68   : 		m_pGaugeOrange = pImage;

  0028a	8b 45 dc	 mov	 eax, DWORD PTR _pImage$GSCopy$[ebp]
  0028d	89 86 9c 01 00
	00		 mov	 DWORD PTR [esi+412], eax
  00293	e9 89 00 00 00	 jmp	 $LN1@AddRenderI
$LN581@AddRenderI:

; 69   : 	}
; 70   : 	else if( szType == "GaugeRed" )

  00298	c7 45 ec aa 8d
	9e 8d		 mov	 DWORD PTR __t$507381[ebp], -1918988886 ; 8d9e8daaH
  0029f	c7 45 f0 88 be
	8e 8e		 mov	 DWORD PTR __t$507381[ebp+4], -1903247736 ; 8e8ebe88H
  002a6	8d 45 ec	 lea	 eax, DWORD PTR __t$507381[ebp]
  002a9	88 5d f4	 mov	 BYTE PTR __t$507381[ebp+8], bl
  002ac	8b cf		 mov	 ecx, edi
$LL555@AddRenderI:
  002ae	81 30 ed ec eb
	ea		 xor	 DWORD PTR [eax], -353637139 ; eaebecedH
  002b4	83 c0 04	 add	 eax, 4
  002b7	49		 dec	 ecx
  002b8	75 f4		 jne	 SHORT $LL555@AddRenderI
  002ba	8b 4d e4	 mov	 ecx, DWORD PTR _szType$GSCopy$[ebp]
  002bd	8d 75 ec	 lea	 esi, DWORD PTR __t$507381[ebp]
  002c0	ff 15 00 00 00
	00		 call	 DWORD PTR __imp_?c_str@ioHashString@@QBEPBDXZ
$LL598@AddRenderI:
  002c6	8a 08		 mov	 cl, BYTE PTR [eax]
  002c8	3a 0e		 cmp	 cl, BYTE PTR [esi]
  002ca	75 18		 jne	 SHORT $LN599@AddRenderI
  002cc	3a cb		 cmp	 cl, bl
  002ce	74 10		 je	 SHORT $LN600@AddRenderI
  002d0	8a 48 01	 mov	 cl, BYTE PTR [eax+1]
  002d3	3a 4e 01	 cmp	 cl, BYTE PTR [esi+1]
  002d6	75 0c		 jne	 SHORT $LN599@AddRenderI
  002d8	03 c7		 add	 eax, edi
  002da	03 f7		 add	 esi, edi
  002dc	3a cb		 cmp	 cl, bl
  002de	75 e6		 jne	 SHORT $LL598@AddRenderI
$LN600@AddRenderI:
  002e0	33 c0		 xor	 eax, eax
  002e2	eb 05		 jmp	 SHORT $LN601@AddRenderI
$LN599@AddRenderI:
  002e4	1b c0		 sbb	 eax, eax
  002e6	83 d8 ff	 sbb	 eax, -1
$LN601@AddRenderI:
  002e9	3b c3		 cmp	 eax, ebx
  002eb	75 25		 jne	 SHORT $LN3@AddRenderI

; 71   : 	{
; 72   : 		SAFEDELETE( m_pGaugeRed );

  002ed	8b 75 e0	 mov	 esi, DWORD PTR _this$GSCopy$[ebp]
  002f0	8b 8e a0 01 00
	00		 mov	 ecx, DWORD PTR [esi+416]
  002f6	3b cb		 cmp	 ecx, ebx
  002f8	74 0d		 je	 SHORT $LN2@AddRenderI
  002fa	8b 01		 mov	 eax, DWORD PTR [ecx]
  002fc	6a 01		 push	 1
  002fe	ff 50 40	 call	 DWORD PTR [eax+64]
  00301	89 9e a0 01 00
	00		 mov	 DWORD PTR [esi+416], ebx
$LN2@AddRenderI:

; 73   : 		m_pGaugeRed = pImage;

  00307	8b 45 dc	 mov	 eax, DWORD PTR _pImage$GSCopy$[ebp]
  0030a	89 86 a0 01 00
	00		 mov	 DWORD PTR [esi+416], eax

; 74   : 	}
; 75   : 	else

  00310	eb 0f		 jmp	 SHORT $LN1@AddRenderI
$LN3@AddRenderI:

; 76   : 		ioWnd::AddRenderImage( szType, pImage );

  00312	ff 75 dc	 push	 DWORD PTR _pImage$GSCopy$[ebp]
  00315	8b 4d e0	 mov	 ecx, DWORD PTR _this$GSCopy$[ebp]
  00318	ff 75 e4	 push	 DWORD PTR _szType$GSCopy$[ebp]
  0031b	ff 15 00 00 00
	00		 call	 DWORD PTR __imp_?AddRenderImage@ioWnd@@UAEXABVioHashString@@PAVioUIRenderImage@@@Z
$LN1@AddRenderI:

; 77   : }

  00321	8b 4d fc	 mov	 ecx, DWORD PTR __$ArrayPad$[ebp]
  00324	5f		 pop	 edi
  00325	5e		 pop	 esi
  00326	33 cd		 xor	 ecx, ebp
  00328	5b		 pop	 ebx
  00329	e8 00 00 00 00	 call	 @__security_check_cookie@4
  0032e	c9		 leave
  0032f	c2 08 00	 ret	 8
?AddRenderImage@BossMonsterGaugeWnd@@UAEXABVioHashString@@PAVioUIRenderImage@@@Z ENDP ; BossMonsterGaugeWnd::AddRenderImage
_TEXT	ENDS
PUBLIC	?UpdateAniState@BossMonsterGaugeWnd@@IAEXXZ	; BossMonsterGaugeWnd::UpdateAniState
; Function compile flags: /Ogsp
;	COMDAT ?UpdateAniState@BossMonsterGaugeWnd@@IAEXXZ
_TEXT	SEGMENT
?UpdateAniState@BossMonsterGaugeWnd@@IAEXXZ PROC	; BossMonsterGaugeWnd::UpdateAniState, COMDAT
; _this$ = ecx

; 324  : {

  00000	56		 push	 esi
  00001	8b f1		 mov	 esi, ecx

; 325  : 	if( UpdateShowAni() )

  00003	e8 00 00 00 00	 call	 ?UpdateShowAni@BossMonsterGaugeWnd@@IAE_NXZ ; BossMonsterGaugeWnd::UpdateShowAni
  00008	84 c0		 test	 al, al
  0000a	75 56		 jne	 SHORT $LN1@UpdateAniS

; 326  : 		return;
; 327  : 
; 328  : 	UpdateDefaultPos();

  0000c	8b ce		 mov	 ecx, esi
  0000e	e8 00 00 00 00	 call	 ?UpdateDefaultPos@BossMonsterGaugeWnd@@IAEXXZ ; BossMonsterGaugeWnd::UpdateDefaultPos

; 329  : 
; 330  : 	// blind ani
; 331  : 	if( m_iBlindOffSetY != m_iPreBlindOffSetY )

  00013	8b 86 d0 01 00
	00		 mov	 eax, DWORD PTR [esi+464]
  00019	3b 86 d4 01 00
	00		 cmp	 eax, DWORD PTR [esi+468]
  0001f	74 41		 je	 SHORT $LN1@UpdateAniS

; 332  : 	{
; 333  : 		int iCurYPos = m_iDefaultY + m_iBlindOffSetY;

  00021	57		 push	 edi
  00022	8b be dc 01 00
	00		 mov	 edi, DWORD PTR [esi+476]
  00028	03 f8		 add	 edi, eax

; 334  : 		if( !COMPARE( iCurYPos, 0, ( Setting::Height() - GetHeight() ) + 1) )

  0002a	78 35		 js	 SHORT $LN7@UpdateAniS
  0002c	53		 push	 ebx
  0002d	8b ce		 mov	 ecx, esi
  0002f	ff 15 00 00 00
	00		 call	 DWORD PTR __imp_?GetHeight@ioWnd@@QBEHXZ
  00035	33 db		 xor	 ebx, ebx
  00037	43		 inc	 ebx
  00038	2b d8		 sub	 ebx, eax
  0003a	e8 00 00 00 00	 call	 ?Height@Setting@@SAHXZ	; Setting::Height
  0003f	03 c3		 add	 eax, ebx
  00041	5b		 pop	 ebx
  00042	3b f8		 cmp	 edi, eax
  00044	7d 1b		 jge	 SHORT $LN7@UpdateAniS

; 335  : 			return;
; 336  : 		SetWndPos( m_iDefaultX, iCurYPos );

  00046	57		 push	 edi
  00047	ff b6 d8 01 00
	00		 push	 DWORD PTR [esi+472]
  0004d	8b ce		 mov	 ecx, esi
  0004f	ff 15 00 00 00
	00		 call	 DWORD PTR __imp_?SetWndPos@ioWnd@@QAEXHH@Z

; 337  : 		m_iPreBlindOffSetY = m_iBlindOffSetY;	

  00055	8b 86 d0 01 00
	00		 mov	 eax, DWORD PTR [esi+464]
  0005b	89 86 d4 01 00
	00		 mov	 DWORD PTR [esi+468], eax
$LN7@UpdateAniS:
  00061	5f		 pop	 edi
$LN1@UpdateAniS:
  00062	5e		 pop	 esi

; 338  : 	}
; 339  : }

  00063	c3		 ret	 0
?UpdateAniState@BossMonsterGaugeWnd@@IAEXXZ ENDP	; BossMonsterGaugeWnd::UpdateAniState
_TEXT	ENDS
EXTRN	__imp_?OnProcess@ioWnd@@MAEXM@Z:PROC
EXTRN	__imp_?IsShow@ioWnd@@QBE_NXZ:PROC
; Function compile flags: /Ogsp
;	COMDAT ?OnProcess@BossMonsterGaugeWnd@@MAEXM@Z
_TEXT	SEGMENT
_fTimePerSec$ = 8					; size = 4
?OnProcess@BossMonsterGaugeWnd@@MAEXM@Z PROC		; BossMonsterGaugeWnd::OnProcess, COMDAT
; _this$ = ecx

; 199  : {

  00000	55		 push	 ebp
  00001	8b ec		 mov	 ebp, esp
  00003	56		 push	 esi
  00004	8b f1		 mov	 esi, ecx

; 200  : 	if( !IsShow() ) return ;

  00006	ff 15 00 00 00
	00		 call	 DWORD PTR __imp_?IsShow@ioWnd@@QBE_NXZ
  0000c	84 c0		 test	 al, al
  0000e	74 21		 je	 SHORT $LN2@OnProcess

; 201  : 
; 202  : 	UpdateAniState();

  00010	8b ce		 mov	 ecx, esi
  00012	e8 00 00 00 00	 call	 ?UpdateAniState@BossMonsterGaugeWnd@@IAEXXZ ; BossMonsterGaugeWnd::UpdateAniState

; 203  : 	UpdateGaugeAni();

  00017	8b ce		 mov	 ecx, esi
  00019	e8 00 00 00 00	 call	 ?UpdateGaugeAni@BossMonsterGaugeWnd@@IAEXXZ ; BossMonsterGaugeWnd::UpdateGaugeAni

; 204  : 	ioMovingWnd::OnProcess( fTimePerSec );

  0001e	f3 0f 10 45 08	 movss	 xmm0, DWORD PTR _fTimePerSec$[ebp]
  00023	51		 push	 ecx
  00024	8b ce		 mov	 ecx, esi
  00026	f3 0f 11 04 24	 movss	 DWORD PTR [esp], xmm0
  0002b	ff 15 00 00 00
	00		 call	 DWORD PTR __imp_?OnProcess@ioWnd@@MAEXM@Z
$LN2@OnProcess:
  00031	5e		 pop	 esi

; 205  : }

  00032	5d		 pop	 ebp
  00033	c2 04 00	 ret	 4
?OnProcess@BossMonsterGaugeWnd@@MAEXM@Z ENDP		; BossMonsterGaugeWnd::OnProcess
_TEXT	ENDS
END
