; Listing generated by Microsoft (R) Optimizing Compiler Version 16.00.30319.01 

	TITLE	D:\Lost Saga For Developer\Youtube\Tutorial\Source\src\LSClient\boxgraph.cpp
	.686P
	.XMM
	include listing.inc
	.model	flat

INCLUDELIB MSVCRT
INCLUDELIB OLDNAMES

PUBLIC	__real@3ff69fbe80000000
EXTRN	__fltused:DWORD
;	COMDAT __real@3ff69fbe80000000
; File d:\lost saga for developer\youtube\tutorial\source\src\lsclient\boxgraph.cpp
CONST	SEGMENT
__real@3ff69fbe80000000 DQ 03ff69fbe80000000r	; 1.414
; Function compile flags: /Ogsp
CONST	ENDS
;	COMDAT ?getDist@@YAMABUD3DXVECTOR3@@ABUBox@BoxSpace@@M@Z
_TEXT	SEGMENT
_heightFactor$ = 8					; size = 4
?getDist@@YAMABUD3DXVECTOR3@@ABUBox@BoxSpace@@M@Z PROC	; getDist, COMDAT
; _pos$ = ecx
; _box$ = eax

; 24   : {

  00000	55		 push	 ebp
  00001	8b ec		 mov	 ebp, esp

; 25   : 	float dx = 0, dy = 0, dz = 0;
; 26   : 
; 27   : 	if ( pos.x < box.posMin.x )

  00003	f3 0f 10 09	 movss	 xmm1, DWORD PTR [ecx]
  00007	f3 0f 10 50 1c	 movss	 xmm2, DWORD PTR [eax+28]
  0000c	0f 57 c0	 xorps	 xmm0, xmm0
  0000f	0f 5a e9	 cvtps2pd xmm5, xmm1
  00012	0f 5a f2	 cvtps2pd xmm6, xmm2
  00015	66 0f 2f f5	 comisd	 xmm6, xmm5
  00019	0f 28 e0	 movaps	 xmm4, xmm0
  0001c	0f 28 d8	 movaps	 xmm3, xmm0
  0001f	76 13		 jbe	 SHORT $LN11@getDist

; 28   : 		dx = box.posMin.x - pos.x;

  00021	0f 5a d2	 cvtps2pd xmm2, xmm2
  00024	0f 5a c9	 cvtps2pd xmm1, xmm1
  00027	f2 0f 5c d1	 subsd	 xmm2, xmm1
  0002b	0f 57 e4	 xorps	 xmm4, xmm4
  0002e	66 0f 5a e2	 cvtpd2ps xmm4, xmm2
  00032	eb 22		 jmp	 SHORT $LN9@getDist
$LN11@getDist:

; 29   : 	else if ( box.posMax.x < pos.x )

  00034	f3 0f 10 50 28	 movss	 xmm2, DWORD PTR [eax+40]
  00039	0f 5a ea	 cvtps2pd xmm5, xmm2
  0003c	0f 5a f1	 cvtps2pd xmm6, xmm1
  0003f	66 0f 2f f5	 comisd	 xmm6, xmm5
  00043	76 11		 jbe	 SHORT $LN9@getDist

; 30   : 		dx = pos.x - box.posMax.x;

  00045	0f 5a c9	 cvtps2pd xmm1, xmm1
  00048	0f 5a d2	 cvtps2pd xmm2, xmm2
  0004b	f2 0f 5c ca	 subsd	 xmm1, xmm2
  0004f	0f 57 e4	 xorps	 xmm4, xmm4
  00052	66 0f 5a e1	 cvtpd2ps xmm4, xmm1
$LN9@getDist:

; 31   : 
; 32   : 	if ( pos.y < box.posMin.y )

  00056	f3 0f 10 49 04	 movss	 xmm1, DWORD PTR [ecx+4]
  0005b	f3 0f 10 50 20	 movss	 xmm2, DWORD PTR [eax+32]
  00060	0f 5a e9	 cvtps2pd xmm5, xmm1
  00063	0f 5a f2	 cvtps2pd xmm6, xmm2
  00066	66 0f 2f f5	 comisd	 xmm6, xmm5
  0006a	76 13		 jbe	 SHORT $LN8@getDist

; 33   : 		dy = box.posMin.y - pos.y;

  0006c	0f 5a d2	 cvtps2pd xmm2, xmm2
  0006f	0f 5a c9	 cvtps2pd xmm1, xmm1
  00072	f2 0f 5c d1	 subsd	 xmm2, xmm1
  00076	0f 57 db	 xorps	 xmm3, xmm3
  00079	66 0f 5a da	 cvtpd2ps xmm3, xmm2
  0007d	eb 22		 jmp	 SHORT $LN6@getDist
$LN8@getDist:

; 34   : 	else if ( box.posMax.y < pos.y )

  0007f	f3 0f 10 50 2c	 movss	 xmm2, DWORD PTR [eax+44]
  00084	0f 5a ea	 cvtps2pd xmm5, xmm2
  00087	0f 5a f1	 cvtps2pd xmm6, xmm1
  0008a	66 0f 2f f5	 comisd	 xmm6, xmm5
  0008e	76 11		 jbe	 SHORT $LN6@getDist

; 35   : 		dy = pos.y - box.posMax.y;

  00090	0f 5a c9	 cvtps2pd xmm1, xmm1
  00093	0f 5a d2	 cvtps2pd xmm2, xmm2
  00096	f2 0f 5c ca	 subsd	 xmm1, xmm2
  0009a	0f 57 db	 xorps	 xmm3, xmm3
  0009d	66 0f 5a d9	 cvtpd2ps xmm3, xmm1
$LN6@getDist:

; 36   : 
; 37   : 	if ( pos.z < box.posMin.z )

  000a1	f3 0f 10 49 08	 movss	 xmm1, DWORD PTR [ecx+8]
  000a6	f3 0f 10 50 24	 movss	 xmm2, DWORD PTR [eax+36]
  000ab	0f 5a e9	 cvtps2pd xmm5, xmm1
  000ae	0f 5a f2	 cvtps2pd xmm6, xmm2
  000b1	66 0f 2f f5	 comisd	 xmm6, xmm5
  000b5	76 08		 jbe	 SHORT $LN5@getDist

; 38   : 		dz = box.posMin.z - pos.z;

  000b7	0f 5a c2	 cvtps2pd xmm0, xmm2
  000ba	0f 5a c9	 cvtps2pd xmm1, xmm1
  000bd	eb 17		 jmp	 SHORT $LN14@getDist
$LN5@getDist:

; 39   : 	else if ( box.posMax.z < pos.z )

  000bf	f3 0f 10 50 30	 movss	 xmm2, DWORD PTR [eax+48]
  000c4	0f 5a ea	 cvtps2pd xmm5, xmm2
  000c7	0f 5a f1	 cvtps2pd xmm6, xmm1
  000ca	66 0f 2f f5	 comisd	 xmm6, xmm5
  000ce	76 0e		 jbe	 SHORT $LN3@getDist

; 40   : 		dz = pos.z - box.posMax.z;

  000d0	0f 5a c1	 cvtps2pd xmm0, xmm1
  000d3	0f 5a ca	 cvtps2pd xmm1, xmm2
$LN14@getDist:
  000d6	f2 0f 5c c1	 subsd	 xmm0, xmm1
  000da	66 0f 5a c0	 cvtpd2ps xmm0, xmm0
$LN3@getDist:

; 41   : 
; 42   : 	if ( dx > dy )

  000de	0f 57 c9	 xorps	 xmm1, xmm1
  000e1	0f 57 d2	 xorps	 xmm2, xmm2
  000e4	f3 0f 5a cc	 cvtss2sd xmm1, xmm4
  000e8	f3 0f 5a d3	 cvtss2sd xmm2, xmm3
  000ec	66 0f 2f ca	 comisd	 xmm1, xmm2

; 43   : 		return dy * 1.414f + (dx-dy) + dz * heightFactor;

  000f0	f3 0f 5a c0	 cvtss2sd xmm0, xmm0
  000f4	0f 57 c9	 xorps	 xmm1, xmm1
  000f7	0f 57 d2	 xorps	 xmm2, xmm2
  000fa	76 15		 jbe	 SHORT $LN2@getDist
  000fc	f3 0f 5a d3	 cvtss2sd xmm2, xmm3
  00100	f3 0f 5a cc	 cvtss2sd xmm1, xmm4
  00104	f2 0f 5c ca	 subsd	 xmm1, xmm2
  00108	0f 57 d2	 xorps	 xmm2, xmm2
  0010b	f3 0f 5a d3	 cvtss2sd xmm2, xmm3
  0010f	eb 13		 jmp	 SHORT $LN15@getDist
$LN2@getDist:

; 44   : 	else
; 45   : 		return dx * 1.414f + (dy-dx) + dz * heightFactor;

  00111	f3 0f 5a d4	 cvtss2sd xmm2, xmm4
  00115	f3 0f 5a cb	 cvtss2sd xmm1, xmm3
  00119	f2 0f 5c ca	 subsd	 xmm1, xmm2
  0011d	0f 57 d2	 xorps	 xmm2, xmm2
  00120	f3 0f 5a d4	 cvtss2sd xmm2, xmm4
$LN15@getDist:
  00124	f2 0f 59 15 00
	00 00 00	 mulsd	 xmm2, QWORD PTR __real@3ff69fbe80000000
  0012c	f2 0f 58 ca	 addsd	 xmm1, xmm2
  00130	f3 0f 10 55 08	 movss	 xmm2, DWORD PTR _heightFactor$[ebp]
  00135	0f 5a d2	 cvtps2pd xmm2, xmm2
  00138	f2 0f 59 c2	 mulsd	 xmm0, xmm2
  0013c	f2 0f 58 c8	 addsd	 xmm1, xmm0
  00140	66 0f 5a c1	 cvtpd2ps xmm0, xmm1

; 46   : }

  00144	5d		 pop	 ebp
  00145	c3		 ret	 0
?getDist@@YAMABUD3DXVECTOR3@@ABUBox@BoxSpace@@M@Z ENDP	; getDist
_TEXT	ENDS
PUBLIC	?return1@@YAIXZ					; return1
; Function compile flags: /Ogsp
; File d:\lost saga for developer\youtube\tutorial\source\src\lsclient\stdafx.h
;	COMDAT ?return1@@YAIXZ
_TEXT	SEGMENT
?return1@@YAIXZ PROC					; return1, COMDAT

; 17   : 	__forceinline unsigned int return1() { __asm mov eax, 1 };

  00000	b8 01 00 00 00	 mov	 eax, 1
  00005	c3		 ret	 0
?return1@@YAIXZ ENDP					; return1
_TEXT	ENDS
PUBLIC	?return5@@YAIXZ					; return5
; Function compile flags: /Ogsp
;	COMDAT ?return5@@YAIXZ
_TEXT	SEGMENT
?return5@@YAIXZ PROC					; return5, COMDAT

; 18   : 	__forceinline unsigned int return5() { __asm mov eax, 5 };

  00000	b8 05 00 00 00	 mov	 eax, 5
  00005	c3		 ret	 0
?return5@@YAIXZ ENDP					; return5
_TEXT	ENDS
PUBLIC	?return10@@YAIXZ				; return10
; Function compile flags: /Ogsp
;	COMDAT ?return10@@YAIXZ
_TEXT	SEGMENT
?return10@@YAIXZ PROC					; return10, COMDAT

; 21   : 	__forceinline unsigned int return10() { __asm mov eax, 10 };

  00000	b8 0a 00 00 00	 mov	 eax, 10			; 0000000aH
  00005	c3		 ret	 0
?return10@@YAIXZ ENDP					; return10
; Function compile flags: /Ogsp
; File d:\lost saga for developer\youtube\tutorial\source\src\lsclient\boxgraph.cpp
_TEXT	ENDS
;	COMDAT ?max2@@YAMMM@Z
_TEXT	SEGMENT
_b$ = 8							; size = 4
?max2@@YAMMM@Z PROC					; max2, COMDAT
; _a$ = xmm0s

; 49   : { 

  00000	55		 push	 ebp
  00001	8b ec		 mov	 ebp, esp

; 50   : 	return a > b ? a : b; 

  00003	f3 0f 10 55 08	 movss	 xmm2, DWORD PTR _b$[ebp]
  00008	0f 57 c9	 xorps	 xmm1, xmm1
  0000b	f3 0f 5a c8	 cvtss2sd xmm1, xmm0
  0000f	0f 5a d2	 cvtps2pd xmm2, xmm2
  00012	66 0f 2f ca	 comisd	 xmm1, xmm2
  00016	77 05		 ja	 SHORT $LN4@max2
  00018	f3 0f 10 45 08	 movss	 xmm0, DWORD PTR _b$[ebp]
$LN4@max2:

; 51   : }

  0001d	5d		 pop	 ebp
  0001e	c3		 ret	 0
?max2@@YAMMM@Z ENDP					; max2
; Function compile flags: /Ogsp
_TEXT	ENDS
;	COMDAT ?min2@@YAMMM@Z
_TEXT	SEGMENT
_b$ = 8							; size = 4
?min2@@YAMMM@Z PROC					; min2, COMDAT
; _a$ = xmm0s

; 54   : { 

  00000	55		 push	 ebp
  00001	8b ec		 mov	 ebp, esp

; 55   : 	return a < b ? a : b; 

  00003	f3 0f 10 55 08	 movss	 xmm2, DWORD PTR _b$[ebp]
  00008	0f 57 c9	 xorps	 xmm1, xmm1
  0000b	f3 0f 5a c8	 cvtss2sd xmm1, xmm0
  0000f	0f 5a d2	 cvtps2pd xmm2, xmm2
  00012	66 0f 2f d1	 comisd	 xmm2, xmm1
  00016	77 05		 ja	 SHORT $LN4@min2
  00018	f3 0f 10 45 08	 movss	 xmm0, DWORD PTR _b$[ebp]
$LN4@min2:

; 56   : }

  0001d	5d		 pop	 ebp
  0001e	c3		 ret	 0
?min2@@YAMMM@Z ENDP					; min2
; Function compile flags: /Ogsp
_TEXT	ENDS
;	COMDAT ?insideBox@@YA_NABUD3DXVECTOR3@@00@Z
_TEXT	SEGMENT
_pos$ = 8						; size = 4
?insideBox@@YA_NABUD3DXVECTOR3@@00@Z PROC		; insideBox, COMDAT
; _boxMin$ = eax
; _boxMax$ = edx

; 59   : {

  00000	55		 push	 ebp
  00001	8b ec		 mov	 ebp, esp
  00003	8b 4d 08	 mov	 ecx, DWORD PTR _pos$[ebp]

; 60   : 	if ( pos.x < boxMin.x || pos.x > boxMax.x ) 

  00006	f3 0f 10 01	 movss	 xmm0, DWORD PTR [ecx]
  0000a	f3 0f 10 10	 movss	 xmm2, DWORD PTR [eax]
  0000e	0f 57 c9	 xorps	 xmm1, xmm1
  00011	0f 5a c8	 cvtps2pd xmm1, xmm0
  00014	0f 5a d2	 cvtps2pd xmm2, xmm2
  00017	66 0f 2f d1	 comisd	 xmm2, xmm1
  0001b	77 68		 ja	 SHORT $LN5@insideBox
  0001d	f3 0f 10 0a	 movss	 xmm1, DWORD PTR [edx]
  00021	0f 5a c0	 cvtps2pd xmm0, xmm0
  00024	0f 5a c9	 cvtps2pd xmm1, xmm1
  00027	66 0f 2f c1	 comisd	 xmm0, xmm1
  0002b	77 58		 ja	 SHORT $LN5@insideBox

; 62   : 	if ( pos.y < boxMin.y || pos.y > boxMax.y ) 

  0002d	f3 0f 10 41 04	 movss	 xmm0, DWORD PTR [ecx+4]
  00032	f3 0f 10 50 04	 movss	 xmm2, DWORD PTR [eax+4]
  00037	0f 57 c9	 xorps	 xmm1, xmm1
  0003a	0f 5a c8	 cvtps2pd xmm1, xmm0
  0003d	0f 5a d2	 cvtps2pd xmm2, xmm2
  00040	66 0f 2f d1	 comisd	 xmm2, xmm1
  00044	77 3f		 ja	 SHORT $LN5@insideBox
  00046	f3 0f 10 4a 04	 movss	 xmm1, DWORD PTR [edx+4]
  0004b	0f 5a c0	 cvtps2pd xmm0, xmm0
  0004e	0f 5a c9	 cvtps2pd xmm1, xmm1
  00051	66 0f 2f c1	 comisd	 xmm0, xmm1
  00055	77 2e		 ja	 SHORT $LN5@insideBox

; 63   : 		return false;
; 64   : 	if ( pos.z < boxMin.z || pos.z > boxMax.z ) 

  00057	f3 0f 10 41 08	 movss	 xmm0, DWORD PTR [ecx+8]
  0005c	f3 0f 10 50 08	 movss	 xmm2, DWORD PTR [eax+8]
  00061	0f 57 c9	 xorps	 xmm1, xmm1
  00064	0f 5a c8	 cvtps2pd xmm1, xmm0
  00067	0f 5a d2	 cvtps2pd xmm2, xmm2
  0006a	66 0f 2f d1	 comisd	 xmm2, xmm1
  0006e	77 15		 ja	 SHORT $LN5@insideBox
  00070	f3 0f 10 4a 08	 movss	 xmm1, DWORD PTR [edx+8]
  00075	0f 5a c0	 cvtps2pd xmm0, xmm0
  00078	0f 5a c9	 cvtps2pd xmm1, xmm1
  0007b	66 0f 2f c1	 comisd	 xmm0, xmm1
  0007f	77 04		 ja	 SHORT $LN5@insideBox

; 65   : 		return false;
; 66   : 
; 67   : 	return true;

  00081	b0 01		 mov	 al, 1

; 68   : }

  00083	5d		 pop	 ebp
  00084	c3		 ret	 0
$LN5@insideBox:

; 61   : 		return false;

  00085	32 c0		 xor	 al, al

; 68   : }

  00087	5d		 pop	 ebp
  00088	c3		 ret	 0
?insideBox@@YA_NABUD3DXVECTOR3@@00@Z ENDP		; insideBox
_TEXT	ENDS
PUBLIC	__real@4f800000
PUBLIC	??_C@_0BF@BCJDDBOF@boxgraph?5invalid?5dir?$AA@	; `string'
EXTRN	__imp_?PrintTimeAndLog@CLog@@QAAXHPADZZ:PROC
EXTRN	__imp_?LOG@@3VCLog@@A:BYTE
;	COMDAT __real@4f800000
; File d:\lost saga for developer\youtube\tutorial\source\src\lsclient\stdafx.h
CONST	SEGMENT
__real@4f800000 DD 04f800000r			; 4.29497e+009
CONST	ENDS
;	COMDAT ??_C@_0BF@BCJDDBOF@boxgraph?5invalid?5dir?$AA@
CONST	SEGMENT
??_C@_0BF@BCJDDBOF@boxgraph?5invalid?5dir?$AA@ DB 'boxgraph invalid dir', 00H ; `string'
; Function compile flags: /Ogsp
; File d:\lost saga for developer\youtube\tutorial\source\src\lsclient\boxgraph.cpp
CONST	ENDS
;	COMDAT ?calcTransferPoints@@YAXABUBox@BoxSpace@@0DAAUD3DXVECTOR3@@1@Z
_TEXT	SEGMENT
tv1175 = -8						; size = 4
tv1171 = -8						; size = 4
tv1167 = -8						; size = 4
tv1143 = -8						; size = 4
tv1139 = -8						; size = 4
tv1135 = -8						; size = 4
tv1111 = -8						; size = 4
tv1107 = -8						; size = 4
tv1102 = -8						; size = 4
tv1076 = -8						; size = 4
tv1072 = -8						; size = 4
tv1068 = -8						; size = 4
tv1040 = -8						; size = 4
tv1036 = -8						; size = 4
tv1032 = -8						; size = 4
tv1004 = -8						; size = 4
tv1000 = -8						; size = 4
tv996 = -8						; size = 4
tv807 = -4						; size = 4
tv803 = -4						; size = 4
tv799 = -4						; size = 4
tv795 = -4						; size = 4
tv791 = -4						; size = 4
tv787 = -4						; size = 4
tv881 = 8						; size = 4
tv874 = 8						; size = 4
tv558 = 8						; size = 4
_outPosFrom$ = 8					; size = 4
tv1152 = 12						; size = 4
tv1128 = 12						; size = 4
tv1104 = 12						; size = 4
tv1077 = 12						; size = 4
tv1054 = 12						; size = 4
tv1028 = 12						; size = 4
tv981 = 12						; size = 4
tv975 = 12						; size = 4
tv970 = 12						; size = 4
tv809 = 12						; size = 4
tv805 = 12						; size = 4
tv801 = 12						; size = 4
tv797 = 12						; size = 4
tv793 = 12						; size = 4
tv789 = 12						; size = 4
_outPosTo$ = 12						; size = 4
?calcTransferPoints@@YAXABUBox@BoxSpace@@0DAAUD3DXVECTOR3@@1@Z PROC ; calcTransferPoints, COMDAT
; _boxFrom$ = edi
; _boxTo$ = esi
; _dir$ = eax

; 103  : {

  00000	55		 push	 ebp
  00001	8b ec		 mov	 ebp, esp
  00003	51		 push	 ecx
  00004	51		 push	 ecx

; 104  : 	if ( boxTo.posMax.x < boxFrom.posMin.x || boxFrom.posMax.x < boxTo.posMin.x ) {

  00005	f3 0f 10 46 28	 movss	 xmm0, DWORD PTR [esi+40]
  0000a	f3 0f 10 4f 1c	 movss	 xmm1, DWORD PTR [edi+28]
  0000f	0f 57 d2	 xorps	 xmm2, xmm2
  00012	0f 57 db	 xorps	 xmm3, xmm3
  00015	0f 5a d0	 cvtps2pd xmm2, xmm0
  00018	0f 5a d9	 cvtps2pd xmm3, xmm1
  0001b	66 0f 2f da	 comisd	 xmm3, xmm2
  0001f	53		 push	 ebx
  00020	8b 5d 0c	 mov	 ebx, DWORD PTR _outPosTo$[ebp]
  00023	0f 87 db 03 00
	00		 ja	 $LN17@calcTransf
  00029	f3 0f 10 57 28	 movss	 xmm2, DWORD PTR [edi+40]
  0002e	f3 0f 10 5e 1c	 movss	 xmm3, DWORD PTR [esi+28]
  00033	0f 5a d2	 cvtps2pd xmm2, xmm2
  00036	0f 5a db	 cvtps2pd xmm3, xmm3
  00039	66 0f 2f da	 comisd	 xmm3, xmm2
  0003d	0f 87 c1 03 00
	00		 ja	 $LN17@calcTransf

; 112  : 
; 113  : 	} else if ( boxTo.posMax.y < boxFrom.posMin.y || boxFrom.posMax.y < boxTo.posMin.y ) {

  00043	f3 0f 10 5e 2c	 movss	 xmm3, DWORD PTR [esi+44]
  00048	f3 0f 10 47 20	 movss	 xmm0, DWORD PTR [edi+32]
  0004d	0f 57 d2	 xorps	 xmm2, xmm2
  00050	0f 5a d3	 cvtps2pd xmm2, xmm3
  00053	0f 5a e0	 cvtps2pd xmm4, xmm0
  00056	66 0f 2f e2	 comisd	 xmm4, xmm2
  0005a	0f 87 e7 02 00
	00		 ja	 $LN12@calcTransf
  00060	f3 0f 10 57 2c	 movss	 xmm2, DWORD PTR [edi+44]
  00065	f3 0f 10 6e 20	 movss	 xmm5, DWORD PTR [esi+32]
  0006a	0f 5a e2	 cvtps2pd xmm4, xmm2
  0006d	0f 5a ed	 cvtps2pd xmm5, xmm5
  00070	66 0f 2f ec	 comisd	 xmm5, xmm4
  00074	0f 87 cd 02 00
	00		 ja	 $LN12@calcTransf

; 121  : 
; 122  : 	} else if ( boxTo.posMax.z < boxFrom.posMin.y ) {

  0007a	f3 0f 10 5e 30	 movss	 xmm3, DWORD PTR [esi+48]
  0007f	0f 5a db	 cvtps2pd xmm3, xmm3
  00082	0f 5a e0	 cvtps2pd xmm4, xmm0
  00085	66 0f 2f e3	 comisd	 xmm4, xmm3
  00089	0f 86 29 04 00
	00		 jbe	 $LN101@calcTransf

; 123  : 
; 124  : 		// vertical fall
; 125  : 
; 126  : 		switch ( dir ) {

  0008f	0f be c0	 movsx	 eax, al
  00092	83 e8 58	 sub	 eax, 88			; 00000058H
  00095	0f 84 0b 02 00
	00		 je	 $LN4@calcTransf
  0009b	48		 dec	 eax
  0009c	0f 84 65 01 00
	00		 je	 $LN2@calcTransf
  000a2	83 e8 1f	 sub	 eax, 31			; 0000001fH
  000a5	0f 84 bd 00 00
	00		 je	 $LN5@calcTransf
  000ab	48		 dec	 eax
  000ac	74 1b		 je	 SHORT $LN3@calcTransf

; 150  : 
; 151  : 			default:
; 152  : 				assert(0 && "invalid dir");
; 153  : 				LOG.PrintTimeAndLog(0, "boxgraph invalid dir");

  000ae	68 00 00 00 00	 push	 OFFSET ??_C@_0BF@BCJDDBOF@boxgraph?5invalid?5dir?$AA@
  000b3	6a 00		 push	 0
  000b5	ff 35 00 00 00
	00		 push	 DWORD PTR __imp_?LOG@@3VCLog@@A
  000bb	ff 15 00 00 00
	00		 call	 DWORD PTR __imp_?PrintTimeAndLog@CLog@@QAAXHPADZZ
  000c1	83 c4 0c	 add	 esp, 12			; 0000000cH
  000c4	e9 ef 03 00 00	 jmp	 $LN101@calcTransf
$LN3@calcTransf:

; 138  : 
; 139  : 			case 'y':
; 140  : 
; 141  : 				outPosFrom.y = outPosTo.x = boxFrom.posMin.y;

  000c9	8b 55 08	 mov	 edx, DWORD PTR _outPosFrom$[ebp]
  000cc	f3 0f 11 03	 movss	 DWORD PTR [ebx], xmm0
  000d0	f3 0f 11 42 04	 movss	 DWORD PTR [edx+4], xmm0

; 142  : 				outPosFrom.x = outPosTo.y = (min2( boxFrom.posMax.x, boxTo.posMax.x ) + max2( boxFrom.posMin.x, boxTo.posMin.x )) * FLOAT05;

  000d5	f3 0f 10 47 28	 movss	 xmm0, DWORD PTR [edi+40]
  000da	f3 0f 10 4e 28	 movss	 xmm1, DWORD PTR [esi+40]
  000df	0f 5a d0	 cvtps2pd xmm2, xmm0
  000e2	0f 5a d9	 cvtps2pd xmm3, xmm1
  000e5	66 0f 2f da	 comisd	 xmm3, xmm2
  000e9	76 07		 jbe	 SHORT $LN71@calcTransf
  000eb	f3 0f 11 45 fc	 movss	 DWORD PTR tv803[ebp], xmm0
  000f0	eb 05		 jmp	 SHORT $LN72@calcTransf
$LN71@calcTransf:
  000f2	f3 0f 11 4d fc	 movss	 DWORD PTR tv803[ebp], xmm1
$LN72@calcTransf:
  000f7	f3 0f 10 47 1c	 movss	 xmm0, DWORD PTR [edi+28]
  000fc	f3 0f 10 4e 1c	 movss	 xmm1, DWORD PTR [esi+28]
  00101	0f 5a d0	 cvtps2pd xmm2, xmm0
  00104	0f 5a d9	 cvtps2pd xmm3, xmm1
  00107	66 0f 2f d3	 comisd	 xmm2, xmm3
  0010b	76 07		 jbe	 SHORT $LN75@calcTransf
  0010d	f3 0f 11 45 0c	 movss	 DWORD PTR tv805[ebp], xmm0
  00112	eb 05		 jmp	 SHORT $LN76@calcTransf
$LN75@calcTransf:
  00114	f3 0f 11 4d 0c	 movss	 DWORD PTR tv805[ebp], xmm1
$LN76@calcTransf:
  00119	b8 05 00 00 00	 mov	 eax, 5
  0011e	8b c8		 mov	 ecx, eax
  00120	b8 0a 00 00 00	 mov	 eax, 10			; 0000000aH
  00125	89 4d f8	 mov	 DWORD PTR tv1175[ebp], ecx
  00128	db 45 f8	 fild	 DWORD PTR tv1175[ebp]
  0012b	85 c9		 test	 ecx, ecx
  0012d	79 06		 jns	 SHORT $LN102@calcTransf
  0012f	d8 05 00 00 00
	00		 fadd	 DWORD PTR __real@4f800000
$LN102@calcTransf:
  00135	89 45 f8	 mov	 DWORD PTR tv1171[ebp], eax
  00138	db 45 f8	 fild	 DWORD PTR tv1171[ebp]
  0013b	85 c0		 test	 eax, eax
  0013d	79 06		 jns	 SHORT $LN103@calcTransf
  0013f	d8 05 00 00 00
	00		 fadd	 DWORD PTR __real@4f800000
$LN103@calcTransf:
  00145	de f9		 fdivp	 ST(1), ST(0)
  00147	d9 5d f8	 fstp	 DWORD PTR tv1167[ebp]
  0014a	d9 45 f8	 fld	 DWORD PTR tv1167[ebp]
  0014d	d9 45 0c	 fld	 DWORD PTR tv805[ebp]
  00150	d8 45 fc	 fadd	 DWORD PTR tv803[ebp]
  00153	de c9		 fmulp	 ST(1), ST(0)
  00155	d9 5d 0c	 fstp	 DWORD PTR tv1028[ebp]
  00158	d9 45 0c	 fld	 DWORD PTR tv1028[ebp]
  0015b	d9 5b 04	 fstp	 DWORD PTR [ebx+4]
  0015e	d9 45 0c	 fld	 DWORD PTR tv1028[ebp]
  00161	d9 1a		 fstp	 DWORD PTR [edx]

; 143  : 				break;

  00163	e9 50 03 00 00	 jmp	 $LN101@calcTransf
$LN5@calcTransf:

; 127  : 			case 'x':
; 128  : 
; 129  : 				outPosFrom.x = outPosTo.x = boxFrom.posMin.x;

  00168	8b 4d 08	 mov	 ecx, DWORD PTR _outPosFrom$[ebp]
  0016b	f3 0f 11 0b	 movss	 DWORD PTR [ebx], xmm1
  0016f	f3 0f 11 09	 movss	 DWORD PTR [ecx], xmm1

; 130  : 				outPosFrom.y = outPosTo.y = (min2( boxFrom.posMax.y, boxTo.posMax.y ) + max2( boxFrom.posMin.y, boxTo.posMin.y )) * FLOAT05; // (/2 -> FLOAT05)를 변경함

  00173	f3 0f 10 47 2c	 movss	 xmm0, DWORD PTR [edi+44]
  00178	f3 0f 10 4e 2c	 movss	 xmm1, DWORD PTR [esi+44]
  0017d	0f 5a d0	 cvtps2pd xmm2, xmm0
  00180	0f 5a d9	 cvtps2pd xmm3, xmm1
  00183	66 0f 2f da	 comisd	 xmm3, xmm2
  00187	76 07		 jbe	 SHORT $LN47@calcTransf
  00189	f3 0f 11 45 fc	 movss	 DWORD PTR tv795[ebp], xmm0
  0018e	eb 05		 jmp	 SHORT $LN48@calcTransf
$LN47@calcTransf:
  00190	f3 0f 11 4d fc	 movss	 DWORD PTR tv795[ebp], xmm1
$LN48@calcTransf:
  00195	f3 0f 10 47 20	 movss	 xmm0, DWORD PTR [edi+32]
  0019a	f3 0f 10 4e 20	 movss	 xmm1, DWORD PTR [esi+32]
  0019f	0f 5a d0	 cvtps2pd xmm2, xmm0
  001a2	0f 5a d9	 cvtps2pd xmm3, xmm1
  001a5	66 0f 2f d3	 comisd	 xmm2, xmm3
  001a9	76 07		 jbe	 SHORT $LN51@calcTransf
  001ab	f3 0f 11 45 0c	 movss	 DWORD PTR tv797[ebp], xmm0
  001b0	eb 05		 jmp	 SHORT $LN52@calcTransf
$LN51@calcTransf:
  001b2	f3 0f 11 4d 0c	 movss	 DWORD PTR tv797[ebp], xmm1
$LN52@calcTransf:
  001b7	b8 05 00 00 00	 mov	 eax, 5
  001bc	8b d0		 mov	 edx, eax
  001be	b8 0a 00 00 00	 mov	 eax, 10			; 0000000aH
  001c3	89 55 f8	 mov	 DWORD PTR tv1143[ebp], edx
  001c6	db 45 f8	 fild	 DWORD PTR tv1143[ebp]
  001c9	85 d2		 test	 edx, edx
  001cb	79 06		 jns	 SHORT $LN104@calcTransf
  001cd	d8 05 00 00 00
	00		 fadd	 DWORD PTR __real@4f800000
$LN104@calcTransf:
  001d3	89 45 f8	 mov	 DWORD PTR tv1139[ebp], eax
  001d6	db 45 f8	 fild	 DWORD PTR tv1139[ebp]
  001d9	85 c0		 test	 eax, eax
  001db	79 06		 jns	 SHORT $LN105@calcTransf
  001dd	d8 05 00 00 00
	00		 fadd	 DWORD PTR __real@4f800000
$LN105@calcTransf:
  001e3	de f9		 fdivp	 ST(1), ST(0)
  001e5	d9 5d f8	 fstp	 DWORD PTR tv1135[ebp]
  001e8	d9 45 f8	 fld	 DWORD PTR tv1135[ebp]
  001eb	d9 45 0c	 fld	 DWORD PTR tv797[ebp]
  001ee	d8 45 fc	 fadd	 DWORD PTR tv795[ebp]
  001f1	de c9		 fmulp	 ST(1), ST(0)
  001f3	d9 5d 0c	 fstp	 DWORD PTR tv1054[ebp]
  001f6	d9 45 0c	 fld	 DWORD PTR tv1054[ebp]
  001f9	d9 5b 04	 fstp	 DWORD PTR [ebx+4]
  001fc	d9 45 0c	 fld	 DWORD PTR tv1054[ebp]
$LN120@calcTransf:
  001ff	d9 59 04	 fstp	 DWORD PTR [ecx+4]

; 131  : 				break;

  00202	e9 b1 02 00 00	 jmp	 $LN101@calcTransf
$LN2@calcTransf:

; 144  : 
; 145  : 			case 'Y':
; 146  : 
; 147  : 				outPosFrom.y = outPosTo.x = boxFrom.posMax.y;

  00207	8b 4d 08	 mov	 ecx, DWORD PTR _outPosFrom$[ebp]
  0020a	f3 0f 11 13	 movss	 DWORD PTR [ebx], xmm2
  0020e	f3 0f 11 51 04	 movss	 DWORD PTR [ecx+4], xmm2

; 148  : 				outPosFrom.x = outPosTo.y = (min2( boxFrom.posMax.x, boxTo.posMax.x ) + max2( boxFrom.posMin.x, boxTo.posMin.x )) * FLOAT05;

  00213	f3 0f 10 47 28	 movss	 xmm0, DWORD PTR [edi+40]
  00218	f3 0f 10 4e 28	 movss	 xmm1, DWORD PTR [esi+40]
  0021d	0f 5a d0	 cvtps2pd xmm2, xmm0
  00220	0f 5a d9	 cvtps2pd xmm3, xmm1
  00223	66 0f 2f da	 comisd	 xmm3, xmm2
  00227	76 07		 jbe	 SHORT $LN83@calcTransf
  00229	f3 0f 11 45 fc	 movss	 DWORD PTR tv807[ebp], xmm0
  0022e	eb 05		 jmp	 SHORT $LN84@calcTransf
$LN83@calcTransf:
  00230	f3 0f 11 4d fc	 movss	 DWORD PTR tv807[ebp], xmm1
$LN84@calcTransf:
  00235	f3 0f 10 47 1c	 movss	 xmm0, DWORD PTR [edi+28]
  0023a	f3 0f 10 4e 1c	 movss	 xmm1, DWORD PTR [esi+28]
  0023f	0f 5a d0	 cvtps2pd xmm2, xmm0
  00242	0f 5a d9	 cvtps2pd xmm3, xmm1
  00245	66 0f 2f d3	 comisd	 xmm2, xmm3
  00249	76 07		 jbe	 SHORT $LN87@calcTransf
  0024b	f3 0f 11 45 0c	 movss	 DWORD PTR tv809[ebp], xmm0
  00250	eb 05		 jmp	 SHORT $LN88@calcTransf
$LN87@calcTransf:
  00252	f3 0f 11 4d 0c	 movss	 DWORD PTR tv809[ebp], xmm1
$LN88@calcTransf:
  00257	b8 05 00 00 00	 mov	 eax, 5
  0025c	8b d0		 mov	 edx, eax
  0025e	b8 0a 00 00 00	 mov	 eax, 10			; 0000000aH
  00263	89 55 f8	 mov	 DWORD PTR tv1111[ebp], edx
  00266	db 45 f8	 fild	 DWORD PTR tv1111[ebp]
  00269	85 d2		 test	 edx, edx
  0026b	79 06		 jns	 SHORT $LN106@calcTransf
  0026d	d8 05 00 00 00
	00		 fadd	 DWORD PTR __real@4f800000
$LN106@calcTransf:
  00273	89 45 f8	 mov	 DWORD PTR tv1107[ebp], eax
  00276	db 45 f8	 fild	 DWORD PTR tv1107[ebp]
  00279	85 c0		 test	 eax, eax
  0027b	79 06		 jns	 SHORT $LN107@calcTransf
  0027d	d8 05 00 00 00
	00		 fadd	 DWORD PTR __real@4f800000
$LN107@calcTransf:
  00283	de f9		 fdivp	 ST(1), ST(0)
  00285	d9 5d f8	 fstp	 DWORD PTR tv1102[ebp]
  00288	d9 45 f8	 fld	 DWORD PTR tv1102[ebp]
  0028b	d9 45 0c	 fld	 DWORD PTR tv809[ebp]
  0028e	d8 45 fc	 fadd	 DWORD PTR tv807[ebp]
  00291	de c9		 fmulp	 ST(1), ST(0)
  00293	d9 5d 0c	 fstp	 DWORD PTR tv1077[ebp]
  00296	d9 45 0c	 fld	 DWORD PTR tv1077[ebp]
  00299	d9 5b 04	 fstp	 DWORD PTR [ebx+4]
  0029c	d9 45 0c	 fld	 DWORD PTR tv1077[ebp]
  0029f	d9 19		 fstp	 DWORD PTR [ecx]

; 149  : 				break;

  002a1	e9 12 02 00 00	 jmp	 $LN101@calcTransf
$LN4@calcTransf:

; 132  : 
; 133  : 			case 'X':
; 134  : 
; 135  : 				outPosFrom.x = outPosTo.x = boxFrom.posMax.x;

  002a6	f3 0f 10 47 28	 movss	 xmm0, DWORD PTR [edi+40]
  002ab	8b 4d 08	 mov	 ecx, DWORD PTR _outPosFrom$[ebp]
  002ae	f3 0f 11 03	 movss	 DWORD PTR [ebx], xmm0
  002b2	f3 0f 11 01	 movss	 DWORD PTR [ecx], xmm0

; 136  : 				outPosFrom.y = outPosTo.y = (min2( boxFrom.posMax.y, boxTo.posMax.y ) + max2( boxFrom.posMin.y, boxTo.posMin.y )) * FLOAT05;

  002b6	f3 0f 10 47 2c	 movss	 xmm0, DWORD PTR [edi+44]
  002bb	f3 0f 10 4e 2c	 movss	 xmm1, DWORD PTR [esi+44]
  002c0	0f 5a d0	 cvtps2pd xmm2, xmm0
  002c3	0f 5a d9	 cvtps2pd xmm3, xmm1
  002c6	66 0f 2f da	 comisd	 xmm3, xmm2
  002ca	76 07		 jbe	 SHORT $LN59@calcTransf
  002cc	f3 0f 11 45 fc	 movss	 DWORD PTR tv799[ebp], xmm0
  002d1	eb 05		 jmp	 SHORT $LN60@calcTransf
$LN59@calcTransf:
  002d3	f3 0f 11 4d fc	 movss	 DWORD PTR tv799[ebp], xmm1
$LN60@calcTransf:
  002d8	f3 0f 10 47 20	 movss	 xmm0, DWORD PTR [edi+32]
  002dd	f3 0f 10 4e 20	 movss	 xmm1, DWORD PTR [esi+32]
  002e2	0f 5a d0	 cvtps2pd xmm2, xmm0
  002e5	0f 5a d9	 cvtps2pd xmm3, xmm1
  002e8	66 0f 2f d3	 comisd	 xmm2, xmm3
  002ec	76 07		 jbe	 SHORT $LN63@calcTransf
  002ee	f3 0f 11 45 0c	 movss	 DWORD PTR tv801[ebp], xmm0
  002f3	eb 05		 jmp	 SHORT $LN64@calcTransf
$LN63@calcTransf:
  002f5	f3 0f 11 4d 0c	 movss	 DWORD PTR tv801[ebp], xmm1
$LN64@calcTransf:
  002fa	b8 05 00 00 00	 mov	 eax, 5
  002ff	8b d0		 mov	 edx, eax
  00301	b8 0a 00 00 00	 mov	 eax, 10			; 0000000aH
  00306	89 55 f8	 mov	 DWORD PTR tv1076[ebp], edx
  00309	db 45 f8	 fild	 DWORD PTR tv1076[ebp]
  0030c	85 d2		 test	 edx, edx
  0030e	79 06		 jns	 SHORT $LN108@calcTransf
  00310	d8 05 00 00 00
	00		 fadd	 DWORD PTR __real@4f800000
$LN108@calcTransf:
  00316	89 45 f8	 mov	 DWORD PTR tv1072[ebp], eax
  00319	db 45 f8	 fild	 DWORD PTR tv1072[ebp]
  0031c	85 c0		 test	 eax, eax
  0031e	79 06		 jns	 SHORT $LN109@calcTransf
  00320	d8 05 00 00 00
	00		 fadd	 DWORD PTR __real@4f800000
$LN109@calcTransf:
  00326	de f9		 fdivp	 ST(1), ST(0)
  00328	d9 5d f8	 fstp	 DWORD PTR tv1068[ebp]
  0032b	d9 45 f8	 fld	 DWORD PTR tv1068[ebp]
  0032e	d9 45 0c	 fld	 DWORD PTR tv801[ebp]
  00331	d8 45 fc	 fadd	 DWORD PTR tv799[ebp]
  00334	de c9		 fmulp	 ST(1), ST(0)
  00336	d9 5d 0c	 fstp	 DWORD PTR tv1104[ebp]
  00339	d9 45 0c	 fld	 DWORD PTR tv1104[ebp]
  0033c	d9 5b 04	 fstp	 DWORD PTR [ebx+4]
  0033f	d9 45 0c	 fld	 DWORD PTR tv1104[ebp]

; 137  : 				break;

  00342	e9 b8 fe ff ff	 jmp	 $LN120@calcTransf
$LN12@calcTransf:

; 114  : 
; 115  : 		if ( boxTo.posMax.y < boxFrom.posMin.y )
; 116  : 			outPosFrom.y = boxFrom.posMin.y, outPosTo.y = boxTo.posMax.y;

  00347	8b 45 08	 mov	 eax, DWORD PTR _outPosFrom$[ebp]
  0034a	0f 57 c9	 xorps	 xmm1, xmm1
  0034d	0f 5a cb	 cvtps2pd xmm1, xmm3
  00350	0f 5a d0	 cvtps2pd xmm2, xmm0
  00353	66 0f 2f d1	 comisd	 xmm2, xmm1
  00357	76 0a		 jbe	 SHORT $LN11@calcTransf
  00359	f3 0f 11 40 04	 movss	 DWORD PTR [eax+4], xmm0
  0035e	d9 46 2c	 fld	 DWORD PTR [esi+44]

; 117  : 		else

  00361	eb 09		 jmp	 SHORT $LN118@calcTransf
$LN11@calcTransf:

; 118  : 			outPosFrom.y = boxFrom.posMax.y, outPosTo.y = boxTo.posMin.y;

  00363	d9 47 2c	 fld	 DWORD PTR [edi+44]
  00366	d9 58 04	 fstp	 DWORD PTR [eax+4]
  00369	d9 46 20	 fld	 DWORD PTR [esi+32]
$LN118@calcTransf:
  0036c	d9 5b 04	 fstp	 DWORD PTR [ebx+4]

; 119  : 		// /2 를 * FLOAT05로 변경
; 120  : 		outPosFrom.x = outPosTo.x = (min2( boxFrom.posMax.x, boxTo.posMax.x ) + max2( boxFrom.posMin.x, boxTo.posMin.x )) * FLOAT05;

  0036f	f3 0f 10 47 28	 movss	 xmm0, DWORD PTR [edi+40]
  00374	f3 0f 10 4e 28	 movss	 xmm1, DWORD PTR [esi+40]
  00379	0f 5a d0	 cvtps2pd xmm2, xmm0
  0037c	0f 5a d9	 cvtps2pd xmm3, xmm1
  0037f	66 0f 2f da	 comisd	 xmm3, xmm2
  00383	76 07		 jbe	 SHORT $LN35@calcTransf
  00385	f3 0f 11 45 fc	 movss	 DWORD PTR tv791[ebp], xmm0
  0038a	eb 05		 jmp	 SHORT $LN36@calcTransf
$LN35@calcTransf:
  0038c	f3 0f 11 4d fc	 movss	 DWORD PTR tv791[ebp], xmm1
$LN36@calcTransf:
  00391	f3 0f 10 47 1c	 movss	 xmm0, DWORD PTR [edi+28]
  00396	f3 0f 10 4e 1c	 movss	 xmm1, DWORD PTR [esi+28]
  0039b	0f 5a d0	 cvtps2pd xmm2, xmm0
  0039e	0f 5a d9	 cvtps2pd xmm3, xmm1
  003a1	66 0f 2f d3	 comisd	 xmm2, xmm3
  003a5	76 07		 jbe	 SHORT $LN39@calcTransf
  003a7	f3 0f 11 45 0c	 movss	 DWORD PTR tv793[ebp], xmm0
  003ac	eb 05		 jmp	 SHORT $LN40@calcTransf
$LN39@calcTransf:
  003ae	f3 0f 11 4d 0c	 movss	 DWORD PTR tv793[ebp], xmm1
$LN40@calcTransf:
  003b3	b8 05 00 00 00	 mov	 eax, 5
  003b8	8b c8		 mov	 ecx, eax
  003ba	b8 0a 00 00 00	 mov	 eax, 10			; 0000000aH
  003bf	89 4d f8	 mov	 DWORD PTR tv1040[ebp], ecx
  003c2	db 45 f8	 fild	 DWORD PTR tv1040[ebp]
  003c5	85 c9		 test	 ecx, ecx
  003c7	79 06		 jns	 SHORT $LN110@calcTransf
  003c9	d8 05 00 00 00
	00		 fadd	 DWORD PTR __real@4f800000
$LN110@calcTransf:
  003cf	89 45 f8	 mov	 DWORD PTR tv1036[ebp], eax
  003d2	db 45 f8	 fild	 DWORD PTR tv1036[ebp]
  003d5	85 c0		 test	 eax, eax
  003d7	79 06		 jns	 SHORT $LN111@calcTransf
  003d9	d8 05 00 00 00
	00		 fadd	 DWORD PTR __real@4f800000
$LN111@calcTransf:
  003df	de f9		 fdivp	 ST(1), ST(0)
  003e1	8b 45 08	 mov	 eax, DWORD PTR _outPosFrom$[ebp]
  003e4	d9 5d f8	 fstp	 DWORD PTR tv1032[ebp]
  003e7	d9 45 f8	 fld	 DWORD PTR tv1032[ebp]
  003ea	d9 45 0c	 fld	 DWORD PTR tv793[ebp]
  003ed	d8 45 fc	 fadd	 DWORD PTR tv791[ebp]
  003f0	de c9		 fmulp	 ST(1), ST(0)
  003f2	d9 5d 0c	 fstp	 DWORD PTR tv1128[ebp]
  003f5	d9 45 0c	 fld	 DWORD PTR tv1128[ebp]
  003f8	d9 1b		 fstp	 DWORD PTR [ebx]
  003fa	d9 45 0c	 fld	 DWORD PTR tv1128[ebp]
  003fd	d9 18		 fstp	 DWORD PTR [eax]
  003ff	e9 b4 00 00 00	 jmp	 $LN101@calcTransf
$LN17@calcTransf:

; 105  : 
; 106  : 		if ( boxTo.posMax.x < boxFrom.posMin.x )
; 107  : 			outPosFrom.x = boxFrom.posMin.x, outPosTo.x = boxTo.posMax.x;

  00404	8b 45 08	 mov	 eax, DWORD PTR _outPosFrom$[ebp]
  00407	0f 5a c0	 cvtps2pd xmm0, xmm0
  0040a	0f 5a d1	 cvtps2pd xmm2, xmm1
  0040d	66 0f 2f d0	 comisd	 xmm2, xmm0
  00411	76 09		 jbe	 SHORT $LN16@calcTransf
  00413	f3 0f 11 08	 movss	 DWORD PTR [eax], xmm1
  00417	d9 46 28	 fld	 DWORD PTR [esi+40]

; 108  : 		else

  0041a	eb 08		 jmp	 SHORT $LN119@calcTransf
$LN16@calcTransf:

; 109  : 			outPosFrom.x = boxFrom.posMax.x, outPosTo.x = boxTo.posMin.x;

  0041c	d9 47 28	 fld	 DWORD PTR [edi+40]
  0041f	d9 18		 fstp	 DWORD PTR [eax]
  00421	d9 46 1c	 fld	 DWORD PTR [esi+28]
$LN119@calcTransf:
  00424	d9 1b		 fstp	 DWORD PTR [ebx]

; 110  : 		// /2 를 * FLOAT05로 변경
; 111  : 		outPosFrom.y = outPosTo.y = (min2( boxFrom.posMax.y, boxTo.posMax.y ) + max2( boxFrom.posMin.y, boxTo.posMin.y )) * FLOAT05;

  00426	f3 0f 10 47 2c	 movss	 xmm0, DWORD PTR [edi+44]
  0042b	f3 0f 10 4e 2c	 movss	 xmm1, DWORD PTR [esi+44]
  00430	0f 5a d0	 cvtps2pd xmm2, xmm0
  00433	0f 5a d9	 cvtps2pd xmm3, xmm1
  00436	66 0f 2f da	 comisd	 xmm3, xmm2
  0043a	76 07		 jbe	 SHORT $LN23@calcTransf
  0043c	f3 0f 11 45 fc	 movss	 DWORD PTR tv787[ebp], xmm0
  00441	eb 05		 jmp	 SHORT $LN24@calcTransf
$LN23@calcTransf:
  00443	f3 0f 11 4d fc	 movss	 DWORD PTR tv787[ebp], xmm1
$LN24@calcTransf:
  00448	f3 0f 10 47 20	 movss	 xmm0, DWORD PTR [edi+32]
  0044d	f3 0f 10 4e 20	 movss	 xmm1, DWORD PTR [esi+32]
  00452	0f 5a d0	 cvtps2pd xmm2, xmm0
  00455	0f 5a d9	 cvtps2pd xmm3, xmm1
  00458	66 0f 2f d3	 comisd	 xmm2, xmm3
  0045c	76 07		 jbe	 SHORT $LN27@calcTransf
  0045e	f3 0f 11 45 0c	 movss	 DWORD PTR tv789[ebp], xmm0
  00463	eb 05		 jmp	 SHORT $LN28@calcTransf
$LN27@calcTransf:
  00465	f3 0f 11 4d 0c	 movss	 DWORD PTR tv789[ebp], xmm1
$LN28@calcTransf:
  0046a	b8 05 00 00 00	 mov	 eax, 5
  0046f	8b c8		 mov	 ecx, eax
  00471	b8 0a 00 00 00	 mov	 eax, 10			; 0000000aH
  00476	89 4d f8	 mov	 DWORD PTR tv1004[ebp], ecx
  00479	db 45 f8	 fild	 DWORD PTR tv1004[ebp]
  0047c	85 c9		 test	 ecx, ecx
  0047e	79 06		 jns	 SHORT $LN112@calcTransf
  00480	d8 05 00 00 00
	00		 fadd	 DWORD PTR __real@4f800000
$LN112@calcTransf:
  00486	89 45 f8	 mov	 DWORD PTR tv1000[ebp], eax
  00489	db 45 f8	 fild	 DWORD PTR tv1000[ebp]
  0048c	85 c0		 test	 eax, eax
  0048e	79 06		 jns	 SHORT $LN113@calcTransf
  00490	d8 05 00 00 00
	00		 fadd	 DWORD PTR __real@4f800000
$LN113@calcTransf:
  00496	de f9		 fdivp	 ST(1), ST(0)
  00498	8b 45 08	 mov	 eax, DWORD PTR _outPosFrom$[ebp]
  0049b	d9 5d f8	 fstp	 DWORD PTR tv996[ebp]
  0049e	d9 45 f8	 fld	 DWORD PTR tv996[ebp]
  004a1	d9 45 0c	 fld	 DWORD PTR tv789[ebp]
  004a4	d8 45 fc	 fadd	 DWORD PTR tv787[ebp]
  004a7	de c9		 fmulp	 ST(1), ST(0)
  004a9	d9 5d 0c	 fstp	 DWORD PTR tv1152[ebp]
  004ac	d9 45 0c	 fld	 DWORD PTR tv1152[ebp]
  004af	d9 5b 04	 fstp	 DWORD PTR [ebx+4]
  004b2	d9 45 0c	 fld	 DWORD PTR tv1152[ebp]
  004b5	d9 58 04	 fstp	 DWORD PTR [eax+4]
$LN101@calcTransf:

; 154  : 		}
; 155  : 	}
; 156  : 	// /2를 FLOAT05로 변경
; 157  : 	outPosFrom.z = (boxFrom.posMax.z + boxFrom.posMin.z) * FLOAT05;

  004b8	b8 05 00 00 00	 mov	 eax, 5
  004bd	8b c8		 mov	 ecx, eax
  004bf	b8 0a 00 00 00	 mov	 eax, 10			; 0000000aH
  004c4	d9 47 30	 fld	 DWORD PTR [edi+48]
  004c7	d8 47 24	 fadd	 DWORD PTR [edi+36]
  004ca	89 4d 0c	 mov	 DWORD PTR tv981[ebp], ecx
  004cd	db 45 0c	 fild	 DWORD PTR tv981[ebp]
  004d0	85 c9		 test	 ecx, ecx
  004d2	79 06		 jns	 SHORT $LN114@calcTransf
  004d4	d8 05 00 00 00
	00		 fadd	 DWORD PTR __real@4f800000
$LN114@calcTransf:
  004da	89 45 0c	 mov	 DWORD PTR tv975[ebp], eax
  004dd	db 45 0c	 fild	 DWORD PTR tv975[ebp]
  004e0	85 c0		 test	 eax, eax
  004e2	79 06		 jns	 SHORT $LN115@calcTransf
  004e4	d8 05 00 00 00
	00		 fadd	 DWORD PTR __real@4f800000
$LN115@calcTransf:
  004ea	de f9		 fdivp	 ST(1), ST(0)
  004ec	8b 45 08	 mov	 eax, DWORD PTR _outPosFrom$[ebp]
  004ef	d9 5d 0c	 fstp	 DWORD PTR tv970[ebp]
  004f2	d8 4d 0c	 fmul	 DWORD PTR tv970[ebp]
  004f5	d9 58 08	 fstp	 DWORD PTR [eax+8]

; 158  : 	// /2를 FLOAT05로 변경
; 159  : 	outPosTo.z = (boxTo.posMax.z + boxTo.posMin.z) * FLOAT05;

  004f8	b8 05 00 00 00	 mov	 eax, 5
  004fd	8b c8		 mov	 ecx, eax
  004ff	b8 0a 00 00 00	 mov	 eax, 10			; 0000000aH
  00504	d9 46 30	 fld	 DWORD PTR [esi+48]
  00507	d8 46 24	 fadd	 DWORD PTR [esi+36]
  0050a	89 4d 08	 mov	 DWORD PTR tv558[ebp], ecx
  0050d	db 45 08	 fild	 DWORD PTR tv558[ebp]
  00510	85 c9		 test	 ecx, ecx
  00512	79 06		 jns	 SHORT $LN116@calcTransf
  00514	d8 05 00 00 00
	00		 fadd	 DWORD PTR __real@4f800000
$LN116@calcTransf:
  0051a	89 45 08	 mov	 DWORD PTR tv874[ebp], eax
  0051d	db 45 08	 fild	 DWORD PTR tv874[ebp]
  00520	85 c0		 test	 eax, eax
  00522	79 06		 jns	 SHORT $LN117@calcTransf
  00524	d8 05 00 00 00
	00		 fadd	 DWORD PTR __real@4f800000
$LN117@calcTransf:
  0052a	de f9		 fdivp	 ST(1), ST(0)
  0052c	d9 5d 08	 fstp	 DWORD PTR tv881[ebp]
  0052f	d8 4d 08	 fmul	 DWORD PTR tv881[ebp]
  00532	d9 5b 08	 fstp	 DWORD PTR [ebx+8]
  00535	5b		 pop	 ebx

; 160  : }

  00536	c9		 leave
  00537	c3		 ret	 0
?calcTransferPoints@@YAXABUBox@BoxSpace@@0DAAUD3DXVECTOR3@@1@Z ENDP ; calcTransferPoints
_TEXT	ENDS
PUBLIC	??RFn_WalkLess@@QAE_NABULink@BoxSpace@@0@Z	; Fn_WalkLess::operator()
; Function compile flags: /Ogsp
;	COMDAT ??RFn_WalkLess@@QAE_NABULink@BoxSpace@@0@Z
_TEXT	SEGMENT
_a$ = 8							; size = 4
_b$ = 12						; size = 4
??RFn_WalkLess@@QAE_NABULink@BoxSpace@@0@Z PROC		; Fn_WalkLess::operator(), COMDAT
; _this$ = ecx

; 165  : 	{

  00000	55		 push	 ebp
  00001	8b ec		 mov	 ebp, esp

; 166  : 		return a.type == MOVETYPE_WALK && b.type != MOVETYPE_WALK;

  00003	8b 45 08	 mov	 eax, DWORD PTR _a$[ebp]
  00006	80 78 03 4c	 cmp	 BYTE PTR [eax+3], 76	; 0000004cH
  0000a	75 0e		 jne	 SHORT $LN3@operator
  0000c	8b 45 0c	 mov	 eax, DWORD PTR _b$[ebp]
  0000f	80 78 03 4c	 cmp	 BYTE PTR [eax+3], 76	; 0000004cH
  00013	74 05		 je	 SHORT $LN3@operator
  00015	33 c0		 xor	 eax, eax
  00017	40		 inc	 eax
  00018	eb 02		 jmp	 SHORT $LN4@operator
$LN3@operator:
  0001a	33 c0		 xor	 eax, eax
$LN4@operator:

; 167  : 	}

  0001c	5d		 pop	 ebp
  0001d	c2 08 00	 ret	 8
??RFn_WalkLess@@QAE_NABULink@BoxSpace@@0@Z ENDP		; Fn_WalkLess::operator()
_TEXT	ENDS
PUBLIC	_fabsf
; Function compile flags: /Ogsp
; File c:\program files (x86)\microsoft visual studio 10.0\vc\include\math.h
;	COMDAT _fabsf
_TEXT	SEGMENT
tv129 = 8						; size = 4
__X$ = 8						; size = 4
_fabsf	PROC						; COMDAT

; 395  :         {return ((float)fabs((double)_X)); }

  00000	55		 push	 ebp
  00001	8b ec		 mov	 ebp, esp
  00003	d9 45 08	 fld	 DWORD PTR __X$[ebp]
  00006	d9 e1		 fabs
  00008	d9 5d 08	 fstp	 DWORD PTR tv129[ebp]
  0000b	d9 45 08	 fld	 DWORD PTR tv129[ebp]
  0000e	5d		 pop	 ebp
  0000f	c3		 ret	 0
_fabsf	ENDP
_TEXT	ENDS
PUBLIC	_sqrtf
EXTRN	__CIsqrt:PROC
; Function compile flags: /Ogsp
;	COMDAT _sqrtf
_TEXT	SEGMENT
tv69 = 8						; size = 4
__X$ = 8						; size = 4
_sqrtf	PROC						; COMDAT

; 434  :         {return ((float)sqrt((double)_X)); }

  00000	55		 push	 ebp
  00001	8b ec		 mov	 ebp, esp
  00003	d9 45 08	 fld	 DWORD PTR __X$[ebp]
  00006	e8 00 00 00 00	 call	 __CIsqrt
  0000b	d9 5d 08	 fstp	 DWORD PTR tv69[ebp]
  0000e	d9 45 08	 fld	 DWORD PTR tv69[ebp]
  00011	5d		 pop	 ebp
  00012	c3		 ret	 0
_sqrtf	ENDP
_TEXT	ENDS
PUBLIC	?abs@@YAMM@Z					; abs
; Function compile flags: /Ogsp
;	COMDAT ?abs@@YAMM@Z
_TEXT	SEGMENT
tv131 = 8						; size = 4
__X$ = 8						; size = 4
?abs@@YAMM@Z PROC					; abs, COMDAT

; 500  :         {return (fabsf(_X)); }

  00000	55		 push	 ebp
  00001	8b ec		 mov	 ebp, esp
  00003	d9 45 08	 fld	 DWORD PTR __X$[ebp]
  00006	d9 e1		 fabs
  00008	d9 5d 08	 fstp	 DWORD PTR tv131[ebp]
  0000b	d9 45 08	 fld	 DWORD PTR tv131[ebp]
  0000e	5d		 pop	 ebp
  0000f	c3		 ret	 0
?abs@@YAMM@Z ENDP					; abs
_TEXT	ENDS
PUBLIC	?sqrt@@YAMM@Z					; sqrt
; Function compile flags: /Ogsp
;	COMDAT ?sqrt@@YAMM@Z
_TEXT	SEGMENT
tv73 = 8						; size = 4
__X$ = 8						; size = 4
?sqrt@@YAMM@Z PROC					; sqrt, COMDAT

; 542  :         {return (sqrtf(_X)); }

  00000	55		 push	 ebp
  00001	8b ec		 mov	 ebp, esp
  00003	d9 45 08	 fld	 DWORD PTR __X$[ebp]
  00006	e8 00 00 00 00	 call	 __CIsqrt
  0000b	d9 5d 08	 fstp	 DWORD PTR tv73[ebp]
  0000e	d9 45 08	 fld	 DWORD PTR tv73[ebp]
  00011	5d		 pop	 ebp
  00012	c3		 ret	 0
?sqrt@@YAMM@Z ENDP					; sqrt
; Function compile flags: /Ogsp
; File d:\lost saga for developer\youtube\tutorial\source\src\lsclient\boxgraph.cpp
_TEXT	ENDS
;	COMDAT ?getNearestPointInBox@@YAXABUD3DXVECTOR3@@00AAU1@M@Z
_TEXT	SEGMENT
tv437 = 8						; size = 4
tv432 = 8						; size = 4
tv428 = 8						; size = 4
tv415 = 8						; size = 4
tv409 = 8						; size = 4
tv405 = 8						; size = 4
$T509622 = 8						; size = 4
$T509606 = 8						; size = 4
_posFrom$ = 8						; size = 4
_outPos$ = 12						; size = 4
_xymargin$ = 16						; size = 4
?getNearestPointInBox@@YAXABUD3DXVECTOR3@@00AAU1@M@Z PROC ; getNearestPointInBox, COMDAT
; _posMin$ = ecx
; _posMax$ = edx

; 338  : {

  00000	55		 push	 ebp
  00001	8b ec		 mov	 ebp, esp
  00003	53		 push	 ebx
  00004	8b 5d 08	 mov	 ebx, DWORD PTR _posFrom$[ebp]
  00007	56		 push	 esi
  00008	57		 push	 edi

; 339  : 	outPos = posFrom;

  00009	8b 7d 0c	 mov	 edi, DWORD PTR _outPos$[ebp]
  0000c	8b f3		 mov	 esi, ebx
  0000e	a5		 movsd
  0000f	a5		 movsd
  00010	a5		 movsd

; 340  : 	// /2 를 * FLOAT05로 변경
; 341  : 	float xmargin = min2( xymargin, (posMax.x - posMin.x) * FLOAT05 );

  00011	b8 05 00 00 00	 mov	 eax, 5
  00016	8b f0		 mov	 esi, eax
  00018	b8 0a 00 00 00	 mov	 eax, 10			; 0000000aH
  0001d	89 75 08	 mov	 DWORD PTR tv437[ebp], esi
  00020	db 45 08	 fild	 DWORD PTR tv437[ebp]
  00023	85 f6		 test	 esi, esi
  00025	79 06		 jns	 SHORT $LN29@getNearest
  00027	d8 05 00 00 00
	00		 fadd	 DWORD PTR __real@4f800000
$LN29@getNearest:
  0002d	89 45 08	 mov	 DWORD PTR tv432[ebp], eax
  00030	db 45 08	 fild	 DWORD PTR tv432[ebp]
  00033	85 c0		 test	 eax, eax
  00035	79 06		 jns	 SHORT $LN30@getNearest
  00037	d8 05 00 00 00
	00		 fadd	 DWORD PTR __real@4f800000
$LN30@getNearest:
  0003d	de f9		 fdivp	 ST(1), ST(0)
  0003f	f3 0f 10 5d 10	 movss	 xmm3, DWORD PTR _xymargin$[ebp]
  00044	d9 5d 08	 fstp	 DWORD PTR tv428[ebp]
  00047	d9 45 08	 fld	 DWORD PTR tv428[ebp]
  0004a	d9 02		 fld	 DWORD PTR [edx]
  0004c	d8 21		 fsub	 DWORD PTR [ecx]
  0004e	de c9		 fmulp	 ST(1), ST(0)
  00050	d9 5d 08	 fstp	 DWORD PTR $T509606[ebp]
  00053	d9 45 10	 fld	 DWORD PTR _xymargin$[ebp]
  00056	d9 45 08	 fld	 DWORD PTR $T509606[ebp]
  00059	df f1		 fcomip	 ST(1)
  0005b	dd d8		 fstp	 ST(0)
  0005d	76 05		 jbe	 SHORT $LN18@getNearest
  0005f	0f 28 d3	 movaps	 xmm2, xmm3
  00062	eb 05		 jmp	 SHORT $LN19@getNearest
$LN18@getNearest:
  00064	f3 0f 10 55 08	 movss	 xmm2, DWORD PTR $T509606[ebp]
$LN19@getNearest:

; 342  : 	float ymargin = min2( xymargin, (posMax.y - posMin.y) * FLOAT05 );

  00069	b8 05 00 00 00	 mov	 eax, 5
  0006e	8b f0		 mov	 esi, eax
  00070	b8 0a 00 00 00	 mov	 eax, 10			; 0000000aH
  00075	89 75 08	 mov	 DWORD PTR tv415[ebp], esi
  00078	db 45 08	 fild	 DWORD PTR tv415[ebp]
  0007b	85 f6		 test	 esi, esi
  0007d	79 06		 jns	 SHORT $LN31@getNearest
  0007f	d8 05 00 00 00
	00		 fadd	 DWORD PTR __real@4f800000
$LN31@getNearest:
  00085	89 45 08	 mov	 DWORD PTR tv409[ebp], eax
  00088	db 45 08	 fild	 DWORD PTR tv409[ebp]
  0008b	85 c0		 test	 eax, eax
  0008d	79 06		 jns	 SHORT $LN32@getNearest
  0008f	d8 05 00 00 00
	00		 fadd	 DWORD PTR __real@4f800000
$LN32@getNearest:
  00095	de f9		 fdivp	 ST(1), ST(0)
  00097	d9 5d 08	 fstp	 DWORD PTR tv405[ebp]
  0009a	d9 45 08	 fld	 DWORD PTR tv405[ebp]
  0009d	d9 42 04	 fld	 DWORD PTR [edx+4]
  000a0	d8 61 04	 fsub	 DWORD PTR [ecx+4]
  000a3	de c9		 fmulp	 ST(1), ST(0)
  000a5	d9 5d 08	 fstp	 DWORD PTR $T509622[ebp]
  000a8	d9 45 10	 fld	 DWORD PTR _xymargin$[ebp]
  000ab	d9 45 08	 fld	 DWORD PTR $T509622[ebp]
  000ae	df f1		 fcomip	 ST(1)
  000b0	dd d8		 fstp	 ST(0)
  000b2	77 05		 ja	 SHORT $LN27@getNearest
  000b4	f3 0f 10 5d 08	 movss	 xmm3, DWORD PTR $T509622[ebp]
$LN27@getNearest:

; 343  : 
; 344  : 	if ( posFrom.x <= posMin.x + xmargin ) 

  000b9	f3 0f 10 01	 movss	 xmm0, DWORD PTR [ecx]
  000bd	f3 0f 10 0b	 movss	 xmm1, DWORD PTR [ebx]

; 345  : 		outPos.x = posMin.x + xmargin; 

  000c1	8b 45 0c	 mov	 eax, DWORD PTR _outPos$[ebp]
  000c4	0f 57 e4	 xorps	 xmm4, xmm4
  000c7	f3 0f 5a e2	 cvtss2sd xmm4, xmm2
  000cb	0f 5a c0	 cvtps2pd xmm0, xmm0
  000ce	f2 0f 58 c4	 addsd	 xmm0, xmm4
  000d2	0f 5a e1	 cvtps2pd xmm4, xmm1
  000d5	66 0f 2f c4	 comisd	 xmm0, xmm4
  000d9	73 18		 jae	 SHORT $LN35@getNearest

; 346  : 	else if ( posFrom.x >= posMax.x - xmargin ) 

  000db	f3 0f 10 02	 movss	 xmm0, DWORD PTR [edx]
  000df	0f 5a c0	 cvtps2pd xmm0, xmm0
  000e2	f3 0f 5a d2	 cvtss2sd xmm2, xmm2
  000e6	f2 0f 5c c2	 subsd	 xmm0, xmm2
  000ea	0f 5a c9	 cvtps2pd xmm1, xmm1
  000ed	66 0f 2f c8	 comisd	 xmm1, xmm0
  000f1	72 08		 jb	 SHORT $LN7@getNearest
$LN35@getNearest:

; 347  : 		outPos.x = posMax.x - xmargin;

  000f3	66 0f 5a c0	 cvtpd2ps xmm0, xmm0
  000f7	f3 0f 11 00	 movss	 DWORD PTR [eax], xmm0
$LN7@getNearest:

; 348  : 
; 349  : 	if ( posFrom.y <= posMin.y + ymargin ) 

  000fb	f3 0f 10 41 04	 movss	 xmm0, DWORD PTR [ecx+4]
  00100	f3 0f 10 4b 04	 movss	 xmm1, DWORD PTR [ebx+4]
  00105	0f 5a d3	 cvtps2pd xmm2, xmm3
  00108	0f 5a c0	 cvtps2pd xmm0, xmm0
  0010b	f2 0f 58 c2	 addsd	 xmm0, xmm2
  0010f	0f 5a d1	 cvtps2pd xmm2, xmm1
  00112	66 0f 2f c2	 comisd	 xmm0, xmm2

; 350  : 		outPos.y = posMin.y + ymargin; 

  00116	73 18		 jae	 SHORT $LN33@getNearest

; 351  : 	else if ( posFrom.y >= posMax.y - ymargin ) 

  00118	f3 0f 10 42 04	 movss	 xmm0, DWORD PTR [edx+4]
  0011d	0f 5a c0	 cvtps2pd xmm0, xmm0
  00120	0f 5a d3	 cvtps2pd xmm2, xmm3
  00123	f2 0f 5c c2	 subsd	 xmm0, xmm2
  00127	0f 5a c9	 cvtps2pd xmm1, xmm1
  0012a	66 0f 2f c8	 comisd	 xmm1, xmm0
  0012e	72 09		 jb	 SHORT $LN4@getNearest
$LN33@getNearest:

; 352  : 		outPos.y = posMax.y - ymargin;

  00130	66 0f 5a c0	 cvtpd2ps xmm0, xmm0
  00134	f3 0f 11 40 04	 movss	 DWORD PTR [eax+4], xmm0
$LN4@getNearest:

; 353  : 
; 354  : 	if ( posFrom.z <= posMin.z ) 

  00139	f3 0f 10 4b 08	 movss	 xmm1, DWORD PTR [ebx+8]
  0013e	f3 0f 10 41 08	 movss	 xmm0, DWORD PTR [ecx+8]
  00143	5f		 pop	 edi
  00144	0f 5a d1	 cvtps2pd xmm2, xmm1
  00147	0f 5a d8	 cvtps2pd xmm3, xmm0
  0014a	66 0f 2f da	 comisd	 xmm3, xmm2
  0014e	5e		 pop	 esi
  0014f	5b		 pop	 ebx

; 355  : 		outPos.z = posMin.z; 

  00150	73 11		 jae	 SHORT $LN34@getNearest

; 356  : 	else if ( posFrom.z >= posMax.z ) 

  00152	f3 0f 10 42 08	 movss	 xmm0, DWORD PTR [edx+8]
  00157	0f 5a c9	 cvtps2pd xmm1, xmm1
  0015a	0f 5a d0	 cvtps2pd xmm2, xmm0
  0015d	66 0f 2f ca	 comisd	 xmm1, xmm2
  00161	72 05		 jb	 SHORT $LN1@getNearest
$LN34@getNearest:

; 357  : 		outPos.z = posMax.z;

  00163	f3 0f 11 40 08	 movss	 DWORD PTR [eax+8], xmm0
$LN1@getNearest:

; 358  : }

  00168	5d		 pop	 ebp
  00169	c3		 ret	 0
?getNearestPointInBox@@YAXABUD3DXVECTOR3@@00AAU1@M@Z ENDP ; getNearestPointInBox
_TEXT	ENDS
PUBLIC	??_7bad_alloc@std@@6B@				; std::bad_alloc::`vftable'
PUBLIC	??0bad_alloc@std@@QAE@PBD@Z			; std::bad_alloc::bad_alloc
PUBLIC	??_R4bad_alloc@std@@6B@				; std::bad_alloc::`RTTI Complete Object Locator'
PUBLIC	??_R0?AVbad_alloc@std@@@8			; std::bad_alloc `RTTI Type Descriptor'
PUBLIC	??_R3bad_alloc@std@@8				; std::bad_alloc::`RTTI Class Hierarchy Descriptor'
PUBLIC	??_R2bad_alloc@std@@8				; std::bad_alloc::`RTTI Base Class Array'
PUBLIC	??_R1A@?0A@EA@bad_alloc@std@@8			; std::bad_alloc::`RTTI Base Class Descriptor at (0,-1,0,64)'
PUBLIC	??_R1A@?0A@EA@exception@std@@8			; std::exception::`RTTI Base Class Descriptor at (0,-1,0,64)'
PUBLIC	??_R0?AVexception@std@@@8			; std::exception `RTTI Type Descriptor'
PUBLIC	??_R3exception@std@@8				; std::exception::`RTTI Class Hierarchy Descriptor'
PUBLIC	??_R2exception@std@@8				; std::exception::`RTTI Base Class Array'
EXTRN	__imp_??0exception@std@@QAE@ABQBD@Z:PROC
EXTRN	??_7type_info@@6B@:QWORD			; type_info::`vftable'
EXTRN	??_Ebad_alloc@std@@UAEPAXI@Z:PROC		; std::bad_alloc::`vector deleting destructor'
EXTRN	?what@exception@std@@UBEPBDXZ:PROC		; std::exception::what
;	COMDAT ??_R2exception@std@@8
; File c:\program files (x86)\microsoft visual studio 10.0\vc\include\exception
rdata$r	SEGMENT
??_R2exception@std@@8 DD FLAT:??_R1A@?0A@EA@exception@std@@8 ; std::exception::`RTTI Base Class Array'
rdata$r	ENDS
;	COMDAT ??_R3exception@std@@8
rdata$r	SEGMENT
??_R3exception@std@@8 DD 00H				; std::exception::`RTTI Class Hierarchy Descriptor'
	DD	00H
	DD	01H
	DD	FLAT:??_R2exception@std@@8
rdata$r	ENDS
;	COMDAT ??_R0?AVexception@std@@@8
_DATA	SEGMENT
??_R0?AVexception@std@@@8 DD FLAT:??_7type_info@@6B@	; std::exception `RTTI Type Descriptor'
	DD	00H
	DB	'.?AVexception@std@@', 00H
_DATA	ENDS
;	COMDAT ??_R1A@?0A@EA@exception@std@@8
rdata$r	SEGMENT
??_R1A@?0A@EA@exception@std@@8 DD FLAT:??_R0?AVexception@std@@@8 ; std::exception::`RTTI Base Class Descriptor at (0,-1,0,64)'
	DD	00H
	DD	00H
	DD	0ffffffffH
	DD	00H
	DD	040H
	DD	FLAT:??_R3exception@std@@8
rdata$r	ENDS
;	COMDAT ??_R1A@?0A@EA@bad_alloc@std@@8
rdata$r	SEGMENT
??_R1A@?0A@EA@bad_alloc@std@@8 DD FLAT:??_R0?AVbad_alloc@std@@@8 ; std::bad_alloc::`RTTI Base Class Descriptor at (0,-1,0,64)'
	DD	01H
	DD	00H
	DD	0ffffffffH
	DD	00H
	DD	040H
	DD	FLAT:??_R3bad_alloc@std@@8
rdata$r	ENDS
;	COMDAT ??_R2bad_alloc@std@@8
rdata$r	SEGMENT
??_R2bad_alloc@std@@8 DD FLAT:??_R1A@?0A@EA@bad_alloc@std@@8 ; std::bad_alloc::`RTTI Base Class Array'
	DD	FLAT:??_R1A@?0A@EA@exception@std@@8
rdata$r	ENDS
;	COMDAT ??_R3bad_alloc@std@@8
rdata$r	SEGMENT
??_R3bad_alloc@std@@8 DD 00H				; std::bad_alloc::`RTTI Class Hierarchy Descriptor'
	DD	00H
	DD	02H
	DD	FLAT:??_R2bad_alloc@std@@8
rdata$r	ENDS
;	COMDAT ??_R0?AVbad_alloc@std@@@8
_DATA	SEGMENT
??_R0?AVbad_alloc@std@@@8 DD FLAT:??_7type_info@@6B@	; std::bad_alloc `RTTI Type Descriptor'
	DD	00H
	DB	'.?AVbad_alloc@std@@', 00H
_DATA	ENDS
;	COMDAT ??_R4bad_alloc@std@@6B@
rdata$r	SEGMENT
??_R4bad_alloc@std@@6B@ DD 00H				; std::bad_alloc::`RTTI Complete Object Locator'
	DD	00H
	DD	00H
	DD	FLAT:??_R0?AVbad_alloc@std@@@8
	DD	FLAT:??_R3bad_alloc@std@@8
rdata$r	ENDS
;	COMDAT ??_7bad_alloc@std@@6B@
CONST	SEGMENT
??_7bad_alloc@std@@6B@ DD FLAT:??_R4bad_alloc@std@@6B@	; std::bad_alloc::`vftable'
	DD	FLAT:??_Ebad_alloc@std@@UAEPAXI@Z
	DD	FLAT:?what@exception@std@@UBEPBDXZ
; Function compile flags: /Ogsp
CONST	ENDS
;	COMDAT ??0bad_alloc@std@@QAE@PBD@Z
_TEXT	SEGMENT
__Message$ = 8						; size = 4
??0bad_alloc@std@@QAE@PBD@Z PROC			; std::bad_alloc::bad_alloc, COMDAT
; _this$ = ecx

; 345  : 		{	// construct from message string

  00000	55		 push	 ebp
  00001	8b ec		 mov	 ebp, esp
  00003	56		 push	 esi
  00004	8d 45 08	 lea	 eax, DWORD PTR __Message$[ebp]
  00007	50		 push	 eax
  00008	8b f1		 mov	 esi, ecx
  0000a	ff 15 00 00 00
	00		 call	 DWORD PTR __imp_??0exception@std@@QAE@ABQBD@Z
  00010	c7 06 00 00 00
	00		 mov	 DWORD PTR [esi], OFFSET ??_7bad_alloc@std@@6B@

; 346  : 		}

  00016	8b c6		 mov	 eax, esi
  00018	5e		 pop	 esi
  00019	5d		 pop	 ebp
  0001a	c2 04 00	 ret	 4
??0bad_alloc@std@@QAE@PBD@Z ENDP			; std::bad_alloc::bad_alloc
; Function compile flags: /Ogsp
; File d:\lost saga for developer\youtube\tutorial\source\src\lsclient\boxgraph.cpp
_TEXT	ENDS
;	COMDAT ?getJumpValues@@YAXMMMAAM0@Z
_TEXT	SEGMENT
tv179 = -4						; size = 4
_jumpCurveH$ = 8					; size = 4
tv161 = 12						; size = 4
_jumpCurveV$ = 12					; size = 4
tv173 = 16						; size = 4
tv167 = 16						; size = 4
_ff$ = 16						; size = 4
_vdist$ = 16						; size = 4
_outDistTotal$ = 20					; size = 4
?getJumpValues@@YAXMMMAAM0@Z PROC			; getJumpValues, COMDAT
; _outDistOver$ = esi

; 362  : {

  00000	55		 push	 ebp
  00001	8b ec		 mov	 ebp, esp
  00003	51		 push	 ecx

; 363  : 	float ff = sqrt( FLOAT1 - vdist / jumpCurveV );

  00004	b8 01 00 00 00	 mov	 eax, 1
  00009	89 45 fc	 mov	 DWORD PTR tv179[ebp], eax
  0000c	db 45 fc	 fild	 DWORD PTR tv179[ebp]
  0000f	85 c0		 test	 eax, eax
  00011	79 06		 jns	 SHORT $LN11@getJumpVal
  00013	d8 05 00 00 00
	00		 fadd	 DWORD PTR __real@4f800000
$LN11@getJumpVal:
  00019	d9 45 10	 fld	 DWORD PTR _vdist$[ebp]
  0001c	d8 75 0c	 fdiv	 DWORD PTR _jumpCurveV$[ebp]
  0001f	de e9		 fsubp	 ST(1), ST(0)
  00021	d9 5d 10	 fstp	 DWORD PTR tv173[ebp]
  00024	d9 45 10	 fld	 DWORD PTR tv173[ebp]
  00027	e8 00 00 00 00	 call	 __CIsqrt
  0002c	d9 5d 10	 fstp	 DWORD PTR tv167[ebp]
  0002f	d9 45 10	 fld	 DWORD PTR tv167[ebp]
  00032	d9 5d 10	 fstp	 DWORD PTR _ff$[ebp]

; 364  : 	outDistOver = 2 * jumpCurveH * ff;

  00035	d9 45 08	 fld	 DWORD PTR _jumpCurveH$[ebp]
  00038	dc c0		 fadd	 ST(0), ST(0)
  0003a	d8 4d 10	 fmul	 DWORD PTR _ff$[ebp]
  0003d	d9 1e		 fstp	 DWORD PTR [esi]

; 365  : 	outDistTotal = jumpCurveH * ( FLOAT1 - ff ) + outDistOver;

  0003f	b8 01 00 00 00	 mov	 eax, 1
  00044	89 45 0c	 mov	 DWORD PTR tv161[ebp], eax
  00047	db 45 0c	 fild	 DWORD PTR tv161[ebp]
  0004a	85 c0		 test	 eax, eax
  0004c	79 06		 jns	 SHORT $LN12@getJumpVal
  0004e	d8 05 00 00 00
	00		 fadd	 DWORD PTR __real@4f800000
$LN12@getJumpVal:
  00054	d8 65 10	 fsub	 DWORD PTR _ff$[ebp]
  00057	8b 45 14	 mov	 eax, DWORD PTR _outDistTotal$[ebp]
  0005a	d8 4d 08	 fmul	 DWORD PTR _jumpCurveH$[ebp]
  0005d	d8 06		 fadd	 DWORD PTR [esi]
  0005f	d9 18		 fstp	 DWORD PTR [eax]

; 366  : }

  00061	c9		 leave
  00062	c3		 ret	 0
?getJumpValues@@YAXMMMAAM0@Z ENDP			; getJumpValues
_TEXT	ENDS
PUBLIC	__real@00000000
;	COMDAT __real@00000000
; File d:\lost saga for developer\youtube\tutorial\source\src\lsclient\stdafx.h
CONST	SEGMENT
__real@00000000 DD 000000000r			; 0
; Function compile flags: /Ogsp
; File d:\lost saga for developer\youtube\tutorial\source\src\lsclient\boxgraph.cpp
CONST	ENDS
;	COMDAT ?adjustForJump@@YAXABUD3DXVECTOR3@@0000MMMAAU1@@Z
_TEXT	SEGMENT
tv701 = -8						; size = 4
tv697 = -8						; size = 4
$T509704 = -8						; size = 4
tv693 = -4						; size = 4
$T509688 = -4						; size = 4
_ymargin$ = -4						; size = 4
_d_over$ = 8						; size = 4
_pos$ = 8						; size = 4
_fromMin$ = 12						; size = 4
tv722 = 16						; size = 4
tv718 = 16						; size = 4
tv714 = 16						; size = 4
$T509672 = 16						; size = 4
_xmargin$ = 16						; size = 4
_fromMax$ = 16						; size = 4
_toMin$ = 20						; size = 4
_toMax$ = 24						; size = 4
_jumpCurveH$ = 28					; size = 4
_jumpCurveV$ = 32					; size = 4
tv677 = 36						; size = 4
tv673 = 36						; size = 4
tv667 = 36						; size = 4
tv660 = 36						; size = 4
tv656 = 36						; size = 4
tv650 = 36						; size = 4
_d_total$ = 36						; size = 4
_heightDiff$ = 36					; size = 4
_xymargin$ = 36						; size = 4
_outPos$ = 40						; size = 4
?adjustForJump@@YAXABUD3DXVECTOR3@@0000MMMAAU1@@Z PROC	; adjustForJump, COMDAT

; 371  : {

  00000	55		 push	 ebp
  00001	8b ec		 mov	 ebp, esp
  00003	51		 push	 ecx
  00004	51		 push	 ecx
  00005	53		 push	 ebx
  00006	8b 5d 10	 mov	 ebx, DWORD PTR _fromMax$[ebp]
  00009	56		 push	 esi

; 372  : 	// /2를 FLOAT05로 변경
; 373  : 	float xmargin = min2( xymargin, (fromMax.x - fromMin.x) * FLOAT05 ), ymargin = min2( xymargin, (fromMax.y - fromMin.y) * FLOAT05 );

  0000a	b8 05 00 00 00	 mov	 eax, 5
  0000f	8b c8		 mov	 ecx, eax
  00011	b8 0a 00 00 00	 mov	 eax, 10			; 0000000aH
  00016	89 4d 10	 mov	 DWORD PTR tv722[ebp], ecx
  00019	db 45 10	 fild	 DWORD PTR tv722[ebp]
  0001c	85 c9		 test	 ecx, ecx
  0001e	79 06		 jns	 SHORT $LN47@adjustForJ
  00020	d8 05 00 00 00
	00		 fadd	 DWORD PTR __real@4f800000
$LN47@adjustForJ:
  00026	89 45 10	 mov	 DWORD PTR tv718[ebp], eax
  00029	db 45 10	 fild	 DWORD PTR tv718[ebp]
  0002c	85 c0		 test	 eax, eax
  0002e	79 06		 jns	 SHORT $LN48@adjustForJ
  00030	d8 05 00 00 00
	00		 fadd	 DWORD PTR __real@4f800000
$LN48@adjustForJ:
  00036	de f9		 fdivp	 ST(1), ST(0)
  00038	8b 4d 0c	 mov	 ecx, DWORD PTR _fromMin$[ebp]
  0003b	f3 0f 10 45 24	 movss	 xmm0, DWORD PTR _xymargin$[ebp]
  00040	d9 5d 10	 fstp	 DWORD PTR tv714[ebp]
  00043	d9 45 10	 fld	 DWORD PTR tv714[ebp]
  00046	d9 03		 fld	 DWORD PTR [ebx]
  00048	d8 21		 fsub	 DWORD PTR [ecx]
  0004a	de c9		 fmulp	 ST(1), ST(0)
  0004c	d9 5d 10	 fstp	 DWORD PTR $T509672[ebp]
  0004f	d9 45 24	 fld	 DWORD PTR _xymargin$[ebp]
  00052	d9 45 10	 fld	 DWORD PTR $T509672[ebp]
  00055	df f1		 fcomip	 ST(1)
  00057	dd d8		 fstp	 ST(0)
  00059	76 07		 jbe	 SHORT $LN29@adjustForJ
  0005b	f3 0f 11 45 10	 movss	 DWORD PTR _xmargin$[ebp], xmm0
  00060	eb 0a		 jmp	 SHORT $LN30@adjustForJ
$LN29@adjustForJ:
  00062	f3 0f 10 4d 10	 movss	 xmm1, DWORD PTR $T509672[ebp]
  00067	f3 0f 11 4d 10	 movss	 DWORD PTR _xmargin$[ebp], xmm1
$LN30@adjustForJ:
  0006c	b8 05 00 00 00	 mov	 eax, 5
  00071	8b d0		 mov	 edx, eax
  00073	b8 0a 00 00 00	 mov	 eax, 10			; 0000000aH
  00078	89 55 f8	 mov	 DWORD PTR tv701[ebp], edx
  0007b	db 45 f8	 fild	 DWORD PTR tv701[ebp]
  0007e	85 d2		 test	 edx, edx
  00080	79 06		 jns	 SHORT $LN49@adjustForJ
  00082	d8 05 00 00 00
	00		 fadd	 DWORD PTR __real@4f800000
$LN49@adjustForJ:
  00088	89 45 f8	 mov	 DWORD PTR tv697[ebp], eax
  0008b	db 45 f8	 fild	 DWORD PTR tv697[ebp]
  0008e	85 c0		 test	 eax, eax
  00090	79 06		 jns	 SHORT $LN50@adjustForJ
  00092	d8 05 00 00 00
	00		 fadd	 DWORD PTR __real@4f800000
$LN50@adjustForJ:
  00098	de f9		 fdivp	 ST(1), ST(0)
  0009a	d9 5d fc	 fstp	 DWORD PTR tv693[ebp]
  0009d	d9 45 fc	 fld	 DWORD PTR tv693[ebp]
  000a0	d9 43 04	 fld	 DWORD PTR [ebx+4]
  000a3	d8 61 04	 fsub	 DWORD PTR [ecx+4]
  000a6	de c9		 fmulp	 ST(1), ST(0)
  000a8	d9 5d fc	 fstp	 DWORD PTR $T509688[ebp]
  000ab	d9 45 24	 fld	 DWORD PTR _xymargin$[ebp]
  000ae	d9 45 fc	 fld	 DWORD PTR $T509688[ebp]
  000b1	df f1		 fcomip	 ST(1)
  000b3	dd d8		 fstp	 ST(0)
  000b5	77 05		 ja	 SHORT $LN55@adjustForJ
  000b7	f3 0f 10 45 fc	 movss	 xmm0, DWORD PTR $T509688[ebp]
$LN55@adjustForJ:
  000bc	f3 0f 11 45 fc	 movss	 DWORD PTR _ymargin$[ebp], xmm0
  000c1	57		 push	 edi

; 374  : 	float heightDiff = (toMax.z + toMin.z) * FLOAT05 - (fromMax.z + fromMin.z) * FLOAT05;

  000c2	b8 05 00 00 00	 mov	 eax, 5
  000c7	8b d0		 mov	 edx, eax
  000c9	b8 0a 00 00 00	 mov	 eax, 10			; 0000000aH
  000ce	8b f0		 mov	 esi, eax
  000d0	b8 05 00 00 00	 mov	 eax, 5
  000d5	8b f8		 mov	 edi, eax
  000d7	b8 0a 00 00 00	 mov	 eax, 10			; 0000000aH
  000dc	89 45 f8	 mov	 DWORD PTR $T509704[ebp], eax
  000df	8b 45 14	 mov	 eax, DWORD PTR _toMin$[ebp]
  000e2	d9 40 08	 fld	 DWORD PTR [eax+8]
  000e5	8b 45 18	 mov	 eax, DWORD PTR _toMax$[ebp]
  000e8	d8 40 08	 fadd	 DWORD PTR [eax+8]
  000eb	89 55 24	 mov	 DWORD PTR tv677[ebp], edx
  000ee	db 45 24	 fild	 DWORD PTR tv677[ebp]
  000f1	85 d2		 test	 edx, edx
  000f3	79 06		 jns	 SHORT $LN51@adjustForJ
  000f5	d8 05 00 00 00
	00		 fadd	 DWORD PTR __real@4f800000
$LN51@adjustForJ:
  000fb	89 75 24	 mov	 DWORD PTR tv673[ebp], esi
  000fe	db 45 24	 fild	 DWORD PTR tv673[ebp]
  00101	85 f6		 test	 esi, esi
  00103	79 06		 jns	 SHORT $LN52@adjustForJ
  00105	d8 05 00 00 00
	00		 fadd	 DWORD PTR __real@4f800000
$LN52@adjustForJ:
  0010b	de f9		 fdivp	 ST(1), ST(0)
  0010d	d9 5d 24	 fstp	 DWORD PTR tv667[ebp]
  00110	d8 4d 24	 fmul	 DWORD PTR tv667[ebp]
  00113	89 7d 24	 mov	 DWORD PTR tv660[ebp], edi
  00116	d9 41 08	 fld	 DWORD PTR [ecx+8]
  00119	d8 43 08	 fadd	 DWORD PTR [ebx+8]
  0011c	db 45 24	 fild	 DWORD PTR tv660[ebp]
  0011f	85 ff		 test	 edi, edi
  00121	79 06		 jns	 SHORT $LN53@adjustForJ
  00123	d8 05 00 00 00
	00		 fadd	 DWORD PTR __real@4f800000
$LN53@adjustForJ:
  00129	8b 45 f8	 mov	 eax, DWORD PTR $T509704[ebp]
  0012c	db 45 f8	 fild	 DWORD PTR $T509704[ebp]
  0012f	85 c0		 test	 eax, eax
  00131	79 06		 jns	 SHORT $LN54@adjustForJ
  00133	d8 05 00 00 00
	00		 fadd	 DWORD PTR __real@4f800000
$LN54@adjustForJ:
  00139	de f9		 fdivp	 ST(1), ST(0)

; 375  : 	outPos = pos;

  0013b	8b 75 08	 mov	 esi, DWORD PTR _pos$[ebp]
  0013e	8b 7d 28	 mov	 edi, DWORD PTR _outPos$[ebp]
  00141	a5		 movsd
  00142	a5		 movsd
  00143	a5		 movsd
  00144	5f		 pop	 edi
  00145	d9 5d 24	 fstp	 DWORD PTR tv650[ebp]
  00148	d8 4d 24	 fmul	 DWORD PTR tv650[ebp]
  0014b	de e9		 fsubp	 ST(1), ST(0)
  0014d	d9 5d 24	 fstp	 DWORD PTR _heightDiff$[ebp]

; 376  : 
; 377  : 	if ( heightDiff <= 0 )

  00150	d9 45 24	 fld	 DWORD PTR _heightDiff$[ebp]
  00153	d9 ee		 fldz
  00155	df f1		 fcomip	 ST(1)
  00157	dd d8		 fstp	 ST(0)
  00159	0f 83 7d 02 00
	00		 jae	 $LN1@adjustForJ

; 378  : 		return;
; 379  : 
; 380  : 	float d_total, d_over;
; 381  : 	getJumpValues( jumpCurveH, jumpCurveV, heightDiff, d_total, d_over );

  0015f	f3 0f 10 45 24	 movss	 xmm0, DWORD PTR _heightDiff$[ebp]
  00164	8d 45 24	 lea	 eax, DWORD PTR _d_total$[ebp]
  00167	50		 push	 eax
  00168	83 ec 0c	 sub	 esp, 12			; 0000000cH
  0016b	f3 0f 11 44 24
	08		 movss	 DWORD PTR [esp+8], xmm0
  00171	f3 0f 10 45 20	 movss	 xmm0, DWORD PTR _jumpCurveV$[ebp]
  00176	f3 0f 11 44 24
	04		 movss	 DWORD PTR [esp+4], xmm0
  0017c	f3 0f 10 45 1c	 movss	 xmm0, DWORD PTR _jumpCurveH$[ebp]
  00181	8d 75 08	 lea	 esi, DWORD PTR _d_over$[ebp]
  00184	f3 0f 11 04 24	 movss	 DWORD PTR [esp], xmm0
  00189	e8 00 00 00 00	 call	 ?getJumpValues@@YAXMMMAAM0@Z ; getJumpValues

; 382  : 
; 383  : 	if ( toMax.x <= fromMin.x ) {

  0018e	8b 4d 18	 mov	 ecx, DWORD PTR _toMax$[ebp]
  00191	8b 55 0c	 mov	 edx, DWORD PTR _fromMin$[ebp]
  00194	f3 0f 10 01	 movss	 xmm0, DWORD PTR [ecx]
  00198	f3 0f 10 0a	 movss	 xmm1, DWORD PTR [edx]

; 384  : 
; 385  : 		if ( d_over > toMax.x - toMin.x ) {

  0019c	8b 45 14	 mov	 eax, DWORD PTR _toMin$[ebp]
  0019f	0f 57 d2	 xorps	 xmm2, xmm2
  001a2	0f 57 db	 xorps	 xmm3, xmm3
  001a5	83 c4 10	 add	 esp, 16			; 00000010H
  001a8	0f 5a d0	 cvtps2pd xmm2, xmm0
  001ab	0f 5a d9	 cvtps2pd xmm3, xmm1
  001ae	66 0f 2f da	 comisd	 xmm3, xmm2
  001b2	72 77		 jb	 SHORT $LN19@adjustForJ
  001b4	f3 0f 10 08	 movss	 xmm1, DWORD PTR [eax]
  001b8	f3 0f 10 55 08	 movss	 xmm2, DWORD PTR _d_over$[ebp]
  001bd	0f 5a c0	 cvtps2pd xmm0, xmm0
  001c0	0f 5a d9	 cvtps2pd xmm3, xmm1
  001c3	f2 0f 5c c3	 subsd	 xmm0, xmm3
  001c7	66 0f 5a c0	 cvtpd2ps xmm0, xmm0
  001cb	0f 5a d2	 cvtps2pd xmm2, xmm2
  001ce	f3 0f 5a c0	 cvtss2sd xmm0, xmm0
  001d2	66 0f 2f d0	 comisd	 xmm2, xmm0
  001d6	0f 86 00 02 00
	00		 jbe	 $LN1@adjustForJ

; 386  : 			if ( d_total > xmargin + fromMax.x - toMin.x )

  001dc	f3 0f 10 65 10	 movss	 xmm4, DWORD PTR _xmargin$[ebp]
  001e1	f3 0f 10 03	 movss	 xmm0, DWORD PTR [ebx]
  001e5	f3 0f 10 55 24	 movss	 xmm2, DWORD PTR _d_total$[ebp]

; 387  : 				outPos.x = fromMax.x;

  001ea	8b 45 28	 mov	 eax, DWORD PTR _outPos$[ebp]
  001ed	0f 5a e4	 cvtps2pd xmm4, xmm4
  001f0	0f 5a d8	 cvtps2pd xmm3, xmm0
  001f3	f2 0f 58 dc	 addsd	 xmm3, xmm4
  001f7	0f 5a d2	 cvtps2pd xmm2, xmm2
  001fa	0f 5a e1	 cvtps2pd xmm4, xmm1
  001fd	f2 0f 5c dc	 subsd	 xmm3, xmm4
  00201	66 0f 2f d3	 comisd	 xmm2, xmm3

; 388  : 			else

  00205	0f 87 a9 00 00
	00		 ja	 $LN59@adjustForJ

; 389  : 				outPos.x = toMin.x + d_total + xmargin;

  0020b	0f 5a c1	 cvtps2pd xmm0, xmm1
  0020e	f3 0f 10 4d 24	 movss	 xmm1, DWORD PTR _d_total$[ebp]
  00213	0f 5a c9	 cvtps2pd xmm1, xmm1
  00216	f2 0f 58 c1	 addsd	 xmm0, xmm1
  0021a	f3 0f 10 4d 10	 movss	 xmm1, DWORD PTR _xmargin$[ebp]
  0021f	0f 5a c9	 cvtps2pd xmm1, xmm1
  00222	f2 0f 58 c1	 addsd	 xmm0, xmm1

; 390  : 		}

  00226	e9 85 00 00 00	 jmp	 $LN58@adjustForJ
$LN19@adjustForJ:

; 391  : 
; 392  : 	} else if ( fromMax.x <= toMin.x ) {

  0022b	f3 0f 10 10	 movss	 xmm2, DWORD PTR [eax]
  0022f	f3 0f 10 1b	 movss	 xmm3, DWORD PTR [ebx]
  00233	0f 5a db	 cvtps2pd xmm3, xmm3
  00236	0f 5a e2	 cvtps2pd xmm4, xmm2
  00239	66 0f 2f e3	 comisd	 xmm4, xmm3
  0023d	72 7e		 jb	 SHORT $LN14@adjustForJ

; 393  : 
; 394  : 		if ( d_over > toMax.x - toMin.x ) {

  0023f	f3 0f 10 5d 08	 movss	 xmm3, DWORD PTR _d_over$[ebp]
  00244	0f 5a d2	 cvtps2pd xmm2, xmm2
  00247	0f 5a e0	 cvtps2pd xmm4, xmm0
  0024a	f2 0f 5c e2	 subsd	 xmm4, xmm2
  0024e	0f 57 d2	 xorps	 xmm2, xmm2
  00251	66 0f 5a d4	 cvtpd2ps xmm2, xmm4
  00255	0f 5a db	 cvtps2pd xmm3, xmm3
  00258	0f 5a d2	 cvtps2pd xmm2, xmm2
  0025b	66 0f 2f da	 comisd	 xmm3, xmm2
  0025f	0f 86 77 01 00
	00		 jbe	 $LN1@adjustForJ

; 395  : 			if ( d_total > xmargin + toMax.x - fromMin.x )

  00265	f3 0f 10 65 10	 movss	 xmm4, DWORD PTR _xmargin$[ebp]
  0026a	f3 0f 10 55 24	 movss	 xmm2, DWORD PTR _d_total$[ebp]

; 396  : 				outPos.x = fromMin.x;

  0026f	8b 45 28	 mov	 eax, DWORD PTR _outPos$[ebp]
  00272	0f 5a e4	 cvtps2pd xmm4, xmm4
  00275	0f 5a d8	 cvtps2pd xmm3, xmm0
  00278	f2 0f 58 dc	 addsd	 xmm3, xmm4
  0027c	0f 5a d2	 cvtps2pd xmm2, xmm2
  0027f	0f 5a e1	 cvtps2pd xmm4, xmm1
  00282	f2 0f 5c dc	 subsd	 xmm3, xmm4
  00286	66 0f 2f d3	 comisd	 xmm2, xmm3
  0028a	76 09		 jbe	 SHORT $LN12@adjustForJ
  0028c	f3 0f 11 08	 movss	 DWORD PTR [eax], xmm1

; 397  : 			else

  00290	e9 47 01 00 00	 jmp	 $LN1@adjustForJ
$LN12@adjustForJ:

; 398  : 				outPos.x = toMax.x - d_total - xmargin;

  00295	f3 0f 10 4d 24	 movss	 xmm1, DWORD PTR _d_total$[ebp]
  0029a	0f 5a c9	 cvtps2pd xmm1, xmm1
  0029d	0f 5a c0	 cvtps2pd xmm0, xmm0
  002a0	f2 0f 5c c1	 subsd	 xmm0, xmm1
  002a4	f3 0f 10 4d 10	 movss	 xmm1, DWORD PTR _xmargin$[ebp]
  002a9	0f 5a c9	 cvtps2pd xmm1, xmm1
  002ac	f2 0f 5c c1	 subsd	 xmm0, xmm1
$LN58@adjustForJ:
  002b0	66 0f 5a c0	 cvtpd2ps xmm0, xmm0
$LN59@adjustForJ:
  002b4	f3 0f 11 00	 movss	 DWORD PTR [eax], xmm0

; 399  : 		}

  002b8	e9 1f 01 00 00	 jmp	 $LN1@adjustForJ
$LN14@adjustForJ:

; 400  : 
; 401  : 	} else if ( toMax.y <= fromMin.y ) {

  002bd	f3 0f 10 41 04	 movss	 xmm0, DWORD PTR [ecx+4]
  002c2	f3 0f 10 4a 04	 movss	 xmm1, DWORD PTR [edx+4]
  002c7	0f 57 d2	 xorps	 xmm2, xmm2
  002ca	0f 57 db	 xorps	 xmm3, xmm3
  002cd	0f 5a d0	 cvtps2pd xmm2, xmm0
  002d0	0f 5a d9	 cvtps2pd xmm3, xmm1
  002d3	66 0f 2f da	 comisd	 xmm3, xmm2
  002d7	72 79		 jb	 SHORT $LN9@adjustForJ

; 402  : 
; 403  : 		if ( d_over > toMax.y - toMin.y ) {

  002d9	f3 0f 10 48 04	 movss	 xmm1, DWORD PTR [eax+4]
  002de	f3 0f 10 55 08	 movss	 xmm2, DWORD PTR _d_over$[ebp]
  002e3	0f 5a c0	 cvtps2pd xmm0, xmm0
  002e6	0f 5a d9	 cvtps2pd xmm3, xmm1
  002e9	f2 0f 5c c3	 subsd	 xmm0, xmm3
  002ed	66 0f 5a c0	 cvtpd2ps xmm0, xmm0
  002f1	0f 5a d2	 cvtps2pd xmm2, xmm2
  002f4	f3 0f 5a c0	 cvtss2sd xmm0, xmm0
  002f8	66 0f 2f d0	 comisd	 xmm2, xmm0
  002fc	0f 86 da 00 00
	00		 jbe	 $LN1@adjustForJ

; 404  : 			if ( d_total > ymargin + fromMax.y - toMin.y )

  00302	f3 0f 10 65 fc	 movss	 xmm4, DWORD PTR _ymargin$[ebp]
  00307	f3 0f 10 43 04	 movss	 xmm0, DWORD PTR [ebx+4]
  0030c	f3 0f 10 55 24	 movss	 xmm2, DWORD PTR _d_total$[ebp]

; 405  : 				outPos.y = fromMax.y;

  00311	8b 45 28	 mov	 eax, DWORD PTR _outPos$[ebp]
  00314	0f 5a e4	 cvtps2pd xmm4, xmm4
  00317	0f 5a d8	 cvtps2pd xmm3, xmm0
  0031a	f2 0f 58 dc	 addsd	 xmm3, xmm4
  0031e	0f 5a d2	 cvtps2pd xmm2, xmm2
  00321	0f 5a e1	 cvtps2pd xmm4, xmm1
  00324	f2 0f 5c dc	 subsd	 xmm3, xmm4
  00328	66 0f 2f d3	 comisd	 xmm2, xmm3

; 406  : 			else

  0032c	0f 87 a5 00 00
	00		 ja	 $LN56@adjustForJ

; 407  : 				outPos.y = toMin.y + d_total + ymargin;

  00332	0f 5a c1	 cvtps2pd xmm0, xmm1
  00335	f3 0f 10 4d 24	 movss	 xmm1, DWORD PTR _d_total$[ebp]
  0033a	0f 5a c9	 cvtps2pd xmm1, xmm1
  0033d	f2 0f 58 c1	 addsd	 xmm0, xmm1
  00341	f3 0f 10 4d fc	 movss	 xmm1, DWORD PTR _ymargin$[ebp]
  00346	0f 5a c9	 cvtps2pd xmm1, xmm1
  00349	f2 0f 58 c1	 addsd	 xmm0, xmm1

; 408  : 		}

  0034d	e9 81 00 00 00	 jmp	 $LN57@adjustForJ
$LN9@adjustForJ:

; 409  : 
; 410  : 	} else if ( fromMax.y <= toMin.y ) {

  00352	f3 0f 10 50 04	 movss	 xmm2, DWORD PTR [eax+4]
  00357	f3 0f 10 5b 04	 movss	 xmm3, DWORD PTR [ebx+4]
  0035c	0f 5a db	 cvtps2pd xmm3, xmm3
  0035f	0f 5a e2	 cvtps2pd xmm4, xmm2
  00362	66 0f 2f e3	 comisd	 xmm4, xmm3
  00366	72 74		 jb	 SHORT $LN1@adjustForJ

; 411  : 
; 412  : 		if ( d_over > toMax.y - toMin.y ) {

  00368	f3 0f 10 5d 08	 movss	 xmm3, DWORD PTR _d_over$[ebp]
  0036d	0f 5a d2	 cvtps2pd xmm2, xmm2
  00370	0f 5a e0	 cvtps2pd xmm4, xmm0
  00373	f2 0f 5c e2	 subsd	 xmm4, xmm2
  00377	0f 57 d2	 xorps	 xmm2, xmm2
  0037a	66 0f 5a d4	 cvtpd2ps xmm2, xmm4
  0037e	0f 5a db	 cvtps2pd xmm3, xmm3
  00381	0f 5a d2	 cvtps2pd xmm2, xmm2
  00384	66 0f 2f da	 comisd	 xmm3, xmm2
  00388	76 52		 jbe	 SHORT $LN1@adjustForJ

; 413  : 			if ( d_total > ymargin + toMax.y - fromMin.y )

  0038a	f3 0f 10 65 fc	 movss	 xmm4, DWORD PTR _ymargin$[ebp]
  0038f	f3 0f 10 55 24	 movss	 xmm2, DWORD PTR _d_total$[ebp]

; 414  : 				outPos.y = fromMin.y;

  00394	8b 45 28	 mov	 eax, DWORD PTR _outPos$[ebp]
  00397	0f 5a e4	 cvtps2pd xmm4, xmm4
  0039a	0f 5a d8	 cvtps2pd xmm3, xmm0
  0039d	f2 0f 58 dc	 addsd	 xmm3, xmm4
  003a1	0f 5a d2	 cvtps2pd xmm2, xmm2
  003a4	0f 5a e1	 cvtps2pd xmm4, xmm1
  003a7	f2 0f 5c dc	 subsd	 xmm3, xmm4
  003ab	66 0f 2f d3	 comisd	 xmm2, xmm3
  003af	76 07		 jbe	 SHORT $LN2@adjustForJ
  003b1	f3 0f 11 48 04	 movss	 DWORD PTR [eax+4], xmm1

; 415  : 			else

  003b6	eb 24		 jmp	 SHORT $LN1@adjustForJ
$LN2@adjustForJ:

; 416  : 				outPos.y = toMax.y - d_total - ymargin;

  003b8	f3 0f 10 4d 24	 movss	 xmm1, DWORD PTR _d_total$[ebp]
  003bd	0f 5a c9	 cvtps2pd xmm1, xmm1
  003c0	0f 5a c0	 cvtps2pd xmm0, xmm0
  003c3	f2 0f 5c c1	 subsd	 xmm0, xmm1
  003c7	f3 0f 10 4d fc	 movss	 xmm1, DWORD PTR _ymargin$[ebp]
  003cc	0f 5a c9	 cvtps2pd xmm1, xmm1
  003cf	f2 0f 5c c1	 subsd	 xmm0, xmm1
$LN57@adjustForJ:
  003d3	66 0f 5a c0	 cvtpd2ps xmm0, xmm0
$LN56@adjustForJ:
  003d7	f3 0f 11 40 04	 movss	 DWORD PTR [eax+4], xmm0
$LN1@adjustForJ:
  003dc	5e		 pop	 esi
  003dd	5b		 pop	 ebx

; 417  : 		}
; 418  : 	} 
; 419  : }

  003de	c9		 leave
  003df	c3		 ret	 0
?adjustForJump@@YAXABUD3DXVECTOR3@@0000MMMAAU1@@Z ENDP	; adjustForJump
_TEXT	ENDS
PUBLIC	??1bad_alloc@std@@UAE@XZ			; std::bad_alloc::~bad_alloc
EXTRN	__imp_??1exception@std@@UAE@XZ:PROC
; Function compile flags: /Ogsp
; File c:\program files (x86)\microsoft visual studio 10.0\vc\include\exception
;	COMDAT ??1bad_alloc@std@@UAE@XZ
_TEXT	SEGMENT
??1bad_alloc@std@@UAE@XZ PROC				; std::bad_alloc::~bad_alloc, COMDAT
; _this$ = ecx

; 354  : 		{	// destroy the object

  00000	c7 01 00 00 00
	00		 mov	 DWORD PTR [ecx], OFFSET ??_7bad_alloc@std@@6B@

; 355  : 		}

  00006	ff 25 00 00 00
	00		 jmp	 DWORD PTR __imp_??1exception@std@@UAE@XZ
??1bad_alloc@std@@UAE@XZ ENDP				; std::bad_alloc::~bad_alloc
_TEXT	ENDS
EXTRN	??3@YAXPAX@Z:PROC				; operator delete
; Function compile flags: /Ogsp
;	COMDAT ??_Gbad_alloc@std@@UAEPAXI@Z
_TEXT	SEGMENT
___flags$ = 8						; size = 4
??_Gbad_alloc@std@@UAEPAXI@Z PROC			; std::bad_alloc::`scalar deleting destructor', COMDAT
; _this$ = ecx
  00000	55		 push	 ebp
  00001	8b ec		 mov	 ebp, esp
  00003	56		 push	 esi
  00004	8b f1		 mov	 esi, ecx
  00006	c7 06 00 00 00
	00		 mov	 DWORD PTR [esi], OFFSET ??_7bad_alloc@std@@6B@
  0000c	ff 15 00 00 00
	00		 call	 DWORD PTR __imp_??1exception@std@@UAE@XZ
  00012	f6 45 08 01	 test	 BYTE PTR ___flags$[ebp], 1
  00016	74 07		 je	 SHORT $LN1@scalar
  00018	56		 push	 esi
  00019	e8 00 00 00 00	 call	 ??3@YAXPAX@Z		; operator delete
  0001e	59		 pop	 ecx
$LN1@scalar:
  0001f	8b c6		 mov	 eax, esi
  00021	5e		 pop	 esi
  00022	5d		 pop	 ebp
  00023	c2 04 00	 ret	 4
??_Gbad_alloc@std@@UAEPAXI@Z ENDP			; std::bad_alloc::`scalar deleting destructor'
_TEXT	ENDS
PUBLIC	??2@YAPAXIPAX@Z					; operator new
; Function compile flags: /Ogsp
; File c:\program files (x86)\microsoft visual studio 10.0\vc\include\new
;	COMDAT ??2@YAPAXIPAX@Z
_TEXT	SEGMENT
___formal$ = 8						; size = 4
__Where$ = 12						; size = 4
??2@YAPAXIPAX@Z PROC					; operator new, COMDAT

; 56   : 	{	// construct array with placement at _Where

  00000	55		 push	 ebp
  00001	8b ec		 mov	 ebp, esp

; 57   : 	return (_Where);

  00003	8b 45 0c	 mov	 eax, DWORD PTR __Where$[ebp]

; 58   : 	}

  00006	5d		 pop	 ebp
  00007	c3		 ret	 0
??2@YAPAXIPAX@Z ENDP					; operator new
_TEXT	ENDS
PUBLIC	??3@YAXPAX0@Z					; operator delete
; Function compile flags: /Ogsp
;	COMDAT ??3@YAXPAX0@Z
_TEXT	SEGMENT
___formal$ = 8						; size = 4
___formal$ = 12						; size = 4
??3@YAXPAX0@Z PROC					; operator delete, COMDAT

; 62   : 	}

  00000	c3		 ret	 0
??3@YAXPAX0@Z ENDP					; operator delete
_TEXT	ENDS
PUBLIC	?length@?$char_traits@D@std@@SAIPBD@Z		; std::char_traits<char>::length
; Function compile flags: /Ogsp
; File c:\program files (x86)\microsoft visual studio 10.0\vc\include\iosfwd
;	COMDAT ?length@?$char_traits@D@std@@SAIPBD@Z
_TEXT	SEGMENT
__First$ = 8						; size = 4
?length@?$char_traits@D@std@@SAIPBD@Z PROC		; std::char_traits<char>::length, COMDAT

; 490  : 		{	// find length of null-terminated string

  00000	55		 push	 ebp
  00001	8b ec		 mov	 ebp, esp

; 491  : 		return (_CSTD strlen(_First));

  00003	8b 45 08	 mov	 eax, DWORD PTR __First$[ebp]
  00006	8d 50 01	 lea	 edx, DWORD PTR [eax+1]
$LL3@length:
  00009	8a 08		 mov	 cl, BYTE PTR [eax]
  0000b	40		 inc	 eax
  0000c	84 c9		 test	 cl, cl
  0000e	75 f9		 jne	 SHORT $LL3@length
  00010	2b c2		 sub	 eax, edx

; 492  : 		}

  00012	5d		 pop	 ebp
  00013	c3		 ret	 0
?length@?$char_traits@D@std@@SAIPBD@Z ENDP		; std::char_traits<char>::length
_TEXT	ENDS
PUBLIC	?copy@?$char_traits@D@std@@SAPADPADPBDI@Z	; std::char_traits<char>::copy
EXTRN	_memcpy:PROC
; Function compile flags: /Ogsp
;	COMDAT ?copy@?$char_traits@D@std@@SAPADPADPBDI@Z
_TEXT	SEGMENT
__First1$ = 8						; size = 4
__First2$ = 12						; size = 4
__Count$ = 16						; size = 4
?copy@?$char_traits@D@std@@SAPADPADPBDI@Z PROC		; std::char_traits<char>::copy, COMDAT

; 496  : 		{	// copy [_First1, _First1 + _Count) to [_First2, ...)

  00000	55		 push	 ebp
  00001	8b ec		 mov	 ebp, esp

; 498  : 		}

  00003	5d		 pop	 ebp

; 497  : 		return ((_Elem *)_CSTD memcpy(_First1, _First2, _Count));

  00004	e9 00 00 00 00	 jmp	 _memcpy
?copy@?$char_traits@D@std@@SAPADPADPBDI@Z ENDP		; std::char_traits<char>::copy
_TEXT	ENDS
PUBLIC	?move@?$char_traits@D@std@@SAPADPADPBDI@Z	; std::char_traits<char>::move
EXTRN	__imp__memmove:PROC
; Function compile flags: /Ogsp
;	COMDAT ?move@?$char_traits@D@std@@SAPADPADPBDI@Z
_TEXT	SEGMENT
__First1$ = 8						; size = 4
__First2$ = 12						; size = 4
__Count$ = 16						; size = 4
?move@?$char_traits@D@std@@SAPADPADPBDI@Z PROC		; std::char_traits<char>::move, COMDAT

; 516  : 		{	// copy [_First1, _First1 + _Count) to [_First2, ...)

  00000	55		 push	 ebp
  00001	8b ec		 mov	 ebp, esp

; 518  : 		}

  00003	5d		 pop	 ebp

; 517  : 		return ((_Elem *)_CSTD memmove(_First1, _First2, _Count));

  00004	ff 25 00 00 00
	00		 jmp	 DWORD PTR __imp__memmove
?move@?$char_traits@D@std@@SAPADPADPBDI@Z ENDP		; std::char_traits<char>::move
_TEXT	ENDS
PUBLIC	?assign@?$char_traits@D@std@@SAXAADABD@Z	; std::char_traits<char>::assign
; Function compile flags: /Ogsp
;	COMDAT ?assign@?$char_traits@D@std@@SAXAADABD@Z
_TEXT	SEGMENT
__Left$ = 8						; size = 4
__Right$ = 12						; size = 4
?assign@?$char_traits@D@std@@SAXAADABD@Z PROC		; std::char_traits<char>::assign, COMDAT

; 526  : 		{	// assign an element

  00000	55		 push	 ebp
  00001	8b ec		 mov	 ebp, esp

; 527  : 		_Left = _Right;

  00003	8b 45 0c	 mov	 eax, DWORD PTR __Right$[ebp]
  00006	8a 00		 mov	 al, BYTE PTR [eax]
  00008	8b 4d 08	 mov	 ecx, DWORD PTR __Left$[ebp]
  0000b	88 01		 mov	 BYTE PTR [ecx], al

; 528  : 		}

  0000d	5d		 pop	 ebp
  0000e	c3		 ret	 0
?assign@?$char_traits@D@std@@SAXAADABD@Z ENDP		; std::char_traits<char>::assign
_TEXT	ENDS
PUBLIC	?size@?$vector@FV?$allocator@F@std@@@std@@QBEIXZ ; std::vector<short,std::allocator<short> >::size
; Function compile flags: /Ogsp
; File c:\program files (x86)\microsoft visual studio 10.0\vc\include\vector
;	COMDAT ?size@?$vector@FV?$allocator@F@std@@@std@@QBEIXZ
_TEXT	SEGMENT
?size@?$vector@FV?$allocator@F@std@@@std@@QBEIXZ PROC	; std::vector<short,std::allocator<short> >::size, COMDAT
; _this$ = ecx

; 879  : 		return (this->_Mylast - this->_Myfirst);

  00000	8b 41 04	 mov	 eax, DWORD PTR [ecx+4]
  00003	2b 01		 sub	 eax, DWORD PTR [ecx]
  00005	d1 f8		 sar	 eax, 1

; 880  : 		}

  00007	c3		 ret	 0
?size@?$vector@FV?$allocator@F@std@@@std@@QBEIXZ ENDP	; std::vector<short,std::allocator<short> >::size
_TEXT	ENDS
PUBLIC	??A?$vector@FV?$allocator@F@std@@@std@@QAEAAFI@Z ; std::vector<short,std::allocator<short> >::operator[]
; Function compile flags: /Ogsp
;	COMDAT ??A?$vector@FV?$allocator@F@std@@@std@@QAEAAFI@Z
_TEXT	SEGMENT
__Pos$ = 8						; size = 4
??A?$vector@FV?$allocator@F@std@@@std@@QAEAAFI@Z PROC	; std::vector<short,std::allocator<short> >::operator[], COMDAT
; _this$ = ecx

; 928  : 		{	// subscript mutable sequence

  00000	55		 push	 ebp
  00001	8b ec		 mov	 ebp, esp

; 929  :  #if _ITERATOR_DEBUG_LEVEL == 2
; 930  : 		if (size() <= _Pos)
; 931  : 			{	// report error
; 932  : 			_DEBUG_ERROR("vector subscript out of range");
; 933  : 			_SCL_SECURE_OUT_OF_RANGE;
; 934  : 			}
; 935  : 
; 936  :  #elif _ITERATOR_DEBUG_LEVEL == 1
; 937  : 		_SCL_SECURE_VALIDATE_RANGE(_Pos < size());
; 938  :  #endif /* _ITERATOR_DEBUG_LEVEL */
; 939  : 
; 940  : 		return (*(this->_Myfirst + _Pos));

  00003	8b 01		 mov	 eax, DWORD PTR [ecx]
  00005	8b 4d 08	 mov	 ecx, DWORD PTR __Pos$[ebp]
  00008	8d 04 48	 lea	 eax, DWORD PTR [eax+ecx*2]

; 941  : 		}

  0000b	5d		 pop	 ebp
  0000c	c2 04 00	 ret	 4
??A?$vector@FV?$allocator@F@std@@@std@@QAEAAFI@Z ENDP	; std::vector<short,std::allocator<short> >::operator[]
_TEXT	ENDS
PUBLIC	?size@?$vector@ULink@BoxSpace@@V?$allocator@ULink@BoxSpace@@@std@@@std@@QBEIXZ ; std::vector<BoxSpace::Link,std::allocator<BoxSpace::Link> >::size
; Function compile flags: /Ogsp
;	COMDAT ?size@?$vector@ULink@BoxSpace@@V?$allocator@ULink@BoxSpace@@@std@@@std@@QBEIXZ
_TEXT	SEGMENT
?size@?$vector@ULink@BoxSpace@@V?$allocator@ULink@BoxSpace@@@std@@@std@@QBEIXZ PROC ; std::vector<BoxSpace::Link,std::allocator<BoxSpace::Link> >::size, COMDAT
; _this$ = ecx

; 879  : 		return (this->_Mylast - this->_Myfirst);

  00000	8b 41 04	 mov	 eax, DWORD PTR [ecx+4]
  00003	2b 01		 sub	 eax, DWORD PTR [ecx]
  00005	c1 f8 05	 sar	 eax, 5

; 880  : 		}

  00008	c3		 ret	 0
?size@?$vector@ULink@BoxSpace@@V?$allocator@ULink@BoxSpace@@@std@@@std@@QBEIXZ ENDP ; std::vector<BoxSpace::Link,std::allocator<BoxSpace::Link> >::size
_TEXT	ENDS
PUBLIC	??A?$vector@ULink@BoxSpace@@V?$allocator@ULink@BoxSpace@@@std@@@std@@QAEAAULink@BoxSpace@@I@Z ; std::vector<BoxSpace::Link,std::allocator<BoxSpace::Link> >::operator[]
; Function compile flags: /Ogsp
;	COMDAT ??A?$vector@ULink@BoxSpace@@V?$allocator@ULink@BoxSpace@@@std@@@std@@QAEAAULink@BoxSpace@@I@Z
_TEXT	SEGMENT
__Pos$ = 8						; size = 4
??A?$vector@ULink@BoxSpace@@V?$allocator@ULink@BoxSpace@@@std@@@std@@QAEAAULink@BoxSpace@@I@Z PROC ; std::vector<BoxSpace::Link,std::allocator<BoxSpace::Link> >::operator[], COMDAT
; _this$ = ecx

; 928  : 		{	// subscript mutable sequence

  00000	55		 push	 ebp
  00001	8b ec		 mov	 ebp, esp

; 929  :  #if _ITERATOR_DEBUG_LEVEL == 2
; 930  : 		if (size() <= _Pos)
; 931  : 			{	// report error
; 932  : 			_DEBUG_ERROR("vector subscript out of range");
; 933  : 			_SCL_SECURE_OUT_OF_RANGE;
; 934  : 			}
; 935  : 
; 936  :  #elif _ITERATOR_DEBUG_LEVEL == 1
; 937  : 		_SCL_SECURE_VALIDATE_RANGE(_Pos < size());
; 938  :  #endif /* _ITERATOR_DEBUG_LEVEL */
; 939  : 
; 940  : 		return (*(this->_Myfirst + _Pos));

  00003	8b 45 08	 mov	 eax, DWORD PTR __Pos$[ebp]
  00006	c1 e0 05	 shl	 eax, 5
  00009	03 01		 add	 eax, DWORD PTR [ecx]

; 941  : 		}

  0000b	5d		 pop	 ebp
  0000c	c2 04 00	 ret	 4
??A?$vector@ULink@BoxSpace@@V?$allocator@ULink@BoxSpace@@@std@@@std@@QAEAAULink@BoxSpace@@I@Z ENDP ; std::vector<BoxSpace::Link,std::allocator<BoxSpace::Link> >::operator[]
_TEXT	ENDS
PUBLIC	??A?$vector@UBox@BoxSpace@@V?$allocator@UBox@BoxSpace@@@std@@@std@@QAEAAUBox@BoxSpace@@I@Z ; std::vector<BoxSpace::Box,std::allocator<BoxSpace::Box> >::operator[]
; Function compile flags: /Ogsp
;	COMDAT ??A?$vector@UBox@BoxSpace@@V?$allocator@UBox@BoxSpace@@@std@@@std@@QAEAAUBox@BoxSpace@@I@Z
_TEXT	SEGMENT
__Pos$ = 8						; size = 4
??A?$vector@UBox@BoxSpace@@V?$allocator@UBox@BoxSpace@@@std@@@std@@QAEAAUBox@BoxSpace@@I@Z PROC ; std::vector<BoxSpace::Box,std::allocator<BoxSpace::Box> >::operator[], COMDAT
; _this$ = ecx

; 928  : 		{	// subscript mutable sequence

  00000	55		 push	 ebp
  00001	8b ec		 mov	 ebp, esp

; 929  :  #if _ITERATOR_DEBUG_LEVEL == 2
; 930  : 		if (size() <= _Pos)
; 931  : 			{	// report error
; 932  : 			_DEBUG_ERROR("vector subscript out of range");
; 933  : 			_SCL_SECURE_OUT_OF_RANGE;
; 934  : 			}
; 935  : 
; 936  :  #elif _ITERATOR_DEBUG_LEVEL == 1
; 937  : 		_SCL_SECURE_VALIDATE_RANGE(_Pos < size());
; 938  :  #endif /* _ITERATOR_DEBUG_LEVEL */
; 939  : 
; 940  : 		return (*(this->_Myfirst + _Pos));

  00003	8b 45 08	 mov	 eax, DWORD PTR __Pos$[ebp]
  00006	6b c0 58	 imul	 eax, 88			; 00000058H
  00009	03 01		 add	 eax, DWORD PTR [ecx]

; 941  : 		}

  0000b	5d		 pop	 ebp
  0000c	c2 04 00	 ret	 4
??A?$vector@UBox@BoxSpace@@V?$allocator@UBox@BoxSpace@@@std@@@std@@QAEAAUBox@BoxSpace@@I@Z ENDP ; std::vector<BoxSpace::Box,std::allocator<BoxSpace::Box> >::operator[]
_TEXT	ENDS
PUBLIC	??D?$_Vector_const_iterator@V?$_Vector_val@ULink@BoxSpace@@V?$allocator@ULink@BoxSpace@@@std@@@std@@@std@@QBEABULink@BoxSpace@@XZ ; std::_Vector_const_iterator<std::_Vector_val<BoxSpace::Link,std::allocator<BoxSpace::Link> > >::operator*
; Function compile flags: /Ogsp
;	COMDAT ??D?$_Vector_const_iterator@V?$_Vector_val@ULink@BoxSpace@@V?$allocator@ULink@BoxSpace@@@std@@@std@@@std@@QBEABULink@BoxSpace@@XZ
_TEXT	SEGMENT
??D?$_Vector_const_iterator@V?$_Vector_val@ULink@BoxSpace@@V?$allocator@ULink@BoxSpace@@@std@@@std@@@std@@QBEABULink@BoxSpace@@XZ PROC ; std::_Vector_const_iterator<std::_Vector_val<BoxSpace::Link,std::allocator<BoxSpace::Link> > >::operator*, COMDAT
; _this$ = ecx

; 64   :  #if _ITERATOR_DEBUG_LEVEL == 2
; 65   : 		if (this->_Getcont() == 0
; 66   : 			|| this->_Ptr == 0
; 67   : 			|| this->_Ptr < ((_Myvec *)this->_Getcont())->_Myfirst
; 68   : 			|| ((_Myvec *)this->_Getcont())->_Mylast <= this->_Ptr)
; 69   : 			{	// report error
; 70   : 			_DEBUG_ERROR("vector iterator not dereferencable");
; 71   : 			_SCL_SECURE_OUT_OF_RANGE;
; 72   : 			}
; 73   : 
; 74   :  #elif _ITERATOR_DEBUG_LEVEL == 1
; 75   : 		_SCL_SECURE_VALIDATE(this->_Getcont() != 0);
; 76   : 		_SCL_SECURE_VALIDATE_RANGE(
; 77   : 			this->_Ptr != 0
; 78   : 			&& ((_Myvec *)this->_Getcont())->_Myfirst <= this->_Ptr
; 79   : 			&& this->_Ptr < ((_Myvec *)this->_Getcont())->_Mylast);
; 80   :  #endif /* _ITERATOR_DEBUG_LEVEL */
; 81   : 
; 82   : 		__analysis_assume(this->_Ptr != 0);
; 83   : 
; 84   : 		return (*this->_Ptr);

  00000	8b 01		 mov	 eax, DWORD PTR [ecx]

; 85   : 		}

  00002	c3		 ret	 0
??D?$_Vector_const_iterator@V?$_Vector_val@ULink@BoxSpace@@V?$allocator@ULink@BoxSpace@@@std@@@std@@@std@@QBEABULink@BoxSpace@@XZ ENDP ; std::_Vector_const_iterator<std::_Vector_val<BoxSpace::Link,std::allocator<BoxSpace::Link> > >::operator*
_TEXT	ENDS
PUBLIC	?capacity@?$vector@FV?$allocator@F@std@@@std@@QBEIXZ ; std::vector<short,std::allocator<short> >::capacity
; Function compile flags: /Ogsp
;	COMDAT ?capacity@?$vector@FV?$allocator@F@std@@@std@@QBEIXZ
_TEXT	SEGMENT
?capacity@?$vector@FV?$allocator@F@std@@@std@@QBEIXZ PROC ; std::vector<short,std::allocator<short> >::capacity, COMDAT
; _this$ = ecx

; 777  : 		return (this->_Myend - this->_Myfirst);

  00000	8b 41 08	 mov	 eax, DWORD PTR [ecx+8]
  00003	2b 01		 sub	 eax, DWORD PTR [ecx]
  00005	d1 f8		 sar	 eax, 1

; 778  : 		}

  00007	c3		 ret	 0
?capacity@?$vector@FV?$allocator@F@std@@@std@@QBEIXZ ENDP ; std::vector<short,std::allocator<short> >::capacity
_TEXT	ENDS
PUBLIC	?_Inside@?$vector@FV?$allocator@F@std@@@std@@IBE_NPBF@Z ; std::vector<short,std::allocator<short> >::_Inside
; Function compile flags: /Ogsp
;	COMDAT ?_Inside@?$vector@FV?$allocator@F@std@@@std@@IBE_NPBF@Z
_TEXT	SEGMENT
__Ptr$ = 8						; size = 4
?_Inside@?$vector@FV?$allocator@F@std@@@std@@IBE_NPBF@Z PROC ; std::vector<short,std::allocator<short> >::_Inside, COMDAT
; _this$ = ecx

; 1285 : 		{	// test if _Ptr points inside vector

  00000	55		 push	 ebp
  00001	8b ec		 mov	 ebp, esp

; 1286 : 		return (_Ptr < this->_Mylast && this->_Myfirst <= _Ptr);

  00003	8b 45 08	 mov	 eax, DWORD PTR __Ptr$[ebp]
  00006	3b 41 04	 cmp	 eax, DWORD PTR [ecx+4]
  00009	73 09		 jae	 SHORT $LN3@Inside
  0000b	39 01		 cmp	 DWORD PTR [ecx], eax
  0000d	77 05		 ja	 SHORT $LN3@Inside
  0000f	33 c0		 xor	 eax, eax
  00011	40		 inc	 eax
  00012	eb 02		 jmp	 SHORT $LN4@Inside
$LN3@Inside:
  00014	33 c0		 xor	 eax, eax
$LN4@Inside:

; 1287 : 		}

  00016	5d		 pop	 ebp
  00017	c2 04 00	 ret	 4
?_Inside@?$vector@FV?$allocator@F@std@@@std@@IBE_NPBF@Z ENDP ; std::vector<short,std::allocator<short> >::_Inside
_TEXT	ENDS
PUBLIC	??_C@_0BD@OLBABOEK@vector?$DMT?$DO?5too?5long?$AA@ ; `string'
PUBLIC	?_Xlen@?$vector@FV?$allocator@F@std@@@std@@IBEXXZ ; std::vector<short,std::allocator<short> >::_Xlen
EXTRN	__imp_?_Xlength_error@std@@YAXPBD@Z:PROC
;	COMDAT ??_C@_0BD@OLBABOEK@vector?$DMT?$DO?5too?5long?$AA@
CONST	SEGMENT
??_C@_0BD@OLBABOEK@vector?$DMT?$DO?5too?5long?$AA@ DB 'vector<T> too long'
	DB	00H						; `string'
; Function compile flags: /Ogsp
CONST	ENDS
;	COMDAT ?_Xlen@?$vector@FV?$allocator@F@std@@@std@@IBEXXZ
_TEXT	SEGMENT
?_Xlen@?$vector@FV?$allocator@F@std@@@std@@IBEXXZ PROC	; std::vector<short,std::allocator<short> >::_Xlen, COMDAT
; _this$ = ecx

; 1427 : 		_Xlength_error("vector<T> too long");

  00000	68 00 00 00 00	 push	 OFFSET ??_C@_0BD@OLBABOEK@vector?$DMT?$DO?5too?5long?$AA@
  00005	ff 15 00 00 00
	00		 call	 DWORD PTR __imp_?_Xlength_error@std@@YAXPBD@Z
$LN4@Xlen:
$LN3@Xlen:
  0000b	cc		 int	 3
?_Xlen@?$vector@FV?$allocator@F@std@@@std@@IBEXXZ ENDP	; std::vector<short,std::allocator<short> >::_Xlen
_TEXT	ENDS
PUBLIC	?_Orphan_range@?$vector@FV?$allocator@F@std@@@std@@IBEXPAF0@Z ; std::vector<short,std::allocator<short> >::_Orphan_range
; Function compile flags: /Ogsp
;	COMDAT ?_Orphan_range@?$vector@FV?$allocator@F@std@@@std@@IBEXPAF0@Z
_TEXT	SEGMENT
___formal$ = 8						; size = 4
___formal$ = 12						; size = 4
?_Orphan_range@?$vector@FV?$allocator@F@std@@@std@@IBEXPAF0@Z PROC ; std::vector<short,std::allocator<short> >::_Orphan_range, COMDAT
; _this$ = ecx

; 1454 : 		}

  00000	c2 08 00	 ret	 8
?_Orphan_range@?$vector@FV?$allocator@F@std@@@std@@IBEXPAF0@Z ENDP ; std::vector<short,std::allocator<short> >::_Orphan_range
_TEXT	ENDS
PUBLIC	?_Inside@?$vector@ULink@BoxSpace@@V?$allocator@ULink@BoxSpace@@@std@@@std@@IBE_NPBULink@BoxSpace@@@Z ; std::vector<BoxSpace::Link,std::allocator<BoxSpace::Link> >::_Inside
; Function compile flags: /Ogsp
;	COMDAT ?_Inside@?$vector@ULink@BoxSpace@@V?$allocator@ULink@BoxSpace@@@std@@@std@@IBE_NPBULink@BoxSpace@@@Z
_TEXT	SEGMENT
__Ptr$ = 8						; size = 4
?_Inside@?$vector@ULink@BoxSpace@@V?$allocator@ULink@BoxSpace@@@std@@@std@@IBE_NPBULink@BoxSpace@@@Z PROC ; std::vector<BoxSpace::Link,std::allocator<BoxSpace::Link> >::_Inside, COMDAT
; _this$ = ecx

; 1285 : 		{	// test if _Ptr points inside vector

  00000	55		 push	 ebp
  00001	8b ec		 mov	 ebp, esp

; 1286 : 		return (_Ptr < this->_Mylast && this->_Myfirst <= _Ptr);

  00003	8b 45 08	 mov	 eax, DWORD PTR __Ptr$[ebp]
  00006	3b 41 04	 cmp	 eax, DWORD PTR [ecx+4]
  00009	73 09		 jae	 SHORT $LN3@Inside@2
  0000b	39 01		 cmp	 DWORD PTR [ecx], eax
  0000d	77 05		 ja	 SHORT $LN3@Inside@2
  0000f	33 c0		 xor	 eax, eax
  00011	40		 inc	 eax
  00012	eb 02		 jmp	 SHORT $LN4@Inside@2
$LN3@Inside@2:
  00014	33 c0		 xor	 eax, eax
$LN4@Inside@2:

; 1287 : 		}

  00016	5d		 pop	 ebp
  00017	c2 04 00	 ret	 4
?_Inside@?$vector@ULink@BoxSpace@@V?$allocator@ULink@BoxSpace@@@std@@@std@@IBE_NPBULink@BoxSpace@@@Z ENDP ; std::vector<BoxSpace::Link,std::allocator<BoxSpace::Link> >::_Inside
_TEXT	ENDS
PUBLIC	?_Orphan_range@?$vector@ULink@BoxSpace@@V?$allocator@ULink@BoxSpace@@@std@@@std@@IBEXPAULink@BoxSpace@@0@Z ; std::vector<BoxSpace::Link,std::allocator<BoxSpace::Link> >::_Orphan_range
; Function compile flags: /Ogsp
;	COMDAT ?_Orphan_range@?$vector@ULink@BoxSpace@@V?$allocator@ULink@BoxSpace@@@std@@@std@@IBEXPAULink@BoxSpace@@0@Z
_TEXT	SEGMENT
___formal$ = 8						; size = 4
___formal$ = 12						; size = 4
?_Orphan_range@?$vector@ULink@BoxSpace@@V?$allocator@ULink@BoxSpace@@@std@@@std@@IBEXPAULink@BoxSpace@@0@Z PROC ; std::vector<BoxSpace::Link,std::allocator<BoxSpace::Link> >::_Orphan_range, COMDAT
; _this$ = ecx

; 1454 : 		}

  00000	c2 08 00	 ret	 8
?_Orphan_range@?$vector@ULink@BoxSpace@@V?$allocator@ULink@BoxSpace@@@std@@@std@@IBEXPAULink@BoxSpace@@0@Z ENDP ; std::vector<BoxSpace::Link,std::allocator<BoxSpace::Link> >::_Orphan_range
_TEXT	ENDS
PUBLIC	?_Adopt@_Iterator_base0@std@@QAEXPBX@Z		; std::_Iterator_base0::_Adopt
; Function compile flags: /Ogsp
; File c:\program files (x86)\microsoft visual studio 10.0\vc\include\xutility
;	COMDAT ?_Adopt@_Iterator_base0@std@@QAEXPBX@Z
_TEXT	SEGMENT
___formal$ = 8						; size = 4
?_Adopt@_Iterator_base0@std@@QAEXPBX@Z PROC		; std::_Iterator_base0::_Adopt, COMDAT
; _this$ = ecx

; 49   : 		}

  00000	c2 04 00	 ret	 4
?_Adopt@_Iterator_base0@std@@QAEXPBX@Z ENDP		; std::_Iterator_base0::_Adopt
_TEXT	ENDS
PUBLIC	??0?$allocator@ULink@BoxSpace@@@std@@QAE@XZ	; std::allocator<BoxSpace::Link>::allocator<BoxSpace::Link>
; Function compile flags: /Ogsp
; File c:\program files (x86)\microsoft visual studio 10.0\vc\include\xmemory
;	COMDAT ??0?$allocator@ULink@BoxSpace@@@std@@QAE@XZ
_TEXT	SEGMENT
??0?$allocator@ULink@BoxSpace@@@std@@QAE@XZ PROC	; std::allocator<BoxSpace::Link>::allocator<BoxSpace::Link>, COMDAT
; _this$ = ecx

; 161  : 	_ALLOCATOR() _THROW0()

  00000	8b c1		 mov	 eax, ecx

; 162  : 		{	// construct default allocator (do nothing)
; 163  : 		}

  00002	c3		 ret	 0
??0?$allocator@ULink@BoxSpace@@@std@@QAE@XZ ENDP	; std::allocator<BoxSpace::Link>::allocator<BoxSpace::Link>
_TEXT	ENDS
PUBLIC	?_Inside@?$vector@UBox@BoxSpace@@V?$allocator@UBox@BoxSpace@@@std@@@std@@IBE_NPBUBox@BoxSpace@@@Z ; std::vector<BoxSpace::Box,std::allocator<BoxSpace::Box> >::_Inside
; Function compile flags: /Ogsp
; File c:\program files (x86)\microsoft visual studio 10.0\vc\include\vector
;	COMDAT ?_Inside@?$vector@UBox@BoxSpace@@V?$allocator@UBox@BoxSpace@@@std@@@std@@IBE_NPBUBox@BoxSpace@@@Z
_TEXT	SEGMENT
__Ptr$ = 8						; size = 4
?_Inside@?$vector@UBox@BoxSpace@@V?$allocator@UBox@BoxSpace@@@std@@@std@@IBE_NPBUBox@BoxSpace@@@Z PROC ; std::vector<BoxSpace::Box,std::allocator<BoxSpace::Box> >::_Inside, COMDAT
; _this$ = ecx

; 1285 : 		{	// test if _Ptr points inside vector

  00000	55		 push	 ebp
  00001	8b ec		 mov	 ebp, esp

; 1286 : 		return (_Ptr < this->_Mylast && this->_Myfirst <= _Ptr);

  00003	8b 45 08	 mov	 eax, DWORD PTR __Ptr$[ebp]
  00006	3b 41 04	 cmp	 eax, DWORD PTR [ecx+4]
  00009	73 09		 jae	 SHORT $LN3@Inside@3
  0000b	39 01		 cmp	 DWORD PTR [ecx], eax
  0000d	77 05		 ja	 SHORT $LN3@Inside@3
  0000f	33 c0		 xor	 eax, eax
  00011	40		 inc	 eax
  00012	eb 02		 jmp	 SHORT $LN4@Inside@3
$LN3@Inside@3:
  00014	33 c0		 xor	 eax, eax
$LN4@Inside@3:

; 1287 : 		}

  00016	5d		 pop	 ebp
  00017	c2 04 00	 ret	 4
?_Inside@?$vector@UBox@BoxSpace@@V?$allocator@UBox@BoxSpace@@@std@@@std@@IBE_NPBUBox@BoxSpace@@@Z ENDP ; std::vector<BoxSpace::Box,std::allocator<BoxSpace::Box> >::_Inside
_TEXT	ENDS
PUBLIC	?_Orphan_range@?$vector@UBox@BoxSpace@@V?$allocator@UBox@BoxSpace@@@std@@@std@@IBEXPAUBox@BoxSpace@@0@Z ; std::vector<BoxSpace::Box,std::allocator<BoxSpace::Box> >::_Orphan_range
; Function compile flags: /Ogsp
;	COMDAT ?_Orphan_range@?$vector@UBox@BoxSpace@@V?$allocator@UBox@BoxSpace@@@std@@@std@@IBEXPAUBox@BoxSpace@@0@Z
_TEXT	SEGMENT
___formal$ = 8						; size = 4
___formal$ = 12						; size = 4
?_Orphan_range@?$vector@UBox@BoxSpace@@V?$allocator@UBox@BoxSpace@@@std@@@std@@IBEXPAUBox@BoxSpace@@0@Z PROC ; std::vector<BoxSpace::Box,std::allocator<BoxSpace::Box> >::_Orphan_range, COMDAT
; _this$ = ecx

; 1454 : 		}

  00000	c2 08 00	 ret	 8
?_Orphan_range@?$vector@UBox@BoxSpace@@V?$allocator@UBox@BoxSpace@@@std@@@std@@IBEXPAUBox@BoxSpace@@0@Z ENDP ; std::vector<BoxSpace::Box,std::allocator<BoxSpace::Box> >::_Orphan_range
_TEXT	ENDS
PUBLIC	?size@?$vector@PBQAUBox@BoxSpace@@V?$allocator@PBQAUBox@BoxSpace@@@std@@@std@@QBEIXZ ; std::vector<BoxSpace::Box * const *,std::allocator<BoxSpace::Box * const *> >::size
; Function compile flags: /Ogsp
;	COMDAT ?size@?$vector@PBQAUBox@BoxSpace@@V?$allocator@PBQAUBox@BoxSpace@@@std@@@std@@QBEIXZ
_TEXT	SEGMENT
?size@?$vector@PBQAUBox@BoxSpace@@V?$allocator@PBQAUBox@BoxSpace@@@std@@@std@@QBEIXZ PROC ; std::vector<BoxSpace::Box * const *,std::allocator<BoxSpace::Box * const *> >::size, COMDAT
; _this$ = ecx

; 879  : 		return (this->_Mylast - this->_Myfirst);

  00000	8b 41 04	 mov	 eax, DWORD PTR [ecx+4]
  00003	2b 01		 sub	 eax, DWORD PTR [ecx]
  00005	c1 f8 02	 sar	 eax, 2

; 880  : 		}

  00008	c3		 ret	 0
?size@?$vector@PBQAUBox@BoxSpace@@V?$allocator@PBQAUBox@BoxSpace@@@std@@@std@@QBEIXZ ENDP ; std::vector<BoxSpace::Box * const *,std::allocator<BoxSpace::Box * const *> >::size
_TEXT	ENDS
PUBLIC	??A?$vector@PBQAUBox@BoxSpace@@V?$allocator@PBQAUBox@BoxSpace@@@std@@@std@@QAEAAPBQAUBox@BoxSpace@@I@Z ; std::vector<BoxSpace::Box * const *,std::allocator<BoxSpace::Box * const *> >::operator[]
; Function compile flags: /Ogsp
;	COMDAT ??A?$vector@PBQAUBox@BoxSpace@@V?$allocator@PBQAUBox@BoxSpace@@@std@@@std@@QAEAAPBQAUBox@BoxSpace@@I@Z
_TEXT	SEGMENT
__Pos$ = 8						; size = 4
??A?$vector@PBQAUBox@BoxSpace@@V?$allocator@PBQAUBox@BoxSpace@@@std@@@std@@QAEAAPBQAUBox@BoxSpace@@I@Z PROC ; std::vector<BoxSpace::Box * const *,std::allocator<BoxSpace::Box * const *> >::operator[], COMDAT
; _this$ = ecx

; 928  : 		{	// subscript mutable sequence

  00000	55		 push	 ebp
  00001	8b ec		 mov	 ebp, esp

; 929  :  #if _ITERATOR_DEBUG_LEVEL == 2
; 930  : 		if (size() <= _Pos)
; 931  : 			{	// report error
; 932  : 			_DEBUG_ERROR("vector subscript out of range");
; 933  : 			_SCL_SECURE_OUT_OF_RANGE;
; 934  : 			}
; 935  : 
; 936  :  #elif _ITERATOR_DEBUG_LEVEL == 1
; 937  : 		_SCL_SECURE_VALIDATE_RANGE(_Pos < size());
; 938  :  #endif /* _ITERATOR_DEBUG_LEVEL */
; 939  : 
; 940  : 		return (*(this->_Myfirst + _Pos));

  00003	8b 01		 mov	 eax, DWORD PTR [ecx]
  00005	8b 4d 08	 mov	 ecx, DWORD PTR __Pos$[ebp]
  00008	8d 04 88	 lea	 eax, DWORD PTR [eax+ecx*4]

; 941  : 		}

  0000b	5d		 pop	 ebp
  0000c	c2 04 00	 ret	 4
??A?$vector@PBQAUBox@BoxSpace@@V?$allocator@PBQAUBox@BoxSpace@@@std@@@std@@QAEAAPBQAUBox@BoxSpace@@I@Z ENDP ; std::vector<BoxSpace::Box * const *,std::allocator<BoxSpace::Box * const *> >::operator[]
_TEXT	ENDS
PUBLIC	??0?$_Vector_const_iterator@V?$_Vector_val@ULink@BoxSpace@@V?$allocator@ULink@BoxSpace@@@std@@@std@@@std@@QAE@PAULink@BoxSpace@@PBU_Container_base0@1@@Z ; std::_Vector_const_iterator<std::_Vector_val<BoxSpace::Link,std::allocator<BoxSpace::Link> > >::_Vector_const_iterator<std::_Vector_val<BoxSpace::Link,std::allocator<BoxSpace::Link> > >
; Function compile flags: /Ogsp
;	COMDAT ??0?$_Vector_const_iterator@V?$_Vector_val@ULink@BoxSpace@@V?$allocator@ULink@BoxSpace@@@std@@@std@@@std@@QAE@PAULink@BoxSpace@@PBU_Container_base0@1@@Z
_TEXT	SEGMENT
__Parg$ = 8						; size = 4
__Pvector$ = 12						; size = 4
??0?$_Vector_const_iterator@V?$_Vector_val@ULink@BoxSpace@@V?$allocator@ULink@BoxSpace@@@std@@@std@@@std@@QAE@PAULink@BoxSpace@@PBU_Container_base0@1@@Z PROC ; std::_Vector_const_iterator<std::_Vector_val<BoxSpace::Link,std::allocator<BoxSpace::Link> > >::_Vector_const_iterator<std::_Vector_val<BoxSpace::Link,std::allocator<BoxSpace::Link> > >, COMDAT
; _this$ = ecx

; 45   : 		{	// construct with pointer _Parg

  00000	55		 push	 ebp
  00001	8b ec		 mov	 ebp, esp
  00003	8b c1		 mov	 eax, ecx
  00005	8b 4d 08	 mov	 ecx, DWORD PTR __Parg$[ebp]
  00008	89 08		 mov	 DWORD PTR [eax], ecx

; 46   : 		this->_Adopt(_Pvector);
; 47   : 		}

  0000a	5d		 pop	 ebp
  0000b	c2 08 00	 ret	 8
??0?$_Vector_const_iterator@V?$_Vector_val@ULink@BoxSpace@@V?$allocator@ULink@BoxSpace@@@std@@@std@@@std@@QAE@PAULink@BoxSpace@@PBU_Container_base0@1@@Z ENDP ; std::_Vector_const_iterator<std::_Vector_val<BoxSpace::Link,std::allocator<BoxSpace::Link> > >::_Vector_const_iterator<std::_Vector_val<BoxSpace::Link,std::allocator<BoxSpace::Link> > >
_TEXT	ENDS
PUBLIC	??E?$_Vector_const_iterator@V?$_Vector_val@ULink@BoxSpace@@V?$allocator@ULink@BoxSpace@@@std@@@std@@@std@@QAEAAV01@XZ ; std::_Vector_const_iterator<std::_Vector_val<BoxSpace::Link,std::allocator<BoxSpace::Link> > >::operator++
; Function compile flags: /Ogsp
;	COMDAT ??E?$_Vector_const_iterator@V?$_Vector_val@ULink@BoxSpace@@V?$allocator@ULink@BoxSpace@@@std@@@std@@@std@@QAEAAV01@XZ
_TEXT	SEGMENT
??E?$_Vector_const_iterator@V?$_Vector_val@ULink@BoxSpace@@V?$allocator@ULink@BoxSpace@@@std@@@std@@@std@@QAEAAV01@XZ PROC ; std::_Vector_const_iterator<std::_Vector_val<BoxSpace::Link,std::allocator<BoxSpace::Link> > >::operator++, COMDAT
; _this$ = ecx

; 93   : 		{	// preincrement

  00000	8b c1		 mov	 eax, ecx

; 94   :  #if _ITERATOR_DEBUG_LEVEL == 2
; 95   : 		if (this->_Getcont() == 0
; 96   : 			|| this->_Ptr == 0
; 97   : 			|| ((_Myvec *)this->_Getcont())->_Mylast <= this->_Ptr)
; 98   : 			{	// report error
; 99   : 			_DEBUG_ERROR("vector iterator not incrementable");
; 100  : 			_SCL_SECURE_OUT_OF_RANGE;
; 101  : 			}
; 102  : 
; 103  :  #elif _ITERATOR_DEBUG_LEVEL == 1
; 104  : 		_SCL_SECURE_VALIDATE(this->_Getcont() != 0);
; 105  : 		_SCL_SECURE_VALIDATE_RANGE(
; 106  : 			this->_Ptr != 0
; 107  : 			&& this->_Ptr < ((_Myvec *)this->_Getcont())->_Mylast);
; 108  :  #endif /* _ITERATOR_DEBUG_LEVEL */
; 109  : 
; 110  : 		++this->_Ptr;

  00002	83 00 20	 add	 DWORD PTR [eax], 32	; 00000020H

; 111  : 		return (*this);
; 112  : 		}

  00005	c3		 ret	 0
??E?$_Vector_const_iterator@V?$_Vector_val@ULink@BoxSpace@@V?$allocator@ULink@BoxSpace@@@std@@@std@@@std@@QAEAAV01@XZ ENDP ; std::_Vector_const_iterator<std::_Vector_val<BoxSpace::Link,std::allocator<BoxSpace::Link> > >::operator++
_TEXT	ENDS
PUBLIC	??D?$_Vector_const_iterator@V?$_Vector_val@UBox@BoxSpace@@V?$allocator@UBox@BoxSpace@@@std@@@std@@@std@@QBEABUBox@BoxSpace@@XZ ; std::_Vector_const_iterator<std::_Vector_val<BoxSpace::Box,std::allocator<BoxSpace::Box> > >::operator*
; Function compile flags: /Ogsp
;	COMDAT ??D?$_Vector_const_iterator@V?$_Vector_val@UBox@BoxSpace@@V?$allocator@UBox@BoxSpace@@@std@@@std@@@std@@QBEABUBox@BoxSpace@@XZ
_TEXT	SEGMENT
??D?$_Vector_const_iterator@V?$_Vector_val@UBox@BoxSpace@@V?$allocator@UBox@BoxSpace@@@std@@@std@@@std@@QBEABUBox@BoxSpace@@XZ PROC ; std::_Vector_const_iterator<std::_Vector_val<BoxSpace::Box,std::allocator<BoxSpace::Box> > >::operator*, COMDAT
; _this$ = ecx

; 64   :  #if _ITERATOR_DEBUG_LEVEL == 2
; 65   : 		if (this->_Getcont() == 0
; 66   : 			|| this->_Ptr == 0
; 67   : 			|| this->_Ptr < ((_Myvec *)this->_Getcont())->_Myfirst
; 68   : 			|| ((_Myvec *)this->_Getcont())->_Mylast <= this->_Ptr)
; 69   : 			{	// report error
; 70   : 			_DEBUG_ERROR("vector iterator not dereferencable");
; 71   : 			_SCL_SECURE_OUT_OF_RANGE;
; 72   : 			}
; 73   : 
; 74   :  #elif _ITERATOR_DEBUG_LEVEL == 1
; 75   : 		_SCL_SECURE_VALIDATE(this->_Getcont() != 0);
; 76   : 		_SCL_SECURE_VALIDATE_RANGE(
; 77   : 			this->_Ptr != 0
; 78   : 			&& ((_Myvec *)this->_Getcont())->_Myfirst <= this->_Ptr
; 79   : 			&& this->_Ptr < ((_Myvec *)this->_Getcont())->_Mylast);
; 80   :  #endif /* _ITERATOR_DEBUG_LEVEL */
; 81   : 
; 82   : 		__analysis_assume(this->_Ptr != 0);
; 83   : 
; 84   : 		return (*this->_Ptr);

  00000	8b 01		 mov	 eax, DWORD PTR [ecx]

; 85   : 		}

  00002	c3		 ret	 0
??D?$_Vector_const_iterator@V?$_Vector_val@UBox@BoxSpace@@V?$allocator@UBox@BoxSpace@@@std@@@std@@@std@@QBEABUBox@BoxSpace@@XZ ENDP ; std::_Vector_const_iterator<std::_Vector_val<BoxSpace::Box,std::allocator<BoxSpace::Box> > >::operator*
_TEXT	ENDS
PUBLIC	?max_size@?$allocator@F@std@@QBEIXZ		; std::allocator<short>::max_size
; Function compile flags: /Ogsp
; File c:\program files (x86)\microsoft visual studio 10.0\vc\include\xmemory
;	COMDAT ?max_size@?$allocator@F@std@@QBEIXZ
_TEXT	SEGMENT
?max_size@?$allocator@F@std@@QBEIXZ PROC		; std::allocator<short>::max_size, COMDAT
; _this$ = ecx

; 218  : 		_SIZT _Count = (_SIZT)(-1) / sizeof (_Ty);
; 219  : 		return (0 < _Count ? _Count : 1);

  00000	b8 ff ff ff 7f	 mov	 eax, 2147483647		; 7fffffffH

; 220  : 		}

  00005	c3		 ret	 0
?max_size@?$allocator@F@std@@QBEIXZ ENDP		; std::allocator<short>::max_size
_TEXT	ENDS
PUBLIC	?capacity@?$vector@ULink@BoxSpace@@V?$allocator@ULink@BoxSpace@@@std@@@std@@QBEIXZ ; std::vector<BoxSpace::Link,std::allocator<BoxSpace::Link> >::capacity
; Function compile flags: /Ogsp
; File c:\program files (x86)\microsoft visual studio 10.0\vc\include\vector
;	COMDAT ?capacity@?$vector@ULink@BoxSpace@@V?$allocator@ULink@BoxSpace@@@std@@@std@@QBEIXZ
_TEXT	SEGMENT
?capacity@?$vector@ULink@BoxSpace@@V?$allocator@ULink@BoxSpace@@@std@@@std@@QBEIXZ PROC ; std::vector<BoxSpace::Link,std::allocator<BoxSpace::Link> >::capacity, COMDAT
; _this$ = ecx

; 777  : 		return (this->_Myend - this->_Myfirst);

  00000	8b 41 08	 mov	 eax, DWORD PTR [ecx+8]
  00003	2b 01		 sub	 eax, DWORD PTR [ecx]
  00005	c1 f8 05	 sar	 eax, 5

; 778  : 		}

  00008	c3		 ret	 0
?capacity@?$vector@ULink@BoxSpace@@V?$allocator@ULink@BoxSpace@@@std@@@std@@QBEIXZ ENDP ; std::vector<BoxSpace::Link,std::allocator<BoxSpace::Link> >::capacity
_TEXT	ENDS
PUBLIC	?_Xlen@?$vector@ULink@BoxSpace@@V?$allocator@ULink@BoxSpace@@@std@@@std@@IBEXXZ ; std::vector<BoxSpace::Link,std::allocator<BoxSpace::Link> >::_Xlen
; Function compile flags: /Ogsp
;	COMDAT ?_Xlen@?$vector@ULink@BoxSpace@@V?$allocator@ULink@BoxSpace@@@std@@@std@@IBEXXZ
_TEXT	SEGMENT
?_Xlen@?$vector@ULink@BoxSpace@@V?$allocator@ULink@BoxSpace@@@std@@@std@@IBEXXZ PROC ; std::vector<BoxSpace::Link,std::allocator<BoxSpace::Link> >::_Xlen, COMDAT
; _this$ = ecx

; 1427 : 		_Xlength_error("vector<T> too long");

  00000	68 00 00 00 00	 push	 OFFSET ??_C@_0BD@OLBABOEK@vector?$DMT?$DO?5too?5long?$AA@
  00005	ff 15 00 00 00
	00		 call	 DWORD PTR __imp_?_Xlength_error@std@@YAXPBD@Z
$LN4@Xlen@2:
$LN3@Xlen@2:
  0000b	cc		 int	 3
?_Xlen@?$vector@ULink@BoxSpace@@V?$allocator@ULink@BoxSpace@@@std@@@std@@IBEXXZ ENDP ; std::vector<BoxSpace::Link,std::allocator<BoxSpace::Link> >::_Xlen
_TEXT	ENDS
PUBLIC	??0?$allocator@ULink@BoxSpace@@@std@@QAE@ABV01@@Z ; std::allocator<BoxSpace::Link>::allocator<BoxSpace::Link>
; Function compile flags: /Ogsp
; File c:\program files (x86)\microsoft visual studio 10.0\vc\include\xmemory
;	COMDAT ??0?$allocator@ULink@BoxSpace@@@std@@QAE@ABV01@@Z
_TEXT	SEGMENT
___formal$ = 8						; size = 4
??0?$allocator@ULink@BoxSpace@@@std@@QAE@ABV01@@Z PROC	; std::allocator<BoxSpace::Link>::allocator<BoxSpace::Link>, COMDAT
; _this$ = ecx

; 165  : 	_ALLOCATOR(const _ALLOCATOR<_Ty>&) _THROW0()

  00000	8b c1		 mov	 eax, ecx

; 166  : 		{	// construct by copying (do nothing)
; 167  : 		}

  00002	c2 04 00	 ret	 4
??0?$allocator@ULink@BoxSpace@@@std@@QAE@ABV01@@Z ENDP	; std::allocator<BoxSpace::Link>::allocator<BoxSpace::Link>
_TEXT	ENDS
PUBLIC	?capacity@?$vector@UBox@BoxSpace@@V?$allocator@UBox@BoxSpace@@@std@@@std@@QBEIXZ ; std::vector<BoxSpace::Box,std::allocator<BoxSpace::Box> >::capacity
; Function compile flags: /Ogsp
; File c:\program files (x86)\microsoft visual studio 10.0\vc\include\vector
;	COMDAT ?capacity@?$vector@UBox@BoxSpace@@V?$allocator@UBox@BoxSpace@@@std@@@std@@QBEIXZ
_TEXT	SEGMENT
?capacity@?$vector@UBox@BoxSpace@@V?$allocator@UBox@BoxSpace@@@std@@@std@@QBEIXZ PROC ; std::vector<BoxSpace::Box,std::allocator<BoxSpace::Box> >::capacity, COMDAT
; _this$ = ecx

; 777  : 		return (this->_Myend - this->_Myfirst);

  00000	8b 41 08	 mov	 eax, DWORD PTR [ecx+8]
  00003	2b 01		 sub	 eax, DWORD PTR [ecx]
  00005	6a 58		 push	 88			; 00000058H
  00007	99		 cdq
  00008	59		 pop	 ecx
  00009	f7 f9		 idiv	 ecx

; 778  : 		}

  0000b	c3		 ret	 0
?capacity@?$vector@UBox@BoxSpace@@V?$allocator@UBox@BoxSpace@@@std@@@std@@QBEIXZ ENDP ; std::vector<BoxSpace::Box,std::allocator<BoxSpace::Box> >::capacity
_TEXT	ENDS
PUBLIC	?_Xlen@?$vector@UBox@BoxSpace@@V?$allocator@UBox@BoxSpace@@@std@@@std@@IBEXXZ ; std::vector<BoxSpace::Box,std::allocator<BoxSpace::Box> >::_Xlen
; Function compile flags: /Ogsp
;	COMDAT ?_Xlen@?$vector@UBox@BoxSpace@@V?$allocator@UBox@BoxSpace@@@std@@@std@@IBEXXZ
_TEXT	SEGMENT
?_Xlen@?$vector@UBox@BoxSpace@@V?$allocator@UBox@BoxSpace@@@std@@@std@@IBEXXZ PROC ; std::vector<BoxSpace::Box,std::allocator<BoxSpace::Box> >::_Xlen, COMDAT
; _this$ = ecx

; 1427 : 		_Xlength_error("vector<T> too long");

  00000	68 00 00 00 00	 push	 OFFSET ??_C@_0BD@OLBABOEK@vector?$DMT?$DO?5too?5long?$AA@
  00005	ff 15 00 00 00
	00		 call	 DWORD PTR __imp_?_Xlength_error@std@@YAXPBD@Z
$LN4@Xlen@3:
$LN3@Xlen@3:
  0000b	cc		 int	 3
?_Xlen@?$vector@UBox@BoxSpace@@V?$allocator@UBox@BoxSpace@@@std@@@std@@IBEXXZ ENDP ; std::vector<BoxSpace::Box,std::allocator<BoxSpace::Box> >::_Xlen
_TEXT	ENDS
PUBLIC	?_Compat@?$_Vector_const_iterator@V?$_Vector_val@ULink@BoxSpace@@V?$allocator@ULink@BoxSpace@@@std@@@std@@@std@@QBEXABV12@@Z ; std::_Vector_const_iterator<std::_Vector_val<BoxSpace::Link,std::allocator<BoxSpace::Link> > >::_Compat
; Function compile flags: /Ogsp
;	COMDAT ?_Compat@?$_Vector_const_iterator@V?$_Vector_val@ULink@BoxSpace@@V?$allocator@ULink@BoxSpace@@@std@@@std@@@std@@QBEXABV12@@Z
_TEXT	SEGMENT
___formal$ = 8						; size = 4
?_Compat@?$_Vector_const_iterator@V?$_Vector_val@ULink@BoxSpace@@V?$allocator@ULink@BoxSpace@@@std@@@std@@@std@@QBEXABV12@@Z PROC ; std::_Vector_const_iterator<std::_Vector_val<BoxSpace::Link,std::allocator<BoxSpace::Link> > >::_Compat, COMDAT
; _this$ = ecx

; 253  : 		}

  00000	c2 04 00	 ret	 4
?_Compat@?$_Vector_const_iterator@V?$_Vector_val@ULink@BoxSpace@@V?$allocator@ULink@BoxSpace@@@std@@@std@@@std@@QBEXABV12@@Z ENDP ; std::_Vector_const_iterator<std::_Vector_val<BoxSpace::Link,std::allocator<BoxSpace::Link> > >::_Compat
_TEXT	ENDS
PUBLIC	??0?$_Vector_const_iterator@V?$_Vector_val@UBox@BoxSpace@@V?$allocator@UBox@BoxSpace@@@std@@@std@@@std@@QAE@PAUBox@BoxSpace@@PBU_Container_base0@1@@Z ; std::_Vector_const_iterator<std::_Vector_val<BoxSpace::Box,std::allocator<BoxSpace::Box> > >::_Vector_const_iterator<std::_Vector_val<BoxSpace::Box,std::allocator<BoxSpace::Box> > >
; Function compile flags: /Ogsp
;	COMDAT ??0?$_Vector_const_iterator@V?$_Vector_val@UBox@BoxSpace@@V?$allocator@UBox@BoxSpace@@@std@@@std@@@std@@QAE@PAUBox@BoxSpace@@PBU_Container_base0@1@@Z
_TEXT	SEGMENT
__Parg$ = 8						; size = 4
__Pvector$ = 12						; size = 4
??0?$_Vector_const_iterator@V?$_Vector_val@UBox@BoxSpace@@V?$allocator@UBox@BoxSpace@@@std@@@std@@@std@@QAE@PAUBox@BoxSpace@@PBU_Container_base0@1@@Z PROC ; std::_Vector_const_iterator<std::_Vector_val<BoxSpace::Box,std::allocator<BoxSpace::Box> > >::_Vector_const_iterator<std::_Vector_val<BoxSpace::Box,std::allocator<BoxSpace::Box> > >, COMDAT
; _this$ = ecx

; 45   : 		{	// construct with pointer _Parg

  00000	55		 push	 ebp
  00001	8b ec		 mov	 ebp, esp
  00003	8b c1		 mov	 eax, ecx
  00005	8b 4d 08	 mov	 ecx, DWORD PTR __Parg$[ebp]
  00008	89 08		 mov	 DWORD PTR [eax], ecx

; 46   : 		this->_Adopt(_Pvector);
; 47   : 		}

  0000a	5d		 pop	 ebp
  0000b	c2 08 00	 ret	 8
??0?$_Vector_const_iterator@V?$_Vector_val@UBox@BoxSpace@@V?$allocator@UBox@BoxSpace@@@std@@@std@@@std@@QAE@PAUBox@BoxSpace@@PBU_Container_base0@1@@Z ENDP ; std::_Vector_const_iterator<std::_Vector_val<BoxSpace::Box,std::allocator<BoxSpace::Box> > >::_Vector_const_iterator<std::_Vector_val<BoxSpace::Box,std::allocator<BoxSpace::Box> > >
_TEXT	ENDS
PUBLIC	?max_size@?$allocator@ULink@BoxSpace@@@std@@QBEIXZ ; std::allocator<BoxSpace::Link>::max_size
; Function compile flags: /Ogsp
; File c:\program files (x86)\microsoft visual studio 10.0\vc\include\xmemory
;	COMDAT ?max_size@?$allocator@ULink@BoxSpace@@@std@@QBEIXZ
_TEXT	SEGMENT
?max_size@?$allocator@ULink@BoxSpace@@@std@@QBEIXZ PROC	; std::allocator<BoxSpace::Link>::max_size, COMDAT
; _this$ = ecx

; 218  : 		_SIZT _Count = (_SIZT)(-1) / sizeof (_Ty);
; 219  : 		return (0 < _Count ? _Count : 1);

  00000	b8 ff ff ff 07	 mov	 eax, 134217727		; 07ffffffH

; 220  : 		}

  00005	c3		 ret	 0
?max_size@?$allocator@ULink@BoxSpace@@@std@@QBEIXZ ENDP	; std::allocator<BoxSpace::Link>::max_size
_TEXT	ENDS
PUBLIC	?max_size@?$allocator@UBox@BoxSpace@@@std@@QBEIXZ ; std::allocator<BoxSpace::Box>::max_size
; Function compile flags: /Ogsp
;	COMDAT ?max_size@?$allocator@UBox@BoxSpace@@@std@@QBEIXZ
_TEXT	SEGMENT
?max_size@?$allocator@UBox@BoxSpace@@@std@@QBEIXZ PROC	; std::allocator<BoxSpace::Box>::max_size, COMDAT
; _this$ = ecx

; 218  : 		_SIZT _Count = (_SIZT)(-1) / sizeof (_Ty);
; 219  : 		return (0 < _Count ? _Count : 1);

  00000	b8 2e ba e8 02	 mov	 eax, 48806446		; 02e8ba2eH

; 220  : 		}

  00005	c3		 ret	 0
?max_size@?$allocator@UBox@BoxSpace@@@std@@QBEIXZ ENDP	; std::allocator<BoxSpace::Box>::max_size
_TEXT	ENDS
PUBLIC	??0DNode@?$AStarSearcher@VBoxSpace@@PAUBox@1@@@QAE@XZ ; AStarSearcher<BoxSpace,BoxSpace::Box *>::DNode::DNode
; Function compile flags: /Ogsp
; File d:\lost saga for developer\youtube\tutorial\source\src\lsclient\astar.h
;	COMDAT ??0DNode@?$AStarSearcher@VBoxSpace@@PAUBox@1@@@QAE@XZ
_TEXT	SEGMENT
??0DNode@?$AStarSearcher@VBoxSpace@@PAUBox@1@@@QAE@XZ PROC ; AStarSearcher<BoxSpace,BoxSpace::Box *>::DNode::DNode, COMDAT
; _this$ = ecx

; 81   : 			parent = NULL; 
; 82   : 			cost = total = 0; 

  00000	0f 57 c0	 xorps	 xmm0, xmm0
  00003	8b c1		 mov	 eax, ecx
  00005	33 c9		 xor	 ecx, ecx
  00007	89 48 04	 mov	 DWORD PTR [eax+4], ecx
  0000a	f3 0f 11 40 0c	 movss	 DWORD PTR [eax+12], xmm0
  0000f	f3 0f 11 40 08	 movss	 DWORD PTR [eax+8], xmm0

; 83   : 			bOpen = bClose = false; 

  00014	66 89 48 10	 mov	 WORD PTR [eax+16], cx

; 84   : 		}

  00018	c3		 ret	 0
??0DNode@?$AStarSearcher@VBoxSpace@@PAUBox@1@@@QAE@XZ ENDP ; AStarSearcher<BoxSpace,BoxSpace::Box *>::DNode::DNode
_TEXT	ENDS
PUBLIC	?empty@?$vector@PAUDNode@?$AStarSearcher@VBoxSpace@@PAUBox@1@@@V?$allocator@PAUDNode@?$AStarSearcher@VBoxSpace@@PAUBox@1@@@@std@@@std@@QBE_NXZ ; std::vector<AStarSearcher<BoxSpace,BoxSpace::Box *>::DNode *,std::allocator<AStarSearcher<BoxSpace,BoxSpace::Box *>::DNode *> >::empty
; Function compile flags: /Ogsp
; File c:\program files (x86)\microsoft visual studio 10.0\vc\include\vector
;	COMDAT ?empty@?$vector@PAUDNode@?$AStarSearcher@VBoxSpace@@PAUBox@1@@@V?$allocator@PAUDNode@?$AStarSearcher@VBoxSpace@@PAUBox@1@@@@std@@@std@@QBE_NXZ
_TEXT	SEGMENT
?empty@?$vector@PAUDNode@?$AStarSearcher@VBoxSpace@@PAUBox@1@@@V?$allocator@PAUDNode@?$AStarSearcher@VBoxSpace@@PAUBox@1@@@@std@@@std@@QBE_NXZ PROC ; std::vector<AStarSearcher<BoxSpace,BoxSpace::Box *>::DNode *,std::allocator<AStarSearcher<BoxSpace,BoxSpace::Box *>::DNode *> >::empty, COMDAT
; _this$ = ecx

; 889  : 		return (this->_Myfirst == this->_Mylast);

  00000	8b 01		 mov	 eax, DWORD PTR [ecx]
  00002	2b 41 04	 sub	 eax, DWORD PTR [ecx+4]
  00005	f7 d8		 neg	 eax
  00007	1b c0		 sbb	 eax, eax
  00009	40		 inc	 eax

; 890  : 		}

  0000a	c3		 ret	 0
?empty@?$vector@PAUDNode@?$AStarSearcher@VBoxSpace@@PAUBox@1@@@V?$allocator@PAUDNode@?$AStarSearcher@VBoxSpace@@PAUBox@1@@@@std@@@std@@QBE_NXZ ENDP ; std::vector<AStarSearcher<BoxSpace,BoxSpace::Box *>::DNode *,std::allocator<AStarSearcher<BoxSpace,BoxSpace::Box *>::DNode *> >::empty
_TEXT	ENDS
PUBLIC	?_Inside@?$vector@PAUDNode@?$AStarSearcher@VBoxSpace@@PAUBox@1@@@V?$allocator@PAUDNode@?$AStarSearcher@VBoxSpace@@PAUBox@1@@@@std@@@std@@IBE_NPBQAUDNode@?$AStarSearcher@VBoxSpace@@PAUBox@1@@@@Z ; std::vector<AStarSearcher<BoxSpace,BoxSpace::Box *>::DNode *,std::allocator<AStarSearcher<BoxSpace,BoxSpace::Box *>::DNode *> >::_Inside
; Function compile flags: /Ogsp
;	COMDAT ?_Inside@?$vector@PAUDNode@?$AStarSearcher@VBoxSpace@@PAUBox@1@@@V?$allocator@PAUDNode@?$AStarSearcher@VBoxSpace@@PAUBox@1@@@@std@@@std@@IBE_NPBQAUDNode@?$AStarSearcher@VBoxSpace@@PAUBox@1@@@@Z
_TEXT	SEGMENT
__Ptr$ = 8						; size = 4
?_Inside@?$vector@PAUDNode@?$AStarSearcher@VBoxSpace@@PAUBox@1@@@V?$allocator@PAUDNode@?$AStarSearcher@VBoxSpace@@PAUBox@1@@@@std@@@std@@IBE_NPBQAUDNode@?$AStarSearcher@VBoxSpace@@PAUBox@1@@@@Z PROC ; std::vector<AStarSearcher<BoxSpace,BoxSpace::Box *>::DNode *,std::allocator<AStarSearcher<BoxSpace,BoxSpace::Box *>::DNode *> >::_Inside, COMDAT
; _this$ = ecx

; 1285 : 		{	// test if _Ptr points inside vector

  00000	55		 push	 ebp
  00001	8b ec		 mov	 ebp, esp

; 1286 : 		return (_Ptr < this->_Mylast && this->_Myfirst <= _Ptr);

  00003	8b 45 08	 mov	 eax, DWORD PTR __Ptr$[ebp]
  00006	3b 41 04	 cmp	 eax, DWORD PTR [ecx+4]
  00009	73 09		 jae	 SHORT $LN3@Inside@4
  0000b	39 01		 cmp	 DWORD PTR [ecx], eax
  0000d	77 05		 ja	 SHORT $LN3@Inside@4
  0000f	33 c0		 xor	 eax, eax
  00011	40		 inc	 eax
  00012	eb 02		 jmp	 SHORT $LN4@Inside@4
$LN3@Inside@4:
  00014	33 c0		 xor	 eax, eax
$LN4@Inside@4:

; 1287 : 		}

  00016	5d		 pop	 ebp
  00017	c2 04 00	 ret	 4
?_Inside@?$vector@PAUDNode@?$AStarSearcher@VBoxSpace@@PAUBox@1@@@V?$allocator@PAUDNode@?$AStarSearcher@VBoxSpace@@PAUBox@1@@@@std@@@std@@IBE_NPBQAUDNode@?$AStarSearcher@VBoxSpace@@PAUBox@1@@@@Z ENDP ; std::vector<AStarSearcher<BoxSpace,BoxSpace::Box *>::DNode *,std::allocator<AStarSearcher<BoxSpace,BoxSpace::Box *>::DNode *> >::_Inside
_TEXT	ENDS
PUBLIC	?_Orphan_range@?$vector@PAUDNode@?$AStarSearcher@VBoxSpace@@PAUBox@1@@@V?$allocator@PAUDNode@?$AStarSearcher@VBoxSpace@@PAUBox@1@@@@std@@@std@@IBEXPAPAUDNode@?$AStarSearcher@VBoxSpace@@PAUBox@1@@@0@Z ; std::vector<AStarSearcher<BoxSpace,BoxSpace::Box *>::DNode *,std::allocator<AStarSearcher<BoxSpace,BoxSpace::Box *>::DNode *> >::_Orphan_range
; Function compile flags: /Ogsp
;	COMDAT ?_Orphan_range@?$vector@PAUDNode@?$AStarSearcher@VBoxSpace@@PAUBox@1@@@V?$allocator@PAUDNode@?$AStarSearcher@VBoxSpace@@PAUBox@1@@@@std@@@std@@IBEXPAPAUDNode@?$AStarSearcher@VBoxSpace@@PAUBox@1@@@0@Z
_TEXT	SEGMENT
___formal$ = 8						; size = 4
___formal$ = 12						; size = 4
?_Orphan_range@?$vector@PAUDNode@?$AStarSearcher@VBoxSpace@@PAUBox@1@@@V?$allocator@PAUDNode@?$AStarSearcher@VBoxSpace@@PAUBox@1@@@@std@@@std@@IBEXPAPAUDNode@?$AStarSearcher@VBoxSpace@@PAUBox@1@@@0@Z PROC ; std::vector<AStarSearcher<BoxSpace,BoxSpace::Box *>::DNode *,std::allocator<AStarSearcher<BoxSpace,BoxSpace::Box *>::DNode *> >::_Orphan_range, COMDAT
; _this$ = ecx

; 1454 : 		}

  00000	c2 08 00	 ret	 8
?_Orphan_range@?$vector@PAUDNode@?$AStarSearcher@VBoxSpace@@PAUBox@1@@@V?$allocator@PAUDNode@?$AStarSearcher@VBoxSpace@@PAUBox@1@@@@std@@@std@@IBEXPAPAUDNode@?$AStarSearcher@VBoxSpace@@PAUBox@1@@@0@Z ENDP ; std::vector<AStarSearcher<BoxSpace,BoxSpace::Box *>::DNode *,std::allocator<AStarSearcher<BoxSpace,BoxSpace::Box *>::DNode *> >::_Orphan_range
_TEXT	ENDS
PUBLIC	??0?$_Vector_const_iterator@V?$_Vector_val@FV?$allocator@F@std@@@std@@@std@@QAE@PAFPBU_Container_base0@1@@Z ; std::_Vector_const_iterator<std::_Vector_val<short,std::allocator<short> > >::_Vector_const_iterator<std::_Vector_val<short,std::allocator<short> > >
; Function compile flags: /Ogsp
;	COMDAT ??0?$_Vector_const_iterator@V?$_Vector_val@FV?$allocator@F@std@@@std@@@std@@QAE@PAFPBU_Container_base0@1@@Z
_TEXT	SEGMENT
__Parg$ = 8						; size = 4
__Pvector$ = 12						; size = 4
??0?$_Vector_const_iterator@V?$_Vector_val@FV?$allocator@F@std@@@std@@@std@@QAE@PAFPBU_Container_base0@1@@Z PROC ; std::_Vector_const_iterator<std::_Vector_val<short,std::allocator<short> > >::_Vector_const_iterator<std::_Vector_val<short,std::allocator<short> > >, COMDAT
; _this$ = ecx

; 45   : 		{	// construct with pointer _Parg

  00000	55		 push	 ebp
  00001	8b ec		 mov	 ebp, esp
  00003	8b c1		 mov	 eax, ecx
  00005	8b 4d 08	 mov	 ecx, DWORD PTR __Parg$[ebp]
  00008	89 08		 mov	 DWORD PTR [eax], ecx

; 46   : 		this->_Adopt(_Pvector);
; 47   : 		}

  0000a	5d		 pop	 ebp
  0000b	c2 08 00	 ret	 8
??0?$_Vector_const_iterator@V?$_Vector_val@FV?$allocator@F@std@@@std@@@std@@QAE@PAFPBU_Container_base0@1@@Z ENDP ; std::_Vector_const_iterator<std::_Vector_val<short,std::allocator<short> > >::_Vector_const_iterator<std::_Vector_val<short,std::allocator<short> > >
_TEXT	ENDS
PUBLIC	?alloc_from_block@?$uni_heap@$0BE@$0IA@@@IAEPAXPAUTBlock@1@@Z ; uni_heap<20,128>::alloc_from_block
; Function compile flags: /Ogsp
; File d:\lost saga for developer\youtube\tutorial\source\src\lsclient\uniheap.h
;	COMDAT ?alloc_from_block@?$uni_heap@$0BE@$0IA@@@IAEPAXPAUTBlock@1@@Z
_TEXT	SEGMENT
_block$ = 8						; size = 4
?alloc_from_block@?$uni_heap@$0BE@$0IA@@@IAEPAXPAUTBlock@1@@Z PROC ; uni_heap<20,128>::alloc_from_block, COMDAT
; _this$ = ecx

; 186  : 	{

  00000	55		 push	 ebp
  00001	8b ec		 mov	 ebp, esp

; 187  : 		short index = block->firstFree;

  00003	8b 4d 08	 mov	 ecx, DWORD PTR _block$[ebp]
  00006	0f b7 81 00 0b
	00 00		 movzx	 eax, WORD PTR [ecx+2816]

; 188  : 		
; 189  : 		assert( index >= 0 && index < BLOCK_SIZE );
; 190  : 
; 191  : 		block->firstFree = block->freeLink[ index ];

  0000d	98		 cwde
  0000e	56		 push	 esi
  0000f	8d b4 41 00 0a
	00 00		 lea	 esi, DWORD PTR [ecx+eax*2+2560]

; 192  : 		block->freeLink[ index ] = OCCUPIED;
; 193  : 
; 194  : 		void* ptr = reinterpret_cast<char*>(block->buf) + index * UNIT_SIZE;

  00016	6b c0 14	 imul	 eax, 20			; 00000014H
  00019	57		 push	 edi
  0001a	66 8b 3e	 mov	 di, WORD PTR [esi]
  0001d	83 ca ff	 or	 edx, -1
  00020	66 89 b9 00 0b
	00 00		 mov	 WORD PTR [ecx+2816], di
  00027	66 89 16	 mov	 WORD PTR [esi], dx

; 195  : 
; 196  : 		// memory marking for debugging
; 197  : 		assert( (memset( ptr, 0xcd, UNIT_SIZE ), block->count < BLOCK_SIZE) );
; 198  : 
; 199  : 		block->count++;

  0002a	66 ff 81 02 0b
	00 00		 inc	 WORD PTR [ecx+2818]
  00031	5f		 pop	 edi
  00032	03 c1		 add	 eax, ecx
  00034	5e		 pop	 esi

; 200  : 		return ptr;
; 201  : 	}

  00035	5d		 pop	 ebp
  00036	c2 04 00	 ret	 4
?alloc_from_block@?$uni_heap@$0BE@$0IA@@@IAEPAXPAUTBlock@1@@Z ENDP ; uni_heap<20,128>::alloc_from_block
_TEXT	ENDS
PUBLIC	?capacity@?$vector@PAUDNode@?$AStarSearcher@VBoxSpace@@PAUBox@1@@@V?$allocator@PAUDNode@?$AStarSearcher@VBoxSpace@@PAUBox@1@@@@std@@@std@@QBEIXZ ; std::vector<AStarSearcher<BoxSpace,BoxSpace::Box *>::DNode *,std::allocator<AStarSearcher<BoxSpace,BoxSpace::Box *>::DNode *> >::capacity
; Function compile flags: /Ogsp
; File c:\program files (x86)\microsoft visual studio 10.0\vc\include\vector
;	COMDAT ?capacity@?$vector@PAUDNode@?$AStarSearcher@VBoxSpace@@PAUBox@1@@@V?$allocator@PAUDNode@?$AStarSearcher@VBoxSpace@@PAUBox@1@@@@std@@@std@@QBEIXZ
_TEXT	SEGMENT
?capacity@?$vector@PAUDNode@?$AStarSearcher@VBoxSpace@@PAUBox@1@@@V?$allocator@PAUDNode@?$AStarSearcher@VBoxSpace@@PAUBox@1@@@@std@@@std@@QBEIXZ PROC ; std::vector<AStarSearcher<BoxSpace,BoxSpace::Box *>::DNode *,std::allocator<AStarSearcher<BoxSpace,BoxSpace::Box *>::DNode *> >::capacity, COMDAT
; _this$ = ecx

; 777  : 		return (this->_Myend - this->_Myfirst);

  00000	8b 41 08	 mov	 eax, DWORD PTR [ecx+8]
  00003	2b 01		 sub	 eax, DWORD PTR [ecx]
  00005	c1 f8 02	 sar	 eax, 2

; 778  : 		}

  00008	c3		 ret	 0
?capacity@?$vector@PAUDNode@?$AStarSearcher@VBoxSpace@@PAUBox@1@@@V?$allocator@PAUDNode@?$AStarSearcher@VBoxSpace@@PAUBox@1@@@@std@@@std@@QBEIXZ ENDP ; std::vector<AStarSearcher<BoxSpace,BoxSpace::Box *>::DNode *,std::allocator<AStarSearcher<BoxSpace,BoxSpace::Box *>::DNode *> >::capacity
_TEXT	ENDS
PUBLIC	?size@?$vector@PAUDNode@?$AStarSearcher@VBoxSpace@@PAUBox@1@@@V?$allocator@PAUDNode@?$AStarSearcher@VBoxSpace@@PAUBox@1@@@@std@@@std@@QBEIXZ ; std::vector<AStarSearcher<BoxSpace,BoxSpace::Box *>::DNode *,std::allocator<AStarSearcher<BoxSpace,BoxSpace::Box *>::DNode *> >::size
; Function compile flags: /Ogsp
;	COMDAT ?size@?$vector@PAUDNode@?$AStarSearcher@VBoxSpace@@PAUBox@1@@@V?$allocator@PAUDNode@?$AStarSearcher@VBoxSpace@@PAUBox@1@@@@std@@@std@@QBEIXZ
_TEXT	SEGMENT
?size@?$vector@PAUDNode@?$AStarSearcher@VBoxSpace@@PAUBox@1@@@V?$allocator@PAUDNode@?$AStarSearcher@VBoxSpace@@PAUBox@1@@@@std@@@std@@QBEIXZ PROC ; std::vector<AStarSearcher<BoxSpace,BoxSpace::Box *>::DNode *,std::allocator<AStarSearcher<BoxSpace,BoxSpace::Box *>::DNode *> >::size, COMDAT
; _this$ = ecx

; 879  : 		return (this->_Mylast - this->_Myfirst);

  00000	8b 41 04	 mov	 eax, DWORD PTR [ecx+4]
  00003	2b 01		 sub	 eax, DWORD PTR [ecx]
  00005	c1 f8 02	 sar	 eax, 2

; 880  : 		}

  00008	c3		 ret	 0
?size@?$vector@PAUDNode@?$AStarSearcher@VBoxSpace@@PAUBox@1@@@V?$allocator@PAUDNode@?$AStarSearcher@VBoxSpace@@PAUBox@1@@@@std@@@std@@QBEIXZ ENDP ; std::vector<AStarSearcher<BoxSpace,BoxSpace::Box *>::DNode *,std::allocator<AStarSearcher<BoxSpace,BoxSpace::Box *>::DNode *> >::size
_TEXT	ENDS
PUBLIC	?_Xlen@?$vector@PAUDNode@?$AStarSearcher@VBoxSpace@@PAUBox@1@@@V?$allocator@PAUDNode@?$AStarSearcher@VBoxSpace@@PAUBox@1@@@@std@@@std@@IBEXXZ ; std::vector<AStarSearcher<BoxSpace,BoxSpace::Box *>::DNode *,std::allocator<AStarSearcher<BoxSpace,BoxSpace::Box *>::DNode *> >::_Xlen
; Function compile flags: /Ogsp
;	COMDAT ?_Xlen@?$vector@PAUDNode@?$AStarSearcher@VBoxSpace@@PAUBox@1@@@V?$allocator@PAUDNode@?$AStarSearcher@VBoxSpace@@PAUBox@1@@@@std@@@std@@IBEXXZ
_TEXT	SEGMENT
?_Xlen@?$vector@PAUDNode@?$AStarSearcher@VBoxSpace@@PAUBox@1@@@V?$allocator@PAUDNode@?$AStarSearcher@VBoxSpace@@PAUBox@1@@@@std@@@std@@IBEXXZ PROC ; std::vector<AStarSearcher<BoxSpace,BoxSpace::Box *>::DNode *,std::allocator<AStarSearcher<BoxSpace,BoxSpace::Box *>::DNode *> >::_Xlen, COMDAT
; _this$ = ecx

; 1427 : 		_Xlength_error("vector<T> too long");

  00000	68 00 00 00 00	 push	 OFFSET ??_C@_0BD@OLBABOEK@vector?$DMT?$DO?5too?5long?$AA@
  00005	ff 15 00 00 00
	00		 call	 DWORD PTR __imp_?_Xlength_error@std@@YAXPBD@Z
$LN4@Xlen@4:
$LN3@Xlen@4:
  0000b	cc		 int	 3
?_Xlen@?$vector@PAUDNode@?$AStarSearcher@VBoxSpace@@PAUBox@1@@@V?$allocator@PAUDNode@?$AStarSearcher@VBoxSpace@@PAUBox@1@@@@std@@@std@@IBEXXZ ENDP ; std::vector<AStarSearcher<BoxSpace,BoxSpace::Box *>::DNode *,std::allocator<AStarSearcher<BoxSpace,BoxSpace::Box *>::DNode *> >::_Xlen
_TEXT	ENDS
PUBLIC	?_Inside@?$vector@PBQAUBox@BoxSpace@@V?$allocator@PBQAUBox@BoxSpace@@@std@@@std@@IBE_NPBQBQAUBox@BoxSpace@@@Z ; std::vector<BoxSpace::Box * const *,std::allocator<BoxSpace::Box * const *> >::_Inside
; Function compile flags: /Ogsp
;	COMDAT ?_Inside@?$vector@PBQAUBox@BoxSpace@@V?$allocator@PBQAUBox@BoxSpace@@@std@@@std@@IBE_NPBQBQAUBox@BoxSpace@@@Z
_TEXT	SEGMENT
__Ptr$ = 8						; size = 4
?_Inside@?$vector@PBQAUBox@BoxSpace@@V?$allocator@PBQAUBox@BoxSpace@@@std@@@std@@IBE_NPBQBQAUBox@BoxSpace@@@Z PROC ; std::vector<BoxSpace::Box * const *,std::allocator<BoxSpace::Box * const *> >::_Inside, COMDAT
; _this$ = ecx

; 1285 : 		{	// test if _Ptr points inside vector

  00000	55		 push	 ebp
  00001	8b ec		 mov	 ebp, esp

; 1286 : 		return (_Ptr < this->_Mylast && this->_Myfirst <= _Ptr);

  00003	8b 45 08	 mov	 eax, DWORD PTR __Ptr$[ebp]
  00006	3b 41 04	 cmp	 eax, DWORD PTR [ecx+4]
  00009	73 09		 jae	 SHORT $LN3@Inside@5
  0000b	39 01		 cmp	 DWORD PTR [ecx], eax
  0000d	77 05		 ja	 SHORT $LN3@Inside@5
  0000f	33 c0		 xor	 eax, eax
  00011	40		 inc	 eax
  00012	eb 02		 jmp	 SHORT $LN4@Inside@5
$LN3@Inside@5:
  00014	33 c0		 xor	 eax, eax
$LN4@Inside@5:

; 1287 : 		}

  00016	5d		 pop	 ebp
  00017	c2 04 00	 ret	 4
?_Inside@?$vector@PBQAUBox@BoxSpace@@V?$allocator@PBQAUBox@BoxSpace@@@std@@@std@@IBE_NPBQBQAUBox@BoxSpace@@@Z ENDP ; std::vector<BoxSpace::Box * const *,std::allocator<BoxSpace::Box * const *> >::_Inside
_TEXT	ENDS
PUBLIC	?_Orphan_range@?$vector@PBQAUBox@BoxSpace@@V?$allocator@PBQAUBox@BoxSpace@@@std@@@std@@IBEXPAPBQAUBox@BoxSpace@@0@Z ; std::vector<BoxSpace::Box * const *,std::allocator<BoxSpace::Box * const *> >::_Orphan_range
; Function compile flags: /Ogsp
;	COMDAT ?_Orphan_range@?$vector@PBQAUBox@BoxSpace@@V?$allocator@PBQAUBox@BoxSpace@@@std@@@std@@IBEXPAPBQAUBox@BoxSpace@@0@Z
_TEXT	SEGMENT
___formal$ = 8						; size = 4
___formal$ = 12						; size = 4
?_Orphan_range@?$vector@PBQAUBox@BoxSpace@@V?$allocator@PBQAUBox@BoxSpace@@@std@@@std@@IBEXPAPBQAUBox@BoxSpace@@0@Z PROC ; std::vector<BoxSpace::Box * const *,std::allocator<BoxSpace::Box * const *> >::_Orphan_range, COMDAT
; _this$ = ecx

; 1454 : 		}

  00000	c2 08 00	 ret	 8
?_Orphan_range@?$vector@PBQAUBox@BoxSpace@@V?$allocator@PBQAUBox@BoxSpace@@@std@@@std@@IBEXPAPBQAUBox@BoxSpace@@0@Z ENDP ; std::vector<BoxSpace::Box * const *,std::allocator<BoxSpace::Box * const *> >::_Orphan_range
_TEXT	ENDS
PUBLIC	??0?$_Vector_const_iterator@V?$_Vector_val@PAUDNode@?$AStarSearcher@VBoxSpace@@PAUBox@1@@@V?$allocator@PAUDNode@?$AStarSearcher@VBoxSpace@@PAUBox@1@@@@std@@@std@@@std@@QAE@XZ ; std::_Vector_const_iterator<std::_Vector_val<AStarSearcher<BoxSpace,BoxSpace::Box *>::DNode *,std::allocator<AStarSearcher<BoxSpace,BoxSpace::Box *>::DNode *> > >::_Vector_const_iterator<std::_Vector_val<AStarSearcher<BoxSpace,BoxSpace::Box *>::DNode *,std::allocator<AStarSearcher<BoxSpace,BoxSpace::Box *>::DNode *> > >
; Function compile flags: /Ogsp
;	COMDAT ??0?$_Vector_const_iterator@V?$_Vector_val@PAUDNode@?$AStarSearcher@VBoxSpace@@PAUBox@1@@@V?$allocator@PAUDNode@?$AStarSearcher@VBoxSpace@@PAUBox@1@@@@std@@@std@@@std@@QAE@XZ
_TEXT	SEGMENT
??0?$_Vector_const_iterator@V?$_Vector_val@PAUDNode@?$AStarSearcher@VBoxSpace@@PAUBox@1@@@V?$allocator@PAUDNode@?$AStarSearcher@VBoxSpace@@PAUBox@1@@@@std@@@std@@@std@@QAE@XZ PROC ; std::_Vector_const_iterator<std::_Vector_val<AStarSearcher<BoxSpace,BoxSpace::Box *>::DNode *,std::allocator<AStarSearcher<BoxSpace,BoxSpace::Box *>::DNode *> > >::_Vector_const_iterator<std::_Vector_val<AStarSearcher<BoxSpace,BoxSpace::Box *>::DNode *,std::allocator<AStarSearcher<BoxSpace,BoxSpace::Box *>::DNode *> > >, COMDAT
; _this$ = ecx

; 40   : 		{	// construct with null pointer

  00000	8b c1		 mov	 eax, ecx
  00002	83 20 00	 and	 DWORD PTR [eax], 0

; 41   : 		}

  00005	c3		 ret	 0
??0?$_Vector_const_iterator@V?$_Vector_val@PAUDNode@?$AStarSearcher@VBoxSpace@@PAUBox@1@@@V?$allocator@PAUDNode@?$AStarSearcher@VBoxSpace@@PAUBox@1@@@@std@@@std@@@std@@QAE@XZ ENDP ; std::_Vector_const_iterator<std::_Vector_val<AStarSearcher<BoxSpace,BoxSpace::Box *>::DNode *,std::allocator<AStarSearcher<BoxSpace,BoxSpace::Box *>::DNode *> > >::_Vector_const_iterator<std::_Vector_val<AStarSearcher<BoxSpace,BoxSpace::Box *>::DNode *,std::allocator<AStarSearcher<BoxSpace,BoxSpace::Box *>::DNode *> > >
_TEXT	ENDS
PUBLIC	??D?$_Vector_const_iterator@V?$_Vector_val@PAUDNode@?$AStarSearcher@VBoxSpace@@PAUBox@1@@@V?$allocator@PAUDNode@?$AStarSearcher@VBoxSpace@@PAUBox@1@@@@std@@@std@@@std@@QBEABQAUDNode@?$AStarSearcher@VBoxSpace@@PAUBox@1@@@XZ ; std::_Vector_const_iterator<std::_Vector_val<AStarSearcher<BoxSpace,BoxSpace::Box *>::DNode *,std::allocator<AStarSearcher<BoxSpace,BoxSpace::Box *>::DNode *> > >::operator*
; Function compile flags: /Ogsp
;	COMDAT ??D?$_Vector_const_iterator@V?$_Vector_val@PAUDNode@?$AStarSearcher@VBoxSpace@@PAUBox@1@@@V?$allocator@PAUDNode@?$AStarSearcher@VBoxSpace@@PAUBox@1@@@@std@@@std@@@std@@QBEABQAUDNode@?$AStarSearcher@VBoxSpace@@PAUBox@1@@@XZ
_TEXT	SEGMENT
??D?$_Vector_const_iterator@V?$_Vector_val@PAUDNode@?$AStarSearcher@VBoxSpace@@PAUBox@1@@@V?$allocator@PAUDNode@?$AStarSearcher@VBoxSpace@@PAUBox@1@@@@std@@@std@@@std@@QBEABQAUDNode@?$AStarSearcher@VBoxSpace@@PAUBox@1@@@XZ PROC ; std::_Vector_const_iterator<std::_Vector_val<AStarSearcher<BoxSpace,BoxSpace::Box *>::DNode *,std::allocator<AStarSearcher<BoxSpace,BoxSpace::Box *>::DNode *> > >::operator*, COMDAT
; _this$ = ecx

; 64   :  #if _ITERATOR_DEBUG_LEVEL == 2
; 65   : 		if (this->_Getcont() == 0
; 66   : 			|| this->_Ptr == 0
; 67   : 			|| this->_Ptr < ((_Myvec *)this->_Getcont())->_Myfirst
; 68   : 			|| ((_Myvec *)this->_Getcont())->_Mylast <= this->_Ptr)
; 69   : 			{	// report error
; 70   : 			_DEBUG_ERROR("vector iterator not dereferencable");
; 71   : 			_SCL_SECURE_OUT_OF_RANGE;
; 72   : 			}
; 73   : 
; 74   :  #elif _ITERATOR_DEBUG_LEVEL == 1
; 75   : 		_SCL_SECURE_VALIDATE(this->_Getcont() != 0);
; 76   : 		_SCL_SECURE_VALIDATE_RANGE(
; 77   : 			this->_Ptr != 0
; 78   : 			&& ((_Myvec *)this->_Getcont())->_Myfirst <= this->_Ptr
; 79   : 			&& this->_Ptr < ((_Myvec *)this->_Getcont())->_Mylast);
; 80   :  #endif /* _ITERATOR_DEBUG_LEVEL */
; 81   : 
; 82   : 		__analysis_assume(this->_Ptr != 0);
; 83   : 
; 84   : 		return (*this->_Ptr);

  00000	8b 01		 mov	 eax, DWORD PTR [ecx]

; 85   : 		}

  00002	c3		 ret	 0
??D?$_Vector_const_iterator@V?$_Vector_val@PAUDNode@?$AStarSearcher@VBoxSpace@@PAUBox@1@@@V?$allocator@PAUDNode@?$AStarSearcher@VBoxSpace@@PAUBox@1@@@@std@@@std@@@std@@QBEABQAUDNode@?$AStarSearcher@VBoxSpace@@PAUBox@1@@@XZ ENDP ; std::_Vector_const_iterator<std::_Vector_val<AStarSearcher<BoxSpace,BoxSpace::Box *>::DNode *,std::allocator<AStarSearcher<BoxSpace,BoxSpace::Box *>::DNode *> > >::operator*
_TEXT	ENDS
PUBLIC	?_Compat@?$_Vector_const_iterator@V?$_Vector_val@FV?$allocator@F@std@@@std@@@std@@QBEXABV12@@Z ; std::_Vector_const_iterator<std::_Vector_val<short,std::allocator<short> > >::_Compat
; Function compile flags: /Ogsp
;	COMDAT ?_Compat@?$_Vector_const_iterator@V?$_Vector_val@FV?$allocator@F@std@@@std@@@std@@QBEXABV12@@Z
_TEXT	SEGMENT
___formal$ = 8						; size = 4
?_Compat@?$_Vector_const_iterator@V?$_Vector_val@FV?$allocator@F@std@@@std@@@std@@QBEXABV12@@Z PROC ; std::_Vector_const_iterator<std::_Vector_val<short,std::allocator<short> > >::_Compat, COMDAT
; _this$ = ecx

; 253  : 		}

  00000	c2 04 00	 ret	 4
?_Compat@?$_Vector_const_iterator@V?$_Vector_val@FV?$allocator@F@std@@@std@@@std@@QBEXABV12@@Z ENDP ; std::_Vector_const_iterator<std::_Vector_val<short,std::allocator<short> > >::_Compat
_TEXT	ENDS
PUBLIC	?max_size@?$allocator@PAUDNode@?$AStarSearcher@VBoxSpace@@PAUBox@1@@@@std@@QBEIXZ ; std::allocator<AStarSearcher<BoxSpace,BoxSpace::Box *>::DNode *>::max_size
; Function compile flags: /Ogsp
; File c:\program files (x86)\microsoft visual studio 10.0\vc\include\xmemory
;	COMDAT ?max_size@?$allocator@PAUDNode@?$AStarSearcher@VBoxSpace@@PAUBox@1@@@@std@@QBEIXZ
_TEXT	SEGMENT
?max_size@?$allocator@PAUDNode@?$AStarSearcher@VBoxSpace@@PAUBox@1@@@@std@@QBEIXZ PROC ; std::allocator<AStarSearcher<BoxSpace,BoxSpace::Box *>::DNode *>::max_size, COMDAT
; _this$ = ecx

; 218  : 		_SIZT _Count = (_SIZT)(-1) / sizeof (_Ty);
; 219  : 		return (0 < _Count ? _Count : 1);

  00000	b8 ff ff ff 3f	 mov	 eax, 1073741823		; 3fffffffH

; 220  : 		}

  00005	c3		 ret	 0
?max_size@?$allocator@PAUDNode@?$AStarSearcher@VBoxSpace@@PAUBox@1@@@@std@@QBEIXZ ENDP ; std::allocator<AStarSearcher<BoxSpace,BoxSpace::Box *>::DNode *>::max_size
_TEXT	ENDS
PUBLIC	?capacity@?$vector@PBQAUBox@BoxSpace@@V?$allocator@PBQAUBox@BoxSpace@@@std@@@std@@QBEIXZ ; std::vector<BoxSpace::Box * const *,std::allocator<BoxSpace::Box * const *> >::capacity
; Function compile flags: /Ogsp
; File c:\program files (x86)\microsoft visual studio 10.0\vc\include\vector
;	COMDAT ?capacity@?$vector@PBQAUBox@BoxSpace@@V?$allocator@PBQAUBox@BoxSpace@@@std@@@std@@QBEIXZ
_TEXT	SEGMENT
?capacity@?$vector@PBQAUBox@BoxSpace@@V?$allocator@PBQAUBox@BoxSpace@@@std@@@std@@QBEIXZ PROC ; std::vector<BoxSpace::Box * const *,std::allocator<BoxSpace::Box * const *> >::capacity, COMDAT
; _this$ = ecx

; 777  : 		return (this->_Myend - this->_Myfirst);

  00000	8b 41 08	 mov	 eax, DWORD PTR [ecx+8]
  00003	2b 01		 sub	 eax, DWORD PTR [ecx]
  00005	c1 f8 02	 sar	 eax, 2

; 778  : 		}

  00008	c3		 ret	 0
?capacity@?$vector@PBQAUBox@BoxSpace@@V?$allocator@PBQAUBox@BoxSpace@@@std@@@std@@QBEIXZ ENDP ; std::vector<BoxSpace::Box * const *,std::allocator<BoxSpace::Box * const *> >::capacity
_TEXT	ENDS
PUBLIC	?_Xlen@?$vector@PBQAUBox@BoxSpace@@V?$allocator@PBQAUBox@BoxSpace@@@std@@@std@@IBEXXZ ; std::vector<BoxSpace::Box * const *,std::allocator<BoxSpace::Box * const *> >::_Xlen
; Function compile flags: /Ogsp
;	COMDAT ?_Xlen@?$vector@PBQAUBox@BoxSpace@@V?$allocator@PBQAUBox@BoxSpace@@@std@@@std@@IBEXXZ
_TEXT	SEGMENT
?_Xlen@?$vector@PBQAUBox@BoxSpace@@V?$allocator@PBQAUBox@BoxSpace@@@std@@@std@@IBEXXZ PROC ; std::vector<BoxSpace::Box * const *,std::allocator<BoxSpace::Box * const *> >::_Xlen, COMDAT
; _this$ = ecx

; 1427 : 		_Xlength_error("vector<T> too long");

  00000	68 00 00 00 00	 push	 OFFSET ??_C@_0BD@OLBABOEK@vector?$DMT?$DO?5too?5long?$AA@
  00005	ff 15 00 00 00
	00		 call	 DWORD PTR __imp_?_Xlength_error@std@@YAXPBD@Z
$LN4@Xlen@5:
$LN3@Xlen@5:
  0000b	cc		 int	 3
?_Xlen@?$vector@PBQAUBox@BoxSpace@@V?$allocator@PBQAUBox@BoxSpace@@@std@@@std@@IBEXXZ ENDP ; std::vector<BoxSpace::Box * const *,std::allocator<BoxSpace::Box * const *> >::_Xlen
_TEXT	ENDS
PUBLIC	??E?$_Vector_const_iterator@V?$_Vector_val@PAUDNode@?$AStarSearcher@VBoxSpace@@PAUBox@1@@@V?$allocator@PAUDNode@?$AStarSearcher@VBoxSpace@@PAUBox@1@@@@std@@@std@@@std@@QAEAAV01@XZ ; std::_Vector_const_iterator<std::_Vector_val<AStarSearcher<BoxSpace,BoxSpace::Box *>::DNode *,std::allocator<AStarSearcher<BoxSpace,BoxSpace::Box *>::DNode *> > >::operator++
; Function compile flags: /Ogsp
;	COMDAT ??E?$_Vector_const_iterator@V?$_Vector_val@PAUDNode@?$AStarSearcher@VBoxSpace@@PAUBox@1@@@V?$allocator@PAUDNode@?$AStarSearcher@VBoxSpace@@PAUBox@1@@@@std@@@std@@@std@@QAEAAV01@XZ
_TEXT	SEGMENT
??E?$_Vector_const_iterator@V?$_Vector_val@PAUDNode@?$AStarSearcher@VBoxSpace@@PAUBox@1@@@V?$allocator@PAUDNode@?$AStarSearcher@VBoxSpace@@PAUBox@1@@@@std@@@std@@@std@@QAEAAV01@XZ PROC ; std::_Vector_const_iterator<std::_Vector_val<AStarSearcher<BoxSpace,BoxSpace::Box *>::DNode *,std::allocator<AStarSearcher<BoxSpace,BoxSpace::Box *>::DNode *> > >::operator++, COMDAT
; _this$ = ecx

; 93   : 		{	// preincrement

  00000	8b c1		 mov	 eax, ecx

; 94   :  #if _ITERATOR_DEBUG_LEVEL == 2
; 95   : 		if (this->_Getcont() == 0
; 96   : 			|| this->_Ptr == 0
; 97   : 			|| ((_Myvec *)this->_Getcont())->_Mylast <= this->_Ptr)
; 98   : 			{	// report error
; 99   : 			_DEBUG_ERROR("vector iterator not incrementable");
; 100  : 			_SCL_SECURE_OUT_OF_RANGE;
; 101  : 			}
; 102  : 
; 103  :  #elif _ITERATOR_DEBUG_LEVEL == 1
; 104  : 		_SCL_SECURE_VALIDATE(this->_Getcont() != 0);
; 105  : 		_SCL_SECURE_VALIDATE_RANGE(
; 106  : 			this->_Ptr != 0
; 107  : 			&& this->_Ptr < ((_Myvec *)this->_Getcont())->_Mylast);
; 108  :  #endif /* _ITERATOR_DEBUG_LEVEL */
; 109  : 
; 110  : 		++this->_Ptr;

  00002	83 00 04	 add	 DWORD PTR [eax], 4

; 111  : 		return (*this);
; 112  : 		}

  00005	c3		 ret	 0
??E?$_Vector_const_iterator@V?$_Vector_val@PAUDNode@?$AStarSearcher@VBoxSpace@@PAUBox@1@@@V?$allocator@PAUDNode@?$AStarSearcher@VBoxSpace@@PAUBox@1@@@@std@@@std@@@std@@QAEAAV01@XZ ENDP ; std::_Vector_const_iterator<std::_Vector_val<AStarSearcher<BoxSpace,BoxSpace::Box *>::DNode *,std::allocator<AStarSearcher<BoxSpace,BoxSpace::Box *>::DNode *> > >::operator++
_TEXT	ENDS
PUBLIC	??Y?$_Vector_const_iterator@V?$_Vector_val@PAUDNode@?$AStarSearcher@VBoxSpace@@PAUBox@1@@@V?$allocator@PAUDNode@?$AStarSearcher@VBoxSpace@@PAUBox@1@@@@std@@@std@@@std@@QAEAAV01@H@Z ; std::_Vector_const_iterator<std::_Vector_val<AStarSearcher<BoxSpace,BoxSpace::Box *>::DNode *,std::allocator<AStarSearcher<BoxSpace,BoxSpace::Box *>::DNode *> > >::operator+=
; Function compile flags: /Ogsp
;	COMDAT ??Y?$_Vector_const_iterator@V?$_Vector_val@PAUDNode@?$AStarSearcher@VBoxSpace@@PAUBox@1@@@V?$allocator@PAUDNode@?$AStarSearcher@VBoxSpace@@PAUBox@1@@@@std@@@std@@@std@@QAEAAV01@H@Z
_TEXT	SEGMENT
__Off$ = 8						; size = 4
??Y?$_Vector_const_iterator@V?$_Vector_val@PAUDNode@?$AStarSearcher@VBoxSpace@@PAUBox@1@@@V?$allocator@PAUDNode@?$AStarSearcher@VBoxSpace@@PAUBox@1@@@@std@@@std@@@std@@QAEAAV01@H@Z PROC ; std::_Vector_const_iterator<std::_Vector_val<AStarSearcher<BoxSpace,BoxSpace::Box *>::DNode *,std::allocator<AStarSearcher<BoxSpace,BoxSpace::Box *>::DNode *> > >::operator+=, COMDAT
; _this$ = ecx

; 151  : 		{	// increment by integer

  00000	55		 push	 ebp
  00001	8b ec		 mov	 ebp, esp
  00003	8b c1		 mov	 eax, ecx

; 152  :  #if _ITERATOR_DEBUG_LEVEL == 2
; 153  : 		if (this->_Getcont() == 0
; 154  : 			|| this->_Ptr + _Off < ((_Myvec *)this->_Getcont())->_Myfirst
; 155  : 			|| ((_Myvec *)this->_Getcont())->_Mylast < this->_Ptr + _Off)
; 156  : 			{	// report error
; 157  : 			_DEBUG_ERROR("vector iterator + offset out of range");
; 158  : 			_SCL_SECURE_OUT_OF_RANGE;
; 159  : 			}
; 160  : 
; 161  :  #elif _ITERATOR_DEBUG_LEVEL == 1
; 162  : 		_SCL_SECURE_VALIDATE(this->_Getcont() != 0);
; 163  : 		_SCL_SECURE_VALIDATE_RANGE(
; 164  : 			((_Myvec *)this->_Getcont())->_Myfirst <= this->_Ptr + _Off
; 165  : 			&& this->_Ptr + _Off <= ((_Myvec *)this->_Getcont())->_Mylast);
; 166  :  #endif /* _ITERATOR_DEBUG_LEVEL */
; 167  : 
; 168  : 		_Ptr += _Off;

  00005	8b 4d 08	 mov	 ecx, DWORD PTR __Off$[ebp]
  00008	c1 e1 02	 shl	 ecx, 2
  0000b	01 08		 add	 DWORD PTR [eax], ecx

; 169  : 		return (*this);
; 170  : 		}

  0000d	5d		 pop	 ebp
  0000e	c2 04 00	 ret	 4
??Y?$_Vector_const_iterator@V?$_Vector_val@PAUDNode@?$AStarSearcher@VBoxSpace@@PAUBox@1@@@V?$allocator@PAUDNode@?$AStarSearcher@VBoxSpace@@PAUBox@1@@@@std@@@std@@@std@@QAEAAV01@H@Z ENDP ; std::_Vector_const_iterator<std::_Vector_val<AStarSearcher<BoxSpace,BoxSpace::Box *>::DNode *,std::allocator<AStarSearcher<BoxSpace,BoxSpace::Box *>::DNode *> > >::operator+=
_TEXT	ENDS
PUBLIC	?max_size@?$allocator@PBQAUBox@BoxSpace@@@std@@QBEIXZ ; std::allocator<BoxSpace::Box * const *>::max_size
; Function compile flags: /Ogsp
; File c:\program files (x86)\microsoft visual studio 10.0\vc\include\xmemory
;	COMDAT ?max_size@?$allocator@PBQAUBox@BoxSpace@@@std@@QBEIXZ
_TEXT	SEGMENT
?max_size@?$allocator@PBQAUBox@BoxSpace@@@std@@QBEIXZ PROC ; std::allocator<BoxSpace::Box * const *>::max_size, COMDAT
; _this$ = ecx

; 218  : 		_SIZT _Count = (_SIZT)(-1) / sizeof (_Ty);
; 219  : 		return (0 < _Count ? _Count : 1);

  00000	b8 ff ff ff 3f	 mov	 eax, 1073741823		; 3fffffffH

; 220  : 		}

  00005	c3		 ret	 0
?max_size@?$allocator@PBQAUBox@BoxSpace@@@std@@QBEIXZ ENDP ; std::allocator<BoxSpace::Box * const *>::max_size
_TEXT	ENDS
PUBLIC	??Y?$_Vector_const_iterator@V?$_Vector_val@PAUTBlock@?$uni_heap@$0BE@$0IA@@@V?$allocator@PAUTBlock@?$uni_heap@$0BE@$0IA@@@@std@@@std@@@std@@QAEAAV01@H@Z ; std::_Vector_const_iterator<std::_Vector_val<uni_heap<20,128>::TBlock *,std::allocator<uni_heap<20,128>::TBlock *> > >::operator+=
; Function compile flags: /Ogsp
; File c:\program files (x86)\microsoft visual studio 10.0\vc\include\vector
;	COMDAT ??Y?$_Vector_const_iterator@V?$_Vector_val@PAUTBlock@?$uni_heap@$0BE@$0IA@@@V?$allocator@PAUTBlock@?$uni_heap@$0BE@$0IA@@@@std@@@std@@@std@@QAEAAV01@H@Z
_TEXT	SEGMENT
__Off$ = 8						; size = 4
??Y?$_Vector_const_iterator@V?$_Vector_val@PAUTBlock@?$uni_heap@$0BE@$0IA@@@V?$allocator@PAUTBlock@?$uni_heap@$0BE@$0IA@@@@std@@@std@@@std@@QAEAAV01@H@Z PROC ; std::_Vector_const_iterator<std::_Vector_val<uni_heap<20,128>::TBlock *,std::allocator<uni_heap<20,128>::TBlock *> > >::operator+=, COMDAT
; _this$ = ecx

; 151  : 		{	// increment by integer

  00000	55		 push	 ebp
  00001	8b ec		 mov	 ebp, esp
  00003	8b c1		 mov	 eax, ecx

; 152  :  #if _ITERATOR_DEBUG_LEVEL == 2
; 153  : 		if (this->_Getcont() == 0
; 154  : 			|| this->_Ptr + _Off < ((_Myvec *)this->_Getcont())->_Myfirst
; 155  : 			|| ((_Myvec *)this->_Getcont())->_Mylast < this->_Ptr + _Off)
; 156  : 			{	// report error
; 157  : 			_DEBUG_ERROR("vector iterator + offset out of range");
; 158  : 			_SCL_SECURE_OUT_OF_RANGE;
; 159  : 			}
; 160  : 
; 161  :  #elif _ITERATOR_DEBUG_LEVEL == 1
; 162  : 		_SCL_SECURE_VALIDATE(this->_Getcont() != 0);
; 163  : 		_SCL_SECURE_VALIDATE_RANGE(
; 164  : 			((_Myvec *)this->_Getcont())->_Myfirst <= this->_Ptr + _Off
; 165  : 			&& this->_Ptr + _Off <= ((_Myvec *)this->_Getcont())->_Mylast);
; 166  :  #endif /* _ITERATOR_DEBUG_LEVEL */
; 167  : 
; 168  : 		_Ptr += _Off;

  00005	8b 4d 08	 mov	 ecx, DWORD PTR __Off$[ebp]
  00008	c1 e1 02	 shl	 ecx, 2
  0000b	01 08		 add	 DWORD PTR [eax], ecx

; 169  : 		return (*this);
; 170  : 		}

  0000d	5d		 pop	 ebp
  0000e	c2 04 00	 ret	 4
??Y?$_Vector_const_iterator@V?$_Vector_val@PAUTBlock@?$uni_heap@$0BE@$0IA@@@V?$allocator@PAUTBlock@?$uni_heap@$0BE@$0IA@@@@std@@@std@@@std@@QAEAAV01@H@Z ENDP ; std::_Vector_const_iterator<std::_Vector_val<uni_heap<20,128>::TBlock *,std::allocator<uni_heap<20,128>::TBlock *> > >::operator+=
_TEXT	ENDS
PUBLIC	??$addressof@F@std@@YAPAFAAF@Z			; std::addressof<short>
; Function compile flags: /Ogsp
; File c:\program files (x86)\microsoft visual studio 10.0\vc\include\xmemory
;	COMDAT ??$addressof@F@std@@YAPAFAAF@Z
_TEXT	SEGMENT
__Val$ = 8						; size = 4
??$addressof@F@std@@YAPAFAAF@Z PROC			; std::addressof<short>, COMDAT

; 110  : 	{	// return address of _Val

  00000	55		 push	 ebp
  00001	8b ec		 mov	 ebp, esp

; 111  : 	return ((_Ty *) &(char&)_Val);

  00003	8b 45 08	 mov	 eax, DWORD PTR __Val$[ebp]

; 112  : 	}

  00006	5d		 pop	 ebp
  00007	c3		 ret	 0
??$addressof@F@std@@YAPAFAAF@Z ENDP			; std::addressof<short>
_TEXT	ENDS
PUBLIC	??$forward@F@std@@YA$$QAFAAF@Z			; std::forward<short>
; Function compile flags: /Ogsp
; File c:\program files (x86)\microsoft visual studio 10.0\vc\include\utility
;	COMDAT ??$forward@F@std@@YA$$QAFAAF@Z
_TEXT	SEGMENT
__Arg$ = 8						; size = 4
??$forward@F@std@@YA$$QAFAAF@Z PROC			; std::forward<short>, COMDAT

; 78   : 	{	// forward _Arg, given explicitly specified type parameter

  00000	55		 push	 ebp
  00001	8b ec		 mov	 ebp, esp

; 79   : 	return ((_Ty&&)_Arg);

  00003	8b 45 08	 mov	 eax, DWORD PTR __Arg$[ebp]

; 80   : 	}

  00006	5d		 pop	 ebp
  00007	c3		 ret	 0
??$forward@F@std@@YA$$QAFAAF@Z ENDP			; std::forward<short>
_TEXT	ENDS
PUBLIC	??$addressof@$$CBF@std@@YAPBFABF@Z		; std::addressof<short const >
; Function compile flags: /Ogsp
; File c:\program files (x86)\microsoft visual studio 10.0\vc\include\xmemory
;	COMDAT ??$addressof@$$CBF@std@@YAPBFABF@Z
_TEXT	SEGMENT
__Val$ = 8						; size = 4
??$addressof@$$CBF@std@@YAPBFABF@Z PROC			; std::addressof<short const >, COMDAT

; 110  : 	{	// return address of _Val

  00000	55		 push	 ebp
  00001	8b ec		 mov	 ebp, esp

; 111  : 	return ((_Ty *) &(char&)_Val);

  00003	8b 45 08	 mov	 eax, DWORD PTR __Val$[ebp]

; 112  : 	}

  00006	5d		 pop	 ebp
  00007	c3		 ret	 0
??$addressof@$$CBF@std@@YAPBFABF@Z ENDP			; std::addressof<short const >
_TEXT	ENDS
PUBLIC	??$addressof@$$CBULink@BoxSpace@@@std@@YAPBULink@BoxSpace@@ABU12@@Z ; std::addressof<BoxSpace::Link const >
; Function compile flags: /Ogsp
;	COMDAT ??$addressof@$$CBULink@BoxSpace@@@std@@YAPBULink@BoxSpace@@ABU12@@Z
_TEXT	SEGMENT
__Val$ = 8						; size = 4
??$addressof@$$CBULink@BoxSpace@@@std@@YAPBULink@BoxSpace@@ABU12@@Z PROC ; std::addressof<BoxSpace::Link const >, COMDAT

; 110  : 	{	// return address of _Val

  00000	55		 push	 ebp
  00001	8b ec		 mov	 ebp, esp

; 111  : 	return ((_Ty *) &(char&)_Val);

  00003	8b 45 08	 mov	 eax, DWORD PTR __Val$[ebp]

; 112  : 	}

  00006	5d		 pop	 ebp
  00007	c3		 ret	 0
??$addressof@$$CBULink@BoxSpace@@@std@@YAPBULink@BoxSpace@@ABU12@@Z ENDP ; std::addressof<BoxSpace::Link const >
_TEXT	ENDS
PUBLIC	??$addressof@$$CBUBox@BoxSpace@@@std@@YAPBUBox@BoxSpace@@ABU12@@Z ; std::addressof<BoxSpace::Box const >
; Function compile flags: /Ogsp
;	COMDAT ??$addressof@$$CBUBox@BoxSpace@@@std@@YAPBUBox@BoxSpace@@ABU12@@Z
_TEXT	SEGMENT
__Val$ = 8						; size = 4
??$addressof@$$CBUBox@BoxSpace@@@std@@YAPBUBox@BoxSpace@@ABU12@@Z PROC ; std::addressof<BoxSpace::Box const >, COMDAT

; 110  : 	{	// return address of _Val

  00000	55		 push	 ebp
  00001	8b ec		 mov	 ebp, esp

; 111  : 	return ((_Ty *) &(char&)_Val);

  00003	8b 45 08	 mov	 eax, DWORD PTR __Val$[ebp]

; 112  : 	}

  00006	5d		 pop	 ebp
  00007	c3		 ret	 0
??$addressof@$$CBUBox@BoxSpace@@@std@@YAPBUBox@BoxSpace@@ABU12@@Z ENDP ; std::addressof<BoxSpace::Box const >
_TEXT	ENDS
PUBLIC	__TI2?AVbad_alloc@std@@
PUBLIC	??$_Allocate@F@std@@YAPAFIPAF@Z			; std::_Allocate<short>
PUBLIC	__CTA2?AVbad_alloc@std@@
PUBLIC	__CT??_R0?AVbad_alloc@std@@@8??0bad_alloc@std@@QAE@ABV01@@Z12
PUBLIC	??0bad_alloc@std@@QAE@ABV01@@Z			; std::bad_alloc::bad_alloc
PUBLIC	__CT??_R0?AVexception@std@@@8??0exception@std@@QAE@ABV01@@Z12
EXTRN	??2@YAPAXI@Z:PROC				; operator new
EXTRN	__CxxThrowException@8:PROC
EXTRN	??0exception@std@@QAE@ABV01@@Z:PROC		; std::exception::exception
;	COMDAT __CT??_R0?AVexception@std@@@8??0exception@std@@QAE@ABV01@@Z12
; File c:\program files (x86)\microsoft visual studio 10.0\vc\include\exception
xdata$x	SEGMENT
__CT??_R0?AVexception@std@@@8??0exception@std@@QAE@ABV01@@Z12 DD 00H
	DD	FLAT:??_R0?AVexception@std@@@8
	DD	00H
	DD	0ffffffffH
	ORG $+4
	DD	0cH
	DD	FLAT:??0exception@std@@QAE@ABV01@@Z
xdata$x	ENDS
;	COMDAT __CT??_R0?AVbad_alloc@std@@@8??0bad_alloc@std@@QAE@ABV01@@Z12
xdata$x	SEGMENT
__CT??_R0?AVbad_alloc@std@@@8??0bad_alloc@std@@QAE@ABV01@@Z12 DD 00H
	DD	FLAT:??_R0?AVbad_alloc@std@@@8
	DD	00H
	DD	0ffffffffH
	ORG $+4
	DD	0cH
	DD	FLAT:??0bad_alloc@std@@QAE@ABV01@@Z
xdata$x	ENDS
;	COMDAT __CTA2?AVbad_alloc@std@@
xdata$x	SEGMENT
__CTA2?AVbad_alloc@std@@ DD 02H
	DD	FLAT:__CT??_R0?AVbad_alloc@std@@@8??0bad_alloc@std@@QAE@ABV01@@Z12
	DD	FLAT:__CT??_R0?AVexception@std@@@8??0exception@std@@QAE@ABV01@@Z12
xdata$x	ENDS
;	COMDAT __TI2?AVbad_alloc@std@@
xdata$x	SEGMENT
__TI2?AVbad_alloc@std@@ DD 00H
	DD	FLAT:??1bad_alloc@std@@UAE@XZ
	DD	00H
	DD	FLAT:__CTA2?AVbad_alloc@std@@
; Function compile flags: /Ogsp
; File c:\program files (x86)\microsoft visual studio 10.0\vc\include\xmemory
xdata$x	ENDS
;	COMDAT ??$_Allocate@F@std@@YAPAFIPAF@Z
_TEXT	SEGMENT
$T509936 = -12						; size = 12
$T509941 = 8						; size = 4
__Count$ = 8						; size = 4
___formal$ = 12						; size = 4
??$_Allocate@F@std@@YAPAFIPAF@Z PROC			; std::_Allocate<short>, COMDAT

; 30   : 	{	// allocate storage for _Count elements of type _Ty

  00000	55		 push	 ebp
  00001	8b ec		 mov	 ebp, esp

; 31   : 	void *_Ptr = 0;
; 32   : 
; 33   : 	if (_Count <= 0)

  00003	8b 4d 08	 mov	 ecx, DWORD PTR __Count$[ebp]
  00006	83 ec 0c	 sub	 esp, 12			; 0000000cH
  00009	33 c0		 xor	 eax, eax
  0000b	85 c9		 test	 ecx, ecx

; 34   : 		_Count = 0;
; 35   : 	else if (((_SIZT)(-1) / sizeof (_Ty) < _Count)

  0000d	74 3c		 je	 SHORT $LN5@Allocate

; 36   : 		|| (_Ptr = ::operator new(_Count * sizeof (_Ty))) == 0)

  0000f	81 f9 ff ff ff
	7f		 cmp	 ecx, 2147483647		; 7fffffffH
  00015	77 0e		 ja	 SHORT $LN1@Allocate
  00017	8d 04 09	 lea	 eax, DWORD PTR [ecx+ecx]
  0001a	50		 push	 eax
  0001b	e8 00 00 00 00	 call	 ??2@YAPAXI@Z		; operator new
  00020	59		 pop	 ecx
  00021	85 c0		 test	 eax, eax

; 38   : 
; 39   : 	return ((_Ty _FARQ *)_Ptr);

  00023	75 26		 jne	 SHORT $LN5@Allocate
$LN1@Allocate:

; 37   : 		_THROW_NCEE(bad_alloc, 0);

  00025	83 65 08 00	 and	 DWORD PTR $T509941[ebp], 0
  00029	8d 45 08	 lea	 eax, DWORD PTR $T509941[ebp]
  0002c	50		 push	 eax
  0002d	8d 4d f4	 lea	 ecx, DWORD PTR $T509936[ebp]
  00030	ff 15 00 00 00
	00		 call	 DWORD PTR __imp_??0exception@std@@QAE@ABQBD@Z
  00036	68 00 00 00 00	 push	 OFFSET __TI2?AVbad_alloc@std@@
  0003b	8d 45 f4	 lea	 eax, DWORD PTR $T509936[ebp]
  0003e	50		 push	 eax
  0003f	c7 45 f4 00 00
	00 00		 mov	 DWORD PTR $T509936[ebp], OFFSET ??_7bad_alloc@std@@6B@
  00046	e8 00 00 00 00	 call	 __CxxThrowException@8
$LN10@Allocate:
$LN5@Allocate:

; 40   : 	}

  0004b	c9		 leave
  0004c	c3		 ret	 0
$LN9@Allocate:
??$_Allocate@F@std@@YAPAFIPAF@Z ENDP			; std::_Allocate<short>
_TEXT	ENDS
PUBLIC	??$addressof@QAUDNode@?$AStarSearcher@VBoxSpace@@PAUBox@1@@@@std@@YAPBQAUDNode@?$AStarSearcher@VBoxSpace@@PAUBox@1@@@ABQAU12@@Z ; std::addressof<AStarSearcher<BoxSpace,BoxSpace::Box *>::DNode * const>
; Function compile flags: /Ogsp
;	COMDAT ??$addressof@QAUDNode@?$AStarSearcher@VBoxSpace@@PAUBox@1@@@@std@@YAPBQAUDNode@?$AStarSearcher@VBoxSpace@@PAUBox@1@@@ABQAU12@@Z
_TEXT	SEGMENT
__Val$ = 8						; size = 4
??$addressof@QAUDNode@?$AStarSearcher@VBoxSpace@@PAUBox@1@@@@std@@YAPBQAUDNode@?$AStarSearcher@VBoxSpace@@PAUBox@1@@@ABQAU12@@Z PROC ; std::addressof<AStarSearcher<BoxSpace,BoxSpace::Box *>::DNode * const>, COMDAT

; 110  : 	{	// return address of _Val

  00000	55		 push	 ebp
  00001	8b ec		 mov	 ebp, esp

; 111  : 	return ((_Ty *) &(char&)_Val);

  00003	8b 45 08	 mov	 eax, DWORD PTR __Val$[ebp]

; 112  : 	}

  00006	5d		 pop	 ebp
  00007	c3		 ret	 0
??$addressof@QAUDNode@?$AStarSearcher@VBoxSpace@@PAUBox@1@@@@std@@YAPBQAUDNode@?$AStarSearcher@VBoxSpace@@PAUBox@1@@@ABQAU12@@Z ENDP ; std::addressof<AStarSearcher<BoxSpace,BoxSpace::Box *>::DNode * const>
_TEXT	ENDS
PUBLIC	??$_Allocate@ULink@BoxSpace@@@std@@YAPAULink@BoxSpace@@IPAU12@@Z ; std::_Allocate<BoxSpace::Link>
; Function compile flags: /Ogsp
;	COMDAT ??$_Allocate@ULink@BoxSpace@@@std@@YAPAULink@BoxSpace@@IPAU12@@Z
_TEXT	SEGMENT
$T509948 = -12						; size = 12
$T509952 = 8						; size = 4
__Count$ = 8						; size = 4
___formal$ = 12						; size = 4
??$_Allocate@ULink@BoxSpace@@@std@@YAPAULink@BoxSpace@@IPAU12@@Z PROC ; std::_Allocate<BoxSpace::Link>, COMDAT

; 30   : 	{	// allocate storage for _Count elements of type _Ty

  00000	55		 push	 ebp
  00001	8b ec		 mov	 ebp, esp

; 31   : 	void *_Ptr = 0;
; 32   : 
; 33   : 	if (_Count <= 0)

  00003	8b 4d 08	 mov	 ecx, DWORD PTR __Count$[ebp]
  00006	83 ec 0c	 sub	 esp, 12			; 0000000cH
  00009	33 c0		 xor	 eax, eax
  0000b	85 c9		 test	 ecx, ecx

; 34   : 		_Count = 0;
; 35   : 	else if (((_SIZT)(-1) / sizeof (_Ty) < _Count)

  0000d	74 3c		 je	 SHORT $LN5@Allocate@2

; 36   : 		|| (_Ptr = ::operator new(_Count * sizeof (_Ty))) == 0)

  0000f	81 f9 ff ff ff
	07		 cmp	 ecx, 134217727		; 07ffffffH
  00015	77 0e		 ja	 SHORT $LN1@Allocate@2
  00017	c1 e1 05	 shl	 ecx, 5
  0001a	51		 push	 ecx
  0001b	e8 00 00 00 00	 call	 ??2@YAPAXI@Z		; operator new
  00020	59		 pop	 ecx
  00021	85 c0		 test	 eax, eax

; 38   : 
; 39   : 	return ((_Ty _FARQ *)_Ptr);

  00023	75 26		 jne	 SHORT $LN5@Allocate@2
$LN1@Allocate@2:

; 37   : 		_THROW_NCEE(bad_alloc, 0);

  00025	83 65 08 00	 and	 DWORD PTR $T509952[ebp], 0
  00029	8d 45 08	 lea	 eax, DWORD PTR $T509952[ebp]
  0002c	50		 push	 eax
  0002d	8d 4d f4	 lea	 ecx, DWORD PTR $T509948[ebp]
  00030	ff 15 00 00 00
	00		 call	 DWORD PTR __imp_??0exception@std@@QAE@ABQBD@Z
  00036	68 00 00 00 00	 push	 OFFSET __TI2?AVbad_alloc@std@@
  0003b	8d 45 f4	 lea	 eax, DWORD PTR $T509948[ebp]
  0003e	50		 push	 eax
  0003f	c7 45 f4 00 00
	00 00		 mov	 DWORD PTR $T509948[ebp], OFFSET ??_7bad_alloc@std@@6B@
  00046	e8 00 00 00 00	 call	 __CxxThrowException@8
$LN10@Allocate@2:
$LN5@Allocate@2:

; 40   : 	}

  0004b	c9		 leave
  0004c	c3		 ret	 0
$LN9@Allocate@2:
??$_Allocate@ULink@BoxSpace@@@std@@YAPAULink@BoxSpace@@IPAU12@@Z ENDP ; std::_Allocate<BoxSpace::Link>
_TEXT	ENDS
PUBLIC	??$_Allocate@UBox@BoxSpace@@@std@@YAPAUBox@BoxSpace@@IPAU12@@Z ; std::_Allocate<BoxSpace::Box>
; Function compile flags: /Ogsp
;	COMDAT ??$_Allocate@UBox@BoxSpace@@@std@@YAPAUBox@BoxSpace@@IPAU12@@Z
_TEXT	SEGMENT
$T509957 = -12						; size = 12
$T509961 = 8						; size = 4
__Count$ = 8						; size = 4
___formal$ = 12						; size = 4
??$_Allocate@UBox@BoxSpace@@@std@@YAPAUBox@BoxSpace@@IPAU12@@Z PROC ; std::_Allocate<BoxSpace::Box>, COMDAT

; 30   : 	{	// allocate storage for _Count elements of type _Ty

  00000	55		 push	 ebp
  00001	8b ec		 mov	 ebp, esp

; 31   : 	void *_Ptr = 0;
; 32   : 
; 33   : 	if (_Count <= 0)

  00003	8b 4d 08	 mov	 ecx, DWORD PTR __Count$[ebp]
  00006	83 ec 0c	 sub	 esp, 12			; 0000000cH
  00009	33 c0		 xor	 eax, eax
  0000b	85 c9		 test	 ecx, ecx

; 34   : 		_Count = 0;
; 35   : 	else if (((_SIZT)(-1) / sizeof (_Ty) < _Count)

  0000d	74 3c		 je	 SHORT $LN5@Allocate@3

; 36   : 		|| (_Ptr = ::operator new(_Count * sizeof (_Ty))) == 0)

  0000f	81 f9 2e ba e8
	02		 cmp	 ecx, 48806446		; 02e8ba2eH
  00015	77 0e		 ja	 SHORT $LN1@Allocate@3
  00017	6b c9 58	 imul	 ecx, 88			; 00000058H
  0001a	51		 push	 ecx
  0001b	e8 00 00 00 00	 call	 ??2@YAPAXI@Z		; operator new
  00020	59		 pop	 ecx
  00021	85 c0		 test	 eax, eax

; 38   : 
; 39   : 	return ((_Ty _FARQ *)_Ptr);

  00023	75 26		 jne	 SHORT $LN5@Allocate@3
$LN1@Allocate@3:

; 37   : 		_THROW_NCEE(bad_alloc, 0);

  00025	83 65 08 00	 and	 DWORD PTR $T509961[ebp], 0
  00029	8d 45 08	 lea	 eax, DWORD PTR $T509961[ebp]
  0002c	50		 push	 eax
  0002d	8d 4d f4	 lea	 ecx, DWORD PTR $T509957[ebp]
  00030	ff 15 00 00 00
	00		 call	 DWORD PTR __imp_??0exception@std@@QAE@ABQBD@Z
  00036	68 00 00 00 00	 push	 OFFSET __TI2?AVbad_alloc@std@@
  0003b	8d 45 f4	 lea	 eax, DWORD PTR $T509957[ebp]
  0003e	50		 push	 eax
  0003f	c7 45 f4 00 00
	00 00		 mov	 DWORD PTR $T509957[ebp], OFFSET ??_7bad_alloc@std@@6B@
  00046	e8 00 00 00 00	 call	 __CxxThrowException@8
$LN10@Allocate@3:
$LN5@Allocate@3:

; 40   : 	}

  0004b	c9		 leave
  0004c	c3		 ret	 0
$LN9@Allocate@3:
??$_Allocate@UBox@BoxSpace@@@std@@YAPAUBox@BoxSpace@@IPAU12@@Z ENDP ; std::_Allocate<BoxSpace::Box>
_TEXT	ENDS
PUBLIC	??$addressof@PBQAUBox@BoxSpace@@@std@@YAPAPBQAUBox@BoxSpace@@AAPBQAU12@@Z ; std::addressof<BoxSpace::Box * const *>
; Function compile flags: /Ogsp
;	COMDAT ??$addressof@PBQAUBox@BoxSpace@@@std@@YAPAPBQAUBox@BoxSpace@@AAPBQAU12@@Z
_TEXT	SEGMENT
__Val$ = 8						; size = 4
??$addressof@PBQAUBox@BoxSpace@@@std@@YAPAPBQAUBox@BoxSpace@@AAPBQAU12@@Z PROC ; std::addressof<BoxSpace::Box * const *>, COMDAT

; 110  : 	{	// return address of _Val

  00000	55		 push	 ebp
  00001	8b ec		 mov	 ebp, esp

; 111  : 	return ((_Ty *) &(char&)_Val);

  00003	8b 45 08	 mov	 eax, DWORD PTR __Val$[ebp]

; 112  : 	}

  00006	5d		 pop	 ebp
  00007	c3		 ret	 0
??$addressof@PBQAUBox@BoxSpace@@@std@@YAPAPBQAUBox@BoxSpace@@AAPBQAU12@@Z ENDP ; std::addressof<BoxSpace::Box * const *>
_TEXT	ENDS
PUBLIC	??$forward@PBQAUBox@BoxSpace@@@std@@YA$$QAPBQAUBox@BoxSpace@@AAPBQAU12@@Z ; std::forward<BoxSpace::Box * const *>
; Function compile flags: /Ogsp
; File c:\program files (x86)\microsoft visual studio 10.0\vc\include\utility
;	COMDAT ??$forward@PBQAUBox@BoxSpace@@@std@@YA$$QAPBQAUBox@BoxSpace@@AAPBQAU12@@Z
_TEXT	SEGMENT
__Arg$ = 8						; size = 4
??$forward@PBQAUBox@BoxSpace@@@std@@YA$$QAPBQAUBox@BoxSpace@@AAPBQAU12@@Z PROC ; std::forward<BoxSpace::Box * const *>, COMDAT

; 78   : 	{	// forward _Arg, given explicitly specified type parameter

  00000	55		 push	 ebp
  00001	8b ec		 mov	 ebp, esp

; 79   : 	return ((_Ty&&)_Arg);

  00003	8b 45 08	 mov	 eax, DWORD PTR __Arg$[ebp]

; 80   : 	}

  00006	5d		 pop	 ebp
  00007	c3		 ret	 0
??$forward@PBQAUBox@BoxSpace@@@std@@YA$$QAPBQAUBox@BoxSpace@@AAPBQAU12@@Z ENDP ; std::forward<BoxSpace::Box * const *>
_TEXT	ENDS
PUBLIC	??$_Allocate@PAUDNode@?$AStarSearcher@VBoxSpace@@PAUBox@1@@@@std@@YAPAPAUDNode@?$AStarSearcher@VBoxSpace@@PAUBox@1@@@IPAPAU12@@Z ; std::_Allocate<AStarSearcher<BoxSpace,BoxSpace::Box *>::DNode *>
; Function compile flags: /Ogsp
; File c:\program files (x86)\microsoft visual studio 10.0\vc\include\xmemory
;	COMDAT ??$_Allocate@PAUDNode@?$AStarSearcher@VBoxSpace@@PAUBox@1@@@@std@@YAPAPAUDNode@?$AStarSearcher@VBoxSpace@@PAUBox@1@@@IPAPAU12@@Z
_TEXT	SEGMENT
$T509970 = -12						; size = 12
$T509974 = 8						; size = 4
__Count$ = 8						; size = 4
___formal$ = 12						; size = 4
??$_Allocate@PAUDNode@?$AStarSearcher@VBoxSpace@@PAUBox@1@@@@std@@YAPAPAUDNode@?$AStarSearcher@VBoxSpace@@PAUBox@1@@@IPAPAU12@@Z PROC ; std::_Allocate<AStarSearcher<BoxSpace,BoxSpace::Box *>::DNode *>, COMDAT

; 30   : 	{	// allocate storage for _Count elements of type _Ty

  00000	55		 push	 ebp
  00001	8b ec		 mov	 ebp, esp

; 31   : 	void *_Ptr = 0;
; 32   : 
; 33   : 	if (_Count <= 0)

  00003	8b 4d 08	 mov	 ecx, DWORD PTR __Count$[ebp]
  00006	83 ec 0c	 sub	 esp, 12			; 0000000cH
  00009	33 c0		 xor	 eax, eax
  0000b	85 c9		 test	 ecx, ecx

; 34   : 		_Count = 0;
; 35   : 	else if (((_SIZT)(-1) / sizeof (_Ty) < _Count)

  0000d	74 3e		 je	 SHORT $LN5@Allocate@4

; 36   : 		|| (_Ptr = ::operator new(_Count * sizeof (_Ty))) == 0)

  0000f	81 f9 ff ff ff
	3f		 cmp	 ecx, 1073741823		; 3fffffffH
  00015	77 10		 ja	 SHORT $LN1@Allocate@4
  00017	8b c1		 mov	 eax, ecx
  00019	c1 e0 02	 shl	 eax, 2
  0001c	50		 push	 eax
  0001d	e8 00 00 00 00	 call	 ??2@YAPAXI@Z		; operator new
  00022	59		 pop	 ecx
  00023	85 c0		 test	 eax, eax

; 38   : 
; 39   : 	return ((_Ty _FARQ *)_Ptr);

  00025	75 26		 jne	 SHORT $LN5@Allocate@4
$LN1@Allocate@4:

; 37   : 		_THROW_NCEE(bad_alloc, 0);

  00027	83 65 08 00	 and	 DWORD PTR $T509974[ebp], 0
  0002b	8d 45 08	 lea	 eax, DWORD PTR $T509974[ebp]
  0002e	50		 push	 eax
  0002f	8d 4d f4	 lea	 ecx, DWORD PTR $T509970[ebp]
  00032	ff 15 00 00 00
	00		 call	 DWORD PTR __imp_??0exception@std@@QAE@ABQBD@Z
  00038	68 00 00 00 00	 push	 OFFSET __TI2?AVbad_alloc@std@@
  0003d	8d 45 f4	 lea	 eax, DWORD PTR $T509970[ebp]
  00040	50		 push	 eax
  00041	c7 45 f4 00 00
	00 00		 mov	 DWORD PTR $T509970[ebp], OFFSET ??_7bad_alloc@std@@6B@
  00048	e8 00 00 00 00	 call	 __CxxThrowException@8
$LN10@Allocate@4:
$LN5@Allocate@4:

; 40   : 	}

  0004d	c9		 leave
  0004e	c3		 ret	 0
$LN9@Allocate@4:
??$_Allocate@PAUDNode@?$AStarSearcher@VBoxSpace@@PAUBox@1@@@@std@@YAPAPAUDNode@?$AStarSearcher@VBoxSpace@@PAUBox@1@@@IPAPAU12@@Z ENDP ; std::_Allocate<AStarSearcher<BoxSpace,BoxSpace::Box *>::DNode *>
_TEXT	ENDS
PUBLIC	??$_Allocate@PBQAUBox@BoxSpace@@@std@@YAPAPBQAUBox@BoxSpace@@IPAPBQAU12@@Z ; std::_Allocate<BoxSpace::Box * const *>
; Function compile flags: /Ogsp
;	COMDAT ??$_Allocate@PBQAUBox@BoxSpace@@@std@@YAPAPBQAUBox@BoxSpace@@IPAPBQAU12@@Z
_TEXT	SEGMENT
$T509979 = -12						; size = 12
$T509983 = 8						; size = 4
__Count$ = 8						; size = 4
___formal$ = 12						; size = 4
??$_Allocate@PBQAUBox@BoxSpace@@@std@@YAPAPBQAUBox@BoxSpace@@IPAPBQAU12@@Z PROC ; std::_Allocate<BoxSpace::Box * const *>, COMDAT

; 30   : 	{	// allocate storage for _Count elements of type _Ty

  00000	55		 push	 ebp
  00001	8b ec		 mov	 ebp, esp

; 31   : 	void *_Ptr = 0;
; 32   : 
; 33   : 	if (_Count <= 0)

  00003	8b 4d 08	 mov	 ecx, DWORD PTR __Count$[ebp]
  00006	83 ec 0c	 sub	 esp, 12			; 0000000cH
  00009	33 c0		 xor	 eax, eax
  0000b	85 c9		 test	 ecx, ecx

; 34   : 		_Count = 0;
; 35   : 	else if (((_SIZT)(-1) / sizeof (_Ty) < _Count)

  0000d	74 3e		 je	 SHORT $LN5@Allocate@5

; 36   : 		|| (_Ptr = ::operator new(_Count * sizeof (_Ty))) == 0)

  0000f	81 f9 ff ff ff
	3f		 cmp	 ecx, 1073741823		; 3fffffffH
  00015	77 10		 ja	 SHORT $LN1@Allocate@5
  00017	8b c1		 mov	 eax, ecx
  00019	c1 e0 02	 shl	 eax, 2
  0001c	50		 push	 eax
  0001d	e8 00 00 00 00	 call	 ??2@YAPAXI@Z		; operator new
  00022	59		 pop	 ecx
  00023	85 c0		 test	 eax, eax

; 38   : 
; 39   : 	return ((_Ty _FARQ *)_Ptr);

  00025	75 26		 jne	 SHORT $LN5@Allocate@5
$LN1@Allocate@5:

; 37   : 		_THROW_NCEE(bad_alloc, 0);

  00027	83 65 08 00	 and	 DWORD PTR $T509983[ebp], 0
  0002b	8d 45 08	 lea	 eax, DWORD PTR $T509983[ebp]
  0002e	50		 push	 eax
  0002f	8d 4d f4	 lea	 ecx, DWORD PTR $T509979[ebp]
  00032	ff 15 00 00 00
	00		 call	 DWORD PTR __imp_??0exception@std@@QAE@ABQBD@Z
  00038	68 00 00 00 00	 push	 OFFSET __TI2?AVbad_alloc@std@@
  0003d	8d 45 f4	 lea	 eax, DWORD PTR $T509979[ebp]
  00040	50		 push	 eax
  00041	c7 45 f4 00 00
	00 00		 mov	 DWORD PTR $T509979[ebp], OFFSET ??_7bad_alloc@std@@6B@
  00048	e8 00 00 00 00	 call	 __CxxThrowException@8
$LN10@Allocate@5:
$LN5@Allocate@5:

; 40   : 	}

  0004d	c9		 leave
  0004e	c3		 ret	 0
$LN9@Allocate@5:
??$_Allocate@PBQAUBox@BoxSpace@@@std@@YAPAPBQAUBox@BoxSpace@@IPAPBQAU12@@Z ENDP ; std::_Allocate<BoxSpace::Box * const *>
_TEXT	ENDS
PUBLIC	?construct@?$allocator@F@std@@QAEXPAF$$QAF@Z	; std::allocator<short>::construct
; Function compile flags: /Ogsp
;	COMDAT ?construct@?$allocator@F@std@@QAEXPAF$$QAF@Z
_TEXT	SEGMENT
__Ptr$ = 8						; size = 4
__Val$ = 12						; size = 4
?construct@?$allocator@F@std@@QAEXPAF$$QAF@Z PROC	; std::allocator<short>::construct, COMDAT
; _this$ = ecx

; 201  : 		{	// construct object at _Ptr with value _Val

  00000	55		 push	 ebp
  00001	8b ec		 mov	 ebp, esp

; 202  : 		::new ((void _FARQ *)_Ptr) _Ty(_STD forward<_Ty>(_Val));

  00003	8b 45 08	 mov	 eax, DWORD PTR __Ptr$[ebp]
  00006	85 c0		 test	 eax, eax
  00008	74 09		 je	 SHORT $LN3@construct
  0000a	8b 4d 0c	 mov	 ecx, DWORD PTR __Val$[ebp]
  0000d	66 8b 09	 mov	 cx, WORD PTR [ecx]
  00010	66 89 08	 mov	 WORD PTR [eax], cx
$LN3@construct:

; 203  : 		}

  00013	5d		 pop	 ebp
  00014	c2 08 00	 ret	 8
?construct@?$allocator@F@std@@QAEXPAF$$QAF@Z ENDP	; std::allocator<short>::construct
_TEXT	ENDS
PUBLIC	?construct@?$allocator@PBQAUBox@BoxSpace@@@std@@QAEXPAPBQAUBox@BoxSpace@@$$QAPBQAU34@@Z ; std::allocator<BoxSpace::Box * const *>::construct
; Function compile flags: /Ogsp
;	COMDAT ?construct@?$allocator@PBQAUBox@BoxSpace@@@std@@QAEXPAPBQAUBox@BoxSpace@@$$QAPBQAU34@@Z
_TEXT	SEGMENT
__Ptr$ = 8						; size = 4
__Val$ = 12						; size = 4
?construct@?$allocator@PBQAUBox@BoxSpace@@@std@@QAEXPAPBQAUBox@BoxSpace@@$$QAPBQAU34@@Z PROC ; std::allocator<BoxSpace::Box * const *>::construct, COMDAT
; _this$ = ecx

; 201  : 		{	// construct object at _Ptr with value _Val

  00000	55		 push	 ebp
  00001	8b ec		 mov	 ebp, esp

; 202  : 		::new ((void _FARQ *)_Ptr) _Ty(_STD forward<_Ty>(_Val));

  00003	8b 45 08	 mov	 eax, DWORD PTR __Ptr$[ebp]
  00006	85 c0		 test	 eax, eax
  00008	74 07		 je	 SHORT $LN3@construct@2
  0000a	8b 4d 0c	 mov	 ecx, DWORD PTR __Val$[ebp]
  0000d	8b 09		 mov	 ecx, DWORD PTR [ecx]
  0000f	89 08		 mov	 DWORD PTR [eax], ecx
$LN3@construct@2:

; 203  : 		}

  00011	5d		 pop	 ebp
  00012	c2 08 00	 ret	 8
?construct@?$allocator@PBQAUBox@BoxSpace@@@std@@QAEXPAPBQAUBox@BoxSpace@@$$QAPBQAU34@@Z ENDP ; std::allocator<BoxSpace::Box * const *>::construct
_TEXT	ENDS
PUBLIC	??F?$_Vector_const_iterator@V?$_Vector_val@PAUDNode@?$AStarSearcher@VBoxSpace@@PAUBox@1@@@V?$allocator@PAUDNode@?$AStarSearcher@VBoxSpace@@PAUBox@1@@@@std@@@std@@@std@@QAEAAV01@XZ ; std::_Vector_const_iterator<std::_Vector_val<AStarSearcher<BoxSpace,BoxSpace::Box *>::DNode *,std::allocator<AStarSearcher<BoxSpace,BoxSpace::Box *>::DNode *> > >::operator--
; Function compile flags: /Ogsp
; File c:\program files (x86)\microsoft visual studio 10.0\vc\include\vector
;	COMDAT ??F?$_Vector_const_iterator@V?$_Vector_val@PAUDNode@?$AStarSearcher@VBoxSpace@@PAUBox@1@@@V?$allocator@PAUDNode@?$AStarSearcher@VBoxSpace@@PAUBox@1@@@@std@@@std@@@std@@QAEAAV01@XZ
_TEXT	SEGMENT
??F?$_Vector_const_iterator@V?$_Vector_val@PAUDNode@?$AStarSearcher@VBoxSpace@@PAUBox@1@@@V?$allocator@PAUDNode@?$AStarSearcher@VBoxSpace@@PAUBox@1@@@@std@@@std@@@std@@QAEAAV01@XZ PROC ; std::_Vector_const_iterator<std::_Vector_val<AStarSearcher<BoxSpace,BoxSpace::Box *>::DNode *,std::allocator<AStarSearcher<BoxSpace,BoxSpace::Box *>::DNode *> > >::operator--, COMDAT
; _this$ = ecx

; 122  : 		{	// predecrement

  00000	8b c1		 mov	 eax, ecx

; 123  :  #if _ITERATOR_DEBUG_LEVEL == 2
; 124  : 		if (this->_Getcont() == 0
; 125  : 			|| this->_Ptr == 0
; 126  : 			|| this->_Ptr <= ((_Myvec *)this->_Getcont())->_Myfirst)
; 127  : 			{	// report error
; 128  : 			_DEBUG_ERROR("vector iterator not decrementable");
; 129  : 			_SCL_SECURE_OUT_OF_RANGE;
; 130  : 			}
; 131  : 
; 132  :  #elif _ITERATOR_DEBUG_LEVEL == 1
; 133  : 		_SCL_SECURE_VALIDATE(this->_Getcont() != 0);
; 134  : 		_SCL_SECURE_VALIDATE_RANGE(
; 135  : 			this->_Ptr != 0
; 136  : 			&& ((_Myvec *)this->_Getcont())->_Myfirst < this->_Ptr);
; 137  :  #endif /* _ITERATOR_DEBUG_LEVEL */
; 138  : 
; 139  : 		--this->_Ptr;

  00002	83 00 fc	 add	 DWORD PTR [eax], -4	; fffffffcH

; 140  : 		return (*this);
; 141  : 		}

  00005	c3		 ret	 0
??F?$_Vector_const_iterator@V?$_Vector_val@PAUDNode@?$AStarSearcher@VBoxSpace@@PAUBox@1@@@V?$allocator@PAUDNode@?$AStarSearcher@VBoxSpace@@PAUBox@1@@@@std@@@std@@@std@@QAEAAV01@XZ ENDP ; std::_Vector_const_iterator<std::_Vector_val<AStarSearcher<BoxSpace,BoxSpace::Box *>::DNode *,std::allocator<AStarSearcher<BoxSpace,BoxSpace::Box *>::DNode *> > >::operator--
_TEXT	ENDS
PUBLIC	??$_Dist_type@V?$_Vector_iterator@V?$_Vector_val@ULink@BoxSpace@@V?$allocator@ULink@BoxSpace@@@std@@@std@@@std@@@std@@YAPAHV?$_Vector_iterator@V?$_Vector_val@ULink@BoxSpace@@V?$allocator@ULink@BoxSpace@@@std@@@std@@@0@@Z ; std::_Dist_type<std::_Vector_iterator<std::_Vector_val<BoxSpace::Link,std::allocator<BoxSpace::Link> > > >
; Function compile flags: /Ogsp
; File c:\program files (x86)\microsoft visual studio 10.0\vc\include\xutility
;	COMDAT ??$_Dist_type@V?$_Vector_iterator@V?$_Vector_val@ULink@BoxSpace@@V?$allocator@ULink@BoxSpace@@@std@@@std@@@std@@@std@@YAPAHV?$_Vector_iterator@V?$_Vector_val@ULink@BoxSpace@@V?$allocator@ULink@BoxSpace@@@std@@@std@@@0@@Z
_TEXT	SEGMENT
___formal$ = 8						; size = 4
??$_Dist_type@V?$_Vector_iterator@V?$_Vector_val@ULink@BoxSpace@@V?$allocator@ULink@BoxSpace@@@std@@@std@@@std@@@std@@YAPAHV?$_Vector_iterator@V?$_Vector_val@ULink@BoxSpace@@V?$allocator@ULink@BoxSpace@@@std@@@std@@@0@@Z PROC ; std::_Dist_type<std::_Vector_iterator<std::_Vector_val<BoxSpace::Link,std::allocator<BoxSpace::Link> > > >, COMDAT

; 850  : 	return (0);

  00000	33 c0		 xor	 eax, eax

; 851  : 	}

  00002	c3		 ret	 0
??$_Dist_type@V?$_Vector_iterator@V?$_Vector_val@ULink@BoxSpace@@V?$allocator@ULink@BoxSpace@@@std@@@std@@@std@@@std@@YAPAHV?$_Vector_iterator@V?$_Vector_val@ULink@BoxSpace@@V?$allocator@ULink@BoxSpace@@@std@@@std@@@0@@Z ENDP ; std::_Dist_type<std::_Vector_iterator<std::_Vector_val<BoxSpace::Link,std::allocator<BoxSpace::Link> > > >
_TEXT	ENDS
PUBLIC	??$_Val_type@V?$_Vector_iterator@V?$_Vector_val@ULink@BoxSpace@@V?$allocator@ULink@BoxSpace@@@std@@@std@@@std@@@std@@YAPAULink@BoxSpace@@V?$_Vector_iterator@V?$_Vector_val@ULink@BoxSpace@@V?$allocator@ULink@BoxSpace@@@std@@@std@@@0@@Z ; std::_Val_type<std::_Vector_iterator<std::_Vector_val<BoxSpace::Link,std::allocator<BoxSpace::Link> > > >
; Function compile flags: /Ogsp
;	COMDAT ??$_Val_type@V?$_Vector_iterator@V?$_Vector_val@ULink@BoxSpace@@V?$allocator@ULink@BoxSpace@@@std@@@std@@@std@@@std@@YAPAULink@BoxSpace@@V?$_Vector_iterator@V?$_Vector_val@ULink@BoxSpace@@V?$allocator@ULink@BoxSpace@@@std@@@std@@@0@@Z
_TEXT	SEGMENT
___formal$ = 8						; size = 4
??$_Val_type@V?$_Vector_iterator@V?$_Vector_val@ULink@BoxSpace@@V?$allocator@ULink@BoxSpace@@@std@@@std@@@std@@@std@@YAPAULink@BoxSpace@@V?$_Vector_iterator@V?$_Vector_val@ULink@BoxSpace@@V?$allocator@ULink@BoxSpace@@@std@@@std@@@0@@Z PROC ; std::_Val_type<std::_Vector_iterator<std::_Vector_val<BoxSpace::Link,std::allocator<BoxSpace::Link> > > >, COMDAT

; 790  : 	return (0);

  00000	33 c0		 xor	 eax, eax

; 791  : 	}

  00002	c3		 ret	 0
??$_Val_type@V?$_Vector_iterator@V?$_Vector_val@ULink@BoxSpace@@V?$allocator@ULink@BoxSpace@@@std@@@std@@@std@@@std@@YAPAULink@BoxSpace@@V?$_Vector_iterator@V?$_Vector_val@ULink@BoxSpace@@V?$allocator@ULink@BoxSpace@@@std@@@std@@@0@@Z ENDP ; std::_Val_type<std::_Vector_iterator<std::_Vector_val<BoxSpace::Link,std::allocator<BoxSpace::Link> > > >
_TEXT	ENDS
PUBLIC	??$forward@AAF@std@@YAAAFAAF@Z			; std::forward<short &>
; Function compile flags: /Ogsp
; File c:\program files (x86)\microsoft visual studio 10.0\vc\include\utility
;	COMDAT ??$forward@AAF@std@@YAAAFAAF@Z
_TEXT	SEGMENT
__Arg$ = 8						; size = 4
??$forward@AAF@std@@YAAAFAAF@Z PROC			; std::forward<short &>, COMDAT

; 78   : 	{	// forward _Arg, given explicitly specified type parameter

  00000	55		 push	 ebp
  00001	8b ec		 mov	 ebp, esp

; 79   : 	return ((_Ty&&)_Arg);

  00003	8b 45 08	 mov	 eax, DWORD PTR __Arg$[ebp]

; 80   : 	}

  00006	5d		 pop	 ebp
  00007	c3		 ret	 0
??$forward@AAF@std@@YAAAFAAF@Z ENDP			; std::forward<short &>
_TEXT	ENDS
PUBLIC	??$construct@AAF@?$allocator@F@std@@QAEXPAFAAF@Z ; std::allocator<short>::construct<short &>
; Function compile flags: /Ogsp
; File c:\program files (x86)\microsoft visual studio 10.0\vc\include\xmemory
;	COMDAT ??$construct@AAF@?$allocator@F@std@@QAEXPAFAAF@Z
_TEXT	SEGMENT
__Ptr$ = 8						; size = 4
__Val$ = 12						; size = 4
??$construct@AAF@?$allocator@F@std@@QAEXPAFAAF@Z PROC	; std::allocator<short>::construct<short &>, COMDAT
; _this$ = ecx

; 206  : 		void construct(pointer _Ptr, _Other&& _Val)

  00000	55		 push	 ebp
  00001	8b ec		 mov	 ebp, esp

; 207  : 		{	// construct object at _Ptr with value _Val
; 208  : 		::new ((void _FARQ *)_Ptr) _Ty(_STD forward<_Other>(_Val));

  00003	8b 45 08	 mov	 eax, DWORD PTR __Ptr$[ebp]
  00006	85 c0		 test	 eax, eax
  00008	74 09		 je	 SHORT $LN3@construct@3
  0000a	8b 4d 0c	 mov	 ecx, DWORD PTR __Val$[ebp]
  0000d	66 8b 09	 mov	 cx, WORD PTR [ecx]
  00010	66 89 08	 mov	 WORD PTR [eax], cx
$LN3@construct@3:

; 209  : 		}

  00013	5d		 pop	 ebp
  00014	c2 08 00	 ret	 8
??$construct@AAF@?$allocator@F@std@@QAEXPAFAAF@Z ENDP	; std::allocator<short>::construct<short &>
_TEXT	ENDS
PUBLIC	??$forward@ABF@std@@YAABFABF@Z			; std::forward<short const &>
; Function compile flags: /Ogsp
; File c:\program files (x86)\microsoft visual studio 10.0\vc\include\utility
;	COMDAT ??$forward@ABF@std@@YAABFABF@Z
_TEXT	SEGMENT
__Arg$ = 8						; size = 4
??$forward@ABF@std@@YAABFABF@Z PROC			; std::forward<short const &>, COMDAT

; 78   : 	{	// forward _Arg, given explicitly specified type parameter

  00000	55		 push	 ebp
  00001	8b ec		 mov	 ebp, esp

; 79   : 	return ((_Ty&&)_Arg);

  00003	8b 45 08	 mov	 eax, DWORD PTR __Arg$[ebp]

; 80   : 	}

  00006	5d		 pop	 ebp
  00007	c3		 ret	 0
??$forward@ABF@std@@YAABFABF@Z ENDP			; std::forward<short const &>
_TEXT	ENDS
PUBLIC	??$forward@AAULink@BoxSpace@@@std@@YAAAULink@BoxSpace@@AAU12@@Z ; std::forward<BoxSpace::Link &>
; Function compile flags: /Ogsp
;	COMDAT ??$forward@AAULink@BoxSpace@@@std@@YAAAULink@BoxSpace@@AAU12@@Z
_TEXT	SEGMENT
__Arg$ = 8						; size = 4
??$forward@AAULink@BoxSpace@@@std@@YAAAULink@BoxSpace@@AAU12@@Z PROC ; std::forward<BoxSpace::Link &>, COMDAT

; 78   : 	{	// forward _Arg, given explicitly specified type parameter

  00000	55		 push	 ebp
  00001	8b ec		 mov	 ebp, esp

; 79   : 	return ((_Ty&&)_Arg);

  00003	8b 45 08	 mov	 eax, DWORD PTR __Arg$[ebp]

; 80   : 	}

  00006	5d		 pop	 ebp
  00007	c3		 ret	 0
??$forward@AAULink@BoxSpace@@@std@@YAAAULink@BoxSpace@@AAU12@@Z ENDP ; std::forward<BoxSpace::Link &>
_TEXT	ENDS
PUBLIC	??$construct@AAULink@BoxSpace@@@?$allocator@ULink@BoxSpace@@@std@@QAEXPAULink@BoxSpace@@AAU23@@Z ; std::allocator<BoxSpace::Link>::construct<BoxSpace::Link &>
; Function compile flags: /Ogsp
; File c:\program files (x86)\microsoft visual studio 10.0\vc\include\xmemory
;	COMDAT ??$construct@AAULink@BoxSpace@@@?$allocator@ULink@BoxSpace@@@std@@QAEXPAULink@BoxSpace@@AAU23@@Z
_TEXT	SEGMENT
__Ptr$ = 8						; size = 4
__Val$ = 12						; size = 4
??$construct@AAULink@BoxSpace@@@?$allocator@ULink@BoxSpace@@@std@@QAEXPAULink@BoxSpace@@AAU23@@Z PROC ; std::allocator<BoxSpace::Link>::construct<BoxSpace::Link &>, COMDAT
; _this$ = ecx

; 206  : 		void construct(pointer _Ptr, _Other&& _Val)

  00000	55		 push	 ebp
  00001	8b ec		 mov	 ebp, esp
  00003	57		 push	 edi

; 207  : 		{	// construct object at _Ptr with value _Val
; 208  : 		::new ((void _FARQ *)_Ptr) _Ty(_STD forward<_Other>(_Val));

  00004	8b 7d 08	 mov	 edi, DWORD PTR __Ptr$[ebp]
  00007	85 ff		 test	 edi, edi
  00009	74 0a		 je	 SHORT $LN3@construct@4
  0000b	56		 push	 esi
  0000c	8b 75 0c	 mov	 esi, DWORD PTR __Val$[ebp]
  0000f	6a 08		 push	 8
  00011	59		 pop	 ecx
  00012	f3 a5		 rep movsd
  00014	5e		 pop	 esi
$LN3@construct@4:
  00015	5f		 pop	 edi

; 209  : 		}

  00016	5d		 pop	 ebp
  00017	c2 08 00	 ret	 8
??$construct@AAULink@BoxSpace@@@?$allocator@ULink@BoxSpace@@@std@@QAEXPAULink@BoxSpace@@AAU23@@Z ENDP ; std::allocator<BoxSpace::Link>::construct<BoxSpace::Link &>
_TEXT	ENDS
PUBLIC	??$forward@ABULink@BoxSpace@@@std@@YAABULink@BoxSpace@@ABU12@@Z ; std::forward<BoxSpace::Link const &>
; Function compile flags: /Ogsp
; File c:\program files (x86)\microsoft visual studio 10.0\vc\include\utility
;	COMDAT ??$forward@ABULink@BoxSpace@@@std@@YAABULink@BoxSpace@@ABU12@@Z
_TEXT	SEGMENT
__Arg$ = 8						; size = 4
??$forward@ABULink@BoxSpace@@@std@@YAABULink@BoxSpace@@ABU12@@Z PROC ; std::forward<BoxSpace::Link const &>, COMDAT

; 78   : 	{	// forward _Arg, given explicitly specified type parameter

  00000	55		 push	 ebp
  00001	8b ec		 mov	 ebp, esp

; 79   : 	return ((_Ty&&)_Arg);

  00003	8b 45 08	 mov	 eax, DWORD PTR __Arg$[ebp]

; 80   : 	}

  00006	5d		 pop	 ebp
  00007	c3		 ret	 0
??$forward@ABULink@BoxSpace@@@std@@YAABULink@BoxSpace@@ABU12@@Z ENDP ; std::forward<BoxSpace::Link const &>
_TEXT	ENDS
PUBLIC	??$forward@AAUBox@BoxSpace@@@std@@YAAAUBox@BoxSpace@@AAU12@@Z ; std::forward<BoxSpace::Box &>
; Function compile flags: /Ogsp
;	COMDAT ??$forward@AAUBox@BoxSpace@@@std@@YAAAUBox@BoxSpace@@AAU12@@Z
_TEXT	SEGMENT
__Arg$ = 8						; size = 4
??$forward@AAUBox@BoxSpace@@@std@@YAAAUBox@BoxSpace@@AAU12@@Z PROC ; std::forward<BoxSpace::Box &>, COMDAT

; 78   : 	{	// forward _Arg, given explicitly specified type parameter

  00000	55		 push	 ebp
  00001	8b ec		 mov	 ebp, esp

; 79   : 	return ((_Ty&&)_Arg);

  00003	8b 45 08	 mov	 eax, DWORD PTR __Arg$[ebp]

; 80   : 	}

  00006	5d		 pop	 ebp
  00007	c3		 ret	 0
??$forward@AAUBox@BoxSpace@@@std@@YAAAUBox@BoxSpace@@AAU12@@Z ENDP ; std::forward<BoxSpace::Box &>
_TEXT	ENDS
PUBLIC	??$forward@ABUBox@BoxSpace@@@std@@YAABUBox@BoxSpace@@ABU12@@Z ; std::forward<BoxSpace::Box const &>
; Function compile flags: /Ogsp
;	COMDAT ??$forward@ABUBox@BoxSpace@@@std@@YAABUBox@BoxSpace@@ABU12@@Z
_TEXT	SEGMENT
__Arg$ = 8						; size = 4
??$forward@ABUBox@BoxSpace@@@std@@YAABUBox@BoxSpace@@ABU12@@Z PROC ; std::forward<BoxSpace::Box const &>, COMDAT

; 78   : 	{	// forward _Arg, given explicitly specified type parameter

  00000	55		 push	 ebp
  00001	8b ec		 mov	 ebp, esp

; 79   : 	return ((_Ty&&)_Arg);

  00003	8b 45 08	 mov	 eax, DWORD PTR __Arg$[ebp]

; 80   : 	}

  00006	5d		 pop	 ebp
  00007	c3		 ret	 0
??$forward@ABUBox@BoxSpace@@@std@@YAABUBox@BoxSpace@@ABU12@@Z ENDP ; std::forward<BoxSpace::Box const &>
_TEXT	ENDS
PUBLIC	??$_Move@PAFPAF@std@@YAPAFPAF00U_Scalar_ptr_iterator_tag@0@@Z ; std::_Move<short *,short *>
; Function compile flags: /Ogsp
; File c:\program files (x86)\microsoft visual studio 10.0\vc\include\xutility
;	COMDAT ??$_Move@PAFPAF@std@@YAPAFPAF00U_Scalar_ptr_iterator_tag@0@@Z
_TEXT	SEGMENT
__First$ = 8						; size = 4
__Last$ = 12						; size = 4
__Dest$ = 16						; size = 4
___formal$ = 20						; size = 1
??$_Move@PAFPAF@std@@YAPAFPAF00U_Scalar_ptr_iterator_tag@0@@Z PROC ; std::_Move<short *,short *>, COMDAT

; 2522 : 	{	// move [_First, _Last) to [_Dest, ...), pointers to scalars

  00000	55		 push	 ebp
  00001	8b ec		 mov	 ebp, esp

; 2523 : 	ptrdiff_t _Count = _Last - _First;

  00003	8b 45 0c	 mov	 eax, DWORD PTR __Last$[ebp]
  00006	2b 45 08	 sub	 eax, DWORD PTR __First$[ebp]
  00009	56		 push	 esi
  0000a	57		 push	 edi

; 2524 : 	_CSTD memmove(&*_Dest, &*_First,
; 2525 : 		_Count * sizeof (*_First));

  0000b	8b 7d 10	 mov	 edi, DWORD PTR __Dest$[ebp]
  0000e	d1 f8		 sar	 eax, 1
  00010	8d 34 00	 lea	 esi, DWORD PTR [eax+eax]
  00013	56		 push	 esi
  00014	ff 75 08	 push	 DWORD PTR __First$[ebp]
  00017	57		 push	 edi
  00018	ff 15 00 00 00
	00		 call	 DWORD PTR __imp__memmove
  0001e	83 c4 0c	 add	 esp, 12			; 0000000cH

; 2526 : 	return (_Dest + _Count);

  00021	8d 04 3e	 lea	 eax, DWORD PTR [esi+edi]
  00024	5f		 pop	 edi
  00025	5e		 pop	 esi

; 2527 : 	}

  00026	5d		 pop	 ebp
  00027	c3		 ret	 0
??$_Move@PAFPAF@std@@YAPAFPAF00U_Scalar_ptr_iterator_tag@0@@Z ENDP ; std::_Move<short *,short *>
_TEXT	ENDS
PUBLIC	??$_Dist_type@V?$_Vector_iterator@V?$_Vector_val@PAUDNode@?$AStarSearcher@VBoxSpace@@PAUBox@1@@@V?$allocator@PAUDNode@?$AStarSearcher@VBoxSpace@@PAUBox@1@@@@std@@@std@@@std@@@std@@YAPAHV?$_Vector_iterator@V?$_Vector_val@PAUDNode@?$AStarSearcher@VBoxSpace@@PAUBox@1@@@V?$allocator@PAUDNode@?$AStarSearcher@VBoxSpace@@PAUBox@1@@@@std@@@std@@@0@@Z ; std::_Dist_type<std::_Vector_iterator<std::_Vector_val<AStarSearcher<BoxSpace,BoxSpace::Box *>::DNode *,std::allocator<AStarSearcher<BoxSpace,BoxSpace::Box *>::DNode *> > > >
; Function compile flags: /Ogsp
;	COMDAT ??$_Dist_type@V?$_Vector_iterator@V?$_Vector_val@PAUDNode@?$AStarSearcher@VBoxSpace@@PAUBox@1@@@V?$allocator@PAUDNode@?$AStarSearcher@VBoxSpace@@PAUBox@1@@@@std@@@std@@@std@@@std@@YAPAHV?$_Vector_iterator@V?$_Vector_val@PAUDNode@?$AStarSearcher@VBoxSpace@@PAUBox@1@@@V?$allocator@PAUDNode@?$AStarSearcher@VBoxSpace@@PAUBox@1@@@@std@@@std@@@0@@Z
_TEXT	SEGMENT
___formal$ = 8						; size = 4
??$_Dist_type@V?$_Vector_iterator@V?$_Vector_val@PAUDNode@?$AStarSearcher@VBoxSpace@@PAUBox@1@@@V?$allocator@PAUDNode@?$AStarSearcher@VBoxSpace@@PAUBox@1@@@@std@@@std@@@std@@@std@@YAPAHV?$_Vector_iterator@V?$_Vector_val@PAUDNode@?$AStarSearcher@VBoxSpace@@PAUBox@1@@@V?$allocator@PAUDNode@?$AStarSearcher@VBoxSpace@@PAUBox@1@@@@std@@@std@@@0@@Z PROC ; std::_Dist_type<std::_Vector_iterator<std::_Vector_val<AStarSearcher<BoxSpace,BoxSpace::Box *>::DNode *,std::allocator<AStarSearcher<BoxSpace,BoxSpace::Box *>::DNode *> > > >, COMDAT

; 850  : 	return (0);

  00000	33 c0		 xor	 eax, eax

; 851  : 	}

  00002	c3		 ret	 0
??$_Dist_type@V?$_Vector_iterator@V?$_Vector_val@PAUDNode@?$AStarSearcher@VBoxSpace@@PAUBox@1@@@V?$allocator@PAUDNode@?$AStarSearcher@VBoxSpace@@PAUBox@1@@@@std@@@std@@@std@@@std@@YAPAHV?$_Vector_iterator@V?$_Vector_val@PAUDNode@?$AStarSearcher@VBoxSpace@@PAUBox@1@@@V?$allocator@PAUDNode@?$AStarSearcher@VBoxSpace@@PAUBox@1@@@@std@@@std@@@0@@Z ENDP ; std::_Dist_type<std::_Vector_iterator<std::_Vector_val<AStarSearcher<BoxSpace,BoxSpace::Box *>::DNode *,std::allocator<AStarSearcher<BoxSpace,BoxSpace::Box *>::DNode *> > > >
_TEXT	ENDS
PUBLIC	??$_Val_type@V?$_Vector_iterator@V?$_Vector_val@PAUDNode@?$AStarSearcher@VBoxSpace@@PAUBox@1@@@V?$allocator@PAUDNode@?$AStarSearcher@VBoxSpace@@PAUBox@1@@@@std@@@std@@@std@@@std@@YAPAPAUDNode@?$AStarSearcher@VBoxSpace@@PAUBox@1@@@V?$_Vector_iterator@V?$_Vector_val@PAUDNode@?$AStarSearcher@VBoxSpace@@PAUBox@1@@@V?$allocator@PAUDNode@?$AStarSearcher@VBoxSpace@@PAUBox@1@@@@std@@@std@@@0@@Z ; std::_Val_type<std::_Vector_iterator<std::_Vector_val<AStarSearcher<BoxSpace,BoxSpace::Box *>::DNode *,std::allocator<AStarSearcher<BoxSpace,BoxSpace::Box *>::DNode *> > > >
; Function compile flags: /Ogsp
;	COMDAT ??$_Val_type@V?$_Vector_iterator@V?$_Vector_val@PAUDNode@?$AStarSearcher@VBoxSpace@@PAUBox@1@@@V?$allocator@PAUDNode@?$AStarSearcher@VBoxSpace@@PAUBox@1@@@@std@@@std@@@std@@@std@@YAPAPAUDNode@?$AStarSearcher@VBoxSpace@@PAUBox@1@@@V?$_Vector_iterator@V?$_Vector_val@PAUDNode@?$AStarSearcher@VBoxSpace@@PAUBox@1@@@V?$allocator@PAUDNode@?$AStarSearcher@VBoxSpace@@PAUBox@1@@@@std@@@std@@@0@@Z
_TEXT	SEGMENT
___formal$ = 8						; size = 4
??$_Val_type@V?$_Vector_iterator@V?$_Vector_val@PAUDNode@?$AStarSearcher@VBoxSpace@@PAUBox@1@@@V?$allocator@PAUDNode@?$AStarSearcher@VBoxSpace@@PAUBox@1@@@@std@@@std@@@std@@@std@@YAPAPAUDNode@?$AStarSearcher@VBoxSpace@@PAUBox@1@@@V?$_Vector_iterator@V?$_Vector_val@PAUDNode@?$AStarSearcher@VBoxSpace@@PAUBox@1@@@V?$allocator@PAUDNode@?$AStarSearcher@VBoxSpace@@PAUBox@1@@@@std@@@std@@@0@@Z PROC ; std::_Val_type<std::_Vector_iterator<std::_Vector_val<AStarSearcher<BoxSpace,BoxSpace::Box *>::DNode *,std::allocator<AStarSearcher<BoxSpace,BoxSpace::Box *>::DNode *> > > >, COMDAT

; 790  : 	return (0);

  00000	33 c0		 xor	 eax, eax

; 791  : 	}

  00002	c3		 ret	 0
??$_Val_type@V?$_Vector_iterator@V?$_Vector_val@PAUDNode@?$AStarSearcher@VBoxSpace@@PAUBox@1@@@V?$allocator@PAUDNode@?$AStarSearcher@VBoxSpace@@PAUBox@1@@@@std@@@std@@@std@@@std@@YAPAPAUDNode@?$AStarSearcher@VBoxSpace@@PAUBox@1@@@V?$_Vector_iterator@V?$_Vector_val@PAUDNode@?$AStarSearcher@VBoxSpace@@PAUBox@1@@@V?$allocator@PAUDNode@?$AStarSearcher@VBoxSpace@@PAUBox@1@@@@std@@@std@@@0@@Z ENDP ; std::_Val_type<std::_Vector_iterator<std::_Vector_val<AStarSearcher<BoxSpace,BoxSpace::Box *>::DNode *,std::allocator<AStarSearcher<BoxSpace,BoxSpace::Box *>::DNode *> > > >
_TEXT	ENDS
PUBLIC	??$forward@AAPAUDNode@?$AStarSearcher@VBoxSpace@@PAUBox@1@@@@std@@YAAAPAUDNode@?$AStarSearcher@VBoxSpace@@PAUBox@1@@@AAPAU12@@Z ; std::forward<AStarSearcher<BoxSpace,BoxSpace::Box *>::DNode * &>
; Function compile flags: /Ogsp
; File c:\program files (x86)\microsoft visual studio 10.0\vc\include\utility
;	COMDAT ??$forward@AAPAUDNode@?$AStarSearcher@VBoxSpace@@PAUBox@1@@@@std@@YAAAPAUDNode@?$AStarSearcher@VBoxSpace@@PAUBox@1@@@AAPAU12@@Z
_TEXT	SEGMENT
__Arg$ = 8						; size = 4
??$forward@AAPAUDNode@?$AStarSearcher@VBoxSpace@@PAUBox@1@@@@std@@YAAAPAUDNode@?$AStarSearcher@VBoxSpace@@PAUBox@1@@@AAPAU12@@Z PROC ; std::forward<AStarSearcher<BoxSpace,BoxSpace::Box *>::DNode * &>, COMDAT

; 78   : 	{	// forward _Arg, given explicitly specified type parameter

  00000	55		 push	 ebp
  00001	8b ec		 mov	 ebp, esp

; 79   : 	return ((_Ty&&)_Arg);

  00003	8b 45 08	 mov	 eax, DWORD PTR __Arg$[ebp]

; 80   : 	}

  00006	5d		 pop	 ebp
  00007	c3		 ret	 0
??$forward@AAPAUDNode@?$AStarSearcher@VBoxSpace@@PAUBox@1@@@@std@@YAAAPAUDNode@?$AStarSearcher@VBoxSpace@@PAUBox@1@@@AAPAU12@@Z ENDP ; std::forward<AStarSearcher<BoxSpace,BoxSpace::Box *>::DNode * &>
_TEXT	ENDS
PUBLIC	??$construct@AAPAUDNode@?$AStarSearcher@VBoxSpace@@PAUBox@1@@@@?$allocator@PAUDNode@?$AStarSearcher@VBoxSpace@@PAUBox@1@@@@std@@QAEXPAPAUDNode@?$AStarSearcher@VBoxSpace@@PAUBox@1@@@AAPAU23@@Z ; std::allocator<AStarSearcher<BoxSpace,BoxSpace::Box *>::DNode *>::construct<AStarSearcher<BoxSpace,BoxSpace::Box *>::DNode * &>
; Function compile flags: /Ogsp
; File c:\program files (x86)\microsoft visual studio 10.0\vc\include\xmemory
;	COMDAT ??$construct@AAPAUDNode@?$AStarSearcher@VBoxSpace@@PAUBox@1@@@@?$allocator@PAUDNode@?$AStarSearcher@VBoxSpace@@PAUBox@1@@@@std@@QAEXPAPAUDNode@?$AStarSearcher@VBoxSpace@@PAUBox@1@@@AAPAU23@@Z
_TEXT	SEGMENT
__Ptr$ = 8						; size = 4
__Val$ = 12						; size = 4
??$construct@AAPAUDNode@?$AStarSearcher@VBoxSpace@@PAUBox@1@@@@?$allocator@PAUDNode@?$AStarSearcher@VBoxSpace@@PAUBox@1@@@@std@@QAEXPAPAUDNode@?$AStarSearcher@VBoxSpace@@PAUBox@1@@@AAPAU23@@Z PROC ; std::allocator<AStarSearcher<BoxSpace,BoxSpace::Box *>::DNode *>::construct<AStarSearcher<BoxSpace,BoxSpace::Box *>::DNode * &>, COMDAT
; _this$ = ecx

; 206  : 		void construct(pointer _Ptr, _Other&& _Val)

  00000	55		 push	 ebp
  00001	8b ec		 mov	 ebp, esp

; 207  : 		{	// construct object at _Ptr with value _Val
; 208  : 		::new ((void _FARQ *)_Ptr) _Ty(_STD forward<_Other>(_Val));

  00003	8b 45 08	 mov	 eax, DWORD PTR __Ptr$[ebp]
  00006	85 c0		 test	 eax, eax
  00008	74 07		 je	 SHORT $LN3@construct@5
  0000a	8b 4d 0c	 mov	 ecx, DWORD PTR __Val$[ebp]
  0000d	8b 09		 mov	 ecx, DWORD PTR [ecx]
  0000f	89 08		 mov	 DWORD PTR [eax], ecx
$LN3@construct@5:

; 209  : 		}

  00011	5d		 pop	 ebp
  00012	c2 08 00	 ret	 8
??$construct@AAPAUDNode@?$AStarSearcher@VBoxSpace@@PAUBox@1@@@@?$allocator@PAUDNode@?$AStarSearcher@VBoxSpace@@PAUBox@1@@@@std@@QAEXPAPAUDNode@?$AStarSearcher@VBoxSpace@@PAUBox@1@@@AAPAU23@@Z ENDP ; std::allocator<AStarSearcher<BoxSpace,BoxSpace::Box *>::DNode *>::construct<AStarSearcher<BoxSpace,BoxSpace::Box *>::DNode * &>
_TEXT	ENDS
PUBLIC	??$forward@ABQAUDNode@?$AStarSearcher@VBoxSpace@@PAUBox@1@@@@std@@YAABQAUDNode@?$AStarSearcher@VBoxSpace@@PAUBox@1@@@ABQAU12@@Z ; std::forward<AStarSearcher<BoxSpace,BoxSpace::Box *>::DNode * const &>
; Function compile flags: /Ogsp
; File c:\program files (x86)\microsoft visual studio 10.0\vc\include\utility
;	COMDAT ??$forward@ABQAUDNode@?$AStarSearcher@VBoxSpace@@PAUBox@1@@@@std@@YAABQAUDNode@?$AStarSearcher@VBoxSpace@@PAUBox@1@@@ABQAU12@@Z
_TEXT	SEGMENT
__Arg$ = 8						; size = 4
??$forward@ABQAUDNode@?$AStarSearcher@VBoxSpace@@PAUBox@1@@@@std@@YAABQAUDNode@?$AStarSearcher@VBoxSpace@@PAUBox@1@@@ABQAU12@@Z PROC ; std::forward<AStarSearcher<BoxSpace,BoxSpace::Box *>::DNode * const &>, COMDAT

; 78   : 	{	// forward _Arg, given explicitly specified type parameter

  00000	55		 push	 ebp
  00001	8b ec		 mov	 ebp, esp

; 79   : 	return ((_Ty&&)_Arg);

  00003	8b 45 08	 mov	 eax, DWORD PTR __Arg$[ebp]

; 80   : 	}

  00006	5d		 pop	 ebp
  00007	c3		 ret	 0
??$forward@ABQAUDNode@?$AStarSearcher@VBoxSpace@@PAUBox@1@@@@std@@YAABQAUDNode@?$AStarSearcher@VBoxSpace@@PAUBox@1@@@ABQAU12@@Z ENDP ; std::forward<AStarSearcher<BoxSpace,BoxSpace::Box *>::DNode * const &>
_TEXT	ENDS
PUBLIC	??$_Construct@FABF@std@@YAXPAFABF@Z		; std::_Construct<short,short const &>
; Function compile flags: /Ogsp
; File c:\program files (x86)\microsoft visual studio 10.0\vc\include\xmemory
;	COMDAT ??$_Construct@FABF@std@@YAXPAFABF@Z
_TEXT	SEGMENT
__Ptr$ = 8						; size = 4
__Val$ = 12						; size = 4
??$_Construct@FABF@std@@YAXPAFABF@Z PROC		; std::_Construct<short,short const &>, COMDAT

; 46   : 	{	// construct object at _Ptr with value _Val

  00000	55		 push	 ebp
  00001	8b ec		 mov	 ebp, esp

; 47   : 	void _FARQ *_Vptr = _Ptr;
; 48   : 	::new (_Vptr) _Ty1(_STD forward<_Ty2>(_Val));

  00003	8b 45 08	 mov	 eax, DWORD PTR __Ptr$[ebp]
  00006	85 c0		 test	 eax, eax
  00008	74 09		 je	 SHORT $LN3@Construct
  0000a	8b 4d 0c	 mov	 ecx, DWORD PTR __Val$[ebp]
  0000d	66 8b 09	 mov	 cx, WORD PTR [ecx]
  00010	66 89 08	 mov	 WORD PTR [eax], cx
$LN3@Construct:

; 49   : 	}

  00013	5d		 pop	 ebp
  00014	c3		 ret	 0
??$_Construct@FABF@std@@YAXPAFABF@Z ENDP		; std::_Construct<short,short const &>
_TEXT	ENDS
PUBLIC	??$_Construct@ULink@BoxSpace@@ABU12@@std@@YAXPAULink@BoxSpace@@ABU12@@Z ; std::_Construct<BoxSpace::Link,BoxSpace::Link const &>
; Function compile flags: /Ogsp
;	COMDAT ??$_Construct@ULink@BoxSpace@@ABU12@@std@@YAXPAULink@BoxSpace@@ABU12@@Z
_TEXT	SEGMENT
__Ptr$ = 8						; size = 4
__Val$ = 12						; size = 4
??$_Construct@ULink@BoxSpace@@ABU12@@std@@YAXPAULink@BoxSpace@@ABU12@@Z PROC ; std::_Construct<BoxSpace::Link,BoxSpace::Link const &>, COMDAT

; 46   : 	{	// construct object at _Ptr with value _Val

  00000	55		 push	 ebp
  00001	8b ec		 mov	 ebp, esp
  00003	57		 push	 edi

; 47   : 	void _FARQ *_Vptr = _Ptr;
; 48   : 	::new (_Vptr) _Ty1(_STD forward<_Ty2>(_Val));

  00004	8b 7d 08	 mov	 edi, DWORD PTR __Ptr$[ebp]
  00007	85 ff		 test	 edi, edi
  00009	74 0a		 je	 SHORT $LN3@Construct@2
  0000b	56		 push	 esi
  0000c	8b 75 0c	 mov	 esi, DWORD PTR __Val$[ebp]
  0000f	6a 08		 push	 8
  00011	59		 pop	 ecx
  00012	f3 a5		 rep movsd
  00014	5e		 pop	 esi
$LN3@Construct@2:
  00015	5f		 pop	 edi

; 49   : 	}

  00016	5d		 pop	 ebp
  00017	c3		 ret	 0
??$_Construct@ULink@BoxSpace@@ABU12@@std@@YAXPAULink@BoxSpace@@ABU12@@Z ENDP ; std::_Construct<BoxSpace::Link,BoxSpace::Link const &>
_TEXT	ENDS
PUBLIC	??$_Construct@PAUDNode@?$AStarSearcher@VBoxSpace@@PAUBox@1@@@ABQAU12@@std@@YAXPAPAUDNode@?$AStarSearcher@VBoxSpace@@PAUBox@1@@@ABQAU12@@Z ; std::_Construct<AStarSearcher<BoxSpace,BoxSpace::Box *>::DNode *,AStarSearcher<BoxSpace,BoxSpace::Box *>::DNode * const &>
; Function compile flags: /Ogsp
;	COMDAT ??$_Construct@PAUDNode@?$AStarSearcher@VBoxSpace@@PAUBox@1@@@ABQAU12@@std@@YAXPAPAUDNode@?$AStarSearcher@VBoxSpace@@PAUBox@1@@@ABQAU12@@Z
_TEXT	SEGMENT
__Ptr$ = 8						; size = 4
__Val$ = 12						; size = 4
??$_Construct@PAUDNode@?$AStarSearcher@VBoxSpace@@PAUBox@1@@@ABQAU12@@std@@YAXPAPAUDNode@?$AStarSearcher@VBoxSpace@@PAUBox@1@@@ABQAU12@@Z PROC ; std::_Construct<AStarSearcher<BoxSpace,BoxSpace::Box *>::DNode *,AStarSearcher<BoxSpace,BoxSpace::Box *>::DNode * const &>, COMDAT

; 46   : 	{	// construct object at _Ptr with value _Val

  00000	55		 push	 ebp
  00001	8b ec		 mov	 ebp, esp

; 47   : 	void _FARQ *_Vptr = _Ptr;
; 48   : 	::new (_Vptr) _Ty1(_STD forward<_Ty2>(_Val));

  00003	8b 45 08	 mov	 eax, DWORD PTR __Ptr$[ebp]
  00006	85 c0		 test	 eax, eax
  00008	74 07		 je	 SHORT $LN3@Construct@3
  0000a	8b 4d 0c	 mov	 ecx, DWORD PTR __Val$[ebp]
  0000d	8b 09		 mov	 ecx, DWORD PTR [ecx]
  0000f	89 08		 mov	 DWORD PTR [eax], ecx
$LN3@Construct@3:

; 49   : 	}

  00011	5d		 pop	 ebp
  00012	c3		 ret	 0
??$_Construct@PAUDNode@?$AStarSearcher@VBoxSpace@@PAUBox@1@@@ABQAU12@@std@@YAXPAPAUDNode@?$AStarSearcher@VBoxSpace@@PAUBox@1@@@ABQAU12@@Z ENDP ; std::_Construct<AStarSearcher<BoxSpace,BoxSpace::Box *>::DNode *,AStarSearcher<BoxSpace,BoxSpace::Box *>::DNode * const &>
_TEXT	ENDS
PUBLIC	??$_Destroy@PAUDNode@?$AStarSearcher@VBoxSpace@@PAUBox@1@@@@std@@YAXPAPAUDNode@?$AStarSearcher@VBoxSpace@@PAUBox@1@@@@Z ; std::_Destroy<AStarSearcher<BoxSpace,BoxSpace::Box *>::DNode *>
; Function compile flags: /Ogsp
;	COMDAT ??$_Destroy@PAUDNode@?$AStarSearcher@VBoxSpace@@PAUBox@1@@@@std@@YAXPAPAUDNode@?$AStarSearcher@VBoxSpace@@PAUBox@1@@@@Z
_TEXT	SEGMENT
__Ptr$ = 8						; size = 4
??$_Destroy@PAUDNode@?$AStarSearcher@VBoxSpace@@PAUBox@1@@@@std@@YAXPAPAUDNode@?$AStarSearcher@VBoxSpace@@PAUBox@1@@@@Z PROC ; std::_Destroy<AStarSearcher<BoxSpace,BoxSpace::Box *>::DNode *>, COMDAT

; 63   : 	_Ptr->~_Ty();
; 64   : 	}

  00000	c3		 ret	 0
??$_Destroy@PAUDNode@?$AStarSearcher@VBoxSpace@@PAUBox@1@@@@std@@YAXPAPAUDNode@?$AStarSearcher@VBoxSpace@@PAUBox@1@@@@Z ENDP ; std::_Destroy<AStarSearcher<BoxSpace,BoxSpace::Box *>::DNode *>
_TEXT	ENDS
PUBLIC	?_Unchecked@?$_Vector_iterator@V?$_Vector_val@PAUDNode@?$AStarSearcher@VBoxSpace@@PAUBox@1@@@V?$allocator@PAUDNode@?$AStarSearcher@VBoxSpace@@PAUBox@1@@@@std@@@std@@@std@@QBEPAPAUDNode@?$AStarSearcher@VBoxSpace@@PAUBox@1@@@XZ ; std::_Vector_iterator<std::_Vector_val<AStarSearcher<BoxSpace,BoxSpace::Box *>::DNode *,std::allocator<AStarSearcher<BoxSpace,BoxSpace::Box *>::DNode *> > >::_Unchecked
; Function compile flags: /Ogsp
; File c:\program files (x86)\microsoft visual studio 10.0\vc\include\vector
;	COMDAT ?_Unchecked@?$_Vector_iterator@V?$_Vector_val@PAUDNode@?$AStarSearcher@VBoxSpace@@PAUBox@1@@@V?$allocator@PAUDNode@?$AStarSearcher@VBoxSpace@@PAUBox@1@@@@std@@@std@@@std@@QBEPAPAUDNode@?$AStarSearcher@VBoxSpace@@PAUBox@1@@@XZ
_TEXT	SEGMENT
?_Unchecked@?$_Vector_iterator@V?$_Vector_val@PAUDNode@?$AStarSearcher@VBoxSpace@@PAUBox@1@@@V?$allocator@PAUDNode@?$AStarSearcher@VBoxSpace@@PAUBox@1@@@@std@@@std@@@std@@QBEPAPAUDNode@?$AStarSearcher@VBoxSpace@@PAUBox@1@@@XZ PROC ; std::_Vector_iterator<std::_Vector_val<AStarSearcher<BoxSpace,BoxSpace::Box *>::DNode *,std::allocator<AStarSearcher<BoxSpace,BoxSpace::Box *>::DNode *> > >::_Unchecked, COMDAT
; _this$ = ecx

; 317  : 		return (_Unchecked_type(this->_Ptr));

  00000	8b 01		 mov	 eax, DWORD PTR [ecx]

; 318  : 		}

  00002	c3		 ret	 0
?_Unchecked@?$_Vector_iterator@V?$_Vector_val@PAUDNode@?$AStarSearcher@VBoxSpace@@PAUBox@1@@@V?$allocator@PAUDNode@?$AStarSearcher@VBoxSpace@@PAUBox@1@@@@std@@@std@@@std@@QBEPAPAUDNode@?$AStarSearcher@VBoxSpace@@PAUBox@1@@@XZ ENDP ; std::_Vector_iterator<std::_Vector_val<AStarSearcher<BoxSpace,BoxSpace::Box *>::DNode *,std::allocator<AStarSearcher<BoxSpace,BoxSpace::Box *>::DNode *> > >::_Unchecked
_TEXT	ENDS
PUBLIC	?_Unchecked@?$_Vector_iterator@V?$_Vector_val@ULink@BoxSpace@@V?$allocator@ULink@BoxSpace@@@std@@@std@@@std@@QBEPAULink@BoxSpace@@XZ ; std::_Vector_iterator<std::_Vector_val<BoxSpace::Link,std::allocator<BoxSpace::Link> > >::_Unchecked
; Function compile flags: /Ogsp
;	COMDAT ?_Unchecked@?$_Vector_iterator@V?$_Vector_val@ULink@BoxSpace@@V?$allocator@ULink@BoxSpace@@@std@@@std@@@std@@QBEPAULink@BoxSpace@@XZ
_TEXT	SEGMENT
?_Unchecked@?$_Vector_iterator@V?$_Vector_val@ULink@BoxSpace@@V?$allocator@ULink@BoxSpace@@@std@@@std@@@std@@QBEPAULink@BoxSpace@@XZ PROC ; std::_Vector_iterator<std::_Vector_val<BoxSpace::Link,std::allocator<BoxSpace::Link> > >::_Unchecked, COMDAT
; _this$ = ecx

; 317  : 		return (_Unchecked_type(this->_Ptr));

  00000	8b 01		 mov	 eax, DWORD PTR [ecx]

; 318  : 		}

  00002	c3		 ret	 0
?_Unchecked@?$_Vector_iterator@V?$_Vector_val@ULink@BoxSpace@@V?$allocator@ULink@BoxSpace@@@std@@@std@@@std@@QBEPAULink@BoxSpace@@XZ ENDP ; std::_Vector_iterator<std::_Vector_val<BoxSpace::Link,std::allocator<BoxSpace::Link> > >::_Unchecked
_TEXT	ENDS
PUBLIC	??0?$_Temp_iterator@ULink@BoxSpace@@@std@@QAE@H@Z ; std::_Temp_iterator<BoxSpace::Link>::_Temp_iterator<BoxSpace::Link>
; Function compile flags: /Ogsp
; File c:\program files (x86)\microsoft visual studio 10.0\vc\include\memory
;	COMDAT ??0?$_Temp_iterator@ULink@BoxSpace@@@std@@QAE@H@Z
_TEXT	SEGMENT
__Count$ = 8						; size = 4
??0?$_Temp_iterator@ULink@BoxSpace@@@std@@QAE@H@Z PROC	; std::_Temp_iterator<BoxSpace::Link>::_Temp_iterator<BoxSpace::Link>, COMDAT
; _this$ = ecx

; 727  : 	_Temp_iterator(_PDFT _Count = 0)

  00000	55		 push	 ebp
  00001	8b ec		 mov	 ebp, esp
  00003	8b c1		 mov	 eax, ecx

; 728  : 		{	// construct from desired temporary buffer size
; 729  : 		_Buf._Begin = 0;

  00005	33 c9		 xor	 ecx, ecx
  00007	89 08		 mov	 DWORD PTR [eax], ecx

; 730  : 		_Buf._Current = 0;

  00009	89 48 04	 mov	 DWORD PTR [eax+4], ecx

; 731  : 		_Buf._Hiwater = 0;

  0000c	89 48 08	 mov	 DWORD PTR [eax+8], ecx

; 732  : 		_Buf._Size = _Count;	// memorize size for lazy allocation

  0000f	8b 4d 08	 mov	 ecx, DWORD PTR __Count$[ebp]
  00012	89 48 0c	 mov	 DWORD PTR [eax+12], ecx

; 733  : 		_Pbuf = &_Buf;

  00015	89 40 10	 mov	 DWORD PTR [eax+16], eax

; 734  : 		}

  00018	5d		 pop	 ebp
  00019	c2 04 00	 ret	 4
??0?$_Temp_iterator@ULink@BoxSpace@@@std@@QAE@H@Z ENDP	; std::_Temp_iterator<BoxSpace::Link>::_Temp_iterator<BoxSpace::Link>
_TEXT	ENDS
PUBLIC	??$_Val_type@PAF@std@@YAPAFPAF@Z		; std::_Val_type<short *>
; Function compile flags: /Ogsp
; File c:\program files (x86)\microsoft visual studio 10.0\vc\include\xutility
;	COMDAT ??$_Val_type@PAF@std@@YAPAFPAF@Z
_TEXT	SEGMENT
___formal$ = 8						; size = 4
??$_Val_type@PAF@std@@YAPAFPAF@Z PROC			; std::_Val_type<short *>, COMDAT

; 790  : 	return (0);

  00000	33 c0		 xor	 eax, eax

; 791  : 	}

  00002	c3		 ret	 0
??$_Val_type@PAF@std@@YAPAFPAF@Z ENDP			; std::_Val_type<short *>
_TEXT	ENDS
PUBLIC	??$_Uninit_move@FFF@std@@YAPAFPAF00AAV?$allocator@F@0@0U_Scalar_ptr_iterator_tag@0@@Z ; std::_Uninit_move<short,short,short>
; Function compile flags: /Ogsp
; File c:\program files (x86)\microsoft visual studio 10.0\vc\include\memory
;	COMDAT ??$_Uninit_move@FFF@std@@YAPAFPAF00AAV?$allocator@F@0@0U_Scalar_ptr_iterator_tag@0@@Z
_TEXT	SEGMENT
__First$ = 8						; size = 4
__Last$ = 12						; size = 4
__Dest$ = 16						; size = 4
___formal$ = 20						; size = 4
___formal$ = 24						; size = 4
___formal$ = 28						; size = 1
??$_Uninit_move@FFF@std@@YAPAFPAF00AAV?$allocator@F@0@0U_Scalar_ptr_iterator_tag@0@@Z PROC ; std::_Uninit_move<short,short,short>, COMDAT

; 456  : 	{	// move [_First, _Last) to raw _Dest, scalar type

  00000	55		 push	 ebp
  00001	8b ec		 mov	 ebp, esp

; 457  : 	_DEBUG_RANGE(_First, _Last);
; 458  : 	_DEBUG_POINTER(_Dest);
; 459  : 	size_t _Count = (size_t)(_Last - _First);

  00003	8b 45 0c	 mov	 eax, DWORD PTR __Last$[ebp]
  00006	2b 45 08	 sub	 eax, DWORD PTR __First$[ebp]
  00009	56		 push	 esi
  0000a	d1 f8		 sar	 eax, 1

; 460  : 	return ((_Ty2 *)_CSTD memmove(&*_Dest, &*_First,
; 461  : 		_Count * sizeof (*_First)) + _Count);	// NB: non-overlapping move

  0000c	8d 34 00	 lea	 esi, DWORD PTR [eax+eax]
  0000f	56		 push	 esi
  00010	ff 75 08	 push	 DWORD PTR __First$[ebp]
  00013	ff 75 10	 push	 DWORD PTR __Dest$[ebp]
  00016	ff 15 00 00 00
	00		 call	 DWORD PTR __imp__memmove
  0001c	83 c4 0c	 add	 esp, 12			; 0000000cH
  0001f	03 c6		 add	 eax, esi
  00021	5e		 pop	 esi

; 462  : 	}

  00022	5d		 pop	 ebp
  00023	c3		 ret	 0
??$_Uninit_move@FFF@std@@YAPAFPAF00AAV?$allocator@F@0@0U_Scalar_ptr_iterator_tag@0@@Z ENDP ; std::_Uninit_move<short,short,short>
_TEXT	ENDS
PUBLIC	??$_Move@AAPAUDNode@?$AStarSearcher@VBoxSpace@@PAUBox@1@@@@std@@YA$$QAPAUDNode@?$AStarSearcher@VBoxSpace@@PAUBox@1@@@AAPAU12@@Z ; std::_Move<AStarSearcher<BoxSpace,BoxSpace::Box *>::DNode * &>
; Function compile flags: /Ogsp
; File c:\program files (x86)\microsoft visual studio 10.0\vc\include\utility
;	COMDAT ??$_Move@AAPAUDNode@?$AStarSearcher@VBoxSpace@@PAUBox@1@@@@std@@YA$$QAPAUDNode@?$AStarSearcher@VBoxSpace@@PAUBox@1@@@AAPAU12@@Z
_TEXT	SEGMENT
__Arg$ = 8						; size = 4
??$_Move@AAPAUDNode@?$AStarSearcher@VBoxSpace@@PAUBox@1@@@@std@@YA$$QAPAUDNode@?$AStarSearcher@VBoxSpace@@PAUBox@1@@@AAPAU12@@Z PROC ; std::_Move<AStarSearcher<BoxSpace,BoxSpace::Box *>::DNode * &>, COMDAT

; 94   : 	{	// forward _Arg as movable

  00000	55		 push	 ebp
  00001	8b ec		 mov	 ebp, esp

; 95   : 	return ((typename tr1::_Remove_reference<_Ty>::_Type&&)_Arg);

  00003	8b 45 08	 mov	 eax, DWORD PTR __Arg$[ebp]

; 96   : 	}

  00006	5d		 pop	 ebp
  00007	c3		 ret	 0
??$_Move@AAPAUDNode@?$AStarSearcher@VBoxSpace@@PAUBox@1@@@@std@@YA$$QAPAUDNode@?$AStarSearcher@VBoxSpace@@PAUBox@1@@@AAPAU12@@Z ENDP ; std::_Move<AStarSearcher<BoxSpace,BoxSpace::Box *>::DNode * &>
_TEXT	ENDS
PUBLIC	??$_Val_type@PAULink@BoxSpace@@@std@@YAPAULink@BoxSpace@@PAU12@@Z ; std::_Val_type<BoxSpace::Link *>
; Function compile flags: /Ogsp
; File c:\program files (x86)\microsoft visual studio 10.0\vc\include\xutility
;	COMDAT ??$_Val_type@PAULink@BoxSpace@@@std@@YAPAULink@BoxSpace@@PAU12@@Z
_TEXT	SEGMENT
___formal$ = 8						; size = 4
??$_Val_type@PAULink@BoxSpace@@@std@@YAPAULink@BoxSpace@@PAU12@@Z PROC ; std::_Val_type<BoxSpace::Link *>, COMDAT

; 790  : 	return (0);

  00000	33 c0		 xor	 eax, eax

; 791  : 	}

  00002	c3		 ret	 0
??$_Val_type@PAULink@BoxSpace@@@std@@YAPAULink@BoxSpace@@PAU12@@Z ENDP ; std::_Val_type<BoxSpace::Link *>
_TEXT	ENDS
PUBLIC	??$_Val_type@PAUBox@BoxSpace@@@std@@YAPAUBox@BoxSpace@@PAU12@@Z ; std::_Val_type<BoxSpace::Box *>
; Function compile flags: /Ogsp
;	COMDAT ??$_Val_type@PAUBox@BoxSpace@@@std@@YAPAUBox@BoxSpace@@PAU12@@Z
_TEXT	SEGMENT
___formal$ = 8						; size = 4
??$_Val_type@PAUBox@BoxSpace@@@std@@YAPAUBox@BoxSpace@@PAU12@@Z PROC ; std::_Val_type<BoxSpace::Box *>, COMDAT

; 790  : 	return (0);

  00000	33 c0		 xor	 eax, eax

; 791  : 	}

  00002	c3		 ret	 0
??$_Val_type@PAUBox@BoxSpace@@@std@@YAPAUBox@BoxSpace@@PAU12@@Z ENDP ; std::_Val_type<BoxSpace::Box *>
_TEXT	ENDS
PUBLIC	??$_Unchecked@PAPAUDNode@?$AStarSearcher@VBoxSpace@@PAUBox@1@@@@std@@YAPAPAUDNode@?$AStarSearcher@VBoxSpace@@PAUBox@1@@@PAPAU12@@Z ; std::_Unchecked<AStarSearcher<BoxSpace,BoxSpace::Box *>::DNode * *>
; Function compile flags: /Ogsp
;	COMDAT ??$_Unchecked@PAPAUDNode@?$AStarSearcher@VBoxSpace@@PAUBox@1@@@@std@@YAPAPAUDNode@?$AStarSearcher@VBoxSpace@@PAUBox@1@@@PAPAU12@@Z
_TEXT	SEGMENT
__Src$ = 8						; size = 4
??$_Unchecked@PAPAUDNode@?$AStarSearcher@VBoxSpace@@PAUBox@1@@@@std@@YAPAPAUDNode@?$AStarSearcher@VBoxSpace@@PAUBox@1@@@PAPAU12@@Z PROC ; std::_Unchecked<AStarSearcher<BoxSpace,BoxSpace::Box *>::DNode * *>, COMDAT

; 266  : 	{	// construct unchecked from checked, generic

  00000	55		 push	 ebp
  00001	8b ec		 mov	 ebp, esp

; 267  : 	return (_Src);

  00003	8b 45 08	 mov	 eax, DWORD PTR __Src$[ebp]

; 268  : 	}

  00006	5d		 pop	 ebp
  00007	c3		 ret	 0
??$_Unchecked@PAPAUDNode@?$AStarSearcher@VBoxSpace@@PAUBox@1@@@@std@@YAPAPAUDNode@?$AStarSearcher@VBoxSpace@@PAUBox@1@@@PAPAU12@@Z ENDP ; std::_Unchecked<AStarSearcher<BoxSpace,BoxSpace::Box *>::DNode * *>
_TEXT	ENDS
PUBLIC	??$_Val_type@PAPAUDNode@?$AStarSearcher@VBoxSpace@@PAUBox@1@@@@std@@YAPAPAUDNode@?$AStarSearcher@VBoxSpace@@PAUBox@1@@@PAPAU12@@Z ; std::_Val_type<AStarSearcher<BoxSpace,BoxSpace::Box *>::DNode * *>
; Function compile flags: /Ogsp
;	COMDAT ??$_Val_type@PAPAUDNode@?$AStarSearcher@VBoxSpace@@PAUBox@1@@@@std@@YAPAPAUDNode@?$AStarSearcher@VBoxSpace@@PAUBox@1@@@PAPAU12@@Z
_TEXT	SEGMENT
___formal$ = 8						; size = 4
??$_Val_type@PAPAUDNode@?$AStarSearcher@VBoxSpace@@PAUBox@1@@@@std@@YAPAPAUDNode@?$AStarSearcher@VBoxSpace@@PAUBox@1@@@PAPAU12@@Z PROC ; std::_Val_type<AStarSearcher<BoxSpace,BoxSpace::Box *>::DNode * *>, COMDAT

; 790  : 	return (0);

  00000	33 c0		 xor	 eax, eax

; 791  : 	}

  00002	c3		 ret	 0
??$_Val_type@PAPAUDNode@?$AStarSearcher@VBoxSpace@@PAUBox@1@@@@std@@YAPAPAUDNode@?$AStarSearcher@VBoxSpace@@PAUBox@1@@@PAPAU12@@Z ENDP ; std::_Val_type<AStarSearcher<BoxSpace,BoxSpace::Box *>::DNode * *>
_TEXT	ENDS
PUBLIC	??$_Uninit_move@PAUDNode@?$AStarSearcher@VBoxSpace@@PAUBox@1@@@PAU12@PAU12@@std@@YAPAPAUDNode@?$AStarSearcher@VBoxSpace@@PAUBox@1@@@PAPAU12@00AAV?$allocator@PAUDNode@?$AStarSearcher@VBoxSpace@@PAUBox@1@@@@0@0U_Scalar_ptr_iterator_tag@0@@Z ; std::_Uninit_move<AStarSearcher<BoxSpace,BoxSpace::Box *>::DNode *,AStarSearcher<BoxSpace,BoxSpace::Box *>::DNode *,AStarSearcher<BoxSpace,BoxSpace::Box *>::DNode *>
; Function compile flags: /Ogsp
; File c:\program files (x86)\microsoft visual studio 10.0\vc\include\memory
;	COMDAT ??$_Uninit_move@PAUDNode@?$AStarSearcher@VBoxSpace@@PAUBox@1@@@PAU12@PAU12@@std@@YAPAPAUDNode@?$AStarSearcher@VBoxSpace@@PAUBox@1@@@PAPAU12@00AAV?$allocator@PAUDNode@?$AStarSearcher@VBoxSpace@@PAUBox@1@@@@0@0U_Scalar_ptr_iterator_tag@0@@Z
_TEXT	SEGMENT
__First$ = 8						; size = 4
__Last$ = 12						; size = 4
__Dest$ = 16						; size = 4
___formal$ = 20						; size = 4
___formal$ = 24						; size = 4
___formal$ = 28						; size = 1
??$_Uninit_move@PAUDNode@?$AStarSearcher@VBoxSpace@@PAUBox@1@@@PAU12@PAU12@@std@@YAPAPAUDNode@?$AStarSearcher@VBoxSpace@@PAUBox@1@@@PAPAU12@00AAV?$allocator@PAUDNode@?$AStarSearcher@VBoxSpace@@PAUBox@1@@@@0@0U_Scalar_ptr_iterator_tag@0@@Z PROC ; std::_Uninit_move<AStarSearcher<BoxSpace,BoxSpace::Box *>::DNode *,AStarSearcher<BoxSpace,BoxSpace::Box *>::DNode *,AStarSearcher<BoxSpace,BoxSpace::Box *>::DNode *>, COMDAT

; 456  : 	{	// move [_First, _Last) to raw _Dest, scalar type

  00000	55		 push	 ebp
  00001	8b ec		 mov	 ebp, esp
  00003	56		 push	 esi

; 457  : 	_DEBUG_RANGE(_First, _Last);
; 458  : 	_DEBUG_POINTER(_Dest);
; 459  : 	size_t _Count = (size_t)(_Last - _First);

  00004	8b 75 0c	 mov	 esi, DWORD PTR __Last$[ebp]
  00007	2b 75 08	 sub	 esi, DWORD PTR __First$[ebp]
  0000a	c1 fe 02	 sar	 esi, 2

; 460  : 	return ((_Ty2 *)_CSTD memmove(&*_Dest, &*_First,
; 461  : 		_Count * sizeof (*_First)) + _Count);	// NB: non-overlapping move

  0000d	c1 e6 02	 shl	 esi, 2
  00010	56		 push	 esi
  00011	ff 75 08	 push	 DWORD PTR __First$[ebp]
  00014	ff 75 10	 push	 DWORD PTR __Dest$[ebp]
  00017	ff 15 00 00 00
	00		 call	 DWORD PTR __imp__memmove
  0001d	83 c4 0c	 add	 esp, 12			; 0000000cH
  00020	03 c6		 add	 eax, esi
  00022	5e		 pop	 esi

; 462  : 	}

  00023	5d		 pop	 ebp
  00024	c3		 ret	 0
??$_Uninit_move@PAUDNode@?$AStarSearcher@VBoxSpace@@PAUBox@1@@@PAU12@PAU12@@std@@YAPAPAUDNode@?$AStarSearcher@VBoxSpace@@PAUBox@1@@@PAPAU12@00AAV?$allocator@PAUDNode@?$AStarSearcher@VBoxSpace@@PAUBox@1@@@@0@0U_Scalar_ptr_iterator_tag@0@@Z ENDP ; std::_Uninit_move<AStarSearcher<BoxSpace,BoxSpace::Box *>::DNode *,AStarSearcher<BoxSpace,BoxSpace::Box *>::DNode *,AStarSearcher<BoxSpace,BoxSpace::Box *>::DNode *>
_TEXT	ENDS
PUBLIC	??$_Val_type@PAPBQAUBox@BoxSpace@@@std@@YAPAPBQAUBox@BoxSpace@@PAPBQAU12@@Z ; std::_Val_type<BoxSpace::Box * const * *>
; Function compile flags: /Ogsp
; File c:\program files (x86)\microsoft visual studio 10.0\vc\include\xutility
;	COMDAT ??$_Val_type@PAPBQAUBox@BoxSpace@@@std@@YAPAPBQAUBox@BoxSpace@@PAPBQAU12@@Z
_TEXT	SEGMENT
___formal$ = 8						; size = 4
??$_Val_type@PAPBQAUBox@BoxSpace@@@std@@YAPAPBQAUBox@BoxSpace@@PAPBQAU12@@Z PROC ; std::_Val_type<BoxSpace::Box * const * *>, COMDAT

; 790  : 	return (0);

  00000	33 c0		 xor	 eax, eax

; 791  : 	}

  00002	c3		 ret	 0
??$_Val_type@PAPBQAUBox@BoxSpace@@@std@@YAPAPBQAUBox@BoxSpace@@PAPBQAU12@@Z ENDP ; std::_Val_type<BoxSpace::Box * const * *>
_TEXT	ENDS
PUBLIC	??$_Uninit_move@PBQAUBox@BoxSpace@@PBQAU12@PBQAU12@@std@@YAPAPBQAUBox@BoxSpace@@PAPBQAU12@00AAV?$allocator@PBQAUBox@BoxSpace@@@0@0U_Scalar_ptr_iterator_tag@0@@Z ; std::_Uninit_move<BoxSpace::Box * const *,BoxSpace::Box * const *,BoxSpace::Box * const *>
; Function compile flags: /Ogsp
; File c:\program files (x86)\microsoft visual studio 10.0\vc\include\memory
;	COMDAT ??$_Uninit_move@PBQAUBox@BoxSpace@@PBQAU12@PBQAU12@@std@@YAPAPBQAUBox@BoxSpace@@PAPBQAU12@00AAV?$allocator@PBQAUBox@BoxSpace@@@0@0U_Scalar_ptr_iterator_tag@0@@Z
_TEXT	SEGMENT
__First$ = 8						; size = 4
__Last$ = 12						; size = 4
__Dest$ = 16						; size = 4
___formal$ = 20						; size = 4
___formal$ = 24						; size = 4
___formal$ = 28						; size = 1
??$_Uninit_move@PBQAUBox@BoxSpace@@PBQAU12@PBQAU12@@std@@YAPAPBQAUBox@BoxSpace@@PAPBQAU12@00AAV?$allocator@PBQAUBox@BoxSpace@@@0@0U_Scalar_ptr_iterator_tag@0@@Z PROC ; std::_Uninit_move<BoxSpace::Box * const *,BoxSpace::Box * const *,BoxSpace::Box * const *>, COMDAT

; 456  : 	{	// move [_First, _Last) to raw _Dest, scalar type

  00000	55		 push	 ebp
  00001	8b ec		 mov	 ebp, esp
  00003	56		 push	 esi

; 457  : 	_DEBUG_RANGE(_First, _Last);
; 458  : 	_DEBUG_POINTER(_Dest);
; 459  : 	size_t _Count = (size_t)(_Last - _First);

  00004	8b 75 0c	 mov	 esi, DWORD PTR __Last$[ebp]
  00007	2b 75 08	 sub	 esi, DWORD PTR __First$[ebp]
  0000a	c1 fe 02	 sar	 esi, 2

; 460  : 	return ((_Ty2 *)_CSTD memmove(&*_Dest, &*_First,
; 461  : 		_Count * sizeof (*_First)) + _Count);	// NB: non-overlapping move

  0000d	c1 e6 02	 shl	 esi, 2
  00010	56		 push	 esi
  00011	ff 75 08	 push	 DWORD PTR __First$[ebp]
  00014	ff 75 10	 push	 DWORD PTR __Dest$[ebp]
  00017	ff 15 00 00 00
	00		 call	 DWORD PTR __imp__memmove
  0001d	83 c4 0c	 add	 esp, 12			; 0000000cH
  00020	03 c6		 add	 eax, esi
  00022	5e		 pop	 esi

; 462  : 	}

  00023	5d		 pop	 ebp
  00024	c3		 ret	 0
??$_Uninit_move@PBQAUBox@BoxSpace@@PBQAU12@PBQAU12@@std@@YAPAPBQAUBox@BoxSpace@@PAPBQAU12@00AAV?$allocator@PBQAUBox@BoxSpace@@@0@0U_Scalar_ptr_iterator_tag@0@@Z ENDP ; std::_Uninit_move<BoxSpace::Box * const *,BoxSpace::Box * const *,BoxSpace::Box * const *>
_TEXT	ENDS
PUBLIC	??$return_temporary_buffer@ULink@BoxSpace@@@std@@YAXPAULink@BoxSpace@@@Z ; std::return_temporary_buffer<BoxSpace::Link>
; Function compile flags: /Ogsp
;	COMDAT ??$return_temporary_buffer@ULink@BoxSpace@@@std@@YAXPAULink@BoxSpace@@@Z
_TEXT	SEGMENT
__Pbuf$ = 8						; size = 4
??$return_temporary_buffer@ULink@BoxSpace@@@std@@YAXPAULink@BoxSpace@@@Z PROC ; std::return_temporary_buffer<BoxSpace::Link>, COMDAT

; 41   : 	{	// delete raw temporary buffer

  00000	55		 push	 ebp
  00001	8b ec		 mov	 ebp, esp

; 43   : 	}

  00003	5d		 pop	 ebp

; 42   : 	operator delete(_Pbuf);

  00004	e9 00 00 00 00	 jmp	 ??3@YAXPAX@Z		; operator delete
??$return_temporary_buffer@ULink@BoxSpace@@@std@@YAXPAULink@BoxSpace@@@Z ENDP ; std::return_temporary_buffer<BoxSpace::Link>
_TEXT	ENDS
PUBLIC	??RDNodeCostGreater@?$AStarSearcher@VBoxSpace@@PAUBox@1@@@QBE_NPBUDNode@1@0@Z ; AStarSearcher<BoxSpace,BoxSpace::Box *>::DNodeCostGreater::operator()
; Function compile flags: /Ogsp
; File d:\lost saga for developer\youtube\tutorial\source\src\lsclient\astar.h
;	COMDAT ??RDNodeCostGreater@?$AStarSearcher@VBoxSpace@@PAUBox@1@@@QBE_NPBUDNode@1@0@Z
_TEXT	SEGMENT
_p$ = 8							; size = 4
_q$ = 12						; size = 4
??RDNodeCostGreater@?$AStarSearcher@VBoxSpace@@PAUBox@1@@@QBE_NPBUDNode@1@0@Z PROC ; AStarSearcher<BoxSpace,BoxSpace::Box *>::DNodeCostGreater::operator(), COMDAT
; _this$ = ecx

; 88   : 		bool operator () ( const DNode* p, const DNode* q ) const		{ return p->total > q->total; }

  00000	55		 push	 ebp
  00001	8b ec		 mov	 ebp, esp
  00003	8b 45 08	 mov	 eax, DWORD PTR _p$[ebp]
  00006	f3 0f 10 40 0c	 movss	 xmm0, DWORD PTR [eax+12]
  0000b	8b 45 0c	 mov	 eax, DWORD PTR _q$[ebp]
  0000e	f3 0f 10 48 0c	 movss	 xmm1, DWORD PTR [eax+12]
  00013	0f 5a c0	 cvtps2pd xmm0, xmm0
  00016	0f 5a c9	 cvtps2pd xmm1, xmm1
  00019	33 c0		 xor	 eax, eax
  0001b	66 0f 2f c1	 comisd	 xmm0, xmm1
  0001f	76 01		 jbe	 SHORT $LN4@operator@2
  00021	40		 inc	 eax
$LN4@operator@2:
  00022	5d		 pop	 ebp
  00023	c2 08 00	 ret	 8
??RDNodeCostGreater@?$AStarSearcher@VBoxSpace@@PAUBox@1@@@QBE_NPBUDNode@1@0@Z ENDP ; AStarSearcher<BoxSpace,BoxSpace::Box *>::DNodeCostGreater::operator()
_TEXT	ENDS
PUBLIC	??$_Iter_cat@PAULink@BoxSpace@@@std@@YA?AUrandom_access_iterator_tag@0@ABQAULink@BoxSpace@@@Z ; std::_Iter_cat<BoxSpace::Link *>
; Function compile flags: /Ogsp
; File c:\program files (x86)\microsoft visual studio 10.0\vc\include\xutility
;	COMDAT ??$_Iter_cat@PAULink@BoxSpace@@@std@@YA?AUrandom_access_iterator_tag@0@ABQAULink@BoxSpace@@@Z
_TEXT	SEGMENT
___$ReturnUdt$ = 8					; size = 4
___formal$ = 12						; size = 4
??$_Iter_cat@PAULink@BoxSpace@@@std@@YA?AUrandom_access_iterator_tag@0@ABQAULink@BoxSpace@@@Z PROC ; std::_Iter_cat<BoxSpace::Link *>, COMDAT

; 476  : 	{	// return category from iterator argument

  00000	55		 push	 ebp
  00001	8b ec		 mov	 ebp, esp

; 477  : 	typename iterator_traits<_Iter>::iterator_category _Cat;
; 478  : 	return (_Cat);

  00003	8b 45 08	 mov	 eax, DWORD PTR ___$ReturnUdt$[ebp]

; 479  : 	}

  00006	5d		 pop	 ebp
  00007	c3		 ret	 0
??$_Iter_cat@PAULink@BoxSpace@@@std@@YA?AUrandom_access_iterator_tag@0@ABQAULink@BoxSpace@@@Z ENDP ; std::_Iter_cat<BoxSpace::Link *>
_TEXT	ENDS
PUBLIC	??$_Distance2@PAULink@BoxSpace@@H@std@@YAXPAULink@BoxSpace@@0AAHUrandom_access_iterator_tag@0@@Z ; std::_Distance2<BoxSpace::Link *,int>
; Function compile flags: /Ogsp
;	COMDAT ??$_Distance2@PAULink@BoxSpace@@H@std@@YAXPAULink@BoxSpace@@0AAHUrandom_access_iterator_tag@0@@Z
_TEXT	SEGMENT
__First$ = 8						; size = 4
__Last$ = 12						; size = 4
__Off$ = 16						; size = 4
___formal$ = 20						; size = 1
??$_Distance2@PAULink@BoxSpace@@H@std@@YAXPAULink@BoxSpace@@0AAHUrandom_access_iterator_tag@0@@Z PROC ; std::_Distance2<BoxSpace::Link *,int>, COMDAT

; 885  : 	{	// add to _Off distance between random-access iterators

  00000	55		 push	 ebp
  00001	8b ec		 mov	 ebp, esp

; 886  :  #if _ITERATOR_DEBUG_LEVEL == 2
; 887  : 	if (_First != _Last)
; 888  : 		{	// check for null pointers
; 889  : 		_DEBUG_POINTER(_First);
; 890  : 		_DEBUG_POINTER(_Last);
; 891  : 		}
; 892  :  #endif /* _ITERATOR_DEBUG_LEVEL == 2 */
; 893  : 
; 894  : 	_Off += _Last - _First;

  00003	8b 4d 0c	 mov	 ecx, DWORD PTR __Last$[ebp]
  00006	2b 4d 08	 sub	 ecx, DWORD PTR __First$[ebp]
  00009	8b 45 10	 mov	 eax, DWORD PTR __Off$[ebp]
  0000c	c1 f9 05	 sar	 ecx, 5
  0000f	01 08		 add	 DWORD PTR [eax], ecx

; 895  : 	}

  00011	5d		 pop	 ebp
  00012	c3		 ret	 0
??$_Distance2@PAULink@BoxSpace@@H@std@@YAXPAULink@BoxSpace@@0AAHUrandom_access_iterator_tag@0@@Z ENDP ; std::_Distance2<BoxSpace::Link *,int>
_TEXT	ENDS
PUBLIC	??$_Dist_type@PAPAUDNode@?$AStarSearcher@VBoxSpace@@PAUBox@1@@@@std@@YAPAHPAPAUDNode@?$AStarSearcher@VBoxSpace@@PAUBox@1@@@@Z ; std::_Dist_type<AStarSearcher<BoxSpace,BoxSpace::Box *>::DNode * *>
; Function compile flags: /Ogsp
;	COMDAT ??$_Dist_type@PAPAUDNode@?$AStarSearcher@VBoxSpace@@PAUBox@1@@@@std@@YAPAHPAPAUDNode@?$AStarSearcher@VBoxSpace@@PAUBox@1@@@@Z
_TEXT	SEGMENT
___formal$ = 8						; size = 4
??$_Dist_type@PAPAUDNode@?$AStarSearcher@VBoxSpace@@PAUBox@1@@@@std@@YAPAHPAPAUDNode@?$AStarSearcher@VBoxSpace@@PAUBox@1@@@@Z PROC ; std::_Dist_type<AStarSearcher<BoxSpace,BoxSpace::Box *>::DNode * *>, COMDAT

; 850  : 	return (0);

  00000	33 c0		 xor	 eax, eax

; 851  : 	}

  00002	c3		 ret	 0
??$_Dist_type@PAPAUDNode@?$AStarSearcher@VBoxSpace@@PAUBox@1@@@@std@@YAPAHPAPAUDNode@?$AStarSearcher@VBoxSpace@@PAUBox@1@@@@Z ENDP ; std::_Dist_type<AStarSearcher<BoxSpace,BoxSpace::Box *>::DNode * *>
_TEXT	ENDS
PUBLIC	?_Init@?$_Temp_iterator@ULink@BoxSpace@@@std@@QAEAAV12@XZ ; std::_Temp_iterator<BoxSpace::Link>::_Init
; Function compile flags: /Ogsp
; File c:\program files (x86)\microsoft visual studio 10.0\vc\include\memory
;	COMDAT ?_Init@?$_Temp_iterator@ULink@BoxSpace@@@std@@QAEAAV12@XZ
_TEXT	SEGMENT
?_Init@?$_Temp_iterator@ULink@BoxSpace@@@std@@QAEAAV12@XZ PROC ; std::_Temp_iterator<BoxSpace::Link>::_Init, COMDAT
; _this$ = ecx

; 805  : 		{	// set pointer at beginning of buffer

  00000	8b c1		 mov	 eax, ecx

; 806  : 		_Pbuf->_Current = _Pbuf->_Begin;

  00002	8b 50 10	 mov	 edx, DWORD PTR [eax+16]
  00005	8b 0a		 mov	 ecx, DWORD PTR [edx]
  00007	89 4a 04	 mov	 DWORD PTR [edx+4], ecx

; 807  : 		return (*this);
; 808  : 		}

  0000a	c3		 ret	 0
?_Init@?$_Temp_iterator@ULink@BoxSpace@@@std@@QAEAAV12@XZ ENDP ; std::_Temp_iterator<BoxSpace::Link>::_Init
_TEXT	ENDS
PUBLIC	?_First@?$_Temp_iterator@ULink@BoxSpace@@@std@@QBEPAULink@BoxSpace@@XZ ; std::_Temp_iterator<BoxSpace::Link>::_First
; Function compile flags: /Ogsp
;	COMDAT ?_First@?$_Temp_iterator@ULink@BoxSpace@@@std@@QBEPAULink@BoxSpace@@XZ
_TEXT	SEGMENT
?_First@?$_Temp_iterator@ULink@BoxSpace@@@std@@QBEPAULink@BoxSpace@@XZ PROC ; std::_Temp_iterator<BoxSpace::Link>::_First, COMDAT
; _this$ = ecx

; 812  : 		return (_Pbuf->_Begin);

  00000	8b 41 10	 mov	 eax, DWORD PTR [ecx+16]
  00003	8b 00		 mov	 eax, DWORD PTR [eax]

; 813  : 		}

  00005	c3		 ret	 0
?_First@?$_Temp_iterator@ULink@BoxSpace@@@std@@QBEPAULink@BoxSpace@@XZ ENDP ; std::_Temp_iterator<BoxSpace::Link>::_First
_TEXT	ENDS
PUBLIC	?_Last@?$_Temp_iterator@ULink@BoxSpace@@@std@@QBEPAULink@BoxSpace@@XZ ; std::_Temp_iterator<BoxSpace::Link>::_Last
; Function compile flags: /Ogsp
;	COMDAT ?_Last@?$_Temp_iterator@ULink@BoxSpace@@@std@@QBEPAULink@BoxSpace@@XZ
_TEXT	SEGMENT
?_Last@?$_Temp_iterator@ULink@BoxSpace@@@std@@QBEPAULink@BoxSpace@@XZ PROC ; std::_Temp_iterator<BoxSpace::Link>::_Last, COMDAT
; _this$ = ecx

; 817  : 		return (_Pbuf->_Current);

  00000	8b 41 10	 mov	 eax, DWORD PTR [ecx+16]
  00003	8b 40 04	 mov	 eax, DWORD PTR [eax+4]

; 818  : 		}

  00006	c3		 ret	 0
?_Last@?$_Temp_iterator@ULink@BoxSpace@@@std@@QBEPAULink@BoxSpace@@XZ ENDP ; std::_Temp_iterator<BoxSpace::Link>::_Last
_TEXT	ENDS
PUBLIC	??4?$_Temp_iterator@ULink@BoxSpace@@@std@@QAEAAV01@ABV01@@Z ; std::_Temp_iterator<BoxSpace::Link>::operator=
; Function compile flags: /Ogsp
;	COMDAT ??4?$_Temp_iterator@ULink@BoxSpace@@@std@@QAEAAV01@ABV01@@Z
_TEXT	SEGMENT
__Right$ = 8						; size = 4
??4?$_Temp_iterator@ULink@BoxSpace@@@std@@QAEAAV01@ABV01@@Z PROC ; std::_Temp_iterator<BoxSpace::Link>::operator=, COMDAT
; _this$ = ecx

; 757  : 		{	// assign _Right (share active buffer)

  00000	55		 push	 ebp
  00001	8b ec		 mov	 ebp, esp
  00003	8b c1		 mov	 eax, ecx

; 758  : 		_Pbuf = _Right._Pbuf;

  00005	8b 4d 08	 mov	 ecx, DWORD PTR __Right$[ebp]
  00008	8b 49 10	 mov	 ecx, DWORD PTR [ecx+16]
  0000b	89 48 10	 mov	 DWORD PTR [eax+16], ecx

; 759  : 		return (*this);
; 760  : 		}

  0000e	5d		 pop	 ebp
  0000f	c2 04 00	 ret	 4
??4?$_Temp_iterator@ULink@BoxSpace@@@std@@QAEAAV01@ABV01@@Z ENDP ; std::_Temp_iterator<BoxSpace::Link>::operator=
_TEXT	ENDS
PUBLIC	??$_Advance@PAULink@BoxSpace@@H@std@@YAXAAPAULink@BoxSpace@@HUrandom_access_iterator_tag@0@@Z ; std::_Advance<BoxSpace::Link *,int>
; Function compile flags: /Ogsp
; File c:\program files (x86)\microsoft visual studio 10.0\vc\include\xutility
;	COMDAT ??$_Advance@PAULink@BoxSpace@@H@std@@YAXAAPAULink@BoxSpace@@HUrandom_access_iterator_tag@0@@Z
_TEXT	SEGMENT
__Where$ = 8						; size = 4
__Off$ = 12						; size = 4
___formal$ = 16						; size = 1
??$_Advance@PAULink@BoxSpace@@H@std@@YAXAAPAULink@BoxSpace@@HUrandom_access_iterator_tag@0@@Z PROC ; std::_Advance<BoxSpace::Link *,int>, COMDAT

; 840  : 	{	// increment iterator by offset, random-access iterators

  00000	55		 push	 ebp
  00001	8b ec		 mov	 ebp, esp

; 841  : 	_Where += _Off;

  00003	8b 4d 0c	 mov	 ecx, DWORD PTR __Off$[ebp]
  00006	8b 45 08	 mov	 eax, DWORD PTR __Where$[ebp]
  00009	c1 e1 05	 shl	 ecx, 5
  0000c	01 08		 add	 DWORD PTR [eax], ecx

; 842  : 	}

  0000e	5d		 pop	 ebp
  0000f	c3		 ret	 0
??$_Advance@PAULink@BoxSpace@@H@std@@YAXAAPAULink@BoxSpace@@HUrandom_access_iterator_tag@0@@Z ENDP ; std::_Advance<BoxSpace::Link *,int>
_TEXT	ENDS
PUBLIC	??$forward@ULink@BoxSpace@@@std@@YA$$QAULink@BoxSpace@@AAU12@@Z ; std::forward<BoxSpace::Link>
; Function compile flags: /Ogsp
; File c:\program files (x86)\microsoft visual studio 10.0\vc\include\utility
;	COMDAT ??$forward@ULink@BoxSpace@@@std@@YA$$QAULink@BoxSpace@@AAU12@@Z
_TEXT	SEGMENT
__Arg$ = 8						; size = 4
??$forward@ULink@BoxSpace@@@std@@YA$$QAULink@BoxSpace@@AAU12@@Z PROC ; std::forward<BoxSpace::Link>, COMDAT

; 78   : 	{	// forward _Arg, given explicitly specified type parameter

  00000	55		 push	 ebp
  00001	8b ec		 mov	 ebp, esp

; 79   : 	return ((_Ty&&)_Arg);

  00003	8b 45 08	 mov	 eax, DWORD PTR __Arg$[ebp]

; 80   : 	}

  00006	5d		 pop	 ebp
  00007	c3		 ret	 0
??$forward@ULink@BoxSpace@@@std@@YA$$QAULink@BoxSpace@@AAU12@@Z ENDP ; std::forward<BoxSpace::Link>
_TEXT	ENDS
PUBLIC	??$forward@UBox@BoxSpace@@@std@@YA$$QAUBox@BoxSpace@@AAU12@@Z ; std::forward<BoxSpace::Box>
; Function compile flags: /Ogsp
;	COMDAT ??$forward@UBox@BoxSpace@@@std@@YA$$QAUBox@BoxSpace@@AAU12@@Z
_TEXT	SEGMENT
__Arg$ = 8						; size = 4
??$forward@UBox@BoxSpace@@@std@@YA$$QAUBox@BoxSpace@@AAU12@@Z PROC ; std::forward<BoxSpace::Box>, COMDAT

; 78   : 	{	// forward _Arg, given explicitly specified type parameter

  00000	55		 push	 ebp
  00001	8b ec		 mov	 ebp, esp

; 79   : 	return ((_Ty&&)_Arg);

  00003	8b 45 08	 mov	 eax, DWORD PTR __Arg$[ebp]

; 80   : 	}

  00006	5d		 pop	 ebp
  00007	c3		 ret	 0
??$forward@UBox@BoxSpace@@@std@@YA$$QAUBox@BoxSpace@@AAU12@@Z ENDP ; std::forward<BoxSpace::Box>
_TEXT	ENDS
PUBLIC	??$_Ptr_cat@V?$_Vector_const_iterator@V?$_Vector_val@ULink@BoxSpace@@V?$allocator@ULink@BoxSpace@@@std@@@std@@@std@@PAULink@BoxSpace@@@std@@YA?AU_Nonscalar_ptr_iterator_tag@0@AAV?$_Vector_const_iterator@V?$_Vector_val@ULink@BoxSpace@@V?$allocator@ULink@BoxSpace@@@std@@@std@@@0@AAPAULink@BoxSpace@@@Z ; std::_Ptr_cat<std::_Vector_const_iterator<std::_Vector_val<BoxSpace::Link,std::allocator<BoxSpace::Link> > >,BoxSpace::Link *>
; Function compile flags: /Ogsp
; File c:\program files (x86)\microsoft visual studio 10.0\vc\include\xutility
;	COMDAT ??$_Ptr_cat@V?$_Vector_const_iterator@V?$_Vector_val@ULink@BoxSpace@@V?$allocator@ULink@BoxSpace@@@std@@@std@@@std@@PAULink@BoxSpace@@@std@@YA?AU_Nonscalar_ptr_iterator_tag@0@AAV?$_Vector_const_iterator@V?$_Vector_val@ULink@BoxSpace@@V?$allocator@ULink@BoxSpace@@@std@@@std@@@0@AAPAULink@BoxSpace@@@Z
_TEXT	SEGMENT
__Cat$ = -1						; size = 1
___formal$ = 8						; size = 4
___formal$ = 12						; size = 4
??$_Ptr_cat@V?$_Vector_const_iterator@V?$_Vector_val@ULink@BoxSpace@@V?$allocator@ULink@BoxSpace@@@std@@@std@@@std@@PAULink@BoxSpace@@@std@@YA?AU_Nonscalar_ptr_iterator_tag@0@AAV?$_Vector_const_iterator@V?$_Vector_val@ULink@BoxSpace@@V?$allocator@ULink@BoxSpace@@@std@@@std@@@0@AAPAULink@BoxSpace@@@Z PROC ; std::_Ptr_cat<std::_Vector_const_iterator<std::_Vector_val<BoxSpace::Link,std::allocator<BoxSpace::Link> > >,BoxSpace::Link *>, COMDAT

; 485  : 	{	// return pointer category from arbitrary arguments

  00000	55		 push	 ebp
  00001	8b ec		 mov	 ebp, esp
  00003	51		 push	 ecx

; 486  : 	_Nonscalar_ptr_iterator_tag _Cat;
; 487  : 	return (_Cat);

  00004	8a 45 ff	 mov	 al, BYTE PTR __Cat$[ebp]

; 488  : 	}

  00007	c9		 leave
  00008	c3		 ret	 0
??$_Ptr_cat@V?$_Vector_const_iterator@V?$_Vector_val@ULink@BoxSpace@@V?$allocator@ULink@BoxSpace@@@std@@@std@@@std@@PAULink@BoxSpace@@@std@@YA?AU_Nonscalar_ptr_iterator_tag@0@AAV?$_Vector_const_iterator@V?$_Vector_val@ULink@BoxSpace@@V?$allocator@ULink@BoxSpace@@@std@@@std@@@0@AAPAULink@BoxSpace@@@Z ENDP ; std::_Ptr_cat<std::_Vector_const_iterator<std::_Vector_val<BoxSpace::Link,std::allocator<BoxSpace::Link> > >,BoxSpace::Link *>
_TEXT	ENDS
PUBLIC	??$_Move@AAULink@BoxSpace@@@std@@YA$$QAULink@BoxSpace@@AAU12@@Z ; std::_Move<BoxSpace::Link &>
; Function compile flags: /Ogsp
; File c:\program files (x86)\microsoft visual studio 10.0\vc\include\utility
;	COMDAT ??$_Move@AAULink@BoxSpace@@@std@@YA$$QAULink@BoxSpace@@AAU12@@Z
_TEXT	SEGMENT
__Arg$ = 8						; size = 4
??$_Move@AAULink@BoxSpace@@@std@@YA$$QAULink@BoxSpace@@AAU12@@Z PROC ; std::_Move<BoxSpace::Link &>, COMDAT

; 94   : 	{	// forward _Arg as movable

  00000	55		 push	 ebp
  00001	8b ec		 mov	 ebp, esp

; 95   : 	return ((typename tr1::_Remove_reference<_Ty>::_Type&&)_Arg);

  00003	8b 45 08	 mov	 eax, DWORD PTR __Arg$[ebp]

; 96   : 	}

  00006	5d		 pop	 ebp
  00007	c3		 ret	 0
??$_Move@AAULink@BoxSpace@@@std@@YA$$QAULink@BoxSpace@@AAU12@@Z ENDP ; std::_Move<BoxSpace::Link &>
_TEXT	ENDS
PUBLIC	??$swap@ULink@BoxSpace@@@std@@YAXAAULink@BoxSpace@@0@Z ; std::swap<BoxSpace::Link>
; Function compile flags: /Ogsp
;	COMDAT ??$swap@ULink@BoxSpace@@@std@@YAXAAULink@BoxSpace@@0@Z
_TEXT	SEGMENT
__Tmp$ = -32						; size = 32
__Left$ = 8						; size = 4
__Right$ = 12						; size = 4
??$swap@ULink@BoxSpace@@@std@@YAXAAULink@BoxSpace@@0@Z PROC ; std::swap<BoxSpace::Link>, COMDAT

; 101  : 	{	// exchange values stored at _Left and _Right

  00000	55		 push	 ebp
  00001	8b ec		 mov	 ebp, esp
  00003	83 ec 20	 sub	 esp, 32			; 00000020H
  00006	56		 push	 esi

; 102  : 	_Ty _Tmp = _Move(_Left);

  00007	8b 75 08	 mov	 esi, DWORD PTR __Left$[ebp]
  0000a	57		 push	 edi
  0000b	6a 08		 push	 8
  0000d	59		 pop	 ecx

; 103  : 	_Left = _Move(_Right);

  0000e	6a 08		 push	 8
  00010	8d 7d e0	 lea	 edi, DWORD PTR __Tmp$[ebp]
  00013	f3 a5		 rep movsd
  00015	8b 75 0c	 mov	 esi, DWORD PTR __Right$[ebp]
  00018	8b 7d 08	 mov	 edi, DWORD PTR __Left$[ebp]
  0001b	59		 pop	 ecx
  0001c	f3 a5		 rep movsd

; 104  : 	_Right = _Move(_Tmp);

  0001e	8b 7d 0c	 mov	 edi, DWORD PTR __Right$[ebp]
  00021	6a 08		 push	 8
  00023	59		 pop	 ecx
  00024	8d 75 e0	 lea	 esi, DWORD PTR __Tmp$[ebp]
  00027	f3 a5		 rep movsd
  00029	5f		 pop	 edi
  0002a	5e		 pop	 esi

; 105  : 	}

  0002b	c9		 leave
  0002c	c3		 ret	 0
??$swap@ULink@BoxSpace@@@std@@YAXAAULink@BoxSpace@@0@Z ENDP ; std::swap<BoxSpace::Link>
_TEXT	ENDS
PUBLIC	??$_Ptr_cat@PAULink@BoxSpace@@V?$_Temp_iterator@ULink@BoxSpace@@@std@@@std@@YA?AU_Nonscalar_ptr_iterator_tag@0@AAPAULink@BoxSpace@@AAV?$_Temp_iterator@ULink@BoxSpace@@@0@@Z ; std::_Ptr_cat<BoxSpace::Link *,std::_Temp_iterator<BoxSpace::Link> >
; Function compile flags: /Ogsp
; File c:\program files (x86)\microsoft visual studio 10.0\vc\include\xutility
;	COMDAT ??$_Ptr_cat@PAULink@BoxSpace@@V?$_Temp_iterator@ULink@BoxSpace@@@std@@@std@@YA?AU_Nonscalar_ptr_iterator_tag@0@AAPAULink@BoxSpace@@AAV?$_Temp_iterator@ULink@BoxSpace@@@0@@Z
_TEXT	SEGMENT
__Cat$ = -1						; size = 1
___formal$ = 8						; size = 4
___formal$ = 12						; size = 4
??$_Ptr_cat@PAULink@BoxSpace@@V?$_Temp_iterator@ULink@BoxSpace@@@std@@@std@@YA?AU_Nonscalar_ptr_iterator_tag@0@AAPAULink@BoxSpace@@AAV?$_Temp_iterator@ULink@BoxSpace@@@0@@Z PROC ; std::_Ptr_cat<BoxSpace::Link *,std::_Temp_iterator<BoxSpace::Link> >, COMDAT

; 485  : 	{	// return pointer category from arbitrary arguments

  00000	55		 push	 ebp
  00001	8b ec		 mov	 ebp, esp
  00003	51		 push	 ecx

; 486  : 	_Nonscalar_ptr_iterator_tag _Cat;
; 487  : 	return (_Cat);

  00004	8a 45 ff	 mov	 al, BYTE PTR __Cat$[ebp]

; 488  : 	}

  00007	c9		 leave
  00008	c3		 ret	 0
??$_Ptr_cat@PAULink@BoxSpace@@V?$_Temp_iterator@ULink@BoxSpace@@@std@@@std@@YA?AU_Nonscalar_ptr_iterator_tag@0@AAPAULink@BoxSpace@@AAV?$_Temp_iterator@ULink@BoxSpace@@@0@@Z ENDP ; std::_Ptr_cat<BoxSpace::Link *,std::_Temp_iterator<BoxSpace::Link> >
_TEXT	ENDS
PUBLIC	??$_Unchecked@PAULink@BoxSpace@@@std@@YAPAULink@BoxSpace@@PAU12@@Z ; std::_Unchecked<BoxSpace::Link *>
; Function compile flags: /Ogsp
;	COMDAT ??$_Unchecked@PAULink@BoxSpace@@@std@@YAPAULink@BoxSpace@@PAU12@@Z
_TEXT	SEGMENT
__Src$ = 8						; size = 4
??$_Unchecked@PAULink@BoxSpace@@@std@@YAPAULink@BoxSpace@@PAU12@@Z PROC ; std::_Unchecked<BoxSpace::Link *>, COMDAT

; 266  : 	{	// construct unchecked from checked, generic

  00000	55		 push	 ebp
  00001	8b ec		 mov	 ebp, esp

; 267  : 	return (_Src);

  00003	8b 45 08	 mov	 eax, DWORD PTR __Src$[ebp]

; 268  : 	}

  00006	5d		 pop	 ebp
  00007	c3		 ret	 0
??$_Unchecked@PAULink@BoxSpace@@@std@@YAPAULink@BoxSpace@@PAU12@@Z ENDP ; std::_Unchecked<BoxSpace::Link *>
_TEXT	ENDS
PUBLIC	??$_Dist_type@PAULink@BoxSpace@@@std@@YAPAHPAULink@BoxSpace@@@Z ; std::_Dist_type<BoxSpace::Link *>
; Function compile flags: /Ogsp
;	COMDAT ??$_Dist_type@PAULink@BoxSpace@@@std@@YAPAHPAULink@BoxSpace@@@Z
_TEXT	SEGMENT
___formal$ = 8						; size = 4
??$_Dist_type@PAULink@BoxSpace@@@std@@YAPAHPAULink@BoxSpace@@@Z PROC ; std::_Dist_type<BoxSpace::Link *>, COMDAT

; 850  : 	return (0);

  00000	33 c0		 xor	 eax, eax

; 851  : 	}

  00002	c3		 ret	 0
??$_Dist_type@PAULink@BoxSpace@@@std@@YAPAHPAULink@BoxSpace@@@Z ENDP ; std::_Dist_type<BoxSpace::Link *>
_TEXT	ENDS
PUBLIC	??$_Rechecked@PAULink@BoxSpace@@PAU12@@std@@YAAAPAULink@BoxSpace@@AAPAU12@PAU12@@Z ; std::_Rechecked<BoxSpace::Link *,BoxSpace::Link *>
; Function compile flags: /Ogsp
;	COMDAT ??$_Rechecked@PAULink@BoxSpace@@PAU12@@std@@YAAAPAULink@BoxSpace@@AAPAU12@PAU12@@Z
_TEXT	SEGMENT
__Dest$ = 8						; size = 4
__Src$ = 12						; size = 4
??$_Rechecked@PAULink@BoxSpace@@PAU12@@std@@YAAAPAULink@BoxSpace@@AAPAU12@PAU12@@Z PROC ; std::_Rechecked<BoxSpace::Link *,BoxSpace::Link *>, COMDAT

; 274  : 	{	// reset checked from unchecked, generic

  00000	55		 push	 ebp
  00001	8b ec		 mov	 ebp, esp

; 275  : 	_Dest = _Src;

  00003	8b 45 08	 mov	 eax, DWORD PTR __Dest$[ebp]
  00006	8b 4d 0c	 mov	 ecx, DWORD PTR __Src$[ebp]
  00009	89 08		 mov	 DWORD PTR [eax], ecx

; 276  : 	return (_Dest);
; 277  : 	}

  0000b	5d		 pop	 ebp
  0000c	c3		 ret	 0
??$_Rechecked@PAULink@BoxSpace@@PAU12@@std@@YAAAPAULink@BoxSpace@@AAPAU12@PAU12@@Z ENDP ; std::_Rechecked<BoxSpace::Link *,BoxSpace::Link *>
_TEXT	ENDS
PUBLIC	??$forward@AAPAULink@BoxSpace@@@std@@YAAAPAULink@BoxSpace@@AAPAU12@@Z ; std::forward<BoxSpace::Link * &>
; Function compile flags: /Ogsp
; File c:\program files (x86)\microsoft visual studio 10.0\vc\include\utility
;	COMDAT ??$forward@AAPAULink@BoxSpace@@@std@@YAAAPAULink@BoxSpace@@AAPAU12@@Z
_TEXT	SEGMENT
__Arg$ = 8						; size = 4
??$forward@AAPAULink@BoxSpace@@@std@@YAAAPAULink@BoxSpace@@AAPAU12@@Z PROC ; std::forward<BoxSpace::Link * &>, COMDAT

; 78   : 	{	// forward _Arg, given explicitly specified type parameter

  00000	55		 push	 ebp
  00001	8b ec		 mov	 ebp, esp

; 79   : 	return ((_Ty&&)_Arg);

  00003	8b 45 08	 mov	 eax, DWORD PTR __Arg$[ebp]

; 80   : 	}

  00006	5d		 pop	 ebp
  00007	c3		 ret	 0
??$forward@AAPAULink@BoxSpace@@@std@@YAAAPAULink@BoxSpace@@AAPAU12@@Z ENDP ; std::forward<BoxSpace::Link * &>
_TEXT	ENDS
PUBLIC	??D?$_Temp_iterator@ULink@BoxSpace@@@std@@QAEAAV01@XZ ; std::_Temp_iterator<BoxSpace::Link>::operator*
; Function compile flags: /Ogsp
; File c:\program files (x86)\microsoft visual studio 10.0\vc\include\memory
;	COMDAT ??D?$_Temp_iterator@ULink@BoxSpace@@@std@@QAEAAV01@XZ
_TEXT	SEGMENT
??D?$_Temp_iterator@ULink@BoxSpace@@@std@@QAEAAV01@XZ PROC ; std::_Temp_iterator<BoxSpace::Link>::operator*, COMDAT
; _this$ = ecx

; 790  : 		{	// pretend to return designated value

  00000	8b c1		 mov	 eax, ecx

; 791  : 		return (*this);
; 792  : 		}

  00002	c3		 ret	 0
??D?$_Temp_iterator@ULink@BoxSpace@@@std@@QAEAAV01@XZ ENDP ; std::_Temp_iterator<BoxSpace::Link>::operator*
_TEXT	ENDS
PUBLIC	??E?$_Temp_iterator@ULink@BoxSpace@@@std@@QAEAAV01@XZ ; std::_Temp_iterator<BoxSpace::Link>::operator++
; Function compile flags: /Ogsp
;	COMDAT ??E?$_Temp_iterator@ULink@BoxSpace@@@std@@QAEAAV01@XZ
_TEXT	SEGMENT
??E?$_Temp_iterator@ULink@BoxSpace@@@std@@QAEAAV01@XZ PROC ; std::_Temp_iterator<BoxSpace::Link>::operator++, COMDAT
; _this$ = ecx

; 795  : 		{	// pretend to preincrement

  00000	8b c1		 mov	 eax, ecx

; 796  : 		return (*this);
; 797  : 		}

  00002	c3		 ret	 0
??E?$_Temp_iterator@ULink@BoxSpace@@@std@@QAEAAV01@XZ ENDP ; std::_Temp_iterator<BoxSpace::Link>::operator++
_TEXT	ENDS
PUBLIC	??$move@AAULink@BoxSpace@@@std@@YA$$QAULink@BoxSpace@@AAU12@@Z ; std::move<BoxSpace::Link &>
; Function compile flags: /Ogsp
; File c:\program files (x86)\microsoft visual studio 10.0\vc\include\utility
;	COMDAT ??$move@AAULink@BoxSpace@@@std@@YA$$QAULink@BoxSpace@@AAU12@@Z
_TEXT	SEGMENT
__Arg$ = 8						; size = 4
??$move@AAULink@BoxSpace@@@std@@YA$$QAULink@BoxSpace@@AAU12@@Z PROC ; std::move<BoxSpace::Link &>, COMDAT

; 86   : 	{	// forward _Arg as movable

  00000	55		 push	 ebp
  00001	8b ec		 mov	 ebp, esp

; 87   : 	return ((typename tr1::_Remove_reference<_Ty>::_Type&&)_Arg);

  00003	8b 45 08	 mov	 eax, DWORD PTR __Arg$[ebp]

; 88   : 	}

  00006	5d		 pop	 ebp
  00007	c3		 ret	 0
??$move@AAULink@BoxSpace@@@std@@YA$$QAULink@BoxSpace@@AAU12@@Z ENDP ; std::move<BoxSpace::Link &>
_TEXT	ENDS
PUBLIC	??$distance@PAULink@BoxSpace@@@std@@YAHPAULink@BoxSpace@@0@Z ; std::distance<BoxSpace::Link *>
; Function compile flags: /Ogsp
; File c:\program files (x86)\microsoft visual studio 10.0\vc\include\xutility
;	COMDAT ??$distance@PAULink@BoxSpace@@@std@@YAHPAULink@BoxSpace@@0@Z
_TEXT	SEGMENT
__First$ = 8						; size = 4
__Last$ = 12						; size = 4
??$distance@PAULink@BoxSpace@@@std@@YAHPAULink@BoxSpace@@0@Z PROC ; std::distance<BoxSpace::Link *>, COMDAT

; 900  : 	{	// return distance between iterators

  00000	55		 push	 ebp
  00001	8b ec		 mov	 ebp, esp

; 901  : 	typename iterator_traits<_InIt>::difference_type _Off = 0;
; 902  : 	_Distance2(_First, _Last, _Off, _Iter_cat(_First));

  00003	8b 45 0c	 mov	 eax, DWORD PTR __Last$[ebp]
  00006	2b 45 08	 sub	 eax, DWORD PTR __First$[ebp]
  00009	c1 f8 05	 sar	 eax, 5

; 903  : 	return (_Off);
; 904  : 	}

  0000c	5d		 pop	 ebp
  0000d	c3		 ret	 0
??$distance@PAULink@BoxSpace@@@std@@YAHPAULink@BoxSpace@@0@Z ENDP ; std::distance<BoxSpace::Link *>
_TEXT	ENDS
PUBLIC	??$_Construct@ULink@BoxSpace@@U12@@std@@YAXPAULink@BoxSpace@@$$QAU12@@Z ; std::_Construct<BoxSpace::Link,BoxSpace::Link>
; Function compile flags: /Ogsp
; File c:\program files (x86)\microsoft visual studio 10.0\vc\include\xmemory
;	COMDAT ??$_Construct@ULink@BoxSpace@@U12@@std@@YAXPAULink@BoxSpace@@$$QAU12@@Z
_TEXT	SEGMENT
__Ptr$ = 8						; size = 4
__Val$ = 12						; size = 4
??$_Construct@ULink@BoxSpace@@U12@@std@@YAXPAULink@BoxSpace@@$$QAU12@@Z PROC ; std::_Construct<BoxSpace::Link,BoxSpace::Link>, COMDAT

; 46   : 	{	// construct object at _Ptr with value _Val

  00000	55		 push	 ebp
  00001	8b ec		 mov	 ebp, esp
  00003	57		 push	 edi

; 47   : 	void _FARQ *_Vptr = _Ptr;
; 48   : 	::new (_Vptr) _Ty1(_STD forward<_Ty2>(_Val));

  00004	8b 7d 08	 mov	 edi, DWORD PTR __Ptr$[ebp]
  00007	85 ff		 test	 edi, edi
  00009	74 0a		 je	 SHORT $LN3@Construct@4
  0000b	56		 push	 esi
  0000c	8b 75 0c	 mov	 esi, DWORD PTR __Val$[ebp]
  0000f	6a 08		 push	 8
  00011	59		 pop	 ecx
  00012	f3 a5		 rep movsd
  00014	5e		 pop	 esi
$LN3@Construct@4:
  00015	5f		 pop	 edi

; 49   : 	}

  00016	5d		 pop	 ebp
  00017	c3		 ret	 0
??$_Construct@ULink@BoxSpace@@U12@@std@@YAXPAULink@BoxSpace@@$$QAU12@@Z ENDP ; std::_Construct<BoxSpace::Link,BoxSpace::Link>
_TEXT	ENDS
PUBLIC	??0D3DXVECTOR3@@QAE@XZ				; D3DXVECTOR3::D3DXVECTOR3
; Function compile flags: /Ogsp
; File c:\program files (x86)\microsoft directx sdk (june 2010)\include\d3dx9math.h
;	COMDAT ??0D3DXVECTOR3@@QAE@XZ
_TEXT	SEGMENT
??0D3DXVECTOR3@@QAE@XZ PROC				; D3DXVECTOR3::D3DXVECTOR3, COMDAT
; _this$ = ecx

; 165  :     D3DXVECTOR3() {};

  00000	8b c1		 mov	 eax, ecx
  00002	c3		 ret	 0
??0D3DXVECTOR3@@QAE@XZ ENDP				; D3DXVECTOR3::D3DXVECTOR3
_TEXT	ENDS
PUBLIC	?isGoal@BoxSpace@@AAE_NPAXPAUBox@1@@Z		; BoxSpace::isGoal
; Function compile flags: /Ogsp
; File d:\lost saga for developer\youtube\tutorial\source\src\lsclient\boxgraph.h
;	COMDAT ?isGoal@BoxSpace@@AAE_NPAXPAUBox@1@@Z
_TEXT	SEGMENT
_pCaller$ = 8						; size = 4
_pNode$ = 12						; size = 4
?isGoal@BoxSpace@@AAE_NPAXPAUBox@1@@Z PROC		; BoxSpace::isGoal, COMDAT
; _this$ = ecx

; 118  : 	inline bool  isGoal( void* pCaller, Box* pNode )									{ return pNode == m_pGoal; }

  00000	55		 push	 ebp
  00001	8b ec		 mov	 ebp, esp
  00003	8b 55 0c	 mov	 edx, DWORD PTR _pNode$[ebp]
  00006	33 c0		 xor	 eax, eax
  00008	3b 51 54	 cmp	 edx, DWORD PTR [ecx+84]
  0000b	0f 94 c0	 sete	 al
  0000e	5d		 pop	 ebp
  0000f	c2 08 00	 ret	 8
?isGoal@BoxSpace@@AAE_NPAXPAUBox@1@@Z ENDP		; BoxSpace::isGoal
_TEXT	ENDS
PUBLIC	?setInfo@BoxSpace@@AAEXPAXPAUBox@1@0@Z		; BoxSpace::setInfo
; Function compile flags: /Ogsp
;	COMDAT ?setInfo@BoxSpace@@AAEXPAXPAUBox@1@0@Z
_TEXT	SEGMENT
_pCaller$ = 8						; size = 4
_pNode$ = 12						; size = 4
_ptr$ = 16						; size = 4
?setInfo@BoxSpace@@AAEXPAXPAUBox@1@0@Z PROC		; BoxSpace::setInfo, COMDAT
; _this$ = ecx

; 119  : 	inline void  setInfo( void* pCaller, Box* pNode, void* ptr )						{ pNode->pAStarInfo = ptr; }

  00000	55		 push	 ebp
  00001	8b ec		 mov	 ebp, esp
  00003	8b 45 10	 mov	 eax, DWORD PTR _ptr$[ebp]
  00006	8b 4d 0c	 mov	 ecx, DWORD PTR _pNode$[ebp]
  00009	89 41 54	 mov	 DWORD PTR [ecx+84], eax
  0000c	5d		 pop	 ebp
  0000d	c2 0c 00	 ret	 12			; 0000000cH
?setInfo@BoxSpace@@AAEXPAXPAUBox@1@0@Z ENDP		; BoxSpace::setInfo
_TEXT	ENDS
PUBLIC	?getInfo@BoxSpace@@AAEPAXPAXPAUBox@1@@Z		; BoxSpace::getInfo
; Function compile flags: /Ogsp
;	COMDAT ?getInfo@BoxSpace@@AAEPAXPAXPAUBox@1@@Z
_TEXT	SEGMENT
_pCaller$ = 8						; size = 4
_pNode$ = 12						; size = 4
?getInfo@BoxSpace@@AAEPAXPAXPAUBox@1@@Z PROC		; BoxSpace::getInfo, COMDAT
; _this$ = ecx

; 120  : 	inline void* getInfo( void* pCaller, Box* pNode )									{ return pNode->pAStarInfo; }

  00000	55		 push	 ebp
  00001	8b ec		 mov	 ebp, esp
  00003	8b 45 0c	 mov	 eax, DWORD PTR _pNode$[ebp]
  00006	8b 40 54	 mov	 eax, DWORD PTR [eax+84]
  00009	5d		 pop	 ebp
  0000a	c2 08 00	 ret	 8
?getInfo@BoxSpace@@AAEPAXPAXPAUBox@1@@Z ENDP		; BoxSpace::getInfo
_TEXT	ENDS
PUBLIC	?size@?$basic_string@DU?$char_traits@D@std@@V?$allocator@D@2@@std@@QBEIXZ ; std::basic_string<char,std::char_traits<char>,std::allocator<char> >::size
; Function compile flags: /Ogsp
; File c:\program files (x86)\microsoft visual studio 10.0\vc\include\xstring
;	COMDAT ?size@?$basic_string@DU?$char_traits@D@std@@V?$allocator@D@2@@std@@QBEIXZ
_TEXT	SEGMENT
?size@?$basic_string@DU?$char_traits@D@std@@V?$allocator@D@2@@std@@QBEIXZ PROC ; std::basic_string<char,std::char_traits<char>,std::allocator<char> >::size, COMDAT
; _this$ = ecx

; 1512 : 		return (this->_Mysize);

  00000	8b 41 10	 mov	 eax, DWORD PTR [ecx+16]

; 1513 : 		}

  00003	c3		 ret	 0
?size@?$basic_string@DU?$char_traits@D@std@@V?$allocator@D@2@@std@@QBEIXZ ENDP ; std::basic_string<char,std::char_traits<char>,std::allocator<char> >::size
_TEXT	ENDS
PUBLIC	?size@?$vector@UBox@BoxSpace@@V?$allocator@UBox@BoxSpace@@@std@@@std@@QBEIXZ ; std::vector<BoxSpace::Box,std::allocator<BoxSpace::Box> >::size
; Function compile flags: /Ogsp
; File c:\program files (x86)\microsoft visual studio 10.0\vc\include\vector
;	COMDAT ?size@?$vector@UBox@BoxSpace@@V?$allocator@UBox@BoxSpace@@@std@@@std@@QBEIXZ
_TEXT	SEGMENT
?size@?$vector@UBox@BoxSpace@@V?$allocator@UBox@BoxSpace@@@std@@@std@@QBEIXZ PROC ; std::vector<BoxSpace::Box,std::allocator<BoxSpace::Box> >::size, COMDAT
; _this$ = ecx

; 879  : 		return (this->_Mylast - this->_Myfirst);

  00000	8b 41 04	 mov	 eax, DWORD PTR [ecx+4]
  00003	2b 01		 sub	 eax, DWORD PTR [ecx]
  00005	6a 58		 push	 88			; 00000058H
  00007	99		 cdq
  00008	59		 pop	 ecx
  00009	f7 f9		 idiv	 ecx

; 880  : 		}

  0000b	c3		 ret	 0
?size@?$vector@UBox@BoxSpace@@V?$allocator@UBox@BoxSpace@@@std@@@std@@QBEIXZ ENDP ; std::vector<BoxSpace::Box,std::allocator<BoxSpace::Box> >::size
_TEXT	ENDS
PUBLIC	??A?$vector@UBox@BoxSpace@@V?$allocator@UBox@BoxSpace@@@std@@@std@@QBEABUBox@BoxSpace@@I@Z ; std::vector<BoxSpace::Box,std::allocator<BoxSpace::Box> >::operator[]
; Function compile flags: /Ogsp
;	COMDAT ??A?$vector@UBox@BoxSpace@@V?$allocator@UBox@BoxSpace@@@std@@@std@@QBEABUBox@BoxSpace@@I@Z
_TEXT	SEGMENT
__Pos$ = 8						; size = 4
??A?$vector@UBox@BoxSpace@@V?$allocator@UBox@BoxSpace@@@std@@@std@@QBEABUBox@BoxSpace@@I@Z PROC ; std::vector<BoxSpace::Box,std::allocator<BoxSpace::Box> >::operator[], COMDAT
; _this$ = ecx

; 912  : 		{	// subscript nonmutable sequence

  00000	55		 push	 ebp
  00001	8b ec		 mov	 ebp, esp

; 913  :  #if _ITERATOR_DEBUG_LEVEL == 2
; 914  : 		if (size() <= _Pos)
; 915  : 			{	// report error
; 916  : 			_DEBUG_ERROR("vector subscript out of range");
; 917  : 			_SCL_SECURE_OUT_OF_RANGE;
; 918  : 			}
; 919  : 
; 920  :  #elif _ITERATOR_DEBUG_LEVEL == 1
; 921  : 		_SCL_SECURE_VALIDATE_RANGE(_Pos < size());
; 922  :  #endif /* _ITERATOR_DEBUG_LEVEL */
; 923  : 
; 924  : 		return (*(this->_Myfirst + _Pos));

  00003	8b 45 08	 mov	 eax, DWORD PTR __Pos$[ebp]
  00006	6b c0 58	 imul	 eax, 88			; 00000058H
  00009	03 01		 add	 eax, DWORD PTR [ecx]

; 925  : 		}

  0000b	5d		 pop	 ebp
  0000c	c2 04 00	 ret	 4
??A?$vector@UBox@BoxSpace@@V?$allocator@UBox@BoxSpace@@@std@@@std@@QBEABUBox@BoxSpace@@I@Z ENDP ; std::vector<BoxSpace::Box,std::allocator<BoxSpace::Box> >::operator[]
_TEXT	ENDS
PUBLIC	?_Myptr@?$basic_string@DU?$char_traits@D@std@@V?$allocator@D@2@@std@@QBEPBDXZ ; std::basic_string<char,std::char_traits<char>,std::allocator<char> >::_Myptr
; Function compile flags: /Ogsp
; File c:\program files (x86)\microsoft visual studio 10.0\vc\include\xstring
;	COMDAT ?_Myptr@?$basic_string@DU?$char_traits@D@std@@V?$allocator@D@2@@std@@QBEPBDXZ
_TEXT	SEGMENT
?_Myptr@?$basic_string@DU?$char_traits@D@std@@V?$allocator@D@2@@std@@QBEPBDXZ PROC ; std::basic_string<char,std::char_traits<char>,std::allocator<char> >::_Myptr, COMDAT
; _this$ = ecx

; 2010 : 		return (this->_BUF_SIZE <= this->_Myres ? this->_Bx._Ptr
; 2011 : 			: this->_Bx._Buf);

  00000	83 79 14 10	 cmp	 DWORD PTR [ecx+20], 16	; 00000010H
  00004	72 03		 jb	 SHORT $LN3@Myptr
  00006	8b 01		 mov	 eax, DWORD PTR [ecx]

; 2012 : 		}

  00008	c3		 ret	 0
$LN3@Myptr:

; 2010 : 		return (this->_BUF_SIZE <= this->_Myres ? this->_Bx._Ptr
; 2011 : 			: this->_Bx._Buf);

  00009	8b c1		 mov	 eax, ecx

; 2012 : 		}

  0000b	c3		 ret	 0
?_Myptr@?$basic_string@DU?$char_traits@D@std@@V?$allocator@D@2@@std@@QBEPBDXZ ENDP ; std::basic_string<char,std::char_traits<char>,std::allocator<char> >::_Myptr
_TEXT	ENDS
PUBLIC	??1?$_String_val@DV?$allocator@D@std@@@std@@QAE@XZ ; std::_String_val<char,std::allocator<char> >::~_String_val<char,std::allocator<char> >
; Function compile flags: /Ogsp
;	COMDAT ??1?$_String_val@DV?$allocator@D@std@@@std@@QAE@XZ
_TEXT	SEGMENT
??1?$_String_val@DV?$allocator@D@std@@@std@@QAE@XZ PROC	; std::_String_val<char,std::allocator<char> >::~_String_val<char,std::allocator<char> >, COMDAT
; _this$ = ecx

; 459  : 		}

  00000	c3		 ret	 0
??1?$_String_val@DV?$allocator@D@std@@@std@@QAE@XZ ENDP	; std::_String_val<char,std::allocator<char> >::~_String_val<char,std::allocator<char> >
_TEXT	ENDS
PUBLIC	??0?$allocator@D@std@@QAE@XZ			; std::allocator<char>::allocator<char>
; Function compile flags: /Ogsp
; File c:\program files (x86)\microsoft visual studio 10.0\vc\include\xmemory
;	COMDAT ??0?$allocator@D@std@@QAE@XZ
_TEXT	SEGMENT
??0?$allocator@D@std@@QAE@XZ PROC			; std::allocator<char>::allocator<char>, COMDAT
; _this$ = ecx

; 161  : 	_ALLOCATOR() _THROW0()

  00000	8b c1		 mov	 eax, ecx

; 162  : 		{	// construct default allocator (do nothing)
; 163  : 		}

  00002	c3		 ret	 0
??0?$allocator@D@std@@QAE@XZ ENDP			; std::allocator<char>::allocator<char>
_TEXT	ENDS
PUBLIC	??0?$allocator@D@std@@QAE@ABV01@@Z		; std::allocator<char>::allocator<char>
; Function compile flags: /Ogsp
;	COMDAT ??0?$allocator@D@std@@QAE@ABV01@@Z
_TEXT	SEGMENT
___formal$ = 8						; size = 4
??0?$allocator@D@std@@QAE@ABV01@@Z PROC			; std::allocator<char>::allocator<char>, COMDAT
; _this$ = ecx

; 165  : 	_ALLOCATOR(const _ALLOCATOR<_Ty>&) _THROW0()

  00000	8b c1		 mov	 eax, ecx

; 166  : 		{	// construct by copying (do nothing)
; 167  : 		}

  00002	c2 04 00	 ret	 4
??0?$allocator@D@std@@QAE@ABV01@@Z ENDP			; std::allocator<char>::allocator<char>
_TEXT	ENDS
PUBLIC	?get_allocator@?$basic_string@DU?$char_traits@D@std@@V?$allocator@D@2@@std@@QBE?AV?$allocator@D@2@XZ ; std::basic_string<char,std::char_traits<char>,std::allocator<char> >::get_allocator
; Function compile flags: /Ogsp
; File c:\program files (x86)\microsoft visual studio 10.0\vc\include\xstring
;	COMDAT ?get_allocator@?$basic_string@DU?$char_traits@D@std@@V?$allocator@D@2@@std@@QBE?AV?$allocator@D@2@XZ
_TEXT	SEGMENT
___$ReturnUdt$ = 8					; size = 4
?get_allocator@?$basic_string@DU?$char_traits@D@std@@V?$allocator@D@2@@std@@QBE?AV?$allocator@D@2@XZ PROC ; std::basic_string<char,std::char_traits<char>,std::allocator<char> >::get_allocator, COMDAT
; _this$ = ecx

; 1906 : 		{	// return allocator object for values

  00000	55		 push	 ebp
  00001	8b ec		 mov	 ebp, esp

; 1907 : 		return (this->_Alval);

  00003	8b 45 08	 mov	 eax, DWORD PTR ___$ReturnUdt$[ebp]

; 1908 : 		}

  00006	5d		 pop	 ebp
  00007	c2 04 00	 ret	 4
?get_allocator@?$basic_string@DU?$char_traits@D@std@@V?$allocator@D@2@@std@@QBE?AV?$allocator@D@2@XZ ENDP ; std::basic_string<char,std::char_traits<char>,std::allocator<char> >::get_allocator
_TEXT	ENDS
PUBLIC	?_Myptr@?$basic_string@DU?$char_traits@D@std@@V?$allocator@D@2@@std@@QAEPADXZ ; std::basic_string<char,std::char_traits<char>,std::allocator<char> >::_Myptr
; Function compile flags: /Ogsp
;	COMDAT ?_Myptr@?$basic_string@DU?$char_traits@D@std@@V?$allocator@D@2@@std@@QAEPADXZ
_TEXT	SEGMENT
?_Myptr@?$basic_string@DU?$char_traits@D@std@@V?$allocator@D@2@@std@@QAEPADXZ PROC ; std::basic_string<char,std::char_traits<char>,std::allocator<char> >::_Myptr, COMDAT
; _this$ = ecx

; 2004 : 		return (this->_BUF_SIZE <= this->_Myres ? this->_Bx._Ptr
; 2005 : 			: this->_Bx._Buf);

  00000	83 79 14 10	 cmp	 DWORD PTR [ecx+20], 16	; 00000010H
  00004	72 03		 jb	 SHORT $LN3@Myptr@2
  00006	8b 01		 mov	 eax, DWORD PTR [ecx]

; 2006 : 		}

  00008	c3		 ret	 0
$LN3@Myptr@2:

; 2004 : 		return (this->_BUF_SIZE <= this->_Myres ? this->_Bx._Ptr
; 2005 : 			: this->_Bx._Buf);

  00009	8b c1		 mov	 eax, ecx

; 2006 : 		}

  0000b	c3		 ret	 0
?_Myptr@?$basic_string@DU?$char_traits@D@std@@V?$allocator@D@2@@std@@QAEPADXZ ENDP ; std::basic_string<char,std::char_traits<char>,std::allocator<char> >::_Myptr
_TEXT	ENDS
PUBLIC	??_C@_0BA@JFNIOLAK@string?5too?5long?$AA@	; `string'
PUBLIC	?_Xlen@?$basic_string@DU?$char_traits@D@std@@V?$allocator@D@2@@std@@QBEXXZ ; std::basic_string<char,std::char_traits<char>,std::allocator<char> >::_Xlen
;	COMDAT ??_C@_0BA@JFNIOLAK@string?5too?5long?$AA@
CONST	SEGMENT
??_C@_0BA@JFNIOLAK@string?5too?5long?$AA@ DB 'string too long', 00H ; `string'
; Function compile flags: /Ogsp
CONST	ENDS
;	COMDAT ?_Xlen@?$basic_string@DU?$char_traits@D@std@@V?$allocator@D@2@@std@@QBEXXZ
_TEXT	SEGMENT
?_Xlen@?$basic_string@DU?$char_traits@D@std@@V?$allocator@D@2@@std@@QBEXXZ PROC ; std::basic_string<char,std::char_traits<char>,std::allocator<char> >::_Xlen, COMDAT
; _this$ = ecx

; 2016 : 		_Xlength_error("string too long");

  00000	68 00 00 00 00	 push	 OFFSET ??_C@_0BA@JFNIOLAK@string?5too?5long?$AA@
  00005	ff 15 00 00 00
	00		 call	 DWORD PTR __imp_?_Xlength_error@std@@YAXPBD@Z
$LN4@Xlen@6:
$LN3@Xlen@6:
  0000b	cc		 int	 3
?_Xlen@?$basic_string@DU?$char_traits@D@std@@V?$allocator@D@2@@std@@QBEXXZ ENDP ; std::basic_string<char,std::char_traits<char>,std::allocator<char> >::_Xlen
_TEXT	ENDS
PUBLIC	??_C@_0BI@CFPLBAOH@invalid?5string?5position?$AA@ ; `string'
PUBLIC	?_Xran@?$basic_string@DU?$char_traits@D@std@@V?$allocator@D@2@@std@@QBEXXZ ; std::basic_string<char,std::char_traits<char>,std::allocator<char> >::_Xran
EXTRN	__imp_?_Xout_of_range@std@@YAXPBD@Z:PROC
;	COMDAT ??_C@_0BI@CFPLBAOH@invalid?5string?5position?$AA@
CONST	SEGMENT
??_C@_0BI@CFPLBAOH@invalid?5string?5position?$AA@ DB 'invalid string posi'
	DB	'tion', 00H					; `string'
; Function compile flags: /Ogsp
CONST	ENDS
;	COMDAT ?_Xran@?$basic_string@DU?$char_traits@D@std@@V?$allocator@D@2@@std@@QBEXXZ
_TEXT	SEGMENT
?_Xran@?$basic_string@DU?$char_traits@D@std@@V?$allocator@D@2@@std@@QBEXXZ PROC ; std::basic_string<char,std::char_traits<char>,std::allocator<char> >::_Xran, COMDAT
; _this$ = ecx

; 2021 : 		_Xout_of_range("invalid string position");

  00000	68 00 00 00 00	 push	 OFFSET ??_C@_0BI@CFPLBAOH@invalid?5string?5position?$AA@
  00005	ff 15 00 00 00
	00		 call	 DWORD PTR __imp_?_Xout_of_range@std@@YAXPBD@Z
$LN4@Xran:
$LN3@Xran:
  0000b	cc		 int	 3
?_Xran@?$basic_string@DU?$char_traits@D@std@@V?$allocator@D@2@@std@@QBEXXZ ENDP ; std::basic_string<char,std::char_traits<char>,std::allocator<char> >::_Xran
_TEXT	ENDS
PUBLIC	?deallocate@?$allocator@D@std@@QAEXPADI@Z	; std::allocator<char>::deallocate
; Function compile flags: /Ogsp
; File c:\program files (x86)\microsoft visual studio 10.0\vc\include\xmemory
;	COMDAT ?deallocate@?$allocator@D@std@@QAEXPADI@Z
_TEXT	SEGMENT
__Ptr$ = 8						; size = 4
___formal$ = 12						; size = 4
?deallocate@?$allocator@D@std@@QAEXPADI@Z PROC		; std::allocator<char>::deallocate, COMDAT
; _this$ = ecx

; 181  : 		{	// deallocate object at _Ptr, ignore size

  00000	55		 push	 ebp
  00001	8b ec		 mov	 ebp, esp

; 182  : 		::operator delete(_Ptr);

  00003	ff 75 08	 push	 DWORD PTR __Ptr$[ebp]
  00006	e8 00 00 00 00	 call	 ??3@YAXPAX@Z		; operator delete
  0000b	59		 pop	 ecx

; 183  : 		}

  0000c	5d		 pop	 ebp
  0000d	c2 08 00	 ret	 8
?deallocate@?$allocator@D@std@@QAEXPADI@Z ENDP		; std::allocator<char>::deallocate
_TEXT	ENDS
PUBLIC	?deallocate@?$allocator@F@std@@QAEXPAFI@Z	; std::allocator<short>::deallocate
; Function compile flags: /Ogsp
;	COMDAT ?deallocate@?$allocator@F@std@@QAEXPAFI@Z
_TEXT	SEGMENT
__Ptr$ = 8						; size = 4
___formal$ = 12						; size = 4
?deallocate@?$allocator@F@std@@QAEXPAFI@Z PROC		; std::allocator<short>::deallocate, COMDAT
; _this$ = ecx

; 181  : 		{	// deallocate object at _Ptr, ignore size

  00000	55		 push	 ebp
  00001	8b ec		 mov	 ebp, esp

; 182  : 		::operator delete(_Ptr);

  00003	ff 75 08	 push	 DWORD PTR __Ptr$[ebp]
  00006	e8 00 00 00 00	 call	 ??3@YAXPAX@Z		; operator delete
  0000b	59		 pop	 ecx

; 183  : 		}

  0000c	5d		 pop	 ebp
  0000d	c2 08 00	 ret	 8
?deallocate@?$allocator@F@std@@QAEXPAFI@Z ENDP		; std::allocator<short>::deallocate
_TEXT	ENDS
PUBLIC	?deallocate@?$allocator@UBox@BoxSpace@@@std@@QAEXPAUBox@BoxSpace@@I@Z ; std::allocator<BoxSpace::Box>::deallocate
; Function compile flags: /Ogsp
;	COMDAT ?deallocate@?$allocator@UBox@BoxSpace@@@std@@QAEXPAUBox@BoxSpace@@I@Z
_TEXT	SEGMENT
__Ptr$ = 8						; size = 4
___formal$ = 12						; size = 4
?deallocate@?$allocator@UBox@BoxSpace@@@std@@QAEXPAUBox@BoxSpace@@I@Z PROC ; std::allocator<BoxSpace::Box>::deallocate, COMDAT
; _this$ = ecx

; 181  : 		{	// deallocate object at _Ptr, ignore size

  00000	55		 push	 ebp
  00001	8b ec		 mov	 ebp, esp

; 182  : 		::operator delete(_Ptr);

  00003	ff 75 08	 push	 DWORD PTR __Ptr$[ebp]
  00006	e8 00 00 00 00	 call	 ??3@YAXPAX@Z		; operator delete
  0000b	59		 pop	 ecx

; 183  : 		}

  0000c	5d		 pop	 ebp
  0000d	c2 08 00	 ret	 8
?deallocate@?$allocator@UBox@BoxSpace@@@std@@QAEXPAUBox@BoxSpace@@I@Z ENDP ; std::allocator<BoxSpace::Box>::deallocate
_TEXT	ENDS
PUBLIC	??0TBlock@?$uni_heap@$0BE@$0IA@@@QAE@XZ		; uni_heap<20,128>::TBlock::TBlock
; Function compile flags: /Ogsp
; File d:\lost saga for developer\youtube\tutorial\source\src\lsclient\uniheap.h
;	COMDAT ??0TBlock@?$uni_heap@$0BE@$0IA@@@QAE@XZ
_TEXT	SEGMENT
??0TBlock@?$uni_heap@$0BE@$0IA@@@QAE@XZ PROC		; uni_heap<20,128>::TBlock::TBlock, COMDAT
; _this$ = ecx

; 168  : 		TBlock() {

  00000	8b c1		 mov	 eax, ecx

; 169  : 			firstFree = 0;

  00002	33 c9		 xor	 ecx, ecx
  00004	66 89 88 00 0b
	00 00		 mov	 WORD PTR [eax+2816], cx

; 170  : 			count = 0;

  0000b	66 89 88 02 0b
	00 00		 mov	 WORD PTR [eax+2818], cx

; 171  : 			for ( int i = 0; i < BLOCK_SIZE; i++ ) 

  00012	33 d2		 xor	 edx, edx
  00014	8d 88 00 0a 00
	00		 lea	 ecx, DWORD PTR [eax+2560]
  0001a	56		 push	 esi
$LL3@TBlock:

; 172  : 				freeLink[i] = i+1;

  0001b	8d 72 01	 lea	 esi, DWORD PTR [edx+1]
  0001e	66 89 31	 mov	 WORD PTR [ecx], si
  00021	42		 inc	 edx
  00022	83 c1 02	 add	 ecx, 2
  00025	81 fa 80 00 00
	00		 cmp	 edx, 128		; 00000080H
  0002b	7c ee		 jl	 SHORT $LL3@TBlock
  0002d	5e		 pop	 esi

; 173  : 		}

  0002e	c3		 ret	 0
??0TBlock@?$uni_heap@$0BE@$0IA@@@QAE@XZ ENDP		; uni_heap<20,128>::TBlock::TBlock
_TEXT	ENDS
PUBLIC	?_Inside@?$basic_string@DU?$char_traits@D@std@@V?$allocator@D@2@@std@@QAE_NPBD@Z ; std::basic_string<char,std::char_traits<char>,std::allocator<char> >::_Inside
; Function compile flags: /Ogsp
; File c:\program files (x86)\microsoft visual studio 10.0\vc\include\xstring
;	COMDAT ?_Inside@?$basic_string@DU?$char_traits@D@std@@V?$allocator@D@2@@std@@QAE_NPBD@Z
_TEXT	SEGMENT
__Ptr$ = 8						; size = 4
?_Inside@?$basic_string@DU?$char_traits@D@std@@V?$allocator@D@2@@std@@QAE_NPBD@Z PROC ; std::basic_string<char,std::char_traits<char>,std::allocator<char> >::_Inside, COMDAT
; _this$ = ecx

; 1973 : 		{	// test if _Ptr points inside string

  00000	55		 push	 ebp
  00001	8b ec		 mov	 ebp, esp

; 1974 : 		if (_Ptr == 0 || _Ptr < _Myptr() || _Myptr() + this->_Mysize <= _Ptr)

  00003	83 7d 08 00	 cmp	 DWORD PTR __Ptr$[ebp], 0
  00007	74 2c		 je	 SHORT $LN2@Inside@6
  00009	8b 51 14	 mov	 edx, DWORD PTR [ecx+20]
  0000c	83 fa 10	 cmp	 edx, 16			; 00000010H
  0000f	72 04		 jb	 SHORT $LN8@Inside@6
  00011	8b 01		 mov	 eax, DWORD PTR [ecx]
  00013	eb 02		 jmp	 SHORT $LN9@Inside@6
$LN8@Inside@6:
  00015	8b c1		 mov	 eax, ecx
$LN9@Inside@6:
  00017	39 45 08	 cmp	 DWORD PTR __Ptr$[ebp], eax
  0001a	72 19		 jb	 SHORT $LN2@Inside@6
  0001c	83 fa 10	 cmp	 edx, 16			; 00000010H
  0001f	72 04		 jb	 SHORT $LN12@Inside@6
  00021	8b 01		 mov	 eax, DWORD PTR [ecx]
  00023	eb 02		 jmp	 SHORT $LN13@Inside@6
$LN12@Inside@6:
  00025	8b c1		 mov	 eax, ecx
$LN13@Inside@6:
  00027	8b 49 10	 mov	 ecx, DWORD PTR [ecx+16]
  0002a	03 c8		 add	 ecx, eax
  0002c	3b 4d 08	 cmp	 ecx, DWORD PTR __Ptr$[ebp]
  0002f	76 04		 jbe	 SHORT $LN2@Inside@6

; 1976 : 		else
; 1977 : 			return (true);

  00031	b0 01		 mov	 al, 1
  00033	eb 02		 jmp	 SHORT $LN1@Inside@6
$LN2@Inside@6:

; 1975 : 			return (false);	// don't ask

  00035	32 c0		 xor	 al, al
$LN1@Inside@6:

; 1978 : 		}

  00037	5d		 pop	 ebp
  00038	c2 04 00	 ret	 4
?_Inside@?$basic_string@DU?$char_traits@D@std@@V?$allocator@D@2@@std@@QAE_NPBD@Z ENDP ; std::basic_string<char,std::char_traits<char>,std::allocator<char> >::_Inside
_TEXT	ENDS
PUBLIC	?get_next_occupied_index_from_block@?$uni_heap@$0BE@$0IA@@@IAEHPAUTBlock@1@H@Z ; uni_heap<20,128>::get_next_occupied_index_from_block
; Function compile flags: /Ogsp
; File d:\lost saga for developer\youtube\tutorial\source\src\lsclient\uniheap.h
;	COMDAT ?get_next_occupied_index_from_block@?$uni_heap@$0BE@$0IA@@@IAEHPAUTBlock@1@H@Z
_TEXT	SEGMENT
_block$ = 8						; size = 4
_start_index$ = 12					; size = 4
?get_next_occupied_index_from_block@?$uni_heap@$0BE@$0IA@@@IAEHPAUTBlock@1@H@Z PROC ; uni_heap<20,128>::get_next_occupied_index_from_block, COMDAT
; _this$ = ecx

; 224  : 	{

  00000	55		 push	 ebp
  00001	8b ec		 mov	 ebp, esp

; 225  : 		for (; start_index < BLOCK_SIZE; start_index++ )

  00003	8b 45 0c	 mov	 eax, DWORD PTR _start_index$[ebp]
  00006	b9 80 00 00 00	 mov	 ecx, 128		; 00000080H
  0000b	3b c1		 cmp	 eax, ecx
  0000d	7d 18		 jge	 SHORT $LN2@get_next_o
  0000f	8b 55 08	 mov	 edx, DWORD PTR _block$[ebp]
  00012	8d 94 42 00 0a
	00 00		 lea	 edx, DWORD PTR [edx+eax*2+2560]
$LL4@get_next_o:

; 226  : 			if ( block->freeLink[ start_index ] == OCCUPIED )

  00019	66 83 3a ff	 cmp	 WORD PTR [edx], -1
  0001d	74 0b		 je	 SHORT $LN5@get_next_o

; 225  : 		for (; start_index < BLOCK_SIZE; start_index++ )

  0001f	40		 inc	 eax
  00020	83 c2 02	 add	 edx, 2
  00023	3b c1		 cmp	 eax, ecx
  00025	7c f2		 jl	 SHORT $LL4@get_next_o
$LN2@get_next_o:

; 227  : 				return start_index;
; 228  : 		return -1;

  00027	83 c8 ff	 or	 eax, -1
$LN5@get_next_o:

; 229  : 	}

  0002a	5d		 pop	 ebp
  0002b	c2 08 00	 ret	 8
?get_next_occupied_index_from_block@?$uni_heap@$0BE@$0IA@@@IAEHPAUTBlock@1@H@Z ENDP ; uni_heap<20,128>::get_next_occupied_index_from_block
_TEXT	ENDS
PUBLIC	?_Inside@?$vector@PAUTBlock@?$uni_heap@$0BE@$0IA@@@V?$allocator@PAUTBlock@?$uni_heap@$0BE@$0IA@@@@std@@@std@@IBE_NPBQAUTBlock@?$uni_heap@$0BE@$0IA@@@@Z ; std::vector<uni_heap<20,128>::TBlock *,std::allocator<uni_heap<20,128>::TBlock *> >::_Inside
; Function compile flags: /Ogsp
; File c:\program files (x86)\microsoft visual studio 10.0\vc\include\vector
;	COMDAT ?_Inside@?$vector@PAUTBlock@?$uni_heap@$0BE@$0IA@@@V?$allocator@PAUTBlock@?$uni_heap@$0BE@$0IA@@@@std@@@std@@IBE_NPBQAUTBlock@?$uni_heap@$0BE@$0IA@@@@Z
_TEXT	SEGMENT
__Ptr$ = 8						; size = 4
?_Inside@?$vector@PAUTBlock@?$uni_heap@$0BE@$0IA@@@V?$allocator@PAUTBlock@?$uni_heap@$0BE@$0IA@@@@std@@@std@@IBE_NPBQAUTBlock@?$uni_heap@$0BE@$0IA@@@@Z PROC ; std::vector<uni_heap<20,128>::TBlock *,std::allocator<uni_heap<20,128>::TBlock *> >::_Inside, COMDAT
; _this$ = ecx

; 1285 : 		{	// test if _Ptr points inside vector

  00000	55		 push	 ebp
  00001	8b ec		 mov	 ebp, esp

; 1286 : 		return (_Ptr < this->_Mylast && this->_Myfirst <= _Ptr);

  00003	8b 45 08	 mov	 eax, DWORD PTR __Ptr$[ebp]
  00006	3b 41 04	 cmp	 eax, DWORD PTR [ecx+4]
  00009	73 09		 jae	 SHORT $LN3@Inside@7
  0000b	39 01		 cmp	 DWORD PTR [ecx], eax
  0000d	77 05		 ja	 SHORT $LN3@Inside@7
  0000f	33 c0		 xor	 eax, eax
  00011	40		 inc	 eax
  00012	eb 02		 jmp	 SHORT $LN4@Inside@7
$LN3@Inside@7:
  00014	33 c0		 xor	 eax, eax
$LN4@Inside@7:

; 1287 : 		}

  00016	5d		 pop	 ebp
  00017	c2 04 00	 ret	 4
?_Inside@?$vector@PAUTBlock@?$uni_heap@$0BE@$0IA@@@V?$allocator@PAUTBlock@?$uni_heap@$0BE@$0IA@@@@std@@@std@@IBE_NPBQAUTBlock@?$uni_heap@$0BE@$0IA@@@@Z ENDP ; std::vector<uni_heap<20,128>::TBlock *,std::allocator<uni_heap<20,128>::TBlock *> >::_Inside
_TEXT	ENDS
PUBLIC	?_Orphan_range@?$vector@PAUTBlock@?$uni_heap@$0BE@$0IA@@@V?$allocator@PAUTBlock@?$uni_heap@$0BE@$0IA@@@@std@@@std@@IBEXPAPAUTBlock@?$uni_heap@$0BE@$0IA@@@0@Z ; std::vector<uni_heap<20,128>::TBlock *,std::allocator<uni_heap<20,128>::TBlock *> >::_Orphan_range
; Function compile flags: /Ogsp
;	COMDAT ?_Orphan_range@?$vector@PAUTBlock@?$uni_heap@$0BE@$0IA@@@V?$allocator@PAUTBlock@?$uni_heap@$0BE@$0IA@@@@std@@@std@@IBEXPAPAUTBlock@?$uni_heap@$0BE@$0IA@@@0@Z
_TEXT	SEGMENT
___formal$ = 8						; size = 4
___formal$ = 12						; size = 4
?_Orphan_range@?$vector@PAUTBlock@?$uni_heap@$0BE@$0IA@@@V?$allocator@PAUTBlock@?$uni_heap@$0BE@$0IA@@@@std@@@std@@IBEXPAPAUTBlock@?$uni_heap@$0BE@$0IA@@@0@Z PROC ; std::vector<uni_heap<20,128>::TBlock *,std::allocator<uni_heap<20,128>::TBlock *> >::_Orphan_range, COMDAT
; _this$ = ecx

; 1454 : 		}

  00000	c2 08 00	 ret	 8
?_Orphan_range@?$vector@PAUTBlock@?$uni_heap@$0BE@$0IA@@@V?$allocator@PAUTBlock@?$uni_heap@$0BE@$0IA@@@@std@@@std@@IBEXPAPAUTBlock@?$uni_heap@$0BE@$0IA@@@0@Z ENDP ; std::vector<uni_heap<20,128>::TBlock *,std::allocator<uni_heap<20,128>::TBlock *> >::_Orphan_range
_TEXT	ENDS
PUBLIC	??0?$_Vector_const_iterator@V?$_Vector_val@PAUTBlock@?$uni_heap@$0BE@$0IA@@@V?$allocator@PAUTBlock@?$uni_heap@$0BE@$0IA@@@@std@@@std@@@std@@QAE@XZ ; std::_Vector_const_iterator<std::_Vector_val<uni_heap<20,128>::TBlock *,std::allocator<uni_heap<20,128>::TBlock *> > >::_Vector_const_iterator<std::_Vector_val<uni_heap<20,128>::TBlock *,std::allocator<uni_heap<20,128>::TBlock *> > >
; Function compile flags: /Ogsp
;	COMDAT ??0?$_Vector_const_iterator@V?$_Vector_val@PAUTBlock@?$uni_heap@$0BE@$0IA@@@V?$allocator@PAUTBlock@?$uni_heap@$0BE@$0IA@@@@std@@@std@@@std@@QAE@XZ
_TEXT	SEGMENT
??0?$_Vector_const_iterator@V?$_Vector_val@PAUTBlock@?$uni_heap@$0BE@$0IA@@@V?$allocator@PAUTBlock@?$uni_heap@$0BE@$0IA@@@@std@@@std@@@std@@QAE@XZ PROC ; std::_Vector_const_iterator<std::_Vector_val<uni_heap<20,128>::TBlock *,std::allocator<uni_heap<20,128>::TBlock *> > >::_Vector_const_iterator<std::_Vector_val<uni_heap<20,128>::TBlock *,std::allocator<uni_heap<20,128>::TBlock *> > >, COMDAT
; _this$ = ecx

; 40   : 		{	// construct with null pointer

  00000	8b c1		 mov	 eax, ecx
  00002	83 20 00	 and	 DWORD PTR [eax], 0

; 41   : 		}

  00005	c3		 ret	 0
??0?$_Vector_const_iterator@V?$_Vector_val@PAUTBlock@?$uni_heap@$0BE@$0IA@@@V?$allocator@PAUTBlock@?$uni_heap@$0BE@$0IA@@@@std@@@std@@@std@@QAE@XZ ENDP ; std::_Vector_const_iterator<std::_Vector_val<uni_heap<20,128>::TBlock *,std::allocator<uni_heap<20,128>::TBlock *> > >::_Vector_const_iterator<std::_Vector_val<uni_heap<20,128>::TBlock *,std::allocator<uni_heap<20,128>::TBlock *> > >
_TEXT	ENDS
PUBLIC	??D?$_Vector_const_iterator@V?$_Vector_val@PAUTBlock@?$uni_heap@$0BE@$0IA@@@V?$allocator@PAUTBlock@?$uni_heap@$0BE@$0IA@@@@std@@@std@@@std@@QBEABQAUTBlock@?$uni_heap@$0BE@$0IA@@@XZ ; std::_Vector_const_iterator<std::_Vector_val<uni_heap<20,128>::TBlock *,std::allocator<uni_heap<20,128>::TBlock *> > >::operator*
; Function compile flags: /Ogsp
;	COMDAT ??D?$_Vector_const_iterator@V?$_Vector_val@PAUTBlock@?$uni_heap@$0BE@$0IA@@@V?$allocator@PAUTBlock@?$uni_heap@$0BE@$0IA@@@@std@@@std@@@std@@QBEABQAUTBlock@?$uni_heap@$0BE@$0IA@@@XZ
_TEXT	SEGMENT
??D?$_Vector_const_iterator@V?$_Vector_val@PAUTBlock@?$uni_heap@$0BE@$0IA@@@V?$allocator@PAUTBlock@?$uni_heap@$0BE@$0IA@@@@std@@@std@@@std@@QBEABQAUTBlock@?$uni_heap@$0BE@$0IA@@@XZ PROC ; std::_Vector_const_iterator<std::_Vector_val<uni_heap<20,128>::TBlock *,std::allocator<uni_heap<20,128>::TBlock *> > >::operator*, COMDAT
; _this$ = ecx

; 64   :  #if _ITERATOR_DEBUG_LEVEL == 2
; 65   : 		if (this->_Getcont() == 0
; 66   : 			|| this->_Ptr == 0
; 67   : 			|| this->_Ptr < ((_Myvec *)this->_Getcont())->_Myfirst
; 68   : 			|| ((_Myvec *)this->_Getcont())->_Mylast <= this->_Ptr)
; 69   : 			{	// report error
; 70   : 			_DEBUG_ERROR("vector iterator not dereferencable");
; 71   : 			_SCL_SECURE_OUT_OF_RANGE;
; 72   : 			}
; 73   : 
; 74   :  #elif _ITERATOR_DEBUG_LEVEL == 1
; 75   : 		_SCL_SECURE_VALIDATE(this->_Getcont() != 0);
; 76   : 		_SCL_SECURE_VALIDATE_RANGE(
; 77   : 			this->_Ptr != 0
; 78   : 			&& ((_Myvec *)this->_Getcont())->_Myfirst <= this->_Ptr
; 79   : 			&& this->_Ptr < ((_Myvec *)this->_Getcont())->_Mylast);
; 80   :  #endif /* _ITERATOR_DEBUG_LEVEL */
; 81   : 
; 82   : 		__analysis_assume(this->_Ptr != 0);
; 83   : 
; 84   : 		return (*this->_Ptr);

  00000	8b 01		 mov	 eax, DWORD PTR [ecx]

; 85   : 		}

  00002	c3		 ret	 0
??D?$_Vector_const_iterator@V?$_Vector_val@PAUTBlock@?$uni_heap@$0BE@$0IA@@@V?$allocator@PAUTBlock@?$uni_heap@$0BE@$0IA@@@@std@@@std@@@std@@QBEABQAUTBlock@?$uni_heap@$0BE@$0IA@@@XZ ENDP ; std::_Vector_const_iterator<std::_Vector_val<uni_heap<20,128>::TBlock *,std::allocator<uni_heap<20,128>::TBlock *> > >::operator*
_TEXT	ENDS
PUBLIC	?deallocate@?$allocator@PAUDNode@?$AStarSearcher@VBoxSpace@@PAUBox@1@@@@std@@QAEXPAPAUDNode@?$AStarSearcher@VBoxSpace@@PAUBox@1@@@I@Z ; std::allocator<AStarSearcher<BoxSpace,BoxSpace::Box *>::DNode *>::deallocate
; Function compile flags: /Ogsp
; File c:\program files (x86)\microsoft visual studio 10.0\vc\include\xmemory
;	COMDAT ?deallocate@?$allocator@PAUDNode@?$AStarSearcher@VBoxSpace@@PAUBox@1@@@@std@@QAEXPAPAUDNode@?$AStarSearcher@VBoxSpace@@PAUBox@1@@@I@Z
_TEXT	SEGMENT
__Ptr$ = 8						; size = 4
___formal$ = 12						; size = 4
?deallocate@?$allocator@PAUDNode@?$AStarSearcher@VBoxSpace@@PAUBox@1@@@@std@@QAEXPAPAUDNode@?$AStarSearcher@VBoxSpace@@PAUBox@1@@@I@Z PROC ; std::allocator<AStarSearcher<BoxSpace,BoxSpace::Box *>::DNode *>::deallocate, COMDAT
; _this$ = ecx

; 181  : 		{	// deallocate object at _Ptr, ignore size

  00000	55		 push	 ebp
  00001	8b ec		 mov	 ebp, esp

; 182  : 		::operator delete(_Ptr);

  00003	ff 75 08	 push	 DWORD PTR __Ptr$[ebp]
  00006	e8 00 00 00 00	 call	 ??3@YAXPAX@Z		; operator delete
  0000b	59		 pop	 ecx

; 183  : 		}

  0000c	5d		 pop	 ebp
  0000d	c2 08 00	 ret	 8
?deallocate@?$allocator@PAUDNode@?$AStarSearcher@VBoxSpace@@PAUBox@1@@@@std@@QAEXPAPAUDNode@?$AStarSearcher@VBoxSpace@@PAUBox@1@@@I@Z ENDP ; std::allocator<AStarSearcher<BoxSpace,BoxSpace::Box *>::DNode *>::deallocate
_TEXT	ENDS
PUBLIC	?deallocate@?$allocator@PBQAUBox@BoxSpace@@@std@@QAEXPAPBQAUBox@BoxSpace@@I@Z ; std::allocator<BoxSpace::Box * const *>::deallocate
; Function compile flags: /Ogsp
;	COMDAT ?deallocate@?$allocator@PBQAUBox@BoxSpace@@@std@@QAEXPAPBQAUBox@BoxSpace@@I@Z
_TEXT	SEGMENT
__Ptr$ = 8						; size = 4
___formal$ = 12						; size = 4
?deallocate@?$allocator@PBQAUBox@BoxSpace@@@std@@QAEXPAPBQAUBox@BoxSpace@@I@Z PROC ; std::allocator<BoxSpace::Box * const *>::deallocate, COMDAT
; _this$ = ecx

; 181  : 		{	// deallocate object at _Ptr, ignore size

  00000	55		 push	 ebp
  00001	8b ec		 mov	 ebp, esp

; 182  : 		::operator delete(_Ptr);

  00003	ff 75 08	 push	 DWORD PTR __Ptr$[ebp]
  00006	e8 00 00 00 00	 call	 ??3@YAXPAX@Z		; operator delete
  0000b	59		 pop	 ecx

; 183  : 		}

  0000c	5d		 pop	 ebp
  0000d	c2 08 00	 ret	 8
?deallocate@?$allocator@PBQAUBox@BoxSpace@@@std@@QAEXPAPBQAUBox@BoxSpace@@I@Z ENDP ; std::allocator<BoxSpace::Box * const *>::deallocate
_TEXT	ENDS
PUBLIC	?max_size@?$allocator@D@std@@QBEIXZ		; std::allocator<char>::max_size
; Function compile flags: /Ogsp
;	COMDAT ?max_size@?$allocator@D@std@@QBEIXZ
_TEXT	SEGMENT
?max_size@?$allocator@D@std@@QBEIXZ PROC		; std::allocator<char>::max_size, COMDAT
; _this$ = ecx

; 218  : 		_SIZT _Count = (_SIZT)(-1) / sizeof (_Ty);
; 219  : 		return (0 < _Count ? _Count : 1);

  00000	83 c8 ff	 or	 eax, -1

; 220  : 		}

  00003	c3		 ret	 0
?max_size@?$allocator@D@std@@QBEIXZ ENDP		; std::allocator<char>::max_size
_TEXT	ENDS
PUBLIC	?capacity@?$vector@PAUTBlock@?$uni_heap@$0BE@$0IA@@@V?$allocator@PAUTBlock@?$uni_heap@$0BE@$0IA@@@@std@@@std@@QBEIXZ ; std::vector<uni_heap<20,128>::TBlock *,std::allocator<uni_heap<20,128>::TBlock *> >::capacity
; Function compile flags: /Ogsp
; File c:\program files (x86)\microsoft visual studio 10.0\vc\include\vector
;	COMDAT ?capacity@?$vector@PAUTBlock@?$uni_heap@$0BE@$0IA@@@V?$allocator@PAUTBlock@?$uni_heap@$0BE@$0IA@@@@std@@@std@@QBEIXZ
_TEXT	SEGMENT
?capacity@?$vector@PAUTBlock@?$uni_heap@$0BE@$0IA@@@V?$allocator@PAUTBlock@?$uni_heap@$0BE@$0IA@@@@std@@@std@@QBEIXZ PROC ; std::vector<uni_heap<20,128>::TBlock *,std::allocator<uni_heap<20,128>::TBlock *> >::capacity, COMDAT
; _this$ = ecx

; 777  : 		return (this->_Myend - this->_Myfirst);

  00000	8b 41 08	 mov	 eax, DWORD PTR [ecx+8]
  00003	2b 01		 sub	 eax, DWORD PTR [ecx]
  00005	c1 f8 02	 sar	 eax, 2

; 778  : 		}

  00008	c3		 ret	 0
?capacity@?$vector@PAUTBlock@?$uni_heap@$0BE@$0IA@@@V?$allocator@PAUTBlock@?$uni_heap@$0BE@$0IA@@@@std@@@std@@QBEIXZ ENDP ; std::vector<uni_heap<20,128>::TBlock *,std::allocator<uni_heap<20,128>::TBlock *> >::capacity
_TEXT	ENDS
PUBLIC	?size@?$vector@PAUTBlock@?$uni_heap@$0BE@$0IA@@@V?$allocator@PAUTBlock@?$uni_heap@$0BE@$0IA@@@@std@@@std@@QBEIXZ ; std::vector<uni_heap<20,128>::TBlock *,std::allocator<uni_heap<20,128>::TBlock *> >::size
; Function compile flags: /Ogsp
;	COMDAT ?size@?$vector@PAUTBlock@?$uni_heap@$0BE@$0IA@@@V?$allocator@PAUTBlock@?$uni_heap@$0BE@$0IA@@@@std@@@std@@QBEIXZ
_TEXT	SEGMENT
?size@?$vector@PAUTBlock@?$uni_heap@$0BE@$0IA@@@V?$allocator@PAUTBlock@?$uni_heap@$0BE@$0IA@@@@std@@@std@@QBEIXZ PROC ; std::vector<uni_heap<20,128>::TBlock *,std::allocator<uni_heap<20,128>::TBlock *> >::size, COMDAT
; _this$ = ecx

; 879  : 		return (this->_Mylast - this->_Myfirst);

  00000	8b 41 04	 mov	 eax, DWORD PTR [ecx+4]
  00003	2b 01		 sub	 eax, DWORD PTR [ecx]
  00005	c1 f8 02	 sar	 eax, 2

; 880  : 		}

  00008	c3		 ret	 0
?size@?$vector@PAUTBlock@?$uni_heap@$0BE@$0IA@@@V?$allocator@PAUTBlock@?$uni_heap@$0BE@$0IA@@@@std@@@std@@QBEIXZ ENDP ; std::vector<uni_heap<20,128>::TBlock *,std::allocator<uni_heap<20,128>::TBlock *> >::size
_TEXT	ENDS
PUBLIC	?_Xlen@?$vector@PAUTBlock@?$uni_heap@$0BE@$0IA@@@V?$allocator@PAUTBlock@?$uni_heap@$0BE@$0IA@@@@std@@@std@@IBEXXZ ; std::vector<uni_heap<20,128>::TBlock *,std::allocator<uni_heap<20,128>::TBlock *> >::_Xlen
; Function compile flags: /Ogsp
;	COMDAT ?_Xlen@?$vector@PAUTBlock@?$uni_heap@$0BE@$0IA@@@V?$allocator@PAUTBlock@?$uni_heap@$0BE@$0IA@@@@std@@@std@@IBEXXZ
_TEXT	SEGMENT
?_Xlen@?$vector@PAUTBlock@?$uni_heap@$0BE@$0IA@@@V?$allocator@PAUTBlock@?$uni_heap@$0BE@$0IA@@@@std@@@std@@IBEXXZ PROC ; std::vector<uni_heap<20,128>::TBlock *,std::allocator<uni_heap<20,128>::TBlock *> >::_Xlen, COMDAT
; _this$ = ecx

; 1427 : 		_Xlength_error("vector<T> too long");

  00000	68 00 00 00 00	 push	 OFFSET ??_C@_0BD@OLBABOEK@vector?$DMT?$DO?5too?5long?$AA@
  00005	ff 15 00 00 00
	00		 call	 DWORD PTR __imp_?_Xlength_error@std@@YAXPBD@Z
$LN4@Xlen@7:
$LN3@Xlen@7:
  0000b	cc		 int	 3
?_Xlen@?$vector@PAUTBlock@?$uni_heap@$0BE@$0IA@@@V?$allocator@PAUTBlock@?$uni_heap@$0BE@$0IA@@@@std@@@std@@IBEXXZ ENDP ; std::vector<uni_heap<20,128>::TBlock *,std::allocator<uni_heap<20,128>::TBlock *> >::_Xlen
_TEXT	ENDS
PUBLIC	?deallocate@?$allocator@PAUTBlock@?$uni_heap@$0BE@$0IA@@@@std@@QAEXPAPAUTBlock@?$uni_heap@$0BE@$0IA@@@I@Z ; std::allocator<uni_heap<20,128>::TBlock *>::deallocate
; Function compile flags: /Ogsp
; File c:\program files (x86)\microsoft visual studio 10.0\vc\include\xmemory
;	COMDAT ?deallocate@?$allocator@PAUTBlock@?$uni_heap@$0BE@$0IA@@@@std@@QAEXPAPAUTBlock@?$uni_heap@$0BE@$0IA@@@I@Z
_TEXT	SEGMENT
__Ptr$ = 8						; size = 4
___formal$ = 12						; size = 4
?deallocate@?$allocator@PAUTBlock@?$uni_heap@$0BE@$0IA@@@@std@@QAEXPAPAUTBlock@?$uni_heap@$0BE@$0IA@@@I@Z PROC ; std::allocator<uni_heap<20,128>::TBlock *>::deallocate, COMDAT
; _this$ = ecx

; 181  : 		{	// deallocate object at _Ptr, ignore size

  00000	55		 push	 ebp
  00001	8b ec		 mov	 ebp, esp

; 182  : 		::operator delete(_Ptr);

  00003	ff 75 08	 push	 DWORD PTR __Ptr$[ebp]
  00006	e8 00 00 00 00	 call	 ??3@YAXPAX@Z		; operator delete
  0000b	59		 pop	 ecx

; 183  : 		}

  0000c	5d		 pop	 ebp
  0000d	c2 08 00	 ret	 8
?deallocate@?$allocator@PAUTBlock@?$uni_heap@$0BE@$0IA@@@@std@@QAEXPAPAUTBlock@?$uni_heap@$0BE@$0IA@@@I@Z ENDP ; std::allocator<uni_heap<20,128>::TBlock *>::deallocate
_TEXT	ENDS
PUBLIC	??0?$_Vector_const_iterator@V?$_Vector_val@PAUTBlock@?$uni_heap@$0BE@$0IA@@@V?$allocator@PAUTBlock@?$uni_heap@$0BE@$0IA@@@@std@@@std@@@std@@QAE@PAPAUTBlock@?$uni_heap@$0BE@$0IA@@@PBU_Container_base0@1@@Z ; std::_Vector_const_iterator<std::_Vector_val<uni_heap<20,128>::TBlock *,std::allocator<uni_heap<20,128>::TBlock *> > >::_Vector_const_iterator<std::_Vector_val<uni_heap<20,128>::TBlock *,std::allocator<uni_heap<20,128>::TBlock *> > >
; Function compile flags: /Ogsp
; File c:\program files (x86)\microsoft visual studio 10.0\vc\include\vector
;	COMDAT ??0?$_Vector_const_iterator@V?$_Vector_val@PAUTBlock@?$uni_heap@$0BE@$0IA@@@V?$allocator@PAUTBlock@?$uni_heap@$0BE@$0IA@@@@std@@@std@@@std@@QAE@PAPAUTBlock@?$uni_heap@$0BE@$0IA@@@PBU_Container_base0@1@@Z
_TEXT	SEGMENT
__Parg$ = 8						; size = 4
__Pvector$ = 12						; size = 4
??0?$_Vector_const_iterator@V?$_Vector_val@PAUTBlock@?$uni_heap@$0BE@$0IA@@@V?$allocator@PAUTBlock@?$uni_heap@$0BE@$0IA@@@@std@@@std@@@std@@QAE@PAPAUTBlock@?$uni_heap@$0BE@$0IA@@@PBU_Container_base0@1@@Z PROC ; std::_Vector_const_iterator<std::_Vector_val<uni_heap<20,128>::TBlock *,std::allocator<uni_heap<20,128>::TBlock *> > >::_Vector_const_iterator<std::_Vector_val<uni_heap<20,128>::TBlock *,std::allocator<uni_heap<20,128>::TBlock *> > >, COMDAT
; _this$ = ecx

; 45   : 		{	// construct with pointer _Parg

  00000	55		 push	 ebp
  00001	8b ec		 mov	 ebp, esp
  00003	8b c1		 mov	 eax, ecx
  00005	8b 4d 08	 mov	 ecx, DWORD PTR __Parg$[ebp]
  00008	89 08		 mov	 DWORD PTR [eax], ecx

; 46   : 		this->_Adopt(_Pvector);
; 47   : 		}

  0000a	5d		 pop	 ebp
  0000b	c2 08 00	 ret	 8
??0?$_Vector_const_iterator@V?$_Vector_val@PAUTBlock@?$uni_heap@$0BE@$0IA@@@V?$allocator@PAUTBlock@?$uni_heap@$0BE@$0IA@@@@std@@@std@@@std@@QAE@PAPAUTBlock@?$uni_heap@$0BE@$0IA@@@PBU_Container_base0@1@@Z ENDP ; std::_Vector_const_iterator<std::_Vector_val<uni_heap<20,128>::TBlock *,std::allocator<uni_heap<20,128>::TBlock *> > >::_Vector_const_iterator<std::_Vector_val<uni_heap<20,128>::TBlock *,std::allocator<uni_heap<20,128>::TBlock *> > >
_TEXT	ENDS
PUBLIC	??E?$_Vector_const_iterator@V?$_Vector_val@PAUTBlock@?$uni_heap@$0BE@$0IA@@@V?$allocator@PAUTBlock@?$uni_heap@$0BE@$0IA@@@@std@@@std@@@std@@QAEAAV01@XZ ; std::_Vector_const_iterator<std::_Vector_val<uni_heap<20,128>::TBlock *,std::allocator<uni_heap<20,128>::TBlock *> > >::operator++
; Function compile flags: /Ogsp
;	COMDAT ??E?$_Vector_const_iterator@V?$_Vector_val@PAUTBlock@?$uni_heap@$0BE@$0IA@@@V?$allocator@PAUTBlock@?$uni_heap@$0BE@$0IA@@@@std@@@std@@@std@@QAEAAV01@XZ
_TEXT	SEGMENT
??E?$_Vector_const_iterator@V?$_Vector_val@PAUTBlock@?$uni_heap@$0BE@$0IA@@@V?$allocator@PAUTBlock@?$uni_heap@$0BE@$0IA@@@@std@@@std@@@std@@QAEAAV01@XZ PROC ; std::_Vector_const_iterator<std::_Vector_val<uni_heap<20,128>::TBlock *,std::allocator<uni_heap<20,128>::TBlock *> > >::operator++, COMDAT
; _this$ = ecx

; 93   : 		{	// preincrement

  00000	8b c1		 mov	 eax, ecx

; 94   :  #if _ITERATOR_DEBUG_LEVEL == 2
; 95   : 		if (this->_Getcont() == 0
; 96   : 			|| this->_Ptr == 0
; 97   : 			|| ((_Myvec *)this->_Getcont())->_Mylast <= this->_Ptr)
; 98   : 			{	// report error
; 99   : 			_DEBUG_ERROR("vector iterator not incrementable");
; 100  : 			_SCL_SECURE_OUT_OF_RANGE;
; 101  : 			}
; 102  : 
; 103  :  #elif _ITERATOR_DEBUG_LEVEL == 1
; 104  : 		_SCL_SECURE_VALIDATE(this->_Getcont() != 0);
; 105  : 		_SCL_SECURE_VALIDATE_RANGE(
; 106  : 			this->_Ptr != 0
; 107  : 			&& this->_Ptr < ((_Myvec *)this->_Getcont())->_Mylast);
; 108  :  #endif /* _ITERATOR_DEBUG_LEVEL */
; 109  : 
; 110  : 		++this->_Ptr;

  00002	83 00 04	 add	 DWORD PTR [eax], 4

; 111  : 		return (*this);
; 112  : 		}

  00005	c3		 ret	 0
??E?$_Vector_const_iterator@V?$_Vector_val@PAUTBlock@?$uni_heap@$0BE@$0IA@@@V?$allocator@PAUTBlock@?$uni_heap@$0BE@$0IA@@@@std@@@std@@@std@@QAEAAV01@XZ ENDP ; std::_Vector_const_iterator<std::_Vector_val<uni_heap<20,128>::TBlock *,std::allocator<uni_heap<20,128>::TBlock *> > >::operator++
_TEXT	ENDS
PUBLIC	?_Compat@?$_Vector_const_iterator@V?$_Vector_val@PAUTBlock@?$uni_heap@$0BE@$0IA@@@V?$allocator@PAUTBlock@?$uni_heap@$0BE@$0IA@@@@std@@@std@@@std@@QBEXABV12@@Z ; std::_Vector_const_iterator<std::_Vector_val<uni_heap<20,128>::TBlock *,std::allocator<uni_heap<20,128>::TBlock *> > >::_Compat
; Function compile flags: /Ogsp
;	COMDAT ?_Compat@?$_Vector_const_iterator@V?$_Vector_val@PAUTBlock@?$uni_heap@$0BE@$0IA@@@V?$allocator@PAUTBlock@?$uni_heap@$0BE@$0IA@@@@std@@@std@@@std@@QBEXABV12@@Z
_TEXT	SEGMENT
___formal$ = 8						; size = 4
?_Compat@?$_Vector_const_iterator@V?$_Vector_val@PAUTBlock@?$uni_heap@$0BE@$0IA@@@V?$allocator@PAUTBlock@?$uni_heap@$0BE@$0IA@@@@std@@@std@@@std@@QBEXABV12@@Z PROC ; std::_Vector_const_iterator<std::_Vector_val<uni_heap<20,128>::TBlock *,std::allocator<uni_heap<20,128>::TBlock *> > >::_Compat, COMDAT
; _this$ = ecx

; 253  : 		}

  00000	c2 04 00	 ret	 4
?_Compat@?$_Vector_const_iterator@V?$_Vector_val@PAUTBlock@?$uni_heap@$0BE@$0IA@@@V?$allocator@PAUTBlock@?$uni_heap@$0BE@$0IA@@@@std@@@std@@@std@@QBEXABV12@@Z ENDP ; std::_Vector_const_iterator<std::_Vector_val<uni_heap<20,128>::TBlock *,std::allocator<uni_heap<20,128>::TBlock *> > >::_Compat
_TEXT	ENDS
PUBLIC	?max_size@?$allocator@PAUTBlock@?$uni_heap@$0BE@$0IA@@@@std@@QBEIXZ ; std::allocator<uni_heap<20,128>::TBlock *>::max_size
; Function compile flags: /Ogsp
; File c:\program files (x86)\microsoft visual studio 10.0\vc\include\xmemory
;	COMDAT ?max_size@?$allocator@PAUTBlock@?$uni_heap@$0BE@$0IA@@@@std@@QBEIXZ
_TEXT	SEGMENT
?max_size@?$allocator@PAUTBlock@?$uni_heap@$0BE@$0IA@@@@std@@QBEIXZ PROC ; std::allocator<uni_heap<20,128>::TBlock *>::max_size, COMDAT
; _this$ = ecx

; 218  : 		_SIZT _Count = (_SIZT)(-1) / sizeof (_Ty);
; 219  : 		return (0 < _Count ? _Count : 1);

  00000	b8 ff ff ff 3f	 mov	 eax, 1073741823		; 3fffffffH

; 220  : 		}

  00005	c3		 ret	 0
?max_size@?$allocator@PAUTBlock@?$uni_heap@$0BE@$0IA@@@@std@@QBEIXZ ENDP ; std::allocator<uni_heap<20,128>::TBlock *>::max_size
_TEXT	ENDS
PUBLIC	??0?$_Vector_const_iterator@V?$_Vector_val@PBQAUBox@BoxSpace@@V?$allocator@PBQAUBox@BoxSpace@@@std@@@std@@@std@@QAE@PAPBQAUBox@BoxSpace@@PBU_Container_base0@1@@Z ; std::_Vector_const_iterator<std::_Vector_val<BoxSpace::Box * const *,std::allocator<BoxSpace::Box * const *> > >::_Vector_const_iterator<std::_Vector_val<BoxSpace::Box * const *,std::allocator<BoxSpace::Box * const *> > >
; Function compile flags: /Ogsp
; File c:\program files (x86)\microsoft visual studio 10.0\vc\include\vector
;	COMDAT ??0?$_Vector_const_iterator@V?$_Vector_val@PBQAUBox@BoxSpace@@V?$allocator@PBQAUBox@BoxSpace@@@std@@@std@@@std@@QAE@PAPBQAUBox@BoxSpace@@PBU_Container_base0@1@@Z
_TEXT	SEGMENT
__Parg$ = 8						; size = 4
__Pvector$ = 12						; size = 4
??0?$_Vector_const_iterator@V?$_Vector_val@PBQAUBox@BoxSpace@@V?$allocator@PBQAUBox@BoxSpace@@@std@@@std@@@std@@QAE@PAPBQAUBox@BoxSpace@@PBU_Container_base0@1@@Z PROC ; std::_Vector_const_iterator<std::_Vector_val<BoxSpace::Box * const *,std::allocator<BoxSpace::Box * const *> > >::_Vector_const_iterator<std::_Vector_val<BoxSpace::Box * const *,std::allocator<BoxSpace::Box * const *> > >, COMDAT
; _this$ = ecx

; 45   : 		{	// construct with pointer _Parg

  00000	55		 push	 ebp
  00001	8b ec		 mov	 ebp, esp
  00003	8b c1		 mov	 eax, ecx
  00005	8b 4d 08	 mov	 ecx, DWORD PTR __Parg$[ebp]
  00008	89 08		 mov	 DWORD PTR [eax], ecx

; 46   : 		this->_Adopt(_Pvector);
; 47   : 		}

  0000a	5d		 pop	 ebp
  0000b	c2 08 00	 ret	 8
??0?$_Vector_const_iterator@V?$_Vector_val@PBQAUBox@BoxSpace@@V?$allocator@PBQAUBox@BoxSpace@@@std@@@std@@@std@@QAE@PAPBQAUBox@BoxSpace@@PBU_Container_base0@1@@Z ENDP ; std::_Vector_const_iterator<std::_Vector_val<BoxSpace::Box * const *,std::allocator<BoxSpace::Box * const *> > >::_Vector_const_iterator<std::_Vector_val<BoxSpace::Box * const *,std::allocator<BoxSpace::Box * const *> > >
_TEXT	ENDS
PUBLIC	?_Compat@?$_Vector_const_iterator@V?$_Vector_val@PBQAUBox@BoxSpace@@V?$allocator@PBQAUBox@BoxSpace@@@std@@@std@@@std@@QBEXABV12@@Z ; std::_Vector_const_iterator<std::_Vector_val<BoxSpace::Box * const *,std::allocator<BoxSpace::Box * const *> > >::_Compat
; Function compile flags: /Ogsp
;	COMDAT ?_Compat@?$_Vector_const_iterator@V?$_Vector_val@PBQAUBox@BoxSpace@@V?$allocator@PBQAUBox@BoxSpace@@@std@@@std@@@std@@QBEXABV12@@Z
_TEXT	SEGMENT
___formal$ = 8						; size = 4
?_Compat@?$_Vector_const_iterator@V?$_Vector_val@PBQAUBox@BoxSpace@@V?$allocator@PBQAUBox@BoxSpace@@@std@@@std@@@std@@QBEXABV12@@Z PROC ; std::_Vector_const_iterator<std::_Vector_val<BoxSpace::Box * const *,std::allocator<BoxSpace::Box * const *> > >::_Compat, COMDAT
; _this$ = ecx

; 253  : 		}

  00000	c2 04 00	 ret	 4
?_Compat@?$_Vector_const_iterator@V?$_Vector_val@PBQAUBox@BoxSpace@@V?$allocator@PBQAUBox@BoxSpace@@@std@@@std@@@std@@QBEXABV12@@Z ENDP ; std::_Vector_const_iterator<std::_Vector_val<BoxSpace::Box * const *,std::allocator<BoxSpace::Box * const *> > >::_Compat
_TEXT	ENDS
PUBLIC	??0?$_Vector_const_iterator@V?$_Vector_val@PAUDNode@?$AStarSearcher@VBoxSpace@@PAUBox@1@@@V?$allocator@PAUDNode@?$AStarSearcher@VBoxSpace@@PAUBox@1@@@@std@@@std@@@std@@QAE@PAPAUDNode@?$AStarSearcher@VBoxSpace@@PAUBox@1@@@PBU_Container_base0@1@@Z ; std::_Vector_const_iterator<std::_Vector_val<AStarSearcher<BoxSpace,BoxSpace::Box *>::DNode *,std::allocator<AStarSearcher<BoxSpace,BoxSpace::Box *>::DNode *> > >::_Vector_const_iterator<std::_Vector_val<AStarSearcher<BoxSpace,BoxSpace::Box *>::DNode *,std::allocator<AStarSearcher<BoxSpace,BoxSpace::Box *>::DNode *> > >
; Function compile flags: /Ogsp
;	COMDAT ??0?$_Vector_const_iterator@V?$_Vector_val@PAUDNode@?$AStarSearcher@VBoxSpace@@PAUBox@1@@@V?$allocator@PAUDNode@?$AStarSearcher@VBoxSpace@@PAUBox@1@@@@std@@@std@@@std@@QAE@PAPAUDNode@?$AStarSearcher@VBoxSpace@@PAUBox@1@@@PBU_Container_base0@1@@Z
_TEXT	SEGMENT
__Parg$ = 8						; size = 4
__Pvector$ = 12						; size = 4
??0?$_Vector_const_iterator@V?$_Vector_val@PAUDNode@?$AStarSearcher@VBoxSpace@@PAUBox@1@@@V?$allocator@PAUDNode@?$AStarSearcher@VBoxSpace@@PAUBox@1@@@@std@@@std@@@std@@QAE@PAPAUDNode@?$AStarSearcher@VBoxSpace@@PAUBox@1@@@PBU_Container_base0@1@@Z PROC ; std::_Vector_const_iterator<std::_Vector_val<AStarSearcher<BoxSpace,BoxSpace::Box *>::DNode *,std::allocator<AStarSearcher<BoxSpace,BoxSpace::Box *>::DNode *> > >::_Vector_const_iterator<std::_Vector_val<AStarSearcher<BoxSpace,BoxSpace::Box *>::DNode *,std::allocator<AStarSearcher<BoxSpace,BoxSpace::Box *>::DNode *> > >, COMDAT
; _this$ = ecx

; 45   : 		{	// construct with pointer _Parg

  00000	55		 push	 ebp
  00001	8b ec		 mov	 ebp, esp
  00003	8b c1		 mov	 eax, ecx
  00005	8b 4d 08	 mov	 ecx, DWORD PTR __Parg$[ebp]
  00008	89 08		 mov	 DWORD PTR [eax], ecx

; 46   : 		this->_Adopt(_Pvector);
; 47   : 		}

  0000a	5d		 pop	 ebp
  0000b	c2 08 00	 ret	 8
??0?$_Vector_const_iterator@V?$_Vector_val@PAUDNode@?$AStarSearcher@VBoxSpace@@PAUBox@1@@@V?$allocator@PAUDNode@?$AStarSearcher@VBoxSpace@@PAUBox@1@@@@std@@@std@@@std@@QAE@PAPAUDNode@?$AStarSearcher@VBoxSpace@@PAUBox@1@@@PBU_Container_base0@1@@Z ENDP ; std::_Vector_const_iterator<std::_Vector_val<AStarSearcher<BoxSpace,BoxSpace::Box *>::DNode *,std::allocator<AStarSearcher<BoxSpace,BoxSpace::Box *>::DNode *> > >::_Vector_const_iterator<std::_Vector_val<AStarSearcher<BoxSpace,BoxSpace::Box *>::DNode *,std::allocator<AStarSearcher<BoxSpace,BoxSpace::Box *>::DNode *> > >
_TEXT	ENDS
PUBLIC	?_Compat@?$_Vector_const_iterator@V?$_Vector_val@PAUDNode@?$AStarSearcher@VBoxSpace@@PAUBox@1@@@V?$allocator@PAUDNode@?$AStarSearcher@VBoxSpace@@PAUBox@1@@@@std@@@std@@@std@@QBEXABV12@@Z ; std::_Vector_const_iterator<std::_Vector_val<AStarSearcher<BoxSpace,BoxSpace::Box *>::DNode *,std::allocator<AStarSearcher<BoxSpace,BoxSpace::Box *>::DNode *> > >::_Compat
; Function compile flags: /Ogsp
;	COMDAT ?_Compat@?$_Vector_const_iterator@V?$_Vector_val@PAUDNode@?$AStarSearcher@VBoxSpace@@PAUBox@1@@@V?$allocator@PAUDNode@?$AStarSearcher@VBoxSpace@@PAUBox@1@@@@std@@@std@@@std@@QBEXABV12@@Z
_TEXT	SEGMENT
___formal$ = 8						; size = 4
?_Compat@?$_Vector_const_iterator@V?$_Vector_val@PAUDNode@?$AStarSearcher@VBoxSpace@@PAUBox@1@@@V?$allocator@PAUDNode@?$AStarSearcher@VBoxSpace@@PAUBox@1@@@@std@@@std@@@std@@QBEXABV12@@Z PROC ; std::_Vector_const_iterator<std::_Vector_val<AStarSearcher<BoxSpace,BoxSpace::Box *>::DNode *,std::allocator<AStarSearcher<BoxSpace,BoxSpace::Box *>::DNode *> > >::_Compat, COMDAT
; _this$ = ecx

; 253  : 		}

  00000	c2 04 00	 ret	 4
?_Compat@?$_Vector_const_iterator@V?$_Vector_val@PAUDNode@?$AStarSearcher@VBoxSpace@@PAUBox@1@@@V?$allocator@PAUDNode@?$AStarSearcher@VBoxSpace@@PAUBox@1@@@@std@@@std@@@std@@QBEXABV12@@Z ENDP ; std::_Vector_const_iterator<std::_Vector_val<AStarSearcher<BoxSpace,BoxSpace::Box *>::DNode *,std::allocator<AStarSearcher<BoxSpace,BoxSpace::Box *>::DNode *> > >::_Compat
_TEXT	ENDS
PUBLIC	??$forward@V?$basic_string@DU?$char_traits@D@std@@V?$allocator@D@2@@std@@@std@@YA$$QAV?$basic_string@DU?$char_traits@D@std@@V?$allocator@D@2@@0@AAV10@@Z ; std::forward<std::basic_string<char,std::char_traits<char>,std::allocator<char> > >
; Function compile flags: /Ogsp
; File c:\program files (x86)\microsoft visual studio 10.0\vc\include\utility
;	COMDAT ??$forward@V?$basic_string@DU?$char_traits@D@std@@V?$allocator@D@2@@std@@@std@@YA$$QAV?$basic_string@DU?$char_traits@D@std@@V?$allocator@D@2@@0@AAV10@@Z
_TEXT	SEGMENT
__Arg$ = 8						; size = 4
??$forward@V?$basic_string@DU?$char_traits@D@std@@V?$allocator@D@2@@std@@@std@@YA$$QAV?$basic_string@DU?$char_traits@D@std@@V?$allocator@D@2@@0@AAV10@@Z PROC ; std::forward<std::basic_string<char,std::char_traits<char>,std::allocator<char> > >, COMDAT

; 78   : 	{	// forward _Arg, given explicitly specified type parameter

  00000	55		 push	 ebp
  00001	8b ec		 mov	 ebp, esp

; 79   : 	return ((_Ty&&)_Arg);

  00003	8b 45 08	 mov	 eax, DWORD PTR __Arg$[ebp]

; 80   : 	}

  00006	5d		 pop	 ebp
  00007	c3		 ret	 0
??$forward@V?$basic_string@DU?$char_traits@D@std@@V?$allocator@D@2@@std@@@std@@YA$$QAV?$basic_string@DU?$char_traits@D@std@@V?$allocator@D@2@@0@AAV10@@Z ENDP ; std::forward<std::basic_string<char,std::char_traits<char>,std::allocator<char> > >
_TEXT	ENDS
PUBLIC	??$addressof@PAUTBlock@?$uni_heap@$0BE@$0IA@@@@std@@YAPAPAUTBlock@?$uni_heap@$0BE@$0IA@@@AAPAU12@@Z ; std::addressof<uni_heap<20,128>::TBlock *>
; Function compile flags: /Ogsp
; File c:\program files (x86)\microsoft visual studio 10.0\vc\include\xmemory
;	COMDAT ??$addressof@PAUTBlock@?$uni_heap@$0BE@$0IA@@@@std@@YAPAPAUTBlock@?$uni_heap@$0BE@$0IA@@@AAPAU12@@Z
_TEXT	SEGMENT
__Val$ = 8						; size = 4
??$addressof@PAUTBlock@?$uni_heap@$0BE@$0IA@@@@std@@YAPAPAUTBlock@?$uni_heap@$0BE@$0IA@@@AAPAU12@@Z PROC ; std::addressof<uni_heap<20,128>::TBlock *>, COMDAT

; 110  : 	{	// return address of _Val

  00000	55		 push	 ebp
  00001	8b ec		 mov	 ebp, esp

; 111  : 	return ((_Ty *) &(char&)_Val);

  00003	8b 45 08	 mov	 eax, DWORD PTR __Val$[ebp]

; 112  : 	}

  00006	5d		 pop	 ebp
  00007	c3		 ret	 0
??$addressof@PAUTBlock@?$uni_heap@$0BE@$0IA@@@@std@@YAPAPAUTBlock@?$uni_heap@$0BE@$0IA@@@AAPAU12@@Z ENDP ; std::addressof<uni_heap<20,128>::TBlock *>
_TEXT	ENDS
PUBLIC	??$forward@PAUTBlock@?$uni_heap@$0BE@$0IA@@@@std@@YA$$QAPAUTBlock@?$uni_heap@$0BE@$0IA@@@AAPAU12@@Z ; std::forward<uni_heap<20,128>::TBlock *>
; Function compile flags: /Ogsp
; File c:\program files (x86)\microsoft visual studio 10.0\vc\include\utility
;	COMDAT ??$forward@PAUTBlock@?$uni_heap@$0BE@$0IA@@@@std@@YA$$QAPAUTBlock@?$uni_heap@$0BE@$0IA@@@AAPAU12@@Z
_TEXT	SEGMENT
__Arg$ = 8						; size = 4
??$forward@PAUTBlock@?$uni_heap@$0BE@$0IA@@@@std@@YA$$QAPAUTBlock@?$uni_heap@$0BE@$0IA@@@AAPAU12@@Z PROC ; std::forward<uni_heap<20,128>::TBlock *>, COMDAT

; 78   : 	{	// forward _Arg, given explicitly specified type parameter

  00000	55		 push	 ebp
  00001	8b ec		 mov	 ebp, esp

; 79   : 	return ((_Ty&&)_Arg);

  00003	8b 45 08	 mov	 eax, DWORD PTR __Arg$[ebp]

; 80   : 	}

  00006	5d		 pop	 ebp
  00007	c3		 ret	 0
??$forward@PAUTBlock@?$uni_heap@$0BE@$0IA@@@@std@@YA$$QAPAUTBlock@?$uni_heap@$0BE@$0IA@@@AAPAU12@@Z ENDP ; std::forward<uni_heap<20,128>::TBlock *>
_TEXT	ENDS
PUBLIC	??$_Allocate@D@std@@YAPADIPAD@Z			; std::_Allocate<char>
; Function compile flags: /Ogsp
; File c:\program files (x86)\microsoft visual studio 10.0\vc\include\xmemory
;	COMDAT ??$_Allocate@D@std@@YAPADIPAD@Z
_TEXT	SEGMENT
$T510407 = -12						; size = 12
$T510411 = 8						; size = 4
__Count$ = 8						; size = 4
___formal$ = 12						; size = 4
??$_Allocate@D@std@@YAPADIPAD@Z PROC			; std::_Allocate<char>, COMDAT

; 30   : 	{	// allocate storage for _Count elements of type _Ty

  00000	55		 push	 ebp
  00001	8b ec		 mov	 ebp, esp

; 31   : 	void *_Ptr = 0;

  00003	33 c0		 xor	 eax, eax
  00005	83 ec 0c	 sub	 esp, 12			; 0000000cH

; 32   : 
; 33   : 	if (_Count <= 0)

  00008	39 45 08	 cmp	 DWORD PTR __Count$[ebp], eax

; 34   : 		_Count = 0;
; 35   : 	else if (((_SIZT)(-1) / sizeof (_Ty) < _Count)

  0000b	76 39		 jbe	 SHORT $LN5@Allocate@6

; 36   : 		|| (_Ptr = ::operator new(_Count * sizeof (_Ty))) == 0)

  0000d	83 7d 08 ff	 cmp	 DWORD PTR __Count$[ebp], -1
  00011	77 0d		 ja	 SHORT $LN1@Allocate@6
  00013	ff 75 08	 push	 DWORD PTR __Count$[ebp]
  00016	e8 00 00 00 00	 call	 ??2@YAPAXI@Z		; operator new
  0001b	59		 pop	 ecx
  0001c	85 c0		 test	 eax, eax

; 38   : 
; 39   : 	return ((_Ty _FARQ *)_Ptr);

  0001e	75 26		 jne	 SHORT $LN5@Allocate@6
$LN1@Allocate@6:

; 37   : 		_THROW_NCEE(bad_alloc, 0);

  00020	83 65 08 00	 and	 DWORD PTR $T510411[ebp], 0
  00024	8d 45 08	 lea	 eax, DWORD PTR $T510411[ebp]
  00027	50		 push	 eax
  00028	8d 4d f4	 lea	 ecx, DWORD PTR $T510407[ebp]
  0002b	ff 15 00 00 00
	00		 call	 DWORD PTR __imp_??0exception@std@@QAE@ABQBD@Z
  00031	68 00 00 00 00	 push	 OFFSET __TI2?AVbad_alloc@std@@
  00036	8d 45 f4	 lea	 eax, DWORD PTR $T510407[ebp]
  00039	50		 push	 eax
  0003a	c7 45 f4 00 00
	00 00		 mov	 DWORD PTR $T510407[ebp], OFFSET ??_7bad_alloc@std@@6B@
  00041	e8 00 00 00 00	 call	 __CxxThrowException@8
$LN10@Allocate@6:
$LN5@Allocate@6:

; 40   : 	}

  00046	c9		 leave
  00047	c3		 ret	 0
$LN9@Allocate@6:
??$_Allocate@D@std@@YAPADIPAD@Z ENDP			; std::_Allocate<char>
_TEXT	ENDS
PUBLIC	??$_Allocate@PAUTBlock@?$uni_heap@$0BE@$0IA@@@@std@@YAPAPAUTBlock@?$uni_heap@$0BE@$0IA@@@IPAPAU12@@Z ; std::_Allocate<uni_heap<20,128>::TBlock *>
; Function compile flags: /Ogsp
;	COMDAT ??$_Allocate@PAUTBlock@?$uni_heap@$0BE@$0IA@@@@std@@YAPAPAUTBlock@?$uni_heap@$0BE@$0IA@@@IPAPAU12@@Z
_TEXT	SEGMENT
$T510416 = -12						; size = 12
$T510420 = 8						; size = 4
__Count$ = 8						; size = 4
___formal$ = 12						; size = 4
??$_Allocate@PAUTBlock@?$uni_heap@$0BE@$0IA@@@@std@@YAPAPAUTBlock@?$uni_heap@$0BE@$0IA@@@IPAPAU12@@Z PROC ; std::_Allocate<uni_heap<20,128>::TBlock *>, COMDAT

; 30   : 	{	// allocate storage for _Count elements of type _Ty

  00000	55		 push	 ebp
  00001	8b ec		 mov	 ebp, esp

; 31   : 	void *_Ptr = 0;
; 32   : 
; 33   : 	if (_Count <= 0)

  00003	8b 4d 08	 mov	 ecx, DWORD PTR __Count$[ebp]
  00006	83 ec 0c	 sub	 esp, 12			; 0000000cH
  00009	33 c0		 xor	 eax, eax
  0000b	85 c9		 test	 ecx, ecx

; 34   : 		_Count = 0;
; 35   : 	else if (((_SIZT)(-1) / sizeof (_Ty) < _Count)

  0000d	74 3e		 je	 SHORT $LN5@Allocate@7

; 36   : 		|| (_Ptr = ::operator new(_Count * sizeof (_Ty))) == 0)

  0000f	81 f9 ff ff ff
	3f		 cmp	 ecx, 1073741823		; 3fffffffH
  00015	77 10		 ja	 SHORT $LN1@Allocate@7
  00017	8b c1		 mov	 eax, ecx
  00019	c1 e0 02	 shl	 eax, 2
  0001c	50		 push	 eax
  0001d	e8 00 00 00 00	 call	 ??2@YAPAXI@Z		; operator new
  00022	59		 pop	 ecx
  00023	85 c0		 test	 eax, eax

; 38   : 
; 39   : 	return ((_Ty _FARQ *)_Ptr);

  00025	75 26		 jne	 SHORT $LN5@Allocate@7
$LN1@Allocate@7:

; 37   : 		_THROW_NCEE(bad_alloc, 0);

  00027	83 65 08 00	 and	 DWORD PTR $T510420[ebp], 0
  0002b	8d 45 08	 lea	 eax, DWORD PTR $T510420[ebp]
  0002e	50		 push	 eax
  0002f	8d 4d f4	 lea	 ecx, DWORD PTR $T510416[ebp]
  00032	ff 15 00 00 00
	00		 call	 DWORD PTR __imp_??0exception@std@@QAE@ABQBD@Z
  00038	68 00 00 00 00	 push	 OFFSET __TI2?AVbad_alloc@std@@
  0003d	8d 45 f4	 lea	 eax, DWORD PTR $T510416[ebp]
  00040	50		 push	 eax
  00041	c7 45 f4 00 00
	00 00		 mov	 DWORD PTR $T510416[ebp], OFFSET ??_7bad_alloc@std@@6B@
  00048	e8 00 00 00 00	 call	 __CxxThrowException@8
$LN10@Allocate@7:
$LN5@Allocate@7:

; 40   : 	}

  0004d	c9		 leave
  0004e	c3		 ret	 0
$LN9@Allocate@7:
??$_Allocate@PAUTBlock@?$uni_heap@$0BE@$0IA@@@@std@@YAPAPAUTBlock@?$uni_heap@$0BE@$0IA@@@IPAPAU12@@Z ENDP ; std::_Allocate<uni_heap<20,128>::TBlock *>
_TEXT	ENDS
EXTRN	__imp_??0exception@std@@QAE@ABV01@@Z:PROC
; Function compile flags: /Ogsp
;	COMDAT ??0bad_alloc@std@@QAE@ABV01@@Z
_TEXT	SEGMENT
___that$ = 8						; size = 4
??0bad_alloc@std@@QAE@ABV01@@Z PROC			; std::bad_alloc::bad_alloc, COMDAT
; _this$ = ecx
  00000	55		 push	 ebp
  00001	8b ec		 mov	 ebp, esp
  00003	56		 push	 esi
  00004	ff 75 08	 push	 DWORD PTR ___that$[ebp]
  00007	8b f1		 mov	 esi, ecx
  00009	ff 15 00 00 00
	00		 call	 DWORD PTR __imp_??0exception@std@@QAE@ABV01@@Z
  0000f	c7 06 00 00 00
	00		 mov	 DWORD PTR [esi], OFFSET ??_7bad_alloc@std@@6B@
  00015	8b c6		 mov	 eax, esi
  00017	5e		 pop	 esi
  00018	5d		 pop	 ebp
  00019	c2 04 00	 ret	 4
??0bad_alloc@std@@QAE@ABV01@@Z ENDP			; std::bad_alloc::bad_alloc
_TEXT	ENDS
PUBLIC	?construct@?$allocator@PAUTBlock@?$uni_heap@$0BE@$0IA@@@@std@@QAEXPAPAUTBlock@?$uni_heap@$0BE@$0IA@@@$$QAPAU34@@Z ; std::allocator<uni_heap<20,128>::TBlock *>::construct
; Function compile flags: /Ogsp
;	COMDAT ?construct@?$allocator@PAUTBlock@?$uni_heap@$0BE@$0IA@@@@std@@QAEXPAPAUTBlock@?$uni_heap@$0BE@$0IA@@@$$QAPAU34@@Z
_TEXT	SEGMENT
__Ptr$ = 8						; size = 4
__Val$ = 12						; size = 4
?construct@?$allocator@PAUTBlock@?$uni_heap@$0BE@$0IA@@@@std@@QAEXPAPAUTBlock@?$uni_heap@$0BE@$0IA@@@$$QAPAU34@@Z PROC ; std::allocator<uni_heap<20,128>::TBlock *>::construct, COMDAT
; _this$ = ecx

; 201  : 		{	// construct object at _Ptr with value _Val

  00000	55		 push	 ebp
  00001	8b ec		 mov	 ebp, esp

; 202  : 		::new ((void _FARQ *)_Ptr) _Ty(_STD forward<_Ty>(_Val));

  00003	8b 45 08	 mov	 eax, DWORD PTR __Ptr$[ebp]
  00006	85 c0		 test	 eax, eax
  00008	74 07		 je	 SHORT $LN3@construct@6
  0000a	8b 4d 0c	 mov	 ecx, DWORD PTR __Val$[ebp]
  0000d	8b 09		 mov	 ecx, DWORD PTR [ecx]
  0000f	89 08		 mov	 DWORD PTR [eax], ecx
$LN3@construct@6:

; 203  : 		}

  00011	5d		 pop	 ebp
  00012	c2 08 00	 ret	 8
?construct@?$allocator@PAUTBlock@?$uni_heap@$0BE@$0IA@@@@std@@QAEXPAPAUTBlock@?$uni_heap@$0BE@$0IA@@@$$QAPAU34@@Z ENDP ; std::allocator<uni_heap<20,128>::TBlock *>::construct
_TEXT	ENDS
PUBLIC	??$forward@AAH@std@@YAAAHAAH@Z			; std::forward<int &>
; Function compile flags: /Ogsp
; File c:\program files (x86)\microsoft visual studio 10.0\vc\include\utility
;	COMDAT ??$forward@AAH@std@@YAAAHAAH@Z
_TEXT	SEGMENT
__Arg$ = 8						; size = 4
??$forward@AAH@std@@YAAAHAAH@Z PROC			; std::forward<int &>, COMDAT

; 78   : 	{	// forward _Arg, given explicitly specified type parameter

  00000	55		 push	 ebp
  00001	8b ec		 mov	 ebp, esp

; 79   : 	return ((_Ty&&)_Arg);

  00003	8b 45 08	 mov	 eax, DWORD PTR __Arg$[ebp]

; 80   : 	}

  00006	5d		 pop	 ebp
  00007	c3		 ret	 0
??$forward@AAH@std@@YAAAHAAH@Z ENDP			; std::forward<int &>
_TEXT	ENDS
PUBLIC	??$?8DD@std@@YA_NABV?$allocator@D@0@0@Z		; std::operator==<char,char>
; Function compile flags: /Ogsp
; File c:\program files (x86)\microsoft visual studio 10.0\vc\include\xmemory
;	COMDAT ??$?8DD@std@@YA_NABV?$allocator@D@0@0@Z
_TEXT	SEGMENT
___formal$ = 8						; size = 4
___formal$ = 12						; size = 4
??$?8DD@std@@YA_NABV?$allocator@D@0@0@Z PROC		; std::operator==<char,char>, COMDAT

; 263  : 	return (true);

  00000	b0 01		 mov	 al, 1

; 264  : 	}

  00002	c3		 ret	 0
??$?8DD@std@@YA_NABV?$allocator@D@0@0@Z ENDP		; std::operator==<char,char>
_TEXT	ENDS
PUBLIC	??$_Ptr_cat@FF@std@@YA?AU_Scalar_ptr_iterator_tag@0@PAF0@Z ; std::_Ptr_cat<short,short>
; Function compile flags: /Ogsp
; File c:\program files (x86)\microsoft visual studio 10.0\vc\include\xutility
;	COMDAT ??$_Ptr_cat@FF@std@@YA?AU_Scalar_ptr_iterator_tag@0@PAF0@Z
_TEXT	SEGMENT
__Cat$ = -1						; size = 1
___formal$ = 8						; size = 4
___formal$ = 12						; size = 4
??$_Ptr_cat@FF@std@@YA?AU_Scalar_ptr_iterator_tag@0@PAF0@Z PROC ; std::_Ptr_cat<short,short>, COMDAT

; 516  : 	{	// return pointer category from pointers

  00000	55		 push	 ebp
  00001	8b ec		 mov	 ebp, esp
  00003	51		 push	 ecx

; 517  : 	typename _Ptr_cat_helper<_Elem1, _Elem2>::_Type _Cat;
; 518  : 	return (_Cat);

  00004	8a 45 ff	 mov	 al, BYTE PTR __Cat$[ebp]

; 519  : 	}

  00007	c9		 leave
  00008	c3		 ret	 0
??$_Ptr_cat@FF@std@@YA?AU_Scalar_ptr_iterator_tag@0@PAF0@Z ENDP ; std::_Ptr_cat<short,short>
_TEXT	ENDS
PUBLIC	??$_Destroy_range@V?$allocator@F@std@@@std@@YAXPAF0AAV?$allocator@F@0@U_Scalar_ptr_iterator_tag@0@@Z ; std::_Destroy_range<std::allocator<short> >
; Function compile flags: /Ogsp
; File c:\program files (x86)\microsoft visual studio 10.0\vc\include\xmemory
;	COMDAT ??$_Destroy_range@V?$allocator@F@std@@@std@@YAXPAF0AAV?$allocator@F@0@U_Scalar_ptr_iterator_tag@0@@Z
_TEXT	SEGMENT
__First$ = 8						; size = 4
__Last$ = 12						; size = 4
__Al$ = 16						; size = 4
___formal$ = 20						; size = 1
??$_Destroy_range@V?$allocator@F@std@@@std@@YAXPAF0AAV?$allocator@F@0@U_Scalar_ptr_iterator_tag@0@@Z PROC ; std::_Destroy_range<std::allocator<short> >, COMDAT

; 105  : 	}

  00000	c3		 ret	 0
??$_Destroy_range@V?$allocator@F@std@@@std@@YAXPAF0AAV?$allocator@F@0@U_Scalar_ptr_iterator_tag@0@@Z ENDP ; std::_Destroy_range<std::allocator<short> >
_TEXT	ENDS
PUBLIC	??$_Ptr_cat@UBox@BoxSpace@@U12@@std@@YA?AU_Nonscalar_ptr_iterator_tag@0@PAUBox@BoxSpace@@0@Z ; std::_Ptr_cat<BoxSpace::Box,BoxSpace::Box>
; Function compile flags: /Ogsp
; File c:\program files (x86)\microsoft visual studio 10.0\vc\include\xutility
;	COMDAT ??$_Ptr_cat@UBox@BoxSpace@@U12@@std@@YA?AU_Nonscalar_ptr_iterator_tag@0@PAUBox@BoxSpace@@0@Z
_TEXT	SEGMENT
__Cat$ = -1						; size = 1
___formal$ = 8						; size = 4
___formal$ = 12						; size = 4
??$_Ptr_cat@UBox@BoxSpace@@U12@@std@@YA?AU_Nonscalar_ptr_iterator_tag@0@PAUBox@BoxSpace@@0@Z PROC ; std::_Ptr_cat<BoxSpace::Box,BoxSpace::Box>, COMDAT

; 516  : 	{	// return pointer category from pointers

  00000	55		 push	 ebp
  00001	8b ec		 mov	 ebp, esp
  00003	51		 push	 ecx

; 517  : 	typename _Ptr_cat_helper<_Elem1, _Elem2>::_Type _Cat;
; 518  : 	return (_Cat);

  00004	8a 45 ff	 mov	 al, BYTE PTR __Cat$[ebp]

; 519  : 	}

  00007	c9		 leave
  00008	c3		 ret	 0
??$_Ptr_cat@UBox@BoxSpace@@U12@@std@@YA?AU_Nonscalar_ptr_iterator_tag@0@PAUBox@BoxSpace@@0@Z ENDP ; std::_Ptr_cat<BoxSpace::Box,BoxSpace::Box>
_TEXT	ENDS
PUBLIC	??$_Ptr_cat@PAUDNode@?$AStarSearcher@VBoxSpace@@PAUBox@1@@@PAU12@@std@@YA?AU_Scalar_ptr_iterator_tag@0@PAPAUDNode@?$AStarSearcher@VBoxSpace@@PAUBox@1@@@0@Z ; std::_Ptr_cat<AStarSearcher<BoxSpace,BoxSpace::Box *>::DNode *,AStarSearcher<BoxSpace,BoxSpace::Box *>::DNode *>
; Function compile flags: /Ogsp
;	COMDAT ??$_Ptr_cat@PAUDNode@?$AStarSearcher@VBoxSpace@@PAUBox@1@@@PAU12@@std@@YA?AU_Scalar_ptr_iterator_tag@0@PAPAUDNode@?$AStarSearcher@VBoxSpace@@PAUBox@1@@@0@Z
_TEXT	SEGMENT
__Cat$ = -1						; size = 1
___formal$ = 8						; size = 4
___formal$ = 12						; size = 4
??$_Ptr_cat@PAUDNode@?$AStarSearcher@VBoxSpace@@PAUBox@1@@@PAU12@@std@@YA?AU_Scalar_ptr_iterator_tag@0@PAPAUDNode@?$AStarSearcher@VBoxSpace@@PAUBox@1@@@0@Z PROC ; std::_Ptr_cat<AStarSearcher<BoxSpace,BoxSpace::Box *>::DNode *,AStarSearcher<BoxSpace,BoxSpace::Box *>::DNode *>, COMDAT

; 516  : 	{	// return pointer category from pointers

  00000	55		 push	 ebp
  00001	8b ec		 mov	 ebp, esp
  00003	51		 push	 ecx

; 517  : 	typename _Ptr_cat_helper<_Elem1, _Elem2>::_Type _Cat;
; 518  : 	return (_Cat);

  00004	8a 45 ff	 mov	 al, BYTE PTR __Cat$[ebp]

; 519  : 	}

  00007	c9		 leave
  00008	c3		 ret	 0
??$_Ptr_cat@PAUDNode@?$AStarSearcher@VBoxSpace@@PAUBox@1@@@PAU12@@std@@YA?AU_Scalar_ptr_iterator_tag@0@PAPAUDNode@?$AStarSearcher@VBoxSpace@@PAUBox@1@@@0@Z ENDP ; std::_Ptr_cat<AStarSearcher<BoxSpace,BoxSpace::Box *>::DNode *,AStarSearcher<BoxSpace,BoxSpace::Box *>::DNode *>
_TEXT	ENDS
PUBLIC	??$_Destroy_range@V?$allocator@PAUDNode@?$AStarSearcher@VBoxSpace@@PAUBox@1@@@@std@@@std@@YAXPAPAUDNode@?$AStarSearcher@VBoxSpace@@PAUBox@1@@@0AAV?$allocator@PAUDNode@?$AStarSearcher@VBoxSpace@@PAUBox@1@@@@0@U_Scalar_ptr_iterator_tag@0@@Z ; std::_Destroy_range<std::allocator<AStarSearcher<BoxSpace,BoxSpace::Box *>::DNode *> >
; Function compile flags: /Ogsp
; File c:\program files (x86)\microsoft visual studio 10.0\vc\include\xmemory
;	COMDAT ??$_Destroy_range@V?$allocator@PAUDNode@?$AStarSearcher@VBoxSpace@@PAUBox@1@@@@std@@@std@@YAXPAPAUDNode@?$AStarSearcher@VBoxSpace@@PAUBox@1@@@0AAV?$allocator@PAUDNode@?$AStarSearcher@VBoxSpace@@PAUBox@1@@@@0@U_Scalar_ptr_iterator_tag@0@@Z
_TEXT	SEGMENT
__First$ = 8						; size = 4
__Last$ = 12						; size = 4
__Al$ = 16						; size = 4
___formal$ = 20						; size = 1
??$_Destroy_range@V?$allocator@PAUDNode@?$AStarSearcher@VBoxSpace@@PAUBox@1@@@@std@@@std@@YAXPAPAUDNode@?$AStarSearcher@VBoxSpace@@PAUBox@1@@@0AAV?$allocator@PAUDNode@?$AStarSearcher@VBoxSpace@@PAUBox@1@@@@0@U_Scalar_ptr_iterator_tag@0@@Z PROC ; std::_Destroy_range<std::allocator<AStarSearcher<BoxSpace,BoxSpace::Box *>::DNode *> >, COMDAT

; 105  : 	}

  00000	c3		 ret	 0
??$_Destroy_range@V?$allocator@PAUDNode@?$AStarSearcher@VBoxSpace@@PAUBox@1@@@@std@@@std@@YAXPAPAUDNode@?$AStarSearcher@VBoxSpace@@PAUBox@1@@@0AAV?$allocator@PAUDNode@?$AStarSearcher@VBoxSpace@@PAUBox@1@@@@0@U_Scalar_ptr_iterator_tag@0@@Z ENDP ; std::_Destroy_range<std::allocator<AStarSearcher<BoxSpace,BoxSpace::Box *>::DNode *> >
_TEXT	ENDS
PUBLIC	??$_Ptr_cat@PBQAUBox@BoxSpace@@PBQAU12@@std@@YA?AU_Scalar_ptr_iterator_tag@0@PAPBQAUBox@BoxSpace@@0@Z ; std::_Ptr_cat<BoxSpace::Box * const *,BoxSpace::Box * const *>
; Function compile flags: /Ogsp
; File c:\program files (x86)\microsoft visual studio 10.0\vc\include\xutility
;	COMDAT ??$_Ptr_cat@PBQAUBox@BoxSpace@@PBQAU12@@std@@YA?AU_Scalar_ptr_iterator_tag@0@PAPBQAUBox@BoxSpace@@0@Z
_TEXT	SEGMENT
__Cat$ = -1						; size = 1
___formal$ = 8						; size = 4
___formal$ = 12						; size = 4
??$_Ptr_cat@PBQAUBox@BoxSpace@@PBQAU12@@std@@YA?AU_Scalar_ptr_iterator_tag@0@PAPBQAUBox@BoxSpace@@0@Z PROC ; std::_Ptr_cat<BoxSpace::Box * const *,BoxSpace::Box * const *>, COMDAT

; 516  : 	{	// return pointer category from pointers

  00000	55		 push	 ebp
  00001	8b ec		 mov	 ebp, esp
  00003	51		 push	 ecx

; 517  : 	typename _Ptr_cat_helper<_Elem1, _Elem2>::_Type _Cat;
; 518  : 	return (_Cat);

  00004	8a 45 ff	 mov	 al, BYTE PTR __Cat$[ebp]

; 519  : 	}

  00007	c9		 leave
  00008	c3		 ret	 0
??$_Ptr_cat@PBQAUBox@BoxSpace@@PBQAU12@@std@@YA?AU_Scalar_ptr_iterator_tag@0@PAPBQAUBox@BoxSpace@@0@Z ENDP ; std::_Ptr_cat<BoxSpace::Box * const *,BoxSpace::Box * const *>
_TEXT	ENDS
PUBLIC	??$_Move@PAPBQAUBox@BoxSpace@@PAPBQAU12@@std@@YAPAPBQAUBox@BoxSpace@@PAPBQAU12@00U_Scalar_ptr_iterator_tag@0@@Z ; std::_Move<BoxSpace::Box * const * *,BoxSpace::Box * const * *>
; Function compile flags: /Ogsp
;	COMDAT ??$_Move@PAPBQAUBox@BoxSpace@@PAPBQAU12@@std@@YAPAPBQAUBox@BoxSpace@@PAPBQAU12@00U_Scalar_ptr_iterator_tag@0@@Z
_TEXT	SEGMENT
__First$ = 8						; size = 4
__Last$ = 12						; size = 4
__Dest$ = 16						; size = 4
___formal$ = 20						; size = 1
??$_Move@PAPBQAUBox@BoxSpace@@PAPBQAU12@@std@@YAPAPBQAUBox@BoxSpace@@PAPBQAU12@00U_Scalar_ptr_iterator_tag@0@@Z PROC ; std::_Move<BoxSpace::Box * const * *,BoxSpace::Box * const * *>, COMDAT

; 2522 : 	{	// move [_First, _Last) to [_Dest, ...), pointers to scalars

  00000	55		 push	 ebp
  00001	8b ec		 mov	 ebp, esp
  00003	56		 push	 esi

; 2523 : 	ptrdiff_t _Count = _Last - _First;

  00004	8b 75 0c	 mov	 esi, DWORD PTR __Last$[ebp]
  00007	2b 75 08	 sub	 esi, DWORD PTR __First$[ebp]
  0000a	57		 push	 edi

; 2524 : 	_CSTD memmove(&*_Dest, &*_First,
; 2525 : 		_Count * sizeof (*_First));

  0000b	8b 7d 10	 mov	 edi, DWORD PTR __Dest$[ebp]
  0000e	c1 fe 02	 sar	 esi, 2
  00011	c1 e6 02	 shl	 esi, 2
  00014	56		 push	 esi
  00015	ff 75 08	 push	 DWORD PTR __First$[ebp]
  00018	57		 push	 edi
  00019	ff 15 00 00 00
	00		 call	 DWORD PTR __imp__memmove
  0001f	83 c4 0c	 add	 esp, 12			; 0000000cH

; 2526 : 	return (_Dest + _Count);

  00022	8d 04 3e	 lea	 eax, DWORD PTR [esi+edi]
  00025	5f		 pop	 edi
  00026	5e		 pop	 esi

; 2527 : 	}

  00027	5d		 pop	 ebp
  00028	c3		 ret	 0
??$_Move@PAPBQAUBox@BoxSpace@@PAPBQAU12@@std@@YAPAPBQAUBox@BoxSpace@@PAPBQAU12@00U_Scalar_ptr_iterator_tag@0@@Z ENDP ; std::_Move<BoxSpace::Box * const * *,BoxSpace::Box * const * *>
_TEXT	ENDS
PUBLIC	??$_Destroy_range@V?$allocator@PBQAUBox@BoxSpace@@@std@@@std@@YAXPAPBQAUBox@BoxSpace@@0AAV?$allocator@PBQAUBox@BoxSpace@@@0@U_Scalar_ptr_iterator_tag@0@@Z ; std::_Destroy_range<std::allocator<BoxSpace::Box * const *> >
; Function compile flags: /Ogsp
; File c:\program files (x86)\microsoft visual studio 10.0\vc\include\xmemory
;	COMDAT ??$_Destroy_range@V?$allocator@PBQAUBox@BoxSpace@@@std@@@std@@YAXPAPBQAUBox@BoxSpace@@0AAV?$allocator@PBQAUBox@BoxSpace@@@0@U_Scalar_ptr_iterator_tag@0@@Z
_TEXT	SEGMENT
__First$ = 8						; size = 4
__Last$ = 12						; size = 4
__Al$ = 16						; size = 4
___formal$ = 20						; size = 1
??$_Destroy_range@V?$allocator@PBQAUBox@BoxSpace@@@std@@@std@@YAXPAPBQAUBox@BoxSpace@@0AAV?$allocator@PBQAUBox@BoxSpace@@@0@U_Scalar_ptr_iterator_tag@0@@Z PROC ; std::_Destroy_range<std::allocator<BoxSpace::Box * const *> >, COMDAT

; 105  : 	}

  00000	c3		 ret	 0
??$_Destroy_range@V?$allocator@PBQAUBox@BoxSpace@@@std@@@std@@YAXPAPBQAUBox@BoxSpace@@0AAV?$allocator@PBQAUBox@BoxSpace@@@0@U_Scalar_ptr_iterator_tag@0@@Z ENDP ; std::_Destroy_range<std::allocator<BoxSpace::Box * const *> >
_TEXT	ENDS
PUBLIC	??$_Ptr_cat@PAUTBlock@?$uni_heap@$0BE@$0IA@@@PAU12@@std@@YA?AU_Scalar_ptr_iterator_tag@0@PAPAUTBlock@?$uni_heap@$0BE@$0IA@@@0@Z ; std::_Ptr_cat<uni_heap<20,128>::TBlock *,uni_heap<20,128>::TBlock *>
; Function compile flags: /Ogsp
; File c:\program files (x86)\microsoft visual studio 10.0\vc\include\xutility
;	COMDAT ??$_Ptr_cat@PAUTBlock@?$uni_heap@$0BE@$0IA@@@PAU12@@std@@YA?AU_Scalar_ptr_iterator_tag@0@PAPAUTBlock@?$uni_heap@$0BE@$0IA@@@0@Z
_TEXT	SEGMENT
__Cat$ = -1						; size = 1
___formal$ = 8						; size = 4
___formal$ = 12						; size = 4
??$_Ptr_cat@PAUTBlock@?$uni_heap@$0BE@$0IA@@@PAU12@@std@@YA?AU_Scalar_ptr_iterator_tag@0@PAPAUTBlock@?$uni_heap@$0BE@$0IA@@@0@Z PROC ; std::_Ptr_cat<uni_heap<20,128>::TBlock *,uni_heap<20,128>::TBlock *>, COMDAT

; 516  : 	{	// return pointer category from pointers

  00000	55		 push	 ebp
  00001	8b ec		 mov	 ebp, esp
  00003	51		 push	 ecx

; 517  : 	typename _Ptr_cat_helper<_Elem1, _Elem2>::_Type _Cat;
; 518  : 	return (_Cat);

  00004	8a 45 ff	 mov	 al, BYTE PTR __Cat$[ebp]

; 519  : 	}

  00007	c9		 leave
  00008	c3		 ret	 0
??$_Ptr_cat@PAUTBlock@?$uni_heap@$0BE@$0IA@@@PAU12@@std@@YA?AU_Scalar_ptr_iterator_tag@0@PAPAUTBlock@?$uni_heap@$0BE@$0IA@@@0@Z ENDP ; std::_Ptr_cat<uni_heap<20,128>::TBlock *,uni_heap<20,128>::TBlock *>
_TEXT	ENDS
PUBLIC	??$_Destroy_range@V?$allocator@PAUTBlock@?$uni_heap@$0BE@$0IA@@@@std@@@std@@YAXPAPAUTBlock@?$uni_heap@$0BE@$0IA@@@0AAV?$allocator@PAUTBlock@?$uni_heap@$0BE@$0IA@@@@0@U_Scalar_ptr_iterator_tag@0@@Z ; std::_Destroy_range<std::allocator<uni_heap<20,128>::TBlock *> >
; Function compile flags: /Ogsp
; File c:\program files (x86)\microsoft visual studio 10.0\vc\include\xmemory
;	COMDAT ??$_Destroy_range@V?$allocator@PAUTBlock@?$uni_heap@$0BE@$0IA@@@@std@@@std@@YAXPAPAUTBlock@?$uni_heap@$0BE@$0IA@@@0AAV?$allocator@PAUTBlock@?$uni_heap@$0BE@$0IA@@@@0@U_Scalar_ptr_iterator_tag@0@@Z
_TEXT	SEGMENT
__First$ = 8						; size = 4
__Last$ = 12						; size = 4
__Al$ = 16						; size = 4
___formal$ = 20						; size = 1
??$_Destroy_range@V?$allocator@PAUTBlock@?$uni_heap@$0BE@$0IA@@@@std@@@std@@YAXPAPAUTBlock@?$uni_heap@$0BE@$0IA@@@0AAV?$allocator@PAUTBlock@?$uni_heap@$0BE@$0IA@@@@0@U_Scalar_ptr_iterator_tag@0@@Z PROC ; std::_Destroy_range<std::allocator<uni_heap<20,128>::TBlock *> >, COMDAT

; 105  : 	}

  00000	c3		 ret	 0
??$_Destroy_range@V?$allocator@PAUTBlock@?$uni_heap@$0BE@$0IA@@@@std@@@std@@YAXPAPAUTBlock@?$uni_heap@$0BE@$0IA@@@0AAV?$allocator@PAUTBlock@?$uni_heap@$0BE@$0IA@@@@0@U_Scalar_ptr_iterator_tag@0@@Z ENDP ; std::_Destroy_range<std::allocator<uni_heap<20,128>::TBlock *> >
_TEXT	ENDS
PUBLIC	??$_Move@PAPAUDNode@?$AStarSearcher@VBoxSpace@@PAUBox@1@@@PAPAU12@@std@@YAPAPAUDNode@?$AStarSearcher@VBoxSpace@@PAUBox@1@@@PAPAU12@00U_Scalar_ptr_iterator_tag@0@@Z ; std::_Move<AStarSearcher<BoxSpace,BoxSpace::Box *>::DNode * *,AStarSearcher<BoxSpace,BoxSpace::Box *>::DNode * *>
; Function compile flags: /Ogsp
; File c:\program files (x86)\microsoft visual studio 10.0\vc\include\xutility
;	COMDAT ??$_Move@PAPAUDNode@?$AStarSearcher@VBoxSpace@@PAUBox@1@@@PAPAU12@@std@@YAPAPAUDNode@?$AStarSearcher@VBoxSpace@@PAUBox@1@@@PAPAU12@00U_Scalar_ptr_iterator_tag@0@@Z
_TEXT	SEGMENT
__First$ = 8						; size = 4
__Last$ = 12						; size = 4
__Dest$ = 16						; size = 4
___formal$ = 20						; size = 1
??$_Move@PAPAUDNode@?$AStarSearcher@VBoxSpace@@PAUBox@1@@@PAPAU12@@std@@YAPAPAUDNode@?$AStarSearcher@VBoxSpace@@PAUBox@1@@@PAPAU12@00U_Scalar_ptr_iterator_tag@0@@Z PROC ; std::_Move<AStarSearcher<BoxSpace,BoxSpace::Box *>::DNode * *,AStarSearcher<BoxSpace,BoxSpace::Box *>::DNode * *>, COMDAT

; 2522 : 	{	// move [_First, _Last) to [_Dest, ...), pointers to scalars

  00000	55		 push	 ebp
  00001	8b ec		 mov	 ebp, esp
  00003	56		 push	 esi

; 2523 : 	ptrdiff_t _Count = _Last - _First;

  00004	8b 75 0c	 mov	 esi, DWORD PTR __Last$[ebp]
  00007	2b 75 08	 sub	 esi, DWORD PTR __First$[ebp]
  0000a	57		 push	 edi

; 2524 : 	_CSTD memmove(&*_Dest, &*_First,
; 2525 : 		_Count * sizeof (*_First));

  0000b	8b 7d 10	 mov	 edi, DWORD PTR __Dest$[ebp]
  0000e	c1 fe 02	 sar	 esi, 2
  00011	c1 e6 02	 shl	 esi, 2
  00014	56		 push	 esi
  00015	ff 75 08	 push	 DWORD PTR __First$[ebp]
  00018	57		 push	 edi
  00019	ff 15 00 00 00
	00		 call	 DWORD PTR __imp__memmove
  0001f	83 c4 0c	 add	 esp, 12			; 0000000cH

; 2526 : 	return (_Dest + _Count);

  00022	8d 04 3e	 lea	 eax, DWORD PTR [esi+edi]
  00025	5f		 pop	 edi
  00026	5e		 pop	 esi

; 2527 : 	}

  00027	5d		 pop	 ebp
  00028	c3		 ret	 0
??$_Move@PAPAUDNode@?$AStarSearcher@VBoxSpace@@PAUBox@1@@@PAPAU12@@std@@YAPAPAUDNode@?$AStarSearcher@VBoxSpace@@PAUBox@1@@@PAPAU12@00U_Scalar_ptr_iterator_tag@0@@Z ENDP ; std::_Move<AStarSearcher<BoxSpace,BoxSpace::Box *>::DNode * *,AStarSearcher<BoxSpace,BoxSpace::Box *>::DNode * *>
_TEXT	ENDS
PUBLIC	??$_Move@PAPAUTBlock@?$uni_heap@$0BE@$0IA@@@PAPAU12@@std@@YAPAPAUTBlock@?$uni_heap@$0BE@$0IA@@@PAPAU12@00U_Scalar_ptr_iterator_tag@0@@Z ; std::_Move<uni_heap<20,128>::TBlock * *,uni_heap<20,128>::TBlock * *>
; Function compile flags: /Ogsp
;	COMDAT ??$_Move@PAPAUTBlock@?$uni_heap@$0BE@$0IA@@@PAPAU12@@std@@YAPAPAUTBlock@?$uni_heap@$0BE@$0IA@@@PAPAU12@00U_Scalar_ptr_iterator_tag@0@@Z
_TEXT	SEGMENT
__First$ = 8						; size = 4
__Last$ = 12						; size = 4
__Dest$ = 16						; size = 4
___formal$ = 20						; size = 1
??$_Move@PAPAUTBlock@?$uni_heap@$0BE@$0IA@@@PAPAU12@@std@@YAPAPAUTBlock@?$uni_heap@$0BE@$0IA@@@PAPAU12@00U_Scalar_ptr_iterator_tag@0@@Z PROC ; std::_Move<uni_heap<20,128>::TBlock * *,uni_heap<20,128>::TBlock * *>, COMDAT

; 2522 : 	{	// move [_First, _Last) to [_Dest, ...), pointers to scalars

  00000	55		 push	 ebp
  00001	8b ec		 mov	 ebp, esp
  00003	56		 push	 esi

; 2523 : 	ptrdiff_t _Count = _Last - _First;

  00004	8b 75 0c	 mov	 esi, DWORD PTR __Last$[ebp]
  00007	2b 75 08	 sub	 esi, DWORD PTR __First$[ebp]
  0000a	57		 push	 edi

; 2524 : 	_CSTD memmove(&*_Dest, &*_First,
; 2525 : 		_Count * sizeof (*_First));

  0000b	8b 7d 10	 mov	 edi, DWORD PTR __Dest$[ebp]
  0000e	c1 fe 02	 sar	 esi, 2
  00011	c1 e6 02	 shl	 esi, 2
  00014	56		 push	 esi
  00015	ff 75 08	 push	 DWORD PTR __First$[ebp]
  00018	57		 push	 edi
  00019	ff 15 00 00 00
	00		 call	 DWORD PTR __imp__memmove
  0001f	83 c4 0c	 add	 esp, 12			; 0000000cH

; 2526 : 	return (_Dest + _Count);

  00022	8d 04 3e	 lea	 eax, DWORD PTR [esi+edi]
  00025	5f		 pop	 edi
  00026	5e		 pop	 esi

; 2527 : 	}

  00027	5d		 pop	 ebp
  00028	c3		 ret	 0
??$_Move@PAPAUTBlock@?$uni_heap@$0BE@$0IA@@@PAPAU12@@std@@YAPAPAUTBlock@?$uni_heap@$0BE@$0IA@@@PAPAU12@00U_Scalar_ptr_iterator_tag@0@@Z ENDP ; std::_Move<uni_heap<20,128>::TBlock * *,uni_heap<20,128>::TBlock * *>
_TEXT	ENDS
PUBLIC	??$_Val_type@PAPAUTBlock@?$uni_heap@$0BE@$0IA@@@@std@@YAPAPAUTBlock@?$uni_heap@$0BE@$0IA@@@PAPAU12@@Z ; std::_Val_type<uni_heap<20,128>::TBlock * *>
; Function compile flags: /Ogsp
;	COMDAT ??$_Val_type@PAPAUTBlock@?$uni_heap@$0BE@$0IA@@@@std@@YAPAPAUTBlock@?$uni_heap@$0BE@$0IA@@@PAPAU12@@Z
_TEXT	SEGMENT
___formal$ = 8						; size = 4
??$_Val_type@PAPAUTBlock@?$uni_heap@$0BE@$0IA@@@@std@@YAPAPAUTBlock@?$uni_heap@$0BE@$0IA@@@PAPAU12@@Z PROC ; std::_Val_type<uni_heap<20,128>::TBlock * *>, COMDAT

; 790  : 	return (0);

  00000	33 c0		 xor	 eax, eax

; 791  : 	}

  00002	c3		 ret	 0
??$_Val_type@PAPAUTBlock@?$uni_heap@$0BE@$0IA@@@@std@@YAPAPAUTBlock@?$uni_heap@$0BE@$0IA@@@PAPAU12@@Z ENDP ; std::_Val_type<uni_heap<20,128>::TBlock * *>
_TEXT	ENDS
PUBLIC	??$_Uninit_move@PAUTBlock@?$uni_heap@$0BE@$0IA@@@PAU12@PAU12@@std@@YAPAPAUTBlock@?$uni_heap@$0BE@$0IA@@@PAPAU12@00AAV?$allocator@PAUTBlock@?$uni_heap@$0BE@$0IA@@@@0@0U_Scalar_ptr_iterator_tag@0@@Z ; std::_Uninit_move<uni_heap<20,128>::TBlock *,uni_heap<20,128>::TBlock *,uni_heap<20,128>::TBlock *>
; Function compile flags: /Ogsp
; File c:\program files (x86)\microsoft visual studio 10.0\vc\include\memory
;	COMDAT ??$_Uninit_move@PAUTBlock@?$uni_heap@$0BE@$0IA@@@PAU12@PAU12@@std@@YAPAPAUTBlock@?$uni_heap@$0BE@$0IA@@@PAPAU12@00AAV?$allocator@PAUTBlock@?$uni_heap@$0BE@$0IA@@@@0@0U_Scalar_ptr_iterator_tag@0@@Z
_TEXT	SEGMENT
__First$ = 8						; size = 4
__Last$ = 12						; size = 4
__Dest$ = 16						; size = 4
___formal$ = 20						; size = 4
___formal$ = 24						; size = 4
___formal$ = 28						; size = 1
??$_Uninit_move@PAUTBlock@?$uni_heap@$0BE@$0IA@@@PAU12@PAU12@@std@@YAPAPAUTBlock@?$uni_heap@$0BE@$0IA@@@PAPAU12@00AAV?$allocator@PAUTBlock@?$uni_heap@$0BE@$0IA@@@@0@0U_Scalar_ptr_iterator_tag@0@@Z PROC ; std::_Uninit_move<uni_heap<20,128>::TBlock *,uni_heap<20,128>::TBlock *,uni_heap<20,128>::TBlock *>, COMDAT

; 456  : 	{	// move [_First, _Last) to raw _Dest, scalar type

  00000	55		 push	 ebp
  00001	8b ec		 mov	 ebp, esp
  00003	56		 push	 esi

; 457  : 	_DEBUG_RANGE(_First, _Last);
; 458  : 	_DEBUG_POINTER(_Dest);
; 459  : 	size_t _Count = (size_t)(_Last - _First);

  00004	8b 75 0c	 mov	 esi, DWORD PTR __Last$[ebp]
  00007	2b 75 08	 sub	 esi, DWORD PTR __First$[ebp]
  0000a	c1 fe 02	 sar	 esi, 2

; 460  : 	return ((_Ty2 *)_CSTD memmove(&*_Dest, &*_First,
; 461  : 		_Count * sizeof (*_First)) + _Count);	// NB: non-overlapping move

  0000d	c1 e6 02	 shl	 esi, 2
  00010	56		 push	 esi
  00011	ff 75 08	 push	 DWORD PTR __First$[ebp]
  00014	ff 75 10	 push	 DWORD PTR __Dest$[ebp]
  00017	ff 15 00 00 00
	00		 call	 DWORD PTR __imp__memmove
  0001d	83 c4 0c	 add	 esp, 12			; 0000000cH
  00020	03 c6		 add	 eax, esi
  00022	5e		 pop	 esi

; 462  : 	}

  00023	5d		 pop	 ebp
  00024	c3		 ret	 0
??$_Uninit_move@PAUTBlock@?$uni_heap@$0BE@$0IA@@@PAU12@PAU12@@std@@YAPAPAUTBlock@?$uni_heap@$0BE@$0IA@@@PAPAU12@00AAV?$allocator@PAUTBlock@?$uni_heap@$0BE@$0IA@@@@0@0U_Scalar_ptr_iterator_tag@0@@Z ENDP ; std::_Uninit_move<uni_heap<20,128>::TBlock *,uni_heap<20,128>::TBlock *,uni_heap<20,128>::TBlock *>
_TEXT	ENDS
PUBLIC	??1?$_Vector_val@ULink@BoxSpace@@V?$allocator@ULink@BoxSpace@@@std@@@std@@QAE@XZ ; std::_Vector_val<BoxSpace::Link,std::allocator<BoxSpace::Link> >::~_Vector_val<BoxSpace::Link,std::allocator<BoxSpace::Link> >
; Function compile flags: /Ogsp
; File c:\program files (x86)\microsoft visual studio 10.0\vc\include\vector
;	COMDAT ??1?$_Vector_val@ULink@BoxSpace@@V?$allocator@ULink@BoxSpace@@@std@@@std@@QAE@XZ
_TEXT	SEGMENT
??1?$_Vector_val@ULink@BoxSpace@@V?$allocator@ULink@BoxSpace@@@std@@@std@@QAE@XZ PROC ; std::_Vector_val<BoxSpace::Link,std::allocator<BoxSpace::Link> >::~_Vector_val<BoxSpace::Link,std::allocator<BoxSpace::Link> >, COMDAT
; _this$ = ecx

; 434  : 		}

  00000	c3		 ret	 0
??1?$_Vector_val@ULink@BoxSpace@@V?$allocator@ULink@BoxSpace@@@std@@@std@@QAE@XZ ENDP ; std::_Vector_val<BoxSpace::Link,std::allocator<BoxSpace::Link> >::~_Vector_val<BoxSpace::Link,std::allocator<BoxSpace::Link> >
_TEXT	ENDS
PUBLIC	?deallocate@?$allocator@ULink@BoxSpace@@@std@@QAEXPAULink@BoxSpace@@I@Z ; std::allocator<BoxSpace::Link>::deallocate
; Function compile flags: /Ogsp
; File c:\program files (x86)\microsoft visual studio 10.0\vc\include\xmemory
;	COMDAT ?deallocate@?$allocator@ULink@BoxSpace@@@std@@QAEXPAULink@BoxSpace@@I@Z
_TEXT	SEGMENT
__Ptr$ = 8						; size = 4
___formal$ = 12						; size = 4
?deallocate@?$allocator@ULink@BoxSpace@@@std@@QAEXPAULink@BoxSpace@@I@Z PROC ; std::allocator<BoxSpace::Link>::deallocate, COMDAT
; _this$ = ecx

; 181  : 		{	// deallocate object at _Ptr, ignore size

  00000	55		 push	 ebp
  00001	8b ec		 mov	 ebp, esp

; 182  : 		::operator delete(_Ptr);

  00003	ff 75 08	 push	 DWORD PTR __Ptr$[ebp]
  00006	e8 00 00 00 00	 call	 ??3@YAXPAX@Z		; operator delete
  0000b	59		 pop	 ecx

; 183  : 		}

  0000c	5d		 pop	 ebp
  0000d	c2 08 00	 ret	 8
?deallocate@?$allocator@ULink@BoxSpace@@@std@@QAEXPAULink@BoxSpace@@I@Z ENDP ; std::allocator<BoxSpace::Link>::deallocate
_TEXT	ENDS
PUBLIC	??$_Ptr_cat@ULink@BoxSpace@@U12@@std@@YA?AU_Nonscalar_ptr_iterator_tag@0@PAULink@BoxSpace@@0@Z ; std::_Ptr_cat<BoxSpace::Link,BoxSpace::Link>
; Function compile flags: /Ogsp
; File c:\program files (x86)\microsoft visual studio 10.0\vc\include\xutility
;	COMDAT ??$_Ptr_cat@ULink@BoxSpace@@U12@@std@@YA?AU_Nonscalar_ptr_iterator_tag@0@PAULink@BoxSpace@@0@Z
_TEXT	SEGMENT
__Cat$ = -1						; size = 1
___formal$ = 8						; size = 4
___formal$ = 12						; size = 4
??$_Ptr_cat@ULink@BoxSpace@@U12@@std@@YA?AU_Nonscalar_ptr_iterator_tag@0@PAULink@BoxSpace@@0@Z PROC ; std::_Ptr_cat<BoxSpace::Link,BoxSpace::Link>, COMDAT

; 516  : 	{	// return pointer category from pointers

  00000	55		 push	 ebp
  00001	8b ec		 mov	 ebp, esp
  00003	51		 push	 ecx

; 517  : 	typename _Ptr_cat_helper<_Elem1, _Elem2>::_Type _Cat;
; 518  : 	return (_Cat);

  00004	8a 45 ff	 mov	 al, BYTE PTR __Cat$[ebp]

; 519  : 	}

  00007	c9		 leave
  00008	c3		 ret	 0
??$_Ptr_cat@ULink@BoxSpace@@U12@@std@@YA?AU_Nonscalar_ptr_iterator_tag@0@PAULink@BoxSpace@@0@Z ENDP ; std::_Ptr_cat<BoxSpace::Link,BoxSpace::Link>
_TEXT	ENDS
PUBLIC	??$_Destroy@ULink@BoxSpace@@@std@@YAXPAULink@BoxSpace@@@Z ; std::_Destroy<BoxSpace::Link>
; Function compile flags: /Ogsp
; File c:\program files (x86)\microsoft visual studio 10.0\vc\include\xmemory
;	COMDAT ??$_Destroy@ULink@BoxSpace@@@std@@YAXPAULink@BoxSpace@@@Z
_TEXT	SEGMENT
__Ptr$ = 8						; size = 4
??$_Destroy@ULink@BoxSpace@@@std@@YAXPAULink@BoxSpace@@@Z PROC ; std::_Destroy<BoxSpace::Link>, COMDAT

; 63   : 	_Ptr->~_Ty();
; 64   : 	}

  00000	c3		 ret	 0
??$_Destroy@ULink@BoxSpace@@@std@@YAXPAULink@BoxSpace@@@Z ENDP ; std::_Destroy<BoxSpace::Link>
_TEXT	ENDS
PUBLIC	__mask@@AbsDouble@
;	COMDAT __mask@@AbsDouble@
; File c:\program files (x86)\microsoft visual studio 10.0\vc\include\math.h
CONST	SEGMENT
__mask@@AbsDouble@ DB 0ffH, 0ffH, 0ffH, 0ffH, 0ffH, 0ffH, 0ffH, 07fH, 0ffH
	DB	0ffH, 0ffH, 0ffH, 0ffH, 0ffH, 0ffH, 07fH
; Function compile flags: /Ogsp
; File d:\lost saga for developer\youtube\tutorial\source\src\lsclient\boxgraph.cpp
CONST	ENDS
;	COMDAT ?getXYDist@@YAMABUD3DXVECTOR3@@0@Z
_TEXT	SEGMENT
?getXYDist@@YAMABUD3DXVECTOR3@@0@Z PROC			; getXYDist, COMDAT
; _p$ = ecx
; _q$ = eax

; 11   : 	float dx = abs( p.x - q.x ), dy = abs( p.y - q.y );

  00000	f3 0f 10 01	 movss	 xmm0, DWORD PTR [ecx]
  00004	f3 0f 10 08	 movss	 xmm1, DWORD PTR [eax]
  00008	f3 0f 10 51 04	 movss	 xmm2, DWORD PTR [ecx+4]
  0000d	f3 0f 10 58 04	 movss	 xmm3, DWORD PTR [eax+4]
  00012	0f 5a d2	 cvtps2pd xmm2, xmm2
  00015	0f 5a c9	 cvtps2pd xmm1, xmm1
  00018	0f 5a c0	 cvtps2pd xmm0, xmm0
  0001b	f2 0f 5c c1	 subsd	 xmm0, xmm1
  0001f	0f 5a db	 cvtps2pd xmm3, xmm3
  00022	f2 0f 5c d3	 subsd	 xmm2, xmm3
  00026	66 0f 5a d2	 cvtpd2ps xmm2, xmm2
  0002a	66 0f 5a c0	 cvtpd2ps xmm0, xmm0
  0002e	0f 57 c9	 xorps	 xmm1, xmm1
  00031	f3 0f 5a c8	 cvtss2sd xmm1, xmm0
  00035	66 0f 54 0d 00
	00 00 00	 andpd	 xmm1, QWORD PTR __mask@@AbsDouble@
  0003d	f3 0f 5a d2	 cvtss2sd xmm2, xmm2
  00041	66 0f 54 15 00
	00 00 00	 andpd	 xmm2, QWORD PTR __mask@@AbsDouble@
  00049	0f 57 c0	 xorps	 xmm0, xmm0
  0004c	f2 0f 5a c2	 cvtsd2ss xmm0, xmm2
  00050	f2 0f 5a c9	 cvtsd2ss xmm1, xmm1

; 12   : 	if ( dx > dy ) 

  00054	0f 57 d2	 xorps	 xmm2, xmm2
  00057	f3 0f 5a d1	 cvtss2sd xmm2, xmm1
  0005b	0f 5a d8	 cvtps2pd xmm3, xmm0
  0005e	66 0f 2f d3	 comisd	 xmm2, xmm3
  00062	76 22		 jbe	 SHORT $LN2@getXYDist

; 13   : 		return dy*1.414f + (dx-dy);

  00064	0f 5a d0	 cvtps2pd xmm2, xmm0
  00067	0f 5a c0	 cvtps2pd xmm0, xmm0
  0006a	f2 0f 59 05 00
	00 00 00	 mulsd	 xmm0, QWORD PTR __real@3ff69fbe80000000
  00072	f3 0f 5a c9	 cvtss2sd xmm1, xmm1
  00076	f2 0f 5c ca	 subsd	 xmm1, xmm2
  0007a	f2 0f 58 c8	 addsd	 xmm1, xmm0
  0007e	0f 57 c0	 xorps	 xmm0, xmm0
  00081	f2 0f 5a c1	 cvtsd2ss xmm0, xmm1

; 16   : }

  00085	c3		 ret	 0
$LN2@getXYDist:

; 14   : 	else
; 15   : 		return dx*1.414f + (dy-dx);

  00086	0f 5a c0	 cvtps2pd xmm0, xmm0
  00089	0f 57 d2	 xorps	 xmm2, xmm2
  0008c	f3 0f 5a d1	 cvtss2sd xmm2, xmm1
  00090	f2 0f 5c c2	 subsd	 xmm0, xmm2
  00094	f3 0f 5a c9	 cvtss2sd xmm1, xmm1
  00098	f2 0f 59 0d 00
	00 00 00	 mulsd	 xmm1, QWORD PTR __real@3ff69fbe80000000
  000a0	f2 0f 58 c1	 addsd	 xmm0, xmm1
  000a4	66 0f 5a c0	 cvtpd2ps xmm0, xmm0

; 16   : }

  000a8	c3		 ret	 0
?getXYDist@@YAMABUD3DXVECTOR3@@0@Z ENDP			; getXYDist
; Function compile flags: /Ogsp
_TEXT	ENDS
;	COMDAT ?getDist@@YAMABUD3DXVECTOR3@@0M@Z
_TEXT	SEGMENT
_heightFactor$ = 8					; size = 4
?getDist@@YAMABUD3DXVECTOR3@@0M@Z PROC			; getDist, COMDAT
; _p$ = ecx
; _q$ = eax

; 19   : {

  00000	55		 push	 ebp
  00001	8b ec		 mov	 ebp, esp

; 20   : 	return abs(p.z - q.z) * heightFactor + getXYDist( p, q );

  00003	f3 0f 10 41 08	 movss	 xmm0, DWORD PTR [ecx+8]
  00008	f3 0f 10 48 08	 movss	 xmm1, DWORD PTR [eax+8]
  0000d	f3 0f 10 18	 movss	 xmm3, DWORD PTR [eax]
  00011	f3 0f 10 60 04	 movss	 xmm4, DWORD PTR [eax+4]
  00016	0f 5a c9	 cvtps2pd xmm1, xmm1
  00019	0f 5a c0	 cvtps2pd xmm0, xmm0
  0001c	f2 0f 5c c1	 subsd	 xmm0, xmm1
  00020	0f 57 c9	 xorps	 xmm1, xmm1
  00023	66 0f 5a c0	 cvtpd2ps xmm0, xmm0
  00027	f3 0f 5a c8	 cvtss2sd xmm1, xmm0
  0002b	f2 0f 10 05 00
	00 00 00	 movsd	 xmm0, QWORD PTR __mask@@AbsDouble@
  00033	66 0f 54 c8	 andpd	 xmm1, xmm0
  00037	0f 5a db	 cvtps2pd xmm3, xmm3
  0003a	0f 57 d2	 xorps	 xmm2, xmm2
  0003d	f2 0f 5a d1	 cvtsd2ss xmm2, xmm1
  00041	f3 0f 10 09	 movss	 xmm1, DWORD PTR [ecx]
  00045	0f 5a c9	 cvtps2pd xmm1, xmm1
  00048	f2 0f 5c cb	 subsd	 xmm1, xmm3
  0004c	f3 0f 10 59 04	 movss	 xmm3, DWORD PTR [ecx+4]
  00051	0f 5a db	 cvtps2pd xmm3, xmm3
  00054	0f 5a e4	 cvtps2pd xmm4, xmm4
  00057	f2 0f 5c dc	 subsd	 xmm3, xmm4
  0005b	66 0f 5a db	 cvtpd2ps xmm3, xmm3
  0005f	66 0f 5a c9	 cvtpd2ps xmm1, xmm1
  00063	f3 0f 5a db	 cvtss2sd xmm3, xmm3
  00067	66 0f 54 d8	 andpd	 xmm3, xmm0
  0006b	f3 0f 5a c9	 cvtss2sd xmm1, xmm1
  0006f	66 0f 54 c8	 andpd	 xmm1, xmm0
  00073	0f 57 c0	 xorps	 xmm0, xmm0
  00076	f2 0f 5a c3	 cvtsd2ss xmm0, xmm3
  0007a	f2 0f 5a c9	 cvtsd2ss xmm1, xmm1
  0007e	0f 57 db	 xorps	 xmm3, xmm3
  00081	f3 0f 5a d9	 cvtss2sd xmm3, xmm1
  00085	0f 5a e0	 cvtps2pd xmm4, xmm0
  00088	66 0f 2f dc	 comisd	 xmm3, xmm4
  0008c	76 23		 jbe	 SHORT $LN8@getDist@2
  0008e	0f 5a d8	 cvtps2pd xmm3, xmm0
  00091	0f 5a c0	 cvtps2pd xmm0, xmm0
  00094	f2 0f 59 05 00
	00 00 00	 mulsd	 xmm0, QWORD PTR __real@3ff69fbe80000000
  0009c	f3 0f 5a c9	 cvtss2sd xmm1, xmm1
  000a0	f2 0f 5c cb	 subsd	 xmm1, xmm3
  000a4	f2 0f 58 c8	 addsd	 xmm1, xmm0
  000a8	0f 57 c0	 xorps	 xmm0, xmm0
  000ab	f2 0f 5a c1	 cvtsd2ss xmm0, xmm1
  000af	eb 22		 jmp	 SHORT $LN7@getDist@2
$LN8@getDist@2:
  000b1	0f 5a c0	 cvtps2pd xmm0, xmm0
  000b4	0f 57 db	 xorps	 xmm3, xmm3
  000b7	f3 0f 5a d9	 cvtss2sd xmm3, xmm1
  000bb	f2 0f 5c c3	 subsd	 xmm0, xmm3
  000bf	f3 0f 5a c9	 cvtss2sd xmm1, xmm1
  000c3	f2 0f 59 0d 00
	00 00 00	 mulsd	 xmm1, QWORD PTR __real@3ff69fbe80000000
  000cb	f2 0f 58 c1	 addsd	 xmm0, xmm1
  000cf	66 0f 5a c0	 cvtpd2ps xmm0, xmm0
$LN7@getDist@2:
  000d3	0f 5a ca	 cvtps2pd xmm1, xmm2
  000d6	f3 0f 10 55 08	 movss	 xmm2, DWORD PTR _heightFactor$[ebp]
  000db	f3 0f 5a c0	 cvtss2sd xmm0, xmm0
  000df	0f 5a d2	 cvtps2pd xmm2, xmm2
  000e2	f2 0f 59 ca	 mulsd	 xmm1, xmm2
  000e6	f2 0f 58 c8	 addsd	 xmm1, xmm0
  000ea	66 0f 5a c1	 cvtpd2ps xmm0, xmm1

; 21   : }

  000ee	5d		 pop	 ebp
  000ef	c3		 ret	 0
?getDist@@YAMABUD3DXVECTOR3@@0M@Z ENDP			; getDist
_TEXT	ENDS
PUBLIC	__real@406a400000000000
PUBLIC	__real@4049000000000000
;	COMDAT __real@406a400000000000
; File c:\program files (x86)\microsoft visual studio 10.0\vc\include\math.h
CONST	SEGMENT
__real@406a400000000000 DQ 0406a400000000000r	; 210
CONST	ENDS
;	COMDAT __real@4049000000000000
CONST	SEGMENT
__real@4049000000000000 DQ 04049000000000000r	; 50
; Function compile flags: /Ogsp
; File d:\lost saga for developer\youtube\tutorial\source\src\lsclient\boxgraph.cpp
CONST	ENDS
;	COMDAT ?calcTransferCost@@YAMABUD3DXVECTOR3@@0D@Z
_TEXT	SEGMENT
_moveType$ = 8						; size = 1
?calcTransferCost@@YAMABUD3DXVECTOR3@@0D@Z PROC		; calcTransferCost, COMDAT
; _from$ = ecx
; _to$ = eax

; 71   : {

  00000	55		 push	 ebp
  00001	8b ec		 mov	 ebp, esp

; 72   : 	if ( moveType == MOVETYPE_JUMP ) {

  00003	80 7d 08 4a	 cmp	 BYTE PTR _moveType$[ebp], 74 ; 0000004aH

; 73   : 		return getXYDist( from, to ) + 50;

  00007	f3 0f 10 01	 movss	 xmm0, DWORD PTR [ecx]
  0000b	f3 0f 10 08	 movss	 xmm1, DWORD PTR [eax]
  0000f	f3 0f 10 51 04	 movss	 xmm2, DWORD PTR [ecx+4]
  00014	f3 0f 10 58 04	 movss	 xmm3, DWORD PTR [eax+4]
  00019	0f 5a d2	 cvtps2pd xmm2, xmm2
  0001c	0f 5a c9	 cvtps2pd xmm1, xmm1
  0001f	0f 5a c0	 cvtps2pd xmm0, xmm0
  00022	f2 0f 5c c1	 subsd	 xmm0, xmm1
  00026	0f 5a db	 cvtps2pd xmm3, xmm3
  00029	f2 0f 5c d3	 subsd	 xmm2, xmm3
  0002d	66 0f 5a d2	 cvtpd2ps xmm2, xmm2
  00031	66 0f 5a c0	 cvtpd2ps xmm0, xmm0
  00035	0f 57 c9	 xorps	 xmm1, xmm1
  00038	f3 0f 5a c8	 cvtss2sd xmm1, xmm0
  0003c	66 0f 54 0d 00
	00 00 00	 andpd	 xmm1, QWORD PTR __mask@@AbsDouble@
  00044	f3 0f 5a d2	 cvtss2sd xmm2, xmm2
  00048	66 0f 54 15 00
	00 00 00	 andpd	 xmm2, QWORD PTR __mask@@AbsDouble@
  00050	0f 57 c0	 xorps	 xmm0, xmm0
  00053	f2 0f 5a c2	 cvtsd2ss xmm0, xmm2
  00057	f2 0f 5a c9	 cvtsd2ss xmm1, xmm1
  0005b	0f 57 d2	 xorps	 xmm2, xmm2
  0005e	0f 5a d8	 cvtps2pd xmm3, xmm0
  00061	f3 0f 5a d1	 cvtss2sd xmm2, xmm1
  00065	75 5c		 jne	 SHORT $LN4@calcTransf@2
  00067	66 0f 2f d3	 comisd	 xmm2, xmm3
  0006b	76 23		 jbe	 SHORT $LN8@calcTransf@2
  0006d	0f 5a d0	 cvtps2pd xmm2, xmm0
  00070	0f 5a c0	 cvtps2pd xmm0, xmm0
  00073	f2 0f 59 05 00
	00 00 00	 mulsd	 xmm0, QWORD PTR __real@3ff69fbe80000000
  0007b	f3 0f 5a c9	 cvtss2sd xmm1, xmm1
  0007f	f2 0f 5c ca	 subsd	 xmm1, xmm2
  00083	f2 0f 58 c8	 addsd	 xmm1, xmm0
  00087	0f 57 c0	 xorps	 xmm0, xmm0
  0008a	f2 0f 5a c1	 cvtsd2ss xmm0, xmm1
  0008e	eb 22		 jmp	 SHORT $LN7@calcTransf@2
$LN8@calcTransf@2:
  00090	0f 5a c0	 cvtps2pd xmm0, xmm0
  00093	0f 57 d2	 xorps	 xmm2, xmm2
  00096	f3 0f 5a d1	 cvtss2sd xmm2, xmm1
  0009a	f2 0f 5c c2	 subsd	 xmm0, xmm2
  0009e	f3 0f 5a c9	 cvtss2sd xmm1, xmm1
  000a2	f2 0f 59 0d 00
	00 00 00	 mulsd	 xmm1, QWORD PTR __real@3ff69fbe80000000
  000aa	f2 0f 58 c1	 addsd	 xmm0, xmm1
  000ae	66 0f 5a c0	 cvtpd2ps xmm0, xmm0
$LN7@calcTransf@2:
  000b2	f3 0f 5a c0	 cvtss2sd xmm0, xmm0
  000b6	f2 0f 58 05 00
	00 00 00	 addsd	 xmm0, QWORD PTR __real@4049000000000000
  000be	e9 a6 00 00 00	 jmp	 $LN43@calcTransf@2
$LN4@calcTransf@2:

; 74   : 
; 75   : 	} else if ( moveType == MOVETYPE_JUMP2 ) {

  000c3	80 7d 08 32	 cmp	 BYTE PTR _moveType$[ebp], 50 ; 00000032H
  000c7	75 59		 jne	 SHORT $LN2@calcTransf@2

; 76   : 		return getXYDist( from, to ) + 210;

  000c9	66 0f 2f d3	 comisd	 xmm2, xmm3
  000cd	76 23		 jbe	 SHORT $LN20@calcTransf@2
  000cf	0f 5a d0	 cvtps2pd xmm2, xmm0
  000d2	0f 5a c0	 cvtps2pd xmm0, xmm0
  000d5	f2 0f 59 05 00
	00 00 00	 mulsd	 xmm0, QWORD PTR __real@3ff69fbe80000000
  000dd	f3 0f 5a c9	 cvtss2sd xmm1, xmm1
  000e1	f2 0f 5c ca	 subsd	 xmm1, xmm2
  000e5	f2 0f 58 c8	 addsd	 xmm1, xmm0
  000e9	0f 57 c0	 xorps	 xmm0, xmm0
  000ec	f2 0f 5a c1	 cvtsd2ss xmm0, xmm1
  000f0	eb 22		 jmp	 SHORT $LN19@calcTransf@2
$LN20@calcTransf@2:
  000f2	0f 5a c0	 cvtps2pd xmm0, xmm0
  000f5	0f 57 d2	 xorps	 xmm2, xmm2
  000f8	f3 0f 5a d1	 cvtss2sd xmm2, xmm1
  000fc	f2 0f 5c c2	 subsd	 xmm0, xmm2
  00100	f3 0f 5a c9	 cvtss2sd xmm1, xmm1
  00104	f2 0f 59 0d 00
	00 00 00	 mulsd	 xmm1, QWORD PTR __real@3ff69fbe80000000
  0010c	f2 0f 58 c1	 addsd	 xmm0, xmm1
  00110	66 0f 5a c0	 cvtpd2ps xmm0, xmm0
$LN19@calcTransf@2:
  00114	f3 0f 5a c0	 cvtss2sd xmm0, xmm0
  00118	f2 0f 58 05 00
	00 00 00	 addsd	 xmm0, QWORD PTR __real@406a400000000000
  00120	eb 47		 jmp	 SHORT $LN43@calcTransf@2
$LN2@calcTransf@2:

; 77   : 
; 78   : 	} else
; 79   : 		return getXYDist( from, to );

  00122	66 0f 2f d3	 comisd	 xmm2, xmm3
  00126	76 23		 jbe	 SHORT $LN32@calcTransf@2
  00128	0f 5a d0	 cvtps2pd xmm2, xmm0
  0012b	0f 5a c0	 cvtps2pd xmm0, xmm0
  0012e	f2 0f 59 05 00
	00 00 00	 mulsd	 xmm0, QWORD PTR __real@3ff69fbe80000000
  00136	f3 0f 5a c9	 cvtss2sd xmm1, xmm1
  0013a	f2 0f 5c ca	 subsd	 xmm1, xmm2
  0013e	f2 0f 58 c8	 addsd	 xmm1, xmm0
  00142	0f 57 c0	 xorps	 xmm0, xmm0
  00145	f2 0f 5a c1	 cvtsd2ss xmm0, xmm1

; 80   : }

  00149	5d		 pop	 ebp
  0014a	c3		 ret	 0

; 77   : 
; 78   : 	} else
; 79   : 		return getXYDist( from, to );

$LN32@calcTransf@2:
  0014b	0f 57 d2	 xorps	 xmm2, xmm2
  0014e	f3 0f 5a d1	 cvtss2sd xmm2, xmm1
  00152	0f 5a c0	 cvtps2pd xmm0, xmm0
  00155	f3 0f 5a c9	 cvtss2sd xmm1, xmm1
  00159	f2 0f 59 0d 00
	00 00 00	 mulsd	 xmm1, QWORD PTR __real@3ff69fbe80000000
  00161	f2 0f 5c c2	 subsd	 xmm0, xmm2
  00165	f2 0f 58 c1	 addsd	 xmm0, xmm1
$LN43@calcTransf@2:
  00169	66 0f 5a c0	 cvtpd2ps xmm0, xmm0

; 80   : }

  0016d	5d		 pop	 ebp
  0016e	c3		 ret	 0
?calcTransferCost@@YAMABUD3DXVECTOR3@@0D@Z ENDP		; calcTransferCost
_TEXT	ENDS
PUBLIC	?getNeighborCount@BoxSpace@@AAEHPAXPAUBox@1@@Z	; BoxSpace::getNeighborCount
; Function compile flags: /Ogsp
;	COMDAT ?getNeighborCount@BoxSpace@@AAEHPAXPAUBox@1@@Z
_TEXT	SEGMENT
_pCaller$ = 8						; size = 4
_pNode$ = 12						; size = 4
?getNeighborCount@BoxSpace@@AAEHPAXPAUBox@1@@Z PROC	; BoxSpace::getNeighborCount, COMDAT
; _this$ = ecx

; 86   : {

  00000	55		 push	 ebp
  00001	8b ec		 mov	 ebp, esp

; 87   : 	return m_bUseJump ? pNode->links.size() : pNode->walkCount;

  00003	80 79 51 00	 cmp	 BYTE PTR [ecx+81], 0
  00007	74 0e		 je	 SHORT $LN3@getNeighbo
  00009	8b 4d 0c	 mov	 ecx, DWORD PTR _pNode$[ebp]
  0000c	8b 41 38	 mov	 eax, DWORD PTR [ecx+56]
  0000f	2b 41 34	 sub	 eax, DWORD PTR [ecx+52]
  00012	c1 f8 05	 sar	 eax, 5
  00015	eb 07		 jmp	 SHORT $LN4@getNeighbo
$LN3@getNeighbo:
  00017	8b 45 0c	 mov	 eax, DWORD PTR _pNode$[ebp]
  0001a	0f bf 40 44	 movsx	 eax, WORD PTR [eax+68]
$LN4@getNeighbo:

; 88   : }

  0001e	5d		 pop	 ebp
  0001f	c2 08 00	 ret	 8
?getNeighborCount@BoxSpace@@AAEHPAXPAUBox@1@@Z ENDP	; BoxSpace::getNeighborCount
_TEXT	ENDS
PUBLIC	?getNeighborAt@BoxSpace@@AAEMPAXPAUBox@1@HAAPAU21@@Z ; BoxSpace::getNeighborAt
; Function compile flags: /Ogsp
;	COMDAT ?getNeighborAt@BoxSpace@@AAEMPAXPAUBox@1@HAAPAU21@@Z
_TEXT	SEGMENT
_pCaller$ = 8						; size = 4
_pNode$ = 12						; size = 4
_i$ = 16						; size = 4
_pOutNeighbor$ = 20					; size = 4
?getNeighborAt@BoxSpace@@AAEMPAXPAUBox@1@HAAPAU21@@Z PROC ; BoxSpace::getNeighborAt, COMDAT
; _this$ = ecx

; 91   : { 

  00000	55		 push	 ebp
  00001	8b ec		 mov	 ebp, esp

; 92   : 	Link& link = pNode->links[ i ];

  00003	8b 45 10	 mov	 eax, DWORD PTR _i$[ebp]
  00006	8b 55 0c	 mov	 edx, DWORD PTR _pNode$[ebp]
  00009	c1 e0 05	 shl	 eax, 5
  0000c	03 42 34	 add	 eax, DWORD PTR [edx+52]

; 93   : 	pOutNeighbor = &m_boxes[ link.toBox ];

  0000f	0f bf 10	 movsx	 edx, WORD PTR [eax]
  00012	6b d2 58	 imul	 edx, 88			; 00000058H
  00015	03 11		 add	 edx, DWORD PTR [ecx]
  00017	8b 4d 14	 mov	 ecx, DWORD PTR _pOutNeighbor$[ebp]
  0001a	89 11		 mov	 DWORD PTR [ecx], edx

; 94   : 	return link.cost;

  0001c	d9 40 04	 fld	 DWORD PTR [eax+4]

; 95   : }

  0001f	5d		 pop	 ebp
  00020	c2 10 00	 ret	 16			; 00000010H
?getNeighborAt@BoxSpace@@AAEMPAXPAUBox@1@HAAPAU21@@Z ENDP ; BoxSpace::getNeighborAt
_TEXT	ENDS
PUBLIC	?getHeuristic@BoxSpace@@AAEMPAXPAUBox@1@@Z	; BoxSpace::getHeuristic
; Function compile flags: /Ogsp
;	COMDAT ?getHeuristic@BoxSpace@@AAEMPAXPAUBox@1@@Z
_TEXT	SEGMENT
tv288 = -8						; size = 4
$T510698 = -4						; size = 4
_pCaller$ = 8						; size = 4
tv285 = 12						; size = 4
$T510732 = 12						; size = 4
_pNode$ = 12						; size = 4
?getHeuristic@BoxSpace@@AAEMPAXPAUBox@1@@Z PROC		; BoxSpace::getHeuristic, COMDAT
; _this$ = ecx

; 98   : { 

  00000	55		 push	 ebp
  00001	8b ec		 mov	 ebp, esp
  00003	51		 push	 ecx
  00004	51		 push	 ecx

; 99   : 	return getDist( pNode->posCenter, m_pGoal->posCenter, FLOAT1 );

  00005	b8 01 00 00 00	 mov	 eax, 1
  0000a	8b 49 54	 mov	 ecx, DWORD PTR [ecx+84]
  0000d	8b 55 0c	 mov	 edx, DWORD PTR _pNode$[ebp]
  00010	f3 0f 10 42 50	 movss	 xmm0, DWORD PTR [edx+80]
  00015	f3 0f 10 49 50	 movss	 xmm1, DWORD PTR [ecx+80]
  0001a	f3 0f 10 51 48	 movss	 xmm2, DWORD PTR [ecx+72]
  0001f	f3 0f 10 59 4c	 movss	 xmm3, DWORD PTR [ecx+76]
  00024	0f 5a c9	 cvtps2pd xmm1, xmm1
  00027	0f 5a c0	 cvtps2pd xmm0, xmm0
  0002a	f2 0f 5c c1	 subsd	 xmm0, xmm1
  0002e	0f 57 c9	 xorps	 xmm1, xmm1
  00031	66 0f 5a c0	 cvtpd2ps xmm0, xmm0
  00035	f3 0f 5a c8	 cvtss2sd xmm1, xmm0
  00039	f2 0f 10 05 00
	00 00 00	 movsd	 xmm0, QWORD PTR __mask@@AbsDouble@
  00041	66 0f 54 c8	 andpd	 xmm1, xmm0
  00045	f2 0f 5a c9	 cvtsd2ss xmm1, xmm1
  00049	f3 0f 11 4d fc	 movss	 DWORD PTR $T510698[ebp], xmm1
  0004e	f3 0f 10 4a 48	 movss	 xmm1, DWORD PTR [edx+72]
  00053	0f 5a d2	 cvtps2pd xmm2, xmm2
  00056	0f 5a c9	 cvtps2pd xmm1, xmm1
  00059	f2 0f 5c ca	 subsd	 xmm1, xmm2
  0005d	f3 0f 10 52 4c	 movss	 xmm2, DWORD PTR [edx+76]
  00062	0f 5a d2	 cvtps2pd xmm2, xmm2
  00065	0f 5a db	 cvtps2pd xmm3, xmm3
  00068	f2 0f 5c d3	 subsd	 xmm2, xmm3
  0006c	66 0f 5a d2	 cvtpd2ps xmm2, xmm2
  00070	66 0f 5a c9	 cvtpd2ps xmm1, xmm1
  00074	f3 0f 5a d2	 cvtss2sd xmm2, xmm2
  00078	66 0f 54 d0	 andpd	 xmm2, xmm0
  0007c	f3 0f 5a c9	 cvtss2sd xmm1, xmm1
  00080	66 0f 54 c8	 andpd	 xmm1, xmm0
  00084	0f 57 c0	 xorps	 xmm0, xmm0
  00087	f2 0f 5a c2	 cvtsd2ss xmm0, xmm2
  0008b	f2 0f 5a c9	 cvtsd2ss xmm1, xmm1
  0008f	0f 57 d2	 xorps	 xmm2, xmm2
  00092	f3 0f 5a d1	 cvtss2sd xmm2, xmm1
  00096	0f 5a d8	 cvtps2pd xmm3, xmm0
  00099	66 0f 2f d3	 comisd	 xmm2, xmm3
  0009d	76 23		 jbe	 SHORT $LN12@getHeurist
  0009f	0f 5a d0	 cvtps2pd xmm2, xmm0
  000a2	0f 5a c0	 cvtps2pd xmm0, xmm0
  000a5	f2 0f 59 05 00
	00 00 00	 mulsd	 xmm0, QWORD PTR __real@3ff69fbe80000000
  000ad	f3 0f 5a c9	 cvtss2sd xmm1, xmm1
  000b1	f2 0f 5c ca	 subsd	 xmm1, xmm2
  000b5	f2 0f 58 c8	 addsd	 xmm1, xmm0
  000b9	0f 57 c0	 xorps	 xmm0, xmm0
  000bc	f2 0f 5a c1	 cvtsd2ss xmm0, xmm1
  000c0	eb 22		 jmp	 SHORT $LN24@getHeurist
$LN12@getHeurist:
  000c2	0f 5a c0	 cvtps2pd xmm0, xmm0
  000c5	0f 57 d2	 xorps	 xmm2, xmm2
  000c8	f3 0f 5a d1	 cvtss2sd xmm2, xmm1
  000cc	f2 0f 5c c2	 subsd	 xmm0, xmm2
  000d0	f3 0f 5a c9	 cvtss2sd xmm1, xmm1
  000d4	f2 0f 59 0d 00
	00 00 00	 mulsd	 xmm1, QWORD PTR __real@3ff69fbe80000000
  000dc	f2 0f 58 c1	 addsd	 xmm0, xmm1
  000e0	66 0f 5a c0	 cvtpd2ps xmm0, xmm0
$LN24@getHeurist:
  000e4	89 45 f8	 mov	 DWORD PTR tv288[ebp], eax
  000e7	db 45 f8	 fild	 DWORD PTR tv288[ebp]
  000ea	f3 0f 11 45 0c	 movss	 DWORD PTR $T510732[ebp], xmm0
  000ef	85 c0		 test	 eax, eax
  000f1	79 06		 jns	 SHORT $LN23@getHeurist
  000f3	d8 05 00 00 00
	00		 fadd	 DWORD PTR __real@4f800000
$LN23@getHeurist:
  000f9	d8 4d fc	 fmul	 DWORD PTR $T510698[ebp]
  000fc	d8 45 0c	 fadd	 DWORD PTR $T510732[ebp]
  000ff	d9 5d 0c	 fstp	 DWORD PTR tv285[ebp]
  00102	d9 45 0c	 fld	 DWORD PTR tv285[ebp]

; 100  : }

  00105	c9		 leave
  00106	c2 08 00	 ret	 8
?getHeuristic@BoxSpace@@AAEMPAXPAUBox@1@@Z ENDP		; BoxSpace::getHeuristic
_TEXT	ENDS
PUBLIC	??0Link@BoxSpace@@QAE@XZ			; BoxSpace::Link::Link
; Function compile flags: /Ogsp
;	COMDAT ??0Link@BoxSpace@@QAE@XZ
_TEXT	SEGMENT
??0Link@BoxSpace@@QAE@XZ PROC				; BoxSpace::Link::Link, COMDAT
; _this$ = ecx
  00000	8b c1		 mov	 eax, ecx
  00002	c3		 ret	 0
??0Link@BoxSpace@@QAE@XZ ENDP				; BoxSpace::Link::Link
_TEXT	ENDS
PUBLIC	?findBox@BoxSpace@@QBEHABUD3DXVECTOR3@@@Z	; BoxSpace::findBox
; Function compile flags: /Ogsp
;	COMDAT ?findBox@BoxSpace@@QBEHABUD3DXVECTOR3@@@Z
_TEXT	SEGMENT
_pos$ = 8						; size = 4
?findBox@BoxSpace@@QBEHABUD3DXVECTOR3@@@Z PROC		; BoxSpace::findBox, COMDAT
; _this$ = ecx

; 244  : {

  00000	55		 push	 ebp
  00001	8b ec		 mov	 ebp, esp

; 245  : 	// temporary
; 246  : 
; 247  : 	for ( int i = 0, n = int(m_boxes.size()); i < n; i++ )

  00003	8b 41 04	 mov	 eax, DWORD PTR [ecx+4]
  00006	56		 push	 esi
  00007	8b 31		 mov	 esi, DWORD PTR [ecx]
  00009	57		 push	 edi
  0000a	2b c6		 sub	 eax, esi
  0000c	6a 58		 push	 88			; 00000058H
  0000e	99		 cdq
  0000f	59		 pop	 ecx
  00010	f7 f9		 idiv	 ecx
  00012	33 ff		 xor	 edi, edi
  00014	85 c0		 test	 eax, eax
  00016	0f 8e 93 00 00
	00		 jle	 $LN2@findBox
  0001c	8b 55 08	 mov	 edx, DWORD PTR _pos$[ebp]
  0001f	f3 0f 10 0a	 movss	 xmm1, DWORD PTR [edx]
  00023	8d 4e 2c	 lea	 ecx, DWORD PTR [esi+44]
$LL4@findBox:

; 248  : 	{
; 249  : 		const Box& node = m_boxes[ i ];
; 250  : 		if ( insideBox( pos, node.posMin, node.posMax ) )

  00026	f3 0f 10 51 f0	 movss	 xmm2, DWORD PTR [ecx-16]
  0002b	0f 57 c0	 xorps	 xmm0, xmm0
  0002e	f3 0f 5a c1	 cvtss2sd xmm0, xmm1
  00032	0f 5a d2	 cvtps2pd xmm2, xmm2
  00035	66 0f 2f d0	 comisd	 xmm2, xmm0
  00039	77 68		 ja	 SHORT $LN11@findBox
  0003b	f3 0f 10 51 fc	 movss	 xmm2, DWORD PTR [ecx-4]
  00040	0f 57 c0	 xorps	 xmm0, xmm0
  00043	f3 0f 5a c1	 cvtss2sd xmm0, xmm1
  00047	0f 5a d2	 cvtps2pd xmm2, xmm2
  0004a	66 0f 2f c2	 comisd	 xmm0, xmm2
  0004e	77 53		 ja	 SHORT $LN11@findBox
  00050	f3 0f 10 42 04	 movss	 xmm0, DWORD PTR [edx+4]
  00055	f3 0f 10 59 f4	 movss	 xmm3, DWORD PTR [ecx-12]
  0005a	0f 57 d2	 xorps	 xmm2, xmm2
  0005d	0f 5a d0	 cvtps2pd xmm2, xmm0
  00060	0f 5a db	 cvtps2pd xmm3, xmm3
  00063	66 0f 2f da	 comisd	 xmm3, xmm2
  00067	77 3a		 ja	 SHORT $LN11@findBox
  00069	f3 0f 10 11	 movss	 xmm2, DWORD PTR [ecx]
  0006d	0f 5a c0	 cvtps2pd xmm0, xmm0
  00070	0f 5a d2	 cvtps2pd xmm2, xmm2
  00073	66 0f 2f c2	 comisd	 xmm0, xmm2
  00077	77 2a		 ja	 SHORT $LN11@findBox
  00079	f3 0f 10 42 08	 movss	 xmm0, DWORD PTR [edx+8]
  0007e	f3 0f 10 59 f8	 movss	 xmm3, DWORD PTR [ecx-8]
  00083	0f 57 d2	 xorps	 xmm2, xmm2
  00086	0f 5a d0	 cvtps2pd xmm2, xmm0
  00089	0f 5a db	 cvtps2pd xmm3, xmm3
  0008c	66 0f 2f da	 comisd	 xmm3, xmm2
  00090	77 11		 ja	 SHORT $LN11@findBox
  00092	f3 0f 10 51 04	 movss	 xmm2, DWORD PTR [ecx+4]
  00097	0f 5a c0	 cvtps2pd xmm0, xmm0
  0009a	0f 5a d2	 cvtps2pd xmm2, xmm2
  0009d	66 0f 2f c2	 comisd	 xmm0, xmm2
  000a1	76 15		 jbe	 SHORT $LN20@findBox
$LN11@findBox:

; 245  : 	// temporary
; 246  : 
; 247  : 	for ( int i = 0, n = int(m_boxes.size()); i < n; i++ )

  000a3	47		 inc	 edi
  000a4	83 c1 58	 add	 ecx, 88			; 00000058H
  000a7	3b f8		 cmp	 edi, eax
  000a9	0f 8c 77 ff ff
	ff		 jl	 $LL4@findBox
$LN2@findBox:

; 252  : 	}
; 253  : //	LOG.PrintTimeAndLog(0, "can't find %.2f, %.2f, %.2f", pos.x, pos.y, pos.z);
; 254  : 	return -1;

  000af	83 c8 ff	 or	 eax, -1
$LN5@findBox:
  000b2	5f		 pop	 edi
  000b3	5e		 pop	 esi

; 255  : }

  000b4	5d		 pop	 ebp
  000b5	c2 04 00	 ret	 4
$LN20@findBox:

; 251  : 			return i;

  000b8	8b c7		 mov	 eax, edi
  000ba	eb f6		 jmp	 SHORT $LN5@findBox
?findBox@BoxSpace@@QBEHABUD3DXVECTOR3@@@Z ENDP		; BoxSpace::findBox
_TEXT	ENDS
PUBLIC	?begin@?$vector@ULink@BoxSpace@@V?$allocator@ULink@BoxSpace@@@std@@@std@@QBE?AV?$_Vector_const_iterator@V?$_Vector_val@ULink@BoxSpace@@V?$allocator@ULink@BoxSpace@@@std@@@std@@@2@XZ ; std::vector<BoxSpace::Link,std::allocator<BoxSpace::Link> >::begin
; Function compile flags: /Ogsp
; File c:\program files (x86)\microsoft visual studio 10.0\vc\include\vector
;	COMDAT ?begin@?$vector@ULink@BoxSpace@@V?$allocator@ULink@BoxSpace@@@std@@@std@@QBE?AV?$_Vector_const_iterator@V?$_Vector_val@ULink@BoxSpace@@V?$allocator@ULink@BoxSpace@@@std@@@std@@@2@XZ
_TEXT	SEGMENT
___$ReturnUdt$ = 8					; size = 4
?begin@?$vector@ULink@BoxSpace@@V?$allocator@ULink@BoxSpace@@@std@@@std@@QBE?AV?$_Vector_const_iterator@V?$_Vector_val@ULink@BoxSpace@@V?$allocator@ULink@BoxSpace@@@std@@@std@@@2@XZ PROC ; std::vector<BoxSpace::Link,std::allocator<BoxSpace::Link> >::begin, COMDAT
; _this$ = ecx

; 786  : 		{	// return iterator for beginning of nonmutable sequence

  00000	55		 push	 ebp
  00001	8b ec		 mov	 ebp, esp

; 787  : 		return (const_iterator(this->_Myfirst, this));

  00003	8b 09		 mov	 ecx, DWORD PTR [ecx]
  00005	8b 45 08	 mov	 eax, DWORD PTR ___$ReturnUdt$[ebp]
  00008	89 08		 mov	 DWORD PTR [eax], ecx

; 788  : 		}

  0000a	5d		 pop	 ebp
  0000b	c2 04 00	 ret	 4
?begin@?$vector@ULink@BoxSpace@@V?$allocator@ULink@BoxSpace@@@std@@@std@@QBE?AV?$_Vector_const_iterator@V?$_Vector_val@ULink@BoxSpace@@V?$allocator@ULink@BoxSpace@@@std@@@std@@@2@XZ ENDP ; std::vector<BoxSpace::Link,std::allocator<BoxSpace::Link> >::begin
_TEXT	ENDS
PUBLIC	?end@?$vector@ULink@BoxSpace@@V?$allocator@ULink@BoxSpace@@@std@@@std@@QBE?AV?$_Vector_const_iterator@V?$_Vector_val@ULink@BoxSpace@@V?$allocator@ULink@BoxSpace@@@std@@@std@@@2@XZ ; std::vector<BoxSpace::Link,std::allocator<BoxSpace::Link> >::end
; Function compile flags: /Ogsp
;	COMDAT ?end@?$vector@ULink@BoxSpace@@V?$allocator@ULink@BoxSpace@@@std@@@std@@QBE?AV?$_Vector_const_iterator@V?$_Vector_val@ULink@BoxSpace@@V?$allocator@ULink@BoxSpace@@@std@@@std@@@2@XZ
_TEXT	SEGMENT
___$ReturnUdt$ = 8					; size = 4
?end@?$vector@ULink@BoxSpace@@V?$allocator@ULink@BoxSpace@@@std@@@std@@QBE?AV?$_Vector_const_iterator@V?$_Vector_val@ULink@BoxSpace@@V?$allocator@ULink@BoxSpace@@@std@@@std@@@2@XZ PROC ; std::vector<BoxSpace::Link,std::allocator<BoxSpace::Link> >::end, COMDAT
; _this$ = ecx

; 796  : 		{	// return iterator for end of nonmutable sequence

  00000	55		 push	 ebp
  00001	8b ec		 mov	 ebp, esp

; 797  : 		return (const_iterator(this->_Mylast, this));

  00003	8b 49 04	 mov	 ecx, DWORD PTR [ecx+4]
  00006	8b 45 08	 mov	 eax, DWORD PTR ___$ReturnUdt$[ebp]
  00009	89 08		 mov	 DWORD PTR [eax], ecx

; 798  : 		}

  0000b	5d		 pop	 ebp
  0000c	c2 04 00	 ret	 4
?end@?$vector@ULink@BoxSpace@@V?$allocator@ULink@BoxSpace@@@std@@@std@@QBE?AV?$_Vector_const_iterator@V?$_Vector_val@ULink@BoxSpace@@V?$allocator@ULink@BoxSpace@@@std@@@std@@@2@XZ ENDP ; std::vector<BoxSpace::Link,std::allocator<BoxSpace::Link> >::end
_TEXT	ENDS
PUBLIC	?getPathSize@?$AStarSearcher@VBoxSpace@@PAUBox@1@@@QAEHXZ ; AStarSearcher<BoxSpace,BoxSpace::Box *>::getPathSize
; Function compile flags: /Ogsp
; File d:\lost saga for developer\youtube\tutorial\source\src\lsclient\astar.h
;	COMDAT ?getPathSize@?$AStarSearcher@VBoxSpace@@PAUBox@1@@@QAEHXZ
_TEXT	SEGMENT
?getPathSize@?$AStarSearcher@VBoxSpace@@PAUBox@1@@@QAEHXZ PROC ; AStarSearcher<BoxSpace,BoxSpace::Box *>::getPathSize, COMDAT
; _this$ = ecx

; 61   : 	int   getPathSize()							{ return int(m_resultPath.size()); }

  00000	8b 41 34	 mov	 eax, DWORD PTR [ecx+52]
  00003	2b 41 30	 sub	 eax, DWORD PTR [ecx+48]
  00006	c1 f8 02	 sar	 eax, 2
  00009	c3		 ret	 0
?getPathSize@?$AStarSearcher@VBoxSpace@@PAUBox@1@@@QAEHXZ ENDP ; AStarSearcher<BoxSpace,BoxSpace::Box *>::getPathSize
_TEXT	ENDS
PUBLIC	?getPath@?$AStarSearcher@VBoxSpace@@PAUBox@1@@@QAEABQAUBox@BoxSpace@@H@Z ; AStarSearcher<BoxSpace,BoxSpace::Box *>::getPath
; Function compile flags: /Ogsp
;	COMDAT ?getPath@?$AStarSearcher@VBoxSpace@@PAUBox@1@@@QAEABQAUBox@BoxSpace@@H@Z
_TEXT	SEGMENT
_i$ = 8							; size = 4
?getPath@?$AStarSearcher@VBoxSpace@@PAUBox@1@@@QAEABQAUBox@BoxSpace@@H@Z PROC ; AStarSearcher<BoxSpace,BoxSpace::Box *>::getPath, COMDAT
; _this$ = ecx

; 62   : 	const Node& getPath( int i )				{ return *m_resultPath[ m_resultPath.size() - 1 - i ]; }

  00000	55		 push	 ebp
  00001	8b ec		 mov	 ebp, esp
  00003	8b 41 34	 mov	 eax, DWORD PTR [ecx+52]
  00006	2b 41 30	 sub	 eax, DWORD PTR [ecx+48]
  00009	8b 49 30	 mov	 ecx, DWORD PTR [ecx+48]
  0000c	c1 f8 02	 sar	 eax, 2
  0000f	2b 45 08	 sub	 eax, DWORD PTR _i$[ebp]
  00012	8b 44 81 fc	 mov	 eax, DWORD PTR [ecx+eax*4-4]
  00016	5d		 pop	 ebp
  00017	c2 04 00	 ret	 4
?getPath@?$AStarSearcher@VBoxSpace@@PAUBox@1@@@QAEABQAUBox@BoxSpace@@H@Z ENDP ; AStarSearcher<BoxSpace,BoxSpace::Box *>::getPath
_TEXT	ENDS
PUBLIC	??E?$_Vector_const_iterator@V?$_Vector_val@ULink@BoxSpace@@V?$allocator@ULink@BoxSpace@@@std@@@std@@@std@@QAE?AV01@H@Z ; std::_Vector_const_iterator<std::_Vector_val<BoxSpace::Link,std::allocator<BoxSpace::Link> > >::operator++
; Function compile flags: /Ogsp
; File c:\program files (x86)\microsoft visual studio 10.0\vc\include\vector
;	COMDAT ??E?$_Vector_const_iterator@V?$_Vector_val@ULink@BoxSpace@@V?$allocator@ULink@BoxSpace@@@std@@@std@@@std@@QAE?AV01@H@Z
_TEXT	SEGMENT
___$ReturnUdt$ = 8					; size = 4
___formal$ = 12						; size = 4
??E?$_Vector_const_iterator@V?$_Vector_val@ULink@BoxSpace@@V?$allocator@ULink@BoxSpace@@@std@@@std@@@std@@QAE?AV01@H@Z PROC ; std::_Vector_const_iterator<std::_Vector_val<BoxSpace::Link,std::allocator<BoxSpace::Link> > >::operator++, COMDAT
; _this$ = ecx

; 115  : 		{	// postincrement

  00000	55		 push	 ebp
  00001	8b ec		 mov	 ebp, esp

; 116  : 		_Myiter _Tmp = *this;

  00003	8b 11		 mov	 edx, DWORD PTR [ecx]
  00005	8b 45 08	 mov	 eax, DWORD PTR ___$ReturnUdt$[ebp]
  00008	89 10		 mov	 DWORD PTR [eax], edx

; 117  : 		++*this;

  0000a	83 c2 20	 add	 edx, 32			; 00000020H
  0000d	89 11		 mov	 DWORD PTR [ecx], edx

; 118  : 		return (_Tmp);
; 119  : 		}

  0000f	5d		 pop	 ebp
  00010	c2 08 00	 ret	 8
??E?$_Vector_const_iterator@V?$_Vector_val@ULink@BoxSpace@@V?$allocator@ULink@BoxSpace@@@std@@@std@@@std@@QAE?AV01@H@Z ENDP ; std::_Vector_const_iterator<std::_Vector_val<BoxSpace::Link,std::allocator<BoxSpace::Link> > >::operator++
_TEXT	ENDS
PUBLIC	?max_size@?$vector@FV?$allocator@F@std@@@std@@QBEIXZ ; std::vector<short,std::allocator<short> >::max_size
; Function compile flags: /Ogsp
;	COMDAT ?max_size@?$vector@FV?$allocator@F@std@@@std@@QBEIXZ
_TEXT	SEGMENT
?max_size@?$vector@FV?$allocator@F@std@@@std@@QBEIXZ PROC ; std::vector<short,std::allocator<short> >::max_size, COMDAT
; _this$ = ecx

; 884  : 		return (this->_Alval.max_size());

  00000	b8 ff ff ff 7f	 mov	 eax, 2147483647		; 7fffffffH

; 885  : 		}

  00005	c3		 ret	 0
?max_size@?$vector@FV?$allocator@F@std@@@std@@QBEIXZ ENDP ; std::vector<short,std::allocator<short> >::max_size
_TEXT	ENDS
PUBLIC	?allocate@?$allocator@F@std@@QAEPAFI@Z		; std::allocator<short>::allocate
; Function compile flags: /Ogsp
; File c:\program files (x86)\microsoft visual studio 10.0\vc\include\xmemory
;	COMDAT ?allocate@?$allocator@F@std@@QAEPAFI@Z
_TEXT	SEGMENT
__Count$ = 8						; size = 4
?allocate@?$allocator@F@std@@QAEPAFI@Z PROC		; std::allocator<short>::allocate, COMDAT
; _this$ = ecx

; 186  : 		{	// allocate array of _Count elements

  00000	55		 push	 ebp
  00001	8b ec		 mov	 ebp, esp

; 187  : 		return (_Allocate(_Count, (pointer)0));

  00003	6a 00		 push	 0
  00005	ff 75 08	 push	 DWORD PTR __Count$[ebp]
  00008	e8 00 00 00 00	 call	 ??$_Allocate@F@std@@YAPAFIPAF@Z ; std::_Allocate<short>
  0000d	59		 pop	 ecx
  0000e	59		 pop	 ecx

; 188  : 		}

  0000f	5d		 pop	 ebp
  00010	c2 04 00	 ret	 4
?allocate@?$allocator@F@std@@QAEPAFI@Z ENDP		; std::allocator<short>::allocate
_TEXT	ENDS
PUBLIC	??0?$_Vector_val@ULink@BoxSpace@@V?$allocator@ULink@BoxSpace@@@std@@@std@@QAE@V?$allocator@ULink@BoxSpace@@@1@@Z ; std::_Vector_val<BoxSpace::Link,std::allocator<BoxSpace::Link> >::_Vector_val<BoxSpace::Link,std::allocator<BoxSpace::Link> >
; Function compile flags: /Ogsp
; File c:\program files (x86)\microsoft visual studio 10.0\vc\include\vector
;	COMDAT ??0?$_Vector_val@ULink@BoxSpace@@V?$allocator@ULink@BoxSpace@@@std@@@std@@QAE@V?$allocator@ULink@BoxSpace@@@1@@Z
_TEXT	SEGMENT
__Al$ = 8						; size = 1
??0?$_Vector_val@ULink@BoxSpace@@V?$allocator@ULink@BoxSpace@@@std@@@std@@QAE@V?$allocator@ULink@BoxSpace@@@1@@Z PROC ; std::_Vector_val<BoxSpace::Link,std::allocator<BoxSpace::Link> >::_Vector_val<BoxSpace::Link,std::allocator<BoxSpace::Link> >, COMDAT
; _this$ = ecx

; 426  : 		{	// construct allocator from _Al

  00000	8b c1		 mov	 eax, ecx

; 427  : 		_Myfirst = 0;

  00002	33 c9		 xor	 ecx, ecx
  00004	89 08		 mov	 DWORD PTR [eax], ecx

; 428  : 		_Mylast = 0;

  00006	89 48 04	 mov	 DWORD PTR [eax+4], ecx

; 429  : 		_Myend = 0;

  00009	89 48 08	 mov	 DWORD PTR [eax+8], ecx

; 430  : 		}

  0000c	c2 04 00	 ret	 4
??0?$_Vector_val@ULink@BoxSpace@@V?$allocator@ULink@BoxSpace@@@std@@@std@@QAE@V?$allocator@ULink@BoxSpace@@@1@@Z ENDP ; std::_Vector_val<BoxSpace::Link,std::allocator<BoxSpace::Link> >::_Vector_val<BoxSpace::Link,std::allocator<BoxSpace::Link> >
_TEXT	ENDS
PUBLIC	?begin@?$vector@UBox@BoxSpace@@V?$allocator@UBox@BoxSpace@@@std@@@std@@QBE?AV?$_Vector_const_iterator@V?$_Vector_val@UBox@BoxSpace@@V?$allocator@UBox@BoxSpace@@@std@@@std@@@2@XZ ; std::vector<BoxSpace::Box,std::allocator<BoxSpace::Box> >::begin
; Function compile flags: /Ogsp
;	COMDAT ?begin@?$vector@UBox@BoxSpace@@V?$allocator@UBox@BoxSpace@@@std@@@std@@QBE?AV?$_Vector_const_iterator@V?$_Vector_val@UBox@BoxSpace@@V?$allocator@UBox@BoxSpace@@@std@@@std@@@2@XZ
_TEXT	SEGMENT
___$ReturnUdt$ = 8					; size = 4
?begin@?$vector@UBox@BoxSpace@@V?$allocator@UBox@BoxSpace@@@std@@@std@@QBE?AV?$_Vector_const_iterator@V?$_Vector_val@UBox@BoxSpace@@V?$allocator@UBox@BoxSpace@@@std@@@std@@@2@XZ PROC ; std::vector<BoxSpace::Box,std::allocator<BoxSpace::Box> >::begin, COMDAT
; _this$ = ecx

; 786  : 		{	// return iterator for beginning of nonmutable sequence

  00000	55		 push	 ebp
  00001	8b ec		 mov	 ebp, esp

; 787  : 		return (const_iterator(this->_Myfirst, this));

  00003	8b 09		 mov	 ecx, DWORD PTR [ecx]
  00005	8b 45 08	 mov	 eax, DWORD PTR ___$ReturnUdt$[ebp]
  00008	89 08		 mov	 DWORD PTR [eax], ecx

; 788  : 		}

  0000a	5d		 pop	 ebp
  0000b	c2 04 00	 ret	 4
?begin@?$vector@UBox@BoxSpace@@V?$allocator@UBox@BoxSpace@@@std@@@std@@QBE?AV?$_Vector_const_iterator@V?$_Vector_val@UBox@BoxSpace@@V?$allocator@UBox@BoxSpace@@@std@@@std@@@2@XZ ENDP ; std::vector<BoxSpace::Box,std::allocator<BoxSpace::Box> >::begin
_TEXT	ENDS
PUBLIC	??0?$_Vector_iterator@V?$_Vector_val@ULink@BoxSpace@@V?$allocator@ULink@BoxSpace@@@std@@@std@@@std@@QAE@PAULink@BoxSpace@@PBU_Container_base0@1@@Z ; std::_Vector_iterator<std::_Vector_val<BoxSpace::Link,std::allocator<BoxSpace::Link> > >::_Vector_iterator<std::_Vector_val<BoxSpace::Link,std::allocator<BoxSpace::Link> > >
; Function compile flags: /Ogsp
;	COMDAT ??0?$_Vector_iterator@V?$_Vector_val@ULink@BoxSpace@@V?$allocator@ULink@BoxSpace@@@std@@@std@@@std@@QAE@PAULink@BoxSpace@@PBU_Container_base0@1@@Z
_TEXT	SEGMENT
__Parg$ = 8						; size = 4
__Pvector$ = 12						; size = 4
??0?$_Vector_iterator@V?$_Vector_val@ULink@BoxSpace@@V?$allocator@ULink@BoxSpace@@@std@@@std@@@std@@QAE@PAULink@BoxSpace@@PBU_Container_base0@1@@Z PROC ; std::_Vector_iterator<std::_Vector_val<BoxSpace::Link,std::allocator<BoxSpace::Link> > >::_Vector_iterator<std::_Vector_val<BoxSpace::Link,std::allocator<BoxSpace::Link> > >, COMDAT
; _this$ = ecx

; 304  : 		{	// construct with pointer _Parg

  00000	55		 push	 ebp
  00001	8b ec		 mov	 ebp, esp
  00003	8b c1		 mov	 eax, ecx
  00005	8b 4d 08	 mov	 ecx, DWORD PTR __Parg$[ebp]
  00008	89 08		 mov	 DWORD PTR [eax], ecx

; 305  : 		}

  0000a	5d		 pop	 ebp
  0000b	c2 08 00	 ret	 8
??0?$_Vector_iterator@V?$_Vector_val@ULink@BoxSpace@@V?$allocator@ULink@BoxSpace@@@std@@@std@@@std@@QAE@PAULink@BoxSpace@@PBU_Container_base0@1@@Z ENDP ; std::_Vector_iterator<std::_Vector_val<BoxSpace::Link,std::allocator<BoxSpace::Link> > >::_Vector_iterator<std::_Vector_val<BoxSpace::Link,std::allocator<BoxSpace::Link> > >
_TEXT	ENDS
PUBLIC	??8?$_Vector_const_iterator@V?$_Vector_val@ULink@BoxSpace@@V?$allocator@ULink@BoxSpace@@@std@@@std@@@std@@QBE_NABV01@@Z ; std::_Vector_const_iterator<std::_Vector_val<BoxSpace::Link,std::allocator<BoxSpace::Link> > >::operator==
; Function compile flags: /Ogsp
;	COMDAT ??8?$_Vector_const_iterator@V?$_Vector_val@ULink@BoxSpace@@V?$allocator@ULink@BoxSpace@@@std@@@std@@@std@@QBE_NABV01@@Z
_TEXT	SEGMENT
__Right$ = 8						; size = 4
??8?$_Vector_const_iterator@V?$_Vector_val@ULink@BoxSpace@@V?$allocator@ULink@BoxSpace@@@std@@@std@@@std@@QBE_NABV01@@Z PROC ; std::_Vector_const_iterator<std::_Vector_val<BoxSpace::Link,std::allocator<BoxSpace::Link> > >::operator==, COMDAT
; _this$ = ecx

; 201  : 		{	// test for iterator equality

  00000	55		 push	 ebp
  00001	8b ec		 mov	 ebp, esp

; 202  : 		_Compat(_Right);
; 203  : 		return (this->_Ptr == _Right._Ptr);

  00003	8b 01		 mov	 eax, DWORD PTR [ecx]
  00005	8b 4d 08	 mov	 ecx, DWORD PTR __Right$[ebp]
  00008	2b 01		 sub	 eax, DWORD PTR [ecx]
  0000a	f7 d8		 neg	 eax
  0000c	1b c0		 sbb	 eax, eax
  0000e	40		 inc	 eax

; 204  : 		}

  0000f	5d		 pop	 ebp
  00010	c2 04 00	 ret	 4
??8?$_Vector_const_iterator@V?$_Vector_val@ULink@BoxSpace@@V?$allocator@ULink@BoxSpace@@@std@@@std@@@std@@QBE_NABV01@@Z ENDP ; std::_Vector_const_iterator<std::_Vector_val<BoxSpace::Link,std::allocator<BoxSpace::Link> > >::operator==
_TEXT	ENDS
PUBLIC	??D?$_Vector_iterator@V?$_Vector_val@UBox@BoxSpace@@V?$allocator@UBox@BoxSpace@@@std@@@std@@@std@@QBEAAUBox@BoxSpace@@XZ ; std::_Vector_iterator<std::_Vector_val<BoxSpace::Box,std::allocator<BoxSpace::Box> > >::operator*
; Function compile flags: /Ogsp
;	COMDAT ??D?$_Vector_iterator@V?$_Vector_val@UBox@BoxSpace@@V?$allocator@UBox@BoxSpace@@@std@@@std@@@std@@QBEAAUBox@BoxSpace@@XZ
_TEXT	SEGMENT
??D?$_Vector_iterator@V?$_Vector_val@UBox@BoxSpace@@V?$allocator@UBox@BoxSpace@@@std@@@std@@@std@@QBEAAUBox@BoxSpace@@XZ PROC ; std::_Vector_iterator<std::_Vector_val<BoxSpace::Box,std::allocator<BoxSpace::Box> > >::operator*, COMDAT
; _this$ = ecx

; 322  : 		return ((reference)**(_Mybase *)this);

  00000	8b 01		 mov	 eax, DWORD PTR [ecx]

; 323  : 		}

  00002	c3		 ret	 0
??D?$_Vector_iterator@V?$_Vector_val@UBox@BoxSpace@@V?$allocator@UBox@BoxSpace@@@std@@@std@@@std@@QBEAAUBox@BoxSpace@@XZ ENDP ; std::_Vector_iterator<std::_Vector_val<BoxSpace::Box,std::allocator<BoxSpace::Box> > >::operator*
_TEXT	ENDS
PUBLIC	?_Grow_to@?$vector@FV?$allocator@F@std@@@std@@IBEII@Z ; std::vector<short,std::allocator<short> >::_Grow_to
; Function compile flags: /Ogsp
;	COMDAT ?_Grow_to@?$vector@FV?$allocator@F@std@@@std@@IBEII@Z
_TEXT	SEGMENT
__Count$ = 8						; size = 4
?_Grow_to@?$vector@FV?$allocator@F@std@@@std@@IBEII@Z PROC ; std::vector<short,std::allocator<short> >::_Grow_to, COMDAT
; _this$ = ecx

; 1274 : 		{	// grow by 50% or at least to _Count

  00000	55		 push	 ebp
  00001	8b ec		 mov	 ebp, esp

; 1275 : 		size_type _Capacity = capacity();

  00003	8b 41 08	 mov	 eax, DWORD PTR [ecx+8]
  00006	2b 01		 sub	 eax, DWORD PTR [ecx]

; 1276 : 
; 1277 : 		_Capacity = max_size() - _Capacity / 2 < _Capacity
; 1278 : 			? 0 : _Capacity + _Capacity / 2;	// try to grow by 50%

  00008	ba ff ff ff 7f	 mov	 edx, 2147483647		; 7fffffffH
  0000d	d1 f8		 sar	 eax, 1
  0000f	8b c8		 mov	 ecx, eax
  00011	d1 e9		 shr	 ecx, 1
  00013	2b d1		 sub	 edx, ecx
  00015	3b d0		 cmp	 edx, eax
  00017	73 04		 jae	 SHORT $LN4@Grow_to
  00019	33 c0		 xor	 eax, eax
  0001b	eb 02		 jmp	 SHORT $LN5@Grow_to
$LN4@Grow_to:
  0001d	03 c1		 add	 eax, ecx
$LN5@Grow_to:

; 1279 : 		if (_Capacity < _Count)

  0001f	3b 45 08	 cmp	 eax, DWORD PTR __Count$[ebp]

; 1280 : 			_Capacity = _Count;

  00022	0f 42 45 08	 cmovb	 eax, DWORD PTR __Count$[ebp]

; 1281 : 		return (_Capacity);
; 1282 : 		}

  00026	5d		 pop	 ebp
  00027	c2 04 00	 ret	 4
?_Grow_to@?$vector@FV?$allocator@F@std@@@std@@IBEII@Z ENDP ; std::vector<short,std::allocator<short> >::_Grow_to
_TEXT	ENDS
PUBLIC	?max_size@?$vector@ULink@BoxSpace@@V?$allocator@ULink@BoxSpace@@@std@@@std@@QBEIXZ ; std::vector<BoxSpace::Link,std::allocator<BoxSpace::Link> >::max_size
; Function compile flags: /Ogsp
;	COMDAT ?max_size@?$vector@ULink@BoxSpace@@V?$allocator@ULink@BoxSpace@@@std@@@std@@QBEIXZ
_TEXT	SEGMENT
?max_size@?$vector@ULink@BoxSpace@@V?$allocator@ULink@BoxSpace@@@std@@@std@@QBEIXZ PROC ; std::vector<BoxSpace::Link,std::allocator<BoxSpace::Link> >::max_size, COMDAT
; _this$ = ecx

; 884  : 		return (this->_Alval.max_size());

  00000	b8 ff ff ff 07	 mov	 eax, 134217727		; 07ffffffH

; 885  : 		}

  00005	c3		 ret	 0
?max_size@?$vector@ULink@BoxSpace@@V?$allocator@ULink@BoxSpace@@@std@@@std@@QBEIXZ ENDP ; std::vector<BoxSpace::Link,std::allocator<BoxSpace::Link> >::max_size
_TEXT	ENDS
PUBLIC	?_Grow_to@?$vector@ULink@BoxSpace@@V?$allocator@ULink@BoxSpace@@@std@@@std@@IBEII@Z ; std::vector<BoxSpace::Link,std::allocator<BoxSpace::Link> >::_Grow_to
; Function compile flags: /Ogsp
;	COMDAT ?_Grow_to@?$vector@ULink@BoxSpace@@V?$allocator@ULink@BoxSpace@@@std@@@std@@IBEII@Z
_TEXT	SEGMENT
__Count$ = 8						; size = 4
?_Grow_to@?$vector@ULink@BoxSpace@@V?$allocator@ULink@BoxSpace@@@std@@@std@@IBEII@Z PROC ; std::vector<BoxSpace::Link,std::allocator<BoxSpace::Link> >::_Grow_to, COMDAT
; _this$ = ecx

; 1274 : 		{	// grow by 50% or at least to _Count

  00000	55		 push	 ebp
  00001	8b ec		 mov	 ebp, esp

; 1275 : 		size_type _Capacity = capacity();

  00003	8b 41 08	 mov	 eax, DWORD PTR [ecx+8]
  00006	2b 01		 sub	 eax, DWORD PTR [ecx]

; 1276 : 
; 1277 : 		_Capacity = max_size() - _Capacity / 2 < _Capacity
; 1278 : 			? 0 : _Capacity + _Capacity / 2;	// try to grow by 50%

  00008	ba ff ff ff 07	 mov	 edx, 134217727		; 07ffffffH
  0000d	c1 f8 05	 sar	 eax, 5
  00010	8b c8		 mov	 ecx, eax
  00012	d1 e9		 shr	 ecx, 1
  00014	2b d1		 sub	 edx, ecx
  00016	3b d0		 cmp	 edx, eax
  00018	73 04		 jae	 SHORT $LN4@Grow_to@2
  0001a	33 c0		 xor	 eax, eax
  0001c	eb 02		 jmp	 SHORT $LN5@Grow_to@2
$LN4@Grow_to@2:
  0001e	03 c1		 add	 eax, ecx
$LN5@Grow_to@2:

; 1279 : 		if (_Capacity < _Count)

  00020	3b 45 08	 cmp	 eax, DWORD PTR __Count$[ebp]

; 1280 : 			_Capacity = _Count;

  00023	0f 42 45 08	 cmovb	 eax, DWORD PTR __Count$[ebp]

; 1281 : 		return (_Capacity);
; 1282 : 		}

  00027	5d		 pop	 ebp
  00028	c2 04 00	 ret	 4
?_Grow_to@?$vector@ULink@BoxSpace@@V?$allocator@ULink@BoxSpace@@@std@@@std@@IBEII@Z ENDP ; std::vector<BoxSpace::Link,std::allocator<BoxSpace::Link> >::_Grow_to
_TEXT	ENDS
PUBLIC	?max_size@?$vector@UBox@BoxSpace@@V?$allocator@UBox@BoxSpace@@@std@@@std@@QBEIXZ ; std::vector<BoxSpace::Box,std::allocator<BoxSpace::Box> >::max_size
; Function compile flags: /Ogsp
;	COMDAT ?max_size@?$vector@UBox@BoxSpace@@V?$allocator@UBox@BoxSpace@@@std@@@std@@QBEIXZ
_TEXT	SEGMENT
?max_size@?$vector@UBox@BoxSpace@@V?$allocator@UBox@BoxSpace@@@std@@@std@@QBEIXZ PROC ; std::vector<BoxSpace::Box,std::allocator<BoxSpace::Box> >::max_size, COMDAT
; _this$ = ecx

; 884  : 		return (this->_Alval.max_size());

  00000	b8 2e ba e8 02	 mov	 eax, 48806446		; 02e8ba2eH

; 885  : 		}

  00005	c3		 ret	 0
?max_size@?$vector@UBox@BoxSpace@@V?$allocator@UBox@BoxSpace@@@std@@@std@@QBEIXZ ENDP ; std::vector<BoxSpace::Box,std::allocator<BoxSpace::Box> >::max_size
_TEXT	ENDS
PUBLIC	?_Grow_to@?$vector@UBox@BoxSpace@@V?$allocator@UBox@BoxSpace@@@std@@@std@@IBEII@Z ; std::vector<BoxSpace::Box,std::allocator<BoxSpace::Box> >::_Grow_to
; Function compile flags: /Ogsp
;	COMDAT ?_Grow_to@?$vector@UBox@BoxSpace@@V?$allocator@UBox@BoxSpace@@@std@@@std@@IBEII@Z
_TEXT	SEGMENT
__Count$ = 8						; size = 4
?_Grow_to@?$vector@UBox@BoxSpace@@V?$allocator@UBox@BoxSpace@@@std@@@std@@IBEII@Z PROC ; std::vector<BoxSpace::Box,std::allocator<BoxSpace::Box> >::_Grow_to, COMDAT
; _this$ = ecx

; 1274 : 		{	// grow by 50% or at least to _Count

  00000	55		 push	 ebp
  00001	8b ec		 mov	 ebp, esp

; 1275 : 		size_type _Capacity = capacity();

  00003	8b 41 08	 mov	 eax, DWORD PTR [ecx+8]
  00006	2b 01		 sub	 eax, DWORD PTR [ecx]
  00008	6a 58		 push	 88			; 00000058H
  0000a	99		 cdq
  0000b	59		 pop	 ecx
  0000c	f7 f9		 idiv	 ecx

; 1276 : 
; 1277 : 		_Capacity = max_size() - _Capacity / 2 < _Capacity
; 1278 : 			? 0 : _Capacity + _Capacity / 2;	// try to grow by 50%

  0000e	ba 2e ba e8 02	 mov	 edx, 48806446		; 02e8ba2eH
  00013	8b c8		 mov	 ecx, eax
  00015	d1 e9		 shr	 ecx, 1
  00017	2b d1		 sub	 edx, ecx
  00019	3b d0		 cmp	 edx, eax
  0001b	73 04		 jae	 SHORT $LN4@Grow_to@3
  0001d	33 c0		 xor	 eax, eax
  0001f	eb 02		 jmp	 SHORT $LN5@Grow_to@3
$LN4@Grow_to@3:
  00021	03 c1		 add	 eax, ecx
$LN5@Grow_to@3:

; 1279 : 		if (_Capacity < _Count)

  00023	3b 45 08	 cmp	 eax, DWORD PTR __Count$[ebp]

; 1280 : 			_Capacity = _Count;

  00026	0f 42 45 08	 cmovb	 eax, DWORD PTR __Count$[ebp]

; 1281 : 		return (_Capacity);
; 1282 : 		}

  0002a	5d		 pop	 ebp
  0002b	c2 04 00	 ret	 4
?_Grow_to@?$vector@UBox@BoxSpace@@V?$allocator@UBox@BoxSpace@@@std@@@std@@IBEII@Z ENDP ; std::vector<BoxSpace::Box,std::allocator<BoxSpace::Box> >::_Grow_to
_TEXT	ENDS
PUBLIC	?empty@?$PriorityQueue@PAUDNode@?$AStarSearcher@VBoxSpace@@PAUBox@1@@@UDNodeCostGreater@2@@@QBE_NXZ ; PriorityQueue<AStarSearcher<BoxSpace,BoxSpace::Box *>::DNode *,AStarSearcher<BoxSpace,BoxSpace::Box *>::DNodeCostGreater>::empty
; Function compile flags: /Ogsp
; File d:\lost saga for developer\youtube\tutorial\source\src\lsclient\priorityq.h
;	COMDAT ?empty@?$PriorityQueue@PAUDNode@?$AStarSearcher@VBoxSpace@@PAUBox@1@@@UDNodeCostGreater@2@@@QBE_NXZ
_TEXT	SEGMENT
?empty@?$PriorityQueue@PAUDNode@?$AStarSearcher@VBoxSpace@@PAUBox@1@@@UDNodeCostGreater@2@@@QBE_NXZ PROC ; PriorityQueue<AStarSearcher<BoxSpace,BoxSpace::Box *>::DNode *,AStarSearcher<BoxSpace,BoxSpace::Box *>::DNodeCostGreater>::empty, COMDAT
; _this$ = ecx

; 54   : 	bool empty() const				{ return m_heap.empty(); }

  00000	8b 41 04	 mov	 eax, DWORD PTR [ecx+4]
  00003	2b 41 08	 sub	 eax, DWORD PTR [ecx+8]
  00006	f7 d8		 neg	 eax
  00008	1b c0		 sbb	 eax, eax
  0000a	40		 inc	 eax
  0000b	c3		 ret	 0
?empty@?$PriorityQueue@PAUDNode@?$AStarSearcher@VBoxSpace@@PAUBox@1@@@UDNodeCostGreater@2@@@QBE_NXZ ENDP ; PriorityQueue<AStarSearcher<BoxSpace,BoxSpace::Box *>::DNode *,AStarSearcher<BoxSpace,BoxSpace::Box *>::DNodeCostGreater>::empty
_TEXT	ENDS
PUBLIC	??0?$_Vector_iterator@V?$_Vector_val@FV?$allocator@F@std@@@std@@@std@@QAE@PAFPBU_Container_base0@1@@Z ; std::_Vector_iterator<std::_Vector_val<short,std::allocator<short> > >::_Vector_iterator<std::_Vector_val<short,std::allocator<short> > >
; Function compile flags: /Ogsp
; File c:\program files (x86)\microsoft visual studio 10.0\vc\include\vector
;	COMDAT ??0?$_Vector_iterator@V?$_Vector_val@FV?$allocator@F@std@@@std@@@std@@QAE@PAFPBU_Container_base0@1@@Z
_TEXT	SEGMENT
__Parg$ = 8						; size = 4
__Pvector$ = 12						; size = 4
??0?$_Vector_iterator@V?$_Vector_val@FV?$allocator@F@std@@@std@@@std@@QAE@PAFPBU_Container_base0@1@@Z PROC ; std::_Vector_iterator<std::_Vector_val<short,std::allocator<short> > >::_Vector_iterator<std::_Vector_val<short,std::allocator<short> > >, COMDAT
; _this$ = ecx

; 304  : 		{	// construct with pointer _Parg

  00000	55		 push	 ebp
  00001	8b ec		 mov	 ebp, esp
  00003	8b c1		 mov	 eax, ecx
  00005	8b 4d 08	 mov	 ecx, DWORD PTR __Parg$[ebp]
  00008	89 08		 mov	 DWORD PTR [eax], ecx

; 305  : 		}

  0000a	5d		 pop	 ebp
  0000b	c2 08 00	 ret	 8
??0?$_Vector_iterator@V?$_Vector_val@FV?$allocator@F@std@@@std@@@std@@QAE@PAFPBU_Container_base0@1@@Z ENDP ; std::_Vector_iterator<std::_Vector_val<short,std::allocator<short> > >::_Vector_iterator<std::_Vector_val<short,std::allocator<short> > >
_TEXT	ENDS
PUBLIC	??0?$_Vector_iterator@V?$_Vector_val@UBox@BoxSpace@@V?$allocator@UBox@BoxSpace@@@std@@@std@@@std@@QAE@PAUBox@BoxSpace@@PBU_Container_base0@1@@Z ; std::_Vector_iterator<std::_Vector_val<BoxSpace::Box,std::allocator<BoxSpace::Box> > >::_Vector_iterator<std::_Vector_val<BoxSpace::Box,std::allocator<BoxSpace::Box> > >
; Function compile flags: /Ogsp
;	COMDAT ??0?$_Vector_iterator@V?$_Vector_val@UBox@BoxSpace@@V?$allocator@UBox@BoxSpace@@@std@@@std@@@std@@QAE@PAUBox@BoxSpace@@PBU_Container_base0@1@@Z
_TEXT	SEGMENT
__Parg$ = 8						; size = 4
__Pvector$ = 12						; size = 4
??0?$_Vector_iterator@V?$_Vector_val@UBox@BoxSpace@@V?$allocator@UBox@BoxSpace@@@std@@@std@@@std@@QAE@PAUBox@BoxSpace@@PBU_Container_base0@1@@Z PROC ; std::_Vector_iterator<std::_Vector_val<BoxSpace::Box,std::allocator<BoxSpace::Box> > >::_Vector_iterator<std::_Vector_val<BoxSpace::Box,std::allocator<BoxSpace::Box> > >, COMDAT
; _this$ = ecx

; 304  : 		{	// construct with pointer _Parg

  00000	55		 push	 ebp
  00001	8b ec		 mov	 ebp, esp
  00003	8b c1		 mov	 eax, ecx
  00005	8b 4d 08	 mov	 ecx, DWORD PTR __Parg$[ebp]
  00008	89 08		 mov	 DWORD PTR [eax], ecx

; 305  : 		}

  0000a	5d		 pop	 ebp
  0000b	c2 08 00	 ret	 8
??0?$_Vector_iterator@V?$_Vector_val@UBox@BoxSpace@@V?$allocator@UBox@BoxSpace@@@std@@@std@@@std@@QAE@PAUBox@BoxSpace@@PBU_Container_base0@1@@Z ENDP ; std::_Vector_iterator<std::_Vector_val<BoxSpace::Box,std::allocator<BoxSpace::Box> > >::_Vector_iterator<std::_Vector_val<BoxSpace::Box,std::allocator<BoxSpace::Box> > >
_TEXT	ENDS
PUBLIC	?allocate@?$allocator@ULink@BoxSpace@@@std@@QAEPAULink@BoxSpace@@I@Z ; std::allocator<BoxSpace::Link>::allocate
; Function compile flags: /Ogsp
; File c:\program files (x86)\microsoft visual studio 10.0\vc\include\xmemory
;	COMDAT ?allocate@?$allocator@ULink@BoxSpace@@@std@@QAEPAULink@BoxSpace@@I@Z
_TEXT	SEGMENT
__Count$ = 8						; size = 4
?allocate@?$allocator@ULink@BoxSpace@@@std@@QAEPAULink@BoxSpace@@I@Z PROC ; std::allocator<BoxSpace::Link>::allocate, COMDAT
; _this$ = ecx

; 186  : 		{	// allocate array of _Count elements

  00000	55		 push	 ebp
  00001	8b ec		 mov	 ebp, esp

; 187  : 		return (_Allocate(_Count, (pointer)0));

  00003	6a 00		 push	 0
  00005	ff 75 08	 push	 DWORD PTR __Count$[ebp]
  00008	e8 00 00 00 00	 call	 ??$_Allocate@ULink@BoxSpace@@@std@@YAPAULink@BoxSpace@@IPAU12@@Z ; std::_Allocate<BoxSpace::Link>
  0000d	59		 pop	 ecx
  0000e	59		 pop	 ecx

; 188  : 		}

  0000f	5d		 pop	 ebp
  00010	c2 04 00	 ret	 4
?allocate@?$allocator@ULink@BoxSpace@@@std@@QAEPAULink@BoxSpace@@I@Z ENDP ; std::allocator<BoxSpace::Link>::allocate
_TEXT	ENDS
PUBLIC	?allocate@?$allocator@UBox@BoxSpace@@@std@@QAEPAUBox@BoxSpace@@I@Z ; std::allocator<BoxSpace::Box>::allocate
; Function compile flags: /Ogsp
;	COMDAT ?allocate@?$allocator@UBox@BoxSpace@@@std@@QAEPAUBox@BoxSpace@@I@Z
_TEXT	SEGMENT
__Count$ = 8						; size = 4
?allocate@?$allocator@UBox@BoxSpace@@@std@@QAEPAUBox@BoxSpace@@I@Z PROC ; std::allocator<BoxSpace::Box>::allocate, COMDAT
; _this$ = ecx

; 186  : 		{	// allocate array of _Count elements

  00000	55		 push	 ebp
  00001	8b ec		 mov	 ebp, esp

; 187  : 		return (_Allocate(_Count, (pointer)0));

  00003	6a 00		 push	 0
  00005	ff 75 08	 push	 DWORD PTR __Count$[ebp]
  00008	e8 00 00 00 00	 call	 ??$_Allocate@UBox@BoxSpace@@@std@@YAPAUBox@BoxSpace@@IPAU12@@Z ; std::_Allocate<BoxSpace::Box>
  0000d	59		 pop	 ecx
  0000e	59		 pop	 ecx

; 188  : 		}

  0000f	5d		 pop	 ebp
  00010	c2 04 00	 ret	 4
?allocate@?$allocator@UBox@BoxSpace@@@std@@QAEPAUBox@BoxSpace@@I@Z ENDP ; std::allocator<BoxSpace::Box>::allocate
_TEXT	ENDS
PUBLIC	??0?$_Vector_iterator@V?$_Vector_val@PAUDNode@?$AStarSearcher@VBoxSpace@@PAUBox@1@@@V?$allocator@PAUDNode@?$AStarSearcher@VBoxSpace@@PAUBox@1@@@@std@@@std@@@std@@QAE@XZ ; std::_Vector_iterator<std::_Vector_val<AStarSearcher<BoxSpace,BoxSpace::Box *>::DNode *,std::allocator<AStarSearcher<BoxSpace,BoxSpace::Box *>::DNode *> > >::_Vector_iterator<std::_Vector_val<AStarSearcher<BoxSpace,BoxSpace::Box *>::DNode *,std::allocator<AStarSearcher<BoxSpace,BoxSpace::Box *>::DNode *> > >
; Function compile flags: /Ogsp
; File c:\program files (x86)\microsoft visual studio 10.0\vc\include\vector
;	COMDAT ??0?$_Vector_iterator@V?$_Vector_val@PAUDNode@?$AStarSearcher@VBoxSpace@@PAUBox@1@@@V?$allocator@PAUDNode@?$AStarSearcher@VBoxSpace@@PAUBox@1@@@@std@@@std@@@std@@QAE@XZ
_TEXT	SEGMENT
??0?$_Vector_iterator@V?$_Vector_val@PAUDNode@?$AStarSearcher@VBoxSpace@@PAUBox@1@@@V?$allocator@PAUDNode@?$AStarSearcher@VBoxSpace@@PAUBox@1@@@@std@@@std@@@std@@QAE@XZ PROC ; std::_Vector_iterator<std::_Vector_val<AStarSearcher<BoxSpace,BoxSpace::Box *>::DNode *,std::allocator<AStarSearcher<BoxSpace,BoxSpace::Box *>::DNode *> > >::_Vector_iterator<std::_Vector_val<AStarSearcher<BoxSpace,BoxSpace::Box *>::DNode *,std::allocator<AStarSearcher<BoxSpace,BoxSpace::Box *>::DNode *> > >, COMDAT
; _this$ = ecx

; 298  : 	_Vector_iterator()

  00000	8b c1		 mov	 eax, ecx
  00002	83 20 00	 and	 DWORD PTR [eax], 0

; 299  : 		{	// construct with null vector pointer
; 300  : 		}

  00005	c3		 ret	 0
??0?$_Vector_iterator@V?$_Vector_val@PAUDNode@?$AStarSearcher@VBoxSpace@@PAUBox@1@@@V?$allocator@PAUDNode@?$AStarSearcher@VBoxSpace@@PAUBox@1@@@@std@@@std@@@std@@QAE@XZ ENDP ; std::_Vector_iterator<std::_Vector_val<AStarSearcher<BoxSpace,BoxSpace::Box *>::DNode *,std::allocator<AStarSearcher<BoxSpace,BoxSpace::Box *>::DNode *> > >::_Vector_iterator<std::_Vector_val<AStarSearcher<BoxSpace,BoxSpace::Box *>::DNode *,std::allocator<AStarSearcher<BoxSpace,BoxSpace::Box *>::DNode *> > >
_TEXT	ENDS
PUBLIC	??D?$_Vector_iterator@V?$_Vector_val@PAUDNode@?$AStarSearcher@VBoxSpace@@PAUBox@1@@@V?$allocator@PAUDNode@?$AStarSearcher@VBoxSpace@@PAUBox@1@@@@std@@@std@@@std@@QBEAAPAUDNode@?$AStarSearcher@VBoxSpace@@PAUBox@1@@@XZ ; std::_Vector_iterator<std::_Vector_val<AStarSearcher<BoxSpace,BoxSpace::Box *>::DNode *,std::allocator<AStarSearcher<BoxSpace,BoxSpace::Box *>::DNode *> > >::operator*
; Function compile flags: /Ogsp
;	COMDAT ??D?$_Vector_iterator@V?$_Vector_val@PAUDNode@?$AStarSearcher@VBoxSpace@@PAUBox@1@@@V?$allocator@PAUDNode@?$AStarSearcher@VBoxSpace@@PAUBox@1@@@@std@@@std@@@std@@QBEAAPAUDNode@?$AStarSearcher@VBoxSpace@@PAUBox@1@@@XZ
_TEXT	SEGMENT
??D?$_Vector_iterator@V?$_Vector_val@PAUDNode@?$AStarSearcher@VBoxSpace@@PAUBox@1@@@V?$allocator@PAUDNode@?$AStarSearcher@VBoxSpace@@PAUBox@1@@@@std@@@std@@@std@@QBEAAPAUDNode@?$AStarSearcher@VBoxSpace@@PAUBox@1@@@XZ PROC ; std::_Vector_iterator<std::_Vector_val<AStarSearcher<BoxSpace,BoxSpace::Box *>::DNode *,std::allocator<AStarSearcher<BoxSpace,BoxSpace::Box *>::DNode *> > >::operator*, COMDAT
; _this$ = ecx

; 322  : 		return ((reference)**(_Mybase *)this);

  00000	8b 01		 mov	 eax, DWORD PTR [ecx]

; 323  : 		}

  00002	c3		 ret	 0
??D?$_Vector_iterator@V?$_Vector_val@PAUDNode@?$AStarSearcher@VBoxSpace@@PAUBox@1@@@V?$allocator@PAUDNode@?$AStarSearcher@VBoxSpace@@PAUBox@1@@@@std@@@std@@@std@@QBEAAPAUDNode@?$AStarSearcher@VBoxSpace@@PAUBox@1@@@XZ ENDP ; std::_Vector_iterator<std::_Vector_val<AStarSearcher<BoxSpace,BoxSpace::Box *>::DNode *,std::allocator<AStarSearcher<BoxSpace,BoxSpace::Box *>::DNode *> > >::operator*
_TEXT	ENDS
PUBLIC	??8?$_Vector_const_iterator@V?$_Vector_val@FV?$allocator@F@std@@@std@@@std@@QBE_NABV01@@Z ; std::_Vector_const_iterator<std::_Vector_val<short,std::allocator<short> > >::operator==
; Function compile flags: /Ogsp
;	COMDAT ??8?$_Vector_const_iterator@V?$_Vector_val@FV?$allocator@F@std@@@std@@@std@@QBE_NABV01@@Z
_TEXT	SEGMENT
__Right$ = 8						; size = 4
??8?$_Vector_const_iterator@V?$_Vector_val@FV?$allocator@F@std@@@std@@@std@@QBE_NABV01@@Z PROC ; std::_Vector_const_iterator<std::_Vector_val<short,std::allocator<short> > >::operator==, COMDAT
; _this$ = ecx

; 201  : 		{	// test for iterator equality

  00000	55		 push	 ebp
  00001	8b ec		 mov	 ebp, esp

; 202  : 		_Compat(_Right);
; 203  : 		return (this->_Ptr == _Right._Ptr);

  00003	8b 01		 mov	 eax, DWORD PTR [ecx]
  00005	8b 4d 08	 mov	 ecx, DWORD PTR __Right$[ebp]
  00008	2b 01		 sub	 eax, DWORD PTR [ecx]
  0000a	f7 d8		 neg	 eax
  0000c	1b c0		 sbb	 eax, eax
  0000e	40		 inc	 eax

; 204  : 		}

  0000f	5d		 pop	 ebp
  00010	c2 04 00	 ret	 4
??8?$_Vector_const_iterator@V?$_Vector_val@FV?$allocator@F@std@@@std@@@std@@QBE_NABV01@@Z ENDP ; std::_Vector_const_iterator<std::_Vector_val<short,std::allocator<short> > >::operator==
_TEXT	ENDS
PUBLIC	?max_size@?$vector@PAUDNode@?$AStarSearcher@VBoxSpace@@PAUBox@1@@@V?$allocator@PAUDNode@?$AStarSearcher@VBoxSpace@@PAUBox@1@@@@std@@@std@@QBEIXZ ; std::vector<AStarSearcher<BoxSpace,BoxSpace::Box *>::DNode *,std::allocator<AStarSearcher<BoxSpace,BoxSpace::Box *>::DNode *> >::max_size
; Function compile flags: /Ogsp
;	COMDAT ?max_size@?$vector@PAUDNode@?$AStarSearcher@VBoxSpace@@PAUBox@1@@@V?$allocator@PAUDNode@?$AStarSearcher@VBoxSpace@@PAUBox@1@@@@std@@@std@@QBEIXZ
_TEXT	SEGMENT
?max_size@?$vector@PAUDNode@?$AStarSearcher@VBoxSpace@@PAUBox@1@@@V?$allocator@PAUDNode@?$AStarSearcher@VBoxSpace@@PAUBox@1@@@@std@@@std@@QBEIXZ PROC ; std::vector<AStarSearcher<BoxSpace,BoxSpace::Box *>::DNode *,std::allocator<AStarSearcher<BoxSpace,BoxSpace::Box *>::DNode *> >::max_size, COMDAT
; _this$ = ecx

; 884  : 		return (this->_Alval.max_size());

  00000	b8 ff ff ff 3f	 mov	 eax, 1073741823		; 3fffffffH

; 885  : 		}

  00005	c3		 ret	 0
?max_size@?$vector@PAUDNode@?$AStarSearcher@VBoxSpace@@PAUBox@1@@@V?$allocator@PAUDNode@?$AStarSearcher@VBoxSpace@@PAUBox@1@@@@std@@@std@@QBEIXZ ENDP ; std::vector<AStarSearcher<BoxSpace,BoxSpace::Box *>::DNode *,std::allocator<AStarSearcher<BoxSpace,BoxSpace::Box *>::DNode *> >::max_size
_TEXT	ENDS
PUBLIC	?_Grow_to@?$vector@PAUDNode@?$AStarSearcher@VBoxSpace@@PAUBox@1@@@V?$allocator@PAUDNode@?$AStarSearcher@VBoxSpace@@PAUBox@1@@@@std@@@std@@IBEII@Z ; std::vector<AStarSearcher<BoxSpace,BoxSpace::Box *>::DNode *,std::allocator<AStarSearcher<BoxSpace,BoxSpace::Box *>::DNode *> >::_Grow_to
; Function compile flags: /Ogsp
;	COMDAT ?_Grow_to@?$vector@PAUDNode@?$AStarSearcher@VBoxSpace@@PAUBox@1@@@V?$allocator@PAUDNode@?$AStarSearcher@VBoxSpace@@PAUBox@1@@@@std@@@std@@IBEII@Z
_TEXT	SEGMENT
__Count$ = 8						; size = 4
?_Grow_to@?$vector@PAUDNode@?$AStarSearcher@VBoxSpace@@PAUBox@1@@@V?$allocator@PAUDNode@?$AStarSearcher@VBoxSpace@@PAUBox@1@@@@std@@@std@@IBEII@Z PROC ; std::vector<AStarSearcher<BoxSpace,BoxSpace::Box *>::DNode *,std::allocator<AStarSearcher<BoxSpace,BoxSpace::Box *>::DNode *> >::_Grow_to, COMDAT
; _this$ = ecx

; 1274 : 		{	// grow by 50% or at least to _Count

  00000	55		 push	 ebp
  00001	8b ec		 mov	 ebp, esp

; 1275 : 		size_type _Capacity = capacity();

  00003	8b 41 08	 mov	 eax, DWORD PTR [ecx+8]
  00006	2b 01		 sub	 eax, DWORD PTR [ecx]

; 1276 : 
; 1277 : 		_Capacity = max_size() - _Capacity / 2 < _Capacity
; 1278 : 			? 0 : _Capacity + _Capacity / 2;	// try to grow by 50%

  00008	ba ff ff ff 3f	 mov	 edx, 1073741823		; 3fffffffH
  0000d	c1 f8 02	 sar	 eax, 2
  00010	8b c8		 mov	 ecx, eax
  00012	d1 e9		 shr	 ecx, 1
  00014	2b d1		 sub	 edx, ecx
  00016	3b d0		 cmp	 edx, eax
  00018	73 04		 jae	 SHORT $LN4@Grow_to@4
  0001a	33 c0		 xor	 eax, eax
  0001c	eb 02		 jmp	 SHORT $LN5@Grow_to@4
$LN4@Grow_to@4:
  0001e	03 c1		 add	 eax, ecx
$LN5@Grow_to@4:

; 1279 : 		if (_Capacity < _Count)

  00020	3b 45 08	 cmp	 eax, DWORD PTR __Count$[ebp]

; 1280 : 			_Capacity = _Count;

  00023	0f 42 45 08	 cmovb	 eax, DWORD PTR __Count$[ebp]

; 1281 : 		return (_Capacity);
; 1282 : 		}

  00027	5d		 pop	 ebp
  00028	c2 04 00	 ret	 4
?_Grow_to@?$vector@PAUDNode@?$AStarSearcher@VBoxSpace@@PAUBox@1@@@V?$allocator@PAUDNode@?$AStarSearcher@VBoxSpace@@PAUBox@1@@@@std@@@std@@IBEII@Z ENDP ; std::vector<AStarSearcher<BoxSpace,BoxSpace::Box *>::DNode *,std::allocator<AStarSearcher<BoxSpace,BoxSpace::Box *>::DNode *> >::_Grow_to
_TEXT	ENDS
PUBLIC	??E?$_Vector_iterator@V?$_Vector_val@PAUDNode@?$AStarSearcher@VBoxSpace@@PAUBox@1@@@V?$allocator@PAUDNode@?$AStarSearcher@VBoxSpace@@PAUBox@1@@@@std@@@std@@@std@@QAEAAV01@XZ ; std::_Vector_iterator<std::_Vector_val<AStarSearcher<BoxSpace,BoxSpace::Box *>::DNode *,std::allocator<AStarSearcher<BoxSpace,BoxSpace::Box *>::DNode *> > >::operator++
; Function compile flags: /Ogsp
;	COMDAT ??E?$_Vector_iterator@V?$_Vector_val@PAUDNode@?$AStarSearcher@VBoxSpace@@PAUBox@1@@@V?$allocator@PAUDNode@?$AStarSearcher@VBoxSpace@@PAUBox@1@@@@std@@@std@@@std@@QAEAAV01@XZ
_TEXT	SEGMENT
??E?$_Vector_iterator@V?$_Vector_val@PAUDNode@?$AStarSearcher@VBoxSpace@@PAUBox@1@@@V?$allocator@PAUDNode@?$AStarSearcher@VBoxSpace@@PAUBox@1@@@@std@@@std@@@std@@QAEAAV01@XZ PROC ; std::_Vector_iterator<std::_Vector_val<AStarSearcher<BoxSpace,BoxSpace::Box *>::DNode *,std::allocator<AStarSearcher<BoxSpace,BoxSpace::Box *>::DNode *> > >::operator++, COMDAT
; _this$ = ecx

; 331  : 		{	// preincrement

  00000	8b c1		 mov	 eax, ecx

; 332  : 		++*(_Mybase *)this;

  00002	83 00 04	 add	 DWORD PTR [eax], 4

; 333  : 		return (*this);
; 334  : 		}

  00005	c3		 ret	 0
??E?$_Vector_iterator@V?$_Vector_val@PAUDNode@?$AStarSearcher@VBoxSpace@@PAUBox@1@@@V?$allocator@PAUDNode@?$AStarSearcher@VBoxSpace@@PAUBox@1@@@@std@@@std@@@std@@QAEAAV01@XZ ENDP ; std::_Vector_iterator<std::_Vector_val<AStarSearcher<BoxSpace,BoxSpace::Box *>::DNode *,std::allocator<AStarSearcher<BoxSpace,BoxSpace::Box *>::DNode *> > >::operator++
_TEXT	ENDS
PUBLIC	??Y?$_Vector_iterator@V?$_Vector_val@PAUDNode@?$AStarSearcher@VBoxSpace@@PAUBox@1@@@V?$allocator@PAUDNode@?$AStarSearcher@VBoxSpace@@PAUBox@1@@@@std@@@std@@@std@@QAEAAV01@H@Z ; std::_Vector_iterator<std::_Vector_val<AStarSearcher<BoxSpace,BoxSpace::Box *>::DNode *,std::allocator<AStarSearcher<BoxSpace,BoxSpace::Box *>::DNode *> > >::operator+=
; Function compile flags: /Ogsp
;	COMDAT ??Y?$_Vector_iterator@V?$_Vector_val@PAUDNode@?$AStarSearcher@VBoxSpace@@PAUBox@1@@@V?$allocator@PAUDNode@?$AStarSearcher@VBoxSpace@@PAUBox@1@@@@std@@@std@@@std@@QAEAAV01@H@Z
_TEXT	SEGMENT
__Off$ = 8						; size = 4
??Y?$_Vector_iterator@V?$_Vector_val@PAUDNode@?$AStarSearcher@VBoxSpace@@PAUBox@1@@@V?$allocator@PAUDNode@?$AStarSearcher@VBoxSpace@@PAUBox@1@@@@std@@@std@@@std@@QAEAAV01@H@Z PROC ; std::_Vector_iterator<std::_Vector_val<AStarSearcher<BoxSpace,BoxSpace::Box *>::DNode *,std::allocator<AStarSearcher<BoxSpace,BoxSpace::Box *>::DNode *> > >::operator+=, COMDAT
; _this$ = ecx

; 357  : 		{	// increment by integer

  00000	55		 push	 ebp
  00001	8b ec		 mov	 ebp, esp
  00003	8b c1		 mov	 eax, ecx

; 358  : 		*(_Mybase *)this += _Off;

  00005	8b 4d 08	 mov	 ecx, DWORD PTR __Off$[ebp]
  00008	c1 e1 02	 shl	 ecx, 2
  0000b	01 08		 add	 DWORD PTR [eax], ecx

; 359  : 		return (*this);
; 360  : 		}

  0000d	5d		 pop	 ebp
  0000e	c2 04 00	 ret	 4
??Y?$_Vector_iterator@V?$_Vector_val@PAUDNode@?$AStarSearcher@VBoxSpace@@PAUBox@1@@@V?$allocator@PAUDNode@?$AStarSearcher@VBoxSpace@@PAUBox@1@@@@std@@@std@@@std@@QAEAAV01@H@Z ENDP ; std::_Vector_iterator<std::_Vector_val<AStarSearcher<BoxSpace,BoxSpace::Box *>::DNode *,std::allocator<AStarSearcher<BoxSpace,BoxSpace::Box *>::DNode *> > >::operator+=
_TEXT	ENDS
PUBLIC	?allocate@?$allocator@PAUDNode@?$AStarSearcher@VBoxSpace@@PAUBox@1@@@@std@@QAEPAPAUDNode@?$AStarSearcher@VBoxSpace@@PAUBox@1@@@I@Z ; std::allocator<AStarSearcher<BoxSpace,BoxSpace::Box *>::DNode *>::allocate
; Function compile flags: /Ogsp
; File c:\program files (x86)\microsoft visual studio 10.0\vc\include\xmemory
;	COMDAT ?allocate@?$allocator@PAUDNode@?$AStarSearcher@VBoxSpace@@PAUBox@1@@@@std@@QAEPAPAUDNode@?$AStarSearcher@VBoxSpace@@PAUBox@1@@@I@Z
_TEXT	SEGMENT
__Count$ = 8						; size = 4
?allocate@?$allocator@PAUDNode@?$AStarSearcher@VBoxSpace@@PAUBox@1@@@@std@@QAEPAPAUDNode@?$AStarSearcher@VBoxSpace@@PAUBox@1@@@I@Z PROC ; std::allocator<AStarSearcher<BoxSpace,BoxSpace::Box *>::DNode *>::allocate, COMDAT
; _this$ = ecx

; 186  : 		{	// allocate array of _Count elements

  00000	55		 push	 ebp
  00001	8b ec		 mov	 ebp, esp

; 187  : 		return (_Allocate(_Count, (pointer)0));

  00003	6a 00		 push	 0
  00005	ff 75 08	 push	 DWORD PTR __Count$[ebp]
  00008	e8 00 00 00 00	 call	 ??$_Allocate@PAUDNode@?$AStarSearcher@VBoxSpace@@PAUBox@1@@@@std@@YAPAPAUDNode@?$AStarSearcher@VBoxSpace@@PAUBox@1@@@IPAPAU12@@Z ; std::_Allocate<AStarSearcher<BoxSpace,BoxSpace::Box *>::DNode *>
  0000d	59		 pop	 ecx
  0000e	59		 pop	 ecx

; 188  : 		}

  0000f	5d		 pop	 ebp
  00010	c2 04 00	 ret	 4
?allocate@?$allocator@PAUDNode@?$AStarSearcher@VBoxSpace@@PAUBox@1@@@@std@@QAEPAPAUDNode@?$AStarSearcher@VBoxSpace@@PAUBox@1@@@I@Z ENDP ; std::allocator<AStarSearcher<BoxSpace,BoxSpace::Box *>::DNode *>::allocate
_TEXT	ENDS
PUBLIC	?max_size@?$vector@PBQAUBox@BoxSpace@@V?$allocator@PBQAUBox@BoxSpace@@@std@@@std@@QBEIXZ ; std::vector<BoxSpace::Box * const *,std::allocator<BoxSpace::Box * const *> >::max_size
; Function compile flags: /Ogsp
; File c:\program files (x86)\microsoft visual studio 10.0\vc\include\vector
;	COMDAT ?max_size@?$vector@PBQAUBox@BoxSpace@@V?$allocator@PBQAUBox@BoxSpace@@@std@@@std@@QBEIXZ
_TEXT	SEGMENT
?max_size@?$vector@PBQAUBox@BoxSpace@@V?$allocator@PBQAUBox@BoxSpace@@@std@@@std@@QBEIXZ PROC ; std::vector<BoxSpace::Box * const *,std::allocator<BoxSpace::Box * const *> >::max_size, COMDAT
; _this$ = ecx

; 884  : 		return (this->_Alval.max_size());

  00000	b8 ff ff ff 3f	 mov	 eax, 1073741823		; 3fffffffH

; 885  : 		}

  00005	c3		 ret	 0
?max_size@?$vector@PBQAUBox@BoxSpace@@V?$allocator@PBQAUBox@BoxSpace@@@std@@@std@@QBEIXZ ENDP ; std::vector<BoxSpace::Box * const *,std::allocator<BoxSpace::Box * const *> >::max_size
_TEXT	ENDS
PUBLIC	?_Grow_to@?$vector@PBQAUBox@BoxSpace@@V?$allocator@PBQAUBox@BoxSpace@@@std@@@std@@IBEII@Z ; std::vector<BoxSpace::Box * const *,std::allocator<BoxSpace::Box * const *> >::_Grow_to
; Function compile flags: /Ogsp
;	COMDAT ?_Grow_to@?$vector@PBQAUBox@BoxSpace@@V?$allocator@PBQAUBox@BoxSpace@@@std@@@std@@IBEII@Z
_TEXT	SEGMENT
__Count$ = 8						; size = 4
?_Grow_to@?$vector@PBQAUBox@BoxSpace@@V?$allocator@PBQAUBox@BoxSpace@@@std@@@std@@IBEII@Z PROC ; std::vector<BoxSpace::Box * const *,std::allocator<BoxSpace::Box * const *> >::_Grow_to, COMDAT
; _this$ = ecx

; 1274 : 		{	// grow by 50% or at least to _Count

  00000	55		 push	 ebp
  00001	8b ec		 mov	 ebp, esp

; 1275 : 		size_type _Capacity = capacity();

  00003	8b 41 08	 mov	 eax, DWORD PTR [ecx+8]
  00006	2b 01		 sub	 eax, DWORD PTR [ecx]

; 1276 : 
; 1277 : 		_Capacity = max_size() - _Capacity / 2 < _Capacity
; 1278 : 			? 0 : _Capacity + _Capacity / 2;	// try to grow by 50%

  00008	ba ff ff ff 3f	 mov	 edx, 1073741823		; 3fffffffH
  0000d	c1 f8 02	 sar	 eax, 2
  00010	8b c8		 mov	 ecx, eax
  00012	d1 e9		 shr	 ecx, 1
  00014	2b d1		 sub	 edx, ecx
  00016	3b d0		 cmp	 edx, eax
  00018	73 04		 jae	 SHORT $LN4@Grow_to@5
  0001a	33 c0		 xor	 eax, eax
  0001c	eb 02		 jmp	 SHORT $LN5@Grow_to@5
$LN4@Grow_to@5:
  0001e	03 c1		 add	 eax, ecx
$LN5@Grow_to@5:

; 1279 : 		if (_Capacity < _Count)

  00020	3b 45 08	 cmp	 eax, DWORD PTR __Count$[ebp]

; 1280 : 			_Capacity = _Count;

  00023	0f 42 45 08	 cmovb	 eax, DWORD PTR __Count$[ebp]

; 1281 : 		return (_Capacity);
; 1282 : 		}

  00027	5d		 pop	 ebp
  00028	c2 04 00	 ret	 4
?_Grow_to@?$vector@PBQAUBox@BoxSpace@@V?$allocator@PBQAUBox@BoxSpace@@@std@@@std@@IBEII@Z ENDP ; std::vector<BoxSpace::Box * const *,std::allocator<BoxSpace::Box * const *> >::_Grow_to
_TEXT	ENDS
PUBLIC	?allocate@?$allocator@PBQAUBox@BoxSpace@@@std@@QAEPAPBQAUBox@BoxSpace@@I@Z ; std::allocator<BoxSpace::Box * const *>::allocate
; Function compile flags: /Ogsp
; File c:\program files (x86)\microsoft visual studio 10.0\vc\include\xmemory
;	COMDAT ?allocate@?$allocator@PBQAUBox@BoxSpace@@@std@@QAEPAPBQAUBox@BoxSpace@@I@Z
_TEXT	SEGMENT
__Count$ = 8						; size = 4
?allocate@?$allocator@PBQAUBox@BoxSpace@@@std@@QAEPAPBQAUBox@BoxSpace@@I@Z PROC ; std::allocator<BoxSpace::Box * const *>::allocate, COMDAT
; _this$ = ecx

; 186  : 		{	// allocate array of _Count elements

  00000	55		 push	 ebp
  00001	8b ec		 mov	 ebp, esp

; 187  : 		return (_Allocate(_Count, (pointer)0));

  00003	6a 00		 push	 0
  00005	ff 75 08	 push	 DWORD PTR __Count$[ebp]
  00008	e8 00 00 00 00	 call	 ??$_Allocate@PBQAUBox@BoxSpace@@@std@@YAPAPBQAUBox@BoxSpace@@IPAPBQAU12@@Z ; std::_Allocate<BoxSpace::Box * const *>
  0000d	59		 pop	 ecx
  0000e	59		 pop	 ecx

; 188  : 		}

  0000f	5d		 pop	 ebp
  00010	c2 04 00	 ret	 4
?allocate@?$allocator@PBQAUBox@BoxSpace@@@std@@QAEPAPBQAUBox@BoxSpace@@I@Z ENDP ; std::allocator<BoxSpace::Box * const *>::allocate
_TEXT	ENDS
PUBLIC	??Y?$_Vector_iterator@V?$_Vector_val@PAUTBlock@?$uni_heap@$0BE@$0IA@@@V?$allocator@PAUTBlock@?$uni_heap@$0BE@$0IA@@@@std@@@std@@@std@@QAEAAV01@H@Z ; std::_Vector_iterator<std::_Vector_val<uni_heap<20,128>::TBlock *,std::allocator<uni_heap<20,128>::TBlock *> > >::operator+=
; Function compile flags: /Ogsp
; File c:\program files (x86)\microsoft visual studio 10.0\vc\include\vector
;	COMDAT ??Y?$_Vector_iterator@V?$_Vector_val@PAUTBlock@?$uni_heap@$0BE@$0IA@@@V?$allocator@PAUTBlock@?$uni_heap@$0BE@$0IA@@@@std@@@std@@@std@@QAEAAV01@H@Z
_TEXT	SEGMENT
__Off$ = 8						; size = 4
??Y?$_Vector_iterator@V?$_Vector_val@PAUTBlock@?$uni_heap@$0BE@$0IA@@@V?$allocator@PAUTBlock@?$uni_heap@$0BE@$0IA@@@@std@@@std@@@std@@QAEAAV01@H@Z PROC ; std::_Vector_iterator<std::_Vector_val<uni_heap<20,128>::TBlock *,std::allocator<uni_heap<20,128>::TBlock *> > >::operator+=, COMDAT
; _this$ = ecx

; 357  : 		{	// increment by integer

  00000	55		 push	 ebp
  00001	8b ec		 mov	 ebp, esp
  00003	8b c1		 mov	 eax, ecx

; 358  : 		*(_Mybase *)this += _Off;

  00005	8b 4d 08	 mov	 ecx, DWORD PTR __Off$[ebp]
  00008	c1 e1 02	 shl	 ecx, 2
  0000b	01 08		 add	 DWORD PTR [eax], ecx

; 359  : 		return (*this);
; 360  : 		}

  0000d	5d		 pop	 ebp
  0000e	c2 04 00	 ret	 4
??Y?$_Vector_iterator@V?$_Vector_val@PAUTBlock@?$uni_heap@$0BE@$0IA@@@V?$allocator@PAUTBlock@?$uni_heap@$0BE@$0IA@@@@std@@@std@@@std@@QAEAAV01@H@Z ENDP ; std::_Vector_iterator<std::_Vector_val<uni_heap<20,128>::TBlock *,std::allocator<uni_heap<20,128>::TBlock *> > >::operator+=
_TEXT	ENDS
PUBLIC	??$_Cons_val@V?$allocator@F@std@@FF@std@@YAXAAV?$allocator@F@0@PAF$$QAF@Z ; std::_Cons_val<std::allocator<short>,short,short>
; Function compile flags: /Ogsp
; File c:\program files (x86)\microsoft visual studio 10.0\vc\include\xmemory
;	COMDAT ??$_Cons_val@V?$allocator@F@std@@FF@std@@YAXAAV?$allocator@F@0@PAF$$QAF@Z
_TEXT	SEGMENT
__Alval$ = 8						; size = 4
__Pdest$ = 12						; size = 4
__Src$ = 16						; size = 4
??$_Cons_val@V?$allocator@F@std@@FF@std@@YAXAAV?$allocator@F@0@PAF$$QAF@Z PROC ; std::_Cons_val<std::allocator<short>,short,short>, COMDAT

; 279  : 	{	// construct using allocator

  00000	55		 push	 ebp
  00001	8b ec		 mov	 ebp, esp

; 280  : 	_Alval.construct(_Pdest, _STD forward<_Ty2>(_Src));

  00003	8b 45 0c	 mov	 eax, DWORD PTR __Pdest$[ebp]
  00006	85 c0		 test	 eax, eax
  00008	74 09		 je	 SHORT $LN7@Cons_val
  0000a	8b 4d 10	 mov	 ecx, DWORD PTR __Src$[ebp]
  0000d	66 8b 09	 mov	 cx, WORD PTR [ecx]
  00010	66 89 08	 mov	 WORD PTR [eax], cx
$LN7@Cons_val:

; 281  : 	}

  00013	5d		 pop	 ebp
  00014	c3		 ret	 0
??$_Cons_val@V?$allocator@F@std@@FF@std@@YAXAAV?$allocator@F@0@PAF$$QAF@Z ENDP ; std::_Cons_val<std::allocator<short>,short,short>
_TEXT	ENDS
PUBLIC	??$_Cons_val@V?$allocator@F@std@@FAAF@std@@YAXAAV?$allocator@F@0@PAFAAF@Z ; std::_Cons_val<std::allocator<short>,short,short &>
; Function compile flags: /Ogsp
;	COMDAT ??$_Cons_val@V?$allocator@F@std@@FAAF@std@@YAXAAV?$allocator@F@0@PAFAAF@Z
_TEXT	SEGMENT
__Alval$ = 8						; size = 4
__Pdest$ = 12						; size = 4
__Src$ = 16						; size = 4
??$_Cons_val@V?$allocator@F@std@@FAAF@std@@YAXAAV?$allocator@F@0@PAFAAF@Z PROC ; std::_Cons_val<std::allocator<short>,short,short &>, COMDAT

; 279  : 	{	// construct using allocator

  00000	55		 push	 ebp
  00001	8b ec		 mov	 ebp, esp

; 280  : 	_Alval.construct(_Pdest, _STD forward<_Ty2>(_Src));

  00003	8b 45 0c	 mov	 eax, DWORD PTR __Pdest$[ebp]
  00006	85 c0		 test	 eax, eax
  00008	74 09		 je	 SHORT $LN7@Cons_val@2
  0000a	8b 4d 10	 mov	 ecx, DWORD PTR __Src$[ebp]
  0000d	66 8b 09	 mov	 cx, WORD PTR [ecx]
  00010	66 89 08	 mov	 WORD PTR [eax], cx
$LN7@Cons_val@2:

; 281  : 	}

  00013	5d		 pop	 ebp
  00014	c3		 ret	 0
??$_Cons_val@V?$allocator@F@std@@FAAF@std@@YAXAAV?$allocator@F@0@PAFAAF@Z ENDP ; std::_Cons_val<std::allocator<short>,short,short &>
_TEXT	ENDS
PUBLIC	??$_Cons_val@V?$allocator@ULink@BoxSpace@@@std@@ULink@BoxSpace@@AAU34@@std@@YAXAAV?$allocator@ULink@BoxSpace@@@0@PAULink@BoxSpace@@AAU23@@Z ; std::_Cons_val<std::allocator<BoxSpace::Link>,BoxSpace::Link,BoxSpace::Link &>
; Function compile flags: /Ogsp
;	COMDAT ??$_Cons_val@V?$allocator@ULink@BoxSpace@@@std@@ULink@BoxSpace@@AAU34@@std@@YAXAAV?$allocator@ULink@BoxSpace@@@0@PAULink@BoxSpace@@AAU23@@Z
_TEXT	SEGMENT
__Alval$ = 8						; size = 4
__Pdest$ = 12						; size = 4
__Src$ = 16						; size = 4
??$_Cons_val@V?$allocator@ULink@BoxSpace@@@std@@ULink@BoxSpace@@AAU34@@std@@YAXAAV?$allocator@ULink@BoxSpace@@@0@PAULink@BoxSpace@@AAU23@@Z PROC ; std::_Cons_val<std::allocator<BoxSpace::Link>,BoxSpace::Link,BoxSpace::Link &>, COMDAT

; 279  : 	{	// construct using allocator

  00000	55		 push	 ebp
  00001	8b ec		 mov	 ebp, esp
  00003	57		 push	 edi

; 280  : 	_Alval.construct(_Pdest, _STD forward<_Ty2>(_Src));

  00004	8b 7d 0c	 mov	 edi, DWORD PTR __Pdest$[ebp]
  00007	85 ff		 test	 edi, edi
  00009	74 0a		 je	 SHORT $LN7@Cons_val@3
  0000b	56		 push	 esi
  0000c	8b 75 10	 mov	 esi, DWORD PTR __Src$[ebp]
  0000f	6a 08		 push	 8
  00011	59		 pop	 ecx
  00012	f3 a5		 rep movsd
  00014	5e		 pop	 esi
$LN7@Cons_val@3:
  00015	5f		 pop	 edi

; 281  : 	}

  00016	5d		 pop	 ebp
  00017	c3		 ret	 0
??$_Cons_val@V?$allocator@ULink@BoxSpace@@@std@@ULink@BoxSpace@@AAU34@@std@@YAXAAV?$allocator@ULink@BoxSpace@@@0@PAULink@BoxSpace@@AAU23@@Z ENDP ; std::_Cons_val<std::allocator<BoxSpace::Link>,BoxSpace::Link,BoxSpace::Link &>
_TEXT	ENDS
PUBLIC	??$_Move@PAFPAF@std@@YAPAFPAF00@Z		; std::_Move<short *,short *>
; Function compile flags: /Ogsp
; File c:\program files (x86)\microsoft visual studio 10.0\vc\include\xutility
;	COMDAT ??$_Move@PAFPAF@std@@YAPAFPAF00@Z
_TEXT	SEGMENT
__Cat$511199 = -4					; size = 1
__First$ = 8						; size = 4
__Last$ = 12						; size = 4
__Dest$ = 16						; size = 4
??$_Move@PAFPAF@std@@YAPAFPAF00@Z PROC			; std::_Move<short *,short *>, COMDAT

; 2533 : 	{	// move [_First, _Last) to [_Dest, ...), unchecked

  00000	55		 push	 ebp
  00001	8b ec		 mov	 ebp, esp
  00003	51		 push	 ecx

; 2534 : 	return (_Move(_First, _Last,
; 2535 : 		_Dest, _Ptr_cat(_First, _Dest)));

  00004	ff 75 fc	 push	 DWORD PTR __Cat$511199[ebp]
  00007	ff 75 10	 push	 DWORD PTR __Dest$[ebp]
  0000a	ff 75 0c	 push	 DWORD PTR __Last$[ebp]
  0000d	ff 75 08	 push	 DWORD PTR __First$[ebp]
  00010	e8 00 00 00 00	 call	 ??$_Move@PAFPAF@std@@YAPAFPAF00U_Scalar_ptr_iterator_tag@0@@Z ; std::_Move<short *,short *>
  00015	83 c4 10	 add	 esp, 16			; 00000010H

; 2536 : 	}

  00018	c9		 leave
  00019	c3		 ret	 0
??$_Move@PAFPAF@std@@YAPAFPAF00@Z ENDP			; std::_Move<short *,short *>
_TEXT	ENDS
PUBLIC	??$_Cons_val@V?$allocator@PAUDNode@?$AStarSearcher@VBoxSpace@@PAUBox@1@@@@std@@PAUDNode@?$AStarSearcher@VBoxSpace@@PAUBox@1@@@AAPAU34@@std@@YAXAAV?$allocator@PAUDNode@?$AStarSearcher@VBoxSpace@@PAUBox@1@@@@0@PAPAUDNode@?$AStarSearcher@VBoxSpace@@PAUBox@1@@@AAPAU23@@Z ; std::_Cons_val<std::allocator<AStarSearcher<BoxSpace,BoxSpace::Box *>::DNode *>,AStarSearcher<BoxSpace,BoxSpace::Box *>::DNode *,AStarSearcher<BoxSpace,BoxSpace::Box *>::DNode * &>
; Function compile flags: /Ogsp
; File c:\program files (x86)\microsoft visual studio 10.0\vc\include\xmemory
;	COMDAT ??$_Cons_val@V?$allocator@PAUDNode@?$AStarSearcher@VBoxSpace@@PAUBox@1@@@@std@@PAUDNode@?$AStarSearcher@VBoxSpace@@PAUBox@1@@@AAPAU34@@std@@YAXAAV?$allocator@PAUDNode@?$AStarSearcher@VBoxSpace@@PAUBox@1@@@@0@PAPAUDNode@?$AStarSearcher@VBoxSpace@@PAUBox@1@@@AAPAU23@@Z
_TEXT	SEGMENT
__Alval$ = 8						; size = 4
__Pdest$ = 12						; size = 4
__Src$ = 16						; size = 4
??$_Cons_val@V?$allocator@PAUDNode@?$AStarSearcher@VBoxSpace@@PAUBox@1@@@@std@@PAUDNode@?$AStarSearcher@VBoxSpace@@PAUBox@1@@@AAPAU34@@std@@YAXAAV?$allocator@PAUDNode@?$AStarSearcher@VBoxSpace@@PAUBox@1@@@@0@PAPAUDNode@?$AStarSearcher@VBoxSpace@@PAUBox@1@@@AAPAU23@@Z PROC ; std::_Cons_val<std::allocator<AStarSearcher<BoxSpace,BoxSpace::Box *>::DNode *>,AStarSearcher<BoxSpace,BoxSpace::Box *>::DNode *,AStarSearcher<BoxSpace,BoxSpace::Box *>::DNode * &>, COMDAT

; 279  : 	{	// construct using allocator

  00000	55		 push	 ebp
  00001	8b ec		 mov	 ebp, esp

; 280  : 	_Alval.construct(_Pdest, _STD forward<_Ty2>(_Src));

  00003	8b 45 0c	 mov	 eax, DWORD PTR __Pdest$[ebp]
  00006	85 c0		 test	 eax, eax
  00008	74 07		 je	 SHORT $LN7@Cons_val@4
  0000a	8b 4d 10	 mov	 ecx, DWORD PTR __Src$[ebp]
  0000d	8b 09		 mov	 ecx, DWORD PTR [ecx]
  0000f	89 08		 mov	 DWORD PTR [eax], ecx
$LN7@Cons_val@4:

; 281  : 	}

  00011	5d		 pop	 ebp
  00012	c3		 ret	 0
??$_Cons_val@V?$allocator@PAUDNode@?$AStarSearcher@VBoxSpace@@PAUBox@1@@@@std@@PAUDNode@?$AStarSearcher@VBoxSpace@@PAUBox@1@@@AAPAU34@@std@@YAXAAV?$allocator@PAUDNode@?$AStarSearcher@VBoxSpace@@PAUBox@1@@@@0@PAPAUDNode@?$AStarSearcher@VBoxSpace@@PAUBox@1@@@AAPAU23@@Z ENDP ; std::_Cons_val<std::allocator<AStarSearcher<BoxSpace,BoxSpace::Box *>::DNode *>,AStarSearcher<BoxSpace,BoxSpace::Box *>::DNode *,AStarSearcher<BoxSpace,BoxSpace::Box *>::DNode * &>
_TEXT	ENDS
PUBLIC	??$_Cons_val@V?$allocator@PBQAUBox@BoxSpace@@@std@@PBQAUBox@BoxSpace@@PBQAU34@@std@@YAXAAV?$allocator@PBQAUBox@BoxSpace@@@0@PAPBQAUBox@BoxSpace@@$$QAPBQAU23@@Z ; std::_Cons_val<std::allocator<BoxSpace::Box * const *>,BoxSpace::Box * const *,BoxSpace::Box * const *>
; Function compile flags: /Ogsp
;	COMDAT ??$_Cons_val@V?$allocator@PBQAUBox@BoxSpace@@@std@@PBQAUBox@BoxSpace@@PBQAU34@@std@@YAXAAV?$allocator@PBQAUBox@BoxSpace@@@0@PAPBQAUBox@BoxSpace@@$$QAPBQAU23@@Z
_TEXT	SEGMENT
__Alval$ = 8						; size = 4
__Pdest$ = 12						; size = 4
__Src$ = 16						; size = 4
??$_Cons_val@V?$allocator@PBQAUBox@BoxSpace@@@std@@PBQAUBox@BoxSpace@@PBQAU34@@std@@YAXAAV?$allocator@PBQAUBox@BoxSpace@@@0@PAPBQAUBox@BoxSpace@@$$QAPBQAU23@@Z PROC ; std::_Cons_val<std::allocator<BoxSpace::Box * const *>,BoxSpace::Box * const *,BoxSpace::Box * const *>, COMDAT

; 279  : 	{	// construct using allocator

  00000	55		 push	 ebp
  00001	8b ec		 mov	 ebp, esp

; 280  : 	_Alval.construct(_Pdest, _STD forward<_Ty2>(_Src));

  00003	8b 45 0c	 mov	 eax, DWORD PTR __Pdest$[ebp]
  00006	85 c0		 test	 eax, eax
  00008	74 07		 je	 SHORT $LN7@Cons_val@5
  0000a	8b 4d 10	 mov	 ecx, DWORD PTR __Src$[ebp]
  0000d	8b 09		 mov	 ecx, DWORD PTR [ecx]
  0000f	89 08		 mov	 DWORD PTR [eax], ecx
$LN7@Cons_val@5:

; 281  : 	}

  00011	5d		 pop	 ebp
  00012	c3		 ret	 0
??$_Cons_val@V?$allocator@PBQAUBox@BoxSpace@@@std@@PBQAUBox@BoxSpace@@PBQAU34@@std@@YAXAAV?$allocator@PBQAUBox@BoxSpace@@@0@PAPBQAUBox@BoxSpace@@$$QAPBQAU23@@Z ENDP ; std::_Cons_val<std::allocator<BoxSpace::Box * const *>,BoxSpace::Box * const *,BoxSpace::Box * const *>
_TEXT	ENDS
PUBLIC	?construct@?$allocator@F@std@@QAEXPAFABF@Z	; std::allocator<short>::construct
; Function compile flags: /Ogsp
;	COMDAT ?construct@?$allocator@F@std@@QAEXPAFABF@Z
_TEXT	SEGMENT
__Ptr$ = 8						; size = 4
__Val$ = 12						; size = 4
?construct@?$allocator@F@std@@QAEXPAFABF@Z PROC		; std::allocator<short>::construct, COMDAT
; _this$ = ecx

; 196  : 		{	// construct object at _Ptr with value _Val

  00000	55		 push	 ebp
  00001	8b ec		 mov	 ebp, esp

; 197  : 		_Construct(_Ptr, _Val);

  00003	8b 45 08	 mov	 eax, DWORD PTR __Ptr$[ebp]
  00006	85 c0		 test	 eax, eax
  00008	74 09		 je	 SHORT $LN5@construct@7
  0000a	8b 4d 0c	 mov	 ecx, DWORD PTR __Val$[ebp]
  0000d	66 8b 09	 mov	 cx, WORD PTR [ecx]
  00010	66 89 08	 mov	 WORD PTR [eax], cx
$LN5@construct@7:

; 198  : 		}

  00013	5d		 pop	 ebp
  00014	c2 08 00	 ret	 8
?construct@?$allocator@F@std@@QAEXPAFABF@Z ENDP		; std::allocator<short>::construct
_TEXT	ENDS
PUBLIC	?construct@?$allocator@ULink@BoxSpace@@@std@@QAEXPAULink@BoxSpace@@ABU34@@Z ; std::allocator<BoxSpace::Link>::construct
; Function compile flags: /Ogsp
;	COMDAT ?construct@?$allocator@ULink@BoxSpace@@@std@@QAEXPAULink@BoxSpace@@ABU34@@Z
_TEXT	SEGMENT
__Ptr$ = 8						; size = 4
__Val$ = 12						; size = 4
?construct@?$allocator@ULink@BoxSpace@@@std@@QAEXPAULink@BoxSpace@@ABU34@@Z PROC ; std::allocator<BoxSpace::Link>::construct, COMDAT
; _this$ = ecx

; 196  : 		{	// construct object at _Ptr with value _Val

  00000	55		 push	 ebp
  00001	8b ec		 mov	 ebp, esp
  00003	57		 push	 edi

; 197  : 		_Construct(_Ptr, _Val);

  00004	8b 7d 08	 mov	 edi, DWORD PTR __Ptr$[ebp]
  00007	85 ff		 test	 edi, edi
  00009	74 0a		 je	 SHORT $LN5@construct@8
  0000b	56		 push	 esi
  0000c	8b 75 0c	 mov	 esi, DWORD PTR __Val$[ebp]
  0000f	6a 08		 push	 8
  00011	59		 pop	 ecx
  00012	f3 a5		 rep movsd
  00014	5e		 pop	 esi
$LN5@construct@8:
  00015	5f		 pop	 edi

; 198  : 		}

  00016	5d		 pop	 ebp
  00017	c2 08 00	 ret	 8
?construct@?$allocator@ULink@BoxSpace@@@std@@QAEXPAULink@BoxSpace@@ABU34@@Z ENDP ; std::allocator<BoxSpace::Link>::construct
_TEXT	ENDS
PUBLIC	?construct@?$allocator@PAUDNode@?$AStarSearcher@VBoxSpace@@PAUBox@1@@@@std@@QAEXPAPAUDNode@?$AStarSearcher@VBoxSpace@@PAUBox@1@@@ABQAU34@@Z ; std::allocator<AStarSearcher<BoxSpace,BoxSpace::Box *>::DNode *>::construct
; Function compile flags: /Ogsp
;	COMDAT ?construct@?$allocator@PAUDNode@?$AStarSearcher@VBoxSpace@@PAUBox@1@@@@std@@QAEXPAPAUDNode@?$AStarSearcher@VBoxSpace@@PAUBox@1@@@ABQAU34@@Z
_TEXT	SEGMENT
__Ptr$ = 8						; size = 4
__Val$ = 12						; size = 4
?construct@?$allocator@PAUDNode@?$AStarSearcher@VBoxSpace@@PAUBox@1@@@@std@@QAEXPAPAUDNode@?$AStarSearcher@VBoxSpace@@PAUBox@1@@@ABQAU34@@Z PROC ; std::allocator<AStarSearcher<BoxSpace,BoxSpace::Box *>::DNode *>::construct, COMDAT
; _this$ = ecx

; 196  : 		{	// construct object at _Ptr with value _Val

  00000	55		 push	 ebp
  00001	8b ec		 mov	 ebp, esp

; 197  : 		_Construct(_Ptr, _Val);

  00003	8b 45 08	 mov	 eax, DWORD PTR __Ptr$[ebp]
  00006	85 c0		 test	 eax, eax
  00008	74 07		 je	 SHORT $LN5@construct@9
  0000a	8b 4d 0c	 mov	 ecx, DWORD PTR __Val$[ebp]
  0000d	8b 09		 mov	 ecx, DWORD PTR [ecx]
  0000f	89 08		 mov	 DWORD PTR [eax], ecx
$LN5@construct@9:

; 198  : 		}

  00011	5d		 pop	 ebp
  00012	c2 08 00	 ret	 8
?construct@?$allocator@PAUDNode@?$AStarSearcher@VBoxSpace@@PAUBox@1@@@@std@@QAEXPAPAUDNode@?$AStarSearcher@VBoxSpace@@PAUBox@1@@@ABQAU34@@Z ENDP ; std::allocator<AStarSearcher<BoxSpace,BoxSpace::Box *>::DNode *>::construct
_TEXT	ENDS
PUBLIC	?destroy@?$allocator@PAUDNode@?$AStarSearcher@VBoxSpace@@PAUBox@1@@@@std@@QAEXPAPAUDNode@?$AStarSearcher@VBoxSpace@@PAUBox@1@@@@Z ; std::allocator<AStarSearcher<BoxSpace,BoxSpace::Box *>::DNode *>::destroy
; Function compile flags: /Ogsp
;	COMDAT ?destroy@?$allocator@PAUDNode@?$AStarSearcher@VBoxSpace@@PAUBox@1@@@@std@@QAEXPAPAUDNode@?$AStarSearcher@VBoxSpace@@PAUBox@1@@@@Z
_TEXT	SEGMENT
__Ptr$ = 8						; size = 4
?destroy@?$allocator@PAUDNode@?$AStarSearcher@VBoxSpace@@PAUBox@1@@@@std@@QAEXPAPAUDNode@?$AStarSearcher@VBoxSpace@@PAUBox@1@@@@Z PROC ; std::allocator<AStarSearcher<BoxSpace,BoxSpace::Box *>::DNode *>::destroy, COMDAT
; _this$ = ecx

; 213  : 		_Destroy(_Ptr);
; 214  : 		}

  00000	c2 04 00	 ret	 4
?destroy@?$allocator@PAUDNode@?$AStarSearcher@VBoxSpace@@PAUBox@1@@@@std@@QAEXPAPAUDNode@?$AStarSearcher@VBoxSpace@@PAUBox@1@@@@Z ENDP ; std::allocator<AStarSearcher<BoxSpace,BoxSpace::Box *>::DNode *>::destroy
_TEXT	ENDS
PUBLIC	??F?$_Vector_iterator@V?$_Vector_val@PAUDNode@?$AStarSearcher@VBoxSpace@@PAUBox@1@@@V?$allocator@PAUDNode@?$AStarSearcher@VBoxSpace@@PAUBox@1@@@@std@@@std@@@std@@QAEAAV01@XZ ; std::_Vector_iterator<std::_Vector_val<AStarSearcher<BoxSpace,BoxSpace::Box *>::DNode *,std::allocator<AStarSearcher<BoxSpace,BoxSpace::Box *>::DNode *> > >::operator--
; Function compile flags: /Ogsp
; File c:\program files (x86)\microsoft visual studio 10.0\vc\include\vector
;	COMDAT ??F?$_Vector_iterator@V?$_Vector_val@PAUDNode@?$AStarSearcher@VBoxSpace@@PAUBox@1@@@V?$allocator@PAUDNode@?$AStarSearcher@VBoxSpace@@PAUBox@1@@@@std@@@std@@@std@@QAEAAV01@XZ
_TEXT	SEGMENT
??F?$_Vector_iterator@V?$_Vector_val@PAUDNode@?$AStarSearcher@VBoxSpace@@PAUBox@1@@@V?$allocator@PAUDNode@?$AStarSearcher@VBoxSpace@@PAUBox@1@@@@std@@@std@@@std@@QAEAAV01@XZ PROC ; std::_Vector_iterator<std::_Vector_val<AStarSearcher<BoxSpace,BoxSpace::Box *>::DNode *,std::allocator<AStarSearcher<BoxSpace,BoxSpace::Box *>::DNode *> > >::operator--, COMDAT
; _this$ = ecx

; 344  : 		{	// predecrement

  00000	8b c1		 mov	 eax, ecx

; 345  : 		--*(_Mybase *)this;

  00002	83 00 fc	 add	 DWORD PTR [eax], -4	; fffffffcH

; 346  : 		return (*this);
; 347  : 		}

  00005	c3		 ret	 0
??F?$_Vector_iterator@V?$_Vector_val@PAUDNode@?$AStarSearcher@VBoxSpace@@PAUBox@1@@@V?$allocator@PAUDNode@?$AStarSearcher@VBoxSpace@@PAUBox@1@@@@std@@@std@@@std@@QAEAAV01@XZ ENDP ; std::_Vector_iterator<std::_Vector_val<AStarSearcher<BoxSpace,BoxSpace::Box *>::DNode *,std::allocator<AStarSearcher<BoxSpace,BoxSpace::Box *>::DNode *> > >::operator--
_TEXT	ENDS
PUBLIC	??G?$_Vector_const_iterator@V?$_Vector_val@PAUDNode@?$AStarSearcher@VBoxSpace@@PAUBox@1@@@V?$allocator@PAUDNode@?$AStarSearcher@VBoxSpace@@PAUBox@1@@@@std@@@std@@@std@@QBEHABV01@@Z ; std::_Vector_const_iterator<std::_Vector_val<AStarSearcher<BoxSpace,BoxSpace::Box *>::DNode *,std::allocator<AStarSearcher<BoxSpace,BoxSpace::Box *>::DNode *> > >::operator-
; Function compile flags: /Ogsp
;	COMDAT ??G?$_Vector_const_iterator@V?$_Vector_val@PAUDNode@?$AStarSearcher@VBoxSpace@@PAUBox@1@@@V?$allocator@PAUDNode@?$AStarSearcher@VBoxSpace@@PAUBox@1@@@@std@@@std@@@std@@QBEHABV01@@Z
_TEXT	SEGMENT
__Right$ = 8						; size = 4
??G?$_Vector_const_iterator@V?$_Vector_val@PAUDNode@?$AStarSearcher@VBoxSpace@@PAUBox@1@@@V?$allocator@PAUDNode@?$AStarSearcher@VBoxSpace@@PAUBox@1@@@@std@@@std@@@std@@QBEHABV01@@Z PROC ; std::_Vector_const_iterator<std::_Vector_val<AStarSearcher<BoxSpace,BoxSpace::Box *>::DNode *,std::allocator<AStarSearcher<BoxSpace,BoxSpace::Box *>::DNode *> > >::operator-, COMDAT
; _this$ = ecx

; 190  : 		{	// return difference of iterators

  00000	55		 push	 ebp
  00001	8b ec		 mov	 ebp, esp

; 191  : 		_Compat(_Right);
; 192  : 		return (this->_Ptr - _Right._Ptr);

  00003	8b 01		 mov	 eax, DWORD PTR [ecx]
  00005	8b 4d 08	 mov	 ecx, DWORD PTR __Right$[ebp]
  00008	2b 01		 sub	 eax, DWORD PTR [ecx]
  0000a	c1 f8 02	 sar	 eax, 2

; 193  : 		}

  0000d	5d		 pop	 ebp
  0000e	c2 04 00	 ret	 4
??G?$_Vector_const_iterator@V?$_Vector_val@PAUDNode@?$AStarSearcher@VBoxSpace@@PAUBox@1@@@V?$allocator@PAUDNode@?$AStarSearcher@VBoxSpace@@PAUBox@1@@@@std@@@std@@@std@@QBEHABV01@@Z ENDP ; std::_Vector_const_iterator<std::_Vector_val<AStarSearcher<BoxSpace,BoxSpace::Box *>::DNode *,std::allocator<AStarSearcher<BoxSpace,BoxSpace::Box *>::DNode *> > >::operator-
_TEXT	ENDS
PUBLIC	??$_Unchecked@V?$_Vector_val@ULink@BoxSpace@@V?$allocator@ULink@BoxSpace@@@std@@@std@@@std@@YAPAULink@BoxSpace@@V?$_Vector_iterator@V?$_Vector_val@ULink@BoxSpace@@V?$allocator@ULink@BoxSpace@@@std@@@std@@@0@@Z ; std::_Unchecked<std::_Vector_val<BoxSpace::Link,std::allocator<BoxSpace::Link> > >
; Function compile flags: /Ogsp
;	COMDAT ??$_Unchecked@V?$_Vector_val@ULink@BoxSpace@@V?$allocator@ULink@BoxSpace@@@std@@@std@@@std@@YAPAULink@BoxSpace@@V?$_Vector_iterator@V?$_Vector_val@ULink@BoxSpace@@V?$allocator@ULink@BoxSpace@@@std@@@std@@@0@@Z
_TEXT	SEGMENT
__Iter$ = 8						; size = 4
??$_Unchecked@V?$_Vector_val@ULink@BoxSpace@@V?$allocator@ULink@BoxSpace@@@std@@@std@@@std@@YAPAULink@BoxSpace@@V?$_Vector_iterator@V?$_Vector_val@ULink@BoxSpace@@V?$allocator@ULink@BoxSpace@@@std@@@std@@@0@@Z PROC ; std::_Unchecked<std::_Vector_val<BoxSpace::Link,std::allocator<BoxSpace::Link> > >, COMDAT

; 393  : 	{	// convert to unchecked

  00000	55		 push	 ebp
  00001	8b ec		 mov	 ebp, esp

; 394  : 	return (_Iter._Unchecked());

  00003	8b 45 08	 mov	 eax, DWORD PTR __Iter$[ebp]

; 395  : 	}

  00006	5d		 pop	 ebp
  00007	c3		 ret	 0
??$_Unchecked@V?$_Vector_val@ULink@BoxSpace@@V?$allocator@ULink@BoxSpace@@@std@@@std@@@std@@YAPAULink@BoxSpace@@V?$_Vector_iterator@V?$_Vector_val@ULink@BoxSpace@@V?$allocator@ULink@BoxSpace@@@std@@@std@@@0@@Z ENDP ; std::_Unchecked<std::_Vector_val<BoxSpace::Link,std::allocator<BoxSpace::Link> > >
_TEXT	ENDS
PUBLIC	??$_Uninitialized_move@PAFPAFV?$allocator@F@std@@@std@@YAPAFPAF00AAV?$allocator@F@0@@Z ; std::_Uninitialized_move<short *,short *,std::allocator<short> >
; Function compile flags: /Ogsp
; File c:\program files (x86)\microsoft visual studio 10.0\vc\include\memory
;	COMDAT ??$_Uninitialized_move@PAFPAFV?$allocator@F@std@@@std@@YAPAFPAF00AAV?$allocator@F@0@@Z
_TEXT	SEGMENT
__First$ = 8						; size = 4
__Last$ = 12						; size = 4
__Dest$ = 16						; size = 4
__Al$ = 20						; size = 4
??$_Uninitialized_move@PAFPAFV?$allocator@F@std@@@std@@YAPAFPAF00AAV?$allocator@F@0@@Z PROC ; std::_Uninitialized_move<short *,short *,std::allocator<short> >, COMDAT

; 469  : 	{	// move [_First, _Last) to raw _Dest, using _Al

  00000	55		 push	 ebp
  00001	8b ec		 mov	 ebp, esp

; 470  : 	return (_Uninit_move(_First, _Last, _Dest, _Al,
; 471  : 		_Val_type(_First), _Ptr_cat(_First, _Dest)));

  00003	8b 45 0c	 mov	 eax, DWORD PTR __Last$[ebp]
  00006	2b 45 08	 sub	 eax, DWORD PTR __First$[ebp]
  00009	56		 push	 esi
  0000a	d1 f8		 sar	 eax, 1
  0000c	8d 34 00	 lea	 esi, DWORD PTR [eax+eax]
  0000f	56		 push	 esi
  00010	ff 75 08	 push	 DWORD PTR __First$[ebp]
  00013	ff 75 10	 push	 DWORD PTR __Dest$[ebp]
  00016	ff 15 00 00 00
	00		 call	 DWORD PTR __imp__memmove
  0001c	83 c4 0c	 add	 esp, 12			; 0000000cH
  0001f	03 c6		 add	 eax, esi
  00021	5e		 pop	 esi

; 472  : 	}

  00022	5d		 pop	 ebp
  00023	c3		 ret	 0
??$_Uninitialized_move@PAFPAFV?$allocator@F@std@@@std@@YAPAFPAF00AAV?$allocator@F@0@@Z ENDP ; std::_Uninitialized_move<short *,short *,std::allocator<short> >
_TEXT	ENDS
PUBLIC	??$_Unchecked@V?$_Vector_val@PAUDNode@?$AStarSearcher@VBoxSpace@@PAUBox@1@@@V?$allocator@PAUDNode@?$AStarSearcher@VBoxSpace@@PAUBox@1@@@@std@@@std@@@std@@YAPAPAUDNode@?$AStarSearcher@VBoxSpace@@PAUBox@1@@@V?$_Vector_iterator@V?$_Vector_val@PAUDNode@?$AStarSearcher@VBoxSpace@@PAUBox@1@@@V?$allocator@PAUDNode@?$AStarSearcher@VBoxSpace@@PAUBox@1@@@@std@@@std@@@0@@Z ; std::_Unchecked<std::_Vector_val<AStarSearcher<BoxSpace,BoxSpace::Box *>::DNode *,std::allocator<AStarSearcher<BoxSpace,BoxSpace::Box *>::DNode *> > >
; Function compile flags: /Ogsp
; File c:\program files (x86)\microsoft visual studio 10.0\vc\include\vector
;	COMDAT ??$_Unchecked@V?$_Vector_val@PAUDNode@?$AStarSearcher@VBoxSpace@@PAUBox@1@@@V?$allocator@PAUDNode@?$AStarSearcher@VBoxSpace@@PAUBox@1@@@@std@@@std@@@std@@YAPAPAUDNode@?$AStarSearcher@VBoxSpace@@PAUBox@1@@@V?$_Vector_iterator@V?$_Vector_val@PAUDNode@?$AStarSearcher@VBoxSpace@@PAUBox@1@@@V?$allocator@PAUDNode@?$AStarSearcher@VBoxSpace@@PAUBox@1@@@@std@@@std@@@0@@Z
_TEXT	SEGMENT
__Iter$ = 8						; size = 4
??$_Unchecked@V?$_Vector_val@PAUDNode@?$AStarSearcher@VBoxSpace@@PAUBox@1@@@V?$allocator@PAUDNode@?$AStarSearcher@VBoxSpace@@PAUBox@1@@@@std@@@std@@@std@@YAPAPAUDNode@?$AStarSearcher@VBoxSpace@@PAUBox@1@@@V?$_Vector_iterator@V?$_Vector_val@PAUDNode@?$AStarSearcher@VBoxSpace@@PAUBox@1@@@V?$allocator@PAUDNode@?$AStarSearcher@VBoxSpace@@PAUBox@1@@@@std@@@std@@@0@@Z PROC ; std::_Unchecked<std::_Vector_val<AStarSearcher<BoxSpace,BoxSpace::Box *>::DNode *,std::allocator<AStarSearcher<BoxSpace,BoxSpace::Box *>::DNode *> > >, COMDAT

; 393  : 	{	// convert to unchecked

  00000	55		 push	 ebp
  00001	8b ec		 mov	 ebp, esp

; 394  : 	return (_Iter._Unchecked());

  00003	8b 45 08	 mov	 eax, DWORD PTR __Iter$[ebp]

; 395  : 	}

  00006	5d		 pop	 ebp
  00007	c3		 ret	 0
??$_Unchecked@V?$_Vector_val@PAUDNode@?$AStarSearcher@VBoxSpace@@PAUBox@1@@@V?$allocator@PAUDNode@?$AStarSearcher@VBoxSpace@@PAUBox@1@@@@std@@@std@@@std@@YAPAPAUDNode@?$AStarSearcher@VBoxSpace@@PAUBox@1@@@V?$_Vector_iterator@V?$_Vector_val@PAUDNode@?$AStarSearcher@VBoxSpace@@PAUBox@1@@@V?$allocator@PAUDNode@?$AStarSearcher@VBoxSpace@@PAUBox@1@@@@std@@@std@@@0@@Z ENDP ; std::_Unchecked<std::_Vector_val<AStarSearcher<BoxSpace,BoxSpace::Box *>::DNode *,std::allocator<AStarSearcher<BoxSpace,BoxSpace::Box *>::DNode *> > >
_TEXT	ENDS
PUBLIC	??$_Uninitialized_move@PAPAUDNode@?$AStarSearcher@VBoxSpace@@PAUBox@1@@@PAPAU12@V?$allocator@PAUDNode@?$AStarSearcher@VBoxSpace@@PAUBox@1@@@@std@@@std@@YAPAPAUDNode@?$AStarSearcher@VBoxSpace@@PAUBox@1@@@PAPAU12@00AAV?$allocator@PAUDNode@?$AStarSearcher@VBoxSpace@@PAUBox@1@@@@0@@Z ; std::_Uninitialized_move<AStarSearcher<BoxSpace,BoxSpace::Box *>::DNode * *,AStarSearcher<BoxSpace,BoxSpace::Box *>::DNode * *,std::allocator<AStarSearcher<BoxSpace,BoxSpace::Box *>::DNode *> >
; Function compile flags: /Ogsp
; File c:\program files (x86)\microsoft visual studio 10.0\vc\include\memory
;	COMDAT ??$_Uninitialized_move@PAPAUDNode@?$AStarSearcher@VBoxSpace@@PAUBox@1@@@PAPAU12@V?$allocator@PAUDNode@?$AStarSearcher@VBoxSpace@@PAUBox@1@@@@std@@@std@@YAPAPAUDNode@?$AStarSearcher@VBoxSpace@@PAUBox@1@@@PAPAU12@00AAV?$allocator@PAUDNode@?$AStarSearcher@VBoxSpace@@PAUBox@1@@@@0@@Z
_TEXT	SEGMENT
__First$ = 8						; size = 4
__Last$ = 12						; size = 4
__Dest$ = 16						; size = 4
__Al$ = 20						; size = 4
??$_Uninitialized_move@PAPAUDNode@?$AStarSearcher@VBoxSpace@@PAUBox@1@@@PAPAU12@V?$allocator@PAUDNode@?$AStarSearcher@VBoxSpace@@PAUBox@1@@@@std@@@std@@YAPAPAUDNode@?$AStarSearcher@VBoxSpace@@PAUBox@1@@@PAPAU12@00AAV?$allocator@PAUDNode@?$AStarSearcher@VBoxSpace@@PAUBox@1@@@@0@@Z PROC ; std::_Uninitialized_move<AStarSearcher<BoxSpace,BoxSpace::Box *>::DNode * *,AStarSearcher<BoxSpace,BoxSpace::Box *>::DNode * *,std::allocator<AStarSearcher<BoxSpace,BoxSpace::Box *>::DNode *> >, COMDAT

; 469  : 	{	// move [_First, _Last) to raw _Dest, using _Al

  00000	55		 push	 ebp
  00001	8b ec		 mov	 ebp, esp
  00003	56		 push	 esi

; 470  : 	return (_Uninit_move(_First, _Last, _Dest, _Al,
; 471  : 		_Val_type(_First), _Ptr_cat(_First, _Dest)));

  00004	8b 75 0c	 mov	 esi, DWORD PTR __Last$[ebp]
  00007	2b 75 08	 sub	 esi, DWORD PTR __First$[ebp]
  0000a	c1 fe 02	 sar	 esi, 2
  0000d	c1 e6 02	 shl	 esi, 2
  00010	56		 push	 esi
  00011	ff 75 08	 push	 DWORD PTR __First$[ebp]
  00014	ff 75 10	 push	 DWORD PTR __Dest$[ebp]
  00017	ff 15 00 00 00
	00		 call	 DWORD PTR __imp__memmove
  0001d	83 c4 0c	 add	 esp, 12			; 0000000cH
  00020	03 c6		 add	 eax, esi
  00022	5e		 pop	 esi

; 472  : 	}

  00023	5d		 pop	 ebp
  00024	c3		 ret	 0
??$_Uninitialized_move@PAPAUDNode@?$AStarSearcher@VBoxSpace@@PAUBox@1@@@PAPAU12@V?$allocator@PAUDNode@?$AStarSearcher@VBoxSpace@@PAUBox@1@@@@std@@@std@@YAPAPAUDNode@?$AStarSearcher@VBoxSpace@@PAUBox@1@@@PAPAU12@00AAV?$allocator@PAUDNode@?$AStarSearcher@VBoxSpace@@PAUBox@1@@@@0@@Z ENDP ; std::_Uninitialized_move<AStarSearcher<BoxSpace,BoxSpace::Box *>::DNode * *,AStarSearcher<BoxSpace,BoxSpace::Box *>::DNode * *,std::allocator<AStarSearcher<BoxSpace,BoxSpace::Box *>::DNode *> >
_TEXT	ENDS
PUBLIC	??$_Uninitialized_move@PAPBQAUBox@BoxSpace@@PAPBQAU12@V?$allocator@PBQAUBox@BoxSpace@@@std@@@std@@YAPAPBQAUBox@BoxSpace@@PAPBQAU12@00AAV?$allocator@PBQAUBox@BoxSpace@@@0@@Z ; std::_Uninitialized_move<BoxSpace::Box * const * *,BoxSpace::Box * const * *,std::allocator<BoxSpace::Box * const *> >
; Function compile flags: /Ogsp
;	COMDAT ??$_Uninitialized_move@PAPBQAUBox@BoxSpace@@PAPBQAU12@V?$allocator@PBQAUBox@BoxSpace@@@std@@@std@@YAPAPBQAUBox@BoxSpace@@PAPBQAU12@00AAV?$allocator@PBQAUBox@BoxSpace@@@0@@Z
_TEXT	SEGMENT
__First$ = 8						; size = 4
__Last$ = 12						; size = 4
__Dest$ = 16						; size = 4
__Al$ = 20						; size = 4
??$_Uninitialized_move@PAPBQAUBox@BoxSpace@@PAPBQAU12@V?$allocator@PBQAUBox@BoxSpace@@@std@@@std@@YAPAPBQAUBox@BoxSpace@@PAPBQAU12@00AAV?$allocator@PBQAUBox@BoxSpace@@@0@@Z PROC ; std::_Uninitialized_move<BoxSpace::Box * const * *,BoxSpace::Box * const * *,std::allocator<BoxSpace::Box * const *> >, COMDAT

; 469  : 	{	// move [_First, _Last) to raw _Dest, using _Al

  00000	55		 push	 ebp
  00001	8b ec		 mov	 ebp, esp
  00003	56		 push	 esi

; 470  : 	return (_Uninit_move(_First, _Last, _Dest, _Al,
; 471  : 		_Val_type(_First), _Ptr_cat(_First, _Dest)));

  00004	8b 75 0c	 mov	 esi, DWORD PTR __Last$[ebp]
  00007	2b 75 08	 sub	 esi, DWORD PTR __First$[ebp]
  0000a	c1 fe 02	 sar	 esi, 2
  0000d	c1 e6 02	 shl	 esi, 2
  00010	56		 push	 esi
  00011	ff 75 08	 push	 DWORD PTR __First$[ebp]
  00014	ff 75 10	 push	 DWORD PTR __Dest$[ebp]
  00017	ff 15 00 00 00
	00		 call	 DWORD PTR __imp__memmove
  0001d	83 c4 0c	 add	 esp, 12			; 0000000cH
  00020	03 c6		 add	 eax, esi
  00022	5e		 pop	 esi

; 472  : 	}

  00023	5d		 pop	 ebp
  00024	c3		 ret	 0
??$_Uninitialized_move@PAPBQAUBox@BoxSpace@@PAPBQAU12@V?$allocator@PBQAUBox@BoxSpace@@@std@@@std@@YAPAPBQAUBox@BoxSpace@@PAPBQAU12@00AAV?$allocator@PBQAUBox@BoxSpace@@@0@@Z ENDP ; std::_Uninitialized_move<BoxSpace::Box * const * *,BoxSpace::Box * const * *,std::allocator<BoxSpace::Box * const *> >
_TEXT	ENDS
PUBLIC	??1?$_Temp_iterator@ULink@BoxSpace@@@std@@QAE@XZ ; std::_Temp_iterator<BoxSpace::Link>::~_Temp_iterator<BoxSpace::Link>
; Function compile flags: /Ogsp
;	COMDAT ??1?$_Temp_iterator@ULink@BoxSpace@@@std@@QAE@XZ
_TEXT	SEGMENT
??1?$_Temp_iterator@ULink@BoxSpace@@@std@@QAE@XZ PROC	; std::_Temp_iterator<BoxSpace::Link>::~_Temp_iterator<BoxSpace::Link>, COMDAT
; _this$ = ecx

; 747  : 		if (_Buf._Begin != 0)

  00000	8b 01		 mov	 eax, DWORD PTR [ecx]
  00002	85 c0		 test	 eax, eax
  00004	74 07		 je	 SHORT $LN9@Temp_itera

; 748  : 			{	// destroy any constructed elements in buffer
; 749  : 			for (_Pty _Next = _Buf._Begin;
; 750  : 				_Next != _Buf._Hiwater; ++_Next)
; 751  : 				_Destroy(&*_Next);
; 752  : 			_STD return_temporary_buffer(_Buf._Begin);

  00006	50		 push	 eax
  00007	e8 00 00 00 00	 call	 ??3@YAXPAX@Z		; operator delete
  0000c	59		 pop	 ecx
$LN9@Temp_itera:

; 753  : 			}
; 754  : 		}

  0000d	c3		 ret	 0
??1?$_Temp_iterator@ULink@BoxSpace@@@std@@QAE@XZ ENDP	; std::_Temp_iterator<BoxSpace::Link>::~_Temp_iterator<BoxSpace::Link>
_TEXT	ENDS
PUBLIC	?_Buy@?$vector@ULink@BoxSpace@@V?$allocator@ULink@BoxSpace@@@std@@@std@@IAE_NI@Z ; std::vector<BoxSpace::Link,std::allocator<BoxSpace::Link> >::_Buy
; Function compile flags: /Ogsp
; File c:\program files (x86)\microsoft visual studio 10.0\vc\include\vector
;	COMDAT ?_Buy@?$vector@ULink@BoxSpace@@V?$allocator@ULink@BoxSpace@@@std@@@std@@IAE_NI@Z
_TEXT	SEGMENT
__Capacity$ = 8						; size = 4
?_Buy@?$vector@ULink@BoxSpace@@V?$allocator@ULink@BoxSpace@@@std@@@std@@IAE_NI@Z PROC ; std::vector<BoxSpace::Link,std::allocator<BoxSpace::Link> >::_Buy, COMDAT
; _this$ = ecx

; 1250 : 		{	// allocate array with _Capacity elements

  00000	55		 push	 ebp
  00001	8b ec		 mov	 ebp, esp
  00003	56		 push	 esi

; 1251 : 		this->_Myfirst = 0;

  00004	33 c0		 xor	 eax, eax
  00006	57		 push	 edi

; 1252 : 		this->_Mylast = 0;
; 1253 : 		this->_Myend = 0;
; 1254 : 
; 1255 : 		if (_Capacity == 0)

  00007	8b 7d 08	 mov	 edi, DWORD PTR __Capacity$[ebp]
  0000a	8b f1		 mov	 esi, ecx
  0000c	89 06		 mov	 DWORD PTR [esi], eax
  0000e	89 46 04	 mov	 DWORD PTR [esi+4], eax
  00011	89 46 08	 mov	 DWORD PTR [esi+8], eax
  00014	3b f8		 cmp	 edi, eax
  00016	75 04		 jne	 SHORT $LN4@Buy

; 1256 : 			return (false);

  00018	32 c0		 xor	 al, al
  0001a	eb 2b		 jmp	 SHORT $LN5@Buy
$LN4@Buy:

; 1257 : 		else if (max_size() < _Capacity)

  0001c	81 ff ff ff ff
	07		 cmp	 edi, 134217727		; 07ffffffH
  00022	76 0b		 jbe	 SHORT $LN2@Buy

; 1258 : 			_Xlen();	// result too long

  00024	68 00 00 00 00	 push	 OFFSET ??_C@_0BD@OLBABOEK@vector?$DMT?$DO?5too?5long?$AA@
  00029	ff 15 00 00 00
	00		 call	 DWORD PTR __imp_?_Xlength_error@std@@YAXPBD@Z
$LN19@Buy:
$LN2@Buy:

; 1259 : 		else
; 1260 : 			{	// nonempty array, allocate storage
; 1261 : 			this->_Myfirst = this->_Alval.allocate(_Capacity);

  0002f	50		 push	 eax
  00030	57		 push	 edi
  00031	e8 00 00 00 00	 call	 ??$_Allocate@ULink@BoxSpace@@@std@@YAPAULink@BoxSpace@@IPAU12@@Z ; std::_Allocate<BoxSpace::Link>

; 1262 : 			this->_Mylast = this->_Myfirst;
; 1263 : 			this->_Myend = this->_Myfirst + _Capacity;

  00036	c1 e7 05	 shl	 edi, 5
  00039	03 f8		 add	 edi, eax
  0003b	59		 pop	 ecx
  0003c	89 06		 mov	 DWORD PTR [esi], eax
  0003e	89 46 04	 mov	 DWORD PTR [esi+4], eax
  00041	59		 pop	 ecx
  00042	89 7e 08	 mov	 DWORD PTR [esi+8], edi

; 1264 : 			}
; 1265 : 		return (true);

  00045	b0 01		 mov	 al, 1
$LN5@Buy:
  00047	5f		 pop	 edi
  00048	5e		 pop	 esi

; 1266 : 		}

  00049	5d		 pop	 ebp
  0004a	c2 04 00	 ret	 4
$LN18@Buy:
?_Buy@?$vector@ULink@BoxSpace@@V?$allocator@ULink@BoxSpace@@@std@@@std@@IAE_NI@Z ENDP ; std::vector<BoxSpace::Link,std::allocator<BoxSpace::Link> >::_Buy
_TEXT	ENDS
PUBLIC	??$_Distance@PAULink@BoxSpace@@H@std@@YAXPAULink@BoxSpace@@0AAH@Z ; std::_Distance<BoxSpace::Link *,int>
; Function compile flags: /Ogsp
; File c:\program files (x86)\microsoft visual studio 10.0\vc\include\xutility
;	COMDAT ??$_Distance@PAULink@BoxSpace@@H@std@@YAXPAULink@BoxSpace@@0AAH@Z
_TEXT	SEGMENT
__First$ = 8						; size = 4
__Last$ = 12						; size = 4
__Off$ = 16						; size = 4
??$_Distance@PAULink@BoxSpace@@H@std@@YAXPAULink@BoxSpace@@0AAH@Z PROC ; std::_Distance<BoxSpace::Link *,int>, COMDAT

; 909  : 	{	// add to _Off distance between iterators

  00000	55		 push	 ebp
  00001	8b ec		 mov	 ebp, esp

; 910  : 	_Distance2(_First, _Last, _Off, _Iter_cat(_First));

  00003	8b 4d 0c	 mov	 ecx, DWORD PTR __Last$[ebp]
  00006	2b 4d 08	 sub	 ecx, DWORD PTR __First$[ebp]
  00009	8b 45 10	 mov	 eax, DWORD PTR __Off$[ebp]
  0000c	c1 f9 05	 sar	 ecx, 5
  0000f	01 08		 add	 DWORD PTR [eax], ecx

; 911  : 	}

  00011	5d		 pop	 ebp
  00012	c3		 ret	 0
??$_Distance@PAULink@BoxSpace@@H@std@@YAXPAULink@BoxSpace@@0AAH@Z ENDP ; std::_Distance<BoxSpace::Link *,int>
_TEXT	ENDS
PUBLIC	??$_Push_heap@PAPAUDNode@?$AStarSearcher@VBoxSpace@@PAUBox@1@@@HPAU12@UDNodeCostGreater@2@@std@@YAXPAPAUDNode@?$AStarSearcher@VBoxSpace@@PAUBox@1@@@HH$$QAPAU12@UDNodeCostGreater@2@@Z ; std::_Push_heap<AStarSearcher<BoxSpace,BoxSpace::Box *>::DNode * *,int,AStarSearcher<BoxSpace,BoxSpace::Box *>::DNode *,AStarSearcher<BoxSpace,BoxSpace::Box *>::DNodeCostGreater>
; Function compile flags: /Ogsp
; File c:\program files (x86)\microsoft visual studio 10.0\vc\include\algorithm
;	COMDAT ??$_Push_heap@PAPAUDNode@?$AStarSearcher@VBoxSpace@@PAUBox@1@@@HPAU12@UDNodeCostGreater@2@@std@@YAXPAPAUDNode@?$AStarSearcher@VBoxSpace@@PAUBox@1@@@HH$$QAPAU12@UDNodeCostGreater@2@@Z
_TEXT	SEGMENT
__First$ = 8						; size = 4
__Hole$ = 12						; size = 4
__Top$ = 16						; size = 4
__Val$ = 20						; size = 4
__Pred$ = 24						; size = 1
??$_Push_heap@PAPAUDNode@?$AStarSearcher@VBoxSpace@@PAUBox@1@@@HPAU12@UDNodeCostGreater@2@@std@@YAXPAPAUDNode@?$AStarSearcher@VBoxSpace@@PAUBox@1@@@HH$$QAPAU12@UDNodeCostGreater@2@@Z PROC ; std::_Push_heap<AStarSearcher<BoxSpace,BoxSpace::Box *>::DNode * *,int,AStarSearcher<BoxSpace,BoxSpace::Box *>::DNode *,AStarSearcher<BoxSpace,BoxSpace::Box *>::DNodeCostGreater>, COMDAT

; 2455 : 	{	// percolate _Hole to _Top or where _Val belongs, using operator<

  00000	55		 push	 ebp
  00001	8b ec		 mov	 ebp, esp

; 2456 : 	for (_Diff _Idx = (_Hole - 1) / 2;

  00003	8b 4d 0c	 mov	 ecx, DWORD PTR __Hole$[ebp]
  00006	8d 41 ff	 lea	 eax, DWORD PTR [ecx-1]
  00009	99		 cdq
  0000a	2b c2		 sub	 eax, edx
  0000c	56		 push	 esi

; 2457 : 		_Top < _Hole && _DEBUG_LT_PRED(_Pred, *(_First + _Idx), _Val);
; 2458 : 		_Idx = (_Hole - 1) / 2)

  0000d	8b 75 08	 mov	 esi, DWORD PTR __First$[ebp]
  00010	d1 f8		 sar	 eax, 1
  00012	57		 push	 edi
  00013	8b 7d 14	 mov	 edi, DWORD PTR __Val$[ebp]
  00016	39 4d 10	 cmp	 DWORD PTR __Top$[ebp], ecx
  00019	7d 2d		 jge	 SHORT $LN8@Push_heap
  0001b	53		 push	 ebx
$LL3@Push_heap:
  0001c	8b 14 86	 mov	 edx, DWORD PTR [esi+eax*4]
  0001f	8b 1f		 mov	 ebx, DWORD PTR [edi]
  00021	f3 0f 10 42 0c	 movss	 xmm0, DWORD PTR [edx+12]
  00026	f3 0f 10 4b 0c	 movss	 xmm1, DWORD PTR [ebx+12]
  0002b	0f 5a c0	 cvtps2pd xmm0, xmm0
  0002e	0f 5a c9	 cvtps2pd xmm1, xmm1
  00031	66 0f 2f c1	 comisd	 xmm0, xmm1
  00035	76 10		 jbe	 SHORT $LN17@Push_heap

; 2459 : 		{	// move _Hole up to parent
; 2460 : 		*(_First + _Hole) = _Move(*(_First + _Idx));

  00037	89 14 8e	 mov	 DWORD PTR [esi+ecx*4], edx

; 2461 : 		_Hole = _Idx;

  0003a	8b c8		 mov	 ecx, eax
  0003c	48		 dec	 eax
  0003d	99		 cdq
  0003e	2b c2		 sub	 eax, edx
  00040	d1 f8		 sar	 eax, 1
  00042	39 4d 10	 cmp	 DWORD PTR __Top$[ebp], ecx
  00045	7c d5		 jl	 SHORT $LL3@Push_heap
$LN17@Push_heap:
  00047	5b		 pop	 ebx

; 2457 : 		_Top < _Hole && _DEBUG_LT_PRED(_Pred, *(_First + _Idx), _Val);
; 2458 : 		_Idx = (_Hole - 1) / 2)

$LN8@Push_heap:

; 2462 : 		}
; 2463 : 
; 2464 : 	*(_First + _Hole) = _Move(_Val);	// drop _Val into final hole

  00048	8b 07		 mov	 eax, DWORD PTR [edi]
  0004a	5f		 pop	 edi
  0004b	89 04 8e	 mov	 DWORD PTR [esi+ecx*4], eax
  0004e	5e		 pop	 esi

; 2465 : 	}

  0004f	5d		 pop	 ebp
  00050	c3		 ret	 0
??$_Push_heap@PAPAUDNode@?$AStarSearcher@VBoxSpace@@PAUBox@1@@@HPAU12@UDNodeCostGreater@2@@std@@YAXPAPAUDNode@?$AStarSearcher@VBoxSpace@@PAUBox@1@@@HH$$QAPAU12@UDNodeCostGreater@2@@Z ENDP ; std::_Push_heap<AStarSearcher<BoxSpace,BoxSpace::Box *>::DNode * *,int,AStarSearcher<BoxSpace,BoxSpace::Box *>::DNode *,AStarSearcher<BoxSpace,BoxSpace::Box *>::DNodeCostGreater>
_TEXT	ENDS
PUBLIC	??$advance@PAULink@BoxSpace@@H@std@@YAXAAPAULink@BoxSpace@@H@Z ; std::advance<BoxSpace::Link *,int>
; Function compile flags: /Ogsp
; File c:\program files (x86)\microsoft visual studio 10.0\vc\include\xutility
;	COMDAT ??$advance@PAULink@BoxSpace@@H@std@@YAXAAPAULink@BoxSpace@@H@Z
_TEXT	SEGMENT
__Where$ = 8						; size = 4
__Off$ = 12						; size = 4
??$advance@PAULink@BoxSpace@@H@std@@YAXAAPAULink@BoxSpace@@H@Z PROC ; std::advance<BoxSpace::Link *,int>, COMDAT

; 797  : 	{	// increment iterator by offset, arbitrary iterators

  00000	55		 push	 ebp
  00001	8b ec		 mov	 ebp, esp

; 798  : 	_Advance(_Where, _Off, _Iter_cat(_Where));

  00003	8b 4d 0c	 mov	 ecx, DWORD PTR __Off$[ebp]
  00006	8b 45 08	 mov	 eax, DWORD PTR __Where$[ebp]
  00009	c1 e1 05	 shl	 ecx, 5
  0000c	01 08		 add	 DWORD PTR [eax], ecx

; 799  : 	}

  0000e	5d		 pop	 ebp
  0000f	c3		 ret	 0
??$advance@PAULink@BoxSpace@@H@std@@YAXAAPAULink@BoxSpace@@H@Z ENDP ; std::advance<BoxSpace::Link *,int>
_TEXT	ENDS
PUBLIC	?construct@?$allocator@ULink@BoxSpace@@@std@@QAEXPAULink@BoxSpace@@$$QAU34@@Z ; std::allocator<BoxSpace::Link>::construct
; Function compile flags: /Ogsp
; File c:\program files (x86)\microsoft visual studio 10.0\vc\include\xmemory
;	COMDAT ?construct@?$allocator@ULink@BoxSpace@@@std@@QAEXPAULink@BoxSpace@@$$QAU34@@Z
_TEXT	SEGMENT
__Ptr$ = 8						; size = 4
__Val$ = 12						; size = 4
?construct@?$allocator@ULink@BoxSpace@@@std@@QAEXPAULink@BoxSpace@@$$QAU34@@Z PROC ; std::allocator<BoxSpace::Link>::construct, COMDAT
; _this$ = ecx

; 201  : 		{	// construct object at _Ptr with value _Val

  00000	55		 push	 ebp
  00001	8b ec		 mov	 ebp, esp
  00003	57		 push	 edi

; 202  : 		::new ((void _FARQ *)_Ptr) _Ty(_STD forward<_Ty>(_Val));

  00004	8b 7d 08	 mov	 edi, DWORD PTR __Ptr$[ebp]
  00007	85 ff		 test	 edi, edi
  00009	74 0a		 je	 SHORT $LN3@construct@10
  0000b	56		 push	 esi
  0000c	8b 75 0c	 mov	 esi, DWORD PTR __Val$[ebp]
  0000f	6a 08		 push	 8
  00011	59		 pop	 ecx
  00012	f3 a5		 rep movsd
  00014	5e		 pop	 esi
$LN3@construct@10:
  00015	5f		 pop	 edi

; 203  : 		}

  00016	5d		 pop	 ebp
  00017	c2 08 00	 ret	 8
?construct@?$allocator@ULink@BoxSpace@@@std@@QAEXPAULink@BoxSpace@@$$QAU34@@Z ENDP ; std::allocator<BoxSpace::Link>::construct
_TEXT	ENDS
PUBLIC	??0?$_Temp_iterator@ULink@BoxSpace@@@std@@QAE@ABV01@@Z ; std::_Temp_iterator<BoxSpace::Link>::_Temp_iterator<BoxSpace::Link>
; Function compile flags: /Ogsp
; File c:\program files (x86)\microsoft visual studio 10.0\vc\include\memory
;	COMDAT ??0?$_Temp_iterator@ULink@BoxSpace@@@std@@QAE@ABV01@@Z
_TEXT	SEGMENT
__Right$ = 8						; size = 4
??0?$_Temp_iterator@ULink@BoxSpace@@@std@@QAE@ABV01@@Z PROC ; std::_Temp_iterator<BoxSpace::Link>::_Temp_iterator<BoxSpace::Link>, COMDAT
; _this$ = ecx

; 736  : 	_Temp_iterator(const _Temp_iterator<_Ty>& _Right)

  00000	55		 push	 ebp
  00001	8b ec		 mov	 ebp, esp
  00003	8b c1		 mov	 eax, ecx

; 737  : 		{	// construct from _Right (share active buffer)
; 738  : 		_Buf._Begin = 0;	// clear stored buffer, for safe destruction

  00005	33 c9		 xor	 ecx, ecx
  00007	89 08		 mov	 DWORD PTR [eax], ecx

; 739  : 		_Buf._Current = 0;

  00009	89 48 04	 mov	 DWORD PTR [eax+4], ecx

; 740  : 		_Buf._Hiwater = 0;

  0000c	89 48 08	 mov	 DWORD PTR [eax+8], ecx

; 741  : 		_Buf._Size = 0;

  0000f	89 48 0c	 mov	 DWORD PTR [eax+12], ecx

; 742  : 		*this = _Right;

  00012	8b 4d 08	 mov	 ecx, DWORD PTR __Right$[ebp]
  00015	8b 49 10	 mov	 ecx, DWORD PTR [ecx+16]
  00018	89 48 10	 mov	 DWORD PTR [eax+16], ecx

; 743  : 		}

  0001b	5d		 pop	 ebp
  0001c	c2 04 00	 ret	 4
??0?$_Temp_iterator@ULink@BoxSpace@@@std@@QAE@ABV01@@Z ENDP ; std::_Temp_iterator<BoxSpace::Link>::_Temp_iterator<BoxSpace::Link>
_TEXT	ENDS
PUBLIC	??$iter_swap@PAULink@BoxSpace@@PAU12@@std@@YAXPAULink@BoxSpace@@0@Z ; std::iter_swap<BoxSpace::Link *,BoxSpace::Link *>
; Function compile flags: /Ogsp
; File c:\program files (x86)\microsoft visual studio 10.0\vc\include\xutility
;	COMDAT ??$iter_swap@PAULink@BoxSpace@@PAU12@@std@@YAXPAULink@BoxSpace@@0@Z
_TEXT	SEGMENT
__Left$ = 8						; size = 4
__Right$ = 12						; size = 4
??$iter_swap@PAULink@BoxSpace@@PAU12@@std@@YAXPAULink@BoxSpace@@0@Z PROC ; std::iter_swap<BoxSpace::Link *,BoxSpace::Link *>, COMDAT

; 2133 : 	{	// swap *_Left and *_Right

  00000	55		 push	 ebp
  00001	8b ec		 mov	 ebp, esp

; 2135 : 	}

  00003	5d		 pop	 ebp

; 2134 : 	swap(*_Left, *_Right);

  00004	e9 00 00 00 00	 jmp	 ??$swap@ULink@BoxSpace@@@std@@YAXAAULink@BoxSpace@@0@Z ; std::swap<BoxSpace::Link>
??$iter_swap@PAULink@BoxSpace@@PAU12@@std@@YAXPAULink@BoxSpace@@0@Z ENDP ; std::iter_swap<BoxSpace::Link *,BoxSpace::Link *>
_TEXT	ENDS
PUBLIC	??$_Adjust_heap@PAPAUDNode@?$AStarSearcher@VBoxSpace@@PAUBox@1@@@HPAU12@UDNodeCostGreater@2@@std@@YAXPAPAUDNode@?$AStarSearcher@VBoxSpace@@PAUBox@1@@@HH$$QAPAU12@UDNodeCostGreater@2@@Z ; std::_Adjust_heap<AStarSearcher<BoxSpace,BoxSpace::Box *>::DNode * *,int,AStarSearcher<BoxSpace,BoxSpace::Box *>::DNode *,AStarSearcher<BoxSpace,BoxSpace::Box *>::DNodeCostGreater>
; Function compile flags: /Ogsp
; File c:\program files (x86)\microsoft visual studio 10.0\vc\include\algorithm
;	COMDAT ??$_Adjust_heap@PAPAUDNode@?$AStarSearcher@VBoxSpace@@PAUBox@1@@@HPAU12@UDNodeCostGreater@2@@std@@YAXPAPAUDNode@?$AStarSearcher@VBoxSpace@@PAUBox@1@@@HH$$QAPAU12@UDNodeCostGreater@2@@Z
_TEXT	SEGMENT
__First$ = 8						; size = 4
__Hole$ = 12						; size = 4
__Bottom$ = 16						; size = 4
__Val$ = 20						; size = 4
__Pred$ = 24						; size = 1
??$_Adjust_heap@PAPAUDNode@?$AStarSearcher@VBoxSpace@@PAUBox@1@@@HPAU12@UDNodeCostGreater@2@@std@@YAXPAPAUDNode@?$AStarSearcher@VBoxSpace@@PAUBox@1@@@HH$$QAPAU12@UDNodeCostGreater@2@@Z PROC ; std::_Adjust_heap<AStarSearcher<BoxSpace,BoxSpace::Box *>::DNode * *,int,AStarSearcher<BoxSpace,BoxSpace::Box *>::DNode *,AStarSearcher<BoxSpace,BoxSpace::Box *>::DNodeCostGreater>, COMDAT

; 2565 : 	{	// percolate _Hole to _Bottom, then push _Val, using _Pred

  00000	55		 push	 ebp
  00001	8b ec		 mov	 ebp, esp

; 2566 : 	_Diff _Top = _Hole;

  00003	8b 55 0c	 mov	 edx, DWORD PTR __Hole$[ebp]

; 2567 : 	_Diff _Idx = 2 * _Hole + 2;
; 2568 : 
; 2569 : 	for (; _Idx < _Bottom; _Idx = 2 * _Idx + 2)

  00006	8b 4d 08	 mov	 ecx, DWORD PTR __First$[ebp]
  00009	56		 push	 esi
  0000a	8b 75 10	 mov	 esi, DWORD PTR __Bottom$[ebp]
  0000d	8d 44 12 02	 lea	 eax, DWORD PTR [edx+edx+2]
  00011	57		 push	 edi
  00012	8b fa		 mov	 edi, edx
  00014	3b c6		 cmp	 eax, esi
  00016	7d 30		 jge	 SHORT $LN21@Adjust_hea
  00018	53		 push	 ebx
$LL5@Adjust_hea:

; 2570 : 		{	// move _Hole down to larger child
; 2571 : 		if (_DEBUG_LT_PRED(_Pred, *(_First + _Idx), *(_First + (_Idx - 1))))

  00019	8b 1c 81	 mov	 ebx, DWORD PTR [ecx+eax*4]
  0001c	f3 0f 10 43 0c	 movss	 xmm0, DWORD PTR [ebx+12]
  00021	8b 5c 81 fc	 mov	 ebx, DWORD PTR [ecx+eax*4-4]
  00025	f3 0f 10 4b 0c	 movss	 xmm1, DWORD PTR [ebx+12]
  0002a	0f 5a c0	 cvtps2pd xmm0, xmm0
  0002d	0f 5a c9	 cvtps2pd xmm1, xmm1
  00030	66 0f 2f c1	 comisd	 xmm0, xmm1
  00034	76 01		 jbe	 SHORT $LN2@Adjust_hea

; 2572 : 			--_Idx;

  00036	48		 dec	 eax
$LN2@Adjust_hea:

; 2573 : 		*(_First + _Hole) = _Move(*(_First + _Idx));

  00037	8b 1c 81	 mov	 ebx, DWORD PTR [ecx+eax*4]
  0003a	89 1c 91	 mov	 DWORD PTR [ecx+edx*4], ebx

; 2574 : 		_Hole = _Idx;

  0003d	8b d0		 mov	 edx, eax
  0003f	8d 44 00 02	 lea	 eax, DWORD PTR [eax+eax+2]
  00043	3b c6		 cmp	 eax, esi
  00045	7c d2		 jl	 SHORT $LL5@Adjust_hea
  00047	5b		 pop	 ebx
$LN21@Adjust_hea:

; 2575 : 		}
; 2576 : 
; 2577 : 	if (_Idx == _Bottom)

  00048	75 0a		 jne	 SHORT $LN1@Adjust_hea

; 2578 : 		{	// only child at bottom, move _Hole down to it
; 2579 : 		*(_First + _Hole) = _Move(*(_First + (_Bottom - 1)));

  0004a	8b 44 b1 fc	 mov	 eax, DWORD PTR [ecx+esi*4-4]
  0004e	89 04 91	 mov	 DWORD PTR [ecx+edx*4], eax

; 2580 : 		_Hole = _Bottom - 1;

  00051	8d 56 ff	 lea	 edx, DWORD PTR [esi-1]
$LN1@Adjust_hea:

; 2581 : 		}
; 2582 : 	_Push_heap(_First, _Hole, _Top, _Move(_Val), _Pred);

  00054	ff 75 18	 push	 DWORD PTR __Pred$[ebp]
  00057	ff 75 14	 push	 DWORD PTR __Val$[ebp]
  0005a	57		 push	 edi
  0005b	52		 push	 edx
  0005c	51		 push	 ecx
  0005d	e8 00 00 00 00	 call	 ??$_Push_heap@PAPAUDNode@?$AStarSearcher@VBoxSpace@@PAUBox@1@@@HPAU12@UDNodeCostGreater@2@@std@@YAXPAPAUDNode@?$AStarSearcher@VBoxSpace@@PAUBox@1@@@HH$$QAPAU12@UDNodeCostGreater@2@@Z ; std::_Push_heap<AStarSearcher<BoxSpace,BoxSpace::Box *>::DNode * *,int,AStarSearcher<BoxSpace,BoxSpace::Box *>::DNode *,AStarSearcher<BoxSpace,BoxSpace::Box *>::DNodeCostGreater>
  00062	83 c4 14	 add	 esp, 20			; 00000014H
  00065	5f		 pop	 edi
  00066	5e		 pop	 esi

; 2583 : 	}

  00067	5d		 pop	 ebp
  00068	c3		 ret	 0
??$_Adjust_heap@PAPAUDNode@?$AStarSearcher@VBoxSpace@@PAUBox@1@@@HPAU12@UDNodeCostGreater@2@@std@@YAXPAPAUDNode@?$AStarSearcher@VBoxSpace@@PAUBox@1@@@HH$$QAPAU12@UDNodeCostGreater@2@@Z ENDP ; std::_Adjust_heap<AStarSearcher<BoxSpace,BoxSpace::Box *>::DNode * *,int,AStarSearcher<BoxSpace,BoxSpace::Box *>::DNode *,AStarSearcher<BoxSpace,BoxSpace::Box *>::DNodeCostGreater>
_TEXT	ENDS
PUBLIC	??$_Lower_bound@PAULink@BoxSpace@@U12@HUFn_WalkLess@@@std@@YAPAULink@BoxSpace@@PAU12@0ABU12@UFn_WalkLess@@PAH@Z ; std::_Lower_bound<BoxSpace::Link *,BoxSpace::Link,int,Fn_WalkLess>
; Function compile flags: /Ogsp
;	COMDAT ??$_Lower_bound@PAULink@BoxSpace@@U12@HUFn_WalkLess@@@std@@YAPAULink@BoxSpace@@PAU12@0ABU12@UFn_WalkLess@@PAH@Z
_TEXT	SEGMENT
__First$ = 8						; size = 4
__Last$ = 12						; size = 4
__Val$ = 16						; size = 4
__Pred$ = 20						; size = 1
___formal$ = 24						; size = 4
??$_Lower_bound@PAULink@BoxSpace@@U12@HUFn_WalkLess@@@std@@YAPAULink@BoxSpace@@PAU12@0ABU12@UFn_WalkLess@@PAH@Z PROC ; std::_Lower_bound<BoxSpace::Link *,BoxSpace::Link,int,Fn_WalkLess>, COMDAT

; 2759 : 	{	// find first element not before _Val, using _Pred

  00000	55		 push	 ebp
  00001	8b ec		 mov	 ebp, esp
  00003	56		 push	 esi

; 2760 : 	_Diff _Count = 0;
; 2761 : 	_Distance(_First, _Last, _Count);

  00004	8b 75 0c	 mov	 esi, DWORD PTR __Last$[ebp]
  00007	57		 push	 edi
  00008	8b 7d 08	 mov	 edi, DWORD PTR __First$[ebp]
  0000b	2b f7		 sub	 esi, edi
  0000d	c1 fe 05	 sar	 esi, 5
  00010	eb 2b		 jmp	 SHORT $LN25@Lower_boun
$LL4@Lower_boun:

; 2763 : 		{	// divide and conquer, find half that contains answer
; 2764 : 		_Diff _Count2 = _Count / 2;

  00012	8b c6		 mov	 eax, esi
  00014	99		 cdq
  00015	2b c2		 sub	 eax, edx
  00017	d1 f8		 sar	 eax, 1

; 2765 : 		_FwdIt _Mid = _First;
; 2766 : 		_STD advance(_Mid, _Count2);

  00019	8b c8		 mov	 ecx, eax
  0001b	c1 e1 05	 shl	 ecx, 5

; 2767 : 
; 2768 : 		if (_Pred(*_Mid, _Val))

  0001e	80 7c 39 03 4c	 cmp	 BYTE PTR [ecx+edi+3], 76 ; 0000004cH
  00023	75 16		 jne	 SHORT $LN2@Lower_boun
  00025	8b 55 10	 mov	 edx, DWORD PTR __Val$[ebp]
  00028	80 7a 03 4c	 cmp	 BYTE PTR [edx+3], 76	; 0000004cH
  0002c	74 0d		 je	 SHORT $LN2@Lower_boun

; 2769 : //		if (_DEBUG_LT_PRED(_Pred, *_Mid, _Val))
; 2770 : 			{	// try top half
; 2771 : 			_First = ++_Mid;

  0002e	8d 7c 39 20	 lea	 edi, DWORD PTR [ecx+edi+32]

; 2772 : 			_Count -= _Count2 + 1;

  00032	83 c9 ff	 or	 ecx, -1
  00035	2b c8		 sub	 ecx, eax
  00037	03 f1		 add	 esi, ecx

; 2773 : 			}
; 2774 : 		else

  00039	eb 02		 jmp	 SHORT $LN25@Lower_boun
$LN2@Lower_boun:

; 2775 : 			_Count = _Count2;

  0003b	8b f0		 mov	 esi, eax
$LN25@Lower_boun:

; 2762 : 	for (; 0 < _Count; )

  0003d	85 f6		 test	 esi, esi
  0003f	7f d1		 jg	 SHORT $LL4@Lower_boun

; 2776 : 		}
; 2777 : 	return (_First);

  00041	8b c7		 mov	 eax, edi
  00043	5f		 pop	 edi
  00044	5e		 pop	 esi

; 2778 : 	}

  00045	5d		 pop	 ebp
  00046	c3		 ret	 0
??$_Lower_bound@PAULink@BoxSpace@@U12@HUFn_WalkLess@@@std@@YAPAULink@BoxSpace@@PAU12@0ABU12@UFn_WalkLess@@PAH@Z ENDP ; std::_Lower_bound<BoxSpace::Link *,BoxSpace::Link,int,Fn_WalkLess>
_TEXT	ENDS
PUBLIC	??$_Upper_bound@PAULink@BoxSpace@@U12@HUFn_WalkLess@@@std@@YAPAULink@BoxSpace@@PAU12@0ABU12@UFn_WalkLess@@PAH@Z ; std::_Upper_bound<BoxSpace::Link *,BoxSpace::Link,int,Fn_WalkLess>
; Function compile flags: /Ogsp
;	COMDAT ??$_Upper_bound@PAULink@BoxSpace@@U12@HUFn_WalkLess@@@std@@YAPAULink@BoxSpace@@PAU12@0ABU12@UFn_WalkLess@@PAH@Z
_TEXT	SEGMENT
__First$ = 8						; size = 4
__Last$ = 12						; size = 4
__Val$ = 16						; size = 4
__Pred$ = 20						; size = 1
___formal$ = 24						; size = 4
??$_Upper_bound@PAULink@BoxSpace@@U12@HUFn_WalkLess@@@std@@YAPAULink@BoxSpace@@PAU12@0ABU12@UFn_WalkLess@@PAH@Z PROC ; std::_Upper_bound<BoxSpace::Link *,BoxSpace::Link,int,Fn_WalkLess>, COMDAT

; 2835 : 	{	// find first element that _Val is before, using _Pred

  00000	55		 push	 ebp
  00001	8b ec		 mov	 ebp, esp
  00003	56		 push	 esi

; 2836 : 	_Diff _Count = 0;
; 2837 : 	_Distance(_First, _Last, _Count);

  00004	8b 75 0c	 mov	 esi, DWORD PTR __Last$[ebp]
  00007	57		 push	 edi
  00008	8b 7d 08	 mov	 edi, DWORD PTR __First$[ebp]
  0000b	2b f7		 sub	 esi, edi
  0000d	c1 fe 05	 sar	 esi, 5

; 2838 : 	for (; 0 < _Count; )

  00010	85 f6		 test	 esi, esi
  00012	7e 32		 jle	 SHORT $LN3@Upper_boun
  00014	8b 45 10	 mov	 eax, DWORD PTR __Val$[ebp]
  00017	53		 push	 ebx
  00018	8a 58 03	 mov	 bl, BYTE PTR [eax+3]
$LL4@Upper_boun:

; 2839 : 		{	// divide and conquer, find half that contains answer
; 2840 : 		_Diff _Count2 = _Count / 2;

  0001b	8b c6		 mov	 eax, esi
  0001d	99		 cdq
  0001e	2b c2		 sub	 eax, edx
  00020	d1 f8		 sar	 eax, 1

; 2841 : 		_FwdIt _Mid = _First;
; 2842 : 		_STD advance(_Mid, _Count2);

  00022	8b c8		 mov	 ecx, eax
  00024	c1 e1 05	 shl	 ecx, 5

; 2843 : 
; 2844 : 		if (!_Pred(_Val, *_Mid))

  00027	80 fb 4c	 cmp	 bl, 76			; 0000004cH
  0002a	75 06		 jne	 SHORT $LN21@Upper_boun
  0002c	38 5c 39 03	 cmp	 BYTE PTR [ecx+edi+3], bl
  00030	75 0d		 jne	 SHORT $LN2@Upper_boun
$LN21@Upper_boun:

; 2845 : //		if (!_DEBUG_LT_PRED(_Pred, _Val, *_Mid))
; 2846 : 			{	// try top half
; 2847 : 			_First = ++_Mid;

  00032	8d 7c 39 20	 lea	 edi, DWORD PTR [ecx+edi+32]

; 2848 : 			_Count -= _Count2 + 1;

  00036	83 c9 ff	 or	 ecx, -1
  00039	2b c8		 sub	 ecx, eax
  0003b	03 f1		 add	 esi, ecx

; 2849 : 			}
; 2850 : 		else

  0003d	eb 02		 jmp	 SHORT $LN1@Upper_boun
$LN2@Upper_boun:

; 2851 : 			_Count = _Count2;

  0003f	8b f0		 mov	 esi, eax
$LN1@Upper_boun:

; 2838 : 	for (; 0 < _Count; )

  00041	85 f6		 test	 esi, esi
  00043	7f d6		 jg	 SHORT $LL4@Upper_boun
  00045	5b		 pop	 ebx
$LN3@Upper_boun:

; 2852 : 		}
; 2853 : 	return (_First);

  00046	8b c7		 mov	 eax, edi
  00048	5f		 pop	 edi
  00049	5e		 pop	 esi

; 2854 : 	}

  0004a	5d		 pop	 ebp
  0004b	c3		 ret	 0
??$_Upper_bound@PAULink@BoxSpace@@U12@HUFn_WalkLess@@@std@@YAPAULink@BoxSpace@@PAU12@0ABU12@UFn_WalkLess@@PAH@Z ENDP ; std::_Upper_bound<BoxSpace::Link *,BoxSpace::Link,int,Fn_WalkLess>
_TEXT	ENDS
PUBLIC	??$?0AAPAULink@BoxSpace@@AAH@?$_Pair_base@PAULink@BoxSpace@@H@std@@QAE@AAPAULink@BoxSpace@@AAH@Z ; std::_Pair_base<BoxSpace::Link *,int>::_Pair_base<BoxSpace::Link *,int><BoxSpace::Link * &,int &>
; Function compile flags: /Ogsp
; File c:\program files (x86)\microsoft visual studio 10.0\vc\include\utility
;	COMDAT ??$?0AAPAULink@BoxSpace@@AAH@?$_Pair_base@PAULink@BoxSpace@@H@std@@QAE@AAPAULink@BoxSpace@@AAH@Z
_TEXT	SEGMENT
__Val1$ = 8						; size = 4
__Val2$ = 12						; size = 4
??$?0AAPAULink@BoxSpace@@AAH@?$_Pair_base@PAULink@BoxSpace@@H@std@@QAE@AAPAULink@BoxSpace@@AAH@Z PROC ; std::_Pair_base<BoxSpace::Link *,int>::_Pair_base<BoxSpace::Link *,int><BoxSpace::Link * &,int &>, COMDAT
; _this$ = ecx

; 163  : 		{	// construct from moved values

  00000	55		 push	 ebp
  00001	8b ec		 mov	 ebp, esp
  00003	8b c1		 mov	 eax, ecx
  00005	8b 4d 08	 mov	 ecx, DWORD PTR __Val1$[ebp]
  00008	8b 09		 mov	 ecx, DWORD PTR [ecx]
  0000a	89 08		 mov	 DWORD PTR [eax], ecx
  0000c	8b 4d 0c	 mov	 ecx, DWORD PTR __Val2$[ebp]
  0000f	8b 09		 mov	 ecx, DWORD PTR [ecx]
  00011	89 48 04	 mov	 DWORD PTR [eax+4], ecx

; 164  : 		}

  00014	5d		 pop	 ebp
  00015	c2 08 00	 ret	 8
??$?0AAPAULink@BoxSpace@@AAH@?$_Pair_base@PAULink@BoxSpace@@H@std@@QAE@AAPAULink@BoxSpace@@AAH@Z ENDP ; std::_Pair_base<BoxSpace::Link *,int>::_Pair_base<BoxSpace::Link *,int><BoxSpace::Link * &,int &>
_TEXT	ENDS
PUBLIC	??4?$_Temp_iterator@ULink@BoxSpace@@@std@@QAEAAV01@$$QAULink@BoxSpace@@@Z ; std::_Temp_iterator<BoxSpace::Link>::operator=
; Function compile flags: /Ogsp
; File c:\program files (x86)\microsoft visual studio 10.0\vc\include\memory
;	COMDAT ??4?$_Temp_iterator@ULink@BoxSpace@@@std@@QAEAAV01@$$QAULink@BoxSpace@@@Z
_TEXT	SEGMENT
__Val$ = 8						; size = 4
??4?$_Temp_iterator@ULink@BoxSpace@@@std@@QAEAAV01@$$QAULink@BoxSpace@@@Z PROC ; std::_Temp_iterator<BoxSpace::Link>::operator=, COMDAT
; _this$ = ecx

; 776  : 		{	// move or construct value into active buffer, and increment

  00000	55		 push	 ebp
  00001	8b ec		 mov	 ebp, esp
  00003	8b c1		 mov	 eax, ecx

; 777  : 		if (_Pbuf->_Current < _Pbuf->_Hiwater)

  00005	8b 48 10	 mov	 ecx, DWORD PTR [eax+16]
  00008	8b 51 04	 mov	 edx, DWORD PTR [ecx+4]
  0000b	56		 push	 esi
  0000c	57		 push	 edi

; 778  : 			*_Pbuf->_Current++ =
; 779  : 				_STD forward<_Ty>(_Val);	// below high water mark, move

  0000d	8b fa		 mov	 edi, edx
  0000f	3b 51 08	 cmp	 edx, DWORD PTR [ecx+8]
  00012	73 11		 jae	 SHORT $LN2@operator@3
  00014	8b 75 08	 mov	 esi, DWORD PTR __Val$[ebp]
  00017	6a 08		 push	 8
  00019	59		 pop	 ecx
  0001a	f3 a5		 rep movsd
  0001c	8b 48 10	 mov	 ecx, DWORD PTR [eax+16]
  0001f	83 41 04 20	 add	 DWORD PTR [ecx+4], 32	; 00000020H

; 780  : 		else

  00023	eb 1c		 jmp	 SHORT $LN1@operator@3
$LN2@operator@3:

; 781  : 			{	// above high water mark, construct
; 782  : 			_Pty _Ptr = &*_Pbuf->_Current;
; 783  : 			_Construct(_Ptr, _STD forward<_Ty>(_Val));

  00025	85 ff		 test	 edi, edi
  00027	74 08		 je	 SHORT $LN11@operator@3
  00029	8b 75 08	 mov	 esi, DWORD PTR __Val$[ebp]
  0002c	6a 08		 push	 8
  0002e	59		 pop	 ecx
  0002f	f3 a5		 rep movsd
$LN11@operator@3:

; 784  : 			_Pbuf->_Hiwater = ++_Pbuf->_Current;

  00031	8b 48 10	 mov	 ecx, DWORD PTR [eax+16]
  00034	83 41 04 20	 add	 DWORD PTR [ecx+4], 32	; 00000020H
  00038	8b 49 04	 mov	 ecx, DWORD PTR [ecx+4]
  0003b	8b 50 10	 mov	 edx, DWORD PTR [eax+16]
  0003e	89 4a 08	 mov	 DWORD PTR [edx+8], ecx
$LN1@operator@3:
  00041	5f		 pop	 edi
  00042	5e		 pop	 esi

; 785  : 			}
; 786  : 		return (*this);
; 787  : 		}

  00043	5d		 pop	 ebp
  00044	c2 04 00	 ret	 4
??4?$_Temp_iterator@ULink@BoxSpace@@@std@@QAEAAV01@$$QAULink@BoxSpace@@@Z ENDP ; std::_Temp_iterator<BoxSpace::Link>::operator=
_TEXT	ENDS
PUBLIC	??$_Move_backward@PAULink@BoxSpace@@PAU12@@std@@YAPAULink@BoxSpace@@PAU12@00U_Nonscalar_ptr_iterator_tag@0@@Z ; std::_Move_backward<BoxSpace::Link *,BoxSpace::Link *>
; Function compile flags: /Ogsp
; File c:\program files (x86)\microsoft visual studio 10.0\vc\include\xutility
;	COMDAT ??$_Move_backward@PAULink@BoxSpace@@PAU12@@std@@YAPAULink@BoxSpace@@PAU12@00U_Nonscalar_ptr_iterator_tag@0@@Z
_TEXT	SEGMENT
__First$ = 8						; size = 4
__Last$ = 12						; size = 4
__Dest$ = 16						; size = 4
___formal$ = 20						; size = 1
??$_Move_backward@PAULink@BoxSpace@@PAU12@@std@@YAPAULink@BoxSpace@@PAU12@00U_Nonscalar_ptr_iterator_tag@0@@Z PROC ; std::_Move_backward<BoxSpace::Link *,BoxSpace::Link *>, COMDAT

; 2617 : 	{	// move [_First, _Last) backwards to [..., _Dest), arbitrary iterators

  00000	55		 push	 ebp
  00001	8b ec		 mov	 ebp, esp

; 2618 : 	while (_First != _Last)

  00003	8b 45 0c	 mov	 eax, DWORD PTR __Last$[ebp]
  00006	39 45 08	 cmp	 DWORD PTR __First$[ebp], eax
  00009	74 1a		 je	 SHORT $LN9@Move_backw
  0000b	56		 push	 esi
  0000c	57		 push	 edi
$LL2@Move_backw:

; 2619 : 		*--_Dest = _STD move(*--_Last);

  0000d	83 6d 10 20	 sub	 DWORD PTR __Dest$[ebp], 32 ; 00000020H
  00011	8b 7d 10	 mov	 edi, DWORD PTR __Dest$[ebp]
  00014	83 e8 20	 sub	 eax, 32			; 00000020H
  00017	6a 08		 push	 8
  00019	59		 pop	 ecx
  0001a	8b f0		 mov	 esi, eax
  0001c	f3 a5		 rep movsd
  0001e	3b 45 08	 cmp	 eax, DWORD PTR __First$[ebp]
  00021	75 ea		 jne	 SHORT $LL2@Move_backw
  00023	5f		 pop	 edi
  00024	5e		 pop	 esi
$LN9@Move_backw:

; 2620 : 	return (_Dest);

  00025	8b 45 10	 mov	 eax, DWORD PTR __Dest$[ebp]

; 2621 : 	}

  00028	5d		 pop	 ebp
  00029	c3		 ret	 0
??$_Move_backward@PAULink@BoxSpace@@PAU12@@std@@YAPAULink@BoxSpace@@PAU12@00U_Nonscalar_ptr_iterator_tag@0@@Z ENDP ; std::_Move_backward<BoxSpace::Link *,BoxSpace::Link *>
_TEXT	ENDS
PUBLIC	??$_Move@PAULink@BoxSpace@@PAU12@@std@@YAPAULink@BoxSpace@@PAU12@00U_Nonscalar_ptr_iterator_tag@0@@Z ; std::_Move<BoxSpace::Link *,BoxSpace::Link *>
; Function compile flags: /Ogsp
;	COMDAT ??$_Move@PAULink@BoxSpace@@PAU12@@std@@YAPAULink@BoxSpace@@PAU12@00U_Nonscalar_ptr_iterator_tag@0@@Z
_TEXT	SEGMENT
__First$ = 8						; size = 4
__Last$ = 12						; size = 4
__Dest$ = 16						; size = 4
___formal$ = 20						; size = 1
??$_Move@PAULink@BoxSpace@@PAU12@@std@@YAPAULink@BoxSpace@@PAU12@00U_Nonscalar_ptr_iterator_tag@0@@Z PROC ; std::_Move<BoxSpace::Link *,BoxSpace::Link *>, COMDAT

; 2512 : 	{	// move [_First, _Last) to [_Dest, ...), arbitrary iterators

  00000	55		 push	 ebp
  00001	8b ec		 mov	 ebp, esp

; 2513 : 	for (; _First != _Last; ++_Dest, ++_First)

  00003	8b 45 08	 mov	 eax, DWORD PTR __First$[ebp]
  00006	3b 45 0c	 cmp	 eax, DWORD PTR __Last$[ebp]
  00009	74 1a		 je	 SHORT $LN10@Move
  0000b	56		 push	 esi
  0000c	57		 push	 edi
$LL3@Move:

; 2514 : 		*_Dest = _STD move(*_First);

  0000d	8b 7d 10	 mov	 edi, DWORD PTR __Dest$[ebp]
  00010	83 45 10 20	 add	 DWORD PTR __Dest$[ebp], 32 ; 00000020H
  00014	8b f0		 mov	 esi, eax
  00016	6a 08		 push	 8
  00018	83 c0 20	 add	 eax, 32			; 00000020H
  0001b	59		 pop	 ecx
  0001c	f3 a5		 rep movsd
  0001e	3b 45 0c	 cmp	 eax, DWORD PTR __Last$[ebp]
  00021	75 ea		 jne	 SHORT $LL3@Move
  00023	5f		 pop	 edi
  00024	5e		 pop	 esi
$LN10@Move:

; 2515 : 	return (_Dest);

  00025	8b 45 10	 mov	 eax, DWORD PTR __Dest$[ebp]

; 2516 : 	}

  00028	5d		 pop	 ebp
  00029	c3		 ret	 0
??$_Move@PAULink@BoxSpace@@PAU12@@std@@YAPAULink@BoxSpace@@PAU12@00U_Nonscalar_ptr_iterator_tag@0@@Z ENDP ; std::_Move<BoxSpace::Link *,BoxSpace::Link *>
_TEXT	ENDS
PUBLIC	??$_Rotate@PAULink@BoxSpace@@HU12@@std@@YAXPAULink@BoxSpace@@00PAH0@Z ; std::_Rotate<BoxSpace::Link *,int,BoxSpace::Link>
; Function compile flags: /Ogsp
;	COMDAT ??$_Rotate@PAULink@BoxSpace@@HU12@@std@@YAXPAULink@BoxSpace@@00PAH0@Z
_TEXT	SEGMENT
tv171 = -4						; size = 4
__First$ = 8						; size = 4
__Count$ = 12						; size = 4
__Mid$ = 12						; size = 4
__Last$ = 16						; size = 4
___formal$ = 20						; size = 4
___formal$ = 24						; size = 4
??$_Rotate@PAULink@BoxSpace@@HU12@@std@@YAXPAULink@BoxSpace@@00PAH0@Z PROC ; std::_Rotate<BoxSpace::Link *,int,BoxSpace::Link>, COMDAT

; 3256 : 	{	// rotate [_First, _Last), random-access iterators

  00000	55		 push	 ebp
  00001	8b ec		 mov	 ebp, esp
  00003	51		 push	 ecx

; 3257 : 	_Diff _Shift = _Mid - _First;
; 3258 : 	_Diff _Count = _Last - _First;

  00004	8b 4d 10	 mov	 ecx, DWORD PTR __Last$[ebp]
  00007	2b 4d 08	 sub	 ecx, DWORD PTR __First$[ebp]
  0000a	53		 push	 ebx
  0000b	56		 push	 esi
  0000c	8b 75 0c	 mov	 esi, DWORD PTR __Mid$[ebp]
  0000f	2b 75 08	 sub	 esi, DWORD PTR __First$[ebp]
  00012	c1 f9 05	 sar	 ecx, 5
  00015	c1 fe 05	 sar	 esi, 5
  00018	57		 push	 edi
  00019	89 4d 0c	 mov	 DWORD PTR __Count$[ebp], ecx

; 3259 : 
; 3260 : 	for (_Diff _Factor = _Shift; _Factor != 0; )

  0001c	8b fe		 mov	 edi, esi
  0001e	85 f6		 test	 esi, esi
  00020	74 0f		 je	 SHORT $LN8@Rotate
$LL9@Rotate:

; 3261 : 		{	// find subcycle count as GCD of shift count and length
; 3262 : 		_Diff _Tmp = _Count % _Factor;

  00022	8b 45 0c	 mov	 eax, DWORD PTR __Count$[ebp]
  00025	99		 cdq
  00026	f7 ff		 idiv	 edi

; 3263 : 		_Count = _Factor;

  00028	89 7d 0c	 mov	 DWORD PTR __Count$[ebp], edi

; 3264 : 		_Factor = _Tmp;

  0002b	8b fa		 mov	 edi, edx
  0002d	85 d2		 test	 edx, edx
  0002f	75 f1		 jne	 SHORT $LL9@Rotate
$LN8@Rotate:

; 3265 : 		}
; 3266 : 
; 3267 : 	if (_Count < _Last - _First)

  00031	8b 5d 0c	 mov	 ebx, DWORD PTR __Count$[ebp]
  00034	3b d9		 cmp	 ebx, ecx
  00036	7d 57		 jge	 SHORT $LN4@Rotate

; 3268 : 		for (; 0 < _Count; --_Count)

  00038	85 db		 test	 ebx, ebx
  0003a	7e 53		 jle	 SHORT $LN4@Rotate
  0003c	89 75 fc	 mov	 DWORD PTR tv171[ebp], esi
  0003f	c1 65 fc 05	 shl	 DWORD PTR tv171[ebp], 5
  00043	c1 e3 05	 shl	 ebx, 5
  00046	03 5d 08	 add	 ebx, DWORD PTR __First$[ebp]
$LL27@Rotate:

; 3269 : 			{	// rotate each subcycle
; 3270 : 			_RanIt _Hole = _First + _Count;
; 3271 : 			_RanIt _Next = _Hole;
; 3272 : 			_RanIt _Next1 = _Next + _Shift == _Last ? _First : _Next + _Shift;

  00049	8b 45 fc	 mov	 eax, DWORD PTR tv171[ebp]
  0004c	8d 3c 03	 lea	 edi, DWORD PTR [ebx+eax]
  0004f	8b cb		 mov	 ecx, ebx
  00051	3b 7d 10	 cmp	 edi, DWORD PTR __Last$[ebp]
  00054	75 03		 jne	 SHORT $LL12@Rotate
  00056	8b 7d 08	 mov	 edi, DWORD PTR __First$[ebp]
$LL12@Rotate:

; 3273 : 			for (; ; )
; 3274 : 				{	// percolate elements back around subcycle
; 3275 : 				iter_swap(_Next, _Next1);

  00059	57		 push	 edi
  0005a	51		 push	 ecx
  0005b	e8 00 00 00 00	 call	 ??$swap@ULink@BoxSpace@@@std@@YAXAAULink@BoxSpace@@0@Z ; std::swap<BoxSpace::Link>

; 3276 : 				_Next = _Next1;
; 3277 : 				_Next1 = _Shift < _Last - _Next1 ? _Next1 + _Shift
; 3278 : 					: _First + (_Shift - (_Last - _Next1));

  00060	8b 45 10	 mov	 eax, DWORD PTR __Last$[ebp]
  00063	2b c7		 sub	 eax, edi
  00065	59		 pop	 ecx
  00066	c1 f8 05	 sar	 eax, 5
  00069	59		 pop	 ecx
  0006a	8b cf		 mov	 ecx, edi
  0006c	3b f0		 cmp	 esi, eax
  0006e	7d 05		 jge	 SHORT $LN14@Rotate
  00070	03 7d fc	 add	 edi, DWORD PTR tv171[ebp]
  00073	eb 0a		 jmp	 SHORT $LN15@Rotate
$LN14@Rotate:
  00075	8b fe		 mov	 edi, esi
  00077	2b f8		 sub	 edi, eax
  00079	c1 e7 05	 shl	 edi, 5
  0007c	03 7d 08	 add	 edi, DWORD PTR __First$[ebp]
$LN15@Rotate:

; 3279 : 				if (_Next1 == _Hole)

  0007f	3b fb		 cmp	 edi, ebx
  00081	75 d6		 jne	 SHORT $LL12@Rotate

; 3268 : 		for (; 0 < _Count; --_Count)

  00083	ff 4d 0c	 dec	 DWORD PTR __Count$[ebp]
  00086	83 eb 20	 sub	 ebx, 32			; 00000020H
  00089	83 7d 0c 00	 cmp	 DWORD PTR __Count$[ebp], 0
  0008d	7f ba		 jg	 SHORT $LL27@Rotate
$LN4@Rotate:
  0008f	5f		 pop	 edi
  00090	5e		 pop	 esi
  00091	5b		 pop	 ebx

; 3280 : 					break;
; 3281 : 				}
; 3282 : 			}
; 3283 : 	}

  00092	c9		 leave
  00093	c3		 ret	 0
??$_Rotate@PAULink@BoxSpace@@HU12@@std@@YAXPAULink@BoxSpace@@00PAH0@Z ENDP ; std::_Rotate<BoxSpace::Link *,int,BoxSpace::Link>
_TEXT	ENDS
PUBLIC	??0?$_String_val@DV?$allocator@D@std@@@std@@QAE@V?$allocator@D@1@@Z ; std::_String_val<char,std::allocator<char> >::_String_val<char,std::allocator<char> >
; Function compile flags: /Ogsp
; File c:\program files (x86)\microsoft visual studio 10.0\vc\include\xstring
;	COMDAT ??0?$_String_val@DV?$allocator@D@std@@@std@@QAE@V?$allocator@D@1@@Z
_TEXT	SEGMENT
__Al$ = 8						; size = 1
??0?$_String_val@DV?$allocator@D@std@@@std@@QAE@V?$allocator@D@1@@Z PROC ; std::_String_val<char,std::allocator<char> >::_String_val<char,std::allocator<char> >, COMDAT
; _this$ = ecx

; 454  : 		{	// construct allocator from _Al

  00000	8b c1		 mov	 eax, ecx

; 455  : 		}

  00002	c2 04 00	 ret	 4
??0?$_String_val@DV?$allocator@D@std@@@std@@QAE@V?$allocator@D@1@@Z ENDP ; std::_String_val<char,std::allocator<char> >::_String_val<char,std::allocator<char> >
_TEXT	ENDS
PUBLIC	?_Eos@?$basic_string@DU?$char_traits@D@std@@V?$allocator@D@2@@std@@QAEXI@Z ; std::basic_string<char,std::char_traits<char>,std::allocator<char> >::_Eos
; Function compile flags: /Ogsp
;	COMDAT ?_Eos@?$basic_string@DU?$char_traits@D@std@@V?$allocator@D@2@@std@@QAEXI@Z
_TEXT	SEGMENT
__Newsize$ = 8						; size = 4
?_Eos@?$basic_string@DU?$char_traits@D@std@@V?$allocator@D@2@@std@@QAEXI@Z PROC ; std::basic_string<char,std::char_traits<char>,std::allocator<char> >::_Eos, COMDAT
; _this$ = ecx

; 1953 : 		{	// set new length and null terminator

  00000	55		 push	 ebp
  00001	8b ec		 mov	 ebp, esp

; 1954 : 		_Traits::assign(_Myptr()[this->_Mysize = _Newsize], _Elem());

  00003	83 79 14 10	 cmp	 DWORD PTR [ecx+20], 16	; 00000010H
  00007	8b 45 08	 mov	 eax, DWORD PTR __Newsize$[ebp]
  0000a	89 41 10	 mov	 DWORD PTR [ecx+16], eax
  0000d	72 02		 jb	 SHORT $LN5@Eos
  0000f	8b 09		 mov	 ecx, DWORD PTR [ecx]
$LN5@Eos:
  00011	c6 04 01 00	 mov	 BYTE PTR [ecx+eax], 0

; 1955 : 		}

  00015	5d		 pop	 ebp
  00016	c2 04 00	 ret	 4
?_Eos@?$basic_string@DU?$char_traits@D@std@@V?$allocator@D@2@@std@@QAEXI@Z ENDP ; std::basic_string<char,std::char_traits<char>,std::allocator<char> >::_Eos
_TEXT	ENDS
PUBLIC	??0?$_Vector_iterator@V?$_Vector_val@PAUTBlock@?$uni_heap@$0BE@$0IA@@@V?$allocator@PAUTBlock@?$uni_heap@$0BE@$0IA@@@@std@@@std@@@std@@QAE@XZ ; std::_Vector_iterator<std::_Vector_val<uni_heap<20,128>::TBlock *,std::allocator<uni_heap<20,128>::TBlock *> > >::_Vector_iterator<std::_Vector_val<uni_heap<20,128>::TBlock *,std::allocator<uni_heap<20,128>::TBlock *> > >
; Function compile flags: /Ogsp
; File c:\program files (x86)\microsoft visual studio 10.0\vc\include\vector
;	COMDAT ??0?$_Vector_iterator@V?$_Vector_val@PAUTBlock@?$uni_heap@$0BE@$0IA@@@V?$allocator@PAUTBlock@?$uni_heap@$0BE@$0IA@@@@std@@@std@@@std@@QAE@XZ
_TEXT	SEGMENT
??0?$_Vector_iterator@V?$_Vector_val@PAUTBlock@?$uni_heap@$0BE@$0IA@@@V?$allocator@PAUTBlock@?$uni_heap@$0BE@$0IA@@@@std@@@std@@@std@@QAE@XZ PROC ; std::_Vector_iterator<std::_Vector_val<uni_heap<20,128>::TBlock *,std::allocator<uni_heap<20,128>::TBlock *> > >::_Vector_iterator<std::_Vector_val<uni_heap<20,128>::TBlock *,std::allocator<uni_heap<20,128>::TBlock *> > >, COMDAT
; _this$ = ecx

; 298  : 	_Vector_iterator()

  00000	8b c1		 mov	 eax, ecx
  00002	83 20 00	 and	 DWORD PTR [eax], 0

; 299  : 		{	// construct with null vector pointer
; 300  : 		}

  00005	c3		 ret	 0
??0?$_Vector_iterator@V?$_Vector_val@PAUTBlock@?$uni_heap@$0BE@$0IA@@@V?$allocator@PAUTBlock@?$uni_heap@$0BE@$0IA@@@@std@@@std@@@std@@QAE@XZ ENDP ; std::_Vector_iterator<std::_Vector_val<uni_heap<20,128>::TBlock *,std::allocator<uni_heap<20,128>::TBlock *> > >::_Vector_iterator<std::_Vector_val<uni_heap<20,128>::TBlock *,std::allocator<uni_heap<20,128>::TBlock *> > >
_TEXT	ENDS
PUBLIC	??D?$_Vector_iterator@V?$_Vector_val@PAUTBlock@?$uni_heap@$0BE@$0IA@@@V?$allocator@PAUTBlock@?$uni_heap@$0BE@$0IA@@@@std@@@std@@@std@@QBEAAPAUTBlock@?$uni_heap@$0BE@$0IA@@@XZ ; std::_Vector_iterator<std::_Vector_val<uni_heap<20,128>::TBlock *,std::allocator<uni_heap<20,128>::TBlock *> > >::operator*
; Function compile flags: /Ogsp
;	COMDAT ??D?$_Vector_iterator@V?$_Vector_val@PAUTBlock@?$uni_heap@$0BE@$0IA@@@V?$allocator@PAUTBlock@?$uni_heap@$0BE@$0IA@@@@std@@@std@@@std@@QBEAAPAUTBlock@?$uni_heap@$0BE@$0IA@@@XZ
_TEXT	SEGMENT
??D?$_Vector_iterator@V?$_Vector_val@PAUTBlock@?$uni_heap@$0BE@$0IA@@@V?$allocator@PAUTBlock@?$uni_heap@$0BE@$0IA@@@@std@@@std@@@std@@QBEAAPAUTBlock@?$uni_heap@$0BE@$0IA@@@XZ PROC ; std::_Vector_iterator<std::_Vector_val<uni_heap<20,128>::TBlock *,std::allocator<uni_heap<20,128>::TBlock *> > >::operator*, COMDAT
; _this$ = ecx

; 322  : 		return ((reference)**(_Mybase *)this);

  00000	8b 01		 mov	 eax, DWORD PTR [ecx]

; 323  : 		}

  00002	c3		 ret	 0
??D?$_Vector_iterator@V?$_Vector_val@PAUTBlock@?$uni_heap@$0BE@$0IA@@@V?$allocator@PAUTBlock@?$uni_heap@$0BE@$0IA@@@@std@@@std@@@std@@QBEAAPAUTBlock@?$uni_heap@$0BE@$0IA@@@XZ ENDP ; std::_Vector_iterator<std::_Vector_val<uni_heap<20,128>::TBlock *,std::allocator<uni_heap<20,128>::TBlock *> > >::operator*
_TEXT	ENDS
PUBLIC	?max_size@?$basic_string@DU?$char_traits@D@std@@V?$allocator@D@2@@std@@QBEIXZ ; std::basic_string<char,std::char_traits<char>,std::allocator<char> >::max_size
; Function compile flags: /Ogsp
; File c:\program files (x86)\microsoft visual studio 10.0\vc\include\xstring
;	COMDAT ?max_size@?$basic_string@DU?$char_traits@D@std@@V?$allocator@D@2@@std@@QBEIXZ
_TEXT	SEGMENT
?max_size@?$basic_string@DU?$char_traits@D@std@@V?$allocator@D@2@@std@@QBEIXZ PROC ; std::basic_string<char,std::char_traits<char>,std::allocator<char> >::max_size, COMDAT
; _this$ = ecx

; 1517 : 		size_type _Num = this->_Alval.max_size();
; 1518 : 		return (_Num <= 1 ? 1 : _Num - 1);

  00000	6a fe		 push	 -2			; fffffffeH
  00002	58		 pop	 eax

; 1519 : 		}

  00003	c3		 ret	 0
?max_size@?$basic_string@DU?$char_traits@D@std@@V?$allocator@D@2@@std@@QBEIXZ ENDP ; std::basic_string<char,std::char_traits<char>,std::allocator<char> >::max_size
_TEXT	ENDS
PUBLIC	??0?$_Vector_iterator@V?$_Vector_val@PAUTBlock@?$uni_heap@$0BE@$0IA@@@V?$allocator@PAUTBlock@?$uni_heap@$0BE@$0IA@@@@std@@@std@@@std@@QAE@PAPAUTBlock@?$uni_heap@$0BE@$0IA@@@PBU_Container_base0@1@@Z ; std::_Vector_iterator<std::_Vector_val<uni_heap<20,128>::TBlock *,std::allocator<uni_heap<20,128>::TBlock *> > >::_Vector_iterator<std::_Vector_val<uni_heap<20,128>::TBlock *,std::allocator<uni_heap<20,128>::TBlock *> > >
; Function compile flags: /Ogsp
; File c:\program files (x86)\microsoft visual studio 10.0\vc\include\vector
;	COMDAT ??0?$_Vector_iterator@V?$_Vector_val@PAUTBlock@?$uni_heap@$0BE@$0IA@@@V?$allocator@PAUTBlock@?$uni_heap@$0BE@$0IA@@@@std@@@std@@@std@@QAE@PAPAUTBlock@?$uni_heap@$0BE@$0IA@@@PBU_Container_base0@1@@Z
_TEXT	SEGMENT
__Parg$ = 8						; size = 4
__Pvector$ = 12						; size = 4
??0?$_Vector_iterator@V?$_Vector_val@PAUTBlock@?$uni_heap@$0BE@$0IA@@@V?$allocator@PAUTBlock@?$uni_heap@$0BE@$0IA@@@@std@@@std@@@std@@QAE@PAPAUTBlock@?$uni_heap@$0BE@$0IA@@@PBU_Container_base0@1@@Z PROC ; std::_Vector_iterator<std::_Vector_val<uni_heap<20,128>::TBlock *,std::allocator<uni_heap<20,128>::TBlock *> > >::_Vector_iterator<std::_Vector_val<uni_heap<20,128>::TBlock *,std::allocator<uni_heap<20,128>::TBlock *> > >, COMDAT
; _this$ = ecx

; 304  : 		{	// construct with pointer _Parg

  00000	55		 push	 ebp
  00001	8b ec		 mov	 ebp, esp
  00003	8b c1		 mov	 eax, ecx
  00005	8b 4d 08	 mov	 ecx, DWORD PTR __Parg$[ebp]
  00008	89 08		 mov	 DWORD PTR [eax], ecx

; 305  : 		}

  0000a	5d		 pop	 ebp
  0000b	c2 08 00	 ret	 8
??0?$_Vector_iterator@V?$_Vector_val@PAUTBlock@?$uni_heap@$0BE@$0IA@@@V?$allocator@PAUTBlock@?$uni_heap@$0BE@$0IA@@@@std@@@std@@@std@@QAE@PAPAUTBlock@?$uni_heap@$0BE@$0IA@@@PBU_Container_base0@1@@Z ENDP ; std::_Vector_iterator<std::_Vector_val<uni_heap<20,128>::TBlock *,std::allocator<uni_heap<20,128>::TBlock *> > >::_Vector_iterator<std::_Vector_val<uni_heap<20,128>::TBlock *,std::allocator<uni_heap<20,128>::TBlock *> > >
_TEXT	ENDS
PUBLIC	??E?$_Vector_iterator@V?$_Vector_val@PAUTBlock@?$uni_heap@$0BE@$0IA@@@V?$allocator@PAUTBlock@?$uni_heap@$0BE@$0IA@@@@std@@@std@@@std@@QAEAAV01@XZ ; std::_Vector_iterator<std::_Vector_val<uni_heap<20,128>::TBlock *,std::allocator<uni_heap<20,128>::TBlock *> > >::operator++
; Function compile flags: /Ogsp
;	COMDAT ??E?$_Vector_iterator@V?$_Vector_val@PAUTBlock@?$uni_heap@$0BE@$0IA@@@V?$allocator@PAUTBlock@?$uni_heap@$0BE@$0IA@@@@std@@@std@@@std@@QAEAAV01@XZ
_TEXT	SEGMENT
??E?$_Vector_iterator@V?$_Vector_val@PAUTBlock@?$uni_heap@$0BE@$0IA@@@V?$allocator@PAUTBlock@?$uni_heap@$0BE@$0IA@@@@std@@@std@@@std@@QAEAAV01@XZ PROC ; std::_Vector_iterator<std::_Vector_val<uni_heap<20,128>::TBlock *,std::allocator<uni_heap<20,128>::TBlock *> > >::operator++, COMDAT
; _this$ = ecx

; 331  : 		{	// preincrement

  00000	8b c1		 mov	 eax, ecx

; 332  : 		++*(_Mybase *)this;

  00002	83 00 04	 add	 DWORD PTR [eax], 4

; 333  : 		return (*this);
; 334  : 		}

  00005	c3		 ret	 0
??E?$_Vector_iterator@V?$_Vector_val@PAUTBlock@?$uni_heap@$0BE@$0IA@@@V?$allocator@PAUTBlock@?$uni_heap@$0BE@$0IA@@@@std@@@std@@@std@@QAEAAV01@XZ ENDP ; std::_Vector_iterator<std::_Vector_val<uni_heap<20,128>::TBlock *,std::allocator<uni_heap<20,128>::TBlock *> > >::operator++
_TEXT	ENDS
PUBLIC	??8?$_Vector_const_iterator@V?$_Vector_val@PAUTBlock@?$uni_heap@$0BE@$0IA@@@V?$allocator@PAUTBlock@?$uni_heap@$0BE@$0IA@@@@std@@@std@@@std@@QBE_NABV01@@Z ; std::_Vector_const_iterator<std::_Vector_val<uni_heap<20,128>::TBlock *,std::allocator<uni_heap<20,128>::TBlock *> > >::operator==
; Function compile flags: /Ogsp
;	COMDAT ??8?$_Vector_const_iterator@V?$_Vector_val@PAUTBlock@?$uni_heap@$0BE@$0IA@@@V?$allocator@PAUTBlock@?$uni_heap@$0BE@$0IA@@@@std@@@std@@@std@@QBE_NABV01@@Z
_TEXT	SEGMENT
__Right$ = 8						; size = 4
??8?$_Vector_const_iterator@V?$_Vector_val@PAUTBlock@?$uni_heap@$0BE@$0IA@@@V?$allocator@PAUTBlock@?$uni_heap@$0BE@$0IA@@@@std@@@std@@@std@@QBE_NABV01@@Z PROC ; std::_Vector_const_iterator<std::_Vector_val<uni_heap<20,128>::TBlock *,std::allocator<uni_heap<20,128>::TBlock *> > >::operator==, COMDAT
; _this$ = ecx

; 201  : 		{	// test for iterator equality

  00000	55		 push	 ebp
  00001	8b ec		 mov	 ebp, esp

; 202  : 		_Compat(_Right);
; 203  : 		return (this->_Ptr == _Right._Ptr);

  00003	8b 01		 mov	 eax, DWORD PTR [ecx]
  00005	8b 4d 08	 mov	 ecx, DWORD PTR __Right$[ebp]
  00008	2b 01		 sub	 eax, DWORD PTR [ecx]
  0000a	f7 d8		 neg	 eax
  0000c	1b c0		 sbb	 eax, eax
  0000e	40		 inc	 eax

; 204  : 		}

  0000f	5d		 pop	 ebp
  00010	c2 04 00	 ret	 4
??8?$_Vector_const_iterator@V?$_Vector_val@PAUTBlock@?$uni_heap@$0BE@$0IA@@@V?$allocator@PAUTBlock@?$uni_heap@$0BE@$0IA@@@@std@@@std@@@std@@QBE_NABV01@@Z ENDP ; std::_Vector_const_iterator<std::_Vector_val<uni_heap<20,128>::TBlock *,std::allocator<uni_heap<20,128>::TBlock *> > >::operator==
_TEXT	ENDS
PUBLIC	?allocate@?$allocator@D@std@@QAEPADI@Z		; std::allocator<char>::allocate
; Function compile flags: /Ogsp
; File c:\program files (x86)\microsoft visual studio 10.0\vc\include\xmemory
;	COMDAT ?allocate@?$allocator@D@std@@QAEPADI@Z
_TEXT	SEGMENT
__Count$ = 8						; size = 4
?allocate@?$allocator@D@std@@QAEPADI@Z PROC		; std::allocator<char>::allocate, COMDAT
; _this$ = ecx

; 186  : 		{	// allocate array of _Count elements

  00000	55		 push	 ebp
  00001	8b ec		 mov	 ebp, esp

; 187  : 		return (_Allocate(_Count, (pointer)0));

  00003	6a 00		 push	 0
  00005	ff 75 08	 push	 DWORD PTR __Count$[ebp]
  00008	e8 00 00 00 00	 call	 ??$_Allocate@D@std@@YAPADIPAD@Z ; std::_Allocate<char>
  0000d	59		 pop	 ecx
  0000e	59		 pop	 ecx

; 188  : 		}

  0000f	5d		 pop	 ebp
  00010	c2 04 00	 ret	 4
?allocate@?$allocator@D@std@@QAEPADI@Z ENDP		; std::allocator<char>::allocate
_TEXT	ENDS
PUBLIC	?max_size@?$vector@PAUTBlock@?$uni_heap@$0BE@$0IA@@@V?$allocator@PAUTBlock@?$uni_heap@$0BE@$0IA@@@@std@@@std@@QBEIXZ ; std::vector<uni_heap<20,128>::TBlock *,std::allocator<uni_heap<20,128>::TBlock *> >::max_size
; Function compile flags: /Ogsp
; File c:\program files (x86)\microsoft visual studio 10.0\vc\include\vector
;	COMDAT ?max_size@?$vector@PAUTBlock@?$uni_heap@$0BE@$0IA@@@V?$allocator@PAUTBlock@?$uni_heap@$0BE@$0IA@@@@std@@@std@@QBEIXZ
_TEXT	SEGMENT
?max_size@?$vector@PAUTBlock@?$uni_heap@$0BE@$0IA@@@V?$allocator@PAUTBlock@?$uni_heap@$0BE@$0IA@@@@std@@@std@@QBEIXZ PROC ; std::vector<uni_heap<20,128>::TBlock *,std::allocator<uni_heap<20,128>::TBlock *> >::max_size, COMDAT
; _this$ = ecx

; 884  : 		return (this->_Alval.max_size());

  00000	b8 ff ff ff 3f	 mov	 eax, 1073741823		; 3fffffffH

; 885  : 		}

  00005	c3		 ret	 0
?max_size@?$vector@PAUTBlock@?$uni_heap@$0BE@$0IA@@@V?$allocator@PAUTBlock@?$uni_heap@$0BE@$0IA@@@@std@@@std@@QBEIXZ ENDP ; std::vector<uni_heap<20,128>::TBlock *,std::allocator<uni_heap<20,128>::TBlock *> >::max_size
_TEXT	ENDS
PUBLIC	?_Grow_to@?$vector@PAUTBlock@?$uni_heap@$0BE@$0IA@@@V?$allocator@PAUTBlock@?$uni_heap@$0BE@$0IA@@@@std@@@std@@IBEII@Z ; std::vector<uni_heap<20,128>::TBlock *,std::allocator<uni_heap<20,128>::TBlock *> >::_Grow_to
; Function compile flags: /Ogsp
;	COMDAT ?_Grow_to@?$vector@PAUTBlock@?$uni_heap@$0BE@$0IA@@@V?$allocator@PAUTBlock@?$uni_heap@$0BE@$0IA@@@@std@@@std@@IBEII@Z
_TEXT	SEGMENT
__Count$ = 8						; size = 4
?_Grow_to@?$vector@PAUTBlock@?$uni_heap@$0BE@$0IA@@@V?$allocator@PAUTBlock@?$uni_heap@$0BE@$0IA@@@@std@@@std@@IBEII@Z PROC ; std::vector<uni_heap<20,128>::TBlock *,std::allocator<uni_heap<20,128>::TBlock *> >::_Grow_to, COMDAT
; _this$ = ecx

; 1274 : 		{	// grow by 50% or at least to _Count

  00000	55		 push	 ebp
  00001	8b ec		 mov	 ebp, esp

; 1275 : 		size_type _Capacity = capacity();

  00003	8b 41 08	 mov	 eax, DWORD PTR [ecx+8]
  00006	2b 01		 sub	 eax, DWORD PTR [ecx]

; 1276 : 
; 1277 : 		_Capacity = max_size() - _Capacity / 2 < _Capacity
; 1278 : 			? 0 : _Capacity + _Capacity / 2;	// try to grow by 50%

  00008	ba ff ff ff 3f	 mov	 edx, 1073741823		; 3fffffffH
  0000d	c1 f8 02	 sar	 eax, 2
  00010	8b c8		 mov	 ecx, eax
  00012	d1 e9		 shr	 ecx, 1
  00014	2b d1		 sub	 edx, ecx
  00016	3b d0		 cmp	 edx, eax
  00018	73 04		 jae	 SHORT $LN4@Grow_to@6
  0001a	33 c0		 xor	 eax, eax
  0001c	eb 02		 jmp	 SHORT $LN5@Grow_to@6
$LN4@Grow_to@6:
  0001e	03 c1		 add	 eax, ecx
$LN5@Grow_to@6:

; 1279 : 		if (_Capacity < _Count)

  00020	3b 45 08	 cmp	 eax, DWORD PTR __Count$[ebp]

; 1280 : 			_Capacity = _Count;

  00023	0f 42 45 08	 cmovb	 eax, DWORD PTR __Count$[ebp]

; 1281 : 		return (_Capacity);
; 1282 : 		}

  00027	5d		 pop	 ebp
  00028	c2 04 00	 ret	 4
?_Grow_to@?$vector@PAUTBlock@?$uni_heap@$0BE@$0IA@@@V?$allocator@PAUTBlock@?$uni_heap@$0BE@$0IA@@@@std@@@std@@IBEII@Z ENDP ; std::vector<uni_heap<20,128>::TBlock *,std::allocator<uni_heap<20,128>::TBlock *> >::_Grow_to
_TEXT	ENDS
PUBLIC	??0?$_Vector_iterator@V?$_Vector_val@PBQAUBox@BoxSpace@@V?$allocator@PBQAUBox@BoxSpace@@@std@@@std@@@std@@QAE@PAPBQAUBox@BoxSpace@@PBU_Container_base0@1@@Z ; std::_Vector_iterator<std::_Vector_val<BoxSpace::Box * const *,std::allocator<BoxSpace::Box * const *> > >::_Vector_iterator<std::_Vector_val<BoxSpace::Box * const *,std::allocator<BoxSpace::Box * const *> > >
; Function compile flags: /Ogsp
;	COMDAT ??0?$_Vector_iterator@V?$_Vector_val@PBQAUBox@BoxSpace@@V?$allocator@PBQAUBox@BoxSpace@@@std@@@std@@@std@@QAE@PAPBQAUBox@BoxSpace@@PBU_Container_base0@1@@Z
_TEXT	SEGMENT
__Parg$ = 8						; size = 4
__Pvector$ = 12						; size = 4
??0?$_Vector_iterator@V?$_Vector_val@PBQAUBox@BoxSpace@@V?$allocator@PBQAUBox@BoxSpace@@@std@@@std@@@std@@QAE@PAPBQAUBox@BoxSpace@@PBU_Container_base0@1@@Z PROC ; std::_Vector_iterator<std::_Vector_val<BoxSpace::Box * const *,std::allocator<BoxSpace::Box * const *> > >::_Vector_iterator<std::_Vector_val<BoxSpace::Box * const *,std::allocator<BoxSpace::Box * const *> > >, COMDAT
; _this$ = ecx

; 304  : 		{	// construct with pointer _Parg

  00000	55		 push	 ebp
  00001	8b ec		 mov	 ebp, esp
  00003	8b c1		 mov	 eax, ecx
  00005	8b 4d 08	 mov	 ecx, DWORD PTR __Parg$[ebp]
  00008	89 08		 mov	 DWORD PTR [eax], ecx

; 305  : 		}

  0000a	5d		 pop	 ebp
  0000b	c2 08 00	 ret	 8
??0?$_Vector_iterator@V?$_Vector_val@PBQAUBox@BoxSpace@@V?$allocator@PBQAUBox@BoxSpace@@@std@@@std@@@std@@QAE@PAPBQAUBox@BoxSpace@@PBU_Container_base0@1@@Z ENDP ; std::_Vector_iterator<std::_Vector_val<BoxSpace::Box * const *,std::allocator<BoxSpace::Box * const *> > >::_Vector_iterator<std::_Vector_val<BoxSpace::Box * const *,std::allocator<BoxSpace::Box * const *> > >
_TEXT	ENDS
PUBLIC	?allocate@?$allocator@PAUTBlock@?$uni_heap@$0BE@$0IA@@@@std@@QAEPAPAUTBlock@?$uni_heap@$0BE@$0IA@@@I@Z ; std::allocator<uni_heap<20,128>::TBlock *>::allocate
; Function compile flags: /Ogsp
; File c:\program files (x86)\microsoft visual studio 10.0\vc\include\xmemory
;	COMDAT ?allocate@?$allocator@PAUTBlock@?$uni_heap@$0BE@$0IA@@@@std@@QAEPAPAUTBlock@?$uni_heap@$0BE@$0IA@@@I@Z
_TEXT	SEGMENT
__Count$ = 8						; size = 4
?allocate@?$allocator@PAUTBlock@?$uni_heap@$0BE@$0IA@@@@std@@QAEPAPAUTBlock@?$uni_heap@$0BE@$0IA@@@I@Z PROC ; std::allocator<uni_heap<20,128>::TBlock *>::allocate, COMDAT
; _this$ = ecx

; 186  : 		{	// allocate array of _Count elements

  00000	55		 push	 ebp
  00001	8b ec		 mov	 ebp, esp

; 187  : 		return (_Allocate(_Count, (pointer)0));

  00003	6a 00		 push	 0
  00005	ff 75 08	 push	 DWORD PTR __Count$[ebp]
  00008	e8 00 00 00 00	 call	 ??$_Allocate@PAUTBlock@?$uni_heap@$0BE@$0IA@@@@std@@YAPAPAUTBlock@?$uni_heap@$0BE@$0IA@@@IPAPAU12@@Z ; std::_Allocate<uni_heap<20,128>::TBlock *>
  0000d	59		 pop	 ecx
  0000e	59		 pop	 ecx

; 188  : 		}

  0000f	5d		 pop	 ebp
  00010	c2 04 00	 ret	 4
?allocate@?$allocator@PAUTBlock@?$uni_heap@$0BE@$0IA@@@@std@@QAEPAPAUTBlock@?$uni_heap@$0BE@$0IA@@@I@Z ENDP ; std::allocator<uni_heap<20,128>::TBlock *>::allocate
_TEXT	ENDS
PUBLIC	??8?$_Vector_const_iterator@V?$_Vector_val@PBQAUBox@BoxSpace@@V?$allocator@PBQAUBox@BoxSpace@@@std@@@std@@@std@@QBE_NABV01@@Z ; std::_Vector_const_iterator<std::_Vector_val<BoxSpace::Box * const *,std::allocator<BoxSpace::Box * const *> > >::operator==
; Function compile flags: /Ogsp
; File c:\program files (x86)\microsoft visual studio 10.0\vc\include\vector
;	COMDAT ??8?$_Vector_const_iterator@V?$_Vector_val@PBQAUBox@BoxSpace@@V?$allocator@PBQAUBox@BoxSpace@@@std@@@std@@@std@@QBE_NABV01@@Z
_TEXT	SEGMENT
__Right$ = 8						; size = 4
??8?$_Vector_const_iterator@V?$_Vector_val@PBQAUBox@BoxSpace@@V?$allocator@PBQAUBox@BoxSpace@@@std@@@std@@@std@@QBE_NABV01@@Z PROC ; std::_Vector_const_iterator<std::_Vector_val<BoxSpace::Box * const *,std::allocator<BoxSpace::Box * const *> > >::operator==, COMDAT
; _this$ = ecx

; 201  : 		{	// test for iterator equality

  00000	55		 push	 ebp
  00001	8b ec		 mov	 ebp, esp

; 202  : 		_Compat(_Right);
; 203  : 		return (this->_Ptr == _Right._Ptr);

  00003	8b 01		 mov	 eax, DWORD PTR [ecx]
  00005	8b 4d 08	 mov	 ecx, DWORD PTR __Right$[ebp]
  00008	2b 01		 sub	 eax, DWORD PTR [ecx]
  0000a	f7 d8		 neg	 eax
  0000c	1b c0		 sbb	 eax, eax
  0000e	40		 inc	 eax

; 204  : 		}

  0000f	5d		 pop	 ebp
  00010	c2 04 00	 ret	 4
??8?$_Vector_const_iterator@V?$_Vector_val@PBQAUBox@BoxSpace@@V?$allocator@PBQAUBox@BoxSpace@@@std@@@std@@@std@@QBE_NABV01@@Z ENDP ; std::_Vector_const_iterator<std::_Vector_val<BoxSpace::Box * const *,std::allocator<BoxSpace::Box * const *> > >::operator==
_TEXT	ENDS
PUBLIC	??0?$_Vector_iterator@V?$_Vector_val@PAUDNode@?$AStarSearcher@VBoxSpace@@PAUBox@1@@@V?$allocator@PAUDNode@?$AStarSearcher@VBoxSpace@@PAUBox@1@@@@std@@@std@@@std@@QAE@PAPAUDNode@?$AStarSearcher@VBoxSpace@@PAUBox@1@@@PBU_Container_base0@1@@Z ; std::_Vector_iterator<std::_Vector_val<AStarSearcher<BoxSpace,BoxSpace::Box *>::DNode *,std::allocator<AStarSearcher<BoxSpace,BoxSpace::Box *>::DNode *> > >::_Vector_iterator<std::_Vector_val<AStarSearcher<BoxSpace,BoxSpace::Box *>::DNode *,std::allocator<AStarSearcher<BoxSpace,BoxSpace::Box *>::DNode *> > >
; Function compile flags: /Ogsp
;	COMDAT ??0?$_Vector_iterator@V?$_Vector_val@PAUDNode@?$AStarSearcher@VBoxSpace@@PAUBox@1@@@V?$allocator@PAUDNode@?$AStarSearcher@VBoxSpace@@PAUBox@1@@@@std@@@std@@@std@@QAE@PAPAUDNode@?$AStarSearcher@VBoxSpace@@PAUBox@1@@@PBU_Container_base0@1@@Z
_TEXT	SEGMENT
__Parg$ = 8						; size = 4
__Pvector$ = 12						; size = 4
??0?$_Vector_iterator@V?$_Vector_val@PAUDNode@?$AStarSearcher@VBoxSpace@@PAUBox@1@@@V?$allocator@PAUDNode@?$AStarSearcher@VBoxSpace@@PAUBox@1@@@@std@@@std@@@std@@QAE@PAPAUDNode@?$AStarSearcher@VBoxSpace@@PAUBox@1@@@PBU_Container_base0@1@@Z PROC ; std::_Vector_iterator<std::_Vector_val<AStarSearcher<BoxSpace,BoxSpace::Box *>::DNode *,std::allocator<AStarSearcher<BoxSpace,BoxSpace::Box *>::DNode *> > >::_Vector_iterator<std::_Vector_val<AStarSearcher<BoxSpace,BoxSpace::Box *>::DNode *,std::allocator<AStarSearcher<BoxSpace,BoxSpace::Box *>::DNode *> > >, COMDAT
; _this$ = ecx

; 304  : 		{	// construct with pointer _Parg

  00000	55		 push	 ebp
  00001	8b ec		 mov	 ebp, esp
  00003	8b c1		 mov	 eax, ecx
  00005	8b 4d 08	 mov	 ecx, DWORD PTR __Parg$[ebp]
  00008	89 08		 mov	 DWORD PTR [eax], ecx

; 305  : 		}

  0000a	5d		 pop	 ebp
  0000b	c2 08 00	 ret	 8
??0?$_Vector_iterator@V?$_Vector_val@PAUDNode@?$AStarSearcher@VBoxSpace@@PAUBox@1@@@V?$allocator@PAUDNode@?$AStarSearcher@VBoxSpace@@PAUBox@1@@@@std@@@std@@@std@@QAE@PAPAUDNode@?$AStarSearcher@VBoxSpace@@PAUBox@1@@@PBU_Container_base0@1@@Z ENDP ; std::_Vector_iterator<std::_Vector_val<AStarSearcher<BoxSpace,BoxSpace::Box *>::DNode *,std::allocator<AStarSearcher<BoxSpace,BoxSpace::Box *>::DNode *> > >::_Vector_iterator<std::_Vector_val<AStarSearcher<BoxSpace,BoxSpace::Box *>::DNode *,std::allocator<AStarSearcher<BoxSpace,BoxSpace::Box *>::DNode *> > >
_TEXT	ENDS
PUBLIC	?_Make_iter@?$vector@PAUTBlock@?$uni_heap@$0BE@$0IA@@@V?$allocator@PAUTBlock@?$uni_heap@$0BE@$0IA@@@@std@@@std@@QBE?AV?$_Vector_iterator@V?$_Vector_val@PAUTBlock@?$uni_heap@$0BE@$0IA@@@V?$allocator@PAUTBlock@?$uni_heap@$0BE@$0IA@@@@std@@@std@@@2@V?$_Vector_const_iterator@V?$_Vector_val@PAUTBlock@?$uni_heap@$0BE@$0IA@@@V?$allocator@PAUTBlock@?$uni_heap@$0BE@$0IA@@@@std@@@std@@@2@@Z ; std::vector<uni_heap<20,128>::TBlock *,std::allocator<uni_heap<20,128>::TBlock *> >::_Make_iter
; Function compile flags: /Ogsp
;	COMDAT ?_Make_iter@?$vector@PAUTBlock@?$uni_heap@$0BE@$0IA@@@V?$allocator@PAUTBlock@?$uni_heap@$0BE@$0IA@@@@std@@@std@@QBE?AV?$_Vector_iterator@V?$_Vector_val@PAUTBlock@?$uni_heap@$0BE@$0IA@@@V?$allocator@PAUTBlock@?$uni_heap@$0BE@$0IA@@@@std@@@std@@@2@V?$_Vector_const_iterator@V?$_Vector_val@PAUTBlock@?$uni_heap@$0BE@$0IA@@@V?$allocator@PAUTBlock@?$uni_heap@$0BE@$0IA@@@@std@@@std@@@2@@Z
_TEXT	SEGMENT
___$ReturnUdt$ = 8					; size = 4
__Where$ = 12						; size = 4
?_Make_iter@?$vector@PAUTBlock@?$uni_heap@$0BE@$0IA@@@V?$allocator@PAUTBlock@?$uni_heap@$0BE@$0IA@@@@std@@@std@@QBE?AV?$_Vector_iterator@V?$_Vector_val@PAUTBlock@?$uni_heap@$0BE@$0IA@@@V?$allocator@PAUTBlock@?$uni_heap@$0BE@$0IA@@@@std@@@std@@@2@V?$_Vector_const_iterator@V?$_Vector_val@PAUTBlock@?$uni_heap@$0BE@$0IA@@@V?$allocator@PAUTBlock@?$uni_heap@$0BE@$0IA@@@@std@@@std@@@2@@Z PROC ; std::vector<uni_heap<20,128>::TBlock *,std::allocator<uni_heap<20,128>::TBlock *> >::_Make_iter, COMDAT
; _this$ = ecx

; 801  : 		{	// make iterator from const_iterator

  00000	55		 push	 ebp
  00001	8b ec		 mov	 ebp, esp

; 802  : 		return (iterator(_Where._Ptr, this));

  00003	8b 45 08	 mov	 eax, DWORD PTR ___$ReturnUdt$[ebp]
  00006	8b 4d 0c	 mov	 ecx, DWORD PTR __Where$[ebp]
  00009	89 08		 mov	 DWORD PTR [eax], ecx

; 803  : 		}

  0000b	5d		 pop	 ebp
  0000c	c2 08 00	 ret	 8
?_Make_iter@?$vector@PAUTBlock@?$uni_heap@$0BE@$0IA@@@V?$allocator@PAUTBlock@?$uni_heap@$0BE@$0IA@@@@std@@@std@@QBE?AV?$_Vector_iterator@V?$_Vector_val@PAUTBlock@?$uni_heap@$0BE@$0IA@@@V?$allocator@PAUTBlock@?$uni_heap@$0BE@$0IA@@@@std@@@std@@@2@V?$_Vector_const_iterator@V?$_Vector_val@PAUTBlock@?$uni_heap@$0BE@$0IA@@@V?$allocator@PAUTBlock@?$uni_heap@$0BE@$0IA@@@@std@@@std@@@2@@Z ENDP ; std::vector<uni_heap<20,128>::TBlock *,std::allocator<uni_heap<20,128>::TBlock *> >::_Make_iter
_TEXT	ENDS
PUBLIC	??8?$_Vector_const_iterator@V?$_Vector_val@PAUDNode@?$AStarSearcher@VBoxSpace@@PAUBox@1@@@V?$allocator@PAUDNode@?$AStarSearcher@VBoxSpace@@PAUBox@1@@@@std@@@std@@@std@@QBE_NABV01@@Z ; std::_Vector_const_iterator<std::_Vector_val<AStarSearcher<BoxSpace,BoxSpace::Box *>::DNode *,std::allocator<AStarSearcher<BoxSpace,BoxSpace::Box *>::DNode *> > >::operator==
; Function compile flags: /Ogsp
;	COMDAT ??8?$_Vector_const_iterator@V?$_Vector_val@PAUDNode@?$AStarSearcher@VBoxSpace@@PAUBox@1@@@V?$allocator@PAUDNode@?$AStarSearcher@VBoxSpace@@PAUBox@1@@@@std@@@std@@@std@@QBE_NABV01@@Z
_TEXT	SEGMENT
__Right$ = 8						; size = 4
??8?$_Vector_const_iterator@V?$_Vector_val@PAUDNode@?$AStarSearcher@VBoxSpace@@PAUBox@1@@@V?$allocator@PAUDNode@?$AStarSearcher@VBoxSpace@@PAUBox@1@@@@std@@@std@@@std@@QBE_NABV01@@Z PROC ; std::_Vector_const_iterator<std::_Vector_val<AStarSearcher<BoxSpace,BoxSpace::Box *>::DNode *,std::allocator<AStarSearcher<BoxSpace,BoxSpace::Box *>::DNode *> > >::operator==, COMDAT
; _this$ = ecx

; 201  : 		{	// test for iterator equality

  00000	55		 push	 ebp
  00001	8b ec		 mov	 ebp, esp

; 202  : 		_Compat(_Right);
; 203  : 		return (this->_Ptr == _Right._Ptr);

  00003	8b 01		 mov	 eax, DWORD PTR [ecx]
  00005	8b 4d 08	 mov	 ecx, DWORD PTR __Right$[ebp]
  00008	2b 01		 sub	 eax, DWORD PTR [ecx]
  0000a	f7 d8		 neg	 eax
  0000c	1b c0		 sbb	 eax, eax
  0000e	40		 inc	 eax

; 204  : 		}

  0000f	5d		 pop	 ebp
  00010	c2 04 00	 ret	 4
??8?$_Vector_const_iterator@V?$_Vector_val@PAUDNode@?$AStarSearcher@VBoxSpace@@PAUBox@1@@@V?$allocator@PAUDNode@?$AStarSearcher@VBoxSpace@@PAUBox@1@@@@std@@@std@@@std@@QBE_NABV01@@Z ENDP ; std::_Vector_const_iterator<std::_Vector_val<AStarSearcher<BoxSpace,BoxSpace::Box *>::DNode *,std::allocator<AStarSearcher<BoxSpace,BoxSpace::Box *>::DNode *> > >::operator==
_TEXT	ENDS
PUBLIC	??$?9DD@std@@YA_NABV?$allocator@D@0@0@Z		; std::operator!=<char,char>
; Function compile flags: /Ogsp
; File c:\program files (x86)\microsoft visual studio 10.0\vc\include\xmemory
;	COMDAT ??$?9DD@std@@YA_NABV?$allocator@D@0@0@Z
_TEXT	SEGMENT
__Left$ = 8						; size = 4
__Right$ = 12						; size = 4
??$?9DD@std@@YA_NABV?$allocator@D@0@0@Z PROC		; std::operator!=<char,char>, COMDAT

; 271  : 	return (!(_Left == _Right));

  00000	32 c0		 xor	 al, al

; 272  : 	}

  00002	c3		 ret	 0
??$?9DD@std@@YA_NABV?$allocator@D@0@0@Z ENDP		; std::operator!=<char,char>
_TEXT	ENDS
PUBLIC	??$_Destroy_range@V?$allocator@F@std@@@std@@YAXPAF0AAV?$allocator@F@0@@Z ; std::_Destroy_range<std::allocator<short> >
; Function compile flags: /Ogsp
;	COMDAT ??$_Destroy_range@V?$allocator@F@std@@@std@@YAXPAF0AAV?$allocator@F@0@@Z
_TEXT	SEGMENT
__First$ = 8						; size = 4
__Last$ = 12						; size = 4
__Al$ = 16						; size = 4
??$_Destroy_range@V?$allocator@F@std@@@std@@YAXPAF0AAV?$allocator@F@0@@Z PROC ; std::_Destroy_range<std::allocator<short> >, COMDAT

; 88   : 	_Destroy_range(_First, _Last, _Al, _Ptr_cat(_First, _Last));
; 89   : 	}

  00000	c3		 ret	 0
??$_Destroy_range@V?$allocator@F@std@@@std@@YAXPAF0AAV?$allocator@F@0@@Z ENDP ; std::_Destroy_range<std::allocator<short> >
_TEXT	ENDS
PUBLIC	??$_Cons_val@V?$allocator@PAUTBlock@?$uni_heap@$0BE@$0IA@@@@std@@PAUTBlock@?$uni_heap@$0BE@$0IA@@@PAU34@@std@@YAXAAV?$allocator@PAUTBlock@?$uni_heap@$0BE@$0IA@@@@0@PAPAUTBlock@?$uni_heap@$0BE@$0IA@@@$$QAPAU23@@Z ; std::_Cons_val<std::allocator<uni_heap<20,128>::TBlock *>,uni_heap<20,128>::TBlock *,uni_heap<20,128>::TBlock *>
; Function compile flags: /Ogsp
;	COMDAT ??$_Cons_val@V?$allocator@PAUTBlock@?$uni_heap@$0BE@$0IA@@@@std@@PAUTBlock@?$uni_heap@$0BE@$0IA@@@PAU34@@std@@YAXAAV?$allocator@PAUTBlock@?$uni_heap@$0BE@$0IA@@@@0@PAPAUTBlock@?$uni_heap@$0BE@$0IA@@@$$QAPAU23@@Z
_TEXT	SEGMENT
__Alval$ = 8						; size = 4
__Pdest$ = 12						; size = 4
__Src$ = 16						; size = 4
??$_Cons_val@V?$allocator@PAUTBlock@?$uni_heap@$0BE@$0IA@@@@std@@PAUTBlock@?$uni_heap@$0BE@$0IA@@@PAU34@@std@@YAXAAV?$allocator@PAUTBlock@?$uni_heap@$0BE@$0IA@@@@0@PAPAUTBlock@?$uni_heap@$0BE@$0IA@@@$$QAPAU23@@Z PROC ; std::_Cons_val<std::allocator<uni_heap<20,128>::TBlock *>,uni_heap<20,128>::TBlock *,uni_heap<20,128>::TBlock *>, COMDAT

; 279  : 	{	// construct using allocator

  00000	55		 push	 ebp
  00001	8b ec		 mov	 ebp, esp

; 280  : 	_Alval.construct(_Pdest, _STD forward<_Ty2>(_Src));

  00003	8b 45 0c	 mov	 eax, DWORD PTR __Pdest$[ebp]
  00006	85 c0		 test	 eax, eax
  00008	74 07		 je	 SHORT $LN7@Cons_val@6
  0000a	8b 4d 10	 mov	 ecx, DWORD PTR __Src$[ebp]
  0000d	8b 09		 mov	 ecx, DWORD PTR [ecx]
  0000f	89 08		 mov	 DWORD PTR [eax], ecx
$LN7@Cons_val@6:

; 281  : 	}

  00011	5d		 pop	 ebp
  00012	c3		 ret	 0
??$_Cons_val@V?$allocator@PAUTBlock@?$uni_heap@$0BE@$0IA@@@@std@@PAUTBlock@?$uni_heap@$0BE@$0IA@@@PAU34@@std@@YAXAAV?$allocator@PAUTBlock@?$uni_heap@$0BE@$0IA@@@@0@PAPAUTBlock@?$uni_heap@$0BE@$0IA@@@$$QAPAU23@@Z ENDP ; std::_Cons_val<std::allocator<uni_heap<20,128>::TBlock *>,uni_heap<20,128>::TBlock *,uni_heap<20,128>::TBlock *>
_TEXT	ENDS
PUBLIC	??$_Destroy_range@V?$allocator@PAUDNode@?$AStarSearcher@VBoxSpace@@PAUBox@1@@@@std@@@std@@YAXPAPAUDNode@?$AStarSearcher@VBoxSpace@@PAUBox@1@@@0AAV?$allocator@PAUDNode@?$AStarSearcher@VBoxSpace@@PAUBox@1@@@@0@@Z ; std::_Destroy_range<std::allocator<AStarSearcher<BoxSpace,BoxSpace::Box *>::DNode *> >
; Function compile flags: /Ogsp
;	COMDAT ??$_Destroy_range@V?$allocator@PAUDNode@?$AStarSearcher@VBoxSpace@@PAUBox@1@@@@std@@@std@@YAXPAPAUDNode@?$AStarSearcher@VBoxSpace@@PAUBox@1@@@0AAV?$allocator@PAUDNode@?$AStarSearcher@VBoxSpace@@PAUBox@1@@@@0@@Z
_TEXT	SEGMENT
__First$ = 8						; size = 4
__Last$ = 12						; size = 4
__Al$ = 16						; size = 4
??$_Destroy_range@V?$allocator@PAUDNode@?$AStarSearcher@VBoxSpace@@PAUBox@1@@@@std@@@std@@YAXPAPAUDNode@?$AStarSearcher@VBoxSpace@@PAUBox@1@@@0AAV?$allocator@PAUDNode@?$AStarSearcher@VBoxSpace@@PAUBox@1@@@@0@@Z PROC ; std::_Destroy_range<std::allocator<AStarSearcher<BoxSpace,BoxSpace::Box *>::DNode *> >, COMDAT

; 88   : 	_Destroy_range(_First, _Last, _Al, _Ptr_cat(_First, _Last));
; 89   : 	}

  00000	c3		 ret	 0
??$_Destroy_range@V?$allocator@PAUDNode@?$AStarSearcher@VBoxSpace@@PAUBox@1@@@@std@@@std@@YAXPAPAUDNode@?$AStarSearcher@VBoxSpace@@PAUBox@1@@@0AAV?$allocator@PAUDNode@?$AStarSearcher@VBoxSpace@@PAUBox@1@@@@0@@Z ENDP ; std::_Destroy_range<std::allocator<AStarSearcher<BoxSpace,BoxSpace::Box *>::DNode *> >
_TEXT	ENDS
PUBLIC	??$_Move@PAPBQAUBox@BoxSpace@@PAPBQAU12@@std@@YAPAPBQAUBox@BoxSpace@@PAPBQAU12@00@Z ; std::_Move<BoxSpace::Box * const * *,BoxSpace::Box * const * *>
; Function compile flags: /Ogsp
; File c:\program files (x86)\microsoft visual studio 10.0\vc\include\xutility
;	COMDAT ??$_Move@PAPBQAUBox@BoxSpace@@PAPBQAU12@@std@@YAPAPBQAUBox@BoxSpace@@PAPBQAU12@00@Z
_TEXT	SEGMENT
__Cat$511894 = -4					; size = 1
__First$ = 8						; size = 4
__Last$ = 12						; size = 4
__Dest$ = 16						; size = 4
??$_Move@PAPBQAUBox@BoxSpace@@PAPBQAU12@@std@@YAPAPBQAUBox@BoxSpace@@PAPBQAU12@00@Z PROC ; std::_Move<BoxSpace::Box * const * *,BoxSpace::Box * const * *>, COMDAT

; 2533 : 	{	// move [_First, _Last) to [_Dest, ...), unchecked

  00000	55		 push	 ebp
  00001	8b ec		 mov	 ebp, esp
  00003	51		 push	 ecx

; 2534 : 	return (_Move(_First, _Last,
; 2535 : 		_Dest, _Ptr_cat(_First, _Dest)));

  00004	ff 75 fc	 push	 DWORD PTR __Cat$511894[ebp]
  00007	ff 75 10	 push	 DWORD PTR __Dest$[ebp]
  0000a	ff 75 0c	 push	 DWORD PTR __Last$[ebp]
  0000d	ff 75 08	 push	 DWORD PTR __First$[ebp]
  00010	e8 00 00 00 00	 call	 ??$_Move@PAPBQAUBox@BoxSpace@@PAPBQAU12@@std@@YAPAPBQAUBox@BoxSpace@@PAPBQAU12@00U_Scalar_ptr_iterator_tag@0@@Z ; std::_Move<BoxSpace::Box * const * *,BoxSpace::Box * const * *>
  00015	83 c4 10	 add	 esp, 16			; 00000010H

; 2536 : 	}

  00018	c9		 leave
  00019	c3		 ret	 0
??$_Move@PAPBQAUBox@BoxSpace@@PAPBQAU12@@std@@YAPAPBQAUBox@BoxSpace@@PAPBQAU12@00@Z ENDP ; std::_Move<BoxSpace::Box * const * *,BoxSpace::Box * const * *>
_TEXT	ENDS
PUBLIC	??$_Destroy_range@V?$allocator@PBQAUBox@BoxSpace@@@std@@@std@@YAXPAPBQAUBox@BoxSpace@@0AAV?$allocator@PBQAUBox@BoxSpace@@@0@@Z ; std::_Destroy_range<std::allocator<BoxSpace::Box * const *> >
; Function compile flags: /Ogsp
; File c:\program files (x86)\microsoft visual studio 10.0\vc\include\xmemory
;	COMDAT ??$_Destroy_range@V?$allocator@PBQAUBox@BoxSpace@@@std@@@std@@YAXPAPBQAUBox@BoxSpace@@0AAV?$allocator@PBQAUBox@BoxSpace@@@0@@Z
_TEXT	SEGMENT
__First$ = 8						; size = 4
__Last$ = 12						; size = 4
__Al$ = 16						; size = 4
??$_Destroy_range@V?$allocator@PBQAUBox@BoxSpace@@@std@@@std@@YAXPAPBQAUBox@BoxSpace@@0AAV?$allocator@PBQAUBox@BoxSpace@@@0@@Z PROC ; std::_Destroy_range<std::allocator<BoxSpace::Box * const *> >, COMDAT

; 88   : 	_Destroy_range(_First, _Last, _Al, _Ptr_cat(_First, _Last));
; 89   : 	}

  00000	c3		 ret	 0
??$_Destroy_range@V?$allocator@PBQAUBox@BoxSpace@@@std@@@std@@YAXPAPBQAUBox@BoxSpace@@0AAV?$allocator@PBQAUBox@BoxSpace@@@0@@Z ENDP ; std::_Destroy_range<std::allocator<BoxSpace::Box * const *> >
_TEXT	ENDS
PUBLIC	??$_Destroy_range@V?$allocator@PAUTBlock@?$uni_heap@$0BE@$0IA@@@@std@@@std@@YAXPAPAUTBlock@?$uni_heap@$0BE@$0IA@@@0AAV?$allocator@PAUTBlock@?$uni_heap@$0BE@$0IA@@@@0@@Z ; std::_Destroy_range<std::allocator<uni_heap<20,128>::TBlock *> >
; Function compile flags: /Ogsp
;	COMDAT ??$_Destroy_range@V?$allocator@PAUTBlock@?$uni_heap@$0BE@$0IA@@@@std@@@std@@YAXPAPAUTBlock@?$uni_heap@$0BE@$0IA@@@0AAV?$allocator@PAUTBlock@?$uni_heap@$0BE@$0IA@@@@0@@Z
_TEXT	SEGMENT
__First$ = 8						; size = 4
__Last$ = 12						; size = 4
__Al$ = 16						; size = 4
??$_Destroy_range@V?$allocator@PAUTBlock@?$uni_heap@$0BE@$0IA@@@@std@@@std@@YAXPAPAUTBlock@?$uni_heap@$0BE@$0IA@@@0AAV?$allocator@PAUTBlock@?$uni_heap@$0BE@$0IA@@@@0@@Z PROC ; std::_Destroy_range<std::allocator<uni_heap<20,128>::TBlock *> >, COMDAT

; 88   : 	_Destroy_range(_First, _Last, _Al, _Ptr_cat(_First, _Last));
; 89   : 	}

  00000	c3		 ret	 0
??$_Destroy_range@V?$allocator@PAUTBlock@?$uni_heap@$0BE@$0IA@@@@std@@@std@@YAXPAPAUTBlock@?$uni_heap@$0BE@$0IA@@@0AAV?$allocator@PAUTBlock@?$uni_heap@$0BE@$0IA@@@@0@@Z ENDP ; std::_Destroy_range<std::allocator<uni_heap<20,128>::TBlock *> >
_TEXT	ENDS
PUBLIC	??$_Move@PAPAUDNode@?$AStarSearcher@VBoxSpace@@PAUBox@1@@@PAPAU12@@std@@YAPAPAUDNode@?$AStarSearcher@VBoxSpace@@PAUBox@1@@@PAPAU12@00@Z ; std::_Move<AStarSearcher<BoxSpace,BoxSpace::Box *>::DNode * *,AStarSearcher<BoxSpace,BoxSpace::Box *>::DNode * *>
; Function compile flags: /Ogsp
; File c:\program files (x86)\microsoft visual studio 10.0\vc\include\xutility
;	COMDAT ??$_Move@PAPAUDNode@?$AStarSearcher@VBoxSpace@@PAUBox@1@@@PAPAU12@@std@@YAPAPAUDNode@?$AStarSearcher@VBoxSpace@@PAUBox@1@@@PAPAU12@00@Z
_TEXT	SEGMENT
__Cat$511923 = -4					; size = 1
__First$ = 8						; size = 4
__Last$ = 12						; size = 4
__Dest$ = 16						; size = 4
??$_Move@PAPAUDNode@?$AStarSearcher@VBoxSpace@@PAUBox@1@@@PAPAU12@@std@@YAPAPAUDNode@?$AStarSearcher@VBoxSpace@@PAUBox@1@@@PAPAU12@00@Z PROC ; std::_Move<AStarSearcher<BoxSpace,BoxSpace::Box *>::DNode * *,AStarSearcher<BoxSpace,BoxSpace::Box *>::DNode * *>, COMDAT

; 2533 : 	{	// move [_First, _Last) to [_Dest, ...), unchecked

  00000	55		 push	 ebp
  00001	8b ec		 mov	 ebp, esp
  00003	51		 push	 ecx

; 2534 : 	return (_Move(_First, _Last,
; 2535 : 		_Dest, _Ptr_cat(_First, _Dest)));

  00004	ff 75 fc	 push	 DWORD PTR __Cat$511923[ebp]
  00007	ff 75 10	 push	 DWORD PTR __Dest$[ebp]
  0000a	ff 75 0c	 push	 DWORD PTR __Last$[ebp]
  0000d	ff 75 08	 push	 DWORD PTR __First$[ebp]
  00010	e8 00 00 00 00	 call	 ??$_Move@PAPAUDNode@?$AStarSearcher@VBoxSpace@@PAUBox@1@@@PAPAU12@@std@@YAPAPAUDNode@?$AStarSearcher@VBoxSpace@@PAUBox@1@@@PAPAU12@00U_Scalar_ptr_iterator_tag@0@@Z ; std::_Move<AStarSearcher<BoxSpace,BoxSpace::Box *>::DNode * *,AStarSearcher<BoxSpace,BoxSpace::Box *>::DNode * *>
  00015	83 c4 10	 add	 esp, 16			; 00000010H

; 2536 : 	}

  00018	c9		 leave
  00019	c3		 ret	 0
??$_Move@PAPAUDNode@?$AStarSearcher@VBoxSpace@@PAUBox@1@@@PAPAU12@@std@@YAPAPAUDNode@?$AStarSearcher@VBoxSpace@@PAUBox@1@@@PAPAU12@00@Z ENDP ; std::_Move<AStarSearcher<BoxSpace,BoxSpace::Box *>::DNode * *,AStarSearcher<BoxSpace,BoxSpace::Box *>::DNode * *>
_TEXT	ENDS
PUBLIC	??$_Move@PAPAUTBlock@?$uni_heap@$0BE@$0IA@@@PAPAU12@@std@@YAPAPAUTBlock@?$uni_heap@$0BE@$0IA@@@PAPAU12@00@Z ; std::_Move<uni_heap<20,128>::TBlock * *,uni_heap<20,128>::TBlock * *>
; Function compile flags: /Ogsp
;	COMDAT ??$_Move@PAPAUTBlock@?$uni_heap@$0BE@$0IA@@@PAPAU12@@std@@YAPAPAUTBlock@?$uni_heap@$0BE@$0IA@@@PAPAU12@00@Z
_TEXT	SEGMENT
__Cat$511930 = -4					; size = 1
__First$ = 8						; size = 4
__Last$ = 12						; size = 4
__Dest$ = 16						; size = 4
??$_Move@PAPAUTBlock@?$uni_heap@$0BE@$0IA@@@PAPAU12@@std@@YAPAPAUTBlock@?$uni_heap@$0BE@$0IA@@@PAPAU12@00@Z PROC ; std::_Move<uni_heap<20,128>::TBlock * *,uni_heap<20,128>::TBlock * *>, COMDAT

; 2533 : 	{	// move [_First, _Last) to [_Dest, ...), unchecked

  00000	55		 push	 ebp
  00001	8b ec		 mov	 ebp, esp
  00003	51		 push	 ecx

; 2534 : 	return (_Move(_First, _Last,
; 2535 : 		_Dest, _Ptr_cat(_First, _Dest)));

  00004	ff 75 fc	 push	 DWORD PTR __Cat$511930[ebp]
  00007	ff 75 10	 push	 DWORD PTR __Dest$[ebp]
  0000a	ff 75 0c	 push	 DWORD PTR __Last$[ebp]
  0000d	ff 75 08	 push	 DWORD PTR __First$[ebp]
  00010	e8 00 00 00 00	 call	 ??$_Move@PAPAUTBlock@?$uni_heap@$0BE@$0IA@@@PAPAU12@@std@@YAPAPAUTBlock@?$uni_heap@$0BE@$0IA@@@PAPAU12@00U_Scalar_ptr_iterator_tag@0@@Z ; std::_Move<uni_heap<20,128>::TBlock * *,uni_heap<20,128>::TBlock * *>
  00015	83 c4 10	 add	 esp, 16			; 00000010H

; 2536 : 	}

  00018	c9		 leave
  00019	c3		 ret	 0
??$_Move@PAPAUTBlock@?$uni_heap@$0BE@$0IA@@@PAPAU12@@std@@YAPAPAUTBlock@?$uni_heap@$0BE@$0IA@@@PAPAU12@00@Z ENDP ; std::_Move<uni_heap<20,128>::TBlock * *,uni_heap<20,128>::TBlock * *>
_TEXT	ENDS
PUBLIC	??$_Uninitialized_move@PAPAUTBlock@?$uni_heap@$0BE@$0IA@@@PAPAU12@V?$allocator@PAUTBlock@?$uni_heap@$0BE@$0IA@@@@std@@@std@@YAPAPAUTBlock@?$uni_heap@$0BE@$0IA@@@PAPAU12@00AAV?$allocator@PAUTBlock@?$uni_heap@$0BE@$0IA@@@@0@@Z ; std::_Uninitialized_move<uni_heap<20,128>::TBlock * *,uni_heap<20,128>::TBlock * *,std::allocator<uni_heap<20,128>::TBlock *> >
; Function compile flags: /Ogsp
; File c:\program files (x86)\microsoft visual studio 10.0\vc\include\memory
;	COMDAT ??$_Uninitialized_move@PAPAUTBlock@?$uni_heap@$0BE@$0IA@@@PAPAU12@V?$allocator@PAUTBlock@?$uni_heap@$0BE@$0IA@@@@std@@@std@@YAPAPAUTBlock@?$uni_heap@$0BE@$0IA@@@PAPAU12@00AAV?$allocator@PAUTBlock@?$uni_heap@$0BE@$0IA@@@@0@@Z
_TEXT	SEGMENT
__First$ = 8						; size = 4
__Last$ = 12						; size = 4
__Dest$ = 16						; size = 4
__Al$ = 20						; size = 4
??$_Uninitialized_move@PAPAUTBlock@?$uni_heap@$0BE@$0IA@@@PAPAU12@V?$allocator@PAUTBlock@?$uni_heap@$0BE@$0IA@@@@std@@@std@@YAPAPAUTBlock@?$uni_heap@$0BE@$0IA@@@PAPAU12@00AAV?$allocator@PAUTBlock@?$uni_heap@$0BE@$0IA@@@@0@@Z PROC ; std::_Uninitialized_move<uni_heap<20,128>::TBlock * *,uni_heap<20,128>::TBlock * *,std::allocator<uni_heap<20,128>::TBlock *> >, COMDAT

; 469  : 	{	// move [_First, _Last) to raw _Dest, using _Al

  00000	55		 push	 ebp
  00001	8b ec		 mov	 ebp, esp
  00003	56		 push	 esi

; 470  : 	return (_Uninit_move(_First, _Last, _Dest, _Al,
; 471  : 		_Val_type(_First), _Ptr_cat(_First, _Dest)));

  00004	8b 75 0c	 mov	 esi, DWORD PTR __Last$[ebp]
  00007	2b 75 08	 sub	 esi, DWORD PTR __First$[ebp]
  0000a	c1 fe 02	 sar	 esi, 2
  0000d	c1 e6 02	 shl	 esi, 2
  00010	56		 push	 esi
  00011	ff 75 08	 push	 DWORD PTR __First$[ebp]
  00014	ff 75 10	 push	 DWORD PTR __Dest$[ebp]
  00017	ff 15 00 00 00
	00		 call	 DWORD PTR __imp__memmove
  0001d	83 c4 0c	 add	 esp, 12			; 0000000cH
  00020	03 c6		 add	 eax, esi
  00022	5e		 pop	 esi

; 472  : 	}

  00023	5d		 pop	 ebp
  00024	c3		 ret	 0
??$_Uninitialized_move@PAPAUTBlock@?$uni_heap@$0BE@$0IA@@@PAPAU12@V?$allocator@PAUTBlock@?$uni_heap@$0BE@$0IA@@@@std@@@std@@YAPAPAUTBlock@?$uni_heap@$0BE@$0IA@@@PAPAU12@00AAV?$allocator@PAUTBlock@?$uni_heap@$0BE@$0IA@@@@0@@Z ENDP ; std::_Uninitialized_move<uni_heap<20,128>::TBlock * *,uni_heap<20,128>::TBlock * *,std::allocator<uni_heap<20,128>::TBlock *> >
_TEXT	ENDS
PUBLIC	?destroy@?$allocator@ULink@BoxSpace@@@std@@QAEXPAULink@BoxSpace@@@Z ; std::allocator<BoxSpace::Link>::destroy
; Function compile flags: /Ogsp
; File c:\program files (x86)\microsoft visual studio 10.0\vc\include\xmemory
;	COMDAT ?destroy@?$allocator@ULink@BoxSpace@@@std@@QAEXPAULink@BoxSpace@@@Z
_TEXT	SEGMENT
__Ptr$ = 8						; size = 4
?destroy@?$allocator@ULink@BoxSpace@@@std@@QAEXPAULink@BoxSpace@@@Z PROC ; std::allocator<BoxSpace::Link>::destroy, COMDAT
; _this$ = ecx

; 213  : 		_Destroy(_Ptr);
; 214  : 		}

  00000	c2 04 00	 ret	 4
?destroy@?$allocator@ULink@BoxSpace@@@std@@QAEXPAULink@BoxSpace@@@Z ENDP ; std::allocator<BoxSpace::Link>::destroy
_TEXT	ENDS
PUBLIC	??0?$vector@ULink@BoxSpace@@V?$allocator@ULink@BoxSpace@@@std@@@std@@QAE@XZ ; std::vector<BoxSpace::Link,std::allocator<BoxSpace::Link> >::vector<BoxSpace::Link,std::allocator<BoxSpace::Link> >
; Function compile flags: /Ogsp
; File c:\program files (x86)\microsoft visual studio 10.0\vc\include\vector
;	COMDAT ??0?$vector@ULink@BoxSpace@@V?$allocator@ULink@BoxSpace@@@std@@@std@@QAE@XZ
_TEXT	SEGMENT
??0?$vector@ULink@BoxSpace@@V?$allocator@ULink@BoxSpace@@@std@@@std@@QAE@XZ PROC ; std::vector<BoxSpace::Link,std::allocator<BoxSpace::Link> >::vector<BoxSpace::Link,std::allocator<BoxSpace::Link> >, COMDAT
; _this$ = ecx

; 507  : 		{	// construct empty vector

  00000	8b c1		 mov	 eax, ecx
  00002	33 c9		 xor	 ecx, ecx
  00004	89 08		 mov	 DWORD PTR [eax], ecx
  00006	89 48 04	 mov	 DWORD PTR [eax+4], ecx
  00009	89 48 08	 mov	 DWORD PTR [eax+8], ecx

; 508  : 		}

  0000c	c3		 ret	 0
??0?$vector@ULink@BoxSpace@@V?$allocator@ULink@BoxSpace@@@std@@@std@@QAE@XZ ENDP ; std::vector<BoxSpace::Link,std::allocator<BoxSpace::Link> >::vector<BoxSpace::Link,std::allocator<BoxSpace::Link> >
_TEXT	ENDS
PUBLIC	?begin@?$vector@ULink@BoxSpace@@V?$allocator@ULink@BoxSpace@@@std@@@std@@QAE?AV?$_Vector_iterator@V?$_Vector_val@ULink@BoxSpace@@V?$allocator@ULink@BoxSpace@@@std@@@std@@@2@XZ ; std::vector<BoxSpace::Link,std::allocator<BoxSpace::Link> >::begin
; Function compile flags: /Ogsp
;	COMDAT ?begin@?$vector@ULink@BoxSpace@@V?$allocator@ULink@BoxSpace@@@std@@@std@@QAE?AV?$_Vector_iterator@V?$_Vector_val@ULink@BoxSpace@@V?$allocator@ULink@BoxSpace@@@std@@@std@@@2@XZ
_TEXT	SEGMENT
___$ReturnUdt$ = 8					; size = 4
?begin@?$vector@ULink@BoxSpace@@V?$allocator@ULink@BoxSpace@@@std@@@std@@QAE?AV?$_Vector_iterator@V?$_Vector_val@ULink@BoxSpace@@V?$allocator@ULink@BoxSpace@@@std@@@std@@@2@XZ PROC ; std::vector<BoxSpace::Link,std::allocator<BoxSpace::Link> >::begin, COMDAT
; _this$ = ecx

; 781  : 		{	// return iterator for beginning of mutable sequence

  00000	55		 push	 ebp
  00001	8b ec		 mov	 ebp, esp

; 782  : 		return (iterator(this->_Myfirst, this));

  00003	8b 09		 mov	 ecx, DWORD PTR [ecx]
  00005	8b 45 08	 mov	 eax, DWORD PTR ___$ReturnUdt$[ebp]
  00008	89 08		 mov	 DWORD PTR [eax], ecx

; 783  : 		}

  0000a	5d		 pop	 ebp
  0000b	c2 04 00	 ret	 4
?begin@?$vector@ULink@BoxSpace@@V?$allocator@ULink@BoxSpace@@@std@@@std@@QAE?AV?$_Vector_iterator@V?$_Vector_val@ULink@BoxSpace@@V?$allocator@ULink@BoxSpace@@@std@@@std@@@2@XZ ENDP ; std::vector<BoxSpace::Link,std::allocator<BoxSpace::Link> >::begin
_TEXT	ENDS
PUBLIC	?end@?$vector@ULink@BoxSpace@@V?$allocator@ULink@BoxSpace@@@std@@@std@@QAE?AV?$_Vector_iterator@V?$_Vector_val@ULink@BoxSpace@@V?$allocator@ULink@BoxSpace@@@std@@@std@@@2@XZ ; std::vector<BoxSpace::Link,std::allocator<BoxSpace::Link> >::end
; Function compile flags: /Ogsp
;	COMDAT ?end@?$vector@ULink@BoxSpace@@V?$allocator@ULink@BoxSpace@@@std@@@std@@QAE?AV?$_Vector_iterator@V?$_Vector_val@ULink@BoxSpace@@V?$allocator@ULink@BoxSpace@@@std@@@std@@@2@XZ
_TEXT	SEGMENT
___$ReturnUdt$ = 8					; size = 4
?end@?$vector@ULink@BoxSpace@@V?$allocator@ULink@BoxSpace@@@std@@@std@@QAE?AV?$_Vector_iterator@V?$_Vector_val@ULink@BoxSpace@@V?$allocator@ULink@BoxSpace@@@std@@@std@@@2@XZ PROC ; std::vector<BoxSpace::Link,std::allocator<BoxSpace::Link> >::end, COMDAT
; _this$ = ecx

; 791  : 		{	// return iterator for end of mutable sequence

  00000	55		 push	 ebp
  00001	8b ec		 mov	 ebp, esp

; 792  : 		return (iterator(this->_Mylast, this));

  00003	8b 49 04	 mov	 ecx, DWORD PTR [ecx+4]
  00006	8b 45 08	 mov	 eax, DWORD PTR ___$ReturnUdt$[ebp]
  00009	89 08		 mov	 DWORD PTR [eax], ecx

; 793  : 		}

  0000b	5d		 pop	 ebp
  0000c	c2 04 00	 ret	 4
?end@?$vector@ULink@BoxSpace@@V?$allocator@ULink@BoxSpace@@@std@@@std@@QAE?AV?$_Vector_iterator@V?$_Vector_val@ULink@BoxSpace@@V?$allocator@ULink@BoxSpace@@@std@@@std@@@2@XZ ENDP ; std::vector<BoxSpace::Link,std::allocator<BoxSpace::Link> >::end
_TEXT	ENDS
PUBLIC	?front@?$vector@UBox@BoxSpace@@V?$allocator@UBox@BoxSpace@@@std@@@std@@QBEABUBox@BoxSpace@@XZ ; std::vector<BoxSpace::Box,std::allocator<BoxSpace::Box> >::front
; Function compile flags: /Ogsp
;	COMDAT ?front@?$vector@UBox@BoxSpace@@V?$allocator@UBox@BoxSpace@@@std@@@std@@QBEABUBox@BoxSpace@@XZ
_TEXT	SEGMENT
?front@?$vector@UBox@BoxSpace@@V?$allocator@UBox@BoxSpace@@@std@@@std@@QBEABUBox@BoxSpace@@XZ PROC ; std::vector<BoxSpace::Box,std::allocator<BoxSpace::Box> >::front, COMDAT
; _this$ = ecx

; 962  : 		return (*begin());

  00000	8b 01		 mov	 eax, DWORD PTR [ecx]

; 963  : 		}

  00002	c3		 ret	 0
?front@?$vector@UBox@BoxSpace@@V?$allocator@UBox@BoxSpace@@@std@@@std@@QBEABUBox@BoxSpace@@XZ ENDP ; std::vector<BoxSpace::Box,std::allocator<BoxSpace::Box> >::front
_TEXT	ENDS
PUBLIC	??9?$_Vector_const_iterator@V?$_Vector_val@ULink@BoxSpace@@V?$allocator@ULink@BoxSpace@@@std@@@std@@@std@@QBE_NABV01@@Z ; std::_Vector_const_iterator<std::_Vector_val<BoxSpace::Link,std::allocator<BoxSpace::Link> > >::operator!=
; Function compile flags: /Ogsp
;	COMDAT ??9?$_Vector_const_iterator@V?$_Vector_val@ULink@BoxSpace@@V?$allocator@ULink@BoxSpace@@@std@@@std@@@std@@QBE_NABV01@@Z
_TEXT	SEGMENT
__Right$ = 8						; size = 4
??9?$_Vector_const_iterator@V?$_Vector_val@ULink@BoxSpace@@V?$allocator@ULink@BoxSpace@@@std@@@std@@@std@@QBE_NABV01@@Z PROC ; std::_Vector_const_iterator<std::_Vector_val<BoxSpace::Link,std::allocator<BoxSpace::Link> > >::operator!=, COMDAT
; _this$ = ecx

; 207  : 		{	// test for iterator inequality

  00000	55		 push	 ebp
  00001	8b ec		 mov	 ebp, esp

; 208  : 		return (!(*this == _Right));

  00003	8b 01		 mov	 eax, DWORD PTR [ecx]
  00005	8b 55 08	 mov	 edx, DWORD PTR __Right$[ebp]
  00008	33 c9		 xor	 ecx, ecx
  0000a	3b 02		 cmp	 eax, DWORD PTR [edx]
  0000c	0f 95 c0	 setne	 al

; 209  : 		}

  0000f	5d		 pop	 ebp
  00010	c2 04 00	 ret	 4
??9?$_Vector_const_iterator@V?$_Vector_val@ULink@BoxSpace@@V?$allocator@ULink@BoxSpace@@@std@@@std@@@std@@QBE_NABV01@@Z ENDP ; std::_Vector_const_iterator<std::_Vector_val<BoxSpace::Link,std::allocator<BoxSpace::Link> > >::operator!=
_TEXT	ENDS
PUBLIC	?begin@?$vector@FV?$allocator@F@std@@@std@@QAE?AV?$_Vector_iterator@V?$_Vector_val@FV?$allocator@F@std@@@std@@@2@XZ ; std::vector<short,std::allocator<short> >::begin
; Function compile flags: /Ogsp
;	COMDAT ?begin@?$vector@FV?$allocator@F@std@@@std@@QAE?AV?$_Vector_iterator@V?$_Vector_val@FV?$allocator@F@std@@@std@@@2@XZ
_TEXT	SEGMENT
___$ReturnUdt$ = 8					; size = 4
?begin@?$vector@FV?$allocator@F@std@@@std@@QAE?AV?$_Vector_iterator@V?$_Vector_val@FV?$allocator@F@std@@@std@@@2@XZ PROC ; std::vector<short,std::allocator<short> >::begin, COMDAT
; _this$ = ecx

; 781  : 		{	// return iterator for beginning of mutable sequence

  00000	55		 push	 ebp
  00001	8b ec		 mov	 ebp, esp

; 782  : 		return (iterator(this->_Myfirst, this));

  00003	8b 09		 mov	 ecx, DWORD PTR [ecx]
  00005	8b 45 08	 mov	 eax, DWORD PTR ___$ReturnUdt$[ebp]
  00008	89 08		 mov	 DWORD PTR [eax], ecx

; 783  : 		}

  0000a	5d		 pop	 ebp
  0000b	c2 04 00	 ret	 4
?begin@?$vector@FV?$allocator@F@std@@@std@@QAE?AV?$_Vector_iterator@V?$_Vector_val@FV?$allocator@F@std@@@std@@@2@XZ ENDP ; std::vector<short,std::allocator<short> >::begin
_TEXT	ENDS
PUBLIC	?end@?$vector@FV?$allocator@F@std@@@std@@QAE?AV?$_Vector_iterator@V?$_Vector_val@FV?$allocator@F@std@@@std@@@2@XZ ; std::vector<short,std::allocator<short> >::end
; Function compile flags: /Ogsp
;	COMDAT ?end@?$vector@FV?$allocator@F@std@@@std@@QAE?AV?$_Vector_iterator@V?$_Vector_val@FV?$allocator@F@std@@@std@@@2@XZ
_TEXT	SEGMENT
___$ReturnUdt$ = 8					; size = 4
?end@?$vector@FV?$allocator@F@std@@@std@@QAE?AV?$_Vector_iterator@V?$_Vector_val@FV?$allocator@F@std@@@std@@@2@XZ PROC ; std::vector<short,std::allocator<short> >::end, COMDAT
; _this$ = ecx

; 791  : 		{	// return iterator for end of mutable sequence

  00000	55		 push	 ebp
  00001	8b ec		 mov	 ebp, esp

; 792  : 		return (iterator(this->_Mylast, this));

  00003	8b 49 04	 mov	 ecx, DWORD PTR [ecx+4]
  00006	8b 45 08	 mov	 eax, DWORD PTR ___$ReturnUdt$[ebp]
  00009	89 08		 mov	 DWORD PTR [eax], ecx

; 793  : 		}

  0000b	5d		 pop	 ebp
  0000c	c2 04 00	 ret	 4
?end@?$vector@FV?$allocator@F@std@@@std@@QAE?AV?$_Vector_iterator@V?$_Vector_val@FV?$allocator@F@std@@@std@@@2@XZ ENDP ; std::vector<short,std::allocator<short> >::end
_TEXT	ENDS
PUBLIC	?begin@?$vector@UBox@BoxSpace@@V?$allocator@UBox@BoxSpace@@@std@@@std@@QAE?AV?$_Vector_iterator@V?$_Vector_val@UBox@BoxSpace@@V?$allocator@UBox@BoxSpace@@@std@@@std@@@2@XZ ; std::vector<BoxSpace::Box,std::allocator<BoxSpace::Box> >::begin
; Function compile flags: /Ogsp
;	COMDAT ?begin@?$vector@UBox@BoxSpace@@V?$allocator@UBox@BoxSpace@@@std@@@std@@QAE?AV?$_Vector_iterator@V?$_Vector_val@UBox@BoxSpace@@V?$allocator@UBox@BoxSpace@@@std@@@std@@@2@XZ
_TEXT	SEGMENT
___$ReturnUdt$ = 8					; size = 4
?begin@?$vector@UBox@BoxSpace@@V?$allocator@UBox@BoxSpace@@@std@@@std@@QAE?AV?$_Vector_iterator@V?$_Vector_val@UBox@BoxSpace@@V?$allocator@UBox@BoxSpace@@@std@@@std@@@2@XZ PROC ; std::vector<BoxSpace::Box,std::allocator<BoxSpace::Box> >::begin, COMDAT
; _this$ = ecx

; 781  : 		{	// return iterator for beginning of mutable sequence

  00000	55		 push	 ebp
  00001	8b ec		 mov	 ebp, esp

; 782  : 		return (iterator(this->_Myfirst, this));

  00003	8b 09		 mov	 ecx, DWORD PTR [ecx]
  00005	8b 45 08	 mov	 eax, DWORD PTR ___$ReturnUdt$[ebp]
  00008	89 08		 mov	 DWORD PTR [eax], ecx

; 783  : 		}

  0000a	5d		 pop	 ebp
  0000b	c2 04 00	 ret	 4
?begin@?$vector@UBox@BoxSpace@@V?$allocator@UBox@BoxSpace@@@std@@@std@@QAE?AV?$_Vector_iterator@V?$_Vector_val@UBox@BoxSpace@@V?$allocator@UBox@BoxSpace@@@std@@@std@@@2@XZ ENDP ; std::vector<BoxSpace::Box,std::allocator<BoxSpace::Box> >::begin
_TEXT	ENDS
PUBLIC	?_Make_iter@?$vector@FV?$allocator@F@std@@@std@@QBE?AV?$_Vector_iterator@V?$_Vector_val@FV?$allocator@F@std@@@std@@@2@V?$_Vector_const_iterator@V?$_Vector_val@FV?$allocator@F@std@@@std@@@2@@Z ; std::vector<short,std::allocator<short> >::_Make_iter
; Function compile flags: /Ogsp
;	COMDAT ?_Make_iter@?$vector@FV?$allocator@F@std@@@std@@QBE?AV?$_Vector_iterator@V?$_Vector_val@FV?$allocator@F@std@@@std@@@2@V?$_Vector_const_iterator@V?$_Vector_val@FV?$allocator@F@std@@@std@@@2@@Z
_TEXT	SEGMENT
___$ReturnUdt$ = 8					; size = 4
__Where$ = 12						; size = 4
?_Make_iter@?$vector@FV?$allocator@F@std@@@std@@QBE?AV?$_Vector_iterator@V?$_Vector_val@FV?$allocator@F@std@@@std@@@2@V?$_Vector_const_iterator@V?$_Vector_val@FV?$allocator@F@std@@@std@@@2@@Z PROC ; std::vector<short,std::allocator<short> >::_Make_iter, COMDAT
; _this$ = ecx

; 801  : 		{	// make iterator from const_iterator

  00000	55		 push	 ebp
  00001	8b ec		 mov	 ebp, esp

; 802  : 		return (iterator(_Where._Ptr, this));

  00003	8b 45 08	 mov	 eax, DWORD PTR ___$ReturnUdt$[ebp]
  00006	8b 4d 0c	 mov	 ecx, DWORD PTR __Where$[ebp]
  00009	89 08		 mov	 DWORD PTR [eax], ecx

; 803  : 		}

  0000b	5d		 pop	 ebp
  0000c	c2 08 00	 ret	 8
?_Make_iter@?$vector@FV?$allocator@F@std@@@std@@QBE?AV?$_Vector_iterator@V?$_Vector_val@FV?$allocator@F@std@@@std@@@2@V?$_Vector_const_iterator@V?$_Vector_val@FV?$allocator@F@std@@@std@@@2@@Z ENDP ; std::vector<short,std::allocator<short> >::_Make_iter
_TEXT	ENDS
PUBLIC	??9?$_Vector_const_iterator@V?$_Vector_val@FV?$allocator@F@std@@@std@@@std@@QBE_NABV01@@Z ; std::_Vector_const_iterator<std::_Vector_val<short,std::allocator<short> > >::operator!=
; Function compile flags: /Ogsp
;	COMDAT ??9?$_Vector_const_iterator@V?$_Vector_val@FV?$allocator@F@std@@@std@@@std@@QBE_NABV01@@Z
_TEXT	SEGMENT
__Right$ = 8						; size = 4
??9?$_Vector_const_iterator@V?$_Vector_val@FV?$allocator@F@std@@@std@@@std@@QBE_NABV01@@Z PROC ; std::_Vector_const_iterator<std::_Vector_val<short,std::allocator<short> > >::operator!=, COMDAT
; _this$ = ecx

; 207  : 		{	// test for iterator inequality

  00000	55		 push	 ebp
  00001	8b ec		 mov	 ebp, esp

; 208  : 		return (!(*this == _Right));

  00003	8b 01		 mov	 eax, DWORD PTR [ecx]
  00005	8b 55 08	 mov	 edx, DWORD PTR __Right$[ebp]
  00008	33 c9		 xor	 ecx, ecx
  0000a	3b 02		 cmp	 eax, DWORD PTR [edx]
  0000c	0f 95 c0	 setne	 al

; 209  : 		}

  0000f	5d		 pop	 ebp
  00010	c2 04 00	 ret	 4
??9?$_Vector_const_iterator@V?$_Vector_val@FV?$allocator@F@std@@@std@@@std@@QBE_NABV01@@Z ENDP ; std::_Vector_const_iterator<std::_Vector_val<short,std::allocator<short> > >::operator!=
_TEXT	ENDS
PUBLIC	??E?$_Vector_iterator@V?$_Vector_val@PAUDNode@?$AStarSearcher@VBoxSpace@@PAUBox@1@@@V?$allocator@PAUDNode@?$AStarSearcher@VBoxSpace@@PAUBox@1@@@@std@@@std@@@std@@QAE?AV01@H@Z ; std::_Vector_iterator<std::_Vector_val<AStarSearcher<BoxSpace,BoxSpace::Box *>::DNode *,std::allocator<AStarSearcher<BoxSpace,BoxSpace::Box *>::DNode *> > >::operator++
; Function compile flags: /Ogsp
;	COMDAT ??E?$_Vector_iterator@V?$_Vector_val@PAUDNode@?$AStarSearcher@VBoxSpace@@PAUBox@1@@@V?$allocator@PAUDNode@?$AStarSearcher@VBoxSpace@@PAUBox@1@@@@std@@@std@@@std@@QAE?AV01@H@Z
_TEXT	SEGMENT
___$ReturnUdt$ = 8					; size = 4
___formal$ = 12						; size = 4
??E?$_Vector_iterator@V?$_Vector_val@PAUDNode@?$AStarSearcher@VBoxSpace@@PAUBox@1@@@V?$allocator@PAUDNode@?$AStarSearcher@VBoxSpace@@PAUBox@1@@@@std@@@std@@@std@@QAE?AV01@H@Z PROC ; std::_Vector_iterator<std::_Vector_val<AStarSearcher<BoxSpace,BoxSpace::Box *>::DNode *,std::allocator<AStarSearcher<BoxSpace,BoxSpace::Box *>::DNode *> > >::operator++, COMDAT
; _this$ = ecx

; 337  : 		{	// postincrement

  00000	55		 push	 ebp
  00001	8b ec		 mov	 ebp, esp

; 338  : 		_Myiter _Tmp = *this;

  00003	8b 11		 mov	 edx, DWORD PTR [ecx]
  00005	8b 45 08	 mov	 eax, DWORD PTR ___$ReturnUdt$[ebp]
  00008	89 10		 mov	 DWORD PTR [eax], edx

; 339  : 		++*this;

  0000a	83 c2 04	 add	 edx, 4
  0000d	89 11		 mov	 DWORD PTR [ecx], edx

; 340  : 		return (_Tmp);
; 341  : 		}

  0000f	5d		 pop	 ebp
  00010	c2 08 00	 ret	 8
??E?$_Vector_iterator@V?$_Vector_val@PAUDNode@?$AStarSearcher@VBoxSpace@@PAUBox@1@@@V?$allocator@PAUDNode@?$AStarSearcher@VBoxSpace@@PAUBox@1@@@@std@@@std@@@std@@QAE?AV01@H@Z ENDP ; std::_Vector_iterator<std::_Vector_val<AStarSearcher<BoxSpace,BoxSpace::Box *>::DNode *,std::allocator<AStarSearcher<BoxSpace,BoxSpace::Box *>::DNode *> > >::operator++
_TEXT	ENDS
PUBLIC	??H?$_Vector_iterator@V?$_Vector_val@PAUDNode@?$AStarSearcher@VBoxSpace@@PAUBox@1@@@V?$allocator@PAUDNode@?$AStarSearcher@VBoxSpace@@PAUBox@1@@@@std@@@std@@@std@@QBE?AV01@H@Z ; std::_Vector_iterator<std::_Vector_val<AStarSearcher<BoxSpace,BoxSpace::Box *>::DNode *,std::allocator<AStarSearcher<BoxSpace,BoxSpace::Box *>::DNode *> > >::operator+
; Function compile flags: /Ogsp
;	COMDAT ??H?$_Vector_iterator@V?$_Vector_val@PAUDNode@?$AStarSearcher@VBoxSpace@@PAUBox@1@@@V?$allocator@PAUDNode@?$AStarSearcher@VBoxSpace@@PAUBox@1@@@@std@@@std@@@std@@QBE?AV01@H@Z
_TEXT	SEGMENT
___$ReturnUdt$ = 8					; size = 4
__Off$ = 12						; size = 4
??H?$_Vector_iterator@V?$_Vector_val@PAUDNode@?$AStarSearcher@VBoxSpace@@PAUBox@1@@@V?$allocator@PAUDNode@?$AStarSearcher@VBoxSpace@@PAUBox@1@@@@std@@@std@@@std@@QBE?AV01@H@Z PROC ; std::_Vector_iterator<std::_Vector_val<AStarSearcher<BoxSpace,BoxSpace::Box *>::DNode *,std::allocator<AStarSearcher<BoxSpace,BoxSpace::Box *>::DNode *> > >::operator+, COMDAT
; _this$ = ecx

; 363  : 		{	// return this + integer

  00000	55		 push	 ebp
  00001	8b ec		 mov	 ebp, esp

; 364  : 		_Myiter _Tmp = *this;
; 365  : 		return (_Tmp += _Off);

  00003	8b 01		 mov	 eax, DWORD PTR [ecx]
  00005	8b 4d 0c	 mov	 ecx, DWORD PTR __Off$[ebp]
  00008	8d 0c 88	 lea	 ecx, DWORD PTR [eax+ecx*4]
  0000b	8b 45 08	 mov	 eax, DWORD PTR ___$ReturnUdt$[ebp]
  0000e	89 08		 mov	 DWORD PTR [eax], ecx

; 366  : 		}

  00010	5d		 pop	 ebp
  00011	c2 08 00	 ret	 8
??H?$_Vector_iterator@V?$_Vector_val@PAUDNode@?$AStarSearcher@VBoxSpace@@PAUBox@1@@@V?$allocator@PAUDNode@?$AStarSearcher@VBoxSpace@@PAUBox@1@@@@std@@@std@@@std@@QBE?AV01@H@Z ENDP ; std::_Vector_iterator<std::_Vector_val<AStarSearcher<BoxSpace,BoxSpace::Box *>::DNode *,std::allocator<AStarSearcher<BoxSpace,BoxSpace::Box *>::DNode *> > >::operator+
_TEXT	ENDS
PUBLIC	??Z?$_Vector_iterator@V?$_Vector_val@PAUTBlock@?$uni_heap@$0BE@$0IA@@@V?$allocator@PAUTBlock@?$uni_heap@$0BE@$0IA@@@@std@@@std@@@std@@QAEAAV01@H@Z ; std::_Vector_iterator<std::_Vector_val<uni_heap<20,128>::TBlock *,std::allocator<uni_heap<20,128>::TBlock *> > >::operator-=
; Function compile flags: /Ogsp
;	COMDAT ??Z?$_Vector_iterator@V?$_Vector_val@PAUTBlock@?$uni_heap@$0BE@$0IA@@@V?$allocator@PAUTBlock@?$uni_heap@$0BE@$0IA@@@@std@@@std@@@std@@QAEAAV01@H@Z
_TEXT	SEGMENT
__Off$ = 8						; size = 4
??Z?$_Vector_iterator@V?$_Vector_val@PAUTBlock@?$uni_heap@$0BE@$0IA@@@V?$allocator@PAUTBlock@?$uni_heap@$0BE@$0IA@@@@std@@@std@@@std@@QAEAAV01@H@Z PROC ; std::_Vector_iterator<std::_Vector_val<uni_heap<20,128>::TBlock *,std::allocator<uni_heap<20,128>::TBlock *> > >::operator-=, COMDAT
; _this$ = ecx

; 369  : 		{	// decrement by integer

  00000	55		 push	 ebp
  00001	8b ec		 mov	 ebp, esp
  00003	8b c1		 mov	 eax, ecx

; 370  : 		return (*this += -_Off);

  00005	8b 4d 08	 mov	 ecx, DWORD PTR __Off$[ebp]
  00008	6b c9 fc	 imul	 ecx, -4			; fffffffcH
  0000b	01 08		 add	 DWORD PTR [eax], ecx

; 371  : 		}

  0000d	5d		 pop	 ebp
  0000e	c2 04 00	 ret	 4
??Z?$_Vector_iterator@V?$_Vector_val@PAUTBlock@?$uni_heap@$0BE@$0IA@@@V?$allocator@PAUTBlock@?$uni_heap@$0BE@$0IA@@@@std@@@std@@@std@@QAEAAV01@H@Z ENDP ; std::_Vector_iterator<std::_Vector_val<uni_heap<20,128>::TBlock *,std::allocator<uni_heap<20,128>::TBlock *> > >::operator-=
_TEXT	ENDS
PUBLIC	??$_Umove@PAF@?$vector@FV?$allocator@F@std@@@std@@IAEPAFPAF00@Z ; std::vector<short,std::allocator<short> >::_Umove<short *>
; Function compile flags: /Ogsp
;	COMDAT ??$_Umove@PAF@?$vector@FV?$allocator@F@std@@@std@@IAEPAFPAF00@Z
_TEXT	SEGMENT
__First$ = 8						; size = 4
__Last$ = 12						; size = 4
__Ptr$ = 16						; size = 4
??$_Umove@PAF@?$vector@FV?$allocator@F@std@@@std@@IAEPAFPAF00@Z PROC ; std::vector<short,std::allocator<short> >::_Umove<short *>, COMDAT
; _this$ = ecx

; 1322 : 		pointer _Umove(_Iter _First, _Iter _Last, pointer _Ptr)

  00000	55		 push	 ebp
  00001	8b ec		 mov	 ebp, esp

; 1323 : 		{	// move initializing [_First, _Last), using allocator
; 1324 : 		return (_Uninitialized_move(_First, _Last,
; 1325 : 			_Ptr, this->_Alval));

  00003	8b 45 0c	 mov	 eax, DWORD PTR __Last$[ebp]
  00006	2b 45 08	 sub	 eax, DWORD PTR __First$[ebp]
  00009	56		 push	 esi
  0000a	d1 f8		 sar	 eax, 1
  0000c	8d 34 00	 lea	 esi, DWORD PTR [eax+eax]
  0000f	56		 push	 esi
  00010	ff 75 08	 push	 DWORD PTR __First$[ebp]
  00013	ff 75 10	 push	 DWORD PTR __Ptr$[ebp]
  00016	ff 15 00 00 00
	00		 call	 DWORD PTR __imp__memmove
  0001c	83 c4 0c	 add	 esp, 12			; 0000000cH
  0001f	03 c6		 add	 eax, esi
  00021	5e		 pop	 esi

; 1326 : 		}

  00022	5d		 pop	 ebp
  00023	c2 0c 00	 ret	 12			; 0000000cH
??$_Umove@PAF@?$vector@FV?$allocator@F@std@@@std@@IAEPAFPAF00@Z ENDP ; std::vector<short,std::allocator<short> >::_Umove<short *>
_TEXT	ENDS
PUBLIC	??$_Cons_val@V?$allocator@F@std@@FABF@std@@YAXAAV?$allocator@F@0@PAFABF@Z ; std::_Cons_val<std::allocator<short>,short,short const &>
; Function compile flags: /Ogsp
; File c:\program files (x86)\microsoft visual studio 10.0\vc\include\xmemory
;	COMDAT ??$_Cons_val@V?$allocator@F@std@@FABF@std@@YAXAAV?$allocator@F@0@PAFABF@Z
_TEXT	SEGMENT
__Alval$ = 8						; size = 4
__Pdest$ = 12						; size = 4
__Src$ = 16						; size = 4
??$_Cons_val@V?$allocator@F@std@@FABF@std@@YAXAAV?$allocator@F@0@PAFABF@Z PROC ; std::_Cons_val<std::allocator<short>,short,short const &>, COMDAT

; 279  : 	{	// construct using allocator

  00000	55		 push	 ebp
  00001	8b ec		 mov	 ebp, esp

; 280  : 	_Alval.construct(_Pdest, _STD forward<_Ty2>(_Src));

  00003	8b 45 0c	 mov	 eax, DWORD PTR __Pdest$[ebp]
  00006	85 c0		 test	 eax, eax
  00008	74 09		 je	 SHORT $LN9@Cons_val@7
  0000a	8b 4d 10	 mov	 ecx, DWORD PTR __Src$[ebp]
  0000d	66 8b 09	 mov	 cx, WORD PTR [ecx]
  00010	66 89 08	 mov	 WORD PTR [eax], cx
$LN9@Cons_val@7:

; 281  : 	}

  00013	5d		 pop	 ebp
  00014	c3		 ret	 0
??$_Cons_val@V?$allocator@F@std@@FABF@std@@YAXAAV?$allocator@F@0@PAFABF@Z ENDP ; std::_Cons_val<std::allocator<short>,short,short const &>
_TEXT	ENDS
PUBLIC	??$_Cons_val@V?$allocator@ULink@BoxSpace@@@std@@ULink@BoxSpace@@ABU34@@std@@YAXAAV?$allocator@ULink@BoxSpace@@@0@PAULink@BoxSpace@@ABU23@@Z ; std::_Cons_val<std::allocator<BoxSpace::Link>,BoxSpace::Link,BoxSpace::Link const &>
; Function compile flags: /Ogsp
;	COMDAT ??$_Cons_val@V?$allocator@ULink@BoxSpace@@@std@@ULink@BoxSpace@@ABU34@@std@@YAXAAV?$allocator@ULink@BoxSpace@@@0@PAULink@BoxSpace@@ABU23@@Z
_TEXT	SEGMENT
__Alval$ = 8						; size = 4
__Pdest$ = 12						; size = 4
__Src$ = 16						; size = 4
??$_Cons_val@V?$allocator@ULink@BoxSpace@@@std@@ULink@BoxSpace@@ABU34@@std@@YAXAAV?$allocator@ULink@BoxSpace@@@0@PAULink@BoxSpace@@ABU23@@Z PROC ; std::_Cons_val<std::allocator<BoxSpace::Link>,BoxSpace::Link,BoxSpace::Link const &>, COMDAT

; 279  : 	{	// construct using allocator

  00000	55		 push	 ebp
  00001	8b ec		 mov	 ebp, esp
  00003	57		 push	 edi

; 280  : 	_Alval.construct(_Pdest, _STD forward<_Ty2>(_Src));

  00004	8b 7d 0c	 mov	 edi, DWORD PTR __Pdest$[ebp]
  00007	85 ff		 test	 edi, edi
  00009	74 0a		 je	 SHORT $LN9@Cons_val@8
  0000b	56		 push	 esi
  0000c	8b 75 10	 mov	 esi, DWORD PTR __Src$[ebp]
  0000f	6a 08		 push	 8
  00011	59		 pop	 ecx
  00012	f3 a5		 rep movsd
  00014	5e		 pop	 esi
$LN9@Cons_val@8:
  00015	5f		 pop	 edi

; 281  : 	}

  00016	5d		 pop	 ebp
  00017	c3		 ret	 0
??$_Cons_val@V?$allocator@ULink@BoxSpace@@@std@@ULink@BoxSpace@@ABU34@@std@@YAXAAV?$allocator@ULink@BoxSpace@@@0@PAULink@BoxSpace@@ABU23@@Z ENDP ; std::_Cons_val<std::allocator<BoxSpace::Link>,BoxSpace::Link,BoxSpace::Link const &>
_TEXT	ENDS
PUBLIC	??$_Cons_val@V?$allocator@PAUDNode@?$AStarSearcher@VBoxSpace@@PAUBox@1@@@@std@@PAUDNode@?$AStarSearcher@VBoxSpace@@PAUBox@1@@@ABQAU34@@std@@YAXAAV?$allocator@PAUDNode@?$AStarSearcher@VBoxSpace@@PAUBox@1@@@@0@PAPAUDNode@?$AStarSearcher@VBoxSpace@@PAUBox@1@@@ABQAU23@@Z ; std::_Cons_val<std::allocator<AStarSearcher<BoxSpace,BoxSpace::Box *>::DNode *>,AStarSearcher<BoxSpace,BoxSpace::Box *>::DNode *,AStarSearcher<BoxSpace,BoxSpace::Box *>::DNode * const &>
; Function compile flags: /Ogsp
;	COMDAT ??$_Cons_val@V?$allocator@PAUDNode@?$AStarSearcher@VBoxSpace@@PAUBox@1@@@@std@@PAUDNode@?$AStarSearcher@VBoxSpace@@PAUBox@1@@@ABQAU34@@std@@YAXAAV?$allocator@PAUDNode@?$AStarSearcher@VBoxSpace@@PAUBox@1@@@@0@PAPAUDNode@?$AStarSearcher@VBoxSpace@@PAUBox@1@@@ABQAU23@@Z
_TEXT	SEGMENT
__Alval$ = 8						; size = 4
__Pdest$ = 12						; size = 4
__Src$ = 16						; size = 4
??$_Cons_val@V?$allocator@PAUDNode@?$AStarSearcher@VBoxSpace@@PAUBox@1@@@@std@@PAUDNode@?$AStarSearcher@VBoxSpace@@PAUBox@1@@@ABQAU34@@std@@YAXAAV?$allocator@PAUDNode@?$AStarSearcher@VBoxSpace@@PAUBox@1@@@@0@PAPAUDNode@?$AStarSearcher@VBoxSpace@@PAUBox@1@@@ABQAU23@@Z PROC ; std::_Cons_val<std::allocator<AStarSearcher<BoxSpace,BoxSpace::Box *>::DNode *>,AStarSearcher<BoxSpace,BoxSpace::Box *>::DNode *,AStarSearcher<BoxSpace,BoxSpace::Box *>::DNode * const &>, COMDAT

; 279  : 	{	// construct using allocator

  00000	55		 push	 ebp
  00001	8b ec		 mov	 ebp, esp

; 280  : 	_Alval.construct(_Pdest, _STD forward<_Ty2>(_Src));

  00003	8b 45 0c	 mov	 eax, DWORD PTR __Pdest$[ebp]
  00006	85 c0		 test	 eax, eax
  00008	74 07		 je	 SHORT $LN9@Cons_val@9
  0000a	8b 4d 10	 mov	 ecx, DWORD PTR __Src$[ebp]
  0000d	8b 09		 mov	 ecx, DWORD PTR [ecx]
  0000f	89 08		 mov	 DWORD PTR [eax], ecx
$LN9@Cons_val@9:

; 281  : 	}

  00011	5d		 pop	 ebp
  00012	c3		 ret	 0
??$_Cons_val@V?$allocator@PAUDNode@?$AStarSearcher@VBoxSpace@@PAUBox@1@@@@std@@PAUDNode@?$AStarSearcher@VBoxSpace@@PAUBox@1@@@ABQAU34@@std@@YAXAAV?$allocator@PAUDNode@?$AStarSearcher@VBoxSpace@@PAUBox@1@@@@0@PAPAUDNode@?$AStarSearcher@VBoxSpace@@PAUBox@1@@@ABQAU23@@Z ENDP ; std::_Cons_val<std::allocator<AStarSearcher<BoxSpace,BoxSpace::Box *>::DNode *>,AStarSearcher<BoxSpace,BoxSpace::Box *>::DNode *,AStarSearcher<BoxSpace,BoxSpace::Box *>::DNode * const &>
_TEXT	ENDS
PUBLIC	??$_Dest_val@V?$allocator@PAUDNode@?$AStarSearcher@VBoxSpace@@PAUBox@1@@@@std@@PAUDNode@?$AStarSearcher@VBoxSpace@@PAUBox@1@@@@std@@YAXAAV?$allocator@PAUDNode@?$AStarSearcher@VBoxSpace@@PAUBox@1@@@@0@PAPAUDNode@?$AStarSearcher@VBoxSpace@@PAUBox@1@@@@Z ; std::_Dest_val<std::allocator<AStarSearcher<BoxSpace,BoxSpace::Box *>::DNode *>,AStarSearcher<BoxSpace,BoxSpace::Box *>::DNode *>
; Function compile flags: /Ogsp
;	COMDAT ??$_Dest_val@V?$allocator@PAUDNode@?$AStarSearcher@VBoxSpace@@PAUBox@1@@@@std@@PAUDNode@?$AStarSearcher@VBoxSpace@@PAUBox@1@@@@std@@YAXAAV?$allocator@PAUDNode@?$AStarSearcher@VBoxSpace@@PAUBox@1@@@@0@PAPAUDNode@?$AStarSearcher@VBoxSpace@@PAUBox@1@@@@Z
_TEXT	SEGMENT
__Alval$ = 8						; size = 4
__Pdest$ = 12						; size = 4
??$_Dest_val@V?$allocator@PAUDNode@?$AStarSearcher@VBoxSpace@@PAUBox@1@@@@std@@PAUDNode@?$AStarSearcher@VBoxSpace@@PAUBox@1@@@@std@@YAXAAV?$allocator@PAUDNode@?$AStarSearcher@VBoxSpace@@PAUBox@1@@@@0@PAPAUDNode@?$AStarSearcher@VBoxSpace@@PAUBox@1@@@@Z PROC ; std::_Dest_val<std::allocator<AStarSearcher<BoxSpace,BoxSpace::Box *>::DNode *>,AStarSearcher<BoxSpace,BoxSpace::Box *>::DNode *>, COMDAT

; 287  : 	_Alval.destroy(_Pdest);
; 288  : 	}

  00000	c3		 ret	 0
??$_Dest_val@V?$allocator@PAUDNode@?$AStarSearcher@VBoxSpace@@PAUBox@1@@@@std@@PAUDNode@?$AStarSearcher@VBoxSpace@@PAUBox@1@@@@std@@YAXAAV?$allocator@PAUDNode@?$AStarSearcher@VBoxSpace@@PAUBox@1@@@@0@PAPAUDNode@?$AStarSearcher@VBoxSpace@@PAUBox@1@@@@Z ENDP ; std::_Dest_val<std::allocator<AStarSearcher<BoxSpace,BoxSpace::Box *>::DNode *>,AStarSearcher<BoxSpace,BoxSpace::Box *>::DNode *>
_TEXT	ENDS
PUBLIC	??$_Umove@PAPAUDNode@?$AStarSearcher@VBoxSpace@@PAUBox@1@@@@?$vector@PAUDNode@?$AStarSearcher@VBoxSpace@@PAUBox@1@@@V?$allocator@PAUDNode@?$AStarSearcher@VBoxSpace@@PAUBox@1@@@@std@@@std@@IAEPAPAUDNode@?$AStarSearcher@VBoxSpace@@PAUBox@1@@@PAPAU23@00@Z ; std::vector<AStarSearcher<BoxSpace,BoxSpace::Box *>::DNode *,std::allocator<AStarSearcher<BoxSpace,BoxSpace::Box *>::DNode *> >::_Umove<AStarSearcher<BoxSpace,BoxSpace::Box *>::DNode * *>
; Function compile flags: /Ogsp
; File c:\program files (x86)\microsoft visual studio 10.0\vc\include\vector
;	COMDAT ??$_Umove@PAPAUDNode@?$AStarSearcher@VBoxSpace@@PAUBox@1@@@@?$vector@PAUDNode@?$AStarSearcher@VBoxSpace@@PAUBox@1@@@V?$allocator@PAUDNode@?$AStarSearcher@VBoxSpace@@PAUBox@1@@@@std@@@std@@IAEPAPAUDNode@?$AStarSearcher@VBoxSpace@@PAUBox@1@@@PAPAU23@00@Z
_TEXT	SEGMENT
__First$ = 8						; size = 4
__Last$ = 12						; size = 4
__Ptr$ = 16						; size = 4
??$_Umove@PAPAUDNode@?$AStarSearcher@VBoxSpace@@PAUBox@1@@@@?$vector@PAUDNode@?$AStarSearcher@VBoxSpace@@PAUBox@1@@@V?$allocator@PAUDNode@?$AStarSearcher@VBoxSpace@@PAUBox@1@@@@std@@@std@@IAEPAPAUDNode@?$AStarSearcher@VBoxSpace@@PAUBox@1@@@PAPAU23@00@Z PROC ; std::vector<AStarSearcher<BoxSpace,BoxSpace::Box *>::DNode *,std::allocator<AStarSearcher<BoxSpace,BoxSpace::Box *>::DNode *> >::_Umove<AStarSearcher<BoxSpace,BoxSpace::Box *>::DNode * *>, COMDAT
; _this$ = ecx

; 1322 : 		pointer _Umove(_Iter _First, _Iter _Last, pointer _Ptr)

  00000	55		 push	 ebp
  00001	8b ec		 mov	 ebp, esp

; 1323 : 		{	// move initializing [_First, _Last), using allocator
; 1324 : 		return (_Uninitialized_move(_First, _Last,
; 1325 : 			_Ptr, this->_Alval));

  00003	83 c1 0c	 add	 ecx, 12			; 0000000cH
  00006	51		 push	 ecx
  00007	ff 75 10	 push	 DWORD PTR __Ptr$[ebp]
  0000a	ff 75 0c	 push	 DWORD PTR __Last$[ebp]
  0000d	ff 75 08	 push	 DWORD PTR __First$[ebp]
  00010	e8 00 00 00 00	 call	 ??$_Uninitialized_move@PAPAUDNode@?$AStarSearcher@VBoxSpace@@PAUBox@1@@@PAPAU12@V?$allocator@PAUDNode@?$AStarSearcher@VBoxSpace@@PAUBox@1@@@@std@@@std@@YAPAPAUDNode@?$AStarSearcher@VBoxSpace@@PAUBox@1@@@PAPAU12@00AAV?$allocator@PAUDNode@?$AStarSearcher@VBoxSpace@@PAUBox@1@@@@0@@Z ; std::_Uninitialized_move<AStarSearcher<BoxSpace,BoxSpace::Box *>::DNode * *,AStarSearcher<BoxSpace,BoxSpace::Box *>::DNode * *,std::allocator<AStarSearcher<BoxSpace,BoxSpace::Box *>::DNode *> >
  00015	83 c4 10	 add	 esp, 16			; 00000010H

; 1326 : 		}

  00018	5d		 pop	 ebp
  00019	c2 0c 00	 ret	 12			; 0000000cH
??$_Umove@PAPAUDNode@?$AStarSearcher@VBoxSpace@@PAUBox@1@@@@?$vector@PAUDNode@?$AStarSearcher@VBoxSpace@@PAUBox@1@@@V?$allocator@PAUDNode@?$AStarSearcher@VBoxSpace@@PAUBox@1@@@@std@@@std@@IAEPAPAUDNode@?$AStarSearcher@VBoxSpace@@PAUBox@1@@@PAPAU23@00@Z ENDP ; std::vector<AStarSearcher<BoxSpace,BoxSpace::Box *>::DNode *,std::allocator<AStarSearcher<BoxSpace,BoxSpace::Box *>::DNode *> >::_Umove<AStarSearcher<BoxSpace,BoxSpace::Box *>::DNode * *>
_TEXT	ENDS
PUBLIC	??$_Umove@PAPBQAUBox@BoxSpace@@@?$vector@PBQAUBox@BoxSpace@@V?$allocator@PBQAUBox@BoxSpace@@@std@@@std@@IAEPAPBQAUBox@BoxSpace@@PAPBQAU23@00@Z ; std::vector<BoxSpace::Box * const *,std::allocator<BoxSpace::Box * const *> >::_Umove<BoxSpace::Box * const * *>
; Function compile flags: /Ogsp
;	COMDAT ??$_Umove@PAPBQAUBox@BoxSpace@@@?$vector@PBQAUBox@BoxSpace@@V?$allocator@PBQAUBox@BoxSpace@@@std@@@std@@IAEPAPBQAUBox@BoxSpace@@PAPBQAU23@00@Z
_TEXT	SEGMENT
__First$ = 8						; size = 4
__Last$ = 12						; size = 4
__Ptr$ = 16						; size = 4
??$_Umove@PAPBQAUBox@BoxSpace@@@?$vector@PBQAUBox@BoxSpace@@V?$allocator@PBQAUBox@BoxSpace@@@std@@@std@@IAEPAPBQAUBox@BoxSpace@@PAPBQAU23@00@Z PROC ; std::vector<BoxSpace::Box * const *,std::allocator<BoxSpace::Box * const *> >::_Umove<BoxSpace::Box * const * *>, COMDAT
; _this$ = ecx

; 1322 : 		pointer _Umove(_Iter _First, _Iter _Last, pointer _Ptr)

  00000	55		 push	 ebp
  00001	8b ec		 mov	 ebp, esp

; 1323 : 		{	// move initializing [_First, _Last), using allocator
; 1324 : 		return (_Uninitialized_move(_First, _Last,
; 1325 : 			_Ptr, this->_Alval));

  00003	83 c1 0c	 add	 ecx, 12			; 0000000cH
  00006	51		 push	 ecx
  00007	ff 75 10	 push	 DWORD PTR __Ptr$[ebp]
  0000a	ff 75 0c	 push	 DWORD PTR __Last$[ebp]
  0000d	ff 75 08	 push	 DWORD PTR __First$[ebp]
  00010	e8 00 00 00 00	 call	 ??$_Uninitialized_move@PAPBQAUBox@BoxSpace@@PAPBQAU12@V?$allocator@PBQAUBox@BoxSpace@@@std@@@std@@YAPAPBQAUBox@BoxSpace@@PAPBQAU12@00AAV?$allocator@PBQAUBox@BoxSpace@@@0@@Z ; std::_Uninitialized_move<BoxSpace::Box * const * *,BoxSpace::Box * const * *,std::allocator<BoxSpace::Box * const *> >
  00015	83 c4 10	 add	 esp, 16			; 00000010H

; 1326 : 		}

  00018	5d		 pop	 ebp
  00019	c2 0c 00	 ret	 12			; 0000000cH
??$_Umove@PAPBQAUBox@BoxSpace@@@?$vector@PBQAUBox@BoxSpace@@V?$allocator@PBQAUBox@BoxSpace@@@std@@@std@@IAEPAPBQAUBox@BoxSpace@@PAPBQAU23@00@Z ENDP ; std::vector<BoxSpace::Box * const *,std::allocator<BoxSpace::Box * const *> >::_Umove<BoxSpace::Box * const * *>
_TEXT	ENDS
PUBLIC	??G?$_Vector_iterator@V?$_Vector_val@PAUDNode@?$AStarSearcher@VBoxSpace@@PAUBox@1@@@V?$allocator@PAUDNode@?$AStarSearcher@VBoxSpace@@PAUBox@1@@@@std@@@std@@@std@@QBEHABV?$_Vector_const_iterator@V?$_Vector_val@PAUDNode@?$AStarSearcher@VBoxSpace@@PAUBox@1@@@V?$allocator@PAUDNode@?$AStarSearcher@VBoxSpace@@PAUBox@1@@@@std@@@std@@@1@@Z ; std::_Vector_iterator<std::_Vector_val<AStarSearcher<BoxSpace,BoxSpace::Box *>::DNode *,std::allocator<AStarSearcher<BoxSpace,BoxSpace::Box *>::DNode *> > >::operator-
; Function compile flags: /Ogsp
;	COMDAT ??G?$_Vector_iterator@V?$_Vector_val@PAUDNode@?$AStarSearcher@VBoxSpace@@PAUBox@1@@@V?$allocator@PAUDNode@?$AStarSearcher@VBoxSpace@@PAUBox@1@@@@std@@@std@@@std@@QBEHABV?$_Vector_const_iterator@V?$_Vector_val@PAUDNode@?$AStarSearcher@VBoxSpace@@PAUBox@1@@@V?$allocator@PAUDNode@?$AStarSearcher@VBoxSpace@@PAUBox@1@@@@std@@@std@@@1@@Z
_TEXT	SEGMENT
__Right$ = 8						; size = 4
??G?$_Vector_iterator@V?$_Vector_val@PAUDNode@?$AStarSearcher@VBoxSpace@@PAUBox@1@@@V?$allocator@PAUDNode@?$AStarSearcher@VBoxSpace@@PAUBox@1@@@@std@@@std@@@std@@QBEHABV?$_Vector_const_iterator@V?$_Vector_val@PAUDNode@?$AStarSearcher@VBoxSpace@@PAUBox@1@@@V?$allocator@PAUDNode@?$AStarSearcher@VBoxSpace@@PAUBox@1@@@@std@@@std@@@1@@Z PROC ; std::_Vector_iterator<std::_Vector_val<AStarSearcher<BoxSpace,BoxSpace::Box *>::DNode *,std::allocator<AStarSearcher<BoxSpace,BoxSpace::Box *>::DNode *> > >::operator-, COMDAT
; _this$ = ecx

; 380  : 		{	// return difference of iterators

  00000	55		 push	 ebp
  00001	8b ec		 mov	 ebp, esp

; 381  : 		return (*(_Mybase *)this - _Right);

  00003	8b 01		 mov	 eax, DWORD PTR [ecx]
  00005	8b 4d 08	 mov	 ecx, DWORD PTR __Right$[ebp]
  00008	2b 01		 sub	 eax, DWORD PTR [ecx]
  0000a	c1 f8 02	 sar	 eax, 2

; 382  : 		}

  0000d	5d		 pop	 ebp
  0000e	c2 04 00	 ret	 4
??G?$_Vector_iterator@V?$_Vector_val@PAUDNode@?$AStarSearcher@VBoxSpace@@PAUBox@1@@@V?$allocator@PAUDNode@?$AStarSearcher@VBoxSpace@@PAUBox@1@@@@std@@@std@@@std@@QBEHABV?$_Vector_const_iterator@V?$_Vector_val@PAUDNode@?$AStarSearcher@VBoxSpace@@PAUBox@1@@@V?$allocator@PAUDNode@?$AStarSearcher@VBoxSpace@@PAUBox@1@@@@std@@@std@@@1@@Z ENDP ; std::_Vector_iterator<std::_Vector_val<AStarSearcher<BoxSpace,BoxSpace::Box *>::DNode *,std::allocator<AStarSearcher<BoxSpace,BoxSpace::Box *>::DNode *> > >::operator-
_TEXT	ENDS
PUBLIC	??$_Push_heap_0@PAPAUDNode@?$AStarSearcher@VBoxSpace@@PAUBox@1@@@HPAU12@UDNodeCostGreater@2@@std@@YAXPAPAUDNode@?$AStarSearcher@VBoxSpace@@PAUBox@1@@@0UDNodeCostGreater@2@PAH0@Z ; std::_Push_heap_0<AStarSearcher<BoxSpace,BoxSpace::Box *>::DNode * *,int,AStarSearcher<BoxSpace,BoxSpace::Box *>::DNode *,AStarSearcher<BoxSpace,BoxSpace::Box *>::DNodeCostGreater>
; Function compile flags: /Ogsp
; File c:\program files (x86)\microsoft visual studio 10.0\vc\include\algorithm
;	COMDAT ??$_Push_heap_0@PAPAUDNode@?$AStarSearcher@VBoxSpace@@PAUBox@1@@@HPAU12@UDNodeCostGreater@2@@std@@YAXPAPAUDNode@?$AStarSearcher@VBoxSpace@@PAUBox@1@@@0UDNodeCostGreater@2@PAH0@Z
_TEXT	SEGMENT
__First$ = 8						; size = 4
__Val$507388 = 12					; size = 4
__Last$ = 12						; size = 4
__Pred$ = 16						; size = 1
___formal$ = 20						; size = 4
___formal$ = 24						; size = 4
??$_Push_heap_0@PAPAUDNode@?$AStarSearcher@VBoxSpace@@PAUBox@1@@@HPAU12@UDNodeCostGreater@2@@std@@YAXPAPAUDNode@?$AStarSearcher@VBoxSpace@@PAUBox@1@@@0UDNodeCostGreater@2@PAH0@Z PROC ; std::_Push_heap_0<AStarSearcher<BoxSpace,BoxSpace::Box *>::DNode * *,int,AStarSearcher<BoxSpace,BoxSpace::Box *>::DNode *,AStarSearcher<BoxSpace,BoxSpace::Box *>::DNodeCostGreater>, COMDAT

; 2472 : 	{	// push *_Last onto heap at [_First, _Last), using _Pred

  00000	55		 push	 ebp
  00001	8b ec		 mov	 ebp, esp

; 2473 : 	_Diff _Count = _Last - _First;

  00003	8b 4d 0c	 mov	 ecx, DWORD PTR __Last$[ebp]
  00006	8b c1		 mov	 eax, ecx
  00008	2b 45 08	 sub	 eax, DWORD PTR __First$[ebp]
  0000b	c1 f8 02	 sar	 eax, 2

; 2474 : 	if (0 < _Count)

  0000e	85 c0		 test	 eax, eax
  00010	7e 1a		 jle	 SHORT $LN1@Push_heap_

; 2475 : 		{	// worth doing, percolate *_Last
; 2476 : 		_Ty _Val = _Move(*_Last);

  00012	8b 09		 mov	 ecx, DWORD PTR [ecx]

; 2477 : 		_Push_heap(_First, _Count, _Diff(0), _Move(_Val), _Pred);

  00014	ff 75 10	 push	 DWORD PTR __Pred$[ebp]
  00017	89 4d 0c	 mov	 DWORD PTR __Val$507388[ebp], ecx
  0001a	8d 4d 0c	 lea	 ecx, DWORD PTR __Val$507388[ebp]
  0001d	51		 push	 ecx
  0001e	6a 00		 push	 0
  00020	50		 push	 eax
  00021	ff 75 08	 push	 DWORD PTR __First$[ebp]
  00024	e8 00 00 00 00	 call	 ??$_Push_heap@PAPAUDNode@?$AStarSearcher@VBoxSpace@@PAUBox@1@@@HPAU12@UDNodeCostGreater@2@@std@@YAXPAPAUDNode@?$AStarSearcher@VBoxSpace@@PAUBox@1@@@HH$$QAPAU12@UDNodeCostGreater@2@@Z ; std::_Push_heap<AStarSearcher<BoxSpace,BoxSpace::Box *>::DNode * *,int,AStarSearcher<BoxSpace,BoxSpace::Box *>::DNode *,AStarSearcher<BoxSpace,BoxSpace::Box *>::DNodeCostGreater>
  00029	83 c4 14	 add	 esp, 20			; 00000014H
$LN1@Push_heap_:

; 2478 : 		}
; 2479 : 	}

  0002c	5d		 pop	 ebp
  0002d	c3		 ret	 0
??$_Push_heap_0@PAPAUDNode@?$AStarSearcher@VBoxSpace@@PAUBox@1@@@HPAU12@UDNodeCostGreater@2@@std@@YAXPAPAUDNode@?$AStarSearcher@VBoxSpace@@PAUBox@1@@@0UDNodeCostGreater@2@PAH0@Z ENDP ; std::_Push_heap_0<AStarSearcher<BoxSpace,BoxSpace::Box *>::DNode * *,int,AStarSearcher<BoxSpace,BoxSpace::Box *>::DNode *,AStarSearcher<BoxSpace,BoxSpace::Box *>::DNodeCostGreater>
_TEXT	ENDS
PUBLIC	??$_Cons_val@V?$allocator@ULink@BoxSpace@@@std@@ULink@BoxSpace@@U34@@std@@YAXAAV?$allocator@ULink@BoxSpace@@@0@PAULink@BoxSpace@@$$QAU23@@Z ; std::_Cons_val<std::allocator<BoxSpace::Link>,BoxSpace::Link,BoxSpace::Link>
; Function compile flags: /Ogsp
; File c:\program files (x86)\microsoft visual studio 10.0\vc\include\xmemory
;	COMDAT ??$_Cons_val@V?$allocator@ULink@BoxSpace@@@std@@ULink@BoxSpace@@U34@@std@@YAXAAV?$allocator@ULink@BoxSpace@@@0@PAULink@BoxSpace@@$$QAU23@@Z
_TEXT	SEGMENT
__Alval$ = 8						; size = 4
__Pdest$ = 12						; size = 4
__Src$ = 16						; size = 4
??$_Cons_val@V?$allocator@ULink@BoxSpace@@@std@@ULink@BoxSpace@@U34@@std@@YAXAAV?$allocator@ULink@BoxSpace@@@0@PAULink@BoxSpace@@$$QAU23@@Z PROC ; std::_Cons_val<std::allocator<BoxSpace::Link>,BoxSpace::Link,BoxSpace::Link>, COMDAT

; 279  : 	{	// construct using allocator

  00000	55		 push	 ebp
  00001	8b ec		 mov	 ebp, esp
  00003	57		 push	 edi

; 280  : 	_Alval.construct(_Pdest, _STD forward<_Ty2>(_Src));

  00004	8b 7d 0c	 mov	 edi, DWORD PTR __Pdest$[ebp]
  00007	85 ff		 test	 edi, edi
  00009	74 0a		 je	 SHORT $LN7@Cons_val@10
  0000b	56		 push	 esi
  0000c	8b 75 10	 mov	 esi, DWORD PTR __Src$[ebp]
  0000f	6a 08		 push	 8
  00011	59		 pop	 ecx
  00012	f3 a5		 rep movsd
  00014	5e		 pop	 esi
$LN7@Cons_val@10:
  00015	5f		 pop	 edi

; 281  : 	}

  00016	5d		 pop	 ebp
  00017	c3		 ret	 0
??$_Cons_val@V?$allocator@ULink@BoxSpace@@@std@@ULink@BoxSpace@@U34@@std@@YAXAAV?$allocator@ULink@BoxSpace@@@0@PAULink@BoxSpace@@$$QAU23@@Z ENDP ; std::_Cons_val<std::allocator<BoxSpace::Link>,BoxSpace::Link,BoxSpace::Link>
_TEXT	ENDS
PUBLIC	??$_Pop_heap@PAPAUDNode@?$AStarSearcher@VBoxSpace@@PAUBox@1@@@HPAU12@UDNodeCostGreater@2@@std@@YAXPAPAUDNode@?$AStarSearcher@VBoxSpace@@PAUBox@1@@@00$$QAPAU12@UDNodeCostGreater@2@PAH@Z ; std::_Pop_heap<AStarSearcher<BoxSpace,BoxSpace::Box *>::DNode * *,int,AStarSearcher<BoxSpace,BoxSpace::Box *>::DNode *,AStarSearcher<BoxSpace,BoxSpace::Box *>::DNodeCostGreater>
; Function compile flags: /Ogsp
; File c:\program files (x86)\microsoft visual studio 10.0\vc\include\algorithm
;	COMDAT ??$_Pop_heap@PAPAUDNode@?$AStarSearcher@VBoxSpace@@PAUBox@1@@@HPAU12@UDNodeCostGreater@2@@std@@YAXPAPAUDNode@?$AStarSearcher@VBoxSpace@@PAUBox@1@@@00$$QAPAU12@UDNodeCostGreater@2@PAH@Z
_TEXT	SEGMENT
__First$ = 8						; size = 4
__Last$ = 12						; size = 4
__Dest$ = 16						; size = 4
__Val$ = 20						; size = 4
__Pred$ = 24						; size = 1
___formal$ = 28						; size = 4
??$_Pop_heap@PAPAUDNode@?$AStarSearcher@VBoxSpace@@PAUBox@1@@@HPAU12@UDNodeCostGreater@2@@std@@YAXPAPAUDNode@?$AStarSearcher@VBoxSpace@@PAUBox@1@@@00$$QAPAU12@UDNodeCostGreater@2@PAH@Z PROC ; std::_Pop_heap<AStarSearcher<BoxSpace,BoxSpace::Box *>::DNode * *,int,AStarSearcher<BoxSpace,BoxSpace::Box *>::DNode *,AStarSearcher<BoxSpace,BoxSpace::Box *>::DNodeCostGreater>, COMDAT

; 2591 : 	{	// pop *_First to *_Dest and reheap, using _Pred

  00000	55		 push	 ebp
  00001	8b ec		 mov	 ebp, esp

; 2592 : 	*_Dest = _Move(*_First);

  00003	8b 45 08	 mov	 eax, DWORD PTR __First$[ebp]
  00006	8b 08		 mov	 ecx, DWORD PTR [eax]
  00008	8b 55 10	 mov	 edx, DWORD PTR __Dest$[ebp]

; 2593 : 	_Adjust_heap(_First, _Diff(0), _Diff(_Last - _First),
; 2594 : 		_Move(_Val), _Pred);

  0000b	ff 75 18	 push	 DWORD PTR __Pred$[ebp]
  0000e	89 0a		 mov	 DWORD PTR [edx], ecx
  00010	8b 4d 0c	 mov	 ecx, DWORD PTR __Last$[ebp]
  00013	ff 75 14	 push	 DWORD PTR __Val$[ebp]
  00016	2b c8		 sub	 ecx, eax
  00018	c1 f9 02	 sar	 ecx, 2
  0001b	51		 push	 ecx
  0001c	6a 00		 push	 0
  0001e	50		 push	 eax
  0001f	e8 00 00 00 00	 call	 ??$_Adjust_heap@PAPAUDNode@?$AStarSearcher@VBoxSpace@@PAUBox@1@@@HPAU12@UDNodeCostGreater@2@@std@@YAXPAPAUDNode@?$AStarSearcher@VBoxSpace@@PAUBox@1@@@HH$$QAPAU12@UDNodeCostGreater@2@@Z ; std::_Adjust_heap<AStarSearcher<BoxSpace,BoxSpace::Box *>::DNode * *,int,AStarSearcher<BoxSpace,BoxSpace::Box *>::DNode *,AStarSearcher<BoxSpace,BoxSpace::Box *>::DNodeCostGreater>
  00024	83 c4 14	 add	 esp, 20			; 00000014H

; 2595 : 	}

  00027	5d		 pop	 ebp
  00028	c3		 ret	 0
??$_Pop_heap@PAPAUDNode@?$AStarSearcher@VBoxSpace@@PAUBox@1@@@HPAU12@UDNodeCostGreater@2@@std@@YAXPAPAUDNode@?$AStarSearcher@VBoxSpace@@PAUBox@1@@@00$$QAPAU12@UDNodeCostGreater@2@PAH@Z ENDP ; std::_Pop_heap<AStarSearcher<BoxSpace,BoxSpace::Box *>::DNode * *,int,AStarSearcher<BoxSpace,BoxSpace::Box *>::DNode *,AStarSearcher<BoxSpace,BoxSpace::Box *>::DNodeCostGreater>
_TEXT	ENDS
PUBLIC	??$lower_bound@PAULink@BoxSpace@@U12@UFn_WalkLess@@@std@@YAPAULink@BoxSpace@@PAU12@0ABU12@UFn_WalkLess@@@Z ; std::lower_bound<BoxSpace::Link *,BoxSpace::Link,Fn_WalkLess>
; Function compile flags: /Ogsp
;	COMDAT ??$lower_bound@PAULink@BoxSpace@@U12@UFn_WalkLess@@@std@@YAPAULink@BoxSpace@@PAU12@0ABU12@UFn_WalkLess@@@Z
_TEXT	SEGMENT
__First$ = 8						; size = 4
__Last$ = 12						; size = 4
__Val$ = 16						; size = 4
__Pred$ = 20						; size = 1
??$lower_bound@PAULink@BoxSpace@@U12@UFn_WalkLess@@@std@@YAPAULink@BoxSpace@@PAU12@0ABU12@UFn_WalkLess@@@Z PROC ; std::lower_bound<BoxSpace::Link *,BoxSpace::Link,Fn_WalkLess>, COMDAT

; 2785 : 	{	// find first element not before _Val, using _Pred

  00000	55		 push	 ebp
  00001	8b ec		 mov	 ebp, esp

; 2786 : //	_DEBUG_ORDER_PRED(_First, _Last, _Pred);
; 2787 : 	return (_Rechecked(_First,
; 2788 : 		_Lower_bound(_Unchecked(_First), _Unchecked(_Last), _Val, _Pred,
; 2789 : 			_Dist_type(_First))));

  00003	6a 00		 push	 0
  00005	ff 75 14	 push	 DWORD PTR __Pred$[ebp]
  00008	ff 75 10	 push	 DWORD PTR __Val$[ebp]
  0000b	ff 75 0c	 push	 DWORD PTR __Last$[ebp]
  0000e	ff 75 08	 push	 DWORD PTR __First$[ebp]
  00011	e8 00 00 00 00	 call	 ??$_Lower_bound@PAULink@BoxSpace@@U12@HUFn_WalkLess@@@std@@YAPAULink@BoxSpace@@PAU12@0ABU12@UFn_WalkLess@@PAH@Z ; std::_Lower_bound<BoxSpace::Link *,BoxSpace::Link,int,Fn_WalkLess>
  00016	83 c4 14	 add	 esp, 20			; 00000014H

; 2790 : 	}

  00019	5d		 pop	 ebp
  0001a	c3		 ret	 0
??$lower_bound@PAULink@BoxSpace@@U12@UFn_WalkLess@@@std@@YAPAULink@BoxSpace@@PAU12@0ABU12@UFn_WalkLess@@@Z ENDP ; std::lower_bound<BoxSpace::Link *,BoxSpace::Link,Fn_WalkLess>
_TEXT	ENDS
PUBLIC	??$upper_bound@PAULink@BoxSpace@@U12@UFn_WalkLess@@@std@@YAPAULink@BoxSpace@@PAU12@0ABU12@UFn_WalkLess@@@Z ; std::upper_bound<BoxSpace::Link *,BoxSpace::Link,Fn_WalkLess>
; Function compile flags: /Ogsp
;	COMDAT ??$upper_bound@PAULink@BoxSpace@@U12@UFn_WalkLess@@@std@@YAPAULink@BoxSpace@@PAU12@0ABU12@UFn_WalkLess@@@Z
_TEXT	SEGMENT
__First$ = 8						; size = 4
__Last$ = 12						; size = 4
__Val$ = 16						; size = 4
__Pred$ = 20						; size = 1
??$upper_bound@PAULink@BoxSpace@@U12@UFn_WalkLess@@@std@@YAPAULink@BoxSpace@@PAU12@0ABU12@UFn_WalkLess@@@Z PROC ; std::upper_bound<BoxSpace::Link *,BoxSpace::Link,Fn_WalkLess>, COMDAT

; 2861 : 	{	// find first element that _Val is before, using _Pred

  00000	55		 push	 ebp
  00001	8b ec		 mov	 ebp, esp

; 2862 : //	_DEBUG_ORDER_PRED(_First, _Last, _Pred);
; 2863 : 	return (_Rechecked(_First,
; 2864 : 		_Upper_bound(_Unchecked(_First), _Unchecked(_Last), _Val, _Pred,
; 2865 : 			_Dist_type(_First))));

  00003	6a 00		 push	 0
  00005	ff 75 14	 push	 DWORD PTR __Pred$[ebp]
  00008	ff 75 10	 push	 DWORD PTR __Val$[ebp]
  0000b	ff 75 0c	 push	 DWORD PTR __Last$[ebp]
  0000e	ff 75 08	 push	 DWORD PTR __First$[ebp]
  00011	e8 00 00 00 00	 call	 ??$_Upper_bound@PAULink@BoxSpace@@U12@HUFn_WalkLess@@@std@@YAPAULink@BoxSpace@@PAU12@0ABU12@UFn_WalkLess@@PAH@Z ; std::_Upper_bound<BoxSpace::Link *,BoxSpace::Link,int,Fn_WalkLess>
  00016	83 c4 14	 add	 esp, 20			; 00000014H

; 2866 : 	}

  00019	5d		 pop	 ebp
  0001a	c3		 ret	 0
??$upper_bound@PAULink@BoxSpace@@U12@UFn_WalkLess@@@std@@YAPAULink@BoxSpace@@PAU12@0ABU12@UFn_WalkLess@@@Z ENDP ; std::upper_bound<BoxSpace::Link *,BoxSpace::Link,Fn_WalkLess>
_TEXT	ENDS
PUBLIC	??$?0AAPAULink@BoxSpace@@AAH@?$pair@PAULink@BoxSpace@@H@std@@QAE@AAPAULink@BoxSpace@@AAH@Z ; std::pair<BoxSpace::Link *,int>::pair<BoxSpace::Link *,int><BoxSpace::Link * &,int &>
; Function compile flags: /Ogsp
; File c:\program files (x86)\microsoft visual studio 10.0\vc\include\utility
;	COMDAT ??$?0AAPAULink@BoxSpace@@AAH@?$pair@PAULink@BoxSpace@@H@std@@QAE@AAPAULink@BoxSpace@@AAH@Z
_TEXT	SEGMENT
__Val1$ = 8						; size = 4
__Val2$ = 12						; size = 4
??$?0AAPAULink@BoxSpace@@AAH@?$pair@PAULink@BoxSpace@@H@std@@QAE@AAPAULink@BoxSpace@@AAH@Z PROC ; std::pair<BoxSpace::Link *,int>::pair<BoxSpace::Link *,int><BoxSpace::Link * &,int &>, COMDAT
; _this$ = ecx

; 247  : 		{	// construct from moved values

  00000	55		 push	 ebp
  00001	8b ec		 mov	 ebp, esp
  00003	8b c1		 mov	 eax, ecx
  00005	8b 4d 08	 mov	 ecx, DWORD PTR __Val1$[ebp]
  00008	8b 09		 mov	 ecx, DWORD PTR [ecx]
  0000a	89 08		 mov	 DWORD PTR [eax], ecx
  0000c	8b 4d 0c	 mov	 ecx, DWORD PTR __Val2$[ebp]
  0000f	8b 09		 mov	 ecx, DWORD PTR [ecx]
  00011	89 48 04	 mov	 DWORD PTR [eax+4], ecx

; 248  : 		}

  00014	5d		 pop	 ebp
  00015	c2 08 00	 ret	 8
??$?0AAPAULink@BoxSpace@@AAH@?$pair@PAULink@BoxSpace@@H@std@@QAE@AAPAULink@BoxSpace@@AAH@Z ENDP ; std::pair<BoxSpace::Link *,int>::pair<BoxSpace::Link *,int><BoxSpace::Link * &,int &>
_TEXT	ENDS
PUBLIC	??$_Move_backward@PAULink@BoxSpace@@PAU12@@std@@YAPAULink@BoxSpace@@PAU12@00@Z ; std::_Move_backward<BoxSpace::Link *,BoxSpace::Link *>
; Function compile flags: /Ogsp
; File c:\program files (x86)\microsoft visual studio 10.0\vc\include\xutility
;	COMDAT ??$_Move_backward@PAULink@BoxSpace@@PAU12@@std@@YAPAULink@BoxSpace@@PAU12@00@Z
_TEXT	SEGMENT
__Cat$512423 = -4					; size = 1
__First$ = 8						; size = 4
__Last$ = 12						; size = 4
__Dest$ = 16						; size = 4
??$_Move_backward@PAULink@BoxSpace@@PAU12@@std@@YAPAULink@BoxSpace@@PAU12@00@Z PROC ; std::_Move_backward<BoxSpace::Link *,BoxSpace::Link *>, COMDAT

; 2638 : 	{	// move [_First, _Last) backwards to [..., _Dest), unchecked

  00000	55		 push	 ebp
  00001	8b ec		 mov	 ebp, esp
  00003	51		 push	 ecx

; 2639 : 	return (_Move_backward(_First, _Last,
; 2640 : 		_Dest, _Ptr_cat(_First, _Dest)));

  00004	ff 75 fc	 push	 DWORD PTR __Cat$512423[ebp]
  00007	ff 75 10	 push	 DWORD PTR __Dest$[ebp]
  0000a	ff 75 0c	 push	 DWORD PTR __Last$[ebp]
  0000d	ff 75 08	 push	 DWORD PTR __First$[ebp]
  00010	e8 00 00 00 00	 call	 ??$_Move_backward@PAULink@BoxSpace@@PAU12@@std@@YAPAULink@BoxSpace@@PAU12@00U_Nonscalar_ptr_iterator_tag@0@@Z ; std::_Move_backward<BoxSpace::Link *,BoxSpace::Link *>
  00015	83 c4 10	 add	 esp, 16			; 00000010H

; 2641 : 	}

  00018	c9		 leave
  00019	c3		 ret	 0
??$_Move_backward@PAULink@BoxSpace@@PAU12@@std@@YAPAULink@BoxSpace@@PAU12@00@Z ENDP ; std::_Move_backward<BoxSpace::Link *,BoxSpace::Link *>
_TEXT	ENDS
PUBLIC	??$_Move@PAULink@BoxSpace@@PAU12@@std@@YAPAULink@BoxSpace@@PAU12@00@Z ; std::_Move<BoxSpace::Link *,BoxSpace::Link *>
; Function compile flags: /Ogsp
;	COMDAT ??$_Move@PAULink@BoxSpace@@PAU12@@std@@YAPAULink@BoxSpace@@PAU12@00@Z
_TEXT	SEGMENT
__Cat$512430 = -4					; size = 1
__First$ = 8						; size = 4
__Last$ = 12						; size = 4
__Dest$ = 16						; size = 4
??$_Move@PAULink@BoxSpace@@PAU12@@std@@YAPAULink@BoxSpace@@PAU12@00@Z PROC ; std::_Move<BoxSpace::Link *,BoxSpace::Link *>, COMDAT

; 2533 : 	{	// move [_First, _Last) to [_Dest, ...), unchecked

  00000	55		 push	 ebp
  00001	8b ec		 mov	 ebp, esp
  00003	51		 push	 ecx

; 2534 : 	return (_Move(_First, _Last,
; 2535 : 		_Dest, _Ptr_cat(_First, _Dest)));

  00004	ff 75 fc	 push	 DWORD PTR __Cat$512430[ebp]
  00007	ff 75 10	 push	 DWORD PTR __Dest$[ebp]
  0000a	ff 75 0c	 push	 DWORD PTR __Last$[ebp]
  0000d	ff 75 08	 push	 DWORD PTR __First$[ebp]
  00010	e8 00 00 00 00	 call	 ??$_Move@PAULink@BoxSpace@@PAU12@@std@@YAPAULink@BoxSpace@@PAU12@00U_Nonscalar_ptr_iterator_tag@0@@Z ; std::_Move<BoxSpace::Link *,BoxSpace::Link *>
  00015	83 c4 10	 add	 esp, 16			; 00000010H

; 2536 : 	}

  00018	c9		 leave
  00019	c3		 ret	 0
??$_Move@PAULink@BoxSpace@@PAU12@@std@@YAPAULink@BoxSpace@@PAU12@00@Z ENDP ; std::_Move<BoxSpace::Link *,BoxSpace::Link *>
_TEXT	ENDS
PUBLIC	??$_Move@PAULink@BoxSpace@@V?$_Temp_iterator@ULink@BoxSpace@@@std@@@std@@YA?AV?$_Temp_iterator@ULink@BoxSpace@@@0@PAULink@BoxSpace@@0V10@U_Nonscalar_ptr_iterator_tag@0@@Z ; std::_Move<BoxSpace::Link *,std::_Temp_iterator<BoxSpace::Link> >
; Function compile flags: /Ogsp
;	COMDAT ??$_Move@PAULink@BoxSpace@@V?$_Temp_iterator@ULink@BoxSpace@@@std@@@std@@YA?AV?$_Temp_iterator@ULink@BoxSpace@@@0@PAULink@BoxSpace@@0V10@U_Nonscalar_ptr_iterator_tag@0@@Z
_TEXT	SEGMENT
$T512436 = -4						; size = 4
___$ReturnUdt$ = 8					; size = 4
__First$ = 12						; size = 4
__Last$ = 16						; size = 4
__Dest$ = 20						; size = 20
___formal$ = 40						; size = 1
??$_Move@PAULink@BoxSpace@@V?$_Temp_iterator@ULink@BoxSpace@@@std@@@std@@YA?AV?$_Temp_iterator@ULink@BoxSpace@@@0@PAULink@BoxSpace@@0V10@U_Nonscalar_ptr_iterator_tag@0@@Z PROC ; std::_Move<BoxSpace::Link *,std::_Temp_iterator<BoxSpace::Link> >, COMDAT

; 2512 : 	{	// move [_First, _Last) to [_Dest, ...), arbitrary iterators

  00000	55		 push	 ebp
  00001	8b ec		 mov	 ebp, esp
  00003	51		 push	 ecx
  00004	56		 push	 esi

; 2513 : 	for (; _First != _Last; ++_Dest, ++_First)

  00005	8b 75 0c	 mov	 esi, DWORD PTR __First$[ebp]
  00008	57		 push	 edi
  00009	33 ff		 xor	 edi, edi
  0000b	89 7d fc	 mov	 DWORD PTR $T512436[ebp], edi
  0000e	eb 0c		 jmp	 SHORT $LN33@Move@2
$LL3@Move@2:

; 2514 : 		*_Dest = _STD move(*_First);

  00010	56		 push	 esi
  00011	8d 4d 14	 lea	 ecx, DWORD PTR __Dest$[ebp]
  00014	e8 00 00 00 00	 call	 ??4?$_Temp_iterator@ULink@BoxSpace@@@std@@QAEAAV01@$$QAULink@BoxSpace@@@Z ; std::_Temp_iterator<BoxSpace::Link>::operator=
  00019	83 c6 20	 add	 esi, 32			; 00000020H
$LN33@Move@2:

; 2513 : 	for (; _First != _Last; ++_Dest, ++_First)

  0001c	3b 75 10	 cmp	 esi, DWORD PTR __Last$[ebp]
  0001f	75 ef		 jne	 SHORT $LL3@Move@2

; 2515 : 	return (_Dest);

  00021	8b 75 08	 mov	 esi, DWORD PTR ___$ReturnUdt$[ebp]
  00024	8b 45 24	 mov	 eax, DWORD PTR __Dest$[ebp+16]
  00027	89 3e		 mov	 DWORD PTR [esi], edi
  00029	89 7e 04	 mov	 DWORD PTR [esi+4], edi
  0002c	89 7e 08	 mov	 DWORD PTR [esi+8], edi
  0002f	89 7e 0c	 mov	 DWORD PTR [esi+12], edi
  00032	89 46 10	 mov	 DWORD PTR [esi+16], eax
  00035	39 7d 14	 cmp	 DWORD PTR __Dest$[ebp], edi
  00038	74 09		 je	 SHORT $LN27@Move@2
  0003a	ff 75 14	 push	 DWORD PTR __Dest$[ebp]
  0003d	e8 00 00 00 00	 call	 ??3@YAXPAX@Z		; operator delete
  00042	59		 pop	 ecx
$LN27@Move@2:
  00043	5f		 pop	 edi
  00044	8b c6		 mov	 eax, esi
  00046	5e		 pop	 esi

; 2516 : 	}

  00047	c9		 leave
  00048	c3		 ret	 0
??$_Move@PAULink@BoxSpace@@V?$_Temp_iterator@ULink@BoxSpace@@@std@@@std@@YA?AV?$_Temp_iterator@ULink@BoxSpace@@@0@PAULink@BoxSpace@@0V10@U_Nonscalar_ptr_iterator_tag@0@@Z ENDP ; std::_Move<BoxSpace::Link *,std::_Temp_iterator<BoxSpace::Link> >
_TEXT	ENDS
PUBLIC	??$_Rotate@PAULink@BoxSpace@@@std@@YAXPAULink@BoxSpace@@00Urandom_access_iterator_tag@0@@Z ; std::_Rotate<BoxSpace::Link *>
; Function compile flags: /Ogsp
;	COMDAT ??$_Rotate@PAULink@BoxSpace@@@std@@YAXPAULink@BoxSpace@@00Urandom_access_iterator_tag@0@@Z
_TEXT	SEGMENT
__First$ = 8						; size = 4
__Mid$ = 12						; size = 4
__Last$ = 16						; size = 4
___formal$ = 20						; size = 1
??$_Rotate@PAULink@BoxSpace@@@std@@YAXPAULink@BoxSpace@@00Urandom_access_iterator_tag@0@@Z PROC ; std::_Rotate<BoxSpace::Link *>, COMDAT

; 3288 : 	{	// rotate [_First, _Last), random-access iterators

  00000	55		 push	 ebp
  00001	8b ec		 mov	 ebp, esp

; 3289 : 	_Rotate(_First, _Mid, _Last, _Dist_type(_First), _Val_type(_First));

  00003	6a 00		 push	 0
  00005	6a 00		 push	 0
  00007	ff 75 10	 push	 DWORD PTR __Last$[ebp]
  0000a	ff 75 0c	 push	 DWORD PTR __Mid$[ebp]
  0000d	ff 75 08	 push	 DWORD PTR __First$[ebp]
  00010	e8 00 00 00 00	 call	 ??$_Rotate@PAULink@BoxSpace@@HU12@@std@@YAXPAULink@BoxSpace@@00PAH0@Z ; std::_Rotate<BoxSpace::Link *,int,BoxSpace::Link>
  00015	83 c4 14	 add	 esp, 20			; 00000014H

; 3290 : 	}

  00018	5d		 pop	 ebp
  00019	c3		 ret	 0
??$_Rotate@PAULink@BoxSpace@@@std@@YAXPAULink@BoxSpace@@00Urandom_access_iterator_tag@0@@Z ENDP ; std::_Rotate<BoxSpace::Link *>
_TEXT	ENDS
PUBLIC	?_Tidy@?$basic_string@DU?$char_traits@D@std@@V?$allocator@D@2@@std@@QAEX_NI@Z ; std::basic_string<char,std::char_traits<char>,std::allocator<char> >::_Tidy
; Function compile flags: /Ogsp
; File c:\program files (x86)\microsoft visual studio 10.0\vc\include\xstring
;	COMDAT ?_Tidy@?$basic_string@DU?$char_traits@D@std@@V?$allocator@D@2@@std@@QAEX_NI@Z
_TEXT	SEGMENT
__Built$ = 8						; size = 1
__Newsize$ = 12						; size = 4
?_Tidy@?$basic_string@DU?$char_traits@D@std@@V?$allocator@D@2@@std@@QAEX_NI@Z PROC ; std::basic_string<char,std::char_traits<char>,std::allocator<char> >::_Tidy, COMDAT
; _this$ = ecx

; 1988 : 		{	// initialize buffer, deallocating any storage

  00000	55		 push	 ebp
  00001	8b ec		 mov	 ebp, esp

; 1989 : 		if (!_Built)

  00003	80 7d 08 00	 cmp	 BYTE PTR __Built$[ebp], 0
  00007	56		 push	 esi
  00008	57		 push	 edi
  00009	8b 7d 0c	 mov	 edi, DWORD PTR __Newsize$[ebp]
  0000c	8b f1		 mov	 esi, ecx
  0000e	74 20		 je	 SHORT $LN9@Tidy

; 1990 : 			;
; 1991 : 		else if (this->_BUF_SIZE <= this->_Myres)

  00010	83 7e 14 10	 cmp	 DWORD PTR [esi+20], 16	; 00000010H
  00014	72 1a		 jb	 SHORT $LN9@Tidy

; 1992 : 			{	// copy any leftovers to small buffer and deallocate
; 1993 : 			_Elem *_Ptr = this->_Bx._Ptr;

  00016	53		 push	 ebx
  00017	8b 1e		 mov	 ebx, DWORD PTR [esi]

; 1994 : 			if (0 < _Newsize)

  00019	85 ff		 test	 edi, edi
  0001b	74 0b		 je	 SHORT $LN7@Tidy

; 1995 : 				_Traits::copy(this->_Bx._Buf, _Ptr, _Newsize);

  0001d	57		 push	 edi
  0001e	53		 push	 ebx
  0001f	56		 push	 esi
  00020	e8 00 00 00 00	 call	 _memcpy
  00025	83 c4 0c	 add	 esp, 12			; 0000000cH
$LN7@Tidy:

; 1996 : 			this->_Alval.deallocate(_Ptr, this->_Myres + 1);

  00028	53		 push	 ebx
  00029	e8 00 00 00 00	 call	 ??3@YAXPAX@Z		; operator delete
  0002e	59		 pop	 ecx
  0002f	5b		 pop	 ebx
$LN9@Tidy:

; 1997 : 			}
; 1998 : 		this->_Myres = this->_BUF_SIZE - 1;
; 1999 : 		_Eos(_Newsize);

  00030	89 7e 10	 mov	 DWORD PTR [esi+16], edi
  00033	c7 46 14 0f 00
	00 00		 mov	 DWORD PTR [esi+20], 15	; 0000000fH
  0003a	c6 04 37 00	 mov	 BYTE PTR [edi+esi], 0
  0003e	5f		 pop	 edi
  0003f	5e		 pop	 esi

; 2000 : 		}

  00040	5d		 pop	 ebp
  00041	c2 08 00	 ret	 8
?_Tidy@?$basic_string@DU?$char_traits@D@std@@V?$allocator@D@2@@std@@QAEX_NI@Z ENDP ; std::basic_string<char,std::char_traits<char>,std::allocator<char> >::_Tidy
_TEXT	ENDS
PUBLIC	?erase@?$basic_string@DU?$char_traits@D@std@@V?$allocator@D@2@@std@@QAEAAV12@II@Z ; std::basic_string<char,std::char_traits<char>,std::allocator<char> >::erase
; Function compile flags: /Ogsp
;	COMDAT ?erase@?$basic_string@DU?$char_traits@D@std@@V?$allocator@D@2@@std@@QAEAAV12@II@Z
_TEXT	SEGMENT
__Off$ = 8						; size = 4
__Count$ = 12						; size = 4
?erase@?$basic_string@DU?$char_traits@D@std@@V?$allocator@D@2@@std@@QAEAAV12@II@Z PROC ; std::basic_string<char,std::char_traits<char>,std::allocator<char> >::erase, COMDAT
; _this$ = ecx

; 1109 : 		{	// erase elements [_Off, _Off + _Count)

  00000	55		 push	 ebp
  00001	8b ec		 mov	 ebp, esp
  00003	53		 push	 ebx
  00004	56		 push	 esi
  00005	8b f1		 mov	 esi, ecx

; 1110 : 		if (this->_Mysize < _Off)

  00007	8b 46 10	 mov	 eax, DWORD PTR [esi+16]
  0000a	8b 4d 08	 mov	 ecx, DWORD PTR __Off$[ebp]
  0000d	3b c1		 cmp	 eax, ecx
  0000f	73 0b		 jae	 SHORT $LN3@erase

; 1111 : 			_Xran();	// _Off off end

  00011	68 00 00 00 00	 push	 OFFSET ??_C@_0BI@CFPLBAOH@invalid?5string?5position?$AA@
  00016	ff 15 00 00 00
	00		 call	 DWORD PTR __imp_?_Xout_of_range@std@@YAXPBD@Z
$LN28@erase:
$LN3@erase:

; 1112 : 		if (this->_Mysize - _Off < _Count)

  0001c	8b 5d 0c	 mov	 ebx, DWORD PTR __Count$[ebp]
  0001f	2b c1		 sub	 eax, ecx
  00021	3b c3		 cmp	 eax, ebx

; 1113 : 			_Count = this->_Mysize - _Off;	// trim _Count

  00023	0f 42 d8	 cmovb	 ebx, eax

; 1114 : 		if (0 < _Count)

  00026	85 db		 test	 ebx, ebx
  00028	74 47		 je	 SHORT $LN25@erase

; 1115 : 			{	// move elements down
; 1116 : 			_Traits::move(_Myptr() + _Off, _Myptr() + _Off + _Count,
; 1117 : 				this->_Mysize - _Off - _Count);

  0002a	8b 56 14	 mov	 edx, DWORD PTR [esi+20]
  0002d	57		 push	 edi
  0002e	83 fa 10	 cmp	 edx, 16			; 00000010H
  00031	72 04		 jb	 SHORT $LN11@erase
  00033	8b 3e		 mov	 edi, DWORD PTR [esi]
  00035	eb 02		 jmp	 SHORT $LN12@erase
$LN11@erase:
  00037	8b fe		 mov	 edi, esi
$LN12@erase:
  00039	83 fa 10	 cmp	 edx, 16			; 00000010H
  0003c	72 04		 jb	 SHORT $LN15@erase
  0003e	8b 16		 mov	 edx, DWORD PTR [esi]
  00040	eb 02		 jmp	 SHORT $LN16@erase
$LN15@erase:
  00042	8b d6		 mov	 edx, esi
$LN16@erase:
  00044	2b c3		 sub	 eax, ebx
  00046	03 f9		 add	 edi, ecx
  00048	50		 push	 eax
  00049	03 fb		 add	 edi, ebx
  0004b	03 d1		 add	 edx, ecx
  0004d	57		 push	 edi
  0004e	52		 push	 edx
  0004f	ff 15 00 00 00
	00		 call	 DWORD PTR __imp__memmove

; 1118 : 			size_type _Newsize = this->_Mysize - _Count;

  00055	8b 46 10	 mov	 eax, DWORD PTR [esi+16]
  00058	83 c4 0c	 add	 esp, 12			; 0000000cH
  0005b	2b c3		 sub	 eax, ebx

; 1119 : 			_Eos(_Newsize);

  0005d	83 7e 14 10	 cmp	 DWORD PTR [esi+20], 16	; 00000010H
  00061	89 46 10	 mov	 DWORD PTR [esi+16], eax
  00064	5f		 pop	 edi
  00065	72 04		 jb	 SHORT $LN23@erase
  00067	8b 0e		 mov	 ecx, DWORD PTR [esi]
  00069	eb 02		 jmp	 SHORT $LN24@erase
$LN23@erase:
  0006b	8b ce		 mov	 ecx, esi
$LN24@erase:
  0006d	c6 04 01 00	 mov	 BYTE PTR [ecx+eax], 0
$LN25@erase:

; 1120 : 			}
; 1121 : 		return (*this);

  00071	8b c6		 mov	 eax, esi
  00073	5e		 pop	 esi
  00074	5b		 pop	 ebx

; 1122 : 		}

  00075	5d		 pop	 ebp
  00076	c2 08 00	 ret	 8
$LN27@erase:
?erase@?$basic_string@DU?$char_traits@D@std@@V?$allocator@D@2@@std@@QAEAAV12@II@Z ENDP ; std::basic_string<char,std::char_traits<char>,std::allocator<char> >::erase
_TEXT	ENDS
PUBLIC	?_Destroy@?$vector@FV?$allocator@F@std@@@std@@IAEXPAF0@Z ; std::vector<short,std::allocator<short> >::_Destroy
; Function compile flags: /Ogsp
; File c:\program files (x86)\microsoft visual studio 10.0\vc\include\vector
;	COMDAT ?_Destroy@?$vector@FV?$allocator@F@std@@@std@@IAEXPAF0@Z
_TEXT	SEGMENT
__First$ = 8						; size = 4
__Last$ = 12						; size = 4
?_Destroy@?$vector@FV?$allocator@F@std@@@std@@IAEXPAF0@Z PROC ; std::vector<short,std::allocator<short> >::_Destroy, COMDAT
; _this$ = ecx

; 1270 : 		_Destroy_range(_First, _Last, this->_Alval);
; 1271 : 		}

  00000	c2 08 00	 ret	 8
?_Destroy@?$vector@FV?$allocator@F@std@@@std@@IAEXPAF0@Z ENDP ; std::vector<short,std::allocator<short> >::_Destroy
_TEXT	ENDS
PUBLIC	?begin@?$vector@PAUTBlock@?$uni_heap@$0BE@$0IA@@@V?$allocator@PAUTBlock@?$uni_heap@$0BE@$0IA@@@@std@@@std@@QAE?AV?$_Vector_iterator@V?$_Vector_val@PAUTBlock@?$uni_heap@$0BE@$0IA@@@V?$allocator@PAUTBlock@?$uni_heap@$0BE@$0IA@@@@std@@@std@@@2@XZ ; std::vector<uni_heap<20,128>::TBlock *,std::allocator<uni_heap<20,128>::TBlock *> >::begin
; Function compile flags: /Ogsp
;	COMDAT ?begin@?$vector@PAUTBlock@?$uni_heap@$0BE@$0IA@@@V?$allocator@PAUTBlock@?$uni_heap@$0BE@$0IA@@@@std@@@std@@QAE?AV?$_Vector_iterator@V?$_Vector_val@PAUTBlock@?$uni_heap@$0BE@$0IA@@@V?$allocator@PAUTBlock@?$uni_heap@$0BE@$0IA@@@@std@@@std@@@2@XZ
_TEXT	SEGMENT
___$ReturnUdt$ = 8					; size = 4
?begin@?$vector@PAUTBlock@?$uni_heap@$0BE@$0IA@@@V?$allocator@PAUTBlock@?$uni_heap@$0BE@$0IA@@@@std@@@std@@QAE?AV?$_Vector_iterator@V?$_Vector_val@PAUTBlock@?$uni_heap@$0BE@$0IA@@@V?$allocator@PAUTBlock@?$uni_heap@$0BE@$0IA@@@@std@@@std@@@2@XZ PROC ; std::vector<uni_heap<20,128>::TBlock *,std::allocator<uni_heap<20,128>::TBlock *> >::begin, COMDAT
; _this$ = ecx

; 781  : 		{	// return iterator for beginning of mutable sequence

  00000	55		 push	 ebp
  00001	8b ec		 mov	 ebp, esp

; 782  : 		return (iterator(this->_Myfirst, this));

  00003	8b 09		 mov	 ecx, DWORD PTR [ecx]
  00005	8b 45 08	 mov	 eax, DWORD PTR ___$ReturnUdt$[ebp]
  00008	89 08		 mov	 DWORD PTR [eax], ecx

; 783  : 		}

  0000a	5d		 pop	 ebp
  0000b	c2 04 00	 ret	 4
?begin@?$vector@PAUTBlock@?$uni_heap@$0BE@$0IA@@@V?$allocator@PAUTBlock@?$uni_heap@$0BE@$0IA@@@@std@@@std@@QAE?AV?$_Vector_iterator@V?$_Vector_val@PAUTBlock@?$uni_heap@$0BE@$0IA@@@V?$allocator@PAUTBlock@?$uni_heap@$0BE@$0IA@@@@std@@@std@@@2@XZ ENDP ; std::vector<uni_heap<20,128>::TBlock *,std::allocator<uni_heap<20,128>::TBlock *> >::begin
_TEXT	ENDS
PUBLIC	?end@?$vector@PAUTBlock@?$uni_heap@$0BE@$0IA@@@V?$allocator@PAUTBlock@?$uni_heap@$0BE@$0IA@@@@std@@@std@@QAE?AV?$_Vector_iterator@V?$_Vector_val@PAUTBlock@?$uni_heap@$0BE@$0IA@@@V?$allocator@PAUTBlock@?$uni_heap@$0BE@$0IA@@@@std@@@std@@@2@XZ ; std::vector<uni_heap<20,128>::TBlock *,std::allocator<uni_heap<20,128>::TBlock *> >::end
; Function compile flags: /Ogsp
;	COMDAT ?end@?$vector@PAUTBlock@?$uni_heap@$0BE@$0IA@@@V?$allocator@PAUTBlock@?$uni_heap@$0BE@$0IA@@@@std@@@std@@QAE?AV?$_Vector_iterator@V?$_Vector_val@PAUTBlock@?$uni_heap@$0BE@$0IA@@@V?$allocator@PAUTBlock@?$uni_heap@$0BE@$0IA@@@@std@@@std@@@2@XZ
_TEXT	SEGMENT
___$ReturnUdt$ = 8					; size = 4
?end@?$vector@PAUTBlock@?$uni_heap@$0BE@$0IA@@@V?$allocator@PAUTBlock@?$uni_heap@$0BE@$0IA@@@@std@@@std@@QAE?AV?$_Vector_iterator@V?$_Vector_val@PAUTBlock@?$uni_heap@$0BE@$0IA@@@V?$allocator@PAUTBlock@?$uni_heap@$0BE@$0IA@@@@std@@@std@@@2@XZ PROC ; std::vector<uni_heap<20,128>::TBlock *,std::allocator<uni_heap<20,128>::TBlock *> >::end, COMDAT
; _this$ = ecx

; 791  : 		{	// return iterator for end of mutable sequence

  00000	55		 push	 ebp
  00001	8b ec		 mov	 ebp, esp

; 792  : 		return (iterator(this->_Mylast, this));

  00003	8b 49 04	 mov	 ecx, DWORD PTR [ecx+4]
  00006	8b 45 08	 mov	 eax, DWORD PTR ___$ReturnUdt$[ebp]
  00009	89 08		 mov	 DWORD PTR [eax], ecx

; 793  : 		}

  0000b	5d		 pop	 ebp
  0000c	c2 04 00	 ret	 4
?end@?$vector@PAUTBlock@?$uni_heap@$0BE@$0IA@@@V?$allocator@PAUTBlock@?$uni_heap@$0BE@$0IA@@@@std@@@std@@QAE?AV?$_Vector_iterator@V?$_Vector_val@PAUTBlock@?$uni_heap@$0BE@$0IA@@@V?$allocator@PAUTBlock@?$uni_heap@$0BE@$0IA@@@@std@@@std@@@2@XZ ENDP ; std::vector<uni_heap<20,128>::TBlock *,std::allocator<uni_heap<20,128>::TBlock *> >::end
_TEXT	ENDS
PUBLIC	??E?$_Vector_iterator@V?$_Vector_val@PAUTBlock@?$uni_heap@$0BE@$0IA@@@V?$allocator@PAUTBlock@?$uni_heap@$0BE@$0IA@@@@std@@@std@@@std@@QAE?AV01@H@Z ; std::_Vector_iterator<std::_Vector_val<uni_heap<20,128>::TBlock *,std::allocator<uni_heap<20,128>::TBlock *> > >::operator++
; Function compile flags: /Ogsp
;	COMDAT ??E?$_Vector_iterator@V?$_Vector_val@PAUTBlock@?$uni_heap@$0BE@$0IA@@@V?$allocator@PAUTBlock@?$uni_heap@$0BE@$0IA@@@@std@@@std@@@std@@QAE?AV01@H@Z
_TEXT	SEGMENT
___$ReturnUdt$ = 8					; size = 4
___formal$ = 12						; size = 4
??E?$_Vector_iterator@V?$_Vector_val@PAUTBlock@?$uni_heap@$0BE@$0IA@@@V?$allocator@PAUTBlock@?$uni_heap@$0BE@$0IA@@@@std@@@std@@@std@@QAE?AV01@H@Z PROC ; std::_Vector_iterator<std::_Vector_val<uni_heap<20,128>::TBlock *,std::allocator<uni_heap<20,128>::TBlock *> > >::operator++, COMDAT
; _this$ = ecx

; 337  : 		{	// postincrement

  00000	55		 push	 ebp
  00001	8b ec		 mov	 ebp, esp

; 338  : 		_Myiter _Tmp = *this;

  00003	8b 11		 mov	 edx, DWORD PTR [ecx]
  00005	8b 45 08	 mov	 eax, DWORD PTR ___$ReturnUdt$[ebp]
  00008	89 10		 mov	 DWORD PTR [eax], edx

; 339  : 		++*this;

  0000a	83 c2 04	 add	 edx, 4
  0000d	89 11		 mov	 DWORD PTR [ecx], edx

; 340  : 		return (_Tmp);
; 341  : 		}

  0000f	5d		 pop	 ebp
  00010	c2 08 00	 ret	 8
??E?$_Vector_iterator@V?$_Vector_val@PAUTBlock@?$uni_heap@$0BE@$0IA@@@V?$allocator@PAUTBlock@?$uni_heap@$0BE@$0IA@@@@std@@@std@@@std@@QAE?AV01@H@Z ENDP ; std::_Vector_iterator<std::_Vector_val<uni_heap<20,128>::TBlock *,std::allocator<uni_heap<20,128>::TBlock *> > >::operator++
_TEXT	ENDS
PUBLIC	??9?$_Vector_const_iterator@V?$_Vector_val@PAUTBlock@?$uni_heap@$0BE@$0IA@@@V?$allocator@PAUTBlock@?$uni_heap@$0BE@$0IA@@@@std@@@std@@@std@@QBE_NABV01@@Z ; std::_Vector_const_iterator<std::_Vector_val<uni_heap<20,128>::TBlock *,std::allocator<uni_heap<20,128>::TBlock *> > >::operator!=
; Function compile flags: /Ogsp
;	COMDAT ??9?$_Vector_const_iterator@V?$_Vector_val@PAUTBlock@?$uni_heap@$0BE@$0IA@@@V?$allocator@PAUTBlock@?$uni_heap@$0BE@$0IA@@@@std@@@std@@@std@@QBE_NABV01@@Z
_TEXT	SEGMENT
__Right$ = 8						; size = 4
??9?$_Vector_const_iterator@V?$_Vector_val@PAUTBlock@?$uni_heap@$0BE@$0IA@@@V?$allocator@PAUTBlock@?$uni_heap@$0BE@$0IA@@@@std@@@std@@@std@@QBE_NABV01@@Z PROC ; std::_Vector_const_iterator<std::_Vector_val<uni_heap<20,128>::TBlock *,std::allocator<uni_heap<20,128>::TBlock *> > >::operator!=, COMDAT
; _this$ = ecx

; 207  : 		{	// test for iterator inequality

  00000	55		 push	 ebp
  00001	8b ec		 mov	 ebp, esp

; 208  : 		return (!(*this == _Right));

  00003	8b 01		 mov	 eax, DWORD PTR [ecx]
  00005	8b 55 08	 mov	 edx, DWORD PTR __Right$[ebp]
  00008	33 c9		 xor	 ecx, ecx
  0000a	3b 02		 cmp	 eax, DWORD PTR [edx]
  0000c	0f 95 c0	 setne	 al

; 209  : 		}

  0000f	5d		 pop	 ebp
  00010	c2 04 00	 ret	 4
??9?$_Vector_const_iterator@V?$_Vector_val@PAUTBlock@?$uni_heap@$0BE@$0IA@@@V?$allocator@PAUTBlock@?$uni_heap@$0BE@$0IA@@@@std@@@std@@@std@@QBE_NABV01@@Z ENDP ; std::_Vector_const_iterator<std::_Vector_val<uni_heap<20,128>::TBlock *,std::allocator<uni_heap<20,128>::TBlock *> > >::operator!=
_TEXT	ENDS
PUBLIC	?_Copy@?$basic_string@DU?$char_traits@D@std@@V?$allocator@D@2@@std@@QAEXII@Z ; std::basic_string<char,std::char_traits<char>,std::allocator<char> >::_Copy
EXTRN	___CxxFrameHandler3:PROC
EXTRN	@__security_check_cookie@4:PROC
EXTRN	__EH_epilog3:PROC
EXTRN	__EH_prolog3_catch:PROC
;	COMDAT xdata$x
; File c:\program files (x86)\microsoft visual studio 10.0\vc\include\iosfwd
xdata$x	SEGMENT
__catchsym$?_Copy@?$basic_string@DU?$char_traits@D@std@@V?$allocator@D@2@@std@@QAEXII@Z$5 DD 040H
	DD	00H
	DD	00H
	DD	FLAT:__catch$?_Copy@?$basic_string@DU?$char_traits@D@std@@V?$allocator@D@2@@std@@QAEXII@Z$0
__catchsym$?_Copy@?$basic_string@DU?$char_traits@D@std@@V?$allocator@D@2@@std@@QAEXII@Z$4 DD 040H
	DD	00H
	DD	00H
	DD	FLAT:__catch$?_Copy@?$basic_string@DU?$char_traits@D@std@@V?$allocator@D@2@@std@@QAEXII@Z$1
__unwindtable$?_Copy@?$basic_string@DU?$char_traits@D@std@@V?$allocator@D@2@@std@@QAEXII@Z DD 0ffffffffH
	DD	00H
	DD	0ffffffffH
	DD	00H
	DD	01H
	DD	00H
	DD	01H
	DD	00H
__ehfuncinfo$?_Copy@?$basic_string@DU?$char_traits@D@std@@V?$allocator@D@2@@std@@QAEXII@Z DD 019930522H
	DD	04H
	DD	FLAT:__unwindtable$?_Copy@?$basic_string@DU?$char_traits@D@std@@V?$allocator@D@2@@std@@QAEXII@Z
	DD	02H
	DD	FLAT:__tryblocktable$?_Copy@?$basic_string@DU?$char_traits@D@std@@V?$allocator@D@2@@std@@QAEXII@Z
	DD	2 DUP(00H)
	DD	00H
	DD	01H
__tryblocktable$?_Copy@?$basic_string@DU?$char_traits@D@std@@V?$allocator@D@2@@std@@QAEXII@Z DD 02H
	DD	02H
	DD	03H
	DD	01H
	DD	FLAT:__catchsym$?_Copy@?$basic_string@DU?$char_traits@D@std@@V?$allocator@D@2@@std@@QAEXII@Z$4
	DD	00H
	DD	00H
	DD	03H
	DD	01H
	DD	FLAT:__catchsym$?_Copy@?$basic_string@DU?$char_traits@D@std@@V?$allocator@D@2@@std@@QAEXII@Z$5
; Function compile flags: /Ogsp
; File c:\program files (x86)\microsoft visual studio 10.0\vc\include\xstring
xdata$x	ENDS
;	COMDAT ?_Copy@?$basic_string@DU?$char_traits@D@std@@V?$allocator@D@2@@std@@QAEXII@Z
_TEXT	SEGMENT
_this$ = -24						; size = 4
tv296 = -20						; size = 4
__Newres$ = -20						; size = 4
__$EHRec$ = -16						; size = 16
__Ptr$ = 8						; size = 4
__Newsize$ = 8						; size = 4
__Oldlen$ = 12						; size = 4
?_Copy@?$basic_string@DU?$char_traits@D@std@@V?$allocator@D@2@@std@@QAEXII@Z PROC ; std::basic_string<char,std::char_traits<char>,std::allocator<char> >::_Copy, COMDAT
; _this$ = ecx

; 1919 : 		{	// copy _Oldlen elements to newly allocated buffer

  00000	6a 0c		 push	 12			; 0000000cH
  00002	b8 00 00 00 00	 mov	 eax, __ehhandler$?_Copy@?$basic_string@DU?$char_traits@D@std@@V?$allocator@D@2@@std@@QAEXII@Z
  00007	e8 00 00 00 00	 call	 __EH_prolog3_catch
  0000c	8b f1		 mov	 esi, ecx
  0000e	89 75 e8	 mov	 DWORD PTR _this$[ebp], esi

; 1920 : 		size_type _Newres = _Newsize | this->_ALLOC_MASK;

  00011	8b 7d 08	 mov	 edi, DWORD PTR __Newsize$[ebp]
  00014	83 cf 0f	 or	 edi, 15			; 0000000fH

; 1921 : 		if (max_size() < _Newres)

  00017	83 ff fe	 cmp	 edi, -2			; fffffffeH
  0001a	76 05		 jbe	 SHORT $LN9@Copy

; 1922 : 			_Newres = _Newsize;	// undo roundup if too big

  0001c	8b 7d 08	 mov	 edi, DWORD PTR __Newsize$[ebp]
  0001f	eb 27		 jmp	 SHORT $LN5@Copy
$LN9@Copy:

; 1923 : 		else if (this->_Myres / 2 <= _Newres / 3)

  00021	33 d2		 xor	 edx, edx
  00023	6a 03		 push	 3
  00025	8b c7		 mov	 eax, edi
  00027	5b		 pop	 ebx
  00028	f7 f3		 div	 ebx
  0002a	8b 4e 14	 mov	 ecx, DWORD PTR [esi+20]
  0002d	89 4d ec	 mov	 DWORD PTR tv296[ebp], ecx
  00030	d1 6d ec	 shr	 DWORD PTR tv296[ebp], 1
  00033	8b 55 ec	 mov	 edx, DWORD PTR tv296[ebp]
  00036	3b d0		 cmp	 edx, eax
  00038	76 0e		 jbe	 SHORT $LN5@Copy

; 1924 : 			;
; 1925 : 		else if (this->_Myres <= max_size() - this->_Myres / 2)

  0003a	6a fe		 push	 -2			; fffffffeH
  0003c	5f		 pop	 edi
  0003d	8b c7		 mov	 eax, edi
  0003f	2b c2		 sub	 eax, edx
  00041	3b c8		 cmp	 ecx, eax
  00043	77 03		 ja	 SHORT $LN5@Copy

; 1926 : 			_Newres = this->_Myres
; 1927 : 				+ this->_Myres / 2;	// grow exponentially if possible

  00045	8d 3c 0a	 lea	 edi, DWORD PTR [edx+ecx]
$LN5@Copy:

; 1928 : 		else
; 1929 : 			_Newres = max_size();	// settle for max_size()
; 1930 : 
; 1931 : 		_Elem *_Ptr;
; 1932 : 		_TRY_BEGIN

  00048	83 65 fc 00	 and	 DWORD PTR __$EHRec$[ebp+12], 0

; 1933 : 			_Ptr = this->_Alval.allocate(_Newres + 1);

  0004c	8d 47 01	 lea	 eax, DWORD PTR [edi+1]
  0004f	6a 00		 push	 0
  00051	50		 push	 eax
  00052	e8 00 00 00 00	 call	 ??$_Allocate@D@std@@YAPADIPAD@Z ; std::_Allocate<char>
  00057	59		 pop	 ecx
  00058	59		 pop	 ecx
  00059	89 45 08	 mov	 DWORD PTR __Ptr$[ebp], eax
  0005c	eb 27		 jmp	 SHORT $LN19@Copy
__catch$?_Copy@?$basic_string@DU?$char_traits@D@std@@V?$allocator@D@2@@std@@QAEXII@Z$0:

; 1934 : 		_CATCH_ALL
; 1935 : 			_Newres = _Newsize;	// allocation failed, undo roundup and retry

  0005e	8b 45 08	 mov	 eax, DWORD PTR __Newsize$[ebp]
  00061	89 65 f0	 mov	 DWORD PTR __$EHRec$[ebp], esp
  00064	89 45 ec	 mov	 DWORD PTR __Newres$[ebp], eax

; 1936 : 			_TRY_BEGIN
; 1937 : 				_Ptr = this->_Alval.allocate(_Newres + 1);

  00067	40		 inc	 eax
  00068	6a 00		 push	 0
  0006a	50		 push	 eax
  0006b	c6 45 fc 02	 mov	 BYTE PTR __$EHRec$[ebp+12], 2
  0006f	e8 00 00 00 00	 call	 ??$_Allocate@D@std@@YAPADIPAD@Z ; std::_Allocate<char>
  00074	59		 pop	 ecx
  00075	89 45 08	 mov	 DWORD PTR __Ptr$[ebp], eax
  00078	59		 pop	 ecx

; 1941 : 			_CATCH_END
; 1942 : 		_CATCH_END

  00079	b8 00 00 00 00	 mov	 eax, $LN63@Copy
  0007e	c3		 ret	 0
$LN63@Copy:
  0007f	8b 75 e8	 mov	 esi, DWORD PTR _this$[ebp]
  00082	8b 7d ec	 mov	 edi, DWORD PTR __Newres$[ebp]
$LN19@Copy:

; 1943 : 
; 1944 : 		if (0 < _Oldlen)

  00085	8b 5d 0c	 mov	 ebx, DWORD PTR __Oldlen$[ebp]
  00088	85 db		 test	 ebx, ebx
  0008a	74 19		 je	 SHORT $LN52@Copy

; 1945 : 			_Traits::copy(_Ptr, _Myptr(), _Oldlen);	// copy existing elements

  0008c	83 7e 14 10	 cmp	 DWORD PTR [esi+20], 16	; 00000010H
  00090	72 04		 jb	 SHORT $LN50@Copy
  00092	8b 06		 mov	 eax, DWORD PTR [esi]
  00094	eb 02		 jmp	 SHORT $LN51@Copy
$LN50@Copy:
  00096	8b c6		 mov	 eax, esi
$LN51@Copy:
  00098	53		 push	 ebx
  00099	50		 push	 eax
  0009a	ff 75 08	 push	 DWORD PTR __Ptr$[ebp]
  0009d	e8 00 00 00 00	 call	 _memcpy
  000a2	83 c4 0c	 add	 esp, 12			; 0000000cH
$LN52@Copy:

; 1946 : 		_Tidy(true);

  000a5	6a 00		 push	 0
  000a7	6a 01		 push	 1
  000a9	8b ce		 mov	 ecx, esi
  000ab	e8 00 00 00 00	 call	 ?_Tidy@?$basic_string@DU?$char_traits@D@std@@V?$allocator@D@2@@std@@QAEX_NI@Z ; std::basic_string<char,std::char_traits<char>,std::allocator<char> >::_Tidy

; 1947 : 		this->_Bx._Ptr = _Ptr;

  000b0	8b 45 08	 mov	 eax, DWORD PTR __Ptr$[ebp]
  000b3	89 06		 mov	 DWORD PTR [esi], eax

; 1948 : 		this->_Myres = _Newres;
; 1949 : 		_Eos(_Oldlen);

  000b5	83 ff 10	 cmp	 edi, 16			; 00000010H
  000b8	89 7e 14	 mov	 DWORD PTR [esi+20], edi
  000bb	89 5e 10	 mov	 DWORD PTR [esi+16], ebx
  000be	0f 42 c6	 cmovb	 eax, esi
  000c1	c6 04 18 00	 mov	 BYTE PTR [eax+ebx], 0

; 1950 : 		}

  000c5	e8 00 00 00 00	 call	 __EH_epilog3
  000ca	c2 08 00	 ret	 8
__catch$?_Copy@?$basic_string@DU?$char_traits@D@std@@V?$allocator@D@2@@std@@QAEXII@Z$1:

; 1938 : 			_CATCH_ALL
; 1939 : 			_Tidy(true);	// failed again, discard storage and reraise

  000cd	8b 4d e8	 mov	 ecx, DWORD PTR _this$[ebp]
  000d0	33 f6		 xor	 esi, esi
  000d2	56		 push	 esi
  000d3	6a 01		 push	 1
  000d5	e8 00 00 00 00	 call	 ?_Tidy@?$basic_string@DU?$char_traits@D@std@@V?$allocator@D@2@@std@@QAEX_NI@Z ; std::basic_string<char,std::char_traits<char>,std::allocator<char> >::_Tidy

; 1940 : 			_RERAISE;

  000da	56		 push	 esi
  000db	56		 push	 esi
  000dc	e8 00 00 00 00	 call	 __CxxThrowException@8
$LN67@Copy:
$LN66@Copy:
  000e1	cc		 int	 3
_TEXT	ENDS
;	COMDAT text$x
text$x	SEGMENT
__ehhandler$?_Copy@?$basic_string@DU?$char_traits@D@std@@V?$allocator@D@2@@std@@QAEXII@Z:
  00000	8b 54 24 08	 mov	 edx, DWORD PTR [esp+8]
  00004	8d 42 0c	 lea	 eax, DWORD PTR [edx+12]
  00007	8b 4a e4	 mov	 ecx, DWORD PTR [edx-28]
  0000a	33 c8		 xor	 ecx, eax
  0000c	e8 00 00 00 00	 call	 @__security_check_cookie@4
  00011	b8 00 00 00 00	 mov	 eax, OFFSET __ehfuncinfo$?_Copy@?$basic_string@DU?$char_traits@D@std@@V?$allocator@D@2@@std@@QAEXII@Z
  00016	e9 00 00 00 00	 jmp	 ___CxxFrameHandler3
text$x	ENDS
?_Copy@?$basic_string@DU?$char_traits@D@std@@V?$allocator@D@2@@std@@QAEXII@Z ENDP ; std::basic_string<char,std::char_traits<char>,std::allocator<char> >::_Copy
PUBLIC	?_Destroy@?$vector@PAUDNode@?$AStarSearcher@VBoxSpace@@PAUBox@1@@@V?$allocator@PAUDNode@?$AStarSearcher@VBoxSpace@@PAUBox@1@@@@std@@@std@@IAEXPAPAUDNode@?$AStarSearcher@VBoxSpace@@PAUBox@1@@@0@Z ; std::vector<AStarSearcher<BoxSpace,BoxSpace::Box *>::DNode *,std::allocator<AStarSearcher<BoxSpace,BoxSpace::Box *>::DNode *> >::_Destroy
; Function compile flags: /Ogsp
; File c:\program files (x86)\microsoft visual studio 10.0\vc\include\vector
;	COMDAT ?_Destroy@?$vector@PAUDNode@?$AStarSearcher@VBoxSpace@@PAUBox@1@@@V?$allocator@PAUDNode@?$AStarSearcher@VBoxSpace@@PAUBox@1@@@@std@@@std@@IAEXPAPAUDNode@?$AStarSearcher@VBoxSpace@@PAUBox@1@@@0@Z
_TEXT	SEGMENT
__First$ = 8						; size = 4
__Last$ = 12						; size = 4
?_Destroy@?$vector@PAUDNode@?$AStarSearcher@VBoxSpace@@PAUBox@1@@@V?$allocator@PAUDNode@?$AStarSearcher@VBoxSpace@@PAUBox@1@@@@std@@@std@@IAEXPAPAUDNode@?$AStarSearcher@VBoxSpace@@PAUBox@1@@@0@Z PROC ; std::vector<AStarSearcher<BoxSpace,BoxSpace::Box *>::DNode *,std::allocator<AStarSearcher<BoxSpace,BoxSpace::Box *>::DNode *> >::_Destroy, COMDAT
; _this$ = ecx

; 1270 : 		_Destroy_range(_First, _Last, this->_Alval);
; 1271 : 		}

  00000	c2 08 00	 ret	 8
?_Destroy@?$vector@PAUDNode@?$AStarSearcher@VBoxSpace@@PAUBox@1@@@V?$allocator@PAUDNode@?$AStarSearcher@VBoxSpace@@PAUBox@1@@@@std@@@std@@IAEXPAPAUDNode@?$AStarSearcher@VBoxSpace@@PAUBox@1@@@0@Z ENDP ; std::vector<AStarSearcher<BoxSpace,BoxSpace::Box *>::DNode *,std::allocator<AStarSearcher<BoxSpace,BoxSpace::Box *>::DNode *> >::_Destroy
_TEXT	ENDS
PUBLIC	?begin@?$vector@PBQAUBox@BoxSpace@@V?$allocator@PBQAUBox@BoxSpace@@@std@@@std@@QAE?AV?$_Vector_iterator@V?$_Vector_val@PBQAUBox@BoxSpace@@V?$allocator@PBQAUBox@BoxSpace@@@std@@@std@@@2@XZ ; std::vector<BoxSpace::Box * const *,std::allocator<BoxSpace::Box * const *> >::begin
; Function compile flags: /Ogsp
;	COMDAT ?begin@?$vector@PBQAUBox@BoxSpace@@V?$allocator@PBQAUBox@BoxSpace@@@std@@@std@@QAE?AV?$_Vector_iterator@V?$_Vector_val@PBQAUBox@BoxSpace@@V?$allocator@PBQAUBox@BoxSpace@@@std@@@std@@@2@XZ
_TEXT	SEGMENT
___$ReturnUdt$ = 8					; size = 4
?begin@?$vector@PBQAUBox@BoxSpace@@V?$allocator@PBQAUBox@BoxSpace@@@std@@@std@@QAE?AV?$_Vector_iterator@V?$_Vector_val@PBQAUBox@BoxSpace@@V?$allocator@PBQAUBox@BoxSpace@@@std@@@std@@@2@XZ PROC ; std::vector<BoxSpace::Box * const *,std::allocator<BoxSpace::Box * const *> >::begin, COMDAT
; _this$ = ecx

; 781  : 		{	// return iterator for beginning of mutable sequence

  00000	55		 push	 ebp
  00001	8b ec		 mov	 ebp, esp

; 782  : 		return (iterator(this->_Myfirst, this));

  00003	8b 09		 mov	 ecx, DWORD PTR [ecx]
  00005	8b 45 08	 mov	 eax, DWORD PTR ___$ReturnUdt$[ebp]
  00008	89 08		 mov	 DWORD PTR [eax], ecx

; 783  : 		}

  0000a	5d		 pop	 ebp
  0000b	c2 04 00	 ret	 4
?begin@?$vector@PBQAUBox@BoxSpace@@V?$allocator@PBQAUBox@BoxSpace@@@std@@@std@@QAE?AV?$_Vector_iterator@V?$_Vector_val@PBQAUBox@BoxSpace@@V?$allocator@PBQAUBox@BoxSpace@@@std@@@std@@@2@XZ ENDP ; std::vector<BoxSpace::Box * const *,std::allocator<BoxSpace::Box * const *> >::begin
_TEXT	ENDS
PUBLIC	?end@?$vector@PBQAUBox@BoxSpace@@V?$allocator@PBQAUBox@BoxSpace@@@std@@@std@@QAE?AV?$_Vector_iterator@V?$_Vector_val@PBQAUBox@BoxSpace@@V?$allocator@PBQAUBox@BoxSpace@@@std@@@std@@@2@XZ ; std::vector<BoxSpace::Box * const *,std::allocator<BoxSpace::Box * const *> >::end
; Function compile flags: /Ogsp
;	COMDAT ?end@?$vector@PBQAUBox@BoxSpace@@V?$allocator@PBQAUBox@BoxSpace@@@std@@@std@@QAE?AV?$_Vector_iterator@V?$_Vector_val@PBQAUBox@BoxSpace@@V?$allocator@PBQAUBox@BoxSpace@@@std@@@std@@@2@XZ
_TEXT	SEGMENT
___$ReturnUdt$ = 8					; size = 4
?end@?$vector@PBQAUBox@BoxSpace@@V?$allocator@PBQAUBox@BoxSpace@@@std@@@std@@QAE?AV?$_Vector_iterator@V?$_Vector_val@PBQAUBox@BoxSpace@@V?$allocator@PBQAUBox@BoxSpace@@@std@@@std@@@2@XZ PROC ; std::vector<BoxSpace::Box * const *,std::allocator<BoxSpace::Box * const *> >::end, COMDAT
; _this$ = ecx

; 791  : 		{	// return iterator for end of mutable sequence

  00000	55		 push	 ebp
  00001	8b ec		 mov	 ebp, esp

; 792  : 		return (iterator(this->_Mylast, this));

  00003	8b 49 04	 mov	 ecx, DWORD PTR [ecx+4]
  00006	8b 45 08	 mov	 eax, DWORD PTR ___$ReturnUdt$[ebp]
  00009	89 08		 mov	 DWORD PTR [eax], ecx

; 793  : 		}

  0000b	5d		 pop	 ebp
  0000c	c2 04 00	 ret	 4
?end@?$vector@PBQAUBox@BoxSpace@@V?$allocator@PBQAUBox@BoxSpace@@@std@@@std@@QAE?AV?$_Vector_iterator@V?$_Vector_val@PBQAUBox@BoxSpace@@V?$allocator@PBQAUBox@BoxSpace@@@std@@@std@@@2@XZ ENDP ; std::vector<BoxSpace::Box * const *,std::allocator<BoxSpace::Box * const *> >::end
_TEXT	ENDS
PUBLIC	?_Destroy@?$vector@PBQAUBox@BoxSpace@@V?$allocator@PBQAUBox@BoxSpace@@@std@@@std@@IAEXPAPBQAUBox@BoxSpace@@0@Z ; std::vector<BoxSpace::Box * const *,std::allocator<BoxSpace::Box * const *> >::_Destroy
; Function compile flags: /Ogsp
;	COMDAT ?_Destroy@?$vector@PBQAUBox@BoxSpace@@V?$allocator@PBQAUBox@BoxSpace@@@std@@@std@@IAEXPAPBQAUBox@BoxSpace@@0@Z
_TEXT	SEGMENT
__First$ = 8						; size = 4
__Last$ = 12						; size = 4
?_Destroy@?$vector@PBQAUBox@BoxSpace@@V?$allocator@PBQAUBox@BoxSpace@@@std@@@std@@IAEXPAPBQAUBox@BoxSpace@@0@Z PROC ; std::vector<BoxSpace::Box * const *,std::allocator<BoxSpace::Box * const *> >::_Destroy, COMDAT
; _this$ = ecx

; 1270 : 		_Destroy_range(_First, _Last, this->_Alval);
; 1271 : 		}

  00000	c2 08 00	 ret	 8
?_Destroy@?$vector@PBQAUBox@BoxSpace@@V?$allocator@PBQAUBox@BoxSpace@@@std@@@std@@IAEXPAPBQAUBox@BoxSpace@@0@Z ENDP ; std::vector<BoxSpace::Box * const *,std::allocator<BoxSpace::Box * const *> >::_Destroy
_TEXT	ENDS
PUBLIC	?_Destroy@?$vector@PAUTBlock@?$uni_heap@$0BE@$0IA@@@V?$allocator@PAUTBlock@?$uni_heap@$0BE@$0IA@@@@std@@@std@@IAEXPAPAUTBlock@?$uni_heap@$0BE@$0IA@@@0@Z ; std::vector<uni_heap<20,128>::TBlock *,std::allocator<uni_heap<20,128>::TBlock *> >::_Destroy
; Function compile flags: /Ogsp
;	COMDAT ?_Destroy@?$vector@PAUTBlock@?$uni_heap@$0BE@$0IA@@@V?$allocator@PAUTBlock@?$uni_heap@$0BE@$0IA@@@@std@@@std@@IAEXPAPAUTBlock@?$uni_heap@$0BE@$0IA@@@0@Z
_TEXT	SEGMENT
__First$ = 8						; size = 4
__Last$ = 12						; size = 4
?_Destroy@?$vector@PAUTBlock@?$uni_heap@$0BE@$0IA@@@V?$allocator@PAUTBlock@?$uni_heap@$0BE@$0IA@@@@std@@@std@@IAEXPAPAUTBlock@?$uni_heap@$0BE@$0IA@@@0@Z PROC ; std::vector<uni_heap<20,128>::TBlock *,std::allocator<uni_heap<20,128>::TBlock *> >::_Destroy, COMDAT
; _this$ = ecx

; 1270 : 		_Destroy_range(_First, _Last, this->_Alval);
; 1271 : 		}

  00000	c2 08 00	 ret	 8
?_Destroy@?$vector@PAUTBlock@?$uni_heap@$0BE@$0IA@@@V?$allocator@PAUTBlock@?$uni_heap@$0BE@$0IA@@@@std@@@std@@IAEXPAPAUTBlock@?$uni_heap@$0BE@$0IA@@@0@Z ENDP ; std::vector<uni_heap<20,128>::TBlock *,std::allocator<uni_heap<20,128>::TBlock *> >::_Destroy
_TEXT	ENDS
PUBLIC	?begin@?$vector@PAUDNode@?$AStarSearcher@VBoxSpace@@PAUBox@1@@@V?$allocator@PAUDNode@?$AStarSearcher@VBoxSpace@@PAUBox@1@@@@std@@@std@@QAE?AV?$_Vector_iterator@V?$_Vector_val@PAUDNode@?$AStarSearcher@VBoxSpace@@PAUBox@1@@@V?$allocator@PAUDNode@?$AStarSearcher@VBoxSpace@@PAUBox@1@@@@std@@@std@@@2@XZ ; std::vector<AStarSearcher<BoxSpace,BoxSpace::Box *>::DNode *,std::allocator<AStarSearcher<BoxSpace,BoxSpace::Box *>::DNode *> >::begin
; Function compile flags: /Ogsp
;	COMDAT ?begin@?$vector@PAUDNode@?$AStarSearcher@VBoxSpace@@PAUBox@1@@@V?$allocator@PAUDNode@?$AStarSearcher@VBoxSpace@@PAUBox@1@@@@std@@@std@@QAE?AV?$_Vector_iterator@V?$_Vector_val@PAUDNode@?$AStarSearcher@VBoxSpace@@PAUBox@1@@@V?$allocator@PAUDNode@?$AStarSearcher@VBoxSpace@@PAUBox@1@@@@std@@@std@@@2@XZ
_TEXT	SEGMENT
___$ReturnUdt$ = 8					; size = 4
?begin@?$vector@PAUDNode@?$AStarSearcher@VBoxSpace@@PAUBox@1@@@V?$allocator@PAUDNode@?$AStarSearcher@VBoxSpace@@PAUBox@1@@@@std@@@std@@QAE?AV?$_Vector_iterator@V?$_Vector_val@PAUDNode@?$AStarSearcher@VBoxSpace@@PAUBox@1@@@V?$allocator@PAUDNode@?$AStarSearcher@VBoxSpace@@PAUBox@1@@@@std@@@std@@@2@XZ PROC ; std::vector<AStarSearcher<BoxSpace,BoxSpace::Box *>::DNode *,std::allocator<AStarSearcher<BoxSpace,BoxSpace::Box *>::DNode *> >::begin, COMDAT
; _this$ = ecx

; 781  : 		{	// return iterator for beginning of mutable sequence

  00000	55		 push	 ebp
  00001	8b ec		 mov	 ebp, esp

; 782  : 		return (iterator(this->_Myfirst, this));

  00003	8b 09		 mov	 ecx, DWORD PTR [ecx]
  00005	8b 45 08	 mov	 eax, DWORD PTR ___$ReturnUdt$[ebp]
  00008	89 08		 mov	 DWORD PTR [eax], ecx

; 783  : 		}

  0000a	5d		 pop	 ebp
  0000b	c2 04 00	 ret	 4
?begin@?$vector@PAUDNode@?$AStarSearcher@VBoxSpace@@PAUBox@1@@@V?$allocator@PAUDNode@?$AStarSearcher@VBoxSpace@@PAUBox@1@@@@std@@@std@@QAE?AV?$_Vector_iterator@V?$_Vector_val@PAUDNode@?$AStarSearcher@VBoxSpace@@PAUBox@1@@@V?$allocator@PAUDNode@?$AStarSearcher@VBoxSpace@@PAUBox@1@@@@std@@@std@@@2@XZ ENDP ; std::vector<AStarSearcher<BoxSpace,BoxSpace::Box *>::DNode *,std::allocator<AStarSearcher<BoxSpace,BoxSpace::Box *>::DNode *> >::begin
_TEXT	ENDS
PUBLIC	?end@?$vector@PAUDNode@?$AStarSearcher@VBoxSpace@@PAUBox@1@@@V?$allocator@PAUDNode@?$AStarSearcher@VBoxSpace@@PAUBox@1@@@@std@@@std@@QAE?AV?$_Vector_iterator@V?$_Vector_val@PAUDNode@?$AStarSearcher@VBoxSpace@@PAUBox@1@@@V?$allocator@PAUDNode@?$AStarSearcher@VBoxSpace@@PAUBox@1@@@@std@@@std@@@2@XZ ; std::vector<AStarSearcher<BoxSpace,BoxSpace::Box *>::DNode *,std::allocator<AStarSearcher<BoxSpace,BoxSpace::Box *>::DNode *> >::end
; Function compile flags: /Ogsp
;	COMDAT ?end@?$vector@PAUDNode@?$AStarSearcher@VBoxSpace@@PAUBox@1@@@V?$allocator@PAUDNode@?$AStarSearcher@VBoxSpace@@PAUBox@1@@@@std@@@std@@QAE?AV?$_Vector_iterator@V?$_Vector_val@PAUDNode@?$AStarSearcher@VBoxSpace@@PAUBox@1@@@V?$allocator@PAUDNode@?$AStarSearcher@VBoxSpace@@PAUBox@1@@@@std@@@std@@@2@XZ
_TEXT	SEGMENT
___$ReturnUdt$ = 8					; size = 4
?end@?$vector@PAUDNode@?$AStarSearcher@VBoxSpace@@PAUBox@1@@@V?$allocator@PAUDNode@?$AStarSearcher@VBoxSpace@@PAUBox@1@@@@std@@@std@@QAE?AV?$_Vector_iterator@V?$_Vector_val@PAUDNode@?$AStarSearcher@VBoxSpace@@PAUBox@1@@@V?$allocator@PAUDNode@?$AStarSearcher@VBoxSpace@@PAUBox@1@@@@std@@@std@@@2@XZ PROC ; std::vector<AStarSearcher<BoxSpace,BoxSpace::Box *>::DNode *,std::allocator<AStarSearcher<BoxSpace,BoxSpace::Box *>::DNode *> >::end, COMDAT
; _this$ = ecx

; 791  : 		{	// return iterator for end of mutable sequence

  00000	55		 push	 ebp
  00001	8b ec		 mov	 ebp, esp

; 792  : 		return (iterator(this->_Mylast, this));

  00003	8b 49 04	 mov	 ecx, DWORD PTR [ecx+4]
  00006	8b 45 08	 mov	 eax, DWORD PTR ___$ReturnUdt$[ebp]
  00009	89 08		 mov	 DWORD PTR [eax], ecx

; 793  : 		}

  0000b	5d		 pop	 ebp
  0000c	c2 04 00	 ret	 4
?end@?$vector@PAUDNode@?$AStarSearcher@VBoxSpace@@PAUBox@1@@@V?$allocator@PAUDNode@?$AStarSearcher@VBoxSpace@@PAUBox@1@@@@std@@@std@@QAE?AV?$_Vector_iterator@V?$_Vector_val@PAUDNode@?$AStarSearcher@VBoxSpace@@PAUBox@1@@@V?$allocator@PAUDNode@?$AStarSearcher@VBoxSpace@@PAUBox@1@@@@std@@@std@@@2@XZ ENDP ; std::vector<AStarSearcher<BoxSpace,BoxSpace::Box *>::DNode *,std::allocator<AStarSearcher<BoxSpace,BoxSpace::Box *>::DNode *> >::end
_TEXT	ENDS
PUBLIC	?_Make_iter@?$vector@PBQAUBox@BoxSpace@@V?$allocator@PBQAUBox@BoxSpace@@@std@@@std@@QBE?AV?$_Vector_iterator@V?$_Vector_val@PBQAUBox@BoxSpace@@V?$allocator@PBQAUBox@BoxSpace@@@std@@@std@@@2@V?$_Vector_const_iterator@V?$_Vector_val@PBQAUBox@BoxSpace@@V?$allocator@PBQAUBox@BoxSpace@@@std@@@std@@@2@@Z ; std::vector<BoxSpace::Box * const *,std::allocator<BoxSpace::Box * const *> >::_Make_iter
; Function compile flags: /Ogsp
;	COMDAT ?_Make_iter@?$vector@PBQAUBox@BoxSpace@@V?$allocator@PBQAUBox@BoxSpace@@@std@@@std@@QBE?AV?$_Vector_iterator@V?$_Vector_val@PBQAUBox@BoxSpace@@V?$allocator@PBQAUBox@BoxSpace@@@std@@@std@@@2@V?$_Vector_const_iterator@V?$_Vector_val@PBQAUBox@BoxSpace@@V?$allocator@PBQAUBox@BoxSpace@@@std@@@std@@@2@@Z
_TEXT	SEGMENT
___$ReturnUdt$ = 8					; size = 4
__Where$ = 12						; size = 4
?_Make_iter@?$vector@PBQAUBox@BoxSpace@@V?$allocator@PBQAUBox@BoxSpace@@@std@@@std@@QBE?AV?$_Vector_iterator@V?$_Vector_val@PBQAUBox@BoxSpace@@V?$allocator@PBQAUBox@BoxSpace@@@std@@@std@@@2@V?$_Vector_const_iterator@V?$_Vector_val@PBQAUBox@BoxSpace@@V?$allocator@PBQAUBox@BoxSpace@@@std@@@std@@@2@@Z PROC ; std::vector<BoxSpace::Box * const *,std::allocator<BoxSpace::Box * const *> >::_Make_iter, COMDAT
; _this$ = ecx

; 801  : 		{	// make iterator from const_iterator

  00000	55		 push	 ebp
  00001	8b ec		 mov	 ebp, esp

; 802  : 		return (iterator(_Where._Ptr, this));

  00003	8b 45 08	 mov	 eax, DWORD PTR ___$ReturnUdt$[ebp]
  00006	8b 4d 0c	 mov	 ecx, DWORD PTR __Where$[ebp]
  00009	89 08		 mov	 DWORD PTR [eax], ecx

; 803  : 		}

  0000b	5d		 pop	 ebp
  0000c	c2 08 00	 ret	 8
?_Make_iter@?$vector@PBQAUBox@BoxSpace@@V?$allocator@PBQAUBox@BoxSpace@@@std@@@std@@QBE?AV?$_Vector_iterator@V?$_Vector_val@PBQAUBox@BoxSpace@@V?$allocator@PBQAUBox@BoxSpace@@@std@@@std@@@2@V?$_Vector_const_iterator@V?$_Vector_val@PBQAUBox@BoxSpace@@V?$allocator@PBQAUBox@BoxSpace@@@std@@@std@@@2@@Z ENDP ; std::vector<BoxSpace::Box * const *,std::allocator<BoxSpace::Box * const *> >::_Make_iter
_TEXT	ENDS
PUBLIC	??9?$_Vector_const_iterator@V?$_Vector_val@PBQAUBox@BoxSpace@@V?$allocator@PBQAUBox@BoxSpace@@@std@@@std@@@std@@QBE_NABV01@@Z ; std::_Vector_const_iterator<std::_Vector_val<BoxSpace::Box * const *,std::allocator<BoxSpace::Box * const *> > >::operator!=
; Function compile flags: /Ogsp
;	COMDAT ??9?$_Vector_const_iterator@V?$_Vector_val@PBQAUBox@BoxSpace@@V?$allocator@PBQAUBox@BoxSpace@@@std@@@std@@@std@@QBE_NABV01@@Z
_TEXT	SEGMENT
__Right$ = 8						; size = 4
??9?$_Vector_const_iterator@V?$_Vector_val@PBQAUBox@BoxSpace@@V?$allocator@PBQAUBox@BoxSpace@@@std@@@std@@@std@@QBE_NABV01@@Z PROC ; std::_Vector_const_iterator<std::_Vector_val<BoxSpace::Box * const *,std::allocator<BoxSpace::Box * const *> > >::operator!=, COMDAT
; _this$ = ecx

; 207  : 		{	// test for iterator inequality

  00000	55		 push	 ebp
  00001	8b ec		 mov	 ebp, esp

; 208  : 		return (!(*this == _Right));

  00003	8b 01		 mov	 eax, DWORD PTR [ecx]
  00005	8b 55 08	 mov	 edx, DWORD PTR __Right$[ebp]
  00008	33 c9		 xor	 ecx, ecx
  0000a	3b 02		 cmp	 eax, DWORD PTR [edx]
  0000c	0f 95 c0	 setne	 al

; 209  : 		}

  0000f	5d		 pop	 ebp
  00010	c2 04 00	 ret	 4
??9?$_Vector_const_iterator@V?$_Vector_val@PBQAUBox@BoxSpace@@V?$allocator@PBQAUBox@BoxSpace@@@std@@@std@@@std@@QBE_NABV01@@Z ENDP ; std::_Vector_const_iterator<std::_Vector_val<BoxSpace::Box * const *,std::allocator<BoxSpace::Box * const *> > >::operator!=
_TEXT	ENDS
PUBLIC	?erase@?$vector@PAUTBlock@?$uni_heap@$0BE@$0IA@@@V?$allocator@PAUTBlock@?$uni_heap@$0BE@$0IA@@@@std@@@std@@QAE?AV?$_Vector_iterator@V?$_Vector_val@PAUTBlock@?$uni_heap@$0BE@$0IA@@@V?$allocator@PAUTBlock@?$uni_heap@$0BE@$0IA@@@@std@@@std@@@2@V?$_Vector_const_iterator@V?$_Vector_val@PAUTBlock@?$uni_heap@$0BE@$0IA@@@V?$allocator@PAUTBlock@?$uni_heap@$0BE@$0IA@@@@std@@@std@@@2@0@Z ; std::vector<uni_heap<20,128>::TBlock *,std::allocator<uni_heap<20,128>::TBlock *> >::erase
; Function compile flags: /Ogsp
;	COMDAT ?erase@?$vector@PAUTBlock@?$uni_heap@$0BE@$0IA@@@V?$allocator@PAUTBlock@?$uni_heap@$0BE@$0IA@@@@std@@@std@@QAE?AV?$_Vector_iterator@V?$_Vector_val@PAUTBlock@?$uni_heap@$0BE@$0IA@@@V?$allocator@PAUTBlock@?$uni_heap@$0BE@$0IA@@@@std@@@std@@@2@V?$_Vector_const_iterator@V?$_Vector_val@PAUTBlock@?$uni_heap@$0BE@$0IA@@@V?$allocator@PAUTBlock@?$uni_heap@$0BE@$0IA@@@@std@@@std@@@2@0@Z
_TEXT	SEGMENT
___$ReturnUdt$ = 8					; size = 4
__First_arg$ = 12					; size = 4
__Cat$513005 = 16					; size = 1
__Last_arg$ = 16					; size = 4
?erase@?$vector@PAUTBlock@?$uni_heap@$0BE@$0IA@@@V?$allocator@PAUTBlock@?$uni_heap@$0BE@$0IA@@@@std@@@std@@QAE?AV?$_Vector_iterator@V?$_Vector_val@PAUTBlock@?$uni_heap@$0BE@$0IA@@@V?$allocator@PAUTBlock@?$uni_heap@$0BE@$0IA@@@@std@@@std@@@2@V?$_Vector_const_iterator@V?$_Vector_val@PAUTBlock@?$uni_heap@$0BE@$0IA@@@V?$allocator@PAUTBlock@?$uni_heap@$0BE@$0IA@@@@std@@@std@@@2@0@Z PROC ; std::vector<uni_heap<20,128>::TBlock *,std::allocator<uni_heap<20,128>::TBlock *> >::erase, COMDAT
; _this$ = ecx

; 1190 : 		{	// erase [_First, _Last)

  00000	55		 push	 ebp
  00001	8b ec		 mov	 ebp, esp

; 1191 : 		iterator _First = _Make_iter(_First_arg);

  00003	8b 45 0c	 mov	 eax, DWORD PTR __First_arg$[ebp]
  00006	56		 push	 esi
  00007	57		 push	 edi
  00008	8b 7d 08	 mov	 edi, DWORD PTR ___$ReturnUdt$[ebp]
  0000b	8b f1		 mov	 esi, ecx
  0000d	89 07		 mov	 DWORD PTR [edi], eax

; 1192 : 		iterator _Last = _Make_iter(_Last_arg);
; 1193 : 
; 1194 : 		if (_First != _Last)

  0000f	3b 45 10	 cmp	 eax, DWORD PTR __Last_arg$[ebp]
  00012	74 16		 je	 SHORT $LN1@erase@2

; 1195 : 			{	// worth doing, copy down over hole
; 1196 :  #if _ITERATOR_DEBUG_LEVEL == 2
; 1197 : 			if (_Last < _First || _VICONT(_First) != this
; 1198 : 				|| _VIPTR(_First) < this->_Myfirst
; 1199 : 				|| this->_Mylast < _VIPTR(_Last))
; 1200 : 				_DEBUG_ERROR("vector erase iterator outside range");
; 1201 : 			pointer _Ptr = _Move(_VIPTR(_Last), this->_Mylast,
; 1202 : 				_VIPTR(_First));
; 1203 : 			_Orphan_range(_VIPTR(_First), this->_Mylast);
; 1204 : 
; 1205 :  #else /* _ITERATOR_DEBUG_LEVEL == 2 */
; 1206 : 			pointer _Ptr = _Move(_VIPTR(_Last), this->_Mylast,
; 1207 : 				_VIPTR(_First));

  00014	ff 75 10	 push	 DWORD PTR __Cat$513005[ebp]
  00017	8b 4e 04	 mov	 ecx, DWORD PTR [esi+4]
  0001a	50		 push	 eax
  0001b	51		 push	 ecx
  0001c	ff 75 10	 push	 DWORD PTR __Last_arg$[ebp]
  0001f	e8 00 00 00 00	 call	 ??$_Move@PAPAUTBlock@?$uni_heap@$0BE@$0IA@@@PAPAU12@@std@@YAPAPAUTBlock@?$uni_heap@$0BE@$0IA@@@PAPAU12@00U_Scalar_ptr_iterator_tag@0@@Z ; std::_Move<uni_heap<20,128>::TBlock * *,uni_heap<20,128>::TBlock * *>
  00024	83 c4 10	 add	 esp, 16			; 00000010H

; 1208 :  #endif /* _ITERATOR_DEBUG_LEVEL == 2 */
; 1209 : 
; 1210 : 			_Destroy(_Ptr, this->_Mylast);
; 1211 : 			this->_Mylast = _Ptr;

  00027	89 46 04	 mov	 DWORD PTR [esi+4], eax
$LN1@erase@2:

; 1212 : 			}
; 1213 : 		return (_First);

  0002a	8b c7		 mov	 eax, edi
  0002c	5f		 pop	 edi
  0002d	5e		 pop	 esi

; 1214 : 		}

  0002e	5d		 pop	 ebp
  0002f	c2 0c 00	 ret	 12			; 0000000cH
?erase@?$vector@PAUTBlock@?$uni_heap@$0BE@$0IA@@@V?$allocator@PAUTBlock@?$uni_heap@$0BE@$0IA@@@@std@@@std@@QAE?AV?$_Vector_iterator@V?$_Vector_val@PAUTBlock@?$uni_heap@$0BE@$0IA@@@V?$allocator@PAUTBlock@?$uni_heap@$0BE@$0IA@@@@std@@@std@@@2@V?$_Vector_const_iterator@V?$_Vector_val@PAUTBlock@?$uni_heap@$0BE@$0IA@@@V?$allocator@PAUTBlock@?$uni_heap@$0BE@$0IA@@@@std@@@std@@@2@0@Z ENDP ; std::vector<uni_heap<20,128>::TBlock *,std::allocator<uni_heap<20,128>::TBlock *> >::erase
_TEXT	ENDS
PUBLIC	?_Make_iter@?$vector@PAUDNode@?$AStarSearcher@VBoxSpace@@PAUBox@1@@@V?$allocator@PAUDNode@?$AStarSearcher@VBoxSpace@@PAUBox@1@@@@std@@@std@@QBE?AV?$_Vector_iterator@V?$_Vector_val@PAUDNode@?$AStarSearcher@VBoxSpace@@PAUBox@1@@@V?$allocator@PAUDNode@?$AStarSearcher@VBoxSpace@@PAUBox@1@@@@std@@@std@@@2@V?$_Vector_const_iterator@V?$_Vector_val@PAUDNode@?$AStarSearcher@VBoxSpace@@PAUBox@1@@@V?$allocator@PAUDNode@?$AStarSearcher@VBoxSpace@@PAUBox@1@@@@std@@@std@@@2@@Z ; std::vector<AStarSearcher<BoxSpace,BoxSpace::Box *>::DNode *,std::allocator<AStarSearcher<BoxSpace,BoxSpace::Box *>::DNode *> >::_Make_iter
; Function compile flags: /Ogsp
;	COMDAT ?_Make_iter@?$vector@PAUDNode@?$AStarSearcher@VBoxSpace@@PAUBox@1@@@V?$allocator@PAUDNode@?$AStarSearcher@VBoxSpace@@PAUBox@1@@@@std@@@std@@QBE?AV?$_Vector_iterator@V?$_Vector_val@PAUDNode@?$AStarSearcher@VBoxSpace@@PAUBox@1@@@V?$allocator@PAUDNode@?$AStarSearcher@VBoxSpace@@PAUBox@1@@@@std@@@std@@@2@V?$_Vector_const_iterator@V?$_Vector_val@PAUDNode@?$AStarSearcher@VBoxSpace@@PAUBox@1@@@V?$allocator@PAUDNode@?$AStarSearcher@VBoxSpace@@PAUBox@1@@@@std@@@std@@@2@@Z
_TEXT	SEGMENT
___$ReturnUdt$ = 8					; size = 4
__Where$ = 12						; size = 4
?_Make_iter@?$vector@PAUDNode@?$AStarSearcher@VBoxSpace@@PAUBox@1@@@V?$allocator@PAUDNode@?$AStarSearcher@VBoxSpace@@PAUBox@1@@@@std@@@std@@QBE?AV?$_Vector_iterator@V?$_Vector_val@PAUDNode@?$AStarSearcher@VBoxSpace@@PAUBox@1@@@V?$allocator@PAUDNode@?$AStarSearcher@VBoxSpace@@PAUBox@1@@@@std@@@std@@@2@V?$_Vector_const_iterator@V?$_Vector_val@PAUDNode@?$AStarSearcher@VBoxSpace@@PAUBox@1@@@V?$allocator@PAUDNode@?$AStarSearcher@VBoxSpace@@PAUBox@1@@@@std@@@std@@@2@@Z PROC ; std::vector<AStarSearcher<BoxSpace,BoxSpace::Box *>::DNode *,std::allocator<AStarSearcher<BoxSpace,BoxSpace::Box *>::DNode *> >::_Make_iter, COMDAT
; _this$ = ecx

; 801  : 		{	// make iterator from const_iterator

  00000	55		 push	 ebp
  00001	8b ec		 mov	 ebp, esp

; 802  : 		return (iterator(_Where._Ptr, this));

  00003	8b 45 08	 mov	 eax, DWORD PTR ___$ReturnUdt$[ebp]
  00006	8b 4d 0c	 mov	 ecx, DWORD PTR __Where$[ebp]
  00009	89 08		 mov	 DWORD PTR [eax], ecx

; 803  : 		}

  0000b	5d		 pop	 ebp
  0000c	c2 08 00	 ret	 8
?_Make_iter@?$vector@PAUDNode@?$AStarSearcher@VBoxSpace@@PAUBox@1@@@V?$allocator@PAUDNode@?$AStarSearcher@VBoxSpace@@PAUBox@1@@@@std@@@std@@QBE?AV?$_Vector_iterator@V?$_Vector_val@PAUDNode@?$AStarSearcher@VBoxSpace@@PAUBox@1@@@V?$allocator@PAUDNode@?$AStarSearcher@VBoxSpace@@PAUBox@1@@@@std@@@std@@@2@V?$_Vector_const_iterator@V?$_Vector_val@PAUDNode@?$AStarSearcher@VBoxSpace@@PAUBox@1@@@V?$allocator@PAUDNode@?$AStarSearcher@VBoxSpace@@PAUBox@1@@@@std@@@std@@@2@@Z ENDP ; std::vector<AStarSearcher<BoxSpace,BoxSpace::Box *>::DNode *,std::allocator<AStarSearcher<BoxSpace,BoxSpace::Box *>::DNode *> >::_Make_iter
_TEXT	ENDS
PUBLIC	??9?$_Vector_const_iterator@V?$_Vector_val@PAUDNode@?$AStarSearcher@VBoxSpace@@PAUBox@1@@@V?$allocator@PAUDNode@?$AStarSearcher@VBoxSpace@@PAUBox@1@@@@std@@@std@@@std@@QBE_NABV01@@Z ; std::_Vector_const_iterator<std::_Vector_val<AStarSearcher<BoxSpace,BoxSpace::Box *>::DNode *,std::allocator<AStarSearcher<BoxSpace,BoxSpace::Box *>::DNode *> > >::operator!=
; Function compile flags: /Ogsp
;	COMDAT ??9?$_Vector_const_iterator@V?$_Vector_val@PAUDNode@?$AStarSearcher@VBoxSpace@@PAUBox@1@@@V?$allocator@PAUDNode@?$AStarSearcher@VBoxSpace@@PAUBox@1@@@@std@@@std@@@std@@QBE_NABV01@@Z
_TEXT	SEGMENT
__Right$ = 8						; size = 4
??9?$_Vector_const_iterator@V?$_Vector_val@PAUDNode@?$AStarSearcher@VBoxSpace@@PAUBox@1@@@V?$allocator@PAUDNode@?$AStarSearcher@VBoxSpace@@PAUBox@1@@@@std@@@std@@@std@@QBE_NABV01@@Z PROC ; std::_Vector_const_iterator<std::_Vector_val<AStarSearcher<BoxSpace,BoxSpace::Box *>::DNode *,std::allocator<AStarSearcher<BoxSpace,BoxSpace::Box *>::DNode *> > >::operator!=, COMDAT
; _this$ = ecx

; 207  : 		{	// test for iterator inequality

  00000	55		 push	 ebp
  00001	8b ec		 mov	 ebp, esp

; 208  : 		return (!(*this == _Right));

  00003	8b 01		 mov	 eax, DWORD PTR [ecx]
  00005	8b 55 08	 mov	 edx, DWORD PTR __Right$[ebp]
  00008	33 c9		 xor	 ecx, ecx
  0000a	3b 02		 cmp	 eax, DWORD PTR [edx]
  0000c	0f 95 c0	 setne	 al

; 209  : 		}

  0000f	5d		 pop	 ebp
  00010	c2 04 00	 ret	 4
??9?$_Vector_const_iterator@V?$_Vector_val@PAUDNode@?$AStarSearcher@VBoxSpace@@PAUBox@1@@@V?$allocator@PAUDNode@?$AStarSearcher@VBoxSpace@@PAUBox@1@@@@std@@@std@@@std@@QBE_NABV01@@Z ENDP ; std::_Vector_const_iterator<std::_Vector_val<AStarSearcher<BoxSpace,BoxSpace::Box *>::DNode *,std::allocator<AStarSearcher<BoxSpace,BoxSpace::Box *>::DNode *> > >::operator!=
_TEXT	ENDS
PUBLIC	??$_Umove@PAPAUTBlock@?$uni_heap@$0BE@$0IA@@@@?$vector@PAUTBlock@?$uni_heap@$0BE@$0IA@@@V?$allocator@PAUTBlock@?$uni_heap@$0BE@$0IA@@@@std@@@std@@IAEPAPAUTBlock@?$uni_heap@$0BE@$0IA@@@PAPAU23@00@Z ; std::vector<uni_heap<20,128>::TBlock *,std::allocator<uni_heap<20,128>::TBlock *> >::_Umove<uni_heap<20,128>::TBlock * *>
; Function compile flags: /Ogsp
;	COMDAT ??$_Umove@PAPAUTBlock@?$uni_heap@$0BE@$0IA@@@@?$vector@PAUTBlock@?$uni_heap@$0BE@$0IA@@@V?$allocator@PAUTBlock@?$uni_heap@$0BE@$0IA@@@@std@@@std@@IAEPAPAUTBlock@?$uni_heap@$0BE@$0IA@@@PAPAU23@00@Z
_TEXT	SEGMENT
__First$ = 8						; size = 4
__Last$ = 12						; size = 4
__Ptr$ = 16						; size = 4
??$_Umove@PAPAUTBlock@?$uni_heap@$0BE@$0IA@@@@?$vector@PAUTBlock@?$uni_heap@$0BE@$0IA@@@V?$allocator@PAUTBlock@?$uni_heap@$0BE@$0IA@@@@std@@@std@@IAEPAPAUTBlock@?$uni_heap@$0BE@$0IA@@@PAPAU23@00@Z PROC ; std::vector<uni_heap<20,128>::TBlock *,std::allocator<uni_heap<20,128>::TBlock *> >::_Umove<uni_heap<20,128>::TBlock * *>, COMDAT
; _this$ = ecx

; 1322 : 		pointer _Umove(_Iter _First, _Iter _Last, pointer _Ptr)

  00000	55		 push	 ebp
  00001	8b ec		 mov	 ebp, esp

; 1323 : 		{	// move initializing [_First, _Last), using allocator
; 1324 : 		return (_Uninitialized_move(_First, _Last,
; 1325 : 			_Ptr, this->_Alval));

  00003	83 c1 0c	 add	 ecx, 12			; 0000000cH
  00006	51		 push	 ecx
  00007	ff 75 10	 push	 DWORD PTR __Ptr$[ebp]
  0000a	ff 75 0c	 push	 DWORD PTR __Last$[ebp]
  0000d	ff 75 08	 push	 DWORD PTR __First$[ebp]
  00010	e8 00 00 00 00	 call	 ??$_Uninitialized_move@PAPAUTBlock@?$uni_heap@$0BE@$0IA@@@PAPAU12@V?$allocator@PAUTBlock@?$uni_heap@$0BE@$0IA@@@@std@@@std@@YAPAPAUTBlock@?$uni_heap@$0BE@$0IA@@@PAPAU12@00AAV?$allocator@PAUTBlock@?$uni_heap@$0BE@$0IA@@@@0@@Z ; std::_Uninitialized_move<uni_heap<20,128>::TBlock * *,uni_heap<20,128>::TBlock * *,std::allocator<uni_heap<20,128>::TBlock *> >
  00015	83 c4 10	 add	 esp, 16			; 00000010H

; 1326 : 		}

  00018	5d		 pop	 ebp
  00019	c2 0c 00	 ret	 12			; 0000000cH
??$_Umove@PAPAUTBlock@?$uni_heap@$0BE@$0IA@@@@?$vector@PAUTBlock@?$uni_heap@$0BE@$0IA@@@V?$allocator@PAUTBlock@?$uni_heap@$0BE@$0IA@@@@std@@@std@@IAEPAPAUTBlock@?$uni_heap@$0BE@$0IA@@@PAPAU23@00@Z ENDP ; std::vector<uni_heap<20,128>::TBlock *,std::allocator<uni_heap<20,128>::TBlock *> >::_Umove<uni_heap<20,128>::TBlock * *>
_TEXT	ENDS
PUBLIC	??$_Dest_val@V?$allocator@ULink@BoxSpace@@@std@@ULink@BoxSpace@@@std@@YAXAAV?$allocator@ULink@BoxSpace@@@0@PAULink@BoxSpace@@@Z ; std::_Dest_val<std::allocator<BoxSpace::Link>,BoxSpace::Link>
; Function compile flags: /Ogsp
; File c:\program files (x86)\microsoft visual studio 10.0\vc\include\xmemory
;	COMDAT ??$_Dest_val@V?$allocator@ULink@BoxSpace@@@std@@ULink@BoxSpace@@@std@@YAXAAV?$allocator@ULink@BoxSpace@@@0@PAULink@BoxSpace@@@Z
_TEXT	SEGMENT
__Alval$ = 8						; size = 4
__Pdest$ = 12						; size = 4
??$_Dest_val@V?$allocator@ULink@BoxSpace@@@std@@ULink@BoxSpace@@@std@@YAXAAV?$allocator@ULink@BoxSpace@@@0@PAULink@BoxSpace@@@Z PROC ; std::_Dest_val<std::allocator<BoxSpace::Link>,BoxSpace::Link>, COMDAT

; 287  : 	_Alval.destroy(_Pdest);
; 288  : 	}

  00000	c3		 ret	 0
??$_Dest_val@V?$allocator@ULink@BoxSpace@@@std@@ULink@BoxSpace@@@std@@YAXAAV?$allocator@ULink@BoxSpace@@@0@PAULink@BoxSpace@@@Z ENDP ; std::_Dest_val<std::allocator<BoxSpace::Link>,BoxSpace::Link>
_TEXT	ENDS
PUBLIC	?findNearestBox@BoxSpace@@QBEHABUD3DXVECTOR3@@@Z ; BoxSpace::findNearestBox
; Function compile flags: /Ogsp
; File d:\lost saga for developer\youtube\tutorial\source\src\lsclient\boxgraph.cpp
;	COMDAT ?findNearestBox@BoxSpace@@QBEHABUD3DXVECTOR3@@@Z
_TEXT	SEGMENT
tv769 = -16						; size = 4
_n$505425 = -16						; size = 4
_dz$513152 = -12					; size = 4
_minBox$ = -8						; size = 4
tv702 = -4						; size = 4
$T513164 = -4						; size = 4
$T513136 = -4						; size = 4
_minDist$ = 8						; size = 4
_pos$ = 8						; size = 4
?findNearestBox@BoxSpace@@QBEHABUD3DXVECTOR3@@@Z PROC	; BoxSpace::findNearestBox, COMDAT
; _this$ = ecx

; 258  : {

  00000	55		 push	 ebp
  00001	8b ec		 mov	 ebp, esp

; 259  : 	// temporary
; 260  : 
; 261  : 	if ( m_boxes.size() == 0 )

  00003	8b 41 04	 mov	 eax, DWORD PTR [ecx+4]
  00006	2b 01		 sub	 eax, DWORD PTR [ecx]
  00008	83 ec 10	 sub	 esp, 16			; 00000010H
  0000b	56		 push	 esi
  0000c	6a 58		 push	 88			; 00000058H
  0000e	99		 cdq
  0000f	5e		 pop	 esi
  00010	f7 fe		 idiv	 esi
  00012	85 c0		 test	 eax, eax
  00014	75 08		 jne	 SHORT $LN6@findNeares

; 262  : 	{
; 263  : //		LOG.PrintTimeAndLog(0, "can't find nearestbox%.2f, %.2f, %.2f", pos.x, pos.y, pos.z);
; 264  : 		return -1;

  00016	83 c8 ff	 or	 eax, -1
  00019	e9 3a 03 00 00	 jmp	 $LN7@findNeares
$LN6@findNeares:

; 265  : 	}
; 266  : 
; 267  : 	float minDist = getDist( pos, m_boxes.front(), FLOAT1 );

  0001e	b8 01 00 00 00	 mov	 eax, 1
  00023	8b 11		 mov	 edx, DWORD PTR [ecx]
  00025	89 45 f0	 mov	 DWORD PTR tv769[ebp], eax
  00028	db 45 f0	 fild	 DWORD PTR tv769[ebp]
  0002b	85 c0		 test	 eax, eax
  0002d	79 06		 jns	 SHORT $LN61@findNeares
  0002f	d8 05 00 00 00
	00		 fadd	 DWORD PTR __real@4f800000
$LN61@findNeares:
  00035	8b 75 08	 mov	 esi, DWORD PTR _pos$[ebp]
  00038	d9 5d fc	 fstp	 DWORD PTR $T513136[ebp]
  0003b	0f 57 c0	 xorps	 xmm0, xmm0
  0003e	f3 0f 10 0e	 movss	 xmm1, DWORD PTR [esi]
  00042	f3 0f 10 52 1c	 movss	 xmm2, DWORD PTR [edx+28]
  00047	0f 5a f1	 cvtps2pd xmm6, xmm1
  0004a	0f 5a fa	 cvtps2pd xmm7, xmm2
  0004d	66 0f 2f fe	 comisd	 xmm7, xmm6
  00051	0f 28 e0	 movaps	 xmm4, xmm0
  00054	0f 28 d8	 movaps	 xmm3, xmm0
  00057	0f 28 e8	 movaps	 xmm5, xmm0
  0005a	76 13		 jbe	 SHORT $LN33@findNeares
  0005c	0f 5a d2	 cvtps2pd xmm2, xmm2
  0005f	0f 5a c9	 cvtps2pd xmm1, xmm1
  00062	f2 0f 5c d1	 subsd	 xmm2, xmm1
  00066	0f 57 e4	 xorps	 xmm4, xmm4
  00069	66 0f 5a e2	 cvtpd2ps xmm4, xmm2
  0006d	eb 22		 jmp	 SHORT $LN31@findNeares
$LN33@findNeares:
  0006f	f3 0f 10 52 28	 movss	 xmm2, DWORD PTR [edx+40]
  00074	0f 5a f2	 cvtps2pd xmm6, xmm2
  00077	0f 5a f9	 cvtps2pd xmm7, xmm1
  0007a	66 0f 2f fe	 comisd	 xmm7, xmm6
  0007e	76 11		 jbe	 SHORT $LN31@findNeares
  00080	0f 5a c9	 cvtps2pd xmm1, xmm1
  00083	0f 5a d2	 cvtps2pd xmm2, xmm2
  00086	f2 0f 5c ca	 subsd	 xmm1, xmm2
  0008a	0f 57 e4	 xorps	 xmm4, xmm4
  0008d	66 0f 5a e1	 cvtpd2ps xmm4, xmm1
$LN31@findNeares:
  00091	f3 0f 10 4e 04	 movss	 xmm1, DWORD PTR [esi+4]
  00096	f3 0f 10 52 20	 movss	 xmm2, DWORD PTR [edx+32]
  0009b	0f 5a f1	 cvtps2pd xmm6, xmm1
  0009e	0f 5a fa	 cvtps2pd xmm7, xmm2
  000a1	66 0f 2f fe	 comisd	 xmm7, xmm6
  000a5	76 13		 jbe	 SHORT $LN30@findNeares
  000a7	0f 5a d2	 cvtps2pd xmm2, xmm2
  000aa	0f 5a c9	 cvtps2pd xmm1, xmm1
  000ad	f2 0f 5c d1	 subsd	 xmm2, xmm1
  000b1	0f 57 db	 xorps	 xmm3, xmm3
  000b4	66 0f 5a da	 cvtpd2ps xmm3, xmm2
  000b8	eb 22		 jmp	 SHORT $LN28@findNeares
$LN30@findNeares:
  000ba	f3 0f 10 52 2c	 movss	 xmm2, DWORD PTR [edx+44]
  000bf	0f 5a f2	 cvtps2pd xmm6, xmm2
  000c2	0f 5a f9	 cvtps2pd xmm7, xmm1
  000c5	66 0f 2f fe	 comisd	 xmm7, xmm6
  000c9	76 11		 jbe	 SHORT $LN28@findNeares
  000cb	0f 5a c9	 cvtps2pd xmm1, xmm1
  000ce	0f 5a d2	 cvtps2pd xmm2, xmm2
  000d1	f2 0f 5c ca	 subsd	 xmm1, xmm2
  000d5	0f 57 db	 xorps	 xmm3, xmm3
  000d8	66 0f 5a d9	 cvtpd2ps xmm3, xmm1
$LN28@findNeares:
  000dc	f3 0f 10 4e 08	 movss	 xmm1, DWORD PTR [esi+8]
  000e1	f3 0f 10 52 24	 movss	 xmm2, DWORD PTR [edx+36]
  000e6	0f 5a f1	 cvtps2pd xmm6, xmm1
  000e9	0f 5a fa	 cvtps2pd xmm7, xmm2
  000ec	66 0f 2f fe	 comisd	 xmm7, xmm6
  000f0	76 13		 jbe	 SHORT $LN27@findNeares
  000f2	0f 5a d2	 cvtps2pd xmm2, xmm2
  000f5	0f 5a c9	 cvtps2pd xmm1, xmm1
  000f8	f2 0f 5c d1	 subsd	 xmm2, xmm1
  000fc	0f 57 ed	 xorps	 xmm5, xmm5
  000ff	66 0f 5a ea	 cvtpd2ps xmm5, xmm2
  00103	eb 22		 jmp	 SHORT $LN25@findNeares
$LN27@findNeares:
  00105	f3 0f 10 52 30	 movss	 xmm2, DWORD PTR [edx+48]
  0010a	0f 5a f2	 cvtps2pd xmm6, xmm2
  0010d	0f 5a f9	 cvtps2pd xmm7, xmm1
  00110	66 0f 2f fe	 comisd	 xmm7, xmm6
  00114	76 11		 jbe	 SHORT $LN25@findNeares
  00116	0f 5a c9	 cvtps2pd xmm1, xmm1
  00119	0f 5a d2	 cvtps2pd xmm2, xmm2
  0011c	f2 0f 5c ca	 subsd	 xmm1, xmm2
  00120	0f 57 ed	 xorps	 xmm5, xmm5
  00123	66 0f 5a e9	 cvtpd2ps xmm5, xmm1
$LN25@findNeares:
  00127	0f 57 c9	 xorps	 xmm1, xmm1
  0012a	0f 57 d2	 xorps	 xmm2, xmm2
  0012d	f3 0f 5a cc	 cvtss2sd xmm1, xmm4
  00131	f3 0f 5a d3	 cvtss2sd xmm2, xmm3
  00135	66 0f 2f ca	 comisd	 xmm1, xmm2
  00139	0f 57 c9	 xorps	 xmm1, xmm1
  0013c	0f 57 d2	 xorps	 xmm2, xmm2
  0013f	76 0e		 jbe	 SHORT $LN24@findNeares
  00141	f3 0f 5a d3	 cvtss2sd xmm2, xmm3
  00145	f3 0f 5a cc	 cvtss2sd xmm1, xmm4
  00149	f3 0f 5a db	 cvtss2sd xmm3, xmm3
  0014d	eb 0f		 jmp	 SHORT $LN63@findNeares
$LN24@findNeares:
  0014f	f3 0f 5a cb	 cvtss2sd xmm1, xmm3
  00153	0f 57 db	 xorps	 xmm3, xmm3
  00156	f3 0f 5a d4	 cvtss2sd xmm2, xmm4
  0015a	f3 0f 5a dc	 cvtss2sd xmm3, xmm4
$LN63@findNeares:

; 268  : 	int minBox = 0;
; 269  : 
; 270  : 	for ( int i = 1, n = int(m_boxes.size()); i < n; i++ )

  0015e	8b 41 04	 mov	 eax, DWORD PTR [ecx+4]
  00161	53		 push	 ebx
  00162	57		 push	 edi
  00163	2b c2		 sub	 eax, edx
  00165	6a 58		 push	 88			; 00000058H
  00167	99		 cdq
  00168	5b		 pop	 ebx
  00169	f7 fb		 idiv	 ebx
  0016b	f3 0f 10 65 fc	 movss	 xmm4, DWORD PTR $T513136[ebp]
  00170	83 65 f8 00	 and	 DWORD PTR _minBox$[ebp], 0
  00174	f2 0f 5c ca	 subsd	 xmm1, xmm2
  00178	f2 0f 10 15 00
	00 00 00	 movsd	 xmm2, QWORD PTR __real@3ff69fbe80000000
  00180	f2 0f 59 da	 mulsd	 xmm3, xmm2
  00184	f2 0f 58 cb	 addsd	 xmm1, xmm3
  00188	0f 57 db	 xorps	 xmm3, xmm3
  0018b	33 ff		 xor	 edi, edi
  0018d	0f 5a e4	 cvtps2pd xmm4, xmm4
  00190	f3 0f 5a dd	 cvtss2sd xmm3, xmm5
  00194	f2 0f 59 dc	 mulsd	 xmm3, xmm4
  00198	47		 inc	 edi
  00199	f2 0f 58 cb	 addsd	 xmm1, xmm3
  0019d	66 0f 5a c9	 cvtpd2ps xmm1, xmm1
  001a1	f3 0f 11 4d 08	 movss	 DWORD PTR _minDist$[ebp], xmm1
  001a6	89 45 f0	 mov	 DWORD PTR _n$505425[ebp], eax
  001a9	3b c7		 cmp	 eax, edi
  001ab	0f 8e a2 01 00
	00		 jle	 $LN59@findNeares
$LL5@findNeares:

; 271  : 	{
; 272  : 		const Box& box = m_boxes[ i ];

  001b1	8b 11		 mov	 edx, DWORD PTR [ecx]
  001b3	03 d3		 add	 edx, ebx

; 273  : 		float dist = getDist( pos, box, FLOAT1 );

  001b5	b8 01 00 00 00	 mov	 eax, 1
  001ba	89 45 fc	 mov	 DWORD PTR tv702[ebp], eax
  001bd	db 45 fc	 fild	 DWORD PTR tv702[ebp]
  001c0	85 c0		 test	 eax, eax
  001c2	79 06		 jns	 SHORT $LN62@findNeares
  001c4	d8 05 00 00 00
	00		 fadd	 DWORD PTR __real@4f800000
$LN62@findNeares:
  001ca	f3 0f 10 0e	 movss	 xmm1, DWORD PTR [esi]
  001ce	d9 5d fc	 fstp	 DWORD PTR $T513164[ebp]
  001d1	f3 0f 10 5a 1c	 movss	 xmm3, DWORD PTR [edx+28]
  001d6	0f 5a f1	 cvtps2pd xmm6, xmm1
  001d9	0f 5a fb	 cvtps2pd xmm7, xmm3
  001dc	66 0f 2f fe	 comisd	 xmm7, xmm6
  001e0	0f 28 e8	 movaps	 xmm5, xmm0
  001e3	0f 28 e0	 movaps	 xmm4, xmm0
  001e6	f3 0f 11 45 f4	 movss	 DWORD PTR _dz$513152[ebp], xmm0
  001eb	76 13		 jbe	 SHORT $LN52@findNeares
  001ed	0f 5a db	 cvtps2pd xmm3, xmm3
  001f0	0f 5a c9	 cvtps2pd xmm1, xmm1
  001f3	f2 0f 5c d9	 subsd	 xmm3, xmm1
  001f7	0f 57 ed	 xorps	 xmm5, xmm5
  001fa	66 0f 5a eb	 cvtpd2ps xmm5, xmm3
  001fe	eb 22		 jmp	 SHORT $LN50@findNeares
$LN52@findNeares:
  00200	f3 0f 10 5a 28	 movss	 xmm3, DWORD PTR [edx+40]
  00205	0f 5a f3	 cvtps2pd xmm6, xmm3
  00208	0f 5a f9	 cvtps2pd xmm7, xmm1
  0020b	66 0f 2f fe	 comisd	 xmm7, xmm6
  0020f	76 11		 jbe	 SHORT $LN50@findNeares
  00211	0f 5a c9	 cvtps2pd xmm1, xmm1
  00214	0f 5a db	 cvtps2pd xmm3, xmm3
  00217	f2 0f 5c cb	 subsd	 xmm1, xmm3
  0021b	0f 57 ed	 xorps	 xmm5, xmm5
  0021e	66 0f 5a e9	 cvtpd2ps xmm5, xmm1
$LN50@findNeares:
  00222	f3 0f 10 4e 04	 movss	 xmm1, DWORD PTR [esi+4]
  00227	f3 0f 10 5a 20	 movss	 xmm3, DWORD PTR [edx+32]
  0022c	0f 5a f1	 cvtps2pd xmm6, xmm1
  0022f	0f 5a fb	 cvtps2pd xmm7, xmm3
  00232	66 0f 2f fe	 comisd	 xmm7, xmm6
  00236	76 13		 jbe	 SHORT $LN49@findNeares
  00238	0f 5a db	 cvtps2pd xmm3, xmm3
  0023b	0f 5a c9	 cvtps2pd xmm1, xmm1
  0023e	f2 0f 5c d9	 subsd	 xmm3, xmm1
  00242	0f 57 e4	 xorps	 xmm4, xmm4
  00245	66 0f 5a e3	 cvtpd2ps xmm4, xmm3
  00249	eb 22		 jmp	 SHORT $LN47@findNeares
$LN49@findNeares:
  0024b	f3 0f 10 5a 2c	 movss	 xmm3, DWORD PTR [edx+44]
  00250	0f 5a f3	 cvtps2pd xmm6, xmm3
  00253	0f 5a f9	 cvtps2pd xmm7, xmm1
  00256	66 0f 2f fe	 comisd	 xmm7, xmm6
  0025a	76 11		 jbe	 SHORT $LN47@findNeares
  0025c	0f 5a c9	 cvtps2pd xmm1, xmm1
  0025f	0f 5a db	 cvtps2pd xmm3, xmm3
  00262	f2 0f 5c cb	 subsd	 xmm1, xmm3
  00266	0f 57 e4	 xorps	 xmm4, xmm4
  00269	66 0f 5a e1	 cvtpd2ps xmm4, xmm1
$LN47@findNeares:
  0026d	f3 0f 10 4e 08	 movss	 xmm1, DWORD PTR [esi+8]
  00272	f3 0f 10 5a 24	 movss	 xmm3, DWORD PTR [edx+36]
  00277	0f 5a f1	 cvtps2pd xmm6, xmm1
  0027a	0f 5a fb	 cvtps2pd xmm7, xmm3
  0027d	66 0f 2f fe	 comisd	 xmm7, xmm6
  00281	76 13		 jbe	 SHORT $LN46@findNeares
  00283	0f 5a c9	 cvtps2pd xmm1, xmm1
  00286	0f 5a db	 cvtps2pd xmm3, xmm3
  00289	f2 0f 5c d9	 subsd	 xmm3, xmm1
  0028d	0f 57 c9	 xorps	 xmm1, xmm1
  00290	66 0f 5a cb	 cvtpd2ps xmm1, xmm3
  00294	eb 26		 jmp	 SHORT $LN44@findNeares
$LN46@findNeares:
  00296	f3 0f 10 5a 30	 movss	 xmm3, DWORD PTR [edx+48]
  0029b	0f 5a f3	 cvtps2pd xmm6, xmm3
  0029e	0f 5a f9	 cvtps2pd xmm7, xmm1
  002a1	66 0f 2f fe	 comisd	 xmm7, xmm6
  002a5	76 10		 jbe	 SHORT $LN58@findNeares
  002a7	0f 5a c9	 cvtps2pd xmm1, xmm1
  002aa	0f 5a db	 cvtps2pd xmm3, xmm3
  002ad	f2 0f 5c cb	 subsd	 xmm1, xmm3
  002b1	66 0f 5a c9	 cvtpd2ps xmm1, xmm1
  002b5	eb 05		 jmp	 SHORT $LN44@findNeares
$LN58@findNeares:
  002b7	f3 0f 10 4d f4	 movss	 xmm1, DWORD PTR _dz$513152[ebp]
$LN44@findNeares:
  002bc	0f 57 db	 xorps	 xmm3, xmm3
  002bf	f3 0f 5a dd	 cvtss2sd xmm3, xmm5
  002c3	0f 57 f6	 xorps	 xmm6, xmm6
  002c6	f3 0f 5a f4	 cvtss2sd xmm6, xmm4
  002ca	66 0f 2f de	 comisd	 xmm3, xmm6
  002ce	f3 0f 5a c9	 cvtss2sd xmm1, xmm1
  002d2	0f 57 db	 xorps	 xmm3, xmm3
  002d5	76 15		 jbe	 SHORT $LN43@findNeares
  002d7	f3 0f 5a dd	 cvtss2sd xmm3, xmm5
  002db	0f 57 ed	 xorps	 xmm5, xmm5
  002de	f3 0f 5a ec	 cvtss2sd xmm5, xmm4
  002e2	f2 0f 5c dd	 subsd	 xmm3, xmm5
  002e6	f3 0f 5a e4	 cvtss2sd xmm4, xmm4
  002ea	eb 16		 jmp	 SHORT $LN64@findNeares
$LN43@findNeares:
  002ec	f3 0f 5a dc	 cvtss2sd xmm3, xmm4
  002f0	0f 57 e4	 xorps	 xmm4, xmm4
  002f3	f3 0f 5a e5	 cvtss2sd xmm4, xmm5
  002f7	f2 0f 5c dc	 subsd	 xmm3, xmm4
  002fb	0f 57 e4	 xorps	 xmm4, xmm4
  002fe	f3 0f 5a e5	 cvtss2sd xmm4, xmm5
$LN64@findNeares:
  00302	f2 0f 59 e2	 mulsd	 xmm4, xmm2
  00306	f2 0f 58 dc	 addsd	 xmm3, xmm4
  0030a	f3 0f 10 65 fc	 movss	 xmm4, DWORD PTR $T513164[ebp]
  0030f	0f 5a e4	 cvtps2pd xmm4, xmm4
  00312	f2 0f 59 cc	 mulsd	 xmm1, xmm4

; 274  : 		if ( dist < minDist ) {

  00316	f3 0f 10 65 08	 movss	 xmm4, DWORD PTR _minDist$[ebp]
  0031b	f2 0f 58 d9	 addsd	 xmm3, xmm1
  0031f	0f 57 c9	 xorps	 xmm1, xmm1
  00322	66 0f 5a cb	 cvtpd2ps xmm1, xmm3
  00326	0f 57 db	 xorps	 xmm3, xmm3
  00329	0f 5a d9	 cvtps2pd xmm3, xmm1
  0032c	0f 5a e4	 cvtps2pd xmm4, xmm4
  0032f	66 0f 2f e3	 comisd	 xmm4, xmm3
  00333	76 11		 jbe	 SHORT $LN4@findNeares

; 275  : 			minDist = dist;
; 276  : 			minBox = i;
; 277  : 			if ( dist == 0 )

  00335	0f 2e c8	 ucomiss xmm1, xmm0
  00338	9f		 lahf
  00339	f3 0f 11 4d 08	 movss	 DWORD PTR _minDist$[ebp], xmm1
  0033e	89 7d f8	 mov	 DWORD PTR _minBox$[ebp], edi
  00341	f6 c4 44	 test	 ah, 68			; 00000044H
  00344	7b 0d		 jnp	 SHORT $LN59@findNeares
$LN4@findNeares:

; 268  : 	int minBox = 0;
; 269  : 
; 270  : 	for ( int i = 1, n = int(m_boxes.size()); i < n; i++ )

  00346	47		 inc	 edi
  00347	83 c3 58	 add	 ebx, 88			; 00000058H
  0034a	3b 7d f0	 cmp	 edi, DWORD PTR _n$505425[ebp]
  0034d	0f 8c 5e fe ff
	ff		 jl	 $LL5@findNeares
$LN59@findNeares:

; 278  : 				break;
; 279  : 		}
; 280  : 	}
; 281  : 
; 282  : 	return minBox;

  00353	8b 45 f8	 mov	 eax, DWORD PTR _minBox$[ebp]
  00356	5f		 pop	 edi
  00357	5b		 pop	 ebx
$LN7@findNeares:
  00358	5e		 pop	 esi

; 283  : }

  00359	c9		 leave
  0035a	c2 04 00	 ret	 4
?findNearestBox@BoxSpace@@QBEHABUD3DXVECTOR3@@@Z ENDP	; BoxSpace::findNearestBox
_TEXT	ENDS
PUBLIC	?getLinkType@BoxSpace@@ABEDFF@Z			; BoxSpace::getLinkType
; Function compile flags: /Ogsp
;	COMDAT ?getLinkType@BoxSpace@@ABEDFF@Z
_TEXT	SEGMENT
_from$ = 8						; size = 2
_to$ = 12						; size = 2
?getLinkType@BoxSpace@@ABEDFF@Z PROC			; BoxSpace::getLinkType, COMDAT
; _this$ = ecx

; 422  : {

  00000	55		 push	 ebp
  00001	8b ec		 mov	 ebp, esp

; 423  : 	const Box& box = m_boxes[ from ];

  00003	0f bf 45 08	 movsx	 eax, WORD PTR _from$[ebp]
  00007	6b c0 58	 imul	 eax, 88			; 00000058H
  0000a	03 01		 add	 eax, DWORD PTR [ecx]

; 424  : 	for ( std::vector< Link >::const_iterator it = box.links.begin(); it != box.links.end(); it++ )

  0000c	8b 48 34	 mov	 ecx, DWORD PTR [eax+52]
  0000f	8b 40 38	 mov	 eax, DWORD PTR [eax+56]
  00012	eb 0c		 jmp	 SHORT $LN38@getLinkTyp
$LL17@getLinkTyp:

; 425  : 		if ( (*it).toBox == to ) {

  00014	66 8b 11	 mov	 dx, WORD PTR [ecx]
  00017	66 3b 55 0c	 cmp	 dx, WORD PTR _to$[ebp]
  0001b	74 0d		 je	 SHORT $LN36@getLinkTyp

; 424  : 	for ( std::vector< Link >::const_iterator it = box.links.begin(); it != box.links.end(); it++ )

  0001d	83 c1 20	 add	 ecx, 32			; 00000020H
$LN38@getLinkTyp:
  00020	3b c8		 cmp	 ecx, eax
  00022	75 f0		 jne	 SHORT $LL17@getLinkTyp

; 427  : 			break;
; 428  : 		}
; 429  : 	return 0;

  00024	32 c0		 xor	 al, al
$LN5@getLinkTyp:

; 430  : }

  00026	5d		 pop	 ebp
  00027	c2 08 00	 ret	 8
$LN36@getLinkTyp:

; 426  : 			return (*it).type;

  0002a	8a 41 03	 mov	 al, BYTE PTR [ecx+3]
  0002d	eb f7		 jmp	 SHORT $LN5@getLinkTyp
?getLinkType@BoxSpace@@ABEDFF@Z ENDP			; BoxSpace::getLinkType
_TEXT	ENDS
PUBLIC	??_C@_0BN@MBILBHDG@Link?5is?5not?5Found?$CB?$CB?0?5?$CFd?5?9?5?$CFd?$AA@ ; `string'
PUBLIC	?getNextWaypoint@BoxSpace@@QBE_NAAUBoxPath@@ABUD3DXVECTOR3@@1AAU3@AAD@Z ; BoxSpace::getNextWaypoint
;	COMDAT ??_C@_0BN@MBILBHDG@Link?5is?5not?5Found?$CB?$CB?0?5?$CFd?5?9?5?$CFd?$AA@
; File c:\program files (x86)\microsoft visual studio 10.0\vc\include\vector
CONST	SEGMENT
??_C@_0BN@MBILBHDG@Link?5is?5not?5Found?$CB?$CB?0?5?$CFd?5?9?5?$CFd?$AA@ DB 'L'
	DB	'ink is not Found!!, %d - %d', 00H		; `string'
; Function compile flags: /Ogsp
; File d:\lost saga for developer\youtube\tutorial\source\src\lsclient\boxgraph.cpp
CONST	ENDS
;	COMDAT ?getNextWaypoint@BoxSpace@@QBE_NAAUBoxPath@@ABUD3DXVECTOR3@@1AAU3@AAD@Z
_TEXT	SEGMENT
_p$505600 = -20						; size = 12
_nextBoxIndex$505598 = -8				; size = 2
_this$ = -4						; size = 4
tv1074 = 8						; size = 4
_path$ = 8						; size = 4
_posCur$ = 12						; size = 4
_boxIndex$505610 = 16					; size = 2
_posGoal$ = 16						; size = 4
_outWaypoint$ = 20					; size = 4
tv1073 = 24						; size = 4
_outType$ = 24						; size = 4
?getNextWaypoint@BoxSpace@@QBE_NAAUBoxPath@@ABUD3DXVECTOR3@@1AAU3@AAD@Z PROC ; BoxSpace::getNextWaypoint, COMDAT
; _this$ = ecx

; 433  : {

  00000	55		 push	 ebp
  00001	8b ec		 mov	 ebp, esp
  00003	83 ec 14	 sub	 esp, 20			; 00000014H

; 434  : 	outType = MOVETYPE_WALK;

  00006	8b 45 18	 mov	 eax, DWORD PTR _outType$[ebp]
  00009	53		 push	 ebx

; 435  : 
; 436  : 	if ( path.index == path.path.size() ) {

  0000a	8b 5d 08	 mov	 ebx, DWORD PTR _path$[ebp]
  0000d	c6 00 4c	 mov	 BYTE PTR [eax], 76	; 0000004cH
  00010	8b 43 04	 mov	 eax, DWORD PTR [ebx+4]
  00013	56		 push	 esi
  00014	57		 push	 edi
  00015	0f b7 7b 10	 movzx	 edi, WORD PTR [ebx+16]
  00019	8b f1		 mov	 esi, ecx
  0001b	8b 0b		 mov	 ecx, DWORD PTR [ebx]
  0001d	2b c1		 sub	 eax, ecx
  0001f	0f bf d7	 movsx	 edx, di
  00022	d1 f8		 sar	 eax, 1
  00024	89 75 fc	 mov	 DWORD PTR _this$[ebp], esi
  00027	3b d0		 cmp	 edx, eax
  00029	75 10		 jne	 SHORT $LN13@getNextWay

; 437  : 		outWaypoint = posGoal;

  0002b	8b 75 10	 mov	 esi, DWORD PTR _posGoal$[ebp]
  0002e	8b 7d 14	 mov	 edi, DWORD PTR _outWaypoint$[ebp]
  00031	a5		 movsd
  00032	a5		 movsd
  00033	a5		 movsd
$LN104@getNextWay:

; 438  : 		return false;

  00034	32 c0		 xor	 al, al
  00036	e9 88 05 00 00	 jmp	 $LN14@getNextWay
$LN13@getNextWay:

; 439  : 	}
; 440  : 
; 441  : 	if ( path.bInBox ) 

  0003b	80 7b 12 00	 cmp	 BYTE PTR [ebx+18], 0
  0003f	0f 84 05 05 00
	00		 je	 $LN12@getNextWay

; 442  : 	{
; 443  : 
; 444  : 		const Box& boxCur = m_boxes[ path.path[ path.index ] ];

  00045	8b 3e		 mov	 edi, DWORD PTR [esi]

; 445  : 
; 446  : 		if ( path.index == path.path.size() - 1 ) 
; 447  : 		{
; 448  : 
; 449  : 			getNearestPointInBox( posGoal, boxCur.posMin, boxCur.posMax, outWaypoint, path.margin );

  00047	f3 0f 10 43 14	 movss	 xmm0, DWORD PTR [ebx+20]
  0004c	8d 0c 51	 lea	 ecx, DWORD PTR [ecx+edx*2]
  0004f	0f bf 31	 movsx	 esi, WORD PTR [ecx]
  00052	6b f6 58	 imul	 esi, 88			; 00000058H
  00055	03 f7		 add	 esi, edi
  00057	48		 dec	 eax
  00058	3b d0		 cmp	 edx, eax
  0005a	0f 85 b3 00 00
	00		 jne	 $LN11@getNextWay
  00060	8d 4e 1c	 lea	 ecx, DWORD PTR [esi+28]
  00063	51		 push	 ecx
  00064	f3 0f 11 04 24	 movss	 DWORD PTR [esp], xmm0
  00069	ff 75 14	 push	 DWORD PTR _outWaypoint$[ebp]
  0006c	8d 56 28	 lea	 edx, DWORD PTR [esi+40]
  0006f	8b 75 10	 mov	 esi, DWORD PTR _posGoal$[ebp]
  00072	56		 push	 esi
  00073	e8 00 00 00 00	 call	 ?getNearestPointInBox@@YAXABUD3DXVECTOR3@@00AAU1@M@Z ; getNearestPointInBox

; 450  : 
; 451  : 			if ( insideBox( posGoal, boxCur.posMin, boxCur.posMax ) )

  00078	f3 0f 10 06	 movss	 xmm0, DWORD PTR [esi]
  0007c	f3 0f 10 11	 movss	 xmm2, DWORD PTR [ecx]
  00080	0f 57 c9	 xorps	 xmm1, xmm1
  00083	83 c4 0c	 add	 esp, 12			; 0000000cH
  00086	0f 5a c8	 cvtps2pd xmm1, xmm0
  00089	0f 5a d2	 cvtps2pd xmm2, xmm2
  0008c	66 0f 2f d1	 comisd	 xmm2, xmm1
  00090	0f 87 aa 04 00
	00		 ja	 $LN4@getNextWay
  00096	f3 0f 10 0a	 movss	 xmm1, DWORD PTR [edx]
  0009a	0f 5a c0	 cvtps2pd xmm0, xmm0
  0009d	0f 5a c9	 cvtps2pd xmm1, xmm1
  000a0	66 0f 2f c1	 comisd	 xmm0, xmm1
  000a4	0f 87 96 04 00
	00		 ja	 $LN4@getNextWay
  000aa	f3 0f 10 46 04	 movss	 xmm0, DWORD PTR [esi+4]
  000af	f3 0f 10 51 04	 movss	 xmm2, DWORD PTR [ecx+4]
  000b4	0f 57 c9	 xorps	 xmm1, xmm1
  000b7	0f 5a c8	 cvtps2pd xmm1, xmm0
  000ba	0f 5a d2	 cvtps2pd xmm2, xmm2
  000bd	66 0f 2f d1	 comisd	 xmm2, xmm1
  000c1	0f 87 79 04 00
	00		 ja	 $LN4@getNextWay
  000c7	f3 0f 10 4a 04	 movss	 xmm1, DWORD PTR [edx+4]
  000cc	0f 5a c0	 cvtps2pd xmm0, xmm0
  000cf	0f 5a c9	 cvtps2pd xmm1, xmm1
  000d2	66 0f 2f c1	 comisd	 xmm0, xmm1
  000d6	0f 87 64 04 00
	00		 ja	 $LN4@getNextWay
  000dc	f3 0f 10 46 08	 movss	 xmm0, DWORD PTR [esi+8]
  000e1	f3 0f 10 51 08	 movss	 xmm2, DWORD PTR [ecx+8]
  000e6	0f 57 c9	 xorps	 xmm1, xmm1
  000e9	0f 5a c8	 cvtps2pd xmm1, xmm0
  000ec	0f 5a d2	 cvtps2pd xmm2, xmm2
  000ef	66 0f 2f d1	 comisd	 xmm2, xmm1
  000f3	0f 87 47 04 00
	00		 ja	 $LN4@getNextWay
  000f9	f3 0f 10 4a 08	 movss	 xmm1, DWORD PTR [edx+8]
  000fe	0f 5a c0	 cvtps2pd xmm0, xmm0
  00101	0f 5a c9	 cvtps2pd xmm1, xmm1
  00104	66 0f 2f c1	 comisd	 xmm0, xmm1
  00108	0f 87 32 04 00
	00		 ja	 $LN4@getNextWay

; 452  : 				return false;

  0010e	e9 21 ff ff ff	 jmp	 $LN104@getNextWay
$LN11@getNextWay:

; 453  : 
; 454  : 		} 
; 455  : 		else 
; 456  : 		{
; 457  : 
; 458  : 			short nextBoxIndex = path.path[ path.index+1 ];

  00113	0f b7 41 02	 movzx	 eax, WORD PTR [ecx+2]
  00117	89 45 f8	 mov	 DWORD PTR _nextBoxIndex$505598[ebp], eax

; 459  : 			const Box& boxNext = m_boxes[ nextBoxIndex ];

  0011a	98		 cwde
  0011b	6b c0 58	 imul	 eax, 88			; 00000058H

; 460  : 
; 461  : 			Vec3 p;
; 462  : 			getNearestPointInBox( posCur, boxNext.posMin, boxNext.posMax, p, path.margin );

  0011e	51		 push	 ecx
  0011f	03 c7		 add	 eax, edi
  00121	f3 0f 11 04 24	 movss	 DWORD PTR [esp], xmm0
  00126	8d 4d ec	 lea	 ecx, DWORD PTR _p$505600[ebp]
  00129	8d 50 28	 lea	 edx, DWORD PTR [eax+40]
  0012c	83 c0 1c	 add	 eax, 28			; 0000001cH
  0012f	51		 push	 ecx
  00130	ff 75 0c	 push	 DWORD PTR _posCur$[ebp]
  00133	8b c8		 mov	 ecx, eax
  00135	89 55 18	 mov	 DWORD PTR tv1073[ebp], edx
  00138	89 45 08	 mov	 DWORD PTR tv1074[ebp], eax
  0013b	e8 00 00 00 00	 call	 ?getNearestPointInBox@@YAXABUD3DXVECTOR3@@00AAU1@M@Z ; getNearestPointInBox

; 463  : 
; 464  : 			if ( getLinkType( path.path[ path.index ], nextBoxIndex ) == MOVETYPE_WALK ){

  00140	0f bf 7b 10	 movsx	 edi, WORD PTR [ebx+16]
  00144	8b 03		 mov	 eax, DWORD PTR [ebx]
  00146	0f b7 04 78	 movzx	 eax, WORD PTR [eax+edi*2]
  0014a	8b 4d fc	 mov	 ecx, DWORD PTR _this$[ebp]
  0014d	83 c4 0c	 add	 esp, 12			; 0000000cH
  00150	ff 75 f8	 push	 DWORD PTR _nextBoxIndex$505598[ebp]
  00153	50		 push	 eax
  00154	e8 00 00 00 00	 call	 ?getLinkType@BoxSpace@@ABEDFF@Z ; BoxSpace::getLinkType
  00159	3c 4c		 cmp	 al, 76			; 0000004cH
  0015b	0f 85 86 03 00
	00		 jne	 $LN8@getNextWay

; 465  : 
; 466  : 				// path straightening
; 467  : 
; 468  : 				if ( path.index == path.path.size() - 2 ) 

  00161	8b 4b 04	 mov	 ecx, DWORD PTR [ebx+4]
  00164	8b 03		 mov	 eax, DWORD PTR [ebx]
  00166	2b c8		 sub	 ecx, eax
  00168	d1 f9		 sar	 ecx, 1
  0016a	83 e9 02	 sub	 ecx, 2
  0016d	3b f9		 cmp	 edi, ecx
  0016f	0f 85 06 03 00
	00		 jne	 $LN7@getNextWay

; 469  : 				{
; 470  : 					float d1 = getXYDist( p, posGoal ) + getXYDist( p, posCur );

  00175	8b 7d 10	 mov	 edi, DWORD PTR _posGoal$[ebp]
  00178	f3 0f 10 0f	 movss	 xmm1, DWORD PTR [edi]
  0017c	f3 0f 10 45 ec	 movss	 xmm0, DWORD PTR _p$505600[ebp]
  00181	f3 0f 10 57 04	 movss	 xmm2, DWORD PTR [edi+4]
  00186	f2 0f 10 2d 00
	00 00 00	 movsd	 xmm5, QWORD PTR __mask@@AbsDouble@
  0018e	f2 0f 10 35 00
	00 00 00	 movsd	 xmm6, QWORD PTR __real@3ff69fbe80000000
  00196	0f 5a c9	 cvtps2pd xmm1, xmm1
  00199	0f 5a c0	 cvtps2pd xmm0, xmm0
  0019c	f2 0f 5c c1	 subsd	 xmm0, xmm1
  001a0	f3 0f 10 4d f0	 movss	 xmm1, DWORD PTR _p$505600[ebp+4]
  001a5	0f 5a c9	 cvtps2pd xmm1, xmm1
  001a8	0f 5a d2	 cvtps2pd xmm2, xmm2
  001ab	f2 0f 5c ca	 subsd	 xmm1, xmm2
  001af	f2 0f 5a c0	 cvtsd2ss xmm0, xmm0
  001b3	f2 0f 5a c9	 cvtsd2ss xmm1, xmm1
  001b7	f3 0f 5a c0	 cvtss2sd xmm0, xmm0
  001bb	f3 0f 5a c9	 cvtss2sd xmm1, xmm1
  001bf	66 0f 54 c5	 andpd	 xmm0, xmm5
  001c3	66 0f 54 cd	 andpd	 xmm1, xmm5
  001c7	0f 57 d2	 xorps	 xmm2, xmm2
  001ca	f2 0f 5a c0	 cvtsd2ss xmm0, xmm0
  001ce	f2 0f 5a c9	 cvtsd2ss xmm1, xmm1
  001d2	f3 0f 5a d0	 cvtss2sd xmm2, xmm0
  001d6	0f 57 db	 xorps	 xmm3, xmm3
  001d9	f3 0f 5a d9	 cvtss2sd xmm3, xmm1
  001dd	66 0f 2f d3	 comisd	 xmm2, xmm3
  001e1	0f 57 d2	 xorps	 xmm2, xmm2
  001e4	76 21		 jbe	 SHORT $LN43@getNextWay
  001e6	f3 0f 5a d1	 cvtss2sd xmm2, xmm1
  001ea	f3 0f 5a c0	 cvtss2sd xmm0, xmm0
  001ee	f2 0f 5c c2	 subsd	 xmm0, xmm2
  001f2	f3 0f 5a c9	 cvtss2sd xmm1, xmm1
  001f6	f2 0f 59 ce	 mulsd	 xmm1, xmm6
  001fa	f2 0f 58 c1	 addsd	 xmm0, xmm1
  001fe	0f 57 d2	 xorps	 xmm2, xmm2
  00201	f2 0f 5a d0	 cvtsd2ss xmm2, xmm0
  00205	eb 1f		 jmp	 SHORT $LN42@getNextWay
$LN43@getNextWay:
  00207	f3 0f 5a d0	 cvtss2sd xmm2, xmm0
  0020b	f3 0f 5a c9	 cvtss2sd xmm1, xmm1
  0020f	f2 0f 5c ca	 subsd	 xmm1, xmm2
  00213	f3 0f 5a c0	 cvtss2sd xmm0, xmm0
  00217	f2 0f 59 c6	 mulsd	 xmm0, xmm6
  0021b	f2 0f 58 c8	 addsd	 xmm1, xmm0
  0021f	0f 57 d2	 xorps	 xmm2, xmm2
  00222	f2 0f 5a d1	 cvtsd2ss xmm2, xmm1
$LN42@getNextWay:
  00226	8b 45 0c	 mov	 eax, DWORD PTR _posCur$[ebp]
  00229	f3 0f 10 08	 movss	 xmm1, DWORD PTR [eax]
  0022d	f3 0f 10 45 ec	 movss	 xmm0, DWORD PTR _p$505600[ebp]
  00232	f3 0f 10 58 04	 movss	 xmm3, DWORD PTR [eax+4]
  00237	0f 5a c9	 cvtps2pd xmm1, xmm1
  0023a	0f 5a c0	 cvtps2pd xmm0, xmm0
  0023d	f2 0f 5c c1	 subsd	 xmm0, xmm1
  00241	f3 0f 10 4d f0	 movss	 xmm1, DWORD PTR _p$505600[ebp+4]
  00246	0f 5a c9	 cvtps2pd xmm1, xmm1
  00249	0f 5a db	 cvtps2pd xmm3, xmm3
  0024c	f2 0f 5c cb	 subsd	 xmm1, xmm3
  00250	f2 0f 5a c0	 cvtsd2ss xmm0, xmm0
  00254	f2 0f 5a c9	 cvtsd2ss xmm1, xmm1
  00258	f3 0f 5a c0	 cvtss2sd xmm0, xmm0
  0025c	f3 0f 5a c9	 cvtss2sd xmm1, xmm1
  00260	66 0f 54 c5	 andpd	 xmm0, xmm5
  00264	66 0f 54 cd	 andpd	 xmm1, xmm5
  00268	0f 57 db	 xorps	 xmm3, xmm3
  0026b	f2 0f 5a c0	 cvtsd2ss xmm0, xmm0
  0026f	f2 0f 5a c9	 cvtsd2ss xmm1, xmm1
  00273	f3 0f 5a d8	 cvtss2sd xmm3, xmm0
  00277	0f 57 e4	 xorps	 xmm4, xmm4
  0027a	f3 0f 5a e1	 cvtss2sd xmm4, xmm1
  0027e	66 0f 2f dc	 comisd	 xmm3, xmm4
  00282	0f 57 db	 xorps	 xmm3, xmm3
  00285	76 1e		 jbe	 SHORT $LN55@getNextWay
  00287	f3 0f 5a d9	 cvtss2sd xmm3, xmm1
  0028b	f3 0f 5a c0	 cvtss2sd xmm0, xmm0
  0028f	f2 0f 5c c3	 subsd	 xmm0, xmm3
  00293	f3 0f 5a c9	 cvtss2sd xmm1, xmm1
  00297	f2 0f 59 ce	 mulsd	 xmm1, xmm6
  0029b	f2 0f 58 c1	 addsd	 xmm0, xmm1
  0029f	f2 0f 5a c0	 cvtsd2ss xmm0, xmm0
  002a3	eb 1f		 jmp	 SHORT $LN54@getNextWay
$LN55@getNextWay:
  002a5	f3 0f 5a d8	 cvtss2sd xmm3, xmm0
  002a9	f3 0f 5a c0	 cvtss2sd xmm0, xmm0
  002ad	f3 0f 5a c9	 cvtss2sd xmm1, xmm1
  002b1	f2 0f 59 c6	 mulsd	 xmm0, xmm6
  002b5	f2 0f 5c cb	 subsd	 xmm1, xmm3
  002b9	f2 0f 58 c8	 addsd	 xmm1, xmm0
  002bd	0f 57 c0	 xorps	 xmm0, xmm0
  002c0	f2 0f 5a c1	 cvtsd2ss xmm0, xmm1
$LN54@getNextWay:

; 471  : 					getNearestPointInBox( posGoal, boxNext.posMin, boxNext.posMax, outWaypoint, path.margin );

  002c4	8b 55 18	 mov	 edx, DWORD PTR tv1073[ebp]
  002c7	f3 0f 5a c0	 cvtss2sd xmm0, xmm0
  002cb	51		 push	 ecx
  002cc	8b 4d 08	 mov	 ecx, DWORD PTR tv1074[ebp]
  002cf	0f 5a ca	 cvtps2pd xmm1, xmm2
  002d2	f2 0f 58 c8	 addsd	 xmm1, xmm0
  002d6	f3 0f 10 43 14	 movss	 xmm0, DWORD PTR [ebx+20]
  002db	f3 0f 11 04 24	 movss	 DWORD PTR [esp], xmm0
  002e0	ff 75 14	 push	 DWORD PTR _outWaypoint$[ebp]
  002e3	0f 57 ff	 xorps	 xmm7, xmm7
  002e6	57		 push	 edi
  002e7	66 0f 5a f9	 cvtpd2ps xmm7, xmm1
  002eb	e8 00 00 00 00	 call	 ?getNearestPointInBox@@YAXABUD3DXVECTOR3@@00AAU1@M@Z ; getNearestPointInBox

; 472  : 					getNearestPointInBox( outWaypoint, boxCur.posMin, boxCur.posMax, outWaypoint, path.margin );

  002f0	f3 0f 10 43 14	 movss	 xmm0, DWORD PTR [ebx+20]
  002f5	83 c4 08	 add	 esp, 8
  002f8	f3 0f 11 04 24	 movss	 DWORD PTR [esp], xmm0
  002fd	ff 75 14	 push	 DWORD PTR _outWaypoint$[ebp]
  00300	8d 56 28	 lea	 edx, DWORD PTR [esi+40]
  00303	ff 75 14	 push	 DWORD PTR _outWaypoint$[ebp]
  00306	8d 4e 1c	 lea	 ecx, DWORD PTR [esi+28]
  00309	e8 00 00 00 00	 call	 ?getNearestPointInBox@@YAXABUD3DXVECTOR3@@00AAU1@M@Z ; getNearestPointInBox

; 473  : 					float d2 = getXYDist( p, posGoal ) + getXYDist( p, posCur );

  0030e	f3 0f 10 0f	 movss	 xmm1, DWORD PTR [edi]
  00312	f3 0f 10 45 ec	 movss	 xmm0, DWORD PTR _p$505600[ebp]
  00317	f3 0f 10 57 04	 movss	 xmm2, DWORD PTR [edi+4]
  0031c	0f 5a c9	 cvtps2pd xmm1, xmm1
  0031f	0f 5a c0	 cvtps2pd xmm0, xmm0
  00322	f2 0f 5c c1	 subsd	 xmm0, xmm1
  00326	f3 0f 10 4d f0	 movss	 xmm1, DWORD PTR _p$505600[ebp+4]
  0032b	0f 5a c9	 cvtps2pd xmm1, xmm1
  0032e	0f 5a d2	 cvtps2pd xmm2, xmm2
  00331	f2 0f 5c ca	 subsd	 xmm1, xmm2
  00335	f2 0f 5a c0	 cvtsd2ss xmm0, xmm0
  00339	f2 0f 5a c9	 cvtsd2ss xmm1, xmm1
  0033d	f3 0f 5a c0	 cvtss2sd xmm0, xmm0
  00341	f3 0f 5a c9	 cvtss2sd xmm1, xmm1
  00345	66 0f 54 c5	 andpd	 xmm0, xmm5
  00349	66 0f 54 cd	 andpd	 xmm1, xmm5
  0034d	0f 57 d2	 xorps	 xmm2, xmm2
  00350	f2 0f 5a c0	 cvtsd2ss xmm0, xmm0
  00354	f2 0f 5a c9	 cvtsd2ss xmm1, xmm1
  00358	f3 0f 5a d0	 cvtss2sd xmm2, xmm0
  0035c	0f 57 db	 xorps	 xmm3, xmm3
  0035f	83 c4 0c	 add	 esp, 12			; 0000000cH
  00362	f3 0f 5a d9	 cvtss2sd xmm3, xmm1
  00366	66 0f 2f d3	 comisd	 xmm2, xmm3
  0036a	0f 57 d2	 xorps	 xmm2, xmm2
  0036d	76 21		 jbe	 SHORT $LN67@getNextWay
  0036f	f3 0f 5a d1	 cvtss2sd xmm2, xmm1
  00373	f3 0f 5a c0	 cvtss2sd xmm0, xmm0
  00377	f2 0f 5c c2	 subsd	 xmm0, xmm2
  0037b	f3 0f 5a c9	 cvtss2sd xmm1, xmm1
  0037f	f2 0f 59 ce	 mulsd	 xmm1, xmm6
  00383	f2 0f 58 c1	 addsd	 xmm0, xmm1
  00387	0f 57 d2	 xorps	 xmm2, xmm2
  0038a	f2 0f 5a d0	 cvtsd2ss xmm2, xmm0
  0038e	eb 1f		 jmp	 SHORT $LN66@getNextWay
$LN67@getNextWay:
  00390	f3 0f 5a d0	 cvtss2sd xmm2, xmm0
  00394	f3 0f 5a c9	 cvtss2sd xmm1, xmm1
  00398	f2 0f 5c ca	 subsd	 xmm1, xmm2
  0039c	f3 0f 5a c0	 cvtss2sd xmm0, xmm0
  003a0	f2 0f 59 c6	 mulsd	 xmm0, xmm6
  003a4	f2 0f 58 c8	 addsd	 xmm1, xmm0
  003a8	0f 57 d2	 xorps	 xmm2, xmm2
  003ab	f2 0f 5a d1	 cvtsd2ss xmm2, xmm1
$LN66@getNextWay:
  003af	8b 45 0c	 mov	 eax, DWORD PTR _posCur$[ebp]
  003b2	f3 0f 10 08	 movss	 xmm1, DWORD PTR [eax]
  003b6	f3 0f 10 45 ec	 movss	 xmm0, DWORD PTR _p$505600[ebp]
  003bb	f3 0f 10 58 04	 movss	 xmm3, DWORD PTR [eax+4]
  003c0	0f 5a c9	 cvtps2pd xmm1, xmm1
  003c3	0f 5a c0	 cvtps2pd xmm0, xmm0
  003c6	f2 0f 5c c1	 subsd	 xmm0, xmm1
  003ca	f3 0f 10 4d f0	 movss	 xmm1, DWORD PTR _p$505600[ebp+4]
  003cf	0f 5a c9	 cvtps2pd xmm1, xmm1
  003d2	0f 5a db	 cvtps2pd xmm3, xmm3
  003d5	f2 0f 5c cb	 subsd	 xmm1, xmm3
  003d9	f2 0f 5a c0	 cvtsd2ss xmm0, xmm0
  003dd	f2 0f 5a c9	 cvtsd2ss xmm1, xmm1
  003e1	f3 0f 5a c0	 cvtss2sd xmm0, xmm0
  003e5	f3 0f 5a c9	 cvtss2sd xmm1, xmm1
  003e9	66 0f 54 c5	 andpd	 xmm0, xmm5
  003ed	66 0f 54 cd	 andpd	 xmm1, xmm5
  003f1	0f 57 db	 xorps	 xmm3, xmm3
  003f4	f2 0f 5a c0	 cvtsd2ss xmm0, xmm0
  003f8	f2 0f 5a c9	 cvtsd2ss xmm1, xmm1
  003fc	f3 0f 5a d8	 cvtss2sd xmm3, xmm0
  00400	0f 57 e4	 xorps	 xmm4, xmm4
  00403	f3 0f 5a e1	 cvtss2sd xmm4, xmm1
  00407	66 0f 2f dc	 comisd	 xmm3, xmm4
  0040b	0f 57 db	 xorps	 xmm3, xmm3
  0040e	76 1e		 jbe	 SHORT $LN79@getNextWay
  00410	f3 0f 5a d9	 cvtss2sd xmm3, xmm1
  00414	f3 0f 5a c0	 cvtss2sd xmm0, xmm0
  00418	f2 0f 5c c3	 subsd	 xmm0, xmm3
  0041c	f3 0f 5a c9	 cvtss2sd xmm1, xmm1
  00420	f2 0f 59 ce	 mulsd	 xmm1, xmm6
  00424	f2 0f 58 c1	 addsd	 xmm0, xmm1
  00428	f2 0f 5a c0	 cvtsd2ss xmm0, xmm0
  0042c	eb 1f		 jmp	 SHORT $LN78@getNextWay
$LN79@getNextWay:
  0042e	f3 0f 5a d8	 cvtss2sd xmm3, xmm0
  00432	f3 0f 5a c0	 cvtss2sd xmm0, xmm0
  00436	f3 0f 5a c9	 cvtss2sd xmm1, xmm1
  0043a	f2 0f 59 c6	 mulsd	 xmm0, xmm6
  0043e	f2 0f 5c cb	 subsd	 xmm1, xmm3
  00442	f2 0f 58 c8	 addsd	 xmm1, xmm0
  00446	0f 57 c0	 xorps	 xmm0, xmm0
  00449	f2 0f 5a c1	 cvtsd2ss xmm0, xmm1
$LN78@getNextWay:

; 474  : 					if ( d1 < d2 ) 

  0044d	f3 0f 5a c0	 cvtss2sd xmm0, xmm0
  00451	0f 5a d2	 cvtps2pd xmm2, xmm2
  00454	f2 0f 58 c2	 addsd	 xmm0, xmm2
  00458	f2 0f 5a c0	 cvtsd2ss xmm0, xmm0
  0045c	0f 5a cf	 cvtps2pd xmm1, xmm7
  0045f	f3 0f 5a c0	 cvtss2sd xmm0, xmm0
  00463	66 0f 2f c1	 comisd	 xmm0, xmm1
  00467	0f 86 d3 00 00
	00		 jbe	 $LN4@getNextWay

; 475  : 						outWaypoint = p;

  0046d	8b 7d 14	 mov	 edi, DWORD PTR _outWaypoint$[ebp]
  00470	8d 75 ec	 lea	 esi, DWORD PTR _p$505600[ebp]
  00473	a5		 movsd
  00474	a5		 movsd
  00475	a5		 movsd

; 476  : 				} 
; 477  : 				else 

  00476	e9 c5 00 00 00	 jmp	 $LN4@getNextWay
$LN7@getNextWay:

; 478  : 				{
; 479  : 					const Box& boxNN = m_boxes[ path.path[ path.index+2 ] ];

  0047b	0f bf 44 78 04	 movsx	 eax, WORD PTR [eax+edi*2+4]
  00480	8b 4d fc	 mov	 ecx, DWORD PTR _this$[ebp]
  00483	6b c0 58	 imul	 eax, 88			; 00000058H
  00486	03 01		 add	 eax, DWORD PTR [ecx]

; 480  : 					getNearestPointInBox( p, boxNN.posMin, boxNN.posMax, p, path.margin );

  00488	f3 0f 10 43 14	 movss	 xmm0, DWORD PTR [ebx+20]
  0048d	51		 push	 ecx
  0048e	f3 0f 11 04 24	 movss	 DWORD PTR [esp], xmm0
  00493	8d 4d ec	 lea	 ecx, DWORD PTR _p$505600[ebp]
  00496	51		 push	 ecx
  00497	8d 50 28	 lea	 edx, DWORD PTR [eax+40]
  0049a	8d 48 1c	 lea	 ecx, DWORD PTR [eax+28]
  0049d	8d 45 ec	 lea	 eax, DWORD PTR _p$505600[ebp]
  004a0	50		 push	 eax
  004a1	e8 00 00 00 00	 call	 ?getNearestPointInBox@@YAXABUD3DXVECTOR3@@00AAU1@M@Z ; getNearestPointInBox

; 481  : 					getNearestPointInBox( p, boxNext.posMin, boxNext.posMax, p, path.margin );

  004a6	f3 0f 10 43 14	 movss	 xmm0, DWORD PTR [ebx+20]
  004ab	8b 55 18	 mov	 edx, DWORD PTR tv1073[ebp]
  004ae	8b 4d 08	 mov	 ecx, DWORD PTR tv1074[ebp]
  004b1	83 c4 08	 add	 esp, 8
  004b4	8d 45 ec	 lea	 eax, DWORD PTR _p$505600[ebp]
  004b7	f3 0f 11 04 24	 movss	 DWORD PTR [esp], xmm0
  004bc	50		 push	 eax
  004bd	50		 push	 eax
  004be	e8 00 00 00 00	 call	 ?getNearestPointInBox@@YAXABUD3DXVECTOR3@@00AAU1@M@Z ; getNearestPointInBox

; 482  : 					getNearestPointInBox( p, boxCur.posMin, boxCur.posMax, outWaypoint, path.margin );

  004c3	f3 0f 10 43 14	 movss	 xmm0, DWORD PTR [ebx+20]
  004c8	83 c4 08	 add	 esp, 8
  004cb	f3 0f 11 04 24	 movss	 DWORD PTR [esp], xmm0
  004d0	ff 75 14	 push	 DWORD PTR _outWaypoint$[ebp]
  004d3	8d 45 ec	 lea	 eax, DWORD PTR _p$505600[ebp]
  004d6	8d 56 28	 lea	 edx, DWORD PTR [esi+40]
  004d9	8d 4e 1c	 lea	 ecx, DWORD PTR [esi+28]
  004dc	50		 push	 eax
  004dd	e8 00 00 00 00	 call	 ?getNearestPointInBox@@YAXABUD3DXVECTOR3@@00AAU1@M@Z ; getNearestPointInBox
  004e2	83 c4 0c	 add	 esp, 12			; 0000000cH

; 483  : 				}
; 484  : 			
; 485  : 			} else {

  004e5	eb 59		 jmp	 SHORT $LN4@getNextWay
$LN8@getNextWay:

; 486  : 
; 487  : 				getNearestPointInBox( p, boxCur.posMin, boxCur.posMax, outWaypoint, path.margin );

  004e7	f3 0f 10 43 14	 movss	 xmm0, DWORD PTR [ebx+20]
  004ec	8d 4e 1c	 lea	 ecx, DWORD PTR [esi+28]
  004ef	51		 push	 ecx
  004f0	f3 0f 11 04 24	 movss	 DWORD PTR [esp], xmm0
  004f5	ff 75 14	 push	 DWORD PTR _outWaypoint$[ebp]
  004f8	8d 45 ec	 lea	 eax, DWORD PTR _p$505600[ebp]
  004fb	8d 56 28	 lea	 edx, DWORD PTR [esi+40]
  004fe	50		 push	 eax
  004ff	e8 00 00 00 00	 call	 ?getNearestPointInBox@@YAXABUD3DXVECTOR3@@00AAU1@M@Z ; getNearestPointInBox

; 488  : 
; 489  : 				// calc jump distance
; 490  : 
; 491  : 				adjustForJump( outWaypoint, boxCur.posMin, boxCur.posMax, boxNext.posMin, boxNext.posMax, 
; 492  : 							   path.jumpH, path.jumpV, path.margin, outWaypoint );

  00504	f3 0f 10 43 14	 movss	 xmm0, DWORD PTR [ebx+20]
  00509	83 c4 0c	 add	 esp, 12			; 0000000cH
  0050c	ff 75 14	 push	 DWORD PTR _outWaypoint$[ebp]
  0050f	83 ec 0c	 sub	 esp, 12			; 0000000cH
  00512	f3 0f 11 44 24
	08		 movss	 DWORD PTR [esp+8], xmm0
  00518	f3 0f 10 43 1c	 movss	 xmm0, DWORD PTR [ebx+28]
  0051d	f3 0f 11 44 24
	04		 movss	 DWORD PTR [esp+4], xmm0
  00523	f3 0f 10 43 18	 movss	 xmm0, DWORD PTR [ebx+24]
  00528	f3 0f 11 04 24	 movss	 DWORD PTR [esp], xmm0
  0052d	ff 75 18	 push	 DWORD PTR tv1073[ebp]
  00530	ff 75 08	 push	 DWORD PTR tv1074[ebp]
  00533	52		 push	 edx
  00534	51		 push	 ecx
  00535	ff 75 14	 push	 DWORD PTR _outWaypoint$[ebp]
  00538	e8 00 00 00 00	 call	 ?adjustForJump@@YAXABUD3DXVECTOR3@@0000MMMAAU1@@Z ; adjustForJump
  0053d	83 c4 24	 add	 esp, 36			; 00000024H
$LN4@getNextWay:

; 493  : 			}
; 494  : 		}
; 495  : 
; 496  : 		path.bInBox = false;
; 497  : 		path.index++;

  00540	66 ff 43 10	 inc	 WORD PTR [ebx+16]
  00544	c6 43 12 00	 mov	 BYTE PTR [ebx+18], 0

; 498  : 	} 
; 499  : 	else 

  00548	eb 77		 jmp	 SHORT $LN3@getNextWay
$LN12@getNextWay:

; 500  : 	{
; 501  : 
; 502  : 		short boxIndex = path.path[ path.index ];

  0054a	8d 04 51	 lea	 eax, DWORD PTR [ecx+edx*2]
  0054d	0f b7 08	 movzx	 ecx, WORD PTR [eax]
  00550	89 4d 10	 mov	 DWORD PTR _boxIndex$505610[ebp], ecx

; 503  : 
; 504  : 		if ( path.index > 0 ) {

  00553	66 85 ff	 test	 di, di
  00556	7e 3d		 jle	 SHORT $LN103@getNextWay

; 505  : 			outType = getLinkType( path.path[ path.index-1 ], boxIndex );

  00558	0f b7 40 fe	 movzx	 eax, WORD PTR [eax-2]
  0055c	51		 push	 ecx
  0055d	50		 push	 eax
  0055e	8b ce		 mov	 ecx, esi
  00560	e8 00 00 00 00	 call	 ?getLinkType@BoxSpace@@ABEDFF@Z ; BoxSpace::getLinkType
  00565	8b 4d 18	 mov	 ecx, DWORD PTR _outType$[ebp]
  00568	88 01		 mov	 BYTE PTR [ecx], al

; 506  : 			assert( outType != 0 && "link is not found!!" );
; 507  : 			if( outType == 0)

  0056a	84 c0		 test	 al, al
  0056c	75 27		 jne	 SHORT $LN103@getNextWay

; 508  : 				LOG.PrintTimeAndLog(0, "Link is not Found!!, %d - %d", path.path[path.index-1], boxIndex );

  0056e	0f bf 45 10	 movsx	 eax, WORD PTR _boxIndex$505610[ebp]
  00572	8b 0b		 mov	 ecx, DWORD PTR [ebx]
  00574	50		 push	 eax
  00575	0f bf 43 10	 movsx	 eax, WORD PTR [ebx+16]
  00579	0f bf 44 41 fe	 movsx	 eax, WORD PTR [ecx+eax*2-2]
  0057e	50		 push	 eax
  0057f	68 00 00 00 00	 push	 OFFSET ??_C@_0BN@MBILBHDG@Link?5is?5not?5Found?$CB?$CB?0?5?$CFd?5?9?5?$CFd?$AA@
  00584	6a 00		 push	 0
  00586	ff 35 00 00 00
	00		 push	 DWORD PTR __imp_?LOG@@3VCLog@@A
  0058c	ff 15 00 00 00
	00		 call	 DWORD PTR __imp_?PrintTimeAndLog@CLog@@QAAXHPADZZ
  00592	83 c4 14	 add	 esp, 20			; 00000014H
$LN103@getNextWay:

; 509  : 		}
; 510  : 
; 511  : 		const Box& box = m_boxes[ boxIndex ];

  00595	0f bf 45 10	 movsx	 eax, WORD PTR _boxIndex$505610[ebp]

; 512  : 		getNearestPointInBox( posCur, box.posMin, box.posMax, outWaypoint, path.margin );

  00599	f3 0f 10 43 14	 movss	 xmm0, DWORD PTR [ebx+20]
  0059e	6b c0 58	 imul	 eax, 88			; 00000058H
  005a1	03 06		 add	 eax, DWORD PTR [esi]
  005a3	51		 push	 ecx
  005a4	f3 0f 11 04 24	 movss	 DWORD PTR [esp], xmm0
  005a9	ff 75 14	 push	 DWORD PTR _outWaypoint$[ebp]
  005ac	8d 50 28	 lea	 edx, DWORD PTR [eax+40]
  005af	ff 75 0c	 push	 DWORD PTR _posCur$[ebp]
  005b2	8d 48 1c	 lea	 ecx, DWORD PTR [eax+28]
  005b5	e8 00 00 00 00	 call	 ?getNearestPointInBox@@YAXABUD3DXVECTOR3@@00AAU1@M@Z ; getNearestPointInBox
  005ba	83 c4 0c	 add	 esp, 12			; 0000000cH

; 513  : 		path.bInBox = true;

  005bd	c6 43 12 01	 mov	 BYTE PTR [ebx+18], 1
$LN3@getNextWay:

; 514  : 	}
; 515  : 
; 516  : 	return true;

  005c1	b0 01		 mov	 al, 1
$LN14@getNextWay:
  005c3	5f		 pop	 edi
  005c4	5e		 pop	 esi
  005c5	5b		 pop	 ebx

; 517  : }

  005c6	c9		 leave
  005c7	c2 14 00	 ret	 20			; 00000014H
?getNextWaypoint@BoxSpace@@QBE_NAAUBoxPath@@ABUD3DXVECTOR3@@1AAU3@AAD@Z ENDP ; BoxSpace::getNextWaypoint
_TEXT	ENDS
PUBLIC	?ls_getNextWaypoint@BoxSpace@@QBE_NAAUBoxPath@@ABUD3DXVECTOR3@@1AAU3@AAD@Z ; BoxSpace::ls_getNextWaypoint
; Function compile flags: /Ogsp
;	COMDAT ?ls_getNextWaypoint@BoxSpace@@QBE_NAAUBoxPath@@ABUD3DXVECTOR3@@1AAU3@AAD@Z
_TEXT	SEGMENT
_path$ = 8						; size = 4
_posCur$ = 12						; size = 4
_posGoal$ = 16						; size = 4
_outWaypoint$ = 20					; size = 4
_outType$ = 24						; size = 4
?ls_getNextWaypoint@BoxSpace@@QBE_NAAUBoxPath@@ABUD3DXVECTOR3@@1AAU3@AAD@Z PROC ; BoxSpace::ls_getNextWaypoint, COMDAT
; _this$ = ecx

; 520  : {

  00000	55		 push	 ebp
  00001	8b ec		 mov	 ebp, esp

; 521  : 	outType = MOVETYPE_WALK;

  00003	8b 45 18	 mov	 eax, DWORD PTR _outType$[ebp]

; 522  : 
; 523  : 	if ( path.index == path.path.size() ) {

  00006	8b 55 08	 mov	 edx, DWORD PTR _path$[ebp]
  00009	c6 00 4c	 mov	 BYTE PTR [eax], 76	; 0000004cH
  0000c	8b 42 04	 mov	 eax, DWORD PTR [edx+4]
  0000f	56		 push	 esi
  00010	0f bf 72 10	 movsx	 esi, WORD PTR [edx+16]
  00014	57		 push	 edi
  00015	8b 3a		 mov	 edi, DWORD PTR [edx]
  00017	2b c7		 sub	 eax, edi
  00019	d1 f8		 sar	 eax, 1
  0001b	3b f0		 cmp	 esi, eax
  0001d	75 0d		 jne	 SHORT $LN7@ls_getNext

; 524  : 		outWaypoint = posGoal;

  0001f	8b 75 10	 mov	 esi, DWORD PTR _posGoal$[ebp]
  00022	8b 7d 14	 mov	 edi, DWORD PTR _outWaypoint$[ebp]
  00025	a5		 movsd
  00026	a5		 movsd
  00027	a5		 movsd
$LN30@ls_getNext:

; 525  : 		return false;

  00028	32 c0		 xor	 al, al
  0002a	eb 27		 jmp	 SHORT $LN8@ls_getNext
$LN7@ls_getNext:

; 526  : 	}
; 527  : 
; 528  : 	if ( true || path.bInBox ) 
; 529  : 	{
; 530  : 
; 531  : 		const Box& boxCur = m_boxes[ path.path[ path.index ] ];
; 532  : 
; 533  : 		if ( path.index == path.path.size() - 1 ) 

  0002c	48		 dec	 eax
  0002d	3b f0		 cmp	 esi, eax

; 534  : 		{
; 535  : 			return false;

  0002f	74 f7		 je	 SHORT $LN30@ls_getNext

; 536  : 
; 537  : // 			getNearestPointInBox( posGoal, boxCur.posMin, boxCur.posMax, outWaypoint, path.margin );
; 538  : // 
; 539  : // 			if ( insideBox( posGoal, boxCur.posMin, boxCur.posMax ) )
; 540  : // 				return false;
; 541  : 
; 542  : 		} 
; 543  : 		else 
; 544  : 		{
; 545  : 
; 546  : 			short nextBoxIndex = path.path[ path.index+1 ];
; 547  : 			const Box& boxNext = m_boxes[ nextBoxIndex ];

  00031	0f bf 44 77 02	 movsx	 eax, WORD PTR [edi+esi*2+2]
  00036	6b c0 58	 imul	 eax, 88			; 00000058H
  00039	03 01		 add	 eax, DWORD PTR [ecx]

; 548  : 
; 549  : 			outWaypoint.x = boxNext.posCenter.x;

  0003b	8b 4d 14	 mov	 ecx, DWORD PTR _outWaypoint$[ebp]
  0003e	d9 40 48	 fld	 DWORD PTR [eax+72]
  00041	d9 19		 fstp	 DWORD PTR [ecx]

; 550  : 			outWaypoint.y = boxNext.posCenter.y;

  00043	d9 40 4c	 fld	 DWORD PTR [eax+76]

; 551  : 		}
; 552  : 
; 553  : 		path.bInBox = false;
; 554  : 		path.index++;
; 555  : 	} 
; 556  : 	else 
; 557  : 	{
; 558  : 
; 559  : 		short boxIndex = path.path[ path.index ];
; 560  : 
; 561  : 		if ( path.index > 0 ) {
; 562  : 			outType = getLinkType( path.path[ path.index-1 ], boxIndex );
; 563  : 			assert( outType != 0 && "link is not found!!" );
; 564  : 			if( outType == 0)
; 565  : 				LOG.PrintTimeAndLog(0, "Link is not Found!!, %d - %d", path.path[path.index-1], boxIndex );
; 566  : 		}
; 567  : 
; 568  : 		const Box& box = m_boxes[ boxIndex ];
; 569  : //		getNearestPointInBox( posCur, box.posMin, box.posMax, outWaypoint, path.margin );
; 570  : 
; 571  : 		outWaypoint.x = box.posCenter.x;
; 572  : 		outWaypoint.y = box.posCenter.y;
; 573  : 
; 574  : 
; 575  : 		path.bInBox = true;
; 576  : 	}
; 577  : 
; 578  : 	return true;

  00046	b0 01		 mov	 al, 1
  00048	d9 59 04	 fstp	 DWORD PTR [ecx+4]
  0004b	66 ff 42 10	 inc	 WORD PTR [edx+16]
  0004f	c6 42 12 00	 mov	 BYTE PTR [edx+18], 0
$LN8@ls_getNext:
  00053	5f		 pop	 edi
  00054	5e		 pop	 esi

; 579  : }

  00055	5d		 pop	 ebp
  00056	c2 14 00	 ret	 20			; 00000014H
?ls_getNextWaypoint@BoxSpace@@QBE_NAAUBoxPath@@ABUD3DXVECTOR3@@1AAU3@AAD@Z ENDP ; BoxSpace::ls_getNextWaypoint
_TEXT	ENDS
PUBLIC	?reserve@?$vector@FV?$allocator@F@std@@@std@@QAEXI@Z ; std::vector<short,std::allocator<short> >::reserve
EXTRN	__imp_?_Orphan_all@_Container_base0@std@@QAEXXZ:PROC
; Function compile flags: /Ogsp
; File c:\program files (x86)\microsoft visual studio 10.0\vc\include\vector
;	COMDAT ?reserve@?$vector@FV?$allocator@F@std@@@std@@QAEXI@Z
_TEXT	SEGMENT
__Count$ = 8						; size = 4
?reserve@?$vector@FV?$allocator@F@std@@@std@@QAEXI@Z PROC ; std::vector<short,std::allocator<short> >::reserve, COMDAT
; _this$ = ecx

; 746  : 		{	// determine new minimum length of allocated storage

  00000	55		 push	 ebp
  00001	8b ec		 mov	 ebp, esp

; 747  : 		if (max_size() < _Count)

  00003	81 7d 08 ff ff
	ff 7f		 cmp	 DWORD PTR __Count$[ebp], 2147483647 ; 7fffffffH
  0000a	56		 push	 esi
  0000b	8b f1		 mov	 esi, ecx
  0000d	76 0b		 jbe	 SHORT $LN5@reserve

; 748  : 			_Xlen();	// result too long

  0000f	68 00 00 00 00	 push	 OFFSET ??_C@_0BD@OLBABOEK@vector?$DMT?$DO?5too?5long?$AA@
  00014	ff 15 00 00 00
	00		 call	 DWORD PTR __imp_?_Xlength_error@std@@YAXPBD@Z
$LN51@reserve:
$LN5@reserve:

; 749  : 		else if (capacity() < _Count)

  0001a	8b 46 08	 mov	 eax, DWORD PTR [esi+8]
  0001d	2b 06		 sub	 eax, DWORD PTR [esi]
  0001f	d1 f8		 sar	 eax, 1
  00021	3b 45 08	 cmp	 eax, DWORD PTR __Count$[ebp]
  00024	73 54		 jae	 SHORT $LN3@reserve

; 750  : 			{	// not enough room, reallocate
; 751  : 			pointer _Ptr = this->_Alval.allocate(_Count);

  00026	53		 push	 ebx
  00027	57		 push	 edi
  00028	6a 00		 push	 0
  0002a	ff 75 08	 push	 DWORD PTR __Count$[ebp]
  0002d	e8 00 00 00 00	 call	 ??$_Allocate@F@std@@YAPAFIPAF@Z ; std::_Allocate<short>

; 752  : 
; 753  : 			_TRY_BEGIN
; 754  : 			_Umove(this->_Myfirst, this->_Mylast, _Ptr);

  00032	8b 0e		 mov	 ecx, DWORD PTR [esi]
  00034	8b d8		 mov	 ebx, eax
  00036	8b 46 04	 mov	 eax, DWORD PTR [esi+4]
  00039	2b c1		 sub	 eax, ecx
  0003b	d1 f8		 sar	 eax, 1
  0003d	03 c0		 add	 eax, eax
  0003f	50		 push	 eax
  00040	51		 push	 ecx
  00041	53		 push	 ebx
  00042	ff 15 00 00 00
	00		 call	 DWORD PTR __imp__memmove

; 755  : 			_CATCH_ALL
; 756  : 			this->_Alval.deallocate(_Ptr, _Count);
; 757  : 			_RERAISE;
; 758  : 			_CATCH_END
; 759  : 
; 760  : 			size_type _Size = size();

  00048	8b 06		 mov	 eax, DWORD PTR [esi]
  0004a	8b 7e 04	 mov	 edi, DWORD PTR [esi+4]
  0004d	2b f8		 sub	 edi, eax
  0004f	83 c4 14	 add	 esp, 20			; 00000014H
  00052	d1 ff		 sar	 edi, 1

; 761  : 			if (this->_Myfirst != 0)

  00054	85 c0		 test	 eax, eax
  00056	74 07		 je	 SHORT $LN47@reserve

; 762  : 				{	// destroy and deallocate old array
; 763  : 				_Destroy(this->_Myfirst, this->_Mylast);
; 764  : 				this->_Alval.deallocate(this->_Myfirst,
; 765  : 					this->_Myend - this->_Myfirst);

  00058	50		 push	 eax
  00059	e8 00 00 00 00	 call	 ??3@YAXPAX@Z		; operator delete
  0005e	59		 pop	 ecx
$LN47@reserve:

; 766  : 				}
; 767  : 
; 768  : 			this->_Orphan_all();

  0005f	8b ce		 mov	 ecx, esi
  00061	ff 15 00 00 00
	00		 call	 DWORD PTR __imp_?_Orphan_all@_Container_base0@std@@QAEXXZ

; 769  : 			this->_Myend = _Ptr + _Count;

  00067	8b 45 08	 mov	 eax, DWORD PTR __Count$[ebp]
  0006a	8d 04 43	 lea	 eax, DWORD PTR [ebx+eax*2]
  0006d	89 46 08	 mov	 DWORD PTR [esi+8], eax

; 770  : 			this->_Mylast = _Ptr + _Size;

  00070	8d 04 7b	 lea	 eax, DWORD PTR [ebx+edi*2]
  00073	5f		 pop	 edi

; 771  : 			this->_Myfirst = _Ptr;

  00074	89 1e		 mov	 DWORD PTR [esi], ebx
  00076	89 46 04	 mov	 DWORD PTR [esi+4], eax
  00079	5b		 pop	 ebx
$LN3@reserve:
  0007a	5e		 pop	 esi

; 772  : 			}
; 773  : 		}

  0007b	5d		 pop	 ebp
  0007c	c2 04 00	 ret	 4
$LN50@reserve:
?reserve@?$vector@FV?$allocator@F@std@@@std@@QAEXI@Z ENDP ; std::vector<short,std::allocator<short> >::reserve
_TEXT	ENDS
PUBLIC	?front@?$vector@UBox@BoxSpace@@V?$allocator@UBox@BoxSpace@@@std@@@std@@QAEAAUBox@BoxSpace@@XZ ; std::vector<BoxSpace::Box,std::allocator<BoxSpace::Box> >::front
; Function compile flags: /Ogsp
;	COMDAT ?front@?$vector@UBox@BoxSpace@@V?$allocator@UBox@BoxSpace@@@std@@@std@@QAEAAUBox@BoxSpace@@XZ
_TEXT	SEGMENT
?front@?$vector@UBox@BoxSpace@@V?$allocator@UBox@BoxSpace@@@std@@@std@@QAEAAUBox@BoxSpace@@XZ PROC ; std::vector<BoxSpace::Box,std::allocator<BoxSpace::Box> >::front, COMDAT
; _this$ = ecx

; 957  : 		return (*begin());

  00000	8b 01		 mov	 eax, DWORD PTR [ecx]

; 958  : 		}

  00002	c3		 ret	 0
?front@?$vector@UBox@BoxSpace@@V?$allocator@UBox@BoxSpace@@@std@@@std@@QAEAAUBox@BoxSpace@@XZ ENDP ; std::vector<BoxSpace::Box,std::allocator<BoxSpace::Box> >::front
_TEXT	ENDS
PUBLIC	?erase@?$vector@FV?$allocator@F@std@@@std@@QAE?AV?$_Vector_iterator@V?$_Vector_val@FV?$allocator@F@std@@@std@@@2@V?$_Vector_const_iterator@V?$_Vector_val@FV?$allocator@F@std@@@std@@@2@0@Z ; std::vector<short,std::allocator<short> >::erase
; Function compile flags: /Ogsp
;	COMDAT ?erase@?$vector@FV?$allocator@F@std@@@std@@QAE?AV?$_Vector_iterator@V?$_Vector_val@FV?$allocator@F@std@@@std@@@2@V?$_Vector_const_iterator@V?$_Vector_val@FV?$allocator@F@std@@@std@@@2@0@Z
_TEXT	SEGMENT
___$ReturnUdt$ = 8					; size = 4
__First_arg$ = 12					; size = 4
__Cat$513709 = 16					; size = 1
__Last_arg$ = 16					; size = 4
?erase@?$vector@FV?$allocator@F@std@@@std@@QAE?AV?$_Vector_iterator@V?$_Vector_val@FV?$allocator@F@std@@@std@@@2@V?$_Vector_const_iterator@V?$_Vector_val@FV?$allocator@F@std@@@std@@@2@0@Z PROC ; std::vector<short,std::allocator<short> >::erase, COMDAT
; _this$ = ecx

; 1190 : 		{	// erase [_First, _Last)

  00000	55		 push	 ebp
  00001	8b ec		 mov	 ebp, esp

; 1191 : 		iterator _First = _Make_iter(_First_arg);

  00003	8b 45 0c	 mov	 eax, DWORD PTR __First_arg$[ebp]
  00006	56		 push	 esi
  00007	57		 push	 edi
  00008	8b 7d 08	 mov	 edi, DWORD PTR ___$ReturnUdt$[ebp]
  0000b	8b f1		 mov	 esi, ecx
  0000d	89 07		 mov	 DWORD PTR [edi], eax

; 1192 : 		iterator _Last = _Make_iter(_Last_arg);
; 1193 : 
; 1194 : 		if (_First != _Last)

  0000f	3b 45 10	 cmp	 eax, DWORD PTR __Last_arg$[ebp]
  00012	74 16		 je	 SHORT $LN1@erase@3

; 1195 : 			{	// worth doing, copy down over hole
; 1196 :  #if _ITERATOR_DEBUG_LEVEL == 2
; 1197 : 			if (_Last < _First || _VICONT(_First) != this
; 1198 : 				|| _VIPTR(_First) < this->_Myfirst
; 1199 : 				|| this->_Mylast < _VIPTR(_Last))
; 1200 : 				_DEBUG_ERROR("vector erase iterator outside range");
; 1201 : 			pointer _Ptr = _Move(_VIPTR(_Last), this->_Mylast,
; 1202 : 				_VIPTR(_First));
; 1203 : 			_Orphan_range(_VIPTR(_First), this->_Mylast);
; 1204 : 
; 1205 :  #else /* _ITERATOR_DEBUG_LEVEL == 2 */
; 1206 : 			pointer _Ptr = _Move(_VIPTR(_Last), this->_Mylast,
; 1207 : 				_VIPTR(_First));

  00014	ff 75 10	 push	 DWORD PTR __Cat$513709[ebp]
  00017	8b 4e 04	 mov	 ecx, DWORD PTR [esi+4]
  0001a	50		 push	 eax
  0001b	51		 push	 ecx
  0001c	ff 75 10	 push	 DWORD PTR __Last_arg$[ebp]
  0001f	e8 00 00 00 00	 call	 ??$_Move@PAFPAF@std@@YAPAFPAF00U_Scalar_ptr_iterator_tag@0@@Z ; std::_Move<short *,short *>
  00024	83 c4 10	 add	 esp, 16			; 00000010H

; 1208 :  #endif /* _ITERATOR_DEBUG_LEVEL == 2 */
; 1209 : 
; 1210 : 			_Destroy(_Ptr, this->_Mylast);
; 1211 : 			this->_Mylast = _Ptr;

  00027	89 46 04	 mov	 DWORD PTR [esi+4], eax
$LN1@erase@3:

; 1212 : 			}
; 1213 : 		return (_First);

  0002a	8b c7		 mov	 eax, edi
  0002c	5f		 pop	 edi
  0002d	5e		 pop	 esi

; 1214 : 		}

  0002e	5d		 pop	 ebp
  0002f	c2 0c 00	 ret	 12			; 0000000cH
?erase@?$vector@FV?$allocator@F@std@@@std@@QAE?AV?$_Vector_iterator@V?$_Vector_val@FV?$allocator@F@std@@@std@@@2@V?$_Vector_const_iterator@V?$_Vector_val@FV?$allocator@F@std@@@std@@@2@0@Z ENDP ; std::vector<short,std::allocator<short> >::erase
_TEXT	ENDS
PUBLIC	?_Reserve@?$vector@FV?$allocator@F@std@@@std@@IAEXI@Z ; std::vector<short,std::allocator<short> >::_Reserve
; Function compile flags: /Ogsp
;	COMDAT ?_Reserve@?$vector@FV?$allocator@F@std@@@std@@IAEXI@Z
_TEXT	SEGMENT
__Count$ = 8						; size = 4
?_Reserve@?$vector@FV?$allocator@F@std@@@std@@IAEXI@Z PROC ; std::vector<short,std::allocator<short> >::_Reserve, COMDAT
; _this$ = ecx

; 1290 : 		{	// ensure room for _Count new elements, grow exponentially

  00000	55		 push	 ebp
  00001	8b ec		 mov	 ebp, esp
  00003	56		 push	 esi
  00004	8b f1		 mov	 esi, ecx

; 1291 : 		size_type _Size = size();

  00006	8b 0e		 mov	 ecx, DWORD PTR [esi]
  00008	8b 46 04	 mov	 eax, DWORD PTR [esi+4]
  0000b	2b c1		 sub	 eax, ecx

; 1292 : 		if (max_size() - _Count < _Size)

  0000d	ba ff ff ff 7f	 mov	 edx, 2147483647		; 7fffffffH
  00012	2b 55 08	 sub	 edx, DWORD PTR __Count$[ebp]
  00015	d1 f8		 sar	 eax, 1
  00017	3b d0		 cmp	 edx, eax
  00019	73 0b		 jae	 SHORT $LN4@Reserve

; 1293 : 			_Xlen();

  0001b	68 00 00 00 00	 push	 OFFSET ??_C@_0BD@OLBABOEK@vector?$DMT?$DO?5too?5long?$AA@
  00020	ff 15 00 00 00
	00		 call	 DWORD PTR __imp_?_Xlength_error@std@@YAXPBD@Z
$LN21@Reserve:
$LN4@Reserve:

; 1294 : 		else if ((_Size += _Count) <= capacity())

  00026	8b 56 08	 mov	 edx, DWORD PTR [esi+8]
  00029	03 45 08	 add	 eax, DWORD PTR __Count$[ebp]
  0002c	2b d1		 sub	 edx, ecx
  0002e	d1 fa		 sar	 edx, 1
  00030	3b c2		 cmp	 eax, edx
  00032	76 10		 jbe	 SHORT $LN1@Reserve

; 1295 : 			;
; 1296 : 		else
; 1297 : 			reserve(_Grow_to(_Size));

  00034	50		 push	 eax
  00035	8b ce		 mov	 ecx, esi
  00037	e8 00 00 00 00	 call	 ?_Grow_to@?$vector@FV?$allocator@F@std@@@std@@IBEII@Z ; std::vector<short,std::allocator<short> >::_Grow_to
  0003c	50		 push	 eax
  0003d	8b ce		 mov	 ecx, esi
  0003f	e8 00 00 00 00	 call	 ?reserve@?$vector@FV?$allocator@F@std@@@std@@QAEXI@Z ; std::vector<short,std::allocator<short> >::reserve
$LN1@Reserve:
  00044	5e		 pop	 esi

; 1298 : 		}

  00045	5d		 pop	 ebp
  00046	c2 04 00	 ret	 4
$LN20@Reserve:
?_Reserve@?$vector@FV?$allocator@F@std@@@std@@IAEXI@Z ENDP ; std::vector<short,std::allocator<short> >::_Reserve
_TEXT	ENDS
PUBLIC	?front@?$vector@PAUDNode@?$AStarSearcher@VBoxSpace@@PAUBox@1@@@V?$allocator@PAUDNode@?$AStarSearcher@VBoxSpace@@PAUBox@1@@@@std@@@std@@QAEAAPAUDNode@?$AStarSearcher@VBoxSpace@@PAUBox@1@@@XZ ; std::vector<AStarSearcher<BoxSpace,BoxSpace::Box *>::DNode *,std::allocator<AStarSearcher<BoxSpace,BoxSpace::Box *>::DNode *> >::front
; Function compile flags: /Ogsp
;	COMDAT ?front@?$vector@PAUDNode@?$AStarSearcher@VBoxSpace@@PAUBox@1@@@V?$allocator@PAUDNode@?$AStarSearcher@VBoxSpace@@PAUBox@1@@@@std@@@std@@QAEAAPAUDNode@?$AStarSearcher@VBoxSpace@@PAUBox@1@@@XZ
_TEXT	SEGMENT
?front@?$vector@PAUDNode@?$AStarSearcher@VBoxSpace@@PAUBox@1@@@V?$allocator@PAUDNode@?$AStarSearcher@VBoxSpace@@PAUBox@1@@@@std@@@std@@QAEAAPAUDNode@?$AStarSearcher@VBoxSpace@@PAUBox@1@@@XZ PROC ; std::vector<AStarSearcher<BoxSpace,BoxSpace::Box *>::DNode *,std::allocator<AStarSearcher<BoxSpace,BoxSpace::Box *>::DNode *> >::front, COMDAT
; _this$ = ecx

; 957  : 		return (*begin());

  00000	8b 01		 mov	 eax, DWORD PTR [ecx]

; 958  : 		}

  00002	c3		 ret	 0
?front@?$vector@PAUDNode@?$AStarSearcher@VBoxSpace@@PAUBox@1@@@V?$allocator@PAUDNode@?$AStarSearcher@VBoxSpace@@PAUBox@1@@@@std@@@std@@QAEAAPAUDNode@?$AStarSearcher@VBoxSpace@@PAUBox@1@@@XZ ENDP ; std::vector<AStarSearcher<BoxSpace,BoxSpace::Box *>::DNode *,std::allocator<AStarSearcher<BoxSpace,BoxSpace::Box *>::DNode *> >::front
_TEXT	ENDS
PUBLIC	?pop_back@?$vector@PAUDNode@?$AStarSearcher@VBoxSpace@@PAUBox@1@@@V?$allocator@PAUDNode@?$AStarSearcher@VBoxSpace@@PAUBox@1@@@@std@@@std@@QAEXXZ ; std::vector<AStarSearcher<BoxSpace,BoxSpace::Box *>::DNode *,std::allocator<AStarSearcher<BoxSpace,BoxSpace::Box *>::DNode *> >::pop_back
; Function compile flags: /Ogsp
;	COMDAT ?pop_back@?$vector@PAUDNode@?$AStarSearcher@VBoxSpace@@PAUBox@1@@@V?$allocator@PAUDNode@?$AStarSearcher@VBoxSpace@@PAUBox@1@@@@std@@@std@@QAEXXZ
_TEXT	SEGMENT
?pop_back@?$vector@PAUDNode@?$AStarSearcher@VBoxSpace@@PAUBox@1@@@V?$allocator@PAUDNode@?$AStarSearcher@VBoxSpace@@PAUBox@1@@@@std@@@std@@QAEXXZ PROC ; std::vector<AStarSearcher<BoxSpace,BoxSpace::Box *>::DNode *,std::allocator<AStarSearcher<BoxSpace,BoxSpace::Box *>::DNode *> >::pop_back, COMDAT
; _this$ = ecx

; 1017 : 		if (!empty())

  00000	8b 41 04	 mov	 eax, DWORD PTR [ecx+4]
  00003	39 01		 cmp	 DWORD PTR [ecx], eax
  00005	74 06		 je	 SHORT $LN1@pop_back

; 1018 : 			{	// erase last element
; 1019 : 			_Dest_val(this->_Alval,
; 1020 : 				this->_Mylast - 1);
; 1021 : 			--this->_Mylast;

  00007	83 c0 fc	 add	 eax, -4			; fffffffcH
  0000a	89 41 04	 mov	 DWORD PTR [ecx+4], eax
$LN1@pop_back:

; 1022 : 			}
; 1023 : 		}

  0000d	c3		 ret	 0
?pop_back@?$vector@PAUDNode@?$AStarSearcher@VBoxSpace@@PAUBox@1@@@V?$allocator@PAUDNode@?$AStarSearcher@VBoxSpace@@PAUBox@1@@@@std@@@std@@QAEXXZ ENDP ; std::vector<AStarSearcher<BoxSpace,BoxSpace::Box *>::DNode *,std::allocator<AStarSearcher<BoxSpace,BoxSpace::Box *>::DNode *> >::pop_back
_TEXT	ENDS
PUBLIC	?reserve@?$vector@PAUDNode@?$AStarSearcher@VBoxSpace@@PAUBox@1@@@V?$allocator@PAUDNode@?$AStarSearcher@VBoxSpace@@PAUBox@1@@@@std@@@std@@QAEXI@Z ; std::vector<AStarSearcher<BoxSpace,BoxSpace::Box *>::DNode *,std::allocator<AStarSearcher<BoxSpace,BoxSpace::Box *>::DNode *> >::reserve
; Function compile flags: /Ogsp
;	COMDAT ?reserve@?$vector@PAUDNode@?$AStarSearcher@VBoxSpace@@PAUBox@1@@@V?$allocator@PAUDNode@?$AStarSearcher@VBoxSpace@@PAUBox@1@@@@std@@@std@@QAEXI@Z
_TEXT	SEGMENT
__Count$ = 8						; size = 4
?reserve@?$vector@PAUDNode@?$AStarSearcher@VBoxSpace@@PAUBox@1@@@V?$allocator@PAUDNode@?$AStarSearcher@VBoxSpace@@PAUBox@1@@@@std@@@std@@QAEXI@Z PROC ; std::vector<AStarSearcher<BoxSpace,BoxSpace::Box *>::DNode *,std::allocator<AStarSearcher<BoxSpace,BoxSpace::Box *>::DNode *> >::reserve, COMDAT
; _this$ = ecx

; 746  : 		{	// determine new minimum length of allocated storage

  00000	55		 push	 ebp
  00001	8b ec		 mov	 ebp, esp

; 747  : 		if (max_size() < _Count)

  00003	81 7d 08 ff ff
	ff 3f		 cmp	 DWORD PTR __Count$[ebp], 1073741823 ; 3fffffffH
  0000a	56		 push	 esi
  0000b	8b f1		 mov	 esi, ecx
  0000d	76 0b		 jbe	 SHORT $LN5@reserve@2

; 748  : 			_Xlen();	// result too long

  0000f	68 00 00 00 00	 push	 OFFSET ??_C@_0BD@OLBABOEK@vector?$DMT?$DO?5too?5long?$AA@
  00014	ff 15 00 00 00
	00		 call	 DWORD PTR __imp_?_Xlength_error@std@@YAXPBD@Z
$LN43@reserve@2:
$LN5@reserve@2:

; 749  : 		else if (capacity() < _Count)

  0001a	8b 46 08	 mov	 eax, DWORD PTR [esi+8]
  0001d	2b 06		 sub	 eax, DWORD PTR [esi]
  0001f	c1 f8 02	 sar	 eax, 2
  00022	3b 45 08	 cmp	 eax, DWORD PTR __Count$[ebp]
  00025	73 52		 jae	 SHORT $LN3@reserve@2

; 750  : 			{	// not enough room, reallocate
; 751  : 			pointer _Ptr = this->_Alval.allocate(_Count);

  00027	53		 push	 ebx
  00028	57		 push	 edi
  00029	6a 00		 push	 0
  0002b	ff 75 08	 push	 DWORD PTR __Count$[ebp]
  0002e	e8 00 00 00 00	 call	 ??$_Allocate@PAUDNode@?$AStarSearcher@VBoxSpace@@PAUBox@1@@@@std@@YAPAPAUDNode@?$AStarSearcher@VBoxSpace@@PAUBox@1@@@IPAPAU12@@Z ; std::_Allocate<AStarSearcher<BoxSpace,BoxSpace::Box *>::DNode *>

; 752  : 
; 753  : 			_TRY_BEGIN
; 754  : 			_Umove(this->_Myfirst, this->_Mylast, _Ptr);

  00033	8b 0e		 mov	 ecx, DWORD PTR [esi]
  00035	8d 56 0c	 lea	 edx, DWORD PTR [esi+12]
  00038	52		 push	 edx
  00039	8b d8		 mov	 ebx, eax
  0003b	8b 46 04	 mov	 eax, DWORD PTR [esi+4]
  0003e	53		 push	 ebx
  0003f	50		 push	 eax
  00040	51		 push	 ecx
  00041	e8 00 00 00 00	 call	 ??$_Uninitialized_move@PAPAUDNode@?$AStarSearcher@VBoxSpace@@PAUBox@1@@@PAPAU12@V?$allocator@PAUDNode@?$AStarSearcher@VBoxSpace@@PAUBox@1@@@@std@@@std@@YAPAPAUDNode@?$AStarSearcher@VBoxSpace@@PAUBox@1@@@PAPAU12@00AAV?$allocator@PAUDNode@?$AStarSearcher@VBoxSpace@@PAUBox@1@@@@0@@Z ; std::_Uninitialized_move<AStarSearcher<BoxSpace,BoxSpace::Box *>::DNode * *,AStarSearcher<BoxSpace,BoxSpace::Box *>::DNode * *,std::allocator<AStarSearcher<BoxSpace,BoxSpace::Box *>::DNode *> >

; 755  : 			_CATCH_ALL
; 756  : 			this->_Alval.deallocate(_Ptr, _Count);
; 757  : 			_RERAISE;
; 758  : 			_CATCH_END
; 759  : 
; 760  : 			size_type _Size = size();

  00046	8b 06		 mov	 eax, DWORD PTR [esi]
  00048	8b 7e 04	 mov	 edi, DWORD PTR [esi+4]
  0004b	2b f8		 sub	 edi, eax
  0004d	83 c4 18	 add	 esp, 24			; 00000018H
  00050	c1 ff 02	 sar	 edi, 2

; 761  : 			if (this->_Myfirst != 0)

  00053	85 c0		 test	 eax, eax
  00055	74 07		 je	 SHORT $LN39@reserve@2

; 762  : 				{	// destroy and deallocate old array
; 763  : 				_Destroy(this->_Myfirst, this->_Mylast);
; 764  : 				this->_Alval.deallocate(this->_Myfirst,
; 765  : 					this->_Myend - this->_Myfirst);

  00057	50		 push	 eax
  00058	e8 00 00 00 00	 call	 ??3@YAXPAX@Z		; operator delete
  0005d	59		 pop	 ecx
$LN39@reserve@2:

; 766  : 				}
; 767  : 
; 768  : 			this->_Orphan_all();

  0005e	8b ce		 mov	 ecx, esi
  00060	ff 15 00 00 00
	00		 call	 DWORD PTR __imp_?_Orphan_all@_Container_base0@std@@QAEXXZ

; 769  : 			this->_Myend = _Ptr + _Count;

  00066	8b 45 08	 mov	 eax, DWORD PTR __Count$[ebp]
  00069	8d 04 83	 lea	 eax, DWORD PTR [ebx+eax*4]
  0006c	89 46 08	 mov	 DWORD PTR [esi+8], eax

; 770  : 			this->_Mylast = _Ptr + _Size;

  0006f	8d 04 bb	 lea	 eax, DWORD PTR [ebx+edi*4]
  00072	5f		 pop	 edi

; 771  : 			this->_Myfirst = _Ptr;

  00073	89 1e		 mov	 DWORD PTR [esi], ebx
  00075	89 46 04	 mov	 DWORD PTR [esi+4], eax
  00078	5b		 pop	 ebx
$LN3@reserve@2:
  00079	5e		 pop	 esi

; 772  : 			}
; 773  : 		}

  0007a	5d		 pop	 ebp
  0007b	c2 04 00	 ret	 4
$LN42@reserve@2:
?reserve@?$vector@PAUDNode@?$AStarSearcher@VBoxSpace@@PAUBox@1@@@V?$allocator@PAUDNode@?$AStarSearcher@VBoxSpace@@PAUBox@1@@@@std@@@std@@QAEXI@Z ENDP ; std::vector<AStarSearcher<BoxSpace,BoxSpace::Box *>::DNode *,std::allocator<AStarSearcher<BoxSpace,BoxSpace::Box *>::DNode *> >::reserve
_TEXT	ENDS
PUBLIC	??G?$_Vector_iterator@V?$_Vector_val@PAUTBlock@?$uni_heap@$0BE@$0IA@@@V?$allocator@PAUTBlock@?$uni_heap@$0BE@$0IA@@@@std@@@std@@@std@@QBE?AV01@H@Z ; std::_Vector_iterator<std::_Vector_val<uni_heap<20,128>::TBlock *,std::allocator<uni_heap<20,128>::TBlock *> > >::operator-
; Function compile flags: /Ogsp
;	COMDAT ??G?$_Vector_iterator@V?$_Vector_val@PAUTBlock@?$uni_heap@$0BE@$0IA@@@V?$allocator@PAUTBlock@?$uni_heap@$0BE@$0IA@@@@std@@@std@@@std@@QBE?AV01@H@Z
_TEXT	SEGMENT
___$ReturnUdt$ = 8					; size = 4
__Off$ = 12						; size = 4
??G?$_Vector_iterator@V?$_Vector_val@PAUTBlock@?$uni_heap@$0BE@$0IA@@@V?$allocator@PAUTBlock@?$uni_heap@$0BE@$0IA@@@@std@@@std@@@std@@QBE?AV01@H@Z PROC ; std::_Vector_iterator<std::_Vector_val<uni_heap<20,128>::TBlock *,std::allocator<uni_heap<20,128>::TBlock *> > >::operator-, COMDAT
; _this$ = ecx

; 374  : 		{	// return this - integer

  00000	55		 push	 ebp
  00001	8b ec		 mov	 ebp, esp

; 375  : 		_Myiter _Tmp = *this;
; 376  : 		return (_Tmp -= _Off);

  00003	8b 45 0c	 mov	 eax, DWORD PTR __Off$[ebp]
  00006	8b 09		 mov	 ecx, DWORD PTR [ecx]
  00008	c1 e0 02	 shl	 eax, 2
  0000b	2b c8		 sub	 ecx, eax
  0000d	8b 45 08	 mov	 eax, DWORD PTR ___$ReturnUdt$[ebp]
  00010	89 08		 mov	 DWORD PTR [eax], ecx

; 377  : 		}

  00012	5d		 pop	 ebp
  00013	c2 08 00	 ret	 8
??G?$_Vector_iterator@V?$_Vector_val@PAUTBlock@?$uni_heap@$0BE@$0IA@@@V?$allocator@PAUTBlock@?$uni_heap@$0BE@$0IA@@@@std@@@std@@@std@@QBE?AV01@H@Z ENDP ; std::_Vector_iterator<std::_Vector_val<uni_heap<20,128>::TBlock *,std::allocator<uni_heap<20,128>::TBlock *> > >::operator-
_TEXT	ENDS
PUBLIC	?reserve@?$vector@PBQAUBox@BoxSpace@@V?$allocator@PBQAUBox@BoxSpace@@@std@@@std@@QAEXI@Z ; std::vector<BoxSpace::Box * const *,std::allocator<BoxSpace::Box * const *> >::reserve
; Function compile flags: /Ogsp
;	COMDAT ?reserve@?$vector@PBQAUBox@BoxSpace@@V?$allocator@PBQAUBox@BoxSpace@@@std@@@std@@QAEXI@Z
_TEXT	SEGMENT
__Count$ = 8						; size = 4
?reserve@?$vector@PBQAUBox@BoxSpace@@V?$allocator@PBQAUBox@BoxSpace@@@std@@@std@@QAEXI@Z PROC ; std::vector<BoxSpace::Box * const *,std::allocator<BoxSpace::Box * const *> >::reserve, COMDAT
; _this$ = ecx

; 746  : 		{	// determine new minimum length of allocated storage

  00000	55		 push	 ebp
  00001	8b ec		 mov	 ebp, esp

; 747  : 		if (max_size() < _Count)

  00003	81 7d 08 ff ff
	ff 3f		 cmp	 DWORD PTR __Count$[ebp], 1073741823 ; 3fffffffH
  0000a	56		 push	 esi
  0000b	8b f1		 mov	 esi, ecx
  0000d	76 0b		 jbe	 SHORT $LN5@reserve@3

; 748  : 			_Xlen();	// result too long

  0000f	68 00 00 00 00	 push	 OFFSET ??_C@_0BD@OLBABOEK@vector?$DMT?$DO?5too?5long?$AA@
  00014	ff 15 00 00 00
	00		 call	 DWORD PTR __imp_?_Xlength_error@std@@YAXPBD@Z
$LN43@reserve@3:
$LN5@reserve@3:

; 749  : 		else if (capacity() < _Count)

  0001a	8b 46 08	 mov	 eax, DWORD PTR [esi+8]
  0001d	2b 06		 sub	 eax, DWORD PTR [esi]
  0001f	c1 f8 02	 sar	 eax, 2
  00022	3b 45 08	 cmp	 eax, DWORD PTR __Count$[ebp]
  00025	73 52		 jae	 SHORT $LN3@reserve@3

; 750  : 			{	// not enough room, reallocate
; 751  : 			pointer _Ptr = this->_Alval.allocate(_Count);

  00027	53		 push	 ebx
  00028	57		 push	 edi
  00029	6a 00		 push	 0
  0002b	ff 75 08	 push	 DWORD PTR __Count$[ebp]
  0002e	e8 00 00 00 00	 call	 ??$_Allocate@PBQAUBox@BoxSpace@@@std@@YAPAPBQAUBox@BoxSpace@@IPAPBQAU12@@Z ; std::_Allocate<BoxSpace::Box * const *>

; 752  : 
; 753  : 			_TRY_BEGIN
; 754  : 			_Umove(this->_Myfirst, this->_Mylast, _Ptr);

  00033	8b 0e		 mov	 ecx, DWORD PTR [esi]
  00035	8d 56 0c	 lea	 edx, DWORD PTR [esi+12]
  00038	52		 push	 edx
  00039	8b d8		 mov	 ebx, eax
  0003b	8b 46 04	 mov	 eax, DWORD PTR [esi+4]
  0003e	53		 push	 ebx
  0003f	50		 push	 eax
  00040	51		 push	 ecx
  00041	e8 00 00 00 00	 call	 ??$_Uninitialized_move@PAPBQAUBox@BoxSpace@@PAPBQAU12@V?$allocator@PBQAUBox@BoxSpace@@@std@@@std@@YAPAPBQAUBox@BoxSpace@@PAPBQAU12@00AAV?$allocator@PBQAUBox@BoxSpace@@@0@@Z ; std::_Uninitialized_move<BoxSpace::Box * const * *,BoxSpace::Box * const * *,std::allocator<BoxSpace::Box * const *> >

; 755  : 			_CATCH_ALL
; 756  : 			this->_Alval.deallocate(_Ptr, _Count);
; 757  : 			_RERAISE;
; 758  : 			_CATCH_END
; 759  : 
; 760  : 			size_type _Size = size();

  00046	8b 06		 mov	 eax, DWORD PTR [esi]
  00048	8b 7e 04	 mov	 edi, DWORD PTR [esi+4]
  0004b	2b f8		 sub	 edi, eax
  0004d	83 c4 18	 add	 esp, 24			; 00000018H
  00050	c1 ff 02	 sar	 edi, 2

; 761  : 			if (this->_Myfirst != 0)

  00053	85 c0		 test	 eax, eax
  00055	74 07		 je	 SHORT $LN39@reserve@3

; 762  : 				{	// destroy and deallocate old array
; 763  : 				_Destroy(this->_Myfirst, this->_Mylast);
; 764  : 				this->_Alval.deallocate(this->_Myfirst,
; 765  : 					this->_Myend - this->_Myfirst);

  00057	50		 push	 eax
  00058	e8 00 00 00 00	 call	 ??3@YAXPAX@Z		; operator delete
  0005d	59		 pop	 ecx
$LN39@reserve@3:

; 766  : 				}
; 767  : 
; 768  : 			this->_Orphan_all();

  0005e	8b ce		 mov	 ecx, esi
  00060	ff 15 00 00 00
	00		 call	 DWORD PTR __imp_?_Orphan_all@_Container_base0@std@@QAEXXZ

; 769  : 			this->_Myend = _Ptr + _Count;

  00066	8b 45 08	 mov	 eax, DWORD PTR __Count$[ebp]
  00069	8d 04 83	 lea	 eax, DWORD PTR [ebx+eax*4]
  0006c	89 46 08	 mov	 DWORD PTR [esi+8], eax

; 770  : 			this->_Mylast = _Ptr + _Size;

  0006f	8d 04 bb	 lea	 eax, DWORD PTR [ebx+edi*4]
  00072	5f		 pop	 edi

; 771  : 			this->_Myfirst = _Ptr;

  00073	89 1e		 mov	 DWORD PTR [esi], ebx
  00075	89 46 04	 mov	 DWORD PTR [esi+4], eax
  00078	5b		 pop	 ebx
$LN3@reserve@3:
  00079	5e		 pop	 esi

; 772  : 			}
; 773  : 		}

  0007a	5d		 pop	 ebp
  0007b	c2 04 00	 ret	 4
$LN42@reserve@3:
?reserve@?$vector@PBQAUBox@BoxSpace@@V?$allocator@PBQAUBox@BoxSpace@@@std@@@std@@QAEXI@Z ENDP ; std::vector<BoxSpace::Box * const *,std::allocator<BoxSpace::Box * const *> >::reserve
_TEXT	ENDS
PUBLIC	??$push_heap@V?$_Vector_iterator@V?$_Vector_val@PAUDNode@?$AStarSearcher@VBoxSpace@@PAUBox@1@@@V?$allocator@PAUDNode@?$AStarSearcher@VBoxSpace@@PAUBox@1@@@@std@@@std@@@std@@UDNodeCostGreater@?$AStarSearcher@VBoxSpace@@PAUBox@1@@@@std@@YAXV?$_Vector_iterator@V?$_Vector_val@PAUDNode@?$AStarSearcher@VBoxSpace@@PAUBox@1@@@V?$allocator@PAUDNode@?$AStarSearcher@VBoxSpace@@PAUBox@1@@@@std@@@std@@@0@0UDNodeCostGreater@?$AStarSearcher@VBoxSpace@@PAUBox@1@@@@Z ; std::push_heap<std::_Vector_iterator<std::_Vector_val<AStarSearcher<BoxSpace,BoxSpace::Box *>::DNode *,std::allocator<AStarSearcher<BoxSpace,BoxSpace::Box *>::DNode *> > >,AStarSearcher<BoxSpace,BoxSpace::Box *>::DNodeCostGreater>
; Function compile flags: /Ogsp
; File c:\program files (x86)\microsoft visual studio 10.0\vc\include\algorithm
;	COMDAT ??$push_heap@V?$_Vector_iterator@V?$_Vector_val@PAUDNode@?$AStarSearcher@VBoxSpace@@PAUBox@1@@@V?$allocator@PAUDNode@?$AStarSearcher@VBoxSpace@@PAUBox@1@@@@std@@@std@@@std@@UDNodeCostGreater@?$AStarSearcher@VBoxSpace@@PAUBox@1@@@@std@@YAXV?$_Vector_iterator@V?$_Vector_val@PAUDNode@?$AStarSearcher@VBoxSpace@@PAUBox@1@@@V?$allocator@PAUDNode@?$AStarSearcher@VBoxSpace@@PAUBox@1@@@@std@@@std@@@0@0UDNodeCostGreater@?$AStarSearcher@VBoxSpace@@PAUBox@1@@@@Z
_TEXT	SEGMENT
__First$ = 8						; size = 4
__Last$ = 12						; size = 4
__Pred$ = 16						; size = 1
??$push_heap@V?$_Vector_iterator@V?$_Vector_val@PAUDNode@?$AStarSearcher@VBoxSpace@@PAUBox@1@@@V?$allocator@PAUDNode@?$AStarSearcher@VBoxSpace@@PAUBox@1@@@@std@@@std@@@std@@UDNodeCostGreater@?$AStarSearcher@VBoxSpace@@PAUBox@1@@@@std@@YAXV?$_Vector_iterator@V?$_Vector_val@PAUDNode@?$AStarSearcher@VBoxSpace@@PAUBox@1@@@V?$allocator@PAUDNode@?$AStarSearcher@VBoxSpace@@PAUBox@1@@@@std@@@std@@@0@0UDNodeCostGreater@?$AStarSearcher@VBoxSpace@@PAUBox@1@@@@Z PROC ; std::push_heap<std::_Vector_iterator<std::_Vector_val<AStarSearcher<BoxSpace,BoxSpace::Box *>::DNode *,std::allocator<AStarSearcher<BoxSpace,BoxSpace::Box *>::DNode *> > >,AStarSearcher<BoxSpace,BoxSpace::Box *>::DNodeCostGreater>, COMDAT

; 2484 : 	{	// push *(_Last - 1) onto heap at [_First, _Last - 1), using _Pred

  00000	55		 push	 ebp
  00001	8b ec		 mov	 ebp, esp

; 2485 : 	_DEBUG_RANGE(_First, _Last);
; 2486 : 	_DEBUG_POINTER(_Pred);
; 2487 : 	if (_First != _Last)

  00003	8b 45 08	 mov	 eax, DWORD PTR __First$[ebp]
  00006	3b 45 0c	 cmp	 eax, DWORD PTR __Last$[ebp]
  00009	74 17		 je	 SHORT $LN1@push_heap

; 2488 : 		{	// check and push to nontrivial heap
; 2489 : 		--_Last;

  0000b	83 6d 0c 04	 sub	 DWORD PTR __Last$[ebp], 4

; 2490 : 		_DEBUG_HEAP_PRED(_First, _Last, _Pred);
; 2491 : 		_Push_heap_0(_Unchecked(_First), _Unchecked(_Last), _Pred,
; 2492 : 			_Dist_type(_First), _Val_type(_First));

  0000f	6a 00		 push	 0
  00011	6a 00		 push	 0
  00013	ff 75 10	 push	 DWORD PTR __Pred$[ebp]
  00016	ff 75 0c	 push	 DWORD PTR __Last$[ebp]
  00019	50		 push	 eax
  0001a	e8 00 00 00 00	 call	 ??$_Push_heap_0@PAPAUDNode@?$AStarSearcher@VBoxSpace@@PAUBox@1@@@HPAU12@UDNodeCostGreater@2@@std@@YAXPAPAUDNode@?$AStarSearcher@VBoxSpace@@PAUBox@1@@@0UDNodeCostGreater@2@PAH0@Z ; std::_Push_heap_0<AStarSearcher<BoxSpace,BoxSpace::Box *>::DNode * *,int,AStarSearcher<BoxSpace,BoxSpace::Box *>::DNode *,AStarSearcher<BoxSpace,BoxSpace::Box *>::DNodeCostGreater>
  0001f	83 c4 14	 add	 esp, 20			; 00000014H
$LN1@push_heap:

; 2493 : 		}
; 2494 : 	}

  00022	5d		 pop	 ebp
  00023	c3		 ret	 0
??$push_heap@V?$_Vector_iterator@V?$_Vector_val@PAUDNode@?$AStarSearcher@VBoxSpace@@PAUBox@1@@@V?$allocator@PAUDNode@?$AStarSearcher@VBoxSpace@@PAUBox@1@@@@std@@@std@@@std@@UDNodeCostGreater@?$AStarSearcher@VBoxSpace@@PAUBox@1@@@@std@@YAXV?$_Vector_iterator@V?$_Vector_val@PAUDNode@?$AStarSearcher@VBoxSpace@@PAUBox@1@@@V?$allocator@PAUDNode@?$AStarSearcher@VBoxSpace@@PAUBox@1@@@@std@@@std@@@0@0UDNodeCostGreater@?$AStarSearcher@VBoxSpace@@PAUBox@1@@@@Z ENDP ; std::push_heap<std::_Vector_iterator<std::_Vector_val<AStarSearcher<BoxSpace,BoxSpace::Box *>::DNode *,std::allocator<AStarSearcher<BoxSpace,BoxSpace::Box *>::DNode *> > >,AStarSearcher<BoxSpace,BoxSpace::Box *>::DNodeCostGreater>
_TEXT	ENDS
PUBLIC	??$_Uninit_move@PAULink@BoxSpace@@PAU12@V?$allocator@ULink@BoxSpace@@@std@@U12@@std@@YAPAULink@BoxSpace@@PAU12@00AAV?$allocator@ULink@BoxSpace@@@0@0U_Nonscalar_ptr_iterator_tag@0@@Z ; std::_Uninit_move<BoxSpace::Link *,BoxSpace::Link *,std::allocator<BoxSpace::Link>,BoxSpace::Link>
; Function compile flags: /Ogsp
; File c:\program files (x86)\microsoft visual studio 10.0\vc\include\memory
;	COMDAT ??$_Uninit_move@PAULink@BoxSpace@@PAU12@V?$allocator@ULink@BoxSpace@@@std@@U12@@std@@YAPAULink@BoxSpace@@PAU12@00AAV?$allocator@ULink@BoxSpace@@@0@0U_Nonscalar_ptr_iterator_tag@0@@Z
_TEXT	SEGMENT
__First$ = 8						; size = 4
__Last$ = 12						; size = 4
__Dest$ = 16						; size = 4
__Al$ = 20						; size = 4
___formal$ = 24						; size = 4
___formal$ = 28						; size = 1
??$_Uninit_move@PAULink@BoxSpace@@PAU12@V?$allocator@ULink@BoxSpace@@@std@@U12@@std@@YAPAULink@BoxSpace@@PAU12@00AAV?$allocator@ULink@BoxSpace@@@0@0U_Nonscalar_ptr_iterator_tag@0@@Z PROC ; std::_Uninit_move<BoxSpace::Link *,BoxSpace::Link *,std::allocator<BoxSpace::Link>,BoxSpace::Link>, COMDAT

; 424  : 	{	// move [_First, _Last) to raw _Dest, using _Al, arbitrary type

  00000	55		 push	 ebp
  00001	8b ec		 mov	 ebp, esp
  00003	56		 push	 esi

; 425  : 	_DEBUG_RANGE(_First, _Last);
; 426  : 	_DEBUG_POINTER(_Dest);
; 427  : 	_FwdIt _Next = _Dest;
; 428  : 
; 429  : 	_TRY_BEGIN
; 430  : 	for (; _First != _Last; ++_Dest, ++_First)

  00004	8b 75 08	 mov	 esi, DWORD PTR __First$[ebp]
  00007	eb 16		 jmp	 SHORT $LN24@Uninit_mov
$LL6@Uninit_mov:

; 431  : 		_Cons_val(_Al, _Dest, (_Valty &&)*_First);

  00009	56		 push	 esi
  0000a	ff 75 10	 push	 DWORD PTR __Dest$[ebp]
  0000d	ff 75 14	 push	 DWORD PTR __Al$[ebp]
  00010	e8 00 00 00 00	 call	 ??$_Cons_val@V?$allocator@ULink@BoxSpace@@@std@@ULink@BoxSpace@@U34@@std@@YAXAAV?$allocator@ULink@BoxSpace@@@0@PAULink@BoxSpace@@$$QAU23@@Z ; std::_Cons_val<std::allocator<BoxSpace::Link>,BoxSpace::Link,BoxSpace::Link>
  00015	83 45 10 20	 add	 DWORD PTR __Dest$[ebp], 32 ; 00000020H
  00019	83 c4 0c	 add	 esp, 12			; 0000000cH
  0001c	83 c6 20	 add	 esi, 32			; 00000020H
$LN24@Uninit_mov:

; 425  : 	_DEBUG_RANGE(_First, _Last);
; 426  : 	_DEBUG_POINTER(_Dest);
; 427  : 	_FwdIt _Next = _Dest;
; 428  : 
; 429  : 	_TRY_BEGIN
; 430  : 	for (; _First != _Last; ++_Dest, ++_First)

  0001f	3b 75 0c	 cmp	 esi, DWORD PTR __Last$[ebp]
  00022	75 e5		 jne	 SHORT $LL6@Uninit_mov

; 432  : 	_CATCH_ALL
; 433  : 	for (; _Next != _Dest; ++_Next)
; 434  : 		_Dest_val(_Al, _Next);
; 435  : 	_RERAISE;
; 436  : 	_CATCH_END
; 437  : 	return (_Dest);

  00024	8b 45 10	 mov	 eax, DWORD PTR __Dest$[ebp]
  00027	5e		 pop	 esi

; 438  : 	}

  00028	5d		 pop	 ebp
  00029	c3		 ret	 0
??$_Uninit_move@PAULink@BoxSpace@@PAU12@V?$allocator@ULink@BoxSpace@@@std@@U12@@std@@YAPAULink@BoxSpace@@PAU12@00AAV?$allocator@ULink@BoxSpace@@@0@0U_Nonscalar_ptr_iterator_tag@0@@Z ENDP ; std::_Uninit_move<BoxSpace::Link *,BoxSpace::Link *,std::allocator<BoxSpace::Link>,BoxSpace::Link>
_TEXT	ENDS
PUBLIC	??$_Pop_heap_0@PAPAUDNode@?$AStarSearcher@VBoxSpace@@PAUBox@1@@@PAU12@UDNodeCostGreater@2@@std@@YAXPAPAUDNode@?$AStarSearcher@VBoxSpace@@PAUBox@1@@@0UDNodeCostGreater@2@0@Z ; std::_Pop_heap_0<AStarSearcher<BoxSpace,BoxSpace::Box *>::DNode * *,AStarSearcher<BoxSpace,BoxSpace::Box *>::DNode *,AStarSearcher<BoxSpace,BoxSpace::Box *>::DNodeCostGreater>
; Function compile flags: /Ogsp
; File c:\program files (x86)\microsoft visual studio 10.0\vc\include\algorithm
;	COMDAT ??$_Pop_heap_0@PAPAUDNode@?$AStarSearcher@VBoxSpace@@PAUBox@1@@@PAU12@UDNodeCostGreater@2@@std@@YAXPAPAUDNode@?$AStarSearcher@VBoxSpace@@PAUBox@1@@@0UDNodeCostGreater@2@0@Z
_TEXT	SEGMENT
__First$ = 8						; size = 4
__Val$ = 12						; size = 4
__Last$ = 12						; size = 4
__Pred$ = 16						; size = 1
___formal$ = 20						; size = 4
??$_Pop_heap_0@PAPAUDNode@?$AStarSearcher@VBoxSpace@@PAUBox@1@@@PAU12@UDNodeCostGreater@2@@std@@YAXPAPAUDNode@?$AStarSearcher@VBoxSpace@@PAUBox@1@@@0UDNodeCostGreater@2@0@Z PROC ; std::_Pop_heap_0<AStarSearcher<BoxSpace,BoxSpace::Box *>::DNode * *,AStarSearcher<BoxSpace,BoxSpace::Box *>::DNode *,AStarSearcher<BoxSpace,BoxSpace::Box *>::DNodeCostGreater>, COMDAT

; 2601 : 	{	// pop *_First to *(_Last - 1) and reheap, using _Pred

  00000	55		 push	 ebp
  00001	8b ec		 mov	 ebp, esp

; 2602 : 	_Ty _Val = _Move(*(_Last - 1));

  00003	8b 45 0c	 mov	 eax, DWORD PTR __Last$[ebp]
  00006	83 c0 fc	 add	 eax, -4			; fffffffcH
  00009	8b 08		 mov	 ecx, DWORD PTR [eax]

; 2603 : 	_Pop_heap(_First, _Last - 1, _Last - 1,
; 2604 : 		_Move(_Val), _Pred, _Dist_type(_First));

  0000b	6a 00		 push	 0
  0000d	ff 75 10	 push	 DWORD PTR __Pred$[ebp]
  00010	89 4d 0c	 mov	 DWORD PTR __Val$[ebp], ecx
  00013	8d 4d 0c	 lea	 ecx, DWORD PTR __Val$[ebp]
  00016	51		 push	 ecx
  00017	50		 push	 eax
  00018	50		 push	 eax
  00019	ff 75 08	 push	 DWORD PTR __First$[ebp]
  0001c	e8 00 00 00 00	 call	 ??$_Pop_heap@PAPAUDNode@?$AStarSearcher@VBoxSpace@@PAUBox@1@@@HPAU12@UDNodeCostGreater@2@@std@@YAXPAPAUDNode@?$AStarSearcher@VBoxSpace@@PAUBox@1@@@00$$QAPAU12@UDNodeCostGreater@2@PAH@Z ; std::_Pop_heap<AStarSearcher<BoxSpace,BoxSpace::Box *>::DNode * *,int,AStarSearcher<BoxSpace,BoxSpace::Box *>::DNode *,AStarSearcher<BoxSpace,BoxSpace::Box *>::DNodeCostGreater>
  00021	83 c4 18	 add	 esp, 24			; 00000018H

; 2605 : 	}

  00024	5d		 pop	 ebp
  00025	c3		 ret	 0
??$_Pop_heap_0@PAPAUDNode@?$AStarSearcher@VBoxSpace@@PAUBox@1@@@PAU12@UDNodeCostGreater@2@@std@@YAXPAPAUDNode@?$AStarSearcher@VBoxSpace@@PAUBox@1@@@0UDNodeCostGreater@2@0@Z ENDP ; std::_Pop_heap_0<AStarSearcher<BoxSpace,BoxSpace::Box *>::DNode * *,AStarSearcher<BoxSpace,BoxSpace::Box *>::DNode *,AStarSearcher<BoxSpace,BoxSpace::Box *>::DNodeCostGreater>
_TEXT	ENDS
PUBLIC	??$get_temporary_buffer@ULink@BoxSpace@@@std@@YA?AU?$pair@PAULink@BoxSpace@@H@0@H@Z ; std::get_temporary_buffer<BoxSpace::Link>
EXTRN	??2@YAPAXIABUnothrow_t@std@@@Z:PROC		; operator new
EXTRN	?nothrow@std@@3Unothrow_t@1@B:BYTE		; std::nothrow
; Function compile flags: /Ogsp
; File c:\program files (x86)\microsoft visual studio 10.0\vc\include\memory
;	COMDAT ??$get_temporary_buffer@ULink@BoxSpace@@@std@@YA?AU?$pair@PAULink@BoxSpace@@H@0@H@Z
_TEXT	SEGMENT
$T514098 = -12						; size = 12
___$ReturnUdt$ = 8					; size = 4
$T514102 = 12						; size = 4
__Count$ = 12						; size = 4
??$get_temporary_buffer@ULink@BoxSpace@@@std@@YA?AU?$pair@PAULink@BoxSpace@@H@0@H@Z PROC ; std::get_temporary_buffer<BoxSpace::Link>, COMDAT

; 23   : 	{	// get raw temporary buffer of up to _Count elements

  00000	55		 push	 ebp
  00001	8b ec		 mov	 ebp, esp
  00003	83 ec 0c	 sub	 esp, 12			; 0000000cH
  00006	56		 push	 esi

; 24   : 	_Ty _FARQ *_Pbuf;
; 25   : 
; 26   : 	if (_Count < 0)

  00007	8b 75 0c	 mov	 esi, DWORD PTR __Count$[ebp]
  0000a	85 f6		 test	 esi, esi
  0000c	79 06		 jns	 SHORT $LN7@get_tempor

; 27   : 		_Count = 0;

  0000e	33 f6		 xor	 esi, esi
$LN5@get_tempor:

; 30   : 	for (_Pbuf = 0; 0 < _Count; _Count /= 2)

  00010	33 c9		 xor	 ecx, ecx
  00012	eb 4f		 jmp	 SHORT $LN28@get_tempor
$LN7@get_tempor:

; 28   : 	else if (((_SIZT)(-1) / sizeof (_Ty) < _Count))

  00014	81 fe ff ff ff
	07		 cmp	 esi, 134217727		; 07ffffffH
  0001a	76 f4		 jbe	 SHORT $LN5@get_tempor

; 29   : 		_THROW_NCEE(bad_alloc, 0);

  0001c	83 65 0c 00	 and	 DWORD PTR $T514102[ebp], 0
  00020	8d 45 0c	 lea	 eax, DWORD PTR $T514102[ebp]
  00023	50		 push	 eax
  00024	8d 4d f4	 lea	 ecx, DWORD PTR $T514098[ebp]
  00027	ff 15 00 00 00
	00		 call	 DWORD PTR __imp_??0exception@std@@QAE@ABQBD@Z
  0002d	68 00 00 00 00	 push	 OFFSET __TI2?AVbad_alloc@std@@
  00032	8d 45 f4	 lea	 eax, DWORD PTR $T514098[ebp]
  00035	50		 push	 eax
  00036	c7 45 f4 00 00
	00 00		 mov	 DWORD PTR $T514098[ebp], OFFSET ??_7bad_alloc@std@@6B@
  0003d	e8 00 00 00 00	 call	 __CxxThrowException@8
$LN29@get_tempor:
$LL4@get_tempor:

; 31   : 		if ((_Pbuf = (_Ty _FARQ *)operator new(
; 32   : 			(_SIZT)_Count * sizeof (_Ty), nothrow)) != 0)

  00042	8b c6		 mov	 eax, esi
  00044	c1 e0 05	 shl	 eax, 5
  00047	68 00 00 00 00	 push	 OFFSET ?nothrow@std@@3Unothrow_t@1@B ; std::nothrow
  0004c	50		 push	 eax
  0004d	e8 00 00 00 00	 call	 ??2@YAPAXIABUnothrow_t@std@@@Z ; operator new
  00052	59		 pop	 ecx
  00053	59		 pop	 ecx
  00054	8b c8		 mov	 ecx, eax
  00056	85 c9		 test	 ecx, ecx
  00058	75 0d		 jne	 SHORT $LN25@get_tempor

; 30   : 	for (_Pbuf = 0; 0 < _Count; _Count /= 2)

  0005a	8b c6		 mov	 eax, esi
  0005c	99		 cdq
  0005d	2b c2		 sub	 eax, edx
  0005f	d1 f8		 sar	 eax, 1
  00061	8b f0		 mov	 esi, eax
$LN28@get_tempor:
  00063	85 f6		 test	 esi, esi
  00065	7f db		 jg	 SHORT $LL4@get_tempor
$LN25@get_tempor:

; 33   : 			break;
; 34   : 
; 35   : 	return (pair<_Ty _FARQ *, _PDFT>(_Pbuf, _Count));

  00067	8b 45 08	 mov	 eax, DWORD PTR ___$ReturnUdt$[ebp]
  0006a	89 70 04	 mov	 DWORD PTR [eax+4], esi
  0006d	89 08		 mov	 DWORD PTR [eax], ecx
  0006f	5e		 pop	 esi

; 36   : 	}

  00070	c9		 leave
  00071	c3		 ret	 0
$LN27@get_tempor:
??$get_temporary_buffer@ULink@BoxSpace@@@std@@YA?AU?$pair@PAULink@BoxSpace@@H@0@H@Z ENDP ; std::get_temporary_buffer<BoxSpace::Link>
_TEXT	ENDS
PUBLIC	??$_Insertion_sort1@PAULink@BoxSpace@@UFn_WalkLess@@U12@@std@@YAXPAULink@BoxSpace@@0UFn_WalkLess@@0@Z ; std::_Insertion_sort1<BoxSpace::Link *,Fn_WalkLess,BoxSpace::Link>
; Function compile flags: /Ogsp
; File c:\program files (x86)\microsoft visual studio 10.0\vc\include\algorithm
;	COMDAT ??$_Insertion_sort1@PAULink@BoxSpace@@UFn_WalkLess@@U12@@std@@YAXPAULink@BoxSpace@@0UFn_WalkLess@@0@Z
_TEXT	SEGMENT
__Val$508394 = -36					; size = 32
__Next1$508393 = -4					; size = 4
__Cat$514163 = 8					; size = 1
__First$ = 8						; size = 4
__Last$ = 12						; size = 4
__Pred$ = 16						; size = 1
___formal$ = 20						; size = 4
??$_Insertion_sort1@PAULink@BoxSpace@@UFn_WalkLess@@U12@@std@@YAXPAULink@BoxSpace@@0UFn_WalkLess@@0@Z PROC ; std::_Insertion_sort1<BoxSpace::Link *,Fn_WalkLess,BoxSpace::Link>, COMDAT

; 3650 : 	{	// insertion sort [_First, _Last), using _Pred

  00000	55		 push	 ebp
  00001	8b ec		 mov	 ebp, esp

; 3651 : 	if (_First != _Last)

  00003	8b 55 08	 mov	 edx, DWORD PTR __First$[ebp]
  00006	83 ec 24	 sub	 esp, 36			; 00000024H
  00009	3b 55 0c	 cmp	 edx, DWORD PTR __Last$[ebp]
  0000c	74 75		 je	 SHORT $LN6@Insertion_

; 3652 : 		for (_BidIt _Next = _First; ++_Next != _Last; )

  0000e	53		 push	 ebx
  0000f	8d 5a 20	 lea	 ebx, DWORD PTR [edx+32]
  00012	3b 5d 0c	 cmp	 ebx, DWORD PTR __Last$[ebp]
  00015	74 6b		 je	 SHORT $LN35@Insertion_
  00017	56		 push	 esi
  00018	57		 push	 edi
$LL7@Insertion_:

; 3653 : 			{	// order next element
; 3654 : 			_BidIt _Next1 = _Next;
; 3655 : 			_Ty _Val = _Move(*_Next);

  00019	6a 08		 push	 8
  0001b	59		 pop	 ecx
  0001c	8b f3		 mov	 esi, ebx
  0001e	8d 7d dc	 lea	 edi, DWORD PTR __Val$508394[ebp]
  00021	f3 a5		 rep movsd

; 3656 : 
; 3657 : 			if (_DEBUG_LT_PRED(_Pred, _Val, *_First))

  00023	8b 45 dc	 mov	 eax, DWORD PTR __Val$508394[ebp]
  00026	c1 e8 18	 shr	 eax, 24			; 00000018H
  00029	89 5d fc	 mov	 DWORD PTR __Next1$508393[ebp], ebx
  0002c	3c 4c		 cmp	 al, 76			; 0000004cH
  0002e	75 1d		 jne	 SHORT $LN5@Insertion_
  00030	38 42 03	 cmp	 BYTE PTR [edx+3], al
  00033	74 18		 je	 SHORT $LN5@Insertion_

; 3658 : 				{	// found new earliest element, move to front
; 3659 : 				_Move_backward(_First, _Next, ++_Next1);

  00035	ff 75 08	 push	 DWORD PTR __Cat$514163[ebp]
  00038	8d 43 20	 lea	 eax, DWORD PTR [ebx+32]
  0003b	50		 push	 eax
  0003c	53		 push	 ebx
  0003d	52		 push	 edx
  0003e	e8 00 00 00 00	 call	 ??$_Move_backward@PAULink@BoxSpace@@PAU12@@std@@YAPAULink@BoxSpace@@PAU12@00U_Nonscalar_ptr_iterator_tag@0@@Z ; std::_Move_backward<BoxSpace::Link *,BoxSpace::Link *>

; 3660 : 				*_First = _Move(_Val);

  00043	8b 7d 08	 mov	 edi, DWORD PTR __First$[ebp]
  00046	83 c4 10	 add	 esp, 16			; 00000010H

; 3661 : 				}
; 3662 : 			else

  00049	8b d7		 mov	 edx, edi
  0004b	eb 23		 jmp	 SHORT $LN37@Insertion_
$LN5@Insertion_:

; 3663 : 				{	// look for insertion point after first
; 3664 : 				for (_BidIt _First1 = _Next1;

  0004d	8b c3		 mov	 eax, ebx
$LL3@Insertion_:

; 3665 : 					_DEBUG_LT_PRED(_Pred, _Val, *--_First1);
; 3666 : 					_Next1 = _First1)

  0004f	83 e8 20	 sub	 eax, 32			; 00000020H
  00052	80 7d df 4c	 cmp	 BYTE PTR __Val$508394[ebp+3], 76 ; 0000004cH
  00056	75 15		 jne	 SHORT $LN25@Insertion_
  00058	80 78 03 4c	 cmp	 BYTE PTR [eax+3], 76	; 0000004cH
  0005c	74 0f		 je	 SHORT $LN25@Insertion_

; 3667 : 					*_Next1 = _Move(*_First1);	// move hole down

  0005e	8b 7d fc	 mov	 edi, DWORD PTR __Next1$508393[ebp]
  00061	6a 08		 push	 8
  00063	59		 pop	 ecx
  00064	8b f0		 mov	 esi, eax
  00066	f3 a5		 rep movsd
  00068	89 45 fc	 mov	 DWORD PTR __Next1$508393[ebp], eax
  0006b	eb e2		 jmp	 SHORT $LL3@Insertion_

; 3665 : 					_DEBUG_LT_PRED(_Pred, _Val, *--_First1);
; 3666 : 					_Next1 = _First1)

$LN25@Insertion_:

; 3668 : 				*_Next1 = _Move(_Val);	// insert element in hole

  0006d	8b 7d fc	 mov	 edi, DWORD PTR __Next1$508393[ebp]
$LN37@Insertion_:
  00070	6a 08		 push	 8
  00072	83 c3 20	 add	 ebx, 32			; 00000020H
  00075	59		 pop	 ecx
  00076	8d 75 dc	 lea	 esi, DWORD PTR __Val$508394[ebp]
  00079	f3 a5		 rep movsd
  0007b	3b 5d 0c	 cmp	 ebx, DWORD PTR __Last$[ebp]
  0007e	75 99		 jne	 SHORT $LL7@Insertion_
  00080	5f		 pop	 edi
  00081	5e		 pop	 esi
$LN35@Insertion_:
  00082	5b		 pop	 ebx
$LN6@Insertion_:

; 3669 : 				}
; 3670 : 			}
; 3671 : 	}

  00083	c9		 leave
  00084	c3		 ret	 0
??$_Insertion_sort1@PAULink@BoxSpace@@UFn_WalkLess@@U12@@std@@YAXPAULink@BoxSpace@@0UFn_WalkLess@@0@Z ENDP ; std::_Insertion_sort1<BoxSpace::Link *,Fn_WalkLess,BoxSpace::Link>
_TEXT	ENDS
PUBLIC	??$_Move@PAULink@BoxSpace@@V?$_Temp_iterator@ULink@BoxSpace@@@std@@@std@@YA?AV?$_Temp_iterator@ULink@BoxSpace@@@0@PAULink@BoxSpace@@0V10@@Z ; std::_Move<BoxSpace::Link *,std::_Temp_iterator<BoxSpace::Link> >
; Function compile flags: /Ogsp
; File c:\program files (x86)\microsoft visual studio 10.0\vc\include\xutility
;	COMDAT ??$_Move@PAULink@BoxSpace@@V?$_Temp_iterator@ULink@BoxSpace@@@std@@@std@@YA?AV?$_Temp_iterator@ULink@BoxSpace@@@0@PAULink@BoxSpace@@0V10@@Z
_TEXT	SEGMENT
$T514196 = -4						; size = 4
$T514192 = -4						; size = 4
__Cat$514201 = 8					; size = 1
___$ReturnUdt$ = 8					; size = 4
__First$ = 12						; size = 4
__Last$ = 16						; size = 4
__Dest$ = 20						; size = 20
??$_Move@PAULink@BoxSpace@@V?$_Temp_iterator@ULink@BoxSpace@@@std@@@std@@YA?AV?$_Temp_iterator@ULink@BoxSpace@@@0@PAULink@BoxSpace@@0V10@@Z PROC ; std::_Move<BoxSpace::Link *,std::_Temp_iterator<BoxSpace::Link> >, COMDAT

; 2533 : 	{	// move [_First, _Last) to [_Dest, ...), unchecked

  00000	55		 push	 ebp
  00001	8b ec		 mov	 ebp, esp
  00003	51		 push	 ecx
  00004	56		 push	 esi

; 2534 : 	return (_Move(_First, _Last,
; 2535 : 		_Dest, _Ptr_cat(_First, _Dest)));

  00005	ff 75 08	 push	 DWORD PTR __Cat$514201[ebp]
  00008	33 f6		 xor	 esi, esi
  0000a	83 ec 14	 sub	 esp, 20			; 00000014H
  0000d	8b c4		 mov	 eax, esp
  0000f	89 75 fc	 mov	 DWORD PTR $T514196[ebp], esi
  00012	89 65 fc	 mov	 DWORD PTR $T514192[ebp], esp
  00015	ff 75 10	 push	 DWORD PTR __Last$[ebp]
  00018	89 30		 mov	 DWORD PTR [eax], esi
  0001a	ff 75 0c	 push	 DWORD PTR __First$[ebp]
  0001d	89 70 04	 mov	 DWORD PTR [eax+4], esi
  00020	ff 75 08	 push	 DWORD PTR ___$ReturnUdt$[ebp]
  00023	89 70 08	 mov	 DWORD PTR [eax+8], esi
  00026	89 70 0c	 mov	 DWORD PTR [eax+12], esi
  00029	8b 4d 24	 mov	 ecx, DWORD PTR __Dest$[ebp+16]
  0002c	89 48 10	 mov	 DWORD PTR [eax+16], ecx
  0002f	e8 00 00 00 00	 call	 ??$_Move@PAULink@BoxSpace@@V?$_Temp_iterator@ULink@BoxSpace@@@std@@@std@@YA?AV?$_Temp_iterator@ULink@BoxSpace@@@0@PAULink@BoxSpace@@0V10@U_Nonscalar_ptr_iterator_tag@0@@Z ; std::_Move<BoxSpace::Link *,std::_Temp_iterator<BoxSpace::Link> >
  00034	83 c4 24	 add	 esp, 36			; 00000024H
  00037	39 75 14	 cmp	 DWORD PTR __Dest$[ebp], esi
  0003a	74 09		 je	 SHORT $LN21@Move@3
  0003c	ff 75 14	 push	 DWORD PTR __Dest$[ebp]
  0003f	e8 00 00 00 00	 call	 ??3@YAXPAX@Z		; operator delete
  00044	59		 pop	 ecx
$LN21@Move@3:
  00045	8b 45 08	 mov	 eax, DWORD PTR ___$ReturnUdt$[ebp]

; 2536 : 	}

  00048	5e		 pop	 esi
  00049	c9		 leave
  0004a	c3		 ret	 0
??$_Move@PAULink@BoxSpace@@V?$_Temp_iterator@ULink@BoxSpace@@@std@@@std@@YA?AV?$_Temp_iterator@ULink@BoxSpace@@@0@PAULink@BoxSpace@@0V10@@Z ENDP ; std::_Move<BoxSpace::Link *,std::_Temp_iterator<BoxSpace::Link> >
_TEXT	ENDS
PUBLIC	??$_Merge@PAULink@BoxSpace@@PAU12@PAU12@UFn_WalkLess@@@std@@YAPAULink@BoxSpace@@PAU12@0000UFn_WalkLess@@@Z ; std::_Merge<BoxSpace::Link *,BoxSpace::Link *,BoxSpace::Link *,Fn_WalkLess>
; Function compile flags: /Ogsp
; File c:\program files (x86)\microsoft visual studio 10.0\vc\include\algorithm
;	COMDAT ??$_Merge@PAULink@BoxSpace@@PAU12@PAU12@UFn_WalkLess@@@std@@YAPAULink@BoxSpace@@PAU12@0000UFn_WalkLess@@@Z
_TEXT	SEGMENT
__First1$ = 8						; size = 4
__Cat$514268 = 12					; size = 1
__Cat$514256 = 12					; size = 1
__Last1$ = 12						; size = 4
__First2$ = 16						; size = 4
__Last2$ = 20						; size = 4
__Dest$ = 24						; size = 4
__Pred$ = 28						; size = 1
??$_Merge@PAULink@BoxSpace@@PAU12@PAU12@UFn_WalkLess@@@std@@YAPAULink@BoxSpace@@PAU12@0000UFn_WalkLess@@@Z PROC ; std::_Merge<BoxSpace::Link *,BoxSpace::Link *,BoxSpace::Link *,Fn_WalkLess>, COMDAT

; 3125 : 	{	// copy merging ranges, both using _Pred

  00000	55		 push	 ebp
  00001	8b ec		 mov	 ebp, esp

; 3126 : 	for (; _First1 != _Last1 && _First2 != _Last2; ++_Dest)

  00003	8b 45 08	 mov	 eax, DWORD PTR __First1$[ebp]
  00006	53		 push	 ebx
  00007	8b 5d 10	 mov	 ebx, DWORD PTR __First2$[ebp]
  0000a	56		 push	 esi
  0000b	57		 push	 edi
$LN30@Merge:
  0000c	3b 45 0c	 cmp	 eax, DWORD PTR __Last1$[ebp]
  0000f	74 2b		 je	 SHORT $LN28@Merge
  00011	3b 5d 14	 cmp	 ebx, DWORD PTR __Last2$[ebp]
  00014	74 26		 je	 SHORT $LN28@Merge

; 3127 : 		if (_DEBUG_LT_PRED(_Pred, *_First2, *_First1))

  00016	80 7b 03 4c	 cmp	 BYTE PTR [ebx+3], 76	; 0000004cH
  0001a	75 0d		 jne	 SHORT $LN2@Merge
  0001c	80 78 03 4c	 cmp	 BYTE PTR [eax+3], 76	; 0000004cH
  00020	74 07		 je	 SHORT $LN2@Merge

; 3128 : 			{	// merge first
; 3129 : 			*_Dest = _Move(*_First2);

  00022	8b f3		 mov	 esi, ebx

; 3130 : 			++_First2;

  00024	83 c3 20	 add	 ebx, 32			; 00000020H

; 3131 : 			}
; 3132 : 		else

  00027	eb 05		 jmp	 SHORT $LN29@Merge
$LN2@Merge:

; 3133 : 			{	// merge second
; 3134 : 			*_Dest = _Move(*_First1);

  00029	8b f0		 mov	 esi, eax

; 3135 : 			++_First1;

  0002b	83 c0 20	 add	 eax, 32			; 00000020H
$LN29@Merge:

; 3126 : 	for (; _First1 != _Last1 && _First2 != _Last2; ++_Dest)

  0002e	8b 7d 18	 mov	 edi, DWORD PTR __Dest$[ebp]
  00031	83 45 18 20	 add	 DWORD PTR __Dest$[ebp], 32 ; 00000020H

; 3133 : 			{	// merge second
; 3134 : 			*_Dest = _Move(*_First1);

  00035	6a 08		 push	 8
  00037	59		 pop	 ecx
  00038	f3 a5		 rep movsd
  0003a	eb d0		 jmp	 SHORT $LN30@Merge
$LN28@Merge:

; 3136 : 			}
; 3137 : 
; 3138 : 	_Dest = _Move(_First1, _Last1, _Dest);	// copy any tail

  0003c	ff 75 0c	 push	 DWORD PTR __Cat$514256[ebp]
  0003f	ff 75 18	 push	 DWORD PTR __Dest$[ebp]
  00042	ff 75 0c	 push	 DWORD PTR __Last1$[ebp]
  00045	50		 push	 eax
  00046	e8 00 00 00 00	 call	 ??$_Move@PAULink@BoxSpace@@PAU12@@std@@YAPAULink@BoxSpace@@PAU12@00U_Nonscalar_ptr_iterator_tag@0@@Z ; std::_Move<BoxSpace::Link *,BoxSpace::Link *>

; 3139 : 	return (_Move(_First2, _Last2, _Dest));

  0004b	ff 75 0c	 push	 DWORD PTR __Cat$514268[ebp]
  0004e	50		 push	 eax
  0004f	ff 75 14	 push	 DWORD PTR __Last2$[ebp]
  00052	53		 push	 ebx
  00053	e8 00 00 00 00	 call	 ??$_Move@PAULink@BoxSpace@@PAU12@@std@@YAPAULink@BoxSpace@@PAU12@00U_Nonscalar_ptr_iterator_tag@0@@Z ; std::_Move<BoxSpace::Link *,BoxSpace::Link *>
  00058	83 c4 20	 add	 esp, 32			; 00000020H
  0005b	5f		 pop	 edi
  0005c	5e		 pop	 esi
  0005d	5b		 pop	 ebx

; 3140 : 	}

  0005e	5d		 pop	 ebp
  0005f	c3		 ret	 0
??$_Merge@PAULink@BoxSpace@@PAU12@PAU12@UFn_WalkLess@@@std@@YAPAULink@BoxSpace@@PAU12@0000UFn_WalkLess@@@Z ENDP ; std::_Merge<BoxSpace::Link *,BoxSpace::Link *,BoxSpace::Link *,Fn_WalkLess>
_TEXT	ENDS
PUBLIC	??$_Merge_backward@PAULink@BoxSpace@@PAU12@PAU12@UFn_WalkLess@@@std@@YAPAULink@BoxSpace@@PAU12@0000UFn_WalkLess@@@Z ; std::_Merge_backward<BoxSpace::Link *,BoxSpace::Link *,BoxSpace::Link *,Fn_WalkLess>
; Function compile flags: /Ogsp
;	COMDAT ??$_Merge_backward@PAULink@BoxSpace@@PAU12@PAU12@UFn_WalkLess@@@std@@YAPAULink@BoxSpace@@PAU12@0000UFn_WalkLess@@@Z
_TEXT	SEGMENT
__Cat$514301 = 8					; size = 1
__Cat$514289 = 8					; size = 1
__First1$ = 8						; size = 4
__Last1$ = 12						; size = 4
__First2$ = 16						; size = 4
__Last2$ = 20						; size = 4
__Dest$ = 24						; size = 4
__Pred$ = 28						; size = 1
??$_Merge_backward@PAULink@BoxSpace@@PAU12@PAU12@UFn_WalkLess@@@std@@YAPAULink@BoxSpace@@PAU12@0000UFn_WalkLess@@@Z PROC ; std::_Merge_backward<BoxSpace::Link *,BoxSpace::Link *,BoxSpace::Link *,Fn_WalkLess>, COMDAT

; 3389 : 	{	// merge backwards to _Dest, using _Pred

  00000	55		 push	 ebp
  00001	8b ec		 mov	 ebp, esp

; 3390 : 	for (; ; )
; 3391 : 		if (_First1 == _Last1)

  00003	8b 45 14	 mov	 eax, DWORD PTR __Last2$[ebp]
  00006	53		 push	 ebx
  00007	8b 5d 0c	 mov	 ebx, DWORD PTR __Last1$[ebp]
  0000a	56		 push	 esi
  0000b	57		 push	 edi
  0000c	39 5d 08	 cmp	 DWORD PTR __First1$[ebp], ebx
  0000f	74 35		 je	 SHORT $LN29@Merge_back
  00011	6a 20		 push	 32			; 00000020H
  00013	5a		 pop	 edx
$LL8@Merge_back:

; 3393 : 		else if (_First2 == _Last2)

  00014	39 45 10	 cmp	 DWORD PTR __First2$[ebp], eax
  00017	74 39		 je	 SHORT $LN30@Merge_back

; 3395 : 		else if (_DEBUG_LT_PRED(_Pred, *--_Last2, *--_Last1))

  00019	2b c2		 sub	 eax, edx
  0001b	2b da		 sub	 ebx, edx
  0001d	80 78 03 4c	 cmp	 BYTE PTR [eax+3], 76	; 0000004cH
  00021	75 0f		 jne	 SHORT $LN2@Merge_back
  00023	80 7b 03 4c	 cmp	 BYTE PTR [ebx+3], 76	; 0000004cH
  00027	74 09		 je	 SHORT $LN2@Merge_back

; 3396 : 			{	// merge first
; 3397 : 			*--_Dest = _Move(*_Last1);

  00029	29 55 18	 sub	 DWORD PTR __Dest$[ebp], edx
  0002c	8b f3		 mov	 esi, ebx

; 3398 : 			++_Last2;

  0002e	03 c2		 add	 eax, edx

; 3399 : 			}
; 3400 : 		else

  00030	eb 07		 jmp	 SHORT $LN34@Merge_back
$LN2@Merge_back:

; 3401 : 			{	// merge second
; 3402 : 			*--_Dest = _Move(*_Last2);

  00032	29 55 18	 sub	 DWORD PTR __Dest$[ebp], edx
  00035	8b f0		 mov	 esi, eax

; 3403 : 			++_Last1;

  00037	03 da		 add	 ebx, edx
$LN34@Merge_back:

; 3401 : 			{	// merge second
; 3402 : 			*--_Dest = _Move(*_Last2);

  00039	8b 7d 18	 mov	 edi, DWORD PTR __Dest$[ebp]
  0003c	6a 08		 push	 8
  0003e	59		 pop	 ecx
  0003f	f3 a5		 rep movsd
  00041	39 5d 08	 cmp	 DWORD PTR __First1$[ebp], ebx
  00044	75 ce		 jne	 SHORT $LL8@Merge_back
$LN29@Merge_back:

; 3392 : 			return (_Move_backward(_First2, _Last2, _Dest));

  00046	ff 75 08	 push	 DWORD PTR __Cat$514289[ebp]
  00049	ff 75 18	 push	 DWORD PTR __Dest$[ebp]
  0004c	50		 push	 eax
  0004d	ff 75 10	 push	 DWORD PTR __First2$[ebp]
  00050	eb 0a		 jmp	 SHORT $LN35@Merge_back
$LN30@Merge_back:

; 3394 : 			return (_Move_backward(_First1, _Last1, _Dest));

  00052	ff 75 08	 push	 DWORD PTR __Cat$514301[ebp]
  00055	ff 75 18	 push	 DWORD PTR __Dest$[ebp]
  00058	53		 push	 ebx
  00059	ff 75 08	 push	 DWORD PTR __First1$[ebp]
$LN35@Merge_back:
  0005c	e8 00 00 00 00	 call	 ??$_Move_backward@PAULink@BoxSpace@@PAU12@@std@@YAPAULink@BoxSpace@@PAU12@00U_Nonscalar_ptr_iterator_tag@0@@Z ; std::_Move_backward<BoxSpace::Link *,BoxSpace::Link *>
  00061	83 c4 10	 add	 esp, 16			; 00000010H
  00064	5f		 pop	 edi
  00065	5e		 pop	 esi
  00066	5b		 pop	 ebx

; 3404 : 			}
; 3405 : 	}

  00067	5d		 pop	 ebp
  00068	c3		 ret	 0
??$_Merge_backward@PAULink@BoxSpace@@PAU12@PAU12@UFn_WalkLess@@@std@@YAPAULink@BoxSpace@@PAU12@0000UFn_WalkLess@@@Z ENDP ; std::_Merge_backward<BoxSpace::Link *,BoxSpace::Link *,BoxSpace::Link *,Fn_WalkLess>
_TEXT	ENDS
PUBLIC	??$_Uninit_copy@V?$_Vector_const_iterator@V?$_Vector_val@ULink@BoxSpace@@V?$allocator@ULink@BoxSpace@@@std@@@std@@@std@@PAULink@BoxSpace@@V?$allocator@ULink@BoxSpace@@@2@@std@@YAPAULink@BoxSpace@@V?$_Vector_const_iterator@V?$_Vector_val@ULink@BoxSpace@@V?$allocator@ULink@BoxSpace@@@std@@@std@@@0@0PAU12@AAV?$allocator@ULink@BoxSpace@@@0@U_Nonscalar_ptr_iterator_tag@0@@Z ; std::_Uninit_copy<std::_Vector_const_iterator<std::_Vector_val<BoxSpace::Link,std::allocator<BoxSpace::Link> > >,BoxSpace::Link *,std::allocator<BoxSpace::Link> >
; Function compile flags: /Ogsp
; File c:\program files (x86)\microsoft visual studio 10.0\vc\include\memory
;	COMDAT ??$_Uninit_copy@V?$_Vector_const_iterator@V?$_Vector_val@ULink@BoxSpace@@V?$allocator@ULink@BoxSpace@@@std@@@std@@@std@@PAULink@BoxSpace@@V?$allocator@ULink@BoxSpace@@@2@@std@@YAPAULink@BoxSpace@@V?$_Vector_const_iterator@V?$_Vector_val@ULink@BoxSpace@@V?$allocator@ULink@BoxSpace@@@std@@@std@@@0@0PAU12@AAV?$allocator@ULink@BoxSpace@@@0@U_Nonscalar_ptr_iterator_tag@0@@Z
_TEXT	SEGMENT
__First$ = 8						; size = 4
__Last$ = 12						; size = 4
__Dest$ = 16						; size = 4
__Al$ = 20						; size = 4
___formal$ = 24						; size = 1
??$_Uninit_copy@V?$_Vector_const_iterator@V?$_Vector_val@ULink@BoxSpace@@V?$allocator@ULink@BoxSpace@@@std@@@std@@@std@@PAULink@BoxSpace@@V?$allocator@ULink@BoxSpace@@@2@@std@@YAPAULink@BoxSpace@@V?$_Vector_const_iterator@V?$_Vector_val@ULink@BoxSpace@@V?$allocator@ULink@BoxSpace@@@std@@@std@@@0@0PAU12@AAV?$allocator@ULink@BoxSpace@@@0@U_Nonscalar_ptr_iterator_tag@0@@Z PROC ; std::_Uninit_copy<std::_Vector_const_iterator<std::_Vector_val<BoxSpace::Link,std::allocator<BoxSpace::Link> > >,BoxSpace::Link *,std::allocator<BoxSpace::Link> >, COMDAT

; 369  : 	{	// copy [_First, _Last) to raw _Dest, using _Al, arbitrary type

  00000	55		 push	 ebp
  00001	8b ec		 mov	 ebp, esp

; 370  : 	_DEBUG_RANGE(_First, _Last);
; 371  : 	_DEBUG_POINTER(_Dest);
; 372  : 	_FwdIt _Next = _Dest;
; 373  : 
; 374  : 	_TRY_BEGIN
; 375  : 	for (; _First != _Last; ++_Dest, ++_First)

  00003	eb 19		 jmp	 SHORT $LN35@Uninit_cop
$LL14@Uninit_cop:

; 376  : 		_Cons_val(_Al, _Dest, *_First);

  00005	ff 75 08	 push	 DWORD PTR __First$[ebp]
  00008	ff 75 10	 push	 DWORD PTR __Dest$[ebp]
  0000b	ff 75 14	 push	 DWORD PTR __Al$[ebp]
  0000e	e8 00 00 00 00	 call	 ??$_Cons_val@V?$allocator@ULink@BoxSpace@@@std@@ULink@BoxSpace@@ABU34@@std@@YAXAAV?$allocator@ULink@BoxSpace@@@0@PAULink@BoxSpace@@ABU23@@Z ; std::_Cons_val<std::allocator<BoxSpace::Link>,BoxSpace::Link,BoxSpace::Link const &>
  00013	83 45 10 20	 add	 DWORD PTR __Dest$[ebp], 32 ; 00000020H
  00017	83 c4 0c	 add	 esp, 12			; 0000000cH
  0001a	83 45 08 20	 add	 DWORD PTR __First$[ebp], 32 ; 00000020H
$LN35@Uninit_cop:

; 370  : 	_DEBUG_RANGE(_First, _Last);
; 371  : 	_DEBUG_POINTER(_Dest);
; 372  : 	_FwdIt _Next = _Dest;
; 373  : 
; 374  : 	_TRY_BEGIN
; 375  : 	for (; _First != _Last; ++_Dest, ++_First)

  0001e	8b 45 08	 mov	 eax, DWORD PTR __First$[ebp]
  00021	3b 45 0c	 cmp	 eax, DWORD PTR __Last$[ebp]
  00024	75 df		 jne	 SHORT $LL14@Uninit_cop

; 377  : 	_CATCH_ALL
; 378  : 	for (; _Next != _Dest; ++_Next)
; 379  : 		_Dest_val(_Al, _Next);
; 380  : 	_RERAISE;
; 381  : 	_CATCH_END
; 382  : 	return (_Dest);

  00026	8b 45 10	 mov	 eax, DWORD PTR __Dest$[ebp]

; 383  : 	}

  00029	5d		 pop	 ebp
  0002a	c3		 ret	 0
??$_Uninit_copy@V?$_Vector_const_iterator@V?$_Vector_val@ULink@BoxSpace@@V?$allocator@ULink@BoxSpace@@@std@@@std@@@std@@PAULink@BoxSpace@@V?$allocator@ULink@BoxSpace@@@2@@std@@YAPAULink@BoxSpace@@V?$_Vector_const_iterator@V?$_Vector_val@ULink@BoxSpace@@V?$allocator@ULink@BoxSpace@@@std@@@std@@@0@0PAU12@AAV?$allocator@ULink@BoxSpace@@@0@U_Nonscalar_ptr_iterator_tag@0@@Z ENDP ; std::_Uninit_copy<std::_Vector_const_iterator<std::_Vector_val<BoxSpace::Link,std::allocator<BoxSpace::Link> > >,BoxSpace::Link *,std::allocator<BoxSpace::Link> >
_TEXT	ENDS
PUBLIC	??$_Merge@PAULink@BoxSpace@@PAU12@V?$_Temp_iterator@ULink@BoxSpace@@@std@@UFn_WalkLess@@@std@@YA?AV?$_Temp_iterator@ULink@BoxSpace@@@0@PAULink@BoxSpace@@000V10@UFn_WalkLess@@@Z ; std::_Merge<BoxSpace::Link *,BoxSpace::Link *,std::_Temp_iterator<BoxSpace::Link>,Fn_WalkLess>
; Function compile flags: /Ogsp
; File c:\program files (x86)\microsoft visual studio 10.0\vc\include\algorithm
;	COMDAT ??$_Merge@PAULink@BoxSpace@@PAU12@V?$_Temp_iterator@ULink@BoxSpace@@@std@@UFn_WalkLess@@@std@@YA?AV?$_Temp_iterator@ULink@BoxSpace@@@0@PAULink@BoxSpace@@000V10@UFn_WalkLess@@@Z
_TEXT	SEGMENT
$T514379 = -24						; size = 20
$T514386 = -4						; size = 4
___$ReturnUdt$ = 8					; size = 4
$T514378 = 12						; size = 4
__First1$ = 12						; size = 4
$T514380 = 16						; size = 4
__Last1$ = 16						; size = 4
__First2$ = 20						; size = 4
__Last2$ = 24						; size = 4
__Dest$ = 28						; size = 20
__Pred$ = 48						; size = 1
??$_Merge@PAULink@BoxSpace@@PAU12@V?$_Temp_iterator@ULink@BoxSpace@@@std@@UFn_WalkLess@@@std@@YA?AV?$_Temp_iterator@ULink@BoxSpace@@@0@PAULink@BoxSpace@@000V10@UFn_WalkLess@@@Z PROC ; std::_Merge<BoxSpace::Link *,BoxSpace::Link *,std::_Temp_iterator<BoxSpace::Link>,Fn_WalkLess>, COMDAT

; 3125 : 	{	// copy merging ranges, both using _Pred

  00000	55		 push	 ebp
  00001	8b ec		 mov	 ebp, esp
  00003	83 ec 18	 sub	 esp, 24			; 00000018H
  00006	53		 push	 ebx

; 3126 : 	for (; _First1 != _Last1 && _First2 != _Last2; ++_Dest)

  00007	8b 5d 14	 mov	 ebx, DWORD PTR __First2$[ebp]
  0000a	56		 push	 esi
  0000b	33 f6		 xor	 esi, esi
  0000d	57		 push	 edi
  0000e	8b 7d 0c	 mov	 edi, DWORD PTR __First1$[ebp]
  00011	89 75 fc	 mov	 DWORD PTR $T514386[ebp], esi
$LN67@Merge@2:
  00014	3b 7d 10	 cmp	 edi, DWORD PTR __Last1$[ebp]
  00017	74 2d		 je	 SHORT $LN66@Merge@2
  00019	3b 5d 18	 cmp	 ebx, DWORD PTR __Last2$[ebp]
  0001c	74 28		 je	 SHORT $LN66@Merge@2

; 3127 : 		if (_DEBUG_LT_PRED(_Pred, *_First2, *_First1))

  0001e	80 7b 03 4c	 cmp	 BYTE PTR [ebx+3], 76	; 0000004cH
  00022	75 14		 jne	 SHORT $LN2@Merge@2
  00024	80 7f 03 4c	 cmp	 BYTE PTR [edi+3], 76	; 0000004cH
  00028	74 0e		 je	 SHORT $LN2@Merge@2

; 3128 : 			{	// merge first
; 3129 : 			*_Dest = _Move(*_First2);

  0002a	53		 push	 ebx
  0002b	8d 4d 1c	 lea	 ecx, DWORD PTR __Dest$[ebp]
  0002e	e8 00 00 00 00	 call	 ??4?$_Temp_iterator@ULink@BoxSpace@@@std@@QAEAAV01@$$QAULink@BoxSpace@@@Z ; std::_Temp_iterator<BoxSpace::Link>::operator=

; 3130 : 			++_First2;

  00033	83 c3 20	 add	 ebx, 32			; 00000020H

; 3131 : 			}
; 3132 : 		else

  00036	eb dc		 jmp	 SHORT $LN67@Merge@2
$LN2@Merge@2:

; 3133 : 			{	// merge second
; 3134 : 			*_Dest = _Move(*_First1);

  00038	57		 push	 edi
  00039	8d 4d 1c	 lea	 ecx, DWORD PTR __Dest$[ebp]
  0003c	e8 00 00 00 00	 call	 ??4?$_Temp_iterator@ULink@BoxSpace@@@std@@QAEAAV01@$$QAULink@BoxSpace@@@Z ; std::_Temp_iterator<BoxSpace::Link>::operator=

; 3135 : 			++_First1;

  00041	83 c7 20	 add	 edi, 32			; 00000020H
  00044	eb ce		 jmp	 SHORT $LN67@Merge@2
$LN66@Merge@2:

; 3136 : 			}
; 3137 : 
; 3138 : 	_Dest = _Move(_First1, _Last1, _Dest);	// copy any tail

  00046	83 ec 14	 sub	 esp, 20			; 00000014H
  00049	8b c4		 mov	 eax, esp
  0004b	89 65 0c	 mov	 DWORD PTR $T514378[ebp], esp
  0004e	ff 75 10	 push	 DWORD PTR __Last1$[ebp]
  00051	89 30		 mov	 DWORD PTR [eax], esi
  00053	89 70 04	 mov	 DWORD PTR [eax+4], esi
  00056	89 70 08	 mov	 DWORD PTR [eax+8], esi
  00059	89 70 0c	 mov	 DWORD PTR [eax+12], esi
  0005c	8b 4d 2c	 mov	 ecx, DWORD PTR __Dest$[ebp+16]
  0005f	89 48 10	 mov	 DWORD PTR [eax+16], ecx
  00062	8d 45 e8	 lea	 eax, DWORD PTR $T514379[ebp]
  00065	57		 push	 edi
  00066	50		 push	 eax
  00067	e8 00 00 00 00	 call	 ??$_Move@PAULink@BoxSpace@@V?$_Temp_iterator@ULink@BoxSpace@@@std@@@std@@YA?AV?$_Temp_iterator@ULink@BoxSpace@@@0@PAULink@BoxSpace@@0V10@@Z ; std::_Move<BoxSpace::Link *,std::_Temp_iterator<BoxSpace::Link> >
  0006c	8b 40 10	 mov	 eax, DWORD PTR [eax+16]
  0006f	83 c4 20	 add	 esp, 32			; 00000020H
  00072	89 45 2c	 mov	 DWORD PTR __Dest$[ebp+16], eax
  00075	39 75 e8	 cmp	 DWORD PTR $T514379[ebp], esi
  00078	74 09		 je	 SHORT $LN42@Merge@2
  0007a	ff 75 e8	 push	 DWORD PTR $T514379[ebp]
  0007d	e8 00 00 00 00	 call	 ??3@YAXPAX@Z		; operator delete
  00082	59		 pop	 ecx
$LN42@Merge@2:

; 3139 : 	return (_Move(_First2, _Last2, _Dest));

  00083	83 ec 14	 sub	 esp, 20			; 00000014H
  00086	8b c4		 mov	 eax, esp
  00088	89 65 10	 mov	 DWORD PTR $T514380[ebp], esp
  0008b	ff 75 18	 push	 DWORD PTR __Last2$[ebp]
  0008e	89 30		 mov	 DWORD PTR [eax], esi
  00090	89 70 04	 mov	 DWORD PTR [eax+4], esi
  00093	89 70 08	 mov	 DWORD PTR [eax+8], esi
  00096	89 70 0c	 mov	 DWORD PTR [eax+12], esi
  00099	8b 4d 2c	 mov	 ecx, DWORD PTR __Dest$[ebp+16]
  0009c	53		 push	 ebx
  0009d	ff 75 08	 push	 DWORD PTR ___$ReturnUdt$[ebp]
  000a0	89 48 10	 mov	 DWORD PTR [eax+16], ecx
  000a3	e8 00 00 00 00	 call	 ??$_Move@PAULink@BoxSpace@@V?$_Temp_iterator@ULink@BoxSpace@@@std@@@std@@YA?AV?$_Temp_iterator@ULink@BoxSpace@@@0@PAULink@BoxSpace@@0V10@@Z ; std::_Move<BoxSpace::Link *,std::_Temp_iterator<BoxSpace::Link> >
  000a8	83 c4 20	 add	 esp, 32			; 00000020H
  000ab	39 75 1c	 cmp	 DWORD PTR __Dest$[ebp], esi
  000ae	74 09		 je	 SHORT $LN56@Merge@2
  000b0	ff 75 1c	 push	 DWORD PTR __Dest$[ebp]
  000b3	e8 00 00 00 00	 call	 ??3@YAXPAX@Z		; operator delete
  000b8	59		 pop	 ecx
$LN56@Merge@2:
  000b9	8b 45 08	 mov	 eax, DWORD PTR ___$ReturnUdt$[ebp]

; 3140 : 	}

  000bc	5f		 pop	 edi
  000bd	5e		 pop	 esi
  000be	5b		 pop	 ebx
  000bf	c9		 leave
  000c0	c3		 ret	 0
??$_Merge@PAULink@BoxSpace@@PAU12@V?$_Temp_iterator@ULink@BoxSpace@@@std@@UFn_WalkLess@@@std@@YA?AV?$_Temp_iterator@ULink@BoxSpace@@@0@PAULink@BoxSpace@@000V10@UFn_WalkLess@@@Z ENDP ; std::_Merge<BoxSpace::Link *,BoxSpace::Link *,std::_Temp_iterator<BoxSpace::Link>,Fn_WalkLess>
_TEXT	ENDS
PUBLIC	??$rotate@PAULink@BoxSpace@@@std@@YAPAULink@BoxSpace@@PAU12@00@Z ; std::rotate<BoxSpace::Link *>
; Function compile flags: /Ogsp
; File c:\program files (x86)\microsoft visual studio 10.0\vc\include\xutility
;	COMDAT ??$rotate@PAULink@BoxSpace@@@std@@YAPAULink@BoxSpace@@PAU12@00@Z
_TEXT	SEGMENT
__First$ = 8						; size = 4
__Mid$ = 12						; size = 4
__Last$ = 16						; size = 4
??$rotate@PAULink@BoxSpace@@@std@@YAPAULink@BoxSpace@@PAU12@00@Z PROC ; std::rotate<BoxSpace::Link *>, COMDAT

; 3294 : 	{	// rotate [_First, _Last)

  00000	55		 push	 ebp
  00001	8b ec		 mov	 ebp, esp
  00003	53		 push	 ebx

; 3295 : 	_DEBUG_RANGE(_First, _Mid);
; 3296 : 	_DEBUG_RANGE(_Mid, _Last);
; 3297 : 	if (_First != _Mid && _Mid != _Last)

  00004	8b 5d 08	 mov	 ebx, DWORD PTR __First$[ebp]
  00007	57		 push	 edi
  00008	8b 7d 0c	 mov	 edi, DWORD PTR __Mid$[ebp]
  0000b	3b df		 cmp	 ebx, edi
  0000d	74 1f		 je	 SHORT $LN28@rotate
  0000f	56		 push	 esi
  00010	8b 75 10	 mov	 esi, DWORD PTR __Last$[ebp]
  00013	3b fe		 cmp	 edi, esi
  00015	74 16		 je	 SHORT $LN30@rotate

; 3298 : 		{	// rotate and compute new first iterator
; 3299 : 		_Rotate(_Unchecked(_First), _Unchecked(_Mid), _Unchecked(_Last),
; 3300 : 			_Iter_cat(_First));

  00017	6a 00		 push	 0
  00019	6a 00		 push	 0
  0001b	56		 push	 esi
  0001c	57		 push	 edi
  0001d	53		 push	 ebx
  0001e	e8 00 00 00 00	 call	 ??$_Rotate@PAULink@BoxSpace@@HU12@@std@@YAXPAULink@BoxSpace@@00PAH0@Z ; std::_Rotate<BoxSpace::Link *,int,BoxSpace::Link>

; 3301 : 		_STD advance(_First, _STD distance(_Mid, _Last));

  00023	2b f7		 sub	 esi, edi
  00025	83 e6 e0	 and	 esi, -32		; ffffffe0H
  00028	83 c4 14	 add	 esp, 20			; 00000014H
  0002b	03 de		 add	 ebx, esi
$LN30@rotate:
  0002d	5e		 pop	 esi
$LN28@rotate:

; 3302 : 		}
; 3303 : 	return (_First);

  0002e	5f		 pop	 edi
  0002f	8b c3		 mov	 eax, ebx
  00031	5b		 pop	 ebx

; 3304 : 	}

  00032	5d		 pop	 ebp
  00033	c3		 ret	 0
??$rotate@PAULink@BoxSpace@@@std@@YAPAULink@BoxSpace@@PAU12@00@Z ENDP ; std::rotate<BoxSpace::Link *>
_TEXT	ENDS
PUBLIC	??0?$basic_string@DU?$char_traits@D@std@@V?$allocator@D@2@@std@@QAE@XZ ; std::basic_string<char,std::char_traits<char>,std::allocator<char> >::basic_string<char,std::char_traits<char>,std::allocator<char> >
; Function compile flags: /Ogsp
; File c:\program files (x86)\microsoft visual studio 10.0\vc\include\xstring
;	COMDAT ??0?$basic_string@DU?$char_traits@D@std@@V?$allocator@D@2@@std@@QAE@XZ
_TEXT	SEGMENT
??0?$basic_string@DU?$char_traits@D@std@@V?$allocator@D@2@@std@@QAE@XZ PROC ; std::basic_string<char,std::char_traits<char>,std::allocator<char> >::basic_string<char,std::char_traits<char>,std::allocator<char> >, COMDAT
; _this$ = ecx

; 550  : 		{	// construct empty string

  00000	8b c1		 mov	 eax, ecx

; 551  : 		_Tidy();

  00002	83 60 10 00	 and	 DWORD PTR [eax+16], 0
  00006	c7 40 14 0f 00
	00 00		 mov	 DWORD PTR [eax+20], 15	; 0000000fH
  0000d	c6 00 00	 mov	 BYTE PTR [eax], 0

; 552  : 		}

  00010	c3		 ret	 0
??0?$basic_string@DU?$char_traits@D@std@@V?$allocator@D@2@@std@@QAE@XZ ENDP ; std::basic_string<char,std::char_traits<char>,std::allocator<char> >::basic_string<char,std::char_traits<char>,std::allocator<char> >
_TEXT	ENDS
PUBLIC	??1?$basic_string@DU?$char_traits@D@std@@V?$allocator@D@2@@std@@QAE@XZ ; std::basic_string<char,std::char_traits<char>,std::allocator<char> >::~basic_string<char,std::char_traits<char>,std::allocator<char> >
; Function compile flags: /Ogsp
;	COMDAT ??1?$basic_string@DU?$char_traits@D@std@@V?$allocator@D@2@@std@@QAE@XZ
_TEXT	SEGMENT
??1?$basic_string@DU?$char_traits@D@std@@V?$allocator@D@2@@std@@QAE@XZ PROC ; std::basic_string<char,std::char_traits<char>,std::allocator<char> >::~basic_string<char,std::char_traits<char>,std::allocator<char> >, COMDAT
; _this$ = ecx

; 754  : 		_Tidy(true);

  00000	6a 00		 push	 0
  00002	6a 01		 push	 1
  00004	e8 00 00 00 00	 call	 ?_Tidy@?$basic_string@DU?$char_traits@D@std@@V?$allocator@D@2@@std@@QAEX_NI@Z ; std::basic_string<char,std::char_traits<char>,std::allocator<char> >::_Tidy

; 755  : 		}

  00009	c3		 ret	 0
??1?$basic_string@DU?$char_traits@D@std@@V?$allocator@D@2@@std@@QAE@XZ ENDP ; std::basic_string<char,std::char_traits<char>,std::allocator<char> >::~basic_string<char,std::char_traits<char>,std::allocator<char> >
_TEXT	ENDS
PUBLIC	?_Grow@?$basic_string@DU?$char_traits@D@std@@V?$allocator@D@2@@std@@QAE_NI_N@Z ; std::basic_string<char,std::char_traits<char>,std::allocator<char> >::_Grow
; Function compile flags: /Ogsp
;	COMDAT ?_Grow@?$basic_string@DU?$char_traits@D@std@@V?$allocator@D@2@@std@@QAE_NI_N@Z
_TEXT	SEGMENT
__Newsize$ = 8						; size = 4
__Trim$ = 12						; size = 1
?_Grow@?$basic_string@DU?$char_traits@D@std@@V?$allocator@D@2@@std@@QAE_NI_N@Z PROC ; std::basic_string<char,std::char_traits<char>,std::allocator<char> >::_Grow, COMDAT
; _this$ = ecx

; 1959 : 		{	// ensure buffer is big enough, trim to size if _Trim is true

  00000	55		 push	 ebp
  00001	8b ec		 mov	 ebp, esp
  00003	56		 push	 esi

; 1960 : 		if (max_size() < _Newsize)

  00004	8b 75 08	 mov	 esi, DWORD PTR __Newsize$[ebp]
  00007	83 fe fe	 cmp	 esi, -2			; fffffffeH
  0000a	76 0b		 jbe	 SHORT $LN6@Grow

; 1961 : 			_Xlen();	// result too long

  0000c	68 00 00 00 00	 push	 OFFSET ??_C@_0BA@JFNIOLAK@string?5too?5long?$AA@
  00011	ff 15 00 00 00
	00		 call	 DWORD PTR __imp_?_Xlength_error@std@@YAXPBD@Z
$LN31@Grow:
$LN6@Grow:

; 1962 : 		if (this->_Myres < _Newsize)

  00017	8b 41 14	 mov	 eax, DWORD PTR [ecx+20]
  0001a	3b c6		 cmp	 eax, esi
  0001c	73 0b		 jae	 SHORT $LN5@Grow

; 1963 : 			_Copy(_Newsize, this->_Mysize);	// reallocate to grow

  0001e	ff 71 10	 push	 DWORD PTR [ecx+16]
  00021	56		 push	 esi
  00022	e8 00 00 00 00	 call	 ?_Copy@?$basic_string@DU?$char_traits@D@std@@V?$allocator@D@2@@std@@QAEXII@Z ; std::basic_string<char,std::char_traits<char>,std::allocator<char> >::_Copy
  00027	eb 2e		 jmp	 SHORT $LN28@Grow
$LN5@Grow:

; 1964 : 		else if (_Trim && _Newsize < this->_BUF_SIZE)

  00029	33 d2		 xor	 edx, edx
  0002b	38 55 0c	 cmp	 BYTE PTR __Trim$[ebp], dl
  0002e	74 17		 je	 SHORT $LN3@Grow
  00030	83 fe 10	 cmp	 esi, 16			; 00000010H
  00033	73 12		 jae	 SHORT $LN3@Grow

; 1965 : 			_Tidy(true,	// copy and deallocate if trimming to small string
; 1966 : 				_Newsize < this->_Mysize ? _Newsize : this->_Mysize);

  00035	8b 41 10	 mov	 eax, DWORD PTR [ecx+16]
  00038	3b f0		 cmp	 esi, eax
  0003a	0f 42 c6	 cmovb	 eax, esi
  0003d	50		 push	 eax
  0003e	6a 01		 push	 1
  00040	e8 00 00 00 00	 call	 ?_Tidy@?$basic_string@DU?$char_traits@D@std@@V?$allocator@D@2@@std@@QAEX_NI@Z ; std::basic_string<char,std::char_traits<char>,std::allocator<char> >::_Tidy
  00045	eb 10		 jmp	 SHORT $LN28@Grow
$LN3@Grow:

; 1967 : 		else if (_Newsize == 0)

  00047	3b f2		 cmp	 esi, edx
  00049	75 0c		 jne	 SHORT $LN28@Grow

; 1968 : 			_Eos(0);	// new size is zero, just null terminate

  0004b	89 51 10	 mov	 DWORD PTR [ecx+16], edx
  0004e	83 f8 10	 cmp	 eax, 16			; 00000010H
  00051	72 02		 jb	 SHORT $LN26@Grow
  00053	8b 09		 mov	 ecx, DWORD PTR [ecx]
$LN26@Grow:
  00055	88 11		 mov	 BYTE PTR [ecx], dl
$LN28@Grow:

; 1969 : 		return (0 < _Newsize);	// return true only if more work to do

  00057	33 c0		 xor	 eax, eax
  00059	3b c6		 cmp	 eax, esi
  0005b	1b c0		 sbb	 eax, eax
  0005d	f7 d8		 neg	 eax
  0005f	5e		 pop	 esi

; 1970 : 		}

  00060	5d		 pop	 ebp
  00061	c2 08 00	 ret	 8
$LN30@Grow:
?_Grow@?$basic_string@DU?$char_traits@D@std@@V?$allocator@D@2@@std@@QAE_NI_N@Z ENDP ; std::basic_string<char,std::char_traits<char>,std::allocator<char> >::_Grow
_TEXT	ENDS
PUBLIC	?get_first_unit@?$uni_heap@$0BE@$0IA@@@QAEPAXXZ	; uni_heap<20,128>::get_first_unit
; Function compile flags: /Ogsp
; File d:\lost saga for developer\youtube\tutorial\source\src\lsclient\uniheap.h
;	COMDAT ?get_first_unit@?$uni_heap@$0BE@$0IA@@@QAEPAXXZ
_TEXT	SEGMENT
?get_first_unit@?$uni_heap@$0BE@$0IA@@@QAEPAXXZ PROC	; uni_heap<20,128>::get_first_unit, COMDAT
; _this$ = ecx

; 128  : 	{

  00000	56		 push	 esi
  00001	8b f1		 mov	 esi, ecx

; 129  : 		for ( m_lastBlock = m_blocks.begin(); m_lastBlock != m_blocks.end(); m_lastBlock++ ) {

  00003	8b 06		 mov	 eax, DWORD PTR [esi]
  00005	89 46 10	 mov	 DWORD PTR [esi+16], eax
  00008	eb 28		 jmp	 SHORT $LN51@get_first_
$LL20@get_first_:

; 130  : 			if ( (*m_lastBlock)->count == 0 )

  0000a	8b 46 10	 mov	 eax, DWORD PTR [esi+16]
  0000d	8b 00		 mov	 eax, DWORD PTR [eax]
  0000f	66 83 b8 02 0b
	00 00 00	 cmp	 WORD PTR [eax+2818], 0
  00017	74 12		 je	 SHORT $LN4@get_first_

; 131  : 				continue;
; 132  : 			m_lastIndex = get_next_occupied_index_from_block( *m_lastBlock, 0 );

  00019	6a 00		 push	 0
  0001b	50		 push	 eax
  0001c	8b ce		 mov	 ecx, esi
  0001e	e8 00 00 00 00	 call	 ?get_next_occupied_index_from_block@?$uni_heap@$0BE@$0IA@@@IAEHPAUTBlock@1@H@Z ; uni_heap<20,128>::get_next_occupied_index_from_block
  00023	89 46 14	 mov	 DWORD PTR [esi+20], eax

; 133  : 			if ( m_lastIndex != -1 ) 

  00026	83 f8 ff	 cmp	 eax, -1
  00029	75 10		 jne	 SHORT $LN49@get_first_
$LN4@get_first_:

; 129  : 		for ( m_lastBlock = m_blocks.begin(); m_lastBlock != m_blocks.end(); m_lastBlock++ ) {

  0002b	83 46 10 04	 add	 DWORD PTR [esi+16], 4
  0002f	8b 46 10	 mov	 eax, DWORD PTR [esi+16]
$LN51@get_first_:
  00032	3b 46 04	 cmp	 eax, DWORD PTR [esi+4]
  00035	75 d3		 jne	 SHORT $LL20@get_first_

; 135  : 		}
; 136  : 
; 137  : 		return NULL;

  00037	33 c0		 xor	 eax, eax
  00039	5e		 pop	 esi

; 138  : 	}

  0003a	c3		 ret	 0
$LN49@get_first_:

; 134  : 				return (*m_lastBlock)->buf + m_lastIndex * UNIT_SIZE;

  0003b	8b 4e 10	 mov	 ecx, DWORD PTR [esi+16]
  0003e	6b c0 14	 imul	 eax, 20			; 00000014H
  00041	03 01		 add	 eax, DWORD PTR [ecx]
  00043	5e		 pop	 esi

; 138  : 	}

  00044	c3		 ret	 0
?get_first_unit@?$uni_heap@$0BE@$0IA@@@QAEPAXXZ ENDP	; uni_heap<20,128>::get_first_unit
_TEXT	ENDS
PUBLIC	?get_next_unit@?$uni_heap@$0BE@$0IA@@@QAEPAXXZ	; uni_heap<20,128>::get_next_unit
; Function compile flags: /Ogsp
;	COMDAT ?get_next_unit@?$uni_heap@$0BE@$0IA@@@QAEPAXXZ
_TEXT	SEGMENT
?get_next_unit@?$uni_heap@$0BE@$0IA@@@QAEPAXXZ PROC	; uni_heap<20,128>::get_next_unit, COMDAT
; _this$ = ecx

; 141  : 	{

  00000	53		 push	 ebx
  00001	56		 push	 esi
  00002	8b f1		 mov	 esi, ecx

; 142  : 		if ( m_lastBlock == m_blocks.end() ) 

  00004	8b 5e 04	 mov	 ebx, DWORD PTR [esi+4]
  00007	57		 push	 edi
  00008	8b 7e 10	 mov	 edi, DWORD PTR [esi+16]
  0000b	3b fb		 cmp	 edi, ebx

; 143  : 			return NULL;

  0000d	74 51		 je	 SHORT $LN3@get_next_u

; 144  : 
; 145  : 		m_lastIndex = get_next_occupied_index_from_block( *m_lastBlock, m_lastIndex+1 );

  0000f	8b 46 14	 mov	 eax, DWORD PTR [esi+20]
  00012	40		 inc	 eax
  00013	50		 push	 eax
  00014	ff 37		 push	 DWORD PTR [edi]
  00016	e8 00 00 00 00	 call	 ?get_next_occupied_index_from_block@?$uni_heap@$0BE@$0IA@@@IAEHPAUTBlock@1@H@Z ; uni_heap<20,128>::get_next_occupied_index_from_block
  0001b	89 46 14	 mov	 DWORD PTR [esi+20], eax

; 146  : 		if ( m_lastIndex != -1 ) 

  0001e	83 f8 ff	 cmp	 eax, -1
  00021	74 07		 je	 SHORT $LN60@get_next_u

; 147  : 			return (*m_lastBlock)->buf + m_lastIndex * UNIT_SIZE;

  00023	6b c0 14	 imul	 eax, 20			; 00000014H
  00026	03 07		 add	 eax, DWORD PTR [edi]
  00028	eb 38		 jmp	 SHORT $LN7@get_next_u
$LN60@get_next_u:

; 148  : 
; 149  : 		while ( (++m_lastBlock) != m_blocks.end() ) {

  0002a	83 46 10 04	 add	 DWORD PTR [esi+16], 4
  0002e	39 5e 10	 cmp	 DWORD PTR [esi+16], ebx
  00031	74 2d		 je	 SHORT $LN3@get_next_u
$LL4@get_next_u:

; 150  : 			if ( (*m_lastBlock)->count == 0 )

  00033	8b 46 10	 mov	 eax, DWORD PTR [esi+16]
  00036	8b 00		 mov	 eax, DWORD PTR [eax]
  00038	66 83 b8 02 0b
	00 00 00	 cmp	 WORD PTR [eax+2818], 0
  00040	74 12		 je	 SHORT $LN1@get_next_u

; 151  : 				continue;
; 152  : 			m_lastIndex = get_next_occupied_index_from_block( *m_lastBlock, 0 );

  00042	6a 00		 push	 0
  00044	50		 push	 eax
  00045	8b ce		 mov	 ecx, esi
  00047	e8 00 00 00 00	 call	 ?get_next_occupied_index_from_block@?$uni_heap@$0BE@$0IA@@@IAEHPAUTBlock@1@H@Z ; uni_heap<20,128>::get_next_occupied_index_from_block
  0004c	89 46 14	 mov	 DWORD PTR [esi+20], eax

; 153  : 			if ( m_lastIndex != -1 ) 

  0004f	83 f8 ff	 cmp	 eax, -1
  00052	75 12		 jne	 SHORT $LN61@get_next_u
$LN1@get_next_u:

; 148  : 
; 149  : 		while ( (++m_lastBlock) != m_blocks.end() ) {

  00054	8b 46 04	 mov	 eax, DWORD PTR [esi+4]
  00057	83 46 10 04	 add	 DWORD PTR [esi+16], 4
  0005b	39 46 10	 cmp	 DWORD PTR [esi+16], eax
  0005e	75 d3		 jne	 SHORT $LL4@get_next_u
$LN3@get_next_u:

; 155  : 		}
; 156  : 
; 157  : 		return NULL;

  00060	33 c0		 xor	 eax, eax
$LN7@get_next_u:
  00062	5f		 pop	 edi
  00063	5e		 pop	 esi
  00064	5b		 pop	 ebx

; 158  : 	}

  00065	c3		 ret	 0
$LN61@get_next_u:

; 154  : 				return (*m_lastBlock)->buf + m_lastIndex * UNIT_SIZE;

  00066	8b 4e 10	 mov	 ecx, DWORD PTR [esi+16]
  00069	6b c0 14	 imul	 eax, 20			; 00000014H
  0006c	03 01		 add	 eax, DWORD PTR [ecx]
  0006e	eb f2		 jmp	 SHORT $LN7@get_next_u
?get_next_unit@?$uni_heap@$0BE@$0IA@@@QAEPAXXZ ENDP	; uni_heap<20,128>::get_next_unit
_TEXT	ENDS
PUBLIC	?erase@?$vector@PBQAUBox@BoxSpace@@V?$allocator@PBQAUBox@BoxSpace@@@std@@@std@@QAE?AV?$_Vector_iterator@V?$_Vector_val@PBQAUBox@BoxSpace@@V?$allocator@PBQAUBox@BoxSpace@@@std@@@std@@@2@V?$_Vector_const_iterator@V?$_Vector_val@PBQAUBox@BoxSpace@@V?$allocator@PBQAUBox@BoxSpace@@@std@@@std@@@2@0@Z ; std::vector<BoxSpace::Box * const *,std::allocator<BoxSpace::Box * const *> >::erase
; Function compile flags: /Ogsp
; File c:\program files (x86)\microsoft visual studio 10.0\vc\include\vector
;	COMDAT ?erase@?$vector@PBQAUBox@BoxSpace@@V?$allocator@PBQAUBox@BoxSpace@@@std@@@std@@QAE?AV?$_Vector_iterator@V?$_Vector_val@PBQAUBox@BoxSpace@@V?$allocator@PBQAUBox@BoxSpace@@@std@@@std@@@2@V?$_Vector_const_iterator@V?$_Vector_val@PBQAUBox@BoxSpace@@V?$allocator@PBQAUBox@BoxSpace@@@std@@@std@@@2@0@Z
_TEXT	SEGMENT
___$ReturnUdt$ = 8					; size = 4
__First_arg$ = 12					; size = 4
__Cat$515001 = 16					; size = 1
__Last_arg$ = 16					; size = 4
?erase@?$vector@PBQAUBox@BoxSpace@@V?$allocator@PBQAUBox@BoxSpace@@@std@@@std@@QAE?AV?$_Vector_iterator@V?$_Vector_val@PBQAUBox@BoxSpace@@V?$allocator@PBQAUBox@BoxSpace@@@std@@@std@@@2@V?$_Vector_const_iterator@V?$_Vector_val@PBQAUBox@BoxSpace@@V?$allocator@PBQAUBox@BoxSpace@@@std@@@std@@@2@0@Z PROC ; std::vector<BoxSpace::Box * const *,std::allocator<BoxSpace::Box * const *> >::erase, COMDAT
; _this$ = ecx

; 1190 : 		{	// erase [_First, _Last)

  00000	55		 push	 ebp
  00001	8b ec		 mov	 ebp, esp

; 1191 : 		iterator _First = _Make_iter(_First_arg);

  00003	8b 45 0c	 mov	 eax, DWORD PTR __First_arg$[ebp]
  00006	56		 push	 esi
  00007	57		 push	 edi
  00008	8b 7d 08	 mov	 edi, DWORD PTR ___$ReturnUdt$[ebp]
  0000b	8b f1		 mov	 esi, ecx
  0000d	89 07		 mov	 DWORD PTR [edi], eax

; 1192 : 		iterator _Last = _Make_iter(_Last_arg);
; 1193 : 
; 1194 : 		if (_First != _Last)

  0000f	3b 45 10	 cmp	 eax, DWORD PTR __Last_arg$[ebp]
  00012	74 16		 je	 SHORT $LN1@erase@4

; 1195 : 			{	// worth doing, copy down over hole
; 1196 :  #if _ITERATOR_DEBUG_LEVEL == 2
; 1197 : 			if (_Last < _First || _VICONT(_First) != this
; 1198 : 				|| _VIPTR(_First) < this->_Myfirst
; 1199 : 				|| this->_Mylast < _VIPTR(_Last))
; 1200 : 				_DEBUG_ERROR("vector erase iterator outside range");
; 1201 : 			pointer _Ptr = _Move(_VIPTR(_Last), this->_Mylast,
; 1202 : 				_VIPTR(_First));
; 1203 : 			_Orphan_range(_VIPTR(_First), this->_Mylast);
; 1204 : 
; 1205 :  #else /* _ITERATOR_DEBUG_LEVEL == 2 */
; 1206 : 			pointer _Ptr = _Move(_VIPTR(_Last), this->_Mylast,
; 1207 : 				_VIPTR(_First));

  00014	ff 75 10	 push	 DWORD PTR __Cat$515001[ebp]
  00017	8b 4e 04	 mov	 ecx, DWORD PTR [esi+4]
  0001a	50		 push	 eax
  0001b	51		 push	 ecx
  0001c	ff 75 10	 push	 DWORD PTR __Last_arg$[ebp]
  0001f	e8 00 00 00 00	 call	 ??$_Move@PAPBQAUBox@BoxSpace@@PAPBQAU12@@std@@YAPAPBQAUBox@BoxSpace@@PAPBQAU12@00U_Scalar_ptr_iterator_tag@0@@Z ; std::_Move<BoxSpace::Box * const * *,BoxSpace::Box * const * *>
  00024	83 c4 10	 add	 esp, 16			; 00000010H

; 1208 :  #endif /* _ITERATOR_DEBUG_LEVEL == 2 */
; 1209 : 
; 1210 : 			_Destroy(_Ptr, this->_Mylast);
; 1211 : 			this->_Mylast = _Ptr;

  00027	89 46 04	 mov	 DWORD PTR [esi+4], eax
$LN1@erase@4:

; 1212 : 			}
; 1213 : 		return (_First);

  0002a	8b c7		 mov	 eax, edi
  0002c	5f		 pop	 edi
  0002d	5e		 pop	 esi

; 1214 : 		}

  0002e	5d		 pop	 ebp
  0002f	c2 0c 00	 ret	 12			; 0000000cH
?erase@?$vector@PBQAUBox@BoxSpace@@V?$allocator@PBQAUBox@BoxSpace@@@std@@@std@@QAE?AV?$_Vector_iterator@V?$_Vector_val@PBQAUBox@BoxSpace@@V?$allocator@PBQAUBox@BoxSpace@@@std@@@std@@@2@V?$_Vector_const_iterator@V?$_Vector_val@PBQAUBox@BoxSpace@@V?$allocator@PBQAUBox@BoxSpace@@@std@@@std@@@2@0@Z ENDP ; std::vector<BoxSpace::Box * const *,std::allocator<BoxSpace::Box * const *> >::erase
_TEXT	ENDS
PUBLIC	?reserve@?$vector@PAUTBlock@?$uni_heap@$0BE@$0IA@@@V?$allocator@PAUTBlock@?$uni_heap@$0BE@$0IA@@@@std@@@std@@QAEXI@Z ; std::vector<uni_heap<20,128>::TBlock *,std::allocator<uni_heap<20,128>::TBlock *> >::reserve
; Function compile flags: /Ogsp
;	COMDAT ?reserve@?$vector@PAUTBlock@?$uni_heap@$0BE@$0IA@@@V?$allocator@PAUTBlock@?$uni_heap@$0BE@$0IA@@@@std@@@std@@QAEXI@Z
_TEXT	SEGMENT
__Count$ = 8						; size = 4
?reserve@?$vector@PAUTBlock@?$uni_heap@$0BE@$0IA@@@V?$allocator@PAUTBlock@?$uni_heap@$0BE@$0IA@@@@std@@@std@@QAEXI@Z PROC ; std::vector<uni_heap<20,128>::TBlock *,std::allocator<uni_heap<20,128>::TBlock *> >::reserve, COMDAT
; _this$ = ecx

; 746  : 		{	// determine new minimum length of allocated storage

  00000	55		 push	 ebp
  00001	8b ec		 mov	 ebp, esp

; 747  : 		if (max_size() < _Count)

  00003	81 7d 08 ff ff
	ff 3f		 cmp	 DWORD PTR __Count$[ebp], 1073741823 ; 3fffffffH
  0000a	56		 push	 esi
  0000b	8b f1		 mov	 esi, ecx
  0000d	76 0b		 jbe	 SHORT $LN5@reserve@4

; 748  : 			_Xlen();	// result too long

  0000f	68 00 00 00 00	 push	 OFFSET ??_C@_0BD@OLBABOEK@vector?$DMT?$DO?5too?5long?$AA@
  00014	ff 15 00 00 00
	00		 call	 DWORD PTR __imp_?_Xlength_error@std@@YAXPBD@Z
$LN43@reserve@4:
$LN5@reserve@4:

; 749  : 		else if (capacity() < _Count)

  0001a	8b 46 08	 mov	 eax, DWORD PTR [esi+8]
  0001d	2b 06		 sub	 eax, DWORD PTR [esi]
  0001f	c1 f8 02	 sar	 eax, 2
  00022	3b 45 08	 cmp	 eax, DWORD PTR __Count$[ebp]
  00025	73 52		 jae	 SHORT $LN3@reserve@4

; 750  : 			{	// not enough room, reallocate
; 751  : 			pointer _Ptr = this->_Alval.allocate(_Count);

  00027	53		 push	 ebx
  00028	57		 push	 edi
  00029	6a 00		 push	 0
  0002b	ff 75 08	 push	 DWORD PTR __Count$[ebp]
  0002e	e8 00 00 00 00	 call	 ??$_Allocate@PAUTBlock@?$uni_heap@$0BE@$0IA@@@@std@@YAPAPAUTBlock@?$uni_heap@$0BE@$0IA@@@IPAPAU12@@Z ; std::_Allocate<uni_heap<20,128>::TBlock *>

; 752  : 
; 753  : 			_TRY_BEGIN
; 754  : 			_Umove(this->_Myfirst, this->_Mylast, _Ptr);

  00033	8b 0e		 mov	 ecx, DWORD PTR [esi]
  00035	8d 56 0c	 lea	 edx, DWORD PTR [esi+12]
  00038	52		 push	 edx
  00039	8b d8		 mov	 ebx, eax
  0003b	8b 46 04	 mov	 eax, DWORD PTR [esi+4]
  0003e	53		 push	 ebx
  0003f	50		 push	 eax
  00040	51		 push	 ecx
  00041	e8 00 00 00 00	 call	 ??$_Uninitialized_move@PAPAUTBlock@?$uni_heap@$0BE@$0IA@@@PAPAU12@V?$allocator@PAUTBlock@?$uni_heap@$0BE@$0IA@@@@std@@@std@@YAPAPAUTBlock@?$uni_heap@$0BE@$0IA@@@PAPAU12@00AAV?$allocator@PAUTBlock@?$uni_heap@$0BE@$0IA@@@@0@@Z ; std::_Uninitialized_move<uni_heap<20,128>::TBlock * *,uni_heap<20,128>::TBlock * *,std::allocator<uni_heap<20,128>::TBlock *> >

; 755  : 			_CATCH_ALL
; 756  : 			this->_Alval.deallocate(_Ptr, _Count);
; 757  : 			_RERAISE;
; 758  : 			_CATCH_END
; 759  : 
; 760  : 			size_type _Size = size();

  00046	8b 06		 mov	 eax, DWORD PTR [esi]
  00048	8b 7e 04	 mov	 edi, DWORD PTR [esi+4]
  0004b	2b f8		 sub	 edi, eax
  0004d	83 c4 18	 add	 esp, 24			; 00000018H
  00050	c1 ff 02	 sar	 edi, 2

; 761  : 			if (this->_Myfirst != 0)

  00053	85 c0		 test	 eax, eax
  00055	74 07		 je	 SHORT $LN39@reserve@4

; 762  : 				{	// destroy and deallocate old array
; 763  : 				_Destroy(this->_Myfirst, this->_Mylast);
; 764  : 				this->_Alval.deallocate(this->_Myfirst,
; 765  : 					this->_Myend - this->_Myfirst);

  00057	50		 push	 eax
  00058	e8 00 00 00 00	 call	 ??3@YAXPAX@Z		; operator delete
  0005d	59		 pop	 ecx
$LN39@reserve@4:

; 766  : 				}
; 767  : 
; 768  : 			this->_Orphan_all();

  0005e	8b ce		 mov	 ecx, esi
  00060	ff 15 00 00 00
	00		 call	 DWORD PTR __imp_?_Orphan_all@_Container_base0@std@@QAEXXZ

; 769  : 			this->_Myend = _Ptr + _Count;

  00066	8b 45 08	 mov	 eax, DWORD PTR __Count$[ebp]
  00069	8d 04 83	 lea	 eax, DWORD PTR [ebx+eax*4]
  0006c	89 46 08	 mov	 DWORD PTR [esi+8], eax

; 770  : 			this->_Mylast = _Ptr + _Size;

  0006f	8d 04 bb	 lea	 eax, DWORD PTR [ebx+edi*4]
  00072	5f		 pop	 edi

; 771  : 			this->_Myfirst = _Ptr;

  00073	89 1e		 mov	 DWORD PTR [esi], ebx
  00075	89 46 04	 mov	 DWORD PTR [esi+4], eax
  00078	5b		 pop	 ebx
$LN3@reserve@4:
  00079	5e		 pop	 esi

; 772  : 			}
; 773  : 		}

  0007a	5d		 pop	 ebp
  0007b	c2 04 00	 ret	 4
$LN42@reserve@4:
?reserve@?$vector@PAUTBlock@?$uni_heap@$0BE@$0IA@@@V?$allocator@PAUTBlock@?$uni_heap@$0BE@$0IA@@@@std@@@std@@QAEXI@Z ENDP ; std::vector<uni_heap<20,128>::TBlock *,std::allocator<uni_heap<20,128>::TBlock *> >::reserve
_TEXT	ENDS
PUBLIC	?clear@?$vector@PAUTBlock@?$uni_heap@$0BE@$0IA@@@V?$allocator@PAUTBlock@?$uni_heap@$0BE@$0IA@@@@std@@@std@@QAEXXZ ; std::vector<uni_heap<20,128>::TBlock *,std::allocator<uni_heap<20,128>::TBlock *> >::clear
; Function compile flags: /Ogsp
;	COMDAT ?clear@?$vector@PAUTBlock@?$uni_heap@$0BE@$0IA@@@V?$allocator@PAUTBlock@?$uni_heap@$0BE@$0IA@@@@std@@@std@@QAEXXZ
_TEXT	SEGMENT
$T515121 = -4						; size = 4
?clear@?$vector@PAUTBlock@?$uni_heap@$0BE@$0IA@@@V?$allocator@PAUTBlock@?$uni_heap@$0BE@$0IA@@@@std@@@std@@QAEXXZ PROC ; std::vector<uni_heap<20,128>::TBlock *,std::allocator<uni_heap<20,128>::TBlock *> >::clear, COMDAT
; _this$ = ecx

; 1217 : 		{	// erase all

  00000	55		 push	 ebp
  00001	8b ec		 mov	 ebp, esp
  00003	51		 push	 ecx

; 1218 : 		erase(begin(), end());

  00004	8b 41 04	 mov	 eax, DWORD PTR [ecx+4]
  00007	8b 11		 mov	 edx, DWORD PTR [ecx]
  00009	50		 push	 eax
  0000a	52		 push	 edx
  0000b	8d 45 fc	 lea	 eax, DWORD PTR $T515121[ebp]
  0000e	50		 push	 eax
  0000f	e8 00 00 00 00	 call	 ?erase@?$vector@PAUTBlock@?$uni_heap@$0BE@$0IA@@@V?$allocator@PAUTBlock@?$uni_heap@$0BE@$0IA@@@@std@@@std@@QAE?AV?$_Vector_iterator@V?$_Vector_val@PAUTBlock@?$uni_heap@$0BE@$0IA@@@V?$allocator@PAUTBlock@?$uni_heap@$0BE@$0IA@@@@std@@@std@@@2@V?$_Vector_const_iterator@V?$_Vector_val@PAUTBlock@?$uni_heap@$0BE@$0IA@@@V?$allocator@PAUTBlock@?$uni_heap@$0BE@$0IA@@@@std@@@std@@@2@0@Z ; std::vector<uni_heap<20,128>::TBlock *,std::allocator<uni_heap<20,128>::TBlock *> >::erase

; 1219 : 		}

  00014	c9		 leave
  00015	c3		 ret	 0
?clear@?$vector@PAUTBlock@?$uni_heap@$0BE@$0IA@@@V?$allocator@PAUTBlock@?$uni_heap@$0BE@$0IA@@@@std@@@std@@QAEXXZ ENDP ; std::vector<uni_heap<20,128>::TBlock *,std::allocator<uni_heap<20,128>::TBlock *> >::clear
_TEXT	ENDS
PUBLIC	?erase@?$vector@PAUDNode@?$AStarSearcher@VBoxSpace@@PAUBox@1@@@V?$allocator@PAUDNode@?$AStarSearcher@VBoxSpace@@PAUBox@1@@@@std@@@std@@QAE?AV?$_Vector_iterator@V?$_Vector_val@PAUDNode@?$AStarSearcher@VBoxSpace@@PAUBox@1@@@V?$allocator@PAUDNode@?$AStarSearcher@VBoxSpace@@PAUBox@1@@@@std@@@std@@@2@V?$_Vector_const_iterator@V?$_Vector_val@PAUDNode@?$AStarSearcher@VBoxSpace@@PAUBox@1@@@V?$allocator@PAUDNode@?$AStarSearcher@VBoxSpace@@PAUBox@1@@@@std@@@std@@@2@0@Z ; std::vector<AStarSearcher<BoxSpace,BoxSpace::Box *>::DNode *,std::allocator<AStarSearcher<BoxSpace,BoxSpace::Box *>::DNode *> >::erase
; Function compile flags: /Ogsp
;	COMDAT ?erase@?$vector@PAUDNode@?$AStarSearcher@VBoxSpace@@PAUBox@1@@@V?$allocator@PAUDNode@?$AStarSearcher@VBoxSpace@@PAUBox@1@@@@std@@@std@@QAE?AV?$_Vector_iterator@V?$_Vector_val@PAUDNode@?$AStarSearcher@VBoxSpace@@PAUBox@1@@@V?$allocator@PAUDNode@?$AStarSearcher@VBoxSpace@@PAUBox@1@@@@std@@@std@@@2@V?$_Vector_const_iterator@V?$_Vector_val@PAUDNode@?$AStarSearcher@VBoxSpace@@PAUBox@1@@@V?$allocator@PAUDNode@?$AStarSearcher@VBoxSpace@@PAUBox@1@@@@std@@@std@@@2@0@Z
_TEXT	SEGMENT
___$ReturnUdt$ = 8					; size = 4
__First_arg$ = 12					; size = 4
__Cat$515248 = 16					; size = 1
__Last_arg$ = 16					; size = 4
?erase@?$vector@PAUDNode@?$AStarSearcher@VBoxSpace@@PAUBox@1@@@V?$allocator@PAUDNode@?$AStarSearcher@VBoxSpace@@PAUBox@1@@@@std@@@std@@QAE?AV?$_Vector_iterator@V?$_Vector_val@PAUDNode@?$AStarSearcher@VBoxSpace@@PAUBox@1@@@V?$allocator@PAUDNode@?$AStarSearcher@VBoxSpace@@PAUBox@1@@@@std@@@std@@@2@V?$_Vector_const_iterator@V?$_Vector_val@PAUDNode@?$AStarSearcher@VBoxSpace@@PAUBox@1@@@V?$allocator@PAUDNode@?$AStarSearcher@VBoxSpace@@PAUBox@1@@@@std@@@std@@@2@0@Z PROC ; std::vector<AStarSearcher<BoxSpace,BoxSpace::Box *>::DNode *,std::allocator<AStarSearcher<BoxSpace,BoxSpace::Box *>::DNode *> >::erase, COMDAT
; _this$ = ecx

; 1190 : 		{	// erase [_First, _Last)

  00000	55		 push	 ebp
  00001	8b ec		 mov	 ebp, esp

; 1191 : 		iterator _First = _Make_iter(_First_arg);

  00003	8b 45 0c	 mov	 eax, DWORD PTR __First_arg$[ebp]
  00006	56		 push	 esi
  00007	57		 push	 edi
  00008	8b 7d 08	 mov	 edi, DWORD PTR ___$ReturnUdt$[ebp]
  0000b	8b f1		 mov	 esi, ecx
  0000d	89 07		 mov	 DWORD PTR [edi], eax

; 1192 : 		iterator _Last = _Make_iter(_Last_arg);
; 1193 : 
; 1194 : 		if (_First != _Last)

  0000f	3b 45 10	 cmp	 eax, DWORD PTR __Last_arg$[ebp]
  00012	74 16		 je	 SHORT $LN1@erase@5

; 1195 : 			{	// worth doing, copy down over hole
; 1196 :  #if _ITERATOR_DEBUG_LEVEL == 2
; 1197 : 			if (_Last < _First || _VICONT(_First) != this
; 1198 : 				|| _VIPTR(_First) < this->_Myfirst
; 1199 : 				|| this->_Mylast < _VIPTR(_Last))
; 1200 : 				_DEBUG_ERROR("vector erase iterator outside range");
; 1201 : 			pointer _Ptr = _Move(_VIPTR(_Last), this->_Mylast,
; 1202 : 				_VIPTR(_First));
; 1203 : 			_Orphan_range(_VIPTR(_First), this->_Mylast);
; 1204 : 
; 1205 :  #else /* _ITERATOR_DEBUG_LEVEL == 2 */
; 1206 : 			pointer _Ptr = _Move(_VIPTR(_Last), this->_Mylast,
; 1207 : 				_VIPTR(_First));

  00014	ff 75 10	 push	 DWORD PTR __Cat$515248[ebp]
  00017	8b 4e 04	 mov	 ecx, DWORD PTR [esi+4]
  0001a	50		 push	 eax
  0001b	51		 push	 ecx
  0001c	ff 75 10	 push	 DWORD PTR __Last_arg$[ebp]
  0001f	e8 00 00 00 00	 call	 ??$_Move@PAPAUDNode@?$AStarSearcher@VBoxSpace@@PAUBox@1@@@PAPAU12@@std@@YAPAPAUDNode@?$AStarSearcher@VBoxSpace@@PAUBox@1@@@PAPAU12@00U_Scalar_ptr_iterator_tag@0@@Z ; std::_Move<AStarSearcher<BoxSpace,BoxSpace::Box *>::DNode * *,AStarSearcher<BoxSpace,BoxSpace::Box *>::DNode * *>
  00024	83 c4 10	 add	 esp, 16			; 00000010H

; 1208 :  #endif /* _ITERATOR_DEBUG_LEVEL == 2 */
; 1209 : 
; 1210 : 			_Destroy(_Ptr, this->_Mylast);
; 1211 : 			this->_Mylast = _Ptr;

  00027	89 46 04	 mov	 DWORD PTR [esi+4], eax
$LN1@erase@5:

; 1212 : 			}
; 1213 : 		return (_First);

  0002a	8b c7		 mov	 eax, edi
  0002c	5f		 pop	 edi
  0002d	5e		 pop	 esi

; 1214 : 		}

  0002e	5d		 pop	 ebp
  0002f	c2 0c 00	 ret	 12			; 0000000cH
?erase@?$vector@PAUDNode@?$AStarSearcher@VBoxSpace@@PAUBox@1@@@V?$allocator@PAUDNode@?$AStarSearcher@VBoxSpace@@PAUBox@1@@@@std@@@std@@QAE?AV?$_Vector_iterator@V?$_Vector_val@PAUDNode@?$AStarSearcher@VBoxSpace@@PAUBox@1@@@V?$allocator@PAUDNode@?$AStarSearcher@VBoxSpace@@PAUBox@1@@@@std@@@std@@@2@V?$_Vector_const_iterator@V?$_Vector_val@PAUDNode@?$AStarSearcher@VBoxSpace@@PAUBox@1@@@V?$allocator@PAUDNode@?$AStarSearcher@VBoxSpace@@PAUBox@1@@@@std@@@std@@@2@0@Z ENDP ; std::vector<AStarSearcher<BoxSpace,BoxSpace::Box *>::DNode *,std::allocator<AStarSearcher<BoxSpace,BoxSpace::Box *>::DNode *> >::erase
_TEXT	ENDS
PUBLIC	??$_Destroy_range@V?$allocator@ULink@BoxSpace@@@std@@@std@@YAXPAULink@BoxSpace@@0AAV?$allocator@ULink@BoxSpace@@@0@U_Nonscalar_ptr_iterator_tag@0@@Z ; std::_Destroy_range<std::allocator<BoxSpace::Link> >
; Function compile flags: /Ogsp
; File c:\program files (x86)\microsoft visual studio 10.0\vc\include\xmemory
;	COMDAT ??$_Destroy_range@V?$allocator@ULink@BoxSpace@@@std@@@std@@YAXPAULink@BoxSpace@@0AAV?$allocator@ULink@BoxSpace@@@0@U_Nonscalar_ptr_iterator_tag@0@@Z
_TEXT	SEGMENT
__First$ = 8						; size = 4
__Last$ = 12						; size = 4
__Al$ = 16						; size = 4
___formal$ = 20						; size = 1
??$_Destroy_range@V?$allocator@ULink@BoxSpace@@@std@@@std@@YAXPAULink@BoxSpace@@0AAV?$allocator@ULink@BoxSpace@@@0@U_Nonscalar_ptr_iterator_tag@0@@Z PROC ; std::_Destroy_range<std::allocator<BoxSpace::Link> >, COMDAT

; 96   : 	for (; _First != _Last; ++_First)
; 97   : 		_Dest_val(_Al, _First);
; 98   : 	}

  00000	c3		 ret	 0
??$_Destroy_range@V?$allocator@ULink@BoxSpace@@@std@@@std@@YAXPAULink@BoxSpace@@0AAV?$allocator@ULink@BoxSpace@@@0@U_Nonscalar_ptr_iterator_tag@0@@Z ENDP ; std::_Destroy_range<std::allocator<BoxSpace::Link> >
_TEXT	ENDS
PUBLIC	?push_back@?$vector@FV?$allocator@F@std@@@std@@QAEX$$QAF@Z ; std::vector<short,std::allocator<short> >::push_back
; Function compile flags: /Ogsp
; File c:\program files (x86)\microsoft visual studio 10.0\vc\include\vector
;	COMDAT ?push_back@?$vector@FV?$allocator@F@std@@@std@@QAEX$$QAF@Z
_TEXT	SEGMENT
__Val$ = 8						; size = 4
?push_back@?$vector@FV?$allocator@F@std@@@std@@QAEX$$QAF@Z PROC ; std::vector<short,std::allocator<short> >::push_back, COMDAT
; _this$ = ecx

; 631  : 		{	// insert element at end

  00000	55		 push	 ebp
  00001	8b ec		 mov	 ebp, esp
  00003	56		 push	 esi
  00004	8b f1		 mov	 esi, ecx

; 632  : 		if (_Inside(_STD addressof(_Val)))

  00006	8b 46 04	 mov	 eax, DWORD PTR [esi+4]
  00009	57		 push	 edi
  0000a	8b 7d 08	 mov	 edi, DWORD PTR __Val$[ebp]
  0000d	3b f8		 cmp	 edi, eax
  0000f	73 20		 jae	 SHORT $LN4@push_back
  00011	8b 0e		 mov	 ecx, DWORD PTR [esi]
  00013	3b cf		 cmp	 ecx, edi
  00015	77 1a		 ja	 SHORT $LN4@push_back

; 633  : 			{	// push back an element
; 634  : 			size_type _Idx = _STD addressof(_Val) - this->_Myfirst;

  00017	2b f9		 sub	 edi, ecx
  00019	d1 ff		 sar	 edi, 1

; 635  : 			if (this->_Mylast == this->_Myend)

  0001b	3b 46 08	 cmp	 eax, DWORD PTR [esi+8]
  0001e	75 09		 jne	 SHORT $LN3@push_back

; 636  : 				_Reserve(1);

  00020	6a 01		 push	 1
  00022	8b ce		 mov	 ecx, esi
  00024	e8 00 00 00 00	 call	 ?_Reserve@?$vector@FV?$allocator@F@std@@@std@@IAEXI@Z ; std::vector<short,std::allocator<short> >::_Reserve
$LN3@push_back:

; 637  : 			_Orphan_range(this->_Mylast, this->_Mylast);
; 638  : 			_Cons_val(this->_Alval,
; 639  : 				this->_Mylast,
; 640  : 				_STD forward<_Ty>(this->_Myfirst[_Idx]));

  00029	8b 06		 mov	 eax, DWORD PTR [esi]
  0002b	8d 04 78	 lea	 eax, DWORD PTR [eax+edi*2]
  0002e	50		 push	 eax

; 641  : 			++this->_Mylast;
; 642  : 			}
; 643  : 		else

  0002f	eb 0f		 jmp	 SHORT $LN24@push_back
$LN4@push_back:

; 644  : 			{	// push back a non-element
; 645  : 			if (this->_Mylast == this->_Myend)

  00031	3b 46 08	 cmp	 eax, DWORD PTR [esi+8]
  00034	75 09		 jne	 SHORT $LN1@push_back

; 646  : 				_Reserve(1);

  00036	6a 01		 push	 1
  00038	8b ce		 mov	 ecx, esi
  0003a	e8 00 00 00 00	 call	 ?_Reserve@?$vector@FV?$allocator@F@std@@@std@@IAEXI@Z ; std::vector<short,std::allocator<short> >::_Reserve
$LN1@push_back:

; 647  : 			_Orphan_range(this->_Mylast, this->_Mylast);
; 648  : 			_Cons_val(this->_Alval,
; 649  : 				this->_Mylast,
; 650  : 				_STD forward<_Ty>(_Val));

  0003f	57		 push	 edi
$LN24@push_back:
  00040	ff 76 04	 push	 DWORD PTR [esi+4]
  00043	8d 46 0c	 lea	 eax, DWORD PTR [esi+12]
  00046	50		 push	 eax
  00047	e8 00 00 00 00	 call	 ??$_Cons_val@V?$allocator@F@std@@FF@std@@YAXAAV?$allocator@F@0@PAF$$QAF@Z ; std::_Cons_val<std::allocator<short>,short,short>
  0004c	83 c4 0c	 add	 esp, 12			; 0000000cH

; 651  : 			++this->_Mylast;

  0004f	83 46 04 02	 add	 DWORD PTR [esi+4], 2
  00053	5f		 pop	 edi
  00054	5e		 pop	 esi

; 652  : 			}
; 653  : 		}

  00055	5d		 pop	 ebp
  00056	c2 04 00	 ret	 4
?push_back@?$vector@FV?$allocator@F@std@@@std@@QAEX$$QAF@Z ENDP ; std::vector<short,std::allocator<short> >::push_back
_TEXT	ENDS
PUBLIC	?push_back@?$vector@FV?$allocator@F@std@@@std@@QAEXABF@Z ; std::vector<short,std::allocator<short> >::push_back
; Function compile flags: /Ogsp
;	COMDAT ?push_back@?$vector@FV?$allocator@F@std@@@std@@QAEXABF@Z
_TEXT	SEGMENT
__Val$ = 8						; size = 4
?push_back@?$vector@FV?$allocator@F@std@@@std@@QAEXABF@Z PROC ; std::vector<short,std::allocator<short> >::push_back, COMDAT
; _this$ = ecx

; 976  : 		{	// insert element at end

  00000	55		 push	 ebp
  00001	8b ec		 mov	 ebp, esp
  00003	56		 push	 esi
  00004	8b f1		 mov	 esi, ecx

; 977  : 		if (_Inside(_STD addressof(_Val)))

  00006	8b 46 04	 mov	 eax, DWORD PTR [esi+4]
  00009	57		 push	 edi
  0000a	8b 7d 08	 mov	 edi, DWORD PTR __Val$[ebp]
  0000d	3b f8		 cmp	 edi, eax
  0000f	73 2c		 jae	 SHORT $LN4@push_back@2
  00011	8b 0e		 mov	 ecx, DWORD PTR [esi]
  00013	3b cf		 cmp	 ecx, edi
  00015	77 26		 ja	 SHORT $LN4@push_back@2

; 978  : 			{	// push back an element
; 979  : 			size_type _Idx = _STD addressof(_Val) - this->_Myfirst;

  00017	2b f9		 sub	 edi, ecx
  00019	d1 ff		 sar	 edi, 1

; 980  : 			if (this->_Mylast == this->_Myend)

  0001b	3b 46 08	 cmp	 eax, DWORD PTR [esi+8]
  0001e	75 09		 jne	 SHORT $LN3@push_back@2

; 981  : 				_Reserve(1);

  00020	6a 01		 push	 1
  00022	8b ce		 mov	 ecx, esi
  00024	e8 00 00 00 00	 call	 ?_Reserve@?$vector@FV?$allocator@F@std@@@std@@IAEXI@Z ; std::vector<short,std::allocator<short> >::_Reserve
$LN3@push_back@2:

; 982  : 			_Orphan_range(this->_Mylast, this->_Mylast);
; 983  : 			_Cons_val(this->_Alval,
; 984  : 				this->_Mylast,
; 985  : 				this->_Myfirst[_Idx]);

  00029	8b 06		 mov	 eax, DWORD PTR [esi]
  0002b	8d 04 78	 lea	 eax, DWORD PTR [eax+edi*2]
  0002e	50		 push	 eax
  0002f	ff 76 04	 push	 DWORD PTR [esi+4]
  00032	8d 46 0c	 lea	 eax, DWORD PTR [esi+12]
  00035	50		 push	 eax
  00036	e8 00 00 00 00	 call	 ??$_Cons_val@V?$allocator@F@std@@FAAF@std@@YAXAAV?$allocator@F@0@PAFAAF@Z ; std::_Cons_val<std::allocator<short>,short,short &>

; 986  : 			++this->_Mylast;
; 987  : 			}
; 988  : 		else

  0003b	eb 1b		 jmp	 SHORT $LN20@push_back@2
$LN4@push_back@2:

; 989  : 			{	// push back a non-element
; 990  : 			if (this->_Mylast == this->_Myend)

  0003d	3b 46 08	 cmp	 eax, DWORD PTR [esi+8]
  00040	75 09		 jne	 SHORT $LN1@push_back@2

; 991  : 				_Reserve(1);

  00042	6a 01		 push	 1
  00044	8b ce		 mov	 ecx, esi
  00046	e8 00 00 00 00	 call	 ?_Reserve@?$vector@FV?$allocator@F@std@@@std@@IAEXI@Z ; std::vector<short,std::allocator<short> >::_Reserve
$LN1@push_back@2:

; 992  : 			_Orphan_range(this->_Mylast, this->_Mylast);
; 993  : 			_Cons_val(this->_Alval,
; 994  : 				this->_Mylast,
; 995  : 				_Val);

  0004b	57		 push	 edi
  0004c	ff 76 04	 push	 DWORD PTR [esi+4]
  0004f	8d 46 0c	 lea	 eax, DWORD PTR [esi+12]
  00052	50		 push	 eax
  00053	e8 00 00 00 00	 call	 ??$_Cons_val@V?$allocator@F@std@@FABF@std@@YAXAAV?$allocator@F@0@PAFABF@Z ; std::_Cons_val<std::allocator<short>,short,short const &>
$LN20@push_back@2:
  00058	83 c4 0c	 add	 esp, 12			; 0000000cH

; 996  : 			++this->_Mylast;

  0005b	83 46 04 02	 add	 DWORD PTR [esi+4], 2
  0005f	5f		 pop	 edi
  00060	5e		 pop	 esi

; 997  : 			}
; 998  : 		}

  00061	5d		 pop	 ebp
  00062	c2 04 00	 ret	 4
?push_back@?$vector@FV?$allocator@F@std@@@std@@QAEXABF@Z ENDP ; std::vector<short,std::allocator<short> >::push_back
_TEXT	ENDS
PUBLIC	?clear@?$vector@FV?$allocator@F@std@@@std@@QAEXXZ ; std::vector<short,std::allocator<short> >::clear
; Function compile flags: /Ogsp
;	COMDAT ?clear@?$vector@FV?$allocator@F@std@@@std@@QAEXXZ
_TEXT	SEGMENT
$T515358 = -4						; size = 4
?clear@?$vector@FV?$allocator@F@std@@@std@@QAEXXZ PROC	; std::vector<short,std::allocator<short> >::clear, COMDAT
; _this$ = ecx

; 1217 : 		{	// erase all

  00000	55		 push	 ebp
  00001	8b ec		 mov	 ebp, esp
  00003	51		 push	 ecx

; 1218 : 		erase(begin(), end());

  00004	8b 41 04	 mov	 eax, DWORD PTR [ecx+4]
  00007	8b 11		 mov	 edx, DWORD PTR [ecx]
  00009	50		 push	 eax
  0000a	52		 push	 edx
  0000b	8d 45 fc	 lea	 eax, DWORD PTR $T515358[ebp]
  0000e	50		 push	 eax
  0000f	e8 00 00 00 00	 call	 ?erase@?$vector@FV?$allocator@F@std@@@std@@QAE?AV?$_Vector_iterator@V?$_Vector_val@FV?$allocator@F@std@@@std@@@2@V?$_Vector_const_iterator@V?$_Vector_val@FV?$allocator@F@std@@@std@@@2@0@Z ; std::vector<short,std::allocator<short> >::erase

; 1219 : 		}

  00014	c9		 leave
  00015	c3		 ret	 0
?clear@?$vector@FV?$allocator@F@std@@@std@@QAEXXZ ENDP	; std::vector<short,std::allocator<short> >::clear
_TEXT	ENDS
PUBLIC	?adjust@?$PriorityQueue@PAUDNode@?$AStarSearcher@VBoxSpace@@PAUBox@1@@@UDNodeCostGreater@2@@@QAEXABQAUDNode@?$AStarSearcher@VBoxSpace@@PAUBox@1@@@@Z ; PriorityQueue<AStarSearcher<BoxSpace,BoxSpace::Box *>::DNode *,AStarSearcher<BoxSpace,BoxSpace::Box *>::DNodeCostGreater>::adjust
; Function compile flags: /Ogsp
; File d:\lost saga for developer\youtube\tutorial\source\src\lsclient\priorityq.h
;	COMDAT ?adjust@?$PriorityQueue@PAUDNode@?$AStarSearcher@VBoxSpace@@PAUBox@1@@@UDNodeCostGreater@2@@@QAEXABQAUDNode@?$AStarSearcher@VBoxSpace@@PAUBox@1@@@@Z
_TEXT	SEGMENT
_node$ = 8						; size = 4
?adjust@?$PriorityQueue@PAUDNode@?$AStarSearcher@VBoxSpace@@PAUBox@1@@@UDNodeCostGreater@2@@@QAEXABQAUDNode@?$AStarSearcher@VBoxSpace@@PAUBox@1@@@@Z PROC ; PriorityQueue<AStarSearcher<BoxSpace,BoxSpace::Box *>::DNode *,AStarSearcher<BoxSpace,BoxSpace::Box *>::DNodeCostGreater>::adjust, COMDAT
; _this$ = ecx

; 42   : 	{

  00000	55		 push	 ebp
  00001	8b ec		 mov	 ebp, esp

; 43   : 		std::vector<T>::iterator it;
; 44   : 		for ( it = m_heap.begin(); it != m_heap.end(); it++ )

  00003	8b 51 04	 mov	 edx, DWORD PTR [ecx+4]
  00006	56		 push	 esi
  00007	8b 71 08	 mov	 esi, DWORD PTR [ecx+8]
  0000a	8b c2		 mov	 eax, edx
  0000c	3b c6		 cmp	 eax, esi
  0000e	74 25		 je	 SHORT $LN2@adjust@2
  00010	57		 push	 edi
  00011	8b 7d 08	 mov	 edi, DWORD PTR _node$[ebp]
  00014	8b 3f		 mov	 edi, DWORD PTR [edi]
$LL23@adjust@2:

; 45   : 		{
; 46   : 			if( (*it) == node )

  00016	39 38		 cmp	 DWORD PTR [eax], edi
  00018	74 09		 je	 SHORT $LN58@adjust@2

; 43   : 		std::vector<T>::iterator it;
; 44   : 		for ( it = m_heap.begin(); it != m_heap.end(); it++ )

  0001a	83 c0 04	 add	 eax, 4
  0001d	3b c6		 cmp	 eax, esi
  0001f	75 f5		 jne	 SHORT $LL23@adjust@2

; 45   : 		{
; 46   : 			if( (*it) == node )

  00021	eb 11		 jmp	 SHORT $LN60@adjust@2
$LN58@adjust@2:

; 47   : 			{
; 48   : 				std::push_heap( m_heap.begin(), it+1, m_pred );

  00023	0f b6 09	 movzx	 ecx, BYTE PTR [ecx]
  00026	51		 push	 ecx
  00027	83 c0 04	 add	 eax, 4
  0002a	50		 push	 eax
  0002b	52		 push	 edx
  0002c	e8 00 00 00 00	 call	 ??$push_heap@V?$_Vector_iterator@V?$_Vector_val@PAUDNode@?$AStarSearcher@VBoxSpace@@PAUBox@1@@@V?$allocator@PAUDNode@?$AStarSearcher@VBoxSpace@@PAUBox@1@@@@std@@@std@@@std@@UDNodeCostGreater@?$AStarSearcher@VBoxSpace@@PAUBox@1@@@@std@@YAXV?$_Vector_iterator@V?$_Vector_val@PAUDNode@?$AStarSearcher@VBoxSpace@@PAUBox@1@@@V?$allocator@PAUDNode@?$AStarSearcher@VBoxSpace@@PAUBox@1@@@@std@@@std@@@0@0UDNodeCostGreater@?$AStarSearcher@VBoxSpace@@PAUBox@1@@@@Z ; std::push_heap<std::_Vector_iterator<std::_Vector_val<AStarSearcher<BoxSpace,BoxSpace::Box *>::DNode *,std::allocator<AStarSearcher<BoxSpace,BoxSpace::Box *>::DNode *> > >,AStarSearcher<BoxSpace,BoxSpace::Box *>::DNodeCostGreater>
  00031	83 c4 0c	 add	 esp, 12			; 0000000cH
$LN60@adjust@2:
  00034	5f		 pop	 edi
$LN2@adjust@2:
  00035	5e		 pop	 esi

; 49   : 				return;
; 50   : 			}
; 51   : 		}
; 52   : 	}

  00036	5d		 pop	 ebp
  00037	c2 04 00	 ret	 4
?adjust@?$PriorityQueue@PAUDNode@?$AStarSearcher@VBoxSpace@@PAUBox@1@@@UDNodeCostGreater@2@@@QAEXABQAUDNode@?$AStarSearcher@VBoxSpace@@PAUBox@1@@@@Z ENDP ; PriorityQueue<AStarSearcher<BoxSpace,BoxSpace::Box *>::DNode *,AStarSearcher<BoxSpace,BoxSpace::Box *>::DNodeCostGreater>::adjust
_TEXT	ENDS
PUBLIC	?get_first_unit@?$obj_heap@UDNode@?$AStarSearcher@VBoxSpace@@PAUBox@1@@@$0IA@@@QAEPAUDNode@?$AStarSearcher@VBoxSpace@@PAUBox@1@@@XZ ; obj_heap<AStarSearcher<BoxSpace,BoxSpace::Box *>::DNode,128>::get_first_unit
; Function compile flags: /Ogsp
; File d:\lost saga for developer\youtube\tutorial\source\src\lsclient\uniheap.h
;	COMDAT ?get_first_unit@?$obj_heap@UDNode@?$AStarSearcher@VBoxSpace@@PAUBox@1@@@$0IA@@@QAEPAUDNode@?$AStarSearcher@VBoxSpace@@PAUBox@1@@@XZ
_TEXT	SEGMENT
?get_first_unit@?$obj_heap@UDNode@?$AStarSearcher@VBoxSpace@@PAUBox@1@@@$0IA@@@QAEPAUDNode@?$AStarSearcher@VBoxSpace@@PAUBox@1@@@XZ PROC ; obj_heap<AStarSearcher<BoxSpace,BoxSpace::Box *>::DNode,128>::get_first_unit, COMDAT
; _this$ = ecx

; 287  : 		return reinterpret_cast< T* >( m_heap.get_first_unit() );

  00000	e9 00 00 00 00	 jmp	 ?get_first_unit@?$uni_heap@$0BE@$0IA@@@QAEPAXXZ ; uni_heap<20,128>::get_first_unit
?get_first_unit@?$obj_heap@UDNode@?$AStarSearcher@VBoxSpace@@PAUBox@1@@@$0IA@@@QAEPAUDNode@?$AStarSearcher@VBoxSpace@@PAUBox@1@@@XZ ENDP ; obj_heap<AStarSearcher<BoxSpace,BoxSpace::Box *>::DNode,128>::get_first_unit
_TEXT	ENDS
PUBLIC	?get_next_unit@?$obj_heap@UDNode@?$AStarSearcher@VBoxSpace@@PAUBox@1@@@$0IA@@@QAEPAUDNode@?$AStarSearcher@VBoxSpace@@PAUBox@1@@@XZ ; obj_heap<AStarSearcher<BoxSpace,BoxSpace::Box *>::DNode,128>::get_next_unit
; Function compile flags: /Ogsp
;	COMDAT ?get_next_unit@?$obj_heap@UDNode@?$AStarSearcher@VBoxSpace@@PAUBox@1@@@$0IA@@@QAEPAUDNode@?$AStarSearcher@VBoxSpace@@PAUBox@1@@@XZ
_TEXT	SEGMENT
?get_next_unit@?$obj_heap@UDNode@?$AStarSearcher@VBoxSpace@@PAUBox@1@@@$0IA@@@QAEPAUDNode@?$AStarSearcher@VBoxSpace@@PAUBox@1@@@XZ PROC ; obj_heap<AStarSearcher<BoxSpace,BoxSpace::Box *>::DNode,128>::get_next_unit, COMDAT
; _this$ = ecx

; 292  : 		return reinterpret_cast< T* >( m_heap.get_next_unit() );

  00000	e9 00 00 00 00	 jmp	 ?get_next_unit@?$uni_heap@$0BE@$0IA@@@QAEPAXXZ ; uni_heap<20,128>::get_next_unit
?get_next_unit@?$obj_heap@UDNode@?$AStarSearcher@VBoxSpace@@PAUBox@1@@@$0IA@@@QAEPAUDNode@?$AStarSearcher@VBoxSpace@@PAUBox@1@@@XZ ENDP ; obj_heap<AStarSearcher<BoxSpace,BoxSpace::Box *>::DNode,128>::get_next_unit
_TEXT	ENDS
PUBLIC	?_Reserve@?$vector@PAUDNode@?$AStarSearcher@VBoxSpace@@PAUBox@1@@@V?$allocator@PAUDNode@?$AStarSearcher@VBoxSpace@@PAUBox@1@@@@std@@@std@@IAEXI@Z ; std::vector<AStarSearcher<BoxSpace,BoxSpace::Box *>::DNode *,std::allocator<AStarSearcher<BoxSpace,BoxSpace::Box *>::DNode *> >::_Reserve
; Function compile flags: /Ogsp
; File c:\program files (x86)\microsoft visual studio 10.0\vc\include\vector
;	COMDAT ?_Reserve@?$vector@PAUDNode@?$AStarSearcher@VBoxSpace@@PAUBox@1@@@V?$allocator@PAUDNode@?$AStarSearcher@VBoxSpace@@PAUBox@1@@@@std@@@std@@IAEXI@Z
_TEXT	SEGMENT
__Count$ = 8						; size = 4
?_Reserve@?$vector@PAUDNode@?$AStarSearcher@VBoxSpace@@PAUBox@1@@@V?$allocator@PAUDNode@?$AStarSearcher@VBoxSpace@@PAUBox@1@@@@std@@@std@@IAEXI@Z PROC ; std::vector<AStarSearcher<BoxSpace,BoxSpace::Box *>::DNode *,std::allocator<AStarSearcher<BoxSpace,BoxSpace::Box *>::DNode *> >::_Reserve, COMDAT
; _this$ = ecx

; 1290 : 		{	// ensure room for _Count new elements, grow exponentially

  00000	55		 push	 ebp
  00001	8b ec		 mov	 ebp, esp
  00003	56		 push	 esi
  00004	8b f1		 mov	 esi, ecx

; 1291 : 		size_type _Size = size();

  00006	8b 0e		 mov	 ecx, DWORD PTR [esi]
  00008	8b 46 04	 mov	 eax, DWORD PTR [esi+4]
  0000b	2b c1		 sub	 eax, ecx

; 1292 : 		if (max_size() - _Count < _Size)

  0000d	ba ff ff ff 3f	 mov	 edx, 1073741823		; 3fffffffH
  00012	2b 55 08	 sub	 edx, DWORD PTR __Count$[ebp]
  00015	c1 f8 02	 sar	 eax, 2
  00018	3b d0		 cmp	 edx, eax
  0001a	73 0b		 jae	 SHORT $LN4@Reserve@2

; 1293 : 			_Xlen();

  0001c	68 00 00 00 00	 push	 OFFSET ??_C@_0BD@OLBABOEK@vector?$DMT?$DO?5too?5long?$AA@
  00021	ff 15 00 00 00
	00		 call	 DWORD PTR __imp_?_Xlength_error@std@@YAXPBD@Z
$LN21@Reserve@2:
$LN4@Reserve@2:

; 1294 : 		else if ((_Size += _Count) <= capacity())

  00027	8b 56 08	 mov	 edx, DWORD PTR [esi+8]
  0002a	03 45 08	 add	 eax, DWORD PTR __Count$[ebp]
  0002d	2b d1		 sub	 edx, ecx
  0002f	c1 fa 02	 sar	 edx, 2
  00032	3b c2		 cmp	 eax, edx
  00034	76 10		 jbe	 SHORT $LN1@Reserve@2

; 1295 : 			;
; 1296 : 		else
; 1297 : 			reserve(_Grow_to(_Size));

  00036	50		 push	 eax
  00037	8b ce		 mov	 ecx, esi
  00039	e8 00 00 00 00	 call	 ?_Grow_to@?$vector@PAUDNode@?$AStarSearcher@VBoxSpace@@PAUBox@1@@@V?$allocator@PAUDNode@?$AStarSearcher@VBoxSpace@@PAUBox@1@@@@std@@@std@@IBEII@Z ; std::vector<AStarSearcher<BoxSpace,BoxSpace::Box *>::DNode *,std::allocator<AStarSearcher<BoxSpace,BoxSpace::Box *>::DNode *> >::_Grow_to
  0003e	50		 push	 eax
  0003f	8b ce		 mov	 ecx, esi
  00041	e8 00 00 00 00	 call	 ?reserve@?$vector@PAUDNode@?$AStarSearcher@VBoxSpace@@PAUBox@1@@@V?$allocator@PAUDNode@?$AStarSearcher@VBoxSpace@@PAUBox@1@@@@std@@@std@@QAEXI@Z ; std::vector<AStarSearcher<BoxSpace,BoxSpace::Box *>::DNode *,std::allocator<AStarSearcher<BoxSpace,BoxSpace::Box *>::DNode *> >::reserve
$LN1@Reserve@2:
  00046	5e		 pop	 esi

; 1298 : 		}

  00047	5d		 pop	 ebp
  00048	c2 04 00	 ret	 4
$LN20@Reserve@2:
?_Reserve@?$vector@PAUDNode@?$AStarSearcher@VBoxSpace@@PAUBox@1@@@V?$allocator@PAUDNode@?$AStarSearcher@VBoxSpace@@PAUBox@1@@@@std@@@std@@IAEXI@Z ENDP ; std::vector<AStarSearcher<BoxSpace,BoxSpace::Box *>::DNode *,std::allocator<AStarSearcher<BoxSpace,BoxSpace::Box *>::DNode *> >::_Reserve
_TEXT	ENDS
PUBLIC	?back@?$vector@PAUTBlock@?$uni_heap@$0BE@$0IA@@@V?$allocator@PAUTBlock@?$uni_heap@$0BE@$0IA@@@@std@@@std@@QAEAAPAUTBlock@?$uni_heap@$0BE@$0IA@@@XZ ; std::vector<uni_heap<20,128>::TBlock *,std::allocator<uni_heap<20,128>::TBlock *> >::back
; Function compile flags: /Ogsp
;	COMDAT ?back@?$vector@PAUTBlock@?$uni_heap@$0BE@$0IA@@@V?$allocator@PAUTBlock@?$uni_heap@$0BE@$0IA@@@@std@@@std@@QAEAAPAUTBlock@?$uni_heap@$0BE@$0IA@@@XZ
_TEXT	SEGMENT
?back@?$vector@PAUTBlock@?$uni_heap@$0BE@$0IA@@@V?$allocator@PAUTBlock@?$uni_heap@$0BE@$0IA@@@@std@@@std@@QAEAAPAUTBlock@?$uni_heap@$0BE@$0IA@@@XZ PROC ; std::vector<uni_heap<20,128>::TBlock *,std::allocator<uni_heap<20,128>::TBlock *> >::back, COMDAT
; _this$ = ecx

; 967  : 		return (*(end() - 1));

  00000	8b 41 04	 mov	 eax, DWORD PTR [ecx+4]
  00003	83 e8 04	 sub	 eax, 4

; 968  : 		}

  00006	c3		 ret	 0
?back@?$vector@PAUTBlock@?$uni_heap@$0BE@$0IA@@@V?$allocator@PAUTBlock@?$uni_heap@$0BE@$0IA@@@@std@@@std@@QAEAAPAUTBlock@?$uni_heap@$0BE@$0IA@@@XZ ENDP ; std::vector<uni_heap<20,128>::TBlock *,std::allocator<uni_heap<20,128>::TBlock *> >::back
_TEXT	ENDS
PUBLIC	?_Reserve@?$vector@PBQAUBox@BoxSpace@@V?$allocator@PBQAUBox@BoxSpace@@@std@@@std@@IAEXI@Z ; std::vector<BoxSpace::Box * const *,std::allocator<BoxSpace::Box * const *> >::_Reserve
; Function compile flags: /Ogsp
;	COMDAT ?_Reserve@?$vector@PBQAUBox@BoxSpace@@V?$allocator@PBQAUBox@BoxSpace@@@std@@@std@@IAEXI@Z
_TEXT	SEGMENT
__Count$ = 8						; size = 4
?_Reserve@?$vector@PBQAUBox@BoxSpace@@V?$allocator@PBQAUBox@BoxSpace@@@std@@@std@@IAEXI@Z PROC ; std::vector<BoxSpace::Box * const *,std::allocator<BoxSpace::Box * const *> >::_Reserve, COMDAT
; _this$ = ecx

; 1290 : 		{	// ensure room for _Count new elements, grow exponentially

  00000	55		 push	 ebp
  00001	8b ec		 mov	 ebp, esp
  00003	56		 push	 esi
  00004	8b f1		 mov	 esi, ecx

; 1291 : 		size_type _Size = size();

  00006	8b 0e		 mov	 ecx, DWORD PTR [esi]
  00008	8b 46 04	 mov	 eax, DWORD PTR [esi+4]
  0000b	2b c1		 sub	 eax, ecx

; 1292 : 		if (max_size() - _Count < _Size)

  0000d	ba ff ff ff 3f	 mov	 edx, 1073741823		; 3fffffffH
  00012	2b 55 08	 sub	 edx, DWORD PTR __Count$[ebp]
  00015	c1 f8 02	 sar	 eax, 2
  00018	3b d0		 cmp	 edx, eax
  0001a	73 0b		 jae	 SHORT $LN4@Reserve@3

; 1293 : 			_Xlen();

  0001c	68 00 00 00 00	 push	 OFFSET ??_C@_0BD@OLBABOEK@vector?$DMT?$DO?5too?5long?$AA@
  00021	ff 15 00 00 00
	00		 call	 DWORD PTR __imp_?_Xlength_error@std@@YAXPBD@Z
$LN21@Reserve@3:
$LN4@Reserve@3:

; 1294 : 		else if ((_Size += _Count) <= capacity())

  00027	8b 56 08	 mov	 edx, DWORD PTR [esi+8]
  0002a	03 45 08	 add	 eax, DWORD PTR __Count$[ebp]
  0002d	2b d1		 sub	 edx, ecx
  0002f	c1 fa 02	 sar	 edx, 2
  00032	3b c2		 cmp	 eax, edx
  00034	76 10		 jbe	 SHORT $LN1@Reserve@3

; 1295 : 			;
; 1296 : 		else
; 1297 : 			reserve(_Grow_to(_Size));

  00036	50		 push	 eax
  00037	8b ce		 mov	 ecx, esi
  00039	e8 00 00 00 00	 call	 ?_Grow_to@?$vector@PBQAUBox@BoxSpace@@V?$allocator@PBQAUBox@BoxSpace@@@std@@@std@@IBEII@Z ; std::vector<BoxSpace::Box * const *,std::allocator<BoxSpace::Box * const *> >::_Grow_to
  0003e	50		 push	 eax
  0003f	8b ce		 mov	 ecx, esi
  00041	e8 00 00 00 00	 call	 ?reserve@?$vector@PBQAUBox@BoxSpace@@V?$allocator@PBQAUBox@BoxSpace@@@std@@@std@@QAEXI@Z ; std::vector<BoxSpace::Box * const *,std::allocator<BoxSpace::Box * const *> >::reserve
$LN1@Reserve@3:
  00046	5e		 pop	 esi

; 1298 : 		}

  00047	5d		 pop	 ebp
  00048	c2 04 00	 ret	 4
$LN20@Reserve@3:
?_Reserve@?$vector@PBQAUBox@BoxSpace@@V?$allocator@PBQAUBox@BoxSpace@@@std@@@std@@IAEXI@Z ENDP ; std::vector<BoxSpace::Box * const *,std::allocator<BoxSpace::Box * const *> >::_Reserve
_TEXT	ENDS
PUBLIC	??$_Uninitialized_move@PAULink@BoxSpace@@PAU12@V?$allocator@ULink@BoxSpace@@@std@@@std@@YAPAULink@BoxSpace@@PAU12@00AAV?$allocator@ULink@BoxSpace@@@0@@Z ; std::_Uninitialized_move<BoxSpace::Link *,BoxSpace::Link *,std::allocator<BoxSpace::Link> >
; Function compile flags: /Ogsp
; File c:\program files (x86)\microsoft visual studio 10.0\vc\include\memory
;	COMDAT ??$_Uninitialized_move@PAULink@BoxSpace@@PAU12@V?$allocator@ULink@BoxSpace@@@std@@@std@@YAPAULink@BoxSpace@@PAU12@00AAV?$allocator@ULink@BoxSpace@@@0@@Z
_TEXT	SEGMENT
__Cat$515696 = -4					; size = 1
__First$ = 8						; size = 4
__Last$ = 12						; size = 4
__Dest$ = 16						; size = 4
__Al$ = 20						; size = 4
??$_Uninitialized_move@PAULink@BoxSpace@@PAU12@V?$allocator@ULink@BoxSpace@@@std@@@std@@YAPAULink@BoxSpace@@PAU12@00AAV?$allocator@ULink@BoxSpace@@@0@@Z PROC ; std::_Uninitialized_move<BoxSpace::Link *,BoxSpace::Link *,std::allocator<BoxSpace::Link> >, COMDAT

; 469  : 	{	// move [_First, _Last) to raw _Dest, using _Al

  00000	55		 push	 ebp
  00001	8b ec		 mov	 ebp, esp
  00003	51		 push	 ecx

; 470  : 	return (_Uninit_move(_First, _Last, _Dest, _Al,
; 471  : 		_Val_type(_First), _Ptr_cat(_First, _Dest)));

  00004	ff 75 fc	 push	 DWORD PTR __Cat$515696[ebp]
  00007	6a 00		 push	 0
  00009	ff 75 14	 push	 DWORD PTR __Al$[ebp]
  0000c	ff 75 10	 push	 DWORD PTR __Dest$[ebp]
  0000f	ff 75 0c	 push	 DWORD PTR __Last$[ebp]
  00012	ff 75 08	 push	 DWORD PTR __First$[ebp]
  00015	e8 00 00 00 00	 call	 ??$_Uninit_move@PAULink@BoxSpace@@PAU12@V?$allocator@ULink@BoxSpace@@@std@@U12@@std@@YAPAULink@BoxSpace@@PAU12@00AAV?$allocator@ULink@BoxSpace@@@0@0U_Nonscalar_ptr_iterator_tag@0@@Z ; std::_Uninit_move<BoxSpace::Link *,BoxSpace::Link *,std::allocator<BoxSpace::Link>,BoxSpace::Link>
  0001a	83 c4 18	 add	 esp, 24			; 00000018H

; 472  : 	}

  0001d	c9		 leave
  0001e	c3		 ret	 0
??$_Uninitialized_move@PAULink@BoxSpace@@PAU12@V?$allocator@ULink@BoxSpace@@@std@@@std@@YAPAULink@BoxSpace@@PAU12@00AAV?$allocator@ULink@BoxSpace@@@0@@Z ENDP ; std::_Uninitialized_move<BoxSpace::Link *,BoxSpace::Link *,std::allocator<BoxSpace::Link> >
_TEXT	ENDS
PUBLIC	??$_Pop_heap@PAPAUDNode@?$AStarSearcher@VBoxSpace@@PAUBox@1@@@UDNodeCostGreater@2@@std@@YAXPAPAUDNode@?$AStarSearcher@VBoxSpace@@PAUBox@1@@@0UDNodeCostGreater@2@@Z ; std::_Pop_heap<AStarSearcher<BoxSpace,BoxSpace::Box *>::DNode * *,AStarSearcher<BoxSpace,BoxSpace::Box *>::DNodeCostGreater>
; Function compile flags: /Ogsp
; File c:\program files (x86)\microsoft visual studio 10.0\vc\include\algorithm
;	COMDAT ??$_Pop_heap@PAPAUDNode@?$AStarSearcher@VBoxSpace@@PAUBox@1@@@UDNodeCostGreater@2@@std@@YAXPAPAUDNode@?$AStarSearcher@VBoxSpace@@PAUBox@1@@@0UDNodeCostGreater@2@@Z
_TEXT	SEGMENT
__First$ = 8						; size = 4
__Last$ = 12						; size = 4
__Pred$ = 16						; size = 1
??$_Pop_heap@PAPAUDNode@?$AStarSearcher@VBoxSpace@@PAUBox@1@@@UDNodeCostGreater@2@@std@@YAXPAPAUDNode@?$AStarSearcher@VBoxSpace@@PAUBox@1@@@0UDNodeCostGreater@2@@Z PROC ; std::_Pop_heap<AStarSearcher<BoxSpace,BoxSpace::Box *>::DNode * *,AStarSearcher<BoxSpace,BoxSpace::Box *>::DNodeCostGreater>, COMDAT

; 2610 : 	{	// pop *_First to *(_Last - 1) and reheap, using _Pred

  00000	55		 push	 ebp
  00001	8b ec		 mov	 ebp, esp

; 2611 : 	_Pop_heap_0(_Unchecked(_First), _Unchecked(_Last), _Pred,
; 2612 : 		_Val_type(_First));

  00003	6a 00		 push	 0
  00005	ff 75 10	 push	 DWORD PTR __Pred$[ebp]
  00008	ff 75 0c	 push	 DWORD PTR __Last$[ebp]
  0000b	ff 75 08	 push	 DWORD PTR __First$[ebp]
  0000e	e8 00 00 00 00	 call	 ??$_Pop_heap_0@PAPAUDNode@?$AStarSearcher@VBoxSpace@@PAUBox@1@@@PAU12@UDNodeCostGreater@2@@std@@YAXPAPAUDNode@?$AStarSearcher@VBoxSpace@@PAUBox@1@@@0UDNodeCostGreater@2@0@Z ; std::_Pop_heap_0<AStarSearcher<BoxSpace,BoxSpace::Box *>::DNode * *,AStarSearcher<BoxSpace,BoxSpace::Box *>::DNode *,AStarSearcher<BoxSpace,BoxSpace::Box *>::DNodeCostGreater>
  00013	83 c4 10	 add	 esp, 16			; 00000010H

; 2613 : 	}

  00016	5d		 pop	 ebp
  00017	c3		 ret	 0
??$_Pop_heap@PAPAUDNode@?$AStarSearcher@VBoxSpace@@PAUBox@1@@@UDNodeCostGreater@2@@std@@YAXPAPAUDNode@?$AStarSearcher@VBoxSpace@@PAUBox@1@@@0UDNodeCostGreater@2@@Z ENDP ; std::_Pop_heap<AStarSearcher<BoxSpace,BoxSpace::Box *>::DNode * *,AStarSearcher<BoxSpace,BoxSpace::Box *>::DNodeCostGreater>
_TEXT	ENDS
PUBLIC	?_Maxlen@?$_Temp_iterator@ULink@BoxSpace@@@std@@QAEHXZ ; std::_Temp_iterator<BoxSpace::Link>::_Maxlen
; Function compile flags: /Ogsp
; File c:\program files (x86)\microsoft visual studio 10.0\vc\include\memory
;	COMDAT ?_Maxlen@?$_Temp_iterator@ULink@BoxSpace@@@std@@QAEHXZ
_TEXT	SEGMENT
__Pair$508048 = -8					; size = 8
?_Maxlen@?$_Temp_iterator@ULink@BoxSpace@@@std@@QAEHXZ PROC ; std::_Temp_iterator<BoxSpace::Link>::_Maxlen, COMDAT
; _this$ = ecx

; 821  : 		{	// return size of buffer

  00000	55		 push	 ebp
  00001	8b ec		 mov	 ebp, esp
  00003	51		 push	 ecx
  00004	51		 push	 ecx
  00005	56		 push	 esi
  00006	8b f1		 mov	 esi, ecx

; 822  : 		if (_Pbuf->_Begin == 0 && 0 < _Pbuf->_Size)

  00008	8b 46 10	 mov	 eax, DWORD PTR [esi+16]
  0000b	83 38 00	 cmp	 DWORD PTR [eax], 0
  0000e	75 30		 jne	 SHORT $LN1@Maxlen
  00010	8b 40 0c	 mov	 eax, DWORD PTR [eax+12]
  00013	85 c0		 test	 eax, eax
  00015	7e 29		 jle	 SHORT $LN1@Maxlen

; 823  : 			{	// allocate buffer on first size query
; 824  : 			pair<_Pty, _PDFT> _Pair =
; 825  : 
; 826  : 				_STD get_temporary_buffer<_Ty>(_Pbuf->_Size);

  00017	50		 push	 eax
  00018	8d 45 f8	 lea	 eax, DWORD PTR __Pair$508048[ebp]
  0001b	50		 push	 eax
  0001c	e8 00 00 00 00	 call	 ??$get_temporary_buffer@ULink@BoxSpace@@@std@@YA?AU?$pair@PAULink@BoxSpace@@H@0@H@Z ; std::get_temporary_buffer<BoxSpace::Link>

; 827  : 
; 828  : 			_Pbuf->_Begin = _Pair.first;

  00021	8b 45 f8	 mov	 eax, DWORD PTR __Pair$508048[ebp]
  00024	59		 pop	 ecx
  00025	59		 pop	 ecx
  00026	8b 4e 10	 mov	 ecx, DWORD PTR [esi+16]
  00029	89 01		 mov	 DWORD PTR [ecx], eax

; 829  : 			_Pbuf->_Current = _Pair.first;

  0002b	8b 4e 10	 mov	 ecx, DWORD PTR [esi+16]
  0002e	89 41 04	 mov	 DWORD PTR [ecx+4], eax

; 830  : 			_Pbuf->_Hiwater = _Pair.first;

  00031	8b 4e 10	 mov	 ecx, DWORD PTR [esi+16]
  00034	89 41 08	 mov	 DWORD PTR [ecx+8], eax

; 831  : 			_Pbuf->_Size = _Pair.second;

  00037	8b 46 10	 mov	 eax, DWORD PTR [esi+16]
  0003a	8b 4d fc	 mov	 ecx, DWORD PTR __Pair$508048[ebp+4]
  0003d	89 48 0c	 mov	 DWORD PTR [eax+12], ecx
$LN1@Maxlen:

; 832  : 			}
; 833  : 		return (_Pbuf->_Size);

  00040	8b 46 10	 mov	 eax, DWORD PTR [esi+16]
  00043	8b 40 0c	 mov	 eax, DWORD PTR [eax+12]
  00046	5e		 pop	 esi

; 834  : 		}

  00047	c9		 leave
  00048	c3		 ret	 0
?_Maxlen@?$_Temp_iterator@ULink@BoxSpace@@@std@@QAEHXZ ENDP ; std::_Temp_iterator<BoxSpace::Link>::_Maxlen
_TEXT	ENDS
PUBLIC	??$_Insertion_sort@PAULink@BoxSpace@@UFn_WalkLess@@@std@@YAXPAULink@BoxSpace@@0UFn_WalkLess@@@Z ; std::_Insertion_sort<BoxSpace::Link *,Fn_WalkLess>
; Function compile flags: /Ogsp
; File c:\program files (x86)\microsoft visual studio 10.0\vc\include\algorithm
;	COMDAT ??$_Insertion_sort@PAULink@BoxSpace@@UFn_WalkLess@@@std@@YAXPAULink@BoxSpace@@0UFn_WalkLess@@@Z
_TEXT	SEGMENT
__First$ = 8						; size = 4
__Last$ = 12						; size = 4
__Pred$ = 16						; size = 1
??$_Insertion_sort@PAULink@BoxSpace@@UFn_WalkLess@@@std@@YAXPAULink@BoxSpace@@0UFn_WalkLess@@@Z PROC ; std::_Insertion_sort<BoxSpace::Link *,Fn_WalkLess>, COMDAT

; 3676 : 	{	// insertion sort [_First, _Last), using _Pred

  00000	55		 push	 ebp
  00001	8b ec		 mov	 ebp, esp

; 3677 : 	_Insertion_sort1(_First, _Last, _Pred, _Val_type(_First));

  00003	6a 00		 push	 0
  00005	ff 75 10	 push	 DWORD PTR __Pred$[ebp]
  00008	ff 75 0c	 push	 DWORD PTR __Last$[ebp]
  0000b	ff 75 08	 push	 DWORD PTR __First$[ebp]
  0000e	e8 00 00 00 00	 call	 ??$_Insertion_sort1@PAULink@BoxSpace@@UFn_WalkLess@@U12@@std@@YAXPAULink@BoxSpace@@0UFn_WalkLess@@0@Z ; std::_Insertion_sort1<BoxSpace::Link *,Fn_WalkLess,BoxSpace::Link>
  00013	83 c4 10	 add	 esp, 16			; 00000010H

; 3678 : 	}

  00016	5d		 pop	 ebp
  00017	c3		 ret	 0
??$_Insertion_sort@PAULink@BoxSpace@@UFn_WalkLess@@@std@@YAXPAULink@BoxSpace@@0UFn_WalkLess@@@Z ENDP ; std::_Insertion_sort<BoxSpace::Link *,Fn_WalkLess>
_TEXT	ENDS
PUBLIC	??$_Uninitialized_copy@V?$_Vector_const_iterator@V?$_Vector_val@ULink@BoxSpace@@V?$allocator@ULink@BoxSpace@@@std@@@std@@@std@@PAULink@BoxSpace@@V?$allocator@ULink@BoxSpace@@@2@@std@@YAPAULink@BoxSpace@@V?$_Vector_const_iterator@V?$_Vector_val@ULink@BoxSpace@@V?$allocator@ULink@BoxSpace@@@std@@@std@@@0@0PAU12@AAV?$allocator@ULink@BoxSpace@@@0@@Z ; std::_Uninitialized_copy<std::_Vector_const_iterator<std::_Vector_val<BoxSpace::Link,std::allocator<BoxSpace::Link> > >,BoxSpace::Link *,std::allocator<BoxSpace::Link> >
; Function compile flags: /Ogsp
; File c:\program files (x86)\microsoft visual studio 10.0\vc\include\memory
;	COMDAT ??$_Uninitialized_copy@V?$_Vector_const_iterator@V?$_Vector_val@ULink@BoxSpace@@V?$allocator@ULink@BoxSpace@@@std@@@std@@@std@@PAULink@BoxSpace@@V?$allocator@ULink@BoxSpace@@@2@@std@@YAPAULink@BoxSpace@@V?$_Vector_const_iterator@V?$_Vector_val@ULink@BoxSpace@@V?$allocator@ULink@BoxSpace@@@std@@@std@@@0@0PAU12@AAV?$allocator@ULink@BoxSpace@@@0@@Z
_TEXT	SEGMENT
__Cat$515725 = -4					; size = 1
__First$ = 8						; size = 4
__Last$ = 12						; size = 4
__Dest$ = 16						; size = 4
__Al$ = 20						; size = 4
??$_Uninitialized_copy@V?$_Vector_const_iterator@V?$_Vector_val@ULink@BoxSpace@@V?$allocator@ULink@BoxSpace@@@std@@@std@@@std@@PAULink@BoxSpace@@V?$allocator@ULink@BoxSpace@@@2@@std@@YAPAULink@BoxSpace@@V?$_Vector_const_iterator@V?$_Vector_val@ULink@BoxSpace@@V?$allocator@ULink@BoxSpace@@@std@@@std@@@0@0PAU12@AAV?$allocator@ULink@BoxSpace@@@0@@Z PROC ; std::_Uninitialized_copy<std::_Vector_const_iterator<std::_Vector_val<BoxSpace::Link,std::allocator<BoxSpace::Link> > >,BoxSpace::Link *,std::allocator<BoxSpace::Link> >, COMDAT

; 412  : 	{	// copy [_First, _Last) to raw _Dest, using _Al

  00000	55		 push	 ebp
  00001	8b ec		 mov	 ebp, esp
  00003	51		 push	 ecx

; 413  : 	return (_Uninit_copy(_First, _Last, _Dest, _Al,
; 414  : 		_Ptr_cat(_First, _Dest)));

  00004	ff 75 fc	 push	 DWORD PTR __Cat$515725[ebp]
  00007	ff 75 14	 push	 DWORD PTR __Al$[ebp]
  0000a	ff 75 10	 push	 DWORD PTR __Dest$[ebp]
  0000d	ff 75 0c	 push	 DWORD PTR __Last$[ebp]
  00010	ff 75 08	 push	 DWORD PTR __First$[ebp]
  00013	e8 00 00 00 00	 call	 ??$_Uninit_copy@V?$_Vector_const_iterator@V?$_Vector_val@ULink@BoxSpace@@V?$allocator@ULink@BoxSpace@@@std@@@std@@@std@@PAULink@BoxSpace@@V?$allocator@ULink@BoxSpace@@@2@@std@@YAPAULink@BoxSpace@@V?$_Vector_const_iterator@V?$_Vector_val@ULink@BoxSpace@@V?$allocator@ULink@BoxSpace@@@std@@@std@@@0@0PAU12@AAV?$allocator@ULink@BoxSpace@@@0@U_Nonscalar_ptr_iterator_tag@0@@Z ; std::_Uninit_copy<std::_Vector_const_iterator<std::_Vector_val<BoxSpace::Link,std::allocator<BoxSpace::Link> > >,BoxSpace::Link *,std::allocator<BoxSpace::Link> >
  00018	83 c4 14	 add	 esp, 20			; 00000014H

; 415  : 	}

  0001b	c9		 leave
  0001c	c3		 ret	 0
??$_Uninitialized_copy@V?$_Vector_const_iterator@V?$_Vector_val@ULink@BoxSpace@@V?$allocator@ULink@BoxSpace@@@std@@@std@@@std@@PAULink@BoxSpace@@V?$allocator@ULink@BoxSpace@@@2@@std@@YAPAULink@BoxSpace@@V?$_Vector_const_iterator@V?$_Vector_val@ULink@BoxSpace@@V?$allocator@ULink@BoxSpace@@@std@@@std@@@0@0PAU12@AAV?$allocator@ULink@BoxSpace@@@0@@Z ENDP ; std::_Uninitialized_copy<std::_Vector_const_iterator<std::_Vector_val<BoxSpace::Link,std::allocator<BoxSpace::Link> > >,BoxSpace::Link *,std::allocator<BoxSpace::Link> >
_TEXT	ENDS
PUBLIC	??$_Chunked_merge@PAULink@BoxSpace@@V?$_Temp_iterator@ULink@BoxSpace@@@std@@HUFn_WalkLess@@@std@@YAXPAULink@BoxSpace@@0V?$_Temp_iterator@ULink@BoxSpace@@@0@HHUFn_WalkLess@@@Z ; std::_Chunked_merge<BoxSpace::Link *,std::_Temp_iterator<BoxSpace::Link>,int,Fn_WalkLess>
; Function compile flags: /Ogsp
; File c:\program files (x86)\microsoft visual studio 10.0\vc\include\algorithm
;	COMDAT ??$_Chunked_merge@PAULink@BoxSpace@@V?$_Temp_iterator@ULink@BoxSpace@@@std@@HUFn_WalkLess@@@std@@YAXPAULink@BoxSpace@@0V?$_Temp_iterator@ULink@BoxSpace@@@0@HHUFn_WalkLess@@@Z
_TEXT	SEGMENT
$T515733 = -24						; size = 20
$T515731 = -24						; size = 20
$T515729 = -24						; size = 20
$T515728 = -4						; size = 4
__Mid2$508429 = -4					; size = 4
__First$ = 8						; size = 4
__Last$ = 12						; size = 4
__Dest$ = 16						; size = 20
tv290 = 36						; size = 4
__Chunk$ = 36						; size = 4
$T515732 = 40						; size = 4
$T515730 = 40						; size = 4
__Count$ = 40						; size = 4
__Pred$ = 44						; size = 1
??$_Chunked_merge@PAULink@BoxSpace@@V?$_Temp_iterator@ULink@BoxSpace@@@std@@HUFn_WalkLess@@@std@@YAXPAULink@BoxSpace@@0V?$_Temp_iterator@ULink@BoxSpace@@@0@HHUFn_WalkLess@@@Z PROC ; std::_Chunked_merge<BoxSpace::Link *,std::_Temp_iterator<BoxSpace::Link>,int,Fn_WalkLess>, COMDAT

; 3921 : 	{	// copy merging chunks, using _Pred

  00000	55		 push	 ebp
  00001	8b ec		 mov	 ebp, esp

; 3922 : 	for (_Diff _Chunk2 = _Chunk * 2; _Chunk2 <= _Count; _Count -= _Chunk2)

  00003	8b 55 08	 mov	 edx, DWORD PTR __First$[ebp]
  00006	83 ec 18	 sub	 esp, 24			; 00000018H
  00009	53		 push	 ebx
  0000a	56		 push	 esi
  0000b	57		 push	 edi
  0000c	8b 7d 24	 mov	 edi, DWORD PTR __Chunk$[ebp]
  0000f	8d 04 3f	 lea	 eax, DWORD PTR [edi+edi]
  00012	33 f6		 xor	 esi, esi
  00014	3b 45 28	 cmp	 eax, DWORD PTR __Count$[ebp]
  00017	7f 62		 jg	 SHORT $LN3@Chunked_me
  00019	8b df		 mov	 ebx, edi
  0001b	c1 e3 05	 shl	 ebx, 5

; 3936 : 		{	// copy merging whole and partial last chunk
; 3937 : 		_BidIt _Mid1 = _First;
; 3938 : 		_STD advance(_Mid1, _Chunk);

  0001e	89 5d 24	 mov	 DWORD PTR tv290[ebp], ebx
$LL5@Chunked_me:

; 3923 : 		{	// copy merging pairs of adjacent chunks
; 3924 : 		_BidIt _Mid1 = _First;
; 3925 : 		_STD advance(_Mid1, _Chunk);

  00021	ff 75 2c	 push	 DWORD PTR __Pred$[ebp]
  00024	8d 0c 13	 lea	 ecx, DWORD PTR [ebx+edx]

; 3926 : 		_BidIt _Mid2 = _Mid1;
; 3927 : 		_STD advance(_Mid2, _Chunk);
; 3928 : 
; 3929 : 		_Dest = _Merge(_First, _Mid1, _Mid1, _Mid2, _Dest, _Pred);

  00027	83 ec 14	 sub	 esp, 20			; 00000014H
  0002a	8b c4		 mov	 eax, esp
  0002c	89 30		 mov	 DWORD PTR [eax], esi
  0002e	89 70 04	 mov	 DWORD PTR [eax+4], esi
  00031	89 70 08	 mov	 DWORD PTR [eax+8], esi
  00034	89 70 0c	 mov	 DWORD PTR [eax+12], esi
  00037	8b 5d 20	 mov	 ebx, DWORD PTR __Dest$[ebp+16]
  0003a	89 58 10	 mov	 DWORD PTR [eax+16], ebx
  0003d	8b 5d 24	 mov	 ebx, DWORD PTR tv290[ebp]
  00040	89 65 fc	 mov	 DWORD PTR $T515728[ebp], esp
  00043	8d 04 0b	 lea	 eax, DWORD PTR [ebx+ecx]
  00046	50		 push	 eax
  00047	51		 push	 ecx
  00048	51		 push	 ecx
  00049	89 45 fc	 mov	 DWORD PTR __Mid2$508429[ebp], eax
  0004c	52		 push	 edx
  0004d	8d 45 e8	 lea	 eax, DWORD PTR $T515729[ebp]
  00050	50		 push	 eax
  00051	e8 00 00 00 00	 call	 ??$_Merge@PAULink@BoxSpace@@PAU12@V?$_Temp_iterator@ULink@BoxSpace@@@std@@UFn_WalkLess@@@std@@YA?AV?$_Temp_iterator@ULink@BoxSpace@@@0@PAULink@BoxSpace@@000V10@UFn_WalkLess@@@Z ; std::_Merge<BoxSpace::Link *,BoxSpace::Link *,std::_Temp_iterator<BoxSpace::Link>,Fn_WalkLess>
  00056	8b 40 10	 mov	 eax, DWORD PTR [eax+16]
  00059	83 c4 2c	 add	 esp, 44			; 0000002cH
  0005c	89 45 20	 mov	 DWORD PTR __Dest$[ebp+16], eax
  0005f	39 75 e8	 cmp	 DWORD PTR $T515729[ebp], esi
  00062	74 09		 je	 SHORT $LN41@Chunked_me
  00064	ff 75 e8	 push	 DWORD PTR $T515729[ebp]
  00067	e8 00 00 00 00	 call	 ??3@YAXPAX@Z		; operator delete
  0006c	59		 pop	 ecx
$LN41@Chunked_me:

; 3930 : 		_First = _Mid2;

  0006d	8b 55 fc	 mov	 edx, DWORD PTR __Mid2$508429[ebp]
  00070	8d 04 3f	 lea	 eax, DWORD PTR [edi+edi]
  00073	29 45 28	 sub	 DWORD PTR __Count$[ebp], eax
  00076	39 45 28	 cmp	 DWORD PTR __Count$[ebp], eax
  00079	7d a6		 jge	 SHORT $LL5@Chunked_me
$LN3@Chunked_me:

; 3931 : 		}
; 3932 : 
; 3933 : 	if (_Count <= _Chunk)

  0007b	39 7d 28	 cmp	 DWORD PTR __Count$[ebp], edi
  0007e	7f 2b		 jg	 SHORT $LN2@Chunked_me

; 3934 : 		_Move(_First, _Last, _Dest);	// copy partial last chunk

  00080	83 ec 14	 sub	 esp, 20			; 00000014H
  00083	8b c4		 mov	 eax, esp
  00085	89 65 28	 mov	 DWORD PTR $T515730[ebp], esp
  00088	ff 75 0c	 push	 DWORD PTR __Last$[ebp]
  0008b	89 30		 mov	 DWORD PTR [eax], esi
  0008d	89 70 04	 mov	 DWORD PTR [eax+4], esi
  00090	89 70 08	 mov	 DWORD PTR [eax+8], esi
  00093	89 70 0c	 mov	 DWORD PTR [eax+12], esi
  00096	8b 4d 20	 mov	 ecx, DWORD PTR __Dest$[ebp+16]
  00099	89 48 10	 mov	 DWORD PTR [eax+16], ecx
  0009c	52		 push	 edx
  0009d	8d 45 e8	 lea	 eax, DWORD PTR $T515731[ebp]
  000a0	50		 push	 eax
  000a1	e8 00 00 00 00	 call	 ??$_Move@PAULink@BoxSpace@@V?$_Temp_iterator@ULink@BoxSpace@@@std@@@std@@YA?AV?$_Temp_iterator@ULink@BoxSpace@@@0@PAULink@BoxSpace@@0V10@@Z ; std::_Move<BoxSpace::Link *,std::_Temp_iterator<BoxSpace::Link> >
  000a6	83 c4 20	 add	 esp, 32			; 00000020H

; 3935 : 	else

  000a9	eb 33		 jmp	 SHORT $LN98@Chunked_me
$LN2@Chunked_me:

; 3939 : 
; 3940 : 		_Merge(_First, _Mid1, _Mid1, _Last, _Dest, _Pred);

  000ab	ff 75 2c	 push	 DWORD PTR __Pred$[ebp]
  000ae	c1 e7 05	 shl	 edi, 5
  000b1	83 ec 14	 sub	 esp, 20			; 00000014H
  000b4	8b c4		 mov	 eax, esp
  000b6	89 65 28	 mov	 DWORD PTR $T515732[ebp], esp
  000b9	ff 75 0c	 push	 DWORD PTR __Last$[ebp]
  000bc	03 fa		 add	 edi, edx
  000be	89 30		 mov	 DWORD PTR [eax], esi
  000c0	89 70 04	 mov	 DWORD PTR [eax+4], esi
  000c3	89 70 08	 mov	 DWORD PTR [eax+8], esi
  000c6	89 70 0c	 mov	 DWORD PTR [eax+12], esi
  000c9	8b 4d 20	 mov	 ecx, DWORD PTR __Dest$[ebp+16]
  000cc	57		 push	 edi
  000cd	57		 push	 edi
  000ce	89 48 10	 mov	 DWORD PTR [eax+16], ecx
  000d1	52		 push	 edx
  000d2	8d 45 e8	 lea	 eax, DWORD PTR $T515733[ebp]
  000d5	50		 push	 eax
  000d6	e8 00 00 00 00	 call	 ??$_Merge@PAULink@BoxSpace@@PAU12@V?$_Temp_iterator@ULink@BoxSpace@@@std@@UFn_WalkLess@@@std@@YA?AV?$_Temp_iterator@ULink@BoxSpace@@@0@PAULink@BoxSpace@@000V10@UFn_WalkLess@@@Z ; std::_Merge<BoxSpace::Link *,BoxSpace::Link *,std::_Temp_iterator<BoxSpace::Link>,Fn_WalkLess>
  000db	83 c4 2c	 add	 esp, 44			; 0000002cH
$LN98@Chunked_me:
  000de	39 75 e8	 cmp	 DWORD PTR $T515733[ebp], esi
  000e1	74 09		 je	 SHORT $LN75@Chunked_me
  000e3	ff 75 e8	 push	 DWORD PTR $T515733[ebp]
  000e6	e8 00 00 00 00	 call	 ??3@YAXPAX@Z		; operator delete
  000eb	59		 pop	 ecx
$LN75@Chunked_me:

; 3941 : 		}
; 3942 : 	}

  000ec	39 75 10	 cmp	 DWORD PTR __Dest$[ebp], esi
  000ef	74 09		 je	 SHORT $LN85@Chunked_me
  000f1	ff 75 10	 push	 DWORD PTR __Dest$[ebp]
  000f4	e8 00 00 00 00	 call	 ??3@YAXPAX@Z		; operator delete
  000f9	59		 pop	 ecx
$LN85@Chunked_me:
  000fa	5f		 pop	 edi
  000fb	5e		 pop	 esi
  000fc	5b		 pop	 ebx
  000fd	c9		 leave
  000fe	c3		 ret	 0
??$_Chunked_merge@PAULink@BoxSpace@@V?$_Temp_iterator@ULink@BoxSpace@@@std@@HUFn_WalkLess@@@std@@YAXPAULink@BoxSpace@@0V?$_Temp_iterator@ULink@BoxSpace@@@0@HHUFn_WalkLess@@@Z ENDP ; std::_Chunked_merge<BoxSpace::Link *,std::_Temp_iterator<BoxSpace::Link>,int,Fn_WalkLess>
_TEXT	ENDS
PUBLIC	??$_Chunked_merge@PAULink@BoxSpace@@PAU12@HUFn_WalkLess@@@std@@YAXPAULink@BoxSpace@@00HHUFn_WalkLess@@@Z ; std::_Chunked_merge<BoxSpace::Link *,BoxSpace::Link *,int,Fn_WalkLess>
; Function compile flags: /Ogsp
;	COMDAT ??$_Chunked_merge@PAULink@BoxSpace@@PAU12@HUFn_WalkLess@@@std@@YAXPAULink@BoxSpace@@00HHUFn_WalkLess@@@Z
_TEXT	SEGMENT
__First$ = 8						; size = 4
__Last$ = 12						; size = 4
__Dest$ = 16						; size = 4
__Chunk$ = 20						; size = 4
__Cat$515957 = 24					; size = 1
__Count$ = 24						; size = 4
__Pred$ = 28						; size = 1
??$_Chunked_merge@PAULink@BoxSpace@@PAU12@HUFn_WalkLess@@@std@@YAXPAULink@BoxSpace@@00HHUFn_WalkLess@@@Z PROC ; std::_Chunked_merge<BoxSpace::Link *,BoxSpace::Link *,int,Fn_WalkLess>, COMDAT

; 3921 : 	{	// copy merging chunks, using _Pred

  00000	55		 push	 ebp
  00001	8b ec		 mov	 ebp, esp

; 3922 : 	for (_Diff _Chunk2 = _Chunk * 2; _Chunk2 <= _Count; _Count -= _Chunk2)

  00003	8b 4d 08	 mov	 ecx, DWORD PTR __First$[ebp]
  00006	53		 push	 ebx
  00007	8b 5d 14	 mov	 ebx, DWORD PTR __Chunk$[ebp]
  0000a	8d 04 1b	 lea	 eax, DWORD PTR [ebx+ebx]
  0000d	3b 45 18	 cmp	 eax, DWORD PTR __Count$[ebp]
  00010	7f 31		 jg	 SHORT $LN3@Chunked_me@2
  00012	56		 push	 esi
  00013	8b f3		 mov	 esi, ebx
  00015	57		 push	 edi
  00016	c1 e6 05	 shl	 esi, 5
$LL5@Chunked_me@2:

; 3923 : 		{	// copy merging pairs of adjacent chunks
; 3924 : 		_BidIt _Mid1 = _First;
; 3925 : 		_STD advance(_Mid1, _Chunk);
; 3926 : 		_BidIt _Mid2 = _Mid1;
; 3927 : 		_STD advance(_Mid2, _Chunk);
; 3928 : 
; 3929 : 		_Dest = _Merge(_First, _Mid1, _Mid1, _Mid2, _Dest, _Pred);

  00019	ff 75 1c	 push	 DWORD PTR __Pred$[ebp]
  0001c	8d 04 0e	 lea	 eax, DWORD PTR [esi+ecx]
  0001f	ff 75 10	 push	 DWORD PTR __Dest$[ebp]
  00022	8d 3c 06	 lea	 edi, DWORD PTR [esi+eax]
  00025	57		 push	 edi
  00026	50		 push	 eax
  00027	50		 push	 eax
  00028	51		 push	 ecx
  00029	e8 00 00 00 00	 call	 ??$_Merge@PAULink@BoxSpace@@PAU12@PAU12@UFn_WalkLess@@@std@@YAPAULink@BoxSpace@@PAU12@0000UFn_WalkLess@@@Z ; std::_Merge<BoxSpace::Link *,BoxSpace::Link *,BoxSpace::Link *,Fn_WalkLess>
  0002e	89 45 10	 mov	 DWORD PTR __Dest$[ebp], eax
  00031	8d 04 1b	 lea	 eax, DWORD PTR [ebx+ebx]
  00034	29 45 18	 sub	 DWORD PTR __Count$[ebp], eax
  00037	83 c4 18	 add	 esp, 24			; 00000018H

; 3930 : 		_First = _Mid2;

  0003a	8b cf		 mov	 ecx, edi
  0003c	39 45 18	 cmp	 DWORD PTR __Count$[ebp], eax
  0003f	7d d8		 jge	 SHORT $LL5@Chunked_me@2
  00041	5f		 pop	 edi
  00042	5e		 pop	 esi
$LN3@Chunked_me@2:

; 3931 : 		}
; 3932 : 
; 3933 : 	if (_Count <= _Chunk)

  00043	39 5d 18	 cmp	 DWORD PTR __Count$[ebp], ebx
  00046	7f 14		 jg	 SHORT $LN2@Chunked_me@2

; 3934 : 		_Move(_First, _Last, _Dest);	// copy partial last chunk

  00048	ff 75 18	 push	 DWORD PTR __Cat$515957[ebp]
  0004b	ff 75 10	 push	 DWORD PTR __Dest$[ebp]
  0004e	ff 75 0c	 push	 DWORD PTR __Last$[ebp]
  00051	51		 push	 ecx
  00052	e8 00 00 00 00	 call	 ??$_Move@PAULink@BoxSpace@@PAU12@@std@@YAPAULink@BoxSpace@@PAU12@00U_Nonscalar_ptr_iterator_tag@0@@Z ; std::_Move<BoxSpace::Link *,BoxSpace::Link *>
  00057	83 c4 10	 add	 esp, 16			; 00000010H

; 3935 : 	else

  0005a	eb 19		 jmp	 SHORT $LN1@Chunked_me@2
$LN2@Chunked_me@2:

; 3936 : 		{	// copy merging whole and partial last chunk
; 3937 : 		_BidIt _Mid1 = _First;
; 3938 : 		_STD advance(_Mid1, _Chunk);
; 3939 : 
; 3940 : 		_Merge(_First, _Mid1, _Mid1, _Last, _Dest, _Pred);

  0005c	ff 75 1c	 push	 DWORD PTR __Pred$[ebp]
  0005f	c1 e3 05	 shl	 ebx, 5
  00062	ff 75 10	 push	 DWORD PTR __Dest$[ebp]
  00065	03 d9		 add	 ebx, ecx
  00067	ff 75 0c	 push	 DWORD PTR __Last$[ebp]
  0006a	53		 push	 ebx
  0006b	53		 push	 ebx
  0006c	51		 push	 ecx
  0006d	e8 00 00 00 00	 call	 ??$_Merge@PAULink@BoxSpace@@PAU12@PAU12@UFn_WalkLess@@@std@@YAPAULink@BoxSpace@@PAU12@0000UFn_WalkLess@@@Z ; std::_Merge<BoxSpace::Link *,BoxSpace::Link *,BoxSpace::Link *,Fn_WalkLess>
  00072	83 c4 18	 add	 esp, 24			; 00000018H
$LN1@Chunked_me@2:
  00075	5b		 pop	 ebx

; 3941 : 		}
; 3942 : 	}

  00076	5d		 pop	 ebp
  00077	c3		 ret	 0
??$_Chunked_merge@PAULink@BoxSpace@@PAU12@HUFn_WalkLess@@@std@@YAXPAULink@BoxSpace@@00HHUFn_WalkLess@@@Z ENDP ; std::_Chunked_merge<BoxSpace::Link *,BoxSpace::Link *,int,Fn_WalkLess>
_TEXT	ENDS
PUBLIC	??$_Buffered_rotate@PAULink@BoxSpace@@HU12@@std@@YAPAULink@BoxSpace@@PAU12@00HHAAV?$_Temp_iterator@ULink@BoxSpace@@@0@@Z ; std::_Buffered_rotate<BoxSpace::Link *,int,BoxSpace::Link>
; Function compile flags: /Ogsp
;	COMDAT ??$_Buffered_rotate@PAULink@BoxSpace@@HU12@@std@@YAPAULink@BoxSpace@@PAU12@00HHAAV?$_Temp_iterator@ULink@BoxSpace@@@0@@Z
_TEXT	SEGMENT
$T515984 = -20						; size = 20
$T515982 = -20						; size = 20
__First$ = 8						; size = 4
__Mid$ = 12						; size = 4
__Last$ = 16						; size = 4
__Cat$516115 = 20					; size = 1
__Cat$516094 = 20					; size = 1
__Cat$516051 = 20					; size = 1
__Cat$516030 = 20					; size = 1
$T515983 = 20						; size = 4
$T515981 = 20						; size = 4
__Count1$ = 20						; size = 4
__Count2$ = 24						; size = 4
__Tempbuf$ = 28						; size = 4
??$_Buffered_rotate@PAULink@BoxSpace@@HU12@@std@@YAPAULink@BoxSpace@@PAU12@00HHAAV?$_Temp_iterator@ULink@BoxSpace@@@0@@Z PROC ; std::_Buffered_rotate<BoxSpace::Link *,int,BoxSpace::Link>, COMDAT

; 3257 : 	{	// rotate [_First, _Last) using temp buffer

  00000	55		 push	 ebp
  00001	8b ec		 mov	 ebp, esp
  00003	83 ec 14	 sub	 esp, 20			; 00000014H
  00006	56		 push	 esi

; 3258 : 	if (_Count1 <= _Count2 && _Count1 <= _Tempbuf._Maxlen())

  00007	8b 75 1c	 mov	 esi, DWORD PTR __Tempbuf$[ebp]
  0000a	57		 push	 edi
  0000b	8b 7d 18	 mov	 edi, DWORD PTR __Count2$[ebp]
  0000e	39 7d 14	 cmp	 DWORD PTR __Count1$[ebp], edi
  00011	7f 7d		 jg	 SHORT $LN4@Buffered_r
  00013	8b ce		 mov	 ecx, esi
  00015	e8 00 00 00 00	 call	 ?_Maxlen@?$_Temp_iterator@ULink@BoxSpace@@@std@@QAEHXZ ; std::_Temp_iterator<BoxSpace::Link>::_Maxlen
  0001a	39 45 14	 cmp	 DWORD PTR __Count1$[ebp], eax
  0001d	7f 71		 jg	 SHORT $LN4@Buffered_r

; 3259 : 		{	// buffer left partition, then copy parts
; 3260 : 		_Move(_First, _Mid, _Tempbuf._Init());

  0001f	8b 46 10	 mov	 eax, DWORD PTR [esi+16]
  00022	8b 08		 mov	 ecx, DWORD PTR [eax]
  00024	89 48 04	 mov	 DWORD PTR [eax+4], ecx
  00027	83 ec 14	 sub	 esp, 20			; 00000014H
  0002a	8b c4		 mov	 eax, esp
  0002c	33 ff		 xor	 edi, edi
  0002e	89 65 14	 mov	 DWORD PTR $T515981[ebp], esp
  00031	ff 75 0c	 push	 DWORD PTR __Mid$[ebp]
  00034	89 38		 mov	 DWORD PTR [eax], edi
  00036	ff 75 08	 push	 DWORD PTR __First$[ebp]
  00039	89 78 04	 mov	 DWORD PTR [eax+4], edi
  0003c	89 78 08	 mov	 DWORD PTR [eax+8], edi
  0003f	89 78 0c	 mov	 DWORD PTR [eax+12], edi
  00042	8b 4e 10	 mov	 ecx, DWORD PTR [esi+16]
  00045	89 48 10	 mov	 DWORD PTR [eax+16], ecx
  00048	8d 45 ec	 lea	 eax, DWORD PTR $T515982[ebp]
  0004b	50		 push	 eax
  0004c	e8 00 00 00 00	 call	 ??$_Move@PAULink@BoxSpace@@V?$_Temp_iterator@ULink@BoxSpace@@@std@@@std@@YA?AV?$_Temp_iterator@ULink@BoxSpace@@@0@PAULink@BoxSpace@@0V10@@Z ; std::_Move<BoxSpace::Link *,std::_Temp_iterator<BoxSpace::Link> >
  00051	83 c4 20	 add	 esp, 32			; 00000020H
  00054	39 7d ec	 cmp	 DWORD PTR $T515982[ebp], edi
  00057	74 09		 je	 SHORT $LN25@Buffered_r
  00059	ff 75 ec	 push	 DWORD PTR $T515982[ebp]
  0005c	e8 00 00 00 00	 call	 ??3@YAXPAX@Z		; operator delete
  00061	59		 pop	 ecx
$LN25@Buffered_r:

; 3261 : 		_Move(_Mid, _Last, _First);

  00062	ff 75 14	 push	 DWORD PTR __Cat$516030[ebp]
  00065	ff 75 08	 push	 DWORD PTR __First$[ebp]
  00068	ff 75 10	 push	 DWORD PTR __Last$[ebp]
  0006b	ff 75 0c	 push	 DWORD PTR __Mid$[ebp]
  0006e	e8 00 00 00 00	 call	 ??$_Move@PAULink@BoxSpace@@PAU12@@std@@YAPAULink@BoxSpace@@PAU12@00U_Nonscalar_ptr_iterator_tag@0@@Z ; std::_Move<BoxSpace::Link *,BoxSpace::Link *>

; 3262 : 		return (_Move_backward(_Tempbuf._First(), _Tempbuf._Last(),
; 3263 : 			_Last));

  00073	ff 75 14	 push	 DWORD PTR __Cat$516051[ebp]
  00076	8b 76 10	 mov	 esi, DWORD PTR [esi+16]
  00079	8b 46 04	 mov	 eax, DWORD PTR [esi+4]
  0007c	ff 75 10	 push	 DWORD PTR __Last$[ebp]
  0007f	8b 36		 mov	 esi, DWORD PTR [esi]
  00081	50		 push	 eax
  00082	56		 push	 esi
  00083	e8 00 00 00 00	 call	 ??$_Move_backward@PAULink@BoxSpace@@PAU12@@std@@YAPAULink@BoxSpace@@PAU12@00U_Nonscalar_ptr_iterator_tag@0@@Z ; std::_Move_backward<BoxSpace::Link *,BoxSpace::Link *>
$LN77@Buffered_r:
  00088	83 c4 20	 add	 esp, 32			; 00000020H
  0008b	e9 8f 00 00 00	 jmp	 $LN1@Buffered_r
$LN4@Buffered_r:

; 3264 : 		}
; 3265 : 	else if (_Count2 <= _Tempbuf._Maxlen())

  00090	8b ce		 mov	 ecx, esi
  00092	e8 00 00 00 00	 call	 ?_Maxlen@?$_Temp_iterator@ULink@BoxSpace@@@std@@QAEHXZ ; std::_Temp_iterator<BoxSpace::Link>::_Maxlen
  00097	3b f8		 cmp	 edi, eax
  00099	7f 6b		 jg	 SHORT $LN2@Buffered_r

; 3266 : 		{	// buffer right partition, then copy parts
; 3267 : 		_Move(_Mid, _Last, _Tempbuf._Init());

  0009b	8b 46 10	 mov	 eax, DWORD PTR [esi+16]
  0009e	8b 08		 mov	 ecx, DWORD PTR [eax]
  000a0	89 48 04	 mov	 DWORD PTR [eax+4], ecx
  000a3	83 ec 14	 sub	 esp, 20			; 00000014H
  000a6	8b c4		 mov	 eax, esp
  000a8	33 ff		 xor	 edi, edi
  000aa	89 65 14	 mov	 DWORD PTR $T515983[ebp], esp
  000ad	ff 75 10	 push	 DWORD PTR __Last$[ebp]
  000b0	89 38		 mov	 DWORD PTR [eax], edi
  000b2	ff 75 0c	 push	 DWORD PTR __Mid$[ebp]
  000b5	89 78 04	 mov	 DWORD PTR [eax+4], edi
  000b8	89 78 08	 mov	 DWORD PTR [eax+8], edi
  000bb	89 78 0c	 mov	 DWORD PTR [eax+12], edi
  000be	8b 4e 10	 mov	 ecx, DWORD PTR [esi+16]
  000c1	89 48 10	 mov	 DWORD PTR [eax+16], ecx
  000c4	8d 45 ec	 lea	 eax, DWORD PTR $T515984[ebp]
  000c7	50		 push	 eax
  000c8	e8 00 00 00 00	 call	 ??$_Move@PAULink@BoxSpace@@V?$_Temp_iterator@ULink@BoxSpace@@@std@@@std@@YA?AV?$_Temp_iterator@ULink@BoxSpace@@@0@PAULink@BoxSpace@@0V10@@Z ; std::_Move<BoxSpace::Link *,std::_Temp_iterator<BoxSpace::Link> >
  000cd	83 c4 20	 add	 esp, 32			; 00000020H
  000d0	39 7d ec	 cmp	 DWORD PTR $T515984[ebp], edi
  000d3	74 09		 je	 SHORT $LN53@Buffered_r
  000d5	ff 75 ec	 push	 DWORD PTR $T515984[ebp]
  000d8	e8 00 00 00 00	 call	 ??3@YAXPAX@Z		; operator delete
  000dd	59		 pop	 ecx
$LN53@Buffered_r:

; 3268 : 		_Move_backward(_First, _Mid, _Last);

  000de	ff 75 14	 push	 DWORD PTR __Cat$516094[ebp]
  000e1	ff 75 10	 push	 DWORD PTR __Last$[ebp]
  000e4	ff 75 0c	 push	 DWORD PTR __Mid$[ebp]
  000e7	ff 75 08	 push	 DWORD PTR __First$[ebp]
  000ea	e8 00 00 00 00	 call	 ??$_Move_backward@PAULink@BoxSpace@@PAU12@@std@@YAPAULink@BoxSpace@@PAU12@00U_Nonscalar_ptr_iterator_tag@0@@Z ; std::_Move_backward<BoxSpace::Link *,BoxSpace::Link *>

; 3269 : 		return (_Move(_Tempbuf._First(), _Tempbuf._Last(), _First));

  000ef	ff 75 14	 push	 DWORD PTR __Cat$516115[ebp]
  000f2	8b 76 10	 mov	 esi, DWORD PTR [esi+16]
  000f5	8b 46 04	 mov	 eax, DWORD PTR [esi+4]
  000f8	ff 75 08	 push	 DWORD PTR __First$[ebp]
  000fb	8b 36		 mov	 esi, DWORD PTR [esi]
  000fd	50		 push	 eax
  000fe	56		 push	 esi
  000ff	e8 00 00 00 00	 call	 ??$_Move@PAULink@BoxSpace@@PAU12@@std@@YAPAULink@BoxSpace@@PAU12@00U_Nonscalar_ptr_iterator_tag@0@@Z ; std::_Move<BoxSpace::Link *,BoxSpace::Link *>
  00104	eb 82		 jmp	 SHORT $LN77@Buffered_r
$LN2@Buffered_r:

; 3270 : 		}
; 3271 : 	else
; 3272 : 		{	// buffer too small, rotate in place
; 3273 : 		_STD rotate(_First, _Mid, _Last);

  00106	ff 75 10	 push	 DWORD PTR __Last$[ebp]
  00109	ff 75 0c	 push	 DWORD PTR __Mid$[ebp]
  0010c	ff 75 08	 push	 DWORD PTR __First$[ebp]
  0010f	e8 00 00 00 00	 call	 ??$rotate@PAULink@BoxSpace@@@std@@YAPAULink@BoxSpace@@PAU12@00@Z ; std::rotate<BoxSpace::Link *>

; 3274 : 		_STD advance(_First, _Count2);

  00114	8b c7		 mov	 eax, edi
  00116	c1 e0 05	 shl	 eax, 5
  00119	83 c4 0c	 add	 esp, 12			; 0000000cH
  0011c	03 45 08	 add	 eax, DWORD PTR __First$[ebp]
$LN1@Buffered_r:

; 3275 : 		return (_First);
; 3276 : 		}
; 3277 : 	}

  0011f	5f		 pop	 edi
  00120	5e		 pop	 esi
  00121	c9		 leave
  00122	c3		 ret	 0
??$_Buffered_rotate@PAULink@BoxSpace@@HU12@@std@@YAPAULink@BoxSpace@@PAU12@00HHAAV?$_Temp_iterator@ULink@BoxSpace@@@0@@Z ENDP ; std::_Buffered_rotate<BoxSpace::Link *,int,BoxSpace::Link>
_TEXT	ENDS
PUBLIC	?assign@?$basic_string@DU?$char_traits@D@std@@V?$allocator@D@2@@std@@QAEAAV12@ABV12@II@Z ; std::basic_string<char,std::char_traits<char>,std::allocator<char> >::assign
; Function compile flags: /Ogsp
; File c:\program files (x86)\microsoft visual studio 10.0\vc\include\xstring
;	COMDAT ?assign@?$basic_string@DU?$char_traits@D@std@@V?$allocator@D@2@@std@@QAEAAV12@ABV12@II@Z
_TEXT	SEGMENT
__Right$ = 8						; size = 4
__Roff$ = 12						; size = 4
__Count$ = 16						; size = 4
?assign@?$basic_string@DU?$char_traits@D@std@@V?$allocator@D@2@@std@@QAEAAV12@ABV12@II@Z PROC ; std::basic_string<char,std::char_traits<char>,std::allocator<char> >::assign, COMDAT
; _this$ = ecx

; 893  : 		{	// assign _Right [_Roff, _Roff + _Count)

  00000	55		 push	 ebp
  00001	8b ec		 mov	 ebp, esp
  00003	53		 push	 ebx

; 894  : 		if (_Right.size() < _Roff)

  00004	8b 5d 08	 mov	 ebx, DWORD PTR __Right$[ebp]
  00007	8b 43 10	 mov	 eax, DWORD PTR [ebx+16]
  0000a	56		 push	 esi
  0000b	8b f1		 mov	 esi, ecx
  0000d	8b 4d 0c	 mov	 ecx, DWORD PTR __Roff$[ebp]
  00010	57		 push	 edi
  00011	3b c1		 cmp	 eax, ecx
  00013	73 0b		 jae	 SHORT $LN5@assign

; 895  : 			_Xran();	// _Roff off end

  00015	68 00 00 00 00	 push	 OFFSET ??_C@_0BI@CFPLBAOH@invalid?5string?5position?$AA@
  0001a	ff 15 00 00 00
	00		 call	 DWORD PTR __imp_?_Xout_of_range@std@@YAXPBD@Z
$LN34@assign:
$LN5@assign:

; 896  : 		size_type _Num = _Right.size() - _Roff;

  00020	2b c1		 sub	 eax, ecx
  00022	8b f8		 mov	 edi, eax

; 897  : 		if (_Count < _Num)

  00024	39 7d 10	 cmp	 DWORD PTR __Count$[ebp], edi

; 898  : 			_Num = _Count;	// trim _Num to size

  00027	0f 42 7d 10	 cmovb	 edi, DWORD PTR __Count$[ebp]

; 899  : 
; 900  : 		if (this == &_Right)

  0002b	3b f3		 cmp	 esi, ebx
  0002d	75 1a		 jne	 SHORT $LN3@assign

; 901  : 			erase((size_type)(_Roff + _Num)), erase(0, _Roff);	// substring

  0002f	03 f9		 add	 edi, ecx
  00031	6a ff		 push	 -1
  00033	57		 push	 edi
  00034	8b ce		 mov	 ecx, esi
  00036	e8 00 00 00 00	 call	 ?erase@?$basic_string@DU?$char_traits@D@std@@V?$allocator@D@2@@std@@QAEAAV12@II@Z ; std::basic_string<char,std::char_traits<char>,std::allocator<char> >::erase
  0003b	ff 75 0c	 push	 DWORD PTR __Roff$[ebp]
  0003e	8b ce		 mov	 ecx, esi
  00040	6a 00		 push	 0
  00042	e8 00 00 00 00	 call	 ?erase@?$basic_string@DU?$char_traits@D@std@@V?$allocator@D@2@@std@@QAEAAV12@II@Z ; std::basic_string<char,std::char_traits<char>,std::allocator<char> >::erase
  00047	eb 47		 jmp	 SHORT $LN31@assign
$LN3@assign:

; 902  : 		else if (_Grow(_Num))

  00049	6a 00		 push	 0
  0004b	57		 push	 edi
  0004c	8b ce		 mov	 ecx, esi
  0004e	e8 00 00 00 00	 call	 ?_Grow@?$basic_string@DU?$char_traits@D@std@@V?$allocator@D@2@@std@@QAE_NI_N@Z ; std::basic_string<char,std::char_traits<char>,std::allocator<char> >::_Grow
  00053	84 c0		 test	 al, al
  00055	74 39		 je	 SHORT $LN31@assign

; 903  : 			{	// make room and assign new stuff
; 904  : 			_Traits::copy(_Myptr(), _Right._Myptr() + _Roff, _Num);

  00057	83 7b 14 10	 cmp	 DWORD PTR [ebx+20], 16	; 00000010H
  0005b	72 04		 jb	 SHORT $LN17@assign
  0005d	8b 03		 mov	 eax, DWORD PTR [ebx]
  0005f	eb 02		 jmp	 SHORT $LN18@assign
$LN17@assign:
  00061	8b c3		 mov	 eax, ebx
$LN18@assign:
  00063	83 7e 14 10	 cmp	 DWORD PTR [esi+20], 16	; 00000010H
  00067	72 04		 jb	 SHORT $LN21@assign
  00069	8b 0e		 mov	 ecx, DWORD PTR [esi]
  0006b	eb 02		 jmp	 SHORT $LN22@assign
$LN21@assign:
  0006d	8b ce		 mov	 ecx, esi
$LN22@assign:
  0006f	03 45 0c	 add	 eax, DWORD PTR __Roff$[ebp]
  00072	57		 push	 edi
  00073	50		 push	 eax
  00074	51		 push	 ecx
  00075	e8 00 00 00 00	 call	 _memcpy
  0007a	83 c4 0c	 add	 esp, 12			; 0000000cH

; 905  : 			_Eos(_Num);

  0007d	83 7e 14 10	 cmp	 DWORD PTR [esi+20], 16	; 00000010H
  00081	89 7e 10	 mov	 DWORD PTR [esi+16], edi
  00084	72 04		 jb	 SHORT $LN29@assign
  00086	8b 06		 mov	 eax, DWORD PTR [esi]
  00088	eb 02		 jmp	 SHORT $LN30@assign
$LN29@assign:
  0008a	8b c6		 mov	 eax, esi
$LN30@assign:
  0008c	c6 04 38 00	 mov	 BYTE PTR [eax+edi], 0
$LN31@assign:

; 906  : 			}
; 907  : 		return (*this);

  00090	5f		 pop	 edi
  00091	8b c6		 mov	 eax, esi
  00093	5e		 pop	 esi
  00094	5b		 pop	 ebx

; 908  : 		}

  00095	5d		 pop	 ebp
  00096	c2 0c 00	 ret	 12			; 0000000cH
$LN33@assign:
?assign@?$basic_string@DU?$char_traits@D@std@@V?$allocator@D@2@@std@@QAEAAV12@ABV12@II@Z ENDP ; std::basic_string<char,std::char_traits<char>,std::allocator<char> >::assign
_TEXT	ENDS
PUBLIC	?assign@?$basic_string@DU?$char_traits@D@std@@V?$allocator@D@2@@std@@QAEAAV12@PBDI@Z ; std::basic_string<char,std::char_traits<char>,std::allocator<char> >::assign
; Function compile flags: /Ogsp
;	COMDAT ?assign@?$basic_string@DU?$char_traits@D@std@@V?$allocator@D@2@@std@@QAEAAV12@PBDI@Z
_TEXT	SEGMENT
__Ptr$ = 8						; size = 4
__Count$ = 12						; size = 4
?assign@?$basic_string@DU?$char_traits@D@std@@V?$allocator@D@2@@std@@QAEAAV12@PBDI@Z PROC ; std::basic_string<char,std::char_traits<char>,std::allocator<char> >::assign, COMDAT
; _this$ = ecx

; 911  : 		{	// assign [_Ptr, _Ptr + _Count)

  00000	55		 push	 ebp
  00001	8b ec		 mov	 ebp, esp
  00003	53		 push	 ebx

; 912  :  #if _ITERATOR_DEBUG_LEVEL == 2
; 913  : 		if (_Count != 0)
; 914  : 			_DEBUG_POINTER(_Ptr);
; 915  :  #endif /* _ITERATOR_DEBUG_LEVEL == 2 */
; 916  : 
; 917  : 		if (_Inside(_Ptr))

  00004	8b 5d 08	 mov	 ebx, DWORD PTR __Ptr$[ebp]
  00007	56		 push	 esi
  00008	53		 push	 ebx
  00009	8b f1		 mov	 esi, ecx
  0000b	e8 00 00 00 00	 call	 ?_Inside@?$basic_string@DU?$char_traits@D@std@@V?$allocator@D@2@@std@@QAE_NPBD@Z ; std::basic_string<char,std::char_traits<char>,std::allocator<char> >::_Inside
  00010	84 c0		 test	 al, al
  00012	74 1c		 je	 SHORT $LN2@assign@2

; 918  : 			return (assign(*this, _Ptr - _Myptr(), _Count));	// substring

  00014	83 7e 14 10	 cmp	 DWORD PTR [esi+20], 16	; 00000010H
  00018	72 04		 jb	 SHORT $LN7@assign@2
  0001a	8b 06		 mov	 eax, DWORD PTR [esi]
  0001c	eb 02		 jmp	 SHORT $LN8@assign@2
$LN7@assign@2:
  0001e	8b c6		 mov	 eax, esi
$LN8@assign@2:
  00020	ff 75 0c	 push	 DWORD PTR __Count$[ebp]
  00023	2b d8		 sub	 ebx, eax
  00025	53		 push	 ebx
  00026	56		 push	 esi
  00027	8b ce		 mov	 ecx, esi
  00029	e8 00 00 00 00	 call	 ?assign@?$basic_string@DU?$char_traits@D@std@@V?$allocator@D@2@@std@@QAEAAV12@ABV12@II@Z ; std::basic_string<char,std::char_traits<char>,std::allocator<char> >::assign
  0002e	eb 3f		 jmp	 SHORT $LN3@assign@2
$LN2@assign@2:
  00030	57		 push	 edi

; 919  : 
; 920  : 		if (_Grow(_Count))

  00031	8b 7d 0c	 mov	 edi, DWORD PTR __Count$[ebp]
  00034	6a 00		 push	 0
  00036	57		 push	 edi
  00037	8b ce		 mov	 ecx, esi
  00039	e8 00 00 00 00	 call	 ?_Grow@?$basic_string@DU?$char_traits@D@std@@V?$allocator@D@2@@std@@QAE_NI_N@Z ; std::basic_string<char,std::char_traits<char>,std::allocator<char> >::_Grow
  0003e	84 c0		 test	 al, al
  00040	74 2a		 je	 SHORT $LN21@assign@2

; 921  : 			{	// make room and assign new stuff
; 922  : 			_Traits::copy(_Myptr(), _Ptr, _Count);

  00042	83 7e 14 10	 cmp	 DWORD PTR [esi+20], 16	; 00000010H
  00046	72 04		 jb	 SHORT $LN11@assign@2
  00048	8b 06		 mov	 eax, DWORD PTR [esi]
  0004a	eb 02		 jmp	 SHORT $LN12@assign@2
$LN11@assign@2:
  0004c	8b c6		 mov	 eax, esi
$LN12@assign@2:
  0004e	57		 push	 edi
  0004f	53		 push	 ebx
  00050	50		 push	 eax
  00051	e8 00 00 00 00	 call	 _memcpy
  00056	83 c4 0c	 add	 esp, 12			; 0000000cH

; 923  : 			_Eos(_Count);

  00059	83 7e 14 10	 cmp	 DWORD PTR [esi+20], 16	; 00000010H
  0005d	89 7e 10	 mov	 DWORD PTR [esi+16], edi
  00060	72 04		 jb	 SHORT $LN19@assign@2
  00062	8b 06		 mov	 eax, DWORD PTR [esi]
  00064	eb 02		 jmp	 SHORT $LN20@assign@2
$LN19@assign@2:
  00066	8b c6		 mov	 eax, esi
$LN20@assign@2:
  00068	c6 04 38 00	 mov	 BYTE PTR [eax+edi], 0
$LN21@assign@2:

; 924  : 			}
; 925  : 		return (*this);

  0006c	8b c6		 mov	 eax, esi
  0006e	5f		 pop	 edi
$LN3@assign@2:
  0006f	5e		 pop	 esi
  00070	5b		 pop	 ebx

; 926  : 		}

  00071	5d		 pop	 ebp
  00072	c2 08 00	 ret	 8
?assign@?$basic_string@DU?$char_traits@D@std@@V?$allocator@D@2@@std@@QAEAAV12@PBDI@Z ENDP ; std::basic_string<char,std::char_traits<char>,std::allocator<char> >::assign
_TEXT	ENDS
PUBLIC	?clear@?$vector@PBQAUBox@BoxSpace@@V?$allocator@PBQAUBox@BoxSpace@@@std@@@std@@QAEXXZ ; std::vector<BoxSpace::Box * const *,std::allocator<BoxSpace::Box * const *> >::clear
; Function compile flags: /Ogsp
; File c:\program files (x86)\microsoft visual studio 10.0\vc\include\vector
;	COMDAT ?clear@?$vector@PBQAUBox@BoxSpace@@V?$allocator@PBQAUBox@BoxSpace@@@std@@@std@@QAEXXZ
_TEXT	SEGMENT
$T516242 = -4						; size = 4
?clear@?$vector@PBQAUBox@BoxSpace@@V?$allocator@PBQAUBox@BoxSpace@@@std@@@std@@QAEXXZ PROC ; std::vector<BoxSpace::Box * const *,std::allocator<BoxSpace::Box * const *> >::clear, COMDAT
; _this$ = ecx

; 1217 : 		{	// erase all

  00000	55		 push	 ebp
  00001	8b ec		 mov	 ebp, esp
  00003	51		 push	 ecx

; 1218 : 		erase(begin(), end());

  00004	8b 41 04	 mov	 eax, DWORD PTR [ecx+4]
  00007	8b 11		 mov	 edx, DWORD PTR [ecx]
  00009	50		 push	 eax
  0000a	52		 push	 edx
  0000b	8d 45 fc	 lea	 eax, DWORD PTR $T516242[ebp]
  0000e	50		 push	 eax
  0000f	e8 00 00 00 00	 call	 ?erase@?$vector@PBQAUBox@BoxSpace@@V?$allocator@PBQAUBox@BoxSpace@@@std@@@std@@QAE?AV?$_Vector_iterator@V?$_Vector_val@PBQAUBox@BoxSpace@@V?$allocator@PBQAUBox@BoxSpace@@@std@@@std@@@2@V?$_Vector_const_iterator@V?$_Vector_val@PBQAUBox@BoxSpace@@V?$allocator@PBQAUBox@BoxSpace@@@std@@@std@@@2@0@Z ; std::vector<BoxSpace::Box * const *,std::allocator<BoxSpace::Box * const *> >::erase

; 1219 : 		}

  00014	c9		 leave
  00015	c3		 ret	 0
?clear@?$vector@PBQAUBox@BoxSpace@@V?$allocator@PBQAUBox@BoxSpace@@@std@@@std@@QAEXXZ ENDP ; std::vector<BoxSpace::Box * const *,std::allocator<BoxSpace::Box * const *> >::clear
_TEXT	ENDS
PUBLIC	?_Reserve@?$vector@PAUTBlock@?$uni_heap@$0BE@$0IA@@@V?$allocator@PAUTBlock@?$uni_heap@$0BE@$0IA@@@@std@@@std@@IAEXI@Z ; std::vector<uni_heap<20,128>::TBlock *,std::allocator<uni_heap<20,128>::TBlock *> >::_Reserve
; Function compile flags: /Ogsp
;	COMDAT ?_Reserve@?$vector@PAUTBlock@?$uni_heap@$0BE@$0IA@@@V?$allocator@PAUTBlock@?$uni_heap@$0BE@$0IA@@@@std@@@std@@IAEXI@Z
_TEXT	SEGMENT
__Count$ = 8						; size = 4
?_Reserve@?$vector@PAUTBlock@?$uni_heap@$0BE@$0IA@@@V?$allocator@PAUTBlock@?$uni_heap@$0BE@$0IA@@@@std@@@std@@IAEXI@Z PROC ; std::vector<uni_heap<20,128>::TBlock *,std::allocator<uni_heap<20,128>::TBlock *> >::_Reserve, COMDAT
; _this$ = ecx

; 1290 : 		{	// ensure room for _Count new elements, grow exponentially

  00000	55		 push	 ebp
  00001	8b ec		 mov	 ebp, esp
  00003	56		 push	 esi
  00004	8b f1		 mov	 esi, ecx

; 1291 : 		size_type _Size = size();

  00006	8b 0e		 mov	 ecx, DWORD PTR [esi]
  00008	8b 46 04	 mov	 eax, DWORD PTR [esi+4]
  0000b	2b c1		 sub	 eax, ecx

; 1292 : 		if (max_size() - _Count < _Size)

  0000d	ba ff ff ff 3f	 mov	 edx, 1073741823		; 3fffffffH
  00012	2b 55 08	 sub	 edx, DWORD PTR __Count$[ebp]
  00015	c1 f8 02	 sar	 eax, 2
  00018	3b d0		 cmp	 edx, eax
  0001a	73 0b		 jae	 SHORT $LN4@Reserve@4

; 1293 : 			_Xlen();

  0001c	68 00 00 00 00	 push	 OFFSET ??_C@_0BD@OLBABOEK@vector?$DMT?$DO?5too?5long?$AA@
  00021	ff 15 00 00 00
	00		 call	 DWORD PTR __imp_?_Xlength_error@std@@YAXPBD@Z
$LN21@Reserve@4:
$LN4@Reserve@4:

; 1294 : 		else if ((_Size += _Count) <= capacity())

  00027	8b 56 08	 mov	 edx, DWORD PTR [esi+8]
  0002a	03 45 08	 add	 eax, DWORD PTR __Count$[ebp]
  0002d	2b d1		 sub	 edx, ecx
  0002f	c1 fa 02	 sar	 edx, 2
  00032	3b c2		 cmp	 eax, edx
  00034	76 10		 jbe	 SHORT $LN1@Reserve@4

; 1295 : 			;
; 1296 : 		else
; 1297 : 			reserve(_Grow_to(_Size));

  00036	50		 push	 eax
  00037	8b ce		 mov	 ecx, esi
  00039	e8 00 00 00 00	 call	 ?_Grow_to@?$vector@PAUTBlock@?$uni_heap@$0BE@$0IA@@@V?$allocator@PAUTBlock@?$uni_heap@$0BE@$0IA@@@@std@@@std@@IBEII@Z ; std::vector<uni_heap<20,128>::TBlock *,std::allocator<uni_heap<20,128>::TBlock *> >::_Grow_to
  0003e	50		 push	 eax
  0003f	8b ce		 mov	 ecx, esi
  00041	e8 00 00 00 00	 call	 ?reserve@?$vector@PAUTBlock@?$uni_heap@$0BE@$0IA@@@V?$allocator@PAUTBlock@?$uni_heap@$0BE@$0IA@@@@std@@@std@@QAEXI@Z ; std::vector<uni_heap<20,128>::TBlock *,std::allocator<uni_heap<20,128>::TBlock *> >::reserve
$LN1@Reserve@4:
  00046	5e		 pop	 esi

; 1298 : 		}

  00047	5d		 pop	 ebp
  00048	c2 04 00	 ret	 4
$LN20@Reserve@4:
?_Reserve@?$vector@PAUTBlock@?$uni_heap@$0BE@$0IA@@@V?$allocator@PAUTBlock@?$uni_heap@$0BE@$0IA@@@@std@@@std@@IAEXI@Z ENDP ; std::vector<uni_heap<20,128>::TBlock *,std::allocator<uni_heap<20,128>::TBlock *> >::_Reserve
_TEXT	ENDS
PUBLIC	?clear@?$vector@PAUDNode@?$AStarSearcher@VBoxSpace@@PAUBox@1@@@V?$allocator@PAUDNode@?$AStarSearcher@VBoxSpace@@PAUBox@1@@@@std@@@std@@QAEXXZ ; std::vector<AStarSearcher<BoxSpace,BoxSpace::Box *>::DNode *,std::allocator<AStarSearcher<BoxSpace,BoxSpace::Box *>::DNode *> >::clear
; Function compile flags: /Ogsp
;	COMDAT ?clear@?$vector@PAUDNode@?$AStarSearcher@VBoxSpace@@PAUBox@1@@@V?$allocator@PAUDNode@?$AStarSearcher@VBoxSpace@@PAUBox@1@@@@std@@@std@@QAEXXZ
_TEXT	SEGMENT
$T516329 = -4						; size = 4
?clear@?$vector@PAUDNode@?$AStarSearcher@VBoxSpace@@PAUBox@1@@@V?$allocator@PAUDNode@?$AStarSearcher@VBoxSpace@@PAUBox@1@@@@std@@@std@@QAEXXZ PROC ; std::vector<AStarSearcher<BoxSpace,BoxSpace::Box *>::DNode *,std::allocator<AStarSearcher<BoxSpace,BoxSpace::Box *>::DNode *> >::clear, COMDAT
; _this$ = ecx

; 1217 : 		{	// erase all

  00000	55		 push	 ebp
  00001	8b ec		 mov	 ebp, esp
  00003	51		 push	 ecx

; 1218 : 		erase(begin(), end());

  00004	8b 41 04	 mov	 eax, DWORD PTR [ecx+4]
  00007	8b 11		 mov	 edx, DWORD PTR [ecx]
  00009	50		 push	 eax
  0000a	52		 push	 edx
  0000b	8d 45 fc	 lea	 eax, DWORD PTR $T516329[ebp]
  0000e	50		 push	 eax
  0000f	e8 00 00 00 00	 call	 ?erase@?$vector@PAUDNode@?$AStarSearcher@VBoxSpace@@PAUBox@1@@@V?$allocator@PAUDNode@?$AStarSearcher@VBoxSpace@@PAUBox@1@@@@std@@@std@@QAE?AV?$_Vector_iterator@V?$_Vector_val@PAUDNode@?$AStarSearcher@VBoxSpace@@PAUBox@1@@@V?$allocator@PAUDNode@?$AStarSearcher@VBoxSpace@@PAUBox@1@@@@std@@@std@@@2@V?$_Vector_const_iterator@V?$_Vector_val@PAUDNode@?$AStarSearcher@VBoxSpace@@PAUBox@1@@@V?$allocator@PAUDNode@?$AStarSearcher@VBoxSpace@@PAUBox@1@@@@std@@@std@@@2@0@Z ; std::vector<AStarSearcher<BoxSpace,BoxSpace::Box *>::DNode *,std::allocator<AStarSearcher<BoxSpace,BoxSpace::Box *>::DNode *> >::erase

; 1219 : 		}

  00014	c9		 leave
  00015	c3		 ret	 0
?clear@?$vector@PAUDNode@?$AStarSearcher@VBoxSpace@@PAUBox@1@@@V?$allocator@PAUDNode@?$AStarSearcher@VBoxSpace@@PAUBox@1@@@@std@@@std@@QAEXXZ ENDP ; std::vector<AStarSearcher<BoxSpace,BoxSpace::Box *>::DNode *,std::allocator<AStarSearcher<BoxSpace,BoxSpace::Box *>::DNode *> >::clear
_TEXT	ENDS
PUBLIC	??$_Destroy_range@V?$allocator@ULink@BoxSpace@@@std@@@std@@YAXPAULink@BoxSpace@@0AAV?$allocator@ULink@BoxSpace@@@0@@Z ; std::_Destroy_range<std::allocator<BoxSpace::Link> >
; Function compile flags: /Ogsp
; File c:\program files (x86)\microsoft visual studio 10.0\vc\include\xmemory
;	COMDAT ??$_Destroy_range@V?$allocator@ULink@BoxSpace@@@std@@@std@@YAXPAULink@BoxSpace@@0AAV?$allocator@ULink@BoxSpace@@@0@@Z
_TEXT	SEGMENT
__First$ = 8						; size = 4
__Last$ = 12						; size = 4
__Al$ = 16						; size = 4
??$_Destroy_range@V?$allocator@ULink@BoxSpace@@@std@@@std@@YAXPAULink@BoxSpace@@0AAV?$allocator@ULink@BoxSpace@@@0@@Z PROC ; std::_Destroy_range<std::allocator<BoxSpace::Link> >, COMDAT

; 88   : 	_Destroy_range(_First, _Last, _Al, _Ptr_cat(_First, _Last));
; 89   : 	}

  00000	c3		 ret	 0
??$_Destroy_range@V?$allocator@ULink@BoxSpace@@@std@@@std@@YAXPAULink@BoxSpace@@0AAV?$allocator@ULink@BoxSpace@@@0@@Z ENDP ; std::_Destroy_range<std::allocator<BoxSpace::Link> >
_TEXT	ENDS
PUBLIC	?clearInfo@?$AStarSearcher@VBoxSpace@@PAUBox@1@@@AAEXXZ ; AStarSearcher<BoxSpace,BoxSpace::Box *>::clearInfo
; Function compile flags: /Ogsp
; File d:\lost saga for developer\youtube\tutorial\source\src\lsclient\astar.h
;	COMDAT ?clearInfo@?$AStarSearcher@VBoxSpace@@PAUBox@1@@@AAEXXZ
_TEXT	SEGMENT
?clearInfo@?$AStarSearcher@VBoxSpace@@PAUBox@1@@@AAEXXZ PROC ; AStarSearcher<BoxSpace,BoxSpace::Box *>::clearInfo, COMDAT
; _this$ = ecx

; 92   : 	{

  00000	56		 push	 esi

; 93   : 		for ( DNode* p = m_pool.get_first_unit(); p != NULL; p = m_pool.get_next_unit() )

  00001	8d 71 04	 lea	 esi, DWORD PTR [ecx+4]
  00004	8b ce		 mov	 ecx, esi
  00006	e8 00 00 00 00	 call	 ?get_first_unit@?$uni_heap@$0BE@$0IA@@@QAEPAXXZ ; uni_heap<20,128>::get_first_unit
  0000b	eb 0d		 jmp	 SHORT $LN14@clearInfo
$LL3@clearInfo:

; 94   : 			m_pIntf->setInfo( this, p->node, NULL );

  0000d	8b 00		 mov	 eax, DWORD PTR [eax]
  0000f	83 60 54 00	 and	 DWORD PTR [eax+84], 0
  00013	8b ce		 mov	 ecx, esi
  00015	e8 00 00 00 00	 call	 ?get_next_unit@?$uni_heap@$0BE@$0IA@@@QAEPAXXZ ; uni_heap<20,128>::get_next_unit
$LN14@clearInfo:

; 93   : 		for ( DNode* p = m_pool.get_first_unit(); p != NULL; p = m_pool.get_next_unit() )

  0001a	85 c0		 test	 eax, eax
  0001c	75 ef		 jne	 SHORT $LL3@clearInfo
  0001e	5e		 pop	 esi

; 95   : 	}

  0001f	c3		 ret	 0
?clearInfo@?$AStarSearcher@VBoxSpace@@PAUBox@1@@@AAEXXZ ENDP ; AStarSearcher<BoxSpace,BoxSpace::Box *>::clearInfo
_TEXT	ENDS
PUBLIC	?push_back@?$vector@PAUDNode@?$AStarSearcher@VBoxSpace@@PAUBox@1@@@V?$allocator@PAUDNode@?$AStarSearcher@VBoxSpace@@PAUBox@1@@@@std@@@std@@QAEXABQAUDNode@?$AStarSearcher@VBoxSpace@@PAUBox@1@@@@Z ; std::vector<AStarSearcher<BoxSpace,BoxSpace::Box *>::DNode *,std::allocator<AStarSearcher<BoxSpace,BoxSpace::Box *>::DNode *> >::push_back
; Function compile flags: /Ogsp
; File c:\program files (x86)\microsoft visual studio 10.0\vc\include\vector
;	COMDAT ?push_back@?$vector@PAUDNode@?$AStarSearcher@VBoxSpace@@PAUBox@1@@@V?$allocator@PAUDNode@?$AStarSearcher@VBoxSpace@@PAUBox@1@@@@std@@@std@@QAEXABQAUDNode@?$AStarSearcher@VBoxSpace@@PAUBox@1@@@@Z
_TEXT	SEGMENT
__Val$ = 8						; size = 4
?push_back@?$vector@PAUDNode@?$AStarSearcher@VBoxSpace@@PAUBox@1@@@V?$allocator@PAUDNode@?$AStarSearcher@VBoxSpace@@PAUBox@1@@@@std@@@std@@QAEXABQAUDNode@?$AStarSearcher@VBoxSpace@@PAUBox@1@@@@Z PROC ; std::vector<AStarSearcher<BoxSpace,BoxSpace::Box *>::DNode *,std::allocator<AStarSearcher<BoxSpace,BoxSpace::Box *>::DNode *> >::push_back, COMDAT
; _this$ = ecx

; 976  : 		{	// insert element at end

  00000	55		 push	 ebp
  00001	8b ec		 mov	 ebp, esp
  00003	56		 push	 esi
  00004	8b f1		 mov	 esi, ecx

; 977  : 		if (_Inside(_STD addressof(_Val)))

  00006	8b 46 04	 mov	 eax, DWORD PTR [esi+4]
  00009	57		 push	 edi
  0000a	8b 7d 08	 mov	 edi, DWORD PTR __Val$[ebp]
  0000d	3b f8		 cmp	 edi, eax
  0000f	73 27		 jae	 SHORT $LN4@push_back@3
  00011	8b 0e		 mov	 ecx, DWORD PTR [esi]
  00013	3b cf		 cmp	 ecx, edi
  00015	77 21		 ja	 SHORT $LN4@push_back@3

; 978  : 			{	// push back an element
; 979  : 			size_type _Idx = _STD addressof(_Val) - this->_Myfirst;

  00017	2b f9		 sub	 edi, ecx
  00019	c1 ff 02	 sar	 edi, 2

; 980  : 			if (this->_Mylast == this->_Myend)

  0001c	3b 46 08	 cmp	 eax, DWORD PTR [esi+8]
  0001f	75 09		 jne	 SHORT $LN3@push_back@3

; 981  : 				_Reserve(1);

  00021	6a 01		 push	 1
  00023	8b ce		 mov	 ecx, esi
  00025	e8 00 00 00 00	 call	 ?_Reserve@?$vector@PAUDNode@?$AStarSearcher@VBoxSpace@@PAUBox@1@@@V?$allocator@PAUDNode@?$AStarSearcher@VBoxSpace@@PAUBox@1@@@@std@@@std@@IAEXI@Z ; std::vector<AStarSearcher<BoxSpace,BoxSpace::Box *>::DNode *,std::allocator<AStarSearcher<BoxSpace,BoxSpace::Box *>::DNode *> >::_Reserve
$LN3@push_back@3:

; 982  : 			_Orphan_range(this->_Mylast, this->_Mylast);
; 983  : 			_Cons_val(this->_Alval,
; 984  : 				this->_Mylast,
; 985  : 				this->_Myfirst[_Idx]);

  0002a	8b 46 04	 mov	 eax, DWORD PTR [esi+4]
  0002d	85 c0		 test	 eax, eax
  0002f	74 20		 je	 SHORT $LN39@push_back@3
  00031	8b 0e		 mov	 ecx, DWORD PTR [esi]
  00033	8b 0c b9	 mov	 ecx, DWORD PTR [ecx+edi*4]

; 986  : 			++this->_Mylast;
; 987  : 			}
; 988  : 		else

  00036	eb 17		 jmp	 SHORT $LN46@push_back@3
$LN4@push_back@3:

; 989  : 			{	// push back a non-element
; 990  : 			if (this->_Mylast == this->_Myend)

  00038	3b 46 08	 cmp	 eax, DWORD PTR [esi+8]
  0003b	75 09		 jne	 SHORT $LN1@push_back@3

; 991  : 				_Reserve(1);

  0003d	6a 01		 push	 1
  0003f	8b ce		 mov	 ecx, esi
  00041	e8 00 00 00 00	 call	 ?_Reserve@?$vector@PAUDNode@?$AStarSearcher@VBoxSpace@@PAUBox@1@@@V?$allocator@PAUDNode@?$AStarSearcher@VBoxSpace@@PAUBox@1@@@@std@@@std@@IAEXI@Z ; std::vector<AStarSearcher<BoxSpace,BoxSpace::Box *>::DNode *,std::allocator<AStarSearcher<BoxSpace,BoxSpace::Box *>::DNode *> >::_Reserve
$LN1@push_back@3:

; 992  : 			_Orphan_range(this->_Mylast, this->_Mylast);
; 993  : 			_Cons_val(this->_Alval,
; 994  : 				this->_Mylast,
; 995  : 				_Val);

  00046	8b 46 04	 mov	 eax, DWORD PTR [esi+4]
  00049	85 c0		 test	 eax, eax
  0004b	74 04		 je	 SHORT $LN39@push_back@3
  0004d	8b 0f		 mov	 ecx, DWORD PTR [edi]
$LN46@push_back@3:
  0004f	89 08		 mov	 DWORD PTR [eax], ecx
$LN39@push_back@3:

; 996  : 			++this->_Mylast;

  00051	83 46 04 04	 add	 DWORD PTR [esi+4], 4
  00055	5f		 pop	 edi
  00056	5e		 pop	 esi

; 997  : 			}
; 998  : 		}

  00057	5d		 pop	 ebp
  00058	c2 04 00	 ret	 4
?push_back@?$vector@PAUDNode@?$AStarSearcher@VBoxSpace@@PAUBox@1@@@V?$allocator@PAUDNode@?$AStarSearcher@VBoxSpace@@PAUBox@1@@@@std@@@std@@QAEXABQAUDNode@?$AStarSearcher@VBoxSpace@@PAUBox@1@@@@Z ENDP ; std::vector<AStarSearcher<BoxSpace,BoxSpace::Box *>::DNode *,std::allocator<AStarSearcher<BoxSpace,BoxSpace::Box *>::DNode *> >::push_back
_TEXT	ENDS
PUBLIC	?push_back@?$vector@PBQAUBox@BoxSpace@@V?$allocator@PBQAUBox@BoxSpace@@@std@@@std@@QAEX$$QAPBQAUBox@BoxSpace@@@Z ; std::vector<BoxSpace::Box * const *,std::allocator<BoxSpace::Box * const *> >::push_back
; Function compile flags: /Ogsp
;	COMDAT ?push_back@?$vector@PBQAUBox@BoxSpace@@V?$allocator@PBQAUBox@BoxSpace@@@std@@@std@@QAEX$$QAPBQAUBox@BoxSpace@@@Z
_TEXT	SEGMENT
__Val$ = 8						; size = 4
?push_back@?$vector@PBQAUBox@BoxSpace@@V?$allocator@PBQAUBox@BoxSpace@@@std@@@std@@QAEX$$QAPBQAUBox@BoxSpace@@@Z PROC ; std::vector<BoxSpace::Box * const *,std::allocator<BoxSpace::Box * const *> >::push_back, COMDAT
; _this$ = ecx

; 631  : 		{	// insert element at end

  00000	55		 push	 ebp
  00001	8b ec		 mov	 ebp, esp
  00003	56		 push	 esi
  00004	8b f1		 mov	 esi, ecx

; 632  : 		if (_Inside(_STD addressof(_Val)))

  00006	8b 46 04	 mov	 eax, DWORD PTR [esi+4]
  00009	57		 push	 edi
  0000a	8b 7d 08	 mov	 edi, DWORD PTR __Val$[ebp]
  0000d	3b f8		 cmp	 edi, eax
  0000f	73 27		 jae	 SHORT $LN4@push_back@4
  00011	8b 0e		 mov	 ecx, DWORD PTR [esi]
  00013	3b cf		 cmp	 ecx, edi
  00015	77 21		 ja	 SHORT $LN4@push_back@4

; 633  : 			{	// push back an element
; 634  : 			size_type _Idx = _STD addressof(_Val) - this->_Myfirst;

  00017	2b f9		 sub	 edi, ecx
  00019	c1 ff 02	 sar	 edi, 2

; 635  : 			if (this->_Mylast == this->_Myend)

  0001c	3b 46 08	 cmp	 eax, DWORD PTR [esi+8]
  0001f	75 09		 jne	 SHORT $LN3@push_back@4

; 636  : 				_Reserve(1);

  00021	6a 01		 push	 1
  00023	8b ce		 mov	 ecx, esi
  00025	e8 00 00 00 00	 call	 ?_Reserve@?$vector@PBQAUBox@BoxSpace@@V?$allocator@PBQAUBox@BoxSpace@@@std@@@std@@IAEXI@Z ; std::vector<BoxSpace::Box * const *,std::allocator<BoxSpace::Box * const *> >::_Reserve
$LN3@push_back@4:

; 637  : 			_Orphan_range(this->_Mylast, this->_Mylast);
; 638  : 			_Cons_val(this->_Alval,
; 639  : 				this->_Mylast,
; 640  : 				_STD forward<_Ty>(this->_Myfirst[_Idx]));

  0002a	8b 46 04	 mov	 eax, DWORD PTR [esi+4]
  0002d	85 c0		 test	 eax, eax
  0002f	74 20		 je	 SHORT $LN41@push_back@4
  00031	8b 0e		 mov	 ecx, DWORD PTR [esi]
  00033	8b 0c b9	 mov	 ecx, DWORD PTR [ecx+edi*4]

; 641  : 			++this->_Mylast;
; 642  : 			}
; 643  : 		else

  00036	eb 17		 jmp	 SHORT $LN48@push_back@4
$LN4@push_back@4:

; 644  : 			{	// push back a non-element
; 645  : 			if (this->_Mylast == this->_Myend)

  00038	3b 46 08	 cmp	 eax, DWORD PTR [esi+8]
  0003b	75 09		 jne	 SHORT $LN1@push_back@4

; 646  : 				_Reserve(1);

  0003d	6a 01		 push	 1
  0003f	8b ce		 mov	 ecx, esi
  00041	e8 00 00 00 00	 call	 ?_Reserve@?$vector@PBQAUBox@BoxSpace@@V?$allocator@PBQAUBox@BoxSpace@@@std@@@std@@IAEXI@Z ; std::vector<BoxSpace::Box * const *,std::allocator<BoxSpace::Box * const *> >::_Reserve
$LN1@push_back@4:

; 647  : 			_Orphan_range(this->_Mylast, this->_Mylast);
; 648  : 			_Cons_val(this->_Alval,
; 649  : 				this->_Mylast,
; 650  : 				_STD forward<_Ty>(_Val));

  00046	8b 46 04	 mov	 eax, DWORD PTR [esi+4]
  00049	85 c0		 test	 eax, eax
  0004b	74 04		 je	 SHORT $LN41@push_back@4
  0004d	8b 0f		 mov	 ecx, DWORD PTR [edi]
$LN48@push_back@4:
  0004f	89 08		 mov	 DWORD PTR [eax], ecx
$LN41@push_back@4:

; 651  : 			++this->_Mylast;

  00051	83 46 04 04	 add	 DWORD PTR [esi+4], 4
  00055	5f		 pop	 edi
  00056	5e		 pop	 esi

; 652  : 			}
; 653  : 		}

  00057	5d		 pop	 ebp
  00058	c2 04 00	 ret	 4
?push_back@?$vector@PBQAUBox@BoxSpace@@V?$allocator@PBQAUBox@BoxSpace@@@std@@@std@@QAEX$$QAPBQAUBox@BoxSpace@@@Z ENDP ; std::vector<BoxSpace::Box * const *,std::allocator<BoxSpace::Box * const *> >::push_back
_TEXT	ENDS
PUBLIC	??$_Umove@PAULink@BoxSpace@@@?$vector@ULink@BoxSpace@@V?$allocator@ULink@BoxSpace@@@std@@@std@@IAEPAULink@BoxSpace@@PAU23@00@Z ; std::vector<BoxSpace::Link,std::allocator<BoxSpace::Link> >::_Umove<BoxSpace::Link *>
; Function compile flags: /Ogsp
;	COMDAT ??$_Umove@PAULink@BoxSpace@@@?$vector@ULink@BoxSpace@@V?$allocator@ULink@BoxSpace@@@std@@@std@@IAEPAULink@BoxSpace@@PAU23@00@Z
_TEXT	SEGMENT
__First$ = 8						; size = 4
__Last$ = 12						; size = 4
__Ptr$ = 16						; size = 4
??$_Umove@PAULink@BoxSpace@@@?$vector@ULink@BoxSpace@@V?$allocator@ULink@BoxSpace@@@std@@@std@@IAEPAULink@BoxSpace@@PAU23@00@Z PROC ; std::vector<BoxSpace::Link,std::allocator<BoxSpace::Link> >::_Umove<BoxSpace::Link *>, COMDAT
; _this$ = ecx

; 1322 : 		pointer _Umove(_Iter _First, _Iter _Last, pointer _Ptr)

  00000	55		 push	 ebp
  00001	8b ec		 mov	 ebp, esp

; 1323 : 		{	// move initializing [_First, _Last), using allocator
; 1324 : 		return (_Uninitialized_move(_First, _Last,
; 1325 : 			_Ptr, this->_Alval));

  00003	83 c1 0c	 add	 ecx, 12			; 0000000cH
  00006	51		 push	 ecx
  00007	ff 75 10	 push	 DWORD PTR __Ptr$[ebp]
  0000a	ff 75 0c	 push	 DWORD PTR __Last$[ebp]
  0000d	ff 75 08	 push	 DWORD PTR __First$[ebp]
  00010	e8 00 00 00 00	 call	 ??$_Uninitialized_move@PAULink@BoxSpace@@PAU12@V?$allocator@ULink@BoxSpace@@@std@@@std@@YAPAULink@BoxSpace@@PAU12@00AAV?$allocator@ULink@BoxSpace@@@0@@Z ; std::_Uninitialized_move<BoxSpace::Link *,BoxSpace::Link *,std::allocator<BoxSpace::Link> >
  00015	83 c4 10	 add	 esp, 16			; 00000010H

; 1326 : 		}

  00018	5d		 pop	 ebp
  00019	c2 0c 00	 ret	 12			; 0000000cH
??$_Umove@PAULink@BoxSpace@@@?$vector@ULink@BoxSpace@@V?$allocator@ULink@BoxSpace@@@std@@@std@@IAEPAULink@BoxSpace@@PAU23@00@Z ENDP ; std::vector<BoxSpace::Link,std::allocator<BoxSpace::Link> >::_Umove<BoxSpace::Link *>
_TEXT	ENDS
PUBLIC	??$pop_heap@V?$_Vector_iterator@V?$_Vector_val@PAUDNode@?$AStarSearcher@VBoxSpace@@PAUBox@1@@@V?$allocator@PAUDNode@?$AStarSearcher@VBoxSpace@@PAUBox@1@@@@std@@@std@@@std@@UDNodeCostGreater@?$AStarSearcher@VBoxSpace@@PAUBox@1@@@@std@@YAXV?$_Vector_iterator@V?$_Vector_val@PAUDNode@?$AStarSearcher@VBoxSpace@@PAUBox@1@@@V?$allocator@PAUDNode@?$AStarSearcher@VBoxSpace@@PAUBox@1@@@@std@@@std@@@0@0UDNodeCostGreater@?$AStarSearcher@VBoxSpace@@PAUBox@1@@@@Z ; std::pop_heap<std::_Vector_iterator<std::_Vector_val<AStarSearcher<BoxSpace,BoxSpace::Box *>::DNode *,std::allocator<AStarSearcher<BoxSpace,BoxSpace::Box *>::DNode *> > >,AStarSearcher<BoxSpace,BoxSpace::Box *>::DNodeCostGreater>
; Function compile flags: /Ogsp
; File c:\program files (x86)\microsoft visual studio 10.0\vc\include\algorithm
;	COMDAT ??$pop_heap@V?$_Vector_iterator@V?$_Vector_val@PAUDNode@?$AStarSearcher@VBoxSpace@@PAUBox@1@@@V?$allocator@PAUDNode@?$AStarSearcher@VBoxSpace@@PAUBox@1@@@@std@@@std@@@std@@UDNodeCostGreater@?$AStarSearcher@VBoxSpace@@PAUBox@1@@@@std@@YAXV?$_Vector_iterator@V?$_Vector_val@PAUDNode@?$AStarSearcher@VBoxSpace@@PAUBox@1@@@V?$allocator@PAUDNode@?$AStarSearcher@VBoxSpace@@PAUBox@1@@@@std@@@std@@@0@0UDNodeCostGreater@?$AStarSearcher@VBoxSpace@@PAUBox@1@@@@Z
_TEXT	SEGMENT
__First$ = 8						; size = 4
__Last$ = 12						; size = 4
__Pred$ = 16						; size = 1
??$pop_heap@V?$_Vector_iterator@V?$_Vector_val@PAUDNode@?$AStarSearcher@VBoxSpace@@PAUBox@1@@@V?$allocator@PAUDNode@?$AStarSearcher@VBoxSpace@@PAUBox@1@@@@std@@@std@@@std@@UDNodeCostGreater@?$AStarSearcher@VBoxSpace@@PAUBox@1@@@@std@@YAXV?$_Vector_iterator@V?$_Vector_val@PAUDNode@?$AStarSearcher@VBoxSpace@@PAUBox@1@@@V?$allocator@PAUDNode@?$AStarSearcher@VBoxSpace@@PAUBox@1@@@@std@@@std@@@0@0UDNodeCostGreater@?$AStarSearcher@VBoxSpace@@PAUBox@1@@@@Z PROC ; std::pop_heap<std::_Vector_iterator<std::_Vector_val<AStarSearcher<BoxSpace,BoxSpace::Box *>::DNode *,std::allocator<AStarSearcher<BoxSpace,BoxSpace::Box *>::DNode *> > >,AStarSearcher<BoxSpace,BoxSpace::Box *>::DNodeCostGreater>, COMDAT

; 2618 : 	{	// pop *_First to *(_Last - 1) and reheap, using _Pred

  00000	55		 push	 ebp
  00001	8b ec		 mov	 ebp, esp

; 2619 : 	_DEBUG_RANGE(_First, _Last);
; 2620 : 	_DEBUG_POINTER(_Pred);
; 2621 : 	_DEBUG_HEAP_PRED(_First, _Last, _Pred);
; 2622 : 	if (1 < _Last - _First)

  00003	8b 45 0c	 mov	 eax, DWORD PTR __Last$[ebp]
  00006	2b 45 08	 sub	 eax, DWORD PTR __First$[ebp]
  00009	83 e0 fc	 and	 eax, -4			; fffffffcH
  0000c	83 f8 04	 cmp	 eax, 4
  0000f	7e 13		 jle	 SHORT $LN18@pop_heap

; 2623 : 		_Pop_heap(_Unchecked(_First), _Unchecked(_Last), _Pred);

  00011	6a 00		 push	 0
  00013	ff 75 10	 push	 DWORD PTR __Pred$[ebp]
  00016	ff 75 0c	 push	 DWORD PTR __Last$[ebp]
  00019	ff 75 08	 push	 DWORD PTR __First$[ebp]
  0001c	e8 00 00 00 00	 call	 ??$_Pop_heap_0@PAPAUDNode@?$AStarSearcher@VBoxSpace@@PAUBox@1@@@PAU12@UDNodeCostGreater@2@@std@@YAXPAPAUDNode@?$AStarSearcher@VBoxSpace@@PAUBox@1@@@0UDNodeCostGreater@2@0@Z ; std::_Pop_heap_0<AStarSearcher<BoxSpace,BoxSpace::Box *>::DNode * *,AStarSearcher<BoxSpace,BoxSpace::Box *>::DNode *,AStarSearcher<BoxSpace,BoxSpace::Box *>::DNodeCostGreater>
  00021	83 c4 10	 add	 esp, 16			; 00000010H
$LN18@pop_heap:

; 2624 : 	}

  00024	5d		 pop	 ebp
  00025	c3		 ret	 0
??$pop_heap@V?$_Vector_iterator@V?$_Vector_val@PAUDNode@?$AStarSearcher@VBoxSpace@@PAUBox@1@@@V?$allocator@PAUDNode@?$AStarSearcher@VBoxSpace@@PAUBox@1@@@@std@@@std@@@std@@UDNodeCostGreater@?$AStarSearcher@VBoxSpace@@PAUBox@1@@@@std@@YAXV?$_Vector_iterator@V?$_Vector_val@PAUDNode@?$AStarSearcher@VBoxSpace@@PAUBox@1@@@V?$allocator@PAUDNode@?$AStarSearcher@VBoxSpace@@PAUBox@1@@@@std@@@std@@@0@0UDNodeCostGreater@?$AStarSearcher@VBoxSpace@@PAUBox@1@@@@Z ENDP ; std::pop_heap<std::_Vector_iterator<std::_Vector_val<AStarSearcher<BoxSpace,BoxSpace::Box *>::DNode *,std::allocator<AStarSearcher<BoxSpace,BoxSpace::Box *>::DNode *> > >,AStarSearcher<BoxSpace,BoxSpace::Box *>::DNodeCostGreater>
_TEXT	ENDS
PUBLIC	??$_Ucopy@V?$_Vector_const_iterator@V?$_Vector_val@ULink@BoxSpace@@V?$allocator@ULink@BoxSpace@@@std@@@std@@@std@@@?$vector@ULink@BoxSpace@@V?$allocator@ULink@BoxSpace@@@std@@@std@@IAEPAULink@BoxSpace@@V?$_Vector_const_iterator@V?$_Vector_val@ULink@BoxSpace@@V?$allocator@ULink@BoxSpace@@@std@@@std@@@1@0PAU23@@Z ; std::vector<BoxSpace::Link,std::allocator<BoxSpace::Link> >::_Ucopy<std::_Vector_const_iterator<std::_Vector_val<BoxSpace::Link,std::allocator<BoxSpace::Link> > > >
; Function compile flags: /Ogsp
; File c:\program files (x86)\microsoft visual studio 10.0\vc\include\vector
;	COMDAT ??$_Ucopy@V?$_Vector_const_iterator@V?$_Vector_val@ULink@BoxSpace@@V?$allocator@ULink@BoxSpace@@@std@@@std@@@std@@@?$vector@ULink@BoxSpace@@V?$allocator@ULink@BoxSpace@@@std@@@std@@IAEPAULink@BoxSpace@@V?$_Vector_const_iterator@V?$_Vector_val@ULink@BoxSpace@@V?$allocator@ULink@BoxSpace@@@std@@@std@@@1@0PAU23@@Z
_TEXT	SEGMENT
__First$ = 8						; size = 4
__Last$ = 12						; size = 4
__Cat$516737 = 16					; size = 1
__Ptr$ = 16						; size = 4
??$_Ucopy@V?$_Vector_const_iterator@V?$_Vector_val@ULink@BoxSpace@@V?$allocator@ULink@BoxSpace@@@std@@@std@@@std@@@?$vector@ULink@BoxSpace@@V?$allocator@ULink@BoxSpace@@@std@@@std@@IAEPAULink@BoxSpace@@V?$_Vector_const_iterator@V?$_Vector_val@ULink@BoxSpace@@V?$allocator@ULink@BoxSpace@@@std@@@std@@@1@0PAU23@@Z PROC ; std::vector<BoxSpace::Link,std::allocator<BoxSpace::Link> >::_Ucopy<std::_Vector_const_iterator<std::_Vector_val<BoxSpace::Link,std::allocator<BoxSpace::Link> > > >, COMDAT
; _this$ = ecx

; 1315 : 		pointer _Ucopy(_Iter _First, _Iter _Last, pointer _Ptr)

  00000	55		 push	 ebp
  00001	8b ec		 mov	 ebp, esp

; 1316 : 		{	// copy initializing [_First, _Last), using allocator
; 1317 : 		return (_Uninitialized_copy(_First, _Last,
; 1318 : 			_Ptr, this->_Alval));

  00003	ff 75 10	 push	 DWORD PTR __Cat$516737[ebp]
  00006	83 c1 0c	 add	 ecx, 12			; 0000000cH
  00009	51		 push	 ecx
  0000a	ff 75 10	 push	 DWORD PTR __Ptr$[ebp]
  0000d	ff 75 0c	 push	 DWORD PTR __Last$[ebp]
  00010	ff 75 08	 push	 DWORD PTR __First$[ebp]
  00013	e8 00 00 00 00	 call	 ??$_Uninit_copy@V?$_Vector_const_iterator@V?$_Vector_val@ULink@BoxSpace@@V?$allocator@ULink@BoxSpace@@@std@@@std@@@std@@PAULink@BoxSpace@@V?$allocator@ULink@BoxSpace@@@2@@std@@YAPAULink@BoxSpace@@V?$_Vector_const_iterator@V?$_Vector_val@ULink@BoxSpace@@V?$allocator@ULink@BoxSpace@@@std@@@std@@@0@0PAU12@AAV?$allocator@ULink@BoxSpace@@@0@U_Nonscalar_ptr_iterator_tag@0@@Z ; std::_Uninit_copy<std::_Vector_const_iterator<std::_Vector_val<BoxSpace::Link,std::allocator<BoxSpace::Link> > >,BoxSpace::Link *,std::allocator<BoxSpace::Link> >
  00018	83 c4 14	 add	 esp, 20			; 00000014H

; 1319 : 		}

  0001b	5d		 pop	 ebp
  0001c	c2 0c 00	 ret	 12			; 0000000cH
??$_Ucopy@V?$_Vector_const_iterator@V?$_Vector_val@ULink@BoxSpace@@V?$allocator@ULink@BoxSpace@@@std@@@std@@@std@@@?$vector@ULink@BoxSpace@@V?$allocator@ULink@BoxSpace@@@std@@@std@@IAEPAULink@BoxSpace@@V?$_Vector_const_iterator@V?$_Vector_val@ULink@BoxSpace@@V?$allocator@ULink@BoxSpace@@@std@@@std@@@1@0PAU23@@Z ENDP ; std::vector<BoxSpace::Link,std::allocator<BoxSpace::Link> >::_Ucopy<std::_Vector_const_iterator<std::_Vector_val<BoxSpace::Link,std::allocator<BoxSpace::Link> > > >
_TEXT	ENDS
PUBLIC	??$_Buffered_merge_sort@PAULink@BoxSpace@@HU12@UFn_WalkLess@@@std@@YAXPAULink@BoxSpace@@0HAAV?$_Temp_iterator@ULink@BoxSpace@@@0@UFn_WalkLess@@@Z ; std::_Buffered_merge_sort<BoxSpace::Link *,int,BoxSpace::Link,Fn_WalkLess>
; Function compile flags: /Ogsp
; File c:\program files (x86)\microsoft visual studio 10.0\vc\include\algorithm
;	COMDAT ??$_Buffered_merge_sort@PAULink@BoxSpace@@HU12@UFn_WalkLess@@@std@@YAXPAULink@BoxSpace@@0HAAV?$_Temp_iterator@ULink@BoxSpace@@@0@UFn_WalkLess@@@Z
_TEXT	SEGMENT
$T516742 = -4						; size = 4
__First$ = 8						; size = 4
__Last$ = 12						; size = 4
__Count$ = 16						; size = 4
__Tempbuf$ = 20						; size = 4
__Pred$ = 24						; size = 1
??$_Buffered_merge_sort@PAULink@BoxSpace@@HU12@UFn_WalkLess@@@std@@YAXPAULink@BoxSpace@@0HAAV?$_Temp_iterator@ULink@BoxSpace@@@0@UFn_WalkLess@@@Z PROC ; std::_Buffered_merge_sort<BoxSpace::Link *,int,BoxSpace::Link,Fn_WalkLess>, COMDAT

; 3950 : 	{	// sort using temp buffer for merges, using _Pred

  00000	55		 push	 ebp
  00001	8b ec		 mov	 ebp, esp
  00003	51		 push	 ecx

; 3951 : 	_BidIt _Mid = _First;

  00004	8b 45 08	 mov	 eax, DWORD PTR __First$[ebp]
  00007	53		 push	 ebx
  00008	56		 push	 esi
  00009	57		 push	 edi

; 3952 : 	for (_Diff _Nleft = _Count; _ISORT_MAX <= _Nleft; _Nleft -= _ISORT_MAX)

  0000a	8b 7d 10	 mov	 edi, DWORD PTR __Count$[ebp]
  0000d	33 db		 xor	 ebx, ebx
  0000f	83 ff 20	 cmp	 edi, 32			; 00000020H
  00012	7c 1c		 jl	 SHORT $LN4@Buffered_m

; 3951 : 	_BidIt _Mid = _First;

  00014	c1 ef 05	 shr	 edi, 5
$LL6@Buffered_m:

; 3953 : 		{	// sort chunks
; 3954 : 		_BidIt _Midn = _Mid;
; 3955 : 		_STD advance(_Midn, (int)_ISORT_MAX);
; 3956 : 
; 3957 : 		_Insertion_sort(_Mid, _Midn, _Pred);

  00017	53		 push	 ebx
  00018	ff 75 18	 push	 DWORD PTR __Pred$[ebp]
  0001b	8d b0 00 04 00
	00		 lea	 esi, DWORD PTR [eax+1024]
  00021	56		 push	 esi
  00022	50		 push	 eax
  00023	e8 00 00 00 00	 call	 ??$_Insertion_sort1@PAULink@BoxSpace@@UFn_WalkLess@@U12@@std@@YAXPAULink@BoxSpace@@0UFn_WalkLess@@0@Z ; std::_Insertion_sort1<BoxSpace::Link *,Fn_WalkLess,BoxSpace::Link>
  00028	83 c4 10	 add	 esp, 16			; 00000010H
  0002b	4f		 dec	 edi

; 3958 : 		_Mid = _Midn;

  0002c	8b c6		 mov	 eax, esi
  0002e	75 e7		 jne	 SHORT $LL6@Buffered_m
$LN4@Buffered_m:

; 3959 : 		}
; 3960 : 	_Insertion_sort(_Mid, _Last, _Pred);	// sort partial last chunk

  00030	53		 push	 ebx
  00031	ff 75 18	 push	 DWORD PTR __Pred$[ebp]
  00034	ff 75 0c	 push	 DWORD PTR __Last$[ebp]
  00037	50		 push	 eax
  00038	e8 00 00 00 00	 call	 ??$_Insertion_sort1@PAULink@BoxSpace@@UFn_WalkLess@@U12@@std@@YAXPAULink@BoxSpace@@0UFn_WalkLess@@0@Z ; std::_Insertion_sort1<BoxSpace::Link *,Fn_WalkLess,BoxSpace::Link>
  0003d	83 c4 10	 add	 esp, 16			; 00000010H

; 3961 : 
; 3962 : 	for (_Diff _Chunk = _ISORT_MAX; _Chunk < _Count; _Chunk *= 2)

  00040	6a 20		 push	 32			; 00000020H
  00042	5f		 pop	 edi
  00043	39 7d 10	 cmp	 DWORD PTR __Count$[ebp], edi
  00046	7e 59		 jle	 SHORT $LN1@Buffered_m
  00048	8b 75 14	 mov	 esi, DWORD PTR __Tempbuf$[ebp]
$LL3@Buffered_m:

; 3963 : 		{	// merge adjacent pairs of chunks to and from temp buffer
; 3964 : 		_Chunked_merge(_First, _Last, _Tempbuf._Init(),
; 3965 : 			_Chunk, _Count, _Pred);

  0004b	ff 75 18	 push	 DWORD PTR __Pred$[ebp]
  0004e	8b 46 10	 mov	 eax, DWORD PTR [esi+16]
  00051	8b 08		 mov	 ecx, DWORD PTR [eax]
  00053	ff 75 10	 push	 DWORD PTR __Count$[ebp]
  00056	89 48 04	 mov	 DWORD PTR [eax+4], ecx
  00059	57		 push	 edi
  0005a	83 ec 14	 sub	 esp, 20			; 00000014H
  0005d	8b c4		 mov	 eax, esp
  0005f	89 65 fc	 mov	 DWORD PTR $T516742[ebp], esp
  00062	ff 75 0c	 push	 DWORD PTR __Last$[ebp]
  00065	89 18		 mov	 DWORD PTR [eax], ebx
  00067	ff 75 08	 push	 DWORD PTR __First$[ebp]
  0006a	89 58 04	 mov	 DWORD PTR [eax+4], ebx
  0006d	89 58 08	 mov	 DWORD PTR [eax+8], ebx
  00070	89 58 0c	 mov	 DWORD PTR [eax+12], ebx
  00073	8b 4e 10	 mov	 ecx, DWORD PTR [esi+16]
  00076	89 48 10	 mov	 DWORD PTR [eax+16], ecx
  00079	e8 00 00 00 00	 call	 ??$_Chunked_merge@PAULink@BoxSpace@@V?$_Temp_iterator@ULink@BoxSpace@@@std@@HUFn_WalkLess@@@std@@YAXPAULink@BoxSpace@@0V?$_Temp_iterator@ULink@BoxSpace@@@0@HHUFn_WalkLess@@@Z ; std::_Chunked_merge<BoxSpace::Link *,std::_Temp_iterator<BoxSpace::Link>,int,Fn_WalkLess>

; 3966 : 		_Chunked_merge(_Tempbuf._First(), _Tempbuf._Last(), _First,
; 3967 : 			_Chunk *= 2, _Count, _Pred);

  0007e	ff 75 18	 push	 DWORD PTR __Pred$[ebp]
  00081	8b 46 10	 mov	 eax, DWORD PTR [esi+16]
  00084	ff 75 10	 push	 DWORD PTR __Count$[ebp]
  00087	03 ff		 add	 edi, edi
  00089	57		 push	 edi
  0008a	ff 75 08	 push	 DWORD PTR __First$[ebp]
  0008d	ff 70 04	 push	 DWORD PTR [eax+4]
  00090	ff 30		 push	 DWORD PTR [eax]
  00092	e8 00 00 00 00	 call	 ??$_Chunked_merge@PAULink@BoxSpace@@PAU12@HUFn_WalkLess@@@std@@YAXPAULink@BoxSpace@@00HHUFn_WalkLess@@@Z ; std::_Chunked_merge<BoxSpace::Link *,BoxSpace::Link *,int,Fn_WalkLess>
  00097	03 ff		 add	 edi, edi
  00099	83 c4 40	 add	 esp, 64			; 00000040H
  0009c	3b 7d 10	 cmp	 edi, DWORD PTR __Count$[ebp]
  0009f	7c aa		 jl	 SHORT $LL3@Buffered_m
$LN1@Buffered_m:

; 3968 : 		}
; 3969 : 	}

  000a1	5f		 pop	 edi
  000a2	5e		 pop	 esi
  000a3	5b		 pop	 ebx
  000a4	c9		 leave
  000a5	c3		 ret	 0
??$_Buffered_merge_sort@PAULink@BoxSpace@@HU12@UFn_WalkLess@@@std@@YAXPAULink@BoxSpace@@0HAAV?$_Temp_iterator@ULink@BoxSpace@@@0@UFn_WalkLess@@@Z ENDP ; std::_Buffered_merge_sort<BoxSpace::Link *,int,BoxSpace::Link,Fn_WalkLess>
_TEXT	ENDS
PUBLIC	??$_Buffered_merge@PAULink@BoxSpace@@HU12@UFn_WalkLess@@@std@@YAXPAULink@BoxSpace@@00HHAAV?$_Temp_iterator@ULink@BoxSpace@@@0@UFn_WalkLess@@@Z ; std::_Buffered_merge<BoxSpace::Link *,int,BoxSpace::Link,Fn_WalkLess>
; Function compile flags: /Ogsp
;	COMDAT ??$_Buffered_merge@PAULink@BoxSpace@@HU12@UFn_WalkLess@@@std@@YAXPAULink@BoxSpace@@00HHAAV?$_Temp_iterator@ULink@BoxSpace@@@0@UFn_WalkLess@@@Z
_TEXT	SEGMENT
$T516807 = -32						; size = 20
$T516805 = -32						; size = 20
__Midn$508236 = -12					; size = 4
__Lastn$508213 = -8					; size = 4
__Firstn$508212 = -4					; size = 4
__First$ = 8						; size = 4
__Mid$ = 12						; size = 4
__Last$ = 16						; size = 4
tv385 = 20						; size = 4
$T516806 = 20						; size = 4
$T516804 = 20						; size = 4
__Count1$ = 20						; size = 4
__Count2$ = 24						; size = 4
__Tempbuf$ = 28						; size = 4
__Pred$ = 32						; size = 1
??$_Buffered_merge@PAULink@BoxSpace@@HU12@UFn_WalkLess@@@std@@YAXPAULink@BoxSpace@@00HHAAV?$_Temp_iterator@ULink@BoxSpace@@@0@UFn_WalkLess@@@Z PROC ; std::_Buffered_merge<BoxSpace::Link *,int,BoxSpace::Link,Fn_WalkLess>, COMDAT

; 3414 : 	{	// merge [_First, _Mid) with [_Mid, _Last), using _Pred

  00000	55		 push	 ebp
  00001	8b ec		 mov	 ebp, esp
  00003	83 ec 20	 sub	 esp, 32			; 00000020H
  00006	53		 push	 ebx
  00007	56		 push	 esi

; 3415 : 	if (_Count1 + _Count2 == 2)

  00008	8b 75 18	 mov	 esi, DWORD PTR __Count2$[ebp]
  0000b	57		 push	 edi
  0000c	8b 7d 14	 mov	 edi, DWORD PTR __Count1$[ebp]
  0000f	8d 04 37	 lea	 eax, DWORD PTR [edi+esi]
  00012	83 f8 02	 cmp	 eax, 2
  00015	75 28		 jne	 SHORT $LN9@Buffered_m@2

; 3416 : 		{	// order two one-element partitions
; 3417 : 		if (_DEBUG_LT_PRED(_Pred, *_Mid, *_First))

  00017	8b 4d 0c	 mov	 ecx, DWORD PTR __Mid$[ebp]
  0001a	80 79 03 4c	 cmp	 BYTE PTR [ecx+3], 76	; 0000004cH
  0001e	0f 85 ad 01 00
	00		 jne	 $LN3@Buffered_m@2
  00024	8b 45 08	 mov	 eax, DWORD PTR __First$[ebp]
  00027	80 78 03 4c	 cmp	 BYTE PTR [eax+3], 76	; 0000004cH
  0002b	0f 84 a0 01 00
	00		 je	 $LN3@Buffered_m@2

; 3418 : 			_STD iter_swap(_First, _Mid);

  00031	51		 push	 ecx
  00032	50		 push	 eax
  00033	e8 00 00 00 00	 call	 ??$swap@ULink@BoxSpace@@@std@@YAXAAULink@BoxSpace@@0@Z ; std::swap<BoxSpace::Link>
  00038	59		 pop	 ecx
  00039	59		 pop	 ecx

; 3419 : 		}

  0003a	e9 92 01 00 00	 jmp	 $LN3@Buffered_m@2
$LN9@Buffered_m@2:

; 3420 : 	else if (_Count1 <= _Count2 && _Count1 <= _Tempbuf._Maxlen())

  0003f	8b 5d 1c	 mov	 ebx, DWORD PTR __Tempbuf$[ebp]
  00042	3b fe		 cmp	 edi, esi
  00044	7f 69		 jg	 SHORT $LN6@Buffered_m@2
  00046	8b cb		 mov	 ecx, ebx
  00048	e8 00 00 00 00	 call	 ?_Maxlen@?$_Temp_iterator@ULink@BoxSpace@@@std@@QAEHXZ ; std::_Temp_iterator<BoxSpace::Link>::_Maxlen
  0004d	3b f8		 cmp	 edi, eax
  0004f	7f 5e		 jg	 SHORT $LN6@Buffered_m@2

; 3421 : 		{	// buffer left partition, then merge
; 3422 : 		_Move(_First, _Mid, _Tempbuf._Init());

  00051	8b 43 10	 mov	 eax, DWORD PTR [ebx+16]
  00054	8b 08		 mov	 ecx, DWORD PTR [eax]
  00056	89 48 04	 mov	 DWORD PTR [eax+4], ecx
  00059	83 ec 14	 sub	 esp, 20			; 00000014H
  0005c	8b c4		 mov	 eax, esp
  0005e	33 f6		 xor	 esi, esi
  00060	89 65 14	 mov	 DWORD PTR $T516804[ebp], esp
  00063	ff 75 0c	 push	 DWORD PTR __Mid$[ebp]
  00066	89 30		 mov	 DWORD PTR [eax], esi
  00068	ff 75 08	 push	 DWORD PTR __First$[ebp]
  0006b	89 70 04	 mov	 DWORD PTR [eax+4], esi
  0006e	89 70 08	 mov	 DWORD PTR [eax+8], esi
  00071	89 70 0c	 mov	 DWORD PTR [eax+12], esi
  00074	8b 4b 10	 mov	 ecx, DWORD PTR [ebx+16]
  00077	89 48 10	 mov	 DWORD PTR [eax+16], ecx
  0007a	8d 45 e0	 lea	 eax, DWORD PTR $T516805[ebp]
  0007d	50		 push	 eax
  0007e	e8 00 00 00 00	 call	 ??$_Move@PAULink@BoxSpace@@V?$_Temp_iterator@ULink@BoxSpace@@@std@@@std@@YA?AV?$_Temp_iterator@ULink@BoxSpace@@@0@PAULink@BoxSpace@@0V10@@Z ; std::_Move<BoxSpace::Link *,std::_Temp_iterator<BoxSpace::Link> >
  00083	83 c4 20	 add	 esp, 32			; 00000020H
  00086	39 75 e0	 cmp	 DWORD PTR $T516805[ebp], esi
  00089	74 09		 je	 SHORT $LN36@Buffered_m@2
  0008b	ff 75 e0	 push	 DWORD PTR $T516805[ebp]
  0008e	e8 00 00 00 00	 call	 ??3@YAXPAX@Z		; operator delete
  00093	59		 pop	 ecx
$LN36@Buffered_m@2:

; 3423 : 		_Merge(_Tempbuf._First(), _Tempbuf._Last(),
; 3424 : 			_Mid, _Last, _First, _Pred);

  00094	ff 75 20	 push	 DWORD PTR __Pred$[ebp]
  00097	8b 5b 10	 mov	 ebx, DWORD PTR [ebx+16]
  0009a	ff 75 08	 push	 DWORD PTR __First$[ebp]
  0009d	ff 75 10	 push	 DWORD PTR __Last$[ebp]
  000a0	ff 75 0c	 push	 DWORD PTR __Mid$[ebp]
  000a3	ff 73 04	 push	 DWORD PTR [ebx+4]
  000a6	ff 33		 push	 DWORD PTR [ebx]
  000a8	e8 00 00 00 00	 call	 ??$_Merge@PAULink@BoxSpace@@PAU12@PAU12@UFn_WalkLess@@@std@@YAPAULink@BoxSpace@@PAU12@0000UFn_WalkLess@@@Z ; std::_Merge<BoxSpace::Link *,BoxSpace::Link *,BoxSpace::Link *,Fn_WalkLess>
  000ad	eb 67		 jmp	 SHORT $LN111@Buffered_m@2
$LN6@Buffered_m@2:

; 3425 : 		}
; 3426 : 	else if (_Count2 <= _Tempbuf._Maxlen())

  000af	8b cb		 mov	 ecx, ebx
  000b1	e8 00 00 00 00	 call	 ?_Maxlen@?$_Temp_iterator@ULink@BoxSpace@@@std@@QAEHXZ ; std::_Temp_iterator<BoxSpace::Link>::_Maxlen
  000b6	3b f0		 cmp	 esi, eax
  000b8	7f 64		 jg	 SHORT $LN4@Buffered_m@2

; 3427 : 		{	// buffer right partition, then merge
; 3428 : 		_Move(_Mid, _Last, _Tempbuf._Init());

  000ba	8b 43 10	 mov	 eax, DWORD PTR [ebx+16]
  000bd	8b 08		 mov	 ecx, DWORD PTR [eax]
  000bf	89 48 04	 mov	 DWORD PTR [eax+4], ecx
  000c2	83 ec 14	 sub	 esp, 20			; 00000014H
  000c5	8b c4		 mov	 eax, esp
  000c7	33 f6		 xor	 esi, esi
  000c9	89 65 14	 mov	 DWORD PTR $T516806[ebp], esp
  000cc	ff 75 10	 push	 DWORD PTR __Last$[ebp]
  000cf	89 30		 mov	 DWORD PTR [eax], esi
  000d1	ff 75 0c	 push	 DWORD PTR __Mid$[ebp]
  000d4	89 70 04	 mov	 DWORD PTR [eax+4], esi
  000d7	89 70 08	 mov	 DWORD PTR [eax+8], esi
  000da	89 70 0c	 mov	 DWORD PTR [eax+12], esi
  000dd	8b 4b 10	 mov	 ecx, DWORD PTR [ebx+16]
  000e0	89 48 10	 mov	 DWORD PTR [eax+16], ecx
  000e3	8d 45 e0	 lea	 eax, DWORD PTR $T516807[ebp]
  000e6	50		 push	 eax
  000e7	e8 00 00 00 00	 call	 ??$_Move@PAULink@BoxSpace@@V?$_Temp_iterator@ULink@BoxSpace@@@std@@@std@@YA?AV?$_Temp_iterator@ULink@BoxSpace@@@0@PAULink@BoxSpace@@0V10@@Z ; std::_Move<BoxSpace::Link *,std::_Temp_iterator<BoxSpace::Link> >
  000ec	83 c4 20	 add	 esp, 32			; 00000020H
  000ef	39 75 e0	 cmp	 DWORD PTR $T516807[ebp], esi
  000f2	74 09		 je	 SHORT $LN56@Buffered_m@2
  000f4	ff 75 e0	 push	 DWORD PTR $T516807[ebp]
  000f7	e8 00 00 00 00	 call	 ??3@YAXPAX@Z		; operator delete
  000fc	59		 pop	 ecx
$LN56@Buffered_m@2:

; 3429 : 		_Merge_backward(_First, _Mid,
; 3430 : 			_Tempbuf._First(), _Tempbuf._Last(), _Last, _Pred);

  000fd	ff 75 20	 push	 DWORD PTR __Pred$[ebp]
  00100	8b 5b 10	 mov	 ebx, DWORD PTR [ebx+16]
  00103	ff 75 10	 push	 DWORD PTR __Last$[ebp]
  00106	ff 73 04	 push	 DWORD PTR [ebx+4]
  00109	ff 33		 push	 DWORD PTR [ebx]
  0010b	ff 75 0c	 push	 DWORD PTR __Mid$[ebp]
  0010e	ff 75 08	 push	 DWORD PTR __First$[ebp]
  00111	e8 00 00 00 00	 call	 ??$_Merge_backward@PAULink@BoxSpace@@PAU12@PAU12@UFn_WalkLess@@@std@@YAPAULink@BoxSpace@@PAU12@0000UFn_WalkLess@@@Z ; std::_Merge_backward<BoxSpace::Link *,BoxSpace::Link *,BoxSpace::Link *,Fn_WalkLess>
$LN111@Buffered_m@2:
  00116	83 c4 18	 add	 esp, 24			; 00000018H

; 3431 : 		}
; 3432 : 	else

  00119	e9 b3 00 00 00	 jmp	 $LN3@Buffered_m@2
$LN4@Buffered_m@2:

; 3441 : 			_Lastn = _STD lower_bound(_Mid, _Last, *_Firstn, _Pred);

  0011e	6a 00		 push	 0
  00120	ff 75 20	 push	 DWORD PTR __Pred$[ebp]
  00123	3b f7		 cmp	 esi, edi
  00125	7d 30		 jge	 SHORT $LN2@Buffered_m@2

; 3433 : 		{	// buffer too small, divide and conquer
; 3434 : 		_BidIt _Firstn, _Lastn;
; 3435 : 		_Diff _Count1n, _Count2n;
; 3436 : 		if (_Count2 < _Count1)
; 3437 : 			{	// left larger, cut it in half and partition right to match
; 3438 : 			_Count1n = _Count1 / 2, _Count2n = 0;

  00127	8b c7		 mov	 eax, edi
  00129	99		 cdq
  0012a	2b c2		 sub	 eax, edx
  0012c	8b f8		 mov	 edi, eax
  0012e	d1 ff		 sar	 edi, 1

; 3439 : 			_Firstn = _First;
; 3440 : 			_STD advance(_Firstn, _Count1n);

  00130	8b c7		 mov	 eax, edi
  00132	c1 e0 05	 shl	 eax, 5
  00135	03 45 08	 add	 eax, DWORD PTR __First$[ebp]

; 3441 : 			_Lastn = _STD lower_bound(_Mid, _Last, *_Firstn, _Pred);

  00138	50		 push	 eax
  00139	ff 75 10	 push	 DWORD PTR __Last$[ebp]
  0013c	89 45 fc	 mov	 DWORD PTR __Firstn$508212[ebp], eax
  0013f	ff 75 0c	 push	 DWORD PTR __Mid$[ebp]
  00142	e8 00 00 00 00	 call	 ??$_Lower_bound@PAULink@BoxSpace@@U12@HUFn_WalkLess@@@std@@YAPAULink@BoxSpace@@PAU12@0ABU12@UFn_WalkLess@@PAH@Z ; std::_Lower_bound<BoxSpace::Link *,BoxSpace::Link,int,Fn_WalkLess>
  00147	8b f0		 mov	 esi, eax
  00149	89 75 f8	 mov	 DWORD PTR __Lastn$508213[ebp], esi

; 3442 : 			_Distance(_Mid, _Lastn, _Count2n);

  0014c	2b 75 0c	 sub	 esi, DWORD PTR __Mid$[ebp]
  0014f	83 c4 14	 add	 esp, 20			; 00000014H
  00152	c1 fe 05	 sar	 esi, 5

; 3443 : 			}
; 3444 : 		else

  00155	eb 2e		 jmp	 SHORT $LN104@Buffered_m@2
$LN2@Buffered_m@2:

; 3445 : 			{	// right larger, cut it in half and partition left to match
; 3446 : 			_Count1n = 0, _Count2n = _Count2 / 2;

  00157	8b c6		 mov	 eax, esi
  00159	99		 cdq
  0015a	2b c2		 sub	 eax, edx
  0015c	8b f0		 mov	 esi, eax
  0015e	d1 fe		 sar	 esi, 1

; 3447 : 			_Lastn = _Mid;
; 3448 : 			_STD advance(_Lastn, _Count2n);

  00160	8b c6		 mov	 eax, esi
  00162	c1 e0 05	 shl	 eax, 5
  00165	03 45 0c	 add	 eax, DWORD PTR __Mid$[ebp]

; 3449 : 			_Firstn = _STD upper_bound(_First, _Mid, *_Lastn, _Pred);

  00168	50		 push	 eax
  00169	ff 75 0c	 push	 DWORD PTR __Mid$[ebp]
  0016c	89 45 f8	 mov	 DWORD PTR __Lastn$508213[ebp], eax
  0016f	ff 75 08	 push	 DWORD PTR __First$[ebp]
  00172	e8 00 00 00 00	 call	 ??$_Upper_bound@PAULink@BoxSpace@@U12@HUFn_WalkLess@@@std@@YAPAULink@BoxSpace@@PAU12@0ABU12@UFn_WalkLess@@PAH@Z ; std::_Upper_bound<BoxSpace::Link *,BoxSpace::Link,int,Fn_WalkLess>
  00177	8b f8		 mov	 edi, eax
  00179	89 7d fc	 mov	 DWORD PTR __Firstn$508212[ebp], edi

; 3450 : 			_Distance(_First, _Firstn, _Count1n);

  0017c	2b 7d 08	 sub	 edi, DWORD PTR __First$[ebp]
  0017f	83 c4 14	 add	 esp, 20			; 00000014H
  00182	c1 ff 05	 sar	 edi, 5
$LN104@Buffered_m@2:

; 3451 : 			}
; 3452 : 		_BidIt _Midn = _Buffered_rotate(_Firstn, _Mid, _Lastn,
; 3453 : 			_Count1 - _Count1n, _Count2n, _Tempbuf);	// rearrange middle

  00185	8b 45 14	 mov	 eax, DWORD PTR __Count1$[ebp]
  00188	53		 push	 ebx
  00189	56		 push	 esi
  0018a	2b c7		 sub	 eax, edi
  0018c	50		 push	 eax
  0018d	ff 75 f8	 push	 DWORD PTR __Lastn$508213[ebp]
  00190	89 45 14	 mov	 DWORD PTR tv385[ebp], eax
  00193	ff 75 0c	 push	 DWORD PTR __Mid$[ebp]
  00196	ff 75 fc	 push	 DWORD PTR __Firstn$508212[ebp]
  00199	e8 00 00 00 00	 call	 ??$_Buffered_rotate@PAULink@BoxSpace@@HU12@@std@@YAPAULink@BoxSpace@@PAU12@00HHAAV?$_Temp_iterator@ULink@BoxSpace@@@0@@Z ; std::_Buffered_rotate<BoxSpace::Link *,int,BoxSpace::Link>

; 3454 : 		_Buffered_merge(_First, _Firstn, _Midn,
; 3455 : 			_Count1n, _Count2n, _Tempbuf, _Pred);	// merge each new part

  0019e	ff 75 20	 push	 DWORD PTR __Pred$[ebp]
  001a1	89 45 f4	 mov	 DWORD PTR __Midn$508236[ebp], eax
  001a4	53		 push	 ebx
  001a5	56		 push	 esi
  001a6	57		 push	 edi
  001a7	50		 push	 eax
  001a8	ff 75 fc	 push	 DWORD PTR __Firstn$508212[ebp]
  001ab	ff 75 08	 push	 DWORD PTR __First$[ebp]
  001ae	e8 00 00 00 00	 call	 ??$_Buffered_merge@PAULink@BoxSpace@@HU12@UFn_WalkLess@@@std@@YAXPAULink@BoxSpace@@00HHAAV?$_Temp_iterator@ULink@BoxSpace@@@0@UFn_WalkLess@@@Z ; std::_Buffered_merge<BoxSpace::Link *,int,BoxSpace::Link,Fn_WalkLess>

; 3456 : 		_Buffered_merge(_Midn, _Lastn, _Last,
; 3457 : 			_Count1 - _Count1n, _Count2 - _Count2n, _Tempbuf, _Pred);

  001b3	ff 75 20	 push	 DWORD PTR __Pred$[ebp]
  001b6	8b 45 18	 mov	 eax, DWORD PTR __Count2$[ebp]
  001b9	53		 push	 ebx
  001ba	2b c6		 sub	 eax, esi
  001bc	50		 push	 eax
  001bd	ff 75 14	 push	 DWORD PTR tv385[ebp]
  001c0	ff 75 10	 push	 DWORD PTR __Last$[ebp]
  001c3	ff 75 f8	 push	 DWORD PTR __Lastn$508213[ebp]
  001c6	ff 75 f4	 push	 DWORD PTR __Midn$508236[ebp]
  001c9	e8 00 00 00 00	 call	 ??$_Buffered_merge@PAULink@BoxSpace@@HU12@UFn_WalkLess@@@std@@YAXPAULink@BoxSpace@@00HHAAV?$_Temp_iterator@ULink@BoxSpace@@@0@UFn_WalkLess@@@Z ; std::_Buffered_merge<BoxSpace::Link *,int,BoxSpace::Link,Fn_WalkLess>
  001ce	83 c4 50	 add	 esp, 80			; 00000050H
$LN3@Buffered_m@2:

; 3458 : 		}
; 3459 : 	}

  001d1	5f		 pop	 edi
  001d2	5e		 pop	 esi
  001d3	5b		 pop	 ebx
  001d4	c9		 leave
  001d5	c3		 ret	 0
??$_Buffered_merge@PAULink@BoxSpace@@HU12@UFn_WalkLess@@@std@@YAXPAULink@BoxSpace@@00HHAAV?$_Temp_iterator@ULink@BoxSpace@@@0@UFn_WalkLess@@@Z ENDP ; std::_Buffered_merge<BoxSpace::Link *,int,BoxSpace::Link,Fn_WalkLess>
_TEXT	ENDS
PUBLIC	??0?$basic_string@DU?$char_traits@D@std@@V?$allocator@D@2@@std@@QAE@ABV01@@Z ; std::basic_string<char,std::char_traits<char>,std::allocator<char> >::basic_string<char,std::char_traits<char>,std::allocator<char> >
; Function compile flags: /Ogsp
; File c:\program files (x86)\microsoft visual studio 10.0\vc\include\xstring
;	COMDAT ??0?$basic_string@DU?$char_traits@D@std@@V?$allocator@D@2@@std@@QAE@ABV01@@Z
_TEXT	SEGMENT
__Right$ = 8						; size = 4
??0?$basic_string@DU?$char_traits@D@std@@V?$allocator@D@2@@std@@QAE@ABV01@@Z PROC ; std::basic_string<char,std::char_traits<char>,std::allocator<char> >::basic_string<char,std::char_traits<char>,std::allocator<char> >, COMDAT
; _this$ = ecx

; 543  : 		{	// construct by copying _Right

  00000	55		 push	 ebp
  00001	8b ec		 mov	 ebp, esp
  00003	56		 push	 esi

; 544  : 		_Tidy();

  00004	33 c0		 xor	 eax, eax

; 545  : 		assign(_Right, 0, npos);

  00006	6a ff		 push	 -1
  00008	8b f1		 mov	 esi, ecx
  0000a	50		 push	 eax
  0000b	ff 75 08	 push	 DWORD PTR __Right$[ebp]
  0000e	c7 46 14 0f 00
	00 00		 mov	 DWORD PTR [esi+20], 15	; 0000000fH
  00015	89 46 10	 mov	 DWORD PTR [esi+16], eax
  00018	88 06		 mov	 BYTE PTR [esi], al
  0001a	e8 00 00 00 00	 call	 ?assign@?$basic_string@DU?$char_traits@D@std@@V?$allocator@D@2@@std@@QAEAAV12@ABV12@II@Z ; std::basic_string<char,std::char_traits<char>,std::allocator<char> >::assign

; 546  : 		}

  0001f	8b c6		 mov	 eax, esi
  00021	5e		 pop	 esi
  00022	5d		 pop	 ebp
  00023	c2 04 00	 ret	 4
??0?$basic_string@DU?$char_traits@D@std@@V?$allocator@D@2@@std@@QAE@ABV01@@Z ENDP ; std::basic_string<char,std::char_traits<char>,std::allocator<char> >::basic_string<char,std::char_traits<char>,std::allocator<char> >
_TEXT	ENDS
PUBLIC	?assign@?$basic_string@DU?$char_traits@D@std@@V?$allocator@D@2@@std@@QAEAAV12@ABV12@@Z ; std::basic_string<char,std::char_traits<char>,std::allocator<char> >::assign
; Function compile flags: /Ogsp
;	COMDAT ?assign@?$basic_string@DU?$char_traits@D@std@@V?$allocator@D@2@@std@@QAEAAV12@ABV12@@Z
_TEXT	SEGMENT
__Right$ = 8						; size = 4
?assign@?$basic_string@DU?$char_traits@D@std@@V?$allocator@D@2@@std@@QAEAAV12@ABV12@@Z PROC ; std::basic_string<char,std::char_traits<char>,std::allocator<char> >::assign, COMDAT
; _this$ = ecx

; 887  : 		{	// assign _Right

  00000	55		 push	 ebp
  00001	8b ec		 mov	 ebp, esp

; 888  : 		return (assign(_Right, 0, npos));

  00003	6a ff		 push	 -1
  00005	6a 00		 push	 0
  00007	ff 75 08	 push	 DWORD PTR __Right$[ebp]
  0000a	e8 00 00 00 00	 call	 ?assign@?$basic_string@DU?$char_traits@D@std@@V?$allocator@D@2@@std@@QAEAAV12@ABV12@II@Z ; std::basic_string<char,std::char_traits<char>,std::allocator<char> >::assign

; 889  : 		}

  0000f	5d		 pop	 ebp
  00010	c2 04 00	 ret	 4
?assign@?$basic_string@DU?$char_traits@D@std@@V?$allocator@D@2@@std@@QAEAAV12@ABV12@@Z ENDP ; std::basic_string<char,std::char_traits<char>,std::allocator<char> >::assign
_TEXT	ENDS
PUBLIC	?assign@?$basic_string@DU?$char_traits@D@std@@V?$allocator@D@2@@std@@QAEAAV12@PBD@Z ; std::basic_string<char,std::char_traits<char>,std::allocator<char> >::assign
; Function compile flags: /Ogsp
;	COMDAT ?assign@?$basic_string@DU?$char_traits@D@std@@V?$allocator@D@2@@std@@QAEAAV12@PBD@Z
_TEXT	SEGMENT
__Ptr$ = 8						; size = 4
?assign@?$basic_string@DU?$char_traits@D@std@@V?$allocator@D@2@@std@@QAEAAV12@PBD@Z PROC ; std::basic_string<char,std::char_traits<char>,std::allocator<char> >::assign, COMDAT
; _this$ = ecx

; 929  : 		{	// assign [_Ptr, <null>)

  00000	55		 push	 ebp
  00001	8b ec		 mov	 ebp, esp

; 930  : 		_DEBUG_POINTER(_Ptr);
; 931  : 		return (assign(_Ptr, _Traits::length(_Ptr)));

  00003	8b 45 08	 mov	 eax, DWORD PTR __Ptr$[ebp]
  00006	8d 50 01	 lea	 edx, DWORD PTR [eax+1]
  00009	53		 push	 ebx
$LL5@assign@3:
  0000a	8a 18		 mov	 bl, BYTE PTR [eax]
  0000c	40		 inc	 eax
  0000d	84 db		 test	 bl, bl
  0000f	75 f9		 jne	 SHORT $LL5@assign@3
  00011	2b c2		 sub	 eax, edx
  00013	50		 push	 eax
  00014	ff 75 08	 push	 DWORD PTR __Ptr$[ebp]
  00017	e8 00 00 00 00	 call	 ?assign@?$basic_string@DU?$char_traits@D@std@@V?$allocator@D@2@@std@@QAEAAV12@PBDI@Z ; std::basic_string<char,std::char_traits<char>,std::allocator<char> >::assign
  0001c	5b		 pop	 ebx

; 932  : 		}

  0001d	5d		 pop	 ebp
  0001e	c2 04 00	 ret	 4
?assign@?$basic_string@DU?$char_traits@D@std@@V?$allocator@D@2@@std@@QAEAAV12@PBD@Z ENDP ; std::basic_string<char,std::char_traits<char>,std::allocator<char> >::assign
_TEXT	ENDS
PUBLIC	?push_back@?$vector@PAUTBlock@?$uni_heap@$0BE@$0IA@@@V?$allocator@PAUTBlock@?$uni_heap@$0BE@$0IA@@@@std@@@std@@QAEX$$QAPAUTBlock@?$uni_heap@$0BE@$0IA@@@@Z ; std::vector<uni_heap<20,128>::TBlock *,std::allocator<uni_heap<20,128>::TBlock *> >::push_back
; Function compile flags: /Ogsp
; File c:\program files (x86)\microsoft visual studio 10.0\vc\include\vector
;	COMDAT ?push_back@?$vector@PAUTBlock@?$uni_heap@$0BE@$0IA@@@V?$allocator@PAUTBlock@?$uni_heap@$0BE@$0IA@@@@std@@@std@@QAEX$$QAPAUTBlock@?$uni_heap@$0BE@$0IA@@@@Z
_TEXT	SEGMENT
__Val$ = 8						; size = 4
?push_back@?$vector@PAUTBlock@?$uni_heap@$0BE@$0IA@@@V?$allocator@PAUTBlock@?$uni_heap@$0BE@$0IA@@@@std@@@std@@QAEX$$QAPAUTBlock@?$uni_heap@$0BE@$0IA@@@@Z PROC ; std::vector<uni_heap<20,128>::TBlock *,std::allocator<uni_heap<20,128>::TBlock *> >::push_back, COMDAT
; _this$ = ecx

; 631  : 		{	// insert element at end

  00000	55		 push	 ebp
  00001	8b ec		 mov	 ebp, esp
  00003	56		 push	 esi
  00004	8b f1		 mov	 esi, ecx

; 632  : 		if (_Inside(_STD addressof(_Val)))

  00006	8b 46 04	 mov	 eax, DWORD PTR [esi+4]
  00009	57		 push	 edi
  0000a	8b 7d 08	 mov	 edi, DWORD PTR __Val$[ebp]
  0000d	3b f8		 cmp	 edi, eax
  0000f	73 27		 jae	 SHORT $LN4@push_back@5
  00011	8b 0e		 mov	 ecx, DWORD PTR [esi]
  00013	3b cf		 cmp	 ecx, edi
  00015	77 21		 ja	 SHORT $LN4@push_back@5

; 633  : 			{	// push back an element
; 634  : 			size_type _Idx = _STD addressof(_Val) - this->_Myfirst;

  00017	2b f9		 sub	 edi, ecx
  00019	c1 ff 02	 sar	 edi, 2

; 635  : 			if (this->_Mylast == this->_Myend)

  0001c	3b 46 08	 cmp	 eax, DWORD PTR [esi+8]
  0001f	75 09		 jne	 SHORT $LN3@push_back@5

; 636  : 				_Reserve(1);

  00021	6a 01		 push	 1
  00023	8b ce		 mov	 ecx, esi
  00025	e8 00 00 00 00	 call	 ?_Reserve@?$vector@PAUTBlock@?$uni_heap@$0BE@$0IA@@@V?$allocator@PAUTBlock@?$uni_heap@$0BE@$0IA@@@@std@@@std@@IAEXI@Z ; std::vector<uni_heap<20,128>::TBlock *,std::allocator<uni_heap<20,128>::TBlock *> >::_Reserve
$LN3@push_back@5:

; 637  : 			_Orphan_range(this->_Mylast, this->_Mylast);
; 638  : 			_Cons_val(this->_Alval,
; 639  : 				this->_Mylast,
; 640  : 				_STD forward<_Ty>(this->_Myfirst[_Idx]));

  0002a	8b 46 04	 mov	 eax, DWORD PTR [esi+4]
  0002d	85 c0		 test	 eax, eax
  0002f	74 20		 je	 SHORT $LN41@push_back@5
  00031	8b 0e		 mov	 ecx, DWORD PTR [esi]
  00033	8b 0c b9	 mov	 ecx, DWORD PTR [ecx+edi*4]

; 641  : 			++this->_Mylast;
; 642  : 			}
; 643  : 		else

  00036	eb 17		 jmp	 SHORT $LN48@push_back@5
$LN4@push_back@5:

; 644  : 			{	// push back a non-element
; 645  : 			if (this->_Mylast == this->_Myend)

  00038	3b 46 08	 cmp	 eax, DWORD PTR [esi+8]
  0003b	75 09		 jne	 SHORT $LN1@push_back@5

; 646  : 				_Reserve(1);

  0003d	6a 01		 push	 1
  0003f	8b ce		 mov	 ecx, esi
  00041	e8 00 00 00 00	 call	 ?_Reserve@?$vector@PAUTBlock@?$uni_heap@$0BE@$0IA@@@V?$allocator@PAUTBlock@?$uni_heap@$0BE@$0IA@@@@std@@@std@@IAEXI@Z ; std::vector<uni_heap<20,128>::TBlock *,std::allocator<uni_heap<20,128>::TBlock *> >::_Reserve
$LN1@push_back@5:

; 647  : 			_Orphan_range(this->_Mylast, this->_Mylast);
; 648  : 			_Cons_val(this->_Alval,
; 649  : 				this->_Mylast,
; 650  : 				_STD forward<_Ty>(_Val));

  00046	8b 46 04	 mov	 eax, DWORD PTR [esi+4]
  00049	85 c0		 test	 eax, eax
  0004b	74 04		 je	 SHORT $LN41@push_back@5
  0004d	8b 0f		 mov	 ecx, DWORD PTR [edi]
$LN48@push_back@5:
  0004f	89 08		 mov	 DWORD PTR [eax], ecx
$LN41@push_back@5:

; 651  : 			++this->_Mylast;

  00051	83 46 04 04	 add	 DWORD PTR [esi+4], 4
  00055	5f		 pop	 edi
  00056	5e		 pop	 esi

; 652  : 			}
; 653  : 		}

  00057	5d		 pop	 ebp
  00058	c2 04 00	 ret	 4
?push_back@?$vector@PAUTBlock@?$uni_heap@$0BE@$0IA@@@V?$allocator@PAUTBlock@?$uni_heap@$0BE@$0IA@@@@std@@@std@@QAEX$$QAPAUTBlock@?$uni_heap@$0BE@$0IA@@@@Z ENDP ; std::vector<uni_heap<20,128>::TBlock *,std::allocator<uni_heap<20,128>::TBlock *> >::push_back
_TEXT	ENDS
PUBLIC	?clear@?$PriorityQueue@PAUDNode@?$AStarSearcher@VBoxSpace@@PAUBox@1@@@UDNodeCostGreater@2@@@QAEXXZ ; PriorityQueue<AStarSearcher<BoxSpace,BoxSpace::Box *>::DNode *,AStarSearcher<BoxSpace,BoxSpace::Box *>::DNodeCostGreater>::clear
; Function compile flags: /Ogsp
; File d:\lost saga for developer\youtube\tutorial\source\src\lsclient\priorityq.h
;	COMDAT ?clear@?$PriorityQueue@PAUDNode@?$AStarSearcher@VBoxSpace@@PAUBox@1@@@UDNodeCostGreater@2@@@QAEXXZ
_TEXT	SEGMENT
$T517274 = -4						; size = 4
?clear@?$PriorityQueue@PAUDNode@?$AStarSearcher@VBoxSpace@@PAUBox@1@@@UDNodeCostGreater@2@@@QAEXXZ PROC ; PriorityQueue<AStarSearcher<BoxSpace,BoxSpace::Box *>::DNode *,AStarSearcher<BoxSpace,BoxSpace::Box *>::DNodeCostGreater>::clear, COMDAT
; _this$ = ecx

; 57   : 	void clear()					{ m_heap.clear(); }

  00000	55		 push	 ebp
  00001	8b ec		 mov	 ebp, esp
  00003	51		 push	 ecx
  00004	8b 41 08	 mov	 eax, DWORD PTR [ecx+8]
  00007	83 c1 04	 add	 ecx, 4
  0000a	8b 11		 mov	 edx, DWORD PTR [ecx]
  0000c	50		 push	 eax
  0000d	52		 push	 edx
  0000e	8d 45 fc	 lea	 eax, DWORD PTR $T517274[ebp]
  00011	50		 push	 eax
  00012	e8 00 00 00 00	 call	 ?erase@?$vector@PAUDNode@?$AStarSearcher@VBoxSpace@@PAUBox@1@@@V?$allocator@PAUDNode@?$AStarSearcher@VBoxSpace@@PAUBox@1@@@@std@@@std@@QAE?AV?$_Vector_iterator@V?$_Vector_val@PAUDNode@?$AStarSearcher@VBoxSpace@@PAUBox@1@@@V?$allocator@PAUDNode@?$AStarSearcher@VBoxSpace@@PAUBox@1@@@@std@@@std@@@2@V?$_Vector_const_iterator@V?$_Vector_val@PAUDNode@?$AStarSearcher@VBoxSpace@@PAUBox@1@@@V?$allocator@PAUDNode@?$AStarSearcher@VBoxSpace@@PAUBox@1@@@@std@@@std@@@2@0@Z ; std::vector<AStarSearcher<BoxSpace,BoxSpace::Box *>::DNode *,std::allocator<AStarSearcher<BoxSpace,BoxSpace::Box *>::DNode *> >::erase
  00017	c9		 leave
  00018	c3		 ret	 0
?clear@?$PriorityQueue@PAUDNode@?$AStarSearcher@VBoxSpace@@PAUBox@1@@@UDNodeCostGreater@2@@@QAEXXZ ENDP ; PriorityQueue<AStarSearcher<BoxSpace,BoxSpace::Box *>::DNode *,AStarSearcher<BoxSpace,BoxSpace::Box *>::DNodeCostGreater>::clear
_TEXT	ENDS
PUBLIC	?clear@?$uni_heap@$0BE@$0IA@@@QAEXXZ		; uni_heap<20,128>::clear
; Function compile flags: /Ogsp
; File d:\lost saga for developer\youtube\tutorial\source\src\lsclient\uniheap.h
;	COMDAT ?clear@?$uni_heap@$0BE@$0IA@@@QAEXXZ
_TEXT	SEGMENT
$T517463 = -4						; size = 4
$T517299 = -4						; size = 4
?clear@?$uni_heap@$0BE@$0IA@@@QAEXXZ PROC		; uni_heap<20,128>::clear, COMDAT
; _this$ = ecx

; 36   : 	{

  00000	55		 push	 ebp
  00001	8b ec		 mov	 ebp, esp
  00003	51		 push	 ecx
  00004	56		 push	 esi
  00005	8b f1		 mov	 esi, ecx
  00007	57		 push	 edi

; 37   : 		std::vector< TBlock* >::iterator it;
; 38   : 		for ( it = m_blocks.begin(); it != m_blocks.end(); it++ ) 

  00008	8b 3e		 mov	 edi, DWORD PTR [esi]
  0000a	eb 0b		 jmp	 SHORT $LN65@clear
$LL25@clear:

; 39   : 			delete *it;

  0000c	ff 37		 push	 DWORD PTR [edi]
  0000e	e8 00 00 00 00	 call	 ??3@YAXPAX@Z		; operator delete
  00013	59		 pop	 ecx
  00014	83 c7 04	 add	 edi, 4
$LN65@clear:

; 37   : 		std::vector< TBlock* >::iterator it;
; 38   : 		for ( it = m_blocks.begin(); it != m_blocks.end(); it++ ) 

  00017	3b 7e 04	 cmp	 edi, DWORD PTR [esi+4]
  0001a	75 f0		 jne	 SHORT $LL25@clear

; 40   : 
; 41   : 		m_blocks.clear();

  0001c	8b 46 04	 mov	 eax, DWORD PTR [esi+4]
  0001f	8b 0e		 mov	 ecx, DWORD PTR [esi]
  00021	50		 push	 eax
  00022	51		 push	 ecx
  00023	8d 45 fc	 lea	 eax, DWORD PTR $T517463[ebp]
  00026	50		 push	 eax
  00027	8b ce		 mov	 ecx, esi
  00029	e8 00 00 00 00	 call	 ?erase@?$vector@PAUTBlock@?$uni_heap@$0BE@$0IA@@@V?$allocator@PAUTBlock@?$uni_heap@$0BE@$0IA@@@@std@@@std@@QAE?AV?$_Vector_iterator@V?$_Vector_val@PAUTBlock@?$uni_heap@$0BE@$0IA@@@V?$allocator@PAUTBlock@?$uni_heap@$0BE@$0IA@@@@std@@@std@@@2@V?$_Vector_const_iterator@V?$_Vector_val@PAUTBlock@?$uni_heap@$0BE@$0IA@@@V?$allocator@PAUTBlock@?$uni_heap@$0BE@$0IA@@@@std@@@std@@@2@0@Z ; std::vector<uni_heap<20,128>::TBlock *,std::allocator<uni_heap<20,128>::TBlock *> >::erase

; 42   : 		m_blocks.push_back( new TBlock() );

  0002e	68 04 0b 00 00	 push	 2820			; 00000b04H
  00033	e8 00 00 00 00	 call	 ??2@YAPAXI@Z		; operator new
  00038	59		 pop	 ecx
  00039	85 c0		 test	 eax, eax
  0003b	74 09		 je	 SHORT $LN6@clear
  0003d	8b c8		 mov	 ecx, eax
  0003f	e8 00 00 00 00	 call	 ??0TBlock@?$uni_heap@$0BE@$0IA@@@QAE@XZ ; uni_heap<20,128>::TBlock::TBlock
  00044	eb 02		 jmp	 SHORT $LN7@clear
$LN6@clear:
  00046	33 c0		 xor	 eax, eax
$LN7@clear:
  00048	89 45 fc	 mov	 DWORD PTR $T517299[ebp], eax
  0004b	8d 45 fc	 lea	 eax, DWORD PTR $T517299[ebp]
  0004e	50		 push	 eax
  0004f	8b ce		 mov	 ecx, esi
  00051	e8 00 00 00 00	 call	 ?push_back@?$vector@PAUTBlock@?$uni_heap@$0BE@$0IA@@@V?$allocator@PAUTBlock@?$uni_heap@$0BE@$0IA@@@@std@@@std@@QAEX$$QAPAUTBlock@?$uni_heap@$0BE@$0IA@@@@Z ; std::vector<uni_heap<20,128>::TBlock *,std::allocator<uni_heap<20,128>::TBlock *> >::push_back
  00056	5f		 pop	 edi
  00057	5e		 pop	 esi

; 43   : 	}

  00058	c9		 leave
  00059	c3		 ret	 0
?clear@?$uni_heap@$0BE@$0IA@@@QAEXXZ ENDP		; uni_heap<20,128>::clear
_TEXT	ENDS
PUBLIC	?_Destroy@?$vector@ULink@BoxSpace@@V?$allocator@ULink@BoxSpace@@@std@@@std@@IAEXPAULink@BoxSpace@@0@Z ; std::vector<BoxSpace::Link,std::allocator<BoxSpace::Link> >::_Destroy
; Function compile flags: /Ogsp
; File c:\program files (x86)\microsoft visual studio 10.0\vc\include\vector
;	COMDAT ?_Destroy@?$vector@ULink@BoxSpace@@V?$allocator@ULink@BoxSpace@@@std@@@std@@IAEXPAULink@BoxSpace@@0@Z
_TEXT	SEGMENT
__First$ = 8						; size = 4
__Last$ = 12						; size = 4
?_Destroy@?$vector@ULink@BoxSpace@@V?$allocator@ULink@BoxSpace@@@std@@@std@@IAEXPAULink@BoxSpace@@0@Z PROC ; std::vector<BoxSpace::Link,std::allocator<BoxSpace::Link> >::_Destroy, COMDAT
; _this$ = ecx

; 1270 : 		_Destroy_range(_First, _Last, this->_Alval);
; 1271 : 		}

  00000	c2 08 00	 ret	 8
?_Destroy@?$vector@ULink@BoxSpace@@V?$allocator@ULink@BoxSpace@@@std@@@std@@IAEXPAULink@BoxSpace@@0@Z ENDP ; std::vector<BoxSpace::Link,std::allocator<BoxSpace::Link> >::_Destroy
_TEXT	ENDS
PUBLIC	?push@?$PriorityQueue@PAUDNode@?$AStarSearcher@VBoxSpace@@PAUBox@1@@@UDNodeCostGreater@2@@@QAEXABQAUDNode@?$AStarSearcher@VBoxSpace@@PAUBox@1@@@@Z ; PriorityQueue<AStarSearcher<BoxSpace,BoxSpace::Box *>::DNode *,AStarSearcher<BoxSpace,BoxSpace::Box *>::DNodeCostGreater>::push
; Function compile flags: /Ogsp
; File d:\lost saga for developer\youtube\tutorial\source\src\lsclient\priorityq.h
;	COMDAT ?push@?$PriorityQueue@PAUDNode@?$AStarSearcher@VBoxSpace@@PAUBox@1@@@UDNodeCostGreater@2@@@QAEXABQAUDNode@?$AStarSearcher@VBoxSpace@@PAUBox@1@@@@Z
_TEXT	SEGMENT
_node$ = 8						; size = 4
?push@?$PriorityQueue@PAUDNode@?$AStarSearcher@VBoxSpace@@PAUBox@1@@@UDNodeCostGreater@2@@@QAEXABQAUDNode@?$AStarSearcher@VBoxSpace@@PAUBox@1@@@@Z PROC ; PriorityQueue<AStarSearcher<BoxSpace,BoxSpace::Box *>::DNode *,AStarSearcher<BoxSpace,BoxSpace::Box *>::DNodeCostGreater>::push, COMDAT
; _this$ = ecx

; 12   : 	{

  00000	55		 push	 ebp
  00001	8b ec		 mov	 ebp, esp
  00003	56		 push	 esi
  00004	57		 push	 edi

; 13   : 		m_heap.push_back( node );

  00005	ff 75 08	 push	 DWORD PTR _node$[ebp]
  00008	8b f1		 mov	 esi, ecx
  0000a	8d 4e 04	 lea	 ecx, DWORD PTR [esi+4]
  0000d	e8 00 00 00 00	 call	 ?push_back@?$vector@PAUDNode@?$AStarSearcher@VBoxSpace@@PAUBox@1@@@V?$allocator@PAUDNode@?$AStarSearcher@VBoxSpace@@PAUBox@1@@@@std@@@std@@QAEXABQAUDNode@?$AStarSearcher@VBoxSpace@@PAUBox@1@@@@Z ; std::vector<AStarSearcher<BoxSpace,BoxSpace::Box *>::DNode *,std::allocator<AStarSearcher<BoxSpace,BoxSpace::Box *>::DNode *> >::push_back

; 14   : 		std::push_heap( m_heap.begin(), m_heap.end(), m_pred );

  00012	0f b6 0e	 movzx	 ecx, BYTE PTR [esi]
  00015	8b 46 08	 mov	 eax, DWORD PTR [esi+8]
  00018	8b 7e 04	 mov	 edi, DWORD PTR [esi+4]
  0001b	51		 push	 ecx
  0001c	50		 push	 eax
  0001d	57		 push	 edi
  0001e	e8 00 00 00 00	 call	 ??$push_heap@V?$_Vector_iterator@V?$_Vector_val@PAUDNode@?$AStarSearcher@VBoxSpace@@PAUBox@1@@@V?$allocator@PAUDNode@?$AStarSearcher@VBoxSpace@@PAUBox@1@@@@std@@@std@@@std@@UDNodeCostGreater@?$AStarSearcher@VBoxSpace@@PAUBox@1@@@@std@@YAXV?$_Vector_iterator@V?$_Vector_val@PAUDNode@?$AStarSearcher@VBoxSpace@@PAUBox@1@@@V?$allocator@PAUDNode@?$AStarSearcher@VBoxSpace@@PAUBox@1@@@@std@@@std@@@0@0UDNodeCostGreater@?$AStarSearcher@VBoxSpace@@PAUBox@1@@@@Z ; std::push_heap<std::_Vector_iterator<std::_Vector_val<AStarSearcher<BoxSpace,BoxSpace::Box *>::DNode *,std::allocator<AStarSearcher<BoxSpace,BoxSpace::Box *>::DNode *> > >,AStarSearcher<BoxSpace,BoxSpace::Box *>::DNodeCostGreater>
  00023	83 c4 0c	 add	 esp, 12			; 0000000cH
  00026	5f		 pop	 edi
  00027	5e		 pop	 esi

; 15   : 	}

  00028	5d		 pop	 ebp
  00029	c2 04 00	 ret	 4
?push@?$PriorityQueue@PAUDNode@?$AStarSearcher@VBoxSpace@@PAUBox@1@@@UDNodeCostGreater@2@@@QAEXABQAUDNode@?$AStarSearcher@VBoxSpace@@PAUBox@1@@@@Z ENDP ; PriorityQueue<AStarSearcher<BoxSpace,BoxSpace::Box *>::DNode *,AStarSearcher<BoxSpace,BoxSpace::Box *>::DNodeCostGreater>::push
_TEXT	ENDS
PUBLIC	?reserve@?$vector@ULink@BoxSpace@@V?$allocator@ULink@BoxSpace@@@std@@@std@@QAEXI@Z ; std::vector<BoxSpace::Link,std::allocator<BoxSpace::Link> >::reserve
;	COMDAT xdata$x
; File c:\program files (x86)\microsoft visual studio 10.0\vc\include\xmemory
xdata$x	SEGMENT
__catchsym$?reserve@?$vector@ULink@BoxSpace@@V?$allocator@ULink@BoxSpace@@@std@@@std@@QAEXI@Z$2 DD 040H
	DD	00H
	DD	00H
	DD	FLAT:__catch$?reserve@?$vector@ULink@BoxSpace@@V?$allocator@ULink@BoxSpace@@@std@@@std@@QAEXI@Z$0
__unwindtable$?reserve@?$vector@ULink@BoxSpace@@V?$allocator@ULink@BoxSpace@@@std@@@std@@QAEXI@Z DD 0ffffffffH
	DD	00H
	DD	0ffffffffH
	DD	00H
__tryblocktable$?reserve@?$vector@ULink@BoxSpace@@V?$allocator@ULink@BoxSpace@@@std@@@std@@QAEXI@Z DD 00H
	DD	00H
	DD	01H
	DD	01H
	DD	FLAT:__catchsym$?reserve@?$vector@ULink@BoxSpace@@V?$allocator@ULink@BoxSpace@@@std@@@std@@QAEXI@Z$2
__ehfuncinfo$?reserve@?$vector@ULink@BoxSpace@@V?$allocator@ULink@BoxSpace@@@std@@@std@@QAEXI@Z DD 019930522H
	DD	02H
	DD	FLAT:__unwindtable$?reserve@?$vector@ULink@BoxSpace@@V?$allocator@ULink@BoxSpace@@@std@@@std@@QAEXI@Z
	DD	01H
	DD	FLAT:__tryblocktable$?reserve@?$vector@ULink@BoxSpace@@V?$allocator@ULink@BoxSpace@@@std@@@std@@QAEXI@Z
	DD	2 DUP(00H)
	DD	00H
	DD	01H
; Function compile flags: /Ogsp
; File c:\program files (x86)\microsoft visual studio 10.0\vc\include\vector
xdata$x	ENDS
;	COMDAT ?reserve@?$vector@ULink@BoxSpace@@V?$allocator@ULink@BoxSpace@@@std@@@std@@QAEXI@Z
_TEXT	SEGMENT
__$EHRec$ = -16						; size = 16
__Ptr$506259 = 8					; size = 4
__Count$ = 8						; size = 4
?reserve@?$vector@ULink@BoxSpace@@V?$allocator@ULink@BoxSpace@@@std@@@std@@QAEXI@Z PROC ; std::vector<BoxSpace::Link,std::allocator<BoxSpace::Link> >::reserve, COMDAT
; _this$ = ecx

; 746  : 		{	// determine new minimum length of allocated storage

  00000	6a 04		 push	 4
  00002	b8 00 00 00 00	 mov	 eax, __ehhandler$?reserve@?$vector@ULink@BoxSpace@@V?$allocator@ULink@BoxSpace@@@std@@@std@@QAEXI@Z
  00007	e8 00 00 00 00	 call	 __EH_prolog3_catch
  0000c	8b f1		 mov	 esi, ecx

; 747  : 		if (max_size() < _Count)

  0000e	8b 5d 08	 mov	 ebx, DWORD PTR __Count$[ebp]
  00011	81 fb ff ff ff
	07		 cmp	 ebx, 134217727		; 07ffffffH
  00017	76 0b		 jbe	 SHORT $LN5@reserve@5

; 748  : 			_Xlen();	// result too long

  00019	68 00 00 00 00	 push	 OFFSET ??_C@_0BD@OLBABOEK@vector?$DMT?$DO?5too?5long?$AA@
  0001e	ff 15 00 00 00
	00		 call	 DWORD PTR __imp_?_Xlength_error@std@@YAXPBD@Z
$LN56@reserve@5:
$LN5@reserve@5:

; 749  : 		else if (capacity() < _Count)

  00024	8b 46 08	 mov	 eax, DWORD PTR [esi+8]
  00027	2b 06		 sub	 eax, DWORD PTR [esi]
  00029	c1 f8 05	 sar	 eax, 5
  0002c	3b c3		 cmp	 eax, ebx
  0002e	73 64		 jae	 SHORT $LN3@reserve@5

; 750  : 			{	// not enough room, reallocate
; 751  : 			pointer _Ptr = this->_Alval.allocate(_Count);

  00030	6a 00		 push	 0
  00032	53		 push	 ebx
  00033	e8 00 00 00 00	 call	 ??$_Allocate@ULink@BoxSpace@@@std@@YAPAULink@BoxSpace@@IPAU12@@Z ; std::_Allocate<BoxSpace::Link>

; 752  : 
; 753  : 			_TRY_BEGIN
; 754  : 			_Umove(this->_Myfirst, this->_Mylast, _Ptr);

  00038	8b 0e		 mov	 ecx, DWORD PTR [esi]
  0003a	83 65 fc 00	 and	 DWORD PTR __$EHRec$[ebp+12], 0
  0003e	8d 56 0c	 lea	 edx, DWORD PTR [esi+12]
  00041	52		 push	 edx
  00042	89 45 08	 mov	 DWORD PTR __Ptr$506259[ebp], eax
  00045	ff 75 08	 push	 DWORD PTR __Ptr$506259[ebp]
  00048	8b 46 04	 mov	 eax, DWORD PTR [esi+4]
  0004b	50		 push	 eax
  0004c	51		 push	 ecx
  0004d	e8 00 00 00 00	 call	 ??$_Uninitialized_move@PAULink@BoxSpace@@PAU12@V?$allocator@ULink@BoxSpace@@@std@@@std@@YAPAULink@BoxSpace@@PAU12@00AAV?$allocator@ULink@BoxSpace@@@0@@Z ; std::_Uninitialized_move<BoxSpace::Link *,BoxSpace::Link *,std::allocator<BoxSpace::Link> >

; 758  : 			_CATCH_END
; 759  : 
; 760  : 			size_type _Size = size();

  00052	8b 4e 04	 mov	 ecx, DWORD PTR [esi+4]
  00055	8b 06		 mov	 eax, DWORD PTR [esi]
  00057	83 4d fc ff	 or	 DWORD PTR __$EHRec$[ebp+12], -1
  0005b	8b f9		 mov	 edi, ecx
  0005d	83 c4 18	 add	 esp, 24			; 00000018H
  00060	2b f8		 sub	 edi, eax
  00062	85 c0		 test	 eax, eax
  00064	74 11		 je	 SHORT $LN48@reserve@5

; 761  : 			if (this->_Myfirst != 0)

  00066	eb 03		 jmp	 SHORT $LN55@reserve@5

; 762  : 				{	// destroy and deallocate old array
; 763  : 				_Destroy(this->_Myfirst, this->_Mylast);

$LL39@reserve@5:
  00068	83 c0 20	 add	 eax, 32			; 00000020H
$LN55@reserve@5:
  0006b	3b c1		 cmp	 eax, ecx
  0006d	75 f9		 jne	 SHORT $LL39@reserve@5

; 764  : 				this->_Alval.deallocate(this->_Myfirst,
; 765  : 					this->_Myend - this->_Myfirst);

  0006f	ff 36		 push	 DWORD PTR [esi]
  00071	e8 00 00 00 00	 call	 ??3@YAXPAX@Z		; operator delete
  00076	59		 pop	 ecx
$LN48@reserve@5:

; 766  : 				}
; 767  : 
; 768  : 			this->_Orphan_all();

  00077	8b ce		 mov	 ecx, esi
  00079	ff 15 00 00 00
	00		 call	 DWORD PTR __imp_?_Orphan_all@_Container_base0@std@@QAEXXZ

; 769  : 			this->_Myend = _Ptr + _Count;

  0007f	8b 45 08	 mov	 eax, DWORD PTR __Ptr$506259[ebp]
  00082	c1 e3 05	 shl	 ebx, 5
  00085	03 d8		 add	 ebx, eax

; 770  : 			this->_Mylast = _Ptr + _Size;

  00087	83 e7 e0	 and	 edi, -32		; ffffffe0H
  0008a	03 f8		 add	 edi, eax
  0008c	89 5e 08	 mov	 DWORD PTR [esi+8], ebx
  0008f	89 7e 04	 mov	 DWORD PTR [esi+4], edi

; 771  : 			this->_Myfirst = _Ptr;

  00092	89 06		 mov	 DWORD PTR [esi], eax
$LN3@reserve@5:

; 772  : 			}
; 773  : 		}

  00094	e8 00 00 00 00	 call	 __EH_epilog3
  00099	c2 04 00	 ret	 4
__catch$?reserve@?$vector@ULink@BoxSpace@@V?$allocator@ULink@BoxSpace@@@std@@@std@@QAEXI@Z$0:

; 755  : 			_CATCH_ALL
; 756  : 			this->_Alval.deallocate(_Ptr, _Count);

  0009c	ff 75 08	 push	 DWORD PTR __Ptr$506259[ebp]
  0009f	e8 00 00 00 00	 call	 ??3@YAXPAX@Z		; operator delete
  000a4	59		 pop	 ecx

; 757  : 			_RERAISE;

  000a5	6a 00		 push	 0
  000a7	6a 00		 push	 0
  000a9	e8 00 00 00 00	 call	 __CxxThrowException@8
$LN57@reserve@5:
$LN54@reserve@5:
  000ae	cc		 int	 3
_TEXT	ENDS
;	COMDAT text$x
text$x	SEGMENT
__ehhandler$?reserve@?$vector@ULink@BoxSpace@@V?$allocator@ULink@BoxSpace@@@std@@@std@@QAEXI@Z:
  00000	8b 54 24 08	 mov	 edx, DWORD PTR [esp+8]
  00004	8d 42 0c	 lea	 eax, DWORD PTR [edx+12]
  00007	8b 4a ec	 mov	 ecx, DWORD PTR [edx-20]
  0000a	33 c8		 xor	 ecx, eax
  0000c	e8 00 00 00 00	 call	 @__security_check_cookie@4
  00011	b8 00 00 00 00	 mov	 eax, OFFSET __ehfuncinfo$?reserve@?$vector@ULink@BoxSpace@@V?$allocator@ULink@BoxSpace@@@std@@@std@@QAEXI@Z
  00016	e9 00 00 00 00	 jmp	 ___CxxFrameHandler3
text$x	ENDS
?reserve@?$vector@ULink@BoxSpace@@V?$allocator@ULink@BoxSpace@@@std@@@std@@QAEXI@Z ENDP ; std::vector<BoxSpace::Link,std::allocator<BoxSpace::Link> >::reserve
PUBLIC	?constructPath@?$AStarSearcher@VBoxSpace@@PAUBox@1@@@AAEXPAUDNode@1@@Z ; AStarSearcher<BoxSpace,BoxSpace::Box *>::constructPath
; Function compile flags: /Ogsp
; File d:\lost saga for developer\youtube\tutorial\source\src\lsclient\astar.h
;	COMDAT ?constructPath@?$AStarSearcher@VBoxSpace@@PAUBox@1@@@AAEXPAUDNode@1@@Z
_TEXT	SEGMENT
$T517730 = 8						; size = 4
_dn$ = 8						; size = 4
?constructPath@?$AStarSearcher@VBoxSpace@@PAUBox@1@@@AAEXPAUDNode@1@@Z PROC ; AStarSearcher<BoxSpace,BoxSpace::Box *>::constructPath, COMDAT
; _this$ = ecx

; 145  : 	{

  00000	55		 push	 ebp
  00001	8b ec		 mov	 ebp, esp
  00003	56		 push	 esi

; 146  : 		for (;; dn = dn->parent )
; 147  : 		{
; 148  : 			m_resultPath.push_back( &dn->node );

  00004	8b 75 08	 mov	 esi, DWORD PTR _dn$[ebp]
  00007	57		 push	 edi
  00008	8d 79 30	 lea	 edi, DWORD PTR [ecx+48]
$LL4@constructP:
  0000b	8d 45 08	 lea	 eax, DWORD PTR $T517730[ebp]
  0000e	50		 push	 eax
  0000f	8b cf		 mov	 ecx, edi
  00011	89 75 08	 mov	 DWORD PTR $T517730[ebp], esi
  00014	e8 00 00 00 00	 call	 ?push_back@?$vector@PBQAUBox@BoxSpace@@V?$allocator@PBQAUBox@BoxSpace@@@std@@@std@@QAEX$$QAPBQAUBox@BoxSpace@@@Z ; std::vector<BoxSpace::Box * const *,std::allocator<BoxSpace::Box * const *> >::push_back

; 149  : 			if ( dn->parent == NULL )

  00019	8b 76 04	 mov	 esi, DWORD PTR [esi+4]
  0001c	85 f6		 test	 esi, esi
  0001e	75 eb		 jne	 SHORT $LL4@constructP
  00020	5f		 pop	 edi
  00021	5e		 pop	 esi

; 150  : 				break;
; 151  : 		}
; 152  : 	}

  00022	5d		 pop	 ebp
  00023	c2 04 00	 ret	 4
?constructPath@?$AStarSearcher@VBoxSpace@@PAUBox@1@@@AAEXPAUDNode@1@@Z ENDP ; AStarSearcher<BoxSpace,BoxSpace::Box *>::constructPath
_TEXT	ENDS
PUBLIC	?pop@?$PriorityQueue@PAUDNode@?$AStarSearcher@VBoxSpace@@PAUBox@1@@@UDNodeCostGreater@2@@@QAE_NAAPAUDNode@?$AStarSearcher@VBoxSpace@@PAUBox@1@@@@Z ; PriorityQueue<AStarSearcher<BoxSpace,BoxSpace::Box *>::DNode *,AStarSearcher<BoxSpace,BoxSpace::Box *>::DNodeCostGreater>::pop
; Function compile flags: /Ogsp
; File d:\lost saga for developer\youtube\tutorial\source\src\lsclient\priorityq.h
;	COMDAT ?pop@?$PriorityQueue@PAUDNode@?$AStarSearcher@VBoxSpace@@PAUBox@1@@@UDNodeCostGreater@2@@@QAE_NAAPAUDNode@?$AStarSearcher@VBoxSpace@@PAUBox@1@@@@Z
_TEXT	SEGMENT
_node$ = 8						; size = 4
?pop@?$PriorityQueue@PAUDNode@?$AStarSearcher@VBoxSpace@@PAUBox@1@@@UDNodeCostGreater@2@@@QAE_NAAPAUDNode@?$AStarSearcher@VBoxSpace@@PAUBox@1@@@@Z PROC ; PriorityQueue<AStarSearcher<BoxSpace,BoxSpace::Box *>::DNode *,AStarSearcher<BoxSpace,BoxSpace::Box *>::DNodeCostGreater>::pop, COMDAT
; _this$ = ecx

; 31   : 	{

  00000	55		 push	 ebp
  00001	8b ec		 mov	 ebp, esp
  00003	56		 push	 esi
  00004	8b f1		 mov	 esi, ecx

; 32   : 		if ( m_heap.empty() )

  00006	8b 46 04	 mov	 eax, DWORD PTR [esi+4]
  00009	3b 46 08	 cmp	 eax, DWORD PTR [esi+8]
  0000c	75 04		 jne	 SHORT $LN1@pop

; 33   : 			return false;

  0000e	32 c0		 xor	 al, al
  00010	eb 2b		 jmp	 SHORT $LN2@pop
$LN1@pop:

; 34   : 
; 35   : 		node = m_heap.front();

  00012	8b 00		 mov	 eax, DWORD PTR [eax]
  00014	8b 4d 08	 mov	 ecx, DWORD PTR _node$[ebp]
  00017	89 01		 mov	 DWORD PTR [ecx], eax

; 36   : 		std::pop_heap( m_heap.begin(), m_heap.end(), m_pred );

  00019	0f b6 16	 movzx	 edx, BYTE PTR [esi]
  0001c	8b 46 08	 mov	 eax, DWORD PTR [esi+8]
  0001f	8b 4e 04	 mov	 ecx, DWORD PTR [esi+4]
  00022	52		 push	 edx
  00023	50		 push	 eax
  00024	51		 push	 ecx
  00025	e8 00 00 00 00	 call	 ??$pop_heap@V?$_Vector_iterator@V?$_Vector_val@PAUDNode@?$AStarSearcher@VBoxSpace@@PAUBox@1@@@V?$allocator@PAUDNode@?$AStarSearcher@VBoxSpace@@PAUBox@1@@@@std@@@std@@@std@@UDNodeCostGreater@?$AStarSearcher@VBoxSpace@@PAUBox@1@@@@std@@YAXV?$_Vector_iterator@V?$_Vector_val@PAUDNode@?$AStarSearcher@VBoxSpace@@PAUBox@1@@@V?$allocator@PAUDNode@?$AStarSearcher@VBoxSpace@@PAUBox@1@@@@std@@@std@@@0@0UDNodeCostGreater@?$AStarSearcher@VBoxSpace@@PAUBox@1@@@@Z ; std::pop_heap<std::_Vector_iterator<std::_Vector_val<AStarSearcher<BoxSpace,BoxSpace::Box *>::DNode *,std::allocator<AStarSearcher<BoxSpace,BoxSpace::Box *>::DNode *> > >,AStarSearcher<BoxSpace,BoxSpace::Box *>::DNodeCostGreater>

; 37   : 		m_heap.pop_back();

  0002a	8b 46 08	 mov	 eax, DWORD PTR [esi+8]
  0002d	83 c4 0c	 add	 esp, 12			; 0000000cH
  00030	39 46 04	 cmp	 DWORD PTR [esi+4], eax
  00033	74 06		 je	 SHORT $LN36@pop
  00035	83 c0 fc	 add	 eax, -4			; fffffffcH
  00038	89 46 08	 mov	 DWORD PTR [esi+8], eax
$LN36@pop:

; 38   : 		return true;

  0003b	b0 01		 mov	 al, 1
$LN2@pop:
  0003d	5e		 pop	 esi

; 39   : 	}

  0003e	5d		 pop	 ebp
  0003f	c2 04 00	 ret	 4
?pop@?$PriorityQueue@PAUDNode@?$AStarSearcher@VBoxSpace@@PAUBox@1@@@UDNodeCostGreater@2@@@QAE_NAAPAUDNode@?$AStarSearcher@VBoxSpace@@PAUBox@1@@@@Z ENDP ; PriorityQueue<AStarSearcher<BoxSpace,BoxSpace::Box *>::DNode *,AStarSearcher<BoxSpace,BoxSpace::Box *>::DNodeCostGreater>::pop
_TEXT	ENDS
PUBLIC	?alloc@?$uni_heap@$0BE@$0IA@@@QAEPAXXZ		; uni_heap<20,128>::alloc
; Function compile flags: /Ogsp
; File d:\lost saga for developer\youtube\tutorial\source\src\lsclient\uniheap.h
;	COMDAT ?alloc@?$uni_heap@$0BE@$0IA@@@QAEPAXXZ
_TEXT	SEGMENT
$T517880 = -4						; size = 4
?alloc@?$uni_heap@$0BE@$0IA@@@QAEPAXXZ PROC		; uni_heap<20,128>::alloc, COMDAT
; _this$ = ecx

; 46   : 	{

  00000	55		 push	 ebp
  00001	8b ec		 mov	 ebp, esp
  00003	51		 push	 ecx
  00004	56		 push	 esi
  00005	8b f1		 mov	 esi, ecx

; 47   : 		// search for a non-full block.
; 48   : 		std::vector< TBlock* >::iterator it;
; 49   : 		for ( it = m_blocks.begin(); it != m_blocks.end(); it++ ) {

  00007	8b 06		 mov	 eax, DWORD PTR [esi]
  00009	8b 4e 04	 mov	 ecx, DWORD PTR [esi+4]
  0000c	57		 push	 edi
  0000d	eb 13		 jmp	 SHORT $LN78@alloc
$LL26@alloc:

; 50   : 			if ( (*it)->count == BLOCK_SIZE )

  0000f	8b 10		 mov	 edx, DWORD PTR [eax]
  00011	bf 80 00 00 00	 mov	 edi, 128		; 00000080H
  00016	66 39 ba 02 0b
	00 00		 cmp	 WORD PTR [edx+2818], di
  0001d	75 1f		 jne	 SHORT $LN1@alloc

; 47   : 		// search for a non-full block.
; 48   : 		std::vector< TBlock* >::iterator it;
; 49   : 		for ( it = m_blocks.begin(); it != m_blocks.end(); it++ ) {

  0001f	83 c0 04	 add	 eax, 4
$LN78@alloc:
  00022	3b c1		 cmp	 eax, ecx
  00024	75 e9		 jne	 SHORT $LL26@alloc

; 54   : 		}
; 55   : 
; 56   : 		// all blocks are full, so we must make a new empty block and allocate from it.
; 57   : 		m_blocks.push_back( new TBlock() );

  00026	68 04 0b 00 00	 push	 2820			; 00000b04H
  0002b	e8 00 00 00 00	 call	 ??2@YAPAXI@Z		; operator new
  00030	59		 pop	 ecx
  00031	85 c0		 test	 eax, eax
  00033	74 0d		 je	 SHORT $LN7@alloc
  00035	8b c8		 mov	 ecx, eax
  00037	e8 00 00 00 00	 call	 ??0TBlock@?$uni_heap@$0BE@$0IA@@@QAE@XZ ; uni_heap<20,128>::TBlock::TBlock
  0003c	eb 06		 jmp	 SHORT $LN8@alloc
$LN1@alloc:

; 51   : 				continue;
; 52   : 
; 53   : 			return alloc_from_block( *it );

  0003e	8b ca		 mov	 ecx, edx
  00040	eb 16		 jmp	 SHORT $LN79@alloc
$LN7@alloc:

; 54   : 		}
; 55   : 
; 56   : 		// all blocks are full, so we must make a new empty block and allocate from it.
; 57   : 		m_blocks.push_back( new TBlock() );

  00042	33 c0		 xor	 eax, eax
$LN8@alloc:
  00044	89 45 fc	 mov	 DWORD PTR $T517880[ebp], eax
  00047	8d 45 fc	 lea	 eax, DWORD PTR $T517880[ebp]
  0004a	50		 push	 eax
  0004b	8b ce		 mov	 ecx, esi
  0004d	e8 00 00 00 00	 call	 ?push_back@?$vector@PAUTBlock@?$uni_heap@$0BE@$0IA@@@V?$allocator@PAUTBlock@?$uni_heap@$0BE@$0IA@@@@std@@@std@@QAEX$$QAPAUTBlock@?$uni_heap@$0BE@$0IA@@@@Z ; std::vector<uni_heap<20,128>::TBlock *,std::allocator<uni_heap<20,128>::TBlock *> >::push_back

; 58   : 
; 59   : 		return alloc_from_block( m_blocks.back() );

  00052	8b 46 04	 mov	 eax, DWORD PTR [esi+4]
  00055	8b 48 fc	 mov	 ecx, DWORD PTR [eax-4]
$LN79@alloc:
  00058	0f b7 81 00 0b
	00 00		 movzx	 eax, WORD PTR [ecx+2816]
  0005f	98		 cwde
  00060	8d b4 41 00 0a
	00 00		 lea	 esi, DWORD PTR [ecx+eax*2+2560]
  00067	6b c0 14	 imul	 eax, 20			; 00000014H
  0006a	66 8b 3e	 mov	 di, WORD PTR [esi]
  0006d	83 ca ff	 or	 edx, -1
  00070	66 89 b9 00 0b
	00 00		 mov	 WORD PTR [ecx+2816], di
  00077	66 89 16	 mov	 WORD PTR [esi], dx
  0007a	66 ff 81 02 0b
	00 00		 inc	 WORD PTR [ecx+2818]
  00081	5f		 pop	 edi
  00082	03 c1		 add	 eax, ecx
  00084	5e		 pop	 esi

; 60   : 	}

  00085	c9		 leave
  00086	c3		 ret	 0
?alloc@?$uni_heap@$0BE@$0IA@@@QAEPAXXZ ENDP		; uni_heap<20,128>::alloc
_TEXT	ENDS
PUBLIC	??$_Stable_sort@PAULink@BoxSpace@@HU12@UFn_WalkLess@@@std@@YAXPAULink@BoxSpace@@0HAAV?$_Temp_iterator@ULink@BoxSpace@@@0@UFn_WalkLess@@@Z ; std::_Stable_sort<BoxSpace::Link *,int,BoxSpace::Link,Fn_WalkLess>
; Function compile flags: /Ogsp
; File c:\program files (x86)\microsoft visual studio 10.0\vc\include\algorithm
;	COMDAT ??$_Stable_sort@PAULink@BoxSpace@@HU12@UFn_WalkLess@@@std@@YAXPAULink@BoxSpace@@0HAAV?$_Temp_iterator@ULink@BoxSpace@@@0@UFn_WalkLess@@@Z
_TEXT	SEGMENT
__First$ = 8						; size = 4
__Last$ = 12						; size = 4
__Count$ = 16						; size = 4
__Tempbuf$ = 20						; size = 4
__Pred$ = 24						; size = 1
??$_Stable_sort@PAULink@BoxSpace@@HU12@UFn_WalkLess@@@std@@YAXPAULink@BoxSpace@@0HAAV?$_Temp_iterator@ULink@BoxSpace@@@0@UFn_WalkLess@@@Z PROC ; std::_Stable_sort<BoxSpace::Link *,int,BoxSpace::Link,Fn_WalkLess>, COMDAT

; 3977 : 	{	// sort preserving order of equivalents, using _Pred

  00000	55		 push	 ebp
  00001	8b ec		 mov	 ebp, esp
  00003	53		 push	 ebx

; 3978 : 	if (_Count <= _ISORT_MAX)

  00004	8b 5d 10	 mov	 ebx, DWORD PTR __Count$[ebp]
  00007	83 fb 20	 cmp	 ebx, 32			; 00000020H
  0000a	7f 15		 jg	 SHORT $LN4@Stable_sor

; 3979 : 		_Insertion_sort(_First, _Last, _Pred);	// small

  0000c	6a 00		 push	 0
  0000e	ff 75 18	 push	 DWORD PTR __Pred$[ebp]
  00011	ff 75 0c	 push	 DWORD PTR __Last$[ebp]
  00014	ff 75 08	 push	 DWORD PTR __First$[ebp]
  00017	e8 00 00 00 00	 call	 ??$_Insertion_sort1@PAULink@BoxSpace@@UFn_WalkLess@@U12@@std@@YAXPAULink@BoxSpace@@0UFn_WalkLess@@0@Z ; std::_Insertion_sort1<BoxSpace::Link *,Fn_WalkLess,BoxSpace::Link>
  0001c	83 c4 10	 add	 esp, 16			; 00000010H

; 3980 : 	else

  0001f	eb 77		 jmp	 SHORT $LN3@Stable_sor
$LN4@Stable_sor:

; 3981 : 		{	// sort halves and merge
; 3982 : 		_Diff _Count2 = (_Count + 1) / 2;
; 3983 : 		_BidIt _Mid = _First;
; 3984 : 		_STD advance(_Mid, _Count2);
; 3985 : 
; 3986 : 		if (_Count2 <= _Tempbuf._Maxlen())

  00021	8b 4d 14	 mov	 ecx, DWORD PTR __Tempbuf$[ebp]
  00024	8d 43 01	 lea	 eax, DWORD PTR [ebx+1]
  00027	99		 cdq
  00028	56		 push	 esi
  00029	2b c2		 sub	 eax, edx
  0002b	8b f0		 mov	 esi, eax
  0002d	57		 push	 edi
  0002e	d1 fe		 sar	 esi, 1
  00030	8b fe		 mov	 edi, esi
  00032	c1 e7 05	 shl	 edi, 5
  00035	03 7d 08	 add	 edi, DWORD PTR __First$[ebp]
  00038	e8 00 00 00 00	 call	 ?_Maxlen@?$_Temp_iterator@ULink@BoxSpace@@@std@@QAEHXZ ; std::_Temp_iterator<BoxSpace::Link>::_Maxlen

; 3987 : 			{	// temp buffer big enough, sort each half using buffer
; 3988 : 			_Buffered_merge_sort(_First, _Mid, _Count2, _Tempbuf, _Pred);

  0003d	ff 75 18	 push	 DWORD PTR __Pred$[ebp]
  00040	ff 75 14	 push	 DWORD PTR __Tempbuf$[ebp]
  00043	56		 push	 esi
  00044	57		 push	 edi
  00045	ff 75 08	 push	 DWORD PTR __First$[ebp]
  00048	3b f0		 cmp	 esi, eax
  0004a	7f 19		 jg	 SHORT $LN2@Stable_sor
  0004c	e8 00 00 00 00	 call	 ??$_Buffered_merge_sort@PAULink@BoxSpace@@HU12@UFn_WalkLess@@@std@@YAXPAULink@BoxSpace@@0HAAV?$_Temp_iterator@ULink@BoxSpace@@@0@UFn_WalkLess@@@Z ; std::_Buffered_merge_sort<BoxSpace::Link *,int,BoxSpace::Link,Fn_WalkLess>

; 3989 : 			_Buffered_merge_sort(_Mid, _Last, _Count - _Count2,
; 3990 : 				_Tempbuf, _Pred);

  00051	ff 75 18	 push	 DWORD PTR __Pred$[ebp]
  00054	2b de		 sub	 ebx, esi
  00056	ff 75 14	 push	 DWORD PTR __Tempbuf$[ebp]
  00059	53		 push	 ebx
  0005a	ff 75 0c	 push	 DWORD PTR __Last$[ebp]
  0005d	57		 push	 edi
  0005e	e8 00 00 00 00	 call	 ??$_Buffered_merge_sort@PAULink@BoxSpace@@HU12@UFn_WalkLess@@@std@@YAXPAULink@BoxSpace@@0HAAV?$_Temp_iterator@ULink@BoxSpace@@@0@UFn_WalkLess@@@Z ; std::_Buffered_merge_sort<BoxSpace::Link *,int,BoxSpace::Link,Fn_WalkLess>

; 3991 : 			}
; 3992 : 		else

  00063	eb 17		 jmp	 SHORT $LN17@Stable_sor
$LN2@Stable_sor:

; 3993 : 			{	// temp buffer not big enough, divide and conquer
; 3994 : 			_Stable_sort(_First, _Mid, _Count2, _Tempbuf, _Pred);

  00065	e8 00 00 00 00	 call	 ??$_Stable_sort@PAULink@BoxSpace@@HU12@UFn_WalkLess@@@std@@YAXPAULink@BoxSpace@@0HAAV?$_Temp_iterator@ULink@BoxSpace@@@0@UFn_WalkLess@@@Z ; std::_Stable_sort<BoxSpace::Link *,int,BoxSpace::Link,Fn_WalkLess>

; 3995 : 			_Stable_sort(_Mid, _Last, _Count - _Count2, _Tempbuf, _Pred);

  0006a	ff 75 18	 push	 DWORD PTR __Pred$[ebp]
  0006d	2b de		 sub	 ebx, esi
  0006f	ff 75 14	 push	 DWORD PTR __Tempbuf$[ebp]
  00072	53		 push	 ebx
  00073	ff 75 0c	 push	 DWORD PTR __Last$[ebp]
  00076	57		 push	 edi
  00077	e8 00 00 00 00	 call	 ??$_Stable_sort@PAULink@BoxSpace@@HU12@UFn_WalkLess@@@std@@YAXPAULink@BoxSpace@@0HAAV?$_Temp_iterator@ULink@BoxSpace@@@0@UFn_WalkLess@@@Z ; std::_Stable_sort<BoxSpace::Link *,int,BoxSpace::Link,Fn_WalkLess>
$LN17@Stable_sor:
  0007c	83 c4 28	 add	 esp, 40			; 00000028H

; 3996 : 			}
; 3997 : 
; 3998 : 		_Buffered_merge(_First, _Mid, _Last,
; 3999 : 			_Count2, _Count - _Count2, _Tempbuf, _Pred);	// merge halves

  0007f	ff 75 18	 push	 DWORD PTR __Pred$[ebp]
  00082	ff 75 14	 push	 DWORD PTR __Tempbuf$[ebp]
  00085	53		 push	 ebx
  00086	56		 push	 esi
  00087	ff 75 0c	 push	 DWORD PTR __Last$[ebp]
  0008a	57		 push	 edi
  0008b	ff 75 08	 push	 DWORD PTR __First$[ebp]
  0008e	e8 00 00 00 00	 call	 ??$_Buffered_merge@PAULink@BoxSpace@@HU12@UFn_WalkLess@@@std@@YAXPAULink@BoxSpace@@00HHAAV?$_Temp_iterator@ULink@BoxSpace@@@0@UFn_WalkLess@@@Z ; std::_Buffered_merge<BoxSpace::Link *,int,BoxSpace::Link,Fn_WalkLess>
  00093	83 c4 1c	 add	 esp, 28			; 0000001cH
  00096	5f		 pop	 edi
  00097	5e		 pop	 esi
$LN3@Stable_sor:
  00098	5b		 pop	 ebx

; 4000 : 		}
; 4001 : 	}

  00099	5d		 pop	 ebp
  0009a	c3		 ret	 0
??$_Stable_sort@PAULink@BoxSpace@@HU12@UFn_WalkLess@@@std@@YAXPAULink@BoxSpace@@0HAAV?$_Temp_iterator@ULink@BoxSpace@@@0@UFn_WalkLess@@@Z ENDP ; std::_Stable_sort<BoxSpace::Link *,int,BoxSpace::Link,Fn_WalkLess>
_TEXT	ENDS
PUBLIC	??0?$basic_string@DU?$char_traits@D@std@@V?$allocator@D@2@@std@@QAE@PBD@Z ; std::basic_string<char,std::char_traits<char>,std::allocator<char> >::basic_string<char,std::char_traits<char>,std::allocator<char> >
; Function compile flags: /Ogsp
; File c:\program files (x86)\microsoft visual studio 10.0\vc\include\xstring
;	COMDAT ??0?$basic_string@DU?$char_traits@D@std@@V?$allocator@D@2@@std@@QAE@PBD@Z
_TEXT	SEGMENT
__Ptr$ = 8						; size = 4
??0?$basic_string@DU?$char_traits@D@std@@V?$allocator@D@2@@std@@QAE@PBD@Z PROC ; std::basic_string<char,std::char_traits<char>,std::allocator<char> >::basic_string<char,std::char_traits<char>,std::allocator<char> >, COMDAT
; _this$ = ecx

; 592  : 		{	// construct from [_Ptr, <null>)

  00000	55		 push	 ebp
  00001	8b ec		 mov	 ebp, esp
  00003	56		 push	 esi

; 593  : 		_Tidy();
; 594  : 		assign(_Ptr);

  00004	ff 75 08	 push	 DWORD PTR __Ptr$[ebp]
  00007	8b f1		 mov	 esi, ecx
  00009	83 66 10 00	 and	 DWORD PTR [esi+16], 0
  0000d	c7 46 14 0f 00
	00 00		 mov	 DWORD PTR [esi+20], 15	; 0000000fH
  00014	c6 06 00	 mov	 BYTE PTR [esi], 0
  00017	e8 00 00 00 00	 call	 ?assign@?$basic_string@DU?$char_traits@D@std@@V?$allocator@D@2@@std@@QAEAAV12@PBD@Z ; std::basic_string<char,std::char_traits<char>,std::allocator<char> >::assign

; 595  : 		}

  0001c	8b c6		 mov	 eax, esi
  0001e	5e		 pop	 esi
  0001f	5d		 pop	 ebp
  00020	c2 04 00	 ret	 4
??0?$basic_string@DU?$char_traits@D@std@@V?$allocator@D@2@@std@@QAE@PBD@Z ENDP ; std::basic_string<char,std::char_traits<char>,std::allocator<char> >::basic_string<char,std::char_traits<char>,std::allocator<char> >
_TEXT	ENDS
PUBLIC	??4?$basic_string@DU?$char_traits@D@std@@V?$allocator@D@2@@std@@QAEAAV01@ABV01@@Z ; std::basic_string<char,std::char_traits<char>,std::allocator<char> >::operator=
; Function compile flags: /Ogsp
;	COMDAT ??4?$basic_string@DU?$char_traits@D@std@@V?$allocator@D@2@@std@@QAEAAV01@ABV01@@Z
_TEXT	SEGMENT
__Right$ = 8						; size = 4
??4?$basic_string@DU?$char_traits@D@std@@V?$allocator@D@2@@std@@QAEAAV01@ABV01@@Z PROC ; std::basic_string<char,std::char_traits<char>,std::allocator<char> >::operator=, COMDAT
; _this$ = ecx

; 763  : 		{	// assign _Right

  00000	55		 push	 ebp
  00001	8b ec		 mov	 ebp, esp

; 764  : 		return (assign(_Right));

  00003	6a ff		 push	 -1
  00005	6a 00		 push	 0
  00007	ff 75 08	 push	 DWORD PTR __Right$[ebp]
  0000a	e8 00 00 00 00	 call	 ?assign@?$basic_string@DU?$char_traits@D@std@@V?$allocator@D@2@@std@@QAEAAV12@ABV12@II@Z ; std::basic_string<char,std::char_traits<char>,std::allocator<char> >::assign

; 765  : 		}

  0000f	5d		 pop	 ebp
  00010	c2 04 00	 ret	 4
??4?$basic_string@DU?$char_traits@D@std@@V?$allocator@D@2@@std@@QAEAAV01@ABV01@@Z ENDP ; std::basic_string<char,std::char_traits<char>,std::allocator<char> >::operator=
_TEXT	ENDS
PUBLIC	?assign@?$basic_string@DU?$char_traits@D@std@@V?$allocator@D@2@@std@@QAEAAV12@$$QAV12@@Z ; std::basic_string<char,std::char_traits<char>,std::allocator<char> >::assign
; Function compile flags: /Ogsp
;	COMDAT ?assign@?$basic_string@DU?$char_traits@D@std@@V?$allocator@D@2@@std@@QAEAAV12@$$QAV12@@Z
_TEXT	SEGMENT
__Right$ = 8						; size = 4
?assign@?$basic_string@DU?$char_traits@D@std@@V?$allocator@D@2@@std@@QAEAAV12@$$QAV12@@Z PROC ; std::basic_string<char,std::char_traits<char>,std::allocator<char> >::assign, COMDAT
; _this$ = ecx

; 713  : 		{	// assign by moving _Right

  00000	55		 push	 ebp
  00001	8b ec		 mov	 ebp, esp
  00003	56		 push	 esi

; 714  : 		if (this == &_Right)

  00004	8b 75 08	 mov	 esi, DWORD PTR __Right$[ebp]
  00007	57		 push	 edi
  00008	8b f9		 mov	 edi, ecx
  0000a	3b fe		 cmp	 edi, esi
  0000c	74 3c		 je	 SHORT $LN3@assign@4

; 715  : 			;
; 716  : 		else if (get_allocator() != _Right.get_allocator()
; 717  : 			&& this->_BUF_SIZE <= _Right._Myres)
; 718  : 			*this = _Right;
; 719  : 		else
; 720  : 			{	// not same, clear this and steal from _Right
; 721  : 			_Tidy(true);

  0000e	6a 00		 push	 0
  00010	6a 01		 push	 1
  00012	e8 00 00 00 00	 call	 ?_Tidy@?$basic_string@DU?$char_traits@D@std@@V?$allocator@D@2@@std@@QAEX_NI@Z ; std::basic_string<char,std::char_traits<char>,std::allocator<char> >::_Tidy

; 722  : 			if (_Right._Myres < this->_BUF_SIZE)

  00017	83 7e 14 10	 cmp	 DWORD PTR [esi+20], 16	; 00000010H
  0001b	73 12		 jae	 SHORT $LN2@assign@4

; 723  : 				_Traits::move(this->_Bx._Buf, _Right._Bx._Buf,
; 724  : 					_Right._Mysize + 1);

  0001d	8b 46 10	 mov	 eax, DWORD PTR [esi+16]
  00020	40		 inc	 eax
  00021	50		 push	 eax
  00022	56		 push	 esi
  00023	57		 push	 edi
  00024	ff 15 00 00 00
	00		 call	 DWORD PTR __imp__memmove
  0002a	83 c4 0c	 add	 esp, 12			; 0000000cH

; 725  : 			else

  0002d	eb 07		 jmp	 SHORT $LN1@assign@4
$LN2@assign@4:

; 726  : 				{	// copy pointer
; 727  : 				this->_Bx._Ptr = _Right._Bx._Ptr;

  0002f	8b 06		 mov	 eax, DWORD PTR [esi]
  00031	89 07		 mov	 DWORD PTR [edi], eax

; 728  : 				_Right._Bx._Ptr = 0;

  00033	83 26 00	 and	 DWORD PTR [esi], 0
$LN1@assign@4:

; 729  : 				}
; 730  : 			this->_Mysize = _Right._Mysize;

  00036	8b 46 10	 mov	 eax, DWORD PTR [esi+16]
  00039	89 47 10	 mov	 DWORD PTR [edi+16], eax

; 731  : 			this->_Myres = _Right._Myres;

  0003c	8b 46 14	 mov	 eax, DWORD PTR [esi+20]
  0003f	89 47 14	 mov	 DWORD PTR [edi+20], eax

; 732  : 
; 733  : 			_Right._Mysize = 0;

  00042	83 66 10 00	 and	 DWORD PTR [esi+16], 0

; 734  : 			_Right._Myres = 0;

  00046	83 66 14 00	 and	 DWORD PTR [esi+20], 0
$LN3@assign@4:

; 735  : 			}
; 736  : 		return (*this);

  0004a	8b c7		 mov	 eax, edi
  0004c	5f		 pop	 edi
  0004d	5e		 pop	 esi

; 737  : 		}

  0004e	5d		 pop	 ebp
  0004f	c2 04 00	 ret	 4
?assign@?$basic_string@DU?$char_traits@D@std@@V?$allocator@D@2@@std@@QAEAAV12@$$QAV12@@Z ENDP ; std::basic_string<char,std::char_traits<char>,std::allocator<char> >::assign
_TEXT	ENDS
PUBLIC	?clear@?$obj_heap@UDNode@?$AStarSearcher@VBoxSpace@@PAUBox@1@@@$0IA@@@QAEXXZ ; obj_heap<AStarSearcher<BoxSpace,BoxSpace::Box *>::DNode,128>::clear
; Function compile flags: /Ogsp
; File d:\lost saga for developer\youtube\tutorial\source\src\lsclient\uniheap.h
;	COMDAT ?clear@?$obj_heap@UDNode@?$AStarSearcher@VBoxSpace@@PAUBox@1@@@$0IA@@@QAEXXZ
_TEXT	SEGMENT
?clear@?$obj_heap@UDNode@?$AStarSearcher@VBoxSpace@@PAUBox@1@@@$0IA@@@QAEXXZ PROC ; obj_heap<AStarSearcher<BoxSpace,BoxSpace::Box *>::DNode,128>::clear, COMDAT
; _this$ = ecx

; 248  : 	{

  00000	56		 push	 esi
  00001	8b f1		 mov	 esi, ecx

; 249  : 		T* pObj = reinterpret_cast< T* >( m_heap.get_first_unit() );

  00003	e8 00 00 00 00	 call	 ?get_first_unit@?$uni_heap@$0BE@$0IA@@@QAEPAXXZ ; uni_heap<20,128>::get_first_unit
  00008	eb 05		 jmp	 SHORT $LN10@clear@2
$LL3@clear@2:

; 250  : 		for (; pObj != NULL; pObj = reinterpret_cast< T* >( m_heap.get_next_unit() ) ) {

  0000a	e8 00 00 00 00	 call	 ?get_next_unit@?$uni_heap@$0BE@$0IA@@@QAEPAXXZ ; uni_heap<20,128>::get_next_unit
$LN10@clear@2:

; 251  : 			pObj->T::~T();
; 252  : 		}
; 253  : 
; 254  : 		m_heap.clear();

  0000f	8b ce		 mov	 ecx, esi
  00011	85 c0		 test	 eax, eax
  00013	75 f5		 jne	 SHORT $LL3@clear@2
  00015	5e		 pop	 esi
  00016	e9 00 00 00 00	 jmp	 ?clear@?$uni_heap@$0BE@$0IA@@@QAEXXZ ; uni_heap<20,128>::clear
?clear@?$obj_heap@UDNode@?$AStarSearcher@VBoxSpace@@PAUBox@1@@@$0IA@@@QAEXXZ ENDP ; obj_heap<AStarSearcher<BoxSpace,BoxSpace::Box *>::DNode,128>::clear
_TEXT	ENDS
PUBLIC	?_Tidy@?$vector@ULink@BoxSpace@@V?$allocator@ULink@BoxSpace@@@std@@@std@@IAEXXZ ; std::vector<BoxSpace::Link,std::allocator<BoxSpace::Link> >::_Tidy
; Function compile flags: /Ogsp
; File c:\program files (x86)\microsoft visual studio 10.0\vc\include\vector
;	COMDAT ?_Tidy@?$vector@ULink@BoxSpace@@V?$allocator@ULink@BoxSpace@@@std@@@std@@IAEXXZ
_TEXT	SEGMENT
?_Tidy@?$vector@ULink@BoxSpace@@V?$allocator@ULink@BoxSpace@@@std@@@std@@IAEXXZ PROC ; std::vector<BoxSpace::Link,std::allocator<BoxSpace::Link> >::_Tidy, COMDAT
; _this$ = ecx

; 1301 : 		{	// free all storage

  00000	56		 push	 esi
  00001	8b f1		 mov	 esi, ecx

; 1302 : 		if (this->_Myfirst != 0)

  00003	83 3e 00	 cmp	 DWORD PTR [esi], 0
  00006	74 0e		 je	 SHORT $LN21@Tidy@2

; 1303 : 			{	// something to free, destroy and deallocate it
; 1304 : 			this->_Orphan_all();

  00008	ff 15 00 00 00
	00		 call	 DWORD PTR __imp_?_Orphan_all@_Container_base0@std@@QAEXXZ

; 1305 : 			_Destroy(this->_Myfirst, this->_Mylast);
; 1306 : 			this->_Alval.deallocate(this->_Myfirst,
; 1307 : 				this->_Myend - this->_Myfirst);

  0000e	ff 36		 push	 DWORD PTR [esi]
  00010	e8 00 00 00 00	 call	 ??3@YAXPAX@Z		; operator delete
  00015	59		 pop	 ecx
$LN21@Tidy@2:

; 1308 : 			}
; 1309 : 		this->_Myfirst = 0;

  00016	83 26 00	 and	 DWORD PTR [esi], 0

; 1310 : 		this->_Mylast = 0;

  00019	83 66 04 00	 and	 DWORD PTR [esi+4], 0

; 1311 : 		this->_Myend = 0;

  0001d	83 66 08 00	 and	 DWORD PTR [esi+8], 0
  00021	5e		 pop	 esi

; 1312 : 		}

  00022	c3		 ret	 0
?_Tidy@?$vector@ULink@BoxSpace@@V?$allocator@ULink@BoxSpace@@@std@@@std@@IAEXXZ ENDP ; std::vector<BoxSpace::Link,std::allocator<BoxSpace::Link> >::_Tidy
_TEXT	ENDS
PUBLIC	?_Reserve@?$vector@ULink@BoxSpace@@V?$allocator@ULink@BoxSpace@@@std@@@std@@IAEXI@Z ; std::vector<BoxSpace::Link,std::allocator<BoxSpace::Link> >::_Reserve
; Function compile flags: /Ogsp
;	COMDAT ?_Reserve@?$vector@ULink@BoxSpace@@V?$allocator@ULink@BoxSpace@@@std@@@std@@IAEXI@Z
_TEXT	SEGMENT
__Count$ = 8						; size = 4
?_Reserve@?$vector@ULink@BoxSpace@@V?$allocator@ULink@BoxSpace@@@std@@@std@@IAEXI@Z PROC ; std::vector<BoxSpace::Link,std::allocator<BoxSpace::Link> >::_Reserve, COMDAT
; _this$ = ecx

; 1290 : 		{	// ensure room for _Count new elements, grow exponentially

  00000	55		 push	 ebp
  00001	8b ec		 mov	 ebp, esp
  00003	56		 push	 esi
  00004	8b f1		 mov	 esi, ecx

; 1291 : 		size_type _Size = size();

  00006	8b 0e		 mov	 ecx, DWORD PTR [esi]
  00008	8b 46 04	 mov	 eax, DWORD PTR [esi+4]
  0000b	2b c1		 sub	 eax, ecx

; 1292 : 		if (max_size() - _Count < _Size)

  0000d	ba ff ff ff 07	 mov	 edx, 134217727		; 07ffffffH
  00012	2b 55 08	 sub	 edx, DWORD PTR __Count$[ebp]
  00015	c1 f8 05	 sar	 eax, 5
  00018	3b d0		 cmp	 edx, eax
  0001a	73 0b		 jae	 SHORT $LN4@Reserve@5

; 1293 : 			_Xlen();

  0001c	68 00 00 00 00	 push	 OFFSET ??_C@_0BD@OLBABOEK@vector?$DMT?$DO?5too?5long?$AA@
  00021	ff 15 00 00 00
	00		 call	 DWORD PTR __imp_?_Xlength_error@std@@YAXPBD@Z
$LN21@Reserve@5:
$LN4@Reserve@5:

; 1294 : 		else if ((_Size += _Count) <= capacity())

  00027	8b 56 08	 mov	 edx, DWORD PTR [esi+8]
  0002a	03 45 08	 add	 eax, DWORD PTR __Count$[ebp]
  0002d	2b d1		 sub	 edx, ecx
  0002f	c1 fa 05	 sar	 edx, 5
  00032	3b c2		 cmp	 eax, edx
  00034	76 10		 jbe	 SHORT $LN1@Reserve@5

; 1295 : 			;
; 1296 : 		else
; 1297 : 			reserve(_Grow_to(_Size));

  00036	50		 push	 eax
  00037	8b ce		 mov	 ecx, esi
  00039	e8 00 00 00 00	 call	 ?_Grow_to@?$vector@ULink@BoxSpace@@V?$allocator@ULink@BoxSpace@@@std@@@std@@IBEII@Z ; std::vector<BoxSpace::Link,std::allocator<BoxSpace::Link> >::_Grow_to
  0003e	50		 push	 eax
  0003f	8b ce		 mov	 ecx, esi
  00041	e8 00 00 00 00	 call	 ?reserve@?$vector@ULink@BoxSpace@@V?$allocator@ULink@BoxSpace@@@std@@@std@@QAEXI@Z ; std::vector<BoxSpace::Link,std::allocator<BoxSpace::Link> >::reserve
$LN1@Reserve@5:
  00046	5e		 pop	 esi

; 1298 : 		}

  00047	5d		 pop	 ebp
  00048	c2 04 00	 ret	 4
$LN20@Reserve@5:
?_Reserve@?$vector@ULink@BoxSpace@@V?$allocator@ULink@BoxSpace@@@std@@@std@@IAEXI@Z ENDP ; std::vector<BoxSpace::Link,std::allocator<BoxSpace::Link> >::_Reserve
_TEXT	ENDS
PUBLIC	?alloc@?$obj_heap@UDNode@?$AStarSearcher@VBoxSpace@@PAUBox@1@@@$0IA@@@QAEPAUDNode@?$AStarSearcher@VBoxSpace@@PAUBox@1@@@XZ ; obj_heap<AStarSearcher<BoxSpace,BoxSpace::Box *>::DNode,128>::alloc
; Function compile flags: /Ogsp
; File d:\lost saga for developer\youtube\tutorial\source\src\lsclient\uniheap.h
;	COMDAT ?alloc@?$obj_heap@UDNode@?$AStarSearcher@VBoxSpace@@PAUBox@1@@@$0IA@@@QAEPAUDNode@?$AStarSearcher@VBoxSpace@@PAUBox@1@@@XZ
_TEXT	SEGMENT
?alloc@?$obj_heap@UDNode@?$AStarSearcher@VBoxSpace@@PAUBox@1@@@$0IA@@@QAEPAUDNode@?$AStarSearcher@VBoxSpace@@PAUBox@1@@@XZ PROC ; obj_heap<AStarSearcher<BoxSpace,BoxSpace::Box *>::DNode,128>::alloc, COMDAT
; _this$ = ecx

; 259  : 		T* pObj = reinterpret_cast< T* >( m_heap.alloc() );

  00000	e8 00 00 00 00	 call	 ?alloc@?$uni_heap@$0BE@$0IA@@@QAEPAXXZ ; uni_heap<20,128>::alloc

; 260  : 		new (pObj) T();

  00005	33 c9		 xor	 ecx, ecx
  00007	3b c1		 cmp	 eax, ecx
  00009	74 14		 je	 SHORT $LN3@alloc@2
  0000b	0f 57 c0	 xorps	 xmm0, xmm0
  0000e	89 48 04	 mov	 DWORD PTR [eax+4], ecx
  00011	f3 0f 11 40 0c	 movss	 DWORD PTR [eax+12], xmm0
  00016	f3 0f 11 40 08	 movss	 DWORD PTR [eax+8], xmm0
  0001b	66 89 48 10	 mov	 WORD PTR [eax+16], cx
$LN3@alloc@2:

; 261  : 		return pObj;
; 262  : 	}

  0001f	c3		 ret	 0
?alloc@?$obj_heap@UDNode@?$AStarSearcher@VBoxSpace@@PAUBox@1@@@$0IA@@@QAEPAUDNode@?$AStarSearcher@VBoxSpace@@PAUBox@1@@@XZ ENDP ; obj_heap<AStarSearcher<BoxSpace,BoxSpace::Box *>::DNode,128>::alloc
_TEXT	ENDS
PUBLIC	??$_Stable_sort@PAULink@BoxSpace@@HU12@UFn_WalkLess@@@std@@YAXPAULink@BoxSpace@@0PAH0UFn_WalkLess@@@Z ; std::_Stable_sort<BoxSpace::Link *,int,BoxSpace::Link,Fn_WalkLess>
EXTRN	__EH_prolog3:PROC
;	COMDAT xdata$x
; File c:\program files (x86)\microsoft visual studio 10.0\vc\include\memory
xdata$x	SEGMENT
__unwindtable$??$_Stable_sort@PAULink@BoxSpace@@HU12@UFn_WalkLess@@@std@@YAXPAULink@BoxSpace@@0PAH0UFn_WalkLess@@@Z DD 0ffffffffH
	DD	FLAT:__unwindfunclet$??$_Stable_sort@PAULink@BoxSpace@@HU12@UFn_WalkLess@@@std@@YAXPAULink@BoxSpace@@0PAH0UFn_WalkLess@@@Z$0
__ehfuncinfo$??$_Stable_sort@PAULink@BoxSpace@@HU12@UFn_WalkLess@@@std@@YAXPAULink@BoxSpace@@0PAH0UFn_WalkLess@@@Z DD 019930522H
	DD	01H
	DD	FLAT:__unwindtable$??$_Stable_sort@PAULink@BoxSpace@@HU12@UFn_WalkLess@@@std@@YAXPAULink@BoxSpace@@0PAH0UFn_WalkLess@@@Z
	DD	2 DUP(00H)
	DD	2 DUP(00H)
	DD	00H
	DD	01H
; Function compile flags: /Ogsp
; File c:\program files (x86)\microsoft visual studio 10.0\vc\include\algorithm
xdata$x	ENDS
;	COMDAT ??$_Stable_sort@PAULink@BoxSpace@@HU12@UFn_WalkLess@@@std@@YAXPAULink@BoxSpace@@0PAH0UFn_WalkLess@@@Z
_TEXT	SEGMENT
__Tempbuf$ = -32					; size = 20
__$EHRec$ = -12						; size = 12
__First$ = 8						; size = 4
__Last$ = 12						; size = 4
___formal$ = 16						; size = 4
___formal$ = 20						; size = 4
__Pred$ = 24						; size = 1
??$_Stable_sort@PAULink@BoxSpace@@HU12@UFn_WalkLess@@@std@@YAXPAULink@BoxSpace@@0PAH0UFn_WalkLess@@@Z PROC ; std::_Stable_sort<BoxSpace::Link *,int,BoxSpace::Link,Fn_WalkLess>, COMDAT

; 4008 : 	{	// sort preserving order of equivalents, using _Pred

  00000	6a 14		 push	 20			; 00000014H
  00002	b8 00 00 00 00	 mov	 eax, __ehhandler$??$_Stable_sort@PAULink@BoxSpace@@HU12@UFn_WalkLess@@@std@@YAXPAULink@BoxSpace@@0PAH0UFn_WalkLess@@@Z
  00007	e8 00 00 00 00	 call	 __EH_prolog3

; 4009 : 	_Diff _Count = 0;
; 4010 : 	_Distance(_First, _Last, _Count);

  0000c	8b 4d 0c	 mov	 ecx, DWORD PTR __Last$[ebp]
  0000f	2b 4d 08	 sub	 ecx, DWORD PTR __First$[ebp]

; 4011 : 	_Temp_iterator<_Ty> _Tempbuf((_Count + 1) / 2);

  00012	33 f6		 xor	 esi, esi
  00014	c1 f9 05	 sar	 ecx, 5
  00017	8d 41 01	 lea	 eax, DWORD PTR [ecx+1]
  0001a	99		 cdq
  0001b	2b c2		 sub	 eax, edx
  0001d	d1 f8		 sar	 eax, 1
  0001f	89 45 ec	 mov	 DWORD PTR __Tempbuf$[ebp+12], eax
  00022	8d 45 e0	 lea	 eax, DWORD PTR __Tempbuf$[ebp]
  00025	89 75 e0	 mov	 DWORD PTR __Tempbuf$[ebp], esi
  00028	89 75 e4	 mov	 DWORD PTR __Tempbuf$[ebp+4], esi
  0002b	89 75 e8	 mov	 DWORD PTR __Tempbuf$[ebp+8], esi
  0002e	89 45 f0	 mov	 DWORD PTR __Tempbuf$[ebp+16], eax

; 4012 : 	_Stable_sort(_First, _Last, _Count, _Tempbuf, _Pred);

  00031	ff 75 18	 push	 DWORD PTR __Pred$[ebp]
  00034	89 75 fc	 mov	 DWORD PTR __$EHRec$[ebp+8], esi
  00037	50		 push	 eax
  00038	51		 push	 ecx
  00039	ff 75 0c	 push	 DWORD PTR __Last$[ebp]
  0003c	ff 75 08	 push	 DWORD PTR __First$[ebp]
  0003f	e8 00 00 00 00	 call	 ??$_Stable_sort@PAULink@BoxSpace@@HU12@UFn_WalkLess@@@std@@YAXPAULink@BoxSpace@@0HAAV?$_Temp_iterator@ULink@BoxSpace@@@0@UFn_WalkLess@@@Z ; std::_Stable_sort<BoxSpace::Link *,int,BoxSpace::Link,Fn_WalkLess>
  00044	83 c4 14	 add	 esp, 20			; 00000014H

; 4013 : 	}

  00047	39 75 e0	 cmp	 DWORD PTR __Tempbuf$[ebp], esi
  0004a	74 09		 je	 SHORT $LN20@Stable_sor@2
  0004c	ff 75 e0	 push	 DWORD PTR __Tempbuf$[ebp]
  0004f	e8 00 00 00 00	 call	 ??3@YAXPAX@Z		; operator delete
  00054	59		 pop	 ecx
$LN20@Stable_sor@2:
  00055	e8 00 00 00 00	 call	 __EH_epilog3
  0005a	c3		 ret	 0
_TEXT	ENDS
;	COMDAT text$x
text$x	SEGMENT
__unwindfunclet$??$_Stable_sort@PAULink@BoxSpace@@HU12@UFn_WalkLess@@@std@@YAXPAULink@BoxSpace@@0PAH0UFn_WalkLess@@@Z$0:
  00000	8d 4d e0	 lea	 ecx, DWORD PTR __Tempbuf$[ebp]
  00003	e9 00 00 00 00	 jmp	 ??1?$_Temp_iterator@ULink@BoxSpace@@@std@@QAE@XZ ; std::_Temp_iterator<BoxSpace::Link>::~_Temp_iterator<BoxSpace::Link>
__ehhandler$??$_Stable_sort@PAULink@BoxSpace@@HU12@UFn_WalkLess@@@std@@YAXPAULink@BoxSpace@@0PAH0UFn_WalkLess@@@Z:
  00008	8b 54 24 08	 mov	 edx, DWORD PTR [esp+8]
  0000c	8d 42 0c	 lea	 eax, DWORD PTR [edx+12]
  0000f	8b 4a dc	 mov	 ecx, DWORD PTR [edx-36]
  00012	33 c8		 xor	 ecx, eax
  00014	e8 00 00 00 00	 call	 @__security_check_cookie@4
  00019	b8 00 00 00 00	 mov	 eax, OFFSET __ehfuncinfo$??$_Stable_sort@PAULink@BoxSpace@@HU12@UFn_WalkLess@@@std@@YAXPAULink@BoxSpace@@0PAH0UFn_WalkLess@@@Z
  0001e	e9 00 00 00 00	 jmp	 ___CxxFrameHandler3
text$x	ENDS
??$_Stable_sort@PAULink@BoxSpace@@HU12@UFn_WalkLess@@@std@@YAXPAULink@BoxSpace@@0PAH0UFn_WalkLess@@@Z ENDP ; std::_Stable_sort<BoxSpace::Link *,int,BoxSpace::Link,Fn_WalkLess>
PUBLIC	??0?$vector@ULink@BoxSpace@@V?$allocator@ULink@BoxSpace@@@std@@@std@@QAE@ABV01@@Z ; std::vector<BoxSpace::Link,std::allocator<BoxSpace::Link> >::vector<BoxSpace::Link,std::allocator<BoxSpace::Link> >
;	COMDAT xdata$x
; File c:\program files (x86)\microsoft visual studio 10.0\vc\include\xutility
xdata$x	SEGMENT
__catchsym$??0?$vector@ULink@BoxSpace@@V?$allocator@ULink@BoxSpace@@@std@@@std@@QAE@ABV01@@Z$2 DD 040H
	DD	00H
	DD	00H
	DD	FLAT:__catch$??0?$vector@ULink@BoxSpace@@V?$allocator@ULink@BoxSpace@@@std@@@std@@QAE@ABV01@@Z$0
__unwindtable$??0?$vector@ULink@BoxSpace@@V?$allocator@ULink@BoxSpace@@@std@@@std@@QAE@ABV01@@Z DD 0ffffffffH
	DD	00H
	DD	0ffffffffH
	DD	00H
__tryblocktable$??0?$vector@ULink@BoxSpace@@V?$allocator@ULink@BoxSpace@@@std@@@std@@QAE@ABV01@@Z DD 00H
	DD	00H
	DD	01H
	DD	01H
	DD	FLAT:__catchsym$??0?$vector@ULink@BoxSpace@@V?$allocator@ULink@BoxSpace@@@std@@@std@@QAE@ABV01@@Z$2
__ehfuncinfo$??0?$vector@ULink@BoxSpace@@V?$allocator@ULink@BoxSpace@@@std@@@std@@QAE@ABV01@@Z DD 019930522H
	DD	02H
	DD	FLAT:__unwindtable$??0?$vector@ULink@BoxSpace@@V?$allocator@ULink@BoxSpace@@@std@@@std@@QAE@ABV01@@Z
	DD	01H
	DD	FLAT:__tryblocktable$??0?$vector@ULink@BoxSpace@@V?$allocator@ULink@BoxSpace@@@std@@@std@@QAE@ABV01@@Z
	DD	2 DUP(00H)
	DD	00H
	DD	01H
; Function compile flags: /Ogsp
; File c:\program files (x86)\microsoft visual studio 10.0\vc\include\vector
xdata$x	ENDS
;	COMDAT ??0?$vector@ULink@BoxSpace@@V?$allocator@ULink@BoxSpace@@@std@@@std@@QAE@ABV01@@Z
_TEXT	SEGMENT
_this$ = -20						; size = 4
__$EHRec$ = -16						; size = 16
__Cat$518498 = 8					; size = 1
__Right$ = 8						; size = 4
??0?$vector@ULink@BoxSpace@@V?$allocator@ULink@BoxSpace@@@std@@@std@@QAE@ABV01@@Z PROC ; std::vector<BoxSpace::Link,std::allocator<BoxSpace::Link> >::vector<BoxSpace::Link,std::allocator<BoxSpace::Link> >, COMDAT
; _this$ = ecx

; 535  : 		{	// construct by copying _Right

  00000	6a 08		 push	 8
  00002	b8 00 00 00 00	 mov	 eax, __ehhandler$??0?$vector@ULink@BoxSpace@@V?$allocator@ULink@BoxSpace@@@std@@@std@@QAE@ABV01@@Z
  00007	e8 00 00 00 00	 call	 __EH_prolog3_catch
  0000c	8b f1		 mov	 esi, ecx
  0000e	89 75 ec	 mov	 DWORD PTR _this$[ebp], esi

; 536  : 		if (_Buy(_Right.size()))

  00011	8b 7d 08	 mov	 edi, DWORD PTR __Right$[ebp]
  00014	33 db		 xor	 ebx, ebx
  00016	89 1e		 mov	 DWORD PTR [esi], ebx
  00018	89 5e 04	 mov	 DWORD PTR [esi+4], ebx
  0001b	89 5e 08	 mov	 DWORD PTR [esi+8], ebx
  0001e	8b 47 04	 mov	 eax, DWORD PTR [edi+4]
  00021	2b 07		 sub	 eax, DWORD PTR [edi]
  00023	c1 f8 05	 sar	 eax, 5
  00026	50		 push	 eax
  00027	e8 00 00 00 00	 call	 ?_Buy@?$vector@ULink@BoxSpace@@V?$allocator@ULink@BoxSpace@@@std@@@std@@IAE_NI@Z ; std::vector<BoxSpace::Link,std::allocator<BoxSpace::Link> >::_Buy
  0002c	84 c0		 test	 al, al
  0002e	74 1f		 je	 SHORT $LN7@vector

; 537  : 			_TRY_BEGIN
; 538  : 			this->_Mylast = _Ucopy(_Right.begin(), _Right.end(),
; 539  : 				this->_Myfirst);

  00030	ff 75 08	 push	 DWORD PTR __Cat$518498[ebp]
  00033	8b 0e		 mov	 ecx, DWORD PTR [esi]
  00035	8b 47 04	 mov	 eax, DWORD PTR [edi+4]
  00038	8b 3f		 mov	 edi, DWORD PTR [edi]
  0003a	8d 56 0c	 lea	 edx, DWORD PTR [esi+12]
  0003d	52		 push	 edx
  0003e	51		 push	 ecx
  0003f	50		 push	 eax
  00040	57		 push	 edi
  00041	89 5d fc	 mov	 DWORD PTR __$EHRec$[ebp+12], ebx
  00044	e8 00 00 00 00	 call	 ??$_Uninit_copy@V?$_Vector_const_iterator@V?$_Vector_val@ULink@BoxSpace@@V?$allocator@ULink@BoxSpace@@@std@@@std@@@std@@PAULink@BoxSpace@@V?$allocator@ULink@BoxSpace@@@2@@std@@YAPAULink@BoxSpace@@V?$_Vector_const_iterator@V?$_Vector_val@ULink@BoxSpace@@V?$allocator@ULink@BoxSpace@@@std@@@std@@@0@0PAU12@AAV?$allocator@ULink@BoxSpace@@@0@U_Nonscalar_ptr_iterator_tag@0@@Z ; std::_Uninit_copy<std::_Vector_const_iterator<std::_Vector_val<BoxSpace::Link,std::allocator<BoxSpace::Link> > >,BoxSpace::Link *,std::allocator<BoxSpace::Link> >
  00049	83 c4 14	 add	 esp, 20			; 00000014H
  0004c	89 46 04	 mov	 DWORD PTR [esi+4], eax
$LN7@vector:

; 543  : 			_CATCH_END
; 544  : 		}

  0004f	8b c6		 mov	 eax, esi
  00051	e8 00 00 00 00	 call	 __EH_epilog3
  00056	c2 04 00	 ret	 4
__catch$??0?$vector@ULink@BoxSpace@@V?$allocator@ULink@BoxSpace@@@std@@@std@@QAE@ABV01@@Z$0:

; 540  : 			_CATCH_ALL
; 541  : 			_Tidy();

  00059	8b 4d ec	 mov	 ecx, DWORD PTR _this$[ebp]
  0005c	e8 00 00 00 00	 call	 ?_Tidy@?$vector@ULink@BoxSpace@@V?$allocator@ULink@BoxSpace@@@std@@@std@@IAEXXZ ; std::vector<BoxSpace::Link,std::allocator<BoxSpace::Link> >::_Tidy

; 542  : 			_RERAISE;

  00061	33 db		 xor	 ebx, ebx
  00063	53		 push	 ebx
  00064	53		 push	 ebx
  00065	e8 00 00 00 00	 call	 __CxxThrowException@8
$LN38@vector:
$LN37@vector:
  0006a	cc		 int	 3
_TEXT	ENDS
;	COMDAT text$x
text$x	SEGMENT
__ehhandler$??0?$vector@ULink@BoxSpace@@V?$allocator@ULink@BoxSpace@@@std@@@std@@QAE@ABV01@@Z:
  00000	8b 54 24 08	 mov	 edx, DWORD PTR [esp+8]
  00004	8d 42 0c	 lea	 eax, DWORD PTR [edx+12]
  00007	8b 4a e8	 mov	 ecx, DWORD PTR [edx-24]
  0000a	33 c8		 xor	 ecx, eax
  0000c	e8 00 00 00 00	 call	 @__security_check_cookie@4
  00011	b8 00 00 00 00	 mov	 eax, OFFSET __ehfuncinfo$??0?$vector@ULink@BoxSpace@@V?$allocator@ULink@BoxSpace@@@std@@@std@@QAE@ABV01@@Z
  00016	e9 00 00 00 00	 jmp	 ___CxxFrameHandler3
text$x	ENDS
??0?$vector@ULink@BoxSpace@@V?$allocator@ULink@BoxSpace@@@std@@@std@@QAE@ABV01@@Z ENDP ; std::vector<BoxSpace::Link,std::allocator<BoxSpace::Link> >::vector<BoxSpace::Link,std::allocator<BoxSpace::Link> >
PUBLIC	??4?$basic_string@DU?$char_traits@D@std@@V?$allocator@D@2@@std@@QAEAAV01@$$QAV01@@Z ; std::basic_string<char,std::char_traits<char>,std::allocator<char> >::operator=
; Function compile flags: /Ogsp
; File c:\program files (x86)\microsoft visual studio 10.0\vc\include\xstring
;	COMDAT ??4?$basic_string@DU?$char_traits@D@std@@V?$allocator@D@2@@std@@QAEAAV01@$$QAV01@@Z
_TEXT	SEGMENT
__Right$ = 8						; size = 4
??4?$basic_string@DU?$char_traits@D@std@@V?$allocator@D@2@@std@@QAEAAV01@$$QAV01@@Z PROC ; std::basic_string<char,std::char_traits<char>,std::allocator<char> >::operator=, COMDAT
; _this$ = ecx

; 708  : 		{	// assign by moving _Right

  00000	55		 push	 ebp
  00001	8b ec		 mov	 ebp, esp

; 710  : 		}

  00003	5d		 pop	 ebp

; 709  : 		return (assign(_STD forward<_Myt>(_Right)));

  00004	e9 00 00 00 00	 jmp	 ?assign@?$basic_string@DU?$char_traits@D@std@@V?$allocator@D@2@@std@@QAEAAV12@$$QAV12@@Z ; std::basic_string<char,std::char_traits<char>,std::allocator<char> >::assign
??4?$basic_string@DU?$char_traits@D@std@@V?$allocator@D@2@@std@@QAEAAV01@$$QAV01@@Z ENDP ; std::basic_string<char,std::char_traits<char>,std::allocator<char> >::operator=
_TEXT	ENDS
PUBLIC	?clear@?$AStarSearcher@VBoxSpace@@PAUBox@1@@@QAEXXZ ; AStarSearcher<BoxSpace,BoxSpace::Box *>::clear
; Function compile flags: /Ogsp
; File d:\lost saga for developer\youtube\tutorial\source\src\lsclient\astar.h
;	COMDAT ?clear@?$AStarSearcher@VBoxSpace@@PAUBox@1@@@QAEXXZ
_TEXT	SEGMENT
$T518584 = -4						; size = 4
?clear@?$AStarSearcher@VBoxSpace@@PAUBox@1@@@QAEXXZ PROC ; AStarSearcher<BoxSpace,BoxSpace::Box *>::clear, COMDAT
; _this$ = ecx

; 40   : 	{

  00000	55		 push	 ebp
  00001	8b ec		 mov	 ebp, esp
  00003	51		 push	 ecx
  00004	56		 push	 esi
  00005	8b f1		 mov	 esi, ecx

; 41   : 		m_pool.clear();

  00007	8d 4e 04	 lea	 ecx, DWORD PTR [esi+4]
  0000a	e8 00 00 00 00	 call	 ?clear@?$obj_heap@UDNode@?$AStarSearcher@VBoxSpace@@PAUBox@1@@@$0IA@@@QAEXXZ ; obj_heap<AStarSearcher<BoxSpace,BoxSpace::Box *>::DNode,128>::clear

; 42   : 		m_openList.clear();

  0000f	8d 4e 1c	 lea	 ecx, DWORD PTR [esi+28]
  00012	e8 00 00 00 00	 call	 ?clear@?$PriorityQueue@PAUDNode@?$AStarSearcher@VBoxSpace@@PAUBox@1@@@UDNodeCostGreater@2@@@QAEXXZ ; PriorityQueue<AStarSearcher<BoxSpace,BoxSpace::Box *>::DNode *,AStarSearcher<BoxSpace,BoxSpace::Box *>::DNodeCostGreater>::clear

; 43   : 		m_resultPath.clear();

  00017	8d 4e 30	 lea	 ecx, DWORD PTR [esi+48]
  0001a	8b 41 04	 mov	 eax, DWORD PTR [ecx+4]
  0001d	8b 11		 mov	 edx, DWORD PTR [ecx]
  0001f	50		 push	 eax
  00020	52		 push	 edx
  00021	8d 45 fc	 lea	 eax, DWORD PTR $T518584[ebp]
  00024	50		 push	 eax
  00025	e8 00 00 00 00	 call	 ?erase@?$vector@PBQAUBox@BoxSpace@@V?$allocator@PBQAUBox@BoxSpace@@@std@@@std@@QAE?AV?$_Vector_iterator@V?$_Vector_val@PBQAUBox@BoxSpace@@V?$allocator@PBQAUBox@BoxSpace@@@std@@@std@@@2@V?$_Vector_const_iterator@V?$_Vector_val@PBQAUBox@BoxSpace@@V?$allocator@PBQAUBox@BoxSpace@@@std@@@std@@@2@0@Z ; std::vector<BoxSpace::Box * const *,std::allocator<BoxSpace::Box * const *> >::erase
  0002a	5e		 pop	 esi

; 44   : 	}

  0002b	c9		 leave
  0002c	c3		 ret	 0
?clear@?$AStarSearcher@VBoxSpace@@PAUBox@1@@@QAEXXZ ENDP ; AStarSearcher<BoxSpace,BoxSpace::Box *>::clear
_TEXT	ENDS
PUBLIC	??1?$vector@ULink@BoxSpace@@V?$allocator@ULink@BoxSpace@@@std@@@std@@QAE@XZ ; std::vector<BoxSpace::Link,std::allocator<BoxSpace::Link> >::~vector<BoxSpace::Link,std::allocator<BoxSpace::Link> >
; Function compile flags: /Ogsp
; File c:\program files (x86)\microsoft visual studio 10.0\vc\include\vector
;	COMDAT ??1?$vector@ULink@BoxSpace@@V?$allocator@ULink@BoxSpace@@@std@@@std@@QAE@XZ
_TEXT	SEGMENT
??1?$vector@ULink@BoxSpace@@V?$allocator@ULink@BoxSpace@@@std@@@std@@QAE@XZ PROC ; std::vector<BoxSpace::Link,std::allocator<BoxSpace::Link> >::~vector<BoxSpace::Link,std::allocator<BoxSpace::Link> >, COMDAT
; _this$ = ecx

; 705  : 		_Tidy();

  00000	e9 00 00 00 00	 jmp	 ?_Tidy@?$vector@ULink@BoxSpace@@V?$allocator@ULink@BoxSpace@@@std@@@std@@IAEXXZ ; std::vector<BoxSpace::Link,std::allocator<BoxSpace::Link> >::_Tidy
??1?$vector@ULink@BoxSpace@@V?$allocator@ULink@BoxSpace@@@std@@@std@@QAE@XZ ENDP ; std::vector<BoxSpace::Link,std::allocator<BoxSpace::Link> >::~vector<BoxSpace::Link,std::allocator<BoxSpace::Link> >
_TEXT	ENDS
PUBLIC	?clear@BoxSpace@@QAEXXZ				; BoxSpace::clear
; Function compile flags: /Ogsp
; File d:\lost saga for developer\youtube\tutorial\source\src\lsclient\boxgraph.cpp
;	COMDAT ?clear@BoxSpace@@QAEXXZ
_TEXT	SEGMENT
?clear@BoxSpace@@QAEXXZ PROC				; BoxSpace::clear, COMDAT
; _this$ = ecx

; 203  : 	m_bFixed = false;

  00000	c6 41 50 00	 mov	 BYTE PTR [ecx+80], 0

; 204  : 	m_astar.clear();

  00004	83 c1 10	 add	 ecx, 16			; 00000010H
  00007	e9 00 00 00 00	 jmp	 ?clear@?$AStarSearcher@VBoxSpace@@PAUBox@1@@@QAEXXZ ; AStarSearcher<BoxSpace,BoxSpace::Box *>::clear
?clear@BoxSpace@@QAEXXZ ENDP				; BoxSpace::clear
_TEXT	ENDS
PUBLIC	??0Box@BoxSpace@@QAE@XZ				; BoxSpace::Box::Box
; Function compile flags: /Ogsp
;	COMDAT ??0Box@BoxSpace@@QAE@XZ
_TEXT	SEGMENT
??0Box@BoxSpace@@QAE@XZ PROC				; BoxSpace::Box::Box, COMDAT
; _this$ = ecx
  00000	8b c1		 mov	 eax, ecx
  00002	33 c9		 xor	 ecx, ecx
  00004	c7 40 14 0f 00
	00 00		 mov	 DWORD PTR [eax+20], 15	; 0000000fH
  0000b	89 48 10	 mov	 DWORD PTR [eax+16], ecx
  0000e	88 08		 mov	 BYTE PTR [eax], cl
  00010	89 48 34	 mov	 DWORD PTR [eax+52], ecx
  00013	89 48 38	 mov	 DWORD PTR [eax+56], ecx
  00016	89 48 3c	 mov	 DWORD PTR [eax+60], ecx
  00019	c3		 ret	 0
??0Box@BoxSpace@@QAE@XZ ENDP				; BoxSpace::Box::Box
_TEXT	ENDS
PUBLIC	?push_back@?$vector@ULink@BoxSpace@@V?$allocator@ULink@BoxSpace@@@std@@@std@@QAEXABULink@BoxSpace@@@Z ; std::vector<BoxSpace::Link,std::allocator<BoxSpace::Link> >::push_back
; Function compile flags: /Ogsp
; File c:\program files (x86)\microsoft visual studio 10.0\vc\include\vector
;	COMDAT ?push_back@?$vector@ULink@BoxSpace@@V?$allocator@ULink@BoxSpace@@@std@@@std@@QAEXABULink@BoxSpace@@@Z
_TEXT	SEGMENT
__Val$ = 8						; size = 4
?push_back@?$vector@ULink@BoxSpace@@V?$allocator@ULink@BoxSpace@@@std@@@std@@QAEXABULink@BoxSpace@@@Z PROC ; std::vector<BoxSpace::Link,std::allocator<BoxSpace::Link> >::push_back, COMDAT
; _this$ = ecx

; 976  : 		{	// insert element at end

  00000	55		 push	 ebp
  00001	8b ec		 mov	 ebp, esp
  00003	56		 push	 esi
  00004	8b f1		 mov	 esi, ecx

; 977  : 		if (_Inside(_STD addressof(_Val)))

  00006	8b 46 04	 mov	 eax, DWORD PTR [esi+4]
  00009	57		 push	 edi
  0000a	8b 7d 08	 mov	 edi, DWORD PTR __Val$[ebp]
  0000d	3b f8		 cmp	 edi, eax
  0000f	73 2a		 jae	 SHORT $LN4@push_back@6
  00011	8b 0e		 mov	 ecx, DWORD PTR [esi]
  00013	3b cf		 cmp	 ecx, edi
  00015	77 24		 ja	 SHORT $LN4@push_back@6

; 978  : 			{	// push back an element
; 979  : 			size_type _Idx = _STD addressof(_Val) - this->_Myfirst;

  00017	2b f9		 sub	 edi, ecx

; 980  : 			if (this->_Mylast == this->_Myend)

  00019	3b 46 08	 cmp	 eax, DWORD PTR [esi+8]
  0001c	75 09		 jne	 SHORT $LN3@push_back@6

; 981  : 				_Reserve(1);

  0001e	6a 01		 push	 1
  00020	8b ce		 mov	 ecx, esi
  00022	e8 00 00 00 00	 call	 ?_Reserve@?$vector@ULink@BoxSpace@@V?$allocator@ULink@BoxSpace@@@std@@@std@@IAEXI@Z ; std::vector<BoxSpace::Link,std::allocator<BoxSpace::Link> >::_Reserve
$LN3@push_back@6:

; 982  : 			_Orphan_range(this->_Mylast, this->_Mylast);
; 983  : 			_Cons_val(this->_Alval,
; 984  : 				this->_Mylast,
; 985  : 				this->_Myfirst[_Idx]);

  00027	83 e7 e0	 and	 edi, -32		; ffffffe0H
  0002a	03 3e		 add	 edi, DWORD PTR [esi]
  0002c	8d 46 0c	 lea	 eax, DWORD PTR [esi+12]
  0002f	57		 push	 edi
  00030	ff 76 04	 push	 DWORD PTR [esi+4]
  00033	50		 push	 eax
  00034	e8 00 00 00 00	 call	 ??$_Cons_val@V?$allocator@ULink@BoxSpace@@@std@@ULink@BoxSpace@@AAU34@@std@@YAXAAV?$allocator@ULink@BoxSpace@@@0@PAULink@BoxSpace@@AAU23@@Z ; std::_Cons_val<std::allocator<BoxSpace::Link>,BoxSpace::Link,BoxSpace::Link &>

; 986  : 			++this->_Mylast;
; 987  : 			}
; 988  : 		else

  00039	eb 1b		 jmp	 SHORT $LN20@push_back@6
$LN4@push_back@6:

; 989  : 			{	// push back a non-element
; 990  : 			if (this->_Mylast == this->_Myend)

  0003b	3b 46 08	 cmp	 eax, DWORD PTR [esi+8]
  0003e	75 09		 jne	 SHORT $LN1@push_back@6

; 991  : 				_Reserve(1);

  00040	6a 01		 push	 1
  00042	8b ce		 mov	 ecx, esi
  00044	e8 00 00 00 00	 call	 ?_Reserve@?$vector@ULink@BoxSpace@@V?$allocator@ULink@BoxSpace@@@std@@@std@@IAEXI@Z ; std::vector<BoxSpace::Link,std::allocator<BoxSpace::Link> >::_Reserve
$LN1@push_back@6:

; 992  : 			_Orphan_range(this->_Mylast, this->_Mylast);
; 993  : 			_Cons_val(this->_Alval,
; 994  : 				this->_Mylast,
; 995  : 				_Val);

  00049	57		 push	 edi
  0004a	ff 76 04	 push	 DWORD PTR [esi+4]
  0004d	8d 46 0c	 lea	 eax, DWORD PTR [esi+12]
  00050	50		 push	 eax
  00051	e8 00 00 00 00	 call	 ??$_Cons_val@V?$allocator@ULink@BoxSpace@@@std@@ULink@BoxSpace@@ABU34@@std@@YAXAAV?$allocator@ULink@BoxSpace@@@0@PAULink@BoxSpace@@ABU23@@Z ; std::_Cons_val<std::allocator<BoxSpace::Link>,BoxSpace::Link,BoxSpace::Link const &>
$LN20@push_back@6:
  00056	83 c4 0c	 add	 esp, 12			; 0000000cH

; 996  : 			++this->_Mylast;

  00059	83 46 04 20	 add	 DWORD PTR [esi+4], 32	; 00000020H
  0005d	5f		 pop	 edi
  0005e	5e		 pop	 esi

; 997  : 			}
; 998  : 		}

  0005f	5d		 pop	 ebp
  00060	c2 04 00	 ret	 4
?push_back@?$vector@ULink@BoxSpace@@V?$allocator@ULink@BoxSpace@@@std@@@std@@QAEXABULink@BoxSpace@@@Z ENDP ; std::vector<BoxSpace::Link,std::allocator<BoxSpace::Link> >::push_back
_TEXT	ENDS
PUBLIC	?getDN@?$AStarSearcher@VBoxSpace@@PAUBox@1@@@AAEPAUDNode@1@ABQAUBox@BoxSpace@@@Z ; AStarSearcher<BoxSpace,BoxSpace::Box *>::getDN
; Function compile flags: /Ogsp
; File d:\lost saga for developer\youtube\tutorial\source\src\lsclient\astar.h
;	COMDAT ?getDN@?$AStarSearcher@VBoxSpace@@PAUBox@1@@@AAEPAUDNode@1@ABQAUBox@BoxSpace@@@Z
_TEXT	SEGMENT
_node$ = 8						; size = 4
?getDN@?$AStarSearcher@VBoxSpace@@PAUBox@1@@@AAEPAUDNode@1@ABQAUBox@BoxSpace@@@Z PROC ; AStarSearcher<BoxSpace,BoxSpace::Box *>::getDN, COMDAT
; _this$ = ecx

; 155  : 	{

  00000	55		 push	 ebp
  00001	8b ec		 mov	 ebp, esp
  00003	56		 push	 esi

; 156  : 		DNode* pDN = reinterpret_cast< DNode* >( m_pIntf->getInfo( this, node ) );

  00004	8b 75 08	 mov	 esi, DWORD PTR _node$[ebp]
  00007	8b 06		 mov	 eax, DWORD PTR [esi]
  00009	8b 40 54	 mov	 eax, DWORD PTR [eax+84]

; 157  : 		if ( pDN == NULL )

  0000c	85 c0		 test	 eax, eax
  0000e	75 11		 jne	 SHORT $LN6@getDN

; 158  : 		{
; 159  : 			pDN = m_pool.alloc();

  00010	83 c1 04	 add	 ecx, 4
  00013	e8 00 00 00 00	 call	 ?alloc@?$obj_heap@UDNode@?$AStarSearcher@VBoxSpace@@PAUBox@1@@@$0IA@@@QAEPAUDNode@?$AStarSearcher@VBoxSpace@@PAUBox@1@@@XZ ; obj_heap<AStarSearcher<BoxSpace,BoxSpace::Box *>::DNode,128>::alloc

; 160  : 			pDN->node = node;

  00018	8b 0e		 mov	 ecx, DWORD PTR [esi]
  0001a	89 08		 mov	 DWORD PTR [eax], ecx

; 161  : 			m_pIntf->setInfo( this, node, pDN );

  0001c	8b 0e		 mov	 ecx, DWORD PTR [esi]
  0001e	89 41 54	 mov	 DWORD PTR [ecx+84], eax
$LN6@getDN:
  00021	5e		 pop	 esi

; 162  : 		}
; 163  : 		return pDN;
; 164  : 	}

  00022	5d		 pop	 ebp
  00023	c2 04 00	 ret	 4
?getDN@?$AStarSearcher@VBoxSpace@@PAUBox@1@@@AAEPAUDNode@1@ABQAUBox@BoxSpace@@@Z ENDP ; AStarSearcher<BoxSpace,BoxSpace::Box *>::getDN
_TEXT	ENDS
PUBLIC	??$stable_sort@V?$_Vector_iterator@V?$_Vector_val@ULink@BoxSpace@@V?$allocator@ULink@BoxSpace@@@std@@@std@@@std@@UFn_WalkLess@@@std@@YAXV?$_Vector_iterator@V?$_Vector_val@ULink@BoxSpace@@V?$allocator@ULink@BoxSpace@@@std@@@std@@@0@0UFn_WalkLess@@@Z ; std::stable_sort<std::_Vector_iterator<std::_Vector_val<BoxSpace::Link,std::allocator<BoxSpace::Link> > >,Fn_WalkLess>
; Function compile flags: /Ogsp
; File c:\program files (x86)\microsoft visual studio 10.0\vc\include\algorithm
;	COMDAT ??$stable_sort@V?$_Vector_iterator@V?$_Vector_val@ULink@BoxSpace@@V?$allocator@ULink@BoxSpace@@@std@@@std@@@std@@UFn_WalkLess@@@std@@YAXV?$_Vector_iterator@V?$_Vector_val@ULink@BoxSpace@@V?$allocator@ULink@BoxSpace@@@std@@@std@@@0@0UFn_WalkLess@@@Z
_TEXT	SEGMENT
__First$ = 8						; size = 4
__Last$ = 12						; size = 4
__Pred$ = 16						; size = 1
??$stable_sort@V?$_Vector_iterator@V?$_Vector_val@ULink@BoxSpace@@V?$allocator@ULink@BoxSpace@@@std@@@std@@@std@@UFn_WalkLess@@@std@@YAXV?$_Vector_iterator@V?$_Vector_val@ULink@BoxSpace@@V?$allocator@ULink@BoxSpace@@@std@@@std@@@0@0UFn_WalkLess@@@Z PROC ; std::stable_sort<std::_Vector_iterator<std::_Vector_val<BoxSpace::Link,std::allocator<BoxSpace::Link> > >,Fn_WalkLess>, COMDAT

; 4018 : 	{	// sort preserving order of equivalents, using _Pred

  00000	55		 push	 ebp
  00001	8b ec		 mov	 ebp, esp

; 4019 : 	_DEBUG_RANGE(_First, _Last);
; 4020 : 	_DEBUG_POINTER(_Pred);
; 4021 : 	if (_First != _Last)

  00003	8b 45 08	 mov	 eax, DWORD PTR __First$[ebp]
  00006	3b 45 0c	 cmp	 eax, DWORD PTR __Last$[ebp]
  00009	74 13		 je	 SHORT $LN1@stable_sor

; 4022 : 		_Stable_sort(_Unchecked(_First), _Unchecked(_Last),
; 4023 : 			_Dist_type(_First), _Val_type(_First), _Pred);

  0000b	ff 75 10	 push	 DWORD PTR __Pred$[ebp]
  0000e	6a 00		 push	 0
  00010	6a 00		 push	 0
  00012	ff 75 0c	 push	 DWORD PTR __Last$[ebp]
  00015	50		 push	 eax
  00016	e8 00 00 00 00	 call	 ??$_Stable_sort@PAULink@BoxSpace@@HU12@UFn_WalkLess@@@std@@YAXPAULink@BoxSpace@@0PAH0UFn_WalkLess@@@Z ; std::_Stable_sort<BoxSpace::Link *,int,BoxSpace::Link,Fn_WalkLess>
  0001b	83 c4 14	 add	 esp, 20			; 00000014H
$LN1@stable_sor:

; 4024 : 	}

  0001e	5d		 pop	 ebp
  0001f	c3		 ret	 0
??$stable_sort@V?$_Vector_iterator@V?$_Vector_val@ULink@BoxSpace@@V?$allocator@ULink@BoxSpace@@@std@@@std@@@std@@UFn_WalkLess@@@std@@YAXV?$_Vector_iterator@V?$_Vector_val@ULink@BoxSpace@@V?$allocator@ULink@BoxSpace@@@std@@@std@@@0@0UFn_WalkLess@@@Z ENDP ; std::stable_sort<std::_Vector_iterator<std::_Vector_val<BoxSpace::Link,std::allocator<BoxSpace::Link> > >,Fn_WalkLess>
_TEXT	ENDS
PUBLIC	??0Box@BoxSpace@@QAE@ABU01@@Z			; BoxSpace::Box::Box
;	COMDAT xdata$x
xdata$x	SEGMENT
__unwindtable$??0Box@BoxSpace@@QAE@ABU01@@Z DD 0ffffffffH
	DD	FLAT:__unwindfunclet$??0Box@BoxSpace@@QAE@ABU01@@Z$0
__ehfuncinfo$??0Box@BoxSpace@@QAE@ABU01@@Z DD 019930522H
	DD	01H
	DD	FLAT:__unwindtable$??0Box@BoxSpace@@QAE@ABU01@@Z
	DD	2 DUP(00H)
	DD	2 DUP(00H)
	DD	00H
	DD	01H
; Function compile flags: /Ogsp
xdata$x	ENDS
;	COMDAT ??0Box@BoxSpace@@QAE@ABU01@@Z
_TEXT	SEGMENT
_this$ = -16						; size = 4
__$EHRec$ = -12						; size = 12
___that$ = 8						; size = 4
??0Box@BoxSpace@@QAE@ABU01@@Z PROC			; BoxSpace::Box::Box, COMDAT
; _this$ = ecx
  00000	6a 04		 push	 4
  00002	b8 00 00 00 00	 mov	 eax, __ehhandler$??0Box@BoxSpace@@QAE@ABU01@@Z
  00007	e8 00 00 00 00	 call	 __EH_prolog3
  0000c	8b d9		 mov	 ebx, ecx
  0000e	89 5d f0	 mov	 DWORD PTR _this$[ebp], ebx
  00011	8b 75 08	 mov	 esi, DWORD PTR ___that$[ebp]
  00014	56		 push	 esi
  00015	e8 00 00 00 00	 call	 ??0?$basic_string@DU?$char_traits@D@std@@V?$allocator@D@2@@std@@QAE@ABV01@@Z ; std::basic_string<char,std::char_traits<char>,std::allocator<char> >::basic_string<char,std::char_traits<char>,std::allocator<char> >
  0001a	8b 45 08	 mov	 eax, DWORD PTR ___that$[ebp]
  0001d	83 65 fc 00	 and	 DWORD PTR __$EHRec$[ebp+8], 0
  00021	83 c6 1c	 add	 esi, 28			; 0000001cH
  00024	8d 7b 1c	 lea	 edi, DWORD PTR [ebx+28]
  00027	a5		 movsd
  00028	a5		 movsd
  00029	a5		 movsd
  0002a	8d 70 28	 lea	 esi, DWORD PTR [eax+40]
  0002d	8d 7b 28	 lea	 edi, DWORD PTR [ebx+40]
  00030	a5		 movsd
  00031	a5		 movsd
  00032	83 c0 34	 add	 eax, 52			; 00000034H
  00035	50		 push	 eax
  00036	8d 4b 34	 lea	 ecx, DWORD PTR [ebx+52]
  00039	a5		 movsd
  0003a	e8 00 00 00 00	 call	 ??0?$vector@ULink@BoxSpace@@V?$allocator@ULink@BoxSpace@@@std@@@std@@QAE@ABV01@@Z ; std::vector<BoxSpace::Link,std::allocator<BoxSpace::Link> >::vector<BoxSpace::Link,std::allocator<BoxSpace::Link> >
  0003f	8b 45 08	 mov	 eax, DWORD PTR ___that$[ebp]
  00042	66 8b 48 44	 mov	 cx, WORD PTR [eax+68]
  00046	66 89 4b 44	 mov	 WORD PTR [ebx+68], cx
  0004a	8d 70 48	 lea	 esi, DWORD PTR [eax+72]
  0004d	8d 7b 48	 lea	 edi, DWORD PTR [ebx+72]
  00050	a5		 movsd
  00051	a5		 movsd
  00052	a5		 movsd
  00053	8b 40 54	 mov	 eax, DWORD PTR [eax+84]
  00056	89 43 54	 mov	 DWORD PTR [ebx+84], eax
  00059	8b c3		 mov	 eax, ebx
  0005b	e8 00 00 00 00	 call	 __EH_epilog3
  00060	c2 04 00	 ret	 4
_TEXT	ENDS
;	COMDAT text$x
text$x	SEGMENT
__unwindfunclet$??0Box@BoxSpace@@QAE@ABU01@@Z$0:
  00000	8b 4d f0	 mov	 ecx, DWORD PTR _this$[ebp]
  00003	e9 00 00 00 00	 jmp	 ??1?$basic_string@DU?$char_traits@D@std@@V?$allocator@D@2@@std@@QAE@XZ ; std::basic_string<char,std::char_traits<char>,std::allocator<char> >::~basic_string<char,std::char_traits<char>,std::allocator<char> >
__ehhandler$??0Box@BoxSpace@@QAE@ABU01@@Z:
  00008	8b 54 24 08	 mov	 edx, DWORD PTR [esp+8]
  0000c	8d 42 0c	 lea	 eax, DWORD PTR [edx+12]
  0000f	8b 4a ec	 mov	 ecx, DWORD PTR [edx-20]
  00012	33 c8		 xor	 ecx, eax
  00014	e8 00 00 00 00	 call	 @__security_check_cookie@4
  00019	b8 00 00 00 00	 mov	 eax, OFFSET __ehfuncinfo$??0Box@BoxSpace@@QAE@ABU01@@Z
  0001e	e9 00 00 00 00	 jmp	 ___CxxFrameHandler3
text$x	ENDS
??0Box@BoxSpace@@QAE@ABU01@@Z ENDP			; BoxSpace::Box::Box
PUBLIC	?construct@?$allocator@UBox@BoxSpace@@@std@@QAEXPAUBox@BoxSpace@@$$QAU34@@Z ; std::allocator<BoxSpace::Box>::construct
;	COMDAT xdata$x
; File c:\program files (x86)\microsoft visual studio 10.0\vc\include\utility
xdata$x	SEGMENT
__unwindtable$?construct@?$allocator@UBox@BoxSpace@@@std@@QAEXPAUBox@BoxSpace@@$$QAU34@@Z DD 0ffffffffH
	DD	FLAT:__unwindfunclet$?construct@?$allocator@UBox@BoxSpace@@@std@@QAEXPAUBox@BoxSpace@@$$QAU34@@Z$0
__ehfuncinfo$?construct@?$allocator@UBox@BoxSpace@@@std@@QAEXPAUBox@BoxSpace@@$$QAU34@@Z DD 019930522H
	DD	01H
	DD	FLAT:__unwindtable$?construct@?$allocator@UBox@BoxSpace@@@std@@QAEXPAUBox@BoxSpace@@$$QAU34@@Z
	DD	2 DUP(00H)
	DD	2 DUP(00H)
	DD	00H
	DD	01H
; Function compile flags: /Ogsp
; File c:\program files (x86)\microsoft visual studio 10.0\vc\include\xmemory
xdata$x	ENDS
;	COMDAT ?construct@?$allocator@UBox@BoxSpace@@@std@@QAEXPAUBox@BoxSpace@@$$QAU34@@Z
_TEXT	SEGMENT
$T518833 = -16						; size = 4
__$EHRec$ = -12						; size = 12
__Ptr$ = 8						; size = 4
__Val$ = 12						; size = 4
?construct@?$allocator@UBox@BoxSpace@@@std@@QAEXPAUBox@BoxSpace@@$$QAU34@@Z PROC ; std::allocator<BoxSpace::Box>::construct, COMDAT
; _this$ = ecx

; 201  : 		{	// construct object at _Ptr with value _Val

  00000	6a 04		 push	 4
  00002	b8 00 00 00 00	 mov	 eax, __ehhandler$?construct@?$allocator@UBox@BoxSpace@@@std@@QAEXPAUBox@BoxSpace@@$$QAU34@@Z
  00007	e8 00 00 00 00	 call	 __EH_prolog3

; 202  : 		::new ((void _FARQ *)_Ptr) _Ty(_STD forward<_Ty>(_Val));

  0000c	8b 4d 08	 mov	 ecx, DWORD PTR __Ptr$[ebp]
  0000f	89 4d f0	 mov	 DWORD PTR $T518833[ebp], ecx
  00012	83 65 fc 00	 and	 DWORD PTR __$EHRec$[ebp+8], 0
  00016	85 c9		 test	 ecx, ecx
  00018	74 08		 je	 SHORT $LN3@construct@11
  0001a	ff 75 0c	 push	 DWORD PTR __Val$[ebp]
  0001d	e8 00 00 00 00	 call	 ??0Box@BoxSpace@@QAE@ABU01@@Z
$LN3@construct@11:

; 203  : 		}

  00022	e8 00 00 00 00	 call	 __EH_epilog3
  00027	c2 08 00	 ret	 8
_TEXT	ENDS
;	COMDAT text$x
text$x	SEGMENT
__unwindfunclet$?construct@?$allocator@UBox@BoxSpace@@@std@@QAEXPAUBox@BoxSpace@@$$QAU34@@Z$0:
  00000	ff 75 08	 push	 DWORD PTR __Ptr$[ebp]
  00003	ff 75 f0	 push	 DWORD PTR $T518833[ebp]
  00006	e8 00 00 00 00	 call	 ??3@YAXPAX0@Z		; operator delete
  0000b	59		 pop	 ecx
  0000c	59		 pop	 ecx
  0000d	c3		 ret	 0
__ehhandler$?construct@?$allocator@UBox@BoxSpace@@@std@@QAEXPAUBox@BoxSpace@@$$QAU34@@Z:
  0000e	8b 54 24 08	 mov	 edx, DWORD PTR [esp+8]
  00012	8d 42 0c	 lea	 eax, DWORD PTR [edx+12]
  00015	8b 4a ec	 mov	 ecx, DWORD PTR [edx-20]
  00018	33 c8		 xor	 ecx, eax
  0001a	e8 00 00 00 00	 call	 @__security_check_cookie@4
  0001f	b8 00 00 00 00	 mov	 eax, OFFSET __ehfuncinfo$?construct@?$allocator@UBox@BoxSpace@@@std@@QAEXPAUBox@BoxSpace@@$$QAU34@@Z
  00024	e9 00 00 00 00	 jmp	 ___CxxFrameHandler3
text$x	ENDS
?construct@?$allocator@UBox@BoxSpace@@@std@@QAEXPAUBox@BoxSpace@@$$QAU34@@Z ENDP ; std::allocator<BoxSpace::Box>::construct
PUBLIC	??1Box@BoxSpace@@QAE@XZ				; BoxSpace::Box::~Box
;	COMDAT xdata$x
xdata$x	SEGMENT
__unwindtable$??1Box@BoxSpace@@QAE@XZ DD 0ffffffffH
	DD	FLAT:__unwindfunclet$??1Box@BoxSpace@@QAE@XZ$0
__ehfuncinfo$??1Box@BoxSpace@@QAE@XZ DD 019930522H
	DD	01H
	DD	FLAT:__unwindtable$??1Box@BoxSpace@@QAE@XZ
	DD	2 DUP(00H)
	DD	2 DUP(00H)
	DD	00H
	DD	01H
; Function compile flags: /Ogsp
xdata$x	ENDS
;	COMDAT ??1Box@BoxSpace@@QAE@XZ
_TEXT	SEGMENT
_this$ = -16						; size = 4
__$EHRec$ = -12						; size = 12
??1Box@BoxSpace@@QAE@XZ PROC				; BoxSpace::Box::~Box, COMDAT
; _this$ = ecx
  00000	6a 04		 push	 4
  00002	b8 00 00 00 00	 mov	 eax, __ehhandler$??1Box@BoxSpace@@QAE@XZ
  00007	e8 00 00 00 00	 call	 __EH_prolog3
  0000c	8b f1		 mov	 esi, ecx
  0000e	89 75 f0	 mov	 DWORD PTR _this$[ebp], esi
  00011	83 65 fc 00	 and	 DWORD PTR __$EHRec$[ebp+8], 0
  00015	8d 4e 34	 lea	 ecx, DWORD PTR [esi+52]
  00018	e8 00 00 00 00	 call	 ?_Tidy@?$vector@ULink@BoxSpace@@V?$allocator@ULink@BoxSpace@@@std@@@std@@IAEXXZ ; std::vector<BoxSpace::Link,std::allocator<BoxSpace::Link> >::_Tidy
  0001d	6a 00		 push	 0
  0001f	6a 01		 push	 1
  00021	8b ce		 mov	 ecx, esi
  00023	e8 00 00 00 00	 call	 ?_Tidy@?$basic_string@DU?$char_traits@D@std@@V?$allocator@D@2@@std@@QAEX_NI@Z ; std::basic_string<char,std::char_traits<char>,std::allocator<char> >::_Tidy
  00028	e8 00 00 00 00	 call	 __EH_epilog3
  0002d	c3		 ret	 0
_TEXT	ENDS
;	COMDAT text$x
text$x	SEGMENT
__unwindfunclet$??1Box@BoxSpace@@QAE@XZ$0:
  00000	8b 4d f0	 mov	 ecx, DWORD PTR _this$[ebp]
  00003	e9 00 00 00 00	 jmp	 ??1?$basic_string@DU?$char_traits@D@std@@V?$allocator@D@2@@std@@QAE@XZ ; std::basic_string<char,std::char_traits<char>,std::allocator<char> >::~basic_string<char,std::char_traits<char>,std::allocator<char> >
__ehhandler$??1Box@BoxSpace@@QAE@XZ:
  00008	8b 54 24 08	 mov	 edx, DWORD PTR [esp+8]
  0000c	8d 42 0c	 lea	 eax, DWORD PTR [edx+12]
  0000f	8b 4a ec	 mov	 ecx, DWORD PTR [edx-20]
  00012	33 c8		 xor	 ecx, eax
  00014	e8 00 00 00 00	 call	 @__security_check_cookie@4
  00019	b8 00 00 00 00	 mov	 eax, OFFSET __ehfuncinfo$??1Box@BoxSpace@@QAE@XZ
  0001e	e9 00 00 00 00	 jmp	 ___CxxFrameHandler3
text$x	ENDS
??1Box@BoxSpace@@QAE@XZ ENDP				; BoxSpace::Box::~Box
PUBLIC	?build@BoxSpace@@QAE_NXZ			; BoxSpace::build
; Function compile flags: /Ogsp
; File d:\lost saga for developer\youtube\tutorial\source\src\lsclient\boxgraph.cpp
;	COMDAT ?build@BoxSpace@@QAE_NXZ
_TEXT	SEGMENT
tv772 = -44						; size = 4
$T518877 = -40						; size = 1
tv595 = -36						; size = 4
_this$ = -32						; size = 4
tv583 = -28						; size = 4
$T518981 = -24						; size = 4
_link$505364 = -20					; size = 4
tv1214 = -16						; size = 4
tv1200 = -12						; size = 4
tv1077 = -8						; size = 4
tv1051 = -4						; size = 4
?build@BoxSpace@@QAE_NXZ PROC				; BoxSpace::build, COMDAT
; _this$ = ecx

; 171  : {

  00000	55		 push	 ebp
  00001	8b ec		 mov	 ebp, esp
  00003	83 ec 2c	 sub	 esp, 44			; 0000002cH
  00006	56		 push	 esi
  00007	8b f1		 mov	 esi, ecx
  00009	89 75 e0	 mov	 DWORD PTR _this$[ebp], esi

; 172  : 	clear();

  0000c	e8 00 00 00 00	 call	 ?clear@BoxSpace@@QAEXXZ	; BoxSpace::clear

; 173  : 
; 174  : 	for ( int i = 0, n = int(m_boxes.size()); i < n; i++ ) 

  00011	8b 46 04	 mov	 eax, DWORD PTR [esi+4]
  00014	2b 06		 sub	 eax, DWORD PTR [esi]
  00016	6a 58		 push	 88			; 00000058H
  00018	99		 cdq
  00019	59		 pop	 ecx
  0001a	f7 f9		 idiv	 ecx
  0001c	85 c0		 test	 eax, eax
  0001e	0f 8e 6d 03 00
	00		 jle	 $LN5@build

; 172  : 	clear();

  00024	83 65 f0 00	 and	 DWORD PTR tv1214[ebp], 0
  00028	53		 push	 ebx
  00029	89 45 dc	 mov	 DWORD PTR tv595[ebp], eax
  0002c	57		 push	 edi
$LL107@build:

; 175  : 	{
; 176  : 		Box& box = m_boxes[ i ];

  0002d	8b 1e		 mov	 ebx, DWORD PTR [esi]
  0002f	03 5d f0	 add	 ebx, DWORD PTR tv1214[ebp]

; 177  : 		box.pAStarInfo = NULL;
; 178  : 
; 179  : 		box.walkCount = 0;

  00032	33 c0		 xor	 eax, eax

; 180  : 		std::stable_sort( box.links.begin(), box.links.end(), Fn_WalkLess() );

  00034	8b 4b 34	 mov	 ecx, DWORD PTR [ebx+52]
  00037	83 63 54 00	 and	 DWORD PTR [ebx+84], 0
  0003b	8d 7d d8	 lea	 edi, DWORD PTR $T518877[ebp]
  0003e	aa		 stosb
  0003f	ff 75 d8	 push	 DWORD PTR $T518877[ebp]
  00042	66 89 43 44	 mov	 WORD PTR [ebx+68], ax
  00046	8b 43 38	 mov	 eax, DWORD PTR [ebx+56]
  00049	50		 push	 eax
  0004a	51		 push	 ecx
  0004b	e8 00 00 00 00	 call	 ??$stable_sort@V?$_Vector_iterator@V?$_Vector_val@ULink@BoxSpace@@V?$allocator@ULink@BoxSpace@@@std@@@std@@@std@@UFn_WalkLess@@@std@@YAXV?$_Vector_iterator@V?$_Vector_val@ULink@BoxSpace@@V?$allocator@ULink@BoxSpace@@@std@@@std@@@0@0UFn_WalkLess@@@Z ; std::stable_sort<std::_Vector_iterator<std::_Vector_val<BoxSpace::Link,std::allocator<BoxSpace::Link> > >,Fn_WalkLess>

; 181  : 
; 182  : 		for ( int il = 0, nl = int(box.links.size()); il < nl; il++ ) 

  00050	8b 43 38	 mov	 eax, DWORD PTR [ebx+56]
  00053	2b 43 34	 sub	 eax, DWORD PTR [ebx+52]
  00056	83 c4 0c	 add	 esp, 12			; 0000000cH
  00059	c1 f8 05	 sar	 eax, 5
  0005c	85 c0		 test	 eax, eax
  0005e	0f 8e 1e 03 00
	00		 jle	 $LN6@build

; 175  : 	{
; 176  : 		Box& box = m_boxes[ i ];

  00064	83 65 f4 00	 and	 DWORD PTR tv1200[ebp], 0
  00068	89 45 e4	 mov	 DWORD PTR tv583[ebp], eax
$LL106@build:

; 181  : 
; 182  : 		for ( int il = 0, nl = int(box.links.size()); il < nl; il++ ) 

  0006b	8b 43 34	 mov	 eax, DWORD PTR [ebx+52]
  0006e	03 45 f4	 add	 eax, DWORD PTR tv1200[ebp]

; 183  : 		{
; 184  : 			Link& link = box.links[ il ];
; 185  : 			Box& boxTo = m_boxes[ link.toBox ];

  00071	8b 4d e0	 mov	 ecx, DWORD PTR _this$[ebp]
  00074	0f bf 30	 movsx	 esi, WORD PTR [eax]
  00077	6b f6 58	 imul	 esi, 88			; 00000058H
  0007a	03 31		 add	 esi, DWORD PTR [ecx]

; 186  : 
; 187  : 			calcTransferPoints( box, boxTo, link.dir, link.posFrom, link.posTo );

  0007c	8d 48 14	 lea	 ecx, DWORD PTR [eax+20]
  0007f	8d 50 08	 lea	 edx, DWORD PTR [eax+8]
  00082	51		 push	 ecx
  00083	89 45 ec	 mov	 DWORD PTR _link$505364[ebp], eax
  00086	8a 40 02	 mov	 al, BYTE PTR [eax+2]
  00089	52		 push	 edx
  0008a	8b fb		 mov	 edi, ebx
  0008c	89 55 d4	 mov	 DWORD PTR tv772[ebp], edx
  0008f	e8 00 00 00 00	 call	 ?calcTransferPoints@@YAXABUBox@BoxSpace@@0DAAUD3DXVECTOR3@@1@Z ; calcTransferPoints

; 188  : 
; 189  : 			link.cost = getXYDist( box.posCenter, link.posFrom ) + getXYDist( link.posTo, boxTo.posCenter ) 
; 190  : 					  + calcTransferCost( link.posFrom, link.posTo, link.type );

  00094	8b 45 d4	 mov	 eax, DWORD PTR tv772[ebp]
  00097	f3 0f 10 00	 movss	 xmm0, DWORD PTR [eax]
  0009b	f3 0f 10 4b 48	 movss	 xmm1, DWORD PTR [ebx+72]
  000a0	f3 0f 10 50 04	 movss	 xmm2, DWORD PTR [eax+4]
  000a5	f3 0f 10 5b 4c	 movss	 xmm3, DWORD PTR [ebx+76]
  000aa	f3 0f 11 45 fc	 movss	 DWORD PTR tv1051[ebp], xmm0
  000af	0f 5a c9	 cvtps2pd xmm1, xmm1
  000b2	0f 5a c0	 cvtps2pd xmm0, xmm0
  000b5	f2 0f 5c c8	 subsd	 xmm1, xmm0
  000b9	f3 0f 11 55 f8	 movss	 DWORD PTR tv1077[ebp], xmm2
  000be	0f 5a d2	 cvtps2pd xmm2, xmm2
  000c1	0f 5a db	 cvtps2pd xmm3, xmm3
  000c4	f2 0f 5c da	 subsd	 xmm3, xmm2
  000c8	0f 57 d2	 xorps	 xmm2, xmm2
  000cb	66 0f 5a d3	 cvtpd2ps xmm2, xmm3
  000cf	0f 57 c0	 xorps	 xmm0, xmm0
  000d2	66 0f 5a c1	 cvtpd2ps xmm0, xmm1
  000d6	0f 5a c8	 cvtps2pd xmm1, xmm0
  000d9	f2 0f 10 05 00
	00 00 00	 movsd	 xmm0, QWORD PTR __mask@@AbsDouble@
  000e1	0f 5a d2	 cvtps2pd xmm2, xmm2
  000e4	0f 57 db	 xorps	 xmm3, xmm3
  000e7	66 0f 54 c8	 andpd	 xmm1, xmm0
  000eb	f2 0f 5a c9	 cvtsd2ss xmm1, xmm1
  000ef	66 0f 54 d0	 andpd	 xmm2, xmm0
  000f3	f3 0f 5a d9	 cvtss2sd xmm3, xmm1
  000f7	f2 0f 5a d2	 cvtsd2ss xmm2, xmm2
  000fb	0f 57 e4	 xorps	 xmm4, xmm4
  000fe	f3 0f 5a e2	 cvtss2sd xmm4, xmm2
  00102	66 0f 2f dc	 comisd	 xmm3, xmm4
  00106	59		 pop	 ecx
  00107	0f 57 db	 xorps	 xmm3, xmm3
  0010a	59		 pop	 ecx
  0010b	f3 0f 5a d9	 cvtss2sd xmm3, xmm1
  0010f	76 28		 jbe	 SHORT $LN37@build
  00111	0f 57 c9	 xorps	 xmm1, xmm1
  00114	f3 0f 5a ca	 cvtss2sd xmm1, xmm2
  00118	f2 0f 5c d9	 subsd	 xmm3, xmm1
  0011c	f2 0f 10 0d 00
	00 00 00	 movsd	 xmm1, QWORD PTR __real@3ff69fbe80000000
  00124	f3 0f 5a d2	 cvtss2sd xmm2, xmm2
  00128	f2 0f 59 d1	 mulsd	 xmm2, xmm1
  0012c	f2 0f 58 da	 addsd	 xmm3, xmm2
  00130	0f 57 d2	 xorps	 xmm2, xmm2
  00133	66 0f 5a d3	 cvtpd2ps xmm2, xmm3
  00137	eb 23		 jmp	 SHORT $LN108@build
$LN37@build:
  00139	f3 0f 5a d2	 cvtss2sd xmm2, xmm2
  0013d	f2 0f 5c d3	 subsd	 xmm2, xmm3
  00141	0f 57 db	 xorps	 xmm3, xmm3
  00144	f3 0f 5a d9	 cvtss2sd xmm3, xmm1
  00148	f2 0f 10 0d 00
	00 00 00	 movsd	 xmm1, QWORD PTR __real@3ff69fbe80000000
  00150	f2 0f 59 d9	 mulsd	 xmm3, xmm1
  00154	f2 0f 58 d3	 addsd	 xmm2, xmm3
  00158	f2 0f 5a d2	 cvtsd2ss xmm2, xmm2
$LN108@build:
  0015c	8b 45 ec	 mov	 eax, DWORD PTR _link$505364[ebp]
  0015f	f3 0f 10 66 48	 movss	 xmm4, DWORD PTR [esi+72]
  00164	f3 0f 10 76 4c	 movss	 xmm6, DWORD PTR [esi+76]
  00169	83 c0 14	 add	 eax, 20			; 00000014H
  0016c	f3 0f 11 55 e8	 movss	 DWORD PTR $T518981[ebp], xmm2
  00171	f3 0f 10 10	 movss	 xmm2, DWORD PTR [eax]
  00175	0f 5a da	 cvtps2pd xmm3, xmm2
  00178	0f 5a e4	 cvtps2pd xmm4, xmm4
  0017b	f2 0f 5c dc	 subsd	 xmm3, xmm4
  0017f	66 0f 5a db	 cvtpd2ps xmm3, xmm3
  00183	f3 0f 5a db	 cvtss2sd xmm3, xmm3
  00187	66 0f 54 d8	 andpd	 xmm3, xmm0
  0018b	0f 57 e4	 xorps	 xmm4, xmm4
  0018e	f2 0f 5a e3	 cvtsd2ss xmm4, xmm3
  00192	f3 0f 10 58 04	 movss	 xmm3, DWORD PTR [eax+4]
  00197	0f 5a eb	 cvtps2pd xmm5, xmm3
  0019a	0f 5a f6	 cvtps2pd xmm6, xmm6
  0019d	f2 0f 5c ee	 subsd	 xmm5, xmm6
  001a1	66 0f 5a ed	 cvtpd2ps xmm5, xmm5
  001a5	f3 0f 5a ed	 cvtss2sd xmm5, xmm5
  001a9	66 0f 54 e8	 andpd	 xmm5, xmm0
  001ad	f2 0f 5a ed	 cvtsd2ss xmm5, xmm5
  001b1	0f 5a f4	 cvtps2pd xmm6, xmm4
  001b4	0f 57 ff	 xorps	 xmm7, xmm7
  001b7	f3 0f 5a fd	 cvtss2sd xmm7, xmm5
  001bb	66 0f 2f f7	 comisd	 xmm6, xmm7
  001bf	0f 57 f6	 xorps	 xmm6, xmm6
  001c2	76 1d		 jbe	 SHORT $LN49@build
  001c4	f3 0f 5a f5	 cvtss2sd xmm6, xmm5
  001c8	0f 5a e4	 cvtps2pd xmm4, xmm4
  001cb	f2 0f 5c e6	 subsd	 xmm4, xmm6
  001cf	f3 0f 5a ed	 cvtss2sd xmm5, xmm5
  001d3	f2 0f 59 e9	 mulsd	 xmm5, xmm1
  001d7	f2 0f 58 e5	 addsd	 xmm4, xmm5
  001db	66 0f 5a e4	 cvtpd2ps xmm4, xmm4
  001df	eb 1d		 jmp	 SHORT $LN48@build
$LN49@build:
  001e1	0f 5a f4	 cvtps2pd xmm6, xmm4
  001e4	0f 5a e4	 cvtps2pd xmm4, xmm4
  001e7	f3 0f 5a ed	 cvtss2sd xmm5, xmm5
  001eb	f2 0f 59 e1	 mulsd	 xmm4, xmm1
  001ef	f2 0f 5c ee	 subsd	 xmm5, xmm6
  001f3	f2 0f 58 ec	 addsd	 xmm5, xmm4
  001f7	0f 57 e4	 xorps	 xmm4, xmm4
  001fa	f2 0f 5a e5	 cvtsd2ss xmm4, xmm5
$LN48@build:
  001fe	f3 0f 10 6d fc	 movss	 xmm5, DWORD PTR tv1051[ebp]
  00203	8b 4d ec	 mov	 ecx, DWORD PTR _link$505364[ebp]
  00206	8a 41 03	 mov	 al, BYTE PTR [ecx+3]
  00209	0f 5a d2	 cvtps2pd xmm2, xmm2
  0020c	0f 5a ed	 cvtps2pd xmm5, xmm5
  0020f	f2 0f 5c ea	 subsd	 xmm5, xmm2
  00213	0f 5a db	 cvtps2pd xmm3, xmm3
  00216	0f 57 d2	 xorps	 xmm2, xmm2
  00219	f2 0f 5a d5	 cvtsd2ss xmm2, xmm5
  0021d	f3 0f 10 6d f8	 movss	 xmm5, DWORD PTR tv1077[ebp]
  00222	0f 5a ed	 cvtps2pd xmm5, xmm5
  00225	f2 0f 5c eb	 subsd	 xmm5, xmm3
  00229	0f 57 db	 xorps	 xmm3, xmm3
  0022c	f2 0f 5a dd	 cvtsd2ss xmm3, xmm5
  00230	0f 5a db	 cvtps2pd xmm3, xmm3
  00233	66 0f 54 d8	 andpd	 xmm3, xmm0
  00237	0f 5a d2	 cvtps2pd xmm2, xmm2
  0023a	66 0f 54 d0	 andpd	 xmm2, xmm0
  0023e	0f 57 c0	 xorps	 xmm0, xmm0
  00241	f2 0f 5a c3	 cvtsd2ss xmm0, xmm3
  00245	f2 0f 5a d2	 cvtsd2ss xmm2, xmm2
  00249	0f 57 db	 xorps	 xmm3, xmm3
  0024c	0f 5a e8	 cvtps2pd xmm5, xmm0
  0024f	f3 0f 5a da	 cvtss2sd xmm3, xmm2
  00253	3c 4a		 cmp	 al, 74			; 0000004aH
  00255	75 54		 jne	 SHORT $LN63@build
  00257	66 0f 2f dd	 comisd	 xmm3, xmm5
  0025b	0f 57 db	 xorps	 xmm3, xmm3
  0025e	76 1f		 jbe	 SHORT $LN67@build
  00260	0f 5a d8	 cvtps2pd xmm3, xmm0
  00263	0f 5a c0	 cvtps2pd xmm0, xmm0
  00266	f3 0f 5a d2	 cvtss2sd xmm2, xmm2
  0026a	f2 0f 59 c1	 mulsd	 xmm0, xmm1
  0026e	f2 0f 5c d3	 subsd	 xmm2, xmm3
  00272	f2 0f 58 d0	 addsd	 xmm2, xmm0
  00276	0f 57 c0	 xorps	 xmm0, xmm0
  00279	f2 0f 5a c2	 cvtsd2ss xmm0, xmm2
  0027d	eb 1b		 jmp	 SHORT $LN66@build
$LN67@build:
  0027f	f3 0f 5a da	 cvtss2sd xmm3, xmm2
  00283	0f 5a c0	 cvtps2pd xmm0, xmm0
  00286	f2 0f 5c c3	 subsd	 xmm0, xmm3
  0028a	f3 0f 5a d2	 cvtss2sd xmm2, xmm2
  0028e	f2 0f 59 d1	 mulsd	 xmm2, xmm1
  00292	f2 0f 58 c2	 addsd	 xmm0, xmm2
  00296	66 0f 5a c0	 cvtpd2ps xmm0, xmm0
$LN66@build:
  0029a	f3 0f 5a c0	 cvtss2sd xmm0, xmm0
  0029e	f2 0f 58 05 00
	00 00 00	 addsd	 xmm0, QWORD PTR __real@4049000000000000
  002a6	e9 94 00 00 00	 jmp	 $LN109@build
$LN63@build:
  002ab	3c 32		 cmp	 al, 50			; 00000032H
  002ad	75 51		 jne	 SHORT $LN61@build
  002af	66 0f 2f dd	 comisd	 xmm3, xmm5
  002b3	0f 57 db	 xorps	 xmm3, xmm3
  002b6	76 1f		 jbe	 SHORT $LN79@build
  002b8	0f 5a d8	 cvtps2pd xmm3, xmm0
  002bb	0f 5a c0	 cvtps2pd xmm0, xmm0
  002be	f3 0f 5a d2	 cvtss2sd xmm2, xmm2
  002c2	f2 0f 59 c1	 mulsd	 xmm0, xmm1
  002c6	f2 0f 5c d3	 subsd	 xmm2, xmm3
  002ca	f2 0f 58 d0	 addsd	 xmm2, xmm0
  002ce	0f 57 c0	 xorps	 xmm0, xmm0
  002d1	f2 0f 5a c2	 cvtsd2ss xmm0, xmm2
  002d5	eb 1b		 jmp	 SHORT $LN78@build
$LN79@build:
  002d7	f3 0f 5a da	 cvtss2sd xmm3, xmm2
  002db	0f 5a c0	 cvtps2pd xmm0, xmm0
  002de	f2 0f 5c c3	 subsd	 xmm0, xmm3
  002e2	f3 0f 5a d2	 cvtss2sd xmm2, xmm2
  002e6	f2 0f 59 d1	 mulsd	 xmm2, xmm1
  002ea	f2 0f 58 c2	 addsd	 xmm0, xmm2
  002ee	66 0f 5a c0	 cvtpd2ps xmm0, xmm0
$LN78@build:
  002f2	f3 0f 5a c0	 cvtss2sd xmm0, xmm0
  002f6	f2 0f 58 05 00
	00 00 00	 addsd	 xmm0, QWORD PTR __real@406a400000000000
  002fe	eb 3f		 jmp	 SHORT $LN109@build
$LN61@build:
  00300	66 0f 2f dd	 comisd	 xmm3, xmm5
  00304	0f 57 db	 xorps	 xmm3, xmm3
  00307	76 1f		 jbe	 SHORT $LN91@build
  00309	0f 5a d8	 cvtps2pd xmm3, xmm0
  0030c	0f 5a c0	 cvtps2pd xmm0, xmm0
  0030f	f3 0f 5a d2	 cvtss2sd xmm2, xmm2
  00313	f2 0f 59 c1	 mulsd	 xmm0, xmm1
  00317	f2 0f 5c d3	 subsd	 xmm2, xmm3
  0031b	f2 0f 58 d0	 addsd	 xmm2, xmm0
  0031f	0f 57 c0	 xorps	 xmm0, xmm0
  00322	f2 0f 5a c2	 cvtsd2ss xmm0, xmm2
  00326	eb 1b		 jmp	 SHORT $LN90@build
$LN91@build:
  00328	f3 0f 5a da	 cvtss2sd xmm3, xmm2
  0032c	0f 5a c0	 cvtps2pd xmm0, xmm0
  0032f	f3 0f 5a d2	 cvtss2sd xmm2, xmm2
  00333	f2 0f 5c c3	 subsd	 xmm0, xmm3
  00337	f2 0f 59 d1	 mulsd	 xmm2, xmm1
  0033b	f2 0f 58 c2	 addsd	 xmm0, xmm2
$LN109@build:
  0033f	66 0f 5a c0	 cvtpd2ps xmm0, xmm0
$LN90@build:
  00343	f3 0f 10 55 e8	 movss	 xmm2, DWORD PTR $T518981[ebp]
  00348	0f 57 c9	 xorps	 xmm1, xmm1
  0034b	f3 0f 5a cc	 cvtss2sd xmm1, xmm4
  0034f	f3 0f 5a c0	 cvtss2sd xmm0, xmm0
  00353	0f 5a d2	 cvtps2pd xmm2, xmm2
  00356	f2 0f 58 ca	 addsd	 xmm1, xmm2
  0035a	f2 0f 58 c8	 addsd	 xmm1, xmm0
  0035e	0f 57 c0	 xorps	 xmm0, xmm0
  00361	66 0f 5a c1	 cvtpd2ps xmm0, xmm1
  00365	f3 0f 11 41 04	 movss	 DWORD PTR [ecx+4], xmm0

; 191  : 
; 192  : 			if ( link.type == MOVETYPE_WALK )

  0036a	3c 4c		 cmp	 al, 76			; 0000004cH
  0036c	75 04		 jne	 SHORT $LN3@build

; 193  : 				box.walkCount++;

  0036e	66 ff 43 44	 inc	 WORD PTR [ebx+68]
$LN3@build:

; 181  : 
; 182  : 		for ( int il = 0, nl = int(box.links.size()); il < nl; il++ ) 

  00372	83 45 f4 20	 add	 DWORD PTR tv1200[ebp], 32 ; 00000020H
  00376	ff 4d e4	 dec	 DWORD PTR tv583[ebp]
  00379	0f 85 ec fc ff
	ff		 jne	 $LL106@build
  0037f	8b 75 e0	 mov	 esi, DWORD PTR _this$[ebp]
$LN6@build:

; 173  : 
; 174  : 	for ( int i = 0, n = int(m_boxes.size()); i < n; i++ ) 

  00382	83 45 f0 58	 add	 DWORD PTR tv1214[ebp], 88 ; 00000058H
  00386	ff 4d dc	 dec	 DWORD PTR tv595[ebp]
  00389	0f 85 9e fc ff
	ff		 jne	 $LL107@build
  0038f	5f		 pop	 edi
  00390	5b		 pop	 ebx
$LN5@build:

; 194  : 		}
; 195  : 	}
; 196  : 
; 197  : 	m_bFixed = true;

  00391	c6 46 50 01	 mov	 BYTE PTR [esi+80], 1

; 198  : 	return true;

  00395	b0 01		 mov	 al, 1
  00397	5e		 pop	 esi

; 199  : }

  00398	c9		 leave
  00399	c3		 ret	 0
?build@BoxSpace@@QAE_NXZ ENDP				; BoxSpace::build
_TEXT	ENDS
PUBLIC	__$ArrayPad$
PUBLIC	?addLink@BoxSpace@@QAE_NFFDD@Z			; BoxSpace::addLink
EXTRN	___security_cookie:DWORD
; Function compile flags: /Ogsp
;	COMDAT ?addLink@BoxSpace@@QAE_NFFDD@Z
_TEXT	SEGMENT
_linkData$ = -36					; size = 32
__$ArrayPad$ = -4					; size = 4
_node$ = 8						; size = 2
_linkBox$ = 12						; size = 2
_dir$ = 16						; size = 1
_linkType$ = 20						; size = 1
?addLink@BoxSpace@@QAE_NFFDD@Z PROC			; BoxSpace::addLink, COMDAT
; _this$ = ecx

; 225  : {

  00000	55		 push	 ebp
  00001	8b ec		 mov	 ebp, esp
  00003	83 ec 24	 sub	 esp, 36			; 00000024H
  00006	a1 00 00 00 00	 mov	 eax, DWORD PTR ___security_cookie
  0000b	33 c5		 xor	 eax, ebp
  0000d	89 45 fc	 mov	 DWORD PTR __$ArrayPad$[ebp], eax
  00010	8b c1		 mov	 eax, ecx

; 226  : 	if ( m_bFixed )

  00012	80 78 50 00	 cmp	 BYTE PTR [eax+80], 0
  00016	0f b7 4d 08	 movzx	 ecx, WORD PTR _node$[ebp]
  0001a	74 04		 je	 SHORT $LN3@addLink

; 227  : 		return false;

  0001c	32 c0		 xor	 al, al
  0001e	eb 53		 jmp	 SHORT $LN4@addLink
$LN3@addLink:
  00020	56		 push	 esi
  00021	57		 push	 edi

; 228  : 
; 229  : 	if ( node < 0 || node >= int(m_boxes.size()) || linkBox < 0 || linkBox >= int(m_boxes.size()) )

  00022	66 85 c9	 test	 cx, cx
  00025	78 48		 js	 SHORT $LN1@addLink
  00027	8b 30		 mov	 esi, DWORD PTR [eax]
  00029	8b 40 04	 mov	 eax, DWORD PTR [eax+4]
  0002c	2b c6		 sub	 eax, esi
  0002e	6a 58		 push	 88			; 00000058H
  00030	99		 cdq
  00031	5f		 pop	 edi
  00032	f7 ff		 idiv	 edi
  00034	0f bf c9	 movsx	 ecx, cx
  00037	3b c8		 cmp	 ecx, eax
  00039	7d 34		 jge	 SHORT $LN1@addLink
  0003b	66 8b 55 0c	 mov	 dx, WORD PTR _linkBox$[ebp]
  0003f	66 85 d2	 test	 dx, dx
  00042	78 2b		 js	 SHORT $LN1@addLink
  00044	0f bf fa	 movsx	 edi, dx
  00047	3b f8		 cmp	 edi, eax
  00049	7d 24		 jge	 SHORT $LN1@addLink

; 231  : 
; 232  : 	Box& nodeData = m_boxes[ node ];
; 233  : 	Link linkData;
; 234  : 	linkData.toBox = linkBox;
; 235  : 	linkData.dir = dir;

  0004b	8a 45 10	 mov	 al, BYTE PTR _dir$[ebp]
  0004e	6b c9 58	 imul	 ecx, 88			; 00000058H
  00051	88 45 de	 mov	 BYTE PTR _linkData$[ebp+2], al

; 236  : 	linkData.type = linkType;

  00054	8a 45 14	 mov	 al, BYTE PTR _linkType$[ebp]
  00057	88 45 df	 mov	 BYTE PTR _linkData$[ebp+3], al

; 237  : 
; 238  : 	nodeData.links.push_back( linkData );

  0005a	8d 45 dc	 lea	 eax, DWORD PTR _linkData$[ebp]
  0005d	50		 push	 eax
  0005e	8d 4c 31 34	 lea	 ecx, DWORD PTR [ecx+esi+52]
  00062	66 89 55 dc	 mov	 WORD PTR _linkData$[ebp], dx
  00066	e8 00 00 00 00	 call	 ?push_back@?$vector@ULink@BoxSpace@@V?$allocator@ULink@BoxSpace@@@std@@@std@@QAEXABULink@BoxSpace@@@Z ; std::vector<BoxSpace::Link,std::allocator<BoxSpace::Link> >::push_back

; 239  : 
; 240  : 	return true;

  0006b	b0 01		 mov	 al, 1
  0006d	eb 02		 jmp	 SHORT $LN18@addLink
$LN1@addLink:

; 230  : 		return false;

  0006f	32 c0		 xor	 al, al
$LN18@addLink:
  00071	5f		 pop	 edi
  00072	5e		 pop	 esi
$LN4@addLink:

; 241  : }

  00073	8b 4d fc	 mov	 ecx, DWORD PTR __$ArrayPad$[ebp]
  00076	33 cd		 xor	 ecx, ebp
  00078	e8 00 00 00 00	 call	 @__security_check_cookie@4
  0007d	c9		 leave
  0007e	c2 10 00	 ret	 16			; 00000010H
?addLink@BoxSpace@@QAE_NFFDD@Z ENDP			; BoxSpace::addLink
_TEXT	ENDS
PUBLIC	?addStartNode@?$AStarSearcher@VBoxSpace@@PAUBox@1@@@QAEXABQAUBox@BoxSpace@@M@Z ; AStarSearcher<BoxSpace,BoxSpace::Box *>::addStartNode
; Function compile flags: /Ogsp
; File d:\lost saga for developer\youtube\tutorial\source\src\lsclient\astar.h
;	COMDAT ?addStartNode@?$AStarSearcher@VBoxSpace@@PAUBox@1@@@QAEXABQAUBox@BoxSpace@@M@Z
_TEXT	SEGMENT
_dnStart$ = 8						; size = 4
_start$ = 8						; size = 4
_initialCost$ = 12					; size = 4
?addStartNode@?$AStarSearcher@VBoxSpace@@PAUBox@1@@@QAEXABQAUBox@BoxSpace@@M@Z PROC ; AStarSearcher<BoxSpace,BoxSpace::Box *>::addStartNode, COMDAT
; _this$ = ecx

; 47   : 	{

  00000	55		 push	 ebp
  00001	8b ec		 mov	 ebp, esp
  00003	53		 push	 ebx

; 48   : 		DNode* dnStart = getDN( start );

  00004	8b 5d 08	 mov	 ebx, DWORD PTR _start$[ebp]
  00007	56		 push	 esi
  00008	57		 push	 edi
  00009	53		 push	 ebx
  0000a	8b f9		 mov	 edi, ecx
  0000c	e8 00 00 00 00	 call	 ?getDN@?$AStarSearcher@VBoxSpace@@PAUBox@1@@@AAEPAUDNode@1@ABQAUBox@BoxSpace@@@Z ; AStarSearcher<BoxSpace,BoxSpace::Box *>::getDN

; 49   : 		dnStart->cost = initialCost;

  00011	f3 0f 10 45 0c	 movss	 xmm0, DWORD PTR _initialCost$[ebp]
  00016	8b f0		 mov	 esi, eax
  00018	f3 0f 11 46 08	 movss	 DWORD PTR [esi+8], xmm0

; 50   : 		dnStart->total = dnStart->cost + m_pIntf->getHeuristic( this, start );

  0001d	ff 33		 push	 DWORD PTR [ebx]
  0001f	8b 0f		 mov	 ecx, DWORD PTR [edi]
  00021	57		 push	 edi
  00022	89 75 08	 mov	 DWORD PTR _dnStart$[ebp], esi
  00025	e8 00 00 00 00	 call	 ?getHeuristic@BoxSpace@@AAEMPAXPAUBox@1@@Z ; BoxSpace::getHeuristic
  0002a	d8 46 08	 fadd	 DWORD PTR [esi+8]

; 51   : 		dnStart->parent = NULL;

  0002d	83 66 04 00	 and	 DWORD PTR [esi+4], 0

; 52   : 		dnStart->bOpen = true;
; 53   : 		m_openList.push( dnStart );

  00031	8d 45 08	 lea	 eax, DWORD PTR _dnStart$[ebp]
  00034	d9 5e 0c	 fstp	 DWORD PTR [esi+12]
  00037	50		 push	 eax
  00038	8d 4f 1c	 lea	 ecx, DWORD PTR [edi+28]
  0003b	c6 46 10 01	 mov	 BYTE PTR [esi+16], 1
  0003f	e8 00 00 00 00	 call	 ?push@?$PriorityQueue@PAUDNode@?$AStarSearcher@VBoxSpace@@PAUBox@1@@@UDNodeCostGreater@2@@@QAEXABQAUDNode@?$AStarSearcher@VBoxSpace@@PAUBox@1@@@@Z ; PriorityQueue<AStarSearcher<BoxSpace,BoxSpace::Box *>::DNode *,AStarSearcher<BoxSpace,BoxSpace::Box *>::DNodeCostGreater>::push
  00044	5f		 pop	 edi
  00045	5e		 pop	 esi
  00046	5b		 pop	 ebx

; 54   : 	}

  00047	5d		 pop	 ebp
  00048	c2 08 00	 ret	 8
?addStartNode@?$AStarSearcher@VBoxSpace@@PAUBox@1@@@QAEXABQAUBox@BoxSpace@@M@Z ENDP ; AStarSearcher<BoxSpace,BoxSpace::Box *>::addStartNode
_TEXT	ENDS
PUBLIC	?doFindPath@?$AStarSearcher@VBoxSpace@@PAUBox@1@@@AAE_NXZ ; AStarSearcher<BoxSpace,BoxSpace::Box *>::doFindPath
; Function compile flags: /Ogsp
;	COMDAT ?doFindPath@?$AStarSearcher@VBoxSpace@@PAUBox@1@@@AAE_NXZ
_TEXT	SEGMENT
_dist$506200 = -20					; size = 4
_dn$506191 = -16					; size = 4
tv212 = -12						; size = 4
_dnn$506201 = -8					; size = 4
_nnode$506199 = -8					; size = 4
tv366 = -4						; size = 4
?doFindPath@?$AStarSearcher@VBoxSpace@@PAUBox@1@@@AAE_NXZ PROC ; AStarSearcher<BoxSpace,BoxSpace::Box *>::doFindPath, COMDAT
; _this$ = ecx

; 98   : 	{

  00000	55		 push	 ebp
  00001	8b ec		 mov	 ebp, esp
  00003	83 ec 14	 sub	 esp, 20			; 00000014H
  00006	53		 push	 ebx
  00007	56		 push	 esi
  00008	57		 push	 edi
  00009	8b f9		 mov	 edi, ecx

; 99   : 		while ( !m_openList.empty() )

  0000b	e9 e8 00 00 00	 jmp	 $LN33@doFindPath
$LL11@doFindPath:

; 100  : 		{
; 101  : 			DNode* dn;
; 102  : 			m_openList.pop( dn );

  00010	8d 45 f0	 lea	 eax, DWORD PTR _dn$506191[ebp]
  00013	50		 push	 eax
  00014	8d 4f 1c	 lea	 ecx, DWORD PTR [edi+28]
  00017	e8 00 00 00 00	 call	 ?pop@?$PriorityQueue@PAUDNode@?$AStarSearcher@VBoxSpace@@PAUBox@1@@@UDNodeCostGreater@2@@@QAE_NAAPAUDNode@?$AStarSearcher@VBoxSpace@@PAUBox@1@@@@Z ; PriorityQueue<AStarSearcher<BoxSpace,BoxSpace::Box *>::DNode *,AStarSearcher<BoxSpace,BoxSpace::Box *>::DNodeCostGreater>::pop

; 103  : 			dn->bOpen = false;

  0001c	8b 5d f0	 mov	 ebx, DWORD PTR _dn$506191[ebp]
  0001f	c6 43 10 00	 mov	 BYTE PTR [ebx+16], 0

; 104  : 
; 105  : 			if ( m_pIntf->isGoal( this, dn->node ) ) {

  00023	8b 0f		 mov	 ecx, DWORD PTR [edi]
  00025	8b 03		 mov	 eax, DWORD PTR [ebx]
  00027	3b 41 54	 cmp	 eax, DWORD PTR [ecx+84]
  0002a	0f 84 e2 00 00
	00		 je	 $LN28@doFindPath

; 110  : 
; 111  : 			} else {
; 112  : 
; 113  : 				for ( int i = 0, n = m_pIntf->getNeighborCount( this, dn->node ); i < n; i++ )

  00030	50		 push	 eax
  00031	57		 push	 edi
  00032	e8 00 00 00 00	 call	 ?getNeighborCount@BoxSpace@@AAEHPAXPAUBox@1@@Z ; BoxSpace::getNeighborCount
  00037	85 c0		 test	 eax, eax
  00039	0f 8e b5 00 00
	00		 jle	 $LN5@doFindPath
  0003f	83 65 fc 00	 and	 DWORD PTR tv366[ebp], 0
  00043	89 45 f4	 mov	 DWORD PTR tv212[ebp], eax
$LL31@doFindPath:
  00046	8b 03		 mov	 eax, DWORD PTR [ebx]
  00048	8b 40 34	 mov	 eax, DWORD PTR [eax+52]
  0004b	03 45 fc	 add	 eax, DWORD PTR tv366[ebp]

; 114  : 				{
; 115  : 					Node nnode;
; 116  : 					float dist = m_pIntf->getNeighborAt( this, dn->node, i, nnode );

  0004e	8b 17		 mov	 edx, DWORD PTR [edi]
  00050	0f bf 08	 movsx	 ecx, WORD PTR [eax]
  00053	f3 0f 10 40 04	 movss	 xmm0, DWORD PTR [eax+4]
  00058	6b c9 58	 imul	 ecx, 88			; 00000058H
  0005b	03 0a		 add	 ecx, DWORD PTR [edx]

; 117  : 					DNode* dnn = getDN( nnode );

  0005d	8d 45 f8	 lea	 eax, DWORD PTR _nnode$506199[ebp]
  00060	89 4d f8	 mov	 DWORD PTR _nnode$506199[ebp], ecx
  00063	50		 push	 eax
  00064	8b cf		 mov	 ecx, edi
  00066	f3 0f 11 45 ec	 movss	 DWORD PTR _dist$506200[ebp], xmm0
  0006b	e8 00 00 00 00	 call	 ?getDN@?$AStarSearcher@VBoxSpace@@PAUBox@1@@@AAEPAUDNode@1@ABQAUBox@BoxSpace@@@Z ; AStarSearcher<BoxSpace,BoxSpace::Box *>::getDN

; 118  : 
; 119  : 					float newCost = dn->cost + dist;

  00070	f3 0f 10 43 08	 movss	 xmm0, DWORD PTR [ebx+8]
  00075	f3 0f 10 4d ec	 movss	 xmm1, DWORD PTR _dist$506200[ebp]
  0007a	8b f0		 mov	 esi, eax

; 120  : 					if ( (dnn->bOpen || dnn->bClose) && (dnn->cost <= newCost) )

  0007c	80 7e 10 00	 cmp	 BYTE PTR [esi+16], 0
  00080	0f 5a c0	 cvtps2pd xmm0, xmm0
  00083	0f 5a c9	 cvtps2pd xmm1, xmm1
  00086	f2 0f 58 c1	 addsd	 xmm0, xmm1
  0008a	89 75 f8	 mov	 DWORD PTR _dnn$506201[ebp], esi
  0008d	66 0f 5a c0	 cvtpd2ps xmm0, xmm0
  00091	75 06		 jne	 SHORT $LN3@doFindPath
  00093	80 7e 11 00	 cmp	 BYTE PTR [esi+17], 0
  00097	74 15		 je	 SHORT $LN4@doFindPath
$LN3@doFindPath:
  00099	f3 0f 10 4e 08	 movss	 xmm1, DWORD PTR [esi+8]
  0009e	0f 57 d2	 xorps	 xmm2, xmm2
  000a1	0f 5a c9	 cvtps2pd xmm1, xmm1
  000a4	f3 0f 5a d0	 cvtss2sd xmm2, xmm0
  000a8	66 0f 2f d1	 comisd	 xmm2, xmm1
  000ac	73 39		 jae	 SHORT $LN6@doFindPath
$LN4@doFindPath:

; 121  : 						continue;
; 122  : 					
; 123  : 					dnn->parent = dn;

  000ae	89 5e 04	 mov	 DWORD PTR [esi+4], ebx

; 124  : 					dnn->cost = newCost;
; 125  : 					dnn->total = dnn->cost + m_pIntf->getHeuristic( this, dnn->node );

  000b1	ff 36		 push	 DWORD PTR [esi]
  000b3	f3 0f 11 46 08	 movss	 DWORD PTR [esi+8], xmm0
  000b8	8b 0f		 mov	 ecx, DWORD PTR [edi]
  000ba	57		 push	 edi
  000bb	e8 00 00 00 00	 call	 ?getHeuristic@BoxSpace@@AAEMPAXPAUBox@1@@Z ; BoxSpace::getHeuristic
  000c0	d8 46 08	 fadd	 DWORD PTR [esi+8]

; 126  : 
; 127  : 					dnn->bClose = false;
; 128  : 					if ( dnn->bOpen )
; 129  : 						m_openList.adjust( dnn );

  000c3	8d 45 f8	 lea	 eax, DWORD PTR _dnn$506201[ebp]
  000c6	8d 4f 1c	 lea	 ecx, DWORD PTR [edi+28]
  000c9	d9 5e 0c	 fstp	 DWORD PTR [esi+12]
  000cc	c6 46 11 00	 mov	 BYTE PTR [esi+17], 0
  000d0	80 7e 10 00	 cmp	 BYTE PTR [esi+16], 0
  000d4	50		 push	 eax
  000d5	74 07		 je	 SHORT $LN2@doFindPath
  000d7	e8 00 00 00 00	 call	 ?adjust@?$PriorityQueue@PAUDNode@?$AStarSearcher@VBoxSpace@@PAUBox@1@@@UDNodeCostGreater@2@@@QAEXABQAUDNode@?$AStarSearcher@VBoxSpace@@PAUBox@1@@@@Z ; PriorityQueue<AStarSearcher<BoxSpace,BoxSpace::Box *>::DNode *,AStarSearcher<BoxSpace,BoxSpace::Box *>::DNodeCostGreater>::adjust

; 130  : 					else {

  000dc	eb 09		 jmp	 SHORT $LN6@doFindPath
$LN2@doFindPath:

; 131  : 						dnn->bOpen = true;

  000de	c6 46 10 01	 mov	 BYTE PTR [esi+16], 1

; 132  : 						m_openList.push( dnn );

  000e2	e8 00 00 00 00	 call	 ?push@?$PriorityQueue@PAUDNode@?$AStarSearcher@VBoxSpace@@PAUBox@1@@@UDNodeCostGreater@2@@@QAEXABQAUDNode@?$AStarSearcher@VBoxSpace@@PAUBox@1@@@@Z ; PriorityQueue<AStarSearcher<BoxSpace,BoxSpace::Box *>::DNode *,AStarSearcher<BoxSpace,BoxSpace::Box *>::DNodeCostGreater>::push
$LN6@doFindPath:

; 110  : 
; 111  : 			} else {
; 112  : 
; 113  : 				for ( int i = 0, n = m_pIntf->getNeighborCount( this, dn->node ); i < n; i++ )

  000e7	83 45 fc 20	 add	 DWORD PTR tv366[ebp], 32 ; 00000020H
  000eb	ff 4d f4	 dec	 DWORD PTR tv212[ebp]
  000ee	0f 85 52 ff ff
	ff		 jne	 $LL31@doFindPath
$LN5@doFindPath:

; 133  : 					}
; 134  : 				}
; 135  : 			}
; 136  : 
; 137  : 			dn->bClose = true;

  000f4	c6 43 11 01	 mov	 BYTE PTR [ebx+17], 1
$LN33@doFindPath:

; 99   : 		while ( !m_openList.empty() )

  000f8	8b 47 20	 mov	 eax, DWORD PTR [edi+32]
  000fb	3b 47 24	 cmp	 eax, DWORD PTR [edi+36]
  000fe	0f 85 0c ff ff
	ff		 jne	 $LL11@doFindPath

; 138  : 		}
; 139  : 
; 140  : 		clearInfo();

  00104	8b cf		 mov	 ecx, edi
  00106	e8 00 00 00 00	 call	 ?clearInfo@?$AStarSearcher@VBoxSpace@@PAUBox@1@@@AAEXXZ ; AStarSearcher<BoxSpace,BoxSpace::Box *>::clearInfo

; 141  : 		return false;

  0010b	32 c0		 xor	 al, al
$LN12@doFindPath:
  0010d	5f		 pop	 edi
  0010e	5e		 pop	 esi
  0010f	5b		 pop	 ebx

; 142  : 	}

  00110	c9		 leave
  00111	c3		 ret	 0
$LN28@doFindPath:

; 106  : 				
; 107  : 				clearInfo();

  00112	8b cf		 mov	 ecx, edi
  00114	e8 00 00 00 00	 call	 ?clearInfo@?$AStarSearcher@VBoxSpace@@PAUBox@1@@@AAEXXZ ; AStarSearcher<BoxSpace,BoxSpace::Box *>::clearInfo

; 108  : 				constructPath( dn ); 

  00119	53		 push	 ebx
  0011a	8b cf		 mov	 ecx, edi
  0011c	e8 00 00 00 00	 call	 ?constructPath@?$AStarSearcher@VBoxSpace@@PAUBox@1@@@AAEXPAUDNode@1@@Z ; AStarSearcher<BoxSpace,BoxSpace::Box *>::constructPath

; 109  : 				return true;

  00121	b0 01		 mov	 al, 1
  00123	eb e8		 jmp	 SHORT $LN12@doFindPath
?doFindPath@?$AStarSearcher@VBoxSpace@@PAUBox@1@@@AAE_NXZ ENDP ; AStarSearcher<BoxSpace,BoxSpace::Box *>::doFindPath
_TEXT	ENDS
PUBLIC	??$construct@AAUBox@BoxSpace@@@?$allocator@UBox@BoxSpace@@@std@@QAEXPAUBox@BoxSpace@@AAU23@@Z ; std::allocator<BoxSpace::Box>::construct<BoxSpace::Box &>
;	COMDAT xdata$x
; File c:\program files (x86)\microsoft visual studio 10.0\vc\include\utility
xdata$x	SEGMENT
__unwindtable$??$construct@AAUBox@BoxSpace@@@?$allocator@UBox@BoxSpace@@@std@@QAEXPAUBox@BoxSpace@@AAU23@@Z DD 0ffffffffH
	DD	FLAT:__unwindfunclet$??$construct@AAUBox@BoxSpace@@@?$allocator@UBox@BoxSpace@@@std@@QAEXPAUBox@BoxSpace@@AAU23@@Z$0
__ehfuncinfo$??$construct@AAUBox@BoxSpace@@@?$allocator@UBox@BoxSpace@@@std@@QAEXPAUBox@BoxSpace@@AAU23@@Z DD 019930522H
	DD	01H
	DD	FLAT:__unwindtable$??$construct@AAUBox@BoxSpace@@@?$allocator@UBox@BoxSpace@@@std@@QAEXPAUBox@BoxSpace@@AAU23@@Z
	DD	2 DUP(00H)
	DD	2 DUP(00H)
	DD	00H
	DD	01H
; Function compile flags: /Ogsp
; File c:\program files (x86)\microsoft visual studio 10.0\vc\include\xmemory
xdata$x	ENDS
;	COMDAT ??$construct@AAUBox@BoxSpace@@@?$allocator@UBox@BoxSpace@@@std@@QAEXPAUBox@BoxSpace@@AAU23@@Z
_TEXT	SEGMENT
$T519254 = -16						; size = 4
__$EHRec$ = -12						; size = 12
__Ptr$ = 8						; size = 4
__Val$ = 12						; size = 4
??$construct@AAUBox@BoxSpace@@@?$allocator@UBox@BoxSpace@@@std@@QAEXPAUBox@BoxSpace@@AAU23@@Z PROC ; std::allocator<BoxSpace::Box>::construct<BoxSpace::Box &>, COMDAT
; _this$ = ecx

; 206  : 		void construct(pointer _Ptr, _Other&& _Val)

  00000	6a 04		 push	 4
  00002	b8 00 00 00 00	 mov	 eax, __ehhandler$??$construct@AAUBox@BoxSpace@@@?$allocator@UBox@BoxSpace@@@std@@QAEXPAUBox@BoxSpace@@AAU23@@Z
  00007	e8 00 00 00 00	 call	 __EH_prolog3

; 207  : 		{	// construct object at _Ptr with value _Val
; 208  : 		::new ((void _FARQ *)_Ptr) _Ty(_STD forward<_Other>(_Val));

  0000c	8b 4d 08	 mov	 ecx, DWORD PTR __Ptr$[ebp]
  0000f	89 4d f0	 mov	 DWORD PTR $T519254[ebp], ecx
  00012	83 65 fc 00	 and	 DWORD PTR __$EHRec$[ebp+8], 0
  00016	85 c9		 test	 ecx, ecx
  00018	74 08		 je	 SHORT $LN3@construct@12
  0001a	ff 75 0c	 push	 DWORD PTR __Val$[ebp]
  0001d	e8 00 00 00 00	 call	 ??0Box@BoxSpace@@QAE@ABU01@@Z
$LN3@construct@12:

; 209  : 		}

  00022	e8 00 00 00 00	 call	 __EH_epilog3
  00027	c2 08 00	 ret	 8
_TEXT	ENDS
;	COMDAT text$x
text$x	SEGMENT
__unwindfunclet$??$construct@AAUBox@BoxSpace@@@?$allocator@UBox@BoxSpace@@@std@@QAEXPAUBox@BoxSpace@@AAU23@@Z$0:
  00000	ff 75 08	 push	 DWORD PTR __Ptr$[ebp]
  00003	ff 75 f0	 push	 DWORD PTR $T519254[ebp]
  00006	e8 00 00 00 00	 call	 ??3@YAXPAX0@Z		; operator delete
  0000b	59		 pop	 ecx
  0000c	59		 pop	 ecx
  0000d	c3		 ret	 0
__ehhandler$??$construct@AAUBox@BoxSpace@@@?$allocator@UBox@BoxSpace@@@std@@QAEXPAUBox@BoxSpace@@AAU23@@Z:
  0000e	8b 54 24 08	 mov	 edx, DWORD PTR [esp+8]
  00012	8d 42 0c	 lea	 eax, DWORD PTR [edx+12]
  00015	8b 4a ec	 mov	 ecx, DWORD PTR [edx-20]
  00018	33 c8		 xor	 ecx, eax
  0001a	e8 00 00 00 00	 call	 @__security_check_cookie@4
  0001f	b8 00 00 00 00	 mov	 eax, OFFSET __ehfuncinfo$??$construct@AAUBox@BoxSpace@@@?$allocator@UBox@BoxSpace@@@std@@QAEXPAUBox@BoxSpace@@AAU23@@Z
  00024	e9 00 00 00 00	 jmp	 ___CxxFrameHandler3
text$x	ENDS
??$construct@AAUBox@BoxSpace@@@?$allocator@UBox@BoxSpace@@@std@@QAEXPAUBox@BoxSpace@@AAU23@@Z ENDP ; std::allocator<BoxSpace::Box>::construct<BoxSpace::Box &>
PUBLIC	??$_Construct@UBox@BoxSpace@@ABU12@@std@@YAXPAUBox@BoxSpace@@ABU12@@Z ; std::_Construct<BoxSpace::Box,BoxSpace::Box const &>
;	COMDAT xdata$x
; File c:\program files (x86)\microsoft visual studio 10.0\vc\include\utility
xdata$x	SEGMENT
__unwindtable$??$_Construct@UBox@BoxSpace@@ABU12@@std@@YAXPAUBox@BoxSpace@@ABU12@@Z DD 0ffffffffH
	DD	FLAT:__unwindfunclet$??$_Construct@UBox@BoxSpace@@ABU12@@std@@YAXPAUBox@BoxSpace@@ABU12@@Z$0
__ehfuncinfo$??$_Construct@UBox@BoxSpace@@ABU12@@std@@YAXPAUBox@BoxSpace@@ABU12@@Z DD 019930522H
	DD	01H
	DD	FLAT:__unwindtable$??$_Construct@UBox@BoxSpace@@ABU12@@std@@YAXPAUBox@BoxSpace@@ABU12@@Z
	DD	2 DUP(00H)
	DD	2 DUP(00H)
	DD	00H
	DD	01H
; Function compile flags: /Ogsp
; File c:\program files (x86)\microsoft visual studio 10.0\vc\include\xmemory
xdata$x	ENDS
;	COMDAT ??$_Construct@UBox@BoxSpace@@ABU12@@std@@YAXPAUBox@BoxSpace@@ABU12@@Z
_TEXT	SEGMENT
$T519273 = -16						; size = 4
__$EHRec$ = -12						; size = 12
__Vptr$ = 8						; size = 4
__Ptr$ = 8						; size = 4
__Val$ = 12						; size = 4
??$_Construct@UBox@BoxSpace@@ABU12@@std@@YAXPAUBox@BoxSpace@@ABU12@@Z PROC ; std::_Construct<BoxSpace::Box,BoxSpace::Box const &>, COMDAT

; 46   : 	{	// construct object at _Ptr with value _Val

  00000	6a 04		 push	 4
  00002	b8 00 00 00 00	 mov	 eax, __ehhandler$??$_Construct@UBox@BoxSpace@@ABU12@@std@@YAXPAUBox@BoxSpace@@ABU12@@Z
  00007	e8 00 00 00 00	 call	 __EH_prolog3

; 47   : 	void _FARQ *_Vptr = _Ptr;

  0000c	8b 4d 08	 mov	 ecx, DWORD PTR __Ptr$[ebp]
  0000f	89 4d 08	 mov	 DWORD PTR __Vptr$[ebp], ecx

; 48   : 	::new (_Vptr) _Ty1(_STD forward<_Ty2>(_Val));

  00012	89 4d f0	 mov	 DWORD PTR $T519273[ebp], ecx
  00015	83 65 fc 00	 and	 DWORD PTR __$EHRec$[ebp+8], 0
  00019	85 c9		 test	 ecx, ecx
  0001b	74 08		 je	 SHORT $LN3@Construct@5
  0001d	ff 75 0c	 push	 DWORD PTR __Val$[ebp]
  00020	e8 00 00 00 00	 call	 ??0Box@BoxSpace@@QAE@ABU01@@Z
$LN3@Construct@5:

; 49   : 	}

  00025	e8 00 00 00 00	 call	 __EH_epilog3
  0002a	c3		 ret	 0
_TEXT	ENDS
;	COMDAT text$x
text$x	SEGMENT
__unwindfunclet$??$_Construct@UBox@BoxSpace@@ABU12@@std@@YAXPAUBox@BoxSpace@@ABU12@@Z$0:
  00000	ff 75 08	 push	 DWORD PTR __Vptr$[ebp]
  00003	ff 75 f0	 push	 DWORD PTR $T519273[ebp]
  00006	e8 00 00 00 00	 call	 ??3@YAXPAX0@Z		; operator delete
  0000b	59		 pop	 ecx
  0000c	59		 pop	 ecx
  0000d	c3		 ret	 0
__ehhandler$??$_Construct@UBox@BoxSpace@@ABU12@@std@@YAXPAUBox@BoxSpace@@ABU12@@Z:
  0000e	8b 54 24 08	 mov	 edx, DWORD PTR [esp+8]
  00012	8d 42 0c	 lea	 eax, DWORD PTR [edx+12]
  00015	8b 4a ec	 mov	 ecx, DWORD PTR [edx-20]
  00018	33 c8		 xor	 ecx, eax
  0001a	e8 00 00 00 00	 call	 @__security_check_cookie@4
  0001f	b8 00 00 00 00	 mov	 eax, OFFSET __ehfuncinfo$??$_Construct@UBox@BoxSpace@@ABU12@@std@@YAXPAUBox@BoxSpace@@ABU12@@Z
  00024	e9 00 00 00 00	 jmp	 ___CxxFrameHandler3
text$x	ENDS
??$_Construct@UBox@BoxSpace@@ABU12@@std@@YAXPAUBox@BoxSpace@@ABU12@@Z ENDP ; std::_Construct<BoxSpace::Box,BoxSpace::Box const &>
PUBLIC	??$_Cons_val@V?$allocator@UBox@BoxSpace@@@std@@UBox@BoxSpace@@U34@@std@@YAXAAV?$allocator@UBox@BoxSpace@@@0@PAUBox@BoxSpace@@$$QAU23@@Z ; std::_Cons_val<std::allocator<BoxSpace::Box>,BoxSpace::Box,BoxSpace::Box>
;	COMDAT xdata$x
; File c:\program files (x86)\microsoft visual studio 10.0\vc\include\utility
xdata$x	SEGMENT
__unwindtable$??$_Cons_val@V?$allocator@UBox@BoxSpace@@@std@@UBox@BoxSpace@@U34@@std@@YAXAAV?$allocator@UBox@BoxSpace@@@0@PAUBox@BoxSpace@@$$QAU23@@Z DD 0ffffffffH
	DD	FLAT:__unwindfunclet$??$_Cons_val@V?$allocator@UBox@BoxSpace@@@std@@UBox@BoxSpace@@U34@@std@@YAXAAV?$allocator@UBox@BoxSpace@@@0@PAUBox@BoxSpace@@$$QAU23@@Z$0
__ehfuncinfo$??$_Cons_val@V?$allocator@UBox@BoxSpace@@@std@@UBox@BoxSpace@@U34@@std@@YAXAAV?$allocator@UBox@BoxSpace@@@0@PAUBox@BoxSpace@@$$QAU23@@Z DD 019930522H
	DD	01H
	DD	FLAT:__unwindtable$??$_Cons_val@V?$allocator@UBox@BoxSpace@@@std@@UBox@BoxSpace@@U34@@std@@YAXAAV?$allocator@UBox@BoxSpace@@@0@PAUBox@BoxSpace@@$$QAU23@@Z
	DD	2 DUP(00H)
	DD	2 DUP(00H)
	DD	00H
	DD	01H
; Function compile flags: /Ogsp
; File c:\program files (x86)\microsoft visual studio 10.0\vc\include\xmemory
xdata$x	ENDS
;	COMDAT ??$_Cons_val@V?$allocator@UBox@BoxSpace@@@std@@UBox@BoxSpace@@U34@@std@@YAXAAV?$allocator@UBox@BoxSpace@@@0@PAUBox@BoxSpace@@$$QAU23@@Z
_TEXT	SEGMENT
$T519308 = -16						; size = 4
__$EHRec$ = -12						; size = 12
__Alval$ = 8						; size = 4
__Pdest$ = 12						; size = 4
__Src$ = 16						; size = 4
??$_Cons_val@V?$allocator@UBox@BoxSpace@@@std@@UBox@BoxSpace@@U34@@std@@YAXAAV?$allocator@UBox@BoxSpace@@@0@PAUBox@BoxSpace@@$$QAU23@@Z PROC ; std::_Cons_val<std::allocator<BoxSpace::Box>,BoxSpace::Box,BoxSpace::Box>, COMDAT

; 279  : 	{	// construct using allocator

  00000	6a 04		 push	 4
  00002	b8 00 00 00 00	 mov	 eax, __ehhandler$??$_Cons_val@V?$allocator@UBox@BoxSpace@@@std@@UBox@BoxSpace@@U34@@std@@YAXAAV?$allocator@UBox@BoxSpace@@@0@PAUBox@BoxSpace@@$$QAU23@@Z
  00007	e8 00 00 00 00	 call	 __EH_prolog3

; 280  : 	_Alval.construct(_Pdest, _STD forward<_Ty2>(_Src));

  0000c	8b 4d 0c	 mov	 ecx, DWORD PTR __Pdest$[ebp]
  0000f	89 4d f0	 mov	 DWORD PTR $T519308[ebp], ecx
  00012	83 65 fc 00	 and	 DWORD PTR __$EHRec$[ebp+8], 0
  00016	85 c9		 test	 ecx, ecx
  00018	74 08		 je	 SHORT $LN7@Cons_val@11
  0001a	ff 75 10	 push	 DWORD PTR __Src$[ebp]
  0001d	e8 00 00 00 00	 call	 ??0Box@BoxSpace@@QAE@ABU01@@Z
$LN7@Cons_val@11:

; 281  : 	}

  00022	e8 00 00 00 00	 call	 __EH_epilog3
  00027	c3		 ret	 0
_TEXT	ENDS
;	COMDAT text$x
text$x	SEGMENT
__unwindfunclet$??$_Cons_val@V?$allocator@UBox@BoxSpace@@@std@@UBox@BoxSpace@@U34@@std@@YAXAAV?$allocator@UBox@BoxSpace@@@0@PAUBox@BoxSpace@@$$QAU23@@Z$0:
  00000	ff 75 0c	 push	 DWORD PTR __Pdest$[ebp]
  00003	ff 75 f0	 push	 DWORD PTR $T519308[ebp]
  00006	e8 00 00 00 00	 call	 ??3@YAXPAX0@Z		; operator delete
  0000b	59		 pop	 ecx
  0000c	59		 pop	 ecx
  0000d	c3		 ret	 0
__ehhandler$??$_Cons_val@V?$allocator@UBox@BoxSpace@@@std@@UBox@BoxSpace@@U34@@std@@YAXAAV?$allocator@UBox@BoxSpace@@@0@PAUBox@BoxSpace@@$$QAU23@@Z:
  0000e	8b 54 24 08	 mov	 edx, DWORD PTR [esp+8]
  00012	8d 42 0c	 lea	 eax, DWORD PTR [edx+12]
  00015	8b 4a ec	 mov	 ecx, DWORD PTR [edx-20]
  00018	33 c8		 xor	 ecx, eax
  0001a	e8 00 00 00 00	 call	 @__security_check_cookie@4
  0001f	b8 00 00 00 00	 mov	 eax, OFFSET __ehfuncinfo$??$_Cons_val@V?$allocator@UBox@BoxSpace@@@std@@UBox@BoxSpace@@U34@@std@@YAXAAV?$allocator@UBox@BoxSpace@@@0@PAUBox@BoxSpace@@$$QAU23@@Z
  00024	e9 00 00 00 00	 jmp	 ___CxxFrameHandler3
text$x	ENDS
??$_Cons_val@V?$allocator@UBox@BoxSpace@@@std@@UBox@BoxSpace@@U34@@std@@YAXAAV?$allocator@UBox@BoxSpace@@@0@PAUBox@BoxSpace@@$$QAU23@@Z ENDP ; std::_Cons_val<std::allocator<BoxSpace::Box>,BoxSpace::Box,BoxSpace::Box>
PUBLIC	??_GBox@BoxSpace@@QAEPAXI@Z			; BoxSpace::Box::`scalar deleting destructor'
; Function compile flags: /Ogsp
;	COMDAT ??_GBox@BoxSpace@@QAEPAXI@Z
_TEXT	SEGMENT
___flags$ = 8						; size = 4
??_GBox@BoxSpace@@QAEPAXI@Z PROC			; BoxSpace::Box::`scalar deleting destructor', COMDAT
; _this$ = ecx
  00000	55		 push	 ebp
  00001	8b ec		 mov	 ebp, esp
  00003	56		 push	 esi
  00004	8b f1		 mov	 esi, ecx
  00006	e8 00 00 00 00	 call	 ??1Box@BoxSpace@@QAE@XZ
  0000b	f6 45 08 01	 test	 BYTE PTR ___flags$[ebp], 1
  0000f	74 07		 je	 SHORT $LN1@scalar@2
  00011	56		 push	 esi
  00012	e8 00 00 00 00	 call	 ??3@YAXPAX@Z		; operator delete
  00017	59		 pop	 ecx
$LN1@scalar@2:
  00018	8b c6		 mov	 eax, esi
  0001a	5e		 pop	 esi
  0001b	5d		 pop	 ebp
  0001c	c2 04 00	 ret	 4
??_GBox@BoxSpace@@QAEPAXI@Z ENDP			; BoxSpace::Box::`scalar deleting destructor'
_TEXT	ENDS
PUBLIC	?findPath@?$AStarSearcher@VBoxSpace@@PAUBox@1@@@QAE_NXZ ; AStarSearcher<BoxSpace,BoxSpace::Box *>::findPath
; Function compile flags: /Ogsp
; File d:\lost saga for developer\youtube\tutorial\source\src\lsclient\astar.h
;	COMDAT ?findPath@?$AStarSearcher@VBoxSpace@@PAUBox@1@@@QAE_NXZ
_TEXT	SEGMENT
?findPath@?$AStarSearcher@VBoxSpace@@PAUBox@1@@@QAE_NXZ PROC ; AStarSearcher<BoxSpace,BoxSpace::Box *>::findPath, COMDAT
; _this$ = ecx

; 58   : 		return doFindPath();

  00000	e9 00 00 00 00	 jmp	 ?doFindPath@?$AStarSearcher@VBoxSpace@@PAUBox@1@@@AAE_NXZ ; AStarSearcher<BoxSpace,BoxSpace::Box *>::doFindPath
?findPath@?$AStarSearcher@VBoxSpace@@PAUBox@1@@@QAE_NXZ ENDP ; AStarSearcher<BoxSpace,BoxSpace::Box *>::findPath
_TEXT	ENDS
PUBLIC	??$_Cons_val@V?$allocator@UBox@BoxSpace@@@std@@UBox@BoxSpace@@AAU34@@std@@YAXAAV?$allocator@UBox@BoxSpace@@@0@PAUBox@BoxSpace@@AAU23@@Z ; std::_Cons_val<std::allocator<BoxSpace::Box>,BoxSpace::Box,BoxSpace::Box &>
;	COMDAT xdata$x
; File c:\program files (x86)\microsoft visual studio 10.0\vc\include\utility
xdata$x	SEGMENT
__unwindtable$??$_Cons_val@V?$allocator@UBox@BoxSpace@@@std@@UBox@BoxSpace@@AAU34@@std@@YAXAAV?$allocator@UBox@BoxSpace@@@0@PAUBox@BoxSpace@@AAU23@@Z DD 0ffffffffH
	DD	FLAT:__unwindfunclet$??$_Cons_val@V?$allocator@UBox@BoxSpace@@@std@@UBox@BoxSpace@@AAU34@@std@@YAXAAV?$allocator@UBox@BoxSpace@@@0@PAUBox@BoxSpace@@AAU23@@Z$0
__ehfuncinfo$??$_Cons_val@V?$allocator@UBox@BoxSpace@@@std@@UBox@BoxSpace@@AAU34@@std@@YAXAAV?$allocator@UBox@BoxSpace@@@0@PAUBox@BoxSpace@@AAU23@@Z DD 019930522H
	DD	01H
	DD	FLAT:__unwindtable$??$_Cons_val@V?$allocator@UBox@BoxSpace@@@std@@UBox@BoxSpace@@AAU34@@std@@YAXAAV?$allocator@UBox@BoxSpace@@@0@PAUBox@BoxSpace@@AAU23@@Z
	DD	2 DUP(00H)
	DD	2 DUP(00H)
	DD	00H
	DD	01H
; Function compile flags: /Ogsp
; File c:\program files (x86)\microsoft visual studio 10.0\vc\include\xmemory
xdata$x	ENDS
;	COMDAT ??$_Cons_val@V?$allocator@UBox@BoxSpace@@@std@@UBox@BoxSpace@@AAU34@@std@@YAXAAV?$allocator@UBox@BoxSpace@@@0@PAUBox@BoxSpace@@AAU23@@Z
_TEXT	SEGMENT
$T519348 = -16						; size = 4
__$EHRec$ = -12						; size = 12
__Alval$ = 8						; size = 4
__Pdest$ = 12						; size = 4
__Src$ = 16						; size = 4
??$_Cons_val@V?$allocator@UBox@BoxSpace@@@std@@UBox@BoxSpace@@AAU34@@std@@YAXAAV?$allocator@UBox@BoxSpace@@@0@PAUBox@BoxSpace@@AAU23@@Z PROC ; std::_Cons_val<std::allocator<BoxSpace::Box>,BoxSpace::Box,BoxSpace::Box &>, COMDAT

; 279  : 	{	// construct using allocator

  00000	6a 04		 push	 4
  00002	b8 00 00 00 00	 mov	 eax, __ehhandler$??$_Cons_val@V?$allocator@UBox@BoxSpace@@@std@@UBox@BoxSpace@@AAU34@@std@@YAXAAV?$allocator@UBox@BoxSpace@@@0@PAUBox@BoxSpace@@AAU23@@Z
  00007	e8 00 00 00 00	 call	 __EH_prolog3

; 280  : 	_Alval.construct(_Pdest, _STD forward<_Ty2>(_Src));

  0000c	8b 4d 0c	 mov	 ecx, DWORD PTR __Pdest$[ebp]
  0000f	89 4d f0	 mov	 DWORD PTR $T519348[ebp], ecx
  00012	83 65 fc 00	 and	 DWORD PTR __$EHRec$[ebp+8], 0
  00016	85 c9		 test	 ecx, ecx
  00018	74 08		 je	 SHORT $LN7@Cons_val@12
  0001a	ff 75 10	 push	 DWORD PTR __Src$[ebp]
  0001d	e8 00 00 00 00	 call	 ??0Box@BoxSpace@@QAE@ABU01@@Z
$LN7@Cons_val@12:

; 281  : 	}

  00022	e8 00 00 00 00	 call	 __EH_epilog3
  00027	c3		 ret	 0
_TEXT	ENDS
;	COMDAT text$x
text$x	SEGMENT
__unwindfunclet$??$_Cons_val@V?$allocator@UBox@BoxSpace@@@std@@UBox@BoxSpace@@AAU34@@std@@YAXAAV?$allocator@UBox@BoxSpace@@@0@PAUBox@BoxSpace@@AAU23@@Z$0:
  00000	ff 75 0c	 push	 DWORD PTR __Pdest$[ebp]
  00003	ff 75 f0	 push	 DWORD PTR $T519348[ebp]
  00006	e8 00 00 00 00	 call	 ??3@YAXPAX0@Z		; operator delete
  0000b	59		 pop	 ecx
  0000c	59		 pop	 ecx
  0000d	c3		 ret	 0
__ehhandler$??$_Cons_val@V?$allocator@UBox@BoxSpace@@@std@@UBox@BoxSpace@@AAU34@@std@@YAXAAV?$allocator@UBox@BoxSpace@@@0@PAUBox@BoxSpace@@AAU23@@Z:
  0000e	8b 54 24 08	 mov	 edx, DWORD PTR [esp+8]
  00012	8d 42 0c	 lea	 eax, DWORD PTR [edx+12]
  00015	8b 4a ec	 mov	 ecx, DWORD PTR [edx-20]
  00018	33 c8		 xor	 ecx, eax
  0001a	e8 00 00 00 00	 call	 @__security_check_cookie@4
  0001f	b8 00 00 00 00	 mov	 eax, OFFSET __ehfuncinfo$??$_Cons_val@V?$allocator@UBox@BoxSpace@@@std@@UBox@BoxSpace@@AAU34@@std@@YAXAAV?$allocator@UBox@BoxSpace@@@0@PAUBox@BoxSpace@@AAU23@@Z
  00024	e9 00 00 00 00	 jmp	 ___CxxFrameHandler3
text$x	ENDS
??$_Cons_val@V?$allocator@UBox@BoxSpace@@@std@@UBox@BoxSpace@@AAU34@@std@@YAXAAV?$allocator@UBox@BoxSpace@@@0@PAUBox@BoxSpace@@AAU23@@Z ENDP ; std::_Cons_val<std::allocator<BoxSpace::Box>,BoxSpace::Box,BoxSpace::Box &>
PUBLIC	?construct@?$allocator@UBox@BoxSpace@@@std@@QAEXPAUBox@BoxSpace@@ABU34@@Z ; std::allocator<BoxSpace::Box>::construct
; Function compile flags: /Ogsp
;	COMDAT ?construct@?$allocator@UBox@BoxSpace@@@std@@QAEXPAUBox@BoxSpace@@ABU34@@Z
_TEXT	SEGMENT
__Ptr$ = 8						; size = 4
__Val$ = 12						; size = 4
?construct@?$allocator@UBox@BoxSpace@@@std@@QAEXPAUBox@BoxSpace@@ABU34@@Z PROC ; std::allocator<BoxSpace::Box>::construct, COMDAT
; _this$ = ecx

; 196  : 		{	// construct object at _Ptr with value _Val

  00000	55		 push	 ebp
  00001	8b ec		 mov	 ebp, esp

; 197  : 		_Construct(_Ptr, _Val);

  00003	ff 75 0c	 push	 DWORD PTR __Val$[ebp]
  00006	ff 75 08	 push	 DWORD PTR __Ptr$[ebp]
  00009	e8 00 00 00 00	 call	 ??$_Construct@UBox@BoxSpace@@ABU12@@std@@YAXPAUBox@BoxSpace@@ABU12@@Z ; std::_Construct<BoxSpace::Box,BoxSpace::Box const &>
  0000e	59		 pop	 ecx
  0000f	59		 pop	 ecx

; 198  : 		}

  00010	5d		 pop	 ebp
  00011	c2 08 00	 ret	 8
?construct@?$allocator@UBox@BoxSpace@@@std@@QAEXPAUBox@BoxSpace@@ABU34@@Z ENDP ; std::allocator<BoxSpace::Box>::construct
_TEXT	ENDS
PUBLIC	??$_Destroy@UBox@BoxSpace@@@std@@YAXPAUBox@BoxSpace@@@Z ; std::_Destroy<BoxSpace::Box>
; Function compile flags: /Ogsp
;	COMDAT ??$_Destroy@UBox@BoxSpace@@@std@@YAXPAUBox@BoxSpace@@@Z
_TEXT	SEGMENT
__Ptr$ = 8						; size = 4
??$_Destroy@UBox@BoxSpace@@@std@@YAXPAUBox@BoxSpace@@@Z PROC ; std::_Destroy<BoxSpace::Box>, COMDAT

; 62   : 	{	// destroy object at _Ptr

  00000	55		 push	 ebp
  00001	8b ec		 mov	 ebp, esp

; 63   : 	_Ptr->~_Ty();

  00003	8b 4d 08	 mov	 ecx, DWORD PTR __Ptr$[ebp]

; 64   : 	}

  00006	5d		 pop	 ebp

; 63   : 	_Ptr->~_Ty();

  00007	e9 00 00 00 00	 jmp	 ??1Box@BoxSpace@@QAE@XZ
??$_Destroy@UBox@BoxSpace@@@std@@YAXPAUBox@BoxSpace@@@Z ENDP ; std::_Destroy<BoxSpace::Box>
_TEXT	ENDS
PUBLIC	?findBoxPath@BoxSpace@@QAEHABUD3DXVECTOR3@@0AAUBoxPath@@@Z ; BoxSpace::findBoxPath
; Function compile flags: /Ogsp
; File d:\lost saga for developer\youtube\tutorial\source\src\lsclient\boxgraph.cpp
;	COMDAT ?findBoxPath@BoxSpace@@QAEHABUD3DXVECTOR3@@0AAUBoxPath@@@Z
_TEXT	SEGMENT
$T519374 = -8						; size = 4
_boxFrom$ = -4						; size = 2
_i$505462 = 8						; size = 4
_posFrom$ = 8						; size = 4
tv1070 = 12						; size = 4
$T519375 = 12						; size = 2
$T519437 = 12						; size = 4
_pFrom$ = 12						; size = 4
_posTo$ = 12						; size = 4
tv496 = 16						; size = 4
_boxTo$ = 16						; size = 2
_outPath$ = 16						; size = 4
?findBoxPath@BoxSpace@@QAEHABUD3DXVECTOR3@@0AAUBoxPath@@@Z PROC ; BoxSpace::findBoxPath, COMDAT
; _this$ = ecx

; 286  : {

  00000	55		 push	 ebp
  00001	8b ec		 mov	 ebp, esp
  00003	51		 push	 ecx
  00004	51		 push	 ecx
  00005	53		 push	 ebx

; 287  : 	m_bUseJump = outPath.useJump;

  00006	8b 5d 10	 mov	 ebx, DWORD PTR _outPath$[ebp]
  00009	8a 43 20	 mov	 al, BYTE PTR [ebx+32]
  0000c	56		 push	 esi
  0000d	57		 push	 edi

; 288  : 
; 289  : 	short boxFrom = findBox( posFrom );

  0000e	ff 75 08	 push	 DWORD PTR _posFrom$[ebp]
  00011	8b f1		 mov	 esi, ecx
  00013	88 46 51	 mov	 BYTE PTR [esi+81], al
  00016	e8 00 00 00 00	 call	 ?findBox@BoxSpace@@QBEHABUD3DXVECTOR3@@@Z ; BoxSpace::findBox
  0001b	0f b7 f8	 movzx	 edi, ax

; 290  : 	outPath.bInBox = (boxFrom != -1);

  0001e	66 83 ff ff	 cmp	 di, -1
  00022	0f 95 c0	 setne	 al
  00025	89 7d fc	 mov	 DWORD PTR _boxFrom$[ebp], edi
  00028	88 43 12	 mov	 BYTE PTR [ebx+18], al

; 291  : 	if ( boxFrom == -1 )

  0002b	66 83 ff ff	 cmp	 di, -1
  0002f	75 10		 jne	 SHORT $LN17@findBoxPat

; 292  : 		boxFrom = findNearestBox( posFrom );

  00031	ff 75 08	 push	 DWORD PTR _posFrom$[ebp]
  00034	8b ce		 mov	 ecx, esi
  00036	e8 00 00 00 00	 call	 ?findNearestBox@BoxSpace@@QBEHABUD3DXVECTOR3@@@Z ; BoxSpace::findNearestBox
  0003b	0f b7 f8	 movzx	 edi, ax
  0003e	89 7d fc	 mov	 DWORD PTR _boxFrom$[ebp], edi
$LN17@findBoxPat:

; 293  : 
; 294  : 	short boxTo = findBox( posTo );

  00041	ff 75 0c	 push	 DWORD PTR _posTo$[ebp]
  00044	8b ce		 mov	 ecx, esi
  00046	e8 00 00 00 00	 call	 ?findBox@BoxSpace@@QBEHABUD3DXVECTOR3@@@Z ; BoxSpace::findBox
  0004b	0f b7 c0	 movzx	 eax, ax
  0004e	89 45 10	 mov	 DWORD PTR _boxTo$[ebp], eax

; 295  : 	if ( boxTo == -1 )

  00051	66 83 f8 ff	 cmp	 ax, -1
  00055	75 10		 jne	 SHORT $LN16@findBoxPat

; 296  : 		boxTo = findNearestBox( posTo );

  00057	ff 75 0c	 push	 DWORD PTR _posTo$[ebp]
  0005a	8b ce		 mov	 ecx, esi
  0005c	e8 00 00 00 00	 call	 ?findNearestBox@BoxSpace@@QBEHABUD3DXVECTOR3@@@Z ; BoxSpace::findNearestBox
  00061	0f b7 c0	 movzx	 eax, ax
  00064	89 45 10	 mov	 DWORD PTR _boxTo$[ebp], eax
$LN16@findBoxPat:

; 297  : 	
; 298  : 	outPath.path.clear();

  00067	8b 43 04	 mov	 eax, DWORD PTR [ebx+4]
  0006a	8b 0b		 mov	 ecx, DWORD PTR [ebx]
  0006c	50		 push	 eax
  0006d	51		 push	 ecx
  0006e	8d 45 0c	 lea	 eax, DWORD PTR $T519437[ebp]
  00071	50		 push	 eax
  00072	8b cb		 mov	 ecx, ebx
  00074	e8 00 00 00 00	 call	 ?erase@?$vector@FV?$allocator@F@std@@@std@@QAE?AV?$_Vector_iterator@V?$_Vector_val@FV?$allocator@F@std@@@std@@@2@V?$_Vector_const_iterator@V?$_Vector_val@FV?$allocator@F@std@@@std@@@2@0@Z ; std::vector<short,std::allocator<short> >::erase

; 299  : 	outPath.index = 0;

  00079	33 c0		 xor	 eax, eax
  0007b	66 89 43 10	 mov	 WORD PTR [ebx+16], ax

; 300  : 
; 301  : 	if ( boxFrom == boxTo )

  0007f	66 3b 7d 10	 cmp	 di, WORD PTR _boxTo$[ebp]
  00083	0f 84 ae 02 00
	00		 je	 $LN18@findBoxPat
$LN15@findBoxPat:

; 302  : 		return 0;
; 303  : 
; 304  : 	if ( boxFrom == -1 || boxTo == -1 )

  00089	83 c8 ff	 or	 eax, -1
  0008c	66 3b f8	 cmp	 di, ax
  0008f	0f 84 a2 02 00
	00		 je	 $LN18@findBoxPat
  00095	66 39 45 10	 cmp	 WORD PTR _boxTo$[ebp], ax
  00099	0f 84 98 02 00
	00		 je	 $LN18@findBoxPat

; 305  : 		return -1;
; 306  : 
; 307  : 	m_pGoal = &m_boxes[ boxTo ];

  0009f	0f bf 45 10	 movsx	 eax, WORD PTR _boxTo$[ebp]
  000a3	6b c0 58	 imul	 eax, 88			; 00000058H
  000a6	03 06		 add	 eax, DWORD PTR [esi]

; 308  : 
; 309  : 	m_astar.clear();

  000a8	8d 4e 10	 lea	 ecx, DWORD PTR [esi+16]
  000ab	89 46 54	 mov	 DWORD PTR [esi+84], eax
  000ae	e8 00 00 00 00	 call	 ?clear@?$AStarSearcher@VBoxSpace@@PAUBox@1@@@QAEXXZ ; AStarSearcher<BoxSpace,BoxSpace::Box *>::clear

; 310  : 
; 311  : 	Box* pFrom = &m_boxes[ boxFrom ];

  000b3	0f bf ff	 movsx	 edi, di
  000b6	6b ff 58	 imul	 edi, 88			; 00000058H
  000b9	03 3e		 add	 edi, DWORD PTR [esi]

; 312  : 	if ( outPath.bInBox ) 

  000bb	80 7b 12 00	 cmp	 BYTE PTR [ebx+18], 0
  000bf	89 7d 0c	 mov	 DWORD PTR _pFrom$[ebp], edi
  000c2	0f 84 d6 01 00
	00		 je	 $LN12@findBoxPat

; 313  : 		for ( int i = 0, n = pFrom->links.size(); i < n; i++ ) {

  000c8	8b 47 38	 mov	 eax, DWORD PTR [edi+56]
  000cb	2b 47 34	 sub	 eax, DWORD PTR [edi+52]
  000ce	c1 f8 05	 sar	 eax, 5
  000d1	85 c0		 test	 eax, eax
  000d3	0f 8e da 01 00
	00		 jle	 $LN6@findBoxPat
  000d9	83 65 0c 00	 and	 DWORD PTR tv1070[ebp], 0
  000dd	f2 0f 10 05 00
	00 00 00	 movsd	 xmm0, QWORD PTR __mask@@AbsDouble@
  000e5	f2 0f 10 0d 00
	00 00 00	 movsd	 xmm1, QWORD PTR __real@3ff69fbe80000000
  000ed	89 45 10	 mov	 DWORD PTR tv496[ebp], eax
$LL11@findBoxPat:
  000f0	8b 47 34	 mov	 eax, DWORD PTR [edi+52]
  000f3	03 45 0c	 add	 eax, DWORD PTR tv1070[ebp]

; 314  : 			Link& link = pFrom->links[ i ];
; 315  : 			if ( !outPath.useJump && (link.type == MOVETYPE_JUMP || link.type == MOVETYPE_JUMP2) ) 

  000f6	80 7b 20 00	 cmp	 BYTE PTR [ebx+32], 0
  000fa	75 15		 jne	 SHORT $LN8@findBoxPat
  000fc	8a 48 03	 mov	 cl, BYTE PTR [eax+3]
  000ff	80 f9 4a	 cmp	 cl, 74			; 0000004aH
  00102	0f 84 87 01 00
	00		 je	 $LN10@findBoxPat
  00108	80 f9 32	 cmp	 cl, 50			; 00000032H

; 316  : 				continue;

  0010b	0f 84 7e 01 00
	00		 je	 $LN10@findBoxPat
$LN8@findBoxPat:

; 317  : 			float cost = link.cost - getXYDist( pFrom->posCenter, link.posFrom ) + getXYDist( posFrom, link.posFrom );

  00111	f3 0f 10 60 08	 movss	 xmm4, DWORD PTR [eax+8]
  00116	f3 0f 10 57 48	 movss	 xmm2, DWORD PTR [edi+72]
  0011b	f3 0f 10 68 0c	 movss	 xmm5, DWORD PTR [eax+12]
  00120	0f 5a dc	 cvtps2pd xmm3, xmm4
  00123	0f 5a d2	 cvtps2pd xmm2, xmm2
  00126	f2 0f 5c d3	 subsd	 xmm2, xmm3
  0012a	f3 0f 10 5f 4c	 movss	 xmm3, DWORD PTR [edi+76]
  0012f	0f 5a db	 cvtps2pd xmm3, xmm3
  00132	0f 5a f5	 cvtps2pd xmm6, xmm5
  00135	f2 0f 5c de	 subsd	 xmm3, xmm6
  00139	66 0f 5a d2	 cvtpd2ps xmm2, xmm2
  0013d	66 0f 5a db	 cvtpd2ps xmm3, xmm3
  00141	f3 0f 5a d2	 cvtss2sd xmm2, xmm2
  00145	f3 0f 5a db	 cvtss2sd xmm3, xmm3
  00149	66 0f 54 d0	 andpd	 xmm2, xmm0
  0014d	66 0f 54 d8	 andpd	 xmm3, xmm0
  00151	0f 57 f6	 xorps	 xmm6, xmm6
  00154	f2 0f 5a d2	 cvtsd2ss xmm2, xmm2
  00158	f2 0f 5a db	 cvtsd2ss xmm3, xmm3
  0015c	f3 0f 5a f2	 cvtss2sd xmm6, xmm2
  00160	0f 57 ff	 xorps	 xmm7, xmm7
  00163	f3 0f 5a fb	 cvtss2sd xmm7, xmm3
  00167	66 0f 2f f7	 comisd	 xmm6, xmm7
  0016b	0f 57 f6	 xorps	 xmm6, xmm6
  0016e	76 21		 jbe	 SHORT $LN47@findBoxPat
  00170	f3 0f 5a f3	 cvtss2sd xmm6, xmm3
  00174	f3 0f 5a db	 cvtss2sd xmm3, xmm3
  00178	f3 0f 5a d2	 cvtss2sd xmm2, xmm2
  0017c	f2 0f 59 d9	 mulsd	 xmm3, xmm1
  00180	f2 0f 5c d6	 subsd	 xmm2, xmm6
  00184	f2 0f 58 d3	 addsd	 xmm2, xmm3
  00188	0f 57 db	 xorps	 xmm3, xmm3
  0018b	f2 0f 5a da	 cvtsd2ss xmm3, xmm2
  0018f	eb 1c		 jmp	 SHORT $LN46@findBoxPat
$LN47@findBoxPat:
  00191	f3 0f 5a f2	 cvtss2sd xmm6, xmm2
  00195	f3 0f 5a db	 cvtss2sd xmm3, xmm3
  00199	f2 0f 5c de	 subsd	 xmm3, xmm6
  0019d	f3 0f 5a d2	 cvtss2sd xmm2, xmm2
  001a1	f2 0f 59 d1	 mulsd	 xmm2, xmm1
  001a5	f2 0f 58 da	 addsd	 xmm3, xmm2
  001a9	f2 0f 5a db	 cvtsd2ss xmm3, xmm3
$LN46@findBoxPat:
  001ad	8b 4d 08	 mov	 ecx, DWORD PTR _posFrom$[ebp]
  001b0	f3 0f 10 11	 movss	 xmm2, DWORD PTR [ecx]
  001b4	0f 5a e4	 cvtps2pd xmm4, xmm4
  001b7	0f 5a d2	 cvtps2pd xmm2, xmm2
  001ba	f2 0f 5c d4	 subsd	 xmm2, xmm4
  001be	f3 0f 10 61 04	 movss	 xmm4, DWORD PTR [ecx+4]
  001c3	0f 5a e4	 cvtps2pd xmm4, xmm4
  001c6	0f 5a ed	 cvtps2pd xmm5, xmm5
  001c9	f2 0f 5c e5	 subsd	 xmm4, xmm5
  001cd	66 0f 5a e4	 cvtpd2ps xmm4, xmm4
  001d1	66 0f 5a d2	 cvtpd2ps xmm2, xmm2
  001d5	f3 0f 5a e4	 cvtss2sd xmm4, xmm4
  001d9	66 0f 54 e0	 andpd	 xmm4, xmm0
  001dd	f3 0f 5a d2	 cvtss2sd xmm2, xmm2
  001e1	66 0f 54 d0	 andpd	 xmm2, xmm0
  001e5	0f 57 c0	 xorps	 xmm0, xmm0
  001e8	f2 0f 5a c4	 cvtsd2ss xmm0, xmm4
  001ec	0f 57 e4	 xorps	 xmm4, xmm4
  001ef	f2 0f 5a d2	 cvtsd2ss xmm2, xmm2
  001f3	f3 0f 5a e2	 cvtss2sd xmm4, xmm2
  001f7	0f 57 ed	 xorps	 xmm5, xmm5
  001fa	0f 5a e8	 cvtps2pd xmm5, xmm0
  001fd	66 0f 2f e5	 comisd	 xmm4, xmm5
  00201	0f 57 e4	 xorps	 xmm4, xmm4
  00204	76 1f		 jbe	 SHORT $LN59@findBoxPat
  00206	0f 5a e0	 cvtps2pd xmm4, xmm0
  00209	0f 5a c0	 cvtps2pd xmm0, xmm0
  0020c	f3 0f 5a d2	 cvtss2sd xmm2, xmm2
  00210	f2 0f 59 c1	 mulsd	 xmm0, xmm1
  00214	f2 0f 5c d4	 subsd	 xmm2, xmm4
  00218	f2 0f 58 d0	 addsd	 xmm2, xmm0
  0021c	0f 57 c0	 xorps	 xmm0, xmm0
  0021f	f2 0f 5a c2	 cvtsd2ss xmm0, xmm2
  00223	eb 1b		 jmp	 SHORT $LN58@findBoxPat
$LN59@findBoxPat:
  00225	f3 0f 5a e2	 cvtss2sd xmm4, xmm2
  00229	0f 5a c0	 cvtps2pd xmm0, xmm0
  0022c	f2 0f 5c c4	 subsd	 xmm0, xmm4
  00230	f3 0f 5a d2	 cvtss2sd xmm2, xmm2
  00234	f2 0f 59 d1	 mulsd	 xmm2, xmm1
  00238	f2 0f 58 c2	 addsd	 xmm0, xmm2
  0023c	66 0f 5a c0	 cvtpd2ps xmm0, xmm0
$LN58@findBoxPat:

; 318  : 			m_astar.addStartNode( &m_boxes[ link.toBox ], cost );

  00240	0f bf 08	 movsx	 ecx, WORD PTR [eax]
  00243	f3 0f 10 48 04	 movss	 xmm1, DWORD PTR [eax+4]
  00248	6b c9 58	 imul	 ecx, 88			; 00000058H
  0024b	03 0e		 add	 ecx, DWORD PTR [esi]
  0024d	0f 5a c9	 cvtps2pd xmm1, xmm1
  00250	0f 57 d2	 xorps	 xmm2, xmm2
  00253	f3 0f 5a c0	 cvtss2sd xmm0, xmm0
  00257	f3 0f 5a d3	 cvtss2sd xmm2, xmm3
  0025b	f2 0f 5c ca	 subsd	 xmm1, xmm2
  0025f	f2 0f 58 c8	 addsd	 xmm1, xmm0
  00263	51		 push	 ecx
  00264	0f 57 c0	 xorps	 xmm0, xmm0
  00267	66 0f 5a c1	 cvtpd2ps xmm0, xmm1
  0026b	8d 45 f8	 lea	 eax, DWORD PTR $T519374[ebp]
  0026e	89 4d f8	 mov	 DWORD PTR $T519374[ebp], ecx
  00271	f3 0f 11 04 24	 movss	 DWORD PTR [esp], xmm0
  00276	50		 push	 eax
  00277	8d 4e 10	 lea	 ecx, DWORD PTR [esi+16]
  0027a	e8 00 00 00 00	 call	 ?addStartNode@?$AStarSearcher@VBoxSpace@@PAUBox@1@@@QAEXABQAUBox@BoxSpace@@M@Z ; AStarSearcher<BoxSpace,BoxSpace::Box *>::addStartNode
  0027f	f2 0f 10 0d 00
	00 00 00	 movsd	 xmm1, QWORD PTR __real@3ff69fbe80000000
  00287	f2 0f 10 05 00
	00 00 00	 movsd	 xmm0, QWORD PTR __mask@@AbsDouble@
$LN10@findBoxPat:

; 313  : 		for ( int i = 0, n = pFrom->links.size(); i < n; i++ ) {

  0028f	83 45 0c 20	 add	 DWORD PTR tv1070[ebp], 32 ; 00000020H
  00293	ff 4d 10	 dec	 DWORD PTR tv496[ebp]
  00296	0f 85 54 fe ff
	ff		 jne	 $LL11@findBoxPat

; 319  : 		}

  0029c	eb 15		 jmp	 SHORT $LN6@findBoxPat
$LN12@findBoxPat:

; 320  : 	else 
; 321  : 		m_astar.addStartNode( pFrom, 0 );

  0029e	0f 57 c0	 xorps	 xmm0, xmm0
  002a1	51		 push	 ecx
  002a2	8d 45 0c	 lea	 eax, DWORD PTR _pFrom$[ebp]
  002a5	f3 0f 11 04 24	 movss	 DWORD PTR [esp], xmm0
  002aa	50		 push	 eax
  002ab	8d 4e 10	 lea	 ecx, DWORD PTR [esi+16]
  002ae	e8 00 00 00 00	 call	 ?addStartNode@?$AStarSearcher@VBoxSpace@@PAUBox@1@@@QAEXABQAUBox@BoxSpace@@M@Z ; AStarSearcher<BoxSpace,BoxSpace::Box *>::addStartNode
$LN6@findBoxPat:

; 322  : 	
; 323  : 	if ( !m_astar.findPath() )

  002b3	8d 4e 10	 lea	 ecx, DWORD PTR [esi+16]
  002b6	e8 00 00 00 00	 call	 ?doFindPath@?$AStarSearcher@VBoxSpace@@PAUBox@1@@@AAE_NXZ ; AStarSearcher<BoxSpace,BoxSpace::Box *>::doFindPath
  002bb	84 c0		 test	 al, al
  002bd	75 05		 jne	 SHORT $LN5@findBoxPat

; 324  : 		return -1;

  002bf	83 c8 ff	 or	 eax, -1
  002c2	eb 73		 jmp	 SHORT $LN18@findBoxPat
$LN5@findBoxPat:

; 325  : 
; 326  : 	outPath.path.reserve( m_astar.getPathSize() + 2 );

  002c4	8b 46 44	 mov	 eax, DWORD PTR [esi+68]
  002c7	2b 46 40	 sub	 eax, DWORD PTR [esi+64]
  002ca	8b cb		 mov	 ecx, ebx
  002cc	c1 f8 02	 sar	 eax, 2
  002cf	83 c0 02	 add	 eax, 2
  002d2	50		 push	 eax
  002d3	e8 00 00 00 00	 call	 ?reserve@?$vector@FV?$allocator@F@std@@@std@@QAEXI@Z ; std::vector<short,std::allocator<short> >::reserve

; 327  : 
; 328  : 	if ( outPath.bInBox )

  002d8	80 7b 12 00	 cmp	 BYTE PTR [ebx+18], 0
  002dc	74 0b		 je	 SHORT $LN4@findBoxPat

; 329  : 		outPath.path.push_back( boxFrom );

  002de	8d 45 fc	 lea	 eax, DWORD PTR _boxFrom$[ebp]
  002e1	50		 push	 eax
  002e2	8b cb		 mov	 ecx, ebx
  002e4	e8 00 00 00 00	 call	 ?push_back@?$vector@FV?$allocator@F@std@@@std@@QAEXABF@Z ; std::vector<short,std::allocator<short> >::push_back
$LN4@findBoxPat:

; 330  : 
; 331  : 	for ( int i = 0, n = m_astar.getPathSize(); i < n; i++ )

  002e9	8b 7e 44	 mov	 edi, DWORD PTR [esi+68]
  002ec	2b 7e 40	 sub	 edi, DWORD PTR [esi+64]
  002ef	83 65 08 00	 and	 DWORD PTR _i$505462[ebp], 0
  002f3	c1 ff 02	 sar	 edi, 2
  002f6	85 ff		 test	 edi, edi
  002f8	7e 36		 jle	 SHORT $LN1@findBoxPat
$LL108@findBoxPat:

; 332  : 		outPath.path.push_back( m_astar.getPath( i ) - &m_boxes.front() );

  002fa	8b 46 44	 mov	 eax, DWORD PTR [esi+68]
  002fd	2b 46 40	 sub	 eax, DWORD PTR [esi+64]
  00300	8b 4e 40	 mov	 ecx, DWORD PTR [esi+64]
  00303	c1 f8 02	 sar	 eax, 2
  00306	2b 45 08	 sub	 eax, DWORD PTR _i$505462[ebp]
  00309	6a 58		 push	 88			; 00000058H
  0030b	8b 44 81 fc	 mov	 eax, DWORD PTR [ecx+eax*4-4]
  0030f	8b 00		 mov	 eax, DWORD PTR [eax]
  00311	2b 06		 sub	 eax, DWORD PTR [esi]
  00313	59		 pop	 ecx
  00314	99		 cdq
  00315	f7 f9		 idiv	 ecx
  00317	8b cb		 mov	 ecx, ebx
  00319	0f b7 c0	 movzx	 eax, ax
  0031c	89 45 0c	 mov	 DWORD PTR $T519375[ebp], eax
  0031f	8d 45 0c	 lea	 eax, DWORD PTR $T519375[ebp]
  00322	50		 push	 eax
  00323	e8 00 00 00 00	 call	 ?push_back@?$vector@FV?$allocator@F@std@@@std@@QAEX$$QAF@Z ; std::vector<short,std::allocator<short> >::push_back
  00328	ff 45 08	 inc	 DWORD PTR _i$505462[ebp]
  0032b	39 7d 08	 cmp	 DWORD PTR _i$505462[ebp], edi
  0032e	7c ca		 jl	 SHORT $LL108@findBoxPat
$LN1@findBoxPat:

; 333  : 
; 334  : 	return int(outPath.path.size());

  00330	8b 43 04	 mov	 eax, DWORD PTR [ebx+4]
  00333	2b 03		 sub	 eax, DWORD PTR [ebx]
  00335	d1 f8		 sar	 eax, 1
$LN18@findBoxPat:
  00337	5f		 pop	 edi
  00338	5e		 pop	 esi
  00339	5b		 pop	 ebx

; 335  : }

  0033a	c9		 leave
  0033b	c2 0c 00	 ret	 12			; 0000000cH
?findBoxPath@BoxSpace@@QAEHABUD3DXVECTOR3@@0AAUBoxPath@@@Z ENDP ; BoxSpace::findBoxPath
_TEXT	ENDS
PUBLIC	??$_Cons_val@V?$allocator@UBox@BoxSpace@@@std@@UBox@BoxSpace@@ABU34@@std@@YAXAAV?$allocator@UBox@BoxSpace@@@0@PAUBox@BoxSpace@@ABU23@@Z ; std::_Cons_val<std::allocator<BoxSpace::Box>,BoxSpace::Box,BoxSpace::Box const &>
; Function compile flags: /Ogsp
; File c:\program files (x86)\microsoft visual studio 10.0\vc\include\xmemory
;	COMDAT ??$_Cons_val@V?$allocator@UBox@BoxSpace@@@std@@UBox@BoxSpace@@ABU34@@std@@YAXAAV?$allocator@UBox@BoxSpace@@@0@PAUBox@BoxSpace@@ABU23@@Z
_TEXT	SEGMENT
__Alval$ = 8						; size = 4
__Pdest$ = 12						; size = 4
__Src$ = 16						; size = 4
??$_Cons_val@V?$allocator@UBox@BoxSpace@@@std@@UBox@BoxSpace@@ABU34@@std@@YAXAAV?$allocator@UBox@BoxSpace@@@0@PAUBox@BoxSpace@@ABU23@@Z PROC ; std::_Cons_val<std::allocator<BoxSpace::Box>,BoxSpace::Box,BoxSpace::Box const &>, COMDAT

; 279  : 	{	// construct using allocator

  00000	55		 push	 ebp
  00001	8b ec		 mov	 ebp, esp

; 280  : 	_Alval.construct(_Pdest, _STD forward<_Ty2>(_Src));

  00003	ff 75 10	 push	 DWORD PTR __Src$[ebp]
  00006	ff 75 0c	 push	 DWORD PTR __Pdest$[ebp]
  00009	e8 00 00 00 00	 call	 ??$_Construct@UBox@BoxSpace@@ABU12@@std@@YAXPAUBox@BoxSpace@@ABU12@@Z ; std::_Construct<BoxSpace::Box,BoxSpace::Box const &>
  0000e	59		 pop	 ecx
  0000f	59		 pop	 ecx

; 281  : 	}

  00010	5d		 pop	 ebp
  00011	c3		 ret	 0
??$_Cons_val@V?$allocator@UBox@BoxSpace@@@std@@UBox@BoxSpace@@ABU34@@std@@YAXAAV?$allocator@UBox@BoxSpace@@@0@PAUBox@BoxSpace@@ABU23@@Z ENDP ; std::_Cons_val<std::allocator<BoxSpace::Box>,BoxSpace::Box,BoxSpace::Box const &>
_TEXT	ENDS
PUBLIC	?destroy@?$allocator@UBox@BoxSpace@@@std@@QAEXPAUBox@BoxSpace@@@Z ; std::allocator<BoxSpace::Box>::destroy
; Function compile flags: /Ogsp
;	COMDAT ?destroy@?$allocator@UBox@BoxSpace@@@std@@QAEXPAUBox@BoxSpace@@@Z
_TEXT	SEGMENT
__Ptr$ = 8						; size = 4
?destroy@?$allocator@UBox@BoxSpace@@@std@@QAEXPAUBox@BoxSpace@@@Z PROC ; std::allocator<BoxSpace::Box>::destroy, COMDAT
; _this$ = ecx

; 212  : 		{	// destroy object at _Ptr

  00000	55		 push	 ebp
  00001	8b ec		 mov	 ebp, esp

; 213  : 		_Destroy(_Ptr);

  00003	8b 4d 08	 mov	 ecx, DWORD PTR __Ptr$[ebp]
  00006	e8 00 00 00 00	 call	 ??1Box@BoxSpace@@QAE@XZ

; 214  : 		}

  0000b	5d		 pop	 ebp
  0000c	c2 04 00	 ret	 4
?destroy@?$allocator@UBox@BoxSpace@@@std@@QAEXPAUBox@BoxSpace@@@Z ENDP ; std::allocator<BoxSpace::Box>::destroy
_TEXT	ENDS
PUBLIC	??$_Dest_val@V?$allocator@UBox@BoxSpace@@@std@@UBox@BoxSpace@@@std@@YAXAAV?$allocator@UBox@BoxSpace@@@0@PAUBox@BoxSpace@@@Z ; std::_Dest_val<std::allocator<BoxSpace::Box>,BoxSpace::Box>
; Function compile flags: /Ogsp
;	COMDAT ??$_Dest_val@V?$allocator@UBox@BoxSpace@@@std@@UBox@BoxSpace@@@std@@YAXAAV?$allocator@UBox@BoxSpace@@@0@PAUBox@BoxSpace@@@Z
_TEXT	SEGMENT
__Alval$ = 8						; size = 4
__Pdest$ = 12						; size = 4
??$_Dest_val@V?$allocator@UBox@BoxSpace@@@std@@UBox@BoxSpace@@@std@@YAXAAV?$allocator@UBox@BoxSpace@@@0@PAUBox@BoxSpace@@@Z PROC ; std::_Dest_val<std::allocator<BoxSpace::Box>,BoxSpace::Box>, COMDAT

; 286  : 	{	// destroy using allocator

  00000	55		 push	 ebp
  00001	8b ec		 mov	 ebp, esp

; 287  : 	_Alval.destroy(_Pdest);

  00003	8b 4d 0c	 mov	 ecx, DWORD PTR __Pdest$[ebp]

; 288  : 	}

  00006	5d		 pop	 ebp

; 287  : 	_Alval.destroy(_Pdest);

  00007	e9 00 00 00 00	 jmp	 ??1Box@BoxSpace@@QAE@XZ
??$_Dest_val@V?$allocator@UBox@BoxSpace@@@std@@UBox@BoxSpace@@@std@@YAXAAV?$allocator@UBox@BoxSpace@@@0@PAUBox@BoxSpace@@@Z ENDP ; std::_Dest_val<std::allocator<BoxSpace::Box>,BoxSpace::Box>
_TEXT	ENDS
PUBLIC	??$_Uninit_move@PAUBox@BoxSpace@@PAU12@V?$allocator@UBox@BoxSpace@@@std@@U12@@std@@YAPAUBox@BoxSpace@@PAU12@00AAV?$allocator@UBox@BoxSpace@@@0@0U_Nonscalar_ptr_iterator_tag@0@@Z ; std::_Uninit_move<BoxSpace::Box *,BoxSpace::Box *,std::allocator<BoxSpace::Box>,BoxSpace::Box>
;	COMDAT xdata$x
; File c:\program files (x86)\microsoft visual studio 10.0\vc\include\vector
xdata$x	SEGMENT
__catchsym$??$_Uninit_move@PAUBox@BoxSpace@@PAU12@V?$allocator@UBox@BoxSpace@@@std@@U12@@std@@YAPAUBox@BoxSpace@@PAU12@00AAV?$allocator@UBox@BoxSpace@@@0@0U_Nonscalar_ptr_iterator_tag@0@@Z$2 DD 040H
	DD	00H
	DD	00H
	DD	FLAT:__catch$??$_Uninit_move@PAUBox@BoxSpace@@PAU12@V?$allocator@UBox@BoxSpace@@@std@@U12@@std@@YAPAUBox@BoxSpace@@PAU12@00AAV?$allocator@UBox@BoxSpace@@@0@0U_Nonscalar_ptr_iterator_tag@0@@Z$0
__unwindtable$??$_Uninit_move@PAUBox@BoxSpace@@PAU12@V?$allocator@UBox@BoxSpace@@@std@@U12@@std@@YAPAUBox@BoxSpace@@PAU12@00AAV?$allocator@UBox@BoxSpace@@@0@0U_Nonscalar_ptr_iterator_tag@0@@Z DD 0ffffffffH
	DD	00H
	DD	0ffffffffH
	DD	00H
__tryblocktable$??$_Uninit_move@PAUBox@BoxSpace@@PAU12@V?$allocator@UBox@BoxSpace@@@std@@U12@@std@@YAPAUBox@BoxSpace@@PAU12@00AAV?$allocator@UBox@BoxSpace@@@0@0U_Nonscalar_ptr_iterator_tag@0@@Z DD 00H
	DD	00H
	DD	01H
	DD	01H
	DD	FLAT:__catchsym$??$_Uninit_move@PAUBox@BoxSpace@@PAU12@V?$allocator@UBox@BoxSpace@@@std@@U12@@std@@YAPAUBox@BoxSpace@@PAU12@00AAV?$allocator@UBox@BoxSpace@@@0@0U_Nonscalar_ptr_iterator_tag@0@@Z$2
__ehfuncinfo$??$_Uninit_move@PAUBox@BoxSpace@@PAU12@V?$allocator@UBox@BoxSpace@@@std@@U12@@std@@YAPAUBox@BoxSpace@@PAU12@00AAV?$allocator@UBox@BoxSpace@@@0@0U_Nonscalar_ptr_iterator_tag@0@@Z DD 019930522H
	DD	02H
	DD	FLAT:__unwindtable$??$_Uninit_move@PAUBox@BoxSpace@@PAU12@V?$allocator@UBox@BoxSpace@@@std@@U12@@std@@YAPAUBox@BoxSpace@@PAU12@00AAV?$allocator@UBox@BoxSpace@@@0@0U_Nonscalar_ptr_iterator_tag@0@@Z
	DD	01H
	DD	FLAT:__tryblocktable$??$_Uninit_move@PAUBox@BoxSpace@@PAU12@V?$allocator@UBox@BoxSpace@@@std@@U12@@std@@YAPAUBox@BoxSpace@@PAU12@00AAV?$allocator@UBox@BoxSpace@@@0@0U_Nonscalar_ptr_iterator_tag@0@@Z
	DD	2 DUP(00H)
	DD	00H
	DD	01H
; Function compile flags: /Ogsp
; File c:\program files (x86)\microsoft visual studio 10.0\vc\include\memory
xdata$x	ENDS
;	COMDAT ??$_Uninit_move@PAUBox@BoxSpace@@PAU12@V?$allocator@UBox@BoxSpace@@@std@@U12@@std@@YAPAUBox@BoxSpace@@PAU12@00AAV?$allocator@UBox@BoxSpace@@@0@0U_Nonscalar_ptr_iterator_tag@0@@Z
_TEXT	SEGMENT
__Next$ = -20						; size = 4
__$EHRec$ = -16						; size = 16
__First$ = 8						; size = 4
__Last$ = 12						; size = 4
__Dest$ = 16						; size = 4
__Al$ = 20						; size = 4
___formal$ = 24						; size = 4
___formal$ = 28						; size = 1
??$_Uninit_move@PAUBox@BoxSpace@@PAU12@V?$allocator@UBox@BoxSpace@@@std@@U12@@std@@YAPAUBox@BoxSpace@@PAU12@00AAV?$allocator@UBox@BoxSpace@@@0@0U_Nonscalar_ptr_iterator_tag@0@@Z PROC ; std::_Uninit_move<BoxSpace::Box *,BoxSpace::Box *,std::allocator<BoxSpace::Box>,BoxSpace::Box>, COMDAT

; 424  : 	{	// move [_First, _Last) to raw _Dest, using _Al, arbitrary type

  00000	6a 08		 push	 8
  00002	b8 00 00 00 00	 mov	 eax, __ehhandler$??$_Uninit_move@PAUBox@BoxSpace@@PAU12@V?$allocator@UBox@BoxSpace@@@std@@U12@@std@@YAPAUBox@BoxSpace@@PAU12@00AAV?$allocator@UBox@BoxSpace@@@0@0U_Nonscalar_ptr_iterator_tag@0@@Z
  00007	e8 00 00 00 00	 call	 __EH_prolog3_catch

; 425  : 	_DEBUG_RANGE(_First, _Last);
; 426  : 	_DEBUG_POINTER(_Dest);
; 427  : 	_FwdIt _Next = _Dest;

  0000c	8b 45 10	 mov	 eax, DWORD PTR __Dest$[ebp]

; 428  : 
; 429  : 	_TRY_BEGIN

  0000f	83 65 fc 00	 and	 DWORD PTR __$EHRec$[ebp+12], 0
  00013	8b 75 08	 mov	 esi, DWORD PTR __First$[ebp]
  00016	89 45 ec	 mov	 DWORD PTR __Next$[ebp], eax
$LL6@Uninit_mov@2:

; 430  : 	for (; _First != _Last; ++_Dest, ++_First)

  00019	3b 75 0c	 cmp	 esi, DWORD PTR __Last$[ebp]
  0001c	74 35		 je	 SHORT $LN4@Uninit_mov@2

; 431  : 		_Cons_val(_Al, _Dest, (_Valty &&)*_First);

  0001e	56		 push	 esi
  0001f	ff 75 10	 push	 DWORD PTR __Dest$[ebp]
  00022	ff 75 14	 push	 DWORD PTR __Al$[ebp]
  00025	e8 00 00 00 00	 call	 ??$_Cons_val@V?$allocator@UBox@BoxSpace@@@std@@UBox@BoxSpace@@U34@@std@@YAXAAV?$allocator@UBox@BoxSpace@@@0@PAUBox@BoxSpace@@$$QAU23@@Z ; std::_Cons_val<std::allocator<BoxSpace::Box>,BoxSpace::Box,BoxSpace::Box>
  0002a	83 45 10 58	 add	 DWORD PTR __Dest$[ebp], 88 ; 00000058H
  0002e	83 c4 0c	 add	 esp, 12			; 0000000cH
  00031	83 c6 58	 add	 esi, 88			; 00000058H
  00034	eb e3		 jmp	 SHORT $LL6@Uninit_mov@2
__catch$??$_Uninit_move@PAUBox@BoxSpace@@PAU12@V?$allocator@UBox@BoxSpace@@@std@@U12@@std@@YAPAUBox@BoxSpace@@PAU12@00AAV?$allocator@UBox@BoxSpace@@@0@0U_Nonscalar_ptr_iterator_tag@0@@Z$0:

; 432  : 	_CATCH_ALL
; 433  : 	for (; _Next != _Dest; ++_Next)

  00036	8b 75 ec	 mov	 esi, DWORD PTR __Next$[ebp]
  00039	eb 0a		 jmp	 SHORT $LN29@Uninit_mov@2
$LL3@Uninit_mov@2:

; 434  : 		_Dest_val(_Al, _Next);

  0003b	8b ce		 mov	 ecx, esi
  0003d	e8 00 00 00 00	 call	 ??1Box@BoxSpace@@QAE@XZ
  00042	83 c6 58	 add	 esi, 88			; 00000058H
$LN29@Uninit_mov@2:

; 432  : 	_CATCH_ALL
; 433  : 	for (; _Next != _Dest; ++_Next)

  00045	3b 75 10	 cmp	 esi, DWORD PTR __Dest$[ebp]
  00048	75 f1		 jne	 SHORT $LL3@Uninit_mov@2

; 435  : 	_RERAISE;

  0004a	6a 00		 push	 0
  0004c	6a 00		 push	 0
  0004e	e8 00 00 00 00	 call	 __CxxThrowException@8
$LN30@Uninit_mov@2:
$LN4@Uninit_mov@2:

; 436  : 	_CATCH_END
; 437  : 	return (_Dest);

  00053	8b 45 10	 mov	 eax, DWORD PTR __Dest$[ebp]

; 438  : 	}

  00056	e8 00 00 00 00	 call	 __EH_epilog3
  0005b	c3		 ret	 0
$LN28@Uninit_mov@2:
_TEXT	ENDS
;	COMDAT text$x
text$x	SEGMENT
__ehhandler$??$_Uninit_move@PAUBox@BoxSpace@@PAU12@V?$allocator@UBox@BoxSpace@@@std@@U12@@std@@YAPAUBox@BoxSpace@@PAU12@00AAV?$allocator@UBox@BoxSpace@@@0@0U_Nonscalar_ptr_iterator_tag@0@@Z:
  00000	8b 54 24 08	 mov	 edx, DWORD PTR [esp+8]
  00004	8d 42 0c	 lea	 eax, DWORD PTR [edx+12]
  00007	8b 4a e8	 mov	 ecx, DWORD PTR [edx-24]
  0000a	33 c8		 xor	 ecx, eax
  0000c	e8 00 00 00 00	 call	 @__security_check_cookie@4
  00011	b8 00 00 00 00	 mov	 eax, OFFSET __ehfuncinfo$??$_Uninit_move@PAUBox@BoxSpace@@PAU12@V?$allocator@UBox@BoxSpace@@@std@@U12@@std@@YAPAUBox@BoxSpace@@PAU12@00AAV?$allocator@UBox@BoxSpace@@@0@0U_Nonscalar_ptr_iterator_tag@0@@Z
  00016	e9 00 00 00 00	 jmp	 ___CxxFrameHandler3
text$x	ENDS
??$_Uninit_move@PAUBox@BoxSpace@@PAU12@V?$allocator@UBox@BoxSpace@@@std@@U12@@std@@YAPAUBox@BoxSpace@@PAU12@00AAV?$allocator@UBox@BoxSpace@@@0@0U_Nonscalar_ptr_iterator_tag@0@@Z ENDP ; std::_Uninit_move<BoxSpace::Box *,BoxSpace::Box *,std::allocator<BoxSpace::Box>,BoxSpace::Box>
PUBLIC	??$_Destroy_range@V?$allocator@UBox@BoxSpace@@@std@@@std@@YAXPAUBox@BoxSpace@@0AAV?$allocator@UBox@BoxSpace@@@0@U_Nonscalar_ptr_iterator_tag@0@@Z ; std::_Destroy_range<std::allocator<BoxSpace::Box> >
; Function compile flags: /Ogsp
; File c:\program files (x86)\microsoft visual studio 10.0\vc\include\xmemory
;	COMDAT ??$_Destroy_range@V?$allocator@UBox@BoxSpace@@@std@@@std@@YAXPAUBox@BoxSpace@@0AAV?$allocator@UBox@BoxSpace@@@0@U_Nonscalar_ptr_iterator_tag@0@@Z
_TEXT	SEGMENT
__First$ = 8						; size = 4
__Last$ = 12						; size = 4
__Al$ = 16						; size = 4
___formal$ = 20						; size = 1
??$_Destroy_range@V?$allocator@UBox@BoxSpace@@@std@@@std@@YAXPAUBox@BoxSpace@@0AAV?$allocator@UBox@BoxSpace@@@0@U_Nonscalar_ptr_iterator_tag@0@@Z PROC ; std::_Destroy_range<std::allocator<BoxSpace::Box> >, COMDAT

; 95   : 	{	// destroy [_First, _Last), arbitrary type

  00000	55		 push	 ebp
  00001	8b ec		 mov	 ebp, esp
  00003	56		 push	 esi

; 96   : 	for (; _First != _Last; ++_First)

  00004	8b 75 08	 mov	 esi, DWORD PTR __First$[ebp]
  00007	eb 0a		 jmp	 SHORT $LN17@Destroy_ra
$LL3@Destroy_ra:

; 97   : 		_Dest_val(_Al, _First);

  00009	8b ce		 mov	 ecx, esi
  0000b	e8 00 00 00 00	 call	 ??1Box@BoxSpace@@QAE@XZ
  00010	83 c6 58	 add	 esi, 88			; 00000058H
$LN17@Destroy_ra:

; 96   : 	for (; _First != _Last; ++_First)

  00013	3b 75 0c	 cmp	 esi, DWORD PTR __Last$[ebp]
  00016	75 f1		 jne	 SHORT $LL3@Destroy_ra
  00018	5e		 pop	 esi

; 98   : 	}

  00019	5d		 pop	 ebp
  0001a	c3		 ret	 0
??$_Destroy_range@V?$allocator@UBox@BoxSpace@@@std@@@std@@YAXPAUBox@BoxSpace@@0AAV?$allocator@UBox@BoxSpace@@@0@U_Nonscalar_ptr_iterator_tag@0@@Z ENDP ; std::_Destroy_range<std::allocator<BoxSpace::Box> >
_TEXT	ENDS
PUBLIC	??$_Uninitialized_move@PAUBox@BoxSpace@@PAU12@V?$allocator@UBox@BoxSpace@@@std@@@std@@YAPAUBox@BoxSpace@@PAU12@00AAV?$allocator@UBox@BoxSpace@@@0@@Z ; std::_Uninitialized_move<BoxSpace::Box *,BoxSpace::Box *,std::allocator<BoxSpace::Box> >
; Function compile flags: /Ogsp
; File c:\program files (x86)\microsoft visual studio 10.0\vc\include\memory
;	COMDAT ??$_Uninitialized_move@PAUBox@BoxSpace@@PAU12@V?$allocator@UBox@BoxSpace@@@std@@@std@@YAPAUBox@BoxSpace@@PAU12@00AAV?$allocator@UBox@BoxSpace@@@0@@Z
_TEXT	SEGMENT
__Cat$519767 = -4					; size = 1
__First$ = 8						; size = 4
__Last$ = 12						; size = 4
__Dest$ = 16						; size = 4
__Al$ = 20						; size = 4
??$_Uninitialized_move@PAUBox@BoxSpace@@PAU12@V?$allocator@UBox@BoxSpace@@@std@@@std@@YAPAUBox@BoxSpace@@PAU12@00AAV?$allocator@UBox@BoxSpace@@@0@@Z PROC ; std::_Uninitialized_move<BoxSpace::Box *,BoxSpace::Box *,std::allocator<BoxSpace::Box> >, COMDAT

; 469  : 	{	// move [_First, _Last) to raw _Dest, using _Al

  00000	55		 push	 ebp
  00001	8b ec		 mov	 ebp, esp
  00003	51		 push	 ecx

; 470  : 	return (_Uninit_move(_First, _Last, _Dest, _Al,
; 471  : 		_Val_type(_First), _Ptr_cat(_First, _Dest)));

  00004	ff 75 fc	 push	 DWORD PTR __Cat$519767[ebp]
  00007	6a 00		 push	 0
  00009	ff 75 14	 push	 DWORD PTR __Al$[ebp]
  0000c	ff 75 10	 push	 DWORD PTR __Dest$[ebp]
  0000f	ff 75 0c	 push	 DWORD PTR __Last$[ebp]
  00012	ff 75 08	 push	 DWORD PTR __First$[ebp]
  00015	e8 00 00 00 00	 call	 ??$_Uninit_move@PAUBox@BoxSpace@@PAU12@V?$allocator@UBox@BoxSpace@@@std@@U12@@std@@YAPAUBox@BoxSpace@@PAU12@00AAV?$allocator@UBox@BoxSpace@@@0@0U_Nonscalar_ptr_iterator_tag@0@@Z ; std::_Uninit_move<BoxSpace::Box *,BoxSpace::Box *,std::allocator<BoxSpace::Box>,BoxSpace::Box>
  0001a	83 c4 18	 add	 esp, 24			; 00000018H

; 472  : 	}

  0001d	c9		 leave
  0001e	c3		 ret	 0
??$_Uninitialized_move@PAUBox@BoxSpace@@PAU12@V?$allocator@UBox@BoxSpace@@@std@@@std@@YAPAUBox@BoxSpace@@PAU12@00AAV?$allocator@UBox@BoxSpace@@@0@@Z ENDP ; std::_Uninitialized_move<BoxSpace::Box *,BoxSpace::Box *,std::allocator<BoxSpace::Box> >
_TEXT	ENDS
PUBLIC	??$_Destroy_range@V?$allocator@UBox@BoxSpace@@@std@@@std@@YAXPAUBox@BoxSpace@@0AAV?$allocator@UBox@BoxSpace@@@0@@Z ; std::_Destroy_range<std::allocator<BoxSpace::Box> >
; Function compile flags: /Ogsp
; File c:\program files (x86)\microsoft visual studio 10.0\vc\include\xmemory
;	COMDAT ??$_Destroy_range@V?$allocator@UBox@BoxSpace@@@std@@@std@@YAXPAUBox@BoxSpace@@0AAV?$allocator@UBox@BoxSpace@@@0@@Z
_TEXT	SEGMENT
__First$ = 8						; size = 4
__Last$ = 12						; size = 4
__Al$ = 16						; size = 4
??$_Destroy_range@V?$allocator@UBox@BoxSpace@@@std@@@std@@YAXPAUBox@BoxSpace@@0AAV?$allocator@UBox@BoxSpace@@@0@@Z PROC ; std::_Destroy_range<std::allocator<BoxSpace::Box> >, COMDAT

; 87   : 	{	// destroy [_First, _Last)

  00000	55		 push	 ebp
  00001	8b ec		 mov	 ebp, esp
  00003	56		 push	 esi

; 88   : 	_Destroy_range(_First, _Last, _Al, _Ptr_cat(_First, _Last));

  00004	8b 75 08	 mov	 esi, DWORD PTR __First$[ebp]
  00007	eb 0a		 jmp	 SHORT $LN21@Destroy_ra@2
$LL7@Destroy_ra@2:
  00009	8b ce		 mov	 ecx, esi
  0000b	e8 00 00 00 00	 call	 ??1Box@BoxSpace@@QAE@XZ
  00010	83 c6 58	 add	 esi, 88			; 00000058H
$LN21@Destroy_ra@2:
  00013	3b 75 0c	 cmp	 esi, DWORD PTR __Last$[ebp]
  00016	75 f1		 jne	 SHORT $LL7@Destroy_ra@2
  00018	5e		 pop	 esi

; 89   : 	}

  00019	5d		 pop	 ebp
  0001a	c3		 ret	 0
??$_Destroy_range@V?$allocator@UBox@BoxSpace@@@std@@@std@@YAXPAUBox@BoxSpace@@0AAV?$allocator@UBox@BoxSpace@@@0@@Z ENDP ; std::_Destroy_range<std::allocator<BoxSpace::Box> >
_TEXT	ENDS
PUBLIC	??$_Umove@PAUBox@BoxSpace@@@?$vector@UBox@BoxSpace@@V?$allocator@UBox@BoxSpace@@@std@@@std@@IAEPAUBox@BoxSpace@@PAU23@00@Z ; std::vector<BoxSpace::Box,std::allocator<BoxSpace::Box> >::_Umove<BoxSpace::Box *>
; Function compile flags: /Ogsp
; File c:\program files (x86)\microsoft visual studio 10.0\vc\include\vector
;	COMDAT ??$_Umove@PAUBox@BoxSpace@@@?$vector@UBox@BoxSpace@@V?$allocator@UBox@BoxSpace@@@std@@@std@@IAEPAUBox@BoxSpace@@PAU23@00@Z
_TEXT	SEGMENT
__First$ = 8						; size = 4
__Last$ = 12						; size = 4
__Ptr$ = 16						; size = 4
??$_Umove@PAUBox@BoxSpace@@@?$vector@UBox@BoxSpace@@V?$allocator@UBox@BoxSpace@@@std@@@std@@IAEPAUBox@BoxSpace@@PAU23@00@Z PROC ; std::vector<BoxSpace::Box,std::allocator<BoxSpace::Box> >::_Umove<BoxSpace::Box *>, COMDAT
; _this$ = ecx

; 1322 : 		pointer _Umove(_Iter _First, _Iter _Last, pointer _Ptr)

  00000	55		 push	 ebp
  00001	8b ec		 mov	 ebp, esp

; 1323 : 		{	// move initializing [_First, _Last), using allocator
; 1324 : 		return (_Uninitialized_move(_First, _Last,
; 1325 : 			_Ptr, this->_Alval));

  00003	83 c1 0c	 add	 ecx, 12			; 0000000cH
  00006	51		 push	 ecx
  00007	ff 75 10	 push	 DWORD PTR __Ptr$[ebp]
  0000a	ff 75 0c	 push	 DWORD PTR __Last$[ebp]
  0000d	ff 75 08	 push	 DWORD PTR __First$[ebp]
  00010	e8 00 00 00 00	 call	 ??$_Uninitialized_move@PAUBox@BoxSpace@@PAU12@V?$allocator@UBox@BoxSpace@@@std@@@std@@YAPAUBox@BoxSpace@@PAU12@00AAV?$allocator@UBox@BoxSpace@@@0@@Z ; std::_Uninitialized_move<BoxSpace::Box *,BoxSpace::Box *,std::allocator<BoxSpace::Box> >
  00015	83 c4 10	 add	 esp, 16			; 00000010H

; 1326 : 		}

  00018	5d		 pop	 ebp
  00019	c2 0c 00	 ret	 12			; 0000000cH
??$_Umove@PAUBox@BoxSpace@@@?$vector@UBox@BoxSpace@@V?$allocator@UBox@BoxSpace@@@std@@@std@@IAEPAUBox@BoxSpace@@PAU23@00@Z ENDP ; std::vector<BoxSpace::Box,std::allocator<BoxSpace::Box> >::_Umove<BoxSpace::Box *>
_TEXT	ENDS
PUBLIC	?_Destroy@?$vector@UBox@BoxSpace@@V?$allocator@UBox@BoxSpace@@@std@@@std@@IAEXPAUBox@BoxSpace@@0@Z ; std::vector<BoxSpace::Box,std::allocator<BoxSpace::Box> >::_Destroy
; Function compile flags: /Ogsp
;	COMDAT ?_Destroy@?$vector@UBox@BoxSpace@@V?$allocator@UBox@BoxSpace@@@std@@@std@@IAEXPAUBox@BoxSpace@@0@Z
_TEXT	SEGMENT
__First$ = 8						; size = 4
__Last$ = 12						; size = 4
?_Destroy@?$vector@UBox@BoxSpace@@V?$allocator@UBox@BoxSpace@@@std@@@std@@IAEXPAUBox@BoxSpace@@0@Z PROC ; std::vector<BoxSpace::Box,std::allocator<BoxSpace::Box> >::_Destroy, COMDAT
; _this$ = ecx

; 1269 : 		{	// destroy [_First, _Last) using allocator

  00000	55		 push	 ebp
  00001	8b ec		 mov	 ebp, esp
  00003	56		 push	 esi

; 1270 : 		_Destroy_range(_First, _Last, this->_Alval);

  00004	8b 75 08	 mov	 esi, DWORD PTR __First$[ebp]
  00007	eb 0a		 jmp	 SHORT $LN23@Destroy
$LL9@Destroy:
  00009	8b ce		 mov	 ecx, esi
  0000b	e8 00 00 00 00	 call	 ??1Box@BoxSpace@@QAE@XZ
  00010	83 c6 58	 add	 esi, 88			; 00000058H
$LN23@Destroy:
  00013	3b 75 0c	 cmp	 esi, DWORD PTR __Last$[ebp]
  00016	75 f1		 jne	 SHORT $LL9@Destroy
  00018	5e		 pop	 esi

; 1271 : 		}

  00019	5d		 pop	 ebp
  0001a	c2 08 00	 ret	 8
?_Destroy@?$vector@UBox@BoxSpace@@V?$allocator@UBox@BoxSpace@@@std@@@std@@IAEXPAUBox@BoxSpace@@0@Z ENDP ; std::vector<BoxSpace::Box,std::allocator<BoxSpace::Box> >::_Destroy
_TEXT	ENDS
PUBLIC	?reserve@?$vector@UBox@BoxSpace@@V?$allocator@UBox@BoxSpace@@@std@@@std@@QAEXI@Z ; std::vector<BoxSpace::Box,std::allocator<BoxSpace::Box> >::reserve
;	COMDAT xdata$x
; File c:\program files (x86)\microsoft visual studio 10.0\vc\include\xmemory
xdata$x	SEGMENT
__catchsym$?reserve@?$vector@UBox@BoxSpace@@V?$allocator@UBox@BoxSpace@@@std@@@std@@QAEXI@Z$2 DD 040H
	DD	00H
	DD	00H
	DD	FLAT:__catch$?reserve@?$vector@UBox@BoxSpace@@V?$allocator@UBox@BoxSpace@@@std@@@std@@QAEXI@Z$0
__unwindtable$?reserve@?$vector@UBox@BoxSpace@@V?$allocator@UBox@BoxSpace@@@std@@@std@@QAEXI@Z DD 0ffffffffH
	DD	00H
	DD	0ffffffffH
	DD	00H
__tryblocktable$?reserve@?$vector@UBox@BoxSpace@@V?$allocator@UBox@BoxSpace@@@std@@@std@@QAEXI@Z DD 00H
	DD	00H
	DD	01H
	DD	01H
	DD	FLAT:__catchsym$?reserve@?$vector@UBox@BoxSpace@@V?$allocator@UBox@BoxSpace@@@std@@@std@@QAEXI@Z$2
__ehfuncinfo$?reserve@?$vector@UBox@BoxSpace@@V?$allocator@UBox@BoxSpace@@@std@@@std@@QAEXI@Z DD 019930522H
	DD	02H
	DD	FLAT:__unwindtable$?reserve@?$vector@UBox@BoxSpace@@V?$allocator@UBox@BoxSpace@@@std@@@std@@QAEXI@Z
	DD	01H
	DD	FLAT:__tryblocktable$?reserve@?$vector@UBox@BoxSpace@@V?$allocator@UBox@BoxSpace@@@std@@@std@@QAEXI@Z
	DD	2 DUP(00H)
	DD	00H
	DD	01H
; Function compile flags: /Ogsp
; File c:\program files (x86)\microsoft visual studio 10.0\vc\include\vector
xdata$x	ENDS
;	COMDAT ?reserve@?$vector@UBox@BoxSpace@@V?$allocator@UBox@BoxSpace@@@std@@@std@@QAEXI@Z
_TEXT	SEGMENT
__Ptr$506285 = -24					; size = 4
$T519995 = -20						; size = 4
__$EHRec$ = -16						; size = 16
__Count$ = 8						; size = 4
?reserve@?$vector@UBox@BoxSpace@@V?$allocator@UBox@BoxSpace@@@std@@@std@@QAEXI@Z PROC ; std::vector<BoxSpace::Box,std::allocator<BoxSpace::Box> >::reserve, COMDAT
; _this$ = ecx

; 746  : 		{	// determine new minimum length of allocated storage

  00000	6a 0c		 push	 12			; 0000000cH
  00002	b8 00 00 00 00	 mov	 eax, __ehhandler$?reserve@?$vector@UBox@BoxSpace@@V?$allocator@UBox@BoxSpace@@@std@@@std@@QAEXI@Z
  00007	e8 00 00 00 00	 call	 __EH_prolog3_catch
  0000c	8b f1		 mov	 esi, ecx

; 747  : 		if (max_size() < _Count)

  0000e	81 7d 08 2e ba
	e8 02		 cmp	 DWORD PTR __Count$[ebp], 48806446 ; 02e8ba2eH
  00015	76 0b		 jbe	 SHORT $LN5@reserve@6

; 748  : 			_Xlen();	// result too long

  00017	68 00 00 00 00	 push	 OFFSET ??_C@_0BD@OLBABOEK@vector?$DMT?$DO?5too?5long?$AA@
  0001c	ff 15 00 00 00
	00		 call	 DWORD PTR __imp_?_Xlength_error@std@@YAXPBD@Z
$LN59@reserve@6:
$LN5@reserve@6:

; 749  : 		else if (capacity() < _Count)

  00022	8b 46 08	 mov	 eax, DWORD PTR [esi+8]
  00025	2b 06		 sub	 eax, DWORD PTR [esi]
  00027	6a 58		 push	 88			; 00000058H
  00029	99		 cdq
  0002a	59		 pop	 ecx
  0002b	f7 f9		 idiv	 ecx
  0002d	3b 45 08	 cmp	 eax, DWORD PTR __Count$[ebp]
  00030	0f 83 80 00 00
	00		 jae	 $LN3@reserve@6

; 750  : 			{	// not enough room, reallocate
; 751  : 			pointer _Ptr = this->_Alval.allocate(_Count);

  00036	6a 00		 push	 0
  00038	ff 75 08	 push	 DWORD PTR __Count$[ebp]
  0003b	e8 00 00 00 00	 call	 ??$_Allocate@UBox@BoxSpace@@@std@@YAPAUBox@BoxSpace@@IPAU12@@Z ; std::_Allocate<BoxSpace::Box>

; 752  : 
; 753  : 			_TRY_BEGIN
; 754  : 			_Umove(this->_Myfirst, this->_Mylast, _Ptr);

  00040	8b 0e		 mov	 ecx, DWORD PTR [esi]
  00042	83 65 fc 00	 and	 DWORD PTR __$EHRec$[ebp+12], 0
  00046	8d 56 0c	 lea	 edx, DWORD PTR [esi+12]
  00049	52		 push	 edx
  0004a	89 45 e8	 mov	 DWORD PTR __Ptr$506285[ebp], eax
  0004d	ff 75 e8	 push	 DWORD PTR __Ptr$506285[ebp]
  00050	8b 46 04	 mov	 eax, DWORD PTR [esi+4]
  00053	50		 push	 eax
  00054	51		 push	 ecx
  00055	e8 00 00 00 00	 call	 ??$_Uninitialized_move@PAUBox@BoxSpace@@PAU12@V?$allocator@UBox@BoxSpace@@@std@@@std@@YAPAUBox@BoxSpace@@PAU12@00AAV?$allocator@UBox@BoxSpace@@@0@@Z ; std::_Uninitialized_move<BoxSpace::Box *,BoxSpace::Box *,std::allocator<BoxSpace::Box> >

; 758  : 			_CATCH_END
; 759  : 
; 760  : 			size_type _Size = size();

  0005a	8b 5e 04	 mov	 ebx, DWORD PTR [esi+4]
  0005d	8b 0e		 mov	 ecx, DWORD PTR [esi]
  0005f	83 c4 18	 add	 esp, 24			; 00000018H
  00062	8b c3		 mov	 eax, ebx
  00064	2b c1		 sub	 eax, ecx
  00066	6a 58		 push	 88			; 00000058H
  00068	99		 cdq
  00069	5f		 pop	 edi
  0006a	f7 ff		 idiv	 edi
  0006c	83 4d fc ff	 or	 DWORD PTR __$EHRec$[ebp+12], -1
  00070	8b f8		 mov	 edi, eax
  00072	85 c9		 test	 ecx, ecx
  00074	74 20		 je	 SHORT $LN51@reserve@6

; 761  : 			if (this->_Myfirst != 0)
; 762  : 				{	// destroy and deallocate old array
; 763  : 				_Destroy(this->_Myfirst, this->_Mylast);

  00076	89 4d ec	 mov	 DWORD PTR $T519995[ebp], ecx
  00079	3b cb		 cmp	 ecx, ebx
  0007b	74 11		 je	 SHORT $LN37@reserve@6
$LN39@reserve@6:
  0007d	8b 4d ec	 mov	 ecx, DWORD PTR $T519995[ebp]
  00080	e8 00 00 00 00	 call	 ??1Box@BoxSpace@@QAE@XZ
  00085	83 45 ec 58	 add	 DWORD PTR $T519995[ebp], 88 ; 00000058H
  00089	39 5d ec	 cmp	 DWORD PTR $T519995[ebp], ebx
  0008c	75 ef		 jne	 SHORT $LN39@reserve@6
$LN37@reserve@6:

; 764  : 				this->_Alval.deallocate(this->_Myfirst,
; 765  : 					this->_Myend - this->_Myfirst);

  0008e	ff 36		 push	 DWORD PTR [esi]
  00090	e8 00 00 00 00	 call	 ??3@YAXPAX@Z		; operator delete
  00095	59		 pop	 ecx
$LN51@reserve@6:

; 766  : 				}
; 767  : 
; 768  : 			this->_Orphan_all();

  00096	8b ce		 mov	 ecx, esi
  00098	ff 15 00 00 00
	00		 call	 DWORD PTR __imp_?_Orphan_all@_Container_base0@std@@QAEXXZ

; 769  : 			this->_Myend = _Ptr + _Count;
; 770  : 			this->_Mylast = _Ptr + _Size;

  0009e	6b ff 58	 imul	 edi, 88			; 00000058H
  000a1	8b 45 08	 mov	 eax, DWORD PTR __Count$[ebp]
  000a4	8b 4d e8	 mov	 ecx, DWORD PTR __Ptr$506285[ebp]
  000a7	6b c0 58	 imul	 eax, 88			; 00000058H
  000aa	03 c1		 add	 eax, ecx
  000ac	03 f9		 add	 edi, ecx
  000ae	89 46 08	 mov	 DWORD PTR [esi+8], eax
  000b1	89 7e 04	 mov	 DWORD PTR [esi+4], edi

; 771  : 			this->_Myfirst = _Ptr;

  000b4	89 0e		 mov	 DWORD PTR [esi], ecx
$LN3@reserve@6:

; 772  : 			}
; 773  : 		}

  000b6	e8 00 00 00 00	 call	 __EH_epilog3
  000bb	c2 04 00	 ret	 4
__catch$?reserve@?$vector@UBox@BoxSpace@@V?$allocator@UBox@BoxSpace@@@std@@@std@@QAEXI@Z$0:

; 755  : 			_CATCH_ALL
; 756  : 			this->_Alval.deallocate(_Ptr, _Count);

  000be	ff 75 e8	 push	 DWORD PTR __Ptr$506285[ebp]
  000c1	e8 00 00 00 00	 call	 ??3@YAXPAX@Z		; operator delete
  000c6	59		 pop	 ecx

; 757  : 			_RERAISE;

  000c7	6a 00		 push	 0
  000c9	6a 00		 push	 0
  000cb	e8 00 00 00 00	 call	 __CxxThrowException@8
$LN60@reserve@6:
$LN58@reserve@6:
  000d0	cc		 int	 3
_TEXT	ENDS
;	COMDAT text$x
text$x	SEGMENT
__ehhandler$?reserve@?$vector@UBox@BoxSpace@@V?$allocator@UBox@BoxSpace@@@std@@@std@@QAEXI@Z:
  00000	8b 54 24 08	 mov	 edx, DWORD PTR [esp+8]
  00004	8d 42 0c	 lea	 eax, DWORD PTR [edx+12]
  00007	8b 4a e4	 mov	 ecx, DWORD PTR [edx-28]
  0000a	33 c8		 xor	 ecx, eax
  0000c	e8 00 00 00 00	 call	 @__security_check_cookie@4
  00011	b8 00 00 00 00	 mov	 eax, OFFSET __ehfuncinfo$?reserve@?$vector@UBox@BoxSpace@@V?$allocator@UBox@BoxSpace@@@std@@@std@@QAEXI@Z
  00016	e9 00 00 00 00	 jmp	 ___CxxFrameHandler3
text$x	ENDS
?reserve@?$vector@UBox@BoxSpace@@V?$allocator@UBox@BoxSpace@@@std@@@std@@QAEXI@Z ENDP ; std::vector<BoxSpace::Box,std::allocator<BoxSpace::Box> >::reserve
PUBLIC	?_Reserve@?$vector@UBox@BoxSpace@@V?$allocator@UBox@BoxSpace@@@std@@@std@@IAEXI@Z ; std::vector<BoxSpace::Box,std::allocator<BoxSpace::Box> >::_Reserve
; Function compile flags: /Ogsp
;	COMDAT ?_Reserve@?$vector@UBox@BoxSpace@@V?$allocator@UBox@BoxSpace@@@std@@@std@@IAEXI@Z
_TEXT	SEGMENT
__Count$ = 8						; size = 4
?_Reserve@?$vector@UBox@BoxSpace@@V?$allocator@UBox@BoxSpace@@@std@@@std@@IAEXI@Z PROC ; std::vector<BoxSpace::Box,std::allocator<BoxSpace::Box> >::_Reserve, COMDAT
; _this$ = ecx

; 1290 : 		{	// ensure room for _Count new elements, grow exponentially

  00000	55		 push	 ebp
  00001	8b ec		 mov	 ebp, esp
  00003	56		 push	 esi
  00004	8b f1		 mov	 esi, ecx

; 1291 : 		size_type _Size = size();

  00006	8b 0e		 mov	 ecx, DWORD PTR [esi]
  00008	8b 46 04	 mov	 eax, DWORD PTR [esi+4]
  0000b	2b c1		 sub	 eax, ecx
  0000d	57		 push	 edi
  0000e	99		 cdq
  0000f	6a 58		 push	 88			; 00000058H
  00011	5f		 pop	 edi
  00012	f7 ff		 idiv	 edi
  00014	8b f8		 mov	 edi, eax

; 1292 : 		if (max_size() - _Count < _Size)

  00016	b8 2e ba e8 02	 mov	 eax, 48806446		; 02e8ba2eH
  0001b	2b 45 08	 sub	 eax, DWORD PTR __Count$[ebp]
  0001e	3b c7		 cmp	 eax, edi
  00020	73 0b		 jae	 SHORT $LN4@Reserve@6

; 1293 : 			_Xlen();

  00022	68 00 00 00 00	 push	 OFFSET ??_C@_0BD@OLBABOEK@vector?$DMT?$DO?5too?5long?$AA@
  00027	ff 15 00 00 00
	00		 call	 DWORD PTR __imp_?_Xlength_error@std@@YAXPBD@Z
$LN21@Reserve@6:
$LN4@Reserve@6:

; 1294 : 		else if ((_Size += _Count) <= capacity())

  0002d	8b 46 08	 mov	 eax, DWORD PTR [esi+8]
  00030	2b c1		 sub	 eax, ecx
  00032	6a 58		 push	 88			; 00000058H
  00034	99		 cdq
  00035	59		 pop	 ecx
  00036	f7 f9		 idiv	 ecx
  00038	03 7d 08	 add	 edi, DWORD PTR __Count$[ebp]
  0003b	3b f8		 cmp	 edi, eax
  0003d	76 10		 jbe	 SHORT $LN1@Reserve@6

; 1295 : 			;
; 1296 : 		else
; 1297 : 			reserve(_Grow_to(_Size));

  0003f	57		 push	 edi
  00040	8b ce		 mov	 ecx, esi
  00042	e8 00 00 00 00	 call	 ?_Grow_to@?$vector@UBox@BoxSpace@@V?$allocator@UBox@BoxSpace@@@std@@@std@@IBEII@Z ; std::vector<BoxSpace::Box,std::allocator<BoxSpace::Box> >::_Grow_to
  00047	50		 push	 eax
  00048	8b ce		 mov	 ecx, esi
  0004a	e8 00 00 00 00	 call	 ?reserve@?$vector@UBox@BoxSpace@@V?$allocator@UBox@BoxSpace@@@std@@@std@@QAEXI@Z ; std::vector<BoxSpace::Box,std::allocator<BoxSpace::Box> >::reserve
$LN1@Reserve@6:
  0004f	5f		 pop	 edi
  00050	5e		 pop	 esi

; 1298 : 		}

  00051	5d		 pop	 ebp
  00052	c2 04 00	 ret	 4
$LN20@Reserve@6:
?_Reserve@?$vector@UBox@BoxSpace@@V?$allocator@UBox@BoxSpace@@@std@@@std@@IAEXI@Z ENDP ; std::vector<BoxSpace::Box,std::allocator<BoxSpace::Box> >::_Reserve
_TEXT	ENDS
PUBLIC	?push_back@?$vector@UBox@BoxSpace@@V?$allocator@UBox@BoxSpace@@@std@@@std@@QAEXABUBox@BoxSpace@@@Z ; std::vector<BoxSpace::Box,std::allocator<BoxSpace::Box> >::push_back
; Function compile flags: /Ogsp
;	COMDAT ?push_back@?$vector@UBox@BoxSpace@@V?$allocator@UBox@BoxSpace@@@std@@@std@@QAEXABUBox@BoxSpace@@@Z
_TEXT	SEGMENT
__Val$ = 8						; size = 4
?push_back@?$vector@UBox@BoxSpace@@V?$allocator@UBox@BoxSpace@@@std@@@std@@QAEXABUBox@BoxSpace@@@Z PROC ; std::vector<BoxSpace::Box,std::allocator<BoxSpace::Box> >::push_back, COMDAT
; _this$ = ecx

; 976  : 		{	// insert element at end

  00000	55		 push	 ebp
  00001	8b ec		 mov	 ebp, esp
  00003	56		 push	 esi
  00004	8b f1		 mov	 esi, ecx

; 977  : 		if (_Inside(_STD addressof(_Val)))

  00006	8b 4e 04	 mov	 ecx, DWORD PTR [esi+4]
  00009	57		 push	 edi
  0000a	8b 7d 08	 mov	 edi, DWORD PTR __Val$[ebp]
  0000d	3b f9		 cmp	 edi, ecx
  0000f	73 37		 jae	 SHORT $LN4@push_back@7
  00011	8b 16		 mov	 edx, DWORD PTR [esi]
  00013	3b d7		 cmp	 edx, edi
  00015	77 31		 ja	 SHORT $LN4@push_back@7

; 978  : 			{	// push back an element
; 979  : 			size_type _Idx = _STD addressof(_Val) - this->_Myfirst;

  00017	8b c7		 mov	 eax, edi
  00019	2b c2		 sub	 eax, edx
  0001b	6a 58		 push	 88			; 00000058H
  0001d	99		 cdq
  0001e	5f		 pop	 edi
  0001f	f7 ff		 idiv	 edi
  00021	8b f8		 mov	 edi, eax

; 980  : 			if (this->_Mylast == this->_Myend)

  00023	3b 4e 08	 cmp	 ecx, DWORD PTR [esi+8]
  00026	75 09		 jne	 SHORT $LN3@push_back@7

; 981  : 				_Reserve(1);

  00028	6a 01		 push	 1
  0002a	8b ce		 mov	 ecx, esi
  0002c	e8 00 00 00 00	 call	 ?_Reserve@?$vector@UBox@BoxSpace@@V?$allocator@UBox@BoxSpace@@@std@@@std@@IAEXI@Z ; std::vector<BoxSpace::Box,std::allocator<BoxSpace::Box> >::_Reserve
$LN3@push_back@7:

; 982  : 			_Orphan_range(this->_Mylast, this->_Mylast);
; 983  : 			_Cons_val(this->_Alval,
; 984  : 				this->_Mylast,
; 985  : 				this->_Myfirst[_Idx]);

  00031	6b ff 58	 imul	 edi, 88			; 00000058H
  00034	03 3e		 add	 edi, DWORD PTR [esi]
  00036	8d 46 0c	 lea	 eax, DWORD PTR [esi+12]
  00039	57		 push	 edi
  0003a	ff 76 04	 push	 DWORD PTR [esi+4]
  0003d	50		 push	 eax
  0003e	e8 00 00 00 00	 call	 ??$_Cons_val@V?$allocator@UBox@BoxSpace@@@std@@UBox@BoxSpace@@AAU34@@std@@YAXAAV?$allocator@UBox@BoxSpace@@@0@PAUBox@BoxSpace@@AAU23@@Z ; std::_Cons_val<std::allocator<BoxSpace::Box>,BoxSpace::Box,BoxSpace::Box &>
  00043	83 c4 0c	 add	 esp, 12			; 0000000cH

; 986  : 			++this->_Mylast;
; 987  : 			}
; 988  : 		else

  00046	eb 19		 jmp	 SHORT $LN26@push_back@7
$LN4@push_back@7:

; 989  : 			{	// push back a non-element
; 990  : 			if (this->_Mylast == this->_Myend)

  00048	3b 4e 08	 cmp	 ecx, DWORD PTR [esi+8]
  0004b	75 09		 jne	 SHORT $LN1@push_back@7

; 991  : 				_Reserve(1);

  0004d	6a 01		 push	 1
  0004f	8b ce		 mov	 ecx, esi
  00051	e8 00 00 00 00	 call	 ?_Reserve@?$vector@UBox@BoxSpace@@V?$allocator@UBox@BoxSpace@@@std@@@std@@IAEXI@Z ; std::vector<BoxSpace::Box,std::allocator<BoxSpace::Box> >::_Reserve
$LN1@push_back@7:

; 992  : 			_Orphan_range(this->_Mylast, this->_Mylast);
; 993  : 			_Cons_val(this->_Alval,
; 994  : 				this->_Mylast,
; 995  : 				_Val);

  00056	57		 push	 edi
  00057	ff 76 04	 push	 DWORD PTR [esi+4]
  0005a	e8 00 00 00 00	 call	 ??$_Construct@UBox@BoxSpace@@ABU12@@std@@YAXPAUBox@BoxSpace@@ABU12@@Z ; std::_Construct<BoxSpace::Box,BoxSpace::Box const &>
  0005f	59		 pop	 ecx
  00060	59		 pop	 ecx
$LN26@push_back@7:

; 996  : 			++this->_Mylast;

  00061	83 46 04 58	 add	 DWORD PTR [esi+4], 88	; 00000058H
  00065	5f		 pop	 edi
  00066	5e		 pop	 esi

; 997  : 			}
; 998  : 		}

  00067	5d		 pop	 ebp
  00068	c2 04 00	 ret	 4
?push_back@?$vector@UBox@BoxSpace@@V?$allocator@UBox@BoxSpace@@@std@@@std@@QAEXABUBox@BoxSpace@@@Z ENDP ; std::vector<BoxSpace::Box,std::allocator<BoxSpace::Box> >::push_back
_TEXT	ENDS
PUBLIC	_posMax$GSCopy$
PUBLIC	_this$GSCopy$
PUBLIC	?addBox@BoxSpace@@QAEHPBDABUD3DXVECTOR3@@1@Z	; BoxSpace::addBox
EXTRN	__EH_epilog3_GS:PROC
EXTRN	__EH_prolog3_GS:PROC
;	COMDAT xdata$x
xdata$x	SEGMENT
__unwindtable$?addBox@BoxSpace@@QAEHPBDABUD3DXVECTOR3@@1@Z DD 0ffffffffH
	DD	FLAT:__unwindfunclet$?addBox@BoxSpace@@QAEHPBDABUD3DXVECTOR3@@1@Z$0
	DD	00H
	DD	FLAT:__unwindfunclet$?addBox@BoxSpace@@QAEHPBDABUD3DXVECTOR3@@1@Z$1
__ehfuncinfo$?addBox@BoxSpace@@QAEHPBDABUD3DXVECTOR3@@1@Z DD 019930522H
	DD	02H
	DD	FLAT:__unwindtable$?addBox@BoxSpace@@QAEHPBDABUD3DXVECTOR3@@1@Z
	DD	2 DUP(00H)
	DD	2 DUP(00H)
	DD	00H
	DD	01H
; Function compile flags: /Ogsp
; File d:\lost saga for developer\youtube\tutorial\source\src\lsclient\boxgraph.cpp
xdata$x	ENDS
;	COMDAT ?addBox@BoxSpace@@QAEHPBDABUD3DXVECTOR3@@1@Z
_TEXT	SEGMENT
_this$GSCopy$ = -140					; size = 4
tv569 = -136						; size = 4
tv565 = -136						; size = 4
tv561 = -136						; size = 4
tv552 = -136						; size = 4
tv548 = -136						; size = 4
tv544 = -136						; size = 4
tv536 = -136						; size = 4
tv532 = -136						; size = 4
tv528 = -136						; size = 4
_posMax$GSCopy$ = -136					; size = 4
$T505378 = -132						; size = 28
_newBox$ = -104						; size = 88
__$EHRec$ = -12						; size = 12
_pName$ = 8						; size = 4
_posMin$ = 12						; size = 4
_posMax$ = 16						; size = 4
?addBox@BoxSpace@@QAEHPBDABUD3DXVECTOR3@@1@Z PROC	; BoxSpace::addBox, COMDAT
; _this$ = ecx

; 208  : {

  00000	68 80 00 00 00	 push	 128			; 00000080H
  00005	b8 00 00 00 00	 mov	 eax, __ehhandler$?addBox@BoxSpace@@QAEHPBDABUD3DXVECTOR3@@1@Z
  0000a	e8 00 00 00 00	 call	 __EH_prolog3_GS
  0000f	8b 55 10	 mov	 edx, DWORD PTR _posMax$[ebp]
  00012	8b 5d 0c	 mov	 ebx, DWORD PTR _posMin$[ebp]
  00015	8b c1		 mov	 eax, ecx

; 209  : 	if ( m_bFixed )

  00017	80 78 50 00	 cmp	 BYTE PTR [eax+80], 0
  0001b	8b 4d 08	 mov	 ecx, DWORD PTR _pName$[ebp]

; 211  : 
; 212  : 	Box newBox;

  0001e	89 85 74 ff ff
	ff		 mov	 DWORD PTR _this$GSCopy$[ebp], eax
  00024	89 95 78 ff ff
	ff		 mov	 DWORD PTR _posMax$GSCopy$[ebp], edx
  0002a	74 08		 je	 SHORT $LN1@addBox

; 210  : 		return -1;

  0002c	83 c8 ff	 or	 eax, -1
  0002f	e9 89 01 00 00	 jmp	 $LN2@addBox
$LN1@addBox:

; 211  : 
; 212  : 	Box newBox;

  00034	33 f6		 xor	 esi, esi
  00036	6a 0f		 push	 15			; 0000000fH
  00038	58		 pop	 eax
  00039	89 45 ac	 mov	 DWORD PTR _newBox$[ebp+20], eax
  0003c	89 75 a8	 mov	 DWORD PTR _newBox$[ebp+16], esi
  0003f	c6 45 98 00	 mov	 BYTE PTR _newBox$[ebp], 0
  00043	89 75 cc	 mov	 DWORD PTR _newBox$[ebp+52], esi
  00046	89 75 d0	 mov	 DWORD PTR _newBox$[ebp+56], esi
  00049	89 75 d4	 mov	 DWORD PTR _newBox$[ebp+60], esi

; 213  : 	newBox.name = std::string( pName );

  0004c	51		 push	 ecx
  0004d	8d 8d 7c ff ff
	ff		 lea	 ecx, DWORD PTR $T505378[ebp]
  00053	89 75 fc	 mov	 DWORD PTR __$EHRec$[ebp+8], esi
  00056	89 45 90	 mov	 DWORD PTR $T505378[ebp+20], eax
  00059	89 75 8c	 mov	 DWORD PTR $T505378[ebp+16], esi
  0005c	c6 85 7c ff ff
	ff 00		 mov	 BYTE PTR $T505378[ebp], 0
  00063	e8 00 00 00 00	 call	 ?assign@?$basic_string@DU?$char_traits@D@std@@V?$allocator@D@2@@std@@QAEAAV12@PBD@Z ; std::basic_string<char,std::char_traits<char>,std::allocator<char> >::assign
  00068	8d 85 7c ff ff
	ff		 lea	 eax, DWORD PTR $T505378[ebp]
  0006e	50		 push	 eax
  0006f	8d 4d 98	 lea	 ecx, DWORD PTR _newBox$[ebp]
  00072	c6 45 fc 01	 mov	 BYTE PTR __$EHRec$[ebp+8], 1
  00076	e8 00 00 00 00	 call	 ?assign@?$basic_string@DU?$char_traits@D@std@@V?$allocator@D@2@@std@@QAEAAV12@$$QAV12@@Z ; std::basic_string<char,std::char_traits<char>,std::allocator<char> >::assign
  0007b	56		 push	 esi
  0007c	6a 01		 push	 1
  0007e	8d 8d 7c ff ff
	ff		 lea	 ecx, DWORD PTR $T505378[ebp]
  00084	c6 45 fc 00	 mov	 BYTE PTR __$EHRec$[ebp+8], 0
  00088	e8 00 00 00 00	 call	 ?_Tidy@?$basic_string@DU?$char_traits@D@std@@V?$allocator@D@2@@std@@QAEX_NI@Z ; std::basic_string<char,std::char_traits<char>,std::allocator<char> >::_Tidy

; 214  : 	newBox.posMin = posMin;
; 215  : 	newBox.posMax = posMax;

  0008d	8b 8d 78 ff ff
	ff		 mov	 ecx, DWORD PTR _posMax$GSCopy$[ebp]
  00093	8b f3		 mov	 esi, ebx
  00095	8d 7d b4	 lea	 edi, DWORD PTR _newBox$[ebp+28]
  00098	a5		 movsd
  00099	a5		 movsd
  0009a	a5		 movsd
  0009b	8b f1		 mov	 esi, ecx
  0009d	8d 7d c0	 lea	 edi, DWORD PTR _newBox$[ebp+40]
  000a0	a5		 movsd
  000a1	a5		 movsd
  000a2	a5		 movsd

; 216  : 	// /2를 FLOAT05로 변경
; 217  : 	newBox.posCenter.x = (posMin.x + posMax.x) * FLOAT05;

  000a3	b8 05 00 00 00	 mov	 eax, 5
  000a8	8b d0		 mov	 edx, eax
  000aa	b8 0a 00 00 00	 mov	 eax, 10			; 0000000aH
  000af	89 95 78 ff ff
	ff		 mov	 DWORD PTR tv569[ebp], edx
  000b5	db 85 78 ff ff
	ff		 fild	 DWORD PTR tv569[ebp]
  000bb	85 d2		 test	 edx, edx
  000bd	79 06		 jns	 SHORT $LN97@addBox
  000bf	d8 05 00 00 00
	00		 fadd	 DWORD PTR __real@4f800000
$LN97@addBox:
  000c5	89 85 78 ff ff
	ff		 mov	 DWORD PTR tv565[ebp], eax
  000cb	db 85 78 ff ff
	ff		 fild	 DWORD PTR tv565[ebp]
  000d1	85 c0		 test	 eax, eax
  000d3	79 06		 jns	 SHORT $LN98@addBox
  000d5	d8 05 00 00 00
	00		 fadd	 DWORD PTR __real@4f800000
$LN98@addBox:
  000db	de f9		 fdivp	 ST(1), ST(0)
  000dd	d9 9d 78 ff ff
	ff		 fstp	 DWORD PTR tv561[ebp]
  000e3	d9 85 78 ff ff
	ff		 fld	 DWORD PTR tv561[ebp]
  000e9	d9 01		 fld	 DWORD PTR [ecx]
  000eb	d8 03		 fadd	 DWORD PTR [ebx]
  000ed	de c9		 fmulp	 ST(1), ST(0)
  000ef	d9 5d e0	 fstp	 DWORD PTR _newBox$[ebp+72]

; 218  : 	newBox.posCenter.y = (posMin.y + posMax.y) * FLOAT05;

  000f2	b8 05 00 00 00	 mov	 eax, 5
  000f7	8b d0		 mov	 edx, eax
  000f9	b8 0a 00 00 00	 mov	 eax, 10			; 0000000aH
  000fe	d9 41 04	 fld	 DWORD PTR [ecx+4]
  00101	d8 43 04	 fadd	 DWORD PTR [ebx+4]
  00104	89 95 78 ff ff
	ff		 mov	 DWORD PTR tv552[ebp], edx
  0010a	db 85 78 ff ff
	ff		 fild	 DWORD PTR tv552[ebp]
  00110	85 d2		 test	 edx, edx
  00112	79 06		 jns	 SHORT $LN99@addBox
  00114	d8 05 00 00 00
	00		 fadd	 DWORD PTR __real@4f800000
$LN99@addBox:
  0011a	89 85 78 ff ff
	ff		 mov	 DWORD PTR tv548[ebp], eax
  00120	db 85 78 ff ff
	ff		 fild	 DWORD PTR tv548[ebp]
  00126	85 c0		 test	 eax, eax
  00128	79 06		 jns	 SHORT $LN100@addBox
  0012a	d8 05 00 00 00
	00		 fadd	 DWORD PTR __real@4f800000
$LN100@addBox:
  00130	de f9		 fdivp	 ST(1), ST(0)
  00132	d9 9d 78 ff ff
	ff		 fstp	 DWORD PTR tv544[ebp]
  00138	d8 8d 78 ff ff
	ff		 fmul	 DWORD PTR tv544[ebp]
  0013e	d9 5d e4	 fstp	 DWORD PTR _newBox$[ebp+76]

; 219  : 	newBox.posCenter.z = (posMin.z + posMax.z) * FLOAT05;

  00141	b8 05 00 00 00	 mov	 eax, 5
  00146	8b d0		 mov	 edx, eax
  00148	b8 0a 00 00 00	 mov	 eax, 10			; 0000000aH
  0014d	d9 41 08	 fld	 DWORD PTR [ecx+8]
  00150	d8 43 08	 fadd	 DWORD PTR [ebx+8]
  00153	89 95 78 ff ff
	ff		 mov	 DWORD PTR tv536[ebp], edx
  00159	db 85 78 ff ff
	ff		 fild	 DWORD PTR tv536[ebp]
  0015f	85 d2		 test	 edx, edx
  00161	79 06		 jns	 SHORT $LN101@addBox
  00163	d8 05 00 00 00
	00		 fadd	 DWORD PTR __real@4f800000
$LN101@addBox:
  00169	89 85 78 ff ff
	ff		 mov	 DWORD PTR tv532[ebp], eax
  0016f	db 85 78 ff ff
	ff		 fild	 DWORD PTR tv532[ebp]
  00175	85 c0		 test	 eax, eax
  00177	79 06		 jns	 SHORT $LN102@addBox
  00179	d8 05 00 00 00
	00		 fadd	 DWORD PTR __real@4f800000
$LN102@addBox:
  0017f	de f9		 fdivp	 ST(1), ST(0)

; 220  : 	m_boxes.push_back( newBox );

  00181	8b b5 74 ff ff
	ff		 mov	 esi, DWORD PTR _this$GSCopy$[ebp]
  00187	8d 45 98	 lea	 eax, DWORD PTR _newBox$[ebp]
  0018a	50		 push	 eax
  0018b	8b ce		 mov	 ecx, esi
  0018d	d9 9d 78 ff ff
	ff		 fstp	 DWORD PTR tv528[ebp]
  00193	d8 8d 78 ff ff
	ff		 fmul	 DWORD PTR tv528[ebp]
  00199	d9 5d e8	 fstp	 DWORD PTR _newBox$[ebp+80]
  0019c	e8 00 00 00 00	 call	 ?push_back@?$vector@UBox@BoxSpace@@V?$allocator@UBox@BoxSpace@@@std@@@std@@QAEXABUBox@BoxSpace@@@Z ; std::vector<BoxSpace::Box,std::allocator<BoxSpace::Box> >::push_back

; 221  : 	return int(m_boxes.size())-1;

  001a1	8b 46 04	 mov	 eax, DWORD PTR [esi+4]
  001a4	2b 06		 sub	 eax, DWORD PTR [esi]
  001a6	6a 58		 push	 88			; 00000058H
  001a8	99		 cdq
  001a9	59		 pop	 ecx
  001aa	f7 f9		 idiv	 ecx
  001ac	83 4d fc ff	 or	 DWORD PTR __$EHRec$[ebp+8], -1
  001b0	8d 4d 98	 lea	 ecx, DWORD PTR _newBox$[ebp]
  001b3	8b f0		 mov	 esi, eax
  001b5	e8 00 00 00 00	 call	 ??1Box@BoxSpace@@QAE@XZ
  001ba	8d 46 ff	 lea	 eax, DWORD PTR [esi-1]
$LN2@addBox:

; 222  : }

  001bd	e8 00 00 00 00	 call	 __EH_epilog3_GS
  001c2	c2 0c 00	 ret	 12			; 0000000cH
_TEXT	ENDS
;	COMDAT text$x
text$x	SEGMENT
__unwindfunclet$?addBox@BoxSpace@@QAEHPBDABUD3DXVECTOR3@@1@Z$0:
  00000	8d 4d 98	 lea	 ecx, DWORD PTR _newBox$[ebp]
  00003	e9 00 00 00 00	 jmp	 ??1Box@BoxSpace@@QAE@XZ
__unwindfunclet$?addBox@BoxSpace@@QAEHPBDABUD3DXVECTOR3@@1@Z$1:
  00008	8d 8d 7c ff ff
	ff		 lea	 ecx, DWORD PTR $T505378[ebp]
  0000e	e9 00 00 00 00	 jmp	 ??1?$basic_string@DU?$char_traits@D@std@@V?$allocator@D@2@@std@@QAE@XZ ; std::basic_string<char,std::char_traits<char>,std::allocator<char> >::~basic_string<char,std::char_traits<char>,std::allocator<char> >
__ehhandler$?addBox@BoxSpace@@QAEHPBDABUD3DXVECTOR3@@1@Z:
  00013	8b 54 24 08	 mov	 edx, DWORD PTR [esp+8]
  00017	8d 42 0c	 lea	 eax, DWORD PTR [edx+12]
  0001a	8b 8a 70 ff ff
	ff		 mov	 ecx, DWORD PTR [edx-144]
  00020	33 c8		 xor	 ecx, eax
  00022	e8 00 00 00 00	 call	 @__security_check_cookie@4
  00027	8b 4a fc	 mov	 ecx, DWORD PTR [edx-4]
  0002a	33 c8		 xor	 ecx, eax
  0002c	e8 00 00 00 00	 call	 @__security_check_cookie@4
  00031	b8 00 00 00 00	 mov	 eax, OFFSET __ehfuncinfo$?addBox@BoxSpace@@QAEHPBDABUD3DXVECTOR3@@1@Z
  00036	e9 00 00 00 00	 jmp	 ___CxxFrameHandler3
text$x	ENDS
?addBox@BoxSpace@@QAEHPBDABUD3DXVECTOR3@@1@Z ENDP	; BoxSpace::addBox
END
