; Listing generated by Microsoft (R) Optimizing Compiler Version 16.00.30319.01 

	TITLE	D:\Lost Saga For Developer\Youtube\Tutorial\Source\src\LSClient\boxgraph.cpp
	.686P
	.XMM
	include listing.inc
	.model	flat

INCLUDELIB MSVCRT
INCLUDELIB OLDNAMES

PUBLIC	__real@3ff69fbe80000000
EXTRN	__fltused:DWORD
;	COMDAT __real@3ff69fbe80000000
; File d:\lost saga for developer\youtube\tutorial\source\src\lsclient\boxgraph.cpp
CONST	SEGMENT
__real@3ff69fbe80000000 DQ 03ff69fbe80000000r	; 1.414
; Function compile flags: /Ogsp
CONST	ENDS
;	COMDAT ?getDist@@YAMABUD3DXVECTOR3@@ABUBox@BoxSpace@@M@Z
_TEXT	SEGMENT
_heightFactor$ = 8					; size = 4
?getDist@@YAMABUD3DXVECTOR3@@ABUBox@BoxSpace@@M@Z PROC	; getDist, COMDAT
; _pos$ = ecx
; _box$ = eax

; 24   : {

  00000	55		 push	 ebp
  00001	8b ec		 mov	 ebp, esp

; 25   : 	float dx = 0, dy = 0, dz = 0;
; 26   : 
; 27   : 	if ( pos.x < box.posMin.x )

  00003	f3 0f 10 09	 movss	 xmm1, DWORD PTR [ecx]
  00007	f3 0f 10 50 1c	 movss	 xmm2, DWORD PTR [eax+28]
  0000c	0f 57 c0	 xorps	 xmm0, xmm0
  0000f	0f 5a e9	 cvtps2pd xmm5, xmm1
  00012	0f 5a f2	 cvtps2pd xmm6, xmm2
  00015	66 0f 2f f5	 comisd	 xmm6, xmm5
  00019	0f 28 e0	 movaps	 xmm4, xmm0
  0001c	0f 28 d8	 movaps	 xmm3, xmm0
  0001f	76 13		 jbe	 SHORT $LN11@getDist

; 28   : 		dx = box.posMin.x - pos.x;

  00021	0f 5a d2	 cvtps2pd xmm2, xmm2
  00024	0f 5a c9	 cvtps2pd xmm1, xmm1
  00027	f2 0f 5c d1	 subsd	 xmm2, xmm1
  0002b	0f 57 e4	 xorps	 xmm4, xmm4
  0002e	66 0f 5a e2	 cvtpd2ps xmm4, xmm2
  00032	eb 22		 jmp	 SHORT $LN9@getDist
$LN11@getDist:

; 29   : 	else if ( box.posMax.x < pos.x )

  00034	f3 0f 10 50 28	 movss	 xmm2, DWORD PTR [eax+40]
  00039	0f 5a ea	 cvtps2pd xmm5, xmm2
  0003c	0f 5a f1	 cvtps2pd xmm6, xmm1
  0003f	66 0f 2f f5	 comisd	 xmm6, xmm5
  00043	76 11		 jbe	 SHORT $LN9@getDist

; 30   : 		dx = pos.x - box.posMax.x;

  00045	0f 5a c9	 cvtps2pd xmm1, xmm1
  00048	0f 5a d2	 cvtps2pd xmm2, xmm2
  0004b	f2 0f 5c ca	 subsd	 xmm1, xmm2
  0004f	0f 57 e4	 xorps	 xmm4, xmm4
  00052	66 0f 5a e1	 cvtpd2ps xmm4, xmm1
$LN9@getDist:

; 31   : 
; 32   : 	if ( pos.y < box.posMin.y )

  00056	f3 0f 10 49 04	 movss	 xmm1, DWORD PTR [ecx+4]
  0005b	f3 0f 10 50 20	 movss	 xmm2, DWORD PTR [eax+32]
  00060	0f 5a e9	 cvtps2pd xmm5, xmm1
  00063	0f 5a f2	 cvtps2pd xmm6, xmm2
  00066	66 0f 2f f5	 comisd	 xmm6, xmm5
  0006a	76 13		 jbe	 SHORT $LN8@getDist

; 33   : 		dy = box.posMin.y - pos.y;

  0006c	0f 5a d2	 cvtps2pd xmm2, xmm2
  0006f	0f 5a c9	 cvtps2pd xmm1, xmm1
  00072	f2 0f 5c d1	 subsd	 xmm2, xmm1
  00076	0f 57 db	 xorps	 xmm3, xmm3
  00079	66 0f 5a da	 cvtpd2ps xmm3, xmm2
  0007d	eb 22		 jmp	 SHORT $LN6@getDist
$LN8@getDist:

; 34   : 	else if ( box.posMax.y < pos.y )

  0007f	f3 0f 10 50 2c	 movss	 xmm2, DWORD PTR [eax+44]
  00084	0f 5a ea	 cvtps2pd xmm5, xmm2
  00087	0f 5a f1	 cvtps2pd xmm6, xmm1
  0008a	66 0f 2f f5	 comisd	 xmm6, xmm5
  0008e	76 11		 jbe	 SHORT $LN6@getDist

; 35   : 		dy = pos.y - box.posMax.y;

  00090	0f 5a c9	 cvtps2pd xmm1, xmm1
  00093	0f 5a d2	 cvtps2pd xmm2, xmm2
  00096	f2 0f 5c ca	 subsd	 xmm1, xmm2
  0009a	0f 57 db	 xorps	 xmm3, xmm3
  0009d	66 0f 5a d9	 cvtpd2ps xmm3, xmm1
$LN6@getDist:

; 36   : 
; 37   : 	if ( pos.z < box.posMin.z )

  000a1	f3 0f 10 49 08	 movss	 xmm1, DWORD PTR [ecx+8]
  000a6	f3 0f 10 50 24	 movss	 xmm2, DWORD PTR [eax+36]
  000ab	0f 5a e9	 cvtps2pd xmm5, xmm1
  000ae	0f 5a f2	 cvtps2pd xmm6, xmm2
  000b1	66 0f 2f f5	 comisd	 xmm6, xmm5
  000b5	76 08		 jbe	 SHORT $LN5@getDist

; 38   : 		dz = box.posMin.z - pos.z;

  000b7	0f 5a c2	 cvtps2pd xmm0, xmm2
  000ba	0f 5a c9	 cvtps2pd xmm1, xmm1
  000bd	eb 17		 jmp	 SHORT $LN14@getDist
$LN5@getDist:

; 39   : 	else if ( box.posMax.z < pos.z )

  000bf	f3 0f 10 50 30	 movss	 xmm2, DWORD PTR [eax+48]
  000c4	0f 5a ea	 cvtps2pd xmm5, xmm2
  000c7	0f 5a f1	 cvtps2pd xmm6, xmm1
  000ca	66 0f 2f f5	 comisd	 xmm6, xmm5
  000ce	76 0e		 jbe	 SHORT $LN3@getDist

; 40   : 		dz = pos.z - box.posMax.z;

  000d0	0f 5a c1	 cvtps2pd xmm0, xmm1
  000d3	0f 5a ca	 cvtps2pd xmm1, xmm2
$LN14@getDist:
  000d6	f2 0f 5c c1	 subsd	 xmm0, xmm1
  000da	66 0f 5a c0	 cvtpd2ps xmm0, xmm0
$LN3@getDist:

; 41   : 
; 42   : 	if ( dx > dy )

  000de	0f 57 c9	 xorps	 xmm1, xmm1
  000e1	0f 57 d2	 xorps	 xmm2, xmm2
  000e4	f3 0f 5a cc	 cvtss2sd xmm1, xmm4
  000e8	f3 0f 5a d3	 cvtss2sd xmm2, xmm3
  000ec	66 0f 2f ca	 comisd	 xmm1, xmm2

; 43   : 		return dy * 1.414f + (dx-dy) + dz * heightFactor;

  000f0	f3 0f 5a c0	 cvtss2sd xmm0, xmm0
  000f4	0f 57 c9	 xorps	 xmm1, xmm1
  000f7	0f 57 d2	 xorps	 xmm2, xmm2
  000fa	76 15		 jbe	 SHORT $LN2@getDist
  000fc	f3 0f 5a d3	 cvtss2sd xmm2, xmm3
  00100	f3 0f 5a cc	 cvtss2sd xmm1, xmm4
  00104	f2 0f 5c ca	 subsd	 xmm1, xmm2
  00108	0f 57 d2	 xorps	 xmm2, xmm2
  0010b	f3 0f 5a d3	 cvtss2sd xmm2, xmm3
  0010f	eb 13		 jmp	 SHORT $LN15@getDist
$LN2@getDist:

; 44   : 	else
; 45   : 		return dx * 1.414f + (dy-dx) + dz * heightFactor;

  00111	f3 0f 5a d4	 cvtss2sd xmm2, xmm4
  00115	f3 0f 5a cb	 cvtss2sd xmm1, xmm3
  00119	f2 0f 5c ca	 subsd	 xmm1, xmm2
  0011d	0f 57 d2	 xorps	 xmm2, xmm2
  00120	f3 0f 5a d4	 cvtss2sd xmm2, xmm4
$LN15@getDist:
  00124	f2 0f 59 15 00
	00 00 00	 mulsd	 xmm2, QWORD PTR __real@3ff69fbe80000000
  0012c	f2 0f 58 ca	 addsd	 xmm1, xmm2
  00130	f3 0f 10 55 08	 movss	 xmm2, DWORD PTR _heightFactor$[ebp]
  00135	0f 5a d2	 cvtps2pd xmm2, xmm2
  00138	f2 0f 59 c2	 mulsd	 xmm0, xmm2
  0013c	f2 0f 58 c8	 addsd	 xmm1, xmm0
  00140	66 0f 5a c1	 cvtpd2ps xmm0, xmm1

; 46   : }

  00144	5d		 pop	 ebp
  00145	c3		 ret	 0
?getDist@@YAMABUD3DXVECTOR3@@ABUBox@BoxSpace@@M@Z ENDP	; getDist
_TEXT	ENDS
PUBLIC	?return1@@YAIXZ					; return1
; Function compile flags: /Ogsp
; File d:\lost saga for developer\youtube\tutorial\source\src\lsclient\stdafx.h
;	COMDAT ?return1@@YAIXZ
_TEXT	SEGMENT
?return1@@YAIXZ PROC					; return1, COMDAT

; 17   : 	__forceinline unsigned int return1() { __asm mov eax, 1 };

  00000	b8 01 00 00 00	 mov	 eax, 1
  00005	c3		 ret	 0
?return1@@YAIXZ ENDP					; return1
_TEXT	ENDS
PUBLIC	?return5@@YAIXZ					; return5
; Function compile flags: /Ogsp
;	COMDAT ?return5@@YAIXZ
_TEXT	SEGMENT
?return5@@YAIXZ PROC					; return5, COMDAT

; 18   : 	__forceinline unsigned int return5() { __asm mov eax, 5 };

  00000	b8 05 00 00 00	 mov	 eax, 5
  00005	c3		 ret	 0
?return5@@YAIXZ ENDP					; return5
_TEXT	ENDS
PUBLIC	?return10@@YAIXZ				; return10
; Function compile flags: /Ogsp
;	COMDAT ?return10@@YAIXZ
_TEXT	SEGMENT
?return10@@YAIXZ PROC					; return10, COMDAT

; 21   : 	__forceinline unsigned int return10() { __asm mov eax, 10 };

  00000	b8 0a 00 00 00	 mov	 eax, 10			; 0000000aH
  00005	c3		 ret	 0
?return10@@YAIXZ ENDP					; return10
; Function compile flags: /Ogsp
; File d:\lost saga for developer\youtube\tutorial\source\src\lsclient\boxgraph.cpp
_TEXT	ENDS
;	COMDAT ?max2@@YAMMM@Z
_TEXT	SEGMENT
_b$ = 8							; size = 4
?max2@@YAMMM@Z PROC					; max2, COMDAT
; _a$ = xmm0s

; 49   : { 

  00000	55		 push	 ebp
  00001	8b ec		 mov	 ebp, esp

; 50   : 	return a > b ? a : b; 

  00003	f3 0f 10 55 08	 movss	 xmm2, DWORD PTR _b$[ebp]
  00008	0f 57 c9	 xorps	 xmm1, xmm1
  0000b	f3 0f 5a c8	 cvtss2sd xmm1, xmm0
  0000f	0f 5a d2	 cvtps2pd xmm2, xmm2
  00012	66 0f 2f ca	 comisd	 xmm1, xmm2
  00016	77 05		 ja	 SHORT $LN4@max2
  00018	f3 0f 10 45 08	 movss	 xmm0, DWORD PTR _b$[ebp]
$LN4@max2:

; 51   : }

  0001d	5d		 pop	 ebp
  0001e	c3		 ret	 0
?max2@@YAMMM@Z ENDP					; max2
; Function compile flags: /Ogsp
_TEXT	ENDS
;	COMDAT ?min2@@YAMMM@Z
_TEXT	SEGMENT
_b$ = 8							; size = 4
?min2@@YAMMM@Z PROC					; min2, COMDAT
; _a$ = xmm0s

; 54   : { 

  00000	55		 push	 ebp
  00001	8b ec		 mov	 ebp, esp

; 55   : 	return a < b ? a : b; 

  00003	f3 0f 10 55 08	 movss	 xmm2, DWORD PTR _b$[ebp]
  00008	0f 57 c9	 xorps	 xmm1, xmm1
  0000b	f3 0f 5a c8	 cvtss2sd xmm1, xmm0
  0000f	0f 5a d2	 cvtps2pd xmm2, xmm2
  00012	66 0f 2f d1	 comisd	 xmm2, xmm1
  00016	77 05		 ja	 SHORT $LN4@min2
  00018	f3 0f 10 45 08	 movss	 xmm0, DWORD PTR _b$[ebp]
$LN4@min2:

; 56   : }

  0001d	5d		 pop	 ebp
  0001e	c3		 ret	 0
?min2@@YAMMM@Z ENDP					; min2
; Function compile flags: /Ogsp
_TEXT	ENDS
;	COMDAT ?insideBox@@YA_NABUD3DXVECTOR3@@00@Z
_TEXT	SEGMENT
_pos$ = 8						; size = 4
?insideBox@@YA_NABUD3DXVECTOR3@@00@Z PROC		; insideBox, COMDAT
; _boxMin$ = eax
; _boxMax$ = edx

; 59   : {

  00000	55		 push	 ebp
  00001	8b ec		 mov	 ebp, esp
  00003	8b 4d 08	 mov	 ecx, DWORD PTR _pos$[ebp]

; 60   : 	if ( pos.x < boxMin.x || pos.x > boxMax.x ) 

  00006	f3 0f 10 01	 movss	 xmm0, DWORD PTR [ecx]
  0000a	f3 0f 10 10	 movss	 xmm2, DWORD PTR [eax]
  0000e	0f 57 c9	 xorps	 xmm1, xmm1
  00011	0f 5a c8	 cvtps2pd xmm1, xmm0
  00014	0f 5a d2	 cvtps2pd xmm2, xmm2
  00017	66 0f 2f d1	 comisd	 xmm2, xmm1
  0001b	77 68		 ja	 SHORT $LN5@insideBox
  0001d	f3 0f 10 0a	 movss	 xmm1, DWORD PTR [edx]
  00021	0f 5a c0	 cvtps2pd xmm0, xmm0
  00024	0f 5a c9	 cvtps2pd xmm1, xmm1
  00027	66 0f 2f c1	 comisd	 xmm0, xmm1
  0002b	77 58		 ja	 SHORT $LN5@insideBox

; 62   : 	if ( pos.y < boxMin.y || pos.y > boxMax.y ) 

  0002d	f3 0f 10 41 04	 movss	 xmm0, DWORD PTR [ecx+4]
  00032	f3 0f 10 50 04	 movss	 xmm2, DWORD PTR [eax+4]
  00037	0f 57 c9	 xorps	 xmm1, xmm1
  0003a	0f 5a c8	 cvtps2pd xmm1, xmm0
  0003d	0f 5a d2	 cvtps2pd xmm2, xmm2
  00040	66 0f 2f d1	 comisd	 xmm2, xmm1
  00044	77 3f		 ja	 SHORT $LN5@insideBox
  00046	f3 0f 10 4a 04	 movss	 xmm1, DWORD PTR [edx+4]
  0004b	0f 5a c0	 cvtps2pd xmm0, xmm0
  0004e	0f 5a c9	 cvtps2pd xmm1, xmm1
  00051	66 0f 2f c1	 comisd	 xmm0, xmm1
  00055	77 2e		 ja	 SHORT $LN5@insideBox

; 63   : 		return false;
; 64   : 	if ( pos.z < boxMin.z || pos.z > boxMax.z ) 

  00057	f3 0f 10 41 08	 movss	 xmm0, DWORD PTR [ecx+8]
  0005c	f3 0f 10 50 08	 movss	 xmm2, DWORD PTR [eax+8]
  00061	0f 57 c9	 xorps	 xmm1, xmm1
  00064	0f 5a c8	 cvtps2pd xmm1, xmm0
  00067	0f 5a d2	 cvtps2pd xmm2, xmm2
  0006a	66 0f 2f d1	 comisd	 xmm2, xmm1
  0006e	77 15		 ja	 SHORT $LN5@insideBox
  00070	f3 0f 10 4a 08	 movss	 xmm1, DWORD PTR [edx+8]
  00075	0f 5a c0	 cvtps2pd xmm0, xmm0
  00078	0f 5a c9	 cvtps2pd xmm1, xmm1
  0007b	66 0f 2f c1	 comisd	 xmm0, xmm1
  0007f	77 04		 ja	 SHORT $LN5@insideBox

; 65   : 		return false;
; 66   : 
; 67   : 	return true;

  00081	b0 01		 mov	 al, 1

; 68   : }

  00083	5d		 pop	 ebp
  00084	c3		 ret	 0
$LN5@insideBox:

; 61   : 		return false;

  00085	32 c0		 xor	 al, al

; 68   : }

  00087	5d		 pop	 ebp
  00088	c3		 ret	 0
?insideBox@@YA_NABUD3DXVECTOR3@@00@Z ENDP		; insideBox
_TEXT	ENDS
PUBLIC	__real@4f800000
PUBLIC	??_C@_0BF@BCJDDBOF@boxgraph?5invalid?5dir?$AA@	; `string'
EXTRN	__imp_?PrintTimeAndLog@CLog@@QAAXHPADZZ:PROC
EXTRN	__imp_?LOG@@3VCLog@@A:BYTE
;	COMDAT __real@4f800000
; File d:\lost saga for developer\youtube\tutorial\source\src\lsclient\stdafx.h
CONST	SEGMENT
__real@4f800000 DD 04f800000r			; 4.29497e+009
CONST	ENDS
;	COMDAT ??_C@_0BF@BCJDDBOF@boxgraph?5invalid?5dir?$AA@
CONST	SEGMENT
??_C@_0BF@BCJDDBOF@boxgraph?5invalid?5dir?$AA@ DB 'boxgraph invalid dir', 00H ; `string'
; Function compile flags: /Ogsp
; File d:\lost saga for developer\youtube\tutorial\source\src\lsclient\boxgraph.cpp
CONST	ENDS
;	COMDAT ?calcTransferPoints@@YAXABUBox@BoxSpace@@0DAAUD3DXVECTOR3@@1@Z
_TEXT	SEGMENT
tv1175 = -8						; size = 4
tv1171 = -8						; size = 4
tv1167 = -8						; size = 4
tv1143 = -8						; size = 4
tv1139 = -8						; size = 4
tv1135 = -8						; size = 4
tv1111 = -8						; size = 4
tv1107 = -8						; size = 4
tv1102 = -8						; size = 4
tv1076 = -8						; size = 4
tv1072 = -8						; size = 4
tv1068 = -8						; size = 4
tv1040 = -8						; size = 4
tv1036 = -8						; size = 4
tv1032 = -8						; size = 4
tv1004 = -8						; size = 4
tv1000 = -8						; size = 4
tv996 = -8						; size = 4
tv807 = -4						; size = 4
tv803 = -4						; size = 4
tv799 = -4						; size = 4
tv795 = -4						; size = 4
tv791 = -4						; size = 4
tv787 = -4						; size = 4
tv881 = 8						; size = 4
tv874 = 8						; size = 4
tv558 = 8						; size = 4
_outPosFrom$ = 8					; size = 4
tv1152 = 12						; size = 4
tv1128 = 12						; size = 4
tv1104 = 12						; size = 4
tv1077 = 12						; size = 4
tv1054 = 12						; size = 4
tv1028 = 12						; size = 4
tv981 = 12						; size = 4
tv975 = 12						; size = 4
tv970 = 12						; size = 4
tv809 = 12						; size = 4
tv805 = 12						; size = 4
tv801 = 12						; size = 4
tv797 = 12						; size = 4
tv793 = 12						; size = 4
tv789 = 12						; size = 4
_outPosTo$ = 12						; size = 4
?calcTransferPoints@@YAXABUBox@BoxSpace@@0DAAUD3DXVECTOR3@@1@Z PROC ; calcTransferPoints, COMDAT
; _boxFrom$ = edi
; _boxTo$ = esi
; _dir$ = eax

; 103  : {

  00000	55		 push	 ebp
  00001	8b ec		 mov	 ebp, esp
  00003	51		 push	 ecx
  00004	51		 push	 ecx

; 104  : 	if ( boxTo.posMax.x < boxFrom.posMin.x || boxFrom.posMax.x < boxTo.posMin.x ) {

  00005	f3 0f 10 46 28	 movss	 xmm0, DWORD PTR [esi+40]
  0000a	f3 0f 10 4f 1c	 movss	 xmm1, DWORD PTR [edi+28]
  0000f	0f 57 d2	 xorps	 xmm2, xmm2
  00012	0f 57 db	 xorps	 xmm3, xmm3
  00015	0f 5a d0	 cvtps2pd xmm2, xmm0
  00018	0f 5a d9	 cvtps2pd xmm3, xmm1
  0001b	66 0f 2f da	 comisd	 xmm3, xmm2
  0001f	53		 push	 ebx
  00020	8b 5d 0c	 mov	 ebx, DWORD PTR _outPosTo$[ebp]
  00023	0f 87 db 03 00
	00		 ja	 $LN17@calcTransf
  00029	f3 0f 10 57 28	 movss	 xmm2, DWORD PTR [edi+40]
  0002e	f3 0f 10 5e 1c	 movss	 xmm3, DWORD PTR [esi+28]
  00033	0f 5a d2	 cvtps2pd xmm2, xmm2
  00036	0f 5a db	 cvtps2pd xmm3, xmm3
  00039	66 0f 2f da	 comisd	 xmm3, xmm2
  0003d	0f 87 c1 03 00
	00		 ja	 $LN17@calcTransf

; 112  : 
; 113  : 	} else if ( boxTo.posMax.y < boxFrom.posMin.y || boxFrom.posMax.y < boxTo.posMin.y ) {

  00043	f3 0f 10 5e 2c	 movss	 xmm3, DWORD PTR [esi+44]
  00048	f3 0f 10 47 20	 movss	 xmm0, DWORD PTR [edi+32]
  0004d	0f 57 d2	 xorps	 xmm2, xmm2
  00050	0f 5a d3	 cvtps2pd xmm2, xmm3
  00053	0f 5a e0	 cvtps2pd xmm4, xmm0
  00056	66 0f 2f e2	 comisd	 xmm4, xmm2
  0005a	0f 87 e7 02 00
	00		 ja	 $LN12@calcTransf
  00060	f3 0f 10 57 2c	 movss	 xmm2, DWORD PTR [edi+44]
  00065	f3 0f 10 6e 20	 movss	 xmm5, DWORD PTR [esi+32]
  0006a	0f 5a e2	 cvtps2pd xmm4, xmm2
  0006d	0f 5a ed	 cvtps2pd xmm5, xmm5
  00070	66 0f 2f ec	 comisd	 xmm5, xmm4
  00074	0f 87 cd 02 00
	00		 ja	 $LN12@calcTransf

; 121  : 
; 122  : 	} else if ( boxTo.posMax.z < boxFrom.posMin.y ) {

  0007a	f3 0f 10 5e 30	 movss	 xmm3, DWORD PTR [esi+48]
  0007f	0f 5a db	 cvtps2pd xmm3, xmm3
  00082	0f 5a e0	 cvtps2pd xmm4, xmm0
  00085	66 0f 2f e3	 comisd	 xmm4, xmm3
  00089	0f 86 29 04 00
	00		 jbe	 $LN101@calcTransf

; 123  : 
; 124  : 		// vertical fall
; 125  : 
; 126  : 		switch ( dir ) {

  0008f	0f be c0	 movsx	 eax, al
  00092	83 e8 58	 sub	 eax, 88			; 00000058H
  00095	0f 84 0b 02 00
	00		 je	 $LN4@calcTransf
  0009b	48		 dec	 eax
  0009c	0f 84 65 01 00
	00		 je	 $LN2@calcTransf
  000a2	83 e8 1f	 sub	 eax, 31			; 0000001fH
  000a5	0f 84 bd 00 00
	00		 je	 $LN5@calcTransf
  000ab	48		 dec	 eax
  000ac	74 1b		 je	 SHORT $LN3@calcTransf

; 150  : 
; 151  : 			default:
; 152  : 				assert(0 && "invalid dir");
; 153  : 				LOG.PrintTimeAndLog(0, "boxgraph invalid dir");

  000ae	68 00 00 00 00	 push	 OFFSET ??_C@_0BF@BCJDDBOF@boxgraph?5invalid?5dir?$AA@
  000b3	6a 00		 push	 0
  000b5	ff 35 00 00 00
	00		 push	 DWORD PTR __imp_?LOG@@3VCLog@@A
  000bb	ff 15 00 00 00
	00		 call	 DWORD PTR __imp_?PrintTimeAndLog@CLog@@QAAXHPADZZ
  000c1	83 c4 0c	 add	 esp, 12			; 0000000cH
  000c4	e9 ef 03 00 00	 jmp	 $LN101@calcTransf
$LN3@calcTransf:

; 138  : 
; 139  : 			case 'y':
; 140  : 
; 141  : 				outPosFrom.y = outPosTo.x = boxFrom.posMin.y;

  000c9	8b 55 08	 mov	 edx, DWORD PTR _outPosFrom$[ebp]
  000cc	f3 0f 11 03	 movss	 DWORD PTR [ebx], xmm0
  000d0	f3 0f 11 42 04	 movss	 DWORD PTR [edx+4], xmm0

; 142  : 				outPosFrom.x = outPosTo.y = (min2( boxFrom.posMax.x, boxTo.posMax.x ) + max2( boxFrom.posMin.x, boxTo.posMin.x )) * FLOAT05;

  000d5	f3 0f 10 47 28	 movss	 xmm0, DWORD PTR [edi+40]
  000da	f3 0f 10 4e 28	 movss	 xmm1, DWORD PTR [esi+40]
  000df	0f 5a d0	 cvtps2pd xmm2, xmm0
  000e2	0f 5a d9	 cvtps2pd xmm3, xmm1
  000e5	66 0f 2f da	 comisd	 xmm3, xmm2
  000e9	76 07		 jbe	 SHORT $LN71@calcTransf
  000eb	f3 0f 11 45 fc	 movss	 DWORD PTR tv803[ebp], xmm0
  000f0	eb 05		 jmp	 SHORT $LN72@calcTransf
$LN71@calcTransf:
  000f2	f3 0f 11 4d fc	 movss	 DWORD PTR tv803[ebp], xmm1
$LN72@calcTransf:
  000f7	f3 0f 10 47 1c	 movss	 xmm0, DWORD PTR [edi+28]
  000fc	f3 0f 10 4e 1c	 movss	 xmm1, DWORD PTR [esi+28]
  00101	0f 5a d0	 cvtps2pd xmm2, xmm0
  00104	0f 5a d9	 cvtps2pd xmm3, xmm1
  00107	66 0f 2f d3	 comisd	 xmm2, xmm3
  0010b	76 07		 jbe	 SHORT $LN75@calcTransf
  0010d	f3 0f 11 45 0c	 movss	 DWORD PTR tv805[ebp], xmm0
  00112	eb 05		 jmp	 SHORT $LN76@calcTransf
$LN75@calcTransf:
  00114	f3 0f 11 4d 0c	 movss	 DWORD PTR tv805[ebp], xmm1
$LN76@calcTransf:
  00119	b8 05 00 00 00	 mov	 eax, 5
  0011e	8b c8		 mov	 ecx, eax
  00120	b8 0a 00 00 00	 mov	 eax, 10			; 0000000aH
  00125	89 4d f8	 mov	 DWORD PTR tv1175[ebp], ecx
  00128	db 45 f8	 fild	 DWORD PTR tv1175[ebp]
  0012b	85 c9		 test	 ecx, ecx
  0012d	79 06		 jns	 SHORT $LN102@calcTransf
  0012f	d8 05 00 00 00
	00		 fadd	 DWORD PTR __real@4f800000
$LN102@calcTransf:
  00135	89 45 f8	 mov	 DWORD PTR tv1171[ebp], eax
  00138	db 45 f8	 fild	 DWORD PTR tv1171[ebp]
  0013b	85 c0		 test	 eax, eax
  0013d	79 06		 jns	 SHORT $LN103@calcTransf
  0013f	d8 05 00 00 00
	00		 fadd	 DWORD PTR __real@4f800000
$LN103@calcTransf:
  00145	de f9		 fdivp	 ST(1), ST(0)
  00147	d9 5d f8	 fstp	 DWORD PTR tv1167[ebp]
  0014a	d9 45 f8	 fld	 DWORD PTR tv1167[ebp]
  0014d	d9 45 0c	 fld	 DWORD PTR tv805[ebp]
  00150	d8 45 fc	 fadd	 DWORD PTR tv803[ebp]
  00153	de c9		 fmulp	 ST(1), ST(0)
  00155	d9 5d 0c	 fstp	 DWORD PTR tv1028[ebp]
  00158	d9 45 0c	 fld	 DWORD PTR tv1028[ebp]
  0015b	d9 5b 04	 fstp	 DWORD PTR [ebx+4]
  0015e	d9 45 0c	 fld	 DWORD PTR tv1028[ebp]
  00161	d9 1a		 fstp	 DWORD PTR [edx]

; 143  : 				break;

  00163	e9 50 03 00 00	 jmp	 $LN101@calcTransf
$LN5@calcTransf:

; 127  : 			case 'x':
; 128  : 
; 129  : 				outPosFrom.x = outPosTo.x = boxFrom.posMin.x;

  00168	8b 4d 08	 mov	 ecx, DWORD PTR _outPosFrom$[ebp]
  0016b	f3 0f 11 0b	 movss	 DWORD PTR [ebx], xmm1
  0016f	f3 0f 11 09	 movss	 DWORD PTR [ecx], xmm1

; 130  : 				outPosFrom.y = outPosTo.y = (min2( boxFrom.posMax.y, boxTo.posMax.y ) + max2( boxFrom.posMin.y, boxTo.posMin.y )) * FLOAT05; // (/2 -> FLOAT05)를 변경함

  00173	f3 0f 10 47 2c	 movss	 xmm0, DWORD PTR [edi+44]
  00178	f3 0f 10 4e 2c	 movss	 xmm1, DWORD PTR [esi+44]
  0017d	0f 5a d0	 cvtps2pd xmm2, xmm0
  00180	0f 5a d9	 cvtps2pd xmm3, xmm1
  00183	66 0f 2f da	 comisd	 xmm3, xmm2
  00187	76 07		 jbe	 SHORT $LN47@calcTransf
  00189	f3 0f 11 45 fc	 movss	 DWORD PTR tv795[ebp], xmm0
  0018e	eb 05		 jmp	 SHORT $LN48@calcTransf
$LN47@calcTransf:
  00190	f3 0f 11 4d fc	 movss	 DWORD PTR tv795[ebp], xmm1
$LN48@calcTransf:
  00195	f3 0f 10 47 20	 movss	 xmm0, DWORD PTR [edi+32]
  0019a	f3 0f 10 4e 20	 movss	 xmm1, DWORD PTR [esi+32]
  0019f	0f 5a d0	 cvtps2pd xmm2, xmm0
  001a2	0f 5a d9	 cvtps2pd xmm3, xmm1
  001a5	66 0f 2f d3	 comisd	 xmm2, xmm3
  001a9	76 07		 jbe	 SHORT $LN51@calcTransf
  001ab	f3 0f 11 45 0c	 movss	 DWORD PTR tv797[ebp], xmm0
  001b0	eb 05		 jmp	 SHORT $LN52@calcTransf
$LN51@calcTransf:
  001b2	f3 0f 11 4d 0c	 movss	 DWORD PTR tv797[ebp], xmm1
$LN52@calcTransf:
  001b7	b8 05 00 00 00	 mov	 eax, 5
  001bc	8b d0		 mov	 edx, eax
  001be	b8 0a 00 00 00	 mov	 eax, 10			; 0000000aH
  001c3	89 55 f8	 mov	 DWORD PTR tv1143[ebp], edx
  001c6	db 45 f8	 fild	 DWORD PTR tv1143[ebp]
  001c9	85 d2		 test	 edx, edx
  001cb	79 06		 jns	 SHORT $LN104@calcTransf
  001cd	d8 05 00 00 00
	00		 fadd	 DWORD PTR __real@4f800000
$LN104@calcTransf:
  001d3	89 45 f8	 mov	 DWORD PTR tv1139[ebp], eax
  001d6	db 45 f8	 fild	 DWORD PTR tv1139[ebp]
  001d9	85 c0		 test	 eax, eax
  001db	79 06		 jns	 SHORT $LN105@calcTransf
  001dd	d8 05 00 00 00
	00		 fadd	 DWORD PTR __real@4f800000
$LN105@calcTransf:
  001e3	de f9		 fdivp	 ST(1), ST(0)
  001e5	d9 5d f8	 fstp	 DWORD PTR tv1135[ebp]
  001e8	d9 45 f8	 fld	 DWORD PTR tv1135[ebp]
  001eb	d9 45 0c	 fld	 DWORD PTR tv797[ebp]
  001ee	d8 45 fc	 fadd	 DWORD PTR tv795[ebp]
  001f1	de c9		 fmulp	 ST(1), ST(0)
  001f3	d9 5d 0c	 fstp	 DWORD PTR tv1054[ebp]
  001f6	d9 45 0c	 fld	 DWORD PTR tv1054[ebp]
  001f9	d9 5b 04	 fstp	 DWORD PTR [ebx+4]
  001fc	d9 45 0c	 fld	 DWORD PTR tv1054[ebp]
$LN120@calcTransf:
  001ff	d9 59 04	 fstp	 DWORD PTR [ecx+4]

; 131  : 				break;

  00202	e9 b1 02 00 00	 jmp	 $LN101@calcTransf
$LN2@calcTransf:

; 144  : 
; 145  : 			case 'Y':
; 146  : 
; 147  : 				outPosFrom.y = outPosTo.x = boxFrom.posMax.y;

  00207	8b 4d 08	 mov	 ecx, DWORD PTR _outPosFrom$[ebp]
  0020a	f3 0f 11 13	 movss	 DWORD PTR [ebx], xmm2
  0020e	f3 0f 11 51 04	 movss	 DWORD PTR [ecx+4], xmm2

; 148  : 				outPosFrom.x = outPosTo.y = (min2( boxFrom.posMax.x, boxTo.posMax.x ) + max2( boxFrom.posMin.x, boxTo.posMin.x )) * FLOAT05;

  00213	f3 0f 10 47 28	 movss	 xmm0, DWORD PTR [edi+40]
  00218	f3 0f 10 4e 28	 movss	 xmm1, DWORD PTR [esi+40]
  0021d	0f 5a d0	 cvtps2pd xmm2, xmm0
  00220	0f 5a d9	 cvtps2pd xmm3, xmm1
  00223	66 0f 2f da	 comisd	 xmm3, xmm2
  00227	76 07		 jbe	 SHORT $LN83@calcTransf
  00229	f3 0f 11 45 fc	 movss	 DWORD PTR tv807[ebp], xmm0
  0022e	eb 05		 jmp	 SHORT $LN84@calcTransf
$LN83@calcTransf:
  00230	f3 0f 11 4d fc	 movss	 DWORD PTR tv807[ebp], xmm1
$LN84@calcTransf:
  00235	f3 0f 10 47 1c	 movss	 xmm0, DWORD PTR [edi+28]
  0023a	f3 0f 10 4e 1c	 movss	 xmm1, DWORD PTR [esi+28]
  0023f	0f 5a d0	 cvtps2pd xmm2, xmm0
  00242	0f 5a d9	 cvtps2pd xmm3, xmm1
  00245	66 0f 2f d3	 comisd	 xmm2, xmm3
  00249	76 07		 jbe	 SHORT $LN87@calcTransf
  0024b	f3 0f 11 45 0c	 movss	 DWORD PTR tv809[ebp], xmm0
  00250	eb 05		 jmp	 SHORT $LN88@calcTransf
$LN87@calcTransf:
  00252	f3 0f 11 4d 0c	 movss	 DWORD PTR tv809[ebp], xmm1
$LN88@calcTransf:
  00257	b8 05 00 00 00	 mov	 eax, 5
  0025c	8b d0		 mov	 edx, eax
  0025e	b8 0a 00 00 00	 mov	 eax, 10			; 0000000aH
  00263	89 55 f8	 mov	 DWORD PTR tv1111[ebp], edx
  00266	db 45 f8	 fild	 DWORD PTR tv1111[ebp]
  00269	85 d2		 test	 edx, edx
  0026b	79 06		 jns	 SHORT $LN106@calcTransf
  0026d	d8 05 00 00 00
	00		 fadd	 DWORD PTR __real@4f800000
$LN106@calcTransf:
  00273	89 45 f8	 mov	 DWORD PTR tv1107[ebp], eax
  00276	db 45 f8	 fild	 DWORD PTR tv1107[ebp]
  00279	85 c0		 test	 eax, eax
  0027b	79 06		 jns	 SHORT $LN107@calcTransf
  0027d	d8 05 00 00 00
	00		 fadd	 DWORD PTR __real@4f800000
$LN107@calcTransf:
  00283	de f9		 fdivp	 ST(1), ST(0)
  00285	d9 5d f8	 fstp	 DWORD PTR tv1102[ebp]
  00288	d9 45 f8	 fld	 DWORD PTR tv1102[ebp]
  0028b	d9 45 0c	 fld	 DWORD PTR tv809[ebp]
  0028e	d8 45 fc	 fadd	 DWORD PTR tv807[ebp]
  00291	de c9		 fmulp	 ST(1), ST(0)
  00293	d9 5d 0c	 fstp	 DWORD PTR tv1077[ebp]
  00296	d9 45 0c	 fld	 DWORD PTR tv1077[ebp]
  00299	d9 5b 04	 fstp	 DWORD PTR [ebx+4]
  0029c	d9 45 0c	 fld	 DWORD PTR tv1077[ebp]
  0029f	d9 19		 fstp	 DWORD PTR [ecx]

; 149  : 				break;

  002a1	e9 12 02 00 00	 jmp	 $LN101@calcTransf
$LN4@calcTransf:

; 132  : 
; 133  : 			case 'X':
; 134  : 
; 135  : 				outPosFrom.x = outPosTo.x = boxFrom.posMax.x;

  002a6	f3 0f 10 47 28	 movss	 xmm0, DWORD PTR [edi+40]
  002ab	8b 4d 08	 mov	 ecx, DWORD PTR _outPosFrom$[ebp]
  002ae	f3 0f 11 03	 movss	 DWORD PTR [ebx], xmm0
  002b2	f3 0f 11 01	 movss	 DWORD PTR [ecx], xmm0

; 136  : 				outPosFrom.y = outPosTo.y = (min2( boxFrom.posMax.y, boxTo.posMax.y ) + max2( boxFrom.posMin.y, boxTo.posMin.y )) * FLOAT05;

  002b6	f3 0f 10 47 2c	 movss	 xmm0, DWORD PTR [edi+44]
  002bb	f3 0f 10 4e 2c	 movss	 xmm1, DWORD PTR [esi+44]
  002c0	0f 5a d0	 cvtps2pd xmm2, xmm0
  002c3	0f 5a d9	 cvtps2pd xmm3, xmm1
  002c6	66 0f 2f da	 comisd	 xmm3, xmm2
  002ca	76 07		 jbe	 SHORT $LN59@calcTransf
  002cc	f3 0f 11 45 fc	 movss	 DWORD PTR tv799[ebp], xmm0
  002d1	eb 05		 jmp	 SHORT $LN60@calcTransf
$LN59@calcTransf:
  002d3	f3 0f 11 4d fc	 movss	 DWORD PTR tv799[ebp], xmm1
$LN60@calcTransf:
  002d8	f3 0f 10 47 20	 movss	 xmm0, DWORD PTR [edi+32]
  002dd	f3 0f 10 4e 20	 movss	 xmm1, DWORD PTR [esi+32]
  002e2	0f 5a d0	 cvtps2pd xmm2, xmm0
  002e5	0f 5a d9	 cvtps2pd xmm3, xmm1
  002e8	66 0f 2f d3	 comisd	 xmm2, xmm3
  002ec	76 07		 jbe	 SHORT $LN63@calcTransf
  002ee	f3 0f 11 45 0c	 movss	 DWORD PTR tv801[ebp], xmm0
  002f3	eb 05		 jmp	 SHORT $LN64@calcTransf
$LN63@calcTransf:
  002f5	f3 0f 11 4d 0c	 movss	 DWORD PTR tv801[ebp], xmm1
$LN64@calcTransf:
  002fa	b8 05 00 00 00	 mov	 eax, 5
  002ff	8b d0		 mov	 edx, eax
  00301	b8 0a 00 00 00	 mov	 eax, 10			; 0000000aH
  00306	89 55 f8	 mov	 DWORD PTR tv1076[ebp], edx
  00309	db 45 f8	 fild	 DWORD PTR tv1076[ebp]
  0030c	85 d2		 test	 edx, edx
  0030e	79 06		 jns	 SHORT $LN108@calcTransf
  00310	d8 05 00 00 00
	00		 fadd	 DWORD PTR __real@4f800000
$LN108@calcTransf:
  00316	89 45 f8	 mov	 DWORD PTR tv1072[ebp], eax
  00319	db 45 f8	 fild	 DWORD PTR tv1072[ebp]
  0031c	85 c0		 test	 eax, eax
  0031e	79 06		 jns	 SHORT $LN109@calcTransf
  00320	d8 05 00 00 00
	00		 fadd	 DWORD PTR __real@4f800000
$LN109@calcTransf:
  00326	de f9		 fdivp	 ST(1), ST(0)
  00328	d9 5d f8	 fstp	 DWORD PTR tv1068[ebp]
  0032b	d9 45 f8	 fld	 DWORD PTR tv1068[ebp]
  0032e	d9 45 0c	 fld	 DWORD PTR tv801[ebp]
  00331	d8 45 fc	 fadd	 DWORD PTR tv799[ebp]
  00334	de c9		 fmulp	 ST(1), ST(0)
  00336	d9 5d 0c	 fstp	 DWORD PTR tv1104[ebp]
  00339	d9 45 0c	 fld	 DWORD PTR tv1104[ebp]
  0033c	d9 5b 04	 fstp	 DWORD PTR [ebx+4]
  0033f	d9 45 0c	 fld	 DWORD PTR tv1104[ebp]

; 137  : 				break;

  00342	e9 b8 fe ff ff	 jmp	 $LN120@calcTransf
$LN12@calcTransf:

; 114  : 
; 115  : 		if ( boxTo.posMax.y < boxFrom.posMin.y )
; 116  : 			outPosFrom.y = boxFrom.posMin.y, outPosTo.y = boxTo.posMax.y;

  00347	8b 45 08	 mov	 eax, DWORD PTR _outPosFrom$[ebp]
  0034a	0f 57 c9	 xorps	 xmm1, xmm1
  0034d	0f 5a cb	 cvtps2pd xmm1, xmm3
  00350	0f 5a d0	 cvtps2pd xmm2, xmm0
  00353	66 0f 2f d1	 comisd	 xmm2, xmm1
  00357	76 0a		 jbe	 SHORT $LN11@calcTransf
  00359	f3 0f 11 40 04	 movss	 DWORD PTR [eax+4], xmm0
  0035e	d9 46 2c	 fld	 DWORD PTR [esi+44]

; 117  : 		else

  00361	eb 09		 jmp	 SHORT $LN118@calcTransf
$LN11@calcTransf:

; 118  : 			outPosFrom.y = boxFrom.posMax.y, outPosTo.y = boxTo.posMin.y;

  00363	d9 47 2c	 fld	 DWORD PTR [edi+44]
  00366	d9 58 04	 fstp	 DWORD PTR [eax+4]
  00369	d9 46 20	 fld	 DWORD PTR [esi+32]
$LN118@calcTransf:
  0036c	d9 5b 04	 fstp	 DWORD PTR [ebx+4]

; 119  : 		// /2 를 * FLOAT05로 변경
; 120  : 		outPosFrom.x = outPosTo.x = (min2( boxFrom.posMax.x, boxTo.posMax.x ) + max2( boxFrom.posMin.x, boxTo.posMin.x )) * FLOAT05;

  0036f	f3 0f 10 47 28	 movss	 xmm0, DWORD PTR [edi+40]
  00374	f3 0f 10 4e 28	 movss	 xmm1, DWORD PTR [esi+40]
  00379	0f 5a d0	 cvtps2pd xmm2, xmm0
  0037c	0f 5a d9	 cvtps2pd xmm3, xmm1
  0037f	66 0f 2f da	 comisd	 xmm3, xmm2
  00383	76 07		 jbe	 SHORT $LN35@calcTransf
  00385	f3 0f 11 45 fc	 movss	 DWORD PTR tv791[ebp], xmm0
  0038a	eb 05		 jmp	 SHORT $LN36@calcTransf
$LN35@calcTransf:
  0038c	f3 0f 11 4d fc	 movss	 DWORD PTR tv791[ebp], xmm1
$LN36@calcTransf:
  00391	f3 0f 10 47 1c	 movss	 xmm0, DWORD PTR [edi+28]
  00396	f3 0f 10 4e 1c	 movss	 xmm1, DWORD PTR [esi+28]
  0039b	0f 5a d0	 cvtps2pd xmm2, xmm0
  0039e	0f 5a d9	 cvtps2pd xmm3, xmm1
  003a1	66 0f 2f d3	 comisd	 xmm2, xmm3
  003a5	76 07		 jbe	 SHORT $LN39@calcTransf
  003a7	f3 0f 11 45 0c	 movss	 DWORD PTR tv793[ebp], xmm0
  003ac	eb 05		 jmp	 SHORT $LN40@calcTransf
$LN39@calcTransf:
  003ae	f3 0f 11 4d 0c	 movss	 DWORD PTR tv793[ebp], xmm1
$LN40@calcTransf:
  003b3	b8 05 00 00 00	 mov	 eax, 5
  003b8	8b c8		 mov	 ecx, eax
  003ba	b8 0a 00 00 00	 mov	 eax, 10			; 0000000aH
  003bf	89 4d f8	 mov	 DWORD PTR tv1040[ebp], ecx
  003c2	db 45 f8	 fild	 DWORD PTR tv1040[ebp]
  003c5	85 c9		 test	 ecx, ecx
  003c7	79 06		 jns	 SHORT $LN110@calcTransf
  003c9	d8 05 00 00 00
	00		 fadd	 DWORD PTR __real@4f800000
$LN110@calcTransf:
  003cf	89 45 f8	 mov	 DWORD PTR tv1036[ebp], eax
  003d2	db 45 f8	 fild	 DWORD PTR tv1036[ebp]
  003d5	85 c0		 test	 eax, eax
  003d7	79 06		 jns	 SHORT $LN111@calcTransf
  003d9	d8 05 00 00 00
	00		 fadd	 DWORD PTR __real@4f800000
$LN111@calcTransf:
  003df	de f9		 fdivp	 ST(1), ST(0)
  003e1	8b 45 08	 mov	 eax, DWORD PTR _outPosFrom$[ebp]
  003e4	d9 5d f8	 fstp	 DWORD PTR tv1032[ebp]
  003e7	d9 45 f8	 fld	 DWORD PTR tv1032[ebp]
  003ea	d9 45 0c	 fld	 DWORD PTR tv793[ebp]
  003ed	d8 45 fc	 fadd	 DWORD PTR tv791[ebp]
  003f0	de c9		 fmulp	 ST(1), ST(0)
  003f2	d9 5d 0c	 fstp	 DWORD PTR tv1128[ebp]
  003f5	d9 45 0c	 fld	 DWORD PTR tv1128[ebp]
  003f8	d9 1b		 fstp	 DWORD PTR [ebx]
  003fa	d9 45 0c	 fld	 DWORD PTR tv1128[ebp]
  003fd	d9 18		 fstp	 DWORD PTR [eax]
  003ff	e9 b4 00 00 00	 jmp	 $LN101@calcTransf
$LN17@calcTransf:

; 105  : 
; 106  : 		if ( boxTo.posMax.x < boxFrom.posMin.x )
; 107  : 			outPosFrom.x = boxFrom.posMin.x, outPosTo.x = boxTo.posMax.x;

  00404	8b 45 08	 mov	 eax, DWORD PTR _outPosFrom$[ebp]
  00407	0f 5a c0	 cvtps2pd xmm0, xmm0
  0040a	0f 5a d1	 cvtps2pd xmm2, xmm1
  0040d	66 0f 2f d0	 comisd	 xmm2, xmm0
  00411	76 09		 jbe	 SHORT $LN16@calcTransf
  00413	f3 0f 11 08	 movss	 DWORD PTR [eax], xmm1
  00417	d9 46 28	 fld	 DWORD PTR [esi+40]

; 108  : 		else

  0041a	eb 08		 jmp	 SHORT $LN119@calcTransf
$LN16@calcTransf:

; 109  : 			outPosFrom.x = boxFrom.posMax.x, outPosTo.x = boxTo.posMin.x;

  0041c	d9 47 28	 fld	 DWORD PTR [edi+40]
  0041f	d9 18		 fstp	 DWORD PTR [eax]
  00421	d9 46 1c	 fld	 DWORD PTR [esi+28]
$LN119@calcTransf:
  00424	d9 1b		 fstp	 DWORD PTR [ebx]

; 110  : 		// /2 를 * FLOAT05로 변경
; 111  : 		outPosFrom.y = outPosTo.y = (min2( boxFrom.posMax.y, boxTo.posMax.y ) + max2( boxFrom.posMin.y, boxTo.posMin.y )) * FLOAT05;

  00426	f3 0f 10 47 2c	 movss	 xmm0, DWORD PTR [edi+44]
  0042b	f3 0f 10 4e 2c	 movss	 xmm1, DWORD PTR [esi+44]
  00430	0f 5a d0	 cvtps2pd xmm2, xmm0
  00433	0f 5a d9	 cvtps2pd xmm3, xmm1
  00436	66 0f 2f da	 comisd	 xmm3, xmm2
  0043a	76 07		 jbe	 SHORT $LN23@calcTransf
  0043c	f3 0f 11 45 fc	 movss	 DWORD PTR tv787[ebp], xmm0
  00441	eb 05		 jmp	 SHORT $LN24@calcTransf
$LN23@calcTransf:
  00443	f3 0f 11 4d fc	 movss	 DWORD PTR tv787[ebp], xmm1
$LN24@calcTransf:
  00448	f3 0f 10 47 20	 movss	 xmm0, DWORD PTR [edi+32]
  0044d	f3 0f 10 4e 20	 movss	 xmm1, DWORD PTR [esi+32]
  00452	0f 5a d0	 cvtps2pd xmm2, xmm0
  00455	0f 5a d9	 cvtps2pd xmm3, xmm1
  00458	66 0f 2f d3	 comisd	 xmm2, xmm3
  0045c	76 07		 jbe	 SHORT $LN27@calcTransf
  0045e	f3 0f 11 45 0c	 movss	 DWORD PTR tv789[ebp], xmm0
  00463	eb 05		 jmp	 SHORT $LN28@calcTransf
$LN27@calcTransf:
  00465	f3 0f 11 4d 0c	 movss	 DWORD PTR tv789[ebp], xmm1
$LN28@calcTransf:
  0046a	b8 05 00 00 00	 mov	 eax, 5
  0046f	8b c8		 mov	 ecx, eax
  00471	b8 0a 00 00 00	 mov	 eax, 10			; 0000000aH
  00476	89 4d f8	 mov	 DWORD PTR tv1004[ebp], ecx
  00479	db 45 f8	 fild	 DWORD PTR tv1004[ebp]
  0047c	85 c9		 test	 ecx, ecx
  0047e	79 06		 jns	 SHORT $LN112@calcTransf
  00480	d8 05 00 00 00
	00		 fadd	 DWORD PTR __real@4f800000
$LN112@calcTransf:
  00486	89 45 f8	 mov	 DWORD PTR tv1000[ebp], eax
  00489	db 45 f8	 fild	 DWORD PTR tv1000[ebp]
  0048c	85 c0		 test	 eax, eax
  0048e	79 06		 jns	 SHORT $LN113@calcTransf
  00490	d8 05 00 00 00
	00		 fadd	 DWORD PTR __real@4f800000
$LN113@calcTransf:
  00496	de f9		 fdivp	 ST(1), ST(0)
  00498	8b 45 08	 mov	 eax, DWORD PTR _outPosFrom$[ebp]
  0049b	d9 5d f8	 fstp	 DWORD PTR tv996[ebp]
  0049e	d9 45 f8	 fld	 DWORD PTR tv996[ebp]
  004a1	d9 45 0c	 fld	 DWORD PTR tv789[ebp]
  004a4	d8 45 fc	 fadd	 DWORD PTR tv787[ebp]
  004a7	de c9		 fmulp	 ST(1), ST(0)
  004a9	d9 5d 0c	 fstp	 DWORD PTR tv1152[ebp]
  004ac	d9 45 0c	 fld	 DWORD PTR tv1152[ebp]
  004af	d9 5b 04	 fstp	 DWORD PTR [ebx+4]
  004b2	d9 45 0c	 fld	 DWORD PTR tv1152[ebp]
  004b5	d9 58 04	 fstp	 DWORD PTR [eax+4]
$LN101@calcTransf:

; 154  : 		}
; 155  : 	}
; 156  : 	// /2를 FLOAT05로 변경
; 157  : 	outPosFrom.z = (boxFrom.posMax.z + boxFrom.posMin.z) * FLOAT05;

  004b8	b8 05 00 00 00	 mov	 eax, 5
  004bd	8b c8		 mov	 ecx, eax
  004bf	b8 0a 00 00 00	 mov	 eax, 10			; 0000000aH
  004c4	d9 47 30	 fld	 DWORD PTR [edi+48]
  004c7	d8 47 24	 fadd	 DWORD PTR [edi+36]
  004ca	89 4d 0c	 mov	 DWORD PTR tv981[ebp], ecx
  004cd	db 45 0c	 fild	 DWORD PTR tv981[ebp]
  004d0	85 c9		 test	 ecx, ecx
  004d2	79 06		 jns	 SHORT $LN114@calcTransf
  004d4	d8 05 00 00 00
	00		 fadd	 DWORD PTR __real@4f800000
$LN114@calcTransf:
  004da	89 45 0c	 mov	 DWORD PTR tv975[ebp], eax
  004dd	db 45 0c	 fild	 DWORD PTR tv975[ebp]
  004e0	85 c0		 test	 eax, eax
  004e2	79 06		 jns	 SHORT $LN115@calcTransf
  004e4	d8 05 00 00 00
	00		 fadd	 DWORD PTR __real@4f800000
$LN115@calcTransf:
  004ea	de f9		 fdivp	 ST(1), ST(0)
  004ec	8b 45 08	 mov	 eax, DWORD PTR _outPosFrom$[ebp]
  004ef	d9 5d 0c	 fstp	 DWORD PTR tv970[ebp]
  004f2	d8 4d 0c	 fmul	 DWORD PTR tv970[ebp]
  004f5	d9 58 08	 fstp	 DWORD PTR [eax+8]

; 158  : 	// /2를 FLOAT05로 변경
; 159  : 	outPosTo.z = (boxTo.posMax.z + boxTo.posMin.z) * FLOAT05;

  004f8	b8 05 00 00 00	 mov	 eax, 5
  004fd	8b c8		 mov	 ecx, eax
  004ff	b8 0a 00 00 00	 mov	 eax, 10			; 0000000aH
  00504	d9 46 30	 fld	 DWORD PTR [esi+48]
  00507	d8 46 24	 fadd	 DWORD PTR [esi+36]
  0050a	89 4d 08	 mov	 DWORD PTR tv558[ebp], ecx
  0050d	db 45 08	 fild	 DWORD PTR tv558[ebp]
  00510	85 c9		 test	 ecx, ecx
  00512	79 06		 jns	 SHORT $LN116@calcTransf
  00514	d8 05 00 00 00
	00		 fadd	 DWORD PTR __real@4f800000
$LN116@calcTransf:
  0051a	89 45 08	 mov	 DWORD PTR tv874[ebp], eax
  0051d	db 45 08	 fild	 DWORD PTR tv874[ebp]
  00520	85 c0		 test	 eax, eax
  00522	79 06		 jns	 SHORT $LN117@calcTransf
  00524	d8 05 00 00 00
	00		 fadd	 DWORD PTR __real@4f800000
$LN117@calcTransf:
  0052a	de f9		 fdivp	 ST(1), ST(0)
  0052c	d9 5d 08	 fstp	 DWORD PTR tv881[ebp]
  0052f	d8 4d 08	 fmul	 DWORD PTR tv881[ebp]
  00532	d9 5b 08	 fstp	 DWORD PTR [ebx+8]
  00535	5b		 pop	 ebx

; 160  : }

  00536	c9		 leave
  00537	c3		 ret	 0
?calcTransferPoints@@YAXABUBox@BoxSpace@@0DAAUD3DXVECTOR3@@1@Z ENDP ; calcTransferPoints
_TEXT	ENDS
PUBLIC	??RFn_WalkLess@@QAE_NABULink@BoxSpace@@0@Z	; Fn_WalkLess::operator()
; Function compile flags: /Ogsp
;	COMDAT ??RFn_WalkLess@@QAE_NABULink@BoxSpace@@0@Z
_TEXT	SEGMENT
_a$ = 8							; size = 4
_b$ = 12						; size = 4
??RFn_WalkLess@@QAE_NABULink@BoxSpace@@0@Z PROC		; Fn_WalkLess::operator(), COMDAT
; _this$ = ecx

; 165  : 	{

  00000	55		 push	 ebp
  00001	8b ec		 mov	 ebp, esp

; 166  : 		return a.type == MOVETYPE_WALK && b.type != MOVETYPE_WALK;

  00003	8b 45 08	 mov	 eax, DWORD PTR _a$[ebp]
  00006	80 78 03 4c	 cmp	 BYTE PTR [eax+3], 76	; 0000004cH
  0000a	75 0e		 jne	 SHORT $LN3@operator
  0000c	8b 45 0c	 mov	 eax, DWORD PTR _b$[ebp]
  0000f	80 78 03 4c	 cmp	 BYTE PTR [eax+3], 76	; 0000004cH
  00013	74 05		 je	 SHORT $LN3@operator
  00015	33 c0		 xor	 eax, eax
  00017	40		 inc	 eax
  00018	eb 02		 jmp	 SHORT $LN4@operator
$LN3@operator:
  0001a	33 c0		 xor	 eax, eax
$LN4@operator:

; 167  : 	}

  0001c	5d		 pop	 ebp
  0001d	c2 08 00	 ret	 8
??RFn_WalkLess@@QAE_NABULink@BoxSpace@@0@Z ENDP		; Fn_WalkLess::operator()
_TEXT	ENDS
PUBLIC	_fabsf
; Function compile flags: /Ogsp
; File c:\program files (x86)\microsoft visual studio 10.0\vc\include\math.h
;	COMDAT _fabsf
_TEXT	SEGMENT
tv129 = 8						; size = 4
__X$ = 8						; size = 4
_fabsf	PROC						; COMDAT

; 395  :         {return ((float)fabs((double)_X)); }

  00000	55		 push	 ebp
  00001	8b ec		 mov	 ebp, esp
  00003	d9 45 08	 fld	 DWORD PTR __X$[ebp]
  00006	d9 e1		 fabs
  00008	d9 5d 08	 fstp	 DWORD PTR tv129[ebp]
  0000b	d9 45 08	 fld	 DWORD PTR tv129[ebp]
  0000e	5d		 pop	 ebp
  0000f	c3		 ret	 0
_fabsf	ENDP
_TEXT	ENDS
PUBLIC	_sqrtf
EXTRN	__CIsqrt:PROC
; Function compile flags: /Ogsp
;	COMDAT _sqrtf
_TEXT	SEGMENT
tv69 = 8						; size = 4
__X$ = 8						; size = 4
_sqrtf	PROC						; COMDAT

; 434  :         {return ((float)sqrt((double)_X)); }

  00000	55		 push	 ebp
  00001	8b ec		 mov	 ebp, esp
  00003	d9 45 08	 fld	 DWORD PTR __X$[ebp]
  00006	e8 00 00 00 00	 call	 __CIsqrt
  0000b	d9 5d 08	 fstp	 DWORD PTR tv69[ebp]
  0000e	d9 45 08	 fld	 DWORD PTR tv69[ebp]
  00011	5d		 pop	 ebp
  00012	c3		 ret	 0
_sqrtf	ENDP
_TEXT	ENDS
PUBLIC	?abs@@YAMM@Z					; abs
; Function compile flags: /Ogsp
;	COMDAT ?abs@@YAMM@Z
_TEXT	SEGMENT
tv131 = 8						; size = 4
__X$ = 8						; size = 4
?abs@@YAMM@Z PROC					; abs, COMDAT

; 500  :         {return (fabsf(_X)); }

  00000	55		 push	 ebp
  00001	8b ec		 mov	 ebp, esp
  00003	d9 45 08	 fld	 DWORD PTR __X$[ebp]
  00006	d9 e1		 fabs
  00008	d9 5d 08	 fstp	 DWORD PTR tv131[ebp]
  0000b	d9 45 08	 fld	 DWORD PTR tv131[ebp]
  0000e	5d		 pop	 ebp
  0000f	c3		 ret	 0
?abs@@YAMM@Z ENDP					; abs
_TEXT	ENDS
PUBLIC	?sqrt@@YAMM@Z					; sqrt
; Function compile flags: /Ogsp
;	COMDAT ?sqrt@@YAMM@Z
_TEXT	SEGMENT
tv73 = 8						; size = 4
__X$ = 8						; size = 4
?sqrt@@YAMM@Z PROC					; sqrt, COMDAT

; 542  :         {return (sqrtf(_X)); }

  00000	55		 push	 ebp
  00001	8b ec		 mov	 ebp, esp
  00003	d9 45 08	 fld	 DWORD PTR __X$[ebp]
  00006	e8 00 00 00 00	 call	 __CIsqrt
  0000b	d9 5d 08	 fstp	 DWORD PTR tv73[ebp]
  0000e	d9 45 08	 fld	 DWORD PTR tv73[ebp]
  00011	5d		 pop	 ebp
  00012	c3		 ret	 0
?sqrt@@YAMM@Z ENDP					; sqrt
; Function compile flags: /Ogsp
; File d:\lost saga for developer\youtube\tutorial\source\src\lsclient\boxgraph.cpp
_TEXT	ENDS
;	COMDAT ?getNearestPointInBox@@YAXABUD3DXVECTOR3@@00AAU1@M@Z
_TEXT	SEGMENT
tv437 = 8						; size = 4
tv432 = 8						; size = 4
tv428 = 8						; size = 4
tv415 = 8						; size = 4
tv409 = 8						; size = 4
tv405 = 8						; size = 4
$T509622 = 8						; size = 4
$T509606 = 8						; size = 4
_posFrom$ = 8						; size = 4
_outPos$ = 12						; size = 4
_xymargin$ = 16						; size = 4
?getNearestPointInBox@@YAXABUD3DXVECTOR3@@00AAU1@M@Z PROC ; getNearestPointInBox, COMDAT
; _posMin$ = ecx
; _posMax$ = edx

; 338  : {

  00000	55		 push	 ebp
  00001	8b ec		 mov	 ebp, esp
  00003	53		 push	 ebx
  00004	8b 5d 08	 mov	 ebx, DWORD PTR _posFrom$[ebp]
  00007	56		 push	 esi
  00008	57		 push	 edi

; 339  : 	outPos = posFrom;

  00009	8b 7d 0c	 mov	 edi, DWORD PTR _outPos$[ebp]
  0000c	8b f3		 mov	 esi, ebx
  0000e	a5		 movsd
  0000f	a5		 movsd
  00010	a5		 movsd

; 340  : 	// /2 를 * FLOAT05로 변경
; 341  : 	float xmargin = min2( xymargin, (posMax.x - posMin.x) * FLOAT05 );

  00011	b8 05 00 00 00	 mov	 eax, 5
  00016	8b f0		 mov	 esi, eax
  00018	b8 0a 00 00 00	 mov	 eax, 10			; 0000000aH
  0001d	89 75 08	 mov	 DWORD PTR tv437[ebp], esi
  00020	db 45 08	 fild	 DWORD PTR tv437[ebp]
  00023	85 f6		 test	 esi, esi
  00025	79 06		 jns	 SHORT $LN29@getNearest
  00027	d8 05 00 00 00
	00		 fadd	 DWORD PTR __real@4f800000
$LN29@getNearest:
  0002d	89 45 08	 mov	 DWORD PTR tv432[ebp], eax
  00030	db 45 08	 fild	 DWORD PTR tv432[ebp]
  00033	85 c0		 test	 eax, eax
  00035	79 06		 jns	 SHORT $LN30@getNearest
  00037	d8 05 00 00 00
	00		 fadd	 DWORD PTR __real@4f800000
$LN30@getNearest:
  0003d	de f9		 fdivp	 ST(1), ST(0)
  0003f	f3 0f 10 5d 10	 movss	 xmm3, DWORD PTR _xymargin$[ebp]
  00044	d9 5d 08	 fstp	 DWORD PTR tv428[ebp]
  00047	d9 45 08	 fld	 DWORD PTR tv428[ebp]
  0004a	d9 02		 fld	 DWORD PTR [edx]
  0004c	d8 21		 fsub	 DWORD PTR [ecx]
  0004e	de c9		 fmulp	 ST(1), ST(0)
  00050	d9 5d 08	 fstp	 DWORD PTR $T509606[ebp]
  00053	d9 45 10	 fld	 DWORD PTR _xymargin$[ebp]
  00056	d9 45 08	 fld	 DWORD PTR $T509606[ebp]
  00059	df f1		 fcomip	 ST(1)
  0005b	dd d8		 fstp	 ST(0)
  0005d	76 05		 jbe	 SHORT $LN18@getNearest
  0005f	0f 28 d3	 movaps	 xmm2, xmm3
  00062	eb 05		 jmp	 SHORT $LN19@getNearest
$LN18@getNearest:
  00064	f3 0f 10 55 08	 movss	 xmm2, DWORD PTR $T509606[ebp]
$LN19@getNearest:

; 342  : 	float ymargin = min2( xymargin, (posMax.y - posMin.y) * FLOAT05 );

  00069	b8 05 00 00 00	 mov	 eax, 5
  0006e	8b f0		 mov	 esi, eax
  00070	b8 0a 00 00 00	 mov	 eax, 10			; 0000000aH
  00075	89 75 08	 mov	 DWORD PTR tv415[ebp], esi
  00078	db 45 08	 fild	 DWORD PTR tv415[ebp]
  0007b	85 f6		 test	 esi, esi
  0007d	79 06		 jns	 SHORT $LN31@getNearest
  0007f	d8 05 00 00 00
	00		 fadd	 DWORD PTR __real@4f800000
$LN31@getNearest:
  00085	89 45 08	 mov	 DWORD PTR tv409[ebp], eax
  00088	db 45 08	 fild	 DWORD PTR tv409[ebp]
  0008b	85 c0		 test	 eax, eax
  0008d	79 06		 jns	 SHORT $LN32@getNearest
  0008f	d8 05 00 00 00
	00		 fadd	 DWORD PTR __real@4f800000
$LN32@getNearest:
  00095	de f9		 fdivp	 ST(1), ST(0)
  00097	d9 5d 08	 fstp	 DWORD PTR tv405[ebp]
  0009a	d9 45 08	 fld	 DWORD PTR tv405[ebp]
  0009d	d9 42 04	 fld	 DWORD PTR [edx+4]
  000a0	d8 61 04	 fsub	 DWORD PTR [ecx+4]
  000a3	de c9		 fmulp	 ST(1), ST(0)
  000a5	d9 5d 08	 fstp	 DWORD PTR $T509622[ebp]
  000a8	d9 45 10	 fld	 DWORD PTR _xymargin$[ebp]
  000ab	d9 45 08	 fld	 DWORD PTR $T509622[ebp]
  000ae	df f1		 fcomip	 ST(1)
  000b0	dd d8		 fstp	 ST(0)
  000b2	77 05		 ja	 SHORT $LN27@getNearest
  000b4	f3 0f 10 5d 08	 movss	 xmm3, DWORD PTR $T509622[ebp]
$LN27@getNearest:

; 343  : 
; 344  : 	if ( posFrom.x <= posMin.x + xmargin ) 

  000b9	f3 0f 10 01	 movss	 xmm0, DWORD PTR [ecx]
  000bd	f3 0f 10 0b	 movss	 xmm1, DWORD PTR [ebx]

; 345  : 		outPos.x = posMin.x + xmargin; 

  000c1	8b 45 0c	 mov	 eax, DWORD PTR _outPos$[ebp]
  000c4	0f 57 e4	 xorps	 xmm4, xmm4
  000c7	f3 0f 5a e2	 cvtss2sd xmm4, xmm2
  000cb	0f 5a c0	 cvtps2pd xmm0, xmm0
  000ce	f2 0f 58 c4	 addsd	 xmm0, xmm4
  000d2	0f 5a e1	 cvtps2pd xmm4, xmm1
  000d5	66 0f 2f c4	 comisd	 xmm0, xmm4
  000d9	73 18		 jae	 SHORT $LN35@getNearest

; 346  : 	else if ( posFrom.x >= posMax.x - xmargin ) 

  000db	f3 0f 10 02	 movss	 xmm0, DWORD PTR [edx]
  000df	0f 5a c0	 cvtps2pd xmm0, xmm0
  000e2	f3 0f 5a d2	 cvtss2sd xmm2, xmm2
  000e6	f2 0f 5c c2	 subsd	 xmm0, xmm2
  000ea	0f 5a c9	 cvtps2pd xmm1, xmm1
  000ed	66 0f 2f c8	 comisd	 xmm1, xmm0
  000f1	72 08		 jb	 SHORT $LN7@getNearest
$LN35@getNearest:

; 347  : 		outPos.x = posMax.x - xmargin;

  000f3	66 0f 5a c0	 cvtpd2ps xmm0, xmm0
  000f7	f3 0f 11 00	 movss	 DWORD PTR [eax], xmm0
$LN7@getNearest:

; 348  : 
; 349  : 	if ( posFrom.y <= posMin.y + ymargin ) 

  000fb	f3 0f 10 41 04	 movss	 xmm0, DWORD PTR [ecx+4]
  00100	f3 0f 10 4b 04	 movss	 xmm1, DWORD PTR [ebx+4]
  00105	0f 5a d3	 cvtps2pd xmm2, xmm3
  00108	0f 5a c0	 cvtps2pd xmm0, xmm0
  0010b	f2 0f 58 c2	 addsd	 xmm0, xmm2
  0010f	0f 5a d1	 cvtps2pd xmm2, xmm1
  00112	66 0f 2f c2	 comisd	 xmm0, xmm2

; 350  : 		outPos.y = posMin.y + ymargin; 

  00116	73 18		 jae	 SHORT $LN33@getNearest

; 351  : 	else if ( posFrom.y >= posMax.y - ymargin ) 

  00118	f3 0f 10 42 04	 movss	 xmm0, DWORD PTR [edx+4]
  0011d	0f 5a c0	 cvtps2pd xmm0, xmm0
  00120	0f 5a d3	 cvtps2pd xmm2, xmm3
  00123	f2 0f 5c c2	 subsd	 xmm0, xmm2
  00127	0f 5a c9	 cvtps2pd xmm1, xmm1
  0012a	66 0f 2f c8	 comisd	 xmm1, xmm0
  0012e	72 09		 jb	 SHORT $LN4@getNearest
$LN33@getNearest:

; 352  : 		outPos.y = posMax.y - ymargin;

  00130	66 0f 5a c0	 cvtpd2ps xmm0, xmm0
  00134	f3 0f 11 40 04	 movss	 DWORD PTR [eax+4], xmm0
$LN4@getNearest:

; 353  : 
; 354  : 	if ( posFrom.z <= posMin.z ) 

  00139	f3 0f 10 4b 08	 movss	 xmm1, DWORD PTR [ebx+8]
  0013e	f3 0f 10 41 08	 movss	 xmm0, DWORD PTR [ecx+8]
  00143	5f		 pop	 edi
  00144	0f 5a d1	 cvtps2pd xmm2, xmm1
  00147	0f 5a d8	 cvtps2pd xmm3, xmm0
  0014a	66 0f 2f da	 comisd	 xmm3, xmm2
  0014e	5e		 pop	 esi
  0014f	5b		 pop	 ebx

; 355  : 		outPos.z = posMin.z; 

  00150	73 11		 jae	 SHORT $LN34@getNearest

; 356  : 	else if ( posFrom.z >= posMax.z ) 

  00152	f3 0f 10 42 08	 movss	 xmm0, DWORD PTR [edx+8]
  00157	0f 5a c9	 cvtps2pd xmm1, xmm1
  0015a	0f 5a d0	 cvtps2pd xmm2, xmm0
  0015d	66 0f 2f ca	 comisd	 xmm1, xmm2
  00161	72 05		 jb	 SHORT $LN1@getNearest
$LN34@getNearest:

; 357  : 		outPos.z = posMax.z;

  00163	f3 0f 11 40 08	 movss	 DWORD PTR [eax+8], xmm0
$LN1@getNearest:

; 358  : }

  00168	5d		 pop	 ebp
  00169	c3		 ret	 0
?getNearestPointInBox@@YAXABUD3DXVECTOR3@@00AAU1@M@Z ENDP ; getNearestPointInBox
_TEXT	ENDS
PUBLIC	??_7bad_alloc@std@@6B@				; std::bad_alloc::`vftable'
PUBLIC	??0bad_alloc@std@@QAE@PBD@Z			; std::bad_alloc::bad_alloc
PUBLIC	??_R4bad_alloc@std@@6B@				; std::bad_alloc::`RTTI Complete Object Locator'
PUBLIC	??_R0?AVbad_alloc@std@@@8			; std::bad_alloc `RTTI Type Descriptor'
PUBLIC	??_R3bad_alloc@std@@8				; std::bad_alloc::`RTTI Class Hierarchy Descriptor'
PUBLIC	??_R2bad_alloc@std@@8				; std::bad_alloc::`RTTI Base Class Array'
PUBLIC	??_R1A@?0A@EA@bad_alloc@std@@8			; std::bad_alloc::`RTTI Base Class Descriptor at (0,-1,0,64)'
PUBLIC	??_R1A@?0A@EA@exception@std@@8			; std::exception::`RTTI Base Class Descriptor at (0,-1,0,64)'
PUBLIC	??_R0?AVexception@std@@@8			; std::exception `RTTI Type Descriptor'
PUBLIC	??_R3exception@std@@8				; std::exception::`RTTI Class Hierarchy Descriptor'
PUBLIC	??_R2exception@std@@8				; std::exception::`RTTI Base Class Array'
EXTRN	__imp_??0exception@std@@QAE@ABQBD@Z:PROC
EXTRN	??_7type_info@@6B@:QWORD			; type_info::`vftable'
EXTRN	??_Ebad_alloc@std@@UAEPAXI@Z:PROC		; std::bad_alloc::`vector deleting destructor'
EXTRN	?what@exception@std@@UBEPBDXZ:PROC		; std::exception::what
;	COMDAT ??_R2exception@std@@8
; File c:\program files (x86)\microsoft visual studio 10.0\vc\include\exception
rdata$r	SEGMENT
??_R2exception@std@@8 DD FLAT:??_R1A@?0A@EA@exception@std@@8 ; std::exception::`RTTI Base Class Array'
rdata$r	ENDS
;	COMDAT ??_R3exception@std@@8
rdata$r	SEGMENT
??_R3exception@std@@8 DD 00H				; std::exception::`RTTI Class Hierarchy Descriptor'
	DD	00H
	DD	01H
	DD	FLAT:??_R2exception@std@@8
rdata$r	ENDS
;	COMDAT ??_R0?AVexception@std@@@8
_DATA	SEGMENT
??_R0?AVexception@std@@@8 DD FLAT:??_7type_info@@6B@	; std::exception `RTTI Type Descriptor'
	DD	00H
	DB	'.?AVexception@std@@', 00H
_DATA	ENDS
;	COMDAT ??_R1A@?0A@EA@exception@std@@8
rdata$r	SEGMENT
??_R1A@?0A@EA@exception@std@@8 DD FLAT:??_R0?AVexception@std@@@8 ; std::exception::`RTTI Base Class Descriptor at (0,-1,0,64)'
	DD	00H
	DD	00H
	DD	0ffffffffH
	DD	00H
	DD	040H
	DD	FLAT:??_R3exception@std@@8
rdata$r	ENDS
;	COMDAT ??_R1A@?0A@EA@bad_alloc@std@@8
rdata$r	SEGMENT
??_R1A@?0A@EA@bad_alloc@std@@8 DD FLAT:??_R0?AVbad_alloc@std@@@8 ; std::bad_alloc::`RTTI Base Class Descriptor at (0,-1,0,64)'
	DD	01H
	DD	00H
	DD	0ffffffffH
	DD	00H
	DD	040H
	DD	FLAT:??_R3bad_alloc@std@@8
rdata$r	ENDS
;	COMDAT ??_R2bad_alloc@std@@8
rdata$r	SEGMENT
??_R2bad_alloc@std@@8 DD FLAT:??_R1A@?0A@EA@bad_alloc@std@@8 ; std::bad_alloc::`RTTI Base Class Array'
	DD	FLAT:??_R1A@?0A@EA@exception@std@@8
rdata$r	ENDS
;	COMDAT ??_R3bad_alloc@std@@8
rdata$r	SEGMENT
??_R3bad_alloc@std@@8 DD 00H				; std::bad_alloc::`RTTI Class Hierarchy Descriptor'
	DD	00H
	DD	02H
	DD	FLAT:??_R2bad_alloc@std@@8
rdata$r	ENDS
;	COMDAT ??_R0?AVbad_alloc@std@@@8
_DATA	SEGMENT
??_R0?AVbad_alloc@std@@@8 DD FLAT:??_7type_info@@6B@	; std::bad_alloc `RTTI Type Descriptor'
	DD	00H
	DB	'.?AVbad_alloc@std@@', 00H
_DATA	ENDS
;	COMDAT ??_R4bad_alloc@std@@6B@
rdata$r	SEGMENT
??_R4bad_alloc@std@@6B@ DD 00H				; std::bad_alloc::`RTTI Complete Object Locator'
	DD	00H
	DD	00H
	DD	FLAT:??_R0?AVbad_alloc@std@@@8
	DD	FLAT:??_R3bad_alloc@std@@8
rdata$r	ENDS
;	COMDAT ??_7bad_alloc@std@@6B@
CONST	SEGMENT
??_7bad_alloc@std@@6B@ DD FLAT:??_R4bad_alloc@std@@6B@	; std::bad_alloc::`vftable'
	DD	FLAT:??_Ebad_alloc@std@@UAEPAXI@Z
	DD	FLAT:?what@exception@std@@UBEPBDXZ
; Function compile flags: /Ogsp
CONST	ENDS
;	COMDAT ??0bad_alloc@std@@QAE@PBD@Z
_TEXT	SEGMENT
__Message$ = 8						; size = 4
??0bad_alloc@std@@QAE@PBD@Z PROC			; std::bad_alloc::bad_alloc, COMDAT
; _this$ = ecx

; 345  : 		{	// construct from message string

  00000	55		 push	 ebp
  00001	8b ec		 mov	 ebp, esp
  00003	56		 push	 esi
  00004	8d 45 08	 lea	 eax, DWORD PTR __Message$[ebp]
  00007	50		 push	 eax
  00008	8b f1		 mov	 esi, ecx
  0000a	ff 15 00 00 00
	00		 call	 DWORD PTR __imp_??0exception@std@@QAE@ABQBD@Z
  00010	c7 06 00 00 00
	00		 mov	 DWORD PTR [esi], OFFSET ??_7bad_alloc@std@@6B@

; 346  : 		}

  00016	8b c6		 mov	 eax, esi
  00018	5e		 pop	 esi
  00019	5d		 pop	 ebp
  0001a	c2 04 00	 ret	 4
??0bad_alloc@std@@QAE@PBD@Z ENDP			; std::bad_alloc::bad_alloc
; Function compile flags: /Ogsp
; File d:\lost saga for developer\youtube\tutorial\source\src\lsclient\boxgraph.cpp
_TEXT	ENDS
;	COMDAT ?getJumpValues@@YAXMMMAAM0@Z
_TEXT	SEGMENT
tv179 = -4						; size = 4
_jumpCurveH$ = 8					; size = 4
tv161 = 12						; size = 4
_jumpCurveV$ = 12					; size = 4
tv173 = 16						; size = 4
tv167 = 16						; size = 4
_ff$ = 16						; size = 4
_vdist$ = 16						; size = 4
_outDistTotal$ = 20					; size = 4
?getJumpValues@@YAXMMMAAM0@Z PROC			; getJumpValues, COMDAT
; _outDistOver$ = esi

; 362  : {

  00000	55		 push	 ebp
  00001	8b ec		 mov	 ebp, esp
  00003	51		 push	 ecx

; 363  : 	float ff = sqrt( FLOAT1 - vdist / jumpCurveV );

  00004	b8 01 00 00 00	 mov	 eax, 1
  00009	89 45 fc	 mov	 DWORD PTR tv179[ebp], eax
  0000c	db 45 fc	 fild	 DWORD PTR tv179[ebp]
  0000f	85 c0		 test	 eax, eax
  00011	79 06		 jns	 SHORT $LN11@getJumpVal
  00013	d8 05 00 00 00
	00		 fadd	 DWORD PTR __real@4f800000
$LN11@getJumpVal:
  00019	d9 45 10	 fld	 DWORD PTR _vdist$[ebp]
  0001c	d8 75 0c	 fdiv	 DWORD PTR _jumpCurveV$[ebp]
  0001f	de e9		 fsubp	 ST(1), ST(0)
  00021	d9 5d 10	 fstp	 DWORD PTR tv173[ebp]
  00024	d9 45 10	 fld	 DWORD PTR tv173[ebp]
  00027	e8 00 00 00 00	 call	 __CIsqrt
  0002c	d9 5d 10	 fstp	 DWORD PTR tv167[ebp]
  0002f	d9 45 10	 fld	 DWORD PTR tv167[ebp]
  00032	d9 5d 10	 fstp	 DWORD PTR _ff$[ebp]

; 364  : 	outDistOver = 2 * jumpCurveH * ff;

  00035	d9 45 08	 fld	 DWORD PTR _jumpCurveH$[ebp]
  00038	dc c0		 fadd	 ST(0), ST(0)
  0003a	d8 4d 10	 fmul	 DWORD PTR _ff$[ebp]
  0003d	d9 1e		 fstp	 DWORD PTR [esi]

; 365  : 	outDistTotal = jumpCurveH * ( FLOAT1 - ff ) + outDistOver;

  0003f	b8 01 00 00 00	 mov	 eax, 1
  00044	89 45 0c	 mov	 DWORD PTR tv161[ebp], eax
  00047	db 45 0c	 fild	 DWORD PTR tv161[ebp]
  0004a	85 c0		 test	 eax, eax
  0004c	79 06		 jns	 SHORT $LN12@getJumpVal
  0004e	d8 05 00 00 00
	00		 fadd	 DWORD PTR __real@4f800000
$LN12@getJumpVal:
  00054	d8 65 10	 fsub	 DWORD PTR _ff$[ebp]
  00057	8b 45 14	 mov	 eax, DWORD PTR _outDistTotal$[ebp]
  0005a	d8 4d 08	 fmul	 DWORD PTR _jumpCurveH$[ebp]
  0005d	d8 06		 fadd	 DWORD PTR [esi]
  0005f	d9 18		 fstp	 DWORD PTR [eax]

; 366  : }

  00061	c9		 leave
  00062	c3		 ret	 0
?getJumpValues@@YAXMMMAAM0@Z ENDP			; getJumpValues
_TEXT	ENDS
PUBLIC	__real@00000000
;	COMDAT __real@00000000
; File d:\lost saga for developer\youtube\tutorial\source\src\lsclient\stdafx.h
CONST	SEGMENT
__real@00000000 DD 000000000r			; 0
; Function compile flags: /Ogsp
; File d:\lost saga for developer\youtube\tutorial\source\src\lsclient\boxgraph.cpp
CONST	ENDS
;	COMDAT ?adjustForJump@@YAXABUD3DXVECTOR3@@0000MMMAAU1@@Z
_TEXT	SEGMENT
tv701 = -8						; size = 4
tv697 = -8						; size = 4
$T509704 = -8						; size = 4
tv693 = -4						; size = 4
$T509688 = -4						; size = 4
_ymargin$ = -4						; size = 4
_d_over$ = 8						; size = 4
_pos$ = 8						; size = 4
_fromMin$ = 12						; size = 4
tv722 = 16						; size = 4
tv718 = 16						; size = 4
tv714 = 16						; size = 4
$T509672 = 16						; size = 4
_xmargin$ = 16						; size = 4
_fromMax$ = 16						; size = 4
_toMin$ = 20						; size = 4
_toMax$ = 24						; size = 4
_jumpCurveH$ = 28					; size = 4
_jumpCurveV$ = 32					; size = 4
tv677 = 36						; size = 4
tv673 = 36						; size = 4
tv667 = 36						; size = 4
tv660 = 36						; size = 4
tv656 = 36						; size = 4
tv650 = 36						; size = 4
_d_total$ = 36						; size = 4
_heightDiff$ = 36					; size = 4
_xymargin$ = 36						; size = 4
_outPos$ = 40						; size = 4
?adjustForJump@@YAXABUD3DXVECTOR3@@0000MMMAAU1@@Z PROC	; adjustForJump, COMDAT

; 371  : {

  00000	55		 push	 ebp
  00001	8b ec		 mov	 ebp, esp
  00003	51		 push	 ecx
  00004	51		 push	 ecx
  00005	53		 push	 ebx
  00006	8b 5d 10	 mov	 ebx, DWORD PTR _fromMax$[ebp]
  00009	56		 push	 esi

; 372  : 	// /2를 FLOAT05로 변경
; 373  : 	float xmargin = min2( xymargin, (fromMax.x - fromMin.x) * FLOAT05 ), ymargin = min2( xymargin, (fromMax.y - fromMin.y) * FLOAT05 );

  0000a	b8 05 00 00 00	 mov	 eax, 5
  0000f	8b c8		 mov	 ecx, eax
  00011	b8 0a 00 00 00	 mov	 eax, 10			; 0000000aH
  00016	89 4d 10	 mov	 DWORD PTR tv722[ebp], ecx
  00019	db 45 10	 fild	 DWORD PTR tv722[ebp]
  0001c	85 c9		 test	 ecx, ecx
  0001e	79 06		 jns	 SHORT $LN47@adjustForJ
  00020	d8 05 00 00 00
	00		 fadd	 DWORD PTR __real@4f800000
$LN47@adjustForJ:
  00026	89 45 10	 mov	 DWORD PTR tv718[ebp], eax
  00029	db 45 10	 fild	 DWORD PTR tv718[ebp]
  0002c	85 c0		 test	 eax, eax
  0002e	79 06		 jns	 SHORT $LN48@adjustForJ
  00030	d8 05 00 00 00
	00		 fadd	 DWORD PTR __real@4f800000
$LN48@adjustForJ:
  00036	de f9		 fdivp	 ST(1), ST(0)
  00038	8b 4d 0c	 mov	 ecx, DWORD PTR _fromMin$[ebp]
  0003b	f3 0f 10 45 24	 movss	 xmm0, DWORD PTR _xymargin$[ebp]
  00040	d9 5d 10	 fstp	 DWORD PTR tv714[ebp]
  00043	d9 45 10	 fld	 DWORD PTR tv714[ebp]
  00046	d9 03		 fld	 DWORD PTR [ebx]
  00048	d8 21		 fsub	 DWORD PTR [ecx]
  0004a	de c9		 fmulp	 ST(1), ST(0)
  0004c	d9 5d 10	 fstp	 DWORD PTR $T509672[ebp]
  0004f	d9 45 24	 fld	 DWORD PTR _xymargin$[ebp]
  00052	d9 45 10	 fld	 DWORD PTR $T509672[ebp]
  00055	df f1		 fcomip	 ST(1)
  00057	dd d8		 fstp	 ST(0)
  00059	76 07		 jbe	 SHORT $LN29@adjustForJ
  0005b	f3 0f 11 45 10	 movss	 DWORD PTR _xmargin$[ebp], xmm0
  00060	eb 0a		 jmp	 SHORT $LN30@adjustForJ
$LN29@adjustForJ:
  00062	f3 0f 10 4d 10	 movss	 xmm1, DWORD PTR $T509672[ebp]
  00067	f3 0f 11 4d 10	 movss	 DWORD PTR _xmargin$[ebp], xmm1
$LN30@adjustForJ:
  0006c	b8 05 00 00 00	 mov	 eax, 5
  00071	8b d0		 mov	 edx, eax
  00073	b8 0a 00 00 00	 mov	 eax, 10			; 0000000aH
  00078	89 55 f8	 mov	 DWORD PTR tv701[ebp], edx
  0007b	db 45 f8	 fild	 DWORD PTR tv701[ebp]
  0007e	85 d2		 test	 edx, edx
  00080	79 06		 jns	 SHORT $LN49@adjustForJ
  00082	d8 05 00 00 00
	00		 fadd	 DWORD PTR __real@4f800000
$LN49@adjustForJ:
  00088	89 45 f8	 mov	 DWORD PTR tv697[ebp], eax
  0008b	db 45 f8	 fild	 DWORD PTR tv697[ebp]
  0008e	85 c0		 test	 eax, eax
  00090	79 06		 jns	 SHORT $LN50@adjustForJ
  00092	d8 05 00 00 00
	00		 fadd	 DWORD PTR __real@4f800000
$LN50@adjustForJ:
  00098	de f9		 fdivp	 ST(1), ST(0)
  0009a	d9 5d fc	 fstp	 DWORD PTR tv693[ebp]
  0009d	d9 45 fc	 fld	 DWORD PTR tv693[ebp]
  000a0	d9 43 04	 fld	 DWORD PTR [ebx+4]
  000a3	d8 61 04	 fsub	 DWORD PTR [ecx+4]
  000a6	de c9		 fmulp	 ST(1), ST(0)
  000a8	d9 5d fc	 fstp	 DWORD PTR $T509688[ebp]
  000ab	d9 45 24	 fld	 DWORD PTR _xymargin$[ebp]
  000ae	d9 45 fc	 fld	 DWORD PTR $T509688[ebp]
  000b1	df f1		 fcomip	 ST(1)
  000b3	dd d8		 fstp	 ST(0)
  000b5	77 05		 ja	 SHORT $LN55@adjustForJ
  000b7	f3 0f 10 45 fc	 movss	 xmm0, DWORD PTR $T509688[ebp]
$LN55@adjustForJ:
  000bc	f3 0f 11 45 fc	 movss	 DWORD PTR _ymargin$[ebp], xmm0
  000c1	57		 push	 edi

; 374  : 	float heightDiff = (toMax.z + toMin.z) * FLOAT05 - (fromMax.z + fromMin.z) * FLOAT05;

  000c2	b8 05 00 00 00	 mov	 eax, 5
  000c7	8b d0		 mov	 edx, eax
  000c9	b8 0a 00 00 00	 mov	 eax, 10			; 0000000aH
  000ce	8b f0		 mov	 esi, eax
  000d0	b8 05 00 00 00	 mov	 eax, 5
  000d5	8b f8		 mov	 edi, eax
  000d7	b8 0a 00 00 00	 mov	 eax, 10			; 0000000aH
  000dc	89 45 f8	 mov	 DWORD PTR $T509704[ebp], eax
  000df	8b 45 14	 mov	 eax, DWORD PTR _toMin$[ebp]
  000e2	d9 40 08	 fld	 DWORD PTR [eax+8]
  000e5	8b 45 18	 mov	 eax, DWORD PTR _toMax$[ebp]
  000e8	d8 40 08	 fadd	 DWORD PTR [eax+8]
  000eb	89 55 24	 mov	 DWORD PTR tv677[ebp], edx
  000ee	db 45 24	 fild	 DWORD PTR tv677[ebp]
  000f1	85 d2		 test	 edx, edx
  000f3	79 06		 jns	 SHORT $LN51@adjustForJ
  000f5	d8 05 00 00 00
	00		 fadd	 DWORD PTR __real@4f800000
$LN51@adjustForJ:
  000fb	89 75 24	 mov	 DWORD PTR tv673[ebp], esi
  000fe	db 45 24	 fild	 DWORD PTR tv673[ebp]
  00101	85 f6		 test	 esi, esi
  00103	79 06		 jns	 SHORT $LN52@adjustForJ
  00105	d8 05 00 00 00
	00		 fadd	 DWORD PTR __real@4f800000
$LN52@adjustForJ:
  0010b	de f9		 fdivp	 ST(1), ST(0)
  0010d	d9 5d 24	 fstp	 DWORD PTR tv667[ebp]
  00110	d8 4d 24	 fmul	 DWORD PTR tv667[ebp]
  00113	89 7d 24	 mov	 DWORD PTR tv660[ebp], edi
  00116	d9 41 08	 fld	 DWORD PTR [ecx+8]
  00119	d8 43 08	 fadd	 DWORD PTR [ebx+8]
  0011c	db 45 24	 fild	 DWORD PTR tv660[ebp]
  0011f	85 ff		 test	 edi, edi
  00121	79 06		 jns	 SHORT $LN53@adjustForJ
  00123	d8 05 00 00 00
	00		 fadd	 DWORD PTR __real@4f800000
$LN53@adjustForJ:
  00129	8b 45 f8	 mov	 eax, DWORD PTR $T509704[ebp]
  0012c	db 45 f8	 fild	 DWORD PTR $T509704[ebp]
  0012f	85 c0		 test	 eax, eax
  00131	79 06		 jns	 SHORT $LN54@adjustForJ
  00133	d8 05 00 00 00
	00		 fadd	 DWORD PTR __real@4f800000
$LN54@adjustForJ:
  00139	de f9		 fdivp	 ST(1), ST(0)

; 375  : 	outPos = pos;

  0013b	8b 75 08	 mov	 esi, DWORD PTR _pos$[ebp]
  0013e	8b 7d 28	 mov	 edi, DWORD PTR _outPos$[ebp]
  00141	a5		 movsd
  00142	a5		 movsd
  00143	a5		 movsd
  00144	5f		 pop	 edi
  00145	d9 5d 24	 fstp	 DWORD PTR tv650[ebp]
  00148	d8 4d 24	 fmul	 DWORD PTR tv650[ebp]
  0014b	de e9		 fsubp	 ST(1), ST(0)
  0014d	d9 5d 24	 fstp	 DWORD PTR _heightDiff$[ebp]

; 376  : 
; 377  : 	if ( heightDiff <= 0 )

  00150	d9 45 24	 fld	 DWORD PTR _heightDiff$[ebp]
  00153	d9 ee		 fldz
  00155	df f1		 fcomip	 ST(1)
  00157	dd d8		 fstp	 ST(0)
  00159	0f 83 7d 02 00
	00		 jae	 $LN1@adjustForJ

; 378  : 		return;
; 379  : 
; 380  : 	float d_total, d_over;
; 381  : 	getJumpValues( jumpCurveH, jumpCurveV, heightDiff, d_total, d_over );

  0015f	f3 0f 10 45 24	 movss	 xmm0, DWORD PTR _heightDiff$[ebp]
  00164	8d 45 24	 lea	 eax, DWORD PTR _d_total$[ebp]
  00167	50		 push	 eax
  00168	83 ec 0c	 sub	 esp, 12			; 0000000cH
  0016b	f3 0f 11 44 24
	08		 movss	 DWORD PTR [esp+8], xmm0
  00171	f3 0f 10 45 20	 movss	 xmm0, DWORD PTR _jumpCurveV$[ebp]
  00176	f3 0f 11 44 24
	04		 movss	 DWORD PTR [esp+4], xmm0
  0017c	f3 0f 10 45 1c	 movss	 xmm0, DWORD PTR _jumpCurveH$[ebp]
  00181	8d 75 08	 lea	 esi, DWORD PTR _d_over$[ebp]
  00184	f3 0f 11 04 24	 movss	 DWORD PTR [esp], xmm0
  00189	e8 00 00 00 00	 call	 ?getJumpValues@@YAXMMMAAM0@Z ; getJumpValues

; 382  : 
; 383  : 	if ( toMax.x <= fromMin.x ) {

  0018e	8b 4d 18	 mov	 ecx, DWORD PTR _toMax$[ebp]
  00191	8b 55 0c	 mov	 edx, DWORD PTR _fromMin$[ebp]
  00194	f3 0f 10 01	 movss	 xmm0, DWORD PTR [ecx]
  00198	f3 0f 10 0a	 movss	 xmm1, DWORD PTR [edx]

; 384  : 
; 385  : 		if ( d_over > toMax.x - toMin.x ) {

  0019c	8b 45 14	 mov	 eax, DWORD PTR _toMin$[ebp]
  0019f	0f 57 d2	 xorps	 xmm2, xmm2
  001a2	0f 57 db	 xorps	 xmm3, xmm3
  001a5	83 c4 10	 add	 esp, 16			; 00000010H
  001a8	0f 5a d0	 cvtps2pd xmm2, xmm0
  001ab	0f 5a d9	 cvtps2pd xmm3, xmm1
  001ae	66 0f 2f da	 comisd	 xmm3, xmm2
  001b2	72 77		 jb	 SHORT $LN19@adjustForJ
  001b4	f3 0f 10 08	 movss	 xmm1, DWORD PTR [eax]
  001b8	f3 0f 10 55 08	 movss	 xmm2, DWORD PTR _d_over$[ebp]
  001bd	0f 5a c0	 cvtps2pd xmm0, xmm0
  001c0	0f 5a d9	 cvtps2pd xmm3, xmm1
  001c3	f2 0f 5c c3	 subsd	 xmm0, xmm3
  001c7	66 0f 5a c0	 cvtpd2ps xmm0, xmm0
  001cb	0f 5a d2	 cvtps2pd xmm2, xmm2
  001ce	f3 0f 5a c0	 cvtss2sd xmm0, xmm0
  001d2	66 0f 2f d0	 comisd	 xmm2, xmm0
  001d6	0f 86 00 02 00
	00		 jbe	 $LN1@adjustForJ

; 386  : 			if ( d_total > xmargin + fromMax.x - toMin.x )

  001dc	f3 0f 10 65 10	 movss	 xmm4, DWORD PTR _xmargin$[ebp]
  001e1	f3 0f 10 03	 movss	 xmm0, DWORD PTR [ebx]
  001e5	f3 0f 10 55 24	 movss	 xmm2, DWORD PTR _d_total$[ebp]

; 387  : 				outPos.x = fromMax.x;

  001ea	8b 45 28	 mov	 eax, DWORD PTR _outPos$[ebp]
  001ed	0f 5a e4	 cvtps2pd xmm4, xmm4
  001f0	0f 5a d8	 cvtps2pd xmm3, xmm0
  001f3	f2 0f 58 dc	 addsd	 xmm3, xmm4
  001f7	0f 5a d2	 cvtps2pd xmm2, xmm2
  001fa	0f 5a e1	 cvtps2pd xmm4, xmm1
  001fd	f2 0f 5c dc	 subsd	 xmm3, xmm4
  00201	66 0f 2f d3	 comisd	 xmm2, xmm3

; 388  : 			else

  00205	0f 87 a9 00 00
	00		 ja	 $LN59@adjustForJ

; 389  : 				outPos.x = toMin.x + d_total + xmargin;

  0020b	0f 5a c1	 cvtps2pd xmm0, xmm1
  0020e	f3 0f 10 4d 24	 movss	 xmm1, DWORD PTR _d_total$[ebp]
  00213	0f 5a c9	 cvtps2pd xmm1, xmm1
  00216	f2 0f 58 c1	 addsd	 xmm0, xmm1
  0021a	f3 0f 10 4d 10	 movss	 xmm1, DWORD PTR _xmargin$[ebp]
  0021f	0f 5a c9	 cvtps2pd xmm1, xmm1
  00222	f2 0f 58 c1	 addsd	 xmm0, xmm1

; 390  : 		}

  00226	e9 85 00 00 00	 jmp	 $LN58@adjustForJ
$LN19@adjustForJ:

; 391  : 
; 392  : 	} else if ( fromMax.x <= toMin.x ) {

  0022b	f3 0f 10 10	 movss	 xmm2, DWORD PTR [eax]
  0022f	f3 0f 10 1b	 movss	 xmm3, DWORD PTR [ebx]
  00233	0f 5a db	 cvtps2pd xmm3, xmm3
  00236	0f 5a e2	 cvtps2pd xmm4, xmm2
  00239	66 0f 2f e3	 comisd	 xmm4, xmm3
  0023d	72 7e		 jb	 SHORT $LN14@adjustForJ

; 393  : 
; 394  : 		if ( d_over > toMax.x - toMin.x ) {

  0023f	f3 0f 10 5d 08	 movss	 xmm3, DWORD PTR _d_over$[ebp]
  00244	0f 5a d2	 cvtps2pd xmm2, xmm2
  00247	0f 5a e0	 cvtps2pd xmm4, xmm0
  0024a	f2 0f 5c e2	 subsd	 xmm4, xmm2
  0024e	0f 57 d2	 xorps	 xmm2, xmm2
  00251	66 0f 5a d4	 cvtpd2ps xmm2, xmm4
  00255	0f 5a db	 cvtps2pd xmm3, xmm3
  00258	0f 5a d2	 cvtps2pd xmm2, xmm2
  0025b	66 0f 2f da	 comisd	 xmm3, xmm2
  0025f	0f 86 77 01 00
	00		 jbe	 $LN1@adjustForJ

; 395  : 			if ( d_total > xmargin + toMax.x - fromMin.x )

  00265	f3 0f 10 65 10	 movss	 xmm4, DWORD PTR _xmargin$[ebp]
  0026a	f3 0f 10 55 24	 movss	 xmm2, DWORD PTR _d_total$[ebp]

; 396  : 				outPos.x = fromMin.x;

  0026f	8b 45 28	 mov	 eax, DWORD PTR _outPos$[ebp]
  00272	0f 5a e4	 cvtps2pd xmm4, xmm4
  00275	0f 5a d8	 cvtps2pd xmm3, xmm0
  00278	f2 0f 58 dc	 addsd	 xmm3, xmm4
  0027c	0f 5a d2	 cvtps2pd xmm2, xmm2
  0027f	0f 5a e1	 cvtps2pd xmm4, xmm1
  00282	f2 0f 5c dc	 subsd	 xmm3, xmm4
  00286	66 0f 2f d3	 comisd	 xmm2, xmm3
  0028a	76 09		 jbe	 SHORT $LN12@adjustForJ
  0028c	f3 0f 11 08	 movss	 DWORD PTR [eax], xmm1

; 397  : 			else

  00290	e9 47 01 00 00	 jmp	 $LN1@adjustForJ
$LN12@adjustForJ:

; 398  : 				outPos.x = toMax.x - d_total - xmargin;

  00295	f3 0f 10 4d 24	 movss	 xmm1, DWORD PTR _d_total$[ebp]
  0029a	0f 5a c9	 cvtps2pd xmm1, xmm1
  0029d	0f 5a c0	 cvtps2pd xmm0, xmm0
  002a0	f2 0f 5c c1	 subsd	 xmm0, xmm1
  002a4	f3 0f 10 4d 10	 movss	 xmm1, DWORD PTR _xmargin$[ebp]
  002a9	0f 5a c9	 cvtps2pd xmm1, xmm1
  002ac	f2 0f 5c c1	 subsd	 xmm0, xmm1
$LN58@adjustForJ:
  002b0	66 0f 5a c0	 cvtpd2ps xmm0, xmm0
$LN59@adjustForJ:
  002b4	f3 0f 11 00	 movss	 DWORD PTR [eax], xmm0

; 399  : 		}

  002b8	e9 1f 01 00 00	 jmp	 $LN1@adjustForJ
$LN14@adjustForJ:

; 400  : 
; 401  : 	} else if ( toMax.y <= fromMin.y ) {

  002bd	f3 0f 10 41 04	 movss	 xmm0, DWORD PTR [ecx+4]
  002c2	f3 0f 10 4a 04	 movss	 xmm1, DWORD PTR [edx+4]
  002c7	0f 57 d2	 xorps	 xmm2, xmm2
  002ca	0f 57 db	 xorps	 xmm3, xmm3
  002cd	0f 5a d0	 cvtps2pd xmm2, xmm0
  002d0	0f 5a d9	 cvtps2pd xmm3, xmm1
  002d3	66 0f 2f da	 comisd	 xmm3, xmm2
  002d7	72 79		 jb	 SHORT $LN9@adjustForJ

; 402  : 
; 403  : 		if ( d_over > toMax.y - toMin.y ) {

  002d9	f3 0f 10 48 04	 movss	 xmm1, DWORD PTR [eax+4]
  002de	f3 0f 10 55 08	 movss	 xmm2, DWORD PTR _d_over$[ebp]
  002e3	0f 5a c0	 cvtps2pd xmm0, xmm0
  002e6	0f 5a d9	 cvtps2pd xmm3, xmm1
  002e9	f2 0f 5c c3	 subsd	 xmm0, xmm3
  002ed	66 0f 5a c0	 cvtpd2ps xmm0, xmm0
  002f1	0f 5a d2	 cvtps2pd xmm2, xmm2
  002f4	f3 0f 5a c0	 cvtss2sd xmm0, xmm0
  002f8	66 0f 2f d0	 comisd	 xmm2, xmm0
  002fc	0f 86 da 00 00
	00		 jbe	 $LN1@adjustForJ

; 404  : 			if ( d_total > ymargin + fromMax.y - toMin.y )

  00302	f3 0f 10 65 fc	 movss	 xmm4, DWORD PTR _ymargin$[ebp]
  00307	f3 0f 10 43 04	 movss	 xmm0, DWORD PTR [ebx+4]
  0030c	f3 0f 10 55 24	 movss	 xmm2, DWORD PTR _d_total$[ebp]

; 405  : 				outPos.y = fromMax.y;

  00311	8b 45 28	 mov	 eax, DWORD PTR _outPos$[ebp]
  00314	0f 5a e4	 cvtps2pd xmm4, xmm4
  00317	0f 5a d8	 cvtps2pd xmm3, xmm0
  0031a	f2 0f 58 dc	 addsd	 xmm3, xmm4
  0031e	0f 5a d2	 cvtps2pd xmm2, xmm2
  00321	0f 5a e1	 cvtps2pd xmm4, xmm1
  00324	f2 0f 5c dc	 subsd	 xmm3, xmm4
  00328	66 0f 2f d3	 comisd	 xmm2, xmm3

; 406  : 			else

  0032c	0f 87 a5 00 00
	00		 ja	 $LN56@adjustForJ

; 407  : 				outPos.y = toMin.y + d_total + ymargin;

  00332	0f 5a c1	 cvtps2pd xmm0, xmm1
  00335	f3 0f 10 4d 24	 movss	 xmm1, DWORD PTR _d_total$[ebp]
  0033a	0f 5a c9	 cvtps2pd xmm1, xmm1
  0033d	f2 0f 58 c1	 addsd	 xmm0, xmm1
  00341	f3 0f 10 4d fc	 movss	 xmm1, DWORD PTR _ymargin$[ebp]
  00346	0f 5a c9	 cvtps2pd xmm1, xmm1
  00349	f2 0f 58 c1	 addsd	 xmm0, xmm1

; 408  : 		}

  0034d	e9 81 00 00 00	 jmp	 $LN57@adjustForJ
$LN9@adjustForJ:

; 409  : 
; 410  : 	} else if ( fromMax.y <= toMin.y ) {

  00352	f3 0f 10 50 04	 movss	 xmm2, DWORD PTR [eax+4]
  00357	f3 0f 10 5b 04	 movss	 xmm3, DWORD PTR [ebx+4]
  0035c	0f 5a db	 cvtps2pd xmm3, xmm3
  0035f	0f 5a e2	 cvtps2pd xmm4, xmm2
  00362	66 0f 2f e3	 comisd	 xmm4, xmm3
  00366	72 74		 jb	 SHORT $LN1@adjustForJ

; 411  : 
; 412  : 		if ( d_over > toMax.y - toMin.y ) {

  00368	f3 0f 10 5d 08	 movss	 xmm3, DWORD PTR _d_over$[ebp]
  0036d	0f 5a d2	 cvtps2pd xmm2, xmm2
  00370	0f 5a e0	 cvtps2pd xmm4, xmm0
  00373	f2 0f 5c e2	 subsd	 xmm4, xmm2
  00377	0f 57 d2	 xorps	 xmm2, xmm2
  0037a	66 0f 5a d4	 cvtpd2ps xmm2, xmm4
  0037e	0f 5a db	 cvtps2pd xmm3, xmm3
  00381	0f 5a d2	 cvtps2pd xmm2, xmm2
  00384	66 0f 2f da	 comisd	 xmm3, xmm2
  00388	76 52		 jbe	 SHORT $LN1@adjustForJ

; 413  : 			if ( d_total > ymargin + toMax.y - fromMin.y )

  0038a	f3 0f 10 65 fc	 movss	 xmm4, DWORD PTR _ymargin$[ebp]
  0038f	f3 0f 10 55 24	 movss	 xmm2, DWORD PTR _d_total$[ebp]

; 414  : 				outPos.y = fromMin.y;

  00394	8b 45 28	 mov	 eax, DWORD PTR _outPos$[ebp]
  00397	0f 5a e4	 cvtps2pd xmm4, xmm4
  0039a	0f 5a d8	 cvtps2pd xmm3, xmm0
  0039d	f2 0f 58 dc	 addsd	 xmm3, xmm4
  003a1	0f 5a d2	 cvtps2pd xmm2, xmm2
  003a4	0f 5a e1	 cvtps2pd xmm4, xmm1
  003a7	f2 0f 5c dc	 subsd	 xmm3, xmm4
  003ab	66 0f 2f d3	 comisd	 xmm2, xmm3
  003af	76 07		 jbe	 SHORT $LN2@adjustForJ
  003b1	f3 0f 11 48 04	 movss	 DWORD PTR [eax+4], xmm1

; 415  : 			else

  003b6	eb 24		 jmp	 SHORT $LN1@adjustForJ
$LN2@adjustForJ:

; 416  : 				outPos.y = toMax.y - d_total - ymargin;

  003b8	f3 0f 10 4d 24	 movss	 xmm1, DWORD PTR _d_total$[ebp]
  003bd	0f 5a c9	 cvtps2pd xmm1, xmm1
  003c0	0f 5a c0	 cvtps2pd xmm0, xmm0
  003c3	f2 0f 5c c1	 subsd	 xmm0, xmm1
  003c7	f3 0f 10 4d fc	 movss	 xmm1, DWORD PTR _ymargin$[ebp]
  003cc	0f 5a c9	 cvtps2pd xmm1, xmm1
  003cf	f2 0f 5c c1	 subsd	 xmm0, xmm1
$LN57@adjustForJ:
  003d3	66 0f 5a c0	 cvtpd2ps xmm0, xmm0
$LN56@adjustForJ:
  003d7	f3 0f 11 40 04	 movss	 DWORD PTR [eax+4], xmm0
$LN1@adjustForJ:
  003dc	5e		 pop	 esi
  003dd	5b		 pop	 ebx

; 417  : 		}
; 418  : 	} 
; 419  : }

  003de	c9		 leave
  003df	c3		 ret	 0
?adjustForJump@@YAXABUD3DXVECTOR3@@0000MMMAAU1@@Z ENDP	; adjustForJump
_TEXT	ENDS
PUBLIC	??1bad_alloc@std@@UAE@XZ			; std::bad_alloc::~bad_alloc
EXTRN	__imp_??1exception@std@@UAE@XZ:PROC
; Function compile flags: /Ogsp
; File c:\program files (x86)\microsoft visual studio 10.0\vc\include\exception
;	COMDAT ??1bad_alloc@std@@UAE@XZ
_TEXT	SEGMENT
??1bad_alloc@std@@UAE@XZ PROC				; std::bad_alloc::~bad_alloc, COMDAT
; _this$ = ecx

; 354  : 		{	// destroy the object

  00000	c7 01 00 00 00
	00		 mov	 DWORD PTR [ecx], OFFSET ??_7bad_alloc@std@@6B@

; 355  : 		}

  00006	ff 25 00 00 00
	00		 jmp	 DWORD PTR __imp_??1exception@std@@UAE@XZ
??1bad_alloc@std@@UAE@XZ ENDP				; std::bad_alloc::~bad_alloc
_TEXT	ENDS
EXTRN	??3@YAXPAX@Z:PROC				; operator delete
; Function compile flags: /Ogsp
;	COMDAT ??_Gbad_alloc@std@@UAEPAXI@Z
_TEXT	SEGMENT
___flags$ = 8						; size = 4
??_Gbad_alloc@std@@UAEPAXI@Z PROC			; std::bad_alloc::`scalar deleting destructor', COMDAT
; _this$ = ecx
  00000	55		 push	 ebp
  00001	8b ec		 mov	 ebp, esp
  00003	56		 push	 esi
  00004	8b f1		 mov	 esi, ecx
  00006	c7 06 00 00 00
	00		 mov	 DWORD PTR [esi], OFFSET ??_7bad_alloc@std@@6B@
  0000c	ff 15 00 00 00
	00		 call	 DWORD PTR __imp_??1exception@std@@UAE@XZ
  00012	f6 45 08 01	 test	 BYTE PTR ___flags$[ebp], 1
  00016	74 07		 je	 SHORT $LN1@scalar
  00018	56		 push	 esi
  00019	e8 00 00 00 00	 call	 ??3@YAXPAX@Z		; operator delete
  0001e	59		 pop	 ecx
$LN1@scalar:
  0001f	8b c6		 mov	 eax, esi
  00021	5e		 pop	 esi
  00022	5d		 pop	 ebp
  00023	c2 04 00	 ret	 4
??_Gbad_alloc@std@@UAEPAXI@Z ENDP			; std::bad_alloc::`scalar deleting destructor'
_TEXT	ENDS
PUBLIC	??2@YAPAXIPAX@Z					; operator new
; Function compile flags: /Ogsp
; File c:\program files (x86)\microsoft visual studio 10.0\vc\include\new
;	COMDAT ??2@YAPAXIPAX@Z
_TEXT	SEGMENT
___formal$ = 8						; size = 4
__Where$ = 12						; size = 4
??2@YAPAXIPAX@Z PROC					; operator new, COMDAT

; 56   : 	{	// construct array with placement at _Where

  00000	55		 push	 ebp
  00001	8b ec		 mov	 ebp, esp

; 57   : 	return (_Where);

  00003	8b 45 0c	 mov	 eax, DWORD PTR __Where$[ebp]

; 58   : 	}

  00006	5d		 pop	 ebp
  00007	c3		 ret	 0
??2@YAPAXIPAX@Z ENDP					; operator new
_TEXT	ENDS
PUBLIC	??3@YAXPAX0@Z					; operator delete
; Function compile flags: /Ogsp
;	COMDAT ??3@YAXPAX0@Z
_TEXT	SEGMENT
___formal$ = 8						; size = 4
___formal$ = 12						; size = 4
??3@YAXPAX0@Z PROC					; operator delete, COMDAT

; 62   : 	}

  00000	c3		 ret	 0
??3@YAXPAX0@Z ENDP					; operator delete
_TEXT	ENDS
PUBLIC	?length@?$char_traits@D@std@@SAIPBD@Z		; std::char_traits<char>::length
; Function compile flags: /Ogsp
; File c:\program files (x86)\microsoft visual studio 10.0\vc\include\iosfwd
;	COMDAT ?length@?$char_traits@D@std@@SAIPBD@Z
_TEXT	SEGMENT
__First$ = 8						; size = 4
?length@?$char_traits@D@std@@SAIPBD@Z PROC		; std::char_traits<char>::length, COMDAT

; 490  : 		{	// find length of null-terminated string

  00000	55		 push	 ebp
  00001	8b ec		 mov	 ebp, esp

; 491  : 		return (_CSTD strlen(_First));

  00003	8b 45 08	 mov	 eax, DWORD PTR __First$[ebp]
  00006	8d 50 01	 lea	 edx, DWORD PTR [eax+1]
$LL3@length:
  00009	8a 08		 mov	 cl, BYTE PTR [eax]
  0000b	40		 inc	 eax
  0000c	84 c9		 test	 cl, cl
  0000e	75 f9		 jne	 SHORT $LL3@length
  00010	2b c2		 sub	 eax, edx

; 492  : 		}

  00012	5d		 pop	 ebp
  00013	c3		 ret	 0
?length@?$char_traits@D@std@@SAIPBD@Z ENDP		; std::char_traits<char>::length
_TEXT	ENDS
PUBLIC	?copy@?$char_traits@D@std@@SAPADPADPBDI@Z	; std::char_traits<char>::copy
EXTRN	_memcpy:PROC
; Function compile flags: /Ogsp
;	COMDAT ?copy@?$char_traits@D@std@@SAPADPADPBDI@Z
_TEXT	SEGMENT
__First1$ = 8						; size = 4
__First2$ = 12						; size = 4
__Count$ = 16						; size = 4
?copy@?$char_traits@D@std@@SAPADPADPBDI@Z PROC		; std::char_traits<char>::copy, COMDAT

; 496  : 		{	// copy [_First1, _First1 + _Count) to [_First2, ...)

  00000	55		 push	 ebp
  00001	8b ec		 mov	 ebp, esp

; 498  : 		}

  00003	5d		 pop	 ebp

; 497  : 		return ((_Elem *)_CSTD memcpy(_First1, _First2, _Count));

  00004	e9 00 00 00 00	 jmp	 _memcpy
?copy@?$char_traits@D@std@@SAPADPADPBDI@Z ENDP		; std::char_traits<char>::copy
_TEXT	ENDS
PUBLIC	?move@?$char_traits@D@std@@SAPADPADPBDI@Z	; std::char_traits<char>::move
EXTRN	__imp__memmove:PROC
; Function compile flags: /Ogsp
;	COMDAT ?move@?$char_traits@D@std@@SAPADPADPBDI@Z
_TEXT	SEGMENT
__First1$ = 8						; size = 4
__First2$ = 12						; size = 4
__Count$ = 16						; size = 4
?move@?$char_traits@D@std@@SAPADPADPBDI@Z PROC		; std::char_traits<char>::move, COMDAT

; 516  : 		{	// copy [_First1, _First1 + _Count) to [_First2, ...)

  00000	55		 push	 ebp
  00001	8b ec		 mov	 ebp, esp

; 518  : 		}

  00003	5d		 pop	 ebp

; 517  : 		return ((_Elem *)_CSTD memmove(_First1, _First2, _Count));

  00004	ff 25 00 00 00
	00		 jmp	 DWORD PTR __imp__memmove
?move@?$char_traits@D@std@@SAPADPADPBDI@Z ENDP		; std::char_traits<char>::move
_TEXT	ENDS
PUBLIC	?assign@?$char_traits@D@std@@SAXAADABD@Z	; std::char_traits<char>::assign
; Function compile flags: /Ogsp
;	COMDAT ?assign@?$char_traits@D@std@@SAXAADABD@Z
_TEXT	SEGMENT
__Left$ = 8						; size = 4
__Right$ = 12						; size = 4
?assign@?$char_traits@D@std@@SAXAADABD@Z PROC		; std::char_traits<char>::assign, COMDAT

; 526  : 		{	// assign an element

  00000	55		 push	 ebp
  00001	8b ec		 mov	 ebp, esp

; 527  : 		_Left = _Right;

  00003	8b 45 0c	 mov	 eax, DWORD PTR __Right$[ebp]
  00006	8a 00		 mov	 al, BYTE PTR [eax]
  00008	8b 4d 08	 mov	 ecx, DWORD PTR __Left$[ebp]
  0000b	88 01		 mov	 BYTE PTR [ecx], al

; 528  : 		}

  0000d	5d		 pop	 ebp
  0000e	c3		 ret	 0
?assign@?$char_traits@D@std@@SAXAADABD@Z ENDP		; std::char_traits<char>::assign
_TEXT	ENDS
PUBLIC	?size@?$vector@FV?$allocator@F@std@@@std@@QBEIXZ ; std::vector<short,std::allocator<short> >::size
; Function compile flags: /Ogsp
; File c:\program files (x86)\microsoft visual studio 10.0\vc\include\vector
;	COMDAT ?size@?$vector@FV?$allocator@F@std@@@std@@QBEIXZ
_TEXT	SEGMENT
?size@?$vector@FV?$allocator@F@std@@@std@@QBEIXZ PROC	; std::vector<short,std::allocator<short> >::size, COMDAT
; _this$ = ecx

; 879  : 		return (this->_Mylast - this->_Myfirst);

  00000	8b 41 04	 mov	 eax, DWORD PTR [ecx+4]
  00003	2b 01		 sub	 eax, DWORD PTR [ecx]
  00005	d1 f8		 sar	 eax, 1

; 880  : 		}

  00007	c3		 ret	 0
?size@?$vector@FV?$allocator@F@std@@@std@@QBEIXZ ENDP	; std::vector<short,std::allocator<short> >::size
_TEXT	ENDS
PUBLIC	??A?$vector@FV?$allocator@F@std@@@std@@QAEAAFI@Z ; std::vector<short,std::allocator<short> >::operator[]
; Function compile flags: /Ogsp
;	COMDAT ??A?$vector@FV?$allocator@F@std@@@std@@QAEAAFI@Z
_TEXT	SEGMENT
__Pos$ = 8						; size = 4
??A?$vector@FV?$allocator@F@std@@@std@@QAEAAFI@Z PROC	; std::vector<short,std::allocator<short> >::operator[], COMDAT
; _this$ = ecx

; 928  : 		{	// subscript mutable sequence

  00000	55		 push	 ebp
  00001	8b ec		 mov	 ebp, esp

; 929  :  #if _ITERATOR_DEBUG_LEVEL == 2
; 930  : 		if (size() <= _Pos)
; 931  : 			{	// report error
; 932  : 			_DEBUG_ERROR("vector subscript out of range");
; 933  : 			_SCL_SECURE_OUT_OF_RANGE;
; 934  : 			}
; 935  : 
; 936  :  #elif _ITERATOR_DEBUG_LEVEL == 1
; 937  : 		_SCL_SECURE_VALIDATE_RANGE(_Pos < size());
; 938  :  #endif /* _ITERATOR_DEBUG_LEVEL */
; 939  : 
; 940  : 		return (*(this->_Myfirst + _Pos));

  00003	8b 01		 mov	 eax, DWORD PTR [ecx]
  00005	8b 4d 08	 mov	 ecx, DWORD PTR __Pos$[ebp]
  00008	8d 04 48	 lea	 eax, DWORD PTR [eax+ecx*2]

; 941  : 		}

  0000b	5d		 pop	 ebp
  0000c	c2 04 00	 ret	 4
??A?$vector@FV?$allocator@F@std@@@std@@QAEAAFI@Z ENDP	; std::vector<short,std::allocator<short> >::operator[]
_TEXT	ENDS
PUBLIC	?size@?$vector@ULink@BoxSpace@@V?$allocator@ULink@BoxSpace@@@std@@@std@@QBEIXZ ; std::vector<BoxSpace::Link,std::allocator<BoxSpace::Link> >::size
; Function compile flags: /Ogsp
;	COMDAT ?size@?$vector@ULink@BoxSpace@@V?$allocator@ULink@BoxSpace@@@std@@@std@@QBEIXZ
_TEXT	SEGMENT
?size@?$vector@ULink@BoxSpace@@V?$allocator@ULink@BoxSpace@@@std@@@std@@QBEIXZ PROC ; std::vector<BoxSpace::Link,std::allocator<BoxSpace::Link> >::size, COMDAT
; _this$ = ecx

; 879  : 		return (this->_Mylast - this->_Myfirst);

  00000	8b 41 04	 mov	 eax, DWORD PTR [ecx+4]
  00003	2b 01		 sub	 eax, DWORD PTR [ecx]
  00005	c1 f8 05	 sar	 eax, 5

; 880  : 		}

  00008	c3		 ret	 0
?size@?$vector@ULink@BoxSpace@@V?$allocator@ULink@BoxSpace@@@std@@@std@@QBEIXZ ENDP ; std::vector<BoxSpace::Link,std::allocator<BoxSpace::Link> >::size
_TEXT	ENDS
PUBLIC	??A?$vector@ULink@BoxSpace@@V?$allocator@ULink@BoxSpace@@@std@@@std@@QAEAAULink@BoxSpace@@I@Z ; std::vector<BoxSpace::Link,std::allocator<BoxSpace::Link> >::operator[]
; Function compile flags: /Ogsp
;	COMDAT ??A?$vector@ULink@BoxSpace@@V?$allocator@ULink@BoxSpace@@@std@@@std@@QAEAAULink@BoxSpace@@I@Z
_TEXT	SEGMENT
__Pos$ = 8						; size = 4
??A?$vector@ULink@BoxSpace@@V?$allocator@ULink@BoxSpace@@@std@@@std@@QAEAAULink@BoxSpace@@I@Z PROC ; std::vector<BoxSpace::Link,std::allocator<BoxSpace::Link> >::operator[], COMDAT
; _this$ = ecx

; 928  : 		{	// subscript mutable sequence

  00000	55		 push	 ebp
  00001	8b ec		 mov	 ebp, esp

; 929  :  #if _ITERATOR_DEBUG_LEVEL == 2
; 930  : 		if (size() <= _Pos)
; 931  : 			{	// report error
; 932  : 			_DEBUG_ERROR("vector subscript out of range");
; 933  : 			_SCL_SECURE_OUT_OF_RANGE;
; 934  : 			}
; 935  : 
; 936  :  #elif _ITERATOR_DEBUG_LEVEL == 1
; 937  : 		_SCL_SECURE_VALIDATE_RANGE(_Pos < size());
; 938  :  #endif /* _ITERATOR_DEBUG_LEVEL */
; 939  : 
; 940  : 		return (*(this->_Myfirst + _Pos));

  00003	8b 45 08	 mov	 eax, DWORD PTR __Pos$[ebp]
  00006	c1 e0 05	 shl	 eax, 5
  00009	03 01		 add	 eax, DWORD PTR [ecx]

; 941  : 		}

  0000b	5d		 pop	 ebp
  0000c	c2 04 00	 ret	 4
??A?$vector@ULink@BoxSpace@@V?$allocator@ULink@BoxSpace@@@std@@@std@@QAEAAULink@BoxSpace@@I@Z ENDP ; std::vector<BoxSpace::Link,std::allocator<BoxSpace::Link> >::operator[]
_TEXT	ENDS
PUBLIC	??A?$vector@UBox@BoxSpace@@V?$allocator@UBox@BoxSpace@@@std@@@std@@QAEAAUBox@BoxSpace@@I@Z ; std::vector<BoxSpace::Box,std::allocator<BoxSpace::Box> >::operator[]
; Function compile flags: /Ogsp
;	COMDAT ??A?$vector@UBox@BoxSpace@@V?$allocator@UBox@BoxSpace@@@std@@@std@@QAEAAUBox@BoxSpace@@I@Z
_TEXT	SEGMENT
__Pos$ = 8						; size = 4
??A?$vector@UBox@BoxSpace@@V?$allocator@UBox@BoxSpace@@@std@@@std@@QAEAAUBox@BoxSpace@@I@Z PROC ; std::vector<BoxSpace::Box,std::allocator<BoxSpace::Box> >::operator[], COMDAT
; _this$ = ecx

; 928  : 		{	// subscript mutable sequence

  00000	55		 push	 ebp
  00001	8b ec		 mov	 ebp, esp

; 929  :  #if _ITERATOR_DEBUG_LEVEL == 2
; 930  : 		if (size() <= _Pos)
; 931  : 			{	// report error
; 932  : 			_DEBUG_ERROR("vector subscript out of range");
; 933  : 			_SCL_SECURE_OUT_OF_RANGE;
; 934  : 			}
; 935  : 
; 936  :  #elif _ITERATOR_DEBUG_LEVEL == 1
; 937  : 		_SCL_SECURE_VALIDATE_RANGE(_Pos < size());
; 938  :  #endif /* _ITERATOR_DEBUG_LEVEL */
; 939  : 
; 940  : 		return (*(this->_Myfirst + _Pos));

  00003	8b 45 08	 mov	 eax, DWORD PTR __Pos$[ebp]
  00006	6b c0 58	 imul	 eax, 88			; 00000058H
  00009	03 01		 add	 eax, DWORD PTR [ecx]

; 941  : 		}

  0000b	5d		 pop	 ebp
  0000c	c2 04 00	 ret	 4
??A?$vector@UBox@BoxSpace@@V?$allocator@UBox@BoxSpace@@@std@@@std@@QAEAAUBox@BoxSpace@@I@Z ENDP ; std::vector<BoxSpace::Box,std::allocator<BoxSpace::Box> >::operator[]
_TEXT	ENDS
PUBLIC	??D?$_Vector_const_iterator@V?$_Vector_val@ULink@BoxSpace@@V?$allocator@ULink@BoxSpace@@@std@@@std@@@std@@QBEABULink@BoxSpace@@XZ ; std::_Vector_const_iterator<std::_Vector_val<BoxSpace::Link,std::allocator<BoxSpace::Link> > >::operator*
; Function compile flags: /Ogsp
;	COMDAT ??D?$_Vector_const_iterator@V?$_Vector_val@ULink@BoxSpace@@V?$allocator@ULink@BoxSpace@@@std@@@std@@@std@@QBEABULink@BoxSpace@@XZ
_TEXT	SEGMENT
??D?$_Vector_const_iterator@V?$_Vector_val@ULink@BoxSpace@@V?$allocator@ULink@BoxSpace@@@std@@@std@@@std@@QBEABULink@BoxSpace@@XZ PROC ; std::_Vector_const_iterator<std::_Vector_val<BoxSpace::Link,std::allocator<BoxSpace::Link> > >::operator*, COMDAT
; _this$ = ecx

; 64   :  #if _ITERATOR_DEBUG_LEVEL == 2
; 65   : 		if (this->_Getcont() == 0
; 66   : 			|| this->_Ptr == 0
; 67   : 			|| this->_Ptr < ((_Myvec *)this->_Getcont())->_Myfirst
; 68   : 			|| ((_Myvec *)this->_Getcont())->_Mylast <= this->_Ptr)
; 69   : 			{	// report error
; 70   : 			_DEBUG_ERROR("vector iterator not dereferencable");
; 71   : 			_SCL_SECURE_OUT_OF_RANGE;
; 72   : 			}
; 73   : 
; 74   :  #elif _ITERATOR_DEBUG_LEVEL == 1
; 75   : 		_SCL_SECURE_VALIDATE(this->_Getcont() != 0);
; 76   : 		_SCL_SECURE_VALIDATE_RANGE(
; 77   : 			this->_Ptr != 0
; 78   : 			&& ((_Myvec *)this->_Getcont())->_Myfirst <= this->_Ptr
; 79   : 			&& this->_Ptr < ((_Myvec *)this->_Getcont())->_Mylast);
; 80   :  #endif /* _ITERATOR_DEBUG_LEVEL */
; 81   : 
; 82   : 		__analysis_assume(this->_Ptr != 0);
; 83   : 
; 84   : 		return (*this->_Ptr);

  00000	8b 01		 mov	 eax, DWORD PTR [ecx]

; 85   : 		}

  00002	c3		 ret	 0
??D?$_Vector_const_iterator@V?$_Vector_val@ULink@BoxSpace@@V?$allocator@ULink@BoxSpace@@@std@@@std@@@std@@QBEABULink@BoxSpace@@XZ ENDP ; std::_Vector_const_iterator<std::_Vector_val<BoxSpace::Link,std::allocator<BoxSpace::Link> > >::operator*
_TEXT	ENDS
PUBLIC	?capacity@?$vector@FV?$allocator@F@std@@@std@@QBEIXZ ; std::vector<short,std::allocator<short> >::capacity
; Function compile flags: /Ogsp
;	COMDAT ?capacity@?$vector@FV?$allocator@F@std@@@std@@QBEIXZ
_TEXT	SEGMENT
?capacity@?$vector@FV?$allocator@F@std@@@std@@QBEIXZ PROC ; std::vector<short,std::allocator<short> >::capacity, COMDAT
; _this$ = ecx

; 777  : 		return (this->_Myend - this->_Myfirst);

  00000	8b 41 08	 mov	 eax, DWORD PTR [ecx+8]
  00003	2b 01		 sub	 eax, DWORD PTR [ecx]
  00005	d1 f8		 sar	 eax, 1

; 778  : 		}

  00007	c3		 ret	 0
?capacity@?$vector@FV?$allocator@F@std@@@std@@QBEIXZ ENDP ; std::vector<short,std::allocator<short> >::capacity
_TEXT	ENDS
PUBLIC	?_Inside@?$vector@FV?$allocator@F@std@@@std@@IBE_NPBF@Z ; std::vector<short,std::allocator<short> >::_Inside
; Function compile flags: /Ogsp
;	COMDAT ?_Inside@?$vector@FV?$allocator@F@std@@@std@@IBE_NPBF@Z
_TEXT	SEGMENT
__Ptr$ = 8						; size = 4
?_Inside@?$vector@FV?$allocator@F@std@@@std@@IBE_NPBF@Z PROC ; std::vector<short,std::allocator<short> >::_Inside, COMDAT
; _this$ = ecx

; 1285 : 		{	// test if _Ptr points inside vector

  00000	55		 push	 ebp
  00001	8b ec		 mov	 ebp, esp

; 1286 : 		return (_Ptr < this->_Mylast && this->_Myfirst <= _Ptr);

  00003	8b 45 08	 mov	 eax, DWORD PTR __Ptr$[ebp]
  00006	3b 41 04	 cmp	 eax, DWORD PTR [ecx+4]
  00009	73 09		 jae	 SHORT $LN3@Inside
  0000b	39 01		 cmp	 DWORD PTR [ecx], eax
  0000d	77 05		 ja	 SHORT $LN3@Inside
  0000f	33 c0		 xor	 eax, eax
  00011	40		 inc	 eax
  00012	eb 02		 jmp	 SHORT $LN4@Inside
$LN3@Inside:
  00014	33 c0		 xor	 eax, eax
$LN4@Inside:

; 1287 : 		}

  00016	5d		 pop	 ebp
  00017	c2 04 00	 ret	 4
?_Inside@?$vector@FV?$allocator@F@std@@@std@@IBE_NPBF@Z ENDP ; std::vector<short,std::allocator<short> >::_Inside
_TEXT	ENDS
PUBLIC	??_C@_0BD@OLBABOEK@vector?$DMT?$DO?5too?5long?$AA@ ; `string'
PUBLIC	?_Xlen@?$vector@FV?$allocator@F@std@@@std@@IBEXXZ ; std::vector<short,std::allocator<short> >::_Xlen
EXTRN	__imp_?_Xlength_error@std@@YAXPBD@Z:PROC
;	COMDAT ??_C@_0BD@OLBABOEK@vector?$DMT?$DO?5too?5long?$AA@
CONST	SEGMENT
??_C@_0BD@OLBABOEK@vector?$DMT?$DO?5too?5long?$AA@ DB 'vector<T> too long'
	DB	00H						; `string'
; Function compile flags: /Ogsp
CONST	ENDS
;	COMDAT ?_Xlen@?$vector@FV?$allocator@F@std@@@std@@IBEXXZ
_TEXT	SEGMENT
?_Xlen@?$vector@FV?$allocator@F@std@@@std@@IBEXXZ PROC	; std::vector<short,std::allocator<short> >::_Xlen, COMDAT
; _this$ = ecx

; 1427 : 		_Xlength_error("vector<T> too long");

  00000	68 00 00 00 00	 push	 OFFSET ??_C@_0BD@OLBABOEK@vector?$DMT?$DO?5too?5long?$AA@
  00005	ff 15 00 00 00
	00		 call	 DWORD PTR __imp_?_Xlength_error@std@@YAXPBD@Z
$LN4@Xlen:
$LN3@Xlen:
  0000b	cc		 int	 3
?_Xlen@?$vector@FV?$allocator@F@std@@@std@@IBEXXZ ENDP	; std::vector<short,std::allocator<short> >::_Xlen
_TEXT	ENDS
PUBLIC	?_Orphan_range@?$vector@FV?$allocator@F@std@@@std@@IBEXPAF0@Z ; std::vector<short,std::allocator<short> >::_Orphan_range
; Function compile flags: /Ogsp
;	COMDAT ?_Orphan_range@?$vector@FV?$allocator@F@std@@@std@@IBEXPAF0@Z
_TEXT	SEGMENT
___formal$ = 8						; size = 4
___formal$ = 12						; size = 4
?_Orphan_range@?$vector@FV?$allocator@F@std@@@std@@IBEXPAF0@Z PROC ; std::vector<short,std::allocator<short> >::_Orphan_range, COMDAT
; _this$ = ecx

; 1454 : 		}

  00000	c2 08 00	 ret	 8
?_Orphan_range@?$vector@FV?$allocator@F@std@@@std@@IBEXPAF0@Z ENDP ; std::vector<short,std::allocator<short> >::_Orphan_range
_TEXT	ENDS
PUBLIC	?_Inside@?$vector@ULink@BoxSpace@@V?$allocator@ULink@BoxSpace@@@std@@@std@@IBE_NPBULink@BoxSpace@@@Z ; std::vector<BoxSpace::Link,std::allocator<BoxSpace::Link> >::_Inside
; Function compile flags: /Ogsp
;	COMDAT ?_Inside@?$vector@ULink@BoxSpace@@V?$allocator@ULink@BoxSpace@@@std@@@std@@IBE_NPBULink@BoxSpace@@@Z
_TEXT	SEGMENT
__Ptr$ = 8						; size = 4
?_Inside@?$vector@ULink@BoxSpace@@V?$allocator@ULink@BoxSpace@@@std@@@std@@IBE_NPBULink@BoxSpace@@@Z PROC ; std::vector<BoxSpace::Link,std::allocator<BoxSpace::Link> >::_Inside, COMDAT
; _this$ = ecx

; 1285 : 		{	// test if _Ptr points inside vector

  00000	55		 push	 ebp
  00001	8b ec		 mov	 ebp, esp

; 1286 : 		return (_Ptr < this->_Mylast && this->_Myfirst <= _Ptr);

  00003	8b 45 08	 mov	 eax, DWORD PTR __Ptr$[ebp]
  00006	3b 41 04	 cmp	 eax, DWORD PTR [ecx+4]
  00009	73 09		 jae	 SHORT $LN3@Inside@2
  0000b	39 01		 cmp	 DWORD PTR [ecx], eax
  0000d	77 05		 ja	 SHORT $LN3@Inside@2
  0000f	33 c0		 xor	 eax, eax
  00011	40		 inc	 eax
  00012	eb 02		 jmp	 SHORT $LN4@Inside@2
$LN3@Inside@2:
  00014	33 c0		 xor	 eax, eax
$LN4@Inside@2:

; 1287 : 		}

  00016	5d		 pop	 ebp
  00017	c2 04 00	 ret	 4
?_Inside@?$vector@ULink@BoxSpace@@V?$allocator@ULink@BoxSpace@@@std@@@std@@IBE_NPBULink@BoxSpace@@@Z ENDP ; std::vector<BoxSpace::Link,std::allocator<BoxSpace::Link> >::_Inside
_TEXT	ENDS
PUBLIC	?_Orphan_range@?$vector@ULink@BoxSpace@@V?$allocator@ULink@BoxSpace@@@std@@@std@@IBEXPAULink@BoxSpace@@0@Z ; std::vector<BoxSpace::Link,std::allocator<BoxSpace::Link> >::_Orphan_range
; Function compile flags: /Ogsp
;	COMDAT ?_Orphan_range@?$vector@ULink@BoxSpace@@V?$allocator@ULink@BoxSpace@@@std@@@std@@IBEXPAULink@BoxSpace@@0@Z
_TEXT	SEGMENT
___formal$ = 8						; size = 4
___formal$ = 12						; size = 4
?_Orphan_range@?$vector@ULink@BoxSpace@@V?$allocator@ULink@BoxSpace@@@std@@@std@@IBEXPAULink@BoxSpace@@0@Z PROC ; std::vector<BoxSpace::Link,std::allocator<BoxSpace::Link> >::_Orphan_range, COMDAT
; _this$ = ecx

; 1454 : 		}

  00000	c2 08 00	 ret	 8
?_Orphan_range@?$vector@ULink@BoxSpace@@V?$allocator@ULink@BoxSpace@@@std@@@std@@IBEXPAULink@BoxSpace@@0@Z ENDP ; std::vector<BoxSpace::Link,std::allocator<BoxSpace::Link> >::_Orphan_range
_TEXT	ENDS
PUBLIC	?_Adopt@_Iterator_base0@std@@QAEXPBX@Z		; std::_Iterator_base0::_Adopt
; Function compile flags: /Ogsp
; File c:\program files (x86)\microsoft visual studio 10.0\vc\include\xutility
;	COMDAT ?_Adopt@_Iterator_base0@std@@QAEXPBX@Z
_TEXT	SEGMENT
___formal$ = 8						; size = 4
?_Adopt@_Iterator_base0@std@@QAEXPBX@Z PROC		; std::_Iterator_base0::_Adopt, COMDAT
; _this$ = ecx

; 49   : 		}

  00000	c2 04 00	 ret	 4
?_Adopt@_Iterator_base0@std@@QAEXPBX@Z ENDP		; std::_Iterator_base0::_Adopt
_TEXT	ENDS
PUBLIC	??0?$allocator@ULink@BoxSpace@@@std@@QAE@XZ	; std::allocator<BoxSpace::Link>::allocator<BoxSpace::Link>
; Function compile flags: /Ogsp
; File c:\program files (x86)\microsoft visual studio 10.0\vc\include\xmemory
;	COMDAT ??0?$allocator@ULink@BoxSpace@@@std@@QAE@XZ
_TEXT	SEGMENT
??0?$allocator@ULink@BoxSpace@@@std@@QAE@XZ PROC	; std::allocator<BoxSpace::Link>::allocator<BoxSpace::Link>, COMDAT
; _this$ = ecx

; 161  : 	_ALLOCATOR() _THROW0()

  00000	8b c1		 mov	 eax, ecx

; 162  : 		{	// construct default allocator (do nothing)
; 163  : 		}

  00002	c3		 ret	 0
??0?$allocator@ULink@BoxSpace@@@std@@QAE@XZ ENDP	; std::allocator<BoxSpace::Link>::allocator<BoxSpace::Link>
_TEXT	ENDS
PUBLIC	?_Inside@?$vector@UBox@BoxSpace@@V?$allocator@UBox@BoxSpace@@@std@@@std@@IBE_NPBUBox@BoxSpace@@@Z ; std::vector<BoxSpace::Box,std::allocator<BoxSpace::Box> >::_Inside
; Function compile flags: /Ogsp
; File c:\program files (x86)\microsoft visual studio 10.0\vc\include\vector
;	COMDAT ?_Inside@?$vector@UBox@BoxSpace@@V?$allocator@UBox@BoxSpace@@@std@@@std@@IBE_NPBUBox@BoxSpace@@@Z
_TEXT	SEGMENT
__Ptr$ = 8						; size = 4
?_Inside@?$vector@UBox@BoxSpace@@V?$allocator@UBox@BoxSpace@@@std@@@std@@IBE_NPBUBox@BoxSpace@@@Z PROC ; std::vector<BoxSpace::Box,std::allocator<BoxSpace::Box> >::_Inside, COMDAT
; _this$ = ecx

; 1285 : 		{	// test if _Ptr points inside vector

  00000	55		 push	 ebp
  00001	8b ec		 mov	 ebp, esp

; 1286 : 		return (_Ptr < this->_Mylast && this->_Myfirst <= _Ptr);

  00003	8b 45 08	 mov	 eax, DWORD PTR __Ptr$[ebp]
  00006	3b 41 04	 cmp	 eax, DWORD PTR [ecx+4]
  00009	73 09		 jae	 SHORT $LN3@Inside@3
  0000b	39 01		 cmp	 DWORD PTR [ecx], eax
  0000d	77 05		 ja	 SHORT $LN3@Inside@3
  0000f	33 c0		 xor	 eax, eax
  00011	40		 inc	 eax
  00012	eb 02		 jmp	 SHORT $LN4@Inside@3
$LN3@Inside@3:
  00014	33 c0		 xor	 eax, eax
$LN4@Inside@3:

; 1287 : 		}

  00016	5d		 pop	 ebp
  00017	c2 04 00	 ret	 4
?_Inside@?$vector@UBox@BoxSpace@@V?$allocator@UBox@BoxSpace@@@std@@@std@@IBE_NPBUBox@BoxSpace@@@Z ENDP ; std::vector<BoxSpace::Box,std::allocator<BoxSpace::Box> >::_Inside
_TEXT	ENDS
PUBLIC	?_Orphan_range@?$vector@UBox@BoxSpace@@V?$allocator@UBox@BoxSpace@@@std@@@std@@IBEXPAUBox@BoxSpace@@0@Z ; std::vector<BoxSpace::Box,std::allocator<BoxSpace::Box> >::_Orphan_range
; Function compile flags: /Ogsp
;	COMDAT ?_Orphan_range@?$vector@UBox@BoxSpace@@V?$allocator@UBox@BoxSpace@@@std@@@std@@IBEXPAUBox@BoxSpace@@0@Z
_TEXT	SEGMENT
___formal$ = 8						; size = 4
___formal$ = 12						; size = 4
?_Orphan_range@?$vector@UBox@BoxSpace@@V?$allocator@UBox@BoxSpace@@@std@@@std@@IBEXPAUBox@BoxSpace@@0@Z PROC ; std::vector<BoxSpace::Box,std::allocator<BoxSpace::Box> >::_Orphan_range, COMDAT
; _this$ = ecx

; 1454 : 		}

  00000	c2 08 00	 ret	 8
?_Orphan_range@?$vector@UBox@BoxSpace@@V?$allocator@UBox@BoxSpace@@@std@@@std@@IBEXPAUBox@BoxSpace@@0@Z ENDP ; std::vector<BoxSpace::Box,std::allocator<BoxSpace::Box> >::_Orphan_range
_TEXT	ENDS
PUBLIC	?size@?$vector@PBQAUBox@BoxSpace@@V?$allocator@PBQAUBox@BoxSpace@@@std@@@std@@QBEIXZ ; std::vector<BoxSpace::Box * const *,std::allocator<BoxSpace::Box * const *> >::size
; Function compile flags: /Ogsp
;	COMDAT ?size@?$vector@PBQAUBox@BoxSpace@@V?$allocator@PBQAUBox@BoxSpace@@@std@@@std@@QBEIXZ
_TEXT	SEGMENT
?size@?$vector@PBQAUBox@BoxSpace@@V?$allocator@PBQAUBox@BoxSpace@@@std@@@std@@QBEIXZ PROC ; std::vector<BoxSpace::Box * const *,std::allocator<BoxSpace::Box * const *> >::size, COMDAT
; _this$ = ecx

; 879  : 		return (this->_Mylast - this->_Myfirst);

  00000	8b 41 04	 mov	 eax, DWORD PTR [ecx+4]
  00003	2b 01		 sub	 eax, DWORD PTR [ecx]
  00005	c1 f8 02	 sar	 eax, 2

; 880  : 		}

  00008	c3		 ret	 0
?size@?$vector@PBQAUBox@BoxSpace@@V?$allocator@PBQAUBox@BoxSpace@@@std@@@std@@QBEIXZ ENDP ; std::vector<BoxSpace::Box * const *,std::allocator<BoxSpace::Box * const *> >::size
_TEXT	ENDS
PUBLIC	??A?$vector@PBQAUBox@BoxSpace@@V?$allocator@PBQAUBox@BoxSpace@@@std@@@std@@QAEAAPBQAUBox@BoxSpace@@I@Z ; std::vector<BoxSpace::Box * const *,std::allocator<BoxSpace::Box * const *> >::operator[]
; Function compile flags: /Ogsp
;	COMDAT ??A?$vector@PBQAUBox@BoxSpace@@V?$allocator@PBQAUBox@BoxSpace@@@std@@@std@@QAEAAPBQAUBox@BoxSpace@@I@Z
_TEXT	SEGMENT
__Pos$ = 8						; size = 4
??A?$vector@PBQAUBox@BoxSpace@@V?$allocator@PBQAUBox@BoxSpace@@@std@@@std@@QAEAAPBQAUBox@BoxSpace@@I@Z PROC ; std::vector<BoxSpace::Box * const *,std::allocator<BoxSpace::Box * const *> >::operator[], COMDAT
; _this$ = ecx

; 928  : 		{	// subscript mutable sequence

  00000	55		 push	 ebp
  00001	8b ec		 mov	 ebp, esp

; 929  :  #if _ITERATOR_DEBUG_LEVEL == 2
; 930  : 		if (size() <= _Pos)
; 931  : 			{	// report error
; 932  : 			_DEBUG_ERROR("vector subscript out of range");
; 933  : 			_SCL_SECURE_OUT_OF_RANGE;
; 934  : 			}
; 935  : 
; 936  :  #elif _ITERATOR_DEBUG_LEVEL == 1
; 937  : 		_SCL_SECURE_VALIDATE_RANGE(_Pos < size());
; 938  :  #endif /* _ITERATOR_DEBUG_LEVEL */
; 939  : 
; 940  : 		return (*(this->_Myfirst + _Pos));

  00003	8b 01		 mov	 eax, DWORD PTR [ecx]
  00005	8b 4d 08	 mov	 ecx, DWORD PTR __Pos$[ebp]
  00008	8d 04 88	 lea	 eax, DWORD PTR [eax+ecx*4]

; 941  : 		}

  0000b	5d		 pop	 ebp
  0000c	c2 04 00	 ret	 4
??A?$vector@PBQAUBox@BoxSpace@@V?$allocator@PBQAUBox@BoxSpace@@@std@@@std@@QAEAAPBQAUBox@BoxSpace@@I@Z ENDP ; std::vector<BoxSpace::Box * const *,std::allocator<BoxSpace::Box * const *> >::operator[]
_TEXT	ENDS
PUBLIC	??0?$_Vector_const_iterator@V?$_Vector_val@ULink@BoxSpace@@V?$allocator@ULink@BoxSpace@@@std@@@std@@@std@@QAE@PAULink@BoxSpace@@PBU_Container_base0@1@@Z ; std::_Vector_const_iterator<std::_Vector_val<BoxSpace::Link,std::allocator<BoxSpace::Link> > >::_Vector_const_iterator<std::_Vector_val<BoxSpace::Link,std::allocator<BoxSpace::Link> > >
; Function compile flags: /Ogsp
;	COMDAT ??0?$_Vector_const_iterator@V?$_Vector_val@ULink@BoxSpace@@V?$allocator@ULink@BoxSpace@@@std@@@std@@@std@@QAE@PAULink@BoxSpace@@PBU_Container_base0@1@@Z
_TEXT	SEGMENT
__Parg$ = 8						; size = 4
__Pvector$ = 12						; size = 4
??0?$_Vector_const_iterator@V?$_Vector_val@ULink@BoxSpace@@V?$allocator@ULink@BoxSpace@@@std@@@std@@@std@@QAE@PAULink@BoxSpace@@PBU_Container_base0@1@@Z PROC ; std::_Vector_const_iterator<std::_Vector_val<BoxSpace::Link,std::allocator<BoxSpace::Link> > >::_Vector_const_iterator<std::_Vector_val<BoxSpace::Link,std::allocator<BoxSpace::Link> > >, COMDAT
; _this$ = ecx

; 45   : 		{	// construct with pointer _Parg

  00000	55		 push	 ebp
  00001	8b ec		 mov	 ebp, esp
  00003	8b c1		 mov	 eax, ecx
  00005	8b 4d 08	 mov	 ecx, DWORD PTR __Parg$[ebp]
  00008	89 08		 mov	 DWORD PTR [eax], ecx

; 46   : 		this->_Adopt(_Pvector);
; 47   : 		}

  0000a	5d		 pop	 ebp
  0000b	c2 08 00	 ret	 8
??0?$_Vector_const_iterator@V?$_Vector_val@ULink@BoxSpace@@V?$allocator@ULink@BoxSpace@@@std@@@std@@@std@@QAE@PAULink@BoxSpace@@PBU_Container_base0@1@@Z ENDP ; std::_Vector_const_iterator<std::_Vector_val<BoxSpace::Link,std::allocator<BoxSpace::Link> > >::_Vector_const_iterator<std::_Vector_val<BoxSpace::Link,std::allocator<BoxSpace::Link> > >
_TEXT	ENDS
PUBLIC	??E?$_Vector_const_iterator@V?$_Vector_val@ULink@BoxSpace@@V?$allocator@ULink@BoxSpace@@@std@@@std@@@std@@QAEAAV01@XZ ; std::_Vector_const_iterator<std::_Vector_val<BoxSpace::Link,std::allocator<BoxSpace::Link> > >::operator++
; Function compile flags: /Ogsp
;	COMDAT ??E?$_Vector_const_iterator@V?$_Vector_val@ULink@BoxSpace@@V?$allocator@ULink@BoxSpace@@@std@@@std@@@std@@QAEAAV01@XZ
_TEXT	SEGMENT
??E?$_Vector_const_iterator@V?$_Vector_val@ULink@BoxSpace@@V?$allocator@ULink@BoxSpace@@@std@@@std@@@std@@QAEAAV01@XZ PROC ; std::_Vector_const_iterator<std::_Vector_val<BoxSpace::Link,std::allocator<BoxSpace::Link> > >::operator++, COMDAT
; _this$ = ecx

; 93   : 		{	// preincrement

  00000	8b c1		 mov	 eax, ecx

; 94   :  #if _ITERATOR_DEBUG_LEVEL == 2
; 95   : 		if (this->_Getcont() == 0
; 96   : 			|| this->_Ptr == 0
; 97   : 			|| ((_Myvec *)this->_Getcont())->_Mylast <= this->_Ptr)
; 98   : 			{	// report error
; 99   : 			_DEBUG_ERROR("vector iterator not incrementable");
; 100  : 			_SCL_SECURE_OUT_OF_RANGE;
; 101  : 			}
; 102  : 
; 103  :  #elif _ITERATOR_DEBUG_LEVEL == 1
; 104  : 		_SCL_SECURE_VALIDATE(this->_Getcont() != 0);
; 105  : 		_SCL_SECURE_VALIDATE_RANGE(
; 106  : 			this->_Ptr != 0
; 107  : 			&& this->_Ptr < ((_Myvec *)this->_Getcont())->_Mylast);
; 108  :  #endif /* _ITERATOR_DEBUG_LEVEL */
; 109  : 
; 110  : 		++this->_Ptr;

  00002	83 00 20	 add	 DWORD PTR [eax], 32	; 00000020H

; 111  : 		return (*this);
; 112  : 		}

  00005	c3		 ret	 0
??E?$_Vector_const_iterator@V?$_Vector_val@ULink@BoxSpace@@V?$allocator@ULink@BoxSpace@@@std@@@std@@@std@@QAEAAV01@XZ ENDP ; std::_Vector_const_iterator<std::_Vector_val<BoxSpace::Link,std::allocator<BoxSpace::Link> > >::operator++
_TEXT	ENDS
PUBLIC	??D?$_Vector_const_iterator@V?$_Vector_val@UBox@BoxSpace@@V?$allocator@UBox@BoxSpace@@@std@@@std@@@std@@QBEABUBox@BoxSpace@@XZ ; std::_Vector_const_iterator<std::_Vector_val<BoxSpace::Box,std::allocator<BoxSpace::Box> > >::operator*
; Function compile flags: /Ogsp
;	COMDAT ??D?$_Vector_const_iterator@V?$_Vector_val@UBox@BoxSpace@@V?$allocator@UBox@BoxSpace@@@std@@@std@@@std@@QBEABUBox@BoxSpace@@XZ
_TEXT	SEGMENT
??D?$_Vector_const_iterator@V?$_Vector_val@UBox@BoxSpace@@V?$allocator@UBox@BoxSpace@@@std@@@std@@@std@@QBEABUBox@BoxSpace@@XZ PROC ; std::_Vector_const_iterator<std::_Vector_val<BoxSpace::Box,std::allocator<BoxSpace::Box> > >::operator*, COMDAT
; _this$ = ecx

; 64   :  #if _ITERATOR_DEBUG_LEVEL == 2
; 65   : 		if (this->_Getcont() == 0
; 66   : 			|| this->_Ptr == 0
; 67   : 			|| this->_Ptr < ((_Myvec *)this->_Getcont())->_Myfirst
; 68   : 			|| ((_Myvec *)this->_Getcont())->_Mylast <= this->_Ptr)
; 69   : 			{	// report error
; 70   : 			_DEBUG_ERROR("vector iterator not dereferencable");
; 71   : 			_SCL_SECURE_OUT_OF_RANGE;
; 72   : 			}
; 73   : 
; 74   :  #elif _ITERATOR_DEBUG_LEVEL == 1
; 75   : 		_SCL_SECURE_VALIDATE(this->_Getcont() != 0);
; 76   : 		_SCL_SECURE_VALIDATE_RANGE(
; 77   : 			this->_Ptr != 0
; 78   : 			&& ((_Myvec *)this->_Getcont())->_Myfirst <= this->_Ptr
; 79   : 			&& this->_Ptr < ((_Myvec *)this->_Getcont())->_Mylast);
; 80   :  #endif /* _ITERATOR_DEBUG_LEVEL */
; 81   : 
; 82   : 		__analysis_assume(this->_Ptr != 0);
; 83   : 
; 84   : 		return (*this->_Ptr);

  00000	8b 01		 mov	 eax, DWORD PTR [ecx]

; 85   : 		}

  00002	c3		 ret	 0
??D?$_Vector_const_iterator@V?$_Vector_val@UBox@BoxSpace@@V?$allocator@UBox@BoxSpace@@@std@@@std@@@std@@QBEABUBox@BoxSpace@@XZ ENDP ; std::_Vector_const_iterator<std::_Vector_val<BoxSpace::Box,std::allocator<BoxSpace::Box> > >::operator*
_TEXT	ENDS
PUBLIC	?max_size@?$allocator@F@std@@QBEIXZ		; std::allocator<short>::max_size
; Function compile flags: /Ogsp
; File c:\program files (x86)\microsoft visual studio 10.0\vc\include\xmemory
;	COMDAT ?max_size@?$allocator@F@std@@QBEIXZ
_TEXT	SEGMENT
?max_size@?$allocator@F@std@@QBEIXZ PROC		; std::allocator<short>::max_size, COMDAT
; _this$ = ecx

; 218  : 		_SIZT _Count = (_SIZT)(-1) / sizeof (_Ty);
; 219  : 		return (0 < _Count ? _Count : 1);

  00000	b8 ff ff ff 7f	 mov	 eax, 2147483647		; 7fffffffH

; 220  : 		}

  00005	c3		 ret	 0
?max_size@?$allocator@F@std@@QBEIXZ ENDP		; std::allocator<short>::max_size
_TEXT	ENDS
PUBLIC	?capacity@?$vector@ULink@BoxSpace@@V?$allocator@ULink@BoxSpace@@@std@@@std@@QBEIXZ ; std::vector<BoxSpace::Link,std::allocator<BoxSpace::Link> >::capacity
; Function compile flags: /Ogsp
; File c:\program files (x86)\microsoft visual studio 10.0\vc\include\vector
;	COMDAT ?capacity@?$vector@ULink@BoxSpace@@V?$allocator@ULink@BoxSpace@@@std@@@std@@QBEIXZ
_TEXT	SEGMENT
?capacity@?$vector@ULink@BoxSpace@@V?$allocator@ULink@BoxSpace@@@std@@@std@@QBEIXZ PROC ; std::vector<BoxSpace::Link,std::allocator<BoxSpace::Link> >::capacity, COMDAT
; _this$ = ecx

; 777  : 		return (this->_Myend - this->_Myfirst);

  00000	8b 41 08	 mov	 eax, DWORD PTR [ecx+8]
  00003	2b 01		 sub	 eax, DWORD PTR [ecx]
  00005	c1 f8 05	 sar	 eax, 5

; 778  : 		}

  00008	c3		 ret	 0
?capacity@?$vector@ULink@BoxSpace@@V?$allocator@ULink@BoxSpace@@@std@@@std@@QBEIXZ ENDP ; std::vector<BoxSpace::Link,std::allocator<BoxSpace::Link> >::capacity
_TEXT	ENDS
PUBLIC	?_Xlen@?$vector@ULink@BoxSpace@@V?$allocator@ULink@BoxSpace@@@std@@@std@@IBEXXZ ; std::vector<BoxSpace::Link,std::allocator<BoxSpace::Link> >::_Xlen
; Function compile flags: /Ogsp
;	COMDAT ?_Xlen@?$vector@ULink@BoxSpace@@V?$allocator@ULink@BoxSpace@@@std@@@std@@IBEXXZ
_TEXT	SEGMENT
?_Xlen@?$vector@ULink@BoxSpace@@V?$allocator@ULink@BoxSpace@@@std@@@std@@IBEXXZ PROC ; std::vector<BoxSpace::Link,std::allocator<BoxSpace::Link> >::_Xlen, COMDAT
; _this$ = ecx

; 1427 : 		_Xlength_error("vector<T> too long");

  00000	68 00 00 00 00	 push	 OFFSET ??_C@_0BD@OLBABOEK@vector?$DMT?$DO?5too?5long?$AA@
  00005	ff 15 00 00 00
	00		 call	 DWORD PTR __imp_?_Xlength_error@std@@YAXPBD@Z
$LN4@Xlen@2:
$LN3@Xlen@2:
  0000b	cc		 int	 3
?_Xlen@?$vector@ULink@BoxSpace@@V?$allocator@ULink@BoxSpace@@@std@@@std@@IBEXXZ ENDP ; std::vector<BoxSpace::Link,std::allocator<BoxSpace::Link> >::_Xlen
_TEXT	ENDS
PUBLIC	??0?$allocator@ULink@BoxSpace@@@std@@QAE@ABV01@@Z ; std::allocator<BoxSpace::Link>::allocator<BoxSpace::Link>
; Function compile flags: /Ogsp
; File c:\program files (x86)\microsoft visual studio 10.0\vc\include\xmemory
;	COMDAT ??0?$allocator@ULink@BoxSpace@@@std@@QAE@ABV01@@Z
_TEXT	SEGMENT
___formal$ = 8						; size = 4
??0?$allocator@ULink@BoxSpace@@@std@@QAE@ABV01@@Z PROC	; std::allocator<BoxSpace::Link>::allocator<BoxSpace::Link>, COMDAT
; _this$ = ecx

; 165  : 	_ALLOCATOR(const _ALLOCATOR<_Ty>&) _THROW0()

  00000	8b c1		 mov	 eax, ecx

; 166  : 		{	// construct by copying (do nothing)
; 167  : 		}

  00002	c2 04 00	 ret	 4
??0?$allocator@ULink@BoxSpace@@@std@@QAE@ABV01@@Z ENDP	; std::allocator<BoxSpace::Link>::allocator<BoxSpace::Link>
_TEXT	ENDS
PUBLIC	?capacity@?$vector@UBox@BoxSpace@@V?$allocator@UBox@BoxSpace@@@std@@@std@@QBEIXZ ; std::vector<BoxSpace::Box,std::allocator<BoxSpace::Box> >::capacity
; Function compile flags: /Ogsp
; File c:\program files (x86)\microsoft visual studio 10.0\vc\include\vector
;	COMDAT ?capacity@?$vector@UBox@BoxSpace@@V?$allocator@UBox@BoxSpace@@@std@@@std@@QBEIXZ
_TEXT	SEGMENT
?capacity@?$vector@UBox@BoxSpace@@V?$allocator@UBox@BoxSpace@@@std@@@std@@QBEIXZ PROC ; std::vector<BoxSpace::Box,std::allocator<BoxSpace::Box> >::capacity, COMDAT
; _this$ = ecx

; 777  : 		return (this->_Myend - this->_Myfirst);

  00000	8b 41 08	 mov	 eax, DWORD PTR [ecx+8]
  00003	2b 01		 sub	 eax, DWORD PTR [ecx]
  00005	6a 58		 push	 88			; 00000058H
  00007	99		 cdq
  00008	59		 pop	 ecx
  00009	f7 f9		 idiv	 ecx

; 778  : 		}

  0000b	c3		 ret	 0
?capacity@?$vector@UBox@BoxSpace@@V?$allocator@UBox@BoxSpace@@@std@@@std@@QBEIXZ ENDP ; std::vector<BoxSpace::Box,std::allocator<BoxSpace::Box> >::capacity
_TEXT	ENDS
PUBLIC	?_Xlen@?$vector@UBox@BoxSpace@@V?$allocator@UBox@BoxSpace@@@std@@@std@@IBEXXZ ; std::vector<BoxSpace::Box,std::allocator<BoxSpace::Box> >::_Xlen
; Function compile flags: /Ogsp
;	COMDAT ?_Xlen@?$vector@UBox@BoxSpace@@V?$allocator@UBox@BoxSpace@@@std@@@std@@IBEXXZ
_TEXT	SEGMENT
?_Xlen@?$vector@UBox@BoxSpace@@V?$allocator@UBox@BoxSpace@@@std@@@std@@IBEXXZ PROC ; std::vector<BoxSpace::Box,std::allocator<BoxSpace::Box> >::_Xlen, COMDAT
; _this$ = ecx

; 1427 : 		_Xlength_error("vector<T> too long");

  00000	68 00 00 00 00	 push	 OFFSET ??_C@_0BD@OLBABOEK@vector?$DMT?$DO?5too?5long?$AA@
  00005	ff 15 00 00 00
	00		 call	 DWORD PTR __imp_?_Xlength_error@std@@YAXPBD@Z
$LN4@Xlen@3:
$LN3@Xlen@3:
  0000b	cc		 int	 3
?_Xlen@?$vector@UBox@BoxSpace@@V?$allocator@UBox@BoxSpace@@@std@@@std@@IBEXXZ ENDP ; std::vector<BoxSpace::Box,std::allocator<BoxSpace::Box> >::_Xlen
_TEXT	ENDS
PUBLIC	?_Compat@?$_Vector_const_iterator@V?$_Vector_val@ULink@BoxSpace@@V?$allocator@ULink@BoxSpace@@@std@@@std@@@std@@QBEXABV12@@Z ; std::_Vector_const_iterator<std::_Vector_val<BoxSpace::Link,std::allocator<BoxSpace::Link> > >::_Compat
; Function compile flags: /Ogsp
;	COMDAT ?_Compat@?$_Vector_const_iterator@V?$_Vector_val@ULink@BoxSpace@@V?$allocator@ULink@BoxSpace@@@std@@@std@@@std@@QBEXABV12@@Z
_TEXT	SEGMENT
___formal$ = 8						; size = 4
?_Compat@?$_Vector_const_iterator@V?$_Vector_val@ULink@BoxSpace@@V?$allocator@ULink@BoxSpace@@@std@@@std@@@std@@QBEXABV12@@Z PROC ; std::_Vector_const_iterator<std::_Vector_val<BoxSpace::Link,std::allocator<BoxSpace::Link> > >::_Compat, COMDAT
; _this$ = ecx

; 253  : 		}

  00000	c2 04 00	 ret	 4
?_Compat@?$_Vector_const_iterator@V?$_Vector_val@ULink@BoxSpace@@V?$allocator@ULink@BoxSpace@@@std@@@std@@@std@@QBEXABV12@@Z ENDP ; std::_Vector_const_iterator<std::_Vector_val<BoxSpace::Link,std::allocator<BoxSpace::Link> > >::_Compat
_TEXT	ENDS
PUBLIC	??0?$_Vector_const_iterator@V?$_Vector_val@UBox@BoxSpace@@V?$allocator@UBox@BoxSpace@@@std@@@std@@@std@@QAE@PAUBox@BoxSpace@@PBU_Container_base0@1@@Z ; std::_Vector_const_iterator<std::_Vector_val<BoxSpace::Box,std::allocator<BoxSpace::Box> > >::_Vector_const_iterator<std::_Vector_val<BoxSpace::Box,std::allocator<BoxSpace::Box> > >
; Function compile flags: /Ogsp
;	COMDAT ??0?$_Vector_const_iterator@V?$_Vector_val@UBox@BoxSpace@@V?$allocator@UBox@BoxSpace@@@std@@@std@@@std@@QAE@PAUBox@BoxSpace@@PBU_Container_base0@1@@Z
_TEXT	SEGMENT
__Parg$ = 8						; size = 4
__Pvector$ = 12						; size = 4
??0?$_Vector_const_iterator@V?$_Vector_val@UBox@BoxSpace@@V?$allocator@UBox@BoxSpace@@@std@@@std@@@std@@QAE@PAUBox@BoxSpace@@PBU_Container_base0@1@@Z PROC ; std::_Vector_const_iterator<std::_Vector_val<BoxSpace::Box,std::allocator<BoxSpace::Box> > >::_Vector_const_iterator<std::_Vector_val<BoxSpace::Box,std::allocator<BoxSpace::Box> > >, COMDAT
; _this$ = ecx

; 45   : 		{	// construct with pointer _Parg

  00000	55		 push	 ebp
  00001	8b ec		 mov	 ebp, esp
  00003	8b c1		 mov	 eax, ecx
  00005	8b 4d 08	 mov	 ecx, DWORD PTR __Parg$[ebp]
  00008	89 08		 mov	 DWORD PTR [eax], ecx

; 46   : 		this->_Adopt(_Pvector);
; 47   : 		}

  0000a	5d		 pop	 ebp
  0000b	c2 08 00	 ret	 8
??0?$_Vector_const_iterator@V?$_Vector_val@UBox@BoxSpace@@V?$allocator@UBox@BoxSpace@@@std@@@std@@@std@@QAE@PAUBox@BoxSpace@@PBU_Container_base0@1@@Z ENDP ; std::_Vector_const_iterator<std::_Vector_val<BoxSpace::Box,std::allocator<BoxSpace::Box> > >::_Vector_const_iterator<std::_Vector_val<BoxSpace::Box,std::allocator<BoxSpace::Box> > >
_TEXT	ENDS
PUBLIC	?max_size@?$allocator@ULink@BoxSpace@@@std@@QBEIXZ ; std::allocator<BoxSpace::Link>::max_size
; Function compile flags: /Ogsp
; File c:\program files (x86)\microsoft visual studio 10.0\vc\include\xmemory
;	COMDAT ?max_size@?$allocator@ULink@BoxSpace@@@std@@QBEIXZ
_TEXT	SEGMENT
?max_size@?$allocator@ULink@BoxSpace@@@std@@QBEIXZ PROC	; std::allocator<BoxSpace::Link>::max_size, COMDAT
; _this$ = ecx

; 218  : 		_SIZT _Count = (_SIZT)(-1) / sizeof (_Ty);
; 219  : 		return (0 < _Count ? _Count : 1);

  00000	b8 ff ff ff 07	 mov	 eax, 134217727		; 07ffffffH

; 220  : 		}

  00005	c3		 ret	 0
?max_size@?$allocator@ULink@BoxSpace@@@std@@QBEIXZ ENDP	; std::allocator<BoxSpace::Link>::max_size
_TEXT	ENDS
PUBLIC	?max_size@?$allocator@UBox@BoxSpace@@@std@@QBEIXZ ; std::allocator<BoxSpace::Box>::max_size
; Function compile flags: /Ogsp
;	COMDAT ?max_size@?$allocator@UBox@BoxSpace@@@std@@QBEIXZ
_TEXT	SEGMENT
?max_size@?$allocator@UBox@BoxSpace@@@std@@QBEIXZ PROC	; std::allocator<BoxSpace::Box>::max_size, COMDAT
; _this$ = ecx

; 218  : 		_SIZT _Count = (_SIZT)(-1) / sizeof (_Ty);
; 219  : 		return (0 < _Count ? _Count : 1);

  00000	b8 2e ba e8 02	 mov	 eax, 48806446		; 02e8ba2eH

; 220  : 		}

  00005	c3		 ret	 0
?max_size@?$allocator@UBox@BoxSpace@@@std@@QBEIXZ ENDP	; std::allocator<BoxSpace::Box>::max_size
_TEXT	ENDS
PUBLIC	??0DNode@?$AStarSearcher@VBoxSpace@@PAUBox@1@@@QAE@XZ ; AStarSearcher<BoxSpace,BoxSpace::Box *>::DNode::DNode
; Function compile flags: /Ogsp
; File d:\lost saga for developer\youtube\tutorial\source\src\lsclient\astar.h
;	COMDAT ??0DNode@?$AStarSearcher@VBoxSpace@@PAUBox@1@@@QAE@XZ
_TEXT	SEGMENT
??0DNode@?$AStarSearcher@VBoxSpace@@PAUBox@1@@@QAE@XZ PROC ; AStarSearcher<BoxSpace,BoxSpace::Box *>::DNode::DNode, COMDAT
; _this$ = ecx

; 81   : 			parent = NULL; 
; 82   : 			cost = total = 0; 

  00000	0f 57 c0	 xorps	 xmm0, xmm0
  00003	8b c1		 mov	 eax, ecx
  00005	33 c9		 xor	 ecx, ecx
  00007	89 48 04	 mov	 DWORD PTR [eax+4], ecx
  0000a	f3 0f 11 40 0c	 movss	 DWORD PTR [eax+12], xmm0
  0000f	f3 0f 11 40 08	 movss	 DWORD PTR [eax+8], xmm0

; 83   : 			bOpen = bClose = false; 

  00014	66 89 48 10	 mov	 WORD PTR [eax+16], cx

; 84   : 		}

  00018	c3		 ret	 0
??0DNode@?$AStarSearcher@VBoxSpace@@PAUBox@1@@@QAE@XZ ENDP ; AStarSearcher<BoxSpace,BoxSpace::Box *>::DNode::DNode
_TEXT	ENDS
PUBLIC	?empty@?$vector@PAUDNode@?$AStarSearcher@VBoxSpace@@PAUBox@1@@@V?$allocator@PAUDNode@?$AStarSearcher@VBoxSpace@@PAUBox@1@@@@std@@@std@@QBE_NXZ ; std::vector<AStarSearcher<BoxSpace,BoxSpace::Box *>::DNode *,std::allocator<AStarSearcher<BoxSpace,BoxSpace::Box *>::DNode *> >::empty
; Function compile flags: /Ogsp
; File c:\program files (x86)\microsoft visual studio 10.0\vc\include\vector
;	COMDAT ?empty@?$vector@PAUDNode@?$AStarSearcher@VBoxSpace@@PAUBox@1@@@V?$allocator@PAUDNode@?$AStarSearcher@VBoxSpace@@PAUBox@1@@@@std@@@std@@QBE_NXZ
_TEXT	SEGMENT
?empty@?$vector@PAUDNode@?$AStarSearcher@VBoxSpace@@PAUBox@1@@@V?$allocator@PAUDNode@?$AStarSearcher@VBoxSpace@@PAUBox@1@@@@std@@@std@@QBE_NXZ PROC ; std::vector<AStarSearcher<BoxSpace,BoxSpace::Box *>::DNode *,std::allocator<AStarSearcher<BoxSpace,BoxSpace::Box *>::DNode *> >::empty, COMDAT
; _this$ = ecx

; 889  : 		return (this->_Myfirst == this->_Mylast);

  00000	8b 01		 mov	 eax, DWORD PTR [ecx]
  00002	2b 41 04	 sub	 eax, DWORD PTR [ecx+4]
  00005	f7 d8		 neg	 eax
  00007	1b c0		 sbb	 eax, eax
  00009	40		 inc	 eax

; 890  : 		}

  0000a	c3		 ret	 0
?empty@?$vector@PAUDNode@?$AStarSearcher@VBoxSpace@@PAUBox@1@@@V?$allocator@PAUDNode@?$AStarSearcher@VBoxSpace@@PAUBox@1@@@@std@@@std@@QBE_NXZ ENDP ; std::vector<AStarSearcher<BoxSpace,BoxSpace::Box *>::DNode *,std::allocator<AStarSearcher<BoxSpace,BoxSpace::Box *>::DNode *> >::empty
_TEXT	ENDS
PUBLIC	?_Inside@?$vector@PAUDNode@?$AStarSearcher@VBoxSpace@@PAUBox@1@@@V?$allocator@PAUDNode@?$AStarSearcher@VBoxSpace@@PAUBox@1@@@@std@@@std@@IBE_NPBQAUDNode@?$AStarSearcher@VBoxSpace@@PAUBox@1@@@@Z ; std::vector<AStarSearcher<BoxSpace,BoxSpace::Box *>::DNode *,std::allocator<AStarSearcher<BoxSpace,BoxSpace::Box *>::DNode *> >::_Inside
; Function compile flags: /Ogsp
;	COMDAT ?_Inside@?$vector@PAUDNode@?$AStarSearcher@VBoxSpace@@PAUBox@1@@@V?$allocator@PAUDNode@?$AStarSearcher@VBoxSpace@@PAUBox@1@@@@std@@@std@@IBE_NPBQAUDNode@?$AStarSearcher@VBoxSpace@@PAUBox@1@@@@Z
_TEXT	SEGMENT
__Ptr$ = 8						; size = 4
?_Inside@?$vector@PAUDNode@?$AStarSearcher@VBoxSpace@@PAUBox@1@@@V?$allocator@PAUDNode@?$AStarSearcher@VBoxSpace@@PAUBox@1@@@@std@@@std@@IBE_NPBQAUDNode@?$AStarSearcher@VBoxSpace@@PAUBox@1@@@@Z PROC ; std::vector<AStarSearcher<BoxSpace,BoxSpace::Box *>::DNode *,std::allocator<AStarSearcher<BoxSpace,BoxSpace::Box *>::DNode *> >::_Inside, COMDAT
; _this$ = ecx

; 1285 : 		{	// test if _Ptr points inside vector

  00000	55		 push	 ebp
  00001	8b ec		 mov	 ebp, esp

; 1286 : 		return (_Ptr < this->_Mylast && this->_Myfirst <= _Ptr);

  00003	8b 45 08	 mov	 eax, DWORD PTR __Ptr$[ebp]
  00006	3b 41 04	 cmp	 eax, DWORD PTR [ecx+4]
  00009	73 09		 jae	 SHORT $LN3@Inside@4
  0000b	39 01		 cmp	 DWORD PTR [ecx], eax
  0000d	77 05		 ja	 SHORT $LN3@Inside@4
  0000f	33 c0		 xor	 eax, eax
  00011	40		 inc	 eax
  00012	eb 02		 jmp	 SHORT $LN4@Inside@4
$LN3@Inside@4:
  00014	33 c0		 xor	 eax, eax
$LN4@Inside@4:

; 1287 : 		}

  00016	5d		 pop	 ebp
  00017	c2 04 00	 ret	 4
?_Inside@?$vector@PAUDNode@?$AStarSearcher@VBoxSpace@@PAUBox@1@@@V?$allocator@PAUDNode@?$AStarSearcher@VBoxSpace@@PAUBox@1@@@@std@@@std@@IBE_NPBQAUDNode@?$AStarSearcher@VBoxSpace@@PAUBox@1@@@@Z ENDP ; std::vector<AStarSearcher<BoxSpace,BoxSpace::Box *>::DNode *,std::allocator<AStarSearcher<BoxSpace,BoxSpace::Box *>::DNode *> >::_Inside
_TEXT	ENDS
PUBLIC	?_Orphan_range@?$vector@PAUDNode@?$AStarSearcher@VBoxSpace@@PAUBox@1@@@V?$allocator@PAUDNode@?$AStarSearcher@VBoxSpace@@PAUBox@1@@@@std@@@std@@IBEXPAPAUDNode@?$AStarSearcher@VBoxSpace@@PAUBox@1@@@0@Z ; std::vector<AStarSearcher<BoxSpace,BoxSpace::Box *>::DNode *,std::allocator<AStarSearcher<BoxSpace,BoxSpace::Box *>::DNode *> >::_Orphan_range
; Function compile flags: /Ogsp
;	COMDAT ?_Orphan_range@?$vector@PAUDNode@?$AStarSearcher@VBoxSpace@@PAUBox@1@@@V?$allocator@PAUDNode@?$AStarSearcher@VBoxSpace@@PAUBox@1@@@@std@@@std@@IBEXPAPAUDNode@?$AStarSearcher@VBoxSpace@@PAUBox@1@@@0@Z
_TEXT	SEGMENT
___formal$ = 8						; size = 4
___formal$ = 12						; size = 4
?_Orphan_range@?$vector@PAUDNode@?$AStarSearcher@VBoxSpace@@PAUBox@1@@@V?$allocator@PAUDNode@?$AStarSearcher@VBoxSpace@@PAUBox@1@@@@std@@@std@@IBEXPAPAUDNode@?$AStarSearcher@VBoxSpace@@PAUBox@1@@@0@Z PROC ; std::vector<AStarSearcher<BoxSpace,BoxSpace::Box *>::DNode *,std::allocator<AStarSearcher<BoxSpace,BoxSpace::Box *>::DNode *> >::_Orphan_range, COMDAT
; _this$ = ecx

; 1454 : 		}

  00000	c2 08 00	 ret	 8
?_Orphan_range@?$vector@PAUDNode@?$AStarSearcher@VBoxSpace@@PAUBox@1@@@V?$allocator@PAUDNode@?$AStarSearcher@VBoxSpace@@PAUBox@1@@@@std@@@std@@IBEXPAPAUDNode@?$AStarSearcher@VBoxSpace@@PAUBox@1@@@0@Z ENDP ; std::vector<AStarSearcher<BoxSpace,BoxSpace::Box *>::DNode *,std::allocator<AStarSearcher<BoxSpace,BoxSpace::Box *>::DNode *> >::_Orphan_range
_TEXT	ENDS
PUBLIC	??0?$_Vector_const_iterator@V?$_Vector_val@FV?$allocator@F@std@@@std@@@std@@QAE@PAFPBU_Container_base0@1@@Z ; std::_Vector_const_iterator<std::_Vector_val<short,std::allocator<short> > >::_Vector_const_iterator<std::_Vector_val<short,std::allocator<short> > >
; Function compile flags: /Ogsp
;	COMDAT ??0?$_Vector_const_iterator@V?$_Vector_val@FV?$allocator@F@std@@@std@@@std@@QAE@PAFPBU_Container_base0@1@@Z
_TEXT	SEGMENT
__Parg$ = 8						; size = 4
__Pvector$ = 12						; size = 4
??0?$_Vector_const_iterator@V?$_Vector_val@FV?$allocator@F@std@@@std@@@std@@QAE@PAFPBU_Container_base0@1@@Z PROC ; std::_Vector_const_iterator<std::_Vector_val<short,std::allocator<short> > >::_Vector_const_iterator<std::_Vector_val<short,std::allocator<short> > >, COMDAT
; _this$ = ecx

; 45   : 		{	// construct with pointer _Parg

  00000	55		 push	 ebp
  00001	8b ec		 mov	 ebp, esp
  00003	8b c1		 mov	 eax, ecx
  00005	8b 4d 08	 mov	 ecx, DWORD PTR __Parg$[ebp]
  00008	89 08		 mov	 DWORD PTR [eax], ecx

; 46   : 		this->_Adopt(_Pvector);
; 47   : 		}

  0000a	5d		 pop	 ebp
  0000b	c2 08 00	 ret	 8
??0?$_Vector_const_iterator@V?$_Vector_val@FV?$allocator@F@std@@@std@@@std@@QAE@PAFPBU_Container_base0@1@@Z ENDP ; std::_Vector_const_iterator<std::_Vector_val<short,std::allocator<short> > >::_Vector_const_iterator<std::_Vector_val<short,std::allocator<short> > >
_TEXT	ENDS
PUBLIC	?alloc_from_block@?$uni_heap@$0BE@$0IA@@@IAEPAXPAUTBlock@1@@Z ; uni_heap<20,128>::alloc_from_block
; Function compile flags: /Ogsp
; File d:\lost saga for developer\youtube\tutorial\source\src\lsclient\uniheap.h
;	COMDAT ?alloc_from_block@?$uni_heap@$0BE@$0IA@@@IAEPAXPAUTBlock@1@@Z
_TEXT	SEGMENT
_block$ = 8						; size = 4
?alloc_from_block@?$uni_heap@$0BE@$0IA@@@IAEPAXPAUTBlock@1@@Z PROC ; uni_heap<20,128>::alloc_from_block, COMDAT
; _this$ = ecx

; 186  : 	{

  00000	55		 push	 ebp
  00001	8b ec		 mov	 ebp, esp

; 187  : 		short index = block->firstFree;

  00003	8b 4d 08	 mov	 ecx, DWORD PTR _block$[ebp]
  00006	0f b7 81 00 0b
	00 00		 movzx	 eax, WORD PTR [ecx+2816]

; 188  : 		
; 189  : 		assert( index >= 0 && index < BLOCK_SIZE );
; 190  : 
; 191  : 		block->firstFree = block->freeLink[ index ];

  0000d	98		 cwde
  0000e	56		 push	 esi
  0000f	8d b4 41 00 0a
	00 00		 lea	 esi, DWORD PTR [ecx+eax*2+2560]

; 192  : 		block->freeLink[ index ] = OCCUPIED;
; 193  : 
; 194  : 		void* ptr = reinterpret_cast<char*>(block->buf) + index * UNIT_SIZE;

  00016	6b c0 14	 imul	 eax, 20			; 00000014H
  00019	57		 push	 edi
  0001a	66 8b 3e	 mov	 di, WORD PTR [esi]
  0001d	83 ca ff	 or	 edx, -1
  00020	66 89 b9 00 0b
	00 00		 mov	 WORD PTR [ecx+2816], di
  00027	66 89 16	 mov	 WORD PTR [esi], dx

; 195  : 
; 196  : 		// memory marking for debugging
; 197  : 		assert( (memset( ptr, 0xcd, UNIT_SIZE ), block->count < BLOCK_SIZE) );
; 198  : 
; 199  : 		block->count++;

  0002a	66 ff 81 02 0b
	00 00		 inc	 WORD PTR [ecx+2818]
  00031	5f		 pop	 edi
  00032	03 c1		 add	 eax, ecx
  00034	5e		 pop	 esi

; 200  : 		return ptr;
; 201  : 	}

  00035	5d		 pop	 ebp
  00036	c2 04 00	 ret	 4
?alloc_from_block@?$uni_heap@$0BE@$0IA@@@IAEPAXPAUTBlock@1@@Z ENDP ; uni_heap<20,128>::alloc_from_block
_TEXT	ENDS
PUBLIC	?capacity@?$vector@PAUDNode@?$AStarSearcher@VBoxSpace@@PAUBox@1@@@V?$allocator@PAUDNode@?$AStarSearcher@VBoxSpace@@PAUBox@1@@@@std@@@std@@QBEIXZ ; std::vector<AStarSearcher<BoxSpace,BoxSpace::Box *>::DNode *,std::allocator<AStarSearcher<BoxSpace,BoxSpace::Box *>::DNode *> >::capacity
; Function compile flags: /Ogsp
; File c:\program files (x86)\microsoft visual studio 10.0\vc\include\vector
;	COMDAT ?capacity@?$vector@PAUDNode@?$AStarSearcher@VBoxSpace@@PAUBox@1@@@V?$allocator@PAUDNode@?$AStarSearcher@VBoxSpace@@PAUBox@1@@@@std@@@std@@QBEIXZ
_TEXT	SEGMENT
?capacity@?$vector@PAUDNode@?$AStarSearcher@VBoxSpace@@PAUBox@1@@@V?$allocator@PAUDNode@?$AStarSearcher@VBoxSpace@@PAUBox@1@@@@std@@@std@@QBEIXZ PROC ; std::vector<AStarSearcher<BoxSpace,BoxSpace::Box *>::DNode *,std::allocator<AStarSearcher<BoxSpace,BoxSpace::Box *>::DNode *> >::capacity, COMDAT
; _this$ = ecx

; 777  : 		return (this->_Myend - this->_Myfirst);

  00000	8b 41 08	 mov	 eax, DWORD PTR [ecx+8]
  00003	2b 01		 sub	 eax, DWORD PTR [ecx]
  00005	c1 f8 02	 sar	 eax, 2

; 778  : 		}

  00008	c3		 ret	 0
?capacity@?$vector@PAUDNode@?$AStarSearcher@VBoxSpace@@PAUBox@1@@@V?$allocator@PAUDNode@?$AStarSearcher@VBoxSpace@@PAUBox@1@@@@std@@@std@@QBEIXZ ENDP ; std::vector<AStarSearcher<BoxSpace,BoxSpace::Box *>::DNode *,std::allocator<AStarSearcher<BoxSpace,BoxSpace::Box *>::DNode *> >::capacity
_TEXT	ENDS
PUBLIC	?size@?$vector@PAUDNode@?$AStarSearcher@VBoxSpace@@PAUBox@1@@@V?$allocator@PAUDNode@?$AStarSearcher@VBoxSpace@@PAUBox@1@@@@std@@@std@@QBEIXZ ; std::vector<AStarSearcher<BoxSpace,BoxSpace::Box *>::DNode *,std::allocator<AStarSearcher<BoxSpace,BoxSpace::Box *>::DNode *> >::size
; Function compile flags: /Ogsp
;	COMDAT ?size@?$vector@PAUDNode@?$AStarSearcher@VBoxSpace@@PAUBox@1@@@V?$allocator@PAUDNode@?$AStarSearcher@VBoxSpace@@PAUBox@1@@@@std@@@std@@QBEIXZ
_TEXT	SEGMENT
?size@?$vector@PAUDNode@?$AStarSearcher@VBoxSpace@@PAUBox@1@@@V?$allocator@PAUDNode@?$AStarSearcher@VBoxSpace@@PAUBox@1@@@@std@@@std@@QBEIXZ PROC ; std::vector<AStarSearcher<BoxSpace,BoxSpace::Box *>::DNode *,std::allocator<AStarSearcher<BoxSpace,BoxSpace::Box *>::DNode *> >::size, COMDAT
; _this$ = ecx

; 879  : 		return (this->_Mylast - this->_Myfirst);

  00000	8b 41 04	 mov	 eax, DWORD PTR [ecx+4]
  00003	2b 01		 sub	 eax, DWORD PTR [ecx]
  00005	c1 f8 02	 sar	 eax, 2

; 880  : 		}

  00008	c3		 ret	 0
?size@?$vector@PAUDNode@?$AStarSearcher@VBoxSpace@@PAUBox@1@@@V?$allocator@PAUDNode@?$AStarSearcher@VBoxSpace@@PAUBox@1@@@@std@@@std@@QBEIXZ ENDP ; std::vector<AStarSearcher<BoxSpace,BoxSpace::Box *>::DNode *,std::allocator<AStarSearcher<BoxSpace,BoxSpace::Box *>::DNode *> >::size
_TEXT	ENDS
PUBLIC	?_Xlen@?$vector@PAUDNode@?$AStarSearcher@VBoxSpace@@PAUBox@1@@@V?$allocator@PAUDNode@?$AStarSearcher@VBoxSpace@@PAUBox@1@@@@std@@@std@@IBEXXZ ; std::vector<AStarSearcher<BoxSpace,BoxSpace::Box *>::DNode *,std::allocator<AStarSearcher<BoxSpace,BoxSpace::Box *>::DNode *> >::_Xlen
; Function compile flags: /Ogsp
;	COMDAT ?_Xlen@?$vector@PAUDNode@?$AStarSearcher@VBoxSpace@@PAUBox@1@@@V?$allocator@PAUDNode@?$AStarSearcher@VBoxSpace@@PAUBox@1@@@@std@@@std@@IBEXXZ
_TEXT	SEGMENT
?_Xlen@?$vector@PAUDNode@?$AStarSearcher@VBoxSpace@@PAUBox@1@@@V?$allocator@PAUDNode@?$AStarSearcher@VBoxSpace@@PAUBox@1@@@@std@@@std@@IBEXXZ PROC ; std::vector<AStarSearcher<BoxSpace,BoxSpace::Box *>::DNode *,std::allocator<AStarSearcher<BoxSpace,BoxSpace::Box *>::DNode *> >::_Xlen, COMDAT
; _this$ = ecx

; 1427 : 		_Xlength_error("vector<T> too long");

  00000	68 00 00 00 00	 push	 OFFSET ??_C@_0BD@OLBABOEK@vector?$DMT?$DO?5too?5long?$AA@
  00005	ff 15 00 00 00
	00		 call	 DWORD PTR __imp_?_Xlength_error@std@@YAXPBD@Z
$LN4@Xlen@4:
$LN3@Xlen@4:
  0000b	cc		 int	 3
?_Xlen@?$vector@PAUDNode@?$AStarSearcher@VBoxSpace@@PAUBox@1@@@V?$allocator@PAUDNode@?$AStarSearcher@VBoxSpace@@PAUBox@1@@@@std@@@std@@IBEXXZ ENDP ; std::vector<AStarSearcher<BoxSpace,BoxSpace::Box *>::DNode *,std::allocator<AStarSearcher<BoxSpace,BoxSpace::Box *>::DNode *> >::_Xlen
_TEXT	ENDS
PUBLIC	?_Inside@?$vector@PBQAUBox@BoxSpace@@V?$allocator@PBQAUBox@BoxSpace@@@std@@@std@@IBE_NPBQBQAUBox@BoxSpace@@@Z ; std::vector<BoxSpace::Box * const *,std::allocator<BoxSpace::Box * const *> >::_Inside
; Function compile flags: /Ogsp
;	COMDAT ?_Inside@?$vector@PBQAUBox@BoxSpace@@V?$allocator@PBQAUBox@BoxSpace@@@std@@@std@@IBE_NPBQBQAUBox@BoxSpace@@@Z
_TEXT	SEGMENT
__Ptr$ = 8						; size = 4
?_Inside@?$vector@PBQAUBox@BoxSpace@@V?$allocator@PBQAUBox@BoxSpace@@@std@@@std@@IBE_NPBQBQAUBox@BoxSpace@@@Z PROC ; std::vector<BoxSpace::Box * const *,std::allocator<BoxSpace::Box * const *> >::_Inside, COMDAT
; _this$ = ecx

; 1285 : 		{	// test if _Ptr points inside vector

  00000	55		 push	 ebp
  00001	8b ec		 mov	 ebp, esp

; 1286 : 		return (_Ptr < this->_Mylast && this->_Myfirst <= _Ptr);

  00003	8b 45 08	 mov	 eax, DWORD PTR __Ptr$[ebp]
  00006	3b 41 04	 cmp	 eax, DWORD PTR [ecx+4]
  00009	73 09		 jae	 SHORT $LN3@Inside@5
  0000b	39 01		 cmp	 DWORD PTR [ecx], eax
  0000d	77 05		 ja	 SHORT $LN3@Inside@5
  0000f	33 c0		 xor	 eax, eax
  00011	40		 inc	 eax
  00012	eb 02		 jmp	 SHORT $LN4@Inside@5
$LN3@Inside@5:
  00014	33 c0		 xor	 eax, eax
$LN4@Inside@5:

; 1287 : 		}

  00016	5d		 pop	 ebp
  00017	c2 04 00	 ret	 4
?_Inside@?$vector@PBQAUBox@BoxSpace@@V?$allocator@PBQAUBox@BoxSpace@@@std@@@std@@IBE_NPBQBQAUBox@BoxSpace@@@Z ENDP ; std::vector<BoxSpace::Box * const *,std::allocator<BoxSpace::Box * const *> >::_Inside
_TEXT	ENDS
PUBLIC	?_Orphan_range@?$vector@PBQAUBox@BoxSpace@@V?$allocator@PBQAUBox@BoxSpace@@@std@@@std@@IBEXPAPBQAUBox@BoxSpace@@0@Z ; std::vector<BoxSpace::Box * const *,std::allocator<BoxSpace::Box * const *> >::_Orphan_range
; Function compile flags: /Ogsp
;	COMDAT ?_Orphan_range@?$vector@PBQAUBox@BoxSpace@@V?$allocator@PBQAUBox@BoxSpace@@@std@@@std@@IBEXPAPBQAUBox@BoxSpace@@0@Z
_TEXT	SEGMENT
___formal$ = 8						; size = 4
___formal$ = 12						; size = 4
?_Orphan_range@?$vector@PBQAUBox@BoxSpace@@V?$allocator@PBQAUBox@BoxSpace@@@std@@@std@@IBEXPAPBQAUBox@BoxSpace@@0@Z PROC ; std::vector<BoxSpace::Box * const *,std::allocator<BoxSpace::Box * const *> >::_Orphan_range, COMDAT
; _this$ = ecx

; 1454 : 		}

  00000	c2 08 00	 ret	 8
?_Orphan_range@?$vector@PBQAUBox@BoxSpace@@V?$allocator@PBQAUBox@BoxSpace@@@std@@@std@@IBEXPAPBQAUBox@BoxSpace@@0@Z ENDP ; std::vector<BoxSpace::Box * const *,std::allocator<BoxSpace::Box * const *> >::_Orphan_range
_TEXT	ENDS
PUBLIC	??0?$_Vector_const_iterator@V?$_Vector_val@PAUDNode@?$AStarSearcher@VBoxSpace@@PAUBox@1@@@V?$allocator@PAUDNode@?$AStarSearcher@VBoxSpace@@PAUBox@1@@@@std@@@std@@@std@@QAE@XZ ; std::_Vector_const_iterator<std::_Vector_val<AStarSearcher<BoxSpace,BoxSpace::Box *>::DNode *,std::allocator<AStarSearcher<BoxSpace,BoxSpace::Box *>::DNode *> > >::_Vector_const_iterator<std::_Vector_val<AStarSearcher<BoxSpace,BoxSpace::Box *>::DNode *,std::allocator<AStarSearcher<BoxSpace,BoxSpace::Box *>::DNode *> > >
; Function compile flags: /Ogsp
;	COMDAT ??0?$_Vector_const_iterator@V?$_Vector_val@PAUDNode@?$AStarSearcher@VBoxSpace@@PAUBox@1@@@V?$allocator@PAUDNode@?$AStarSearcher@VBoxSpace@@PAUBox@1@@@@std@@@std@@@std@@QAE@XZ
_TEXT	SEGMENT
??0?$_Vector_const_iterator@V?$_Vector_val@PAUDNode@?$AStarSearcher@VBoxSpace@@PAUBox@1@@@V?$allocator@PAUDNode@?$AStarSearcher@VBoxSpace@@PAUBox@1@@@@std@@@std@@@std@@QAE@XZ PROC ; std::_Vector_const_iterator<std::_Vector_val<AStarSearcher<BoxSpace,BoxSpace::Box *>::DNode *,std::allocator<AStarSearcher<BoxSpace,BoxSpace::Box *>::DNode *> > >::_Vector_const_iterator<std::_Vector_val<AStarSearcher<BoxSpace,BoxSpace::Box *>::DNode *,std::allocator<AStarSearcher<BoxSpace,BoxSpace::Box *>::DNode *> > >, COMDAT
; _this$ = ecx

; 40   : 		{	// construct with null pointer

  00000	8b c1		 mov	 eax, ecx
  00002	83 20 00	 and	 DWORD PTR [eax], 0

; 41   : 		}

  00005	c3		 ret	 0
??0?$_Vector_const_iterator@V?$_Vector_val@PAUDNode@?$AStarSearcher@VBoxSpace@@PAUBox@1@@@V?$allocator@PAUDNode@?$AStarSearcher@VBoxSpace@@PAUBox@1@@@@std@@@std@@@std@@QAE@XZ ENDP ; std::_Vector_const_iterator<std::_Vector_val<AStarSearcher<BoxSpace,BoxSpace::Box *>::DNode *,std::allocator<AStarSearcher<BoxSpace,BoxSpace::Box *>::DNode *> > >::_Vector_const_iterator<std::_Vector_val<AStarSearcher<BoxSpace,BoxSpace::Box *>::DNode *,std::allocator<AStarSearcher<BoxSpace,BoxSpace::Box *>::DNode *> > >
_TEXT	ENDS
PUBLIC	??D?$_Vector_const_iterator@V?$_Vector_val@PAUDNode@?$AStarSearcher@VBoxSpace@@PAUBox@1@@@V?$allocator@PAUDNode@?$AStarSearcher@VBoxSpace@@PAUBox@1@@@@std@@@std@@@std@@QBEABQAUDNode@?$AStarSearcher@VBoxSpace@@PAUBox@1@@@XZ ; std::_Vector_const_iterator<std::_Vector_val<AStarSearcher<BoxSpace,BoxSpace::Box *>::DNode *,std::allocator<AStarSearcher<BoxSpace,BoxSpace::Box *>::DNode *> > >::operator*
; Function compile flags: /Ogsp
;	COMDAT ??D?$_Vector_const_iterator@V?$_Vector_val@PAUDNode@?$AStarSearcher@VBoxSpace@@PAUBox@1@@@V?$allocator@PAUDNode@?$AStarSearcher@VBoxSpace@@PAUBox@1@@@@std@@@std@@@std@@QBEABQAUDNode@?$AStarSearcher@VBoxSpace@@PAUBox@1@@@XZ
_TEXT	SEGMENT
??D?$_Vector_const_iterator@V?$_Vector_val@PAUDNode@?$AStarSearcher@VBoxSpace@@PAUBox@1@@@V?$allocator@PAUDNode@?$AStarSearcher@VBoxSpace@@PAUBox@1@@@@std@@@std@@@std@@QBEABQAUDNode@?$AStarSearcher@VBoxSpace@@PAUBox@1@@@XZ PROC ; std::_Vector_const_iterator<std::_Vector_val<AStarSearcher<BoxSpace,BoxSpace::Box *>::DNode *,std::allocator<AStarSearcher<BoxSpace,BoxSpace::Box *>::DNode *> > >::operator*, COMDAT
; _this$ = ecx

; 64   :  #if _ITERATOR_DEBUG_LEVEL == 2
; 65   : 		if (this->_Getcont() == 0
; 66   : 			|| this->_Ptr == 0
; 67   : 			|| this->_Ptr < ((_Myvec *)this->_Getcont())->_Myfirst
; 68   : 			|| ((_Myvec *)this->_Getcont())->_Mylast <= this->_Ptr)
; 69   : 			{	// report error
; 70   : 			_DEBUG_ERROR("vector iterator not dereferencable");
; 71   : 			_SCL_SECURE_OUT_OF_RANGE;
; 72   : 			}
; 73   : 
; 74   :  #elif _ITERATOR_DEBUG_LEVEL == 1
; 75   : 		_SCL_SECURE_VALIDATE(this->_Getcont() != 0);
; 76   : 		_SCL_SECURE_VALIDATE_RANGE(
; 77   : 			this->_Ptr != 0
; 78   : 			&& ((_Myvec *)this->_Getcont())->_Myfirst <= this->_Ptr
; 79   : 			&& this->_Ptr < ((_Myvec *)this->_Getcont())->_Mylast);
; 80   :  #endif /* _ITERATOR_DEBUG_LEVEL */
; 81   : 
; 82   : 		__analysis_assume(this->_Ptr != 0);
; 83   : 
; 84   : 		return (*this->_Ptr);

  00000	8b 01		 mov	 eax, DWORD PTR [ecx]

; 85   : 		}

  00002	c3		 ret	 0
??D?$_Vector_const_iterator@V?$_Vector_val@PAUDNode@?$AStarSearcher@VBoxSpace@@PAUBox@1@@@V?$allocator@PAUDNode@?$AStarSearcher@VBoxSpace@@PAUBox@1@@@@std@@@std@@@std@@QBEABQAUDNode@?$AStarSearcher@VBoxSpace@@PAUBox@1@@@XZ ENDP ; std::_Vector_const_iterator<std::_Vector_val<AStarSearcher<BoxSpace,BoxSpace::Box *>::DNode *,std::allocator<AStarSearcher<BoxSpace,BoxSpace::Box *>::DNode *> > >::operator*
_TEXT	ENDS
PUBLIC	?_Compat@?$_Vector_const_iterator@V?$_Vector_val@FV?$allocator@F@std@@@std@@@std@@QBEXABV12@@Z ; std::_Vector_const_iterator<std::_Vector_val<short,std::allocator<short> > >::_Compat
; Function compile flags: /Ogsp
;	COMDAT ?_Compat@?$_Vector_const_iterator@V?$_Vector_val@FV?$allocator@F@std@@@std@@@std@@QBEXABV12@@Z
_TEXT	SEGMENT
___formal$ = 8						; size = 4
?_Compat@?$_Vector_const_iterator@V?$_Vector_val@FV?$allocator@F@std@@@std@@@std@@QBEXABV12@@Z PROC ; std::_Vector_const_iterator<std::_Vector_val<short,std::allocator<short> > >::_Compat, COMDAT
; _this$ = ecx

; 253  : 		}

  00000	c2 04 00	 ret	 4
?_Compat@?$_Vector_const_iterator@V?$_Vector_val@FV?$allocator@F@std@@@std@@@std@@QBEXABV12@@Z ENDP ; std::_Vector_const_iterator<std::_Vector_val<short,std::allocator<short> > >::_Compat
_TEXT	ENDS
PUBLIC	?max_size@?$allocator@PAUDNode@?$AStarSearcher@VBoxSpace@@PAUBox@1@@@@std@@QBEIXZ ; std::allocator<AStarSearcher<BoxSpace,BoxSpace::Box *>::DNode *>::max_size
; Function compile flags: /Ogsp
; File c:\program files (x86)\microsoft visual studio 10.0\vc\include\xmemory
;	COMDAT ?max_size@?$allocator@PAUDNode@?$AStarSearcher@VBoxSpace@@PAUBox@1@@@@std@@QBEIXZ
_TEXT	SEGMENT
?max_size@?$allocator@PAUDNode@?$AStarSearcher@VBoxSpace@@PAUBox@1@@@@std@@QBEIXZ PROC ; std::allocator<AStarSearcher<BoxSpace,BoxSpace::Box *>::DNode *>::max_size, COMDAT
; _this$ = ecx

; 218  : 		_SIZT _Count = (_SIZT)(-1) / sizeof (_Ty);
; 219  : 		return (0 < _Count ? _Count : 1);

  00000	b8 ff ff ff 3f	 mov	 eax, 1073741823		; 3fffffffH

; 220  : 		}

  00005	c3		 ret	 0
?max_size@?$allocator@PAUDNode@?$AStarSearcher@VBoxSpace@@PAUBox@1@@@@std@@QBEIXZ ENDP ; std::allocator<AStarSearcher<BoxSpace,BoxSpace::Box *>::DNode *>::max_size
_TEXT	ENDS
PUBLIC	?capacity@?$vector@PBQAUBox@BoxSpace@@V?$allocator@PBQAUBox@BoxSpace@@@std@@@std@@QBEIXZ ; std::vector<BoxSpace::Box * const *,std::allocator<BoxSpace::Box * const *> >::capacity
; Function compile flags: /Ogsp
; File c:\program files (x86)\microsoft visual studio 10.0\vc\include\vector
;	COMDAT ?capacity@?$vector@PBQAUBox@BoxSpace@@V?$allocator@PBQAUBox@BoxSpace@@@std@@@std@@QBEIXZ
_TEXT	SEGMENT
?capacity@?$vector@PBQAUBox@BoxSpace@@V?$allocator@PBQAUBox@BoxSpace@@@std@@@std@@QBEIXZ PROC ; std::vector<BoxSpace::Box * const *,std::allocator<BoxSpace::Box * const *> >::capacity, COMDAT
; _this$ = ecx

; 777  : 		return (this->_Myend - this->_Myfirst);

  00000	8b 41 08	 mov	 eax, DWORD PTR [ecx+8]
  00003	2b 01		 sub	 eax, DWORD PTR [ecx]
  00005	c1 f8 02	 sar	 eax, 2

; 778  : 		}

  00008	c3		 ret	 0
?capacity@?$vector@PBQAUBox@BoxSpace@@V?$allocator@PBQAUBox@BoxSpace@@@std@@@std@@QBEIXZ ENDP ; std::vector<BoxSpace::Box * const *,std::allocator<BoxSpace::Box * const *> >::capacity
_TEXT	ENDS
PUBLIC	?_Xlen@?$vector@PBQAUBox@BoxSpace@@V?$allocator@PBQAUBox@BoxSpace@@@std@@@std@@IBEXXZ ; std::vector<BoxSpace::Box * const *,std::allocator<BoxSpace::Box * const *> >::_Xlen
; Function compile flags: /Ogsp
;	COMDAT ?_Xlen@?$vector@PBQAUBox@BoxSpace@@V?$allocator@PBQAUBox@BoxSpace@@@std@@@std@@IBEXXZ
_TEXT	SEGMENT
?_Xlen@?$vector@PBQAUBox@BoxSpace@@V?$allocator@PBQAUBox@BoxSpace@@@std@@@std@@IBEXXZ PROC ; std::vector<BoxSpace::Box * const *,std::allocator<BoxSpace::Box * const *> >::_Xlen, COMDAT
; _this$ = ecx

; 1427 : 		_Xlength_error("vector<T> too long");

  00000	68 00 00 00 00	 push	 OFFSET ??_C@_0BD@OLBABOEK@vector?$DMT?$DO?5too?5long?$AA@
  00005	ff 15 00 00 00
	00		 call	 DWORD PTR __imp_?_Xlength_error@std@@YAXPBD@Z
$LN4@Xlen@5:
$LN3@Xlen@5:
  0000b	cc		 int	 3
?_Xlen@?$vector@PBQAUBox@BoxSpace@@V?$allocator@PBQAUBox@BoxSpace@@@std@@@std@@IBEXXZ ENDP ; std::vector<BoxSpace::Box * const *,std::allocator<BoxSpace::Box * const *> >::_Xlen
_TEXT	ENDS
PUBLIC	??E?$_Vector_const_iterator@V?$_Vector_val@PAUDNode@?$AStarSearcher@VBoxSpace@@PAUBox@1@@@V?$allocator@PAUDNode@?$AStarSearcher@VBoxSpace@@PAUBox@1@@@@std@@@std@@@std@@QAEAAV01@XZ ; std::_Vector_const_iterator<std::_Vector_val<AStarSearcher<BoxSpace,BoxSpace::Box *>::DNode *,std::allocator<AStarSearcher<BoxSpace,BoxSpace::Box *>::DNode *> > >::operator++
; Function compile flags: /Ogsp
;	COMDAT ??E?$_Vector_const_iterator@V?$_Vector_val@PAUDNode@?$AStarSearcher@VBoxSpace@@PAUBox@1@@@V?$allocator@PAUDNode@?$AStarSearcher@VBoxSpace@@PAUBox@1@@@@std@@@std@@@std@@QAEAAV01@XZ
_TEXT	SEGMENT
??E?$_Vector_const_iterator@V?$_Vector_val@PAUDNode@?$AStarSearcher@VBoxSpace@@PAUBox@1@@@V?$allocator@PAUDNode@?$AStarSearcher@VBoxSpace@@PAUBox@1@@@@std@@@std@@@std@@QAEAAV01@XZ PROC ; std::_Vector_const_iterator<std::_Vector_val<AStarSearcher<BoxSpace,BoxSpace::Box *>::DNode *,std::allocator<AStarSearcher<BoxSpace,BoxSpace::Box *>::DNode *> > >::operator++, COMDAT
; _this$ = ecx

; 93   : 		{	// preincrement

  00000	8b c1		 mov	 eax, ecx

; 94   :  #if _ITERATOR_DEBUG_LEVEL == 2
; 95   : 		if (this->_Getcont() == 0
; 96   : 			|| this->_Ptr == 0
; 97   : 			|| ((_Myvec *)this->_Getcont())->_Mylast <= this->_Ptr)
; 98   : 			{	// report error
; 99   : 			_DEBUG_ERROR("vector iterator not incrementable");
; 100  : 			_SCL_SECURE_OUT_OF_RANGE;
; 101  : 			}
; 102  : 
; 103  :  #elif _ITERATOR_DEBUG_LEVEL == 1
; 104  : 		_SCL_SECURE_VALIDATE(this->_Getcont() != 0);
; 105  : 		_SCL_SECURE_VALIDATE_RANGE(
; 106  : 			this->_Ptr != 0
; 107  : 			&& this->_Ptr < ((_Myvec *)this->_Getcont())->_Mylast);
; 108  :  #endif /* _ITERATOR_DEBUG_LEVEL */
; 109  : 
; 110  : 		++this->_Ptr;

  00002	83 00 04	 add	 DWORD PTR [eax], 4

; 111  : 		return (*this);
; 112  : 		}

  00005	c3		 ret	 0
??E?$_Vector_const_iterator@V?$_Vector_val@PAUDNode@?$AStarSearcher@VBoxSpace@@PAUBox@1@@@V?$allocator@PAUDNode@?$AStarSearcher@VBoxSpace@@PAUBox@1@@@@std@@@std@@@std@@QAEAAV01@XZ ENDP ; std::_Vector_const_iterator<std::_Vector_val<AStarSearcher<BoxSpace,BoxSpace::Box *>::DNode *,std::allocator<AStarSearcher<BoxSpace,BoxSpace::Box *>::DNode *> > >::operator++
_TEXT	ENDS
PUBLIC	??Y?$_Vector_const_iterator@V?$_Vector_val@PAUDNode@?$AStarSearcher@VBoxSpace@@PAUBox@1@@@V?$allocator@PAUDNode@?$AStarSearcher@VBoxSpace@@PAUBox@1@@@@std@@@std@@@std@@QAEAAV01@H@Z ; std::_Vector_const_iterator<std::_Vector_val<AStarSearcher<BoxSpace,BoxSpace::Box *>::DNode *,std::allocator<AStarSearcher<BoxSpace,BoxSpace::Box *>::DNode *> > >::operator+=
; Function compile flags: /Ogsp
;	COMDAT ??Y?$_Vector_const_iterator@V?$_Vector_val@PAUDNode@?$AStarSearcher@VBoxSpace@@PAUBox@1@@@V?$allocator@PAUDNode@?$AStarSearcher@VBoxSpace@@PAUBox@1@@@@std@@@std@@@std@@QAEAAV01@H@Z
_TEXT	SEGMENT
__Off$ = 8						; size = 4
??Y?$_Vector_const_iterator@V?$_Vector_val@PAUDNode@?$AStarSearcher@VBoxSpace@@PAUBox@1@@@V?$allocator@PAUDNode@?$AStarSearcher@VBoxSpace@@PAUBox@1@@@@std@@@std@@@std@@QAEAAV01@H@Z PROC ; std::_Vector_const_iterator<std::_Vector_val<AStarSearcher<BoxSpace,BoxSpace::Box *>::DNode *,std::allocator<AStarSearcher<BoxSpace,BoxSpace::Box *>::DNode *> > >::operator+=, COMDAT
; _this$ = ecx

; 151  : 		{	// increment by integer

  00000	55		 push	 ebp
  00001	8b ec		 mov	 ebp, esp
  00003	8b c1		 mov	 eax, ecx

; 152  :  #if _ITERATOR_DEBUG_LEVEL == 2
; 153  : 		if (this->_Getcont() == 0
; 154  : 			|| this->_Ptr + _Off < ((_Myvec *)this->_Getcont())->_Myfirst
; 155  : 			|| ((_Myvec *)this->_Getcont())->_Mylast < this->_Ptr + _Off)
; 156  : 			{	// report error
; 157  : 			_DEBUG_ERROR("vector iterator + offset out of range");
; 158  : 			_SCL_SECURE_OUT_OF_RANGE;
; 159  : 			}
; 160  : 
; 161  :  #elif _ITERATOR_DEBUG_LEVEL == 1
; 162  : 		_SCL_SECURE_VALIDATE(this->_Getcont() != 0);
; 163  : 		_SCL_SECURE_VALIDATE_RANGE(
; 164  : 			((_Myvec *)this->_Getcont())->_Myfirst <= this->_Ptr + _Off
; 165  : 			&& this->_Ptr + _Off <= ((_Myvec *)this->_Getcont())->_Mylast);
; 166  :  #endif /* _ITERATOR_DEBUG_LEVEL */
; 167  : 
; 168  : 		_Ptr += _Off;

  00005	8b 4d 08	 mov	 ecx, DWORD PTR __Off$[ebp]
  00008	c1 e1 02	 shl	 ecx, 2
  0000b	01 08		 add	 DWORD PTR [eax], ecx

; 169  : 		return (*this);
; 170  : 		}

  0000d	5d		 pop	 ebp
  0000e	c2 04 00	 ret	 4
??Y?$_Vector_const_iterator@V?$_Vector_val@PAUDNode@?$AStarSearcher@VBoxSpace@@PAUBox@1@@@V?$allocator@PAUDNode@?$AStarSearcher@VBoxSpace@@PAUBox@1@@@@std@@@std@@@std@@QAEAAV01@H@Z ENDP ; std::_Vector_const_iterator<std::_Vector_val<AStarSearcher<BoxSpace,BoxSpace::Box *>::DNode *,std::allocator<AStarSearcher<BoxSpace,BoxSpace::Box *>::DNode *> > >::operator+=
_TEXT	ENDS
PUBLIC	?max_size@?$allocator@PBQAUBox@BoxSpace@@@std@@QBEIXZ ; std::allocator<BoxSpace::Box * const *>::max_size
; Function compile flags: /Ogsp
; File c:\program files (x86)\microsoft visual studio 10.0\vc\include\xmemory
;	COMDAT ?max_size@?$allocator@PBQAUBox@BoxSpace@@@std@@QBEIXZ
_TEXT	SEGMENT
?max_size@?$allocator@PBQAUBox@BoxSpace@@@std@@QBEIXZ PROC ; std::allocator<BoxSpace::Box * const *>::max_size, COMDAT
; _this$ = ecx

; 218  : 		_SIZT _Count = (_SIZT)(-1) / sizeof (_Ty);
; 219  : 		return (0 < _Count ? _Count : 1);

  00000	b8 ff ff ff 3f	 mov	 eax, 1073741823		; 3fffffffH

; 220  : 		}

  00005	c3		 ret	 0
?max_size@?$allocator@PBQAUBox@BoxSpace@@@std@@QBEIXZ ENDP ; std::allocator<BoxSpace::Box * const *>::max_size
_TEXT	ENDS
PUBLIC	??Y?$_Vector_const_iterator@V?$_Vector_val@PAUTBlock@?$uni_heap@$0BE@$0IA@@@V?$allocator@PAUTBlock@?$uni_heap@$0BE@$0IA@@@@std@@@std@@@std@@QAEAAV01@H@Z ; std::_Vector_const_iterator<std::_Vector_val<uni_heap<20,128>::TBlock *,std::allocator<uni_heap<20,128>::TBlock *> > >::operator+=
; Function compile flags: /Ogsp
; File c:\program files (x86)\microsoft visual studio 10.0\vc\include\vector
;	COMDAT ??Y?$_Vector_const_iterator@V?$_Vector_val@PAUTBlock@?$uni_heap@$0BE@$0IA@@@V?$allocator@PAUTBlock@?$uni_heap@$0BE@$0IA@@@@std@@@std@@@std@@QAEAAV01@H@Z
_TEXT	SEGMENT
__Off$ = 8						; size = 4
??Y?$_Vector_const_iterator@V?$_Vector_val@PAUTBlock@?$uni_heap@$0BE@$0IA@@@V?$allocator@PAUTBlock@?$uni_heap@$0BE@$0IA@@@@std@@@std@@@std@@QAEAAV01@H@Z PROC ; std::_Vector_const_iterator<std::_Vector_val<uni_heap<20,128>::TBlock *,std::allocator<uni_heap<20,128>::TBlock *> > >::operator+=, COMDAT
; _this$ = ecx

; 151  : 		{	// increment by integer

  00000	55		 push	 ebp
  00001	8b ec		 mov	 ebp, esp
  00003	8b c1		 mov	 eax, ecx

; 152  :  #if _ITERATOR_DEBUG_LEVEL == 2
; 153  : 		if (this->_Getcont() == 0
; 154  : 			|| this->_Ptr + _Off < ((_Myvec *)this->_Getcont())->_Myfirst
; 155  : 			|| ((_Myvec *)this->_Getcont())->_Mylast < this->_Ptr + _Off)
; 156  : 			{	// report error
; 157  : 			_DEBUG_ERROR("vector iterator + offset out of range");
; 158  : 			_SCL_SECURE_OUT_OF_RANGE;
; 159  : 			}
; 160  : 
; 161  :  #elif _ITERATOR_DEBUG_LEVEL == 1
; 162  : 		_SCL_SECURE_VALIDATE(this->_Getcont() != 0);
; 163  : 		_SCL_SECURE_VALIDATE_RANGE(
; 164  : 			((_Myvec *)this->_Getcont())->_Myfirst <= this->_Ptr + _Off
; 165  : 			&& this->_Ptr + _Off <= ((_Myvec *)this->_Getcont())->_Mylast);
; 166  :  #endif /* _ITERATOR_DEBUG_LEVEL */
; 167  : 
; 168  : 		_Ptr += _Off;

  00005	8b 4d 08	 mov	 ecx, DWORD PTR __Off$[ebp]
  00008	c1 e1 02	 shl	 ecx, 2
  0000b	01 08		 add	 DWORD PTR [eax], ecx

; 169  : 		return (*this);
; 170  : 		}

  0000d	5d		 pop	 ebp
  0000e	c2 04 00	 ret	 4
??Y?$_Vector_const_iterator@V?$_Vector_val@PAUTBlock@?$uni_heap@$0BE@$0IA@@@V?$allocator@PAUTBlock@?$uni_heap@$0BE@$0IA@@@@std@@@std@@@std@@QAEAAV01@H@Z ENDP ; std::_Vector_const_iterator<std::_Vector_val<uni_heap<20,128>::TBlock *,std::allocator<uni_heap<20,128>::TBlock *> > >::operator+=
_TEXT	ENDS
PUBLIC	??$addressof@F@std@@YAPAFAAF@Z			; std::addressof<short>
; Function compile flags: /Ogsp
; File c:\program files (x86)\microsoft visual studio 10.0\vc\include\xmemory
;	COMDAT ??$addressof@F@std@@YAPAFAAF@Z
_TEXT	SEGMENT
__Val$ = 8						; size = 4
??$addressof@F@std@@YAPAFAAF@Z PROC			; std::addressof<short>, COMDAT

; 110  : 	{	// return address of _Val

  00000	55		 push	 ebp
  00001	8b ec		 mov	 ebp, esp

; 111  : 	return ((_Ty *) &(char&)_Val);

  00003	8b 45 08	 mov	 eax, DWORD PTR __Val$[ebp]

; 112  : 	}

  00006	5d		 pop	 ebp
  00007	c3		 ret	 0
??$addressof@F@std@@YAPAFAAF@Z ENDP			; std::addressof<short>
_TEXT	ENDS
PUBLIC	??$forward@F@std@@YA$$QAFAAF@Z			; std::forward<short>
; Function compile flags: /Ogsp
; File c:\program files (x86)\microsoft visual studio 10.0\vc\include\utility
;	COMDAT ??$forward@F@std@@YA$$QAFAAF@Z
_TEXT	SEGMENT
__Arg$ = 8						; size = 4
??$forward@F@std@@YA$$QAFAAF@Z PROC			; std::forward<short>, COMDAT

; 78   : 	{	// forward _Arg, given explicitly specified type parameter

  00000	55		 push	 ebp
  00001	8b ec		 mov	 ebp, esp

; 79   : 	return ((_Ty&&)_Arg);

  00003	8b 45 08	 mov	 eax, DWORD PTR __Arg$[ebp]

; 80   : 	}

  00006	5d		 pop	 ebp
  00007	c3		 ret	 0
??$forward@F@std@@YA$$QAFAAF@Z ENDP			; std::forward<short>
_TEXT	ENDS
PUBLIC	??$addressof@$$CBF@std@@YAPBFABF@Z		; std::addressof<short const >
; Function compile flags: /Ogsp
; File c:\program files (x86)\microsoft visual studio 10.0\vc\include\xmemory
;	COMDAT ??$addressof@$$CBF@std@@YAPBFABF@Z
_TEXT	SEGMENT
__Val$ = 8						; size = 4
??$addressof@$$CBF@std@@YAPBFABF@Z PROC			; std::addressof<short const >, COMDAT

; 110  : 	{	// return address of _Val

  00000	55		 push	 ebp
  00001	8b ec		 mov	 ebp, esp

; 111  : 	return ((_Ty *) &(char&)_Val);

  00003	8b 45 08	 mov	 eax, DWORD PTR __Val$[ebp]

; 112  : 	}

  00006	5d		 pop	 ebp
  00007	c3		 ret	 0
??$addressof@$$CBF@std@@YAPBFABF@Z ENDP			; std::addressof<short const >
_TEXT	ENDS
PUBLIC	??$addressof@$$CBULink@BoxSpace@@@std@@YAPBULink@BoxSpace@@ABU12@@Z ; std::addressof<BoxSpace::Link const >
; Function compile flags: /Ogsp
;	COMDAT ??$addressof@$$CBULink@BoxSpace@@@std@@YAPBULink@BoxSpace@@ABU12@@Z
_TEXT	SEGMENT
__Val$ = 8						; size = 4
??$addressof@$$CBULink@BoxSpace@@@std@@YAPBULink@BoxSpace@@ABU12@@Z PROC ; std::addressof<BoxSpace::Link const >, COMDAT

; 110  : 	{	// return address of _Val

  00000	55		 push	 ebp
  00001	8b ec		 mov	 ebp, esp

; 111  : 	return ((_Ty *) &(char&)_Val);

  00003	8b 45 08	 mov	 eax, DWORD PTR __Val$[ebp]

; 112  : 	}

  00006	5d		 pop	 ebp
  00007	c3		 ret	 0
??$addressof@$$CBULink@BoxSpace@@@std@@YAPBULink@BoxSpace@@ABU12@@Z ENDP ; std::addressof<BoxSpace::Link const >
_TEXT	ENDS
PUBLIC	??$addressof@$$CBUBox@BoxSpace@@@std@@YAPBUBox@BoxSpace@@ABU12@@Z ; std::addressof<BoxSpace::Box const >
; Function compile flags: /Ogsp
;	COMDAT ??$addressof@$$CBUBox@BoxSpace@@@std@@YAPBUBox@BoxSpace@@ABU12@@Z
_TEXT	SEGMENT
__Val$ = 8						; size = 4
??$addressof@$$CBUBox@BoxSpace@@@std@@YAPBUBox@BoxSpace@@ABU12@@Z PROC ; std::addressof<BoxSpace::Box const >, COMDAT

; 110  : 	{	// return address of _Val

  00000	55		 push	 ebp
  00001	8b ec		 mov	 ebp, esp

; 111  : 	return ((_Ty *) &(char&)_Val);

  00003	8b 45 08	 mov	 eax, DWORD PTR __Val$[ebp]

; 112  : 	}

  00006	5d		 pop	 ebp
  00007	c3		 ret	 0
??$addressof@$$CBUBox@BoxSpace@@@std@@YAPBUBox@BoxSpace@@ABU12@@Z ENDP ; std::addressof<BoxSpace::Box const >
_TEXT	ENDS
PUBLIC	__TI2?AVbad_alloc@std@@
PUBLIC	??$_Allocate@F@std@@YAPAFIPAF@Z			; std::_Allocate<short>
PUBLIC	__CTA2?AVbad_alloc@std@@
PUBLIC	__CT??_R0?AVbad_alloc@std@@@8??0bad_alloc@std@@QAE@ABV01@@Z12
PUBLIC	??0bad_alloc@std@@QAE@ABV01@@Z			; std::bad_alloc::bad_alloc
PUBLIC	__CT??_R0?AVexception@std@@@8??0exception@std@@QAE@ABV01@@Z12
EXTRN	??2@YAPAXI@Z:PROC				; operator new
EXTRN	__CxxThrowException@8:PROC
EXTRN	??0exception@std@@QAE@ABV01@@Z:PROC		; std::exception::exception
;	COMDAT __CT??_R0?AVexception@std@@@8??0exception@std@@QAE@ABV01@@Z12
; File c:\program files (x86)\microsoft visual studio 10.0\vc\include\exception
xdata$x	SEGMENT
__CT??_R0?AVexception@std@@@8??0exception@std@@QAE@ABV01@@Z12 DD 00H
	DD	FLAT:??_R0?AVexception@std@@@8
	DD	00H
	DD	0ffffffffH
	ORG $+4
	DD	0cH
	DD	FLAT:??0exception@std@@QAE@ABV01@@Z
xdata$x	ENDS
;	COMDAT __CT??_R0?AVbad_alloc@std@@@8??0bad_alloc@std@@QAE@ABV01@@Z12
xdata$x	SEGMENT
__CT??_R0?AVbad_alloc@std@@@8??0bad_alloc@std@@QAE@ABV01@@Z12 DD 00H
	DD	FLAT:??_R0?AVbad_alloc@std@@@8
	DD	00H
	DD	0ffffffffH
	ORG $+4
	DD	0cH
	DD	FLAT:??0bad_alloc@std@@QAE@ABV01@@Z
xdata$x	ENDS
;	COMDAT __CTA2?AVbad_alloc@std@@
xdata$x	SEGMENT
__CTA2?AVbad_alloc@std@@ DD 02H
	DD	FLAT:__CT??_R0?AVbad_alloc@std@@@8??0bad_alloc@std@@QAE@ABV01@@Z12
	DD	FLAT:__CT??_R0?AVexception@std@@@8??0exception@std@@QAE@ABV01@@Z12
xdata$x	ENDS
;	COMDAT __TI2?AVbad_alloc@std@@
xdata$x	SEGMENT
__TI2?AVbad_alloc@std@@ DD 00H
	DD	FLAT:??1bad_alloc@std@@UAE@XZ
	DD	00H
	DD	FLAT:__CTA2?AVbad_alloc@std@@
; Function compile flags: /Ogsp
; File c:\program files (x86)\microsoft visual studio 10.0\vc\include\xmemory
xdata$x	ENDS
;	COMDAT ??$_Allocate@F@std@@YAPAFIPAF@Z
_TEXT	SEGMENT
$T509936 = -12						; size = 12
$T509941 = 8						; size = 4
__Count$ = 8						; size = 4
___formal$ = 12						; size = 4
??$_Allocate@F@std@@YAPAFIPAF@Z PROC			; std::_Allocate<short>, COMDAT

; 30   : 	{	// allocate storage for _Count elements of type _Ty

  00000	55		 push	 ebp
  00001	8b ec		 mov	 ebp, esp

; 31   : 	void *_Ptr = 0;
; 32   : 
; 33   : 	if (_Count <= 0)

  00003	8b 4d 08	 mov	 ecx, DWORD PTR __Count$[ebp]
  00006	83 ec 0c	 sub	 esp, 12			; 0000000cH
  00009	33 c0		 xor	 eax, eax
  0000b	85 c9		 test	 ecx, ecx

; 34   : 		_Count = 0;
; 35   : 	else if (((_SIZT)(-1) / sizeof (_Ty) < _Count)

  0000d	74 3c		 je	 SHORT $LN5@Allocate

; 36   : 		|| (_Ptr = ::operator new(_Count * sizeof (_Ty))) == 0)

  0000f	81 f9 ff ff ff
	7f		 cmp	 ecx, 2147483647		; 7fffffffH
  00015	77 0e		 ja	 SHORT $LN1@Allocate
  00017	8d 04 09	 lea	 eax, DWORD PTR [ecx+ecx]
  0001a	50		 push	 eax
  0001b	e8 00 00 00 00	 call	 ??2@YAPAXI@Z		; operator new
  00020	59		 pop	 ecx
  00021	85 c0		 test	 eax, eax

; 38   : 
; 39   : 	return ((_Ty _FARQ *)_Ptr);

  00023	75 26		 jne	 SHORT $LN5@Allocate
$LN1@Allocate:

; 37   : 		_THROW_NCEE(bad_alloc, 0);

  00025	83 65 08 00	 and	 DWORD PTR $T509941[ebp], 0
  00029	8d 45 08	 lea	 eax, DWORD PTR $T509941[ebp]
  0002c	50		 push	 eax
  0002d	8d 4d f4	 lea	 ecx, DWORD PTR $T509936[ebp]
  00030	ff 15 00 00 00
	00		 call	 DWORD PTR __imp_??0exception@std@@QAE@ABQBD@Z
  00036	68 00 00 00 00	 push	 OFFSET __TI2?AVbad_alloc@std@@
  0003b	8d 45 f4	 lea	 eax, DWORD PTR $T509936[ebp]
  0003e	50		 push	 eax
  0003f	c7 45 f4 00 00
	00 00		 mov	 DWORD PTR $T509936[ebp], OFFSET ??_7bad_alloc@std@@6B@
  00046	e8 00 00 00 00	 call	 __CxxThrowException@8
$LN10@Allocate:
$LN5@Allocate:

; 40   : 	}

  0004b	c9		 leave
  0004c	c3		 ret	 0
$LN9@Allocate:
??$_Allocate@F@std@@YAPAFIPAF@Z ENDP			; std::_Allocate<short>
_TEXT	ENDS
PUBLIC	??$addressof@QAUDNode@?$AStarSearcher@VBoxSpace@@PAUBox@1@@@@std@@YAPBQAUDNode@?$AStarSearcher@VBoxSpace@@PAUBox@1@@@ABQAU12@@Z ; std::addressof<AStarSearcher<BoxSpace,BoxSpace::Box *>::DNode * const>
; Function compile flags: /Ogsp
;	COMDAT ??$addressof@QAUDNode@?$AStarSearcher@VBoxSpace@@PAUBox@1@@@@std@@YAPBQAUDNode@?$AStarSearcher@VBoxSpace@@PAUBox@1@@@ABQAU12@@Z
_TEXT	SEGMENT
__Val$ = 8						; size = 4
??$addressof@QAUDNode@?$AStarSearcher@VBoxSpace@@PAUBox@1@@@@std@@YAPBQAUDNode@?$AStarSearcher@VBoxSpace@@PAUBox@1@@@ABQAU12@@Z PROC ; std::addressof<AStarSearcher<BoxSpace,BoxSpace::Box *>::DNode * const>, COMDAT

; 110  : 	{	// return address of _Val

  00000	55		 push	 ebp
  00001	8b ec		 mov	 ebp, esp

; 111  : 	return ((_Ty *) &(char&)_Val);

  00003	8b 45 08	 mov	 eax, DWORD PTR __Val$[ebp]

; 112  : 	}

  00006	5d		 pop	 ebp
  00007	c3		 ret	 0
??$addressof@QAUDNode@?$AStarSearcher@VBoxSpace@@PAUBox@1@@@@std@@YAPBQAUDNode@?$AStarSearcher@VBoxSpace@@PAUBox@1@@@ABQAU12@@Z ENDP ; std::addressof<AStarSearcher<BoxSpace,BoxSpace::Box *>::DNode * const>
_TEXT	ENDS
PUBLIC	??$_Allocate@ULink@BoxSpace@@@std@@YAPAULink@BoxSpace@@IPAU12@@Z ; std::_Allocate<BoxSpace::Link>
; Function compile flags: /Ogsp
;	COMDAT ??$_Allocate@ULink@BoxSpace@@@std@@YAPAULink@BoxSpace@@IPAU12@@Z
_TEXT	SEGMENT
$T509948 = -12						; size = 12
$T509952 = 8						; size = 4
__Count$ = 8						; size = 4
___formal$ = 12						; size = 4
??$_Allocate@ULink@BoxSpace@@@std@@YAPAULink@BoxSpace@@IPAU12@@Z PROC ; std::_Allocate<BoxSpace::Link>, COMDAT

; 30   : 	{	// allocate storage for _Count elements of type _Ty

  00000	55		 push	 ebp
  00001	8b ec		 mov	 ebp, esp

; 31   : 	void *_Ptr = 0;
; 32   : 
; 33   : 	if (_Count <= 0)

  00003	8b 4d 08	 mov	 ecx, DWORD PTR __Count$[ebp]
  00006	83 ec 0c	 sub	 esp, 12			; 0000000cH
  00009	33 c0		 xor	 eax, eax
  0000b	85 c9		 test	 ecx, ecx

; 34   : 		_Count = 0;
; 35   : 	else if (((_SIZT)(-1) / sizeof (_Ty) < _Count)

  0000d	74 3c		 je	 SHORT $LN5@Allocate@2

; 36   : 		|| (_Ptr = ::operator new(_Count * sizeof (_Ty))) == 0)

  0000f	81 f9 ff ff ff
	07		 cmp	 ecx, 134217727		; 07ffffffH
  00015	77 0e		 ja	 SHORT $LN1@Allocate@2
  00017	c1 e1 05	 shl	 ecx, 5
  0001a	51		 push	 ecx
  0001b	e8 00 00 00 00	 call	 ??2@YAPAXI@Z		; operator new
  00020	59		 pop	 ecx
  00021	85 c0		 test	 eax, eax

; 38   : 
; 39   : 	return ((_Ty _FARQ *)_Ptr);

  00023	75 26		 jne	 SHORT $LN5@Allocate@2
$LN1@Allocate@2:

; 37   : 		_THROW_NCEE(bad_alloc, 0);

  00025	83 65 08 00	 and	 DWORD PTR $T509952[ebp], 0
  00029	8d 45 08	 lea	 eax, DWORD PTR $T509952[ebp]
  0002c	50		 push	 eax
  0002d	8d 4d f4	 lea	 ecx, DWORD PTR $T509948[ebp]
  00030	ff 15 00 00 00
	00		 call	 DWORD PTR __imp_??0exception@std@@QAE@ABQBD@Z
  00036	68 00 00 00 00	 push	 OFFSET __TI2?AVbad_alloc@std@@
  0003b	8d 45 f4	 lea	 eax, DWORD PTR $T509948[ebp]
  0003e	50		 push	 eax
  0003f	c7 45 f4 00 00
	00 00		 mov	 DWORD PTR $T509948[ebp], OFFSET ??_7bad_alloc@std@@6B@
  00046	e8 00 00 00 00	 call	 __CxxThrowException@8
$LN10@Allocate@2:
$LN5@Allocate@2:

; 40   : 	}

  0004b	c9		 leave
  0004c	c3		 ret	 0
$LN9@Allocate@2:
??$_Allocate@ULink@BoxSpace@@@std@@YAPAULink@BoxSpace@@IPAU12@@Z ENDP ; std::_Allocate<BoxSpace::Link>
_TEXT	ENDS
PUBLIC	??$_Allocate@UBox@BoxSpace@@@std@@YAPAUBox@BoxSpace@@IPAU12@@Z ; std::_Allocate<BoxSpace::Box>
; Function compile flags: /Ogsp
;	COMDAT ??$_Allocate@UBox@BoxSpace@@@std@@YAPAUBox@BoxSpace@@IPAU12@@Z
_TEXT	SEGMENT
$T509957 = -12						; size = 12
$T509961 = 8						; size = 4
__Count$ = 8						; size = 4
___formal$ = 12						; size = 4
??$_Allocate@UBox@BoxSpace@@@std@@YAPAUBox@BoxSpace@@IPAU12@@Z PROC ; std::_Allocate<BoxSpace::Box>, COMDAT

; 30   : 	{	// allocate storage for _Count elements of type _Ty

  00000	55		 push	 ebp
  00001	8b ec		 mov	 ebp, esp

; 31   : 	void *_Ptr = 0;
; 32   : 
; 33   : 	if (_Count <= 0)

  00003	8b 4d 08	 mov	 ecx, DWORD PTR __Count$[ebp]
  00006	83 ec 0c	 sub	 esp, 12			; 0000000cH
  00009	33 c0		 xor	 eax, eax
  0000b	85 c9		 test	 ecx, ecx

; 34   : 		_Count = 0;
; 35   : 	else if (((_SIZT)(-1) / sizeof (_Ty) < _Count)

  0000d	74 3c		 je	 SHORT $LN5@Allocate@3

; 36   : 		|| (_Ptr = ::operator new(_Count * sizeof (_Ty))) == 0)

  0000f	81 f9 2e ba e8
	02		 cmp	 ecx, 48806446		; 02e8ba2eH
  00015	77 0e		 ja	 SHORT $LN1@Allocate@3
  00017	6b c9 58	 imul	 ecx, 88			; 00000058H
  0001a	51		 push	 ecx
  0001b	e8 00 00 00 00	 call	 ??2@YAPAXI@Z		; operator new
  00020	59		 pop	 ecx
  00021	85 c0		 test	 eax, eax

; 38   : 
; 39   : 	return ((_Ty _FARQ *)_Ptr);

  00023	75 26		 jne	 SHORT $LN5@Allocate@3
$LN1@Allocate@3:

; 37   : 		_THROW_NCEE(bad_alloc, 0);

  00025	83 65 08 00	 and	 DWORD PTR $T509961[ebp], 0
  00029	8d 45 08	 lea	 eax, DWORD PTR $T509961[ebp]
  0002c	50		 push	 eax
  0002d	8d 4d f4	 lea	 ecx, DWORD PTR $T509957[ebp]
  00030	ff 15 00 00 00
	00		 call	 DWORD PTR __imp_??0exception@std@@QAE@ABQBD@Z
  00036	68 00 00 00 00	 push	 OFFSET __TI2?AVbad_alloc@std@@
  0003b	8d 45 f4	 lea	 eax, DWORD PTR $T509957[ebp]
  0003e	50		 push	 eax
  0003f	c7 45 f4 00 00
	00 00		 mov	 DWORD PTR $T509957[ebp], OFFSET ??_7bad_alloc@std@@6B@
  00046	e8 00 00 00 00	 call	 __CxxThrowException@8
$LN10@Allocate@3:
$LN5@Allocate@3:

; 40   : 	}

  0004b	c9		 leave
  0004c	c3		 ret	 0
$LN9@Allocate@3:
??$_Allocate@UBox@BoxSpace@@@std@@YAPAUBox@BoxSpace@@IPAU12@@Z ENDP ; std::_Allocate<BoxSpace::Box>
_TEXT	ENDS
PUBLIC	??$addressof@PBQAUBox@BoxSpace@@@std@@YAPAPBQAUBox@BoxSpace@@AAPBQAU12@@Z ; std::addressof<BoxSpace::Box * const *>
; Function compile flags: /Ogsp
;	COMDAT ??$addressof@PBQAUBox@BoxSpace@@@std@@YAPAPBQAUBox@BoxSpace@@AAPBQAU12@@Z
_TEXT	SEGMENT
__Val$ = 8						; size = 4
??$addressof@PBQAUBox@BoxSpace@@@std@@YAPAPBQAUBox@BoxSpace@@AAPBQAU12@@Z PROC ; std::addressof<BoxSpace::Box * const *>, COMDAT

; 110  : 	{	// return address of _Val

  00000	55		 push	 ebp
  00001	8b ec		 mov	 ebp, esp

; 111  : 	return ((_Ty *) &(char&)_Val);

  00003	8b 45 08	 mov	 eax, DWORD PTR __Val$[ebp]

; 112  : 	}

  00006	5d		 pop	 ebp
  00007	c3		 ret	 0
??$addressof@PBQAUBox@BoxSpace@@@std@@YAPAPBQAUBox@BoxSpace@@AAPBQAU12@@Z ENDP ; std::addressof<BoxSpace::Box * const *>
_TEXT	ENDS
PUBLIC	??$forward@PBQAUBox@BoxSpace@@@std@@YA$$QAPBQAUBox@BoxSpace@@AAPBQAU12@@Z ; std::forward<BoxSpace::Box * const *>
; Function compile flags: /Ogsp
; File c:\program files (x86)\microsoft visual studio 10.0\vc\include\utility
;	COMDAT ??$forward@PBQAUBox@BoxSpace@@@std@@YA$$QAPBQAUBox@BoxSpace@@AAPBQAU12@@Z
_TEXT	SEGMENT
__Arg$ = 8						; size = 4
??$forward@PBQAUBox@BoxSpace@@@std@@YA$$QAPBQAUBox@BoxSpace@@AAPBQAU12@@Z PROC ; std::forward<BoxSpace::Box * const *>, COMDAT

; 78   : 	{	// forward _Arg, given explicitly specified type parameter

  00000	55		 push	 ebp
  00001	8b ec		 mov	 ebp, esp

; 79   : 	return ((_Ty&&)_Arg);

  00003	8b 45 08	 mov	 eax, DWORD PTR __Arg$[ebp]

; 80   : 	}

  00006	5d		 pop	 ebp
  00007	c3		 ret	 0
??$forward@PBQAUBox@BoxSpace@@@std@@YA$$QAPBQAUBox@BoxSpace@@AAPBQAU12@@Z ENDP ; std::forward<BoxSpace::Box * const *>
_TEXT	ENDS
PUBLIC	??$_Allocate@PAUDNode@?$AStarSearcher@VBoxSpace@@PAUBox@1@@@@std@@YAPAPAUDNode@?$AStarSearcher@VBoxSpace@@PAUBox@1@@@IPAPAU12@@Z ; std::_Allocate<AStarSearcher<BoxSpace,BoxSpace::Box *>::DNode *>
; Function compile flags: /Ogsp
; File c:\program files (x86)\microsoft visual studio 10.0\vc\include\xmemory
;	COMDAT ??$_Allocate@PAUDNode@?$AStarSearcher@VBoxSpace@@PAUBox@1@@@@std@@YAPAPAUDNode@?$AStarSearcher@VBoxSpace@@PAUBox@1@@@IPAPAU12@@Z
_TEXT	SEGMENT
$T509970 = -12						; size = 12
$T509974 = 8						; size = 4
__Count$ = 8						; size = 4
___formal$ = 12						; size = 4
??$_Allocate@PAUDNode@?$AStarSearcher@VBoxSpace@@PAUBox@1@@@@std@@YAPAPAUDNode@?$AStarSearcher@VBoxSpace@@PAUBox@1@@@IPAPAU12@@Z PROC ; std::_Allocate<AStarSearcher<BoxSpace,BoxSpace::Box *>::DNode *>, COMDAT

; 30   : 	{	// allocate storage for _Count elements of type _Ty

  00000	55		 push	 ebp
  00001	8b ec		 mov	 ebp, esp

; 31   : 	void *_Ptr = 0;
; 32   : 
; 33   : 	if (_Count <= 0)

  00003	8b 4d 08	 mov	 ecx, DWORD PTR __Count$[ebp]
  00006	83 ec 0c	 sub	 esp, 12			; 0000000cH
  00009	33 c0		 xor	 eax, eax
  0000b	85 c9		 test	 ecx, ecx

; 34   : 		_Count = 0;
; 35   : 	else if (((_SIZT)(-1) / sizeof (_Ty) < _Count)

  0000d	74 3e		 je	 SHORT $LN5@Allocate@4

; 36   : 		|| (_Ptr = ::operator new(_Count * sizeof (_Ty))) == 0)

  0000f	81 f9 ff ff ff
	3f		 cmp	 ecx, 1073741823		; 3fffffffH
  00015	77 10		 ja	 SHORT $LN1@Allocate@4
  00017	8b c1		 mov	 eax, ecx
  00019	c1 e0 02	 shl	 eax, 2
  0001c	50		 push	 eax
  0001d	e8 00 00 00 00	 call	 ??2@YAPAXI@Z		; operator new
  00022	59		 pop	 ecx
  00023	85 c0		 test	 eax, eax

; 38   : 
; 39   : 	return ((_Ty _FARQ *)_Ptr);

  00025	75 26		 jne	 SHORT $LN5@Allocate@4
$LN1@Allocate@4:

; 37   : 		_THROW_NCEE(bad_alloc, 0);

  00027	83 65 08 00	 and	 DWORD PTR $T509974[ebp], 0
  0002b	8d 45 08	 lea	 eax, DWORD PTR $T509974[ebp]
  0002e	50		 push	 eax
  0002f	8d 4d f4	 lea	 ecx, DWORD PTR $T509970[ebp]
  00032	ff 15 00 00 00
	00		 call	 DWORD PTR __imp_??0exception@std@@QAE@ABQBD@Z
  00038	68 00 00 00 00	 push	 OFFSET __TI2?AVbad_alloc@std@@
  0003d	8d 45 f4	 lea	 eax, DWORD PTR $T509970[ebp]
  00040	50		 push	 eax
  00041	c7 45 f4 00 00
	00 00		 mov	 DWORD PTR $T509970[ebp], OFFSET ??_7bad_alloc@std@@6B@
  00048	e8 00 00 00 00	 call	 __CxxThrowException@8
$LN10@Allocate@4:
$LN5@Allocate@4:

; 40   : 	}

  0004d	c9		 leave
  0004e	c3		 ret	 0
$LN9@Allocate@4:
??$_Allocate@PAUDNode@?$AStarSearcher@VBoxSpace@@PAUBox@1@@@@std@@YAPAPAUDNode@?$AStarSearcher@VBoxSpace@@PAUBox@1@@@IPAPAU12@@Z ENDP ; std::_Allocate<AStarSearcher<BoxSpace,BoxSpace::Box *>::DNode *>
_TEXT	ENDS
PUBLIC	??$_Allocate@PBQAUBox@BoxSpace@@@std@@YAPAPBQAUBox@BoxSpace@@IPAPBQAU12@@Z ; std::_Allocate<BoxSpace::Box * const *>
; Function compile flags: /Ogsp
;	COMDAT ??$_Allocate@PBQAUBox@BoxSpace@@@std@@YAPAPBQAUBox@BoxSpace@@IPAPBQAU12@@Z
_TEXT	SEGMENT
$T509979 = -12						; size = 12
$T509983 = 8						; size = 4
__Count$ = 8						; size = 4
___formal$ = 12						; size = 4
??$_Allocate@PBQAUBox@BoxSpace@@@std@@YAPAPBQAUBox@BoxSpace@@IPAPBQAU12@@Z PROC ; std::_Allocate<BoxSpace::Box * const *>, COMDAT

; 30   : 	{	// allocate storage for _Count elements of type _Ty

  00000	55		 push	 ebp
  00001	8b ec		 mov	 ebp, esp

; 31   : 	void *_Ptr = 0;
; 32   : 
; 33   : 	if (_Count <= 0)

  00003	8b 4d 08	 mov	 ecx, DWORD PTR __Count$[ebp]
  00006	83 ec 0c	 sub	 esp, 12			; 0000000cH
  00009	33 c0		 xor	 eax, eax
  0000b	85 c9		 test	 ecx, ecx

; 34   : 		_Count = 0;
; 35   : 	else if (((_SIZT)(-1) / sizeof (_Ty) < _Count)

  0000d	74 3e		 je	 SHORT $LN5@Allocate@5

; 36   : 		|| (_Ptr = ::operator new(_Count * sizeof (_Ty))) == 0)

  0000f	81 f9 ff ff ff
	3f		 cmp	 ecx, 1073741823		; 3fffffffH
  00015	77 10		 ja	 SHORT $LN1@Allocate@5
  00017	8b c1		 mov	 eax, ecx
  00019	c1 e0 02	 shl	 eax, 2
  0001c	50		 push	 eax
  0001d	e8 00 00 00 00	 call	 ??2@YAPAXI@Z		; operator new
  00022	59		 pop	 ecx
  00023	85 c0		 test	 eax, eax

; 38   : 
; 39   : 	return ((_Ty _FARQ *)_Ptr);

  00025	75 26		 jne	 SHORT $LN5@Allocate@5
$LN1@Allocate@5:

; 37   : 		_THROW_NCEE(bad_alloc, 0);

  00027	83 65 08 00	 and	 DWORD PTR $T509983[ebp], 0
  0002b	8d 45 08	 lea	 eax, DWORD PTR $T509983[ebp]
  0002e	50		 push	 eax
  0002f	8d 4d f4	 lea	 ecx, DWORD PTR $T509979[ebp]
  00032	ff 15 00 00 00
	00		 call	 DWORD PTR __imp_??0exception@std@@QAE@ABQBD@Z
  00038	68 00 00 00 00	 push	 OFFSET __TI2?AVbad_alloc@std@@
  0003d	8d 45 f4	 lea	 eax, DWORD PTR $T509979[ebp]
  00040	50		 push	 eax
  00041	c7 45 f4 00 00
	00 00		 mov	 DWORD PTR $T509979[ebp], OFFSET ??_7bad_alloc@std@@6B@
  00048	e8 00 00 00 00	 call	 __CxxThrowException@8
$LN10@Allocate@5:
$LN5@Allocate@5:

; 40   : 	}

  0004d	c9		 leave
  0004e	c3		 ret	 0
$LN9@Allocate@5:
??$_Allocate@PBQAUBox@BoxSpace@@@std@@YAPAPBQAUBox@BoxSpace@@IPAPBQAU12@@Z ENDP ; std::_Allocate<BoxSpace::Box * const *>
_TEXT	ENDS
PUBLIC	?construct@?$allocator@F@std@@QAEXPAF$$QAF@Z	; std::allocator<short>::construct
; Function compile flags: /Ogsp
;	COMDAT ?construct@?$allocator@F@std@@QAEXPAF$$QAF@Z
_TEXT	SEGMENT
__Ptr$ = 8						; size = 4
__Val$ = 12						; size = 4
?construct@?$allocator@F@std@@QAEXPAF$$QAF@Z PROC	; std::allocator<short>::construct, COMDAT
; _this$ = ecx

; 201  : 		{	// construct object at _Ptr with value _Val

  00000	55		 push	 ebp
  00001	8b ec		 mov	 ebp, esp

; 202  : 		::new ((void _FARQ *)_Ptr) _Ty(_STD forward<_Ty>(_Val));

  00003	8b 45 08	 mov	 eax, DWORD PTR __Ptr$[ebp]
  00006	85 c0		 test	 eax, eax
  00008	74 09		 je	 SHORT $LN3@construct
  0000a	8b 4d 0c	 mov	 ecx, DWORD PTR __Val$[ebp]
  0000d	66 8b 09	 mov	 cx, WORD PTR [ecx]
  00010	66 89 08	 mov	 WORD PTR [eax], cx
$LN3@construct:

; 203  : 		}

  00013	5d		 pop	 ebp
  00014	c2 08 00	 ret	 8
?construct@?$allocator@F@std@@QAEXPAF$$QAF@Z ENDP	; std::allocator<short>::construct
_TEXT	ENDS
PUBLIC	?construct@?$allocator@PBQAUBox@BoxSpace@@@std@@QAEXPAPBQAUBox@BoxSpace@@$$QAPBQAU34@@Z ; std::allocator<BoxSpace::Box * const *>::construct
; Function compile flags: /Ogsp
;	COMDAT ?construct@?$allocator@PBQAUBox@BoxSpace@@@std@@QAEXPAPBQAUBox@BoxSpace@@$$QAPBQAU34@@Z
_TEXT	SEGMENT
__Ptr$ = 8						; size = 4
__Val$ = 12						; size = 4
?construct@?$allocator@PBQAUBox@BoxSpace@@@std@@QAEXPAPBQAUBox@BoxSpace@@$$QAPBQAU34@@Z PROC ; std::allocator<BoxSpace::Box * const *>::construct, COMDAT
; _this$ = ecx

; 201  : 		{	// construct object at _Ptr with value _Val

  00000	55		 push	 ebp
  00001	8b ec		 mov	 ebp, esp

; 202  : 		::new ((void _FARQ *)_Ptr) _Ty(_STD forward<_Ty>(_Val));

  00003	8b 45 08	 mov	 eax, DWORD PTR __Ptr$[ebp]
  00006	85 c0		 test	 eax, eax
  00008	74 07		 je	 SHORT $LN3@construct@2
  0000a	8b 4d 0c	 mov	 ecx, DWORD PTR __Val$[ebp]
  0000d	8b 09		 mov	 ecx, DWORD PTR [ecx]
  0000f	89 08		 mov	 DWORD PTR [eax], ecx
$LN3@construct@2:

; 203  : 		}

  00011	5d		 pop	 ebp
  00012	c2 08 00	 ret	 8
?construct@?$allocator@PBQAUBox@BoxSpace@@@std@@QAEXPAPBQAUBox@BoxSpace@@$$QAPBQAU34@@Z ENDP ; std::allocator<BoxSpace::Box * const *>::construct
_TEXT	ENDS
PUBLIC	??F?$_Vector_const_iterator@V?$_Vector_val@PAUDNode@?$AStarSearcher@VBoxSpace@@PAUBox@1@@@V?$allocator@PAUDNode@?$AStarSearcher@VBoxSpace@@PAUBox@1@@@@std@@@std@@@std@@QAEAAV01@XZ ; std::_Vector_const_iterator<std::_Vector_val<AStarSearcher<BoxSpace,BoxSpace::Box *>::DNode *,std::allocator<AStarSearcher<BoxSpace,BoxSpace::Box *>::DNode *> > >::operator--
; Function compile flags: /Ogsp
; File c:\program files (x86)\microsoft visual studio 10.0\vc\include\vector
;	COMDAT ??F?$_Vector_const_iterator@V?$_Vector_val@PAUDNode@?$AStarSearcher@VBoxSpace@@PAUBox@1@@@V?$allocator@PAUDNode@?$AStarSearcher@VBoxSpace@@PAUBox@1@@@@std@@@std@@@std@@QAEAAV01@XZ
_TEXT	SEGMENT
??F?$_Vector_const_iterator@V?$_Vector_val@PAUDNode@?$AStarSearcher@VBoxSpace@@PAUBox@1@@@V?$allocator@PAUDNode@?$AStarSearcher@VBoxSpace@@PAUBox@1@@@@std@@@std@@@std@@QAEAAV01@XZ PROC ; std::_Vector_const_iterator<std::_Vector_val<AStarSearcher<BoxSpace,BoxSpace::Box *>::DNode *,std::allocator<AStarSearcher<BoxSpace,BoxSpace::Box *>::DNode *> > >::operator--, COMDAT
; _this$ = ecx

; 122  : 		{	// predecrement

  00000	8b c1		 mov	 eax, ecx

; 123  :  #if _ITERATOR_DEBUG_LEVEL == 2
; 124  : 		if (this->_Getcont() == 0
; 125  : 			|| this->_Ptr == 0
; 126  : 			|| this->_Ptr <= ((_Myvec *)this->_Getcont())->_Myfirst)
; 127  : 			{	// report error
; 128  : 			_DEBUG_ERROR("vector iterator not decrementable");
; 129  : 			_SCL_SECURE_OUT_OF_RANGE;
; 130  : 			}
; 131  : 
; 132  :  #elif _ITERATOR_DEBUG_LEVEL == 1
; 133  : 		_SCL_SECURE_VALIDATE(this->_Getcont() != 0);
; 134  : 		_SCL_SECURE_VALIDATE_RANGE(
; 135  : 			this->_Ptr != 0
; 136  : 			&& ((_Myvec *)this->_Getcont())->_Myfirst < this->_Ptr);
; 137  :  #endif /* _ITERATOR_DEBUG_LEVEL */
; 138  : 
; 139  : 		--this->_Ptr;

  00002	83 00 fc	 add	 DWORD PTR [eax], -4	; fffffffcH

; 140  : 		return (*this);
; 141  : 		}

  00005	c3		 ret	 0
??F?$_Vector_const_iterator@V?$_Vector_val@PAUDNode@?$AStarSearcher@VBoxSpace@@PAUBox@1@@@V?$allocator@PAUDNode@?$AStarSearcher@VBoxSpace@@PAUBox@1@@@@std@@@std@@@std@@QAEAAV01@XZ ENDP ; std::_Vector_const_iterator<std::_Vector_val<AStarSearcher<BoxSpace,BoxSpace::Box *>::DNode *,std::allocator<AStarSearcher<BoxSpace,BoxSpace::Box *>::DNode *> > >::operator--
_TEXT	ENDS
PUBLIC	??$_Dist_type@V?$_Vector_iterator@V?$_Vector_val@ULink@BoxSpace@@V?$allocator@ULink@BoxSpace@@@std@@@std@@@std@@@std@@YAPAHV?$_Vector_iterator@V?$_Vector_val@ULink@BoxSpace@@V?$allocator@ULink@BoxSpace@@@std@@@std@@@0@@Z ; std::_Dist_type<std::_Vector_iterator<std::_Vector_val<BoxSpace::Link,std::allocator<BoxSpace::Link> > > >
; Function compile flags: /Ogsp
; File c:\program files (x86)\microsoft visual studio 10.0\vc\include\xutility
;	COMDAT ??$_Dist_type@V?$_Vector_iterator@V?$_Vector_val@ULink@BoxSpace@@V?$allocator@ULink@BoxSpace@@@std@@@std@@@std@@@std@@YAPAHV?$_Vector_iterator@V?$_Vector_val@ULink@BoxSpace@@V?$allocator@ULink@BoxSpace@@@std@@@std@@@0@@Z
_TEXT	SEGMENT
___formal$ = 8						; size = 4
??$_Dist_type@V?$_Vector_iterator@V?$_Vector_val@ULink@BoxSpace@@V?$allocator@ULink@BoxSpace@@@std@@@std@@@std@@@std@@YAPAHV?$_Vector_iterator@V?$_Vector_val@ULink@BoxSpace@@V?$allocator@ULink@BoxSpace@@@std@@@std@@@0@@Z PROC ; std::_Dist_type<std::_Vector_iterator<std::_Vector_val<BoxSpace::Link,std::allocator<BoxSpace::Link> > > >, COMDAT

; 850  : 	return (0);

  00000	33 c0		 xor	 eax, eax

; 851  : 	}

  00002	c3		 ret	 0
??$_Dist_type@V?$_Vector_iterator@V?$_Vector_val@ULink@BoxSpace@@V?$allocator@ULink@BoxSpace@@@std@@@std@@@std@@@std@@YAPAHV?$_Vector_iterator@V?$_Vector_val@ULink@BoxSpace@@V?$allocator@ULink@BoxSpace@@@std@@@std@@@0@@Z ENDP ; std::_Dist_type<std::_Vector_iterator<std::_Vector_val<BoxSpace::Link,std::allocator<BoxSpace::Link> > > >
_TEXT	ENDS
PUBLIC	??$_Val_type@V?$_Vector_iterator@V?$_Vector_val@ULink@BoxSpace@@V?$allocator@ULink@BoxSpace@@@std@@@std@@@std@@@std@@YAPAULink@BoxSpace@@V?$_Vector_iterator@V?$_Vector_val@ULink@BoxSpace@@V?$allocator@ULink@BoxSpace@@@std@@@std@@@0@@Z ; std::_Val_type<std::_Vector_iterator<std::_Vector_val<BoxSpace::Link,std::allocator<BoxSpace::Link> > > >
; Function compile flags: /Ogsp
;	COMDAT ??$_Val_type@V?$_Vector_iterator@V?$_Vector_val@ULink@BoxSpace@@V?$allocator@ULink@BoxSpace@@@std@@@std@@@std@@@std@@YAPAULink@BoxSpace@@V?$_Vector_iterator@V?$_Vector_val@ULink@BoxSpace@@V?$allocator@ULink@BoxSpace@@@std@@@std@@@0@@Z
_TEXT	SEGMENT
___formal$ = 8						; size = 4
??$_Val_type@V?$_Vector_iterator@V?$_Vector_val@ULink@BoxSpace@@V?$allocator@ULink@BoxSpace@@@std@@@std@@@std@@@std@@YAPAULink@BoxSpace@@V?$_Vector_iterator@V?$_Vector_val@ULink@BoxSpace@@V?$allocator@ULink@BoxSpace@@@std@@@std@@@0@@Z PROC ; std::_Val_type<std::_Vector_iterator<std::_Vector_val<BoxSpace::Link,std::allocator<BoxSpace::Link> > > >, COMDAT

; 790  : 	return (0);

  00000	33 c0		 xor	 eax, eax

; 791  : 	}

  00002	c3		 ret	 0
??$_Val_type@V?$_Vector_iterator@V?$_Vector_val@ULink@BoxSpace@@V?$allocator@ULink@BoxSpace@@@std@@@std@@@std@@@std@@YAPAULink@BoxSpace@@V?$_Vector_iterator@V?$_Vector_val@ULink@BoxSpace@@V?$allocator@ULink@BoxSpace@@@std@@@std@@@0@@Z ENDP ; std::_Val_type<std::_Vector_iterator<std::_Vector_val<BoxSpace::Link,std::allocator<BoxSpace::Link> > > >
_TEXT	ENDS
PUBLIC	??$forward@AAF@std@@YAAAFAAF@Z			; std::forward<short &>
; Function compile flags: /Ogsp
; File c:\program files (x86)\microsoft visual studio 10.0\vc\include\utility
;	COMDAT ??$forward@AAF@std@@YAAAFAAF@Z
_TEXT	SEGMENT
__Arg$ = 8						; size = 4
??$forward@AAF@std@@YAAAFAAF@Z PROC			; std::forward<short &>, COMDAT

; 78   : 	{	// forward _Arg, given explicitly specified type parameter

  00000	55		 push	 ebp
  00001	8b ec		 mov	 ebp, esp

; 79   : 	return ((_Ty&&)_Arg);

  00003	8b 45 08	 mov	 eax, DWORD PTR __Arg$[ebp]

; 80   : 	}

  00006	5d		 pop	 ebp
  00007	c3		 ret	 0
??$forward@AAF@std@@YAAAFAAF@Z ENDP			; std::forward<short &>
_TEXT	ENDS
PUBLIC	??$construct@AAF@?$allocator@F@std@@QAEXPAFAAF@Z ; std::allocator<short>::construct<short &>
; Function compile flags: /Ogsp
; File c:\program files (x86)\microsoft visual studio 10.0\vc\include\xmemory
;	COMDAT ??$construct@AAF@?$allocator@F@std@@QAEXPAFAAF@Z
_TEXT	SEGMENT
__Ptr$ = 8						; size = 4
__Val$ = 12						; size = 4
??$construct@AAF@?$allocator@F@std@@QAEXPAFAAF@Z PROC	; std::allocator<short>::construct<short &>, COMDAT
; _this$ = ecx

; 206  : 		void construct(pointer _Ptr, _Other&& _Val)

  00000	55		 push	 ebp
  00001	8b ec		 mov	 ebp, esp

; 207  : 		{	// construct object at _Ptr with value _Val
; 208  : 		::new ((void _FARQ *)_Ptr) _Ty(_STD forward<_Other>(_Val));

  00003	8b 45 08	 mov	 eax, DWORD PTR __Ptr$[ebp]
  00006	85 c0		 test	 eax, eax
  00008	74 09		 je	 SHORT $LN3@construct@3
  0000a	8b 4d 0c	 mov	 ecx, DWORD PTR __Val$[ebp]
  0000d	66 8b 09	 mov	 cx, WORD PTR [ecx]
  00010	66 89 08	 mov	 WORD PTR [eax], cx
$LN3@construct@3:

; 209  : 		}

  00013	5d		 pop	 ebp
  00014	c2 08 00	 ret	 8
??$construct@AAF@?$allocator@F@std@@QAEXPAFAAF@Z ENDP	; std::allocator<short>::construct<short &>
_TEXT	ENDS
PUBLIC	??$forward@ABF@std@@YAABFABF@Z			; std::forward<short const &>
; Function compile flags: /Ogsp
; File c:\program files (x86)\microsoft visual studio 10.0\vc\include\utility
;	COMDAT ??$forward@ABF@std@@YAABFABF@Z
_TEXT	SEGMENT
__Arg$ = 8						; size = 4
??$forward@ABF@std@@YAABFABF@Z PROC			; std::forward<short const &>, COMDAT

; 78   : 	{	// forward _Arg, given explicitly specified type parameter

  00000	55		 push	 ebp
  00001	8b ec		 mov	 ebp, esp

; 79   : 	return ((_Ty&&)_Arg);

  00003	8b 45 08	 mov	 eax, DWORD PTR __Arg$[ebp]

; 80   : 	}

  00006	5d		 pop	 ebp
  00007	c3		 ret	 0
??$forward@ABF@std@@YAABFABF@Z ENDP			; std::forward<short const &>
_TEXT	ENDS
PUBLIC	??$forward@AAULink@BoxSpace@@@std@@YAAAULink@BoxSpace@@AAU12@@Z ; std::forward<BoxSpace::Link &>
; Function compile flags: /Ogsp
;	COMDAT ??$forward@AAULink@BoxSpace@@@std@@YAAAULink@BoxSpace@@AAU12@@Z
_TEXT	SEGMENT
__Arg$ = 8						; size = 4
??$forward@AAULink@BoxSpace@@@std@@YAAAULink@BoxSpace@@AAU12@@Z PROC ; std::forward<BoxSpace::Link &>, COMDAT

; 78   : 	{	// forward _Arg, given explicitly specified type parameter

  00000	55		 push	 ebp
  00001	8b ec		 mov	 ebp, esp

; 79   : 	return ((_Ty&&)_Arg);

  00003	8b 45 08	 mov	 eax, DWORD PTR __Arg$[ebp]

; 80   : 	}

  00006	5d		 pop	 ebp
  00007	c3		 ret	 0
??$forward@AAULink@BoxSpace@@@std@@YAAAULink@BoxSpace@@AAU12@@Z ENDP ; std::forward<BoxSpace::Link &>
_TEXT	ENDS
PUBLIC	??$construct@AAULink@BoxSpace@@@?$allocator@ULink@BoxSpace@@@std@@QAEXPAULink@BoxSpace@@AAU23@@Z ; std::allocator<BoxSpace::Link>::construct<BoxSpace::Link &>
; Function compile flags: /Ogsp
; File c:\program files (x86)\microsoft visual studio 10.0\vc\include\xmemory
;	COMDAT ??$construct@AAULink@BoxSpace@@@?$allocator@ULink@BoxSpace@@@std@@QAEXPAULink@BoxSpace@@AAU23@@Z
_TEXT	SEGMENT
__Ptr$ = 8						; size = 4
__Val$ = 12						; size = 4
??$construct@AAULink@BoxSpace@@@?$allocator@ULink@BoxSpace@@@std@@QAEXPAULink@BoxSpace@@AAU23@@Z PROC ; std::allocator<BoxSpace::Link>::construct<BoxSpace::Link &>, COMDAT
; _this$ = ecx

; 206  : 		void construct(pointer _Ptr, _Other&& _Val)

  00000	55		 push	 ebp
  00001	8b ec		 mov	 ebp, esp
  00003	57		 push	 edi

; 207  : 		{	// construct object at _Ptr with value _Val
; 208  : 		::new ((void _FARQ *)_Ptr) _Ty(_STD forward<_Other>(_Val));

  00004	8b 7d 08	 mov	 edi, DWORD PTR __Ptr$[ebp]
  00007	85 ff		 test	 edi, edi
  00009	74 0a		 je	 SHORT $LN3@construct@4
  0000b	56		 push	 esi
  0000c	8b 75 0c	 mov	 esi, DWORD PTR __Val$[ebp]
  0000f	6a 08		 push	 8
  00011	59		 pop	 ecx
  00012	f3 a5		 rep movsd
  00014	5e		 pop	 esi
$LN3@construct@4:
  00015	5f		 pop	 edi

; 209  : 		}

  00016	5d		 pop	 ebp
  00017	c2 08 00	 ret	 8
??$construct@AAULink@BoxSpace@@@?$allocator@ULink@BoxSpace@@@std@@QAEXPAULink@BoxSpace@@AAU23@@Z ENDP ; std::allocator<BoxSpace::Link>::construct<BoxSpace::Link &>
_TEXT	ENDS
PUBLIC	??$forward@ABULink@BoxSpace@@@std@@YAABULink@BoxSpace@@ABU12@@Z ; std::forward<BoxSpace::Link const &>
; Function compile flags: /Ogsp
; File c:\program files (x86)\microsoft visual studio 10.0\vc\include\utility
;	COMDAT ??$forward@ABULink@BoxSpace@@@std@@YAABULink@BoxSpace@@ABU12@@Z
_TEXT	SEGMENT
__Arg$ = 8						; size = 4
??$forward@ABULink@BoxSpace@@@std@@YAABULink@BoxSpace@@ABU12@@Z PROC ; std::forward<BoxSpace::Link const &>, COMDAT

; 78   : 	{	// forward _Arg, given explicitly specified type parameter

  00000	55		 push	 ebp
  00001	8b ec		 mov	 ebp, esp

; 79   : 	return ((_Ty&&)_Arg);

  00003	8b 45 08	 mov	 eax, DWORD PTR __Arg$[ebp]

; 80   : 	}

  00006	5d		 pop	 ebp
  00007	c3		 ret	 0
??$forward@ABULink@BoxSpace@@@std@@YAABULink@BoxSpace@@ABU12@@Z ENDP ; std::forward<BoxSpace::Link const &>
_TEXT	ENDS
PUBLIC	??$forward@AAUBox@BoxSpace@@@std@@YAAAUBox@BoxSpace@@AAU12@@Z ; std::forward<BoxSpace::Box &>
; Function compile flags: /Ogsp
;	COMDAT ??$forward@AAUBox@BoxSpace@@@std@@YAAAUBox@BoxSpace@@AAU12@@Z
_TEXT	SEGMENT
__Arg$ = 8						; size = 4
??$forward@AAUBox@BoxSpace@@@std@@YAAAUBox@BoxSpace@@AAU12@@Z PROC ; std::forward<BoxSpace::Box &>, COMDAT

; 78   : 	{	// forward _Arg, given explicitly specified type parameter

  00000	55		 push	 ebp
  00001	8b ec		 mov	 ebp, esp

; 79   : 	return ((_Ty&&)_Arg);

  00003	8b 45 08	 mov	 eax, DWORD PTR __Arg$[ebp]

; 80   : 	}

  00006	5d		 pop	 ebp
  00007	c3		 ret	 0
??$forward@AAUBox@BoxSpace@@@std@@YAAAUBox@BoxSpace@@AAU12@@Z ENDP ; std::forward<BoxSpace::Box &>
_TEXT	ENDS
PUBLIC	??$forward@ABUBox@BoxSpace@@@std@@YAABUBox@BoxSpace@@ABU12@@Z ; std::forward<BoxSpace::Box const &>
; Function compile flags: /Ogsp
;	COMDAT ??$forward@ABUBox@BoxSpace@@@std@@YAABUBox@BoxSpace@@ABU12@@Z
_TEXT	SEGMENT
__Arg$ = 8						; size = 4
??$forward@ABUBox@BoxSpace@@@std@@YAABUBox@BoxSpace@@ABU12@@Z PROC ; std::forward<BoxSpace::Box const &>, COMDAT

; 78   : 	{	// forward _Arg, given explicitly specified type parameter

  00000	55		 push	 ebp
  00001	8b ec		 mov	 ebp, esp

; 79   : 	return ((_Ty&&)_Arg);

  00003	8b 45 08	 mov	 eax, DWORD PTR __Arg$[ebp]

; 80   : 	}

  00006	5d		 pop	 ebp
  00007	c3		 ret	 0
??$forward@ABUBox@BoxSpace@@@std@@YAABUBox@BoxSpace@@ABU12@@Z ENDP ; std::forward<BoxSpace::Box const &>
_TEXT	ENDS
PUBLIC	??$_Move@PAFPAF@std@@YAPAFPAF00U_Scalar_ptr_iterator_tag@0@@Z ; std::_Move<short *,short *>
; Function compile flags: /Ogsp
; File c:\program files (x86)\microsoft visual studio 10.0\vc\include\xutility
;	COMDAT ??$_Move@PAFPAF@std@@YAPAFPAF00U_Scalar_ptr_iterator_tag@0@@Z
_TEXT	SEGMENT
__First$ = 8						; size = 4
__Last$ = 12						; size = 4
__Dest$ = 16						; size = 4
___formal$ = 20						; size = 1
??$_Move@PAFPAF@std@@YAPAFPAF00U_Scalar_ptr_iterator_tag@0@@Z PROC ; std::_Move<short *,short *>, COMDAT

; 2522 : 	{	// move [_First, _Last) to [_Dest, ...), pointers to scalars

  00000	55		 push	 ebp
  00001	8b ec		 mov	 ebp, esp

; 2523 : 	ptrdiff_t _Count = _Last - _First;

  00003	8b 45 0c	 mov	 eax, DWORD PTR __Last$[ebp]
  00006	2b 45 08	 sub	 eax, DWORD PTR __First$[ebp]
  00009	56		 push	 esi
  0000a	57		 push	 edi

; 2524 : 	_CSTD memmove(&*_Dest, &*_First,
; 2525 : 		_Count * sizeof (*_First));

  0000b	8b 7d 10	 mov	 edi, DWORD PTR __Dest$[ebp]
  0000e	d1 f8		 sar	 eax, 1
  00010	8d 34 00	 lea	 esi, DWORD PTR [eax+eax]
  00013	56		 push	 esi
  00014	ff 75 08	 push	 DWORD PTR __First$[ebp]
  00017	57		 push	 edi
  00018	ff 15 00 00 00
	00		 call	 DWORD PTR __imp__memmove
  0001e	83 c4 0c	 add	 esp, 12			; 0000000cH

; 2526 : 	return (_Dest + _Count);

  00021	8d 04 3e	 lea	 eax, DWORD PTR [esi+edi]
  00024	5f		 pop	 edi
  00025	5e		 pop	 esi

; 2527 : 	}

  00026	5d		 pop	 ebp
  00027	c3		 ret	 0
??$_Move@PAFPAF@std@@YAPAFPAF00U_Scalar_ptr_iterator_tag@0@@Z ENDP ; std::_Move<short *,short *>
_TEXT	ENDS
PUBLIC	??$_Dist_type@V?$_Vector_iterator@V?$_Vector_val@PAUDNode@?$AStarSearcher@VBoxSpace@@PAUBox@1@@@V?$allocator@PAUDNode@?$AStarSearcher@VBoxSpace@@PAUBox@1@@@@std@@@std@@@std@@@std@@YAPAHV?$_Vector_iterator@V?$_Vector_val@PAUDNode@?$AStarSearcher@VBoxSpace@@PAUBox@1@@@V?$allocator@PAUDNode@?$AStarSearcher@VBoxSpace@@PAUBox@1@@@@std@@@std@@@0@@Z ; std::_Dist_type<std::_Vector_iterator<std::_Vector_val<AStarSearcher<BoxSpace,BoxSpace::Box *>::DNode *,std::allocator<AStarSearcher<BoxSpace,BoxSpace::Box *>::DNode *> > > >
; Function compile flags: /Ogsp
;	COMDAT ??$_Dist_type@V?$_Vector_iterator@V?$_Vector_val@PAUDNode@?$AStarSearcher@VBoxSpace@@PAUBox@1@@@V?$allocator@PAUDNode@?$AStarSearcher@VBoxSpace@@PAUBox@1@@@@std@@@std@@@std@@@std@@YAPAHV?$_Vector_iterator@V?$_Vector_val@PAUDNode@?$AStarSearcher@VBoxSpace@@PAUBox@1@@@V?$allocator@PAUDNode@?$AStarSearcher@VBoxSpace@@PAUBox@1@@@@std@@@std@@@0@@Z
_TEXT	SEGMENT
___formal$ = 8						; size = 4
??$_Dist_type@V?$_Vector_iterator@V?$_Vector_val@PAUDNode@?$AStarSearcher@VBoxSpace@@PAUBox@1@@@V?$allocator@PAUDNode@?$AStarSearcher@VBoxSpace@@PAUBox@1@@@@std@@@std@@@std@@@std@@YAPAHV?$_Vector_iterator@V?$_Vector_val@PAUDNode@?$AStarSearcher@VBoxSpace@@PAUBox@1@@@V?$allocator@PAUDNode@?$AStarSearcher@VBoxSpace@@PAUBox@1@@@@std@@@std@@@0@@Z PROC ; std::_Dist_type<std::_Vector_iterator<std::_Vector_val<AStarSearcher<BoxSpace,BoxSpace::Box *>::DNode *,std::allocator<AStarSearcher<BoxSpace,BoxSpace::Box *>::DNode *> > > >, COMDAT

; 850  : 	return (0);

  00000	33 c0		 xor	 eax, eax

; 851  : 	}

  00002	c3		 ret	 0
??$_Dist_type@V?$_Vector_iterator@V?$_Vector_val@PAUDNode@?$AStarSearcher@VBoxSpace@@PAUBox@1@@@V?$allocator@PAUDNode@?$AStarSearcher@VBoxSpace@@PAUBox@1@@@@std@@@std@@@std@@@std@@YAPAHV?$_Vector_iterator@V?$_Vector_val@PAUDNode@?$AStarSearcher@VBoxSpace@@PAUBox@1@@@V?$allocator@PAUDNode@?$AStarSearcher@VBoxSpace@@PAUBox@1@@@@std@@@std@@@0@@Z ENDP ; std::_Dist_type<std::_Vector_iterator<std::_Vector_val<AStarSearcher<BoxSpace,BoxSpace::Box *>::DNode *,std::allocator<AStarSearcher<BoxSpace,BoxSpace::Box *>::DNode *> > > >
_TEXT	ENDS
PUBLIC	??$_Val_type@V?$_Vector_iterator@V?$_Vector_val@PAUDNode@?$AStarSearcher@VBoxSpace@@PAUBox@1@@@V?$allocator@PAUDNode@?$AStarSearcher@VBoxSpace@@PAUBox@1@@@@std@@@std@@@std@@@std@@YAPAPAUDNode@?$AStarSearcher@VBoxSpace@@PAUBox@1@@@V?$_Vector_iterator@V?$_Vector_val@PAUDNode@?$AStarSearcher@VBoxSpace@@PAUBox@1@@@V?$allocator@PAUDNode@?$AStarSearcher@VBoxSpace@@PAUBox@1@@@@std@@@std@@@0@@Z ; std::_Val_type<std::_Vector_iterator<std::_Vector_val<AStarSearcher<BoxSpace,BoxSpace::Box *>::DNode *,std::allocator<AStarSearcher<BoxSpace,BoxSpace::Box *>::DNode *> > > >
; Function compile flags: /Ogsp
;	COMDAT ??$_Val_type@V?$_Vector_iterator@V?$_Vector_val@PAUDNode@?$AStarSearcher@VBoxSpace@@PAUBox@1@@@V?$allocator@PAUDNode@?$AStarSearcher@VBoxSpace@@PAUBox@1@@@@std@@@std@@@std@@@std@@YAPAPAUDNode@?$AStarSearcher@VBoxSpace@@PAUBox@1@@@V?$_Vector_iterator@V?$_Vector_val@PAUDNode@?$AStarSearcher@VBoxSpace@@PAUBox@1@@@V?$allocator@PAUDNode@?$AStarSearcher@VBoxSpace@@PAUBox@1@@@@std@@@std@@@0@@Z
_TEXT	SEGMENT
___formal$ = 8						; size = 4
??$_Val_type@V?$_Vector_iterator@V?$_Vector_val@PAUDNode@?$AStarSearcher@VBoxSpace@@PAUBox@1@@@V?$allocator@PAUDNode@?$AStarSearcher@VBoxSpace@@PAUBox@1@@@@std@@@std@@@std@@@std@@YAPAPAUDNode@?$AStarSearcher@VBoxSpace@@PAUBox@1@@@V?$_Vector_iterator@V?$_Vector_val@PAUDNode@?$AStarSearcher@VBoxSpace@@PAUBox@1@@@V?$allocator@PAUDNode@?$AStarSearcher@VBoxSpace@@PAUBox@1@@@@std@@@std@@@0@@Z PROC ; std::_Val_type<std::_Vector_iterator<std::_Vector_val<AStarSearcher<BoxSpace,BoxSpace::Box *>::DNode *,std::allocator<AStarSearcher<BoxSpace,BoxSpace::Box *>::DNode *> > > >, COMDAT

; 790  : 	return (0);

  00000	33 c0		 xor	 eax, eax

; 791  : 	}

  00002	c3		 ret	 0
??$_Val_type@V?$_Vector_iterator@V?$_Vector_val@PAUDNode@?$AStarSearcher@VBoxSpace@@PAUBox@1@@@V?$allocator@PAUDNode@?$AStarSearcher@VBoxSpace@@PAUBox@1@@@@std@@@std@@@std@@@std@@YAPAPAUDNode@?$AStarSearcher@VBoxSpace@@PAUBox@1@@@V?$_Vector_iterator@V?$_Vector_val@PAUDNode@?$AStarSearcher@VBoxSpace@@PAUBox@1@@@V?$allocator@PAUDNode@?$AStarSearcher@VBoxSpace@@PAUBox@1@@@@std@@@std@@@0@@Z ENDP ; std::_Val_type<std::_Vector_iterator<std::_Vector_val<AStarSearcher<BoxSpace,BoxSpace::Box *>::DNode *,std::allocator<AStarSearcher<BoxSpace,BoxSpace::Box *>::DNode *> > > >
_TEXT	ENDS
PUBLIC	??$forward@AAPAUDNode@?$AStarSearcher@VBoxSpace@@PAUBox@1@@@@std@@YAAAPAUDNode@?$AStarSearcher@VBoxSpace@@PAUBox@1@@@AAPAU12@@Z ; std::forward<AStarSearcher<BoxSpace,BoxSpace::Box *>::DNode * &>
; Function compile flags: /Ogsp
; File c:\program files (x86)\microsoft visual studio 10.0\vc\include\utility
;	COMDAT ??$forward@AAPAUDNode@?$AStarSearcher@VBoxSpace@@PAUBox@1@@@@std@@YAAAPAUDNode@?$AStarSearcher@VBoxSpace@@PAUBox@1@@@AAPAU12@@Z
_TEXT	SEGMENT
__Arg$ = 8						; size = 4
??$forward@AAPAUDNode@?$AStarSearcher@VBoxSpace@@PAUBox@1@@@@std@@YAAAPAUDNode@?$AStarSearcher@VBoxSpace@@PAUBox@1@@@AAPAU12@@Z PROC ; std::forward<AStarSearcher<BoxSpace,BoxSpace::Box *>::DNode * &>, COMDAT

; 78   : 	{	// forward _Arg, given explicitly specified type parameter

  00000	55		 push	 ebp
  00001	8b ec		 mov	 ebp, esp

; 79   : 	return ((_Ty&&)_Arg);

  00003	8b 45 08	 mov	 eax, DWORD PTR __Arg$[ebp]

; 80   : 	}

  00006	5d		 pop	 ebp
  00007	c3		 ret	 0
??$forward@AAPAUDNode@?$AStarSearcher@VBoxSpace@@PAUBox@1@@@@std@@YAAAPAUDNode@?$AStarSearcher@VBoxSpace@@PAUBox@1@@@AAPAU12@@Z ENDP ; std::forward<AStarSearcher<BoxSpace,BoxSpace::Box *>::DNode * &>
_TEXT	ENDS
PUBLIC	??$construct@AAPAUDNode@?$AStarSearcher@VBoxSpace@@PAUBox@1@@@@?$allocator@PAUDNode@?$AStarSearcher@VBoxSpace@@PAUBox@1@@@@std@@QAEXPAPAUDNode@?$AStarSearcher@VBoxSpace@@PAUBox@1@@@AAPAU23@@Z ; std::allocator<AStarSearcher<BoxSpace,BoxSpace::Box *>::DNode *>::construct<AStarSearcher<BoxSpace,BoxSpace::Box *>::DNode * &>
; Function compile flags: /Ogsp
; File c:\program files (x86)\microsoft visual studio 10.0\vc\include\xmemory
;	COMDAT ??$construct@AAPAUDNode@?$AStarSearcher@VBoxSpace@@PAUBox@1@@@@?$allocator@PAUDNode@?$AStarSearcher@VBoxSpace@@PAUBox@1@@@@std@@QAEXPAPAUDNode@?$AStarSearcher@VBoxSpace@@PAUBox@1@@@AAPAU23@@Z
_TEXT	SEGMENT
__Ptr$ = 8						; size = 4
__Val$ = 12						; size = 4
??$construct@AAPAUDNode@?$AStarSearcher@VBoxSpace@@PAUBox@1@@@@?$allocator@PAUDNode@?$AStarSearcher@VBoxSpace@@PAUBox@1@@@@std@@QAEXPAPAUDNode@?$AStarSearcher@VBoxSpace@@PAUBox@1@@@AAPAU23@@Z PROC ; std::allocator<AStarSearcher<BoxSpace,BoxSpace::Box *>::DNode *>::construct<AStarSearcher<BoxSpace,BoxSpace::Box *>::DNode * &>, COMDAT
; _this$ = ecx

; 206  : 		void construct(pointer _Ptr, _Other&& _Val)

  00000	55		 push	 ebp
  00001	8b ec		 mov	 ebp, esp

; 207  : 		{	// construct object at _Ptr with value _Val
; 208  : 		::new ((void _FARQ *)_Ptr) _Ty(_STD forward<_Other>(_Val));

  00003	8b 45 08	 mov	 eax, DWORD PTR __Ptr$[ebp]
  00006	85 c0		 test	 eax, eax
  00008	74 07		 je	 SHORT $LN3@construct@5
  0000a	8b 4d 0c	 mov	 ecx, DWORD PTR __Val$[ebp]
  0000d	8b 09		 mov	 ecx, DWORD PTR [ecx]
  0000f	89 08		 mov	 DWORD PTR [eax], ecx
$LN3@construct@5:

; 209  : 		}

  00011	5d		 pop	 ebp
  00012	c2 08 00	 ret	 8
??$construct@AAPAUDNode@?$AStarSearcher@VBoxSpace@@PAUBox@1@@@@?$allocator@PAUDNode@?$AStarSearcher@VBoxSpace@@PAUBox@1@@@@std@@QAEXPAPAUDNode@?$AStarSearcher@VBoxSpace@@PAUBox@1@@@AAPAU23@@Z ENDP ; std::allocator<AStarSearcher<BoxSpace,BoxSpace::Box *>::DNode *>::construct<AStarSearcher<BoxSpace,BoxSpace::Box *>::DNode * &>
_TEXT	ENDS
PUBLIC	??$forward@ABQAUDNode@?$AStarSearcher@VBoxSpace@@PAUBox@1@@@@std@@YAABQAUDNode@?$AStarSearcher@VBoxSpace@@PAUBox@1@@@ABQAU12@@Z ; std::forward<AStarSearcher<BoxSpace,BoxSpace::Box *>::DNode * const &>
; Function compile flags: /Ogsp
; File c:\program files (x86)\microsoft visual studio 10.0\vc\include\utility
;	COMDAT ??$forward@ABQAUDNode@?$AStarSearcher@VBoxSpace@@PAUBox@1@@@@std@@YAABQAUDNode@?$AStarSearcher@VBoxSpace@@PAUBox@1@@@ABQAU12@@Z
_TEXT	SEGMENT
__Arg$ = 8						; size = 4
??$forward@ABQAUDNode@?$AStarSearcher@VBoxSpace@@PAUBox@1@@@@std@@YAABQAUDNode@?$AStarSearcher@VBoxSpace@@PAUBox@1@@@ABQAU12@@Z PROC ; std::forward<AStarSearcher<BoxSpace,BoxSpace::Box *>::DNode * const &>, COMDAT

; 78   : 	{	// forward _Arg, given explicitly specified type parameter

  00000	55		 push	 ebp
  00001	8b ec		 mov	 ebp, esp

; 79   : 	return ((_Ty&&)_Arg);

  00003	8b 45 08	 mov	 eax, DWORD PTR __Arg$[ebp]

; 80   : 	}

  00006	5d		 pop	 ebp
  00007	c3		 ret	 0
??$forward@ABQAUDNode@?$AStarSearcher@VBoxSpace@@PAUBox@1@@@@std@@YAABQAUDNode@?$AStarSearcher@VBoxSpace@@PAUBox@1@@@ABQAU12@@Z ENDP ; std::forward<AStarSearcher<BoxSpace,BoxSpace::Box *>::DNode * const &>
_TEXT	ENDS
PUBLIC	??$_Construct@FABF@std@@YAXPAFABF@Z		; std::_Construct<short,short const &>
; Function compile flags: /Ogsp
; File c:\program files (x86)\microsoft visual studio 10.0\vc\include\xmemory
;	COMDAT ??$_Construct@FABF@std@@YAXPAFABF@Z
_TEXT	SEGMENT
__Ptr$ = 8						; size = 4
__Val$ = 12						; size = 4
??$_Construct@FABF@std@@YAXPAFABF@Z PROC		; std::_Construct<short,short const &>, COMDAT

; 46   : 	{	// construct object at _Ptr with value _Val

  00000	55		 push	 ebp
  00001	8b ec		 mov	 ebp, esp

; 47   : 	void _FARQ *_Vptr = _Ptr;
; 48   : 	::new (_Vptr) _Ty1(_STD forward<_Ty2>(_Val));

  00003	8b 45 08	 mov	 eax, DWORD PTR __Ptr$[ebp]
  00006	85 c0		 test	 eax, eax
  00008	74 09		 je	 SHORT $LN3@Construct
  0000a	8b 4d 0c	 mov	 ecx, DWORD PTR __Val$[ebp]
  0000d	66 8b 09	 mov	 cx, WORD PTR [ecx]
  00010	66 89 08	 mov	 WORD PTR [eax], cx
$LN3@Construct:

; 49   : 	}

  00013	5d		 pop	 ebp
  00014	c3		 ret	 0
??$_Construct@FABF@std@@YAXPAFABF@Z ENDP		; std::_Construct<short,short const &>
_TEXT	ENDS
PUBLIC	??$_Construct@ULink@BoxSpace@@ABU12@@std@@YAXPAULink@BoxSpace@@ABU12@@Z ; std::_Construct<BoxSpace::Link,BoxSpace::Link const &>
; Function compile flags: /Ogsp
;	COMDAT ??$_Construct@ULink@BoxSpace@@ABU12@@std@@YAXPAULink@BoxSpace@@ABU12@@Z
_TEXT	SEGMENT
__Ptr$ = 8						; size = 4
__Val$ = 12						; size = 4
??$_Construct@ULink@BoxSpace@@ABU12@@std@@YAXPAULink@BoxSpace@@ABU12@@Z PROC ; std::_Construct<BoxSpace::Link,BoxSpace::Link const &>, COMDAT

; 46   : 	{	// construct object at _Ptr with value _Val

  00000	55		 push	 ebp
  00001	8b ec		 mov	 ebp, esp
  00003	57		 push	 edi

; 47   : 	void _FARQ *_Vptr = _Ptr;
; 48   : 	::new (_Vptr) _Ty1(_STD forward<_Ty2>(_Val));

  00004	8b 7d 08	 mov	 edi, DWORD PTR __Ptr$[ebp]
  00007	85 ff		 test	 edi, edi
  00009	74 0a		 je	 SHORT $LN3@Construct@2
  0000b	56		 push	 esi
  0000c	8b 75 0c	 mov	 esi, DWORD PTR __Val$[ebp]
  0000f	6a 08		 push	 8
  00011	59		 pop	 ecx
  00012	f3 a5		 rep movsd
  00014	5e		 pop	 esi
$LN3@Construct@2:
  00015	5f		 pop	 edi

; 49   : 	}

  00016	5d		 pop	 ebp
  00017	c3		 ret	 0
??$_Construct@ULink@BoxSpace@@ABU12@@std@@YAXPAULink@BoxSpace@@ABU12@@Z ENDP ; std::_Construct<BoxSpace::Link,BoxSpace::Link const &>
_TEXT	ENDS
PUBLIC	??$_Construct@PAUDNode@?$AStarSearcher@VBoxSpace@@PAUBox@1@@@ABQAU12@@std@@YAXPAPAUDNode@?$AStarSearcher@VBoxSpace@@PAUBox@1@@@ABQAU12@@Z ; std::_Construct<AStarSearcher<BoxSpace,BoxSpace::Box *>::DNode *,AStarSearcher<BoxSpace,BoxSpace::Box *>::DNode * const &>
; Function compile flags: /Ogsp
;	COMDAT ??$_Construct@PAUDNode@?$AStarSearcher@VBoxSpace@@PAUBox@1@@@ABQAU12@@std@@YAXPAPAUDNode@?$AStarSearcher@VBoxSpace@@PAUBox@1@@@ABQAU12@@Z
_TEXT	SEGMENT
__Ptr$ = 8						; size = 4
__Val$ = 12						; size = 4
??$_Construct@PAUDNode@?$AStarSearcher@VBoxSpace@@PAUBox@1@@@ABQAU12@@std@@YAXPAPAUDNode@?$AStarSearcher@VBoxSpace@@PAUBox@1@@@ABQAU12@@Z PROC ; std::_Construct<AStarSearcher<BoxSpace,BoxSpace::Box *>::DNode *,AStarSearcher<BoxSpace,BoxSpace::Box *>::DNode * const &>, COMDAT

; 46   : 	{	// construct object at _Ptr with value _Val

  00000	55		 push	 ebp
  00001	8b ec		 mov	 ebp, esp

; 47   : 	void _FARQ *_Vptr = _Ptr;
; 48   : 	::new (_Vptr) _Ty1(_STD forward<_Ty2>(_Val));

  00003	8b 45 08	 mov	 eax, DWORD PTR __Ptr$[ebp]
  00006	85 c0		 test	 eax, eax
  00008	74 07		 je	 SHORT $LN3@Construct@3
  0000a	8b 4d 0c	 mov	 ecx, DWORD PTR __Val$[ebp]
  0000d	8b 09		 mov	 ecx, DWORD PTR [ecx]
  0000f	89 08		 mov	 DWORD PTR [eax], ecx
$LN3@Construct@3:

; 49   : 	}

  00011	5d		 pop	 ebp
  00012	c3		 ret	 0
??$_Construct@PAUDNode@?$AStarSearcher@VBoxSpace@@PAUBox@1@@@ABQAU12@@std@@YAXPAPAUDNode@?$AStarSearcher@VBoxSpace@@PAUBox@1@@@ABQAU12@@Z ENDP ; std::_Construct<AStarSearcher<BoxSpace,BoxSpace::Box *>::DNode *,AStarSearcher<BoxSpace,BoxSpace::Box *>::DNode * const &>
_TEXT	ENDS
PUBLIC	??$_Destroy@PAUDNode@?$AStarSearcher@VBoxSpace@@PAUBox@1@@@@std@@YAXPAPAUDNode@?$AStarSearcher@VBoxSpace@@PAUBox@1@@@@Z ; std::_Destroy<AStarSearcher<BoxSpace,BoxSpace::Box *>::DNode *>
; Function compile flags: /Ogsp
;	COMDAT ??$_Destroy@PAUDNode@?$AStarSearcher@VBoxSpace@@PAUBox@1@@@@std@@YAXPAPAUDNode@?$AStarSearcher@VBoxSpace@@PAUBox@1@@@@Z
_TEXT	SEGMENT
__Ptr$ = 8						; size = 4
??$_Destroy@PAUDNode@?$AStarSearcher@VBoxSpace@@PAUBox@1@@@@std@@YAXPAPAUDNode@?$AStarSearcher@VBoxSpace@@PAUBox@1@@@@Z PROC ; std::_Destroy<AStarSearcher<BoxSpace,BoxSpace::Box *>::DNode *>, COMDAT

; 63   : 	_Ptr->~_Ty();
; 64   : 	}

  00000	c3		 ret	 0
??$_Destroy@PAUDNode@?$AStarSearcher@VBoxSpace@@PAUBox@1@@@@std@@YAXPAPAUDNode@?$AStarSearcher@VBoxSpace@@PAUBox@1@@@@Z ENDP ; std::_Destroy<AStarSearcher<BoxSpace,BoxSpace::Box *>::DNode *>
_TEXT	ENDS
PUBLIC	?_Unchecked@?$_Vector_iterator@V?$_Vector_val@PAUDNode@?$AStarSearcher@VBoxSpace@@PAUBox@1@@@V?$allocator@PAUDNode@?$AStarSearcher@VBoxSpace@@PAUBox@1@@@@std@@@std@@@std@@QBEPAPAUDNode@?$AStarSearcher@VBoxSpace@@PAUBox@1@@@XZ ; std::_Vector_iterator<std::_Vector_val<AStarSearcher<BoxSpace,BoxSpace::Box *>::DNode *,std::allocator<AStarSearcher<BoxSpace,BoxSpace::Box *>::DNode *> > >::_Unchecked
; Function compile flags: /Ogsp
; File c:\program files (x86)\microsoft visual studio 10.0\vc\include\vector
;	COMDAT ?_Unchecked@?$_Vector_iterator@V?$_Vector_val@PAUDNode@?$AStarSearcher@VBoxSpace@@PAUBox@1@@@V?$allocator@PAUDNode@?$AStarSearcher@VBoxSpace@@PAUBox@1@@@@std@@@std@@@std@@QBEPAPAUDNode@?$AStarSearcher@VBoxSpace@@PAUBox@1@@@XZ
_TEXT	SEGMENT
?_Unchecked@?$_Vector_iterator@V?$_Vector_val@PAUDNode@?$AStarSearcher@VBoxSpace@@PAUBox@1@@@V?$allocator@PAUDNode@?$AStarSearcher@VBoxSpace@@PAUBox@1@@@@std@@@std@@@std@@QBEPAPAUDNode@?$AStarSearcher@VBoxSpace@@PAUBox@1@@@XZ PROC ; std::_Vector_iterator<std::_Vector_val<AStarSearcher<BoxSpace,BoxSpace::Box *>::DNode *,std::allocator<AStarSearcher<BoxSpace,BoxSpace::Box *>::DNode *> > >::_Unchecked, COMDAT
; _this$ = ecx

; 317  : 		return (_Unchecked_type(this->_Ptr));

  00000	8b 01		 mov	 eax, DWORD PTR [ecx]

; 318  : 		}

  00002	c3		 ret	 0
?_Unchecked@?$_Vector_iterator@V?$_Vector_val@PAUDNode@?$AStarSearcher@VBoxSpace@@PAUBox@1@@@V?$allocator@PAUDNode@?$AStarSearcher@VBoxSpace@@PAUBox@1@@@@std@@@std@@@std@@QBEPAPAUDNode@?$AStarSearcher@VBoxSpace@@PAUBox@1@@@XZ ENDP ; std::_Vector_iterator<std::_Vector_val<AStarSearcher<BoxSpace,BoxSpace::Box *>::DNode *,std::allocator<AStarSearcher<BoxSpace,BoxSpace::Box *>::DNode *> > >::_Unchecked
_TEXT	ENDS
PUBLIC	?_Unchecked@?$_Vector_iterator@V?$_Vector_val@ULink@BoxSpace@@V?$allocator@ULink@BoxSpace@@@std@@@std@@@std@@QBEPAULink@BoxSpace@@XZ ; std::_Vector_iterator<std::_Vector_val<BoxSpace::Link,std::allocator<BoxSpace::Link> > >::_Unchecked
; Function compile flags: /Ogsp
;	COMDAT ?_Unchecked@?$_Vector_iterator@V?$_Vector_val@ULink@BoxSpace@@V?$allocator@ULink@BoxSpace@@@std@@@std@@@std@@QBEPAULink@BoxSpace@@XZ
_TEXT	SEGMENT
?_Unchecked@?$_Vector_iterator@V?$_Vector_val@ULink@BoxSpace@@V?$allocator@ULink@BoxSpace@@@std@@@std@@@std@@QBEPAULink@BoxSpace@@XZ PROC ; std::_Vector_iterator<std::_Vector_val<BoxSpace::Link,std::allocator<BoxSpace::Link> > >::_Unchecked, COMDAT
; _this$ = ecx

; 317  : 		return (_Unchecked_type(this->_Ptr));

  00000	8b 01		 mov	 eax, DWORD PTR [ecx]

; 318  : 		}

  00002	c3		 ret	 0
?_Unchecked@?$_Vector_iterator@V?$_Vector_val@ULink@BoxSpace@@V?$allocator@ULink@BoxSpace@@@std@@@std@@@std@@QBEPAULink@BoxSpace@@XZ ENDP ; std::_Vector_iterator<std::_Vector_val<BoxSpace::Link,std::allocator<BoxSpace::Link> > >::_Unchecked
_TEXT	ENDS
PUBLIC	??0?$_Temp_iterator@ULink@BoxSpace@@@std@@QAE@H@Z ; std::_Temp_iterator<BoxSpace::Link>::_Temp_iterator<BoxSpace::Link>
; Function compile flags: /Ogsp
; File c:\program files (x86)\microsoft visual studio 10.0\vc\include\memory
;	COMDAT ??0?$_Temp_iterator@ULink@BoxSpace@@@std@@QAE@H@Z
_TEXT	SEGMENT
__Count$ = 8						; size = 4
??0?$_Temp_iterator@ULink@BoxSpace@@@std@@QAE@H@Z PROC	; std::_Temp_iterator<BoxSpace::Link>::_Temp_iterator<BoxSpace::Link>, COMDAT
; _this$ = ecx

; 727  : 	_Temp_iterator(_PDFT _Count = 0)

  00000	55		 push	 ebp
  00001	8b ec		 mov	 ebp, esp
  00003	8b c1		 mov	 eax, ecx

; 728  : 		{	// construct from desired temporary buffer size
; 729  : 		_Buf._Begin = 0;

  00005	33 c9		 xor	 ecx, ecx
  00007	89 08		 mov	 DWORD PTR [eax], ecx

; 730  : 		_Buf._Current = 0;

  00009	89 48 04	 mov	 DWORD PTR [eax+4], ecx

; 731  : 		_Buf._Hiwater = 0;

  0000c	89 48 08	 mov	 DWORD PTR [eax+8], ecx

; 732  : 		_Buf._Size = _Count;	// memorize size for lazy allocation

  0000f	8b 4d 08	 mov	 ecx, DWORD PTR __Count$[ebp]
  00012	89 48 0c	 mov	 DWORD PTR [eax+12], ecx

; 733  : 		_Pbuf = &_Buf;

  00015	89 40 10	 mov	 DWORD PTR [eax+16], eax

; 734  : 		}

  00018	5d		 pop	 ebp
  00019	c2 04 00	 ret	 4
??0?$_Temp_iterator@ULink@BoxSpace@@@std@@QAE@H@Z ENDP	; std::_Temp_iterator<BoxSpace::Link>::_Temp_iterator<BoxSpace::Link>
_TEXT	ENDS
PUBLIC	??$_Val_type@PAF@std@@YAPAFPAF@Z		; std::_Val_type<short *>
; Function compile flags: /Ogsp
; File c:\program files (x86)\microsoft visual studio 10.0\vc\include\xutility
;	COMDAT ??$_Val_type@PAF@std@@YAPAFPAF@Z
_TEXT	SEGMENT
___formal$ = 8						; size = 4
??$_Val_type@PAF@std@@YAPAFPAF@Z PROC			; std::_Val_type<short *>, COMDAT

; 790  : 	return (0);

  00000	33 c0		 xor	 eax, eax

; 791  : 	}

  00002	c3		 ret	 0
??$_Val_type@PAF@std@@YAPAFPAF@Z ENDP			; std::_Val_type<short *>
_TEXT	ENDS
PUBLIC	??$_Uninit_move@FFF@std@@YAPAFPAF00AAV?$allocator@F@0@0U_Scalar_ptr_iterator_tag@0@@Z ; std::_Uninit_move<short,short,short>
; Function compile flags: /Ogsp
; File c:\program files (x86)\microsoft visual studio 10.0\vc\include\memory
;	COMDAT ??$_Uninit_move@FFF@std@@YAPAFPAF00AAV?$allocator@F@0@0U_Scalar_ptr_iterator_tag@0@@Z
_TEXT	SEGMENT
__First$ = 8						; size = 4
__Last$ = 12						; size = 4
__Dest$ = 16						; size = 4
___formal$ = 20						; size = 4
___formal$ = 24						; size = 4
___formal$ = 28						; size = 1
??$_Uninit_move@FFF@std@@YAPAFPAF00AAV?$allocator@F@0@0U_Scalar_ptr_iterator_tag@0@@Z PROC ; std::_Uninit_move<short,short,short>, COMDAT

; 456  : 	{	// move [_First, _Last) to raw _Dest, scalar type

  00000	55		 push	 ebp
  00001	8b ec		 mov	 ebp, esp

; 457  : 	_DEBUG_RANGE(_First, _Last);
; 458  : 	_DEBUG_POINTER(_Dest);
; 459  : 	size_t _Count = (size_t)(_Last - _First);

  00003	8b 45 0c	 mov	 eax, DWORD PTR __Last$[ebp]
  00006	2b 45 08	 sub	 eax, DWORD PTR __First$[ebp]
  00009	56		 push	 esi
  0000a	d1 f8		 sar	 eax, 1

; 460  : 	return ((_Ty2 *)_CSTD memmove(&*_Dest, &*_First,
; 461  : 		_Count * sizeof (*_First)) + _Count);	// NB: non-overlapping move

  0000c	8d 34 00	 lea	 esi, DWORD PTR [eax+eax]
  0000f	56		 push	 esi
  00010	ff 75 08	 push	 DWORD PTR __First$[ebp]
  00013	ff 75 10	 push	 DWORD PTR __Dest$[ebp]
  00016	ff 15 00 00 00
	00		 call	 DWORD PTR __imp__memmove
  0001c	83 c4 0c	 add	 esp, 12			; 0000000cH
  0001f	03 c6		 add	 eax, esi
  00021	5e		 pop	 esi

; 462  : 	}

  00022	5d		 pop	 ebp
  00023	c3		 ret	 0
??$_Uninit_move@FFF@std@@YAPAFPAF00AAV?$allocator@F@0@0U_Scalar_ptr_iterator_tag@0@@Z ENDP ; std::_Uninit_move<short,short,short>
_TEXT	ENDS
PUBLIC	??$_Move@AAPAUDNode@?$AStarSearcher@VBoxSpace@@PAUBox@1@@@@std@@YA$$QAPAUDNode@?$AStarSearcher@VBoxSpace@@PAUBox@1@@@AAPAU12@@Z ; std::_Move<AStarSearcher<BoxSpace,BoxSpace::Box *>::DNode * &>
; Function compile flags: /Ogsp
; File c:\program files (x86)\microsoft visual studio 10.0\vc\include\utility
;	COMDAT ??$_Move@AAPAUDNode@?$AStarSearcher@VBoxSpace@@PAUBox@1@@@@std@@YA$$QAPAUDNode@?$AStarSearcher@VBoxSpace@@PAUBox@1@@@AAPAU12@@Z
_TEXT	SEGMENT
__Arg$ = 8						; size = 4
??$_Move@AAPAUDNode@?$AStarSearcher@VBoxSpace@@PAUBox@1@@@@std@@YA$$QAPAUDNode@?$AStarSearcher@VBoxSpace@@PAUBox@1@@@AAPAU12@@Z PROC ; std::_Move<AStarSearcher<BoxSpace,BoxSpace::Box *>::DNode * &>, COMDAT

; 94   : 	{	// forward _Arg as movable

  00000	55		 push	 ebp
  00001	8b ec		 mov	 ebp, esp

; 95   : 	return ((typename tr1::_Remove_reference<_Ty>::_Type&&)_Arg);

  00003	8b 45 08	 mov	 eax, DWORD PTR __Arg$[ebp]

; 96   : 	}

  00006	5d		 pop	 ebp
  00007	c3		 ret	 0
??$_Move@AAPAUDNode@?$AStarSearcher@VBoxSpace@@PAUBox@1@@@@std@@YA$$QAPAUDNode@?$AStarSearcher@VBoxSpace@@PAUBox@1@@@AAPAU12@@Z ENDP ; std::_Move<AStarSearcher<BoxSpace,BoxSpace::Box *>::DNode * &>
_TEXT	ENDS
PUBLIC	??$_Val_type@PAULink@BoxSpace@@@std@@YAPAULink@BoxSpace@@PAU12@@Z ; std::_Val_type<BoxSpace::Link *>
; Function compile flags: /Ogsp
; File c:\program files (x86)\microsoft visual studio 10.0\vc\include\xutility
;	COMDAT ??$_Val_type@PAULink@BoxSpace@@@std@@YAPAULink@BoxSpace@@PAU12@@Z
_TEXT	SEGMENT
___formal$ = 8						; size = 4
??$_Val_type@PAULink@BoxSpace@@@std@@YAPAULink@BoxSpace@@PAU12@@Z PROC ; std::_Val_type<BoxSpace::Link *>, COMDAT

; 790  : 	return (0);

  00000	33 c0		 xor	 eax, eax

; 791  : 	}

  00002	c3		 ret	 0
??$_Val_type@PAULink@BoxSpace@@@std@@YAPAULink@BoxSpace@@PAU12@@Z ENDP ; std::_Val_type<BoxSpace::Link *>
_TEXT	ENDS
PUBLIC	??$_Val_type@PAUBox@BoxSpace@@@std@@YAPAUBox@BoxSpace@@PAU12@@Z ; std::_Val_type<BoxSpace::Box *>
; Function compile flags: /Ogsp
;	COMDAT ??$_Val_type@PAUBox@BoxSpace@@@std@@YAPAUBox@BoxSpace@@PAU12@@Z
_TEXT	SEGMENT
___formal$ = 8						; size = 4
??$_Val_type@PAUBox@BoxSpace@@@std@@YAPAUBox@BoxSpace@@PAU12@@Z PROC ; std::_Val_type<BoxSpace::Box *>, COMDAT

; 790  : 	return (0);

  00000	33 c0		 xor	 eax, eax

; 791  : 	}

  00002	c3		 ret	 0
??$_Val_type@PAUBox@BoxSpace@@@std@@YAPAUBox@BoxSpace@@PAU12@@Z ENDP ; std::_Val_type<BoxSpace::Box *>
_TEXT	ENDS
PUBLIC	??$_Unchecked@PAPAUDNode@?$AStarSearcher@VBoxSpace@@PAUBox@1@@@@std@@YAPAPAUDNode@?$AStarSearcher@VBoxSpace@@PAUBox@1@@@PAPAU12@@Z ; std::_Unchecked<AStarSearcher<BoxSpace,BoxSpace::Box *>::DNode * *>
; Function compile flags: /Ogsp
;	COMDAT ??$_Unchecked@PAPAUDNode@?$AStarSearcher@VBoxSpace@@PAUBox@1@@@@std@@YAPAPAUDNode@?$AStarSearcher@VBoxSpace@@PAUBox@1@@@PAPAU12@@Z
_TEXT	SEGMENT
__Src$ = 8						; size = 4
??$_Unchecked@PAPAUDNode@?$AStarSearcher@VBoxSpace@@PAUBox@1@@@@std@@YAPAPAUDNode@?$AStarSearcher@VBoxSpace@@PAUBox@1@@@PAPAU12@@Z PROC ; std::_Unchecked<AStarSearcher<BoxSpace,BoxSpace::Box *>::DNode * *>, COMDAT

; 266  : 	{	// construct unchecked from checked, generic

  00000	55		 push	 ebp
  00001	8b ec		 mov	 ebp, esp

; 267  : 	return (_Src);

  00003	8b 45 08	 mov	 eax, DWORD PTR __Src$[ebp]

; 268  : 	}

  00006	5d		 pop	 ebp
  00007	c3		 ret	 0
??$_Unchecked@PAPAUDNode@?$AStarSearcher@VBoxSpace@@PAUBox@1@@@@std@@YAPAPAUDNode@?$AStarSearcher@VBoxSpace@@PAUBox@1@@@PAPAU12@@Z ENDP ; std::_Unchecked<AStarSearcher<BoxSpace,BoxSpace::Box *>::DNode * *>
_TEXT	ENDS
PUBLIC	??$_Val_type@PAPAUDNode@?$AStarSearcher@VBoxSpace@@PAUBox@1@@@@std@@YAPAPAUDNode@?$AStarSearcher@VBoxSpace@@PAUBox@1@@@PAPAU12@@Z ; std::_Val_type<AStarSearcher<BoxSpace,BoxSpace::Box *>::DNode * *>
; Function compile flags: /Ogsp
;	COMDAT ??$_Val_type@PAPAUDNode@?$AStarSearcher@VBoxSpace@@PAUBox@1@@@@std@@YAPAPAUDNode@?$AStarSearcher@VBoxSpace@@PAUBox@1@@@PAPAU12@@Z
_TEXT	SEGMENT
___formal$ = 8						; size = 4
??$_Val_type@PAPAUDNode@?$AStarSearcher@VBoxSpace@@PAUBox@1@@@@std@@YAPAPAUDNode@?$AStarSearcher@VBoxSpace@@PAUBox@1@@@PAPAU12@@Z PROC ; std::_Val_type<AStarSearcher<BoxSpace,BoxSpace::Box *>::DNode * *>, COMDAT

; 790  : 	return (0);

  00000	33 c0		 xor	 eax, eax

; 791  : 	}

  00002	c3		 ret	 0
??$_Val_type@PAPAUDNode@?$AStarSearcher@VBoxSpace@@PAUBox@1@@@@std@@YAPAPAUDNode@?$AStarSearcher@VBoxSpace@@PAUBox@1@@@PAPAU12@@Z ENDP ; std::_Val_type<AStarSearcher<BoxSpace,BoxSpace::Box *>::DNode * *>
_TEXT	ENDS
PUBLIC	??$_Uninit_move@PAUDNode@?$AStarSearcher@VBoxSpace@@PAUBox@1@@@PAU12@PAU12@@std@@YAPAPAUDNode@?$AStarSearcher@VBoxSpace@@PAUBox@1@@@PAPAU12@00AAV?$allocator@PAUDNode@?$AStarSearcher@VBoxSpace@@PAUBox@1@@@@0@0U_Scalar_ptr_iterator_tag@0@@Z ; std::_Uninit_move<AStarSearcher<BoxSpace,BoxSpace::Box *>::DNode *,AStarSearcher<BoxSpace,BoxSpace::Box *>::DNode *,AStarSearcher<BoxSpace,BoxSpace::Box *>::DNode *>
; Function compile flags: /Ogsp
; File c:\program files (x86)\microsoft visual studio 10.0\vc\include\memory
;	COMDAT ??$_Uninit_move@PAUDNode@?$AStarSearcher@VBoxSpace@@PAUBox@1@@@PAU12@PAU12@@std@@YAPAPAUDNode@?$AStarSearcher@VBoxSpace@@PAUBox@1@@@PAPAU12@00AAV?$allocator@PAUDNode@?$AStarSearcher@VBoxSpace@@PAUBox@1@@@@0@0U_Scalar_ptr_iterator_tag@0@@Z
_TEXT	SEGMENT
__First$ = 8						; size = 4
__Last$ = 12						; size = 4
__Dest$ = 16						; size = 4
___formal$ = 20						; size = 4
___formal$ = 24						; size = 4
___formal$ = 28						; size = 1
??$_Uninit_move@PAUDNode@?$AStarSearcher@VBoxSpace@@PAUBox@1@@@PAU12@PAU12@@std@@YAPAPAUDNode@?$AStarSearcher@VBoxSpace@@PAUBox@1@@@PAPAU12@00AAV?$allocator@PAUDNode@?$AStarSearcher@VBoxSpace@@PAUBox@1@@@@0@0U_Scalar_ptr_iterator_tag@0@@Z PROC ; std::_Uninit_move<AStarSearcher<BoxSpace,BoxSpace::Box *>::DNode *,AStarSearcher<BoxSpace,BoxSpace::Box *>::DNode *,AStarSearcher<BoxSpace,BoxSpace::Box *>::DNode *>, COMDAT

; 456  : 	{	// move [_First, _Last) to raw _Dest, scalar type

  00000	55		 push	 ebp
  00001	8b ec		 mov	 ebp, esp
  00003	56		 push	 esi

; 457  : 	_DEBUG_RANGE(_First, _Last);
; 458  : 	_DEBUG_POINTER(_Dest);
; 459  : 	size_t _Count = (size_t)(_Last - _First);

  00004	8b 75 0c	 mov	 esi, DWORD PTR __Last$[ebp]
  00007	2b 75 08	 sub	 esi, DWORD PTR __First$[ebp]
  0000a	c1 fe 02	 sar	 esi, 2

; 460  : 	return ((_Ty2 *)_CSTD memmove(&*_Dest, &*_First,
; 461  : 		_Count * sizeof (*_First)) + _Count);	// NB: non-overlapping move

  0000d	c1 e6 02	 shl	 esi, 2
  00010	56		 push	 esi
  00011	ff 75 08	 push	 DWORD PTR __First$[ebp]
  00014	ff 75 10	 push	 DWORD PTR __Dest$[ebp]
  00017	ff 15 00 00 00
	00		 call	 DWORD PTR __imp__memmove
  0001d	83 c4 0c	 add	 esp, 12			; 0000000cH
  00020	03 c6		 add	 eax, esi
  00022	5e		 pop	 esi

; 462  : 	}

  00023	5d		 pop	 ebp
  00024	c3		 ret	 0
??$_Uninit_move@PAUDNode@?$AStarSearcher@VBoxSpace@@PAUBox@1@@@PAU12@PAU12@@std@@YAPAPAUDNode@?$AStarSearcher@VBoxSpace@@PAUBox@1@@@PAPAU12@00AAV?$allocator@PAUDNode@?$AStarSearcher@VBoxSpace@@PAUBox@1@@@@0@0U_Scalar_ptr_iterator_tag@0@@Z ENDP ; std::_Uninit_move<AStarSearcher<BoxSpace,BoxSpace::Box *>::DNode *,AStarSearcher<BoxSpace,BoxSpace::Box *>::DNode *,AStarSearcher<BoxSpace,BoxSpace::Box *>::DNode *>
_TEXT	ENDS
PUBLIC	??$_Val_type@PAPBQAUBox@BoxSpace@@@std@@YAPAPBQAUBox@BoxSpace@@PAPBQAU12@@Z ; std::_Val_type<BoxSpace::Box * const * *>
; Function compile flags: /Ogsp
; File c:\program files (x86)\microsoft visual studio 10.0\vc\include\xutility
;	COMDAT ??$_Val_type@PAPBQAUBox@BoxSpace@@@std@@YAPAPBQAUBox@BoxSpace@@PAPBQAU12@@Z
_TEXT	SEGMENT
___formal$ = 8						; size = 4
??$_Val_type@PAPBQAUBox@BoxSpace@@@std@@YAPAPBQAUBox@BoxSpace@@PAPBQAU12@@Z PROC ; std::_Val_type<BoxSpace::Box * const * *>, COMDAT

; 790  : 	return (0);

  00000	33 c0		 xor	 eax, eax

; 791  : 	}

  00002	c3		 ret	 0
??$_Val_type@PAPBQAUBox@BoxSpace@@@std@@YAPAPBQAUBox@BoxSpace@@PAPBQAU12@@Z ENDP ; std::_Val_type<BoxSpace::Box * const * *>
_TEXT	ENDS
PUBLIC	??$_Uninit_move@PBQAUBox@BoxSpace@@PBQAU12@PBQAU12@@std@@YAPAPBQAUBox@BoxSpace@@PAPBQAU12@00AAV?$allocator@PBQAUBox@BoxSpace@@@0@0U_Scalar_ptr_iterator_tag@0@@Z ; std::_Uninit_move<BoxSpace::Box * const *,BoxSpace::Box * const *,BoxSpace::Box * const *>
; Function compile flags: /Ogsp
; File c:\program files (x86)\microsoft visual studio 10.0\vc\include\memory
;	COMDAT ??$_Uninit_move@PBQAUBox@BoxSpace@@PBQAU12@PBQAU12@@std@@YAPAPBQAUBox@BoxSpace@@PAPBQAU12@00AAV?$allocator@PBQAUBox@BoxSpace@@@0@0U_Scalar_ptr_iterator_tag@0@@Z
_TEXT	SEGMENT
__First$ = 8						; size = 4
__Last$ = 12						; size = 4
__Dest$ = 16						; size = 4
___formal$ = 20						; size = 4
___formal$ = 24						; size = 4
___formal$ = 28						; size = 1
??$_Uninit_move@PBQAUBox@BoxSpace@@PBQAU12@PBQAU12@@std@@YAPAPBQAUBox@BoxSpace@@PAPBQAU12@00AAV?$allocator@PBQAUBox@BoxSpace@@@0@0U_Scalar_ptr_iterator_tag@0@@Z PROC ; std::_Uninit_move<BoxSpace::Box * const *,BoxSpace::Box * const *,BoxSpace::Box * const *>, COMDAT

; 456  : 	{	// move [_First, _Last) to raw _Dest, scalar type

  00000	55		 push	 ebp
  00001	8b ec		 mov	 ebp, esp
  00003	56		 push	 esi

; 457  : 	_DEBUG_RANGE(_First, _Last);
; 458  : 	_DEBUG_POINTER(_Dest);
; 459  : 	size_t _Count = (size_t)(_Last - _First);

  00004	8b 75 0c	 mov	 esi, DWORD PTR __Last$[ebp]
  00007	2b 75 08	 sub	 esi, DWORD PTR __First$[ebp]
  0000a	c1 fe 02	 sar	 esi, 2

; 460  : 	return ((_Ty2 *)_CSTD memmove(&*_Dest, &*_First,
; 461  : 		_Count * sizeof (*_First)) + _Count);	// NB: non-overlapping move

  0000d	c1 e6 02	 shl	 esi, 2
  00010	56		 push	 esi
  00011	ff 75 08	 push	 DWORD PTR __First$[ebp]
  00014	ff 75 10	 push	 DWORD PTR __Dest$[ebp]
  00017	ff 15 00 00 00
	00		 call	 DWORD PTR __imp__memmove
  0001d	83 c4 0c	 add	 esp, 12			; 0000000cH
  00020	03 c6		 add	 eax, esi
  00022	5e		 pop	 esi

; 462  : 	}

  00023	5d		 pop	 ebp
  00024	c3		 ret	 0
??$_Uninit_move@PBQAUBox@BoxSpace@@PBQAU12@PBQAU12@@std@@YAPAPBQAUBox@BoxSpace@@PAPBQAU12@00AAV?$allocator@PBQAUBox@BoxSpace@@@0@0U_Scalar_ptr_iterator_tag@0@@Z ENDP ; std::_Uninit_move<BoxSpace::Box * const *,BoxSpace::Box * const *,BoxSpace::Box * const *>
_TEXT	ENDS
PUBLIC	??$return_temporary_buffer@ULink@BoxSpace@@@std@@YAXPAULink@BoxSpace@@@Z ; std::return_temporary_buffer<BoxSpace::Link>
; Function compile flags: /Ogsp
;	COMDAT ??$return_temporary_buffer@ULink@BoxSpace@@@std@@YAXPAULink@BoxSpace@@@Z
_TEXT	SEGMENT
__Pbuf$ = 8						; size = 4
??$return_temporary_buffer@ULink@BoxSpace@@@std@@YAXPAULink@BoxSpace@@@Z PROC ; std::return_temporary_buffer<BoxSpace::Link>, COMDAT

; 41   : 	{	// delete raw temporary buffer

  00000	55		 push	 ebp
  00001	8b ec		 mov	 ebp, esp

; 43   : 	}

  00003	5d		 pop	 ebp

; 42   : 	operator delete(_Pbuf);

  00004	e9 00 00 00 00	 jmp	 ??3@YAXPAX@Z		; operator delete
??$return_temporary_buffer@ULink@BoxSpace@@@std@@YAXPAULink@BoxSpace@@@Z ENDP ; std::return_temporary_buffer<BoxSpace::Link>
_TEXT	ENDS
PUBLIC	??RDNodeCostGreater@?$AStarSearcher@VBoxSpace@@PAUBox@1@@@QBE_NPBUDNode@1@0@Z ; AStarSearcher<BoxSpace,BoxSpace::Box *>::DNodeCostGreater::operator()
; Function compile flags: /Ogsp
; File d:\lost saga for developer\youtube\tutorial\source\src\lsclient\astar.h
;	COMDAT ??RDNodeCostGreater@?$AStarSearcher@VBoxSpace@@PAUBox@1@@@QBE_NPBUDNode@1@0@Z
_TEXT	SEGMENT
_p$ = 8							; size = 4
_q$ = 12						; size = 4
??RDNodeCostGreater@?$AStarSearcher@VBoxSpace@@PAUBox@1@@@QBE_NPBUDNode@1@0@Z PROC ; AStarSearcher<BoxSpace,BoxSpace::Box *>::DNodeCostGreater::operator(), COMDAT
; _this$ = ecx

; 88   : 		bool operator () ( const DNode* p, const DNode* q ) const		{ return p->total > q->total; }

  00000	55		 push	 ebp
  00001	8b ec		 mov	 ebp, esp
  00003	8b 45 08	 mov	 eax, DWORD PTR _p$[ebp]
  00006	f3 0f 10 40 0c	 movss	 xmm0, DWORD PTR [eax+12]
  0000b	8b 45 0c	 mov	 eax, DWORD PTR _q$[ebp]
  0000e	f3 0f 10 48 0c	 movss	 xmm1, DWORD PTR [eax+12]
  00013	0f 5a c0	 cvtps2pd xmm0, xmm0
  00016	0f 5a c9	 cvtps2pd xmm1, xmm1
  00019	33 c0		 xor	 eax, eax
  0001b	66 0f 2f c1	 comisd	 xmm0, xmm1
  0001f	76 01		 jbe	 SHORT $LN4@operator@2
  00021	40		 inc	 eax
$LN4@operator@2:
  00022	5d		 pop	 ebp
  00023	c2 08 00	 ret	 8
??RDNodeCostGreater@?$AStarSearcher@VBoxSpace@@PAUBox@1@@@QBE_NPBUDNode@1@0@Z ENDP ; AStarSearcher<BoxSpace,BoxSpace::Box *>::DNodeCostGreater::operator()
_TEXT	ENDS
PUBLIC	??$_Iter_cat@PAULink@BoxSpace@@@std@@YA?AUrandom_access_iterator_tag@0@ABQAULink@BoxSpace@@@Z ; std::_Iter_cat<BoxSpace::Link *>
; Function compile flags: /Ogsp
; File c:\program files (x86)\microsoft visual studio 10.0\vc\include\xutility
;	COMDAT ??$_Iter_cat@PAULink@BoxSpace@@@std@@YA?AUrandom_access_iterator_tag@0@ABQAULink@BoxSpace@@@Z
_TEXT	SEGMENT
___$ReturnUdt$ = 8					; size = 4
___formal$ = 12						; size = 4
??$_Iter_cat@PAULink@BoxSpace@@@std@@YA?AUrandom_access_iterator_tag@0@ABQAULink@BoxSpace@@@Z PROC ; std::_Iter_cat<BoxSpace::Link *>, COMDAT

; 476  : 	{	// return category from iterator argument

  00000	55		 push	 ebp
  00001	8b ec		 mov	 ebp, esp

; 477  : 	typename iterator_traits<_Iter>::iterator_category _Cat;
; 478  : 	return (_Cat);

  00003	8b 45 08	 mov	 eax, DWORD PTR ___$ReturnUdt$[ebp]

; 479  : 	}

  00006	5d		 pop	 ebp
  00007	c3		 ret	 0
??$_Iter_cat@PAULink@BoxSpace@@@std@@YA?AUrandom_access_iterator_tag@0@ABQAULink@BoxSpace@@@Z ENDP ; std::_Iter_cat<BoxSpace::Link *>
_TEXT	ENDS
PUBLIC	??$_Distance2@PAULink@BoxSpace@@H@std@@YAXPAULink@BoxSpace@@0AAHUrandom_access_iterator_tag@0@@Z ; std::_Distance2<BoxSpace::Link *,int>
; Function compile flags: /Ogsp
;	COMDAT ??$_Distance2@PAULink@BoxSpace@@H@std@@YAXPAULink@BoxSpace@@0AAHUrandom_access_iterator_tag@0@@Z
_TEXT	SEGMENT
__First$ = 8						; size = 4
__Last$ = 12						; size = 4
__Off$ = 16						; size = 4
___formal$ = 20						; size = 1
??$_Distance2@PAULink@BoxSpace@@H@std@@YAXPAULink@BoxSpace@@0AAHUrandom_access_iterator_tag@0@@Z PROC ; std::_Distance2<BoxSpace::Link *,int>, COMDAT

; 885  : 	{	// add to _Off distance between random-access iterators

  00000	55		 push	 ebp
  00001	8b ec		 mov	 ebp, esp

; 886  :  #if _ITERATOR_DEBUG_LEVEL == 2
; 887  : 	if (_First != _Last)
; 888  : 		{	// check for null pointers
; 889  : 		_DEBUG_POINTER(_First);
; 890  : 		_DEBUG_POINTER(_Last);
; 891  : 		}
; 892  :  #endif /* _ITERATOR_DEBUG_LEVEL == 2 */
; 893  : 
; 894  : 	_Off += _Last - _First;

  00003	8b 4d 0c	 mov	 ecx, DWORD PTR __Last$[ebp]
  00006	2b 4d 08	 sub	 ecx, DWORD PTR __First$[ebp]
  00009	8b 45 10	 mov	 eax, DWORD PTR __Off$[ebp]
  0000c	c1 f9 05	 sar	 ecx, 5
  0000f	01 08		 add	 DWORD PTR [eax], ecx

; 895  : 	}

  00011	5d		 pop	 ebp
  00012	c3		 ret	 0
??$_Distance2@PAULink@BoxSpace@@H@std@@YAXPAULink@BoxSpace@@0AAHUrandom_access_iterator_tag@0@@Z ENDP ; std::_Distance2<BoxSpace::Link *,int>
_TEXT	ENDS
PUBLIC	??$_Dist_type@PAPAUDNode@?$AStarSearcher@VBoxSpace@@PAUBox@1@@@@std@@YAPAHPAPAUDNode@?$AStarSearcher@VBoxSpace@@PAUBox@1@@@@Z ; std::_Dist_type<AStarSearcher<BoxSpace,BoxSpace::Box *>::DNode * *>
; Function compile flags: /Ogsp
;	COMDAT ??$_Dist_type@PAPAUDNode@?$AStarSearcher@VBoxSpace@@PAUBox@1@@@@std@@YAPAHPAPAUDNode@?$AStarSearcher@VBoxSpace@@PAUBox@1@@@@Z
_TEXT	SEGMENT
___formal$ = 8						; size = 4
??$_Dist_type@PAPAUDNode@?$AStarSearcher@VBoxSpace@@PAUBox@1@@@@std@@YAPAHPAPAUDNode@?$AStarSearcher@VBoxSpace@@PAUBox@1@@@@Z PROC ; std::_Dist_type<AStarSearcher<BoxSpace,BoxSpace::Box *>::DNode * *>, COMDAT

; 850  : 	return (0);

  00000	33 c0		 xor	 eax, eax

; 851  : 	}

  00002	c3		 ret	 0
??$_Dist_type@PAPAUDNode@?$AStarSearcher@VBoxSpace@@PAUBox@1@@@@std@@YAPAHPAPAUDNode@?$AStarSearcher@VBoxSpace@@PAUBox@1@@@@Z ENDP ; std::_Dist_type<AStarSearcher<BoxSpace,BoxSpace::Box *>::DNode * *>
_TEXT	ENDS
PUBLIC	?_Init@?$_Temp_iterator@ULink@BoxSpace@@@std@@QAEAAV12@XZ ; std::_Temp_iterator<BoxSpace::Link>::_Init
; Function compile flags: /Ogsp
; File c:\program files (x86)\microsoft visual studio 10.0\vc\include\memory
;	COMDAT ?_Init@?$_Temp_iterator@ULink@BoxSpace@@@std@@QAEAAV12@XZ
_TEXT	SEGMENT
?_Init@?$_Temp_iterator@ULink@BoxSpace@@@std@@QAEAAV12@XZ PROC ; std::_Temp_iterator<BoxSpace::Link>::_Init, COMDAT
; _this$ = ecx

; 805  : 		{	// set pointer at beginning of buffer

  00000	8b c1		 mov	 eax, ecx

; 806  : 		_Pbuf->_Current = _Pbuf->_Begin;

  00002	8b 50 10	 mov	 edx, DWORD PTR [eax+16]
  00005	8b 0a		 mov	 ecx, DWORD PTR [edx]
  00007	89 4a 04	 mov	 DWORD PTR [edx+4], ecx

; 807  : 		return (*this);
; 808  : 		}

  0000a	c3		 ret	 0
?_Init@?$_Temp_iterator@ULink@BoxSpace@@@std@@QAEAAV12@XZ ENDP ; std::_Temp_iterator<BoxSpace::Link>::_Init
_TEXT	ENDS
PUBLIC	?_First@?$_Temp_iterator@ULink@BoxSpace@@@std@@QBEPAULink@BoxSpace@@XZ ; std::_Temp_iterator<BoxSpace::Link>::_First
; Function compile flags: /Ogsp
;	COMDAT ?_First@?$_Temp_iterator@ULink@BoxSpace@@@std@@QBEPAULink@BoxSpace@@XZ
_TEXT	SEGMENT
?_First@?$_Temp_iterator@ULink@BoxSpace@@@std@@QBEPAULink@BoxSpace@@XZ PROC ; std::_Temp_iterator<BoxSpace::Link>::_First, COMDAT
; _this$ = ecx

; 812  : 		return (_Pbuf->_Begin);

  00000	8b 41 10	 mov	 eax, DWORD PTR [ecx+16]
  00003	8b 00		 mov	 eax, DWORD PTR [eax]

; 813  : 		}

  00005	c3		 ret	 0
?_First@?$_Temp_iterator@ULink@BoxSpace@@@std@@QBEPAULink@BoxSpace@@XZ ENDP ; std::_Temp_iterator<BoxSpace::Link>::_First
_TEXT	ENDS
PUBLIC	?_Last@?$_Temp_iterator@ULink@BoxSpace@@@std@@QBEPAULink@BoxSpace@@XZ ; std::_Temp_iterator<BoxSpace::Link>::_Last
; Function compile flags: /Ogsp
;	COMDAT ?_Last@?$_Temp_iterator@ULink@BoxSpace@@@std@@QBEPAULink@BoxSpace@@XZ
_TEXT	SEGMENT
?_Last@?$_Temp_iterator@ULink@BoxSpace@@@std@@QBEPAULink@BoxSpace@@XZ PROC ; std::_Temp_iterator<BoxSpace::Link>::_Last, COMDAT
; _this$ = ecx

; 817  : 		return (_Pbuf->_Current);

  00000	8b 41 10	 mov	 eax, DWORD PTR [ecx+16]
  00003	8b 40 04	 mov	 eax, DWORD PTR [eax+4]

; 818  : 		}

  00006	c3		 ret	 0
?_Last@?$_Temp_iterator@ULink@BoxSpace@@@std@@QBEPAULink@BoxSpace@@XZ ENDP ; std::_Temp_iterator<BoxSpace::Link>::_Last
_TEXT	ENDS
PUBLIC	??4?$_Temp_iterator@ULink@BoxSpace@@@std@@QAEAAV01@ABV01@@Z ; std::_Temp_iterator<BoxSpace::Link>::operator=
; Function compile flags: /Ogsp
;	COMDAT ??4?$_Temp_iterator@ULink@BoxSpace@@@std@@QAEAAV01@ABV01@@Z
_TEXT	SEGMENT
__Right$ = 8						; size = 4
??4?$_Temp_iterator@ULink@BoxSpace@@@std@@QAEAAV01@ABV01@@Z PROC ; std::_Temp_iterator<BoxSpace::Link>::operator=, COMDAT
; _this$ = ecx

; 757  : 		{	// assign _Right (share active buffer)

  00000	55		 push	 ebp
  00001	8b ec		 mov	 ebp, esp
  00003	8b c1		 mov	 eax, ecx

; 758  : 		_Pbuf = _Right._Pbuf;

  00005	8b 4d 08	 mov	 ecx, DWORD PTR __Right$[ebp]
  00008	8b 49 10	 mov	 ecx, DWORD PTR [ecx+16]
  0000b	89 48 10	 mov	 DWORD PTR [eax+16], ecx

; 759  : 		return (*this);
; 760  : 		}

  0000e	5d		 pop	 ebp
  0000f	c2 04 00	 ret	 4
??4?$_Temp_iterator@ULink@BoxSpace@@@std@@QAEAAV01@ABV01@@Z ENDP ; std::_Temp_iterator<BoxSpace::Link>::operator=
_TEXT	ENDS
PUBLIC	??$_Advance@PAULink@BoxSpace@@H@std@@YAXAAPAULink@BoxSpace@@HUrandom_access_iterator_tag@0@@Z ; std::_Advance<BoxSpace::Link *,int>
; Function compile flags: /Ogsp
; File c:\program files (x86)\microsoft visual studio 10.0\vc\include\xutility
;	COMDAT ??$_Advance@PAULink@BoxSpace@@H@std@@YAXAAPAULink@BoxSpace@@HUrandom_access_iterator_tag@0@@Z
_TEXT	SEGMENT
__Where$ = 8						; size = 4
__Off$ = 12						; size = 4
___formal$ = 16						; size = 1
??$_Advance@PAULink@BoxSpace@@H@std@@YAXAAPAULink@BoxSpace@@HUrandom_access_iterator_tag@0@@Z PROC ; std::_Advance<BoxSpace::Link *,int>, COMDAT

; 840  : 	{	// increment iterator by offset, random-access iterators

  00000	55		 push	 ebp
  00001	8b ec		 mov	 ebp, esp

; 841  : 	_Where += _Off;

  00003	8b 4d 0c	 mov	 ecx, DWORD PTR __Off$[ebp]
  00006	8b 45 08	 mov	 eax, DWORD PTR __Where$[ebp]
  00009	c1 e1 05	 shl	 ecx, 5
  0000c	01 08		 add	 DWORD PTR [eax], ecx

; 842  : 	}

  0000e	5d		 pop	 ebp
  0000f	c3		 ret	 0
??$_Advance@PAULink@BoxSpace@@H@std@@YAXAAPAULink@BoxSpace@@HUrandom_access_iterator_tag@0@@Z ENDP ; std::_Advance<BoxSpace::Link *,int>
_TEXT	ENDS
PUBLIC	??$forward@ULink@BoxSpace@@@std@@YA$$QAULink@BoxSpace@@AAU12@@Z ; std::forward<BoxSpace::Link>
; Function compile flags: /Ogsp
; File c:\program files (x86)\microsoft visual studio 10.0\vc\include\utility
;	COMDAT ??$forward@ULink@BoxSpace@@@std@@YA$$QAULink@BoxSpace@@AAU12@@Z
_TEXT	SEGMENT
__Arg$ = 8						; size = 4
??$forward@ULink@BoxSpace@@@std@@YA$$QAULink@BoxSpace@@AAU12@@Z PROC ; std::forward<BoxSpace::Link>, COMDAT

; 78   : 	{	// forward _Arg, given explicitly specified type parameter

  00000	55		 push	 ebp
  00001	8b ec		 mov	 ebp, esp

; 79   : 	return ((_Ty&&)_Arg);

  00003	8b 45 08	 mov	 eax, DWORD PTR __Arg$[ebp]

; 80   : 	}

  00006	5d		 pop	 ebp
  00007	c3		 ret	 0
??$forward@ULink@BoxSpace@@@std@@YA$$QAULink@BoxSpace@@AAU12@@Z ENDP ; std::forward<BoxSpace::Link>
_TEXT	ENDS
PUBLIC	??$forward@UBox@BoxSpace@@@std@@YA$$QAUBox@BoxSpace@@AAU12@@Z ; std::forward<BoxSpace::Box>
; Function compile flags: /Ogsp
;	COMDAT ??$forward@UBox@BoxSpace@@@std@@YA$$QAUBox@BoxSpace@@AAU12@@Z
_TEXT	SEGMENT
__Arg$ = 8						; size = 4
??$forward@UBox@BoxSpace@@@std@@YA$$QAUBox@BoxSpace@@AAU12@@Z PROC ; std::forward<BoxSpace::Box>, COMDAT

; 78   : 	{	// forward _Arg, given explicitly specified type parameter

  00000	55		 push	 ebp
  00001	8b ec		 mov	 ebp, esp

; 79   : 	return ((_Ty&&)_Arg);

  00003	8b 45 08	 mov	 eax, DWORD PTR __Arg$[ebp]

; 80   : 	}

  00006	5d		 pop	 ebp
  00007	c3		 ret	 0
??$forward@UBox@BoxSpace@@@std@@YA$$QAUBox@BoxSpace@@AAU12@@Z ENDP ; std::forward<BoxSpace::Box>
_TEXT	ENDS
PUBLIC	??$_Ptr_cat@V?$_Vector_const_iterator@V?$_Vector_val@ULink@BoxSpace@@V?$allocator@ULink@BoxSpace@@@std@@@std@@@std@@PAULink@BoxSpace@@@std@@YA?AU_Nonscalar_ptr_iterator_tag@0@AAV?$_Vector_const_iterator@V?$_Vector_val@ULink@BoxSpace@@V?$allocator@ULink@BoxSpace@@@std@@@std@@@0@AAPAULink@BoxSpace@@@Z ; std::_Ptr_cat<std::_Vector_const_iterator<std::_Vector_val<BoxSpace::Link,std::allocator<BoxSpace::Link> > >,BoxSpace::Link *>
; Function compile flags: /Ogsp
; File c:\program files (x86)\microsoft visual studio 10.0\vc\include\xutility
;	COMDAT ??$_Ptr_cat@V?$_Vector_const_iterator@V?$_Vector_val@ULink@BoxSpace@@V?$allocator@ULink@BoxSpace@@@std@@@std@@@std@@PAULink@BoxSpace@@@std@@YA?AU_Nonscalar_ptr_iterator_tag@0@AAV?$_Vector_const_iterator@V?$_Vector_val@ULink@BoxSpace@@V?$allocator@ULink@BoxSpace@@@std@@@std@@@0@AAPAULink@BoxSpace@@@Z
_TEXT	SEGMENT
__Cat$ = -1						; size = 1
___formal$ = 8						; size = 4
___formal$ = 12						; size = 4
??$_Ptr_cat@V?$_Vector_const_iterator@V?$_Vector_val@ULink@BoxSpace@@V?$allocator@ULink@BoxSpace@@@std@@@std@@@std@@PAULink@BoxSpace@@@std@@YA?AU_Nonscalar_ptr_iterator_tag@0@AAV?$_Vector_const_iterator@V?$_Vector_val@ULink@BoxSpace@@V?$allocator@ULink@BoxSpace@@@std@@@std@@@0@AAPAULink@BoxSpace@@@Z PROC ; std::_Ptr_cat<std::_Vector_const_iterator<std::_Vector_val<BoxSpace::Link,std::allocator<BoxSpace::Link> > >,BoxSpace::Link *>, COMDAT

; 485  : 	{	// return pointer category from arbitrary arguments

  00000	55		 push	 ebp
  00001	8b ec		 mov	 ebp, esp
  00003	51		 push	 ecx

; 486  : 	_Nonscalar_ptr_iterator_tag _Cat;
; 487  : 	return (_Cat);

  00004	8a 45 ff	 mov	 al, BYTE PTR __Cat$[ebp]

; 488  : 	}

  00007	c9		 leave
  00008	c3		 ret	 0
??$_Ptr_cat@V?$_Vector_const_iterator@V?$_Vector_val@ULink@BoxSpace@@V?$allocator@ULink@BoxSpace@@@std@@@std@@@std@@PAULink@BoxSpace@@@std@@YA?AU_Nonscalar_ptr_iterator_tag@0@AAV?$_Vector_const_iterator@V?$_Vector_val@ULink@BoxSpace@@V?$allocator@ULink@BoxSpace@@@std@@@std@@@0@AAPAULink@BoxSpace@@@Z ENDP ; std::_Ptr_cat<std::_Vector_const_iterator<std::_Vector_val<BoxSpace::Link,std::allocator<BoxSpace::Link> > >,BoxSpace::Link *>
_TEXT	ENDS
PUBLIC	??$_Move@AAULink@BoxSpace@@@std@@YA$$QAULink@BoxSpace@@AAU12@@Z ; std::_Move<BoxSpace::Link &>
; Function compile flags: /Ogsp
; File c:\program files (x86)\microsoft visual studio 10.0\vc\include\utility
;	COMDAT ??$_Move@AAULink@BoxSpace@@@std@@YA$$QAULink@BoxSpace@@AAU12@@Z
_TEXT	SEGMENT
__Arg$ = 8						; size = 4
??$_Move@AAULink@BoxSpace@@@std@@YA$$QAULink@BoxSpace@@AAU12@@Z PROC ; std::_Move<BoxSpace::Link &>, COMDAT

; 94   : 	{	// forward _Arg as movable

  00000	55		 push	 ebp
  00001	8b ec		 mov	 ebp, esp

; 95   : 	return ((typename tr1::_Remove_reference<_Ty>::_Type&&)_Arg);

  00003	8b 45 08	 mov	 eax, DWORD PTR __Arg$[ebp]

; 96   : 	}

  00006	5d		 pop	 ebp
  00007	c3		 ret	 0
??$_Move@AAULink@BoxSpace@@@std@@YA$$QAULink@BoxSpace@@AAU12@@Z ENDP ; std::_Move<BoxSpace::Link &>
_TEXT	ENDS
PUBLIC	??$swap@ULink@BoxSpace@@@std@@YAXAAULink@BoxSpace@@0@Z ; std::swap<BoxSpace::Link>
; Function compile flags: /Ogsp
;	COMDAT ??$swap@ULink@BoxSpace@@@std@@YAXAAULink@BoxSpace@@0@Z
_TEXT	SEGMENT
__Tmp$ = -32						; size = 32
__Left$ = 8						; size = 4
__Right$ = 12						; size = 4
??$swap@ULink@BoxSpace@@@std@@YAXAAULink@BoxSpace@@0@Z PROC ; std::swap<BoxSpace::Link>, COMDAT

; 101  : 	{	// exchange values stored at _Left and _Right

  00000	55		 push	 ebp
  00001	8b ec		 mov	 ebp, esp
  00003	83 ec 20	 sub	 esp, 32			; 00000020H
  00006	56		 push	 esi

; 102  : 	_Ty _Tmp = _Move(_Left);

  00007	8b 75 08	 mov	 esi, DWORD PTR __Left$[ebp]
  0000a	57		 push	 edi
  0000b	6a 08		 push	 8
  0000d	59		 pop	 ecx

; 103  : 	_Left = _Move(_Right);

  0000e	6a 08		 push	 8
  00010	8d 7d e0	 lea	 edi, DWORD PTR __Tmp$[ebp]
  00013	f3 a5		 rep movsd
  00015	8b 75 0c	 mov	 esi, DWORD PTR __Right$[ebp]
  00018	8b 7d 08	 mov	 edi, DWORD PTR __Left$[ebp]
  0001b	59		 pop	 ecx
  0001c	f3 a5		 rep movsd

; 104  : 	_Right = _Move(_Tmp);

  0001e	8b 7d 0c	 mov	 edi, DWORD PTR __Right$[ebp]
  00021	6a 08		 push	 8
  00023	59		 pop	 ecx
  00024	8d 75 e0	 lea	 esi, DWORD PTR __Tmp$[ebp]
  00027	f3 a5		 rep movsd
  00029	5f		 pop	 edi
  0002a	5e		 pop	 esi

; 105  : 	}

  0002b	c9		 leave
  0002c	c3		 ret	 0
??$swap@ULink@BoxSpace@@@std@@YAXAAULink@BoxSpace@@0@Z ENDP ; std::swap<BoxSpace::Link>
_TEXT	ENDS
PUBLIC	??$_Ptr_cat@PAULink@BoxSpace@@V?$_Temp_iterator@ULink@BoxSpace@@@std@@@std@@YA?AU_Nonscalar_ptr_iterator_tag@0@AAPAULink@BoxSpace@@AAV?$_Temp_iterator@ULink@BoxSpace@@@0@@Z ; std::_Ptr_cat<BoxSpace::Link *,std::_Temp_iterator<BoxSpace::Link> >
; Function compile flags: /Ogsp
; File c:\program files (x86)\microsoft visual studio 10.0\vc\include\xutility
;	COMDAT ??$_Ptr_cat@PAULink@BoxSpace@@V?$_Temp_iterator@ULink@BoxSpace@@@std@@@std@@YA?AU_Nonscalar_ptr_iterator_tag@0@AAPAULink@BoxSpace@@AAV?$_Temp_iterator@ULink@BoxSpace@@@0@@Z
_TEXT	SEGMENT
__Cat$ = -1						; size = 1
___formal$ = 8						; size = 4
___formal$ = 12						; size = 4
??$_Ptr_cat@PAULink@BoxSpace@@V?$_Temp_iterator@ULink@BoxSpace@@@std@@@std@@YA?AU_Nonscalar_ptr_iterator_tag@0@AAPAULink@BoxSpace@@AAV?$_Temp_iterator@ULink@BoxSpace@@@0@@Z PROC ; std::_Ptr_cat<BoxSpace::Link *,std::_Temp_iterator<BoxSpace::Link> >, COMDAT

; 485  : 	{	// return pointer category from arbitrary arguments

  00000	55		 push	 ebp
  00001	8b ec		 mov	 ebp, esp
  00003	51		 push	 ecx

; 486  : 	_Nonscalar_ptr_iterator_tag _Cat;
; 487  : 	return (_Cat);

  00004	8a 45 ff	 mov	 al, BYTE PTR __Cat$[ebp]

; 488  : 	}

  00007	c9		 leave
  00008	c3		 ret	 0
??$_Ptr_cat@PAULink@BoxSpace@@V?$_Temp_iterator@ULink@BoxSpace@@@std@@@std@@YA?AU_Nonscalar_ptr_iterator_tag@0@AAPAULink@BoxSpace@@AAV?$_Temp_iterator@ULink@BoxSpace@@@0@@Z ENDP ; std::_Ptr_cat<BoxSpace::Link *,std::_Temp_iterator<BoxSpace::Link> >
_TEXT	ENDS
PUBLIC	??$_Unchecked@PAULink@BoxSpace@@@std@@YAPAULink@BoxSpace@@PAU12@@Z ; std::_Unchecked<BoxSpace::Link *>
; Function compile flags: /Ogsp
;	COMDAT ??$_Unchecked@PAULink@BoxSpace@@@std@@YAPAULink@BoxSpace@@PAU12@@Z
_TEXT	SEGMENT
__Src$ = 8						; size = 4
??$_Unchecked@PAULink@BoxSpace@@@std@@YAPAULink@BoxSpace@@PAU12@@Z PROC ; std::_Unchecked<BoxSpace::Link *>, COMDAT

; 266  : 	{	// construct unchecked from checked, generic

  00000	55		 push	 ebp
  00001	8b ec		 mov	 ebp, esp

; 267  : 	return (_Src);

  00003	8b 45 08	 mov	 eax, DWORD PTR __Src$[ebp]

; 268  : 	}

  00006	5d		 pop	 ebp
  00007	c3		 ret	 0
??$_Unchecked@PAULink@BoxSpace@@@std@@YAPAULink@BoxSpace@@PAU12@@Z ENDP ; std::_Unchecked<BoxSpace::Link *>
_TEXT	ENDS
PUBLIC	??$_Dist_type@PAULink@BoxSpace@@@std@@YAPAHPAULink@BoxSpace@@@Z ; std::_Dist_type<BoxSpace::Link *>
; Function compile flags: /Ogsp
;	COMDAT ??$_Dist_type@PAULink@BoxSpace@@@std@@YAPAHPAULink@BoxSpace@@@Z
_TEXT	SEGMENT
___formal$ = 8						; size = 4
??$_Dist_type@PAULink@BoxSpace@@@std@@YAPAHPAULink@BoxSpace@@@Z PROC ; std::_Dist_type<BoxSpace::Link *>, COMDAT

; 850  : 	return (0);

  00000	33 c0		 xor	 eax, eax

; 851  : 	}

  00002	c3		 ret	 0
??$_Dist_type@PAULink@BoxSpace@@@std@@YAPAHPAULink@BoxSpace@@@Z ENDP ; std::_Dist_type<BoxSpace::Link *>
_TEXT	ENDS
PUBLIC	??$_Rechecked@PAULink@BoxSpace@@PAU12@@std@@YAAAPAULink@BoxSpace@@AAPAU12@PAU12@@Z ; std::_Rechecked<BoxSpace::Link *,BoxSpace::Link *>
; Function compile flags: /Ogsp
;	COMDAT ??$_Rechecked@PAULink@BoxSpace@@PAU12@@std@@YAAAPAULink@BoxSpace@@AAPAU12@PAU12@@Z
_TEXT	SEGMENT
__Dest$ = 8						; size = 4
__Src$ = 12						; size = 4
??$_Rechecked@PAULink@BoxSpace@@PAU12@@std@@YAAAPAULink@BoxSpace@@AAPAU12@PAU12@@Z PROC ; std::_Rechecked<BoxSpace::Link *,BoxSpace::Link *>, COMDAT

; 274  : 	{	// reset checked from unchecked, generic

  00000	55		 push	 ebp
  00001	8b ec		 mov	 ebp, esp

; 275  : 	_Dest = _Src;

  00003	8b 45 08	 mov	 eax, DWORD PTR __Dest$[ebp]
  00006	8b 4d 0c	 mov	 ecx, DWORD PTR __Src$[ebp]
  00009	89 08		 mov	 DWORD PTR [eax], ecx

; 276  : 	return (_Dest);
; 277  : 	}

  0000b	5d		 pop	 ebp
  0000c	c3		 ret	 0
??$_Rechecked@PAULink@BoxSpace@@PAU12@@std@@YAAAPAULink@BoxSpace@@AAPAU12@PAU12@@Z ENDP ; std::_Rechecked<BoxSpace::Link *,BoxSpace::Link *>
_TEXT	ENDS
PUBLIC	??$forward@AAPAULink@BoxSpace@@@std@@YAAAPAULink@BoxSpace@@AAPAU12@@Z ; std::forward<BoxSpace::Link * &>
; Function compile flags: /Ogsp
; File c:\program files (x86)\microsoft visual studio 10.0\vc\include\utility
;	COMDAT ??$forward@AAPAULink@BoxSpace@@@std@@YAAAPAULink@BoxSpace@@AAPAU12@@Z
_TEXT	SEGMENT
__Arg$ = 8						; size = 4
??$forward@AAPAULink@BoxSpace@@@std@@YAAAPAULink@BoxSpace@@AAPAU12@@Z PROC ; std::forward<BoxSpace::Link * &>, COMDAT

; 78   : 	{	// forward _Arg, given explicitly specified type parameter

  00000	55		 push	 ebp
  00001	8b ec		 mov	 ebp, esp

; 79   : 	return ((_Ty&&)_Arg);

  00003	8b 45 08	 mov	 eax, DWORD PTR __Arg$[ebp]

; 80   : 	}

  00006	5d		 pop	 ebp
  00007	c3		 ret	 0
??$forward@AAPAULink@BoxSpace@@@std@@YAAAPAULink@BoxSpace@@AAPAU12@@Z ENDP ; std::forward<BoxSpace::Link * &>
_TEXT	ENDS
PUBLIC	??D?$_Temp_iterator@ULink@BoxSpace@@@std@@QAEAAV01@XZ ; std::_Temp_iterator<BoxSpace::Link>::operator*
; Function compile flags: /Ogsp
; File c:\program files (x86)\microsoft visual studio 10.0\vc\include\memory
;	COMDAT ??D?$_Temp_iterator@ULink@BoxSpace@@@std@@QAEAAV01@XZ
_TEXT	SEGMENT
??D?$_Temp_iterator@ULink@BoxSpace@@@std@@QAEAAV01@XZ PROC ; std::_Temp_iterator<BoxSpace::Link>::operator*, COMDAT
; _this$ = ecx

; 790  : 		{	// pretend to return designated value

  00000	8b c1		 mov	 eax, ecx

; 791  : 		return (*this);
; 792  : 		}

  00002	c3		 ret	 0
??D?$_Temp_iterator@ULink@BoxSpace@@@std@@QAEAAV01@XZ ENDP ; std::_Temp_iterator<BoxSpace::Link>::operator*
_TEXT	ENDS
PUBLIC	??E?$_Temp_iterator@ULink@BoxSpace@@@std@@QAEAAV01@XZ ; std::_Temp_iterator<BoxSpace::Link>::operator++
; Function compile flags: /Ogsp
;	COMDAT ??E?$_Temp_iterator@ULink@BoxSpace@@@std@@QAEAAV01@XZ
_TEXT	SEGMENT
??E?$_Temp_iterator@ULink@BoxSpace@@@std@@QAEAAV01@XZ PROC ; std::_Temp_iterator<BoxSpace::Link>::operator++, COMDAT
; _this$ = ecx

; 795  : 		{	// pretend to preincrement

  00000	8b c1		 mov	 eax, ecx

; 796  : 		return (*this);
; 797  : 		}

  00002	c3		 ret	 0
??E?$_Temp_iterator@ULink@BoxSpace@@@std@@QAEAAV01@XZ ENDP ; std::_Temp_iterator<BoxSpace::Link>::operator++
_TEXT	ENDS
PUBLIC	??$move@AAULink@BoxSpace@@@std@@YA$$QAULink@BoxSpace@@AAU12@@Z ; std::move<BoxSpace::Link &>
; Function compile flags: /Ogsp
; File c:\program files (x86)\microsoft visual studio 10.0\vc\include\utility
;	COMDAT ??$move@AAULink@BoxSpace@@@std@@YA$$QAULink@BoxSpace@@AAU12@@Z
_TEXT	SEGMENT
__Arg$ = 8						; size = 4
??$move@AAULink@BoxSpace@@@std@@YA$$QAULink@BoxSpace@@AAU12@@Z PROC ; std::move<BoxSpace::Link &>, COMDAT

; 86   : 	{	// forward _Arg as movable

  00000	55		 push	 ebp
  00001	8b ec		 mov	 ebp, esp

; 87   : 	return ((typename tr1::_Remove_reference<_Ty>::_Type&&)_Arg);

  00003	8b 45 08	 mov	 eax, DWORD PTR __Arg$[ebp]

; 88   : 	}

  00006	5d		 pop	 ebp
  00007	c3		 ret	 0
??$move@AAULink@BoxSpace@@@std@@YA$$QAULink@BoxSpace@@AAU12@@Z ENDP ; std::move<BoxSpace::Link &>
_TEXT	ENDS
PUBLIC	??$distance@PAULink@BoxSpace@@@std@@YAHPAULink@BoxSpace@@0@Z ; std::distance<BoxSpace::Link *>
; Function compile flags: /Ogsp
; File c:\program files (x86)\microsoft visual studio 10.0\vc\include\xutility
;	COMDAT ??$distance@PAULink@BoxSpace@@@std@@YAHPAULink@BoxSpace@@0@Z
_TEXT	SEGMENT
__First$ = 8						; size = 4
__Last$ = 12						; size = 4
??$distance@PAULink@BoxSpace@@@std@@YAHPAULink@BoxSpace@@0@Z PROC ; std::distance<BoxSpace::Link *>, COMDAT

; 900  : 	{	// return distance between iterators

  00000	55		 push	 ebp
  00001	8b ec		 mov	 ebp, esp

; 901  : 	typename iterator_traits<_InIt>::difference_type _Off = 0;
; 902  : 	_Distance2(_First, _Last, _Off, _Iter_cat(_First));

  00003	8b 45 0c	 mov	 eax, DWORD PTR __Last$[ebp]
  00006	2b 45 08	 sub	 eax, DWORD PTR __First$[ebp]
  00009	c1 f8 05	 sar	 eax, 5

; 903  : 	return (_Off);
; 904  : 	}

  0000c	5d		 pop	 ebp
  0000d	c3		 ret	 0
??$distance@PAULink@BoxSpace@@@std@@YAHPAULink@BoxSpace@@0@Z ENDP ; std::distance<BoxSpace::Link *>
_TEXT	ENDS
PUBLIC	??$_Construct@ULink@BoxSpace@@U12@@std@@YAXPAULink@BoxSpace@@$$QAU12@@Z ; std::_Construct<BoxSpace::Link,BoxSpace::Link>
; Function compile flags: /Ogsp
; File c:\program files (x86)\microsoft visual studio 10.0\vc\include\xmemory
;	COMDAT ??$_Construct@ULink@BoxSpace@@U12@@std@@YAXPAULink@BoxSpace@@$$QAU12@@Z
_TEXT	SEGMENT
__Ptr$ = 8						; size = 4
__Val$ = 12						; size = 4
??$_Construct@ULink@BoxSpace@@U12@@std@@YAXPAULink@BoxSpace@@$$QAU12@@Z PROC ; std::_Construct<BoxSpace::Link,BoxSpace::Link>, COMDAT

; 46   : 	{	// construct object at _Ptr with value _Val

  00000	55		 push	 ebp
  00001	8b ec		 mov	 ebp, esp
  00003	57		 push	 edi

; 47   : 	void _FARQ *_Vptr = _Ptr;
; 48   : 	::new (_Vptr) _Ty1(_STD forward<_Ty2>(_Val));

  00004	8b 7d 08	 mov	 edi, DWORD PTR __Ptr$[ebp]
  00007	85 ff		 test	 edi, edi
  00009	74 0a		 je	 SHORT $LN3@Construct@4
  0000b	56		 push	 esi
  0000c	8b 75 0c	 mov	 esi, DWORD PTR __Val$[ebp]
  0000f	6a 08		 push	 8
  00011	59		 pop	 ecx
  00012	f3 a5		 rep movsd
  00014	5e		 pop	 esi
$LN3@Construct@4:
  00015	5f		 pop	 edi

; 49   : 	}

  00016	5d		 pop	 ebp
  00017	c3		 ret	 0
??$_Construct@ULink@BoxSpace@@U12@@std@@YAXPAULink@BoxSpace@@$$QAU12@@Z ENDP ; std::_Construct<BoxSpace::Link,BoxSpace::Link>
_TEXT	ENDS
PUBLIC	??0D3DXVECTOR3@@QAE@XZ				; D3DXVECTOR3::D3DXVECTOR3
; Function compile flags: /Ogsp
; File c:\program files (x86)\microsoft directx sdk (june 2010)\include\d3dx9math.h
;	COMDAT ??0D3DXVECTOR3@@QAE@XZ
_TEXT	SEGMENT
??0D3DXVECTOR3@@QAE@XZ PROC				; D3DXVECTOR3::D3DXVECTOR3, COMDAT
; _this$ = ecx

; 165  :     D3DXVECTOR3() {};

  00000	8b c1		 mov	 eax, ecx
  00002	c3		 ret	 0
??0D3DXVECTOR3@@QAE@XZ ENDP				; D3DXVECTOR3::D3DXVECTOR3
_TEXT	ENDS
PUBLIC	?isGoal@BoxSpace@@AAE_NPAXPAUBox@1@@Z		; BoxSpace::isGoal
; Function compile flags: /Ogsp
; File d:\lost saga for developer\youtube\tutorial\source\src\lsclient\boxgraph.h
;	COMDAT ?isGoal@BoxSpace@@AAE_NPAXPAUBox@1@@Z
_TEXT	SEGMENT
_pCaller$ = 8						; size = 4
_pNode$ = 12						; size = 4
?isGoal@BoxSpace@@AAE_NPAXPAUBox@1@@Z PROC		; BoxSpace::isGoal, COMDAT
; _this$ = ecx

; 118  : 	inline bool  isGoal( void* pCaller, Box* pNode )									{ return pNode == m_pGoal; }

  00000	55		 push	 ebp
  00001	8b ec		 mov	 ebp, esp
  00003	8b 55 0c	 mov	 edx, DWORD PTR _pNode$[ebp]
  00006	33 c0		 xor	 eax, eax
  00008	3b 51 54	 cmp	 edx, DWORD PTR [ecx+84]
  0000b	0f 94 c0	 sete	 al
  0000e	5d		 pop	 ebp
  0000f	c2 08 00	 ret	 8
?isGoal@BoxSpace@@AAE_NPAXPAUBox@1@@Z ENDP		; BoxSpace::isGoal
_TEXT	ENDS
PUBLIC	?setInfo@BoxSpace@@AAEXPAXPAUBox@1@0@Z		; BoxSpace::setInfo
; Function compile flags: /Ogsp
;	COMDAT ?setInfo@BoxSpace@@AAEXPAXPAUBox@1@0@Z
_TEXT	SEGMENT
_pCaller$ = 8						; size = 4
_pNode$ = 12						; size = 4
_ptr$ = 16						; size = 4
?setInfo@BoxSpace@@AAEXPAXPAUBox@1@0@Z PROC		; BoxSpace::setInfo, COMDAT
; _this$ = ecx

; 119  : 	inline void  setInfo( void* pCaller, Box* pNode, void* ptr )						{ pNode->pAStarInfo = ptr; }

  00000	55		 push	 ebp
  00001	8b ec		 mov	 ebp, esp
  00003	8b 45 10	 mov	 eax, DWORD PTR _ptr$[ebp]
  00006	8b 4d 0c	 mov	 ecx, DWORD PTR _pNode$[ebp]
  00009	89 41 54	 mov	 DWORD PTR [ecx+84], eax
  0000c	5d		 pop	 ebp
  0000d	c2 0c 00	 ret	 12			; 0000000cH
?setInfo@BoxSpace@@AAEXPAXPAUBox@1@0@Z ENDP		; BoxSpace::setInfo
_TEXT	ENDS
PUBLIC	?getInfo@BoxSpace@@AAEPAXPAXPAUBox@1@@Z		; BoxSpace::getInfo
; Function compile flags: /Ogsp
;	COMDAT ?getInfo@BoxSpace@@AAEPAXPAXPAUBox@1@@Z
_TEXT	SEGMENT
_pCaller$ = 8						; size = 4
_pNode$ = 12						; size = 4
?getInfo@BoxSpace@@AAEPAXPAXPAUBox@1@@Z PROC		; BoxSpace::getInfo, COMDAT
; _this$ = ecx

; 120  : 	inline void* getInfo( void* pCaller, Box* pNode )									{ return pNode->pAStarInfo; }

  00000	55		 push	 ebp
  00001	8b ec		 mov	 ebp, esp
  00003	8b 45 0c	 mov	 eax, DWORD PTR _pNode$[ebp]
  00006	8b 40 54	 mov	 eax, DWORD PTR [eax+84]
  00009	5d		 pop	 ebp
  0000a	c2 08 00	 ret	 8
?getInfo@BoxSpace@@AAEPAXPAXPAUBox@1@@Z ENDP		; BoxSpace::getInfo
_TEXT	ENDS
PUBLIC	?size@?$basic_string@DU?$char_traits@D@std@@V?$allocator@D@2@@std@@QBEIXZ ; std::basic_string<char,std::char_traits<char>,std::allocator<char> >::size
; Function compile flags: /Ogsp
; File c:\program files (x86)\microsoft visual studio 10.0\vc\include\xstring
;	COMDAT ?size@?$basic_string@DU?$char_traits@D@std@@V?$allocator@D@2@@std@@QBEIXZ
_TEXT	SEGMENT
?size@?$basic_string@DU?$char_traits@D@std@@V?$allocator@D@2@@std@@QBEIXZ PROC ; std::basic_string<char,std::char_traits<char>,std::allocator<char> >::size, COMDAT
; _this$ = ecx

; 1512 : 		return (this->_Mysize);

  00000	8b 41 10	 mov	 eax, DWORD PTR [ecx+16]

; 1513 : 		}

  00003	c3		 ret	 0
?size@?$basic_string@DU?$char_traits@D@std@@V?$allocator@D@2@@std@@QBEIXZ ENDP ; std::basic_string<char,std::char_traits<char>,std::allocator<char> >::size
_TEXT	ENDS
PUBLIC	?size@?$vector@UBox@BoxSpace@@V?$allocator@UBox@BoxSpace@@@std@@@std@@QBEIXZ ; std::vector<BoxSpace::Box,std::allocator<BoxSpace::Box> >::size
; Function compile flags: /Ogsp
; File c:\program files (x86)\microsoft visual studio 10.0\vc\include\vector
;	COMDAT ?size@?$vector@UBox@BoxSpace@@V?$allocator@UBox@BoxSpace@@@std@@@std@@QBEIXZ
_TEXT	SEGMENT
?size@?$vector@UBox@BoxSpace@@V?$allocator@UBox@BoxSpace@@@std@@@std@@QBEIXZ PROC ; std::vector<BoxSpace::Box,std::allocator<BoxSpace::Box> >::size, COMDAT
; _this$ = ecx

; 879  : 		return (this->_Mylast - this->_Myfirst);

  00000	8b 41 04	 mov	 eax, DWORD PTR [ecx+4]
  00003	2b 01		 sub	 eax, DWORD PTR [ecx]
  00005	6a 58		 push	 88			; 00000058H
  00007	99		 cdq
  00008	59		 pop	 ecx
  00009	f7 f9		 idiv	 ecx

; 880  : 		}

  0000b	c3		 ret	 0
?size@?$vector@UBox@BoxSpace@@V?$allocator@UBox@BoxSpace@@@std@@@std@@QBEIXZ ENDP ; std::vector<BoxSpace::Box,std::allocator<BoxSpace::Box> >::size
_TEXT	ENDS
PUBLIC	??A?$vector@UBox@BoxSpace@@V?$allocator@UBox@BoxSpace@@@std@@@std@@QBEABUBox@BoxSpace@@I@Z ; std::vector<BoxSpace::Box,std::allocator<BoxSpace::Box> >::operator[]
; Function compile flags: /Ogsp
;	COMDAT ??A?$vector@UBox@BoxSpace@@V?$allocator@UBox@BoxSpace@@@std@@@std@@QBEABUBox@BoxSpace@@I@Z
_TEXT	SEGMENT
__Pos$ = 8						; size = 4
??A?$vector@UBox@BoxSpace@@V?$allocator@UBox@BoxSpace@@@std@@@std@@QBEABUBox@BoxSpace@@I@Z PROC ; std::vector<BoxSpace::Box,std::allocator<BoxSpace::Box> >::operator[], COMDAT
; _this$ = ecx

; 912  : 		{	// subscript nonmutable sequence

  00000	55		 push	 ebp
  00001	8b ec		 mov	 ebp, esp

; 913  :  #if _ITERATOR_DEBUG_LEVEL == 2
; 914  : 		if (size() <= _Pos)
; 915  : 			{	// report error
; 916  : 			_DEBUG_ERROR("vector subscript out of range");
; 917  : 			_SCL_SECURE_OUT_OF_RANGE;
; 918  : 			}
; 919  : 
; 920  :  #elif _ITERATOR_DEBUG_LEVEL == 1
; 921  : 		_SCL_SECURE_VALIDATE_RANGE(_Pos < size());
; 922  :  #endif /* _ITERATOR_DEBUG_LEVEL */
; 923  : 
; 924  : 		return (*(this->_Myfirst + _Pos));

  00003	8b 45 08	 mov	 eax, DWORD PTR __Pos$[ebp]
  00006	6b c0 58	 imul	 eax, 88			; 00000058H
  00009	03 01		 add	 eax, DWORD PTR [ecx]

; 925  : 		}

  0000b	5d		 pop	 ebp
  0000c	c2 04 00	 ret	 4
??A?$vector@UBox@BoxSpace@@V?$allocator@UBox@BoxSpace@@@std@@@std@@QBEABUBox@BoxSpace@@I@Z ENDP ; std::vector<BoxSpace::Box,std::allocator<BoxSpace::Box> >::operator[]
_TEXT	ENDS
PUBLIC	?_Myptr@?$basic_string@DU?$char_traits@D@std@@V?$allocator@D@2@@std@@QBEPBDXZ ; std::basic_string<char,std::char_traits<char>,std::allocator<char> >::_Myptr
; Function compile flags: /Ogsp
; File c:\program files (x86)\microsoft visual studio 10.0\vc\include\xstring
;	COMDAT ?_Myptr@?$basic_string@DU?$char_traits@D@std@@V?$allocator@D@2@@std@@QBEPBDXZ
_TEXT	SEGMENT
?_Myptr@?$basic_string@DU?$char_traits@D@std@@V?$allocator@D@2@@std@@QBEPBDXZ PROC ; std::basic_string<char,std::char_traits<char>,std::allocator<char> >::_Myptr, COMDAT
; _this$ = ecx

; 2010 : 		return (this->_BUF_SIZE <= this->_Myres ? this->_Bx._Ptr
; 2011 : 			: this->_Bx._Buf);

  00000	83 79 14 10	 cmp	 DWORD PTR [ecx+20], 16	; 00000010H
  00004	72 03		 jb	 SHORT $LN3@Myptr
  00006	8b 01		 mov	 eax, DWORD PTR [ecx]

; 2012 : 		}

  00008	c3		 ret	 0
$LN3@Myptr:

; 2010 : 		return (this->_BUF_SIZE <= this->_Myres ? this->_Bx._Ptr
; 2011 : 			: this->_Bx._Buf);

  00009	8b c1		 mov	 eax, ecx

; 2012 : 		}

  0000b	c3		 ret	 0
?_Myptr@?$basic_string@DU?$char_traits@D@std@@V?$allocator@D@2@@std@@QBEPBDXZ ENDP ; std::basic_string<char,std::char_traits<char>,std::allocator<char> >::_Myptr
_TEXT	ENDS
PUBLIC	??1?$_String_val@DV?$allocator@D@std@@@std@@QAE@XZ ; std::_String_val<char,std::allocator<char> >::~_String_val<char,std::allocator<char> >
; Function compile flags: /Ogsp
;	COMDAT ??1?$_String_val@DV?$allocator@D@std@@@std@@QAE@XZ
_TEXT	SEGMENT
??1?$_String_val@DV?$allocator@D@std@@@std@@QAE@XZ PROC	; std::_String_val<char,std::allocator<char> >::~_String_val<char,std::allocator<char> >, COMDAT
; _this$ = ecx

; 459  : 		}

  00000	c3		 ret	 0
??1?$_String_val@DV?$allocator@D@std@@@std@@QAE@XZ ENDP	; std::_String_val<char,std::allocator<char> >::~_String_val<char,std::allocator<char> >
_TEXT	ENDS
PUBLIC	??0?$allocator@D@std@@QAE@XZ			; std::allocator<char>::allocator<char>
; Function compile flags: /Ogsp
; File c:\program files (x86)\microsoft visual studio 10.0\vc\include\xmemory
;	COMDAT ??0?$allocator@D@std@@QAE@XZ
_TEXT	SEGMENT
??0?$allocator@D@std@@QAE@XZ PROC			; std::allocator<char>::allocator<char>, COMDAT
; _this$ = ecx

; 161  : 	_ALLOCATOR() _THROW0()

  00000	8b c1		 mov	 eax, ecx

; 162  : 		{	// construct default allocator (do nothing)
; 163  : 		}

  00002	c3		 ret	 0
??0?$allocator@D@std@@QAE@XZ ENDP			; std::allocator<char>::allocator<char>
_TEXT	ENDS
PUBLIC	??0?$allocator@D@std@@QAE@ABV01@@Z		; std::allocator<char>::allocator<char>
; Function compile flags: /Ogsp
;	COMDAT ??0?$allocator@D@std@@QAE@ABV01@@Z
_TEXT	SEGMENT
___formal$ = 8						; size = 4
??0?$allocator@D@std@@QAE@ABV01@@Z PROC			; std::allocator<char>::allocator<char>, COMDAT
; _this$ = ecx

; 165  : 	_ALLOCATOR(const _ALLOCATOR<_Ty>&) _THROW0()

  00000	8b c1		 mov	 eax, ecx

; 166  : 		{	// construct by copying (do nothing)
; 167  : 		}

  00002	c2 04 00	 ret	 4
??0?$allocator@D@std@@QAE@ABV01@@Z ENDP			; std::allocator<char>::allocator<char>
_TEXT	ENDS
PUBLIC	?get_allocator@?$basic_string@DU?$char_traits@D@std@@V?$allocator@D@2@@std@@QBE?AV?$allocator@D@2@XZ ; std::basic_string<char,std::char_traits<char>,std::allocator<char> >::get_allocator
; Function compile flags: /Ogsp
; File c:\program files (x86)\microsoft visual studio 10.0\vc\include\xstring
;	COMDAT ?get_allocator@?$basic_string@DU?$char_traits@D@std@@V?$allocator@D@2@@std@@QBE?AV?$allocator@D@2@XZ
_TEXT	SEGMENT
___$ReturnUdt$ = 8					; size = 4
?get_allocator@?$basic_string@DU?$char_traits@D@std@@V?$allocator@D@2@@std@@QBE?AV?$allocator@D@2@XZ PROC ; std::basic_string<char,std::char_traits<char>,std::allocator<char> >::get_allocator, COMDAT
; _this$ = ecx

; 1906 : 		{	// return allocator object for values

  00000	55		 push	 ebp
  00001	8b ec		 mov	 ebp, esp

; 1907 : 		return (this->_Alval);

  00003	8b 45 08	 mov	 eax, DWORD PTR ___$ReturnUdt$[ebp]

; 1908 : 		}

  00006	5d		 pop	 ebp
  00007	c2 04 00	 ret	 4
?get_allocator@?$basic_string@DU?$char_traits@D@std@@V?$allocator@D@2@@std@@QBE?AV?$allocator@D@2@XZ ENDP ; std::basic_string<char,std::char_traits<char>,std::allocator<char> >::get_allocator
_TEXT	ENDS
PUBLIC	?_Myptr@?$basic_string@DU?$char_traits@D@std@@V?$allocator@D@2@@std@@QAEPADXZ ; std::basic_string<char,std::char_traits<char>,std::allocator<char> >::_Myptr
; Function compile flags: /Ogsp
;	COMDAT ?_Myptr@?$basic_string@DU?$char_traits@D@std@@V?$allocator@D@2@@std@@QAEPADXZ
_TEXT	SEGMENT
?_Myptr@?$basic_string@DU?$char_traits@D@std@@V?$allocator@D@2@@std@@QAEPADXZ PROC ; std::basic_string<char,std::char_traits<char>,std::allocator<char> >::_Myptr, COMDAT
; _this$ = ecx

; 2004 : 		return (this->_BUF_SIZE <= this->_Myres ? this->_Bx._Ptr
; 2005 : 			: this->_Bx._Buf);

  00000	83 79 14 10	 cmp	 DWORD PTR [ecx+20], 16	; 00000010H
  00004	72 03		 jb	 SHORT $LN3@Myptr@2
  00006	8b 01		 mov	 eax, DWORD PTR [ecx]

; 2006 : 		}

  00008	c3		 ret	 0
$LN3@Myptr@2:

; 2004 : 		return (this->_BUF_SIZE <= this->_Myres ? this->_Bx._Ptr
; 2005 : 			: this->_Bx._Buf);

  00009	8b c1		 mov	 eax, ecx

; 2006 : 		}

  0000b	c3		 ret	 0
?_Myptr@?$basic_string@DU?$char_traits@D@std@@V?$allocator@D@2@@std@@QAEPADXZ ENDP ; std::basic_string<char,std::char_traits<char>,std::allocator<char> >::_Myptr
_TEXT	ENDS
PUBLIC	??_C@_0BA@JFNIOLAK@string?5too?5long?$AA@	; `string'
PUBLIC	?_Xlen@?$basic_string@DU?$char_traits@D@std@@V?$allocator@D@2@@std@@QBEXXZ ; std::basic_string<char,std::char_traits<char>,std::allocator<char> >::_Xlen
;	COMDAT ??_C@_0BA@JFNIOLAK@string?5too?5long?$AA@
CONST	SEGMENT
??_C@_0BA@JFNIOLAK@string?5too?5long?$AA@ DB 'string too long', 00H ; `string'
; Function compile flags: /Ogsp
CONST	ENDS
;	COMDAT ?_Xlen@?$basic_string@DU?$char_traits@D@std@@V?$allocator@D@2@@std@@QBEXXZ
_TEXT	SEGMENT
?_Xlen@?$basic_string@DU?$char_traits@D@std@@V?$allocator@D@2@@std@@QBEXXZ PROC ; std::basic_string<char,std::char_traits<char>,std::allocator<char> >::_Xlen, COMDAT
; _this$ = ecx

; 2016 : 		_Xlength_error("string too long");

  00000	68 00 00 00 00	 push	 OFFSET ??_C@_0BA@JFNIOLAK@string?5too?5long?$AA@
  00005	ff 15 00 00 00
	00		 call	 DWORD PTR __imp_?_Xlength_error@std@@YAXPBD@Z
$LN4@Xlen@6:
$LN3@Xlen@6:
  0000b	cc		 int	 3
?_Xlen@?$basic_string@DU?$char_traits@D@std@@V?$allocator@D@2@@std@@QBEXXZ ENDP ; std::basic_string<char,std::char_traits<char>,std::allocator<char> >::_Xlen
_TEXT	ENDS
PUBLIC	??_C@_0BI@CFPLBAOH@invalid?5string?5position?$AA@ ; `string'
PUBLIC	?_Xran@?$basic_string@DU?$char_traits@D@std@@V?$allocator@D@2@@std@@QBEXXZ ; std::basic_string<char,std::char_traits<char>,std::allocator<char> >::_Xran
EXTRN	__imp_?_Xout_of_range@std@@YAXPBD@Z:PROC
;	COMDAT ??_C@_0BI@CFPLBAOH@invalid?5string?5position?$AA@
CONST	SEGMENT
??_C@_0BI@CFPLBAOH@invalid?5string?5position?$AA@ DB 'invalid string posi'
	DB	'tion', 00H					; `string'
; Function compile flags: /Ogsp
CONST	ENDS
;	COMDAT ?_Xran@?$basic_string@DU?$char_traits@D@std@@V?$allocator@D@2@@std@@QBEXXZ
_TEXT	SEGMENT
?_Xran@?$basic_string@DU?$char_traits@D@std@@V?$allocator@D@2@@std@@QBEXXZ PROC ; std::basic_string<char,std::char_traits<char>,std::allocator<char> >::_Xran, COMDAT
; _this$ = ecx

; 2021 : 		_Xout_of_range("invalid string position");

  00000	68 00 00 00 00	 push	 OFFSET ??_C@_0BI@CFPLBAOH@invalid?5string?5position?$AA@
  00005	ff 15 00 00 00
	00		 call	 DWORD PTR __imp_?_Xout_of_range@std@@YAXPBD@Z
$LN4@Xran:
$LN3@Xran:
  0000b	cc		 int	 3
?_Xran@?$basic_string@DU?$char_traits@D@std@@V?$allocator@D@2@@std@@QBEXXZ ENDP ; std::basic_string<char,std::char_traits<char>,std::allocator<char> >::_Xran
_TEXT	ENDS
PUBLIC	?deallocate@?$allocator@D@std@@QAEXPADI@Z	; std::allocator<char>::deallocate
; Function compile flags: /Ogsp
; File c:\program files (x86)\microsoft visual studio 10.0\vc\include\xmemory
;	COMDAT ?deallocate@?$allocator@D@std@@QAEXPADI@Z
_TEXT	SEGMENT
__Ptr$ = 8						; size = 4
___formal$ = 12						; size = 4
?deallocate@?$allocator@D@std@@QAEXPADI@Z PROC		; std::allocator<char>::deallocate, COMDAT
; _this$ = ecx

; 181  : 		{	// deallocate object at _Ptr, ignore size

  00000	55		 push	 ebp
  00001	8b ec		 mov	 ebp, esp

; 182  : 		::operator delete(_Ptr);

  00003	ff 75 08	 push	 DWORD PTR __Ptr$[ebp]
  00006	e8 00 00 00 00	 call	 ??3@YAXPAX@Z		; operator delete
  0000b	59		 pop	 ecx

; 183  : 		}

  0000c	5d		 pop	 ebp
  0000d	c2 08 00	 ret	 8
?deallocate@?$allocator@D@std@@QAEXPADI@Z ENDP		; std::allocator<char>::deallocate
_TEXT	ENDS
PUBLIC	?deallocate@?$allocator@F@std@@QAEXPAFI@Z	; std::allocator<short>::deallocate
; Function compile flags: /Ogsp
;	COMDAT ?deallocate@?$allocator@F@std@@QAEXPAFI@Z
_TEXT	SEGMENT
__Ptr$ = 8						; size = 4
___formal$ = 12						; size = 4
?deallocate@?$allocator@F@std@@QAEXPAFI@Z PROC		; std::allocator<short>::deallocate, COMDAT
; _this$ = ecx

; 181  : 		{	// deallocate object at _Ptr, ignore size

  00000	55		 push	 ebp
  00001	8b ec		 mov	 ebp, esp

; 182  : 		::operator delete(_Ptr);

  00003	ff 75 08	 push	 DWORD PTR __Ptr$[ebp]
  00006	e8 00 00 00 00	 call	 ??3@YAXPAX@Z		; operator delete
  0000b	59		 pop	 ecx

; 183  : 		}

  0000c	5d		 pop	 ebp
  0000d	c2 08 00	 ret	 8
?deallocate@?$allocator@F@std@@QAEXPAFI@Z ENDP		; std::allocator<short>::deallocate
_TEXT	ENDS
PUBLIC	?deallocate@?$allocator@UBox@BoxSpace@@@std@@QAEXPAUBox@BoxSpace@@I@Z ; std::allocator<BoxSpace::Box>::deallocate
; Function compile flags: /Ogsp
;	COMDAT ?deallocate@?$allocator@UBox@BoxSpace@@@std@@QAEXPAUBox@BoxSpace@@I@Z
_TEXT	SEGMENT
__Ptr$ = 8						; size = 4
___formal$ = 12						; size = 4
?deallocate@?$allocator@UBox@BoxSpace@@@std@@QAEXPAUBox@BoxSpace@@I@Z PROC ; std::allocator<BoxSpace::Box>::deallocate, COMDAT
; _this$ = ecx

; 181  : 		{	// deallocate object at _Ptr, ignore size

  00000	55		 push	 ebp
  00001	8b ec		 mov	 ebp, esp

; 182  : 		::operator delete(_Ptr);

  00003	ff 75 08	 push	 DWORD PTR __Ptr$[ebp]
  00006	e8 00 00 00 00	 call	 ??3@YAXPAX@Z		; operator delete
  0000b	59		 pop	 ecx

; 183  : 		}

  0000c	5d		 pop	 ebp
  0000d	c2 08 00	 ret	 8
?deallocate@?$allocator@UBox@BoxSpace@@@std@@QAEXPAUBox@BoxSpace@@I@Z ENDP ; std::allocator<BoxSpace::Box>::deallocate
_TEXT	ENDS
PUBLIC	??0TBlock@?$uni_heap@$0BE@$0IA@@@QAE@XZ		; uni_heap<20,128>::TBlock::TBlock
; Function compile flags: /Ogsp
; File d:\lost saga for developer\youtube\tutorial\source\src\lsclient\uniheap.h
;	COMDAT ??0TBlock@?$uni_heap@$0BE@$0IA@@@QAE@XZ
_TEXT	SEGMENT
??0TBlock@?$uni_heap@$0BE@$0IA@@@QAE@XZ PROC		; uni_heap<20,128>::TBlock::TBlock, COMDAT
; _this$ = ecx

; 168  : 		TBlock() {

  00000	8b c1		 mov	 eax, ecx

; 169  : 			firstFree = 0;

  00002	33 c9		 xor	 ecx, ecx
  00004	66 89 88 00 0b
	00 00		 mov	 WORD PTR [eax+2816], cx

; 170  : 			count = 0;

  0000b	66 89 88 02 0b
	00 00		 mov	 WORD PTR [eax+2818], cx

; 171  : 			for ( int i = 0; i < BLOCK_SIZE; i++ ) 

  00012	33 d2		 xor	 edx, edx
  00014	8d 88 00 0a 00
	00		 lea	 ecx, DWORD PTR [eax+2560]
  0001a	56		 push	 esi
$LL3@TBlock:

; 172  : 				freeLink[i] = i+1;

  0001b	8d 72 01	 lea	 esi, DWORD PTR [edx+1]
  0001e	66 89 31	 mov	 WORD PTR [ecx], si
  00021	42		 inc	 edx
  00022	83 c1 02	 add	 ecx, 2
  00025	81 fa 80 00 00
	00		 cmp	 edx, 128		; 00000080H
  0002b	7c ee		 jl	 SHORT $LL3@TBlock
  0002d	5e		 pop	 esi

; 173  : 		}

  0002e	c3		 ret	 0
??0TBlock@?$uni_heap@$0BE@$0IA@@@QAE@XZ ENDP		; uni_heap<20,128>::TBlock::TBlock
_TEXT	ENDS
PUBLIC	?_Inside@?$basic_string@DU?$char_traits@D@std@@V?$allocator@D@2@@std@@QAE_NPBD@Z ; std::basic_string<char,std::char_traits<char>,std::allocator<char> >::_Inside
; Function compile flags: /Ogsp
; File c:\program files (x86)\microsoft visual studio 10.0\vc\include\xstring
;	COMDAT ?_Inside@?$basic_string@DU?$char_traits@D@std@@V?$allocator@D@2@@std@@QAE_NPBD@Z
_TEXT	SEGMENT
__Ptr$ = 8						; size = 4
?_Inside@?$basic_string@DU?$char_traits@D@std@@V?$allocator@D@2@@std@@QAE_NPBD@Z PROC ; std::basic_string<char,std::char_traits<char>,std::allocator<char> >::_Inside, COMDAT
; _this$ = ecx

; 1973 : 		{	// test if _Ptr points inside string

  00000	55		 push	 ebp
  00001	8b ec		 mov	 ebp, esp

; 1974 : 		if (_Ptr == 0 || _Ptr < _Myptr() || _Myptr() + this->_Mysize <= _Ptr)

  00003	83 7d 08 00	 cmp	 DWORD PTR __Ptr$[ebp], 0
  00007	74 2c		 je	 SHORT $LN2@Inside@6
  00009	8b 51 14	 mov	 edx, DWORD PTR [ecx+20]
  0000c	83 fa 10	 cmp	 edx, 16			; 00000010H
  0000f	72 04		 jb	 SHORT $LN8@Inside@6
  00011	8b 01		 mov	 eax, DWORD PTR [ecx]
  00013	eb 02		 jmp	 SHORT $LN9@Inside@6
$LN8@Inside@6:
  00015	8b c1		 mov	 eax, ecx
$LN9@Inside@6:
  00017	39 45 08	 cmp	 DWORD PTR __Ptr$[ebp], eax
  0001a	72 19		 jb	 SHORT $LN2@Inside@6
  0001c	83 fa 10	 cmp	 edx, 16			; 00000010H
  0001f	72 04		 jb	 SHORT $LN12@Inside@6
  00021	8b 01		 mov	 eax, DWORD PTR [ecx]
  00023	eb 02		 jmp	 SHORT $LN13@Inside@6
$LN12@Inside@6:
  00025	8b c1		 mov	 eax, ecx
$LN13@Inside@6:
  00027	8b 49 10	 mov	 ecx, DWORD PTR [ecx+16]
  0002a	03 c8		 add	 ecx, eax
  0002c	3b 4d 08	 cmp	 ecx, DWORD PTR __Ptr$[ebp]
  0002f	76 04		 jbe	 SHORT $LN2@Inside@6

; 1976 : 		else
; 1977 : 			return (true);

  00031	b0 01		 mov	 al, 1
  00033	eb 02		 jmp	 SHORT $LN1@Inside@6
$LN2@Inside@6:

; 1975 : 			return (false);	// don't ask

  00035	32 c0		 xor	 al, al
$LN1@Inside@6:

; 1978 : 		}

  00037	5d		 pop	 ebp
  00038	c2 04 00	 ret	 4
?_Inside@?$basic_string@DU?$char_traits@D@std@@V?$allocator@D@2@@std@@QAE_NPBD@Z ENDP ; std::basic_string<char,std::char_traits<char>,std::allocator<char> >::_Inside
_TEXT	ENDS
PUBLIC	?get_next_occupied_index_from_block@?$uni_heap@$0BE@$0IA@@@IAEHPAUTBlock@1@H@Z ; uni_heap<20,128>::get_next_occupied_index_from_block
; Function compile flags: /Ogsp
; File d:\lost saga for developer\youtube\tutorial\source\src\lsclient\uniheap.h
;	COMDAT ?get_next_occupied_index_from_block@?$uni_heap@$0BE@$0IA@@@IAEHPAUTBlock@1@H@Z
_TEXT	SEGMENT
_block$ = 8						; size = 4
_start_index$ = 12					; size = 4
?get_next_occupied_index_from_block@?$uni_heap@$0BE@$0IA@@@IAEHPAUTBlock@1@H@Z PROC ; uni_heap<20,128>::get_next_occupied_index_from_block, COMDAT
; _this$ = ecx

; 224  : 	{

  00000	55		 push	 ebp
  00001	8b ec		 mov	 ebp, esp

; 225  : 		for (; start_index < BLOCK_SIZE; start_index++ )

  00003	8b 45 0c	 mov	 eax, DWORD PTR _start_index$[ebp]
  00006	b9 80 00 00 00	 mov	 ecx, 128		; 00000080H
  0000b	3b c1		 cmp	 eax, ecx
  0000d	7d 18		 jge	 SHORT $LN2@get_next_o
  0000f	8b 55 08	 mov	 edx, DWORD PTR _block$[ebp]
  00012	8d 94 42 00 0a
	00 00		 lea	 edx, DWORD PTR [edx+eax*2+2560]
$LL4@get_next_o:

; 226  : 			if ( block->freeLink[ start_index ] == OCCUPIED )

  00019	66 83 3a ff	 cmp	 WORD PTR [edx], -1
  0001d	74 0b		 je	 SHORT $LN5@get_next_o

; 225  : 		for (; start_index < BLOCK_SIZE; start_index++ )

  0001f	40		 inc	 eax
  00020	83 c2 02	 add	 edx, 2
  00023	3b c1		 cmp	 eax, ecx
  00025	7c f2		 jl	 SHORT $LL4@get_next_o
$LN2@get_next_o:

; 227  : 				return start_index;
; 228  : 		return -1;

  00027	83 c8 ff	 or	 eax, -1
$LN5@get_next_o:

; 229  : 	}

  0002a	5d		 pop	 ebp
  0002b	c2 08 00	 ret	 8
?get_next_occupied_index_from_block@?$uni_heap@$0BE@$0IA@@@IAEHPAUTBlock@1@H@Z ENDP ; uni_heap<20,128>::get_next_occupied_index_from_block
_TEXT	ENDS
PUBLIC	?_Inside@?$vector@PAUTBlock@?$uni_heap@$0BE@$0IA@@@V?$allocator@PAUTBlock@?$uni_heap@$0BE@$0IA@@@@std@@@std@@IBE_NPBQAUTBlock@?$uni_heap@$0BE@$0IA@@@@Z ; std::vector<uni_heap<20,128>::TBlock *,std::allocator<uni_heap<20,128>::TBlock *> >::_Inside
; Function compile flags: /Ogsp
; File c:\program files (x86)\microsoft visual studio 10.0\vc\include\vector
;	COMDAT ?_Inside@?$vector@PAUTBlock@?$uni_heap@$0BE@$0IA@@@V?$allocator@PAUTBlock@?$uni_heap@$0BE@$0IA@@@@std@@@std@@IBE_NPBQAUTBlock@?$uni_heap@$0BE@$0IA@@@@Z
_TEXT	SEGMENT
__Ptr$ = 8						; size = 4
?_Inside@?$vector@PAUTBlock@?$uni_heap@$0BE@$0IA@@@V?$allocator@PAUTBlock@?$uni_heap@$0BE@$0IA@@@@std@@@std@@IBE_NPBQAUTBlock@?$uni_heap@$0BE@$0IA@@@@Z PROC ; std::vector<uni_heap<20,128>::TBlock *,std::allocator<uni_heap<20,128>::TBlock *> >::_Inside, COMDAT
; _this$ = ecx

; 1285 : 		{	// test if _Ptr points inside vector

  00000	55		 push	 ebp
  00001	8b ec		 mov	 ebp, esp

; 1286 : 		return (_Ptr < this->_Mylast && this->_Myfirst <= _Ptr);

  00003	8b 45 08	 mov	 eax, DWORD PTR __Ptr$[ebp]
  00006	3b 41 04	 cmp	 eax, DWORD PTR [ecx+4]
  00009	73 09		 jae	 SHORT $LN3@Inside@7
  0000b	39 01		 cmp	 DWORD PTR [ecx], eax
  0000d	77 05		 ja	 SHORT $LN3@Inside@7
  0000f	33 c0		 xor	 eax, eax
  00011	40		 inc	 eax
  00012	eb 02		 jmp	 SHORT $LN4@Inside@7
$LN3@Inside@7:
  00014	33 c0		 xor	 eax, eax
$LN4@Inside@7:

; 1287 : 		}

  00016	5d		 pop	 ebp
  00017	c2 04 00	 ret	 4
?_Inside@?$vector@PAUTBlock@?$uni_heap@$0BE@$0IA@@@V?$allocator@PAUTBlock@?$uni_heap@$0BE@$0IA@@@@std@@@std@@IBE_NPBQAUTBlock@?$uni_heap@$0BE@$0IA@@@@Z ENDP ; std::vector<uni_heap<20,128>::TBlock *,std::allocator<uni_heap<20,128>::TBlock *> >::_Inside
_TEXT	ENDS
PUBLIC	?_Orphan_range@?$vector@PAUTBlock@?$uni_heap@$0BE@$0IA@@@V?$allocator@PAUTBlock@?$uni_heap@$0BE@$0IA@@@@std@@@std@@IBEXPAPAUTBlock@?$uni_heap@$0BE@$0IA@@@0@Z ; std::vector<uni_heap<20,128>::TBlock *,std::allocator<uni_heap<20,128>::TBlock *> >::_Orphan_range
; Function compile flags: /Ogsp
;	COMDAT ?_Orphan_range@?$vector@PAUTBlock@?$uni_heap@$0BE@$0IA@@@V?$allocator@PAUTBlock@?$uni_heap@$0BE@$0IA@@@@std@@@std@@IBEXPAPAUTBlock@?$uni_heap@$0BE@$0IA@@@0@Z
_TEXT	SEGMENT
___formal$ = 8						; size = 4
___formal$ = 12						; size = 4
