; Listing generated by Microsoft (R) Optimizing Compiler Version 16.00.30319.01 

	TITLE	D:\Lost Saga For Developer\Youtube\Tutorial\Source\src\LSClient\GUI\CenterInfoWnd.cpp
	.686P
	.XMM
	include listing.inc
	.model	flat

INCLUDELIB MSVCRT
INCLUDELIB OLDNAMES

PUBLIC	?return1@@YAIXZ					; return1
; Function compile flags: /Ogsp
; File d:\lost saga for developer\youtube\tutorial\source\src\lsclient\stdafx.h
;	COMDAT ?return1@@YAIXZ
_TEXT	SEGMENT
?return1@@YAIXZ PROC					; return1, COMDAT

; 17   : 	__forceinline unsigned int return1() { __asm mov eax, 1 };

  00000	b8 01 00 00 00	 mov	 eax, 1
  00005	c3		 ret	 0
?return1@@YAIXZ ENDP					; return1
_TEXT	ENDS
PUBLIC	?return5@@YAIXZ					; return5
; Function compile flags: /Ogsp
;	COMDAT ?return5@@YAIXZ
_TEXT	SEGMENT
?return5@@YAIXZ PROC					; return5, COMDAT

; 18   : 	__forceinline unsigned int return5() { __asm mov eax, 5 };

  00000	b8 05 00 00 00	 mov	 eax, 5
  00005	c3		 ret	 0
?return5@@YAIXZ ENDP					; return5
_TEXT	ENDS
PUBLIC	?return8@@YAIXZ					; return8
; Function compile flags: /Ogsp
;	COMDAT ?return8@@YAIXZ
_TEXT	SEGMENT
?return8@@YAIXZ PROC					; return8, COMDAT

; 19   : 	__forceinline unsigned int return8() { __asm mov eax, 8 };

  00000	b8 08 00 00 00	 mov	 eax, 8
  00005	c3		 ret	 0
?return8@@YAIXZ ENDP					; return8
_TEXT	ENDS
PUBLIC	?return9@@YAIXZ					; return9
; Function compile flags: /Ogsp
;	COMDAT ?return9@@YAIXZ
_TEXT	SEGMENT
?return9@@YAIXZ PROC					; return9, COMDAT

; 20   : 	__forceinline unsigned int return9() { __asm mov eax, 9 };

  00000	b8 09 00 00 00	 mov	 eax, 9
  00005	c3		 ret	 0
?return9@@YAIXZ ENDP					; return9
_TEXT	ENDS
PUBLIC	?return10@@YAIXZ				; return10
; Function compile flags: /Ogsp
;	COMDAT ?return10@@YAIXZ
_TEXT	SEGMENT
?return10@@YAIXZ PROC					; return10, COMDAT

; 21   : 	__forceinline unsigned int return10() { __asm mov eax, 10 };

  00000	b8 0a 00 00 00	 mov	 eax, 10			; 0000000aH
  00005	c3		 ret	 0
?return10@@YAIXZ ENDP					; return10
_TEXT	ENDS
PUBLIC	??0tagDeathTimeData@CenterInfoWnd@@QAE@XZ	; CenterInfoWnd::tagDeathTimeData::tagDeathTimeData
; Function compile flags: /Ogsp
; File d:\lost saga for developer\youtube\tutorial\source\src\lsclient\gui\centerinfownd.h
;	COMDAT ??0tagDeathTimeData@CenterInfoWnd@@QAE@XZ
_TEXT	SEGMENT
??0tagDeathTimeData@CenterInfoWnd@@QAE@XZ PROC		; CenterInfoWnd::tagDeathTimeData::tagDeathTimeData, COMDAT
; _this$ = ecx

; 220  : 		tagDeathTimeData()

  00000	8b c1		 mov	 eax, ecx

; 221  : 		{
; 222  : 			m_iXPos = m_iYPos = 0;

  00002	33 c9		 xor	 ecx, ecx
  00004	89 48 04	 mov	 DWORD PTR [eax+4], ecx
  00007	89 08		 mov	 DWORD PTR [eax], ecx

; 223  : 			m_bScreen = false;

  00009	88 48 08	 mov	 BYTE PTR [eax+8], cl

; 224  : 		}

  0000c	c3		 ret	 0
??0tagDeathTimeData@CenterInfoWnd@@QAE@XZ ENDP		; CenterInfoWnd::tagDeathTimeData::tagDeathTimeData
_TEXT	ENDS
PUBLIC	?return100@@YAIXZ				; return100
; Function compile flags: /Ogsp
; File d:\lost saga for developer\youtube\tutorial\source\src\lsclient\stdafx.h
;	COMDAT ?return100@@YAIXZ
_TEXT	SEGMENT
?return100@@YAIXZ PROC					; return100, COMDAT

; 25   : 	__forceinline unsigned int return100() { __asm mov eax, 100 };

  00000	b8 64 00 00 00	 mov	 eax, 100		; 00000064H
  00005	c3		 ret	 0
?return100@@YAIXZ ENDP					; return100
_TEXT	ENDS
PUBLIC	??0tagGangsiAlarmData@CenterInfoWnd@@QAE@XZ	; CenterInfoWnd::tagGangsiAlarmData::tagGangsiAlarmData
; Function compile flags: /Ogsp
; File d:\lost saga for developer\youtube\tutorial\source\src\lsclient\gui\centerinfownd.h
;	COMDAT ??0tagGangsiAlarmData@CenterInfoWnd@@QAE@XZ
_TEXT	SEGMENT
??0tagGangsiAlarmData@CenterInfoWnd@@QAE@XZ PROC	; CenterInfoWnd::tagGangsiAlarmData::tagGangsiAlarmData, COMDAT
; _this$ = ecx

; 259  : 		tagGangsiAlarmData()

  00000	8b c1		 mov	 eax, ecx

; 260  : 		{
; 261  : 			m_iXPos = m_iYPos = 0;

  00002	33 c9		 xor	 ecx, ecx
  00004	89 48 04	 mov	 DWORD PTR [eax+4], ecx
  00007	89 08		 mov	 DWORD PTR [eax], ecx

; 262  : 			m_bScreen = false;

  00009	88 48 08	 mov	 BYTE PTR [eax+8], cl

; 263  : 		}

  0000c	c3		 ret	 0
??0tagGangsiAlarmData@CenterInfoWnd@@QAE@XZ ENDP	; CenterInfoWnd::tagGangsiAlarmData::tagGangsiAlarmData
_TEXT	ENDS
PUBLIC	?return1000@@YAIXZ				; return1000
; Function compile flags: /Ogsp
; File d:\lost saga for developer\youtube\tutorial\source\src\lsclient\stdafx.h
;	COMDAT ?return1000@@YAIXZ
_TEXT	SEGMENT
?return1000@@YAIXZ PROC					; return1000, COMDAT

; 29   : 	__forceinline unsigned int return1000() { __asm mov eax, 1000 };

  00000	b8 e8 03 00 00	 mov	 eax, 1000		; 000003e8H
  00005	c3		 ret	 0
?return1000@@YAIXZ ENDP					; return1000
_TEXT	ENDS
PUBLIC	?return1000000000@@YAIXZ			; return1000000000
; Function compile flags: /Ogsp
;	COMDAT ?return1000000000@@YAIXZ
_TEXT	SEGMENT
?return1000000000@@YAIXZ PROC				; return1000000000, COMDAT

; 30   : 	__forceinline unsigned int return1000000000() { __asm mov eax, 1000000000 };

  00000	b8 00 ca 9a 3b	 mov	 eax, 1000000000		; 3b9aca00H
  00005	c3		 ret	 0
?return1000000000@@YAIXZ ENDP				; return1000000000
_TEXT	ENDS
PUBLIC	?return_PI@@YAIXZ				; return_PI
; Function compile flags: /Ogsp
;	COMDAT ?return_PI@@YAIXZ
_TEXT	SEGMENT
?return_PI@@YAIXZ PROC					; return_PI, COMDAT

; 31   : 	__forceinline unsigned int return_PI() { __asm mov eax,   3141592654 };

  00000	b8 4e e6 40 bb	 mov	 eax, -1153374642	; bb40e64eH
  00005	c3		 ret	 0
?return_PI@@YAIXZ ENDP					; return_PI
_TEXT	ENDS
PUBLIC	_cosf
EXTRN	__fltused:DWORD
EXTRN	__CIcos:PROC
; Function compile flags: /Ogsp
; File c:\program files (x86)\microsoft visual studio 10.0\vc\include\math.h
;	COMDAT _cosf
_TEXT	SEGMENT
tv69 = 8						; size = 4
__X$ = 8						; size = 4
_cosf	PROC						; COMDAT

; 410  :         {return ((float)cos((double)_X)); }

  00000	55		 push	 ebp
  00001	8b ec		 mov	 ebp, esp
  00003	d9 45 08	 fld	 DWORD PTR __X$[ebp]
  00006	e8 00 00 00 00	 call	 __CIcos
  0000b	d9 5d 08	 fstp	 DWORD PTR tv69[ebp]
  0000e	d9 45 08	 fld	 DWORD PTR tv69[ebp]
  00011	5d		 pop	 ebp
  00012	c3		 ret	 0
_cosf	ENDP
_TEXT	ENDS
PUBLIC	_sinf
EXTRN	__CIsin:PROC
; Function compile flags: /Ogsp
;	COMDAT _sinf
_TEXT	SEGMENT
tv69 = 8						; size = 4
__X$ = 8						; size = 4
_sinf	PROC						; COMDAT

; 430  :         {return ((float)sin((double)_X)); }

  00000	55		 push	 ebp
  00001	8b ec		 mov	 ebp, esp
  00003	d9 45 08	 fld	 DWORD PTR __X$[ebp]
  00006	e8 00 00 00 00	 call	 __CIsin
  0000b	d9 5d 08	 fstp	 DWORD PTR tv69[ebp]
  0000e	d9 45 08	 fld	 DWORD PTR tv69[ebp]
  00011	5d		 pop	 ebp
  00012	c3		 ret	 0
_sinf	ENDP
_TEXT	ENDS
PUBLIC	??_7bad_alloc@std@@6B@				; std::bad_alloc::`vftable'
PUBLIC	??0bad_alloc@std@@QAE@PBD@Z			; std::bad_alloc::bad_alloc
PUBLIC	??_R4bad_alloc@std@@6B@				; std::bad_alloc::`RTTI Complete Object Locator'
PUBLIC	??_R0?AVbad_alloc@std@@@8			; std::bad_alloc `RTTI Type Descriptor'
PUBLIC	??_R3bad_alloc@std@@8				; std::bad_alloc::`RTTI Class Hierarchy Descriptor'
PUBLIC	??_R2bad_alloc@std@@8				; std::bad_alloc::`RTTI Base Class Array'
PUBLIC	??_R1A@?0A@EA@bad_alloc@std@@8			; std::bad_alloc::`RTTI Base Class Descriptor at (0,-1,0,64)'
PUBLIC	??_R1A@?0A@EA@exception@std@@8			; std::exception::`RTTI Base Class Descriptor at (0,-1,0,64)'
PUBLIC	??_R0?AVexception@std@@@8			; std::exception `RTTI Type Descriptor'
PUBLIC	??_R3exception@std@@8				; std::exception::`RTTI Class Hierarchy Descriptor'
PUBLIC	??_R2exception@std@@8				; std::exception::`RTTI Base Class Array'
EXTRN	__imp_??0exception@std@@QAE@ABQBD@Z:PROC
EXTRN	??_7type_info@@6B@:QWORD			; type_info::`vftable'
EXTRN	??_Ebad_alloc@std@@UAEPAXI@Z:PROC		; std::bad_alloc::`vector deleting destructor'
EXTRN	?what@exception@std@@UBEPBDXZ:PROC		; std::exception::what
;	COMDAT ??_R2exception@std@@8
; File c:\program files (x86)\microsoft visual studio 10.0\vc\include\exception
rdata$r	SEGMENT
??_R2exception@std@@8 DD FLAT:??_R1A@?0A@EA@exception@std@@8 ; std::exception::`RTTI Base Class Array'
rdata$r	ENDS
;	COMDAT ??_R3exception@std@@8
rdata$r	SEGMENT
??_R3exception@std@@8 DD 00H				; std::exception::`RTTI Class Hierarchy Descriptor'
	DD	00H
	DD	01H
	DD	FLAT:??_R2exception@std@@8
rdata$r	ENDS
;	COMDAT ??_R0?AVexception@std@@@8
_DATA	SEGMENT
??_R0?AVexception@std@@@8 DD FLAT:??_7type_info@@6B@	; std::exception `RTTI Type Descriptor'
	DD	00H
	DB	'.?AVexception@std@@', 00H
_DATA	ENDS
;	COMDAT ??_R1A@?0A@EA@exception@std@@8
rdata$r	SEGMENT
??_R1A@?0A@EA@exception@std@@8 DD FLAT:??_R0?AVexception@std@@@8 ; std::exception::`RTTI Base Class Descriptor at (0,-1,0,64)'
	DD	00H
	DD	00H
	DD	0ffffffffH
	DD	00H
	DD	040H
	DD	FLAT:??_R3exception@std@@8
rdata$r	ENDS
;	COMDAT ??_R1A@?0A@EA@bad_alloc@std@@8
rdata$r	SEGMENT
??_R1A@?0A@EA@bad_alloc@std@@8 DD FLAT:??_R0?AVbad_alloc@std@@@8 ; std::bad_alloc::`RTTI Base Class Descriptor at (0,-1,0,64)'
	DD	01H
	DD	00H
	DD	0ffffffffH
	DD	00H
	DD	040H
	DD	FLAT:??_R3bad_alloc@std@@8
rdata$r	ENDS
;	COMDAT ??_R2bad_alloc@std@@8
rdata$r	SEGMENT
??_R2bad_alloc@std@@8 DD FLAT:??_R1A@?0A@EA@bad_alloc@std@@8 ; std::bad_alloc::`RTTI Base Class Array'
	DD	FLAT:??_R1A@?0A@EA@exception@std@@8
rdata$r	ENDS
;	COMDAT ??_R3bad_alloc@std@@8
rdata$r	SEGMENT
??_R3bad_alloc@std@@8 DD 00H				; std::bad_alloc::`RTTI Class Hierarchy Descriptor'
	DD	00H
	DD	02H
	DD	FLAT:??_R2bad_alloc@std@@8
rdata$r	ENDS
;	COMDAT ??_R0?AVbad_alloc@std@@@8
_DATA	SEGMENT
??_R0?AVbad_alloc@std@@@8 DD FLAT:??_7type_info@@6B@	; std::bad_alloc `RTTI Type Descriptor'
	DD	00H
	DB	'.?AVbad_alloc@std@@', 00H
_DATA	ENDS
;	COMDAT ??_R4bad_alloc@std@@6B@
rdata$r	SEGMENT
??_R4bad_alloc@std@@6B@ DD 00H				; std::bad_alloc::`RTTI Complete Object Locator'
	DD	00H
	DD	00H
	DD	FLAT:??_R0?AVbad_alloc@std@@@8
	DD	FLAT:??_R3bad_alloc@std@@8
rdata$r	ENDS
;	COMDAT ??_7bad_alloc@std@@6B@
CONST	SEGMENT
??_7bad_alloc@std@@6B@ DD FLAT:??_R4bad_alloc@std@@6B@	; std::bad_alloc::`vftable'
	DD	FLAT:??_Ebad_alloc@std@@UAEPAXI@Z
	DD	FLAT:?what@exception@std@@UBEPBDXZ
; Function compile flags: /Ogsp
CONST	ENDS
;	COMDAT ??0bad_alloc@std@@QAE@PBD@Z
_TEXT	SEGMENT
__Message$ = 8						; size = 4
??0bad_alloc@std@@QAE@PBD@Z PROC			; std::bad_alloc::bad_alloc, COMDAT
; _this$ = ecx

; 345  : 		{	// construct from message string

  00000	55		 push	 ebp
  00001	8b ec		 mov	 ebp, esp
  00003	56		 push	 esi
  00004	8d 45 08	 lea	 eax, DWORD PTR __Message$[ebp]
  00007	50		 push	 eax
  00008	8b f1		 mov	 esi, ecx
  0000a	ff 15 00 00 00
	00		 call	 DWORD PTR __imp_??0exception@std@@QAE@ABQBD@Z
  00010	c7 06 00 00 00
	00		 mov	 DWORD PTR [esi], OFFSET ??_7bad_alloc@std@@6B@

; 346  : 		}

  00016	8b c6		 mov	 eax, esi
  00018	5e		 pop	 esi
  00019	5d		 pop	 ebp
  0001a	c2 04 00	 ret	 4
??0bad_alloc@std@@QAE@PBD@Z ENDP			; std::bad_alloc::bad_alloc
_TEXT	ENDS
PUBLIC	??1bad_alloc@std@@UAE@XZ			; std::bad_alloc::~bad_alloc
EXTRN	__imp_??1exception@std@@UAE@XZ:PROC
; Function compile flags: /Ogsp
;	COMDAT ??1bad_alloc@std@@UAE@XZ
_TEXT	SEGMENT
??1bad_alloc@std@@UAE@XZ PROC				; std::bad_alloc::~bad_alloc, COMDAT
; _this$ = ecx

; 354  : 		{	// destroy the object

  00000	c7 01 00 00 00
	00		 mov	 DWORD PTR [ecx], OFFSET ??_7bad_alloc@std@@6B@

; 355  : 		}

  00006	ff 25 00 00 00
	00		 jmp	 DWORD PTR __imp_??1exception@std@@UAE@XZ
??1bad_alloc@std@@UAE@XZ ENDP				; std::bad_alloc::~bad_alloc
_TEXT	ENDS
EXTRN	??3@YAXPAX@Z:PROC				; operator delete
; Function compile flags: /Ogsp
;	COMDAT ??_Gbad_alloc@std@@UAEPAXI@Z
_TEXT	SEGMENT
___flags$ = 8						; size = 4
??_Gbad_alloc@std@@UAEPAXI@Z PROC			; std::bad_alloc::`scalar deleting destructor', COMDAT
; _this$ = ecx
  00000	55		 push	 ebp
  00001	8b ec		 mov	 ebp, esp
  00003	56		 push	 esi
  00004	8b f1		 mov	 esi, ecx
  00006	c7 06 00 00 00
	00		 mov	 DWORD PTR [esi], OFFSET ??_7bad_alloc@std@@6B@
  0000c	ff 15 00 00 00
	00		 call	 DWORD PTR __imp_??1exception@std@@UAE@XZ
  00012	f6 45 08 01	 test	 BYTE PTR ___flags$[ebp], 1
  00016	74 07		 je	 SHORT $LN1@scalar
  00018	56		 push	 esi
  00019	e8 00 00 00 00	 call	 ??3@YAXPAX@Z		; operator delete
  0001e	59		 pop	 ecx
$LN1@scalar:
  0001f	8b c6		 mov	 eax, esi
  00021	5e		 pop	 esi
  00022	5d		 pop	 ebp
  00023	c2 04 00	 ret	 4
??_Gbad_alloc@std@@UAEPAXI@Z ENDP			; std::bad_alloc::`scalar deleting destructor'
_TEXT	ENDS
PUBLIC	??2@YAPAXIPAX@Z					; operator new
; Function compile flags: /Ogsp
; File c:\program files (x86)\microsoft visual studio 10.0\vc\include\new
;	COMDAT ??2@YAPAXIPAX@Z
_TEXT	SEGMENT
___formal$ = 8						; size = 4
__Where$ = 12						; size = 4
??2@YAPAXIPAX@Z PROC					; operator new, COMDAT

; 56   : 	{	// construct array with placement at _Where

  00000	55		 push	 ebp
  00001	8b ec		 mov	 ebp, esp

; 57   : 	return (_Where);

  00003	8b 45 0c	 mov	 eax, DWORD PTR __Where$[ebp]

; 58   : 	}

  00006	5d		 pop	 ebp
  00007	c3		 ret	 0
??2@YAPAXIPAX@Z ENDP					; operator new
_TEXT	ENDS
PUBLIC	??3@YAXPAX0@Z					; operator delete
; Function compile flags: /Ogsp
;	COMDAT ??3@YAXPAX0@Z
_TEXT	SEGMENT
___formal$ = 8						; size = 4
___formal$ = 12						; size = 4
??3@YAXPAX0@Z PROC					; operator delete, COMDAT

; 62   : 	}

  00000	c3		 ret	 0
??3@YAXPAX0@Z ENDP					; operator delete
_TEXT	ENDS
PUBLIC	?_Adopt@_Iterator_base0@std@@QAEXPBX@Z		; std::_Iterator_base0::_Adopt
; Function compile flags: /Ogsp
; File c:\program files (x86)\microsoft visual studio 10.0\vc\include\xutility
;	COMDAT ?_Adopt@_Iterator_base0@std@@QAEXPBX@Z
_TEXT	SEGMENT
___formal$ = 8						; size = 4
?_Adopt@_Iterator_base0@std@@QAEXPBX@Z PROC		; std::_Iterator_base0::_Adopt, COMDAT
; _this$ = ecx

; 49   : 		}

  00000	c2 04 00	 ret	 4
?_Adopt@_Iterator_base0@std@@QAEXPBX@Z ENDP		; std::_Iterator_base0::_Adopt
_TEXT	ENDS
PUBLIC	??_C@_04IAEKAMNC@YPos?$AA@			; `string'
PUBLIC	??_C@_0P@KOECGIAB@CenterInfoWnd2?$AA@		; `string'
PUBLIC	??_C@_04LNCKCFGC@XPos?$AA@			; `string'
PUBLIC	?iwm_create@CenterInfoWnd@@UAEXXZ		; CenterInfoWnd::iwm_create
EXTRN	__imp_?SetWndPos@ioWnd@@QAEXHH@Z:PROC
EXTRN	?Height@Setting@@SAHXZ:PROC			; Setting::Height
EXTRN	?Width@Setting@@SAHXZ:PROC			; Setting::Width
EXTRN	__imp_?GetYPos@ioWnd@@QBEHXZ:PROC
EXTRN	?GUIPosLoadInt@ioSP2GUIManager@@QAEHPBD0HH@Z:PROC ; ioSP2GUIManager::GUIPosLoadInt
EXTRN	?GetSingleton@ioSP2GUIManager@@SAAAV1@XZ:PROC	; ioSP2GUIManager::GetSingleton
EXTRN	__imp_?GetXPos@ioWnd@@QBEHXZ:PROC
;	COMDAT ??_C@_04IAEKAMNC@YPos?$AA@
; File d:\lost saga for developer\youtube\tutorial\source\src\lsclient\gui\centerinfownd.cpp
CONST	SEGMENT
??_C@_04IAEKAMNC@YPos?$AA@ DB 'YPos', 00H		; `string'
CONST	ENDS
;	COMDAT ??_C@_0P@KOECGIAB@CenterInfoWnd2?$AA@
CONST	SEGMENT
??_C@_0P@KOECGIAB@CenterInfoWnd2?$AA@ DB 'CenterInfoWnd2', 00H ; `string'
CONST	ENDS
;	COMDAT ??_C@_04LNCKCFGC@XPos?$AA@
CONST	SEGMENT
??_C@_04LNCKCFGC@XPos?$AA@ DB 'XPos', 00H		; `string'
; Function compile flags: /Ogsp
CONST	ENDS
;	COMDAT ?iwm_create@CenterInfoWnd@@UAEXXZ
_TEXT	SEGMENT
?iwm_create@CenterInfoWnd@@UAEXXZ PROC			; CenterInfoWnd::iwm_create, COMDAT
; _this$ = ecx

; 626  : {

  00000	53		 push	 ebx
  00001	56		 push	 esi
  00002	57		 push	 edi

; 627  : 	int iXPos = g_GUIMgr.GUIPosLoadInt( "CenterInfoWnd2", "XPos", GetXPos() ,POS_SAVE_VERSION );

  00003	6a 04		 push	 4
  00005	8b f9		 mov	 edi, ecx
  00007	ff 15 00 00 00
	00		 call	 DWORD PTR __imp_?GetXPos@ioWnd@@QBEHXZ
  0000d	50		 push	 eax
  0000e	68 00 00 00 00	 push	 OFFSET ??_C@_04LNCKCFGC@XPos?$AA@
  00013	be 00 00 00 00	 mov	 esi, OFFSET ??_C@_0P@KOECGIAB@CenterInfoWnd2?$AA@
  00018	56		 push	 esi
  00019	e8 00 00 00 00	 call	 ?GetSingleton@ioSP2GUIManager@@SAAAV1@XZ ; ioSP2GUIManager::GetSingleton
  0001e	8b c8		 mov	 ecx, eax
  00020	e8 00 00 00 00	 call	 ?GUIPosLoadInt@ioSP2GUIManager@@QAEHPBD0HH@Z ; ioSP2GUIManager::GUIPosLoadInt

; 628  : 	int iYPos = g_GUIMgr.GUIPosLoadInt( "CenterInfoWnd2", "YPos", GetYPos() ,POS_SAVE_VERSION );

  00025	6a 04		 push	 4
  00027	8b cf		 mov	 ecx, edi
  00029	8b d8		 mov	 ebx, eax
  0002b	ff 15 00 00 00
	00		 call	 DWORD PTR __imp_?GetYPos@ioWnd@@QBEHXZ
  00031	50		 push	 eax
  00032	68 00 00 00 00	 push	 OFFSET ??_C@_04IAEKAMNC@YPos?$AA@
  00037	56		 push	 esi
  00038	e8 00 00 00 00	 call	 ?GetSingleton@ioSP2GUIManager@@SAAAV1@XZ ; ioSP2GUIManager::GetSingleton
  0003d	8b c8		 mov	 ecx, eax
  0003f	e8 00 00 00 00	 call	 ?GUIPosLoadInt@ioSP2GUIManager@@QAEHPBD0HH@Z ; ioSP2GUIManager::GUIPosLoadInt
  00044	8b f0		 mov	 esi, eax

; 629  : 
; 630  : 	if( COMPARE( iXPos, 0, Setting::Width() ) && 
; 631  : 		COMPARE( iYPos, 0, Setting::Height() ) )

  00046	85 db		 test	 ebx, ebx
  00048	78 20		 js	 SHORT $LN1@iwm_create
  0004a	e8 00 00 00 00	 call	 ?Width@Setting@@SAHXZ	; Setting::Width
  0004f	3b d8		 cmp	 ebx, eax
  00051	7d 17		 jge	 SHORT $LN1@iwm_create
  00053	85 f6		 test	 esi, esi
  00055	78 13		 js	 SHORT $LN1@iwm_create
  00057	e8 00 00 00 00	 call	 ?Height@Setting@@SAHXZ	; Setting::Height
  0005c	3b f0		 cmp	 esi, eax
  0005e	7d 0a		 jge	 SHORT $LN1@iwm_create

; 632  : 	{
; 633  : 		SetWndPos( iXPos, iYPos );

  00060	56		 push	 esi
  00061	53		 push	 ebx
  00062	8b cf		 mov	 ecx, edi
  00064	ff 15 00 00 00
	00		 call	 DWORD PTR __imp_?SetWndPos@ioWnd@@QAEXHH@Z
$LN1@iwm_create:

; 634  : 	}
; 635  : 
; 636  : 	m_iDefaultX = GetXPos();

  0006a	8b cf		 mov	 ecx, edi
  0006c	ff 15 00 00 00
	00		 call	 DWORD PTR __imp_?GetXPos@ioWnd@@QBEHXZ

; 637  : 	m_iDefaultY = GetYPos();

  00072	8b cf		 mov	 ecx, edi
  00074	89 87 1c 06 00
	00		 mov	 DWORD PTR [edi+1564], eax
  0007a	ff 15 00 00 00
	00		 call	 DWORD PTR __imp_?GetYPos@ioWnd@@QBEHXZ
  00080	89 87 20 06 00
	00		 mov	 DWORD PTR [edi+1568], eax
  00086	5f		 pop	 edi
  00087	5e		 pop	 esi
  00088	5b		 pop	 ebx

; 638  : }

  00089	c3		 ret	 0
?iwm_create@CenterInfoWnd@@UAEXXZ ENDP			; CenterInfoWnd::iwm_create
_TEXT	ENDS
PUBLIC	?iwm_show@CenterInfoWnd@@UAEXXZ			; CenterInfoWnd::iwm_show
; Function compile flags: /Ogsp
;	COMDAT ?iwm_show@CenterInfoWnd@@UAEXXZ
_TEXT	SEGMENT
?iwm_show@CenterInfoWnd@@UAEXXZ PROC			; CenterInfoWnd::iwm_show, COMDAT
; _this$ = ecx

; 642  : }

  00000	c3		 ret	 0
?iwm_show@CenterInfoWnd@@UAEXXZ ENDP			; CenterInfoWnd::iwm_show
_TEXT	ENDS
PUBLIC	?SetPositionToDefault@CenterInfoWnd@@UAEXHH_N0@Z ; CenterInfoWnd::SetPositionToDefault
EXTRN	__imp_?SetPositionToDefault@ioMovingWnd@@UAEXHH_N0@Z:PROC
; Function compile flags: /Ogsp
;	COMDAT ?SetPositionToDefault@CenterInfoWnd@@UAEXHH_N0@Z
_TEXT	SEGMENT
_iParentWidth$ = 8					; size = 4
_iParentHeight$ = 12					; size = 4
_bChildMove$ = 16					; size = 1
_bCreate$ = 20						; size = 1
?SetPositionToDefault@CenterInfoWnd@@UAEXHH_N0@Z PROC	; CenterInfoWnd::SetPositionToDefault, COMDAT
; _this$ = ecx

; 656  : {

  00000	55		 push	 ebp
  00001	8b ec		 mov	 ebp, esp
  00003	56		 push	 esi

; 657  : 	ioMovingWnd::SetPositionToDefault( iParentWidth, iParentHeight, bChildMove, bCreate );

  00004	ff 75 14	 push	 DWORD PTR _bCreate$[ebp]
  00007	8b f1		 mov	 esi, ecx
  00009	ff 75 10	 push	 DWORD PTR _bChildMove$[ebp]
  0000c	ff 75 0c	 push	 DWORD PTR _iParentHeight$[ebp]
  0000f	ff 75 08	 push	 DWORD PTR _iParentWidth$[ebp]
  00012	ff 15 00 00 00
	00		 call	 DWORD PTR __imp_?SetPositionToDefault@ioMovingWnd@@UAEXHH_N0@Z

; 658  : 
; 659  : 	if( !bCreate )

  00018	80 7d 14 00	 cmp	 BYTE PTR _bCreate$[ebp], 0
  0001c	75 1c		 jne	 SHORT $LN1@SetPositio

; 660  : 	{
; 661  : 		m_iDefaultX = GetXPos();

  0001e	8b ce		 mov	 ecx, esi
  00020	ff 15 00 00 00
	00		 call	 DWORD PTR __imp_?GetXPos@ioWnd@@QBEHXZ

; 662  : 		m_iDefaultY = GetYPos();

  00026	8b ce		 mov	 ecx, esi
  00028	89 86 1c 06 00
	00		 mov	 DWORD PTR [esi+1564], eax
  0002e	ff 15 00 00 00
	00		 call	 DWORD PTR __imp_?GetYPos@ioWnd@@QBEHXZ
  00034	89 86 20 06 00
	00		 mov	 DWORD PTR [esi+1568], eax
$LN1@SetPositio:
  0003a	5e		 pop	 esi

; 663  : 	}
; 664  : }

  0003b	5d		 pop	 ebp
  0003c	c2 10 00	 ret	 16			; 00000010H
?SetPositionToDefault@CenterInfoWnd@@UAEXHH_N0@Z ENDP	; CenterInfoWnd::SetPositionToDefault
_TEXT	ENDS
PUBLIC	?InitHiddenCrownAni@CenterInfoWnd@@QAEXXZ	; CenterInfoWnd::InitHiddenCrownAni
EXTRN	?Add@FSMStateMgr@@QAEXPAVFSMState@@@Z:PROC	; FSMStateMgr::Add
EXTRN	?Add@FSMState@@QAEXHHH@Z:PROC			; FSMState::Add
EXTRN	??0FSMState@@QAE@H@Z:PROC			; FSMState::FSMState
EXTRN	??2@YAPAXI@Z:PROC				; operator new
EXTRN	?SetCurState@FSMStateMgr@@QAEXH@Z:PROC		; FSMStateMgr::SetCurState
EXTRN	___CxxFrameHandler3:PROC
EXTRN	@__security_check_cookie@4:PROC
EXTRN	__EH_epilog3:PROC
EXTRN	__EH_prolog3:PROC
;	COMDAT xdata$x
xdata$x	SEGMENT
__ehfuncinfo$?InitHiddenCrownAni@CenterInfoWnd@@QAEXXZ DD 019930522H
	DD	06H
	DD	FLAT:__unwindtable$?InitHiddenCrownAni@CenterInfoWnd@@QAEXXZ
	DD	2 DUP(00H)
	DD	2 DUP(00H)
	DD	00H
	DD	01H
__unwindtable$?InitHiddenCrownAni@CenterInfoWnd@@QAEXXZ DD 0ffffffffH
	DD	FLAT:__unwindfunclet$?InitHiddenCrownAni@CenterInfoWnd@@QAEXXZ$0
	DD	0ffffffffH
	DD	FLAT:__unwindfunclet$?InitHiddenCrownAni@CenterInfoWnd@@QAEXXZ$1
	DD	0ffffffffH
	DD	FLAT:__unwindfunclet$?InitHiddenCrownAni@CenterInfoWnd@@QAEXXZ$2
	DD	0ffffffffH
	DD	FLAT:__unwindfunclet$?InitHiddenCrownAni@CenterInfoWnd@@QAEXXZ$3
	DD	0ffffffffH
	DD	FLAT:__unwindfunclet$?InitHiddenCrownAni@CenterInfoWnd@@QAEXXZ$4
	DD	0ffffffffH
	DD	FLAT:__unwindfunclet$?InitHiddenCrownAni@CenterInfoWnd@@QAEXXZ$5
; Function compile flags: /Ogsp
xdata$x	ENDS
;	COMDAT ?InitHiddenCrownAni@CenterInfoWnd@@QAEXXZ
_TEXT	SEGMENT
$T514487 = -20						; size = 4
$T514483 = -20						; size = 4
$T514479 = -20						; size = 4
$T514475 = -20						; size = 4
$T514471 = -20						; size = 4
$T514467 = -20						; size = 4
tv224 = -16						; size = 4
__$EHRec$ = -12						; size = 12
?InitHiddenCrownAni@CenterInfoWnd@@QAEXXZ PROC		; CenterInfoWnd::InitHiddenCrownAni, COMDAT
; _this$ = ecx

; 667  : {

  00000	6a 08		 push	 8
  00002	b8 00 00 00 00	 mov	 eax, __ehhandler$?InitHiddenCrownAni@CenterInfoWnd@@QAEXXZ
  00007	e8 00 00 00 00	 call	 __EH_prolog3

; 668  : 	enum { DELAY_DROP = 250, DELAY_SUP1 = 100, DELAY_SUP2 = 100, DELAY_LOOP = 1000000000 };
; 669  : 
; 670  : 	m_HiddenCrownAni.SetCurState( HCA_NONE );

  0000c	81 c1 7c 03 00
	00		 add	 ecx, 892		; 0000037cH
  00012	33 db		 xor	 ebx, ebx
  00014	53		 push	 ebx
  00015	89 4d f0	 mov	 DWORD PTR tv224[ebp], ecx
  00018	e8 00 00 00 00	 call	 ?SetCurState@FSMStateMgr@@QAEXH@Z ; FSMStateMgr::SetCurState

; 671  : 
; 672  : 	FSMState *pState = new FSMState( HCA_NONE );

  0001d	6a 38		 push	 56			; 00000038H
  0001f	e8 00 00 00 00	 call	 ??2@YAPAXI@Z		; operator new
  00024	59		 pop	 ecx
  00025	89 45 ec	 mov	 DWORD PTR $T514467[ebp], eax
  00028	89 5d fc	 mov	 DWORD PTR __$EHRec$[ebp+8], ebx
  0002b	3b c3		 cmp	 eax, ebx
  0002d	74 0c		 je	 SHORT $LN9@InitHidden
  0002f	53		 push	 ebx
  00030	8b c8		 mov	 ecx, eax
  00032	e8 00 00 00 00	 call	 ??0FSMState@@QAE@H@Z	; FSMState::FSMState
  00037	8b f8		 mov	 edi, eax
  00039	eb 02		 jmp	 SHORT $LN10@InitHidden
$LN9@InitHidden:
  0003b	33 ff		 xor	 edi, edi
$LN10@InitHidden:
  0003d	83 4d fc ff	 or	 DWORD PTR __$EHRec$[ebp+8], -1

; 673  : 	if( pState )

  00041	33 f6		 xor	 esi, esi
  00043	46		 inc	 esi
  00044	3b fb		 cmp	 edi, ebx
  00046	74 0b		 je	 SHORT $LN6@InitHidden

; 674  : 		pState->Add( HCA_NONE,  HCA_START );

  00048	6a ff		 push	 -1
  0004a	56		 push	 esi
  0004b	53		 push	 ebx
  0004c	8b cf		 mov	 ecx, edi
  0004e	e8 00 00 00 00	 call	 ?Add@FSMState@@QAEXHHH@Z ; FSMState::Add
$LN6@InitHidden:

; 675  : 	m_HiddenCrownAni.Add( pState );

  00053	8b 4d f0	 mov	 ecx, DWORD PTR tv224[ebp]
  00056	57		 push	 edi
  00057	e8 00 00 00 00	 call	 ?Add@FSMStateMgr@@QAEXPAVFSMState@@@Z ; FSMStateMgr::Add

; 676  : 
; 677  : 	pState = new FSMState( HCA_START );

  0005c	6a 38		 push	 56			; 00000038H
  0005e	e8 00 00 00 00	 call	 ??2@YAPAXI@Z		; operator new
  00063	59		 pop	 ecx
  00064	89 45 ec	 mov	 DWORD PTR $T514471[ebp], eax
  00067	89 75 fc	 mov	 DWORD PTR __$EHRec$[ebp+8], esi
  0006a	3b c3		 cmp	 eax, ebx
  0006c	74 0a		 je	 SHORT $LN11@InitHidden
  0006e	56		 push	 esi
  0006f	8b c8		 mov	 ecx, eax
  00071	e8 00 00 00 00	 call	 ??0FSMState@@QAE@H@Z	; FSMState::FSMState
  00076	8b d8		 mov	 ebx, eax
$LN11@InitHidden:
  00078	83 4d fc ff	 or	 DWORD PTR __$EHRec$[ebp+8], -1

; 678  : 	if( pState )

  0007c	6a 02		 push	 2
  0007e	5f		 pop	 edi
  0007f	85 db		 test	 ebx, ebx
  00081	74 0b		 je	 SHORT $LN5@InitHidden

; 679  : 		pState->Add( HCA_START,  HCA_DROP, 0 );

  00083	6a 00		 push	 0
  00085	57		 push	 edi
  00086	56		 push	 esi
  00087	8b cb		 mov	 ecx, ebx
  00089	e8 00 00 00 00	 call	 ?Add@FSMState@@QAEXHHH@Z ; FSMState::Add
$LN5@InitHidden:

; 680  : 	m_HiddenCrownAni.Add( pState );

  0008e	8b 4d f0	 mov	 ecx, DWORD PTR tv224[ebp]
  00091	53		 push	 ebx
  00092	e8 00 00 00 00	 call	 ?Add@FSMStateMgr@@QAEXPAVFSMState@@@Z ; FSMStateMgr::Add

; 681  : 
; 682  : 	pState = new FSMState( HCA_DROP );

  00097	6a 38		 push	 56			; 00000038H
  00099	e8 00 00 00 00	 call	 ??2@YAPAXI@Z		; operator new
  0009e	59		 pop	 ecx
  0009f	89 45 ec	 mov	 DWORD PTR $T514475[ebp], eax
  000a2	89 7d fc	 mov	 DWORD PTR __$EHRec$[ebp+8], edi
  000a5	85 c0		 test	 eax, eax
  000a7	74 0c		 je	 SHORT $LN13@InitHidden
  000a9	57		 push	 edi
  000aa	8b c8		 mov	 ecx, eax
  000ac	e8 00 00 00 00	 call	 ??0FSMState@@QAE@H@Z	; FSMState::FSMState
  000b1	8b d8		 mov	 ebx, eax
  000b3	eb 02		 jmp	 SHORT $LN14@InitHidden
$LN13@InitHidden:
  000b5	33 db		 xor	 ebx, ebx
$LN14@InitHidden:
  000b7	83 4d fc ff	 or	 DWORD PTR __$EHRec$[ebp+8], -1

; 683  : 	if( pState )

  000bb	6a 03		 push	 3
  000bd	5e		 pop	 esi
  000be	85 db		 test	 ebx, ebx
  000c0	74 0e		 je	 SHORT $LN4@InitHidden

; 684  : 		pState->Add( HCA_DROP,  HCA_SUP1, DELAY_DROP );

  000c2	68 fa 00 00 00	 push	 250			; 000000faH
  000c7	56		 push	 esi
  000c8	57		 push	 edi
  000c9	8b cb		 mov	 ecx, ebx
  000cb	e8 00 00 00 00	 call	 ?Add@FSMState@@QAEXHHH@Z ; FSMState::Add
$LN4@InitHidden:

; 685  : 	m_HiddenCrownAni.Add( pState );

  000d0	8b 4d f0	 mov	 ecx, DWORD PTR tv224[ebp]
  000d3	53		 push	 ebx
  000d4	e8 00 00 00 00	 call	 ?Add@FSMStateMgr@@QAEXPAVFSMState@@@Z ; FSMStateMgr::Add

; 686  : 
; 687  : 	pState = new FSMState( HCA_SUP1 );

  000d9	6a 38		 push	 56			; 00000038H
  000db	e8 00 00 00 00	 call	 ??2@YAPAXI@Z		; operator new
  000e0	59		 pop	 ecx
  000e1	89 45 ec	 mov	 DWORD PTR $T514479[ebp], eax
  000e4	89 75 fc	 mov	 DWORD PTR __$EHRec$[ebp+8], esi
  000e7	85 c0		 test	 eax, eax
  000e9	74 0c		 je	 SHORT $LN15@InitHidden
  000eb	56		 push	 esi
  000ec	8b c8		 mov	 ecx, eax
  000ee	e8 00 00 00 00	 call	 ??0FSMState@@QAE@H@Z	; FSMState::FSMState
  000f3	8b d8		 mov	 ebx, eax
  000f5	eb 02		 jmp	 SHORT $LN16@InitHidden
$LN15@InitHidden:
  000f7	33 db		 xor	 ebx, ebx
$LN16@InitHidden:
  000f9	83 4d fc ff	 or	 DWORD PTR __$EHRec$[ebp+8], -1

; 688  : 	if( pState )

  000fd	6a 04		 push	 4
  000ff	5f		 pop	 edi
  00100	85 db		 test	 ebx, ebx
  00102	74 0b		 je	 SHORT $LN3@InitHidden

; 689  : 		pState->Add( HCA_SUP1,  HCA_SUP2 , DELAY_SUP1 );

  00104	6a 64		 push	 100			; 00000064H
  00106	57		 push	 edi
  00107	56		 push	 esi
  00108	8b cb		 mov	 ecx, ebx
  0010a	e8 00 00 00 00	 call	 ?Add@FSMState@@QAEXHHH@Z ; FSMState::Add
$LN3@InitHidden:

; 690  : 	m_HiddenCrownAni.Add( pState );	

  0010f	8b 4d f0	 mov	 ecx, DWORD PTR tv224[ebp]
  00112	53		 push	 ebx
  00113	e8 00 00 00 00	 call	 ?Add@FSMStateMgr@@QAEXPAVFSMState@@@Z ; FSMStateMgr::Add

; 691  : 
; 692  : 	pState = new FSMState( HCA_SUP2 );

  00118	6a 38		 push	 56			; 00000038H
  0011a	e8 00 00 00 00	 call	 ??2@YAPAXI@Z		; operator new
  0011f	59		 pop	 ecx
  00120	89 45 ec	 mov	 DWORD PTR $T514483[ebp], eax
  00123	89 7d fc	 mov	 DWORD PTR __$EHRec$[ebp+8], edi
  00126	85 c0		 test	 eax, eax
  00128	74 0c		 je	 SHORT $LN17@InitHidden
  0012a	57		 push	 edi
  0012b	8b c8		 mov	 ecx, eax
  0012d	e8 00 00 00 00	 call	 ??0FSMState@@QAE@H@Z	; FSMState::FSMState
  00132	8b d8		 mov	 ebx, eax
  00134	eb 02		 jmp	 SHORT $LN18@InitHidden
$LN17@InitHidden:
  00136	33 db		 xor	 ebx, ebx
$LN18@InitHidden:
  00138	83 4d fc ff	 or	 DWORD PTR __$EHRec$[ebp+8], -1

; 693  : 	if( pState )

  0013c	6a 05		 push	 5
  0013e	5e		 pop	 esi
  0013f	85 db		 test	 ebx, ebx
  00141	74 0b		 je	 SHORT $LN2@InitHidden

; 694  : 		pState->Add( HCA_SUP2,  HCA_LOOP , DELAY_SUP2 );

  00143	6a 64		 push	 100			; 00000064H
  00145	56		 push	 esi
  00146	57		 push	 edi
  00147	8b cb		 mov	 ecx, ebx
  00149	e8 00 00 00 00	 call	 ?Add@FSMState@@QAEXHHH@Z ; FSMState::Add
$LN2@InitHidden:

; 695  : 	m_HiddenCrownAni.Add( pState );

  0014e	8b 4d f0	 mov	 ecx, DWORD PTR tv224[ebp]
  00151	53		 push	 ebx
  00152	e8 00 00 00 00	 call	 ?Add@FSMStateMgr@@QAEXPAVFSMState@@@Z ; FSMStateMgr::Add

; 696  : 
; 697  : 	pState = new FSMState( HCA_LOOP );

  00157	6a 38		 push	 56			; 00000038H
  00159	e8 00 00 00 00	 call	 ??2@YAPAXI@Z		; operator new
  0015e	59		 pop	 ecx
  0015f	89 45 ec	 mov	 DWORD PTR $T514487[ebp], eax
  00162	89 75 fc	 mov	 DWORD PTR __$EHRec$[ebp+8], esi
  00165	85 c0		 test	 eax, eax
  00167	74 0c		 je	 SHORT $LN19@InitHidden
  00169	56		 push	 esi
  0016a	8b c8		 mov	 ecx, eax
  0016c	e8 00 00 00 00	 call	 ??0FSMState@@QAE@H@Z	; FSMState::FSMState
  00171	8b f8		 mov	 edi, eax
  00173	eb 02		 jmp	 SHORT $LN20@InitHidden
$LN19@InitHidden:
  00175	33 ff		 xor	 edi, edi
$LN20@InitHidden:
  00177	83 4d fc ff	 or	 DWORD PTR __$EHRec$[ebp+8], -1

; 698  : 	if( pState )

  0017b	85 ff		 test	 edi, edi
  0017d	74 0f		 je	 SHORT $LN1@InitHidden

; 699  : 		pState->Add( HCA_LOOP,  HCA_NONE , DELAY_LOOP );

  0017f	68 00 ca 9a 3b	 push	 1000000000		; 3b9aca00H
  00184	6a 00		 push	 0
  00186	56		 push	 esi
  00187	8b cf		 mov	 ecx, edi
  00189	e8 00 00 00 00	 call	 ?Add@FSMState@@QAEXHHH@Z ; FSMState::Add
$LN1@InitHidden:

; 700  : 	m_HiddenCrownAni.Add( pState );

  0018e	8b 4d f0	 mov	 ecx, DWORD PTR tv224[ebp]
  00191	57		 push	 edi
  00192	e8 00 00 00 00	 call	 ?Add@FSMStateMgr@@QAEXPAVFSMState@@@Z ; FSMStateMgr::Add

; 701  : }

  00197	e8 00 00 00 00	 call	 __EH_epilog3
  0019c	c3		 ret	 0
_TEXT	ENDS
;	COMDAT text$x
text$x	SEGMENT
__unwindfunclet$?InitHiddenCrownAni@CenterInfoWnd@@QAEXXZ$0:
  00000	ff 75 ec	 push	 DWORD PTR $T514467[ebp]
  00003	e8 00 00 00 00	 call	 ??3@YAXPAX@Z		; operator delete
  00008	59		 pop	 ecx
  00009	c3		 ret	 0
__unwindfunclet$?InitHiddenCrownAni@CenterInfoWnd@@QAEXXZ$1:
  0000a	ff 75 ec	 push	 DWORD PTR $T514471[ebp]
  0000d	e8 00 00 00 00	 call	 ??3@YAXPAX@Z		; operator delete
  00012	59		 pop	 ecx
  00013	c3		 ret	 0
__unwindfunclet$?InitHiddenCrownAni@CenterInfoWnd@@QAEXXZ$2:
  00014	ff 75 ec	 push	 DWORD PTR $T514475[ebp]
  00017	e8 00 00 00 00	 call	 ??3@YAXPAX@Z		; operator delete
  0001c	59		 pop	 ecx
  0001d	c3		 ret	 0
__unwindfunclet$?InitHiddenCrownAni@CenterInfoWnd@@QAEXXZ$3:
  0001e	ff 75 ec	 push	 DWORD PTR $T514479[ebp]
  00021	e8 00 00 00 00	 call	 ??3@YAXPAX@Z		; operator delete
  00026	59		 pop	 ecx
  00027	c3		 ret	 0
__unwindfunclet$?InitHiddenCrownAni@CenterInfoWnd@@QAEXXZ$4:
  00028	ff 75 ec	 push	 DWORD PTR $T514483[ebp]
  0002b	e8 00 00 00 00	 call	 ??3@YAXPAX@Z		; operator delete
  00030	59		 pop	 ecx
  00031	c3		 ret	 0
__unwindfunclet$?InitHiddenCrownAni@CenterInfoWnd@@QAEXXZ$5:
  00032	ff 75 ec	 push	 DWORD PTR $T514487[ebp]
  00035	e8 00 00 00 00	 call	 ??3@YAXPAX@Z		; operator delete
  0003a	59		 pop	 ecx
  0003b	c3		 ret	 0
__ehhandler$?InitHiddenCrownAni@CenterInfoWnd@@QAEXXZ:
  0003c	8b 54 24 08	 mov	 edx, DWORD PTR [esp+8]
  00040	8d 42 0c	 lea	 eax, DWORD PTR [edx+12]
  00043	8b 4a e8	 mov	 ecx, DWORD PTR [edx-24]
  00046	33 c8		 xor	 ecx, eax
  00048	e8 00 00 00 00	 call	 @__security_check_cookie@4
  0004d	b8 00 00 00 00	 mov	 eax, OFFSET __ehfuncinfo$?InitHiddenCrownAni@CenterInfoWnd@@QAEXXZ
  00052	e9 00 00 00 00	 jmp	 ___CxxFrameHandler3
text$x	ENDS
?InitHiddenCrownAni@CenterInfoWnd@@QAEXXZ ENDP		; CenterInfoWnd::InitHiddenCrownAni
PUBLIC	?InitBossRaidAni@CenterInfoWnd@@QAEXXZ		; CenterInfoWnd::InitBossRaidAni
;	COMDAT xdata$x
xdata$x	SEGMENT
__ehfuncinfo$?InitBossRaidAni@CenterInfoWnd@@QAEXXZ DD 019930522H
	DD	06H
	DD	FLAT:__unwindtable$?InitBossRaidAni@CenterInfoWnd@@QAEXXZ
	DD	2 DUP(00H)
	DD	2 DUP(00H)
	DD	00H
	DD	01H
__unwindtable$?InitBossRaidAni@CenterInfoWnd@@QAEXXZ DD 0ffffffffH
	DD	FLAT:__unwindfunclet$?InitBossRaidAni@CenterInfoWnd@@QAEXXZ$0
	DD	0ffffffffH
	DD	FLAT:__unwindfunclet$?InitBossRaidAni@CenterInfoWnd@@QAEXXZ$1
	DD	0ffffffffH
	DD	FLAT:__unwindfunclet$?InitBossRaidAni@CenterInfoWnd@@QAEXXZ$2
	DD	0ffffffffH
	DD	FLAT:__unwindfunclet$?InitBossRaidAni@CenterInfoWnd@@QAEXXZ$3
	DD	0ffffffffH
	DD	FLAT:__unwindfunclet$?InitBossRaidAni@CenterInfoWnd@@QAEXXZ$4
	DD	0ffffffffH
	DD	FLAT:__unwindfunclet$?InitBossRaidAni@CenterInfoWnd@@QAEXXZ$5
; Function compile flags: /Ogsp
xdata$x	ENDS
;	COMDAT ?InitBossRaidAni@CenterInfoWnd@@QAEXXZ
_TEXT	SEGMENT
$T514531 = -20						; size = 4
$T514527 = -20						; size = 4
$T514523 = -20						; size = 4
$T514519 = -20						; size = 4
$T514515 = -20						; size = 4
$T514511 = -20						; size = 4
tv224 = -16						; size = 4
__$EHRec$ = -12						; size = 12
?InitBossRaidAni@CenterInfoWnd@@QAEXXZ PROC		; CenterInfoWnd::InitBossRaidAni, COMDAT
; _this$ = ecx

; 704  : {

  00000	6a 08		 push	 8
  00002	b8 00 00 00 00	 mov	 eax, __ehhandler$?InitBossRaidAni@CenterInfoWnd@@QAEXXZ
  00007	e8 00 00 00 00	 call	 __EH_prolog3

; 705  : 	enum { DELAY_DROP = 250, DELAY_SUP1 = 100, DELAY_SUP2 = 100, DELAY_LOOP = 1000000000 };
; 706  : 
; 707  : 	m_BossRaidAni.SetCurState( BRA_NONE );

  0000c	81 c1 30 03 00
	00		 add	 ecx, 816		; 00000330H
  00012	33 db		 xor	 ebx, ebx
  00014	53		 push	 ebx
  00015	89 4d f0	 mov	 DWORD PTR tv224[ebp], ecx
  00018	e8 00 00 00 00	 call	 ?SetCurState@FSMStateMgr@@QAEXH@Z ; FSMStateMgr::SetCurState

; 708  : 
; 709  : 	FSMState *pState = new FSMState( BRA_NONE );

  0001d	6a 38		 push	 56			; 00000038H
  0001f	e8 00 00 00 00	 call	 ??2@YAPAXI@Z		; operator new
  00024	59		 pop	 ecx
  00025	89 45 ec	 mov	 DWORD PTR $T514511[ebp], eax
  00028	89 5d fc	 mov	 DWORD PTR __$EHRec$[ebp+8], ebx
  0002b	3b c3		 cmp	 eax, ebx
  0002d	74 0c		 je	 SHORT $LN9@InitBossRa
  0002f	53		 push	 ebx
  00030	8b c8		 mov	 ecx, eax
  00032	e8 00 00 00 00	 call	 ??0FSMState@@QAE@H@Z	; FSMState::FSMState
  00037	8b f8		 mov	 edi, eax
  00039	eb 02		 jmp	 SHORT $LN10@InitBossRa
$LN9@InitBossRa:
  0003b	33 ff		 xor	 edi, edi
$LN10@InitBossRa:
  0003d	83 4d fc ff	 or	 DWORD PTR __$EHRec$[ebp+8], -1

; 710  : 	if( pState )

  00041	33 f6		 xor	 esi, esi
  00043	46		 inc	 esi
  00044	3b fb		 cmp	 edi, ebx
  00046	74 0b		 je	 SHORT $LN6@InitBossRa

; 711  : 		pState->Add( BRA_NONE,  BRA_START );

  00048	6a ff		 push	 -1
  0004a	56		 push	 esi
  0004b	53		 push	 ebx
  0004c	8b cf		 mov	 ecx, edi
  0004e	e8 00 00 00 00	 call	 ?Add@FSMState@@QAEXHHH@Z ; FSMState::Add
$LN6@InitBossRa:

; 712  : 	m_BossRaidAni.Add( pState );

  00053	8b 4d f0	 mov	 ecx, DWORD PTR tv224[ebp]
  00056	57		 push	 edi
  00057	e8 00 00 00 00	 call	 ?Add@FSMStateMgr@@QAEXPAVFSMState@@@Z ; FSMStateMgr::Add

; 713  : 
; 714  : 	pState = new FSMState( BRA_START );

  0005c	6a 38		 push	 56			; 00000038H
  0005e	e8 00 00 00 00	 call	 ??2@YAPAXI@Z		; operator new
  00063	59		 pop	 ecx
  00064	89 45 ec	 mov	 DWORD PTR $T514515[ebp], eax
  00067	89 75 fc	 mov	 DWORD PTR __$EHRec$[ebp+8], esi
  0006a	3b c3		 cmp	 eax, ebx
  0006c	74 0a		 je	 SHORT $LN11@InitBossRa
  0006e	56		 push	 esi
  0006f	8b c8		 mov	 ecx, eax
  00071	e8 00 00 00 00	 call	 ??0FSMState@@QAE@H@Z	; FSMState::FSMState
  00076	8b d8		 mov	 ebx, eax
$LN11@InitBossRa:
  00078	83 4d fc ff	 or	 DWORD PTR __$EHRec$[ebp+8], -1

; 715  : 	if( pState )

  0007c	6a 02		 push	 2
  0007e	5f		 pop	 edi
  0007f	85 db		 test	 ebx, ebx
  00081	74 0b		 je	 SHORT $LN5@InitBossRa

; 716  : 		pState->Add( BRA_START,  BRA_DROP, 0 );

  00083	6a 00		 push	 0
  00085	57		 push	 edi
  00086	56		 push	 esi
  00087	8b cb		 mov	 ecx, ebx
  00089	e8 00 00 00 00	 call	 ?Add@FSMState@@QAEXHHH@Z ; FSMState::Add
$LN5@InitBossRa:

; 717  : 	m_BossRaidAni.Add( pState );

  0008e	8b 4d f0	 mov	 ecx, DWORD PTR tv224[ebp]
  00091	53		 push	 ebx
  00092	e8 00 00 00 00	 call	 ?Add@FSMStateMgr@@QAEXPAVFSMState@@@Z ; FSMStateMgr::Add

; 718  : 
; 719  : 	pState = new FSMState( BRA_DROP );

  00097	6a 38		 push	 56			; 00000038H
  00099	e8 00 00 00 00	 call	 ??2@YAPAXI@Z		; operator new
  0009e	59		 pop	 ecx
  0009f	89 45 ec	 mov	 DWORD PTR $T514519[ebp], eax
  000a2	89 7d fc	 mov	 DWORD PTR __$EHRec$[ebp+8], edi
  000a5	85 c0		 test	 eax, eax
  000a7	74 0c		 je	 SHORT $LN13@InitBossRa
  000a9	57		 push	 edi
  000aa	8b c8		 mov	 ecx, eax
  000ac	e8 00 00 00 00	 call	 ??0FSMState@@QAE@H@Z	; FSMState::FSMState
  000b1	8b d8		 mov	 ebx, eax
  000b3	eb 02		 jmp	 SHORT $LN14@InitBossRa
$LN13@InitBossRa:
  000b5	33 db		 xor	 ebx, ebx
$LN14@InitBossRa:
  000b7	83 4d fc ff	 or	 DWORD PTR __$EHRec$[ebp+8], -1

; 720  : 	if( pState )

  000bb	6a 03		 push	 3
  000bd	5e		 pop	 esi
  000be	85 db		 test	 ebx, ebx
  000c0	74 0e		 je	 SHORT $LN4@InitBossRa

; 721  : 		pState->Add( BRA_DROP,  BRA_SUP1, DELAY_DROP );

  000c2	68 fa 00 00 00	 push	 250			; 000000faH
  000c7	56		 push	 esi
  000c8	57		 push	 edi
  000c9	8b cb		 mov	 ecx, ebx
  000cb	e8 00 00 00 00	 call	 ?Add@FSMState@@QAEXHHH@Z ; FSMState::Add
$LN4@InitBossRa:

; 722  : 	m_BossRaidAni.Add( pState );

  000d0	8b 4d f0	 mov	 ecx, DWORD PTR tv224[ebp]
  000d3	53		 push	 ebx
  000d4	e8 00 00 00 00	 call	 ?Add@FSMStateMgr@@QAEXPAVFSMState@@@Z ; FSMStateMgr::Add

; 723  : 
; 724  : 	pState = new FSMState( BRA_SUP1 );

  000d9	6a 38		 push	 56			; 00000038H
  000db	e8 00 00 00 00	 call	 ??2@YAPAXI@Z		; operator new
  000e0	59		 pop	 ecx
  000e1	89 45 ec	 mov	 DWORD PTR $T514523[ebp], eax
  000e4	89 75 fc	 mov	 DWORD PTR __$EHRec$[ebp+8], esi
  000e7	85 c0		 test	 eax, eax
  000e9	74 0c		 je	 SHORT $LN15@InitBossRa
  000eb	56		 push	 esi
  000ec	8b c8		 mov	 ecx, eax
  000ee	e8 00 00 00 00	 call	 ??0FSMState@@QAE@H@Z	; FSMState::FSMState
  000f3	8b d8		 mov	 ebx, eax
  000f5	eb 02		 jmp	 SHORT $LN16@InitBossRa
$LN15@InitBossRa:
  000f7	33 db		 xor	 ebx, ebx
$LN16@InitBossRa:
  000f9	83 4d fc ff	 or	 DWORD PTR __$EHRec$[ebp+8], -1

; 725  : 	if( pState )

  000fd	6a 04		 push	 4
  000ff	5f		 pop	 edi
  00100	85 db		 test	 ebx, ebx
  00102	74 0b		 je	 SHORT $LN3@InitBossRa

; 726  : 		pState->Add( BRA_SUP1,  BRA_SUP2 , DELAY_SUP1 );

  00104	6a 64		 push	 100			; 00000064H
  00106	57		 push	 edi
  00107	56		 push	 esi
  00108	8b cb		 mov	 ecx, ebx
  0010a	e8 00 00 00 00	 call	 ?Add@FSMState@@QAEXHHH@Z ; FSMState::Add
$LN3@InitBossRa:

; 727  : 	m_BossRaidAni.Add( pState );	

  0010f	8b 4d f0	 mov	 ecx, DWORD PTR tv224[ebp]
  00112	53		 push	 ebx
  00113	e8 00 00 00 00	 call	 ?Add@FSMStateMgr@@QAEXPAVFSMState@@@Z ; FSMStateMgr::Add

; 728  : 
; 729  : 	pState = new FSMState( BRA_SUP2 );

  00118	6a 38		 push	 56			; 00000038H
  0011a	e8 00 00 00 00	 call	 ??2@YAPAXI@Z		; operator new
  0011f	59		 pop	 ecx
  00120	89 45 ec	 mov	 DWORD PTR $T514527[ebp], eax
  00123	89 7d fc	 mov	 DWORD PTR __$EHRec$[ebp+8], edi
  00126	85 c0		 test	 eax, eax
  00128	74 0c		 je	 SHORT $LN17@InitBossRa
  0012a	57		 push	 edi
  0012b	8b c8		 mov	 ecx, eax
  0012d	e8 00 00 00 00	 call	 ??0FSMState@@QAE@H@Z	; FSMState::FSMState
  00132	8b d8		 mov	 ebx, eax
  00134	eb 02		 jmp	 SHORT $LN18@InitBossRa
$LN17@InitBossRa:
  00136	33 db		 xor	 ebx, ebx
$LN18@InitBossRa:
  00138	83 4d fc ff	 or	 DWORD PTR __$EHRec$[ebp+8], -1

; 730  : 	if( pState )

  0013c	6a 05		 push	 5
  0013e	5e		 pop	 esi
  0013f	85 db		 test	 ebx, ebx
  00141	74 0b		 je	 SHORT $LN2@InitBossRa

; 731  : 		pState->Add( BRA_SUP2,  BRA_LOOP , DELAY_SUP2 );

  00143	6a 64		 push	 100			; 00000064H
  00145	56		 push	 esi
  00146	57		 push	 edi
  00147	8b cb		 mov	 ecx, ebx
  00149	e8 00 00 00 00	 call	 ?Add@FSMState@@QAEXHHH@Z ; FSMState::Add
$LN2@InitBossRa:

; 732  : 	m_BossRaidAni.Add( pState );

  0014e	8b 4d f0	 mov	 ecx, DWORD PTR tv224[ebp]
  00151	53		 push	 ebx
  00152	e8 00 00 00 00	 call	 ?Add@FSMStateMgr@@QAEXPAVFSMState@@@Z ; FSMStateMgr::Add

; 733  : 
; 734  : 	pState = new FSMState( BRA_LOOP );

  00157	6a 38		 push	 56			; 00000038H
  00159	e8 00 00 00 00	 call	 ??2@YAPAXI@Z		; operator new
  0015e	59		 pop	 ecx
  0015f	89 45 ec	 mov	 DWORD PTR $T514531[ebp], eax
  00162	89 75 fc	 mov	 DWORD PTR __$EHRec$[ebp+8], esi
  00165	85 c0		 test	 eax, eax
  00167	74 0c		 je	 SHORT $LN19@InitBossRa
  00169	56		 push	 esi
  0016a	8b c8		 mov	 ecx, eax
  0016c	e8 00 00 00 00	 call	 ??0FSMState@@QAE@H@Z	; FSMState::FSMState
  00171	8b f8		 mov	 edi, eax
  00173	eb 02		 jmp	 SHORT $LN20@InitBossRa
$LN19@InitBossRa:
  00175	33 ff		 xor	 edi, edi
$LN20@InitBossRa:
  00177	83 4d fc ff	 or	 DWORD PTR __$EHRec$[ebp+8], -1

; 735  : 	if( pState )

  0017b	85 ff		 test	 edi, edi
  0017d	74 0f		 je	 SHORT $LN1@InitBossRa

; 736  : 		pState->Add( BRA_LOOP,  BRA_NONE , DELAY_LOOP );

  0017f	68 00 ca 9a 3b	 push	 1000000000		; 3b9aca00H
  00184	6a 00		 push	 0
  00186	56		 push	 esi
  00187	8b cf		 mov	 ecx, edi
  00189	e8 00 00 00 00	 call	 ?Add@FSMState@@QAEXHHH@Z ; FSMState::Add
$LN1@InitBossRa:

; 737  : 	m_BossRaidAni.Add( pState );

  0018e	8b 4d f0	 mov	 ecx, DWORD PTR tv224[ebp]
  00191	57		 push	 edi
  00192	e8 00 00 00 00	 call	 ?Add@FSMStateMgr@@QAEXPAVFSMState@@@Z ; FSMStateMgr::Add

; 738  : }

  00197	e8 00 00 00 00	 call	 __EH_epilog3
  0019c	c3		 ret	 0
_TEXT	ENDS
;	COMDAT text$x
text$x	SEGMENT
__unwindfunclet$?InitBossRaidAni@CenterInfoWnd@@QAEXXZ$0:
  00000	ff 75 ec	 push	 DWORD PTR $T514511[ebp]
  00003	e8 00 00 00 00	 call	 ??3@YAXPAX@Z		; operator delete
  00008	59		 pop	 ecx
  00009	c3		 ret	 0
__unwindfunclet$?InitBossRaidAni@CenterInfoWnd@@QAEXXZ$1:
  0000a	ff 75 ec	 push	 DWORD PTR $T514515[ebp]
  0000d	e8 00 00 00 00	 call	 ??3@YAXPAX@Z		; operator delete
  00012	59		 pop	 ecx
  00013	c3		 ret	 0
__unwindfunclet$?InitBossRaidAni@CenterInfoWnd@@QAEXXZ$2:
  00014	ff 75 ec	 push	 DWORD PTR $T514519[ebp]
  00017	e8 00 00 00 00	 call	 ??3@YAXPAX@Z		; operator delete
  0001c	59		 pop	 ecx
  0001d	c3		 ret	 0
__unwindfunclet$?InitBossRaidAni@CenterInfoWnd@@QAEXXZ$3:
  0001e	ff 75 ec	 push	 DWORD PTR $T514523[ebp]
  00021	e8 00 00 00 00	 call	 ??3@YAXPAX@Z		; operator delete
  00026	59		 pop	 ecx
  00027	c3		 ret	 0
__unwindfunclet$?InitBossRaidAni@CenterInfoWnd@@QAEXXZ$4:
  00028	ff 75 ec	 push	 DWORD PTR $T514527[ebp]
  0002b	e8 00 00 00 00	 call	 ??3@YAXPAX@Z		; operator delete
  00030	59		 pop	 ecx
  00031	c3		 ret	 0
__unwindfunclet$?InitBossRaidAni@CenterInfoWnd@@QAEXXZ$5:
  00032	ff 75 ec	 push	 DWORD PTR $T514531[ebp]
  00035	e8 00 00 00 00	 call	 ??3@YAXPAX@Z		; operator delete
  0003a	59		 pop	 ecx
  0003b	c3		 ret	 0
__ehhandler$?InitBossRaidAni@CenterInfoWnd@@QAEXXZ:
  0003c	8b 54 24 08	 mov	 edx, DWORD PTR [esp+8]
  00040	8d 42 0c	 lea	 eax, DWORD PTR [edx+12]
  00043	8b 4a e8	 mov	 ecx, DWORD PTR [edx-24]
  00046	33 c8		 xor	 ecx, eax
  00048	e8 00 00 00 00	 call	 @__security_check_cookie@4
  0004d	b8 00 00 00 00	 mov	 eax, OFFSET __ehfuncinfo$?InitBossRaidAni@CenterInfoWnd@@QAEXXZ
  00052	e9 00 00 00 00	 jmp	 ___CxxFrameHandler3
text$x	ENDS
?InitBossRaidAni@CenterInfoWnd@@QAEXXZ ENDP		; CenterInfoWnd::InitBossRaidAni
PUBLIC	?InitTeamDeathAni@CenterInfoWnd@@QAEXXZ		; CenterInfoWnd::InitTeamDeathAni
;	COMDAT xdata$x
xdata$x	SEGMENT
__ehfuncinfo$?InitTeamDeathAni@CenterInfoWnd@@QAEXXZ DD 019930522H
	DD	06H
	DD	FLAT:__unwindtable$?InitTeamDeathAni@CenterInfoWnd@@QAEXXZ
	DD	2 DUP(00H)
	DD	2 DUP(00H)
	DD	00H
	DD	01H
__unwindtable$?InitTeamDeathAni@CenterInfoWnd@@QAEXXZ DD 0ffffffffH
	DD	FLAT:__unwindfunclet$?InitTeamDeathAni@CenterInfoWnd@@QAEXXZ$0
	DD	0ffffffffH
	DD	FLAT:__unwindfunclet$?InitTeamDeathAni@CenterInfoWnd@@QAEXXZ$1
	DD	0ffffffffH
	DD	FLAT:__unwindfunclet$?InitTeamDeathAni@CenterInfoWnd@@QAEXXZ$2
	DD	0ffffffffH
	DD	FLAT:__unwindfunclet$?InitTeamDeathAni@CenterInfoWnd@@QAEXXZ$3
	DD	0ffffffffH
	DD	FLAT:__unwindfunclet$?InitTeamDeathAni@CenterInfoWnd@@QAEXXZ$4
	DD	0ffffffffH
	DD	FLAT:__unwindfunclet$?InitTeamDeathAni@CenterInfoWnd@@QAEXXZ$5
; Function compile flags: /Ogsp
xdata$x	ENDS
;	COMDAT ?InitTeamDeathAni@CenterInfoWnd@@QAEXXZ
_TEXT	SEGMENT
$T514569 = -20						; size = 4
$T514565 = -20						; size = 4
$T514561 = -20						; size = 4
$T514557 = -20						; size = 4
$T514553 = -20						; size = 4
$T514549 = -20						; size = 4
tv224 = -16						; size = 4
__$EHRec$ = -12						; size = 12
?InitTeamDeathAni@CenterInfoWnd@@QAEXXZ PROC		; CenterInfoWnd::InitTeamDeathAni, COMDAT
; _this$ = ecx

; 741  : {

  00000	6a 08		 push	 8
  00002	b8 00 00 00 00	 mov	 eax, __ehhandler$?InitTeamDeathAni@CenterInfoWnd@@QAEXXZ
  00007	e8 00 00 00 00	 call	 __EH_prolog3

; 742  : 	enum { DELAY_ROLLING = 500, DELAY_TWINKLE = 2100, DELAY_MOVE_SCORE_UI = 350, WARNING_LOOP = 1000000000 };
; 743  : 
; 744  : 	m_TeamDeathAni.SetCurState( TDA_NONE );

  0000c	81 c1 b8 03 00
	00		 add	 ecx, 952		; 000003b8H
  00012	33 db		 xor	 ebx, ebx
  00014	53		 push	 ebx
  00015	89 4d f0	 mov	 DWORD PTR tv224[ebp], ecx
  00018	e8 00 00 00 00	 call	 ?SetCurState@FSMStateMgr@@QAEXH@Z ; FSMStateMgr::SetCurState

; 745  : 
; 746  : 	FSMState *pState = new FSMState( TDA_NONE );

  0001d	6a 38		 push	 56			; 00000038H
  0001f	e8 00 00 00 00	 call	 ??2@YAPAXI@Z		; operator new
  00024	59		 pop	 ecx
  00025	89 45 ec	 mov	 DWORD PTR $T514549[ebp], eax
  00028	89 5d fc	 mov	 DWORD PTR __$EHRec$[ebp+8], ebx
  0002b	3b c3		 cmp	 eax, ebx
  0002d	74 0c		 je	 SHORT $LN9@InitTeamDe
  0002f	53		 push	 ebx
  00030	8b c8		 mov	 ecx, eax
  00032	e8 00 00 00 00	 call	 ??0FSMState@@QAE@H@Z	; FSMState::FSMState
  00037	8b f8		 mov	 edi, eax
  00039	eb 02		 jmp	 SHORT $LN10@InitTeamDe
$LN9@InitTeamDe:
  0003b	33 ff		 xor	 edi, edi
$LN10@InitTeamDe:
  0003d	83 4d fc ff	 or	 DWORD PTR __$EHRec$[ebp+8], -1

; 747  : 	if( pState )

  00041	33 f6		 xor	 esi, esi
  00043	46		 inc	 esi
  00044	3b fb		 cmp	 edi, ebx
  00046	74 0b		 je	 SHORT $LN6@InitTeamDe

; 748  : 		pState->Add( TDA_NONE,  TDA_START );

  00048	6a ff		 push	 -1
  0004a	56		 push	 esi
  0004b	53		 push	 ebx
  0004c	8b cf		 mov	 ecx, edi
  0004e	e8 00 00 00 00	 call	 ?Add@FSMState@@QAEXHHH@Z ; FSMState::Add
$LN6@InitTeamDe:

; 749  : 	m_TeamDeathAni.Add( pState );

  00053	8b 4d f0	 mov	 ecx, DWORD PTR tv224[ebp]
  00056	57		 push	 edi
  00057	e8 00 00 00 00	 call	 ?Add@FSMStateMgr@@QAEXPAVFSMState@@@Z ; FSMStateMgr::Add

; 750  : 
; 751  : 	pState = new FSMState( TDA_START );

  0005c	6a 38		 push	 56			; 00000038H
  0005e	e8 00 00 00 00	 call	 ??2@YAPAXI@Z		; operator new
  00063	59		 pop	 ecx
  00064	89 45 ec	 mov	 DWORD PTR $T514553[ebp], eax
  00067	89 75 fc	 mov	 DWORD PTR __$EHRec$[ebp+8], esi
  0006a	3b c3		 cmp	 eax, ebx
  0006c	74 0a		 je	 SHORT $LN11@InitTeamDe
  0006e	56		 push	 esi
  0006f	8b c8		 mov	 ecx, eax
  00071	e8 00 00 00 00	 call	 ??0FSMState@@QAE@H@Z	; FSMState::FSMState
  00076	8b d8		 mov	 ebx, eax
$LN11@InitTeamDe:
  00078	83 4d fc ff	 or	 DWORD PTR __$EHRec$[ebp+8], -1

; 752  : 	if( pState )

  0007c	6a 02		 push	 2
  0007e	5f		 pop	 edi
  0007f	85 db		 test	 ebx, ebx
  00081	74 0b		 je	 SHORT $LN5@InitTeamDe

; 753  : 		pState->Add( TDA_START,  TDA_ROLLING, 0 );

  00083	6a 00		 push	 0
  00085	57		 push	 edi
  00086	56		 push	 esi
  00087	8b cb		 mov	 ecx, ebx
  00089	e8 00 00 00 00	 call	 ?Add@FSMState@@QAEXHHH@Z ; FSMState::Add
$LN5@InitTeamDe:

; 754  : 	m_TeamDeathAni.Add( pState );

  0008e	8b 4d f0	 mov	 ecx, DWORD PTR tv224[ebp]
  00091	53		 push	 ebx
  00092	e8 00 00 00 00	 call	 ?Add@FSMStateMgr@@QAEXPAVFSMState@@@Z ; FSMStateMgr::Add

; 755  : 
; 756  : 	pState = new FSMState( TDA_ROLLING );

  00097	6a 38		 push	 56			; 00000038H
  00099	e8 00 00 00 00	 call	 ??2@YAPAXI@Z		; operator new
  0009e	59		 pop	 ecx
  0009f	89 45 ec	 mov	 DWORD PTR $T514557[ebp], eax
  000a2	89 7d fc	 mov	 DWORD PTR __$EHRec$[ebp+8], edi
  000a5	85 c0		 test	 eax, eax
  000a7	74 0c		 je	 SHORT $LN13@InitTeamDe
  000a9	57		 push	 edi
  000aa	8b c8		 mov	 ecx, eax
  000ac	e8 00 00 00 00	 call	 ??0FSMState@@QAE@H@Z	; FSMState::FSMState
  000b1	8b f0		 mov	 esi, eax
  000b3	eb 02		 jmp	 SHORT $LN14@InitTeamDe
$LN13@InitTeamDe:
  000b5	33 f6		 xor	 esi, esi
$LN14@InitTeamDe:
  000b7	83 4d fc ff	 or	 DWORD PTR __$EHRec$[ebp+8], -1

; 757  : 	if( pState )

  000bb	6a 03		 push	 3
  000bd	5b		 pop	 ebx
  000be	85 f6		 test	 esi, esi
  000c0	74 0e		 je	 SHORT $LN4@InitTeamDe

; 758  : 		pState->Add( TDA_ROLLING,  TDA_TWINKLE, DELAY_ROLLING );

  000c2	68 f4 01 00 00	 push	 500			; 000001f4H
  000c7	53		 push	 ebx
  000c8	57		 push	 edi
  000c9	8b ce		 mov	 ecx, esi
  000cb	e8 00 00 00 00	 call	 ?Add@FSMState@@QAEXHHH@Z ; FSMState::Add
$LN4@InitTeamDe:

; 759  : 	m_TeamDeathAni.Add( pState );

  000d0	8b 4d f0	 mov	 ecx, DWORD PTR tv224[ebp]
  000d3	56		 push	 esi
  000d4	e8 00 00 00 00	 call	 ?Add@FSMStateMgr@@QAEXPAVFSMState@@@Z ; FSMStateMgr::Add

; 760  : 
; 761  : 	pState = new FSMState( TDA_TWINKLE );

  000d9	6a 38		 push	 56			; 00000038H
  000db	e8 00 00 00 00	 call	 ??2@YAPAXI@Z		; operator new
  000e0	59		 pop	 ecx
  000e1	89 45 ec	 mov	 DWORD PTR $T514561[ebp], eax
  000e4	89 5d fc	 mov	 DWORD PTR __$EHRec$[ebp+8], ebx
  000e7	85 c0		 test	 eax, eax
  000e9	74 0c		 je	 SHORT $LN15@InitTeamDe
  000eb	53		 push	 ebx
  000ec	8b c8		 mov	 ecx, eax
  000ee	e8 00 00 00 00	 call	 ??0FSMState@@QAE@H@Z	; FSMState::FSMState
  000f3	8b f8		 mov	 edi, eax
  000f5	eb 02		 jmp	 SHORT $LN16@InitTeamDe
$LN15@InitTeamDe:
  000f7	33 ff		 xor	 edi, edi
$LN16@InitTeamDe:
  000f9	83 4d fc ff	 or	 DWORD PTR __$EHRec$[ebp+8], -1

; 762  : 	if( pState )

  000fd	6a 04		 push	 4
  000ff	5e		 pop	 esi
  00100	85 ff		 test	 edi, edi
  00102	74 0e		 je	 SHORT $LN3@InitTeamDe

; 763  : 		pState->Add( TDA_TWINKLE,  TDA_MOVE_SCORE_UI , DELAY_TWINKLE );

  00104	68 34 08 00 00	 push	 2100			; 00000834H
  00109	56		 push	 esi
  0010a	53		 push	 ebx
  0010b	8b cf		 mov	 ecx, edi
  0010d	e8 00 00 00 00	 call	 ?Add@FSMState@@QAEXHHH@Z ; FSMState::Add
$LN3@InitTeamDe:

; 764  : 	m_TeamDeathAni.Add( pState );	

  00112	8b 4d f0	 mov	 ecx, DWORD PTR tv224[ebp]
  00115	57		 push	 edi
  00116	e8 00 00 00 00	 call	 ?Add@FSMStateMgr@@QAEXPAVFSMState@@@Z ; FSMStateMgr::Add

; 765  : 
; 766  : 	pState = new FSMState( TDA_MOVE_SCORE_UI );

  0011b	6a 38		 push	 56			; 00000038H
  0011d	e8 00 00 00 00	 call	 ??2@YAPAXI@Z		; operator new
  00122	59		 pop	 ecx
  00123	89 45 ec	 mov	 DWORD PTR $T514565[ebp], eax
  00126	89 75 fc	 mov	 DWORD PTR __$EHRec$[ebp+8], esi
  00129	85 c0		 test	 eax, eax
  0012b	74 0c		 je	 SHORT $LN17@InitTeamDe
  0012d	56		 push	 esi
  0012e	8b c8		 mov	 ecx, eax
  00130	e8 00 00 00 00	 call	 ??0FSMState@@QAE@H@Z	; FSMState::FSMState
  00135	8b f8		 mov	 edi, eax
  00137	eb 02		 jmp	 SHORT $LN18@InitTeamDe
$LN17@InitTeamDe:
  00139	33 ff		 xor	 edi, edi
$LN18@InitTeamDe:
  0013b	83 4d fc ff	 or	 DWORD PTR __$EHRec$[ebp+8], -1

; 767  : 	if( pState )

  0013f	85 ff		 test	 edi, edi
  00141	74 0f		 je	 SHORT $LN2@InitTeamDe

; 768  : 		pState->Add( TDA_MOVE_SCORE_UI,  TDA_NONE , DELAY_MOVE_SCORE_UI );

  00143	68 5e 01 00 00	 push	 350			; 0000015eH
  00148	6a 00		 push	 0
  0014a	56		 push	 esi
  0014b	8b cf		 mov	 ecx, edi
  0014d	e8 00 00 00 00	 call	 ?Add@FSMState@@QAEXHHH@Z ; FSMState::Add
$LN2@InitTeamDe:

; 769  : 	m_TeamDeathAni.Add( pState );

  00152	8b 4d f0	 mov	 ecx, DWORD PTR tv224[ebp]
  00155	57		 push	 edi
  00156	e8 00 00 00 00	 call	 ?Add@FSMStateMgr@@QAEXPAVFSMState@@@Z ; FSMStateMgr::Add

; 770  : 
; 771  : 	pState = new FSMState( TDA_WARNING_SCORE );

  0015b	6a 38		 push	 56			; 00000038H
  0015d	e8 00 00 00 00	 call	 ??2@YAPAXI@Z		; operator new
  00162	59		 pop	 ecx
  00163	89 45 ec	 mov	 DWORD PTR $T514569[ebp], eax
  00166	6a 05		 push	 5
  00168	5e		 pop	 esi
  00169	89 75 fc	 mov	 DWORD PTR __$EHRec$[ebp+8], esi
  0016c	85 c0		 test	 eax, eax
  0016e	74 0c		 je	 SHORT $LN19@InitTeamDe
  00170	56		 push	 esi
  00171	8b c8		 mov	 ecx, eax
  00173	e8 00 00 00 00	 call	 ??0FSMState@@QAE@H@Z	; FSMState::FSMState
  00178	8b f8		 mov	 edi, eax
  0017a	eb 02		 jmp	 SHORT $LN20@InitTeamDe
$LN19@InitTeamDe:
  0017c	33 ff		 xor	 edi, edi
$LN20@InitTeamDe:
  0017e	83 4d fc ff	 or	 DWORD PTR __$EHRec$[ebp+8], -1

; 772  : 	if( pState )

  00182	85 ff		 test	 edi, edi
  00184	74 0f		 je	 SHORT $LN1@InitTeamDe

; 773  : 		pState->Add( TDA_WARNING_SCORE,  TDA_NONE , WARNING_LOOP );

  00186	68 00 ca 9a 3b	 push	 1000000000		; 3b9aca00H
  0018b	6a 00		 push	 0
  0018d	56		 push	 esi
  0018e	8b cf		 mov	 ecx, edi
  00190	e8 00 00 00 00	 call	 ?Add@FSMState@@QAEXHHH@Z ; FSMState::Add
$LN1@InitTeamDe:

; 774  : 	m_TeamDeathAni.Add( pState );

  00195	8b 4d f0	 mov	 ecx, DWORD PTR tv224[ebp]
  00198	57		 push	 edi
  00199	e8 00 00 00 00	 call	 ?Add@FSMStateMgr@@QAEXPAVFSMState@@@Z ; FSMStateMgr::Add

; 775  : }

  0019e	e8 00 00 00 00	 call	 __EH_epilog3
  001a3	c3		 ret	 0
_TEXT	ENDS
;	COMDAT text$x
text$x	SEGMENT
__unwindfunclet$?InitTeamDeathAni@CenterInfoWnd@@QAEXXZ$0:
  00000	ff 75 ec	 push	 DWORD PTR $T514549[ebp]
  00003	e8 00 00 00 00	 call	 ??3@YAXPAX@Z		; operator delete
  00008	59		 pop	 ecx
  00009	c3		 ret	 0
__unwindfunclet$?InitTeamDeathAni@CenterInfoWnd@@QAEXXZ$1:
  0000a	ff 75 ec	 push	 DWORD PTR $T514553[ebp]
  0000d	e8 00 00 00 00	 call	 ??3@YAXPAX@Z		; operator delete
  00012	59		 pop	 ecx
  00013	c3		 ret	 0
__unwindfunclet$?InitTeamDeathAni@CenterInfoWnd@@QAEXXZ$2:
  00014	ff 75 ec	 push	 DWORD PTR $T514557[ebp]
  00017	e8 00 00 00 00	 call	 ??3@YAXPAX@Z		; operator delete
  0001c	59		 pop	 ecx
  0001d	c3		 ret	 0
__unwindfunclet$?InitTeamDeathAni@CenterInfoWnd@@QAEXXZ$3:
  0001e	ff 75 ec	 push	 DWORD PTR $T514561[ebp]
  00021	e8 00 00 00 00	 call	 ??3@YAXPAX@Z		; operator delete
  00026	59		 pop	 ecx
  00027	c3		 ret	 0
__unwindfunclet$?InitTeamDeathAni@CenterInfoWnd@@QAEXXZ$4:
  00028	ff 75 ec	 push	 DWORD PTR $T514565[ebp]
  0002b	e8 00 00 00 00	 call	 ??3@YAXPAX@Z		; operator delete
  00030	59		 pop	 ecx
  00031	c3		 ret	 0
__unwindfunclet$?InitTeamDeathAni@CenterInfoWnd@@QAEXXZ$5:
  00032	ff 75 ec	 push	 DWORD PTR $T514569[ebp]
  00035	e8 00 00 00 00	 call	 ??3@YAXPAX@Z		; operator delete
  0003a	59		 pop	 ecx
  0003b	c3		 ret	 0
__ehhandler$?InitTeamDeathAni@CenterInfoWnd@@QAEXXZ:
  0003c	8b 54 24 08	 mov	 edx, DWORD PTR [esp+8]
  00040	8d 42 0c	 lea	 eax, DWORD PTR [edx+12]
  00043	8b 4a e8	 mov	 ecx, DWORD PTR [edx-24]
  00046	33 c8		 xor	 ecx, eax
  00048	e8 00 00 00 00	 call	 @__security_check_cookie@4
  0004d	b8 00 00 00 00	 mov	 eax, OFFSET __ehfuncinfo$?InitTeamDeathAni@CenterInfoWnd@@QAEXXZ
  00052	e9 00 00 00 00	 jmp	 ___CxxFrameHandler3
text$x	ENDS
?InitTeamDeathAni@CenterInfoWnd@@QAEXXZ ENDP		; CenterInfoWnd::InitTeamDeathAni
PUBLIC	?InitDeathMatchAni@CenterInfoWnd@@QAEXXZ	; CenterInfoWnd::InitDeathMatchAni
;	COMDAT xdata$x
xdata$x	SEGMENT
__ehfuncinfo$?InitDeathMatchAni@CenterInfoWnd@@QAEXXZ DD 019930522H
	DD	06H
	DD	FLAT:__unwindtable$?InitDeathMatchAni@CenterInfoWnd@@QAEXXZ
	DD	2 DUP(00H)
	DD	2 DUP(00H)
	DD	00H
	DD	01H
__unwindtable$?InitDeathMatchAni@CenterInfoWnd@@QAEXXZ DD 0ffffffffH
	DD	FLAT:__unwindfunclet$?InitDeathMatchAni@CenterInfoWnd@@QAEXXZ$0
	DD	0ffffffffH
	DD	FLAT:__unwindfunclet$?InitDeathMatchAni@CenterInfoWnd@@QAEXXZ$1
	DD	0ffffffffH
	DD	FLAT:__unwindfunclet$?InitDeathMatchAni@CenterInfoWnd@@QAEXXZ$2
	DD	0ffffffffH
	DD	FLAT:__unwindfunclet$?InitDeathMatchAni@CenterInfoWnd@@QAEXXZ$3
	DD	0ffffffffH
	DD	FLAT:__unwindfunclet$?InitDeathMatchAni@CenterInfoWnd@@QAEXXZ$4
	DD	0ffffffffH
	DD	FLAT:__unwindfunclet$?InitDeathMatchAni@CenterInfoWnd@@QAEXXZ$5
; Function compile flags: /Ogsp
xdata$x	ENDS
;	COMDAT ?InitDeathMatchAni@CenterInfoWnd@@QAEXXZ
_TEXT	SEGMENT
$T514607 = -20						; size = 4
$T514603 = -20						; size = 4
$T514599 = -20						; size = 4
$T514595 = -20						; size = 4
$T514591 = -20						; size = 4
$T514587 = -20						; size = 4
tv224 = -16						; size = 4
__$EHRec$ = -12						; size = 12
?InitDeathMatchAni@CenterInfoWnd@@QAEXXZ PROC		; CenterInfoWnd::InitDeathMatchAni, COMDAT
; _this$ = ecx

; 778  : {

  00000	6a 08		 push	 8
  00002	b8 00 00 00 00	 mov	 eax, __ehhandler$?InitDeathMatchAni@CenterInfoWnd@@QAEXXZ
  00007	e8 00 00 00 00	 call	 __EH_prolog3

; 779  : 	enum { DELAY_ROLLING = 500, DELAY_TWINKLE = 2100, DELAY_MOVE_SCORE_UI = 350, WARNING_LOOP = 1000000000 };
; 780  : 
; 781  : 	m_DeathMatchAni.SetCurState( DMA_NONE );

  0000c	81 c1 1c 04 00
	00		 add	 ecx, 1052		; 0000041cH
  00012	33 db		 xor	 ebx, ebx
  00014	53		 push	 ebx
  00015	89 4d f0	 mov	 DWORD PTR tv224[ebp], ecx
  00018	e8 00 00 00 00	 call	 ?SetCurState@FSMStateMgr@@QAEXH@Z ; FSMStateMgr::SetCurState

; 782  : 
; 783  : 	FSMState *pState = new FSMState( DMA_NONE );

  0001d	6a 38		 push	 56			; 00000038H
  0001f	e8 00 00 00 00	 call	 ??2@YAPAXI@Z		; operator new
  00024	59		 pop	 ecx
  00025	89 45 ec	 mov	 DWORD PTR $T514587[ebp], eax
  00028	89 5d fc	 mov	 DWORD PTR __$EHRec$[ebp+8], ebx
  0002b	3b c3		 cmp	 eax, ebx
  0002d	74 0c		 je	 SHORT $LN9@InitDeathM
  0002f	53		 push	 ebx
  00030	8b c8		 mov	 ecx, eax
  00032	e8 00 00 00 00	 call	 ??0FSMState@@QAE@H@Z	; FSMState::FSMState
  00037	8b f8		 mov	 edi, eax
  00039	eb 02		 jmp	 SHORT $LN10@InitDeathM
$LN9@InitDeathM:
  0003b	33 ff		 xor	 edi, edi
$LN10@InitDeathM:
  0003d	83 4d fc ff	 or	 DWORD PTR __$EHRec$[ebp+8], -1

; 784  : 	if( pState )

  00041	33 f6		 xor	 esi, esi
  00043	46		 inc	 esi
  00044	3b fb		 cmp	 edi, ebx
  00046	74 0b		 je	 SHORT $LN6@InitDeathM

; 785  : 		pState->Add( DMA_NONE,  DMA_START );

  00048	6a ff		 push	 -1
  0004a	56		 push	 esi
  0004b	53		 push	 ebx
  0004c	8b cf		 mov	 ecx, edi
  0004e	e8 00 00 00 00	 call	 ?Add@FSMState@@QAEXHHH@Z ; FSMState::Add
$LN6@InitDeathM:

; 786  : 	m_DeathMatchAni.Add( pState );

  00053	8b 4d f0	 mov	 ecx, DWORD PTR tv224[ebp]
  00056	57		 push	 edi
  00057	e8 00 00 00 00	 call	 ?Add@FSMStateMgr@@QAEXPAVFSMState@@@Z ; FSMStateMgr::Add

; 787  : 
; 788  : 	pState = new FSMState( DMA_START );

  0005c	6a 38		 push	 56			; 00000038H
  0005e	e8 00 00 00 00	 call	 ??2@YAPAXI@Z		; operator new
  00063	59		 pop	 ecx
  00064	89 45 ec	 mov	 DWORD PTR $T514591[ebp], eax
  00067	89 75 fc	 mov	 DWORD PTR __$EHRec$[ebp+8], esi
  0006a	3b c3		 cmp	 eax, ebx
  0006c	74 0a		 je	 SHORT $LN11@InitDeathM
  0006e	56		 push	 esi
  0006f	8b c8		 mov	 ecx, eax
  00071	e8 00 00 00 00	 call	 ??0FSMState@@QAE@H@Z	; FSMState::FSMState
  00076	8b d8		 mov	 ebx, eax
$LN11@InitDeathM:
  00078	83 4d fc ff	 or	 DWORD PTR __$EHRec$[ebp+8], -1

; 789  : 	if( pState )

  0007c	6a 02		 push	 2
  0007e	5f		 pop	 edi
  0007f	85 db		 test	 ebx, ebx
  00081	74 0b		 je	 SHORT $LN5@InitDeathM

; 790  : 		pState->Add( DMA_START,  DMA_ROLLING, 0 );

  00083	6a 00		 push	 0
  00085	57		 push	 edi
  00086	56		 push	 esi
  00087	8b cb		 mov	 ecx, ebx
  00089	e8 00 00 00 00	 call	 ?Add@FSMState@@QAEXHHH@Z ; FSMState::Add
$LN5@InitDeathM:

; 791  : 	m_DeathMatchAni.Add( pState );

  0008e	8b 4d f0	 mov	 ecx, DWORD PTR tv224[ebp]
  00091	53		 push	 ebx
  00092	e8 00 00 00 00	 call	 ?Add@FSMStateMgr@@QAEXPAVFSMState@@@Z ; FSMStateMgr::Add

; 792  : 
; 793  : 	pState = new FSMState( DMA_ROLLING );

  00097	6a 38		 push	 56			; 00000038H
  00099	e8 00 00 00 00	 call	 ??2@YAPAXI@Z		; operator new
  0009e	59		 pop	 ecx
  0009f	89 45 ec	 mov	 DWORD PTR $T514595[ebp], eax
  000a2	89 7d fc	 mov	 DWORD PTR __$EHRec$[ebp+8], edi
  000a5	85 c0		 test	 eax, eax
  000a7	74 0c		 je	 SHORT $LN13@InitDeathM
  000a9	57		 push	 edi
  000aa	8b c8		 mov	 ecx, eax
  000ac	e8 00 00 00 00	 call	 ??0FSMState@@QAE@H@Z	; FSMState::FSMState
  000b1	8b f0		 mov	 esi, eax
  000b3	eb 02		 jmp	 SHORT $LN14@InitDeathM
$LN13@InitDeathM:
  000b5	33 f6		 xor	 esi, esi
$LN14@InitDeathM:
  000b7	83 4d fc ff	 or	 DWORD PTR __$EHRec$[ebp+8], -1

; 794  : 	if( pState )

  000bb	6a 03		 push	 3
  000bd	5b		 pop	 ebx
  000be	85 f6		 test	 esi, esi
  000c0	74 0e		 je	 SHORT $LN4@InitDeathM

; 795  : 		pState->Add( DMA_ROLLING,  DMA_TWINKLE, DELAY_ROLLING );

  000c2	68 f4 01 00 00	 push	 500			; 000001f4H
  000c7	53		 push	 ebx
  000c8	57		 push	 edi
  000c9	8b ce		 mov	 ecx, esi
  000cb	e8 00 00 00 00	 call	 ?Add@FSMState@@QAEXHHH@Z ; FSMState::Add
$LN4@InitDeathM:

; 796  : 	m_DeathMatchAni.Add( pState );

  000d0	8b 4d f0	 mov	 ecx, DWORD PTR tv224[ebp]
  000d3	56		 push	 esi
  000d4	e8 00 00 00 00	 call	 ?Add@FSMStateMgr@@QAEXPAVFSMState@@@Z ; FSMStateMgr::Add

; 797  : 
; 798  : 	pState = new FSMState( DMA_TWINKLE );

  000d9	6a 38		 push	 56			; 00000038H
  000db	e8 00 00 00 00	 call	 ??2@YAPAXI@Z		; operator new
  000e0	59		 pop	 ecx
  000e1	89 45 ec	 mov	 DWORD PTR $T514599[ebp], eax
  000e4	89 5d fc	 mov	 DWORD PTR __$EHRec$[ebp+8], ebx
  000e7	85 c0		 test	 eax, eax
  000e9	74 0c		 je	 SHORT $LN15@InitDeathM
  000eb	53		 push	 ebx
  000ec	8b c8		 mov	 ecx, eax
  000ee	e8 00 00 00 00	 call	 ??0FSMState@@QAE@H@Z	; FSMState::FSMState
  000f3	8b f8		 mov	 edi, eax
  000f5	eb 02		 jmp	 SHORT $LN16@InitDeathM
$LN15@InitDeathM:
  000f7	33 ff		 xor	 edi, edi
$LN16@InitDeathM:
  000f9	83 4d fc ff	 or	 DWORD PTR __$EHRec$[ebp+8], -1

; 799  : 	if( pState )

  000fd	6a 04		 push	 4
  000ff	5e		 pop	 esi
  00100	85 ff		 test	 edi, edi
  00102	74 0e		 je	 SHORT $LN3@InitDeathM

; 800  : 		pState->Add( DMA_TWINKLE,  DMA_MOVE_SCORE_UI , DELAY_TWINKLE );

  00104	68 34 08 00 00	 push	 2100			; 00000834H
  00109	56		 push	 esi
  0010a	53		 push	 ebx
  0010b	8b cf		 mov	 ecx, edi
  0010d	e8 00 00 00 00	 call	 ?Add@FSMState@@QAEXHHH@Z ; FSMState::Add
$LN3@InitDeathM:

; 801  : 	m_DeathMatchAni.Add( pState );	

  00112	8b 4d f0	 mov	 ecx, DWORD PTR tv224[ebp]
  00115	57		 push	 edi
  00116	e8 00 00 00 00	 call	 ?Add@FSMStateMgr@@QAEXPAVFSMState@@@Z ; FSMStateMgr::Add

; 802  : 
; 803  : 	pState = new FSMState( DMA_MOVE_SCORE_UI );

  0011b	6a 38		 push	 56			; 00000038H
  0011d	e8 00 00 00 00	 call	 ??2@YAPAXI@Z		; operator new
  00122	59		 pop	 ecx
  00123	89 45 ec	 mov	 DWORD PTR $T514603[ebp], eax
  00126	89 75 fc	 mov	 DWORD PTR __$EHRec$[ebp+8], esi
  00129	85 c0		 test	 eax, eax
  0012b	74 0c		 je	 SHORT $LN17@InitDeathM
  0012d	56		 push	 esi
  0012e	8b c8		 mov	 ecx, eax
  00130	e8 00 00 00 00	 call	 ??0FSMState@@QAE@H@Z	; FSMState::FSMState
  00135	8b f8		 mov	 edi, eax
  00137	eb 02		 jmp	 SHORT $LN18@InitDeathM
$LN17@InitDeathM:
  00139	33 ff		 xor	 edi, edi
$LN18@InitDeathM:
  0013b	83 4d fc ff	 or	 DWORD PTR __$EHRec$[ebp+8], -1

; 804  : 	if( pState )

  0013f	85 ff		 test	 edi, edi
  00141	74 0f		 je	 SHORT $LN2@InitDeathM

; 805  : 		pState->Add( DMA_MOVE_SCORE_UI, DMA_NONE , DELAY_MOVE_SCORE_UI );

  00143	68 5e 01 00 00	 push	 350			; 0000015eH
  00148	6a 00		 push	 0
  0014a	56		 push	 esi
  0014b	8b cf		 mov	 ecx, edi
  0014d	e8 00 00 00 00	 call	 ?Add@FSMState@@QAEXHHH@Z ; FSMState::Add
$LN2@InitDeathM:

; 806  : 	m_DeathMatchAni.Add( pState );

  00152	8b 4d f0	 mov	 ecx, DWORD PTR tv224[ebp]
  00155	57		 push	 edi
  00156	e8 00 00 00 00	 call	 ?Add@FSMStateMgr@@QAEXPAVFSMState@@@Z ; FSMStateMgr::Add

; 807  : 
; 808  : 	pState = new FSMState( DMA_WARNING_TIME );

  0015b	6a 38		 push	 56			; 00000038H
  0015d	e8 00 00 00 00	 call	 ??2@YAPAXI@Z		; operator new
  00162	59		 pop	 ecx
  00163	89 45 ec	 mov	 DWORD PTR $T514607[ebp], eax
  00166	6a 05		 push	 5
  00168	5e		 pop	 esi
  00169	89 75 fc	 mov	 DWORD PTR __$EHRec$[ebp+8], esi
  0016c	85 c0		 test	 eax, eax
  0016e	74 0c		 je	 SHORT $LN19@InitDeathM
  00170	56		 push	 esi
  00171	8b c8		 mov	 ecx, eax
  00173	e8 00 00 00 00	 call	 ??0FSMState@@QAE@H@Z	; FSMState::FSMState
  00178	8b f8		 mov	 edi, eax
  0017a	eb 02		 jmp	 SHORT $LN20@InitDeathM
$LN19@InitDeathM:
  0017c	33 ff		 xor	 edi, edi
$LN20@InitDeathM:
  0017e	83 4d fc ff	 or	 DWORD PTR __$EHRec$[ebp+8], -1

; 809  : 	if( pState )

  00182	85 ff		 test	 edi, edi
  00184	74 0f		 je	 SHORT $LN1@InitDeathM

; 810  : 		pState->Add( DMA_WARNING_TIME, DMA_NONE , WARNING_LOOP );

  00186	68 00 ca 9a 3b	 push	 1000000000		; 3b9aca00H
  0018b	6a 00		 push	 0
  0018d	56		 push	 esi
  0018e	8b cf		 mov	 ecx, edi
  00190	e8 00 00 00 00	 call	 ?Add@FSMState@@QAEXHHH@Z ; FSMState::Add
$LN1@InitDeathM:

; 811  : 	m_DeathMatchAni.Add( pState );

  00195	8b 4d f0	 mov	 ecx, DWORD PTR tv224[ebp]
  00198	57		 push	 edi
  00199	e8 00 00 00 00	 call	 ?Add@FSMStateMgr@@QAEXPAVFSMState@@@Z ; FSMStateMgr::Add

; 812  : }

  0019e	e8 00 00 00 00	 call	 __EH_epilog3
  001a3	c3		 ret	 0
_TEXT	ENDS
;	COMDAT text$x
text$x	SEGMENT
__unwindfunclet$?InitDeathMatchAni@CenterInfoWnd@@QAEXXZ$0:
  00000	ff 75 ec	 push	 DWORD PTR $T514587[ebp]
  00003	e8 00 00 00 00	 call	 ??3@YAXPAX@Z		; operator delete
  00008	59		 pop	 ecx
  00009	c3		 ret	 0
__unwindfunclet$?InitDeathMatchAni@CenterInfoWnd@@QAEXXZ$1:
  0000a	ff 75 ec	 push	 DWORD PTR $T514591[ebp]
  0000d	e8 00 00 00 00	 call	 ??3@YAXPAX@Z		; operator delete
  00012	59		 pop	 ecx
  00013	c3		 ret	 0
__unwindfunclet$?InitDeathMatchAni@CenterInfoWnd@@QAEXXZ$2:
  00014	ff 75 ec	 push	 DWORD PTR $T514595[ebp]
  00017	e8 00 00 00 00	 call	 ??3@YAXPAX@Z		; operator delete
  0001c	59		 pop	 ecx
  0001d	c3		 ret	 0
__unwindfunclet$?InitDeathMatchAni@CenterInfoWnd@@QAEXXZ$3:
  0001e	ff 75 ec	 push	 DWORD PTR $T514599[ebp]
  00021	e8 00 00 00 00	 call	 ??3@YAXPAX@Z		; operator delete
  00026	59		 pop	 ecx
  00027	c3		 ret	 0
__unwindfunclet$?InitDeathMatchAni@CenterInfoWnd@@QAEXXZ$4:
  00028	ff 75 ec	 push	 DWORD PTR $T514603[ebp]
  0002b	e8 00 00 00 00	 call	 ??3@YAXPAX@Z		; operator delete
  00030	59		 pop	 ecx
  00031	c3		 ret	 0
__unwindfunclet$?InitDeathMatchAni@CenterInfoWnd@@QAEXXZ$5:
  00032	ff 75 ec	 push	 DWORD PTR $T514607[ebp]
  00035	e8 00 00 00 00	 call	 ??3@YAXPAX@Z		; operator delete
  0003a	59		 pop	 ecx
  0003b	c3		 ret	 0
__ehhandler$?InitDeathMatchAni@CenterInfoWnd@@QAEXXZ:
  0003c	8b 54 24 08	 mov	 edx, DWORD PTR [esp+8]
  00040	8d 42 0c	 lea	 eax, DWORD PTR [edx+12]
  00043	8b 4a e8	 mov	 ecx, DWORD PTR [edx-24]
  00046	33 c8		 xor	 ecx, eax
  00048	e8 00 00 00 00	 call	 @__security_check_cookie@4
  0004d	b8 00 00 00 00	 mov	 eax, OFFSET __ehfuncinfo$?InitDeathMatchAni@CenterInfoWnd@@QAEXXZ
  00052	e9 00 00 00 00	 jmp	 ___CxxFrameHandler3
text$x	ENDS
?InitDeathMatchAni@CenterInfoWnd@@QAEXXZ ENDP		; CenterInfoWnd::InitDeathMatchAni
PUBLIC	?InitSymbolGaugeAni@CenterInfoWnd@@QAEXXZ	; CenterInfoWnd::InitSymbolGaugeAni
;	COMDAT xdata$x
xdata$x	SEGMENT
__ehfuncinfo$?InitSymbolGaugeAni@CenterInfoWnd@@QAEXXZ DD 019930522H
	DD	06H
	DD	FLAT:__unwindtable$?InitSymbolGaugeAni@CenterInfoWnd@@QAEXXZ
	DD	2 DUP(00H)
	DD	2 DUP(00H)
	DD	00H
	DD	01H
__unwindtable$?InitSymbolGaugeAni@CenterInfoWnd@@QAEXXZ DD 0ffffffffH
	DD	FLAT:__unwindfunclet$?InitSymbolGaugeAni@CenterInfoWnd@@QAEXXZ$0
	DD	0ffffffffH
	DD	FLAT:__unwindfunclet$?InitSymbolGaugeAni@CenterInfoWnd@@QAEXXZ$1
	DD	0ffffffffH
	DD	FLAT:__unwindfunclet$?InitSymbolGaugeAni@CenterInfoWnd@@QAEXXZ$2
	DD	0ffffffffH
	DD	FLAT:__unwindfunclet$?InitSymbolGaugeAni@CenterInfoWnd@@QAEXXZ$3
	DD	0ffffffffH
	DD	FLAT:__unwindfunclet$?InitSymbolGaugeAni@CenterInfoWnd@@QAEXXZ$4
	DD	0ffffffffH
	DD	FLAT:__unwindfunclet$?InitSymbolGaugeAni@CenterInfoWnd@@QAEXXZ$5
; Function compile flags: /Ogsp
xdata$x	ENDS
;	COMDAT ?InitSymbolGaugeAni@CenterInfoWnd@@QAEXXZ
_TEXT	SEGMENT
$T514645 = -20						; size = 4
$T514641 = -20						; size = 4
$T514637 = -20						; size = 4
$T514633 = -20						; size = 4
$T514629 = -20						; size = 4
$T514625 = -20						; size = 4
tv224 = -16						; size = 4
__$EHRec$ = -12						; size = 12
?InitSymbolGaugeAni@CenterInfoWnd@@QAEXXZ PROC		; CenterInfoWnd::InitSymbolGaugeAni, COMDAT
; _this$ = ecx

; 897  : {

  00000	6a 08		 push	 8
  00002	b8 00 00 00 00	 mov	 eax, __ehhandler$?InitSymbolGaugeAni@CenterInfoWnd@@QAEXXZ
  00007	e8 00 00 00 00	 call	 __EH_prolog3

; 898  : 	enum { DELAY_DROP = 250, DELAY_SUP1 = 100, DELAY_SUP2 = 100, DELAY_LOOP = 1000000000 };
; 899  : 
; 900  : 	m_SymbolGaugeAni.SetCurState( SGA_NONE );

  0000c	81 c1 c0 02 00
	00		 add	 ecx, 704		; 000002c0H
  00012	33 db		 xor	 ebx, ebx
  00014	53		 push	 ebx
  00015	89 4d f0	 mov	 DWORD PTR tv224[ebp], ecx
  00018	e8 00 00 00 00	 call	 ?SetCurState@FSMStateMgr@@QAEXH@Z ; FSMStateMgr::SetCurState

; 901  : 
; 902  : 	FSMState *pState = new FSMState( SGA_NONE );

  0001d	6a 38		 push	 56			; 00000038H
  0001f	e8 00 00 00 00	 call	 ??2@YAPAXI@Z		; operator new
  00024	59		 pop	 ecx
  00025	89 45 ec	 mov	 DWORD PTR $T514625[ebp], eax
  00028	89 5d fc	 mov	 DWORD PTR __$EHRec$[ebp+8], ebx
  0002b	3b c3		 cmp	 eax, ebx
  0002d	74 0c		 je	 SHORT $LN9@InitSymbol
  0002f	53		 push	 ebx
  00030	8b c8		 mov	 ecx, eax
  00032	e8 00 00 00 00	 call	 ??0FSMState@@QAE@H@Z	; FSMState::FSMState
  00037	8b f8		 mov	 edi, eax
  00039	eb 02		 jmp	 SHORT $LN10@InitSymbol
$LN9@InitSymbol:
  0003b	33 ff		 xor	 edi, edi
$LN10@InitSymbol:
  0003d	83 4d fc ff	 or	 DWORD PTR __$EHRec$[ebp+8], -1

; 903  : 	if( pState )

  00041	33 f6		 xor	 esi, esi
  00043	46		 inc	 esi
  00044	3b fb		 cmp	 edi, ebx
  00046	74 0b		 je	 SHORT $LN6@InitSymbol

; 904  : 		pState->Add( SGA_NONE, SGA_START );

  00048	6a ff		 push	 -1
  0004a	56		 push	 esi
  0004b	53		 push	 ebx
  0004c	8b cf		 mov	 ecx, edi
  0004e	e8 00 00 00 00	 call	 ?Add@FSMState@@QAEXHHH@Z ; FSMState::Add
$LN6@InitSymbol:

; 905  : 	m_SymbolGaugeAni.Add( pState );

  00053	8b 4d f0	 mov	 ecx, DWORD PTR tv224[ebp]
  00056	57		 push	 edi
  00057	e8 00 00 00 00	 call	 ?Add@FSMStateMgr@@QAEXPAVFSMState@@@Z ; FSMStateMgr::Add

; 906  : 
; 907  : 	pState = new FSMState( SGA_START );

  0005c	6a 38		 push	 56			; 00000038H
  0005e	e8 00 00 00 00	 call	 ??2@YAPAXI@Z		; operator new
  00063	59		 pop	 ecx
  00064	89 45 ec	 mov	 DWORD PTR $T514629[ebp], eax
  00067	89 75 fc	 mov	 DWORD PTR __$EHRec$[ebp+8], esi
  0006a	3b c3		 cmp	 eax, ebx
  0006c	74 0a		 je	 SHORT $LN11@InitSymbol
  0006e	56		 push	 esi
  0006f	8b c8		 mov	 ecx, eax
  00071	e8 00 00 00 00	 call	 ??0FSMState@@QAE@H@Z	; FSMState::FSMState
  00076	8b d8		 mov	 ebx, eax
$LN11@InitSymbol:
  00078	83 4d fc ff	 or	 DWORD PTR __$EHRec$[ebp+8], -1

; 908  : 	if( pState )

  0007c	6a 02		 push	 2
  0007e	5f		 pop	 edi
  0007f	85 db		 test	 ebx, ebx
  00081	74 0b		 je	 SHORT $LN5@InitSymbol

; 909  : 		pState->Add( SGA_START, SGA_DROP, 0 );

  00083	6a 00		 push	 0
  00085	57		 push	 edi
  00086	56		 push	 esi
  00087	8b cb		 mov	 ecx, ebx
  00089	e8 00 00 00 00	 call	 ?Add@FSMState@@QAEXHHH@Z ; FSMState::Add
$LN5@InitSymbol:

; 910  : 	m_SymbolGaugeAni.Add( pState );

  0008e	8b 4d f0	 mov	 ecx, DWORD PTR tv224[ebp]
  00091	53		 push	 ebx
  00092	e8 00 00 00 00	 call	 ?Add@FSMStateMgr@@QAEXPAVFSMState@@@Z ; FSMStateMgr::Add

; 911  : 
; 912  : 	pState = new FSMState( SGA_DROP );

  00097	6a 38		 push	 56			; 00000038H
  00099	e8 00 00 00 00	 call	 ??2@YAPAXI@Z		; operator new
  0009e	59		 pop	 ecx
  0009f	89 45 ec	 mov	 DWORD PTR $T514633[ebp], eax
  000a2	89 7d fc	 mov	 DWORD PTR __$EHRec$[ebp+8], edi
  000a5	85 c0		 test	 eax, eax
  000a7	74 0c		 je	 SHORT $LN13@InitSymbol
  000a9	57		 push	 edi
  000aa	8b c8		 mov	 ecx, eax
  000ac	e8 00 00 00 00	 call	 ??0FSMState@@QAE@H@Z	; FSMState::FSMState
  000b1	8b d8		 mov	 ebx, eax
  000b3	eb 02		 jmp	 SHORT $LN14@InitSymbol
$LN13@InitSymbol:
  000b5	33 db		 xor	 ebx, ebx
$LN14@InitSymbol:
  000b7	83 4d fc ff	 or	 DWORD PTR __$EHRec$[ebp+8], -1

; 913  : 	if( pState )

  000bb	6a 03		 push	 3
  000bd	5e		 pop	 esi
  000be	85 db		 test	 ebx, ebx
  000c0	74 0e		 je	 SHORT $LN4@InitSymbol

; 914  : 		pState->Add( SGA_DROP, SGA_SUP1, DELAY_DROP );

  000c2	68 fa 00 00 00	 push	 250			; 000000faH
  000c7	56		 push	 esi
  000c8	57		 push	 edi
  000c9	8b cb		 mov	 ecx, ebx
  000cb	e8 00 00 00 00	 call	 ?Add@FSMState@@QAEXHHH@Z ; FSMState::Add
$LN4@InitSymbol:

; 915  : 	m_SymbolGaugeAni.Add( pState );

  000d0	8b 4d f0	 mov	 ecx, DWORD PTR tv224[ebp]
  000d3	53		 push	 ebx
  000d4	e8 00 00 00 00	 call	 ?Add@FSMStateMgr@@QAEXPAVFSMState@@@Z ; FSMStateMgr::Add

; 916  : 
; 917  : 	pState = new FSMState( SGA_SUP1 );

  000d9	6a 38		 push	 56			; 00000038H
  000db	e8 00 00 00 00	 call	 ??2@YAPAXI@Z		; operator new
  000e0	59		 pop	 ecx
  000e1	89 45 ec	 mov	 DWORD PTR $T514637[ebp], eax
  000e4	89 75 fc	 mov	 DWORD PTR __$EHRec$[ebp+8], esi
  000e7	85 c0		 test	 eax, eax
  000e9	74 0c		 je	 SHORT $LN15@InitSymbol
  000eb	56		 push	 esi
  000ec	8b c8		 mov	 ecx, eax
  000ee	e8 00 00 00 00	 call	 ??0FSMState@@QAE@H@Z	; FSMState::FSMState
  000f3	8b d8		 mov	 ebx, eax
  000f5	eb 02		 jmp	 SHORT $LN16@InitSymbol
$LN15@InitSymbol:
  000f7	33 db		 xor	 ebx, ebx
$LN16@InitSymbol:
  000f9	83 4d fc ff	 or	 DWORD PTR __$EHRec$[ebp+8], -1

; 918  : 	if( pState )

  000fd	6a 04		 push	 4
  000ff	5f		 pop	 edi
  00100	85 db		 test	 ebx, ebx
  00102	74 0b		 je	 SHORT $LN3@InitSymbol

; 919  : 		pState->Add( SGA_SUP1, SGA_SUP2 , DELAY_SUP1 );

  00104	6a 64		 push	 100			; 00000064H
  00106	57		 push	 edi
  00107	56		 push	 esi
  00108	8b cb		 mov	 ecx, ebx
  0010a	e8 00 00 00 00	 call	 ?Add@FSMState@@QAEXHHH@Z ; FSMState::Add
$LN3@InitSymbol:

; 920  : 	m_SymbolGaugeAni.Add( pState );	

  0010f	8b 4d f0	 mov	 ecx, DWORD PTR tv224[ebp]
  00112	53		 push	 ebx
  00113	e8 00 00 00 00	 call	 ?Add@FSMStateMgr@@QAEXPAVFSMState@@@Z ; FSMStateMgr::Add

; 921  : 
; 922  : 	pState = new FSMState( SGA_SUP2 );

  00118	6a 38		 push	 56			; 00000038H
  0011a	e8 00 00 00 00	 call	 ??2@YAPAXI@Z		; operator new
  0011f	59		 pop	 ecx
  00120	89 45 ec	 mov	 DWORD PTR $T514641[ebp], eax
  00123	89 7d fc	 mov	 DWORD PTR __$EHRec$[ebp+8], edi
  00126	85 c0		 test	 eax, eax
  00128	74 0c		 je	 SHORT $LN17@InitSymbol
  0012a	57		 push	 edi
  0012b	8b c8		 mov	 ecx, eax
  0012d	e8 00 00 00 00	 call	 ??0FSMState@@QAE@H@Z	; FSMState::FSMState
  00132	8b d8		 mov	 ebx, eax
  00134	eb 02		 jmp	 SHORT $LN18@InitSymbol
$LN17@InitSymbol:
  00136	33 db		 xor	 ebx, ebx
$LN18@InitSymbol:
  00138	83 4d fc ff	 or	 DWORD PTR __$EHRec$[ebp+8], -1

; 923  : 	if( pState )

  0013c	6a 05		 push	 5
  0013e	5e		 pop	 esi
  0013f	85 db		 test	 ebx, ebx
  00141	74 0b		 je	 SHORT $LN2@InitSymbol

; 924  : 		pState->Add( SGA_SUP2, SGA_LOOP , DELAY_SUP2 );

  00143	6a 64		 push	 100			; 00000064H
  00145	56		 push	 esi
  00146	57		 push	 edi
  00147	8b cb		 mov	 ecx, ebx
  00149	e8 00 00 00 00	 call	 ?Add@FSMState@@QAEXHHH@Z ; FSMState::Add
$LN2@InitSymbol:

; 925  : 	m_SymbolGaugeAni.Add( pState );

  0014e	8b 4d f0	 mov	 ecx, DWORD PTR tv224[ebp]
  00151	53		 push	 ebx
  00152	e8 00 00 00 00	 call	 ?Add@FSMStateMgr@@QAEXPAVFSMState@@@Z ; FSMStateMgr::Add

; 926  : 
; 927  : 	pState = new FSMState( SGA_LOOP );

  00157	6a 38		 push	 56			; 00000038H
  00159	e8 00 00 00 00	 call	 ??2@YAPAXI@Z		; operator new
  0015e	59		 pop	 ecx
  0015f	89 45 ec	 mov	 DWORD PTR $T514645[ebp], eax
  00162	89 75 fc	 mov	 DWORD PTR __$EHRec$[ebp+8], esi
  00165	85 c0		 test	 eax, eax
  00167	74 0c		 je	 SHORT $LN19@InitSymbol
  00169	56		 push	 esi
  0016a	8b c8		 mov	 ecx, eax
  0016c	e8 00 00 00 00	 call	 ??0FSMState@@QAE@H@Z	; FSMState::FSMState
  00171	8b f8		 mov	 edi, eax
  00173	eb 02		 jmp	 SHORT $LN20@InitSymbol
$LN19@InitSymbol:
  00175	33 ff		 xor	 edi, edi
$LN20@InitSymbol:
  00177	83 4d fc ff	 or	 DWORD PTR __$EHRec$[ebp+8], -1

; 928  : 	if( pState )

  0017b	85 ff		 test	 edi, edi
  0017d	74 0f		 je	 SHORT $LN1@InitSymbol

; 929  : 		pState->Add( SGA_LOOP, SGA_NONE , DELAY_LOOP );

  0017f	68 00 ca 9a 3b	 push	 1000000000		; 3b9aca00H
  00184	6a 00		 push	 0
  00186	56		 push	 esi
  00187	8b cf		 mov	 ecx, edi
  00189	e8 00 00 00 00	 call	 ?Add@FSMState@@QAEXHHH@Z ; FSMState::Add
$LN1@InitSymbol:

; 930  : 	m_SymbolGaugeAni.Add( pState );

  0018e	8b 4d f0	 mov	 ecx, DWORD PTR tv224[ebp]
  00191	57		 push	 edi
  00192	e8 00 00 00 00	 call	 ?Add@FSMStateMgr@@QAEXPAVFSMState@@@Z ; FSMStateMgr::Add

; 931  : }

  00197	e8 00 00 00 00	 call	 __EH_epilog3
  0019c	c3		 ret	 0
_TEXT	ENDS
;	COMDAT text$x
text$x	SEGMENT
__unwindfunclet$?InitSymbolGaugeAni@CenterInfoWnd@@QAEXXZ$0:
  00000	ff 75 ec	 push	 DWORD PTR $T514625[ebp]
  00003	e8 00 00 00 00	 call	 ??3@YAXPAX@Z		; operator delete
  00008	59		 pop	 ecx
  00009	c3		 ret	 0
__unwindfunclet$?InitSymbolGaugeAni@CenterInfoWnd@@QAEXXZ$1:
  0000a	ff 75 ec	 push	 DWORD PTR $T514629[ebp]
  0000d	e8 00 00 00 00	 call	 ??3@YAXPAX@Z		; operator delete
  00012	59		 pop	 ecx
  00013	c3		 ret	 0
__unwindfunclet$?InitSymbolGaugeAni@CenterInfoWnd@@QAEXXZ$2:
  00014	ff 75 ec	 push	 DWORD PTR $T514633[ebp]
  00017	e8 00 00 00 00	 call	 ??3@YAXPAX@Z		; operator delete
  0001c	59		 pop	 ecx
  0001d	c3		 ret	 0
__unwindfunclet$?InitSymbolGaugeAni@CenterInfoWnd@@QAEXXZ$3:
  0001e	ff 75 ec	 push	 DWORD PTR $T514637[ebp]
  00021	e8 00 00 00 00	 call	 ??3@YAXPAX@Z		; operator delete
  00026	59		 pop	 ecx
  00027	c3		 ret	 0
__unwindfunclet$?InitSymbolGaugeAni@CenterInfoWnd@@QAEXXZ$4:
  00028	ff 75 ec	 push	 DWORD PTR $T514641[ebp]
  0002b	e8 00 00 00 00	 call	 ??3@YAXPAX@Z		; operator delete
  00030	59		 pop	 ecx
  00031	c3		 ret	 0
__unwindfunclet$?InitSymbolGaugeAni@CenterInfoWnd@@QAEXXZ$5:
  00032	ff 75 ec	 push	 DWORD PTR $T514645[ebp]
  00035	e8 00 00 00 00	 call	 ??3@YAXPAX@Z		; operator delete
  0003a	59		 pop	 ecx
  0003b	c3		 ret	 0
__ehhandler$?InitSymbolGaugeAni@CenterInfoWnd@@QAEXXZ:
  0003c	8b 54 24 08	 mov	 edx, DWORD PTR [esp+8]
  00040	8d 42 0c	 lea	 eax, DWORD PTR [edx+12]
  00043	8b 4a e8	 mov	 ecx, DWORD PTR [edx-24]
  00046	33 c8		 xor	 ecx, eax
  00048	e8 00 00 00 00	 call	 @__security_check_cookie@4
  0004d	b8 00 00 00 00	 mov	 eax, OFFSET __ehfuncinfo$?InitSymbolGaugeAni@CenterInfoWnd@@QAEXXZ
  00052	e9 00 00 00 00	 jmp	 ___CxxFrameHandler3
text$x	ENDS
?InitSymbolGaugeAni@CenterInfoWnd@@QAEXXZ ENDP		; CenterInfoWnd::InitSymbolGaugeAni
PUBLIC	?InitGangsiModeAni@CenterInfoWnd@@QAEXXZ	; CenterInfoWnd::InitGangsiModeAni
;	COMDAT xdata$x
xdata$x	SEGMENT
__ehfuncinfo$?InitGangsiModeAni@CenterInfoWnd@@QAEXXZ DD 019930522H
	DD	05H
	DD	FLAT:__unwindtable$?InitGangsiModeAni@CenterInfoWnd@@QAEXXZ
	DD	2 DUP(00H)
	DD	2 DUP(00H)
	DD	00H
	DD	01H
__unwindtable$?InitGangsiModeAni@CenterInfoWnd@@QAEXXZ DD 0ffffffffH
	DD	FLAT:__unwindfunclet$?InitGangsiModeAni@CenterInfoWnd@@QAEXXZ$0
	DD	0ffffffffH
	DD	FLAT:__unwindfunclet$?InitGangsiModeAni@CenterInfoWnd@@QAEXXZ$1
	DD	0ffffffffH
	DD	FLAT:__unwindfunclet$?InitGangsiModeAni@CenterInfoWnd@@QAEXXZ$2
	DD	0ffffffffH
	DD	FLAT:__unwindfunclet$?InitGangsiModeAni@CenterInfoWnd@@QAEXXZ$3
	DD	0ffffffffH
	DD	FLAT:__unwindfunclet$?InitGangsiModeAni@CenterInfoWnd@@QAEXXZ$4
; Function compile flags: /Ogsp
xdata$x	ENDS
;	COMDAT ?InitGangsiModeAni@CenterInfoWnd@@QAEXXZ
_TEXT	SEGMENT
$T514679 = -20						; size = 4
$T514675 = -20						; size = 4
$T514671 = -20						; size = 4
$T514667 = -20						; size = 4
$T514663 = -20						; size = 4
tv192 = -16						; size = 4
__$EHRec$ = -12						; size = 12
?InitGangsiModeAni@CenterInfoWnd@@QAEXXZ PROC		; CenterInfoWnd::InitGangsiModeAni, COMDAT
; _this$ = ecx

; 934  : {

  00000	6a 08		 push	 8
  00002	b8 00 00 00 00	 mov	 eax, __ehhandler$?InitGangsiModeAni@CenterInfoWnd@@QAEXXZ
  00007	e8 00 00 00 00	 call	 __EH_prolog3

; 935  : 	enum { DELAY_ROLLING = 500, DELAY_TWINKLE = 2100, DELAY_MOVE_SCORE_UI = 350, };
; 936  : 
; 937  : 	m_GangsiModeAni.SetCurState( GMA_NONE );

  0000c	81 c1 94 04 00
	00		 add	 ecx, 1172		; 00000494H
  00012	33 db		 xor	 ebx, ebx
  00014	53		 push	 ebx
  00015	89 4d f0	 mov	 DWORD PTR tv192[ebp], ecx
  00018	e8 00 00 00 00	 call	 ?SetCurState@FSMStateMgr@@QAEXH@Z ; FSMStateMgr::SetCurState

; 938  : 
; 939  : 	FSMState *pState = new FSMState( GMA_NONE );

  0001d	6a 38		 push	 56			; 00000038H
  0001f	e8 00 00 00 00	 call	 ??2@YAPAXI@Z		; operator new
  00024	59		 pop	 ecx
  00025	89 45 ec	 mov	 DWORD PTR $T514663[ebp], eax
  00028	89 5d fc	 mov	 DWORD PTR __$EHRec$[ebp+8], ebx
  0002b	3b c3		 cmp	 eax, ebx
  0002d	74 0c		 je	 SHORT $LN8@InitGangsi
  0002f	53		 push	 ebx
  00030	8b c8		 mov	 ecx, eax
  00032	e8 00 00 00 00	 call	 ??0FSMState@@QAE@H@Z	; FSMState::FSMState
  00037	8b f8		 mov	 edi, eax
  00039	eb 02		 jmp	 SHORT $LN9@InitGangsi
$LN8@InitGangsi:
  0003b	33 ff		 xor	 edi, edi
$LN9@InitGangsi:
  0003d	83 4d fc ff	 or	 DWORD PTR __$EHRec$[ebp+8], -1

; 940  : 	if( pState )

  00041	33 f6		 xor	 esi, esi
  00043	46		 inc	 esi
  00044	3b fb		 cmp	 edi, ebx
  00046	74 0b		 je	 SHORT $LN5@InitGangsi

; 941  : 		pState->Add( GMA_NONE,  GMA_START );

  00048	6a ff		 push	 -1
  0004a	56		 push	 esi
  0004b	53		 push	 ebx
  0004c	8b cf		 mov	 ecx, edi
  0004e	e8 00 00 00 00	 call	 ?Add@FSMState@@QAEXHHH@Z ; FSMState::Add
$LN5@InitGangsi:

; 942  : 	m_GangsiModeAni.Add( pState );

  00053	8b 4d f0	 mov	 ecx, DWORD PTR tv192[ebp]
  00056	57		 push	 edi
  00057	e8 00 00 00 00	 call	 ?Add@FSMStateMgr@@QAEXPAVFSMState@@@Z ; FSMStateMgr::Add

; 943  : 
; 944  : 	pState = new FSMState( GMA_START );

  0005c	6a 38		 push	 56			; 00000038H
  0005e	e8 00 00 00 00	 call	 ??2@YAPAXI@Z		; operator new
  00063	59		 pop	 ecx
  00064	89 45 ec	 mov	 DWORD PTR $T514667[ebp], eax
  00067	89 75 fc	 mov	 DWORD PTR __$EHRec$[ebp+8], esi
  0006a	3b c3		 cmp	 eax, ebx
  0006c	74 0a		 je	 SHORT $LN10@InitGangsi
  0006e	56		 push	 esi
  0006f	8b c8		 mov	 ecx, eax
  00071	e8 00 00 00 00	 call	 ??0FSMState@@QAE@H@Z	; FSMState::FSMState
  00076	8b d8		 mov	 ebx, eax
$LN10@InitGangsi:
  00078	83 4d fc ff	 or	 DWORD PTR __$EHRec$[ebp+8], -1

; 945  : 	if( pState )

  0007c	6a 02		 push	 2
  0007e	5f		 pop	 edi
  0007f	85 db		 test	 ebx, ebx
  00081	74 0b		 je	 SHORT $LN4@InitGangsi

; 946  : 		pState->Add( GMA_START,  GMA_ROLLING, 0 );

  00083	6a 00		 push	 0
  00085	57		 push	 edi
  00086	56		 push	 esi
  00087	8b cb		 mov	 ecx, ebx
  00089	e8 00 00 00 00	 call	 ?Add@FSMState@@QAEXHHH@Z ; FSMState::Add
$LN4@InitGangsi:

; 947  : 	m_GangsiModeAni.Add( pState );

  0008e	8b 4d f0	 mov	 ecx, DWORD PTR tv192[ebp]
  00091	53		 push	 ebx
  00092	e8 00 00 00 00	 call	 ?Add@FSMStateMgr@@QAEXPAVFSMState@@@Z ; FSMStateMgr::Add

; 948  : 
; 949  : 	pState = new FSMState( GMA_ROLLING );

  00097	6a 38		 push	 56			; 00000038H
  00099	e8 00 00 00 00	 call	 ??2@YAPAXI@Z		; operator new
  0009e	59		 pop	 ecx
  0009f	89 45 ec	 mov	 DWORD PTR $T514671[ebp], eax
  000a2	89 7d fc	 mov	 DWORD PTR __$EHRec$[ebp+8], edi
  000a5	85 c0		 test	 eax, eax
  000a7	74 0c		 je	 SHORT $LN12@InitGangsi
  000a9	57		 push	 edi
  000aa	8b c8		 mov	 ecx, eax
  000ac	e8 00 00 00 00	 call	 ??0FSMState@@QAE@H@Z	; FSMState::FSMState
  000b1	8b f0		 mov	 esi, eax
  000b3	eb 02		 jmp	 SHORT $LN13@InitGangsi
$LN12@InitGangsi:
  000b5	33 f6		 xor	 esi, esi
$LN13@InitGangsi:
  000b7	83 4d fc ff	 or	 DWORD PTR __$EHRec$[ebp+8], -1

; 950  : 	if( pState )

  000bb	6a 03		 push	 3
  000bd	5b		 pop	 ebx
  000be	85 f6		 test	 esi, esi
  000c0	74 0e		 je	 SHORT $LN3@InitGangsi

; 951  : 		pState->Add( GMA_ROLLING,  GMA_TWINKLE, DELAY_ROLLING );

  000c2	68 f4 01 00 00	 push	 500			; 000001f4H
  000c7	53		 push	 ebx
  000c8	57		 push	 edi
  000c9	8b ce		 mov	 ecx, esi
  000cb	e8 00 00 00 00	 call	 ?Add@FSMState@@QAEXHHH@Z ; FSMState::Add
$LN3@InitGangsi:

; 952  : 	m_GangsiModeAni.Add( pState );

  000d0	8b 4d f0	 mov	 ecx, DWORD PTR tv192[ebp]
  000d3	56		 push	 esi
  000d4	e8 00 00 00 00	 call	 ?Add@FSMStateMgr@@QAEXPAVFSMState@@@Z ; FSMStateMgr::Add

; 953  : 
; 954  : 	pState = new FSMState( GMA_TWINKLE );

  000d9	6a 38		 push	 56			; 00000038H
  000db	e8 00 00 00 00	 call	 ??2@YAPAXI@Z		; operator new
  000e0	59		 pop	 ecx
  000e1	89 45 ec	 mov	 DWORD PTR $T514675[ebp], eax
  000e4	89 5d fc	 mov	 DWORD PTR __$EHRec$[ebp+8], ebx
  000e7	85 c0		 test	 eax, eax
  000e9	74 0c		 je	 SHORT $LN14@InitGangsi
  000eb	53		 push	 ebx
  000ec	8b c8		 mov	 ecx, eax
  000ee	e8 00 00 00 00	 call	 ??0FSMState@@QAE@H@Z	; FSMState::FSMState
  000f3	8b f8		 mov	 edi, eax
  000f5	eb 02		 jmp	 SHORT $LN15@InitGangsi
$LN14@InitGangsi:
  000f7	33 ff		 xor	 edi, edi
$LN15@InitGangsi:
  000f9	83 4d fc ff	 or	 DWORD PTR __$EHRec$[ebp+8], -1

; 955  : 	if( pState )

  000fd	6a 04		 push	 4
  000ff	5e		 pop	 esi
  00100	85 ff		 test	 edi, edi
  00102	74 0e		 je	 SHORT $LN2@InitGangsi

; 956  : 		pState->Add( GMA_TWINKLE,  GMA_MOVE_SCORE_UI , DELAY_TWINKLE );

  00104	68 34 08 00 00	 push	 2100			; 00000834H
  00109	56		 push	 esi
  0010a	53		 push	 ebx
  0010b	8b cf		 mov	 ecx, edi
  0010d	e8 00 00 00 00	 call	 ?Add@FSMState@@QAEXHHH@Z ; FSMState::Add
$LN2@InitGangsi:

; 957  : 	m_GangsiModeAni.Add( pState );	

  00112	8b 4d f0	 mov	 ecx, DWORD PTR tv192[ebp]
  00115	57		 push	 edi
  00116	e8 00 00 00 00	 call	 ?Add@FSMStateMgr@@QAEXPAVFSMState@@@Z ; FSMStateMgr::Add

; 958  : 
; 959  : 	pState = new FSMState( GMA_MOVE_SCORE_UI );

  0011b	6a 38		 push	 56			; 00000038H
  0011d	e8 00 00 00 00	 call	 ??2@YAPAXI@Z		; operator new
  00122	59		 pop	 ecx
  00123	89 45 ec	 mov	 DWORD PTR $T514679[ebp], eax
  00126	89 75 fc	 mov	 DWORD PTR __$EHRec$[ebp+8], esi
  00129	85 c0		 test	 eax, eax
  0012b	74 0c		 je	 SHORT $LN16@InitGangsi
  0012d	56		 push	 esi
  0012e	8b c8		 mov	 ecx, eax
  00130	e8 00 00 00 00	 call	 ??0FSMState@@QAE@H@Z	; FSMState::FSMState
  00135	8b f8		 mov	 edi, eax
  00137	eb 02		 jmp	 SHORT $LN17@InitGangsi
$LN16@InitGangsi:
  00139	33 ff		 xor	 edi, edi
$LN17@InitGangsi:
  0013b	83 4d fc ff	 or	 DWORD PTR __$EHRec$[ebp+8], -1

; 960  : 	if( pState )

  0013f	85 ff		 test	 edi, edi
  00141	74 0f		 je	 SHORT $LN1@InitGangsi

; 961  : 		pState->Add( GMA_MOVE_SCORE_UI,  GMA_NONE , DELAY_MOVE_SCORE_UI );

  00143	68 5e 01 00 00	 push	 350			; 0000015eH
  00148	6a 00		 push	 0
  0014a	56		 push	 esi
  0014b	8b cf		 mov	 ecx, edi
  0014d	e8 00 00 00 00	 call	 ?Add@FSMState@@QAEXHHH@Z ; FSMState::Add
$LN1@InitGangsi:

; 962  : 	m_GangsiModeAni.Add( pState );

  00152	8b 4d f0	 mov	 ecx, DWORD PTR tv192[ebp]
  00155	57		 push	 edi
  00156	e8 00 00 00 00	 call	 ?Add@FSMStateMgr@@QAEXPAVFSMState@@@Z ; FSMStateMgr::Add

; 963  : }

  0015b	e8 00 00 00 00	 call	 __EH_epilog3
  00160	c3		 ret	 0
_TEXT	ENDS
;	COMDAT text$x
text$x	SEGMENT
__unwindfunclet$?InitGangsiModeAni@CenterInfoWnd@@QAEXXZ$0:
  00000	ff 75 ec	 push	 DWORD PTR $T514663[ebp]
  00003	e8 00 00 00 00	 call	 ??3@YAXPAX@Z		; operator delete
  00008	59		 pop	 ecx
  00009	c3		 ret	 0
__unwindfunclet$?InitGangsiModeAni@CenterInfoWnd@@QAEXXZ$1:
  0000a	ff 75 ec	 push	 DWORD PTR $T514667[ebp]
  0000d	e8 00 00 00 00	 call	 ??3@YAXPAX@Z		; operator delete
  00012	59		 pop	 ecx
  00013	c3		 ret	 0
__unwindfunclet$?InitGangsiModeAni@CenterInfoWnd@@QAEXXZ$2:
  00014	ff 75 ec	 push	 DWORD PTR $T514671[ebp]
  00017	e8 00 00 00 00	 call	 ??3@YAXPAX@Z		; operator delete
  0001c	59		 pop	 ecx
  0001d	c3		 ret	 0
__unwindfunclet$?InitGangsiModeAni@CenterInfoWnd@@QAEXXZ$3:
  0001e	ff 75 ec	 push	 DWORD PTR $T514675[ebp]
  00021	e8 00 00 00 00	 call	 ??3@YAXPAX@Z		; operator delete
  00026	59		 pop	 ecx
  00027	c3		 ret	 0
__unwindfunclet$?InitGangsiModeAni@CenterInfoWnd@@QAEXXZ$4:
  00028	ff 75 ec	 push	 DWORD PTR $T514679[ebp]
  0002b	e8 00 00 00 00	 call	 ??3@YAXPAX@Z		; operator delete
  00030	59		 pop	 ecx
  00031	c3		 ret	 0
__ehhandler$?InitGangsiModeAni@CenterInfoWnd@@QAEXXZ:
  00032	8b 54 24 08	 mov	 edx, DWORD PTR [esp+8]
  00036	8d 42 0c	 lea	 eax, DWORD PTR [edx+12]
  00039	8b 4a e8	 mov	 ecx, DWORD PTR [edx-24]
  0003c	33 c8		 xor	 ecx, eax
  0003e	e8 00 00 00 00	 call	 @__security_check_cookie@4
  00043	b8 00 00 00 00	 mov	 eax, OFFSET __ehfuncinfo$?InitGangsiModeAni@CenterInfoWnd@@QAEXXZ
  00048	e9 00 00 00 00	 jmp	 ___CxxFrameHandler3
text$x	ENDS
?InitGangsiModeAni@CenterInfoWnd@@QAEXXZ ENDP		; CenterInfoWnd::InitGangsiModeAni
PUBLIC	?InitDungeonAModeAni@CenterInfoWnd@@QAEXXZ	; CenterInfoWnd::InitDungeonAModeAni
;	COMDAT xdata$x
xdata$x	SEGMENT
__unwindtable$?InitDungeonAModeAni@CenterInfoWnd@@QAEXXZ DD 0ffffffffH
	DD	FLAT:__unwindfunclet$?InitDungeonAModeAni@CenterInfoWnd@@QAEXXZ$0
	DD	0ffffffffH
	DD	FLAT:__unwindfunclet$?InitDungeonAModeAni@CenterInfoWnd@@QAEXXZ$1
	DD	0ffffffffH
	DD	FLAT:__unwindfunclet$?InitDungeonAModeAni@CenterInfoWnd@@QAEXXZ$2
	DD	0ffffffffH
	DD	FLAT:__unwindfunclet$?InitDungeonAModeAni@CenterInfoWnd@@QAEXXZ$3
__ehfuncinfo$?InitDungeonAModeAni@CenterInfoWnd@@QAEXXZ DD 019930522H
	DD	04H
	DD	FLAT:__unwindtable$?InitDungeonAModeAni@CenterInfoWnd@@QAEXXZ
	DD	2 DUP(00H)
	DD	2 DUP(00H)
	DD	00H
	DD	01H
; Function compile flags: /Ogsp
xdata$x	ENDS
;	COMDAT ?InitDungeonAModeAni@CenterInfoWnd@@QAEXXZ
_TEXT	SEGMENT
$T514708 = -20						; size = 4
$T514704 = -20						; size = 4
$T514700 = -20						; size = 4
$T514696 = -20						; size = 4
tv192 = -16						; size = 4
__$EHRec$ = -12						; size = 12
?InitDungeonAModeAni@CenterInfoWnd@@QAEXXZ PROC		; CenterInfoWnd::InitDungeonAModeAni, COMDAT
; _this$ = ecx

; 1048 : {

  00000	6a 08		 push	 8
  00002	b8 00 00 00 00	 mov	 eax, __ehhandler$?InitDungeonAModeAni@CenterInfoWnd@@QAEXXZ
  00007	e8 00 00 00 00	 call	 __EH_prolog3

; 1049 : 	enum { DELAY_FADEIN = 150, DELAY_INFINITY = 1000000000, DELAY_FADEOUT = 1000000000, };
; 1050 : 
; 1051 : 	m_DungeonAModeAni.SetCurState( MDA_NONE );

  0000c	81 c1 30 05 00
	00		 add	 ecx, 1328		; 00000530H
  00012	33 db		 xor	 ebx, ebx
  00014	53		 push	 ebx
  00015	89 4d f0	 mov	 DWORD PTR tv192[ebp], ecx
  00018	e8 00 00 00 00	 call	 ?SetCurState@FSMStateMgr@@QAEXH@Z ; FSMStateMgr::SetCurState

; 1052 : 
; 1053 : 	FSMState *pState = new FSMState( MDA_NONE );

  0001d	6a 38		 push	 56			; 00000038H
  0001f	e8 00 00 00 00	 call	 ??2@YAPAXI@Z		; operator new
  00024	59		 pop	 ecx
  00025	89 45 ec	 mov	 DWORD PTR $T514696[ebp], eax
  00028	89 5d fc	 mov	 DWORD PTR __$EHRec$[ebp+8], ebx
  0002b	3b c3		 cmp	 eax, ebx
  0002d	74 0c		 je	 SHORT $LN7@InitDungeo
  0002f	53		 push	 ebx
  00030	8b c8		 mov	 ecx, eax
  00032	e8 00 00 00 00	 call	 ??0FSMState@@QAE@H@Z	; FSMState::FSMState
  00037	8b f8		 mov	 edi, eax
  00039	eb 02		 jmp	 SHORT $LN8@InitDungeo
$LN7@InitDungeo:
  0003b	33 ff		 xor	 edi, edi
$LN8@InitDungeo:
  0003d	83 4d fc ff	 or	 DWORD PTR __$EHRec$[ebp+8], -1

; 1054 : 	if( pState )

  00041	33 f6		 xor	 esi, esi
  00043	46		 inc	 esi
  00044	3b fb		 cmp	 edi, ebx
  00046	74 0b		 je	 SHORT $LN4@InitDungeo

; 1055 : 		pState->Add( MDA_NONE,  MDA_START );

  00048	6a ff		 push	 -1
  0004a	56		 push	 esi
  0004b	53		 push	 ebx
  0004c	8b cf		 mov	 ecx, edi
  0004e	e8 00 00 00 00	 call	 ?Add@FSMState@@QAEXHHH@Z ; FSMState::Add
$LN4@InitDungeo:

; 1056 : 	m_DungeonAModeAni.Add( pState );

  00053	8b 4d f0	 mov	 ecx, DWORD PTR tv192[ebp]
  00056	57		 push	 edi
  00057	e8 00 00 00 00	 call	 ?Add@FSMStateMgr@@QAEXPAVFSMState@@@Z ; FSMStateMgr::Add

; 1057 : 
; 1058 : 	pState = new FSMState( MDA_START );

  0005c	6a 38		 push	 56			; 00000038H
  0005e	e8 00 00 00 00	 call	 ??2@YAPAXI@Z		; operator new
  00063	59		 pop	 ecx
  00064	89 45 ec	 mov	 DWORD PTR $T514700[ebp], eax
  00067	89 75 fc	 mov	 DWORD PTR __$EHRec$[ebp+8], esi
  0006a	3b c3		 cmp	 eax, ebx
  0006c	74 0a		 je	 SHORT $LN9@InitDungeo
  0006e	56		 push	 esi
  0006f	8b c8		 mov	 ecx, eax
  00071	e8 00 00 00 00	 call	 ??0FSMState@@QAE@H@Z	; FSMState::FSMState
  00076	8b d8		 mov	 ebx, eax
$LN9@InitDungeo:
  00078	83 4d fc ff	 or	 DWORD PTR __$EHRec$[ebp+8], -1

; 1059 : 	if( pState )

  0007c	6a 02		 push	 2
  0007e	5f		 pop	 edi
  0007f	85 db		 test	 ebx, ebx
  00081	74 0b		 je	 SHORT $LN3@InitDungeo

; 1060 : 		pState->Add( MDA_START, MDA_INFINITY, 0 );

  00083	6a 00		 push	 0
  00085	57		 push	 edi
  00086	56		 push	 esi
  00087	8b cb		 mov	 ecx, ebx
  00089	e8 00 00 00 00	 call	 ?Add@FSMState@@QAEXHHH@Z ; FSMState::Add
$LN3@InitDungeo:

; 1061 : 	m_DungeonAModeAni.Add( pState );

  0008e	8b 4d f0	 mov	 ecx, DWORD PTR tv192[ebp]
  00091	53		 push	 ebx
  00092	e8 00 00 00 00	 call	 ?Add@FSMStateMgr@@QAEXPAVFSMState@@@Z ; FSMStateMgr::Add

; 1062 : 
; 1063 : 	pState = new FSMState( MDA_INFINITY );

  00097	6a 38		 push	 56			; 00000038H
  00099	e8 00 00 00 00	 call	 ??2@YAPAXI@Z		; operator new
  0009e	59		 pop	 ecx
  0009f	89 45 ec	 mov	 DWORD PTR $T514704[ebp], eax
  000a2	89 7d fc	 mov	 DWORD PTR __$EHRec$[ebp+8], edi
  000a5	85 c0		 test	 eax, eax
  000a7	74 0c		 je	 SHORT $LN11@InitDungeo
  000a9	57		 push	 edi
  000aa	8b c8		 mov	 ecx, eax
  000ac	e8 00 00 00 00	 call	 ??0FSMState@@QAE@H@Z	; FSMState::FSMState
  000b1	8b d8		 mov	 ebx, eax
  000b3	eb 02		 jmp	 SHORT $LN12@InitDungeo
$LN11@InitDungeo:
  000b5	33 db		 xor	 ebx, ebx
$LN12@InitDungeo:
  000b7	83 4d fc ff	 or	 DWORD PTR __$EHRec$[ebp+8], -1

; 1064 : 	if( pState )

  000bb	6a 03		 push	 3
  000bd	5e		 pop	 esi
  000be	85 db		 test	 ebx, ebx
  000c0	74 0e		 je	 SHORT $LN2@InitDungeo

; 1065 : 		pState->Add( MDA_INFINITY, MDA_FADEOUT, DELAY_INFINITY );

  000c2	68 00 ca 9a 3b	 push	 1000000000		; 3b9aca00H
  000c7	56		 push	 esi
  000c8	57		 push	 edi
  000c9	8b cb		 mov	 ecx, ebx
  000cb	e8 00 00 00 00	 call	 ?Add@FSMState@@QAEXHHH@Z ; FSMState::Add
$LN2@InitDungeo:

; 1066 : 	m_DungeonAModeAni.Add( pState );

  000d0	8b 4d f0	 mov	 ecx, DWORD PTR tv192[ebp]
  000d3	53		 push	 ebx
  000d4	e8 00 00 00 00	 call	 ?Add@FSMStateMgr@@QAEXPAVFSMState@@@Z ; FSMStateMgr::Add

; 1067 : 
; 1068 : 	pState = new FSMState( MDA_FADEOUT );

  000d9	6a 38		 push	 56			; 00000038H
  000db	e8 00 00 00 00	 call	 ??2@YAPAXI@Z		; operator new
  000e0	59		 pop	 ecx
  000e1	89 45 ec	 mov	 DWORD PTR $T514708[ebp], eax
  000e4	89 75 fc	 mov	 DWORD PTR __$EHRec$[ebp+8], esi
  000e7	85 c0		 test	 eax, eax
  000e9	74 0c		 je	 SHORT $LN13@InitDungeo
  000eb	56		 push	 esi
  000ec	8b c8		 mov	 ecx, eax
  000ee	e8 00 00 00 00	 call	 ??0FSMState@@QAE@H@Z	; FSMState::FSMState
  000f3	8b f8		 mov	 edi, eax
  000f5	eb 02		 jmp	 SHORT $LN14@InitDungeo
$LN13@InitDungeo:
  000f7	33 ff		 xor	 edi, edi
$LN14@InitDungeo:
  000f9	83 4d fc ff	 or	 DWORD PTR __$EHRec$[ebp+8], -1

; 1069 : 	if( pState )

  000fd	85 ff		 test	 edi, edi
  000ff	74 0f		 je	 SHORT $LN1@InitDungeo

; 1070 : 		pState->Add( MDA_FADEOUT,  MDA_NONE , DELAY_FADEOUT );

  00101	68 00 ca 9a 3b	 push	 1000000000		; 3b9aca00H
  00106	6a 00		 push	 0
  00108	56		 push	 esi
  00109	8b cf		 mov	 ecx, edi
  0010b	e8 00 00 00 00	 call	 ?Add@FSMState@@QAEXHHH@Z ; FSMState::Add
$LN1@InitDungeo:

; 1071 : 	m_DungeonAModeAni.Add( pState );	

  00110	8b 4d f0	 mov	 ecx, DWORD PTR tv192[ebp]
  00113	57		 push	 edi
  00114	e8 00 00 00 00	 call	 ?Add@FSMStateMgr@@QAEXPAVFSMState@@@Z ; FSMStateMgr::Add

; 1072 : }

  00119	e8 00 00 00 00	 call	 __EH_epilog3
  0011e	c3		 ret	 0
_TEXT	ENDS
;	COMDAT text$x
text$x	SEGMENT
__unwindfunclet$?InitDungeonAModeAni@CenterInfoWnd@@QAEXXZ$0:
  00000	ff 75 ec	 push	 DWORD PTR $T514696[ebp]
  00003	e8 00 00 00 00	 call	 ??3@YAXPAX@Z		; operator delete
  00008	59		 pop	 ecx
  00009	c3		 ret	 0
__unwindfunclet$?InitDungeonAModeAni@CenterInfoWnd@@QAEXXZ$1:
  0000a	ff 75 ec	 push	 DWORD PTR $T514700[ebp]
  0000d	e8 00 00 00 00	 call	 ??3@YAXPAX@Z		; operator delete
  00012	59		 pop	 ecx
  00013	c3		 ret	 0
__unwindfunclet$?InitDungeonAModeAni@CenterInfoWnd@@QAEXXZ$2:
  00014	ff 75 ec	 push	 DWORD PTR $T514704[ebp]
  00017	e8 00 00 00 00	 call	 ??3@YAXPAX@Z		; operator delete
  0001c	59		 pop	 ecx
  0001d	c3		 ret	 0
__unwindfunclet$?InitDungeonAModeAni@CenterInfoWnd@@QAEXXZ$3:
  0001e	ff 75 ec	 push	 DWORD PTR $T514708[ebp]
  00021	e8 00 00 00 00	 call	 ??3@YAXPAX@Z		; operator delete
  00026	59		 pop	 ecx
  00027	c3		 ret	 0
__ehhandler$?InitDungeonAModeAni@CenterInfoWnd@@QAEXXZ:
  00028	8b 54 24 08	 mov	 edx, DWORD PTR [esp+8]
  0002c	8d 42 0c	 lea	 eax, DWORD PTR [edx+12]
  0002f	8b 4a e8	 mov	 ecx, DWORD PTR [edx-24]
  00032	33 c8		 xor	 ecx, eax
  00034	e8 00 00 00 00	 call	 @__security_check_cookie@4
  00039	b8 00 00 00 00	 mov	 eax, OFFSET __ehfuncinfo$?InitDungeonAModeAni@CenterInfoWnd@@QAEXXZ
  0003e	e9 00 00 00 00	 jmp	 ___CxxFrameHandler3
text$x	ENDS
?InitDungeonAModeAni@CenterInfoWnd@@QAEXXZ ENDP		; CenterInfoWnd::InitDungeonAModeAni
PUBLIC	?InitDoubleCrownAni@CenterInfoWnd@@QAEXXZ	; CenterInfoWnd::InitDoubleCrownAni
;	COMDAT xdata$x
xdata$x	SEGMENT
__ehfuncinfo$?InitDoubleCrownAni@CenterInfoWnd@@QAEXXZ DD 019930522H
	DD	06H
	DD	FLAT:__unwindtable$?InitDoubleCrownAni@CenterInfoWnd@@QAEXXZ
	DD	2 DUP(00H)
	DD	2 DUP(00H)
	DD	00H
	DD	01H
__unwindtable$?InitDoubleCrownAni@CenterInfoWnd@@QAEXXZ DD 0ffffffffH
	DD	FLAT:__unwindfunclet$?InitDoubleCrownAni@CenterInfoWnd@@QAEXXZ$0
	DD	0ffffffffH
	DD	FLAT:__unwindfunclet$?InitDoubleCrownAni@CenterInfoWnd@@QAEXXZ$1
	DD	0ffffffffH
	DD	FLAT:__unwindfunclet$?InitDoubleCrownAni@CenterInfoWnd@@QAEXXZ$2
	DD	0ffffffffH
	DD	FLAT:__unwindfunclet$?InitDoubleCrownAni@CenterInfoWnd@@QAEXXZ$3
	DD	0ffffffffH
	DD	FLAT:__unwindfunclet$?InitDoubleCrownAni@CenterInfoWnd@@QAEXXZ$4
	DD	0ffffffffH
	DD	FLAT:__unwindfunclet$?InitDoubleCrownAni@CenterInfoWnd@@QAEXXZ$5
; Function compile flags: /Ogsp
xdata$x	ENDS
;	COMDAT ?InitDoubleCrownAni@CenterInfoWnd@@QAEXXZ
_TEXT	SEGMENT
$T514744 = -20						; size = 4
$T514740 = -20						; size = 4
$T514736 = -20						; size = 4
$T514732 = -20						; size = 4
$T514728 = -20						; size = 4
$T514724 = -20						; size = 4
tv224 = -16						; size = 4
__$EHRec$ = -12						; size = 12
?InitDoubleCrownAni@CenterInfoWnd@@QAEXXZ PROC		; CenterInfoWnd::InitDoubleCrownAni, COMDAT
; _this$ = ecx

; 1075 : {

  00000	6a 08		 push	 8
  00002	b8 00 00 00 00	 mov	 eax, __ehhandler$?InitDoubleCrownAni@CenterInfoWnd@@QAEXXZ
  00007	e8 00 00 00 00	 call	 __EH_prolog3

; 1076 : 	enum { DELAY_DROP = 250, DELAY_SUP1 = 100, DELAY_SUP2 = 100, DELAY_LOOP = 1000000000 };
; 1077 : 
; 1078 : 	m_DoubleCrownAni.SetCurState( DCA_NONE );

  0000c	81 c1 80 05 00
	00		 add	 ecx, 1408		; 00000580H
  00012	33 db		 xor	 ebx, ebx
  00014	53		 push	 ebx
  00015	89 4d f0	 mov	 DWORD PTR tv224[ebp], ecx
  00018	e8 00 00 00 00	 call	 ?SetCurState@FSMStateMgr@@QAEXH@Z ; FSMStateMgr::SetCurState

; 1079 : 
; 1080 : 	FSMState *pState = new FSMState( DCA_NONE );

  0001d	6a 38		 push	 56			; 00000038H
  0001f	e8 00 00 00 00	 call	 ??2@YAPAXI@Z		; operator new
  00024	59		 pop	 ecx
  00025	89 45 ec	 mov	 DWORD PTR $T514724[ebp], eax
  00028	89 5d fc	 mov	 DWORD PTR __$EHRec$[ebp+8], ebx
  0002b	3b c3		 cmp	 eax, ebx
  0002d	74 0c		 je	 SHORT $LN9@InitDouble
  0002f	53		 push	 ebx
  00030	8b c8		 mov	 ecx, eax
  00032	e8 00 00 00 00	 call	 ??0FSMState@@QAE@H@Z	; FSMState::FSMState
  00037	8b f8		 mov	 edi, eax
  00039	eb 02		 jmp	 SHORT $LN10@InitDouble
$LN9@InitDouble:
  0003b	33 ff		 xor	 edi, edi
$LN10@InitDouble:
  0003d	83 4d fc ff	 or	 DWORD PTR __$EHRec$[ebp+8], -1

; 1081 : 	if( pState )

  00041	33 f6		 xor	 esi, esi
  00043	46		 inc	 esi
  00044	3b fb		 cmp	 edi, ebx
  00046	74 0b		 je	 SHORT $LN6@InitDouble

; 1082 : 		pState->Add( DCA_NONE, DCA_START );

  00048	6a ff		 push	 -1
  0004a	56		 push	 esi
  0004b	53		 push	 ebx
  0004c	8b cf		 mov	 ecx, edi
  0004e	e8 00 00 00 00	 call	 ?Add@FSMState@@QAEXHHH@Z ; FSMState::Add
$LN6@InitDouble:

; 1083 : 	m_DoubleCrownAni.Add( pState );

  00053	8b 4d f0	 mov	 ecx, DWORD PTR tv224[ebp]
  00056	57		 push	 edi
  00057	e8 00 00 00 00	 call	 ?Add@FSMStateMgr@@QAEXPAVFSMState@@@Z ; FSMStateMgr::Add

; 1084 : 
; 1085 : 	pState = new FSMState( DCA_START );

  0005c	6a 38		 push	 56			; 00000038H
  0005e	e8 00 00 00 00	 call	 ??2@YAPAXI@Z		; operator new
  00063	59		 pop	 ecx
  00064	89 45 ec	 mov	 DWORD PTR $T514728[ebp], eax
  00067	89 75 fc	 mov	 DWORD PTR __$EHRec$[ebp+8], esi
  0006a	3b c3		 cmp	 eax, ebx
  0006c	74 0a		 je	 SHORT $LN11@InitDouble
  0006e	56		 push	 esi
  0006f	8b c8		 mov	 ecx, eax
  00071	e8 00 00 00 00	 call	 ??0FSMState@@QAE@H@Z	; FSMState::FSMState
  00076	8b d8		 mov	 ebx, eax
$LN11@InitDouble:
  00078	83 4d fc ff	 or	 DWORD PTR __$EHRec$[ebp+8], -1

; 1086 : 	if( pState )

  0007c	6a 02		 push	 2
  0007e	5f		 pop	 edi
  0007f	85 db		 test	 ebx, ebx
  00081	74 0b		 je	 SHORT $LN5@InitDouble

; 1087 : 		pState->Add( DCA_START, DCA_DROP, 0 );

  00083	6a 00		 push	 0
  00085	57		 push	 edi
  00086	56		 push	 esi
  00087	8b cb		 mov	 ecx, ebx
  00089	e8 00 00 00 00	 call	 ?Add@FSMState@@QAEXHHH@Z ; FSMState::Add
$LN5@InitDouble:

; 1088 : 	m_DoubleCrownAni.Add( pState );

  0008e	8b 4d f0	 mov	 ecx, DWORD PTR tv224[ebp]
  00091	53		 push	 ebx
  00092	e8 00 00 00 00	 call	 ?Add@FSMStateMgr@@QAEXPAVFSMState@@@Z ; FSMStateMgr::Add

; 1089 : 
; 1090 : 	pState = new FSMState( DCA_DROP );

  00097	6a 38		 push	 56			; 00000038H
  00099	e8 00 00 00 00	 call	 ??2@YAPAXI@Z		; operator new
  0009e	59		 pop	 ecx
  0009f	89 45 ec	 mov	 DWORD PTR $T514732[ebp], eax
  000a2	89 7d fc	 mov	 DWORD PTR __$EHRec$[ebp+8], edi
  000a5	85 c0		 test	 eax, eax
  000a7	74 0c		 je	 SHORT $LN13@InitDouble
  000a9	57		 push	 edi
  000aa	8b c8		 mov	 ecx, eax
  000ac	e8 00 00 00 00	 call	 ??0FSMState@@QAE@H@Z	; FSMState::FSMState
  000b1	8b d8		 mov	 ebx, eax
  000b3	eb 02		 jmp	 SHORT $LN14@InitDouble
$LN13@InitDouble:
  000b5	33 db		 xor	 ebx, ebx
$LN14@InitDouble:
  000b7	83 4d fc ff	 or	 DWORD PTR __$EHRec$[ebp+8], -1

; 1091 : 	if( pState )

  000bb	6a 03		 push	 3
  000bd	5e		 pop	 esi
  000be	85 db		 test	 ebx, ebx
  000c0	74 0e		 je	 SHORT $LN4@InitDouble

; 1092 : 		pState->Add( DCA_DROP, DCA_SUP1, DELAY_DROP );

  000c2	68 fa 00 00 00	 push	 250			; 000000faH
  000c7	56		 push	 esi
  000c8	57		 push	 edi
  000c9	8b cb		 mov	 ecx, ebx
  000cb	e8 00 00 00 00	 call	 ?Add@FSMState@@QAEXHHH@Z ; FSMState::Add
$LN4@InitDouble:

; 1093 : 	m_DoubleCrownAni.Add( pState );

  000d0	8b 4d f0	 mov	 ecx, DWORD PTR tv224[ebp]
  000d3	53		 push	 ebx
  000d4	e8 00 00 00 00	 call	 ?Add@FSMStateMgr@@QAEXPAVFSMState@@@Z ; FSMStateMgr::Add

; 1094 : 
; 1095 : 	pState = new FSMState( DCA_SUP1 );

  000d9	6a 38		 push	 56			; 00000038H
  000db	e8 00 00 00 00	 call	 ??2@YAPAXI@Z		; operator new
  000e0	59		 pop	 ecx
  000e1	89 45 ec	 mov	 DWORD PTR $T514736[ebp], eax
  000e4	89 75 fc	 mov	 DWORD PTR __$EHRec$[ebp+8], esi
  000e7	85 c0		 test	 eax, eax
  000e9	74 0c		 je	 SHORT $LN15@InitDouble
  000eb	56		 push	 esi
  000ec	8b c8		 mov	 ecx, eax
  000ee	e8 00 00 00 00	 call	 ??0FSMState@@QAE@H@Z	; FSMState::FSMState
  000f3	8b d8		 mov	 ebx, eax
  000f5	eb 02		 jmp	 SHORT $LN16@InitDouble
$LN15@InitDouble:
  000f7	33 db		 xor	 ebx, ebx
$LN16@InitDouble:
  000f9	83 4d fc ff	 or	 DWORD PTR __$EHRec$[ebp+8], -1

; 1096 : 	if( pState )

  000fd	6a 04		 push	 4
  000ff	5f		 pop	 edi
  00100	85 db		 test	 ebx, ebx
  00102	74 0b		 je	 SHORT $LN3@InitDouble

; 1097 : 		pState->Add( DCA_SUP1, DCA_SUP2 , DELAY_SUP1 );

  00104	6a 64		 push	 100			; 00000064H
  00106	57		 push	 edi
  00107	56		 push	 esi
  00108	8b cb		 mov	 ecx, ebx
  0010a	e8 00 00 00 00	 call	 ?Add@FSMState@@QAEXHHH@Z ; FSMState::Add
$LN3@InitDouble:

; 1098 : 	m_DoubleCrownAni.Add( pState );	

  0010f	8b 4d f0	 mov	 ecx, DWORD PTR tv224[ebp]
  00112	53		 push	 ebx
  00113	e8 00 00 00 00	 call	 ?Add@FSMStateMgr@@QAEXPAVFSMState@@@Z ; FSMStateMgr::Add

; 1099 : 
; 1100 : 	pState = new FSMState( DCA_SUP2 );

  00118	6a 38		 push	 56			; 00000038H
  0011a	e8 00 00 00 00	 call	 ??2@YAPAXI@Z		; operator new
  0011f	59		 pop	 ecx
  00120	89 45 ec	 mov	 DWORD PTR $T514740[ebp], eax
  00123	89 7d fc	 mov	 DWORD PTR __$EHRec$[ebp+8], edi
  00126	85 c0		 test	 eax, eax
  00128	74 0c		 je	 SHORT $LN17@InitDouble
  0012a	57		 push	 edi
  0012b	8b c8		 mov	 ecx, eax
  0012d	e8 00 00 00 00	 call	 ??0FSMState@@QAE@H@Z	; FSMState::FSMState
  00132	8b d8		 mov	 ebx, eax
  00134	eb 02		 jmp	 SHORT $LN18@InitDouble
$LN17@InitDouble:
  00136	33 db		 xor	 ebx, ebx
$LN18@InitDouble:
  00138	83 4d fc ff	 or	 DWORD PTR __$EHRec$[ebp+8], -1

; 1101 : 	if( pState )

  0013c	6a 05		 push	 5
  0013e	5e		 pop	 esi
  0013f	85 db		 test	 ebx, ebx
  00141	74 0b		 je	 SHORT $LN2@InitDouble

; 1102 : 		pState->Add( DCA_SUP2, DCA_LOOP , DELAY_SUP2 );

  00143	6a 64		 push	 100			; 00000064H
  00145	56		 push	 esi
  00146	57		 push	 edi
  00147	8b cb		 mov	 ecx, ebx
  00149	e8 00 00 00 00	 call	 ?Add@FSMState@@QAEXHHH@Z ; FSMState::Add
$LN2@InitDouble:

; 1103 : 	m_DoubleCrownAni.Add( pState );

  0014e	8b 4d f0	 mov	 ecx, DWORD PTR tv224[ebp]
  00151	53		 push	 ebx
  00152	e8 00 00 00 00	 call	 ?Add@FSMStateMgr@@QAEXPAVFSMState@@@Z ; FSMStateMgr::Add

; 1104 : 
; 1105 : 	pState = new FSMState( DCA_LOOP );

  00157	6a 38		 push	 56			; 00000038H
  00159	e8 00 00 00 00	 call	 ??2@YAPAXI@Z		; operator new
  0015e	59		 pop	 ecx
  0015f	89 45 ec	 mov	 DWORD PTR $T514744[ebp], eax
  00162	89 75 fc	 mov	 DWORD PTR __$EHRec$[ebp+8], esi
  00165	85 c0		 test	 eax, eax
  00167	74 0c		 je	 SHORT $LN19@InitDouble
  00169	56		 push	 esi
  0016a	8b c8		 mov	 ecx, eax
  0016c	e8 00 00 00 00	 call	 ??0FSMState@@QAE@H@Z	; FSMState::FSMState
  00171	8b f8		 mov	 edi, eax
  00173	eb 02		 jmp	 SHORT $LN20@InitDouble
$LN19@InitDouble:
  00175	33 ff		 xor	 edi, edi
$LN20@InitDouble:
  00177	83 4d fc ff	 or	 DWORD PTR __$EHRec$[ebp+8], -1

; 1106 : 	if( pState )

  0017b	85 ff		 test	 edi, edi
  0017d	74 0f		 je	 SHORT $LN1@InitDouble

; 1107 : 		pState->Add( DCA_LOOP, DCA_NONE , DELAY_LOOP );

  0017f	68 00 ca 9a 3b	 push	 1000000000		; 3b9aca00H
  00184	6a 00		 push	 0
  00186	56		 push	 esi
  00187	8b cf		 mov	 ecx, edi
  00189	e8 00 00 00 00	 call	 ?Add@FSMState@@QAEXHHH@Z ; FSMState::Add
$LN1@InitDouble:

; 1108 : 	m_DoubleCrownAni.Add( pState );

  0018e	8b 4d f0	 mov	 ecx, DWORD PTR tv224[ebp]
  00191	57		 push	 edi
  00192	e8 00 00 00 00	 call	 ?Add@FSMStateMgr@@QAEXPAVFSMState@@@Z ; FSMStateMgr::Add

; 1109 : }

  00197	e8 00 00 00 00	 call	 __EH_epilog3
  0019c	c3		 ret	 0
_TEXT	ENDS
;	COMDAT text$x
text$x	SEGMENT
__unwindfunclet$?InitDoubleCrownAni@CenterInfoWnd@@QAEXXZ$0:
  00000	ff 75 ec	 push	 DWORD PTR $T514724[ebp]
  00003	e8 00 00 00 00	 call	 ??3@YAXPAX@Z		; operator delete
  00008	59		 pop	 ecx
  00009	c3		 ret	 0
__unwindfunclet$?InitDoubleCrownAni@CenterInfoWnd@@QAEXXZ$1:
  0000a	ff 75 ec	 push	 DWORD PTR $T514728[ebp]
  0000d	e8 00 00 00 00	 call	 ??3@YAXPAX@Z		; operator delete
  00012	59		 pop	 ecx
  00013	c3		 ret	 0
__unwindfunclet$?InitDoubleCrownAni@CenterInfoWnd@@QAEXXZ$2:
  00014	ff 75 ec	 push	 DWORD PTR $T514732[ebp]
  00017	e8 00 00 00 00	 call	 ??3@YAXPAX@Z		; operator delete
  0001c	59		 pop	 ecx
  0001d	c3		 ret	 0
__unwindfunclet$?InitDoubleCrownAni@CenterInfoWnd@@QAEXXZ$3:
  0001e	ff 75 ec	 push	 DWORD PTR $T514736[ebp]
  00021	e8 00 00 00 00	 call	 ??3@YAXPAX@Z		; operator delete
  00026	59		 pop	 ecx
  00027	c3		 ret	 0
__unwindfunclet$?InitDoubleCrownAni@CenterInfoWnd@@QAEXXZ$4:
  00028	ff 75 ec	 push	 DWORD PTR $T514740[ebp]
  0002b	e8 00 00 00 00	 call	 ??3@YAXPAX@Z		; operator delete
  00030	59		 pop	 ecx
  00031	c3		 ret	 0
__unwindfunclet$?InitDoubleCrownAni@CenterInfoWnd@@QAEXXZ$5:
  00032	ff 75 ec	 push	 DWORD PTR $T514744[ebp]
  00035	e8 00 00 00 00	 call	 ??3@YAXPAX@Z		; operator delete
  0003a	59		 pop	 ecx
  0003b	c3		 ret	 0
__ehhandler$?InitDoubleCrownAni@CenterInfoWnd@@QAEXXZ:
  0003c	8b 54 24 08	 mov	 edx, DWORD PTR [esp+8]
  00040	8d 42 0c	 lea	 eax, DWORD PTR [edx+12]
  00043	8b 4a e8	 mov	 ecx, DWORD PTR [edx-24]
  00046	33 c8		 xor	 ecx, eax
  00048	e8 00 00 00 00	 call	 @__security_check_cookie@4
  0004d	b8 00 00 00 00	 mov	 eax, OFFSET __ehfuncinfo$?InitDoubleCrownAni@CenterInfoWnd@@QAEXXZ
  00052	e9 00 00 00 00	 jmp	 ___CxxFrameHandler3
text$x	ENDS
?InitDoubleCrownAni@CenterInfoWnd@@QAEXXZ ENDP		; CenterInfoWnd::InitDoubleCrownAni
PUBLIC	__real@4f800000
PUBLIC	?UpdateDeathTime@CenterInfoWnd@@QAEXXZ		; CenterInfoWnd::UpdateDeathTime
EXTRN	__imp_?ShowWnd@ioWnd@@QAEXXZ:PROC
;	COMDAT __real@4f800000
; File d:\lost saga for developer\youtube\tutorial\source\src\lsclient\stdafx.h
CONST	SEGMENT
__real@4f800000 DD 04f800000r			; 4.29497e+009
; Function compile flags: /Ogsp
; File d:\lost saga for developer\youtube\tutorial\source\src\lsclient\gui\centerinfownd.cpp
CONST	ENDS
;	COMDAT ?UpdateDeathTime@CenterInfoWnd@@QAEXXZ
_TEXT	SEGMENT
tv182 = -4						; size = 4
?UpdateDeathTime@CenterInfoWnd@@QAEXXZ PROC		; CenterInfoWnd::UpdateDeathTime, COMDAT
; _this$ = ecx

; 3054 : {

  00000	55		 push	 ebp
  00001	8b ec		 mov	 ebp, esp
  00003	51		 push	 ecx
  00004	53		 push	 ebx
  00005	56		 push	 esi
  00006	8b f1		 mov	 esi, ecx

; 3055 : 	m_bDeathTimeScreen = false;

  00008	33 db		 xor	 ebx, ebx
  0000a	88 9e 90 04 00
	00		 mov	 BYTE PTR [esi+1168], bl

; 3056 : 	m_fTimeRate = FLOAT1;

  00010	b8 01 00 00 00	 mov	 eax, 1
  00015	89 45 fc	 mov	 DWORD PTR tv182[ebp], eax
  00018	db 45 fc	 fild	 DWORD PTR tv182[ebp]
  0001b	85 c0		 test	 eax, eax
  0001d	79 06		 jns	 SHORT $LN5@UpdateDeat
  0001f	d8 05 00 00 00
	00		 fadd	 DWORD PTR __real@4f800000
$LN5@UpdateDeat:

; 3057 : 	m_fAlphaRate= 0.0f;

  00025	0f 57 c0	 xorps	 xmm0, xmm0
  00028	d9 9e 04 06 00
	00		 fstp	 DWORD PTR [esi+1540]

; 3058 : 	m_iAddXPos = m_iAddYPos = 0;
; 3059 : 	m_DeathTimeAni.SetCurState( DTA_FADEIN );

  0002e	6a 02		 push	 2
  00030	8d 8e 58 04 00
	00		 lea	 ecx, DWORD PTR [esi+1112]
  00036	f3 0f 11 86 08
	06 00 00	 movss	 DWORD PTR [esi+1544], xmm0
  0003e	89 9e 14 06 00
	00		 mov	 DWORD PTR [esi+1556], ebx
  00044	89 9e 10 06 00
	00		 mov	 DWORD PTR [esi+1552], ebx
  0004a	e8 00 00 00 00	 call	 ?SetCurState@FSMStateMgr@@QAEXH@Z ; FSMStateMgr::SetCurState

; 3060 : 	m_TeamDeathAni.SetCurState( TDA_NONE );

  0004f	53		 push	 ebx
  00050	8d 8e b8 03 00
	00		 lea	 ecx, DWORD PTR [esi+952]
  00056	e8 00 00 00 00	 call	 ?SetCurState@FSMStateMgr@@QAEXH@Z ; FSMStateMgr::SetCurState

; 3061 : 	m_DeathMatchAni.SetCurState( DMA_NONE );

  0005b	53		 push	 ebx
  0005c	8d 8e 1c 04 00
	00		 lea	 ecx, DWORD PTR [esi+1052]
  00062	e8 00 00 00 00	 call	 ?SetCurState@FSMStateMgr@@QAEXH@Z ; FSMStateMgr::SetCurState

; 3062 : 	m_HiddenCrownAni.SetCurState( HCA_NONE );

  00067	53		 push	 ebx
  00068	8d 8e 7c 03 00
	00		 lea	 ecx, DWORD PTR [esi+892]
  0006e	e8 00 00 00 00	 call	 ?SetCurState@FSMStateMgr@@QAEXH@Z ; FSMStateMgr::SetCurState

; 3063 : 	m_BossRaidAni.SetCurState( BRA_NONE );

  00073	53		 push	 ebx
  00074	8d 8e 30 03 00
	00		 lea	 ecx, DWORD PTR [esi+816]
  0007a	e8 00 00 00 00	 call	 ?SetCurState@FSMStateMgr@@QAEXH@Z ; FSMStateMgr::SetCurState

; 3064 : 	m_SymbolGaugeAni.SetCurState( SGA_NONE );

  0007f	53		 push	 ebx
  00080	8d 8e c0 02 00
	00		 lea	 ecx, DWORD PTR [esi+704]
  00086	e8 00 00 00 00	 call	 ?SetCurState@FSMStateMgr@@QAEXH@Z ; FSMStateMgr::SetCurState

; 3065 : 	m_GangsiModeAni.SetCurState( GMA_NONE );

  0008b	53		 push	 ebx
  0008c	8d 8e 94 04 00
	00		 lea	 ecx, DWORD PTR [esi+1172]
  00092	e8 00 00 00 00	 call	 ?SetCurState@FSMStateMgr@@QAEXH@Z ; FSMStateMgr::SetCurState

; 3066 : 	m_DoubleCrownAni.SetCurState( DCA_NONE );

  00097	53		 push	 ebx
  00098	8d 8e 80 05 00
	00		 lea	 ecx, DWORD PTR [esi+1408]
  0009e	e8 00 00 00 00	 call	 ?SetCurState@FSMStateMgr@@QAEXH@Z ; FSMStateMgr::SetCurState

; 3067 : 	ShowWnd();

  000a3	8b ce		 mov	 ecx, esi
  000a5	ff 15 00 00 00
	00		 call	 DWORD PTR __imp_?ShowWnd@ioWnd@@QAEXXZ
  000ab	5e		 pop	 esi
  000ac	5b		 pop	 ebx

; 3068 : }

  000ad	c9		 leave
  000ae	c3		 ret	 0
?UpdateDeathTime@CenterInfoWnd@@QAEXXZ ENDP		; CenterInfoWnd::UpdateDeathTime
_TEXT	ENDS
PUBLIC	?UpdateGangsiLiveUser@CenterInfoWnd@@QAEXHABVioHashString@@0@Z ; CenterInfoWnd::UpdateGangsiLiveUser
EXTRN	__imp_?PlaySoundA@ioSoundManager@@QAEKABVioHashString@@HK@Z:PROC
EXTRN	__imp_?GetSingleton@ioSoundManager@@SAAAV1@XZ:PROC
EXTRN	__imp_?IsEmpty@ioHashString@@QBE_NXZ:PROC
EXTRN	__imp_?HideWnd@ioWnd@@QAEXXZ:PROC
EXTRN	__imp_?IsShow@ioWnd@@QBE_NXZ:PROC
EXTRN	__imp_??4ioHashString@@QAEAAV0@ABV0@@Z:PROC
; Function compile flags: /Ogsp
;	COMDAT ?UpdateGangsiLiveUser@CenterInfoWnd@@QAEXHABVioHashString@@0@Z
_TEXT	SEGMENT
tv185 = 8						; size = 4
_iLiveUser$ = 8						; size = 4
_szGangsi$ = 12						; size = 4
_szSurvivor$ = 16					; size = 4
?UpdateGangsiLiveUser@CenterInfoWnd@@QAEXHABVioHashString@@0@Z PROC ; CenterInfoWnd::UpdateGangsiLiveUser, COMDAT
; _this$ = ecx

; 3354 : {

  00000	55		 push	 ebp
  00001	8b ec		 mov	 ebp, esp
  00003	53		 push	 ebx

; 3355 : 	if( iLiveUser == 0 ) return;

  00004	8b 5d 08	 mov	 ebx, DWORD PTR _iLiveUser$[ebp]
  00007	56		 push	 esi
  00008	8b f1		 mov	 esi, ecx
  0000a	85 db		 test	 ebx, ebx
  0000c	0f 84 bd 00 00
	00		 je	 $LN1@UpdateGang

; 3356 : 
; 3357 : 	m_szGangsiName   = szGangsi;

  00012	57		 push	 edi
  00013	ff 75 0c	 push	 DWORD PTR _szGangsi$[ebp]
  00016	8b 3d 00 00 00
	00		 mov	 edi, DWORD PTR __imp_??4ioHashString@@QAEAAV0@ABV0@@Z
  0001c	8d 8e bc 04 00
	00		 lea	 ecx, DWORD PTR [esi+1212]
  00022	ff d7		 call	 edi

; 3358 : 	m_szSurvivorName = szSurvivor;

  00024	ff 75 10	 push	 DWORD PTR _szSurvivor$[ebp]
  00027	8d 8e cc 04 00
	00		 lea	 ecx, DWORD PTR [esi+1228]
  0002d	ff d7		 call	 edi

; 3359 : 	m_iPrevRank = m_iCurRank;

  0002f	8b 8e 48 04 00
	00		 mov	 ecx, DWORD PTR [esi+1096]

; 3360 : 	m_iCurRank  = iLiveUser;
; 3361 : 	m_fTimeRate = 0.0f;

  00035	0f 57 c0	 xorps	 xmm0, xmm0
  00038	89 8e 44 04 00
	00		 mov	 DWORD PTR [esi+1092], ecx
  0003e	89 9e 48 04 00
	00		 mov	 DWORD PTR [esi+1096], ebx
  00044	f3 0f 11 86 04
	06 00 00	 movss	 DWORD PTR [esi+1540], xmm0

; 3362 : 	m_fAlphaRate= FLOAT1;

  0004c	b8 01 00 00 00	 mov	 eax, 1
  00051	89 45 08	 mov	 DWORD PTR tv185[ebp], eax
  00054	db 45 08	 fild	 DWORD PTR tv185[ebp]
  00057	85 c0		 test	 eax, eax
  00059	79 06		 jns	 SHORT $LN9@UpdateGang
  0005b	d8 05 00 00 00
	00		 fadd	 DWORD PTR __real@4f800000
$LN9@UpdateGang:

; 3363 : 	m_iAddXPos = m_iAddYPos = 0;

  00061	33 ff		 xor	 edi, edi
  00063	d9 9e 08 06 00
	00		 fstp	 DWORD PTR [esi+1544]

; 3364 : 	m_GangsiModeAni.SetCurState( GMA_START );

  00069	6a 01		 push	 1
  0006b	8d 8e 94 04 00
	00		 lea	 ecx, DWORD PTR [esi+1172]
  00071	89 be 14 06 00
	00		 mov	 DWORD PTR [esi+1556], edi
  00077	89 be 10 06 00
	00		 mov	 DWORD PTR [esi+1552], edi
  0007d	e8 00 00 00 00	 call	 ?SetCurState@FSMStateMgr@@QAEXH@Z ; FSMStateMgr::SetCurState

; 3365 : 	m_GangsiAlarmAni.SetCurState( GAA_NONE );

  00082	57		 push	 edi
  00083	8d 8e ec 04 00
	00		 lea	 ecx, DWORD PTR [esi+1260]
  00089	e8 00 00 00 00	 call	 ?SetCurState@FSMStateMgr@@QAEXH@Z ; FSMStateMgr::SetCurState

; 3366 : 	if( IsShow() )

  0008e	8b ce		 mov	 ecx, esi
  00090	ff 15 00 00 00
	00		 call	 DWORD PTR __imp_?IsShow@ioWnd@@QBE_NXZ
  00096	84 c0		 test	 al, al
  00098	74 08		 je	 SHORT $LN2@UpdateGang

; 3367 : 		HideWnd();

  0009a	8b ce		 mov	 ecx, esi
  0009c	ff 15 00 00 00
	00		 call	 DWORD PTR __imp_?HideWnd@ioWnd@@QAEXXZ
$LN2@UpdateGang:

; 3368 : 	ShowWnd();

  000a2	8b ce		 mov	 ecx, esi
  000a4	ff 15 00 00 00
	00		 call	 DWORD PTR __imp_?ShowWnd@ioWnd@@QAEXXZ

; 3369 : 
; 3370 : 	if( !m_GangsiLiveSound.IsEmpty() )

  000aa	81 c6 dc 04 00
	00		 add	 esi, 1244		; 000004dcH
  000b0	8b ce		 mov	 ecx, esi
  000b2	ff 15 00 00 00
	00		 call	 DWORD PTR __imp_?IsEmpty@ioHashString@@QBE_NXZ
  000b8	84 c0		 test	 al, al
  000ba	75 12		 jne	 SHORT $LN8@UpdateGang

; 3371 : 	{
; 3372 : 		g_SoundMgr.PlaySound( m_GangsiLiveSound );

  000bc	6a 04		 push	 4
  000be	57		 push	 edi
  000bf	56		 push	 esi
  000c0	ff 15 00 00 00
	00		 call	 DWORD PTR __imp_?GetSingleton@ioSoundManager@@SAAAV1@XZ
  000c6	8b c8		 mov	 ecx, eax
  000c8	ff 15 00 00 00
	00		 call	 DWORD PTR __imp_?PlaySoundA@ioSoundManager@@QAEKABVioHashString@@HK@Z
$LN8@UpdateGang:
  000ce	5f		 pop	 edi
$LN1@UpdateGang:
  000cf	5e		 pop	 esi
  000d0	5b		 pop	 ebx

; 3373 : 	}
; 3374 : }

  000d1	5d		 pop	 ebp
  000d2	c2 0c 00	 ret	 12			; 0000000cH
?UpdateGangsiLiveUser@CenterInfoWnd@@QAEXHABVioHashString@@0@Z ENDP ; CenterInfoWnd::UpdateGangsiLiveUser
_TEXT	ENDS
PUBLIC	?BossRaidSound@CenterInfoWnd@@IAEX_N@Z		; CenterInfoWnd::BossRaidSound
EXTRN	__imp_?StopSound@ioSoundManager@@QAEXABVioHashString@@K@Z:PROC
; Function compile flags: /Ogsp
;	COMDAT ?BossRaidSound@CenterInfoWnd@@IAEX_N@Z
_TEXT	SEGMENT
_bPlay$ = 8						; size = 1
?BossRaidSound@CenterInfoWnd@@IAEX_N@Z PROC		; CenterInfoWnd::BossRaidSound, COMDAT
; _this$ = ecx

; 3431 : {

  00000	55		 push	 ebp
  00001	8b ec		 mov	 ebp, esp
  00003	56		 push	 esi
  00004	8b f1		 mov	 esi, ecx
  00006	57		 push	 edi

; 3432 : 	if( m_BossRaidSound.IsEmpty() ) return;

  00007	8d be 68 03 00
	00		 lea	 edi, DWORD PTR [esi+872]
  0000d	8b cf		 mov	 ecx, edi
  0000f	ff 15 00 00 00
	00		 call	 DWORD PTR __imp_?IsEmpty@ioHashString@@QBE_NXZ
  00015	84 c0		 test	 al, al
  00017	75 4d		 jne	 SHORT $LN1@BossRaidSo

; 3433 : 
; 3434 : 	if( m_bBossRaidSnd && !bPlay )

  00019	8a 86 78 03 00
	00		 mov	 al, BYTE PTR [esi+888]
  0001f	53		 push	 ebx
  00020	33 db		 xor	 ebx, ebx
  00022	3a c3		 cmp	 al, bl
  00024	74 21		 je	 SHORT $LN9@BossRaidSo
  00026	38 5d 08	 cmp	 BYTE PTR _bPlay$[ebp], bl
  00029	75 18		 jne	 SHORT $LN3@BossRaidSo

; 3435 : 	{
; 3436 : 		g_SoundMgr.StopSound( m_BossRaidSound, 0 );

  0002b	53		 push	 ebx
  0002c	57		 push	 edi
  0002d	ff 15 00 00 00
	00		 call	 DWORD PTR __imp_?GetSingleton@ioSoundManager@@SAAAV1@XZ
  00033	8b c8		 mov	 ecx, eax
  00035	ff 15 00 00 00
	00		 call	 DWORD PTR __imp_?StopSound@ioSoundManager@@QAEXABVioHashString@@K@Z

; 3437 : 		m_bBossRaidSnd = false;

  0003b	88 9e 78 03 00
	00		 mov	 BYTE PTR [esi+888], bl
  00041	eb 22		 jmp	 SHORT $LN7@BossRaidSo
$LN3@BossRaidSo:

; 3438 : 	}
; 3439 : 	else if( !m_bBossRaidSnd && bPlay )

  00043	3a c3		 cmp	 al, bl
  00045	75 1e		 jne	 SHORT $LN7@BossRaidSo
$LN9@BossRaidSo:
  00047	38 5d 08	 cmp	 BYTE PTR _bPlay$[ebp], bl
  0004a	74 19		 je	 SHORT $LN7@BossRaidSo

; 3440 : 	{
; 3441 : 		g_SoundMgr.PlaySound( m_BossRaidSound, DSBVOLUME_MAX, PSM_LOOP | PSM_THREAD );

  0004c	6a 06		 push	 6
  0004e	53		 push	 ebx
  0004f	57		 push	 edi
  00050	ff 15 00 00 00
	00		 call	 DWORD PTR __imp_?GetSingleton@ioSoundManager@@SAAAV1@XZ
  00056	8b c8		 mov	 ecx, eax
  00058	ff 15 00 00 00
	00		 call	 DWORD PTR __imp_?PlaySoundA@ioSoundManager@@QAEKABVioHashString@@HK@Z

; 3442 : 		m_bBossRaidSnd = true;

  0005e	c6 86 78 03 00
	00 01		 mov	 BYTE PTR [esi+888], 1
$LN7@BossRaidSo:
  00065	5b		 pop	 ebx
$LN1@BossRaidSo:
  00066	5f		 pop	 edi
  00067	5e		 pop	 esi

; 3443 : 	}
; 3444 : }

  00068	5d		 pop	 ebp
  00069	c2 04 00	 ret	 4
?BossRaidSound@CenterInfoWnd@@IAEX_N@Z ENDP		; CenterInfoWnd::BossRaidSound
_TEXT	ENDS
PUBLIC	?IsHiddenKingWarning@CenterInfoWnd@@QAE_NXZ	; CenterInfoWnd::IsHiddenKingWarning
EXTRN	__imp_?GetLoopSec@ioFrameTimer@@QBEKXZ:PROC
EXTRN	__imp_?GetSingleton@ioFrameTimer@@SAAAV1@XZ:PROC
; Function compile flags: /Ogsp
;	COMDAT ?IsHiddenKingWarning@CenterInfoWnd@@QAE_NXZ
_TEXT	SEGMENT
tv170 = -4						; size = 4
tv167 = -4						; size = 4
?IsHiddenKingWarning@CenterInfoWnd@@QAE_NXZ PROC	; CenterInfoWnd::IsHiddenKingWarning, COMDAT
; _this$ = ecx

; 3447 : {

  00000	55		 push	 ebp
  00001	8b ec		 mov	 ebp, esp
  00003	51		 push	 ecx
  00004	56		 push	 esi
  00005	8b f1		 mov	 esi, ecx

; 3448 : 	if( !IsShow() ) 

  00007	ff 15 00 00 00
	00		 call	 DWORD PTR __imp_?IsShow@ioWnd@@QBE_NXZ
  0000d	84 c0		 test	 al, al

; 3449 : 		return false;

  0000f	74 4a		 je	 SHORT $LN1@IsHiddenKi

; 3450 : 
; 3451 : 	DWORD dwGapTime = FRAMEGETTIME() - m_dwCrownHoldTime;

  00011	ff 15 00 00 00
	00		 call	 DWORD PTR __imp_?GetSingleton@ioFrameTimer@@SAAAV1@XZ
  00017	8b c8		 mov	 ecx, eax
  00019	ff 15 00 00 00
	00		 call	 DWORD PTR __imp_?GetLoopSec@ioFrameTimer@@QBEKXZ
  0001f	2b 86 b0 03 00
	00		 sub	 eax, DWORD PTR [esi+944]

; 3452 : 	if( dwGapTime > ( (float)m_dwGivePointTime * m_fScoreWarningRate ) )

  00025	89 45 fc	 mov	 DWORD PTR tv170[ebp], eax
  00028	db 45 fc	 fild	 DWORD PTR tv170[ebp]
  0002b	79 06		 jns	 SHORT $LN5@IsHiddenKi
  0002d	d8 05 00 00 00
	00		 fadd	 DWORD PTR __real@4f800000
$LN5@IsHiddenKi:
  00033	8b 86 ac 03 00
	00		 mov	 eax, DWORD PTR [esi+940]
  00039	db 86 ac 03 00
	00		 fild	 DWORD PTR [esi+940]
  0003f	85 c0		 test	 eax, eax
  00041	79 06		 jns	 SHORT $LN6@IsHiddenKi
  00043	d8 05 00 00 00
	00		 fadd	 DWORD PTR __real@4f800000
$LN6@IsHiddenKi:
  00049	d8 8e b4 03 00
	00		 fmul	 DWORD PTR [esi+948]
  0004f	d9 c9		 fxch	 ST(1)
  00051	df f1		 fcomip	 ST(1)
  00053	dd d8		 fstp	 ST(0)
  00055	76 04		 jbe	 SHORT $LN1@IsHiddenKi

; 3453 : 		return true;

  00057	b0 01		 mov	 al, 1
  00059	eb 02		 jmp	 SHORT $LN3@IsHiddenKi
$LN1@IsHiddenKi:

; 3454 : 	return false;

  0005b	32 c0		 xor	 al, al
$LN3@IsHiddenKi:
  0005d	5e		 pop	 esi

; 3455 : }

  0005e	c9		 leave
  0005f	c3		 ret	 0
?IsHiddenKingWarning@CenterInfoWnd@@QAE_NXZ ENDP	; CenterInfoWnd::IsHiddenKingWarning
_TEXT	ENDS
PUBLIC	??A?$vector@VioHashString@@V?$allocator@VioHashString@@@std@@@std@@QAEAAVioHashString@@I@Z ; std::vector<ioHashString,std::allocator<ioHashString> >::operator[]
; Function compile flags: /Ogsp
; File c:\program files (x86)\microsoft visual studio 10.0\vc\include\vector
;	COMDAT ??A?$vector@VioHashString@@V?$allocator@VioHashString@@@std@@@std@@QAEAAVioHashString@@I@Z
_TEXT	SEGMENT
__Pos$ = 8						; size = 4
??A?$vector@VioHashString@@V?$allocator@VioHashString@@@std@@@std@@QAEAAVioHashString@@I@Z PROC ; std::vector<ioHashString,std::allocator<ioHashString> >::operator[], COMDAT
; _this$ = ecx

; 928  : 		{	// subscript mutable sequence

  00000	55		 push	 ebp
  00001	8b ec		 mov	 ebp, esp

; 929  :  #if _ITERATOR_DEBUG_LEVEL == 2
; 930  : 		if (size() <= _Pos)
; 931  : 			{	// report error
; 932  : 			_DEBUG_ERROR("vector subscript out of range");
; 933  : 			_SCL_SECURE_OUT_OF_RANGE;
; 934  : 			}
; 935  : 
; 936  :  #elif _ITERATOR_DEBUG_LEVEL == 1
; 937  : 		_SCL_SECURE_VALIDATE_RANGE(_Pos < size());
; 938  :  #endif /* _ITERATOR_DEBUG_LEVEL */
; 939  : 
; 940  : 		return (*(this->_Myfirst + _Pos));

  00003	8b 45 08	 mov	 eax, DWORD PTR __Pos$[ebp]
  00006	c1 e0 04	 shl	 eax, 4
  00009	03 01		 add	 eax, DWORD PTR [ecx]

; 941  : 		}

  0000b	5d		 pop	 ebp
  0000c	c2 04 00	 ret	 4
??A?$vector@VioHashString@@V?$allocator@VioHashString@@@std@@@std@@QAEAAVioHashString@@I@Z ENDP ; std::vector<ioHashString,std::allocator<ioHashString> >::operator[]
_TEXT	ENDS
PUBLIC	?size@?$vector@UtagDeathTimeData@CenterInfoWnd@@V?$allocator@UtagDeathTimeData@CenterInfoWnd@@@std@@@std@@QBEIXZ ; std::vector<CenterInfoWnd::tagDeathTimeData,std::allocator<CenterInfoWnd::tagDeathTimeData> >::size
; Function compile flags: /Ogsp
;	COMDAT ?size@?$vector@UtagDeathTimeData@CenterInfoWnd@@V?$allocator@UtagDeathTimeData@CenterInfoWnd@@@std@@@std@@QBEIXZ
_TEXT	SEGMENT
?size@?$vector@UtagDeathTimeData@CenterInfoWnd@@V?$allocator@UtagDeathTimeData@CenterInfoWnd@@@std@@@std@@QBEIXZ PROC ; std::vector<CenterInfoWnd::tagDeathTimeData,std::allocator<CenterInfoWnd::tagDeathTimeData> >::size, COMDAT
; _this$ = ecx

; 879  : 		return (this->_Mylast - this->_Myfirst);

  00000	8b 41 04	 mov	 eax, DWORD PTR [ecx+4]
  00003	2b 01		 sub	 eax, DWORD PTR [ecx]
  00005	6a 0c		 push	 12			; 0000000cH
  00007	99		 cdq
  00008	59		 pop	 ecx
  00009	f7 f9		 idiv	 ecx

; 880  : 		}

  0000b	c3		 ret	 0
?size@?$vector@UtagDeathTimeData@CenterInfoWnd@@V?$allocator@UtagDeathTimeData@CenterInfoWnd@@@std@@@std@@QBEIXZ ENDP ; std::vector<CenterInfoWnd::tagDeathTimeData,std::allocator<CenterInfoWnd::tagDeathTimeData> >::size
_TEXT	ENDS
PUBLIC	??A?$vector@UtagDeathTimeData@CenterInfoWnd@@V?$allocator@UtagDeathTimeData@CenterInfoWnd@@@std@@@std@@QAEAAUtagDeathTimeData@CenterInfoWnd@@I@Z ; std::vector<CenterInfoWnd::tagDeathTimeData,std::allocator<CenterInfoWnd::tagDeathTimeData> >::operator[]
; Function compile flags: /Ogsp
;	COMDAT ??A?$vector@UtagDeathTimeData@CenterInfoWnd@@V?$allocator@UtagDeathTimeData@CenterInfoWnd@@@std@@@std@@QAEAAUtagDeathTimeData@CenterInfoWnd@@I@Z
_TEXT	SEGMENT
__Pos$ = 8						; size = 4
??A?$vector@UtagDeathTimeData@CenterInfoWnd@@V?$allocator@UtagDeathTimeData@CenterInfoWnd@@@std@@@std@@QAEAAUtagDeathTimeData@CenterInfoWnd@@I@Z PROC ; std::vector<CenterInfoWnd::tagDeathTimeData,std::allocator<CenterInfoWnd::tagDeathTimeData> >::operator[], COMDAT
; _this$ = ecx

; 928  : 		{	// subscript mutable sequence

  00000	55		 push	 ebp
  00001	8b ec		 mov	 ebp, esp

; 929  :  #if _ITERATOR_DEBUG_LEVEL == 2
; 930  : 		if (size() <= _Pos)
; 931  : 			{	// report error
; 932  : 			_DEBUG_ERROR("vector subscript out of range");
; 933  : 			_SCL_SECURE_OUT_OF_RANGE;
; 934  : 			}
; 935  : 
; 936  :  #elif _ITERATOR_DEBUG_LEVEL == 1
; 937  : 		_SCL_SECURE_VALIDATE_RANGE(_Pos < size());
; 938  :  #endif /* _ITERATOR_DEBUG_LEVEL */
; 939  : 
; 940  : 		return (*(this->_Myfirst + _Pos));

  00003	8b 45 08	 mov	 eax, DWORD PTR __Pos$[ebp]
  00006	6b c0 0c	 imul	 eax, 12			; 0000000cH
  00009	03 01		 add	 eax, DWORD PTR [ecx]

; 941  : 		}

  0000b	5d		 pop	 ebp
  0000c	c2 04 00	 ret	 4
??A?$vector@UtagDeathTimeData@CenterInfoWnd@@V?$allocator@UtagDeathTimeData@CenterInfoWnd@@@std@@@std@@QAEAAUtagDeathTimeData@CenterInfoWnd@@I@Z ENDP ; std::vector<CenterInfoWnd::tagDeathTimeData,std::allocator<CenterInfoWnd::tagDeathTimeData> >::operator[]
_TEXT	ENDS
PUBLIC	?size@?$vector@UtagGangsiAlarmData@CenterInfoWnd@@V?$allocator@UtagGangsiAlarmData@CenterInfoWnd@@@std@@@std@@QBEIXZ ; std::vector<CenterInfoWnd::tagGangsiAlarmData,std::allocator<CenterInfoWnd::tagGangsiAlarmData> >::size
; Function compile flags: /Ogsp
;	COMDAT ?size@?$vector@UtagGangsiAlarmData@CenterInfoWnd@@V?$allocator@UtagGangsiAlarmData@CenterInfoWnd@@@std@@@std@@QBEIXZ
_TEXT	SEGMENT
?size@?$vector@UtagGangsiAlarmData@CenterInfoWnd@@V?$allocator@UtagGangsiAlarmData@CenterInfoWnd@@@std@@@std@@QBEIXZ PROC ; std::vector<CenterInfoWnd::tagGangsiAlarmData,std::allocator<CenterInfoWnd::tagGangsiAlarmData> >::size, COMDAT
; _this$ = ecx

; 879  : 		return (this->_Mylast - this->_Myfirst);

  00000	8b 41 04	 mov	 eax, DWORD PTR [ecx+4]
  00003	2b 01		 sub	 eax, DWORD PTR [ecx]
  00005	6a 0c		 push	 12			; 0000000cH
  00007	99		 cdq
  00008	59		 pop	 ecx
  00009	f7 f9		 idiv	 ecx

; 880  : 		}

  0000b	c3		 ret	 0
?size@?$vector@UtagGangsiAlarmData@CenterInfoWnd@@V?$allocator@UtagGangsiAlarmData@CenterInfoWnd@@@std@@@std@@QBEIXZ ENDP ; std::vector<CenterInfoWnd::tagGangsiAlarmData,std::allocator<CenterInfoWnd::tagGangsiAlarmData> >::size
_TEXT	ENDS
PUBLIC	??A?$vector@UtagGangsiAlarmData@CenterInfoWnd@@V?$allocator@UtagGangsiAlarmData@CenterInfoWnd@@@std@@@std@@QAEAAUtagGangsiAlarmData@CenterInfoWnd@@I@Z ; std::vector<CenterInfoWnd::tagGangsiAlarmData,std::allocator<CenterInfoWnd::tagGangsiAlarmData> >::operator[]
; Function compile flags: /Ogsp
;	COMDAT ??A?$vector@UtagGangsiAlarmData@CenterInfoWnd@@V?$allocator@UtagGangsiAlarmData@CenterInfoWnd@@@std@@@std@@QAEAAUtagGangsiAlarmData@CenterInfoWnd@@I@Z
_TEXT	SEGMENT
__Pos$ = 8						; size = 4
??A?$vector@UtagGangsiAlarmData@CenterInfoWnd@@V?$allocator@UtagGangsiAlarmData@CenterInfoWnd@@@std@@@std@@QAEAAUtagGangsiAlarmData@CenterInfoWnd@@I@Z PROC ; std::vector<CenterInfoWnd::tagGangsiAlarmData,std::allocator<CenterInfoWnd::tagGangsiAlarmData> >::operator[], COMDAT
; _this$ = ecx

; 928  : 		{	// subscript mutable sequence

  00000	55		 push	 ebp
  00001	8b ec		 mov	 ebp, esp

; 929  :  #if _ITERATOR_DEBUG_LEVEL == 2
; 930  : 		if (size() <= _Pos)
; 931  : 			{	// report error
; 932  : 			_DEBUG_ERROR("vector subscript out of range");
; 933  : 			_SCL_SECURE_OUT_OF_RANGE;
; 934  : 			}
; 935  : 
; 936  :  #elif _ITERATOR_DEBUG_LEVEL == 1
; 937  : 		_SCL_SECURE_VALIDATE_RANGE(_Pos < size());
; 938  :  #endif /* _ITERATOR_DEBUG_LEVEL */
; 939  : 
; 940  : 		return (*(this->_Myfirst + _Pos));

  00003	8b 45 08	 mov	 eax, DWORD PTR __Pos$[ebp]
  00006	6b c0 0c	 imul	 eax, 12			; 0000000cH
  00009	03 01		 add	 eax, DWORD PTR [ecx]

; 941  : 		}

  0000b	5d		 pop	 ebp
  0000c	c2 04 00	 ret	 4
??A?$vector@UtagGangsiAlarmData@CenterInfoWnd@@V?$allocator@UtagGangsiAlarmData@CenterInfoWnd@@@std@@@std@@QAEAAUtagGangsiAlarmData@CenterInfoWnd@@I@Z ENDP ; std::vector<CenterInfoWnd::tagGangsiAlarmData,std::allocator<CenterInfoWnd::tagGangsiAlarmData> >::operator[]
_TEXT	ENDS
PUBLIC	?empty@?$vector@UMonsterDiceData@CenterInfoWnd@@V?$allocator@UMonsterDiceData@CenterInfoWnd@@@std@@@std@@QBE_NXZ ; std::vector<CenterInfoWnd::MonsterDiceData,std::allocator<CenterInfoWnd::MonsterDiceData> >::empty
; Function compile flags: /Ogsp
;	COMDAT ?empty@?$vector@UMonsterDiceData@CenterInfoWnd@@V?$allocator@UMonsterDiceData@CenterInfoWnd@@@std@@@std@@QBE_NXZ
_TEXT	SEGMENT
?empty@?$vector@UMonsterDiceData@CenterInfoWnd@@V?$allocator@UMonsterDiceData@CenterInfoWnd@@@std@@@std@@QBE_NXZ PROC ; std::vector<CenterInfoWnd::MonsterDiceData,std::allocator<CenterInfoWnd::MonsterDiceData> >::empty, COMDAT
; _this$ = ecx

; 889  : 		return (this->_Myfirst == this->_Mylast);

  00000	8b 01		 mov	 eax, DWORD PTR [ecx]
  00002	2b 41 04	 sub	 eax, DWORD PTR [ecx+4]
  00005	f7 d8		 neg	 eax
  00007	1b c0		 sbb	 eax, eax
  00009	40		 inc	 eax

; 890  : 		}

  0000a	c3		 ret	 0
?empty@?$vector@UMonsterDiceData@CenterInfoWnd@@V?$allocator@UMonsterDiceData@CenterInfoWnd@@@std@@@std@@QBE_NXZ ENDP ; std::vector<CenterInfoWnd::MonsterDiceData,std::allocator<CenterInfoWnd::MonsterDiceData> >::empty
_TEXT	ENDS
PUBLIC	?_Inside@?$vector@VioHashString@@V?$allocator@VioHashString@@@std@@@std@@IBE_NPBVioHashString@@@Z ; std::vector<ioHashString,std::allocator<ioHashString> >::_Inside
; Function compile flags: /Ogsp
;	COMDAT ?_Inside@?$vector@VioHashString@@V?$allocator@VioHashString@@@std@@@std@@IBE_NPBVioHashString@@@Z
_TEXT	SEGMENT
__Ptr$ = 8						; size = 4
?_Inside@?$vector@VioHashString@@V?$allocator@VioHashString@@@std@@@std@@IBE_NPBVioHashString@@@Z PROC ; std::vector<ioHashString,std::allocator<ioHashString> >::_Inside, COMDAT
; _this$ = ecx

; 1285 : 		{	// test if _Ptr points inside vector

  00000	55		 push	 ebp
  00001	8b ec		 mov	 ebp, esp

; 1286 : 		return (_Ptr < this->_Mylast && this->_Myfirst <= _Ptr);

  00003	8b 45 08	 mov	 eax, DWORD PTR __Ptr$[ebp]
  00006	3b 41 04	 cmp	 eax, DWORD PTR [ecx+4]
  00009	73 09		 jae	 SHORT $LN3@Inside
  0000b	39 01		 cmp	 DWORD PTR [ecx], eax
  0000d	77 05		 ja	 SHORT $LN3@Inside
  0000f	33 c0		 xor	 eax, eax
  00011	40		 inc	 eax
  00012	eb 02		 jmp	 SHORT $LN4@Inside
$LN3@Inside:
  00014	33 c0		 xor	 eax, eax
$LN4@Inside:

; 1287 : 		}

  00016	5d		 pop	 ebp
  00017	c2 04 00	 ret	 4
?_Inside@?$vector@VioHashString@@V?$allocator@VioHashString@@@std@@@std@@IBE_NPBVioHashString@@@Z ENDP ; std::vector<ioHashString,std::allocator<ioHashString> >::_Inside
_TEXT	ENDS
PUBLIC	?_Orphan_range@?$vector@VioHashString@@V?$allocator@VioHashString@@@std@@@std@@IBEXPAVioHashString@@0@Z ; std::vector<ioHashString,std::allocator<ioHashString> >::_Orphan_range
; Function compile flags: /Ogsp
;	COMDAT ?_Orphan_range@?$vector@VioHashString@@V?$allocator@VioHashString@@@std@@@std@@IBEXPAVioHashString@@0@Z
_TEXT	SEGMENT
___formal$ = 8						; size = 4
___formal$ = 12						; size = 4
?_Orphan_range@?$vector@VioHashString@@V?$allocator@VioHashString@@@std@@@std@@IBEXPAVioHashString@@0@Z PROC ; std::vector<ioHashString,std::allocator<ioHashString> >::_Orphan_range, COMDAT
; _this$ = ecx

; 1454 : 		}

  00000	c2 08 00	 ret	 8
?_Orphan_range@?$vector@VioHashString@@V?$allocator@VioHashString@@@std@@@std@@IBEXPAVioHashString@@0@Z ENDP ; std::vector<ioHashString,std::allocator<ioHashString> >::_Orphan_range
_TEXT	ENDS
PUBLIC	?_Inside@?$vector@UtagDeathTimeData@CenterInfoWnd@@V?$allocator@UtagDeathTimeData@CenterInfoWnd@@@std@@@std@@IBE_NPBUtagDeathTimeData@CenterInfoWnd@@@Z ; std::vector<CenterInfoWnd::tagDeathTimeData,std::allocator<CenterInfoWnd::tagDeathTimeData> >::_Inside
; Function compile flags: /Ogsp
;	COMDAT ?_Inside@?$vector@UtagDeathTimeData@CenterInfoWnd@@V?$allocator@UtagDeathTimeData@CenterInfoWnd@@@std@@@std@@IBE_NPBUtagDeathTimeData@CenterInfoWnd@@@Z
_TEXT	SEGMENT
__Ptr$ = 8						; size = 4
?_Inside@?$vector@UtagDeathTimeData@CenterInfoWnd@@V?$allocator@UtagDeathTimeData@CenterInfoWnd@@@std@@@std@@IBE_NPBUtagDeathTimeData@CenterInfoWnd@@@Z PROC ; std::vector<CenterInfoWnd::tagDeathTimeData,std::allocator<CenterInfoWnd::tagDeathTimeData> >::_Inside, COMDAT
; _this$ = ecx

; 1285 : 		{	// test if _Ptr points inside vector

  00000	55		 push	 ebp
  00001	8b ec		 mov	 ebp, esp

; 1286 : 		return (_Ptr < this->_Mylast && this->_Myfirst <= _Ptr);

  00003	8b 45 08	 mov	 eax, DWORD PTR __Ptr$[ebp]
  00006	3b 41 04	 cmp	 eax, DWORD PTR [ecx+4]
  00009	73 09		 jae	 SHORT $LN3@Inside@2
  0000b	39 01		 cmp	 DWORD PTR [ecx], eax
  0000d	77 05		 ja	 SHORT $LN3@Inside@2
  0000f	33 c0		 xor	 eax, eax
  00011	40		 inc	 eax
  00012	eb 02		 jmp	 SHORT $LN4@Inside@2
$LN3@Inside@2:
  00014	33 c0		 xor	 eax, eax
$LN4@Inside@2:

; 1287 : 		}

  00016	5d		 pop	 ebp
  00017	c2 04 00	 ret	 4
?_Inside@?$vector@UtagDeathTimeData@CenterInfoWnd@@V?$allocator@UtagDeathTimeData@CenterInfoWnd@@@std@@@std@@IBE_NPBUtagDeathTimeData@CenterInfoWnd@@@Z ENDP ; std::vector<CenterInfoWnd::tagDeathTimeData,std::allocator<CenterInfoWnd::tagDeathTimeData> >::_Inside
_TEXT	ENDS
PUBLIC	?_Orphan_range@?$vector@UtagDeathTimeData@CenterInfoWnd@@V?$allocator@UtagDeathTimeData@CenterInfoWnd@@@std@@@std@@IBEXPAUtagDeathTimeData@CenterInfoWnd@@0@Z ; std::vector<CenterInfoWnd::tagDeathTimeData,std::allocator<CenterInfoWnd::tagDeathTimeData> >::_Orphan_range
; Function compile flags: /Ogsp
;	COMDAT ?_Orphan_range@?$vector@UtagDeathTimeData@CenterInfoWnd@@V?$allocator@UtagDeathTimeData@CenterInfoWnd@@@std@@@std@@IBEXPAUtagDeathTimeData@CenterInfoWnd@@0@Z
_TEXT	SEGMENT
___formal$ = 8						; size = 4
___formal$ = 12						; size = 4
?_Orphan_range@?$vector@UtagDeathTimeData@CenterInfoWnd@@V?$allocator@UtagDeathTimeData@CenterInfoWnd@@@std@@@std@@IBEXPAUtagDeathTimeData@CenterInfoWnd@@0@Z PROC ; std::vector<CenterInfoWnd::tagDeathTimeData,std::allocator<CenterInfoWnd::tagDeathTimeData> >::_Orphan_range, COMDAT
; _this$ = ecx

; 1454 : 		}

  00000	c2 08 00	 ret	 8
?_Orphan_range@?$vector@UtagDeathTimeData@CenterInfoWnd@@V?$allocator@UtagDeathTimeData@CenterInfoWnd@@@std@@@std@@IBEXPAUtagDeathTimeData@CenterInfoWnd@@0@Z ENDP ; std::vector<CenterInfoWnd::tagDeathTimeData,std::allocator<CenterInfoWnd::tagDeathTimeData> >::_Orphan_range
_TEXT	ENDS
PUBLIC	??1?$_Vector_val@UtagDeathTimeData@CenterInfoWnd@@V?$allocator@UtagDeathTimeData@CenterInfoWnd@@@std@@@std@@QAE@XZ ; std::_Vector_val<CenterInfoWnd::tagDeathTimeData,std::allocator<CenterInfoWnd::tagDeathTimeData> >::~_Vector_val<CenterInfoWnd::tagDeathTimeData,std::allocator<CenterInfoWnd::tagDeathTimeData> >
; Function compile flags: /Ogsp
;	COMDAT ??1?$_Vector_val@UtagDeathTimeData@CenterInfoWnd@@V?$allocator@UtagDeathTimeData@CenterInfoWnd@@@std@@@std@@QAE@XZ
_TEXT	SEGMENT
??1?$_Vector_val@UtagDeathTimeData@CenterInfoWnd@@V?$allocator@UtagDeathTimeData@CenterInfoWnd@@@std@@@std@@QAE@XZ PROC ; std::_Vector_val<CenterInfoWnd::tagDeathTimeData,std::allocator<CenterInfoWnd::tagDeathTimeData> >::~_Vector_val<CenterInfoWnd::tagDeathTimeData,std::allocator<CenterInfoWnd::tagDeathTimeData> >, COMDAT
; _this$ = ecx

; 434  : 		}

  00000	c3		 ret	 0
??1?$_Vector_val@UtagDeathTimeData@CenterInfoWnd@@V?$allocator@UtagDeathTimeData@CenterInfoWnd@@@std@@@std@@QAE@XZ ENDP ; std::_Vector_val<CenterInfoWnd::tagDeathTimeData,std::allocator<CenterInfoWnd::tagDeathTimeData> >::~_Vector_val<CenterInfoWnd::tagDeathTimeData,std::allocator<CenterInfoWnd::tagDeathTimeData> >
_TEXT	ENDS
PUBLIC	??0?$allocator@UtagDeathTimeData@CenterInfoWnd@@@std@@QAE@XZ ; std::allocator<CenterInfoWnd::tagDeathTimeData>::allocator<CenterInfoWnd::tagDeathTimeData>
; Function compile flags: /Ogsp
; File c:\program files (x86)\microsoft visual studio 10.0\vc\include\xmemory
;	COMDAT ??0?$allocator@UtagDeathTimeData@CenterInfoWnd@@@std@@QAE@XZ
_TEXT	SEGMENT
??0?$allocator@UtagDeathTimeData@CenterInfoWnd@@@std@@QAE@XZ PROC ; std::allocator<CenterInfoWnd::tagDeathTimeData>::allocator<CenterInfoWnd::tagDeathTimeData>, COMDAT
; _this$ = ecx

; 161  : 	_ALLOCATOR() _THROW0()

  00000	8b c1		 mov	 eax, ecx

; 162  : 		{	// construct default allocator (do nothing)
; 163  : 		}

  00002	c3		 ret	 0
??0?$allocator@UtagDeathTimeData@CenterInfoWnd@@@std@@QAE@XZ ENDP ; std::allocator<CenterInfoWnd::tagDeathTimeData>::allocator<CenterInfoWnd::tagDeathTimeData>
_TEXT	ENDS
PUBLIC	?_Inside@?$vector@UtagGangsiAlarmData@CenterInfoWnd@@V?$allocator@UtagGangsiAlarmData@CenterInfoWnd@@@std@@@std@@IBE_NPBUtagGangsiAlarmData@CenterInfoWnd@@@Z ; std::vector<CenterInfoWnd::tagGangsiAlarmData,std::allocator<CenterInfoWnd::tagGangsiAlarmData> >::_Inside
; Function compile flags: /Ogsp
; File c:\program files (x86)\microsoft visual studio 10.0\vc\include\vector
;	COMDAT ?_Inside@?$vector@UtagGangsiAlarmData@CenterInfoWnd@@V?$allocator@UtagGangsiAlarmData@CenterInfoWnd@@@std@@@std@@IBE_NPBUtagGangsiAlarmData@CenterInfoWnd@@@Z
_TEXT	SEGMENT
__Ptr$ = 8						; size = 4
?_Inside@?$vector@UtagGangsiAlarmData@CenterInfoWnd@@V?$allocator@UtagGangsiAlarmData@CenterInfoWnd@@@std@@@std@@IBE_NPBUtagGangsiAlarmData@CenterInfoWnd@@@Z PROC ; std::vector<CenterInfoWnd::tagGangsiAlarmData,std::allocator<CenterInfoWnd::tagGangsiAlarmData> >::_Inside, COMDAT
; _this$ = ecx

; 1285 : 		{	// test if _Ptr points inside vector

  00000	55		 push	 ebp
  00001	8b ec		 mov	 ebp, esp

; 1286 : 		return (_Ptr < this->_Mylast && this->_Myfirst <= _Ptr);

  00003	8b 45 08	 mov	 eax, DWORD PTR __Ptr$[ebp]
  00006	3b 41 04	 cmp	 eax, DWORD PTR [ecx+4]
  00009	73 09		 jae	 SHORT $LN3@Inside@3
  0000b	39 01		 cmp	 DWORD PTR [ecx], eax
  0000d	77 05		 ja	 SHORT $LN3@Inside@3
  0000f	33 c0		 xor	 eax, eax
  00011	40		 inc	 eax
  00012	eb 02		 jmp	 SHORT $LN4@Inside@3
$LN3@Inside@3:
  00014	33 c0		 xor	 eax, eax
$LN4@Inside@3:

; 1287 : 		}

  00016	5d		 pop	 ebp
  00017	c2 04 00	 ret	 4
?_Inside@?$vector@UtagGangsiAlarmData@CenterInfoWnd@@V?$allocator@UtagGangsiAlarmData@CenterInfoWnd@@@std@@@std@@IBE_NPBUtagGangsiAlarmData@CenterInfoWnd@@@Z ENDP ; std::vector<CenterInfoWnd::tagGangsiAlarmData,std::allocator<CenterInfoWnd::tagGangsiAlarmData> >::_Inside
_TEXT	ENDS
PUBLIC	?_Orphan_range@?$vector@UtagGangsiAlarmData@CenterInfoWnd@@V?$allocator@UtagGangsiAlarmData@CenterInfoWnd@@@std@@@std@@IBEXPAUtagGangsiAlarmData@CenterInfoWnd@@0@Z ; std::vector<CenterInfoWnd::tagGangsiAlarmData,std::allocator<CenterInfoWnd::tagGangsiAlarmData> >::_Orphan_range
; Function compile flags: /Ogsp
;	COMDAT ?_Orphan_range@?$vector@UtagGangsiAlarmData@CenterInfoWnd@@V?$allocator@UtagGangsiAlarmData@CenterInfoWnd@@@std@@@std@@IBEXPAUtagGangsiAlarmData@CenterInfoWnd@@0@Z
_TEXT	SEGMENT
___formal$ = 8						; size = 4
___formal$ = 12						; size = 4
?_Orphan_range@?$vector@UtagGangsiAlarmData@CenterInfoWnd@@V?$allocator@UtagGangsiAlarmData@CenterInfoWnd@@@std@@@std@@IBEXPAUtagGangsiAlarmData@CenterInfoWnd@@0@Z PROC ; std::vector<CenterInfoWnd::tagGangsiAlarmData,std::allocator<CenterInfoWnd::tagGangsiAlarmData> >::_Orphan_range, COMDAT
; _this$ = ecx

; 1454 : 		}

  00000	c2 08 00	 ret	 8
?_Orphan_range@?$vector@UtagGangsiAlarmData@CenterInfoWnd@@V?$allocator@UtagGangsiAlarmData@CenterInfoWnd@@@std@@@std@@IBEXPAUtagGangsiAlarmData@CenterInfoWnd@@0@Z ENDP ; std::vector<CenterInfoWnd::tagGangsiAlarmData,std::allocator<CenterInfoWnd::tagGangsiAlarmData> >::_Orphan_range
_TEXT	ENDS
PUBLIC	??1?$_Vector_val@UtagGangsiAlarmData@CenterInfoWnd@@V?$allocator@UtagGangsiAlarmData@CenterInfoWnd@@@std@@@std@@QAE@XZ ; std::_Vector_val<CenterInfoWnd::tagGangsiAlarmData,std::allocator<CenterInfoWnd::tagGangsiAlarmData> >::~_Vector_val<CenterInfoWnd::tagGangsiAlarmData,std::allocator<CenterInfoWnd::tagGangsiAlarmData> >
; Function compile flags: /Ogsp
;	COMDAT ??1?$_Vector_val@UtagGangsiAlarmData@CenterInfoWnd@@V?$allocator@UtagGangsiAlarmData@CenterInfoWnd@@@std@@@std@@QAE@XZ
_TEXT	SEGMENT
??1?$_Vector_val@UtagGangsiAlarmData@CenterInfoWnd@@V?$allocator@UtagGangsiAlarmData@CenterInfoWnd@@@std@@@std@@QAE@XZ PROC ; std::_Vector_val<CenterInfoWnd::tagGangsiAlarmData,std::allocator<CenterInfoWnd::tagGangsiAlarmData> >::~_Vector_val<CenterInfoWnd::tagGangsiAlarmData,std::allocator<CenterInfoWnd::tagGangsiAlarmData> >, COMDAT
; _this$ = ecx

; 434  : 		}

  00000	c3		 ret	 0
??1?$_Vector_val@UtagGangsiAlarmData@CenterInfoWnd@@V?$allocator@UtagGangsiAlarmData@CenterInfoWnd@@@std@@@std@@QAE@XZ ENDP ; std::_Vector_val<CenterInfoWnd::tagGangsiAlarmData,std::allocator<CenterInfoWnd::tagGangsiAlarmData> >::~_Vector_val<CenterInfoWnd::tagGangsiAlarmData,std::allocator<CenterInfoWnd::tagGangsiAlarmData> >
_TEXT	ENDS
PUBLIC	??0?$allocator@UtagGangsiAlarmData@CenterInfoWnd@@@std@@QAE@XZ ; std::allocator<CenterInfoWnd::tagGangsiAlarmData>::allocator<CenterInfoWnd::tagGangsiAlarmData>
; Function compile flags: /Ogsp
; File c:\program files (x86)\microsoft visual studio 10.0\vc\include\xmemory
;	COMDAT ??0?$allocator@UtagGangsiAlarmData@CenterInfoWnd@@@std@@QAE@XZ
_TEXT	SEGMENT
??0?$allocator@UtagGangsiAlarmData@CenterInfoWnd@@@std@@QAE@XZ PROC ; std::allocator<CenterInfoWnd::tagGangsiAlarmData>::allocator<CenterInfoWnd::tagGangsiAlarmData>, COMDAT
; _this$ = ecx

; 161  : 	_ALLOCATOR() _THROW0()

  00000	8b c1		 mov	 eax, ecx

; 162  : 		{	// construct default allocator (do nothing)
; 163  : 		}

  00002	c3		 ret	 0
??0?$allocator@UtagGangsiAlarmData@CenterInfoWnd@@@std@@QAE@XZ ENDP ; std::allocator<CenterInfoWnd::tagGangsiAlarmData>::allocator<CenterInfoWnd::tagGangsiAlarmData>
_TEXT	ENDS
PUBLIC	?_Inside@?$vector@UMonsterDiceData@CenterInfoWnd@@V?$allocator@UMonsterDiceData@CenterInfoWnd@@@std@@@std@@IBE_NPBUMonsterDiceData@CenterInfoWnd@@@Z ; std::vector<CenterInfoWnd::MonsterDiceData,std::allocator<CenterInfoWnd::MonsterDiceData> >::_Inside
; Function compile flags: /Ogsp
; File c:\program files (x86)\microsoft visual studio 10.0\vc\include\vector
;	COMDAT ?_Inside@?$vector@UMonsterDiceData@CenterInfoWnd@@V?$allocator@UMonsterDiceData@CenterInfoWnd@@@std@@@std@@IBE_NPBUMonsterDiceData@CenterInfoWnd@@@Z
_TEXT	SEGMENT
__Ptr$ = 8						; size = 4
?_Inside@?$vector@UMonsterDiceData@CenterInfoWnd@@V?$allocator@UMonsterDiceData@CenterInfoWnd@@@std@@@std@@IBE_NPBUMonsterDiceData@CenterInfoWnd@@@Z PROC ; std::vector<CenterInfoWnd::MonsterDiceData,std::allocator<CenterInfoWnd::MonsterDiceData> >::_Inside, COMDAT
; _this$ = ecx

; 1285 : 		{	// test if _Ptr points inside vector

  00000	55		 push	 ebp
  00001	8b ec		 mov	 ebp, esp

; 1286 : 		return (_Ptr < this->_Mylast && this->_Myfirst <= _Ptr);

  00003	8b 45 08	 mov	 eax, DWORD PTR __Ptr$[ebp]
  00006	3b 41 04	 cmp	 eax, DWORD PTR [ecx+4]
  00009	73 09		 jae	 SHORT $LN3@Inside@4
  0000b	39 01		 cmp	 DWORD PTR [ecx], eax
  0000d	77 05		 ja	 SHORT $LN3@Inside@4
  0000f	33 c0		 xor	 eax, eax
  00011	40		 inc	 eax
  00012	eb 02		 jmp	 SHORT $LN4@Inside@4
$LN3@Inside@4:
  00014	33 c0		 xor	 eax, eax
$LN4@Inside@4:

; 1287 : 		}

  00016	5d		 pop	 ebp
  00017	c2 04 00	 ret	 4
?_Inside@?$vector@UMonsterDiceData@CenterInfoWnd@@V?$allocator@UMonsterDiceData@CenterInfoWnd@@@std@@@std@@IBE_NPBUMonsterDiceData@CenterInfoWnd@@@Z ENDP ; std::vector<CenterInfoWnd::MonsterDiceData,std::allocator<CenterInfoWnd::MonsterDiceData> >::_Inside
_TEXT	ENDS
PUBLIC	?_Orphan_range@?$vector@UMonsterDiceData@CenterInfoWnd@@V?$allocator@UMonsterDiceData@CenterInfoWnd@@@std@@@std@@IBEXPAUMonsterDiceData@CenterInfoWnd@@0@Z ; std::vector<CenterInfoWnd::MonsterDiceData,std::allocator<CenterInfoWnd::MonsterDiceData> >::_Orphan_range
; Function compile flags: /Ogsp
;	COMDAT ?_Orphan_range@?$vector@UMonsterDiceData@CenterInfoWnd@@V?$allocator@UMonsterDiceData@CenterInfoWnd@@@std@@@std@@IBEXPAUMonsterDiceData@CenterInfoWnd@@0@Z
_TEXT	SEGMENT
___formal$ = 8						; size = 4
___formal$ = 12						; size = 4
?_Orphan_range@?$vector@UMonsterDiceData@CenterInfoWnd@@V?$allocator@UMonsterDiceData@CenterInfoWnd@@@std@@@std@@IBEXPAUMonsterDiceData@CenterInfoWnd@@0@Z PROC ; std::vector<CenterInfoWnd::MonsterDiceData,std::allocator<CenterInfoWnd::MonsterDiceData> >::_Orphan_range, COMDAT
; _this$ = ecx

; 1454 : 		}

  00000	c2 08 00	 ret	 8
?_Orphan_range@?$vector@UMonsterDiceData@CenterInfoWnd@@V?$allocator@UMonsterDiceData@CenterInfoWnd@@@std@@@std@@IBEXPAUMonsterDiceData@CenterInfoWnd@@0@Z ENDP ; std::vector<CenterInfoWnd::MonsterDiceData,std::allocator<CenterInfoWnd::MonsterDiceData> >::_Orphan_range
_TEXT	ENDS
PUBLIC	??1?$_Vector_val@UMonsterDiceData@CenterInfoWnd@@V?$allocator@UMonsterDiceData@CenterInfoWnd@@@std@@@std@@QAE@XZ ; std::_Vector_val<CenterInfoWnd::MonsterDiceData,std::allocator<CenterInfoWnd::MonsterDiceData> >::~_Vector_val<CenterInfoWnd::MonsterDiceData,std::allocator<CenterInfoWnd::MonsterDiceData> >
; Function compile flags: /Ogsp
;	COMDAT ??1?$_Vector_val@UMonsterDiceData@CenterInfoWnd@@V?$allocator@UMonsterDiceData@CenterInfoWnd@@@std@@@std@@QAE@XZ
_TEXT	SEGMENT
??1?$_Vector_val@UMonsterDiceData@CenterInfoWnd@@V?$allocator@UMonsterDiceData@CenterInfoWnd@@@std@@@std@@QAE@XZ PROC ; std::_Vector_val<CenterInfoWnd::MonsterDiceData,std::allocator<CenterInfoWnd::MonsterDiceData> >::~_Vector_val<CenterInfoWnd::MonsterDiceData,std::allocator<CenterInfoWnd::MonsterDiceData> >, COMDAT
; _this$ = ecx

; 434  : 		}

  00000	c3		 ret	 0
??1?$_Vector_val@UMonsterDiceData@CenterInfoWnd@@V?$allocator@UMonsterDiceData@CenterInfoWnd@@@std@@@std@@QAE@XZ ENDP ; std::_Vector_val<CenterInfoWnd::MonsterDiceData,std::allocator<CenterInfoWnd::MonsterDiceData> >::~_Vector_val<CenterInfoWnd::MonsterDiceData,std::allocator<CenterInfoWnd::MonsterDiceData> >
_TEXT	ENDS
PUBLIC	??0?$allocator@UMonsterDiceData@CenterInfoWnd@@@std@@QAE@XZ ; std::allocator<CenterInfoWnd::MonsterDiceData>::allocator<CenterInfoWnd::MonsterDiceData>
; Function compile flags: /Ogsp
; File c:\program files (x86)\microsoft visual studio 10.0\vc\include\xmemory
;	COMDAT ??0?$allocator@UMonsterDiceData@CenterInfoWnd@@@std@@QAE@XZ
_TEXT	SEGMENT
??0?$allocator@UMonsterDiceData@CenterInfoWnd@@@std@@QAE@XZ PROC ; std::allocator<CenterInfoWnd::MonsterDiceData>::allocator<CenterInfoWnd::MonsterDiceData>, COMDAT
; _this$ = ecx

; 161  : 	_ALLOCATOR() _THROW0()

  00000	8b c1		 mov	 eax, ecx

; 162  : 		{	// construct default allocator (do nothing)
; 163  : 		}

  00002	c3		 ret	 0
??0?$allocator@UMonsterDiceData@CenterInfoWnd@@@std@@QAE@XZ ENDP ; std::allocator<CenterInfoWnd::MonsterDiceData>::allocator<CenterInfoWnd::MonsterDiceData>
_TEXT	ENDS
PUBLIC	??D?$_Vector_const_iterator@V?$_Vector_val@UMonsterDiceData@CenterInfoWnd@@V?$allocator@UMonsterDiceData@CenterInfoWnd@@@std@@@std@@@std@@QBEABUMonsterDiceData@CenterInfoWnd@@XZ ; std::_Vector_const_iterator<std::_Vector_val<CenterInfoWnd::MonsterDiceData,std::allocator<CenterInfoWnd::MonsterDiceData> > >::operator*
; Function compile flags: /Ogsp
; File c:\program files (x86)\microsoft visual studio 10.0\vc\include\vector
;	COMDAT ??D?$_Vector_const_iterator@V?$_Vector_val@UMonsterDiceData@CenterInfoWnd@@V?$allocator@UMonsterDiceData@CenterInfoWnd@@@std@@@std@@@std@@QBEABUMonsterDiceData@CenterInfoWnd@@XZ
_TEXT	SEGMENT
??D?$_Vector_const_iterator@V?$_Vector_val@UMonsterDiceData@CenterInfoWnd@@V?$allocator@UMonsterDiceData@CenterInfoWnd@@@std@@@std@@@std@@QBEABUMonsterDiceData@CenterInfoWnd@@XZ PROC ; std::_Vector_const_iterator<std::_Vector_val<CenterInfoWnd::MonsterDiceData,std::allocator<CenterInfoWnd::MonsterDiceData> > >::operator*, COMDAT
; _this$ = ecx

; 64   :  #if _ITERATOR_DEBUG_LEVEL == 2
; 65   : 		if (this->_Getcont() == 0
; 66   : 			|| this->_Ptr == 0
; 67   : 			|| this->_Ptr < ((_Myvec *)this->_Getcont())->_Myfirst
; 68   : 			|| ((_Myvec *)this->_Getcont())->_Mylast <= this->_Ptr)
; 69   : 			{	// report error
; 70   : 			_DEBUG_ERROR("vector iterator not dereferencable");
; 71   : 			_SCL_SECURE_OUT_OF_RANGE;
; 72   : 			}
; 73   : 
; 74   :  #elif _ITERATOR_DEBUG_LEVEL == 1
; 75   : 		_SCL_SECURE_VALIDATE(this->_Getcont() != 0);
; 76   : 		_SCL_SECURE_VALIDATE_RANGE(
; 77   : 			this->_Ptr != 0
; 78   : 			&& ((_Myvec *)this->_Getcont())->_Myfirst <= this->_Ptr
; 79   : 			&& this->_Ptr < ((_Myvec *)this->_Getcont())->_Mylast);
; 80   :  #endif /* _ITERATOR_DEBUG_LEVEL */
; 81   : 
; 82   : 		__analysis_assume(this->_Ptr != 0);
; 83   : 
; 84   : 		return (*this->_Ptr);

  00000	8b 01		 mov	 eax, DWORD PTR [ecx]

; 85   : 		}

  00002	c3		 ret	 0
??D?$_Vector_const_iterator@V?$_Vector_val@UMonsterDiceData@CenterInfoWnd@@V?$allocator@UMonsterDiceData@CenterInfoWnd@@@std@@@std@@@std@@QBEABUMonsterDiceData@CenterInfoWnd@@XZ ENDP ; std::_Vector_const_iterator<std::_Vector_val<CenterInfoWnd::MonsterDiceData,std::allocator<CenterInfoWnd::MonsterDiceData> > >::operator*
_TEXT	ENDS
PUBLIC	?capacity@?$vector@VioHashString@@V?$allocator@VioHashString@@@std@@@std@@QBEIXZ ; std::vector<ioHashString,std::allocator<ioHashString> >::capacity
; Function compile flags: /Ogsp
;	COMDAT ?capacity@?$vector@VioHashString@@V?$allocator@VioHashString@@@std@@@std@@QBEIXZ
_TEXT	SEGMENT
?capacity@?$vector@VioHashString@@V?$allocator@VioHashString@@@std@@@std@@QBEIXZ PROC ; std::vector<ioHashString,std::allocator<ioHashString> >::capacity, COMDAT
; _this$ = ecx

; 777  : 		return (this->_Myend - this->_Myfirst);

  00000	8b 41 08	 mov	 eax, DWORD PTR [ecx+8]
  00003	2b 01		 sub	 eax, DWORD PTR [ecx]
  00005	c1 f8 04	 sar	 eax, 4

; 778  : 		}

  00008	c3		 ret	 0
?capacity@?$vector@VioHashString@@V?$allocator@VioHashString@@@std@@@std@@QBEIXZ ENDP ; std::vector<ioHashString,std::allocator<ioHashString> >::capacity
_TEXT	ENDS
PUBLIC	?capacity@?$vector@UtagDeathTimeData@CenterInfoWnd@@V?$allocator@UtagDeathTimeData@CenterInfoWnd@@@std@@@std@@QBEIXZ ; std::vector<CenterInfoWnd::tagDeathTimeData,std::allocator<CenterInfoWnd::tagDeathTimeData> >::capacity
; Function compile flags: /Ogsp
;	COMDAT ?capacity@?$vector@UtagDeathTimeData@CenterInfoWnd@@V?$allocator@UtagDeathTimeData@CenterInfoWnd@@@std@@@std@@QBEIXZ
_TEXT	SEGMENT
?capacity@?$vector@UtagDeathTimeData@CenterInfoWnd@@V?$allocator@UtagDeathTimeData@CenterInfoWnd@@@std@@@std@@QBEIXZ PROC ; std::vector<CenterInfoWnd::tagDeathTimeData,std::allocator<CenterInfoWnd::tagDeathTimeData> >::capacity, COMDAT
; _this$ = ecx

; 777  : 		return (this->_Myend - this->_Myfirst);

  00000	8b 41 08	 mov	 eax, DWORD PTR [ecx+8]
  00003	2b 01		 sub	 eax, DWORD PTR [ecx]
  00005	6a 0c		 push	 12			; 0000000cH
  00007	99		 cdq
  00008	59		 pop	 ecx
  00009	f7 f9		 idiv	 ecx

; 778  : 		}

  0000b	c3		 ret	 0
?capacity@?$vector@UtagDeathTimeData@CenterInfoWnd@@V?$allocator@UtagDeathTimeData@CenterInfoWnd@@@std@@@std@@QBEIXZ ENDP ; std::vector<CenterInfoWnd::tagDeathTimeData,std::allocator<CenterInfoWnd::tagDeathTimeData> >::capacity
_TEXT	ENDS
PUBLIC	??_C@_0BD@OLBABOEK@vector?$DMT?$DO?5too?5long?$AA@ ; `string'
PUBLIC	?_Xlen@?$vector@UtagDeathTimeData@CenterInfoWnd@@V?$allocator@UtagDeathTimeData@CenterInfoWnd@@@std@@@std@@IBEXXZ ; std::vector<CenterInfoWnd::tagDeathTimeData,std::allocator<CenterInfoWnd::tagDeathTimeData> >::_Xlen
EXTRN	__imp_?_Xlength_error@std@@YAXPBD@Z:PROC
;	COMDAT ??_C@_0BD@OLBABOEK@vector?$DMT?$DO?5too?5long?$AA@
CONST	SEGMENT
??_C@_0BD@OLBABOEK@vector?$DMT?$DO?5too?5long?$AA@ DB 'vector<T> too long'
	DB	00H						; `string'
; Function compile flags: /Ogsp
CONST	ENDS
;	COMDAT ?_Xlen@?$vector@UtagDeathTimeData@CenterInfoWnd@@V?$allocator@UtagDeathTimeData@CenterInfoWnd@@@std@@@std@@IBEXXZ
_TEXT	SEGMENT
?_Xlen@?$vector@UtagDeathTimeData@CenterInfoWnd@@V?$allocator@UtagDeathTimeData@CenterInfoWnd@@@std@@@std@@IBEXXZ PROC ; std::vector<CenterInfoWnd::tagDeathTimeData,std::allocator<CenterInfoWnd::tagDeathTimeData> >::_Xlen, COMDAT
; _this$ = ecx

; 1427 : 		_Xlength_error("vector<T> too long");

  00000	68 00 00 00 00	 push	 OFFSET ??_C@_0BD@OLBABOEK@vector?$DMT?$DO?5too?5long?$AA@
  00005	ff 15 00 00 00
	00		 call	 DWORD PTR __imp_?_Xlength_error@std@@YAXPBD@Z
$LN4@Xlen:
$LN3@Xlen:
  0000b	cc		 int	 3
?_Xlen@?$vector@UtagDeathTimeData@CenterInfoWnd@@V?$allocator@UtagDeathTimeData@CenterInfoWnd@@@std@@@std@@IBEXXZ ENDP ; std::vector<CenterInfoWnd::tagDeathTimeData,std::allocator<CenterInfoWnd::tagDeathTimeData> >::_Xlen
_TEXT	ENDS
PUBLIC	??0?$allocator@UtagDeathTimeData@CenterInfoWnd@@@std@@QAE@ABV01@@Z ; std::allocator<CenterInfoWnd::tagDeathTimeData>::allocator<CenterInfoWnd::tagDeathTimeData>
; Function compile flags: /Ogsp
; File c:\program files (x86)\microsoft visual studio 10.0\vc\include\xmemory
;	COMDAT ??0?$allocator@UtagDeathTimeData@CenterInfoWnd@@@std@@QAE@ABV01@@Z
_TEXT	SEGMENT
___formal$ = 8						; size = 4
??0?$allocator@UtagDeathTimeData@CenterInfoWnd@@@std@@QAE@ABV01@@Z PROC ; std::allocator<CenterInfoWnd::tagDeathTimeData>::allocator<CenterInfoWnd::tagDeathTimeData>, COMDAT
; _this$ = ecx

; 165  : 	_ALLOCATOR(const _ALLOCATOR<_Ty>&) _THROW0()

  00000	8b c1		 mov	 eax, ecx

; 166  : 		{	// construct by copying (do nothing)
; 167  : 		}

  00002	c2 04 00	 ret	 4
??0?$allocator@UtagDeathTimeData@CenterInfoWnd@@@std@@QAE@ABV01@@Z ENDP ; std::allocator<CenterInfoWnd::tagDeathTimeData>::allocator<CenterInfoWnd::tagDeathTimeData>
_TEXT	ENDS
PUBLIC	?deallocate@?$allocator@UtagDeathTimeData@CenterInfoWnd@@@std@@QAEXPAUtagDeathTimeData@CenterInfoWnd@@I@Z ; std::allocator<CenterInfoWnd::tagDeathTimeData>::deallocate
; Function compile flags: /Ogsp
;	COMDAT ?deallocate@?$allocator@UtagDeathTimeData@CenterInfoWnd@@@std@@QAEXPAUtagDeathTimeData@CenterInfoWnd@@I@Z
_TEXT	SEGMENT
__Ptr$ = 8						; size = 4
___formal$ = 12						; size = 4
?deallocate@?$allocator@UtagDeathTimeData@CenterInfoWnd@@@std@@QAEXPAUtagDeathTimeData@CenterInfoWnd@@I@Z PROC ; std::allocator<CenterInfoWnd::tagDeathTimeData>::deallocate, COMDAT
; _this$ = ecx

; 181  : 		{	// deallocate object at _Ptr, ignore size

  00000	55		 push	 ebp
  00001	8b ec		 mov	 ebp, esp

; 182  : 		::operator delete(_Ptr);

  00003	ff 75 08	 push	 DWORD PTR __Ptr$[ebp]
  00006	e8 00 00 00 00	 call	 ??3@YAXPAX@Z		; operator delete
  0000b	59		 pop	 ecx

; 183  : 		}

  0000c	5d		 pop	 ebp
  0000d	c2 08 00	 ret	 8
?deallocate@?$allocator@UtagDeathTimeData@CenterInfoWnd@@@std@@QAEXPAUtagDeathTimeData@CenterInfoWnd@@I@Z ENDP ; std::allocator<CenterInfoWnd::tagDeathTimeData>::deallocate
_TEXT	ENDS
PUBLIC	?capacity@?$vector@UtagGangsiAlarmData@CenterInfoWnd@@V?$allocator@UtagGangsiAlarmData@CenterInfoWnd@@@std@@@std@@QBEIXZ ; std::vector<CenterInfoWnd::tagGangsiAlarmData,std::allocator<CenterInfoWnd::tagGangsiAlarmData> >::capacity
; Function compile flags: /Ogsp
; File c:\program files (x86)\microsoft visual studio 10.0\vc\include\vector
;	COMDAT ?capacity@?$vector@UtagGangsiAlarmData@CenterInfoWnd@@V?$allocator@UtagGangsiAlarmData@CenterInfoWnd@@@std@@@std@@QBEIXZ
_TEXT	SEGMENT
?capacity@?$vector@UtagGangsiAlarmData@CenterInfoWnd@@V?$allocator@UtagGangsiAlarmData@CenterInfoWnd@@@std@@@std@@QBEIXZ PROC ; std::vector<CenterInfoWnd::tagGangsiAlarmData,std::allocator<CenterInfoWnd::tagGangsiAlarmData> >::capacity, COMDAT
; _this$ = ecx

; 777  : 		return (this->_Myend - this->_Myfirst);

  00000	8b 41 08	 mov	 eax, DWORD PTR [ecx+8]
  00003	2b 01		 sub	 eax, DWORD PTR [ecx]
  00005	6a 0c		 push	 12			; 0000000cH
  00007	99		 cdq
  00008	59		 pop	 ecx
  00009	f7 f9		 idiv	 ecx

; 778  : 		}

  0000b	c3		 ret	 0
?capacity@?$vector@UtagGangsiAlarmData@CenterInfoWnd@@V?$allocator@UtagGangsiAlarmData@CenterInfoWnd@@@std@@@std@@QBEIXZ ENDP ; std::vector<CenterInfoWnd::tagGangsiAlarmData,std::allocator<CenterInfoWnd::tagGangsiAlarmData> >::capacity
_TEXT	ENDS
PUBLIC	?_Xlen@?$vector@UtagGangsiAlarmData@CenterInfoWnd@@V?$allocator@UtagGangsiAlarmData@CenterInfoWnd@@@std@@@std@@IBEXXZ ; std::vector<CenterInfoWnd::tagGangsiAlarmData,std::allocator<CenterInfoWnd::tagGangsiAlarmData> >::_Xlen
; Function compile flags: /Ogsp
;	COMDAT ?_Xlen@?$vector@UtagGangsiAlarmData@CenterInfoWnd@@V?$allocator@UtagGangsiAlarmData@CenterInfoWnd@@@std@@@std@@IBEXXZ
_TEXT	SEGMENT
?_Xlen@?$vector@UtagGangsiAlarmData@CenterInfoWnd@@V?$allocator@UtagGangsiAlarmData@CenterInfoWnd@@@std@@@std@@IBEXXZ PROC ; std::vector<CenterInfoWnd::tagGangsiAlarmData,std::allocator<CenterInfoWnd::tagGangsiAlarmData> >::_Xlen, COMDAT
; _this$ = ecx

; 1427 : 		_Xlength_error("vector<T> too long");

  00000	68 00 00 00 00	 push	 OFFSET ??_C@_0BD@OLBABOEK@vector?$DMT?$DO?5too?5long?$AA@
  00005	ff 15 00 00 00
	00		 call	 DWORD PTR __imp_?_Xlength_error@std@@YAXPBD@Z
$LN4@Xlen@2:
$LN3@Xlen@2:
  0000b	cc		 int	 3
?_Xlen@?$vector@UtagGangsiAlarmData@CenterInfoWnd@@V?$allocator@UtagGangsiAlarmData@CenterInfoWnd@@@std@@@std@@IBEXXZ ENDP ; std::vector<CenterInfoWnd::tagGangsiAlarmData,std::allocator<CenterInfoWnd::tagGangsiAlarmData> >::_Xlen
_TEXT	ENDS
PUBLIC	??0?$allocator@UtagGangsiAlarmData@CenterInfoWnd@@@std@@QAE@ABV01@@Z ; std::allocator<CenterInfoWnd::tagGangsiAlarmData>::allocator<CenterInfoWnd::tagGangsiAlarmData>
; Function compile flags: /Ogsp
; File c:\program files (x86)\microsoft visual studio 10.0\vc\include\xmemory
;	COMDAT ??0?$allocator@UtagGangsiAlarmData@CenterInfoWnd@@@std@@QAE@ABV01@@Z
_TEXT	SEGMENT
___formal$ = 8						; size = 4
??0?$allocator@UtagGangsiAlarmData@CenterInfoWnd@@@std@@QAE@ABV01@@Z PROC ; std::allocator<CenterInfoWnd::tagGangsiAlarmData>::allocator<CenterInfoWnd::tagGangsiAlarmData>, COMDAT
; _this$ = ecx

; 165  : 	_ALLOCATOR(const _ALLOCATOR<_Ty>&) _THROW0()

  00000	8b c1		 mov	 eax, ecx

; 166  : 		{	// construct by copying (do nothing)
; 167  : 		}

  00002	c2 04 00	 ret	 4
??0?$allocator@UtagGangsiAlarmData@CenterInfoWnd@@@std@@QAE@ABV01@@Z ENDP ; std::allocator<CenterInfoWnd::tagGangsiAlarmData>::allocator<CenterInfoWnd::tagGangsiAlarmData>
_TEXT	ENDS
PUBLIC	?deallocate@?$allocator@UtagGangsiAlarmData@CenterInfoWnd@@@std@@QAEXPAUtagGangsiAlarmData@CenterInfoWnd@@I@Z ; std::allocator<CenterInfoWnd::tagGangsiAlarmData>::deallocate
; Function compile flags: /Ogsp
;	COMDAT ?deallocate@?$allocator@UtagGangsiAlarmData@CenterInfoWnd@@@std@@QAEXPAUtagGangsiAlarmData@CenterInfoWnd@@I@Z
_TEXT	SEGMENT
__Ptr$ = 8						; size = 4
___formal$ = 12						; size = 4
?deallocate@?$allocator@UtagGangsiAlarmData@CenterInfoWnd@@@std@@QAEXPAUtagGangsiAlarmData@CenterInfoWnd@@I@Z PROC ; std::allocator<CenterInfoWnd::tagGangsiAlarmData>::deallocate, COMDAT
; _this$ = ecx

; 181  : 		{	// deallocate object at _Ptr, ignore size

  00000	55		 push	 ebp
  00001	8b ec		 mov	 ebp, esp

; 182  : 		::operator delete(_Ptr);

  00003	ff 75 08	 push	 DWORD PTR __Ptr$[ebp]
  00006	e8 00 00 00 00	 call	 ??3@YAXPAX@Z		; operator delete
  0000b	59		 pop	 ecx

; 183  : 		}

  0000c	5d		 pop	 ebp
  0000d	c2 08 00	 ret	 8
?deallocate@?$allocator@UtagGangsiAlarmData@CenterInfoWnd@@@std@@QAEXPAUtagGangsiAlarmData@CenterInfoWnd@@I@Z ENDP ; std::allocator<CenterInfoWnd::tagGangsiAlarmData>::deallocate
_TEXT	ENDS
PUBLIC	?capacity@?$vector@UMonsterDiceData@CenterInfoWnd@@V?$allocator@UMonsterDiceData@CenterInfoWnd@@@std@@@std@@QBEIXZ ; std::vector<CenterInfoWnd::MonsterDiceData,std::allocator<CenterInfoWnd::MonsterDiceData> >::capacity
; Function compile flags: /Ogsp
; File c:\program files (x86)\microsoft visual studio 10.0\vc\include\vector
;	COMDAT ?capacity@?$vector@UMonsterDiceData@CenterInfoWnd@@V?$allocator@UMonsterDiceData@CenterInfoWnd@@@std@@@std@@QBEIXZ
_TEXT	SEGMENT
?capacity@?$vector@UMonsterDiceData@CenterInfoWnd@@V?$allocator@UMonsterDiceData@CenterInfoWnd@@@std@@@std@@QBEIXZ PROC ; std::vector<CenterInfoWnd::MonsterDiceData,std::allocator<CenterInfoWnd::MonsterDiceData> >::capacity, COMDAT
; _this$ = ecx

; 777  : 		return (this->_Myend - this->_Myfirst);

  00000	8b 41 08	 mov	 eax, DWORD PTR [ecx+8]
  00003	2b 01		 sub	 eax, DWORD PTR [ecx]
  00005	6a 2c		 push	 44			; 0000002cH
  00007	99		 cdq
  00008	59		 pop	 ecx
  00009	f7 f9		 idiv	 ecx

; 778  : 		}

  0000b	c3		 ret	 0
?capacity@?$vector@UMonsterDiceData@CenterInfoWnd@@V?$allocator@UMonsterDiceData@CenterInfoWnd@@@std@@@std@@QBEIXZ ENDP ; std::vector<CenterInfoWnd::MonsterDiceData,std::allocator<CenterInfoWnd::MonsterDiceData> >::capacity
_TEXT	ENDS
PUBLIC	?size@?$vector@UMonsterDiceData@CenterInfoWnd@@V?$allocator@UMonsterDiceData@CenterInfoWnd@@@std@@@std@@QBEIXZ ; std::vector<CenterInfoWnd::MonsterDiceData,std::allocator<CenterInfoWnd::MonsterDiceData> >::size
; Function compile flags: /Ogsp
;	COMDAT ?size@?$vector@UMonsterDiceData@CenterInfoWnd@@V?$allocator@UMonsterDiceData@CenterInfoWnd@@@std@@@std@@QBEIXZ
_TEXT	SEGMENT
?size@?$vector@UMonsterDiceData@CenterInfoWnd@@V?$allocator@UMonsterDiceData@CenterInfoWnd@@@std@@@std@@QBEIXZ PROC ; std::vector<CenterInfoWnd::MonsterDiceData,std::allocator<CenterInfoWnd::MonsterDiceData> >::size, COMDAT
; _this$ = ecx

; 879  : 		return (this->_Mylast - this->_Myfirst);

  00000	8b 41 04	 mov	 eax, DWORD PTR [ecx+4]
  00003	2b 01		 sub	 eax, DWORD PTR [ecx]
  00005	6a 2c		 push	 44			; 0000002cH
  00007	99		 cdq
  00008	59		 pop	 ecx
  00009	f7 f9		 idiv	 ecx

; 880  : 		}

  0000b	c3		 ret	 0
?size@?$vector@UMonsterDiceData@CenterInfoWnd@@V?$allocator@UMonsterDiceData@CenterInfoWnd@@@std@@@std@@QBEIXZ ENDP ; std::vector<CenterInfoWnd::MonsterDiceData,std::allocator<CenterInfoWnd::MonsterDiceData> >::size
_TEXT	ENDS
PUBLIC	?_Xlen@?$vector@UMonsterDiceData@CenterInfoWnd@@V?$allocator@UMonsterDiceData@CenterInfoWnd@@@std@@@std@@IBEXXZ ; std::vector<CenterInfoWnd::MonsterDiceData,std::allocator<CenterInfoWnd::MonsterDiceData> >::_Xlen
; Function compile flags: /Ogsp
;	COMDAT ?_Xlen@?$vector@UMonsterDiceData@CenterInfoWnd@@V?$allocator@UMonsterDiceData@CenterInfoWnd@@@std@@@std@@IBEXXZ
_TEXT	SEGMENT
?_Xlen@?$vector@UMonsterDiceData@CenterInfoWnd@@V?$allocator@UMonsterDiceData@CenterInfoWnd@@@std@@@std@@IBEXXZ PROC ; std::vector<CenterInfoWnd::MonsterDiceData,std::allocator<CenterInfoWnd::MonsterDiceData> >::_Xlen, COMDAT
; _this$ = ecx

; 1427 : 		_Xlength_error("vector<T> too long");

  00000	68 00 00 00 00	 push	 OFFSET ??_C@_0BD@OLBABOEK@vector?$DMT?$DO?5too?5long?$AA@
  00005	ff 15 00 00 00
	00		 call	 DWORD PTR __imp_?_Xlength_error@std@@YAXPBD@Z
$LN4@Xlen@3:
$LN3@Xlen@3:
  0000b	cc		 int	 3
?_Xlen@?$vector@UMonsterDiceData@CenterInfoWnd@@V?$allocator@UMonsterDiceData@CenterInfoWnd@@@std@@@std@@IBEXXZ ENDP ; std::vector<CenterInfoWnd::MonsterDiceData,std::allocator<CenterInfoWnd::MonsterDiceData> >::_Xlen
_TEXT	ENDS
PUBLIC	??0?$allocator@UMonsterDiceData@CenterInfoWnd@@@std@@QAE@ABV01@@Z ; std::allocator<CenterInfoWnd::MonsterDiceData>::allocator<CenterInfoWnd::MonsterDiceData>
; Function compile flags: /Ogsp
; File c:\program files (x86)\microsoft visual studio 10.0\vc\include\xmemory
;	COMDAT ??0?$allocator@UMonsterDiceData@CenterInfoWnd@@@std@@QAE@ABV01@@Z
_TEXT	SEGMENT
___formal$ = 8						; size = 4
??0?$allocator@UMonsterDiceData@CenterInfoWnd@@@std@@QAE@ABV01@@Z PROC ; std::allocator<CenterInfoWnd::MonsterDiceData>::allocator<CenterInfoWnd::MonsterDiceData>, COMDAT
; _this$ = ecx

; 165  : 	_ALLOCATOR(const _ALLOCATOR<_Ty>&) _THROW0()

  00000	8b c1		 mov	 eax, ecx

; 166  : 		{	// construct by copying (do nothing)
; 167  : 		}

  00002	c2 04 00	 ret	 4
??0?$allocator@UMonsterDiceData@CenterInfoWnd@@@std@@QAE@ABV01@@Z ENDP ; std::allocator<CenterInfoWnd::MonsterDiceData>::allocator<CenterInfoWnd::MonsterDiceData>
_TEXT	ENDS
PUBLIC	?deallocate@?$allocator@UMonsterDiceData@CenterInfoWnd@@@std@@QAEXPAUMonsterDiceData@CenterInfoWnd@@I@Z ; std::allocator<CenterInfoWnd::MonsterDiceData>::deallocate
; Function compile flags: /Ogsp
;	COMDAT ?deallocate@?$allocator@UMonsterDiceData@CenterInfoWnd@@@std@@QAEXPAUMonsterDiceData@CenterInfoWnd@@I@Z
_TEXT	SEGMENT
__Ptr$ = 8						; size = 4
___formal$ = 12						; size = 4
?deallocate@?$allocator@UMonsterDiceData@CenterInfoWnd@@@std@@QAEXPAUMonsterDiceData@CenterInfoWnd@@I@Z PROC ; std::allocator<CenterInfoWnd::MonsterDiceData>::deallocate, COMDAT
; _this$ = ecx

; 181  : 		{	// deallocate object at _Ptr, ignore size

  00000	55		 push	 ebp
  00001	8b ec		 mov	 ebp, esp

; 182  : 		::operator delete(_Ptr);

  00003	ff 75 08	 push	 DWORD PTR __Ptr$[ebp]
  00006	e8 00 00 00 00	 call	 ??3@YAXPAX@Z		; operator delete
  0000b	59		 pop	 ecx

; 183  : 		}

  0000c	5d		 pop	 ebp
  0000d	c2 08 00	 ret	 8
?deallocate@?$allocator@UMonsterDiceData@CenterInfoWnd@@@std@@QAEXPAUMonsterDiceData@CenterInfoWnd@@I@Z ENDP ; std::allocator<CenterInfoWnd::MonsterDiceData>::deallocate
_TEXT	ENDS
PUBLIC	??0?$_Vector_const_iterator@V?$_Vector_val@UMonsterDiceData@CenterInfoWnd@@V?$allocator@UMonsterDiceData@CenterInfoWnd@@@std@@@std@@@std@@QAE@PAUMonsterDiceData@CenterInfoWnd@@PBU_Container_base0@1@@Z ; std::_Vector_const_iterator<std::_Vector_val<CenterInfoWnd::MonsterDiceData,std::allocator<CenterInfoWnd::MonsterDiceData> > >::_Vector_const_iterator<std::_Vector_val<CenterInfoWnd::MonsterDiceData,std::allocator<CenterInfoWnd::MonsterDiceData> > >
; Function compile flags: /Ogsp
; File c:\program files (x86)\microsoft visual studio 10.0\vc\include\vector
;	COMDAT ??0?$_Vector_const_iterator@V?$_Vector_val@UMonsterDiceData@CenterInfoWnd@@V?$allocator@UMonsterDiceData@CenterInfoWnd@@@std@@@std@@@std@@QAE@PAUMonsterDiceData@CenterInfoWnd@@PBU_Container_base0@1@@Z
_TEXT	SEGMENT
__Parg$ = 8						; size = 4
__Pvector$ = 12						; size = 4
??0?$_Vector_const_iterator@V?$_Vector_val@UMonsterDiceData@CenterInfoWnd@@V?$allocator@UMonsterDiceData@CenterInfoWnd@@@std@@@std@@@std@@QAE@PAUMonsterDiceData@CenterInfoWnd@@PBU_Container_base0@1@@Z PROC ; std::_Vector_const_iterator<std::_Vector_val<CenterInfoWnd::MonsterDiceData,std::allocator<CenterInfoWnd::MonsterDiceData> > >::_Vector_const_iterator<std::_Vector_val<CenterInfoWnd::MonsterDiceData,std::allocator<CenterInfoWnd::MonsterDiceData> > >, COMDAT
; _this$ = ecx

; 45   : 		{	// construct with pointer _Parg

  00000	55		 push	 ebp
  00001	8b ec		 mov	 ebp, esp
  00003	8b c1		 mov	 eax, ecx
  00005	8b 4d 08	 mov	 ecx, DWORD PTR __Parg$[ebp]
  00008	89 08		 mov	 DWORD PTR [eax], ecx

; 46   : 		this->_Adopt(_Pvector);
; 47   : 		}

  0000a	5d		 pop	 ebp
  0000b	c2 08 00	 ret	 8
??0?$_Vector_const_iterator@V?$_Vector_val@UMonsterDiceData@CenterInfoWnd@@V?$allocator@UMonsterDiceData@CenterInfoWnd@@@std@@@std@@@std@@QAE@PAUMonsterDiceData@CenterInfoWnd@@PBU_Container_base0@1@@Z ENDP ; std::_Vector_const_iterator<std::_Vector_val<CenterInfoWnd::MonsterDiceData,std::allocator<CenterInfoWnd::MonsterDiceData> > >::_Vector_const_iterator<std::_Vector_val<CenterInfoWnd::MonsterDiceData,std::allocator<CenterInfoWnd::MonsterDiceData> > >
_TEXT	ENDS
PUBLIC	?max_size@?$allocator@UtagDeathTimeData@CenterInfoWnd@@@std@@QBEIXZ ; std::allocator<CenterInfoWnd::tagDeathTimeData>::max_size
; Function compile flags: /Ogsp
; File c:\program files (x86)\microsoft visual studio 10.0\vc\include\xmemory
;	COMDAT ?max_size@?$allocator@UtagDeathTimeData@CenterInfoWnd@@@std@@QBEIXZ
_TEXT	SEGMENT
?max_size@?$allocator@UtagDeathTimeData@CenterInfoWnd@@@std@@QBEIXZ PROC ; std::allocator<CenterInfoWnd::tagDeathTimeData>::max_size, COMDAT
; _this$ = ecx

; 218  : 		_SIZT _Count = (_SIZT)(-1) / sizeof (_Ty);
; 219  : 		return (0 < _Count ? _Count : 1);

  00000	b8 55 55 55 15	 mov	 eax, 357913941		; 15555555H

; 220  : 		}

  00005	c3		 ret	 0
?max_size@?$allocator@UtagDeathTimeData@CenterInfoWnd@@@std@@QBEIXZ ENDP ; std::allocator<CenterInfoWnd::tagDeathTimeData>::max_size
_TEXT	ENDS
PUBLIC	?max_size@?$allocator@UtagGangsiAlarmData@CenterInfoWnd@@@std@@QBEIXZ ; std::allocator<CenterInfoWnd::tagGangsiAlarmData>::max_size
; Function compile flags: /Ogsp
;	COMDAT ?max_size@?$allocator@UtagGangsiAlarmData@CenterInfoWnd@@@std@@QBEIXZ
_TEXT	SEGMENT
?max_size@?$allocator@UtagGangsiAlarmData@CenterInfoWnd@@@std@@QBEIXZ PROC ; std::allocator<CenterInfoWnd::tagGangsiAlarmData>::max_size, COMDAT
; _this$ = ecx

; 218  : 		_SIZT _Count = (_SIZT)(-1) / sizeof (_Ty);
; 219  : 		return (0 < _Count ? _Count : 1);

  00000	b8 55 55 55 15	 mov	 eax, 357913941		; 15555555H

; 220  : 		}

  00005	c3		 ret	 0
?max_size@?$allocator@UtagGangsiAlarmData@CenterInfoWnd@@@std@@QBEIXZ ENDP ; std::allocator<CenterInfoWnd::tagGangsiAlarmData>::max_size
_TEXT	ENDS
PUBLIC	?max_size@?$allocator@UMonsterDiceData@CenterInfoWnd@@@std@@QBEIXZ ; std::allocator<CenterInfoWnd::MonsterDiceData>::max_size
; Function compile flags: /Ogsp
;	COMDAT ?max_size@?$allocator@UMonsterDiceData@CenterInfoWnd@@@std@@QBEIXZ
_TEXT	SEGMENT
?max_size@?$allocator@UMonsterDiceData@CenterInfoWnd@@@std@@QBEIXZ PROC ; std::allocator<CenterInfoWnd::MonsterDiceData>::max_size, COMDAT
; _this$ = ecx

; 218  : 		_SIZT _Count = (_SIZT)(-1) / sizeof (_Ty);
; 219  : 		return (0 < _Count ? _Count : 1);

  00000	b8 5d 74 d1 05	 mov	 eax, 97612893		; 05d1745dH

; 220  : 		}

  00005	c3		 ret	 0
?max_size@?$allocator@UMonsterDiceData@CenterInfoWnd@@@std@@QBEIXZ ENDP ; std::allocator<CenterInfoWnd::MonsterDiceData>::max_size
_TEXT	ENDS
PUBLIC	??$addressof@$$CBVioHashString@@@std@@YAPBVioHashString@@ABV1@@Z ; std::addressof<ioHashString const >
; Function compile flags: /Ogsp
;	COMDAT ??$addressof@$$CBVioHashString@@@std@@YAPBVioHashString@@ABV1@@Z
_TEXT	SEGMENT
__Val$ = 8						; size = 4
??$addressof@$$CBVioHashString@@@std@@YAPBVioHashString@@ABV1@@Z PROC ; std::addressof<ioHashString const >, COMDAT

; 110  : 	{	// return address of _Val

  00000	55		 push	 ebp
  00001	8b ec		 mov	 ebp, esp

; 111  : 	return ((_Ty *) &(char&)_Val);

  00003	8b 45 08	 mov	 eax, DWORD PTR __Val$[ebp]

; 112  : 	}

  00006	5d		 pop	 ebp
  00007	c3		 ret	 0
??$addressof@$$CBVioHashString@@@std@@YAPBVioHashString@@ABV1@@Z ENDP ; std::addressof<ioHashString const >
_TEXT	ENDS
PUBLIC	??$addressof@$$CBUtagDeathTimeData@CenterInfoWnd@@@std@@YAPBUtagDeathTimeData@CenterInfoWnd@@ABU12@@Z ; std::addressof<CenterInfoWnd::tagDeathTimeData const >
; Function compile flags: /Ogsp
;	COMDAT ??$addressof@$$CBUtagDeathTimeData@CenterInfoWnd@@@std@@YAPBUtagDeathTimeData@CenterInfoWnd@@ABU12@@Z
_TEXT	SEGMENT
__Val$ = 8						; size = 4
??$addressof@$$CBUtagDeathTimeData@CenterInfoWnd@@@std@@YAPBUtagDeathTimeData@CenterInfoWnd@@ABU12@@Z PROC ; std::addressof<CenterInfoWnd::tagDeathTimeData const >, COMDAT

; 110  : 	{	// return address of _Val

  00000	55		 push	 ebp
  00001	8b ec		 mov	 ebp, esp

; 111  : 	return ((_Ty *) &(char&)_Val);

  00003	8b 45 08	 mov	 eax, DWORD PTR __Val$[ebp]

; 112  : 	}

  00006	5d		 pop	 ebp
  00007	c3		 ret	 0
??$addressof@$$CBUtagDeathTimeData@CenterInfoWnd@@@std@@YAPBUtagDeathTimeData@CenterInfoWnd@@ABU12@@Z ENDP ; std::addressof<CenterInfoWnd::tagDeathTimeData const >
_TEXT	ENDS
PUBLIC	??$addressof@$$CBUtagGangsiAlarmData@CenterInfoWnd@@@std@@YAPBUtagGangsiAlarmData@CenterInfoWnd@@ABU12@@Z ; std::addressof<CenterInfoWnd::tagGangsiAlarmData const >
; Function compile flags: /Ogsp
;	COMDAT ??$addressof@$$CBUtagGangsiAlarmData@CenterInfoWnd@@@std@@YAPBUtagGangsiAlarmData@CenterInfoWnd@@ABU12@@Z
_TEXT	SEGMENT
__Val$ = 8						; size = 4
??$addressof@$$CBUtagGangsiAlarmData@CenterInfoWnd@@@std@@YAPBUtagGangsiAlarmData@CenterInfoWnd@@ABU12@@Z PROC ; std::addressof<CenterInfoWnd::tagGangsiAlarmData const >, COMDAT

; 110  : 	{	// return address of _Val

  00000	55		 push	 ebp
  00001	8b ec		 mov	 ebp, esp

; 111  : 	return ((_Ty *) &(char&)_Val);

  00003	8b 45 08	 mov	 eax, DWORD PTR __Val$[ebp]

; 112  : 	}

  00006	5d		 pop	 ebp
  00007	c3		 ret	 0
??$addressof@$$CBUtagGangsiAlarmData@CenterInfoWnd@@@std@@YAPBUtagGangsiAlarmData@CenterInfoWnd@@ABU12@@Z ENDP ; std::addressof<CenterInfoWnd::tagGangsiAlarmData const >
_TEXT	ENDS
PUBLIC	??$addressof@$$CBUMonsterDiceData@CenterInfoWnd@@@std@@YAPBUMonsterDiceData@CenterInfoWnd@@ABU12@@Z ; std::addressof<CenterInfoWnd::MonsterDiceData const >
; Function compile flags: /Ogsp
;	COMDAT ??$addressof@$$CBUMonsterDiceData@CenterInfoWnd@@@std@@YAPBUMonsterDiceData@CenterInfoWnd@@ABU12@@Z
_TEXT	SEGMENT
__Val$ = 8						; size = 4
??$addressof@$$CBUMonsterDiceData@CenterInfoWnd@@@std@@YAPBUMonsterDiceData@CenterInfoWnd@@ABU12@@Z PROC ; std::addressof<CenterInfoWnd::MonsterDiceData const >, COMDAT

; 110  : 	{	// return address of _Val

  00000	55		 push	 ebp
  00001	8b ec		 mov	 ebp, esp

; 111  : 	return ((_Ty *) &(char&)_Val);

  00003	8b 45 08	 mov	 eax, DWORD PTR __Val$[ebp]

; 112  : 	}

  00006	5d		 pop	 ebp
  00007	c3		 ret	 0
??$addressof@$$CBUMonsterDiceData@CenterInfoWnd@@@std@@YAPBUMonsterDiceData@CenterInfoWnd@@ABU12@@Z ENDP ; std::addressof<CenterInfoWnd::MonsterDiceData const >
_TEXT	ENDS
PUBLIC	__TI2?AVbad_alloc@std@@
PUBLIC	??$_Allocate@UtagDeathTimeData@CenterInfoWnd@@@std@@YAPAUtagDeathTimeData@CenterInfoWnd@@IPAU12@@Z ; std::_Allocate<CenterInfoWnd::tagDeathTimeData>
PUBLIC	__CTA2?AVbad_alloc@std@@
PUBLIC	__CT??_R0?AVbad_alloc@std@@@8??0bad_alloc@std@@QAE@ABV01@@Z12
PUBLIC	??0bad_alloc@std@@QAE@ABV01@@Z			; std::bad_alloc::bad_alloc
PUBLIC	__CT??_R0?AVexception@std@@@8??0exception@std@@QAE@ABV01@@Z12
EXTRN	__CxxThrowException@8:PROC
EXTRN	??0exception@std@@QAE@ABV01@@Z:PROC		; std::exception::exception
;	COMDAT __CT??_R0?AVexception@std@@@8??0exception@std@@QAE@ABV01@@Z12
; File c:\program files (x86)\microsoft visual studio 10.0\vc\include\exception
xdata$x	SEGMENT
__CT??_R0?AVexception@std@@@8??0exception@std@@QAE@ABV01@@Z12 DD 00H
	DD	FLAT:??_R0?AVexception@std@@@8
	DD	00H
	DD	0ffffffffH
	ORG $+4
	DD	0cH
	DD	FLAT:??0exception@std@@QAE@ABV01@@Z
xdata$x	ENDS
;	COMDAT __CT??_R0?AVbad_alloc@std@@@8??0bad_alloc@std@@QAE@ABV01@@Z12
xdata$x	SEGMENT
__CT??_R0?AVbad_alloc@std@@@8??0bad_alloc@std@@QAE@ABV01@@Z12 DD 00H
	DD	FLAT:??_R0?AVbad_alloc@std@@@8
	DD	00H
	DD	0ffffffffH
	ORG $+4
	DD	0cH
	DD	FLAT:??0bad_alloc@std@@QAE@ABV01@@Z
xdata$x	ENDS
;	COMDAT __CTA2?AVbad_alloc@std@@
xdata$x	SEGMENT
__CTA2?AVbad_alloc@std@@ DD 02H
	DD	FLAT:__CT??_R0?AVbad_alloc@std@@@8??0bad_alloc@std@@QAE@ABV01@@Z12
	DD	FLAT:__CT??_R0?AVexception@std@@@8??0exception@std@@QAE@ABV01@@Z12
xdata$x	ENDS
;	COMDAT __TI2?AVbad_alloc@std@@
xdata$x	SEGMENT
__TI2?AVbad_alloc@std@@ DD 00H
	DD	FLAT:??1bad_alloc@std@@UAE@XZ
	DD	00H
	DD	FLAT:__CTA2?AVbad_alloc@std@@
; Function compile flags: /Ogsp
; File c:\program files (x86)\microsoft visual studio 10.0\vc\include\xmemory
xdata$x	ENDS
;	COMDAT ??$_Allocate@UtagDeathTimeData@CenterInfoWnd@@@std@@YAPAUtagDeathTimeData@CenterInfoWnd@@IPAU12@@Z
_TEXT	SEGMENT
$T514926 = -12						; size = 12
$T514931 = 8						; size = 4
__Count$ = 8						; size = 4
___formal$ = 12						; size = 4
??$_Allocate@UtagDeathTimeData@CenterInfoWnd@@@std@@YAPAUtagDeathTimeData@CenterInfoWnd@@IPAU12@@Z PROC ; std::_Allocate<CenterInfoWnd::tagDeathTimeData>, COMDAT

; 30   : 	{	// allocate storage for _Count elements of type _Ty

  00000	55		 push	 ebp
  00001	8b ec		 mov	 ebp, esp

; 31   : 	void *_Ptr = 0;
; 32   : 
; 33   : 	if (_Count <= 0)

  00003	8b 4d 08	 mov	 ecx, DWORD PTR __Count$[ebp]
  00006	83 ec 0c	 sub	 esp, 12			; 0000000cH
  00009	33 c0		 xor	 eax, eax
  0000b	85 c9		 test	 ecx, ecx

; 34   : 		_Count = 0;
; 35   : 	else if (((_SIZT)(-1) / sizeof (_Ty) < _Count)

  0000d	74 3c		 je	 SHORT $LN5@Allocate

; 36   : 		|| (_Ptr = ::operator new(_Count * sizeof (_Ty))) == 0)

  0000f	81 f9 55 55 55
	15		 cmp	 ecx, 357913941		; 15555555H
  00015	77 0e		 ja	 SHORT $LN1@Allocate
  00017	6b c9 0c	 imul	 ecx, 12			; 0000000cH
  0001a	51		 push	 ecx
  0001b	e8 00 00 00 00	 call	 ??2@YAPAXI@Z		; operator new
  00020	59		 pop	 ecx
  00021	85 c0		 test	 eax, eax

; 38   : 
; 39   : 	return ((_Ty _FARQ *)_Ptr);

  00023	75 26		 jne	 SHORT $LN5@Allocate
$LN1@Allocate:

; 37   : 		_THROW_NCEE(bad_alloc, 0);

  00025	83 65 08 00	 and	 DWORD PTR $T514931[ebp], 0
  00029	8d 45 08	 lea	 eax, DWORD PTR $T514931[ebp]
  0002c	50		 push	 eax
  0002d	8d 4d f4	 lea	 ecx, DWORD PTR $T514926[ebp]
  00030	ff 15 00 00 00
	00		 call	 DWORD PTR __imp_??0exception@std@@QAE@ABQBD@Z
  00036	68 00 00 00 00	 push	 OFFSET __TI2?AVbad_alloc@std@@
  0003b	8d 45 f4	 lea	 eax, DWORD PTR $T514926[ebp]
  0003e	50		 push	 eax
  0003f	c7 45 f4 00 00
	00 00		 mov	 DWORD PTR $T514926[ebp], OFFSET ??_7bad_alloc@std@@6B@
  00046	e8 00 00 00 00	 call	 __CxxThrowException@8
$LN10@Allocate:
$LN5@Allocate:

; 40   : 	}

  0004b	c9		 leave
  0004c	c3		 ret	 0
$LN9@Allocate:
??$_Allocate@UtagDeathTimeData@CenterInfoWnd@@@std@@YAPAUtagDeathTimeData@CenterInfoWnd@@IPAU12@@Z ENDP ; std::_Allocate<CenterInfoWnd::tagDeathTimeData>
_TEXT	ENDS
PUBLIC	??$_Allocate@UtagGangsiAlarmData@CenterInfoWnd@@@std@@YAPAUtagGangsiAlarmData@CenterInfoWnd@@IPAU12@@Z ; std::_Allocate<CenterInfoWnd::tagGangsiAlarmData>
; Function compile flags: /Ogsp
;	COMDAT ??$_Allocate@UtagGangsiAlarmData@CenterInfoWnd@@@std@@YAPAUtagGangsiAlarmData@CenterInfoWnd@@IPAU12@@Z
_TEXT	SEGMENT
$T514936 = -12						; size = 12
$T514940 = 8						; size = 4
__Count$ = 8						; size = 4
___formal$ = 12						; size = 4
??$_Allocate@UtagGangsiAlarmData@CenterInfoWnd@@@std@@YAPAUtagGangsiAlarmData@CenterInfoWnd@@IPAU12@@Z PROC ; std::_Allocate<CenterInfoWnd::tagGangsiAlarmData>, COMDAT

; 30   : 	{	// allocate storage for _Count elements of type _Ty

  00000	55		 push	 ebp
  00001	8b ec		 mov	 ebp, esp

; 31   : 	void *_Ptr = 0;
; 32   : 
; 33   : 	if (_Count <= 0)

  00003	8b 4d 08	 mov	 ecx, DWORD PTR __Count$[ebp]
  00006	83 ec 0c	 sub	 esp, 12			; 0000000cH
  00009	33 c0		 xor	 eax, eax
  0000b	85 c9		 test	 ecx, ecx

; 34   : 		_Count = 0;
; 35   : 	else if (((_SIZT)(-1) / sizeof (_Ty) < _Count)

  0000d	74 3c		 je	 SHORT $LN5@Allocate@2

; 36   : 		|| (_Ptr = ::operator new(_Count * sizeof (_Ty))) == 0)

  0000f	81 f9 55 55 55
	15		 cmp	 ecx, 357913941		; 15555555H
  00015	77 0e		 ja	 SHORT $LN1@Allocate@2
  00017	6b c9 0c	 imul	 ecx, 12			; 0000000cH
  0001a	51		 push	 ecx
  0001b	e8 00 00 00 00	 call	 ??2@YAPAXI@Z		; operator new
  00020	59		 pop	 ecx
  00021	85 c0		 test	 eax, eax

; 38   : 
; 39   : 	return ((_Ty _FARQ *)_Ptr);

  00023	75 26		 jne	 SHORT $LN5@Allocate@2
$LN1@Allocate@2:

; 37   : 		_THROW_NCEE(bad_alloc, 0);

  00025	83 65 08 00	 and	 DWORD PTR $T514940[ebp], 0
  00029	8d 45 08	 lea	 eax, DWORD PTR $T514940[ebp]
  0002c	50		 push	 eax
  0002d	8d 4d f4	 lea	 ecx, DWORD PTR $T514936[ebp]
  00030	ff 15 00 00 00
	00		 call	 DWORD PTR __imp_??0exception@std@@QAE@ABQBD@Z
  00036	68 00 00 00 00	 push	 OFFSET __TI2?AVbad_alloc@std@@
  0003b	8d 45 f4	 lea	 eax, DWORD PTR $T514936[ebp]
  0003e	50		 push	 eax
  0003f	c7 45 f4 00 00
	00 00		 mov	 DWORD PTR $T514936[ebp], OFFSET ??_7bad_alloc@std@@6B@
  00046	e8 00 00 00 00	 call	 __CxxThrowException@8
$LN10@Allocate@2:
$LN5@Allocate@2:

; 40   : 	}

  0004b	c9		 leave
  0004c	c3		 ret	 0
$LN9@Allocate@2:
??$_Allocate@UtagGangsiAlarmData@CenterInfoWnd@@@std@@YAPAUtagGangsiAlarmData@CenterInfoWnd@@IPAU12@@Z ENDP ; std::_Allocate<CenterInfoWnd::tagGangsiAlarmData>
_TEXT	ENDS
PUBLIC	??$_Allocate@UMonsterDiceData@CenterInfoWnd@@@std@@YAPAUMonsterDiceData@CenterInfoWnd@@IPAU12@@Z ; std::_Allocate<CenterInfoWnd::MonsterDiceData>
; Function compile flags: /Ogsp
;	COMDAT ??$_Allocate@UMonsterDiceData@CenterInfoWnd@@@std@@YAPAUMonsterDiceData@CenterInfoWnd@@IPAU12@@Z
_TEXT	SEGMENT
$T514945 = -12						; size = 12
$T514949 = 8						; size = 4
__Count$ = 8						; size = 4
___formal$ = 12						; size = 4
??$_Allocate@UMonsterDiceData@CenterInfoWnd@@@std@@YAPAUMonsterDiceData@CenterInfoWnd@@IPAU12@@Z PROC ; std::_Allocate<CenterInfoWnd::MonsterDiceData>, COMDAT

; 30   : 	{	// allocate storage for _Count elements of type _Ty

  00000	55		 push	 ebp
  00001	8b ec		 mov	 ebp, esp

; 31   : 	void *_Ptr = 0;
; 32   : 
; 33   : 	if (_Count <= 0)

  00003	8b 4d 08	 mov	 ecx, DWORD PTR __Count$[ebp]
  00006	83 ec 0c	 sub	 esp, 12			; 0000000cH
  00009	33 c0		 xor	 eax, eax
  0000b	85 c9		 test	 ecx, ecx

; 34   : 		_Count = 0;
; 35   : 	else if (((_SIZT)(-1) / sizeof (_Ty) < _Count)

  0000d	74 3c		 je	 SHORT $LN5@Allocate@3

; 36   : 		|| (_Ptr = ::operator new(_Count * sizeof (_Ty))) == 0)

  0000f	81 f9 5d 74 d1
	05		 cmp	 ecx, 97612893		; 05d1745dH
  00015	77 0e		 ja	 SHORT $LN1@Allocate@3
  00017	6b c9 2c	 imul	 ecx, 44			; 0000002cH
  0001a	51		 push	 ecx
  0001b	e8 00 00 00 00	 call	 ??2@YAPAXI@Z		; operator new
  00020	59		 pop	 ecx
  00021	85 c0		 test	 eax, eax

; 38   : 
; 39   : 	return ((_Ty _FARQ *)_Ptr);

  00023	75 26		 jne	 SHORT $LN5@Allocate@3
$LN1@Allocate@3:

; 37   : 		_THROW_NCEE(bad_alloc, 0);

  00025	83 65 08 00	 and	 DWORD PTR $T514949[ebp], 0
  00029	8d 45 08	 lea	 eax, DWORD PTR $T514949[ebp]
  0002c	50		 push	 eax
  0002d	8d 4d f4	 lea	 ecx, DWORD PTR $T514945[ebp]
  00030	ff 15 00 00 00
	00		 call	 DWORD PTR __imp_??0exception@std@@QAE@ABQBD@Z
  00036	68 00 00 00 00	 push	 OFFSET __TI2?AVbad_alloc@std@@
  0003b	8d 45 f4	 lea	 eax, DWORD PTR $T514945[ebp]
  0003e	50		 push	 eax
  0003f	c7 45 f4 00 00
	00 00		 mov	 DWORD PTR $T514945[ebp], OFFSET ??_7bad_alloc@std@@6B@
  00046	e8 00 00 00 00	 call	 __CxxThrowException@8
$LN10@Allocate@3:
$LN5@Allocate@3:

; 40   : 	}

  0004b	c9		 leave
  0004c	c3		 ret	 0
$LN9@Allocate@3:
??$_Allocate@UMonsterDiceData@CenterInfoWnd@@@std@@YAPAUMonsterDiceData@CenterInfoWnd@@IPAU12@@Z ENDP ; std::_Allocate<CenterInfoWnd::MonsterDiceData>
_TEXT	ENDS
PUBLIC	??$forward@AAUtagDeathTimeData@CenterInfoWnd@@@std@@YAAAUtagDeathTimeData@CenterInfoWnd@@AAU12@@Z ; std::forward<CenterInfoWnd::tagDeathTimeData &>
; Function compile flags: /Ogsp
; File c:\program files (x86)\microsoft visual studio 10.0\vc\include\utility
;	COMDAT ??$forward@AAUtagDeathTimeData@CenterInfoWnd@@@std@@YAAAUtagDeathTimeData@CenterInfoWnd@@AAU12@@Z
_TEXT	SEGMENT
__Arg$ = 8						; size = 4
??$forward@AAUtagDeathTimeData@CenterInfoWnd@@@std@@YAAAUtagDeathTimeData@CenterInfoWnd@@AAU12@@Z PROC ; std::forward<CenterInfoWnd::tagDeathTimeData &>, COMDAT

; 78   : 	{	// forward _Arg, given explicitly specified type parameter

  00000	55		 push	 ebp
  00001	8b ec		 mov	 ebp, esp

; 79   : 	return ((_Ty&&)_Arg);

  00003	8b 45 08	 mov	 eax, DWORD PTR __Arg$[ebp]

; 80   : 	}

  00006	5d		 pop	 ebp
  00007	c3		 ret	 0
??$forward@AAUtagDeathTimeData@CenterInfoWnd@@@std@@YAAAUtagDeathTimeData@CenterInfoWnd@@AAU12@@Z ENDP ; std::forward<CenterInfoWnd::tagDeathTimeData &>
_TEXT	ENDS
PUBLIC	??$construct@AAUtagDeathTimeData@CenterInfoWnd@@@?$allocator@UtagDeathTimeData@CenterInfoWnd@@@std@@QAEXPAUtagDeathTimeData@CenterInfoWnd@@AAU23@@Z ; std::allocator<CenterInfoWnd::tagDeathTimeData>::construct<CenterInfoWnd::tagDeathTimeData &>
; Function compile flags: /Ogsp
; File c:\program files (x86)\microsoft visual studio 10.0\vc\include\xmemory
;	COMDAT ??$construct@AAUtagDeathTimeData@CenterInfoWnd@@@?$allocator@UtagDeathTimeData@CenterInfoWnd@@@std@@QAEXPAUtagDeathTimeData@CenterInfoWnd@@AAU23@@Z
_TEXT	SEGMENT
__Ptr$ = 8						; size = 4
__Val$ = 12						; size = 4
??$construct@AAUtagDeathTimeData@CenterInfoWnd@@@?$allocator@UtagDeathTimeData@CenterInfoWnd@@@std@@QAEXPAUtagDeathTimeData@CenterInfoWnd@@AAU23@@Z PROC ; std::allocator<CenterInfoWnd::tagDeathTimeData>::construct<CenterInfoWnd::tagDeathTimeData &>, COMDAT
; _this$ = ecx

; 206  : 		void construct(pointer _Ptr, _Other&& _Val)

  00000	55		 push	 ebp
  00001	8b ec		 mov	 ebp, esp
  00003	57		 push	 edi

; 207  : 		{	// construct object at _Ptr with value _Val
; 208  : 		::new ((void _FARQ *)_Ptr) _Ty(_STD forward<_Other>(_Val));

  00004	8b 7d 08	 mov	 edi, DWORD PTR __Ptr$[ebp]
  00007	85 ff		 test	 edi, edi
  00009	74 08		 je	 SHORT $LN3@construct
  0000b	56		 push	 esi
  0000c	8b 75 0c	 mov	 esi, DWORD PTR __Val$[ebp]
  0000f	a5		 movsd
  00010	a5		 movsd
  00011	a5		 movsd
  00012	5e		 pop	 esi
$LN3@construct:
  00013	5f		 pop	 edi

; 209  : 		}

  00014	5d		 pop	 ebp
  00015	c2 08 00	 ret	 8
??$construct@AAUtagDeathTimeData@CenterInfoWnd@@@?$allocator@UtagDeathTimeData@CenterInfoWnd@@@std@@QAEXPAUtagDeathTimeData@CenterInfoWnd@@AAU23@@Z ENDP ; std::allocator<CenterInfoWnd::tagDeathTimeData>::construct<CenterInfoWnd::tagDeathTimeData &>
_TEXT	ENDS
PUBLIC	??$forward@ABUtagDeathTimeData@CenterInfoWnd@@@std@@YAABUtagDeathTimeData@CenterInfoWnd@@ABU12@@Z ; std::forward<CenterInfoWnd::tagDeathTimeData const &>
; Function compile flags: /Ogsp
; File c:\program files (x86)\microsoft visual studio 10.0\vc\include\utility
;	COMDAT ??$forward@ABUtagDeathTimeData@CenterInfoWnd@@@std@@YAABUtagDeathTimeData@CenterInfoWnd@@ABU12@@Z
_TEXT	SEGMENT
__Arg$ = 8						; size = 4
??$forward@ABUtagDeathTimeData@CenterInfoWnd@@@std@@YAABUtagDeathTimeData@CenterInfoWnd@@ABU12@@Z PROC ; std::forward<CenterInfoWnd::tagDeathTimeData const &>, COMDAT

; 78   : 	{	// forward _Arg, given explicitly specified type parameter

  00000	55		 push	 ebp
  00001	8b ec		 mov	 ebp, esp

; 79   : 	return ((_Ty&&)_Arg);

  00003	8b 45 08	 mov	 eax, DWORD PTR __Arg$[ebp]

; 80   : 	}

  00006	5d		 pop	 ebp
  00007	c3		 ret	 0
??$forward@ABUtagDeathTimeData@CenterInfoWnd@@@std@@YAABUtagDeathTimeData@CenterInfoWnd@@ABU12@@Z ENDP ; std::forward<CenterInfoWnd::tagDeathTimeData const &>
_TEXT	ENDS
PUBLIC	??$forward@AAUtagGangsiAlarmData@CenterInfoWnd@@@std@@YAAAUtagGangsiAlarmData@CenterInfoWnd@@AAU12@@Z ; std::forward<CenterInfoWnd::tagGangsiAlarmData &>
; Function compile flags: /Ogsp
;	COMDAT ??$forward@AAUtagGangsiAlarmData@CenterInfoWnd@@@std@@YAAAUtagGangsiAlarmData@CenterInfoWnd@@AAU12@@Z
_TEXT	SEGMENT
__Arg$ = 8						; size = 4
??$forward@AAUtagGangsiAlarmData@CenterInfoWnd@@@std@@YAAAUtagGangsiAlarmData@CenterInfoWnd@@AAU12@@Z PROC ; std::forward<CenterInfoWnd::tagGangsiAlarmData &>, COMDAT

; 78   : 	{	// forward _Arg, given explicitly specified type parameter

  00000	55		 push	 ebp
  00001	8b ec		 mov	 ebp, esp

; 79   : 	return ((_Ty&&)_Arg);

  00003	8b 45 08	 mov	 eax, DWORD PTR __Arg$[ebp]

; 80   : 	}

  00006	5d		 pop	 ebp
  00007	c3		 ret	 0
??$forward@AAUtagGangsiAlarmData@CenterInfoWnd@@@std@@YAAAUtagGangsiAlarmData@CenterInfoWnd@@AAU12@@Z ENDP ; std::forward<CenterInfoWnd::tagGangsiAlarmData &>
_TEXT	ENDS
PUBLIC	??$construct@AAUtagGangsiAlarmData@CenterInfoWnd@@@?$allocator@UtagGangsiAlarmData@CenterInfoWnd@@@std@@QAEXPAUtagGangsiAlarmData@CenterInfoWnd@@AAU23@@Z ; std::allocator<CenterInfoWnd::tagGangsiAlarmData>::construct<CenterInfoWnd::tagGangsiAlarmData &>
; Function compile flags: /Ogsp
; File c:\program files (x86)\microsoft visual studio 10.0\vc\include\xmemory
;	COMDAT ??$construct@AAUtagGangsiAlarmData@CenterInfoWnd@@@?$allocator@UtagGangsiAlarmData@CenterInfoWnd@@@std@@QAEXPAUtagGangsiAlarmData@CenterInfoWnd@@AAU23@@Z
_TEXT	SEGMENT
__Ptr$ = 8						; size = 4
__Val$ = 12						; size = 4
??$construct@AAUtagGangsiAlarmData@CenterInfoWnd@@@?$allocator@UtagGangsiAlarmData@CenterInfoWnd@@@std@@QAEXPAUtagGangsiAlarmData@CenterInfoWnd@@AAU23@@Z PROC ; std::allocator<CenterInfoWnd::tagGangsiAlarmData>::construct<CenterInfoWnd::tagGangsiAlarmData &>, COMDAT
; _this$ = ecx

; 206  : 		void construct(pointer _Ptr, _Other&& _Val)

  00000	55		 push	 ebp
  00001	8b ec		 mov	 ebp, esp
  00003	57		 push	 edi

; 207  : 		{	// construct object at _Ptr with value _Val
; 208  : 		::new ((void _FARQ *)_Ptr) _Ty(_STD forward<_Other>(_Val));

  00004	8b 7d 08	 mov	 edi, DWORD PTR __Ptr$[ebp]
  00007	85 ff		 test	 edi, edi
  00009	74 08		 je	 SHORT $LN3@construct@2
  0000b	56		 push	 esi
  0000c	8b 75 0c	 mov	 esi, DWORD PTR __Val$[ebp]
  0000f	a5		 movsd
  00010	a5		 movsd
  00011	a5		 movsd
  00012	5e		 pop	 esi
$LN3@construct@2:
  00013	5f		 pop	 edi

; 209  : 		}

  00014	5d		 pop	 ebp
  00015	c2 08 00	 ret	 8
??$construct@AAUtagGangsiAlarmData@CenterInfoWnd@@@?$allocator@UtagGangsiAlarmData@CenterInfoWnd@@@std@@QAEXPAUtagGangsiAlarmData@CenterInfoWnd@@AAU23@@Z ENDP ; std::allocator<CenterInfoWnd::tagGangsiAlarmData>::construct<CenterInfoWnd::tagGangsiAlarmData &>
_TEXT	ENDS
PUBLIC	??$forward@ABUtagGangsiAlarmData@CenterInfoWnd@@@std@@YAABUtagGangsiAlarmData@CenterInfoWnd@@ABU12@@Z ; std::forward<CenterInfoWnd::tagGangsiAlarmData const &>
; Function compile flags: /Ogsp
; File c:\program files (x86)\microsoft visual studio 10.0\vc\include\utility
;	COMDAT ??$forward@ABUtagGangsiAlarmData@CenterInfoWnd@@@std@@YAABUtagGangsiAlarmData@CenterInfoWnd@@ABU12@@Z
_TEXT	SEGMENT
__Arg$ = 8						; size = 4
??$forward@ABUtagGangsiAlarmData@CenterInfoWnd@@@std@@YAABUtagGangsiAlarmData@CenterInfoWnd@@ABU12@@Z PROC ; std::forward<CenterInfoWnd::tagGangsiAlarmData const &>, COMDAT

; 78   : 	{	// forward _Arg, given explicitly specified type parameter

  00000	55		 push	 ebp
  00001	8b ec		 mov	 ebp, esp

; 79   : 	return ((_Ty&&)_Arg);

  00003	8b 45 08	 mov	 eax, DWORD PTR __Arg$[ebp]

; 80   : 	}

  00006	5d		 pop	 ebp
  00007	c3		 ret	 0
??$forward@ABUtagGangsiAlarmData@CenterInfoWnd@@@std@@YAABUtagGangsiAlarmData@CenterInfoWnd@@ABU12@@Z ENDP ; std::forward<CenterInfoWnd::tagGangsiAlarmData const &>
_TEXT	ENDS
PUBLIC	??$forward@AAUMonsterDiceData@CenterInfoWnd@@@std@@YAAAUMonsterDiceData@CenterInfoWnd@@AAU12@@Z ; std::forward<CenterInfoWnd::MonsterDiceData &>
; Function compile flags: /Ogsp
;	COMDAT ??$forward@AAUMonsterDiceData@CenterInfoWnd@@@std@@YAAAUMonsterDiceData@CenterInfoWnd@@AAU12@@Z
_TEXT	SEGMENT
__Arg$ = 8						; size = 4
??$forward@AAUMonsterDiceData@CenterInfoWnd@@@std@@YAAAUMonsterDiceData@CenterInfoWnd@@AAU12@@Z PROC ; std::forward<CenterInfoWnd::MonsterDiceData &>, COMDAT

; 78   : 	{	// forward _Arg, given explicitly specified type parameter

  00000	55		 push	 ebp
  00001	8b ec		 mov	 ebp, esp

; 79   : 	return ((_Ty&&)_Arg);

  00003	8b 45 08	 mov	 eax, DWORD PTR __Arg$[ebp]

; 80   : 	}

  00006	5d		 pop	 ebp
  00007	c3		 ret	 0
??$forward@AAUMonsterDiceData@CenterInfoWnd@@@std@@YAAAUMonsterDiceData@CenterInfoWnd@@AAU12@@Z ENDP ; std::forward<CenterInfoWnd::MonsterDiceData &>
_TEXT	ENDS
PUBLIC	??$forward@ABUMonsterDiceData@CenterInfoWnd@@@std@@YAABUMonsterDiceData@CenterInfoWnd@@ABU12@@Z ; std::forward<CenterInfoWnd::MonsterDiceData const &>
; Function compile flags: /Ogsp
;	COMDAT ??$forward@ABUMonsterDiceData@CenterInfoWnd@@@std@@YAABUMonsterDiceData@CenterInfoWnd@@ABU12@@Z
_TEXT	SEGMENT
__Arg$ = 8						; size = 4
??$forward@ABUMonsterDiceData@CenterInfoWnd@@@std@@YAABUMonsterDiceData@CenterInfoWnd@@ABU12@@Z PROC ; std::forward<CenterInfoWnd::MonsterDiceData const &>, COMDAT

; 78   : 	{	// forward _Arg, given explicitly specified type parameter

  00000	55		 push	 ebp
  00001	8b ec		 mov	 ebp, esp

; 79   : 	return ((_Ty&&)_Arg);

  00003	8b 45 08	 mov	 eax, DWORD PTR __Arg$[ebp]

; 80   : 	}

  00006	5d		 pop	 ebp
  00007	c3		 ret	 0
??$forward@ABUMonsterDiceData@CenterInfoWnd@@@std@@YAABUMonsterDiceData@CenterInfoWnd@@ABU12@@Z ENDP ; std::forward<CenterInfoWnd::MonsterDiceData const &>
_TEXT	ENDS
PUBLIC	??$_Ptr_cat@UMonsterDiceData@CenterInfoWnd@@U12@@std@@YA?AU_Nonscalar_ptr_iterator_tag@0@PAUMonsterDiceData@CenterInfoWnd@@0@Z ; std::_Ptr_cat<CenterInfoWnd::MonsterDiceData,CenterInfoWnd::MonsterDiceData>
; Function compile flags: /Ogsp
; File c:\program files (x86)\microsoft visual studio 10.0\vc\include\xutility
;	COMDAT ??$_Ptr_cat@UMonsterDiceData@CenterInfoWnd@@U12@@std@@YA?AU_Nonscalar_ptr_iterator_tag@0@PAUMonsterDiceData@CenterInfoWnd@@0@Z
_TEXT	SEGMENT
__Cat$ = -1						; size = 1
___formal$ = 8						; size = 4
___formal$ = 12						; size = 4
??$_Ptr_cat@UMonsterDiceData@CenterInfoWnd@@U12@@std@@YA?AU_Nonscalar_ptr_iterator_tag@0@PAUMonsterDiceData@CenterInfoWnd@@0@Z PROC ; std::_Ptr_cat<CenterInfoWnd::MonsterDiceData,CenterInfoWnd::MonsterDiceData>, COMDAT

; 516  : 	{	// return pointer category from pointers

  00000	55		 push	 ebp
  00001	8b ec		 mov	 ebp, esp
  00003	51		 push	 ecx

; 517  : 	typename _Ptr_cat_helper<_Elem1, _Elem2>::_Type _Cat;
; 518  : 	return (_Cat);

  00004	8a 45 ff	 mov	 al, BYTE PTR __Cat$[ebp]

; 519  : 	}

  00007	c9		 leave
  00008	c3		 ret	 0
??$_Ptr_cat@UMonsterDiceData@CenterInfoWnd@@U12@@std@@YA?AU_Nonscalar_ptr_iterator_tag@0@PAUMonsterDiceData@CenterInfoWnd@@0@Z ENDP ; std::_Ptr_cat<CenterInfoWnd::MonsterDiceData,CenterInfoWnd::MonsterDiceData>
_TEXT	ENDS
PUBLIC	??$_Ptr_cat@UtagDeathTimeData@CenterInfoWnd@@U12@@std@@YA?AU_Nonscalar_ptr_iterator_tag@0@PAUtagDeathTimeData@CenterInfoWnd@@0@Z ; std::_Ptr_cat<CenterInfoWnd::tagDeathTimeData,CenterInfoWnd::tagDeathTimeData>
; Function compile flags: /Ogsp
;	COMDAT ??$_Ptr_cat@UtagDeathTimeData@CenterInfoWnd@@U12@@std@@YA?AU_Nonscalar_ptr_iterator_tag@0@PAUtagDeathTimeData@CenterInfoWnd@@0@Z
_TEXT	SEGMENT
__Cat$ = -1						; size = 1
___formal$ = 8						; size = 4
___formal$ = 12						; size = 4
??$_Ptr_cat@UtagDeathTimeData@CenterInfoWnd@@U12@@std@@YA?AU_Nonscalar_ptr_iterator_tag@0@PAUtagDeathTimeData@CenterInfoWnd@@0@Z PROC ; std::_Ptr_cat<CenterInfoWnd::tagDeathTimeData,CenterInfoWnd::tagDeathTimeData>, COMDAT

; 516  : 	{	// return pointer category from pointers

  00000	55		 push	 ebp
  00001	8b ec		 mov	 ebp, esp
  00003	51		 push	 ecx

; 517  : 	typename _Ptr_cat_helper<_Elem1, _Elem2>::_Type _Cat;
; 518  : 	return (_Cat);

  00004	8a 45 ff	 mov	 al, BYTE PTR __Cat$[ebp]

; 519  : 	}

  00007	c9		 leave
  00008	c3		 ret	 0
??$_Ptr_cat@UtagDeathTimeData@CenterInfoWnd@@U12@@std@@YA?AU_Nonscalar_ptr_iterator_tag@0@PAUtagDeathTimeData@CenterInfoWnd@@0@Z ENDP ; std::_Ptr_cat<CenterInfoWnd::tagDeathTimeData,CenterInfoWnd::tagDeathTimeData>
_TEXT	ENDS
PUBLIC	??$_Ptr_cat@UtagGangsiAlarmData@CenterInfoWnd@@U12@@std@@YA?AU_Nonscalar_ptr_iterator_tag@0@PAUtagGangsiAlarmData@CenterInfoWnd@@0@Z ; std::_Ptr_cat<CenterInfoWnd::tagGangsiAlarmData,CenterInfoWnd::tagGangsiAlarmData>
; Function compile flags: /Ogsp
;	COMDAT ??$_Ptr_cat@UtagGangsiAlarmData@CenterInfoWnd@@U12@@std@@YA?AU_Nonscalar_ptr_iterator_tag@0@PAUtagGangsiAlarmData@CenterInfoWnd@@0@Z
_TEXT	SEGMENT
__Cat$ = -1						; size = 1
___formal$ = 8						; size = 4
___formal$ = 12						; size = 4
??$_Ptr_cat@UtagGangsiAlarmData@CenterInfoWnd@@U12@@std@@YA?AU_Nonscalar_ptr_iterator_tag@0@PAUtagGangsiAlarmData@CenterInfoWnd@@0@Z PROC ; std::_Ptr_cat<CenterInfoWnd::tagGangsiAlarmData,CenterInfoWnd::tagGangsiAlarmData>, COMDAT

; 516  : 	{	// return pointer category from pointers

  00000	55		 push	 ebp
  00001	8b ec		 mov	 ebp, esp
  00003	51		 push	 ecx

; 517  : 	typename _Ptr_cat_helper<_Elem1, _Elem2>::_Type _Cat;
; 518  : 	return (_Cat);

  00004	8a 45 ff	 mov	 al, BYTE PTR __Cat$[ebp]

; 519  : 	}

  00007	c9		 leave
  00008	c3		 ret	 0
??$_Ptr_cat@UtagGangsiAlarmData@CenterInfoWnd@@U12@@std@@YA?AU_Nonscalar_ptr_iterator_tag@0@PAUtagGangsiAlarmData@CenterInfoWnd@@0@Z ENDP ; std::_Ptr_cat<CenterInfoWnd::tagGangsiAlarmData,CenterInfoWnd::tagGangsiAlarmData>
_TEXT	ENDS
PUBLIC	??$_Construct@UtagDeathTimeData@CenterInfoWnd@@ABU12@@std@@YAXPAUtagDeathTimeData@CenterInfoWnd@@ABU12@@Z ; std::_Construct<CenterInfoWnd::tagDeathTimeData,CenterInfoWnd::tagDeathTimeData const &>
; Function compile flags: /Ogsp
; File c:\program files (x86)\microsoft visual studio 10.0\vc\include\xmemory
;	COMDAT ??$_Construct@UtagDeathTimeData@CenterInfoWnd@@ABU12@@std@@YAXPAUtagDeathTimeData@CenterInfoWnd@@ABU12@@Z
_TEXT	SEGMENT
__Ptr$ = 8						; size = 4
__Val$ = 12						; size = 4
??$_Construct@UtagDeathTimeData@CenterInfoWnd@@ABU12@@std@@YAXPAUtagDeathTimeData@CenterInfoWnd@@ABU12@@Z PROC ; std::_Construct<CenterInfoWnd::tagDeathTimeData,CenterInfoWnd::tagDeathTimeData const &>, COMDAT

; 46   : 	{	// construct object at _Ptr with value _Val

  00000	55		 push	 ebp
  00001	8b ec		 mov	 ebp, esp
  00003	57		 push	 edi

; 47   : 	void _FARQ *_Vptr = _Ptr;
; 48   : 	::new (_Vptr) _Ty1(_STD forward<_Ty2>(_Val));

  00004	8b 7d 08	 mov	 edi, DWORD PTR __Ptr$[ebp]
  00007	85 ff		 test	 edi, edi
  00009	74 08		 je	 SHORT $LN3@Construct
  0000b	56		 push	 esi
  0000c	8b 75 0c	 mov	 esi, DWORD PTR __Val$[ebp]
  0000f	a5		 movsd
  00010	a5		 movsd
  00011	a5		 movsd
  00012	5e		 pop	 esi
$LN3@Construct:
  00013	5f		 pop	 edi

; 49   : 	}

  00014	5d		 pop	 ebp
  00015	c3		 ret	 0
??$_Construct@UtagDeathTimeData@CenterInfoWnd@@ABU12@@std@@YAXPAUtagDeathTimeData@CenterInfoWnd@@ABU12@@Z ENDP ; std::_Construct<CenterInfoWnd::tagDeathTimeData,CenterInfoWnd::tagDeathTimeData const &>
_TEXT	ENDS
PUBLIC	??$_Construct@UtagGangsiAlarmData@CenterInfoWnd@@ABU12@@std@@YAXPAUtagGangsiAlarmData@CenterInfoWnd@@ABU12@@Z ; std::_Construct<CenterInfoWnd::tagGangsiAlarmData,CenterInfoWnd::tagGangsiAlarmData const &>
; Function compile flags: /Ogsp
;	COMDAT ??$_Construct@UtagGangsiAlarmData@CenterInfoWnd@@ABU12@@std@@YAXPAUtagGangsiAlarmData@CenterInfoWnd@@ABU12@@Z
_TEXT	SEGMENT
__Ptr$ = 8						; size = 4
__Val$ = 12						; size = 4
??$_Construct@UtagGangsiAlarmData@CenterInfoWnd@@ABU12@@std@@YAXPAUtagGangsiAlarmData@CenterInfoWnd@@ABU12@@Z PROC ; std::_Construct<CenterInfoWnd::tagGangsiAlarmData,CenterInfoWnd::tagGangsiAlarmData const &>, COMDAT

; 46   : 	{	// construct object at _Ptr with value _Val

  00000	55		 push	 ebp
  00001	8b ec		 mov	 ebp, esp
  00003	57		 push	 edi

; 47   : 	void _FARQ *_Vptr = _Ptr;
; 48   : 	::new (_Vptr) _Ty1(_STD forward<_Ty2>(_Val));

  00004	8b 7d 08	 mov	 edi, DWORD PTR __Ptr$[ebp]
  00007	85 ff		 test	 edi, edi
  00009	74 08		 je	 SHORT $LN3@Construct@2
  0000b	56		 push	 esi
  0000c	8b 75 0c	 mov	 esi, DWORD PTR __Val$[ebp]
  0000f	a5		 movsd
  00010	a5		 movsd
  00011	a5		 movsd
  00012	5e		 pop	 esi
$LN3@Construct@2:
  00013	5f		 pop	 edi

; 49   : 	}

  00014	5d		 pop	 ebp
  00015	c3		 ret	 0
??$_Construct@UtagGangsiAlarmData@CenterInfoWnd@@ABU12@@std@@YAXPAUtagGangsiAlarmData@CenterInfoWnd@@ABU12@@Z ENDP ; std::_Construct<CenterInfoWnd::tagGangsiAlarmData,CenterInfoWnd::tagGangsiAlarmData const &>
_TEXT	ENDS
PUBLIC	??$move@AAUMonsterDiceData@CenterInfoWnd@@@std@@YA$$QAUMonsterDiceData@CenterInfoWnd@@AAU12@@Z ; std::move<CenterInfoWnd::MonsterDiceData &>
; Function compile flags: /Ogsp
; File c:\program files (x86)\microsoft visual studio 10.0\vc\include\utility
;	COMDAT ??$move@AAUMonsterDiceData@CenterInfoWnd@@@std@@YA$$QAUMonsterDiceData@CenterInfoWnd@@AAU12@@Z
_TEXT	SEGMENT
__Arg$ = 8						; size = 4
??$move@AAUMonsterDiceData@CenterInfoWnd@@@std@@YA$$QAUMonsterDiceData@CenterInfoWnd@@AAU12@@Z PROC ; std::move<CenterInfoWnd::MonsterDiceData &>, COMDAT

; 86   : 	{	// forward _Arg as movable

  00000	55		 push	 ebp
  00001	8b ec		 mov	 ebp, esp

; 87   : 	return ((typename tr1::_Remove_reference<_Ty>::_Type&&)_Arg);

  00003	8b 45 08	 mov	 eax, DWORD PTR __Arg$[ebp]

; 88   : 	}

  00006	5d		 pop	 ebp
  00007	c3		 ret	 0
??$move@AAUMonsterDiceData@CenterInfoWnd@@@std@@YA$$QAUMonsterDiceData@CenterInfoWnd@@AAU12@@Z ENDP ; std::move<CenterInfoWnd::MonsterDiceData &>
_TEXT	ENDS
PUBLIC	??$_Val_type@PAVioHashString@@@std@@YAPAVioHashString@@PAV1@@Z ; std::_Val_type<ioHashString *>
; Function compile flags: /Ogsp
; File c:\program files (x86)\microsoft visual studio 10.0\vc\include\xutility
;	COMDAT ??$_Val_type@PAVioHashString@@@std@@YAPAVioHashString@@PAV1@@Z
_TEXT	SEGMENT
___formal$ = 8						; size = 4
??$_Val_type@PAVioHashString@@@std@@YAPAVioHashString@@PAV1@@Z PROC ; std::_Val_type<ioHashString *>, COMDAT

; 790  : 	return (0);

  00000	33 c0		 xor	 eax, eax

; 791  : 	}

  00002	c3		 ret	 0
??$_Val_type@PAVioHashString@@@std@@YAPAVioHashString@@PAV1@@Z ENDP ; std::_Val_type<ioHashString *>
_TEXT	ENDS
PUBLIC	??$_Val_type@PAUtagDeathTimeData@CenterInfoWnd@@@std@@YAPAUtagDeathTimeData@CenterInfoWnd@@PAU12@@Z ; std::_Val_type<CenterInfoWnd::tagDeathTimeData *>
; Function compile flags: /Ogsp
;	COMDAT ??$_Val_type@PAUtagDeathTimeData@CenterInfoWnd@@@std@@YAPAUtagDeathTimeData@CenterInfoWnd@@PAU12@@Z
_TEXT	SEGMENT
___formal$ = 8						; size = 4
??$_Val_type@PAUtagDeathTimeData@CenterInfoWnd@@@std@@YAPAUtagDeathTimeData@CenterInfoWnd@@PAU12@@Z PROC ; std::_Val_type<CenterInfoWnd::tagDeathTimeData *>, COMDAT

; 790  : 	return (0);

  00000	33 c0		 xor	 eax, eax

; 791  : 	}

  00002	c3		 ret	 0
??$_Val_type@PAUtagDeathTimeData@CenterInfoWnd@@@std@@YAPAUtagDeathTimeData@CenterInfoWnd@@PAU12@@Z ENDP ; std::_Val_type<CenterInfoWnd::tagDeathTimeData *>
_TEXT	ENDS
PUBLIC	??$_Val_type@PAUtagGangsiAlarmData@CenterInfoWnd@@@std@@YAPAUtagGangsiAlarmData@CenterInfoWnd@@PAU12@@Z ; std::_Val_type<CenterInfoWnd::tagGangsiAlarmData *>
; Function compile flags: /Ogsp
;	COMDAT ??$_Val_type@PAUtagGangsiAlarmData@CenterInfoWnd@@@std@@YAPAUtagGangsiAlarmData@CenterInfoWnd@@PAU12@@Z
_TEXT	SEGMENT
___formal$ = 8						; size = 4
??$_Val_type@PAUtagGangsiAlarmData@CenterInfoWnd@@@std@@YAPAUtagGangsiAlarmData@CenterInfoWnd@@PAU12@@Z PROC ; std::_Val_type<CenterInfoWnd::tagGangsiAlarmData *>, COMDAT

; 790  : 	return (0);

  00000	33 c0		 xor	 eax, eax

; 791  : 	}

  00002	c3		 ret	 0
??$_Val_type@PAUtagGangsiAlarmData@CenterInfoWnd@@@std@@YAPAUtagGangsiAlarmData@CenterInfoWnd@@PAU12@@Z ENDP ; std::_Val_type<CenterInfoWnd::tagGangsiAlarmData *>
_TEXT	ENDS
PUBLIC	??$_Val_type@PAUMonsterDiceData@CenterInfoWnd@@@std@@YAPAUMonsterDiceData@CenterInfoWnd@@PAU12@@Z ; std::_Val_type<CenterInfoWnd::MonsterDiceData *>
; Function compile flags: /Ogsp
;	COMDAT ??$_Val_type@PAUMonsterDiceData@CenterInfoWnd@@@std@@YAPAUMonsterDiceData@CenterInfoWnd@@PAU12@@Z
_TEXT	SEGMENT
___formal$ = 8						; size = 4
??$_Val_type@PAUMonsterDiceData@CenterInfoWnd@@@std@@YAPAUMonsterDiceData@CenterInfoWnd@@PAU12@@Z PROC ; std::_Val_type<CenterInfoWnd::MonsterDiceData *>, COMDAT

; 790  : 	return (0);

  00000	33 c0		 xor	 eax, eax

; 791  : 	}

  00002	c3		 ret	 0
??$_Val_type@PAUMonsterDiceData@CenterInfoWnd@@@std@@YAPAUMonsterDiceData@CenterInfoWnd@@PAU12@@Z ENDP ; std::_Val_type<CenterInfoWnd::MonsterDiceData *>
_TEXT	ENDS
PUBLIC	??$_Copy_impl@PAVioHashString@@PAV1@@std@@YAPAVioHashString@@PAV1@00U_Nonscalar_ptr_iterator_tag@0@@Z ; std::_Copy_impl<ioHashString *,ioHashString *>
; Function compile flags: /Ogsp
;	COMDAT ??$_Copy_impl@PAVioHashString@@PAV1@@std@@YAPAVioHashString@@PAV1@00U_Nonscalar_ptr_iterator_tag@0@@Z
_TEXT	SEGMENT
__First$ = 8						; size = 4
__Last$ = 12						; size = 4
__Dest$ = 16						; size = 4
___formal$ = 20						; size = 1
??$_Copy_impl@PAVioHashString@@PAV1@@std@@YAPAVioHashString@@PAV1@00U_Nonscalar_ptr_iterator_tag@0@@Z PROC ; std::_Copy_impl<ioHashString *,ioHashString *>, COMDAT

; 2142 : 	{	// copy [_First, _Last) to [_Dest, ...), arbitrary iterators

  00000	55		 push	 ebp
  00001	8b ec		 mov	 ebp, esp
  00003	56		 push	 esi

; 2143 : 	for (; _First != _Last; ++_Dest, ++_First)

  00004	8b 75 08	 mov	 esi, DWORD PTR __First$[ebp]
  00007	eb 11		 jmp	 SHORT $LN9@Copy_impl
$LL3@Copy_impl:

; 2144 : 		*_Dest = *_First;

  00009	8b 4d 10	 mov	 ecx, DWORD PTR __Dest$[ebp]
  0000c	56		 push	 esi
  0000d	ff 15 00 00 00
	00		 call	 DWORD PTR __imp_??4ioHashString@@QAEAAV0@ABV0@@Z
  00013	83 45 10 10	 add	 DWORD PTR __Dest$[ebp], 16 ; 00000010H
  00017	83 c6 10	 add	 esi, 16			; 00000010H
$LN9@Copy_impl:

; 2143 : 	for (; _First != _Last; ++_Dest, ++_First)

  0001a	3b 75 0c	 cmp	 esi, DWORD PTR __Last$[ebp]
  0001d	75 ea		 jne	 SHORT $LL3@Copy_impl

; 2145 : 	return (_Dest);

  0001f	8b 45 10	 mov	 eax, DWORD PTR __Dest$[ebp]
  00022	5e		 pop	 esi

; 2146 : 	}

  00023	5d		 pop	 ebp
  00024	c3		 ret	 0
??$_Copy_impl@PAVioHashString@@PAV1@@std@@YAPAVioHashString@@PAV1@00U_Nonscalar_ptr_iterator_tag@0@@Z ENDP ; std::_Copy_impl<ioHashString *,ioHashString *>
_TEXT	ENDS
PUBLIC	??$_Destroy@UtagDeathTimeData@CenterInfoWnd@@@std@@YAXPAUtagDeathTimeData@CenterInfoWnd@@@Z ; std::_Destroy<CenterInfoWnd::tagDeathTimeData>
; Function compile flags: /Ogsp
; File c:\program files (x86)\microsoft visual studio 10.0\vc\include\xmemory
;	COMDAT ??$_Destroy@UtagDeathTimeData@CenterInfoWnd@@@std@@YAXPAUtagDeathTimeData@CenterInfoWnd@@@Z
_TEXT	SEGMENT
__Ptr$ = 8						; size = 4
??$_Destroy@UtagDeathTimeData@CenterInfoWnd@@@std@@YAXPAUtagDeathTimeData@CenterInfoWnd@@@Z PROC ; std::_Destroy<CenterInfoWnd::tagDeathTimeData>, COMDAT

; 63   : 	_Ptr->~_Ty();
; 64   : 	}

  00000	c3		 ret	 0
??$_Destroy@UtagDeathTimeData@CenterInfoWnd@@@std@@YAXPAUtagDeathTimeData@CenterInfoWnd@@@Z ENDP ; std::_Destroy<CenterInfoWnd::tagDeathTimeData>
_TEXT	ENDS
PUBLIC	??$_Destroy@UtagGangsiAlarmData@CenterInfoWnd@@@std@@YAXPAUtagGangsiAlarmData@CenterInfoWnd@@@Z ; std::_Destroy<CenterInfoWnd::tagGangsiAlarmData>
; Function compile flags: /Ogsp
;	COMDAT ??$_Destroy@UtagGangsiAlarmData@CenterInfoWnd@@@std@@YAXPAUtagGangsiAlarmData@CenterInfoWnd@@@Z
_TEXT	SEGMENT
__Ptr$ = 8						; size = 4
??$_Destroy@UtagGangsiAlarmData@CenterInfoWnd@@@std@@YAXPAUtagGangsiAlarmData@CenterInfoWnd@@@Z PROC ; std::_Destroy<CenterInfoWnd::tagGangsiAlarmData>, COMDAT

; 63   : 	_Ptr->~_Ty();
; 64   : 	}

  00000	c3		 ret	 0
??$_Destroy@UtagGangsiAlarmData@CenterInfoWnd@@@std@@YAXPAUtagGangsiAlarmData@CenterInfoWnd@@@Z ENDP ; std::_Destroy<CenterInfoWnd::tagGangsiAlarmData>
_TEXT	ENDS
PUBLIC	??$forward@VioHashString@@@std@@YA$$QAVioHashString@@AAV1@@Z ; std::forward<ioHashString>
; Function compile flags: /Ogsp
; File c:\program files (x86)\microsoft visual studio 10.0\vc\include\utility
;	COMDAT ??$forward@VioHashString@@@std@@YA$$QAVioHashString@@AAV1@@Z
_TEXT	SEGMENT
__Arg$ = 8						; size = 4
??$forward@VioHashString@@@std@@YA$$QAVioHashString@@AAV1@@Z PROC ; std::forward<ioHashString>, COMDAT

; 78   : 	{	// forward _Arg, given explicitly specified type parameter

  00000	55		 push	 ebp
  00001	8b ec		 mov	 ebp, esp

; 79   : 	return ((_Ty&&)_Arg);

  00003	8b 45 08	 mov	 eax, DWORD PTR __Arg$[ebp]

; 80   : 	}

  00006	5d		 pop	 ebp
  00007	c3		 ret	 0
??$forward@VioHashString@@@std@@YA$$QAVioHashString@@AAV1@@Z ENDP ; std::forward<ioHashString>
_TEXT	ENDS
PUBLIC	??$forward@UtagDeathTimeData@CenterInfoWnd@@@std@@YA$$QAUtagDeathTimeData@CenterInfoWnd@@AAU12@@Z ; std::forward<CenterInfoWnd::tagDeathTimeData>
; Function compile flags: /Ogsp
;	COMDAT ??$forward@UtagDeathTimeData@CenterInfoWnd@@@std@@YA$$QAUtagDeathTimeData@CenterInfoWnd@@AAU12@@Z
_TEXT	SEGMENT
__Arg$ = 8						; size = 4
??$forward@UtagDeathTimeData@CenterInfoWnd@@@std@@YA$$QAUtagDeathTimeData@CenterInfoWnd@@AAU12@@Z PROC ; std::forward<CenterInfoWnd::tagDeathTimeData>, COMDAT

; 78   : 	{	// forward _Arg, given explicitly specified type parameter

  00000	55		 push	 ebp
  00001	8b ec		 mov	 ebp, esp

; 79   : 	return ((_Ty&&)_Arg);

  00003	8b 45 08	 mov	 eax, DWORD PTR __Arg$[ebp]

; 80   : 	}

  00006	5d		 pop	 ebp
  00007	c3		 ret	 0
??$forward@UtagDeathTimeData@CenterInfoWnd@@@std@@YA$$QAUtagDeathTimeData@CenterInfoWnd@@AAU12@@Z ENDP ; std::forward<CenterInfoWnd::tagDeathTimeData>
_TEXT	ENDS
PUBLIC	??$forward@UtagGangsiAlarmData@CenterInfoWnd@@@std@@YA$$QAUtagGangsiAlarmData@CenterInfoWnd@@AAU12@@Z ; std::forward<CenterInfoWnd::tagGangsiAlarmData>
; Function compile flags: /Ogsp
;	COMDAT ??$forward@UtagGangsiAlarmData@CenterInfoWnd@@@std@@YA$$QAUtagGangsiAlarmData@CenterInfoWnd@@AAU12@@Z
_TEXT	SEGMENT
__Arg$ = 8						; size = 4
??$forward@UtagGangsiAlarmData@CenterInfoWnd@@@std@@YA$$QAUtagGangsiAlarmData@CenterInfoWnd@@AAU12@@Z PROC ; std::forward<CenterInfoWnd::tagGangsiAlarmData>, COMDAT

; 78   : 	{	// forward _Arg, given explicitly specified type parameter

  00000	55		 push	 ebp
  00001	8b ec		 mov	 ebp, esp

; 79   : 	return ((_Ty&&)_Arg);

  00003	8b 45 08	 mov	 eax, DWORD PTR __Arg$[ebp]

; 80   : 	}

  00006	5d		 pop	 ebp
  00007	c3		 ret	 0
??$forward@UtagGangsiAlarmData@CenterInfoWnd@@@std@@YA$$QAUtagGangsiAlarmData@CenterInfoWnd@@AAU12@@Z ENDP ; std::forward<CenterInfoWnd::tagGangsiAlarmData>
_TEXT	ENDS
PUBLIC	??$forward@UMonsterDiceData@CenterInfoWnd@@@std@@YA$$QAUMonsterDiceData@CenterInfoWnd@@AAU12@@Z ; std::forward<CenterInfoWnd::MonsterDiceData>
; Function compile flags: /Ogsp
;	COMDAT ??$forward@UMonsterDiceData@CenterInfoWnd@@@std@@YA$$QAUMonsterDiceData@CenterInfoWnd@@AAU12@@Z
_TEXT	SEGMENT
__Arg$ = 8						; size = 4
??$forward@UMonsterDiceData@CenterInfoWnd@@@std@@YA$$QAUMonsterDiceData@CenterInfoWnd@@AAU12@@Z PROC ; std::forward<CenterInfoWnd::MonsterDiceData>, COMDAT

; 78   : 	{	// forward _Arg, given explicitly specified type parameter

  00000	55		 push	 ebp
  00001	8b ec		 mov	 ebp, esp

; 79   : 	return ((_Ty&&)_Arg);

  00003	8b 45 08	 mov	 eax, DWORD PTR __Arg$[ebp]

; 80   : 	}

  00006	5d		 pop	 ebp
  00007	c3		 ret	 0
??$forward@UMonsterDiceData@CenterInfoWnd@@@std@@YA$$QAUMonsterDiceData@CenterInfoWnd@@AAU12@@Z ENDP ; std::forward<CenterInfoWnd::MonsterDiceData>
_TEXT	ENDS
PUBLIC	?_DECSTR@@YAXPADH@Z				; _DECSTR
; Function compile flags: /Ogsp
; File d:\lost saga for developer\youtube\tutorial\source\src\lsclient\stringprotect.h
;	COMDAT ?_DECSTR@@YAXPADH@Z
_TEXT	SEGMENT
_s$ = 8							; size = 4
_l$ = 12						; size = 4
?_DECSTR@@YAXPADH@Z PROC				; _DECSTR, COMDAT

; 40   : __forceinline void _DECSTR(char* s, int l){int i=0,l4=(l-1)/4,*p=(int*)s;s[l-1]=0;for(;i<l4;++i)*(p++)^=0xEAEBECED;for(i=l4*4;i<l-1;++i)s[i]^=0xED-i%4;}

  00000	55		 push	 ebp
  00001	8b ec		 mov	 ebp, esp
  00003	8b 4d 0c	 mov	 ecx, DWORD PTR _l$[ebp]
  00006	56		 push	 esi
  00007	8b 75 08	 mov	 esi, DWORD PTR _s$[ebp]
  0000a	57		 push	 edi
  0000b	8d 79 ff	 lea	 edi, DWORD PTR [ecx-1]
  0000e	8b c7		 mov	 eax, edi
  00010	99		 cdq
  00011	83 e2 03	 and	 edx, 3
  00014	03 c2		 add	 eax, edx
  00016	c1 f8 02	 sar	 eax, 2
  00019	8b d6		 mov	 edx, esi
  0001b	c6 44 0e ff 00	 mov	 BYTE PTR [esi+ecx-1], 0
  00020	85 c0		 test	 eax, eax
  00022	7e 0e		 jle	 SHORT $LN4@DECSTR
  00024	8b c8		 mov	 ecx, eax
$LL6@DECSTR:
  00026	81 32 ed ec eb
	ea		 xor	 DWORD PTR [edx], -353637139 ; eaebecedH
  0002c	83 c2 04	 add	 edx, 4
  0002f	49		 dec	 ecx
  00030	75 f4		 jne	 SHORT $LL6@DECSTR
$LN4@DECSTR:
  00032	c1 e0 02	 shl	 eax, 2
  00035	eb 17		 jmp	 SHORT $LN14@DECSTR
$LL3@DECSTR:
  00037	8b c8		 mov	 ecx, eax
  00039	81 e1 03 00 00
	80		 and	 ecx, -2147483645	; 80000003H
  0003f	79 05		 jns	 SHORT $LN13@DECSTR
  00041	49		 dec	 ecx
  00042	83 c9 fc	 or	 ecx, -4			; fffffffcH
  00045	41		 inc	 ecx
$LN13@DECSTR:
  00046	b2 ed		 mov	 dl, -19			; ffffffedH
  00048	2a d1		 sub	 dl, cl
  0004a	30 14 30	 xor	 BYTE PTR [eax+esi], dl
  0004d	40		 inc	 eax
$LN14@DECSTR:
  0004e	3b c7		 cmp	 eax, edi
  00050	7c e5		 jl	 SHORT $LL3@DECSTR
  00052	5f		 pop	 edi
  00053	5e		 pop	 esi
  00054	5d		 pop	 ebp
  00055	c3		 ret	 0
?_DECSTR@@YAXPADH@Z ENDP				; _DECSTR
_TEXT	ENDS
PUBLIC	?GetCurState@FSMStateMgr@@QBEHXZ		; FSMStateMgr::GetCurState
; Function compile flags: /Ogsp
; File d:\lost saga for developer\youtube\tutorial\source\src\lsclient\gui\fsmstatemgr.h
;	COMDAT ?GetCurState@FSMStateMgr@@QBEHXZ
_TEXT	SEGMENT
?GetCurState@FSMStateMgr@@QBEHXZ PROC			; FSMStateMgr::GetCurState, COMDAT
; _this$ = ecx

; 52   : 	inline int GetCurState() const { return m_iCurState; }

  00000	8b 41 04	 mov	 eax, DWORD PTR [ecx+4]
  00003	c3		 ret	 0
?GetCurState@FSMStateMgr@@QBEHXZ ENDP			; FSMStateMgr::GetCurState
_TEXT	ENDS
PUBLIC	?GetCurTime@FSMStateMgr@@QBEKXZ			; FSMStateMgr::GetCurTime
; Function compile flags: /Ogsp
;	COMDAT ?GetCurTime@FSMStateMgr@@QBEKXZ
_TEXT	SEGMENT
?GetCurTime@FSMStateMgr@@QBEKXZ PROC			; FSMStateMgr::GetCurTime, COMDAT
; _this$ = ecx

; 55   : 	inline DWORD GetCurTime() const { return m_dwCurTime; }

  00000	8b 41 0c	 mov	 eax, DWORD PTR [ecx+12]
  00003	c3		 ret	 0
?GetCurTime@FSMStateMgr@@QBEKXZ ENDP			; FSMStateMgr::GetCurTime
_TEXT	ENDS
PUBLIC	?GetDelay@FSMStateMgr@@QBEHXZ			; FSMStateMgr::GetDelay
; Function compile flags: /Ogsp
;	COMDAT ?GetDelay@FSMStateMgr@@QBEHXZ
_TEXT	SEGMENT
?GetDelay@FSMStateMgr@@QBEHXZ PROC			; FSMStateMgr::GetDelay, COMDAT
; _this$ = ecx

; 61   : 	inline int GetDelay() const { return m_iCurDelay; }

  00000	8b 41 10	 mov	 eax, DWORD PTR [ecx+16]
  00003	c3		 ret	 0
?GetDelay@FSMStateMgr@@QBEHXZ ENDP			; FSMStateMgr::GetDelay
_TEXT	ENDS
PUBLIC	?GetPublicID@ioMyInfo@@QBEABVioHashString@@XZ	; ioMyInfo::GetPublicID
; Function compile flags: /Ogsp
; File d:\lost saga for developer\youtube\tutorial\source\src\lsclient\iomyinfo.h
;	COMDAT ?GetPublicID@ioMyInfo@@QBEABVioHashString@@XZ
_TEXT	SEGMENT
?GetPublicID@ioMyInfo@@QBEABVioHashString@@XZ PROC	; ioMyInfo::GetPublicID, COMDAT
; _this$ = ecx

; 517  : 	const ioHashString& GetPublicID() const { return m_user_data.m_public_id; }    

  00000	8d 41 1c	 lea	 eax, DWORD PTR [ecx+28]
  00003	c3		 ret	 0
?GetPublicID@ioMyInfo@@QBEABVioHashString@@XZ ENDP	; ioMyInfo::GetPublicID
_TEXT	ENDS
PUBLIC	?size@?$vector@VioHashString@@V?$allocator@VioHashString@@@std@@@std@@QBEIXZ ; std::vector<ioHashString,std::allocator<ioHashString> >::size
; Function compile flags: /Ogsp
; File c:\program files (x86)\microsoft visual studio 10.0\vc\include\vector
;	COMDAT ?size@?$vector@VioHashString@@V?$allocator@VioHashString@@@std@@@std@@QBEIXZ
_TEXT	SEGMENT
?size@?$vector@VioHashString@@V?$allocator@VioHashString@@@std@@@std@@QBEIXZ PROC ; std::vector<ioHashString,std::allocator<ioHashString> >::size, COMDAT
; _this$ = ecx

; 879  : 		return (this->_Mylast - this->_Myfirst);

  00000	8b 41 04	 mov	 eax, DWORD PTR [ecx+4]
  00003	2b 01		 sub	 eax, DWORD PTR [ecx]
  00005	c1 f8 04	 sar	 eax, 4

; 880  : 		}

  00008	c3		 ret	 0
?size@?$vector@VioHashString@@V?$allocator@VioHashString@@@std@@@std@@QBEIXZ ENDP ; std::vector<ioHashString,std::allocator<ioHashString> >::size
_TEXT	ENDS
PUBLIC	??1?$_Vector_val@VioHashString@@V?$allocator@VioHashString@@@std@@@std@@QAE@XZ ; std::_Vector_val<ioHashString,std::allocator<ioHashString> >::~_Vector_val<ioHashString,std::allocator<ioHashString> >
; Function compile flags: /Ogsp
;	COMDAT ??1?$_Vector_val@VioHashString@@V?$allocator@VioHashString@@@std@@@std@@QAE@XZ
_TEXT	SEGMENT
??1?$_Vector_val@VioHashString@@V?$allocator@VioHashString@@@std@@@std@@QAE@XZ PROC ; std::_Vector_val<ioHashString,std::allocator<ioHashString> >::~_Vector_val<ioHashString,std::allocator<ioHashString> >, COMDAT
; _this$ = ecx

; 434  : 		}

  00000	c3		 ret	 0
??1?$_Vector_val@VioHashString@@V?$allocator@VioHashString@@@std@@@std@@QAE@XZ ENDP ; std::_Vector_val<ioHashString,std::allocator<ioHashString> >::~_Vector_val<ioHashString,std::allocator<ioHashString> >
_TEXT	ENDS
PUBLIC	??0?$allocator@VioHashString@@@std@@QAE@XZ	; std::allocator<ioHashString>::allocator<ioHashString>
; Function compile flags: /Ogsp
; File c:\program files (x86)\microsoft visual studio 10.0\vc\include\xmemory
;	COMDAT ??0?$allocator@VioHashString@@@std@@QAE@XZ
_TEXT	SEGMENT
??0?$allocator@VioHashString@@@std@@QAE@XZ PROC		; std::allocator<ioHashString>::allocator<ioHashString>, COMDAT
; _this$ = ecx

; 161  : 	_ALLOCATOR() _THROW0()

  00000	8b c1		 mov	 eax, ecx

; 162  : 		{	// construct default allocator (do nothing)
; 163  : 		}

  00002	c3		 ret	 0
??0?$allocator@VioHashString@@@std@@QAE@XZ ENDP		; std::allocator<ioHashString>::allocator<ioHashString>
_TEXT	ENDS
PUBLIC	??0?$allocator@VioHashString@@@std@@QAE@ABV01@@Z ; std::allocator<ioHashString>::allocator<ioHashString>
; Function compile flags: /Ogsp
;	COMDAT ??0?$allocator@VioHashString@@@std@@QAE@ABV01@@Z
_TEXT	SEGMENT
___formal$ = 8						; size = 4
??0?$allocator@VioHashString@@@std@@QAE@ABV01@@Z PROC	; std::allocator<ioHashString>::allocator<ioHashString>, COMDAT
; _this$ = ecx

; 165  : 	_ALLOCATOR(const _ALLOCATOR<_Ty>&) _THROW0()

  00000	8b c1		 mov	 eax, ecx

; 166  : 		{	// construct by copying (do nothing)
; 167  : 		}

  00002	c2 04 00	 ret	 4
??0?$allocator@VioHashString@@@std@@QAE@ABV01@@Z ENDP	; std::allocator<ioHashString>::allocator<ioHashString>
_TEXT	ENDS
PUBLIC	?DecryptValueToPool@?$CEncrypt@W4ModeType@@@@QAEXPAW4ModeType@@@Z ; CEncrypt<enum ModeType>::DecryptValueToPool
EXTRN	?DecryptByte@ccddaabb@@QBEXPBDPADH@Z:PROC	; ccddaabb::DecryptByte
; Function compile flags: /Ogsp
; File d:\lost saga for developer\youtube\tutorial\source\src\lsclient\encryptvalue.h
;	COMDAT ?DecryptValueToPool@?$CEncrypt@W4ModeType@@@@QAEXPAW4ModeType@@@Z
_TEXT	SEGMENT
_value$ = 8						; size = 4
?DecryptValueToPool@?$CEncrypt@W4ModeType@@@@QAEXPAW4ModeType@@@Z PROC ; CEncrypt<enum ModeType>::DecryptValueToPool, COMDAT
; _this$ = ecx

; 3039 : 	{

  00000	55		 push	 ebp
  00001	8b ec		 mov	 ebp, esp
  00003	56		 push	 esi

; 3040 : 		m_RC5.DecryptByte( m_MemPool, m_TempMem, sizeof(ModeType) );

  00004	8d 71 28	 lea	 esi, DWORD PTR [ecx+40]
  00007	6a 04		 push	 4
  00009	8d 41 1c	 lea	 eax, DWORD PTR [ecx+28]
  0000c	56		 push	 esi
  0000d	50		 push	 eax
  0000e	83 c1 0c	 add	 ecx, 12			; 0000000cH
  00011	e8 00 00 00 00	 call	 ?DecryptByte@ccddaabb@@QBEXPBDPADH@Z ; ccddaabb::DecryptByte

; 3041 : 		*value = *((ModeType*)m_TempMem);

  00016	8b 06		 mov	 eax, DWORD PTR [esi]
  00018	8b 4d 08	 mov	 ecx, DWORD PTR _value$[ebp]
  0001b	89 01		 mov	 DWORD PTR [ecx], eax
  0001d	5e		 pop	 esi

; 3042 : 	}

  0001e	5d		 pop	 ebp
  0001f	c2 04 00	 ret	 4
?DecryptValueToPool@?$CEncrypt@W4ModeType@@@@QAEXPAW4ModeType@@@Z ENDP ; CEncrypt<enum ModeType>::DecryptValueToPool
_TEXT	ENDS
PUBLIC	?_Xlen@?$vector@VioHashString@@V?$allocator@VioHashString@@@std@@@std@@IBEXXZ ; std::vector<ioHashString,std::allocator<ioHashString> >::_Xlen
; Function compile flags: /Ogsp
; File c:\program files (x86)\microsoft visual studio 10.0\vc\include\vector
;	COMDAT ?_Xlen@?$vector@VioHashString@@V?$allocator@VioHashString@@@std@@@std@@IBEXXZ
_TEXT	SEGMENT
?_Xlen@?$vector@VioHashString@@V?$allocator@VioHashString@@@std@@@std@@IBEXXZ PROC ; std::vector<ioHashString,std::allocator<ioHashString> >::_Xlen, COMDAT
; _this$ = ecx

; 1427 : 		_Xlength_error("vector<T> too long");

  00000	68 00 00 00 00	 push	 OFFSET ??_C@_0BD@OLBABOEK@vector?$DMT?$DO?5too?5long?$AA@
  00005	ff 15 00 00 00
	00		 call	 DWORD PTR __imp_?_Xlength_error@std@@YAXPBD@Z
$LN4@Xlen@4:
$LN3@Xlen@4:
  0000b	cc		 int	 3
?_Xlen@?$vector@VioHashString@@V?$allocator@VioHashString@@@std@@@std@@IBEXXZ ENDP ; std::vector<ioHashString,std::allocator<ioHashString> >::_Xlen
_TEXT	ENDS
PUBLIC	?deallocate@?$allocator@VioHashString@@@std@@QAEXPAVioHashString@@I@Z ; std::allocator<ioHashString>::deallocate
; Function compile flags: /Ogsp
; File c:\program files (x86)\microsoft visual studio 10.0\vc\include\xmemory
;	COMDAT ?deallocate@?$allocator@VioHashString@@@std@@QAEXPAVioHashString@@I@Z
_TEXT	SEGMENT
__Ptr$ = 8						; size = 4
___formal$ = 12						; size = 4
?deallocate@?$allocator@VioHashString@@@std@@QAEXPAVioHashString@@I@Z PROC ; std::allocator<ioHashString>::deallocate, COMDAT
; _this$ = ecx

; 181  : 		{	// deallocate object at _Ptr, ignore size

  00000	55		 push	 ebp
  00001	8b ec		 mov	 ebp, esp

; 182  : 		::operator delete(_Ptr);

  00003	ff 75 08	 push	 DWORD PTR __Ptr$[ebp]
  00006	e8 00 00 00 00	 call	 ??3@YAXPAX@Z		; operator delete
  0000b	59		 pop	 ecx

; 183  : 		}

  0000c	5d		 pop	 ebp
  0000d	c2 08 00	 ret	 8
?deallocate@?$allocator@VioHashString@@@std@@QAEXPAVioHashString@@I@Z ENDP ; std::allocator<ioHashString>::deallocate
_TEXT	ENDS
PUBLIC	??0?$_Vector_const_iterator@V?$_Vector_val@VioHashString@@V?$allocator@VioHashString@@@std@@@std@@@std@@QAE@PAVioHashString@@PBU_Container_base0@1@@Z ; std::_Vector_const_iterator<std::_Vector_val<ioHashString,std::allocator<ioHashString> > >::_Vector_const_iterator<std::_Vector_val<ioHashString,std::allocator<ioHashString> > >
; Function compile flags: /Ogsp
; File c:\program files (x86)\microsoft visual studio 10.0\vc\include\vector
;	COMDAT ??0?$_Vector_const_iterator@V?$_Vector_val@VioHashString@@V?$allocator@VioHashString@@@std@@@std@@@std@@QAE@PAVioHashString@@PBU_Container_base0@1@@Z
_TEXT	SEGMENT
__Parg$ = 8						; size = 4
__Pvector$ = 12						; size = 4
??0?$_Vector_const_iterator@V?$_Vector_val@VioHashString@@V?$allocator@VioHashString@@@std@@@std@@@std@@QAE@PAVioHashString@@PBU_Container_base0@1@@Z PROC ; std::_Vector_const_iterator<std::_Vector_val<ioHashString,std::allocator<ioHashString> > >::_Vector_const_iterator<std::_Vector_val<ioHashString,std::allocator<ioHashString> > >, COMDAT
; _this$ = ecx

; 45   : 		{	// construct with pointer _Parg

  00000	55		 push	 ebp
  00001	8b ec		 mov	 ebp, esp
  00003	8b c1		 mov	 eax, ecx
  00005	8b 4d 08	 mov	 ecx, DWORD PTR __Parg$[ebp]
  00008	89 08		 mov	 DWORD PTR [eax], ecx

; 46   : 		this->_Adopt(_Pvector);
; 47   : 		}

  0000a	5d		 pop	 ebp
  0000b	c2 08 00	 ret	 8
??0?$_Vector_const_iterator@V?$_Vector_val@VioHashString@@V?$allocator@VioHashString@@@std@@@std@@@std@@QAE@PAVioHashString@@PBU_Container_base0@1@@Z ENDP ; std::_Vector_const_iterator<std::_Vector_val<ioHashString,std::allocator<ioHashString> > >::_Vector_const_iterator<std::_Vector_val<ioHashString,std::allocator<ioHashString> > >
_TEXT	ENDS
PUBLIC	??0?$_Vector_iterator@V?$_Vector_val@VioHashString@@V?$allocator@VioHashString@@@std@@@std@@@std@@QAE@PAVioHashString@@PBU_Container_base0@1@@Z ; std::_Vector_iterator<std::_Vector_val<ioHashString,std::allocator<ioHashString> > >::_Vector_iterator<std::_Vector_val<ioHashString,std::allocator<ioHashString> > >
; Function compile flags: /Ogsp
;	COMDAT ??0?$_Vector_iterator@V?$_Vector_val@VioHashString@@V?$allocator@VioHashString@@@std@@@std@@@std@@QAE@PAVioHashString@@PBU_Container_base0@1@@Z
_TEXT	SEGMENT
__Parg$ = 8						; size = 4
__Pvector$ = 12						; size = 4
??0?$_Vector_iterator@V?$_Vector_val@VioHashString@@V?$allocator@VioHashString@@@std@@@std@@@std@@QAE@PAVioHashString@@PBU_Container_base0@1@@Z PROC ; std::_Vector_iterator<std::_Vector_val<ioHashString,std::allocator<ioHashString> > >::_Vector_iterator<std::_Vector_val<ioHashString,std::allocator<ioHashString> > >, COMDAT
; _this$ = ecx

; 304  : 		{	// construct with pointer _Parg

  00000	55		 push	 ebp
  00001	8b ec		 mov	 ebp, esp
  00003	8b c1		 mov	 eax, ecx
  00005	8b 4d 08	 mov	 ecx, DWORD PTR __Parg$[ebp]
  00008	89 08		 mov	 DWORD PTR [eax], ecx

; 305  : 		}

  0000a	5d		 pop	 ebp
  0000b	c2 08 00	 ret	 8
??0?$_Vector_iterator@V?$_Vector_val@VioHashString@@V?$allocator@VioHashString@@@std@@@std@@@std@@QAE@PAVioHashString@@PBU_Container_base0@1@@Z ENDP ; std::_Vector_iterator<std::_Vector_val<ioHashString,std::allocator<ioHashString> > >::_Vector_iterator<std::_Vector_val<ioHashString,std::allocator<ioHashString> > >
_TEXT	ENDS
PUBLIC	?max_size@?$allocator@VioHashString@@@std@@QBEIXZ ; std::allocator<ioHashString>::max_size
; Function compile flags: /Ogsp
; File c:\program files (x86)\microsoft visual studio 10.0\vc\include\xmemory
;	COMDAT ?max_size@?$allocator@VioHashString@@@std@@QBEIXZ
_TEXT	SEGMENT
?max_size@?$allocator@VioHashString@@@std@@QBEIXZ PROC	; std::allocator<ioHashString>::max_size, COMDAT
; _this$ = ecx

; 218  : 		_SIZT _Count = (_SIZT)(-1) / sizeof (_Ty);
; 219  : 		return (0 < _Count ? _Count : 1);

  00000	b8 ff ff ff 0f	 mov	 eax, 268435455		; 0fffffffH

; 220  : 		}

  00005	c3		 ret	 0
?max_size@?$allocator@VioHashString@@@std@@QBEIXZ ENDP	; std::allocator<ioHashString>::max_size
_TEXT	ENDS
PUBLIC	?_Compat@?$_Vector_const_iterator@V?$_Vector_val@VioHashString@@V?$allocator@VioHashString@@@std@@@std@@@std@@QBEXABV12@@Z ; std::_Vector_const_iterator<std::_Vector_val<ioHashString,std::allocator<ioHashString> > >::_Compat
; Function compile flags: /Ogsp
; File c:\program files (x86)\microsoft visual studio 10.0\vc\include\vector
;	COMDAT ?_Compat@?$_Vector_const_iterator@V?$_Vector_val@VioHashString@@V?$allocator@VioHashString@@@std@@@std@@@std@@QBEXABV12@@Z
_TEXT	SEGMENT
___formal$ = 8						; size = 4
?_Compat@?$_Vector_const_iterator@V?$_Vector_val@VioHashString@@V?$allocator@VioHashString@@@std@@@std@@@std@@QBEXABV12@@Z PROC ; std::_Vector_const_iterator<std::_Vector_val<ioHashString,std::allocator<ioHashString> > >::_Compat, COMDAT
; _this$ = ecx

; 253  : 		}

  00000	c2 04 00	 ret	 4
?_Compat@?$_Vector_const_iterator@V?$_Vector_val@VioHashString@@V?$allocator@VioHashString@@@std@@@std@@@std@@QBEXABV12@@Z ENDP ; std::_Vector_const_iterator<std::_Vector_val<ioHashString,std::allocator<ioHashString> > >::_Compat
_TEXT	ENDS
PUBLIC	??$_Allocate@VioHashString@@@std@@YAPAVioHashString@@IPAV1@@Z ; std::_Allocate<ioHashString>
; Function compile flags: /Ogsp
; File c:\program files (x86)\microsoft visual studio 10.0\vc\include\xmemory
;	COMDAT ??$_Allocate@VioHashString@@@std@@YAPAVioHashString@@IPAV1@@Z
_TEXT	SEGMENT
$T515122 = -12						; size = 12
$T515126 = 8						; size = 4
__Count$ = 8						; size = 4
___formal$ = 12						; size = 4
??$_Allocate@VioHashString@@@std@@YAPAVioHashString@@IPAV1@@Z PROC ; std::_Allocate<ioHashString>, COMDAT

; 30   : 	{	// allocate storage for _Count elements of type _Ty

  00000	55		 push	 ebp
  00001	8b ec		 mov	 ebp, esp

; 31   : 	void *_Ptr = 0;
; 32   : 
; 33   : 	if (_Count <= 0)

  00003	8b 4d 08	 mov	 ecx, DWORD PTR __Count$[ebp]
  00006	83 ec 0c	 sub	 esp, 12			; 0000000cH
  00009	33 c0		 xor	 eax, eax
  0000b	85 c9		 test	 ecx, ecx

; 34   : 		_Count = 0;
; 35   : 	else if (((_SIZT)(-1) / sizeof (_Ty) < _Count)

  0000d	74 3c		 je	 SHORT $LN5@Allocate@4

; 36   : 		|| (_Ptr = ::operator new(_Count * sizeof (_Ty))) == 0)

  0000f	81 f9 ff ff ff
	0f		 cmp	 ecx, 268435455		; 0fffffffH
  00015	77 0e		 ja	 SHORT $LN1@Allocate@4
  00017	c1 e1 04	 shl	 ecx, 4
  0001a	51		 push	 ecx
  0001b	e8 00 00 00 00	 call	 ??2@YAPAXI@Z		; operator new
  00020	59		 pop	 ecx
  00021	85 c0		 test	 eax, eax

; 38   : 
; 39   : 	return ((_Ty _FARQ *)_Ptr);

  00023	75 26		 jne	 SHORT $LN5@Allocate@4
$LN1@Allocate@4:

; 37   : 		_THROW_NCEE(bad_alloc, 0);

  00025	83 65 08 00	 and	 DWORD PTR $T515126[ebp], 0
  00029	8d 45 08	 lea	 eax, DWORD PTR $T515126[ebp]
  0002c	50		 push	 eax
  0002d	8d 4d f4	 lea	 ecx, DWORD PTR $T515122[ebp]
  00030	ff 15 00 00 00
	00		 call	 DWORD PTR __imp_??0exception@std@@QAE@ABQBD@Z
  00036	68 00 00 00 00	 push	 OFFSET __TI2?AVbad_alloc@std@@
  0003b	8d 45 f4	 lea	 eax, DWORD PTR $T515122[ebp]
  0003e	50		 push	 eax
  0003f	c7 45 f4 00 00
	00 00		 mov	 DWORD PTR $T515122[ebp], OFFSET ??_7bad_alloc@std@@6B@
  00046	e8 00 00 00 00	 call	 __CxxThrowException@8
$LN10@Allocate@4:
$LN5@Allocate@4:

; 40   : 	}

  0004b	c9		 leave
  0004c	c3		 ret	 0
$LN9@Allocate@4:
??$_Allocate@VioHashString@@@std@@YAPAVioHashString@@IPAV1@@Z ENDP ; std::_Allocate<ioHashString>
_TEXT	ENDS
EXTRN	__imp_??0exception@std@@QAE@ABV01@@Z:PROC
; Function compile flags: /Ogsp
;	COMDAT ??0bad_alloc@std@@QAE@ABV01@@Z
_TEXT	SEGMENT
___that$ = 8						; size = 4
??0bad_alloc@std@@QAE@ABV01@@Z PROC			; std::bad_alloc::bad_alloc, COMDAT
; _this$ = ecx
  00000	55		 push	 ebp
  00001	8b ec		 mov	 ebp, esp
  00003	56		 push	 esi
  00004	ff 75 08	 push	 DWORD PTR ___that$[ebp]
  00007	8b f1		 mov	 esi, ecx
  00009	ff 15 00 00 00
	00		 call	 DWORD PTR __imp_??0exception@std@@QAE@ABV01@@Z
  0000f	c7 06 00 00 00
	00		 mov	 DWORD PTR [esi], OFFSET ??_7bad_alloc@std@@6B@
  00015	8b c6		 mov	 eax, esi
  00017	5e		 pop	 esi
  00018	5d		 pop	 ebp
  00019	c2 04 00	 ret	 4
??0bad_alloc@std@@QAE@ABV01@@Z ENDP			; std::bad_alloc::bad_alloc
_TEXT	ENDS
PUBLIC	??$forward@ABVioHashString@@@std@@YAABVioHashString@@ABV1@@Z ; std::forward<ioHashString const &>
; Function compile flags: /Ogsp
; File c:\program files (x86)\microsoft visual studio 10.0\vc\include\utility
;	COMDAT ??$forward@ABVioHashString@@@std@@YAABVioHashString@@ABV1@@Z
_TEXT	SEGMENT
__Arg$ = 8						; size = 4
??$forward@ABVioHashString@@@std@@YAABVioHashString@@ABV1@@Z PROC ; std::forward<ioHashString const &>, COMDAT

; 78   : 	{	// forward _Arg, given explicitly specified type parameter

  00000	55		 push	 ebp
  00001	8b ec		 mov	 ebp, esp

; 79   : 	return ((_Ty&&)_Arg);

  00003	8b 45 08	 mov	 eax, DWORD PTR __Arg$[ebp]

; 80   : 	}

  00006	5d		 pop	 ebp
  00007	c3		 ret	 0
??$forward@ABVioHashString@@@std@@YAABVioHashString@@ABV1@@Z ENDP ; std::forward<ioHashString const &>
_TEXT	ENDS
PUBLIC	??$forward@AAVioHashString@@@std@@YAAAVioHashString@@AAV1@@Z ; std::forward<ioHashString &>
; Function compile flags: /Ogsp
;	COMDAT ??$forward@AAVioHashString@@@std@@YAAAVioHashString@@AAV1@@Z
_TEXT	SEGMENT
__Arg$ = 8						; size = 4
??$forward@AAVioHashString@@@std@@YAAAVioHashString@@AAV1@@Z PROC ; std::forward<ioHashString &>, COMDAT

; 78   : 	{	// forward _Arg, given explicitly specified type parameter

  00000	55		 push	 ebp
  00001	8b ec		 mov	 ebp, esp

; 79   : 	return ((_Ty&&)_Arg);

  00003	8b 45 08	 mov	 eax, DWORD PTR __Arg$[ebp]

; 80   : 	}

  00006	5d		 pop	 ebp
  00007	c3		 ret	 0
??$forward@AAVioHashString@@@std@@YAAAVioHashString@@AAV1@@Z ENDP ; std::forward<ioHashString &>
_TEXT	ENDS
PUBLIC	??$_Ptr_cat@VioHashString@@V1@@std@@YA?AU_Nonscalar_ptr_iterator_tag@0@PAVioHashString@@0@Z ; std::_Ptr_cat<ioHashString,ioHashString>
; Function compile flags: /Ogsp
; File c:\program files (x86)\microsoft visual studio 10.0\vc\include\xutility
;	COMDAT ??$_Ptr_cat@VioHashString@@V1@@std@@YA?AU_Nonscalar_ptr_iterator_tag@0@PAVioHashString@@0@Z
_TEXT	SEGMENT
__Cat$ = -1						; size = 1
___formal$ = 8						; size = 4
___formal$ = 12						; size = 4
??$_Ptr_cat@VioHashString@@V1@@std@@YA?AU_Nonscalar_ptr_iterator_tag@0@PAVioHashString@@0@Z PROC ; std::_Ptr_cat<ioHashString,ioHashString>, COMDAT

; 516  : 	{	// return pointer category from pointers

  00000	55		 push	 ebp
  00001	8b ec		 mov	 ebp, esp
  00003	51		 push	 ecx

; 517  : 	typename _Ptr_cat_helper<_Elem1, _Elem2>::_Type _Cat;
; 518  : 	return (_Cat);

  00004	8a 45 ff	 mov	 al, BYTE PTR __Cat$[ebp]

; 519  : 	}

  00007	c9		 leave
  00008	c3		 ret	 0
??$_Ptr_cat@VioHashString@@V1@@std@@YA?AU_Nonscalar_ptr_iterator_tag@0@PAVioHashString@@0@Z ENDP ; std::_Ptr_cat<ioHashString,ioHashString>
_TEXT	ENDS
PUBLIC	??$_Ptr_cat@V?$_Vector_const_iterator@V?$_Vector_val@VioHashString@@V?$allocator@VioHashString@@@std@@@std@@@std@@PAVioHashString@@@std@@YA?AU_Nonscalar_ptr_iterator_tag@0@AAV?$_Vector_const_iterator@V?$_Vector_val@VioHashString@@V?$allocator@VioHashString@@@std@@@std@@@0@AAPAVioHashString@@@Z ; std::_Ptr_cat<std::_Vector_const_iterator<std::_Vector_val<ioHashString,std::allocator<ioHashString> > >,ioHashString *>
; Function compile flags: /Ogsp
;	COMDAT ??$_Ptr_cat@V?$_Vector_const_iterator@V?$_Vector_val@VioHashString@@V?$allocator@VioHashString@@@std@@@std@@@std@@PAVioHashString@@@std@@YA?AU_Nonscalar_ptr_iterator_tag@0@AAV?$_Vector_const_iterator@V?$_Vector_val@VioHashString@@V?$allocator@VioHashString@@@std@@@std@@@0@AAPAVioHashString@@@Z
_TEXT	SEGMENT
__Cat$ = -1						; size = 1
___formal$ = 8						; size = 4
___formal$ = 12						; size = 4
??$_Ptr_cat@V?$_Vector_const_iterator@V?$_Vector_val@VioHashString@@V?$allocator@VioHashString@@@std@@@std@@@std@@PAVioHashString@@@std@@YA?AU_Nonscalar_ptr_iterator_tag@0@AAV?$_Vector_const_iterator@V?$_Vector_val@VioHashString@@V?$allocator@VioHashString@@@std@@@std@@@0@AAPAVioHashString@@@Z PROC ; std::_Ptr_cat<std::_Vector_const_iterator<std::_Vector_val<ioHashString,std::allocator<ioHashString> > >,ioHashString *>, COMDAT

; 485  : 	{	// return pointer category from arbitrary arguments

  00000	55		 push	 ebp
  00001	8b ec		 mov	 ebp, esp
  00003	51		 push	 ecx

; 486  : 	_Nonscalar_ptr_iterator_tag _Cat;
; 487  : 	return (_Cat);

  00004	8a 45 ff	 mov	 al, BYTE PTR __Cat$[ebp]

; 488  : 	}

  00007	c9		 leave
  00008	c3		 ret	 0
??$_Ptr_cat@V?$_Vector_const_iterator@V?$_Vector_val@VioHashString@@V?$allocator@VioHashString@@@std@@@std@@@std@@PAVioHashString@@@std@@YA?AU_Nonscalar_ptr_iterator_tag@0@AAV?$_Vector_const_iterator@V?$_Vector_val@VioHashString@@V?$allocator@VioHashString@@@std@@@std@@@0@AAPAVioHashString@@@Z ENDP ; std::_Ptr_cat<std::_Vector_const_iterator<std::_Vector_val<ioHashString,std::allocator<ioHashString> > >,ioHashString *>
_TEXT	ENDS
PUBLIC	??$move@AAVioHashString@@@std@@YA$$QAVioHashString@@AAV1@@Z ; std::move<ioHashString &>
; Function compile flags: /Ogsp
; File c:\program files (x86)\microsoft visual studio 10.0\vc\include\utility
;	COMDAT ??$move@AAVioHashString@@@std@@YA$$QAVioHashString@@AAV1@@Z
_TEXT	SEGMENT
__Arg$ = 8						; size = 4
??$move@AAVioHashString@@@std@@YA$$QAVioHashString@@AAV1@@Z PROC ; std::move<ioHashString &>, COMDAT

; 86   : 	{	// forward _Arg as movable

  00000	55		 push	 ebp
  00001	8b ec		 mov	 ebp, esp

; 87   : 	return ((typename tr1::_Remove_reference<_Ty>::_Type&&)_Arg);

  00003	8b 45 08	 mov	 eax, DWORD PTR __Arg$[ebp]

; 88   : 	}

  00006	5d		 pop	 ebp
  00007	c3		 ret	 0
??$move@AAVioHashString@@@std@@YA$$QAVioHashString@@AAV1@@Z ENDP ; std::move<ioHashString &>
_TEXT	ENDS
PUBLIC	??D?$_Vector_const_iterator@V?$_Vector_val@VioHashString@@V?$allocator@VioHashString@@@std@@@std@@@std@@QBEABVioHashString@@XZ ; std::_Vector_const_iterator<std::_Vector_val<ioHashString,std::allocator<ioHashString> > >::operator*
; Function compile flags: /Ogsp
; File c:\program files (x86)\microsoft visual studio 10.0\vc\include\vector
;	COMDAT ??D?$_Vector_const_iterator@V?$_Vector_val@VioHashString@@V?$allocator@VioHashString@@@std@@@std@@@std@@QBEABVioHashString@@XZ
_TEXT	SEGMENT
??D?$_Vector_const_iterator@V?$_Vector_val@VioHashString@@V?$allocator@VioHashString@@@std@@@std@@@std@@QBEABVioHashString@@XZ PROC ; std::_Vector_const_iterator<std::_Vector_val<ioHashString,std::allocator<ioHashString> > >::operator*, COMDAT
; _this$ = ecx

; 64   :  #if _ITERATOR_DEBUG_LEVEL == 2
; 65   : 		if (this->_Getcont() == 0
; 66   : 			|| this->_Ptr == 0
; 67   : 			|| this->_Ptr < ((_Myvec *)this->_Getcont())->_Myfirst
; 68   : 			|| ((_Myvec *)this->_Getcont())->_Mylast <= this->_Ptr)
; 69   : 			{	// report error
; 70   : 			_DEBUG_ERROR("vector iterator not dereferencable");
; 71   : 			_SCL_SECURE_OUT_OF_RANGE;
; 72   : 			}
; 73   : 
; 74   :  #elif _ITERATOR_DEBUG_LEVEL == 1
; 75   : 		_SCL_SECURE_VALIDATE(this->_Getcont() != 0);
; 76   : 		_SCL_SECURE_VALIDATE_RANGE(
; 77   : 			this->_Ptr != 0
; 78   : 			&& ((_Myvec *)this->_Getcont())->_Myfirst <= this->_Ptr
; 79   : 			&& this->_Ptr < ((_Myvec *)this->_Getcont())->_Mylast);
; 80   :  #endif /* _ITERATOR_DEBUG_LEVEL */
; 81   : 
; 82   : 		__analysis_assume(this->_Ptr != 0);
; 83   : 
; 84   : 		return (*this->_Ptr);

  00000	8b 01		 mov	 eax, DWORD PTR [ecx]

; 85   : 		}

  00002	c3		 ret	 0
??D?$_Vector_const_iterator@V?$_Vector_val@VioHashString@@V?$allocator@VioHashString@@@std@@@std@@@std@@QBEABVioHashString@@XZ ENDP ; std::_Vector_const_iterator<std::_Vector_val<ioHashString,std::allocator<ioHashString> > >::operator*
_TEXT	ENDS
PUBLIC	??E?$_Vector_const_iterator@V?$_Vector_val@VioHashString@@V?$allocator@VioHashString@@@std@@@std@@@std@@QAEAAV01@XZ ; std::_Vector_const_iterator<std::_Vector_val<ioHashString,std::allocator<ioHashString> > >::operator++
; Function compile flags: /Ogsp
;	COMDAT ??E?$_Vector_const_iterator@V?$_Vector_val@VioHashString@@V?$allocator@VioHashString@@@std@@@std@@@std@@QAEAAV01@XZ
_TEXT	SEGMENT
??E?$_Vector_const_iterator@V?$_Vector_val@VioHashString@@V?$allocator@VioHashString@@@std@@@std@@@std@@QAEAAV01@XZ PROC ; std::_Vector_const_iterator<std::_Vector_val<ioHashString,std::allocator<ioHashString> > >::operator++, COMDAT
; _this$ = ecx

; 93   : 		{	// preincrement

  00000	8b c1		 mov	 eax, ecx

; 94   :  #if _ITERATOR_DEBUG_LEVEL == 2
; 95   : 		if (this->_Getcont() == 0
; 96   : 			|| this->_Ptr == 0
; 97   : 			|| ((_Myvec *)this->_Getcont())->_Mylast <= this->_Ptr)
; 98   : 			{	// report error
; 99   : 			_DEBUG_ERROR("vector iterator not incrementable");
; 100  : 			_SCL_SECURE_OUT_OF_RANGE;
; 101  : 			}
; 102  : 
; 103  :  #elif _ITERATOR_DEBUG_LEVEL == 1
; 104  : 		_SCL_SECURE_VALIDATE(this->_Getcont() != 0);
; 105  : 		_SCL_SECURE_VALIDATE_RANGE(
; 106  : 			this->_Ptr != 0
; 107  : 			&& this->_Ptr < ((_Myvec *)this->_Getcont())->_Mylast);
; 108  :  #endif /* _ITERATOR_DEBUG_LEVEL */
; 109  : 
; 110  : 		++this->_Ptr;

  00002	83 00 10	 add	 DWORD PTR [eax], 16	; 00000010H

; 111  : 		return (*this);
; 112  : 		}

  00005	c3		 ret	 0
??E?$_Vector_const_iterator@V?$_Vector_val@VioHashString@@V?$allocator@VioHashString@@@std@@@std@@@std@@QAEAAV01@XZ ENDP ; std::_Vector_const_iterator<std::_Vector_val<ioHashString,std::allocator<ioHashString> > >::operator++
_TEXT	ENDS
PUBLIC	??_GioHashString@@QAEPAXI@Z			; ioHashString::`scalar deleting destructor'
EXTRN	__imp_??1ioHashString@@QAE@XZ:PROC
; Function compile flags: /Ogsp
;	COMDAT ??_GioHashString@@QAEPAXI@Z
_TEXT	SEGMENT
___flags$ = 8						; size = 4
??_GioHashString@@QAEPAXI@Z PROC			; ioHashString::`scalar deleting destructor', COMDAT
; _this$ = ecx
  00000	55		 push	 ebp
  00001	8b ec		 mov	 ebp, esp
  00003	56		 push	 esi
  00004	8b f1		 mov	 esi, ecx
  00006	ff 15 00 00 00
	00		 call	 DWORD PTR __imp_??1ioHashString@@QAE@XZ
  0000c	f6 45 08 01	 test	 BYTE PTR ___flags$[ebp], 1
  00010	74 07		 je	 SHORT $LN1@scalar@2
  00012	56		 push	 esi
  00013	e8 00 00 00 00	 call	 ??3@YAXPAX@Z		; operator delete
  00018	59		 pop	 ecx
$LN1@scalar@2:
  00019	8b c6		 mov	 eax, esi
  0001b	5e		 pop	 esi
  0001c	5d		 pop	 ebp
  0001d	c2 04 00	 ret	 4
??_GioHashString@@QAEPAXI@Z ENDP			; ioHashString::`scalar deleting destructor'
_TEXT	ENDS
PUBLIC	??$_Construct@VioHashString@@ABV1@@std@@YAXPAVioHashString@@ABV1@@Z ; std::_Construct<ioHashString,ioHashString const &>
EXTRN	__imp_??0ioHashString@@QAE@ABV0@@Z:PROC
;	COMDAT xdata$x
; File c:\program files (x86)\microsoft visual studio 10.0\vc\include\utility
xdata$x	SEGMENT
__unwindtable$??$_Construct@VioHashString@@ABV1@@std@@YAXPAVioHashString@@ABV1@@Z DD 0ffffffffH
	DD	FLAT:__unwindfunclet$??$_Construct@VioHashString@@ABV1@@std@@YAXPAVioHashString@@ABV1@@Z$0
__ehfuncinfo$??$_Construct@VioHashString@@ABV1@@std@@YAXPAVioHashString@@ABV1@@Z DD 019930522H
	DD	01H
	DD	FLAT:__unwindtable$??$_Construct@VioHashString@@ABV1@@std@@YAXPAVioHashString@@ABV1@@Z
	DD	2 DUP(00H)
	DD	2 DUP(00H)
	DD	00H
	DD	01H
; Function compile flags: /Ogsp
; File c:\program files (x86)\microsoft visual studio 10.0\vc\include\xmemory
xdata$x	ENDS
;	COMDAT ??$_Construct@VioHashString@@ABV1@@std@@YAXPAVioHashString@@ABV1@@Z
_TEXT	SEGMENT
$T515153 = -16						; size = 4
__$EHRec$ = -12						; size = 12
__Vptr$ = 8						; size = 4
__Ptr$ = 8						; size = 4
__Val$ = 12						; size = 4
??$_Construct@VioHashString@@ABV1@@std@@YAXPAVioHashString@@ABV1@@Z PROC ; std::_Construct<ioHashString,ioHashString const &>, COMDAT

; 46   : 	{	// construct object at _Ptr with value _Val

  00000	6a 04		 push	 4
  00002	b8 00 00 00 00	 mov	 eax, __ehhandler$??$_Construct@VioHashString@@ABV1@@std@@YAXPAVioHashString@@ABV1@@Z
  00007	e8 00 00 00 00	 call	 __EH_prolog3

; 47   : 	void _FARQ *_Vptr = _Ptr;

  0000c	8b 4d 08	 mov	 ecx, DWORD PTR __Ptr$[ebp]
  0000f	89 4d 08	 mov	 DWORD PTR __Vptr$[ebp], ecx

; 48   : 	::new (_Vptr) _Ty1(_STD forward<_Ty2>(_Val));

  00012	89 4d f0	 mov	 DWORD PTR $T515153[ebp], ecx
  00015	83 65 fc 00	 and	 DWORD PTR __$EHRec$[ebp+8], 0
  00019	85 c9		 test	 ecx, ecx
  0001b	74 09		 je	 SHORT $LN3@Construct@3
  0001d	ff 75 0c	 push	 DWORD PTR __Val$[ebp]
  00020	ff 15 00 00 00
	00		 call	 DWORD PTR __imp_??0ioHashString@@QAE@ABV0@@Z
$LN3@Construct@3:

; 49   : 	}

  00026	e8 00 00 00 00	 call	 __EH_epilog3
  0002b	c3		 ret	 0
_TEXT	ENDS
;	COMDAT text$x
text$x	SEGMENT
__unwindfunclet$??$_Construct@VioHashString@@ABV1@@std@@YAXPAVioHashString@@ABV1@@Z$0:
  00000	ff 75 08	 push	 DWORD PTR __Vptr$[ebp]
  00003	ff 75 f0	 push	 DWORD PTR $T515153[ebp]
  00006	e8 00 00 00 00	 call	 ??3@YAXPAX0@Z		; operator delete
  0000b	59		 pop	 ecx
  0000c	59		 pop	 ecx
  0000d	c3		 ret	 0
__ehhandler$??$_Construct@VioHashString@@ABV1@@std@@YAXPAVioHashString@@ABV1@@Z:
  0000e	8b 54 24 08	 mov	 edx, DWORD PTR [esp+8]
  00012	8d 42 0c	 lea	 eax, DWORD PTR [edx+12]
  00015	8b 4a ec	 mov	 ecx, DWORD PTR [edx-20]
  00018	33 c8		 xor	 ecx, eax
  0001a	e8 00 00 00 00	 call	 @__security_check_cookie@4
  0001f	b8 00 00 00 00	 mov	 eax, OFFSET __ehfuncinfo$??$_Construct@VioHashString@@ABV1@@std@@YAXPAVioHashString@@ABV1@@Z
  00024	e9 00 00 00 00	 jmp	 ___CxxFrameHandler3
text$x	ENDS
??$_Construct@VioHashString@@ABV1@@std@@YAXPAVioHashString@@ABV1@@Z ENDP ; std::_Construct<ioHashString,ioHashString const &>
PUBLIC	?iwm_hide@CenterInfoWnd@@UAEXXZ			; CenterInfoWnd::iwm_hide
; Function compile flags: /Ogsp
; File d:\lost saga for developer\youtube\tutorial\source\src\lsclient\gui\centerinfownd.cpp
;	COMDAT ?iwm_hide@CenterInfoWnd@@UAEXXZ
_TEXT	SEGMENT
?iwm_hide@CenterInfoWnd@@UAEXXZ PROC			; CenterInfoWnd::iwm_hide, COMDAT
; _this$ = ecx

; 646  : 	BossRaidSound( false );

  00000	6a 00		 push	 0
  00002	e8 00 00 00 00	 call	 ?BossRaidSound@CenterInfoWnd@@IAEX_N@Z ; CenterInfoWnd::BossRaidSound

; 647  : }

  00007	c3		 ret	 0
?iwm_hide@CenterInfoWnd@@UAEXXZ ENDP			; CenterInfoWnd::iwm_hide
_TEXT	ENDS
PUBLIC	__real@406fe00000000000
PUBLIC	__real@c041800000000000
PUBLIC	__real@c020000000000000
PUBLIC	__real@0000000000000000
PUBLIC	__real@4074a00000000000
PUBLIC	?ProcessHiddenCrown@CenterInfoWnd@@IAEXXZ	; CenterInfoWnd::ProcessHiddenCrown
EXTRN	?UpdateTime@FSMStateMgr@@QAEXXZ:PROC		; FSMStateMgr::UpdateTime
EXTRN	__ftol2_sse:PROC
;	COMDAT __real@406fe00000000000
; File d:\lost saga for developer\youtube\tutorial\source\src\lsclient\gui\fsmstatemgr.h
CONST	SEGMENT
__real@406fe00000000000 DQ 0406fe00000000000r	; 255
CONST	ENDS
;	COMDAT __real@c041800000000000
CONST	SEGMENT
__real@c041800000000000 DQ 0c041800000000000r	; -35
CONST	ENDS
;	COMDAT __real@c020000000000000
CONST	SEGMENT
__real@c020000000000000 DQ 0c020000000000000r	; -8
CONST	ENDS
;	COMDAT __real@0000000000000000
CONST	SEGMENT
__real@0000000000000000 DQ 00000000000000000r	; 0
CONST	ENDS
;	COMDAT __real@4074a00000000000
CONST	SEGMENT
__real@4074a00000000000 DQ 04074a00000000000r	; 330
; Function compile flags: /Ogsp
; File d:\lost saga for developer\youtube\tutorial\source\src\lsclient\gui\centerinfownd.cpp
CONST	ENDS
;	COMDAT ?ProcessHiddenCrown@CenterInfoWnd@@IAEXXZ
_TEXT	SEGMENT
tv318 = -16						; size = 8
tv618 = -8						; size = 4
tv615 = -8						; size = 4
tv607 = -8						; size = 4
tv600 = -8						; size = 4
tv590 = -8						; size = 4
tv585 = -8						; size = 4
tv573 = -8						; size = 4
tv565 = -8						; size = 4
tv561 = -8						; size = 4
tv557 = -8						; size = 4
tv549 = -8						; size = 4
tv538 = -8						; size = 4
tv534 = -8						; size = 4
tv530 = -8						; size = 4
tv526 = -8						; size = 4
tv523 = -8						; size = 4
tv519 = -8						; size = 4
tv514 = -8						; size = 4
tv510 = -8						; size = 4
tv504 = -8						; size = 4
tv492 = -8						; size = 4
tv488 = -8						; size = 4
tv484 = -8						; size = 4
tv460 = -8						; size = 4
tv457 = -8						; size = 4
tv453 = -8						; size = 4
tv448 = -8						; size = 4
tv445 = -8						; size = 4
tv439 = -8						; size = 4
tv424 = -8						; size = 4
tv420 = -8						; size = 4
tv416 = -8						; size = 4
tv411 = -8						; size = 4
tv408 = -8						; size = 4
tv403 = -8						; size = 4
tv398 = -8						; size = 4
tv395 = -8						; size = 4
tv73 = -8						; size = 4
_iEffectLoopTime$507978 = -4				; size = 4
_fRate$507951 = -4					; size = 4
?ProcessHiddenCrown@CenterInfoWnd@@IAEXXZ PROC		; CenterInfoWnd::ProcessHiddenCrown, COMDAT
; _this$ = ecx

; 1169 : {

  00000	55		 push	 ebp
  00001	8b ec		 mov	 ebp, esp
  00003	83 ec 10	 sub	 esp, 16			; 00000010H
  00006	53		 push	 ebx
  00007	56		 push	 esi
  00008	8b f1		 mov	 esi, ecx

; 1170 : 	if( m_HiddenCrownAni.GetCurState() == HCA_NONE )

  0000a	33 db		 xor	 ebx, ebx
  0000c	57		 push	 edi
  0000d	39 9e 80 03 00
	00		 cmp	 DWORD PTR [esi+896], ebx
  00013	0f 84 c8 03 00
	00		 je	 $LN9@ProcessHid

; 1171 : 		return;
; 1172 : 
; 1173 : 	m_HiddenCrownAni.UpdateTime();

  00019	8d 8e 7c 03 00
	00		 lea	 ecx, DWORD PTR [esi+892]
  0001f	e8 00 00 00 00	 call	 ?UpdateTime@FSMStateMgr@@QAEXXZ ; FSMStateMgr::UpdateTime

; 1174 : 	switch( m_HiddenCrownAni.GetCurState() )

  00024	8b be 80 03 00
	00		 mov	 edi, DWORD PTR [esi+896]
  0002a	4f		 dec	 edi
  0002b	4f		 dec	 edi
  0002c	0f 84 df 02 00
	00		 je	 $LN8@ProcessHid
  00032	4f		 dec	 edi
  00033	0f 84 23 02 00
	00		 je	 $LN7@ProcessHid
  00039	4f		 dec	 edi
  0003a	0f 84 7e 01 00
	00		 je	 $LN6@ProcessHid
  00040	4f		 dec	 edi
  00041	0f 85 9a 03 00
	00		 jne	 $LN9@ProcessHid

; 1203 : 	case HCA_LOOP:
; 1204 : 		{
; 1205 : 			m_iAddYPos = 0;			

  00047	89 9e 14 06 00
	00		 mov	 DWORD PTR [esi+1556], ebx

; 1206 : 			m_iWhiteColor = 0;

  0004d	89 9e 0c 06 00
	00		 mov	 DWORD PTR [esi+1548], ebx

; 1207 : 			int iAlphaDelay, iAlphaRateTime, iEffectDelay, iEffectLoopTime;
; 1208 : 			iAlphaDelay = iAlphaRateTime = iEffectDelay = iEffectLoopTime = 1;
; 1209 : 			DWORD dwGapTime = FRAMEGETTIME() - m_dwCrownHoldTime;

  00053	ff 15 00 00 00
	00		 call	 DWORD PTR __imp_?GetSingleton@ioFrameTimer@@SAAAV1@XZ
  00059	8b c8		 mov	 ecx, eax
  0005b	ff 15 00 00 00
	00		 call	 DWORD PTR __imp_?GetLoopSec@ioFrameTimer@@QBEKXZ
  00061	2b 86 b0 03 00
	00		 sub	 eax, DWORD PTR [esi+944]

; 1210 : 			if( dwGapTime > ( (float)m_dwGivePointTime * m_fScoreWarningRate ) )

  00067	89 45 f8	 mov	 DWORD PTR tv618[ebp], eax
  0006a	db 45 f8	 fild	 DWORD PTR tv618[ebp]
  0006d	79 06		 jns	 SHORT $LN81@ProcessHid
  0006f	d8 05 00 00 00
	00		 fadd	 DWORD PTR __real@4f800000
$LN81@ProcessHid:
  00075	8b 86 ac 03 00
	00		 mov	 eax, DWORD PTR [esi+940]
  0007b	db 86 ac 03 00
	00		 fild	 DWORD PTR [esi+940]
  00081	85 c0		 test	 eax, eax
  00083	79 06		 jns	 SHORT $LN82@ProcessHid
  00085	d8 05 00 00 00
	00		 fadd	 DWORD PTR __real@4f800000
$LN82@ProcessHid:
  0008b	d8 8e b4 03 00
	00		 fmul	 DWORD PTR [esi+948]
  00091	d9 c9		 fxch	 ST(1)
  00093	df f1		 fcomip	 ST(1)
  00095	dd d8		 fstp	 ST(0)
  00097	76 17		 jbe	 SHORT $LN4@ProcessHid

; 1211 : 			{
; 1212 : 				// 70%  - 0.5 330 90% - > 0  + 1  100ms x 10
; 1213 : 				iAlphaDelay = 500;

  00099	bf f4 01 00 00	 mov	 edi, 500		; 000001f4H

; 1214 : 				iAlphaRateTime = 330;
; 1215 : 				iEffectDelay = 1000;

  0009e	bb e8 03 00 00	 mov	 ebx, 1000		; 000003e8H

; 1216 : 				iEffectLoopTime = FLOAT100;

  000a3	b8 64 00 00 00	 mov	 eax, 100		; 00000064H
  000a8	89 45 f8	 mov	 DWORD PTR tv607[ebp], eax
  000ab	db 45 f8	 fild	 DWORD PTR tv607[ebp]

; 1217 : 			}
; 1218 : 			else

  000ae	eb 14		 jmp	 SHORT $LN107@ProcessHid
$LN4@ProcessHid:

; 1219 : 			{				
; 1220 : 				// 70%   - 2 330 90% - > 0  + 2  100ms x 10
; 1221 : 				iAlphaDelay = 2000;

  000b0	b8 d0 07 00 00	 mov	 eax, 2000		; 000007d0H
  000b5	8b f8		 mov	 edi, eax

; 1222 : 				iAlphaRateTime = 330;
; 1223 : 				iEffectDelay = 2000;

  000b7	8b d8		 mov	 ebx, eax

; 1224 : 				iEffectLoopTime = FLOAT100;				

  000b9	b8 64 00 00 00	 mov	 eax, 100		; 00000064H
  000be	89 45 f8	 mov	 DWORD PTR tv600[ebp], eax
  000c1	db 45 f8	 fild	 DWORD PTR tv600[ebp]
$LN107@ProcessHid:
  000c4	85 c0		 test	 eax, eax
  000c6	79 06		 jns	 SHORT $LN84@ProcessHid
  000c8	d8 05 00 00 00
	00		 fadd	 DWORD PTR __real@4f800000
$LN84@ProcessHid:
  000ce	e8 00 00 00 00	 call	 __ftol2_sse
  000d3	89 45 fc	 mov	 DWORD PTR _iEffectLoopTime$507978[ebp], eax

; 1225 : 			}
; 1226 : 
; 1227 : 			dwGapTime = m_HiddenCrownAni.GetCurTime() % iAlphaDelay;

  000d6	8b 86 88 03 00
	00		 mov	 eax, DWORD PTR [esi+904]
  000dc	33 d2		 xor	 edx, edx
  000de	f7 f7		 div	 edi

; 1228 : 			if( dwGapTime < (DWORD)iAlphaRateTime )

  000e0	81 fa 4a 01 00
	00		 cmp	 edx, 330		; 0000014aH
  000e6	0f 83 9a 00 00
	00		 jae	 $LN2@ProcessHid

; 1229 : 			{
; 1230 : 				m_fAlphaRate = FLOAT09 * max( 0.0f, ( FLOAT1 - (float)dwGapTime / iAlphaRateTime ) );

  000ec	b8 01 00 00 00	 mov	 eax, 1
  000f1	89 55 f8	 mov	 DWORD PTR tv590[ebp], edx
  000f4	db 45 f8	 fild	 DWORD PTR tv590[ebp]
  000f7	85 d2		 test	 edx, edx
  000f9	79 06		 jns	 SHORT $LN85@ProcessHid
  000fb	d8 05 00 00 00
	00		 fadd	 DWORD PTR __real@4f800000
$LN85@ProcessHid:
  00101	dc 35 00 00 00
	00		 fdiv	 QWORD PTR __real@4074a00000000000
  00107	89 45 f8	 mov	 DWORD PTR tv585[ebp], eax
  0010a	db 45 f8	 fild	 DWORD PTR tv585[ebp]
  0010d	85 c0		 test	 eax, eax
  0010f	79 06		 jns	 SHORT $LN86@ProcessHid
  00111	d8 05 00 00 00
	00		 fadd	 DWORD PTR __real@4f800000
$LN86@ProcessHid:
  00117	d8 e1		 fsub	 ST(0), ST(1)
  00119	d9 ee		 fldz
  0011b	df f1		 fcomip	 ST(1)
  0011d	dd d8		 fstp	 ST(0)
  0011f	76 0c		 jbe	 SHORT $LN14@ProcessHid
  00121	0f 57 c0	 xorps	 xmm0, xmm0
  00124	dd d8		 fstp	 ST(0)
  00126	f2 0f 11 45 f0	 movsd	 QWORD PTR tv318[ebp], xmm0
  0012b	eb 1a		 jmp	 SHORT $LN15@ProcessHid
$LN14@ProcessHid:
  0012d	b8 01 00 00 00	 mov	 eax, 1
  00132	89 45 f8	 mov	 DWORD PTR tv573[ebp], eax
  00135	db 45 f8	 fild	 DWORD PTR tv573[ebp]
  00138	85 c0		 test	 eax, eax
  0013a	79 06		 jns	 SHORT $LN87@ProcessHid
  0013c	d8 05 00 00 00
	00		 fadd	 DWORD PTR __real@4f800000
$LN87@ProcessHid:
  00142	de e1		 fsubrp	 ST(1), ST(0)
  00144	dd 5d f0	 fstp	 QWORD PTR tv318[ebp]
$LN15@ProcessHid:
  00147	b8 09 00 00 00	 mov	 eax, 9
  0014c	8b c8		 mov	 ecx, eax
  0014e	b8 0a 00 00 00	 mov	 eax, 10			; 0000000aH
  00153	89 4d f8	 mov	 DWORD PTR tv565[ebp], ecx
  00156	db 45 f8	 fild	 DWORD PTR tv565[ebp]
  00159	85 c9		 test	 ecx, ecx
  0015b	79 06		 jns	 SHORT $LN88@ProcessHid
  0015d	d8 05 00 00 00
	00		 fadd	 DWORD PTR __real@4f800000
$LN88@ProcessHid:
  00163	89 45 f8	 mov	 DWORD PTR tv561[ebp], eax
  00166	db 45 f8	 fild	 DWORD PTR tv561[ebp]
  00169	85 c0		 test	 eax, eax
  0016b	79 06		 jns	 SHORT $LN89@ProcessHid
  0016d	d8 05 00 00 00
	00		 fadd	 DWORD PTR __real@4f800000
$LN89@ProcessHid:
  00173	de f9		 fdivp	 ST(1), ST(0)
  00175	d9 5d f8	 fstp	 DWORD PTR tv557[ebp]
  00178	d9 45 f8	 fld	 DWORD PTR tv557[ebp]
  0017b	dc 4d f0	 fmul	 QWORD PTR tv318[ebp]
  0017e	d9 9e 08 06 00
	00		 fstp	 DWORD PTR [esi+1544]

; 1231 : 			}
; 1232 : 			else

  00184	eb 0b		 jmp	 SHORT $LN1@ProcessHid
$LN2@ProcessHid:

; 1233 : 			{
; 1234 : 				m_fAlphaRate = 0.0f;

  00186	0f 57 c0	 xorps	 xmm0, xmm0
  00189	f3 0f 11 86 08
	06 00 00	 movss	 DWORD PTR [esi+1544], xmm0
$LN1@ProcessHid:

; 1235 : 			}
; 1236 : 	
; 1237 : 			dwGapTime = m_HiddenCrownAni.GetCurTime() % iEffectDelay;

  00191	8b 86 88 03 00
	00		 mov	 eax, DWORD PTR [esi+904]
  00197	33 d2		 xor	 edx, edx
  00199	f7 f3		 div	 ebx

; 1238 : 			m_iEffectArray = (float)dwGapTime / iEffectLoopTime;

  0019b	89 55 f8	 mov	 DWORD PTR tv549[ebp], edx
  0019e	db 45 f8	 fild	 DWORD PTR tv549[ebp]
  001a1	85 d2		 test	 edx, edx
  001a3	79 06		 jns	 SHORT $LN90@ProcessHid
  001a5	d8 05 00 00 00
	00		 fadd	 DWORD PTR __real@4f800000
$LN90@ProcessHid:
  001ab	da 75 fc	 fidiv	 DWORD PTR _iEffectLoopTime$507978[ebp]
  001ae	e8 00 00 00 00	 call	 __ftol2_sse
  001b3	89 86 18 06 00
	00		 mov	 DWORD PTR [esi+1560], eax

; 1239 : 		}
; 1240 : 		break;

  001b9	e9 23 02 00 00	 jmp	 $LN9@ProcessHid
$LN6@ProcessHid:

; 1194 : 	case HCA_SUP2:
; 1195 : 		{
; 1196 : 			// /2 FLOAT05 
; 1197 : 			float fRate = cosf( ( FLOAT_PI * FLOAT05 ) * (float)( m_HiddenCrownAni.GetCurTime() ) / m_HiddenCrownAni.GetDelay() );

  001be	b8 4e e6 40 bb	 mov	 eax, -1153374642	; bb40e64eH
  001c3	8b c8		 mov	 ecx, eax
  001c5	b8 00 ca 9a 3b	 mov	 eax, 1000000000		; 3b9aca00H
  001ca	8b d0		 mov	 edx, eax
  001cc	b8 05 00 00 00	 mov	 eax, 5
  001d1	8b f8		 mov	 edi, eax
  001d3	b8 0a 00 00 00	 mov	 eax, 10			; 0000000aH

; 1198 : 
; 1199 : 			m_iAddYPos = -8.0f * fRate;

  001d8	89 7d f8	 mov	 DWORD PTR tv538[ebp], edi
  001db	db 45 f8	 fild	 DWORD PTR tv538[ebp]
  001de	85 ff		 test	 edi, edi
  001e0	79 06		 jns	 SHORT $LN91@ProcessHid
  001e2	d8 05 00 00 00
	00		 fadd	 DWORD PTR __real@4f800000
$LN91@ProcessHid:
  001e8	89 45 f8	 mov	 DWORD PTR tv534[ebp], eax
  001eb	db 45 f8	 fild	 DWORD PTR tv534[ebp]
  001ee	85 c0		 test	 eax, eax
  001f0	79 06		 jns	 SHORT $LN92@ProcessHid
  001f2	d8 05 00 00 00
	00		 fadd	 DWORD PTR __real@4f800000
$LN92@ProcessHid:

; 1194 : 	case HCA_SUP2:
; 1195 : 		{
; 1196 : 			// /2 FLOAT05 
; 1197 : 			float fRate = cosf( ( FLOAT_PI * FLOAT05 ) * (float)( m_HiddenCrownAni.GetCurTime() ) / m_HiddenCrownAni.GetDelay() );

