; Listing generated by Microsoft (R) Optimizing Compiler Version 16.00.30319.01 

	TITLE	D:\Lost Saga For Developer\Youtube\Tutorial\Source\src\LSClient\GUI\ChangeNameWnd.cpp
	.686P
	.XMM
	include listing.inc
	.model	flat

INCLUDELIB MSVCRT
INCLUDELIB OLDNAMES

PUBLIC	?return1@@YAIXZ					; return1
; Function compile flags: /Ogsp
; File d:\lost saga for developer\youtube\tutorial\source\src\lsclient\stdafx.h
;	COMDAT ?return1@@YAIXZ
_TEXT	SEGMENT
?return1@@YAIXZ PROC					; return1, COMDAT

; 17   : 	__forceinline unsigned int return1() { __asm mov eax, 1 };

  00000	b8 01 00 00 00	 mov	 eax, 1
  00005	c3		 ret	 0
?return1@@YAIXZ ENDP					; return1
_TEXT	ENDS
PUBLIC	??_7ChangeNameWnd@@6B@				; ChangeNameWnd::`vftable'
PUBLIC	??0ChangeNameWnd@@QAE@XZ			; ChangeNameWnd::ChangeNameWnd
PUBLIC	??_R4ChangeNameWnd@@6B@				; ChangeNameWnd::`RTTI Complete Object Locator'
PUBLIC	??_R0?AVChangeNameWnd@@@8			; ChangeNameWnd `RTTI Type Descriptor'
PUBLIC	??_R3ChangeNameWnd@@8				; ChangeNameWnd::`RTTI Class Hierarchy Descriptor'
PUBLIC	??_R2ChangeNameWnd@@8				; ChangeNameWnd::`RTTI Base Class Array'
PUBLIC	??_R1A@?0A@EA@ChangeNameWnd@@8			; ChangeNameWnd::`RTTI Base Class Descriptor at (0,-1,0,64)'
PUBLIC	??_R1A@?0A@EA@ioWnd@@8				; ioWnd::`RTTI Base Class Descriptor at (0,-1,0,64)'
PUBLIC	??_R0?AVioWnd@@@8				; ioWnd `RTTI Type Descriptor'
PUBLIC	??_R3ioWnd@@8					; ioWnd::`RTTI Class Hierarchy Descriptor'
PUBLIC	??_R2ioWnd@@8					; ioWnd::`RTTI Base Class Array'
PUBLIC	?AddRenderFrame@ChangeNameWnd@@UAEXABVioHashString@@PAVioUIRenderFrame@@@Z ; ChangeNameWnd::AddRenderFrame
PUBLIC	?OnRender@ChangeNameWnd@@MAEXXZ			; ChangeNameWnd::OnRender
PUBLIC	?iwm_command@ChangeNameWnd@@UAEXPAVioWnd@@HK@Z	; ChangeNameWnd::iwm_command
PUBLIC	?iwm_hide@ChangeNameWnd@@UAEXXZ			; ChangeNameWnd::iwm_hide
EXTRN	__imp_??1ioHashString@@QAE@XZ:PROC
EXTRN	??_M@YGXPAXIHP6EX0@Z@Z:PROC			; `eh vector destructor iterator'
EXTRN	__imp_??1ioWnd@@UAE@XZ:PROC
EXTRN	__imp_??0ioHashString@@QAE@XZ:PROC
EXTRN	??_L@YGXPAXIHP6EX0@Z1@Z:PROC			; `eh vector constructor iterator'
EXTRN	??0ioComplexStringPrinter@@QAE@XZ:PROC		; ioComplexStringPrinter::ioComplexStringPrinter
EXTRN	??1ioComplexStringPrinter@@QAE@XZ:PROC		; ioComplexStringPrinter::~ioComplexStringPrinter
EXTRN	__imp_??0ioWnd@@QAE@XZ:PROC
EXTRN	___CxxFrameHandler3:PROC
EXTRN	@__security_check_cookie@4:PROC
EXTRN	__EH_epilog3:PROC
EXTRN	__EH_prolog3:PROC
EXTRN	??_7type_info@@6B@:QWORD			; type_info::`vftable'
EXTRN	?AddRenderImage@ioWnd@@UAEXABVioHashString@@PAVioUIRenderImage@@@Z:PROC ; ioWnd::AddRenderImage
EXTRN	?AddTooltipHelp@ioWnd@@UAEXABVioHashString@@00@Z:PROC ; ioWnd::AddTooltipHelp
EXTRN	?ParseExtraInfo@ioWnd@@UAEXAAVioXMLElement@@@Z:PROC ; ioWnd::ParseExtraInfo
EXTRN	?AddNamedRenderImage@ioWnd@@UAEXABVioHashString@@PAVioUIRenderImage@@@Z:PROC ; ioWnd::AddNamedRenderImage
EXTRN	?RemoveNamedRenderImage@ioWnd@@UAEXABVioHashString@@@Z:PROC ; ioWnd::RemoveNamedRenderImage
EXTRN	?GetNamedRenderImage@ioWnd@@UBEPAVioUIRenderImage@@ABVioHashString@@@Z:PROC ; ioWnd::GetNamedRenderImage
EXTRN	?SetWindowAlpha@ioWnd@@UAEXH@Z:PROC		; ioWnd::SetWindowAlpha
EXTRN	?SetActive@ioWnd@@UAEXXZ:PROC			; ioWnd::SetActive
EXTRN	?SetInActive@ioWnd@@UAEXXZ:PROC			; ioWnd::SetInActive
EXTRN	?ClearElementImageList@ioWnd@@UAEXXZ:PROC	; ioWnd::ClearElementImageList
EXTRN	?SetSize@ioWnd@@UAEXHH@Z:PROC			; ioWnd::SetSize
EXTRN	?SetPositionToDefault@ioWnd@@UAEXHH_N0@Z:PROC	; ioWnd::SetPositionToDefault
EXTRN	?IsNeedProcess@ioWnd@@UBE_NXZ:PROC		; ioWnd::IsNeedProcess
EXTRN	?IsCanMouseReaction@ioWnd@@UBE_NXZ:PROC		; ioWnd::IsCanMouseReaction
EXTRN	?AddChild@ioWnd@@UAEXPAV1@@Z:PROC		; ioWnd::AddChild
EXTRN	?DeleteChild@ioWnd@@UAEXK@Z:PROC		; ioWnd::DeleteChild
EXTRN	?DeleteAllChild@ioWnd@@UAEXXZ:PROC		; ioWnd::DeleteAllChild
EXTRN	?OnRenderShowAndHide@ioWnd@@MAE_NXZ:PROC	; ioWnd::OnRenderShowAndHide
EXTRN	?OnRenderShowAndHideByDefault@ioWnd@@MAE_NK@Z:PROC ; ioWnd::OnRenderShowAndHideByDefault
EXTRN	?OnRenderShowAndHideByTop@ioWnd@@MAE_NK@Z:PROC	; ioWnd::OnRenderShowAndHideByTop
EXTRN	?OnRenderShowAndHideByDown@ioWnd@@MAE_NK@Z:PROC	; ioWnd::OnRenderShowAndHideByDown
EXTRN	?OnRenderAfterChild@ioWnd@@MAEXXZ:PROC		; ioWnd::OnRenderAfterChild
EXTRN	?OnProcess@ioWnd@@MAEXM@Z:PROC			; ioWnd::OnProcess
EXTRN	?OnMouseProcess@ioWnd@@MAEXABVioMouse@@@Z:PROC	; ioWnd::OnMouseProcess
EXTRN	?CheckFrameReSize@ioWnd@@MAEXHHHH@Z:PROC	; ioWnd::CheckFrameReSize
EXTRN	?RenderImageList@ioWnd@@MAEXHHW4UIRenderType@@@Z:PROC ; ioWnd::RenderImageList
EXTRN	?iwm_create@ioWnd@@UAEXXZ:PROC			; ioWnd::iwm_create
EXTRN	?iwm_destroy@ioWnd@@UAEXXZ:PROC			; ioWnd::iwm_destroy
EXTRN	?iwm_lbuttondown@ioWnd@@UAEXABVioMouse@@@Z:PROC	; ioWnd::iwm_lbuttondown
EXTRN	?iwm_lbuttonup@ioWnd@@UAEXABVioMouse@@@Z:PROC	; ioWnd::iwm_lbuttonup
EXTRN	?iwm_lbuttonDBLCLK@ioWnd@@UAEXABVioMouse@@@Z:PROC ; ioWnd::iwm_lbuttonDBLCLK
EXTRN	?iwm_rbuttondown@ioWnd@@UAEXABVioMouse@@@Z:PROC	; ioWnd::iwm_rbuttondown
EXTRN	?iwm_rbuttonup@ioWnd@@UAEXABVioMouse@@@Z:PROC	; ioWnd::iwm_rbuttonup
EXTRN	?iwm_mouseover@ioWnd@@UAEXABVioMouse@@@Z:PROC	; ioWnd::iwm_mouseover
EXTRN	?iwm_mousemove@ioWnd@@UAEXABVioMouse@@@Z:PROC	; ioWnd::iwm_mousemove
EXTRN	?iwm_mouseleave@ioWnd@@UAEXABVioMouse@@@Z:PROC	; ioWnd::iwm_mouseleave
EXTRN	?iwm_vscroll@ioWnd@@UAEXKH@Z:PROC		; ioWnd::iwm_vscroll
EXTRN	?iwm_wheel@ioWnd@@UAEXH@Z:PROC			; ioWnd::iwm_wheel
EXTRN	?iwm_show@ioWnd@@UAEXXZ:PROC			; ioWnd::iwm_show
EXTRN	?iwm_esc@ioWnd@@UAE_NXZ:PROC			; ioWnd::iwm_esc
EXTRN	?iwm_spacebar@ioWnd@@UAE_NXZ:PROC		; ioWnd::iwm_spacebar
EXTRN	?iwm_gototop@ioWnd@@UAEXXZ:PROC			; ioWnd::iwm_gototop
EXTRN	?iwm_dragenter@ioWnd@@UAE?AW4IWDropEffect@@PAVioDragItem@@ABVioMouse@@@Z:PROC ; ioWnd::iwm_dragenter
EXTRN	?iwm_dragover@ioWnd@@UAE?AW4IWDropEffect@@PAVioDragItem@@ABVioMouse@@@Z:PROC ; ioWnd::iwm_dragover
EXTRN	?iwm_dragleave@ioWnd@@UAEXXZ:PROC		; ioWnd::iwm_dragleave
EXTRN	?iwm_dropitem@ioWnd@@UAE_NPAVioDragItem@@ABVioMouse@@PAV1@@Z:PROC ; ioWnd::iwm_dropitem
EXTRN	?iwm_dropdone@ioWnd@@UAEXPAVioDragItem@@PAV1@_N@Z:PROC ; ioWnd::iwm_dropdone
EXTRN	?IsEXType@ioWnd@@UBE_NXZ:PROC			; ioWnd::IsEXType
EXTRN	?GetWndType@ioWnd@@UBEKXZ:PROC			; ioWnd::GetWndType
EXTRN	?RenderWnd@ioWnd@@UAEXXZ:PROC			; ioWnd::RenderWnd
EXTRN	?SetIDEX@ioWnd@@UAEXAAK_N@Z:PROC		; ioWnd::SetIDEX
EXTRN	?ParseXML@ioWnd@@UAEXAAVioXMLElement@@@Z:PROC	; ioWnd::ParseXML
EXTRN	?GetHeaderFileName@ioWnd@@UAEPBDXZ:PROC		; ioWnd::GetHeaderFileName
EXTRN	?GetTemplateName@ioWnd@@UAEPBDXZ:PROC		; ioWnd::GetTemplateName
EXTRN	?GetDefClassName@ioWnd@@UBEPBDXZ:PROC		; ioWnd::GetDefClassName
EXTRN	?_Clone@ioWnd@@UAEPAV1@XZ:PROC			; ioWnd::_Clone
EXTRN	?Copy@ioWnd@@UAEXPAV1@@Z:PROC			; ioWnd::Copy
EXTRN	?Save@ioWnd@@UAE_NAAVioXMLElement@@@Z:PROC	; ioWnd::Save
EXTRN	?SetSaveData@ioWnd@@UAEXAAVioXMLElement@@@Z:PROC ; ioWnd::SetSaveData
EXTRN	?SetPosX@ioWnd@@UAEXH@Z:PROC			; ioWnd::SetPosX
EXTRN	?SetPosY@ioWnd@@UAEXH@Z:PROC			; ioWnd::SetPosY
EXTRN	?SetWidth@ioWnd@@UAEXH@Z:PROC			; ioWnd::SetWidth
EXTRN	?SetHeight@ioWnd@@UAEXH@Z:PROC			; ioWnd::SetHeight
EXTRN	?GetNumFixedRenderFrame@ioWnd@@UBEHXZ:PROC	; ioWnd::GetNumFixedRenderFrame
EXTRN	?GetFixedRenderFrameType@ioWnd@@UAEPBDH@Z:PROC	; ioWnd::GetFixedRenderFrameType
EXTRN	?GetRenderFrame@ioWnd@@UAEPAPAVioUIRenderElement@@PBD@Z:PROC ; ioWnd::GetRenderFrame
EXTRN	?GetNumFixedRenderImage@ioWnd@@UBEHXZ:PROC	; ioWnd::GetNumFixedRenderImage
EXTRN	?GetFixedRenderImageType@ioWnd@@UAEPBDH@Z:PROC	; ioWnd::GetFixedRenderImageType
EXTRN	?GetRenderImage@ioWnd@@UAEPAPAVioUIRenderElement@@PBD@Z:PROC ; ioWnd::GetRenderImage
EXTRN	?AddEffect@ioWnd@@UAEXABVioHashString@@PAVioUI3DEffectRender@@@Z:PROC ; ioWnd::AddEffect
EXTRN	?GetEffect@ioWnd@@UAEPAVioUI3DEffectRender@@VioHashString@@@Z:PROC ; ioWnd::GetEffect
EXTRN	??_EChangeNameWnd@@UAEPAXI@Z:PROC		; ChangeNameWnd::`vector deleting destructor'
;	COMDAT ??_R2ioWnd@@8
; File d:\lost saga for developer\youtube\tutorial\source\src\lsclient\gui\changenamewnd.cpp
rdata$r	SEGMENT
??_R2ioWnd@@8 DD FLAT:??_R1A@?0A@EA@ioWnd@@8		; ioWnd::`RTTI Base Class Array'
rdata$r	ENDS
;	COMDAT ??_R3ioWnd@@8
rdata$r	SEGMENT
??_R3ioWnd@@8 DD 00H					; ioWnd::`RTTI Class Hierarchy Descriptor'
	DD	00H
	DD	01H
	DD	FLAT:??_R2ioWnd@@8
rdata$r	ENDS
;	COMDAT ??_R0?AVioWnd@@@8
_DATA	SEGMENT
??_R0?AVioWnd@@@8 DD FLAT:??_7type_info@@6B@		; ioWnd `RTTI Type Descriptor'
	DD	00H
	DB	'.?AVioWnd@@', 00H
_DATA	ENDS
;	COMDAT ??_R1A@?0A@EA@ioWnd@@8
rdata$r	SEGMENT
??_R1A@?0A@EA@ioWnd@@8 DD FLAT:??_R0?AVioWnd@@@8	; ioWnd::`RTTI Base Class Descriptor at (0,-1,0,64)'
	DD	00H
	DD	00H
	DD	0ffffffffH
	DD	00H
	DD	040H
	DD	FLAT:??_R3ioWnd@@8
rdata$r	ENDS
;	COMDAT ??_R1A@?0A@EA@ChangeNameWnd@@8
rdata$r	SEGMENT
??_R1A@?0A@EA@ChangeNameWnd@@8 DD FLAT:??_R0?AVChangeNameWnd@@@8 ; ChangeNameWnd::`RTTI Base Class Descriptor at (0,-1,0,64)'
	DD	01H
	DD	00H
	DD	0ffffffffH
	DD	00H
	DD	040H
	DD	FLAT:??_R3ChangeNameWnd@@8
rdata$r	ENDS
;	COMDAT ??_R2ChangeNameWnd@@8
rdata$r	SEGMENT
??_R2ChangeNameWnd@@8 DD FLAT:??_R1A@?0A@EA@ChangeNameWnd@@8 ; ChangeNameWnd::`RTTI Base Class Array'
	DD	FLAT:??_R1A@?0A@EA@ioWnd@@8
rdata$r	ENDS
;	COMDAT ??_R3ChangeNameWnd@@8
rdata$r	SEGMENT
??_R3ChangeNameWnd@@8 DD 00H				; ChangeNameWnd::`RTTI Class Hierarchy Descriptor'
	DD	00H
	DD	02H
	DD	FLAT:??_R2ChangeNameWnd@@8
rdata$r	ENDS
;	COMDAT ??_R0?AVChangeNameWnd@@@8
_DATA	SEGMENT
??_R0?AVChangeNameWnd@@@8 DD FLAT:??_7type_info@@6B@	; ChangeNameWnd `RTTI Type Descriptor'
	DD	00H
	DB	'.?AVChangeNameWnd@@', 00H
_DATA	ENDS
;	COMDAT ??_R4ChangeNameWnd@@6B@
rdata$r	SEGMENT
??_R4ChangeNameWnd@@6B@ DD 00H				; ChangeNameWnd::`RTTI Complete Object Locator'
	DD	00H
	DD	00H
	DD	FLAT:??_R0?AVChangeNameWnd@@@8
	DD	FLAT:??_R3ChangeNameWnd@@8
rdata$r	ENDS
;	COMDAT ??_7ChangeNameWnd@@6B@
CONST	SEGMENT
??_7ChangeNameWnd@@6B@ DD FLAT:??_R4ChangeNameWnd@@6B@	; ChangeNameWnd::`vftable'
	DD	FLAT:?AddRenderFrame@ChangeNameWnd@@UAEXABVioHashString@@PAVioUIRenderFrame@@@Z
	DD	FLAT:?AddRenderImage@ioWnd@@UAEXABVioHashString@@PAVioUIRenderImage@@@Z
	DD	FLAT:?AddTooltipHelp@ioWnd@@UAEXABVioHashString@@00@Z
	DD	FLAT:?ParseExtraInfo@ioWnd@@UAEXAAVioXMLElement@@@Z
	DD	FLAT:?AddNamedRenderImage@ioWnd@@UAEXABVioHashString@@PAVioUIRenderImage@@@Z
	DD	FLAT:?RemoveNamedRenderImage@ioWnd@@UAEXABVioHashString@@@Z
	DD	FLAT:?GetNamedRenderImage@ioWnd@@UBEPAVioUIRenderImage@@ABVioHashString@@@Z
	DD	FLAT:?SetWindowAlpha@ioWnd@@UAEXH@Z
	DD	FLAT:?SetActive@ioWnd@@UAEXXZ
	DD	FLAT:?SetInActive@ioWnd@@UAEXXZ
	DD	FLAT:?ClearElementImageList@ioWnd@@UAEXXZ
	DD	FLAT:?SetSize@ioWnd@@UAEXHH@Z
	DD	FLAT:?SetPositionToDefault@ioWnd@@UAEXHH_N0@Z
	DD	FLAT:?IsNeedProcess@ioWnd@@UBE_NXZ
	DD	FLAT:?IsCanMouseReaction@ioWnd@@UBE_NXZ
	DD	FLAT:?AddChild@ioWnd@@UAEXPAV1@@Z
	DD	FLAT:?DeleteChild@ioWnd@@UAEXK@Z
	DD	FLAT:?DeleteAllChild@ioWnd@@UAEXXZ
	DD	FLAT:?OnRenderShowAndHide@ioWnd@@MAE_NXZ
	DD	FLAT:?OnRenderShowAndHideByDefault@ioWnd@@MAE_NK@Z
	DD	FLAT:?OnRenderShowAndHideByTop@ioWnd@@MAE_NK@Z
	DD	FLAT:?OnRenderShowAndHideByDown@ioWnd@@MAE_NK@Z
	DD	FLAT:?OnRender@ChangeNameWnd@@MAEXXZ
	DD	FLAT:?OnRenderAfterChild@ioWnd@@MAEXXZ
	DD	FLAT:?OnProcess@ioWnd@@MAEXM@Z
	DD	FLAT:?OnMouseProcess@ioWnd@@MAEXABVioMouse@@@Z
	DD	FLAT:?CheckFrameReSize@ioWnd@@MAEXHHHH@Z
	DD	FLAT:?RenderImageList@ioWnd@@MAEXHHW4UIRenderType@@@Z
	DD	FLAT:?iwm_create@ioWnd@@UAEXXZ
	DD	FLAT:?iwm_destroy@ioWnd@@UAEXXZ
	DD	FLAT:?iwm_lbuttondown@ioWnd@@UAEXABVioMouse@@@Z
	DD	FLAT:?iwm_lbuttonup@ioWnd@@UAEXABVioMouse@@@Z
	DD	FLAT:?iwm_lbuttonDBLCLK@ioWnd@@UAEXABVioMouse@@@Z
	DD	FLAT:?iwm_rbuttondown@ioWnd@@UAEXABVioMouse@@@Z
	DD	FLAT:?iwm_rbuttonup@ioWnd@@UAEXABVioMouse@@@Z
	DD	FLAT:?iwm_command@ChangeNameWnd@@UAEXPAVioWnd@@HK@Z
	DD	FLAT:?iwm_mouseover@ioWnd@@UAEXABVioMouse@@@Z
	DD	FLAT:?iwm_mousemove@ioWnd@@UAEXABVioMouse@@@Z
	DD	FLAT:?iwm_mouseleave@ioWnd@@UAEXABVioMouse@@@Z
	DD	FLAT:?iwm_vscroll@ioWnd@@UAEXKH@Z
	DD	FLAT:?iwm_wheel@ioWnd@@UAEXH@Z
	DD	FLAT:?iwm_show@ioWnd@@UAEXXZ
	DD	FLAT:?iwm_hide@ChangeNameWnd@@UAEXXZ
	DD	FLAT:?iwm_esc@ioWnd@@UAE_NXZ
	DD	FLAT:?iwm_spacebar@ioWnd@@UAE_NXZ
	DD	FLAT:?iwm_gototop@ioWnd@@UAEXXZ
	DD	FLAT:?iwm_dragenter@ioWnd@@UAE?AW4IWDropEffect@@PAVioDragItem@@ABVioMouse@@@Z
	DD	FLAT:?iwm_dragover@ioWnd@@UAE?AW4IWDropEffect@@PAVioDragItem@@ABVioMouse@@@Z
	DD	FLAT:?iwm_dragleave@ioWnd@@UAEXXZ
	DD	FLAT:?iwm_dropitem@ioWnd@@UAE_NPAVioDragItem@@ABVioMouse@@PAV1@@Z
	DD	FLAT:?iwm_dropdone@ioWnd@@UAEXPAVioDragItem@@PAV1@_N@Z
	DD	FLAT:?IsEXType@ioWnd@@UBE_NXZ
	DD	FLAT:?GetWndType@ioWnd@@UBEKXZ
	DD	FLAT:?RenderWnd@ioWnd@@UAEXXZ
	DD	FLAT:?SetIDEX@ioWnd@@UAEXAAK_N@Z
	DD	FLAT:?ParseXML@ioWnd@@UAEXAAVioXMLElement@@@Z
	DD	FLAT:?GetHeaderFileName@ioWnd@@UAEPBDXZ
	DD	FLAT:?GetTemplateName@ioWnd@@UAEPBDXZ
	DD	FLAT:?GetDefClassName@ioWnd@@UBEPBDXZ
	DD	FLAT:?_Clone@ioWnd@@UAEPAV1@XZ
	DD	FLAT:?Copy@ioWnd@@UAEXPAV1@@Z
	DD	FLAT:?Save@ioWnd@@UAE_NAAVioXMLElement@@@Z
	DD	FLAT:?SetSaveData@ioWnd@@UAEXAAVioXMLElement@@@Z
	DD	FLAT:?SetPosX@ioWnd@@UAEXH@Z
	DD	FLAT:?SetPosY@ioWnd@@UAEXH@Z
	DD	FLAT:?SetWidth@ioWnd@@UAEXH@Z
	DD	FLAT:?SetHeight@ioWnd@@UAEXH@Z
	DD	FLAT:?GetNumFixedRenderFrame@ioWnd@@UBEHXZ
	DD	FLAT:?GetFixedRenderFrameType@ioWnd@@UAEPBDH@Z
	DD	FLAT:?GetRenderFrame@ioWnd@@UAEPAPAVioUIRenderElement@@PBD@Z
	DD	FLAT:?GetNumFixedRenderImage@ioWnd@@UBEHXZ
	DD	FLAT:?GetFixedRenderImageType@ioWnd@@UAEPBDH@Z
	DD	FLAT:?GetRenderImage@ioWnd@@UAEPAPAVioUIRenderElement@@PBD@Z
	DD	FLAT:?AddEffect@ioWnd@@UAEXABVioHashString@@PAVioUI3DEffectRender@@@Z
	DD	FLAT:?GetEffect@ioWnd@@UAEPAVioUI3DEffectRender@@VioHashString@@@Z
	DD	FLAT:??_EChangeNameWnd@@UAEPAXI@Z
CONST	ENDS
;	COMDAT xdata$x
xdata$x	SEGMENT
__ehfuncinfo$??0ChangeNameWnd@@QAE@XZ DD 019930522H
	DD	06H
	DD	FLAT:__unwindtable$??0ChangeNameWnd@@QAE@XZ
	DD	2 DUP(00H)
	DD	2 DUP(00H)
	DD	00H
	DD	01H
__unwindtable$??0ChangeNameWnd@@QAE@XZ DD 0ffffffffH
	DD	FLAT:__unwindfunclet$??0ChangeNameWnd@@QAE@XZ$0
	DD	00H
	DD	FLAT:__unwindfunclet$??0ChangeNameWnd@@QAE@XZ$1
	DD	01H
	DD	FLAT:__unwindfunclet$??0ChangeNameWnd@@QAE@XZ$2
	DD	02H
	DD	FLAT:__unwindfunclet$??0ChangeNameWnd@@QAE@XZ$3
	DD	03H
	DD	FLAT:__unwindfunclet$??0ChangeNameWnd@@QAE@XZ$4
	DD	04H
	DD	FLAT:__unwindfunclet$??0ChangeNameWnd@@QAE@XZ$5
; Function compile flags: /Ogsp
xdata$x	ENDS
;	COMDAT ??0ChangeNameWnd@@QAE@XZ
_TEXT	SEGMENT
_this$ = -16						; size = 4
__$EHRec$ = -12						; size = 12
??0ChangeNameWnd@@QAE@XZ PROC				; ChangeNameWnd::ChangeNameWnd, COMDAT
; _this$ = ecx

; 48   : {

  00000	6a 04		 push	 4
  00002	b8 00 00 00 00	 mov	 eax, __ehhandler$??0ChangeNameWnd@@QAE@XZ
  00007	e8 00 00 00 00	 call	 __EH_prolog3
  0000c	8b f1		 mov	 esi, ecx
  0000e	89 75 f0	 mov	 DWORD PTR _this$[ebp], esi
  00011	ff 15 00 00 00
	00		 call	 DWORD PTR __imp_??0ioWnd@@QAE@XZ
  00017	83 65 fc 00	 and	 DWORD PTR __$EHRec$[ebp+8], 0
  0001b	68 00 00 00 00	 push	 OFFSET ??1ioComplexStringPrinter@@QAE@XZ ; ioComplexStringPrinter::~ioComplexStringPrinter
  00020	68 00 00 00 00	 push	 OFFSET ??0ioComplexStringPrinter@@QAE@XZ ; ioComplexStringPrinter::ioComplexStringPrinter
  00025	6a 02		 push	 2
  00027	6a 20		 push	 32			; 00000020H
  00029	8d 86 64 01 00
	00		 lea	 eax, DWORD PTR [esi+356]
  0002f	50		 push	 eax
  00030	c7 06 00 00 00
	00		 mov	 DWORD PTR [esi], OFFSET ??_7ChangeNameWnd@@6B@
  00036	e8 00 00 00 00	 call	 ??_L@YGXPAXIHP6EX0@Z1@Z
  0003b	8b 3d 00 00 00
	00		 mov	 edi, DWORD PTR __imp_??0ioHashString@@QAE@XZ
  00041	8d 8e ac 01 00
	00		 lea	 ecx, DWORD PTR [esi+428]
  00047	c6 45 fc 01	 mov	 BYTE PTR __$EHRec$[ebp+8], 1
  0004b	ff d7		 call	 edi
  0004d	8d 8e bc 01 00
	00		 lea	 ecx, DWORD PTR [esi+444]
  00053	c6 45 fc 02	 mov	 BYTE PTR __$EHRec$[ebp+8], 2
  00057	ff d7		 call	 edi
  00059	8d 8e cc 01 00
	00		 lea	 ecx, DWORD PTR [esi+460]
  0005f	c6 45 fc 03	 mov	 BYTE PTR __$EHRec$[ebp+8], 3
  00063	ff d7		 call	 edi
  00065	8d 8e dc 01 00
	00		 lea	 ecx, DWORD PTR [esi+476]
  0006b	c6 45 fc 04	 mov	 BYTE PTR __$EHRec$[ebp+8], 4
  0006f	ff d7		 call	 edi
  00071	8d 8e ec 01 00
	00		 lea	 ecx, DWORD PTR [esi+492]
  00077	c6 45 fc 05	 mov	 BYTE PTR __$EHRec$[ebp+8], 5
  0007b	ff d7		 call	 edi

; 49   : 	m_pManual = NULL;

  0007d	83 a6 00 02 00
	00 00		 and	 DWORD PTR [esi+512], 0

; 50   : 	m_pEditFrm = NULL;

  00084	83 a6 fc 01 00
	00 00		 and	 DWORD PTR [esi+508], 0

; 51   : }

  0008b	8b c6		 mov	 eax, esi
  0008d	e8 00 00 00 00	 call	 __EH_epilog3
  00092	c3		 ret	 0
_TEXT	ENDS
;	COMDAT text$x
text$x	SEGMENT
__unwindfunclet$??0ChangeNameWnd@@QAE@XZ$0:
  00000	8b 4d f0	 mov	 ecx, DWORD PTR _this$[ebp]
  00003	ff 25 00 00 00
	00		 jmp	 DWORD PTR __imp_??1ioWnd@@UAE@XZ
__unwindfunclet$??0ChangeNameWnd@@QAE@XZ$1:
  00009	68 00 00 00 00	 push	 OFFSET ??1ioComplexStringPrinter@@QAE@XZ ; ioComplexStringPrinter::~ioComplexStringPrinter
  0000e	6a 02		 push	 2
  00010	6a 20		 push	 32			; 00000020H
  00012	8b 45 f0	 mov	 eax, DWORD PTR _this$[ebp]
  00015	05 64 01 00 00	 add	 eax, 356		; 00000164H
  0001a	50		 push	 eax
  0001b	e8 00 00 00 00	 call	 ??_M@YGXPAXIHP6EX0@Z@Z
  00020	c3		 ret	 0
__unwindfunclet$??0ChangeNameWnd@@QAE@XZ$2:
  00021	8b 4d f0	 mov	 ecx, DWORD PTR _this$[ebp]
  00024	81 c1 ac 01 00
	00		 add	 ecx, 428		; 000001acH
  0002a	ff 25 00 00 00
	00		 jmp	 DWORD PTR __imp_??1ioHashString@@QAE@XZ
__unwindfunclet$??0ChangeNameWnd@@QAE@XZ$3:
  00030	8b 4d f0	 mov	 ecx, DWORD PTR _this$[ebp]
  00033	81 c1 bc 01 00
	00		 add	 ecx, 444		; 000001bcH
  00039	ff 25 00 00 00
	00		 jmp	 DWORD PTR __imp_??1ioHashString@@QAE@XZ
__unwindfunclet$??0ChangeNameWnd@@QAE@XZ$4:
  0003f	8b 4d f0	 mov	 ecx, DWORD PTR _this$[ebp]
  00042	81 c1 cc 01 00
	00		 add	 ecx, 460		; 000001ccH
  00048	ff 25 00 00 00
	00		 jmp	 DWORD PTR __imp_??1ioHashString@@QAE@XZ
__unwindfunclet$??0ChangeNameWnd@@QAE@XZ$5:
  0004e	8b 4d f0	 mov	 ecx, DWORD PTR _this$[ebp]
  00051	81 c1 dc 01 00
	00		 add	 ecx, 476		; 000001dcH
  00057	ff 25 00 00 00
	00		 jmp	 DWORD PTR __imp_??1ioHashString@@QAE@XZ
__ehhandler$??0ChangeNameWnd@@QAE@XZ:
  0005d	8b 54 24 08	 mov	 edx, DWORD PTR [esp+8]
  00061	8d 42 0c	 lea	 eax, DWORD PTR [edx+12]
  00064	8b 4a ec	 mov	 ecx, DWORD PTR [edx-20]
  00067	33 c8		 xor	 ecx, eax
  00069	e8 00 00 00 00	 call	 @__security_check_cookie@4
  0006e	b8 00 00 00 00	 mov	 eax, OFFSET __ehfuncinfo$??0ChangeNameWnd@@QAE@XZ
  00073	e9 00 00 00 00	 jmp	 ___CxxFrameHandler3
text$x	ENDS
??0ChangeNameWnd@@QAE@XZ ENDP				; ChangeNameWnd::ChangeNameWnd
PUBLIC	??1ChangeNameWnd@@UAE@XZ			; ChangeNameWnd::~ChangeNameWnd
;	COMDAT xdata$x
xdata$x	SEGMENT
__ehfuncinfo$??1ChangeNameWnd@@UAE@XZ DD 019930522H
	DD	07H
	DD	FLAT:__unwindtable$??1ChangeNameWnd@@UAE@XZ
	DD	2 DUP(00H)
	DD	2 DUP(00H)
	DD	00H
	DD	01H
__unwindtable$??1ChangeNameWnd@@UAE@XZ DD 0ffffffffH
	DD	FLAT:__unwindfunclet$??1ChangeNameWnd@@UAE@XZ$0
	DD	00H
	DD	FLAT:__unwindfunclet$??1ChangeNameWnd@@UAE@XZ$1
	DD	01H
	DD	FLAT:__unwindfunclet$??1ChangeNameWnd@@UAE@XZ$2
	DD	02H
	DD	FLAT:__unwindfunclet$??1ChangeNameWnd@@UAE@XZ$3
	DD	03H
	DD	FLAT:__unwindfunclet$??1ChangeNameWnd@@UAE@XZ$4
	DD	04H
	DD	FLAT:__unwindfunclet$??1ChangeNameWnd@@UAE@XZ$5
	DD	05H
	DD	FLAT:__unwindfunclet$??1ChangeNameWnd@@UAE@XZ$6
; Function compile flags: /Ogsp
xdata$x	ENDS
;	COMDAT ??1ChangeNameWnd@@UAE@XZ
_TEXT	SEGMENT
_this$ = -16						; size = 4
__$EHRec$ = -12						; size = 12
??1ChangeNameWnd@@UAE@XZ PROC				; ChangeNameWnd::~ChangeNameWnd, COMDAT
; _this$ = ecx

; 54   : {

  00000	6a 04		 push	 4
  00002	b8 00 00 00 00	 mov	 eax, __ehhandler$??1ChangeNameWnd@@UAE@XZ
  00007	e8 00 00 00 00	 call	 __EH_prolog3
  0000c	8b f1		 mov	 esi, ecx
  0000e	89 75 f0	 mov	 DWORD PTR _this$[ebp], esi
  00011	c7 06 00 00 00
	00		 mov	 DWORD PTR [esi], OFFSET ??_7ChangeNameWnd@@6B@

; 55   : 	SAFEDELETE( m_pEditFrm );

  00017	8b 8e fc 01 00
	00		 mov	 ecx, DWORD PTR [esi+508]
  0001d	c7 45 fc 06 00
	00 00		 mov	 DWORD PTR __$EHRec$[ebp+8], 6
  00024	85 c9		 test	 ecx, ecx
  00026	74 0e		 je	 SHORT $LN1@ChangeName
  00028	8b 01		 mov	 eax, DWORD PTR [ecx]
  0002a	6a 01		 push	 1
  0002c	ff 50 40	 call	 DWORD PTR [eax+64]
  0002f	83 a6 fc 01 00
	00 00		 and	 DWORD PTR [esi+508], 0
$LN1@ChangeName:

; 56   : }

  00036	8b 3d 00 00 00
	00		 mov	 edi, DWORD PTR __imp_??1ioHashString@@QAE@XZ
  0003c	8d 8e ec 01 00
	00		 lea	 ecx, DWORD PTR [esi+492]
  00042	c6 45 fc 05	 mov	 BYTE PTR __$EHRec$[ebp+8], 5
  00046	ff d7		 call	 edi
  00048	8d 8e dc 01 00
	00		 lea	 ecx, DWORD PTR [esi+476]
  0004e	c6 45 fc 04	 mov	 BYTE PTR __$EHRec$[ebp+8], 4
  00052	ff d7		 call	 edi
  00054	8d 8e cc 01 00
	00		 lea	 ecx, DWORD PTR [esi+460]
  0005a	c6 45 fc 03	 mov	 BYTE PTR __$EHRec$[ebp+8], 3
  0005e	ff d7		 call	 edi
  00060	8d 8e bc 01 00
	00		 lea	 ecx, DWORD PTR [esi+444]
  00066	c6 45 fc 02	 mov	 BYTE PTR __$EHRec$[ebp+8], 2
  0006a	ff d7		 call	 edi
  0006c	8d 8e ac 01 00
	00		 lea	 ecx, DWORD PTR [esi+428]
  00072	c6 45 fc 01	 mov	 BYTE PTR __$EHRec$[ebp+8], 1
  00076	ff d7		 call	 edi
  00078	68 00 00 00 00	 push	 OFFSET ??1ioComplexStringPrinter@@QAE@XZ ; ioComplexStringPrinter::~ioComplexStringPrinter
  0007d	6a 02		 push	 2
  0007f	6a 20		 push	 32			; 00000020H
  00081	8d 86 64 01 00
	00		 lea	 eax, DWORD PTR [esi+356]
  00087	50		 push	 eax
  00088	c6 45 fc 00	 mov	 BYTE PTR __$EHRec$[ebp+8], 0
  0008c	e8 00 00 00 00	 call	 ??_M@YGXPAXIHP6EX0@Z@Z
  00091	83 4d fc ff	 or	 DWORD PTR __$EHRec$[ebp+8], -1
  00095	8b ce		 mov	 ecx, esi
  00097	ff 15 00 00 00
	00		 call	 DWORD PTR __imp_??1ioWnd@@UAE@XZ
  0009d	e8 00 00 00 00	 call	 __EH_epilog3
  000a2	c3		 ret	 0
_TEXT	ENDS
;	COMDAT text$x
text$x	SEGMENT
__unwindfunclet$??1ChangeNameWnd@@UAE@XZ$0:
  00000	8b 4d f0	 mov	 ecx, DWORD PTR _this$[ebp]
  00003	ff 25 00 00 00
	00		 jmp	 DWORD PTR __imp_??1ioWnd@@UAE@XZ
__unwindfunclet$??1ChangeNameWnd@@UAE@XZ$1:
  00009	68 00 00 00 00	 push	 OFFSET ??1ioComplexStringPrinter@@QAE@XZ ; ioComplexStringPrinter::~ioComplexStringPrinter
  0000e	6a 02		 push	 2
  00010	6a 20		 push	 32			; 00000020H
  00012	8b 45 f0	 mov	 eax, DWORD PTR _this$[ebp]
  00015	05 64 01 00 00	 add	 eax, 356		; 00000164H
  0001a	50		 push	 eax
  0001b	e8 00 00 00 00	 call	 ??_M@YGXPAXIHP6EX0@Z@Z
  00020	c3		 ret	 0
__unwindfunclet$??1ChangeNameWnd@@UAE@XZ$2:
  00021	8b 4d f0	 mov	 ecx, DWORD PTR _this$[ebp]
  00024	81 c1 ac 01 00
	00		 add	 ecx, 428		; 000001acH
  0002a	ff 25 00 00 00
	00		 jmp	 DWORD PTR __imp_??1ioHashString@@QAE@XZ
__unwindfunclet$??1ChangeNameWnd@@UAE@XZ$3:
  00030	8b 4d f0	 mov	 ecx, DWORD PTR _this$[ebp]
  00033	81 c1 bc 01 00
	00		 add	 ecx, 444		; 000001bcH
  00039	ff 25 00 00 00
	00		 jmp	 DWORD PTR __imp_??1ioHashString@@QAE@XZ
__unwindfunclet$??1ChangeNameWnd@@UAE@XZ$4:
  0003f	8b 4d f0	 mov	 ecx, DWORD PTR _this$[ebp]
  00042	81 c1 cc 01 00
	00		 add	 ecx, 460		; 000001ccH
  00048	ff 25 00 00 00
	00		 jmp	 DWORD PTR __imp_??1ioHashString@@QAE@XZ
__unwindfunclet$??1ChangeNameWnd@@UAE@XZ$5:
  0004e	8b 4d f0	 mov	 ecx, DWORD PTR _this$[ebp]
  00051	81 c1 dc 01 00
	00		 add	 ecx, 476		; 000001dcH
  00057	ff 25 00 00 00
	00		 jmp	 DWORD PTR __imp_??1ioHashString@@QAE@XZ
__unwindfunclet$??1ChangeNameWnd@@UAE@XZ$6:
  0005d	8b 4d f0	 mov	 ecx, DWORD PTR _this$[ebp]
  00060	81 c1 ec 01 00
	00		 add	 ecx, 492		; 000001ecH
  00066	ff 25 00 00 00
	00		 jmp	 DWORD PTR __imp_??1ioHashString@@QAE@XZ
__ehhandler$??1ChangeNameWnd@@UAE@XZ:
  0006c	8b 54 24 08	 mov	 edx, DWORD PTR [esp+8]
  00070	8d 42 0c	 lea	 eax, DWORD PTR [edx+12]
  00073	8b 4a ec	 mov	 ecx, DWORD PTR [edx-20]
  00076	33 c8		 xor	 ecx, eax
  00078	e8 00 00 00 00	 call	 @__security_check_cookie@4
  0007d	b8 00 00 00 00	 mov	 eax, OFFSET __ehfuncinfo$??1ChangeNameWnd@@UAE@XZ
  00082	e9 00 00 00 00	 jmp	 ___CxxFrameHandler3
text$x	ENDS
??1ChangeNameWnd@@UAE@XZ ENDP				; ChangeNameWnd::~ChangeNameWnd
PUBLIC	??_R0?AVioEdit@@@8				; ioEdit `RTTI Type Descriptor'
EXTRN	?EnableAltCtrl@ioApplication@@QAEXXZ:PROC	; ioApplication::EnableAltCtrl
EXTRN	?GetSingleton@ioApplication@@SAAAV1@XZ:PROC	; ioApplication::GetSingleton
EXTRN	__imp_?IsShow@ioWnd@@QBE_NXZ:PROC
EXTRN	__imp_?GetParent@ioWnd@@QAEPAV1@XZ:PROC
EXTRN	__imp_?ClearString@ioEdit@@QAEXXZ:PROC
EXTRN	__imp_?FindChildWnd@ioWnd@@QAEPAV1@K@Z:PROC
EXTRN	___RTDynamicCast:PROC
;	COMDAT ??_R0?AVioEdit@@@8
_DATA	SEGMENT
??_R0?AVioEdit@@@8 DD FLAT:??_7type_info@@6B@		; ioEdit `RTTI Type Descriptor'
	DD	00H
	DB	'.?AVioEdit@@', 00H
; Function compile flags: /Ogsp
_DATA	ENDS
;	COMDAT ?iwm_hide@ChangeNameWnd@@UAEXXZ
_TEXT	SEGMENT
?iwm_hide@ChangeNameWnd@@UAEXXZ PROC			; ChangeNameWnd::iwm_hide, COMDAT
; _this$ = ecx

; 134  : {

  00000	56		 push	 esi
  00001	57		 push	 edi

; 135  : 	ioEdit *pEdit = dynamic_cast<ioEdit*> ( FindChildWnd( ID_CHANGE_EDIT ) );

  00002	6a 00		 push	 0
  00004	68 00 00 00 00	 push	 OFFSET ??_R0?AVioEdit@@@8
  00009	68 00 00 00 00	 push	 OFFSET ??_R0?AVioWnd@@@8
  0000e	6a 00		 push	 0
  00010	6a 02		 push	 2
  00012	8b f1		 mov	 esi, ecx
  00014	ff 15 00 00 00
	00		 call	 DWORD PTR __imp_?FindChildWnd@ioWnd@@QAEPAV1@K@Z
  0001a	50		 push	 eax
  0001b	e8 00 00 00 00	 call	 ___RTDynamicCast
  00020	8b f8		 mov	 edi, eax
  00022	83 c4 14	 add	 esp, 20			; 00000014H

; 136  : 	if( pEdit )

  00025	85 ff		 test	 edi, edi
  00027	74 12		 je	 SHORT $LN4@iwm_hide

; 137  : 	{
; 138  : 		pEdit->ClearString();

  00029	8b cf		 mov	 ecx, edi
  0002b	ff 15 00 00 00
	00		 call	 DWORD PTR __imp_?ClearString@ioEdit@@QAEXXZ

; 139  : 		pEdit->KillKeyFocus();		

  00031	8b 07		 mov	 eax, DWORD PTR [edi]
  00033	8b cf		 mov	 ecx, edi
  00035	ff 90 34 01 00
	00		 call	 DWORD PTR [eax+308]
$LN4@iwm_hide:

; 140  : 	}
; 141  : 
; 142  : 	if( m_pPreEdit )	

  0003b	8b 8e a4 01 00
	00		 mov	 ecx, DWORD PTR [esi+420]
  00041	85 c9		 test	 ecx, ecx
  00043	74 24		 je	 SHORT $LN1@iwm_hide

; 143  : 	{
; 144  : 		ioWnd *pParent = m_pPreEdit->GetParent();

  00045	ff 15 00 00 00
	00		 call	 DWORD PTR __imp_?GetParent@ioWnd@@QAEPAV1@XZ

; 145  : 		if( pParent )

  0004b	85 c0		 test	 eax, eax
  0004d	74 1a		 je	 SHORT $LN1@iwm_hide

; 146  : 		{
; 147  : 			if( pParent->IsShow() )

  0004f	8b c8		 mov	 ecx, eax
  00051	ff 15 00 00 00
	00		 call	 DWORD PTR __imp_?IsShow@ioWnd@@QBE_NXZ
  00057	84 c0		 test	 al, al
  00059	74 0e		 je	 SHORT $LN1@iwm_hide

; 148  : 				((ioEdit*)m_pPreEdit)->SetKeyFocus();

  0005b	8b 8e a4 01 00
	00		 mov	 ecx, DWORD PTR [esi+420]
  00061	8b 01		 mov	 eax, DWORD PTR [ecx]
  00063	ff 90 30 01 00
	00		 call	 DWORD PTR [eax+304]
$LN1@iwm_hide:

; 149  : 		}
; 150  : 	}	
; 151  : 	m_pPreEdit = NULL;

  00069	83 a6 a4 01 00
	00 00		 and	 DWORD PTR [esi+420], 0

; 152  : 
; 153  : 	g_App.EnableAltCtrl();

  00070	e8 00 00 00 00	 call	 ?GetSingleton@ioApplication@@SAAAV1@XZ ; ioApplication::GetSingleton
  00075	5f		 pop	 edi
  00076	8b c8		 mov	 ecx, eax
  00078	5e		 pop	 esi
  00079	e9 00 00 00 00	 jmp	 ?EnableAltCtrl@ioApplication@@QAEXXZ ; ioApplication::EnableAltCtrl
?iwm_hide@ChangeNameWnd@@UAEXXZ ENDP			; ChangeNameWnd::iwm_hide
_TEXT	ENDS
PUBLIC	??_C@_00CNPNBAHC@?$AA@				; `string'
PUBLIC	?ErrorEdit@ChangeNameWnd@@QAEXPBD@Z		; ChangeNameWnd::ErrorEdit
EXTRN	__imp_?SetString@ioInputBox@@QAEXPBD@Z:PROC
EXTRN	__imp_?GetSingleton@ioInputBox@@SAAAV1@XZ:PROC
EXTRN	__imp_??4ioHashString@@QAEAAV0@PBD@Z:PROC
;	COMDAT ??_C@_00CNPNBAHC@?$AA@
CONST	SEGMENT
??_C@_00CNPNBAHC@?$AA@ DB 00H				; `string'
; Function compile flags: /Ogsp
CONST	ENDS
;	COMDAT ?ErrorEdit@ChangeNameWnd@@QAEXPBD@Z
_TEXT	SEGMENT
_szError$ = 8						; size = 4
?ErrorEdit@ChangeNameWnd@@QAEXPBD@Z PROC		; ChangeNameWnd::ErrorEdit, COMDAT
; _this$ = ecx

; 389  : {

  00000	55		 push	 ebp
  00001	8b ec		 mov	 ebp, esp
  00003	56		 push	 esi
  00004	57		 push	 edi

; 390  : 	ioEdit *pEdit = (ioEdit*)FindChildWnd( ID_CHANGE_EDIT );

  00005	6a 02		 push	 2
  00007	8b f9		 mov	 edi, ecx
  00009	ff 15 00 00 00
	00		 call	 DWORD PTR __imp_?FindChildWnd@ioWnd@@QAEPAV1@K@Z
  0000f	8b f0		 mov	 esi, eax

; 391  : 	if( pEdit )

  00011	85 f6		 test	 esi, esi
  00013	74 45		 je	 SHORT $LN1@ErrorEdit

; 392  : 	{
; 393  : 		m_szDefaultNotice = szError;

  00015	ff 75 08	 push	 DWORD PTR _szError$[ebp]
  00018	8d 8f dc 01 00
	00		 lea	 ecx, DWORD PTR [edi+476]
  0001e	ff 15 00 00 00
	00		 call	 DWORD PTR __imp_??4ioHashString@@QAEAAV0@PBD@Z

; 394  : 
; 395  : 		pEdit->ClearString();

  00024	8b ce		 mov	 ecx, esi
  00026	ff 15 00 00 00
	00		 call	 DWORD PTR __imp_?ClearString@ioEdit@@QAEXXZ

; 396  : 		pEdit->SetKeyFocus();

  0002c	8b 06		 mov	 eax, DWORD PTR [esi]
  0002e	8b ce		 mov	 ecx, esi
  00030	ff 90 30 01 00
	00		 call	 DWORD PTR [eax+304]

; 397  : 		g_InputBox.SetString( "" );

  00036	68 00 00 00 00	 push	 OFFSET ??_C@_00CNPNBAHC@?$AA@
  0003b	ff 15 00 00 00
	00		 call	 DWORD PTR __imp_?GetSingleton@ioInputBox@@SAAAV1@XZ
  00041	8b c8		 mov	 ecx, eax
  00043	ff 15 00 00 00
	00		 call	 DWORD PTR __imp_?SetString@ioInputBox@@QAEXPBD@Z

; 398  : 		pEdit->KillKeyFocus();

  00049	8b 06		 mov	 eax, DWORD PTR [esi]
  0004b	8b ce		 mov	 ecx, esi
  0004d	ff 90 34 01 00
	00		 call	 DWORD PTR [eax+308]

; 399  : 		m_bRenderNotice = true;

  00053	c6 87 04 02 00
	00 01		 mov	 BYTE PTR [edi+516], 1
$LN1@ErrorEdit:
  0005a	5f		 pop	 edi
  0005b	5e		 pop	 esi

; 400  : 	}	
; 401  : }

  0005c	5d		 pop	 ebp
  0005d	c2 04 00	 ret	 4
?ErrorEdit@ChangeNameWnd@@QAEXPBD@Z ENDP		; ChangeNameWnd::ErrorEdit
_TEXT	ENDS
PUBLIC	??_7ChangeNameResultWnd@@6B@			; ChangeNameResultWnd::`vftable'
PUBLIC	??0ChangeNameResultWnd@@QAE@XZ			; ChangeNameResultWnd::ChangeNameResultWnd
PUBLIC	??_R4ChangeNameResultWnd@@6B@			; ChangeNameResultWnd::`RTTI Complete Object Locator'
PUBLIC	??_R0?AVChangeNameResultWnd@@@8			; ChangeNameResultWnd `RTTI Type Descriptor'
PUBLIC	??_R3ChangeNameResultWnd@@8			; ChangeNameResultWnd::`RTTI Class Hierarchy Descriptor'
PUBLIC	??_R2ChangeNameResultWnd@@8			; ChangeNameResultWnd::`RTTI Base Class Array'
PUBLIC	??_R1A@?0A@EA@ChangeNameResultWnd@@8		; ChangeNameResultWnd::`RTTI Base Class Descriptor at (0,-1,0,64)'
PUBLIC	?AddRenderImage@ChangeNameResultWnd@@MAEXABVioHashString@@PAVioUIRenderImage@@@Z ; ChangeNameResultWnd::AddRenderImage
PUBLIC	?OnRender@ChangeNameResultWnd@@MAEXXZ		; ChangeNameResultWnd::OnRender
PUBLIC	?iwm_command@ChangeNameResultWnd@@UAEXPAVioWnd@@HK@Z ; ChangeNameResultWnd::iwm_command
EXTRN	?AddRenderFrame@ioWnd@@UAEXABVioHashString@@PAVioUIRenderFrame@@@Z:PROC ; ioWnd::AddRenderFrame
EXTRN	?iwm_hide@ioWnd@@UAEXXZ:PROC			; ioWnd::iwm_hide
EXTRN	??_EChangeNameResultWnd@@UAEPAXI@Z:PROC		; ChangeNameResultWnd::`vector deleting destructor'
;	COMDAT ??_R1A@?0A@EA@ChangeNameResultWnd@@8
rdata$r	SEGMENT
??_R1A@?0A@EA@ChangeNameResultWnd@@8 DD FLAT:??_R0?AVChangeNameResultWnd@@@8 ; ChangeNameResultWnd::`RTTI Base Class Descriptor at (0,-1,0,64)'
	DD	01H
	DD	00H
	DD	0ffffffffH
	DD	00H
	DD	040H
	DD	FLAT:??_R3ChangeNameResultWnd@@8
rdata$r	ENDS
;	COMDAT ??_R2ChangeNameResultWnd@@8
rdata$r	SEGMENT
??_R2ChangeNameResultWnd@@8 DD FLAT:??_R1A@?0A@EA@ChangeNameResultWnd@@8 ; ChangeNameResultWnd::`RTTI Base Class Array'
	DD	FLAT:??_R1A@?0A@EA@ioWnd@@8
rdata$r	ENDS
;	COMDAT ??_R3ChangeNameResultWnd@@8
rdata$r	SEGMENT
??_R3ChangeNameResultWnd@@8 DD 00H			; ChangeNameResultWnd::`RTTI Class Hierarchy Descriptor'
	DD	00H
	DD	02H
	DD	FLAT:??_R2ChangeNameResultWnd@@8
rdata$r	ENDS
;	COMDAT ??_R0?AVChangeNameResultWnd@@@8
_DATA	SEGMENT
??_R0?AVChangeNameResultWnd@@@8 DD FLAT:??_7type_info@@6B@ ; ChangeNameResultWnd `RTTI Type Descriptor'
	DD	00H
	DB	'.?AVChangeNameResultWnd@@', 00H
_DATA	ENDS
;	COMDAT ??_R4ChangeNameResultWnd@@6B@
rdata$r	SEGMENT
??_R4ChangeNameResultWnd@@6B@ DD 00H			; ChangeNameResultWnd::`RTTI Complete Object Locator'
	DD	00H
	DD	00H
	DD	FLAT:??_R0?AVChangeNameResultWnd@@@8
	DD	FLAT:??_R3ChangeNameResultWnd@@8
rdata$r	ENDS
;	COMDAT ??_7ChangeNameResultWnd@@6B@
CONST	SEGMENT
??_7ChangeNameResultWnd@@6B@ DD FLAT:??_R4ChangeNameResultWnd@@6B@ ; ChangeNameResultWnd::`vftable'
	DD	FLAT:?AddRenderFrame@ioWnd@@UAEXABVioHashString@@PAVioUIRenderFrame@@@Z
	DD	FLAT:?AddRenderImage@ChangeNameResultWnd@@MAEXABVioHashString@@PAVioUIRenderImage@@@Z
	DD	FLAT:?AddTooltipHelp@ioWnd@@UAEXABVioHashString@@00@Z
	DD	FLAT:?ParseExtraInfo@ioWnd@@UAEXAAVioXMLElement@@@Z
	DD	FLAT:?AddNamedRenderImage@ioWnd@@UAEXABVioHashString@@PAVioUIRenderImage@@@Z
	DD	FLAT:?RemoveNamedRenderImage@ioWnd@@UAEXABVioHashString@@@Z
	DD	FLAT:?GetNamedRenderImage@ioWnd@@UBEPAVioUIRenderImage@@ABVioHashString@@@Z
	DD	FLAT:?SetWindowAlpha@ioWnd@@UAEXH@Z
	DD	FLAT:?SetActive@ioWnd@@UAEXXZ
	DD	FLAT:?SetInActive@ioWnd@@UAEXXZ
	DD	FLAT:?ClearElementImageList@ioWnd@@UAEXXZ
	DD	FLAT:?SetSize@ioWnd@@UAEXHH@Z
	DD	FLAT:?SetPositionToDefault@ioWnd@@UAEXHH_N0@Z
	DD	FLAT:?IsNeedProcess@ioWnd@@UBE_NXZ
	DD	FLAT:?IsCanMouseReaction@ioWnd@@UBE_NXZ
	DD	FLAT:?AddChild@ioWnd@@UAEXPAV1@@Z
	DD	FLAT:?DeleteChild@ioWnd@@UAEXK@Z
	DD	FLAT:?DeleteAllChild@ioWnd@@UAEXXZ
	DD	FLAT:?OnRenderShowAndHide@ioWnd@@MAE_NXZ
	DD	FLAT:?OnRenderShowAndHideByDefault@ioWnd@@MAE_NK@Z
	DD	FLAT:?OnRenderShowAndHideByTop@ioWnd@@MAE_NK@Z
	DD	FLAT:?OnRenderShowAndHideByDown@ioWnd@@MAE_NK@Z
	DD	FLAT:?OnRender@ChangeNameResultWnd@@MAEXXZ
	DD	FLAT:?OnRenderAfterChild@ioWnd@@MAEXXZ
	DD	FLAT:?OnProcess@ioWnd@@MAEXM@Z
	DD	FLAT:?OnMouseProcess@ioWnd@@MAEXABVioMouse@@@Z
	DD	FLAT:?CheckFrameReSize@ioWnd@@MAEXHHHH@Z
	DD	FLAT:?RenderImageList@ioWnd@@MAEXHHW4UIRenderType@@@Z
	DD	FLAT:?iwm_create@ioWnd@@UAEXXZ
	DD	FLAT:?iwm_destroy@ioWnd@@UAEXXZ
	DD	FLAT:?iwm_lbuttondown@ioWnd@@UAEXABVioMouse@@@Z
	DD	FLAT:?iwm_lbuttonup@ioWnd@@UAEXABVioMouse@@@Z
	DD	FLAT:?iwm_lbuttonDBLCLK@ioWnd@@UAEXABVioMouse@@@Z
	DD	FLAT:?iwm_rbuttondown@ioWnd@@UAEXABVioMouse@@@Z
	DD	FLAT:?iwm_rbuttonup@ioWnd@@UAEXABVioMouse@@@Z
	DD	FLAT:?iwm_command@ChangeNameResultWnd@@UAEXPAVioWnd@@HK@Z
	DD	FLAT:?iwm_mouseover@ioWnd@@UAEXABVioMouse@@@Z
	DD	FLAT:?iwm_mousemove@ioWnd@@UAEXABVioMouse@@@Z
	DD	FLAT:?iwm_mouseleave@ioWnd@@UAEXABVioMouse@@@Z
	DD	FLAT:?iwm_vscroll@ioWnd@@UAEXKH@Z
	DD	FLAT:?iwm_wheel@ioWnd@@UAEXH@Z
	DD	FLAT:?iwm_show@ioWnd@@UAEXXZ
	DD	FLAT:?iwm_hide@ioWnd@@UAEXXZ
	DD	FLAT:?iwm_esc@ioWnd@@UAE_NXZ
	DD	FLAT:?iwm_spacebar@ioWnd@@UAE_NXZ
	DD	FLAT:?iwm_gototop@ioWnd@@UAEXXZ
	DD	FLAT:?iwm_dragenter@ioWnd@@UAE?AW4IWDropEffect@@PAVioDragItem@@ABVioMouse@@@Z
	DD	FLAT:?iwm_dragover@ioWnd@@UAE?AW4IWDropEffect@@PAVioDragItem@@ABVioMouse@@@Z
	DD	FLAT:?iwm_dragleave@ioWnd@@UAEXXZ
	DD	FLAT:?iwm_dropitem@ioWnd@@UAE_NPAVioDragItem@@ABVioMouse@@PAV1@@Z
	DD	FLAT:?iwm_dropdone@ioWnd@@UAEXPAVioDragItem@@PAV1@_N@Z
	DD	FLAT:?IsEXType@ioWnd@@UBE_NXZ
	DD	FLAT:?GetWndType@ioWnd@@UBEKXZ
	DD	FLAT:?RenderWnd@ioWnd@@UAEXXZ
	DD	FLAT:?SetIDEX@ioWnd@@UAEXAAK_N@Z
	DD	FLAT:?ParseXML@ioWnd@@UAEXAAVioXMLElement@@@Z
	DD	FLAT:?GetHeaderFileName@ioWnd@@UAEPBDXZ
	DD	FLAT:?GetTemplateName@ioWnd@@UAEPBDXZ
	DD	FLAT:?GetDefClassName@ioWnd@@UBEPBDXZ
	DD	FLAT:?_Clone@ioWnd@@UAEPAV1@XZ
	DD	FLAT:?Copy@ioWnd@@UAEXPAV1@@Z
	DD	FLAT:?Save@ioWnd@@UAE_NAAVioXMLElement@@@Z
	DD	FLAT:?SetSaveData@ioWnd@@UAEXAAVioXMLElement@@@Z
	DD	FLAT:?SetPosX@ioWnd@@UAEXH@Z
	DD	FLAT:?SetPosY@ioWnd@@UAEXH@Z
	DD	FLAT:?SetWidth@ioWnd@@UAEXH@Z
	DD	FLAT:?SetHeight@ioWnd@@UAEXH@Z
	DD	FLAT:?GetNumFixedRenderFrame@ioWnd@@UBEHXZ
	DD	FLAT:?GetFixedRenderFrameType@ioWnd@@UAEPBDH@Z
	DD	FLAT:?GetRenderFrame@ioWnd@@UAEPAPAVioUIRenderElement@@PBD@Z
	DD	FLAT:?GetNumFixedRenderImage@ioWnd@@UBEHXZ
	DD	FLAT:?GetFixedRenderImageType@ioWnd@@UAEPBDH@Z
	DD	FLAT:?GetRenderImage@ioWnd@@UAEPAPAVioUIRenderElement@@PBD@Z
	DD	FLAT:?AddEffect@ioWnd@@UAEXABVioHashString@@PAVioUI3DEffectRender@@@Z
	DD	FLAT:?GetEffect@ioWnd@@UAEPAVioUI3DEffectRender@@VioHashString@@@Z
	DD	FLAT:??_EChangeNameResultWnd@@UAEPAXI@Z
CONST	ENDS
;	COMDAT xdata$x
xdata$x	SEGMENT
__unwindtable$??0ChangeNameResultWnd@@QAE@XZ DD 0ffffffffH
	DD	FLAT:__unwindfunclet$??0ChangeNameResultWnd@@QAE@XZ$0
	DD	00H
	DD	FLAT:__unwindfunclet$??0ChangeNameResultWnd@@QAE@XZ$1
__ehfuncinfo$??0ChangeNameResultWnd@@QAE@XZ DD 019930522H
	DD	02H
	DD	FLAT:__unwindtable$??0ChangeNameResultWnd@@QAE@XZ
	DD	2 DUP(00H)
	DD	2 DUP(00H)
	DD	00H
	DD	01H
; Function compile flags: /Ogsp
xdata$x	ENDS
;	COMDAT ??0ChangeNameResultWnd@@QAE@XZ
_TEXT	SEGMENT
_this$ = -16						; size = 4
__$EHRec$ = -12						; size = 12
??0ChangeNameResultWnd@@QAE@XZ PROC			; ChangeNameResultWnd::ChangeNameResultWnd, COMDAT
; _this$ = ecx

; 484  : {

  00000	6a 04		 push	 4
  00002	b8 00 00 00 00	 mov	 eax, __ehhandler$??0ChangeNameResultWnd@@QAE@XZ
  00007	e8 00 00 00 00	 call	 __EH_prolog3
  0000c	8b f1		 mov	 esi, ecx
  0000e	89 75 f0	 mov	 DWORD PTR _this$[ebp], esi
  00011	ff 15 00 00 00
	00		 call	 DWORD PTR __imp_??0ioWnd@@QAE@XZ
  00017	8b 3d 00 00 00
	00		 mov	 edi, DWORD PTR __imp_??0ioHashString@@QAE@XZ
  0001d	83 65 fc 00	 and	 DWORD PTR __$EHRec$[ebp+8], 0
  00021	8d 8e 6c 01 00
	00		 lea	 ecx, DWORD PTR [esi+364]
  00027	c7 06 00 00 00
	00		 mov	 DWORD PTR [esi], OFFSET ??_7ChangeNameResultWnd@@6B@
  0002d	ff d7		 call	 edi
  0002f	8d 8e 7c 01 00
	00		 lea	 ecx, DWORD PTR [esi+380]
  00035	c6 45 fc 01	 mov	 BYTE PTR __$EHRec$[ebp+8], 1
  00039	ff d7		 call	 edi

; 485  : 	m_pIcon = NULL;

  0003b	83 a6 64 01 00
	00 00		 and	 DWORD PTR [esi+356], 0

; 486  : 	m_pBackEffect = NULL;

  00042	83 a6 68 01 00
	00 00		 and	 DWORD PTR [esi+360], 0

; 487  : }

  00049	8b c6		 mov	 eax, esi
  0004b	e8 00 00 00 00	 call	 __EH_epilog3
  00050	c3		 ret	 0
_TEXT	ENDS
;	COMDAT text$x
text$x	SEGMENT
__unwindfunclet$??0ChangeNameResultWnd@@QAE@XZ$0:
  00000	8b 4d f0	 mov	 ecx, DWORD PTR _this$[ebp]
  00003	ff 25 00 00 00
	00		 jmp	 DWORD PTR __imp_??1ioWnd@@UAE@XZ
__unwindfunclet$??0ChangeNameResultWnd@@QAE@XZ$1:
  00009	8b 4d f0	 mov	 ecx, DWORD PTR _this$[ebp]
  0000c	81 c1 6c 01 00
	00		 add	 ecx, 364		; 0000016cH
  00012	ff 25 00 00 00
	00		 jmp	 DWORD PTR __imp_??1ioHashString@@QAE@XZ
__ehhandler$??0ChangeNameResultWnd@@QAE@XZ:
  00018	8b 54 24 08	 mov	 edx, DWORD PTR [esp+8]
  0001c	8d 42 0c	 lea	 eax, DWORD PTR [edx+12]
  0001f	8b 4a ec	 mov	 ecx, DWORD PTR [edx-20]
  00022	33 c8		 xor	 ecx, eax
  00024	e8 00 00 00 00	 call	 @__security_check_cookie@4
  00029	b8 00 00 00 00	 mov	 eax, OFFSET __ehfuncinfo$??0ChangeNameResultWnd@@QAE@XZ
  0002e	e9 00 00 00 00	 jmp	 ___CxxFrameHandler3
text$x	ENDS
??0ChangeNameResultWnd@@QAE@XZ ENDP			; ChangeNameResultWnd::ChangeNameResultWnd
PUBLIC	??1ChangeNameResultWnd@@UAE@XZ			; ChangeNameResultWnd::~ChangeNameResultWnd
;	COMDAT xdata$x
xdata$x	SEGMENT
__unwindtable$??1ChangeNameResultWnd@@UAE@XZ DD 0ffffffffH
	DD	FLAT:__unwindfunclet$??1ChangeNameResultWnd@@UAE@XZ$0
	DD	00H
	DD	FLAT:__unwindfunclet$??1ChangeNameResultWnd@@UAE@XZ$1
	DD	01H
	DD	FLAT:__unwindfunclet$??1ChangeNameResultWnd@@UAE@XZ$2
__ehfuncinfo$??1ChangeNameResultWnd@@UAE@XZ DD 019930522H
	DD	03H
	DD	FLAT:__unwindtable$??1ChangeNameResultWnd@@UAE@XZ
	DD	2 DUP(00H)
	DD	2 DUP(00H)
	DD	00H
	DD	01H
; Function compile flags: /Ogsp
xdata$x	ENDS
;	COMDAT ??1ChangeNameResultWnd@@UAE@XZ
_TEXT	SEGMENT
_this$ = -16						; size = 4
__$EHRec$ = -12						; size = 12
??1ChangeNameResultWnd@@UAE@XZ PROC			; ChangeNameResultWnd::~ChangeNameResultWnd, COMDAT
; _this$ = ecx

; 490  : {

  00000	6a 04		 push	 4
  00002	b8 00 00 00 00	 mov	 eax, __ehhandler$??1ChangeNameResultWnd@@UAE@XZ
  00007	e8 00 00 00 00	 call	 __EH_prolog3
  0000c	8b f1		 mov	 esi, ecx
  0000e	89 75 f0	 mov	 DWORD PTR _this$[ebp], esi
  00011	c7 06 00 00 00
	00		 mov	 DWORD PTR [esi], OFFSET ??_7ChangeNameResultWnd@@6B@

; 491  : 	SAFEDELETE( m_pIcon );

  00017	8b 8e 64 01 00
	00		 mov	 ecx, DWORD PTR [esi+356]
  0001d	c7 45 fc 02 00
	00 00		 mov	 DWORD PTR __$EHRec$[ebp+8], 2
  00024	85 c9		 test	 ecx, ecx
  00026	74 0e		 je	 SHORT $LN2@ChangeName@2
  00028	8b 01		 mov	 eax, DWORD PTR [ecx]
  0002a	6a 01		 push	 1
  0002c	ff 50 40	 call	 DWORD PTR [eax+64]
  0002f	83 a6 64 01 00
	00 00		 and	 DWORD PTR [esi+356], 0
$LN2@ChangeName@2:

; 492  : 	SAFEDELETE( m_pBackEffect );

  00036	8b 8e 68 01 00
	00		 mov	 ecx, DWORD PTR [esi+360]
  0003c	85 c9		 test	 ecx, ecx
  0003e	74 0e		 je	 SHORT $LN1@ChangeName@2
  00040	8b 01		 mov	 eax, DWORD PTR [ecx]
  00042	6a 01		 push	 1
  00044	ff 50 40	 call	 DWORD PTR [eax+64]
  00047	83 a6 68 01 00
	00 00		 and	 DWORD PTR [esi+360], 0
$LN1@ChangeName@2:

; 493  : }

  0004e	8b 3d 00 00 00
	00		 mov	 edi, DWORD PTR __imp_??1ioHashString@@QAE@XZ
  00054	8d 8e 7c 01 00
	00		 lea	 ecx, DWORD PTR [esi+380]
  0005a	c6 45 fc 01	 mov	 BYTE PTR __$EHRec$[ebp+8], 1
  0005e	ff d7		 call	 edi
  00060	8d 8e 6c 01 00
	00		 lea	 ecx, DWORD PTR [esi+364]
  00066	c6 45 fc 00	 mov	 BYTE PTR __$EHRec$[ebp+8], 0
  0006a	ff d7		 call	 edi
  0006c	83 4d fc ff	 or	 DWORD PTR __$EHRec$[ebp+8], -1
  00070	8b ce		 mov	 ecx, esi
  00072	ff 15 00 00 00
	00		 call	 DWORD PTR __imp_??1ioWnd@@UAE@XZ
  00078	e8 00 00 00 00	 call	 __EH_epilog3
  0007d	c3		 ret	 0
_TEXT	ENDS
;	COMDAT text$x
text$x	SEGMENT
__unwindfunclet$??1ChangeNameResultWnd@@UAE@XZ$0:
  00000	8b 4d f0	 mov	 ecx, DWORD PTR _this$[ebp]
  00003	ff 25 00 00 00
	00		 jmp	 DWORD PTR __imp_??1ioWnd@@UAE@XZ
__unwindfunclet$??1ChangeNameResultWnd@@UAE@XZ$1:
  00009	8b 4d f0	 mov	 ecx, DWORD PTR _this$[ebp]
  0000c	81 c1 6c 01 00
	00		 add	 ecx, 364		; 0000016cH
  00012	ff 25 00 00 00
	00		 jmp	 DWORD PTR __imp_??1ioHashString@@QAE@XZ
__unwindfunclet$??1ChangeNameResultWnd@@UAE@XZ$2:
  00018	8b 4d f0	 mov	 ecx, DWORD PTR _this$[ebp]
  0001b	81 c1 7c 01 00
	00		 add	 ecx, 380		; 0000017cH
  00021	ff 25 00 00 00
	00		 jmp	 DWORD PTR __imp_??1ioHashString@@QAE@XZ
__ehhandler$??1ChangeNameResultWnd@@UAE@XZ:
  00027	8b 54 24 08	 mov	 edx, DWORD PTR [esp+8]
  0002b	8d 42 0c	 lea	 eax, DWORD PTR [edx+12]
  0002e	8b 4a ec	 mov	 ecx, DWORD PTR [edx-20]
  00031	33 c8		 xor	 ecx, eax
  00033	e8 00 00 00 00	 call	 @__security_check_cookie@4
  00038	b8 00 00 00 00	 mov	 eax, OFFSET __ehfuncinfo$??1ChangeNameResultWnd@@UAE@XZ
  0003d	e9 00 00 00 00	 jmp	 ___CxxFrameHandler3
text$x	ENDS
??1ChangeNameResultWnd@@UAE@XZ ENDP			; ChangeNameResultWnd::~ChangeNameResultWnd
EXTRN	__imp_?GetID@ioWnd@@QBEKXZ:PROC
; Function compile flags: /Ogsp
;	COMDAT ?iwm_command@ChangeNameResultWnd@@UAEXPAVioWnd@@HK@Z
_TEXT	SEGMENT
_pWnd$ = 8						; size = 4
_cmd$ = 12						; size = 4
_param$ = 16						; size = 4
?iwm_command@ChangeNameResultWnd@@UAEXPAVioWnd@@HK@Z PROC ; ChangeNameResultWnd::iwm_command, COMDAT
; _this$ = ecx

; 496  : {

  00000	55		 push	 ebp
  00001	8b ec		 mov	 ebp, esp

; 497  : 	DWORD dwID = pWnd->GetID();

  00003	8b 4d 08	 mov	 ecx, DWORD PTR _pWnd$[ebp]
  00006	ff 15 00 00 00
	00		 call	 DWORD PTR __imp_?GetID@ioWnd@@QBEKXZ

; 498  : 	switch( dwID )
; 499  : 	{
; 500  : 	case ID_GO:
; 501  : 		if( cmd == IOBN_BTNUP )
; 502  : 		{
; 503  : 		}
; 504  : 		break;
; 505  : 	}
; 506  : }

  0000c	5d		 pop	 ebp
  0000d	c2 0c 00	 ret	 12			; 0000000cH
?iwm_command@ChangeNameResultWnd@@UAEXPAVioWnd@@HK@Z ENDP ; ChangeNameResultWnd::iwm_command
_TEXT	ENDS
PUBLIC	__real@43440000
PUBLIC	__real@3f266666
PUBLIC	__real@3f59999a
PUBLIC	??_C@_0BO@PNBCHPIP@ChangeNameResultWnd?3?3OnRender?$AA@ ; `string'
EXTRN	__imp_?PrintTextWidthCut@ioFontManager@@QAEXMMMMPBD0@Z:PROC
EXTRN	__imp_?c_str@ioHashString@@QBEPBDXZ:PROC
EXTRN	__imp_?PrintText@ioFontManager@@QAAXMMMPBDZZ:PROC
EXTRN	__imp_?GetString@ioStringManager@@QAEPADPBD0HW4FileNamePrefix@1@@Z:PROC
EXTRN	__imp_?GetSingleton@ioStringManager@@SAAAV1@XZ:PROC
EXTRN	__imp_?SetTextColor@ioFontManager@@QAEXK@Z:PROC
EXTRN	__imp_?SetAlignType@ioFontManager@@QAEXW4TextAlignType@@@Z:PROC
EXTRN	__imp_?SetBkColor@ioFontManager@@QAEXHHH@Z:PROC
EXTRN	__imp_?SetTextStyle@ioFontManager@@QAEXW4TextStyle@@@Z:PROC
EXTRN	__imp_?GetSingleton@ioFontManager@@SAAAV1@XZ:PROC
EXTRN	__imp_?GetDerivedPosY@ioWnd@@QBEHXZ:PROC
EXTRN	__imp_?GetDerivedPosX@ioWnd@@QBEHXZ:PROC
EXTRN	__imp_?OnRender@ioWnd@@MAEXXZ:PROC
EXTRN	__fltused:DWORD
;	COMDAT __real@43440000
CONST	SEGMENT
__real@43440000 DD 043440000r			; 196
CONST	ENDS
;	COMDAT __real@3f266666
CONST	SEGMENT
__real@3f266666 DD 03f266666r			; 0.65
CONST	ENDS
;	COMDAT __real@3f59999a
CONST	SEGMENT
__real@3f59999a DD 03f59999ar			; 0.85
CONST	ENDS
;	COMDAT ??_C@_0BO@PNBCHPIP@ChangeNameResultWnd?3?3OnRender?$AA@
CONST	SEGMENT
??_C@_0BO@PNBCHPIP@ChangeNameResultWnd?3?3OnRender?$AA@ DB 'ChangeNameRes'
	DB	'ultWnd::OnRender', 00H			; `string'
; Function compile flags: /Ogsp
CONST	ENDS
;	COMDAT ?OnRender@ChangeNameResultWnd@@MAEXXZ
_TEXT	SEGMENT
tv485 = -20						; size = 4
tv417 = -20						; size = 4
tv424 = -16						; size = 4
_iXPos$ = -16						; size = 4
_this$ = -12						; size = 4
tv419 = -8						; size = 4
tv395 = -8						; size = 4
tv421 = -4						; size = 4
_iYPos$ = -4						; size = 4
?OnRender@ChangeNameResultWnd@@MAEXXZ PROC		; ChangeNameResultWnd::OnRender, COMDAT
; _this$ = ecx

; 562  : {

  00000	55		 push	 ebp
  00001	8b ec		 mov	 ebp, esp
  00003	83 ec 14	 sub	 esp, 20			; 00000014H
  00006	53		 push	 ebx
  00007	56		 push	 esi
  00008	8b f1		 mov	 esi, ecx
  0000a	57		 push	 edi
  0000b	89 75 f4	 mov	 DWORD PTR _this$[ebp], esi

; 563  : 	ioWnd::OnRender();

  0000e	ff 15 00 00 00
	00		 call	 DWORD PTR __imp_?OnRender@ioWnd@@MAEXXZ

; 564  : 
; 565  : 	int iXPos = GetDerivedPosX();

  00014	8b ce		 mov	 ecx, esi
  00016	ff 15 00 00 00
	00		 call	 DWORD PTR __imp_?GetDerivedPosX@ioWnd@@QBEHXZ
  0001c	8b d8		 mov	 ebx, eax

; 566  : 	int iYPos = GetDerivedPosY();

  0001e	8b ce		 mov	 ecx, esi
  00020	89 5d f0	 mov	 DWORD PTR _iXPos$[ebp], ebx
  00023	ff 15 00 00 00
	00		 call	 DWORD PTR __imp_?GetDerivedPosY@ioWnd@@QBEHXZ

; 567  : 
; 568  : 	enum
; 569  : 	{
; 570  : 		ICON_X		= 129,
; 571  : 		ICON_Y		= 105,
; 572  : 
; 573  : 		TITLE_X		= 129,
; 574  : 		TITLE_Y		= 152,
; 575  : 
; 576  : 		LIST_X		= 27,
; 577  : 		RIGHT_X		= 227,
; 578  : 		LIST_Y		= 206,
; 579  : 		LIST_GAP	= 21,
; 580  : 
; 581  : 		FINAL_DESC_X	= 129,
; 582  : 		FINAL_DESC_Y	= 421,
; 583  : 	};
; 584  : 
; 585  : 	if( m_pBackEffect )

  00029	33 ff		 xor	 edi, edi
  0002b	8b d0		 mov	 edx, eax
  0002d	89 55 fc	 mov	 DWORD PTR _iYPos$[ebp], edx
  00030	39 be 68 01 00
	00		 cmp	 DWORD PTR [esi+360], edi
  00036	74 3a		 je	 SHORT $LN4@OnRender

; 586  : 		m_pBackEffect->Render( iXPos+ICON_X, iYPos+ICON_Y, UI_RENDER_MULTIPLY );

  00038	8b 86 68 01 00
	00		 mov	 eax, DWORD PTR [esi+360]
  0003e	8b 08		 mov	 ecx, DWORD PTR [eax]
  00040	57		 push	 edi
  00041	57		 push	 edi
  00042	57		 push	 edi
  00043	6a 08		 push	 8
  00045	51		 push	 ecx
  00046	83 c2 69	 add	 edx, 105		; 00000069H
  00049	0f 57 c0	 xorps	 xmm0, xmm0
  0004c	f3 0f 2a c2	 cvtsi2ss xmm0, edx
  00050	51		 push	 ecx
  00051	f3 0f 11 44 24
	04		 movss	 DWORD PTR [esp+4], xmm0
  00057	8d 93 81 00 00
	00		 lea	 edx, DWORD PTR [ebx+129]
  0005d	0f 57 c0	 xorps	 xmm0, xmm0
  00060	8b c8		 mov	 ecx, eax
  00062	8b 00		 mov	 eax, DWORD PTR [eax]
  00064	f3 0f 2a c2	 cvtsi2ss xmm0, edx
  00068	f3 0f 11 04 24	 movss	 DWORD PTR [esp], xmm0
  0006d	ff 10		 call	 DWORD PTR [eax]
  0006f	8b 55 fc	 mov	 edx, DWORD PTR _iYPos$[ebp]
$LN4@OnRender:

; 587  : 
; 588  : 	if( m_pIcon )

  00072	39 be 64 01 00
	00		 cmp	 DWORD PTR [esi+356], edi
  00078	74 32		 je	 SHORT $LN3@OnRender

; 589  : 		m_pIcon->Render( iXPos+ICON_X, iYPos+ICON_Y );

  0007a	8b 8e 64 01 00
	00		 mov	 ecx, DWORD PTR [esi+356]
  00080	8b 01		 mov	 eax, DWORD PTR [ecx]
  00082	57		 push	 edi
  00083	57		 push	 edi
  00084	57		 push	 edi
  00085	57		 push	 edi
  00086	83 c2 69	 add	 edx, 105		; 00000069H
  00089	0f 57 c0	 xorps	 xmm0, xmm0
  0008c	f3 0f 2a c2	 cvtsi2ss xmm0, edx
  00090	51		 push	 ecx
  00091	51		 push	 ecx
  00092	f3 0f 11 44 24
	04		 movss	 DWORD PTR [esp+4], xmm0
  00098	8d 93 81 00 00
	00		 lea	 edx, DWORD PTR [ebx+129]
  0009e	0f 57 c0	 xorps	 xmm0, xmm0
  000a1	f3 0f 2a c2	 cvtsi2ss xmm0, edx
  000a5	f3 0f 11 04 24	 movss	 DWORD PTR [esp], xmm0
  000aa	ff 10		 call	 DWORD PTR [eax]
$LN3@OnRender:

; 590  : 
; 591  : 	// Title
; 592  : 	g_FontMgr.SetTextStyle( TS_NORMAL );

  000ac	8b 35 00 00 00
	00		 mov	 esi, DWORD PTR __imp_?GetSingleton@ioFontManager@@SAAAV1@XZ
  000b2	57		 push	 edi
  000b3	ff d6		 call	 esi
  000b5	8b c8		 mov	 ecx, eax
  000b7	ff 15 00 00 00
	00		 call	 DWORD PTR __imp_?SetTextStyle@ioFontManager@@QAEXW4TextStyle@@@Z

; 593  : 	g_FontMgr.SetBkColor( 0, 0, 0 );

  000bd	57		 push	 edi
  000be	57		 push	 edi
  000bf	57		 push	 edi
  000c0	ff d6		 call	 esi
  000c2	8b c8		 mov	 ecx, eax
  000c4	ff 15 00 00 00
	00		 call	 DWORD PTR __imp_?SetBkColor@ioFontManager@@QAEXHHH@Z

; 594  : 	g_FontMgr.SetAlignType( TAT_CENTER );

  000ca	6a 01		 push	 1
  000cc	ff d6		 call	 esi
  000ce	8b c8		 mov	 ecx, eax
  000d0	ff 15 00 00 00
	00		 call	 DWORD PTR __imp_?SetAlignType@ioFontManager@@QAEXW4TextAlignType@@@Z

; 595  : 	g_FontMgr.SetTextColor( TCT_DEFAULT_DARKGRAY );

  000d6	68 3a 3a 3a ff	 push	 -12961222		; ff3a3a3aH
  000db	ff d6		 call	 esi
  000dd	8b c8		 mov	 ecx, eax
  000df	ff 15 00 00 00
	00		 call	 DWORD PTR __imp_?SetTextColor@ioFontManager@@QAEXK@Z

; 596  : 	if( m_dwEtcType == ioEtcItem::EIT_ETC_CHANGE_ID )

  000e5	8b 45 f4	 mov	 eax, DWORD PTR _this$[ebp]

; 597  : 		g_FontMgr.PrintText( iXPos+TITLE_X, iYPos+TITLE_Y, FONT_SIZE_17, STR(1) );

  000e8	81 c3 81 00 00
	00		 add	 ebx, 129		; 00000081H
  000ee	81 b8 60 01 00
	00 c4 c6 2d 00	 cmp	 DWORD PTR [eax+352], 3000004 ; 002dc6c4H
  000f8	0f 57 c0	 xorps	 xmm0, xmm0
  000fb	57		 push	 edi
  000fc	8b 3d 00 00 00
	00		 mov	 edi, DWORD PTR __imp_?GetSingleton@ioStringManager@@SAAAV1@XZ
  00102	f3 0f 2a c3	 cvtsi2ss xmm0, ebx
  00106	f3 0f 11 45 f8	 movss	 DWORD PTR tv395[ebp], xmm0
  0010b	75 04		 jne	 SHORT $LN2@OnRender
  0010d	6a 01		 push	 1

; 598  : 	else

  0010f	eb 02		 jmp	 SHORT $LN7@OnRender
$LN2@OnRender:

; 599  : 		g_FontMgr.PrintText( iXPos+TITLE_X, iYPos+TITLE_Y, FONT_SIZE_17, STR(2) );

  00111	6a 02		 push	 2
$LN7@OnRender:
  00113	68 00 00 00 00	 push	 OFFSET ??_C@_00CNPNBAHC@?$AA@
  00118	68 00 00 00 00	 push	 OFFSET ??_C@_0BO@PNBCHPIP@ChangeNameResultWnd?3?3OnRender?$AA@
  0011d	ff d7		 call	 edi
  0011f	8b 1d 00 00 00
	00		 mov	 ebx, DWORD PTR __imp_?GetString@ioStringManager@@QAEPADPBD0HW4FileNamePrefix@1@@Z
  00125	8b c8		 mov	 ecx, eax
  00127	ff d3		 call	 ebx
  00129	f3 0f 10 05 00
	00 00 00	 movss	 xmm0, DWORD PTR __real@3f59999a
  00131	50		 push	 eax
  00132	8b 45 fc	 mov	 eax, DWORD PTR _iYPos$[ebp]
  00135	83 ec 0c	 sub	 esp, 12			; 0000000cH
  00138	f3 0f 11 44 24
	08		 movss	 DWORD PTR [esp+8], xmm0
  0013e	0f 57 c0	 xorps	 xmm0, xmm0
  00141	05 98 00 00 00	 add	 eax, 152		; 00000098H
  00146	f3 0f 2a c0	 cvtsi2ss xmm0, eax
  0014a	f3 0f 11 44 24
	04		 movss	 DWORD PTR [esp+4], xmm0
  00150	f3 0f 10 45 f8	 movss	 xmm0, DWORD PTR tv395[ebp]
  00155	f3 0f 11 04 24	 movss	 DWORD PTR [esp], xmm0
  0015a	ff d6		 call	 esi
  0015c	50		 push	 eax
  0015d	ff 15 00 00 00
	00		 call	 DWORD PTR __imp_?PrintText@ioFontManager@@QAAXMMMPBDZZ
  00163	83 c4 14	 add	 esp, 20			; 00000014H

; 600  : 
; 601  : 	// Last
; 602  : 	g_FontMgr.SetTextStyle( TS_NORMAL );

  00166	6a 00		 push	 0
  00168	ff d6		 call	 esi
  0016a	8b c8		 mov	 ecx, eax
  0016c	ff 15 00 00 00
	00		 call	 DWORD PTR __imp_?SetTextStyle@ioFontManager@@QAEXW4TextStyle@@@Z

; 603  : 	g_FontMgr.SetBkColor( 0, 0, 0 );

  00172	33 c0		 xor	 eax, eax
  00174	50		 push	 eax
  00175	50		 push	 eax
  00176	50		 push	 eax
  00177	ff d6		 call	 esi
  00179	8b c8		 mov	 ecx, eax
  0017b	ff 15 00 00 00
	00		 call	 DWORD PTR __imp_?SetBkColor@ioFontManager@@QAEXHHH@Z

; 604  : 	g_FontMgr.SetAlignType( TAT_CENTER );

  00181	6a 01		 push	 1
  00183	ff d6		 call	 esi
  00185	8b c8		 mov	 ecx, eax
  00187	ff 15 00 00 00
	00		 call	 DWORD PTR __imp_?SetAlignType@ioFontManager@@QAEXW4TextAlignType@@@Z

; 605  : 	g_FontMgr.SetTextColor( TCT_DEFAULT_GREEN );

  0018d	68 22 72 11 ff	 push	 -15633886		; ff117222H
  00192	ff d6		 call	 esi
  00194	8b c8		 mov	 ecx, eax
  00196	ff 15 00 00 00
	00		 call	 DWORD PTR __imp_?SetTextColor@ioFontManager@@QAEXK@Z

; 606  : 	g_FontMgr.PrintText( iXPos+FINAL_DESC_X, iYPos+FINAL_DESC_Y, FONT_SIZE_17, STR(3) );

  0019c	6a 00		 push	 0
  0019e	6a 03		 push	 3
  001a0	68 00 00 00 00	 push	 OFFSET ??_C@_00CNPNBAHC@?$AA@
  001a5	68 00 00 00 00	 push	 OFFSET ??_C@_0BO@PNBCHPIP@ChangeNameResultWnd?3?3OnRender?$AA@
  001aa	ff d7		 call	 edi
  001ac	8b c8		 mov	 ecx, eax
  001ae	ff d3		 call	 ebx
  001b0	f3 0f 10 05 00
	00 00 00	 movss	 xmm0, DWORD PTR __real@3f59999a
  001b8	50		 push	 eax
  001b9	8b 45 fc	 mov	 eax, DWORD PTR _iYPos$[ebp]
  001bc	83 ec 0c	 sub	 esp, 12			; 0000000cH
  001bf	f3 0f 11 44 24
	08		 movss	 DWORD PTR [esp+8], xmm0
  001c5	05 a5 01 00 00	 add	 eax, 421		; 000001a5H
  001ca	0f 57 c0	 xorps	 xmm0, xmm0
  001cd	f3 0f 2a c0	 cvtsi2ss xmm0, eax
  001d1	f3 0f 11 44 24
	04		 movss	 DWORD PTR [esp+4], xmm0
  001d7	f3 0f 10 45 f8	 movss	 xmm0, DWORD PTR tv395[ebp]
  001dc	f3 0f 11 04 24	 movss	 DWORD PTR [esp], xmm0
  001e1	ff d6		 call	 esi
  001e3	50		 push	 eax
  001e4	ff 15 00 00 00
	00		 call	 DWORD PTR __imp_?PrintText@ioFontManager@@QAAXMMMPBDZZ
  001ea	83 c4 14	 add	 esp, 20			; 00000014H

; 607  : 
; 608  : 	//
; 609  : 	g_FontMgr.SetTextStyle( TS_NORMAL );

  001ed	6a 00		 push	 0
  001ef	ff d6		 call	 esi
  001f1	8b c8		 mov	 ecx, eax
  001f3	ff 15 00 00 00
	00		 call	 DWORD PTR __imp_?SetTextStyle@ioFontManager@@QAEXW4TextStyle@@@Z

; 610  : 	g_FontMgr.SetAlignType( TAT_LEFT );

  001f9	6a 00		 push	 0
  001fb	ff d6		 call	 esi
  001fd	8b c8		 mov	 ecx, eax
  001ff	ff 15 00 00 00
	00		 call	 DWORD PTR __imp_?SetAlignType@ioFontManager@@QAEXW4TextAlignType@@@Z

; 611  : 	g_FontMgr.SetBkColor( 0, 0, 0 );

  00205	33 c0		 xor	 eax, eax
  00207	50		 push	 eax
  00208	50		 push	 eax
  00209	50		 push	 eax
  0020a	ff d6		 call	 esi
  0020c	8b c8		 mov	 ecx, eax
  0020e	ff 15 00 00 00
	00		 call	 DWORD PTR __imp_?SetBkColor@ioFontManager@@QAEXHHH@Z

; 612  : 	g_FontMgr.SetTextColor( TCT_DEFAULT_DARKGRAY );

  00214	68 3a 3a 3a ff	 push	 -12961222		; ff3a3a3aH
  00219	ff d6		 call	 esi
  0021b	8b c8		 mov	 ecx, eax
  0021d	ff 15 00 00 00
	00		 call	 DWORD PTR __imp_?SetTextColor@ioFontManager@@QAEXK@Z

; 613  : 	g_FontMgr.PrintText( iXPos+LIST_X, iYPos+LIST_Y, FONT_SIZE_13, STR(4) );

  00223	8b 45 fc	 mov	 eax, DWORD PTR _iYPos$[ebp]
  00226	05 ce 00 00 00	 add	 eax, 206		; 000000ceH
  0022b	0f 57 c0	 xorps	 xmm0, xmm0
  0022e	f3 0f 2a c0	 cvtsi2ss xmm0, eax
  00232	8b 45 f0	 mov	 eax, DWORD PTR _iXPos$[ebp]
  00235	6a 00		 push	 0
  00237	6a 04		 push	 4
  00239	f3 0f 11 45 ec	 movss	 DWORD PTR tv417[ebp], xmm0
  0023e	83 c0 1b	 add	 eax, 27			; 0000001bH
  00241	0f 57 c0	 xorps	 xmm0, xmm0
  00244	68 00 00 00 00	 push	 OFFSET ??_C@_00CNPNBAHC@?$AA@
  00249	f3 0f 2a c0	 cvtsi2ss xmm0, eax
  0024d	68 00 00 00 00	 push	 OFFSET ??_C@_0BO@PNBCHPIP@ChangeNameResultWnd?3?3OnRender?$AA@
  00252	f3 0f 11 45 f8	 movss	 DWORD PTR tv419[ebp], xmm0
  00257	ff d7		 call	 edi
  00259	8b c8		 mov	 ecx, eax
  0025b	ff d3		 call	 ebx
  0025d	f3 0f 10 05 00
	00 00 00	 movss	 xmm0, DWORD PTR __real@3f266666
  00265	50		 push	 eax
  00266	83 ec 0c	 sub	 esp, 12			; 0000000cH
  00269	f3 0f 11 44 24
	08		 movss	 DWORD PTR [esp+8], xmm0
  0026f	f3 0f 10 45 ec	 movss	 xmm0, DWORD PTR tv417[ebp]
  00274	f3 0f 11 44 24
	04		 movss	 DWORD PTR [esp+4], xmm0
  0027a	f3 0f 10 45 f8	 movss	 xmm0, DWORD PTR tv419[ebp]
  0027f	f3 0f 11 04 24	 movss	 DWORD PTR [esp], xmm0
  00284	ff d6		 call	 esi
  00286	50		 push	 eax
  00287	ff 15 00 00 00
	00		 call	 DWORD PTR __imp_?PrintText@ioFontManager@@QAAXMMMPBDZZ
  0028d	83 c4 14	 add	 esp, 20			; 00000014H

; 614  : 
; 615  : 	g_FontMgr.SetTextColor( TCT_DEFAULT_LIGHTGRAY );

  00290	68 a7 a7 a7 ff	 push	 -5789785		; ffa7a7a7H
  00295	ff d6		 call	 esi
  00297	8b c8		 mov	 ecx, eax
  00299	ff 15 00 00 00
	00		 call	 DWORD PTR __imp_?SetTextColor@ioFontManager@@QAEXK@Z

; 616  : 	g_FontMgr.PrintText( iXPos+LIST_X, iYPos+LIST_Y+LIST_GAP, FONT_SIZE_13, STR(5) );

  0029f	8b 45 fc	 mov	 eax, DWORD PTR _iYPos$[ebp]
  002a2	6a 00		 push	 0
  002a4	6a 05		 push	 5
  002a6	05 e3 00 00 00	 add	 eax, 227		; 000000e3H
  002ab	0f 57 c0	 xorps	 xmm0, xmm0
  002ae	68 00 00 00 00	 push	 OFFSET ??_C@_00CNPNBAHC@?$AA@
  002b3	f3 0f 2a c0	 cvtsi2ss xmm0, eax
  002b7	68 00 00 00 00	 push	 OFFSET ??_C@_0BO@PNBCHPIP@ChangeNameResultWnd?3?3OnRender?$AA@
  002bc	f3 0f 11 45 fc	 movss	 DWORD PTR tv421[ebp], xmm0
  002c1	ff d7		 call	 edi
  002c3	8b c8		 mov	 ecx, eax
  002c5	ff d3		 call	 ebx
  002c7	f3 0f 10 05 00
	00 00 00	 movss	 xmm0, DWORD PTR __real@3f266666
  002cf	50		 push	 eax
  002d0	83 ec 0c	 sub	 esp, 12			; 0000000cH
  002d3	f3 0f 11 44 24
	08		 movss	 DWORD PTR [esp+8], xmm0
  002d9	f3 0f 10 45 fc	 movss	 xmm0, DWORD PTR tv421[ebp]
  002de	f3 0f 11 44 24
	04		 movss	 DWORD PTR [esp+4], xmm0
  002e4	f3 0f 10 45 f8	 movss	 xmm0, DWORD PTR tv419[ebp]
  002e9	f3 0f 11 04 24	 movss	 DWORD PTR [esp], xmm0
  002ee	ff d6		 call	 esi
  002f0	50		 push	 eax
  002f1	ff 15 00 00 00
	00		 call	 DWORD PTR __imp_?PrintText@ioFontManager@@QAAXMMMPBDZZ
  002f7	83 c4 14	 add	 esp, 20			; 00000014H

; 617  : 
; 618  : 	g_FontMgr.SetTextStyle( TS_NORMAL );

  002fa	6a 00		 push	 0
  002fc	ff d6		 call	 esi
  002fe	8b c8		 mov	 ecx, eax
  00300	ff 15 00 00 00
	00		 call	 DWORD PTR __imp_?SetTextStyle@ioFontManager@@QAEXW4TextStyle@@@Z

; 619  : 	g_FontMgr.SetAlignType( TAT_RIGHT );

  00306	6a 02		 push	 2
  00308	ff d6		 call	 esi
  0030a	8b c8		 mov	 ecx, eax
  0030c	ff 15 00 00 00
	00		 call	 DWORD PTR __imp_?SetAlignType@ioFontManager@@QAEXW4TextAlignType@@@Z

; 620  : 	g_FontMgr.SetBkColor( 0, 0, 0 );

  00312	33 c0		 xor	 eax, eax
  00314	50		 push	 eax
  00315	50		 push	 eax
  00316	50		 push	 eax
  00317	ff d6		 call	 esi
  00319	8b c8		 mov	 ecx, eax
  0031b	ff 15 00 00 00
	00		 call	 DWORD PTR __imp_?SetBkColor@ioFontManager@@QAEXHHH@Z

; 621  : 	g_FontMgr.SetTextColor( TCT_DEFAULT_DARKGRAY );

  00321	68 3a 3a 3a ff	 push	 -12961222		; ff3a3a3aH
  00326	ff d6		 call	 esi
  00328	8b c8		 mov	 ecx, eax
  0032a	ff 15 00 00 00
	00		 call	 DWORD PTR __imp_?SetTextColor@ioFontManager@@QAEXK@Z

; 622  : 	g_FontMgr.PrintTextWidthCut( iXPos+RIGHT_X, iYPos+LIST_Y, FONT_SIZE_13, 196.0f, STR(6), m_szNewName.c_str() );

  00330	8b 45 f0	 mov	 eax, DWORD PTR _iXPos$[ebp]
  00333	05 e3 00 00 00	 add	 eax, 227		; 000000e3H
  00338	0f 57 c0	 xorps	 xmm0, xmm0
  0033b	f3 0f 2a c0	 cvtsi2ss xmm0, eax
  0033f	f3 0f 11 45 f0	 movss	 DWORD PTR tv424[ebp], xmm0
  00344	8b 4d f4	 mov	 ecx, DWORD PTR _this$[ebp]
  00347	81 c1 7c 01 00
	00		 add	 ecx, 380		; 0000017cH
  0034d	ff 15 00 00 00
	00		 call	 DWORD PTR __imp_?c_str@ioHashString@@QBEPBDXZ
  00353	50		 push	 eax
  00354	6a 00		 push	 0
  00356	6a 06		 push	 6
  00358	68 00 00 00 00	 push	 OFFSET ??_C@_00CNPNBAHC@?$AA@
  0035d	68 00 00 00 00	 push	 OFFSET ??_C@_0BO@PNBCHPIP@ChangeNameResultWnd?3?3OnRender?$AA@
  00362	ff d7		 call	 edi
  00364	8b c8		 mov	 ecx, eax
  00366	ff d3		 call	 ebx
  00368	f3 0f 10 05 00
	00 00 00	 movss	 xmm0, DWORD PTR __real@43440000
  00370	50		 push	 eax
  00371	83 ec 10	 sub	 esp, 16			; 00000010H
  00374	f3 0f 11 44 24
	0c		 movss	 DWORD PTR [esp+12], xmm0
  0037a	f3 0f 10 05 00
	00 00 00	 movss	 xmm0, DWORD PTR __real@3f266666
  00382	f3 0f 11 44 24
	08		 movss	 DWORD PTR [esp+8], xmm0
  00388	f3 0f 10 45 ec	 movss	 xmm0, DWORD PTR tv417[ebp]
  0038d	f3 0f 11 44 24
	04		 movss	 DWORD PTR [esp+4], xmm0
  00393	f3 0f 10 45 f0	 movss	 xmm0, DWORD PTR tv424[ebp]
  00398	f3 0f 11 04 24	 movss	 DWORD PTR [esp], xmm0
  0039d	ff d6		 call	 esi
  0039f	8b c8		 mov	 ecx, eax
  003a1	ff 15 00 00 00
	00		 call	 DWORD PTR __imp_?PrintTextWidthCut@ioFontManager@@QAEXMMMMPBD0@Z

; 623  : 
; 624  : 	g_FontMgr.SetTextColor( TCT_DEFAULT_LIGHTGRAY );

  003a7	68 a7 a7 a7 ff	 push	 -5789785		; ffa7a7a7H
  003ac	ff d6		 call	 esi
  003ae	8b c8		 mov	 ecx, eax
  003b0	ff 15 00 00 00
	00		 call	 DWORD PTR __imp_?SetTextColor@ioFontManager@@QAEXK@Z

; 625  : 	g_FontMgr.PrintTextWidthCut( iXPos+RIGHT_X, iYPos+LIST_Y+LIST_GAP, FONT_SIZE_13, 196.0f, STR(7), m_szPreName.c_str() );

  003b6	8b 4d f4	 mov	 ecx, DWORD PTR _this$[ebp]
  003b9	81 c1 6c 01 00
	00		 add	 ecx, 364		; 0000016cH
  003bf	ff 15 00 00 00
	00		 call	 DWORD PTR __imp_?c_str@ioHashString@@QBEPBDXZ
  003c5	50		 push	 eax
  003c6	6a 00		 push	 0
  003c8	6a 07		 push	 7
  003ca	68 00 00 00 00	 push	 OFFSET ??_C@_00CNPNBAHC@?$AA@
  003cf	68 00 00 00 00	 push	 OFFSET ??_C@_0BO@PNBCHPIP@ChangeNameResultWnd?3?3OnRender?$AA@
  003d4	ff d7		 call	 edi
  003d6	8b c8		 mov	 ecx, eax
  003d8	ff d3		 call	 ebx
  003da	f3 0f 10 05 00
	00 00 00	 movss	 xmm0, DWORD PTR __real@43440000
  003e2	50		 push	 eax
  003e3	83 ec 10	 sub	 esp, 16			; 00000010H
  003e6	f3 0f 11 44 24
	0c		 movss	 DWORD PTR [esp+12], xmm0
  003ec	f3 0f 10 05 00
	00 00 00	 movss	 xmm0, DWORD PTR __real@3f266666
  003f4	f3 0f 11 44 24
	08		 movss	 DWORD PTR [esp+8], xmm0
  003fa	f3 0f 10 45 fc	 movss	 xmm0, DWORD PTR tv421[ebp]
  003ff	f3 0f 11 44 24
	04		 movss	 DWORD PTR [esp+4], xmm0
  00405	f3 0f 10 45 f0	 movss	 xmm0, DWORD PTR tv424[ebp]
  0040a	f3 0f 11 04 24	 movss	 DWORD PTR [esp], xmm0
  0040f	ff d6		 call	 esi
  00411	8b c8		 mov	 ecx, eax
  00413	ff 15 00 00 00
	00		 call	 DWORD PTR __imp_?PrintTextWidthCut@ioFontManager@@QAEXMMMMPBD0@Z
  00419	5f		 pop	 edi
  0041a	5e		 pop	 esi
  0041b	5b		 pop	 ebx

; 626  : }

  0041c	c9		 leave
  0041d	c3		 ret	 0
?OnRender@ChangeNameResultWnd@@MAEXXZ ENDP		; ChangeNameResultWnd::OnRender
_TEXT	ENDS
PUBLIC	?GetSingleton@?$Singleton@VioEtcItemManager@@@@SAAAVioEtcItemManager@@XZ ; Singleton<ioEtcItemManager>::GetSingleton
EXTRN	?ms_Singleton@?$Singleton@VioEtcItemManager@@@@1PAVioEtcItemManager@@A:DWORD ; Singleton<ioEtcItemManager>::ms_Singleton
; Function compile flags: /Ogsp
; File d:\lost saga for developer\youtube\tutorial\source\src\io3dengine\iosingleton.h
;	COMDAT ?GetSingleton@?$Singleton@VioEtcItemManager@@@@SAAAVioEtcItemManager@@XZ
_TEXT	SEGMENT
?GetSingleton@?$Singleton@VioEtcItemManager@@@@SAAAVioEtcItemManager@@XZ PROC ; Singleton<ioEtcItemManager>::GetSingleton, COMDAT

; 42   : 		assert( ms_Singleton );
; 43   : 		return (*ms_Singleton);

  00000	a1 00 00 00 00	 mov	 eax, DWORD PTR ?ms_Singleton@?$Singleton@VioEtcItemManager@@@@1PAVioEtcItemManager@@A ; Singleton<ioEtcItemManager>::ms_Singleton

; 44   : 	}

  00005	c3		 ret	 0
?GetSingleton@?$Singleton@VioEtcItemManager@@@@SAAAVioEtcItemManager@@XZ ENDP ; Singleton<ioEtcItemManager>::GetSingleton
; Function compile flags: /Ogsp
; File c:\program files (x86)\microsoft sdks\windows\v7.0a\include\strsafe.h
_TEXT	ENDS
;	COMDAT ?StringValidateDestA@@YGJPBDII@Z
_TEXT	SEGMENT
_cchMax$ = 8						; size = 4
?StringValidateDestA@@YGJPBDII@Z PROC			; StringValidateDestA, COMDAT
; _cchDest$ = ecx

; 8721 : {

  00000	55		 push	 ebp
  00001	8b ec		 mov	 ebp, esp

; 8722 :     HRESULT hr = S_OK;

  00003	33 c0		 xor	 eax, eax

; 8723 : 
; 8724 :     if ((cchDest == 0) || (cchDest > cchMax))

  00005	85 c9		 test	 ecx, ecx
  00007	74 05		 je	 SHORT $LN1@StringVali
  00009	3b 4d 08	 cmp	 ecx, DWORD PTR _cchMax$[ebp]
  0000c	76 05		 jbe	 SHORT $LN2@StringVali
$LN1@StringVali:

; 8725 :     {
; 8726 :         hr = STRSAFE_E_INVALID_PARAMETER;

  0000e	b8 57 00 07 80	 mov	 eax, -2147024809	; 80070057H
$LN2@StringVali:

; 8727 :     }
; 8728 : 
; 8729 :     return hr;
; 8730 : }

  00013	5d		 pop	 ebp
  00014	c2 04 00	 ret	 4
?StringValidateDestA@@YGJPBDII@Z ENDP			; StringValidateDestA
_TEXT	ENDS
EXTRN	__imp___vsnprintf:PROC
; Function compile flags: /Ogsp
;	COMDAT ?StringVPrintfWorkerA@@YGJPADIPAIPBD0@Z
_TEXT	SEGMENT
_pcchNewDestLength$ = 8					; size = 4
_pszFormat$ = 12					; size = 4
_argList$ = 16						; size = 4
?StringVPrintfWorkerA@@YGJPADIPAIPBD0@Z PROC		; StringVPrintfWorkerA, COMDAT
; _pszDest$ = edi
; _cchDest$ = eax

; 9029 : {

  00000	55		 push	 ebp
  00001	8b ec		 mov	 ebp, esp
  00003	53		 push	 ebx
  00004	56		 push	 esi

; 9030 :     HRESULT hr = S_OK;
; 9031 :     int iRet;
; 9032 :     size_t cchMax;
; 9033 :     size_t cchNewDestLength = 0;
; 9034 : 
; 9035 :     // leave the last space for the null terminator
; 9036 :     cchMax = cchDest - 1;
; 9037 : 
; 9038 : #if (STRSAFE_USE_SECURE_CRT == 1) && !defined(STRSAFE_LIB_IMPL)
; 9039 :     iRet = _vsnprintf_s(pszDest, cchDest, cchMax, pszFormat, argList);
; 9040 : #else
; 9041 :     #pragma warning(push)
; 9042 :     #pragma warning(disable: __WARNING_BANNED_API_USAGE)// "STRSAFE not included"
; 9043 :     iRet = _vsnprintf(pszDest, cchMax, pszFormat, argList);

  00005	ff 75 10	 push	 DWORD PTR _argList$[ebp]
  00008	8d 70 ff	 lea	 esi, DWORD PTR [eax-1]
  0000b	ff 75 0c	 push	 DWORD PTR _pszFormat$[ebp]
  0000e	33 db		 xor	 ebx, ebx
  00010	56		 push	 esi
  00011	57		 push	 edi
  00012	ff 15 00 00 00
	00		 call	 DWORD PTR __imp___vsnprintf
  00018	83 c4 10	 add	 esp, 16			; 00000010H

; 9044 :     #pragma warning(pop)
; 9045 : #endif
; 9046 :     // ASSERT((iRet < 0) || (((size_t)iRet) <= cchMax));
; 9047 : 
; 9048 :     if ((iRet < 0) || (((size_t)iRet) > cchMax))

  0001b	85 c0		 test	 eax, eax
  0001d	78 0b		 js	 SHORT $LN5@StringVPri
  0001f	3b c6		 cmp	 eax, esi
  00021	77 07		 ja	 SHORT $LN5@StringVPri

; 9058 :     }
; 9059 :     else if (((size_t)iRet) == cchMax)

  00023	75 0f		 jne	 SHORT $LN2@StringVPri

; 9060 :     {
; 9061 :         // need to null terminate the string
; 9062 :         pszDest += cchMax;
; 9063 :         *pszDest = '\0';

  00025	88 1c 3e	 mov	 BYTE PTR [esi+edi], bl

; 9064 : 
; 9065 :         cchNewDestLength = cchMax;
; 9066 :     }
; 9067 :     else

  00028	eb 08		 jmp	 SHORT $LN9@StringVPri
$LN5@StringVPri:

; 9049 :     {
; 9050 :         // need to null terminate the string
; 9051 :         pszDest += cchMax;
; 9052 :         *pszDest = '\0';

  0002a	88 1c 3e	 mov	 BYTE PTR [esi+edi], bl

; 9055 : 
; 9056 :         // we have truncated pszDest
; 9057 :         hr = STRSAFE_E_INSUFFICIENT_BUFFER;

  0002d	bb 7a 00 07 80	 mov	 ebx, -2147024774	; 8007007aH
$LN9@StringVPri:

; 9053 : 
; 9054 :         cchNewDestLength = cchMax;

  00032	8b c6		 mov	 eax, esi
$LN2@StringVPri:

; 9068 :     {
; 9069 :         cchNewDestLength = (size_t)iRet;
; 9070 :     }
; 9071 : 
; 9072 :     if (pcchNewDestLength)

  00034	8b 4d 08	 mov	 ecx, DWORD PTR _pcchNewDestLength$[ebp]
  00037	85 c9		 test	 ecx, ecx
  00039	74 02		 je	 SHORT $LN1@StringVPri

; 9073 :     {
; 9074 :         *pcchNewDestLength = cchNewDestLength;

  0003b	89 01		 mov	 DWORD PTR [ecx], eax
$LN1@StringVPri:
  0003d	5e		 pop	 esi

; 9075 :     }
; 9076 : 
; 9077 :     return hr;

  0003e	8b c3		 mov	 eax, ebx
  00040	5b		 pop	 ebx

; 9078 : }

  00041	5d		 pop	 ebp
  00042	c2 0c 00	 ret	 12			; 0000000cH
?StringVPrintfWorkerA@@YGJPADIPAIPBD0@Z ENDP		; StringVPrintfWorkerA
_TEXT	ENDS
PUBLIC	?_DECSTR@@YAXPADH@Z				; _DECSTR
; Function compile flags: /Ogsp
; File d:\lost saga for developer\youtube\tutorial\source\src\lsclient\stringprotect.h
;	COMDAT ?_DECSTR@@YAXPADH@Z
_TEXT	SEGMENT
_s$ = 8							; size = 4
_l$ = 12						; size = 4
?_DECSTR@@YAXPADH@Z PROC				; _DECSTR, COMDAT

; 40   : __forceinline void _DECSTR(char* s, int l){int i=0,l4=(l-1)/4,*p=(int*)s;s[l-1]=0;for(;i<l4;++i)*(p++)^=0xEAEBECED;for(i=l4*4;i<l-1;++i)s[i]^=0xED-i%4;}

  00000	55		 push	 ebp
  00001	8b ec		 mov	 ebp, esp
  00003	8b 4d 0c	 mov	 ecx, DWORD PTR _l$[ebp]
  00006	56		 push	 esi
  00007	8b 75 08	 mov	 esi, DWORD PTR _s$[ebp]
  0000a	57		 push	 edi
  0000b	8d 79 ff	 lea	 edi, DWORD PTR [ecx-1]
  0000e	8b c7		 mov	 eax, edi
  00010	99		 cdq
  00011	83 e2 03	 and	 edx, 3
  00014	03 c2		 add	 eax, edx
  00016	c1 f8 02	 sar	 eax, 2
  00019	8b d6		 mov	 edx, esi
  0001b	c6 44 0e ff 00	 mov	 BYTE PTR [esi+ecx-1], 0
  00020	85 c0		 test	 eax, eax
  00022	7e 0e		 jle	 SHORT $LN4@DECSTR
  00024	8b c8		 mov	 ecx, eax
$LL6@DECSTR:
  00026	81 32 ed ec eb
	ea		 xor	 DWORD PTR [edx], -353637139 ; eaebecedH
  0002c	83 c2 04	 add	 edx, 4
  0002f	49		 dec	 ecx
  00030	75 f4		 jne	 SHORT $LL6@DECSTR
$LN4@DECSTR:
  00032	c1 e0 02	 shl	 eax, 2
  00035	eb 17		 jmp	 SHORT $LN14@DECSTR
$LL3@DECSTR:
  00037	8b c8		 mov	 ecx, eax
  00039	81 e1 03 00 00
	80		 and	 ecx, -2147483645	; 80000003H
  0003f	79 05		 jns	 SHORT $LN13@DECSTR
  00041	49		 dec	 ecx
  00042	83 c9 fc	 or	 ecx, -4			; fffffffcH
  00045	41		 inc	 ecx
$LN13@DECSTR:
  00046	b2 ed		 mov	 dl, -19			; ffffffedH
  00048	2a d1		 sub	 dl, cl
  0004a	30 14 30	 xor	 BYTE PTR [eax+esi], dl
  0004d	40		 inc	 eax
$LN14@DECSTR:
  0004e	3b c7		 cmp	 eax, edi
  00050	7c e5		 jl	 SHORT $LL3@DECSTR
  00052	5f		 pop	 edi
  00053	5e		 pop	 esi
  00054	5d		 pop	 ebp
  00055	c3		 ret	 0
?_DECSTR@@YAXPADH@Z ENDP				; _DECSTR
_TEXT	ENDS
PUBLIC	??0ETCITEMSLOT@ioUserEtcItem@@QAE@XZ		; ioUserEtcItem::ETCITEMSLOT::ETCITEMSLOT
; Function compile flags: /Ogsp
; File d:\lost saga for developer\youtube\tutorial\source\src\lsclient\iouseretcitem.h
;	COMDAT ??0ETCITEMSLOT@ioUserEtcItem@@QAE@XZ
_TEXT	SEGMENT
??0ETCITEMSLOT@ioUserEtcItem@@QAE@XZ PROC		; ioUserEtcItem::ETCITEMSLOT::ETCITEMSLOT, COMDAT
; _this$ = ecx

; 22   : 		ETCITEMSLOT()

  00000	8b c1		 mov	 eax, ecx

; 23   : 		{
; 24   : 			m_iType   = 0;

  00002	33 c9		 xor	 ecx, ecx
  00004	89 08		 mov	 DWORD PTR [eax], ecx

; 25   : 			m_iValue1 = 0;

  00006	89 48 04	 mov	 DWORD PTR [eax+4], ecx

; 26   : 			m_iValue2 = 0;

  00009	89 48 08	 mov	 DWORD PTR [eax+8], ecx

; 27   : 		}

  0000c	c3		 ret	 0
??0ETCITEMSLOT@ioUserEtcItem@@QAE@XZ ENDP		; ioUserEtcItem::ETCITEMSLOT::ETCITEMSLOT
_TEXT	ENDS
PUBLIC	?GetInventorySubManual@ioEtcItem@@QBEHXZ	; ioEtcItem::GetInventorySubManual
; Function compile flags: /Ogsp
; File d:\lost saga for developer\youtube\tutorial\source\src\lsclient\ioetcitem.h
;	COMDAT ?GetInventorySubManual@ioEtcItem@@QBEHXZ
_TEXT	SEGMENT
?GetInventorySubManual@ioEtcItem@@QBEHXZ PROC		; ioEtcItem::GetInventorySubManual, COMDAT
; _this$ = ecx

; 435  : 	inline int     GetInventorySubManual() const { return m_iInventorySubManual; }

  00000	8b 41 4c	 mov	 eax, DWORD PTR [ecx+76]
  00003	c3		 ret	 0
?GetInventorySubManual@ioEtcItem@@QBEHXZ ENDP		; ioEtcItem::GetInventorySubManual
_TEXT	ENDS
PUBLIC	?GetName@ioEtcItem@@QBEABVioHashString@@XZ	; ioEtcItem::GetName
; Function compile flags: /Ogsp
;	COMDAT ?GetName@ioEtcItem@@QBEABVioHashString@@XZ
_TEXT	SEGMENT
?GetName@ioEtcItem@@QBEABVioHashString@@XZ PROC		; ioEtcItem::GetName, COMDAT
; _this$ = ecx

; 465  : 	inline const ioHashString& GetName() const { return m_Name; }

  00000	8d 41 04	 lea	 eax, DWORD PTR [ecx+4]
  00003	c3		 ret	 0
?GetName@ioEtcItem@@QBEABVioHashString@@XZ ENDP		; ioEtcItem::GetName
_TEXT	ENDS
PUBLIC	?GetIconName@ioEtcItem@@QBEABVioHashString@@XZ	; ioEtcItem::GetIconName
; Function compile flags: /Ogsp
;	COMDAT ?GetIconName@ioEtcItem@@QBEABVioHashString@@XZ
_TEXT	SEGMENT
?GetIconName@ioEtcItem@@QBEABVioHashString@@XZ PROC	; ioEtcItem::GetIconName, COMDAT
; _this$ = ecx

; 467  : 	inline const ioHashString& GetIconName() const { return m_IconName; }

  00000	8d 81 60 01 00
	00		 lea	 eax, DWORD PTR [ecx+352]
  00006	c3		 ret	 0
?GetIconName@ioEtcItem@@QBEABVioHashString@@XZ ENDP	; ioEtcItem::GetIconName
_TEXT	ENDS
PUBLIC	?GetPublicID@ioMyInfo@@QBEABVioHashString@@XZ	; ioMyInfo::GetPublicID
; Function compile flags: /Ogsp
; File d:\lost saga for developer\youtube\tutorial\source\src\lsclient\iomyinfo.h
;	COMDAT ?GetPublicID@ioMyInfo@@QBEABVioHashString@@XZ
_TEXT	SEGMENT
?GetPublicID@ioMyInfo@@QBEABVioHashString@@XZ PROC	; ioMyInfo::GetPublicID, COMDAT
; _this$ = ecx

; 517  : 	const ioHashString& GetPublicID() const { return m_user_data.m_public_id; }    

  00000	8d 41 1c	 lea	 eax, DWORD PTR [ecx+28]
  00003	c3		 ret	 0
?GetPublicID@ioMyInfo@@QBEABVioHashString@@XZ ENDP	; ioMyInfo::GetPublicID
_TEXT	ENDS
PUBLIC	?GetUserEtcItem@ioMyInfo@@QAEPAVioUserEtcItem@@XZ ; ioMyInfo::GetUserEtcItem
; Function compile flags: /Ogsp
;	COMDAT ?GetUserEtcItem@ioMyInfo@@QAEPAVioUserEtcItem@@XZ
_TEXT	SEGMENT
?GetUserEtcItem@ioMyInfo@@QAEPAVioUserEtcItem@@XZ PROC	; ioMyInfo::GetUserEtcItem, COMDAT
; _this$ = ecx

; 635  : 	ioUserEtcItem* GetUserEtcItem() { return &m_UserEtcItem; }

  00000	8d 81 44 01 00
	00		 lea	 eax, DWORD PTR [ecx+324]
  00006	c3		 ret	 0
?GetUserEtcItem@ioMyInfo@@QAEPAVioUserEtcItem@@XZ ENDP	; ioMyInfo::GetUserEtcItem
_TEXT	ENDS
PUBLIC	?GetGuildName@ioGuildData@@QAE?AVioHashString@@XZ ; ioGuildData::GetGuildName
EXTRN	__imp_??0ioHashString@@QAE@ABV0@@Z:PROC
; Function compile flags: /Ogsp
; File d:\lost saga for developer\youtube\tutorial\source\src\lsclient\ioguildinfo.h
;	COMDAT ?GetGuildName@ioGuildData@@QAE?AVioHashString@@XZ
_TEXT	SEGMENT
$T509487 = -4						; size = 4
___$ReturnUdt$ = 8					; size = 4
?GetGuildName@ioGuildData@@QAE?AVioHashString@@XZ PROC	; ioGuildData::GetGuildName, COMDAT
; _this$ = ecx

; 102  : 	inline ioHashString GetGuildName(){ return m_szGuildName; }

  00000	55		 push	 ebp
  00001	8b ec		 mov	 ebp, esp
  00003	51		 push	 ecx
  00004	83 65 fc 00	 and	 DWORD PTR $T509487[ebp], 0
  00008	83 c1 2c	 add	 ecx, 44			; 0000002cH
  0000b	51		 push	 ecx
  0000c	8b 4d 08	 mov	 ecx, DWORD PTR ___$ReturnUdt$[ebp]
  0000f	ff 15 00 00 00
	00		 call	 DWORD PTR __imp_??0ioHashString@@QAE@ABV0@@Z
  00015	8b 45 08	 mov	 eax, DWORD PTR ___$ReturnUdt$[ebp]
  00018	c9		 leave
  00019	c2 04 00	 ret	 4
?GetGuildName@ioGuildData@@QAE?AVioHashString@@XZ ENDP	; ioGuildData::GetGuildName
_TEXT	ENDS
PUBLIC	?GetGuildIndex@ioGuildInfo@@QAEKXZ		; ioGuildInfo::GetGuildIndex
; Function compile flags: /Ogsp
;	COMDAT ?GetGuildIndex@ioGuildInfo@@QAEKXZ
_TEXT	SEGMENT
?GetGuildIndex@ioGuildInfo@@QAEKXZ PROC			; ioGuildInfo::GetGuildIndex, COMDAT
; _this$ = ecx

; 302  : 	inline DWORD GetGuildIndex(){ return m_dwGuildIndex; }

  00000	8b 81 90 00 00
	00		 mov	 eax, DWORD PTR [ecx+144]
  00006	c3		 ret	 0
?GetGuildIndex@ioGuildInfo@@QAEKXZ ENDP			; ioGuildInfo::GetGuildIndex
_TEXT	ENDS
EXTRN	??3@YAXPAX@Z:PROC				; operator delete
; Function compile flags: /Ogsp
;	COMDAT ??_GChangeNameWnd@@UAEPAXI@Z
_TEXT	SEGMENT
___flags$ = 8						; size = 4
??_GChangeNameWnd@@UAEPAXI@Z PROC			; ChangeNameWnd::`scalar deleting destructor', COMDAT
; _this$ = ecx
  00000	55		 push	 ebp
  00001	8b ec		 mov	 ebp, esp
  00003	56		 push	 esi
  00004	8b f1		 mov	 esi, ecx
  00006	e8 00 00 00 00	 call	 ??1ChangeNameWnd@@UAE@XZ ; ChangeNameWnd::~ChangeNameWnd
  0000b	f6 45 08 01	 test	 BYTE PTR ___flags$[ebp], 1
  0000f	74 07		 je	 SHORT $LN1@scalar
  00011	56		 push	 esi
  00012	e8 00 00 00 00	 call	 ??3@YAXPAX@Z		; operator delete
  00017	59		 pop	 ecx
$LN1@scalar:
  00018	8b c6		 mov	 eax, esi
  0001a	5e		 pop	 esi
  0001b	5d		 pop	 ebp
  0001c	c2 04 00	 ret	 4
??_GChangeNameWnd@@UAEPAXI@Z ENDP			; ChangeNameWnd::`scalar deleting destructor'
_TEXT	ENDS
PUBLIC	__real@3f19999a
PUBLIC	??_C@_0BP@EMECBKJA@ChangeNameWnd?3?3ShowChangeIDWnd?$AA@ ; `string'
PUBLIC	__real@4f800000
PUBLIC	??_R0?AVInventoryIconBtn@@@8			; InventoryIconBtn `RTTI Type Descriptor'
PUBLIC	?ShowChangeIDWnd@ChangeNameWnd@@QAEXK@Z		; ChangeNameWnd::ShowChangeIDWnd
EXTRN	?DisableAltCtrl@ioApplication@@QAEXXZ:PROC	; ioApplication::DisableAltCtrl
EXTRN	__imp_?m_pKeyFocusEdit@ioEdit@@2PAV1@A:DWORD
EXTRN	?AddTextPiece@ioComplexStringPrinter@@QAAXMPBDZZ:PROC ; ioComplexStringPrinter::AddTextPiece
EXTRN	?AddTextPiece@ioComplexStringPrinter@@QAEXMPBD0@Z:PROC ; ioComplexStringPrinter::AddTextPiece
EXTRN	?GetGuildData@ioGuildInfo@@QAEPAVioGuildData@@K_N@Z:PROC ; ioGuildInfo::GetGuildData
EXTRN	?GetSingleton@ioGuildInfo@@SAAAV1@XZ:PROC	; ioGuildInfo::GetSingleton
EXTRN	?SetTextColor@ioComplexStringPrinter@@QAEXK@Z:PROC ; ioComplexStringPrinter::SetTextColor
EXTRN	?SetBkColor@ioComplexStringPrinter@@QAEXHHH@Z:PROC ; ioComplexStringPrinter::SetBkColor
EXTRN	?SetTextStyle@ioComplexStringPrinter@@QAEXW4TextStyle@@@Z:PROC ; ioComplexStringPrinter::SetTextStyle
EXTRN	?GetSingleton@ioMyInfo@@SAAAV1@XZ:PROC		; ioMyInfo::GetSingleton
EXTRN	__imp_??4ioHashString@@QAEAAV0@ABV0@@Z:PROC
EXTRN	?SetIcon@InventoryIconBtn@@QAE_NPAVioUIRenderImage@@MMHW4NumberType@1@@Z:PROC ; InventoryIconBtn::SetIcon
EXTRN	__imp_?CreateImageByFullName@ioUIImageSetManager@@QAEPAVioUIRenderImage@@ABVioHashString@@_N@Z:PROC
EXTRN	__imp_?GetSingleton@ioUIImageSetManager@@SAAAV1@XZ:PROC
EXTRN	?FindEtcItem@ioEtcItemManager@@QAEPAVioEtcItem@@K@Z:PROC ; ioEtcItemManager::FindEtcItem
EXTRN	?ClearList@ioComplexStringPrinter@@QAEXXZ:PROC	; ioComplexStringPrinter::ClearList
EXTRN	__imp_?Clear@ioHashString@@QAEXXZ:PROC
EXTRN	__imp_?ShowWnd@ioWnd@@QAEXXZ:PROC
EXTRN	?GetSingletonPtr@ioEtcInvenSubManualMgr@@SAPAV1@XZ:PROC ; ioEtcInvenSubManualMgr::GetSingletonPtr
;	COMDAT __real@3f19999a
CONST	SEGMENT
__real@3f19999a DD 03f19999ar			; 0.6
CONST	ENDS
;	COMDAT ??_C@_0BP@EMECBKJA@ChangeNameWnd?3?3ShowChangeIDWnd?$AA@
CONST	SEGMENT
??_C@_0BP@EMECBKJA@ChangeNameWnd?3?3ShowChangeIDWnd?$AA@ DB 'ChangeNameWn'
	DB	'd::ShowChangeIDWnd', 00H			; `string'
CONST	ENDS
;	COMDAT __real@4f800000
CONST	SEGMENT
__real@4f800000 DD 04f800000r			; 4.29497e+009
CONST	ENDS
;	COMDAT ??_R0?AVInventoryIconBtn@@@8
_DATA	SEGMENT
??_R0?AVInventoryIconBtn@@@8 DD FLAT:??_7type_info@@6B@	; InventoryIconBtn `RTTI Type Descriptor'
	DD	00H
	DB	'.?AVInventoryIconBtn@@', 00H
_DATA	ENDS
;	COMDAT xdata$x
xdata$x	SEGMENT
__unwindtable$?ShowChangeIDWnd@ChangeNameWnd@@QAEXK@Z DD 0ffffffffH
	DD	FLAT:__unwindfunclet$?ShowChangeIDWnd@ChangeNameWnd@@QAEXK@Z$0
__ehfuncinfo$?ShowChangeIDWnd@ChangeNameWnd@@QAEXK@Z DD 019930522H
	DD	01H
	DD	FLAT:__unwindtable$?ShowChangeIDWnd@ChangeNameWnd@@QAEXK@Z
	DD	2 DUP(00H)
	DD	2 DUP(00H)
	DD	00H
	DD	01H
; Function compile flags: /Ogsp
; File d:\lost saga for developer\youtube\tutorial\source\src\lsclient\gui\changenamewnd.cpp
xdata$x	ENDS
;	COMDAT ?ShowChangeIDWnd@ChangeNameWnd@@QAEXK@Z
_TEXT	SEGMENT
$T509496 = -32						; size = 16
tv404 = -16						; size = 4
tv402 = -16						; size = 4
__$EHRec$ = -12						; size = 12
_pEdit$ = 8						; size = 4
_pIconBtn$508504 = 8					; size = 4
_dwEtcType$ = 8						; size = 4
?ShowChangeIDWnd@ChangeNameWnd@@QAEXK@Z PROC		; ChangeNameWnd::ShowChangeIDWnd, COMDAT
; _this$ = ecx

; 59   : {

  00000	6a 14		 push	 20			; 00000014H
  00002	b8 00 00 00 00	 mov	 eax, __ehhandler$?ShowChangeIDWnd@ChangeNameWnd@@QAEXK@Z
  00007	e8 00 00 00 00	 call	 __EH_prolog3
  0000c	8b f1		 mov	 esi, ecx

; 60   : 	m_dwEtcType = dwEtcType;

  0000e	8b 45 08	 mov	 eax, DWORD PTR _dwEtcType$[ebp]
  00011	89 86 60 01 00
	00		 mov	 DWORD PTR [esi+352], eax

; 61   : 
; 62   : 	m_pManual = ioEtcInvenSubManualMgr::GetSingletonPtr();

  00017	e8 00 00 00 00	 call	 ?GetSingletonPtr@ioEtcInvenSubManualMgr@@SAPAV1@XZ ; ioEtcInvenSubManualMgr::GetSingletonPtr

; 63   : 
; 64   : 	ShowWnd();

  0001c	8b ce		 mov	 ecx, esi
  0001e	89 86 00 02 00
	00		 mov	 DWORD PTR [esi+512], eax
  00024	ff 15 00 00 00
	00		 call	 DWORD PTR __imp_?ShowWnd@ioWnd@@QAEXXZ

; 65   : 
; 66   : 	m_bRenderNotice = false;
; 67   : 	m_szCurName.Clear();

  0002a	8b 3d 00 00 00
	00		 mov	 edi, DWORD PTR __imp_?Clear@ioHashString@@QAEXXZ
  00030	33 db		 xor	 ebx, ebx
  00032	8d 8e bc 01 00
	00		 lea	 ecx, DWORD PTR [esi+444]
  00038	88 9e 04 02 00
	00		 mov	 BYTE PTR [esi+516], bl
  0003e	ff d7		 call	 edi

; 68   : 	m_szNewName.Clear();

  00040	8d 8e cc 01 00
	00		 lea	 ecx, DWORD PTR [esi+460]
  00046	ff d7		 call	 edi

; 69   : 	m_szDefaultNotice.Clear();

  00048	8d 8e dc 01 00
	00		 lea	 ecx, DWORD PTR [esi+476]
  0004e	ff d7		 call	 edi

; 70   : 	m_szTitle.Clear();

  00050	8d 8e ac 01 00
	00		 lea	 ecx, DWORD PTR [esi+428]
  00056	ff d7		 call	 edi

; 71   : 	m_szErrorNotice.Clear();

  00058	8d 8e ec 01 00
	00		 lea	 ecx, DWORD PTR [esi+492]
  0005e	ff d7		 call	 edi

; 72   : 
; 73   : 	m_Info[0].ClearList();

  00060	8d 8e 64 01 00
	00		 lea	 ecx, DWORD PTR [esi+356]
  00066	e8 00 00 00 00	 call	 ?ClearList@ioComplexStringPrinter@@QAEXXZ ; ioComplexStringPrinter::ClearList

; 74   : 	m_Info[1].ClearList();

  0006b	8d 8e 84 01 00
	00		 lea	 ecx, DWORD PTR [esi+388]
  00071	e8 00 00 00 00	 call	 ?ClearList@ioComplexStringPrinter@@QAEXXZ ; ioComplexStringPrinter::ClearList

; 75   : 
; 76   : 	ioEtcItem *pItem = g_EtcItemMgr.FindEtcItem( m_dwEtcType );

  00076	ff b6 60 01 00
	00		 push	 DWORD PTR [esi+352]
  0007c	8b 0d 00 00 00
	00		 mov	 ecx, DWORD PTR ?ms_Singleton@?$Singleton@VioEtcItemManager@@@@1PAVioEtcItemManager@@A ; Singleton<ioEtcItemManager>::ms_Singleton
  00082	e8 00 00 00 00	 call	 ?FindEtcItem@ioEtcItemManager@@QAEPAVioEtcItem@@K@Z ; ioEtcItemManager::FindEtcItem
  00087	8b f8		 mov	 edi, eax

; 77   : 	if( pItem )

  00089	3b fb		 cmp	 edi, ebx
  0008b	0f 84 8e 00 00
	00		 je	 $LN7@ShowChange

; 78   : 	{
; 79   : 		InventoryIconBtn *pIconBtn = dynamic_cast<InventoryIconBtn*>(FindChildWnd(ID_ICON));

  00091	53		 push	 ebx
  00092	68 00 00 00 00	 push	 OFFSET ??_R0?AVInventoryIconBtn@@@8
  00097	68 00 00 00 00	 push	 OFFSET ??_R0?AVioWnd@@@8
  0009c	53		 push	 ebx
  0009d	6a 01		 push	 1
  0009f	8b ce		 mov	 ecx, esi
  000a1	ff 15 00 00 00
	00		 call	 DWORD PTR __imp_?FindChildWnd@ioWnd@@QAEPAV1@K@Z
  000a7	50		 push	 eax
  000a8	e8 00 00 00 00	 call	 ___RTDynamicCast
  000ad	83 c4 14	 add	 esp, 20			; 00000014H
  000b0	89 45 08	 mov	 DWORD PTR _pIconBtn$508504[ebp], eax

; 80   : 		if( pIconBtn )

  000b3	3b c3		 cmp	 eax, ebx
  000b5	74 58		 je	 SHORT $LN6@ShowChange

; 81   : 		{
; 82   : 			ioUIRenderImage *pImg = g_UIImageSetMgr.CreateImageByFullName( pItem->GetIconName() );

  000b7	8d 87 60 01 00
	00		 lea	 eax, DWORD PTR [edi+352]
  000bd	53		 push	 ebx
  000be	50		 push	 eax
  000bf	ff 15 00 00 00
	00		 call	 DWORD PTR __imp_?GetSingleton@ioUIImageSetManager@@SAAAV1@XZ
  000c5	8b c8		 mov	 ecx, eax
  000c7	ff 15 00 00 00
	00		 call	 DWORD PTR __imp_?CreateImageByFullName@ioUIImageSetManager@@QAEPAVioUIRenderImage@@ABVioHashString@@_N@Z
  000cd	8b c8		 mov	 ecx, eax

; 83   : 			pIconBtn->SetIcon( pImg, FLOAT1, FLOAT1 );

  000cf	b8 01 00 00 00	 mov	 eax, 1
  000d4	8b d0		 mov	 edx, eax
  000d6	b8 01 00 00 00	 mov	 eax, 1
  000db	53		 push	 ebx
  000dc	89 55 f0	 mov	 DWORD PTR tv404[ebp], edx
  000df	db 45 f0	 fild	 DWORD PTR tv404[ebp]
  000e2	53		 push	 ebx
  000e3	85 d2		 test	 edx, edx
  000e5	79 06		 jns	 SHORT $LN27@ShowChange
  000e7	d8 05 00 00 00
	00		 fadd	 DWORD PTR __real@4f800000
$LN27@ShowChange:
  000ed	51		 push	 ecx
  000ee	51		 push	 ecx
  000ef	89 45 f0	 mov	 DWORD PTR tv402[ebp], eax
  000f2	d9 5c 24 04	 fstp	 DWORD PTR [esp+4]
  000f6	db 45 f0	 fild	 DWORD PTR tv402[ebp]
  000f9	85 c0		 test	 eax, eax
  000fb	79 06		 jns	 SHORT $LN28@ShowChange
  000fd	d8 05 00 00 00
	00		 fadd	 DWORD PTR __real@4f800000
$LN28@ShowChange:
  00103	d9 1c 24	 fstp	 DWORD PTR [esp]
  00106	51		 push	 ecx
  00107	8b 4d 08	 mov	 ecx, DWORD PTR _pIconBtn$508504[ebp]
  0010a	e8 00 00 00 00	 call	 ?SetIcon@InventoryIconBtn@@QAE_NPAVioUIRenderImage@@MMHW4NumberType@1@@Z ; InventoryIconBtn::SetIcon
$LN6@ShowChange:

; 84   : 		}
; 85   : 
; 86   : 		m_szTitle = pItem->GetName();

  0010f	83 c7 04	 add	 edi, 4
  00112	57		 push	 edi
  00113	8d 8e ac 01 00
	00		 lea	 ecx, DWORD PTR [esi+428]
  00119	ff 15 00 00 00
	00		 call	 DWORD PTR __imp_??4ioHashString@@QAEAAV0@ABV0@@Z
$LN7@ShowChange:

; 87   : 	}
; 88   : 
; 89   : 	if( m_dwEtcType == ioEtcItem::EIT_ETC_CHANGE_ID )

  0011f	8b 86 60 01 00
	00		 mov	 eax, DWORD PTR [esi+352]
  00125	bf 00 00 00 00	 mov	 edi, OFFSET ??_C@_00CNPNBAHC@?$AA@
  0012a	3d c4 c6 2d 00	 cmp	 eax, 3000004		; 002dc6c4H
  0012f	75 78		 jne	 SHORT $LN5@ShowChange

; 90   : 	{
; 91   : 		m_szCurName = g_MyInfo.GetPublicID();

  00131	e8 00 00 00 00	 call	 ?GetSingleton@ioMyInfo@@SAAAV1@XZ ; ioMyInfo::GetSingleton
  00136	83 c0 1c	 add	 eax, 28			; 0000001cH
  00139	50		 push	 eax
  0013a	8d 8e bc 01 00
	00		 lea	 ecx, DWORD PTR [esi+444]
  00140	ff 15 00 00 00
	00		 call	 DWORD PTR __imp_??4ioHashString@@QAEAAV0@ABV0@@Z

; 92   : 		m_szDefaultNotice = STR(1);

  00146	53		 push	 ebx
  00147	6a 01		 push	 1
  00149	57		 push	 edi
  0014a	68 00 00 00 00	 push	 OFFSET ??_C@_0BP@EMECBKJA@ChangeNameWnd?3?3ShowChangeIDWnd?$AA@
  0014f	ff 15 00 00 00
	00		 call	 DWORD PTR __imp_?GetSingleton@ioStringManager@@SAAAV1@XZ
  00155	8b c8		 mov	 ecx, eax
  00157	ff 15 00 00 00
	00		 call	 DWORD PTR __imp_?GetString@ioStringManager@@QAEPADPBD0HW4FileNamePrefix@1@@Z
  0015d	50		 push	 eax
  0015e	8d 8e dc 01 00
	00		 lea	 ecx, DWORD PTR [esi+476]
  00164	ff 15 00 00 00
	00		 call	 DWORD PTR __imp_??4ioHashString@@QAEAAV0@PBD@Z

; 93   : 
; 94   : 		m_Info[0].SetTextStyle( TS_NORMAL );

  0016a	53		 push	 ebx
  0016b	8d 8e 64 01 00
	00		 lea	 ecx, DWORD PTR [esi+356]
  00171	e8 00 00 00 00	 call	 ?SetTextStyle@ioComplexStringPrinter@@QAEXW4TextStyle@@@Z ; ioComplexStringPrinter::SetTextStyle

; 95   : 		m_Info[0].SetBkColor( 0, 0, 0 );	

  00176	53		 push	 ebx
  00177	53		 push	 ebx
  00178	53		 push	 ebx
  00179	8d 8e 64 01 00
	00		 lea	 ecx, DWORD PTR [esi+356]
  0017f	e8 00 00 00 00	 call	 ?SetBkColor@ioComplexStringPrinter@@QAEXHHH@Z ; ioComplexStringPrinter::SetBkColor

; 96   : 		m_Info[0].SetTextColor( TCT_DEFAULT_DARKGRAY );

  00184	68 3a 3a 3a ff	 push	 -12961222		; ff3a3a3aH
  00189	8d 8e 64 01 00
	00		 lea	 ecx, DWORD PTR [esi+356]
  0018f	e8 00 00 00 00	 call	 ?SetTextColor@ioComplexStringPrinter@@QAEXK@Z ; ioComplexStringPrinter::SetTextColor

; 97   : 		m_Info[0].AddTextPiece( FONT_SIZE_12, STR(2), m_szCurName.c_str() );

  00194	8d 8e bc 01 00
	00		 lea	 ecx, DWORD PTR [esi+444]
  0019a	ff 15 00 00 00
	00		 call	 DWORD PTR __imp_?c_str@ioHashString@@QBEPBDXZ
  001a0	50		 push	 eax
  001a1	53		 push	 ebx
  001a2	6a 02		 push	 2
  001a4	e9 ae 00 00 00	 jmp	 $LN29@ShowChange
$LN5@ShowChange:

; 98   : 	}
; 99   : 	else if( m_dwEtcType == ioEtcItem::EIT_ETC_GUILD_NAME_CHANGE )

  001a9	3d d2 c6 2d 00	 cmp	 eax, 3000018		; 002dc6d2H
  001ae	0f 85 d1 00 00
	00		 jne	 $LN3@ShowChange

; 100  : 	{
; 101  : 		ioGuildData *pGuildData = g_GuildInfo.GetGuildData( g_GuildInfo.GetGuildIndex() );

  001b4	e8 00 00 00 00	 call	 ?GetSingleton@ioGuildInfo@@SAAAV1@XZ ; ioGuildInfo::GetSingleton
  001b9	8b 80 90 00 00
	00		 mov	 eax, DWORD PTR [eax+144]
  001bf	53		 push	 ebx
  001c0	50		 push	 eax
  001c1	e8 00 00 00 00	 call	 ?GetSingleton@ioGuildInfo@@SAAAV1@XZ ; ioGuildInfo::GetSingleton
  001c6	8b c8		 mov	 ecx, eax
  001c8	e8 00 00 00 00	 call	 ?GetGuildData@ioGuildInfo@@QAEPAVioGuildData@@K_N@Z ; ioGuildInfo::GetGuildData

; 102  : 		if( pGuildData )

  001cd	3b c3		 cmp	 eax, ebx
  001cf	74 28		 je	 SHORT $LN2@ShowChange

; 103  : 			m_szCurName = pGuildData->GetGuildName();

  001d1	8d 4d e0	 lea	 ecx, DWORD PTR $T509496[ebp]
  001d4	51		 push	 ecx
  001d5	8b c8		 mov	 ecx, eax
  001d7	e8 00 00 00 00	 call	 ?GetGuildName@ioGuildData@@QAE?AVioHashString@@XZ ; ioGuildData::GetGuildName
  001dc	50		 push	 eax
  001dd	8d 8e bc 01 00
	00		 lea	 ecx, DWORD PTR [esi+444]
  001e3	89 5d fc	 mov	 DWORD PTR __$EHRec$[ebp+8], ebx
  001e6	ff 15 00 00 00
	00		 call	 DWORD PTR __imp_??4ioHashString@@QAEAAV0@ABV0@@Z
  001ec	83 4d fc ff	 or	 DWORD PTR __$EHRec$[ebp+8], -1
  001f0	8d 4d e0	 lea	 ecx, DWORD PTR $T509496[ebp]
  001f3	ff 15 00 00 00
	00		 call	 DWORD PTR __imp_??1ioHashString@@QAE@XZ
$LN2@ShowChange:

; 104  : 
; 105  : 		m_szDefaultNotice = STR(3);

  001f9	53		 push	 ebx
  001fa	6a 03		 push	 3
  001fc	57		 push	 edi
  001fd	68 00 00 00 00	 push	 OFFSET ??_C@_0BP@EMECBKJA@ChangeNameWnd?3?3ShowChangeIDWnd?$AA@
  00202	ff 15 00 00 00
	00		 call	 DWORD PTR __imp_?GetSingleton@ioStringManager@@SAAAV1@XZ
  00208	8b c8		 mov	 ecx, eax
  0020a	ff 15 00 00 00
	00		 call	 DWORD PTR __imp_?GetString@ioStringManager@@QAEPADPBD0HW4FileNamePrefix@1@@Z
  00210	50		 push	 eax
  00211	8d 8e dc 01 00
	00		 lea	 ecx, DWORD PTR [esi+476]
  00217	ff 15 00 00 00
	00		 call	 DWORD PTR __imp_??4ioHashString@@QAEAAV0@PBD@Z

; 106  : 
; 107  : 		m_Info[0].SetTextStyle( TS_NORMAL );

  0021d	53		 push	 ebx
  0021e	8d 8e 64 01 00
	00		 lea	 ecx, DWORD PTR [esi+356]
  00224	e8 00 00 00 00	 call	 ?SetTextStyle@ioComplexStringPrinter@@QAEXW4TextStyle@@@Z ; ioComplexStringPrinter::SetTextStyle

; 108  : 		m_Info[0].SetBkColor( 0, 0, 0 );	

  00229	53		 push	 ebx
  0022a	53		 push	 ebx
  0022b	53		 push	 ebx
  0022c	8d 8e 64 01 00
	00		 lea	 ecx, DWORD PTR [esi+356]
  00232	e8 00 00 00 00	 call	 ?SetBkColor@ioComplexStringPrinter@@QAEXHHH@Z ; ioComplexStringPrinter::SetBkColor

; 109  : 		m_Info[0].SetTextColor( TCT_DEFAULT_DARKGRAY );

  00237	68 3a 3a 3a ff	 push	 -12961222		; ff3a3a3aH
  0023c	8d 8e 64 01 00
	00		 lea	 ecx, DWORD PTR [esi+356]
  00242	e8 00 00 00 00	 call	 ?SetTextColor@ioComplexStringPrinter@@QAEXK@Z ; ioComplexStringPrinter::SetTextColor

; 110  : 		m_Info[0].AddTextPiece( FONT_SIZE_12, STR(4), m_szCurName.c_str() );

  00247	8d 8e bc 01 00
	00		 lea	 ecx, DWORD PTR [esi+444]
  0024d	ff 15 00 00 00
	00		 call	 DWORD PTR __imp_?c_str@ioHashString@@QBEPBDXZ
  00253	50		 push	 eax
  00254	53		 push	 ebx
  00255	6a 04		 push	 4
$LN29@ShowChange:
  00257	57		 push	 edi
  00258	68 00 00 00 00	 push	 OFFSET ??_C@_0BP@EMECBKJA@ChangeNameWnd?3?3ShowChangeIDWnd?$AA@
  0025d	ff 15 00 00 00
	00		 call	 DWORD PTR __imp_?GetSingleton@ioStringManager@@SAAAV1@XZ
  00263	8b c8		 mov	 ecx, eax
  00265	ff 15 00 00 00
	00		 call	 DWORD PTR __imp_?GetString@ioStringManager@@QAEPADPBD0HW4FileNamePrefix@1@@Z
  0026b	f3 0f 10 05 00
	00 00 00	 movss	 xmm0, DWORD PTR __real@3f19999a
  00273	50		 push	 eax
  00274	51		 push	 ecx
  00275	8d 8e 64 01 00
	00		 lea	 ecx, DWORD PTR [esi+356]
  0027b	f3 0f 11 04 24	 movss	 DWORD PTR [esp], xmm0
  00280	e8 00 00 00 00	 call	 ?AddTextPiece@ioComplexStringPrinter@@QAEXMPBD0@Z ; ioComplexStringPrinter::AddTextPiece
$LN3@ShowChange:

; 111  : 	}
; 112  : 
; 113  : 	m_Info[1].SetTextStyle( TS_NORMAL );

  00285	53		 push	 ebx
  00286	8d 8e 84 01 00
	00		 lea	 ecx, DWORD PTR [esi+388]
  0028c	e8 00 00 00 00	 call	 ?SetTextStyle@ioComplexStringPrinter@@QAEXW4TextStyle@@@Z ; ioComplexStringPrinter::SetTextStyle

; 114  : 	m_Info[1].SetBkColor( 0, 0, 0 );	

  00291	53		 push	 ebx
  00292	53		 push	 ebx
  00293	53		 push	 ebx
  00294	8d 8e 84 01 00
	00		 lea	 ecx, DWORD PTR [esi+388]
  0029a	e8 00 00 00 00	 call	 ?SetBkColor@ioComplexStringPrinter@@QAEXHHH@Z ; ioComplexStringPrinter::SetBkColor

; 115  : 	m_Info[1].SetTextColor( TCT_DEFAULT_DARKGRAY );

  0029f	68 3a 3a 3a ff	 push	 -12961222		; ff3a3a3aH
  002a4	8d 8e 84 01 00
	00		 lea	 ecx, DWORD PTR [esi+388]
  002aa	e8 00 00 00 00	 call	 ?SetTextColor@ioComplexStringPrinter@@QAEXK@Z ; ioComplexStringPrinter::SetTextColor

; 116  : 	m_Info[1].AddTextPiece( FONT_SIZE_12, STR(5) );

  002af	53		 push	 ebx
  002b0	6a 05		 push	 5
  002b2	57		 push	 edi
  002b3	68 00 00 00 00	 push	 OFFSET ??_C@_0BP@EMECBKJA@ChangeNameWnd?3?3ShowChangeIDWnd?$AA@
  002b8	ff 15 00 00 00
	00		 call	 DWORD PTR __imp_?GetSingleton@ioStringManager@@SAAAV1@XZ
  002be	8b c8		 mov	 ecx, eax
  002c0	ff 15 00 00 00
	00		 call	 DWORD PTR __imp_?GetString@ioStringManager@@QAEPADPBD0HW4FileNamePrefix@1@@Z
  002c6	f3 0f 10 05 00
	00 00 00	 movss	 xmm0, DWORD PTR __real@3f19999a
  002ce	50		 push	 eax
  002cf	51		 push	 ecx
  002d0	8d 86 84 01 00
	00		 lea	 eax, DWORD PTR [esi+388]
  002d6	f3 0f 11 04 24	 movss	 DWORD PTR [esp], xmm0
  002db	50		 push	 eax
  002dc	e8 00 00 00 00	 call	 ?AddTextPiece@ioComplexStringPrinter@@QAAXMPBDZZ ; ioComplexStringPrinter::AddTextPiece

; 117  : 
; 118  : 	m_pPreEdit = ioEdit::m_pKeyFocusEdit;

  002e1	a1 00 00 00 00	 mov	 eax, DWORD PTR __imp_?m_pKeyFocusEdit@ioEdit@@2PAV1@A
  002e6	8b 00		 mov	 eax, DWORD PTR [eax]
  002e8	83 c4 0c	 add	 esp, 12			; 0000000cH

; 119  : 
; 120  : 	ioEdit *pEdit = dynamic_cast<ioEdit*> ( FindChildWnd( ID_CHANGE_EDIT ) );

  002eb	53		 push	 ebx
  002ec	68 00 00 00 00	 push	 OFFSET ??_R0?AVioEdit@@@8
  002f1	68 00 00 00 00	 push	 OFFSET ??_R0?AVioWnd@@@8
  002f6	53		 push	 ebx
  002f7	6a 02		 push	 2
  002f9	8b ce		 mov	 ecx, esi
  002fb	89 86 a4 01 00
	00		 mov	 DWORD PTR [esi+420], eax
  00301	ff 15 00 00 00
	00		 call	 DWORD PTR __imp_?FindChildWnd@ioWnd@@QAEPAV1@K@Z
  00307	50		 push	 eax
  00308	e8 00 00 00 00	 call	 ___RTDynamicCast
  0030d	8b c8		 mov	 ecx, eax
  0030f	83 c4 14	 add	 esp, 20			; 00000014H
  00312	89 4d 08	 mov	 DWORD PTR _pEdit$[ebp], ecx

; 121  : 	if( pEdit )

  00315	3b cb		 cmp	 ecx, ebx
  00317	74 33		 je	 SHORT $LN1@ShowChange

; 122  : 	{
; 123  : 		pEdit->ClearString();

  00319	ff 15 00 00 00
	00		 call	 DWORD PTR __imp_?ClearString@ioEdit@@QAEXXZ

; 124  : 		pEdit->SetKeyFocus();

  0031f	8b 5d 08	 mov	 ebx, DWORD PTR _pEdit$[ebp]
  00322	8b 03		 mov	 eax, DWORD PTR [ebx]
  00324	8b cb		 mov	 ecx, ebx
  00326	ff 90 30 01 00
	00		 call	 DWORD PTR [eax+304]

; 125  : 		g_InputBox.SetString( "" );

  0032c	57		 push	 edi
  0032d	ff 15 00 00 00
	00		 call	 DWORD PTR __imp_?GetSingleton@ioInputBox@@SAAAV1@XZ
  00333	8b c8		 mov	 ecx, eax
  00335	ff 15 00 00 00
	00		 call	 DWORD PTR __imp_?SetString@ioInputBox@@QAEXPBD@Z

; 126  : 		pEdit->KillKeyFocus();

  0033b	8b 03		 mov	 eax, DWORD PTR [ebx]
  0033d	8b cb		 mov	 ecx, ebx
  0033f	ff 90 34 01 00
	00		 call	 DWORD PTR [eax+308]

; 127  : 		m_bRenderNotice = true;

  00345	c6 86 04 02 00
	00 01		 mov	 BYTE PTR [esi+516], 1
$LN1@ShowChange:

; 128  : 	}
; 129  : 
; 130  : 	g_App.DisableAltCtrl();

  0034c	e8 00 00 00 00	 call	 ?GetSingleton@ioApplication@@SAAAV1@XZ ; ioApplication::GetSingleton
  00351	8b c8		 mov	 ecx, eax
  00353	e8 00 00 00 00	 call	 ?DisableAltCtrl@ioApplication@@QAEXXZ ; ioApplication::DisableAltCtrl

; 131  : }

  00358	e8 00 00 00 00	 call	 __EH_epilog3
  0035d	c2 04 00	 ret	 4
_TEXT	ENDS
;	COMDAT text$x
text$x	SEGMENT
__unwindfunclet$?ShowChangeIDWnd@ChangeNameWnd@@QAEXK@Z$0:
  00000	8d 4d e0	 lea	 ecx, DWORD PTR $T509496[ebp]
  00003	ff 25 00 00 00
	00		 jmp	 DWORD PTR __imp_??1ioHashString@@QAE@XZ
__ehhandler$?ShowChangeIDWnd@ChangeNameWnd@@QAEXK@Z:
  00009	8b 54 24 08	 mov	 edx, DWORD PTR [esp+8]
  0000d	8d 42 0c	 lea	 eax, DWORD PTR [edx+12]
  00010	8b 4a dc	 mov	 ecx, DWORD PTR [edx-36]
  00013	33 c8		 xor	 ecx, eax
  00015	e8 00 00 00 00	 call	 @__security_check_cookie@4
  0001a	b8 00 00 00 00	 mov	 eax, OFFSET __ehfuncinfo$?ShowChangeIDWnd@ChangeNameWnd@@QAEXK@Z
  0001f	e9 00 00 00 00	 jmp	 ___CxxFrameHandler3
text$x	ENDS
?ShowChangeIDWnd@ChangeNameWnd@@QAEXK@Z ENDP		; ChangeNameWnd::ShowChangeIDWnd
PUBLIC	__$ArrayPad$
PUBLIC	?SendNewName@ChangeNameWnd@@IAEXXZ		; ChangeNameWnd::SendNewName
EXTRN	??1SP2Packet@@UAE@XZ:PROC			; SP2Packet::~SP2Packet
EXTRN	??6SP2Packet@@QAEAAV0@K@Z:PROC			; SP2Packet::operator<<
EXTRN	?MouseBusy@TCPNetwork@@YAX_N@Z:PROC		; TCPNetwork::MouseBusy
EXTRN	?SendToServer@TCPNetwork@@YAXAAVSP2Packet@@@Z:PROC ; TCPNetwork::SendToServer
EXTRN	??6SP2Packet@@QAEAAV0@ABVioHashString@@@Z:PROC	; SP2Packet::operator<<
EXTRN	??6SP2Packet@@QAEAAV0@H@Z:PROC			; SP2Packet::operator<<
EXTRN	??0SP2Packet@@QAE@K@Z:PROC			; SP2Packet::SP2Packet
EXTRN	___security_cookie:DWORD
EXTRN	__chkstk:PROC
;	COMDAT xdata$x
; File d:\lost saga for developer\youtube\tutorial\source\src\lsclient\ioguildinfo.h
xdata$x	SEGMENT
__unwindtable$?SendNewName@ChangeNameWnd@@IAEXXZ DD 0ffffffffH
	DD	FLAT:__unwindfunclet$?SendNewName@ChangeNameWnd@@IAEXXZ$0
	DD	0ffffffffH
	DD	FLAT:__unwindfunclet$?SendNewName@ChangeNameWnd@@IAEXXZ$1
__ehfuncinfo$?SendNewName@ChangeNameWnd@@IAEXXZ DD 019930522H
	DD	02H
	DD	FLAT:__unwindtable$?SendNewName@ChangeNameWnd@@IAEXXZ
	DD	2 DUP(00H)
	DD	2 DUP(00H)
	DD	00H
	DD	01H
; Function compile flags: /Ogsp
; File d:\lost saga for developer\youtube\tutorial\source\src\lsclient\gui\changenamewnd.cpp
xdata$x	ENDS
;	COMDAT ?SendNewName@ChangeNameWnd@@IAEXXZ
_TEXT	SEGMENT
_kPacket$508671 = -65600				; size = 32792
_kPacket$508667 = -32808				; size = 32792
__$ArrayPad$ = -16					; size = 4
__$EHRec$ = -12						; size = 12
?SendNewName@ChangeNameWnd@@IAEXXZ PROC			; ChangeNameWnd::SendNewName, COMDAT
; _this$ = ecx

; 369  : {

  00000	55		 push	 ebp
  00001	8b ec		 mov	 ebp, esp
  00003	6a ff		 push	 -1
  00005	68 00 00 00 00	 push	 __ehhandler$?SendNewName@ChangeNameWnd@@IAEXXZ
  0000a	64 a1 00 00 00
	00		 mov	 eax, DWORD PTR fs:0
  00010	50		 push	 eax
  00011	b8 34 00 01 00	 mov	 eax, 65588		; 00010034H
  00016	e8 00 00 00 00	 call	 __chkstk
  0001b	a1 00 00 00 00	 mov	 eax, DWORD PTR ___security_cookie
  00020	33 c5		 xor	 eax, ebp
  00022	89 45 f0	 mov	 DWORD PTR __$ArrayPad$[ebp], eax
  00025	56		 push	 esi
  00026	57		 push	 edi
  00027	50		 push	 eax
  00028	8d 45 f4	 lea	 eax, DWORD PTR __$EHRec$[ebp]
  0002b	64 a3 00 00 00
	00		 mov	 DWORD PTR fs:0, eax
  00031	8b f1		 mov	 esi, ecx

; 370  : 	if( m_dwEtcType == ioEtcItem::EIT_ETC_CHANGE_ID )

  00033	8b 86 60 01 00
	00		 mov	 eax, DWORD PTR [esi+352]
  00039	3d c4 c6 2d 00	 cmp	 eax, 3000004		; 002dc6c4H
  0003e	75 54		 jne	 SHORT $LN3@SendNewNam

; 371  : 	{
; 372  : 		SP2Packet kPacket( CTPK_ETCITEM_USE );

  00040	68 59 01 00 00	 push	 345			; 00000159H
  00045	8d 8d d8 7f ff
	ff		 lea	 ecx, DWORD PTR _kPacket$508667[ebp]
  0004b	e8 00 00 00 00	 call	 ??0SP2Packet@@QAE@K@Z	; SP2Packet::SP2Packet

; 373  : 		kPacket << (int)m_dwEtcType;

  00050	ff b6 60 01 00
	00		 push	 DWORD PTR [esi+352]
  00056	83 65 fc 00	 and	 DWORD PTR __$EHRec$[ebp+8], 0
  0005a	8d 8d d8 7f ff
	ff		 lea	 ecx, DWORD PTR _kPacket$508667[ebp]
  00060	e8 00 00 00 00	 call	 ??6SP2Packet@@QAEAAV0@H@Z ; SP2Packet::operator<<

; 374  : 		kPacket << m_szNewName;

  00065	81 c6 cc 01 00
	00		 add	 esi, 460		; 000001ccH
  0006b	56		 push	 esi
  0006c	8d 8d d8 7f ff
	ff		 lea	 ecx, DWORD PTR _kPacket$508667[ebp]
  00072	e8 00 00 00 00	 call	 ??6SP2Packet@@QAEAAV0@ABVioHashString@@@Z ; SP2Packet::operator<<

; 375  : 		TCPNetwork::SendToServer( kPacket );

  00077	8d 85 d8 7f ff
	ff		 lea	 eax, DWORD PTR _kPacket$508667[ebp]
  0007d	50		 push	 eax
  0007e	e8 00 00 00 00	 call	 ?SendToServer@TCPNetwork@@YAXAAVSP2Packet@@@Z ; TCPNetwork::SendToServer

; 376  : 		TCPNetwork::MouseBusy( true );

  00083	6a 01		 push	 1
  00085	e8 00 00 00 00	 call	 ?MouseBusy@TCPNetwork@@YAX_N@Z ; TCPNetwork::MouseBusy
  0008a	59		 pop	 ecx
  0008b	59		 pop	 ecx

; 377  : 	}

  0008c	8d 8d d8 7f ff
	ff		 lea	 ecx, DWORD PTR _kPacket$508667[ebp]
  00092	eb 6c		 jmp	 SHORT $LN11@SendNewNam
$LN3@SendNewNam:

; 378  : 	else if( m_dwEtcType == ioEtcItem::EIT_ETC_GUILD_NAME_CHANGE )

  00094	bf d2 c6 2d 00	 mov	 edi, 3000018		; 002dc6d2H
  00099	3b c7		 cmp	 eax, edi
  0009b	75 6c		 jne	 SHORT $LN1@SendNewNam

; 379  : 	{
; 380  : 		SP2Packet kPacket( CTPK_ETCITEM_USE );

  0009d	68 59 01 00 00	 push	 345			; 00000159H
  000a2	8d 8d c0 ff fe
	ff		 lea	 ecx, DWORD PTR _kPacket$508671[ebp]
  000a8	e8 00 00 00 00	 call	 ??0SP2Packet@@QAE@K@Z	; SP2Packet::SP2Packet

; 381  : 		kPacket << (int)ioEtcItem::EIT_ETC_GUILD_NAME_CHANGE;

  000ad	57		 push	 edi
  000ae	8d 8d c0 ff fe
	ff		 lea	 ecx, DWORD PTR _kPacket$508671[ebp]
  000b4	c7 45 fc 01 00
	00 00		 mov	 DWORD PTR __$EHRec$[ebp+8], 1
  000bb	e8 00 00 00 00	 call	 ??6SP2Packet@@QAEAAV0@H@Z ; SP2Packet::operator<<

; 382  : 		kPacket << g_GuildInfo.GetGuildIndex() << m_szNewName;

  000c0	e8 00 00 00 00	 call	 ?GetSingleton@ioGuildInfo@@SAAAV1@XZ ; ioGuildInfo::GetSingleton
  000c5	8b 80 90 00 00
	00		 mov	 eax, DWORD PTR [eax+144]
  000cb	81 c6 cc 01 00
	00		 add	 esi, 460		; 000001ccH
  000d1	56		 push	 esi
  000d2	50		 push	 eax
  000d3	8d 8d c0 ff fe
	ff		 lea	 ecx, DWORD PTR _kPacket$508671[ebp]
  000d9	e8 00 00 00 00	 call	 ??6SP2Packet@@QAEAAV0@K@Z ; SP2Packet::operator<<
  000de	8b c8		 mov	 ecx, eax
  000e0	e8 00 00 00 00	 call	 ??6SP2Packet@@QAEAAV0@ABVioHashString@@@Z ; SP2Packet::operator<<

; 383  : 		TCPNetwork::SendToServer( kPacket );

  000e5	8d 85 c0 ff fe
	ff		 lea	 eax, DWORD PTR _kPacket$508671[ebp]
  000eb	50		 push	 eax
  000ec	e8 00 00 00 00	 call	 ?SendToServer@TCPNetwork@@YAXAAVSP2Packet@@@Z ; TCPNetwork::SendToServer

; 384  : 		TCPNetwork::MouseBusy( true );

  000f1	6a 01		 push	 1
  000f3	e8 00 00 00 00	 call	 ?MouseBusy@TCPNetwork@@YAX_N@Z ; TCPNetwork::MouseBusy
  000f8	59		 pop	 ecx
  000f9	59		 pop	 ecx

; 385  : 	}

  000fa	8d 8d c0 ff fe
	ff		 lea	 ecx, DWORD PTR _kPacket$508671[ebp]
$LN11@SendNewNam:
  00100	83 4d fc ff	 or	 DWORD PTR __$EHRec$[ebp+8], -1
  00104	e8 00 00 00 00	 call	 ??1SP2Packet@@UAE@XZ	; SP2Packet::~SP2Packet
$LN1@SendNewNam:

; 386  : }

  00109	8b 4d f4	 mov	 ecx, DWORD PTR __$EHRec$[ebp]
  0010c	64 89 0d 00 00
	00 00		 mov	 DWORD PTR fs:0, ecx
  00113	59		 pop	 ecx
  00114	5f		 pop	 edi
  00115	5e		 pop	 esi
  00116	8b 4d f0	 mov	 ecx, DWORD PTR __$ArrayPad$[ebp]
  00119	33 cd		 xor	 ecx, ebp
  0011b	e8 00 00 00 00	 call	 @__security_check_cookie@4
  00120	c9		 leave
  00121	c3		 ret	 0
_TEXT	ENDS
;	COMDAT text$x
text$x	SEGMENT
__unwindfunclet$?SendNewName@ChangeNameWnd@@IAEXXZ$0:
  00000	8d 8d d8 7f ff
	ff		 lea	 ecx, DWORD PTR _kPacket$508667[ebp]
  00006	e9 00 00 00 00	 jmp	 ??1SP2Packet@@UAE@XZ	; SP2Packet::~SP2Packet
__unwindfunclet$?SendNewName@ChangeNameWnd@@IAEXXZ$1:
  0000b	8d 8d c0 ff fe
	ff		 lea	 ecx, DWORD PTR _kPacket$508671[ebp]
  00011	e9 00 00 00 00	 jmp	 ??1SP2Packet@@UAE@XZ	; SP2Packet::~SP2Packet
__ehhandler$?SendNewName@ChangeNameWnd@@IAEXXZ:
  00016	8b 54 24 08	 mov	 edx, DWORD PTR [esp+8]
  0001a	8d 42 0c	 lea	 eax, DWORD PTR [edx+12]
  0001d	8b 8a c0 ff fe
	ff		 mov	 ecx, DWORD PTR [edx-65600]
  00023	33 c8		 xor	 ecx, eax
  00025	e8 00 00 00 00	 call	 @__security_check_cookie@4
  0002a	8b 4a fc	 mov	 ecx, DWORD PTR [edx-4]
  0002d	33 c8		 xor	 ecx, eax
  0002f	e8 00 00 00 00	 call	 @__security_check_cookie@4
  00034	b8 00 00 00 00	 mov	 eax, OFFSET __ehfuncinfo$?SendNewName@ChangeNameWnd@@IAEXXZ
  00039	e9 00 00 00 00	 jmp	 ___CxxFrameHandler3
text$x	ENDS
?SendNewName@ChangeNameWnd@@IAEXXZ ENDP			; ChangeNameWnd::SendNewName
PUBLIC	__real@434c0000
PUBLIC	?PrintManual@ChangeNameWnd@@IAEXHHM@Z		; ChangeNameWnd::PrintManual
EXTRN	?PrintFullTextWidthCut@ioComplexStringPrinter@@QAEXMMW4TextAlignType@@ME@Z:PROC ; ioComplexStringPrinter::PrintFullTextWidthCut
;	COMDAT __real@434c0000
; File d:\lost saga for developer\youtube\tutorial\source\src\lsclient\ioetcitem.h
CONST	SEGMENT
__real@434c0000 DD 0434c0000r			; 204
CONST	ENDS
;	COMDAT xdata$x
xdata$x	SEGMENT
__unwindtable$?PrintManual@ChangeNameWnd@@IAEXHHM@Z DD 0ffffffffH
	DD	FLAT:__unwindfunclet$?PrintManual@ChangeNameWnd@@IAEXHHM@Z$0
__ehfuncinfo$?PrintManual@ChangeNameWnd@@IAEXHHM@Z DD 019930522H
	DD	01H
	DD	FLAT:__unwindtable$?PrintManual@ChangeNameWnd@@IAEXHHM@Z
	DD	2 DUP(00H)
	DD	2 DUP(00H)
	DD	00H
	DD	01H
; Function compile flags: /Ogsp
; File d:\lost saga for developer\youtube\tutorial\source\src\lsclient\gui\changenamewnd.cpp
xdata$x	ENDS
;	COMDAT ?PrintManual@ChangeNameWnd@@IAEXHHM@Z
_TEXT	SEGMENT
_kPrinter$ = -48					; size = 32
_iMaxLine$ = -16					; size = 4
__$EHRec$ = -12						; size = 12
tv196 = 8						; size = 4
_a_iXPos$ = 8						; size = 4
_a_iYPos$ = 12						; size = 4
_fScale$ = 16						; size = 4
?PrintManual@ChangeNameWnd@@IAEXHHM@Z PROC		; ChangeNameWnd::PrintManual, COMDAT
; _this$ = ecx

; 462  : {

  00000	6a 24		 push	 36			; 00000024H
  00002	b8 00 00 00 00	 mov	 eax, __ehhandler$?PrintManual@ChangeNameWnd@@IAEXHHM@Z
  00007	e8 00 00 00 00	 call	 __EH_prolog3
  0000c	8b f1		 mov	 esi, ecx

; 463  : 	if( !m_pManual )

  0000e	83 be 00 02 00
	00 00		 cmp	 DWORD PTR [esi+512], 0
  00015	0f 84 c9 00 00
	00		 je	 $LN6@PrintManua

; 464  : 		return;
; 465  : 
; 466  : 
; 467  : 	ioEtcItem *pItem = g_EtcItemMgr.FindEtcItem( m_dwEtcType );

  0001b	ff b6 60 01 00
	00		 push	 DWORD PTR [esi+352]
  00021	8b 0d 00 00 00
	00		 mov	 ecx, DWORD PTR ?ms_Singleton@?$Singleton@VioEtcItemManager@@@@1PAVioEtcItemManager@@A ; Singleton<ioEtcItemManager>::ms_Singleton
  00027	e8 00 00 00 00	 call	 ?FindEtcItem@ioEtcItemManager@@QAEPAVioEtcItem@@K@Z ; ioEtcItemManager::FindEtcItem

; 468  : 	if( !pItem ) return;

  0002c	85 c0		 test	 eax, eax
  0002e	0f 84 b0 00 00
	00		 je	 $LN6@PrintManua

; 469  : 
; 470  : 	int iSubManual = pItem->GetInventorySubManual() - 1;

  00034	8b 78 4c	 mov	 edi, DWORD PTR [eax+76]

; 471  : 	ioComplexStringPrinter kPrinter;

  00037	8d 4d d0	 lea	 ecx, DWORD PTR _kPrinter$[ebp]
  0003a	4f		 dec	 edi
  0003b	e8 00 00 00 00	 call	 ??0ioComplexStringPrinter@@QAE@XZ ; ioComplexStringPrinter::ioComplexStringPrinter

; 472  : 	int iMaxLine = m_pManual->GetMaxLine( iSubManual );

  00040	8b 8e 00 02 00
	00		 mov	 ecx, DWORD PTR [esi+512]
  00046	8b 01		 mov	 eax, DWORD PTR [ecx]
  00048	83 65 fc 00	 and	 DWORD PTR __$EHRec$[ebp+8], 0
  0004c	57		 push	 edi
  0004d	ff 50 08	 call	 DWORD PTR [eax+8]

; 473  : 	for(int iLine = 1; iLine < iMaxLine; iLine++)

  00050	33 db		 xor	 ebx, ebx
  00052	43		 inc	 ebx
  00053	89 45 f0	 mov	 DWORD PTR _iMaxLine$[ebp], eax
  00056	3b c3		 cmp	 eax, ebx
  00058	7e 7e		 jle	 SHORT $LN1@PrintManua
  0005a	66 0f 6e 45 08	 movd	 xmm0, DWORD PTR _a_iXPos$[ebp]
  0005f	0f 5b c0	 cvtdq2ps xmm0, xmm0
  00062	f3 0f 11 45 08	 movss	 DWORD PTR tv196[ebp], xmm0
$LL3@PrintManua:

; 474  : 	{
; 475  : 		m_pManual->SetPrinter( iSubManual, iLine, fScale, kPrinter);

  00067	8b 8e 00 02 00
	00		 mov	 ecx, DWORD PTR [esi+512]
  0006d	f3 0f 10 45 10	 movss	 xmm0, DWORD PTR _fScale$[ebp]
  00072	8b 01		 mov	 eax, DWORD PTR [ecx]
  00074	8d 55 d0	 lea	 edx, DWORD PTR _kPrinter$[ebp]
  00077	52		 push	 edx
  00078	51		 push	 ecx
  00079	f3 0f 11 04 24	 movss	 DWORD PTR [esp], xmm0
  0007e	53		 push	 ebx
  0007f	57		 push	 edi
  00080	ff 50 10	 call	 DWORD PTR [eax+16]

; 476  : 		a_iYPos += m_pManual->GetSpaceLine( iSubManual, iLine);

  00083	8b 8e 00 02 00
	00		 mov	 ecx, DWORD PTR [esi+512]
  00089	8b 01		 mov	 eax, DWORD PTR [ecx]
  0008b	53		 push	 ebx
  0008c	57		 push	 edi
  0008d	ff 50 0c	 call	 DWORD PTR [eax+12]

; 477  : 		kPrinter.PrintFullTextWidthCut( a_iXPos, a_iYPos, TAT_LEFT, DESC_WIDTH );

  00090	f3 0f 10 05 00
	00 00 00	 movss	 xmm0, DWORD PTR __real@434c0000
  00098	01 45 0c	 add	 DWORD PTR _a_iYPos$[ebp], eax
  0009b	68 ff 00 00 00	 push	 255			; 000000ffH
  000a0	51		 push	 ecx
  000a1	f3 0f 11 04 24	 movss	 DWORD PTR [esp], xmm0
  000a6	66 0f 6e 45 0c	 movd	 xmm0, DWORD PTR _a_iYPos$[ebp]
  000ab	6a 00		 push	 0
  000ad	51		 push	 ecx
  000ae	51		 push	 ecx
  000af	0f 5b c0	 cvtdq2ps xmm0, xmm0
  000b2	f3 0f 11 44 24
	04		 movss	 DWORD PTR [esp+4], xmm0
  000b8	f3 0f 10 45 08	 movss	 xmm0, DWORD PTR tv196[ebp]
  000bd	8d 4d d0	 lea	 ecx, DWORD PTR _kPrinter$[ebp]
  000c0	f3 0f 11 04 24	 movss	 DWORD PTR [esp], xmm0
  000c5	e8 00 00 00 00	 call	 ?PrintFullTextWidthCut@ioComplexStringPrinter@@QAEXMMW4TextAlignType@@ME@Z ; ioComplexStringPrinter::PrintFullTextWidthCut

; 478  : 		kPrinter.ClearList();

  000ca	8d 4d d0	 lea	 ecx, DWORD PTR _kPrinter$[ebp]
  000cd	e8 00 00 00 00	 call	 ?ClearList@ioComplexStringPrinter@@QAEXXZ ; ioComplexStringPrinter::ClearList
  000d2	43		 inc	 ebx
  000d3	3b 5d f0	 cmp	 ebx, DWORD PTR _iMaxLine$[ebp]
  000d6	7c 8f		 jl	 SHORT $LL3@PrintManua
$LN1@PrintManua:

; 479  : 	}
; 480  : }

  000d8	83 4d fc ff	 or	 DWORD PTR __$EHRec$[ebp+8], -1
  000dc	8d 4d d0	 lea	 ecx, DWORD PTR _kPrinter$[ebp]
  000df	e8 00 00 00 00	 call	 ??1ioComplexStringPrinter@@QAE@XZ ; ioComplexStringPrinter::~ioComplexStringPrinter
$LN6@PrintManua:
  000e4	e8 00 00 00 00	 call	 __EH_epilog3
  000e9	c2 0c 00	 ret	 12			; 0000000cH
_TEXT	ENDS
;	COMDAT text$x
text$x	SEGMENT
__unwindfunclet$?PrintManual@ChangeNameWnd@@IAEXHHM@Z$0:
  00000	8d 4d d0	 lea	 ecx, DWORD PTR _kPrinter$[ebp]
  00003	e9 00 00 00 00	 jmp	 ??1ioComplexStringPrinter@@QAE@XZ ; ioComplexStringPrinter::~ioComplexStringPrinter
__ehhandler$?PrintManual@ChangeNameWnd@@IAEXHHM@Z:
  00008	8b 54 24 08	 mov	 edx, DWORD PTR [esp+8]
  0000c	8d 42 0c	 lea	 eax, DWORD PTR [edx+12]
  0000f	8b 4a cc	 mov	 ecx, DWORD PTR [edx-52]
  00012	33 c8		 xor	 ecx, eax
  00014	e8 00 00 00 00	 call	 @__security_check_cookie@4
  00019	b8 00 00 00 00	 mov	 eax, OFFSET __ehfuncinfo$?PrintManual@ChangeNameWnd@@IAEXHHM@Z
  0001e	e9 00 00 00 00	 jmp	 ___CxxFrameHandler3
text$x	ENDS
?PrintManual@ChangeNameWnd@@IAEXHHM@Z ENDP		; ChangeNameWnd::PrintManual
; Function compile flags: /Ogsp
;	COMDAT ??_GChangeNameResultWnd@@UAEPAXI@Z
_TEXT	SEGMENT
___flags$ = 8						; size = 4
??_GChangeNameResultWnd@@UAEPAXI@Z PROC			; ChangeNameResultWnd::`scalar deleting destructor', COMDAT
; _this$ = ecx
  00000	55		 push	 ebp
  00001	8b ec		 mov	 ebp, esp
  00003	56		 push	 esi
  00004	8b f1		 mov	 esi, ecx
  00006	e8 00 00 00 00	 call	 ??1ChangeNameResultWnd@@UAE@XZ ; ChangeNameResultWnd::~ChangeNameResultWnd
  0000b	f6 45 08 01	 test	 BYTE PTR ___flags$[ebp], 1
  0000f	74 07		 je	 SHORT $LN1@scalar@2
  00011	56		 push	 esi
  00012	e8 00 00 00 00	 call	 ??3@YAXPAX@Z		; operator delete
  00017	59		 pop	 ecx
$LN1@scalar@2:
  00018	8b c6		 mov	 eax, esi
  0001a	5e		 pop	 esi
  0001b	5d		 pop	 ebp
  0001c	c2 04 00	 ret	 4
??_GChangeNameResultWnd@@UAEPAXI@Z ENDP			; ChangeNameResultWnd::`scalar deleting destructor'
_TEXT	ENDS
PUBLIC	?SetInfoAndShow@ChangeNameResultWnd@@QAEXABVioHashString@@@Z ; ChangeNameResultWnd::SetInfoAndShow
EXTRN	__imp_?SetChildInActive@ioWnd@@QAEXK@Z:PROC
; Function compile flags: /Ogsp
;	COMDAT ?SetInfoAndShow@ChangeNameResultWnd@@QAEXABVioHashString@@@Z
_TEXT	SEGMENT
_szNewName$ = 8						; size = 4
?SetInfoAndShow@ChangeNameResultWnd@@QAEXABVioHashString@@@Z PROC ; ChangeNameResultWnd::SetInfoAndShow, COMDAT
; _this$ = ecx

; 509  : {

  00000	55		 push	 ebp
  00001	8b ec		 mov	 ebp, esp
  00003	56		 push	 esi
  00004	8b f1		 mov	 esi, ecx
  00006	57		 push	 edi

; 510  : 	m_dwEtcType = ioEtcItem::EIT_ETC_CHANGE_ID;

  00007	c7 86 60 01 00
	00 c4 c6 2d 00	 mov	 DWORD PTR [esi+352], 3000004 ; 002dc6c4H

; 511  : 
; 512  : 	m_szPreName = g_MyInfo.GetPublicID();

  00011	e8 00 00 00 00	 call	 ?GetSingleton@ioMyInfo@@SAAAV1@XZ ; ioMyInfo::GetSingleton
  00016	8b 3d 00 00 00
	00		 mov	 edi, DWORD PTR __imp_??4ioHashString@@QAEAAV0@ABV0@@Z
  0001c	83 c0 1c	 add	 eax, 28			; 0000001cH
  0001f	50		 push	 eax
  00020	8d 8e 6c 01 00
	00		 lea	 ecx, DWORD PTR [esi+364]
  00026	ff d7		 call	 edi

; 513  : 	m_szNewName = szNewName;

  00028	ff 75 08	 push	 DWORD PTR _szNewName$[ebp]
  0002b	8d 8e 7c 01 00
	00		 lea	 ecx, DWORD PTR [esi+380]
  00031	ff d7		 call	 edi

; 514  : 
; 515  : 	SAFEDELETE(m_pIcon);

  00033	8b 8e 64 01 00
	00		 mov	 ecx, DWORD PTR [esi+356]
  00039	85 c9		 test	 ecx, ecx
  0003b	74 0e		 je	 SHORT $LN2@SetInfoAnd
  0003d	8b 01		 mov	 eax, DWORD PTR [ecx]
  0003f	6a 01		 push	 1
  00041	ff 50 40	 call	 DWORD PTR [eax+64]
  00044	83 a6 64 01 00
	00 00		 and	 DWORD PTR [esi+356], 0
$LN2@SetInfoAnd:

; 516  : 	ioEtcItem *pItem = g_EtcItemMgr.FindEtcItem( m_dwEtcType );

  0004b	ff b6 60 01 00
	00		 push	 DWORD PTR [esi+352]
  00051	8b 0d 00 00 00
	00		 mov	 ecx, DWORD PTR ?ms_Singleton@?$Singleton@VioEtcItemManager@@@@1PAVioEtcItemManager@@A ; Singleton<ioEtcItemManager>::ms_Singleton
  00057	e8 00 00 00 00	 call	 ?FindEtcItem@ioEtcItemManager@@QAEPAVioEtcItem@@K@Z ; ioEtcItemManager::FindEtcItem

; 517  : 	if( pItem )

  0005c	85 c0		 test	 eax, eax
  0005e	74 1c		 je	 SHORT $LN1@SetInfoAnd

; 518  : 	{
; 519  : 		m_pIcon = g_UIImageSetMgr.CreateImageByFullName( pItem->GetIconName() );

  00060	05 60 01 00 00	 add	 eax, 352		; 00000160H
  00065	6a 00		 push	 0
  00067	50		 push	 eax
  00068	ff 15 00 00 00
	00		 call	 DWORD PTR __imp_?GetSingleton@ioUIImageSetManager@@SAAAV1@XZ
  0006e	8b c8		 mov	 ecx, eax
  00070	ff 15 00 00 00
	00		 call	 DWORD PTR __imp_?CreateImageByFullName@ioUIImageSetManager@@QAEPAVioUIRenderImage@@ABVioHashString@@_N@Z
  00076	89 86 64 01 00
	00		 mov	 DWORD PTR [esi+356], eax
$LN1@SetInfoAnd:

; 520  : 	}
; 521  : 
; 522  : 	ShowWnd();

  0007c	8b ce		 mov	 ecx, esi
  0007e	ff 15 00 00 00
	00		 call	 DWORD PTR __imp_?ShowWnd@ioWnd@@QAEXXZ

; 523  : 	SetChildInActive( ID_GO );

  00084	6a 01		 push	 1
  00086	8b ce		 mov	 ecx, esi
  00088	ff 15 00 00 00
	00		 call	 DWORD PTR __imp_?SetChildInActive@ioWnd@@QAEXK@Z
  0008e	5f		 pop	 edi
  0008f	5e		 pop	 esi

; 524  : }

  00090	5d		 pop	 ebp
  00091	c2 04 00	 ret	 4
?SetInfoAndShow@ChangeNameResultWnd@@QAEXABVioHashString@@@Z ENDP ; ChangeNameResultWnd::SetInfoAndShow
_TEXT	ENDS
PUBLIC	?SetInfoAndShow@ChangeNameResultWnd@@QAEXABVioHashString@@0@Z ; ChangeNameResultWnd::SetInfoAndShow
; Function compile flags: /Ogsp
;	COMDAT ?SetInfoAndShow@ChangeNameResultWnd@@QAEXABVioHashString@@0@Z
_TEXT	SEGMENT
_szPreName$ = 8						; size = 4
_szNewName$ = 12					; size = 4
?SetInfoAndShow@ChangeNameResultWnd@@QAEXABVioHashString@@0@Z PROC ; ChangeNameResultWnd::SetInfoAndShow, COMDAT
; _this$ = ecx

; 527  : {

  00000	55		 push	 ebp
  00001	8b ec		 mov	 ebp, esp
  00003	56		 push	 esi
  00004	57		 push	 edi

; 528  : 	m_dwEtcType = ioEtcItem::EIT_ETC_GUILD_NAME_CHANGE;
; 529  : 	
; 530  : 	m_szPreName = szPreName;

  00005	ff 75 08	 push	 DWORD PTR _szPreName$[ebp]
  00008	8b 3d 00 00 00
	00		 mov	 edi, DWORD PTR __imp_??4ioHashString@@QAEAAV0@ABV0@@Z
  0000e	8b f1		 mov	 esi, ecx
  00010	8d 8e 6c 01 00
	00		 lea	 ecx, DWORD PTR [esi+364]
  00016	c7 86 60 01 00
	00 d2 c6 2d 00	 mov	 DWORD PTR [esi+352], 3000018 ; 002dc6d2H
  00020	ff d7		 call	 edi

; 531  : 	m_szNewName = szNewName;

  00022	ff 75 0c	 push	 DWORD PTR _szNewName$[ebp]
  00025	8d 8e 7c 01 00
	00		 lea	 ecx, DWORD PTR [esi+380]
  0002b	ff d7		 call	 edi

; 532  : 
; 533  : 	SAFEDELETE(m_pIcon);

  0002d	8b 8e 64 01 00
	00		 mov	 ecx, DWORD PTR [esi+356]
  00033	85 c9		 test	 ecx, ecx
  00035	74 0e		 je	 SHORT $LN2@SetInfoAnd@2
  00037	8b 01		 mov	 eax, DWORD PTR [ecx]
  00039	6a 01		 push	 1
  0003b	ff 50 40	 call	 DWORD PTR [eax+64]
  0003e	83 a6 64 01 00
	00 00		 and	 DWORD PTR [esi+356], 0
$LN2@SetInfoAnd@2:

; 534  : 	ioEtcItem *pItem = g_EtcItemMgr.FindEtcItem( m_dwEtcType );

  00045	ff b6 60 01 00
	00		 push	 DWORD PTR [esi+352]
  0004b	8b 0d 00 00 00
	00		 mov	 ecx, DWORD PTR ?ms_Singleton@?$Singleton@VioEtcItemManager@@@@1PAVioEtcItemManager@@A ; Singleton<ioEtcItemManager>::ms_Singleton
  00051	e8 00 00 00 00	 call	 ?FindEtcItem@ioEtcItemManager@@QAEPAVioEtcItem@@K@Z ; ioEtcItemManager::FindEtcItem

; 535  : 	if( pItem )

  00056	85 c0		 test	 eax, eax
  00058	74 1c		 je	 SHORT $LN1@SetInfoAnd@2

; 536  : 	{
; 537  : 		m_pIcon = g_UIImageSetMgr.CreateImageByFullName( pItem->GetIconName() );

  0005a	05 60 01 00 00	 add	 eax, 352		; 00000160H
  0005f	6a 00		 push	 0
  00061	50		 push	 eax
  00062	ff 15 00 00 00
	00		 call	 DWORD PTR __imp_?GetSingleton@ioUIImageSetManager@@SAAAV1@XZ
  00068	8b c8		 mov	 ecx, eax
  0006a	ff 15 00 00 00
	00		 call	 DWORD PTR __imp_?CreateImageByFullName@ioUIImageSetManager@@QAEPAVioUIRenderImage@@ABVioHashString@@_N@Z
  00070	89 86 64 01 00
	00		 mov	 DWORD PTR [esi+356], eax
$LN1@SetInfoAnd@2:

; 538  : 	}
; 539  : 
; 540  : 	ShowWnd();

  00076	8b ce		 mov	 ecx, esi
  00078	ff 15 00 00 00
	00		 call	 DWORD PTR __imp_?ShowWnd@ioWnd@@QAEXXZ

; 541  : 	SetChildInActive( ID_GO );

  0007e	6a 01		 push	 1
  00080	8b ce		 mov	 ecx, esi
  00082	ff 15 00 00 00
	00		 call	 DWORD PTR __imp_?SetChildInActive@ioWnd@@QAEXK@Z
  00088	5f		 pop	 edi
  00089	5e		 pop	 esi

; 542  : }

  0008a	5d		 pop	 ebp
  0008b	c2 08 00	 ret	 8
?SetInfoAndShow@ChangeNameResultWnd@@QAEXABVioHashString@@0@Z ENDP ; ChangeNameResultWnd::SetInfoAndShow
_TEXT	ENDS
PUBLIC	__$ArrayPad$
PUBLIC	??$?8$07@@YA_NABVioHashString@@AAY07$$CBD@Z	; operator==<8>
; Function compile flags: /Ogsp
; File d:\lost saga for developer\youtube\tutorial\source\src\io3dengine\iohashstring.h
;	COMDAT ??$?8$07@@YA_NABVioHashString@@AAY07$$CBD@Z
_TEXT	SEGMENT
__t$ = -16						; size = 8
__$ArrayPad$ = -4					; size = 4
_lhs$ = 8						; size = 4
_t$ = 12						; size = 4
??$?8$07@@YA_NABVioHashString@@AAY07$$CBD@Z PROC	; operator==<8>, COMDAT

; 146  : {

  00000	55		 push	 ebp
  00001	8b ec		 mov	 ebp, esp
  00003	83 ec 10	 sub	 esp, 16			; 00000010H
  00006	a1 00 00 00 00	 mov	 eax, DWORD PTR ___security_cookie
  0000b	33 c5		 xor	 eax, ebp
  0000d	89 45 fc	 mov	 DWORD PTR __$ArrayPad$[ebp], eax
  00010	8b 45 0c	 mov	 eax, DWORD PTR _t$[ebp]

; 147  : 	_ENCSTR(t, _t); return ( strcmp( lhs.c_str(), _t ) == 0 );

  00013	8a 10		 mov	 dl, BYTE PTR [eax]
  00015	56		 push	 esi
  00016	57		 push	 edi
  00017	8b 7d 08	 mov	 edi, DWORD PTR _lhs$[ebp]
  0001a	84 d2		 test	 dl, dl
  0001c	0f 84 d7 00 00
	00		 je	 $LN96@operator
  00022	80 f2 ed	 xor	 dl, -19			; ffffffedH
  00025	88 55 f0	 mov	 BYTE PTR __t$[ebp], dl
  00028	8a 50 01	 mov	 dl, BYTE PTR [eax+1]
  0002b	84 d2		 test	 dl, dl
  0002d	0f 84 c0 00 00
	00		 je	 $LN95@operator
  00033	80 f2 ec	 xor	 dl, -20			; ffffffecH
  00036	88 55 f1	 mov	 BYTE PTR __t$[ebp+1], dl
  00039	8a 50 02	 mov	 dl, BYTE PTR [eax+2]
  0003c	84 d2		 test	 dl, dl
  0003e	0f 84 a9 00 00
	00		 je	 $LN94@operator
  00044	80 f2 eb	 xor	 dl, -21			; ffffffebH
  00047	88 55 f2	 mov	 BYTE PTR __t$[ebp+2], dl
  0004a	8a 50 03	 mov	 dl, BYTE PTR [eax+3]
  0004d	84 d2		 test	 dl, dl
  0004f	0f 84 92 00 00
	00		 je	 $LN93@operator
  00055	80 f2 ea	 xor	 dl, -22			; ffffffeaH
  00058	88 55 f3	 mov	 BYTE PTR __t$[ebp+3], dl
  0005b	8a 50 04	 mov	 dl, BYTE PTR [eax+4]
  0005e	84 d2		 test	 dl, dl
  00060	74 7f		 je	 SHORT $LN92@operator
  00062	80 f2 ed	 xor	 dl, -19			; ffffffedH
  00065	88 55 f4	 mov	 BYTE PTR __t$[ebp+4], dl
  00068	8a 50 05	 mov	 dl, BYTE PTR [eax+5]
  0006b	84 d2		 test	 dl, dl
  0006d	74 6c		 je	 SHORT $LN91@operator
  0006f	80 f2 ec	 xor	 dl, -20			; ffffffecH
  00072	88 55 f5	 mov	 BYTE PTR __t$[ebp+5], dl
  00075	8a 50 06	 mov	 dl, BYTE PTR [eax+6]
  00078	84 d2		 test	 dl, dl
  0007a	74 59		 je	 SHORT $LN90@operator
  0007c	80 f2 eb	 xor	 dl, -21			; ffffffebH
  0007f	80 78 07 00	 cmp	 BYTE PTR [eax+7], 0
  00083	88 55 f6	 mov	 BYTE PTR __t$[ebp+6], dl
  00086	74 75		 je	 SHORT $LN1@operator
  00088	8a 50 08	 mov	 dl, BYTE PTR [eax+8]
  0008b	84 d2		 test	 dl, dl
  0008d	74 40		 je	 SHORT $LN88@operator
  0008f	80 f2 ed	 xor	 dl, -19			; ffffffedH
  00092	88 55 f8	 mov	 BYTE PTR __t$[ebp+8], dl
  00095	8a 50 09	 mov	 dl, BYTE PTR [eax+9]
  00098	84 d2		 test	 dl, dl
  0009a	74 2d		 je	 SHORT $LN87@operator
  0009c	80 f2 ec	 xor	 dl, -20			; ffffffecH
  0009f	88 55 f9	 mov	 BYTE PTR __t$[ebp+9], dl
  000a2	8a 50 0a	 mov	 dl, BYTE PTR [eax+10]
  000a5	84 d2		 test	 dl, dl
  000a7	74 1a		 je	 SHORT $LN86@operator
  000a9	8a 40 0b	 mov	 al, BYTE PTR [eax+11]
  000ac	80 f2 eb	 xor	 dl, -21			; ffffffebH
  000af	88 55 fa	 mov	 BYTE PTR __t$[ebp+10], dl
  000b2	84 c0		 test	 al, al
  000b4	74 07		 je	 SHORT $LN85@operator
  000b6	34 ea		 xor	 al, -22			; ffffffeaH
  000b8	88 45 fb	 mov	 BYTE PTR __t$[ebp+11], al
  000bb	eb 40		 jmp	 SHORT $LN1@operator
$LN85@operator:
  000bd	c6 45 fb ea	 mov	 BYTE PTR __t$[ebp+11], -22 ; ffffffeaH
  000c1	eb 3a		 jmp	 SHORT $LN1@operator
$LN86@operator:
  000c3	c6 45 fa eb	 mov	 BYTE PTR __t$[ebp+10], -21 ; ffffffebH
  000c7	eb 34		 jmp	 SHORT $LN1@operator
$LN87@operator:
  000c9	c6 45 f9 ec	 mov	 BYTE PTR __t$[ebp+9], -20 ; ffffffecH
  000cd	eb 2e		 jmp	 SHORT $LN1@operator
$LN88@operator:
  000cf	c6 45 f8 ed	 mov	 BYTE PTR __t$[ebp+8], -19 ; ffffffedH
  000d3	eb 28		 jmp	 SHORT $LN1@operator
$LN90@operator:
  000d5	c6 45 f6 eb	 mov	 BYTE PTR __t$[ebp+6], -21 ; ffffffebH
  000d9	eb 22		 jmp	 SHORT $LN1@operator
$LN91@operator:
  000db	c6 45 f5 ec	 mov	 BYTE PTR __t$[ebp+5], -20 ; ffffffecH
  000df	eb 1c		 jmp	 SHORT $LN1@operator
$LN92@operator:
  000e1	c6 45 f4 ed	 mov	 BYTE PTR __t$[ebp+4], -19 ; ffffffedH
  000e5	eb 16		 jmp	 SHORT $LN1@operator
$LN93@operator:
  000e7	c6 45 f3 ea	 mov	 BYTE PTR __t$[ebp+3], -22 ; ffffffeaH
  000eb	eb 10		 jmp	 SHORT $LN1@operator
$LN94@operator:
  000ed	c6 45 f2 eb	 mov	 BYTE PTR __t$[ebp+2], -21 ; ffffffebH
  000f1	eb 0a		 jmp	 SHORT $LN1@operator
$LN95@operator:
  000f3	c6 45 f1 ec	 mov	 BYTE PTR __t$[ebp+1], -20 ; ffffffecH
  000f7	eb 04		 jmp	 SHORT $LN1@operator
$LN96@operator:
  000f9	c6 45 f0 ed	 mov	 BYTE PTR __t$[ebp], -19	; ffffffedH
$LN1@operator:
  000fd	81 75 f0 ed ec
	eb ea		 xor	 DWORD PTR __t$[ebp], -353637139 ; eaebecedH
  00104	6a 04		 push	 4
  00106	c6 45 f7 00	 mov	 BYTE PTR __t$[ebp+7], 0
  0010a	58		 pop	 eax
$LL101@operator:
  0010b	8b c8		 mov	 ecx, eax
  0010d	81 e1 03 00 00
	80		 and	 ecx, -2147483645	; 80000003H
  00113	79 05		 jns	 SHORT $LN115@operator
  00115	49		 dec	 ecx
  00116	83 c9 fc	 or	 ecx, -4			; fffffffcH
  00119	41		 inc	 ecx
$LN115@operator:
  0011a	b2 ed		 mov	 dl, -19			; ffffffedH
  0011c	2a d1		 sub	 dl, cl
  0011e	30 54 05 f0	 xor	 BYTE PTR __t$[ebp+eax], dl
  00122	40		 inc	 eax
  00123	83 f8 07	 cmp	 eax, 7
  00126	7c e3		 jl	 SHORT $LL101@operator
  00128	8b cf		 mov	 ecx, edi
  0012a	8d 75 f0	 lea	 esi, DWORD PTR __t$[ebp]
  0012d	ff 15 00 00 00
	00		 call	 DWORD PTR __imp_?c_str@ioHashString@@QBEPBDXZ
$LL111@operator:
  00133	8a 08		 mov	 cl, BYTE PTR [eax]
  00135	3a 0e		 cmp	 cl, BYTE PTR [esi]
  00137	75 1a		 jne	 SHORT $LN112@operator
  00139	84 c9		 test	 cl, cl
  0013b	74 12		 je	 SHORT $LN113@operator
  0013d	8a 48 01	 mov	 cl, BYTE PTR [eax+1]
  00140	3a 4e 01	 cmp	 cl, BYTE PTR [esi+1]
  00143	75 0e		 jne	 SHORT $LN112@operator
  00145	83 c0 02	 add	 eax, 2
  00148	83 c6 02	 add	 esi, 2
  0014b	84 c9		 test	 cl, cl
  0014d	75 e4		 jne	 SHORT $LL111@operator
$LN113@operator:
  0014f	33 c0		 xor	 eax, eax
  00151	eb 05		 jmp	 SHORT $LN114@operator
$LN112@operator:
  00153	1b c0		 sbb	 eax, eax
  00155	83 d8 ff	 sbb	 eax, -1
$LN114@operator:
  00158	33 c9		 xor	 ecx, ecx
  0015a	85 c0		 test	 eax, eax
  0015c	0f 94 c0	 sete	 al

; 148  : }

  0015f	8b 4d fc	 mov	 ecx, DWORD PTR __$ArrayPad$[ebp]
  00162	5f		 pop	 edi
  00163	33 cd		 xor	 ecx, ebp
  00165	5e		 pop	 esi
  00166	e8 00 00 00 00	 call	 @__security_check_cookie@4
  0016b	c9		 leave
  0016c	c3		 ret	 0
??$?8$07@@YA_NABVioHashString@@AAY07$$CBD@Z ENDP	; operator==<8>
_TEXT	ENDS
PUBLIC	__$ArrayPad$
PUBLIC	??$?8$0M@@@YA_NABVioHashString@@AAY0M@$$CBD@Z	; operator==<12>
; Function compile flags: /Ogsp
;	COMDAT ??$?8$0M@@@YA_NABVioHashString@@AAY0M@$$CBD@Z
_TEXT	SEGMENT
__t$ = -20						; size = 12
__$ArrayPad$ = -4					; size = 4
_lhs$ = 8						; size = 4
_t$ = 12						; size = 4
??$?8$0M@@@YA_NABVioHashString@@AAY0M@$$CBD@Z PROC	; operator==<12>, COMDAT

; 146  : {

  00000	55		 push	 ebp
  00001	8b ec		 mov	 ebp, esp
  00003	83 ec 14	 sub	 esp, 20			; 00000014H
  00006	a1 00 00 00 00	 mov	 eax, DWORD PTR ___security_cookie
  0000b	33 c5		 xor	 eax, ebp
  0000d	89 45 fc	 mov	 DWORD PTR __$ArrayPad$[ebp], eax
  00010	8b 45 0c	 mov	 eax, DWORD PTR _t$[ebp]

; 147  : 	_ENCSTR(t, _t); return ( strcmp( lhs.c_str(), _t ) == 0 );

  00013	8a 10		 mov	 dl, BYTE PTR [eax]
  00015	56		 push	 esi
  00016	57		 push	 edi
  00017	8b 7d 08	 mov	 edi, DWORD PTR _lhs$[ebp]
  0001a	84 d2		 test	 dl, dl
  0001c	0f 84 32 01 00
	00		 je	 $LN96@operator@2
  00022	80 f2 ed	 xor	 dl, -19			; ffffffedH
  00025	88 55 ec	 mov	 BYTE PTR __t$[ebp], dl
  00028	8a 50 01	 mov	 dl, BYTE PTR [eax+1]
  0002b	84 d2		 test	 dl, dl
  0002d	0f 84 1b 01 00
	00		 je	 $LN95@operator@2
  00033	80 f2 ec	 xor	 dl, -20			; ffffffecH
  00036	88 55 ed	 mov	 BYTE PTR __t$[ebp+1], dl
  00039	8a 50 02	 mov	 dl, BYTE PTR [eax+2]
  0003c	84 d2		 test	 dl, dl
  0003e	0f 84 04 01 00
	00		 je	 $LN94@operator@2
  00044	b1 eb		 mov	 cl, -21			; ffffffebH
  00046	32 d1		 xor	 dl, cl
  00048	88 55 ee	 mov	 BYTE PTR __t$[ebp+2], dl
  0004b	8a 50 03	 mov	 dl, BYTE PTR [eax+3]
  0004e	84 d2		 test	 dl, dl
  00050	0f 84 ec 00 00
	00		 je	 $LN93@operator@2
  00056	80 f2 ea	 xor	 dl, -22			; ffffffeaH
  00059	88 55 ef	 mov	 BYTE PTR __t$[ebp+3], dl
  0005c	8a 50 04	 mov	 dl, BYTE PTR [eax+4]
  0005f	84 d2		 test	 dl, dl
  00061	0f 84 d5 00 00
	00		 je	 $LN92@operator@2
  00067	80 f2 ed	 xor	 dl, -19			; ffffffedH
  0006a	88 55 f0	 mov	 BYTE PTR __t$[ebp+4], dl
  0006d	8a 50 05	 mov	 dl, BYTE PTR [eax+5]
  00070	84 d2		 test	 dl, dl
  00072	0f 84 be 00 00
	00		 je	 $LN91@operator@2
  00078	80 f2 ec	 xor	 dl, -20			; ffffffecH
  0007b	88 55 f1	 mov	 BYTE PTR __t$[ebp+5], dl
  0007e	8a 50 06	 mov	 dl, BYTE PTR [eax+6]
  00081	84 d2		 test	 dl, dl
  00083	0f 84 a8 00 00
	00		 je	 $LN90@operator@2
  00089	32 d1		 xor	 dl, cl
  0008b	88 55 f2	 mov	 BYTE PTR __t$[ebp+6], dl
  0008e	8a 50 07	 mov	 dl, BYTE PTR [eax+7]
  00091	84 d2		 test	 dl, dl
  00093	0f 84 92 00 00
	00		 je	 $LN89@operator@2
  00099	80 f2 ea	 xor	 dl, -22			; ffffffeaH
  0009c	88 55 f3	 mov	 BYTE PTR __t$[ebp+7], dl
  0009f	8a 50 08	 mov	 dl, BYTE PTR [eax+8]
  000a2	84 d2		 test	 dl, dl
  000a4	74 7f		 je	 SHORT $LN88@operator@2
  000a6	80 f2 ed	 xor	 dl, -19			; ffffffedH
  000a9	88 55 f4	 mov	 BYTE PTR __t$[ebp+8], dl
  000ac	8a 50 09	 mov	 dl, BYTE PTR [eax+9]
  000af	84 d2		 test	 dl, dl
  000b1	74 6c		 je	 SHORT $LN87@operator@2
  000b3	80 f2 ec	 xor	 dl, -20			; ffffffecH
  000b6	88 55 f5	 mov	 BYTE PTR __t$[ebp+9], dl
  000b9	8a 50 0a	 mov	 dl, BYTE PTR [eax+10]
  000bc	84 d2		 test	 dl, dl
  000be	74 5a		 je	 SHORT $LN86@operator@2
  000c0	32 d1		 xor	 dl, cl
  000c2	80 78 0b 00	 cmp	 BYTE PTR [eax+11], 0
  000c6	88 55 f6	 mov	 BYTE PTR __t$[ebp+10], dl
  000c9	0f 84 89 00 00
	00		 je	 $LN1@operator@2
  000cf	8a 50 0c	 mov	 dl, BYTE PTR [eax+12]
  000d2	84 d2		 test	 dl, dl
  000d4	74 3e		 je	 SHORT $LN84@operator@2
  000d6	80 f2 ed	 xor	 dl, -19			; ffffffedH
  000d9	88 55 f8	 mov	 BYTE PTR __t$[ebp+12], dl
  000dc	8a 50 0d	 mov	 dl, BYTE PTR [eax+13]
  000df	84 d2		 test	 dl, dl
  000e1	74 2b		 je	 SHORT $LN83@operator@2
  000e3	80 f2 ec	 xor	 dl, -20			; ffffffecH
  000e6	88 55 f9	 mov	 BYTE PTR __t$[ebp+13], dl
  000e9	8a 50 0e	 mov	 dl, BYTE PTR [eax+14]
  000ec	84 d2		 test	 dl, dl
  000ee	74 19		 je	 SHORT $LN82@operator@2
  000f0	8a 40 0f	 mov	 al, BYTE PTR [eax+15]
  000f3	32 d1		 xor	 dl, cl
  000f5	88 55 fa	 mov	 BYTE PTR __t$[ebp+14], dl
  000f8	84 c0		 test	 al, al
  000fa	74 07		 je	 SHORT $LN81@operator@2
  000fc	34 ea		 xor	 al, -22			; ffffffeaH
  000fe	88 45 fb	 mov	 BYTE PTR __t$[ebp+15], al
  00101	eb 55		 jmp	 SHORT $LN1@operator@2
$LN81@operator@2:
  00103	c6 45 fb ea	 mov	 BYTE PTR __t$[ebp+15], -22 ; ffffffeaH
  00107	eb 4f		 jmp	 SHORT $LN1@operator@2
$LN82@operator@2:
  00109	88 4d fa	 mov	 BYTE PTR __t$[ebp+14], cl
  0010c	eb 4a		 jmp	 SHORT $LN1@operator@2
$LN83@operator@2:
  0010e	c6 45 f9 ec	 mov	 BYTE PTR __t$[ebp+13], -20 ; ffffffecH
  00112	eb 44		 jmp	 SHORT $LN1@operator@2
$LN84@operator@2:
  00114	c6 45 f8 ed	 mov	 BYTE PTR __t$[ebp+12], -19 ; ffffffedH
  00118	eb 3e		 jmp	 SHORT $LN1@operator@2
$LN86@operator@2:
  0011a	88 4d f6	 mov	 BYTE PTR __t$[ebp+10], cl
  0011d	eb 39		 jmp	 SHORT $LN1@operator@2
$LN87@operator@2:
  0011f	c6 45 f5 ec	 mov	 BYTE PTR __t$[ebp+9], -20 ; ffffffecH
  00123	eb 33		 jmp	 SHORT $LN1@operator@2
$LN88@operator@2:
  00125	c6 45 f4 ed	 mov	 BYTE PTR __t$[ebp+8], -19 ; ffffffedH
  00129	eb 2d		 jmp	 SHORT $LN1@operator@2
$LN89@operator@2:
  0012b	c6 45 f3 ea	 mov	 BYTE PTR __t$[ebp+7], -22 ; ffffffeaH
  0012f	eb 27		 jmp	 SHORT $LN1@operator@2
$LN90@operator@2:
  00131	88 4d f2	 mov	 BYTE PTR __t$[ebp+6], cl
  00134	eb 22		 jmp	 SHORT $LN1@operator@2
$LN91@operator@2:
  00136	c6 45 f1 ec	 mov	 BYTE PTR __t$[ebp+5], -20 ; ffffffecH
  0013a	eb 1c		 jmp	 SHORT $LN1@operator@2
$LN92@operator@2:
  0013c	c6 45 f0 ed	 mov	 BYTE PTR __t$[ebp+4], -19 ; ffffffedH
  00140	eb 16		 jmp	 SHORT $LN1@operator@2
$LN93@operator@2:
  00142	c6 45 ef ea	 mov	 BYTE PTR __t$[ebp+3], -22 ; ffffffeaH
  00146	eb 10		 jmp	 SHORT $LN1@operator@2
$LN94@operator@2:
  00148	c6 45 ee eb	 mov	 BYTE PTR __t$[ebp+2], -21 ; ffffffebH
  0014c	eb 0a		 jmp	 SHORT $LN1@operator@2
$LN95@operator@2:
  0014e	c6 45 ed ec	 mov	 BYTE PTR __t$[ebp+1], -20 ; ffffffecH
  00152	eb 04		 jmp	 SHORT $LN1@operator@2
$LN96@operator@2:
  00154	c6 45 ec ed	 mov	 BYTE PTR __t$[ebp], -19	; ffffffedH
$LN1@operator@2:
  00158	6a 02		 push	 2
  0015a	8d 45 ec	 lea	 eax, DWORD PTR __t$[ebp]
  0015d	c6 45 f7 00	 mov	 BYTE PTR __t$[ebp+11], 0
  00161	5a		 pop	 edx
$LL104@operator@2:
  00162	81 30 ed ec eb
	ea		 xor	 DWORD PTR [eax], -353637139 ; eaebecedH
  00168	83 c0 04	 add	 eax, 4
  0016b	4a		 dec	 edx
  0016c	75 f4		 jne	 SHORT $LL104@operator@2
  0016e	6a 08		 push	 8
  00170	58		 pop	 eax
$LL101@operator@2:
  00171	8b c8		 mov	 ecx, eax
  00173	81 e1 03 00 00
	80		 and	 ecx, -2147483645	; 80000003H
  00179	79 05		 jns	 SHORT $LN115@operator@2
  0017b	49		 dec	 ecx
  0017c	83 c9 fc	 or	 ecx, -4			; fffffffcH
  0017f	41		 inc	 ecx
$LN115@operator@2:
  00180	b2 ed		 mov	 dl, -19			; ffffffedH
  00182	2a d1		 sub	 dl, cl
  00184	30 54 05 ec	 xor	 BYTE PTR __t$[ebp+eax], dl
  00188	40		 inc	 eax
  00189	83 f8 0b	 cmp	 eax, 11			; 0000000bH
  0018c	7c e3		 jl	 SHORT $LL101@operator@2
  0018e	8b cf		 mov	 ecx, edi
  00190	8d 75 ec	 lea	 esi, DWORD PTR __t$[ebp]
  00193	ff 15 00 00 00
	00		 call	 DWORD PTR __imp_?c_str@ioHashString@@QBEPBDXZ
$LL111@operator@2:
  00199	8a 08		 mov	 cl, BYTE PTR [eax]
  0019b	3a 0e		 cmp	 cl, BYTE PTR [esi]
  0019d	75 1a		 jne	 SHORT $LN112@operator@2
  0019f	84 c9		 test	 cl, cl
  001a1	74 12		 je	 SHORT $LN113@operator@2
  001a3	8a 48 01	 mov	 cl, BYTE PTR [eax+1]
  001a6	3a 4e 01	 cmp	 cl, BYTE PTR [esi+1]
  001a9	75 0e		 jne	 SHORT $LN112@operator@2
  001ab	83 c0 02	 add	 eax, 2
  001ae	83 c6 02	 add	 esi, 2
  001b1	84 c9		 test	 cl, cl
  001b3	75 e4		 jne	 SHORT $LL111@operator@2
$LN113@operator@2:
  001b5	33 c0		 xor	 eax, eax
  001b7	eb 05		 jmp	 SHORT $LN114@operator@2
$LN112@operator@2:
  001b9	1b c0		 sbb	 eax, eax
  001bb	83 d8 ff	 sbb	 eax, -1
$LN114@operator@2:
  001be	33 c9		 xor	 ecx, ecx
  001c0	85 c0		 test	 eax, eax
  001c2	0f 94 c0	 sete	 al

; 148  : }

  001c5	8b 4d fc	 mov	 ecx, DWORD PTR __$ArrayPad$[ebp]
  001c8	5f		 pop	 edi
  001c9	33 cd		 xor	 ecx, ebp
  001cb	5e		 pop	 esi
  001cc	e8 00 00 00 00	 call	 @__security_check_cookie@4
  001d1	c9		 leave
  001d2	c3		 ret	 0
??$?8$0M@@@YA_NABVioHashString@@AAY0M@$$CBD@Z ENDP	; operator==<12>
_TEXT	ENDS
PUBLIC	?StringCbPrintfA@@YAJPADIPBDZZ			; StringCbPrintfA
; Function compile flags: /Ogsp
; File c:\program files (x86)\microsoft sdks\windows\v7.0a\include\strsafe.h
;	COMDAT ?StringCbPrintfA@@YAJPADIPBDZZ
_TEXT	SEGMENT
_pszDest$ = 8						; size = 4
_cbDest$ = 12						; size = 4
_pszFormat$ = 16					; size = 4
?StringCbPrintfA@@YAJPADIPBDZZ PROC			; StringCbPrintfA, COMDAT

; 4767 : {

  00000	55		 push	 ebp
  00001	8b ec		 mov	 ebp, esp

; 4768 :     HRESULT hr;
; 4769 :     size_t cchDest = cbDest / sizeof(char);
; 4770 : 
; 4771 :     hr = StringValidateDestA(pszDest, cchDest, STRSAFE_MAX_CCH);

  00003	8b 4d 0c	 mov	 ecx, DWORD PTR _cbDest$[ebp]
  00006	33 c0		 xor	 eax, eax
  00008	85 c9		 test	 ecx, ecx
  0000a	74 08		 je	 SHORT $LN4@StringCbPr
  0000c	81 f9 ff ff ff
	7f		 cmp	 ecx, 2147483647		; 7fffffffH
  00012	76 05		 jbe	 SHORT $LN5@StringCbPr
$LN4@StringCbPr:
  00014	b8 57 00 07 80	 mov	 eax, -2147024809	; 80070057H
$LN5@StringCbPr:

; 4772 :     
; 4773 :     if (SUCCEEDED(hr))

  00019	85 c0		 test	 eax, eax
  0001b	78 39		 js	 SHORT $LN1@StringCbPr

; 4774 :     {
; 4775 :         va_list argList;
; 4776 : 
; 4777 :         va_start(argList, pszFormat);
; 4778 : 
; 4779 :         hr = StringVPrintfWorkerA(pszDest,
; 4780 :                                   cchDest,
; 4781 :                                   NULL,
; 4782 :                                   pszFormat,
; 4783 :                                   argList);

  0001d	53		 push	 ebx
  0001e	56		 push	 esi
  0001f	57		 push	 edi
  00020	8b 7d 08	 mov	 edi, DWORD PTR _pszDest$[ebp]
  00023	8d 45 14	 lea	 eax, DWORD PTR _pszFormat$[ebp+4]
  00026	50		 push	 eax
  00027	ff 75 10	 push	 DWORD PTR _pszFormat$[ebp]
  0002a	8d 71 ff	 lea	 esi, DWORD PTR [ecx-1]
  0002d	56		 push	 esi
  0002e	57		 push	 edi
  0002f	33 db		 xor	 ebx, ebx
  00031	ff 15 00 00 00
	00		 call	 DWORD PTR __imp___vsnprintf
  00037	83 c4 10	 add	 esp, 16			; 00000010H
  0003a	85 c0		 test	 eax, eax
  0003c	78 0b		 js	 SHORT $LN12@StringCbPr
  0003e	3b c6		 cmp	 eax, esi
  00040	77 07		 ja	 SHORT $LN12@StringCbPr
  00042	75 0d		 jne	 SHORT $LN9@StringCbPr
  00044	88 1c 3e	 mov	 BYTE PTR [esi+edi], bl
  00047	eb 08		 jmp	 SHORT $LN9@StringCbPr
$LN12@StringCbPr:
  00049	88 1c 3e	 mov	 BYTE PTR [esi+edi], bl
  0004c	bb 7a 00 07 80	 mov	 ebx, -2147024774	; 8007007aH
$LN9@StringCbPr:
  00051	5f		 pop	 edi
  00052	5e		 pop	 esi
  00053	8b c3		 mov	 eax, ebx
  00055	5b		 pop	 ebx
$LN1@StringCbPr:

; 4784 : 
; 4785 :         va_end(argList);
; 4786 :     }
; 4787 : 
; 4788 :     return hr;
; 4789 : }

  00056	5d		 pop	 ebp
  00057	c3		 ret	 0
?StringCbPrintfA@@YAJPADIPBDZZ ENDP			; StringCbPrintfA
_TEXT	ENDS
PUBLIC	_this$GSCopy$
PUBLIC	__$ArrayPad$
EXTRN	__imp_?AddRenderFrame@ioWnd@@UAEXABVioHashString@@PAVioUIRenderFrame@@@Z:PROC
; Function compile flags: /Ogsp
; File d:\lost saga for developer\youtube\tutorial\source\src\lsclient\gui\changenamewnd.cpp
;	COMDAT ?AddRenderFrame@ChangeNameWnd@@UAEXABVioHashString@@PAVioUIRenderFrame@@@Z
_TEXT	SEGMENT
_this$GSCopy$ = -20					; size = 4
__t$509740 = -16					; size = 8
__$ArrayPad$ = -4					; size = 4
_szType$ = 8						; size = 4
_pFrame$ = 12						; size = 4
?AddRenderFrame@ChangeNameWnd@@UAEXABVioHashString@@PAVioUIRenderFrame@@@Z PROC ; ChangeNameWnd::AddRenderFrame, COMDAT
; _this$ = ecx

; 157  : {

  00000	55		 push	 ebp
  00001	8b ec		 mov	 ebp, esp
  00003	83 ec 14	 sub	 esp, 20			; 00000014H
  00006	a1 00 00 00 00	 mov	 eax, DWORD PTR ___security_cookie
  0000b	33 c5		 xor	 eax, ebp
  0000d	89 45 fc	 mov	 DWORD PTR __$ArrayPad$[ebp], eax
  00010	53		 push	 ebx
  00011	8b 5d 0c	 mov	 ebx, DWORD PTR _pFrame$[ebp]
  00014	56		 push	 esi
  00015	57		 push	 edi
  00016	8b 7d 08	 mov	 edi, DWORD PTR _szType$[ebp]

; 158  : 	if( szType == "EditFrm" )

  00019	6a 04		 push	 4
  0001b	c7 45 f0 a8 88
	82 9e		 mov	 DWORD PTR __t$509740[ebp], -1635612504 ; 9e8288a8H
  00022	81 75 f0 ed ec
	eb ea		 xor	 DWORD PTR __t$509740[ebp], -353637139 ; eaebecedH
  00029	89 4d ec	 mov	 DWORD PTR _this$GSCopy$[ebp], ecx
  0002c	c7 45 f4 ab 9e
	86 00		 mov	 DWORD PTR __t$509740[ebp+4], 8822443 ; 00869eabH
  00033	58		 pop	 eax
$LL108@AddRenderF:
  00034	8b c8		 mov	 ecx, eax
  00036	81 e1 03 00 00
	80		 and	 ecx, -2147483645	; 80000003H
  0003c	79 05		 jns	 SHORT $LN122@AddRenderF
  0003e	49		 dec	 ecx
  0003f	83 c9 fc	 or	 ecx, -4			; fffffffcH
  00042	41		 inc	 ecx
$LN122@AddRenderF:
  00043	b2 ed		 mov	 dl, -19			; ffffffedH
  00045	2a d1		 sub	 dl, cl
  00047	30 54 05 f0	 xor	 BYTE PTR __t$509740[ebp+eax], dl
  0004b	40		 inc	 eax
  0004c	83 f8 07	 cmp	 eax, 7
  0004f	7c e3		 jl	 SHORT $LL108@AddRenderF
  00051	8b cf		 mov	 ecx, edi
  00053	8d 75 f0	 lea	 esi, DWORD PTR __t$509740[ebp]
  00056	ff 15 00 00 00
	00		 call	 DWORD PTR __imp_?c_str@ioHashString@@QBEPBDXZ
$LL118@AddRenderF:
  0005c	8a 08		 mov	 cl, BYTE PTR [eax]
  0005e	3a 0e		 cmp	 cl, BYTE PTR [esi]
  00060	75 1a		 jne	 SHORT $LN119@AddRenderF
  00062	84 c9		 test	 cl, cl
  00064	74 12		 je	 SHORT $LN120@AddRenderF
  00066	8a 48 01	 mov	 cl, BYTE PTR [eax+1]
  00069	3a 4e 01	 cmp	 cl, BYTE PTR [esi+1]
  0006c	75 0e		 jne	 SHORT $LN119@AddRenderF
  0006e	83 c0 02	 add	 eax, 2
  00071	83 c6 02	 add	 esi, 2
  00074	84 c9		 test	 cl, cl
  00076	75 e4		 jne	 SHORT $LL118@AddRenderF
$LN120@AddRenderF:
  00078	33 c0		 xor	 eax, eax
  0007a	eb 05		 jmp	 SHORT $LN121@AddRenderF
$LN119@AddRenderF:
  0007c	1b c0		 sbb	 eax, eax
  0007e	83 d8 ff	 sbb	 eax, -1
$LN121@AddRenderF:
  00081	85 c0		 test	 eax, eax
  00083	75 23		 jne	 SHORT $LN3@AddRenderF

; 159  : 	{
; 160  : 		SAFEDELETE( m_pEditFrm );

  00085	8b 75 ec	 mov	 esi, DWORD PTR _this$GSCopy$[ebp]
  00088	8b 8e fc 01 00
	00		 mov	 ecx, DWORD PTR [esi+508]
  0008e	85 c9		 test	 ecx, ecx
  00090	74 0e		 je	 SHORT $LN2@AddRenderF
  00092	8b 01		 mov	 eax, DWORD PTR [ecx]
  00094	6a 01		 push	 1
  00096	ff 50 40	 call	 DWORD PTR [eax+64]
  00099	83 a6 fc 01 00
	00 00		 and	 DWORD PTR [esi+508], 0
$LN2@AddRenderF:

; 161  : 		m_pEditFrm = pFrame;

  000a0	89 9e fc 01 00
	00		 mov	 DWORD PTR [esi+508], ebx

; 162  : 	}
; 163  : 	else

  000a6	eb 0b		 jmp	 SHORT $LN1@AddRenderF
$LN3@AddRenderF:

; 164  : 	{
; 165  : 		ioWnd::AddRenderFrame( szType, pFrame );

  000a8	8b 4d ec	 mov	 ecx, DWORD PTR _this$GSCopy$[ebp]
  000ab	53		 push	 ebx
  000ac	57		 push	 edi
  000ad	ff 15 00 00 00
	00		 call	 DWORD PTR __imp_?AddRenderFrame@ioWnd@@UAEXABVioHashString@@PAVioUIRenderFrame@@@Z
$LN1@AddRenderF:

; 166  : 	}
; 167  : }

  000b3	8b 4d fc	 mov	 ecx, DWORD PTR __$ArrayPad$[ebp]
  000b6	5f		 pop	 edi
  000b7	5e		 pop	 esi
  000b8	33 cd		 xor	 ecx, ebp
  000ba	5b		 pop	 ebx
  000bb	e8 00 00 00 00	 call	 @__security_check_cookie@4
  000c0	c9		 leave
  000c1	c2 08 00	 ret	 8
?AddRenderFrame@ChangeNameWnd@@UAEXABVioHashString@@PAVioUIRenderFrame@@@Z ENDP ; ChangeNameWnd::AddRenderFrame
_TEXT	ENDS
PUBLIC	??_C@_0BK@NNBBJMHM@ChangeNameWnd?3?3ChangeName?$AA@ ; `string'
PUBLIC	_this$GSCopy$
PUBLIC	?ChangeName@ChangeNameWnd@@IAEXXZ		; ChangeNameWnd::ChangeName
EXTRN	?SetPrevMsgListBoxWithTitle@ioSP2GUIManager@@QAEXPAVioWnd@@H0PAVioComplexStringPrinter@@PBD222W4TextAlignType@@@Z:PROC ; ioSP2GUIManager::SetPrevMsgListBoxWithTitle
EXTRN	?IsCanUse@ioUserEtcItem@@QAE_NH@Z:PROC		; ioUserEtcItem::IsCanUse
EXTRN	?IsLimitedGuildName@CSlangUtil@@QAE_NPBD@Z:PROC	; CSlangUtil::IsLimitedGuildName
EXTRN	__imp_?SafeSprintf@@YAXPADHPBD1@Z:PROC
EXTRN	?IsGuildMaster@ioGuildInfo@@QAE_NXZ:PROC	; ioGuildInfo::IsGuildMaster
EXTRN	__imp_?HideWnd@ioWnd@@QAEXXZ:PROC
EXTRN	?SetMsgBox@ioSP2GUIManager@@QAAXHPAVioWnd@@PBDZZ:PROC ; ioSP2GUIManager::SetMsgBox
EXTRN	?IsGuild@ioGuildInfo@@QAE_NXZ:PROC		; ioGuildInfo::IsGuild
EXTRN	__imp_??9ioHashString@@QBE_NPBD@Z:PROC
EXTRN	?ConvertString@CSlangUtil@@QAEPBDPBD_N@Z:PROC	; CSlangUtil::ConvertString
EXTRN	?GetSingleton@CSlangUtil@@SAAAV1@XZ:PROC	; CSlangUtil::GetSingleton
EXTRN	?IsNotMakeID@ioApplication@@QAE_NPBDAAVioHashString@@@Z:PROC ; ioApplication::IsNotMakeID
EXTRN	?GetLocal@ioLocalManager@@QAEPAVioLocalParent@@W4LocalType@ioLocalManagerParent@@@Z:PROC ; ioLocalManager::GetLocal
EXTRN	?GetSingleton@ioLocalManager@@SAAAV1@XZ:PROC	; ioLocalManager::GetSingleton
EXTRN	__imp_?GetLocalType@ioLocalManagerParent@@SA?AW4LocalType@1@XZ:PROC
EXTRN	?IsRightID@ioApplication@@QAE_NPBD@Z:PROC	; ioApplication::IsRightID
EXTRN	__imp_??8ioHashString@@QBE_NABV0@@Z:PROC
EXTRN	?SetMsgBox@ioSP2GUIManager@@QAEXHPAVioWnd@@PBD1@Z:PROC ; ioSP2GUIManager::SetMsgBox
EXTRN	?GetSingleton@ioSP2GUIManager@@SAAAV1@XZ:PROC	; ioSP2GUIManager::GetSingleton
EXTRN	__imp_?IsEmpty@ioHashString@@QBE_NXZ:PROC
EXTRN	__imp_?GetText@ioEdit@@QBEPBDXZ:PROC
EXTRN	?GetEtcItem@ioUserEtcItem@@QAE_NHAAUETCITEMSLOT@1@@Z:PROC ; ioUserEtcItem::GetEtcItem
EXTRN	__EH_epilog3_GS:PROC
EXTRN	__EH_prolog3_GS:PROC
EXTRN	_memset:PROC
;	COMDAT ??_C@_0BK@NNBBJMHM@ChangeNameWnd?3?3ChangeName?$AA@
; File d:\lost saga for developer\youtube\tutorial\source\src\lsclient\iomyinfo.h
CONST	SEGMENT
??_C@_0BK@NNBBJMHM@ChangeNameWnd?3?3ChangeName?$AA@ DB 'ChangeNameWnd::Ch'
	DB	'angeName', 00H				; `string'
CONST	ENDS
;	COMDAT xdata$x
xdata$x	SEGMENT
__unwindtable$?ChangeName@ChangeNameWnd@@IAEXXZ DD 0ffffffffH
	DD	FLAT:__unwindfunclet$?ChangeName@ChangeNameWnd@@IAEXXZ$0
	DD	0ffffffffH
	DD	FLAT:__unwindfunclet$?ChangeName@ChangeNameWnd@@IAEXXZ$1
	DD	0ffffffffH
	DD	FLAT:__unwindfunclet$?ChangeName@ChangeNameWnd@@IAEXXZ$2
__ehfuncinfo$?ChangeName@ChangeNameWnd@@IAEXXZ DD 019930522H
	DD	03H
	DD	FLAT:__unwindtable$?ChangeName@ChangeNameWnd@@IAEXXZ
	DD	2 DUP(00H)
	DD	2 DUP(00H)
	DD	00H
	DD	01H
; Function compile flags: /Ogsp
; File d:\lost saga for developer\youtube\tutorial\source\src\lsclient\gui\changenamewnd.cpp
xdata$x	ENDS
;	COMDAT ?ChangeName@ChangeNameWnd@@IAEXXZ
_TEXT	SEGMENT
_szNotMakeString$508631 = -1240				; size = 16
_kSlot$ = -1224						; size = 12
_pEdit$ = -1212						; size = 4
_szNotMakeString$508645 = -1208				; size = 16
tv774 = -1192						; size = 4
_pLocal$508642 = -1192					; size = 4
_this$GSCopy$ = -1188					; size = 4
tv775 = -1184						; size = 4
tv713 = -1184						; size = 4
_pLocal$508628 = -1184					; size = 4
_kPrinter$ = -1180					; size = 384
_szSlangName$508634 = -796				; size = 260
_szError$508647 = -536					; size = 260
_szSlangName$508648 = -276				; size = 260
__$EHRec$ = -12						; size = 12
?ChangeName@ChangeNameWnd@@IAEXXZ PROC			; ChangeNameWnd::ChangeName, COMDAT
; _this$ = ecx

; 215  : {

  00000	68 cc 04 00 00	 push	 1228			; 000004ccH
  00005	b8 00 00 00 00	 mov	 eax, __ehhandler$?ChangeName@ChangeNameWnd@@IAEXXZ
  0000a	e8 00 00 00 00	 call	 __EH_prolog3_GS
  0000f	8b f9		 mov	 edi, ecx

; 360  : 		g_GUIMgr.SetPrevMsgListBoxWithTitle( NULL, MB_YESNO, this, kPrinter, STR(24), STR(25), STR(26), STR(27) );

  00011	89 bd 5c fb ff
	ff		 mov	 DWORD PTR _this$GSCopy$[ebp], edi
  00017	e8 00 00 00 00	 call	 ?GetSingleton@ioMyInfo@@SAAAV1@XZ ; ioMyInfo::GetSingleton
  0001c	8d 88 44 01 00
	00		 lea	 ecx, DWORD PTR [eax+324]
  00022	33 f6		 xor	 esi, esi
  00024	3b ce		 cmp	 ecx, esi
  00026	75 28		 jne	 SHORT $LN27@ChangeName@3

; 216  : 	ioUserEtcItem *pUserEtcItem = g_MyInfo.GetUserEtcItem();
; 217  : 	if( !pUserEtcItem )
; 218  : 	{
; 219  : 		ErrorEdit( STR(1) );

  00028	56		 push	 esi
  00029	6a 01		 push	 1
$LN42@ChangeName@3:
  0002b	68 00 00 00 00	 push	 OFFSET ??_C@_00CNPNBAHC@?$AA@
  00030	68 00 00 00 00	 push	 OFFSET ??_C@_0BK@NNBBJMHM@ChangeNameWnd?3?3ChangeName?$AA@
  00035	ff 15 00 00 00
	00		 call	 DWORD PTR __imp_?GetSingleton@ioStringManager@@SAAAV1@XZ
  0003b	8b c8		 mov	 ecx, eax
  0003d	ff 15 00 00 00
	00		 call	 DWORD PTR __imp_?GetString@ioStringManager@@QAEPADPBD0HW4FileNamePrefix@1@@Z
  00043	50		 push	 eax
  00044	8b cf		 mov	 ecx, edi
  00046	e8 00 00 00 00	 call	 ?ErrorEdit@ChangeNameWnd@@QAEXPBD@Z ; ChangeNameWnd::ErrorEdit

; 220  : 		return;

  0004b	e9 9e 06 00 00	 jmp	 $LN28@ChangeName@3
$LN27@ChangeName@3:

; 221  : 	}
; 222  : 
; 223  : 	ioUserEtcItem::ETCITEMSLOT kSlot;
; 224  : 	if( !pUserEtcItem->GetEtcItem( m_dwEtcType, kSlot) )

  00050	8d 85 38 fb ff
	ff		 lea	 eax, DWORD PTR _kSlot$[ebp]
  00056	50		 push	 eax
  00057	ff b7 60 01 00
	00		 push	 DWORD PTR [edi+352]
  0005d	89 b5 38 fb ff
	ff		 mov	 DWORD PTR _kSlot$[ebp], esi
  00063	89 b5 3c fb ff
	ff		 mov	 DWORD PTR _kSlot$[ebp+4], esi
  00069	89 b5 40 fb ff
	ff		 mov	 DWORD PTR _kSlot$[ebp+8], esi
  0006f	e8 00 00 00 00	 call	 ?GetEtcItem@ioUserEtcItem@@QAE_NHAAUETCITEMSLOT@1@@Z ; ioUserEtcItem::GetEtcItem

; 225  : 	{
; 226  : 		ErrorEdit( STR(2) );

  00074	56		 push	 esi
  00075	84 c0		 test	 al, al
  00077	75 04		 jne	 SHORT $LN26@ChangeName@3
  00079	6a 02		 push	 2

; 227  : 		return;

  0007b	eb ae		 jmp	 SHORT $LN42@ChangeName@3
$LN26@ChangeName@3:

; 228  : 	}
; 229  : 
; 230  : 	ioEdit *pEdit = dynamic_cast<ioEdit*> ( FindChildWnd( ID_CHANGE_EDIT ) );

  0007d	68 00 00 00 00	 push	 OFFSET ??_R0?AVioEdit@@@8
  00082	68 00 00 00 00	 push	 OFFSET ??_R0?AVioWnd@@@8
  00087	56		 push	 esi
  00088	6a 02		 push	 2
  0008a	8b cf		 mov	 ecx, edi
  0008c	ff 15 00 00 00
	00		 call	 DWORD PTR __imp_?FindChildWnd@ioWnd@@QAEPAV1@K@Z
  00092	50		 push	 eax
  00093	e8 00 00 00 00	 call	 ___RTDynamicCast
  00098	8b c8		 mov	 ecx, eax
  0009a	83 c4 14	 add	 esp, 20			; 00000014H
  0009d	89 8d 44 fb ff
	ff		 mov	 DWORD PTR _pEdit$[ebp], ecx

; 231  : 	if( !pEdit )

  000a3	3b ce		 cmp	 ecx, esi
  000a5	75 08		 jne	 SHORT $LN25@ChangeName@3

; 232  : 	{
; 233  : 		ErrorEdit( STR(3) );

  000a7	56		 push	 esi
  000a8	6a 03		 push	 3

; 234  : 		return;

  000aa	e9 7c ff ff ff	 jmp	 $LN42@ChangeName@3
$LN25@ChangeName@3:

; 235  : 	}
; 236  : 
; 237  : 	m_szNewName = pEdit->GetText();

  000af	ff 15 00 00 00
	00		 call	 DWORD PTR __imp_?GetText@ioEdit@@QBEPBDXZ
  000b5	50		 push	 eax
  000b6	8d 8f cc 01 00
	00		 lea	 ecx, DWORD PTR [edi+460]
  000bc	ff 15 00 00 00
	00		 call	 DWORD PTR __imp_??4ioHashString@@QAEAAV0@PBD@Z

; 238  : 	if( m_szNewName.IsEmpty() )

  000c2	8d 8f cc 01 00
	00		 lea	 ecx, DWORD PTR [edi+460]
  000c8	ff 15 00 00 00
	00		 call	 DWORD PTR __imp_?IsEmpty@ioHashString@@QBE_NXZ
  000ce	84 c0		 test	 al, al
  000d0	74 3c		 je	 SHORT $LN24@ChangeName@3

; 239  : 	{
; 240  : 		g_GUIMgr.SetMsgBox( MB_OK, NULL, STR(4), m_szDefaultNotice.c_str() );

  000d2	8d 8f dc 01 00
	00		 lea	 ecx, DWORD PTR [edi+476]
  000d8	ff 15 00 00 00
	00		 call	 DWORD PTR __imp_?c_str@ioHashString@@QBEPBDXZ
  000de	50		 push	 eax
  000df	56		 push	 esi
  000e0	6a 04		 push	 4
$LN43@ChangeName@3:
  000e2	68 00 00 00 00	 push	 OFFSET ??_C@_00CNPNBAHC@?$AA@
  000e7	68 00 00 00 00	 push	 OFFSET ??_C@_0BK@NNBBJMHM@ChangeNameWnd?3?3ChangeName?$AA@
  000ec	ff 15 00 00 00
	00		 call	 DWORD PTR __imp_?GetSingleton@ioStringManager@@SAAAV1@XZ
  000f2	8b c8		 mov	 ecx, eax
  000f4	ff 15 00 00 00
	00		 call	 DWORD PTR __imp_?GetString@ioStringManager@@QAEPADPBD0HW4FileNamePrefix@1@@Z
  000fa	50		 push	 eax
  000fb	56		 push	 esi
  000fc	56		 push	 esi
  000fd	e8 00 00 00 00	 call	 ?GetSingleton@ioSP2GUIManager@@SAAAV1@XZ ; ioSP2GUIManager::GetSingleton
  00102	8b c8		 mov	 ecx, eax
  00104	e8 00 00 00 00	 call	 ?SetMsgBox@ioSP2GUIManager@@QAEXHPAVioWnd@@PBD1@Z ; ioSP2GUIManager::SetMsgBox

; 241  : 		return;

  00109	e9 e0 05 00 00	 jmp	 $LN28@ChangeName@3
$LN24@ChangeName@3:

; 242  : 	}
; 243  : 
; 244  : 	if( m_szNewName == m_szDefaultNotice )

  0010e	8d 87 dc 01 00
	00		 lea	 eax, DWORD PTR [edi+476]
  00114	50		 push	 eax
  00115	8d 8f cc 01 00
	00		 lea	 ecx, DWORD PTR [edi+460]
  0011b	89 85 60 fb ff
	ff		 mov	 DWORD PTR tv713[ebp], eax
  00121	ff 15 00 00 00
	00		 call	 DWORD PTR __imp_??8ioHashString@@QBE_NABV0@@Z
  00127	84 c0		 test	 al, al
  00129	74 12		 je	 SHORT $LN23@ChangeName@3

; 245  : 	{
; 246  : 		g_GUIMgr.SetMsgBox( MB_OK, NULL, STR(5), m_szDefaultNotice.c_str() );

  0012b	8b 8d 60 fb ff
	ff		 mov	 ecx, DWORD PTR tv713[ebp]
  00131	ff 15 00 00 00
	00		 call	 DWORD PTR __imp_?c_str@ioHashString@@QBEPBDXZ
  00137	50		 push	 eax
  00138	56		 push	 esi
  00139	6a 05		 push	 5

; 247  : 		return;

  0013b	eb a5		 jmp	 SHORT $LN43@ChangeName@3
$LN23@ChangeName@3:

; 248  : 	}
; 249  : 
; 250  : 	if( m_dwEtcType == ioEtcItem::EIT_ETC_CHANGE_ID )

  0013d	8b 87 60 01 00
	00		 mov	 eax, DWORD PTR [edi+352]
  00143	3d c4 c6 2d 00	 cmp	 eax, 3000004		; 002dc6c4H
  00148	0f 85 9b 02 00
	00		 jne	 $LN22@ChangeName@3

; 251  : 	{
; 252  : 		if( !g_App.IsRightID( m_szNewName.c_str() ) )

  0014e	8d 8f cc 01 00
	00		 lea	 ecx, DWORD PTR [edi+460]
  00154	ff 15 00 00 00
	00		 call	 DWORD PTR __imp_?c_str@ioHashString@@QBEPBDXZ
  0015a	50		 push	 eax
  0015b	e8 00 00 00 00	 call	 ?GetSingleton@ioApplication@@SAAAV1@XZ ; ioApplication::GetSingleton
  00160	8b c8		 mov	 ecx, eax
  00162	e8 00 00 00 00	 call	 ?IsRightID@ioApplication@@QAE_NPBD@Z ; ioApplication::IsRightID
  00167	84 c0		 test	 al, al
  00169	75 08		 jne	 SHORT $LN21@ChangeName@3

; 253  : 		{
; 254  : 			ErrorEdit( STR(6) );

  0016b	56		 push	 esi
  0016c	6a 06		 push	 6

; 255  : 			return;

  0016e	e9 b8 fe ff ff	 jmp	 $LN42@ChangeName@3
$LN21@ChangeName@3:

; 256  : 		}
; 257  : 
; 258  : 		ioLocalParent *pLocal = g_LocalMgr.GetLocal( ioLocalManager::GetLocalType() );

  00173	ff 15 00 00 00
	00		 call	 DWORD PTR __imp_?GetLocalType@ioLocalManagerParent@@SA?AW4LocalType@1@XZ
  00179	50		 push	 eax
  0017a	e8 00 00 00 00	 call	 ?GetSingleton@ioLocalManager@@SAAAV1@XZ ; ioLocalManager::GetSingleton
  0017f	8b c8		 mov	 ecx, eax
  00181	e8 00 00 00 00	 call	 ?GetLocal@ioLocalManager@@QAEPAVioLocalParent@@W4LocalType@ioLocalManagerParent@@@Z ; ioLocalManager::GetLocal
  00186	89 85 60 fb ff
	ff		 mov	 DWORD PTR _pLocal$508628[ebp], eax

; 259  : 		if( pLocal )

  0018c	3b c6		 cmp	 eax, esi
  0018e	74 33		 je	 SHORT $LN19@ChangeName@3

; 260  : 		{
; 261  : 			if( !pLocal->IsRightNewID( m_szNewName.c_str() ) )

  00190	8b 00		 mov	 eax, DWORD PTR [eax]
  00192	8d 8f cc 01 00
	00		 lea	 ecx, DWORD PTR [edi+460]
  00198	89 85 58 fb ff
	ff		 mov	 DWORD PTR tv774[ebp], eax
  0019e	ff 15 00 00 00
	00		 call	 DWORD PTR __imp_?c_str@ioHashString@@QBEPBDXZ
  001a4	8b 8d 60 fb ff
	ff		 mov	 ecx, DWORD PTR _pLocal$508628[ebp]
  001aa	50		 push	 eax
  001ab	8b 85 58 fb ff
	ff		 mov	 eax, DWORD PTR tv774[ebp]
  001b1	ff 90 80 00 00
	00		 call	 DWORD PTR [eax+128]
  001b7	84 c0		 test	 al, al
  001b9	75 08		 jne	 SHORT $LN19@ChangeName@3

; 262  : 			{
; 263  : 				ErrorEdit( STR(7) );

  001bb	56		 push	 esi
  001bc	6a 07		 push	 7

; 264  : 				return;

  001be	e9 68 fe ff ff	 jmp	 $LN42@ChangeName@3
$LN19@ChangeName@3:

; 265  : 			}
; 266  : 		}
; 267  : 
; 268  : 		ioHashString szNotMakeString;

  001c3	8d 8d 28 fb ff
	ff		 lea	 ecx, DWORD PTR _szNotMakeString$508631[ebp]
  001c9	ff 15 00 00 00
	00		 call	 DWORD PTR __imp_??0ioHashString@@QAE@XZ

; 269  : 		if( g_App.IsNotMakeID( m_szNewName.c_str(), szNotMakeString ) )

  001cf	8d 85 28 fb ff
	ff		 lea	 eax, DWORD PTR _szNotMakeString$508631[ebp]
  001d5	50		 push	 eax
  001d6	8d 8f cc 01 00
	00		 lea	 ecx, DWORD PTR [edi+460]
  001dc	89 75 fc	 mov	 DWORD PTR __$EHRec$[ebp+8], esi
  001df	ff 15 00 00 00
	00		 call	 DWORD PTR __imp_?c_str@ioHashString@@QBEPBDXZ
  001e5	50		 push	 eax
  001e6	e8 00 00 00 00	 call	 ?GetSingleton@ioApplication@@SAAAV1@XZ ; ioApplication::GetSingleton
  001eb	8b c8		 mov	 ecx, eax
  001ed	e8 00 00 00 00	 call	 ?IsNotMakeID@ioApplication@@QAE_NPBDAAVioHashString@@@Z ; ioApplication::IsNotMakeID
  001f2	84 c0		 test	 al, al
  001f4	74 38		 je	 SHORT $LN18@ChangeName@3

; 270  : 		{
; 271  : 			char szError[MAX_PATH]="";
; 272  : 			ErrorEdit( STR(8) );

  001f6	56		 push	 esi
  001f7	6a 08		 push	 8
$LN44@ChangeName@3:
  001f9	68 00 00 00 00	 push	 OFFSET ??_C@_00CNPNBAHC@?$AA@
  001fe	68 00 00 00 00	 push	 OFFSET ??_C@_0BK@NNBBJMHM@ChangeNameWnd?3?3ChangeName?$AA@
  00203	ff 15 00 00 00
	00		 call	 DWORD PTR __imp_?GetSingleton@ioStringManager@@SAAAV1@XZ
  00209	8b c8		 mov	 ecx, eax
  0020b	ff 15 00 00 00
	00		 call	 DWORD PTR __imp_?GetString@ioStringManager@@QAEPADPBD0HW4FileNamePrefix@1@@Z
  00211	50		 push	 eax
  00212	8b cf		 mov	 ecx, edi
  00214	e8 00 00 00 00	 call	 ?ErrorEdit@ChangeNameWnd@@QAEXPBD@Z ; ChangeNameWnd::ErrorEdit

; 273  : 			return;

  00219	8d 8d 28 fb ff
	ff		 lea	 ecx, DWORD PTR _szNotMakeString$508631[ebp]
$LN50@ChangeName@3:
  0021f	83 4d fc ff	 or	 DWORD PTR __$EHRec$[ebp+8], -1
  00223	ff 15 00 00 00
	00		 call	 DWORD PTR __imp_??1ioHashString@@QAE@XZ
  00229	e9 c0 04 00 00	 jmp	 $LN28@ChangeName@3
$LN18@ChangeName@3:

; 274  : 		}
; 275  : 
; 276  : 		char szSlangName[MAX_PATH]="";

  0022e	68 03 01 00 00	 push	 259			; 00000103H
  00233	8d 85 e5 fc ff
	ff		 lea	 eax, DWORD PTR _szSlangName$508634[ebp+1]
  00239	56		 push	 esi
  0023a	50		 push	 eax
  0023b	c6 85 e4 fc ff
	ff 00		 mov	 BYTE PTR _szSlangName$508634[ebp], 0
  00242	e8 00 00 00 00	 call	 _memset
  00247	83 c4 0c	 add	 esp, 12			; 0000000cH

; 277  : 		StringCbPrintf( szSlangName, sizeof( szSlangName ), g_SlangUtil.ConvertString( m_szNewName.c_str() ) );

  0024a	56		 push	 esi
  0024b	8d 8f cc 01 00
	00		 lea	 ecx, DWORD PTR [edi+460]
  00251	ff 15 00 00 00
	00		 call	 DWORD PTR __imp_?c_str@ioHashString@@QBEPBDXZ
  00257	50		 push	 eax
  00258	e8 00 00 00 00	 call	 ?GetSingleton@CSlangUtil@@SAAAV1@XZ ; CSlangUtil::GetSingleton
  0025d	8b c8		 mov	 ecx, eax
  0025f	e8 00 00 00 00	 call	 ?ConvertString@CSlangUtil@@QAEPBDPBD_N@Z ; CSlangUtil::ConvertString
  00264	50		 push	 eax
  00265	8d 85 e4 fc ff
	ff		 lea	 eax, DWORD PTR _szSlangName$508634[ebp]
  0026b	68 04 01 00 00	 push	 260			; 00000104H
  00270	50		 push	 eax
  00271	e8 00 00 00 00	 call	 ?StringCbPrintfA@@YAJPADIPBDZZ ; StringCbPrintfA
  00276	83 c4 0c	 add	 esp, 12			; 0000000cH

; 278  : 		if( m_szNewName != szSlangName )

  00279	8d 85 e4 fc ff
	ff		 lea	 eax, DWORD PTR _szSlangName$508634[ebp]
  0027f	50		 push	 eax
  00280	8d 8f cc 01 00
	00		 lea	 ecx, DWORD PTR [edi+460]
  00286	ff 15 00 00 00
	00		 call	 DWORD PTR __imp_??9ioHashString@@QBE_NPBD@Z
  0028c	84 c0		 test	 al, al
  0028e	74 08		 je	 SHORT $LN17@ChangeName@3

; 279  : 		{
; 280  : 			ErrorEdit( STR(9) );

  00290	56		 push	 esi
  00291	6a 09		 push	 9

; 281  : 			return;

  00293	e9 61 ff ff ff	 jmp	 $LN44@ChangeName@3
$LN17@ChangeName@3:

; 282  : 		}
; 283  : 	}

  00298	8d 8d 28 fb ff
	ff		 lea	 ecx, DWORD PTR _szNotMakeString$508631[ebp]
$LN51@ChangeName@3:
  0029e	83 4d fc ff	 or	 DWORD PTR __$EHRec$[ebp+8], -1
  002a2	ff 15 00 00 00
	00		 call	 DWORD PTR __imp_??1ioHashString@@QAE@XZ
$LN15@ChangeName@3:

; 345  : 
; 346  : 	ioComplexStringPrinter kPrinter[MAX_MSG_LIST_SIZE];

  002a8	68 00 00 00 00	 push	 OFFSET ??1ioComplexStringPrinter@@QAE@XZ ; ioComplexStringPrinter::~ioComplexStringPrinter
  002ad	68 00 00 00 00	 push	 OFFSET ??0ioComplexStringPrinter@@QAE@XZ ; ioComplexStringPrinter::ioComplexStringPrinter
  002b2	6a 0c		 push	 12			; 0000000cH
  002b4	6a 20		 push	 32			; 00000020H
  002b6	8d 85 64 fb ff
	ff		 lea	 eax, DWORD PTR _kPrinter$[ebp]
  002bc	50		 push	 eax
  002bd	e8 00 00 00 00	 call	 ??_L@YGXPAXIHP6EX0@Z1@Z

; 347  : 	kPrinter[0].SetTextStyle( TS_NORMAL );

  002c2	56		 push	 esi
  002c3	8d 8d 64 fb ff
	ff		 lea	 ecx, DWORD PTR _kPrinter$[ebp]
  002c9	c7 45 fc 02 00
	00 00		 mov	 DWORD PTR __$EHRec$[ebp+8], 2
  002d0	e8 00 00 00 00	 call	 ?SetTextStyle@ioComplexStringPrinter@@QAEXW4TextStyle@@@Z ; ioComplexStringPrinter::SetTextStyle

; 348  : 	kPrinter[0].SetBkColor( 0, 0, 0 );	

  002d5	56		 push	 esi
  002d6	56		 push	 esi
  002d7	56		 push	 esi
  002d8	8d 8d 64 fb ff
	ff		 lea	 ecx, DWORD PTR _kPrinter$[ebp]
  002de	e8 00 00 00 00	 call	 ?SetBkColor@ioComplexStringPrinter@@QAEXHHH@Z ; ioComplexStringPrinter::SetBkColor

; 349  : 	kPrinter[0].SetTextColor( TCT_DEFAULT_GREEN );

  002e3	68 22 72 11 ff	 push	 -15633886		; ff117222H
  002e8	8d 8d 64 fb ff
	ff		 lea	 ecx, DWORD PTR _kPrinter$[ebp]
  002ee	e8 00 00 00 00	 call	 ?SetTextColor@ioComplexStringPrinter@@QAEXK@Z ; ioComplexStringPrinter::SetTextColor

; 350  : 	kPrinter[0].AddTextPiece( FONT_SIZE_13, STR(18), m_szNewName.c_str() );

  002f3	8d 8f cc 01 00
	00		 lea	 ecx, DWORD PTR [edi+460]
  002f9	ff 15 00 00 00
	00		 call	 DWORD PTR __imp_?c_str@ioHashString@@QBEPBDXZ
  002ff	50		 push	 eax
  00300	56		 push	 esi
  00301	8b 35 00 00 00
	00		 mov	 esi, DWORD PTR __imp_?GetSingleton@ioStringManager@@SAAAV1@XZ
  00307	6a 12		 push	 18			; 00000012H
  00309	68 00 00 00 00	 push	 OFFSET ??_C@_00CNPNBAHC@?$AA@
  0030e	bb 00 00 00 00	 mov	 ebx, OFFSET ??_C@_0BK@NNBBJMHM@ChangeNameWnd?3?3ChangeName?$AA@
  00313	53		 push	 ebx
  00314	ff d6		 call	 esi
  00316	8b 3d 00 00 00
	00		 mov	 edi, DWORD PTR __imp_?GetString@ioStringManager@@QAEPADPBD0HW4FileNamePrefix@1@@Z
  0031c	8b c8		 mov	 ecx, eax
  0031e	ff d7		 call	 edi
  00320	f3 0f 10 05 00
	00 00 00	 movss	 xmm0, DWORD PTR __real@3f266666
  00328	50		 push	 eax
  00329	51		 push	 ecx
  0032a	8d 8d 64 fb ff
	ff		 lea	 ecx, DWORD PTR _kPrinter$[ebp]
  00330	f3 0f 11 04 24	 movss	 DWORD PTR [esp], xmm0
  00335	e8 00 00 00 00	 call	 ?AddTextPiece@ioComplexStringPrinter@@QAEXMPBD0@Z ; ioComplexStringPrinter::AddTextPiece

; 351  : 
; 352  : 	kPrinter[1].SetTextStyle( TS_NORMAL );

  0033a	6a 00		 push	 0
  0033c	8d 8d 84 fb ff
	ff		 lea	 ecx, DWORD PTR _kPrinter$[ebp+32]
  00342	e8 00 00 00 00	 call	 ?SetTextStyle@ioComplexStringPrinter@@QAEXW4TextStyle@@@Z ; ioComplexStringPrinter::SetTextStyle

; 353  : 	kPrinter[1].SetBkColor( 0, 0, 0 );	

  00347	33 c0		 xor	 eax, eax
  00349	50		 push	 eax
  0034a	50		 push	 eax
  0034b	50		 push	 eax
  0034c	8d 8d 84 fb ff
	ff		 lea	 ecx, DWORD PTR _kPrinter$[ebp+32]
  00352	e8 00 00 00 00	 call	 ?SetBkColor@ioComplexStringPrinter@@QAEXHHH@Z ; ioComplexStringPrinter::SetBkColor

; 354  : 	kPrinter[1].SetTextColor( TCT_DEFAULT_DARKGRAY );

  00357	68 3a 3a 3a ff	 push	 -12961222		; ff3a3a3aH
  0035c	8d 8d 84 fb ff
	ff		 lea	 ecx, DWORD PTR _kPrinter$[ebp+32]
  00362	e8 00 00 00 00	 call	 ?SetTextColor@ioComplexStringPrinter@@QAEXK@Z ; ioComplexStringPrinter::SetTextColor

; 355  : 	kPrinter[1].AddTextPiece( FONT_SIZE_13, STR(19) );

  00367	6a 00		 push	 0
  00369	6a 13		 push	 19			; 00000013H
  0036b	68 00 00 00 00	 push	 OFFSET ??_C@_00CNPNBAHC@?$AA@
  00370	53		 push	 ebx
  00371	ff d6		 call	 esi
  00373	8b c8		 mov	 ecx, eax
  00375	ff d7		 call	 edi
  00377	f3 0f 10 05 00
	00 00 00	 movss	 xmm0, DWORD PTR __real@3f266666
  0037f	50		 push	 eax
  00380	51		 push	 ecx
  00381	8d 85 84 fb ff
	ff		 lea	 eax, DWORD PTR _kPrinter$[ebp+32]
  00387	f3 0f 11 04 24	 movss	 DWORD PTR [esp], xmm0
  0038c	50		 push	 eax
  0038d	e8 00 00 00 00	 call	 ?AddTextPiece@ioComplexStringPrinter@@QAAXMPBDZZ ; ioComplexStringPrinter::AddTextPiece

; 356  : 
; 357  : 	if( m_dwEtcType == ioEtcItem::EIT_ETC_CHANGE_ID )

  00392	8b 85 5c fb ff
	ff		 mov	 eax, DWORD PTR _this$GSCopy$[ebp]
  00398	83 c4 0c	 add	 esp, 12			; 0000000cH
  0039b	81 b8 60 01 00
	00 c4 c6 2d 00	 cmp	 DWORD PTR [eax+352], 3000004 ; 002dc6c4H

; 358  : 		g_GUIMgr.SetPrevMsgListBoxWithTitle( NULL, MB_YESNO, this, kPrinter, STR(20), STR(21), STR(22), STR(23) );

  003a5	6a 01		 push	 1
  003a7	6a 00		 push	 0
  003a9	0f 85 b9 02 00
	00		 jne	 $LN3@ChangeName@3
  003af	6a 17		 push	 23			; 00000017H
  003b1	68 00 00 00 00	 push	 OFFSET ??_C@_00CNPNBAHC@?$AA@
  003b6	53		 push	 ebx
  003b7	ff d6		 call	 esi
  003b9	8b c8		 mov	 ecx, eax
  003bb	ff d7		 call	 edi
  003bd	50		 push	 eax
  003be	6a 00		 push	 0
  003c0	6a 16		 push	 22			; 00000016H
  003c2	68 00 00 00 00	 push	 OFFSET ??_C@_00CNPNBAHC@?$AA@
  003c7	53		 push	 ebx
  003c8	ff d6		 call	 esi
  003ca	8b c8		 mov	 ecx, eax
  003cc	ff d7		 call	 edi
  003ce	50		 push	 eax
  003cf	6a 00		 push	 0
  003d1	6a 15		 push	 21			; 00000015H
  003d3	68 00 00 00 00	 push	 OFFSET ??_C@_00CNPNBAHC@?$AA@
  003d8	53		 push	 ebx
  003d9	ff d6		 call	 esi
  003db	8b c8		 mov	 ecx, eax
  003dd	ff d7		 call	 edi
  003df	50		 push	 eax
  003e0	6a 00		 push	 0
  003e2	6a 14		 push	 20			; 00000014H

; 359  : 	else

  003e4	e9 b4 02 00 00	 jmp	 $LN41@ChangeName@3
$LN22@ChangeName@3:

; 284  : 	else if( m_dwEtcType == ioEtcItem::EIT_ETC_GUILD_NAME_CHANGE )

  003e9	3d d2 c6 2d 00	 cmp	 eax, 3000018		; 002dc6d2H
  003ee	0f 85 b4 fe ff
	ff		 jne	 $LN15@ChangeName@3

; 285  : 	{
; 286  : 		if( !g_GuildInfo.IsGuild() )

  003f4	e8 00 00 00 00	 call	 ?GetSingleton@ioGuildInfo@@SAAAV1@XZ ; ioGuildInfo::GetSingleton
  003f9	8b c8		 mov	 ecx, eax
  003fb	e8 00 00 00 00	 call	 ?IsGuild@ioGuildInfo@@QAE_NXZ ; ioGuildInfo::IsGuild
  00400	84 c0		 test	 al, al
  00402	75 39		 jne	 SHORT $LN14@ChangeName@3

; 287  : 		{
; 288  : 			g_GUIMgr.SetMsgBox( MB_OK, NULL, STR(10) );

  00404	56		 push	 esi
  00405	6a 0a		 push	 10			; 0000000aH
$LN46@ChangeName@3:
  00407	68 00 00 00 00	 push	 OFFSET ??_C@_00CNPNBAHC@?$AA@
  0040c	68 00 00 00 00	 push	 OFFSET ??_C@_0BK@NNBBJMHM@ChangeNameWnd?3?3ChangeName?$AA@
  00411	ff 15 00 00 00
	00		 call	 DWORD PTR __imp_?GetSingleton@ioStringManager@@SAAAV1@XZ
  00417	8b c8		 mov	 ecx, eax
  00419	ff 15 00 00 00
	00		 call	 DWORD PTR __imp_?GetString@ioStringManager@@QAEPADPBD0HW4FileNamePrefix@1@@Z
  0041f	50		 push	 eax
  00420	56		 push	 esi
  00421	56		 push	 esi
  00422	e8 00 00 00 00	 call	 ?GetSingleton@ioSP2GUIManager@@SAAAV1@XZ ; ioSP2GUIManager::GetSingleton
  00427	50		 push	 eax
  00428	e8 00 00 00 00	 call	 ?SetMsgBox@ioSP2GUIManager@@QAAXHPAVioWnd@@PBDZZ ; ioSP2GUIManager::SetMsgBox
  0042d	83 c4 10	 add	 esp, 16			; 00000010H

; 289  : 			HideWnd();

  00430	8b cf		 mov	 ecx, edi
  00432	ff 15 00 00 00
	00		 call	 DWORD PTR __imp_?HideWnd@ioWnd@@QAEXXZ

; 290  : 			return;

  00438	e9 b1 02 00 00	 jmp	 $LN28@ChangeName@3
$LN14@ChangeName@3:

; 291  : 		}
; 292  : 		else if( !g_GuildInfo.IsGuildMaster() )

  0043d	e8 00 00 00 00	 call	 ?GetSingleton@ioGuildInfo@@SAAAV1@XZ ; ioGuildInfo::GetSingleton
  00442	8b c8		 mov	 ecx, eax
  00444	e8 00 00 00 00	 call	 ?IsGuildMaster@ioGuildInfo@@QAE_NXZ ; ioGuildInfo::IsGuildMaster
  00449	84 c0		 test	 al, al
  0044b	75 05		 jne	 SHORT $LN12@ChangeName@3

; 293  : 		{
; 294  : 			g_GUIMgr.SetMsgBox( MB_OK, NULL, STR(11) );

  0044d	56		 push	 esi
  0044e	6a 0b		 push	 11			; 0000000bH

; 295  : 			HideWnd();
; 296  : 			return;

  00450	eb b5		 jmp	 SHORT $LN46@ChangeName@3
$LN12@ChangeName@3:

; 297  : 		}
; 298  : 
; 299  : 		if( !g_App.IsRightID( m_szNewName.c_str() ) )

  00452	8d 8f cc 01 00
	00		 lea	 ecx, DWORD PTR [edi+460]
  00458	ff 15 00 00 00
	00		 call	 DWORD PTR __imp_?c_str@ioHashString@@QBEPBDXZ
  0045e	50		 push	 eax
  0045f	e8 00 00 00 00	 call	 ?GetSingleton@ioApplication@@SAAAV1@XZ ; ioApplication::GetSingleton
  00464	8b c8		 mov	 ecx, eax
  00466	e8 00 00 00 00	 call	 ?IsRightID@ioApplication@@QAE_NPBD@Z ; ioApplication::IsRightID
  0046b	84 c0		 test	 al, al
  0046d	75 08		 jne	 SHORT $LN11@ChangeName@3

; 300  : 		{
; 301  : 			ErrorEdit( STR(12) );

  0046f	56		 push	 esi
  00470	6a 0c		 push	 12			; 0000000cH

; 302  : 			return;

  00472	e9 b4 fb ff ff	 jmp	 $LN42@ChangeName@3
$LN11@ChangeName@3:

; 303  : 		}
; 304  : 
; 305  : 		ioLocalParent *pLocal = g_LocalMgr.GetLocal( ioLocalManager::GetLocalType() );

  00477	ff 15 00 00 00
	00		 call	 DWORD PTR __imp_?GetLocalType@ioLocalManagerParent@@SA?AW4LocalType@1@XZ
  0047d	50		 push	 eax
  0047e	e8 00 00 00 00	 call	 ?GetSingleton@ioLocalManager@@SAAAV1@XZ ; ioLocalManager::GetSingleton
  00483	8b c8		 mov	 ecx, eax
  00485	e8 00 00 00 00	 call	 ?GetLocal@ioLocalManager@@QAEPAVioLocalParent@@W4LocalType@ioLocalManagerParent@@@Z ; ioLocalManager::GetLocal
  0048a	89 85 58 fb ff
	ff		 mov	 DWORD PTR _pLocal$508642[ebp], eax

; 306  : 		if( pLocal )

  00490	3b c6		 cmp	 eax, esi
  00492	74 33		 je	 SHORT $LN9@ChangeName@3

; 307  : 		{
; 308  : 			if( !pLocal->IsRightNewID( m_szNewName.c_str() ) )

  00494	8b 00		 mov	 eax, DWORD PTR [eax]
  00496	8d 8f cc 01 00
	00		 lea	 ecx, DWORD PTR [edi+460]
  0049c	89 85 60 fb ff
	ff		 mov	 DWORD PTR tv775[ebp], eax
  004a2	ff 15 00 00 00
	00		 call	 DWORD PTR __imp_?c_str@ioHashString@@QBEPBDXZ
  004a8	8b 8d 58 fb ff
	ff		 mov	 ecx, DWORD PTR _pLocal$508642[ebp]
  004ae	50		 push	 eax
  004af	8b 85 60 fb ff
	ff		 mov	 eax, DWORD PTR tv775[ebp]
  004b5	ff 90 80 00 00
	00		 call	 DWORD PTR [eax+128]
  004bb	84 c0		 test	 al, al
  004bd	75 08		 jne	 SHORT $LN9@ChangeName@3

; 309  : 			{
; 310  : 				ErrorEdit( STR(13) );

  004bf	56		 push	 esi
  004c0	6a 0d		 push	 13			; 0000000dH

; 311  : 				return;

  004c2	e9 64 fb ff ff	 jmp	 $LN42@ChangeName@3
$LN9@ChangeName@3:

; 312  : 			}
; 313  : 		}
; 314  : 
; 315  : 		ioHashString szNotMakeString;

  004c7	8d 8d 48 fb ff
	ff		 lea	 ecx, DWORD PTR _szNotMakeString$508645[ebp]
  004cd	ff 15 00 00 00
	00		 call	 DWORD PTR __imp_??0ioHashString@@QAE@XZ

; 316  : 		if( g_App.IsNotMakeID( m_szNewName.c_str(), szNotMakeString ) )

  004d3	8d 85 48 fb ff
	ff		 lea	 eax, DWORD PTR _szNotMakeString$508645[ebp]
  004d9	50		 push	 eax
  004da	8d 8f cc 01 00
	00		 lea	 ecx, DWORD PTR [edi+460]
  004e0	c7 45 fc 01 00
	00 00		 mov	 DWORD PTR __$EHRec$[ebp+8], 1
  004e7	ff 15 00 00 00
	00		 call	 DWORD PTR __imp_?c_str@ioHashString@@QBEPBDXZ
  004ed	50		 push	 eax
  004ee	e8 00 00 00 00	 call	 ?GetSingleton@ioApplication@@SAAAV1@XZ ; ioApplication::GetSingleton
  004f3	8b c8		 mov	 ecx, eax
  004f5	e8 00 00 00 00	 call	 ?IsNotMakeID@ioApplication@@QAE_NPBDAAVioHashString@@@Z ; ioApplication::IsNotMakeID

; 317  : 		{
; 318  : 			char szError[MAX_PATH] = "";

  004fa	68 03 01 00 00	 push	 259			; 00000103H
  004ff	56		 push	 esi
  00500	84 c0		 test	 al, al
  00502	74 6d		 je	 SHORT $LN8@ChangeName@3
  00504	8d 85 e9 fd ff
	ff		 lea	 eax, DWORD PTR _szError$508647[ebp+1]
  0050a	50		 push	 eax
  0050b	c6 85 e8 fd ff
	ff 00		 mov	 BYTE PTR _szError$508647[ebp], 0
  00512	e8 00 00 00 00	 call	 _memset
  00517	83 c4 0c	 add	 esp, 12			; 0000000cH

; 319  : 			SafeSprintf( szError, sizeof( szError ), STR(14), szNotMakeString.c_str() );

  0051a	8d 8d 48 fb ff
	ff		 lea	 ecx, DWORD PTR _szNotMakeString$508645[ebp]
  00520	ff 15 00 00 00
	00		 call	 DWORD PTR __imp_?c_str@ioHashString@@QBEPBDXZ
  00526	50		 push	 eax
  00527	56		 push	 esi
  00528	6a 0e		 push	 14			; 0000000eH
  0052a	68 00 00 00 00	 push	 OFFSET ??_C@_00CNPNBAHC@?$AA@
  0052f	68 00 00 00 00	 push	 OFFSET ??_C@_0BK@NNBBJMHM@ChangeNameWnd?3?3ChangeName?$AA@
  00534	ff 15 00 00 00
	00		 call	 DWORD PTR __imp_?GetSingleton@ioStringManager@@SAAAV1@XZ
  0053a	8b c8		 mov	 ecx, eax
  0053c	ff 15 00 00 00
	00		 call	 DWORD PTR __imp_?GetString@ioStringManager@@QAEPADPBD0HW4FileNamePrefix@1@@Z
  00542	50		 push	 eax
  00543	8d 85 e8 fd ff
	ff		 lea	 eax, DWORD PTR _szError$508647[ebp]
  00549	68 04 01 00 00	 push	 260			; 00000104H
  0054e	50		 push	 eax
  0054f	ff 15 00 00 00
	00		 call	 DWORD PTR __imp_?SafeSprintf@@YAXPADHPBD1@Z
  00555	83 c4 10	 add	 esp, 16			; 00000010H

; 320  : 			ErrorEdit( szError );

  00558	8d 85 e8 fd ff
	ff		 lea	 eax, DWORD PTR _szError$508647[ebp]
$LN47@ChangeName@3:
  0055e	50		 push	 eax
  0055f	8b cf		 mov	 ecx, edi
  00561	e8 00 00 00 00	 call	 ?ErrorEdit@ChangeNameWnd@@QAEXPBD@Z ; ChangeNameWnd::ErrorEdit
$LN48@ChangeName@3:

; 321  : 			return;

  00566	8d 8d 48 fb ff
	ff		 lea	 ecx, DWORD PTR _szNotMakeString$508645[ebp]
  0056c	e9 ae fc ff ff	 jmp	 $LN50@ChangeName@3
$LN8@ChangeName@3:

; 322  : 		}
; 323  : 
; 324  : 		char szSlangName[MAX_PATH]="";

  00571	8d 85 ed fe ff
	ff		 lea	 eax, DWORD PTR _szSlangName$508648[ebp+1]
  00577	50		 push	 eax
  00578	c6 85 ec fe ff
	ff 00		 mov	 BYTE PTR _szSlangName$508648[ebp], 0
  0057f	e8 00 00 00 00	 call	 _memset
  00584	83 c4 0c	 add	 esp, 12			; 0000000cH

; 325  : 		StringCbPrintf( szSlangName, sizeof( szSlangName ), g_SlangUtil.ConvertString( m_szNewName.c_str() ) );

  00587	56		 push	 esi
  00588	8d 8f cc 01 00
	00		 lea	 ecx, DWORD PTR [edi+460]
  0058e	ff 15 00 00 00
	00		 call	 DWORD PTR __imp_?c_str@ioHashString@@QBEPBDXZ
  00594	50		 push	 eax
  00595	e8 00 00 00 00	 call	 ?GetSingleton@CSlangUtil@@SAAAV1@XZ ; CSlangUtil::GetSingleton
  0059a	8b c8		 mov	 ecx, eax
  0059c	e8 00 00 00 00	 call	 ?ConvertString@CSlangUtil@@QAEPBDPBD_N@Z ; CSlangUtil::ConvertString
  005a1	50		 push	 eax
  005a2	8d 85 ec fe ff
	ff		 lea	 eax, DWORD PTR _szSlangName$508648[ebp]
  005a8	68 04 01 00 00	 push	 260			; 00000104H
  005ad	50		 push	 eax
  005ae	e8 00 00 00 00	 call	 ?StringCbPrintfA@@YAJPADIPBDZZ ; StringCbPrintfA
  005b3	83 c4 0c	 add	 esp, 12			; 0000000cH

; 326  : 		if( m_szNewName != szSlangName )

  005b6	8d 85 ec fe ff
	ff		 lea	 eax, DWORD PTR _szSlangName$508648[ebp]
  005bc	50		 push	 eax
  005bd	8d 8f cc 01 00
	00		 lea	 ecx, DWORD PTR [edi+460]
  005c3	ff 15 00 00 00
	00		 call	 DWORD PTR __imp_??9ioHashString@@QBE_NPBD@Z
  005c9	84 c0		 test	 al, al
  005cb	74 20		 je	 SHORT $LN7@ChangeName@3

; 327  : 		{
; 328  : 			ErrorEdit( STR(15) );

  005cd	56		 push	 esi
  005ce	6a 0f		 push	 15			; 0000000fH
$LN49@ChangeName@3:
  005d0	68 00 00 00 00	 push	 OFFSET ??_C@_00CNPNBAHC@?$AA@
  005d5	68 00 00 00 00	 push	 OFFSET ??_C@_0BK@NNBBJMHM@ChangeNameWnd?3?3ChangeName?$AA@
  005da	ff 15 00 00 00
	00		 call	 DWORD PTR __imp_?GetSingleton@ioStringManager@@SAAAV1@XZ
  005e0	8b c8		 mov	 ecx, eax
  005e2	ff 15 00 00 00
	00		 call	 DWORD PTR __imp_?GetString@ioStringManager@@QAEPADPBD0HW4FileNamePrefix@1@@Z

; 329  : 			return;

  005e8	e9 71 ff ff ff	 jmp	 $LN47@ChangeName@3
$LN7@ChangeName@3:

; 330  : 		}
; 331  : 
; 332  : 		if( g_SlangUtil.IsLimitedGuildName( m_szNewName.c_str() ) ) 

  005ed	8d 8f cc 01 00
	00		 lea	 ecx, DWORD PTR [edi+460]
  005f3	ff 15 00 00 00
	00		 call	 DWORD PTR __imp_?c_str@ioHashString@@QBEPBDXZ
  005f9	50		 push	 eax
  005fa	e8 00 00 00 00	 call	 ?GetSingleton@CSlangUtil@@SAAAV1@XZ ; CSlangUtil::GetSingleton
  005ff	8b c8		 mov	 ecx, eax
  00601	e8 00 00 00 00	 call	 ?IsLimitedGuildName@CSlangUtil@@QAE_NPBD@Z ; CSlangUtil::IsLimitedGuildName
  00606	84 c0		 test	 al, al
  00608	74 05		 je	 SHORT $LN6@ChangeName@3

; 333  : 		{
; 334  : 			ErrorEdit( STR(16) );

  0060a	56		 push	 esi
  0060b	6a 10		 push	 16			; 00000010H

; 335  : 			return;

  0060d	eb c1		 jmp	 SHORT $LN49@ChangeName@3
$LN6@ChangeName@3:

; 336  : 		}
; 337  : 
; 338  : 		ioUserEtcItem *pUserEtcItem = g_MyInfo.GetUserEtcItem();

  0060f	e8 00 00 00 00	 call	 ?GetSingleton@ioMyInfo@@SAAAV1@XZ ; ioMyInfo::GetSingleton
  00614	8d 88 44 01 00
	00		 lea	 ecx, DWORD PTR [eax+324]

; 339  : 		if( !pUserEtcItem || !pUserEtcItem->IsCanUse( ioEtcItem::EIT_ETC_GUILD_NAME_CHANGE ) )

  0061a	3b ce		 cmp	 ecx, esi
  0061c	74 19		 je	 SHORT $LN4@ChangeName@3
  0061e	68 d2 c6 2d 00	 push	 3000018			; 002dc6d2H
  00623	e8 00 00 00 00	 call	 ?IsCanUse@ioUserEtcItem@@QAE_NH@Z ; ioUserEtcItem::IsCanUse
  00628	84 c0		 test	 al, al
  0062a	74 0b		 je	 SHORT $LN4@ChangeName@3

; 343  : 		}
; 344  : 	}

  0062c	8d 8d 48 fb ff
	ff		 lea	 ecx, DWORD PTR _szNotMakeString$508645[ebp]
  00632	e9 67 fc ff ff	 jmp	 $LN51@ChangeName@3
$LN4@ChangeName@3:

; 340  : 		{
; 341  : 			g_GUIMgr.SetMsgBox( MB_OK, NULL, STR(17) );

  00637	56		 push	 esi
  00638	6a 11		 push	 17			; 00000011H
  0063a	68 00 00 00 00	 push	 OFFSET ??_C@_00CNPNBAHC@?$AA@
  0063f	68 00 00 00 00	 push	 OFFSET ??_C@_0BK@NNBBJMHM@ChangeNameWnd?3?3ChangeName?$AA@
  00644	ff 15 00 00 00
	00		 call	 DWORD PTR __imp_?GetSingleton@ioStringManager@@SAAAV1@XZ
  0064a	8b c8		 mov	 ecx, eax
  0064c	ff 15 00 00 00
	00		 call	 DWORD PTR __imp_?GetString@ioStringManager@@QAEPADPBD0HW4FileNamePrefix@1@@Z
  00652	50		 push	 eax
  00653	56		 push	 esi
  00654	56		 push	 esi
  00655	e8 00 00 00 00	 call	 ?GetSingleton@ioSP2GUIManager@@SAAAV1@XZ ; ioSP2GUIManager::GetSingleton
  0065a	50		 push	 eax
  0065b	e8 00 00 00 00	 call	 ?SetMsgBox@ioSP2GUIManager@@QAAXHPAVioWnd@@PBDZZ ; ioSP2GUIManager::SetMsgBox
  00660	83 c4 10	 add	 esp, 16			; 00000010H

; 342  : 			return;

  00663	e9 fe fe ff ff	 jmp	 $LN48@ChangeName@3
$LN3@ChangeName@3:

; 360  : 		g_GUIMgr.SetPrevMsgListBoxWithTitle( NULL, MB_YESNO, this, kPrinter, STR(24), STR(25), STR(26), STR(27) );

  00668	6a 1b		 push	 27			; 0000001bH
  0066a	68 00 00 00 00	 push	 OFFSET ??_C@_00CNPNBAHC@?$AA@
  0066f	53		 push	 ebx
  00670	ff d6		 call	 esi
  00672	8b c8		 mov	 ecx, eax
  00674	ff d7		 call	 edi
  00676	50		 push	 eax
  00677	6a 00		 push	 0
  00679	6a 1a		 push	 26			; 0000001aH
  0067b	68 00 00 00 00	 push	 OFFSET ??_C@_00CNPNBAHC@?$AA@
  00680	53		 push	 ebx
  00681	ff d6		 call	 esi
  00683	8b c8		 mov	 ecx, eax
  00685	ff d7		 call	 edi
  00687	50		 push	 eax
  00688	6a 00		 push	 0
  0068a	6a 19		 push	 25			; 00000019H
  0068c	68 00 00 00 00	 push	 OFFSET ??_C@_00CNPNBAHC@?$AA@
  00691	53		 push	 ebx
  00692	ff d6		 call	 esi
  00694	8b c8		 mov	 ecx, eax
  00696	ff d7		 call	 edi
  00698	50		 push	 eax
  00699	6a 00		 push	 0
  0069b	6a 18		 push	 24			; 00000018H
$LN41@ChangeName@3:
  0069d	68 00 00 00 00	 push	 OFFSET ??_C@_00CNPNBAHC@?$AA@
  006a2	53		 push	 ebx
  006a3	ff d6		 call	 esi
  006a5	8b c8		 mov	 ecx, eax
  006a7	ff d7		 call	 edi
  006a9	50		 push	 eax
  006aa	8d 85 64 fb ff
	ff		 lea	 eax, DWORD PTR _kPrinter$[ebp]
  006b0	50		 push	 eax
  006b1	ff b5 5c fb ff
	ff		 push	 DWORD PTR _this$GSCopy$[ebp]
  006b7	6a 04		 push	 4
  006b9	6a 00		 push	 0
  006bb	e8 00 00 00 00	 call	 ?GetSingleton@ioSP2GUIManager@@SAAAV1@XZ ; ioSP2GUIManager::GetSingleton
  006c0	8b c8		 mov	 ecx, eax
  006c2	e8 00 00 00 00	 call	 ?SetPrevMsgListBoxWithTitle@ioSP2GUIManager@@QAEXPAVioWnd@@H0PAVioComplexStringPrinter@@PBD222W4TextAlignType@@@Z ; ioSP2GUIManager::SetPrevMsgListBoxWithTitle

; 361  : 
; 362  : 	if( pEdit )
; 363  : 	{
; 364  : 		pEdit->KillKeyFocus();

  006c7	8b 8d 44 fb ff
	ff		 mov	 ecx, DWORD PTR _pEdit$[ebp]
  006cd	8b 01		 mov	 eax, DWORD PTR [ecx]
  006cf	ff 90 34 01 00
	00		 call	 DWORD PTR [eax+308]

; 365  : 	}	
; 366  : }

  006d5	83 4d fc ff	 or	 DWORD PTR __$EHRec$[ebp+8], -1
  006d9	68 00 00 00 00	 push	 OFFSET ??1ioComplexStringPrinter@@QAE@XZ ; ioComplexStringPrinter::~ioComplexStringPrinter
  006de	6a 0c		 push	 12			; 0000000cH
  006e0	6a 20		 push	 32			; 00000020H
  006e2	8d 85 64 fb ff
	ff		 lea	 eax, DWORD PTR _kPrinter$[ebp]
  006e8	50		 push	 eax
  006e9	e8 00 00 00 00	 call	 ??_M@YGXPAXIHP6EX0@Z@Z
$LN28@ChangeName@3:
  006ee	e8 00 00 00 00	 call	 __EH_epilog3_GS
  006f3	c3		 ret	 0
_TEXT	ENDS
;	COMDAT text$x
text$x	SEGMENT
__unwindfunclet$?ChangeName@ChangeNameWnd@@IAEXXZ$0:
  00000	8d 8d 28 fb ff
	ff		 lea	 ecx, DWORD PTR _szNotMakeString$508631[ebp]
  00006	ff 25 00 00 00
	00		 jmp	 DWORD PTR __imp_??1ioHashString@@QAE@XZ
__unwindfunclet$?ChangeName@ChangeNameWnd@@IAEXXZ$2:
  0000c	68 00 00 00 00	 push	 OFFSET ??1ioComplexStringPrinter@@QAE@XZ ; ioComplexStringPrinter::~ioComplexStringPrinter
  00011	6a 0c		 push	 12			; 0000000cH
  00013	6a 20		 push	 32			; 00000020H
  00015	8d 85 64 fb ff
	ff		 lea	 eax, DWORD PTR _kPrinter$[ebp]
  0001b	50		 push	 eax
  0001c	e8 00 00 00 00	 call	 ??_M@YGXPAXIHP6EX0@Z@Z
  00021	c3		 ret	 0
__unwindfunclet$?ChangeName@ChangeNameWnd@@IAEXXZ$1:
  00022	8d 8d 48 fb ff
	ff		 lea	 ecx, DWORD PTR _szNotMakeString$508645[ebp]
  00028	ff 25 00 00 00
	00		 jmp	 DWORD PTR __imp_??1ioHashString@@QAE@XZ
__ehhandler$?ChangeName@ChangeNameWnd@@IAEXXZ:
  0002e	8b 54 24 08	 mov	 edx, DWORD PTR [esp+8]
  00032	8d 42 0c	 lea	 eax, DWORD PTR [edx+12]
  00035	8b 8a 24 fb ff
	ff		 mov	 ecx, DWORD PTR [edx-1244]
  0003b	33 c8		 xor	 ecx, eax
  0003d	e8 00 00 00 00	 call	 @__security_check_cookie@4
  00042	8b 4a fc	 mov	 ecx, DWORD PTR [edx-4]
  00045	33 c8		 xor	 ecx, eax
  00047	e8 00 00 00 00	 call	 @__security_check_cookie@4
  0004c	b8 00 00 00 00	 mov	 eax, OFFSET __ehfuncinfo$?ChangeName@ChangeNameWnd@@IAEXXZ
  00051	e9 00 00 00 00	 jmp	 ___CxxFrameHandler3
text$x	ENDS
?ChangeName@ChangeNameWnd@@IAEXXZ ENDP			; ChangeNameWnd::ChangeName
PUBLIC	??_C@_0BI@IMJLEIMJ@ChangeNameWnd?3?3OnRender?$AA@ ; `string'
EXTRN	?PrintFullText@ioComplexStringPrinter@@QAEXMMW4TextAlignType@@E@Z:PROC ; ioComplexStringPrinter::PrintFullText
EXTRN	__imp_?PrintText@ioFontManager@@QAEXMMMPBD0@Z:PROC
;	COMDAT ??_C@_0BI@IMJLEIMJ@ChangeNameWnd?3?3OnRender?$AA@
CONST	SEGMENT
??_C@_0BI@IMJLEIMJ@ChangeNameWnd?3?3OnRender?$AA@ DB 'ChangeNameWnd::OnRe'
	DB	'nder', 00H					; `string'
CONST	ENDS
;	COMDAT xdata$x
xdata$x	SEGMENT
__unwindtable$?OnRender@ChangeNameWnd@@MAEXXZ DD 0ffffffffH
	DD	FLAT:__unwindfunclet$?OnRender@ChangeNameWnd@@MAEXXZ$0
__ehfuncinfo$?OnRender@ChangeNameWnd@@MAEXXZ DD 019930522H
	DD	01H
	DD	FLAT:__unwindtable$?OnRender@ChangeNameWnd@@MAEXXZ
	DD	2 DUP(00H)
	DD	2 DUP(00H)
	DD	00H
	DD	01H
; Function compile flags: /Ogsp
xdata$x	ENDS
;	COMDAT ?OnRender@ChangeNameWnd@@MAEXXZ
_TEXT	SEGMENT
_kPrinter$508700 = -60					; size = 32
tv301 = -28						; size = 4
tv298 = -24						; size = 4
_iXPos$ = -20						; size = 4
_iYPos$ = -16						; size = 4
__$EHRec$ = -12						; size = 12
?OnRender@ChangeNameWnd@@MAEXXZ PROC			; ChangeNameWnd::OnRender, COMDAT
; _this$ = ecx

; 404  : {

  00000	6a 30		 push	 48			; 00000030H
  00002	b8 00 00 00 00	 mov	 eax, __ehhandler$?OnRender@ChangeNameWnd@@MAEXXZ
  00007	e8 00 00 00 00	 call	 __EH_prolog3
  0000c	8b f1		 mov	 esi, ecx

; 405  : 	ioWnd::OnRender();

  0000e	ff 15 00 00 00
	00		 call	 DWORD PTR __imp_?OnRender@ioWnd@@MAEXXZ

; 406  : 
; 407  : 	int iXPos = GetDerivedPosX();

  00014	8b ce		 mov	 ecx, esi
  00016	ff 15 00 00 00
	00		 call	 DWORD PTR __imp_?GetDerivedPosX@ioWnd@@QBEHXZ

; 408  : 	int iYPos = GetDerivedPosY();

  0001c	8b ce		 mov	 ecx, esi
  0001e	89 45 ec	 mov	 DWORD PTR _iXPos$[ebp], eax
  00021	ff 15 00 00 00
	00		 call	 DWORD PTR __imp_?GetDerivedPosY@ioWnd@@QBEHXZ

; 409  : 
; 410  : 	enum 
; 411  : 	{
; 412  : 		TITLE_X_OFFSET	= 129,
; 413  : 		TITLE_Y_OFFSET	= 152,
; 414  : 
; 415  : 		INFO_X			= 26,
; 416  : 		INFO_Y			= 397,
; 417  : 		INFO_GAP		= 24,
; 418  : 
; 419  : 		EDIT_TEXT_X		= 62,
; 420  : 		EDIT_TEXT_Y		= 421,
; 421  : 	};
; 422  : 
; 423  : 
; 424  : 	g_FontMgr.SetTextStyle( TS_NORMAL );

  00027	8b 3d 00 00 00
	00		 mov	 edi, DWORD PTR __imp_?GetSingleton@ioFontManager@@SAAAV1@XZ
  0002d	33 db		 xor	 ebx, ebx
  0002f	53		 push	 ebx
  00030	89 45 f0	 mov	 DWORD PTR _iYPos$[ebp], eax
  00033	ff d7		 call	 edi
  00035	8b c8		 mov	 ecx, eax
  00037	ff 15 00 00 00
	00		 call	 DWORD PTR __imp_?SetTextStyle@ioFontManager@@QAEXW4TextStyle@@@Z

; 425  : 	g_FontMgr.SetAlignType( TAT_CENTER );

  0003d	6a 01		 push	 1
  0003f	ff d7		 call	 edi
  00041	8b c8		 mov	 ecx, eax
  00043	ff 15 00 00 00
	00		 call	 DWORD PTR __imp_?SetAlignType@ioFontManager@@QAEXW4TextAlignType@@@Z

; 426  : 	g_FontMgr.SetBkColor( 0, 0, 0 );

  00049	53		 push	 ebx
  0004a	53		 push	 ebx
  0004b	53		 push	 ebx
  0004c	ff d7		 call	 edi
  0004e	8b c8		 mov	 ecx, eax
  00050	ff 15 00 00 00
	00		 call	 DWORD PTR __imp_?SetBkColor@ioFontManager@@QAEXHHH@Z

; 427  : 	g_FontMgr.SetTextColor( TCT_DEFAULT_DARKGRAY );

  00056	68 3a 3a 3a ff	 push	 -12961222		; ff3a3a3aH
  0005b	ff d7		 call	 edi
  0005d	8b c8		 mov	 ecx, eax
  0005f	ff 15 00 00 00
	00		 call	 DWORD PTR __imp_?SetTextColor@ioFontManager@@QAEXK@Z

; 428  : 	g_FontMgr.PrintText( iXPos+TITLE_X_OFFSET, iYPos+TITLE_Y_OFFSET, FONT_SIZE_17, STR(1), m_szTitle.c_str() );

  00065	8d 8e ac 01 00
	00		 lea	 ecx, DWORD PTR [esi+428]
  0006b	ff 15 00 00 00
	00		 call	 DWORD PTR __imp_?c_str@ioHashString@@QBEPBDXZ
  00071	50		 push	 eax
  00072	53		 push	 ebx
  00073	6a 01		 push	 1
  00075	68 00 00 00 00	 push	 OFFSET ??_C@_00CNPNBAHC@?$AA@
  0007a	68 00 00 00 00	 push	 OFFSET ??_C@_0BI@IMJLEIMJ@ChangeNameWnd?3?3OnRender?$AA@
  0007f	ff 15 00 00 00
	00		 call	 DWORD PTR __imp_?GetSingleton@ioStringManager@@SAAAV1@XZ
  00085	8b c8		 mov	 ecx, eax
  00087	ff 15 00 00 00
	00		 call	 DWORD PTR __imp_?GetString@ioStringManager@@QAEPADPBD0HW4FileNamePrefix@1@@Z
  0008d	f3 0f 10 05 00
	00 00 00	 movss	 xmm0, DWORD PTR __real@3f59999a
  00095	50		 push	 eax
  00096	8b 45 f0	 mov	 eax, DWORD PTR _iYPos$[ebp]
  00099	83 ec 0c	 sub	 esp, 12			; 0000000cH
  0009c	f3 0f 11 44 24
	08		 movss	 DWORD PTR [esp+8], xmm0
  000a2	05 98 00 00 00	 add	 eax, 152		; 00000098H
  000a7	0f 57 c0	 xorps	 xmm0, xmm0
  000aa	f3 0f 2a c0	 cvtsi2ss xmm0, eax
  000ae	8b 45 ec	 mov	 eax, DWORD PTR _iXPos$[ebp]
  000b1	f3 0f 11 44 24
	04		 movss	 DWORD PTR [esp+4], xmm0
  000b7	05 81 00 00 00	 add	 eax, 129		; 00000081H
  000bc	0f 57 c0	 xorps	 xmm0, xmm0
  000bf	f3 0f 2a c0	 cvtsi2ss xmm0, eax
  000c3	f3 0f 11 04 24	 movss	 DWORD PTR [esp], xmm0
  000c8	ff d7		 call	 edi
  000ca	8b c8		 mov	 ecx, eax
  000cc	ff 15 00 00 00
	00		 call	 DWORD PTR __imp_?PrintText@ioFontManager@@QAEXMMMPBD0@Z

; 429  : 
; 430  : 
; 431  : 	PrintManual( iXPos+27, iYPos+206, FONT_SIZE_12 );

  000d2	8b 45 f0	 mov	 eax, DWORD PTR _iYPos$[ebp]
  000d5	f3 0f 10 05 00
	00 00 00	 movss	 xmm0, DWORD PTR __real@3f19999a
  000dd	8b 7d ec	 mov	 edi, DWORD PTR _iXPos$[ebp]
  000e0	51		 push	 ecx
  000e1	05 ce 00 00 00	 add	 eax, 206		; 000000ceH
  000e6	f3 0f 11 04 24	 movss	 DWORD PTR [esp], xmm0
  000eb	50		 push	 eax
  000ec	8d 47 1b	 lea	 eax, DWORD PTR [edi+27]
  000ef	50		 push	 eax
  000f0	8b ce		 mov	 ecx, esi
  000f2	e8 00 00 00 00	 call	 ?PrintManual@ChangeNameWnd@@IAEXHHM@Z ; ChangeNameWnd::PrintManual

; 432  : 
; 433  : 
; 434  : 	m_Info[0].PrintFullText( iXPos+INFO_X, iYPos+INFO_Y, TAT_LEFT );

  000f7	8b 45 f0	 mov	 eax, DWORD PTR _iYPos$[ebp]
  000fa	83 c7 1a	 add	 edi, 26			; 0000001aH
  000fd	0f 57 c0	 xorps	 xmm0, xmm0
  00100	f3 0f 2a c7	 cvtsi2ss xmm0, edi
  00104	bf ff 00 00 00	 mov	 edi, 255		; 000000ffH
  00109	57		 push	 edi
  0010a	53		 push	 ebx
  0010b	51		 push	 ecx
  0010c	51		 push	 ecx
  0010d	05 8d 01 00 00	 add	 eax, 397		; 0000018dH
  00112	0f 57 c9	 xorps	 xmm1, xmm1
  00115	f3 0f 2a c8	 cvtsi2ss xmm1, eax
  00119	f3 0f 11 4c 24
	04		 movss	 DWORD PTR [esp+4], xmm1
  0011f	f3 0f 11 45 e8	 movss	 DWORD PTR tv298[ebp], xmm0
  00124	f3 0f 11 04 24	 movss	 DWORD PTR [esp], xmm0
  00129	8d 8e 64 01 00
	00		 lea	 ecx, DWORD PTR [esi+356]
  0012f	e8 00 00 00 00	 call	 ?PrintFullText@ioComplexStringPrinter@@QAEXMMW4TextAlignType@@E@Z ; ioComplexStringPrinter::PrintFullText

; 435  : 	m_Info[1].PrintFullText( iXPos+INFO_X, iYPos+INFO_Y+INFO_GAP, TAT_LEFT );

  00134	8b 45 f0	 mov	 eax, DWORD PTR _iYPos$[ebp]
  00137	57		 push	 edi
  00138	53		 push	 ebx
  00139	51		 push	 ecx
  0013a	51		 push	 ecx
  0013b	05 a5 01 00 00	 add	 eax, 421		; 000001a5H
  00140	0f 57 c0	 xorps	 xmm0, xmm0
  00143	f3 0f 2a c0	 cvtsi2ss xmm0, eax
  00147	f3 0f 11 44 24
	04		 movss	 DWORD PTR [esp+4], xmm0
  0014d	f3 0f 11 45 e4	 movss	 DWORD PTR tv301[ebp], xmm0
  00152	f3 0f 10 45 e8	 movss	 xmm0, DWORD PTR tv298[ebp]
  00157	8d 8e 84 01 00
	00		 lea	 ecx, DWORD PTR [esi+388]
  0015d	f3 0f 11 04 24	 movss	 DWORD PTR [esp], xmm0
  00162	e8 00 00 00 00	 call	 ?PrintFullText@ioComplexStringPrinter@@QAEXMMW4TextAlignType@@E@Z ; ioComplexStringPrinter::PrintFullText

; 436  : 
; 437  : 
; 438  : 	if( m_pEditFrm )

  00167	8b 8e fc 01 00
	00		 mov	 ecx, DWORD PTR [esi+508]
  0016d	3b cb		 cmp	 ecx, ebx
  0016f	74 25		 je	 SHORT $LN4@OnRender@2

; 439  : 		m_pEditFrm->Render( iXPos, iYPos );

  00171	66 0f 6e 45 f0	 movd	 xmm0, DWORD PTR _iYPos$[ebp]
  00176	8b 01		 mov	 eax, DWORD PTR [ecx]
  00178	53		 push	 ebx
  00179	53		 push	 ebx
  0017a	53		 push	 ebx
  0017b	53		 push	 ebx
  0017c	51		 push	 ecx
  0017d	0f 5b c0	 cvtdq2ps xmm0, xmm0
  00180	51		 push	 ecx
  00181	f3 0f 11 44 24
	04		 movss	 DWORD PTR [esp+4], xmm0
  00187	66 0f 6e 45 ec	 movd	 xmm0, DWORD PTR _iXPos$[ebp]
  0018c	0f 5b c0	 cvtdq2ps xmm0, xmm0
  0018f	f3 0f 11 04 24	 movss	 DWORD PTR [esp], xmm0
  00194	ff 10		 call	 DWORD PTR [eax]
$LN4@OnRender@2:

; 440  : 
; 441  : 	ioEdit *pEdit = (ioEdit*)FindChildWnd( ID_CHANGE_EDIT );

  00196	6a 02		 push	 2
  00198	8b ce		 mov	 ecx, esi
  0019a	ff 15 00 00 00
	00		 call	 DWORD PTR __imp_?FindChildWnd@ioWnd@@QAEPAV1@K@Z

; 442  : 	if( pEdit )

  001a0	3b c3		 cmp	 eax, ebx
  001a2	0f 84 ca 00 00
	00		 je	 $LN1@OnRender@2

; 443  : 	{
; 444  : 		if( m_bRenderNotice && pEdit != ioEdit::m_pKeyFocusEdit )

  001a8	38 9e 04 02 00
	00		 cmp	 BYTE PTR [esi+516], bl
  001ae	0f 84 b8 00 00
	00		 je	 $LN2@OnRender@2
  001b4	8b 0d 00 00 00
	00		 mov	 ecx, DWORD PTR __imp_?m_pKeyFocusEdit@ioEdit@@2PAV1@A
  001ba	3b 01		 cmp	 eax, DWORD PTR [ecx]
  001bc	0f 84 aa 00 00
	00		 je	 $LN2@OnRender@2

; 445  : 		{
; 446  : 			ioComplexStringPrinter kPrinter;

  001c2	8d 4d c4	 lea	 ecx, DWORD PTR _kPrinter$508700[ebp]
  001c5	e8 00 00 00 00	 call	 ??0ioComplexStringPrinter@@QAE@XZ ; ioComplexStringPrinter::ioComplexStringPrinter

; 447  : 			kPrinter.SetBkColor( 0, 0, 0 );

  001ca	53		 push	 ebx
  001cb	53		 push	 ebx
  001cc	53		 push	 ebx
  001cd	8d 4d c4	 lea	 ecx, DWORD PTR _kPrinter$508700[ebp]
  001d0	89 5d fc	 mov	 DWORD PTR __$EHRec$[ebp+8], ebx
  001d3	e8 00 00 00 00	 call	 ?SetBkColor@ioComplexStringPrinter@@QAEXHHH@Z ; ioComplexStringPrinter::SetBkColor

; 448  : 			kPrinter.SetTextStyle( TS_NORMAL );

  001d8	53		 push	 ebx
  001d9	8d 4d c4	 lea	 ecx, DWORD PTR _kPrinter$508700[ebp]
  001dc	e8 00 00 00 00	 call	 ?SetTextStyle@ioComplexStringPrinter@@QAEXW4TextStyle@@@Z ; ioComplexStringPrinter::SetTextStyle

; 449  : 			kPrinter.SetTextColor( TCT_DEFAULT_LIGHTGRAY );

  001e1	68 a7 a7 a7 ff	 push	 -5789785		; ffa7a7a7H
  001e6	8d 4d c4	 lea	 ecx, DWORD PTR _kPrinter$508700[ebp]
  001e9	e8 00 00 00 00	 call	 ?SetTextColor@ioComplexStringPrinter@@QAEXK@Z ; ioComplexStringPrinter::SetTextColor

; 450  : 			kPrinter.AddTextPiece( FONT_SIZE_12, STR(2), m_szDefaultNotice.c_str() );

  001ee	8d 8e dc 01 00
	00		 lea	 ecx, DWORD PTR [esi+476]
  001f4	ff 15 00 00 00
	00		 call	 DWORD PTR __imp_?c_str@ioHashString@@QBEPBDXZ
  001fa	50		 push	 eax
  001fb	53		 push	 ebx
  001fc	6a 02		 push	 2
  001fe	68 00 00 00 00	 push	 OFFSET ??_C@_00CNPNBAHC@?$AA@
  00203	68 00 00 00 00	 push	 OFFSET ??_C@_0BI@IMJLEIMJ@ChangeNameWnd?3?3OnRender?$AA@
  00208	ff 15 00 00 00
	00		 call	 DWORD PTR __imp_?GetSingleton@ioStringManager@@SAAAV1@XZ
  0020e	8b c8		 mov	 ecx, eax
  00210	ff 15 00 00 00
	00		 call	 DWORD PTR __imp_?GetString@ioStringManager@@QAEPADPBD0HW4FileNamePrefix@1@@Z
  00216	f3 0f 10 05 00
	00 00 00	 movss	 xmm0, DWORD PTR __real@3f19999a
  0021e	50		 push	 eax
  0021f	51		 push	 ecx
  00220	8d 4d c4	 lea	 ecx, DWORD PTR _kPrinter$508700[ebp]
  00223	f3 0f 11 04 24	 movss	 DWORD PTR [esp], xmm0
  00228	e8 00 00 00 00	 call	 ?AddTextPiece@ioComplexStringPrinter@@QAEXMPBD0@Z ; ioComplexStringPrinter::AddTextPiece

; 451  : 			kPrinter.PrintFullText( iXPos + EDIT_TEXT_X, iYPos + EDIT_TEXT_Y, TAT_LEFT );

  0022d	f3 0f 10 45 e4	 movss	 xmm0, DWORD PTR tv301[ebp]
  00232	8b 45 ec	 mov	 eax, DWORD PTR _iXPos$[ebp]
  00235	57		 push	 edi
  00236	53		 push	 ebx
  00237	51		 push	 ecx
  00238	51		 push	 ecx
  00239	f3 0f 11 44 24
	04		 movss	 DWORD PTR [esp+4], xmm0
  0023f	83 c0 3e	 add	 eax, 62			; 0000003eH
  00242	0f 57 c0	 xorps	 xmm0, xmm0
  00245	f3 0f 2a c0	 cvtsi2ss xmm0, eax
  00249	8d 4d c4	 lea	 ecx, DWORD PTR _kPrinter$508700[ebp]
  0024c	f3 0f 11 04 24	 movss	 DWORD PTR [esp], xmm0
  00251	e8 00 00 00 00	 call	 ?PrintFullText@ioComplexStringPrinter@@QAEXMMW4TextAlignType@@E@Z ; ioComplexStringPrinter::PrintFullText

; 452  : 			kPrinter.ClearList();

  00256	8d 4d c4	 lea	 ecx, DWORD PTR _kPrinter$508700[ebp]
  00259	e8 00 00 00 00	 call	 ?ClearList@ioComplexStringPrinter@@QAEXXZ ; ioComplexStringPrinter::ClearList

; 453  : 		}

  0025e	83 4d fc ff	 or	 DWORD PTR __$EHRec$[ebp+8], -1
  00262	8d 4d c4	 lea	 ecx, DWORD PTR _kPrinter$508700[ebp]
  00265	e8 00 00 00 00	 call	 ??1ioComplexStringPrinter@@QAE@XZ ; ioComplexStringPrinter::~ioComplexStringPrinter

; 454  : 		else

  0026a	eb 06		 jmp	 SHORT $LN1@OnRender@2
$LN2@OnRender@2:

; 455  : 		{
; 456  : 			m_bRenderNotice = false;

  0026c	88 9e 04 02 00
	00		 mov	 BYTE PTR [esi+516], bl
$LN1@OnRender@2:

; 457  : 		}
; 458  : 	}
; 459  : }

  00272	e8 00 00 00 00	 call	 __EH_epilog3
  00277	c3		 ret	 0
_TEXT	ENDS
;	COMDAT text$x
text$x	SEGMENT
__unwindfunclet$?OnRender@ChangeNameWnd@@MAEXXZ$0:
  00000	8d 4d c4	 lea	 ecx, DWORD PTR _kPrinter$508700[ebp]
  00003	e9 00 00 00 00	 jmp	 ??1ioComplexStringPrinter@@QAE@XZ ; ioComplexStringPrinter::~ioComplexStringPrinter
__ehhandler$?OnRender@ChangeNameWnd@@MAEXXZ:
  00008	8b 54 24 08	 mov	 edx, DWORD PTR [esp+8]
  0000c	8d 42 0c	 lea	 eax, DWORD PTR [edx+12]
  0000f	8b 4a c0	 mov	 ecx, DWORD PTR [edx-64]
  00012	33 c8		 xor	 ecx, eax
  00014	e8 00 00 00 00	 call	 @__security_check_cookie@4
  00019	b8 00 00 00 00	 mov	 eax, OFFSET __ehfuncinfo$?OnRender@ChangeNameWnd@@MAEXXZ
  0001e	e9 00 00 00 00	 jmp	 ___CxxFrameHandler3
text$x	ENDS
?OnRender@ChangeNameWnd@@MAEXXZ ENDP			; ChangeNameWnd::OnRender
PUBLIC	_this$GSCopy$
PUBLIC	__$ArrayPad$
EXTRN	__imp_?AddRenderImage@ioWnd@@UAEXABVioHashString@@PAVioUIRenderImage@@@Z:PROC
; Function compile flags: /Ogsp
;	COMDAT ?AddRenderImage@ChangeNameResultWnd@@MAEXABVioHashString@@PAVioUIRenderImage@@@Z
_TEXT	SEGMENT
_this$GSCopy$ = -24					; size = 4
__t$509899 = -20					; size = 12
__$ArrayPad$ = -4					; size = 4
_szType$ = 8						; size = 4
_pImage$ = 12						; size = 4
?AddRenderImage@ChangeNameResultWnd@@MAEXABVioHashString@@PAVioUIRenderImage@@@Z PROC ; ChangeNameResultWnd::AddRenderImage, COMDAT
; _this$ = ecx

; 545  : {

  00000	55		 push	 ebp
  00001	8b ec		 mov	 ebp, esp
  00003	83 ec 18	 sub	 esp, 24			; 00000018H
  00006	a1 00 00 00 00	 mov	 eax, DWORD PTR ___security_cookie
  0000b	33 c5		 xor	 eax, ebp
  0000d	89 45 fc	 mov	 DWORD PTR __$ArrayPad$[ebp], eax
  00010	53		 push	 ebx
  00011	8b 5d 0c	 mov	 ebx, DWORD PTR _pImage$[ebp]
  00014	56		 push	 esi
  00015	57		 push	 edi
  00016	8b 7d 08	 mov	 edi, DWORD PTR _szType$[ebp]

; 546  : 	if( szType == "back_effect" )

  00019	6a 02		 push	 2
  0001b	89 4d e8	 mov	 DWORD PTR _this$GSCopy$[ebp], ecx
  0001e	c7 45 ec 8f 8d
	88 81		 mov	 DWORD PTR __t$509899[ebp], -2121757297 ; 81888d8fH
  00025	c7 45 f0 b2 89
	8d 8c		 mov	 DWORD PTR __t$509899[ebp+4], -1936881230 ; 8c8d89b2H
  0002c	8d 45 ec	 lea	 eax, DWORD PTR __t$509899[ebp]
  0002f	c7 45 f4 88 8f
	9f 00		 mov	 DWORD PTR __t$509899[ebp+8], 10456968 ; 009f8f88H
  00036	59		 pop	 ecx
$LL111@AddRenderI:
  00037	81 30 ed ec eb
	ea		 xor	 DWORD PTR [eax], -353637139 ; eaebecedH
  0003d	83 c0 04	 add	 eax, 4
  00040	49		 dec	 ecx
  00041	75 f4		 jne	 SHORT $LL111@AddRenderI
  00043	6a 08		 push	 8
  00045	58		 pop	 eax
$LL108@AddRenderI:
  00046	8b c8		 mov	 ecx, eax
  00048	81 e1 03 00 00
	80		 and	 ecx, -2147483645	; 80000003H
  0004e	79 05		 jns	 SHORT $LN122@AddRenderI
  00050	49		 dec	 ecx
  00051	83 c9 fc	 or	 ecx, -4			; fffffffcH
  00054	41		 inc	 ecx
$LN122@AddRenderI:
  00055	b2 ed		 mov	 dl, -19			; ffffffedH
  00057	2a d1		 sub	 dl, cl
  00059	30 54 05 ec	 xor	 BYTE PTR __t$509899[ebp+eax], dl
  0005d	40		 inc	 eax
  0005e	83 f8 0b	 cmp	 eax, 11			; 0000000bH
  00061	7c e3		 jl	 SHORT $LL108@AddRenderI
  00063	8b cf		 mov	 ecx, edi
  00065	8d 75 ec	 lea	 esi, DWORD PTR __t$509899[ebp]
  00068	ff 15 00 00 00
	00		 call	 DWORD PTR __imp_?c_str@ioHashString@@QBEPBDXZ
$LL118@AddRenderI:
  0006e	8a 08		 mov	 cl, BYTE PTR [eax]
  00070	3a 0e		 cmp	 cl, BYTE PTR [esi]
  00072	75 1a		 jne	 SHORT $LN119@AddRenderI
  00074	84 c9		 test	 cl, cl
  00076	74 12		 je	 SHORT $LN120@AddRenderI
  00078	8a 48 01	 mov	 cl, BYTE PTR [eax+1]
  0007b	3a 4e 01	 cmp	 cl, BYTE PTR [esi+1]
  0007e	75 0e		 jne	 SHORT $LN119@AddRenderI
  00080	83 c0 02	 add	 eax, 2
  00083	83 c6 02	 add	 esi, 2
  00086	84 c9		 test	 cl, cl
  00088	75 e4		 jne	 SHORT $LL118@AddRenderI
$LN120@AddRenderI:
  0008a	33 c0		 xor	 eax, eax
  0008c	eb 05		 jmp	 SHORT $LN121@AddRenderI
$LN119@AddRenderI:
  0008e	1b c0		 sbb	 eax, eax
  00090	83 d8 ff	 sbb	 eax, -1
$LN121@AddRenderI:
  00093	85 c0		 test	 eax, eax
  00095	75 23		 jne	 SHORT $LN3@AddRenderI

; 547  : 	{
; 548  : 		SAFEDELETE( m_pBackEffect );

  00097	8b 75 e8	 mov	 esi, DWORD PTR _this$GSCopy$[ebp]
  0009a	8b 8e 68 01 00
	00		 mov	 ecx, DWORD PTR [esi+360]
  000a0	85 c9		 test	 ecx, ecx
  000a2	74 0e		 je	 SHORT $LN2@AddRenderI
  000a4	8b 01		 mov	 eax, DWORD PTR [ecx]
  000a6	6a 01		 push	 1
  000a8	ff 50 40	 call	 DWORD PTR [eax+64]
  000ab	83 a6 68 01 00
	00 00		 and	 DWORD PTR [esi+360], 0
$LN2@AddRenderI:

; 549  : 		m_pBackEffect = pImage;

  000b2	89 9e 68 01 00
	00		 mov	 DWORD PTR [esi+360], ebx

; 550  : 	}
; 551  : 	else

  000b8	eb 0b		 jmp	 SHORT $LN1@AddRenderI
$LN3@AddRenderI:

; 552  : 		ioWnd::AddRenderImage( szType, pImage );

  000ba	8b 4d e8	 mov	 ecx, DWORD PTR _this$GSCopy$[ebp]
  000bd	53		 push	 ebx
  000be	57		 push	 edi
  000bf	ff 15 00 00 00
	00		 call	 DWORD PTR __imp_?AddRenderImage@ioWnd@@UAEXABVioHashString@@PAVioUIRenderImage@@@Z
$LN1@AddRenderI:

; 553  : }

  000c5	8b 4d fc	 mov	 ecx, DWORD PTR __$ArrayPad$[ebp]
  000c8	5f		 pop	 edi
  000c9	5e		 pop	 esi
  000ca	33 cd		 xor	 ecx, ebp
  000cc	5b		 pop	 ebx
  000cd	e8 00 00 00 00	 call	 @__security_check_cookie@4
  000d2	c9		 leave
  000d3	c2 08 00	 ret	 8
?AddRenderImage@ChangeNameResultWnd@@MAEXABVioHashString@@PAVioUIRenderImage@@@Z ENDP ; ChangeNameResultWnd::AddRenderImage
_TEXT	ENDS
EXTRN	__imp__strncmp:PROC
EXTRN	__imp_?Length@ioHashString@@QBEHXZ:PROC
; Function compile flags: /Ogsp
;	COMDAT ?iwm_command@ChangeNameWnd@@UAEXPAVioWnd@@HK@Z
_TEXT	SEGMENT
_pWnd$ = 8						; size = 4
_pEdit$508604 = 12					; size = 4
_cmd$ = 12						; size = 4
_param$ = 16						; size = 4
?iwm_command@ChangeNameWnd@@UAEXPAVioWnd@@HK@Z PROC	; ChangeNameWnd::iwm_command, COMDAT
; _this$ = ecx

; 170  : {

  00000	55		 push	 ebp
  00001	8b ec		 mov	 ebp, esp
  00003	53		 push	 ebx
  00004	8b d9		 mov	 ebx, ecx

; 171  : 	DWORD dwID = pWnd->GetID();

  00006	8b 4d 08	 mov	 ecx, DWORD PTR _pWnd$[ebp]
  00009	ff 15 00 00 00
	00		 call	 DWORD PTR __imp_?GetID@ioWnd@@QBEKXZ

; 172  : 	switch( dwID )

  0000f	48		 dec	 eax
  00010	48		 dec	 eax
  00011	74 44		 je	 SHORT $LN11@iwm_comman
  00013	48		 dec	 eax
  00014	74 2b		 je	 SHORT $LN13@iwm_comman
  00016	2d 0f 27 00 00	 sub	 eax, 9999		; 0000270fH
  0001b	0f 85 0a 01 00
	00		 jne	 $LN5@iwm_comman

; 198  : 				}
; 199  : 			}
; 200  : 		}
; 201  : 		break;
; 202  : 	case MESSAGE_BOX3:
; 203  : 		if( cmd == IOBN_BTNUP )

  00021	83 7d 0c 11	 cmp	 DWORD PTR _cmd$[ebp], 17 ; 00000011H
  00025	0f 85 00 01 00
	00		 jne	 $LN5@iwm_comman

; 204  : 		{
; 205  : 			if( param == IDYES )

  0002b	83 7d 10 06	 cmp	 DWORD PTR _param$[ebp], 6
  0002f	0f 85 f6 00 00
	00		 jne	 $LN5@iwm_comman

; 206  : 			{
; 207  : 				SendNewName();

  00035	8b cb		 mov	 ecx, ebx
  00037	e8 00 00 00 00	 call	 ?SendNewName@ChangeNameWnd@@IAEXXZ ; ChangeNameWnd::SendNewName

; 208  : 			}
; 209  : 		}
; 210  : 		break;

  0003c	e9 ea 00 00 00	 jmp	 $LN5@iwm_comman
$LN13@iwm_comman:

; 173  : 	{
; 174  : 	case ID_CHANGE_BTN:
; 175  : 		if( cmd == IOBN_BTNUP )

  00041	83 7d 0c 11	 cmp	 DWORD PTR _cmd$[ebp], 17 ; 00000011H
  00045	0f 85 e0 00 00
	00		 jne	 $LN5@iwm_comman

; 176  : 		{
; 177  : 			ChangeName();

  0004b	8b cb		 mov	 ecx, ebx
  0004d	e8 00 00 00 00	 call	 ?ChangeName@ChangeNameWnd@@IAEXXZ ; ChangeNameWnd::ChangeName

; 178  : 		}
; 179  : 		break;

  00052	e9 d4 00 00 00	 jmp	 $LN5@iwm_comman
$LN11@iwm_comman:

; 180  : 	case ID_CHANGE_EDIT:
; 181  : 		if( cmd == IOED_INPUT )

  00057	83 7d 0c 22	 cmp	 DWORD PTR _cmd$[ebp], 34 ; 00000022H
  0005b	0f 84 ca 00 00
	00		 je	 $LN5@iwm_comman

; 182  : 		{
; 183  : 		}
; 184  : 		else if( cmd == IOBN_BTNDOWN )

  00061	83 7d 0c 10	 cmp	 DWORD PTR _cmd$[ebp], 16 ; 00000010H
  00065	0f 85 c0 00 00
	00		 jne	 $LN5@iwm_comman

; 185  : 		{
; 186  : 			ioEdit *pEdit = dynamic_cast<ioEdit*> ( pWnd );

  0006b	57		 push	 edi
  0006c	6a 00		 push	 0
  0006e	68 00 00 00 00	 push	 OFFSET ??_R0?AVioEdit@@@8
  00073	68 00 00 00 00	 push	 OFFSET ??_R0?AVioWnd@@@8
  00078	6a 00		 push	 0
  0007a	ff 75 08	 push	 DWORD PTR _pWnd$[ebp]
  0007d	e8 00 00 00 00	 call	 ___RTDynamicCast
  00082	8b f8		 mov	 edi, eax
  00084	83 c4 14	 add	 esp, 20			; 00000014H
  00087	89 7d 0c	 mov	 DWORD PTR _pEdit$508604[ebp], edi

; 187  : 			if( pEdit )

  0008a	85 ff		 test	 edi, edi
  0008c	0f 84 98 00 00
	00		 je	 $LN19@iwm_comman

; 188  : 			{
; 189  : 				if( ioEdit::m_pKeyFocusEdit != pEdit )

  00092	a1 00 00 00 00	 mov	 eax, DWORD PTR __imp_?m_pKeyFocusEdit@ioEdit@@2PAV1@A
  00097	39 38		 cmp	 DWORD PTR [eax], edi
  00099	74 08		 je	 SHORT $LN6@iwm_comman

; 190  : 					m_pPreEdit = ioEdit::m_pKeyFocusEdit;

  0009b	8b 00		 mov	 eax, DWORD PTR [eax]
  0009d	89 83 a4 01 00
	00		 mov	 DWORD PTR [ebx+420], eax
$LN6@iwm_comman:

; 191  : 
; 192  : 				if( strncmp( pEdit->GetText(), m_szDefaultNotice.c_str(),  m_szDefaultNotice.Length() ) == 0 ||
; 193  : 					strncmp( pEdit->GetText(), m_szErrorNotice.c_str(),  m_szErrorNotice.Length() ) == 0 )

  000a3	56		 push	 esi
  000a4	8d 8b dc 01 00
	00		 lea	 ecx, DWORD PTR [ebx+476]
  000aa	ff 15 00 00 00
	00		 call	 DWORD PTR __imp_?Length@ioHashString@@QBEHXZ
  000b0	50		 push	 eax
  000b1	8d 8b dc 01 00
	00		 lea	 ecx, DWORD PTR [ebx+476]
  000b7	ff 15 00 00 00
	00		 call	 DWORD PTR __imp_?c_str@ioHashString@@QBEPBDXZ
  000bd	8b 35 00 00 00
	00		 mov	 esi, DWORD PTR __imp_?GetText@ioEdit@@QBEPBDXZ
  000c3	50		 push	 eax
  000c4	8b cf		 mov	 ecx, edi
  000c6	ff d6		 call	 esi
  000c8	8b 3d 00 00 00
	00		 mov	 edi, DWORD PTR __imp__strncmp
  000ce	50		 push	 eax
  000cf	ff d7		 call	 edi
  000d1	83 c4 0c	 add	 esp, 12			; 0000000cH
  000d4	85 c0		 test	 eax, eax
  000d6	74 29		 je	 SHORT $LN18@iwm_comman
  000d8	8d 8b ec 01 00
	00		 lea	 ecx, DWORD PTR [ebx+492]
  000de	ff 15 00 00 00
	00		 call	 DWORD PTR __imp_?Length@ioHashString@@QBEHXZ
  000e4	50		 push	 eax
  000e5	8d 8b ec 01 00
	00		 lea	 ecx, DWORD PTR [ebx+492]
  000eb	ff 15 00 00 00
	00		 call	 DWORD PTR __imp_?c_str@ioHashString@@QBEPBDXZ
  000f1	8b 4d 0c	 mov	 ecx, DWORD PTR _pEdit$508604[ebp]
  000f4	50		 push	 eax
  000f5	ff d6		 call	 esi
  000f7	50		 push	 eax
  000f8	ff d7		 call	 edi
  000fa	83 c4 0c	 add	 esp, 12			; 0000000cH
  000fd	85 c0		 test	 eax, eax
  000ff	75 28		 jne	 SHORT $LN20@iwm_comman
$LN18@iwm_comman:

; 194  : 				{
; 195  : 					pEdit->ClearString();

  00101	8b 75 0c	 mov	 esi, DWORD PTR _pEdit$508604[ebp]
  00104	8b ce		 mov	 ecx, esi
  00106	ff 15 00 00 00
	00		 call	 DWORD PTR __imp_?ClearString@ioEdit@@QAEXXZ

; 196  : 					pEdit->SetKeyFocus();

  0010c	8b 06		 mov	 eax, DWORD PTR [esi]
  0010e	8b ce		 mov	 ecx, esi
  00110	ff 90 30 01 00
	00		 call	 DWORD PTR [eax+304]

; 197  : 					g_InputBox.SetString( "" );

  00116	68 00 00 00 00	 push	 OFFSET ??_C@_00CNPNBAHC@?$AA@
  0011b	ff 15 00 00 00
	00		 call	 DWORD PTR __imp_?GetSingleton@ioInputBox@@SAAAV1@XZ
  00121	8b c8		 mov	 ecx, eax
  00123	ff 15 00 00 00
	00		 call	 DWORD PTR __imp_?SetString@ioInputBox@@QAEXPBD@Z
$LN20@iwm_comman:
  00129	5e		 pop	 esi
$LN19@iwm_comman:
  0012a	5f		 pop	 edi
$LN5@iwm_comman:
  0012b	5b		 pop	 ebx

; 211  : 	}
; 212  : }

  0012c	5d		 pop	 ebp
  0012d	c2 0c 00	 ret	 12			; 0000000cH
?iwm_command@ChangeNameWnd@@UAEXPAVioWnd@@HK@Z ENDP	; ChangeNameWnd::iwm_command
_TEXT	ENDS
END
