; Listing generated by Microsoft (R) Optimizing Compiler Version 16.00.30319.01 

	TITLE	D:\Lost Saga For Developer\Youtube\Tutorial\Source\src\LSClient\GUI\ChannelChatWnd.cpp
	.686P
	.XMM
	include listing.inc
	.model	flat

INCLUDELIB MSVCRT
INCLUDELIB OLDNAMES

PUBLIC	?GetManToManID@ChannelNode@@QAEABVioHashString@@XZ ; ChannelNode::GetManToManID
; Function compile flags: /Ogsp
; File d:\lost saga for developer\youtube\tutorial\source\src\lsclient\gui\iochannelmanager.h
;	COMDAT ?GetManToManID@ChannelNode@@QAEABVioHashString@@XZ
_TEXT	SEGMENT
?GetManToManID@ChannelNode@@QAEABVioHashString@@XZ PROC	; ChannelNode::GetManToManID, COMDAT
; _this$ = ecx

; 50   : 	const ioHashString &GetManToManID(){ return m_szManToManID; }

  00000	8d 41 1c	 lea	 eax, DWORD PTR [ecx+28]
  00003	c3		 ret	 0
?GetManToManID@ChannelNode@@QAEABVioHashString@@XZ ENDP	; ChannelNode::GetManToManID
_TEXT	ENDS
PUBLIC	?ClearUpdate@ioGuildChatMgr@@QAEXXZ		; ioGuildChatMgr::ClearUpdate
; Function compile flags: /Ogsp
; File d:\lost saga for developer\youtube\tutorial\source\src\lsclient\ioguildchatmgr.h
;	COMDAT ?ClearUpdate@ioGuildChatMgr@@QAEXXZ
_TEXT	SEGMENT
?ClearUpdate@ioGuildChatMgr@@QAEXXZ PROC		; ioGuildChatMgr::ClearUpdate, COMDAT
; _this$ = ecx

; 38   : 	void ClearUpdate(){ m_bUpdate = false; }

  00000	c6 41 14 00	 mov	 BYTE PTR [ecx+20], 0
  00004	c3		 ret	 0
?ClearUpdate@ioGuildChatMgr@@QAEXXZ ENDP		; ioGuildChatMgr::ClearUpdate
_TEXT	ENDS
PUBLIC	?GetChannelIndex@ChannelChatWnd@@QAEHXZ		; ChannelChatWnd::GetChannelIndex
; Function compile flags: /Ogsp
; File d:\lost saga for developer\youtube\tutorial\source\src\lsclient\gui\channelchatwnd.h
;	COMDAT ?GetChannelIndex@ChannelChatWnd@@QAEHXZ
_TEXT	SEGMENT
?GetChannelIndex@ChannelChatWnd@@QAEHXZ PROC		; ChannelChatWnd::GetChannelIndex, COMDAT
; _this$ = ecx

; 82   : 	int GetChannelIndex(){ return m_iChannelIdx; }

  00000	8b 81 64 01 00
	00		 mov	 eax, DWORD PTR [ecx+356]
  00006	c3		 ret	 0
?GetChannelIndex@ChannelChatWnd@@QAEHXZ ENDP		; ChannelChatWnd::GetChannelIndex
_TEXT	ENDS
PUBLIC	??_7LineChatWnd@@6B@				; LineChatWnd::`vftable'
PUBLIC	??0LineChatWnd@@QAE@XZ				; LineChatWnd::LineChatWnd
PUBLIC	??_R4LineChatWnd@@6B@				; LineChatWnd::`RTTI Complete Object Locator'
PUBLIC	??_R0?AVLineChatWnd@@@8				; LineChatWnd `RTTI Type Descriptor'
PUBLIC	??_R3LineChatWnd@@8				; LineChatWnd::`RTTI Class Hierarchy Descriptor'
PUBLIC	??_R2LineChatWnd@@8				; LineChatWnd::`RTTI Base Class Array'
PUBLIC	??_R1A@?0A@EA@LineChatWnd@@8			; LineChatWnd::`RTTI Base Class Descriptor at (0,-1,0,64)'
PUBLIC	??_R1A@?0A@EA@ioWnd@@8				; ioWnd::`RTTI Base Class Descriptor at (0,-1,0,64)'
PUBLIC	??_R0?AVioWnd@@@8				; ioWnd `RTTI Type Descriptor'
PUBLIC	??_R3ioWnd@@8					; ioWnd::`RTTI Class Hierarchy Descriptor'
PUBLIC	??_R2ioWnd@@8					; ioWnd::`RTTI Base Class Array'
PUBLIC	?OnRenderAfterChild@LineChatWnd@@MAEXXZ		; LineChatWnd::OnRenderAfterChild
PUBLIC	?OnProcess@LineChatWnd@@MAEXM@Z			; LineChatWnd::OnProcess
EXTRN	__imp_??0ioWnd@@QAE@XZ:PROC
EXTRN	??_7type_info@@6B@:QWORD			; type_info::`vftable'
EXTRN	?AddRenderFrame@ioWnd@@UAEXABVioHashString@@PAVioUIRenderFrame@@@Z:PROC ; ioWnd::AddRenderFrame
EXTRN	?AddRenderImage@ioWnd@@UAEXABVioHashString@@PAVioUIRenderImage@@@Z:PROC ; ioWnd::AddRenderImage
EXTRN	?AddTooltipHelp@ioWnd@@UAEXABVioHashString@@00@Z:PROC ; ioWnd::AddTooltipHelp
EXTRN	?ParseExtraInfo@ioWnd@@UAEXAAVioXMLElement@@@Z:PROC ; ioWnd::ParseExtraInfo
EXTRN	?AddNamedRenderImage@ioWnd@@UAEXABVioHashString@@PAVioUIRenderImage@@@Z:PROC ; ioWnd::AddNamedRenderImage
EXTRN	?RemoveNamedRenderImage@ioWnd@@UAEXABVioHashString@@@Z:PROC ; ioWnd::RemoveNamedRenderImage
EXTRN	?GetNamedRenderImage@ioWnd@@UBEPAVioUIRenderImage@@ABVioHashString@@@Z:PROC ; ioWnd::GetNamedRenderImage
EXTRN	?SetWindowAlpha@ioWnd@@UAEXH@Z:PROC		; ioWnd::SetWindowAlpha
EXTRN	?SetActive@ioWnd@@UAEXXZ:PROC			; ioWnd::SetActive
EXTRN	?SetInActive@ioWnd@@UAEXXZ:PROC			; ioWnd::SetInActive
EXTRN	?ClearElementImageList@ioWnd@@UAEXXZ:PROC	; ioWnd::ClearElementImageList
EXTRN	?SetSize@ioWnd@@UAEXHH@Z:PROC			; ioWnd::SetSize
EXTRN	?SetPositionToDefault@ioWnd@@UAEXHH_N0@Z:PROC	; ioWnd::SetPositionToDefault
EXTRN	?IsNeedProcess@ioWnd@@UBE_NXZ:PROC		; ioWnd::IsNeedProcess
EXTRN	?IsCanMouseReaction@ioWnd@@UBE_NXZ:PROC		; ioWnd::IsCanMouseReaction
EXTRN	?AddChild@ioWnd@@UAEXPAV1@@Z:PROC		; ioWnd::AddChild
EXTRN	?DeleteChild@ioWnd@@UAEXK@Z:PROC		; ioWnd::DeleteChild
EXTRN	?DeleteAllChild@ioWnd@@UAEXXZ:PROC		; ioWnd::DeleteAllChild
EXTRN	?OnRenderShowAndHide@ioWnd@@MAE_NXZ:PROC	; ioWnd::OnRenderShowAndHide
EXTRN	?OnRenderShowAndHideByDefault@ioWnd@@MAE_NK@Z:PROC ; ioWnd::OnRenderShowAndHideByDefault
EXTRN	?OnRenderShowAndHideByTop@ioWnd@@MAE_NK@Z:PROC	; ioWnd::OnRenderShowAndHideByTop
EXTRN	?OnRenderShowAndHideByDown@ioWnd@@MAE_NK@Z:PROC	; ioWnd::OnRenderShowAndHideByDown
EXTRN	?OnRender@ioWnd@@MAEXXZ:PROC			; ioWnd::OnRender
EXTRN	?OnMouseProcess@ioWnd@@MAEXABVioMouse@@@Z:PROC	; ioWnd::OnMouseProcess
EXTRN	?CheckFrameReSize@ioWnd@@MAEXHHHH@Z:PROC	; ioWnd::CheckFrameReSize
EXTRN	?RenderImageList@ioWnd@@MAEXHHW4UIRenderType@@@Z:PROC ; ioWnd::RenderImageList
EXTRN	?iwm_create@ioWnd@@UAEXXZ:PROC			; ioWnd::iwm_create
EXTRN	?iwm_destroy@ioWnd@@UAEXXZ:PROC			; ioWnd::iwm_destroy
EXTRN	?iwm_lbuttondown@ioWnd@@UAEXABVioMouse@@@Z:PROC	; ioWnd::iwm_lbuttondown
EXTRN	?iwm_lbuttonup@ioWnd@@UAEXABVioMouse@@@Z:PROC	; ioWnd::iwm_lbuttonup
EXTRN	?iwm_lbuttonDBLCLK@ioWnd@@UAEXABVioMouse@@@Z:PROC ; ioWnd::iwm_lbuttonDBLCLK
EXTRN	?iwm_rbuttondown@ioWnd@@UAEXABVioMouse@@@Z:PROC	; ioWnd::iwm_rbuttondown
EXTRN	?iwm_rbuttonup@ioWnd@@UAEXABVioMouse@@@Z:PROC	; ioWnd::iwm_rbuttonup
EXTRN	?iwm_command@ioWnd@@UAEXPAV1@HK@Z:PROC		; ioWnd::iwm_command
EXTRN	?iwm_mouseover@ioWnd@@UAEXABVioMouse@@@Z:PROC	; ioWnd::iwm_mouseover
EXTRN	?iwm_mousemove@ioWnd@@UAEXABVioMouse@@@Z:PROC	; ioWnd::iwm_mousemove
EXTRN	?iwm_mouseleave@ioWnd@@UAEXABVioMouse@@@Z:PROC	; ioWnd::iwm_mouseleave
EXTRN	?iwm_vscroll@ioWnd@@UAEXKH@Z:PROC		; ioWnd::iwm_vscroll
EXTRN	?iwm_wheel@ioWnd@@UAEXH@Z:PROC			; ioWnd::iwm_wheel
EXTRN	?iwm_show@ioWnd@@UAEXXZ:PROC			; ioWnd::iwm_show
EXTRN	?iwm_hide@ioWnd@@UAEXXZ:PROC			; ioWnd::iwm_hide
EXTRN	?iwm_esc@ioWnd@@UAE_NXZ:PROC			; ioWnd::iwm_esc
EXTRN	?iwm_spacebar@ioWnd@@UAE_NXZ:PROC		; ioWnd::iwm_spacebar
EXTRN	?iwm_gototop@ioWnd@@UAEXXZ:PROC			; ioWnd::iwm_gototop
EXTRN	?iwm_dragenter@ioWnd@@UAE?AW4IWDropEffect@@PAVioDragItem@@ABVioMouse@@@Z:PROC ; ioWnd::iwm_dragenter
EXTRN	?iwm_dragover@ioWnd@@UAE?AW4IWDropEffect@@PAVioDragItem@@ABVioMouse@@@Z:PROC ; ioWnd::iwm_dragover
EXTRN	?iwm_dragleave@ioWnd@@UAEXXZ:PROC		; ioWnd::iwm_dragleave
EXTRN	?iwm_dropitem@ioWnd@@UAE_NPAVioDragItem@@ABVioMouse@@PAV1@@Z:PROC ; ioWnd::iwm_dropitem
EXTRN	?iwm_dropdone@ioWnd@@UAEXPAVioDragItem@@PAV1@_N@Z:PROC ; ioWnd::iwm_dropdone
EXTRN	?IsEXType@ioWnd@@UBE_NXZ:PROC			; ioWnd::IsEXType
EXTRN	?GetWndType@ioWnd@@UBEKXZ:PROC			; ioWnd::GetWndType
EXTRN	?RenderWnd@ioWnd@@UAEXXZ:PROC			; ioWnd::RenderWnd
EXTRN	?SetIDEX@ioWnd@@UAEXAAK_N@Z:PROC		; ioWnd::SetIDEX
EXTRN	?ParseXML@ioWnd@@UAEXAAVioXMLElement@@@Z:PROC	; ioWnd::ParseXML
EXTRN	?GetHeaderFileName@ioWnd@@UAEPBDXZ:PROC		; ioWnd::GetHeaderFileName
EXTRN	?GetTemplateName@ioWnd@@UAEPBDXZ:PROC		; ioWnd::GetTemplateName
EXTRN	?GetDefClassName@ioWnd@@UBEPBDXZ:PROC		; ioWnd::GetDefClassName
EXTRN	?_Clone@ioWnd@@UAEPAV1@XZ:PROC			; ioWnd::_Clone
EXTRN	?Copy@ioWnd@@UAEXPAV1@@Z:PROC			; ioWnd::Copy
EXTRN	?Save@ioWnd@@UAE_NAAVioXMLElement@@@Z:PROC	; ioWnd::Save
EXTRN	?SetSaveData@ioWnd@@UAEXAAVioXMLElement@@@Z:PROC ; ioWnd::SetSaveData
EXTRN	?SetPosX@ioWnd@@UAEXH@Z:PROC			; ioWnd::SetPosX
EXTRN	?SetPosY@ioWnd@@UAEXH@Z:PROC			; ioWnd::SetPosY
EXTRN	?SetWidth@ioWnd@@UAEXH@Z:PROC			; ioWnd::SetWidth
EXTRN	?SetHeight@ioWnd@@UAEXH@Z:PROC			; ioWnd::SetHeight
EXTRN	?GetNumFixedRenderFrame@ioWnd@@UBEHXZ:PROC	; ioWnd::GetNumFixedRenderFrame
EXTRN	?GetFixedRenderFrameType@ioWnd@@UAEPBDH@Z:PROC	; ioWnd::GetFixedRenderFrameType
EXTRN	?GetRenderFrame@ioWnd@@UAEPAPAVioUIRenderElement@@PBD@Z:PROC ; ioWnd::GetRenderFrame
EXTRN	?GetNumFixedRenderImage@ioWnd@@UBEHXZ:PROC	; ioWnd::GetNumFixedRenderImage
EXTRN	?GetFixedRenderImageType@ioWnd@@UAEPBDH@Z:PROC	; ioWnd::GetFixedRenderImageType
EXTRN	?GetRenderImage@ioWnd@@UAEPAPAVioUIRenderElement@@PBD@Z:PROC ; ioWnd::GetRenderImage
EXTRN	?AddEffect@ioWnd@@UAEXABVioHashString@@PAVioUI3DEffectRender@@@Z:PROC ; ioWnd::AddEffect
EXTRN	?GetEffect@ioWnd@@UAEPAVioUI3DEffectRender@@VioHashString@@@Z:PROC ; ioWnd::GetEffect
EXTRN	??_ELineChatWnd@@UAEPAXI@Z:PROC			; LineChatWnd::`vector deleting destructor'
;	COMDAT ??_R2ioWnd@@8
; File d:\lost saga for developer\youtube\tutorial\source\src\lsclient\gui\channelchatwnd.cpp
rdata$r	SEGMENT
??_R2ioWnd@@8 DD FLAT:??_R1A@?0A@EA@ioWnd@@8		; ioWnd::`RTTI Base Class Array'
rdata$r	ENDS
;	COMDAT ??_R3ioWnd@@8
rdata$r	SEGMENT
??_R3ioWnd@@8 DD 00H					; ioWnd::`RTTI Class Hierarchy Descriptor'
	DD	00H
	DD	01H
	DD	FLAT:??_R2ioWnd@@8
rdata$r	ENDS
;	COMDAT ??_R0?AVioWnd@@@8
_DATA	SEGMENT
??_R0?AVioWnd@@@8 DD FLAT:??_7type_info@@6B@		; ioWnd `RTTI Type Descriptor'
	DD	00H
	DB	'.?AVioWnd@@', 00H
_DATA	ENDS
;	COMDAT ??_R1A@?0A@EA@ioWnd@@8
rdata$r	SEGMENT
??_R1A@?0A@EA@ioWnd@@8 DD FLAT:??_R0?AVioWnd@@@8	; ioWnd::`RTTI Base Class Descriptor at (0,-1,0,64)'
	DD	00H
	DD	00H
	DD	0ffffffffH
	DD	00H
	DD	040H
	DD	FLAT:??_R3ioWnd@@8
rdata$r	ENDS
;	COMDAT ??_R1A@?0A@EA@LineChatWnd@@8
rdata$r	SEGMENT
??_R1A@?0A@EA@LineChatWnd@@8 DD FLAT:??_R0?AVLineChatWnd@@@8 ; LineChatWnd::`RTTI Base Class Descriptor at (0,-1,0,64)'
	DD	01H
	DD	00H
	DD	0ffffffffH
	DD	00H
	DD	040H
	DD	FLAT:??_R3LineChatWnd@@8
rdata$r	ENDS
;	COMDAT ??_R2LineChatWnd@@8
rdata$r	SEGMENT
??_R2LineChatWnd@@8 DD FLAT:??_R1A@?0A@EA@LineChatWnd@@8 ; LineChatWnd::`RTTI Base Class Array'
	DD	FLAT:??_R1A@?0A@EA@ioWnd@@8
rdata$r	ENDS
;	COMDAT ??_R3LineChatWnd@@8
rdata$r	SEGMENT
??_R3LineChatWnd@@8 DD 00H				; LineChatWnd::`RTTI Class Hierarchy Descriptor'
	DD	00H
	DD	02H
	DD	FLAT:??_R2LineChatWnd@@8
rdata$r	ENDS
;	COMDAT ??_R0?AVLineChatWnd@@@8
_DATA	SEGMENT
??_R0?AVLineChatWnd@@@8 DD FLAT:??_7type_info@@6B@	; LineChatWnd `RTTI Type Descriptor'
	DD	00H
	DB	'.?AVLineChatWnd@@', 00H
_DATA	ENDS
;	COMDAT ??_R4LineChatWnd@@6B@
rdata$r	SEGMENT
??_R4LineChatWnd@@6B@ DD 00H				; LineChatWnd::`RTTI Complete Object Locator'
	DD	00H
	DD	00H
	DD	FLAT:??_R0?AVLineChatWnd@@@8
	DD	FLAT:??_R3LineChatWnd@@8
rdata$r	ENDS
;	COMDAT ??_7LineChatWnd@@6B@
CONST	SEGMENT
??_7LineChatWnd@@6B@ DD FLAT:??_R4LineChatWnd@@6B@	; LineChatWnd::`vftable'
	DD	FLAT:?AddRenderFrame@ioWnd@@UAEXABVioHashString@@PAVioUIRenderFrame@@@Z
	DD	FLAT:?AddRenderImage@ioWnd@@UAEXABVioHashString@@PAVioUIRenderImage@@@Z
	DD	FLAT:?AddTooltipHelp@ioWnd@@UAEXABVioHashString@@00@Z
	DD	FLAT:?ParseExtraInfo@ioWnd@@UAEXAAVioXMLElement@@@Z
	DD	FLAT:?AddNamedRenderImage@ioWnd@@UAEXABVioHashString@@PAVioUIRenderImage@@@Z
	DD	FLAT:?RemoveNamedRenderImage@ioWnd@@UAEXABVioHashString@@@Z
	DD	FLAT:?GetNamedRenderImage@ioWnd@@UBEPAVioUIRenderImage@@ABVioHashString@@@Z
	DD	FLAT:?SetWindowAlpha@ioWnd@@UAEXH@Z
	DD	FLAT:?SetActive@ioWnd@@UAEXXZ
	DD	FLAT:?SetInActive@ioWnd@@UAEXXZ
	DD	FLAT:?ClearElementImageList@ioWnd@@UAEXXZ
	DD	FLAT:?SetSize@ioWnd@@UAEXHH@Z
	DD	FLAT:?SetPositionToDefault@ioWnd@@UAEXHH_N0@Z
	DD	FLAT:?IsNeedProcess@ioWnd@@UBE_NXZ
	DD	FLAT:?IsCanMouseReaction@ioWnd@@UBE_NXZ
	DD	FLAT:?AddChild@ioWnd@@UAEXPAV1@@Z
	DD	FLAT:?DeleteChild@ioWnd@@UAEXK@Z
	DD	FLAT:?DeleteAllChild@ioWnd@@UAEXXZ
	DD	FLAT:?OnRenderShowAndHide@ioWnd@@MAE_NXZ
	DD	FLAT:?OnRenderShowAndHideByDefault@ioWnd@@MAE_NK@Z
	DD	FLAT:?OnRenderShowAndHideByTop@ioWnd@@MAE_NK@Z
	DD	FLAT:?OnRenderShowAndHideByDown@ioWnd@@MAE_NK@Z
	DD	FLAT:?OnRender@ioWnd@@MAEXXZ
	DD	FLAT:?OnRenderAfterChild@LineChatWnd@@MAEXXZ
	DD	FLAT:?OnProcess@LineChatWnd@@MAEXM@Z
	DD	FLAT:?OnMouseProcess@ioWnd@@MAEXABVioMouse@@@Z
	DD	FLAT:?CheckFrameReSize@ioWnd@@MAEXHHHH@Z
	DD	FLAT:?RenderImageList@ioWnd@@MAEXHHW4UIRenderType@@@Z
	DD	FLAT:?iwm_create@ioWnd@@UAEXXZ
	DD	FLAT:?iwm_destroy@ioWnd@@UAEXXZ
	DD	FLAT:?iwm_lbuttondown@ioWnd@@UAEXABVioMouse@@@Z
	DD	FLAT:?iwm_lbuttonup@ioWnd@@UAEXABVioMouse@@@Z
	DD	FLAT:?iwm_lbuttonDBLCLK@ioWnd@@UAEXABVioMouse@@@Z
	DD	FLAT:?iwm_rbuttondown@ioWnd@@UAEXABVioMouse@@@Z
	DD	FLAT:?iwm_rbuttonup@ioWnd@@UAEXABVioMouse@@@Z
	DD	FLAT:?iwm_command@ioWnd@@UAEXPAV1@HK@Z
	DD	FLAT:?iwm_mouseover@ioWnd@@UAEXABVioMouse@@@Z
	DD	FLAT:?iwm_mousemove@ioWnd@@UAEXABVioMouse@@@Z
	DD	FLAT:?iwm_mouseleave@ioWnd@@UAEXABVioMouse@@@Z
	DD	FLAT:?iwm_vscroll@ioWnd@@UAEXKH@Z
	DD	FLAT:?iwm_wheel@ioWnd@@UAEXH@Z
	DD	FLAT:?iwm_show@ioWnd@@UAEXXZ
	DD	FLAT:?iwm_hide@ioWnd@@UAEXXZ
	DD	FLAT:?iwm_esc@ioWnd@@UAE_NXZ
	DD	FLAT:?iwm_spacebar@ioWnd@@UAE_NXZ
	DD	FLAT:?iwm_gototop@ioWnd@@UAEXXZ
	DD	FLAT:?iwm_dragenter@ioWnd@@UAE?AW4IWDropEffect@@PAVioDragItem@@ABVioMouse@@@Z
	DD	FLAT:?iwm_dragover@ioWnd@@UAE?AW4IWDropEffect@@PAVioDragItem@@ABVioMouse@@@Z
	DD	FLAT:?iwm_dragleave@ioWnd@@UAEXXZ
	DD	FLAT:?iwm_dropitem@ioWnd@@UAE_NPAVioDragItem@@ABVioMouse@@PAV1@@Z
	DD	FLAT:?iwm_dropdone@ioWnd@@UAEXPAVioDragItem@@PAV1@_N@Z
	DD	FLAT:?IsEXType@ioWnd@@UBE_NXZ
	DD	FLAT:?GetWndType@ioWnd@@UBEKXZ
	DD	FLAT:?RenderWnd@ioWnd@@UAEXXZ
	DD	FLAT:?SetIDEX@ioWnd@@UAEXAAK_N@Z
	DD	FLAT:?ParseXML@ioWnd@@UAEXAAVioXMLElement@@@Z
	DD	FLAT:?GetHeaderFileName@ioWnd@@UAEPBDXZ
	DD	FLAT:?GetTemplateName@ioWnd@@UAEPBDXZ
	DD	FLAT:?GetDefClassName@ioWnd@@UBEPBDXZ
	DD	FLAT:?_Clone@ioWnd@@UAEPAV1@XZ
	DD	FLAT:?Copy@ioWnd@@UAEXPAV1@@Z
	DD	FLAT:?Save@ioWnd@@UAE_NAAVioXMLElement@@@Z
	DD	FLAT:?SetSaveData@ioWnd@@UAEXAAVioXMLElement@@@Z
	DD	FLAT:?SetPosX@ioWnd@@UAEXH@Z
	DD	FLAT:?SetPosY@ioWnd@@UAEXH@Z
	DD	FLAT:?SetWidth@ioWnd@@UAEXH@Z
	DD	FLAT:?SetHeight@ioWnd@@UAEXH@Z
	DD	FLAT:?GetNumFixedRenderFrame@ioWnd@@UBEHXZ
	DD	FLAT:?GetFixedRenderFrameType@ioWnd@@UAEPBDH@Z
	DD	FLAT:?GetRenderFrame@ioWnd@@UAEPAPAVioUIRenderElement@@PBD@Z
	DD	FLAT:?GetNumFixedRenderImage@ioWnd@@UBEHXZ
	DD	FLAT:?GetFixedRenderImageType@ioWnd@@UAEPBDH@Z
	DD	FLAT:?GetRenderImage@ioWnd@@UAEPAPAVioUIRenderElement@@PBD@Z
	DD	FLAT:?AddEffect@ioWnd@@UAEXABVioHashString@@PAVioUI3DEffectRender@@@Z
	DD	FLAT:?GetEffect@ioWnd@@UAEPAVioUI3DEffectRender@@VioHashString@@@Z
	DD	FLAT:??_ELineChatWnd@@UAEPAXI@Z
; Function compile flags: /Ogsp
CONST	ENDS
;	COMDAT ??0LineChatWnd@@QAE@XZ
_TEXT	SEGMENT
??0LineChatWnd@@QAE@XZ PROC				; LineChatWnd::LineChatWnd, COMDAT
; _this$ = ecx

; 40   : {

  00000	56		 push	 esi
  00001	8b f1		 mov	 esi, ecx
  00003	ff 15 00 00 00
	00		 call	 DWORD PTR __imp_??0ioWnd@@QAE@XZ

; 41   : 	m_iChannelIdx    = 0;

  00009	33 c0		 xor	 eax, eax
  0000b	89 86 60 01 00
	00		 mov	 DWORD PTR [esi+352], eax

; 42   : 	m_iChatInfoArray = 0;

  00011	89 86 64 01 00
	00		 mov	 DWORD PTR [esi+356], eax

; 43   : 	m_bChatOver		 = false;

  00017	88 86 68 01 00
	00		 mov	 BYTE PTR [esi+360], al
  0001d	c7 06 00 00 00
	00		 mov	 DWORD PTR [esi], OFFSET ??_7LineChatWnd@@6B@

; 44   : }

  00023	8b c6		 mov	 eax, esi
  00025	5e		 pop	 esi
  00026	c3		 ret	 0
??0LineChatWnd@@QAE@XZ ENDP				; LineChatWnd::LineChatWnd
_TEXT	ENDS
PUBLIC	??1LineChatWnd@@UAE@XZ				; LineChatWnd::~LineChatWnd
EXTRN	__imp_??1ioWnd@@UAE@XZ:PROC
; Function compile flags: /Ogsp
;	COMDAT ??1LineChatWnd@@UAE@XZ
_TEXT	SEGMENT
??1LineChatWnd@@UAE@XZ PROC				; LineChatWnd::~LineChatWnd, COMDAT
; _this$ = ecx

; 47   : {

  00000	c7 01 00 00 00
	00		 mov	 DWORD PTR [ecx], OFFSET ??_7LineChatWnd@@6B@

; 48   : 
; 49   : }

  00006	ff 25 00 00 00
	00		 jmp	 DWORD PTR __imp_??1ioWnd@@UAE@XZ
??1LineChatWnd@@UAE@XZ ENDP				; LineChatWnd::~LineChatWnd
_TEXT	ENDS
EXTRN	?PrintFullText@ioComplexStringPrinter@@QAEXMMW4TextAlignType@@E@Z:PROC ; ioComplexStringPrinter::PrintFullText
EXTRN	__imp_?IsEmpty@ioHashString@@QBE_NXZ:PROC
EXTRN	?GetChatInfo@ChannelNode@@QAEPAUtagChatInfo@@H@Z:PROC ; ChannelNode::GetChatInfo
EXTRN	?GetNodeIndex@ioChannelManager@@QAEPAVChannelNode@@H@Z:PROC ; ioChannelManager::GetNodeIndex
EXTRN	?GetSingleton@ioChannelManager@@SAAAV1@XZ:PROC	; ioChannelManager::GetSingleton
EXTRN	__imp_?GetDerivedPosY@ioWnd@@QBEHXZ:PROC
EXTRN	__imp_?GetDerivedPosX@ioWnd@@QBEHXZ:PROC
EXTRN	__fltused:DWORD
; Function compile flags: /Ogsp
;	COMDAT ?OnRenderAfterChild@LineChatWnd@@MAEXXZ
_TEXT	SEGMENT
_iXPos$ = -8						; size = 4
_iYPos$ = -4						; size = 4
?OnRenderAfterChild@LineChatWnd@@MAEXXZ PROC		; LineChatWnd::OnRenderAfterChild, COMDAT
; _this$ = ecx

; 52   : {

  00000	55		 push	 ebp
  00001	8b ec		 mov	 ebp, esp
  00003	51		 push	 ecx
  00004	51		 push	 ecx
  00005	56		 push	 esi
  00006	8b f1		 mov	 esi, ecx

; 53   : 	int iXPos = GetDerivedPosX();

  00008	ff 15 00 00 00
	00		 call	 DWORD PTR __imp_?GetDerivedPosX@ioWnd@@QBEHXZ

; 54   : 	int iYPos = GetDerivedPosY();

  0000e	8b ce		 mov	 ecx, esi
  00010	89 45 f8	 mov	 DWORD PTR _iXPos$[ebp], eax
  00013	ff 15 00 00 00
	00		 call	 DWORD PTR __imp_?GetDerivedPosY@ioWnd@@QBEHXZ

; 55   : 
; 56   : 	ChannelNode *pNode = g_ChannelManager.GetNodeIndex( m_iChannelIdx );

  00019	ff b6 60 01 00
	00		 push	 DWORD PTR [esi+352]
  0001f	89 45 fc	 mov	 DWORD PTR _iYPos$[ebp], eax
  00022	e8 00 00 00 00	 call	 ?GetSingleton@ioChannelManager@@SAAAV1@XZ ; ioChannelManager::GetSingleton
  00027	8b c8		 mov	 ecx, eax
  00029	e8 00 00 00 00	 call	 ?GetNodeIndex@ioChannelManager@@QAEPAVChannelNode@@H@Z ; ioChannelManager::GetNodeIndex

; 57   : 	if( pNode == NULL )

  0002e	85 c0		 test	 eax, eax
  00030	74 64		 je	 SHORT $LN1@OnRenderAf

; 58   : 		return;
; 59   : 
; 60   : 	ChatInfo *pInfo = pNode->GetChatInfo( m_iChatInfoArray );

  00032	57		 push	 edi
  00033	ff b6 64 01 00
	00		 push	 DWORD PTR [esi+356]
  00039	8b c8		 mov	 ecx, eax
  0003b	e8 00 00 00 00	 call	 ?GetChatInfo@ChannelNode@@QAEPAUtagChatInfo@@H@Z ; ChannelNode::GetChatInfo
  00040	8b f8		 mov	 edi, eax

; 61   : 	if( pInfo == NULL ) 

  00042	85 ff		 test	 edi, edi
  00044	74 4f		 je	 SHORT $LN7@OnRenderAf

; 62   : 		return;
; 63   : 
; 64   : 	if( m_bChatOver && !pInfo->m_szID.IsEmpty() )

  00046	80 be 68 01 00
	00 00		 cmp	 BYTE PTR [esi+360], 0
  0004d	74 1b		 je	 SHORT $LN2@OnRenderAf
  0004f	8d 4f 40	 lea	 ecx, DWORD PTR [edi+64]
  00052	ff 15 00 00 00
	00		 call	 DWORD PTR __imp_?IsEmpty@ioHashString@@QBE_NXZ
  00058	84 c0		 test	 al, al
  0005a	75 0e		 jne	 SHORT $LN2@OnRenderAf

; 65   : 		pInfo->m_OverPrinter.PrintFullText( iXPos, iYPos, TAT_LEFT );

  0005c	68 ff 00 00 00	 push	 255			; 000000ffH
  00061	6a 00		 push	 0
  00063	51		 push	 ecx
  00064	51		 push	 ecx
  00065	8d 4f 20	 lea	 ecx, DWORD PTR [edi+32]

; 66   : 	else

  00068	eb 0b		 jmp	 SHORT $LN8@OnRenderAf
$LN2@OnRenderAf:

; 67   : 		pInfo->m_Printer.PrintFullText( iXPos, iYPos, TAT_LEFT );

  0006a	68 ff 00 00 00	 push	 255			; 000000ffH
  0006f	6a 00		 push	 0
  00071	51		 push	 ecx
  00072	51		 push	 ecx
  00073	8b cf		 mov	 ecx, edi
$LN8@OnRenderAf:
  00075	66 0f 6e 45 fc	 movd	 xmm0, DWORD PTR _iYPos$[ebp]
  0007a	0f 5b c0	 cvtdq2ps xmm0, xmm0
  0007d	f3 0f 11 44 24
	04		 movss	 DWORD PTR [esp+4], xmm0
  00083	66 0f 6e 45 f8	 movd	 xmm0, DWORD PTR _iXPos$[ebp]
  00088	0f 5b c0	 cvtdq2ps xmm0, xmm0
  0008b	f3 0f 11 04 24	 movss	 DWORD PTR [esp], xmm0
  00090	e8 00 00 00 00	 call	 ?PrintFullText@ioComplexStringPrinter@@QAEXMMW4TextAlignType@@E@Z ; ioComplexStringPrinter::PrintFullText
$LN7@OnRenderAf:
  00095	5f		 pop	 edi
$LN1@OnRenderAf:
  00096	5e		 pop	 esi

; 68   : }

  00097	c9		 leave
  00098	c3		 ret	 0
?OnRenderAfterChild@LineChatWnd@@MAEXXZ ENDP		; LineChatWnd::OnRenderAfterChild
_TEXT	ENDS
PUBLIC	?SetChatInfo@LineChatWnd@@QAEXHH@Z		; LineChatWnd::SetChatInfo
; Function compile flags: /Ogsp
;	COMDAT ?SetChatInfo@LineChatWnd@@QAEXHH@Z
_TEXT	SEGMENT
_iChannelIdx$ = 8					; size = 4
_iChatInfoArray$ = 12					; size = 4
?SetChatInfo@LineChatWnd@@QAEXHH@Z PROC			; LineChatWnd::SetChatInfo, COMDAT
; _this$ = ecx

; 71   : {

  00000	55		 push	 ebp
  00001	8b ec		 mov	 ebp, esp

; 72   : 	m_iChannelIdx    = iChannelIdx;

  00003	8b 45 08	 mov	 eax, DWORD PTR _iChannelIdx$[ebp]
  00006	89 81 60 01 00
	00		 mov	 DWORD PTR [ecx+352], eax

; 73   : 	m_iChatInfoArray = iChatInfoArray;

  0000c	8b 45 0c	 mov	 eax, DWORD PTR _iChatInfoArray$[ebp]
  0000f	89 81 64 01 00
	00		 mov	 DWORD PTR [ecx+356], eax

; 74   : }

  00015	5d		 pop	 ebp
  00016	c2 08 00	 ret	 8
?SetChatInfo@LineChatWnd@@QAEXHH@Z ENDP			; LineChatWnd::SetChatInfo
_TEXT	ENDS
PUBLIC	?GetSentenceIndex@LineChatWnd@@QAEKXZ		; LineChatWnd::GetSentenceIndex
; Function compile flags: /Ogsp
;	COMDAT ?GetSentenceIndex@LineChatWnd@@QAEKXZ
_TEXT	SEGMENT
?GetSentenceIndex@LineChatWnd@@QAEKXZ PROC		; LineChatWnd::GetSentenceIndex, COMDAT
; _this$ = ecx

; 77   : {

  00000	56		 push	 esi
  00001	8b f1		 mov	 esi, ecx

; 78   : 	ChannelNode *pNode = g_ChannelManager.GetNodeIndex( m_iChannelIdx );

  00003	ff b6 60 01 00
	00		 push	 DWORD PTR [esi+352]
  00009	e8 00 00 00 00	 call	 ?GetSingleton@ioChannelManager@@SAAAV1@XZ ; ioChannelManager::GetSingleton
  0000e	8b c8		 mov	 ecx, eax
  00010	e8 00 00 00 00	 call	 ?GetNodeIndex@ioChannelManager@@QAEPAVChannelNode@@H@Z ; ioChannelManager::GetNodeIndex

; 79   : 	if( pNode == NULL )

  00015	85 c0		 test	 eax, eax
  00017	75 04		 jne	 SHORT $LN2@GetSentenc
$LN5@GetSentenc:

; 80   : 		return 0;

  00019	33 c0		 xor	 eax, eax
  0001b	5e		 pop	 esi

; 86   : }

  0001c	c3		 ret	 0
$LN2@GetSentenc:

; 81   : 	ChatInfo *pInfo = pNode->GetChatInfo( m_iChatInfoArray );

  0001d	ff b6 64 01 00
	00		 push	 DWORD PTR [esi+356]
  00023	8b c8		 mov	 ecx, eax
  00025	e8 00 00 00 00	 call	 ?GetChatInfo@ChannelNode@@QAEPAUtagChatInfo@@H@Z ; ChannelNode::GetChatInfo

; 82   : 	if( pInfo == NULL ) 

  0002a	85 c0		 test	 eax, eax

; 83   : 		return 0;

  0002c	74 eb		 je	 SHORT $LN5@GetSentenc

; 84   : 
; 85   : 	return pInfo->m_Index;

  0002e	8b 40 50	 mov	 eax, DWORD PTR [eax+80]
  00031	5e		 pop	 esi

; 86   : }

  00032	c3		 ret	 0
?GetSentenceIndex@LineChatWnd@@QAEKXZ ENDP		; LineChatWnd::GetSentenceIndex
_TEXT	ENDS
PUBLIC	?SetBigBtnOver@LineChatWnd@@QAEX_N@Z		; LineChatWnd::SetBigBtnOver
; Function compile flags: /Ogsp
;	COMDAT ?SetBigBtnOver@LineChatWnd@@QAEX_N@Z
_TEXT	SEGMENT
_bOver$ = 8						; size = 1
?SetBigBtnOver@LineChatWnd@@QAEX_N@Z PROC		; LineChatWnd::SetBigBtnOver, COMDAT
; _this$ = ecx

; 89   : {

  00000	55		 push	 ebp
  00001	8b ec		 mov	 ebp, esp

; 90   : 	m_bChatOver = bOver;

  00003	8a 45 08	 mov	 al, BYTE PTR _bOver$[ebp]
  00006	88 81 68 01 00
	00		 mov	 BYTE PTR [ecx+360], al

; 91   : }

  0000c	5d		 pop	 ebp
  0000d	c2 04 00	 ret	 4
?SetBigBtnOver@LineChatWnd@@QAEX_N@Z ENDP		; LineChatWnd::SetBigBtnOver
_TEXT	ENDS
PUBLIC	??_C@_0BL@DPCOFMLN@LineChatWnd?3?3OpenMannerWnd?$AA@ ; `string'
PUBLIC	??_C@_00CNPNBAHC@?$AA@				; `string'
PUBLIC	??_R0?AVMannerValuationParentWnd@@@8		; MannerValuationParentWnd `RTTI Type Descriptor'
PUBLIC	??_R0?AVChannelChatWnd@@@8			; ChannelChatWnd `RTTI Type Descriptor'
PUBLIC	?OpenMannerWnd@LineChatWnd@@QAEXXZ		; LineChatWnd::OpenMannerWnd
EXTRN	__imp_?ShowWnd@ioWnd@@QAEXXZ:PROC
EXTRN	?SetMsgBox@ioSP2GUIManager@@QAAXHPAVioWnd@@PBDZZ:PROC ; ioSP2GUIManager::SetMsgBox
EXTRN	__imp_?GetString@ioStringManager@@QAEPADPBD0HW4FileNamePrefix@1@@Z:PROC
EXTRN	__imp_?GetSingleton@ioStringManager@@SAAAV1@XZ:PROC
EXTRN	__imp_?FindWnd@ioGUIManager@@QAEPAVioWnd@@K@Z:PROC
EXTRN	?GetSingleton@ioSP2GUIManager@@SAAAV1@XZ:PROC	; ioSP2GUIManager::GetSingleton
EXTRN	___RTDynamicCast:PROC
;	COMDAT ??_C@_0BL@DPCOFMLN@LineChatWnd?3?3OpenMannerWnd?$AA@
; File d:\lost saga for developer\youtube\tutorial\source\src\lsclient\gui\channelchatwnd.h
CONST	SEGMENT
??_C@_0BL@DPCOFMLN@LineChatWnd?3?3OpenMannerWnd?$AA@ DB 'LineChatWnd::Ope'
	DB	'nMannerWnd', 00H				; `string'
CONST	ENDS
;	COMDAT ??_C@_00CNPNBAHC@?$AA@
CONST	SEGMENT
??_C@_00CNPNBAHC@?$AA@ DB 00H				; `string'
CONST	ENDS
;	COMDAT ??_R0?AVMannerValuationParentWnd@@@8
_DATA	SEGMENT
??_R0?AVMannerValuationParentWnd@@@8 DD FLAT:??_7type_info@@6B@ ; MannerValuationParentWnd `RTTI Type Descriptor'
	DD	00H
	DB	'.?AVMannerValuationParentWnd@@', 00H
_DATA	ENDS
;	COMDAT ??_R0?AVChannelChatWnd@@@8
_DATA	SEGMENT
??_R0?AVChannelChatWnd@@@8 DD FLAT:??_7type_info@@6B@	; ChannelChatWnd `RTTI Type Descriptor'
	DD	00H
	DB	'.?AVChannelChatWnd@@', 00H
; Function compile flags: /Ogsp
; File d:\lost saga for developer\youtube\tutorial\source\src\lsclient\gui\channelchatwnd.cpp
_DATA	ENDS
;	COMDAT ?OpenMannerWnd@LineChatWnd@@QAEXXZ
_TEXT	SEGMENT
_pParent$ = -8						; size = 4
tv200 = -4						; size = 4
?OpenMannerWnd@LineChatWnd@@QAEXXZ PROC			; LineChatWnd::OpenMannerWnd, COMDAT
; _this$ = ecx

; 133  : {

  00000	55		 push	 ebp
  00001	8b ec		 mov	 ebp, esp
  00003	51		 push	 ecx
  00004	51		 push	 ecx
  00005	53		 push	 ebx
  00006	56		 push	 esi
  00007	8b f1		 mov	 esi, ecx

; 134  : 	ChannelNode *pNode = g_ChannelManager.GetNodeIndex( m_iChannelIdx );

  00009	ff b6 60 01 00
	00		 push	 DWORD PTR [esi+352]
  0000f	e8 00 00 00 00	 call	 ?GetSingleton@ioChannelManager@@SAAAV1@XZ ; ioChannelManager::GetSingleton
  00014	8b c8		 mov	 ecx, eax
  00016	e8 00 00 00 00	 call	 ?GetNodeIndex@ioChannelManager@@QAEPAVChannelNode@@H@Z ; ioChannelManager::GetNodeIndex

; 135  : 	if( pNode == NULL )

  0001b	33 db		 xor	 ebx, ebx
  0001d	3b c3		 cmp	 eax, ebx
  0001f	0f 84 da 00 00
	00		 je	 $LN7@OpenManner

; 136  : 		return;
; 137  : 	ChatInfo *pInfo = pNode->GetChatInfo( m_iChatInfoArray );

  00025	ff b6 64 01 00
	00		 push	 DWORD PTR [esi+356]
  0002b	8b c8		 mov	 ecx, eax
  0002d	e8 00 00 00 00	 call	 ?GetChatInfo@ChannelNode@@QAEPAUtagChatInfo@@H@Z ; ChannelNode::GetChatInfo

; 138  : 	if( pInfo == NULL ) 

  00032	3b c3		 cmp	 eax, ebx
  00034	0f 84 c5 00 00
	00		 je	 $LN7@OpenManner

; 139  : 		return;
; 140  : 	if( pInfo->m_szID.IsEmpty() ) 

  0003a	83 c0 40	 add	 eax, 64			; 00000040H
  0003d	8b c8		 mov	 ecx, eax
  0003f	89 45 fc	 mov	 DWORD PTR tv200[ebp], eax
  00042	ff 15 00 00 00
	00		 call	 DWORD PTR __imp_?IsEmpty@ioHashString@@QBE_NXZ
  00048	84 c0		 test	 al, al
  0004a	0f 85 af 00 00
	00		 jne	 $LN7@OpenManner

; 141  : 		return;
; 142  : 
; 143  : 	ChannelChatWnd *pParent = dynamic_cast<ChannelChatWnd*> ( m_pParent );

  00050	57		 push	 edi
  00051	53		 push	 ebx
  00052	68 00 00 00 00	 push	 OFFSET ??_R0?AVChannelChatWnd@@@8
  00057	bf 00 00 00 00	 mov	 edi, OFFSET ??_R0?AVioWnd@@@8
  0005c	57		 push	 edi
  0005d	53		 push	 ebx
  0005e	ff 76 40	 push	 DWORD PTR [esi+64]
  00061	e8 00 00 00 00	 call	 ___RTDynamicCast
  00066	83 c4 14	 add	 esp, 20			; 00000014H
  00069	89 45 f8	 mov	 DWORD PTR _pParent$[ebp], eax

; 144  : 	if( !pParent ) return;

  0006c	3b c3		 cmp	 eax, ebx
  0006e	0f 84 8a 00 00
	00		 je	 $LN11@OpenManner

; 145  : 
; 146  : 	MannerValuationParentWnd *pMannerWnd = dynamic_cast<MannerValuationParentWnd*>(g_GUIMgr.FindWnd( MANNER_VALUATION_WND ));

  00074	53		 push	 ebx
  00075	68 00 00 00 00	 push	 OFFSET ??_R0?AVMannerValuationParentWnd@@@8
  0007a	57		 push	 edi
  0007b	53		 push	 ebx
  0007c	68 8e 17 00 00	 push	 6030			; 0000178eH
  00081	e8 00 00 00 00	 call	 ?GetSingleton@ioSP2GUIManager@@SAAAV1@XZ ; ioSP2GUIManager::GetSingleton
  00086	8b c8		 mov	 ecx, eax
  00088	ff 15 00 00 00
	00		 call	 DWORD PTR __imp_?FindWnd@ioGUIManager@@QAEPAVioWnd@@K@Z
  0008e	50		 push	 eax
  0008f	e8 00 00 00 00	 call	 ___RTDynamicCast
  00094	8b f0		 mov	 esi, eax
  00096	83 c4 14	 add	 esp, 20			; 00000014H

; 147  : 	if( !pMannerWnd ) return;

  00099	3b f3		 cmp	 esi, ebx
  0009b	74 61		 je	 SHORT $LN11@OpenManner

; 148  : 
; 149  : 	if( !pMannerWnd->IsOpenState( pInfo->m_szID ) )

  0009d	ff 75 fc	 push	 DWORD PTR tv200[ebp]
  000a0	8b 06		 mov	 eax, DWORD PTR [esi]
  000a2	8b ce		 mov	 ecx, esi
  000a4	ff 90 34 01 00
	00		 call	 DWORD PTR [eax+308]
  000aa	84 c0		 test	 al, al
  000ac	75 2e		 jne	 SHORT $LN1@OpenManner

; 150  : 	{
; 151  : 		g_GUIMgr.SetMsgBox( MB_OK, NULL, STR(1) );

  000ae	53		 push	 ebx
  000af	6a 01		 push	 1
  000b1	68 00 00 00 00	 push	 OFFSET ??_C@_00CNPNBAHC@?$AA@
  000b6	68 00 00 00 00	 push	 OFFSET ??_C@_0BL@DPCOFMLN@LineChatWnd?3?3OpenMannerWnd?$AA@
  000bb	ff 15 00 00 00
	00		 call	 DWORD PTR __imp_?GetSingleton@ioStringManager@@SAAAV1@XZ
  000c1	8b c8		 mov	 ecx, eax
  000c3	ff 15 00 00 00
	00		 call	 DWORD PTR __imp_?GetString@ioStringManager@@QAEPADPBD0HW4FileNamePrefix@1@@Z
  000c9	50		 push	 eax
  000ca	53		 push	 ebx
  000cb	53		 push	 ebx
  000cc	e8 00 00 00 00	 call	 ?GetSingleton@ioSP2GUIManager@@SAAAV1@XZ ; ioSP2GUIManager::GetSingleton
  000d1	50		 push	 eax
  000d2	e8 00 00 00 00	 call	 ?SetMsgBox@ioSP2GUIManager@@QAAXHPAVioWnd@@PBDZZ ; ioSP2GUIManager::SetMsgBox
  000d7	83 c4 10	 add	 esp, 16			; 00000010H

; 152  : 		return;

  000da	eb 22		 jmp	 SHORT $LN11@OpenManner
$LN1@OpenManner:

; 153  : 	}
; 154  : 	pMannerWnd->SetMannerValuationInfo( pInfo->m_szID , true, ioMannerTrialChatManager::TT_CHANNEL_CHAT, pParent->GetChannelIndex() );

  000dc	8b 4d f8	 mov	 ecx, DWORD PTR _pParent$[ebp]
  000df	ff b1 64 01 00
	00		 push	 DWORD PTR [ecx+356]
  000e5	8b 06		 mov	 eax, DWORD PTR [esi]
  000e7	6a 03		 push	 3
  000e9	6a 01		 push	 1
  000eb	ff 75 fc	 push	 DWORD PTR tv200[ebp]
  000ee	8b ce		 mov	 ecx, esi
  000f0	ff 90 30 01 00
	00		 call	 DWORD PTR [eax+304]

; 155  : 	pMannerWnd->ShowWnd();

  000f6	8b ce		 mov	 ecx, esi
  000f8	ff 15 00 00 00
	00		 call	 DWORD PTR __imp_?ShowWnd@ioWnd@@QAEXXZ
$LN11@OpenManner:
  000fe	5f		 pop	 edi
$LN7@OpenManner:
  000ff	5e		 pop	 esi
  00100	5b		 pop	 ebx

; 156  : }

  00101	c9		 leave
  00102	c3		 ret	 0
?OpenMannerWnd@LineChatWnd@@QAEXXZ ENDP			; LineChatWnd::OpenMannerWnd
_TEXT	ENDS
PUBLIC	??_7ChannelChatWnd@@6B@				; ChannelChatWnd::`vftable'
PUBLIC	??0ChannelChatWnd@@QAE@XZ			; ChannelChatWnd::ChannelChatWnd
PUBLIC	??_R4ChannelChatWnd@@6B@			; ChannelChatWnd::`RTTI Complete Object Locator'
PUBLIC	??_R3ChannelChatWnd@@8				; ChannelChatWnd::`RTTI Class Hierarchy Descriptor'
PUBLIC	??_R2ChannelChatWnd@@8				; ChannelChatWnd::`RTTI Base Class Array'
PUBLIC	??_R1A@?0A@EA@ChannelChatWnd@@8			; ChannelChatWnd::`RTTI Base Class Descriptor at (0,-1,0,64)'
PUBLIC	?OnRender@ChannelChatWnd@@MAEXXZ		; ChannelChatWnd::OnRender
PUBLIC	?OnProcess@ChannelChatWnd@@MAEXM@Z		; ChannelChatWnd::OnProcess
PUBLIC	?iwm_create@ChannelChatWnd@@UAEXXZ		; ChannelChatWnd::iwm_create
PUBLIC	?iwm_lbuttondown@ChannelChatWnd@@UAEXABVioMouse@@@Z ; ChannelChatWnd::iwm_lbuttondown
PUBLIC	?iwm_command@ChannelChatWnd@@UAEXPAVioWnd@@HK@Z	; ChannelChatWnd::iwm_command
PUBLIC	?iwm_vscroll@ChannelChatWnd@@UAEXKH@Z		; ChannelChatWnd::iwm_vscroll
PUBLIC	?iwm_wheel@ChannelChatWnd@@UAEXH@Z		; ChannelChatWnd::iwm_wheel
PUBLIC	?iwm_show@ChannelChatWnd@@UAEXXZ		; ChannelChatWnd::iwm_show
PUBLIC	?iwm_hide@ChannelChatWnd@@UAEXXZ		; ChannelChatWnd::iwm_hide
EXTRN	_memset:PROC
EXTRN	?OnRenderAfterChild@ioWnd@@MAEXXZ:PROC		; ioWnd::OnRenderAfterChild
EXTRN	??_EChannelChatWnd@@UAEPAXI@Z:PROC		; ChannelChatWnd::`vector deleting destructor'
;	COMDAT ??_R1A@?0A@EA@ChannelChatWnd@@8
rdata$r	SEGMENT
??_R1A@?0A@EA@ChannelChatWnd@@8 DD FLAT:??_R0?AVChannelChatWnd@@@8 ; ChannelChatWnd::`RTTI Base Class Descriptor at (0,-1,0,64)'
	DD	01H
	DD	00H
	DD	0ffffffffH
	DD	00H
	DD	040H
	DD	FLAT:??_R3ChannelChatWnd@@8
rdata$r	ENDS
;	COMDAT ??_R2ChannelChatWnd@@8
rdata$r	SEGMENT
??_R2ChannelChatWnd@@8 DD FLAT:??_R1A@?0A@EA@ChannelChatWnd@@8 ; ChannelChatWnd::`RTTI Base Class Array'
	DD	FLAT:??_R1A@?0A@EA@ioWnd@@8
rdata$r	ENDS
;	COMDAT ??_R3ChannelChatWnd@@8
rdata$r	SEGMENT
??_R3ChannelChatWnd@@8 DD 00H				; ChannelChatWnd::`RTTI Class Hierarchy Descriptor'
	DD	00H
	DD	02H
	DD	FLAT:??_R2ChannelChatWnd@@8
rdata$r	ENDS
;	COMDAT ??_R4ChannelChatWnd@@6B@
rdata$r	SEGMENT
??_R4ChannelChatWnd@@6B@ DD 00H				; ChannelChatWnd::`RTTI Complete Object Locator'
	DD	00H
	DD	00H
	DD	FLAT:??_R0?AVChannelChatWnd@@@8
	DD	FLAT:??_R3ChannelChatWnd@@8
rdata$r	ENDS
;	COMDAT ??_7ChannelChatWnd@@6B@
CONST	SEGMENT
??_7ChannelChatWnd@@6B@ DD FLAT:??_R4ChannelChatWnd@@6B@ ; ChannelChatWnd::`vftable'
	DD	FLAT:?AddRenderFrame@ioWnd@@UAEXABVioHashString@@PAVioUIRenderFrame@@@Z
	DD	FLAT:?AddRenderImage@ioWnd@@UAEXABVioHashString@@PAVioUIRenderImage@@@Z
	DD	FLAT:?AddTooltipHelp@ioWnd@@UAEXABVioHashString@@00@Z
	DD	FLAT:?ParseExtraInfo@ioWnd@@UAEXAAVioXMLElement@@@Z
	DD	FLAT:?AddNamedRenderImage@ioWnd@@UAEXABVioHashString@@PAVioUIRenderImage@@@Z
	DD	FLAT:?RemoveNamedRenderImage@ioWnd@@UAEXABVioHashString@@@Z
	DD	FLAT:?GetNamedRenderImage@ioWnd@@UBEPAVioUIRenderImage@@ABVioHashString@@@Z
	DD	FLAT:?SetWindowAlpha@ioWnd@@UAEXH@Z
	DD	FLAT:?SetActive@ioWnd@@UAEXXZ
	DD	FLAT:?SetInActive@ioWnd@@UAEXXZ
	DD	FLAT:?ClearElementImageList@ioWnd@@UAEXXZ
	DD	FLAT:?SetSize@ioWnd@@UAEXHH@Z
	DD	FLAT:?SetPositionToDefault@ioWnd@@UAEXHH_N0@Z
	DD	FLAT:?IsNeedProcess@ioWnd@@UBE_NXZ
	DD	FLAT:?IsCanMouseReaction@ioWnd@@UBE_NXZ
	DD	FLAT:?AddChild@ioWnd@@UAEXPAV1@@Z
	DD	FLAT:?DeleteChild@ioWnd@@UAEXK@Z
	DD	FLAT:?DeleteAllChild@ioWnd@@UAEXXZ
	DD	FLAT:?OnRenderShowAndHide@ioWnd@@MAE_NXZ
	DD	FLAT:?OnRenderShowAndHideByDefault@ioWnd@@MAE_NK@Z
	DD	FLAT:?OnRenderShowAndHideByTop@ioWnd@@MAE_NK@Z
	DD	FLAT:?OnRenderShowAndHideByDown@ioWnd@@MAE_NK@Z
	DD	FLAT:?OnRender@ChannelChatWnd@@MAEXXZ
	DD	FLAT:?OnRenderAfterChild@ioWnd@@MAEXXZ
	DD	FLAT:?OnProcess@ChannelChatWnd@@MAEXM@Z
	DD	FLAT:?OnMouseProcess@ioWnd@@MAEXABVioMouse@@@Z
	DD	FLAT:?CheckFrameReSize@ioWnd@@MAEXHHHH@Z
	DD	FLAT:?RenderImageList@ioWnd@@MAEXHHW4UIRenderType@@@Z
	DD	FLAT:?iwm_create@ChannelChatWnd@@UAEXXZ
	DD	FLAT:?iwm_destroy@ioWnd@@UAEXXZ
	DD	FLAT:?iwm_lbuttondown@ChannelChatWnd@@UAEXABVioMouse@@@Z
	DD	FLAT:?iwm_lbuttonup@ioWnd@@UAEXABVioMouse@@@Z
	DD	FLAT:?iwm_lbuttonDBLCLK@ioWnd@@UAEXABVioMouse@@@Z
	DD	FLAT:?iwm_rbuttondown@ioWnd@@UAEXABVioMouse@@@Z
	DD	FLAT:?iwm_rbuttonup@ioWnd@@UAEXABVioMouse@@@Z
	DD	FLAT:?iwm_command@ChannelChatWnd@@UAEXPAVioWnd@@HK@Z
	DD	FLAT:?iwm_mouseover@ioWnd@@UAEXABVioMouse@@@Z
	DD	FLAT:?iwm_mousemove@ioWnd@@UAEXABVioMouse@@@Z
	DD	FLAT:?iwm_mouseleave@ioWnd@@UAEXABVioMouse@@@Z
	DD	FLAT:?iwm_vscroll@ChannelChatWnd@@UAEXKH@Z
	DD	FLAT:?iwm_wheel@ChannelChatWnd@@UAEXH@Z
	DD	FLAT:?iwm_show@ChannelChatWnd@@UAEXXZ
	DD	FLAT:?iwm_hide@ChannelChatWnd@@UAEXXZ
	DD	FLAT:?iwm_esc@ioWnd@@UAE_NXZ
	DD	FLAT:?iwm_spacebar@ioWnd@@UAE_NXZ
	DD	FLAT:?iwm_gototop@ioWnd@@UAEXXZ
	DD	FLAT:?iwm_dragenter@ioWnd@@UAE?AW4IWDropEffect@@PAVioDragItem@@ABVioMouse@@@Z
	DD	FLAT:?iwm_dragover@ioWnd@@UAE?AW4IWDropEffect@@PAVioDragItem@@ABVioMouse@@@Z
	DD	FLAT:?iwm_dragleave@ioWnd@@UAEXXZ
	DD	FLAT:?iwm_dropitem@ioWnd@@UAE_NPAVioDragItem@@ABVioMouse@@PAV1@@Z
	DD	FLAT:?iwm_dropdone@ioWnd@@UAEXPAVioDragItem@@PAV1@_N@Z
	DD	FLAT:?IsEXType@ioWnd@@UBE_NXZ
	DD	FLAT:?GetWndType@ioWnd@@UBEKXZ
	DD	FLAT:?RenderWnd@ioWnd@@UAEXXZ
	DD	FLAT:?SetIDEX@ioWnd@@UAEXAAK_N@Z
	DD	FLAT:?ParseXML@ioWnd@@UAEXAAVioXMLElement@@@Z
	DD	FLAT:?GetHeaderFileName@ioWnd@@UAEPBDXZ
	DD	FLAT:?GetTemplateName@ioWnd@@UAEPBDXZ
	DD	FLAT:?GetDefClassName@ioWnd@@UBEPBDXZ
	DD	FLAT:?_Clone@ioWnd@@UAEPAV1@XZ
	DD	FLAT:?Copy@ioWnd@@UAEXPAV1@@Z
	DD	FLAT:?Save@ioWnd@@UAE_NAAVioXMLElement@@@Z
	DD	FLAT:?SetSaveData@ioWnd@@UAEXAAVioXMLElement@@@Z
	DD	FLAT:?SetPosX@ioWnd@@UAEXH@Z
	DD	FLAT:?SetPosY@ioWnd@@UAEXH@Z
	DD	FLAT:?SetWidth@ioWnd@@UAEXH@Z
	DD	FLAT:?SetHeight@ioWnd@@UAEXH@Z
	DD	FLAT:?GetNumFixedRenderFrame@ioWnd@@UBEHXZ
	DD	FLAT:?GetFixedRenderFrameType@ioWnd@@UAEPBDH@Z
	DD	FLAT:?GetRenderFrame@ioWnd@@UAEPAPAVioUIRenderElement@@PBD@Z
	DD	FLAT:?GetNumFixedRenderImage@ioWnd@@UBEHXZ
	DD	FLAT:?GetFixedRenderImageType@ioWnd@@UAEPBDH@Z
	DD	FLAT:?GetRenderImage@ioWnd@@UAEPAPAVioUIRenderElement@@PBD@Z
	DD	FLAT:?AddEffect@ioWnd@@UAEXABVioHashString@@PAVioUI3DEffectRender@@@Z
	DD	FLAT:?GetEffect@ioWnd@@UAEPAVioUI3DEffectRender@@VioHashString@@@Z
	DD	FLAT:??_EChannelChatWnd@@UAEPAXI@Z
; Function compile flags: /Ogsp
CONST	ENDS
;	COMDAT ??0ChannelChatWnd@@QAE@XZ
_TEXT	SEGMENT
??0ChannelChatWnd@@QAE@XZ PROC				; ChannelChatWnd::ChannelChatWnd, COMDAT
; _this$ = ecx

; 159  : {

  00000	56		 push	 esi
  00001	8b f1		 mov	 esi, ecx
  00003	ff 15 00 00 00
	00		 call	 DWORD PTR __imp_??0ioWnd@@QAE@XZ

; 160  : 	m_iCurPage    = 0;
; 161  : 	m_iChannelIdx = -1;

  00009	83 8e 64 01 00
	00 ff		 or	 DWORD PTR [esi+356], -1
  00010	33 c0		 xor	 eax, eax

; 162  : 
; 163  : 	m_iChannelUserFrame = 0;
; 164  : 	m_dwChannelUserTimer= 0;
; 165  : 	memset( m_szChannelUser, 0, sizeof( m_szChannelUser ) );

  00012	68 00 08 00 00	 push	 2048			; 00000800H
  00017	50		 push	 eax
  00018	89 86 68 01 00
	00		 mov	 DWORD PTR [esi+360], eax
  0001e	88 86 74 09 00
	00		 mov	 BYTE PTR [esi+2420], al
  00024	89 86 60 01 00
	00		 mov	 DWORD PTR [esi+352], eax
  0002a	89 86 6c 01 00
	00		 mov	 DWORD PTR [esi+364], eax
  00030	89 86 70 01 00
	00		 mov	 DWORD PTR [esi+368], eax
  00036	8d 86 74 01 00
	00		 lea	 eax, DWORD PTR [esi+372]
  0003c	50		 push	 eax
  0003d	c7 06 00 00 00
	00		 mov	 DWORD PTR [esi], OFFSET ??_7ChannelChatWnd@@6B@
  00043	e8 00 00 00 00	 call	 _memset
  00048	83 c4 0c	 add	 esp, 12			; 0000000cH

; 166  : }

  0004b	8b c6		 mov	 eax, esi
  0004d	5e		 pop	 esi
  0004e	c3		 ret	 0
??0ChannelChatWnd@@QAE@XZ ENDP				; ChannelChatWnd::ChannelChatWnd
_TEXT	ENDS
PUBLIC	??1ChannelChatWnd@@UAE@XZ			; ChannelChatWnd::~ChannelChatWnd
; Function compile flags: /Ogsp
;	COMDAT ??1ChannelChatWnd@@UAE@XZ
_TEXT	SEGMENT
??1ChannelChatWnd@@UAE@XZ PROC				; ChannelChatWnd::~ChannelChatWnd, COMDAT
; _this$ = ecx

; 169  : {

  00000	c7 01 00 00 00
	00		 mov	 DWORD PTR [ecx], OFFSET ??_7ChannelChatWnd@@6B@

; 170  : }

  00006	ff 25 00 00 00
	00		 jmp	 DWORD PTR __imp_??1ioWnd@@UAE@XZ
??1ChannelChatWnd@@UAE@XZ ENDP				; ChannelChatWnd::~ChannelChatWnd
; Function compile flags: /Ogsp
_TEXT	ENDS
;	COMDAT ?iwm_create@ChannelChatWnd@@UAEXXZ
_TEXT	SEGMENT
?iwm_create@ChannelChatWnd@@UAEXXZ PROC			; ChannelChatWnd::iwm_create, COMDAT
; _this$ = ecx

; 174  : }

  00000	c3		 ret	 0
?iwm_create@ChannelChatWnd@@UAEXXZ ENDP			; ChannelChatWnd::iwm_create
_TEXT	ENDS
EXTRN	__imp_?HideChildWnd@ioWnd@@QAEXK_N@Z:PROC
EXTRN	__imp_?IsShow@ioWnd@@QBE_NXZ:PROC
EXTRN	__imp_?GetParent@ioWnd@@QAEPAV1@XZ:PROC
EXTRN	__imp_?ClearString@ioEdit@@QAEXXZ:PROC
EXTRN	__imp_?FindChildWnd@ioWnd@@QAEPAV1@K@Z:PROC
; Function compile flags: /Ogsp
;	COMDAT ?iwm_hide@ChannelChatWnd@@UAEXXZ
_TEXT	SEGMENT
?iwm_hide@ChannelChatWnd@@UAEXXZ PROC			; ChannelChatWnd::iwm_hide, COMDAT
; _this$ = ecx

; 197  : {	

  00000	56		 push	 esi
  00001	57		 push	 edi

; 198  : 	ioEdit *pEdit = (ioEdit*)FindChildWnd( ID_EDIT_CHAT );

  00002	6a 04		 push	 4
  00004	8b f1		 mov	 esi, ecx
  00006	ff 15 00 00 00
	00		 call	 DWORD PTR __imp_?FindChildWnd@ioWnd@@QAEPAV1@K@Z
  0000c	8b f8		 mov	 edi, eax

; 199  : 	if( pEdit )

  0000e	85 ff		 test	 edi, edi
  00010	74 12		 je	 SHORT $LN7@iwm_hide

; 200  : 	{
; 201  : 		pEdit->ClearString();

  00012	8b cf		 mov	 ecx, edi
  00014	ff 15 00 00 00
	00		 call	 DWORD PTR __imp_?ClearString@ioEdit@@QAEXXZ

; 202  : 		pEdit->KillKeyFocus();		

  0001a	8b 07		 mov	 eax, DWORD PTR [edi]
  0001c	8b cf		 mov	 ecx, edi
  0001e	ff 90 34 01 00
	00		 call	 DWORD PTR [eax+308]
$LN7@iwm_hide:

; 203  : 	}
; 204  : 
; 205  : 	if( m_pPreEdit )	

  00024	8b 8e 68 01 00
	00		 mov	 ecx, DWORD PTR [esi+360]
  0002a	85 c9		 test	 ecx, ecx
  0002c	74 24		 je	 SHORT $LN4@iwm_hide

; 206  : 	{
; 207  : 		ioWnd *pParent = m_pPreEdit->GetParent();

  0002e	ff 15 00 00 00
	00		 call	 DWORD PTR __imp_?GetParent@ioWnd@@QAEPAV1@XZ

; 208  : 		if( pParent )

  00034	85 c0		 test	 eax, eax
  00036	74 1a		 je	 SHORT $LN4@iwm_hide

; 209  : 		{
; 210  : 			if( pParent->IsShow() )

  00038	8b c8		 mov	 ecx, eax
  0003a	ff 15 00 00 00
	00		 call	 DWORD PTR __imp_?IsShow@ioWnd@@QBE_NXZ
  00040	84 c0		 test	 al, al
  00042	74 0e		 je	 SHORT $LN4@iwm_hide

; 211  : 				((ioEdit*)m_pPreEdit)->SetKeyFocus();	

  00044	8b 8e 68 01 00
	00		 mov	 ecx, DWORD PTR [esi+360]
  0004a	8b 01		 mov	 eax, DWORD PTR [ecx]
  0004c	ff 90 30 01 00
	00		 call	 DWORD PTR [eax+304]
$LN4@iwm_hide:

; 212  : 		}
; 213  : 	}	
; 214  : 	m_pPreEdit = NULL;	

  00052	83 a6 68 01 00
	00 00		 and	 DWORD PTR [esi+360], 0

; 215  : 
; 216  : 	for(int i = ID_LINE_CHAT_WND_1;i < ID_LINE_CHAT_WND_1 + MAX_LIST_SIZE;i++)

  00059	6a 65		 push	 101			; 00000065H
  0005b	5f		 pop	 edi
$LL3@iwm_hide:

; 217  : 	{
; 218  : 		HideChildWnd( i );

  0005c	6a 00		 push	 0
  0005e	57		 push	 edi
  0005f	8b ce		 mov	 ecx, esi
  00061	ff 15 00 00 00
	00		 call	 DWORD PTR __imp_?HideChildWnd@ioWnd@@QAEXK_N@Z
  00067	47		 inc	 edi
  00068	83 ff 6f	 cmp	 edi, 111		; 0000006fH
  0006b	7c ef		 jl	 SHORT $LL3@iwm_hide

; 219  : 	}
; 220  : 
; 221  : 	m_bSettingScrollPos = false;

  0006d	5f		 pop	 edi
  0006e	c6 86 74 09 00
	00 00		 mov	 BYTE PTR [esi+2420], 0
  00075	5e		 pop	 esi

; 222  : }

  00076	c3		 ret	 0
?iwm_hide@ChannelChatWnd@@UAEXXZ ENDP			; ChannelChatWnd::iwm_hide
; Function compile flags: /Ogsp
_TEXT	ENDS
;	COMDAT ?iwm_vscroll@ChannelChatWnd@@UAEXKH@Z
_TEXT	SEGMENT
_dwID$ = 8						; size = 4
_curPos$ = 12						; size = 4
?iwm_vscroll@ChannelChatWnd@@UAEXKH@Z PROC		; ChannelChatWnd::iwm_vscroll, COMDAT
; _this$ = ecx

; 225  : {

  00000	55		 push	 ebp
  00001	8b ec		 mov	 ebp, esp

; 226  : 	m_iCurPage = curPos;

  00003	8b 45 0c	 mov	 eax, DWORD PTR _curPos$[ebp]
  00006	89 81 60 01 00
	00		 mov	 DWORD PTR [ecx+352], eax

; 227  : }

  0000c	5d		 pop	 ebp
  0000d	c2 08 00	 ret	 8
?iwm_vscroll@ChannelChatWnd@@UAEXKH@Z ENDP		; ChannelChatWnd::iwm_vscroll
_TEXT	ENDS
EXTRN	__imp_?iwm_wheel@ioWnd@@UAEXH@Z:PROC
; Function compile flags: /Ogsp
;	COMDAT ?iwm_wheel@ChannelChatWnd@@UAEXH@Z
_TEXT	SEGMENT
_zDelta$ = 8						; size = 4
?iwm_wheel@ChannelChatWnd@@UAEXH@Z PROC			; ChannelChatWnd::iwm_wheel, COMDAT
; _this$ = ecx

; 230  : {

  00000	55		 push	 ebp
  00001	8b ec		 mov	 ebp, esp
  00003	56		 push	 esi
  00004	8b f1		 mov	 esi, ecx

; 231  : 	if( !IsShow() )

  00006	ff 15 00 00 00
	00		 call	 DWORD PTR __imp_?IsShow@ioWnd@@QBE_NXZ
  0000c	84 c0		 test	 al, al
  0000e	75 0d		 jne	 SHORT $LN7@iwm_wheel

; 232  : 		ioWnd::iwm_wheel( zDelta );

  00010	ff 75 08	 push	 DWORD PTR _zDelta$[ebp]
  00013	8b ce		 mov	 ecx, esi
  00015	ff 15 00 00 00
	00		 call	 DWORD PTR __imp_?iwm_wheel@ioWnd@@UAEXH@Z

; 233  : 	else

  0001b	eb 49		 jmp	 SHORT $LN1@iwm_wheel
$LN7@iwm_wheel:

; 234  : 	{ 
; 235  : 		// 휠 이벤트 처리를 했다면 부모로 이벤트를 날리지 않는다.
; 236  : 		if( zDelta == WHEEL_DELTA )

  0001d	83 7d 08 78	 cmp	 DWORD PTR _zDelta$[ebp], 120 ; 00000078H
  00021	75 1a		 jne	 SHORT $LN5@iwm_wheel

; 237  : 		{
; 238  : 			ioScroll *pScroll = (ioScroll*)FindChildWnd( ID_VERT_SCROLL );

  00023	68 e8 03 00 00	 push	 1000			; 000003e8H
  00028	8b ce		 mov	 ecx, esi
  0002a	ff 15 00 00 00
	00		 call	 DWORD PTR __imp_?FindChildWnd@ioWnd@@QAEPAV1@K@Z

; 239  : 			if( pScroll )

  00030	85 c0		 test	 eax, eax
  00032	74 32		 je	 SHORT $LN1@iwm_wheel

; 240  : 				pScroll->SetScrollPos( m_iCurPage - 1 );

  00034	8b 8e 60 01 00
	00		 mov	 ecx, DWORD PTR [esi+352]
  0003a	49		 dec	 ecx

; 241  : 		}

  0003b	eb 1e		 jmp	 SHORT $LN10@iwm_wheel
$LN5@iwm_wheel:

; 242  : 		else if( zDelta == -WHEEL_DELTA )

  0003d	83 7d 08 88	 cmp	 DWORD PTR _zDelta$[ebp], -120 ; ffffff88H
  00041	75 23		 jne	 SHORT $LN1@iwm_wheel

; 243  : 		{
; 244  : 			ioScroll *pScroll = (ioScroll*)FindChildWnd( ID_VERT_SCROLL );

  00043	68 e8 03 00 00	 push	 1000			; 000003e8H
  00048	8b ce		 mov	 ecx, esi
  0004a	ff 15 00 00 00
	00		 call	 DWORD PTR __imp_?FindChildWnd@ioWnd@@QAEPAV1@K@Z

; 245  : 			if( pScroll )

  00050	85 c0		 test	 eax, eax
  00052	74 12		 je	 SHORT $LN1@iwm_wheel

; 246  : 				pScroll->SetScrollPos( m_iCurPage + 1 );

  00054	8b 8e 60 01 00
	00		 mov	 ecx, DWORD PTR [esi+352]
  0005a	41		 inc	 ecx
$LN10@iwm_wheel:
  0005b	8b 10		 mov	 edx, DWORD PTR [eax]
  0005d	51		 push	 ecx
  0005e	8b c8		 mov	 ecx, eax
  00060	ff 92 38 01 00
	00		 call	 DWORD PTR [edx+312]
$LN1@iwm_wheel:
  00066	5e		 pop	 esi

; 247  : 		}
; 248  : 	}
; 249  : }

  00067	5d		 pop	 ebp
  00068	c2 04 00	 ret	 4
?iwm_wheel@ChannelChatWnd@@UAEXH@Z ENDP			; ChannelChatWnd::iwm_wheel
_TEXT	ENDS
PUBLIC	__real@3f19999a
PUBLIC	__real@43500000
PUBLIC	__$ArrayPad$
PUBLIC	?SetChannelIndex@ChannelChatWnd@@QAEXH@Z	; ChannelChatWnd::SetChannelIndex
EXTRN	?StringCutFun@Help@@YAHMMHPADHPBD@Z:PROC	; Help::StringCutFun
EXTRN	?GetUserNameA@ChannelNode@@QAEXPADH@Z:PROC	; ChannelNode::GetUserNameA
EXTRN	___security_cookie:DWORD
EXTRN	@__security_check_cookie@4:PROC
;	COMDAT __real@3f19999a
CONST	SEGMENT
__real@3f19999a DD 03f19999ar			; 0.6
CONST	ENDS
;	COMDAT __real@43500000
CONST	SEGMENT
__real@43500000 DD 043500000r			; 208
; Function compile flags: /Ogsp
CONST	ENDS
;	COMDAT ?SetChannelIndex@ChannelChatWnd@@QAEXH@Z
_TEXT	SEGMENT
_szChannelUser$ = -2052					; size = 2048
__$ArrayPad$ = -4					; size = 4
_iIndex$ = 8						; size = 4
?SetChannelIndex@ChannelChatWnd@@QAEXH@Z PROC		; ChannelChatWnd::SetChannelIndex, COMDAT
; _this$ = ecx

; 258  : {

  00000	55		 push	 ebp
  00001	8b ec		 mov	 ebp, esp
  00003	81 ec 04 08 00
	00		 sub	 esp, 2052		; 00000804H
  00009	a1 00 00 00 00	 mov	 eax, DWORD PTR ___security_cookie
  0000e	33 c5		 xor	 eax, ebp
  00010	89 45 fc	 mov	 DWORD PTR __$ArrayPad$[ebp], eax

; 259  : 	m_iChannelIdx = iIndex;

  00013	8b 45 08	 mov	 eax, DWORD PTR _iIndex$[ebp]
  00016	53		 push	 ebx
  00017	56		 push	 esi
  00018	8b f1		 mov	 esi, ecx

; 260  : 	ChannelNode *pNode = g_ChannelManager.GetNodeIndex( m_iChannelIdx );

  0001a	50		 push	 eax
  0001b	89 86 64 01 00
	00		 mov	 DWORD PTR [esi+356], eax
  00021	e8 00 00 00 00	 call	 ?GetSingleton@ioChannelManager@@SAAAV1@XZ ; ioChannelManager::GetSingleton
  00026	8b c8		 mov	 ecx, eax
  00028	e8 00 00 00 00	 call	 ?GetNodeIndex@ioChannelManager@@QAEPAVChannelNode@@H@Z ; ioChannelManager::GetNodeIndex
  0002d	8b d8		 mov	 ebx, eax

; 261  : 	if( pNode == NULL )

  0002f	85 db		 test	 ebx, ebx
  00031	74 62		 je	 SHORT $LN2@SetChannel

; 262  : 	{
; 263  : 		return;
; 264  : 	}
; 265  : 
; 266  : 	float fScale = FONT_SIZE_12;
; 267  : 	float fWidhtSize = 208.0f;
; 268  : 
; 269  : 	char szChannelUser[2048] = "";
; 270  : 	memset( szChannelUser, 0, sizeof( szChannelUser ) );

  00033	57		 push	 edi
  00034	bf 00 08 00 00	 mov	 edi, 2048		; 00000800H
  00039	57		 push	 edi
  0003a	8d 85 fc f7 ff
	ff		 lea	 eax, DWORD PTR _szChannelUser$[ebp]
  00040	6a 00		 push	 0
  00042	50		 push	 eax
  00043	e8 00 00 00 00	 call	 _memset
  00048	83 c4 0c	 add	 esp, 12			; 0000000cH

; 271  : 	pNode->GetUserName( szChannelUser, 2000 );

  0004b	68 d0 07 00 00	 push	 2000			; 000007d0H
  00050	8d 85 fc f7 ff
	ff		 lea	 eax, DWORD PTR _szChannelUser$[ebp]
  00056	50		 push	 eax
  00057	8b cb		 mov	 ecx, ebx
  00059	e8 00 00 00 00	 call	 ?GetUserNameA@ChannelNode@@QAEXPADH@Z ; ChannelNode::GetUserNameA

; 272  : 	Help::StringCutFun( fScale, fWidhtSize, TS_NORMAL, m_szChannelUser, sizeof(m_szChannelUser), szChannelUser );

  0005e	f3 0f 10 05 00
	00 00 00	 movss	 xmm0, DWORD PTR __real@43500000
  00066	8d 85 fc f7 ff
	ff		 lea	 eax, DWORD PTR _szChannelUser$[ebp]
  0006c	50		 push	 eax
  0006d	57		 push	 edi
  0006e	81 c6 74 01 00
	00		 add	 esi, 372		; 00000174H
  00074	56		 push	 esi
  00075	6a 00		 push	 0
  00077	51		 push	 ecx
  00078	51		 push	 ecx
  00079	f3 0f 11 44 24
	04		 movss	 DWORD PTR [esp+4], xmm0
  0007f	f3 0f 10 05 00
	00 00 00	 movss	 xmm0, DWORD PTR __real@3f19999a
  00087	f3 0f 11 04 24	 movss	 DWORD PTR [esp], xmm0
  0008c	e8 00 00 00 00	 call	 ?StringCutFun@Help@@YAHMMHPADHPBD@Z ; Help::StringCutFun
  00091	83 c4 18	 add	 esp, 24			; 00000018H
  00094	5f		 pop	 edi
$LN2@SetChannel:

; 273  : }

  00095	8b 4d fc	 mov	 ecx, DWORD PTR __$ArrayPad$[ebp]
  00098	5e		 pop	 esi
  00099	33 cd		 xor	 ecx, ebp
  0009b	5b		 pop	 ebx
  0009c	e8 00 00 00 00	 call	 @__security_check_cookie@4
  000a1	c9		 leave
  000a2	c2 04 00	 ret	 4
?SetChannelIndex@ChannelChatWnd@@QAEXH@Z ENDP		; ChannelChatWnd::SetChannelIndex
_TEXT	ENDS
PUBLIC	?ErrorEdit@ChannelChatWnd@@QAEXPAD@Z		; ChannelChatWnd::ErrorEdit
EXTRN	__imp_??1ioHashString@@QAE@XZ:PROC
EXTRN	?AddAnnounce@ioChannelManager@@QAEXHVioHashString@@@Z:PROC ; ioChannelManager::AddAnnounce
EXTRN	__imp_??0ioHashString@@QAE@PBD@Z:PROC
EXTRN	___CxxFrameHandler3:PROC
EXTRN	__EH_epilog3:PROC
EXTRN	__EH_prolog3:PROC
;	COMDAT xdata$x
xdata$x	SEGMENT
__unwindtable$?ErrorEdit@ChannelChatWnd@@QAEXPAD@Z DD 0ffffffffH
	DD	FLAT:__unwindfunclet$?ErrorEdit@ChannelChatWnd@@QAEXPAD@Z$0
__ehfuncinfo$?ErrorEdit@ChannelChatWnd@@QAEXPAD@Z DD 019930522H
	DD	01H
	DD	FLAT:__unwindtable$?ErrorEdit@ChannelChatWnd@@QAEXPAD@Z
	DD	2 DUP(00H)
	DD	2 DUP(00H)
	DD	00H
	DD	01H
; Function compile flags: /Ogsp
xdata$x	ENDS
;	COMDAT ?ErrorEdit@ChannelChatWnd@@QAEXPAD@Z
_TEXT	SEGMENT
$T511294 = -16						; size = 4
__$EHRec$ = -12						; size = 12
_szError$ = 8						; size = 4
?ErrorEdit@ChannelChatWnd@@QAEXPAD@Z PROC		; ChannelChatWnd::ErrorEdit, COMDAT
; _this$ = ecx

; 293  : {

  00000	6a 04		 push	 4
  00002	b8 00 00 00 00	 mov	 eax, __ehhandler$?ErrorEdit@ChannelChatWnd@@QAEXPAD@Z
  00007	e8 00 00 00 00	 call	 __EH_prolog3
  0000c	8b f1		 mov	 esi, ecx

; 294  : 	g_ChannelManager.AddAnnounce( m_iChannelIdx, szError );	

  0000e	83 ec 10	 sub	 esp, 16			; 00000010H
  00011	8b cc		 mov	 ecx, esp
  00013	89 65 f0	 mov	 DWORD PTR $T511294[ebp], esp
  00016	ff 75 08	 push	 DWORD PTR _szError$[ebp]
  00019	ff 15 00 00 00
	00		 call	 DWORD PTR __imp_??0ioHashString@@QAE@PBD@Z
  0001f	ff b6 64 01 00
	00		 push	 DWORD PTR [esi+356]
  00025	83 65 fc 00	 and	 DWORD PTR __$EHRec$[ebp+8], 0
  00029	e8 00 00 00 00	 call	 ?GetSingleton@ioChannelManager@@SAAAV1@XZ ; ioChannelManager::GetSingleton
  0002e	83 4d fc ff	 or	 DWORD PTR __$EHRec$[ebp+8], -1
  00032	8b c8		 mov	 ecx, eax
  00034	e8 00 00 00 00	 call	 ?AddAnnounce@ioChannelManager@@QAEXHVioHashString@@@Z ; ioChannelManager::AddAnnounce

; 295  : }

  00039	e8 00 00 00 00	 call	 __EH_epilog3
  0003e	c2 04 00	 ret	 4
_TEXT	ENDS
;	COMDAT text$x
text$x	SEGMENT
__unwindfunclet$?ErrorEdit@ChannelChatWnd@@QAEXPAD@Z$0:
  00000	8b 4d f0	 mov	 ecx, DWORD PTR $T511294[ebp]
  00003	ff 25 00 00 00
	00		 jmp	 DWORD PTR __imp_??1ioHashString@@QAE@XZ
__ehhandler$?ErrorEdit@ChannelChatWnd@@QAEXPAD@Z:
  00009	8b 54 24 08	 mov	 edx, DWORD PTR [esp+8]
  0000d	8d 42 0c	 lea	 eax, DWORD PTR [edx+12]
  00010	8b 4a ec	 mov	 ecx, DWORD PTR [edx-20]
  00013	33 c8		 xor	 ecx, eax
  00015	e8 00 00 00 00	 call	 @__security_check_cookie@4
  0001a	b8 00 00 00 00	 mov	 eax, OFFSET __ehfuncinfo$?ErrorEdit@ChannelChatWnd@@QAEXPAD@Z
  0001f	e9 00 00 00 00	 jmp	 ___CxxFrameHandler3
text$x	ENDS
?ErrorEdit@ChannelChatWnd@@QAEXPAD@Z ENDP		; ChannelChatWnd::ErrorEdit
PUBLIC	??_C@_0BN@LMIHIPIH@ChannelChatWnd?3?3InviteResult?$AA@ ; `string'
PUBLIC	?InviteResult@ChannelChatWnd@@QAEXHVioHashString@@@Z ; ChannelChatWnd::InviteResult
EXTRN	__imp_?SafeSprintf@@YAXPADHPBD1@Z:PROC
EXTRN	__imp_?c_str@ioHashString@@QBEPBDXZ:PROC
EXTRN	__EH_epilog3_GS:PROC
EXTRN	__EH_prolog3_GS:PROC
;	COMDAT ??_C@_0BN@LMIHIPIH@ChannelChatWnd?3?3InviteResult?$AA@
CONST	SEGMENT
??_C@_0BN@LMIHIPIH@ChannelChatWnd?3?3InviteResult?$AA@ DB 'ChannelChatWnd'
	DB	'::InviteResult', 00H			; `string'
CONST	ENDS
;	COMDAT xdata$x
xdata$x	SEGMENT
__unwindtable$?InviteResult@ChannelChatWnd@@QAEXHVioHashString@@@Z DD 0ffffffffH
	DD	FLAT:__unwindfunclet$?InviteResult@ChannelChatWnd@@QAEXHVioHashString@@@Z$0
__ehfuncinfo$?InviteResult@ChannelChatWnd@@QAEXHVioHashString@@@Z DD 019930522H
	DD	01H
	DD	FLAT:__unwindtable$?InviteResult@ChannelChatWnd@@QAEXHVioHashString@@@Z
	DD	2 DUP(00H)
	DD	2 DUP(00H)
	DD	00H
	DD	01H
; Function compile flags: /Ogsp
xdata$x	ENDS
;	COMDAT ?InviteResult@ChannelChatWnd@@QAEXHVioHashString@@@Z
_TEXT	SEGMENT
_szResult$ = -276					; size = 260
__$EHRec$ = -12						; size = 12
_iResult$ = 8						; size = 4
_szInvitedName$ = 12					; size = 16
?InviteResult@ChannelChatWnd@@QAEXHVioHashString@@@Z PROC ; ChannelChatWnd::InviteResult, COMDAT
; _this$ = ecx

; 436  : {

  00000	68 08 01 00 00	 push	 264			; 00000108H
  00005	b8 00 00 00 00	 mov	 eax, __ehhandler$?InviteResult@ChannelChatWnd@@QAEXHVioHashString@@@Z
  0000a	e8 00 00 00 00	 call	 __EH_prolog3_GS
  0000f	8b f1		 mov	 esi, ecx
  00011	33 db		 xor	 ebx, ebx

; 437  : 	char szResult[MAX_PATH] = "";

  00013	68 03 01 00 00	 push	 259			; 00000103H
  00018	8d 85 ed fe ff
	ff		 lea	 eax, DWORD PTR _szResult$[ebp+1]
  0001e	53		 push	 ebx
  0001f	50		 push	 eax
  00020	89 5d fc	 mov	 DWORD PTR __$EHRec$[ebp+8], ebx
  00023	88 9d ec fe ff
	ff		 mov	 BYTE PTR _szResult$[ebp], bl
  00029	e8 00 00 00 00	 call	 _memset

; 438  : 	switch( iResult )

  0002e	8b 45 08	 mov	 eax, DWORD PTR _iResult$[ebp]
  00031	83 c4 0c	 add	 esp, 12			; 0000000cH
  00034	48		 dec	 eax
  00035	48		 dec	 eax
  00036	74 24		 je	 SHORT $LN3@InviteResu
  00038	48		 dec	 eax
  00039	74 12		 je	 SHORT $LN2@InviteResu
  0003b	48		 dec	 eax
  0003c	75 59		 jne	 SHORT $LN4@InviteResu

; 446  : 	case CHANNEL_INVITE_USER_ALREADY_CHANNEL:
; 447  : 		SafeSprintf( szResult, sizeof( szResult ), STR(3), szInvitedName.c_str() );		

  0003e	8d 4d 0c	 lea	 ecx, DWORD PTR _szInvitedName$[ebp]
  00041	ff 15 00 00 00
	00		 call	 DWORD PTR __imp_?c_str@ioHashString@@QBEPBDXZ
  00047	50		 push	 eax
  00048	53		 push	 ebx
  00049	6a 03		 push	 3

; 448  : 		break;

  0004b	eb 1c		 jmp	 SHORT $LN10@InviteResu
$LN2@InviteResu:

; 442  : 		break;
; 443  : 	case CHANNEL_INVITE_USER_NOT_CHANNEL:
; 444  : 		SafeSprintf( szResult, sizeof( szResult ), STR(2), szInvitedName.c_str() );		

  0004d	8d 4d 0c	 lea	 ecx, DWORD PTR _szInvitedName$[ebp]
  00050	ff 15 00 00 00
	00		 call	 DWORD PTR __imp_?c_str@ioHashString@@QBEPBDXZ
  00056	50		 push	 eax
  00057	53		 push	 ebx
  00058	6a 02		 push	 2

; 445  : 		break;

  0005a	eb 0d		 jmp	 SHORT $LN10@InviteResu
$LN3@InviteResu:

; 439  : 	{	
; 440  : 	case CHANNEL_INVITE_NOT_USER:
; 441  : 		SafeSprintf( szResult, sizeof( szResult ), STR(1), szInvitedName.c_str() );		

  0005c	8d 4d 0c	 lea	 ecx, DWORD PTR _szInvitedName$[ebp]
  0005f	ff 15 00 00 00
	00		 call	 DWORD PTR __imp_?c_str@ioHashString@@QBEPBDXZ
  00065	50		 push	 eax
  00066	53		 push	 ebx
  00067	6a 01		 push	 1
$LN10@InviteResu:
  00069	68 00 00 00 00	 push	 OFFSET ??_C@_00CNPNBAHC@?$AA@
  0006e	68 00 00 00 00	 push	 OFFSET ??_C@_0BN@LMIHIPIH@ChannelChatWnd?3?3InviteResult?$AA@
  00073	ff 15 00 00 00
	00		 call	 DWORD PTR __imp_?GetSingleton@ioStringManager@@SAAAV1@XZ
  00079	8b c8		 mov	 ecx, eax
  0007b	ff 15 00 00 00
	00		 call	 DWORD PTR __imp_?GetString@ioStringManager@@QAEPADPBD0HW4FileNamePrefix@1@@Z
  00081	50		 push	 eax
  00082	8d 85 ec fe ff
	ff		 lea	 eax, DWORD PTR _szResult$[ebp]
  00088	68 04 01 00 00	 push	 260			; 00000104H
  0008d	50		 push	 eax
  0008e	ff 15 00 00 00
	00		 call	 DWORD PTR __imp_?SafeSprintf@@YAXPADHPBD1@Z
  00094	83 c4 10	 add	 esp, 16			; 00000010H
$LN4@InviteResu:

; 449  : 	}
; 450  : 
; 451  : 	ErrorEdit( szResult );

  00097	8d 85 ec fe ff
	ff		 lea	 eax, DWORD PTR _szResult$[ebp]
  0009d	50		 push	 eax
  0009e	8b ce		 mov	 ecx, esi
  000a0	e8 00 00 00 00	 call	 ?ErrorEdit@ChannelChatWnd@@QAEXPAD@Z ; ChannelChatWnd::ErrorEdit

; 452  : }

  000a5	83 4d fc ff	 or	 DWORD PTR __$EHRec$[ebp+8], -1
  000a9	8d 4d 0c	 lea	 ecx, DWORD PTR _szInvitedName$[ebp]
  000ac	ff 15 00 00 00
	00		 call	 DWORD PTR __imp_??1ioHashString@@QAE@XZ
  000b2	e8 00 00 00 00	 call	 __EH_epilog3_GS
  000b7	c2 14 00	 ret	 20			; 00000014H
_TEXT	ENDS
;	COMDAT text$x
text$x	SEGMENT
__unwindfunclet$?InviteResult@ChannelChatWnd@@QAEXHVioHashString@@@Z$0:
  00000	8d 4d 0c	 lea	 ecx, DWORD PTR _szInvitedName$[ebp]
  00003	ff 25 00 00 00
	00		 jmp	 DWORD PTR __imp_??1ioHashString@@QAE@XZ
__ehhandler$?InviteResult@ChannelChatWnd@@QAEXHVioHashString@@@Z:
  00009	8b 54 24 08	 mov	 edx, DWORD PTR [esp+8]
  0000d	8d 42 0c	 lea	 eax, DWORD PTR [edx+12]
  00010	8b 8a e8 fe ff
	ff		 mov	 ecx, DWORD PTR [edx-280]
  00016	33 c8		 xor	 ecx, eax
  00018	e8 00 00 00 00	 call	 @__security_check_cookie@4
  0001d	8b 4a fc	 mov	 ecx, DWORD PTR [edx-4]
  00020	33 c8		 xor	 ecx, eax
  00022	e8 00 00 00 00	 call	 @__security_check_cookie@4
  00027	b8 00 00 00 00	 mov	 eax, OFFSET __ehfuncinfo$?InviteResult@ChannelChatWnd@@QAEXHVioHashString@@@Z
  0002c	e9 00 00 00 00	 jmp	 ___CxxFrameHandler3
text$x	ENDS
?InviteResult@ChannelChatWnd@@QAEXHVioHashString@@@Z ENDP ; ChannelChatWnd::InviteResult
PUBLIC	?IsChatBlock@ChannelChatWnd@@QAE_NXZ		; ChannelChatWnd::IsChatBlock
EXTRN	__imp_?m_pKeyFocusEdit@ioEdit@@2PAV1@A:DWORD
; Function compile flags: /Ogsp
;	COMDAT ?IsChatBlock@ChannelChatWnd@@QAE_NXZ
_TEXT	SEGMENT
?IsChatBlock@ChannelChatWnd@@QAE_NXZ PROC		; ChannelChatWnd::IsChatBlock, COMDAT
; _this$ = ecx

; 456  : 	ioEdit *pEdit = (ioEdit *)FindChildWnd( ID_EDIT_CHAT );

  00000	6a 04		 push	 4
  00002	ff 15 00 00 00
	00		 call	 DWORD PTR __imp_?FindChildWnd@ioWnd@@QAEPAV1@K@Z

; 457  : 	if( pEdit == ioEdit::m_pKeyFocusEdit )

  00008	8b 0d 00 00 00
	00		 mov	 ecx, DWORD PTR __imp_?m_pKeyFocusEdit@ioEdit@@2PAV1@A
  0000e	3b 01		 cmp	 eax, DWORD PTR [ecx]
  00010	0f 94 c0	 sete	 al

; 458  : 		return true;
; 459  : 	return false;
; 460  : }

  00013	c3		 ret	 0
?IsChatBlock@ChannelChatWnd@@QAE_NXZ ENDP		; ChannelChatWnd::IsChatBlock
_TEXT	ENDS
PUBLIC	?SetChatFocus@ChannelChatWnd@@QAEXXZ		; ChannelChatWnd::SetChatFocus
; Function compile flags: /Ogsp
;	COMDAT ?SetChatFocus@ChannelChatWnd@@QAEXXZ
_TEXT	SEGMENT
?SetChatFocus@ChannelChatWnd@@QAEXXZ PROC		; ChannelChatWnd::SetChatFocus, COMDAT
; _this$ = ecx

; 464  : 	ioEdit *pEdit = (ioEdit *)FindChildWnd( ID_EDIT_CHAT );

  00000	6a 04		 push	 4
  00002	ff 15 00 00 00
	00		 call	 DWORD PTR __imp_?FindChildWnd@ioWnd@@QAEPAV1@K@Z

; 465  : 	if( !pEdit ) return;

  00008	85 c0		 test	 eax, eax
  0000a	74 14		 je	 SHORT $LN3@SetChatFoc

; 466  : 	if( pEdit == ioEdit::m_pKeyFocusEdit ) return;

  0000c	8b 0d 00 00 00
	00		 mov	 ecx, DWORD PTR __imp_?m_pKeyFocusEdit@ioEdit@@2PAV1@A
  00012	3b 01		 cmp	 eax, DWORD PTR [ecx]
  00014	74 0a		 je	 SHORT $LN3@SetChatFoc

; 467  : 	
; 468  : 	pEdit->SetKeyFocus();

  00016	8b 10		 mov	 edx, DWORD PTR [eax]
  00018	8b c8		 mov	 ecx, eax
  0001a	ff a2 30 01 00
	00		 jmp	 DWORD PTR [edx+304]
$LN3@SetChatFoc:

; 469  : }

  00020	c3		 ret	 0
?SetChatFocus@ChannelChatWnd@@QAEXXZ ENDP		; ChannelChatWnd::SetChatFocus
_TEXT	ENDS
PUBLIC	??_C@_06KLJHPAAA@?$CFs?1?5?$CFs?$AA@		; `string'
PUBLIC	__real@406a000000000000
PUBLIC	__$ArrayPad$
PUBLIC	?ProcessChannelUser@ChannelChatWnd@@IAEXXZ	; ChannelChatWnd::ProcessChannelUser
EXTRN	__imp__sprintf:PROC
EXTRN	__imp_?GetTextWidth@ioFontManager@@QAEMPBDW4TextStyle@@MH@Z:PROC
EXTRN	__imp_?GetSingleton@ioFontManager@@SAAAV1@XZ:PROC
EXTRN	__imp_?GetLoopSec@ioFrameTimer@@QBEKXZ:PROC
EXTRN	__imp_?GetSingleton@ioFrameTimer@@SAAAV1@XZ:PROC
EXTRN	__chkstk:PROC
EXTRN	_memcpy:PROC
;	COMDAT ??_C@_06KLJHPAAA@?$CFs?1?5?$CFs?$AA@
CONST	SEGMENT
??_C@_06KLJHPAAA@?$CFs?1?5?$CFs?$AA@ DB '%s/ %s', 00H	; `string'
CONST	ENDS
;	COMDAT __real@406a000000000000
CONST	SEGMENT
__real@406a000000000000 DQ 0406a000000000000r	; 208
; Function compile flags: /Ogsp
CONST	ENDS
;	COMDAT ?ProcessChannelUser@ChannelChatWnd@@IAEXXZ
_TEXT	SEGMENT
tv171 = -6152						; size = 4
_pNode$ = -6152						; size = 4
_szDoubleUser$ = -6148					; size = 4096
_szChannelUser$ = -2052					; size = 2048
__$ArrayPad$ = -4					; size = 4
?ProcessChannelUser@ChannelChatWnd@@IAEXXZ PROC		; ChannelChatWnd::ProcessChannelUser, COMDAT
; _this$ = ecx

; 574  : {

  00000	55		 push	 ebp
  00001	8b ec		 mov	 ebp, esp
  00003	b8 08 18 00 00	 mov	 eax, 6152		; 00001808H
  00008	e8 00 00 00 00	 call	 __chkstk
  0000d	a1 00 00 00 00	 mov	 eax, DWORD PTR ___security_cookie
  00012	33 c5		 xor	 eax, ebp
  00014	89 45 fc	 mov	 DWORD PTR __$ArrayPad$[ebp], eax
  00017	56		 push	 esi
  00018	57		 push	 edi

; 575  : 	if( FRAMEGETTIME() - m_dwChannelUserTimer < 300 )

  00019	8b 3d 00 00 00
	00		 mov	 edi, DWORD PTR __imp_?GetSingleton@ioFrameTimer@@SAAAV1@XZ
  0001f	8b f1		 mov	 esi, ecx
  00021	ff d7		 call	 edi
  00023	8b c8		 mov	 ecx, eax
  00025	ff 15 00 00 00
	00		 call	 DWORD PTR __imp_?GetLoopSec@ioFrameTimer@@QBEKXZ
  0002b	2b 86 70 01 00
	00		 sub	 eax, DWORD PTR [esi+368]
  00031	3d 2c 01 00 00	 cmp	 eax, 300		; 0000012cH
  00036	0f 82 6e 01 00
	00		 jb	 $LN7@ProcessCha

; 576  : 		return;
; 577  : 
; 578  : 	m_dwChannelUserTimer = FRAMEGETTIME();

  0003c	53		 push	 ebx
  0003d	ff d7		 call	 edi
  0003f	8b c8		 mov	 ecx, eax
  00041	ff 15 00 00 00
	00		 call	 DWORD PTR __imp_?GetLoopSec@ioFrameTimer@@QBEKXZ

; 579  : 	ChannelNode *pNode = g_ChannelManager.GetNodeIndex( m_iChannelIdx );

  00047	ff b6 64 01 00
	00		 push	 DWORD PTR [esi+356]
  0004d	89 86 70 01 00
	00		 mov	 DWORD PTR [esi+368], eax
  00053	e8 00 00 00 00	 call	 ?GetSingleton@ioChannelManager@@SAAAV1@XZ ; ioChannelManager::GetSingleton
  00058	8b c8		 mov	 ecx, eax
  0005a	e8 00 00 00 00	 call	 ?GetNodeIndex@ioChannelManager@@QAEPAVChannelNode@@H@Z ; ioChannelManager::GetNodeIndex

; 580  : 	if( pNode == NULL ) return;

  0005f	33 db		 xor	 ebx, ebx
  00061	89 85 f8 e7 ff
	ff		 mov	 DWORD PTR _pNode$[ebp], eax
  00067	3b c3		 cmp	 eax, ebx
  00069	0f 84 3a 01 00
	00		 je	 $LN11@ProcessCha

; 581  : 
; 582  : 	float fScale = FONT_SIZE_12;
; 583  : 	float fWidhtSize = 208.0f;
; 584  : 
; 585  : 	char szChannelUser[2048] = "";
; 586  : 	memset( szChannelUser, 0, sizeof( szChannelUser ) );

  0006f	bf 00 08 00 00	 mov	 edi, 2048		; 00000800H
  00074	57		 push	 edi
  00075	8d 85 fc f7 ff
	ff		 lea	 eax, DWORD PTR _szChannelUser$[ebp]
  0007b	53		 push	 ebx
  0007c	50		 push	 eax
  0007d	e8 00 00 00 00	 call	 _memset

; 587  : 	pNode->GetUserName( szChannelUser, 2000 );

  00082	8b 8d f8 e7 ff
	ff		 mov	 ecx, DWORD PTR _pNode$[ebp]
  00088	83 c4 0c	 add	 esp, 12			; 0000000cH
  0008b	68 d0 07 00 00	 push	 2000			; 000007d0H
  00090	8d 85 fc f7 ff
	ff		 lea	 eax, DWORD PTR _szChannelUser$[ebp]
  00096	50		 push	 eax
  00097	e8 00 00 00 00	 call	 ?GetUserNameA@ChannelNode@@QAEXPADH@Z ; ChannelNode::GetUserNameA

; 588  : 
; 589  : 	if( g_FontMgr.GetTextWidth( szChannelUser, TS_NORMAL, fScale ) < fWidhtSize )

  0009c	f3 0f 10 05 00
	00 00 00	 movss	 xmm0, DWORD PTR __real@3f19999a
  000a4	53		 push	 ebx
  000a5	51		 push	 ecx
  000a6	f3 0f 11 04 24	 movss	 DWORD PTR [esp], xmm0
  000ab	8d 85 fc f7 ff
	ff		 lea	 eax, DWORD PTR _szChannelUser$[ebp]
  000b1	53		 push	 ebx
  000b2	50		 push	 eax
  000b3	ff 15 00 00 00
	00		 call	 DWORD PTR __imp_?GetSingleton@ioFontManager@@SAAAV1@XZ
  000b9	8b c8		 mov	 ecx, eax
  000bb	ff 15 00 00 00
	00		 call	 DWORD PTR __imp_?GetTextWidth@ioFontManager@@QAEMPBDW4TextStyle@@MH@Z
  000c1	dd 05 00 00 00
	00		 fld	 QWORD PTR __real@406a000000000000
  000c7	df f1		 fcomip	 ST(1)
  000c9	dd d8		 fstp	 ST(0)
  000cb	76 39		 jbe	 SHORT $LN4@ProcessCha

; 590  : 	{
; 591  : 		memset( m_szChannelUser, 0, sizeof( m_szChannelUser ) );

  000cd	57		 push	 edi
  000ce	81 c6 74 01 00
	00		 add	 esi, 372		; 00000174H
  000d4	53		 push	 ebx
  000d5	56		 push	 esi
  000d6	e8 00 00 00 00	 call	 _memset

; 592  : 		memcpy( m_szChannelUser, szChannelUser, strlen( szChannelUser ) );

  000db	8d 85 fc f7 ff
	ff		 lea	 eax, DWORD PTR _szChannelUser$[ebp]
  000e1	83 c4 0c	 add	 esp, 12			; 0000000cH
  000e4	8d 78 01	 lea	 edi, DWORD PTR [eax+1]
$LL9@ProcessCha:
  000e7	8a 08		 mov	 cl, BYTE PTR [eax]
  000e9	40		 inc	 eax
  000ea	3a cb		 cmp	 cl, bl
  000ec	75 f9		 jne	 SHORT $LL9@ProcessCha
  000ee	2b c7		 sub	 eax, edi
  000f0	50		 push	 eax
  000f1	8d 85 fc f7 ff
	ff		 lea	 eax, DWORD PTR _szChannelUser$[ebp]
  000f7	50		 push	 eax
  000f8	56		 push	 esi
  000f9	e8 00 00 00 00	 call	 _memcpy
  000fe	83 c4 0c	 add	 esp, 12			; 0000000cH

; 593  : 		return;

  00101	e9 a3 00 00 00	 jmp	 $LN11@ProcessCha
$LN4@ProcessCha:

; 594  : 	}
; 595  : 	
; 596  : 	int iMaxLen = strlen( szChannelUser );

  00106	8d 85 fc f7 ff
	ff		 lea	 eax, DWORD PTR _szChannelUser$[ebp]
  0010c	8d 50 01	 lea	 edx, DWORD PTR [eax+1]
$LL10@ProcessCha:
  0010f	8a 08		 mov	 cl, BYTE PTR [eax]
  00111	40		 inc	 eax
  00112	3a cb		 cmp	 cl, bl
  00114	75 f9		 jne	 SHORT $LL10@ProcessCha
  00116	2b c2		 sub	 eax, edx

; 597  : 	char szDoubleUser[4096] = "";

  00118	68 ff 0f 00 00	 push	 4095			; 00000fffH
  0011d	89 85 f8 e7 ff
	ff		 mov	 DWORD PTR tv171[ebp], eax
  00123	8d 85 fd e7 ff
	ff		 lea	 eax, DWORD PTR _szDoubleUser$[ebp+1]
  00129	53		 push	 ebx
  0012a	50		 push	 eax
  0012b	88 9d fc e7 ff
	ff		 mov	 BYTE PTR _szDoubleUser$[ebp], bl
  00131	e8 00 00 00 00	 call	 _memset

; 598  : 	sprintf( szDoubleUser, "%s/ %s", szChannelUser, szChannelUser );

  00136	8d 85 fc f7 ff
	ff		 lea	 eax, DWORD PTR _szChannelUser$[ebp]
  0013c	50		 push	 eax
  0013d	50		 push	 eax
  0013e	8d 85 fc e7 ff
	ff		 lea	 eax, DWORD PTR _szDoubleUser$[ebp]
  00144	68 00 00 00 00	 push	 OFFSET ??_C@_06KLJHPAAA@?$CFs?1?5?$CFs?$AA@
  00149	50		 push	 eax
  0014a	ff 15 00 00 00
	00		 call	 DWORD PTR __imp__sprintf

; 599  : 
; 600  : 	if( m_iChannelUserFrame >= iMaxLen )

  00150	8b 8d f8 e7 ff
	ff		 mov	 ecx, DWORD PTR tv171[ebp]
  00156	83 c4 1c	 add	 esp, 28			; 0000001cH
  00159	39 8e 6c 01 00
	00		 cmp	 DWORD PTR [esi+364], ecx
  0015f	7c 06		 jl	 SHORT $LN3@ProcessCha

; 601  : 		m_iChannelUserFrame = 0;

  00161	89 9e 6c 01 00
	00		 mov	 DWORD PTR [esi+364], ebx
$LN3@ProcessCha:

; 602  : #if defined( SRC_OVERSEAS ) && !defined( SRC_ID )
; 603  : 
; 604  : #if defined( MULTI_BYTE_CHECK )
; 605  : 	if( IsDBCSLeadByteEx( COUNTRY_CODE_PAGE, (BYTE)szDoubleUser[m_iChannelUserFrame] ) )
; 606  : #else
; 607  : 	if( false && IsDBCSLeadByteEx( COUNTRY_CODE_PAGE, (BYTE)szDoubleUser[m_iChannelUserFrame] ) )
; 608  : #endif
; 609  : 
; 610  : #else
; 611  : 	if( false && IsDBCSLeadByteEx( COUNTRY_CODE_PAGE, (BYTE)szDoubleUser[m_iChannelUserFrame] ) )
; 612  : #endif
; 613  : 
; 614  : 		m_iChannelUserFrame+=2;
; 615  : 	else 
; 616  : 		m_iChannelUserFrame+=1;

  00167	ff 86 6c 01 00
	00		 inc	 DWORD PTR [esi+364]
  0016d	8b 86 6c 01 00
	00		 mov	 eax, DWORD PTR [esi+364]

; 617  : 
; 618  : 	Help::StringCutFun( fScale, fWidhtSize, TS_NORMAL, m_szChannelUser, sizeof(m_szChannelUser), &szDoubleUser[m_iChannelUserFrame] );

  00173	f3 0f 10 05 00
	00 00 00	 movss	 xmm0, DWORD PTR __real@43500000
  0017b	8d 84 05 fc e7
	ff ff		 lea	 eax, DWORD PTR _szDoubleUser$[ebp+eax]
  00182	50		 push	 eax
  00183	57		 push	 edi
  00184	81 c6 74 01 00
	00		 add	 esi, 372		; 00000174H
  0018a	56		 push	 esi
  0018b	53		 push	 ebx
  0018c	51		 push	 ecx
  0018d	51		 push	 ecx
  0018e	f3 0f 11 44 24
	04		 movss	 DWORD PTR [esp+4], xmm0
  00194	f3 0f 10 05 00
	00 00 00	 movss	 xmm0, DWORD PTR __real@3f19999a
  0019c	f3 0f 11 04 24	 movss	 DWORD PTR [esp], xmm0
  001a1	e8 00 00 00 00	 call	 ?StringCutFun@Help@@YAHMMHPADHPBD@Z ; Help::StringCutFun
  001a6	83 c4 18	 add	 esp, 24			; 00000018H
$LN11@ProcessCha:
  001a9	5b		 pop	 ebx
$LN7@ProcessCha:

; 619  : }

  001aa	8b 4d fc	 mov	 ecx, DWORD PTR __$ArrayPad$[ebp]
  001ad	5f		 pop	 edi
  001ae	33 cd		 xor	 ecx, ebp
  001b0	5e		 pop	 esi
  001b1	e8 00 00 00 00	 call	 @__security_check_cookie@4
  001b6	c9		 leave
  001b7	c3		 ret	 0
?ProcessChannelUser@ChannelChatWnd@@IAEXXZ ENDP		; ChannelChatWnd::ProcessChannelUser
_TEXT	ENDS
PUBLIC	??_C@_0BJ@KHOLEMJK@ChannelChatWnd?3?3OnRender?$AA@ ; `string'
EXTRN	__imp_?PrintText@ioFontManager@@QAEXMMMPBDH0@Z:PROC
EXTRN	__imp_?PrintText@ioFontManager@@QAEXMMMPBD0@Z:PROC
EXTRN	?GetUserSize@ChannelNode@@QAEHXZ:PROC		; ChannelNode::GetUserSize
EXTRN	__imp_?SetTextColor@ioFontManager@@QAEXK@Z:PROC
EXTRN	__imp_?SetAlignType@ioFontManager@@QAEXW4TextAlignType@@@Z:PROC
EXTRN	__imp_?SetBkColor@ioFontManager@@QAEXHHH@Z:PROC
EXTRN	__imp_?SetTextStyle@ioFontManager@@QAEXW4TextStyle@@@Z:PROC
EXTRN	__imp_?OnRender@ioWnd@@MAEXXZ:PROC
;	COMDAT ??_C@_0BJ@KHOLEMJK@ChannelChatWnd?3?3OnRender?$AA@
CONST	SEGMENT
??_C@_0BJ@KHOLEMJK@ChannelChatWnd?3?3OnRender?$AA@ DB 'ChannelChatWnd::On'
	DB	'Render', 00H				; `string'
; Function compile flags: /Ogsp
CONST	ENDS
;	COMDAT ?OnRender@ChannelChatWnd@@MAEXXZ
_TEXT	SEGMENT
_iXPos$ = -12						; size = 4
_iYPos$ = -8						; size = 4
_pNode$ = -4						; size = 4
?OnRender@ChannelChatWnd@@MAEXXZ PROC			; ChannelChatWnd::OnRender, COMDAT
; _this$ = ecx

; 622  : {

  00000	55		 push	 ebp
  00001	8b ec		 mov	 ebp, esp
  00003	83 ec 0c	 sub	 esp, 12			; 0000000cH
  00006	53		 push	 ebx
  00007	57		 push	 edi
  00008	8b f9		 mov	 edi, ecx

; 623  : 
; 624  : 	ioWnd::OnRender();

  0000a	ff 15 00 00 00
	00		 call	 DWORD PTR __imp_?OnRender@ioWnd@@MAEXXZ

; 625  : 
; 626  : 	ChannelNode *pNode = g_ChannelManager.GetNodeIndex( m_iChannelIdx );

  00010	ff b7 64 01 00
	00		 push	 DWORD PTR [edi+356]
  00016	e8 00 00 00 00	 call	 ?GetSingleton@ioChannelManager@@SAAAV1@XZ ; ioChannelManager::GetSingleton
  0001b	8b c8		 mov	 ecx, eax
  0001d	e8 00 00 00 00	 call	 ?GetNodeIndex@ioChannelManager@@QAEPAVChannelNode@@H@Z ; ioChannelManager::GetNodeIndex

; 627  : 	if( pNode == NULL ) return;

  00022	33 db		 xor	 ebx, ebx
  00024	89 45 fc	 mov	 DWORD PTR _pNode$[ebp], eax
  00027	3b c3		 cmp	 eax, ebx
  00029	0f 84 27 01 00
	00		 je	 $LN1@OnRender

; 628  : 
; 629  : 	int iXPos = GetDerivedPosX();

  0002f	56		 push	 esi
  00030	8b cf		 mov	 ecx, edi
  00032	ff 15 00 00 00
	00		 call	 DWORD PTR __imp_?GetDerivedPosX@ioWnd@@QBEHXZ

; 630  : 	int iYPos = GetDerivedPosY();

  00038	8b cf		 mov	 ecx, edi
  0003a	89 45 f4	 mov	 DWORD PTR _iXPos$[ebp], eax
  0003d	ff 15 00 00 00
	00		 call	 DWORD PTR __imp_?GetDerivedPosY@ioWnd@@QBEHXZ

; 631  : 
; 632  : 	g_FontMgr.SetTextStyle( TS_NORMAL );

  00043	8b 35 00 00 00
	00		 mov	 esi, DWORD PTR __imp_?GetSingleton@ioFontManager@@SAAAV1@XZ
  00049	53		 push	 ebx
  0004a	89 45 f8	 mov	 DWORD PTR _iYPos$[ebp], eax
  0004d	ff d6		 call	 esi
  0004f	8b c8		 mov	 ecx, eax
  00051	ff 15 00 00 00
	00		 call	 DWORD PTR __imp_?SetTextStyle@ioFontManager@@QAEXW4TextStyle@@@Z

; 633  : 	g_FontMgr.SetBkColor( 0, 0, 0 );

  00057	53		 push	 ebx
  00058	53		 push	 ebx
  00059	53		 push	 ebx
  0005a	ff d6		 call	 esi
  0005c	8b c8		 mov	 ecx, eax
  0005e	ff 15 00 00 00
	00		 call	 DWORD PTR __imp_?SetBkColor@ioFontManager@@QAEXHHH@Z

; 634  : 	g_FontMgr.SetAlignType( TAT_LEFT );

  00064	53		 push	 ebx
  00065	ff d6		 call	 esi
  00067	8b c8		 mov	 ecx, eax
  00069	ff 15 00 00 00
	00		 call	 DWORD PTR __imp_?SetAlignType@ioFontManager@@QAEXW4TextAlignType@@@Z

; 635  : 
; 636  : 	g_FontMgr.SetTextColor( TCT_DEFAULT_DARKGRAY );

  0006f	68 3a 3a 3a ff	 push	 -12961222		; ff3a3a3aH
  00074	ff d6		 call	 esi
  00076	8b c8		 mov	 ecx, eax
  00078	ff 15 00 00 00
	00		 call	 DWORD PTR __imp_?SetTextColor@ioFontManager@@QAEXK@Z

; 637  : 	if( pNode->GetUserSize() == 2 )

  0007e	8b 4d fc	 mov	 ecx, DWORD PTR _pNode$[ebp]
  00081	e8 00 00 00 00	 call	 ?GetUserSize@ChannelNode@@QAEHXZ ; ChannelNode::GetUserSize

; 638  : 		g_FontMgr.PrintText( iXPos + 23, iYPos + 4, FONT_SIZE_12, STR(1), m_szChannelUser );

  00086	81 c7 74 01 00
	00		 add	 edi, 372		; 00000174H
  0008c	57		 push	 edi
  0008d	83 f8 02	 cmp	 eax, 2
  00090	75 5e		 jne	 SHORT $LN2@OnRender
  00092	53		 push	 ebx
  00093	6a 01		 push	 1
  00095	68 00 00 00 00	 push	 OFFSET ??_C@_00CNPNBAHC@?$AA@
  0009a	68 00 00 00 00	 push	 OFFSET ??_C@_0BJ@KHOLEMJK@ChannelChatWnd?3?3OnRender?$AA@
  0009f	ff 15 00 00 00
	00		 call	 DWORD PTR __imp_?GetSingleton@ioStringManager@@SAAAV1@XZ
  000a5	8b c8		 mov	 ecx, eax
  000a7	ff 15 00 00 00
	00		 call	 DWORD PTR __imp_?GetString@ioStringManager@@QAEPADPBD0HW4FileNamePrefix@1@@Z
  000ad	f3 0f 10 05 00
	00 00 00	 movss	 xmm0, DWORD PTR __real@3f19999a
  000b5	50		 push	 eax
  000b6	8b 45 f8	 mov	 eax, DWORD PTR _iYPos$[ebp]
  000b9	83 ec 0c	 sub	 esp, 12			; 0000000cH
  000bc	f3 0f 11 44 24
	08		 movss	 DWORD PTR [esp+8], xmm0
  000c2	83 c0 04	 add	 eax, 4
  000c5	0f 57 c0	 xorps	 xmm0, xmm0
  000c8	f3 0f 2a c0	 cvtsi2ss xmm0, eax
  000cc	8b 45 f4	 mov	 eax, DWORD PTR _iXPos$[ebp]
  000cf	f3 0f 11 44 24
	04		 movss	 DWORD PTR [esp+4], xmm0
  000d5	83 c0 17	 add	 eax, 23			; 00000017H
  000d8	0f 57 c0	 xorps	 xmm0, xmm0
  000db	f3 0f 2a c0	 cvtsi2ss xmm0, eax
  000df	f3 0f 11 04 24	 movss	 DWORD PTR [esp], xmm0
  000e4	ff d6		 call	 esi
  000e6	8b c8		 mov	 ecx, eax
  000e8	ff 15 00 00 00
	00		 call	 DWORD PTR __imp_?PrintText@ioFontManager@@QAEXMMMPBD0@Z

; 639  : 	else

  000ee	eb 65		 jmp	 SHORT $LN6@OnRender
$LN2@OnRender:

; 640  : 		g_FontMgr.PrintText( iXPos + 23, iYPos + 4, FONT_SIZE_12, STR(2), pNode->GetUserSize(), m_szChannelUser );

  000f0	8b 4d fc	 mov	 ecx, DWORD PTR _pNode$[ebp]
  000f3	e8 00 00 00 00	 call	 ?GetUserSize@ChannelNode@@QAEHXZ ; ChannelNode::GetUserSize
  000f8	50		 push	 eax
  000f9	53		 push	 ebx
  000fa	6a 02		 push	 2
  000fc	68 00 00 00 00	 push	 OFFSET ??_C@_00CNPNBAHC@?$AA@
  00101	68 00 00 00 00	 push	 OFFSET ??_C@_0BJ@KHOLEMJK@ChannelChatWnd?3?3OnRender?$AA@
  00106	ff 15 00 00 00
	00		 call	 DWORD PTR __imp_?GetSingleton@ioStringManager@@SAAAV1@XZ
  0010c	8b c8		 mov	 ecx, eax
  0010e	ff 15 00 00 00
	00		 call	 DWORD PTR __imp_?GetString@ioStringManager@@QAEPADPBD0HW4FileNamePrefix@1@@Z
  00114	f3 0f 10 05 00
	00 00 00	 movss	 xmm0, DWORD PTR __real@3f19999a
  0011c	50		 push	 eax
  0011d	8b 45 f8	 mov	 eax, DWORD PTR _iYPos$[ebp]
  00120	83 ec 0c	 sub	 esp, 12			; 0000000cH
  00123	f3 0f 11 44 24
	08		 movss	 DWORD PTR [esp+8], xmm0
  00129	83 c0 04	 add	 eax, 4
  0012c	0f 57 c0	 xorps	 xmm0, xmm0
  0012f	f3 0f 2a c0	 cvtsi2ss xmm0, eax
  00133	8b 45 f4	 mov	 eax, DWORD PTR _iXPos$[ebp]
  00136	f3 0f 11 44 24
	04		 movss	 DWORD PTR [esp+4], xmm0
  0013c	83 c0 17	 add	 eax, 23			; 00000017H
  0013f	0f 57 c0	 xorps	 xmm0, xmm0
  00142	f3 0f 2a c0	 cvtsi2ss xmm0, eax
  00146	f3 0f 11 04 24	 movss	 DWORD PTR [esp], xmm0
  0014b	ff d6		 call	 esi
  0014d	8b c8		 mov	 ecx, eax
  0014f	ff 15 00 00 00
	00		 call	 DWORD PTR __imp_?PrintText@ioFontManager@@QAEXMMMPBDH0@Z
$LN6@OnRender:
  00155	5e		 pop	 esi
$LN1@OnRender:
  00156	5f		 pop	 edi
  00157	5b		 pop	 ebx

; 641  : }

  00158	c9		 leave
  00159	c3		 ret	 0
?OnRender@ChannelChatWnd@@MAEXXZ ENDP			; ChannelChatWnd::OnRender
_TEXT	ENDS
PUBLIC	??_7GuildLineChatWnd@@6B@			; GuildLineChatWnd::`vftable'
PUBLIC	??0GuildLineChatWnd@@QAE@XZ			; GuildLineChatWnd::GuildLineChatWnd
PUBLIC	??_R4GuildLineChatWnd@@6B@			; GuildLineChatWnd::`RTTI Complete Object Locator'
PUBLIC	??_R0?AVGuildLineChatWnd@@@8			; GuildLineChatWnd `RTTI Type Descriptor'
PUBLIC	??_R3GuildLineChatWnd@@8			; GuildLineChatWnd::`RTTI Class Hierarchy Descriptor'
PUBLIC	??_R2GuildLineChatWnd@@8			; GuildLineChatWnd::`RTTI Base Class Array'
PUBLIC	??_R1A@?0A@EA@GuildLineChatWnd@@8		; GuildLineChatWnd::`RTTI Base Class Descriptor at (0,-1,0,64)'
PUBLIC	?OnRenderAfterChild@GuildLineChatWnd@@MAEXXZ	; GuildLineChatWnd::OnRenderAfterChild
PUBLIC	?OnProcess@GuildLineChatWnd@@MAEXM@Z		; GuildLineChatWnd::OnProcess
EXTRN	??_EGuildLineChatWnd@@UAEPAXI@Z:PROC		; GuildLineChatWnd::`vector deleting destructor'
;	COMDAT ??_R1A@?0A@EA@GuildLineChatWnd@@8
rdata$r	SEGMENT
??_R1A@?0A@EA@GuildLineChatWnd@@8 DD FLAT:??_R0?AVGuildLineChatWnd@@@8 ; GuildLineChatWnd::`RTTI Base Class Descriptor at (0,-1,0,64)'
	DD	01H
	DD	00H
	DD	0ffffffffH
	DD	00H
	DD	040H
	DD	FLAT:??_R3GuildLineChatWnd@@8
rdata$r	ENDS
;	COMDAT ??_R2GuildLineChatWnd@@8
rdata$r	SEGMENT
??_R2GuildLineChatWnd@@8 DD FLAT:??_R1A@?0A@EA@GuildLineChatWnd@@8 ; GuildLineChatWnd::`RTTI Base Class Array'
	DD	FLAT:??_R1A@?0A@EA@ioWnd@@8
rdata$r	ENDS
;	COMDAT ??_R3GuildLineChatWnd@@8
rdata$r	SEGMENT
??_R3GuildLineChatWnd@@8 DD 00H				; GuildLineChatWnd::`RTTI Class Hierarchy Descriptor'
	DD	00H
	DD	02H
	DD	FLAT:??_R2GuildLineChatWnd@@8
rdata$r	ENDS
;	COMDAT ??_R0?AVGuildLineChatWnd@@@8
_DATA	SEGMENT
??_R0?AVGuildLineChatWnd@@@8 DD FLAT:??_7type_info@@6B@	; GuildLineChatWnd `RTTI Type Descriptor'
	DD	00H
	DB	'.?AVGuildLineChatWnd@@', 00H
_DATA	ENDS
;	COMDAT ??_R4GuildLineChatWnd@@6B@
rdata$r	SEGMENT
??_R4GuildLineChatWnd@@6B@ DD 00H			; GuildLineChatWnd::`RTTI Complete Object Locator'
	DD	00H
	DD	00H
	DD	FLAT:??_R0?AVGuildLineChatWnd@@@8
	DD	FLAT:??_R3GuildLineChatWnd@@8
rdata$r	ENDS
;	COMDAT ??_7GuildLineChatWnd@@6B@
CONST	SEGMENT
??_7GuildLineChatWnd@@6B@ DD FLAT:??_R4GuildLineChatWnd@@6B@ ; GuildLineChatWnd::`vftable'
	DD	FLAT:?AddRenderFrame@ioWnd@@UAEXABVioHashString@@PAVioUIRenderFrame@@@Z
	DD	FLAT:?AddRenderImage@ioWnd@@UAEXABVioHashString@@PAVioUIRenderImage@@@Z
	DD	FLAT:?AddTooltipHelp@ioWnd@@UAEXABVioHashString@@00@Z
	DD	FLAT:?ParseExtraInfo@ioWnd@@UAEXAAVioXMLElement@@@Z
	DD	FLAT:?AddNamedRenderImage@ioWnd@@UAEXABVioHashString@@PAVioUIRenderImage@@@Z
	DD	FLAT:?RemoveNamedRenderImage@ioWnd@@UAEXABVioHashString@@@Z
	DD	FLAT:?GetNamedRenderImage@ioWnd@@UBEPAVioUIRenderImage@@ABVioHashString@@@Z
	DD	FLAT:?SetWindowAlpha@ioWnd@@UAEXH@Z
	DD	FLAT:?SetActive@ioWnd@@UAEXXZ
	DD	FLAT:?SetInActive@ioWnd@@UAEXXZ
	DD	FLAT:?ClearElementImageList@ioWnd@@UAEXXZ
	DD	FLAT:?SetSize@ioWnd@@UAEXHH@Z
	DD	FLAT:?SetPositionToDefault@ioWnd@@UAEXHH_N0@Z
	DD	FLAT:?IsNeedProcess@ioWnd@@UBE_NXZ
	DD	FLAT:?IsCanMouseReaction@ioWnd@@UBE_NXZ
	DD	FLAT:?AddChild@ioWnd@@UAEXPAV1@@Z
	DD	FLAT:?DeleteChild@ioWnd@@UAEXK@Z
	DD	FLAT:?DeleteAllChild@ioWnd@@UAEXXZ
	DD	FLAT:?OnRenderShowAndHide@ioWnd@@MAE_NXZ
	DD	FLAT:?OnRenderShowAndHideByDefault@ioWnd@@MAE_NK@Z
	DD	FLAT:?OnRenderShowAndHideByTop@ioWnd@@MAE_NK@Z
	DD	FLAT:?OnRenderShowAndHideByDown@ioWnd@@MAE_NK@Z
	DD	FLAT:?OnRender@ioWnd@@MAEXXZ
	DD	FLAT:?OnRenderAfterChild@GuildLineChatWnd@@MAEXXZ
	DD	FLAT:?OnProcess@GuildLineChatWnd@@MAEXM@Z
	DD	FLAT:?OnMouseProcess@ioWnd@@MAEXABVioMouse@@@Z
	DD	FLAT:?CheckFrameReSize@ioWnd@@MAEXHHHH@Z
	DD	FLAT:?RenderImageList@ioWnd@@MAEXHHW4UIRenderType@@@Z
	DD	FLAT:?iwm_create@ioWnd@@UAEXXZ
	DD	FLAT:?iwm_destroy@ioWnd@@UAEXXZ
	DD	FLAT:?iwm_lbuttondown@ioWnd@@UAEXABVioMouse@@@Z
	DD	FLAT:?iwm_lbuttonup@ioWnd@@UAEXABVioMouse@@@Z
	DD	FLAT:?iwm_lbuttonDBLCLK@ioWnd@@UAEXABVioMouse@@@Z
	DD	FLAT:?iwm_rbuttondown@ioWnd@@UAEXABVioMouse@@@Z
	DD	FLAT:?iwm_rbuttonup@ioWnd@@UAEXABVioMouse@@@Z
	DD	FLAT:?iwm_command@ioWnd@@UAEXPAV1@HK@Z
	DD	FLAT:?iwm_mouseover@ioWnd@@UAEXABVioMouse@@@Z
	DD	FLAT:?iwm_mousemove@ioWnd@@UAEXABVioMouse@@@Z
	DD	FLAT:?iwm_mouseleave@ioWnd@@UAEXABVioMouse@@@Z
	DD	FLAT:?iwm_vscroll@ioWnd@@UAEXKH@Z
	DD	FLAT:?iwm_wheel@ioWnd@@UAEXH@Z
	DD	FLAT:?iwm_show@ioWnd@@UAEXXZ
	DD	FLAT:?iwm_hide@ioWnd@@UAEXXZ
	DD	FLAT:?iwm_esc@ioWnd@@UAE_NXZ
	DD	FLAT:?iwm_spacebar@ioWnd@@UAE_NXZ
	DD	FLAT:?iwm_gototop@ioWnd@@UAEXXZ
	DD	FLAT:?iwm_dragenter@ioWnd@@UAE?AW4IWDropEffect@@PAVioDragItem@@ABVioMouse@@@Z
	DD	FLAT:?iwm_dragover@ioWnd@@UAE?AW4IWDropEffect@@PAVioDragItem@@ABVioMouse@@@Z
	DD	FLAT:?iwm_dragleave@ioWnd@@UAEXXZ
	DD	FLAT:?iwm_dropitem@ioWnd@@UAE_NPAVioDragItem@@ABVioMouse@@PAV1@@Z
	DD	FLAT:?iwm_dropdone@ioWnd@@UAEXPAVioDragItem@@PAV1@_N@Z
	DD	FLAT:?IsEXType@ioWnd@@UBE_NXZ
	DD	FLAT:?GetWndType@ioWnd@@UBEKXZ
	DD	FLAT:?RenderWnd@ioWnd@@UAEXXZ
	DD	FLAT:?SetIDEX@ioWnd@@UAEXAAK_N@Z
	DD	FLAT:?ParseXML@ioWnd@@UAEXAAVioXMLElement@@@Z
	DD	FLAT:?GetHeaderFileName@ioWnd@@UAEPBDXZ
	DD	FLAT:?GetTemplateName@ioWnd@@UAEPBDXZ
	DD	FLAT:?GetDefClassName@ioWnd@@UBEPBDXZ
	DD	FLAT:?_Clone@ioWnd@@UAEPAV1@XZ
	DD	FLAT:?Copy@ioWnd@@UAEXPAV1@@Z
	DD	FLAT:?Save@ioWnd@@UAE_NAAVioXMLElement@@@Z
	DD	FLAT:?SetSaveData@ioWnd@@UAEXAAVioXMLElement@@@Z
	DD	FLAT:?SetPosX@ioWnd@@UAEXH@Z
	DD	FLAT:?SetPosY@ioWnd@@UAEXH@Z
	DD	FLAT:?SetWidth@ioWnd@@UAEXH@Z
	DD	FLAT:?SetHeight@ioWnd@@UAEXH@Z
	DD	FLAT:?GetNumFixedRenderFrame@ioWnd@@UBEHXZ
	DD	FLAT:?GetFixedRenderFrameType@ioWnd@@UAEPBDH@Z
	DD	FLAT:?GetRenderFrame@ioWnd@@UAEPAPAVioUIRenderElement@@PBD@Z
	DD	FLAT:?GetNumFixedRenderImage@ioWnd@@UBEHXZ
	DD	FLAT:?GetFixedRenderImageType@ioWnd@@UAEPBDH@Z
	DD	FLAT:?GetRenderImage@ioWnd@@UAEPAPAVioUIRenderElement@@PBD@Z
	DD	FLAT:?AddEffect@ioWnd@@UAEXABVioHashString@@PAVioUI3DEffectRender@@@Z
	DD	FLAT:?GetEffect@ioWnd@@UAEPAVioUI3DEffectRender@@VioHashString@@@Z
	DD	FLAT:??_EGuildLineChatWnd@@UAEPAXI@Z
; Function compile flags: /Ogsp
CONST	ENDS
;	COMDAT ??0GuildLineChatWnd@@QAE@XZ
_TEXT	SEGMENT
??0GuildLineChatWnd@@QAE@XZ PROC			; GuildLineChatWnd::GuildLineChatWnd, COMDAT
; _this$ = ecx

; 686  : {

  00000	56		 push	 esi
  00001	8b f1		 mov	 esi, ecx
  00003	ff 15 00 00 00
	00		 call	 DWORD PTR __imp_??0ioWnd@@QAE@XZ

; 687  : 	m_iChatInfoArray = 0;

  00009	83 a6 60 01 00
	00 00		 and	 DWORD PTR [esi+352], 0
  00010	c7 06 00 00 00
	00		 mov	 DWORD PTR [esi], OFFSET ??_7GuildLineChatWnd@@6B@

; 688  : 	m_bChatOver		 = false;

  00016	c6 86 64 01 00
	00 00		 mov	 BYTE PTR [esi+356], 0

; 689  : }

  0001d	8b c6		 mov	 eax, esi
  0001f	5e		 pop	 esi
  00020	c3		 ret	 0
??0GuildLineChatWnd@@QAE@XZ ENDP			; GuildLineChatWnd::GuildLineChatWnd
_TEXT	ENDS
PUBLIC	??1GuildLineChatWnd@@UAE@XZ			; GuildLineChatWnd::~GuildLineChatWnd
; Function compile flags: /Ogsp
;	COMDAT ??1GuildLineChatWnd@@UAE@XZ
_TEXT	SEGMENT
??1GuildLineChatWnd@@UAE@XZ PROC			; GuildLineChatWnd::~GuildLineChatWnd, COMDAT
; _this$ = ecx

; 692  : {

  00000	c7 01 00 00 00
	00		 mov	 DWORD PTR [ecx], OFFSET ??_7GuildLineChatWnd@@6B@

; 693  : 
; 694  : }

  00006	ff 25 00 00 00
	00		 jmp	 DWORD PTR __imp_??1ioWnd@@UAE@XZ
??1GuildLineChatWnd@@UAE@XZ ENDP			; GuildLineChatWnd::~GuildLineChatWnd
_TEXT	ENDS
EXTRN	?GetChatInfo@ioGuildChatMgr@@QAEPAUtagChatInfo@@H@Z:PROC ; ioGuildChatMgr::GetChatInfo
EXTRN	?GetSingleton@ioGuildChatMgr@@SAAAV1@XZ:PROC	; ioGuildChatMgr::GetSingleton
; Function compile flags: /Ogsp
;	COMDAT ?OnRenderAfterChild@GuildLineChatWnd@@MAEXXZ
_TEXT	SEGMENT
_iYPos$ = -4						; size = 4
?OnRenderAfterChild@GuildLineChatWnd@@MAEXXZ PROC	; GuildLineChatWnd::OnRenderAfterChild, COMDAT
; _this$ = ecx

; 697  : {

  00000	55		 push	 ebp
  00001	8b ec		 mov	 ebp, esp
  00003	51		 push	 ecx
  00004	53		 push	 ebx
  00005	56		 push	 esi
  00006	57		 push	 edi
  00007	8b f1		 mov	 esi, ecx

; 698  : 	int iXPos = GetDerivedPosX();

  00009	ff 15 00 00 00
	00		 call	 DWORD PTR __imp_?GetDerivedPosX@ioWnd@@QBEHXZ

; 699  : 	int iYPos = GetDerivedPosY();

  0000f	8b ce		 mov	 ecx, esi
  00011	8b d8		 mov	 ebx, eax
  00013	ff 15 00 00 00
	00		 call	 DWORD PTR __imp_?GetDerivedPosY@ioWnd@@QBEHXZ

; 700  : 	
; 701  : 	ChatInfo *pInfo = g_GuildChatMgr.GetChatInfo( m_iChatInfoArray );

  00019	ff b6 60 01 00
	00		 push	 DWORD PTR [esi+352]
  0001f	89 45 fc	 mov	 DWORD PTR _iYPos$[ebp], eax
  00022	e8 00 00 00 00	 call	 ?GetSingleton@ioGuildChatMgr@@SAAAV1@XZ ; ioGuildChatMgr::GetSingleton
  00027	8b c8		 mov	 ecx, eax
  00029	e8 00 00 00 00	 call	 ?GetChatInfo@ioGuildChatMgr@@QAEPAUtagChatInfo@@H@Z ; ioGuildChatMgr::GetChatInfo
  0002e	8b f8		 mov	 edi, eax

; 702  : 	if( pInfo == NULL ) 

  00030	85 ff		 test	 edi, edi
  00032	74 4e		 je	 SHORT $LN1@OnRenderAf@2

; 703  : 		return;
; 704  : 	
; 705  : 	if( m_bChatOver && !pInfo->m_szID.IsEmpty() )

  00034	80 be 64 01 00
	00 00		 cmp	 BYTE PTR [esi+356], 0
  0003b	74 1b		 je	 SHORT $LN6@OnRenderAf@2
  0003d	8d 4f 40	 lea	 ecx, DWORD PTR [edi+64]
  00040	ff 15 00 00 00
	00		 call	 DWORD PTR __imp_?IsEmpty@ioHashString@@QBE_NXZ
  00046	84 c0		 test	 al, al
  00048	75 0e		 jne	 SHORT $LN6@OnRenderAf@2

; 706  : 		pInfo->m_OverPrinter.PrintFullText( iXPos, iYPos, TAT_LEFT );

  0004a	68 ff 00 00 00	 push	 255			; 000000ffH
  0004f	6a 00		 push	 0
  00051	51		 push	 ecx
  00052	51		 push	 ecx
  00053	8d 4f 20	 lea	 ecx, DWORD PTR [edi+32]

; 707  : 	else

  00056	eb 0b		 jmp	 SHORT $LN7@OnRenderAf@2
$LN6@OnRenderAf@2:

; 708  : 		pInfo->m_Printer.PrintFullText( iXPos, iYPos, TAT_LEFT );

  00058	68 ff 00 00 00	 push	 255			; 000000ffH
  0005d	6a 00		 push	 0
  0005f	51		 push	 ecx
  00060	51		 push	 ecx
  00061	8b cf		 mov	 ecx, edi
$LN7@OnRenderAf@2:
  00063	66 0f 6e 45 fc	 movd	 xmm0, DWORD PTR _iYPos$[ebp]
  00068	0f 5b c0	 cvtdq2ps xmm0, xmm0
  0006b	f3 0f 11 44 24
	04		 movss	 DWORD PTR [esp+4], xmm0
  00071	0f 57 c0	 xorps	 xmm0, xmm0
  00074	f3 0f 2a c3	 cvtsi2ss xmm0, ebx
  00078	f3 0f 11 04 24	 movss	 DWORD PTR [esp], xmm0
  0007d	e8 00 00 00 00	 call	 ?PrintFullText@ioComplexStringPrinter@@QAEXMMW4TextAlignType@@E@Z ; ioComplexStringPrinter::PrintFullText
$LN1@OnRenderAf@2:
  00082	5f		 pop	 edi
  00083	5e		 pop	 esi
  00084	5b		 pop	 ebx

; 709  : }

  00085	c9		 leave
  00086	c3		 ret	 0
?OnRenderAfterChild@GuildLineChatWnd@@MAEXXZ ENDP	; GuildLineChatWnd::OnRenderAfterChild
_TEXT	ENDS
PUBLIC	?SetChatInfo@GuildLineChatWnd@@QAEXH@Z		; GuildLineChatWnd::SetChatInfo
; Function compile flags: /Ogsp
;	COMDAT ?SetChatInfo@GuildLineChatWnd@@QAEXH@Z
_TEXT	SEGMENT
_iChatInfoArray$ = 8					; size = 4
?SetChatInfo@GuildLineChatWnd@@QAEXH@Z PROC		; GuildLineChatWnd::SetChatInfo, COMDAT
; _this$ = ecx

; 712  : {

  00000	55		 push	 ebp
  00001	8b ec		 mov	 ebp, esp

; 713  : 	m_iChatInfoArray = iChatInfoArray;

  00003	8b 45 08	 mov	 eax, DWORD PTR _iChatInfoArray$[ebp]
  00006	89 81 60 01 00
	00		 mov	 DWORD PTR [ecx+352], eax

; 714  : }

  0000c	5d		 pop	 ebp
  0000d	c2 04 00	 ret	 4
?SetChatInfo@GuildLineChatWnd@@QAEXH@Z ENDP		; GuildLineChatWnd::SetChatInfo
_TEXT	ENDS
PUBLIC	?GetSentenceIndex@GuildLineChatWnd@@QAEKXZ	; GuildLineChatWnd::GetSentenceIndex
; Function compile flags: /Ogsp
;	COMDAT ?GetSentenceIndex@GuildLineChatWnd@@QAEKXZ
_TEXT	SEGMENT
?GetSentenceIndex@GuildLineChatWnd@@QAEKXZ PROC		; GuildLineChatWnd::GetSentenceIndex, COMDAT
; _this$ = ecx

; 718  : 	ChatInfo *pInfo = g_GuildChatMgr.GetChatInfo( m_iChatInfoArray );

  00000	ff b1 60 01 00
	00		 push	 DWORD PTR [ecx+352]
  00006	e8 00 00 00 00	 call	 ?GetSingleton@ioGuildChatMgr@@SAAAV1@XZ ; ioGuildChatMgr::GetSingleton
  0000b	8b c8		 mov	 ecx, eax
  0000d	e8 00 00 00 00	 call	 ?GetChatInfo@ioGuildChatMgr@@QAEPAUtagChatInfo@@H@Z ; ioGuildChatMgr::GetChatInfo

; 719  : 	if( pInfo == NULL ) 

  00012	85 c0		 test	 eax, eax
  00014	75 01		 jne	 SHORT $LN1@GetSentenc@2

; 723  : }

  00016	c3		 ret	 0
$LN1@GetSentenc@2:

; 720  : 		return 0;
; 721  : 
; 722  : 	return pInfo->m_Index;

  00017	8b 40 50	 mov	 eax, DWORD PTR [eax+80]

; 723  : }

  0001a	c3		 ret	 0
?GetSentenceIndex@GuildLineChatWnd@@QAEKXZ ENDP		; GuildLineChatWnd::GetSentenceIndex
_TEXT	ENDS
PUBLIC	?SetBigBtnOver@GuildLineChatWnd@@QAEX_N@Z	; GuildLineChatWnd::SetBigBtnOver
; Function compile flags: /Ogsp
;	COMDAT ?SetBigBtnOver@GuildLineChatWnd@@QAEX_N@Z
_TEXT	SEGMENT
_bOver$ = 8						; size = 1
?SetBigBtnOver@GuildLineChatWnd@@QAEX_N@Z PROC		; GuildLineChatWnd::SetBigBtnOver, COMDAT
; _this$ = ecx

; 726  : {

  00000	55		 push	 ebp
  00001	8b ec		 mov	 ebp, esp

; 727  : 	m_bChatOver = bOver;

  00003	8a 45 08	 mov	 al, BYTE PTR _bOver$[ebp]
  00006	88 81 64 01 00
	00		 mov	 BYTE PTR [ecx+356], al

; 728  : }

  0000c	5d		 pop	 ebp
  0000d	c2 04 00	 ret	 4
?SetBigBtnOver@GuildLineChatWnd@@QAEX_N@Z ENDP		; GuildLineChatWnd::SetBigBtnOver
_TEXT	ENDS
PUBLIC	??_C@_0CA@NLMHPGIL@GuildLineChatWnd?3?3OpenMannerWnd?$AA@ ; `string'
PUBLIC	??_R0?AVGuildChatWnd@@@8			; GuildChatWnd `RTTI Type Descriptor'
PUBLIC	?OpenMannerWnd@GuildLineChatWnd@@QAEXXZ		; GuildLineChatWnd::OpenMannerWnd
;	COMDAT ??_C@_0CA@NLMHPGIL@GuildLineChatWnd?3?3OpenMannerWnd?$AA@
CONST	SEGMENT
??_C@_0CA@NLMHPGIL@GuildLineChatWnd?3?3OpenMannerWnd?$AA@ DB 'GuildLineCh'
	DB	'atWnd::OpenMannerWnd', 00H			; `string'
CONST	ENDS
;	COMDAT ??_R0?AVGuildChatWnd@@@8
_DATA	SEGMENT
??_R0?AVGuildChatWnd@@@8 DD FLAT:??_7type_info@@6B@	; GuildChatWnd `RTTI Type Descriptor'
	DD	00H
	DB	'.?AVGuildChatWnd@@', 00H
; Function compile flags: /Ogsp
_DATA	ENDS
;	COMDAT ?OpenMannerWnd@GuildLineChatWnd@@QAEXXZ
_TEXT	SEGMENT
tv196 = -4						; size = 4
?OpenMannerWnd@GuildLineChatWnd@@QAEXXZ PROC		; GuildLineChatWnd::OpenMannerWnd, COMDAT
; _this$ = ecx

; 767  : {

  00000	55		 push	 ebp
  00001	8b ec		 mov	 ebp, esp
  00003	51		 push	 ecx
  00004	53		 push	 ebx
  00005	57		 push	 edi
  00006	8b f9		 mov	 edi, ecx

; 768  : 	ChatInfo *pInfo =g_GuildChatMgr.GetChatInfo( m_iChatInfoArray );

  00008	ff b7 60 01 00
	00		 push	 DWORD PTR [edi+352]
  0000e	e8 00 00 00 00	 call	 ?GetSingleton@ioGuildChatMgr@@SAAAV1@XZ ; ioGuildChatMgr::GetSingleton
  00013	8b c8		 mov	 ecx, eax
  00015	e8 00 00 00 00	 call	 ?GetChatInfo@ioGuildChatMgr@@QAEPAUtagChatInfo@@H@Z ; ioGuildChatMgr::GetChatInfo

; 769  : 	if( pInfo == NULL ) 

  0001a	33 db		 xor	 ebx, ebx
  0001c	3b c3		 cmp	 eax, ebx
  0001e	0f 84 b7 00 00
	00		 je	 $LN6@OpenManner@2

; 770  : 		return;
; 771  : 	if( pInfo->m_szID.IsEmpty() ) 

  00024	8d 48 40	 lea	 ecx, DWORD PTR [eax+64]
  00027	89 4d fc	 mov	 DWORD PTR tv196[ebp], ecx
  0002a	ff 15 00 00 00
	00		 call	 DWORD PTR __imp_?IsEmpty@ioHashString@@QBE_NXZ
  00030	84 c0		 test	 al, al
  00032	0f 85 a3 00 00
	00		 jne	 $LN6@OpenManner@2

; 772  : 		return;
; 773  : 
; 774  : 	GuildChatWnd *pParent = dynamic_cast<GuildChatWnd*> ( m_pParent );

  00038	56		 push	 esi
  00039	53		 push	 ebx
  0003a	68 00 00 00 00	 push	 OFFSET ??_R0?AVGuildChatWnd@@@8
  0003f	be 00 00 00 00	 mov	 esi, OFFSET ??_R0?AVioWnd@@@8
  00044	56		 push	 esi
  00045	53		 push	 ebx
  00046	ff 77 40	 push	 DWORD PTR [edi+64]
  00049	e8 00 00 00 00	 call	 ___RTDynamicCast
  0004e	83 c4 14	 add	 esp, 20			; 00000014H

; 775  : 	if( !pParent ) return;

  00051	85 c0		 test	 eax, eax
  00053	0f 84 81 00 00
	00		 je	 $LN8@OpenManner@2

; 776  : 
; 777  : 	MannerValuationParentWnd *pMannerWnd = dynamic_cast<MannerValuationParentWnd*>(g_GUIMgr.FindWnd( MANNER_VALUATION_WND ));

  00059	53		 push	 ebx
  0005a	68 00 00 00 00	 push	 OFFSET ??_R0?AVMannerValuationParentWnd@@@8
  0005f	56		 push	 esi
  00060	53		 push	 ebx
  00061	68 8e 17 00 00	 push	 6030			; 0000178eH
  00066	e8 00 00 00 00	 call	 ?GetSingleton@ioSP2GUIManager@@SAAAV1@XZ ; ioSP2GUIManager::GetSingleton
  0006b	8b c8		 mov	 ecx, eax
  0006d	ff 15 00 00 00
	00		 call	 DWORD PTR __imp_?FindWnd@ioGUIManager@@QAEPAVioWnd@@K@Z
  00073	50		 push	 eax
  00074	e8 00 00 00 00	 call	 ___RTDynamicCast
  00079	8b f0		 mov	 esi, eax
  0007b	83 c4 14	 add	 esp, 20			; 00000014H

; 778  : 	if( !pMannerWnd ) return;

  0007e	3b f3		 cmp	 esi, ebx
  00080	74 58		 je	 SHORT $LN8@OpenManner@2

; 779  : 
; 780  : 	if( !pMannerWnd->IsOpenState( pInfo->m_szID ) )

  00082	ff 75 fc	 push	 DWORD PTR tv196[ebp]
  00085	8b 06		 mov	 eax, DWORD PTR [esi]
  00087	8b ce		 mov	 ecx, esi
  00089	ff 90 34 01 00
	00		 call	 DWORD PTR [eax+308]

; 781  : 	{
; 782  : 		g_GUIMgr.SetMsgBox( MB_OK, NULL, STR(1) );

  0008f	53		 push	 ebx
  00090	84 c0		 test	 al, al
  00092	75 2d		 jne	 SHORT $LN1@OpenManner@2
  00094	6a 01		 push	 1
  00096	68 00 00 00 00	 push	 OFFSET ??_C@_00CNPNBAHC@?$AA@
  0009b	68 00 00 00 00	 push	 OFFSET ??_C@_0CA@NLMHPGIL@GuildLineChatWnd?3?3OpenMannerWnd?$AA@
  000a0	ff 15 00 00 00
	00		 call	 DWORD PTR __imp_?GetSingleton@ioStringManager@@SAAAV1@XZ
  000a6	8b c8		 mov	 ecx, eax
  000a8	ff 15 00 00 00
	00		 call	 DWORD PTR __imp_?GetString@ioStringManager@@QAEPADPBD0HW4FileNamePrefix@1@@Z
  000ae	50		 push	 eax
  000af	53		 push	 ebx
  000b0	53		 push	 ebx
  000b1	e8 00 00 00 00	 call	 ?GetSingleton@ioSP2GUIManager@@SAAAV1@XZ ; ioSP2GUIManager::GetSingleton
  000b6	50		 push	 eax
  000b7	e8 00 00 00 00	 call	 ?SetMsgBox@ioSP2GUIManager@@QAAXHPAVioWnd@@PBDZZ ; ioSP2GUIManager::SetMsgBox
  000bc	83 c4 10	 add	 esp, 16			; 00000010H

; 783  : 		return;

  000bf	eb 19		 jmp	 SHORT $LN8@OpenManner@2
$LN1@OpenManner@2:

; 784  : 	}
; 785  : 	pMannerWnd->SetMannerValuationInfo( pInfo->m_szID , true, ioMannerTrialChatManager::TT_GUILD_CHAT );

  000c1	8b 06		 mov	 eax, DWORD PTR [esi]
  000c3	6a 05		 push	 5
  000c5	6a 01		 push	 1
  000c7	ff 75 fc	 push	 DWORD PTR tv196[ebp]
  000ca	8b ce		 mov	 ecx, esi
  000cc	ff 90 30 01 00
	00		 call	 DWORD PTR [eax+304]

; 786  : 	pMannerWnd->ShowWnd();

  000d2	8b ce		 mov	 ecx, esi
  000d4	ff 15 00 00 00
	00		 call	 DWORD PTR __imp_?ShowWnd@ioWnd@@QAEXXZ
$LN8@OpenManner@2:
  000da	5e		 pop	 esi
$LN6@OpenManner@2:
  000db	5f		 pop	 edi
  000dc	5b		 pop	 ebx

; 787  : }

  000dd	c9		 leave
  000de	c3		 ret	 0
?OpenMannerWnd@GuildLineChatWnd@@QAEXXZ ENDP		; GuildLineChatWnd::OpenMannerWnd
_TEXT	ENDS
PUBLIC	??_7GuildChatWnd@@6B@				; GuildChatWnd::`vftable'
PUBLIC	??0GuildChatWnd@@QAE@XZ				; GuildChatWnd::GuildChatWnd
PUBLIC	??_R4GuildChatWnd@@6B@				; GuildChatWnd::`RTTI Complete Object Locator'
PUBLIC	??_R3GuildChatWnd@@8				; GuildChatWnd::`RTTI Class Hierarchy Descriptor'
PUBLIC	??_R2GuildChatWnd@@8				; GuildChatWnd::`RTTI Base Class Array'
PUBLIC	??_R1A@?0A@EA@GuildChatWnd@@8			; GuildChatWnd::`RTTI Base Class Descriptor at (0,-1,0,64)'
PUBLIC	?OnRender@GuildChatWnd@@MAEXXZ			; GuildChatWnd::OnRender
PUBLIC	?OnProcess@GuildChatWnd@@MAEXM@Z		; GuildChatWnd::OnProcess
PUBLIC	?iwm_create@GuildChatWnd@@UAEXXZ		; GuildChatWnd::iwm_create
PUBLIC	?iwm_lbuttondown@GuildChatWnd@@UAEXABVioMouse@@@Z ; GuildChatWnd::iwm_lbuttondown
PUBLIC	?iwm_command@GuildChatWnd@@UAEXPAVioWnd@@HK@Z	; GuildChatWnd::iwm_command
PUBLIC	?iwm_vscroll@GuildChatWnd@@UAEXKH@Z		; GuildChatWnd::iwm_vscroll
PUBLIC	?iwm_wheel@GuildChatWnd@@UAEXH@Z		; GuildChatWnd::iwm_wheel
PUBLIC	?iwm_show@GuildChatWnd@@UAEXXZ			; GuildChatWnd::iwm_show
PUBLIC	?iwm_hide@GuildChatWnd@@UAEXXZ			; GuildChatWnd::iwm_hide
EXTRN	??_EGuildChatWnd@@UAEPAXI@Z:PROC		; GuildChatWnd::`vector deleting destructor'
;	COMDAT ??_R1A@?0A@EA@GuildChatWnd@@8
rdata$r	SEGMENT
??_R1A@?0A@EA@GuildChatWnd@@8 DD FLAT:??_R0?AVGuildChatWnd@@@8 ; GuildChatWnd::`RTTI Base Class Descriptor at (0,-1,0,64)'
	DD	01H
	DD	00H
	DD	0ffffffffH
	DD	00H
	DD	040H
	DD	FLAT:??_R3GuildChatWnd@@8
rdata$r	ENDS
;	COMDAT ??_R2GuildChatWnd@@8
rdata$r	SEGMENT
??_R2GuildChatWnd@@8 DD FLAT:??_R1A@?0A@EA@GuildChatWnd@@8 ; GuildChatWnd::`RTTI Base Class Array'
	DD	FLAT:??_R1A@?0A@EA@ioWnd@@8
rdata$r	ENDS
;	COMDAT ??_R3GuildChatWnd@@8
rdata$r	SEGMENT
??_R3GuildChatWnd@@8 DD 00H				; GuildChatWnd::`RTTI Class Hierarchy Descriptor'
	DD	00H
	DD	02H
	DD	FLAT:??_R2GuildChatWnd@@8
rdata$r	ENDS
;	COMDAT ??_R4GuildChatWnd@@6B@
rdata$r	SEGMENT
??_R4GuildChatWnd@@6B@ DD 00H				; GuildChatWnd::`RTTI Complete Object Locator'
	DD	00H
	DD	00H
	DD	FLAT:??_R0?AVGuildChatWnd@@@8
	DD	FLAT:??_R3GuildChatWnd@@8
rdata$r	ENDS
;	COMDAT ??_7GuildChatWnd@@6B@
CONST	SEGMENT
??_7GuildChatWnd@@6B@ DD FLAT:??_R4GuildChatWnd@@6B@	; GuildChatWnd::`vftable'
	DD	FLAT:?AddRenderFrame@ioWnd@@UAEXABVioHashString@@PAVioUIRenderFrame@@@Z
	DD	FLAT:?AddRenderImage@ioWnd@@UAEXABVioHashString@@PAVioUIRenderImage@@@Z
	DD	FLAT:?AddTooltipHelp@ioWnd@@UAEXABVioHashString@@00@Z
	DD	FLAT:?ParseExtraInfo@ioWnd@@UAEXAAVioXMLElement@@@Z
	DD	FLAT:?AddNamedRenderImage@ioWnd@@UAEXABVioHashString@@PAVioUIRenderImage@@@Z
	DD	FLAT:?RemoveNamedRenderImage@ioWnd@@UAEXABVioHashString@@@Z
	DD	FLAT:?GetNamedRenderImage@ioWnd@@UBEPAVioUIRenderImage@@ABVioHashString@@@Z
	DD	FLAT:?SetWindowAlpha@ioWnd@@UAEXH@Z
	DD	FLAT:?SetActive@ioWnd@@UAEXXZ
	DD	FLAT:?SetInActive@ioWnd@@UAEXXZ
	DD	FLAT:?ClearElementImageList@ioWnd@@UAEXXZ
	DD	FLAT:?SetSize@ioWnd@@UAEXHH@Z
	DD	FLAT:?SetPositionToDefault@ioWnd@@UAEXHH_N0@Z
	DD	FLAT:?IsNeedProcess@ioWnd@@UBE_NXZ
	DD	FLAT:?IsCanMouseReaction@ioWnd@@UBE_NXZ
	DD	FLAT:?AddChild@ioWnd@@UAEXPAV1@@Z
	DD	FLAT:?DeleteChild@ioWnd@@UAEXK@Z
	DD	FLAT:?DeleteAllChild@ioWnd@@UAEXXZ
	DD	FLAT:?OnRenderShowAndHide@ioWnd@@MAE_NXZ
	DD	FLAT:?OnRenderShowAndHideByDefault@ioWnd@@MAE_NK@Z
	DD	FLAT:?OnRenderShowAndHideByTop@ioWnd@@MAE_NK@Z
	DD	FLAT:?OnRenderShowAndHideByDown@ioWnd@@MAE_NK@Z
	DD	FLAT:?OnRender@GuildChatWnd@@MAEXXZ
	DD	FLAT:?OnRenderAfterChild@ioWnd@@MAEXXZ
	DD	FLAT:?OnProcess@GuildChatWnd@@MAEXM@Z
	DD	FLAT:?OnMouseProcess@ioWnd@@MAEXABVioMouse@@@Z
	DD	FLAT:?CheckFrameReSize@ioWnd@@MAEXHHHH@Z
	DD	FLAT:?RenderImageList@ioWnd@@MAEXHHW4UIRenderType@@@Z
	DD	FLAT:?iwm_create@GuildChatWnd@@UAEXXZ
	DD	FLAT:?iwm_destroy@ioWnd@@UAEXXZ
	DD	FLAT:?iwm_lbuttondown@GuildChatWnd@@UAEXABVioMouse@@@Z
	DD	FLAT:?iwm_lbuttonup@ioWnd@@UAEXABVioMouse@@@Z
	DD	FLAT:?iwm_lbuttonDBLCLK@ioWnd@@UAEXABVioMouse@@@Z
	DD	FLAT:?iwm_rbuttondown@ioWnd@@UAEXABVioMouse@@@Z
	DD	FLAT:?iwm_rbuttonup@ioWnd@@UAEXABVioMouse@@@Z
	DD	FLAT:?iwm_command@GuildChatWnd@@UAEXPAVioWnd@@HK@Z
	DD	FLAT:?iwm_mouseover@ioWnd@@UAEXABVioMouse@@@Z
	DD	FLAT:?iwm_mousemove@ioWnd@@UAEXABVioMouse@@@Z
	DD	FLAT:?iwm_mouseleave@ioWnd@@UAEXABVioMouse@@@Z
	DD	FLAT:?iwm_vscroll@GuildChatWnd@@UAEXKH@Z
	DD	FLAT:?iwm_wheel@GuildChatWnd@@UAEXH@Z
	DD	FLAT:?iwm_show@GuildChatWnd@@UAEXXZ
	DD	FLAT:?iwm_hide@GuildChatWnd@@UAEXXZ
	DD	FLAT:?iwm_esc@ioWnd@@UAE_NXZ
	DD	FLAT:?iwm_spacebar@ioWnd@@UAE_NXZ
	DD	FLAT:?iwm_gototop@ioWnd@@UAEXXZ
	DD	FLAT:?iwm_dragenter@ioWnd@@UAE?AW4IWDropEffect@@PAVioDragItem@@ABVioMouse@@@Z
	DD	FLAT:?iwm_dragover@ioWnd@@UAE?AW4IWDropEffect@@PAVioDragItem@@ABVioMouse@@@Z
	DD	FLAT:?iwm_dragleave@ioWnd@@UAEXXZ
	DD	FLAT:?iwm_dropitem@ioWnd@@UAE_NPAVioDragItem@@ABVioMouse@@PAV1@@Z
	DD	FLAT:?iwm_dropdone@ioWnd@@UAEXPAVioDragItem@@PAV1@_N@Z
	DD	FLAT:?IsEXType@ioWnd@@UBE_NXZ
	DD	FLAT:?GetWndType@ioWnd@@UBEKXZ
	DD	FLAT:?RenderWnd@ioWnd@@UAEXXZ
	DD	FLAT:?SetIDEX@ioWnd@@UAEXAAK_N@Z
	DD	FLAT:?ParseXML@ioWnd@@UAEXAAVioXMLElement@@@Z
	DD	FLAT:?GetHeaderFileName@ioWnd@@UAEPBDXZ
	DD	FLAT:?GetTemplateName@ioWnd@@UAEPBDXZ
	DD	FLAT:?GetDefClassName@ioWnd@@UBEPBDXZ
	DD	FLAT:?_Clone@ioWnd@@UAEPAV1@XZ
	DD	FLAT:?Copy@ioWnd@@UAEXPAV1@@Z
	DD	FLAT:?Save@ioWnd@@UAE_NAAVioXMLElement@@@Z
	DD	FLAT:?SetSaveData@ioWnd@@UAEXAAVioXMLElement@@@Z
	DD	FLAT:?SetPosX@ioWnd@@UAEXH@Z
	DD	FLAT:?SetPosY@ioWnd@@UAEXH@Z
	DD	FLAT:?SetWidth@ioWnd@@UAEXH@Z
	DD	FLAT:?SetHeight@ioWnd@@UAEXH@Z
	DD	FLAT:?GetNumFixedRenderFrame@ioWnd@@UBEHXZ
	DD	FLAT:?GetFixedRenderFrameType@ioWnd@@UAEPBDH@Z
	DD	FLAT:?GetRenderFrame@ioWnd@@UAEPAPAVioUIRenderElement@@PBD@Z
	DD	FLAT:?GetNumFixedRenderImage@ioWnd@@UBEHXZ
	DD	FLAT:?GetFixedRenderImageType@ioWnd@@UAEPBDH@Z
	DD	FLAT:?GetRenderImage@ioWnd@@UAEPAPAVioUIRenderElement@@PBD@Z
	DD	FLAT:?AddEffect@ioWnd@@UAEXABVioHashString@@PAVioUI3DEffectRender@@@Z
	DD	FLAT:?GetEffect@ioWnd@@UAEPAVioUI3DEffectRender@@VioHashString@@@Z
	DD	FLAT:??_EGuildChatWnd@@UAEPAXI@Z
; Function compile flags: /Ogsp
CONST	ENDS
;	COMDAT ??0GuildChatWnd@@QAE@XZ
_TEXT	SEGMENT
??0GuildChatWnd@@QAE@XZ PROC				; GuildChatWnd::GuildChatWnd, COMDAT
; _this$ = ecx

; 791  : {

  00000	56		 push	 esi
  00001	8b f1		 mov	 esi, ecx
  00003	ff 15 00 00 00
	00		 call	 DWORD PTR __imp_??0ioWnd@@QAE@XZ
  00009	33 c0		 xor	 eax, eax

; 792  : 	m_iCurPage = 0;
; 793  : 
; 794  : 	m_iGuildUserFrame = 0;
; 795  : 	m_dwGuildUserTimer= 0;
; 796  : 	memset( m_szGuildUser, 0, sizeof( m_szGuildUser ) );

  0000b	68 00 08 00 00	 push	 2048			; 00000800H
  00010	50		 push	 eax
  00011	89 86 64 01 00
	00		 mov	 DWORD PTR [esi+356], eax
  00017	88 86 70 09 00
	00		 mov	 BYTE PTR [esi+2416], al
  0001d	89 86 60 01 00
	00		 mov	 DWORD PTR [esi+352], eax
  00023	89 86 68 01 00
	00		 mov	 DWORD PTR [esi+360], eax
  00029	89 86 6c 01 00
	00		 mov	 DWORD PTR [esi+364], eax
  0002f	8d 86 70 01 00
	00		 lea	 eax, DWORD PTR [esi+368]
  00035	50		 push	 eax
  00036	c7 06 00 00 00
	00		 mov	 DWORD PTR [esi], OFFSET ??_7GuildChatWnd@@6B@
  0003c	e8 00 00 00 00	 call	 _memset
  00041	83 c4 0c	 add	 esp, 12			; 0000000cH

; 797  : }

  00044	8b c6		 mov	 eax, esi
  00046	5e		 pop	 esi
  00047	c3		 ret	 0
??0GuildChatWnd@@QAE@XZ ENDP				; GuildChatWnd::GuildChatWnd
_TEXT	ENDS
PUBLIC	??1GuildChatWnd@@UAE@XZ				; GuildChatWnd::~GuildChatWnd
; Function compile flags: /Ogsp
;	COMDAT ??1GuildChatWnd@@UAE@XZ
_TEXT	SEGMENT
??1GuildChatWnd@@UAE@XZ PROC				; GuildChatWnd::~GuildChatWnd, COMDAT
; _this$ = ecx

; 800  : {

  00000	c7 01 00 00 00
	00		 mov	 DWORD PTR [ecx], OFFSET ??_7GuildChatWnd@@6B@

; 801  : }

  00006	ff 25 00 00 00
	00		 jmp	 DWORD PTR __imp_??1ioWnd@@UAE@XZ
??1GuildChatWnd@@UAE@XZ ENDP				; GuildChatWnd::~GuildChatWnd
; Function compile flags: /Ogsp
_TEXT	ENDS
;	COMDAT ?iwm_create@GuildChatWnd@@UAEXXZ
_TEXT	SEGMENT
?iwm_create@GuildChatWnd@@UAEXXZ PROC			; GuildChatWnd::iwm_create, COMDAT
; _this$ = ecx

; 805  : }

  00000	c3		 ret	 0
?iwm_create@GuildChatWnd@@UAEXXZ ENDP			; GuildChatWnd::iwm_create
; Function compile flags: /Ogsp
_TEXT	ENDS
;	COMDAT ?iwm_hide@GuildChatWnd@@UAEXXZ
_TEXT	SEGMENT
?iwm_hide@GuildChatWnd@@UAEXXZ PROC			; GuildChatWnd::iwm_hide, COMDAT
; _this$ = ecx

; 836  : {	

  00000	56		 push	 esi
  00001	57		 push	 edi

; 837  : 	ioEdit *pEdit = (ioEdit*)FindChildWnd( ID_EDIT_CHAT );

  00002	6a 04		 push	 4
  00004	8b f1		 mov	 esi, ecx
  00006	ff 15 00 00 00
	00		 call	 DWORD PTR __imp_?FindChildWnd@ioWnd@@QAEPAV1@K@Z
  0000c	8b f8		 mov	 edi, eax

; 838  : 	if( pEdit )

  0000e	85 ff		 test	 edi, edi
  00010	74 12		 je	 SHORT $LN7@iwm_hide@2

; 839  : 	{
; 840  : 		pEdit->ClearString();

  00012	8b cf		 mov	 ecx, edi
  00014	ff 15 00 00 00
	00		 call	 DWORD PTR __imp_?ClearString@ioEdit@@QAEXXZ

; 841  : 		pEdit->KillKeyFocus();		

  0001a	8b 07		 mov	 eax, DWORD PTR [edi]
  0001c	8b cf		 mov	 ecx, edi
  0001e	ff 90 34 01 00
	00		 call	 DWORD PTR [eax+308]
$LN7@iwm_hide@2:

; 842  : 	}
; 843  : 
; 844  : 	if( m_pPreEdit )	

  00024	8b 8e 64 01 00
	00		 mov	 ecx, DWORD PTR [esi+356]
  0002a	85 c9		 test	 ecx, ecx
  0002c	74 24		 je	 SHORT $LN4@iwm_hide@2

; 845  : 	{
; 846  : 		ioWnd *pParent = m_pPreEdit->GetParent();

  0002e	ff 15 00 00 00
	00		 call	 DWORD PTR __imp_?GetParent@ioWnd@@QAEPAV1@XZ

; 847  : 		if( pParent )

  00034	85 c0		 test	 eax, eax
  00036	74 1a		 je	 SHORT $LN4@iwm_hide@2

; 848  : 		{
; 849  : 			if( pParent->IsShow() )

  00038	8b c8		 mov	 ecx, eax
  0003a	ff 15 00 00 00
	00		 call	 DWORD PTR __imp_?IsShow@ioWnd@@QBE_NXZ
  00040	84 c0		 test	 al, al
  00042	74 0e		 je	 SHORT $LN4@iwm_hide@2

; 850  : 				((ioEdit*)m_pPreEdit)->SetKeyFocus();	

  00044	8b 8e 64 01 00
	00		 mov	 ecx, DWORD PTR [esi+356]
  0004a	8b 01		 mov	 eax, DWORD PTR [ecx]
  0004c	ff 90 30 01 00
	00		 call	 DWORD PTR [eax+304]
$LN4@iwm_hide@2:

; 851  : 		}
; 852  : 	}	
; 853  : 	m_pPreEdit = NULL;	

  00052	83 a6 64 01 00
	00 00		 and	 DWORD PTR [esi+356], 0

; 854  : 
; 855  : 	for(int i = ID_LINE_CHAT_WND_1;i < ID_LINE_CHAT_WND_1 + MAX_LIST_SIZE;i++)

  00059	6a 65		 push	 101			; 00000065H
  0005b	5f		 pop	 edi
$LL3@iwm_hide@2:

; 856  : 	{
; 857  : 		HideChildWnd( i );

  0005c	6a 00		 push	 0
  0005e	57		 push	 edi
  0005f	8b ce		 mov	 ecx, esi
  00061	ff 15 00 00 00
	00		 call	 DWORD PTR __imp_?HideChildWnd@ioWnd@@QAEXK_N@Z
  00067	47		 inc	 edi
  00068	83 ff 6f	 cmp	 edi, 111		; 0000006fH
  0006b	7c ef		 jl	 SHORT $LL3@iwm_hide@2

; 858  : 	}
; 859  : 
; 860  : 	m_bSettingScrollPos = false;

  0006d	5f		 pop	 edi
  0006e	c6 86 70 09 00
	00 00		 mov	 BYTE PTR [esi+2416], 0
  00075	5e		 pop	 esi

; 861  : }

  00076	c3		 ret	 0
?iwm_hide@GuildChatWnd@@UAEXXZ ENDP			; GuildChatWnd::iwm_hide
; Function compile flags: /Ogsp
_TEXT	ENDS
;	COMDAT ?iwm_vscroll@GuildChatWnd@@UAEXKH@Z
_TEXT	SEGMENT
_dwID$ = 8						; size = 4
_curPos$ = 12						; size = 4
?iwm_vscroll@GuildChatWnd@@UAEXKH@Z PROC		; GuildChatWnd::iwm_vscroll, COMDAT
; _this$ = ecx

; 864  : {

  00000	55		 push	 ebp
  00001	8b ec		 mov	 ebp, esp

; 865  : 	m_iCurPage = curPos;

  00003	8b 45 0c	 mov	 eax, DWORD PTR _curPos$[ebp]
  00006	89 81 60 01 00
	00		 mov	 DWORD PTR [ecx+352], eax

; 866  : }

  0000c	5d		 pop	 ebp
  0000d	c2 08 00	 ret	 8
?iwm_vscroll@GuildChatWnd@@UAEXKH@Z ENDP		; GuildChatWnd::iwm_vscroll
; Function compile flags: /Ogsp
_TEXT	ENDS
;	COMDAT ?iwm_wheel@GuildChatWnd@@UAEXH@Z
_TEXT	SEGMENT
_zDelta$ = 8						; size = 4
?iwm_wheel@GuildChatWnd@@UAEXH@Z PROC			; GuildChatWnd::iwm_wheel, COMDAT
; _this$ = ecx

; 869  : {

  00000	55		 push	 ebp
  00001	8b ec		 mov	 ebp, esp
  00003	56		 push	 esi
  00004	8b f1		 mov	 esi, ecx

; 870  : 	if( !IsShow() )

  00006	ff 15 00 00 00
	00		 call	 DWORD PTR __imp_?IsShow@ioWnd@@QBE_NXZ
  0000c	84 c0		 test	 al, al
  0000e	75 0d		 jne	 SHORT $LN7@iwm_wheel@2

; 871  : 		ioWnd::iwm_wheel( zDelta );

  00010	ff 75 08	 push	 DWORD PTR _zDelta$[ebp]
  00013	8b ce		 mov	 ecx, esi
  00015	ff 15 00 00 00
	00		 call	 DWORD PTR __imp_?iwm_wheel@ioWnd@@UAEXH@Z

; 872  : 	else

  0001b	eb 49		 jmp	 SHORT $LN1@iwm_wheel@2
$LN7@iwm_wheel@2:

; 873  : 	{ 
; 874  : 		// 휠 이벤트 처리를 했다면 부모로 이벤트를 날리지 않는다.
; 875  : 		if( zDelta == WHEEL_DELTA )

  0001d	83 7d 08 78	 cmp	 DWORD PTR _zDelta$[ebp], 120 ; 00000078H
  00021	75 1a		 jne	 SHORT $LN5@iwm_wheel@2

; 876  : 		{
; 877  : 			ioScroll *pScroll = (ioScroll*)FindChildWnd( ID_VERT_SCROLL );

  00023	68 e8 03 00 00	 push	 1000			; 000003e8H
  00028	8b ce		 mov	 ecx, esi
  0002a	ff 15 00 00 00
	00		 call	 DWORD PTR __imp_?FindChildWnd@ioWnd@@QAEPAV1@K@Z

; 878  : 			if( pScroll )

  00030	85 c0		 test	 eax, eax
  00032	74 32		 je	 SHORT $LN1@iwm_wheel@2

; 879  : 				pScroll->SetScrollPos( m_iCurPage - 1 );

  00034	8b 8e 60 01 00
	00		 mov	 ecx, DWORD PTR [esi+352]
  0003a	49		 dec	 ecx

; 880  : 		}

  0003b	eb 1e		 jmp	 SHORT $LN10@iwm_wheel@2
$LN5@iwm_wheel@2:

; 881  : 		else if( zDelta == -WHEEL_DELTA )

  0003d	83 7d 08 88	 cmp	 DWORD PTR _zDelta$[ebp], -120 ; ffffff88H
  00041	75 23		 jne	 SHORT $LN1@iwm_wheel@2

; 882  : 		{
; 883  : 			ioScroll *pScroll = (ioScroll*)FindChildWnd( ID_VERT_SCROLL );

  00043	68 e8 03 00 00	 push	 1000			; 000003e8H
  00048	8b ce		 mov	 ecx, esi
  0004a	ff 15 00 00 00
	00		 call	 DWORD PTR __imp_?FindChildWnd@ioWnd@@QAEPAV1@K@Z

; 884  : 			if( pScroll )

  00050	85 c0		 test	 eax, eax
  00052	74 12		 je	 SHORT $LN1@iwm_wheel@2

; 885  : 				pScroll->SetScrollPos( m_iCurPage + 1 );

  00054	8b 8e 60 01 00
	00		 mov	 ecx, DWORD PTR [esi+352]
  0005a	41		 inc	 ecx
$LN10@iwm_wheel@2:
  0005b	8b 10		 mov	 edx, DWORD PTR [eax]
  0005d	51		 push	 ecx
  0005e	8b c8		 mov	 ecx, eax
  00060	ff 92 38 01 00
	00		 call	 DWORD PTR [edx+312]
$LN1@iwm_wheel@2:
  00066	5e		 pop	 esi

; 886  : 		}
; 887  : 	}
; 888  : }

  00067	5d		 pop	 ebp
  00068	c2 04 00	 ret	 4
?iwm_wheel@GuildChatWnd@@UAEXH@Z ENDP			; GuildChatWnd::iwm_wheel
_TEXT	ENDS
PUBLIC	?IsChatBlock@GuildChatWnd@@QAE_NXZ		; GuildChatWnd::IsChatBlock
; Function compile flags: /Ogsp
;	COMDAT ?IsChatBlock@GuildChatWnd@@QAE_NXZ
_TEXT	SEGMENT
?IsChatBlock@GuildChatWnd@@QAE_NXZ PROC			; GuildChatWnd::IsChatBlock, COMDAT
; _this$ = ecx

; 958  : 	ioEdit *pEdit = (ioEdit *)FindChildWnd( ID_EDIT_CHAT );

  00000	6a 04		 push	 4
  00002	ff 15 00 00 00
	00		 call	 DWORD PTR __imp_?FindChildWnd@ioWnd@@QAEPAV1@K@Z

; 959  : 	if( pEdit == ioEdit::m_pKeyFocusEdit )

  00008	8b 0d 00 00 00
	00		 mov	 ecx, DWORD PTR __imp_?m_pKeyFocusEdit@ioEdit@@2PAV1@A
  0000e	3b 01		 cmp	 eax, DWORD PTR [ecx]
  00010	0f 94 c0	 sete	 al

; 960  : 		return true;
; 961  : 	return false;
; 962  : }

  00013	c3		 ret	 0
?IsChatBlock@GuildChatWnd@@QAE_NXZ ENDP			; GuildChatWnd::IsChatBlock
_TEXT	ENDS
PUBLIC	?SetChatFocus@GuildChatWnd@@QAEXXZ		; GuildChatWnd::SetChatFocus
; Function compile flags: /Ogsp
;	COMDAT ?SetChatFocus@GuildChatWnd@@QAEXXZ
_TEXT	SEGMENT
?SetChatFocus@GuildChatWnd@@QAEXXZ PROC			; GuildChatWnd::SetChatFocus, COMDAT
; _this$ = ecx

; 966  : 	ioEdit *pEdit = (ioEdit *)FindChildWnd( ID_EDIT_CHAT );

  00000	6a 04		 push	 4
  00002	ff 15 00 00 00
	00		 call	 DWORD PTR __imp_?FindChildWnd@ioWnd@@QAEPAV1@K@Z

; 967  : 	if( !pEdit ) return;

  00008	85 c0		 test	 eax, eax
  0000a	74 14		 je	 SHORT $LN3@SetChatFoc@2

; 968  : 	if( pEdit == ioEdit::m_pKeyFocusEdit ) return;

  0000c	8b 0d 00 00 00
	00		 mov	 ecx, DWORD PTR __imp_?m_pKeyFocusEdit@ioEdit@@2PAV1@A
  00012	3b 01		 cmp	 eax, DWORD PTR [ecx]
  00014	74 0a		 je	 SHORT $LN3@SetChatFoc@2

; 969  : 
; 970  : 	pEdit->SetKeyFocus();

  00016	8b 10		 mov	 edx, DWORD PTR [eax]
  00018	8b c8		 mov	 ecx, eax
  0001a	ff a2 30 01 00
	00		 jmp	 DWORD PTR [edx+304]
$LN3@SetChatFoc@2:

; 971  : }

  00020	c3		 ret	 0
?SetChatFocus@GuildChatWnd@@QAEXXZ ENDP			; GuildChatWnd::SetChatFocus
_TEXT	ENDS
PUBLIC	__$ArrayPad$
PUBLIC	?ProcessGuildUser@GuildChatWnd@@IAEXXZ		; GuildChatWnd::ProcessGuildUser
EXTRN	?GetUserNameA@ioGuildChatMgr@@QAEXPADH@Z:PROC	; ioGuildChatMgr::GetUserNameA
; Function compile flags: /Ogsp
;	COMDAT ?ProcessGuildUser@GuildChatWnd@@IAEXXZ
_TEXT	SEGMENT
tv166 = -6152						; size = 4
_szDoubleUser$ = -6148					; size = 4096
_szGuildUser$ = -2052					; size = 2048
__$ArrayPad$ = -4					; size = 4
?ProcessGuildUser@GuildChatWnd@@IAEXXZ PROC		; GuildChatWnd::ProcessGuildUser, COMDAT
; _this$ = ecx

; 1072 : {

  00000	55		 push	 ebp
  00001	8b ec		 mov	 ebp, esp
  00003	b8 08 18 00 00	 mov	 eax, 6152		; 00001808H
  00008	e8 00 00 00 00	 call	 __chkstk
  0000d	a1 00 00 00 00	 mov	 eax, DWORD PTR ___security_cookie
  00012	33 c5		 xor	 eax, ebp
  00014	89 45 fc	 mov	 DWORD PTR __$ArrayPad$[ebp], eax
  00017	56		 push	 esi
  00018	57		 push	 edi

; 1073 : 	if( FRAMEGETTIME() - m_dwGuildUserTimer < 300 )

  00019	8b 3d 00 00 00
	00		 mov	 edi, DWORD PTR __imp_?GetSingleton@ioFrameTimer@@SAAAV1@XZ
  0001f	8b f1		 mov	 esi, ecx
  00021	ff d7		 call	 edi
  00023	8b c8		 mov	 ecx, eax
  00025	ff 15 00 00 00
	00		 call	 DWORD PTR __imp_?GetLoopSec@ioFrameTimer@@QBEKXZ
  0002b	2b 86 6c 01 00
	00		 sub	 eax, DWORD PTR [esi+364]
  00031	3d 2c 01 00 00	 cmp	 eax, 300		; 0000012cH
  00036	0f 82 4f 01 00
	00		 jb	 $LN6@ProcessGui

; 1074 : 		return;
; 1075 : 
; 1076 : 	m_dwGuildUserTimer = FRAMEGETTIME();

  0003c	53		 push	 ebx
  0003d	ff d7		 call	 edi
  0003f	8b c8		 mov	 ecx, eax
  00041	ff 15 00 00 00
	00		 call	 DWORD PTR __imp_?GetLoopSec@ioFrameTimer@@QBEKXZ

; 1077 : 
; 1078 : 	float fScale = FONT_SIZE_12;
; 1079 : 	float fWidhtSize = 208.0f;
; 1080 : 
; 1081 : 	char szGuildUser[2048] = "";
; 1082 : 	memset( szGuildUser, 0, sizeof( szGuildUser ) );

  00047	bf 00 08 00 00	 mov	 edi, 2048		; 00000800H
  0004c	57		 push	 edi
  0004d	89 86 6c 01 00
	00		 mov	 DWORD PTR [esi+364], eax
  00053	33 db		 xor	 ebx, ebx
  00055	8d 85 fc f7 ff
	ff		 lea	 eax, DWORD PTR _szGuildUser$[ebp]
  0005b	53		 push	 ebx
  0005c	50		 push	 eax
  0005d	e8 00 00 00 00	 call	 _memset
  00062	83 c4 0c	 add	 esp, 12			; 0000000cH

; 1083 : 	g_GuildChatMgr.GetUserName( szGuildUser, 2000 );

  00065	8d 85 fc f7 ff
	ff		 lea	 eax, DWORD PTR _szGuildUser$[ebp]
  0006b	68 d0 07 00 00	 push	 2000			; 000007d0H
  00070	50		 push	 eax
  00071	e8 00 00 00 00	 call	 ?GetSingleton@ioGuildChatMgr@@SAAAV1@XZ ; ioGuildChatMgr::GetSingleton
  00076	8b c8		 mov	 ecx, eax
  00078	e8 00 00 00 00	 call	 ?GetUserNameA@ioGuildChatMgr@@QAEXPADH@Z ; ioGuildChatMgr::GetUserNameA

; 1084 : 
; 1085 : 	if( g_FontMgr.GetTextWidth( szGuildUser, TS_NORMAL, fScale ) < fWidhtSize )

  0007d	f3 0f 10 05 00
	00 00 00	 movss	 xmm0, DWORD PTR __real@3f19999a
  00085	53		 push	 ebx
  00086	51		 push	 ecx
  00087	f3 0f 11 04 24	 movss	 DWORD PTR [esp], xmm0
  0008c	8d 85 fc f7 ff
	ff		 lea	 eax, DWORD PTR _szGuildUser$[ebp]
  00092	53		 push	 ebx
  00093	50		 push	 eax
  00094	ff 15 00 00 00
	00		 call	 DWORD PTR __imp_?GetSingleton@ioFontManager@@SAAAV1@XZ
  0009a	8b c8		 mov	 ecx, eax
  0009c	ff 15 00 00 00
	00		 call	 DWORD PTR __imp_?GetTextWidth@ioFontManager@@QAEMPBDW4TextStyle@@MH@Z
  000a2	dd 05 00 00 00
	00		 fld	 QWORD PTR __real@406a000000000000
  000a8	df f1		 fcomip	 ST(1)
  000aa	dd d8		 fstp	 ST(0)
  000ac	76 39		 jbe	 SHORT $LN4@ProcessGui

; 1086 : 	{
; 1087 : 		memset( m_szGuildUser, 0, sizeof( m_szGuildUser ) );

  000ae	57		 push	 edi
  000af	81 c6 70 01 00
	00		 add	 esi, 368		; 00000170H
  000b5	53		 push	 ebx
  000b6	56		 push	 esi
  000b7	e8 00 00 00 00	 call	 _memset

; 1088 : 		memcpy( m_szGuildUser, szGuildUser, strlen( szGuildUser ) );

  000bc	8d 85 fc f7 ff
	ff		 lea	 eax, DWORD PTR _szGuildUser$[ebp]
  000c2	83 c4 0c	 add	 esp, 12			; 0000000cH
  000c5	8d 78 01	 lea	 edi, DWORD PTR [eax+1]
$LL8@ProcessGui:
  000c8	8a 08		 mov	 cl, BYTE PTR [eax]
  000ca	40		 inc	 eax
  000cb	3a cb		 cmp	 cl, bl
  000cd	75 f9		 jne	 SHORT $LL8@ProcessGui
  000cf	2b c7		 sub	 eax, edi
  000d1	50		 push	 eax
  000d2	8d 85 fc f7 ff
	ff		 lea	 eax, DWORD PTR _szGuildUser$[ebp]
  000d8	50		 push	 eax
  000d9	56		 push	 esi
  000da	e8 00 00 00 00	 call	 _memcpy
  000df	83 c4 0c	 add	 esp, 12			; 0000000cH

; 1089 : 		return;

  000e2	e9 a3 00 00 00	 jmp	 $LN10@ProcessGui
$LN4@ProcessGui:

; 1090 : 	}
; 1091 : 
; 1092 : 	int iMaxLen = strlen( szGuildUser );

  000e7	8d 85 fc f7 ff
	ff		 lea	 eax, DWORD PTR _szGuildUser$[ebp]
  000ed	8d 50 01	 lea	 edx, DWORD PTR [eax+1]
$LL9@ProcessGui:
  000f0	8a 08		 mov	 cl, BYTE PTR [eax]
  000f2	40		 inc	 eax
  000f3	3a cb		 cmp	 cl, bl
  000f5	75 f9		 jne	 SHORT $LL9@ProcessGui
  000f7	2b c2		 sub	 eax, edx

; 1093 : 	char szDoubleUser[4096] = "";

  000f9	68 ff 0f 00 00	 push	 4095			; 00000fffH
  000fe	89 85 f8 e7 ff
	ff		 mov	 DWORD PTR tv166[ebp], eax
  00104	8d 85 fd e7 ff
	ff		 lea	 eax, DWORD PTR _szDoubleUser$[ebp+1]
  0010a	53		 push	 ebx
  0010b	50		 push	 eax
  0010c	88 9d fc e7 ff
	ff		 mov	 BYTE PTR _szDoubleUser$[ebp], bl
  00112	e8 00 00 00 00	 call	 _memset

; 1094 : 	sprintf( szDoubleUser, "%s/ %s", szGuildUser, szGuildUser );

  00117	8d 85 fc f7 ff
	ff		 lea	 eax, DWORD PTR _szGuildUser$[ebp]
  0011d	50		 push	 eax
  0011e	50		 push	 eax
  0011f	8d 85 fc e7 ff
	ff		 lea	 eax, DWORD PTR _szDoubleUser$[ebp]
  00125	68 00 00 00 00	 push	 OFFSET ??_C@_06KLJHPAAA@?$CFs?1?5?$CFs?$AA@
  0012a	50		 push	 eax
  0012b	ff 15 00 00 00
	00		 call	 DWORD PTR __imp__sprintf

; 1095 : 
; 1096 : 	if( m_iGuildUserFrame >= iMaxLen )

  00131	8b 8d f8 e7 ff
	ff		 mov	 ecx, DWORD PTR tv166[ebp]
  00137	83 c4 1c	 add	 esp, 28			; 0000001cH
  0013a	39 8e 68 01 00
	00		 cmp	 DWORD PTR [esi+360], ecx
  00140	7c 06		 jl	 SHORT $LN3@ProcessGui

; 1097 : 		m_iGuildUserFrame = 0;

  00142	89 9e 68 01 00
	00		 mov	 DWORD PTR [esi+360], ebx
$LN3@ProcessGui:

; 1098 : 
; 1099 : #if defined( SRC_OVERSEAS ) && !defined( SRC_ID )
; 1100 : 
; 1101 : #if defined( MULTI_BYTE_CHECK )
; 1102 : 	if( IsDBCSLeadByteEx( COUNTRY_CODE_PAGE, (BYTE)szDoubleUser[m_iGuildUserFrame] ) )	
; 1103 : #else
; 1104 : 	if( false && IsDBCSLeadByteEx( COUNTRY_CODE_PAGE, (BYTE)szDoubleUser[m_iGuildUserFrame] ) )
; 1105 : #endif
; 1106 : 
; 1107 : #else
; 1108 : 	if( IsDBCSLeadByte( (BYTE)szDoubleUser[m_iGuildUserFrame] ) )
; 1109 : #endif
; 1110 : 
; 1111 : 		m_iGuildUserFrame+=2;
; 1112 : 	else 
; 1113 : 		m_iGuildUserFrame+=1;

  00148	ff 86 68 01 00
	00		 inc	 DWORD PTR [esi+360]
  0014e	8b 86 68 01 00
	00		 mov	 eax, DWORD PTR [esi+360]

; 1114 : 
; 1115 : 	Help::StringCutFun( fScale, fWidhtSize, TS_NORMAL, m_szGuildUser, sizeof(m_szGuildUser), &szDoubleUser[m_iGuildUserFrame] );

  00154	f3 0f 10 05 00
	00 00 00	 movss	 xmm0, DWORD PTR __real@43500000
  0015c	8d 84 05 fc e7
	ff ff		 lea	 eax, DWORD PTR _szDoubleUser$[ebp+eax]
  00163	50		 push	 eax
  00164	57		 push	 edi
  00165	81 c6 70 01 00
	00		 add	 esi, 368		; 00000170H
  0016b	56		 push	 esi
  0016c	53		 push	 ebx
  0016d	51		 push	 ecx
  0016e	51		 push	 ecx
  0016f	f3 0f 11 44 24
	04		 movss	 DWORD PTR [esp+4], xmm0
  00175	f3 0f 10 05 00
	00 00 00	 movss	 xmm0, DWORD PTR __real@3f19999a
  0017d	f3 0f 11 04 24	 movss	 DWORD PTR [esp], xmm0
  00182	e8 00 00 00 00	 call	 ?StringCutFun@Help@@YAHMMHPADHPBD@Z ; Help::StringCutFun
  00187	83 c4 18	 add	 esp, 24			; 00000018H
$LN10@ProcessGui:
  0018a	5b		 pop	 ebx
$LN6@ProcessGui:

; 1116 : }

  0018b	8b 4d fc	 mov	 ecx, DWORD PTR __$ArrayPad$[ebp]
  0018e	5f		 pop	 edi
  0018f	33 cd		 xor	 ecx, ebp
  00191	5e		 pop	 esi
  00192	e8 00 00 00 00	 call	 @__security_check_cookie@4
  00197	c9		 leave
  00198	c3		 ret	 0
?ProcessGuildUser@GuildChatWnd@@IAEXXZ ENDP		; GuildChatWnd::ProcessGuildUser
_TEXT	ENDS
PUBLIC	??_C@_0BH@OGFKLKEA@GuildChatWnd?3?3OnRender?$AA@ ; `string'
EXTRN	?GetUserSize@ioGuildChatMgr@@QAEHXZ:PROC	; ioGuildChatMgr::GetUserSize
;	COMDAT ??_C@_0BH@OGFKLKEA@GuildChatWnd?3?3OnRender?$AA@
CONST	SEGMENT
??_C@_0BH@OGFKLKEA@GuildChatWnd?3?3OnRender?$AA@ DB 'GuildChatWnd::OnRend'
	DB	'er', 00H					; `string'
; Function compile flags: /Ogsp
CONST	ENDS
;	COMDAT ?OnRender@GuildChatWnd@@MAEXXZ
_TEXT	SEGMENT
_iXPos$ = -8						; size = 4
_iYPos$ = -4						; size = 4
?OnRender@GuildChatWnd@@MAEXXZ PROC			; GuildChatWnd::OnRender, COMDAT
; _this$ = ecx

; 1119 : {

  00000	55		 push	 ebp
  00001	8b ec		 mov	 ebp, esp
  00003	51		 push	 ecx
  00004	51		 push	 ecx
  00005	53		 push	 ebx
  00006	56		 push	 esi
  00007	57		 push	 edi
  00008	8b f9		 mov	 edi, ecx

; 1120 : 	ioWnd::OnRender();	

  0000a	ff 15 00 00 00
	00		 call	 DWORD PTR __imp_?OnRender@ioWnd@@MAEXXZ

; 1121 : 
; 1122 : 	int iXPos = GetDerivedPosX();

  00010	8b cf		 mov	 ecx, edi
  00012	ff 15 00 00 00
	00		 call	 DWORD PTR __imp_?GetDerivedPosX@ioWnd@@QBEHXZ

; 1123 : 	int iYPos = GetDerivedPosY();

  00018	8b cf		 mov	 ecx, edi
  0001a	89 45 f8	 mov	 DWORD PTR _iXPos$[ebp], eax
  0001d	ff 15 00 00 00
	00		 call	 DWORD PTR __imp_?GetDerivedPosY@ioWnd@@QBEHXZ

; 1124 : 
; 1125 : 	g_FontMgr.SetTextStyle( TS_NORMAL );

  00023	8b 35 00 00 00
	00		 mov	 esi, DWORD PTR __imp_?GetSingleton@ioFontManager@@SAAAV1@XZ
  00029	33 db		 xor	 ebx, ebx
  0002b	53		 push	 ebx
  0002c	89 45 fc	 mov	 DWORD PTR _iYPos$[ebp], eax
  0002f	ff d6		 call	 esi
  00031	8b c8		 mov	 ecx, eax
  00033	ff 15 00 00 00
	00		 call	 DWORD PTR __imp_?SetTextStyle@ioFontManager@@QAEXW4TextStyle@@@Z

; 1126 : 	g_FontMgr.SetBkColor( 0, 0, 0 );

  00039	53		 push	 ebx
  0003a	53		 push	 ebx
  0003b	53		 push	 ebx
  0003c	ff d6		 call	 esi
  0003e	8b c8		 mov	 ecx, eax
  00040	ff 15 00 00 00
	00		 call	 DWORD PTR __imp_?SetBkColor@ioFontManager@@QAEXHHH@Z

; 1127 : 	g_FontMgr.SetAlignType( TAT_LEFT );

  00046	53		 push	 ebx
  00047	ff d6		 call	 esi
  00049	8b c8		 mov	 ecx, eax
  0004b	ff 15 00 00 00
	00		 call	 DWORD PTR __imp_?SetAlignType@ioFontManager@@QAEXW4TextAlignType@@@Z

; 1128 : 
; 1129 : 	g_FontMgr.SetTextColor( TCT_DEFAULT_DARKGRAY );

  00051	68 3a 3a 3a ff	 push	 -12961222		; ff3a3a3aH
  00056	ff d6		 call	 esi
  00058	8b c8		 mov	 ecx, eax
  0005a	ff 15 00 00 00
	00		 call	 DWORD PTR __imp_?SetTextColor@ioFontManager@@QAEXK@Z

; 1130 : 	g_FontMgr.PrintText( iXPos + 23, iYPos + 4, FONT_SIZE_12, STR(1), g_GuildChatMgr.GetUserSize(), m_szGuildUser );

  00060	81 c7 70 01 00
	00		 add	 edi, 368		; 00000170H
  00066	57		 push	 edi
  00067	e8 00 00 00 00	 call	 ?GetSingleton@ioGuildChatMgr@@SAAAV1@XZ ; ioGuildChatMgr::GetSingleton
  0006c	8b c8		 mov	 ecx, eax
  0006e	e8 00 00 00 00	 call	 ?GetUserSize@ioGuildChatMgr@@QAEHXZ ; ioGuildChatMgr::GetUserSize
  00073	50		 push	 eax
  00074	53		 push	 ebx
  00075	6a 01		 push	 1
  00077	68 00 00 00 00	 push	 OFFSET ??_C@_00CNPNBAHC@?$AA@
  0007c	68 00 00 00 00	 push	 OFFSET ??_C@_0BH@OGFKLKEA@GuildChatWnd?3?3OnRender?$AA@
  00081	ff 15 00 00 00
	00		 call	 DWORD PTR __imp_?GetSingleton@ioStringManager@@SAAAV1@XZ
  00087	8b c8		 mov	 ecx, eax
  00089	ff 15 00 00 00
	00		 call	 DWORD PTR __imp_?GetString@ioStringManager@@QAEPADPBD0HW4FileNamePrefix@1@@Z
  0008f	f3 0f 10 05 00
	00 00 00	 movss	 xmm0, DWORD PTR __real@3f19999a
  00097	50		 push	 eax
  00098	8b 45 fc	 mov	 eax, DWORD PTR _iYPos$[ebp]
  0009b	83 ec 0c	 sub	 esp, 12			; 0000000cH
  0009e	f3 0f 11 44 24
	08		 movss	 DWORD PTR [esp+8], xmm0
  000a4	83 c0 04	 add	 eax, 4
  000a7	0f 57 c0	 xorps	 xmm0, xmm0
  000aa	f3 0f 2a c0	 cvtsi2ss xmm0, eax
  000ae	8b 45 f8	 mov	 eax, DWORD PTR _iXPos$[ebp]
  000b1	f3 0f 11 44 24
	04		 movss	 DWORD PTR [esp+4], xmm0
  000b7	83 c0 17	 add	 eax, 23			; 00000017H
  000ba	0f 57 c0	 xorps	 xmm0, xmm0
  000bd	f3 0f 2a c0	 cvtsi2ss xmm0, eax
  000c1	f3 0f 11 04 24	 movss	 DWORD PTR [esp], xmm0
  000c6	ff d6		 call	 esi
  000c8	8b c8		 mov	 ecx, eax
  000ca	ff 15 00 00 00
	00		 call	 DWORD PTR __imp_?PrintText@ioFontManager@@QAEXMMMPBDH0@Z
  000d0	5f		 pop	 edi
  000d1	5e		 pop	 esi
  000d2	5b		 pop	 ebx

; 1131 : }

  000d3	c9		 leave
  000d4	c3		 ret	 0
?OnRender@GuildChatWnd@@MAEXXZ ENDP			; GuildChatWnd::OnRender
_TEXT	ENDS
PUBLIC	?size@?$vector@PAUtagChatInfo@@V?$allocator@PAUtagChatInfo@@@std@@@std@@QBEIXZ ; std::vector<tagChatInfo *,std::allocator<tagChatInfo *> >::size
; Function compile flags: /Ogsp
; File c:\program files (x86)\microsoft visual studio 10.0\vc\include\vector
;	COMDAT ?size@?$vector@PAUtagChatInfo@@V?$allocator@PAUtagChatInfo@@@std@@@std@@QBEIXZ
_TEXT	SEGMENT
?size@?$vector@PAUtagChatInfo@@V?$allocator@PAUtagChatInfo@@@std@@@std@@QBEIXZ PROC ; std::vector<tagChatInfo *,std::allocator<tagChatInfo *> >::size, COMDAT
; _this$ = ecx

; 879  : 		return (this->_Mylast - this->_Myfirst);

  00000	8b 41 04	 mov	 eax, DWORD PTR [ecx+4]
  00003	2b 01		 sub	 eax, DWORD PTR [ecx]
  00005	c1 f8 02	 sar	 eax, 2

; 880  : 		}

  00008	c3		 ret	 0
?size@?$vector@PAUtagChatInfo@@V?$allocator@PAUtagChatInfo@@@std@@@std@@QBEIXZ ENDP ; std::vector<tagChatInfo *,std::allocator<tagChatInfo *> >::size
; Function compile flags: /Ogsp
; File c:\program files (x86)\microsoft sdks\windows\v7.0a\include\strsafe.h
_TEXT	ENDS
;	COMDAT ?StringValidateDestA@@YGJPBDII@Z
_TEXT	SEGMENT
_cchMax$ = 8						; size = 4
?StringValidateDestA@@YGJPBDII@Z PROC			; StringValidateDestA, COMDAT
; _cchDest$ = ecx

; 8721 : {

  00000	55		 push	 ebp
  00001	8b ec		 mov	 ebp, esp

; 8722 :     HRESULT hr = S_OK;

  00003	33 c0		 xor	 eax, eax

; 8723 : 
; 8724 :     if ((cchDest == 0) || (cchDest > cchMax))

  00005	85 c9		 test	 ecx, ecx
  00007	74 05		 je	 SHORT $LN1@StringVali
  00009	3b 4d 08	 cmp	 ecx, DWORD PTR _cchMax$[ebp]
  0000c	76 05		 jbe	 SHORT $LN2@StringVali
$LN1@StringVali:

; 8725 :     {
; 8726 :         hr = STRSAFE_E_INVALID_PARAMETER;

  0000e	b8 57 00 07 80	 mov	 eax, -2147024809	; 80070057H
$LN2@StringVali:

; 8727 :     }
; 8728 : 
; 8729 :     return hr;
; 8730 : }

  00013	5d		 pop	 ebp
  00014	c2 04 00	 ret	 4
?StringValidateDestA@@YGJPBDII@Z ENDP			; StringValidateDestA
; Function compile flags: /Ogsp
_TEXT	ENDS
;	COMDAT ?StringCopyWorkerA@@YGJPADIPAIPBDI@Z
_TEXT	SEGMENT
_hr$ = -4						; size = 4
_pcchNewDestLength$ = 8					; size = 4
_pszSrc$ = 12						; size = 4
_cchToCopy$ = 16					; size = 4
?StringCopyWorkerA@@YGJPADIPAIPBDI@Z PROC		; StringCopyWorkerA, COMDAT
; _pszDest$ = ecx
; _cchDest$ = eax

; 8947 : {

  00000	55		 push	 ebp
  00001	8b ec		 mov	 ebp, esp
  00003	51		 push	 ecx

; 8948 :     HRESULT hr = S_OK;

  00004	83 65 fc 00	 and	 DWORD PTR _hr$[ebp], 0
  00008	57		 push	 edi
  00009	8b f8		 mov	 edi, eax

; 8949 :     size_t cchNewDestLength = 0;

  0000b	33 c0		 xor	 eax, eax

; 8950 :     
; 8951 :     // ASSERT(cchDest != 0);
; 8952 : 
; 8953 :     while (cchDest && cchToCopy && (*pszSrc != '\0'))

  0000d	85 ff		 test	 edi, edi
  0000f	74 23		 je	 SHORT $LN9@StringCopy

; 8948 :     HRESULT hr = S_OK;

  00011	53		 push	 ebx
  00012	8b 5d 10	 mov	 ebx, DWORD PTR _cchToCopy$[ebp]
  00015	56		 push	 esi

; 8950 :     
; 8951 :     // ASSERT(cchDest != 0);
; 8952 : 
; 8953 :     while (cchDest && cchToCopy && (*pszSrc != '\0'))

  00016	8b 75 0c	 mov	 esi, DWORD PTR _pszSrc$[ebp]
  00019	2b f1		 sub	 esi, ecx
$LL4@StringCopy:
  0001b	85 db		 test	 ebx, ebx
  0001d	74 0f		 je	 SHORT $LN11@StringCopy
  0001f	8a 14 0e	 mov	 dl, BYTE PTR [esi+ecx]
  00022	84 d2		 test	 dl, dl
  00024	74 08		 je	 SHORT $LN11@StringCopy

; 8954 :     {
; 8955 :         *pszDest++ = *pszSrc++;

  00026	88 11		 mov	 BYTE PTR [ecx], dl
  00028	41		 inc	 ecx

; 8956 :         cchDest--;

  00029	4b		 dec	 ebx

; 8957 :         cchToCopy--;
; 8958 : 
; 8959 :         cchNewDestLength++;

  0002a	40		 inc	 eax
  0002b	4f		 dec	 edi
  0002c	75 ed		 jne	 SHORT $LL4@StringCopy
$LN11@StringCopy:
  0002e	5e		 pop	 esi
  0002f	5b		 pop	 ebx

; 8960 :     }
; 8961 : 
; 8962 :     if (cchDest == 0)

  00030	85 ff		 test	 edi, edi
  00032	75 09		 jne	 SHORT $LN2@StringCopy
$LN9@StringCopy:

; 8963 :     {
; 8964 :         // we are going to truncate pszDest
; 8965 :         pszDest--;

  00034	49		 dec	 ecx

; 8966 :         cchNewDestLength--;

  00035	48		 dec	 eax

; 8967 : 
; 8968 :         hr = STRSAFE_E_INSUFFICIENT_BUFFER;

  00036	c7 45 fc 7a 00
	07 80		 mov	 DWORD PTR _hr$[ebp], -2147024774 ; 8007007aH
$LN2@StringCopy:

; 8969 :     }
; 8970 : 
; 8971 :     *pszDest = '\0';

  0003d	c6 01 00	 mov	 BYTE PTR [ecx], 0

; 8972 : 
; 8973 :     if (pcchNewDestLength)

  00040	8b 4d 08	 mov	 ecx, DWORD PTR _pcchNewDestLength$[ebp]
  00043	5f		 pop	 edi
  00044	85 c9		 test	 ecx, ecx
  00046	74 02		 je	 SHORT $LN1@StringCopy

; 8974 :     {
; 8975 :         *pcchNewDestLength = cchNewDestLength;

  00048	89 01		 mov	 DWORD PTR [ecx], eax
$LN1@StringCopy:

; 8976 :     }
; 8977 : 
; 8978 :     return hr;

  0004a	8b 45 fc	 mov	 eax, DWORD PTR _hr$[ebp]

; 8979 : }

  0004d	c9		 leave
  0004e	c2 0c 00	 ret	 12			; 0000000cH
?StringCopyWorkerA@@YGJPADIPAIPBDI@Z ENDP		; StringCopyWorkerA
_TEXT	ENDS
PUBLIC	?GetFullWidth@ioComplexStringPrinter@@QBEMXZ	; ioComplexStringPrinter::GetFullWidth
; Function compile flags: /Ogsp
; File d:\lost saga for developer\youtube\tutorial\source\src\lsclient\iocomplexstringprinter.h
;	COMDAT ?GetFullWidth@ioComplexStringPrinter@@QBEMXZ
_TEXT	SEGMENT
?GetFullWidth@ioComplexStringPrinter@@QBEMXZ PROC	; ioComplexStringPrinter::GetFullWidth, COMDAT
; _this$ = ecx

; 125  : 	inline float GetFullWidth() const { return m_fFullWidth; }

  00000	d9 41 1c	 fld	 DWORD PTR [ecx+28]
  00003	c3		 ret	 0
?GetFullWidth@ioComplexStringPrinter@@QBEMXZ ENDP	; ioComplexStringPrinter::GetFullWidth
_TEXT	ENDS
PUBLIC	?IsSlangFilterOther@Setting@@SA_NXZ		; Setting::IsSlangFilterOther
EXTRN	?m_Option@Setting@@1USettingOption@@A:BYTE	; Setting::m_Option
; Function compile flags: /Ogsp
; File d:\lost saga for developer\youtube\tutorial\source\src\lsclient\setting.h
;	COMDAT ?IsSlangFilterOther@Setting@@SA_NXZ
_TEXT	SEGMENT
?IsSlangFilterOther@Setting@@SA_NXZ PROC		; Setting::IsSlangFilterOther, COMDAT

; 344  : 	static bool IsSlangFilterOther() { return m_Option.m_bSlangFilterOther; }

  00000	a0 60 00 00 00	 mov	 al, BYTE PTR ?m_Option@Setting@@1USettingOption@@A+96
  00005	c3		 ret	 0
?IsSlangFilterOther@Setting@@SA_NXZ ENDP		; Setting::IsSlangFilterOther
_TEXT	ENDS
PUBLIC	?GetMouse@ioApplication@@QAEPAVioLSMouse@@XZ	; ioApplication::GetMouse
; Function compile flags: /Ogsp
; File d:\lost saga for developer\youtube\tutorial\source\src\lsclient\ioapplication.h
;	COMDAT ?GetMouse@ioApplication@@QAEPAVioLSMouse@@XZ
_TEXT	SEGMENT
?GetMouse@ioApplication@@QAEPAVioLSMouse@@XZ PROC	; ioApplication::GetMouse, COMDAT
; _this$ = ecx

; 796  : 	inline ioLSMouse* GetMouse(){ return &m_Mouse;	}

  00000	8d 81 90 00 00
	00		 lea	 eax, DWORD PTR [ecx+144]
  00006	c3		 ret	 0
?GetMouse@ioApplication@@QAEPAVioLSMouse@@XZ ENDP	; ioApplication::GetMouse
_TEXT	ENDS
PUBLIC	?GetPublicID@ioMyInfo@@QBEABVioHashString@@XZ	; ioMyInfo::GetPublicID
; Function compile flags: /Ogsp
; File d:\lost saga for developer\youtube\tutorial\source\src\lsclient\iomyinfo.h
;	COMDAT ?GetPublicID@ioMyInfo@@QBEABVioHashString@@XZ
_TEXT	SEGMENT
?GetPublicID@ioMyInfo@@QBEABVioHashString@@XZ PROC	; ioMyInfo::GetPublicID, COMDAT
; _this$ = ecx

; 517  : 	const ioHashString& GetPublicID() const { return m_user_data.m_public_id; }    

  00000	8d 41 1c	 lea	 eax, DWORD PTR [ecx+28]
  00003	c3		 ret	 0
?GetPublicID@ioMyInfo@@QBEABVioHashString@@XZ ENDP	; ioMyInfo::GetPublicID
_TEXT	ENDS
PUBLIC	?GetGuildIndex@ioGuildInfo@@QAEKXZ		; ioGuildInfo::GetGuildIndex
; Function compile flags: /Ogsp
; File d:\lost saga for developer\youtube\tutorial\source\src\lsclient\ioguildinfo.h
;	COMDAT ?GetGuildIndex@ioGuildInfo@@QAEKXZ
_TEXT	SEGMENT
?GetGuildIndex@ioGuildInfo@@QAEKXZ PROC			; ioGuildInfo::GetGuildIndex, COMDAT
; _this$ = ecx

; 302  : 	inline DWORD GetGuildIndex(){ return m_dwGuildIndex; }

  00000	8b 81 90 00 00
	00		 mov	 eax, DWORD PTR [ecx+144]
  00006	c3		 ret	 0
?GetGuildIndex@ioGuildInfo@@QAEKXZ ENDP			; ioGuildInfo::GetGuildIndex
_TEXT	ENDS
PUBLIC	?GetChatInfoSize@ChannelNode@@QAEHXZ		; ChannelNode::GetChatInfoSize
; Function compile flags: /Ogsp
; File d:\lost saga for developer\youtube\tutorial\source\src\lsclient\gui\iochannelmanager.h
;	COMDAT ?GetChatInfoSize@ChannelNode@@QAEHXZ
_TEXT	SEGMENT
?GetChatInfoSize@ChannelNode@@QAEHXZ PROC		; ChannelNode::GetChatInfoSize, COMDAT
; _this$ = ecx

; 53   : 	int  GetChatInfoSize(){ return m_vChatInfo.size(); }

  00000	8b 41 30	 mov	 eax, DWORD PTR [ecx+48]
  00003	2b 41 2c	 sub	 eax, DWORD PTR [ecx+44]
  00006	c1 f8 02	 sar	 eax, 2
  00009	c3		 ret	 0
?GetChatInfoSize@ChannelNode@@QAEHXZ ENDP		; ChannelNode::GetChatInfoSize
_TEXT	ENDS
PUBLIC	?GetChatInfoSize@ioGuildChatMgr@@QAEHXZ		; ioGuildChatMgr::GetChatInfoSize
; Function compile flags: /Ogsp
; File d:\lost saga for developer\youtube\tutorial\source\src\lsclient\ioguildchatmgr.h
;	COMDAT ?GetChatInfoSize@ioGuildChatMgr@@QAEHXZ
_TEXT	SEGMENT
?GetChatInfoSize@ioGuildChatMgr@@QAEHXZ PROC		; ioGuildChatMgr::GetChatInfoSize, COMDAT
; _this$ = ecx

; 24   : 	int  GetChatInfoSize(){ return m_vChatInfo.size(); }

  00000	8b 41 08	 mov	 eax, DWORD PTR [ecx+8]
  00003	2b 41 04	 sub	 eax, DWORD PTR [ecx+4]
  00006	c1 f8 02	 sar	 eax, 2
  00009	c3		 ret	 0
?GetChatInfoSize@ioGuildChatMgr@@QAEHXZ ENDP		; ioGuildChatMgr::GetChatInfoSize
_TEXT	ENDS
EXTRN	??3@YAXPAX@Z:PROC				; operator delete
; Function compile flags: /Ogsp
;	COMDAT ??_GLineChatWnd@@UAEPAXI@Z
_TEXT	SEGMENT
___flags$ = 8						; size = 4
??_GLineChatWnd@@UAEPAXI@Z PROC				; LineChatWnd::`scalar deleting destructor', COMDAT
; _this$ = ecx
  00000	55		 push	 ebp
  00001	8b ec		 mov	 ebp, esp
  00003	56		 push	 esi
  00004	8b f1		 mov	 esi, ecx
  00006	e8 00 00 00 00	 call	 ??1LineChatWnd@@UAE@XZ	; LineChatWnd::~LineChatWnd
  0000b	f6 45 08 01	 test	 BYTE PTR ___flags$[ebp], 1
  0000f	74 07		 je	 SHORT $LN1@scalar
  00011	56		 push	 esi
  00012	e8 00 00 00 00	 call	 ??3@YAXPAX@Z		; operator delete
  00017	59		 pop	 ecx
$LN1@scalar:
  00018	8b c6		 mov	 eax, esi
  0001a	5e		 pop	 esi
  0001b	5d		 pop	 ebp
  0001c	c2 04 00	 ret	 4
??_GLineChatWnd@@UAEPAXI@Z ENDP				; LineChatWnd::`scalar deleting destructor'
_TEXT	ENDS
PUBLIC	__$ArrayPad$
PUBLIC	?IsBigBtnOver@LineChatWnd@@QAE_NXZ		; LineChatWnd::IsBigBtnOver
EXTRN	__imp__PtInRect@12:PROC
EXTRN	__imp_?GetHeight@ioWnd@@QBEHXZ:PROC
EXTRN	__imp_?GetMousePos@ioMouse@@QBEABUtagPOINT@@XZ:PROC
EXTRN	?GetSingleton@ioApplication@@SAAAV1@XZ:PROC	; ioApplication::GetSingleton
; Function compile flags: /Ogsp
; File d:\lost saga for developer\youtube\tutorial\source\src\lsclient\gui\channelchatwnd.cpp
;	COMDAT ?IsBigBtnOver@LineChatWnd@@QAE_NXZ
_TEXT	SEGMENT
_ptCheckPos$ = -28					; size = 8
_rcRect$ = -20						; size = 16
__$ArrayPad$ = -4					; size = 4
?IsBigBtnOver@LineChatWnd@@QAE_NXZ PROC			; LineChatWnd::IsBigBtnOver, COMDAT
; _this$ = ecx

; 94   : {

  00000	55		 push	 ebp
  00001	8b ec		 mov	 ebp, esp
  00003	83 ec 1c	 sub	 esp, 28			; 0000001cH
  00006	a1 00 00 00 00	 mov	 eax, DWORD PTR ___security_cookie
  0000b	33 c5		 xor	 eax, ebp
  0000d	89 45 fc	 mov	 DWORD PTR __$ArrayPad$[ebp], eax
  00010	56		 push	 esi
  00011	8b f1		 mov	 esi, ecx

; 95   : 	if( !IsShow() ) return false;

  00013	ff 15 00 00 00
	00		 call	 DWORD PTR __imp_?IsShow@ioWnd@@QBE_NXZ
  00019	84 c0		 test	 al, al
  0001b	75 07		 jne	 SHORT $LN5@IsBigBtnOv
$LN14@IsBigBtnOv:
  0001d	32 c0		 xor	 al, al
  0001f	e9 ab 00 00 00	 jmp	 $LN1@IsBigBtnOv
$LN5@IsBigBtnOv:

; 96   : 	
; 97   : 	ChannelNode *pNode = g_ChannelManager.GetNodeIndex( m_iChannelIdx );

  00024	ff b6 60 01 00
	00		 push	 DWORD PTR [esi+352]
  0002a	e8 00 00 00 00	 call	 ?GetSingleton@ioChannelManager@@SAAAV1@XZ ; ioChannelManager::GetSingleton
  0002f	8b c8		 mov	 ecx, eax
  00031	e8 00 00 00 00	 call	 ?GetNodeIndex@ioChannelManager@@QAEPAVChannelNode@@H@Z ; ioChannelManager::GetNodeIndex

; 98   : 	if( pNode == NULL )

  00036	85 c0		 test	 eax, eax

; 99   : 		return false;

  00038	74 e3		 je	 SHORT $LN14@IsBigBtnOv

; 100  : 	ChatInfo *pInfo = pNode->GetChatInfo( m_iChatInfoArray );

  0003a	57		 push	 edi
  0003b	ff b6 64 01 00
	00		 push	 DWORD PTR [esi+356]
  00041	8b c8		 mov	 ecx, eax
  00043	e8 00 00 00 00	 call	 ?GetChatInfo@ChannelNode@@QAEPAUtagChatInfo@@H@Z ; ChannelNode::GetChatInfo
  00048	8b f8		 mov	 edi, eax

; 101  : 	if( pInfo == NULL ) 

  0004a	85 ff		 test	 edi, edi

; 102  : 		return false;

  0004c	74 0d		 je	 SHORT $LN13@IsBigBtnOv

; 103  : 	if( pInfo->m_szID.IsEmpty() )

  0004e	8d 4f 40	 lea	 ecx, DWORD PTR [edi+64]
  00051	ff 15 00 00 00
	00		 call	 DWORD PTR __imp_?IsEmpty@ioHashString@@QBE_NXZ
  00057	84 c0		 test	 al, al
  00059	74 04		 je	 SHORT $LN2@IsBigBtnOv
$LN13@IsBigBtnOv:

; 104  : 		return false;

  0005b	32 c0		 xor	 al, al
  0005d	eb 6f		 jmp	 SHORT $LN12@IsBigBtnOv
$LN2@IsBigBtnOv:
  0005f	53		 push	 ebx

; 105  : 
; 106  : 	POINT ptCheckPos = g_App.GetMouse()->GetMousePos();

  00060	e8 00 00 00 00	 call	 ?GetSingleton@ioApplication@@SAAAV1@XZ ; ioApplication::GetSingleton
  00065	8d 88 90 00 00
	00		 lea	 ecx, DWORD PTR [eax+144]
  0006b	ff 15 00 00 00
	00		 call	 DWORD PTR __imp_?GetMousePos@ioMouse@@QBEABUtagPOINT@@XZ
  00071	8b 18		 mov	 ebx, DWORD PTR [eax]
  00073	8b 40 04	 mov	 eax, DWORD PTR [eax+4]

; 107  : 	RECT  rcRect;
; 108  : 	rcRect.left  = GetDerivedPosX();

  00076	8b ce		 mov	 ecx, esi
  00078	89 45 e8	 mov	 DWORD PTR _ptCheckPos$[ebp+4], eax
  0007b	ff 15 00 00 00
	00		 call	 DWORD PTR __imp_?GetDerivedPosX@ioWnd@@QBEHXZ
  00081	89 45 ec	 mov	 DWORD PTR _rcRect$[ebp], eax

; 109  : 	rcRect.right = rcRect.left + pInfo->m_Printer.GetFullWidth();

  00084	f3 0f 10 47 1c	 movss	 xmm0, DWORD PTR [edi+28]
  00089	0f 57 c9	 xorps	 xmm1, xmm1
  0008c	f3 0f 2a c8	 cvtsi2ss xmm1, eax
  00090	0f 5a c0	 cvtps2pd xmm0, xmm0
  00093	0f 5a c9	 cvtps2pd xmm1, xmm1
  00096	f2 0f 58 c1	 addsd	 xmm0, xmm1
  0009a	f2 0f 2c c0	 cvttsd2si eax, xmm0

; 110  : 	rcRect.top   = GetDerivedPosY();

  0009e	8b ce		 mov	 ecx, esi
  000a0	89 45 f4	 mov	 DWORD PTR _rcRect$[ebp+8], eax
  000a3	ff 15 00 00 00
	00		 call	 DWORD PTR __imp_?GetDerivedPosY@ioWnd@@QBEHXZ

; 111  : 	rcRect.bottom= rcRect.top + GetHeight();

  000a9	8b ce		 mov	 ecx, esi
  000ab	89 45 f0	 mov	 DWORD PTR _rcRect$[ebp+4], eax
  000ae	ff 15 00 00 00
	00		 call	 DWORD PTR __imp_?GetHeight@ioWnd@@QBEHXZ
  000b4	03 45 f0	 add	 eax, DWORD PTR _rcRect$[ebp+4]

; 112  : 
; 113  : 	if( ::PtInRect( &rcRect, ptCheckPos ) )

  000b7	ff 75 e8	 push	 DWORD PTR _ptCheckPos$[ebp+4]
  000ba	89 45 f8	 mov	 DWORD PTR _rcRect$[ebp+12], eax
  000bd	53		 push	 ebx
  000be	8d 45 ec	 lea	 eax, DWORD PTR _rcRect$[ebp]
  000c1	50		 push	 eax
  000c2	ff 15 00 00 00
	00		 call	 DWORD PTR __imp__PtInRect@12
  000c8	85 c0		 test	 eax, eax
  000ca	0f 95 c0	 setne	 al
  000cd	5b		 pop	 ebx
$LN12@IsBigBtnOv:
  000ce	5f		 pop	 edi
$LN1@IsBigBtnOv:

; 114  : 		return true;	
; 115  : 	return false;
; 116  : }

  000cf	8b 4d fc	 mov	 ecx, DWORD PTR __$ArrayPad$[ebp]
  000d2	33 cd		 xor	 ecx, ebp
  000d4	5e		 pop	 esi
  000d5	e8 00 00 00 00	 call	 @__security_check_cookie@4
  000da	c9		 leave
  000db	c3		 ret	 0
?IsBigBtnOver@LineChatWnd@@QAE_NXZ ENDP			; LineChatWnd::IsBigBtnOver
_TEXT	ENDS
EXTRN	__imp_?IsLBtnUp@ioMouse@@QBE_NXZ:PROC
; Function compile flags: /Ogsp
;	COMDAT ?OnProcess@LineChatWnd@@MAEXM@Z
_TEXT	SEGMENT
_fTimePerSec$ = 8					; size = 4
?OnProcess@LineChatWnd@@MAEXM@Z PROC			; LineChatWnd::OnProcess, COMDAT
; _this$ = ecx

; 119  : {

  00000	56		 push	 esi
  00001	8b f1		 mov	 esi, ecx

; 120  : 	if( !IsShow() ) return;

  00003	ff 15 00 00 00
	00		 call	 DWORD PTR __imp_?IsShow@ioWnd@@QBE_NXZ
  00009	84 c0		 test	 al, al
  0000b	74 27		 je	 SHORT $LN1@OnProcess

; 121  : 
; 122  : 	if( IsBigBtnOver() )

  0000d	8b ce		 mov	 ecx, esi
  0000f	e8 00 00 00 00	 call	 ?IsBigBtnOver@LineChatWnd@@QAE_NXZ ; LineChatWnd::IsBigBtnOver
  00014	84 c0		 test	 al, al
  00016	74 1c		 je	 SHORT $LN1@OnProcess

; 123  : 	{
; 124  : 		ioLSMouse *pMouse = g_App.GetMouse();

  00018	e8 00 00 00 00	 call	 ?GetSingleton@ioApplication@@SAAAV1@XZ ; ioApplication::GetSingleton
  0001d	8d 88 90 00 00
	00		 lea	 ecx, DWORD PTR [eax+144]

; 125  : 		if( pMouse->IsLBtnUp() )

  00023	ff 15 00 00 00
	00		 call	 DWORD PTR __imp_?IsLBtnUp@ioMouse@@QBE_NXZ
  00029	84 c0		 test	 al, al
  0002b	74 07		 je	 SHORT $LN1@OnProcess

; 126  : 		{
; 127  : 			OpenMannerWnd();

  0002d	8b ce		 mov	 ecx, esi
  0002f	e8 00 00 00 00	 call	 ?OpenMannerWnd@LineChatWnd@@QAEXXZ ; LineChatWnd::OpenMannerWnd
$LN1@OnProcess:
  00034	5e		 pop	 esi

; 128  : 		}
; 129  : 	}
; 130  : }

  00035	c2 04 00	 ret	 4
?OnProcess@LineChatWnd@@MAEXM@Z ENDP			; LineChatWnd::OnProcess
; Function compile flags: /Ogsp
_TEXT	ENDS
;	COMDAT ??_GChannelChatWnd@@UAEPAXI@Z
_TEXT	SEGMENT
___flags$ = 8						; size = 4
??_GChannelChatWnd@@UAEPAXI@Z PROC			; ChannelChatWnd::`scalar deleting destructor', COMDAT
; _this$ = ecx
  00000	55		 push	 ebp
  00001	8b ec		 mov	 ebp, esp
  00003	56		 push	 esi
  00004	8b f1		 mov	 esi, ecx
  00006	e8 00 00 00 00	 call	 ??1ChannelChatWnd@@UAE@XZ ; ChannelChatWnd::~ChannelChatWnd
  0000b	f6 45 08 01	 test	 BYTE PTR ___flags$[ebp], 1
  0000f	74 07		 je	 SHORT $LN1@scalar@2
  00011	56		 push	 esi
  00012	e8 00 00 00 00	 call	 ??3@YAXPAX@Z		; operator delete
  00017	59		 pop	 ecx
$LN1@scalar@2:
  00018	8b c6		 mov	 eax, esi
  0001a	5e		 pop	 esi
  0001b	5d		 pop	 ebp
  0001c	c2 04 00	 ret	 4
??_GChannelChatWnd@@UAEPAXI@Z ENDP			; ChannelChatWnd::`scalar deleting destructor'
_TEXT	ENDS
EXTRN	__imp_?iwm_lbuttondown@ioWnd@@UAEXABVioMouse@@@Z:PROC
; Function compile flags: /Ogsp
;	COMDAT ?iwm_lbuttondown@ChannelChatWnd@@UAEXABVioMouse@@@Z
_TEXT	SEGMENT
_mouse$ = 8						; size = 4
?iwm_lbuttondown@ChannelChatWnd@@UAEXABVioMouse@@@Z PROC ; ChannelChatWnd::iwm_lbuttondown, COMDAT
; _this$ = ecx

; 252  : {

  00000	55		 push	 ebp
  00001	8b ec		 mov	 ebp, esp
  00003	56		 push	 esi

; 253  : 	ioWnd::iwm_lbuttondown( mouse );

  00004	ff 75 08	 push	 DWORD PTR _mouse$[ebp]
  00007	8b f1		 mov	 esi, ecx
  00009	ff 15 00 00 00
	00		 call	 DWORD PTR __imp_?iwm_lbuttondown@ioWnd@@UAEXABVioMouse@@@Z

; 254  : 	SetChatFocus();

  0000f	8b ce		 mov	 ecx, esi
  00011	e8 00 00 00 00	 call	 ?SetChatFocus@ChannelChatWnd@@QAEXXZ ; ChannelChatWnd::SetChatFocus
  00016	5e		 pop	 esi

; 255  : }

  00017	5d		 pop	 ebp
  00018	c2 04 00	 ret	 4
?iwm_lbuttondown@ChannelChatWnd@@UAEXABVioMouse@@@Z ENDP ; ChannelChatWnd::iwm_lbuttondown
_TEXT	ENDS
PUBLIC	?SetScrollSetting@ChannelChatWnd@@IAEX_N@Z	; ChannelChatWnd::SetScrollSetting
EXTRN	__imp_?GetCurPos@ioScroll@@QBEHXZ:PROC
EXTRN	__imp_?GetMaxPos@ioScroll@@QBEHXZ:PROC
; Function compile flags: /Ogsp
;	COMDAT ?SetScrollSetting@ChannelChatWnd@@IAEX_N@Z
_TEXT	SEGMENT
_bSettingScrollPos$ = 8					; size = 1
?SetScrollSetting@ChannelChatWnd@@IAEX_N@Z PROC		; ChannelChatWnd::SetScrollSetting, COMDAT
; _this$ = ecx

; 276  : {

  00000	55		 push	 ebp
  00001	8b ec		 mov	 ebp, esp
  00003	56		 push	 esi
  00004	57		 push	 edi

; 277  : 	ioScroll *pScroll = (ioScroll*)FindChildWnd( ID_VERT_SCROLL );

  00005	68 e8 03 00 00	 push	 1000			; 000003e8H
  0000a	8b f1		 mov	 esi, ecx
  0000c	ff 15 00 00 00
	00		 call	 DWORD PTR __imp_?FindChildWnd@ioWnd@@QAEPAV1@K@Z
  00012	8b f8		 mov	 edi, eax

; 278  : 	if( pScroll )

  00014	85 ff		 test	 edi, edi
  00016	74 55		 je	 SHORT $LN2@SetScrollS

; 279  : 	{
; 280  : 		ChannelNode *pNode = g_ChannelManager.GetNodeIndex( m_iChannelIdx );

  00018	ff b6 64 01 00
	00		 push	 DWORD PTR [esi+356]
  0001e	e8 00 00 00 00	 call	 ?GetSingleton@ioChannelManager@@SAAAV1@XZ ; ioChannelManager::GetSingleton
  00023	8b c8		 mov	 ecx, eax
  00025	e8 00 00 00 00	 call	 ?GetNodeIndex@ioChannelManager@@QAEPAVChannelNode@@H@Z ; ioChannelManager::GetNodeIndex

; 281  : 		if( pNode )

  0002a	85 c0		 test	 eax, eax
  0002c	74 3f		 je	 SHORT $LN2@SetScrollS

; 282  : 		{
; 283  : 			int iTotalList = pNode->GetChatInfoSize();

  0002e	8b 70 30	 mov	 esi, DWORD PTR [eax+48]
  00031	2b 70 2c	 sub	 esi, DWORD PTR [eax+44]
  00034	53		 push	 ebx

; 284  : 			int iBeforMaxPos = pScroll->GetMaxPos();

  00035	8b cf		 mov	 ecx, edi
  00037	c1 fe 02	 sar	 esi, 2
  0003a	ff 15 00 00 00
	00		 call	 DWORD PTR __imp_?GetMaxPos@ioScroll@@QBEHXZ

; 285  : 			pScroll->SetScrollRange( 0, iTotalList );

  00040	56		 push	 esi
  00041	8b d8		 mov	 ebx, eax
  00043	8b 07		 mov	 eax, DWORD PTR [edi]
  00045	6a 00		 push	 0
  00047	8b cf		 mov	 ecx, edi
  00049	ff 90 30 01 00
	00		 call	 DWORD PTR [eax+304]

; 286  : 			if ( pScroll->GetCurPos() == iBeforMaxPos || bSettingScrollPos )

  0004f	8b cf		 mov	 ecx, edi
  00051	ff 15 00 00 00
	00		 call	 DWORD PTR __imp_?GetCurPos@ioScroll@@QBEHXZ
  00057	3b c3		 cmp	 eax, ebx
  00059	5b		 pop	 ebx
  0005a	74 06		 je	 SHORT $LN1@SetScrollS
  0005c	80 7d 08 00	 cmp	 BYTE PTR _bSettingScrollPos$[ebp], 0
  00060	74 0b		 je	 SHORT $LN2@SetScrollS
$LN1@SetScrollS:

; 287  : 				pScroll->SetScrollPos( iTotalList );

  00062	8b 07		 mov	 eax, DWORD PTR [edi]
  00064	56		 push	 esi
  00065	8b cf		 mov	 ecx, edi
  00067	ff 90 38 01 00
	00		 call	 DWORD PTR [eax+312]
$LN2@SetScrollS:
  0006d	5f		 pop	 edi
  0006e	5e		 pop	 esi

; 288  : 		}		
; 289  : 	}
; 290  : }

  0006f	5d		 pop	 ebp
  00070	c2 04 00	 ret	 4
?SetScrollSetting@ChannelChatWnd@@IAEX_N@Z ENDP		; ChannelChatWnd::SetScrollSetting
_TEXT	ENDS
PUBLIC	??_C@_0BJ@BCGIDNCC@ChannelChatWnd?3?3OnInvite?$AA@ ; `string'
PUBLIC	__$ArrayPad$
PUBLIC	?OnInvite@ChannelChatWnd@@IAEXPAD@Z		; ChannelChatWnd::OnInvite
EXTRN	??1SP2Packet@@UAE@XZ:PROC			; SP2Packet::~SP2Packet
EXTRN	?SendToServer@TCPNetwork@@YAXAAVSP2Packet@@@Z:PROC ; TCPNetwork::SendToServer
EXTRN	??6SP2Packet@@QAEAAV0@ABVioHashString@@@Z:PROC	; SP2Packet::operator<<
EXTRN	??6SP2Packet@@QAEAAV0@H@Z:PROC			; SP2Packet::operator<<
EXTRN	??0SP2Packet@@QAE@K@Z:PROC			; SP2Packet::SP2Packet
EXTRN	__imp_??9ioHashString@@QBE_NABV0@@Z:PROC
EXTRN	?MouseBusy@TCPNetwork@@YAX_N@Z:PROC		; TCPNetwork::MouseBusy
EXTRN	?IsChannelUser@ChannelNode@@QAE_NVioHashString@@@Z:PROC ; ChannelNode::IsChannelUser
EXTRN	__imp_??0ioHashString@@QAE@ABV0@@Z:PROC
EXTRN	?GetBlockType@ioMyInfo@@QBE?AW4BlockType@@XZ:PROC ; ioMyInfo::GetBlockType
EXTRN	?IsAdminID@ioApplication@@QAE_NPBD@Z:PROC	; ioApplication::IsAdminID
EXTRN	__imp_??8ioHashString@@QBE_NABV0@@Z:PROC
EXTRN	?GetSingleton@ioMyInfo@@SAAAV1@XZ:PROC		; ioMyInfo::GetSingleton
;	COMDAT ??_C@_0BJ@BCGIDNCC@ChannelChatWnd?3?3OnInvite?$AA@
; File d:\lost saga for developer\youtube\tutorial\source\src\lsclient\gui\iochannelmanager.h
CONST	SEGMENT
??_C@_0BJ@BCGIDNCC@ChannelChatWnd?3?3OnInvite?$AA@ DB 'ChannelChatWnd::On'
	DB	'Invite', 00H				; `string'
CONST	ENDS
;	COMDAT xdata$x
xdata$x	SEGMENT
__unwindtable$?OnInvite@ChannelChatWnd@@IAEXPAD@Z DD 0ffffffffH
	DD	FLAT:__unwindfunclet$?OnInvite@ChannelChatWnd@@IAEXPAD@Z$0
	DD	00H
	DD	FLAT:__unwindfunclet$?OnInvite@ChannelChatWnd@@IAEXPAD@Z$2
	DD	00H
	DD	FLAT:__unwindfunclet$?OnInvite@ChannelChatWnd@@IAEXPAD@Z$3
__ehfuncinfo$?OnInvite@ChannelChatWnd@@IAEXPAD@Z DD 019930522H
	DD	03H
	DD	FLAT:__unwindtable$?OnInvite@ChannelChatWnd@@IAEXPAD@Z
	DD	2 DUP(00H)
	DD	2 DUP(00H)
	DD	00H
	DD	01H
; Function compile flags: /Ogsp
; File d:\lost saga for developer\youtube\tutorial\source\src\lsclient\gui\channelchatwnd.cpp
xdata$x	ENDS
;	COMDAT ?OnInvite@ChannelChatWnd@@IAEXPAD@Z
_TEXT	SEGMENT
$T511482 = -65880					; size = 4
_szHasID$ = -65876					; size = 16
_kPacket$510476 = -65860				; size = 32792
_kPacket$510475 = -33068				; size = 32792
_szID$ = -276						; size = 260
__$ArrayPad$ = -16					; size = 4
__$EHRec$ = -12						; size = 12
_szString$ = 8						; size = 4
?OnInvite@ChannelChatWnd@@IAEXPAD@Z PROC		; ChannelChatWnd::OnInvite, COMDAT
; _this$ = ecx

; 364  : {

  00000	55		 push	 ebp
  00001	8b ec		 mov	 ebp, esp
  00003	6a ff		 push	 -1
  00005	68 00 00 00 00	 push	 __ehhandler$?OnInvite@ChannelChatWnd@@IAEXPAD@Z
  0000a	64 a1 00 00 00
	00		 mov	 eax, DWORD PTR fs:0
  00010	50		 push	 eax
  00011	b8 4c 01 01 00	 mov	 eax, 65868		; 0001014cH
  00016	e8 00 00 00 00	 call	 __chkstk
  0001b	a1 00 00 00 00	 mov	 eax, DWORD PTR ___security_cookie
  00020	33 c5		 xor	 eax, ebp
  00022	89 45 f0	 mov	 DWORD PTR __$ArrayPad$[ebp], eax
  00025	53		 push	 ebx
  00026	56		 push	 esi
  00027	57		 push	 edi
  00028	50		 push	 eax
  00029	8d 45 f4	 lea	 eax, DWORD PTR __$EHRec$[ebp]
  0002c	64 a3 00 00 00
	00		 mov	 DWORD PTR fs:0, eax

; 365  : 	char szID[MAX_PATH];
; 366  : 	memset( szID, 0, sizeof( szID ) );

  00032	68 04 01 00 00	 push	 260			; 00000104H
  00037	8d 85 ec fe ff
	ff		 lea	 eax, DWORD PTR _szID$[ebp]
  0003d	6a 00		 push	 0
  0003f	50		 push	 eax
  00040	8b d9		 mov	 ebx, ecx
  00042	e8 00 00 00 00	 call	 _memset

; 367  : 
; 368  : 	char cEOF = ' ';
; 369  : 	int  iMacro = 0;
; 370  : 	int  iLen = strlen( szString );

  00047	8b 45 08	 mov	 eax, DWORD PTR _szString$[ebp]
  0004a	83 c4 0c	 add	 esp, 12			; 0000000cH
  0004d	8d 70 01	 lea	 esi, DWORD PTR [eax+1]
$LL31@OnInvite:
  00050	8a 08		 mov	 cl, BYTE PTR [eax]
  00052	40		 inc	 eax
  00053	84 c9		 test	 cl, cl
  00055	75 f9		 jne	 SHORT $LL31@OnInvite
  00057	2b c6		 sub	 eax, esi
  00059	8b f8		 mov	 edi, eax

; 371  : 	int  i = 0;
; 372  : 	//닉네임
; 373  : 	for(i = 0;i < iLen;i++,iMacro++)

  0005b	33 c0		 xor	 eax, eax
  0005d	85 ff		 test	 edi, edi
  0005f	7e 25		 jle	 SHORT $LN11@OnInvite

; 374  : 	{
; 375  : 		szID[i] = szString[iMacro];

  00061	8b 4d 08	 mov	 ecx, DWORD PTR _szString$[ebp]
  00064	8d b5 ec fe ff
	ff		 lea	 esi, DWORD PTR _szID$[ebp]
  0006a	2b f1		 sub	 esi, ecx
$LL13@OnInvite:
  0006c	8a 11		 mov	 dl, BYTE PTR [ecx]
  0006e	88 14 0e	 mov	 BYTE PTR [esi+ecx], dl

; 376  : 		if( szString[iMacro] == cEOF )

  00071	80 fa 20	 cmp	 dl, 32			; 00000020H
  00074	74 08		 je	 SHORT $LN29@OnInvite

; 371  : 	int  i = 0;
; 372  : 	//닉네임
; 373  : 	for(i = 0;i < iLen;i++,iMacro++)

  00076	40		 inc	 eax
  00077	41		 inc	 ecx
  00078	3b c7		 cmp	 eax, edi
  0007a	7c f0		 jl	 SHORT $LL13@OnInvite

; 376  : 		if( szString[iMacro] == cEOF )

  0007c	eb 08		 jmp	 SHORT $LN11@OnInvite
$LN29@OnInvite:

; 377  : 		{
; 378  : 			szID[i] = NULL;

  0007e	c6 84 05 ec fe
	ff ff 00	 mov	 BYTE PTR _szID$[ebp+eax], 0
$LN11@OnInvite:

; 379  : 			break;
; 380  : 		}
; 381  : 	}
; 382  : 	iMacro++;
; 383  : 	ioHashString szHasID = szID;

  00086	8d 85 ec fe ff
	ff		 lea	 eax, DWORD PTR _szID$[ebp]
  0008c	50		 push	 eax
  0008d	8d 8d ac fe fe
	ff		 lea	 ecx, DWORD PTR _szHasID$[ebp]
  00093	ff 15 00 00 00
	00		 call	 DWORD PTR __imp_??0ioHashString@@QAE@PBD@Z
  00099	33 f6		 xor	 esi, esi
  0009b	89 75 fc	 mov	 DWORD PTR __$EHRec$[ebp+8], esi

; 384  : 	if( szHasID == g_MyInfo.GetPublicID() )

  0009e	e8 00 00 00 00	 call	 ?GetSingleton@ioMyInfo@@SAAAV1@XZ ; ioMyInfo::GetSingleton
  000a3	83 c0 1c	 add	 eax, 28			; 0000001cH
  000a6	50		 push	 eax
  000a7	8d 8d ac fe fe
	ff		 lea	 ecx, DWORD PTR _szHasID$[ebp]
  000ad	ff 15 00 00 00
	00		 call	 DWORD PTR __imp_??8ioHashString@@QBE_NABV0@@Z
  000b3	84 c0		 test	 al, al
  000b5	74 08		 je	 SHORT $LN9@OnInvite

; 385  : 	{
; 386  : 		ErrorEdit( STR(1) );

  000b7	56		 push	 esi
  000b8	6a 01		 push	 1

; 387  : 		return;

  000ba	e9 5e 01 00 00	 jmp	 $LN33@OnInvite
$LN9@OnInvite:

; 388  : 	}
; 389  : 
; 390  : 	if( szHasID.IsEmpty() )

  000bf	8d 8d ac fe fe
	ff		 lea	 ecx, DWORD PTR _szHasID$[ebp]
  000c5	ff 15 00 00 00
	00		 call	 DWORD PTR __imp_?IsEmpty@ioHashString@@QBE_NXZ
  000cb	84 c0		 test	 al, al
  000cd	74 08		 je	 SHORT $LN8@OnInvite

; 391  : 	{
; 392  : 		ErrorEdit( STR(2) );

  000cf	56		 push	 esi
  000d0	6a 02		 push	 2

; 393  : 		return;

  000d2	e9 46 01 00 00	 jmp	 $LN33@OnInvite
$LN8@OnInvite:

; 394  : 	}
; 395  : 
; 396  : 	if( g_App.IsAdminID( szHasID.c_str() ) )

  000d7	8d 8d ac fe fe
	ff		 lea	 ecx, DWORD PTR _szHasID$[ebp]
  000dd	ff 15 00 00 00
	00		 call	 DWORD PTR __imp_?c_str@ioHashString@@QBEPBDXZ
  000e3	50		 push	 eax
  000e4	e8 00 00 00 00	 call	 ?GetSingleton@ioApplication@@SAAAV1@XZ ; ioApplication::GetSingleton
  000e9	8b c8		 mov	 ecx, eax
  000eb	e8 00 00 00 00	 call	 ?IsAdminID@ioApplication@@QAE_NPBD@Z ; ioApplication::IsAdminID
  000f0	84 c0		 test	 al, al
  000f2	74 08		 je	 SHORT $LN7@OnInvite

; 397  : 	{
; 398  : 		ErrorEdit( STR(3) );

  000f4	56		 push	 esi
  000f5	6a 03		 push	 3

; 399  : 		return;

  000f7	e9 21 01 00 00	 jmp	 $LN33@OnInvite
$LN7@OnInvite:

; 400  : 	}
; 401  : 
; 402  : 	if( g_MyInfo.GetBlockType() == BKT_LIMITATION )

  000fc	e8 00 00 00 00	 call	 ?GetSingleton@ioMyInfo@@SAAAV1@XZ ; ioMyInfo::GetSingleton
  00101	8b c8		 mov	 ecx, eax
  00103	e8 00 00 00 00	 call	 ?GetBlockType@ioMyInfo@@QBE?AW4BlockType@@XZ ; ioMyInfo::GetBlockType
  00108	83 f8 14	 cmp	 eax, 20			; 00000014H
  0010b	75 08		 jne	 SHORT $LN6@OnInvite

; 403  : 	{
; 404  : 		ErrorEdit( STR(4) );

  0010d	56		 push	 esi
  0010e	6a 04		 push	 4

; 405  : 		return;

  00110	e9 08 01 00 00	 jmp	 $LN33@OnInvite
$LN6@OnInvite:

; 406  : 	}
; 407  : 
; 408  : 	ChannelNode *pNode = g_ChannelManager.GetNodeIndex( m_iChannelIdx );

  00115	ff b3 64 01 00
	00		 push	 DWORD PTR [ebx+356]
  0011b	e8 00 00 00 00	 call	 ?GetSingleton@ioChannelManager@@SAAAV1@XZ ; ioChannelManager::GetSingleton
  00120	8b c8		 mov	 ecx, eax
  00122	e8 00 00 00 00	 call	 ?GetNodeIndex@ioChannelManager@@QAEPAVChannelNode@@H@Z ; ioChannelManager::GetNodeIndex
  00127	8b f0		 mov	 esi, eax

; 409  : 	if( pNode )

  00129	85 f6		 test	 esi, esi
  0012b	0f 84 0c 01 00
	00		 je	 $LN1@OnInvite

; 410  : 	{
; 411  : 		if( !pNode->IsChannelUser( szHasID ) )

  00131	83 ec 10	 sub	 esp, 16			; 00000010H
  00134	8d 85 ac fe fe
	ff		 lea	 eax, DWORD PTR _szHasID$[ebp]
  0013a	8b cc		 mov	 ecx, esp
  0013c	89 a5 a8 fe fe
	ff		 mov	 DWORD PTR $T511482[ebp], esp
  00142	50		 push	 eax
  00143	ff 15 00 00 00
	00		 call	 DWORD PTR __imp_??0ioHashString@@QAE@ABV0@@Z
  00149	8b ce		 mov	 ecx, esi
  0014b	e8 00 00 00 00	 call	 ?IsChannelUser@ChannelNode@@QAE_NVioHashString@@@Z ; ChannelNode::IsChannelUser
  00150	84 c0		 test	 al, al
  00152	0f 85 c1 00 00
	00		 jne	 $LN4@OnInvite

; 412  : 		{
; 413  : 			TCPNetwork::MouseBusy( true );

  00158	6a 01		 push	 1
  0015a	e8 00 00 00 00	 call	 ?MouseBusy@TCPNetwork@@YAX_N@Z ; TCPNetwork::MouseBusy
  0015f	59		 pop	 ecx

; 414  : 
; 415  : 			if( !pNode->GetManToManID().IsEmpty() )

  00160	8d 7e 1c	 lea	 edi, DWORD PTR [esi+28]
  00163	8b cf		 mov	 ecx, edi
  00165	ff 15 00 00 00
	00		 call	 DWORD PTR __imp_?IsEmpty@ioHashString@@QBE_NXZ
  0016b	be 06 01 00 00	 mov	 esi, 262		; 00000106H
  00170	84 c0		 test	 al, al
  00172	75 58		 jne	 SHORT $LN2@OnInvite

; 416  : 			{
; 417  : 				if( pNode->GetManToManID() != szHasID )

  00174	8d 85 ac fe fe
	ff		 lea	 eax, DWORD PTR _szHasID$[ebp]
  0017a	50		 push	 eax
  0017b	8b cf		 mov	 ecx, edi
  0017d	ff 15 00 00 00
	00		 call	 DWORD PTR __imp_??9ioHashString@@QBE_NABV0@@Z
  00183	84 c0		 test	 al, al
  00185	74 45		 je	 SHORT $LN2@OnInvite

; 418  : 				{
; 419  : 					SP2Packet kPacket( CTPK_CHANNEL_INVITE );

  00187	56		 push	 esi
  00188	8d 8d d4 7e ff
	ff		 lea	 ecx, DWORD PTR _kPacket$510475[ebp]
  0018e	e8 00 00 00 00	 call	 ??0SP2Packet@@QAE@K@Z	; SP2Packet::SP2Packet

; 420  : 					kPacket << m_iChannelIdx << pNode->GetManToManID();

  00193	57		 push	 edi
  00194	ff b3 64 01 00
	00		 push	 DWORD PTR [ebx+356]
  0019a	8d 8d d4 7e ff
	ff		 lea	 ecx, DWORD PTR _kPacket$510475[ebp]
  001a0	c6 45 fc 01	 mov	 BYTE PTR __$EHRec$[ebp+8], 1
  001a4	e8 00 00 00 00	 call	 ??6SP2Packet@@QAEAAV0@H@Z ; SP2Packet::operator<<
  001a9	8b c8		 mov	 ecx, eax
  001ab	e8 00 00 00 00	 call	 ??6SP2Packet@@QAEAAV0@ABVioHashString@@@Z ; SP2Packet::operator<<

; 421  : 					TCPNetwork::SendToServer( kPacket );		

  001b0	8d 85 d4 7e ff
	ff		 lea	 eax, DWORD PTR _kPacket$510475[ebp]
  001b6	50		 push	 eax
  001b7	e8 00 00 00 00	 call	 ?SendToServer@TCPNetwork@@YAXAAVSP2Packet@@@Z ; TCPNetwork::SendToServer
  001bc	59		 pop	 ecx

; 422  : 				}							

  001bd	8d 8d d4 7e ff
	ff		 lea	 ecx, DWORD PTR _kPacket$510475[ebp]
  001c3	c6 45 fc 00	 mov	 BYTE PTR __$EHRec$[ebp+8], 0
  001c7	e8 00 00 00 00	 call	 ??1SP2Packet@@UAE@XZ	; SP2Packet::~SP2Packet
$LN2@OnInvite:

; 423  : 			}
; 424  : 
; 425  : 			SP2Packet kPacket( CTPK_CHANNEL_INVITE );

  001cc	56		 push	 esi
  001cd	8d 8d bc fe fe
	ff		 lea	 ecx, DWORD PTR _kPacket$510476[ebp]
  001d3	e8 00 00 00 00	 call	 ??0SP2Packet@@QAE@K@Z	; SP2Packet::SP2Packet

; 426  : 			kPacket << m_iChannelIdx << szHasID;

  001d8	8d 85 ac fe fe
	ff		 lea	 eax, DWORD PTR _szHasID$[ebp]
  001de	50		 push	 eax
  001df	ff b3 64 01 00
	00		 push	 DWORD PTR [ebx+356]
  001e5	8d 8d bc fe fe
	ff		 lea	 ecx, DWORD PTR _kPacket$510476[ebp]
  001eb	c6 45 fc 02	 mov	 BYTE PTR __$EHRec$[ebp+8], 2
  001ef	e8 00 00 00 00	 call	 ??6SP2Packet@@QAEAAV0@H@Z ; SP2Packet::operator<<
  001f4	8b c8		 mov	 ecx, eax
  001f6	e8 00 00 00 00	 call	 ??6SP2Packet@@QAEAAV0@ABVioHashString@@@Z ; SP2Packet::operator<<

; 427  : 			TCPNetwork::SendToServer( kPacket );					

  001fb	8d 85 bc fe fe
	ff		 lea	 eax, DWORD PTR _kPacket$510476[ebp]
  00201	50		 push	 eax
  00202	e8 00 00 00 00	 call	 ?SendToServer@TCPNetwork@@YAXAAVSP2Packet@@@Z ; TCPNetwork::SendToServer
  00207	59		 pop	 ecx

; 428  : 		}	

  00208	8d 8d bc fe fe
	ff		 lea	 ecx, DWORD PTR _kPacket$510476[ebp]
  0020e	c6 45 fc 00	 mov	 BYTE PTR __$EHRec$[ebp+8], 0
  00212	e8 00 00 00 00	 call	 ??1SP2Packet@@UAE@XZ	; SP2Packet::~SP2Packet

; 429  : 		else	

  00217	eb 24		 jmp	 SHORT $LN1@OnInvite
$LN4@OnInvite:

; 430  : 			ErrorEdit( STR(5) );

  00219	6a 00		 push	 0
  0021b	6a 05		 push	 5
$LN33@OnInvite:
  0021d	68 00 00 00 00	 push	 OFFSET ??_C@_00CNPNBAHC@?$AA@
  00222	68 00 00 00 00	 push	 OFFSET ??_C@_0BJ@BCGIDNCC@ChannelChatWnd?3?3OnInvite?$AA@
  00227	ff 15 00 00 00
	00		 call	 DWORD PTR __imp_?GetSingleton@ioStringManager@@SAAAV1@XZ
  0022d	8b c8		 mov	 ecx, eax
  0022f	ff 15 00 00 00
	00		 call	 DWORD PTR __imp_?GetString@ioStringManager@@QAEPADPBD0HW4FileNamePrefix@1@@Z
  00235	50		 push	 eax
  00236	8b cb		 mov	 ecx, ebx
  00238	e8 00 00 00 00	 call	 ?ErrorEdit@ChannelChatWnd@@QAEXPAD@Z ; ChannelChatWnd::ErrorEdit
$LN1@OnInvite:

; 431  : 	}
; 432  : }

  0023d	83 4d fc ff	 or	 DWORD PTR __$EHRec$[ebp+8], -1
  00241	8d 8d ac fe fe
	ff		 lea	 ecx, DWORD PTR _szHasID$[ebp]
  00247	ff 15 00 00 00
	00		 call	 DWORD PTR __imp_??1ioHashString@@QAE@XZ
  0024d	8b 4d f4	 mov	 ecx, DWORD PTR __$EHRec$[ebp]
  00250	64 89 0d 00 00
	00 00		 mov	 DWORD PTR fs:0, ecx
  00257	59		 pop	 ecx
  00258	5f		 pop	 edi
  00259	5e		 pop	 esi
  0025a	5b		 pop	 ebx
  0025b	8b 4d f0	 mov	 ecx, DWORD PTR __$ArrayPad$[ebp]
  0025e	33 cd		 xor	 ecx, ebp
  00260	e8 00 00 00 00	 call	 @__security_check_cookie@4
  00265	c9		 leave
  00266	c2 04 00	 ret	 4
_TEXT	ENDS
;	COMDAT text$x
text$x	SEGMENT
__unwindfunclet$?OnInvite@ChannelChatWnd@@IAEXPAD@Z$0:
  00000	8d 8d ac fe fe
	ff		 lea	 ecx, DWORD PTR _szHasID$[ebp]
  00006	ff 25 00 00 00
	00		 jmp	 DWORD PTR __imp_??1ioHashString@@QAE@XZ
__unwindfunclet$?OnInvite@ChannelChatWnd@@IAEXPAD@Z$2:
  0000c	8d 8d d4 7e ff
	ff		 lea	 ecx, DWORD PTR _kPacket$510475[ebp]
  00012	e9 00 00 00 00	 jmp	 ??1SP2Packet@@UAE@XZ	; SP2Packet::~SP2Packet
__unwindfunclet$?OnInvite@ChannelChatWnd@@IAEXPAD@Z$3:
  00017	8d 8d bc fe fe
	ff		 lea	 ecx, DWORD PTR _kPacket$510476[ebp]
  0001d	e9 00 00 00 00	 jmp	 ??1SP2Packet@@UAE@XZ	; SP2Packet::~SP2Packet
__ehhandler$?OnInvite@ChannelChatWnd@@IAEXPAD@Z:
  00022	8b 54 24 08	 mov	 edx, DWORD PTR [esp+8]
  00026	8d 42 0c	 lea	 eax, DWORD PTR [edx+12]
  00029	8b 8a a4 fe fe
	ff		 mov	 ecx, DWORD PTR [edx-65884]
  0002f	33 c8		 xor	 ecx, eax
  00031	e8 00 00 00 00	 call	 @__security_check_cookie@4
  00036	8b 4a fc	 mov	 ecx, DWORD PTR [edx-4]
  00039	33 c8		 xor	 ecx, eax
  0003b	e8 00 00 00 00	 call	 @__security_check_cookie@4
  00040	b8 00 00 00 00	 mov	 eax, OFFSET __ehfuncinfo$?OnInvite@ChannelChatWnd@@IAEXPAD@Z
  00045	e9 00 00 00 00	 jmp	 ___CxxFrameHandler3
text$x	ENDS
?OnInvite@ChannelChatWnd@@IAEXPAD@Z ENDP		; ChannelChatWnd::OnInvite
PUBLIC	?ProcessChatInfo@ChannelChatWnd@@IAEXXZ		; ChannelChatWnd::ProcessChatInfo
EXTRN	?IsMouseRender@ioApplication@@QAE_NXZ:PROC	; ioApplication::IsMouseRender
EXTRN	__imp_?HideWnd@ioWnd@@QAEXXZ:PROC
; Function compile flags: /Ogsp
;	COMDAT ?ProcessChatInfo@ChannelChatWnd@@IAEXXZ
_TEXT	SEGMENT
_pChatInfo$510594 = -20					; size = 4
_pNode$ = -16						; size = 4
_iSentenceIndex$ = -12					; size = 4
_this$ = -8						; size = 4
_i$ = -4						; size = 4
?ProcessChatInfo@ChannelChatWnd@@IAEXXZ PROC		; ChannelChatWnd::ProcessChatInfo, COMDAT
; _this$ = ecx

; 644  : {

  00000	55		 push	 ebp
  00001	8b ec		 mov	 ebp, esp
  00003	83 ec 14	 sub	 esp, 20			; 00000014H
  00006	57		 push	 edi
  00007	8b f9		 mov	 edi, ecx

; 645  : 	ChannelNode *pNode = g_ChannelManager.GetNodeIndex( m_iChannelIdx );

  00009	ff b7 64 01 00
	00		 push	 DWORD PTR [edi+356]
  0000f	89 7d f8	 mov	 DWORD PTR _this$[ebp], edi
  00012	e8 00 00 00 00	 call	 ?GetSingleton@ioChannelManager@@SAAAV1@XZ ; ioChannelManager::GetSingleton
  00017	8b c8		 mov	 ecx, eax
  00019	e8 00 00 00 00	 call	 ?GetNodeIndex@ioChannelManager@@QAEPAVChannelNode@@H@Z ; ioChannelManager::GetNodeIndex
  0001e	89 45 f0	 mov	 DWORD PTR _pNode$[ebp], eax

; 646  : 	if( pNode == NULL ) return;

  00021	85 c0		 test	 eax, eax
  00023	0f 84 0a 01 00
	00		 je	 $LN4@ProcessCha@2

; 647  : 
; 648  : 	int i = 0;
; 649  : 	int iSentenceIndex = -1;
; 650  : 	int iStartArray = m_iCurPage - max( MAX_LIST_SIZE - pNode->GetChatInfoSize(), 0 );

  00029	8b 50 30	 mov	 edx, DWORD PTR [eax+48]
  0002c	2b 50 2c	 sub	 edx, DWORD PTR [eax+44]
  0002f	83 4d f4 ff	 or	 DWORD PTR _iSentenceIndex$[ebp], -1
  00033	6a 0a		 push	 10			; 0000000aH
  00035	c1 fa 02	 sar	 edx, 2
  00038	59		 pop	 ecx
  00039	2b ca		 sub	 ecx, edx
  0003b	85 c9		 test	 ecx, ecx
  0003d	7f 02		 jg	 SHORT $LN18@ProcessCha@2
  0003f	33 c9		 xor	 ecx, ecx
$LN18@ProcessCha@2:
  00041	53		 push	 ebx

; 651  : 
; 652  : 	for(i = ID_LINE_CHAT_WND_1;i < ID_LINE_CHAT_WND_1 + MAX_LIST_SIZE;i++, iStartArray++)

  00042	8b 1d 00 00 00
	00		 mov	 ebx, DWORD PTR __imp_?FindChildWnd@ioWnd@@QAEPAV1@K@Z
  00048	56		 push	 esi
  00049	8b b7 60 01 00
	00		 mov	 esi, DWORD PTR [edi+352]
  0004f	2b f1		 sub	 esi, ecx
  00051	c7 45 fc 65 00
	00 00		 mov	 DWORD PTR _i$[ebp], 101	; 00000065H
  00058	eb 06		 jmp	 SHORT $LN13@ProcessCha@2
$LL37@ProcessCha@2:
  0005a	8b 45 f0	 mov	 eax, DWORD PTR _pNode$[ebp]
  0005d	8b 7d f8	 mov	 edi, DWORD PTR _this$[ebp]
$LN13@ProcessCha@2:

; 653  : 	{
; 654  : 		ChatInfo *pChatInfo = pNode->GetChatInfo( iStartArray );

  00060	56		 push	 esi
  00061	8b c8		 mov	 ecx, eax
  00063	e8 00 00 00 00	 call	 ?GetChatInfo@ChannelNode@@QAEPAUtagChatInfo@@H@Z ; ChannelNode::GetChatInfo

; 655  : 		LineChatWnd *pLineChatWnd = dynamic_cast<LineChatWnd *>( FindChildWnd( i ));

  00068	6a 00		 push	 0
  0006a	68 00 00 00 00	 push	 OFFSET ??_R0?AVLineChatWnd@@@8
  0006f	68 00 00 00 00	 push	 OFFSET ??_R0?AVioWnd@@@8
  00074	6a 00		 push	 0
  00076	ff 75 fc	 push	 DWORD PTR _i$[ebp]
  00079	8b cf		 mov	 ecx, edi
  0007b	89 45 ec	 mov	 DWORD PTR _pChatInfo$510594[ebp], eax
  0007e	ff d3		 call	 ebx
  00080	50		 push	 eax
  00081	e8 00 00 00 00	 call	 ___RTDynamicCast
  00086	8b f8		 mov	 edi, eax
  00088	83 c4 14	 add	 esp, 20			; 00000014H

; 656  : 		if(!pLineChatWnd) continue;

  0008b	85 ff		 test	 edi, edi
  0008d	74 40		 je	 SHORT $LN12@ProcessCha@2

; 657  : 		
; 658  : 		pLineChatWnd->SetChatInfo( m_iChannelIdx, iStartArray);
; 659  : 
; 660  : 		if( pChatInfo )

  0008f	83 7d ec 00	 cmp	 DWORD PTR _pChatInfo$510594[ebp], 0
  00093	8b 45 f8	 mov	 eax, DWORD PTR _this$[ebp]
  00096	8b 80 64 01 00
	00		 mov	 eax, DWORD PTR [eax+356]
  0009c	89 87 60 01 00
	00		 mov	 DWORD PTR [edi+352], eax
  000a2	89 b7 64 01 00
	00		 mov	 DWORD PTR [edi+356], esi

; 661  : 		{
; 662  : 			pLineChatWnd->ShowWnd();

  000a8	8b cf		 mov	 ecx, edi
  000aa	74 1d		 je	 SHORT $LN9@ProcessCha@2
  000ac	ff 15 00 00 00
	00		 call	 DWORD PTR __imp_?ShowWnd@ioWnd@@QAEXXZ

; 663  : 			if( pLineChatWnd->IsBigBtnOver() )

  000b2	8b cf		 mov	 ecx, edi
  000b4	e8 00 00 00 00	 call	 ?IsBigBtnOver@LineChatWnd@@QAE_NXZ ; LineChatWnd::IsBigBtnOver
  000b9	84 c0		 test	 al, al
  000bb	74 12		 je	 SHORT $LN12@ProcessCha@2

; 664  : 				iSentenceIndex = (int)pLineChatWnd->GetSentenceIndex();

  000bd	8b cf		 mov	 ecx, edi
  000bf	e8 00 00 00 00	 call	 ?GetSentenceIndex@LineChatWnd@@QAEKXZ ; LineChatWnd::GetSentenceIndex
  000c4	89 45 f4	 mov	 DWORD PTR _iSentenceIndex$[ebp], eax

; 665  : 		}
; 666  : 		else

  000c7	eb 06		 jmp	 SHORT $LN12@ProcessCha@2
$LN9@ProcessCha@2:

; 667  : 			pLineChatWnd->HideWnd();

  000c9	ff 15 00 00 00
	00		 call	 DWORD PTR __imp_?HideWnd@ioWnd@@QAEXXZ
$LN12@ProcessCha@2:

; 651  : 
; 652  : 	for(i = ID_LINE_CHAT_WND_1;i < ID_LINE_CHAT_WND_1 + MAX_LIST_SIZE;i++, iStartArray++)

  000cf	ff 45 fc	 inc	 DWORD PTR _i$[ebp]
  000d2	46		 inc	 esi
  000d3	83 7d fc 6f	 cmp	 DWORD PTR _i$[ebp], 111	; 0000006fH
  000d7	7c 81		 jl	 SHORT $LL37@ProcessCha@2

; 668  : 	}	
; 669  : 
; 670  : 	// Process에서 마우스 오버 처리
; 671  : 	// iwm_command에서 처리한듯한데 버그가 있다. 이유는 Command가 실시간이 아닌데 채팅 스크롤은 실시간으로 처리되므로 발생함.
; 672  : 	for(i = ID_LINE_CHAT_WND_1;i < ID_LINE_CHAT_WND_1 + MAX_LIST_SIZE;i++)

  000d9	6a 65		 push	 101			; 00000065H
  000db	5f		 pop	 edi
$LL6@ProcessCha@2:

; 673  : 	{
; 674  : 		LineChatWnd *pLineChatWnd = dynamic_cast<LineChatWnd *>( FindChildWnd( i ));

  000dc	8b 4d f8	 mov	 ecx, DWORD PTR _this$[ebp]
  000df	6a 00		 push	 0
  000e1	68 00 00 00 00	 push	 OFFSET ??_R0?AVLineChatWnd@@@8
  000e6	68 00 00 00 00	 push	 OFFSET ??_R0?AVioWnd@@@8
  000eb	6a 00		 push	 0
  000ed	57		 push	 edi
  000ee	ff d3		 call	 ebx
  000f0	50		 push	 eax
  000f1	e8 00 00 00 00	 call	 ___RTDynamicCast
  000f6	8b f0		 mov	 esi, eax
  000f8	83 c4 14	 add	 esp, 20			; 00000014H

; 675  : 		if( !pLineChatWnd ) continue;

  000fb	85 f6		 test	 esi, esi
  000fd	74 2c		 je	 SHORT $LN5@ProcessCha@2

; 676  : 
; 677  : 		if( g_App.IsMouseRender() && iSentenceIndex == (int)pLineChatWnd->GetSentenceIndex() )

  000ff	e8 00 00 00 00	 call	 ?GetSingleton@ioApplication@@SAAAV1@XZ ; ioApplication::GetSingleton
  00104	8b c8		 mov	 ecx, eax
  00106	e8 00 00 00 00	 call	 ?IsMouseRender@ioApplication@@QAE_NXZ ; ioApplication::IsMouseRender
  0010b	84 c0		 test	 al, al
  0010d	74 15		 je	 SHORT $LN2@ProcessCha@2
  0010f	8b ce		 mov	 ecx, esi
  00111	e8 00 00 00 00	 call	 ?GetSentenceIndex@LineChatWnd@@QAEKXZ ; LineChatWnd::GetSentenceIndex
  00116	39 45 f4	 cmp	 DWORD PTR _iSentenceIndex$[ebp], eax
  00119	75 09		 jne	 SHORT $LN2@ProcessCha@2

; 678  : 			pLineChatWnd->SetBigBtnOver( true );

  0011b	c6 86 68 01 00
	00 01		 mov	 BYTE PTR [esi+360], 1

; 679  : 		else 

  00122	eb 07		 jmp	 SHORT $LN5@ProcessCha@2
$LN2@ProcessCha@2:

; 680  : 			pLineChatWnd->SetBigBtnOver( false );

  00124	c6 86 68 01 00
	00 00		 mov	 BYTE PTR [esi+360], 0
$LN5@ProcessCha@2:

; 668  : 	}	
; 669  : 
; 670  : 	// Process에서 마우스 오버 처리
; 671  : 	// iwm_command에서 처리한듯한데 버그가 있다. 이유는 Command가 실시간이 아닌데 채팅 스크롤은 실시간으로 처리되므로 발생함.
; 672  : 	for(i = ID_LINE_CHAT_WND_1;i < ID_LINE_CHAT_WND_1 + MAX_LIST_SIZE;i++)

  0012b	47		 inc	 edi
  0012c	83 ff 6f	 cmp	 edi, 111		; 0000006fH
  0012f	7c ab		 jl	 SHORT $LL6@ProcessCha@2
  00131	5e		 pop	 esi
  00132	5b		 pop	 ebx
$LN4@ProcessCha@2:
  00133	5f		 pop	 edi

; 681  : 	}
; 682  : }

  00134	c9		 leave
  00135	c3		 ret	 0
?ProcessChatInfo@ChannelChatWnd@@IAEXXZ ENDP		; ChannelChatWnd::ProcessChatInfo
; Function compile flags: /Ogsp
_TEXT	ENDS
;	COMDAT ??_GGuildLineChatWnd@@UAEPAXI@Z
_TEXT	SEGMENT
___flags$ = 8						; size = 4
??_GGuildLineChatWnd@@UAEPAXI@Z PROC			; GuildLineChatWnd::`scalar deleting destructor', COMDAT
; _this$ = ecx
  00000	55		 push	 ebp
  00001	8b ec		 mov	 ebp, esp
  00003	56		 push	 esi
  00004	8b f1		 mov	 esi, ecx
  00006	e8 00 00 00 00	 call	 ??1GuildLineChatWnd@@UAE@XZ ; GuildLineChatWnd::~GuildLineChatWnd
  0000b	f6 45 08 01	 test	 BYTE PTR ___flags$[ebp], 1
  0000f	74 07		 je	 SHORT $LN1@scalar@3
  00011	56		 push	 esi
  00012	e8 00 00 00 00	 call	 ??3@YAXPAX@Z		; operator delete
  00017	59		 pop	 ecx
$LN1@scalar@3:
  00018	8b c6		 mov	 eax, esi
  0001a	5e		 pop	 esi
  0001b	5d		 pop	 ebp
  0001c	c2 04 00	 ret	 4
??_GGuildLineChatWnd@@UAEPAXI@Z ENDP			; GuildLineChatWnd::`scalar deleting destructor'
_TEXT	ENDS
PUBLIC	__$ArrayPad$
PUBLIC	?IsBigBtnOver@GuildLineChatWnd@@QAE_NXZ		; GuildLineChatWnd::IsBigBtnOver
; Function compile flags: /Ogsp
;	COMDAT ?IsBigBtnOver@GuildLineChatWnd@@QAE_NXZ
_TEXT	SEGMENT
_pInfo$ = -24						; size = 4
_rcRect$ = -20						; size = 16
__$ArrayPad$ = -4					; size = 4
?IsBigBtnOver@GuildLineChatWnd@@QAE_NXZ PROC		; GuildLineChatWnd::IsBigBtnOver, COMDAT
; _this$ = ecx

; 731  : {

  00000	55		 push	 ebp
  00001	8b ec		 mov	 ebp, esp
  00003	83 ec 18	 sub	 esp, 24			; 00000018H
  00006	a1 00 00 00 00	 mov	 eax, DWORD PTR ___security_cookie
  0000b	33 c5		 xor	 eax, ebp
  0000d	89 45 fc	 mov	 DWORD PTR __$ArrayPad$[ebp], eax
  00010	56		 push	 esi
  00011	8b f1		 mov	 esi, ecx

; 732  : 	if( !IsShow() ) return false;

  00013	ff 15 00 00 00
	00		 call	 DWORD PTR __imp_?IsShow@ioWnd@@QBE_NXZ
  00019	84 c0		 test	 al, al
  0001b	75 07		 jne	 SHORT $LN4@IsBigBtnOv@2
$LN11@IsBigBtnOv@2:
  0001d	32 c0		 xor	 al, al
  0001f	e9 95 00 00 00	 jmp	 $LN1@IsBigBtnOv@2
$LN4@IsBigBtnOv@2:

; 733  : 	
; 734  : 	ChatInfo *pInfo = g_GuildChatMgr.GetChatInfo( m_iChatInfoArray );

  00024	ff b6 60 01 00
	00		 push	 DWORD PTR [esi+352]
  0002a	e8 00 00 00 00	 call	 ?GetSingleton@ioGuildChatMgr@@SAAAV1@XZ ; ioGuildChatMgr::GetSingleton
  0002f	8b c8		 mov	 ecx, eax
  00031	e8 00 00 00 00	 call	 ?GetChatInfo@ioGuildChatMgr@@QAEPAUtagChatInfo@@H@Z ; ioGuildChatMgr::GetChatInfo
  00036	89 45 e8	 mov	 DWORD PTR _pInfo$[ebp], eax

; 735  : 	if( pInfo == NULL ) 

  00039	85 c0		 test	 eax, eax

; 736  : 		return false;

  0003b	74 e0		 je	 SHORT $LN11@IsBigBtnOv@2

; 737  : 	if( pInfo->m_szID.IsEmpty() )

  0003d	8d 48 40	 lea	 ecx, DWORD PTR [eax+64]
  00040	ff 15 00 00 00
	00		 call	 DWORD PTR __imp_?IsEmpty@ioHashString@@QBE_NXZ
  00046	84 c0		 test	 al, al

; 738  : 		return false;

  00048	75 d3		 jne	 SHORT $LN11@IsBigBtnOv@2

; 739  : 
; 740  : 	POINT ptCheckPos = g_App.GetMouse()->GetMousePos();

  0004a	53		 push	 ebx
  0004b	57		 push	 edi
  0004c	e8 00 00 00 00	 call	 ?GetSingleton@ioApplication@@SAAAV1@XZ ; ioApplication::GetSingleton
  00051	8d 88 90 00 00
	00		 lea	 ecx, DWORD PTR [eax+144]
  00057	ff 15 00 00 00
	00		 call	 DWORD PTR __imp_?GetMousePos@ioMouse@@QBEABUtagPOINT@@XZ
  0005d	8b 38		 mov	 edi, DWORD PTR [eax]
  0005f	8b 58 04	 mov	 ebx, DWORD PTR [eax+4]

; 741  : 	RECT  rcRect;
; 742  : 	rcRect.left  = GetDerivedPosX();

  00062	8b ce		 mov	 ecx, esi
  00064	ff 15 00 00 00
	00		 call	 DWORD PTR __imp_?GetDerivedPosX@ioWnd@@QBEHXZ

; 743  : 	rcRect.right = rcRect.left + pInfo->m_Printer.GetFullWidth();

  0006a	8b 4d e8	 mov	 ecx, DWORD PTR _pInfo$[ebp]
  0006d	89 45 ec	 mov	 DWORD PTR _rcRect$[ebp], eax
  00070	f3 0f 10 41 1c	 movss	 xmm0, DWORD PTR [ecx+28]
  00075	0f 57 c9	 xorps	 xmm1, xmm1
  00078	f3 0f 2a c8	 cvtsi2ss xmm1, eax
  0007c	0f 5a c0	 cvtps2pd xmm0, xmm0
  0007f	0f 5a c9	 cvtps2pd xmm1, xmm1
  00082	f2 0f 58 c1	 addsd	 xmm0, xmm1
  00086	f2 0f 2c c0	 cvttsd2si eax, xmm0

; 744  : 	rcRect.top   = GetDerivedPosY();

  0008a	8b ce		 mov	 ecx, esi
  0008c	89 45 f4	 mov	 DWORD PTR _rcRect$[ebp+8], eax
  0008f	ff 15 00 00 00
	00		 call	 DWORD PTR __imp_?GetDerivedPosY@ioWnd@@QBEHXZ

; 745  : 	rcRect.bottom= rcRect.top + GetHeight();

  00095	8b ce		 mov	 ecx, esi
  00097	89 45 f0	 mov	 DWORD PTR _rcRect$[ebp+4], eax
  0009a	ff 15 00 00 00
	00		 call	 DWORD PTR __imp_?GetHeight@ioWnd@@QBEHXZ
  000a0	03 45 f0	 add	 eax, DWORD PTR _rcRect$[ebp+4]

; 746  : 
; 747  : 	if( ::PtInRect( &rcRect, ptCheckPos ) )

  000a3	53		 push	 ebx
  000a4	89 45 f8	 mov	 DWORD PTR _rcRect$[ebp+12], eax
  000a7	57		 push	 edi
  000a8	8d 45 ec	 lea	 eax, DWORD PTR _rcRect$[ebp]
  000ab	50		 push	 eax
  000ac	ff 15 00 00 00
	00		 call	 DWORD PTR __imp__PtInRect@12
  000b2	85 c0		 test	 eax, eax
  000b4	5f		 pop	 edi
  000b5	0f 95 c0	 setne	 al
  000b8	5b		 pop	 ebx
$LN1@IsBigBtnOv@2:

; 748  : 		return true;	
; 749  : 	return false;
; 750  : }

  000b9	8b 4d fc	 mov	 ecx, DWORD PTR __$ArrayPad$[ebp]
  000bc	33 cd		 xor	 ecx, ebp
  000be	5e		 pop	 esi
  000bf	e8 00 00 00 00	 call	 @__security_check_cookie@4
  000c4	c9		 leave
  000c5	c3		 ret	 0
?IsBigBtnOver@GuildLineChatWnd@@QAE_NXZ ENDP		; GuildLineChatWnd::IsBigBtnOver
; Function compile flags: /Ogsp
_TEXT	ENDS
;	COMDAT ?OnProcess@GuildLineChatWnd@@MAEXM@Z
_TEXT	SEGMENT
_fTimePerSec$ = 8					; size = 4
?OnProcess@GuildLineChatWnd@@MAEXM@Z PROC		; GuildLineChatWnd::OnProcess, COMDAT
; _this$ = ecx

; 753  : {

  00000	56		 push	 esi
  00001	8b f1		 mov	 esi, ecx

; 754  : 	if( !IsShow() ) return;

  00003	ff 15 00 00 00
	00		 call	 DWORD PTR __imp_?IsShow@ioWnd@@QBE_NXZ
  00009	84 c0		 test	 al, al
  0000b	74 27		 je	 SHORT $LN1@OnProcess@2

; 755  : 
; 756  : 	if( IsBigBtnOver() )

  0000d	8b ce		 mov	 ecx, esi
  0000f	e8 00 00 00 00	 call	 ?IsBigBtnOver@GuildLineChatWnd@@QAE_NXZ ; GuildLineChatWnd::IsBigBtnOver
  00014	84 c0		 test	 al, al
  00016	74 1c		 je	 SHORT $LN1@OnProcess@2

; 757  : 	{
; 758  : 		ioLSMouse *pMouse = g_App.GetMouse();

  00018	e8 00 00 00 00	 call	 ?GetSingleton@ioApplication@@SAAAV1@XZ ; ioApplication::GetSingleton
  0001d	8d 88 90 00 00
	00		 lea	 ecx, DWORD PTR [eax+144]

; 759  : 		if( pMouse->IsLBtnUp() )

  00023	ff 15 00 00 00
	00		 call	 DWORD PTR __imp_?IsLBtnUp@ioMouse@@QBE_NXZ
  00029	84 c0		 test	 al, al
  0002b	74 07		 je	 SHORT $LN1@OnProcess@2

; 760  : 		{
; 761  : 			OpenMannerWnd();

  0002d	8b ce		 mov	 ecx, esi
  0002f	e8 00 00 00 00	 call	 ?OpenMannerWnd@GuildLineChatWnd@@QAEXXZ ; GuildLineChatWnd::OpenMannerWnd
$LN1@OnProcess@2:
  00034	5e		 pop	 esi

; 762  : 		}
; 763  : 	}
; 764  : }

  00035	c2 04 00	 ret	 4
?OnProcess@GuildLineChatWnd@@MAEXM@Z ENDP		; GuildLineChatWnd::OnProcess
; Function compile flags: /Ogsp
_TEXT	ENDS
;	COMDAT ??_GGuildChatWnd@@UAEPAXI@Z
_TEXT	SEGMENT
___flags$ = 8						; size = 4
??_GGuildChatWnd@@UAEPAXI@Z PROC			; GuildChatWnd::`scalar deleting destructor', COMDAT
; _this$ = ecx
  00000	55		 push	 ebp
  00001	8b ec		 mov	 ebp, esp
  00003	56		 push	 esi
  00004	8b f1		 mov	 esi, ecx
  00006	e8 00 00 00 00	 call	 ??1GuildChatWnd@@UAE@XZ	; GuildChatWnd::~GuildChatWnd
  0000b	f6 45 08 01	 test	 BYTE PTR ___flags$[ebp], 1
  0000f	74 07		 je	 SHORT $LN1@scalar@4
  00011	56		 push	 esi
  00012	e8 00 00 00 00	 call	 ??3@YAXPAX@Z		; operator delete
  00017	59		 pop	 ecx
$LN1@scalar@4:
  00018	8b c6		 mov	 eax, esi
  0001a	5e		 pop	 esi
  0001b	5d		 pop	 ebp
  0001c	c2 04 00	 ret	 4
??_GGuildChatWnd@@UAEPAXI@Z ENDP			; GuildChatWnd::`scalar deleting destructor'
; Function compile flags: /Ogsp
_TEXT	ENDS
;	COMDAT ?iwm_lbuttondown@GuildChatWnd@@UAEXABVioMouse@@@Z
_TEXT	SEGMENT
_mouse$ = 8						; size = 4
?iwm_lbuttondown@GuildChatWnd@@UAEXABVioMouse@@@Z PROC	; GuildChatWnd::iwm_lbuttondown, COMDAT
; _this$ = ecx

; 891  : {

  00000	55		 push	 ebp
  00001	8b ec		 mov	 ebp, esp
  00003	56		 push	 esi

; 892  : 	ioWnd::iwm_lbuttondown( mouse );

  00004	ff 75 08	 push	 DWORD PTR _mouse$[ebp]
  00007	8b f1		 mov	 esi, ecx
  00009	ff 15 00 00 00
	00		 call	 DWORD PTR __imp_?iwm_lbuttondown@ioWnd@@UAEXABVioMouse@@@Z

; 893  : 	SetChatFocus();

  0000f	8b ce		 mov	 ecx, esi
  00011	e8 00 00 00 00	 call	 ?SetChatFocus@GuildChatWnd@@QAEXXZ ; GuildChatWnd::SetChatFocus
  00016	5e		 pop	 esi

; 894  : }

  00017	5d		 pop	 ebp
  00018	c2 04 00	 ret	 4
?iwm_lbuttondown@GuildChatWnd@@UAEXABVioMouse@@@Z ENDP	; GuildChatWnd::iwm_lbuttondown
_TEXT	ENDS
PUBLIC	?SetScrollSetting@GuildChatWnd@@IAEX_N@Z	; GuildChatWnd::SetScrollSetting
; Function compile flags: /Ogsp
;	COMDAT ?SetScrollSetting@GuildChatWnd@@IAEX_N@Z
_TEXT	SEGMENT
_bSettingScrollPos$ = 8					; size = 1
?SetScrollSetting@GuildChatWnd@@IAEX_N@Z PROC		; GuildChatWnd::SetScrollSetting, COMDAT
; _this$ = ecx

; 897  : {

  00000	55		 push	 ebp
  00001	8b ec		 mov	 ebp, esp
  00003	57		 push	 edi

; 898  : 	ioScroll *pScroll = (ioScroll*)FindChildWnd( ID_VERT_SCROLL );

  00004	68 e8 03 00 00	 push	 1000			; 000003e8H
  00009	ff 15 00 00 00
	00		 call	 DWORD PTR __imp_?FindChildWnd@ioWnd@@QAEPAV1@K@Z
  0000f	8b f8		 mov	 edi, eax

; 899  : 	if( pScroll )

  00011	85 ff		 test	 edi, edi
  00013	74 46		 je	 SHORT $LN2@SetScrollS@2

; 900  : 	{
; 901  : 		int iTotalList = g_GuildChatMgr.GetChatInfoSize();

  00015	53		 push	 ebx
  00016	56		 push	 esi
  00017	e8 00 00 00 00	 call	 ?GetSingleton@ioGuildChatMgr@@SAAAV1@XZ ; ioGuildChatMgr::GetSingleton
  0001c	8b 70 08	 mov	 esi, DWORD PTR [eax+8]
  0001f	2b 70 04	 sub	 esi, DWORD PTR [eax+4]

; 902  : 		int iBeforMaxPos = pScroll->GetMaxPos();

  00022	8b cf		 mov	 ecx, edi
  00024	c1 fe 02	 sar	 esi, 2
  00027	ff 15 00 00 00
	00		 call	 DWORD PTR __imp_?GetMaxPos@ioScroll@@QBEHXZ

; 903  : 		pScroll->SetScrollRange( 0, iTotalList );

  0002d	56		 push	 esi
  0002e	8b d8		 mov	 ebx, eax
  00030	8b 07		 mov	 eax, DWORD PTR [edi]
  00032	6a 00		 push	 0
  00034	8b cf		 mov	 ecx, edi
  00036	ff 90 30 01 00
	00		 call	 DWORD PTR [eax+304]

; 904  : 		if ( pScroll->GetCurPos() == iBeforMaxPos || bSettingScrollPos )

  0003c	8b cf		 mov	 ecx, edi
  0003e	ff 15 00 00 00
	00		 call	 DWORD PTR __imp_?GetCurPos@ioScroll@@QBEHXZ
  00044	3b c3		 cmp	 eax, ebx
  00046	74 06		 je	 SHORT $LN1@SetScrollS@2
  00048	80 7d 08 00	 cmp	 BYTE PTR _bSettingScrollPos$[ebp], 0
  0004c	74 0b		 je	 SHORT $LN10@SetScrollS@2
$LN1@SetScrollS@2:

; 905  : 			pScroll->SetScrollPos( iTotalList );

  0004e	8b 07		 mov	 eax, DWORD PTR [edi]
  00050	56		 push	 esi
  00051	8b cf		 mov	 ecx, edi
  00053	ff 90 38 01 00
	00		 call	 DWORD PTR [eax+312]
$LN10@SetScrollS@2:
  00059	5e		 pop	 esi
  0005a	5b		 pop	 ebx
$LN2@SetScrollS@2:
  0005b	5f		 pop	 edi

; 906  : 	}
; 907  : }

  0005c	5d		 pop	 ebp
  0005d	c2 04 00	 ret	 4
?SetScrollSetting@GuildChatWnd@@IAEX_N@Z ENDP		; GuildChatWnd::SetScrollSetting
_TEXT	ENDS
PUBLIC	?ProcessChatInfo@GuildChatWnd@@IAEXXZ		; GuildChatWnd::ProcessChatInfo
; Function compile flags: /Ogsp
;	COMDAT ?ProcessChatInfo@GuildChatWnd@@IAEXXZ
_TEXT	SEGMENT
_pChatInfo$510857 = -20					; size = 4
_iSentenceIndex$ = -16					; size = 4
_this$ = -12						; size = 4
_pLineChatWnd$510858 = -8				; size = 4
_i$ = -4						; size = 4
?ProcessChatInfo@GuildChatWnd@@IAEXXZ PROC		; GuildChatWnd::ProcessChatInfo, COMDAT
; _this$ = ecx

; 1134 : {

  00000	55		 push	 ebp
  00001	8b ec		 mov	 ebp, esp
  00003	83 ec 14	 sub	 esp, 20			; 00000014H

; 1135 : 	int iSentenceIndex = -1;

  00006	83 4d f0 ff	 or	 DWORD PTR _iSentenceIndex$[ebp], -1
  0000a	53		 push	 ebx
  0000b	56		 push	 esi
  0000c	8b f1		 mov	 esi, ecx
  0000e	57		 push	 edi
  0000f	89 75 f4	 mov	 DWORD PTR _this$[ebp], esi

; 1136 : 	int iStartArray = m_iCurPage - max( MAX_LIST_SIZE - g_GuildChatMgr.GetChatInfoSize(), 0 );

  00012	e8 00 00 00 00	 call	 ?GetSingleton@ioGuildChatMgr@@SAAAV1@XZ ; ioGuildChatMgr::GetSingleton
  00017	8b 48 08	 mov	 ecx, DWORD PTR [eax+8]
  0001a	2b 48 04	 sub	 ecx, DWORD PTR [eax+4]
  0001d	6a 0a		 push	 10			; 0000000aH
  0001f	c1 f9 02	 sar	 ecx, 2
  00022	58		 pop	 eax
  00023	2b c1		 sub	 eax, ecx
  00025	85 c0		 test	 eax, eax
  00027	7e 15		 jle	 SHORT $LN16@ProcessCha@3
  00029	e8 00 00 00 00	 call	 ?GetSingleton@ioGuildChatMgr@@SAAAV1@XZ ; ioGuildChatMgr::GetSingleton
  0002e	8b 48 08	 mov	 ecx, DWORD PTR [eax+8]
  00031	2b 48 04	 sub	 ecx, DWORD PTR [eax+4]
  00034	6a 0a		 push	 10			; 0000000aH
  00036	c1 f9 02	 sar	 ecx, 2
  00039	58		 pop	 eax
  0003a	2b c1		 sub	 eax, ecx
  0003c	eb 02		 jmp	 SHORT $LN17@ProcessCha@3
$LN16@ProcessCha@3:
  0003e	33 c0		 xor	 eax, eax
$LN17@ProcessCha@3:
  00040	8b b6 60 01 00
	00		 mov	 esi, DWORD PTR [esi+352]

; 1137 : 	int i = 0;
; 1138 : 	for(i = ID_LINE_CHAT_WND_1;i < ID_LINE_CHAT_WND_1 + MAX_LIST_SIZE;i++, iStartArray++)

  00046	8b 3d 00 00 00
	00		 mov	 edi, DWORD PTR __imp_?FindChildWnd@ioWnd@@QAEPAV1@K@Z
  0004c	2b f0		 sub	 esi, eax
  0004e	c7 45 fc 65 00
	00 00		 mov	 DWORD PTR _i$[ebp], 101	; 00000065H
  00055	bb 00 00 00 00	 mov	 ebx, OFFSET ??_R0?AVioWnd@@@8
$LL13@ProcessCha@3:

; 1139 : 	{
; 1140 : 		ChatInfo *pChatInfo = g_GuildChatMgr.GetChatInfo( iStartArray );

  0005a	56		 push	 esi
  0005b	e8 00 00 00 00	 call	 ?GetSingleton@ioGuildChatMgr@@SAAAV1@XZ ; ioGuildChatMgr::GetSingleton
  00060	8b c8		 mov	 ecx, eax
  00062	e8 00 00 00 00	 call	 ?GetChatInfo@ioGuildChatMgr@@QAEPAUtagChatInfo@@H@Z ; ioGuildChatMgr::GetChatInfo

; 1141 : 		GuildLineChatWnd *pLineChatWnd = dynamic_cast<GuildLineChatWnd *>( FindChildWnd( i ));

  00067	8b 4d f4	 mov	 ecx, DWORD PTR _this$[ebp]
  0006a	6a 00		 push	 0
  0006c	68 00 00 00 00	 push	 OFFSET ??_R0?AVGuildLineChatWnd@@@8
  00071	53		 push	 ebx
  00072	6a 00		 push	 0
  00074	ff 75 fc	 push	 DWORD PTR _i$[ebp]
  00077	89 45 ec	 mov	 DWORD PTR _pChatInfo$510857[ebp], eax
  0007a	ff d7		 call	 edi
  0007c	50		 push	 eax
  0007d	e8 00 00 00 00	 call	 ___RTDynamicCast
  00082	8b c8		 mov	 ecx, eax
  00084	83 c4 14	 add	 esp, 20			; 00000014H
  00087	89 4d f8	 mov	 DWORD PTR _pLineChatWnd$510858[ebp], ecx

; 1142 : 		if(!pLineChatWnd) continue;

  0008a	85 c9		 test	 ecx, ecx
  0008c	74 31		 je	 SHORT $LN12@ProcessCha@3

; 1143 : 
; 1144 : 		pLineChatWnd->SetChatInfo( iStartArray);
; 1145 : 		if( pChatInfo )

  0008e	83 7d ec 00	 cmp	 DWORD PTR _pChatInfo$510857[ebp], 0
  00092	89 b1 60 01 00
	00		 mov	 DWORD PTR [ecx+352], esi
  00098	74 1f		 je	 SHORT $LN9@ProcessCha@3

; 1146 : 		{
; 1147 : 			pLineChatWnd->ShowWnd();

  0009a	ff 15 00 00 00
	00		 call	 DWORD PTR __imp_?ShowWnd@ioWnd@@QAEXXZ

; 1148 : 			if( pLineChatWnd->IsBigBtnOver() )

  000a0	8b 4d f8	 mov	 ecx, DWORD PTR _pLineChatWnd$510858[ebp]
  000a3	e8 00 00 00 00	 call	 ?IsBigBtnOver@GuildLineChatWnd@@QAE_NXZ ; GuildLineChatWnd::IsBigBtnOver
  000a8	84 c0		 test	 al, al
  000aa	74 13		 je	 SHORT $LN12@ProcessCha@3

; 1149 : 				iSentenceIndex = (int)pLineChatWnd->GetSentenceIndex();

  000ac	8b 4d f8	 mov	 ecx, DWORD PTR _pLineChatWnd$510858[ebp]
  000af	e8 00 00 00 00	 call	 ?GetSentenceIndex@GuildLineChatWnd@@QAEKXZ ; GuildLineChatWnd::GetSentenceIndex
  000b4	89 45 f0	 mov	 DWORD PTR _iSentenceIndex$[ebp], eax

; 1150 : 		}
; 1151 : 		else

  000b7	eb 06		 jmp	 SHORT $LN12@ProcessCha@3
$LN9@ProcessCha@3:

; 1152 : 			pLineChatWnd->HideWnd();

  000b9	ff 15 00 00 00
	00		 call	 DWORD PTR __imp_?HideWnd@ioWnd@@QAEXXZ
$LN12@ProcessCha@3:

; 1137 : 	int i = 0;
; 1138 : 	for(i = ID_LINE_CHAT_WND_1;i < ID_LINE_CHAT_WND_1 + MAX_LIST_SIZE;i++, iStartArray++)

  000bf	ff 45 fc	 inc	 DWORD PTR _i$[ebp]
  000c2	46		 inc	 esi
  000c3	83 7d fc 6f	 cmp	 DWORD PTR _i$[ebp], 111	; 0000006fH
  000c7	7c 91		 jl	 SHORT $LL13@ProcessCha@3

; 1153 : 	}	
; 1154 : 
; 1155 : 	// Process에서 마우스 오버 처리
; 1156 : 	// iwm_command에서 처리한듯한데 버그가 있다. 이유는 Command가 실시간이 아닌데 채팅 스크롤은 실시간으로 처리되므로 발생함.
; 1157 : 	for(i = ID_LINE_CHAT_WND_1;i < ID_LINE_CHAT_WND_1 + MAX_LIST_SIZE;i++)

  000c9	c7 45 fc 65 00
	00 00		 mov	 DWORD PTR _i$[ebp], 101	; 00000065H
$LL36@ProcessCha@3:

; 1158 : 	{
; 1159 : 		GuildLineChatWnd *pLineChatWnd = dynamic_cast<GuildLineChatWnd *>( FindChildWnd( i ));

  000d0	8b 4d f4	 mov	 ecx, DWORD PTR _this$[ebp]
  000d3	6a 00		 push	 0
  000d5	68 00 00 00 00	 push	 OFFSET ??_R0?AVGuildLineChatWnd@@@8
  000da	53		 push	 ebx
  000db	6a 00		 push	 0
  000dd	ff 75 fc	 push	 DWORD PTR _i$[ebp]
  000e0	ff d7		 call	 edi
  000e2	50		 push	 eax
  000e3	e8 00 00 00 00	 call	 ___RTDynamicCast
  000e8	8b f0		 mov	 esi, eax
  000ea	83 c4 14	 add	 esp, 20			; 00000014H

; 1160 : 		if( !pLineChatWnd ) continue;

  000ed	85 f6		 test	 esi, esi
  000ef	74 2c		 je	 SHORT $LN5@ProcessCha@3

; 1161 : 
; 1162 : 		if( g_App.IsMouseRender() && iSentenceIndex == (int)pLineChatWnd->GetSentenceIndex() )

  000f1	e8 00 00 00 00	 call	 ?GetSingleton@ioApplication@@SAAAV1@XZ ; ioApplication::GetSingleton
  000f6	8b c8		 mov	 ecx, eax
  000f8	e8 00 00 00 00	 call	 ?IsMouseRender@ioApplication@@QAE_NXZ ; ioApplication::IsMouseRender
  000fd	84 c0		 test	 al, al
  000ff	74 15		 je	 SHORT $LN2@ProcessCha@3
  00101	8b ce		 mov	 ecx, esi
  00103	e8 00 00 00 00	 call	 ?GetSentenceIndex@GuildLineChatWnd@@QAEKXZ ; GuildLineChatWnd::GetSentenceIndex
  00108	39 45 f0	 cmp	 DWORD PTR _iSentenceIndex$[ebp], eax
  0010b	75 09		 jne	 SHORT $LN2@ProcessCha@3

; 1163 : 			pLineChatWnd->SetBigBtnOver( true );

  0010d	c6 86 64 01 00
	00 01		 mov	 BYTE PTR [esi+356], 1

; 1164 : 		else 

  00114	eb 07		 jmp	 SHORT $LN5@ProcessCha@3
$LN2@ProcessCha@3:

; 1165 : 			pLineChatWnd->SetBigBtnOver( false );

  00116	c6 86 64 01 00
	00 00		 mov	 BYTE PTR [esi+356], 0
$LN5@ProcessCha@3:

; 1153 : 	}	
; 1154 : 
; 1155 : 	// Process에서 마우스 오버 처리
; 1156 : 	// iwm_command에서 처리한듯한데 버그가 있다. 이유는 Command가 실시간이 아닌데 채팅 스크롤은 실시간으로 처리되므로 발생함.
; 1157 : 	for(i = ID_LINE_CHAT_WND_1;i < ID_LINE_CHAT_WND_1 + MAX_LIST_SIZE;i++)

  0011d	ff 45 fc	 inc	 DWORD PTR _i$[ebp]
  00120	83 7d fc 6f	 cmp	 DWORD PTR _i$[ebp], 111	; 0000006fH
  00124	7c aa		 jl	 SHORT $LL36@ProcessCha@3
  00126	5f		 pop	 edi
  00127	5e		 pop	 esi
  00128	5b		 pop	 ebx

; 1166 : 	}
; 1167 : }

  00129	c9		 leave
  0012a	c3		 ret	 0
?ProcessChatInfo@GuildChatWnd@@IAEXXZ ENDP		; GuildChatWnd::ProcessChatInfo
_TEXT	ENDS
PUBLIC	?StringCbCopyA@@YGJPADIPBD@Z			; StringCbCopyA
; Function compile flags: /Ogsp
; File c:\program files (x86)\microsoft sdks\windows\v7.0a\include\strsafe.h
;	COMDAT ?StringCbCopyA@@YGJPADIPBD@Z
_TEXT	SEGMENT
_pszDest$ = 8						; size = 4
_cbDest$ = 12						; size = 4
_pszSrc$ = 16						; size = 4
?StringCbCopyA@@YGJPADIPBD@Z PROC			; StringCbCopyA, COMDAT

; 582  : {

  00000	55		 push	 ebp
  00001	8b ec		 mov	 ebp, esp

; 583  :     HRESULT hr;
; 584  :     size_t cchDest = cbDest / sizeof(char);
; 585  : 
; 586  :     hr = StringValidateDestA(pszDest, cchDest, STRSAFE_MAX_CCH);

  00003	8b 4d 0c	 mov	 ecx, DWORD PTR _cbDest$[ebp]
  00006	33 c0		 xor	 eax, eax
  00008	85 c9		 test	 ecx, ecx
  0000a	74 08		 je	 SHORT $LN4@StringCbCo
  0000c	81 f9 ff ff ff
	7f		 cmp	 ecx, 2147483647		; 7fffffffH
  00012	76 05		 jbe	 SHORT $LN5@StringCbCo
$LN4@StringCbCo:
  00014	b8 57 00 07 80	 mov	 eax, -2147024809	; 80070057H
$LN5@StringCbCo:

; 587  : 
; 588  :     if (SUCCEEDED(hr))

  00019	85 c0		 test	 eax, eax
  0001b	78 40		 js	 SHORT $LN1@StringCbCo

; 589  :     {
; 590  :         hr = StringCopyWorkerA(pszDest,
; 591  :                                cchDest,
; 592  :                                NULL,
; 593  :                                pszSrc,
; 594  :                                STRSAFE_MAX_LENGTH);

  0001d	8b 45 08	 mov	 eax, DWORD PTR _pszDest$[ebp]
  00020	53		 push	 ebx
  00021	33 db		 xor	 ebx, ebx
  00023	56		 push	 esi
  00024	8b f1		 mov	 esi, ecx
  00026	85 c9		 test	 ecx, ecx
  00028	74 26		 je	 SHORT $LN16@StringCbCo
  0002a	8b 55 10	 mov	 edx, DWORD PTR _pszSrc$[ebp]
  0002d	57		 push	 edi
  0002e	bf fe ff ff 7f	 mov	 edi, 2147483646		; 7ffffffeH
  00033	2b f9		 sub	 edi, ecx
  00035	2b d0		 sub	 edx, eax
$LL11@StringCbCo:
  00037	8d 0c 37	 lea	 ecx, DWORD PTR [edi+esi]
  0003a	85 c9		 test	 ecx, ecx
  0003c	74 0d		 je	 SHORT $LN10@StringCbCo
  0003e	8a 0c 02	 mov	 cl, BYTE PTR [edx+eax]
  00041	84 c9		 test	 cl, cl
  00043	74 06		 je	 SHORT $LN10@StringCbCo
  00045	88 08		 mov	 BYTE PTR [eax], cl
  00047	40		 inc	 eax
  00048	4e		 dec	 esi
  00049	75 ec		 jne	 SHORT $LL11@StringCbCo
$LN10@StringCbCo:
  0004b	5f		 pop	 edi
  0004c	85 f6		 test	 esi, esi
  0004e	75 06		 jne	 SHORT $LN9@StringCbCo
$LN16@StringCbCo:
  00050	48		 dec	 eax
  00051	bb 7a 00 07 80	 mov	 ebx, -2147024774	; 8007007aH
$LN9@StringCbCo:
  00056	c6 00 00	 mov	 BYTE PTR [eax], 0
  00059	5e		 pop	 esi
  0005a	8b c3		 mov	 eax, ebx
  0005c	5b		 pop	 ebx
$LN1@StringCbCo:

; 595  :     }
; 596  : 
; 597  :     return hr;
; 598  : }

  0005d	5d		 pop	 ebp
  0005e	c2 0c 00	 ret	 12			; 0000000cH
?StringCbCopyA@@YGJPADIPBD@Z ENDP			; StringCbCopyA
_TEXT	ENDS
EXTRN	__imp_?SetString@ioInputBox@@QAEXPBD@Z:PROC
EXTRN	__imp_?GetSingleton@ioInputBox@@SAAAV1@XZ:PROC
; Function compile flags: /Ogsp
; File d:\lost saga for developer\youtube\tutorial\source\src\lsclient\gui\channelchatwnd.cpp
;	COMDAT ?iwm_show@ChannelChatWnd@@UAEXXZ
_TEXT	SEGMENT
?iwm_show@ChannelChatWnd@@UAEXXZ PROC			; ChannelChatWnd::iwm_show, COMDAT
; _this$ = ecx

; 177  : {	

  00000	56		 push	 esi
  00001	57		 push	 edi

; 178  : 	SetScrollSetting( true );

  00002	6a 01		 push	 1
  00004	8b f1		 mov	 esi, ecx
  00006	e8 00 00 00 00	 call	 ?SetScrollSetting@ChannelChatWnd@@IAEX_N@Z ; ChannelChatWnd::SetScrollSetting

; 179  : 
; 180  : 	m_pPreEdit = ioEdit::m_pKeyFocusEdit;

  0000b	a1 00 00 00 00	 mov	 eax, DWORD PTR __imp_?m_pKeyFocusEdit@ioEdit@@2PAV1@A
  00010	8b 00		 mov	 eax, DWORD PTR [eax]

; 181  : 
; 182  : 	ioEdit *pEdit = (ioEdit*)FindChildWnd( ID_EDIT_CHAT );

  00012	6a 04		 push	 4
  00014	8b ce		 mov	 ecx, esi
  00016	89 86 68 01 00
	00		 mov	 DWORD PTR [esi+360], eax
  0001c	ff 15 00 00 00
	00		 call	 DWORD PTR __imp_?FindChildWnd@ioWnd@@QAEPAV1@K@Z
  00022	8b f8		 mov	 edi, eax

; 183  : 	if( pEdit )

  00024	85 ff		 test	 edi, edi
  00026	74 25		 je	 SHORT $LN1@iwm_show

; 184  : 	{
; 185  : 		pEdit->ClearString();

  00028	8b cf		 mov	 ecx, edi
  0002a	ff 15 00 00 00
	00		 call	 DWORD PTR __imp_?ClearString@ioEdit@@QAEXXZ

; 186  : 		pEdit->SetKeyFocus();

  00030	8b 07		 mov	 eax, DWORD PTR [edi]
  00032	8b cf		 mov	 ecx, edi
  00034	ff 90 30 01 00
	00		 call	 DWORD PTR [eax+304]

; 187  : 		g_InputBox.SetString( "" );	

  0003a	68 00 00 00 00	 push	 OFFSET ??_C@_00CNPNBAHC@?$AA@
  0003f	ff 15 00 00 00
	00		 call	 DWORD PTR __imp_?GetSingleton@ioInputBox@@SAAAV1@XZ
  00045	8b c8		 mov	 ecx, eax
  00047	ff 15 00 00 00
	00		 call	 DWORD PTR __imp_?SetString@ioInputBox@@QAEXPBD@Z
$LN1@iwm_show:

; 188  : 	}		
; 189  : 
; 190  : 	m_iChannelUserFrame = 0;

  0004d	83 a6 6c 01 00
	00 00		 and	 DWORD PTR [esi+364], 0

; 191  : 	m_dwChannelUserTimer= FRAMEGETTIME();

  00054	ff 15 00 00 00
	00		 call	 DWORD PTR __imp_?GetSingleton@ioFrameTimer@@SAAAV1@XZ
  0005a	8b c8		 mov	 ecx, eax
  0005c	ff 15 00 00 00
	00		 call	 DWORD PTR __imp_?GetLoopSec@ioFrameTimer@@QBEKXZ
  00062	5f		 pop	 edi
  00063	89 86 70 01 00
	00		 mov	 DWORD PTR [esi+368], eax

; 192  : 
; 193  : 	m_bSettingScrollPos = false;

  00069	c6 86 74 09 00
	00 00		 mov	 BYTE PTR [esi+2420], 0
  00070	5e		 pop	 esi

; 194  : }

  00071	c3		 ret	 0
?iwm_show@ChannelChatWnd@@UAEXXZ ENDP			; ChannelChatWnd::iwm_show
_TEXT	ENDS
PUBLIC	??_C@_0BN@OLBJEBCO@ChannelChatWnd?3?3MacroProcess?$AA@ ; `string'
PUBLIC	?MacroProcess@ChannelChatWnd@@IAE_NPBD@Z	; ChannelChatWnd::MacroProcess
EXTRN	??1ChatMacro@@UAE@XZ:PROC			; ChatMacro::~ChatMacro
EXTRN	?IsMacro@ChatMacro@@QAEHPADAAH@Z:PROC		; ChatMacro::IsMacro
EXTRN	??0ChatMacro@@QAE@XZ:PROC			; ChatMacro::ChatMacro
;	COMDAT ??_C@_0BN@OLBJEBCO@ChannelChatWnd?3?3MacroProcess?$AA@
CONST	SEGMENT
??_C@_0BN@OLBJEBCO@ChannelChatWnd?3?3MacroProcess?$AA@ DB 'ChannelChatWnd'
	DB	'::MacroProcess', 00H			; `string'
CONST	ENDS
;	COMDAT xdata$x
xdata$x	SEGMENT
__unwindtable$?MacroProcess@ChannelChatWnd@@IAE_NPBD@Z DD 0ffffffffH
	DD	FLAT:__unwindfunclet$?MacroProcess@ChannelChatWnd@@IAE_NPBD@Z$0
__ehfuncinfo$?MacroProcess@ChannelChatWnd@@IAE_NPBD@Z DD 019930522H
	DD	01H
	DD	FLAT:__unwindtable$?MacroProcess@ChannelChatWnd@@IAE_NPBD@Z
	DD	2 DUP(00H)
	DD	2 DUP(00H)
	DD	00H
	DD	01H
; Function compile flags: /Ogsp
xdata$x	ENDS
;	COMDAT ?MacroProcess@ChannelChatWnd@@IAE_NPBD@Z
_TEXT	SEGMENT
_key_word$ = -288					; size = 4
_cm$ = -284						; size = 4
_szMacro$ = -280					; size = 261
__$EHRec$ = -12						; size = 12
_szChat$ = 8						; size = 4
?MacroProcess@ChannelChatWnd@@IAE_NPBD@Z PROC		; ChannelChatWnd::MacroProcess, COMDAT
; _this$ = ecx

; 339  : {

  00000	68 14 01 00 00	 push	 276			; 00000114H
  00005	b8 00 00 00 00	 mov	 eax, __ehhandler$?MacroProcess@ChannelChatWnd@@IAE_NPBD@Z
  0000a	e8 00 00 00 00	 call	 __EH_prolog3_GS

; 340  : 	char szMacro[MAX_EDIT_TEXT+1] = "";

  0000f	33 db		 xor	 ebx, ebx
  00011	68 04 01 00 00	 push	 260			; 00000104H
  00016	8d 85 e9 fe ff
	ff		 lea	 eax, DWORD PTR _szMacro$[ebp+1]
  0001c	53		 push	 ebx
  0001d	50		 push	 eax
  0001e	8b f9		 mov	 edi, ecx
  00020	88 9d e8 fe ff
	ff		 mov	 BYTE PTR _szMacro$[ebp], bl
  00026	e8 00 00 00 00	 call	 _memset

; 341  : 	strcpy( szMacro, szChat );

  0002b	8b 75 08	 mov	 esi, DWORD PTR _szChat$[ebp]
  0002e	8d 85 e8 fe ff
	ff		 lea	 eax, DWORD PTR _szMacro$[ebp]
  00034	83 c4 0c	 add	 esp, 12			; 0000000cH
  00037	8b ce		 mov	 ecx, esi
  00039	2b c6		 sub	 eax, esi
$LL8@MacroProce:
  0003b	8a 11		 mov	 dl, BYTE PTR [ecx]
  0003d	88 14 08	 mov	 BYTE PTR [eax+ecx], dl
  00040	41		 inc	 ecx
  00041	3a d3		 cmp	 dl, bl
  00043	75 f6		 jne	 SHORT $LL8@MacroProce

; 342  : 
; 343  : 	ChatMacro cm;

  00045	8d 8d e4 fe ff
	ff		 lea	 ecx, DWORD PTR _cm$[ebp]
  0004b	e8 00 00 00 00	 call	 ??0ChatMacro@@QAE@XZ	; ChatMacro::ChatMacro

; 344  : 	int key_word   = 0;
; 345  : 	int macro_type = cm.IsMacro( szMacro, key_word );

  00050	8d 85 e0 fe ff
	ff		 lea	 eax, DWORD PTR _key_word$[ebp]
  00056	50		 push	 eax
  00057	8d 85 e8 fe ff
	ff		 lea	 eax, DWORD PTR _szMacro$[ebp]
  0005d	50		 push	 eax
  0005e	8d 8d e4 fe ff
	ff		 lea	 ecx, DWORD PTR _cm$[ebp]
  00064	89 5d fc	 mov	 DWORD PTR __$EHRec$[ebp+8], ebx
  00067	89 9d e0 fe ff
	ff		 mov	 DWORD PTR _key_word$[ebp], ebx
  0006d	e8 00 00 00 00	 call	 ?IsMacro@ChatMacro@@QAEHPADAAH@Z ; ChatMacro::IsMacro

; 346  : 
; 347  : 	switch( macro_type )

  00072	83 f8 0b	 cmp	 eax, 11			; 0000000bH
  00075	74 3d		 je	 SHORT $LN3@MacroProce

; 352  : 	default:
; 353  : 		if( szChat[0] == '/')

  00077	80 3e 2f	 cmp	 BYTE PTR [esi], 47	; 0000002fH
  0007a	75 25		 jne	 SHORT $LN1@MacroProce

; 354  : 		{
; 355  : 			ErrorEdit( STR(1) );

  0007c	53		 push	 ebx
  0007d	6a 01		 push	 1
  0007f	68 00 00 00 00	 push	 OFFSET ??_C@_00CNPNBAHC@?$AA@
  00084	68 00 00 00 00	 push	 OFFSET ??_C@_0BN@OLBJEBCO@ChannelChatWnd?3?3MacroProcess?$AA@
  00089	ff 15 00 00 00
	00		 call	 DWORD PTR __imp_?GetSingleton@ioStringManager@@SAAAV1@XZ
  0008f	8b c8		 mov	 ecx, eax
  00091	ff 15 00 00 00
	00		 call	 DWORD PTR __imp_?GetString@ioStringManager@@QAEPADPBD0HW4FileNamePrefix@1@@Z
  00097	50		 push	 eax
  00098	8b cf		 mov	 ecx, edi
  0009a	e8 00 00 00 00	 call	 ?ErrorEdit@ChannelChatWnd@@QAEXPAD@Z ; ChannelChatWnd::ErrorEdit

; 356  : 			return true;

  0009f	eb 28		 jmp	 SHORT $LN12@MacroProce
$LN1@MacroProce:

; 357  : 		}
; 358  : 	}
; 359  : 
; 360  : 	return false;

  000a1	83 4d fc ff	 or	 DWORD PTR __$EHRec$[ebp+8], -1
  000a5	8d 8d e4 fe ff
	ff		 lea	 ecx, DWORD PTR _cm$[ebp]
  000ab	e8 00 00 00 00	 call	 ??1ChatMacro@@UAE@XZ	; ChatMacro::~ChatMacro
  000b0	32 c0		 xor	 al, al
  000b2	eb 26		 jmp	 SHORT $LN6@MacroProce
$LN3@MacroProce:

; 348  : 	{
; 349  : 	case ChatMacro::MACRO_INVITE_CHANNEL:
; 350  : 		OnInvite( &szMacro[key_word] );

  000b4	8b 85 e0 fe ff
	ff		 mov	 eax, DWORD PTR _key_word$[ebp]
  000ba	8d 84 05 e8 fe
	ff ff		 lea	 eax, DWORD PTR _szMacro$[ebp+eax]
  000c1	50		 push	 eax
  000c2	8b cf		 mov	 ecx, edi
  000c4	e8 00 00 00 00	 call	 ?OnInvite@ChannelChatWnd@@IAEXPAD@Z ; ChannelChatWnd::OnInvite
$LN12@MacroProce:

; 351  : 		return true;

  000c9	83 4d fc ff	 or	 DWORD PTR __$EHRec$[ebp+8], -1
  000cd	8d 8d e4 fe ff
	ff		 lea	 ecx, DWORD PTR _cm$[ebp]
  000d3	e8 00 00 00 00	 call	 ??1ChatMacro@@UAE@XZ	; ChatMacro::~ChatMacro
  000d8	b0 01		 mov	 al, 1
$LN6@MacroProce:

; 361  : }

  000da	e8 00 00 00 00	 call	 __EH_epilog3_GS
  000df	c2 04 00	 ret	 4
_TEXT	ENDS
;	COMDAT text$x
text$x	SEGMENT
__unwindfunclet$?MacroProcess@ChannelChatWnd@@IAE_NPBD@Z$0:
  00000	8d 8d e4 fe ff
	ff		 lea	 ecx, DWORD PTR _cm$[ebp]
  00006	e9 00 00 00 00	 jmp	 ??1ChatMacro@@UAE@XZ	; ChatMacro::~ChatMacro
__ehhandler$?MacroProcess@ChannelChatWnd@@IAE_NPBD@Z:
  0000b	8b 54 24 08	 mov	 edx, DWORD PTR [esp+8]
  0000f	8d 42 0c	 lea	 eax, DWORD PTR [edx+12]
  00012	8b 8a dc fe ff
	ff		 mov	 ecx, DWORD PTR [edx-292]
  00018	33 c8		 xor	 ecx, eax
  0001a	e8 00 00 00 00	 call	 @__security_check_cookie@4
  0001f	8b 4a fc	 mov	 ecx, DWORD PTR [edx-4]
  00022	33 c8		 xor	 ecx, eax
  00024	e8 00 00 00 00	 call	 @__security_check_cookie@4
  00029	b8 00 00 00 00	 mov	 eax, OFFSET __ehfuncinfo$?MacroProcess@ChannelChatWnd@@IAE_NPBD@Z
  0002e	e9 00 00 00 00	 jmp	 ___CxxFrameHandler3
text$x	ENDS
?MacroProcess@ChannelChatWnd@@IAE_NPBD@Z ENDP		; ChannelChatWnd::MacroProcess
EXTRN	?ClearUpdate@ioChannelManager@@QAEXH@Z:PROC	; ioChannelManager::ClearUpdate
EXTRN	?IsUpdate@ioChannelManager@@QAE_NH@Z:PROC	; ioChannelManager::IsUpdate
; Function compile flags: /Ogsp
;	COMDAT ?OnProcess@ChannelChatWnd@@MAEXM@Z
_TEXT	SEGMENT
_fTimePerSec$ = 8					; size = 4
?OnProcess@ChannelChatWnd@@MAEXM@Z PROC			; ChannelChatWnd::OnProcess, COMDAT
; _this$ = ecx

; 559  : {

  00000	57		 push	 edi
  00001	8b f9		 mov	 edi, ecx

; 560  : 	if( !IsShow() )	return;	

  00003	ff 15 00 00 00
	00		 call	 DWORD PTR __imp_?IsShow@ioWnd@@QBE_NXZ
  00009	84 c0		 test	 al, al
  0000b	74 4e		 je	 SHORT $LN3@OnProcess@3

; 561  : 
; 562  : 	if( g_ChannelManager.IsUpdate( m_iChannelIdx ) )

  0000d	56		 push	 esi
  0000e	ff b7 64 01 00
	00		 push	 DWORD PTR [edi+356]
  00014	e8 00 00 00 00	 call	 ?GetSingleton@ioChannelManager@@SAAAV1@XZ ; ioChannelManager::GetSingleton
  00019	8b c8		 mov	 ecx, eax
  0001b	e8 00 00 00 00	 call	 ?IsUpdate@ioChannelManager@@QAE_NH@Z ; ioChannelManager::IsUpdate
  00020	84 c0		 test	 al, al
  00022	74 28		 je	 SHORT $LN1@OnProcess@3

; 563  : 	{
; 564  : 		g_ChannelManager.ClearUpdate( m_iChannelIdx );

  00024	ff b7 64 01 00
	00		 push	 DWORD PTR [edi+356]
  0002a	e8 00 00 00 00	 call	 ?GetSingleton@ioChannelManager@@SAAAV1@XZ ; ioChannelManager::GetSingleton
  0002f	8b c8		 mov	 ecx, eax
  00031	e8 00 00 00 00	 call	 ?ClearUpdate@ioChannelManager@@QAEXH@Z ; ioChannelManager::ClearUpdate

; 565  : 		SetScrollSetting( m_bSettingScrollPos );

  00036	0f b6 87 74 09
	00 00		 movzx	 eax, BYTE PTR [edi+2420]
  0003d	50		 push	 eax
  0003e	8b cf		 mov	 ecx, edi
  00040	e8 00 00 00 00	 call	 ?SetScrollSetting@ChannelChatWnd@@IAEX_N@Z ; ChannelChatWnd::SetScrollSetting

; 566  : 		m_bSettingScrollPos = false;

  00045	c6 87 74 09 00
	00 00		 mov	 BYTE PTR [edi+2420], 0
$LN1@OnProcess@3:

; 567  : 	}
; 568  : 
; 569  : 	ProcessChannelUser();

  0004c	8b cf		 mov	 ecx, edi
  0004e	e8 00 00 00 00	 call	 ?ProcessChannelUser@ChannelChatWnd@@IAEXXZ ; ChannelChatWnd::ProcessChannelUser

; 570  : 	ProcessChatInfo();

  00053	8b cf		 mov	 ecx, edi
  00055	e8 00 00 00 00	 call	 ?ProcessChatInfo@ChannelChatWnd@@IAEXXZ ; ChannelChatWnd::ProcessChatInfo
  0005a	5e		 pop	 esi
$LN3@OnProcess@3:
  0005b	5f		 pop	 edi

; 571  : }

  0005c	c2 04 00	 ret	 4
?OnProcess@ChannelChatWnd@@MAEXM@Z ENDP			; ChannelChatWnd::OnProcess
_TEXT	ENDS
PUBLIC	__$ArrayPad$
; Function compile flags: /Ogsp
;	COMDAT ?iwm_show@GuildChatWnd@@UAEXXZ
_TEXT	SEGMENT
_szGuildUser$ = -2052					; size = 2048
__$ArrayPad$ = -4					; size = 4
?iwm_show@GuildChatWnd@@UAEXXZ PROC			; GuildChatWnd::iwm_show, COMDAT
; _this$ = ecx

; 808  : {	

  00000	55		 push	 ebp
  00001	8b ec		 mov	 ebp, esp
  00003	81 ec 04 08 00
	00		 sub	 esp, 2052		; 00000804H
  00009	a1 00 00 00 00	 mov	 eax, DWORD PTR ___security_cookie
  0000e	33 c5		 xor	 eax, ebp
  00010	89 45 fc	 mov	 DWORD PTR __$ArrayPad$[ebp], eax
  00013	56		 push	 esi
  00014	57		 push	 edi

; 809  : 	SetScrollSetting( true );

  00015	6a 01		 push	 1
  00017	8b f1		 mov	 esi, ecx
  00019	e8 00 00 00 00	 call	 ?SetScrollSetting@GuildChatWnd@@IAEX_N@Z ; GuildChatWnd::SetScrollSetting

; 810  : 
; 811  : 	m_pPreEdit = ioEdit::m_pKeyFocusEdit;

  0001e	a1 00 00 00 00	 mov	 eax, DWORD PTR __imp_?m_pKeyFocusEdit@ioEdit@@2PAV1@A
  00023	8b 00		 mov	 eax, DWORD PTR [eax]

; 812  : 
; 813  : 	ioEdit *pEdit = (ioEdit*)FindChildWnd( ID_EDIT_CHAT );

  00025	6a 04		 push	 4
  00027	8b ce		 mov	 ecx, esi
  00029	89 86 64 01 00
	00		 mov	 DWORD PTR [esi+356], eax
  0002f	ff 15 00 00 00
	00		 call	 DWORD PTR __imp_?FindChildWnd@ioWnd@@QAEPAV1@K@Z
  00035	8b f8		 mov	 edi, eax

; 814  : 	if( pEdit )

  00037	85 ff		 test	 edi, edi
  00039	74 25		 je	 SHORT $LN1@iwm_show@2

; 815  : 	{
; 816  : 		pEdit->ClearString();

  0003b	8b cf		 mov	 ecx, edi
  0003d	ff 15 00 00 00
	00		 call	 DWORD PTR __imp_?ClearString@ioEdit@@QAEXXZ

; 817  : 		pEdit->SetKeyFocus();

  00043	8b 07		 mov	 eax, DWORD PTR [edi]
  00045	8b cf		 mov	 ecx, edi
  00047	ff 90 30 01 00
	00		 call	 DWORD PTR [eax+304]

; 818  : 		g_InputBox.SetString("");	

  0004d	68 00 00 00 00	 push	 OFFSET ??_C@_00CNPNBAHC@?$AA@
  00052	ff 15 00 00 00
	00		 call	 DWORD PTR __imp_?GetSingleton@ioInputBox@@SAAAV1@XZ
  00058	8b c8		 mov	 ecx, eax
  0005a	ff 15 00 00 00
	00		 call	 DWORD PTR __imp_?SetString@ioInputBox@@QAEXPBD@Z
$LN1@iwm_show@2:

; 819  : 	}		
; 820  : 
; 821  : 	m_iGuildUserFrame = 0;

  00060	83 a6 68 01 00
	00 00		 and	 DWORD PTR [esi+360], 0

; 822  : 	m_dwGuildUserTimer= FRAMEGETTIME();

  00067	ff 15 00 00 00
	00		 call	 DWORD PTR __imp_?GetSingleton@ioFrameTimer@@SAAAV1@XZ
  0006d	8b c8		 mov	 ecx, eax
  0006f	ff 15 00 00 00
	00		 call	 DWORD PTR __imp_?GetLoopSec@ioFrameTimer@@QBEKXZ

; 823  : 
; 824  : 	float fScale = FONT_SIZE_12;
; 825  : 	float fWidhtSize = 208.0f;
; 826  : 
; 827  : 	char szGuildUser[2048] = "";
; 828  : 	memset( szGuildUser, 0, sizeof( szGuildUser ) );

  00075	bf 00 08 00 00	 mov	 edi, 2048		; 00000800H
  0007a	57		 push	 edi
  0007b	89 86 6c 01 00
	00		 mov	 DWORD PTR [esi+364], eax
  00081	8d 85 fc f7 ff
	ff		 lea	 eax, DWORD PTR _szGuildUser$[ebp]
  00087	6a 00		 push	 0
  00089	50		 push	 eax
  0008a	e8 00 00 00 00	 call	 _memset
  0008f	83 c4 0c	 add	 esp, 12			; 0000000cH

; 829  : 	g_GuildChatMgr.GetUserName( szGuildUser, 2000 );

  00092	8d 85 fc f7 ff
	ff		 lea	 eax, DWORD PTR _szGuildUser$[ebp]
  00098	68 d0 07 00 00	 push	 2000			; 000007d0H
  0009d	50		 push	 eax
  0009e	e8 00 00 00 00	 call	 ?GetSingleton@ioGuildChatMgr@@SAAAV1@XZ ; ioGuildChatMgr::GetSingleton
  000a3	8b c8		 mov	 ecx, eax
  000a5	e8 00 00 00 00	 call	 ?GetUserNameA@ioGuildChatMgr@@QAEXPADH@Z ; ioGuildChatMgr::GetUserNameA

; 830  : 	Help::StringCutFun( fScale, fWidhtSize, TS_NORMAL, m_szGuildUser, sizeof(m_szGuildUser), szGuildUser );

  000aa	f3 0f 10 05 00
	00 00 00	 movss	 xmm0, DWORD PTR __real@43500000
  000b2	8d 85 fc f7 ff
	ff		 lea	 eax, DWORD PTR _szGuildUser$[ebp]
  000b8	50		 push	 eax
  000b9	57		 push	 edi
  000ba	8d 86 70 01 00
	00		 lea	 eax, DWORD PTR [esi+368]
  000c0	50		 push	 eax
  000c1	6a 00		 push	 0
  000c3	51		 push	 ecx
  000c4	51		 push	 ecx
  000c5	f3 0f 11 44 24
	04		 movss	 DWORD PTR [esp+4], xmm0
  000cb	f3 0f 10 05 00
	00 00 00	 movss	 xmm0, DWORD PTR __real@3f19999a
  000d3	f3 0f 11 04 24	 movss	 DWORD PTR [esp], xmm0
  000d8	e8 00 00 00 00	 call	 ?StringCutFun@Help@@YAHMMHPADHPBD@Z ; Help::StringCutFun

; 831  : 
; 832  : 	m_bSettingScrollPos = false;
; 833  : }

  000dd	8b 4d fc	 mov	 ecx, DWORD PTR __$ArrayPad$[ebp]
  000e0	83 c4 18	 add	 esp, 24			; 00000018H
  000e3	5f		 pop	 edi
  000e4	c6 86 70 09 00
	00 00		 mov	 BYTE PTR [esi+2416], 0
  000eb	33 cd		 xor	 ecx, ebp
  000ed	5e		 pop	 esi
  000ee	e8 00 00 00 00	 call	 @__security_check_cookie@4
  000f3	c9		 leave
  000f4	c3		 ret	 0
?iwm_show@GuildChatWnd@@UAEXXZ ENDP			; GuildChatWnd::iwm_show
_TEXT	ENDS
PUBLIC	??_C@_02DKCKIIND@?$CFs?$AA@			; `string'
PUBLIC	??_C@_0BH@HHIPFAKH@GuildChatWnd?3?3SendChat?$AA@ ; `string'
PUBLIC	_this$GSCopy$
PUBLIC	__$ArrayPad$
PUBLIC	?SendChat@GuildChatWnd@@QAEXXZ			; GuildChatWnd::SendChat
EXTRN	?SendChatLog@ioSP2ChatManager@@QAEXW4TrialType@ioMannerTrialChatManager@@PBD1W4ModeType@@H@Z:PROC ; ioSP2ChatManager::SendChatLog
EXTRN	?GetSingleton@ioSP2ChatManager@@SAAAV1@XZ:PROC	; ioSP2ChatManager::GetSingleton
EXTRN	??6SP2Packet@@QAEAAV0@PAD@Z:PROC		; SP2Packet::operator<<
EXTRN	??6SP2Packet@@QAEAAV0@K@Z:PROC			; SP2Packet::operator<<
EXTRN	?IsGuild@ioGuildInfo@@QAE_NXZ:PROC		; ioGuildInfo::IsGuild
EXTRN	?GetSingleton@ioGuildInfo@@SAAAV1@XZ:PROC	; ioGuildInfo::GetSingleton
EXTRN	?OnChat@ioGuildChatMgr@@QAEXVioHashString@@0@Z:PROC ; ioGuildChatMgr::OnChat
EXTRN	__imp_??4ioHashString@@QAEAAV0@PBD@Z:PROC
EXTRN	?ConvertStringWithPreLine@CSlangUtil@@QAEPBDPBD@Z:PROC ; CSlangUtil::ConvertStringWithPreLine
EXTRN	?GetSingleton@CSlangUtil@@SAAAV1@XZ:PROC	; CSlangUtil::GetSingleton
EXTRN	__imp_?GetText@ioEdit@@QBEPBDXZ:PROC
EXTRN	__imp_?SetChildActive@ioWnd@@QAEXK@Z:PROC
EXTRN	__imp_?SetChildInActive@ioWnd@@QAEXK@Z:PROC
;	COMDAT ??_C@_02DKCKIIND@?$CFs?$AA@
; File d:\lost saga for developer\youtube\tutorial\source\src\lsclient\iomyinfo.h
CONST	SEGMENT
??_C@_02DKCKIIND@?$CFs?$AA@ DB '%s', 00H		; `string'
CONST	ENDS
;	COMDAT ??_C@_0BH@HHIPFAKH@GuildChatWnd?3?3SendChat?$AA@
CONST	SEGMENT
??_C@_0BH@HHIPFAKH@GuildChatWnd?3?3SendChat?$AA@ DB 'GuildChatWnd::SendCh'
	DB	'at', 00H					; `string'
CONST	ENDS
;	COMDAT xdata$x
xdata$x	SEGMENT
__unwindtable$?SendChat@GuildChatWnd@@QAEXXZ DD 0ffffffffH
	DD	FLAT:__unwindfunclet$?SendChat@GuildChatWnd@@QAEXXZ$0
	DD	00H
	DD	FLAT:__unwindfunclet$?SendChat@GuildChatWnd@@QAEXXZ$1
	DD	01H
	DD	FLAT:__unwindfunclet$?SendChat@GuildChatWnd@@QAEXXZ$2
	DD	00H
	DD	FLAT:__unwindfunclet$?SendChat@GuildChatWnd@@QAEXXZ$3
__ehfuncinfo$?SendChat@GuildChatWnd@@QAEXXZ DD 019930522H
	DD	04H
	DD	FLAT:__unwindtable$?SendChat@GuildChatWnd@@QAEXXZ
	DD	2 DUP(00H)
	DD	2 DUP(00H)
	DD	00H
	DD	01H
; Function compile flags: /Ogsp
; File d:\lost saga for developer\youtube\tutorial\source\src\lsclient\gui\channelchatwnd.cpp
xdata$x	ENDS
;	COMDAT ?SendChat@GuildChatWnd@@QAEXXZ
_TEXT	SEGMENT
$T511681 = -33356					; size = 4
$T511680 = -33352					; size = 4
_szOwnerChat$510761 = -33348				; size = 16
_this$GSCopy$ = -33332					; size = 4
_kPacket$510767 = -33328				; size = 32792
_szChatBuf$510760 = -536				; size = 260
_szChat$510758 = -276					; size = 260
__$ArrayPad$ = -16					; size = 4
__$EHRec$ = -12						; size = 12
?SendChat@GuildChatWnd@@QAEXXZ PROC			; GuildChatWnd::SendChat, COMDAT
; _this$ = ecx

; 910  : {

  00000	55		 push	 ebp
  00001	8b ec		 mov	 ebp, esp
  00003	6a ff		 push	 -1
  00005	68 00 00 00 00	 push	 __ehhandler$?SendChat@GuildChatWnd@@QAEXXZ
  0000a	64 a1 00 00 00
	00		 mov	 eax, DWORD PTR fs:0
  00010	50		 push	 eax
  00011	b8 40 82 00 00	 mov	 eax, 33344		; 00008240H
  00016	e8 00 00 00 00	 call	 __chkstk
  0001b	a1 00 00 00 00	 mov	 eax, DWORD PTR ___security_cookie
  00020	33 c5		 xor	 eax, ebp
  00022	89 45 f0	 mov	 DWORD PTR __$ArrayPad$[ebp], eax
  00025	53		 push	 ebx
  00026	56		 push	 esi
  00027	57		 push	 edi
  00028	50		 push	 eax
  00029	8d 45 f4	 lea	 eax, DWORD PTR __$EHRec$[ebp]
  0002c	64 a3 00 00 00
	00		 mov	 DWORD PTR fs:0, eax
  00032	8b f9		 mov	 edi, ecx

; 911  : 	ioEdit *pEdit = (ioEdit*)FindChildWnd( ID_EDIT_CHAT );

  00034	6a 04		 push	 4

; 945  : 			{
; 946  : 				SP2Packet kPacket( CTPK_GUILD_CHAT );

  00036	89 bd cc 7d ff
	ff		 mov	 DWORD PTR _this$GSCopy$[ebp], edi
  0003c	ff 15 00 00 00
	00		 call	 DWORD PTR __imp_?FindChildWnd@ioWnd@@QAEPAV1@K@Z
  00042	8b f0		 mov	 esi, eax
  00044	33 db		 xor	 ebx, ebx
  00046	3b f3		 cmp	 esi, ebx
  00048	0f 84 4f 02 00
	00		 je	 $LN7@SendChat

; 912  : 	if( pEdit )
; 913  : 	{
; 914  : 		if( g_MyInfo.GetBlockType() == BKT_LIMITATION )

  0004e	e8 00 00 00 00	 call	 ?GetSingleton@ioMyInfo@@SAAAV1@XZ ; ioMyInfo::GetSingleton
  00053	8b c8		 mov	 ecx, eax
  00055	e8 00 00 00 00	 call	 ?GetBlockType@ioMyInfo@@QBE?AW4BlockType@@XZ ; ioMyInfo::GetBlockType

; 915  : 		{
; 916  : 			SetChildInActive( ID_EDIT_CHAT );

  0005a	6a 04		 push	 4
  0005c	8b cf		 mov	 ecx, edi
  0005e	83 f8 14	 cmp	 eax, 20			; 00000014H
  00061	75 51		 jne	 SHORT $LN6@SendChat
  00063	ff 15 00 00 00
	00		 call	 DWORD PTR __imp_?SetChildInActive@ioWnd@@QAEXK@Z

; 917  : 
; 918  : 			pEdit->ClearString();

  00069	8b ce		 mov	 ecx, esi
  0006b	ff 15 00 00 00
	00		 call	 DWORD PTR __imp_?ClearString@ioEdit@@QAEXXZ

; 919  : 			pEdit->SetKeyFocus();

  00071	8b 06		 mov	 eax, DWORD PTR [esi]
  00073	8b ce		 mov	 ecx, esi
  00075	ff 90 30 01 00
	00		 call	 DWORD PTR [eax+304]

; 920  : 			g_InputBox.SetString( STR(1) );	

  0007b	53		 push	 ebx
  0007c	6a 01		 push	 1
  0007e	68 00 00 00 00	 push	 OFFSET ??_C@_00CNPNBAHC@?$AA@
  00083	68 00 00 00 00	 push	 OFFSET ??_C@_0BH@HHIPFAKH@GuildChatWnd?3?3SendChat?$AA@
  00088	ff 15 00 00 00
	00		 call	 DWORD PTR __imp_?GetSingleton@ioStringManager@@SAAAV1@XZ
  0008e	8b c8		 mov	 ecx, eax
  00090	ff 15 00 00 00
	00		 call	 DWORD PTR __imp_?GetString@ioStringManager@@QAEPADPBD0HW4FileNamePrefix@1@@Z
  00096	50		 push	 eax
  00097	ff 15 00 00 00
	00		 call	 DWORD PTR __imp_?GetSingleton@ioInputBox@@SAAAV1@XZ
  0009d	8b c8		 mov	 ecx, eax
  0009f	ff 15 00 00 00
	00		 call	 DWORD PTR __imp_?SetString@ioInputBox@@QAEXPBD@Z

; 921  : 			pEdit->KillKeyFocus();

  000a5	8b 06		 mov	 eax, DWORD PTR [esi]
  000a7	8b ce		 mov	 ecx, esi
  000a9	ff 90 34 01 00
	00		 call	 DWORD PTR [eax+308]

; 922  : 			return;		

  000af	e9 e9 01 00 00	 jmp	 $LN7@SendChat
$LN6@SendChat:

; 923  : 		}
; 924  : 		else 
; 925  : 			SetChildActive( ID_EDIT_CHAT );

  000b4	ff 15 00 00 00
	00		 call	 DWORD PTR __imp_?SetChildActive@ioWnd@@QAEXK@Z

; 926  : 
; 927  : 		char szChat[MAX_PATH] = "";

  000ba	68 03 01 00 00	 push	 259			; 00000103H
  000bf	8d 85 ed fe ff
	ff		 lea	 eax, DWORD PTR _szChat$510758[ebp+1]
  000c5	53		 push	 ebx
  000c6	50		 push	 eax
  000c7	88 9d ec fe ff
	ff		 mov	 BYTE PTR _szChat$510758[ebp], bl
  000cd	e8 00 00 00 00	 call	 _memset
  000d2	83 c4 0c	 add	 esp, 12			; 0000000cH

; 928  : 		sprintf( szChat, "%s", pEdit->GetText() );

  000d5	8b ce		 mov	 ecx, esi
  000d7	ff 15 00 00 00
	00		 call	 DWORD PTR __imp_?GetText@ioEdit@@QBEPBDXZ
  000dd	50		 push	 eax
  000de	8d 85 ec fe ff
	ff		 lea	 eax, DWORD PTR _szChat$510758[ebp]
  000e4	68 00 00 00 00	 push	 OFFSET ??_C@_02DKCKIIND@?$CFs?$AA@
  000e9	50		 push	 eax
  000ea	ff 15 00 00 00
	00		 call	 DWORD PTR __imp__sprintf

; 929  : 		if( strcmp( szChat, "" ) == 0 )

  000f0	33 c9		 xor	 ecx, ecx
  000f2	83 c4 0c	 add	 esp, 12			; 0000000cH
  000f5	41		 inc	 ecx
  000f6	bf 00 00 00 00	 mov	 edi, OFFSET ??_C@_00CNPNBAHC@?$AA@
  000fb	8d b5 ec fe ff
	ff		 lea	 esi, DWORD PTR _szChat$510758[ebp]
  00101	33 c0		 xor	 eax, eax
  00103	f3 a6		 repe cmpsb
  00105	74 05		 je	 SHORT $LN24@SendChat
  00107	1b c0		 sbb	 eax, eax
  00109	83 d8 ff	 sbb	 eax, -1
$LN24@SendChat:
  0010c	3b c3		 cmp	 eax, ebx
  0010e	0f 84 89 01 00
	00		 je	 $LN7@SendChat

; 930  : 			return;
; 931  : 
; 932  : 		char szChatBuf[MAX_PATH] = "";

  00114	68 03 01 00 00	 push	 259			; 00000103H
  00119	8d 85 e9 fd ff
	ff		 lea	 eax, DWORD PTR _szChatBuf$510760[ebp+1]
  0011f	53		 push	 ebx
  00120	50		 push	 eax
  00121	88 9d e8 fd ff
	ff		 mov	 BYTE PTR _szChatBuf$510760[ebp], bl
  00127	e8 00 00 00 00	 call	 _memset

; 933  : 		ioHashString szOwnerChat = szChat;

  0012c	8b 35 00 00 00
	00		 mov	 esi, DWORD PTR __imp_??0ioHashString@@QAE@PBD@Z
  00132	83 c4 0c	 add	 esp, 12			; 0000000cH
  00135	8d 85 ec fe ff
	ff		 lea	 eax, DWORD PTR _szChat$510758[ebp]
  0013b	50		 push	 eax
  0013c	8d 8d bc 7d ff
	ff		 lea	 ecx, DWORD PTR _szOwnerChat$510761[ebp]
  00142	ff d6		 call	 esi
  00144	89 5d fc	 mov	 DWORD PTR __$EHRec$[ebp+8], ebx

; 934  : 		if( !Setting::IsSlangFilterOther() )

  00147	38 1d 60 00 00
	00		 cmp	 BYTE PTR ?m_Option@Setting@@1USettingOption@@A+96, bl
  0014d	75 38		 jne	 SHORT $LN3@SendChat

; 935  : 		{
; 936  : 			StringCbCopy( szChatBuf, MAX_PATH, g_SlangUtil.ConvertStringWithPreLine( szChat ) );

  0014f	8d 85 ec fe ff
	ff		 lea	 eax, DWORD PTR _szChat$510758[ebp]
  00155	50		 push	 eax
  00156	e8 00 00 00 00	 call	 ?GetSingleton@CSlangUtil@@SAAAV1@XZ ; CSlangUtil::GetSingleton
  0015b	8b c8		 mov	 ecx, eax
  0015d	e8 00 00 00 00	 call	 ?ConvertStringWithPreLine@CSlangUtil@@QAEPBDPBD@Z ; CSlangUtil::ConvertStringWithPreLine
  00162	50		 push	 eax
  00163	68 04 01 00 00	 push	 260			; 00000104H
  00168	8d 85 e8 fd ff
	ff		 lea	 eax, DWORD PTR _szChatBuf$510760[ebp]
  0016e	50		 push	 eax
  0016f	e8 00 00 00 00	 call	 ?StringCbCopyA@@YGJPADIPBD@Z ; StringCbCopyA

; 937  : 			szOwnerChat = szChatBuf;

  00174	8d 85 e8 fd ff
	ff		 lea	 eax, DWORD PTR _szChatBuf$510760[ebp]
  0017a	50		 push	 eax
  0017b	8d 8d bc 7d ff
	ff		 lea	 ecx, DWORD PTR _szOwnerChat$510761[ebp]
  00181	ff 15 00 00 00
	00		 call	 DWORD PTR __imp_??4ioHashString@@QAEAAV0@PBD@Z
$LN3@SendChat:

; 938  : 		}
; 939  : 
; 940  : 		g_GuildChatMgr.OnChat( g_MyInfo.GetPublicID(), szOwnerChat.c_str() );

  00187	8d 8d bc 7d ff
	ff		 lea	 ecx, DWORD PTR _szOwnerChat$510761[ebp]
  0018d	ff 15 00 00 00
	00		 call	 DWORD PTR __imp_?c_str@ioHashString@@QBEPBDXZ
  00193	83 ec 10	 sub	 esp, 16			; 00000010H
  00196	8b cc		 mov	 ecx, esp
  00198	89 a5 b8 7d ff
	ff		 mov	 DWORD PTR $T511680[ebp], esp
  0019e	50		 push	 eax
  0019f	ff d6		 call	 esi
  001a1	c6 45 fc 01	 mov	 BYTE PTR __$EHRec$[ebp+8], 1
  001a5	e8 00 00 00 00	 call	 ?GetSingleton@ioMyInfo@@SAAAV1@XZ ; ioMyInfo::GetSingleton
  001aa	83 ec 10	 sub	 esp, 16			; 00000010H
  001ad	83 c0 1c	 add	 eax, 28			; 0000001cH
  001b0	8b cc		 mov	 ecx, esp
  001b2	89 a5 b4 7d ff
	ff		 mov	 DWORD PTR $T511681[ebp], esp
  001b8	50		 push	 eax
  001b9	ff 15 00 00 00
	00		 call	 DWORD PTR __imp_??0ioHashString@@QAE@ABV0@@Z
  001bf	c6 45 fc 02	 mov	 BYTE PTR __$EHRec$[ebp+8], 2
  001c3	e8 00 00 00 00	 call	 ?GetSingleton@ioGuildChatMgr@@SAAAV1@XZ ; ioGuildChatMgr::GetSingleton
  001c8	8b c8		 mov	 ecx, eax
  001ca	88 5d fc	 mov	 BYTE PTR __$EHRec$[ebp+8], bl
  001cd	e8 00 00 00 00	 call	 ?OnChat@ioGuildChatMgr@@QAEXVioHashString@@0@Z ; ioGuildChatMgr::OnChat

; 941  : 		if( g_GuildInfo.IsGuild() )

  001d2	e8 00 00 00 00	 call	 ?GetSingleton@ioGuildInfo@@SAAAV1@XZ ; ioGuildInfo::GetSingleton
  001d7	8b c8		 mov	 ecx, eax
  001d9	e8 00 00 00 00	 call	 ?IsGuild@ioGuildInfo@@QAE_NXZ ; ioGuildInfo::IsGuild
  001de	84 c0		 test	 al, al
  001e0	0f 84 a7 00 00
	00		 je	 $LN1@SendChat

; 942  : 		{
; 943  : 			m_bSettingScrollPos = true;

  001e6	8b 85 cc 7d ff
	ff		 mov	 eax, DWORD PTR _this$GSCopy$[ebp]
  001ec	c6 80 70 09 00
	00 01		 mov	 BYTE PTR [eax+2416], 1

; 944  : 			if ( g_GuildChatMgr.GetUserSize() > 1 )

  001f3	e8 00 00 00 00	 call	 ?GetSingleton@ioGuildChatMgr@@SAAAV1@XZ ; ioGuildChatMgr::GetSingleton
  001f8	8b c8		 mov	 ecx, eax
  001fa	e8 00 00 00 00	 call	 ?GetUserSize@ioGuildChatMgr@@QAEHXZ ; ioGuildChatMgr::GetUserSize
  001ff	83 f8 01	 cmp	 eax, 1
  00202	0f 8e 85 00 00
	00		 jle	 $LN1@SendChat

; 945  : 			{
; 946  : 				SP2Packet kPacket( CTPK_GUILD_CHAT );

  00208	68 40 01 00 00	 push	 320			; 00000140H
  0020d	8d 8d d0 7d ff
	ff		 lea	 ecx, DWORD PTR _kPacket$510767[ebp]
  00213	e8 00 00 00 00	 call	 ??0SP2Packet@@QAE@K@Z	; SP2Packet::SP2Packet
  00218	c6 45 fc 03	 mov	 BYTE PTR __$EHRec$[ebp+8], 3

; 947  : 				kPacket << g_GuildInfo.GetGuildIndex() << szChat;

  0021c	e8 00 00 00 00	 call	 ?GetSingleton@ioGuildInfo@@SAAAV1@XZ ; ioGuildInfo::GetSingleton
  00221	8b 80 90 00 00
	00		 mov	 eax, DWORD PTR [eax+144]
  00227	8d 8d ec fe ff
	ff		 lea	 ecx, DWORD PTR _szChat$510758[ebp]
  0022d	51		 push	 ecx
  0022e	50		 push	 eax
  0022f	8d 8d d0 7d ff
	ff		 lea	 ecx, DWORD PTR _kPacket$510767[ebp]
  00235	e8 00 00 00 00	 call	 ??6SP2Packet@@QAEAAV0@K@Z ; SP2Packet::operator<<
  0023a	8b c8		 mov	 ecx, eax
  0023c	e8 00 00 00 00	 call	 ??6SP2Packet@@QAEAAV0@PAD@Z ; SP2Packet::operator<<

; 948  : 				TCPNetwork::SendToServer( kPacket );

  00241	8d 85 d0 7d ff
	ff		 lea	 eax, DWORD PTR _kPacket$510767[ebp]
  00247	50		 push	 eax
  00248	e8 00 00 00 00	 call	 ?SendToServer@TCPNetwork@@YAXAAVSP2Packet@@@Z ; TCPNetwork::SendToServer
  0024d	59		 pop	 ecx

; 949  : 
; 950  : 				g_ChatMgr.SendChatLog( ioMannerTrialChatManager::TT_GUILD_CHAT, g_MyInfo.GetPublicID().c_str(), szChat, MT_NONE, g_GuildInfo.GetGuildIndex() );

  0024e	e8 00 00 00 00	 call	 ?GetSingleton@ioGuildInfo@@SAAAV1@XZ ; ioGuildInfo::GetSingleton
  00253	8b b0 90 00 00
	00		 mov	 esi, DWORD PTR [eax+144]
  00259	e8 00 00 00 00	 call	 ?GetSingleton@ioMyInfo@@SAAAV1@XZ ; ioMyInfo::GetSingleton
  0025e	56		 push	 esi
  0025f	53		 push	 ebx
  00260	8d 8d ec fe ff
	ff		 lea	 ecx, DWORD PTR _szChat$510758[ebp]
  00266	51		 push	 ecx
  00267	8d 48 1c	 lea	 ecx, DWORD PTR [eax+28]
  0026a	ff 15 00 00 00
	00		 call	 DWORD PTR __imp_?c_str@ioHashString@@QBEPBDXZ
  00270	50		 push	 eax
  00271	6a 05		 push	 5
  00273	e8 00 00 00 00	 call	 ?GetSingleton@ioSP2ChatManager@@SAAAV1@XZ ; ioSP2ChatManager::GetSingleton
  00278	8b c8		 mov	 ecx, eax
  0027a	e8 00 00 00 00	 call	 ?SendChatLog@ioSP2ChatManager@@QAEXW4TrialType@ioMannerTrialChatManager@@PBD1W4ModeType@@H@Z ; ioSP2ChatManager::SendChatLog

; 951  : 			}

  0027f	8d 8d d0 7d ff
	ff		 lea	 ecx, DWORD PTR _kPacket$510767[ebp]
  00285	88 5d fc	 mov	 BYTE PTR __$EHRec$[ebp+8], bl
  00288	e8 00 00 00 00	 call	 ??1SP2Packet@@UAE@XZ	; SP2Packet::~SP2Packet
$LN1@SendChat:

; 952  : 		}
; 953  : 	}	

  0028d	83 4d fc ff	 or	 DWORD PTR __$EHRec$[ebp+8], -1
  00291	8d 8d bc 7d ff
	ff		 lea	 ecx, DWORD PTR _szOwnerChat$510761[ebp]
  00297	ff 15 00 00 00
	00		 call	 DWORD PTR __imp_??1ioHashString@@QAE@XZ
$LN7@SendChat:

; 954  : }

  0029d	8b 4d f4	 mov	 ecx, DWORD PTR __$EHRec$[ebp]
  002a0	64 89 0d 00 00
	00 00		 mov	 DWORD PTR fs:0, ecx
  002a7	59		 pop	 ecx
  002a8	5f		 pop	 edi
  002a9	5e		 pop	 esi
  002aa	5b		 pop	 ebx
  002ab	8b 4d f0	 mov	 ecx, DWORD PTR __$ArrayPad$[ebp]
  002ae	33 cd		 xor	 ecx, ebp
  002b0	e8 00 00 00 00	 call	 @__security_check_cookie@4
  002b5	c9		 leave
  002b6	c3		 ret	 0
_TEXT	ENDS
;	COMDAT text$x
text$x	SEGMENT
__unwindfunclet$?SendChat@GuildChatWnd@@QAEXXZ$0:
  00000	8d 8d bc 7d ff
	ff		 lea	 ecx, DWORD PTR _szOwnerChat$510761[ebp]
  00006	ff 25 00 00 00
	00		 jmp	 DWORD PTR __imp_??1ioHashString@@QAE@XZ
__unwindfunclet$?SendChat@GuildChatWnd@@QAEXXZ$1:
  0000c	8b 8d b8 7d ff
	ff		 mov	 ecx, DWORD PTR $T511680[ebp]
  00012	ff 25 00 00 00
	00		 jmp	 DWORD PTR __imp_??1ioHashString@@QAE@XZ
__unwindfunclet$?SendChat@GuildChatWnd@@QAEXXZ$2:
  00018	8b 8d b4 7d ff
	ff		 mov	 ecx, DWORD PTR $T511681[ebp]
  0001e	ff 25 00 00 00
	00		 jmp	 DWORD PTR __imp_??1ioHashString@@QAE@XZ
__unwindfunclet$?SendChat@GuildChatWnd@@QAEXXZ$3:
  00024	8d 8d d0 7d ff
	ff		 lea	 ecx, DWORD PTR _kPacket$510767[ebp]
  0002a	e9 00 00 00 00	 jmp	 ??1SP2Packet@@UAE@XZ	; SP2Packet::~SP2Packet
__ehhandler$?SendChat@GuildChatWnd@@QAEXXZ:
  0002f	8b 54 24 08	 mov	 edx, DWORD PTR [esp+8]
  00033	8d 42 0c	 lea	 eax, DWORD PTR [edx+12]
  00036	8b 8a b0 7d ff
	ff		 mov	 ecx, DWORD PTR [edx-33360]
  0003c	33 c8		 xor	 ecx, eax
  0003e	e8 00 00 00 00	 call	 @__security_check_cookie@4
  00043	8b 4a fc	 mov	 ecx, DWORD PTR [edx-4]
  00046	33 c8		 xor	 ecx, eax
  00048	e8 00 00 00 00	 call	 @__security_check_cookie@4
  0004d	b8 00 00 00 00	 mov	 eax, OFFSET __ehfuncinfo$?SendChat@GuildChatWnd@@QAEXXZ
  00052	e9 00 00 00 00	 jmp	 ___CxxFrameHandler3
text$x	ENDS
?SendChat@GuildChatWnd@@QAEXXZ ENDP			; GuildChatWnd::SendChat
PUBLIC	??_R0?AVGuildMainWnd@@@8			; GuildMainWnd `RTTI Type Descriptor'
EXTRN	?SetGuildIndex@GuildMainWnd@@QAEXK@Z:PROC	; GuildMainWnd::SetGuildIndex
EXTRN	?OpenGuildHomePage@ioApplication@@QAEXK@Z:PROC	; ioApplication::OpenGuildHomePage
EXTRN	__imp_?GetID@ioWnd@@QBEKXZ:PROC
;	COMDAT ??_R0?AVGuildMainWnd@@@8
; File d:\lost saga for developer\youtube\tutorial\source\src\lsclient\ioguildinfo.h
_DATA	SEGMENT
??_R0?AVGuildMainWnd@@@8 DD FLAT:??_7type_info@@6B@	; GuildMainWnd `RTTI Type Descriptor'
	DD	00H
	DB	'.?AVGuildMainWnd@@', 00H
; Function compile flags: /Ogsp
; File d:\lost saga for developer\youtube\tutorial\source\src\lsclient\gui\channelchatwnd.cpp
_DATA	ENDS
;	COMDAT ?iwm_command@GuildChatWnd@@UAEXPAVioWnd@@HK@Z
_TEXT	SEGMENT
_pWnd$ = 8						; size = 4
_cmd$ = 12						; size = 4
_param$ = 16						; size = 4
?iwm_command@GuildChatWnd@@UAEXPAVioWnd@@HK@Z PROC	; GuildChatWnd::iwm_command, COMDAT
; _this$ = ecx

; 974  : {

  00000	55		 push	 ebp
  00001	8b ec		 mov	 ebp, esp
  00003	56		 push	 esi

; 975  : 	DWORD dwID = pWnd->GetID();

  00004	8b 75 08	 mov	 esi, DWORD PTR _pWnd$[ebp]
  00007	57		 push	 edi
  00008	8b f9		 mov	 edi, ecx
  0000a	8b ce		 mov	 ecx, esi
  0000c	ff 15 00 00 00
	00		 call	 DWORD PTR __imp_?GetID@ioWnd@@QBEKXZ

; 976  : 	switch( dwID )

  00012	83 f8 01	 cmp	 eax, 1
  00015	0f 84 47 01 00
	00		 je	 $LN21@iwm_comman
  0001b	83 f8 02	 cmp	 eax, 2
  0001e	0f 84 e7 00 00
	00		 je	 $LN19@iwm_comman
  00024	83 f8 03	 cmp	 eax, 3
  00027	0f 84 a9 00 00
	00		 je	 $LN15@iwm_comman
  0002d	83 f8 04	 cmp	 eax, 4
  00030	74 2e		 je	 SHORT $LN12@iwm_comman
  00032	83 f8 64	 cmp	 eax, 100		; 00000064H
  00035	0f 86 4e 01 00
	00		 jbe	 $LN20@iwm_comman
  0003b	83 f8 6e	 cmp	 eax, 110		; 0000006eH
  0003e	76 1a		 jbe	 SHORT $LN4@iwm_comman
  00040	3d e8 03 00 00	 cmp	 eax, 1000		; 000003e8H
  00045	0f 85 3e 01 00
	00		 jne	 $LN20@iwm_comman

; 1044 : 	case ID_VERT_SCROLL:
; 1045 : 		if( cmd == IOBN_BTNDOWN )

  0004b	83 7d 0c 10	 cmp	 DWORD PTR _cmd$[ebp], 16 ; 00000010H
$LN35@iwm_comman:
  0004f	0f 85 34 01 00
	00		 jne	 $LN20@iwm_comman

; 1046 : 		{
; 1047 : 			SetChatFocus();
; 1048 : 		}
; 1049 : 		break;

  00055	e9 28 01 00 00	 jmp	 $LN34@iwm_comman
$LN4@iwm_comman:

; 1031 : 	case ID_LINE_CHAT_WND_1:
; 1032 : 	case ID_LINE_CHAT_WND_2:
; 1033 : 	case ID_LINE_CHAT_WND_3:
; 1034 : 	case ID_LINE_CHAT_WND_4:
; 1035 : 	case ID_LINE_CHAT_WND_5:
; 1036 : 	case ID_LINE_CHAT_WND_6:
; 1037 : 	case ID_LINE_CHAT_WND_7:
; 1038 : 	case ID_LINE_CHAT_WND_8:
; 1039 : 	case ID_LINE_CHAT_WND_9:
; 1040 : 	case ID_LINE_CHAT_WND_10:
; 1041 : 		if( cmd == IOBN_BTNUP )

  0005a	83 7d 0c 11	 cmp	 DWORD PTR _cmd$[ebp], 17 ; 00000011H

; 1042 : 			SetChatFocus();
; 1043 : 		break;

  0005e	eb ef		 jmp	 SHORT $LN35@iwm_comman
$LN12@iwm_comman:

; 1006 : 	case ID_EDIT_CHAT:
; 1007 : 		if( cmd == IOED_INPUT )

  00060	83 7d 0c 22	 cmp	 DWORD PTR _cmd$[ebp], 34 ; 00000022H
  00064	75 40		 jne	 SHORT $LN11@iwm_comman

; 1008 : 		{
; 1009 : 			if( param == 0 || param == 1 )

  00066	83 7d 10 00	 cmp	 DWORD PTR _param$[ebp], 0
  0006a	74 0a		 je	 SHORT $LN9@iwm_comman
  0006c	83 7d 10 01	 cmp	 DWORD PTR _param$[ebp], 1
  00070	0f 85 13 01 00
	00		 jne	 $LN20@iwm_comman
$LN9@iwm_comman:

; 1010 : 			{
; 1011 : 				ioEdit *pEdit = (ioEdit*)pWnd;
; 1012 : 				if( pEdit )

  00076	85 f6		 test	 esi, esi
  00078	0f 84 0b 01 00
	00		 je	 $LN20@iwm_comman

; 1013 : 				{
; 1014 : 					pEdit->SetKeyFocus();

  0007e	8b 06		 mov	 eax, DWORD PTR [esi]
  00080	8b ce		 mov	 ecx, esi
  00082	ff 90 30 01 00
	00		 call	 DWORD PTR [eax+304]

; 1015 : 					//Send
; 1016 : 					iwm_command( FindChildWnd( ID_CHAT_SEND ), IOBN_BTNUP, 0 );					

  00088	8b 37		 mov	 esi, DWORD PTR [edi]
  0008a	6a 00		 push	 0
  0008c	6a 11		 push	 17			; 00000011H
  0008e	6a 01		 push	 1
  00090	8b cf		 mov	 ecx, edi
  00092	ff 15 00 00 00
	00		 call	 DWORD PTR __imp_?FindChildWnd@ioWnd@@QAEPAV1@K@Z
  00098	50		 push	 eax
  00099	8b cf		 mov	 ecx, edi
  0009b	ff 96 8c 00 00
	00		 call	 DWORD PTR [esi+140]

; 1017 : 				}
; 1018 : 			}					
; 1019 : 		}

  000a1	e9 e3 00 00 00	 jmp	 $LN20@iwm_comman
$LN11@iwm_comman:

; 1020 : 		else if( cmd == IOBN_BTNDOWN )

  000a6	83 7d 0c 10	 cmp	 DWORD PTR _cmd$[ebp], 16 ; 00000010H
  000aa	0f 85 d9 00 00
	00		 jne	 $LN20@iwm_comman

; 1021 : 		{
; 1022 : 			if( ioEdit::m_pKeyFocusEdit != NULL && ioEdit::m_pKeyFocusEdit != pWnd )

  000b0	a1 00 00 00 00	 mov	 eax, DWORD PTR __imp_?m_pKeyFocusEdit@ioEdit@@2PAV1@A
  000b5	8b 08		 mov	 ecx, DWORD PTR [eax]
  000b7	85 c9		 test	 ecx, ecx
  000b9	74 0c		 je	 SHORT $LN5@iwm_comman
  000bb	3b ce		 cmp	 ecx, esi
  000bd	74 08		 je	 SHORT $LN5@iwm_comman

; 1023 : 			{
; 1024 : 				m_pPreEdit = ioEdit::m_pKeyFocusEdit;

  000bf	8b c1		 mov	 eax, ecx
  000c1	89 87 64 01 00
	00		 mov	 DWORD PTR [edi+356], eax
$LN5@iwm_comman:

; 1025 : 			}
; 1026 : 
; 1027 : 			ioEdit *pEdit = (ioEdit*)pWnd;
; 1028 : 			pEdit->SetKeyFocus();

  000c7	8b 06		 mov	 eax, DWORD PTR [esi]
  000c9	8b ce		 mov	 ecx, esi
  000cb	ff 90 30 01 00
	00		 call	 DWORD PTR [eax+304]

; 1029 : 		}
; 1030 : 		break;	

  000d1	e9 b3 00 00 00	 jmp	 $LN20@iwm_comman
$LN15@iwm_comman:

; 997  : 	case ID_GUILD_HOME_PAGE:
; 998  : 		if( cmd == IOBN_BTNUP )

  000d6	83 7d 0c 11	 cmp	 DWORD PTR _cmd$[ebp], 17 ; 00000011H
  000da	0f 85 a9 00 00
	00		 jne	 $LN20@iwm_comman

; 999  : 		{
; 1000 : 			if( g_GuildInfo.GetGuildIndex() != 0 )

  000e0	e8 00 00 00 00	 call	 ?GetSingleton@ioGuildInfo@@SAAAV1@XZ ; ioGuildInfo::GetSingleton
  000e5	83 b8 90 00 00
	00 00		 cmp	 DWORD PTR [eax+144], 0
  000ec	0f 84 97 00 00
	00		 je	 $LN20@iwm_comman

; 1001 : 			{
; 1002 : 				g_App.OpenGuildHomePage( g_GuildInfo.GetGuildIndex() );

  000f2	e8 00 00 00 00	 call	 ?GetSingleton@ioGuildInfo@@SAAAV1@XZ ; ioGuildInfo::GetSingleton
  000f7	ff b0 90 00 00
	00		 push	 DWORD PTR [eax+144]
  000fd	e8 00 00 00 00	 call	 ?GetSingleton@ioApplication@@SAAAV1@XZ ; ioApplication::GetSingleton
  00102	8b c8		 mov	 ecx, eax
  00104	e8 00 00 00 00	 call	 ?OpenGuildHomePage@ioApplication@@QAEXK@Z ; ioApplication::OpenGuildHomePage

; 1003 : 			}
; 1004 : 		}
; 1005 : 		break;

  00109	eb 7e		 jmp	 SHORT $LN20@iwm_comman
$LN19@iwm_comman:

; 984  : 		}
; 985  : 		break;
; 986  : 	case ID_GUILD_INFO:
; 987  : 		if( cmd == IOBN_BTNUP )

  0010b	83 7d 0c 11	 cmp	 DWORD PTR _cmd$[ebp], 17 ; 00000011H
  0010f	75 78		 jne	 SHORT $LN20@iwm_comman

; 988  : 		{
; 989  : 			if( g_GuildInfo.GetGuildIndex() != 0 )

  00111	e8 00 00 00 00	 call	 ?GetSingleton@ioGuildInfo@@SAAAV1@XZ ; ioGuildInfo::GetSingleton
  00116	83 b8 90 00 00
	00 00		 cmp	 DWORD PTR [eax+144], 0
  0011d	74 6a		 je	 SHORT $LN20@iwm_comman

; 990  : 			{
; 991  : 				GuildMainWnd *pGuildMainWnd = dynamic_cast<GuildMainWnd *>(g_GUIMgr.FindWnd( GUILD_MAIN_WND ));

  0011f	6a 00		 push	 0
  00121	68 00 00 00 00	 push	 OFFSET ??_R0?AVGuildMainWnd@@@8
  00126	68 00 00 00 00	 push	 OFFSET ??_R0?AVioWnd@@@8
  0012b	6a 00		 push	 0
  0012d	68 9f 17 00 00	 push	 6047			; 0000179fH
  00132	e8 00 00 00 00	 call	 ?GetSingleton@ioSP2GUIManager@@SAAAV1@XZ ; ioSP2GUIManager::GetSingleton
  00137	8b c8		 mov	 ecx, eax
  00139	ff 15 00 00 00
	00		 call	 DWORD PTR __imp_?FindWnd@ioGUIManager@@QAEPAVioWnd@@K@Z
  0013f	50		 push	 eax
  00140	e8 00 00 00 00	 call	 ___RTDynamicCast
  00145	8b f0		 mov	 esi, eax
  00147	83 c4 14	 add	 esp, 20			; 00000014H

; 992  : 				if( pGuildMainWnd )

  0014a	85 f6		 test	 esi, esi
  0014c	74 3b		 je	 SHORT $LN20@iwm_comman

; 993  : 					pGuildMainWnd->SetGuildIndex( g_GuildInfo.GetGuildIndex() );

  0014e	e8 00 00 00 00	 call	 ?GetSingleton@ioGuildInfo@@SAAAV1@XZ ; ioGuildInfo::GetSingleton
  00153	ff b0 90 00 00
	00		 push	 DWORD PTR [eax+144]
  00159	8b ce		 mov	 ecx, esi
  0015b	e8 00 00 00 00	 call	 ?SetGuildIndex@GuildMainWnd@@QAEXK@Z ; GuildMainWnd::SetGuildIndex

; 994  : 			}
; 995  : 		}
; 996  : 		break;

  00160	eb 27		 jmp	 SHORT $LN20@iwm_comman
$LN21@iwm_comman:

; 977  : 	{	
; 978  : 	case ID_CHAT_SEND:
; 979  : 		if( cmd == IOBN_BTNUP )

  00162	83 7d 0c 11	 cmp	 DWORD PTR _cmd$[ebp], 17 ; 00000011H
  00166	75 21		 jne	 SHORT $LN20@iwm_comman

; 980  : 		{
; 981  : 			SendChat();

  00168	8b cf		 mov	 ecx, edi
  0016a	e8 00 00 00 00	 call	 ?SendChat@GuildChatWnd@@QAEXXZ ; GuildChatWnd::SendChat

; 982  : 			g_InputBox.SetString("");

  0016f	68 00 00 00 00	 push	 OFFSET ??_C@_00CNPNBAHC@?$AA@
  00174	ff 15 00 00 00
	00		 call	 DWORD PTR __imp_?GetSingleton@ioInputBox@@SAAAV1@XZ
  0017a	8b c8		 mov	 ecx, eax
  0017c	ff 15 00 00 00
	00		 call	 DWORD PTR __imp_?SetString@ioInputBox@@QAEXPBD@Z
$LN34@iwm_comman:

; 983  : 			SetChatFocus();

  00182	8b cf		 mov	 ecx, edi
  00184	e8 00 00 00 00	 call	 ?SetChatFocus@GuildChatWnd@@QAEXXZ ; GuildChatWnd::SetChatFocus
$LN20@iwm_comman:
  00189	5f		 pop	 edi
  0018a	5e		 pop	 esi

; 1050 : 	}
; 1051 : }

  0018b	5d		 pop	 ebp
  0018c	c2 0c 00	 ret	 12			; 0000000cH
?iwm_command@GuildChatWnd@@UAEXPAVioWnd@@HK@Z ENDP	; GuildChatWnd::iwm_command
_TEXT	ENDS
EXTRN	__imp_?HideWnd@ioGUIManager@@QAEXK_N@Z:PROC
EXTRN	?IsUpdate@ioGuildChatMgr@@QAE_NXZ:PROC		; ioGuildChatMgr::IsUpdate
; Function compile flags: /Ogsp
;	COMDAT ?OnProcess@GuildChatWnd@@MAEXM@Z
_TEXT	SEGMENT
_fTimePerSec$ = 8					; size = 4
?OnProcess@GuildChatWnd@@MAEXM@Z PROC			; GuildChatWnd::OnProcess, COMDAT
; _this$ = ecx

; 1054 : {

  00000	57		 push	 edi
  00001	8b f9		 mov	 edi, ecx

; 1055 : 	if( !IsShow() )	return;	

  00003	ff 15 00 00 00
	00		 call	 DWORD PTR __imp_?IsShow@ioWnd@@QBE_NXZ
  00009	84 c0		 test	 al, al
  0000b	74 63		 je	 SHORT $LN1@OnProcess@4

; 1056 : 
; 1057 : 	if( g_GuildChatMgr.IsUpdate() )

  0000d	e8 00 00 00 00	 call	 ?GetSingleton@ioGuildChatMgr@@SAAAV1@XZ ; ioGuildChatMgr::GetSingleton
  00012	8b c8		 mov	 ecx, eax
  00014	e8 00 00 00 00	 call	 ?IsUpdate@ioGuildChatMgr@@QAE_NXZ ; ioGuildChatMgr::IsUpdate
  00019	84 c0		 test	 al, al
  0001b	74 21		 je	 SHORT $LN2@OnProcess@4

; 1058 : 	{
; 1059 : 		g_GuildChatMgr.ClearUpdate();

  0001d	56		 push	 esi
  0001e	e8 00 00 00 00	 call	 ?GetSingleton@ioGuildChatMgr@@SAAAV1@XZ ; ioGuildChatMgr::GetSingleton
  00023	c6 40 14 00	 mov	 BYTE PTR [eax+20], 0

; 1060 : 		SetScrollSetting( m_bSettingScrollPos );

  00027	0f b6 87 70 09
	00 00		 movzx	 eax, BYTE PTR [edi+2416]
  0002e	50		 push	 eax
  0002f	8b cf		 mov	 ecx, edi
  00031	e8 00 00 00 00	 call	 ?SetScrollSetting@GuildChatWnd@@IAEX_N@Z ; GuildChatWnd::SetScrollSetting

; 1061 : 		m_bSettingScrollPos = false;

  00036	c6 87 70 09 00
	00 00		 mov	 BYTE PTR [edi+2416], 0
  0003d	5e		 pop	 esi
$LN2@OnProcess@4:

; 1062 : 	}
; 1063 : 
; 1064 : 	ProcessGuildUser();

  0003e	8b cf		 mov	 ecx, edi
  00040	e8 00 00 00 00	 call	 ?ProcessGuildUser@GuildChatWnd@@IAEXXZ ; GuildChatWnd::ProcessGuildUser

; 1065 : 	ProcessChatInfo();

  00045	8b cf		 mov	 ecx, edi
  00047	e8 00 00 00 00	 call	 ?ProcessChatInfo@GuildChatWnd@@IAEXXZ ; GuildChatWnd::ProcessChatInfo

; 1066 : 
; 1067 : 	if( !g_GuildInfo.IsGuild() )    //길드 탈퇴되면 메신저 닫음

  0004c	e8 00 00 00 00	 call	 ?GetSingleton@ioGuildInfo@@SAAAV1@XZ ; ioGuildInfo::GetSingleton
  00051	8b c8		 mov	 ecx, eax
  00053	e8 00 00 00 00	 call	 ?IsGuild@ioGuildInfo@@QAE_NXZ ; ioGuildInfo::IsGuild
  00058	84 c0		 test	 al, al
  0005a	75 14		 jne	 SHORT $LN1@OnProcess@4

; 1068 : 		g_GUIMgr.HideWnd( MESSENGER_WND );

  0005c	6a 00		 push	 0
  0005e	68 80 17 00 00	 push	 6016			; 00001780H
  00063	e8 00 00 00 00	 call	 ?GetSingleton@ioSP2GUIManager@@SAAAV1@XZ ; ioSP2GUIManager::GetSingleton
  00068	8b c8		 mov	 ecx, eax
  0006a	ff 15 00 00 00
	00		 call	 DWORD PTR __imp_?HideWnd@ioGUIManager@@QAEXK_N@Z
$LN1@OnProcess@4:
  00070	5f		 pop	 edi

; 1069 : }

  00071	c2 04 00	 ret	 4
?OnProcess@GuildChatWnd@@MAEXM@Z ENDP			; GuildChatWnd::OnProcess
_TEXT	ENDS
PUBLIC	??_C@_0BJ@DGDOKGHN@ChannelChatWnd?3?3SendChat?$AA@ ; `string'
PUBLIC	__$ArrayPad$
PUBLIC	?SendChat@ChannelChatWnd@@QAEXXZ		; ChannelChatWnd::SendChat
EXTRN	?OnChat@ioChannelManager@@QAEXHVioHashString@@0@Z:PROC ; ioChannelManager::OnChat
;	COMDAT ??_C@_0BJ@DGDOKGHN@ChannelChatWnd?3?3SendChat?$AA@
; File d:\lost saga for developer\youtube\tutorial\source\src\lsclient\iomyinfo.h
CONST	SEGMENT
??_C@_0BJ@DGDOKGHN@ChannelChatWnd?3?3SendChat?$AA@ DB 'ChannelChatWnd::Se'
	DB	'ndChat', 00H				; `string'
CONST	ENDS
;	COMDAT xdata$x
xdata$x	SEGMENT
__unwindtable$?SendChat@ChannelChatWnd@@QAEXXZ DD 0ffffffffH
	DD	FLAT:__unwindfunclet$?SendChat@ChannelChatWnd@@QAEXXZ$0
	DD	00H
	DD	FLAT:__unwindfunclet$?SendChat@ChannelChatWnd@@QAEXXZ$1
	DD	01H
	DD	FLAT:__unwindfunclet$?SendChat@ChannelChatWnd@@QAEXXZ$2
	DD	00H
	DD	FLAT:__unwindfunclet$?SendChat@ChannelChatWnd@@QAEXXZ$3
__ehfuncinfo$?SendChat@ChannelChatWnd@@QAEXXZ DD 019930522H
	DD	04H
	DD	FLAT:__unwindtable$?SendChat@ChannelChatWnd@@QAEXXZ
	DD	2 DUP(00H)
	DD	2 DUP(00H)
	DD	00H
	DD	01H
; Function compile flags: /Ogsp
; File d:\lost saga for developer\youtube\tutorial\source\src\lsclient\gui\channelchatwnd.cpp
xdata$x	ENDS
;	COMDAT ?SendChat@ChannelChatWnd@@QAEXXZ
_TEXT	SEGMENT
$T511750 = -33352					; size = 4
$T511749 = -33348					; size = 4
_szOwnerChat$ = -33344					; size = 16
_kPacket$ = -33328					; size = 32792
_szChatBuf$ = -536					; size = 260
_szChat$ = -276						; size = 260
__$ArrayPad$ = -16					; size = 4
__$EHRec$ = -12						; size = 12
?SendChat@ChannelChatWnd@@QAEXXZ PROC			; ChannelChatWnd::SendChat, COMDAT
; _this$ = ecx

; 298  : {

  00000	55		 push	 ebp
  00001	8b ec		 mov	 ebp, esp
  00003	6a ff		 push	 -1
  00005	68 00 00 00 00	 push	 __ehhandler$?SendChat@ChannelChatWnd@@QAEXXZ
  0000a	64 a1 00 00 00
	00		 mov	 eax, DWORD PTR fs:0
  00010	50		 push	 eax
  00011	b8 3c 82 00 00	 mov	 eax, 33340		; 0000823cH
  00016	e8 00 00 00 00	 call	 __chkstk
  0001b	a1 00 00 00 00	 mov	 eax, DWORD PTR ___security_cookie
  00020	33 c5		 xor	 eax, ebp
  00022	89 45 f0	 mov	 DWORD PTR __$ArrayPad$[ebp], eax
  00025	53		 push	 ebx
  00026	56		 push	 esi
  00027	57		 push	 edi
  00028	50		 push	 eax
  00029	8d 45 f4	 lea	 eax, DWORD PTR __$EHRec$[ebp]
  0002c	64 a3 00 00 00
	00		 mov	 DWORD PTR fs:0, eax

; 299  : 	ioEdit *pEdit = (ioEdit*)FindChildWnd( ID_EDIT_CHAT );

  00032	6a 04		 push	 4
  00034	8b d9		 mov	 ebx, ecx
  00036	ff 15 00 00 00
	00		 call	 DWORD PTR __imp_?FindChildWnd@ioWnd@@QAEPAV1@K@Z
  0003c	8b f0		 mov	 esi, eax

; 300  : 	if( !pEdit )	return;

  0003e	85 f6		 test	 esi, esi
  00040	0f 84 38 02 00
	00		 je	 $LN7@SendChat@2

; 301  : 
; 302  : 	if( g_MyInfo.GetBlockType() == BKT_LIMITATION )

  00046	e8 00 00 00 00	 call	 ?GetSingleton@ioMyInfo@@SAAAV1@XZ ; ioMyInfo::GetSingleton
  0004b	8b c8		 mov	 ecx, eax
  0004d	e8 00 00 00 00	 call	 ?GetBlockType@ioMyInfo@@QBE?AW4BlockType@@XZ ; ioMyInfo::GetBlockType

; 303  : 	{
; 304  : 		SetChildInActive( ID_EDIT_CHAT );

  00052	6a 04		 push	 4
  00054	8b cb		 mov	 ecx, ebx
  00056	83 f8 14	 cmp	 eax, 20			; 00000014H
  00059	75 52		 jne	 SHORT $LN5@SendChat@2
  0005b	ff 15 00 00 00
	00		 call	 DWORD PTR __imp_?SetChildInActive@ioWnd@@QAEXK@Z

; 305  : 
; 306  : 		pEdit->ClearString();

  00061	8b ce		 mov	 ecx, esi
  00063	ff 15 00 00 00
	00		 call	 DWORD PTR __imp_?ClearString@ioEdit@@QAEXXZ

; 307  : 		pEdit->SetKeyFocus();

  00069	8b 06		 mov	 eax, DWORD PTR [esi]
  0006b	8b ce		 mov	 ecx, esi
  0006d	ff 90 30 01 00
	00		 call	 DWORD PTR [eax+304]

; 308  : 		g_InputBox.SetString( STR(1) );	

  00073	6a 00		 push	 0
  00075	6a 01		 push	 1
  00077	68 00 00 00 00	 push	 OFFSET ??_C@_00CNPNBAHC@?$AA@
  0007c	68 00 00 00 00	 push	 OFFSET ??_C@_0BJ@DGDOKGHN@ChannelChatWnd?3?3SendChat?$AA@
  00081	ff 15 00 00 00
	00		 call	 DWORD PTR __imp_?GetSingleton@ioStringManager@@SAAAV1@XZ
  00087	8b c8		 mov	 ecx, eax
  00089	ff 15 00 00 00
	00		 call	 DWORD PTR __imp_?GetString@ioStringManager@@QAEPADPBD0HW4FileNamePrefix@1@@Z
  0008f	50		 push	 eax
  00090	ff 15 00 00 00
	00		 call	 DWORD PTR __imp_?GetSingleton@ioInputBox@@SAAAV1@XZ
  00096	8b c8		 mov	 ecx, eax
  00098	ff 15 00 00 00
	00		 call	 DWORD PTR __imp_?SetString@ioInputBox@@QAEXPBD@Z

; 309  : 		pEdit->KillKeyFocus();

  0009e	8b 06		 mov	 eax, DWORD PTR [esi]
  000a0	8b ce		 mov	 ecx, esi
  000a2	ff 90 34 01 00
	00		 call	 DWORD PTR [eax+308]

; 310  : 		return;		

  000a8	e9 d1 01 00 00	 jmp	 $LN7@SendChat@2
$LN5@SendChat@2:

; 311  : 	}
; 312  : 	else 
; 313  : 		SetChildActive( ID_EDIT_CHAT );

  000ad	ff 15 00 00 00
	00		 call	 DWORD PTR __imp_?SetChildActive@ioWnd@@QAEXK@Z

; 314  : 
; 315  : 	char szChat[MAX_PATH] = "";

  000b3	68 03 01 00 00	 push	 259			; 00000103H
  000b8	8d 85 ed fe ff
	ff		 lea	 eax, DWORD PTR _szChat$[ebp+1]
  000be	6a 00		 push	 0
  000c0	50		 push	 eax
  000c1	c6 85 ec fe ff
	ff 00		 mov	 BYTE PTR _szChat$[ebp], 0
  000c8	e8 00 00 00 00	 call	 _memset
  000cd	83 c4 0c	 add	 esp, 12			; 0000000cH

; 316  : 	sprintf( szChat, "%s", pEdit->GetText() );

  000d0	8b ce		 mov	 ecx, esi
  000d2	ff 15 00 00 00
	00		 call	 DWORD PTR __imp_?GetText@ioEdit@@QBEPBDXZ
  000d8	50		 push	 eax
  000d9	8d 85 ec fe ff
	ff		 lea	 eax, DWORD PTR _szChat$[ebp]
  000df	68 00 00 00 00	 push	 OFFSET ??_C@_02DKCKIIND@?$CFs?$AA@
  000e4	50		 push	 eax
  000e5	ff 15 00 00 00
	00		 call	 DWORD PTR __imp__sprintf

; 317  : 	if( strcmp( szChat, "" ) == 0 )	return;

  000eb	33 c9		 xor	 ecx, ecx
  000ed	83 c4 0c	 add	 esp, 12			; 0000000cH
  000f0	41		 inc	 ecx
  000f1	bf 00 00 00 00	 mov	 edi, OFFSET ??_C@_00CNPNBAHC@?$AA@
  000f6	8d b5 ec fe ff
	ff		 lea	 esi, DWORD PTR _szChat$[ebp]
  000fc	33 c0		 xor	 eax, eax
  000fe	f3 a6		 repe cmpsb
  00100	74 05		 je	 SHORT $LN19@SendChat@2
  00102	1b c0		 sbb	 eax, eax
  00104	83 d8 ff	 sbb	 eax, -1
$LN19@SendChat@2:
  00107	33 ff		 xor	 edi, edi
  00109	3b c7		 cmp	 eax, edi
  0010b	0f 84 6d 01 00
	00		 je	 $LN7@SendChat@2

; 318  : 	if( MacroProcess( szChat ) ) return;

  00111	8d 85 ec fe ff
	ff		 lea	 eax, DWORD PTR _szChat$[ebp]
  00117	50		 push	 eax
  00118	8b cb		 mov	 ecx, ebx
  0011a	e8 00 00 00 00	 call	 ?MacroProcess@ChannelChatWnd@@IAE_NPBD@Z ; ChannelChatWnd::MacroProcess
  0011f	84 c0		 test	 al, al
  00121	0f 85 57 01 00
	00		 jne	 $LN7@SendChat@2

; 319  : 
; 320  : 	char szChatBuf[MAX_PATH] = "";

  00127	68 03 01 00 00	 push	 259			; 00000103H
  0012c	88 85 e8 fd ff
	ff		 mov	 BYTE PTR _szChatBuf$[ebp], al
  00132	8d 85 e9 fd ff
	ff		 lea	 eax, DWORD PTR _szChatBuf$[ebp+1]
  00138	57		 push	 edi
  00139	50		 push	 eax
  0013a	e8 00 00 00 00	 call	 _memset

; 321  : 	ioHashString szOwnerChat = szChat;

  0013f	8b 35 00 00 00
	00		 mov	 esi, DWORD PTR __imp_??0ioHashString@@QAE@PBD@Z
  00145	83 c4 0c	 add	 esp, 12			; 0000000cH
  00148	8d 85 ec fe ff
	ff		 lea	 eax, DWORD PTR _szChat$[ebp]
  0014e	50		 push	 eax
  0014f	8d 8d c0 7d ff
	ff		 lea	 ecx, DWORD PTR _szOwnerChat$[ebp]
  00155	ff d6		 call	 esi

; 322  : 	if( !Setting::IsSlangFilterOther() )

  00157	80 3d 60 00 00
	00 00		 cmp	 BYTE PTR ?m_Option@Setting@@1USettingOption@@A+96, 0
  0015e	89 7d fc	 mov	 DWORD PTR __$EHRec$[ebp+8], edi
  00161	75 38		 jne	 SHORT $LN1@SendChat@2

; 323  : 	{
; 324  : 		StringCbCopy( szChatBuf, MAX_PATH, g_SlangUtil.ConvertStringWithPreLine( szChat ) );

  00163	8d 85 ec fe ff
	ff		 lea	 eax, DWORD PTR _szChat$[ebp]
  00169	50		 push	 eax
  0016a	e8 00 00 00 00	 call	 ?GetSingleton@CSlangUtil@@SAAAV1@XZ ; CSlangUtil::GetSingleton
  0016f	8b c8		 mov	 ecx, eax
  00171	e8 00 00 00 00	 call	 ?ConvertStringWithPreLine@CSlangUtil@@QAEPBDPBD@Z ; CSlangUtil::ConvertStringWithPreLine
  00176	50		 push	 eax
  00177	68 04 01 00 00	 push	 260			; 00000104H
  0017c	8d 85 e8 fd ff
	ff		 lea	 eax, DWORD PTR _szChatBuf$[ebp]
  00182	50		 push	 eax
  00183	e8 00 00 00 00	 call	 ?StringCbCopyA@@YGJPADIPBD@Z ; StringCbCopyA

; 325  : 		szOwnerChat = szChatBuf;

  00188	8d 85 e8 fd ff
	ff		 lea	 eax, DWORD PTR _szChatBuf$[ebp]
  0018e	50		 push	 eax
  0018f	8d 8d c0 7d ff
	ff		 lea	 ecx, DWORD PTR _szOwnerChat$[ebp]
  00195	ff 15 00 00 00
	00		 call	 DWORD PTR __imp_??4ioHashString@@QAEAAV0@PBD@Z
$LN1@SendChat@2:

; 326  : 	}
; 327  : 
; 328  : 	g_ChannelManager.OnChat( m_iChannelIdx, g_MyInfo.GetPublicID(), szOwnerChat.c_str() );

  0019b	8d 8d c0 7d ff
	ff		 lea	 ecx, DWORD PTR _szOwnerChat$[ebp]
  001a1	ff 15 00 00 00
	00		 call	 DWORD PTR __imp_?c_str@ioHashString@@QBEPBDXZ
  001a7	83 ec 10	 sub	 esp, 16			; 00000010H
  001aa	8b cc		 mov	 ecx, esp
  001ac	89 a5 bc 7d ff
	ff		 mov	 DWORD PTR $T511749[ebp], esp
  001b2	50		 push	 eax
  001b3	ff d6		 call	 esi
  001b5	c6 45 fc 01	 mov	 BYTE PTR __$EHRec$[ebp+8], 1
  001b9	e8 00 00 00 00	 call	 ?GetSingleton@ioMyInfo@@SAAAV1@XZ ; ioMyInfo::GetSingleton
  001be	83 ec 10	 sub	 esp, 16			; 00000010H
  001c1	83 c0 1c	 add	 eax, 28			; 0000001cH
  001c4	8b cc		 mov	 ecx, esp
  001c6	89 a5 b8 7d ff
	ff		 mov	 DWORD PTR $T511750[ebp], esp
  001cc	50		 push	 eax
  001cd	ff 15 00 00 00
	00		 call	 DWORD PTR __imp_??0ioHashString@@QAE@ABV0@@Z
  001d3	ff b3 64 01 00
	00		 push	 DWORD PTR [ebx+356]
  001d9	c6 45 fc 02	 mov	 BYTE PTR __$EHRec$[ebp+8], 2
  001dd	e8 00 00 00 00	 call	 ?GetSingleton@ioChannelManager@@SAAAV1@XZ ; ioChannelManager::GetSingleton
  001e2	8b c8		 mov	 ecx, eax
  001e4	c6 45 fc 00	 mov	 BYTE PTR __$EHRec$[ebp+8], 0
  001e8	e8 00 00 00 00	 call	 ?OnChat@ioChannelManager@@QAEXHVioHashString@@0@Z ; ioChannelManager::OnChat

; 329  : 
; 330  : 	m_bSettingScrollPos = true;
; 331  : 	SP2Packet kPacket( CTPK_CHANNEL_CHAT );

  001ed	68 08 01 00 00	 push	 264			; 00000108H
  001f2	8d 8d d0 7d ff
	ff		 lea	 ecx, DWORD PTR _kPacket$[ebp]
  001f8	c6 83 74 09 00
	00 01		 mov	 BYTE PTR [ebx+2420], 1
  001ff	e8 00 00 00 00	 call	 ??0SP2Packet@@QAE@K@Z	; SP2Packet::SP2Packet

; 332  : 	kPacket << m_iChannelIdx << szChat;

  00204	8d 85 ec fe ff
	ff		 lea	 eax, DWORD PTR _szChat$[ebp]
  0020a	50		 push	 eax
  0020b	ff b3 64 01 00
	00		 push	 DWORD PTR [ebx+356]
  00211	8d 8d d0 7d ff
	ff		 lea	 ecx, DWORD PTR _kPacket$[ebp]
  00217	c6 45 fc 03	 mov	 BYTE PTR __$EHRec$[ebp+8], 3
  0021b	e8 00 00 00 00	 call	 ??6SP2Packet@@QAEAAV0@H@Z ; SP2Packet::operator<<
  00220	8b c8		 mov	 ecx, eax
  00222	e8 00 00 00 00	 call	 ??6SP2Packet@@QAEAAV0@PAD@Z ; SP2Packet::operator<<

; 333  : 	TCPNetwork::SendToServer( kPacket );

  00227	8d 85 d0 7d ff
	ff		 lea	 eax, DWORD PTR _kPacket$[ebp]
  0022d	50		 push	 eax
  0022e	e8 00 00 00 00	 call	 ?SendToServer@TCPNetwork@@YAXAAVSP2Packet@@@Z ; TCPNetwork::SendToServer
  00233	59		 pop	 ecx

; 334  : 
; 335  : 	g_ChatMgr.SendChatLog( ioMannerTrialChatManager::TT_CHANNEL_CHAT, g_MyInfo.GetPublicID().c_str(), szChat, MT_NONE, m_iChannelIdx );

  00234	e8 00 00 00 00	 call	 ?GetSingleton@ioMyInfo@@SAAAV1@XZ ; ioMyInfo::GetSingleton
  00239	ff b3 64 01 00
	00		 push	 DWORD PTR [ebx+356]
  0023f	8d 8d ec fe ff
	ff		 lea	 ecx, DWORD PTR _szChat$[ebp]
  00245	57		 push	 edi
  00246	51		 push	 ecx
  00247	8d 48 1c	 lea	 ecx, DWORD PTR [eax+28]
  0024a	ff 15 00 00 00
	00		 call	 DWORD PTR __imp_?c_str@ioHashString@@QBEPBDXZ
  00250	50		 push	 eax
  00251	6a 03		 push	 3
  00253	e8 00 00 00 00	 call	 ?GetSingleton@ioSP2ChatManager@@SAAAV1@XZ ; ioSP2ChatManager::GetSingleton
  00258	8b c8		 mov	 ecx, eax
  0025a	e8 00 00 00 00	 call	 ?SendChatLog@ioSP2ChatManager@@QAEXW4TrialType@ioMannerTrialChatManager@@PBD1W4ModeType@@H@Z ; ioSP2ChatManager::SendChatLog

; 336  : }

  0025f	8d 8d d0 7d ff
	ff		 lea	 ecx, DWORD PTR _kPacket$[ebp]
  00265	c6 45 fc 00	 mov	 BYTE PTR __$EHRec$[ebp+8], 0
  00269	e8 00 00 00 00	 call	 ??1SP2Packet@@UAE@XZ	; SP2Packet::~SP2Packet
  0026e	83 4d fc ff	 or	 DWORD PTR __$EHRec$[ebp+8], -1
  00272	8d 8d c0 7d ff
	ff		 lea	 ecx, DWORD PTR _szOwnerChat$[ebp]
  00278	ff 15 00 00 00
	00		 call	 DWORD PTR __imp_??1ioHashString@@QAE@XZ
$LN7@SendChat@2:
  0027e	8b 4d f4	 mov	 ecx, DWORD PTR __$EHRec$[ebp]
  00281	64 89 0d 00 00
	00 00		 mov	 DWORD PTR fs:0, ecx
  00288	59		 pop	 ecx
  00289	5f		 pop	 edi
  0028a	5e		 pop	 esi
  0028b	5b		 pop	 ebx
  0028c	8b 4d f0	 mov	 ecx, DWORD PTR __$ArrayPad$[ebp]
  0028f	33 cd		 xor	 ecx, ebp
  00291	e8 00 00 00 00	 call	 @__security_check_cookie@4
  00296	c9		 leave
  00297	c3		 ret	 0
_TEXT	ENDS
;	COMDAT text$x
text$x	SEGMENT
__unwindfunclet$?SendChat@ChannelChatWnd@@QAEXXZ$0:
  00000	8d 8d c0 7d ff
	ff		 lea	 ecx, DWORD PTR _szOwnerChat$[ebp]
  00006	ff 25 00 00 00
	00		 jmp	 DWORD PTR __imp_??1ioHashString@@QAE@XZ
__unwindfunclet$?SendChat@ChannelChatWnd@@QAEXXZ$1:
  0000c	8b 8d bc 7d ff
	ff		 mov	 ecx, DWORD PTR $T511749[ebp]
  00012	ff 25 00 00 00
	00		 jmp	 DWORD PTR __imp_??1ioHashString@@QAE@XZ
__unwindfunclet$?SendChat@ChannelChatWnd@@QAEXXZ$2:
  00018	8b 8d b8 7d ff
	ff		 mov	 ecx, DWORD PTR $T511750[ebp]
  0001e	ff 25 00 00 00
	00		 jmp	 DWORD PTR __imp_??1ioHashString@@QAE@XZ
__unwindfunclet$?SendChat@ChannelChatWnd@@QAEXXZ$3:
  00024	8d 8d d0 7d ff
	ff		 lea	 ecx, DWORD PTR _kPacket$[ebp]
  0002a	e9 00 00 00 00	 jmp	 ??1SP2Packet@@UAE@XZ	; SP2Packet::~SP2Packet
__ehhandler$?SendChat@ChannelChatWnd@@QAEXXZ:
  0002f	8b 54 24 08	 mov	 edx, DWORD PTR [esp+8]
  00033	8d 42 0c	 lea	 eax, DWORD PTR [edx+12]
  00036	8b 8a b4 7d ff
	ff		 mov	 ecx, DWORD PTR [edx-33356]
  0003c	33 c8		 xor	 ecx, eax
  0003e	e8 00 00 00 00	 call	 @__security_check_cookie@4
  00043	8b 4a fc	 mov	 ecx, DWORD PTR [edx-4]
  00046	33 c8		 xor	 ecx, eax
  00048	e8 00 00 00 00	 call	 @__security_check_cookie@4
  0004d	b8 00 00 00 00	 mov	 eax, OFFSET __ehfuncinfo$?SendChat@ChannelChatWnd@@QAEXXZ
  00052	e9 00 00 00 00	 jmp	 ___CxxFrameHandler3
text$x	ENDS
?SendChat@ChannelChatWnd@@QAEXXZ ENDP			; ChannelChatWnd::SendChat
PUBLIC	??_R0?AVChannelInviteWnd@@@8			; ChannelInviteWnd `RTTI Type Descriptor'
PUBLIC	??_R0?AVMessengerWnd@@@8			; MessengerWnd `RTTI Type Descriptor'
PUBLIC	__$ArrayPad$
EXTRN	?SetChannelIndex@ChannelInviteWnd@@QAEXH@Z:PROC	; ChannelInviteWnd::SetChannelIndex
EXTRN	?Init@MessengerWnd@@QAEXXZ:PROC			; MessengerWnd::Init
EXTRN	?RemoveNode@ioChannelManager@@QAEXPAVChannelNode@@@Z:PROC ; ioChannelManager::RemoveNode
;	COMDAT ??_R0?AVChannelInviteWnd@@@8
_DATA	SEGMENT
??_R0?AVChannelInviteWnd@@@8 DD FLAT:??_7type_info@@6B@	; ChannelInviteWnd `RTTI Type Descriptor'
	DD	00H
	DB	'.?AVChannelInviteWnd@@', 00H
_DATA	ENDS
;	COMDAT ??_R0?AVMessengerWnd@@@8
_DATA	SEGMENT
??_R0?AVMessengerWnd@@@8 DD FLAT:??_7type_info@@6B@	; MessengerWnd `RTTI Type Descriptor'
	DD	00H
	DB	'.?AVMessengerWnd@@', 00H
_DATA	ENDS
;	COMDAT xdata$x
xdata$x	SEGMENT
__unwindtable$?iwm_command@ChannelChatWnd@@UAEXPAVioWnd@@HK@Z DD 0ffffffffH
	DD	FLAT:__unwindfunclet$?iwm_command@ChannelChatWnd@@UAEXPAVioWnd@@HK@Z$0
__ehfuncinfo$?iwm_command@ChannelChatWnd@@UAEXPAVioWnd@@HK@Z DD 019930522H
	DD	01H
	DD	FLAT:__unwindtable$?iwm_command@ChannelChatWnd@@UAEXPAVioWnd@@HK@Z
	DD	2 DUP(00H)
	DD	2 DUP(00H)
	DD	00H
	DD	01H
; Function compile flags: /Ogsp
xdata$x	ENDS
;	COMDAT ?iwm_command@ChannelChatWnd@@UAEXPAVioWnd@@HK@Z
_TEXT	SEGMENT
_kPacket$510526 = -32808				; size = 32792
__$ArrayPad$ = -16					; size = 4
__$EHRec$ = -12						; size = 12
_pWnd$ = 8						; size = 4
_cmd$ = 12						; size = 4
_param$ = 16						; size = 4
?iwm_command@ChannelChatWnd@@UAEXPAVioWnd@@HK@Z PROC	; ChannelChatWnd::iwm_command, COMDAT
; _this$ = ecx

; 472  : {

  00000	55		 push	 ebp
  00001	8b ec		 mov	 ebp, esp
  00003	6a ff		 push	 -1
  00005	68 00 00 00 00	 push	 __ehhandler$?iwm_command@ChannelChatWnd@@UAEXPAVioWnd@@HK@Z
  0000a	64 a1 00 00 00
	00		 mov	 eax, DWORD PTR fs:0
  00010	50		 push	 eax
  00011	b8 1c 80 00 00	 mov	 eax, 32796		; 0000801cH
  00016	e8 00 00 00 00	 call	 __chkstk
  0001b	a1 00 00 00 00	 mov	 eax, DWORD PTR ___security_cookie
  00020	33 c5		 xor	 eax, ebp
  00022	89 45 f0	 mov	 DWORD PTR __$ArrayPad$[ebp], eax
  00025	56		 push	 esi
  00026	57		 push	 edi
  00027	50		 push	 eax
  00028	8d 45 f4	 lea	 eax, DWORD PTR __$EHRec$[ebp]
  0002b	64 a3 00 00 00
	00		 mov	 DWORD PTR fs:0, eax
  00031	8b 7d 08	 mov	 edi, DWORD PTR _pWnd$[ebp]
  00034	8b f1		 mov	 esi, ecx

; 473  : 	DWORD dwID = pWnd->GetID();

  00036	8b cf		 mov	 ecx, edi
  00038	ff 15 00 00 00
	00		 call	 DWORD PTR __imp_?GetID@ioWnd@@QBEKXZ

; 474  : 	switch( dwID )

  0003e	83 f8 01	 cmp	 eax, 1
  00041	0f 84 97 01 00
	00		 je	 $LN21@iwm_comman@2
  00047	83 f8 02	 cmp	 eax, 2
  0004a	0f 84 4c 01 00
	00		 je	 $LN19@iwm_comman@2
  00050	83 f8 03	 cmp	 eax, 3
  00053	0f 84 a9 00 00
	00		 je	 $LN16@iwm_comman@2
  00059	83 f8 04	 cmp	 eax, 4
  0005c	74 2e		 je	 SHORT $LN12@iwm_comman@2
  0005e	83 f8 64	 cmp	 eax, 100		; 00000064H
  00061	0f 86 9e 01 00
	00		 jbe	 $LN20@iwm_comman@2
  00067	83 f8 6e	 cmp	 eax, 110		; 0000006eH
  0006a	76 1a		 jbe	 SHORT $LN4@iwm_comman@2
  0006c	3d e8 03 00 00	 cmp	 eax, 1000		; 000003e8H
  00071	0f 85 8e 01 00
	00		 jne	 $LN20@iwm_comman@2

; 549  : 	case ID_VERT_SCROLL:
; 550  : 		if( cmd == IOBN_BTNDOWN )

  00077	83 7d 0c 10	 cmp	 DWORD PTR _cmd$[ebp], 16 ; 00000010H
$LN29@iwm_comman@2:
  0007b	0f 85 84 01 00
	00		 jne	 $LN20@iwm_comman@2

; 551  : 		{
; 552  : 			SetChatFocus();
; 553  : 		}
; 554  : 		break;

  00081	e9 78 01 00 00	 jmp	 $LN28@iwm_comman@2
$LN4@iwm_comman@2:

; 536  : 	case ID_LINE_CHAT_WND_1:
; 537  : 	case ID_LINE_CHAT_WND_2:
; 538  : 	case ID_LINE_CHAT_WND_3:
; 539  : 	case ID_LINE_CHAT_WND_4:
; 540  : 	case ID_LINE_CHAT_WND_5:
; 541  : 	case ID_LINE_CHAT_WND_6:
; 542  : 	case ID_LINE_CHAT_WND_7:
; 543  : 	case ID_LINE_CHAT_WND_8:
; 544  : 	case ID_LINE_CHAT_WND_9:
; 545  : 	case ID_LINE_CHAT_WND_10:
; 546  : 		if( cmd == IOBN_BTNUP )

  00086	83 7d 0c 11	 cmp	 DWORD PTR _cmd$[ebp], 17 ; 00000011H

; 547  : 			SetChatFocus();
; 548  : 		break;

  0008a	eb ef		 jmp	 SHORT $LN29@iwm_comman@2
$LN12@iwm_comman@2:

; 511  : 	case ID_EDIT_CHAT:
; 512  : 		if( cmd == IOED_INPUT )

  0008c	83 7d 0c 22	 cmp	 DWORD PTR _cmd$[ebp], 34 ; 00000022H
  00090	75 40		 jne	 SHORT $LN11@iwm_comman@2

; 513  : 		{
; 514  : 			if( param == 0 || param == 1 )

  00092	83 7d 10 00	 cmp	 DWORD PTR _param$[ebp], 0
  00096	74 0a		 je	 SHORT $LN9@iwm_comman@2
  00098	83 7d 10 01	 cmp	 DWORD PTR _param$[ebp], 1
  0009c	0f 85 63 01 00
	00		 jne	 $LN20@iwm_comman@2
$LN9@iwm_comman@2:

; 515  : 			{
; 516  : 				ioEdit *pEdit = (ioEdit*)pWnd;
; 517  : 				if( pEdit )

  000a2	85 ff		 test	 edi, edi
  000a4	0f 84 5b 01 00
	00		 je	 $LN20@iwm_comman@2

; 518  : 				{
; 519  : 					pEdit->SetKeyFocus();

  000aa	8b 07		 mov	 eax, DWORD PTR [edi]
  000ac	8b cf		 mov	 ecx, edi
  000ae	ff 90 30 01 00
	00		 call	 DWORD PTR [eax+304]

; 520  : 					//Send
; 521  : 					iwm_command( FindChildWnd( ID_CHAT_SEND ), IOBN_BTNUP, 0 );					

  000b4	8b 3e		 mov	 edi, DWORD PTR [esi]
  000b6	6a 00		 push	 0
  000b8	6a 11		 push	 17			; 00000011H
  000ba	6a 01		 push	 1
  000bc	8b ce		 mov	 ecx, esi
  000be	ff 15 00 00 00
	00		 call	 DWORD PTR __imp_?FindChildWnd@ioWnd@@QAEPAV1@K@Z
  000c4	50		 push	 eax
  000c5	8b ce		 mov	 ecx, esi
  000c7	ff 97 8c 00 00
	00		 call	 DWORD PTR [edi+140]

; 522  : 				}
; 523  : 			}					
; 524  : 		}

  000cd	e9 33 01 00 00	 jmp	 $LN20@iwm_comman@2
$LN11@iwm_comman@2:

; 525  : 		else if( cmd == IOBN_BTNDOWN )

  000d2	83 7d 0c 10	 cmp	 DWORD PTR _cmd$[ebp], 16 ; 00000010H
  000d6	0f 85 29 01 00
	00		 jne	 $LN20@iwm_comman@2

; 526  : 		{
; 527  : 			if( ioEdit::m_pKeyFocusEdit != NULL && ioEdit::m_pKeyFocusEdit != pWnd )

  000dc	a1 00 00 00 00	 mov	 eax, DWORD PTR __imp_?m_pKeyFocusEdit@ioEdit@@2PAV1@A
  000e1	8b 08		 mov	 ecx, DWORD PTR [eax]
  000e3	85 c9		 test	 ecx, ecx
  000e5	74 0c		 je	 SHORT $LN5@iwm_comman@2
  000e7	3b cf		 cmp	 ecx, edi
  000e9	74 08		 je	 SHORT $LN5@iwm_comman@2

; 528  : 			{
; 529  : 				m_pPreEdit = ioEdit::m_pKeyFocusEdit;

  000eb	8b c1		 mov	 eax, ecx
  000ed	89 86 68 01 00
	00		 mov	 DWORD PTR [esi+360], eax
$LN5@iwm_comman@2:

; 530  : 			}
; 531  : 
; 532  : 			ioEdit *pEdit = (ioEdit*)pWnd;
; 533  : 			pEdit->SetKeyFocus();

  000f3	8b 07		 mov	 eax, DWORD PTR [edi]
  000f5	8b cf		 mov	 ecx, edi
  000f7	ff 90 30 01 00
	00		 call	 DWORD PTR [eax+304]

; 534  : 		}
; 535  : 		break;	

  000fd	e9 03 01 00 00	 jmp	 $LN20@iwm_comman@2
$LN16@iwm_comman@2:

; 494  : 	case ID_CHANNEL_LEAVE:
; 495  : 		if( cmd == IOBN_BTNUP )

  00102	83 7d 0c 11	 cmp	 DWORD PTR _cmd$[ebp], 17 ; 00000011H
  00106	0f 85 f9 00 00
	00		 jne	 $LN20@iwm_comman@2

; 496  : 		{
; 497  : 			SP2Packet kPacket( CTPK_CHANNEL_LEAVE );

  0010c	68 07 01 00 00	 push	 263			; 00000107H
  00111	8d 8d d8 7f ff
	ff		 lea	 ecx, DWORD PTR _kPacket$510526[ebp]
  00117	e8 00 00 00 00	 call	 ??0SP2Packet@@QAE@K@Z	; SP2Packet::SP2Packet

; 498  : 			kPacket << m_iChannelIdx;

  0011c	ff b6 64 01 00
	00		 push	 DWORD PTR [esi+356]
  00122	83 65 fc 00	 and	 DWORD PTR __$EHRec$[ebp+8], 0
  00126	8d 8d d8 7f ff
	ff		 lea	 ecx, DWORD PTR _kPacket$510526[ebp]
  0012c	e8 00 00 00 00	 call	 ??6SP2Packet@@QAEAAV0@H@Z ; SP2Packet::operator<<

; 499  : 			TCPNetwork::SendToServer( kPacket );		

  00131	8d 85 d8 7f ff
	ff		 lea	 eax, DWORD PTR _kPacket$510526[ebp]
  00137	50		 push	 eax
  00138	e8 00 00 00 00	 call	 ?SendToServer@TCPNetwork@@YAXAAVSP2Packet@@@Z ; TCPNetwork::SendToServer
  0013d	59		 pop	 ecx

; 500  : 
; 501  : 			ChannelNode *pNode = g_ChannelManager.GetNodeIndex( m_iChannelIdx );

  0013e	ff b6 64 01 00
	00		 push	 DWORD PTR [esi+356]
  00144	e8 00 00 00 00	 call	 ?GetSingleton@ioChannelManager@@SAAAV1@XZ ; ioChannelManager::GetSingleton
  00149	8b c8		 mov	 ecx, eax
  0014b	e8 00 00 00 00	 call	 ?GetNodeIndex@ioChannelManager@@QAEPAVChannelNode@@H@Z ; ioChannelManager::GetNodeIndex

; 502  : 			if( pNode )

  00150	85 c0		 test	 eax, eax
  00152	74 37		 je	 SHORT $LN13@iwm_comman@2

; 503  : 			{
; 504  : 				g_ChannelManager.RemoveNode( pNode );

  00154	50		 push	 eax
  00155	e8 00 00 00 00	 call	 ?GetSingleton@ioChannelManager@@SAAAV1@XZ ; ioChannelManager::GetSingleton
  0015a	8b c8		 mov	 ecx, eax
  0015c	e8 00 00 00 00	 call	 ?RemoveNode@ioChannelManager@@QAEXPAVChannelNode@@@Z ; ioChannelManager::RemoveNode

; 505  : 				MessengerWnd *pMessengerWnd = dynamic_cast<MessengerWnd*>( GetParent() );

  00161	6a 00		 push	 0
  00163	68 00 00 00 00	 push	 OFFSET ??_R0?AVMessengerWnd@@@8
  00168	68 00 00 00 00	 push	 OFFSET ??_R0?AVioWnd@@@8
  0016d	6a 00		 push	 0
  0016f	8b ce		 mov	 ecx, esi
  00171	ff 15 00 00 00
	00		 call	 DWORD PTR __imp_?GetParent@ioWnd@@QAEPAV1@XZ
  00177	50		 push	 eax
  00178	e8 00 00 00 00	 call	 ___RTDynamicCast
  0017d	83 c4 14	 add	 esp, 20			; 00000014H

; 506  : 				if( pMessengerWnd )

  00180	85 c0		 test	 eax, eax
  00182	74 07		 je	 SHORT $LN13@iwm_comman@2

; 507  : 					pMessengerWnd->Init();			

  00184	8b c8		 mov	 ecx, eax
  00186	e8 00 00 00 00	 call	 ?Init@MessengerWnd@@QAEXXZ ; MessengerWnd::Init
$LN13@iwm_comman@2:

; 508  : 			}			
; 509  : 		}

  0018b	83 4d fc ff	 or	 DWORD PTR __$EHRec$[ebp+8], -1
  0018f	8d 8d d8 7f ff
	ff		 lea	 ecx, DWORD PTR _kPacket$510526[ebp]
  00195	e8 00 00 00 00	 call	 ??1SP2Packet@@UAE@XZ	; SP2Packet::~SP2Packet

; 510  : 		break;

  0019a	eb 69		 jmp	 SHORT $LN20@iwm_comman@2
$LN19@iwm_comman@2:

; 482  : 		}
; 483  : 		break;
; 484  : 	case ID_CHANNEL_INVITE:
; 485  : 		if( cmd == IOBN_BTNUP )

  0019c	83 7d 0c 11	 cmp	 DWORD PTR _cmd$[ebp], 17 ; 00000011H
  001a0	75 63		 jne	 SHORT $LN20@iwm_comman@2

; 486  : 		{
; 487  : 			ChannelInviteWnd *pChannelInvite = dynamic_cast<ChannelInviteWnd*>( g_GUIMgr.FindWnd( CHANNEL_INVITE_WND ) );

  001a2	6a 00		 push	 0
  001a4	68 00 00 00 00	 push	 OFFSET ??_R0?AVChannelInviteWnd@@@8
  001a9	68 00 00 00 00	 push	 OFFSET ??_R0?AVioWnd@@@8
  001ae	6a 00		 push	 0
  001b0	68 f3 17 00 00	 push	 6131			; 000017f3H
  001b5	e8 00 00 00 00	 call	 ?GetSingleton@ioSP2GUIManager@@SAAAV1@XZ ; ioSP2GUIManager::GetSingleton
  001ba	8b c8		 mov	 ecx, eax
  001bc	ff 15 00 00 00
	00		 call	 DWORD PTR __imp_?FindWnd@ioGUIManager@@QAEPAVioWnd@@K@Z
