; Listing generated by Microsoft (R) Optimizing Compiler Version 16.00.30319.01 

	TITLE	D:\Lost Saga For Developer\Youtube\Tutorial\Source\src\LSClient\GUI\ChatMacro.cpp
	.686P
	.XMM
	include listing.inc
	.model	flat

INCLUDELIB MSVCRT
INCLUDELIB OLDNAMES

PUBLIC	?m_szMacro@ChatMacro@@1PAY0BAE@DA		; ChatMacro::m_szMacro
_BSS	SEGMENT
?m_szMacro@ChatMacro@@1PAY0BAE@DA DB 06aa4H DUP (?)	; ChatMacro::m_szMacro
_BSS	ENDS
PUBLIC	??_7ChatMacro@@6B@				; ChatMacro::`vftable'
PUBLIC	??0ChatMacro@@QAE@XZ				; ChatMacro::ChatMacro
PUBLIC	??_R4ChatMacro@@6B@				; ChatMacro::`RTTI Complete Object Locator'
PUBLIC	??_R0?AVChatMacro@@@8				; ChatMacro `RTTI Type Descriptor'
PUBLIC	??_R3ChatMacro@@8				; ChatMacro::`RTTI Class Hierarchy Descriptor'
PUBLIC	??_R2ChatMacro@@8				; ChatMacro::`RTTI Base Class Array'
PUBLIC	??_R1A@?0A@EA@ChatMacro@@8			; ChatMacro::`RTTI Base Class Descriptor at (0,-1,0,64)'
EXTRN	??_7type_info@@6B@:QWORD			; type_info::`vftable'
EXTRN	??_EChatMacro@@UAEPAXI@Z:PROC			; ChatMacro::`vector deleting destructor'
;	COMDAT ??_R1A@?0A@EA@ChatMacro@@8
; File d:\lost saga for developer\youtube\tutorial\source\src\lsclient\gui\chatmacro.cpp
rdata$r	SEGMENT
??_R1A@?0A@EA@ChatMacro@@8 DD FLAT:??_R0?AVChatMacro@@@8 ; ChatMacro::`RTTI Base Class Descriptor at (0,-1,0,64)'
	DD	00H
	DD	00H
	DD	0ffffffffH
	DD	00H
	DD	040H
	DD	FLAT:??_R3ChatMacro@@8
rdata$r	ENDS
;	COMDAT ??_R2ChatMacro@@8
rdata$r	SEGMENT
??_R2ChatMacro@@8 DD FLAT:??_R1A@?0A@EA@ChatMacro@@8	; ChatMacro::`RTTI Base Class Array'
rdata$r	ENDS
;	COMDAT ??_R3ChatMacro@@8
rdata$r	SEGMENT
??_R3ChatMacro@@8 DD 00H				; ChatMacro::`RTTI Class Hierarchy Descriptor'
	DD	00H
	DD	01H
	DD	FLAT:??_R2ChatMacro@@8
rdata$r	ENDS
;	COMDAT ??_R0?AVChatMacro@@@8
_DATA	SEGMENT
??_R0?AVChatMacro@@@8 DD FLAT:??_7type_info@@6B@	; ChatMacro `RTTI Type Descriptor'
	DD	00H
	DB	'.?AVChatMacro@@', 00H
_DATA	ENDS
;	COMDAT ??_R4ChatMacro@@6B@
rdata$r	SEGMENT
??_R4ChatMacro@@6B@ DD 00H				; ChatMacro::`RTTI Complete Object Locator'
	DD	00H
	DD	00H
	DD	FLAT:??_R0?AVChatMacro@@@8
	DD	FLAT:??_R3ChatMacro@@8
rdata$r	ENDS
;	COMDAT ??_7ChatMacro@@6B@
CONST	SEGMENT
??_7ChatMacro@@6B@ DD FLAT:??_R4ChatMacro@@6B@		; ChatMacro::`vftable'
	DD	FLAT:??_EChatMacro@@UAEPAXI@Z
; Function compile flags: /Ogsp
CONST	ENDS
;	COMDAT ??0ChatMacro@@QAE@XZ
_TEXT	SEGMENT
??0ChatMacro@@QAE@XZ PROC				; ChatMacro::ChatMacro, COMDAT
; _this$ = ecx

; 14   : {

  00000	8b c1		 mov	 eax, ecx
  00002	c7 00 00 00 00
	00		 mov	 DWORD PTR [eax], OFFSET ??_7ChatMacro@@6B@

; 15   : }

  00008	c3		 ret	 0
??0ChatMacro@@QAE@XZ ENDP				; ChatMacro::ChatMacro
_TEXT	ENDS
PUBLIC	??1ChatMacro@@UAE@XZ				; ChatMacro::~ChatMacro
; Function compile flags: /Ogsp
;	COMDAT ??1ChatMacro@@UAE@XZ
_TEXT	SEGMENT
??1ChatMacro@@UAE@XZ PROC				; ChatMacro::~ChatMacro, COMDAT
; _this$ = ecx

; 18   : {

  00000	c7 01 00 00 00
	00		 mov	 DWORD PTR [ecx], OFFSET ??_7ChatMacro@@6B@

; 19   : }

  00006	c3		 ret	 0
??1ChatMacro@@UAE@XZ ENDP				; ChatMacro::~ChatMacro
_TEXT	ENDS
PUBLIC	__$ArrayPad$
PUBLIC	?IsMacro@ChatMacro@@QAEHPADAAH@Z		; ChatMacro::IsMacro
EXTRN	__imp__stricmp:PROC
EXTRN	___security_cookie:DWORD
EXTRN	@__security_check_cookie@4:PROC
EXTRN	_memset:PROC
; Function compile flags: /Ogsp
;	COMDAT ?IsMacro@ChatMacro@@QAEHPADAAH@Z
_TEXT	SEGMENT
_strCommand$ = -268					; size = 261
__$ArrayPad$ = -4					; size = 4
_szChat$ = 8						; size = 4
_key_word$ = 12						; size = 4
?IsMacro@ChatMacro@@QAEHPADAAH@Z PROC			; ChatMacro::IsMacro, COMDAT
; _this$ = ecx

; 22   : {

  00000	55		 push	 ebp
  00001	8b ec		 mov	 ebp, esp
  00003	81 ec 0c 01 00
	00		 sub	 esp, 268		; 0000010cH
  00009	a1 00 00 00 00	 mov	 eax, DWORD PTR ___security_cookie
  0000e	33 c5		 xor	 eax, ebp
  00010	89 45 fc	 mov	 DWORD PTR __$ArrayPad$[ebp], eax
  00013	56		 push	 esi
  00014	8b 75 0c	 mov	 esi, DWORD PTR _key_word$[ebp]
  00017	57		 push	 edi

; 23   : 	if(szChat[0] != '/')

  00018	8b 7d 08	 mov	 edi, DWORD PTR _szChat$[ebp]
  0001b	80 3f 2f	 cmp	 BYTE PTR [edi], 47	; 0000002fH

; 24   : 		return NONE_MACRO;

  0001e	75 6f		 jne	 SHORT $LN1@IsMacro

; 25   : 	
; 26   : 	char strCommand[MAX_EDIT_TEXT+1] = "";

  00020	53		 push	 ebx
  00021	bb 04 01 00 00	 mov	 ebx, 260		; 00000104H
  00026	53		 push	 ebx
  00027	8d 85 f5 fe ff
	ff		 lea	 eax, DWORD PTR _strCommand$[ebp+1]
  0002d	6a 00		 push	 0
  0002f	50		 push	 eax
  00030	c6 85 f4 fe ff
	ff 00		 mov	 BYTE PTR _strCommand$[ebp], 0
  00037	e8 00 00 00 00	 call	 _memset
  0003c	83 c4 0c	 add	 esp, 12			; 0000000cH

; 27   : 	
; 28   : 	key_word = 0;

  0003f	83 26 00	 and	 DWORD PTR [esi], 0

; 29   : 	while(*szChat != NULL)

  00042	8a 07		 mov	 al, BYTE PTR [edi]
  00044	eb 13		 jmp	 SHORT $LN18@IsMacro
$LL9@IsMacro:

; 30   : 	{
; 31   : 		strCommand[key_word++] = *szChat++;

  00046	8b 0e		 mov	 ecx, DWORD PTR [esi]
  00048	88 84 0d f4 fe
	ff ff		 mov	 BYTE PTR _strCommand$[ebp+ecx], al
  0004f	41		 inc	 ecx
  00050	47		 inc	 edi
  00051	89 0e		 mov	 DWORD PTR [esi], ecx

; 32   : 		if( *szChat == ' ' )

  00053	8a 07		 mov	 al, BYTE PTR [edi]
  00055	3c 20		 cmp	 al, 32			; 00000020H
  00057	74 04		 je	 SHORT $LN15@IsMacro
$LN18@IsMacro:

; 29   : 	while(*szChat != NULL)

  00059	84 c0		 test	 al, al
  0005b	75 e9		 jne	 SHORT $LL9@IsMacro
$LN15@IsMacro:

; 33   : 			break;
; 34   : 	}
; 35   : 
; 36   : 	szChat++;      //공백은 넘겨준다.
; 37   : 	key_word++;

  0005d	ff 06		 inc	 DWORD PTR [esi]

; 38   : 	
; 39   : 	int command_type = 0;

  0005f	33 ff		 xor	 edi, edi
  00061	be 00 00 00 00	 mov	 esi, OFFSET ?m_szMacro@ChatMacro@@1PAY0BAE@DA ; ChatMacro::m_szMacro
$LL6@IsMacro:

; 41   : 	{
; 42   : 		if(stricmp(strCommand, m_szMacro[command_type]) == 0)

  00066	8d 85 f4 fe ff
	ff		 lea	 eax, DWORD PTR _strCommand$[ebp]
  0006c	56		 push	 esi
  0006d	50		 push	 eax
  0006e	ff 15 00 00 00
	00		 call	 DWORD PTR __imp__stricmp
  00074	59		 pop	 ecx
  00075	59		 pop	 ecx
  00076	85 c0		 test	 eax, eax
  00078	74 0b		 je	 SHORT $LN16@IsMacro

; 40   : 	for(;command_type < MAX_MACRO ;command_type++)

  0007a	03 f3		 add	 esi, ebx
  0007c	47		 inc	 edi
  0007d	81 fe a4 6a 00
	00		 cmp	 esi, OFFSET ?m_szMacro@ChatMacro@@1PAY0BAE@DA+27300
  00083	7c e1		 jl	 SHORT $LL6@IsMacro
$LN16@IsMacro:
  00085	5b		 pop	 ebx

; 43   : 			break;
; 44   : 	}
; 45   : 	
; 46   : 	if(!COMPARE(command_type,MACRO_HELP,MAX_MACRO)) 

  00086	83 ff 68	 cmp	 edi, 104		; 00000068H
  00089	77 04		 ja	 SHORT $LN1@IsMacro

; 48   : 
; 49   : 	return command_type;

  0008b	8b c7		 mov	 eax, edi
  0008d	eb 03		 jmp	 SHORT $LN11@IsMacro
$LN1@IsMacro:

; 47   : 		return NONE_MACRO;

  0008f	83 c8 ff	 or	 eax, -1
$LN11@IsMacro:

; 50   : }

  00092	8b 4d fc	 mov	 ecx, DWORD PTR __$ArrayPad$[ebp]
  00095	5f		 pop	 edi
  00096	33 cd		 xor	 ecx, ebp
  00098	5e		 pop	 esi
  00099	e8 00 00 00 00	 call	 @__security_check_cookie@4
  0009e	c9		 leave
  0009f	c2 08 00	 ret	 8
?IsMacro@ChatMacro@@QAEHPADAAH@Z ENDP			; ChatMacro::IsMacro
_TEXT	ENDS
PUBLIC	??_C@_08LGOFLPH@?1UNKNOWN?$AA@			; `string'
PUBLIC	?GetMacroText@ChatMacro@@SAPADH@Z		; ChatMacro::GetMacroText
;	COMDAT ??_C@_08LGOFLPH@?1UNKNOWN?$AA@
CONST	SEGMENT
??_C@_08LGOFLPH@?1UNKNOWN?$AA@ DB '/UNKNOWN', 00H	; `string'
; Function compile flags: /Ogsp
CONST	ENDS
;	COMDAT ?GetMacroText@ChatMacro@@SAPADH@Z
_TEXT	SEGMENT
_iMacroType$ = 8					; size = 4
?GetMacroText@ChatMacro@@SAPADH@Z PROC			; ChatMacro::GetMacroText, COMDAT

; 53   : {

  00000	55		 push	 ebp
  00001	8b ec		 mov	 ebp, esp

; 54   : 	if( COMPARE( iMacroType, 0, MAX_MACRO) )

  00003	8b 45 08	 mov	 eax, DWORD PTR _iMacroType$[ebp]
  00006	83 f8 68	 cmp	 eax, 104		; 00000068H
  00009	77 0d		 ja	 SHORT $LN1@GetMacroTe

; 55   : 		return m_szMacro[iMacroType];

  0000b	69 c0 04 01 00
	00		 imul	 eax, 260		; 00000104H
  00011	05 00 00 00 00	 add	 eax, OFFSET ?m_szMacro@ChatMacro@@1PAY0BAE@DA ; ChatMacro::m_szMacro

; 58   : }

  00016	5d		 pop	 ebp
  00017	c3		 ret	 0
$LN1@GetMacroTe:

; 56   : 
; 57   : 	return "/UNKNOWN";

  00018	b8 00 00 00 00	 mov	 eax, OFFSET ??_C@_08LGOFLPH@?1UNKNOWN?$AA@

; 58   : }

  0001d	5d		 pop	 ebp
  0001e	c3		 ret	 0
?GetMacroText@ChatMacro@@SAPADH@Z ENDP			; ChatMacro::GetMacroText
; Function compile flags: /Ogsp
; File c:\program files (x86)\microsoft sdks\windows\v7.0a\include\strsafe.h
_TEXT	ENDS
;	COMDAT ?StringValidateDestA@@YGJPBDII@Z
_TEXT	SEGMENT
_cchMax$ = 8						; size = 4
?StringValidateDestA@@YGJPBDII@Z PROC			; StringValidateDestA, COMDAT
; _cchDest$ = ecx

; 8721 : {

  00000	55		 push	 ebp
  00001	8b ec		 mov	 ebp, esp

; 8722 :     HRESULT hr = S_OK;

  00003	33 c0		 xor	 eax, eax

; 8723 : 
; 8724 :     if ((cchDest == 0) || (cchDest > cchMax))

  00005	85 c9		 test	 ecx, ecx
  00007	74 05		 je	 SHORT $LN1@StringVali
  00009	3b 4d 08	 cmp	 ecx, DWORD PTR _cchMax$[ebp]
  0000c	76 05		 jbe	 SHORT $LN2@StringVali
$LN1@StringVali:

; 8725 :     {
; 8726 :         hr = STRSAFE_E_INVALID_PARAMETER;

  0000e	b8 57 00 07 80	 mov	 eax, -2147024809	; 80070057H
$LN2@StringVali:

; 8727 :     }
; 8728 : 
; 8729 :     return hr;
; 8730 : }

  00013	5d		 pop	 ebp
  00014	c2 04 00	 ret	 4
?StringValidateDestA@@YGJPBDII@Z ENDP			; StringValidateDestA
; Function compile flags: /Ogsp
_TEXT	ENDS
;	COMDAT ?StringCopyWorkerA@@YGJPADIPAIPBDI@Z
_TEXT	SEGMENT
_hr$ = -4						; size = 4
_pcchNewDestLength$ = 8					; size = 4
_pszSrc$ = 12						; size = 4
_cchToCopy$ = 16					; size = 4
?StringCopyWorkerA@@YGJPADIPAIPBDI@Z PROC		; StringCopyWorkerA, COMDAT
; _pszDest$ = ecx
; _cchDest$ = eax

; 8947 : {

  00000	55		 push	 ebp
  00001	8b ec		 mov	 ebp, esp
  00003	51		 push	 ecx

; 8948 :     HRESULT hr = S_OK;

  00004	83 65 fc 00	 and	 DWORD PTR _hr$[ebp], 0
  00008	57		 push	 edi
  00009	8b f8		 mov	 edi, eax

; 8949 :     size_t cchNewDestLength = 0;

  0000b	33 c0		 xor	 eax, eax

; 8950 :     
; 8951 :     // ASSERT(cchDest != 0);
; 8952 : 
; 8953 :     while (cchDest && cchToCopy && (*pszSrc != '\0'))

  0000d	85 ff		 test	 edi, edi
  0000f	74 23		 je	 SHORT $LN9@StringCopy

; 8948 :     HRESULT hr = S_OK;

  00011	53		 push	 ebx
  00012	8b 5d 10	 mov	 ebx, DWORD PTR _cchToCopy$[ebp]
  00015	56		 push	 esi

; 8950 :     
; 8951 :     // ASSERT(cchDest != 0);
; 8952 : 
; 8953 :     while (cchDest && cchToCopy && (*pszSrc != '\0'))

  00016	8b 75 0c	 mov	 esi, DWORD PTR _pszSrc$[ebp]
  00019	2b f1		 sub	 esi, ecx
$LL4@StringCopy:
  0001b	85 db		 test	 ebx, ebx
  0001d	74 0f		 je	 SHORT $LN11@StringCopy
  0001f	8a 14 0e	 mov	 dl, BYTE PTR [esi+ecx]
  00022	84 d2		 test	 dl, dl
  00024	74 08		 je	 SHORT $LN11@StringCopy

; 8954 :     {
; 8955 :         *pszDest++ = *pszSrc++;

  00026	88 11		 mov	 BYTE PTR [ecx], dl
  00028	41		 inc	 ecx

; 8956 :         cchDest--;

  00029	4b		 dec	 ebx

; 8957 :         cchToCopy--;
; 8958 : 
; 8959 :         cchNewDestLength++;

  0002a	40		 inc	 eax
  0002b	4f		 dec	 edi
  0002c	75 ed		 jne	 SHORT $LL4@StringCopy
$LN11@StringCopy:
  0002e	5e		 pop	 esi
  0002f	5b		 pop	 ebx

; 8960 :     }
; 8961 : 
; 8962 :     if (cchDest == 0)

  00030	85 ff		 test	 edi, edi
  00032	75 09		 jne	 SHORT $LN2@StringCopy
$LN9@StringCopy:

; 8963 :     {
; 8964 :         // we are going to truncate pszDest
; 8965 :         pszDest--;

  00034	49		 dec	 ecx

; 8966 :         cchNewDestLength--;

  00035	48		 dec	 eax

; 8967 : 
; 8968 :         hr = STRSAFE_E_INSUFFICIENT_BUFFER;

  00036	c7 45 fc 7a 00
	07 80		 mov	 DWORD PTR _hr$[ebp], -2147024774 ; 8007007aH
$LN2@StringCopy:

; 8969 :     }
; 8970 : 
; 8971 :     *pszDest = '\0';

  0003d	c6 01 00	 mov	 BYTE PTR [ecx], 0

; 8972 : 
; 8973 :     if (pcchNewDestLength)

  00040	8b 4d 08	 mov	 ecx, DWORD PTR _pcchNewDestLength$[ebp]
  00043	5f		 pop	 edi
  00044	85 c9		 test	 ecx, ecx
  00046	74 02		 je	 SHORT $LN1@StringCopy

; 8974 :     {
; 8975 :         *pcchNewDestLength = cchNewDestLength;

  00048	89 01		 mov	 DWORD PTR [ecx], eax
$LN1@StringCopy:

; 8976 :     }
; 8977 : 
; 8978 :     return hr;

  0004a	8b 45 fc	 mov	 eax, DWORD PTR _hr$[ebp]

; 8979 : }

  0004d	c9		 leave
  0004e	c2 0c 00	 ret	 12			; 0000000cH
?StringCopyWorkerA@@YGJPADIPAIPBDI@Z ENDP		; StringCopyWorkerA
_TEXT	ENDS
EXTRN	??3@YAXPAX@Z:PROC				; operator delete
; Function compile flags: /Ogsp
;	COMDAT ??_GChatMacro@@UAEPAXI@Z
_TEXT	SEGMENT
___flags$ = 8						; size = 4
??_GChatMacro@@UAEPAXI@Z PROC				; ChatMacro::`scalar deleting destructor', COMDAT
; _this$ = ecx
  00000	55		 push	 ebp
  00001	8b ec		 mov	 ebp, esp
  00003	f6 45 08 01	 test	 BYTE PTR ___flags$[ebp], 1
  00007	56		 push	 esi
  00008	8b f1		 mov	 esi, ecx
  0000a	c7 06 00 00 00
	00		 mov	 DWORD PTR [esi], OFFSET ??_7ChatMacro@@6B@
  00010	74 07		 je	 SHORT $LN1@scalar
  00012	56		 push	 esi
  00013	e8 00 00 00 00	 call	 ??3@YAXPAX@Z		; operator delete
  00018	59		 pop	 ecx
$LN1@scalar:
  00019	8b c6		 mov	 eax, esi
  0001b	5e		 pop	 esi
  0001c	5d		 pop	 ebp
  0001d	c2 04 00	 ret	 4
??_GChatMacro@@UAEPAXI@Z ENDP				; ChatMacro::`scalar deleting destructor'
_TEXT	ENDS
PUBLIC	?StringCbCopyA@@YGJPADIPBD@Z			; StringCbCopyA
; Function compile flags: /Ogsp
;	COMDAT ?StringCbCopyA@@YGJPADIPBD@Z
_TEXT	SEGMENT
_pszDest$ = 8						; size = 4
_cbDest$ = 12						; size = 4
_pszSrc$ = 16						; size = 4
?StringCbCopyA@@YGJPADIPBD@Z PROC			; StringCbCopyA, COMDAT

; 582  : {

  00000	55		 push	 ebp
  00001	8b ec		 mov	 ebp, esp

; 583  :     HRESULT hr;
; 584  :     size_t cchDest = cbDest / sizeof(char);
; 585  : 
; 586  :     hr = StringValidateDestA(pszDest, cchDest, STRSAFE_MAX_CCH);

  00003	8b 4d 0c	 mov	 ecx, DWORD PTR _cbDest$[ebp]
  00006	33 c0		 xor	 eax, eax
  00008	85 c9		 test	 ecx, ecx
  0000a	74 08		 je	 SHORT $LN4@StringCbCo
  0000c	81 f9 ff ff ff
	7f		 cmp	 ecx, 2147483647		; 7fffffffH
  00012	76 05		 jbe	 SHORT $LN5@StringCbCo
$LN4@StringCbCo:
  00014	b8 57 00 07 80	 mov	 eax, -2147024809	; 80070057H
$LN5@StringCbCo:

; 587  : 
; 588  :     if (SUCCEEDED(hr))

  00019	85 c0		 test	 eax, eax
  0001b	78 40		 js	 SHORT $LN1@StringCbCo

; 589  :     {
; 590  :         hr = StringCopyWorkerA(pszDest,
; 591  :                                cchDest,
; 592  :                                NULL,
; 593  :                                pszSrc,
; 594  :                                STRSAFE_MAX_LENGTH);

  0001d	8b 45 08	 mov	 eax, DWORD PTR _pszDest$[ebp]
  00020	53		 push	 ebx
  00021	33 db		 xor	 ebx, ebx
  00023	56		 push	 esi
  00024	8b f1		 mov	 esi, ecx
  00026	85 c9		 test	 ecx, ecx
  00028	74 26		 je	 SHORT $LN16@StringCbCo
  0002a	8b 55 10	 mov	 edx, DWORD PTR _pszSrc$[ebp]
  0002d	57		 push	 edi
  0002e	bf fe ff ff 7f	 mov	 edi, 2147483646		; 7ffffffeH
  00033	2b f9		 sub	 edi, ecx
  00035	2b d0		 sub	 edx, eax
$LL11@StringCbCo:
  00037	8d 0c 37	 lea	 ecx, DWORD PTR [edi+esi]
  0003a	85 c9		 test	 ecx, ecx
  0003c	74 0d		 je	 SHORT $LN10@StringCbCo
  0003e	8a 0c 02	 mov	 cl, BYTE PTR [edx+eax]
  00041	84 c9		 test	 cl, cl
  00043	74 06		 je	 SHORT $LN10@StringCbCo
  00045	88 08		 mov	 BYTE PTR [eax], cl
  00047	40		 inc	 eax
  00048	4e		 dec	 esi
  00049	75 ec		 jne	 SHORT $LL11@StringCbCo
$LN10@StringCbCo:
  0004b	5f		 pop	 edi
  0004c	85 f6		 test	 esi, esi
  0004e	75 06		 jne	 SHORT $LN9@StringCbCo
$LN16@StringCbCo:
  00050	48		 dec	 eax
  00051	bb 7a 00 07 80	 mov	 ebx, -2147024774	; 8007007aH
$LN9@StringCbCo:
  00056	c6 00 00	 mov	 BYTE PTR [eax], 0
  00059	5e		 pop	 esi
  0005a	8b c3		 mov	 eax, ebx
  0005c	5b		 pop	 ebx
$LN1@StringCbCo:

; 595  :     }
; 596  : 
; 597  :     return hr;
; 598  : }

  0005d	5d		 pop	 ebp
  0005e	c2 0c 00	 ret	 12			; 0000000cH
?StringCbCopyA@@YGJPADIPBD@Z ENDP			; StringCbCopyA
_TEXT	ENDS
PUBLIC	??_C@_03NFGNPILD@?1HE?$AA@			; `string'
PUBLIC	??_C@_03IDDHFPDF@?1HC?$AA@			; `string'
PUBLIC	??_C@_03IGLENLKD@?1HT?$AA@			; `string'
PUBLIC	??_C@_07PFOEKKKB@?1fpslag?$AA@			; `string'
PUBLIC	??_C@_0N@MAIIKPII@?1timerchange?$AA@		; `string'
PUBLIC	??_C@_04DJBJJHPB@?1FPS?$AA@			; `string'
PUBLIC	??_C@_04DEOCFKIN@?1fps?$AA@			; `string'
PUBLIC	??_C@_0N@EIOKGLMO@?1penaltyview?$AA@		; `string'
PUBLIC	??_C@_06OAFNBODM@?1openW?$AA@			; `string'
PUBLIC	??_C@_05MHPNKFNJ@?1achi?$AA@			; `string'
PUBLIC	??_C@_09NENPHBD@?1CheckDDS?$AA@			; `string'
PUBLIC	??_C@_0N@GOLFJIHK@?1GetGashaAll?$AA@		; `string'
PUBLIC	??_C@_03KDDEGMMD@?125?$AA@			; `string'
PUBLIC	??_C@_03LKCPFNIC@?124?$AA@			; `string'
PUBLIC	??_C@_03PFGOMLEF@?123?$AA@			; `string'
PUBLIC	??_C@_03OMHFPKAE@?122?$AA@			; `string'
PUBLIC	??_C@_03MHFIKJMH@?121?$AA@			; `string'
PUBLIC	??_C@_03NOEDJIIG@?120?$AA@			; `string'
PUBLIC	??_C@_03MFBOBHJO@?111?$AA@			; `string'
PUBLIC	??_C@_03NMAFCGNP@?110?$AA@			; `string'
PUBLIC	??_C@_02LKLDLGEF@?16?$AA@			; `string'
PUBLIC	??_C@_02JBJOOFIG@?15?$AA@			; `string'
PUBLIC	??_C@_02IIIFNEMH@?14?$AA@			; `string'
PUBLIC	??_C@_02MHMEECAA@?13?$AA@			; `string'
PUBLIC	??_C@_02NONPHDEB@?12?$AA@			; `string'
PUBLIC	??_C@_02PFPCCAIC@?11?$AA@			; `string'
PUBLIC	??_C@_0BI@MLLKIMKO@ChatMacro?3?3SetMacroText?$AA@ ; `string'
PUBLIC	??_C@_00CNPNBAHC@?$AA@				; `string'
PUBLIC	?SetMacroText@ChatMacro@@SAXXZ			; ChatMacro::SetMacroText
EXTRN	__imp_?GetString@ioStringManager@@QAEPADPBD0HW4FileNamePrefix@1@@Z:PROC
EXTRN	__imp_?GetSingleton@ioStringManager@@SAAAV1@XZ:PROC
;	COMDAT ??_C@_03NFGNPILD@?1HE?$AA@
; File d:\lost saga for developer\youtube\tutorial\source\src\lsclient\gui\chatmacro.cpp
CONST	SEGMENT
??_C@_03NFGNPILD@?1HE?$AA@ DB '/HE', 00H		; `string'
CONST	ENDS
;	COMDAT ??_C@_03IDDHFPDF@?1HC?$AA@
CONST	SEGMENT
??_C@_03IDDHFPDF@?1HC?$AA@ DB '/HC', 00H		; `string'
CONST	ENDS
;	COMDAT ??_C@_03IGLENLKD@?1HT?$AA@
CONST	SEGMENT
??_C@_03IGLENLKD@?1HT?$AA@ DB '/HT', 00H		; `string'
CONST	ENDS
;	COMDAT ??_C@_07PFOEKKKB@?1fpslag?$AA@
CONST	SEGMENT
??_C@_07PFOEKKKB@?1fpslag?$AA@ DB '/fpslag', 00H	; `string'
CONST	ENDS
;	COMDAT ??_C@_0N@MAIIKPII@?1timerchange?$AA@
CONST	SEGMENT
??_C@_0N@MAIIKPII@?1timerchange?$AA@ DB '/timerchange', 00H ; `string'
CONST	ENDS
;	COMDAT ??_C@_04DJBJJHPB@?1FPS?$AA@
CONST	SEGMENT
??_C@_04DJBJJHPB@?1FPS?$AA@ DB '/FPS', 00H		; `string'
CONST	ENDS
;	COMDAT ??_C@_04DEOCFKIN@?1fps?$AA@
CONST	SEGMENT
??_C@_04DEOCFKIN@?1fps?$AA@ DB '/fps', 00H		; `string'
CONST	ENDS
;	COMDAT ??_C@_0N@EIOKGLMO@?1penaltyview?$AA@
CONST	SEGMENT
??_C@_0N@EIOKGLMO@?1penaltyview?$AA@ DB '/penaltyview', 00H ; `string'
CONST	ENDS
;	COMDAT ??_C@_06OAFNBODM@?1openW?$AA@
CONST	SEGMENT
??_C@_06OAFNBODM@?1openW?$AA@ DB '/openW', 00H		; `string'
CONST	ENDS
;	COMDAT ??_C@_05MHPNKFNJ@?1achi?$AA@
CONST	SEGMENT
??_C@_05MHPNKFNJ@?1achi?$AA@ DB '/achi', 00H		; `string'
CONST	ENDS
;	COMDAT ??_C@_09NENPHBD@?1CheckDDS?$AA@
CONST	SEGMENT
??_C@_09NENPHBD@?1CheckDDS?$AA@ DB '/CheckDDS', 00H	; `string'
CONST	ENDS
;	COMDAT ??_C@_0N@GOLFJIHK@?1GetGashaAll?$AA@
CONST	SEGMENT
??_C@_0N@GOLFJIHK@?1GetGashaAll?$AA@ DB '/GetGashaAll', 00H ; `string'
CONST	ENDS
;	COMDAT ??_C@_03KDDEGMMD@?125?$AA@
CONST	SEGMENT
??_C@_03KDDEGMMD@?125?$AA@ DB '/25', 00H		; `string'
CONST	ENDS
;	COMDAT ??_C@_03LKCPFNIC@?124?$AA@
CONST	SEGMENT
??_C@_03LKCPFNIC@?124?$AA@ DB '/24', 00H		; `string'
CONST	ENDS
;	COMDAT ??_C@_03PFGOMLEF@?123?$AA@
CONST	SEGMENT
??_C@_03PFGOMLEF@?123?$AA@ DB '/23', 00H		; `string'
CONST	ENDS
;	COMDAT ??_C@_03OMHFPKAE@?122?$AA@
CONST	SEGMENT
??_C@_03OMHFPKAE@?122?$AA@ DB '/22', 00H		; `string'
CONST	ENDS
;	COMDAT ??_C@_03MHFIKJMH@?121?$AA@
CONST	SEGMENT
??_C@_03MHFIKJMH@?121?$AA@ DB '/21', 00H		; `string'
CONST	ENDS
;	COMDAT ??_C@_03NOEDJIIG@?120?$AA@
CONST	SEGMENT
??_C@_03NOEDJIIG@?120?$AA@ DB '/20', 00H		; `string'
CONST	ENDS
;	COMDAT ??_C@_03MFBOBHJO@?111?$AA@
CONST	SEGMENT
??_C@_03MFBOBHJO@?111?$AA@ DB '/11', 00H		; `string'
CONST	ENDS
;	COMDAT ??_C@_03NMAFCGNP@?110?$AA@
CONST	SEGMENT
??_C@_03NMAFCGNP@?110?$AA@ DB '/10', 00H		; `string'
CONST	ENDS
;	COMDAT ??_C@_02LKLDLGEF@?16?$AA@
CONST	SEGMENT
??_C@_02LKLDLGEF@?16?$AA@ DB '/6', 00H			; `string'
CONST	ENDS
;	COMDAT ??_C@_02JBJOOFIG@?15?$AA@
CONST	SEGMENT
??_C@_02JBJOOFIG@?15?$AA@ DB '/5', 00H			; `string'
CONST	ENDS
;	COMDAT ??_C@_02IIIFNEMH@?14?$AA@
CONST	SEGMENT
??_C@_02IIIFNEMH@?14?$AA@ DB '/4', 00H			; `string'
CONST	ENDS
;	COMDAT ??_C@_02MHMEECAA@?13?$AA@
CONST	SEGMENT
??_C@_02MHMEECAA@?13?$AA@ DB '/3', 00H			; `string'
CONST	ENDS
;	COMDAT ??_C@_02NONPHDEB@?12?$AA@
CONST	SEGMENT
??_C@_02NONPHDEB@?12?$AA@ DB '/2', 00H			; `string'
CONST	ENDS
;	COMDAT ??_C@_02PFPCCAIC@?11?$AA@
CONST	SEGMENT
??_C@_02PFPCCAIC@?11?$AA@ DB '/1', 00H			; `string'
CONST	ENDS
;	COMDAT ??_C@_0BI@MLLKIMKO@ChatMacro?3?3SetMacroText?$AA@
CONST	SEGMENT
??_C@_0BI@MLLKIMKO@ChatMacro?3?3SetMacroText?$AA@ DB 'ChatMacro::SetMacro'
	DB	'Text', 00H					; `string'
CONST	ENDS
;	COMDAT ??_C@_00CNPNBAHC@?$AA@
CONST	SEGMENT
??_C@_00CNPNBAHC@?$AA@ DB 00H				; `string'
; Function compile flags: /Ogsp
CONST	ENDS
;	COMDAT ?SetMacroText@ChatMacro@@SAXXZ
_TEXT	SEGMENT
?SetMacroText@ChatMacro@@SAXXZ PROC			; ChatMacro::SetMacroText, COMDAT

; 61   : {	

  00000	53		 push	 ebx
  00001	56		 push	 esi
  00002	57		 push	 edi

; 62   : 	ZeroMemory( m_szMacro, sizeof( m_szMacro ) );

  00003	68 a4 6a 00 00	 push	 27300			; 00006aa4H
  00008	6a 00		 push	 0
  0000a	68 00 00 00 00	 push	 OFFSET ?m_szMacro@ChatMacro@@1PAY0BAE@DA ; ChatMacro::m_szMacro
  0000f	e8 00 00 00 00	 call	 _memset

; 63   : 
; 64   : 	// 스트링 추출때문에 loop 사용 안함.
; 65   : 	StringCbCopy( m_szMacro[MACRO_HELP]							,sizeof( m_szMacro[MACRO_HELP] )						, STR(1) );

  00014	8b 3d 00 00 00
	00		 mov	 edi, DWORD PTR __imp_?GetSingleton@ioStringManager@@SAAAV1@XZ
  0001a	83 c4 0c	 add	 esp, 12			; 0000000cH
  0001d	6a 00		 push	 0
  0001f	6a 01		 push	 1
  00021	68 00 00 00 00	 push	 OFFSET ??_C@_00CNPNBAHC@?$AA@
  00026	68 00 00 00 00	 push	 OFFSET ??_C@_0BI@MLLKIMKO@ChatMacro?3?3SetMacroText?$AA@
  0002b	ff d7		 call	 edi
  0002d	8b 1d 00 00 00
	00		 mov	 ebx, DWORD PTR __imp_?GetString@ioStringManager@@QAEPADPBD0HW4FileNamePrefix@1@@Z
  00033	8b c8		 mov	 ecx, eax
  00035	ff d3		 call	 ebx
  00037	50		 push	 eax
  00038	be 04 01 00 00	 mov	 esi, 260		; 00000104H
  0003d	56		 push	 esi
  0003e	68 00 00 00 00	 push	 OFFSET ?m_szMacro@ChatMacro@@1PAY0BAE@DA ; ChatMacro::m_szMacro
  00043	e8 00 00 00 00	 call	 ?StringCbCopyA@@YGJPADIPBD@Z ; StringCbCopyA

; 66   : 	StringCbCopy( m_szMacro[MACRO_QUEST_GUIDE]					,sizeof( m_szMacro[MACRO_QUEST_GUIDE] )					, "/1" );

  00048	68 00 00 00 00	 push	 OFFSET ??_C@_02PFPCCAIC@?11?$AA@
  0004d	56		 push	 esi
  0004e	68 04 01 00 00	 push	 OFFSET ?m_szMacro@ChatMacro@@1PAY0BAE@DA+260
  00053	e8 00 00 00 00	 call	 ?StringCbCopyA@@YGJPADIPBD@Z ; StringCbCopyA

; 67   : 	StringCbCopy( m_szMacro[MACRO_QUEST_OCCUR]					,sizeof( m_szMacro[MACRO_QUEST_OCCUR] )					, "/2" );

  00058	68 00 00 00 00	 push	 OFFSET ??_C@_02NONPHDEB@?12?$AA@
  0005d	56		 push	 esi
  0005e	68 08 02 00 00	 push	 OFFSET ?m_szMacro@ChatMacro@@1PAY0BAE@DA+520
  00063	e8 00 00 00 00	 call	 ?StringCbCopyA@@YGJPADIPBD@Z ; StringCbCopyA

; 68   : 	StringCbCopy( m_szMacro[MACRO_QUEST_ATTAIN]					,sizeof( m_szMacro[MACRO_QUEST_ATTAIN] )				, "/3" );

  00068	68 00 00 00 00	 push	 OFFSET ??_C@_02MHMEECAA@?13?$AA@
  0006d	56		 push	 esi
  0006e	68 0c 03 00 00	 push	 OFFSET ?m_szMacro@ChatMacro@@1PAY0BAE@DA+780
  00073	e8 00 00 00 00	 call	 ?StringCbCopyA@@YGJPADIPBD@Z ; StringCbCopyA

; 69   : 	StringCbCopy( m_szMacro[MACRO_QUEST_DELETE]					,sizeof( m_szMacro[MACRO_QUEST_DELETE] )				, "/4" );

  00078	68 00 00 00 00	 push	 OFFSET ??_C@_02IIIFNEMH@?14?$AA@
  0007d	56		 push	 esi
  0007e	68 10 04 00 00	 push	 OFFSET ?m_szMacro@ChatMacro@@1PAY0BAE@DA+1040
  00083	e8 00 00 00 00	 call	 ?StringCbCopyA@@YGJPADIPBD@Z ; StringCbCopyA

; 70   : 	StringCbCopy( m_szMacro[MACRO_PRESENT_DELETE]				,sizeof( m_szMacro[MACRO_PRESENT_DELETE] )				, "/5" );

  00088	68 00 00 00 00	 push	 OFFSET ??_C@_02JBJOOFIG@?15?$AA@
  0008d	56		 push	 esi
  0008e	68 1c 07 00 00	 push	 OFFSET ?m_szMacro@ChatMacro@@1PAY0BAE@DA+1820
  00093	e8 00 00 00 00	 call	 ?StringCbCopyA@@YGJPADIPBD@Z ; StringCbCopyA

; 71   : 	StringCbCopy( m_szMacro[MACRO_QUEST_TEXT]					,sizeof( m_szMacro[MACRO_QUEST_TEXT] )					, "/6" );

  00098	68 00 00 00 00	 push	 OFFSET ??_C@_02LKLDLGEF@?16?$AA@
  0009d	56		 push	 esi
  0009e	68 14 05 00 00	 push	 OFFSET ?m_szMacro@ChatMacro@@1PAY0BAE@DA+1300
  000a3	e8 00 00 00 00	 call	 ?StringCbCopyA@@YGJPADIPBD@Z ; StringCbCopyA

; 72   : 	StringCbCopy( m_szMacro[MACRO_EXIT_LADDER]					,sizeof( m_szMacro[MACRO_EXIT_LADDER] )					, STR(6) );

  000a8	6a 00		 push	 0
  000aa	6a 06		 push	 6
  000ac	68 00 00 00 00	 push	 OFFSET ??_C@_00CNPNBAHC@?$AA@
  000b1	68 00 00 00 00	 push	 OFFSET ??_C@_0BI@MLLKIMKO@ChatMacro?3?3SetMacroText?$AA@
  000b6	ff d7		 call	 edi
  000b8	8b c8		 mov	 ecx, eax
  000ba	ff d3		 call	 ebx
  000bc	50		 push	 eax
  000bd	56		 push	 esi
  000be	68 18 06 00 00	 push	 OFFSET ?m_szMacro@ChatMacro@@1PAY0BAE@DA+1560
  000c3	e8 00 00 00 00	 call	 ?StringCbCopyA@@YGJPADIPBD@Z ; StringCbCopyA

; 73   : 	StringCbCopy( m_szMacro[MACRO_CHANNEL_INFO]					,sizeof( m_szMacro[MACRO_CHANNEL_INFO] )				, STR(8) );

  000c8	6a 00		 push	 0
  000ca	6a 08		 push	 8
  000cc	68 00 00 00 00	 push	 OFFSET ??_C@_00CNPNBAHC@?$AA@
  000d1	68 00 00 00 00	 push	 OFFSET ??_C@_0BI@MLLKIMKO@ChatMacro?3?3SetMacroText?$AA@
  000d6	ff d7		 call	 edi
  000d8	8b c8		 mov	 ecx, eax
  000da	ff d3		 call	 ebx
  000dc	50		 push	 eax
  000dd	56		 push	 esi
  000de	68 20 08 00 00	 push	 OFFSET ?m_szMacro@ChatMacro@@1PAY0BAE@DA+2080
  000e3	e8 00 00 00 00	 call	 ?StringCbCopyA@@YGJPADIPBD@Z ; StringCbCopyA

; 74   : 	StringCbCopy( m_szMacro[MACRO_CONTRIBUTE]					,sizeof( m_szMacro[MACRO_CONTRIBUTE] )					, STR(9) );

  000e8	6a 00		 push	 0
  000ea	6a 09		 push	 9
  000ec	68 00 00 00 00	 push	 OFFSET ??_C@_00CNPNBAHC@?$AA@
  000f1	68 00 00 00 00	 push	 OFFSET ??_C@_0BI@MLLKIMKO@ChatMacro?3?3SetMacroText?$AA@
  000f6	ff d7		 call	 edi
  000f8	8b c8		 mov	 ecx, eax
  000fa	ff d3		 call	 ebx
  000fc	50		 push	 eax
  000fd	56		 push	 esi
  000fe	68 24 09 00 00	 push	 OFFSET ?m_szMacro@ChatMacro@@1PAY0BAE@DA+2340
  00103	e8 00 00 00 00	 call	 ?StringCbCopyA@@YGJPADIPBD@Z ; StringCbCopyA

; 75   : 	StringCbCopy( m_szMacro[MACRO_MEMO]							,sizeof( m_szMacro[MACRO_MEMO] )						, STR(10) );

  00108	6a 00		 push	 0
  0010a	6a 0a		 push	 10			; 0000000aH
  0010c	68 00 00 00 00	 push	 OFFSET ??_C@_00CNPNBAHC@?$AA@
  00111	68 00 00 00 00	 push	 OFFSET ??_C@_0BI@MLLKIMKO@ChatMacro?3?3SetMacroText?$AA@
  00116	ff d7		 call	 edi
  00118	8b c8		 mov	 ecx, eax
  0011a	ff d3		 call	 ebx
  0011c	50		 push	 eax
  0011d	56		 push	 esi
  0011e	68 28 0a 00 00	 push	 OFFSET ?m_szMacro@ChatMacro@@1PAY0BAE@DA+2600
  00123	e8 00 00 00 00	 call	 ?StringCbCopyA@@YGJPADIPBD@Z ; StringCbCopyA

; 76   : 	StringCbCopy( m_szMacro[MACRO_INVITE_CHANNEL]				,sizeof( m_szMacro[MACRO_INVITE_CHANNEL] )				, STR(11) );

  00128	6a 00		 push	 0
  0012a	6a 0b		 push	 11			; 0000000bH
  0012c	68 00 00 00 00	 push	 OFFSET ??_C@_00CNPNBAHC@?$AA@
  00131	68 00 00 00 00	 push	 OFFSET ??_C@_0BI@MLLKIMKO@ChatMacro?3?3SetMacroText?$AA@
  00136	ff d7		 call	 edi
  00138	8b c8		 mov	 ecx, eax
  0013a	ff d3		 call	 ebx
  0013c	50		 push	 eax
  0013d	56		 push	 esi
  0013e	68 2c 0b 00 00	 push	 OFFSET ?m_szMacro@ChatMacro@@1PAY0BAE@DA+2860
  00143	e8 00 00 00 00	 call	 ?StringCbCopyA@@YGJPADIPBD@Z ; StringCbCopyA

; 77   : 	StringCbCopy( m_szMacro[MACRO_ENTER_PLAZA]					,sizeof( m_szMacro[MACRO_ENTER_PLAZA] )					, STR(12) );

  00148	6a 00		 push	 0
  0014a	6a 0c		 push	 12			; 0000000cH
  0014c	68 00 00 00 00	 push	 OFFSET ??_C@_00CNPNBAHC@?$AA@
  00151	68 00 00 00 00	 push	 OFFSET ??_C@_0BI@MLLKIMKO@ChatMacro?3?3SetMacroText?$AA@
  00156	ff d7		 call	 edi
  00158	8b c8		 mov	 ecx, eax
  0015a	ff d3		 call	 ebx
  0015c	50		 push	 eax
  0015d	56		 push	 esi
  0015e	68 30 0c 00 00	 push	 OFFSET ?m_szMacro@ChatMacro@@1PAY0BAE@DA+3120
  00163	e8 00 00 00 00	 call	 ?StringCbCopyA@@YGJPADIPBD@Z ; StringCbCopyA

; 78   : 	StringCbCopy( m_szMacro[MACRO_NONE_UI]						,sizeof( m_szMacro[MACRO_NONE_UI] )						, STR(13) );

  00168	6a 00		 push	 0
  0016a	6a 0d		 push	 13			; 0000000dH
  0016c	68 00 00 00 00	 push	 OFFSET ??_C@_00CNPNBAHC@?$AA@
  00171	68 00 00 00 00	 push	 OFFSET ??_C@_0BI@MLLKIMKO@ChatMacro?3?3SetMacroText?$AA@
  00176	ff d7		 call	 edi
  00178	8b c8		 mov	 ecx, eax
  0017a	ff d3		 call	 ebx
  0017c	50		 push	 eax
  0017d	56		 push	 esi
  0017e	68 34 0d 00 00	 push	 OFFSET ?m_szMacro@ChatMacro@@1PAY0BAE@DA+3380
  00183	e8 00 00 00 00	 call	 ?StringCbCopyA@@YGJPADIPBD@Z ; StringCbCopyA

; 79   : 	StringCbCopy( m_szMacro[MACRO_USER_INFO]					,sizeof( m_szMacro[MACRO_USER_INFO] )					, STR(14) );

  00188	6a 00		 push	 0
  0018a	6a 0e		 push	 14			; 0000000eH
  0018c	68 00 00 00 00	 push	 OFFSET ??_C@_00CNPNBAHC@?$AA@
  00191	68 00 00 00 00	 push	 OFFSET ??_C@_0BI@MLLKIMKO@ChatMacro?3?3SetMacroText?$AA@
  00196	ff d7		 call	 edi
  00198	8b c8		 mov	 ecx, eax
  0019a	ff d3		 call	 ebx
  0019c	50		 push	 eax
  0019d	56		 push	 esi
  0019e	68 38 0e 00 00	 push	 OFFSET ?m_szMacro@ChatMacro@@1PAY0BAE@DA+3640
  001a3	e8 00 00 00 00	 call	 ?StringCbCopyA@@YGJPADIPBD@Z ; StringCbCopyA

; 80   : 	StringCbCopy( m_szMacro[MACRO_CHAT_MODE]					,sizeof( m_szMacro[MACRO_CHAT_MODE] )					, STR(15) );

  001a8	6a 00		 push	 0
  001aa	6a 0f		 push	 15			; 0000000fH
  001ac	68 00 00 00 00	 push	 OFFSET ??_C@_00CNPNBAHC@?$AA@
  001b1	68 00 00 00 00	 push	 OFFSET ??_C@_0BI@MLLKIMKO@ChatMacro?3?3SetMacroText?$AA@
  001b6	ff d7		 call	 edi
  001b8	8b c8		 mov	 ecx, eax
  001ba	ff d3		 call	 ebx
  001bc	50		 push	 eax
  001bd	56		 push	 esi
  001be	68 3c 0f 00 00	 push	 OFFSET ?m_szMacro@ChatMacro@@1PAY0BAE@DA+3900
  001c3	e8 00 00 00 00	 call	 ?StringCbCopyA@@YGJPADIPBD@Z ; StringCbCopyA

; 81   : 	StringCbCopy( m_szMacro[MACRO_INIT_UI_POS]					,sizeof( m_szMacro[MACRO_INIT_UI_POS] )					, STR(16) );

  001c8	6a 00		 push	 0
  001ca	6a 10		 push	 16			; 00000010H
  001cc	68 00 00 00 00	 push	 OFFSET ??_C@_00CNPNBAHC@?$AA@
  001d1	68 00 00 00 00	 push	 OFFSET ??_C@_0BI@MLLKIMKO@ChatMacro?3?3SetMacroText?$AA@
  001d6	ff d7		 call	 edi
  001d8	8b c8		 mov	 ecx, eax
  001da	ff d3		 call	 ebx
  001dc	50		 push	 eax
  001dd	56		 push	 esi
  001de	68 40 10 00 00	 push	 OFFSET ?m_szMacro@ChatMacro@@1PAY0BAE@DA+4160
  001e3	e8 00 00 00 00	 call	 ?StringCbCopyA@@YGJPADIPBD@Z ; StringCbCopyA

; 82   : 	StringCbCopy( m_szMacro[MACRO_AWARD]						,sizeof( m_szMacro[MACRO_AWARD] )						, STR(17) );

  001e8	6a 00		 push	 0
  001ea	6a 11		 push	 17			; 00000011H
  001ec	68 00 00 00 00	 push	 OFFSET ??_C@_00CNPNBAHC@?$AA@
  001f1	68 00 00 00 00	 push	 OFFSET ??_C@_0BI@MLLKIMKO@ChatMacro?3?3SetMacroText?$AA@
  001f6	ff d7		 call	 edi
  001f8	8b c8		 mov	 ecx, eax
  001fa	ff d3		 call	 ebx
  001fc	50		 push	 eax
  001fd	56		 push	 esi
  001fe	68 44 11 00 00	 push	 OFFSET ?m_szMacro@ChatMacro@@1PAY0BAE@DA+4420
  00203	e8 00 00 00 00	 call	 ?StringCbCopyA@@YGJPADIPBD@Z ; StringCbCopyA

; 83   : 	StringCbCopy( m_szMacro[MACRO_INFO]							,sizeof( m_szMacro[MACRO_INFO] )						, STR(18) );

  00208	6a 00		 push	 0
  0020a	6a 12		 push	 18			; 00000012H
  0020c	68 00 00 00 00	 push	 OFFSET ??_C@_00CNPNBAHC@?$AA@
  00211	68 00 00 00 00	 push	 OFFSET ??_C@_0BI@MLLKIMKO@ChatMacro?3?3SetMacroText?$AA@
  00216	ff d7		 call	 edi
  00218	8b c8		 mov	 ecx, eax
  0021a	ff d3		 call	 ebx
  0021c	50		 push	 eax
  0021d	56		 push	 esi
  0021e	68 48 12 00 00	 push	 OFFSET ?m_szMacro@ChatMacro@@1PAY0BAE@DA+4680
  00223	e8 00 00 00 00	 call	 ?StringCbCopyA@@YGJPADIPBD@Z ; StringCbCopyA

; 84   : 	StringCbCopy( m_szMacro[MACRO_ROOM_ENTER]					,sizeof( m_szMacro[MACRO_ROOM_ENTER] )					, STR(19) );

  00228	6a 00		 push	 0
  0022a	6a 13		 push	 19			; 00000013H
  0022c	68 00 00 00 00	 push	 OFFSET ??_C@_00CNPNBAHC@?$AA@
  00231	68 00 00 00 00	 push	 OFFSET ??_C@_0BI@MLLKIMKO@ChatMacro?3?3SetMacroText?$AA@
  00236	ff d7		 call	 edi
  00238	8b c8		 mov	 ecx, eax
  0023a	ff d3		 call	 ebx
  0023c	50		 push	 eax
  0023d	56		 push	 esi
  0023e	68 4c 13 00 00	 push	 OFFSET ?m_szMacro@ChatMacro@@1PAY0BAE@DA+4940
  00243	e8 00 00 00 00	 call	 ?StringCbCopyA@@YGJPADIPBD@Z ; StringCbCopyA

; 85   : 	StringCbCopy( m_szMacro[MACRO_UDP]							,sizeof( m_szMacro[MACRO_UDP] )							, STR(20) );

  00248	6a 00		 push	 0
  0024a	6a 14		 push	 20			; 00000014H
  0024c	68 00 00 00 00	 push	 OFFSET ??_C@_00CNPNBAHC@?$AA@
  00251	68 00 00 00 00	 push	 OFFSET ??_C@_0BI@MLLKIMKO@ChatMacro?3?3SetMacroText?$AA@
  00256	ff d7		 call	 edi
  00258	8b c8		 mov	 ecx, eax
  0025a	ff d3		 call	 ebx
  0025c	50		 push	 eax
  0025d	56		 push	 esi
  0025e	68 50 14 00 00	 push	 OFFSET ?m_szMacro@ChatMacro@@1PAY0BAE@DA+5200
  00263	e8 00 00 00 00	 call	 ?StringCbCopyA@@YGJPADIPBD@Z ; StringCbCopyA

; 86   : 	StringCbCopy( m_szMacro[MACRO_MOVE_PACKET]					,sizeof( m_szMacro[MACRO_MOVE_PACKET] )					, STR(21) );

  00268	6a 00		 push	 0
  0026a	6a 15		 push	 21			; 00000015H
  0026c	68 00 00 00 00	 push	 OFFSET ??_C@_00CNPNBAHC@?$AA@
  00271	68 00 00 00 00	 push	 OFFSET ??_C@_0BI@MLLKIMKO@ChatMacro?3?3SetMacroText?$AA@
  00276	ff d7		 call	 edi
  00278	8b c8		 mov	 ecx, eax
  0027a	ff d3		 call	 ebx
  0027c	50		 push	 eax
  0027d	56		 push	 esi
  0027e	68 54 15 00 00	 push	 OFFSET ?m_szMacro@ChatMacro@@1PAY0BAE@DA+5460
  00283	e8 00 00 00 00	 call	 ?StringCbCopyA@@YGJPADIPBD@Z ; StringCbCopyA

; 87   : 	StringCbCopy( m_szMacro[MACRO_GUILD_INFO]					,sizeof( m_szMacro[MACRO_GUILD_INFO] )					, STR(22) );

  00288	6a 00		 push	 0
  0028a	6a 16		 push	 22			; 00000016H
  0028c	68 00 00 00 00	 push	 OFFSET ??_C@_00CNPNBAHC@?$AA@
  00291	68 00 00 00 00	 push	 OFFSET ??_C@_0BI@MLLKIMKO@ChatMacro?3?3SetMacroText?$AA@
  00296	ff d7		 call	 edi
  00298	8b c8		 mov	 ecx, eax
  0029a	ff d3		 call	 ebx
  0029c	50		 push	 eax
  0029d	56		 push	 esi
  0029e	68 58 16 00 00	 push	 OFFSET ?m_szMacro@ChatMacro@@1PAY0BAE@DA+5720
  002a3	e8 00 00 00 00	 call	 ?StringCbCopyA@@YGJPADIPBD@Z ; StringCbCopyA

; 88   : 	StringCbCopy( m_szMacro[MACRO_TIME]							,sizeof( m_szMacro[MACRO_TIME] )						, STR(23) );

  002a8	6a 00		 push	 0
  002aa	6a 17		 push	 23			; 00000017H
  002ac	68 00 00 00 00	 push	 OFFSET ??_C@_00CNPNBAHC@?$AA@
  002b1	68 00 00 00 00	 push	 OFFSET ??_C@_0BI@MLLKIMKO@ChatMacro?3?3SetMacroText?$AA@
  002b6	ff d7		 call	 edi
  002b8	8b c8		 mov	 ecx, eax
  002ba	ff d3		 call	 ebx
  002bc	50		 push	 eax
  002bd	56		 push	 esi
  002be	68 5c 17 00 00	 push	 OFFSET ?m_szMacro@ChatMacro@@1PAY0BAE@DA+5980
  002c3	e8 00 00 00 00	 call	 ?StringCbCopyA@@YGJPADIPBD@Z ; StringCbCopyA

; 89   : 	StringCbCopy( m_szMacro[MACRO_SHOW_ANNOUNCEMENT]			,sizeof( m_szMacro[MACRO_SHOW_ANNOUNCEMENT] )			, STR(24) );

  002c8	6a 00		 push	 0
  002ca	6a 18		 push	 24			; 00000018H
  002cc	68 00 00 00 00	 push	 OFFSET ??_C@_00CNPNBAHC@?$AA@
  002d1	68 00 00 00 00	 push	 OFFSET ??_C@_0BI@MLLKIMKO@ChatMacro?3?3SetMacroText?$AA@
  002d6	ff d7		 call	 edi
  002d8	8b c8		 mov	 ecx, eax
  002da	ff d3		 call	 ebx
  002dc	50		 push	 eax
  002dd	56		 push	 esi
  002de	68 60 18 00 00	 push	 OFFSET ?m_szMacro@ChatMacro@@1PAY0BAE@DA+6240
  002e3	e8 00 00 00 00	 call	 ?StringCbCopyA@@YGJPADIPBD@Z ; StringCbCopyA

; 90   : 	StringCbCopy( m_szMacro[MACRO_BLOCK_GULID_MARK]				,sizeof( m_szMacro[MACRO_BLOCK_GULID_MARK] )			, STR(25) );

  002e8	6a 00		 push	 0
  002ea	6a 19		 push	 25			; 00000019H
  002ec	68 00 00 00 00	 push	 OFFSET ??_C@_00CNPNBAHC@?$AA@
  002f1	68 00 00 00 00	 push	 OFFSET ??_C@_0BI@MLLKIMKO@ChatMacro?3?3SetMacroText?$AA@
  002f6	ff d7		 call	 edi
  002f8	8b c8		 mov	 ecx, eax
  002fa	ff d3		 call	 ebx
  002fc	50		 push	 eax
  002fd	56		 push	 esi
  002fe	68 64 19 00 00	 push	 OFFSET ?m_szMacro@ChatMacro@@1PAY0BAE@DA+6500
  00303	e8 00 00 00 00	 call	 ?StringCbCopyA@@YGJPADIPBD@Z ; StringCbCopyA

; 91   : 	StringCbCopy( m_szMacro[MACRO_MOVIE_MODE]					,sizeof( m_szMacro[MACRO_MOVIE_MODE] )					, STR(26) );

  00308	6a 00		 push	 0
  0030a	6a 1a		 push	 26			; 0000001aH
  0030c	68 00 00 00 00	 push	 OFFSET ??_C@_00CNPNBAHC@?$AA@
  00311	68 00 00 00 00	 push	 OFFSET ??_C@_0BI@MLLKIMKO@ChatMacro?3?3SetMacroText?$AA@
  00316	ff d7		 call	 edi
  00318	8b c8		 mov	 ecx, eax
  0031a	ff d3		 call	 ebx
  0031c	50		 push	 eax
  0031d	56		 push	 esi
  0031e	68 68 1a 00 00	 push	 OFFSET ?m_szMacro@ChatMacro@@1PAY0BAE@DA+6760
  00323	e8 00 00 00 00	 call	 ?StringCbCopyA@@YGJPADIPBD@Z ; StringCbCopyA

; 92   : 	StringCbCopy( m_szMacro[MACRO_USER_RECORD]					,sizeof( m_szMacro[MACRO_USER_RECORD] )					, STR(27) );

  00328	6a 00		 push	 0
  0032a	6a 1b		 push	 27			; 0000001bH
  0032c	68 00 00 00 00	 push	 OFFSET ??_C@_00CNPNBAHC@?$AA@
  00331	68 00 00 00 00	 push	 OFFSET ??_C@_0BI@MLLKIMKO@ChatMacro?3?3SetMacroText?$AA@
  00336	ff d7		 call	 edi
  00338	8b c8		 mov	 ecx, eax
  0033a	ff d3		 call	 ebx
  0033c	50		 push	 eax
  0033d	56		 push	 esi
  0033e	68 6c 1b 00 00	 push	 OFFSET ?m_szMacro@ChatMacro@@1PAY0BAE@DA+7020
  00343	e8 00 00 00 00	 call	 ?StringCbCopyA@@YGJPADIPBD@Z ; StringCbCopyA

; 93   : 	StringCbCopy( m_szMacro[MACRO_TEAM_INFO]					,sizeof( m_szMacro[MACRO_TEAM_INFO] )					, STR(28) );

  00348	6a 00		 push	 0
  0034a	6a 1c		 push	 28			; 0000001cH
  0034c	68 00 00 00 00	 push	 OFFSET ??_C@_00CNPNBAHC@?$AA@
  00351	68 00 00 00 00	 push	 OFFSET ??_C@_0BI@MLLKIMKO@ChatMacro?3?3SetMacroText?$AA@
  00356	ff d7		 call	 edi
  00358	8b c8		 mov	 ecx, eax
  0035a	ff d3		 call	 ebx
  0035c	50		 push	 eax
  0035d	56		 push	 esi
  0035e	68 70 1c 00 00	 push	 OFFSET ?m_szMacro@ChatMacro@@1PAY0BAE@DA+7280
  00363	e8 00 00 00 00	 call	 ?StringCbCopyA@@YGJPADIPBD@Z ; StringCbCopyA

; 94   : 	StringCbCopy( m_szMacro[MACRO_CHANNEL_MOVE]					,sizeof( m_szMacro[MACRO_CHANNEL_MOVE] )				, STR(29) );

  00368	6a 00		 push	 0
  0036a	6a 1d		 push	 29			; 0000001dH
  0036c	68 00 00 00 00	 push	 OFFSET ??_C@_00CNPNBAHC@?$AA@
  00371	68 00 00 00 00	 push	 OFFSET ??_C@_0BI@MLLKIMKO@ChatMacro?3?3SetMacroText?$AA@
  00376	ff d7		 call	 edi
  00378	8b c8		 mov	 ecx, eax
  0037a	ff d3		 call	 ebx
  0037c	50		 push	 eax
  0037d	56		 push	 esi
  0037e	68 74 1d 00 00	 push	 OFFSET ?m_szMacro@ChatMacro@@1PAY0BAE@DA+7540
  00383	e8 00 00 00 00	 call	 ?StringCbCopyA@@YGJPADIPBD@Z ; StringCbCopyA

; 95   : 	StringCbCopy( m_szMacro[MACRO_CAMP_INFO]					,sizeof( m_szMacro[MACRO_CAMP_INFO] )					, STR(30) );

  00388	6a 00		 push	 0
  0038a	6a 1e		 push	 30			; 0000001eH
  0038c	68 00 00 00 00	 push	 OFFSET ??_C@_00CNPNBAHC@?$AA@
  00391	68 00 00 00 00	 push	 OFFSET ??_C@_0BI@MLLKIMKO@ChatMacro?3?3SetMacroText?$AA@
  00396	ff d7		 call	 edi
  00398	8b c8		 mov	 ecx, eax
  0039a	ff d3		 call	 ebx
  0039c	50		 push	 eax
  0039d	56		 push	 esi
  0039e	68 78 1e 00 00	 push	 OFFSET ?m_szMacro@ChatMacro@@1PAY0BAE@DA+7800
  003a3	e8 00 00 00 00	 call	 ?StringCbCopyA@@YGJPADIPBD@Z ; StringCbCopyA

; 96   : 	StringCbCopy( m_szMacro[MACRO_CAMP_USER]					,sizeof( m_szMacro[MACRO_CAMP_USER] )					, STR(31) );

  003a8	6a 00		 push	 0
  003aa	6a 1f		 push	 31			; 0000001fH
  003ac	68 00 00 00 00	 push	 OFFSET ??_C@_00CNPNBAHC@?$AA@
  003b1	68 00 00 00 00	 push	 OFFSET ??_C@_0BI@MLLKIMKO@ChatMacro?3?3SetMacroText?$AA@
  003b6	ff d7		 call	 edi
  003b8	8b c8		 mov	 ecx, eax
  003ba	ff d3		 call	 ebx
  003bc	50		 push	 eax
  003bd	56		 push	 esi
  003be	68 7c 1f 00 00	 push	 OFFSET ?m_szMacro@ChatMacro@@1PAY0BAE@DA+8060
  003c3	e8 00 00 00 00	 call	 ?StringCbCopyA@@YGJPADIPBD@Z ; StringCbCopyA

; 97   : 	StringCbCopy( m_szMacro[MACRO_GUILDNAME_CHANGE]				,sizeof( m_szMacro[MACRO_GUILDNAME_CHANGE] )			, STR(32) );

  003c8	6a 00		 push	 0
  003ca	6a 20		 push	 32			; 00000020H
  003cc	68 00 00 00 00	 push	 OFFSET ??_C@_00CNPNBAHC@?$AA@
  003d1	68 00 00 00 00	 push	 OFFSET ??_C@_0BI@MLLKIMKO@ChatMacro?3?3SetMacroText?$AA@
  003d6	ff d7		 call	 edi
  003d8	8b c8		 mov	 ecx, eax
  003da	ff d3		 call	 ebx
  003dc	50		 push	 eax
  003dd	56		 push	 esi
  003de	68 80 20 00 00	 push	 OFFSET ?m_szMacro@ChatMacro@@1PAY0BAE@DA+8320
  003e3	e8 00 00 00 00	 call	 ?StringCbCopyA@@YGJPADIPBD@Z ; StringCbCopyA

; 98   : 	StringCbCopy( m_szMacro[MACRO_EVENT_TEST]					,sizeof( m_szMacro[MACRO_EVENT_TEST] )					, STR(33) );

  003e8	6a 00		 push	 0
  003ea	6a 21		 push	 33			; 00000021H
  003ec	68 00 00 00 00	 push	 OFFSET ??_C@_00CNPNBAHC@?$AA@
  003f1	68 00 00 00 00	 push	 OFFSET ??_C@_0BI@MLLKIMKO@ChatMacro?3?3SetMacroText?$AA@
  003f6	ff d7		 call	 edi
  003f8	8b c8		 mov	 ecx, eax
  003fa	ff d3		 call	 ebx
  003fc	50		 push	 eax
  003fd	56		 push	 esi
  003fe	68 84 21 00 00	 push	 OFFSET ?m_szMacro@ChatMacro@@1PAY0BAE@DA+8580
  00403	e8 00 00 00 00	 call	 ?StringCbCopyA@@YGJPADIPBD@Z ; StringCbCopyA

; 99   : 	StringCbCopy( m_szMacro[MACRO_WHOLE_CHAT_OFF]				,sizeof( m_szMacro[MACRO_WHOLE_CHAT_OFF] )				, STR(34) );

  00408	6a 00		 push	 0
  0040a	6a 22		 push	 34			; 00000022H
  0040c	68 00 00 00 00	 push	 OFFSET ??_C@_00CNPNBAHC@?$AA@
  00411	68 00 00 00 00	 push	 OFFSET ??_C@_0BI@MLLKIMKO@ChatMacro?3?3SetMacroText?$AA@
  00416	ff d7		 call	 edi
  00418	8b c8		 mov	 ecx, eax
  0041a	ff d3		 call	 ebx
  0041c	50		 push	 eax
  0041d	56		 push	 esi
  0041e	68 88 22 00 00	 push	 OFFSET ?m_szMacro@ChatMacro@@1PAY0BAE@DA+8840
  00423	e8 00 00 00 00	 call	 ?StringCbCopyA@@YGJPADIPBD@Z ; StringCbCopyA

; 100  : 	StringCbCopy( m_szMacro[MACRO_WHOLE_CHAT_ON]				,sizeof( m_szMacro[MACRO_WHOLE_CHAT_ON] )				, STR(35) );  

  00428	6a 00		 push	 0
  0042a	6a 23		 push	 35			; 00000023H
  0042c	68 00 00 00 00	 push	 OFFSET ??_C@_00CNPNBAHC@?$AA@
  00431	68 00 00 00 00	 push	 OFFSET ??_C@_0BI@MLLKIMKO@ChatMacro?3?3SetMacroText?$AA@
  00436	ff d7		 call	 edi
  00438	8b c8		 mov	 ecx, eax
  0043a	ff d3		 call	 ebx
  0043c	50		 push	 eax
  0043d	56		 push	 esi
  0043e	68 8c 23 00 00	 push	 OFFSET ?m_szMacro@ChatMacro@@1PAY0BAE@DA+9100
  00443	e8 00 00 00 00	 call	 ?StringCbCopyA@@YGJPADIPBD@Z ; StringCbCopyA

; 101  : 	StringCbCopy( m_szMacro[MACRO_CAMERA_TEST]					,sizeof( m_szMacro[MACRO_CAMERA_TEST] )					, STR(36) );  

  00448	6a 00		 push	 0
  0044a	6a 24		 push	 36			; 00000024H
  0044c	68 00 00 00 00	 push	 OFFSET ??_C@_00CNPNBAHC@?$AA@
  00451	68 00 00 00 00	 push	 OFFSET ??_C@_0BI@MLLKIMKO@ChatMacro?3?3SetMacroText?$AA@
  00456	ff d7		 call	 edi
  00458	8b c8		 mov	 ecx, eax
  0045a	ff d3		 call	 ebx
  0045c	50		 push	 eax
  0045d	56		 push	 esi
  0045e	68 90 24 00 00	 push	 OFFSET ?m_szMacro@ChatMacro@@1PAY0BAE@DA+9360
  00463	e8 00 00 00 00	 call	 ?StringCbCopyA@@YGJPADIPBD@Z ; StringCbCopyA

; 102  : 	StringCbCopy( m_szMacro[MACRO_FONT_TEXTURE]					,sizeof( m_szMacro[MACRO_FONT_TEXTURE] )				, STR(2) );  

  00468	6a 00		 push	 0
  0046a	6a 02		 push	 2
  0046c	68 00 00 00 00	 push	 OFFSET ??_C@_00CNPNBAHC@?$AA@
  00471	68 00 00 00 00	 push	 OFFSET ??_C@_0BI@MLLKIMKO@ChatMacro?3?3SetMacroText?$AA@
  00476	ff d7		 call	 edi
  00478	8b c8		 mov	 ecx, eax
  0047a	ff d3		 call	 ebx
  0047c	50		 push	 eax
  0047d	56		 push	 esi
  0047e	68 94 25 00 00	 push	 OFFSET ?m_szMacro@ChatMacro@@1PAY0BAE@DA+9620
  00483	e8 00 00 00 00	 call	 ?StringCbCopyA@@YGJPADIPBD@Z ; StringCbCopyA

; 103  : 	StringCbCopy( m_szMacro[MACRO_SHOW_WND_ID]					,sizeof( m_szMacro[MACRO_SHOW_WND_ID] )					, STR(3) );

  00488	6a 00		 push	 0
  0048a	6a 03		 push	 3
  0048c	68 00 00 00 00	 push	 OFFSET ??_C@_00CNPNBAHC@?$AA@
  00491	68 00 00 00 00	 push	 OFFSET ??_C@_0BI@MLLKIMKO@ChatMacro?3?3SetMacroText?$AA@
  00496	ff d7		 call	 edi
  00498	8b c8		 mov	 ecx, eax
  0049a	ff d3		 call	 ebx
  0049c	50		 push	 eax
  0049d	56		 push	 esi
  0049e	68 98 26 00 00	 push	 OFFSET ?m_szMacro@ChatMacro@@1PAY0BAE@DA+9880
  004a3	e8 00 00 00 00	 call	 ?StringCbCopyA@@YGJPADIPBD@Z ; StringCbCopyA

; 104  : 	StringCbCopy( m_szMacro[MACRO_CHAT_INFO_OFF]				,sizeof( m_szMacro[MACRO_CHAT_INFO_OFF] )				, STR(4) );

  004a8	6a 00		 push	 0
  004aa	6a 04		 push	 4
  004ac	68 00 00 00 00	 push	 OFFSET ??_C@_00CNPNBAHC@?$AA@
  004b1	68 00 00 00 00	 push	 OFFSET ??_C@_0BI@MLLKIMKO@ChatMacro?3?3SetMacroText?$AA@
  004b6	ff d7		 call	 edi
  004b8	8b c8		 mov	 ecx, eax
  004ba	ff d3		 call	 ebx
  004bc	50		 push	 eax
  004bd	56		 push	 esi
  004be	68 9c 27 00 00	 push	 OFFSET ?m_szMacro@ChatMacro@@1PAY0BAE@DA+10140
  004c3	e8 00 00 00 00	 call	 ?StringCbCopyA@@YGJPADIPBD@Z ; StringCbCopyA

; 105  : 	StringCbCopy( m_szMacro[MACRO_CHAT_INFO_ON]					,sizeof( m_szMacro[MACRO_CHAT_INFO_ON] )				, STR(5) );

  004c8	6a 00		 push	 0
  004ca	6a 05		 push	 5
  004cc	68 00 00 00 00	 push	 OFFSET ??_C@_00CNPNBAHC@?$AA@
  004d1	68 00 00 00 00	 push	 OFFSET ??_C@_0BI@MLLKIMKO@ChatMacro?3?3SetMacroText?$AA@
  004d6	ff d7		 call	 edi
  004d8	8b c8		 mov	 ecx, eax
  004da	ff d3		 call	 ebx
  004dc	50		 push	 eax
  004dd	56		 push	 esi
  004de	68 a0 28 00 00	 push	 OFFSET ?m_szMacro@ChatMacro@@1PAY0BAE@DA+10400
  004e3	e8 00 00 00 00	 call	 ?StringCbCopyA@@YGJPADIPBD@Z ; StringCbCopyA

; 106  : 	StringCbCopy( m_szMacro[MACRO_CONTROL_SYNC_EX_ON]			,sizeof( m_szMacro[MACRO_CONTROL_SYNC_EX_ON] )			, STR(70) );

  004e8	6a 00		 push	 0
  004ea	6a 46		 push	 70			; 00000046H
  004ec	68 00 00 00 00	 push	 OFFSET ??_C@_00CNPNBAHC@?$AA@
  004f1	68 00 00 00 00	 push	 OFFSET ??_C@_0BI@MLLKIMKO@ChatMacro?3?3SetMacroText?$AA@
  004f6	ff d7		 call	 edi
  004f8	8b c8		 mov	 ecx, eax
  004fa	ff d3		 call	 ebx
  004fc	50		 push	 eax
  004fd	56		 push	 esi
  004fe	68 a4 29 00 00	 push	 OFFSET ?m_szMacro@ChatMacro@@1PAY0BAE@DA+10660
  00503	e8 00 00 00 00	 call	 ?StringCbCopyA@@YGJPADIPBD@Z ; StringCbCopyA

; 107  : 	StringCbCopy( m_szMacro[MACRO_CONTROL_SYNC_EX_OFF]			,sizeof( m_szMacro[MACRO_CONTROL_SYNC_EX_OFF] )			, STR(71) );

  00508	6a 00		 push	 0
  0050a	6a 47		 push	 71			; 00000047H
  0050c	68 00 00 00 00	 push	 OFFSET ??_C@_00CNPNBAHC@?$AA@
  00511	68 00 00 00 00	 push	 OFFSET ??_C@_0BI@MLLKIMKO@ChatMacro?3?3SetMacroText?$AA@
  00516	ff d7		 call	 edi
  00518	8b c8		 mov	 ecx, eax
  0051a	ff d3		 call	 ebx
  0051c	50		 push	 eax
  0051d	56		 push	 esi
  0051e	68 a8 2a 00 00	 push	 OFFSET ?m_szMacro@ChatMacro@@1PAY0BAE@DA+10920
  00523	e8 00 00 00 00	 call	 ?StringCbCopyA@@YGJPADIPBD@Z ; StringCbCopyA

; 108  : 	StringCbCopy( m_szMacro[MACRO_EVENT_SHOP_GOODS_LIST]		,sizeof( m_szMacro[MACRO_EVENT_SHOP_GOODS_LIST] )		, "/10" );

  00528	68 00 00 00 00	 push	 OFFSET ??_C@_03NMAFCGNP@?110?$AA@
  0052d	56		 push	 esi
  0052e	68 ac 2b 00 00	 push	 OFFSET ?m_szMacro@ChatMacro@@1PAY0BAE@DA+11180
  00533	e8 00 00 00 00	 call	 ?StringCbCopyA@@YGJPADIPBD@Z ; StringCbCopyA

; 109  : 	StringCbCopy( m_szMacro[MACRO_EVENT_SHOP_GOODS_BUY]			,sizeof( m_szMacro[MACRO_EVENT_SHOP_GOODS_BUY] )		, "/11" );

  00538	68 00 00 00 00	 push	 OFFSET ??_C@_03MFBOBHJO@?111?$AA@
  0053d	56		 push	 esi
  0053e	68 b0 2c 00 00	 push	 OFFSET ?m_szMacro@ChatMacro@@1PAY0BAE@DA+11440
  00543	e8 00 00 00 00	 call	 ?StringCbCopyA@@YGJPADIPBD@Z ; StringCbCopyA

; 110  : 	StringCbCopy( m_szMacro[MACRO_EVENT_SHOP_STATE]				,sizeof( m_szMacro[MACRO_EVENT_SHOP_STATE] )			, STR(72) );

  00548	6a 00		 push	 0
  0054a	6a 48		 push	 72			; 00000048H
  0054c	68 00 00 00 00	 push	 OFFSET ??_C@_00CNPNBAHC@?$AA@
  00551	68 00 00 00 00	 push	 OFFSET ??_C@_0BI@MLLKIMKO@ChatMacro?3?3SetMacroText?$AA@
  00556	ff d7		 call	 edi
  00558	8b c8		 mov	 ecx, eax
  0055a	ff d3		 call	 ebx
  0055c	50		 push	 eax
  0055d	56		 push	 esi
  0055e	68 b4 2d 00 00	 push	 OFFSET ?m_szMacro@ChatMacro@@1PAY0BAE@DA+11700
  00563	e8 00 00 00 00	 call	 ?StringCbCopyA@@YGJPADIPBD@Z ; StringCbCopyA

; 111  : 	StringCbCopy( m_szMacro[MACRO_EVENT_SHOP_BUY_USER_CLEAR]	,sizeof( m_szMacro[MACRO_EVENT_SHOP_BUY_USER_CLEAR] )	, STR(73) );

  00568	6a 00		 push	 0
  0056a	6a 49		 push	 73			; 00000049H
  0056c	68 00 00 00 00	 push	 OFFSET ??_C@_00CNPNBAHC@?$AA@
  00571	68 00 00 00 00	 push	 OFFSET ??_C@_0BI@MLLKIMKO@ChatMacro?3?3SetMacroText?$AA@
  00576	ff d7		 call	 edi
  00578	8b c8		 mov	 ecx, eax
  0057a	ff d3		 call	 ebx
  0057c	50		 push	 eax
  0057d	56		 push	 esi
  0057e	68 b8 2e 00 00	 push	 OFFSET ?m_szMacro@ChatMacro@@1PAY0BAE@DA+11960
  00583	e8 00 00 00 00	 call	 ?StringCbCopyA@@YGJPADIPBD@Z ; StringCbCopyA

; 112  : 	StringCbCopy( m_szMacro[MACRO_CUSTOM_DDS_FROM_JPG]			,sizeof( m_szMacro[MACRO_CUSTOM_DDS_FROM_JPG] )			, "/20" );

  00588	68 00 00 00 00	 push	 OFFSET ??_C@_03NOEDJIIG@?120?$AA@
  0058d	56		 push	 esi
  0058e	68 bc 2f 00 00	 push	 OFFSET ?m_szMacro@ChatMacro@@1PAY0BAE@DA+12220
  00593	e8 00 00 00 00	 call	 ?StringCbCopyA@@YGJPADIPBD@Z ; StringCbCopyA

; 113  : 	StringCbCopy( m_szMacro[MACRO_CUSTOM_JPG_MIX_DDS_FROM_DDS]	,sizeof( m_szMacro[MACRO_CUSTOM_JPG_MIX_DDS_FROM_DDS] )	, "/21" );

  00598	68 00 00 00 00	 push	 OFFSET ??_C@_03MHFIKJMH@?121?$AA@
  0059d	56		 push	 esi
  0059e	68 c0 30 00 00	 push	 OFFSET ?m_szMacro@ChatMacro@@1PAY0BAE@DA+12480
  005a3	e8 00 00 00 00	 call	 ?StringCbCopyA@@YGJPADIPBD@Z ; StringCbCopyA

; 114  : 	StringCbCopy( m_szMacro[MACRO_CUSTOM_DDS_FROM_LSC]			,sizeof( m_szMacro[MACRO_CUSTOM_DDS_FROM_LSC] )			, "/22" );

  005a8	68 00 00 00 00	 push	 OFFSET ??_C@_03OMHFPKAE@?122?$AA@
  005ad	56		 push	 esi
  005ae	68 c4 31 00 00	 push	 OFFSET ?m_szMacro@ChatMacro@@1PAY0BAE@DA+12740
  005b3	e8 00 00 00 00	 call	 ?StringCbCopyA@@YGJPADIPBD@Z ; StringCbCopyA

; 115  : 	StringCbCopy( m_szMacro[MACRO_CUSTOM_LSC_FROM_DDS]			,sizeof( m_szMacro[MACRO_CUSTOM_LSC_FROM_DDS] )			, "/23" );

  005b8	68 00 00 00 00	 push	 OFFSET ??_C@_03PFGOMLEF@?123?$AA@
  005bd	56		 push	 esi
  005be	68 c8 32 00 00	 push	 OFFSET ?m_szMacro@ChatMacro@@1PAY0BAE@DA+13000
  005c3	e8 00 00 00 00	 call	 ?StringCbCopyA@@YGJPADIPBD@Z ; StringCbCopyA

; 116  : 	StringCbCopy( m_szMacro[MACRO_CUSTOM_ENTITY_TEXTURE]		,sizeof( m_szMacro[MACRO_CUSTOM_ENTITY_TEXTURE] )		, "/24" );

  005c8	68 00 00 00 00	 push	 OFFSET ??_C@_03LKCPFNIC@?124?$AA@
  005cd	56		 push	 esi
  005ce	68 cc 33 00 00	 push	 OFFSET ?m_szMacro@ChatMacro@@1PAY0BAE@DA+13260
  005d3	e8 00 00 00 00	 call	 ?StringCbCopyA@@YGJPADIPBD@Z ; StringCbCopyA

; 117  : 	StringCbCopy( m_szMacro[MACRO_SHOW_WND]						,sizeof( m_szMacro[MACRO_SHOW_WND] )					, "/25" );

  005d8	68 00 00 00 00	 push	 OFFSET ??_C@_03KDDEGMMD@?125?$AA@
  005dd	56		 push	 esi
  005de	68 d0 34 00 00	 push	 OFFSET ?m_szMacro@ChatMacro@@1PAY0BAE@DA+13520
  005e3	e8 00 00 00 00	 call	 ?StringCbCopyA@@YGJPADIPBD@Z ; StringCbCopyA

; 118  : 	StringCbCopy( m_szMacro[MACRO_PRESENT]						,sizeof( m_szMacro[MACRO_PRESENT] )						, STR(7) );

  005e8	6a 00		 push	 0
  005ea	6a 07		 push	 7
  005ec	68 00 00 00 00	 push	 OFFSET ??_C@_00CNPNBAHC@?$AA@
  005f1	68 00 00 00 00	 push	 OFFSET ??_C@_0BI@MLLKIMKO@ChatMacro?3?3SetMacroText?$AA@
  005f6	ff d7		 call	 edi
  005f8	8b c8		 mov	 ecx, eax
  005fa	ff d3		 call	 ebx
  005fc	50		 push	 eax
  005fd	56		 push	 esi
  005fe	68 d4 35 00 00	 push	 OFFSET ?m_szMacro@ChatMacro@@1PAY0BAE@DA+13780
  00603	e8 00 00 00 00	 call	 ?StringCbCopyA@@YGJPADIPBD@Z ; StringCbCopyA

; 119  : 	StringCbCopy( m_szMacro[MACRO_BEST_FRIEND_APPLICATION]		,sizeof( m_szMacro[MACRO_BEST_FRIEND_APPLICATION] )		, STR(37) );

  00608	6a 00		 push	 0
  0060a	6a 25		 push	 37			; 00000025H
  0060c	68 00 00 00 00	 push	 OFFSET ??_C@_00CNPNBAHC@?$AA@
  00611	68 00 00 00 00	 push	 OFFSET ??_C@_0BI@MLLKIMKO@ChatMacro?3?3SetMacroText?$AA@
  00616	ff d7		 call	 edi
  00618	8b c8		 mov	 ecx, eax
  0061a	ff d3		 call	 ebx
  0061c	50		 push	 eax
  0061d	56		 push	 esi
  0061e	68 d8 36 00 00	 push	 OFFSET ?m_szMacro@ChatMacro@@1PAY0BAE@DA+14040
  00623	e8 00 00 00 00	 call	 ?StringCbCopyA@@YGJPADIPBD@Z ; StringCbCopyA

; 120  : 	StringCbCopy( m_szMacro[MACRO_BEST_FRIEND_AGREE]			,sizeof( m_szMacro[MACRO_BEST_FRIEND_AGREE] )			, STR(38) );

  00628	6a 00		 push	 0
  0062a	6a 26		 push	 38			; 00000026H
  0062c	68 00 00 00 00	 push	 OFFSET ??_C@_00CNPNBAHC@?$AA@
  00631	68 00 00 00 00	 push	 OFFSET ??_C@_0BI@MLLKIMKO@ChatMacro?3?3SetMacroText?$AA@
  00636	ff d7		 call	 edi
  00638	8b c8		 mov	 ecx, eax
  0063a	ff d3		 call	 ebx
  0063c	50		 push	 eax
  0063d	56		 push	 esi
  0063e	68 dc 37 00 00	 push	 OFFSET ?m_szMacro@ChatMacro@@1PAY0BAE@DA+14300
  00643	e8 00 00 00 00	 call	 ?StringCbCopyA@@YGJPADIPBD@Z ; StringCbCopyA

; 121  : 	StringCbCopy( m_szMacro[MACRO_BEST_FRIEND_REFUSE]			,sizeof( m_szMacro[MACRO_BEST_FRIEND_REFUSE] )			, STR(39) );

  00648	6a 00		 push	 0
  0064a	6a 27		 push	 39			; 00000027H
  0064c	68 00 00 00 00	 push	 OFFSET ??_C@_00CNPNBAHC@?$AA@
  00651	68 00 00 00 00	 push	 OFFSET ??_C@_0BI@MLLKIMKO@ChatMacro?3?3SetMacroText?$AA@
  00656	ff d7		 call	 edi
  00658	8b c8		 mov	 ecx, eax
  0065a	ff d3		 call	 ebx
  0065c	50		 push	 eax
  0065d	56		 push	 esi
  0065e	68 e0 38 00 00	 push	 OFFSET ?m_szMacro@ChatMacro@@1PAY0BAE@DA+14560
  00663	e8 00 00 00 00	 call	 ?StringCbCopyA@@YGJPADIPBD@Z ; StringCbCopyA

; 122  : 	StringCbCopy( m_szMacro[MACRO_BEST_FRIEND_CLEAR]			,sizeof( m_szMacro[MACRO_BEST_FRIEND_CLEAR] )			, STR(40) );

  00668	6a 00		 push	 0
  0066a	6a 28		 push	 40			; 00000028H
  0066c	68 00 00 00 00	 push	 OFFSET ??_C@_00CNPNBAHC@?$AA@
  00671	68 00 00 00 00	 push	 OFFSET ??_C@_0BI@MLLKIMKO@ChatMacro?3?3SetMacroText?$AA@
  00676	ff d7		 call	 edi
  00678	8b c8		 mov	 ecx, eax
  0067a	ff d3		 call	 ebx
  0067c	50		 push	 eax
  0067d	56		 push	 esi
  0067e	68 e4 39 00 00	 push	 OFFSET ?m_szMacro@ChatMacro@@1PAY0BAE@DA+14820
  00683	e8 00 00 00 00	 call	 ?StringCbCopyA@@YGJPADIPBD@Z ; StringCbCopyA

; 123  : 	StringCbCopy( m_szMacro[MACRO_EXPERIENCE_STATE]				,sizeof( m_szMacro[MACRO_EXPERIENCE_STATE] )			, STR(41) );

  00688	6a 00		 push	 0
  0068a	6a 29		 push	 41			; 00000029H
  0068c	68 00 00 00 00	 push	 OFFSET ??_C@_00CNPNBAHC@?$AA@
  00691	68 00 00 00 00	 push	 OFFSET ??_C@_0BI@MLLKIMKO@ChatMacro?3?3SetMacroText?$AA@
  00696	ff d7		 call	 edi
  00698	8b c8		 mov	 ecx, eax
  0069a	ff d3		 call	 ebx
  0069c	50		 push	 eax
  0069d	56		 push	 esi
  0069e	68 e8 3a 00 00	 push	 OFFSET ?m_szMacro@ChatMacro@@1PAY0BAE@DA+15080
  006a3	e8 00 00 00 00	 call	 ?StringCbCopyA@@YGJPADIPBD@Z ; StringCbCopyA

; 124  : 	StringCbCopy( m_szMacro[MACRO_MULTI_MAP_CHANGE]				,sizeof( m_szMacro[MACRO_MULTI_MAP_CHANGE] )			, STR(42) );

  006a8	6a 00		 push	 0
  006aa	6a 2a		 push	 42			; 0000002aH
  006ac	68 00 00 00 00	 push	 OFFSET ??_C@_00CNPNBAHC@?$AA@
  006b1	68 00 00 00 00	 push	 OFFSET ??_C@_0BI@MLLKIMKO@ChatMacro?3?3SetMacroText?$AA@
  006b6	ff d7		 call	 edi
  006b8	8b c8		 mov	 ecx, eax
  006ba	ff d3		 call	 ebx
  006bc	50		 push	 eax
  006bd	56		 push	 esi
  006be	68 ec 3b 00 00	 push	 OFFSET ?m_szMacro@ChatMacro@@1PAY0BAE@DA+15340
  006c3	e8 00 00 00 00	 call	 ?StringCbCopyA@@YGJPADIPBD@Z ; StringCbCopyA

; 125  : 	StringCbCopy( m_szMacro[MACRO_MACRO_NOTIFY]					,sizeof( m_szMacro[MACRO_MACRO_NOTIFY] )				, STR(43) );	

  006c8	6a 00		 push	 0
  006ca	6a 2b		 push	 43			; 0000002bH
  006cc	68 00 00 00 00	 push	 OFFSET ??_C@_00CNPNBAHC@?$AA@
  006d1	68 00 00 00 00	 push	 OFFSET ??_C@_0BI@MLLKIMKO@ChatMacro?3?3SetMacroText?$AA@
  006d6	ff d7		 call	 edi
  006d8	8b c8		 mov	 ecx, eax
  006da	ff d3		 call	 ebx
  006dc	50		 push	 eax
  006dd	56		 push	 esi
  006de	68 f0 3c 00 00	 push	 OFFSET ?m_szMacro@ChatMacro@@1PAY0BAE@DA+15600
  006e3	e8 00 00 00 00	 call	 ?StringCbCopyA@@YGJPADIPBD@Z ; StringCbCopyA

; 126  : 	StringCbCopy( m_szMacro[MACRO_EXTRAITEM_GROWTH_CATALYST]    ,sizeof( m_szMacro[MACRO_EXTRAITEM_GROWTH_CATALYST] )   , STR(44) );

  006e8	6a 00		 push	 0
  006ea	6a 2c		 push	 44			; 0000002cH
  006ec	68 00 00 00 00	 push	 OFFSET ??_C@_00CNPNBAHC@?$AA@
  006f1	68 00 00 00 00	 push	 OFFSET ??_C@_0BI@MLLKIMKO@ChatMacro?3?3SetMacroText?$AA@
  006f6	ff d7		 call	 edi
  006f8	8b c8		 mov	 ecx, eax
  006fa	ff d3		 call	 ebx
  006fc	50		 push	 eax
  006fd	56		 push	 esi
  006fe	68 f4 3d 00 00	 push	 OFFSET ?m_szMacro@ChatMacro@@1PAY0BAE@DA+15860
  00703	e8 00 00 00 00	 call	 ?StringCbCopyA@@YGJPADIPBD@Z ; StringCbCopyA

; 127  : 	StringCbCopy( m_szMacro[MACRO_GROWTH_LEVELUP]				,sizeof( m_szMacro[MACRO_GROWTH_LEVELUP] )				, STR(46) );

  00708	6a 00		 push	 0
  0070a	6a 2e		 push	 46			; 0000002eH
  0070c	68 00 00 00 00	 push	 OFFSET ??_C@_00CNPNBAHC@?$AA@
  00711	68 00 00 00 00	 push	 OFFSET ??_C@_0BI@MLLKIMKO@ChatMacro?3?3SetMacroText?$AA@
  00716	ff d7		 call	 edi
  00718	8b c8		 mov	 ecx, eax
  0071a	ff d3		 call	 ebx
  0071c	50		 push	 eax
  0071d	56		 push	 esi
  0071e	68 f8 3e 00 00	 push	 OFFSET ?m_szMacro@ChatMacro@@1PAY0BAE@DA+16120
  00723	e8 00 00 00 00	 call	 ?StringCbCopyA@@YGJPADIPBD@Z ; StringCbCopyA

; 128  : 	StringCbCopy( m_szMacro[MACRO_MONSTER_CLOSE]				,sizeof( m_szMacro[MACRO_MONSTER_CLOSE] )				, STR(45) );

  00728	6a 00		 push	 0
  0072a	6a 2d		 push	 45			; 0000002dH
  0072c	68 00 00 00 00	 push	 OFFSET ??_C@_00CNPNBAHC@?$AA@
  00731	68 00 00 00 00	 push	 OFFSET ??_C@_0BI@MLLKIMKO@ChatMacro?3?3SetMacroText?$AA@
  00736	ff d7		 call	 edi
  00738	8b c8		 mov	 ecx, eax
  0073a	ff d3		 call	 ebx
  0073c	50		 push	 eax
  0073d	56		 push	 esi
  0073e	68 fc 3f 00 00	 push	 OFFSET ?m_szMacro@ChatMacro@@1PAY0BAE@DA+16380
  00743	e8 00 00 00 00	 call	 ?StringCbCopyA@@YGJPADIPBD@Z ; StringCbCopyA

; 129  : 	StringCbCopy( m_szMacro[MACRO_BINGO_PRESENT]				,sizeof( m_szMacro[MACRO_BINGO_PRESENT] )				, STR(47) );

  00748	6a 00		 push	 0
  0074a	6a 2f		 push	 47			; 0000002fH
  0074c	68 00 00 00 00	 push	 OFFSET ??_C@_00CNPNBAHC@?$AA@
  00751	68 00 00 00 00	 push	 OFFSET ??_C@_0BI@MLLKIMKO@ChatMacro?3?3SetMacroText?$AA@
  00756	ff d7		 call	 edi
  00758	8b c8		 mov	 ecx, eax
  0075a	ff d3		 call	 ebx
  0075c	50		 push	 eax
  0075d	56		 push	 esi
  0075e	68 00 41 00 00	 push	 OFFSET ?m_szMacro@ChatMacro@@1PAY0BAE@DA+16640
  00763	e8 00 00 00 00	 call	 ?StringCbCopyA@@YGJPADIPBD@Z ; StringCbCopyA

; 130  : 	StringCbCopy( m_szMacro[MACRO_MONSTER_SPAWN]				,sizeof( m_szMacro[MACRO_MONSTER_SPAWN] )				, STR(48) );

  00768	6a 00		 push	 0
  0076a	6a 30		 push	 48			; 00000030H
  0076c	68 00 00 00 00	 push	 OFFSET ??_C@_00CNPNBAHC@?$AA@
  00771	68 00 00 00 00	 push	 OFFSET ??_C@_0BI@MLLKIMKO@ChatMacro?3?3SetMacroText?$AA@
  00776	ff d7		 call	 edi
  00778	8b c8		 mov	 ecx, eax
  0077a	ff d3		 call	 ebx
  0077c	50		 push	 eax
  0077d	56		 push	 esi
  0077e	68 04 42 00 00	 push	 OFFSET ?m_szMacro@ChatMacro@@1PAY0BAE@DA+16900
  00783	e8 00 00 00 00	 call	 ?StringCbCopyA@@YGJPADIPBD@Z ; StringCbCopyA

; 131  : 	StringCbCopy( m_szMacro[MACRO_SUPERGASHAPON_GET_ALL]		,sizeof( m_szMacro[MACRO_SUPERGASHAPON_GET_ALL] )		, STR(49) );

  00788	6a 00		 push	 0
  0078a	6a 31		 push	 49			; 00000031H
  0078c	68 00 00 00 00	 push	 OFFSET ??_C@_00CNPNBAHC@?$AA@
  00791	68 00 00 00 00	 push	 OFFSET ??_C@_0BI@MLLKIMKO@ChatMacro?3?3SetMacroText?$AA@
  00796	ff d7		 call	 edi
  00798	8b c8		 mov	 ecx, eax
  0079a	ff d3		 call	 ebx
  0079c	50		 push	 eax
  0079d	56		 push	 esi
  0079e	68 08 43 00 00	 push	 OFFSET ?m_szMacro@ChatMacro@@1PAY0BAE@DA+17160
  007a3	e8 00 00 00 00	 call	 ?StringCbCopyA@@YGJPADIPBD@Z ; StringCbCopyA

; 132  : 	StringCbCopy( m_szMacro[MACRO_SUPERGASHAPON_GET]			,sizeof( m_szMacro[MACRO_SUPERGASHAPON_GET] )			, STR(50) );

  007a8	6a 00		 push	 0
  007aa	6a 32		 push	 50			; 00000032H
  007ac	68 00 00 00 00	 push	 OFFSET ??_C@_00CNPNBAHC@?$AA@
  007b1	68 00 00 00 00	 push	 OFFSET ??_C@_0BI@MLLKIMKO@ChatMacro?3?3SetMacroText?$AA@
  007b6	ff d7		 call	 edi
  007b8	8b c8		 mov	 ecx, eax
  007ba	ff d3		 call	 ebx
  007bc	50		 push	 eax
  007bd	56		 push	 esi
  007be	68 0c 44 00 00	 push	 OFFSET ?m_szMacro@ChatMacro@@1PAY0BAE@DA+17420
  007c3	e8 00 00 00 00	 call	 ?StringCbCopyA@@YGJPADIPBD@Z ; StringCbCopyA

; 133  : 	StringCbCopy( m_szMacro[MACRO_SUPERGASHAPON_LIMIT_INFO_GET]	,sizeof( m_szMacro[MACRO_SUPERGASHAPON_LIMIT_INFO_GET] ), STR(51) );

  007c8	6a 00		 push	 0
  007ca	6a 33		 push	 51			; 00000033H
  007cc	68 00 00 00 00	 push	 OFFSET ??_C@_00CNPNBAHC@?$AA@
  007d1	68 00 00 00 00	 push	 OFFSET ??_C@_0BI@MLLKIMKO@ChatMacro?3?3SetMacroText?$AA@
  007d6	ff d7		 call	 edi
  007d8	8b c8		 mov	 ecx, eax
  007da	ff d3		 call	 ebx
  007dc	50		 push	 eax
  007dd	56		 push	 esi
  007de	68 10 45 00 00	 push	 OFFSET ?m_szMacro@ChatMacro@@1PAY0BAE@DA+17680
  007e3	e8 00 00 00 00	 call	 ?StringCbCopyA@@YGJPADIPBD@Z ; StringCbCopyA

; 134  : 	StringCbCopy( m_szMacro[MACRO_SUPERGASHAPON_LIMIT_RESET]	,sizeof( m_szMacro[MACRO_SUPERGASHAPON_LIMIT_RESET] ),    STR(52) );

  007e8	6a 00		 push	 0
  007ea	6a 34		 push	 52			; 00000034H
  007ec	68 00 00 00 00	 push	 OFFSET ??_C@_00CNPNBAHC@?$AA@
  007f1	68 00 00 00 00	 push	 OFFSET ??_C@_0BI@MLLKIMKO@ChatMacro?3?3SetMacroText?$AA@
  007f6	ff d7		 call	 edi
  007f8	8b c8		 mov	 ecx, eax
  007fa	ff d3		 call	 ebx
  007fc	50		 push	 eax
  007fd	56		 push	 esi
  007fe	68 14 46 00 00	 push	 OFFSET ?m_szMacro@ChatMacro@@1PAY0BAE@DA+17940
  00803	e8 00 00 00 00	 call	 ?StringCbCopyA@@YGJPADIPBD@Z ; StringCbCopyA

; 135  : 	StringCbCopy( m_szMacro[MACRO_SEND_RECIVE_CHECK_ON]			,sizeof( m_szMacro[MACRO_SEND_RECIVE_CHECK_ON] ),	STR(53) );

  00808	6a 00		 push	 0
  0080a	6a 35		 push	 53			; 00000035H
  0080c	68 00 00 00 00	 push	 OFFSET ??_C@_00CNPNBAHC@?$AA@
  00811	68 00 00 00 00	 push	 OFFSET ??_C@_0BI@MLLKIMKO@ChatMacro?3?3SetMacroText?$AA@
  00816	ff d7		 call	 edi
  00818	8b c8		 mov	 ecx, eax
  0081a	ff d3		 call	 ebx
  0081c	50		 push	 eax
  0081d	56		 push	 esi
  0081e	68 18 47 00 00	 push	 OFFSET ?m_szMacro@ChatMacro@@1PAY0BAE@DA+18200
  00823	e8 00 00 00 00	 call	 ?StringCbCopyA@@YGJPADIPBD@Z ; StringCbCopyA

; 136  : 	StringCbCopy( m_szMacro[MACRO_SEND_RECIVE_CHECK_OFF]		,sizeof( m_szMacro[MACRO_SEND_RECIVE_CHECK_OFF] ),	STR(54) );

  00828	6a 00		 push	 0
  0082a	6a 36		 push	 54			; 00000036H
  0082c	68 00 00 00 00	 push	 OFFSET ??_C@_00CNPNBAHC@?$AA@
  00831	68 00 00 00 00	 push	 OFFSET ??_C@_0BI@MLLKIMKO@ChatMacro?3?3SetMacroText?$AA@
  00836	ff d7		 call	 edi
  00838	8b c8		 mov	 ecx, eax
  0083a	ff d3		 call	 ebx
  0083c	50		 push	 eax
  0083d	56		 push	 esi
  0083e	68 1c 48 00 00	 push	 OFFSET ?m_szMacro@ChatMacro@@1PAY0BAE@DA+18460
  00843	e8 00 00 00 00	 call	 ?StringCbCopyA@@YGJPADIPBD@Z ; StringCbCopyA

; 137  : 	StringCbCopy( m_szMacro[MACRO_ATTENDANCE_WND_SHOW]			,sizeof( m_szMacro[MACRO_ATTENDANCE_WND_SHOW] )			, STR(55) );

  00848	6a 00		 push	 0
  0084a	6a 37		 push	 55			; 00000037H
  0084c	68 00 00 00 00	 push	 OFFSET ??_C@_00CNPNBAHC@?$AA@
  00851	68 00 00 00 00	 push	 OFFSET ??_C@_0BI@MLLKIMKO@ChatMacro?3?3SetMacroText?$AA@
  00856	ff d7		 call	 edi
  00858	8b c8		 mov	 ecx, eax
  0085a	ff d3		 call	 ebx
  0085c	50		 push	 eax
  0085d	56		 push	 esi
  0085e	68 20 49 00 00	 push	 OFFSET ?m_szMacro@ChatMacro@@1PAY0BAE@DA+18720
  00863	e8 00 00 00 00	 call	 ?StringCbCopyA@@YGJPADIPBD@Z ; StringCbCopyA

; 138  : 	StringCbCopy( m_szMacro[MACRO_ATTENDANCE_ADD_DAY]			,sizeof( m_szMacro[MACRO_ATTENDANCE_ADD_DAY] )			, STR(56) );

  00868	6a 00		 push	 0
  0086a	6a 38		 push	 56			; 00000038H
  0086c	68 00 00 00 00	 push	 OFFSET ??_C@_00CNPNBAHC@?$AA@
  00871	68 00 00 00 00	 push	 OFFSET ??_C@_0BI@MLLKIMKO@ChatMacro?3?3SetMacroText?$AA@
  00876	ff d7		 call	 edi
  00878	8b c8		 mov	 ecx, eax
  0087a	ff d3		 call	 ebx
  0087c	50		 push	 eax
  0087d	56		 push	 esi
  0087e	68 24 4a 00 00	 push	 OFFSET ?m_szMacro@ChatMacro@@1PAY0BAE@DA+18980
  00883	e8 00 00 00 00	 call	 ?StringCbCopyA@@YGJPADIPBD@Z ; StringCbCopyA

; 139  : 	StringCbCopy( m_szMacro[MACRO_ATTENDANCE_ADD_PREV_MONTH]	,sizeof( m_szMacro[MACRO_ATTENDANCE_ADD_PREV_MONTH] )	, STR(57) );

  00888	6a 00		 push	 0
  0088a	6a 39		 push	 57			; 00000039H
  0088c	68 00 00 00 00	 push	 OFFSET ??_C@_00CNPNBAHC@?$AA@
  00891	68 00 00 00 00	 push	 OFFSET ??_C@_0BI@MLLKIMKO@ChatMacro?3?3SetMacroText?$AA@
  00896	ff d7		 call	 edi
  00898	8b c8		 mov	 ecx, eax
  0089a	ff d3		 call	 ebx
  0089c	50		 push	 eax
  0089d	56		 push	 esi
  0089e	68 28 4b 00 00	 push	 OFFSET ?m_szMacro@ChatMacro@@1PAY0BAE@DA+19240
  008a3	e8 00 00 00 00	 call	 ?StringCbCopyA@@YGJPADIPBD@Z ; StringCbCopyA

; 140  : 	StringCbCopy( m_szMacro[MACRO_ATTENDANCE_RESET]				,sizeof( m_szMacro[MACRO_ATTENDANCE_RESET] )			, STR(58) );

  008a8	6a 00		 push	 0
  008aa	6a 3a		 push	 58			; 0000003aH
  008ac	68 00 00 00 00	 push	 OFFSET ??_C@_00CNPNBAHC@?$AA@
  008b1	68 00 00 00 00	 push	 OFFSET ??_C@_0BI@MLLKIMKO@ChatMacro?3?3SetMacroText?$AA@
  008b6	ff d7		 call	 edi
  008b8	8b c8		 mov	 ecx, eax
  008ba	ff d3		 call	 ebx
  008bc	50		 push	 eax
  008bd	56		 push	 esi
  008be	68 2c 4c 00 00	 push	 OFFSET ?m_szMacro@ChatMacro@@1PAY0BAE@DA+19500
  008c3	e8 00 00 00 00	 call	 ?StringCbCopyA@@YGJPADIPBD@Z ; StringCbCopyA

; 141  : 	StringCbCopy( m_szMacro[MACRO_ATTENDANCE_SET_DATE]			,sizeof( m_szMacro[MACRO_ATTENDANCE_SET_DATE] )			, STR(59) );

  008c8	6a 00		 push	 0
  008ca	6a 3b		 push	 59			; 0000003bH
  008cc	68 00 00 00 00	 push	 OFFSET ??_C@_00CNPNBAHC@?$AA@
  008d1	68 00 00 00 00	 push	 OFFSET ??_C@_0BI@MLLKIMKO@ChatMacro?3?3SetMacroText?$AA@
  008d6	ff d7		 call	 edi
  008d8	8b c8		 mov	 ecx, eax
  008da	ff d3		 call	 ebx
  008dc	50		 push	 eax
  008dd	56		 push	 esi
  008de	68 30 4d 00 00	 push	 OFFSET ?m_szMacro@ChatMacro@@1PAY0BAE@DA+19760
  008e3	e8 00 00 00 00	 call	 ?StringCbCopyA@@YGJPADIPBD@Z ; StringCbCopyA

; 142  : 	StringCbCopy( m_szMacro[MACRO_AWAKE_SET_DATE]				,sizeof( m_szMacro[MACRO_AWAKE_SET_DATE] )				, STR(60) );

  008e8	6a 00		 push	 0
  008ea	6a 3c		 push	 60			; 0000003cH
  008ec	68 00 00 00 00	 push	 OFFSET ??_C@_00CNPNBAHC@?$AA@
  008f1	68 00 00 00 00	 push	 OFFSET ??_C@_0BI@MLLKIMKO@ChatMacro?3?3SetMacroText?$AA@
  008f6	ff d7		 call	 edi
  008f8	8b c8		 mov	 ecx, eax
  008fa	ff d3		 call	 ebx
  008fc	50		 push	 eax
  008fd	56		 push	 esi
  008fe	68 34 4e 00 00	 push	 OFFSET ?m_szMacro@ChatMacro@@1PAY0BAE@DA+20020
  00903	e8 00 00 00 00	 call	 ?StringCbCopyA@@YGJPADIPBD@Z ; StringCbCopyA

; 143  : 	StringCbCopy( m_szMacro[MACRO_GASHAPON_GET_ALL]				,sizeof( m_szMacro[MACRO_GASHAPON_GET_ALL] )			, "/GetGashaAll" );

  00908	68 00 00 00 00	 push	 OFFSET ??_C@_0N@GOLFJIHK@?1GetGashaAll?$AA@
  0090d	56		 push	 esi
  0090e	68 60 59 00 00	 push	 OFFSET ?m_szMacro@ChatMacro@@1PAY0BAE@DA+22880
  00913	e8 00 00 00 00	 call	 ?StringCbCopyA@@YGJPADIPBD@Z ; StringCbCopyA

; 144  : 	StringCbCopy( m_szMacro[MACRO_CHAR_POWER_UP_ADD]			,sizeof( m_szMacro[MACRO_CHAR_POWER_UP_ADD] )			, STR(61) );

  00918	6a 00		 push	 0
  0091a	6a 3d		 push	 61			; 0000003dH
  0091c	68 00 00 00 00	 push	 OFFSET ??_C@_00CNPNBAHC@?$AA@
  00921	68 00 00 00 00	 push	 OFFSET ??_C@_0BI@MLLKIMKO@ChatMacro?3?3SetMacroText?$AA@
  00926	ff d7		 call	 edi
  00928	8b c8		 mov	 ecx, eax
  0092a	ff d3		 call	 ebx
  0092c	50		 push	 eax
  0092d	56		 push	 esi
  0092e	68 38 4f 00 00	 push	 OFFSET ?m_szMacro@ChatMacro@@1PAY0BAE@DA+20280
  00933	e8 00 00 00 00	 call	 ?StringCbCopyA@@YGJPADIPBD@Z ; StringCbCopyA

; 145  : 	StringCbCopy( m_szMacro[MACRO_ITEM_SLOT_INDEX_FIND]			,sizeof( m_szMacro[MACRO_ITEM_SLOT_INDEX_FIND] )		, STR(62) );

  00938	6a 00		 push	 0
  0093a	6a 3e		 push	 62			; 0000003eH
  0093c	68 00 00 00 00	 push	 OFFSET ??_C@_00CNPNBAHC@?$AA@
  00941	68 00 00 00 00	 push	 OFFSET ??_C@_0BI@MLLKIMKO@ChatMacro?3?3SetMacroText?$AA@
  00946	ff d7		 call	 edi
  00948	8b c8		 mov	 ecx, eax
  0094a	ff d3		 call	 ebx
  0094c	50		 push	 eax
  0094d	56		 push	 esi
  0094e	68 3c 50 00 00	 push	 OFFSET ?m_szMacro@ChatMacro@@1PAY0BAE@DA+20540
  00953	e8 00 00 00 00	 call	 ?StringCbCopyA@@YGJPADIPBD@Z ; StringCbCopyA

; 146  : 	StringCbCopy( m_szMacro[MACRO_ITEM_POWER_UP_ADD]			,sizeof( m_szMacro[MACRO_ITEM_POWER_UP_ADD] )			, STR(63) );

  00958	6a 00		 push	 0
  0095a	6a 3f		 push	 63			; 0000003fH
  0095c	68 00 00 00 00	 push	 OFFSET ??_C@_00CNPNBAHC@?$AA@
  00961	68 00 00 00 00	 push	 OFFSET ??_C@_0BI@MLLKIMKO@ChatMacro?3?3SetMacroText?$AA@
  00966	ff d7		 call	 edi
  00968	8b c8		 mov	 ecx, eax
  0096a	ff d3		 call	 ebx
  0096c	50		 push	 eax
  0096d	56		 push	 esi
  0096e	68 40 51 00 00	 push	 OFFSET ?m_szMacro@ChatMacro@@1PAY0BAE@DA+20800
  00973	e8 00 00 00 00	 call	 ?StringCbCopyA@@YGJPADIPBD@Z ; StringCbCopyA

; 147  : 	StringCbCopy( m_szMacro[MACRO_ALL_LSC_FROM_DDS]				,sizeof( m_szMacro[MACRO_ALL_LSC_FROM_DDS] )			, STR(74) );

  00978	6a 00		 push	 0
  0097a	6a 4a		 push	 74			; 0000004aH
  0097c	68 00 00 00 00	 push	 OFFSET ??_C@_00CNPNBAHC@?$AA@
  00981	68 00 00 00 00	 push	 OFFSET ??_C@_0BI@MLLKIMKO@ChatMacro?3?3SetMacroText?$AA@
  00986	ff d7		 call	 edi
  00988	8b c8		 mov	 ecx, eax
  0098a	ff d3		 call	 ebx
  0098c	50		 push	 eax
  0098d	56		 push	 esi
  0098e	68 74 5e 00 00	 push	 OFFSET ?m_szMacro@ChatMacro@@1PAY0BAE@DA+24180
  00993	e8 00 00 00 00	 call	 ?StringCbCopyA@@YGJPADIPBD@Z ; StringCbCopyA

; 148  : 	StringCbCopy( m_szMacro[MACRO_CANNOT_OPEN_DDS_FILE]			,sizeof( m_szMacro[MACRO_CANNOT_OPEN_DDS_FILE] )		, "/CheckDDS" );

  00998	68 00 00 00 00	 push	 OFFSET ??_C@_09NENPHBD@?1CheckDDS?$AA@
  0099d	56		 push	 esi
  0099e	68 44 52 00 00	 push	 OFFSET ?m_szMacro@ChatMacro@@1PAY0BAE@DA+21060
  009a3	e8 00 00 00 00	 call	 ?StringCbCopyA@@YGJPADIPBD@Z ; StringCbCopyA

; 149  : 	StringCbCopy( m_szMacro[MACRO_CHAR_INFO_WND_SHOW]			,sizeof( m_szMacro[MACRO_CHAR_INFO_WND_SHOW] )			, STR(64) );

  009a8	6a 00		 push	 0
  009aa	6a 40		 push	 64			; 00000040H
  009ac	68 00 00 00 00	 push	 OFFSET ??_C@_00CNPNBAHC@?$AA@
  009b1	68 00 00 00 00	 push	 OFFSET ??_C@_0BI@MLLKIMKO@ChatMacro?3?3SetMacroText?$AA@
  009b6	ff d7		 call	 edi
  009b8	8b c8		 mov	 ecx, eax
  009ba	ff d3		 call	 ebx
  009bc	50		 push	 eax
  009bd	56		 push	 esi
  009be	68 48 53 00 00	 push	 OFFSET ?m_szMacro@ChatMacro@@1PAY0BAE@DA+21320
  009c3	e8 00 00 00 00	 call	 ?StringCbCopyA@@YGJPADIPBD@Z ; StringCbCopyA

; 150  : 	StringCbCopy( m_szMacro[MACRO_SET_MISSION]					,sizeof( m_szMacro[MACRO_SET_MISSION] )					, STR(65) );

  009c8	6a 00		 push	 0
  009ca	6a 41		 push	 65			; 00000041H
  009cc	68 00 00 00 00	 push	 OFFSET ??_C@_00CNPNBAHC@?$AA@
  009d1	68 00 00 00 00	 push	 OFFSET ??_C@_0BI@MLLKIMKO@ChatMacro?3?3SetMacroText?$AA@
  009d6	ff d7		 call	 edi
  009d8	8b c8		 mov	 ecx, eax
  009da	ff d3		 call	 ebx
  009dc	50		 push	 eax
  009dd	56		 push	 esi
  009de	68 4c 54 00 00	 push	 OFFSET ?m_szMacro@ChatMacro@@1PAY0BAE@DA+21580
  009e3	e8 00 00 00 00	 call	 ?StringCbCopyA@@YGJPADIPBD@Z ; StringCbCopyA

; 151  : 	StringCbCopy( m_szMacro[MACRO_SET_DATE_MISSION]				,sizeof( m_szMacro[MACRO_SET_DATE_MISSION] )			, STR(66) );

  009e8	6a 00		 push	 0
  009ea	6a 42		 push	 66			; 00000042H
  009ec	68 00 00 00 00	 push	 OFFSET ??_C@_00CNPNBAHC@?$AA@
  009f1	68 00 00 00 00	 push	 OFFSET ??_C@_0BI@MLLKIMKO@ChatMacro?3?3SetMacroText?$AA@
  009f6	ff d7		 call	 edi
  009f8	8b c8		 mov	 ecx, eax
  009fa	ff d3		 call	 ebx
  009fc	50		 push	 eax
  009fd	56		 push	 esi
  009fe	68 50 55 00 00	 push	 OFFSET ?m_szMacro@ChatMacro@@1PAY0BAE@DA+21840
  00a03	e8 00 00 00 00	 call	 ?StringCbCopyA@@YGJPADIPBD@Z ; StringCbCopyA

; 152  : 	StringCbCopy( m_szMacro[MACRO_SET_MISSION_VALUE]			,sizeof( m_szMacro[MACRO_SET_MISSION_VALUE] )			, STR(67) );

  00a08	6a 00		 push	 0
  00a0a	6a 43		 push	 67			; 00000043H
  00a0c	68 00 00 00 00	 push	 OFFSET ??_C@_00CNPNBAHC@?$AA@
  00a11	68 00 00 00 00	 push	 OFFSET ??_C@_0BI@MLLKIMKO@ChatMacro?3?3SetMacroText?$AA@
  00a16	ff d7		 call	 edi
  00a18	8b c8		 mov	 ecx, eax
  00a1a	ff d3		 call	 ebx
  00a1c	50		 push	 eax
  00a1d	56		 push	 esi
  00a1e	68 54 56 00 00	 push	 OFFSET ?m_szMacro@ChatMacro@@1PAY0BAE@DA+22100
  00a23	e8 00 00 00 00	 call	 ?StringCbCopyA@@YGJPADIPBD@Z ; StringCbCopyA

; 153  : 	StringCbCopy( m_szMacro[MACRO_ROLLBOOK_WND_SHOW]			,sizeof( m_szMacro[MACRO_ROLLBOOK_WND_SHOW] )			, STR(68) );

  00a28	6a 00		 push	 0
  00a2a	6a 44		 push	 68			; 00000044H
  00a2c	68 00 00 00 00	 push	 OFFSET ??_C@_00CNPNBAHC@?$AA@
  00a31	68 00 00 00 00	 push	 OFFSET ??_C@_0BI@MLLKIMKO@ChatMacro?3?3SetMacroText?$AA@
  00a36	ff d7		 call	 edi
  00a38	8b c8		 mov	 ecx, eax
  00a3a	ff d3		 call	 ebx
  00a3c	50		 push	 eax
  00a3d	56		 push	 esi
  00a3e	68 58 57 00 00	 push	 OFFSET ?m_szMacro@ChatMacro@@1PAY0BAE@DA+22360
  00a43	e8 00 00 00 00	 call	 ?StringCbCopyA@@YGJPADIPBD@Z ; StringCbCopyA

; 154  : 	StringCbCopy( m_szMacro[MACRO_ROLLBOOK_PROGRESS]			,sizeof( m_szMacro[MACRO_ROLLBOOK_PROGRESS] )			, STR(69) );

  00a48	6a 00		 push	 0
  00a4a	6a 45		 push	 69			; 00000045H
  00a4c	68 00 00 00 00	 push	 OFFSET ??_C@_00CNPNBAHC@?$AA@
  00a51	68 00 00 00 00	 push	 OFFSET ??_C@_0BI@MLLKIMKO@ChatMacro?3?3SetMacroText?$AA@
  00a56	ff d7		 call	 edi
  00a58	8b c8		 mov	 ecx, eax
  00a5a	ff d3		 call	 ebx
  00a5c	50		 push	 eax
  00a5d	56		 push	 esi
  00a5e	68 5c 58 00 00	 push	 OFFSET ?m_szMacro@ChatMacro@@1PAY0BAE@DA+22620
  00a63	e8 00 00 00 00	 call	 ?StringCbCopyA@@YGJPADIPBD@Z ; StringCbCopyA

; 155  : 	StringCbCopy( m_szMacro[MACRO_STEAM_ACHIVE]				,sizeof( m_szMacro[MACRO_STEAM_ACHIVE] )			, "/achi" );

  00a68	68 00 00 00 00	 push	 OFFSET ??_C@_05MHPNKFNJ@?1achi?$AA@
  00a6d	56		 push	 esi
  00a6e	68 94 66 00 00	 push	 OFFSET ?m_szMacro@ChatMacro@@1PAY0BAE@DA+26260
  00a73	e8 00 00 00 00	 call	 ?StringCbCopyA@@YGJPADIPBD@Z ; StringCbCopyA

; 156  : 	StringCbCopy( m_szMacro[MACRO_STEAM_OPENWEB]				,sizeof( m_szMacro[MACRO_STEAM_OPENWEB] )			, "/openW" );

  00a78	68 00 00 00 00	 push	 OFFSET ??_C@_06OAFNBODM@?1openW?$AA@
  00a7d	56		 push	 esi
  00a7e	68 98 67 00 00	 push	 OFFSET ?m_szMacro@ChatMacro@@1PAY0BAE@DA+26520
  00a83	e8 00 00 00 00	 call	 ?StringCbCopyA@@YGJPADIPBD@Z ; StringCbCopyA

; 157  : 	StringCbCopy( m_szMacro[MACRO_PENALTY_VIEW]				,sizeof( m_szMacro[MACRO_PENALTY_VIEW] )			, "/penaltyview" );

  00a88	68 00 00 00 00	 push	 OFFSET ??_C@_0N@EIOKGLMO@?1penaltyview?$AA@
  00a8d	56		 push	 esi
  00a8e	68 a0 69 00 00	 push	 OFFSET ?m_szMacro@ChatMacro@@1PAY0BAE@DA+27040
  00a93	e8 00 00 00 00	 call	 ?StringCbCopyA@@YGJPADIPBD@Z ; StringCbCopyA

; 158  : 	
; 159  : 	StringCbCopy( m_szMacro[MACRO_FPS_LOWER]					,sizeof( m_szMacro[MACRO_FPS_LOWER] )					, "/fps" );

  00a98	68 00 00 00 00	 push	 OFFSET ??_C@_04DEOCFKIN@?1fps?$AA@
  00a9d	56		 push	 esi
  00a9e	68 64 5a 00 00	 push	 OFFSET ?m_szMacro@ChatMacro@@1PAY0BAE@DA+23140
  00aa3	e8 00 00 00 00	 call	 ?StringCbCopyA@@YGJPADIPBD@Z ; StringCbCopyA

; 160  : 	StringCbCopy( m_szMacro[MACRO_FPS_UPPER]					,sizeof( m_szMacro[MACRO_FPS_UPPER] )					, "/FPS" );

  00aa8	68 00 00 00 00	 push	 OFFSET ??_C@_04DJBJJHPB@?1FPS?$AA@
  00aad	56		 push	 esi
  00aae	68 68 5b 00 00	 push	 OFFSET ?m_szMacro@ChatMacro@@1PAY0BAE@DA+23400
  00ab3	e8 00 00 00 00	 call	 ?StringCbCopyA@@YGJPADIPBD@Z ; StringCbCopyA

; 161  : 	StringCbCopy( m_szMacro[MACRO_TIMER_CHANGE]					,sizeof( m_szMacro[MACRO_TIMER_CHANGE] )				, "/timerchange" );

  00ab8	68 00 00 00 00	 push	 OFFSET ??_C@_0N@MAIIKPII@?1timerchange?$AA@
  00abd	56		 push	 esi
  00abe	68 6c 5c 00 00	 push	 OFFSET ?m_szMacro@ChatMacro@@1PAY0BAE@DA+23660
  00ac3	e8 00 00 00 00	 call	 ?StringCbCopyA@@YGJPADIPBD@Z ; StringCbCopyA

; 162  : 	StringCbCopy( m_szMacro[MACRO_FPS_LAG_CHECK]				,sizeof( m_szMacro[MACRO_FPS_LAG_CHECK] )				, "/fpslag" );

  00ac8	68 00 00 00 00	 push	 OFFSET ??_C@_07PFOEKKKB@?1fpslag?$AA@
  00acd	56		 push	 esi
  00ace	68 70 5d 00 00	 push	 OFFSET ?m_szMacro@ChatMacro@@1PAY0BAE@DA+23920
  00ad3	e8 00 00 00 00	 call	 ?StringCbCopyA@@YGJPADIPBD@Z ; StringCbCopyA

; 163  : 	StringCbCopy( m_szMacro[MACRO_HOUSING_TEST]					,sizeof( m_szMacro[MACRO_HOUSING_TEST] )				, "/HT" );

  00ad8	68 00 00 00 00	 push	 OFFSET ??_C@_03IGLENLKD@?1HT?$AA@
  00add	56		 push	 esi
  00ade	68 78 5f 00 00	 push	 OFFSET ?m_szMacro@ChatMacro@@1PAY0BAE@DA+24440
  00ae3	e8 00 00 00 00	 call	 ?StringCbCopyA@@YGJPADIPBD@Z ; StringCbCopyA

; 164  : 	StringCbCopy( m_szMacro[MACRO_HOUSING_CMD]					,sizeof( m_szMacro[MACRO_HOUSING_CMD] )					, "/HC" );

  00ae8	68 00 00 00 00	 push	 OFFSET ??_C@_03IDDHFPDF@?1HC?$AA@
  00aed	56		 push	 esi
  00aee	68 7c 60 00 00	 push	 OFFSET ?m_szMacro@ChatMacro@@1PAY0BAE@DA+24700
  00af3	e8 00 00 00 00	 call	 ?StringCbCopyA@@YGJPADIPBD@Z ; StringCbCopyA

; 165  : 	StringCbCopy( m_szMacro[MACRO_HOUSING_SAVE]					,sizeof( m_szMacro[MACRO_HOUSING_SAVE] )				, "/HE" );

  00af8	68 00 00 00 00	 push	 OFFSET ??_C@_03NFGNPILD@?1HE?$AA@
  00afd	56		 push	 esi
  00afe	68 80 61 00 00	 push	 OFFSET ?m_szMacro@ChatMacro@@1PAY0BAE@DA+24960
  00b03	e8 00 00 00 00	 call	 ?StringCbCopyA@@YGJPADIPBD@Z ; StringCbCopyA

; 166  : 	StringCbCopy( m_szMacro[MACRO_COMFORTABLE_LIFE]				,sizeof( m_szMacro[MACRO_COMFORTABLE_LIFE] )			, STR(1) );

  00b08	6a 00		 push	 0
  00b0a	6a 01		 push	 1
  00b0c	68 00 00 00 00	 push	 OFFSET ??_C@_00CNPNBAHC@?$AA@
  00b11	68 00 00 00 00	 push	 OFFSET ??_C@_0BI@MLLKIMKO@ChatMacro?3?3SetMacroText?$AA@
  00b16	ff d7		 call	 edi
  00b18	8b c8		 mov	 ecx, eax
  00b1a	ff d3		 call	 ebx
  00b1c	50		 push	 eax
  00b1d	56		 push	 esi
  00b1e	68 84 62 00 00	 push	 OFFSET ?m_szMacro@ChatMacro@@1PAY0BAE@DA+25220
  00b23	e8 00 00 00 00	 call	 ?StringCbCopyA@@YGJPADIPBD@Z ; StringCbCopyA

; 167  : 	StringCbCopy( m_szMacro[MACRO_TOURNAMENT_NEXT_STATE]		,sizeof( m_szMacro[MACRO_TOURNAMENT_NEXT_STATE] )		, STR(2) );

  00b28	6a 00		 push	 0
  00b2a	6a 02		 push	 2
  00b2c	68 00 00 00 00	 push	 OFFSET ??_C@_00CNPNBAHC@?$AA@
  00b31	68 00 00 00 00	 push	 OFFSET ??_C@_0BI@MLLKIMKO@ChatMacro?3?3SetMacroText?$AA@
  00b36	ff d7		 call	 edi
  00b38	8b c8		 mov	 ecx, eax
  00b3a	ff d3		 call	 ebx
  00b3c	50		 push	 eax
  00b3d	56		 push	 esi
  00b3e	68 88 63 00 00	 push	 OFFSET ?m_szMacro@ChatMacro@@1PAY0BAE@DA+25480
  00b43	e8 00 00 00 00	 call	 ?StringCbCopyA@@YGJPADIPBD@Z ; StringCbCopyA

; 168  : 	StringCbCopy( m_szMacro[MACRO_TOURNAMENT_RESULT]			,sizeof( m_szMacro[MACRO_TOURNAMENT_RESULT] )			, STR(3) );

  00b48	6a 00		 push	 0
  00b4a	6a 03		 push	 3
  00b4c	68 00 00 00 00	 push	 OFFSET ??_C@_00CNPNBAHC@?$AA@
  00b51	68 00 00 00 00	 push	 OFFSET ??_C@_0BI@MLLKIMKO@ChatMacro?3?3SetMacroText?$AA@
  00b56	ff d7		 call	 edi
  00b58	8b c8		 mov	 ecx, eax
  00b5a	ff d3		 call	 ebx
  00b5c	50		 push	 eax
  00b5d	56		 push	 esi
  00b5e	68 8c 64 00 00	 push	 OFFSET ?m_szMacro@ChatMacro@@1PAY0BAE@DA+25740
  00b63	e8 00 00 00 00	 call	 ?StringCbCopyA@@YGJPADIPBD@Z ; StringCbCopyA

; 169  : 	StringCbCopy( m_szMacro[MACRO_BATTLEROOM_JOIN]				,sizeof( m_szMacro[MACRO_BATTLEROOM_JOIN] )				, STR(75) );

  00b68	6a 00		 push	 0
  00b6a	6a 4b		 push	 75			; 0000004bH
  00b6c	68 00 00 00 00	 push	 OFFSET ??_C@_00CNPNBAHC@?$AA@
  00b71	68 00 00 00 00	 push	 OFFSET ??_C@_0BI@MLLKIMKO@ChatMacro?3?3SetMacroText?$AA@
  00b76	ff d7		 call	 edi
  00b78	8b c8		 mov	 ecx, eax
  00b7a	ff d3		 call	 ebx
  00b7c	50		 push	 eax
  00b7d	56		 push	 esi
  00b7e	68 90 65 00 00	 push	 OFFSET ?m_szMacro@ChatMacro@@1PAY0BAE@DA+26000
  00b83	e8 00 00 00 00	 call	 ?StringCbCopyA@@YGJPADIPBD@Z ; StringCbCopyA

; 170  : 	StringCbCopy( m_szMacro[MACRO_SHOW_LADDERROOM]				,sizeof( m_szMacro[MACRO_SHOW_LADDERROOM] )				, STR(76) );

  00b88	6a 00		 push	 0
  00b8a	6a 4c		 push	 76			; 0000004cH
  00b8c	68 00 00 00 00	 push	 OFFSET ??_C@_00CNPNBAHC@?$AA@
  00b91	68 00 00 00 00	 push	 OFFSET ??_C@_0BI@MLLKIMKO@ChatMacro?3?3SetMacroText?$AA@
  00b96	ff d7		 call	 edi
  00b98	8b c8		 mov	 ecx, eax
  00b9a	ff d3		 call	 ebx
  00b9c	50		 push	 eax
  00b9d	56		 push	 esi
  00b9e	68 9c 68 00 00	 push	 OFFSET ?m_szMacro@ChatMacro@@1PAY0BAE@DA+26780
  00ba3	e8 00 00 00 00	 call	 ?StringCbCopyA@@YGJPADIPBD@Z ; StringCbCopyA
  00ba8	5f		 pop	 edi
  00ba9	5e		 pop	 esi
  00baa	5b		 pop	 ebx

; 171  : }

  00bab	c3		 ret	 0
?SetMacroText@ChatMacro@@SAXXZ ENDP			; ChatMacro::SetMacroText
_TEXT	ENDS
END
