; Listing generated by Microsoft (R) Optimizing Compiler Version 16.00.30319.01 

	TITLE	D:\Lost Saga For Developer\Youtube\Tutorial\Source\src\LSClient\DamageTable.cpp
	.686P
	.XMM
	include listing.inc
	.model	flat

INCLUDELIB MSVCRT
INCLUDELIB OLDNAMES

PUBLIC	??1?$_Pair_base@$$CBVioHashString@@UDamageData@DamageTable@@@std@@QAE@XZ ; std::_Pair_base<ioHashString const ,DamageTable::DamageData>::~_Pair_base<ioHashString const ,DamageTable::DamageData>
EXTRN	__imp_??1ioHashString@@QAE@XZ:PROC
; Function compile flags: /Ogsp
;	COMDAT ??1?$_Pair_base@$$CBVioHashString@@UDamageData@DamageTable@@@std@@QAE@XZ
_TEXT	SEGMENT
??1?$_Pair_base@$$CBVioHashString@@UDamageData@DamageTable@@@std@@QAE@XZ PROC ; std::_Pair_base<ioHashString const ,DamageTable::DamageData>::~_Pair_base<ioHashString const ,DamageTable::DamageData>, COMDAT
; _this$ = ecx
  00000	ff 25 00 00 00
	00		 jmp	 DWORD PTR __imp_??1ioHashString@@QAE@XZ
??1?$_Pair_base@$$CBVioHashString@@UDamageData@DamageTable@@@std@@QAE@XZ ENDP ; std::_Pair_base<ioHashString const ,DamageTable::DamageData>::~_Pair_base<ioHashString const ,DamageTable::DamageData>
_TEXT	ENDS
PUBLIC	?size@?$_Tree@V?$_Tmap_traits@VioHashString@@UDamageData@DamageTable@@U?$less@VioHashString@@@std@@V?$allocator@U?$pair@$$CBVioHashString@@UDamageData@DamageTable@@@std@@@5@$0A@@std@@@std@@QBEIXZ ; std::_Tree<std::_Tmap_traits<ioHashString,DamageTable::DamageData,std::less<ioHashString>,std::allocator<std::pair<ioHashString const ,DamageTable::DamageData> >,0> >::size
; Function compile flags: /Ogsp
; File c:\program files (x86)\microsoft visual studio 10.0\vc\include\xtree
;	COMDAT ?size@?$_Tree@V?$_Tmap_traits@VioHashString@@UDamageData@DamageTable@@U?$less@VioHashString@@@std@@V?$allocator@U?$pair@$$CBVioHashString@@UDamageData@DamageTable@@@std@@@5@$0A@@std@@@std@@QBEIXZ
_TEXT	SEGMENT
?size@?$_Tree@V?$_Tmap_traits@VioHashString@@UDamageData@DamageTable@@U?$less@VioHashString@@@std@@V?$allocator@U?$pair@$$CBVioHashString@@UDamageData@DamageTable@@@std@@@5@$0A@@std@@@std@@QBEIXZ PROC ; std::_Tree<std::_Tmap_traits<ioHashString,DamageTable::DamageData,std::less<ioHashString>,std::allocator<std::pair<ioHashString const ,DamageTable::DamageData> >,0> >::size, COMDAT
; _this$ = ecx

; 869  : 		return (this->_Mysize);

  00000	8b 41 08	 mov	 eax, DWORD PTR [ecx+8]

; 870  : 		}

  00003	c3		 ret	 0
?size@?$_Tree@V?$_Tmap_traits@VioHashString@@UDamageData@DamageTable@@U?$less@VioHashString@@@std@@V?$allocator@U?$pair@$$CBVioHashString@@UDamageData@DamageTable@@@std@@@5@$0A@@std@@@std@@QBEIXZ ENDP ; std::_Tree<std::_Tmap_traits<ioHashString,DamageTable::DamageData,std::less<ioHashString>,std::allocator<std::pair<ioHashString const ,DamageTable::DamageData> >,0> >::size
_TEXT	ENDS
PUBLIC	??8?$_Tree_const_iterator@V?$_Tree_val@V?$_Tmap_traits@VioHashString@@UDamageData@DamageTable@@U?$less@VioHashString@@@std@@V?$allocator@U?$pair@$$CBVioHashString@@UDamageData@DamageTable@@@std@@@5@$0A@@std@@@std@@@std@@QBE_NABV01@@Z ; std::_Tree_const_iterator<std::_Tree_val<std::_Tmap_traits<ioHashString,DamageTable::DamageData,std::less<ioHashString>,std::allocator<std::pair<ioHashString const ,DamageTable::DamageData> >,0> > >::operator==
; Function compile flags: /Ogsp
;	COMDAT ??8?$_Tree_const_iterator@V?$_Tree_val@V?$_Tmap_traits@VioHashString@@UDamageData@DamageTable@@U?$less@VioHashString@@@std@@V?$allocator@U?$pair@$$CBVioHashString@@UDamageData@DamageTable@@@std@@@5@$0A@@std@@@std@@@std@@QBE_NABV01@@Z
_TEXT	SEGMENT
__Right$ = 8						; size = 4
??8?$_Tree_const_iterator@V?$_Tree_val@V?$_Tmap_traits@VioHashString@@UDamageData@DamageTable@@U?$less@VioHashString@@@std@@V?$allocator@U?$pair@$$CBVioHashString@@UDamageData@DamageTable@@@std@@@5@$0A@@std@@@std@@@std@@QBE_NABV01@@Z PROC ; std::_Tree_const_iterator<std::_Tree_val<std::_Tmap_traits<ioHashString,DamageTable::DamageData,std::less<ioHashString>,std::allocator<std::pair<ioHashString const ,DamageTable::DamageData> >,0> > >::operator==, COMDAT
; _this$ = ecx

; 316  : 		{	// test for iterator equality

  00000	55		 push	 ebp
  00001	8b ec		 mov	 ebp, esp

; 317  :  #if _ITERATOR_DEBUG_LEVEL == 2
; 318  : 		if (this->_Getcont() == 0
; 319  : 			|| this->_Getcont() != _Right._Getcont())
; 320  : 			{	// report error
; 321  : 			_DEBUG_ERROR("map/set iterators incompatible");
; 322  : 			_SCL_SECURE_INVALID_ARGUMENT;
; 323  : 			}
; 324  : 
; 325  :  #elif _ITERATOR_DEBUG_LEVEL == 1
; 326  : 		_SCL_SECURE_VALIDATE(this->_Getcont() != 0
; 327  : 			&& this->_Getcont() == _Right._Getcont());
; 328  :  #endif /* _ITERATOR_DEBUG_LEVEL */
; 329  : 
; 330  : 		return (this->_Ptr == _Right._Ptr);

  00003	8b 01		 mov	 eax, DWORD PTR [ecx]
  00005	8b 4d 08	 mov	 ecx, DWORD PTR __Right$[ebp]
  00008	2b 01		 sub	 eax, DWORD PTR [ecx]
  0000a	f7 d8		 neg	 eax
  0000c	1b c0		 sbb	 eax, eax
  0000e	40		 inc	 eax

; 331  : 		}

  0000f	5d		 pop	 ebp
  00010	c2 04 00	 ret	 4
??8?$_Tree_const_iterator@V?$_Tree_val@V?$_Tmap_traits@VioHashString@@UDamageData@DamageTable@@U?$less@VioHashString@@@std@@V?$allocator@U?$pair@$$CBVioHashString@@UDamageData@DamageTable@@@std@@@5@$0A@@std@@@std@@@std@@QBE_NABV01@@Z ENDP ; std::_Tree_const_iterator<std::_Tree_val<std::_Tmap_traits<ioHashString,DamageTable::DamageData,std::less<ioHashString>,std::allocator<std::pair<ioHashString const ,DamageTable::DamageData> >,0> > >::operator==
_TEXT	ENDS
PUBLIC	??9?$_Tree_const_iterator@V?$_Tree_val@V?$_Tmap_traits@VioHashString@@UDamageData@DamageTable@@U?$less@VioHashString@@@std@@V?$allocator@U?$pair@$$CBVioHashString@@UDamageData@DamageTable@@@std@@@5@$0A@@std@@@std@@@std@@QBE_NABV01@@Z ; std::_Tree_const_iterator<std::_Tree_val<std::_Tmap_traits<ioHashString,DamageTable::DamageData,std::less<ioHashString>,std::allocator<std::pair<ioHashString const ,DamageTable::DamageData> >,0> > >::operator!=
; Function compile flags: /Ogsp
;	COMDAT ??9?$_Tree_const_iterator@V?$_Tree_val@V?$_Tmap_traits@VioHashString@@UDamageData@DamageTable@@U?$less@VioHashString@@@std@@V?$allocator@U?$pair@$$CBVioHashString@@UDamageData@DamageTable@@@std@@@5@$0A@@std@@@std@@@std@@QBE_NABV01@@Z
_TEXT	SEGMENT
__Right$ = 8						; size = 4
??9?$_Tree_const_iterator@V?$_Tree_val@V?$_Tmap_traits@VioHashString@@UDamageData@DamageTable@@U?$less@VioHashString@@@std@@V?$allocator@U?$pair@$$CBVioHashString@@UDamageData@DamageTable@@@std@@@5@$0A@@std@@@std@@@std@@QBE_NABV01@@Z PROC ; std::_Tree_const_iterator<std::_Tree_val<std::_Tmap_traits<ioHashString,DamageTable::DamageData,std::less<ioHashString>,std::allocator<std::pair<ioHashString const ,DamageTable::DamageData> >,0> > >::operator!=, COMDAT
; _this$ = ecx

; 334  : 		{	// test for iterator inequality

  00000	55		 push	 ebp
  00001	8b ec		 mov	 ebp, esp

; 335  : 		return (!(*this == _Right));

  00003	8b 01		 mov	 eax, DWORD PTR [ecx]
  00005	8b 55 08	 mov	 edx, DWORD PTR __Right$[ebp]
  00008	33 c9		 xor	 ecx, ecx
  0000a	3b 02		 cmp	 eax, DWORD PTR [edx]
  0000c	0f 95 c0	 setne	 al

; 336  : 		}

  0000f	5d		 pop	 ebp
  00010	c2 04 00	 ret	 4
??9?$_Tree_const_iterator@V?$_Tree_val@V?$_Tmap_traits@VioHashString@@UDamageData@DamageTable@@U?$less@VioHashString@@@std@@V?$allocator@U?$pair@$$CBVioHashString@@UDamageData@DamageTable@@@std@@@5@$0A@@std@@@std@@@std@@QBE_NABV01@@Z ENDP ; std::_Tree_const_iterator<std::_Tree_val<std::_Tmap_traits<ioHashString,DamageTable::DamageData,std::less<ioHashString>,std::allocator<std::pair<ioHashString const ,DamageTable::DamageData> >,0> > >::operator!=
_TEXT	ENDS
PUBLIC	??0?$allocator@U?$pair@$$CBVioHashString@@UDamageData@DamageTable@@@std@@@std@@QAE@XZ ; std::allocator<std::pair<ioHashString const ,DamageTable::DamageData> >::allocator<std::pair<ioHashString const ,DamageTable::DamageData> >
; Function compile flags: /Ogsp
; File c:\program files (x86)\microsoft visual studio 10.0\vc\include\xmemory
;	COMDAT ??0?$allocator@U?$pair@$$CBVioHashString@@UDamageData@DamageTable@@@std@@@std@@QAE@XZ
_TEXT	SEGMENT
??0?$allocator@U?$pair@$$CBVioHashString@@UDamageData@DamageTable@@@std@@@std@@QAE@XZ PROC ; std::allocator<std::pair<ioHashString const ,DamageTable::DamageData> >::allocator<std::pair<ioHashString const ,DamageTable::DamageData> >, COMDAT
; _this$ = ecx

; 161  : 	_ALLOCATOR() _THROW0()

  00000	8b c1		 mov	 eax, ecx

; 162  : 		{	// construct default allocator (do nothing)
; 163  : 		}

  00002	c3		 ret	 0
??0?$allocator@U?$pair@$$CBVioHashString@@UDamageData@DamageTable@@@std@@@std@@QAE@XZ ENDP ; std::allocator<std::pair<ioHashString const ,DamageTable::DamageData> >::allocator<std::pair<ioHashString const ,DamageTable::DamageData> >
_TEXT	ENDS
PUBLIC	?_Mynode@?$_Tree_unchecked_const_iterator@V?$_Tree_val@V?$_Tmap_traits@VioHashString@@UDamageData@DamageTable@@U?$less@VioHashString@@@std@@V?$allocator@U?$pair@$$CBVioHashString@@UDamageData@DamageTable@@@std@@@5@$0A@@std@@@std@@U_Iterator_base0@2@@std@@QBEPAU_Node@?$_Tree_nod@V?$_Tmap_traits@VioHashString@@UDamageData@DamageTable@@U?$less@VioHashString@@@std@@V?$allocator@U?$pair@$$CBVioHashString@@UDamageData@DamageTable@@@std@@@5@$0A@@std@@@2@XZ ; std::_Tree_unchecked_const_iterator<std::_Tree_val<std::_Tmap_traits<ioHashString,DamageTable::DamageData,std::less<ioHashString>,std::allocator<std::pair<ioHashString const ,DamageTable::DamageData> >,0> >,std::_Iterator_base0>::_Mynode
; Function compile flags: /Ogsp
; File c:\program files (x86)\microsoft visual studio 10.0\vc\include\xtree
;	COMDAT ?_Mynode@?$_Tree_unchecked_const_iterator@V?$_Tree_val@V?$_Tmap_traits@VioHashString@@UDamageData@DamageTable@@U?$less@VioHashString@@@std@@V?$allocator@U?$pair@$$CBVioHashString@@UDamageData@DamageTable@@@std@@@5@$0A@@std@@@std@@U_Iterator_base0@2@@std@@QBEPAU_Node@?$_Tree_nod@V?$_Tmap_traits@VioHashString@@UDamageData@DamageTable@@U?$less@VioHashString@@@std@@V?$allocator@U?$pair@$$CBVioHashString@@UDamageData@DamageTable@@@std@@@5@$0A@@std@@@2@XZ
_TEXT	SEGMENT
?_Mynode@?$_Tree_unchecked_const_iterator@V?$_Tree_val@V?$_Tmap_traits@VioHashString@@UDamageData@DamageTable@@U?$less@VioHashString@@@std@@V?$allocator@U?$pair@$$CBVioHashString@@UDamageData@DamageTable@@@std@@@5@$0A@@std@@@std@@U_Iterator_base0@2@@std@@QBEPAU_Node@?$_Tree_nod@V?$_Tmap_traits@VioHashString@@UDamageData@DamageTable@@U?$less@VioHashString@@@std@@V?$allocator@U?$pair@$$CBVioHashString@@UDamageData@DamageTable@@@std@@@5@$0A@@std@@@2@XZ PROC ; std::_Tree_unchecked_const_iterator<std::_Tree_val<std::_Tmap_traits<ioHashString,DamageTable::DamageData,std::less<ioHashString>,std::allocator<std::pair<ioHashString const ,DamageTable::DamageData> >,0> >,std::_Iterator_base0>::_Mynode, COMDAT
; _this$ = ecx

; 122  : 		return (_Ptr);

  00000	8b 01		 mov	 eax, DWORD PTR [ecx]

; 123  : 		}

  00002	c3		 ret	 0
?_Mynode@?$_Tree_unchecked_const_iterator@V?$_Tree_val@V?$_Tmap_traits@VioHashString@@UDamageData@DamageTable@@U?$less@VioHashString@@@std@@V?$allocator@U?$pair@$$CBVioHashString@@UDamageData@DamageTable@@@std@@@5@$0A@@std@@@std@@U_Iterator_base0@2@@std@@QBEPAU_Node@?$_Tree_nod@V?$_Tmap_traits@VioHashString@@UDamageData@DamageTable@@U?$less@VioHashString@@@std@@V?$allocator@U?$pair@$$CBVioHashString@@UDamageData@DamageTable@@@std@@@5@$0A@@std@@@2@XZ ENDP ; std::_Tree_unchecked_const_iterator<std::_Tree_val<std::_Tmap_traits<ioHashString,DamageTable::DamageData,std::less<ioHashString>,std::allocator<std::pair<ioHashString const ,DamageTable::DamageData> >,0> >,std::_Iterator_base0>::_Mynode
_TEXT	ENDS
PUBLIC	?_Isnil@?$_Tree_val@V?$_Tmap_traits@VioHashString@@UDamageData@DamageTable@@U?$less@VioHashString@@@std@@V?$allocator@U?$pair@$$CBVioHashString@@UDamageData@DamageTable@@@std@@@5@$0A@@std@@@std@@SAAADPAU_Node@?$_Tree_nod@V?$_Tmap_traits@VioHashString@@UDamageData@DamageTable@@U?$less@VioHashString@@@std@@V?$allocator@U?$pair@$$CBVioHashString@@UDamageData@DamageTable@@@std@@@5@$0A@@std@@@2@@Z ; std::_Tree_val<std::_Tmap_traits<ioHashString,DamageTable::DamageData,std::less<ioHashString>,std::allocator<std::pair<ioHashString const ,DamageTable::DamageData> >,0> >::_Isnil
; Function compile flags: /Ogsp
;	COMDAT ?_Isnil@?$_Tree_val@V?$_Tmap_traits@VioHashString@@UDamageData@DamageTable@@U?$less@VioHashString@@@std@@V?$allocator@U?$pair@$$CBVioHashString@@UDamageData@DamageTable@@@std@@@5@$0A@@std@@@std@@SAAADPAU_Node@?$_Tree_nod@V?$_Tmap_traits@VioHashString@@UDamageData@DamageTable@@U?$less@VioHashString@@@std@@V?$allocator@U?$pair@$$CBVioHashString@@UDamageData@DamageTable@@@std@@@5@$0A@@std@@@2@@Z
_TEXT	SEGMENT
__Pnode$ = 8						; size = 4
?_Isnil@?$_Tree_val@V?$_Tmap_traits@VioHashString@@UDamageData@DamageTable@@U?$less@VioHashString@@@std@@V?$allocator@U?$pair@$$CBVioHashString@@UDamageData@DamageTable@@@std@@@5@$0A@@std@@@std@@SAAADPAU_Node@?$_Tree_nod@V?$_Tmap_traits@VioHashString@@UDamageData@DamageTable@@U?$less@VioHashString@@@std@@V?$allocator@U?$pair@$$CBVioHashString@@UDamageData@DamageTable@@@std@@@5@$0A@@std@@@2@@Z PROC ; std::_Tree_val<std::_Tmap_traits<ioHashString,DamageTable::DamageData,std::less<ioHashString>,std::allocator<std::pair<ioHashString const ,DamageTable::DamageData> >,0> >::_Isnil, COMDAT

; 611  : 		{	// return reference to nil flag in node

  00000	55		 push	 ebp
  00001	8b ec		 mov	 ebp, esp

; 612  : 		return ((char&)(*_Pnode)._Isnil);

  00003	8b 45 08	 mov	 eax, DWORD PTR __Pnode$[ebp]
  00006	83 c0 25	 add	 eax, 37			; 00000025H

; 613  : 		}

  00009	5d		 pop	 ebp
  0000a	c3		 ret	 0
?_Isnil@?$_Tree_val@V?$_Tmap_traits@VioHashString@@UDamageData@DamageTable@@U?$less@VioHashString@@@std@@V?$allocator@U?$pair@$$CBVioHashString@@UDamageData@DamageTable@@@std@@@5@$0A@@std@@@std@@SAAADPAU_Node@?$_Tree_nod@V?$_Tmap_traits@VioHashString@@UDamageData@DamageTable@@U?$less@VioHashString@@@std@@V?$allocator@U?$pair@$$CBVioHashString@@UDamageData@DamageTable@@@std@@@5@$0A@@std@@@2@@Z ENDP ; std::_Tree_val<std::_Tmap_traits<ioHashString,DamageTable::DamageData,std::less<ioHashString>,std::allocator<std::pair<ioHashString const ,DamageTable::DamageData> >,0> >::_Isnil
_TEXT	ENDS
PUBLIC	?_Left@?$_Tree_val@V?$_Tmap_traits@VioHashString@@UDamageData@DamageTable@@U?$less@VioHashString@@@std@@V?$allocator@U?$pair@$$CBVioHashString@@UDamageData@DamageTable@@@std@@@5@$0A@@std@@@std@@SAAAPAU_Node@?$_Tree_nod@V?$_Tmap_traits@VioHashString@@UDamageData@DamageTable@@U?$less@VioHashString@@@std@@V?$allocator@U?$pair@$$CBVioHashString@@UDamageData@DamageTable@@@std@@@5@$0A@@std@@@2@PAU342@@Z ; std::_Tree_val<std::_Tmap_traits<ioHashString,DamageTable::DamageData,std::less<ioHashString>,std::allocator<std::pair<ioHashString const ,DamageTable::DamageData> >,0> >::_Left
; Function compile flags: /Ogsp
;	COMDAT ?_Left@?$_Tree_val@V?$_Tmap_traits@VioHashString@@UDamageData@DamageTable@@U?$less@VioHashString@@@std@@V?$allocator@U?$pair@$$CBVioHashString@@UDamageData@DamageTable@@@std@@@5@$0A@@std@@@std@@SAAAPAU_Node@?$_Tree_nod@V?$_Tmap_traits@VioHashString@@UDamageData@DamageTable@@U?$less@VioHashString@@@std@@V?$allocator@U?$pair@$$CBVioHashString@@UDamageData@DamageTable@@@std@@@5@$0A@@std@@@2@PAU342@@Z
_TEXT	SEGMENT
__Pnode$ = 8						; size = 4
?_Left@?$_Tree_val@V?$_Tmap_traits@VioHashString@@UDamageData@DamageTable@@U?$less@VioHashString@@@std@@V?$allocator@U?$pair@$$CBVioHashString@@UDamageData@DamageTable@@@std@@@5@$0A@@std@@@std@@SAAAPAU_Node@?$_Tree_nod@V?$_Tmap_traits@VioHashString@@UDamageData@DamageTable@@U?$less@VioHashString@@@std@@V?$allocator@U?$pair@$$CBVioHashString@@UDamageData@DamageTable@@@std@@@5@$0A@@std@@@2@PAU342@@Z PROC ; std::_Tree_val<std::_Tmap_traits<ioHashString,DamageTable::DamageData,std::less<ioHashString>,std::allocator<std::pair<ioHashString const ,DamageTable::DamageData> >,0> >::_Left, COMDAT

; 621  : 		{	// return reference to left pointer in node

  00000	55		 push	 ebp
  00001	8b ec		 mov	 ebp, esp

; 622  : 		return ((_Nodepref)(*_Pnode)._Left);

  00003	8b 45 08	 mov	 eax, DWORD PTR __Pnode$[ebp]

; 623  : 		}

  00006	5d		 pop	 ebp
  00007	c3		 ret	 0
?_Left@?$_Tree_val@V?$_Tmap_traits@VioHashString@@UDamageData@DamageTable@@U?$less@VioHashString@@@std@@V?$allocator@U?$pair@$$CBVioHashString@@UDamageData@DamageTable@@@std@@@5@$0A@@std@@@std@@SAAAPAU_Node@?$_Tree_nod@V?$_Tmap_traits@VioHashString@@UDamageData@DamageTable@@U?$less@VioHashString@@@std@@V?$allocator@U?$pair@$$CBVioHashString@@UDamageData@DamageTable@@@std@@@5@$0A@@std@@@2@PAU342@@Z ENDP ; std::_Tree_val<std::_Tmap_traits<ioHashString,DamageTable::DamageData,std::less<ioHashString>,std::allocator<std::pair<ioHashString const ,DamageTable::DamageData> >,0> >::_Left
_TEXT	ENDS
PUBLIC	?_Parent@?$_Tree_val@V?$_Tmap_traits@VioHashString@@UDamageData@DamageTable@@U?$less@VioHashString@@@std@@V?$allocator@U?$pair@$$CBVioHashString@@UDamageData@DamageTable@@@std@@@5@$0A@@std@@@std@@SAAAPAU_Node@?$_Tree_nod@V?$_Tmap_traits@VioHashString@@UDamageData@DamageTable@@U?$less@VioHashString@@@std@@V?$allocator@U?$pair@$$CBVioHashString@@UDamageData@DamageTable@@@std@@@5@$0A@@std@@@2@PAU342@@Z ; std::_Tree_val<std::_Tmap_traits<ioHashString,DamageTable::DamageData,std::less<ioHashString>,std::allocator<std::pair<ioHashString const ,DamageTable::DamageData> >,0> >::_Parent
; Function compile flags: /Ogsp
;	COMDAT ?_Parent@?$_Tree_val@V?$_Tmap_traits@VioHashString@@UDamageData@DamageTable@@U?$less@VioHashString@@@std@@V?$allocator@U?$pair@$$CBVioHashString@@UDamageData@DamageTable@@@std@@@5@$0A@@std@@@std@@SAAAPAU_Node@?$_Tree_nod@V?$_Tmap_traits@VioHashString@@UDamageData@DamageTable@@U?$less@VioHashString@@@std@@V?$allocator@U?$pair@$$CBVioHashString@@UDamageData@DamageTable@@@std@@@5@$0A@@std@@@2@PAU342@@Z
_TEXT	SEGMENT
__Pnode$ = 8						; size = 4
?_Parent@?$_Tree_val@V?$_Tmap_traits@VioHashString@@UDamageData@DamageTable@@U?$less@VioHashString@@@std@@V?$allocator@U?$pair@$$CBVioHashString@@UDamageData@DamageTable@@@std@@@5@$0A@@std@@@std@@SAAAPAU_Node@?$_Tree_nod@V?$_Tmap_traits@VioHashString@@UDamageData@DamageTable@@U?$less@VioHashString@@@std@@V?$allocator@U?$pair@$$CBVioHashString@@UDamageData@DamageTable@@@std@@@5@$0A@@std@@@2@PAU342@@Z PROC ; std::_Tree_val<std::_Tmap_traits<ioHashString,DamageTable::DamageData,std::less<ioHashString>,std::allocator<std::pair<ioHashString const ,DamageTable::DamageData> >,0> >::_Parent, COMDAT

; 626  : 		{	// return reference to parent pointer in node

  00000	55		 push	 ebp
  00001	8b ec		 mov	 ebp, esp

; 627  : 		return ((_Nodepref)(*_Pnode)._Parent);

  00003	8b 45 08	 mov	 eax, DWORD PTR __Pnode$[ebp]
  00006	83 c0 04	 add	 eax, 4

; 628  : 		}

  00009	5d		 pop	 ebp
  0000a	c3		 ret	 0
?_Parent@?$_Tree_val@V?$_Tmap_traits@VioHashString@@UDamageData@DamageTable@@U?$less@VioHashString@@@std@@V?$allocator@U?$pair@$$CBVioHashString@@UDamageData@DamageTable@@@std@@@5@$0A@@std@@@std@@SAAAPAU_Node@?$_Tree_nod@V?$_Tmap_traits@VioHashString@@UDamageData@DamageTable@@U?$less@VioHashString@@@std@@V?$allocator@U?$pair@$$CBVioHashString@@UDamageData@DamageTable@@@std@@@5@$0A@@std@@@2@PAU342@@Z ENDP ; std::_Tree_val<std::_Tmap_traits<ioHashString,DamageTable::DamageData,std::less<ioHashString>,std::allocator<std::pair<ioHashString const ,DamageTable::DamageData> >,0> >::_Parent
_TEXT	ENDS
PUBLIC	?_Right@?$_Tree_val@V?$_Tmap_traits@VioHashString@@UDamageData@DamageTable@@U?$less@VioHashString@@@std@@V?$allocator@U?$pair@$$CBVioHashString@@UDamageData@DamageTable@@@std@@@5@$0A@@std@@@std@@SAAAPAU_Node@?$_Tree_nod@V?$_Tmap_traits@VioHashString@@UDamageData@DamageTable@@U?$less@VioHashString@@@std@@V?$allocator@U?$pair@$$CBVioHashString@@UDamageData@DamageTable@@@std@@@5@$0A@@std@@@2@PAU342@@Z ; std::_Tree_val<std::_Tmap_traits<ioHashString,DamageTable::DamageData,std::less<ioHashString>,std::allocator<std::pair<ioHashString const ,DamageTable::DamageData> >,0> >::_Right
; Function compile flags: /Ogsp
;	COMDAT ?_Right@?$_Tree_val@V?$_Tmap_traits@VioHashString@@UDamageData@DamageTable@@U?$less@VioHashString@@@std@@V?$allocator@U?$pair@$$CBVioHashString@@UDamageData@DamageTable@@@std@@@5@$0A@@std@@@std@@SAAAPAU_Node@?$_Tree_nod@V?$_Tmap_traits@VioHashString@@UDamageData@DamageTable@@U?$less@VioHashString@@@std@@V?$allocator@U?$pair@$$CBVioHashString@@UDamageData@DamageTable@@@std@@@5@$0A@@std@@@2@PAU342@@Z
_TEXT	SEGMENT
__Pnode$ = 8						; size = 4
?_Right@?$_Tree_val@V?$_Tmap_traits@VioHashString@@UDamageData@DamageTable@@U?$less@VioHashString@@@std@@V?$allocator@U?$pair@$$CBVioHashString@@UDamageData@DamageTable@@@std@@@5@$0A@@std@@@std@@SAAAPAU_Node@?$_Tree_nod@V?$_Tmap_traits@VioHashString@@UDamageData@DamageTable@@U?$less@VioHashString@@@std@@V?$allocator@U?$pair@$$CBVioHashString@@UDamageData@DamageTable@@@std@@@5@$0A@@std@@@2@PAU342@@Z PROC ; std::_Tree_val<std::_Tmap_traits<ioHashString,DamageTable::DamageData,std::less<ioHashString>,std::allocator<std::pair<ioHashString const ,DamageTable::DamageData> >,0> >::_Right, COMDAT

; 631  : 		{	// return reference to right pointer in node

  00000	55		 push	 ebp
  00001	8b ec		 mov	 ebp, esp

; 632  : 		return ((_Nodepref)(*_Pnode)._Right);

  00003	8b 45 08	 mov	 eax, DWORD PTR __Pnode$[ebp]
  00006	83 c0 08	 add	 eax, 8

; 633  : 		}

  00009	5d		 pop	 ebp
  0000a	c3		 ret	 0
?_Right@?$_Tree_val@V?$_Tmap_traits@VioHashString@@UDamageData@DamageTable@@U?$less@VioHashString@@@std@@V?$allocator@U?$pair@$$CBVioHashString@@UDamageData@DamageTable@@@std@@@5@$0A@@std@@@std@@SAAAPAU_Node@?$_Tree_nod@V?$_Tmap_traits@VioHashString@@UDamageData@DamageTable@@U?$less@VioHashString@@@std@@V?$allocator@U?$pair@$$CBVioHashString@@UDamageData@DamageTable@@@std@@@5@$0A@@std@@@2@PAU342@@Z ENDP ; std::_Tree_val<std::_Tmap_traits<ioHashString,DamageTable::DamageData,std::less<ioHashString>,std::allocator<std::pair<ioHashString const ,DamageTable::DamageData> >,0> >::_Right
_TEXT	ENDS
PUBLIC	?_Myval@?$_Tree_val@V?$_Tmap_traits@VioHashString@@UDamageData@DamageTable@@U?$less@VioHashString@@@std@@V?$allocator@U?$pair@$$CBVioHashString@@UDamageData@DamageTable@@@std@@@5@$0A@@std@@@std@@SAAAU?$pair@$$CBVioHashString@@UDamageData@DamageTable@@@2@PAU_Node@?$_Tree_nod@V?$_Tmap_traits@VioHashString@@UDamageData@DamageTable@@U?$less@VioHashString@@@std@@V?$allocator@U?$pair@$$CBVioHashString@@UDamageData@DamageTable@@@std@@@5@$0A@@std@@@2@@Z ; std::_Tree_val<std::_Tmap_traits<ioHashString,DamageTable::DamageData,std::less<ioHashString>,std::allocator<std::pair<ioHashString const ,DamageTable::DamageData> >,0> >::_Myval
; Function compile flags: /Ogsp
;	COMDAT ?_Myval@?$_Tree_val@V?$_Tmap_traits@VioHashString@@UDamageData@DamageTable@@U?$less@VioHashString@@@std@@V?$allocator@U?$pair@$$CBVioHashString@@UDamageData@DamageTable@@@std@@@5@$0A@@std@@@std@@SAAAU?$pair@$$CBVioHashString@@UDamageData@DamageTable@@@2@PAU_Node@?$_Tree_nod@V?$_Tmap_traits@VioHashString@@UDamageData@DamageTable@@U?$less@VioHashString@@@std@@V?$allocator@U?$pair@$$CBVioHashString@@UDamageData@DamageTable@@@std@@@5@$0A@@std@@@2@@Z
_TEXT	SEGMENT
__Pnode$ = 8						; size = 4
?_Myval@?$_Tree_val@V?$_Tmap_traits@VioHashString@@UDamageData@DamageTable@@U?$less@VioHashString@@@std@@V?$allocator@U?$pair@$$CBVioHashString@@UDamageData@DamageTable@@@std@@@5@$0A@@std@@@std@@SAAAU?$pair@$$CBVioHashString@@UDamageData@DamageTable@@@2@PAU_Node@?$_Tree_nod@V?$_Tmap_traits@VioHashString@@UDamageData@DamageTable@@U?$less@VioHashString@@@std@@V?$allocator@U?$pair@$$CBVioHashString@@UDamageData@DamageTable@@@std@@@5@$0A@@std@@@2@@Z PROC ; std::_Tree_val<std::_Tmap_traits<ioHashString,DamageTable::DamageData,std::less<ioHashString>,std::allocator<std::pair<ioHashString const ,DamageTable::DamageData> >,0> >::_Myval, COMDAT

; 636  : 		{	// return reference to value in node

  00000	55		 push	 ebp
  00001	8b ec		 mov	 ebp, esp

; 637  : 		return ((reference)(*_Pnode)._Myval);

  00003	8b 45 08	 mov	 eax, DWORD PTR __Pnode$[ebp]
  00006	83 c0 0c	 add	 eax, 12			; 0000000cH

; 638  : 		}

  00009	5d		 pop	 ebp
  0000a	c3		 ret	 0
?_Myval@?$_Tree_val@V?$_Tmap_traits@VioHashString@@UDamageData@DamageTable@@U?$less@VioHashString@@@std@@V?$allocator@U?$pair@$$CBVioHashString@@UDamageData@DamageTable@@@std@@@5@$0A@@std@@@std@@SAAAU?$pair@$$CBVioHashString@@UDamageData@DamageTable@@@2@PAU_Node@?$_Tree_nod@V?$_Tmap_traits@VioHashString@@UDamageData@DamageTable@@U?$less@VioHashString@@@std@@V?$allocator@U?$pair@$$CBVioHashString@@UDamageData@DamageTable@@@std@@@5@$0A@@std@@@2@@Z ENDP ; std::_Tree_val<std::_Tmap_traits<ioHashString,DamageTable::DamageData,std::less<ioHashString>,std::allocator<std::pair<ioHashString const ,DamageTable::DamageData> >,0> >::_Myval
_TEXT	ENDS
PUBLIC	??0?$allocator@U?$pair@$$CBVioHashString@@UDamageData@DamageTable@@@std@@@std@@QAE@ABV01@@Z ; std::allocator<std::pair<ioHashString const ,DamageTable::DamageData> >::allocator<std::pair<ioHashString const ,DamageTable::DamageData> >
; Function compile flags: /Ogsp
; File c:\program files (x86)\microsoft visual studio 10.0\vc\include\xmemory
;	COMDAT ??0?$allocator@U?$pair@$$CBVioHashString@@UDamageData@DamageTable@@@std@@@std@@QAE@ABV01@@Z
_TEXT	SEGMENT
___formal$ = 8						; size = 4
??0?$allocator@U?$pair@$$CBVioHashString@@UDamageData@DamageTable@@@std@@@std@@QAE@ABV01@@Z PROC ; std::allocator<std::pair<ioHashString const ,DamageTable::DamageData> >::allocator<std::pair<ioHashString const ,DamageTable::DamageData> >, COMDAT
; _this$ = ecx

; 165  : 	_ALLOCATOR(const _ALLOCATOR<_Ty>&) _THROW0()

  00000	8b c1		 mov	 eax, ecx

; 166  : 		{	// construct by copying (do nothing)
; 167  : 		}

  00002	c2 04 00	 ret	 4
??0?$allocator@U?$pair@$$CBVioHashString@@UDamageData@DamageTable@@@std@@@std@@QAE@ABV01@@Z ENDP ; std::allocator<std::pair<ioHashString const ,DamageTable::DamageData> >::allocator<std::pair<ioHashString const ,DamageTable::DamageData> >
_TEXT	ENDS
PUBLIC	?deallocate@?$allocator@U_Node@?$_Tree_nod@V?$_Tmap_traits@VioHashString@@UDamageData@DamageTable@@U?$less@VioHashString@@@std@@V?$allocator@U?$pair@$$CBVioHashString@@UDamageData@DamageTable@@@std@@@5@$0A@@std@@@std@@@std@@QAEXPAU_Node@?$_Tree_nod@V?$_Tmap_traits@VioHashString@@UDamageData@DamageTable@@U?$less@VioHashString@@@std@@V?$allocator@U?$pair@$$CBVioHashString@@UDamageData@DamageTable@@@std@@@5@$0A@@std@@@2@I@Z ; std::allocator<std::_Tree_nod<std::_Tmap_traits<ioHashString,DamageTable::DamageData,std::less<ioHashString>,std::allocator<std::pair<ioHashString const ,DamageTable::DamageData> >,0> >::_Node>::deallocate
EXTRN	??3@YAXPAX@Z:PROC				; operator delete
; Function compile flags: /Ogsp
;	COMDAT ?deallocate@?$allocator@U_Node@?$_Tree_nod@V?$_Tmap_traits@VioHashString@@UDamageData@DamageTable@@U?$less@VioHashString@@@std@@V?$allocator@U?$pair@$$CBVioHashString@@UDamageData@DamageTable@@@std@@@5@$0A@@std@@@std@@@std@@QAEXPAU_Node@?$_Tree_nod@V?$_Tmap_traits@VioHashString@@UDamageData@DamageTable@@U?$less@VioHashString@@@std@@V?$allocator@U?$pair@$$CBVioHashString@@UDamageData@DamageTable@@@std@@@5@$0A@@std@@@2@I@Z
_TEXT	SEGMENT
__Ptr$ = 8						; size = 4
___formal$ = 12						; size = 4
?deallocate@?$allocator@U_Node@?$_Tree_nod@V?$_Tmap_traits@VioHashString@@UDamageData@DamageTable@@U?$less@VioHashString@@@std@@V?$allocator@U?$pair@$$CBVioHashString@@UDamageData@DamageTable@@@std@@@5@$0A@@std@@@std@@@std@@QAEXPAU_Node@?$_Tree_nod@V?$_Tmap_traits@VioHashString@@UDamageData@DamageTable@@U?$less@VioHashString@@@std@@V?$allocator@U?$pair@$$CBVioHashString@@UDamageData@DamageTable@@@std@@@5@$0A@@std@@@2@I@Z PROC ; std::allocator<std::_Tree_nod<std::_Tmap_traits<ioHashString,DamageTable::DamageData,std::less<ioHashString>,std::allocator<std::pair<ioHashString const ,DamageTable::DamageData> >,0> >::_Node>::deallocate, COMDAT
; _this$ = ecx

; 181  : 		{	// deallocate object at _Ptr, ignore size

  00000	55		 push	 ebp
  00001	8b ec		 mov	 ebp, esp

; 182  : 		::operator delete(_Ptr);

  00003	ff 75 08	 push	 DWORD PTR __Ptr$[ebp]
  00006	e8 00 00 00 00	 call	 ??3@YAXPAX@Z		; operator delete
  0000b	59		 pop	 ecx

; 183  : 		}

  0000c	5d		 pop	 ebp
  0000d	c2 08 00	 ret	 8
?deallocate@?$allocator@U_Node@?$_Tree_nod@V?$_Tmap_traits@VioHashString@@UDamageData@DamageTable@@U?$less@VioHashString@@@std@@V?$allocator@U?$pair@$$CBVioHashString@@UDamageData@DamageTable@@@std@@@5@$0A@@std@@@std@@@std@@QAEXPAU_Node@?$_Tree_nod@V?$_Tmap_traits@VioHashString@@UDamageData@DamageTable@@U?$less@VioHashString@@@std@@V?$allocator@U?$pair@$$CBVioHashString@@UDamageData@DamageTable@@@std@@@5@$0A@@std@@@2@I@Z ENDP ; std::allocator<std::_Tree_nod<std::_Tmap_traits<ioHashString,DamageTable::DamageData,std::less<ioHashString>,std::allocator<std::pair<ioHashString const ,DamageTable::DamageData> >,0> >::_Node>::deallocate
_TEXT	ENDS
PUBLIC	??D?$_Tree_const_iterator@V?$_Tree_val@V?$_Tmap_traits@VioHashString@@UDamageData@DamageTable@@U?$less@VioHashString@@@std@@V?$allocator@U?$pair@$$CBVioHashString@@UDamageData@DamageTable@@@std@@@5@$0A@@std@@@std@@@std@@QBEABU?$pair@$$CBVioHashString@@UDamageData@DamageTable@@@1@XZ ; std::_Tree_const_iterator<std::_Tree_val<std::_Tmap_traits<ioHashString,DamageTable::DamageData,std::less<ioHashString>,std::allocator<std::pair<ioHashString const ,DamageTable::DamageData> >,0> > >::operator*
; Function compile flags: /Ogsp
; File c:\program files (x86)\microsoft visual studio 10.0\vc\include\xtree
;	COMDAT ??D?$_Tree_const_iterator@V?$_Tree_val@V?$_Tmap_traits@VioHashString@@UDamageData@DamageTable@@U?$less@VioHashString@@@std@@V?$allocator@U?$pair@$$CBVioHashString@@UDamageData@DamageTable@@@std@@@5@$0A@@std@@@std@@@std@@QBEABU?$pair@$$CBVioHashString@@UDamageData@DamageTable@@@1@XZ
_TEXT	SEGMENT
??D?$_Tree_const_iterator@V?$_Tree_val@V?$_Tmap_traits@VioHashString@@UDamageData@DamageTable@@U?$less@VioHashString@@@std@@V?$allocator@U?$pair@$$CBVioHashString@@UDamageData@DamageTable@@@std@@@5@$0A@@std@@@std@@@std@@QBEABU?$pair@$$CBVioHashString@@UDamageData@DamageTable@@@1@XZ PROC ; std::_Tree_const_iterator<std::_Tree_val<std::_Tmap_traits<ioHashString,DamageTable::DamageData,std::less<ioHashString>,std::allocator<std::pair<ioHashString const ,DamageTable::DamageData> >,0> > >::operator*, COMDAT
; _this$ = ecx

; 231  :  #if _ITERATOR_DEBUG_LEVEL == 2
; 232  : 		if (this->_Getcont() == 0
; 233  : 			|| this->_Ptr == 0
; 234  : 			|| this->_Ptr == ((_Mytree *)this->_Getcont())->_Myhead)
; 235  : 			{	// report error
; 236  : 			_DEBUG_ERROR("map/set iterator not dereferencable");
; 237  : 			_SCL_SECURE_OUT_OF_RANGE;
; 238  : 			}
; 239  : 
; 240  :  #elif _ITERATOR_DEBUG_LEVEL == 1
; 241  : 		_SCL_SECURE_VALIDATE(this->_Getcont() != 0 && this->_Ptr != 0);
; 242  : 		_SCL_SECURE_VALIDATE_RANGE(this->_Ptr !=
; 243  : 			((_Mytree *)this->_Getcont())->_Myhead);
; 244  :  #endif /* _ITERATOR_DEBUG_LEVEL */
; 245  : 
; 246  : 		return (_Mytree::_Myval(this->_Ptr));

  00000	8b 01		 mov	 eax, DWORD PTR [ecx]
  00002	83 c0 0c	 add	 eax, 12			; 0000000cH

; 247  : 		}

  00005	c3		 ret	 0
??D?$_Tree_const_iterator@V?$_Tree_val@V?$_Tmap_traits@VioHashString@@UDamageData@DamageTable@@U?$less@VioHashString@@@std@@V?$allocator@U?$pair@$$CBVioHashString@@UDamageData@DamageTable@@@std@@@5@$0A@@std@@@std@@@std@@QBEABU?$pair@$$CBVioHashString@@UDamageData@DamageTable@@@1@XZ ENDP ; std::_Tree_const_iterator<std::_Tree_val<std::_Tmap_traits<ioHashString,DamageTable::DamageData,std::less<ioHashString>,std::allocator<std::pair<ioHashString const ,DamageTable::DamageData> >,0> > >::operator*
_TEXT	ENDS
PUBLIC	??0?$_Tree_unchecked_const_iterator@V?$_Tree_val@V?$_Tmap_traits@VioHashString@@UDamageData@DamageTable@@U?$less@VioHashString@@@std@@V?$allocator@U?$pair@$$CBVioHashString@@UDamageData@DamageTable@@@std@@@5@$0A@@std@@@std@@U_Iterator_base0@2@@std@@QAE@XZ ; std::_Tree_unchecked_const_iterator<std::_Tree_val<std::_Tmap_traits<ioHashString,DamageTable::DamageData,std::less<ioHashString>,std::allocator<std::pair<ioHashString const ,DamageTable::DamageData> >,0> >,std::_Iterator_base0>::_Tree_unchecked_const_iterator<std::_Tree_val<std::_Tmap_traits<ioHashString,DamageTable::DamageData,std::less<ioHashString>,std::allocator<std::pair<ioHashString const ,DamageTable::DamageData> >,0> >,std::_Iterator_base0>
; Function compile flags: /Ogsp
;	COMDAT ??0?$_Tree_unchecked_const_iterator@V?$_Tree_val@V?$_Tmap_traits@VioHashString@@UDamageData@DamageTable@@U?$less@VioHashString@@@std@@V?$allocator@U?$pair@$$CBVioHashString@@UDamageData@DamageTable@@@std@@@5@$0A@@std@@@std@@U_Iterator_base0@2@@std@@QAE@XZ
_TEXT	SEGMENT
??0?$_Tree_unchecked_const_iterator@V?$_Tree_val@V?$_Tmap_traits@VioHashString@@UDamageData@DamageTable@@U?$less@VioHashString@@@std@@V?$allocator@U?$pair@$$CBVioHashString@@UDamageData@DamageTable@@@std@@@5@$0A@@std@@@std@@U_Iterator_base0@2@@std@@QAE@XZ PROC ; std::_Tree_unchecked_const_iterator<std::_Tree_val<std::_Tmap_traits<ioHashString,DamageTable::DamageData,std::less<ioHashString>,std::allocator<std::pair<ioHashString const ,DamageTable::DamageData> >,0> >,std::_Iterator_base0>::_Tree_unchecked_const_iterator<std::_Tree_val<std::_Tmap_traits<ioHashString,DamageTable::DamageData,std::less<ioHashString>,std::allocator<std::pair<ioHashString const ,DamageTable::DamageData> >,0> >,std::_Iterator_base0>, COMDAT
; _this$ = ecx

; 38   : 		{	// construct with null node pointer

  00000	8b c1		 mov	 eax, ecx
  00002	83 20 00	 and	 DWORD PTR [eax], 0

; 39   : 		}

  00005	c3		 ret	 0
??0?$_Tree_unchecked_const_iterator@V?$_Tree_val@V?$_Tmap_traits@VioHashString@@UDamageData@DamageTable@@U?$less@VioHashString@@@std@@V?$allocator@U?$pair@$$CBVioHashString@@UDamageData@DamageTable@@@std@@@5@$0A@@std@@@std@@U_Iterator_base0@2@@std@@QAE@XZ ENDP ; std::_Tree_unchecked_const_iterator<std::_Tree_val<std::_Tmap_traits<ioHashString,DamageTable::DamageData,std::less<ioHashString>,std::allocator<std::pair<ioHashString const ,DamageTable::DamageData> >,0> >,std::_Iterator_base0>::_Tree_unchecked_const_iterator<std::_Tree_val<std::_Tmap_traits<ioHashString,DamageTable::DamageData,std::less<ioHashString>,std::allocator<std::pair<ioHashString const ,DamageTable::DamageData> >,0> >,std::_Iterator_base0>
_TEXT	ENDS
PUBLIC	??_7bad_alloc@std@@6B@				; std::bad_alloc::`vftable'
PUBLIC	??0bad_alloc@std@@QAE@PBD@Z			; std::bad_alloc::bad_alloc
PUBLIC	??_R4bad_alloc@std@@6B@				; std::bad_alloc::`RTTI Complete Object Locator'
PUBLIC	??_R0?AVbad_alloc@std@@@8			; std::bad_alloc `RTTI Type Descriptor'
PUBLIC	??_R3bad_alloc@std@@8				; std::bad_alloc::`RTTI Class Hierarchy Descriptor'
PUBLIC	??_R2bad_alloc@std@@8				; std::bad_alloc::`RTTI Base Class Array'
PUBLIC	??_R1A@?0A@EA@bad_alloc@std@@8			; std::bad_alloc::`RTTI Base Class Descriptor at (0,-1,0,64)'
PUBLIC	??_R1A@?0A@EA@exception@std@@8			; std::exception::`RTTI Base Class Descriptor at (0,-1,0,64)'
PUBLIC	??_R0?AVexception@std@@@8			; std::exception `RTTI Type Descriptor'
PUBLIC	??_R3exception@std@@8				; std::exception::`RTTI Class Hierarchy Descriptor'
PUBLIC	??_R2exception@std@@8				; std::exception::`RTTI Base Class Array'
EXTRN	__imp_??0exception@std@@QAE@ABQBD@Z:PROC
EXTRN	??_7type_info@@6B@:QWORD			; type_info::`vftable'
EXTRN	??_Ebad_alloc@std@@UAEPAXI@Z:PROC		; std::bad_alloc::`vector deleting destructor'
EXTRN	?what@exception@std@@UBEPBDXZ:PROC		; std::exception::what
;	COMDAT ??_R2exception@std@@8
; File c:\program files (x86)\microsoft visual studio 10.0\vc\include\exception
rdata$r	SEGMENT
??_R2exception@std@@8 DD FLAT:??_R1A@?0A@EA@exception@std@@8 ; std::exception::`RTTI Base Class Array'
rdata$r	ENDS
;	COMDAT ??_R3exception@std@@8
rdata$r	SEGMENT
??_R3exception@std@@8 DD 00H				; std::exception::`RTTI Class Hierarchy Descriptor'
	DD	00H
	DD	01H
	DD	FLAT:??_R2exception@std@@8
rdata$r	ENDS
;	COMDAT ??_R0?AVexception@std@@@8
_DATA	SEGMENT
??_R0?AVexception@std@@@8 DD FLAT:??_7type_info@@6B@	; std::exception `RTTI Type Descriptor'
	DD	00H
	DB	'.?AVexception@std@@', 00H
_DATA	ENDS
;	COMDAT ??_R1A@?0A@EA@exception@std@@8
rdata$r	SEGMENT
??_R1A@?0A@EA@exception@std@@8 DD FLAT:??_R0?AVexception@std@@@8 ; std::exception::`RTTI Base Class Descriptor at (0,-1,0,64)'
	DD	00H
	DD	00H
	DD	0ffffffffH
	DD	00H
	DD	040H
	DD	FLAT:??_R3exception@std@@8
rdata$r	ENDS
;	COMDAT ??_R1A@?0A@EA@bad_alloc@std@@8
rdata$r	SEGMENT
??_R1A@?0A@EA@bad_alloc@std@@8 DD FLAT:??_R0?AVbad_alloc@std@@@8 ; std::bad_alloc::`RTTI Base Class Descriptor at (0,-1,0,64)'
	DD	01H
	DD	00H
	DD	0ffffffffH
	DD	00H
	DD	040H
	DD	FLAT:??_R3bad_alloc@std@@8
rdata$r	ENDS
;	COMDAT ??_R2bad_alloc@std@@8
rdata$r	SEGMENT
??_R2bad_alloc@std@@8 DD FLAT:??_R1A@?0A@EA@bad_alloc@std@@8 ; std::bad_alloc::`RTTI Base Class Array'
	DD	FLAT:??_R1A@?0A@EA@exception@std@@8
rdata$r	ENDS
;	COMDAT ??_R3bad_alloc@std@@8
rdata$r	SEGMENT
??_R3bad_alloc@std@@8 DD 00H				; std::bad_alloc::`RTTI Class Hierarchy Descriptor'
	DD	00H
	DD	02H
	DD	FLAT:??_R2bad_alloc@std@@8
rdata$r	ENDS
;	COMDAT ??_R0?AVbad_alloc@std@@@8
_DATA	SEGMENT
??_R0?AVbad_alloc@std@@@8 DD FLAT:??_7type_info@@6B@	; std::bad_alloc `RTTI Type Descriptor'
	DD	00H
	DB	'.?AVbad_alloc@std@@', 00H
_DATA	ENDS
;	COMDAT ??_R4bad_alloc@std@@6B@
rdata$r	SEGMENT
??_R4bad_alloc@std@@6B@ DD 00H				; std::bad_alloc::`RTTI Complete Object Locator'
	DD	00H
	DD	00H
	DD	FLAT:??_R0?AVbad_alloc@std@@@8
	DD	FLAT:??_R3bad_alloc@std@@8
rdata$r	ENDS
;	COMDAT ??_7bad_alloc@std@@6B@
CONST	SEGMENT
??_7bad_alloc@std@@6B@ DD FLAT:??_R4bad_alloc@std@@6B@	; std::bad_alloc::`vftable'
	DD	FLAT:??_Ebad_alloc@std@@UAEPAXI@Z
	DD	FLAT:?what@exception@std@@UBEPBDXZ
; Function compile flags: /Ogsp
CONST	ENDS
;	COMDAT ??0bad_alloc@std@@QAE@PBD@Z
_TEXT	SEGMENT
__Message$ = 8						; size = 4
??0bad_alloc@std@@QAE@PBD@Z PROC			; std::bad_alloc::bad_alloc, COMDAT
; _this$ = ecx

; 345  : 		{	// construct from message string

  00000	55		 push	 ebp
  00001	8b ec		 mov	 ebp, esp
  00003	56		 push	 esi
  00004	8d 45 08	 lea	 eax, DWORD PTR __Message$[ebp]
  00007	50		 push	 eax
  00008	8b f1		 mov	 esi, ecx
  0000a	ff 15 00 00 00
	00		 call	 DWORD PTR __imp_??0exception@std@@QAE@ABQBD@Z
  00010	c7 06 00 00 00
	00		 mov	 DWORD PTR [esi], OFFSET ??_7bad_alloc@std@@6B@

; 346  : 		}

  00016	8b c6		 mov	 eax, esi
  00018	5e		 pop	 esi
  00019	5d		 pop	 ebp
  0001a	c2 04 00	 ret	 4
??0bad_alloc@std@@QAE@PBD@Z ENDP			; std::bad_alloc::bad_alloc
_TEXT	ENDS
PUBLIC	??1bad_alloc@std@@UAE@XZ			; std::bad_alloc::~bad_alloc
EXTRN	__imp_??1exception@std@@UAE@XZ:PROC
; Function compile flags: /Ogsp
;	COMDAT ??1bad_alloc@std@@UAE@XZ
_TEXT	SEGMENT
??1bad_alloc@std@@UAE@XZ PROC				; std::bad_alloc::~bad_alloc, COMDAT
; _this$ = ecx

; 354  : 		{	// destroy the object

  00000	c7 01 00 00 00
	00		 mov	 DWORD PTR [ecx], OFFSET ??_7bad_alloc@std@@6B@

; 355  : 		}

  00006	ff 25 00 00 00
	00		 jmp	 DWORD PTR __imp_??1exception@std@@UAE@XZ
??1bad_alloc@std@@UAE@XZ ENDP				; std::bad_alloc::~bad_alloc
; Function compile flags: /Ogsp
_TEXT	ENDS
;	COMDAT ??_Gbad_alloc@std@@UAEPAXI@Z
_TEXT	SEGMENT
___flags$ = 8						; size = 4
??_Gbad_alloc@std@@UAEPAXI@Z PROC			; std::bad_alloc::`scalar deleting destructor', COMDAT
; _this$ = ecx
  00000	55		 push	 ebp
  00001	8b ec		 mov	 ebp, esp
  00003	56		 push	 esi
  00004	8b f1		 mov	 esi, ecx
  00006	c7 06 00 00 00
	00		 mov	 DWORD PTR [esi], OFFSET ??_7bad_alloc@std@@6B@
  0000c	ff 15 00 00 00
	00		 call	 DWORD PTR __imp_??1exception@std@@UAE@XZ
  00012	f6 45 08 01	 test	 BYTE PTR ___flags$[ebp], 1
  00016	74 07		 je	 SHORT $LN1@scalar
  00018	56		 push	 esi
  00019	e8 00 00 00 00	 call	 ??3@YAXPAX@Z		; operator delete
  0001e	59		 pop	 ecx
$LN1@scalar:
  0001f	8b c6		 mov	 eax, esi
  00021	5e		 pop	 esi
  00022	5d		 pop	 ebp
  00023	c2 04 00	 ret	 4
??_Gbad_alloc@std@@UAEPAXI@Z ENDP			; std::bad_alloc::`scalar deleting destructor'
_TEXT	ENDS
PUBLIC	?_Color@?$_Tree_val@V?$_Tmap_traits@VioHashString@@UDamageData@DamageTable@@U?$less@VioHashString@@@std@@V?$allocator@U?$pair@$$CBVioHashString@@UDamageData@DamageTable@@@std@@@5@$0A@@std@@@std@@SAAADPAU_Node@?$_Tree_nod@V?$_Tmap_traits@VioHashString@@UDamageData@DamageTable@@U?$less@VioHashString@@@std@@V?$allocator@U?$pair@$$CBVioHashString@@UDamageData@DamageTable@@@std@@@5@$0A@@std@@@2@@Z ; std::_Tree_val<std::_Tmap_traits<ioHashString,DamageTable::DamageData,std::less<ioHashString>,std::allocator<std::pair<ioHashString const ,DamageTable::DamageData> >,0> >::_Color
; Function compile flags: /Ogsp
; File c:\program files (x86)\microsoft visual studio 10.0\vc\include\xtree
;	COMDAT ?_Color@?$_Tree_val@V?$_Tmap_traits@VioHashString@@UDamageData@DamageTable@@U?$less@VioHashString@@@std@@V?$allocator@U?$pair@$$CBVioHashString@@UDamageData@DamageTable@@@std@@@5@$0A@@std@@@std@@SAAADPAU_Node@?$_Tree_nod@V?$_Tmap_traits@VioHashString@@UDamageData@DamageTable@@U?$less@VioHashString@@@std@@V?$allocator@U?$pair@$$CBVioHashString@@UDamageData@DamageTable@@@std@@@5@$0A@@std@@@2@@Z
_TEXT	SEGMENT
__Pnode$ = 8						; size = 4
?_Color@?$_Tree_val@V?$_Tmap_traits@VioHashString@@UDamageData@DamageTable@@U?$less@VioHashString@@@std@@V?$allocator@U?$pair@$$CBVioHashString@@UDamageData@DamageTable@@@std@@@5@$0A@@std@@@std@@SAAADPAU_Node@?$_Tree_nod@V?$_Tmap_traits@VioHashString@@UDamageData@DamageTable@@U?$less@VioHashString@@@std@@V?$allocator@U?$pair@$$CBVioHashString@@UDamageData@DamageTable@@@std@@@5@$0A@@std@@@2@@Z PROC ; std::_Tree_val<std::_Tmap_traits<ioHashString,DamageTable::DamageData,std::less<ioHashString>,std::allocator<std::pair<ioHashString const ,DamageTable::DamageData> >,0> >::_Color, COMDAT

; 606  : 		{	// return reference to color in node

  00000	55		 push	 ebp
  00001	8b ec		 mov	 ebp, esp

; 607  : 		return ((char&)(*_Pnode)._Color);

  00003	8b 45 08	 mov	 eax, DWORD PTR __Pnode$[ebp]
  00006	83 c0 24	 add	 eax, 36			; 00000024H

; 608  : 		}

  00009	5d		 pop	 ebp
  0000a	c3		 ret	 0
?_Color@?$_Tree_val@V?$_Tmap_traits@VioHashString@@UDamageData@DamageTable@@U?$less@VioHashString@@@std@@V?$allocator@U?$pair@$$CBVioHashString@@UDamageData@DamageTable@@@std@@@5@$0A@@std@@@std@@SAAADPAU_Node@?$_Tree_nod@V?$_Tmap_traits@VioHashString@@UDamageData@DamageTable@@U?$less@VioHashString@@@std@@V?$allocator@U?$pair@$$CBVioHashString@@UDamageData@DamageTable@@@std@@@5@$0A@@std@@@2@@Z ENDP ; std::_Tree_val<std::_Tmap_traits<ioHashString,DamageTable::DamageData,std::less<ioHashString>,std::allocator<std::pair<ioHashString const ,DamageTable::DamageData> >,0> >::_Color
_TEXT	ENDS
PUBLIC	?_Min@?$_Tree_val@V?$_Tmap_traits@VioHashString@@UDamageData@DamageTable@@U?$less@VioHashString@@@std@@V?$allocator@U?$pair@$$CBVioHashString@@UDamageData@DamageTable@@@std@@@5@$0A@@std@@@std@@SAPAU_Node@?$_Tree_nod@V?$_Tmap_traits@VioHashString@@UDamageData@DamageTable@@U?$less@VioHashString@@@std@@V?$allocator@U?$pair@$$CBVioHashString@@UDamageData@DamageTable@@@std@@@5@$0A@@std@@@2@PAU342@@Z ; std::_Tree_val<std::_Tmap_traits<ioHashString,DamageTable::DamageData,std::less<ioHashString>,std::allocator<std::pair<ioHashString const ,DamageTable::DamageData> >,0> >::_Min
; Function compile flags: /Ogsp
;	COMDAT ?_Min@?$_Tree_val@V?$_Tmap_traits@VioHashString@@UDamageData@DamageTable@@U?$less@VioHashString@@@std@@V?$allocator@U?$pair@$$CBVioHashString@@UDamageData@DamageTable@@@std@@@5@$0A@@std@@@std@@SAPAU_Node@?$_Tree_nod@V?$_Tmap_traits@VioHashString@@UDamageData@DamageTable@@U?$less@VioHashString@@@std@@V?$allocator@U?$pair@$$CBVioHashString@@UDamageData@DamageTable@@@std@@@5@$0A@@std@@@2@PAU342@@Z
_TEXT	SEGMENT
__Pnode$ = 8						; size = 4
?_Min@?$_Tree_val@V?$_Tmap_traits@VioHashString@@UDamageData@DamageTable@@U?$less@VioHashString@@@std@@V?$allocator@U?$pair@$$CBVioHashString@@UDamageData@DamageTable@@@std@@@5@$0A@@std@@@std@@SAPAU_Node@?$_Tree_nod@V?$_Tmap_traits@VioHashString@@UDamageData@DamageTable@@U?$less@VioHashString@@@std@@V?$allocator@U?$pair@$$CBVioHashString@@UDamageData@DamageTable@@@std@@@5@$0A@@std@@@2@PAU342@@Z PROC ; std::_Tree_val<std::_Tmap_traits<ioHashString,DamageTable::DamageData,std::less<ioHashString>,std::allocator<std::pair<ioHashString const ,DamageTable::DamageData> >,0> >::_Min, COMDAT

; 648  : 		{	// return leftmost node in subtree at _Pnode

  00000	55		 push	 ebp
  00001	8b ec		 mov	 ebp, esp

; 649  : 		while (!_Isnil(_Left(_Pnode)))

  00003	8b 45 08	 mov	 eax, DWORD PTR __Pnode$[ebp]
  00006	eb 02		 jmp	 SHORT $LN14@Min
$LL2@Min:

; 650  : 			_Pnode = _Left(_Pnode);

  00008	8b c1		 mov	 eax, ecx
$LN14@Min:

; 649  : 		while (!_Isnil(_Left(_Pnode)))

  0000a	8b 08		 mov	 ecx, DWORD PTR [eax]
  0000c	80 79 25 00	 cmp	 BYTE PTR [ecx+37], 0
  00010	74 f6		 je	 SHORT $LL2@Min

; 651  : 		return (_Pnode);
; 652  : 		}

  00012	5d		 pop	 ebp
  00013	c3		 ret	 0
?_Min@?$_Tree_val@V?$_Tmap_traits@VioHashString@@UDamageData@DamageTable@@U?$less@VioHashString@@@std@@V?$allocator@U?$pair@$$CBVioHashString@@UDamageData@DamageTable@@@std@@@5@$0A@@std@@@std@@SAPAU_Node@?$_Tree_nod@V?$_Tmap_traits@VioHashString@@UDamageData@DamageTable@@U?$less@VioHashString@@@std@@V?$allocator@U?$pair@$$CBVioHashString@@UDamageData@DamageTable@@@std@@@5@$0A@@std@@@2@PAU342@@Z ENDP ; std::_Tree_val<std::_Tmap_traits<ioHashString,DamageTable::DamageData,std::less<ioHashString>,std::allocator<std::pair<ioHashString const ,DamageTable::DamageData> >,0> >::_Min
_TEXT	ENDS
PUBLIC	??2@YAPAXIPAX@Z					; operator new
; Function compile flags: /Ogsp
; File c:\program files (x86)\microsoft visual studio 10.0\vc\include\new
;	COMDAT ??2@YAPAXIPAX@Z
_TEXT	SEGMENT
___formal$ = 8						; size = 4
__Where$ = 12						; size = 4
??2@YAPAXIPAX@Z PROC					; operator new, COMDAT

; 56   : 	{	// construct array with placement at _Where

  00000	55		 push	 ebp
  00001	8b ec		 mov	 ebp, esp

; 57   : 	return (_Where);

  00003	8b 45 0c	 mov	 eax, DWORD PTR __Where$[ebp]

; 58   : 	}

  00006	5d		 pop	 ebp
  00007	c3		 ret	 0
??2@YAPAXIPAX@Z ENDP					; operator new
_TEXT	ENDS
PUBLIC	??3@YAXPAX0@Z					; operator delete
; Function compile flags: /Ogsp
;	COMDAT ??3@YAXPAX0@Z
_TEXT	SEGMENT
___formal$ = 8						; size = 4
___formal$ = 12						; size = 4
??3@YAXPAX0@Z PROC					; operator delete, COMDAT

; 62   : 	}

  00000	c3		 ret	 0
??3@YAXPAX0@Z ENDP					; operator delete
_TEXT	ENDS
PUBLIC	?_Max@?$_Tree_val@V?$_Tmap_traits@VioHashString@@UDamageData@DamageTable@@U?$less@VioHashString@@@std@@V?$allocator@U?$pair@$$CBVioHashString@@UDamageData@DamageTable@@@std@@@5@$0A@@std@@@std@@SAPAU_Node@?$_Tree_nod@V?$_Tmap_traits@VioHashString@@UDamageData@DamageTable@@U?$less@VioHashString@@@std@@V?$allocator@U?$pair@$$CBVioHashString@@UDamageData@DamageTable@@@std@@@5@$0A@@std@@@2@PAU342@@Z ; std::_Tree_val<std::_Tmap_traits<ioHashString,DamageTable::DamageData,std::less<ioHashString>,std::allocator<std::pair<ioHashString const ,DamageTable::DamageData> >,0> >::_Max
; Function compile flags: /Ogsp
; File c:\program files (x86)\microsoft visual studio 10.0\vc\include\xtree
;	COMDAT ?_Max@?$_Tree_val@V?$_Tmap_traits@VioHashString@@UDamageData@DamageTable@@U?$less@VioHashString@@@std@@V?$allocator@U?$pair@$$CBVioHashString@@UDamageData@DamageTable@@@std@@@5@$0A@@std@@@std@@SAPAU_Node@?$_Tree_nod@V?$_Tmap_traits@VioHashString@@UDamageData@DamageTable@@U?$less@VioHashString@@@std@@V?$allocator@U?$pair@$$CBVioHashString@@UDamageData@DamageTable@@@std@@@5@$0A@@std@@@2@PAU342@@Z
_TEXT	SEGMENT
__Pnode$ = 8						; size = 4
?_Max@?$_Tree_val@V?$_Tmap_traits@VioHashString@@UDamageData@DamageTable@@U?$less@VioHashString@@@std@@V?$allocator@U?$pair@$$CBVioHashString@@UDamageData@DamageTable@@@std@@@5@$0A@@std@@@std@@SAPAU_Node@?$_Tree_nod@V?$_Tmap_traits@VioHashString@@UDamageData@DamageTable@@U?$less@VioHashString@@@std@@V?$allocator@U?$pair@$$CBVioHashString@@UDamageData@DamageTable@@@std@@@5@$0A@@std@@@2@PAU342@@Z PROC ; std::_Tree_val<std::_Tmap_traits<ioHashString,DamageTable::DamageData,std::less<ioHashString>,std::allocator<std::pair<ioHashString const ,DamageTable::DamageData> >,0> >::_Max, COMDAT

; 641  : 		{	// return rightmost node in subtree at _Pnode

  00000	55		 push	 ebp
  00001	8b ec		 mov	 ebp, esp

; 642  : 		while (!_Isnil(_Right(_Pnode)))

  00003	8b 45 08	 mov	 eax, DWORD PTR __Pnode$[ebp]
  00006	eb 02		 jmp	 SHORT $LN14@Max
$LL2@Max:

; 643  : 			_Pnode = _Right(_Pnode);

  00008	8b c1		 mov	 eax, ecx
$LN14@Max:

; 642  : 		while (!_Isnil(_Right(_Pnode)))

  0000a	8b 48 08	 mov	 ecx, DWORD PTR [eax+8]
  0000d	80 79 25 00	 cmp	 BYTE PTR [ecx+37], 0
  00011	74 f5		 je	 SHORT $LL2@Max

; 644  : 		return (_Pnode);
; 645  : 		}

  00013	5d		 pop	 ebp
  00014	c3		 ret	 0
?_Max@?$_Tree_val@V?$_Tmap_traits@VioHashString@@UDamageData@DamageTable@@U?$less@VioHashString@@@std@@V?$allocator@U?$pair@$$CBVioHashString@@UDamageData@DamageTable@@@std@@@5@$0A@@std@@@std@@SAPAU_Node@?$_Tree_nod@V?$_Tmap_traits@VioHashString@@UDamageData@DamageTable@@U?$less@VioHashString@@@std@@V?$allocator@U?$pair@$$CBVioHashString@@UDamageData@DamageTable@@@std@@@5@$0A@@std@@@2@PAU342@@Z ENDP ; std::_Tree_val<std::_Tmap_traits<ioHashString,DamageTable::DamageData,std::less<ioHashString>,std::allocator<std::pair<ioHashString const ,DamageTable::DamageData> >,0> >::_Max
_TEXT	ENDS
PUBLIC	??0?$_Tmap_traits@VioHashString@@UDamageData@DamageTable@@U?$less@VioHashString@@@std@@V?$allocator@U?$pair@$$CBVioHashString@@UDamageData@DamageTable@@@std@@@5@$0A@@std@@QAE@U?$less@VioHashString@@@1@@Z ; std::_Tmap_traits<ioHashString,DamageTable::DamageData,std::less<ioHashString>,std::allocator<std::pair<ioHashString const ,DamageTable::DamageData> >,0>::_Tmap_traits<ioHashString,DamageTable::DamageData,std::less<ioHashString>,std::allocator<std::pair<ioHashString const ,DamageTable::DamageData> >,0>
; Function compile flags: /Ogsp
; File c:\program files (x86)\microsoft visual studio 10.0\vc\include\map
;	COMDAT ??0?$_Tmap_traits@VioHashString@@UDamageData@DamageTable@@U?$less@VioHashString@@@std@@V?$allocator@U?$pair@$$CBVioHashString@@UDamageData@DamageTable@@@std@@@5@$0A@@std@@QAE@U?$less@VioHashString@@@1@@Z
_TEXT	SEGMENT
__Parg$ = 8						; size = 1
??0?$_Tmap_traits@VioHashString@@UDamageData@DamageTable@@U?$less@VioHashString@@@std@@V?$allocator@U?$pair@$$CBVioHashString@@UDamageData@DamageTable@@@std@@@5@$0A@@std@@QAE@U?$less@VioHashString@@@1@@Z PROC ; std::_Tmap_traits<ioHashString,DamageTable::DamageData,std::less<ioHashString>,std::allocator<std::pair<ioHashString const ,DamageTable::DamageData> >,0>::_Tmap_traits<ioHashString,DamageTable::DamageData,std::less<ioHashString>,std::allocator<std::pair<ioHashString const ,DamageTable::DamageData> >,0>, COMDAT
; _this$ = ecx

; 40   : 		{	// construct with specified comparator

  00000	8b c1		 mov	 eax, ecx

; 41   : 		}

  00002	c2 04 00	 ret	 4
??0?$_Tmap_traits@VioHashString@@UDamageData@DamageTable@@U?$less@VioHashString@@@std@@V?$allocator@U?$pair@$$CBVioHashString@@UDamageData@DamageTable@@@std@@@5@$0A@@std@@QAE@U?$less@VioHashString@@@1@@Z ENDP ; std::_Tmap_traits<ioHashString,DamageTable::DamageData,std::less<ioHashString>,std::allocator<std::pair<ioHashString const ,DamageTable::DamageData> >,0>::_Tmap_traits<ioHashString,DamageTable::DamageData,std::less<ioHashString>,std::allocator<std::pair<ioHashString const ,DamageTable::DamageData> >,0>
_TEXT	ENDS
PUBLIC	??$addressof@U?$pair@$$CBVioHashString@@UDamageData@DamageTable@@@std@@@std@@YAPAU?$pair@$$CBVioHashString@@UDamageData@DamageTable@@@0@AAU10@@Z ; std::addressof<std::pair<ioHashString const ,DamageTable::DamageData> >
; Function compile flags: /Ogsp
; File c:\program files (x86)\microsoft visual studio 10.0\vc\include\xmemory
;	COMDAT ??$addressof@U?$pair@$$CBVioHashString@@UDamageData@DamageTable@@@std@@@std@@YAPAU?$pair@$$CBVioHashString@@UDamageData@DamageTable@@@0@AAU10@@Z
_TEXT	SEGMENT
__Val$ = 8						; size = 4
??$addressof@U?$pair@$$CBVioHashString@@UDamageData@DamageTable@@@std@@@std@@YAPAU?$pair@$$CBVioHashString@@UDamageData@DamageTable@@@0@AAU10@@Z PROC ; std::addressof<std::pair<ioHashString const ,DamageTable::DamageData> >, COMDAT

; 110  : 	{	// return address of _Val

  00000	55		 push	 ebp
  00001	8b ec		 mov	 ebp, esp

; 111  : 	return ((_Ty *) &(char&)_Val);

  00003	8b 45 08	 mov	 eax, DWORD PTR __Val$[ebp]

; 112  : 	}

  00006	5d		 pop	 ebp
  00007	c3		 ret	 0
??$addressof@U?$pair@$$CBVioHashString@@UDamageData@DamageTable@@@std@@@std@@YAPAU?$pair@$$CBVioHashString@@UDamageData@DamageTable@@@0@AAU10@@Z ENDP ; std::addressof<std::pair<ioHashString const ,DamageTable::DamageData> >
_TEXT	ENDS
PUBLIC	??$_Kfn@$$CBVioHashString@@UDamageData@DamageTable@@@?$_Tmap_traits@VioHashString@@UDamageData@DamageTable@@U?$less@VioHashString@@@std@@V?$allocator@U?$pair@$$CBVioHashString@@UDamageData@DamageTable@@@std@@@5@$0A@@std@@SAABVioHashString@@ABU?$pair@$$CBVioHashString@@UDamageData@DamageTable@@@1@@Z ; std::_Tmap_traits<ioHashString,DamageTable::DamageData,std::less<ioHashString>,std::allocator<std::pair<ioHashString const ,DamageTable::DamageData> >,0>::_Kfn<ioHashString const ,DamageTable::DamageData>
; Function compile flags: /Ogsp
; File c:\program files (x86)\microsoft visual studio 10.0\vc\include\map
;	COMDAT ??$_Kfn@$$CBVioHashString@@UDamageData@DamageTable@@@?$_Tmap_traits@VioHashString@@UDamageData@DamageTable@@U?$less@VioHashString@@@std@@V?$allocator@U?$pair@$$CBVioHashString@@UDamageData@DamageTable@@@std@@@5@$0A@@std@@SAABVioHashString@@ABU?$pair@$$CBVioHashString@@UDamageData@DamageTable@@@1@@Z
_TEXT	SEGMENT
__Val$ = 8						; size = 4
??$_Kfn@$$CBVioHashString@@UDamageData@DamageTable@@@?$_Tmap_traits@VioHashString@@UDamageData@DamageTable@@U?$less@VioHashString@@@std@@V?$allocator@U?$pair@$$CBVioHashString@@UDamageData@DamageTable@@@std@@@5@$0A@@std@@SAABVioHashString@@ABU?$pair@$$CBVioHashString@@UDamageData@DamageTable@@@1@@Z PROC ; std::_Tmap_traits<ioHashString,DamageTable::DamageData,std::less<ioHashString>,std::allocator<std::pair<ioHashString const ,DamageTable::DamageData> >,0>::_Kfn<ioHashString const ,DamageTable::DamageData>, COMDAT

; 66   : 		static const _Kty& _Kfn(const _STD pair<_Ty1, _Ty2>& _Val)

  00000	55		 push	 ebp
  00001	8b ec		 mov	 ebp, esp

; 67   : 		{	// extract key from element value
; 68   : 		return (_Val.first);

  00003	8b 45 08	 mov	 eax, DWORD PTR __Val$[ebp]

; 69   : 		}

  00006	5d		 pop	 ebp
  00007	c3		 ret	 0
??$_Kfn@$$CBVioHashString@@UDamageData@DamageTable@@@?$_Tmap_traits@VioHashString@@UDamageData@DamageTable@@U?$less@VioHashString@@@std@@V?$allocator@U?$pair@$$CBVioHashString@@UDamageData@DamageTable@@@std@@@5@$0A@@std@@SAABVioHashString@@ABU?$pair@$$CBVioHashString@@UDamageData@DamageTable@@@1@@Z ENDP ; std::_Tmap_traits<ioHashString,DamageTable::DamageData,std::less<ioHashString>,std::allocator<std::pair<ioHashString const ,DamageTable::DamageData> >,0>::_Kfn<ioHashString const ,DamageTable::DamageData>
_TEXT	ENDS
PUBLIC	??$?0U?$pair@$$CBVioHashString@@UDamageData@DamageTable@@@std@@@?$allocator@U_Node@?$_Tree_nod@V?$_Tmap_traits@VioHashString@@UDamageData@DamageTable@@U?$less@VioHashString@@@std@@V?$allocator@U?$pair@$$CBVioHashString@@UDamageData@DamageTable@@@std@@@5@$0A@@std@@@std@@@std@@QAE@ABV?$allocator@U?$pair@$$CBVioHashString@@UDamageData@DamageTable@@@std@@@1@@Z ; std::allocator<std::_Tree_nod<std::_Tmap_traits<ioHashString,DamageTable::DamageData,std::less<ioHashString>,std::allocator<std::pair<ioHashString const ,DamageTable::DamageData> >,0> >::_Node>::allocator<std::_Tree_nod<std::_Tmap_traits<ioHashString,DamageTable::DamageData,std::less<ioHashString>,std::allocator<std::pair<ioHashString const ,DamageTable::DamageData> >,0> >::_Node><std::pair<ioHashString const ,DamageTable::DamageData> >
; Function compile flags: /Ogsp
; File c:\program files (x86)\microsoft visual studio 10.0\vc\include\xmemory
;	COMDAT ??$?0U?$pair@$$CBVioHashString@@UDamageData@DamageTable@@@std@@@?$allocator@U_Node@?$_Tree_nod@V?$_Tmap_traits@VioHashString@@UDamageData@DamageTable@@U?$less@VioHashString@@@std@@V?$allocator@U?$pair@$$CBVioHashString@@UDamageData@DamageTable@@@std@@@5@$0A@@std@@@std@@@std@@QAE@ABV?$allocator@U?$pair@$$CBVioHashString@@UDamageData@DamageTable@@@std@@@1@@Z
_TEXT	SEGMENT
___formal$ = 8						; size = 4
??$?0U?$pair@$$CBVioHashString@@UDamageData@DamageTable@@@std@@@?$allocator@U_Node@?$_Tree_nod@V?$_Tmap_traits@VioHashString@@UDamageData@DamageTable@@U?$less@VioHashString@@@std@@V?$allocator@U?$pair@$$CBVioHashString@@UDamageData@DamageTable@@@std@@@5@$0A@@std@@@std@@@std@@QAE@ABV?$allocator@U?$pair@$$CBVioHashString@@UDamageData@DamageTable@@@std@@@1@@Z PROC ; std::allocator<std::_Tree_nod<std::_Tmap_traits<ioHashString,DamageTable::DamageData,std::less<ioHashString>,std::allocator<std::pair<ioHashString const ,DamageTable::DamageData> >,0> >::_Node>::allocator<std::_Tree_nod<std::_Tmap_traits<ioHashString,DamageTable::DamageData,std::less<ioHashString>,std::allocator<std::pair<ioHashString const ,DamageTable::DamageData> >,0> >::_Node><std::pair<ioHashString const ,DamageTable::DamageData> >, COMDAT
; _this$ = ecx

; 170  : 		_ALLOCATOR(const _ALLOCATOR<_Other>&) _THROW0()

  00000	8b c1		 mov	 eax, ecx

; 171  : 		{	// construct from a related allocator (do nothing)
; 172  : 		}

  00002	c2 04 00	 ret	 4
??$?0U?$pair@$$CBVioHashString@@UDamageData@DamageTable@@@std@@@?$allocator@U_Node@?$_Tree_nod@V?$_Tmap_traits@VioHashString@@UDamageData@DamageTable@@U?$less@VioHashString@@@std@@V?$allocator@U?$pair@$$CBVioHashString@@UDamageData@DamageTable@@@std@@@5@$0A@@std@@@std@@@std@@QAE@ABV?$allocator@U?$pair@$$CBVioHashString@@UDamageData@DamageTable@@@std@@@1@@Z ENDP ; std::allocator<std::_Tree_nod<std::_Tmap_traits<ioHashString,DamageTable::DamageData,std::less<ioHashString>,std::allocator<std::pair<ioHashString const ,DamageTable::DamageData> >,0> >::_Node>::allocator<std::_Tree_nod<std::_Tmap_traits<ioHashString,DamageTable::DamageData,std::less<ioHashString>,std::allocator<std::pair<ioHashString const ,DamageTable::DamageData> >,0> >::_Node><std::pair<ioHashString const ,DamageTable::DamageData> >
_TEXT	ENDS
PUBLIC	__TI2?AVbad_alloc@std@@
PUBLIC	??$_Allocate@U_Node@?$_Tree_nod@V?$_Tmap_traits@VioHashString@@UDamageData@DamageTable@@U?$less@VioHashString@@@std@@V?$allocator@U?$pair@$$CBVioHashString@@UDamageData@DamageTable@@@std@@@5@$0A@@std@@@std@@@std@@YAPAU_Node@?$_Tree_nod@V?$_Tmap_traits@VioHashString@@UDamageData@DamageTable@@U?$less@VioHashString@@@std@@V?$allocator@U?$pair@$$CBVioHashString@@UDamageData@DamageTable@@@std@@@5@$0A@@std@@@0@IPAU120@@Z ; std::_Allocate<std::_Tree_nod<std::_Tmap_traits<ioHashString,DamageTable::DamageData,std::less<ioHashString>,std::allocator<std::pair<ioHashString const ,DamageTable::DamageData> >,0> >::_Node>
PUBLIC	__CTA2?AVbad_alloc@std@@
PUBLIC	__CT??_R0?AVbad_alloc@std@@@8??0bad_alloc@std@@QAE@ABV01@@Z12
PUBLIC	??0bad_alloc@std@@QAE@ABV01@@Z			; std::bad_alloc::bad_alloc
PUBLIC	__CT??_R0?AVexception@std@@@8??0exception@std@@QAE@ABV01@@Z12
EXTRN	??2@YAPAXI@Z:PROC				; operator new
EXTRN	__CxxThrowException@8:PROC
EXTRN	??0exception@std@@QAE@ABV01@@Z:PROC		; std::exception::exception
;	COMDAT __CT??_R0?AVexception@std@@@8??0exception@std@@QAE@ABV01@@Z12
; File c:\program files (x86)\microsoft visual studio 10.0\vc\include\exception
xdata$x	SEGMENT
__CT??_R0?AVexception@std@@@8??0exception@std@@QAE@ABV01@@Z12 DD 00H
	DD	FLAT:??_R0?AVexception@std@@@8
	DD	00H
	DD	0ffffffffH
	ORG $+4
	DD	0cH
	DD	FLAT:??0exception@std@@QAE@ABV01@@Z
xdata$x	ENDS
;	COMDAT __CT??_R0?AVbad_alloc@std@@@8??0bad_alloc@std@@QAE@ABV01@@Z12
xdata$x	SEGMENT
__CT??_R0?AVbad_alloc@std@@@8??0bad_alloc@std@@QAE@ABV01@@Z12 DD 00H
	DD	FLAT:??_R0?AVbad_alloc@std@@@8
	DD	00H
	DD	0ffffffffH
	ORG $+4
	DD	0cH
	DD	FLAT:??0bad_alloc@std@@QAE@ABV01@@Z
xdata$x	ENDS
;	COMDAT __CTA2?AVbad_alloc@std@@
xdata$x	SEGMENT
__CTA2?AVbad_alloc@std@@ DD 02H
	DD	FLAT:__CT??_R0?AVbad_alloc@std@@@8??0bad_alloc@std@@QAE@ABV01@@Z12
	DD	FLAT:__CT??_R0?AVexception@std@@@8??0exception@std@@QAE@ABV01@@Z12
xdata$x	ENDS
;	COMDAT __TI2?AVbad_alloc@std@@
xdata$x	SEGMENT
__TI2?AVbad_alloc@std@@ DD 00H
	DD	FLAT:??1bad_alloc@std@@UAE@XZ
	DD	00H
	DD	FLAT:__CTA2?AVbad_alloc@std@@
; Function compile flags: /Ogsp
; File c:\program files (x86)\microsoft visual studio 10.0\vc\include\xmemory
xdata$x	ENDS
;	COMDAT ??$_Allocate@U_Node@?$_Tree_nod@V?$_Tmap_traits@VioHashString@@UDamageData@DamageTable@@U?$less@VioHashString@@@std@@V?$allocator@U?$pair@$$CBVioHashString@@UDamageData@DamageTable@@@std@@@5@$0A@@std@@@std@@@std@@YAPAU_Node@?$_Tree_nod@V?$_Tmap_traits@VioHashString@@UDamageData@DamageTable@@U?$less@VioHashString@@@std@@V?$allocator@U?$pair@$$CBVioHashString@@UDamageData@DamageTable@@@std@@@5@$0A@@std@@@0@IPAU120@@Z
_TEXT	SEGMENT
$T506538 = -12						; size = 12
$T506543 = 8						; size = 4
__Count$ = 8						; size = 4
___formal$ = 12						; size = 4
??$_Allocate@U_Node@?$_Tree_nod@V?$_Tmap_traits@VioHashString@@UDamageData@DamageTable@@U?$less@VioHashString@@@std@@V?$allocator@U?$pair@$$CBVioHashString@@UDamageData@DamageTable@@@std@@@5@$0A@@std@@@std@@@std@@YAPAU_Node@?$_Tree_nod@V?$_Tmap_traits@VioHashString@@UDamageData@DamageTable@@U?$less@VioHashString@@@std@@V?$allocator@U?$pair@$$CBVioHashString@@UDamageData@DamageTable@@@std@@@5@$0A@@std@@@0@IPAU120@@Z PROC ; std::_Allocate<std::_Tree_nod<std::_Tmap_traits<ioHashString,DamageTable::DamageData,std::less<ioHashString>,std::allocator<std::pair<ioHashString const ,DamageTable::DamageData> >,0> >::_Node>, COMDAT

; 30   : 	{	// allocate storage for _Count elements of type _Ty

  00000	55		 push	 ebp
  00001	8b ec		 mov	 ebp, esp

; 31   : 	void *_Ptr = 0;
; 32   : 
; 33   : 	if (_Count <= 0)

  00003	8b 4d 08	 mov	 ecx, DWORD PTR __Count$[ebp]
  00006	83 ec 0c	 sub	 esp, 12			; 0000000cH
  00009	33 c0		 xor	 eax, eax
  0000b	85 c9		 test	 ecx, ecx

; 34   : 		_Count = 0;
; 35   : 	else if (((_SIZT)(-1) / sizeof (_Ty) < _Count)

  0000d	74 3c		 je	 SHORT $LN5@Allocate

; 36   : 		|| (_Ptr = ::operator new(_Count * sizeof (_Ty))) == 0)

  0000f	81 f9 66 66 66
	06		 cmp	 ecx, 107374182		; 06666666H
  00015	77 0e		 ja	 SHORT $LN1@Allocate
  00017	6b c9 28	 imul	 ecx, 40			; 00000028H
  0001a	51		 push	 ecx
  0001b	e8 00 00 00 00	 call	 ??2@YAPAXI@Z		; operator new
  00020	59		 pop	 ecx
  00021	85 c0		 test	 eax, eax

; 38   : 
; 39   : 	return ((_Ty _FARQ *)_Ptr);

  00023	75 26		 jne	 SHORT $LN5@Allocate
$LN1@Allocate:

; 37   : 		_THROW_NCEE(bad_alloc, 0);

  00025	83 65 08 00	 and	 DWORD PTR $T506543[ebp], 0
  00029	8d 45 08	 lea	 eax, DWORD PTR $T506543[ebp]
  0002c	50		 push	 eax
  0002d	8d 4d f4	 lea	 ecx, DWORD PTR $T506538[ebp]
  00030	ff 15 00 00 00
	00		 call	 DWORD PTR __imp_??0exception@std@@QAE@ABQBD@Z
  00036	68 00 00 00 00	 push	 OFFSET __TI2?AVbad_alloc@std@@
  0003b	8d 45 f4	 lea	 eax, DWORD PTR $T506538[ebp]
  0003e	50		 push	 eax
  0003f	c7 45 f4 00 00
	00 00		 mov	 DWORD PTR $T506538[ebp], OFFSET ??_7bad_alloc@std@@6B@
  00046	e8 00 00 00 00	 call	 __CxxThrowException@8
$LN10@Allocate:
$LN5@Allocate:

; 40   : 	}

  0004b	c9		 leave
  0004c	c3		 ret	 0
$LN9@Allocate:
??$_Allocate@U_Node@?$_Tree_nod@V?$_Tmap_traits@VioHashString@@UDamageData@DamageTable@@U?$less@VioHashString@@@std@@V?$allocator@U?$pair@$$CBVioHashString@@UDamageData@DamageTable@@@std@@@5@$0A@@std@@@std@@@std@@YAPAU_Node@?$_Tree_nod@V?$_Tmap_traits@VioHashString@@UDamageData@DamageTable@@U?$less@VioHashString@@@std@@V?$allocator@U?$pair@$$CBVioHashString@@UDamageData@DamageTable@@@std@@@5@$0A@@std@@@0@IPAU120@@Z ENDP ; std::_Allocate<std::_Tree_nod<std::_Tmap_traits<ioHashString,DamageTable::DamageData,std::less<ioHashString>,std::allocator<std::pair<ioHashString const ,DamageTable::DamageData> >,0> >::_Node>
_TEXT	ENDS
PUBLIC	?max_size@?$allocator@U?$pair@$$CBVioHashString@@UDamageData@DamageTable@@@std@@@std@@QBEIXZ ; std::allocator<std::pair<ioHashString const ,DamageTable::DamageData> >::max_size
; Function compile flags: /Ogsp
;	COMDAT ?max_size@?$allocator@U?$pair@$$CBVioHashString@@UDamageData@DamageTable@@@std@@@std@@QBEIXZ
_TEXT	SEGMENT
?max_size@?$allocator@U?$pair@$$CBVioHashString@@UDamageData@DamageTable@@@std@@@std@@QBEIXZ PROC ; std::allocator<std::pair<ioHashString const ,DamageTable::DamageData> >::max_size, COMDAT
; _this$ = ecx

; 218  : 		_SIZT _Count = (_SIZT)(-1) / sizeof (_Ty);
; 219  : 		return (0 < _Count ? _Count : 1);

  00000	b8 aa aa aa 0a	 mov	 eax, 178956970		; 0aaaaaaaH

; 220  : 		}

  00005	c3		 ret	 0
?max_size@?$allocator@U?$pair@$$CBVioHashString@@UDamageData@DamageTable@@@std@@@std@@QBEIXZ ENDP ; std::allocator<std::pair<ioHashString const ,DamageTable::DamageData> >::max_size
_TEXT	ENDS
PUBLIC	??F?$_Tree_unchecked_const_iterator@V?$_Tree_val@V?$_Tmap_traits@VioHashString@@UDamageData@DamageTable@@U?$less@VioHashString@@@std@@V?$allocator@U?$pair@$$CBVioHashString@@UDamageData@DamageTable@@@std@@@5@$0A@@std@@@std@@U_Iterator_base0@2@@std@@QAEAAV01@XZ ; std::_Tree_unchecked_const_iterator<std::_Tree_val<std::_Tmap_traits<ioHashString,DamageTable::DamageData,std::less<ioHashString>,std::allocator<std::pair<ioHashString const ,DamageTable::DamageData> >,0> >,std::_Iterator_base0>::operator--
; Function compile flags: /Ogsp
; File c:\program files (x86)\microsoft visual studio 10.0\vc\include\xtree
;	COMDAT ??F?$_Tree_unchecked_const_iterator@V?$_Tree_val@V?$_Tmap_traits@VioHashString@@UDamageData@DamageTable@@U?$less@VioHashString@@@std@@V?$allocator@U?$pair@$$CBVioHashString@@UDamageData@DamageTable@@@std@@@5@$0A@@std@@@std@@U_Iterator_base0@2@@std@@QAEAAV01@XZ
_TEXT	SEGMENT
??F?$_Tree_unchecked_const_iterator@V?$_Tree_val@V?$_Tmap_traits@VioHashString@@UDamageData@DamageTable@@U?$less@VioHashString@@@std@@V?$allocator@U?$pair@$$CBVioHashString@@UDamageData@DamageTable@@@std@@@5@$0A@@std@@@std@@U_Iterator_base0@2@@std@@QAEAAV01@XZ PROC ; std::_Tree_unchecked_const_iterator<std::_Tree_val<std::_Tmap_traits<ioHashString,DamageTable::DamageData,std::less<ioHashString>,std::allocator<std::pair<ioHashString const ,DamageTable::DamageData> >,0> >,std::_Iterator_base0>::operator--, COMDAT
; _this$ = ecx

; 83   : 		{	// predecrement

  00000	8b c1		 mov	 eax, ecx

; 84   : 		if (_Mytree::_Isnil(_Ptr))

  00002	8b 08		 mov	 ecx, DWORD PTR [eax]
  00004	53		 push	 ebx
  00005	32 db		 xor	 bl, bl
  00007	38 59 25	 cmp	 BYTE PTR [ecx+37], bl
  0000a	74 07		 je	 SHORT $LN8@operator

; 85   : 			_Ptr = _Mytree::_Right(_Ptr);	// end() ==> rightmost

  0000c	8b 49 08	 mov	 ecx, DWORD PTR [ecx+8]
  0000f	89 08		 mov	 DWORD PTR [eax], ecx
  00011	5b		 pop	 ebx

; 99   : 			}
; 100  : 		return (*this);
; 101  : 		}

  00012	c3		 ret	 0
$LN8@operator:

; 86   : 		else if (!_Mytree::_Isnil(_Mytree::_Left(_Ptr)))

  00013	8b 11		 mov	 edx, DWORD PTR [ecx]
  00015	38 5a 25	 cmp	 BYTE PTR [edx+37], bl
  00018	74 07		 je	 SHORT $LN44@operator

; 90   : 			{	// climb looking for left subtree
; 91   : 			_Nodeptr _Pnode;
; 92   : 			while (!_Mytree::_Isnil(_Pnode = _Mytree::_Parent(_Ptr))
; 93   : 				&& _Ptr == _Mytree::_Left(_Pnode))

  0001a	8b 51 04	 mov	 edx, DWORD PTR [ecx+4]
  0001d	eb 17		 jmp	 SHORT $LN46@operator

; 87   : 			_Ptr = _Mytree::_Max(
; 88   : 				_Mytree::_Left(_Ptr));	// ==> largest of left subtree

$LL22@operator:
  0001f	8b d1		 mov	 edx, ecx
$LN44@operator:
  00021	8b 4a 08	 mov	 ecx, DWORD PTR [edx+8]
  00024	38 59 25	 cmp	 BYTE PTR [ecx+37], bl
  00027	74 f6		 je	 SHORT $LL22@operator

; 89   : 		else

  00029	eb 17		 jmp	 SHORT $LN45@operator
$LL4@operator:

; 90   : 			{	// climb looking for left subtree
; 91   : 			_Nodeptr _Pnode;
; 92   : 			while (!_Mytree::_Isnil(_Pnode = _Mytree::_Parent(_Ptr))
; 93   : 				&& _Ptr == _Mytree::_Left(_Pnode))

  0002b	8b 08		 mov	 ecx, DWORD PTR [eax]
  0002d	3b 0a		 cmp	 ecx, DWORD PTR [edx]
  0002f	75 0a		 jne	 SHORT $LN3@operator

; 94   : 				_Ptr = _Pnode;	// ==> parent while left subtree

  00031	89 10		 mov	 DWORD PTR [eax], edx
  00033	8b 52 04	 mov	 edx, DWORD PTR [edx+4]
$LN46@operator:

; 90   : 			{	// climb looking for left subtree
; 91   : 			_Nodeptr _Pnode;
; 92   : 			while (!_Mytree::_Isnil(_Pnode = _Mytree::_Parent(_Ptr))
; 93   : 				&& _Ptr == _Mytree::_Left(_Pnode))

  00036	38 5a 25	 cmp	 BYTE PTR [edx+37], bl
  00039	74 f0		 je	 SHORT $LL4@operator
$LN3@operator:

; 95   : 			if (_Mytree::_Isnil(_Ptr))

  0003b	8b 08		 mov	 ecx, DWORD PTR [eax]
  0003d	38 59 25	 cmp	 BYTE PTR [ecx+37], bl
  00040	75 02		 jne	 SHORT $LN1@operator
$LN45@operator:

; 96   : 				;	// begin() shouldn't be decremented, don't move
; 97   : 			else
; 98   : 				_Ptr = _Pnode;	// ==> parent if not head

  00042	89 10		 mov	 DWORD PTR [eax], edx
$LN1@operator:
  00044	5b		 pop	 ebx

; 99   : 			}
; 100  : 		return (*this);
; 101  : 		}

  00045	c3		 ret	 0
??F?$_Tree_unchecked_const_iterator@V?$_Tree_val@V?$_Tmap_traits@VioHashString@@UDamageData@DamageTable@@U?$less@VioHashString@@@std@@V?$allocator@U?$pair@$$CBVioHashString@@UDamageData@DamageTable@@@std@@@5@$0A@@std@@@std@@U_Iterator_base0@2@@std@@QAEAAV01@XZ ENDP ; std::_Tree_unchecked_const_iterator<std::_Tree_val<std::_Tmap_traits<ioHashString,DamageTable::DamageData,std::less<ioHashString>,std::allocator<std::pair<ioHashString const ,DamageTable::DamageData> >,0> >,std::_Iterator_base0>::operator--
_TEXT	ENDS
PUBLIC	??$forward@AAUDamageData@DamageTable@@@std@@YAAAUDamageData@DamageTable@@AAU12@@Z ; std::forward<DamageTable::DamageData &>
; Function compile flags: /Ogsp
; File c:\program files (x86)\microsoft visual studio 10.0\vc\include\utility
;	COMDAT ??$forward@AAUDamageData@DamageTable@@@std@@YAAAUDamageData@DamageTable@@AAU12@@Z
_TEXT	SEGMENT
__Arg$ = 8						; size = 4
??$forward@AAUDamageData@DamageTable@@@std@@YAAAUDamageData@DamageTable@@AAU12@@Z PROC ; std::forward<DamageTable::DamageData &>, COMDAT

; 78   : 	{	// forward _Arg, given explicitly specified type parameter

  00000	55		 push	 ebp
  00001	8b ec		 mov	 ebp, esp

; 79   : 	return ((_Ty&&)_Arg);

  00003	8b 45 08	 mov	 eax, DWORD PTR __Arg$[ebp]

; 80   : 	}

  00006	5d		 pop	 ebp
  00007	c3		 ret	 0
??$forward@AAUDamageData@DamageTable@@@std@@YAAAUDamageData@DamageTable@@AAU12@@Z ENDP ; std::forward<DamageTable::DamageData &>
_TEXT	ENDS
PUBLIC	??$forward@U?$pair@$$CBVioHashString@@UDamageData@DamageTable@@@std@@@std@@YA$$QAU?$pair@$$CBVioHashString@@UDamageData@DamageTable@@@0@AAU10@@Z ; std::forward<std::pair<ioHashString const ,DamageTable::DamageData> >
; Function compile flags: /Ogsp
;	COMDAT ??$forward@U?$pair@$$CBVioHashString@@UDamageData@DamageTable@@@std@@@std@@YA$$QAU?$pair@$$CBVioHashString@@UDamageData@DamageTable@@@0@AAU10@@Z
_TEXT	SEGMENT
__Arg$ = 8						; size = 4
??$forward@U?$pair@$$CBVioHashString@@UDamageData@DamageTable@@@std@@@std@@YA$$QAU?$pair@$$CBVioHashString@@UDamageData@DamageTable@@@0@AAU10@@Z PROC ; std::forward<std::pair<ioHashString const ,DamageTable::DamageData> >, COMDAT

; 78   : 	{	// forward _Arg, given explicitly specified type parameter

  00000	55		 push	 ebp
  00001	8b ec		 mov	 ebp, esp

; 79   : 	return ((_Ty&&)_Arg);

  00003	8b 45 08	 mov	 eax, DWORD PTR __Arg$[ebp]

; 80   : 	}

  00006	5d		 pop	 ebp
  00007	c3		 ret	 0
??$forward@U?$pair@$$CBVioHashString@@UDamageData@DamageTable@@@std@@@std@@YA$$QAU?$pair@$$CBVioHashString@@UDamageData@DamageTable@@@0@AAU10@@Z ENDP ; std::forward<std::pair<ioHashString const ,DamageTable::DamageData> >
_TEXT	ENDS
PUBLIC	??$_Iter_cat@V?$_Tree_iterator@V?$_Tree_val@V?$_Tmap_traits@VioHashString@@UDamageData@DamageTable@@U?$less@VioHashString@@@std@@V?$allocator@U?$pair@$$CBVioHashString@@UDamageData@DamageTable@@@std@@@5@$0A@@std@@@std@@@std@@@std@@YA?AUbidirectional_iterator_tag@0@ABV?$_Tree_iterator@V?$_Tree_val@V?$_Tmap_traits@VioHashString@@UDamageData@DamageTable@@U?$less@VioHashString@@@std@@V?$allocator@U?$pair@$$CBVioHashString@@UDamageData@DamageTable@@@std@@@5@$0A@@std@@@std@@@0@@Z ; std::_Iter_cat<std::_Tree_iterator<std::_Tree_val<std::_Tmap_traits<ioHashString,DamageTable::DamageData,std::less<ioHashString>,std::allocator<std::pair<ioHashString const ,DamageTable::DamageData> >,0> > > >
; Function compile flags: /Ogsp
; File c:\program files (x86)\microsoft visual studio 10.0\vc\include\xutility
;	COMDAT ??$_Iter_cat@V?$_Tree_iterator@V?$_Tree_val@V?$_Tmap_traits@VioHashString@@UDamageData@DamageTable@@U?$less@VioHashString@@@std@@V?$allocator@U?$pair@$$CBVioHashString@@UDamageData@DamageTable@@@std@@@5@$0A@@std@@@std@@@std@@@std@@YA?AUbidirectional_iterator_tag@0@ABV?$_Tree_iterator@V?$_Tree_val@V?$_Tmap_traits@VioHashString@@UDamageData@DamageTable@@U?$less@VioHashString@@@std@@V?$allocator@U?$pair@$$CBVioHashString@@UDamageData@DamageTable@@@std@@@5@$0A@@std@@@std@@@0@@Z
_TEXT	SEGMENT
___$ReturnUdt$ = 8					; size = 4
___formal$ = 12						; size = 4
??$_Iter_cat@V?$_Tree_iterator@V?$_Tree_val@V?$_Tmap_traits@VioHashString@@UDamageData@DamageTable@@U?$less@VioHashString@@@std@@V?$allocator@U?$pair@$$CBVioHashString@@UDamageData@DamageTable@@@std@@@5@$0A@@std@@@std@@@std@@@std@@YA?AUbidirectional_iterator_tag@0@ABV?$_Tree_iterator@V?$_Tree_val@V?$_Tmap_traits@VioHashString@@UDamageData@DamageTable@@U?$less@VioHashString@@@std@@V?$allocator@U?$pair@$$CBVioHashString@@UDamageData@DamageTable@@@std@@@5@$0A@@std@@@std@@@0@@Z PROC ; std::_Iter_cat<std::_Tree_iterator<std::_Tree_val<std::_Tmap_traits<ioHashString,DamageTable::DamageData,std::less<ioHashString>,std::allocator<std::pair<ioHashString const ,DamageTable::DamageData> >,0> > > >, COMDAT

; 476  : 	{	// return category from iterator argument

  00000	55		 push	 ebp
  00001	8b ec		 mov	 ebp, esp

; 477  : 	typename iterator_traits<_Iter>::iterator_category _Cat;
; 478  : 	return (_Cat);

  00003	8b 45 08	 mov	 eax, DWORD PTR ___$ReturnUdt$[ebp]

; 479  : 	}

  00006	5d		 pop	 ebp
  00007	c3		 ret	 0
??$_Iter_cat@V?$_Tree_iterator@V?$_Tree_val@V?$_Tmap_traits@VioHashString@@UDamageData@DamageTable@@U?$less@VioHashString@@@std@@V?$allocator@U?$pair@$$CBVioHashString@@UDamageData@DamageTable@@@std@@@5@$0A@@std@@@std@@@std@@@std@@YA?AUbidirectional_iterator_tag@0@ABV?$_Tree_iterator@V?$_Tree_val@V?$_Tmap_traits@VioHashString@@UDamageData@DamageTable@@U?$less@VioHashString@@@std@@V?$allocator@U?$pair@$$CBVioHashString@@UDamageData@DamageTable@@@std@@@5@$0A@@std@@@std@@@0@@Z ENDP ; std::_Iter_cat<std::_Tree_iterator<std::_Tree_val<std::_Tmap_traits<ioHashString,DamageTable::DamageData,std::less<ioHashString>,std::allocator<std::pair<ioHashString const ,DamageTable::DamageData> >,0> > > >
_TEXT	ENDS
PUBLIC	??$move@AAV?$_Tree_iterator@V?$_Tree_val@V?$_Tmap_traits@VioHashString@@UDamageData@DamageTable@@U?$less@VioHashString@@@std@@V?$allocator@U?$pair@$$CBVioHashString@@UDamageData@DamageTable@@@std@@@5@$0A@@std@@@std@@@std@@@std@@YA$$QAV?$_Tree_iterator@V?$_Tree_val@V?$_Tmap_traits@VioHashString@@UDamageData@DamageTable@@U?$less@VioHashString@@@std@@V?$allocator@U?$pair@$$CBVioHashString@@UDamageData@DamageTable@@@std@@@5@$0A@@std@@@std@@@0@AAV10@@Z ; std::move<std::_Tree_iterator<std::_Tree_val<std::_Tmap_traits<ioHashString,DamageTable::DamageData,std::less<ioHashString>,std::allocator<std::pair<ioHashString const ,DamageTable::DamageData> >,0> > > &>
; Function compile flags: /Ogsp
; File c:\program files (x86)\microsoft visual studio 10.0\vc\include\utility
;	COMDAT ??$move@AAV?$_Tree_iterator@V?$_Tree_val@V?$_Tmap_traits@VioHashString@@UDamageData@DamageTable@@U?$less@VioHashString@@@std@@V?$allocator@U?$pair@$$CBVioHashString@@UDamageData@DamageTable@@@std@@@5@$0A@@std@@@std@@@std@@@std@@YA$$QAV?$_Tree_iterator@V?$_Tree_val@V?$_Tmap_traits@VioHashString@@UDamageData@DamageTable@@U?$less@VioHashString@@@std@@V?$allocator@U?$pair@$$CBVioHashString@@UDamageData@DamageTable@@@std@@@5@$0A@@std@@@std@@@0@AAV10@@Z
_TEXT	SEGMENT
__Arg$ = 8						; size = 4
??$move@AAV?$_Tree_iterator@V?$_Tree_val@V?$_Tmap_traits@VioHashString@@UDamageData@DamageTable@@U?$less@VioHashString@@@std@@V?$allocator@U?$pair@$$CBVioHashString@@UDamageData@DamageTable@@@std@@@5@$0A@@std@@@std@@@std@@@std@@YA$$QAV?$_Tree_iterator@V?$_Tree_val@V?$_Tmap_traits@VioHashString@@UDamageData@DamageTable@@U?$less@VioHashString@@@std@@V?$allocator@U?$pair@$$CBVioHashString@@UDamageData@DamageTable@@@std@@@5@$0A@@std@@@std@@@0@AAV10@@Z PROC ; std::move<std::_Tree_iterator<std::_Tree_val<std::_Tmap_traits<ioHashString,DamageTable::DamageData,std::less<ioHashString>,std::allocator<std::pair<ioHashString const ,DamageTable::DamageData> >,0> > > &>, COMDAT

; 86   : 	{	// forward _Arg as movable

  00000	55		 push	 ebp
  00001	8b ec		 mov	 ebp, esp

; 87   : 	return ((typename tr1::_Remove_reference<_Ty>::_Type&&)_Arg);

  00003	8b 45 08	 mov	 eax, DWORD PTR __Arg$[ebp]

; 88   : 	}

  00006	5d		 pop	 ebp
  00007	c3		 ret	 0
??$move@AAV?$_Tree_iterator@V?$_Tree_val@V?$_Tmap_traits@VioHashString@@UDamageData@DamageTable@@U?$less@VioHashString@@@std@@V?$allocator@U?$pair@$$CBVioHashString@@UDamageData@DamageTable@@@std@@@5@$0A@@std@@@std@@@std@@@std@@YA$$QAV?$_Tree_iterator@V?$_Tree_val@V?$_Tmap_traits@VioHashString@@UDamageData@DamageTable@@U?$less@VioHashString@@@std@@V?$allocator@U?$pair@$$CBVioHashString@@UDamageData@DamageTable@@@std@@@5@$0A@@std@@@std@@@0@AAV10@@Z ENDP ; std::move<std::_Tree_iterator<std::_Tree_val<std::_Tmap_traits<ioHashString,DamageTable::DamageData,std::less<ioHashString>,std::allocator<std::pair<ioHashString const ,DamageTable::DamageData> >,0> > > &>
_TEXT	ENDS
PUBLIC	??$forward@AAV?$_Tree_iterator@V?$_Tree_val@V?$_Tmap_traits@VioHashString@@UDamageData@DamageTable@@U?$less@VioHashString@@@std@@V?$allocator@U?$pair@$$CBVioHashString@@UDamageData@DamageTable@@@std@@@5@$0A@@std@@@std@@@std@@@std@@YAAAV?$_Tree_iterator@V?$_Tree_val@V?$_Tmap_traits@VioHashString@@UDamageData@DamageTable@@U?$less@VioHashString@@@std@@V?$allocator@U?$pair@$$CBVioHashString@@UDamageData@DamageTable@@@std@@@5@$0A@@std@@@std@@@0@AAV10@@Z ; std::forward<std::_Tree_iterator<std::_Tree_val<std::_Tmap_traits<ioHashString,DamageTable::DamageData,std::less<ioHashString>,std::allocator<std::pair<ioHashString const ,DamageTable::DamageData> >,0> > > &>
; Function compile flags: /Ogsp
;	COMDAT ??$forward@AAV?$_Tree_iterator@V?$_Tree_val@V?$_Tmap_traits@VioHashString@@UDamageData@DamageTable@@U?$less@VioHashString@@@std@@V?$allocator@U?$pair@$$CBVioHashString@@UDamageData@DamageTable@@@std@@@5@$0A@@std@@@std@@@std@@@std@@YAAAV?$_Tree_iterator@V?$_Tree_val@V?$_Tmap_traits@VioHashString@@UDamageData@DamageTable@@U?$less@VioHashString@@@std@@V?$allocator@U?$pair@$$CBVioHashString@@UDamageData@DamageTable@@@std@@@5@$0A@@std@@@std@@@0@AAV10@@Z
_TEXT	SEGMENT
__Arg$ = 8						; size = 4
??$forward@AAV?$_Tree_iterator@V?$_Tree_val@V?$_Tmap_traits@VioHashString@@UDamageData@DamageTable@@U?$less@VioHashString@@@std@@V?$allocator@U?$pair@$$CBVioHashString@@UDamageData@DamageTable@@@std@@@5@$0A@@std@@@std@@@std@@@std@@YAAAV?$_Tree_iterator@V?$_Tree_val@V?$_Tmap_traits@VioHashString@@UDamageData@DamageTable@@U?$less@VioHashString@@@std@@V?$allocator@U?$pair@$$CBVioHashString@@UDamageData@DamageTable@@@std@@@5@$0A@@std@@@std@@@0@AAV10@@Z PROC ; std::forward<std::_Tree_iterator<std::_Tree_val<std::_Tmap_traits<ioHashString,DamageTable::DamageData,std::less<ioHashString>,std::allocator<std::pair<ioHashString const ,DamageTable::DamageData> >,0> > > &>, COMDAT

; 78   : 	{	// forward _Arg, given explicitly specified type parameter

  00000	55		 push	 ebp
  00001	8b ec		 mov	 ebp, esp

; 79   : 	return ((_Ty&&)_Arg);

  00003	8b 45 08	 mov	 eax, DWORD PTR __Arg$[ebp]

; 80   : 	}

  00006	5d		 pop	 ebp
  00007	c3		 ret	 0
??$forward@AAV?$_Tree_iterator@V?$_Tree_val@V?$_Tmap_traits@VioHashString@@UDamageData@DamageTable@@U?$less@VioHashString@@@std@@V?$allocator@U?$pair@$$CBVioHashString@@UDamageData@DamageTable@@@std@@@5@$0A@@std@@@std@@@std@@@std@@YAAAV?$_Tree_iterator@V?$_Tree_val@V?$_Tmap_traits@VioHashString@@UDamageData@DamageTable@@U?$less@VioHashString@@@std@@V?$allocator@U?$pair@$$CBVioHashString@@UDamageData@DamageTable@@@std@@@5@$0A@@std@@@std@@@0@AAV10@@Z ENDP ; std::forward<std::_Tree_iterator<std::_Tree_val<std::_Tmap_traits<ioHashString,DamageTable::DamageData,std::less<ioHashString>,std::allocator<std::pair<ioHashString const ,DamageTable::DamageData> >,0> > > &>
_TEXT	ENDS
PUBLIC	??$forward@UDamageData@DamageTable@@@std@@YA$$QAUDamageData@DamageTable@@AAU12@@Z ; std::forward<DamageTable::DamageData>
; Function compile flags: /Ogsp
;	COMDAT ??$forward@UDamageData@DamageTable@@@std@@YA$$QAUDamageData@DamageTable@@AAU12@@Z
_TEXT	SEGMENT
__Arg$ = 8						; size = 4
??$forward@UDamageData@DamageTable@@@std@@YA$$QAUDamageData@DamageTable@@AAU12@@Z PROC ; std::forward<DamageTable::DamageData>, COMDAT

; 78   : 	{	// forward _Arg, given explicitly specified type parameter

  00000	55		 push	 ebp
  00001	8b ec		 mov	 ebp, esp

; 79   : 	return ((_Ty&&)_Arg);

  00003	8b 45 08	 mov	 eax, DWORD PTR __Arg$[ebp]

; 80   : 	}

  00006	5d		 pop	 ebp
  00007	c3		 ret	 0
??$forward@UDamageData@DamageTable@@@std@@YA$$QAUDamageData@DamageTable@@AAU12@@Z ENDP ; std::forward<DamageTable::DamageData>
_TEXT	ENDS
PUBLIC	??$move@AAUDamageData@DamageTable@@@std@@YA$$QAUDamageData@DamageTable@@AAU12@@Z ; std::move<DamageTable::DamageData &>
; Function compile flags: /Ogsp
;	COMDAT ??$move@AAUDamageData@DamageTable@@@std@@YA$$QAUDamageData@DamageTable@@AAU12@@Z
_TEXT	SEGMENT
__Arg$ = 8						; size = 4
??$move@AAUDamageData@DamageTable@@@std@@YA$$QAUDamageData@DamageTable@@AAU12@@Z PROC ; std::move<DamageTable::DamageData &>, COMDAT

; 86   : 	{	// forward _Arg as movable

  00000	55		 push	 ebp
  00001	8b ec		 mov	 ebp, esp

; 87   : 	return ((typename tr1::_Remove_reference<_Ty>::_Type&&)_Arg);

  00003	8b 45 08	 mov	 eax, DWORD PTR __Arg$[ebp]

; 88   : 	}

  00006	5d		 pop	 ebp
  00007	c3		 ret	 0
??$move@AAUDamageData@DamageTable@@@std@@YA$$QAUDamageData@DamageTable@@AAU12@@Z ENDP ; std::move<DamageTable::DamageData &>
_TEXT	ENDS
PUBLIC	?_Adopt@_Iterator_base0@std@@QAEXPBX@Z		; std::_Iterator_base0::_Adopt
; Function compile flags: /Ogsp
; File c:\program files (x86)\microsoft visual studio 10.0\vc\include\xutility
;	COMDAT ?_Adopt@_Iterator_base0@std@@QAEXPBX@Z
_TEXT	SEGMENT
___formal$ = 8						; size = 4
?_Adopt@_Iterator_base0@std@@QAEXPBX@Z PROC		; std::_Iterator_base0::_Adopt, COMDAT
; _this$ = ecx

; 49   : 		}

  00000	c2 04 00	 ret	 4
?_Adopt@_Iterator_base0@std@@QAEXPBX@Z ENDP		; std::_Iterator_base0::_Adopt
_TEXT	ENDS
PUBLIC	??0DamageData@DamageTable@@QAE@XZ		; DamageTable::DamageData::DamageData
; Function compile flags: /Ogsp
; File d:\lost saga for developer\youtube\tutorial\source\src\lsclient\damagetable.h
;	COMDAT ??0DamageData@DamageTable@@QAE@XZ
_TEXT	SEGMENT
??0DamageData@DamageTable@@QAE@XZ PROC			; DamageTable::DamageData::DamageData, COMDAT
; _this$ = ecx

; 10   : 		DamageData()

  00000	8b c1		 mov	 eax, ecx

; 11   : 		{
; 12   : 			m_iPrevDamage = m_iCurDamage = 0;

  00002	83 60 04 00	 and	 DWORD PTR [eax+4], 0
  00006	83 20 00	 and	 DWORD PTR [eax], 0

; 13   : 		}

  00009	c3		 ret	 0
??0DamageData@DamageTable@@QAE@XZ ENDP			; DamageTable::DamageData::DamageData
_TEXT	ENDS
PUBLIC	??R?$less@VioHashString@@@std@@QBE_NABVioHashString@@0@Z ; std::less<ioHashString>::operator()
EXTRN	__imp_??MioHashString@@QBE_NABV0@@Z:PROC
; Function compile flags: /Ogsp
; File c:\program files (x86)\microsoft visual studio 10.0\vc\include\xfunctional
;	COMDAT ??R?$less@VioHashString@@@std@@QBE_NABVioHashString@@0@Z
_TEXT	SEGMENT
__Left$ = 8						; size = 4
__Right$ = 12						; size = 4
??R?$less@VioHashString@@@std@@QBE_NABVioHashString@@0@Z PROC ; std::less<ioHashString>::operator(), COMDAT
; _this$ = ecx

; 124  : 		{	// apply operator< to operands

  00000	55		 push	 ebp
  00001	8b ec		 mov	 ebp, esp

; 125  : 		return (_Left < _Right);

  00003	ff 75 0c	 push	 DWORD PTR __Right$[ebp]
  00006	8b 4d 08	 mov	 ecx, DWORD PTR __Left$[ebp]
  00009	ff 15 00 00 00
	00		 call	 DWORD PTR __imp_??MioHashString@@QBE_NABV0@@Z

; 126  : 		}

  0000f	5d		 pop	 ebp
  00010	c2 08 00	 ret	 8
??R?$less@VioHashString@@@std@@QBE_NABVioHashString@@0@Z ENDP ; std::less<ioHashString>::operator()
_TEXT	ENDS
EXTRN	__imp_??0exception@std@@QAE@ABV01@@Z:PROC
; Function compile flags: /Ogsp
;	COMDAT ??0bad_alloc@std@@QAE@ABV01@@Z
_TEXT	SEGMENT
___that$ = 8						; size = 4
??0bad_alloc@std@@QAE@ABV01@@Z PROC			; std::bad_alloc::bad_alloc, COMDAT
; _this$ = ecx
  00000	55		 push	 ebp
  00001	8b ec		 mov	 ebp, esp
  00003	56		 push	 esi
  00004	ff 75 08	 push	 DWORD PTR ___that$[ebp]
  00007	8b f1		 mov	 esi, ecx
  00009	ff 15 00 00 00
	00		 call	 DWORD PTR __imp_??0exception@std@@QAE@ABV01@@Z
  0000f	c7 06 00 00 00
	00		 mov	 DWORD PTR [esi], OFFSET ??_7bad_alloc@std@@6B@
  00015	8b c6		 mov	 eax, esi
  00017	5e		 pop	 esi
  00018	5d		 pop	 ebp
  00019	c2 04 00	 ret	 4
??0bad_alloc@std@@QAE@ABV01@@Z ENDP			; std::bad_alloc::bad_alloc
_TEXT	ENDS
PUBLIC	??$forward@ABVioHashString@@@std@@YAABVioHashString@@ABV1@@Z ; std::forward<ioHashString const &>
; Function compile flags: /Ogsp
; File c:\program files (x86)\microsoft visual studio 10.0\vc\include\utility
;	COMDAT ??$forward@ABVioHashString@@@std@@YAABVioHashString@@ABV1@@Z
_TEXT	SEGMENT
__Arg$ = 8						; size = 4
??$forward@ABVioHashString@@@std@@YAABVioHashString@@ABV1@@Z PROC ; std::forward<ioHashString const &>, COMDAT

; 78   : 	{	// forward _Arg, given explicitly specified type parameter

  00000	55		 push	 ebp
  00001	8b ec		 mov	 ebp, esp

; 79   : 	return ((_Ty&&)_Arg);

  00003	8b 45 08	 mov	 eax, DWORD PTR __Arg$[ebp]

; 80   : 	}

  00006	5d		 pop	 ebp
  00007	c3		 ret	 0
??$forward@ABVioHashString@@@std@@YAABVioHashString@@ABV1@@Z ENDP ; std::forward<ioHashString const &>
_TEXT	ENDS
PUBLIC	??$_Move@AAD@std@@YA$$QADAAD@Z			; std::_Move<char &>
; Function compile flags: /Ogsp
;	COMDAT ??$_Move@AAD@std@@YA$$QADAAD@Z
_TEXT	SEGMENT
__Arg$ = 8						; size = 4
??$_Move@AAD@std@@YA$$QADAAD@Z PROC			; std::_Move<char &>, COMDAT

; 94   : 	{	// forward _Arg as movable

  00000	55		 push	 ebp
  00001	8b ec		 mov	 ebp, esp

; 95   : 	return ((typename tr1::_Remove_reference<_Ty>::_Type&&)_Arg);

  00003	8b 45 08	 mov	 eax, DWORD PTR __Arg$[ebp]

; 96   : 	}

  00006	5d		 pop	 ebp
  00007	c3		 ret	 0
??$_Move@AAD@std@@YA$$QADAAD@Z ENDP			; std::_Move<char &>
_TEXT	ENDS
PUBLIC	??$move@AA_N@std@@YA$$QA_NAA_N@Z		; std::move<bool &>
; Function compile flags: /Ogsp
;	COMDAT ??$move@AA_N@std@@YA$$QA_NAA_N@Z
_TEXT	SEGMENT
__Arg$ = 8						; size = 4
??$move@AA_N@std@@YA$$QA_NAA_N@Z PROC			; std::move<bool &>, COMDAT

; 86   : 	{	// forward _Arg as movable

  00000	55		 push	 ebp
  00001	8b ec		 mov	 ebp, esp

; 87   : 	return ((typename tr1::_Remove_reference<_Ty>::_Type&&)_Arg);

  00003	8b 45 08	 mov	 eax, DWORD PTR __Arg$[ebp]

; 88   : 	}

  00006	5d		 pop	 ebp
  00007	c3		 ret	 0
??$move@AA_N@std@@YA$$QA_NAA_N@Z ENDP			; std::move<bool &>
_TEXT	ENDS
PUBLIC	??$forward@_N@std@@YA$$QA_NAA_N@Z		; std::forward<bool>
; Function compile flags: /Ogsp
;	COMDAT ??$forward@_N@std@@YA$$QA_NAA_N@Z
_TEXT	SEGMENT
__Arg$ = 8						; size = 4
??$forward@_N@std@@YA$$QA_NAA_N@Z PROC			; std::forward<bool>, COMDAT

; 78   : 	{	// forward _Arg, given explicitly specified type parameter

  00000	55		 push	 ebp
  00001	8b ec		 mov	 ebp, esp

; 79   : 	return ((_Ty&&)_Arg);

  00003	8b 45 08	 mov	 eax, DWORD PTR __Arg$[ebp]

; 80   : 	}

  00006	5d		 pop	 ebp
  00007	c3		 ret	 0
??$forward@_N@std@@YA$$QA_NAA_N@Z ENDP			; std::forward<bool>
_TEXT	ENDS
PUBLIC	??$forward@$$CBVioHashString@@@std@@YA$$QBVioHashString@@ABV1@@Z ; std::forward<ioHashString const >
; Function compile flags: /Ogsp
;	COMDAT ??$forward@$$CBVioHashString@@@std@@YA$$QBVioHashString@@ABV1@@Z
_TEXT	SEGMENT
__Arg$ = 8						; size = 4
??$forward@$$CBVioHashString@@@std@@YA$$QBVioHashString@@ABV1@@Z PROC ; std::forward<ioHashString const >, COMDAT

; 78   : 	{	// forward _Arg, given explicitly specified type parameter

  00000	55		 push	 ebp
  00001	8b ec		 mov	 ebp, esp

; 79   : 	return ((_Ty&&)_Arg);

  00003	8b 45 08	 mov	 eax, DWORD PTR __Arg$[ebp]

; 80   : 	}

  00006	5d		 pop	 ebp
  00007	c3		 ret	 0
??$forward@$$CBVioHashString@@@std@@YA$$QBVioHashString@@ABV1@@Z ENDP ; std::forward<ioHashString const >
_TEXT	ENDS
PUBLIC	??$move@ABVioHashString@@@std@@YA$$QBVioHashString@@ABV1@@Z ; std::move<ioHashString const &>
; Function compile flags: /Ogsp
;	COMDAT ??$move@ABVioHashString@@@std@@YA$$QBVioHashString@@ABV1@@Z
_TEXT	SEGMENT
__Arg$ = 8						; size = 4
??$move@ABVioHashString@@@std@@YA$$QBVioHashString@@ABV1@@Z PROC ; std::move<ioHashString const &>, COMDAT

; 86   : 	{	// forward _Arg as movable

  00000	55		 push	 ebp
  00001	8b ec		 mov	 ebp, esp

; 87   : 	return ((typename tr1::_Remove_reference<_Ty>::_Type&&)_Arg);

  00003	8b 45 08	 mov	 eax, DWORD PTR __Arg$[ebp]

; 88   : 	}

  00006	5d		 pop	 ebp
  00007	c3		 ret	 0
??$move@ABVioHashString@@@std@@YA$$QBVioHashString@@ABV1@@Z ENDP ; std::move<ioHashString const &>
_TEXT	ENDS
PUBLIC	??1?$pair@$$CBVioHashString@@UDamageData@DamageTable@@@std@@QAE@XZ ; std::pair<ioHashString const ,DamageTable::DamageData>::~pair<ioHashString const ,DamageTable::DamageData>
; Function compile flags: /Ogsp
;	COMDAT ??1?$pair@$$CBVioHashString@@UDamageData@DamageTable@@@std@@QAE@XZ
_TEXT	SEGMENT
??1?$pair@$$CBVioHashString@@UDamageData@DamageTable@@@std@@QAE@XZ PROC ; std::pair<ioHashString const ,DamageTable::DamageData>::~pair<ioHashString const ,DamageTable::DamageData>, COMDAT
; _this$ = ecx
  00000	ff 25 00 00 00
	00		 jmp	 DWORD PTR __imp_??1ioHashString@@QAE@XZ
??1?$pair@$$CBVioHashString@@UDamageData@DamageTable@@@std@@QAE@XZ ENDP ; std::pair<ioHashString const ,DamageTable::DamageData>::~pair<ioHashString const ,DamageTable::DamageData>
_TEXT	ENDS
PUBLIC	?GetDamageTableCnt@DamageTable@@QBEHXZ		; DamageTable::GetDamageTableCnt
; Function compile flags: /Ogsp
; File d:\lost saga for developer\youtube\tutorial\source\src\lsclient\damagetable.cpp
;	COMDAT ?GetDamageTableCnt@DamageTable@@QBEHXZ
_TEXT	SEGMENT
?GetDamageTableCnt@DamageTable@@QBEHXZ PROC		; DamageTable::GetDamageTableCnt, COMDAT
; _this$ = ecx

; 41   : 	return m_DamageTable.size();

  00000	8b 41 08	 mov	 eax, DWORD PTR [ecx+8]

; 42   : }

  00003	c3		 ret	 0
?GetDamageTableCnt@DamageTable@@QBEHXZ ENDP		; DamageTable::GetDamageTableCnt
_TEXT	ENDS
PUBLIC	?_Lmost@?$_Tree@V?$_Tmap_traits@VioHashString@@UDamageData@DamageTable@@U?$less@VioHashString@@@std@@V?$allocator@U?$pair@$$CBVioHashString@@UDamageData@DamageTable@@@std@@@5@$0A@@std@@@std@@IBEAAPAU_Node@?$_Tree_nod@V?$_Tmap_traits@VioHashString@@UDamageData@DamageTable@@U?$less@VioHashString@@@std@@V?$allocator@U?$pair@$$CBVioHashString@@UDamageData@DamageTable@@@std@@@5@$0A@@std@@@2@XZ ; std::_Tree<std::_Tmap_traits<ioHashString,DamageTable::DamageData,std::less<ioHashString>,std::allocator<std::pair<ioHashString const ,DamageTable::DamageData> >,0> >::_Lmost
; Function compile flags: /Ogsp
; File c:\program files (x86)\microsoft visual studio 10.0\vc\include\xtree
;	COMDAT ?_Lmost@?$_Tree@V?$_Tmap_traits@VioHashString@@UDamageData@DamageTable@@U?$less@VioHashString@@@std@@V?$allocator@U?$pair@$$CBVioHashString@@UDamageData@DamageTable@@@std@@@5@$0A@@std@@@std@@IBEAAPAU_Node@?$_Tree_nod@V?$_Tmap_traits@VioHashString@@UDamageData@DamageTable@@U?$less@VioHashString@@@std@@V?$allocator@U?$pair@$$CBVioHashString@@UDamageData@DamageTable@@@std@@@5@$0A@@std@@@2@XZ
_TEXT	SEGMENT
?_Lmost@?$_Tree@V?$_Tmap_traits@VioHashString@@UDamageData@DamageTable@@U?$less@VioHashString@@@std@@V?$allocator@U?$pair@$$CBVioHashString@@UDamageData@DamageTable@@@std@@@5@$0A@@std@@@std@@IBEAAPAU_Node@?$_Tree_nod@V?$_Tmap_traits@VioHashString@@UDamageData@DamageTable@@U?$less@VioHashString@@@std@@V?$allocator@U?$pair@$$CBVioHashString@@UDamageData@DamageTable@@@std@@@5@$0A@@std@@@2@XZ PROC ; std::_Tree<std::_Tmap_traits<ioHashString,DamageTable::DamageData,std::less<ioHashString>,std::allocator<std::pair<ioHashString const ,DamageTable::DamageData> >,0> >::_Lmost, COMDAT
; _this$ = ecx

; 1759 : 		return (this->_Left(this->_Myhead));

  00000	8b 41 04	 mov	 eax, DWORD PTR [ecx+4]

; 1760 : 		}

  00003	c3		 ret	 0
?_Lmost@?$_Tree@V?$_Tmap_traits@VioHashString@@UDamageData@DamageTable@@U?$less@VioHashString@@@std@@V?$allocator@U?$pair@$$CBVioHashString@@UDamageData@DamageTable@@@std@@@5@$0A@@std@@@std@@IBEAAPAU_Node@?$_Tree_nod@V?$_Tmap_traits@VioHashString@@UDamageData@DamageTable@@U?$less@VioHashString@@@std@@V?$allocator@U?$pair@$$CBVioHashString@@UDamageData@DamageTable@@@std@@@5@$0A@@std@@@2@XZ ENDP ; std::_Tree<std::_Tmap_traits<ioHashString,DamageTable::DamageData,std::less<ioHashString>,std::allocator<std::pair<ioHashString const ,DamageTable::DamageData> >,0> >::_Lmost
_TEXT	ENDS
PUBLIC	?_Rmost@?$_Tree@V?$_Tmap_traits@VioHashString@@UDamageData@DamageTable@@U?$less@VioHashString@@@std@@V?$allocator@U?$pair@$$CBVioHashString@@UDamageData@DamageTable@@@std@@@5@$0A@@std@@@std@@IBEAAPAU_Node@?$_Tree_nod@V?$_Tmap_traits@VioHashString@@UDamageData@DamageTable@@U?$less@VioHashString@@@std@@V?$allocator@U?$pair@$$CBVioHashString@@UDamageData@DamageTable@@@std@@@5@$0A@@std@@@2@XZ ; std::_Tree<std::_Tmap_traits<ioHashString,DamageTable::DamageData,std::less<ioHashString>,std::allocator<std::pair<ioHashString const ,DamageTable::DamageData> >,0> >::_Rmost
; Function compile flags: /Ogsp
;	COMDAT ?_Rmost@?$_Tree@V?$_Tmap_traits@VioHashString@@UDamageData@DamageTable@@U?$less@VioHashString@@@std@@V?$allocator@U?$pair@$$CBVioHashString@@UDamageData@DamageTable@@@std@@@5@$0A@@std@@@std@@IBEAAPAU_Node@?$_Tree_nod@V?$_Tmap_traits@VioHashString@@UDamageData@DamageTable@@U?$less@VioHashString@@@std@@V?$allocator@U?$pair@$$CBVioHashString@@UDamageData@DamageTable@@@std@@@5@$0A@@std@@@2@XZ
_TEXT	SEGMENT
?_Rmost@?$_Tree@V?$_Tmap_traits@VioHashString@@UDamageData@DamageTable@@U?$less@VioHashString@@@std@@V?$allocator@U?$pair@$$CBVioHashString@@UDamageData@DamageTable@@@std@@@5@$0A@@std@@@std@@IBEAAPAU_Node@?$_Tree_nod@V?$_Tmap_traits@VioHashString@@UDamageData@DamageTable@@U?$less@VioHashString@@@std@@V?$allocator@U?$pair@$$CBVioHashString@@UDamageData@DamageTable@@@std@@@5@$0A@@std@@@2@XZ PROC ; std::_Tree<std::_Tmap_traits<ioHashString,DamageTable::DamageData,std::less<ioHashString>,std::allocator<std::pair<ioHashString const ,DamageTable::DamageData> >,0> >::_Rmost, COMDAT
; _this$ = ecx

; 1784 : 		return (this->_Right(this->_Myhead));

  00000	8b 41 04	 mov	 eax, DWORD PTR [ecx+4]
  00003	83 c0 08	 add	 eax, 8

; 1785 : 		}

  00006	c3		 ret	 0
?_Rmost@?$_Tree@V?$_Tmap_traits@VioHashString@@UDamageData@DamageTable@@U?$less@VioHashString@@@std@@V?$allocator@U?$pair@$$CBVioHashString@@UDamageData@DamageTable@@@std@@@5@$0A@@std@@@std@@IBEAAPAU_Node@?$_Tree_nod@V?$_Tmap_traits@VioHashString@@UDamageData@DamageTable@@U?$less@VioHashString@@@std@@V?$allocator@U?$pair@$$CBVioHashString@@UDamageData@DamageTable@@@std@@@5@$0A@@std@@@2@XZ ENDP ; std::_Tree<std::_Tmap_traits<ioHashString,DamageTable::DamageData,std::less<ioHashString>,std::allocator<std::pair<ioHashString const ,DamageTable::DamageData> >,0> >::_Rmost
_TEXT	ENDS
PUBLIC	?_Root@?$_Tree@V?$_Tmap_traits@VioHashString@@UDamageData@DamageTable@@U?$less@VioHashString@@@std@@V?$allocator@U?$pair@$$CBVioHashString@@UDamageData@DamageTable@@@std@@@5@$0A@@std@@@std@@IBEAAPAU_Node@?$_Tree_nod@V?$_Tmap_traits@VioHashString@@UDamageData@DamageTable@@U?$less@VioHashString@@@std@@V?$allocator@U?$pair@$$CBVioHashString@@UDamageData@DamageTable@@@std@@@5@$0A@@std@@@2@XZ ; std::_Tree<std::_Tmap_traits<ioHashString,DamageTable::DamageData,std::less<ioHashString>,std::allocator<std::pair<ioHashString const ,DamageTable::DamageData> >,0> >::_Root
; Function compile flags: /Ogsp
;	COMDAT ?_Root@?$_Tree@V?$_Tmap_traits@VioHashString@@UDamageData@DamageTable@@U?$less@VioHashString@@@std@@V?$allocator@U?$pair@$$CBVioHashString@@UDamageData@DamageTable@@@std@@@5@$0A@@std@@@std@@IBEAAPAU_Node@?$_Tree_nod@V?$_Tmap_traits@VioHashString@@UDamageData@DamageTable@@U?$less@VioHashString@@@std@@V?$allocator@U?$pair@$$CBVioHashString@@UDamageData@DamageTable@@@std@@@5@$0A@@std@@@2@XZ
_TEXT	SEGMENT
?_Root@?$_Tree@V?$_Tmap_traits@VioHashString@@UDamageData@DamageTable@@U?$less@VioHashString@@@std@@V?$allocator@U?$pair@$$CBVioHashString@@UDamageData@DamageTable@@@std@@@5@$0A@@std@@@std@@IBEAAPAU_Node@?$_Tree_nod@V?$_Tmap_traits@VioHashString@@UDamageData@DamageTable@@U?$less@VioHashString@@@std@@V?$allocator@U?$pair@$$CBVioHashString@@UDamageData@DamageTable@@@std@@@5@$0A@@std@@@2@XZ PROC ; std::_Tree<std::_Tmap_traits<ioHashString,DamageTable::DamageData,std::less<ioHashString>,std::allocator<std::pair<ioHashString const ,DamageTable::DamageData> >,0> >::_Root, COMDAT
; _this$ = ecx

; 1789 : 		return (this->_Parent(this->_Myhead));

  00000	8b 41 04	 mov	 eax, DWORD PTR [ecx+4]
  00003	83 c0 04	 add	 eax, 4

; 1790 : 		}

  00006	c3		 ret	 0
?_Root@?$_Tree@V?$_Tmap_traits@VioHashString@@UDamageData@DamageTable@@U?$less@VioHashString@@@std@@V?$allocator@U?$pair@$$CBVioHashString@@UDamageData@DamageTable@@@std@@@5@$0A@@std@@@std@@IBEAAPAU_Node@?$_Tree_nod@V?$_Tmap_traits@VioHashString@@UDamageData@DamageTable@@U?$less@VioHashString@@@std@@V?$allocator@U?$pair@$$CBVioHashString@@UDamageData@DamageTable@@@std@@@5@$0A@@std@@@2@XZ ENDP ; std::_Tree<std::_Tmap_traits<ioHashString,DamageTable::DamageData,std::less<ioHashString>,std::allocator<std::pair<ioHashString const ,DamageTable::DamageData> >,0> >::_Root
_TEXT	ENDS
PUBLIC	??1?$_Tree_val@V?$_Tmap_traits@VioHashString@@UDamageData@DamageTable@@U?$less@VioHashString@@@std@@V?$allocator@U?$pair@$$CBVioHashString@@UDamageData@DamageTable@@@std@@@5@$0A@@std@@@std@@QAE@XZ ; std::_Tree_val<std::_Tmap_traits<ioHashString,DamageTable::DamageData,std::less<ioHashString>,std::allocator<std::pair<ioHashString const ,DamageTable::DamageData> >,0> >::~_Tree_val<std::_Tmap_traits<ioHashString,DamageTable::DamageData,std::less<ioHashString>,std::allocator<std::pair<ioHashString const ,DamageTable::DamageData> >,0> >
; Function compile flags: /Ogsp
;	COMDAT ??1?$_Tree_val@V?$_Tmap_traits@VioHashString@@UDamageData@DamageTable@@U?$less@VioHashString@@@std@@V?$allocator@U?$pair@$$CBVioHashString@@UDamageData@DamageTable@@@std@@@5@$0A@@std@@@std@@QAE@XZ
_TEXT	SEGMENT
??1?$_Tree_val@V?$_Tmap_traits@VioHashString@@UDamageData@DamageTable@@U?$less@VioHashString@@@std@@V?$allocator@U?$pair@$$CBVioHashString@@UDamageData@DamageTable@@@std@@@5@$0A@@std@@@std@@QAE@XZ PROC ; std::_Tree_val<std::_Tmap_traits<ioHashString,DamageTable::DamageData,std::less<ioHashString>,std::allocator<std::pair<ioHashString const ,DamageTable::DamageData> >,0> >::~_Tree_val<std::_Tmap_traits<ioHashString,DamageTable::DamageData,std::less<ioHashString>,std::allocator<std::pair<ioHashString const ,DamageTable::DamageData> >,0> >, COMDAT
; _this$ = ecx

; 555  : 		this->_Alnod.deallocate(this->_Myhead, 1);

  00000	ff 71 04	 push	 DWORD PTR [ecx+4]
  00003	e8 00 00 00 00	 call	 ??3@YAXPAX@Z		; operator delete
  00008	59		 pop	 ecx

; 556  : 		}

  00009	c3		 ret	 0
??1?$_Tree_val@V?$_Tmap_traits@VioHashString@@UDamageData@DamageTable@@U?$less@VioHashString@@@std@@V?$allocator@U?$pair@$$CBVioHashString@@UDamageData@DamageTable@@@std@@@5@$0A@@std@@@std@@QAE@XZ ENDP ; std::_Tree_val<std::_Tmap_traits<ioHashString,DamageTable::DamageData,std::less<ioHashString>,std::allocator<std::pair<ioHashString const ,DamageTable::DamageData> >,0> >::~_Tree_val<std::_Tmap_traits<ioHashString,DamageTable::DamageData,std::less<ioHashString>,std::allocator<std::pair<ioHashString const ,DamageTable::DamageData> >,0> >
_TEXT	ENDS
PUBLIC	?_Key@?$_Tree_val@V?$_Tmap_traits@VioHashString@@UDamageData@DamageTable@@U?$less@VioHashString@@@std@@V?$allocator@U?$pair@$$CBVioHashString@@UDamageData@DamageTable@@@std@@@5@$0A@@std@@@std@@SAAAVioHashString@@PAU_Node@?$_Tree_nod@V?$_Tmap_traits@VioHashString@@UDamageData@DamageTable@@U?$less@VioHashString@@@std@@V?$allocator@U?$pair@$$CBVioHashString@@UDamageData@DamageTable@@@std@@@5@$0A@@std@@@2@@Z ; std::_Tree_val<std::_Tmap_traits<ioHashString,DamageTable::DamageData,std::less<ioHashString>,std::allocator<std::pair<ioHashString const ,DamageTable::DamageData> >,0> >::_Key
; Function compile flags: /Ogsp
;	COMDAT ?_Key@?$_Tree_val@V?$_Tmap_traits@VioHashString@@UDamageData@DamageTable@@U?$less@VioHashString@@@std@@V?$allocator@U?$pair@$$CBVioHashString@@UDamageData@DamageTable@@@std@@@5@$0A@@std@@@std@@SAAAVioHashString@@PAU_Node@?$_Tree_nod@V?$_Tmap_traits@VioHashString@@UDamageData@DamageTable@@U?$less@VioHashString@@@std@@V?$allocator@U?$pair@$$CBVioHashString@@UDamageData@DamageTable@@@std@@@5@$0A@@std@@@2@@Z
_TEXT	SEGMENT
__Pnode$ = 8						; size = 4
?_Key@?$_Tree_val@V?$_Tmap_traits@VioHashString@@UDamageData@DamageTable@@U?$less@VioHashString@@@std@@V?$allocator@U?$pair@$$CBVioHashString@@UDamageData@DamageTable@@@std@@@5@$0A@@std@@@std@@SAAAVioHashString@@PAU_Node@?$_Tree_nod@V?$_Tmap_traits@VioHashString@@UDamageData@DamageTable@@U?$less@VioHashString@@@std@@V?$allocator@U?$pair@$$CBVioHashString@@UDamageData@DamageTable@@@std@@@5@$0A@@std@@@2@@Z PROC ; std::_Tree_val<std::_Tmap_traits<ioHashString,DamageTable::DamageData,std::less<ioHashString>,std::allocator<std::pair<ioHashString const ,DamageTable::DamageData> >,0> >::_Key, COMDAT

; 616  : 		{	// return reference to key in node

  00000	55		 push	 ebp
  00001	8b ec		 mov	 ebp, esp

; 617  : 		return ((key_type&)_Traits::_Kfn(_Myval(_Pnode)));

  00003	8b 45 08	 mov	 eax, DWORD PTR __Pnode$[ebp]
  00006	83 c0 0c	 add	 eax, 12			; 0000000cH

; 618  : 		}

  00009	5d		 pop	 ebp
  0000a	c3		 ret	 0
?_Key@?$_Tree_val@V?$_Tmap_traits@VioHashString@@UDamageData@DamageTable@@U?$less@VioHashString@@@std@@V?$allocator@U?$pair@$$CBVioHashString@@UDamageData@DamageTable@@@std@@@5@$0A@@std@@@std@@SAAAVioHashString@@PAU_Node@?$_Tree_nod@V?$_Tmap_traits@VioHashString@@UDamageData@DamageTable@@U?$less@VioHashString@@@std@@V?$allocator@U?$pair@$$CBVioHashString@@UDamageData@DamageTable@@@std@@@5@$0A@@std@@@2@@Z ENDP ; std::_Tree_val<std::_Tmap_traits<ioHashString,DamageTable::DamageData,std::less<ioHashString>,std::allocator<std::pair<ioHashString const ,DamageTable::DamageData> >,0> >::_Key
_TEXT	ENDS
PUBLIC	??D?$_Tree_iterator@V?$_Tree_val@V?$_Tmap_traits@VioHashString@@UDamageData@DamageTable@@U?$less@VioHashString@@@std@@V?$allocator@U?$pair@$$CBVioHashString@@UDamageData@DamageTable@@@std@@@5@$0A@@std@@@std@@@std@@QBEAAU?$pair@$$CBVioHashString@@UDamageData@DamageTable@@@1@XZ ; std::_Tree_iterator<std::_Tree_val<std::_Tmap_traits<ioHashString,DamageTable::DamageData,std::less<ioHashString>,std::allocator<std::pair<ioHashString const ,DamageTable::DamageData> >,0> > >::operator*
; Function compile flags: /Ogsp
;	COMDAT ??D?$_Tree_iterator@V?$_Tree_val@V?$_Tmap_traits@VioHashString@@UDamageData@DamageTable@@U?$less@VioHashString@@@std@@V?$allocator@U?$pair@$$CBVioHashString@@UDamageData@DamageTable@@@std@@@5@$0A@@std@@@std@@@std@@QBEAAU?$pair@$$CBVioHashString@@UDamageData@DamageTable@@@1@XZ
_TEXT	SEGMENT
??D?$_Tree_iterator@V?$_Tree_val@V?$_Tmap_traits@VioHashString@@UDamageData@DamageTable@@U?$less@VioHashString@@@std@@V?$allocator@U?$pair@$$CBVioHashString@@UDamageData@DamageTable@@@std@@@5@$0A@@std@@@std@@@std@@QBEAAU?$pair@$$CBVioHashString@@UDamageData@DamageTable@@@1@XZ PROC ; std::_Tree_iterator<std::_Tree_val<std::_Tmap_traits<ioHashString,DamageTable::DamageData,std::less<ioHashString>,std::allocator<std::pair<ioHashString const ,DamageTable::DamageData> >,0> > >::operator*, COMDAT
; _this$ = ecx

; 396  : 		return ((reference)**(_Mybase *)this);

  00000	8b 01		 mov	 eax, DWORD PTR [ecx]
  00002	83 c0 0c	 add	 eax, 12			; 0000000cH

; 397  : 		}

  00005	c3		 ret	 0
??D?$_Tree_iterator@V?$_Tree_val@V?$_Tmap_traits@VioHashString@@UDamageData@DamageTable@@U?$less@VioHashString@@@std@@V?$allocator@U?$pair@$$CBVioHashString@@UDamageData@DamageTable@@@std@@@5@$0A@@std@@@std@@@std@@QBEAAU?$pair@$$CBVioHashString@@UDamageData@DamageTable@@@1@XZ ENDP ; std::_Tree_iterator<std::_Tree_val<std::_Tmap_traits<ioHashString,DamageTable::DamageData,std::less<ioHashString>,std::allocator<std::pair<ioHashString const ,DamageTable::DamageData> >,0> > >::operator*
_TEXT	ENDS
PUBLIC	??0?$_Tree_const_iterator@V?$_Tree_val@V?$_Tmap_traits@VioHashString@@UDamageData@DamageTable@@U?$less@VioHashString@@@std@@V?$allocator@U?$pair@$$CBVioHashString@@UDamageData@DamageTable@@@std@@@5@$0A@@std@@@std@@@std@@QAE@XZ ; std::_Tree_const_iterator<std::_Tree_val<std::_Tmap_traits<ioHashString,DamageTable::DamageData,std::less<ioHashString>,std::allocator<std::pair<ioHashString const ,DamageTable::DamageData> >,0> > >::_Tree_const_iterator<std::_Tree_val<std::_Tmap_traits<ioHashString,DamageTable::DamageData,std::less<ioHashString>,std::allocator<std::pair<ioHashString const ,DamageTable::DamageData> >,0> > >
; Function compile flags: /Ogsp
;	COMDAT ??0?$_Tree_const_iterator@V?$_Tree_val@V?$_Tmap_traits@VioHashString@@UDamageData@DamageTable@@U?$less@VioHashString@@@std@@V?$allocator@U?$pair@$$CBVioHashString@@UDamageData@DamageTable@@@std@@@5@$0A@@std@@@std@@@std@@QAE@XZ
_TEXT	SEGMENT
??0?$_Tree_const_iterator@V?$_Tree_val@V?$_Tmap_traits@VioHashString@@UDamageData@DamageTable@@U?$less@VioHashString@@@std@@V?$allocator@U?$pair@$$CBVioHashString@@UDamageData@DamageTable@@@std@@@5@$0A@@std@@@std@@@std@@QAE@XZ PROC ; std::_Tree_const_iterator<std::_Tree_val<std::_Tmap_traits<ioHashString,DamageTable::DamageData,std::less<ioHashString>,std::allocator<std::pair<ioHashString const ,DamageTable::DamageData> >,0> > >::_Tree_const_iterator<std::_Tree_val<std::_Tmap_traits<ioHashString,DamageTable::DamageData,std::less<ioHashString>,std::allocator<std::pair<ioHashString const ,DamageTable::DamageData> >,0> > >, COMDAT
; _this$ = ecx

; 208  : 		{	// construct with null node pointer

  00000	8b c1		 mov	 eax, ecx
  00002	83 20 00	 and	 DWORD PTR [eax], 0

; 209  : 		}

  00005	c3		 ret	 0
??0?$_Tree_const_iterator@V?$_Tree_val@V?$_Tmap_traits@VioHashString@@UDamageData@DamageTable@@U?$less@VioHashString@@@std@@V?$allocator@U?$pair@$$CBVioHashString@@UDamageData@DamageTable@@@std@@@5@$0A@@std@@@std@@@std@@QAE@XZ ENDP ; std::_Tree_const_iterator<std::_Tree_val<std::_Tmap_traits<ioHashString,DamageTable::DamageData,std::less<ioHashString>,std::allocator<std::pair<ioHashString const ,DamageTable::DamageData> >,0> > >::_Tree_const_iterator<std::_Tree_val<std::_Tmap_traits<ioHashString,DamageTable::DamageData,std::less<ioHashString>,std::allocator<std::pair<ioHashString const ,DamageTable::DamageData> >,0> > >
_TEXT	ENDS
PUBLIC	?_Lbound@?$_Tree@V?$_Tmap_traits@VioHashString@@UDamageData@DamageTable@@U?$less@VioHashString@@@std@@V?$allocator@U?$pair@$$CBVioHashString@@UDamageData@DamageTable@@@std@@@5@$0A@@std@@@std@@IAEPAU_Node@?$_Tree_nod@V?$_Tmap_traits@VioHashString@@UDamageData@DamageTable@@U?$less@VioHashString@@@std@@V?$allocator@U?$pair@$$CBVioHashString@@UDamageData@DamageTable@@@std@@@5@$0A@@std@@@2@ABVioHashString@@@Z ; std::_Tree<std::_Tmap_traits<ioHashString,DamageTable::DamageData,std::less<ioHashString>,std::allocator<std::pair<ioHashString const ,DamageTable::DamageData> >,0> >::_Lbound
; Function compile flags: /Ogsp
;	COMDAT ?_Lbound@?$_Tree@V?$_Tmap_traits@VioHashString@@UDamageData@DamageTable@@U?$less@VioHashString@@@std@@V?$allocator@U?$pair@$$CBVioHashString@@UDamageData@DamageTable@@@std@@@5@$0A@@std@@@std@@IAEPAU_Node@?$_Tree_nod@V?$_Tmap_traits@VioHashString@@UDamageData@DamageTable@@U?$less@VioHashString@@@std@@V?$allocator@U?$pair@$$CBVioHashString@@UDamageData@DamageTable@@@std@@@5@$0A@@std@@@2@ABVioHashString@@@Z
_TEXT	SEGMENT
__Keyval$ = 8						; size = 4
?_Lbound@?$_Tree@V?$_Tmap_traits@VioHashString@@UDamageData@DamageTable@@U?$less@VioHashString@@@std@@V?$allocator@U?$pair@$$CBVioHashString@@UDamageData@DamageTable@@@std@@@5@$0A@@std@@@std@@IAEPAU_Node@?$_Tree_nod@V?$_Tmap_traits@VioHashString@@UDamageData@DamageTable@@U?$less@VioHashString@@@std@@V?$allocator@U?$pair@$$CBVioHashString@@UDamageData@DamageTable@@@std@@@5@$0A@@std@@@2@ABVioHashString@@@Z PROC ; std::_Tree<std::_Tmap_traits<ioHashString,DamageTable::DamageData,std::less<ioHashString>,std::allocator<std::pair<ioHashString const ,DamageTable::DamageData> >,0> >::_Lbound, COMDAT
; _this$ = ecx

; 1741 : 		{	// find leftmost node not less than _Keyval

  00000	55		 push	 ebp
  00001	8b ec		 mov	 ebp, esp

; 1742 : 		_Nodeptr _Pnode = _Root();

  00003	8b 41 04	 mov	 eax, DWORD PTR [ecx+4]
  00006	56		 push	 esi
  00007	8b 70 04	 mov	 esi, DWORD PTR [eax+4]
  0000a	57		 push	 edi

; 1743 : 		_Nodeptr _Wherenode = this->_Myhead;	// end() if search fails

  0000b	8b f8		 mov	 edi, eax
  0000d	eb 19		 jmp	 SHORT $LN26@Lbound
$LL4@Lbound:

; 1746 : 			if (_DEBUG_LT_PRED(this->comp, this->_Key(_Pnode), _Keyval))

  0000f	ff 75 08	 push	 DWORD PTR __Keyval$[ebp]
  00012	8d 4e 0c	 lea	 ecx, DWORD PTR [esi+12]
  00015	ff 15 00 00 00
	00		 call	 DWORD PTR __imp_??MioHashString@@QBE_NABV0@@Z
  0001b	84 c0		 test	 al, al
  0001d	74 05		 je	 SHORT $LN2@Lbound

; 1747 : 				_Pnode = this->_Right(_Pnode);	// descend right subtree

  0001f	8b 76 08	 mov	 esi, DWORD PTR [esi+8]

; 1748 : 			else

  00022	eb 04		 jmp	 SHORT $LN26@Lbound
$LN2@Lbound:

; 1749 : 				{	// _Pnode not less than _Keyval, remember it
; 1750 : 				_Wherenode = _Pnode;

  00024	8b fe		 mov	 edi, esi

; 1751 : 				_Pnode = this->_Left(_Pnode);	// descend left subtree

  00026	8b 36		 mov	 esi, DWORD PTR [esi]
$LN26@Lbound:

; 1744 : 
; 1745 : 		while (!this->_Isnil(_Pnode))

  00028	80 7e 25 00	 cmp	 BYTE PTR [esi+37], 0
  0002c	74 e1		 je	 SHORT $LL4@Lbound

; 1752 : 				}
; 1753 : 
; 1754 : 		return (_Wherenode);	// return best remembered candidate

  0002e	8b c7		 mov	 eax, edi
  00030	5f		 pop	 edi
  00031	5e		 pop	 esi

; 1755 : 		}

  00032	5d		 pop	 ebp
  00033	c2 04 00	 ret	 4
?_Lbound@?$_Tree@V?$_Tmap_traits@VioHashString@@UDamageData@DamageTable@@U?$less@VioHashString@@@std@@V?$allocator@U?$pair@$$CBVioHashString@@UDamageData@DamageTable@@@std@@@5@$0A@@std@@@std@@IAEPAU_Node@?$_Tree_nod@V?$_Tmap_traits@VioHashString@@UDamageData@DamageTable@@U?$less@VioHashString@@@std@@V?$allocator@U?$pair@$$CBVioHashString@@UDamageData@DamageTable@@@std@@@5@$0A@@std@@@2@ABVioHashString@@@Z ENDP ; std::_Tree<std::_Tmap_traits<ioHashString,DamageTable::DamageData,std::less<ioHashString>,std::allocator<std::pair<ioHashString const ,DamageTable::DamageData> >,0> >::_Lbound
_TEXT	ENDS
PUBLIC	??E?$_Tree_unchecked_const_iterator@V?$_Tree_val@V?$_Tmap_traits@VioHashString@@UDamageData@DamageTable@@U?$less@VioHashString@@@std@@V?$allocator@U?$pair@$$CBVioHashString@@UDamageData@DamageTable@@@std@@@5@$0A@@std@@@std@@U_Iterator_base0@2@@std@@QAEAAV01@XZ ; std::_Tree_unchecked_const_iterator<std::_Tree_val<std::_Tmap_traits<ioHashString,DamageTable::DamageData,std::less<ioHashString>,std::allocator<std::pair<ioHashString const ,DamageTable::DamageData> >,0> >,std::_Iterator_base0>::operator++
; Function compile flags: /Ogsp
;	COMDAT ??E?$_Tree_unchecked_const_iterator@V?$_Tree_val@V?$_Tmap_traits@VioHashString@@UDamageData@DamageTable@@U?$less@VioHashString@@@std@@V?$allocator@U?$pair@$$CBVioHashString@@UDamageData@DamageTable@@@std@@@5@$0A@@std@@@std@@U_Iterator_base0@2@@std@@QAEAAV01@XZ
_TEXT	SEGMENT
??E?$_Tree_unchecked_const_iterator@V?$_Tree_val@V?$_Tmap_traits@VioHashString@@UDamageData@DamageTable@@U?$less@VioHashString@@@std@@V?$allocator@U?$pair@$$CBVioHashString@@UDamageData@DamageTable@@@std@@@5@$0A@@std@@@std@@U_Iterator_base0@2@@std@@QAEAAV01@XZ PROC ; std::_Tree_unchecked_const_iterator<std::_Tree_val<std::_Tmap_traits<ioHashString,DamageTable::DamageData,std::less<ioHashString>,std::allocator<std::pair<ioHashString const ,DamageTable::DamageData> >,0> >,std::_Iterator_base0>::operator++, COMDAT
; _this$ = ecx

; 58   : 		{	// preincrement

  00000	8b c1		 mov	 eax, ecx

; 59   : 		if (_Mytree::_Isnil(_Ptr))

  00002	8b 08		 mov	 ecx, DWORD PTR [eax]
  00004	53		 push	 ebx
  00005	32 db		 xor	 bl, bl
  00007	38 59 25	 cmp	 BYTE PTR [ecx+37], bl
  0000a	75 2d		 jne	 SHORT $LN3@operator@2

; 60   : 			;	// end() shouldn't be incremented, don't move
; 61   : 		else if (!_Mytree::_Isnil(_Mytree::_Right(_Ptr)))

  0000c	8b 51 08	 mov	 edx, DWORD PTR [ecx+8]
  0000f	38 5a 25	 cmp	 BYTE PTR [edx+37], bl
  00012	75 0d		 jne	 SHORT $LN34@operator@2

; 62   : 			_Ptr = _Mytree::_Min(
; 63   : 				_Mytree::_Right(_Ptr));	// ==> smallest of right subtree

$LL18@operator@2:
  00014	8b ca		 mov	 ecx, edx
  00016	8b 11		 mov	 edx, DWORD PTR [ecx]
  00018	38 5a 25	 cmp	 BYTE PTR [edx+37], bl
  0001b	74 f7		 je	 SHORT $LL18@operator@2
  0001d	89 08		 mov	 DWORD PTR [eax], ecx
  0001f	5b		 pop	 ebx

; 71   : 			}
; 72   : 		return (*this);
; 73   : 		}

  00020	c3		 ret	 0
$LN34@operator@2:

; 64   : 		else
; 65   : 			{	// climb looking for right subtree
; 66   : 			_Nodeptr _Pnode;
; 67   : 			while (!_Mytree::_Isnil(_Pnode = _Mytree::_Parent(_Ptr))
; 68   : 				&& _Ptr == _Mytree::_Right(_Pnode))

  00021	8b 51 04	 mov	 edx, DWORD PTR [ecx+4]
  00024	eb 0c		 jmp	 SHORT $LN38@operator@2
$LL2@operator@2:
  00026	8b 08		 mov	 ecx, DWORD PTR [eax]
  00028	3b 4a 08	 cmp	 ecx, DWORD PTR [edx+8]
  0002b	75 0a		 jne	 SHORT $LN1@operator@2

; 69   : 				_Ptr = _Pnode;	// ==> parent while right subtree

  0002d	89 10		 mov	 DWORD PTR [eax], edx
  0002f	8b 52 04	 mov	 edx, DWORD PTR [edx+4]
$LN38@operator@2:

; 64   : 		else
; 65   : 			{	// climb looking for right subtree
; 66   : 			_Nodeptr _Pnode;
; 67   : 			while (!_Mytree::_Isnil(_Pnode = _Mytree::_Parent(_Ptr))
; 68   : 				&& _Ptr == _Mytree::_Right(_Pnode))

  00032	38 5a 25	 cmp	 BYTE PTR [edx+37], bl
  00035	74 ef		 je	 SHORT $LL2@operator@2
$LN1@operator@2:

; 70   : 			_Ptr = _Pnode;	// ==> parent (head if end())

  00037	89 10		 mov	 DWORD PTR [eax], edx
$LN3@operator@2:
  00039	5b		 pop	 ebx

; 71   : 			}
; 72   : 		return (*this);
; 73   : 		}

  0003a	c3		 ret	 0
??E?$_Tree_unchecked_const_iterator@V?$_Tree_val@V?$_Tmap_traits@VioHashString@@UDamageData@DamageTable@@U?$less@VioHashString@@@std@@V?$allocator@U?$pair@$$CBVioHashString@@UDamageData@DamageTable@@@std@@@5@$0A@@std@@@std@@U_Iterator_base0@2@@std@@QAEAAV01@XZ ENDP ; std::_Tree_unchecked_const_iterator<std::_Tree_val<std::_Tmap_traits<ioHashString,DamageTable::DamageData,std::less<ioHashString>,std::allocator<std::pair<ioHashString const ,DamageTable::DamageData> >,0> >,std::_Iterator_base0>::operator++
_TEXT	ENDS
PUBLIC	??0?$_Tree_nod@V?$_Tmap_traits@VioHashString@@UDamageData@DamageTable@@U?$less@VioHashString@@@std@@V?$allocator@U?$pair@$$CBVioHashString@@UDamageData@DamageTable@@@std@@@5@$0A@@std@@@std@@QAE@ABU?$less@VioHashString@@@1@V?$allocator@U?$pair@$$CBVioHashString@@UDamageData@DamageTable@@@std@@@1@@Z ; std::_Tree_nod<std::_Tmap_traits<ioHashString,DamageTable::DamageData,std::less<ioHashString>,std::allocator<std::pair<ioHashString const ,DamageTable::DamageData> >,0> >::_Tree_nod<std::_Tmap_traits<ioHashString,DamageTable::DamageData,std::less<ioHashString>,std::allocator<std::pair<ioHashString const ,DamageTable::DamageData> >,0> >
; Function compile flags: /Ogsp
;	COMDAT ??0?$_Tree_nod@V?$_Tmap_traits@VioHashString@@UDamageData@DamageTable@@U?$less@VioHashString@@@std@@V?$allocator@U?$pair@$$CBVioHashString@@UDamageData@DamageTable@@@std@@@5@$0A@@std@@@std@@QAE@ABU?$less@VioHashString@@@1@V?$allocator@U?$pair@$$CBVioHashString@@UDamageData@DamageTable@@@std@@@1@@Z
_TEXT	SEGMENT
__Parg$ = 8						; size = 4
__Al$ = 12						; size = 1
??0?$_Tree_nod@V?$_Tmap_traits@VioHashString@@UDamageData@DamageTable@@U?$less@VioHashString@@@std@@V?$allocator@U?$pair@$$CBVioHashString@@UDamageData@DamageTable@@@std@@@5@$0A@@std@@@std@@QAE@ABU?$less@VioHashString@@@1@V?$allocator@U?$pair@$$CBVioHashString@@UDamageData@DamageTable@@@std@@@1@@Z PROC ; std::_Tree_nod<std::_Tmap_traits<ioHashString,DamageTable::DamageData,std::less<ioHashString>,std::allocator<std::pair<ioHashString const ,DamageTable::DamageData> >,0> >::_Tree_nod<std::_Tmap_traits<ioHashString,DamageTable::DamageData,std::less<ioHashString>,std::allocator<std::pair<ioHashString const ,DamageTable::DamageData> >,0> >, COMDAT
; _this$ = ecx

; 482  : 		{	// construct traits from _Parg and allocators from _Al

  00000	8b c1		 mov	 eax, ecx

; 483  : 		}

  00002	c2 08 00	 ret	 8
??0?$_Tree_nod@V?$_Tmap_traits@VioHashString@@UDamageData@DamageTable@@U?$less@VioHashString@@@std@@V?$allocator@U?$pair@$$CBVioHashString@@UDamageData@DamageTable@@@std@@@5@$0A@@std@@@std@@QAE@ABU?$less@VioHashString@@@1@V?$allocator@U?$pair@$$CBVioHashString@@UDamageData@DamageTable@@@std@@@1@@Z ENDP ; std::_Tree_nod<std::_Tmap_traits<ioHashString,DamageTable::DamageData,std::less<ioHashString>,std::allocator<std::pair<ioHashString const ,DamageTable::DamageData> >,0> >::_Tree_nod<std::_Tmap_traits<ioHashString,DamageTable::DamageData,std::less<ioHashString>,std::allocator<std::pair<ioHashString const ,DamageTable::DamageData> >,0> >
_TEXT	ENDS
PUBLIC	?allocate@?$allocator@U_Node@?$_Tree_nod@V?$_Tmap_traits@VioHashString@@UDamageData@DamageTable@@U?$less@VioHashString@@@std@@V?$allocator@U?$pair@$$CBVioHashString@@UDamageData@DamageTable@@@std@@@5@$0A@@std@@@std@@@std@@QAEPAU_Node@?$_Tree_nod@V?$_Tmap_traits@VioHashString@@UDamageData@DamageTable@@U?$less@VioHashString@@@std@@V?$allocator@U?$pair@$$CBVioHashString@@UDamageData@DamageTable@@@std@@@5@$0A@@std@@@2@I@Z ; std::allocator<std::_Tree_nod<std::_Tmap_traits<ioHashString,DamageTable::DamageData,std::less<ioHashString>,std::allocator<std::pair<ioHashString const ,DamageTable::DamageData> >,0> >::_Node>::allocate
; Function compile flags: /Ogsp
; File c:\program files (x86)\microsoft visual studio 10.0\vc\include\xmemory
;	COMDAT ?allocate@?$allocator@U_Node@?$_Tree_nod@V?$_Tmap_traits@VioHashString@@UDamageData@DamageTable@@U?$less@VioHashString@@@std@@V?$allocator@U?$pair@$$CBVioHashString@@UDamageData@DamageTable@@@std@@@5@$0A@@std@@@std@@@std@@QAEPAU_Node@?$_Tree_nod@V?$_Tmap_traits@VioHashString@@UDamageData@DamageTable@@U?$less@VioHashString@@@std@@V?$allocator@U?$pair@$$CBVioHashString@@UDamageData@DamageTable@@@std@@@5@$0A@@std@@@2@I@Z
_TEXT	SEGMENT
__Count$ = 8						; size = 4
?allocate@?$allocator@U_Node@?$_Tree_nod@V?$_Tmap_traits@VioHashString@@UDamageData@DamageTable@@U?$less@VioHashString@@@std@@V?$allocator@U?$pair@$$CBVioHashString@@UDamageData@DamageTable@@@std@@@5@$0A@@std@@@std@@@std@@QAEPAU_Node@?$_Tree_nod@V?$_Tmap_traits@VioHashString@@UDamageData@DamageTable@@U?$less@VioHashString@@@std@@V?$allocator@U?$pair@$$CBVioHashString@@UDamageData@DamageTable@@@std@@@5@$0A@@std@@@2@I@Z PROC ; std::allocator<std::_Tree_nod<std::_Tmap_traits<ioHashString,DamageTable::DamageData,std::less<ioHashString>,std::allocator<std::pair<ioHashString const ,DamageTable::DamageData> >,0> >::_Node>::allocate, COMDAT
; _this$ = ecx

; 186  : 		{	// allocate array of _Count elements

  00000	55		 push	 ebp
  00001	8b ec		 mov	 ebp, esp

; 187  : 		return (_Allocate(_Count, (pointer)0));

  00003	6a 00		 push	 0
  00005	ff 75 08	 push	 DWORD PTR __Count$[ebp]
  00008	e8 00 00 00 00	 call	 ??$_Allocate@U_Node@?$_Tree_nod@V?$_Tmap_traits@VioHashString@@UDamageData@DamageTable@@U?$less@VioHashString@@@std@@V?$allocator@U?$pair@$$CBVioHashString@@UDamageData@DamageTable@@@std@@@5@$0A@@std@@@std@@@std@@YAPAU_Node@?$_Tree_nod@V?$_Tmap_traits@VioHashString@@UDamageData@DamageTable@@U?$less@VioHashString@@@std@@V?$allocator@U?$pair@$$CBVioHashString@@UDamageData@DamageTable@@@std@@@5@$0A@@std@@@0@IPAU120@@Z ; std::_Allocate<std::_Tree_nod<std::_Tmap_traits<ioHashString,DamageTable::DamageData,std::less<ioHashString>,std::allocator<std::pair<ioHashString const ,DamageTable::DamageData> >,0> >::_Node>
  0000d	59		 pop	 ecx
  0000e	59		 pop	 ecx

; 188  : 		}

  0000f	5d		 pop	 ebp
  00010	c2 04 00	 ret	 4
?allocate@?$allocator@U_Node@?$_Tree_nod@V?$_Tmap_traits@VioHashString@@UDamageData@DamageTable@@U?$less@VioHashString@@@std@@V?$allocator@U?$pair@$$CBVioHashString@@UDamageData@DamageTable@@@std@@@5@$0A@@std@@@std@@@std@@QAEPAU_Node@?$_Tree_nod@V?$_Tmap_traits@VioHashString@@UDamageData@DamageTable@@U?$less@VioHashString@@@std@@V?$allocator@U?$pair@$$CBVioHashString@@UDamageData@DamageTable@@@std@@@5@$0A@@std@@@2@I@Z ENDP ; std::allocator<std::_Tree_nod<std::_Tmap_traits<ioHashString,DamageTable::DamageData,std::less<ioHashString>,std::allocator<std::pair<ioHashString const ,DamageTable::DamageData> >,0> >::_Node>::allocate
_TEXT	ENDS
PUBLIC	??0?$_Tree_unchecked_const_iterator@V?$_Tree_val@V?$_Tmap_traits@VioHashString@@UDamageData@DamageTable@@U?$less@VioHashString@@@std@@V?$allocator@U?$pair@$$CBVioHashString@@UDamageData@DamageTable@@@std@@@5@$0A@@std@@@std@@U_Iterator_base0@2@@std@@QAE@PAU_Node@?$_Tree_nod@V?$_Tmap_traits@VioHashString@@UDamageData@DamageTable@@U?$less@VioHashString@@@std@@V?$allocator@U?$pair@$$CBVioHashString@@UDamageData@DamageTable@@@std@@@5@$0A@@std@@@1@PBV?$_Tree_val@V?$_Tmap_traits@VioHashString@@UDamageData@DamageTable@@U?$less@VioHashString@@@std@@V?$allocator@U?$pair@$$CBVioHashString@@UDamageData@DamageTable@@@std@@@5@$0A@@std@@@1@@Z ; std::_Tree_unchecked_const_iterator<std::_Tree_val<std::_Tmap_traits<ioHashString,DamageTable::DamageData,std::less<ioHashString>,std::allocator<std::pair<ioHashString const ,DamageTable::DamageData> >,0> >,std::_Iterator_base0>::_Tree_unchecked_const_iterator<std::_Tree_val<std::_Tmap_traits<ioHashString,DamageTable::DamageData,std::less<ioHashString>,std::allocator<std::pair<ioHashString const ,DamageTable::DamageData> >,0> >,std::_Iterator_base0>
; Function compile flags: /Ogsp
; File c:\program files (x86)\microsoft visual studio 10.0\vc\include\xtree
;	COMDAT ??0?$_Tree_unchecked_const_iterator@V?$_Tree_val@V?$_Tmap_traits@VioHashString@@UDamageData@DamageTable@@U?$less@VioHashString@@@std@@V?$allocator@U?$pair@$$CBVioHashString@@UDamageData@DamageTable@@@std@@@5@$0A@@std@@@std@@U_Iterator_base0@2@@std@@QAE@PAU_Node@?$_Tree_nod@V?$_Tmap_traits@VioHashString@@UDamageData@DamageTable@@U?$less@VioHashString@@@std@@V?$allocator@U?$pair@$$CBVioHashString@@UDamageData@DamageTable@@@std@@@5@$0A@@std@@@1@PBV?$_Tree_val@V?$_Tmap_traits@VioHashString@@UDamageData@DamageTable@@U?$less@VioHashString@@@std@@V?$allocator@U?$pair@$$CBVioHashString@@UDamageData@DamageTable@@@std@@@5@$0A@@std@@@1@@Z
_TEXT	SEGMENT
__Pnode$ = 8						; size = 4
__Plist$ = 12						; size = 4
??0?$_Tree_unchecked_const_iterator@V?$_Tree_val@V?$_Tmap_traits@VioHashString@@UDamageData@DamageTable@@U?$less@VioHashString@@@std@@V?$allocator@U?$pair@$$CBVioHashString@@UDamageData@DamageTable@@@std@@@5@$0A@@std@@@std@@U_Iterator_base0@2@@std@@QAE@PAU_Node@?$_Tree_nod@V?$_Tmap_traits@VioHashString@@UDamageData@DamageTable@@U?$less@VioHashString@@@std@@V?$allocator@U?$pair@$$CBVioHashString@@UDamageData@DamageTable@@@std@@@5@$0A@@std@@@1@PBV?$_Tree_val@V?$_Tmap_traits@VioHashString@@UDamageData@DamageTable@@U?$less@VioHashString@@@std@@V?$allocator@U?$pair@$$CBVioHashString@@UDamageData@DamageTable@@@std@@@5@$0A@@std@@@1@@Z PROC ; std::_Tree_unchecked_const_iterator<std::_Tree_val<std::_Tmap_traits<ioHashString,DamageTable::DamageData,std::less<ioHashString>,std::allocator<std::pair<ioHashString const ,DamageTable::DamageData> >,0> >,std::_Iterator_base0>::_Tree_unchecked_const_iterator<std::_Tree_val<std::_Tmap_traits<ioHashString,DamageTable::DamageData,std::less<ioHashString>,std::allocator<std::pair<ioHashString const ,DamageTable::DamageData> >,0> >,std::_Iterator_base0>, COMDAT
; _this$ = ecx

; 43   : 		{	// construct with node pointer _Pnode

  00000	55		 push	 ebp
  00001	8b ec		 mov	 ebp, esp
  00003	8b c1		 mov	 eax, ecx
  00005	8b 4d 08	 mov	 ecx, DWORD PTR __Pnode$[ebp]
  00008	89 08		 mov	 DWORD PTR [eax], ecx

; 44   : 		this->_Adopt(_Plist);
; 45   : 		}

  0000a	5d		 pop	 ebp
  0000b	c2 08 00	 ret	 8
??0?$_Tree_unchecked_const_iterator@V?$_Tree_val@V?$_Tmap_traits@VioHashString@@UDamageData@DamageTable@@U?$less@VioHashString@@@std@@V?$allocator@U?$pair@$$CBVioHashString@@UDamageData@DamageTable@@@std@@@5@$0A@@std@@@std@@U_Iterator_base0@2@@std@@QAE@PAU_Node@?$_Tree_nod@V?$_Tmap_traits@VioHashString@@UDamageData@DamageTable@@U?$less@VioHashString@@@std@@V?$allocator@U?$pair@$$CBVioHashString@@UDamageData@DamageTable@@@std@@@5@$0A@@std@@@1@PBV?$_Tree_val@V?$_Tmap_traits@VioHashString@@UDamageData@DamageTable@@U?$less@VioHashString@@@std@@V?$allocator@U?$pair@$$CBVioHashString@@UDamageData@DamageTable@@@std@@@5@$0A@@std@@@1@@Z ENDP ; std::_Tree_unchecked_const_iterator<std::_Tree_val<std::_Tmap_traits<ioHashString,DamageTable::DamageData,std::less<ioHashString>,std::allocator<std::pair<ioHashString const ,DamageTable::DamageData> >,0> >,std::_Iterator_base0>::_Tree_unchecked_const_iterator<std::_Tree_val<std::_Tmap_traits<ioHashString,DamageTable::DamageData,std::less<ioHashString>,std::allocator<std::pair<ioHashString const ,DamageTable::DamageData> >,0> >,std::_Iterator_base0>
_TEXT	ENDS
PUBLIC	?_Lrotate@?$_Tree@V?$_Tmap_traits@VioHashString@@UDamageData@DamageTable@@U?$less@VioHashString@@@std@@V?$allocator@U?$pair@$$CBVioHashString@@UDamageData@DamageTable@@@std@@@5@$0A@@std@@@std@@IAEXPAU_Node@?$_Tree_nod@V?$_Tmap_traits@VioHashString@@UDamageData@DamageTable@@U?$less@VioHashString@@@std@@V?$allocator@U?$pair@$$CBVioHashString@@UDamageData@DamageTable@@@std@@@5@$0A@@std@@@2@@Z ; std::_Tree<std::_Tmap_traits<ioHashString,DamageTable::DamageData,std::less<ioHashString>,std::allocator<std::pair<ioHashString const ,DamageTable::DamageData> >,0> >::_Lrotate
; Function compile flags: /Ogsp
;	COMDAT ?_Lrotate@?$_Tree@V?$_Tmap_traits@VioHashString@@UDamageData@DamageTable@@U?$less@VioHashString@@@std@@V?$allocator@U?$pair@$$CBVioHashString@@UDamageData@DamageTable@@@std@@@5@$0A@@std@@@std@@IAEXPAU_Node@?$_Tree_nod@V?$_Tmap_traits@VioHashString@@UDamageData@DamageTable@@U?$less@VioHashString@@@std@@V?$allocator@U?$pair@$$CBVioHashString@@UDamageData@DamageTable@@@std@@@5@$0A@@std@@@2@@Z
_TEXT	SEGMENT
__Wherenode$ = 8					; size = 4
?_Lrotate@?$_Tree@V?$_Tmap_traits@VioHashString@@UDamageData@DamageTable@@U?$less@VioHashString@@@std@@V?$allocator@U?$pair@$$CBVioHashString@@UDamageData@DamageTable@@@std@@@5@$0A@@std@@@std@@IAEXPAU_Node@?$_Tree_nod@V?$_Tmap_traits@VioHashString@@UDamageData@DamageTable@@U?$less@VioHashString@@@std@@V?$allocator@U?$pair@$$CBVioHashString@@UDamageData@DamageTable@@@std@@@5@$0A@@std@@@2@@Z PROC ; std::_Tree<std::_Tmap_traits<ioHashString,DamageTable::DamageData,std::less<ioHashString>,std::allocator<std::pair<ioHashString const ,DamageTable::DamageData> >,0> >::_Lrotate, COMDAT
; _this$ = ecx

; 1763 : 		{	// promote right node to root of subtree

  00000	55		 push	 ebp
  00001	8b ec		 mov	 ebp, esp

; 1764 : 		_Nodeptr _Pnode = this->_Right(_Wherenode);

  00003	8b 55 08	 mov	 edx, DWORD PTR __Wherenode$[ebp]
  00006	8b 42 08	 mov	 eax, DWORD PTR [edx+8]
  00009	56		 push	 esi

; 1765 : 		this->_Right(_Wherenode) = this->_Left(_Pnode);

  0000a	8b 30		 mov	 esi, DWORD PTR [eax]
  0000c	89 72 08	 mov	 DWORD PTR [edx+8], esi

; 1766 : 
; 1767 : 		if (!this->_Isnil(this->_Left(_Pnode)))

  0000f	8b 30		 mov	 esi, DWORD PTR [eax]
  00011	80 7e 25 00	 cmp	 BYTE PTR [esi+37], 0
  00015	75 03		 jne	 SHORT $LN5@Lrotate

; 1768 : 			this->_Parent(this->_Left(_Pnode)) = _Wherenode;

  00017	89 56 04	 mov	 DWORD PTR [esi+4], edx
$LN5@Lrotate:

; 1769 : 		this->_Parent(_Pnode) = this->_Parent(_Wherenode);

  0001a	8b 72 04	 mov	 esi, DWORD PTR [edx+4]
  0001d	89 70 04	 mov	 DWORD PTR [eax+4], esi

; 1770 : 
; 1771 : 		if (_Wherenode == _Root())

  00020	8b 49 04	 mov	 ecx, DWORD PTR [ecx+4]
  00023	5e		 pop	 esi
  00024	3b 51 04	 cmp	 edx, DWORD PTR [ecx+4]
  00027	75 05		 jne	 SHORT $LN4@Lrotate

; 1772 : 			_Root() = _Pnode;

  00029	89 41 04	 mov	 DWORD PTR [ecx+4], eax

; 1773 : 		else if (_Wherenode == this->_Left(this->_Parent(_Wherenode)))

  0002c	eb 0e		 jmp	 SHORT $LN1@Lrotate
$LN4@Lrotate:
  0002e	8b 4a 04	 mov	 ecx, DWORD PTR [edx+4]
  00031	3b 11		 cmp	 edx, DWORD PTR [ecx]
  00033	75 04		 jne	 SHORT $LN2@Lrotate

; 1774 : 			this->_Left(this->_Parent(_Wherenode)) = _Pnode;

  00035	89 01		 mov	 DWORD PTR [ecx], eax

; 1775 : 		else

  00037	eb 03		 jmp	 SHORT $LN1@Lrotate
$LN2@Lrotate:

; 1776 : 			this->_Right(this->_Parent(_Wherenode)) = _Pnode;

  00039	89 41 08	 mov	 DWORD PTR [ecx+8], eax
$LN1@Lrotate:

; 1777 : 
; 1778 : 		this->_Left(_Pnode) = _Wherenode;

  0003c	89 10		 mov	 DWORD PTR [eax], edx

; 1779 : 		this->_Parent(_Wherenode) = _Pnode;

  0003e	89 42 04	 mov	 DWORD PTR [edx+4], eax

; 1780 : 		}

  00041	5d		 pop	 ebp
  00042	c2 04 00	 ret	 4
?_Lrotate@?$_Tree@V?$_Tmap_traits@VioHashString@@UDamageData@DamageTable@@U?$less@VioHashString@@@std@@V?$allocator@U?$pair@$$CBVioHashString@@UDamageData@DamageTable@@@std@@@5@$0A@@std@@@std@@IAEXPAU_Node@?$_Tree_nod@V?$_Tmap_traits@VioHashString@@UDamageData@DamageTable@@U?$less@VioHashString@@@std@@V?$allocator@U?$pair@$$CBVioHashString@@UDamageData@DamageTable@@@std@@@5@$0A@@std@@@2@@Z ENDP ; std::_Tree<std::_Tmap_traits<ioHashString,DamageTable::DamageData,std::less<ioHashString>,std::allocator<std::pair<ioHashString const ,DamageTable::DamageData> >,0> >::_Lrotate
_TEXT	ENDS
PUBLIC	?_Rrotate@?$_Tree@V?$_Tmap_traits@VioHashString@@UDamageData@DamageTable@@U?$less@VioHashString@@@std@@V?$allocator@U?$pair@$$CBVioHashString@@UDamageData@DamageTable@@@std@@@5@$0A@@std@@@std@@IAEXPAU_Node@?$_Tree_nod@V?$_Tmap_traits@VioHashString@@UDamageData@DamageTable@@U?$less@VioHashString@@@std@@V?$allocator@U?$pair@$$CBVioHashString@@UDamageData@DamageTable@@@std@@@5@$0A@@std@@@2@@Z ; std::_Tree<std::_Tmap_traits<ioHashString,DamageTable::DamageData,std::less<ioHashString>,std::allocator<std::pair<ioHashString const ,DamageTable::DamageData> >,0> >::_Rrotate
; Function compile flags: /Ogsp
;	COMDAT ?_Rrotate@?$_Tree@V?$_Tmap_traits@VioHashString@@UDamageData@DamageTable@@U?$less@VioHashString@@@std@@V?$allocator@U?$pair@$$CBVioHashString@@UDamageData@DamageTable@@@std@@@5@$0A@@std@@@std@@IAEXPAU_Node@?$_Tree_nod@V?$_Tmap_traits@VioHashString@@UDamageData@DamageTable@@U?$less@VioHashString@@@std@@V?$allocator@U?$pair@$$CBVioHashString@@UDamageData@DamageTable@@@std@@@5@$0A@@std@@@2@@Z
_TEXT	SEGMENT
__Wherenode$ = 8					; size = 4
?_Rrotate@?$_Tree@V?$_Tmap_traits@VioHashString@@UDamageData@DamageTable@@U?$less@VioHashString@@@std@@V?$allocator@U?$pair@$$CBVioHashString@@UDamageData@DamageTable@@@std@@@5@$0A@@std@@@std@@IAEXPAU_Node@?$_Tree_nod@V?$_Tmap_traits@VioHashString@@UDamageData@DamageTable@@U?$less@VioHashString@@@std@@V?$allocator@U?$pair@$$CBVioHashString@@UDamageData@DamageTable@@@std@@@5@$0A@@std@@@2@@Z PROC ; std::_Tree<std::_Tmap_traits<ioHashString,DamageTable::DamageData,std::less<ioHashString>,std::allocator<std::pair<ioHashString const ,DamageTable::DamageData> >,0> >::_Rrotate, COMDAT
; _this$ = ecx

; 1793 : 		{	// promote left node to root of subtree

  00000	55		 push	 ebp
  00001	8b ec		 mov	 ebp, esp

; 1794 : 		_Nodeptr _Pnode = this->_Left(_Wherenode);

  00003	8b 55 08	 mov	 edx, DWORD PTR __Wherenode$[ebp]
  00006	8b 02		 mov	 eax, DWORD PTR [edx]
  00008	56		 push	 esi

; 1795 : 		this->_Left(_Wherenode) = this->_Right(_Pnode);

  00009	8b 70 08	 mov	 esi, DWORD PTR [eax+8]
  0000c	89 32		 mov	 DWORD PTR [edx], esi

; 1796 : 
; 1797 : 		if (!this->_Isnil(this->_Right(_Pnode)))

  0000e	8b 70 08	 mov	 esi, DWORD PTR [eax+8]
  00011	80 7e 25 00	 cmp	 BYTE PTR [esi+37], 0
  00015	75 03		 jne	 SHORT $LN5@Rrotate

; 1798 : 			this->_Parent(this->_Right(_Pnode)) = _Wherenode;

  00017	89 56 04	 mov	 DWORD PTR [esi+4], edx
$LN5@Rrotate:

; 1799 : 		this->_Parent(_Pnode) = this->_Parent(_Wherenode);

  0001a	8b 72 04	 mov	 esi, DWORD PTR [edx+4]
  0001d	89 70 04	 mov	 DWORD PTR [eax+4], esi

; 1800 : 
; 1801 : 		if (_Wherenode == _Root())

  00020	8b 49 04	 mov	 ecx, DWORD PTR [ecx+4]
  00023	5e		 pop	 esi
  00024	3b 51 04	 cmp	 edx, DWORD PTR [ecx+4]
  00027	75 05		 jne	 SHORT $LN4@Rrotate

; 1802 : 			_Root() = _Pnode;

  00029	89 41 04	 mov	 DWORD PTR [ecx+4], eax

; 1803 : 		else if (_Wherenode == this->_Right(this->_Parent(_Wherenode)))

  0002c	eb 0f		 jmp	 SHORT $LN1@Rrotate
$LN4@Rrotate:
  0002e	8b 4a 04	 mov	 ecx, DWORD PTR [edx+4]
  00031	3b 51 08	 cmp	 edx, DWORD PTR [ecx+8]
  00034	75 05		 jne	 SHORT $LN2@Rrotate

; 1804 : 			this->_Right(this->_Parent(_Wherenode)) = _Pnode;

  00036	89 41 08	 mov	 DWORD PTR [ecx+8], eax

; 1805 : 		else

  00039	eb 02		 jmp	 SHORT $LN1@Rrotate
$LN2@Rrotate:

; 1806 : 			this->_Left(this->_Parent(_Wherenode)) = _Pnode;

  0003b	89 01		 mov	 DWORD PTR [ecx], eax
$LN1@Rrotate:

; 1807 : 
; 1808 : 		this->_Right(_Pnode) = _Wherenode;

  0003d	89 50 08	 mov	 DWORD PTR [eax+8], edx

; 1809 : 		this->_Parent(_Wherenode) = _Pnode;

  00040	89 42 04	 mov	 DWORD PTR [edx+4], eax

; 1810 : 		}

  00043	5d		 pop	 ebp
  00044	c2 04 00	 ret	 4
?_Rrotate@?$_Tree@V?$_Tmap_traits@VioHashString@@UDamageData@DamageTable@@U?$less@VioHashString@@@std@@V?$allocator@U?$pair@$$CBVioHashString@@UDamageData@DamageTable@@@std@@@5@$0A@@std@@@std@@IAEXPAU_Node@?$_Tree_nod@V?$_Tmap_traits@VioHashString@@UDamageData@DamageTable@@U?$less@VioHashString@@@std@@V?$allocator@U?$pair@$$CBVioHashString@@UDamageData@DamageTable@@@std@@@5@$0A@@std@@@2@@Z ENDP ; std::_Tree<std::_Tmap_traits<ioHashString,DamageTable::DamageData,std::less<ioHashString>,std::allocator<std::pair<ioHashString const ,DamageTable::DamageData> >,0> >::_Rrotate
_TEXT	ENDS
PUBLIC	?max_size@?$_Tree@V?$_Tmap_traits@VioHashString@@UDamageData@DamageTable@@U?$less@VioHashString@@@std@@V?$allocator@U?$pair@$$CBVioHashString@@UDamageData@DamageTable@@@std@@@5@$0A@@std@@@std@@QBEIXZ ; std::_Tree<std::_Tmap_traits<ioHashString,DamageTable::DamageData,std::less<ioHashString>,std::allocator<std::pair<ioHashString const ,DamageTable::DamageData> >,0> >::max_size
; Function compile flags: /Ogsp
;	COMDAT ?max_size@?$_Tree@V?$_Tmap_traits@VioHashString@@UDamageData@DamageTable@@U?$less@VioHashString@@@std@@V?$allocator@U?$pair@$$CBVioHashString@@UDamageData@DamageTable@@@std@@@5@$0A@@std@@@std@@QBEIXZ
_TEXT	SEGMENT
?max_size@?$_Tree@V?$_Tmap_traits@VioHashString@@UDamageData@DamageTable@@U?$less@VioHashString@@@std@@V?$allocator@U?$pair@$$CBVioHashString@@UDamageData@DamageTable@@@std@@@5@$0A@@std@@@std@@QBEIXZ PROC ; std::_Tree<std::_Tmap_traits<ioHashString,DamageTable::DamageData,std::less<ioHashString>,std::allocator<std::pair<ioHashString const ,DamageTable::DamageData> >,0> >::max_size, COMDAT
; _this$ = ecx

; 874  : 		return (this->_Alval.max_size());

  00000	b8 aa aa aa 0a	 mov	 eax, 178956970		; 0aaaaaaaH

; 875  : 		}

  00005	c3		 ret	 0
?max_size@?$_Tree@V?$_Tmap_traits@VioHashString@@UDamageData@DamageTable@@U?$less@VioHashString@@@std@@V?$allocator@U?$pair@$$CBVioHashString@@UDamageData@DamageTable@@@std@@@5@$0A@@std@@@std@@QBEIXZ ENDP ; std::_Tree<std::_Tmap_traits<ioHashString,DamageTable::DamageData,std::less<ioHashString>,std::allocator<std::pair<ioHashString const ,DamageTable::DamageData> >,0> >::max_size
_TEXT	ENDS
PUBLIC	??F?$_Tree_const_iterator@V?$_Tree_val@V?$_Tmap_traits@VioHashString@@UDamageData@DamageTable@@U?$less@VioHashString@@@std@@V?$allocator@U?$pair@$$CBVioHashString@@UDamageData@DamageTable@@@std@@@5@$0A@@std@@@std@@@std@@QAEAAV01@XZ ; std::_Tree_const_iterator<std::_Tree_val<std::_Tmap_traits<ioHashString,DamageTable::DamageData,std::less<ioHashString>,std::allocator<std::pair<ioHashString const ,DamageTable::DamageData> >,0> > >::operator--
; Function compile flags: /Ogsp
;	COMDAT ??F?$_Tree_const_iterator@V?$_Tree_val@V?$_Tmap_traits@VioHashString@@UDamageData@DamageTable@@U?$less@VioHashString@@@std@@V?$allocator@U?$pair@$$CBVioHashString@@UDamageData@DamageTable@@@std@@@5@$0A@@std@@@std@@@std@@QAEAAV01@XZ
_TEXT	SEGMENT
??F?$_Tree_const_iterator@V?$_Tree_val@V?$_Tmap_traits@VioHashString@@UDamageData@DamageTable@@U?$less@VioHashString@@@std@@V?$allocator@U?$pair@$$CBVioHashString@@UDamageData@DamageTable@@@std@@@5@$0A@@std@@@std@@@std@@QAEAAV01@XZ PROC ; std::_Tree_const_iterator<std::_Tree_val<std::_Tmap_traits<ioHashString,DamageTable::DamageData,std::less<ioHashString>,std::allocator<std::pair<ioHashString const ,DamageTable::DamageData> >,0> > >::operator--, COMDAT
; _this$ = ecx

; 277  : 		{	// predecrement

  00000	56		 push	 esi
  00001	8b f1		 mov	 esi, ecx

; 278  :  #if _ITERATOR_DEBUG_LEVEL == 2
; 279  : 		if (this->_Getcont() == 0
; 280  : 			|| this->_Ptr == 0)
; 281  : 			{	// report error
; 282  : 			_DEBUG_ERROR("map/set iterator not decrementable");
; 283  : 			_SCL_SECURE_OUT_OF_RANGE;
; 284  : 			}
; 285  : 
; 286  : 		_Nodeptr _Ptrsav = this->_Ptr;
; 287  : 		--(*(_Mybase *)this);
; 288  : 		if (_Ptrsav == this->_Ptr)
; 289  : 			{	// report error
; 290  : 			_DEBUG_ERROR("map/set iterator not decrementable");
; 291  : 			_SCL_SECURE_OUT_OF_RANGE;
; 292  : 			}
; 293  : 
; 294  :  #elif _ITERATOR_DEBUG_LEVEL == 1
; 295  : 		_SCL_SECURE_VALIDATE(this->_Getcont() != 0 && this->_Ptr != 0);
; 296  : 
; 297  : 		_Nodeptr _Ptrsav = this->_Ptr;
; 298  : 		--(*(_Mybase *)this);
; 299  : 		_SCL_SECURE_VALIDATE(_Ptrsav != this->_Ptr);
; 300  : 
; 301  :  #else /* _ITERATOR_DEBUG_LEVEL == 0 */
; 302  : 		--(*(_Mybase *)this);

  00003	e8 00 00 00 00	 call	 ??F?$_Tree_unchecked_const_iterator@V?$_Tree_val@V?$_Tmap_traits@VioHashString@@UDamageData@DamageTable@@U?$less@VioHashString@@@std@@V?$allocator@U?$pair@$$CBVioHashString@@UDamageData@DamageTable@@@std@@@5@$0A@@std@@@std@@U_Iterator_base0@2@@std@@QAEAAV01@XZ ; std::_Tree_unchecked_const_iterator<std::_Tree_val<std::_Tmap_traits<ioHashString,DamageTable::DamageData,std::less<ioHashString>,std::allocator<std::pair<ioHashString const ,DamageTable::DamageData> >,0> >,std::_Iterator_base0>::operator--

; 303  :  #endif /* _ITERATOR_DEBUG_LEVEL */
; 304  : 
; 305  : 		return (*this);

  00008	8b c6		 mov	 eax, esi
  0000a	5e		 pop	 esi

; 306  : 		}

  0000b	c3		 ret	 0
??F?$_Tree_const_iterator@V?$_Tree_val@V?$_Tmap_traits@VioHashString@@UDamageData@DamageTable@@U?$less@VioHashString@@@std@@V?$allocator@U?$pair@$$CBVioHashString@@UDamageData@DamageTable@@@std@@@5@$0A@@std@@@std@@@std@@QAEAAV01@XZ ENDP ; std::_Tree_const_iterator<std::_Tree_val<std::_Tmap_traits<ioHashString,DamageTable::DamageData,std::less<ioHashString>,std::allocator<std::pair<ioHashString const ,DamageTable::DamageData> >,0> > >::operator--
_TEXT	ENDS
PUBLIC	??0?$_Pair_base@V?$_Tree_iterator@V?$_Tree_val@V?$_Tmap_traits@VioHashString@@UDamageData@DamageTable@@U?$less@VioHashString@@@std@@V?$allocator@U?$pair@$$CBVioHashString@@UDamageData@DamageTable@@@std@@@5@$0A@@std@@@std@@@std@@_N@std@@QAE@$$QAV?$_Tree_iterator@V?$_Tree_val@V?$_Tmap_traits@VioHashString@@UDamageData@DamageTable@@U?$less@VioHashString@@@std@@V?$allocator@U?$pair@$$CBVioHashString@@UDamageData@DamageTable@@@std@@@5@$0A@@std@@@std@@@1@$$QA_N@Z ; std::_Pair_base<std::_Tree_iterator<std::_Tree_val<std::_Tmap_traits<ioHashString,DamageTable::DamageData,std::less<ioHashString>,std::allocator<std::pair<ioHashString const ,DamageTable::DamageData> >,0> > >,bool>::_Pair_base<std::_Tree_iterator<std::_Tree_val<std::_Tmap_traits<ioHashString,DamageTable::DamageData,std::less<ioHashString>,std::allocator<std::pair<ioHashString const ,DamageTable::DamageData> >,0> > >,bool>
; Function compile flags: /Ogsp
; File c:\program files (x86)\microsoft visual studio 10.0\vc\include\utility
;	COMDAT ??0?$_Pair_base@V?$_Tree_iterator@V?$_Tree_val@V?$_Tmap_traits@VioHashString@@UDamageData@DamageTable@@U?$less@VioHashString@@@std@@V?$allocator@U?$pair@$$CBVioHashString@@UDamageData@DamageTable@@@std@@@5@$0A@@std@@@std@@@std@@_N@std@@QAE@$$QAV?$_Tree_iterator@V?$_Tree_val@V?$_Tmap_traits@VioHashString@@UDamageData@DamageTable@@U?$less@VioHashString@@@std@@V?$allocator@U?$pair@$$CBVioHashString@@UDamageData@DamageTable@@@std@@@5@$0A@@std@@@std@@@1@$$QA_N@Z
_TEXT	SEGMENT
__Val1$ = 8						; size = 4
__Val2$ = 12						; size = 4
??0?$_Pair_base@V?$_Tree_iterator@V?$_Tree_val@V?$_Tmap_traits@VioHashString@@UDamageData@DamageTable@@U?$less@VioHashString@@@std@@V?$allocator@U?$pair@$$CBVioHashString@@UDamageData@DamageTable@@@std@@@5@$0A@@std@@@std@@@std@@_N@std@@QAE@$$QAV?$_Tree_iterator@V?$_Tree_val@V?$_Tmap_traits@VioHashString@@UDamageData@DamageTable@@U?$less@VioHashString@@@std@@V?$allocator@U?$pair@$$CBVioHashString@@UDamageData@DamageTable@@@std@@@5@$0A@@std@@@std@@@1@$$QA_N@Z PROC ; std::_Pair_base<std::_Tree_iterator<std::_Tree_val<std::_Tmap_traits<ioHashString,DamageTable::DamageData,std::less<ioHashString>,std::allocator<std::pair<ioHashString const ,DamageTable::DamageData> >,0> > >,bool>::_Pair_base<std::_Tree_iterator<std::_Tree_val<std::_Tmap_traits<ioHashString,DamageTable::DamageData,std::less<ioHashString>,std::allocator<std::pair<ioHashString const ,DamageTable::DamageData> >,0> > >,bool>, COMDAT
; _this$ = ecx

; 145  : 		{	// construct from specified values

  00000	55		 push	 ebp
  00001	8b ec		 mov	 ebp, esp
  00003	8b c1		 mov	 eax, ecx
  00005	8b 4d 08	 mov	 ecx, DWORD PTR __Val1$[ebp]
  00008	8b 09		 mov	 ecx, DWORD PTR [ecx]
  0000a	89 08		 mov	 DWORD PTR [eax], ecx
  0000c	8b 4d 0c	 mov	 ecx, DWORD PTR __Val2$[ebp]
  0000f	8a 09		 mov	 cl, BYTE PTR [ecx]
  00011	88 48 04	 mov	 BYTE PTR [eax+4], cl

; 146  : 		}

  00014	5d		 pop	 ebp
  00015	c2 08 00	 ret	 8
??0?$_Pair_base@V?$_Tree_iterator@V?$_Tree_val@V?$_Tmap_traits@VioHashString@@UDamageData@DamageTable@@U?$less@VioHashString@@@std@@V?$allocator@U?$pair@$$CBVioHashString@@UDamageData@DamageTable@@@std@@@5@$0A@@std@@@std@@@std@@_N@std@@QAE@$$QAV?$_Tree_iterator@V?$_Tree_val@V?$_Tmap_traits@VioHashString@@UDamageData@DamageTable@@U?$less@VioHashString@@@std@@V?$allocator@U?$pair@$$CBVioHashString@@UDamageData@DamageTable@@@std@@@5@$0A@@std@@@std@@@1@$$QA_N@Z ENDP ; std::_Pair_base<std::_Tree_iterator<std::_Tree_val<std::_Tmap_traits<ioHashString,DamageTable::DamageData,std::less<ioHashString>,std::allocator<std::pair<ioHashString const ,DamageTable::DamageData> >,0> > >,bool>::_Pair_base<std::_Tree_iterator<std::_Tree_val<std::_Tmap_traits<ioHashString,DamageTable::DamageData,std::less<ioHashString>,std::allocator<std::pair<ioHashString const ,DamageTable::DamageData> >,0> > >,bool>
_TEXT	ENDS
PUBLIC	??$?0ABVioHashString@@AAUDamageData@DamageTable@@@?$_Pair_base@$$CBVioHashString@@UDamageData@DamageTable@@@std@@QAE@ABVioHashString@@AAUDamageData@DamageTable@@@Z ; std::_Pair_base<ioHashString const ,DamageTable::DamageData>::_Pair_base<ioHashString const ,DamageTable::DamageData><ioHashString const &,DamageTable::DamageData &>
EXTRN	__imp_??0ioHashString@@QAE@ABV0@@Z:PROC
; Function compile flags: /Ogsp
;	COMDAT ??$?0ABVioHashString@@AAUDamageData@DamageTable@@@?$_Pair_base@$$CBVioHashString@@UDamageData@DamageTable@@@std@@QAE@ABVioHashString@@AAUDamageData@DamageTable@@@Z
_TEXT	SEGMENT
__Val1$ = 8						; size = 4
__Val2$ = 12						; size = 4
??$?0ABVioHashString@@AAUDamageData@DamageTable@@@?$_Pair_base@$$CBVioHashString@@UDamageData@DamageTable@@@std@@QAE@ABVioHashString@@AAUDamageData@DamageTable@@@Z PROC ; std::_Pair_base<ioHashString const ,DamageTable::DamageData>::_Pair_base<ioHashString const ,DamageTable::DamageData><ioHashString const &,DamageTable::DamageData &>, COMDAT
; _this$ = ecx

; 163  : 		{	// construct from moved values

  00000	55		 push	 ebp
  00001	8b ec		 mov	 ebp, esp
  00003	56		 push	 esi
  00004	ff 75 08	 push	 DWORD PTR __Val1$[ebp]
  00007	8b f1		 mov	 esi, ecx
  00009	ff 15 00 00 00
	00		 call	 DWORD PTR __imp_??0ioHashString@@QAE@ABV0@@Z
  0000f	8b 45 0c	 mov	 eax, DWORD PTR __Val2$[ebp]
  00012	8b 08		 mov	 ecx, DWORD PTR [eax]
  00014	89 4e 10	 mov	 DWORD PTR [esi+16], ecx
  00017	8b 40 04	 mov	 eax, DWORD PTR [eax+4]
  0001a	89 46 14	 mov	 DWORD PTR [esi+20], eax

; 164  : 		}

  0001d	8b c6		 mov	 eax, esi
  0001f	5e		 pop	 esi
  00020	5d		 pop	 ebp
  00021	c2 08 00	 ret	 8
??$?0ABVioHashString@@AAUDamageData@DamageTable@@@?$_Pair_base@$$CBVioHashString@@UDamageData@DamageTable@@@std@@QAE@ABVioHashString@@AAUDamageData@DamageTable@@@Z ENDP ; std::_Pair_base<ioHashString const ,DamageTable::DamageData>::_Pair_base<ioHashString const ,DamageTable::DamageData><ioHashString const &,DamageTable::DamageData &>
_TEXT	ENDS
PUBLIC	??_G?$pair@$$CBVioHashString@@UDamageData@DamageTable@@@std@@QAEPAXI@Z ; std::pair<ioHashString const ,DamageTable::DamageData>::`scalar deleting destructor'
; Function compile flags: /Ogsp
;	COMDAT ??_G?$pair@$$CBVioHashString@@UDamageData@DamageTable@@@std@@QAEPAXI@Z
_TEXT	SEGMENT
___flags$ = 8						; size = 4
??_G?$pair@$$CBVioHashString@@UDamageData@DamageTable@@@std@@QAEPAXI@Z PROC ; std::pair<ioHashString const ,DamageTable::DamageData>::`scalar deleting destructor', COMDAT
; _this$ = ecx
  00000	55		 push	 ebp
  00001	8b ec		 mov	 ebp, esp
  00003	56		 push	 esi
  00004	8b f1		 mov	 esi, ecx
  00006	ff 15 00 00 00
	00		 call	 DWORD PTR __imp_??1ioHashString@@QAE@XZ
  0000c	f6 45 08 01	 test	 BYTE PTR ___flags$[ebp], 1
  00010	74 07		 je	 SHORT $LN1@scalar@2
  00012	56		 push	 esi
  00013	e8 00 00 00 00	 call	 ??3@YAXPAX@Z		; operator delete
  00018	59		 pop	 ecx
$LN1@scalar@2:
  00019	8b c6		 mov	 eax, esi
  0001b	5e		 pop	 esi
  0001c	5d		 pop	 ebp
  0001d	c2 04 00	 ret	 4
??_G?$pair@$$CBVioHashString@@UDamageData@DamageTable@@@std@@QAEPAXI@Z ENDP ; std::pair<ioHashString const ,DamageTable::DamageData>::`scalar deleting destructor'
_TEXT	ENDS
PUBLIC	?_Buynode@?$_Tree_val@V?$_Tmap_traits@VioHashString@@UDamageData@DamageTable@@U?$less@VioHashString@@@std@@V?$allocator@U?$pair@$$CBVioHashString@@UDamageData@DamageTable@@@std@@@5@$0A@@std@@@std@@QAEPAU_Node@?$_Tree_nod@V?$_Tmap_traits@VioHashString@@UDamageData@DamageTable@@U?$less@VioHashString@@@std@@V?$allocator@U?$pair@$$CBVioHashString@@UDamageData@DamageTable@@@std@@@5@$0A@@std@@@2@XZ ; std::_Tree_val<std::_Tmap_traits<ioHashString,DamageTable::DamageData,std::less<ioHashString>,std::allocator<std::pair<ioHashString const ,DamageTable::DamageData> >,0> >::_Buynode
; Function compile flags: /Ogsp
; File c:\program files (x86)\microsoft visual studio 10.0\vc\include\xtree
;	COMDAT ?_Buynode@?$_Tree_val@V?$_Tmap_traits@VioHashString@@UDamageData@DamageTable@@U?$less@VioHashString@@@std@@V?$allocator@U?$pair@$$CBVioHashString@@UDamageData@DamageTable@@@std@@@5@$0A@@std@@@std@@QAEPAU_Node@?$_Tree_nod@V?$_Tmap_traits@VioHashString@@UDamageData@DamageTable@@U?$less@VioHashString@@@std@@V?$allocator@U?$pair@$$CBVioHashString@@UDamageData@DamageTable@@@std@@@5@$0A@@std@@@2@XZ
_TEXT	SEGMENT
$T507030 = -16						; size = 12
$T507014 = -4						; size = 4
?_Buynode@?$_Tree_val@V?$_Tmap_traits@VioHashString@@UDamageData@DamageTable@@U?$less@VioHashString@@@std@@V?$allocator@U?$pair@$$CBVioHashString@@UDamageData@DamageTable@@@std@@@5@$0A@@std@@@std@@QAEPAU_Node@?$_Tree_nod@V?$_Tmap_traits@VioHashString@@UDamageData@DamageTable@@U?$less@VioHashString@@@std@@V?$allocator@U?$pair@$$CBVioHashString@@UDamageData@DamageTable@@@std@@@5@$0A@@std@@@2@XZ PROC ; std::_Tree_val<std::_Tmap_traits<ioHashString,DamageTable::DamageData,std::less<ioHashString>,std::allocator<std::pair<ioHashString const ,DamageTable::DamageData> >,0> >::_Buynode, COMDAT
; _this$ = ecx

; 559  : 		{	// allocate a node

  00000	55		 push	 ebp
  00001	8b ec		 mov	 ebp, esp
  00003	83 ec 10	 sub	 esp, 16			; 00000010H
  00006	56		 push	 esi

; 560  : 		_Nodeptr _Wherenode = this->_Alnod.allocate(1);

  00007	6a 28		 push	 40			; 00000028H
  00009	8b f1		 mov	 esi, ecx
  0000b	e8 00 00 00 00	 call	 ??2@YAPAXI@Z		; operator new
  00010	59		 pop	 ecx
  00011	33 c9		 xor	 ecx, ecx
  00013	3b c1		 cmp	 eax, ecx
  00015	74 18		 je	 SHORT $LN5@Buynode

; 561  : 
; 562  : 		this->_Left(_Wherenode) = this->_Myhead;

  00017	8b 56 04	 mov	 edx, DWORD PTR [esi+4]
  0001a	89 10		 mov	 DWORD PTR [eax], edx

; 563  : 		this->_Parent(_Wherenode) = this->_Myhead;

  0001c	8b 56 04	 mov	 edx, DWORD PTR [esi+4]
  0001f	89 50 04	 mov	 DWORD PTR [eax+4], edx

; 564  : 		this->_Right(_Wherenode) = this->_Myhead;

  00022	8b 56 04	 mov	 edx, DWORD PTR [esi+4]
  00025	89 50 08	 mov	 DWORD PTR [eax+8], edx

; 565  : 		this->_Color(_Wherenode) = this->_Red;

  00028	66 89 48 24	 mov	 WORD PTR [eax+36], cx
  0002c	5e		 pop	 esi

; 566  : 		this->_Isnil(_Wherenode) = false;
; 567  : 		return (_Wherenode);
; 568  : 		}

  0002d	c9		 leave
  0002e	c3		 ret	 0

; 560  : 		_Nodeptr _Wherenode = this->_Alnod.allocate(1);

$LN5@Buynode:
  0002f	8d 45 fc	 lea	 eax, DWORD PTR $T507014[ebp]
  00032	89 4d fc	 mov	 DWORD PTR $T507014[ebp], ecx
  00035	50		 push	 eax
  00036	8d 4d f0	 lea	 ecx, DWORD PTR $T507030[ebp]
  00039	ff 15 00 00 00
	00		 call	 DWORD PTR __imp_??0exception@std@@QAE@ABQBD@Z
  0003f	68 00 00 00 00	 push	 OFFSET __TI2?AVbad_alloc@std@@
  00044	8d 45 f0	 lea	 eax, DWORD PTR $T507030[ebp]
  00047	50		 push	 eax
  00048	c7 45 f0 00 00
	00 00		 mov	 DWORD PTR $T507030[ebp], OFFSET ??_7bad_alloc@std@@6B@
  0004f	e8 00 00 00 00	 call	 __CxxThrowException@8
$LN27@Buynode:
$LN26@Buynode:
  00054	cc		 int	 3
?_Buynode@?$_Tree_val@V?$_Tmap_traits@VioHashString@@UDamageData@DamageTable@@U?$less@VioHashString@@@std@@V?$allocator@U?$pair@$$CBVioHashString@@UDamageData@DamageTable@@@std@@@5@$0A@@std@@@std@@QAEPAU_Node@?$_Tree_nod@V?$_Tmap_traits@VioHashString@@UDamageData@DamageTable@@U?$less@VioHashString@@@std@@V?$allocator@U?$pair@$$CBVioHashString@@UDamageData@DamageTable@@@std@@@5@$0A@@std@@@2@XZ ENDP ; std::_Tree_val<std::_Tmap_traits<ioHashString,DamageTable::DamageData,std::less<ioHashString>,std::allocator<std::pair<ioHashString const ,DamageTable::DamageData> >,0> >::_Buynode
_TEXT	ENDS
PUBLIC	??$?0AAV?$_Tree_iterator@V?$_Tree_val@V?$_Tmap_traits@VioHashString@@UDamageData@DamageTable@@U?$less@VioHashString@@@std@@V?$allocator@U?$pair@$$CBVioHashString@@UDamageData@DamageTable@@@std@@@5@$0A@@std@@@std@@@std@@_N@?$_Pair_base@V?$_Tree_iterator@V?$_Tree_val@V?$_Tmap_traits@VioHashString@@UDamageData@DamageTable@@U?$less@VioHashString@@@std@@V?$allocator@U?$pair@$$CBVioHashString@@UDamageData@DamageTable@@@std@@@5@$0A@@std@@@std@@@std@@_N@std@@QAE@AAV?$_Tree_iterator@V?$_Tree_val@V?$_Tmap_traits@VioHashString@@UDamageData@DamageTable@@U?$less@VioHashString@@@std@@V?$allocator@U?$pair@$$CBVioHashString@@UDamageData@DamageTable@@@std@@@5@$0A@@std@@@std@@@1@$$QA_N@Z ; std::_Pair_base<std::_Tree_iterator<std::_Tree_val<std::_Tmap_traits<ioHashString,DamageTable::DamageData,std::less<ioHashString>,std::allocator<std::pair<ioHashString const ,DamageTable::DamageData> >,0> > >,bool>::_Pair_base<std::_Tree_iterator<std::_Tree_val<std::_Tmap_traits<ioHashString,DamageTable::DamageData,std::less<ioHashString>,std::allocator<std::pair<ioHashString const ,DamageTable::DamageData> >,0> > >,bool><std::_Tree_iterator<std::_Tree_val<std::_Tmap_traits<ioHashString,DamageTable::DamageData,std::less<ioHashString>,std::allocator<std::pair<ioHashString const ,DamageTable::DamageData> >,0> > > &,bool>
; Function compile flags: /Ogsp
; File c:\program files (x86)\microsoft visual studio 10.0\vc\include\utility
;	COMDAT ??$?0AAV?$_Tree_iterator@V?$_Tree_val@V?$_Tmap_traits@VioHashString@@UDamageData@DamageTable@@U?$less@VioHashString@@@std@@V?$allocator@U?$pair@$$CBVioHashString@@UDamageData@DamageTable@@@std@@@5@$0A@@std@@@std@@@std@@_N@?$_Pair_base@V?$_Tree_iterator@V?$_Tree_val@V?$_Tmap_traits@VioHashString@@UDamageData@DamageTable@@U?$less@VioHashString@@@std@@V?$allocator@U?$pair@$$CBVioHashString@@UDamageData@DamageTable@@@std@@@5@$0A@@std@@@std@@@std@@_N@std@@QAE@AAV?$_Tree_iterator@V?$_Tree_val@V?$_Tmap_traits@VioHashString@@UDamageData@DamageTable@@U?$less@VioHashString@@@std@@V?$allocator@U?$pair@$$CBVioHashString@@UDamageData@DamageTable@@@std@@@5@$0A@@std@@@std@@@1@$$QA_N@Z
_TEXT	SEGMENT
__Val1$ = 8						; size = 4
__Val2$ = 12						; size = 4
??$?0AAV?$_Tree_iterator@V?$_Tree_val@V?$_Tmap_traits@VioHashString@@UDamageData@DamageTable@@U?$less@VioHashString@@@std@@V?$allocator@U?$pair@$$CBVioHashString@@UDamageData@DamageTable@@@std@@@5@$0A@@std@@@std@@@std@@_N@?$_Pair_base@V?$_Tree_iterator@V?$_Tree_val@V?$_Tmap_traits@VioHashString@@UDamageData@DamageTable@@U?$less@VioHashString@@@std@@V?$allocator@U?$pair@$$CBVioHashString@@UDamageData@DamageTable@@@std@@@5@$0A@@std@@@std@@@std@@_N@std@@QAE@AAV?$_Tree_iterator@V?$_Tree_val@V?$_Tmap_traits@VioHashString@@UDamageData@DamageTable@@U?$less@VioHashString@@@std@@V?$allocator@U?$pair@$$CBVioHashString@@UDamageData@DamageTable@@@std@@@5@$0A@@std@@@std@@@1@$$QA_N@Z PROC ; std::_Pair_base<std::_Tree_iterator<std::_Tree_val<std::_Tmap_traits<ioHashString,DamageTable::DamageData,std::less<ioHashString>,std::allocator<std::pair<ioHashString const ,DamageTable::DamageData> >,0> > >,bool>::_Pair_base<std::_Tree_iterator<std::_Tree_val<std::_Tmap_traits<ioHashString,DamageTable::DamageData,std::less<ioHashString>,std::allocator<std::pair<ioHashString const ,DamageTable::DamageData> >,0> > >,bool><std::_Tree_iterator<std::_Tree_val<std::_Tmap_traits<ioHashString,DamageTable::DamageData,std::less<ioHashString>,std::allocator<std::pair<ioHashString const ,DamageTable::DamageData> >,0> > > &,bool>, COMDAT
; _this$ = ecx

; 163  : 		{	// construct from moved values

  00000	55		 push	 ebp
  00001	8b ec		 mov	 ebp, esp
  00003	8b c1		 mov	 eax, ecx
  00005	8b 4d 08	 mov	 ecx, DWORD PTR __Val1$[ebp]
  00008	8b 09		 mov	 ecx, DWORD PTR [ecx]
  0000a	89 08		 mov	 DWORD PTR [eax], ecx
  0000c	8b 4d 0c	 mov	 ecx, DWORD PTR __Val2$[ebp]
  0000f	8a 09		 mov	 cl, BYTE PTR [ecx]
  00011	88 48 04	 mov	 BYTE PTR [eax+4], cl

; 164  : 		}

  00014	5d		 pop	 ebp
  00015	c2 08 00	 ret	 8
??$?0AAV?$_Tree_iterator@V?$_Tree_val@V?$_Tmap_traits@VioHashString@@UDamageData@DamageTable@@U?$less@VioHashString@@@std@@V?$allocator@U?$pair@$$CBVioHashString@@UDamageData@DamageTable@@@std@@@5@$0A@@std@@@std@@@std@@_N@?$_Pair_base@V?$_Tree_iterator@V?$_Tree_val@V?$_Tmap_traits@VioHashString@@UDamageData@DamageTable@@U?$less@VioHashString@@@std@@V?$allocator@U?$pair@$$CBVioHashString@@UDamageData@DamageTable@@@std@@@5@$0A@@std@@@std@@@std@@_N@std@@QAE@AAV?$_Tree_iterator@V?$_Tree_val@V?$_Tmap_traits@VioHashString@@UDamageData@DamageTable@@U?$less@VioHashString@@@std@@V?$allocator@U?$pair@$$CBVioHashString@@UDamageData@DamageTable@@@std@@@5@$0A@@std@@@std@@@1@$$QA_N@Z ENDP ; std::_Pair_base<std::_Tree_iterator<std::_Tree_val<std::_Tmap_traits<ioHashString,DamageTable::DamageData,std::less<ioHashString>,std::allocator<std::pair<ioHashString const ,DamageTable::DamageData> >,0> > >,bool>::_Pair_base<std::_Tree_iterator<std::_Tree_val<std::_Tmap_traits<ioHashString,DamageTable::DamageData,std::less<ioHashString>,std::allocator<std::pair<ioHashString const ,DamageTable::DamageData> >,0> > >,bool><std::_Tree_iterator<std::_Tree_val<std::_Tmap_traits<ioHashString,DamageTable::DamageData,std::less<ioHashString>,std::allocator<std::pair<ioHashString const ,DamageTable::DamageData> >,0> > > &,bool>
_TEXT	ENDS
PUBLIC	??0?$_Pair_base@$$CBVioHashString@@UDamageData@DamageTable@@@std@@QAE@$$QBVioHashString@@$$QAUDamageData@DamageTable@@@Z ; std::_Pair_base<ioHashString const ,DamageTable::DamageData>::_Pair_base<ioHashString const ,DamageTable::DamageData>
; Function compile flags: /Ogsp
;	COMDAT ??0?$_Pair_base@$$CBVioHashString@@UDamageData@DamageTable@@@std@@QAE@$$QBVioHashString@@$$QAUDamageData@DamageTable@@@Z
_TEXT	SEGMENT
__Val1$ = 8						; size = 4
__Val2$ = 12						; size = 4
??0?$_Pair_base@$$CBVioHashString@@UDamageData@DamageTable@@@std@@QAE@$$QBVioHashString@@$$QAUDamageData@DamageTable@@@Z PROC ; std::_Pair_base<ioHashString const ,DamageTable::DamageData>::_Pair_base<ioHashString const ,DamageTable::DamageData>, COMDAT
; _this$ = ecx

; 145  : 		{	// construct from specified values

  00000	55		 push	 ebp
  00001	8b ec		 mov	 ebp, esp
  00003	56		 push	 esi
  00004	ff 75 08	 push	 DWORD PTR __Val1$[ebp]
  00007	8b f1		 mov	 esi, ecx
  00009	ff 15 00 00 00
	00		 call	 DWORD PTR __imp_??0ioHashString@@QAE@ABV0@@Z
  0000f	8b 45 0c	 mov	 eax, DWORD PTR __Val2$[ebp]
  00012	8b 08		 mov	 ecx, DWORD PTR [eax]
  00014	89 4e 10	 mov	 DWORD PTR [esi+16], ecx
  00017	8b 40 04	 mov	 eax, DWORD PTR [eax+4]
  0001a	89 46 14	 mov	 DWORD PTR [esi+20], eax

; 146  : 		}

  0001d	8b c6		 mov	 eax, esi
  0001f	5e		 pop	 esi
  00020	5d		 pop	 ebp
  00021	c2 08 00	 ret	 8
??0?$_Pair_base@$$CBVioHashString@@UDamageData@DamageTable@@@std@@QAE@$$QBVioHashString@@$$QAUDamageData@DamageTable@@@Z ENDP ; std::_Pair_base<ioHashString const ,DamageTable::DamageData>::_Pair_base<ioHashString const ,DamageTable::DamageData>
_TEXT	ENDS
PUBLIC	??$swap@D@std@@YAXAAD0@Z			; std::swap<char>
; Function compile flags: /Ogsp
;	COMDAT ??$swap@D@std@@YAXAAD0@Z
_TEXT	SEGMENT
__Left$ = 8						; size = 4
__Right$ = 12						; size = 4
??$swap@D@std@@YAXAAD0@Z PROC				; std::swap<char>, COMDAT

; 101  : 	{	// exchange values stored at _Left and _Right

  00000	55		 push	 ebp
  00001	8b ec		 mov	 ebp, esp

; 102  : 	_Ty _Tmp = _Move(_Left);

  00003	8b 45 08	 mov	 eax, DWORD PTR __Left$[ebp]
  00006	8a 08		 mov	 cl, BYTE PTR [eax]
  00008	56		 push	 esi

; 103  : 	_Left = _Move(_Right);

  00009	8b 75 0c	 mov	 esi, DWORD PTR __Right$[ebp]
  0000c	8a 16		 mov	 dl, BYTE PTR [esi]
  0000e	88 10		 mov	 BYTE PTR [eax], dl

; 104  : 	_Right = _Move(_Tmp);

  00010	88 0e		 mov	 BYTE PTR [esi], cl
  00012	5e		 pop	 esi

; 105  : 	}

  00013	5d		 pop	 ebp
  00014	c3		 ret	 0
??$swap@D@std@@YAXAAD0@Z ENDP				; std::swap<char>
_TEXT	ENDS
PUBLIC	??0?$_Tree_iterator@V?$_Tree_val@V?$_Tmap_traits@VioHashString@@UDamageData@DamageTable@@U?$less@VioHashString@@@std@@V?$allocator@U?$pair@$$CBVioHashString@@UDamageData@DamageTable@@@std@@@5@$0A@@std@@@std@@@std@@QAE@XZ ; std::_Tree_iterator<std::_Tree_val<std::_Tmap_traits<ioHashString,DamageTable::DamageData,std::less<ioHashString>,std::allocator<std::pair<ioHashString const ,DamageTable::DamageData> >,0> > >::_Tree_iterator<std::_Tree_val<std::_Tmap_traits<ioHashString,DamageTable::DamageData,std::less<ioHashString>,std::allocator<std::pair<ioHashString const ,DamageTable::DamageData> >,0> > >
; Function compile flags: /Ogsp
; File c:\program files (x86)\microsoft visual studio 10.0\vc\include\xtree
;	COMDAT ??0?$_Tree_iterator@V?$_Tree_val@V?$_Tmap_traits@VioHashString@@UDamageData@DamageTable@@U?$less@VioHashString@@@std@@V?$allocator@U?$pair@$$CBVioHashString@@UDamageData@DamageTable@@@std@@@5@$0A@@std@@@std@@@std@@QAE@XZ
_TEXT	SEGMENT
??0?$_Tree_iterator@V?$_Tree_val@V?$_Tmap_traits@VioHashString@@UDamageData@DamageTable@@U?$less@VioHashString@@@std@@V?$allocator@U?$pair@$$CBVioHashString@@UDamageData@DamageTable@@@std@@@5@$0A@@std@@@std@@@std@@QAE@XZ PROC ; std::_Tree_iterator<std::_Tree_val<std::_Tmap_traits<ioHashString,DamageTable::DamageData,std::less<ioHashString>,std::allocator<std::pair<ioHashString const ,DamageTable::DamageData> >,0> > >::_Tree_iterator<std::_Tree_val<std::_Tmap_traits<ioHashString,DamageTable::DamageData,std::less<ioHashString>,std::allocator<std::pair<ioHashString const ,DamageTable::DamageData> >,0> > >, COMDAT
; _this$ = ecx

; 372  : 	_Tree_iterator()

  00000	8b c1		 mov	 eax, ecx
  00002	83 20 00	 and	 DWORD PTR [eax], 0

; 373  : 		{	// construct with null node
; 374  : 		}

  00005	c3		 ret	 0
??0?$_Tree_iterator@V?$_Tree_val@V?$_Tmap_traits@VioHashString@@UDamageData@DamageTable@@U?$less@VioHashString@@@std@@V?$allocator@U?$pair@$$CBVioHashString@@UDamageData@DamageTable@@@std@@@5@$0A@@std@@@std@@@std@@QAE@XZ ENDP ; std::_Tree_iterator<std::_Tree_val<std::_Tmap_traits<ioHashString,DamageTable::DamageData,std::less<ioHashString>,std::allocator<std::pair<ioHashString const ,DamageTable::DamageData> >,0> > >::_Tree_iterator<std::_Tree_val<std::_Tmap_traits<ioHashString,DamageTable::DamageData,std::less<ioHashString>,std::allocator<std::pair<ioHashString const ,DamageTable::DamageData> >,0> > >
_TEXT	ENDS
PUBLIC	??C?$_Tree_iterator@V?$_Tree_val@V?$_Tmap_traits@VioHashString@@UDamageData@DamageTable@@U?$less@VioHashString@@@std@@V?$allocator@U?$pair@$$CBVioHashString@@UDamageData@DamageTable@@@std@@@5@$0A@@std@@@std@@@std@@QBEPAU?$pair@$$CBVioHashString@@UDamageData@DamageTable@@@1@XZ ; std::_Tree_iterator<std::_Tree_val<std::_Tmap_traits<ioHashString,DamageTable::DamageData,std::less<ioHashString>,std::allocator<std::pair<ioHashString const ,DamageTable::DamageData> >,0> > >::operator->
; Function compile flags: /Ogsp
;	COMDAT ??C?$_Tree_iterator@V?$_Tree_val@V?$_Tmap_traits@VioHashString@@UDamageData@DamageTable@@U?$less@VioHashString@@@std@@V?$allocator@U?$pair@$$CBVioHashString@@UDamageData@DamageTable@@@std@@@5@$0A@@std@@@std@@@std@@QBEPAU?$pair@$$CBVioHashString@@UDamageData@DamageTable@@@1@XZ
_TEXT	SEGMENT
??C?$_Tree_iterator@V?$_Tree_val@V?$_Tmap_traits@VioHashString@@UDamageData@DamageTable@@U?$less@VioHashString@@@std@@V?$allocator@U?$pair@$$CBVioHashString@@UDamageData@DamageTable@@@std@@@5@$0A@@std@@@std@@@std@@QBEPAU?$pair@$$CBVioHashString@@UDamageData@DamageTable@@@1@XZ PROC ; std::_Tree_iterator<std::_Tree_val<std::_Tmap_traits<ioHashString,DamageTable::DamageData,std::less<ioHashString>,std::allocator<std::pair<ioHashString const ,DamageTable::DamageData> >,0> > >::operator->, COMDAT
; _this$ = ecx

; 401  : 		return (&**this);

  00000	8b 01		 mov	 eax, DWORD PTR [ecx]
  00002	83 c0 0c	 add	 eax, 12			; 0000000cH

; 402  : 		}

  00005	c3		 ret	 0
??C?$_Tree_iterator@V?$_Tree_val@V?$_Tmap_traits@VioHashString@@UDamageData@DamageTable@@U?$less@VioHashString@@@std@@V?$allocator@U?$pair@$$CBVioHashString@@UDamageData@DamageTable@@@std@@@5@$0A@@std@@@std@@@std@@QBEPAU?$pair@$$CBVioHashString@@UDamageData@DamageTable@@@1@XZ ENDP ; std::_Tree_iterator<std::_Tree_val<std::_Tmap_traits<ioHashString,DamageTable::DamageData,std::less<ioHashString>,std::allocator<std::pair<ioHashString const ,DamageTable::DamageData> >,0> > >::operator->
_TEXT	ENDS
PUBLIC	??E?$_Tree_const_iterator@V?$_Tree_val@V?$_Tmap_traits@VioHashString@@UDamageData@DamageTable@@U?$less@VioHashString@@@std@@V?$allocator@U?$pair@$$CBVioHashString@@UDamageData@DamageTable@@@std@@@5@$0A@@std@@@std@@@std@@QAEAAV01@XZ ; std::_Tree_const_iterator<std::_Tree_val<std::_Tmap_traits<ioHashString,DamageTable::DamageData,std::less<ioHashString>,std::allocator<std::pair<ioHashString const ,DamageTable::DamageData> >,0> > >::operator++
; Function compile flags: /Ogsp
;	COMDAT ??E?$_Tree_const_iterator@V?$_Tree_val@V?$_Tmap_traits@VioHashString@@UDamageData@DamageTable@@U?$less@VioHashString@@@std@@V?$allocator@U?$pair@$$CBVioHashString@@UDamageData@DamageTable@@@std@@@5@$0A@@std@@@std@@@std@@QAEAAV01@XZ
_TEXT	SEGMENT
??E?$_Tree_const_iterator@V?$_Tree_val@V?$_Tmap_traits@VioHashString@@UDamageData@DamageTable@@U?$less@VioHashString@@@std@@V?$allocator@U?$pair@$$CBVioHashString@@UDamageData@DamageTable@@@std@@@5@$0A@@std@@@std@@@std@@QAEAAV01@XZ PROC ; std::_Tree_const_iterator<std::_Tree_val<std::_Tmap_traits<ioHashString,DamageTable::DamageData,std::less<ioHashString>,std::allocator<std::pair<ioHashString const ,DamageTable::DamageData> >,0> > >::operator++, COMDAT
; _this$ = ecx

; 250  : 		{	// preincrement

  00000	56		 push	 esi
  00001	8b f1		 mov	 esi, ecx

; 251  :  #if _ITERATOR_DEBUG_LEVEL == 2
; 252  : 		if (this->_Getcont() == 0
; 253  : 			|| this->_Ptr == 0
; 254  : 			|| _Mytree::_Isnil(this->_Ptr))
; 255  : 			{	// report error
; 256  : 			_DEBUG_ERROR("map/set iterator not incrementable");
; 257  : 			_SCL_SECURE_OUT_OF_RANGE;
; 258  : 			}
; 259  : 
; 260  :  #elif _ITERATOR_DEBUG_LEVEL == 1
; 261  : 		_SCL_SECURE_VALIDATE(this->_Getcont() != 0 && this->_Ptr != 0);
; 262  : 		_SCL_SECURE_VALIDATE_RANGE(!_Mytree::_Isnil(this->_Ptr));
; 263  :  #endif /* _ITERATOR_DEBUG_LEVEL */
; 264  : 
; 265  : 		++(*(_Mybase *)this);

  00003	e8 00 00 00 00	 call	 ??E?$_Tree_unchecked_const_iterator@V?$_Tree_val@V?$_Tmap_traits@VioHashString@@UDamageData@DamageTable@@U?$less@VioHashString@@@std@@V?$allocator@U?$pair@$$CBVioHashString@@UDamageData@DamageTable@@@std@@@5@$0A@@std@@@std@@U_Iterator_base0@2@@std@@QAEAAV01@XZ ; std::_Tree_unchecked_const_iterator<std::_Tree_val<std::_Tmap_traits<ioHashString,DamageTable::DamageData,std::less<ioHashString>,std::allocator<std::pair<ioHashString const ,DamageTable::DamageData> >,0> >,std::_Iterator_base0>::operator++

; 266  : 		return (*this);

  00008	8b c6		 mov	 eax, esi
  0000a	5e		 pop	 esi

; 267  : 		}

  0000b	c3		 ret	 0
??E?$_Tree_const_iterator@V?$_Tree_val@V?$_Tmap_traits@VioHashString@@UDamageData@DamageTable@@U?$less@VioHashString@@@std@@V?$allocator@U?$pair@$$CBVioHashString@@UDamageData@DamageTable@@@std@@@5@$0A@@std@@@std@@@std@@QAEAAV01@XZ ENDP ; std::_Tree_const_iterator<std::_Tree_val<std::_Tmap_traits<ioHashString,DamageTable::DamageData,std::less<ioHashString>,std::allocator<std::pair<ioHashString const ,DamageTable::DamageData> >,0> > >::operator++
_TEXT	ENDS
PUBLIC	??0?$_Tree_val@V?$_Tmap_traits@VioHashString@@UDamageData@DamageTable@@U?$less@VioHashString@@@std@@V?$allocator@U?$pair@$$CBVioHashString@@UDamageData@DamageTable@@@std@@@5@$0A@@std@@@std@@QAE@ABU?$less@VioHashString@@@1@V?$allocator@U?$pair@$$CBVioHashString@@UDamageData@DamageTable@@@std@@@1@@Z ; std::_Tree_val<std::_Tmap_traits<ioHashString,DamageTable::DamageData,std::less<ioHashString>,std::allocator<std::pair<ioHashString const ,DamageTable::DamageData> >,0> >::_Tree_val<std::_Tmap_traits<ioHashString,DamageTable::DamageData,std::less<ioHashString>,std::allocator<std::pair<ioHashString const ,DamageTable::DamageData> >,0> >
; Function compile flags: /Ogsp
;	COMDAT ??0?$_Tree_val@V?$_Tmap_traits@VioHashString@@UDamageData@DamageTable@@U?$less@VioHashString@@@std@@V?$allocator@U?$pair@$$CBVioHashString@@UDamageData@DamageTable@@@std@@@5@$0A@@std@@@std@@QAE@ABU?$less@VioHashString@@@1@V?$allocator@U?$pair@$$CBVioHashString@@UDamageData@DamageTable@@@std@@@1@@Z
_TEXT	SEGMENT
$T507173 = -16						; size = 12
$T507151 = -4						; size = 4
__Parg$ = 8						; size = 4
__Al$ = 12						; size = 1
??0?$_Tree_val@V?$_Tmap_traits@VioHashString@@UDamageData@DamageTable@@U?$less@VioHashString@@@std@@V?$allocator@U?$pair@$$CBVioHashString@@UDamageData@DamageTable@@@std@@@5@$0A@@std@@@std@@QAE@ABU?$less@VioHashString@@@1@V?$allocator@U?$pair@$$CBVioHashString@@UDamageData@DamageTable@@@std@@@1@@Z PROC ; std::_Tree_val<std::_Tmap_traits<ioHashString,DamageTable::DamageData,std::less<ioHashString>,std::allocator<std::pair<ioHashString const ,DamageTable::DamageData> >,0> >::_Tree_val<std::_Tmap_traits<ioHashString,DamageTable::DamageData,std::less<ioHashString>,std::allocator<std::pair<ioHashString const ,DamageTable::DamageData> >,0> >, COMDAT
; _this$ = ecx

; 542  : 		{	// construct base, and allocator from _Al

  00000	55		 push	 ebp
  00001	8b ec		 mov	 ebp, esp
  00003	83 ec 10	 sub	 esp, 16			; 00000010H
  00006	56		 push	 esi
  00007	8b f1		 mov	 esi, ecx

; 543  : 		this->_Mysize = 0;

  00009	83 66 08 00	 and	 DWORD PTR [esi+8], 0

; 544  : 		this->_Myhead = this->_Alnod.allocate(1);

  0000d	6a 28		 push	 40			; 00000028H
  0000f	e8 00 00 00 00	 call	 ??2@YAPAXI@Z		; operator new
  00014	59		 pop	 ecx
  00015	85 c0		 test	 eax, eax
  00017	74 26		 je	 SHORT $LN15@Tree_val
  00019	89 46 04	 mov	 DWORD PTR [esi+4], eax

; 545  : 
; 546  : 		this->_Left(this->_Myhead) = this->_Myhead;

  0001c	89 00		 mov	 DWORD PTR [eax], eax

; 547  : 		this->_Parent(this->_Myhead) = this->_Myhead;

  0001e	8b 46 04	 mov	 eax, DWORD PTR [esi+4]
  00021	89 40 04	 mov	 DWORD PTR [eax+4], eax

; 548  : 		this->_Right(this->_Myhead) = this->_Myhead;

  00024	8b 46 04	 mov	 eax, DWORD PTR [esi+4]
  00027	89 40 08	 mov	 DWORD PTR [eax+8], eax

; 549  : 		this->_Color(this->_Myhead) = this->_Black;

  0002a	8b 46 04	 mov	 eax, DWORD PTR [esi+4]
  0002d	c6 40 24 01	 mov	 BYTE PTR [eax+36], 1

; 550  : 		this->_Isnil(this->_Myhead) = true;

  00031	8b 46 04	 mov	 eax, DWORD PTR [esi+4]
  00034	c6 40 25 01	 mov	 BYTE PTR [eax+37], 1

; 551  : 		}

  00038	8b c6		 mov	 eax, esi
  0003a	5e		 pop	 esi
  0003b	c9		 leave
  0003c	c2 08 00	 ret	 8

; 544  : 		this->_Myhead = this->_Alnod.allocate(1);

$LN15@Tree_val:
  0003f	83 65 fc 00	 and	 DWORD PTR $T507151[ebp], 0
  00043	8d 45 fc	 lea	 eax, DWORD PTR $T507151[ebp]
  00046	50		 push	 eax
  00047	8d 4d f0	 lea	 ecx, DWORD PTR $T507173[ebp]
  0004a	ff 15 00 00 00
	00		 call	 DWORD PTR __imp_??0exception@std@@QAE@ABQBD@Z
  00050	68 00 00 00 00	 push	 OFFSET __TI2?AVbad_alloc@std@@
  00055	8d 45 f0	 lea	 eax, DWORD PTR $T507173[ebp]
  00058	50		 push	 eax
  00059	c7 45 f0 00 00
	00 00		 mov	 DWORD PTR $T507173[ebp], OFFSET ??_7bad_alloc@std@@6B@
  00060	e8 00 00 00 00	 call	 __CxxThrowException@8
$LN37@Tree_val:
$LN36@Tree_val:
  00065	cc		 int	 3
??0?$_Tree_val@V?$_Tmap_traits@VioHashString@@UDamageData@DamageTable@@U?$less@VioHashString@@@std@@V?$allocator@U?$pair@$$CBVioHashString@@UDamageData@DamageTable@@@std@@@5@$0A@@std@@@std@@QAE@ABU?$less@VioHashString@@@1@V?$allocator@U?$pair@$$CBVioHashString@@UDamageData@DamageTable@@@std@@@1@@Z ENDP ; std::_Tree_val<std::_Tmap_traits<ioHashString,DamageTable::DamageData,std::less<ioHashString>,std::allocator<std::pair<ioHashString const ,DamageTable::DamageData> >,0> >::_Tree_val<std::_Tmap_traits<ioHashString,DamageTable::DamageData,std::less<ioHashString>,std::allocator<std::pair<ioHashString const ,DamageTable::DamageData> >,0> >
_TEXT	ENDS
PUBLIC	??0?$_Tree_const_iterator@V?$_Tree_val@V?$_Tmap_traits@VioHashString@@UDamageData@DamageTable@@U?$less@VioHashString@@@std@@V?$allocator@U?$pair@$$CBVioHashString@@UDamageData@DamageTable@@@std@@@5@$0A@@std@@@std@@@std@@QAE@PAU_Node@?$_Tree_nod@V?$_Tmap_traits@VioHashString@@UDamageData@DamageTable@@U?$less@VioHashString@@@std@@V?$allocator@U?$pair@$$CBVioHashString@@UDamageData@DamageTable@@@std@@@5@$0A@@std@@@1@PBV?$_Tree_val@V?$_Tmap_traits@VioHashString@@UDamageData@DamageTable@@U?$less@VioHashString@@@std@@V?$allocator@U?$pair@$$CBVioHashString@@UDamageData@DamageTable@@@std@@@5@$0A@@std@@@1@@Z ; std::_Tree_const_iterator<std::_Tree_val<std::_Tmap_traits<ioHashString,DamageTable::DamageData,std::less<ioHashString>,std::allocator<std::pair<ioHashString const ,DamageTable::DamageData> >,0> > >::_Tree_const_iterator<std::_Tree_val<std::_Tmap_traits<ioHashString,DamageTable::DamageData,std::less<ioHashString>,std::allocator<std::pair<ioHashString const ,DamageTable::DamageData> >,0> > >
; Function compile flags: /Ogsp
;	COMDAT ??0?$_Tree_const_iterator@V?$_Tree_val@V?$_Tmap_traits@VioHashString@@UDamageData@DamageTable@@U?$less@VioHashString@@@std@@V?$allocator@U?$pair@$$CBVioHashString@@UDamageData@DamageTable@@@std@@@5@$0A@@std@@@std@@@std@@QAE@PAU_Node@?$_Tree_nod@V?$_Tmap_traits@VioHashString@@UDamageData@DamageTable@@U?$less@VioHashString@@@std@@V?$allocator@U?$pair@$$CBVioHashString@@UDamageData@DamageTable@@@std@@@5@$0A@@std@@@1@PBV?$_Tree_val@V?$_Tmap_traits@VioHashString@@UDamageData@DamageTable@@U?$less@VioHashString@@@std@@V?$allocator@U?$pair@$$CBVioHashString@@UDamageData@DamageTable@@@std@@@5@$0A@@std@@@1@@Z
_TEXT	SEGMENT
__Pnode$ = 8						; size = 4
__Plist$ = 12						; size = 4
??0?$_Tree_const_iterator@V?$_Tree_val@V?$_Tmap_traits@VioHashString@@UDamageData@DamageTable@@U?$less@VioHashString@@@std@@V?$allocator@U?$pair@$$CBVioHashString@@UDamageData@DamageTable@@@std@@@5@$0A@@std@@@std@@@std@@QAE@PAU_Node@?$_Tree_nod@V?$_Tmap_traits@VioHashString@@UDamageData@DamageTable@@U?$less@VioHashString@@@std@@V?$allocator@U?$pair@$$CBVioHashString@@UDamageData@DamageTable@@@std@@@5@$0A@@std@@@1@PBV?$_Tree_val@V?$_Tmap_traits@VioHashString@@UDamageData@DamageTable@@U?$less@VioHashString@@@std@@V?$allocator@U?$pair@$$CBVioHashString@@UDamageData@DamageTable@@@std@@@5@$0A@@std@@@1@@Z PROC ; std::_Tree_const_iterator<std::_Tree_val<std::_Tmap_traits<ioHashString,DamageTable::DamageData,std::less<ioHashString>,std::allocator<std::pair<ioHashString const ,DamageTable::DamageData> >,0> > >::_Tree_const_iterator<std::_Tree_val<std::_Tmap_traits<ioHashString,DamageTable::DamageData,std::less<ioHashString>,std::allocator<std::pair<ioHashString const ,DamageTable::DamageData> >,0> > >, COMDAT
; _this$ = ecx

; 213  : 		{	// construct with node pointer _Pnode

  00000	55		 push	 ebp
  00001	8b ec		 mov	 ebp, esp
  00003	8b c1		 mov	 eax, ecx
  00005	8b 4d 08	 mov	 ecx, DWORD PTR __Pnode$[ebp]
  00008	89 08		 mov	 DWORD PTR [eax], ecx

; 214  : 		}

  0000a	5d		 pop	 ebp
  0000b	c2 08 00	 ret	 8
??0?$_Tree_const_iterator@V?$_Tree_val@V?$_Tmap_traits@VioHashString@@UDamageData@DamageTable@@U?$less@VioHashString@@@std@@V?$allocator@U?$pair@$$CBVioHashString@@UDamageData@DamageTable@@@std@@@5@$0A@@std@@@std@@@std@@QAE@PAU_Node@?$_Tree_nod@V?$_Tmap_traits@VioHashString@@UDamageData@DamageTable@@U?$less@VioHashString@@@std@@V?$allocator@U?$pair@$$CBVioHashString@@UDamageData@DamageTable@@@std@@@5@$0A@@std@@@1@PBV?$_Tree_val@V?$_Tmap_traits@VioHashString@@UDamageData@DamageTable@@U?$less@VioHashString@@@std@@V?$allocator@U?$pair@$$CBVioHashString@@UDamageData@DamageTable@@@std@@@5@$0A@@std@@@1@@Z ENDP ; std::_Tree_const_iterator<std::_Tree_val<std::_Tmap_traits<ioHashString,DamageTable::DamageData,std::less<ioHashString>,std::allocator<std::pair<ioHashString const ,DamageTable::DamageData> >,0> > >::_Tree_const_iterator<std::_Tree_val<std::_Tmap_traits<ioHashString,DamageTable::DamageData,std::less<ioHashString>,std::allocator<std::pair<ioHashString const ,DamageTable::DamageData> >,0> > >
_TEXT	ENDS
PUBLIC	??E?$_Tree_const_iterator@V?$_Tree_val@V?$_Tmap_traits@VioHashString@@UDamageData@DamageTable@@U?$less@VioHashString@@@std@@V?$allocator@U?$pair@$$CBVioHashString@@UDamageData@DamageTable@@@std@@@5@$0A@@std@@@std@@@std@@QAE?AV01@H@Z ; std::_Tree_const_iterator<std::_Tree_val<std::_Tmap_traits<ioHashString,DamageTable::DamageData,std::less<ioHashString>,std::allocator<std::pair<ioHashString const ,DamageTable::DamageData> >,0> > >::operator++
; Function compile flags: /Ogsp
;	COMDAT ??E?$_Tree_const_iterator@V?$_Tree_val@V?$_Tmap_traits@VioHashString@@UDamageData@DamageTable@@U?$less@VioHashString@@@std@@V?$allocator@U?$pair@$$CBVioHashString@@UDamageData@DamageTable@@@std@@@5@$0A@@std@@@std@@@std@@QAE?AV01@H@Z
_TEXT	SEGMENT
___$ReturnUdt$ = 8					; size = 4
___formal$ = 12						; size = 4
??E?$_Tree_const_iterator@V?$_Tree_val@V?$_Tmap_traits@VioHashString@@UDamageData@DamageTable@@U?$less@VioHashString@@@std@@V?$allocator@U?$pair@$$CBVioHashString@@UDamageData@DamageTable@@@std@@@5@$0A@@std@@@std@@@std@@QAE?AV01@H@Z PROC ; std::_Tree_const_iterator<std::_Tree_val<std::_Tmap_traits<ioHashString,DamageTable::DamageData,std::less<ioHashString>,std::allocator<std::pair<ioHashString const ,DamageTable::DamageData> >,0> > >::operator++, COMDAT
; _this$ = ecx

; 270  : 		{	// postincrement

  00000	55		 push	 ebp
  00001	8b ec		 mov	 ebp, esp

; 271  : 		_Myiter _Tmp = *this;

  00003	8b 01		 mov	 eax, DWORD PTR [ecx]
  00005	56		 push	 esi
  00006	8b 75 08	 mov	 esi, DWORD PTR ___$ReturnUdt$[ebp]
  00009	89 06		 mov	 DWORD PTR [esi], eax

; 272  : 		++*this;

  0000b	e8 00 00 00 00	 call	 ??E?$_Tree_unchecked_const_iterator@V?$_Tree_val@V?$_Tmap_traits@VioHashString@@UDamageData@DamageTable@@U?$less@VioHashString@@@std@@V?$allocator@U?$pair@$$CBVioHashString@@UDamageData@DamageTable@@@std@@@5@$0A@@std@@@std@@U_Iterator_base0@2@@std@@QAEAAV01@XZ ; std::_Tree_unchecked_const_iterator<std::_Tree_val<std::_Tmap_traits<ioHashString,DamageTable::DamageData,std::less<ioHashString>,std::allocator<std::pair<ioHashString const ,DamageTable::DamageData> >,0> >,std::_Iterator_base0>::operator++

; 273  : 		return (_Tmp);

  00010	8b c6		 mov	 eax, esi
  00012	5e		 pop	 esi

; 274  : 		}

  00013	5d		 pop	 ebp
  00014	c2 08 00	 ret	 8
??E?$_Tree_const_iterator@V?$_Tree_val@V?$_Tmap_traits@VioHashString@@UDamageData@DamageTable@@U?$less@VioHashString@@@std@@V?$allocator@U?$pair@$$CBVioHashString@@UDamageData@DamageTable@@@std@@@5@$0A@@std@@@std@@@std@@QAE?AV01@H@Z ENDP ; std::_Tree_const_iterator<std::_Tree_val<std::_Tmap_traits<ioHashString,DamageTable::DamageData,std::less<ioHashString>,std::allocator<std::pair<ioHashString const ,DamageTable::DamageData> >,0> > >::operator++
_TEXT	ENDS
PUBLIC	??$?0ABVioHashString@@AAUDamageData@DamageTable@@@?$pair@$$CBVioHashString@@UDamageData@DamageTable@@@std@@QAE@ABVioHashString@@AAUDamageData@DamageTable@@@Z ; std::pair<ioHashString const ,DamageTable::DamageData>::pair<ioHashString const ,DamageTable::DamageData><ioHashString const &,DamageTable::DamageData &>
; Function compile flags: /Ogsp
; File c:\program files (x86)\microsoft visual studio 10.0\vc\include\utility
;	COMDAT ??$?0ABVioHashString@@AAUDamageData@DamageTable@@@?$pair@$$CBVioHashString@@UDamageData@DamageTable@@@std@@QAE@ABVioHashString@@AAUDamageData@DamageTable@@@Z
_TEXT	SEGMENT
__Val1$ = 8						; size = 4
__Val2$ = 12						; size = 4
??$?0ABVioHashString@@AAUDamageData@DamageTable@@@?$pair@$$CBVioHashString@@UDamageData@DamageTable@@@std@@QAE@ABVioHashString@@AAUDamageData@DamageTable@@@Z PROC ; std::pair<ioHashString const ,DamageTable::DamageData>::pair<ioHashString const ,DamageTable::DamageData><ioHashString const &,DamageTable::DamageData &>, COMDAT
; _this$ = ecx

; 247  : 		{	// construct from moved values

  00000	55		 push	 ebp
  00001	8b ec		 mov	 ebp, esp
  00003	56		 push	 esi
  00004	ff 75 0c	 push	 DWORD PTR __Val2$[ebp]
  00007	8b f1		 mov	 esi, ecx
  00009	ff 75 08	 push	 DWORD PTR __Val1$[ebp]
  0000c	e8 00 00 00 00	 call	 ??$?0ABVioHashString@@AAUDamageData@DamageTable@@@?$_Pair_base@$$CBVioHashString@@UDamageData@DamageTable@@@std@@QAE@ABVioHashString@@AAUDamageData@DamageTable@@@Z ; std::_Pair_base<ioHashString const ,DamageTable::DamageData>::_Pair_base<ioHashString const ,DamageTable::DamageData><ioHashString const &,DamageTable::DamageData &>

; 248  : 		}

  00011	8b c6		 mov	 eax, esi
  00013	5e		 pop	 esi
  00014	5d		 pop	 ebp
  00015	c2 08 00	 ret	 8
??$?0ABVioHashString@@AAUDamageData@DamageTable@@@?$pair@$$CBVioHashString@@UDamageData@DamageTable@@@std@@QAE@ABVioHashString@@AAUDamageData@DamageTable@@@Z ENDP ; std::pair<ioHashString const ,DamageTable::DamageData>::pair<ioHashString const ,DamageTable::DamageData><ioHashString const &,DamageTable::DamageData &>
_TEXT	ENDS
PUBLIC	??F?$_Tree_iterator@V?$_Tree_val@V?$_Tmap_traits@VioHashString@@UDamageData@DamageTable@@U?$less@VioHashString@@@std@@V?$allocator@U?$pair@$$CBVioHashString@@UDamageData@DamageTable@@@std@@@5@$0A@@std@@@std@@@std@@QAEAAV01@XZ ; std::_Tree_iterator<std::_Tree_val<std::_Tmap_traits<ioHashString,DamageTable::DamageData,std::less<ioHashString>,std::allocator<std::pair<ioHashString const ,DamageTable::DamageData> >,0> > >::operator--
; Function compile flags: /Ogsp
; File c:\program files (x86)\microsoft visual studio 10.0\vc\include\xtree
;	COMDAT ??F?$_Tree_iterator@V?$_Tree_val@V?$_Tmap_traits@VioHashString@@UDamageData@DamageTable@@U?$less@VioHashString@@@std@@V?$allocator@U?$pair@$$CBVioHashString@@UDamageData@DamageTable@@@std@@@5@$0A@@std@@@std@@@std@@QAEAAV01@XZ
_TEXT	SEGMENT
??F?$_Tree_iterator@V?$_Tree_val@V?$_Tmap_traits@VioHashString@@UDamageData@DamageTable@@U?$less@VioHashString@@@std@@V?$allocator@U?$pair@$$CBVioHashString@@UDamageData@DamageTable@@@std@@@5@$0A@@std@@@std@@@std@@QAEAAV01@XZ PROC ; std::_Tree_iterator<std::_Tree_val<std::_Tmap_traits<ioHashString,DamageTable::DamageData,std::less<ioHashString>,std::allocator<std::pair<ioHashString const ,DamageTable::DamageData> >,0> > >::operator--, COMDAT
; _this$ = ecx

; 418  : 		{	// predecrement

  00000	56		 push	 esi
  00001	8b f1		 mov	 esi, ecx

; 419  : 		--(*(_Mybase *)this);

  00003	e8 00 00 00 00	 call	 ??F?$_Tree_unchecked_const_iterator@V?$_Tree_val@V?$_Tmap_traits@VioHashString@@UDamageData@DamageTable@@U?$less@VioHashString@@@std@@V?$allocator@U?$pair@$$CBVioHashString@@UDamageData@DamageTable@@@std@@@5@$0A@@std@@@std@@U_Iterator_base0@2@@std@@QAEAAV01@XZ ; std::_Tree_unchecked_const_iterator<std::_Tree_val<std::_Tmap_traits<ioHashString,DamageTable::DamageData,std::less<ioHashString>,std::allocator<std::pair<ioHashString const ,DamageTable::DamageData> >,0> >,std::_Iterator_base0>::operator--

; 420  : 		return (*this);

  00008	8b c6		 mov	 eax, esi
  0000a	5e		 pop	 esi

; 421  : 		}

  0000b	c3		 ret	 0
??F?$_Tree_iterator@V?$_Tree_val@V?$_Tmap_traits@VioHashString@@UDamageData@DamageTable@@U?$less@VioHashString@@@std@@V?$allocator@U?$pair@$$CBVioHashString@@UDamageData@DamageTable@@@std@@@5@$0A@@std@@@std@@@std@@QAEAAV01@XZ ENDP ; std::_Tree_iterator<std::_Tree_val<std::_Tmap_traits<ioHashString,DamageTable::DamageData,std::less<ioHashString>,std::allocator<std::pair<ioHashString const ,DamageTable::DamageData> >,0> > >::operator--
_TEXT	ENDS
PUBLIC	??0?$pair@V?$_Tree_iterator@V?$_Tree_val@V?$_Tmap_traits@VioHashString@@UDamageData@DamageTable@@U?$less@VioHashString@@@std@@V?$allocator@U?$pair@$$CBVioHashString@@UDamageData@DamageTable@@@std@@@5@$0A@@std@@@std@@@std@@_N@std@@QAE@$$QAV?$_Tree_iterator@V?$_Tree_val@V?$_Tmap_traits@VioHashString@@UDamageData@DamageTable@@U?$less@VioHashString@@@std@@V?$allocator@U?$pair@$$CBVioHashString@@UDamageData@DamageTable@@@std@@@5@$0A@@std@@@std@@@1@$$QA_N@Z ; std::pair<std::_Tree_iterator<std::_Tree_val<std::_Tmap_traits<ioHashString,DamageTable::DamageData,std::less<ioHashString>,std::allocator<std::pair<ioHashString const ,DamageTable::DamageData> >,0> > >,bool>::pair<std::_Tree_iterator<std::_Tree_val<std::_Tmap_traits<ioHashString,DamageTable::DamageData,std::less<ioHashString>,std::allocator<std::pair<ioHashString const ,DamageTable::DamageData> >,0> > >,bool>
; Function compile flags: /Ogsp
; File c:\program files (x86)\microsoft visual studio 10.0\vc\include\utility
;	COMDAT ??0?$pair@V?$_Tree_iterator@V?$_Tree_val@V?$_Tmap_traits@VioHashString@@UDamageData@DamageTable@@U?$less@VioHashString@@@std@@V?$allocator@U?$pair@$$CBVioHashString@@UDamageData@DamageTable@@@std@@@5@$0A@@std@@@std@@@std@@_N@std@@QAE@$$QAV?$_Tree_iterator@V?$_Tree_val@V?$_Tmap_traits@VioHashString@@UDamageData@DamageTable@@U?$less@VioHashString@@@std@@V?$allocator@U?$pair@$$CBVioHashString@@UDamageData@DamageTable@@@std@@@5@$0A@@std@@@std@@@1@$$QA_N@Z
_TEXT	SEGMENT
__Val1$ = 8						; size = 4
__Val2$ = 12						; size = 4
??0?$pair@V?$_Tree_iterator@V?$_Tree_val@V?$_Tmap_traits@VioHashString@@UDamageData@DamageTable@@U?$less@VioHashString@@@std@@V?$allocator@U?$pair@$$CBVioHashString@@UDamageData@DamageTable@@@std@@@5@$0A@@std@@@std@@@std@@_N@std@@QAE@$$QAV?$_Tree_iterator@V?$_Tree_val@V?$_Tmap_traits@VioHashString@@UDamageData@DamageTable@@U?$less@VioHashString@@@std@@V?$allocator@U?$pair@$$CBVioHashString@@UDamageData@DamageTable@@@std@@@5@$0A@@std@@@std@@@1@$$QA_N@Z PROC ; std::pair<std::_Tree_iterator<std::_Tree_val<std::_Tmap_traits<ioHashString,DamageTable::DamageData,std::less<ioHashString>,std::allocator<std::pair<ioHashString const ,DamageTable::DamageData> >,0> > >,bool>::pair<std::_Tree_iterator<std::_Tree_val<std::_Tmap_traits<ioHashString,DamageTable::DamageData,std::less<ioHashString>,std::allocator<std::pair<ioHashString const ,DamageTable::DamageData> >,0> > >,bool>, COMDAT
; _this$ = ecx

; 227  : 		{	// construct from specified values

  00000	55		 push	 ebp
  00001	8b ec		 mov	 ebp, esp
  00003	8b c1		 mov	 eax, ecx
  00005	8b 4d 08	 mov	 ecx, DWORD PTR __Val1$[ebp]
  00008	8b 09		 mov	 ecx, DWORD PTR [ecx]
  0000a	89 08		 mov	 DWORD PTR [eax], ecx
  0000c	8b 4d 0c	 mov	 ecx, DWORD PTR __Val2$[ebp]
  0000f	8a 09		 mov	 cl, BYTE PTR [ecx]
  00011	88 48 04	 mov	 BYTE PTR [eax+4], cl

; 228  : 		}

  00014	5d		 pop	 ebp
  00015	c2 08 00	 ret	 8
??0?$pair@V?$_Tree_iterator@V?$_Tree_val@V?$_Tmap_traits@VioHashString@@UDamageData@DamageTable@@U?$less@VioHashString@@@std@@V?$allocator@U?$pair@$$CBVioHashString@@UDamageData@DamageTable@@@std@@@5@$0A@@std@@@std@@@std@@_N@std@@QAE@$$QAV?$_Tree_iterator@V?$_Tree_val@V?$_Tmap_traits@VioHashString@@UDamageData@DamageTable@@U?$less@VioHashString@@@std@@V?$allocator@U?$pair@$$CBVioHashString@@UDamageData@DamageTable@@@std@@@5@$0A@@std@@@std@@@1@$$QA_N@Z ENDP ; std::pair<std::_Tree_iterator<std::_Tree_val<std::_Tmap_traits<ioHashString,DamageTable::DamageData,std::less<ioHashString>,std::allocator<std::pair<ioHashString const ,DamageTable::DamageData> >,0> > >,bool>::pair<std::_Tree_iterator<std::_Tree_val<std::_Tmap_traits<ioHashString,DamageTable::DamageData,std::less<ioHashString>,std::allocator<std::pair<ioHashString const ,DamageTable::DamageData> >,0> > >,bool>
_TEXT	ENDS
PUBLIC	??$?0AAV?$_Tree_iterator@V?$_Tree_val@V?$_Tmap_traits@VioHashString@@UDamageData@DamageTable@@U?$less@VioHashString@@@std@@V?$allocator@U?$pair@$$CBVioHashString@@UDamageData@DamageTable@@@std@@@5@$0A@@std@@@std@@@std@@_N@?$pair@V?$_Tree_iterator@V?$_Tree_val@V?$_Tmap_traits@VioHashString@@UDamageData@DamageTable@@U?$less@VioHashString@@@std@@V?$allocator@U?$pair@$$CBVioHashString@@UDamageData@DamageTable@@@std@@@5@$0A@@std@@@std@@@std@@_N@std@@QAE@AAV?$_Tree_iterator@V?$_Tree_val@V?$_Tmap_traits@VioHashString@@UDamageData@DamageTable@@U?$less@VioHashString@@@std@@V?$allocator@U?$pair@$$CBVioHashString@@UDamageData@DamageTable@@@std@@@5@$0A@@std@@@std@@@1@$$QA_N@Z ; std::pair<std::_Tree_iterator<std::_Tree_val<std::_Tmap_traits<ioHashString,DamageTable::DamageData,std::less<ioHashString>,std::allocator<std::pair<ioHashString const ,DamageTable::DamageData> >,0> > >,bool>::pair<std::_Tree_iterator<std::_Tree_val<std::_Tmap_traits<ioHashString,DamageTable::DamageData,std::less<ioHashString>,std::allocator<std::pair<ioHashString const ,DamageTable::DamageData> >,0> > >,bool><std::_Tree_iterator<std::_Tree_val<std::_Tmap_traits<ioHashString,DamageTable::DamageData,std::less<ioHashString>,std::allocator<std::pair<ioHashString const ,DamageTable::DamageData> >,0> > > &,bool>
; Function compile flags: /Ogsp
;	COMDAT ??$?0AAV?$_Tree_iterator@V?$_Tree_val@V?$_Tmap_traits@VioHashString@@UDamageData@DamageTable@@U?$less@VioHashString@@@std@@V?$allocator@U?$pair@$$CBVioHashString@@UDamageData@DamageTable@@@std@@@5@$0A@@std@@@std@@@std@@_N@?$pair@V?$_Tree_iterator@V?$_Tree_val@V?$_Tmap_traits@VioHashString@@UDamageData@DamageTable@@U?$less@VioHashString@@@std@@V?$allocator@U?$pair@$$CBVioHashString@@UDamageData@DamageTable@@@std@@@5@$0A@@std@@@std@@@std@@_N@std@@QAE@AAV?$_Tree_iterator@V?$_Tree_val@V?$_Tmap_traits@VioHashString@@UDamageData@DamageTable@@U?$less@VioHashString@@@std@@V?$allocator@U?$pair@$$CBVioHashString@@UDamageData@DamageTable@@@std@@@5@$0A@@std@@@std@@@1@$$QA_N@Z
_TEXT	SEGMENT
__Val1$ = 8						; size = 4
__Val2$ = 12						; size = 4
??$?0AAV?$_Tree_iterator@V?$_Tree_val@V?$_Tmap_traits@VioHashString@@UDamageData@DamageTable@@U?$less@VioHashString@@@std@@V?$allocator@U?$pair@$$CBVioHashString@@UDamageData@DamageTable@@@std@@@5@$0A@@std@@@std@@@std@@_N@?$pair@V?$_Tree_iterator@V?$_Tree_val@V?$_Tmap_traits@VioHashString@@UDamageData@DamageTable@@U?$less@VioHashString@@@std@@V?$allocator@U?$pair@$$CBVioHashString@@UDamageData@DamageTable@@@std@@@5@$0A@@std@@@std@@@std@@_N@std@@QAE@AAV?$_Tree_iterator@V?$_Tree_val@V?$_Tmap_traits@VioHashString@@UDamageData@DamageTable@@U?$less@VioHashString@@@std@@V?$allocator@U?$pair@$$CBVioHashString@@UDamageData@DamageTable@@@std@@@5@$0A@@std@@@std@@@1@$$QA_N@Z PROC ; std::pair<std::_Tree_iterator<std::_Tree_val<std::_Tmap_traits<ioHashString,DamageTable::DamageData,std::less<ioHashString>,std::allocator<std::pair<ioHashString const ,DamageTable::DamageData> >,0> > >,bool>::pair<std::_Tree_iterator<std::_Tree_val<std::_Tmap_traits<ioHashString,DamageTable::DamageData,std::less<ioHashString>,std::allocator<std::pair<ioHashString const ,DamageTable::DamageData> >,0> > >,bool><std::_Tree_iterator<std::_Tree_val<std::_Tmap_traits<ioHashString,DamageTable::DamageData,std::less<ioHashString>,std::allocator<std::pair<ioHashString const ,DamageTable::DamageData> >,0> > > &,bool>, COMDAT
; _this$ = ecx

; 247  : 		{	// construct from moved values

  00000	55		 push	 ebp
  00001	8b ec		 mov	 ebp, esp
  00003	8b c1		 mov	 eax, ecx
  00005	8b 4d 08	 mov	 ecx, DWORD PTR __Val1$[ebp]
  00008	8b 09		 mov	 ecx, DWORD PTR [ecx]
  0000a	89 08		 mov	 DWORD PTR [eax], ecx
  0000c	8b 4d 0c	 mov	 ecx, DWORD PTR __Val2$[ebp]
  0000f	8a 09		 mov	 cl, BYTE PTR [ecx]
  00011	88 48 04	 mov	 BYTE PTR [eax+4], cl

; 248  : 		}

  00014	5d		 pop	 ebp
  00015	c2 08 00	 ret	 8
??$?0AAV?$_Tree_iterator@V?$_Tree_val@V?$_Tmap_traits@VioHashString@@UDamageData@DamageTable@@U?$less@VioHashString@@@std@@V?$allocator@U?$pair@$$CBVioHashString@@UDamageData@DamageTable@@@std@@@5@$0A@@std@@@std@@@std@@_N@?$pair@V?$_Tree_iterator@V?$_Tree_val@V?$_Tmap_traits@VioHashString@@UDamageData@DamageTable@@U?$less@VioHashString@@@std@@V?$allocator@U?$pair@$$CBVioHashString@@UDamageData@DamageTable@@@std@@@5@$0A@@std@@@std@@@std@@_N@std@@QAE@AAV?$_Tree_iterator@V?$_Tree_val@V?$_Tmap_traits@VioHashString@@UDamageData@DamageTable@@U?$less@VioHashString@@@std@@V?$allocator@U?$pair@$$CBVioHashString@@UDamageData@DamageTable@@@std@@@5@$0A@@std@@@std@@@1@$$QA_N@Z ENDP ; std::pair<std::_Tree_iterator<std::_Tree_val<std::_Tmap_traits<ioHashString,DamageTable::DamageData,std::less<ioHashString>,std::allocator<std::pair<ioHashString const ,DamageTable::DamageData> >,0> > >,bool>::pair<std::_Tree_iterator<std::_Tree_val<std::_Tmap_traits<ioHashString,DamageTable::DamageData,std::less<ioHashString>,std::allocator<std::pair<ioHashString const ,DamageTable::DamageData> >,0> > >,bool><std::_Tree_iterator<std::_Tree_val<std::_Tmap_traits<ioHashString,DamageTable::DamageData,std::less<ioHashString>,std::allocator<std::pair<ioHashString const ,DamageTable::DamageData> >,0> > > &,bool>
_TEXT	ENDS
PUBLIC	??$_Destroy@U?$pair@$$CBVioHashString@@UDamageData@DamageTable@@@std@@@std@@YAXPAU?$pair@$$CBVioHashString@@UDamageData@DamageTable@@@0@@Z ; std::_Destroy<std::pair<ioHashString const ,DamageTable::DamageData> >
; Function compile flags: /Ogsp
; File c:\program files (x86)\microsoft visual studio 10.0\vc\include\xmemory
;	COMDAT ??$_Destroy@U?$pair@$$CBVioHashString@@UDamageData@DamageTable@@@std@@@std@@YAXPAU?$pair@$$CBVioHashString@@UDamageData@DamageTable@@@0@@Z
_TEXT	SEGMENT
__Ptr$ = 8						; size = 4
??$_Destroy@U?$pair@$$CBVioHashString@@UDamageData@DamageTable@@@std@@@std@@YAXPAU?$pair@$$CBVioHashString@@UDamageData@DamageTable@@@0@@Z PROC ; std::_Destroy<std::pair<ioHashString const ,DamageTable::DamageData> >, COMDAT

; 62   : 	{	// destroy object at _Ptr

  00000	55		 push	 ebp
  00001	8b ec		 mov	 ebp, esp

; 63   : 	_Ptr->~_Ty();

  00003	8b 4d 08	 mov	 ecx, DWORD PTR __Ptr$[ebp]

; 64   : 	}

  00006	5d		 pop	 ebp

; 63   : 	_Ptr->~_Ty();

  00007	ff 25 00 00 00
	00		 jmp	 DWORD PTR __imp_??1ioHashString@@QAE@XZ
??$_Destroy@U?$pair@$$CBVioHashString@@UDamageData@DamageTable@@@std@@@std@@YAXPAU?$pair@$$CBVioHashString@@UDamageData@DamageTable@@@0@@Z ENDP ; std::_Destroy<std::pair<ioHashString const ,DamageTable::DamageData> >
_TEXT	ENDS
PUBLIC	??$?0$$CBVioHashString@@UDamageData@DamageTable@@@?$pair@$$CBVioHashString@@UDamageData@DamageTable@@@std@@QAE@$$QAU01@@Z ; std::pair<ioHashString const ,DamageTable::DamageData>::pair<ioHashString const ,DamageTable::DamageData><ioHashString const ,DamageTable::DamageData>
; Function compile flags: /Ogsp
; File c:\program files (x86)\microsoft visual studio 10.0\vc\include\utility
;	COMDAT ??$?0$$CBVioHashString@@UDamageData@DamageTable@@@?$pair@$$CBVioHashString@@UDamageData@DamageTable@@@std@@QAE@$$QAU01@@Z
_TEXT	SEGMENT
__Right$ = 8						; size = 4
??$?0$$CBVioHashString@@UDamageData@DamageTable@@@?$pair@$$CBVioHashString@@UDamageData@DamageTable@@@std@@QAE@$$QAU01@@Z PROC ; std::pair<ioHashString const ,DamageTable::DamageData>::pair<ioHashString const ,DamageTable::DamageData><ioHashString const ,DamageTable::DamageData>, COMDAT
; _this$ = ecx

; 255  : 		{	// construct from moved compatible pair

  00000	55		 push	 ebp
  00001	8b ec		 mov	 ebp, esp
  00003	8b 45 08	 mov	 eax, DWORD PTR __Right$[ebp]
  00006	56		 push	 esi
  00007	8b f1		 mov	 esi, ecx
  00009	8d 48 10	 lea	 ecx, DWORD PTR [eax+16]
  0000c	51		 push	 ecx
  0000d	50		 push	 eax
  0000e	8b ce		 mov	 ecx, esi
  00010	e8 00 00 00 00	 call	 ??0?$_Pair_base@$$CBVioHashString@@UDamageData@DamageTable@@@std@@QAE@$$QBVioHashString@@$$QAUDamageData@DamageTable@@@Z ; std::_Pair_base<ioHashString const ,DamageTable::DamageData>::_Pair_base<ioHashString const ,DamageTable::DamageData>

; 256  : 		}

  00015	8b c6		 mov	 eax, esi
  00017	5e		 pop	 esi
  00018	5d		 pop	 ebp
  00019	c2 04 00	 ret	 4
??$?0$$CBVioHashString@@UDamageData@DamageTable@@@?$pair@$$CBVioHashString@@UDamageData@DamageTable@@@std@@QAE@$$QAU01@@Z ENDP ; std::pair<ioHashString const ,DamageTable::DamageData>::pair<ioHashString const ,DamageTable::DamageData><ioHashString const ,DamageTable::DamageData>
_TEXT	ENDS
PUBLIC	??E?$_Tree_iterator@V?$_Tree_val@V?$_Tmap_traits@VioHashString@@UDamageData@DamageTable@@U?$less@VioHashString@@@std@@V?$allocator@U?$pair@$$CBVioHashString@@UDamageData@DamageTable@@@std@@@5@$0A@@std@@@std@@@std@@QAEAAV01@XZ ; std::_Tree_iterator<std::_Tree_val<std::_Tmap_traits<ioHashString,DamageTable::DamageData,std::less<ioHashString>,std::allocator<std::pair<ioHashString const ,DamageTable::DamageData> >,0> > >::operator++
; Function compile flags: /Ogsp
; File c:\program files (x86)\microsoft visual studio 10.0\vc\include\xtree
;	COMDAT ??E?$_Tree_iterator@V?$_Tree_val@V?$_Tmap_traits@VioHashString@@UDamageData@DamageTable@@U?$less@VioHashString@@@std@@V?$allocator@U?$pair@$$CBVioHashString@@UDamageData@DamageTable@@@std@@@5@$0A@@std@@@std@@@std@@QAEAAV01@XZ
_TEXT	SEGMENT
??E?$_Tree_iterator@V?$_Tree_val@V?$_Tmap_traits@VioHashString@@UDamageData@DamageTable@@U?$less@VioHashString@@@std@@V?$allocator@U?$pair@$$CBVioHashString@@UDamageData@DamageTable@@@std@@@5@$0A@@std@@@std@@@std@@QAEAAV01@XZ PROC ; std::_Tree_iterator<std::_Tree_val<std::_Tmap_traits<ioHashString,DamageTable::DamageData,std::less<ioHashString>,std::allocator<std::pair<ioHashString const ,DamageTable::DamageData> >,0> > >::operator++, COMDAT
; _this$ = ecx

; 405  : 		{	// preincrement

  00000	56		 push	 esi
  00001	8b f1		 mov	 esi, ecx

; 406  : 		++(*(_Mybase *)this);

  00003	e8 00 00 00 00	 call	 ??E?$_Tree_unchecked_const_iterator@V?$_Tree_val@V?$_Tmap_traits@VioHashString@@UDamageData@DamageTable@@U?$less@VioHashString@@@std@@V?$allocator@U?$pair@$$CBVioHashString@@UDamageData@DamageTable@@@std@@@5@$0A@@std@@@std@@U_Iterator_base0@2@@std@@QAEAAV01@XZ ; std::_Tree_unchecked_const_iterator<std::_Tree_val<std::_Tmap_traits<ioHashString,DamageTable::DamageData,std::less<ioHashString>,std::allocator<std::pair<ioHashString const ,DamageTable::DamageData> >,0> >,std::_Iterator_base0>::operator++

; 407  : 		return (*this);

  00008	8b c6		 mov	 eax, esi
  0000a	5e		 pop	 esi

; 408  : 		}

  0000b	c3		 ret	 0
??E?$_Tree_iterator@V?$_Tree_val@V?$_Tmap_traits@VioHashString@@UDamageData@DamageTable@@U?$less@VioHashString@@@std@@V?$allocator@U?$pair@$$CBVioHashString@@UDamageData@DamageTable@@@std@@@5@$0A@@std@@@std@@@std@@QAEAAV01@XZ ENDP ; std::_Tree_iterator<std::_Tree_val<std::_Tmap_traits<ioHashString,DamageTable::DamageData,std::less<ioHashString>,std::allocator<std::pair<ioHashString const ,DamageTable::DamageData> >,0> > >::operator++
_TEXT	ENDS
PUBLIC	??0?$_Tree@V?$_Tmap_traits@VioHashString@@UDamageData@DamageTable@@U?$less@VioHashString@@@std@@V?$allocator@U?$pair@$$CBVioHashString@@UDamageData@DamageTable@@@std@@@5@$0A@@std@@@std@@QAE@ABU?$less@VioHashString@@@1@ABV?$allocator@U?$pair@$$CBVioHashString@@UDamageData@DamageTable@@@std@@@1@@Z ; std::_Tree<std::_Tmap_traits<ioHashString,DamageTable::DamageData,std::less<ioHashString>,std::allocator<std::pair<ioHashString const ,DamageTable::DamageData> >,0> >::_Tree<std::_Tmap_traits<ioHashString,DamageTable::DamageData,std::less<ioHashString>,std::allocator<std::pair<ioHashString const ,DamageTable::DamageData> >,0> >
; Function compile flags: /Ogsp
;	COMDAT ??0?$_Tree@V?$_Tmap_traits@VioHashString@@UDamageData@DamageTable@@U?$less@VioHashString@@@std@@V?$allocator@U?$pair@$$CBVioHashString@@UDamageData@DamageTable@@@std@@@5@$0A@@std@@@std@@QAE@ABU?$less@VioHashString@@@1@ABV?$allocator@U?$pair@$$CBVioHashString@@UDamageData@DamageTable@@@std@@@1@@Z
_TEXT	SEGMENT
$T507313 = -4						; size = 4
$T507308 = -4						; size = 4
__Parg$ = 8						; size = 4
__Al$ = 12						; size = 4
??0?$_Tree@V?$_Tmap_traits@VioHashString@@UDamageData@DamageTable@@U?$less@VioHashString@@@std@@V?$allocator@U?$pair@$$CBVioHashString@@UDamageData@DamageTable@@@std@@@5@$0A@@std@@@std@@QAE@ABU?$less@VioHashString@@@1@ABV?$allocator@U?$pair@$$CBVioHashString@@UDamageData@DamageTable@@@std@@@1@@Z PROC ; std::_Tree<std::_Tmap_traits<ioHashString,DamageTable::DamageData,std::less<ioHashString>,std::allocator<std::pair<ioHashString const ,DamageTable::DamageData> >,0> >::_Tree<std::_Tmap_traits<ioHashString,DamageTable::DamageData,std::less<ioHashString>,std::allocator<std::pair<ioHashString const ,DamageTable::DamageData> >,0> >, COMDAT
; _this$ = ecx

; 698  : 		{	// construct empty tree

  00000	55		 push	 ebp
  00001	8b ec		 mov	 ebp, esp
  00003	51		 push	 ecx
  00004	56		 push	 esi
  00005	51		 push	 ecx
  00006	89 65 fc	 mov	 DWORD PTR $T507308[ebp], esp
  00009	89 65 fc	 mov	 DWORD PTR $T507313[ebp], esp
  0000c	ff 75 08	 push	 DWORD PTR __Parg$[ebp]
  0000f	8b f1		 mov	 esi, ecx
  00011	e8 00 00 00 00	 call	 ??0?$_Tree_val@V?$_Tmap_traits@VioHashString@@UDamageData@DamageTable@@U?$less@VioHashString@@@std@@V?$allocator@U?$pair@$$CBVioHashString@@UDamageData@DamageTable@@@std@@@5@$0A@@std@@@std@@QAE@ABU?$less@VioHashString@@@1@V?$allocator@U?$pair@$$CBVioHashString@@UDamageData@DamageTable@@@std@@@1@@Z ; std::_Tree_val<std::_Tmap_traits<ioHashString,DamageTable::DamageData,std::less<ioHashString>,std::allocator<std::pair<ioHashString const ,DamageTable::DamageData> >,0> >::_Tree_val<std::_Tmap_traits<ioHashString,DamageTable::DamageData,std::less<ioHashString>,std::allocator<std::pair<ioHashString const ,DamageTable::DamageData> >,0> >

; 699  : 		}

  00016	8b c6		 mov	 eax, esi
  00018	5e		 pop	 esi
  00019	c9		 leave
  0001a	c2 08 00	 ret	 8
??0?$_Tree@V?$_Tmap_traits@VioHashString@@UDamageData@DamageTable@@U?$less@VioHashString@@@std@@V?$allocator@U?$pair@$$CBVioHashString@@UDamageData@DamageTable@@@std@@@5@$0A@@std@@@std@@QAE@ABU?$less@VioHashString@@@1@ABV?$allocator@U?$pair@$$CBVioHashString@@UDamageData@DamageTable@@@std@@@1@@Z ENDP ; std::_Tree<std::_Tmap_traits<ioHashString,DamageTable::DamageData,std::less<ioHashString>,std::allocator<std::pair<ioHashString const ,DamageTable::DamageData> >,0> >::_Tree<std::_Tmap_traits<ioHashString,DamageTable::DamageData,std::less<ioHashString>,std::allocator<std::pair<ioHashString const ,DamageTable::DamageData> >,0> >
_TEXT	ENDS
PUBLIC	??0?$_Tree_iterator@V?$_Tree_val@V?$_Tmap_traits@VioHashString@@UDamageData@DamageTable@@U?$less@VioHashString@@@std@@V?$allocator@U?$pair@$$CBVioHashString@@UDamageData@DamageTable@@@std@@@5@$0A@@std@@@std@@@std@@QAE@PAU_Node@?$_Tree_nod@V?$_Tmap_traits@VioHashString@@UDamageData@DamageTable@@U?$less@VioHashString@@@std@@V?$allocator@U?$pair@$$CBVioHashString@@UDamageData@DamageTable@@@std@@@5@$0A@@std@@@1@PBV?$_Tree_val@V?$_Tmap_traits@VioHashString@@UDamageData@DamageTable@@U?$less@VioHashString@@@std@@V?$allocator@U?$pair@$$CBVioHashString@@UDamageData@DamageTable@@@std@@@5@$0A@@std@@@1@@Z ; std::_Tree_iterator<std::_Tree_val<std::_Tmap_traits<ioHashString,DamageTable::DamageData,std::less<ioHashString>,std::allocator<std::pair<ioHashString const ,DamageTable::DamageData> >,0> > >::_Tree_iterator<std::_Tree_val<std::_Tmap_traits<ioHashString,DamageTable::DamageData,std::less<ioHashString>,std::allocator<std::pair<ioHashString const ,DamageTable::DamageData> >,0> > >
; Function compile flags: /Ogsp
;	COMDAT ??0?$_Tree_iterator@V?$_Tree_val@V?$_Tmap_traits@VioHashString@@UDamageData@DamageTable@@U?$less@VioHashString@@@std@@V?$allocator@U?$pair@$$CBVioHashString@@UDamageData@DamageTable@@@std@@@5@$0A@@std@@@std@@@std@@QAE@PAU_Node@?$_Tree_nod@V?$_Tmap_traits@VioHashString@@UDamageData@DamageTable@@U?$less@VioHashString@@@std@@V?$allocator@U?$pair@$$CBVioHashString@@UDamageData@DamageTable@@@std@@@5@$0A@@std@@@1@PBV?$_Tree_val@V?$_Tmap_traits@VioHashString@@UDamageData@DamageTable@@U?$less@VioHashString@@@std@@V?$allocator@U?$pair@$$CBVioHashString@@UDamageData@DamageTable@@@std@@@5@$0A@@std@@@1@@Z
_TEXT	SEGMENT
__Pnode$ = 8						; size = 4
__Plist$ = 12						; size = 4
??0?$_Tree_iterator@V?$_Tree_val@V?$_Tmap_traits@VioHashString@@UDamageData@DamageTable@@U?$less@VioHashString@@@std@@V?$allocator@U?$pair@$$CBVioHashString@@UDamageData@DamageTable@@@std@@@5@$0A@@std@@@std@@@std@@QAE@PAU_Node@?$_Tree_nod@V?$_Tmap_traits@VioHashString@@UDamageData@DamageTable@@U?$less@VioHashString@@@std@@V?$allocator@U?$pair@$$CBVioHashString@@UDamageData@DamageTable@@@std@@@5@$0A@@std@@@1@PBV?$_Tree_val@V?$_Tmap_traits@VioHashString@@UDamageData@DamageTable@@U?$less@VioHashString@@@std@@V?$allocator@U?$pair@$$CBVioHashString@@UDamageData@DamageTable@@@std@@@5@$0A@@std@@@1@@Z PROC ; std::_Tree_iterator<std::_Tree_val<std::_Tmap_traits<ioHashString,DamageTable::DamageData,std::less<ioHashString>,std::allocator<std::pair<ioHashString const ,DamageTable::DamageData> >,0> > >::_Tree_iterator<std::_Tree_val<std::_Tmap_traits<ioHashString,DamageTable::DamageData,std::less<ioHashString>,std::allocator<std::pair<ioHashString const ,DamageTable::DamageData> >,0> > >, COMDAT
; _this$ = ecx

; 378  : 		{	// construct with node pointer _Pnode

  00000	55		 push	 ebp
  00001	8b ec		 mov	 ebp, esp
  00003	8b c1		 mov	 eax, ecx
  00005	8b 4d 08	 mov	 ecx, DWORD PTR __Pnode$[ebp]
  00008	89 08		 mov	 DWORD PTR [eax], ecx

; 379  : 		}

  0000a	5d		 pop	 ebp
  0000b	c2 08 00	 ret	 8
??0?$_Tree_iterator@V?$_Tree_val@V?$_Tmap_traits@VioHashString@@UDamageData@DamageTable@@U?$less@VioHashString@@@std@@V?$allocator@U?$pair@$$CBVioHashString@@UDamageData@DamageTable@@@std@@@5@$0A@@std@@@std@@@std@@QAE@PAU_Node@?$_Tree_nod@V?$_Tmap_traits@VioHashString@@UDamageData@DamageTable@@U?$less@VioHashString@@@std@@V?$allocator@U?$pair@$$CBVioHashString@@UDamageData@DamageTable@@@std@@@5@$0A@@std@@@1@PBV?$_Tree_val@V?$_Tmap_traits@VioHashString@@UDamageData@DamageTable@@U?$less@VioHashString@@@std@@V?$allocator@U?$pair@$$CBVioHashString@@UDamageData@DamageTable@@@std@@@5@$0A@@std@@@1@@Z ENDP ; std::_Tree_iterator<std::_Tree_val<std::_Tmap_traits<ioHashString,DamageTable::DamageData,std::less<ioHashString>,std::allocator<std::pair<ioHashString const ,DamageTable::DamageData> >,0> > >::_Tree_iterator<std::_Tree_val<std::_Tmap_traits<ioHashString,DamageTable::DamageData,std::less<ioHashString>,std::allocator<std::pair<ioHashString const ,DamageTable::DamageData> >,0> > >
_TEXT	ENDS
PUBLIC	?destroy@?$allocator@U?$pair@$$CBVioHashString@@UDamageData@DamageTable@@@std@@@std@@QAEXPAU?$pair@$$CBVioHashString@@UDamageData@DamageTable@@@2@@Z ; std::allocator<std::pair<ioHashString const ,DamageTable::DamageData> >::destroy
; Function compile flags: /Ogsp
; File c:\program files (x86)\microsoft visual studio 10.0\vc\include\xmemory
;	COMDAT ?destroy@?$allocator@U?$pair@$$CBVioHashString@@UDamageData@DamageTable@@@std@@@std@@QAEXPAU?$pair@$$CBVioHashString@@UDamageData@DamageTable@@@2@@Z
_TEXT	SEGMENT
__Ptr$ = 8						; size = 4
?destroy@?$allocator@U?$pair@$$CBVioHashString@@UDamageData@DamageTable@@@std@@@std@@QAEXPAU?$pair@$$CBVioHashString@@UDamageData@DamageTable@@@2@@Z PROC ; std::allocator<std::pair<ioHashString const ,DamageTable::DamageData> >::destroy, COMDAT
; _this$ = ecx

; 212  : 		{	// destroy object at _Ptr

  00000	55		 push	 ebp
  00001	8b ec		 mov	 ebp, esp

; 213  : 		_Destroy(_Ptr);

  00003	8b 4d 08	 mov	 ecx, DWORD PTR __Ptr$[ebp]
  00006	ff 15 00 00 00
	00		 call	 DWORD PTR __imp_??1ioHashString@@QAE@XZ

; 214  : 		}

  0000c	5d		 pop	 ebp
  0000d	c2 04 00	 ret	 4
?destroy@?$allocator@U?$pair@$$CBVioHashString@@UDamageData@DamageTable@@@std@@@std@@QAEXPAU?$pair@$$CBVioHashString@@UDamageData@DamageTable@@@2@@Z ENDP ; std::allocator<std::pair<ioHashString const ,DamageTable::DamageData> >::destroy
_TEXT	ENDS
PUBLIC	??$_Advance@V?$_Tree_iterator@V?$_Tree_val@V?$_Tmap_traits@VioHashString@@UDamageData@DamageTable@@U?$less@VioHashString@@@std@@V?$allocator@U?$pair@$$CBVioHashString@@UDamageData@DamageTable@@@std@@@5@$0A@@std@@@std@@@std@@H@std@@YAXAAV?$_Tree_iterator@V?$_Tree_val@V?$_Tmap_traits@VioHashString@@UDamageData@DamageTable@@U?$less@VioHashString@@@std@@V?$allocator@U?$pair@$$CBVioHashString@@UDamageData@DamageTable@@@std@@@5@$0A@@std@@@std@@@0@HUbidirectional_iterator_tag@0@@Z ; std::_Advance<std::_Tree_iterator<std::_Tree_val<std::_Tmap_traits<ioHashString,DamageTable::DamageData,std::less<ioHashString>,std::allocator<std::pair<ioHashString const ,DamageTable::DamageData> >,0> > >,int>
; Function compile flags: /Ogsp
; File c:\program files (x86)\microsoft visual studio 10.0\vc\include\xutility
;	COMDAT ??$_Advance@V?$_Tree_iterator@V?$_Tree_val@V?$_Tmap_traits@VioHashString@@UDamageData@DamageTable@@U?$less@VioHashString@@@std@@V?$allocator@U?$pair@$$CBVioHashString@@UDamageData@DamageTable@@@std@@@5@$0A@@std@@@std@@@std@@H@std@@YAXAAV?$_Tree_iterator@V?$_Tree_val@V?$_Tmap_traits@VioHashString@@UDamageData@DamageTable@@U?$less@VioHashString@@@std@@V?$allocator@U?$pair@$$CBVioHashString@@UDamageData@DamageTable@@@std@@@5@$0A@@std@@@std@@@0@HUbidirectional_iterator_tag@0@@Z
_TEXT	SEGMENT
__Where$ = 8						; size = 4
__Off$ = 12						; size = 4
___formal$ = 16						; size = 1
??$_Advance@V?$_Tree_iterator@V?$_Tree_val@V?$_Tmap_traits@VioHashString@@UDamageData@DamageTable@@U?$less@VioHashString@@@std@@V?$allocator@U?$pair@$$CBVioHashString@@UDamageData@DamageTable@@@std@@@5@$0A@@std@@@std@@@std@@H@std@@YAXAAV?$_Tree_iterator@V?$_Tree_val@V?$_Tmap_traits@VioHashString@@UDamageData@DamageTable@@U?$less@VioHashString@@@std@@V?$allocator@U?$pair@$$CBVioHashString@@UDamageData@DamageTable@@@std@@@5@$0A@@std@@@std@@@0@HUbidirectional_iterator_tag@0@@Z PROC ; std::_Advance<std::_Tree_iterator<std::_Tree_val<std::_Tmap_traits<ioHashString,DamageTable::DamageData,std::less<ioHashString>,std::allocator<std::pair<ioHashString const ,DamageTable::DamageData> >,0> > >,int>, COMDAT

; 830  : 	{	// increment iterator by offset, bidirectional iterators

  00000	55		 push	 ebp
  00001	8b ec		 mov	 ebp, esp
  00003	56		 push	 esi

; 831  : 	for (; 0 < _Off; --_Off)

  00004	8b 75 0c	 mov	 esi, DWORD PTR __Off$[ebp]
  00007	eb 09		 jmp	 SHORT $LN21@Advance
$LL6@Advance:

; 832  : 		++_Where;

  00009	8b 4d 08	 mov	 ecx, DWORD PTR __Where$[ebp]
  0000c	e8 00 00 00 00	 call	 ??E?$_Tree_unchecked_const_iterator@V?$_Tree_val@V?$_Tmap_traits@VioHashString@@UDamageData@DamageTable@@U?$less@VioHashString@@@std@@V?$allocator@U?$pair@$$CBVioHashString@@UDamageData@DamageTable@@@std@@@5@$0A@@std@@@std@@U_Iterator_base0@2@@std@@QAEAAV01@XZ ; std::_Tree_unchecked_const_iterator<std::_Tree_val<std::_Tmap_traits<ioHashString,DamageTable::DamageData,std::less<ioHashString>,std::allocator<std::pair<ioHashString const ,DamageTable::DamageData> >,0> >,std::_Iterator_base0>::operator++
  00011	4e		 dec	 esi
$LN21@Advance:

; 831  : 	for (; 0 < _Off; --_Off)

  00012	85 f6		 test	 esi, esi
  00014	7f f3		 jg	 SHORT $LL6@Advance

; 833  : 	for (; _Off < 0; ++_Off)

  00016	79 0d		 jns	 SHORT $LN1@Advance
  00018	f7 de		 neg	 esi
$LL3@Advance:

; 834  : 		--_Where;

  0001a	8b 4d 08	 mov	 ecx, DWORD PTR __Where$[ebp]
  0001d	e8 00 00 00 00	 call	 ??F?$_Tree_unchecked_const_iterator@V?$_Tree_val@V?$_Tmap_traits@VioHashString@@UDamageData@DamageTable@@U?$less@VioHashString@@@std@@V?$allocator@U?$pair@$$CBVioHashString@@UDamageData@DamageTable@@@std@@@5@$0A@@std@@@std@@U_Iterator_base0@2@@std@@QAEAAV01@XZ ; std::_Tree_unchecked_const_iterator<std::_Tree_val<std::_Tmap_traits<ioHashString,DamageTable::DamageData,std::less<ioHashString>,std::allocator<std::pair<ioHashString const ,DamageTable::DamageData> >,0> >,std::_Iterator_base0>::operator--
  00022	4e		 dec	 esi
  00023	75 f5		 jne	 SHORT $LL3@Advance
$LN1@Advance:
  00025	5e		 pop	 esi

; 835  : 	}

  00026	5d		 pop	 ebp
  00027	c3		 ret	 0
??$_Advance@V?$_Tree_iterator@V?$_Tree_val@V?$_Tmap_traits@VioHashString@@UDamageData@DamageTable@@U?$less@VioHashString@@@std@@V?$allocator@U?$pair@$$CBVioHashString@@UDamageData@DamageTable@@@std@@@5@$0A@@std@@@std@@@std@@H@std@@YAXAAV?$_Tree_iterator@V?$_Tree_val@V?$_Tmap_traits@VioHashString@@UDamageData@DamageTable@@U?$less@VioHashString@@@std@@V?$allocator@U?$pair@$$CBVioHashString@@UDamageData@DamageTable@@@std@@@5@$0A@@std@@@std@@@0@HUbidirectional_iterator_tag@0@@Z ENDP ; std::_Advance<std::_Tree_iterator<std::_Tree_val<std::_Tmap_traits<ioHashString,DamageTable::DamageData,std::less<ioHashString>,std::allocator<std::pair<ioHashString const ,DamageTable::DamageData> >,0> > >,int>
_TEXT	ENDS
PUBLIC	?construct@?$allocator@U?$pair@$$CBVioHashString@@UDamageData@DamageTable@@@std@@@std@@QAEXPAU?$pair@$$CBVioHashString@@UDamageData@DamageTable@@@2@$$QAU32@@Z ; std::allocator<std::pair<ioHashString const ,DamageTable::DamageData> >::construct
EXTRN	___CxxFrameHandler3:PROC
EXTRN	@__security_check_cookie@4:PROC
EXTRN	__EH_epilog3:PROC
EXTRN	__EH_prolog3:PROC
;	COMDAT xdata$x
; File c:\program files (x86)\microsoft visual studio 10.0\vc\include\utility
xdata$x	SEGMENT
__unwindtable$?construct@?$allocator@U?$pair@$$CBVioHashString@@UDamageData@DamageTable@@@std@@@std@@QAEXPAU?$pair@$$CBVioHashString@@UDamageData@DamageTable@@@2@$$QAU32@@Z DD 0ffffffffH
	DD	FLAT:__unwindfunclet$?construct@?$allocator@U?$pair@$$CBVioHashString@@UDamageData@DamageTable@@@std@@@std@@QAEXPAU?$pair@$$CBVioHashString@@UDamageData@DamageTable@@@2@$$QAU32@@Z$0
__ehfuncinfo$?construct@?$allocator@U?$pair@$$CBVioHashString@@UDamageData@DamageTable@@@std@@@std@@QAEXPAU?$pair@$$CBVioHashString@@UDamageData@DamageTable@@@2@$$QAU32@@Z DD 019930522H
	DD	01H
	DD	FLAT:__unwindtable$?construct@?$allocator@U?$pair@$$CBVioHashString@@UDamageData@DamageTable@@@std@@@std@@QAEXPAU?$pair@$$CBVioHashString@@UDamageData@DamageTable@@@2@$$QAU32@@Z
	DD	2 DUP(00H)
	DD	2 DUP(00H)
	DD	00H
	DD	01H
; Function compile flags: /Ogsp
; File c:\program files (x86)\microsoft visual studio 10.0\vc\include\xmemory
xdata$x	ENDS
;	COMDAT ?construct@?$allocator@U?$pair@$$CBVioHashString@@UDamageData@DamageTable@@@std@@@std@@QAEXPAU?$pair@$$CBVioHashString@@UDamageData@DamageTable@@@2@$$QAU32@@Z
_TEXT	SEGMENT
$T507387 = -16						; size = 4
__$EHRec$ = -12						; size = 12
__Ptr$ = 8						; size = 4
__Val$ = 12						; size = 4
?construct@?$allocator@U?$pair@$$CBVioHashString@@UDamageData@DamageTable@@@std@@@std@@QAEXPAU?$pair@$$CBVioHashString@@UDamageData@DamageTable@@@2@$$QAU32@@Z PROC ; std::allocator<std::pair<ioHashString const ,DamageTable::DamageData> >::construct, COMDAT
; _this$ = ecx

; 201  : 		{	// construct object at _Ptr with value _Val

  00000	6a 04		 push	 4
  00002	b8 00 00 00 00	 mov	 eax, __ehhandler$?construct@?$allocator@U?$pair@$$CBVioHashString@@UDamageData@DamageTable@@@std@@@std@@QAEXPAU?$pair@$$CBVioHashString@@UDamageData@DamageTable@@@2@$$QAU32@@Z
  00007	e8 00 00 00 00	 call	 __EH_prolog3

; 202  : 		::new ((void _FARQ *)_Ptr) _Ty(_STD forward<_Ty>(_Val));

  0000c	8b 4d 08	 mov	 ecx, DWORD PTR __Ptr$[ebp]
  0000f	89 4d f0	 mov	 DWORD PTR $T507387[ebp], ecx
  00012	83 65 fc 00	 and	 DWORD PTR __$EHRec$[ebp+8], 0
  00016	85 c9		 test	 ecx, ecx
  00018	74 0d		 je	 SHORT $LN3@construct
  0001a	8b 45 0c	 mov	 eax, DWORD PTR __Val$[ebp]
  0001d	8d 50 10	 lea	 edx, DWORD PTR [eax+16]
  00020	52		 push	 edx
  00021	50		 push	 eax
  00022	e8 00 00 00 00	 call	 ??0?$_Pair_base@$$CBVioHashString@@UDamageData@DamageTable@@@std@@QAE@$$QBVioHashString@@$$QAUDamageData@DamageTable@@@Z ; std::_Pair_base<ioHashString const ,DamageTable::DamageData>::_Pair_base<ioHashString const ,DamageTable::DamageData>
$LN3@construct:

; 203  : 		}

  00027	e8 00 00 00 00	 call	 __EH_epilog3
  0002c	c2 08 00	 ret	 8
_TEXT	ENDS
;	COMDAT text$x
text$x	SEGMENT
__unwindfunclet$?construct@?$allocator@U?$pair@$$CBVioHashString@@UDamageData@DamageTable@@@std@@@std@@QAEXPAU?$pair@$$CBVioHashString@@UDamageData@DamageTable@@@2@$$QAU32@@Z$0:
  00000	ff 75 08	 push	 DWORD PTR __Ptr$[ebp]
  00003	ff 75 f0	 push	 DWORD PTR $T507387[ebp]
  00006	e8 00 00 00 00	 call	 ??3@YAXPAX0@Z		; operator delete
  0000b	59		 pop	 ecx
  0000c	59		 pop	 ecx
  0000d	c3		 ret	 0
__ehhandler$?construct@?$allocator@U?$pair@$$CBVioHashString@@UDamageData@DamageTable@@@std@@@std@@QAEXPAU?$pair@$$CBVioHashString@@UDamageData@DamageTable@@@2@$$QAU32@@Z:
  0000e	8b 54 24 08	 mov	 edx, DWORD PTR [esp+8]
  00012	8d 42 0c	 lea	 eax, DWORD PTR [edx+12]
  00015	8b 4a ec	 mov	 ecx, DWORD PTR [edx-20]
  00018	33 c8		 xor	 ecx, eax
  0001a	e8 00 00 00 00	 call	 @__security_check_cookie@4
  0001f	b8 00 00 00 00	 mov	 eax, OFFSET __ehfuncinfo$?construct@?$allocator@U?$pair@$$CBVioHashString@@UDamageData@DamageTable@@@std@@@std@@QAEXPAU?$pair@$$CBVioHashString@@UDamageData@DamageTable@@@2@$$QAU32@@Z
  00024	e9 00 00 00 00	 jmp	 ___CxxFrameHandler3
text$x	ENDS
?construct@?$allocator@U?$pair@$$CBVioHashString@@UDamageData@DamageTable@@@std@@@std@@QAEXPAU?$pair@$$CBVioHashString@@UDamageData@DamageTable@@@2@$$QAU32@@Z ENDP ; std::allocator<std::pair<ioHashString const ,DamageTable::DamageData> >::construct
PUBLIC	?begin@?$_Tree@V?$_Tmap_traits@VioHashString@@UDamageData@DamageTable@@U?$less@VioHashString@@@std@@V?$allocator@U?$pair@$$CBVioHashString@@UDamageData@DamageTable@@@std@@@5@$0A@@std@@@std@@QAE?AV?$_Tree_iterator@V?$_Tree_val@V?$_Tmap_traits@VioHashString@@UDamageData@DamageTable@@U?$less@VioHashString@@@std@@V?$allocator@U?$pair@$$CBVioHashString@@UDamageData@DamageTable@@@std@@@5@$0A@@std@@@std@@@2@XZ ; std::_Tree<std::_Tmap_traits<ioHashString,DamageTable::DamageData,std::less<ioHashString>,std::allocator<std::pair<ioHashString const ,DamageTable::DamageData> >,0> >::begin
; Function compile flags: /Ogsp
; File c:\program files (x86)\microsoft visual studio 10.0\vc\include\xtree
;	COMDAT ?begin@?$_Tree@V?$_Tmap_traits@VioHashString@@UDamageData@DamageTable@@U?$less@VioHashString@@@std@@V?$allocator@U?$pair@$$CBVioHashString@@UDamageData@DamageTable@@@std@@@5@$0A@@std@@@std@@QAE?AV?$_Tree_iterator@V?$_Tree_val@V?$_Tmap_traits@VioHashString@@UDamageData@DamageTable@@U?$less@VioHashString@@@std@@V?$allocator@U?$pair@$$CBVioHashString@@UDamageData@DamageTable@@@std@@@5@$0A@@std@@@std@@@2@XZ
_TEXT	SEGMENT
___$ReturnUdt$ = 8					; size = 4
?begin@?$_Tree@V?$_Tmap_traits@VioHashString@@UDamageData@DamageTable@@U?$less@VioHashString@@@std@@V?$allocator@U?$pair@$$CBVioHashString@@UDamageData@DamageTable@@@std@@@5@$0A@@std@@@std@@QAE?AV?$_Tree_iterator@V?$_Tree_val@V?$_Tmap_traits@VioHashString@@UDamageData@DamageTable@@U?$less@VioHashString@@@std@@V?$allocator@U?$pair@$$CBVioHashString@@UDamageData@DamageTable@@@std@@@5@$0A@@std@@@std@@@2@XZ PROC ; std::_Tree<std::_Tmap_traits<ioHashString,DamageTable::DamageData,std::less<ioHashString>,std::allocator<std::pair<ioHashString const ,DamageTable::DamageData> >,0> >::begin, COMDAT
; _this$ = ecx

; 806  : 		{	// return iterator for beginning of mutable sequence

  00000	55		 push	 ebp
  00001	8b ec		 mov	 ebp, esp

; 807  : 		return (iterator(_Lmost(), this));

  00003	8b 41 04	 mov	 eax, DWORD PTR [ecx+4]
  00006	8b 08		 mov	 ecx, DWORD PTR [eax]
  00008	8b 45 08	 mov	 eax, DWORD PTR ___$ReturnUdt$[ebp]
  0000b	89 08		 mov	 DWORD PTR [eax], ecx

; 808  : 		}

  0000d	5d		 pop	 ebp
  0000e	c2 04 00	 ret	 4
?begin@?$_Tree@V?$_Tmap_traits@VioHashString@@UDamageData@DamageTable@@U?$less@VioHashString@@@std@@V?$allocator@U?$pair@$$CBVioHashString@@UDamageData@DamageTable@@@std@@@5@$0A@@std@@@std@@QAE?AV?$_Tree_iterator@V?$_Tree_val@V?$_Tmap_traits@VioHashString@@UDamageData@DamageTable@@U?$less@VioHashString@@@std@@V?$allocator@U?$pair@$$CBVioHashString@@UDamageData@DamageTable@@@std@@@5@$0A@@std@@@std@@@2@XZ ENDP ; std::_Tree<std::_Tmap_traits<ioHashString,DamageTable::DamageData,std::less<ioHashString>,std::allocator<std::pair<ioHashString const ,DamageTable::DamageData> >,0> >::begin
_TEXT	ENDS
PUBLIC	?end@?$_Tree@V?$_Tmap_traits@VioHashString@@UDamageData@DamageTable@@U?$less@VioHashString@@@std@@V?$allocator@U?$pair@$$CBVioHashString@@UDamageData@DamageTable@@@std@@@5@$0A@@std@@@std@@QAE?AV?$_Tree_iterator@V?$_Tree_val@V?$_Tmap_traits@VioHashString@@UDamageData@DamageTable@@U?$less@VioHashString@@@std@@V?$allocator@U?$pair@$$CBVioHashString@@UDamageData@DamageTable@@@std@@@5@$0A@@std@@@std@@@2@XZ ; std::_Tree<std::_Tmap_traits<ioHashString,DamageTable::DamageData,std::less<ioHashString>,std::allocator<std::pair<ioHashString const ,DamageTable::DamageData> >,0> >::end
; Function compile flags: /Ogsp
;	COMDAT ?end@?$_Tree@V?$_Tmap_traits@VioHashString@@UDamageData@DamageTable@@U?$less@VioHashString@@@std@@V?$allocator@U?$pair@$$CBVioHashString@@UDamageData@DamageTable@@@std@@@5@$0A@@std@@@std@@QAE?AV?$_Tree_iterator@V?$_Tree_val@V?$_Tmap_traits@VioHashString@@UDamageData@DamageTable@@U?$less@VioHashString@@@std@@V?$allocator@U?$pair@$$CBVioHashString@@UDamageData@DamageTable@@@std@@@5@$0A@@std@@@std@@@2@XZ
_TEXT	SEGMENT
___$ReturnUdt$ = 8					; size = 4
?end@?$_Tree@V?$_Tmap_traits@VioHashString@@UDamageData@DamageTable@@U?$less@VioHashString@@@std@@V?$allocator@U?$pair@$$CBVioHashString@@UDamageData@DamageTable@@@std@@@5@$0A@@std@@@std@@QAE?AV?$_Tree_iterator@V?$_Tree_val@V?$_Tmap_traits@VioHashString@@UDamageData@DamageTable@@U?$less@VioHashString@@@std@@V?$allocator@U?$pair@$$CBVioHashString@@UDamageData@DamageTable@@@std@@@5@$0A@@std@@@std@@@2@XZ PROC ; std::_Tree<std::_Tmap_traits<ioHashString,DamageTable::DamageData,std::less<ioHashString>,std::allocator<std::pair<ioHashString const ,DamageTable::DamageData> >,0> >::end, COMDAT
; _this$ = ecx

; 816  : 		{	// return iterator for end of mutable sequence

  00000	55		 push	 ebp
  00001	8b ec		 mov	 ebp, esp

; 817  : 		return (iterator(this->_Myhead, this));

  00003	8b 49 04	 mov	 ecx, DWORD PTR [ecx+4]
  00006	8b 45 08	 mov	 eax, DWORD PTR ___$ReturnUdt$[ebp]
  00009	89 08		 mov	 DWORD PTR [eax], ecx

; 818  : 		}

  0000b	5d		 pop	 ebp
  0000c	c2 04 00	 ret	 4
?end@?$_Tree@V?$_Tmap_traits@VioHashString@@UDamageData@DamageTable@@U?$less@VioHashString@@@std@@V?$allocator@U?$pair@$$CBVioHashString@@UDamageData@DamageTable@@@std@@@5@$0A@@std@@@std@@QAE?AV?$_Tree_iterator@V?$_Tree_val@V?$_Tmap_traits@VioHashString@@UDamageData@DamageTable@@U?$less@VioHashString@@@std@@V?$allocator@U?$pair@$$CBVioHashString@@UDamageData@DamageTable@@@std@@@5@$0A@@std@@@std@@@2@XZ ENDP ; std::_Tree<std::_Tmap_traits<ioHashString,DamageTable::DamageData,std::less<ioHashString>,std::allocator<std::pair<ioHashString const ,DamageTable::DamageData> >,0> >::end
_TEXT	ENDS
PUBLIC	?lower_bound@?$_Tree@V?$_Tmap_traits@VioHashString@@UDamageData@DamageTable@@U?$less@VioHashString@@@std@@V?$allocator@U?$pair@$$CBVioHashString@@UDamageData@DamageTable@@@std@@@5@$0A@@std@@@std@@QAE?AV?$_Tree_iterator@V?$_Tree_val@V?$_Tmap_traits@VioHashString@@UDamageData@DamageTable@@U?$less@VioHashString@@@std@@V?$allocator@U?$pair@$$CBVioHashString@@UDamageData@DamageTable@@@std@@@5@$0A@@std@@@std@@@2@ABVioHashString@@@Z ; std::_Tree<std::_Tmap_traits<ioHashString,DamageTable::DamageData,std::less<ioHashString>,std::allocator<std::pair<ioHashString const ,DamageTable::DamageData> >,0> >::lower_bound
; Function compile flags: /Ogsp
;	COMDAT ?lower_bound@?$_Tree@V?$_Tmap_traits@VioHashString@@UDamageData@DamageTable@@U?$less@VioHashString@@@std@@V?$allocator@U?$pair@$$CBVioHashString@@UDamageData@DamageTable@@@std@@@5@$0A@@std@@@std@@QAE?AV?$_Tree_iterator@V?$_Tree_val@V?$_Tmap_traits@VioHashString@@UDamageData@DamageTable@@U?$less@VioHashString@@@std@@V?$allocator@U?$pair@$$CBVioHashString@@UDamageData@DamageTable@@@std@@@5@$0A@@std@@@std@@@2@ABVioHashString@@@Z
_TEXT	SEGMENT
___$ReturnUdt$ = 8					; size = 4
__Keyval$ = 12						; size = 4
?lower_bound@?$_Tree@V?$_Tmap_traits@VioHashString@@UDamageData@DamageTable@@U?$less@VioHashString@@@std@@V?$allocator@U?$pair@$$CBVioHashString@@UDamageData@DamageTable@@@std@@@5@$0A@@std@@@std@@QAE?AV?$_Tree_iterator@V?$_Tree_val@V?$_Tmap_traits@VioHashString@@UDamageData@DamageTable@@U?$less@VioHashString@@@std@@V?$allocator@U?$pair@$$CBVioHashString@@UDamageData@DamageTable@@@std@@@5@$0A@@std@@@std@@@2@ABVioHashString@@@Z PROC ; std::_Tree<std::_Tmap_traits<ioHashString,DamageTable::DamageData,std::less<ioHashString>,std::allocator<std::pair<ioHashString const ,DamageTable::DamageData> >,0> >::lower_bound, COMDAT
; _this$ = ecx

; 1449 : 		{	// find leftmost node not less than _Keyval in mutable tree

  00000	55		 push	 ebp
  00001	8b ec		 mov	 ebp, esp

; 1450 : 		return (iterator(_Lbound(_Keyval), this));

  00003	ff 75 0c	 push	 DWORD PTR __Keyval$[ebp]
  00006	e8 00 00 00 00	 call	 ?_Lbound@?$_Tree@V?$_Tmap_traits@VioHashString@@UDamageData@DamageTable@@U?$less@VioHashString@@@std@@V?$allocator@U?$pair@$$CBVioHashString@@UDamageData@DamageTable@@@std@@@5@$0A@@std@@@std@@IAEPAU_Node@?$_Tree_nod@V?$_Tmap_traits@VioHashString@@UDamageData@DamageTable@@U?$less@VioHashString@@@std@@V?$allocator@U?$pair@$$CBVioHashString@@UDamageData@DamageTable@@@std@@@5@$0A@@std@@@2@ABVioHashString@@@Z ; std::_Tree<std::_Tmap_traits<ioHashString,DamageTable::DamageData,std::less<ioHashString>,std::allocator<std::pair<ioHashString const ,DamageTable::DamageData> >,0> >::_Lbound
  0000b	8b 4d 08	 mov	 ecx, DWORD PTR ___$ReturnUdt$[ebp]
  0000e	89 01		 mov	 DWORD PTR [ecx], eax
  00010	8b c1		 mov	 eax, ecx

; 1451 : 		}

  00012	5d		 pop	 ebp
  00013	c2 08 00	 ret	 8
?lower_bound@?$_Tree@V?$_Tmap_traits@VioHashString@@UDamageData@DamageTable@@U?$less@VioHashString@@@std@@V?$allocator@U?$pair@$$CBVioHashString@@UDamageData@DamageTable@@@std@@@5@$0A@@std@@@std@@QAE?AV?$_Tree_iterator@V?$_Tree_val@V?$_Tmap_traits@VioHashString@@UDamageData@DamageTable@@U?$less@VioHashString@@@std@@V?$allocator@U?$pair@$$CBVioHashString@@UDamageData@DamageTable@@@std@@@5@$0A@@std@@@std@@@2@ABVioHashString@@@Z ENDP ; std::_Tree<std::_Tmap_traits<ioHashString,DamageTable::DamageData,std::less<ioHashString>,std::allocator<std::pair<ioHashString const ,DamageTable::DamageData> >,0> >::lower_bound
_TEXT	ENDS
PUBLIC	??$advance@V?$_Tree_iterator@V?$_Tree_val@V?$_Tmap_traits@VioHashString@@UDamageData@DamageTable@@U?$less@VioHashString@@@std@@V?$allocator@U?$pair@$$CBVioHashString@@UDamageData@DamageTable@@@std@@@5@$0A@@std@@@std@@@std@@H@std@@YAXAAV?$_Tree_iterator@V?$_Tree_val@V?$_Tmap_traits@VioHashString@@UDamageData@DamageTable@@U?$less@VioHashString@@@std@@V?$allocator@U?$pair@$$CBVioHashString@@UDamageData@DamageTable@@@std@@@5@$0A@@std@@@std@@@0@H@Z ; std::advance<std::_Tree_iterator<std::_Tree_val<std::_Tmap_traits<ioHashString,DamageTable::DamageData,std::less<ioHashString>,std::allocator<std::pair<ioHashString const ,DamageTable::DamageData> >,0> > >,int>
; Function compile flags: /Ogsp
; File c:\program files (x86)\microsoft visual studio 10.0\vc\include\xutility
;	COMDAT ??$advance@V?$_Tree_iterator@V?$_Tree_val@V?$_Tmap_traits@VioHashString@@UDamageData@DamageTable@@U?$less@VioHashString@@@std@@V?$allocator@U?$pair@$$CBVioHashString@@UDamageData@DamageTable@@@std@@@5@$0A@@std@@@std@@@std@@H@std@@YAXAAV?$_Tree_iterator@V?$_Tree_val@V?$_Tmap_traits@VioHashString@@UDamageData@DamageTable@@U?$less@VioHashString@@@std@@V?$allocator@U?$pair@$$CBVioHashString@@UDamageData@DamageTable@@@std@@@5@$0A@@std@@@std@@@0@H@Z
_TEXT	SEGMENT
$T507515 = -4						; size = 1
__Where$ = 8						; size = 4
__Off$ = 12						; size = 4
??$advance@V?$_Tree_iterator@V?$_Tree_val@V?$_Tmap_traits@VioHashString@@UDamageData@DamageTable@@U?$less@VioHashString@@@std@@V?$allocator@U?$pair@$$CBVioHashString@@UDamageData@DamageTable@@@std@@@5@$0A@@std@@@std@@@std@@H@std@@YAXAAV?$_Tree_iterator@V?$_Tree_val@V?$_Tmap_traits@VioHashString@@UDamageData@DamageTable@@U?$less@VioHashString@@@std@@V?$allocator@U?$pair@$$CBVioHashString@@UDamageData@DamageTable@@@std@@@5@$0A@@std@@@std@@@0@H@Z PROC ; std::advance<std::_Tree_iterator<std::_Tree_val<std::_Tmap_traits<ioHashString,DamageTable::DamageData,std::less<ioHashString>,std::allocator<std::pair<ioHashString const ,DamageTable::DamageData> >,0> > >,int>, COMDAT

; 797  : 	{	// increment iterator by offset, arbitrary iterators

  00000	55		 push	 ebp
  00001	8b ec		 mov	 ebp, esp
  00003	51		 push	 ecx

; 798  : 	_Advance(_Where, _Off, _Iter_cat(_Where));

  00004	ff 75 fc	 push	 DWORD PTR $T507515[ebp]
  00007	ff 75 0c	 push	 DWORD PTR __Off$[ebp]
  0000a	ff 75 08	 push	 DWORD PTR __Where$[ebp]
  0000d	e8 00 00 00 00	 call	 ??$_Advance@V?$_Tree_iterator@V?$_Tree_val@V?$_Tmap_traits@VioHashString@@UDamageData@DamageTable@@U?$less@VioHashString@@@std@@V?$allocator@U?$pair@$$CBVioHashString@@UDamageData@DamageTable@@@std@@@5@$0A@@std@@@std@@@std@@H@std@@YAXAAV?$_Tree_iterator@V?$_Tree_val@V?$_Tmap_traits@VioHashString@@UDamageData@DamageTable@@U?$less@VioHashString@@@std@@V?$allocator@U?$pair@$$CBVioHashString@@UDamageData@DamageTable@@@std@@@5@$0A@@std@@@std@@@0@HUbidirectional_iterator_tag@0@@Z ; std::_Advance<std::_Tree_iterator<std::_Tree_val<std::_Tmap_traits<ioHashString,DamageTable::DamageData,std::less<ioHashString>,std::allocator<std::pair<ioHashString const ,DamageTable::DamageData> >,0> > >,int>
  00012	83 c4 0c	 add	 esp, 12			; 0000000cH

; 799  : 	}

  00015	c9		 leave
  00016	c3		 ret	 0
??$advance@V?$_Tree_iterator@V?$_Tree_val@V?$_Tmap_traits@VioHashString@@UDamageData@DamageTable@@U?$less@VioHashString@@@std@@V?$allocator@U?$pair@$$CBVioHashString@@UDamageData@DamageTable@@@std@@@5@$0A@@std@@@std@@@std@@H@std@@YAXAAV?$_Tree_iterator@V?$_Tree_val@V?$_Tmap_traits@VioHashString@@UDamageData@DamageTable@@U?$less@VioHashString@@@std@@V?$allocator@U?$pair@$$CBVioHashString@@UDamageData@DamageTable@@@std@@@5@$0A@@std@@@std@@@0@H@Z ENDP ; std::advance<std::_Tree_iterator<std::_Tree_val<std::_Tmap_traits<ioHashString,DamageTable::DamageData,std::less<ioHashString>,std::allocator<std::pair<ioHashString const ,DamageTable::DamageData> >,0> > >,int>
_TEXT	ENDS
PUBLIC	??$_Dest_val@V?$allocator@U?$pair@$$CBVioHashString@@UDamageData@DamageTable@@@std@@@std@@U?$pair@$$CBVioHashString@@UDamageData@DamageTable@@@2@@std@@YAXAAV?$allocator@U?$pair@$$CBVioHashString@@UDamageData@DamageTable@@@std@@@0@PAU?$pair@$$CBVioHashString@@UDamageData@DamageTable@@@0@@Z ; std::_Dest_val<std::allocator<std::pair<ioHashString const ,DamageTable::DamageData> >,std::pair<ioHashString const ,DamageTable::DamageData> >
; Function compile flags: /Ogsp
; File c:\program files (x86)\microsoft visual studio 10.0\vc\include\xmemory
;	COMDAT ??$_Dest_val@V?$allocator@U?$pair@$$CBVioHashString@@UDamageData@DamageTable@@@std@@@std@@U?$pair@$$CBVioHashString@@UDamageData@DamageTable@@@2@@std@@YAXAAV?$allocator@U?$pair@$$CBVioHashString@@UDamageData@DamageTable@@@std@@@0@PAU?$pair@$$CBVioHashString@@UDamageData@DamageTable@@@0@@Z
_TEXT	SEGMENT
__Alval$ = 8						; size = 4
__Pdest$ = 12						; size = 4
??$_Dest_val@V?$allocator@U?$pair@$$CBVioHashString@@UDamageData@DamageTable@@@std@@@std@@U?$pair@$$CBVioHashString@@UDamageData@DamageTable@@@2@@std@@YAXAAV?$allocator@U?$pair@$$CBVioHashString@@UDamageData@DamageTable@@@std@@@0@PAU?$pair@$$CBVioHashString@@UDamageData@DamageTable@@@0@@Z PROC ; std::_Dest_val<std::allocator<std::pair<ioHashString const ,DamageTable::DamageData> >,std::pair<ioHashString const ,DamageTable::DamageData> >, COMDAT

; 286  : 	{	// destroy using allocator

  00000	55		 push	 ebp
  00001	8b ec		 mov	 ebp, esp

; 287  : 	_Alval.destroy(_Pdest);

  00003	8b 4d 0c	 mov	 ecx, DWORD PTR __Pdest$[ebp]

; 288  : 	}

  00006	5d		 pop	 ebp

; 287  : 	_Alval.destroy(_Pdest);

  00007	ff 25 00 00 00
	00		 jmp	 DWORD PTR __imp_??1ioHashString@@QAE@XZ
??$_Dest_val@V?$allocator@U?$pair@$$CBVioHashString@@UDamageData@DamageTable@@@std@@@std@@U?$pair@$$CBVioHashString@@UDamageData@DamageTable@@@2@@std@@YAXAAV?$allocator@U?$pair@$$CBVioHashString@@UDamageData@DamageTable@@@std@@@0@PAU?$pair@$$CBVioHashString@@UDamageData@DamageTable@@@0@@Z ENDP ; std::_Dest_val<std::allocator<std::pair<ioHashString const ,DamageTable::DamageData> >,std::pair<ioHashString const ,DamageTable::DamageData> >
_TEXT	ENDS
PUBLIC	??_C@_0BE@JONHPENG@map?1set?$DMT?$DO?5too?5long?$AA@ ; `string'
PUBLIC	?_Insert@?$_Tree@V?$_Tmap_traits@VioHashString@@UDamageData@DamageTable@@U?$less@VioHashString@@@std@@V?$allocator@U?$pair@$$CBVioHashString@@UDamageData@DamageTable@@@std@@@5@$0A@@std@@@std@@IAE?AV?$_Tree_iterator@V?$_Tree_val@V?$_Tmap_traits@VioHashString@@UDamageData@DamageTable@@U?$less@VioHashString@@@std@@V?$allocator@U?$pair@$$CBVioHashString@@UDamageData@DamageTable@@@std@@@5@$0A@@std@@@std@@@2@_NPAU_Node@?$_Tree_nod@V?$_Tmap_traits@VioHashString@@UDamageData@DamageTable@@U?$less@VioHashString@@@std@@V?$allocator@U?$pair@$$CBVioHashString@@UDamageData@DamageTable@@@std@@@5@$0A@@std@@@2@1@Z ; std::_Tree<std::_Tmap_traits<ioHashString,DamageTable::DamageData,std::less<ioHashString>,std::allocator<std::pair<ioHashString const ,DamageTable::DamageData> >,0> >::_Insert
EXTRN	__imp_?_Xlength_error@std@@YAXPBD@Z:PROC
;	COMDAT ??_C@_0BE@JONHPENG@map?1set?$DMT?$DO?5too?5long?$AA@
; File c:\program files (x86)\microsoft visual studio 10.0\vc\include\xutility
CONST	SEGMENT
??_C@_0BE@JONHPENG@map?1set?$DMT?$DO?5too?5long?$AA@ DB 'map/set<T> too l'
	DB	'ong', 00H					; `string'
; Function compile flags: /Ogsp
; File c:\program files (x86)\microsoft visual studio 10.0\vc\include\xtree
CONST	ENDS
;	COMDAT ?_Insert@?$_Tree@V?$_Tmap_traits@VioHashString@@UDamageData@DamageTable@@U?$less@VioHashString@@@std@@V?$allocator@U?$pair@$$CBVioHashString@@UDamageData@DamageTable@@@std@@@5@$0A@@std@@@std@@IAE?AV?$_Tree_iterator@V?$_Tree_val@V?$_Tmap_traits@VioHashString@@UDamageData@DamageTable@@U?$less@VioHashString@@@std@@V?$allocator@U?$pair@$$CBVioHashString@@UDamageData@DamageTable@@@std@@@5@$0A@@std@@@std@@@2@_NPAU_Node@?$_Tree_nod@V?$_Tmap_traits@VioHashString@@UDamageData@DamageTable@@U?$less@VioHashString@@@std@@V?$allocator@U?$pair@$$CBVioHashString@@UDamageData@DamageTable@@@std@@@5@$0A@@std@@@2@1@Z
_TEXT	SEGMENT
___$ReturnUdt$ = 8					; size = 4
__Addleft$ = 12						; size = 1
__Wherenode$ = 16					; size = 4
__Newnode$ = 20						; size = 4
?_Insert@?$_Tree@V?$_Tmap_traits@VioHashString@@UDamageData@DamageTable@@U?$less@VioHashString@@@std@@V?$allocator@U?$pair@$$CBVioHashString@@UDamageData@DamageTable@@@std@@@5@$0A@@std@@@std@@IAE?AV?$_Tree_iterator@V?$_Tree_val@V?$_Tmap_traits@VioHashString@@UDamageData@DamageTable@@U?$less@VioHashString@@@std@@V?$allocator@U?$pair@$$CBVioHashString@@UDamageData@DamageTable@@@std@@@5@$0A@@std@@@std@@@2@_NPAU_Node@?$_Tree_nod@V?$_Tmap_traits@VioHashString@@UDamageData@DamageTable@@U?$less@VioHashString@@@std@@V?$allocator@U?$pair@$$CBVioHashString@@UDamageData@DamageTable@@@std@@@5@$0A@@std@@@2@1@Z PROC ; std::_Tree<std::_Tmap_traits<ioHashString,DamageTable::DamageData,std::less<ioHashString>,std::allocator<std::pair<ioHashString const ,DamageTable::DamageData> >,0> >::_Insert, COMDAT
; _this$ = ecx

; 1631 : 		{	// add node with value next to _Wherenode, to left if _Addleft

  00000	55		 push	 ebp
  00001	8b ec		 mov	 ebp, esp
  00003	53		 push	 ebx
  00004	56		 push	 esi
  00005	57		 push	 edi
  00006	8b f9		 mov	 edi, ecx

; 1632 : 		if (max_size() - 1 <= this->_Mysize)

  00008	8b 47 08	 mov	 eax, DWORD PTR [edi+8]
  0000b	3d a9 aa aa 0a	 cmp	 eax, 178956969		; 0aaaaaa9H
  00010	72 1f		 jb	 SHORT $LN17@Insert

; 1633 : 			{	// tree would get too big, fail
; 1634 : 			_Dest_val(this->_Alval,
; 1635 : 				_STD addressof(this->_Myval(_Newnode)));

  00012	8b 75 14	 mov	 esi, DWORD PTR __Newnode$[ebp]
  00015	8d 4e 0c	 lea	 ecx, DWORD PTR [esi+12]
  00018	ff 15 00 00 00
	00		 call	 DWORD PTR __imp_??1ioHashString@@QAE@XZ

; 1636 : 
; 1637 : 			this->_Alnod.deallocate(_Newnode, 1);

  0001e	56		 push	 esi
  0001f	e8 00 00 00 00	 call	 ??3@YAXPAX@Z		; operator delete

; 1638 : 
; 1639 : 			_Xlength_error("map/set<T> too long");

  00024	c7 04 24 00 00
	00 00		 mov	 DWORD PTR [esp], OFFSET ??_C@_0BE@JONHPENG@map?1set?$DMT?$DO?5too?5long?$AA@
  0002b	ff 15 00 00 00
	00		 call	 DWORD PTR __imp_?_Xlength_error@std@@YAXPBD@Z
$LN197@Insert:
$LN17@Insert:

; 1640 : 			}
; 1641 : 		++this->_Mysize;
; 1642 : 		_Newnode->_Parent = _Wherenode;

  00031	8b 5d 14	 mov	 ebx, DWORD PTR __Newnode$[ebp]
  00034	40		 inc	 eax
  00035	89 47 08	 mov	 DWORD PTR [edi+8], eax
  00038	8b 45 10	 mov	 eax, DWORD PTR __Wherenode$[ebp]
  0003b	89 43 04	 mov	 DWORD PTR [ebx+4], eax

; 1643 : 
; 1644 : 		if (_Wherenode == this->_Myhead)

  0003e	8b 4f 04	 mov	 ecx, DWORD PTR [edi+4]
  00041	3b c1		 cmp	 eax, ecx
  00043	75 10		 jne	 SHORT $LN16@Insert

; 1645 : 			{	// first node in tree, just set head values
; 1646 : 			_Root() = _Newnode;

  00045	89 59 04	 mov	 DWORD PTR [ecx+4], ebx

; 1647 : 			_Lmost() = _Newnode;

  00048	8b 47 04	 mov	 eax, DWORD PTR [edi+4]
  0004b	89 18		 mov	 DWORD PTR [eax], ebx

; 1648 : 			_Rmost() = _Newnode;

  0004d	8b 47 04	 mov	 eax, DWORD PTR [edi+4]
  00050	89 58 08	 mov	 DWORD PTR [eax+8], ebx
  00053	eb 21		 jmp	 SHORT $LN11@Insert
$LN16@Insert:

; 1649 : 			}
; 1650 : 		else if (_Addleft)

  00055	80 7d 0c 00	 cmp	 BYTE PTR __Addleft$[ebp], 0
  00059	74 0d		 je	 SHORT $LN14@Insert

; 1651 : 			{	// add to left of _Wherenode
; 1652 : 			this->_Left(_Wherenode) = _Newnode;

  0005b	89 18		 mov	 DWORD PTR [eax], ebx

; 1653 : 			if (_Wherenode == _Lmost())

  0005d	8b 4f 04	 mov	 ecx, DWORD PTR [edi+4]
  00060	3b 01		 cmp	 eax, DWORD PTR [ecx]
  00062	75 12		 jne	 SHORT $LN11@Insert

; 1654 : 				_Lmost() = _Newnode;

  00064	89 19		 mov	 DWORD PTR [ecx], ebx

; 1655 : 			}
; 1656 : 		else

  00066	eb 0e		 jmp	 SHORT $LN11@Insert
$LN14@Insert:

; 1657 : 			{	// add to right of _Wherenode
; 1658 : 			this->_Right(_Wherenode) = _Newnode;

  00068	89 58 08	 mov	 DWORD PTR [eax+8], ebx

; 1659 : 			if (_Wherenode == _Rmost())

  0006b	8b 4f 04	 mov	 ecx, DWORD PTR [edi+4]
  0006e	3b 41 08	 cmp	 eax, DWORD PTR [ecx+8]
  00071	75 03		 jne	 SHORT $LN11@Insert

; 1660 : 				_Rmost() = _Newnode;

  00073	89 59 08	 mov	 DWORD PTR [ecx+8], ebx
$LN11@Insert:

; 1661 : 			}
; 1662 : 
; 1663 : 		for (_Nodeptr _Pnode = _Newnode;
; 1664 : 			this->_Color(this->_Parent(_Pnode)) == this->_Red; )

  00076	8b 43 04	 mov	 eax, DWORD PTR [ebx+4]
  00079	8b f3		 mov	 esi, ebx
  0007b	e9 93 00 00 00	 jmp	 $LN195@Insert
$LL10@Insert:

; 1665 : 			if (this->_Parent(_Pnode)
; 1666 : 				== this->_Left(this->_Parent(this->_Parent(_Pnode))))

  00080	8b 46 04	 mov	 eax, DWORD PTR [esi+4]
  00083	8b 48 04	 mov	 ecx, DWORD PTR [eax+4]
  00086	3b 01		 cmp	 eax, DWORD PTR [ecx]
  00088	75 38		 jne	 SHORT $LN8@Insert

; 1667 : 				{	// fixup red-red in left subtree
; 1668 : 				_Wherenode =
; 1669 : 					this->_Right(this->_Parent(this->_Parent(_Pnode)));

  0008a	8b 49 08	 mov	 ecx, DWORD PTR [ecx+8]

; 1670 : 				if (this->_Color(_Wherenode) == this->_Red)

  0008d	80 79 24 00	 cmp	 BYTE PTR [ecx+36], 0

; 1671 : 					{	// parent has two red children, blacken both
; 1672 : 					this->_Color(this->_Parent(_Pnode)) = this->_Black;
; 1673 : 					this->_Color(_Wherenode) = this->_Black;
; 1674 : 					this->_Color(this->_Parent(this->_Parent(_Pnode)))
; 1675 : 						= this->_Red;
; 1676 : 					_Pnode = this->_Parent(this->_Parent(_Pnode));
; 1677 : 					}
; 1678 : 				else

  00091	74 37		 je	 SHORT $LN196@Insert

; 1679 : 					{	// parent has red and black children
; 1680 : 					if (_Pnode == this->_Right(this->_Parent(_Pnode)))

  00093	3b 70 08	 cmp	 esi, DWORD PTR [eax+8]
  00096	75 0a		 jne	 SHORT $LN5@Insert

; 1681 : 						{	// rotate right child to left
; 1682 : 						_Pnode = this->_Parent(_Pnode);

  00098	8b f0		 mov	 esi, eax

; 1683 : 						_Lrotate(_Pnode);

  0009a	56		 push	 esi
  0009b	8b cf		 mov	 ecx, edi
  0009d	e8 00 00 00 00	 call	 ?_Lrotate@?$_Tree@V?$_Tmap_traits@VioHashString@@UDamageData@DamageTable@@U?$less@VioHashString@@@std@@V?$allocator@U?$pair@$$CBVioHashString@@UDamageData@DamageTable@@@std@@@5@$0A@@std@@@std@@IAEXPAU_Node@?$_Tree_nod@V?$_Tmap_traits@VioHashString@@UDamageData@DamageTable@@U?$less@VioHashString@@@std@@V?$allocator@U?$pair@$$CBVioHashString@@UDamageData@DamageTable@@@std@@@5@$0A@@std@@@2@@Z ; std::_Tree<std::_Tmap_traits<ioHashString,DamageTable::DamageData,std::less<ioHashString>,std::allocator<std::pair<ioHashString const ,DamageTable::DamageData> >,0> >::_Lrotate
$LN5@Insert:

; 1684 : 						}
; 1685 : 					this->_Color(this->_Parent(_Pnode)) =
; 1686 : 						this->_Black;	// propagate red up

  000a2	8b 46 04	 mov	 eax, DWORD PTR [esi+4]
  000a5	c6 40 24 01	 mov	 BYTE PTR [eax+36], 1

; 1687 : 					this->_Color(this->_Parent(this->_Parent(_Pnode))) =
; 1688 : 						this->_Red;

  000a9	8b 46 04	 mov	 eax, DWORD PTR [esi+4]
  000ac	8b 40 04	 mov	 eax, DWORD PTR [eax+4]
  000af	c6 40 24 00	 mov	 BYTE PTR [eax+36], 0

; 1689 : 					_Rrotate(this->_Parent(this->_Parent(_Pnode)));

  000b3	8b 46 04	 mov	 eax, DWORD PTR [esi+4]
  000b6	ff 70 04	 push	 DWORD PTR [eax+4]
  000b9	8b cf		 mov	 ecx, edi
  000bb	e8 00 00 00 00	 call	 ?_Rrotate@?$_Tree@V?$_Tmap_traits@VioHashString@@UDamageData@DamageTable@@U?$less@VioHashString@@@std@@V?$allocator@U?$pair@$$CBVioHashString@@UDamageData@DamageTable@@@std@@@5@$0A@@std@@@std@@IAEXPAU_Node@?$_Tree_nod@V?$_Tmap_traits@VioHashString@@UDamageData@DamageTable@@U?$less@VioHashString@@@std@@V?$allocator@U?$pair@$$CBVioHashString@@UDamageData@DamageTable@@@std@@@5@$0A@@std@@@2@@Z ; std::_Tree<std::_Tmap_traits<ioHashString,DamageTable::DamageData,std::less<ioHashString>,std::allocator<std::pair<ioHashString const ,DamageTable::DamageData> >,0> >::_Rrotate

; 1690 : 					}
; 1691 : 				}
; 1692 : 			else

  000c0	eb 4e		 jmp	 SHORT $LN2@Insert
$LN8@Insert:

; 1693 : 				{	// fixup red-red in right subtree
; 1694 : 				_Wherenode =
; 1695 : 					this->_Left(this->_Parent(this->_Parent(_Pnode)));

  000c2	8b 09		 mov	 ecx, DWORD PTR [ecx]

; 1696 : 				if (this->_Color(_Wherenode) == this->_Red)

  000c4	80 79 24 00	 cmp	 BYTE PTR [ecx+36], 0
  000c8	75 1a		 jne	 SHORT $LN3@Insert
$LN196@Insert:

; 1697 : 					{	// parent has two red children, blacken both
; 1698 : 					this->_Color(this->_Parent(_Pnode)) = this->_Black;

  000ca	c6 40 24 01	 mov	 BYTE PTR [eax+36], 1

; 1699 : 					this->_Color(_Wherenode) = this->_Black;

  000ce	c6 41 24 01	 mov	 BYTE PTR [ecx+36], 1

; 1700 : 					this->_Color(this->_Parent(this->_Parent(_Pnode))) =
; 1701 : 						this->_Red;

  000d2	8b 46 04	 mov	 eax, DWORD PTR [esi+4]
  000d5	8b 40 04	 mov	 eax, DWORD PTR [eax+4]
  000d8	c6 40 24 00	 mov	 BYTE PTR [eax+36], 0

; 1702 : 					_Pnode = this->_Parent(this->_Parent(_Pnode));

  000dc	8b 46 04	 mov	 eax, DWORD PTR [esi+4]
  000df	8b 70 04	 mov	 esi, DWORD PTR [eax+4]

; 1703 : 					}
; 1704 : 				else

  000e2	eb 2c		 jmp	 SHORT $LN2@Insert
$LN3@Insert:

; 1705 : 					{	// parent has red and black children
; 1706 : 					if (_Pnode == this->_Left(this->_Parent(_Pnode)))

  000e4	3b 30		 cmp	 esi, DWORD PTR [eax]
  000e6	75 0a		 jne	 SHORT $LN1@Insert

; 1707 : 						{	// rotate left child to right
; 1708 : 						_Pnode = this->_Parent(_Pnode);

  000e8	8b f0		 mov	 esi, eax

; 1709 : 						_Rrotate(_Pnode);

  000ea	56		 push	 esi
  000eb	8b cf		 mov	 ecx, edi
  000ed	e8 00 00 00 00	 call	 ?_Rrotate@?$_Tree@V?$_Tmap_traits@VioHashString@@UDamageData@DamageTable@@U?$less@VioHashString@@@std@@V?$allocator@U?$pair@$$CBVioHashString@@UDamageData@DamageTable@@@std@@@5@$0A@@std@@@std@@IAEXPAU_Node@?$_Tree_nod@V?$_Tmap_traits@VioHashString@@UDamageData@DamageTable@@U?$less@VioHashString@@@std@@V?$allocator@U?$pair@$$CBVioHashString@@UDamageData@DamageTable@@@std@@@5@$0A@@std@@@2@@Z ; std::_Tree<std::_Tmap_traits<ioHashString,DamageTable::DamageData,std::less<ioHashString>,std::allocator<std::pair<ioHashString const ,DamageTable::DamageData> >,0> >::_Rrotate
$LN1@Insert:

; 1710 : 						}
; 1711 : 					this->_Color(this->_Parent(_Pnode)) =
; 1712 : 						this->_Black;	// propagate red up

  000f2	8b 46 04	 mov	 eax, DWORD PTR [esi+4]
  000f5	c6 40 24 01	 mov	 BYTE PTR [eax+36], 1

; 1713 : 					this->_Color(this->_Parent(this->_Parent(_Pnode))) =
; 1714 : 						this->_Red;

  000f9	8b 46 04	 mov	 eax, DWORD PTR [esi+4]
  000fc	8b 40 04	 mov	 eax, DWORD PTR [eax+4]
  000ff	c6 40 24 00	 mov	 BYTE PTR [eax+36], 0

; 1715 : 					_Lrotate(this->_Parent(this->_Parent(_Pnode)));

  00103	8b 46 04	 mov	 eax, DWORD PTR [esi+4]
  00106	ff 70 04	 push	 DWORD PTR [eax+4]
  00109	8b cf		 mov	 ecx, edi
  0010b	e8 00 00 00 00	 call	 ?_Lrotate@?$_Tree@V?$_Tmap_traits@VioHashString@@UDamageData@DamageTable@@U?$less@VioHashString@@@std@@V?$allocator@U?$pair@$$CBVioHashString@@UDamageData@DamageTable@@@std@@@5@$0A@@std@@@std@@IAEXPAU_Node@?$_Tree_nod@V?$_Tmap_traits@VioHashString@@UDamageData@DamageTable@@U?$less@VioHashString@@@std@@V?$allocator@U?$pair@$$CBVioHashString@@UDamageData@DamageTable@@@std@@@5@$0A@@std@@@2@@Z ; std::_Tree<std::_Tmap_traits<ioHashString,DamageTable::DamageData,std::less<ioHashString>,std::allocator<std::pair<ioHashString const ,DamageTable::DamageData> >,0> >::_Lrotate
$LN2@Insert:

; 1661 : 			}
; 1662 : 
; 1663 : 		for (_Nodeptr _Pnode = _Newnode;
; 1664 : 			this->_Color(this->_Parent(_Pnode)) == this->_Red; )

  00110	8b 46 04	 mov	 eax, DWORD PTR [esi+4]
$LN195@Insert:
  00113	80 78 24 00	 cmp	 BYTE PTR [eax+36], 0
  00117	0f 84 63 ff ff
	ff		 je	 $LL10@Insert

; 1716 : 					}
; 1717 : 				}
; 1718 : 
; 1719 : 		this->_Color(_Root()) = this->_Black;	// root is always black

  0011d	8b 47 04	 mov	 eax, DWORD PTR [edi+4]
  00120	8b 40 04	 mov	 eax, DWORD PTR [eax+4]
  00123	5f		 pop	 edi
  00124	c6 40 24 01	 mov	 BYTE PTR [eax+36], 1

; 1720 : 		return (iterator(_Newnode, this));

  00128	8b 45 08	 mov	 eax, DWORD PTR ___$ReturnUdt$[ebp]
  0012b	5e		 pop	 esi
  0012c	89 18		 mov	 DWORD PTR [eax], ebx
  0012e	5b		 pop	 ebx

; 1721 : 		}

  0012f	5d		 pop	 ebp
  00130	c2 10 00	 ret	 16			; 00000010H
$LN194@Insert:
?_Insert@?$_Tree@V?$_Tmap_traits@VioHashString@@UDamageData@DamageTable@@U?$less@VioHashString@@@std@@V?$allocator@U?$pair@$$CBVioHashString@@UDamageData@DamageTable@@@std@@@5@$0A@@std@@@std@@IAE?AV?$_Tree_iterator@V?$_Tree_val@V?$_Tmap_traits@VioHashString@@UDamageData@DamageTable@@U?$less@VioHashString@@@std@@V?$allocator@U?$pair@$$CBVioHashString@@UDamageData@DamageTable@@@std@@@5@$0A@@std@@@std@@@2@_NPAU_Node@?$_Tree_nod@V?$_Tmap_traits@VioHashString@@UDamageData@DamageTable@@U?$less@VioHashString@@@std@@V?$allocator@U?$pair@$$CBVioHashString@@UDamageData@DamageTable@@@std@@@5@$0A@@std@@@2@1@Z ENDP ; std::_Tree<std::_Tmap_traits<ioHashString,DamageTable::DamageData,std::less<ioHashString>,std::allocator<std::pair<ioHashString const ,DamageTable::DamageData> >,0> >::_Insert
_TEXT	ENDS
PUBLIC	??$_Cons_val@V?$allocator@U?$pair@$$CBVioHashString@@UDamageData@DamageTable@@@std@@@std@@U?$pair@$$CBVioHashString@@UDamageData@DamageTable@@@2@U32@@std@@YAXAAV?$allocator@U?$pair@$$CBVioHashString@@UDamageData@DamageTable@@@std@@@0@PAU?$pair@$$CBVioHashString@@UDamageData@DamageTable@@@0@$$QAU20@@Z ; std::_Cons_val<std::allocator<std::pair<ioHashString const ,DamageTable::DamageData> >,std::pair<ioHashString const ,DamageTable::DamageData>,std::pair<ioHashString const ,DamageTable::DamageData> >
; Function compile flags: /Ogsp
; File c:\program files (x86)\microsoft visual studio 10.0\vc\include\xmemory
;	COMDAT ??$_Cons_val@V?$allocator@U?$pair@$$CBVioHashString@@UDamageData@DamageTable@@@std@@@std@@U?$pair@$$CBVioHashString@@UDamageData@DamageTable@@@2@U32@@std@@YAXAAV?$allocator@U?$pair@$$CBVioHashString@@UDamageData@DamageTable@@@std@@@0@PAU?$pair@$$CBVioHashString@@UDamageData@DamageTable@@@0@$$QAU20@@Z
_TEXT	SEGMENT
__Alval$ = 8						; size = 4
__Pdest$ = 12						; size = 4
__Src$ = 16						; size = 4
??$_Cons_val@V?$allocator@U?$pair@$$CBVioHashString@@UDamageData@DamageTable@@@std@@@std@@U?$pair@$$CBVioHashString@@UDamageData@DamageTable@@@2@U32@@std@@YAXAAV?$allocator@U?$pair@$$CBVioHashString@@UDamageData@DamageTable@@@std@@@0@PAU?$pair@$$CBVioHashString@@UDamageData@DamageTable@@@0@$$QAU20@@Z PROC ; std::_Cons_val<std::allocator<std::pair<ioHashString const ,DamageTable::DamageData> >,std::pair<ioHashString const ,DamageTable::DamageData>,std::pair<ioHashString const ,DamageTable::DamageData> >, COMDAT

; 279  : 	{	// construct using allocator

  00000	55		 push	 ebp
  00001	8b ec		 mov	 ebp, esp

; 280  : 	_Alval.construct(_Pdest, _STD forward<_Ty2>(_Src));

  00003	ff 75 10	 push	 DWORD PTR __Src$[ebp]
  00006	8b 4d 08	 mov	 ecx, DWORD PTR __Alval$[ebp]
  00009	ff 75 0c	 push	 DWORD PTR __Pdest$[ebp]
  0000c	e8 00 00 00 00	 call	 ?construct@?$allocator@U?$pair@$$CBVioHashString@@UDamageData@DamageTable@@@std@@@std@@QAEXPAU?$pair@$$CBVioHashString@@UDamageData@DamageTable@@@2@$$QAU32@@Z ; std::allocator<std::pair<ioHashString const ,DamageTable::DamageData> >::construct

; 281  : 	}

  00011	5d		 pop	 ebp
  00012	c3		 ret	 0
??$_Cons_val@V?$allocator@U?$pair@$$CBVioHashString@@UDamageData@DamageTable@@@std@@@std@@U?$pair@$$CBVioHashString@@UDamageData@DamageTable@@@2@U32@@std@@YAXAAV?$allocator@U?$pair@$$CBVioHashString@@UDamageData@DamageTable@@@std@@@0@PAU?$pair@$$CBVioHashString@@UDamageData@DamageTable@@@0@$$QAU20@@Z ENDP ; std::_Cons_val<std::allocator<std::pair<ioHashString const ,DamageTable::DamageData> >,std::pair<ioHashString const ,DamageTable::DamageData>,std::pair<ioHashString const ,DamageTable::DamageData> >
_TEXT	ENDS
PUBLIC	??_C@_0CJ@CNCEHAND@DamageTable?3?3GetDamage?5?9?5overflo@ ; `string'
PUBLIC	?GetCurDamage@DamageTable@@QAE_NHAAVioHashString@@AAH@Z ; DamageTable::GetCurDamage
EXTRN	__imp_?PrintTimeAndLog@CLog@@QAAXHPADZZ:PROC
EXTRN	__imp_?LOG@@3VCLog@@A:BYTE
EXTRN	__imp_??4ioHashString@@QAEAAV0@ABV0@@Z:PROC
;	COMDAT ??_C@_0CJ@CNCEHAND@DamageTable?3?3GetDamage?5?9?5overflo@
; File c:\program files (x86)\microsoft visual studio 10.0\vc\include\xtree
CONST	SEGMENT
??_C@_0CJ@CNCEHAND@DamageTable?3?3GetDamage?5?9?5overflo@ DB 'DamageTable'
	DB	'::GetDamage - overflow(%d/%d)', 00H		; `string'
; Function compile flags: /Ogsp
; File d:\lost saga for developer\youtube\tutorial\source\src\lsclient\damagetable.cpp
CONST	ENDS
;	COMDAT ?GetCurDamage@DamageTable@@QAE_NHAAVioHashString@@AAH@Z
_TEXT	SEGMENT
$T507984 = 8						; size = 1
_iter$ = 8						; size = 4
_iIdx$ = 8						; size = 4
_rkName$ = 12						; size = 4
_iDamage$ = 16						; size = 4
?GetCurDamage@DamageTable@@QAE_NHAAVioHashString@@AAH@Z PROC ; DamageTable::GetCurDamage, COMDAT
; _this$ = ecx

; 45   : {

  00000	55		 push	 ebp
  00001	8b ec		 mov	 ebp, esp

; 46   : 	if( !COMPARE( iIdx, 0, GetDamageTableCnt() ) )

  00003	8b 45 08	 mov	 eax, DWORD PTR _iIdx$[ebp]
  00006	85 c0		 test	 eax, eax
  00008	78 3b		 js	 SHORT $LN1@GetCurDama
  0000a	3b 41 08	 cmp	 eax, DWORD PTR [ecx+8]
  0000d	7d 36		 jge	 SHORT $LN1@GetCurDama

; 50   : 	}
; 51   : 
; 52   : 	DamageTableMap::iterator iter = m_DamageTable.begin();

  0000f	8b 49 04	 mov	 ecx, DWORD PTR [ecx+4]
  00012	8b 09		 mov	 ecx, DWORD PTR [ecx]
  00014	56		 push	 esi
  00015	89 4d 08	 mov	 DWORD PTR _iter$[ebp], ecx

; 53   : 	std::advance( iter, iIdx );

  00018	ff 75 08	 push	 DWORD PTR $T507984[ebp]
  0001b	50		 push	 eax
  0001c	8d 45 08	 lea	 eax, DWORD PTR _iter$[ebp]
  0001f	50		 push	 eax
  00020	e8 00 00 00 00	 call	 ??$_Advance@V?$_Tree_iterator@V?$_Tree_val@V?$_Tmap_traits@VioHashString@@UDamageData@DamageTable@@U?$less@VioHashString@@@std@@V?$allocator@U?$pair@$$CBVioHashString@@UDamageData@DamageTable@@@std@@@5@$0A@@std@@@std@@@std@@H@std@@YAXAAV?$_Tree_iterator@V?$_Tree_val@V?$_Tmap_traits@VioHashString@@UDamageData@DamageTable@@U?$less@VioHashString@@@std@@V?$allocator@U?$pair@$$CBVioHashString@@UDamageData@DamageTable@@@std@@@5@$0A@@std@@@std@@@0@HUbidirectional_iterator_tag@0@@Z ; std::_Advance<std::_Tree_iterator<std::_Tree_val<std::_Tmap_traits<ioHashString,DamageTable::DamageData,std::less<ioHashString>,std::allocator<std::pair<ioHashString const ,DamageTable::DamageData> >,0> > >,int>

; 54   : 
; 55   : 	rkName  = iter->first;

  00025	8b 75 08	 mov	 esi, DWORD PTR _iter$[ebp]
  00028	8b 4d 0c	 mov	 ecx, DWORD PTR _rkName$[ebp]
  0002b	83 c4 0c	 add	 esp, 12			; 0000000cH
  0002e	8d 46 0c	 lea	 eax, DWORD PTR [esi+12]
  00031	50		 push	 eax
  00032	ff 15 00 00 00
	00		 call	 DWORD PTR __imp_??4ioHashString@@QAEAAV0@ABV0@@Z

; 56   : 	
; 57   : 	DamageData &rkData = iter->second;	
; 58   : 	iDamage = rkData.m_iCurDamage;

  00038	8b 46 20	 mov	 eax, DWORD PTR [esi+32]
  0003b	8b 4d 10	 mov	 ecx, DWORD PTR _iDamage$[ebp]
  0003e	89 01		 mov	 DWORD PTR [ecx], eax

; 59   : 
; 60   : 	return true;

  00040	b0 01		 mov	 al, 1
  00042	5e		 pop	 esi
  00043	eb 1c		 jmp	 SHORT $LN3@GetCurDama
$LN1@GetCurDama:

; 47   : 	{
; 48   : 		LOG.PrintTimeAndLog( 0, "DamageTable::GetDamage - overflow(%d/%d)", iIdx, GetDamageTableCnt() );

  00045	ff 71 08	 push	 DWORD PTR [ecx+8]
  00048	50		 push	 eax
  00049	68 00 00 00 00	 push	 OFFSET ??_C@_0CJ@CNCEHAND@DamageTable?3?3GetDamage?5?9?5overflo@
  0004e	6a 00		 push	 0
  00050	ff 35 00 00 00
	00		 push	 DWORD PTR __imp_?LOG@@3VCLog@@A
  00056	ff 15 00 00 00
	00		 call	 DWORD PTR __imp_?PrintTimeAndLog@CLog@@QAAXHPADZZ
  0005c	83 c4 14	 add	 esp, 20			; 00000014H

; 49   : 		return false;

  0005f	32 c0		 xor	 al, al
$LN3@GetCurDama:

; 61   : }

  00061	5d		 pop	 ebp
  00062	c2 0c 00	 ret	 12			; 0000000cH
?GetCurDamage@DamageTable@@QAE_NHAAVioHashString@@AAH@Z ENDP ; DamageTable::GetCurDamage
_TEXT	ENDS
PUBLIC	?GetAllDamage@DamageTable@@QAE_NHAAVioHashString@@AAH@Z ; DamageTable::GetAllDamage
; Function compile flags: /Ogsp
;	COMDAT ?GetAllDamage@DamageTable@@QAE_NHAAVioHashString@@AAH@Z
_TEXT	SEGMENT
$T508114 = 8						; size = 1
_iter$ = 8						; size = 4
_iIdx$ = 8						; size = 4
_rkName$ = 12						; size = 4
_iDamage$ = 16						; size = 4
?GetAllDamage@DamageTable@@QAE_NHAAVioHashString@@AAH@Z PROC ; DamageTable::GetAllDamage, COMDAT
; _this$ = ecx

; 64   : {

  00000	55		 push	 ebp
  00001	8b ec		 mov	 ebp, esp

; 65   : 	if( !COMPARE( iIdx, 0, GetDamageTableCnt() ) )

  00003	8b 45 08	 mov	 eax, DWORD PTR _iIdx$[ebp]
  00006	85 c0		 test	 eax, eax
  00008	78 3e		 js	 SHORT $LN1@GetAllDama
  0000a	3b 41 08	 cmp	 eax, DWORD PTR [ecx+8]
  0000d	7d 39		 jge	 SHORT $LN1@GetAllDama

; 69   : 	}
; 70   : 
; 71   : 	DamageTableMap::iterator iter = m_DamageTable.begin();

  0000f	8b 49 04	 mov	 ecx, DWORD PTR [ecx+4]
  00012	8b 09		 mov	 ecx, DWORD PTR [ecx]
  00014	56		 push	 esi
  00015	89 4d 08	 mov	 DWORD PTR _iter$[ebp], ecx

; 72   : 	std::advance( iter, iIdx );

  00018	ff 75 08	 push	 DWORD PTR $T508114[ebp]
  0001b	50		 push	 eax
  0001c	8d 45 08	 lea	 eax, DWORD PTR _iter$[ebp]
  0001f	50		 push	 eax
  00020	e8 00 00 00 00	 call	 ??$_Advance@V?$_Tree_iterator@V?$_Tree_val@V?$_Tmap_traits@VioHashString@@UDamageData@DamageTable@@U?$less@VioHashString@@@std@@V?$allocator@U?$pair@$$CBVioHashString@@UDamageData@DamageTable@@@std@@@5@$0A@@std@@@std@@@std@@H@std@@YAXAAV?$_Tree_iterator@V?$_Tree_val@V?$_Tmap_traits@VioHashString@@UDamageData@DamageTable@@U?$less@VioHashString@@@std@@V?$allocator@U?$pair@$$CBVioHashString@@UDamageData@DamageTable@@@std@@@5@$0A@@std@@@std@@@0@HUbidirectional_iterator_tag@0@@Z ; std::_Advance<std::_Tree_iterator<std::_Tree_val<std::_Tmap_traits<ioHashString,DamageTable::DamageData,std::less<ioHashString>,std::allocator<std::pair<ioHashString const ,DamageTable::DamageData> >,0> > >,int>

; 73   : 
; 74   : 	rkName  = iter->first;

  00025	8b 75 08	 mov	 esi, DWORD PTR _iter$[ebp]
  00028	8b 4d 0c	 mov	 ecx, DWORD PTR _rkName$[ebp]
  0002b	83 c4 0c	 add	 esp, 12			; 0000000cH
  0002e	8d 46 0c	 lea	 eax, DWORD PTR [esi+12]
  00031	50		 push	 eax
  00032	ff 15 00 00 00
	00		 call	 DWORD PTR __imp_??4ioHashString@@QAEAAV0@ABV0@@Z

; 75   : 
; 76   : 	DamageData &rkData = iter->second;	
; 77   : 	iDamage = rkData.m_iCurDamage + rkData.m_iPrevDamage;

  00038	8b 46 20	 mov	 eax, DWORD PTR [esi+32]
  0003b	03 46 1c	 add	 eax, DWORD PTR [esi+28]
  0003e	8b 4d 10	 mov	 ecx, DWORD PTR _iDamage$[ebp]
  00041	89 01		 mov	 DWORD PTR [ecx], eax

; 78   : 
; 79   : 	return true;

  00043	b0 01		 mov	 al, 1
  00045	5e		 pop	 esi
  00046	eb 1c		 jmp	 SHORT $LN3@GetAllDama
$LN1@GetAllDama:

; 66   : 	{
; 67   : 		LOG.PrintTimeAndLog( 0, "DamageTable::GetDamage - overflow(%d/%d)", iIdx, GetDamageTableCnt() );

  00048	ff 71 08	 push	 DWORD PTR [ecx+8]
  0004b	50		 push	 eax
  0004c	68 00 00 00 00	 push	 OFFSET ??_C@_0CJ@CNCEHAND@DamageTable?3?3GetDamage?5?9?5overflo@
  00051	6a 00		 push	 0
  00053	ff 35 00 00 00
	00		 push	 DWORD PTR __imp_?LOG@@3VCLog@@A
  00059	ff 15 00 00 00
	00		 call	 DWORD PTR __imp_?PrintTimeAndLog@CLog@@QAAXHPADZZ
  0005f	83 c4 14	 add	 esp, 20			; 00000014H

; 68   : 		return false;

  00062	32 c0		 xor	 al, al
$LN3@GetAllDama:

; 80   : }

  00064	5d		 pop	 ebp
  00065	c2 0c 00	 ret	 12			; 0000000cH
?GetAllDamage@DamageTable@@QAE_NHAAVioHashString@@AAH@Z ENDP ; DamageTable::GetAllDamage
_TEXT	ENDS
PUBLIC	?AttachAllDamage@DamageTable@@QAEXXZ		; DamageTable::AttachAllDamage
; Function compile flags: /Ogsp
;	COMDAT ?AttachAllDamage@DamageTable@@QAEXXZ
_TEXT	SEGMENT
_iCreate$ = -4						; size = 4
?AttachAllDamage@DamageTable@@QAEXXZ PROC		; DamageTable::AttachAllDamage, COMDAT
; _this$ = ecx

; 83   : {

  00000	55		 push	 ebp
  00001	8b ec		 mov	 ebp, esp
  00003	51		 push	 ecx
  00004	56		 push	 esi
  00005	8b f1		 mov	 esi, ecx

; 84   : 	DamageTableMap::iterator iCreate;
; 85   : 	for( iCreate = m_DamageTable.begin() ; iCreate != m_DamageTable.end() ; ++iCreate )

  00007	8b 4e 04	 mov	 ecx, DWORD PTR [esi+4]
  0000a	8b 01		 mov	 eax, DWORD PTR [ecx]
  0000c	89 45 fc	 mov	 DWORD PTR _iCreate$[ebp], eax
  0000f	3b c1		 cmp	 eax, ecx
  00011	74 1a		 je	 SHORT $LN1@AttachAllD
$LL28@AttachAllD:

; 86   : 	{
; 87   : 		DamageData &rkData = iCreate->second;
; 88   : 		rkData.m_iPrevDamage += rkData.m_iCurDamage;

  00013	8b 48 20	 mov	 ecx, DWORD PTR [eax+32]
  00016	01 48 1c	 add	 DWORD PTR [eax+28], ecx

; 89   : 		rkData.m_iCurDamage   = 0;

  00019	83 60 20 00	 and	 DWORD PTR [eax+32], 0
  0001d	8d 4d fc	 lea	 ecx, DWORD PTR _iCreate$[ebp]
  00020	e8 00 00 00 00	 call	 ??E?$_Tree_unchecked_const_iterator@V?$_Tree_val@V?$_Tmap_traits@VioHashString@@UDamageData@DamageTable@@U?$less@VioHashString@@@std@@V?$allocator@U?$pair@$$CBVioHashString@@UDamageData@DamageTable@@@std@@@5@$0A@@std@@@std@@U_Iterator_base0@2@@std@@QAEAAV01@XZ ; std::_Tree_unchecked_const_iterator<std::_Tree_val<std::_Tmap_traits<ioHashString,DamageTable::DamageData,std::less<ioHashString>,std::allocator<std::pair<ioHashString const ,DamageTable::DamageData> >,0> >,std::_Iterator_base0>::operator++
  00025	8b 45 fc	 mov	 eax, DWORD PTR _iCreate$[ebp]
  00028	3b 46 04	 cmp	 eax, DWORD PTR [esi+4]
  0002b	75 e6		 jne	 SHORT $LL28@AttachAllD
$LN1@AttachAllD:
  0002d	5e		 pop	 esi

; 90   : 	}
; 91   : }

  0002e	c9		 leave
  0002f	c3		 ret	 0
?AttachAllDamage@DamageTable@@QAEXXZ ENDP		; DamageTable::AttachAllDamage
_TEXT	ENDS
PUBLIC	?find@?$_Tree@V?$_Tmap_traits@VioHashString@@UDamageData@DamageTable@@U?$less@VioHashString@@@std@@V?$allocator@U?$pair@$$CBVioHashString@@UDamageData@DamageTable@@@std@@@5@$0A@@std@@@std@@QAE?AV?$_Tree_iterator@V?$_Tree_val@V?$_Tmap_traits@VioHashString@@UDamageData@DamageTable@@U?$less@VioHashString@@@std@@V?$allocator@U?$pair@$$CBVioHashString@@UDamageData@DamageTable@@@std@@@5@$0A@@std@@@std@@@2@ABVioHashString@@@Z ; std::_Tree<std::_Tmap_traits<ioHashString,DamageTable::DamageData,std::less<ioHashString>,std::allocator<std::pair<ioHashString const ,DamageTable::DamageData> >,0> >::find
; Function compile flags: /Ogsp
; File c:\program files (x86)\microsoft visual studio 10.0\vc\include\xtree
;	COMDAT ?find@?$_Tree@V?$_Tmap_traits@VioHashString@@UDamageData@DamageTable@@U?$less@VioHashString@@@std@@V?$allocator@U?$pair@$$CBVioHashString@@UDamageData@DamageTable@@@std@@@5@$0A@@std@@@std@@QAE?AV?$_Tree_iterator@V?$_Tree_val@V?$_Tmap_traits@VioHashString@@UDamageData@DamageTable@@U?$less@VioHashString@@@std@@V?$allocator@U?$pair@$$CBVioHashString@@UDamageData@DamageTable@@@std@@@5@$0A@@std@@@std@@@2@ABVioHashString@@@Z
_TEXT	SEGMENT
__Where$ = -4						; size = 4
___$ReturnUdt$ = 8					; size = 4
$T508317 = 12						; size = 4
__Keyval$ = 12						; size = 4
?find@?$_Tree@V?$_Tmap_traits@VioHashString@@UDamageData@DamageTable@@U?$less@VioHashString@@@std@@V?$allocator@U?$pair@$$CBVioHashString@@UDamageData@DamageTable@@@std@@@5@$0A@@std@@@std@@QAE?AV?$_Tree_iterator@V?$_Tree_val@V?$_Tmap_traits@VioHashString@@UDamageData@DamageTable@@U?$less@VioHashString@@@std@@V?$allocator@U?$pair@$$CBVioHashString@@UDamageData@DamageTable@@@std@@@5@$0A@@std@@@std@@@2@ABVioHashString@@@Z PROC ; std::_Tree<std::_Tmap_traits<ioHashString,DamageTable::DamageData,std::less<ioHashString>,std::allocator<std::pair<ioHashString const ,DamageTable::DamageData> >,0> >::find, COMDAT
; _this$ = ecx

; 1423 : 		{	// find an element in mutable sequence that matches _Keyval

  00000	55		 push	 ebp
  00001	8b ec		 mov	 ebp, esp
  00003	51		 push	 ecx
  00004	56		 push	 esi

; 1424 : 		iterator _Where = lower_bound(_Keyval);

  00005	ff 75 0c	 push	 DWORD PTR __Keyval$[ebp]
  00008	8b f1		 mov	 esi, ecx
  0000a	e8 00 00 00 00	 call	 ?_Lbound@?$_Tree@V?$_Tmap_traits@VioHashString@@UDamageData@DamageTable@@U?$less@VioHashString@@@std@@V?$allocator@U?$pair@$$CBVioHashString@@UDamageData@DamageTable@@@std@@@5@$0A@@std@@@std@@IAEPAU_Node@?$_Tree_nod@V?$_Tmap_traits@VioHashString@@UDamageData@DamageTable@@U?$less@VioHashString@@@std@@V?$allocator@U?$pair@$$CBVioHashString@@UDamageData@DamageTable@@@std@@@5@$0A@@std@@@2@ABVioHashString@@@Z ; std::_Tree<std::_Tmap_traits<ioHashString,DamageTable::DamageData,std::less<ioHashString>,std::allocator<std::pair<ioHashString const ,DamageTable::DamageData> >,0> >::_Lbound
  0000f	89 45 fc	 mov	 DWORD PTR __Where$[ebp], eax

; 1425 : 		return (_Where == end()
; 1426 : 			|| _DEBUG_LT_PRED(this->comp,
; 1427 : 				_Keyval, this->_Key(_Where._Mynode()))
; 1428 : 					? end() : _Where);

  00012	3b 46 04	 cmp	 eax, DWORD PTR [esi+4]
  00015	74 16		 je	 SHORT $LN3@find
  00017	8b 4d 0c	 mov	 ecx, DWORD PTR __Keyval$[ebp]
  0001a	83 c0 0c	 add	 eax, 12			; 0000000cH
  0001d	50		 push	 eax
  0001e	ff 15 00 00 00
	00		 call	 DWORD PTR __imp_??MioHashString@@QBE_NABV0@@Z
  00024	84 c0		 test	 al, al
  00026	75 05		 jne	 SHORT $LN3@find
  00028	8d 45 fc	 lea	 eax, DWORD PTR __Where$[ebp]
  0002b	eb 09		 jmp	 SHORT $LN4@find
$LN3@find:
  0002d	8b 46 04	 mov	 eax, DWORD PTR [esi+4]
  00030	89 45 0c	 mov	 DWORD PTR $T508317[ebp], eax
  00033	8d 45 0c	 lea	 eax, DWORD PTR $T508317[ebp]
$LN4@find:
  00036	8b 08		 mov	 ecx, DWORD PTR [eax]
  00038	8b 45 08	 mov	 eax, DWORD PTR ___$ReturnUdt$[ebp]
  0003b	89 08		 mov	 DWORD PTR [eax], ecx
  0003d	5e		 pop	 esi

; 1429 : 		}

  0003e	c9		 leave
  0003f	c2 08 00	 ret	 8
?find@?$_Tree@V?$_Tmap_traits@VioHashString@@UDamageData@DamageTable@@U?$less@VioHashString@@@std@@V?$allocator@U?$pair@$$CBVioHashString@@UDamageData@DamageTable@@@std@@@5@$0A@@std@@@std@@QAE?AV?$_Tree_iterator@V?$_Tree_val@V?$_Tmap_traits@VioHashString@@UDamageData@DamageTable@@U?$less@VioHashString@@@std@@V?$allocator@U?$pair@$$CBVioHashString@@UDamageData@DamageTable@@@std@@@5@$0A@@std@@@std@@@2@ABVioHashString@@@Z ENDP ; std::_Tree<std::_Tmap_traits<ioHashString,DamageTable::DamageData,std::less<ioHashString>,std::allocator<std::pair<ioHashString const ,DamageTable::DamageData> >,0> >::find
_TEXT	ENDS
PUBLIC	?_Erase@?$_Tree@V?$_Tmap_traits@VioHashString@@UDamageData@DamageTable@@U?$less@VioHashString@@@std@@V?$allocator@U?$pair@$$CBVioHashString@@UDamageData@DamageTable@@@std@@@5@$0A@@std@@@std@@IAEXPAU_Node@?$_Tree_nod@V?$_Tmap_traits@VioHashString@@UDamageData@DamageTable@@U?$less@VioHashString@@@std@@V?$allocator@U?$pair@$$CBVioHashString@@UDamageData@DamageTable@@@std@@@5@$0A@@std@@@2@@Z ; std::_Tree<std::_Tmap_traits<ioHashString,DamageTable::DamageData,std::less<ioHashString>,std::allocator<std::pair<ioHashString const ,DamageTable::DamageData> >,0> >::_Erase
; Function compile flags: /Ogsp
;	COMDAT ?_Erase@?$_Tree@V?$_Tmap_traits@VioHashString@@UDamageData@DamageTable@@U?$less@VioHashString@@@std@@V?$allocator@U?$pair@$$CBVioHashString@@UDamageData@DamageTable@@@std@@@5@$0A@@std@@@std@@IAEXPAU_Node@?$_Tree_nod@V?$_Tmap_traits@VioHashString@@UDamageData@DamageTable@@U?$less@VioHashString@@@std@@V?$allocator@U?$pair@$$CBVioHashString@@UDamageData@DamageTable@@@std@@@5@$0A@@std@@@2@@Z
_TEXT	SEGMENT
__Rootnode$ = 8						; size = 4
?_Erase@?$_Tree@V?$_Tmap_traits@VioHashString@@UDamageData@DamageTable@@U?$less@VioHashString@@@std@@V?$allocator@U?$pair@$$CBVioHashString@@UDamageData@DamageTable@@@std@@@5@$0A@@std@@@std@@IAEXPAU_Node@?$_Tree_nod@V?$_Tmap_traits@VioHashString@@UDamageData@DamageTable@@U?$less@VioHashString@@@std@@V?$allocator@U?$pair@$$CBVioHashString@@UDamageData@DamageTable@@@std@@@5@$0A@@std@@@2@@Z PROC ; std::_Tree<std::_Tmap_traits<ioHashString,DamageTable::DamageData,std::less<ioHashString>,std::allocator<std::pair<ioHashString const ,DamageTable::DamageData> >,0> >::_Erase, COMDAT
; _this$ = ecx

; 1610 : 		{	// free entire subtree, recursively

  00000	55		 push	 ebp
  00001	8b ec		 mov	 ebp, esp
  00003	53		 push	 ebx
  00004	56		 push	 esi
  00005	57		 push	 edi

; 1611 : 		for (_Nodeptr _Pnode = _Rootnode;

  00006	8b 7d 08	 mov	 edi, DWORD PTR __Rootnode$[ebp]

; 1612 : 			!this->_Isnil(_Pnode); _Rootnode = _Pnode)

  00009	80 7f 25 00	 cmp	 BYTE PTR [edi+37], 0
  0000d	8b d9		 mov	 ebx, ecx
  0000f	8b f7		 mov	 esi, edi
  00011	75 24		 jne	 SHORT $LN1@Erase
$LL3@Erase:

; 1613 : 			{	// free subtrees, then node
; 1614 : 			_Erase(this->_Right(_Pnode));

  00013	ff 76 08	 push	 DWORD PTR [esi+8]
  00016	8b cb		 mov	 ecx, ebx
  00018	e8 00 00 00 00	 call	 ?_Erase@?$_Tree@V?$_Tmap_traits@VioHashString@@UDamageData@DamageTable@@U?$less@VioHashString@@@std@@V?$allocator@U?$pair@$$CBVioHashString@@UDamageData@DamageTable@@@std@@@5@$0A@@std@@@std@@IAEXPAU_Node@?$_Tree_nod@V?$_Tmap_traits@VioHashString@@UDamageData@DamageTable@@U?$less@VioHashString@@@std@@V?$allocator@U?$pair@$$CBVioHashString@@UDamageData@DamageTable@@@std@@@5@$0A@@std@@@2@@Z ; std::_Tree<std::_Tmap_traits<ioHashString,DamageTable::DamageData,std::less<ioHashString>,std::allocator<std::pair<ioHashString const ,DamageTable::DamageData> >,0> >::_Erase

; 1615 : 			_Pnode = this->_Left(_Pnode);

  0001d	8b 36		 mov	 esi, DWORD PTR [esi]

; 1616 : 			_Dest_val(this->_Alval,
; 1617 : 				_STD addressof(this->_Myval(_Rootnode)));

  0001f	8d 4f 0c	 lea	 ecx, DWORD PTR [edi+12]
  00022	ff 15 00 00 00
	00		 call	 DWORD PTR __imp_??1ioHashString@@QAE@XZ

; 1618 : 
; 1619 : 			this->_Alnod.deallocate(_Rootnode, 1);

  00028	57		 push	 edi
  00029	e8 00 00 00 00	 call	 ??3@YAXPAX@Z		; operator delete
  0002e	80 7e 25 00	 cmp	 BYTE PTR [esi+37], 0
  00032	59		 pop	 ecx
  00033	8b fe		 mov	 edi, esi
  00035	74 dc		 je	 SHORT $LL3@Erase
$LN1@Erase:
  00037	5f		 pop	 edi
  00038	5e		 pop	 esi
  00039	5b		 pop	 ebx

; 1620 : 			}
; 1621 : 		}

  0003a	5d		 pop	 ebp
  0003b	c2 04 00	 ret	 4
?_Erase@?$_Tree@V?$_Tmap_traits@VioHashString@@UDamageData@DamageTable@@U?$less@VioHashString@@@std@@V?$allocator@U?$pair@$$CBVioHashString@@UDamageData@DamageTable@@@std@@@5@$0A@@std@@@std@@IAEXPAU_Node@?$_Tree_nod@V?$_Tmap_traits@VioHashString@@UDamageData@DamageTable@@U?$less@VioHashString@@@std@@V?$allocator@U?$pair@$$CBVioHashString@@UDamageData@DamageTable@@@std@@@5@$0A@@std@@@2@@Z ENDP ; std::_Tree<std::_Tmap_traits<ioHashString,DamageTable::DamageData,std::less<ioHashString>,std::allocator<std::pair<ioHashString const ,DamageTable::DamageData> >,0> >::_Erase
_TEXT	ENDS
PUBLIC	??_C@_0BM@PAPJHAGI@invalid?5map?1set?$DMT?$DO?5iterator?$AA@ ; `string'
PUBLIC	?erase@?$_Tree@V?$_Tmap_traits@VioHashString@@UDamageData@DamageTable@@U?$less@VioHashString@@@std@@V?$allocator@U?$pair@$$CBVioHashString@@UDamageData@DamageTable@@@std@@@5@$0A@@std@@@std@@QAE?AV?$_Tree_iterator@V?$_Tree_val@V?$_Tmap_traits@VioHashString@@UDamageData@DamageTable@@U?$less@VioHashString@@@std@@V?$allocator@U?$pair@$$CBVioHashString@@UDamageData@DamageTable@@@std@@@5@$0A@@std@@@std@@@2@V?$_Tree_const_iterator@V?$_Tree_val@V?$_Tmap_traits@VioHashString@@UDamageData@DamageTable@@U?$less@VioHashString@@@std@@V?$allocator@U?$pair@$$CBVioHashString@@UDamageData@DamageTable@@@std@@@5@$0A@@std@@@std@@@2@@Z ; std::_Tree<std::_Tmap_traits<ioHashString,DamageTable::DamageData,std::less<ioHashString>,std::allocator<std::pair<ioHashString const ,DamageTable::DamageData> >,0> >::erase
EXTRN	__imp_?_Xout_of_range@std@@YAXPBD@Z:PROC
;	COMDAT ??_C@_0BM@PAPJHAGI@invalid?5map?1set?$DMT?$DO?5iterator?$AA@
; File c:\program files (x86)\microsoft visual studio 10.0\vc\include\xutility
CONST	SEGMENT
??_C@_0BM@PAPJHAGI@invalid?5map?1set?$DMT?$DO?5iterator?$AA@ DB 'invalid '
	DB	'map/set<T> iterator', 00H			; `string'
; Function compile flags: /Ogsp
; File c:\program files (x86)\microsoft visual studio 10.0\vc\include\xtree
CONST	ENDS
;	COMDAT ?erase@?$_Tree@V?$_Tmap_traits@VioHashString@@UDamageData@DamageTable@@U?$less@VioHashString@@@std@@V?$allocator@U?$pair@$$CBVioHashString@@UDamageData@DamageTable@@@std@@@5@$0A@@std@@@std@@QAE?AV?$_Tree_iterator@V?$_Tree_val@V?$_Tmap_traits@VioHashString@@UDamageData@DamageTable@@U?$less@VioHashString@@@std@@V?$allocator@U?$pair@$$CBVioHashString@@UDamageData@DamageTable@@@std@@@5@$0A@@std@@@std@@@2@V?$_Tree_const_iterator@V?$_Tree_val@V?$_Tmap_traits@VioHashString@@UDamageData@DamageTable@@U?$less@VioHashString@@@std@@V?$allocator@U?$pair@$$CBVioHashString@@UDamageData@DamageTable@@@std@@@5@$0A@@std@@@std@@@2@@Z
_TEXT	SEGMENT
_this$ = -4						; size = 4
___$ReturnUdt$ = 8					; size = 4
__Where$ = 12						; size = 4
?erase@?$_Tree@V?$_Tmap_traits@VioHashString@@UDamageData@DamageTable@@U?$less@VioHashString@@@std@@V?$allocator@U?$pair@$$CBVioHashString@@UDamageData@DamageTable@@@std@@@5@$0A@@std@@@std@@QAE?AV?$_Tree_iterator@V?$_Tree_val@V?$_Tmap_traits@VioHashString@@UDamageData@DamageTable@@U?$less@VioHashString@@@std@@V?$allocator@U?$pair@$$CBVioHashString@@UDamageData@DamageTable@@@std@@@5@$0A@@std@@@std@@@2@V?$_Tree_const_iterator@V?$_Tree_val@V?$_Tmap_traits@VioHashString@@UDamageData@DamageTable@@U?$less@VioHashString@@@std@@V?$allocator@U?$pair@$$CBVioHashString@@UDamageData@DamageTable@@@std@@@5@$0A@@std@@@std@@@2@@Z PROC ; std::_Tree<std::_Tmap_traits<ioHashString,DamageTable::DamageData,std::less<ioHashString>,std::allocator<std::pair<ioHashString const ,DamageTable::DamageData> >,0> >::erase, COMDAT
; _this$ = ecx

; 1195 : 		{	// erase element at _Where

  00000	55		 push	 ebp
  00001	8b ec		 mov	 ebp, esp
  00003	51		 push	 ecx
  00004	53		 push	 ebx
  00005	56		 push	 esi
  00006	57		 push	 edi

; 1196 :  #if _ITERATOR_DEBUG_LEVEL == 2
; 1197 : 		if (_Where._Getcont() != this || this->_Isnil(_Where._Mynode()))
; 1198 : 			_DEBUG_ERROR("map/set erase iterator outside range");
; 1199 : 		_Nodeptr _Erasednode = _Where._Mynode();	// node to erase
; 1200 : 		++_Where;	// save successor iterator for return
; 1201 : 		_Orphan_ptr(*this, _Erasednode);
; 1202 : 
; 1203 :  #else /* _ITERATOR_DEBUG_LEVEL == 2 */
; 1204 : 		if (this->_Isnil(_Where._Mynode()))

  00007	8b 7d 0c	 mov	 edi, DWORD PTR __Where$[ebp]
  0000a	80 7f 25 00	 cmp	 BYTE PTR [edi+37], 0
  0000e	89 4d fc	 mov	 DWORD PTR _this$[ebp], ecx
  00011	74 0b		 je	 SHORT $LN40@erase

; 1205 : 			_Xout_of_range("invalid map/set<T> iterator");

  00013	68 00 00 00 00	 push	 OFFSET ??_C@_0BM@PAPJHAGI@invalid?5map?1set?$DMT?$DO?5iterator?$AA@
  00018	ff 15 00 00 00
	00		 call	 DWORD PTR __imp_?_Xout_of_range@std@@YAXPBD@Z
$LN338@erase:
$LN40@erase:

; 1206 : 		_Nodeptr _Erasednode = _Where._Mynode();	// node to erase
; 1207 : 		++_Where;	// save successor iterator for return

  0001e	8d 4d 0c	 lea	 ecx, DWORD PTR __Where$[ebp]
  00021	e8 00 00 00 00	 call	 ??E?$_Tree_unchecked_const_iterator@V?$_Tree_val@V?$_Tmap_traits@VioHashString@@UDamageData@DamageTable@@U?$less@VioHashString@@@std@@V?$allocator@U?$pair@$$CBVioHashString@@UDamageData@DamageTable@@@std@@@5@$0A@@std@@@std@@U_Iterator_base0@2@@std@@QAEAAV01@XZ ; std::_Tree_unchecked_const_iterator<std::_Tree_val<std::_Tmap_traits<ioHashString,DamageTable::DamageData,std::less<ioHashString>,std::allocator<std::pair<ioHashString const ,DamageTable::DamageData> >,0> >,std::_Iterator_base0>::operator++

; 1208 :  #endif /* _ITERATOR_DEBUG_LEVEL == 2 */
; 1209 : 
; 1210 : 		_Nodeptr _Fixnode;	// the node to recolor as needed
; 1211 : 		_Nodeptr _Fixnodeparent;	// parent of _Fixnode (which may be nil)
; 1212 : 		_Nodeptr _Pnode = _Erasednode;
; 1213 : 
; 1214 : 		if (this->_Isnil(this->_Left(_Pnode)))

  00026	8b 17		 mov	 edx, DWORD PTR [edi]
  00028	80 7a 25 00	 cmp	 BYTE PTR [edx+37], 0
  0002c	74 05		 je	 SHORT $LN39@erase

; 1215 : 			_Fixnode = this->_Right(_Pnode);	// stitch up right subtree

  0002e	8b 5f 08	 mov	 ebx, DWORD PTR [edi+8]

; 1216 : 		else if (this->_Isnil(this->_Right(_Pnode)))

  00031	eb 17		 jmp	 SHORT $LN330@erase
$LN39@erase:
  00033	8b 47 08	 mov	 eax, DWORD PTR [edi+8]
  00036	80 78 25 00	 cmp	 BYTE PTR [eax+37], 0
  0003a	74 04		 je	 SHORT $LN37@erase

; 1217 : 			_Fixnode = this->_Left(_Pnode);	// stitch up left subtree

  0003c	8b da		 mov	 ebx, edx

; 1218 : 		else

  0003e	eb 0a		 jmp	 SHORT $LN330@erase
$LN37@erase:

; 1219 : 			{	// two subtrees, must lift successor node to replace erased
; 1220 : 			_Pnode = _Where._Mynode();	// _Pnode is successor node

  00040	8b 45 0c	 mov	 eax, DWORD PTR __Where$[ebp]

; 1221 : 			_Fixnode = this->_Right(_Pnode);	// _Fixnode is only subtree

  00043	8b 58 08	 mov	 ebx, DWORD PTR [eax+8]

; 1222 : 			}
; 1223 : 
; 1224 : 		if (_Pnode == _Erasednode)

  00046	3b c7		 cmp	 eax, edi
  00048	75 76		 jne	 SHORT $LN35@erase
$LN330@erase:

; 1225 : 			{	// at most one subtree, relink it
; 1226 : 			_Fixnodeparent = this->_Parent(_Erasednode);
; 1227 : 			if (!this->_Isnil(_Fixnode))

  0004a	80 7b 25 00	 cmp	 BYTE PTR [ebx+37], 0
  0004e	8b 77 04	 mov	 esi, DWORD PTR [edi+4]
  00051	75 03		 jne	 SHORT $LN34@erase

; 1228 : 				this->_Parent(_Fixnode) = _Fixnodeparent;	// link up

  00053	89 73 04	 mov	 DWORD PTR [ebx+4], esi
$LN34@erase:

; 1229 : 
; 1230 : 			if (_Root() == _Erasednode)

  00056	8b 4d fc	 mov	 ecx, DWORD PTR _this$[ebp]
  00059	8b 41 04	 mov	 eax, DWORD PTR [ecx+4]
  0005c	39 78 04	 cmp	 DWORD PTR [eax+4], edi
  0005f	75 05		 jne	 SHORT $LN33@erase

; 1231 : 				_Root() = _Fixnode;	// link down from root

  00061	89 58 04	 mov	 DWORD PTR [eax+4], ebx

; 1232 : 			else if (this->_Left(_Fixnodeparent) == _Erasednode)

  00064	eb 0b		 jmp	 SHORT $LN30@erase
$LN33@erase:
  00066	39 3e		 cmp	 DWORD PTR [esi], edi
  00068	75 04		 jne	 SHORT $LN31@erase

; 1233 : 				this->_Left(_Fixnodeparent) = _Fixnode;	// link down to left

  0006a	89 1e		 mov	 DWORD PTR [esi], ebx

; 1234 : 			else

  0006c	eb 03		 jmp	 SHORT $LN30@erase
$LN31@erase:

; 1235 : 				this->_Right(_Fixnodeparent) =
; 1236 : 					_Fixnode;	// link down to right

  0006e	89 5e 08	 mov	 DWORD PTR [esi+8], ebx
$LN30@erase:

; 1237 : 
; 1238 : 			if (_Lmost() == _Erasednode)

  00071	8b 49 04	 mov	 ecx, DWORD PTR [ecx+4]
  00074	39 39		 cmp	 DWORD PTR [ecx], edi
  00076	75 1c		 jne	 SHORT $LN29@erase

; 1239 : 				_Lmost() = this->_Isnil(_Fixnode)
; 1240 : 					? _Fixnodeparent	// smallest is parent of erased node
; 1241 : 					: this->_Min(_Fixnode);	// smallest in relinked subtree

  00078	80 7b 25 00	 cmp	 BYTE PTR [ebx+37], 0
  0007c	74 04		 je	 SHORT $LN43@erase
  0007e	8b d6		 mov	 edx, esi
  00080	eb 10		 jmp	 SHORT $LN97@erase
$LN43@erase:
  00082	8b 03		 mov	 eax, DWORD PTR [ebx]
  00084	8b d3		 mov	 edx, ebx
  00086	eb 04		 jmp	 SHORT $LN332@erase
$LL98@erase:
  00088	8b d0		 mov	 edx, eax
  0008a	8b 02		 mov	 eax, DWORD PTR [edx]
$LN332@erase:
  0008c	80 78 25 00	 cmp	 BYTE PTR [eax+37], 0
  00090	74 f6		 je	 SHORT $LL98@erase
$LN97@erase:
  00092	89 11		 mov	 DWORD PTR [ecx], edx
$LN29@erase:

; 1242 : 
; 1243 : 			if (_Rmost() == _Erasednode)

  00094	8b 45 fc	 mov	 eax, DWORD PTR _this$[ebp]
  00097	8b 48 04	 mov	 ecx, DWORD PTR [eax+4]
  0009a	39 79 08	 cmp	 DWORD PTR [ecx+8], edi
  0009d	75 7b		 jne	 SHORT $LN185@erase

; 1244 : 				_Rmost() = this->_Isnil(_Fixnode)
; 1245 : 					? _Fixnodeparent	// largest is parent of erased node
; 1246 : 					: this->_Max(_Fixnode);	// largest in relinked subtree

  0009f	80 7b 25 00	 cmp	 BYTE PTR [ebx+37], 0
  000a3	74 04		 je	 SHORT $LN45@erase
  000a5	8b d6		 mov	 edx, esi
  000a7	eb 12		 jmp	 SHORT $LN117@erase
$LN45@erase:
  000a9	8b 43 08	 mov	 eax, DWORD PTR [ebx+8]
  000ac	8b d3		 mov	 edx, ebx
  000ae	eb 05		 jmp	 SHORT $LN333@erase
$LL118@erase:
  000b0	8b d0		 mov	 edx, eax
  000b2	8b 42 08	 mov	 eax, DWORD PTR [edx+8]
$LN333@erase:
  000b5	80 78 25 00	 cmp	 BYTE PTR [eax+37], 0
  000b9	74 f5		 je	 SHORT $LL118@erase
$LN117@erase:
  000bb	89 51 08	 mov	 DWORD PTR [ecx+8], edx

; 1247 : 			}
; 1248 : 		else

  000be	eb 5a		 jmp	 SHORT $LN185@erase
$LN35@erase:

; 1249 : 			{	// erased has two subtrees, _Pnode is successor to erased
; 1250 : 			this->_Parent(this->_Left(_Erasednode)) =
; 1251 : 				_Pnode;	// link left up

  000c0	89 42 04	 mov	 DWORD PTR [edx+4], eax

; 1252 : 			this->_Left(_Pnode) =
; 1253 : 				this->_Left(_Erasednode);	// link successor down

  000c3	8b 17		 mov	 edx, DWORD PTR [edi]
  000c5	89 10		 mov	 DWORD PTR [eax], edx

; 1254 : 
; 1255 : 			if (_Pnode == this->_Right(_Erasednode))

  000c7	3b 47 08	 cmp	 eax, DWORD PTR [edi+8]
  000ca	75 04		 jne	 SHORT $LN26@erase

; 1256 : 				_Fixnodeparent = _Pnode;	// successor is next to erased

  000cc	8b f0		 mov	 esi, eax

; 1257 : 			else

  000ce	eb 1a		 jmp	 SHORT $LN25@erase
$LN26@erase:

; 1258 : 				{	// successor further down, link in place of erased
; 1259 : 				_Fixnodeparent =
; 1260 : 					this->_Parent(_Pnode);	// parent is successor's
; 1261 : 				if (!this->_Isnil(_Fixnode))

  000d0	80 7b 25 00	 cmp	 BYTE PTR [ebx+37], 0
  000d4	8b 70 04	 mov	 esi, DWORD PTR [eax+4]
  000d7	75 03		 jne	 SHORT $LN24@erase

; 1262 : 					this->_Parent(_Fixnode) = _Fixnodeparent;	// link fix up

  000d9	89 73 04	 mov	 DWORD PTR [ebx+4], esi
$LN24@erase:

; 1263 : 				this->_Left(_Fixnodeparent) = _Fixnode;	// link fix down

  000dc	89 1e		 mov	 DWORD PTR [esi], ebx

; 1264 : 				this->_Right(_Pnode) =
; 1265 : 					this->_Right(_Erasednode);	// link next down

  000de	8b 57 08	 mov	 edx, DWORD PTR [edi+8]
  000e1	89 50 08	 mov	 DWORD PTR [eax+8], edx

; 1266 : 				this->_Parent(this->_Right(_Erasednode)) =
; 1267 : 					_Pnode;	// right up

  000e4	8b 4f 08	 mov	 ecx, DWORD PTR [edi+8]
  000e7	89 41 04	 mov	 DWORD PTR [ecx+4], eax
$LN25@erase:

; 1268 : 				}
; 1269 : 
; 1270 : 			if (_Root() == _Erasednode)

  000ea	8b 4d fc	 mov	 ecx, DWORD PTR _this$[ebp]
  000ed	8b 49 04	 mov	 ecx, DWORD PTR [ecx+4]
  000f0	39 79 04	 cmp	 DWORD PTR [ecx+4], edi
  000f3	75 05		 jne	 SHORT $LN23@erase

; 1271 : 				_Root() = _Pnode;	// link down from root

  000f5	89 41 04	 mov	 DWORD PTR [ecx+4], eax

; 1272 : 			else if (this->_Left(this->_Parent(_Erasednode)) == _Erasednode)

  000f8	eb 0e		 jmp	 SHORT $LN20@erase
$LN23@erase:
  000fa	8b 4f 04	 mov	 ecx, DWORD PTR [edi+4]
  000fd	39 39		 cmp	 DWORD PTR [ecx], edi
  000ff	75 04		 jne	 SHORT $LN21@erase

; 1273 : 				this->_Left(this->_Parent(_Erasednode)) =
; 1274 : 					_Pnode;	// link down to left

  00101	89 01		 mov	 DWORD PTR [ecx], eax

; 1275 : 			else

  00103	eb 03		 jmp	 SHORT $LN20@erase
$LN21@erase:

; 1276 : 				this->_Right(this->_Parent(_Erasednode)) =
; 1277 : 					_Pnode;	// link down to right

  00105	89 41 08	 mov	 DWORD PTR [ecx+8], eax
$LN20@erase:

; 1278 : 
; 1279 : 			this->_Parent(_Pnode) =
; 1280 : 				this->_Parent(_Erasednode);	// link successor up

  00108	8b 4f 04	 mov	 ecx, DWORD PTR [edi+4]
  0010b	89 48 04	 mov	 DWORD PTR [eax+4], ecx

; 1281 : 			_STD swap(this->_Color(_Pnode),
; 1282 : 				this->_Color(_Erasednode));	// recolor it

  0010e	8a 57 24	 mov	 dl, BYTE PTR [edi+36]
  00111	8a 48 24	 mov	 cl, BYTE PTR [eax+36]
  00114	88 50 24	 mov	 BYTE PTR [eax+36], dl
  00117	88 4f 24	 mov	 BYTE PTR [edi+36], cl
$LN185@erase:

; 1283 : 			}
; 1284 : 
; 1285 : 		if (this->_Color(_Erasednode) == this->_Black)

  0011a	80 7f 24 01	 cmp	 BYTE PTR [edi+36], 1
  0011e	0f 85 03 01 00
	00		 jne	 $LN19@erase

; 1286 : 			{	// erasing black link, must recolor/rebalance tree
; 1287 : 			for (; _Fixnode != _Root()
; 1288 : 				&& this->_Color(_Fixnode) == this->_Black;
; 1289 : 				_Fixnodeparent = this->_Parent(_Fixnode))

  00124	e9 b2 00 00 00	 jmp	 $LN335@erase
$LL18@erase:
  00129	80 7b 24 01	 cmp	 BYTE PTR [ebx+36], 1
  0012d	0f 85 f0 00 00
	00		 jne	 $LN16@erase

; 1290 : 				if (_Fixnode == this->_Left(_Fixnodeparent))

  00133	8b 06		 mov	 eax, DWORD PTR [esi]
  00135	3b d8		 cmp	 ebx, eax
  00137	75 6c		 jne	 SHORT $LN15@erase

; 1291 : 					{	// fixup left subtree
; 1292 : 					_Pnode = this->_Right(_Fixnodeparent);

  00139	8b 46 08	 mov	 eax, DWORD PTR [esi+8]

; 1293 : 					if (this->_Color(_Pnode) == this->_Red)

  0013c	80 78 24 00	 cmp	 BYTE PTR [eax+36], 0
  00140	75 11		 jne	 SHORT $LN14@erase

; 1294 : 						{	// rotate red up from right subtree
; 1295 : 						this->_Color(_Pnode) = this->_Black;

  00142	c6 40 24 01	 mov	 BYTE PTR [eax+36], 1

; 1296 : 						this->_Color(_Fixnodeparent) = this->_Red;
; 1297 : 						_Lrotate(_Fixnodeparent);

  00146	56		 push	 esi
  00147	c6 46 24 00	 mov	 BYTE PTR [esi+36], 0
  0014b	e8 00 00 00 00	 call	 ?_Lrotate@?$_Tree@V?$_Tmap_traits@VioHashString@@UDamageData@DamageTable@@U?$less@VioHashString@@@std@@V?$allocator@U?$pair@$$CBVioHashString@@UDamageData@DamageTable@@@std@@@5@$0A@@std@@@std@@IAEXPAU_Node@?$_Tree_nod@V?$_Tmap_traits@VioHashString@@UDamageData@DamageTable@@U?$less@VioHashString@@@std@@V?$allocator@U?$pair@$$CBVioHashString@@UDamageData@DamageTable@@@std@@@5@$0A@@std@@@2@@Z ; std::_Tree<std::_Tmap_traits<ioHashString,DamageTable::DamageData,std::less<ioHashString>,std::allocator<std::pair<ioHashString const ,DamageTable::DamageData> >,0> >::_Lrotate

; 1298 : 						_Pnode = this->_Right(_Fixnodeparent);

  00150	8b 46 08	 mov	 eax, DWORD PTR [esi+8]
$LN14@erase:

; 1299 : 						}
; 1300 : 
; 1301 : 					if (this->_Isnil(_Pnode))

  00153	80 78 25 00	 cmp	 BYTE PTR [eax+37], 0

; 1302 : 						_Fixnode = _Fixnodeparent;	// shouldn't happen
; 1303 : 					else if (this->_Color(this->_Left(_Pnode)) == this->_Black

  00157	75 7d		 jne	 SHORT $LN336@erase

; 1304 : 						&& this->_Color(this->_Right(_Pnode)) == this->_Black)

  00159	8b 08		 mov	 ecx, DWORD PTR [eax]
  0015b	80 79 24 01	 cmp	 BYTE PTR [ecx+36], 1
  0015f	75 09		 jne	 SHORT $LN11@erase
  00161	8b 48 08	 mov	 ecx, DWORD PTR [eax+8]
  00164	80 79 24 01	 cmp	 BYTE PTR [ecx+36], 1
  00168	74 68		 je	 SHORT $LN337@erase
$LN11@erase:

; 1305 : 						{	// redden right subtree with black children
; 1306 : 						this->_Color(_Pnode) = this->_Red;
; 1307 : 						_Fixnode = _Fixnodeparent;
; 1308 : 						}
; 1309 : 					else
; 1310 : 						{	// must rearrange right subtree
; 1311 : 						if (this->_Color(this->_Right(_Pnode))
; 1312 : 							== this->_Black)

  0016a	8b 48 08	 mov	 ecx, DWORD PTR [eax+8]
  0016d	80 79 24 01	 cmp	 BYTE PTR [ecx+36], 1
  00171	75 16		 jne	 SHORT $LN9@erase

; 1313 : 							{	// rotate red up from left sub-subtree
; 1314 : 							this->_Color(this->_Left(_Pnode)) = this->_Black;

  00173	8b 08		 mov	 ecx, DWORD PTR [eax]
  00175	c6 41 24 01	 mov	 BYTE PTR [ecx+36], 1

; 1315 : 							this->_Color(_Pnode) = this->_Red;
; 1316 : 							_Rrotate(_Pnode);

  00179	8b 4d fc	 mov	 ecx, DWORD PTR _this$[ebp]
  0017c	50		 push	 eax
  0017d	c6 40 24 00	 mov	 BYTE PTR [eax+36], 0
  00181	e8 00 00 00 00	 call	 ?_Rrotate@?$_Tree@V?$_Tmap_traits@VioHashString@@UDamageData@DamageTable@@U?$less@VioHashString@@@std@@V?$allocator@U?$pair@$$CBVioHashString@@UDamageData@DamageTable@@@std@@@5@$0A@@std@@@std@@IAEXPAU_Node@?$_Tree_nod@V?$_Tmap_traits@VioHashString@@UDamageData@DamageTable@@U?$less@VioHashString@@@std@@V?$allocator@U?$pair@$$CBVioHashString@@UDamageData@DamageTable@@@std@@@5@$0A@@std@@@2@@Z ; std::_Tree<std::_Tmap_traits<ioHashString,DamageTable::DamageData,std::less<ioHashString>,std::allocator<std::pair<ioHashString const ,DamageTable::DamageData> >,0> >::_Rrotate

; 1317 : 							_Pnode = this->_Right(_Fixnodeparent);

  00186	8b 46 08	 mov	 eax, DWORD PTR [esi+8]
$LN9@erase:

; 1318 : 							}
; 1319 : 
; 1320 : 						this->_Color(_Pnode) = this->_Color(_Fixnodeparent);

  00189	8a 4e 24	 mov	 cl, BYTE PTR [esi+36]
  0018c	88 48 24	 mov	 BYTE PTR [eax+36], cl

; 1321 : 						this->_Color(_Fixnodeparent) = this->_Black;
; 1322 : 						this->_Color(this->_Right(_Pnode)) = this->_Black;
; 1323 : 						_Lrotate(_Fixnodeparent);

  0018f	8b 4d fc	 mov	 ecx, DWORD PTR _this$[ebp]
  00192	c6 46 24 01	 mov	 BYTE PTR [esi+36], 1
  00196	8b 40 08	 mov	 eax, DWORD PTR [eax+8]
  00199	56		 push	 esi
  0019a	c6 40 24 01	 mov	 BYTE PTR [eax+36], 1
  0019e	e8 00 00 00 00	 call	 ?_Lrotate@?$_Tree@V?$_Tmap_traits@VioHashString@@UDamageData@DamageTable@@U?$less@VioHashString@@@std@@V?$allocator@U?$pair@$$CBVioHashString@@UDamageData@DamageTable@@@std@@@5@$0A@@std@@@std@@IAEXPAU_Node@?$_Tree_nod@V?$_Tmap_traits@VioHashString@@UDamageData@DamageTable@@U?$less@VioHashString@@@std@@V?$allocator@U?$pair@$$CBVioHashString@@UDamageData@DamageTable@@@std@@@5@$0A@@std@@@2@@Z ; std::_Tree<std::_Tmap_traits<ioHashString,DamageTable::DamageData,std::less<ioHashString>,std::allocator<std::pair<ioHashString const ,DamageTable::DamageData> >,0> >::_Lrotate

; 1324 : 						break;	// tree now recolored/rebalanced

  001a3	eb 7e		 jmp	 SHORT $LN16@erase
$LN15@erase:

; 1325 : 						}
; 1326 : 					}
; 1327 : 				else
; 1328 : 					{	// fixup right subtree
; 1329 : 					_Pnode = this->_Left(_Fixnodeparent);
; 1330 : 					if (this->_Color(_Pnode) == this->_Red)

  001a5	80 78 24 00	 cmp	 BYTE PTR [eax+36], 0
  001a9	75 10		 jne	 SHORT $LN7@erase

; 1331 : 						{	// rotate red up from left subtree
; 1332 : 						this->_Color(_Pnode) = this->_Black;

  001ab	c6 40 24 01	 mov	 BYTE PTR [eax+36], 1

; 1333 : 						this->_Color(_Fixnodeparent) = this->_Red;
; 1334 : 						_Rrotate(_Fixnodeparent);

  001af	56		 push	 esi
  001b0	c6 46 24 00	 mov	 BYTE PTR [esi+36], 0
  001b4	e8 00 00 00 00	 call	 ?_Rrotate@?$_Tree@V?$_Tmap_traits@VioHashString@@UDamageData@DamageTable@@U?$less@VioHashString@@@std@@V?$allocator@U?$pair@$$CBVioHashString@@UDamageData@DamageTable@@@std@@@5@$0A@@std@@@std@@IAEXPAU_Node@?$_Tree_nod@V?$_Tmap_traits@VioHashString@@UDamageData@DamageTable@@U?$less@VioHashString@@@std@@V?$allocator@U?$pair@$$CBVioHashString@@UDamageData@DamageTable@@@std@@@5@$0A@@std@@@2@@Z ; std::_Tree<std::_Tmap_traits<ioHashString,DamageTable::DamageData,std::less<ioHashString>,std::allocator<std::pair<ioHashString const ,DamageTable::DamageData> >,0> >::_Rrotate

; 1335 : 						_Pnode = this->_Left(_Fixnodeparent);

  001b9	8b 06		 mov	 eax, DWORD PTR [esi]
$LN7@erase:

; 1336 : 						}
; 1337 : 					if (this->_Isnil(_Pnode))

  001bb	80 78 25 00	 cmp	 BYTE PTR [eax+37], 0

; 1338 : 						_Fixnode = _Fixnodeparent;	// shouldn't happen
; 1339 : 					else if (this->_Color(this->_Right(_Pnode)) ==

  001bf	75 15		 jne	 SHORT $LN336@erase

; 1340 : 						this->_Black
; 1341 : 						&& this->_Color(this->_Left(_Pnode)) == this->_Black)

  001c1	8b 48 08	 mov	 ecx, DWORD PTR [eax+8]
  001c4	80 79 24 01	 cmp	 BYTE PTR [ecx+36], 1
  001c8	75 22		 jne	 SHORT $LN4@erase
  001ca	8b 08		 mov	 ecx, DWORD PTR [eax]
  001cc	80 79 24 01	 cmp	 BYTE PTR [ecx+36], 1
  001d0	75 1a		 jne	 SHORT $LN4@erase
$LN337@erase:

; 1342 : 						{	// redden left subtree with black children
; 1343 : 						this->_Color(_Pnode) = this->_Red;

  001d2	c6 40 24 00	 mov	 BYTE PTR [eax+36], 0
$LN336@erase:

; 1344 : 						_Fixnode = _Fixnodeparent;

  001d6	8b de		 mov	 ebx, esi
  001d8	8b 76 04	 mov	 esi, DWORD PTR [esi+4]
$LN335@erase:

; 1286 : 			{	// erasing black link, must recolor/rebalance tree
; 1287 : 			for (; _Fixnode != _Root()
; 1288 : 				&& this->_Color(_Fixnode) == this->_Black;
; 1289 : 				_Fixnodeparent = this->_Parent(_Fixnode))

  001db	8b 4d fc	 mov	 ecx, DWORD PTR _this$[ebp]
  001de	8b 41 04	 mov	 eax, DWORD PTR [ecx+4]
  001e1	3b 58 04	 cmp	 ebx, DWORD PTR [eax+4]
  001e4	0f 85 3f ff ff
	ff		 jne	 $LL18@erase
  001ea	eb 37		 jmp	 SHORT $LN16@erase
$LN4@erase:

; 1345 : 						}
; 1346 : 					else
; 1347 : 						{	// must rearrange left subtree
; 1348 : 						if (this->_Color(this->_Left(_Pnode)) == this->_Black)

  001ec	8b 08		 mov	 ecx, DWORD PTR [eax]
  001ee	80 79 24 01	 cmp	 BYTE PTR [ecx+36], 1
  001f2	75 16		 jne	 SHORT $LN2@erase

; 1349 : 							{	// rotate red up from right sub-subtree
; 1350 : 							this->_Color(this->_Right(_Pnode)) = this->_Black;

  001f4	8b 48 08	 mov	 ecx, DWORD PTR [eax+8]
  001f7	c6 41 24 01	 mov	 BYTE PTR [ecx+36], 1

; 1351 : 							this->_Color(_Pnode) = this->_Red;
; 1352 : 							_Lrotate(_Pnode);

  001fb	8b 4d fc	 mov	 ecx, DWORD PTR _this$[ebp]
  001fe	50		 push	 eax
  001ff	c6 40 24 00	 mov	 BYTE PTR [eax+36], 0
  00203	e8 00 00 00 00	 call	 ?_Lrotate@?$_Tree@V?$_Tmap_traits@VioHashString@@UDamageData@DamageTable@@U?$less@VioHashString@@@std@@V?$allocator@U?$pair@$$CBVioHashString@@UDamageData@DamageTable@@@std@@@5@$0A@@std@@@std@@IAEXPAU_Node@?$_Tree_nod@V?$_Tmap_traits@VioHashString@@UDamageData@DamageTable@@U?$less@VioHashString@@@std@@V?$allocator@U?$pair@$$CBVioHashString@@UDamageData@DamageTable@@@std@@@5@$0A@@std@@@2@@Z ; std::_Tree<std::_Tmap_traits<ioHashString,DamageTable::DamageData,std::less<ioHashString>,std::allocator<std::pair<ioHashString const ,DamageTable::DamageData> >,0> >::_Lrotate

; 1353 : 							_Pnode = this->_Left(_Fixnodeparent);

  00208	8b 06		 mov	 eax, DWORD PTR [esi]
$LN2@erase:

; 1354 : 							}
; 1355 : 
; 1356 : 						this->_Color(_Pnode) = this->_Color(_Fixnodeparent);

  0020a	8a 4e 24	 mov	 cl, BYTE PTR [esi+36]
  0020d	88 48 24	 mov	 BYTE PTR [eax+36], cl

; 1357 : 						this->_Color(_Fixnodeparent) = this->_Black;
; 1358 : 						this->_Color(this->_Left(_Pnode)) = this->_Black;
; 1359 : 						_Rrotate(_Fixnodeparent);

  00210	8b 4d fc	 mov	 ecx, DWORD PTR _this$[ebp]
  00213	c6 46 24 01	 mov	 BYTE PTR [esi+36], 1
  00217	8b 00		 mov	 eax, DWORD PTR [eax]
  00219	56		 push	 esi
  0021a	c6 40 24 01	 mov	 BYTE PTR [eax+36], 1
  0021e	e8 00 00 00 00	 call	 ?_Rrotate@?$_Tree@V?$_Tmap_traits@VioHashString@@UDamageData@DamageTable@@U?$less@VioHashString@@@std@@V?$allocator@U?$pair@$$CBVioHashString@@UDamageData@DamageTable@@@std@@@5@$0A@@std@@@std@@IAEXPAU_Node@?$_Tree_nod@V?$_Tmap_traits@VioHashString@@UDamageData@DamageTable@@U?$less@VioHashString@@@std@@V?$allocator@U?$pair@$$CBVioHashString@@UDamageData@DamageTable@@@std@@@5@$0A@@std@@@2@@Z ; std::_Tree<std::_Tmap_traits<ioHashString,DamageTable::DamageData,std::less<ioHashString>,std::allocator<std::pair<ioHashString const ,DamageTable::DamageData> >,0> >::_Rrotate
$LN16@erase:

; 1360 : 						break;	// tree now recolored/rebalanced
; 1361 : 						}
; 1362 : 					}
; 1363 : 
; 1364 : 			this->_Color(_Fixnode) = this->_Black;	// stopping node is black

  00223	c6 43 24 01	 mov	 BYTE PTR [ebx+36], 1
$LN19@erase:

; 1365 : 			}
; 1366 : 
; 1367 : 		_Dest_val(this->_Alval,
; 1368 : 			_STD addressof(this->_Myval(_Erasednode)));	// delete erased node

  00227	8d 4f 0c	 lea	 ecx, DWORD PTR [edi+12]
  0022a	ff 15 00 00 00
	00		 call	 DWORD PTR __imp_??1ioHashString@@QAE@XZ

; 1369 : 
; 1370 : 		this->_Alnod.deallocate(_Erasednode, 1);

  00230	57		 push	 edi
  00231	e8 00 00 00 00	 call	 ??3@YAXPAX@Z		; operator delete
  00236	59		 pop	 ecx

; 1371 : 
; 1372 : 		if (0 < this->_Mysize)

  00237	8b 4d fc	 mov	 ecx, DWORD PTR _this$[ebp]
  0023a	8b 41 08	 mov	 eax, DWORD PTR [ecx+8]
  0023d	5f		 pop	 edi
  0023e	5e		 pop	 esi
  0023f	5b		 pop	 ebx
  00240	85 c0		 test	 eax, eax
  00242	74 04		 je	 SHORT $LN1@erase

; 1373 : 			--this->_Mysize;

  00244	48		 dec	 eax
  00245	89 41 08	 mov	 DWORD PTR [ecx+8], eax
$LN1@erase:

; 1374 : 
; 1375 : 		return (iterator(_Where._Ptr, this));	// return successor iterator

  00248	8b 45 08	 mov	 eax, DWORD PTR ___$ReturnUdt$[ebp]
  0024b	8b 4d 0c	 mov	 ecx, DWORD PTR __Where$[ebp]
  0024e	89 08		 mov	 DWORD PTR [eax], ecx

; 1376 : 		}

  00250	c9		 leave
  00251	c2 08 00	 ret	 8
$LN331@erase:
?erase@?$_Tree@V?$_Tmap_traits@VioHashString@@UDamageData@DamageTable@@U?$less@VioHashString@@@std@@V?$allocator@U?$pair@$$CBVioHashString@@UDamageData@DamageTable@@@std@@@5@$0A@@std@@@std@@QAE?AV?$_Tree_iterator@V?$_Tree_val@V?$_Tmap_traits@VioHashString@@UDamageData@DamageTable@@U?$less@VioHashString@@@std@@V?$allocator@U?$pair@$$CBVioHashString@@UDamageData@DamageTable@@@std@@@5@$0A@@std@@@std@@@2@V?$_Tree_const_iterator@V?$_Tree_val@V?$_Tmap_traits@VioHashString@@UDamageData@DamageTable@@U?$less@VioHashString@@@std@@V?$allocator@U?$pair@$$CBVioHashString@@UDamageData@DamageTable@@@std@@@5@$0A@@std@@@std@@@2@@Z ENDP ; std::_Tree<std::_Tmap_traits<ioHashString,DamageTable::DamageData,std::less<ioHashString>,std::allocator<std::pair<ioHashString const ,DamageTable::DamageData> >,0> >::erase
_TEXT	ENDS
PUBLIC	?_Linsert@?$_Tree@V?$_Tmap_traits@VioHashString@@UDamageData@DamageTable@@U?$less@VioHashString@@@std@@V?$allocator@U?$pair@$$CBVioHashString@@UDamageData@DamageTable@@@std@@@5@$0A@@std@@@std@@QAE?AU?$pair@V?$_Tree_iterator@V?$_Tree_val@V?$_Tmap_traits@VioHashString@@UDamageData@DamageTable@@U?$less@VioHashString@@@std@@V?$allocator@U?$pair@$$CBVioHashString@@UDamageData@DamageTable@@@std@@@5@$0A@@std@@@std@@@std@@_N@2@PAU_Node@?$_Tree_nod@V?$_Tmap_traits@VioHashString@@UDamageData@DamageTable@@U?$less@VioHashString@@@std@@V?$allocator@U?$pair@$$CBVioHashString@@UDamageData@DamageTable@@@std@@@5@$0A@@std@@@2@_N@Z ; std::_Tree<std::_Tmap_traits<ioHashString,DamageTable::DamageData,std::less<ioHashString>,std::allocator<std::pair<ioHashString const ,DamageTable::DamageData> >,0> >::_Linsert
; Function compile flags: /Ogsp
;	COMDAT ?_Linsert@?$_Tree@V?$_Tmap_traits@VioHashString@@UDamageData@DamageTable@@U?$less@VioHashString@@@std@@V?$allocator@U?$pair@$$CBVioHashString@@UDamageData@DamageTable@@@std@@@5@$0A@@std@@@std@@QAE?AU?$pair@V?$_Tree_iterator@V?$_Tree_val@V?$_Tmap_traits@VioHashString@@UDamageData@DamageTable@@U?$less@VioHashString@@@std@@V?$allocator@U?$pair@$$CBVioHashString@@UDamageData@DamageTable@@@std@@@5@$0A@@std@@@std@@@std@@_N@2@PAU_Node@?$_Tree_nod@V?$_Tmap_traits@VioHashString@@UDamageData@DamageTable@@U?$less@VioHashString@@@std@@V?$allocator@U?$pair@$$CBVioHashString@@UDamageData@DamageTable@@@std@@@5@$0A@@std@@@2@_N@Z
_TEXT	SEGMENT
__Addleft$ = -8						; size = 1
__Wherenode$ = -4					; size = 4
___$ReturnUdt$ = 8					; size = 4
__Node$ = 12						; size = 4
$T509060 = 16						; size = 4
__Where$506021 = 16					; size = 4
__Leftish$ = 16						; size = 1
?_Linsert@?$_Tree@V?$_Tmap_traits@VioHashString@@UDamageData@DamageTable@@U?$less@VioHashString@@@std@@V?$allocator@U?$pair@$$CBVioHashString@@UDamageData@DamageTable@@@std@@@5@$0A@@std@@@std@@QAE?AU?$pair@V?$_Tree_iterator@V?$_Tree_val@V?$_Tmap_traits@VioHashString@@UDamageData@DamageTable@@U?$less@VioHashString@@@std@@V?$allocator@U?$pair@$$CBVioHashString@@UDamageData@DamageTable@@@std@@@5@$0A@@std@@@std@@@std@@_N@2@PAU_Node@?$_Tree_nod@V?$_Tmap_traits@VioHashString@@UDamageData@DamageTable@@U?$less@VioHashString@@@std@@V?$allocator@U?$pair@$$CBVioHashString@@UDamageData@DamageTable@@@std@@@5@$0A@@std@@@2@_N@Z PROC ; std::_Tree<std::_Tmap_traits<ioHashString,DamageTable::DamageData,std::less<ioHashString>,std::allocator<std::pair<ioHashString const ,DamageTable::DamageData> >,0> >::_Linsert, COMDAT
; _this$ = ecx

; 944  : 		{	// try to insert node at _Node, on left if _Leftish

  00000	55		 push	 ebp
  00001	8b ec		 mov	 ebp, esp
  00003	51		 push	 ecx
  00004	51		 push	 ecx
  00005	53		 push	 ebx

; 945  : 		const value_type& _Val = this->_Myval(_Node);

  00006	8b 5d 0c	 mov	 ebx, DWORD PTR __Node$[ebp]
  00009	56		 push	 esi
  0000a	57		 push	 edi
  0000b	8b f9		 mov	 edi, ecx

; 946  : 
; 947  : 		_Nodeptr _Trynode = _Root();

  0000d	8b 47 04	 mov	 eax, DWORD PTR [edi+4]
  00010	8b 70 04	 mov	 esi, DWORD PTR [eax+4]

; 948  : 		_Nodeptr _Wherenode = this->_Myhead;

  00013	89 45 fc	 mov	 DWORD PTR __Wherenode$[ebp], eax

; 949  : 		bool _Addleft = true;	// add to left of head if tree empty

  00016	b0 01		 mov	 al, 1
  00018	83 c3 0c	 add	 ebx, 12			; 0000000cH
  0001b	88 45 f8	 mov	 BYTE PTR __Addleft$[ebp], al
  0001e	eb 35		 jmp	 SHORT $LN160@Linsert
$LL12@Linsert:

; 951  : 			{	// look for leaf to insert before (_Addleft) or after
; 952  : 			_Wherenode = _Trynode;
; 953  : 			if (_Leftish)

  00020	80 7d 10 00	 cmp	 BYTE PTR __Leftish$[ebp], 0
  00024	89 75 fc	 mov	 DWORD PTR __Wherenode$[ebp], esi
  00027	74 12		 je	 SHORT $LN10@Linsert

; 954  : 				_Addleft = !_DEBUG_LT_PRED(this->comp,

  00029	53		 push	 ebx
  0002a	8d 4e 0c	 lea	 ecx, DWORD PTR [esi+12]
  0002d	ff 15 00 00 00
	00		 call	 DWORD PTR __imp_??MioHashString@@QBE_NABV0@@Z
  00033	f6 d8		 neg	 al
  00035	1a c0		 sbb	 al, al
  00037	fe c0		 inc	 al

; 955  : 					this->_Key(_Trynode),
; 956  : 					this->_Kfn(_Val));	// favor left end
; 957  : 			else

  00039	eb 0c		 jmp	 SHORT $LN161@Linsert
$LN10@Linsert:

; 958  : 				_Addleft = _DEBUG_LT_PRED(this->comp,

  0003b	8d 46 0c	 lea	 eax, DWORD PTR [esi+12]
  0003e	50		 push	 eax
  0003f	8b cb		 mov	 ecx, ebx
  00041	ff 15 00 00 00
	00		 call	 DWORD PTR __imp_??MioHashString@@QBE_NABV0@@Z
$LN161@Linsert:
  00047	88 45 f8	 mov	 BYTE PTR __Addleft$[ebp], al

; 959  : 					this->_Kfn(_Val),
; 960  : 					this->_Key(_Trynode));	// favor right end
; 961  : 			_Trynode = _Addleft ? this->_Left(_Trynode)
; 962  : 				: this->_Right(_Trynode);

  0004a	84 c0		 test	 al, al
  0004c	74 04		 je	 SHORT $LN15@Linsert
  0004e	8b 36		 mov	 esi, DWORD PTR [esi]
  00050	eb 03		 jmp	 SHORT $LN160@Linsert
$LN15@Linsert:
  00052	8b 76 08	 mov	 esi, DWORD PTR [esi+8]
$LN160@Linsert:

; 950  : 		while (!this->_Isnil(_Trynode))

  00055	80 7e 25 00	 cmp	 BYTE PTR [esi+37], 0
  00059	74 c5		 je	 SHORT $LL12@Linsert

; 963  : 			}
; 964  : 
; 965  : 		if (this->_Multi)
; 966  : 			return (_Pairib(_Insert(_Addleft, _Wherenode, _Node), true));
; 967  : 		else
; 968  : 			{	// insert only if unique
; 969  : 			iterator _Where = iterator(_Wherenode, this);

  0005b	8b 75 fc	 mov	 esi, DWORD PTR __Wherenode$[ebp]
  0005e	89 75 10	 mov	 DWORD PTR __Where$506021[ebp], esi

; 970  : 			if (!_Addleft)

  00061	84 c0		 test	 al, al
  00063	74 30		 je	 SHORT $LN99@Linsert

; 971  : 				;	// need to test if insert after is okay
; 972  : 			else if (_Where == begin())

  00065	8b 47 04	 mov	 eax, DWORD PTR [edi+4]
  00068	3b 30		 cmp	 esi, DWORD PTR [eax]
  0006a	75 1e		 jne	 SHORT $LN4@Linsert

; 973  : 				return (_Pairib(_Insert(true, _Wherenode, _Node), true));

  0006c	ff 75 0c	 push	 DWORD PTR __Node$[ebp]
  0006f	56		 push	 esi
  00070	6a 01		 push	 1
$LN162@Linsert:
  00072	8d 45 10	 lea	 eax, DWORD PTR $T509060[ebp]
  00075	50		 push	 eax
  00076	8b cf		 mov	 ecx, edi
  00078	e8 00 00 00 00	 call	 ?_Insert@?$_Tree@V?$_Tmap_traits@VioHashString@@UDamageData@DamageTable@@U?$less@VioHashString@@@std@@V?$allocator@U?$pair@$$CBVioHashString@@UDamageData@DamageTable@@@std@@@5@$0A@@std@@@std@@IAE?AV?$_Tree_iterator@V?$_Tree_val@V?$_Tmap_traits@VioHashString@@UDamageData@DamageTable@@U?$less@VioHashString@@@std@@V?$allocator@U?$pair@$$CBVioHashString@@UDamageData@DamageTable@@@std@@@5@$0A@@std@@@std@@@2@_NPAU_Node@?$_Tree_nod@V?$_Tmap_traits@VioHashString@@UDamageData@DamageTable@@U?$less@VioHashString@@@std@@V?$allocator@U?$pair@$$CBVioHashString@@UDamageData@DamageTable@@@std@@@5@$0A@@std@@@2@1@Z ; std::_Tree<std::_Tmap_traits<ioHashString,DamageTable::DamageData,std::less<ioHashString>,std::allocator<std::pair<ioHashString const ,DamageTable::DamageData> >,0> >::_Insert
  0007d	8b 08		 mov	 ecx, DWORD PTR [eax]
  0007f	8b 45 08	 mov	 eax, DWORD PTR ___$ReturnUdt$[ebp]
  00082	89 08		 mov	 DWORD PTR [eax], ecx
  00084	c6 40 04 01	 mov	 BYTE PTR [eax+4], 1
  00088	eb 3e		 jmp	 SHORT $LN1@Linsert
$LN4@Linsert:

; 974  : 			else
; 975  : 				--_Where;	// need to test if insert before is okay

  0008a	8d 4d 10	 lea	 ecx, DWORD PTR __Where$506021[ebp]
  0008d	e8 00 00 00 00	 call	 ??F?$_Tree_unchecked_const_iterator@V?$_Tree_val@V?$_Tmap_traits@VioHashString@@UDamageData@DamageTable@@U?$less@VioHashString@@@std@@V?$allocator@U?$pair@$$CBVioHashString@@UDamageData@DamageTable@@@std@@@5@$0A@@std@@@std@@U_Iterator_base0@2@@std@@QAEAAV01@XZ ; std::_Tree_unchecked_const_iterator<std::_Tree_val<std::_Tmap_traits<ioHashString,DamageTable::DamageData,std::less<ioHashString>,std::allocator<std::pair<ioHashString const ,DamageTable::DamageData> >,0> >,std::_Iterator_base0>::operator--
  00092	8b 75 10	 mov	 esi, DWORD PTR __Where$506021[ebp]
$LN99@Linsert:

; 976  : 
; 977  : 			if (_DEBUG_LT_PRED(this->comp,

  00095	53		 push	 ebx
  00096	8d 4e 0c	 lea	 ecx, DWORD PTR [esi+12]
  00099	ff 15 00 00 00
	00		 call	 DWORD PTR __imp_??MioHashString@@QBE_NABV0@@Z
  0009f	84 c0		 test	 al, al
  000a1	74 0b		 je	 SHORT $LN2@Linsert

; 978  : 				this->_Key(_Where._Mynode()),
; 979  : 				this->_Kfn(_Val)))
; 980  : 				return (_Pairib(_Insert(_Addleft, _Wherenode, _Node), true));

  000a3	ff 75 0c	 push	 DWORD PTR __Node$[ebp]
  000a6	ff 75 fc	 push	 DWORD PTR __Wherenode$[ebp]
  000a9	ff 75 f8	 push	 DWORD PTR __Addleft$[ebp]
  000ac	eb c4		 jmp	 SHORT $LN162@Linsert
$LN2@Linsert:

; 981  : 			else
; 982  : 				{	// duplicate, don't insert
; 983  : 				_Dest_val(this->_Alval,
; 984  : 					_STD addressof(this->_Myval(_Node)));

  000ae	8b cb		 mov	 ecx, ebx
  000b0	ff 15 00 00 00
	00		 call	 DWORD PTR __imp_??1ioHashString@@QAE@XZ

; 985  : 
; 986  : 				this->_Alnod.deallocate(_Node, 1);

  000b6	ff 75 0c	 push	 DWORD PTR __Node$[ebp]
  000b9	e8 00 00 00 00	 call	 ??3@YAXPAX@Z		; operator delete

; 987  : 
; 988  : 				return (_Pairib(_Where, false));

  000be	8b 45 08	 mov	 eax, DWORD PTR ___$ReturnUdt$[ebp]
  000c1	59		 pop	 ecx
  000c2	89 30		 mov	 DWORD PTR [eax], esi
  000c4	c6 40 04 00	 mov	 BYTE PTR [eax+4], 0
$LN1@Linsert:
  000c8	5f		 pop	 edi
  000c9	5e		 pop	 esi
  000ca	5b		 pop	 ebx

; 989  : 				}
; 990  : 			}
; 991  : 		}

  000cb	c9		 leave
  000cc	c2 0c 00	 ret	 12			; 0000000cH
?_Linsert@?$_Tree@V?$_Tmap_traits@VioHashString@@UDamageData@DamageTable@@U?$less@VioHashString@@@std@@V?$allocator@U?$pair@$$CBVioHashString@@UDamageData@DamageTable@@@std@@@5@$0A@@std@@@std@@QAE?AU?$pair@V?$_Tree_iterator@V?$_Tree_val@V?$_Tmap_traits@VioHashString@@UDamageData@DamageTable@@U?$less@VioHashString@@@std@@V?$allocator@U?$pair@$$CBVioHashString@@UDamageData@DamageTable@@@std@@@5@$0A@@std@@@std@@@std@@_N@2@PAU_Node@?$_Tree_nod@V?$_Tmap_traits@VioHashString@@UDamageData@DamageTable@@U?$less@VioHashString@@@std@@V?$allocator@U?$pair@$$CBVioHashString@@UDamageData@DamageTable@@@std@@@5@$0A@@std@@@2@_N@Z ENDP ; std::_Tree<std::_Tmap_traits<ioHashString,DamageTable::DamageData,std::less<ioHashString>,std::allocator<std::pair<ioHashString const ,DamageTable::DamageData> >,0> >::_Linsert
_TEXT	ENDS
PUBLIC	??$_Buynode@U?$pair@$$CBVioHashString@@UDamageData@DamageTable@@@std@@@?$_Tree_val@V?$_Tmap_traits@VioHashString@@UDamageData@DamageTable@@U?$less@VioHashString@@@std@@V?$allocator@U?$pair@$$CBVioHashString@@UDamageData@DamageTable@@@std@@@5@$0A@@std@@@std@@QAEPAU_Node@?$_Tree_nod@V?$_Tmap_traits@VioHashString@@UDamageData@DamageTable@@U?$less@VioHashString@@@std@@V?$allocator@U?$pair@$$CBVioHashString@@UDamageData@DamageTable@@@std@@@5@$0A@@std@@@1@$$QAU?$pair@$$CBVioHashString@@UDamageData@DamageTable@@@1@@Z ; std::_Tree_val<std::_Tmap_traits<ioHashString,DamageTable::DamageData,std::less<ioHashString>,std::allocator<std::pair<ioHashString const ,DamageTable::DamageData> >,0> >::_Buynode<std::pair<ioHashString const ,DamageTable::DamageData> >
EXTRN	__EH_prolog3_catch:PROC
;	COMDAT xdata$x
; File c:\program files (x86)\microsoft visual studio 10.0\vc\include\xmemory
xdata$x	SEGMENT
__catchsym$??$_Buynode@U?$pair@$$CBVioHashString@@UDamageData@DamageTable@@@std@@@?$_Tree_val@V?$_Tmap_traits@VioHashString@@UDamageData@DamageTable@@U?$less@VioHashString@@@std@@V?$allocator@U?$pair@$$CBVioHashString@@UDamageData@DamageTable@@@std@@@5@$0A@@std@@@std@@QAEPAU_Node@?$_Tree_nod@V?$_Tmap_traits@VioHashString@@UDamageData@DamageTable@@U?$less@VioHashString@@@std@@V?$allocator@U?$pair@$$CBVioHashString@@UDamageData@DamageTable@@@std@@@5@$0A@@std@@@1@$$QAU?$pair@$$CBVioHashString@@UDamageData@DamageTable@@@1@@Z$2 DD 040H
	DD	00H
	DD	00H
	DD	FLAT:__catch$??$_Buynode@U?$pair@$$CBVioHashString@@UDamageData@DamageTable@@@std@@@?$_Tree_val@V?$_Tmap_traits@VioHashString@@UDamageData@DamageTable@@U?$less@VioHashString@@@std@@V?$allocator@U?$pair@$$CBVioHashString@@UDamageData@DamageTable@@@std@@@5@$0A@@std@@@std@@QAEPAU_Node@?$_Tree_nod@V?$_Tmap_traits@VioHashString@@UDamageData@DamageTable@@U?$less@VioHashString@@@std@@V?$allocator@U?$pair@$$CBVioHashString@@UDamageData@DamageTable@@@std@@@5@$0A@@std@@@1@$$QAU?$pair@$$CBVioHashString@@UDamageData@DamageTable@@@1@@Z$0
__unwindtable$??$_Buynode@U?$pair@$$CBVioHashString@@UDamageData@DamageTable@@@std@@@?$_Tree_val@V?$_Tmap_traits@VioHashString@@UDamageData@DamageTable@@U?$less@VioHashString@@@std@@V?$allocator@U?$pair@$$CBVioHashString@@UDamageData@DamageTable@@@std@@@5@$0A@@std@@@std@@QAEPAU_Node@?$_Tree_nod@V?$_Tmap_traits@VioHashString@@UDamageData@DamageTable@@U?$less@VioHashString@@@std@@V?$allocator@U?$pair@$$CBVioHashString@@UDamageData@DamageTable@@@std@@@5@$0A@@std@@@1@$$QAU?$pair@$$CBVioHashString@@UDamageData@DamageTable@@@1@@Z DD 0ffffffffH
	DD	00H
	DD	0ffffffffH
	DD	00H
__tryblocktable$??$_Buynode@U?$pair@$$CBVioHashString@@UDamageData@DamageTable@@@std@@@?$_Tree_val@V?$_Tmap_traits@VioHashString@@UDamageData@DamageTable@@U?$less@VioHashString@@@std@@V?$allocator@U?$pair@$$CBVioHashString@@UDamageData@DamageTable@@@std@@@5@$0A@@std@@@std@@QAEPAU_Node@?$_Tree_nod@V?$_Tmap_traits@VioHashString@@UDamageData@DamageTable@@U?$less@VioHashString@@@std@@V?$allocator@U?$pair@$$CBVioHashString@@UDamageData@DamageTable@@@std@@@5@$0A@@std@@@1@$$QAU?$pair@$$CBVioHashString@@UDamageData@DamageTable@@@1@@Z DD 00H
	DD	00H
	DD	01H
	DD	01H
	DD	FLAT:__catchsym$??$_Buynode@U?$pair@$$CBVioHashString@@UDamageData@DamageTable@@@std@@@?$_Tree_val@V?$_Tmap_traits@VioHashString@@UDamageData@DamageTable@@U?$less@VioHashString@@@std@@V?$allocator@U?$pair@$$CBVioHashString@@UDamageData@DamageTable@@@std@@@5@$0A@@std@@@std@@QAEPAU_Node@?$_Tree_nod@V?$_Tmap_traits@VioHashString@@UDamageData@DamageTable@@U?$less@VioHashString@@@std@@V?$allocator@U?$pair@$$CBVioHashString@@UDamageData@DamageTable@@@std@@@5@$0A@@std@@@1@$$QAU?$pair@$$CBVioHashString@@UDamageData@DamageTable@@@1@@Z$2
__ehfuncinfo$??$_Buynode@U?$pair@$$CBVioHashString@@UDamageData@DamageTable@@@std@@@?$_Tree_val@V?$_Tmap_traits@VioHashString@@UDamageData@DamageTable@@U?$less@VioHashString@@@std@@V?$allocator@U?$pair@$$CBVioHashString@@UDamageData@DamageTable@@@std@@@5@$0A@@std@@@std@@QAEPAU_Node@?$_Tree_nod@V?$_Tmap_traits@VioHashString@@UDamageData@DamageTable@@U?$less@VioHashString@@@std@@V?$allocator@U?$pair@$$CBVioHashString@@UDamageData@DamageTable@@@std@@@5@$0A@@std@@@1@$$QAU?$pair@$$CBVioHashString@@UDamageData@DamageTable@@@1@@Z DD 019930522H
	DD	02H
	DD	FLAT:__unwindtable$??$_Buynode@U?$pair@$$CBVioHashString@@UDamageData@DamageTable@@@std@@@?$_Tree_val@V?$_Tmap_traits@VioHashString@@UDamageData@DamageTable@@U?$less@VioHashString@@@std@@V?$allocator@U?$pair@$$CBVioHashString@@UDamageData@DamageTable@@@std@@@5@$0A@@std@@@std@@QAEPAU_Node@?$_Tree_nod@V?$_Tmap_traits@VioHashString@@UDamageData@DamageTable@@U?$less@VioHashString@@@std@@V?$allocator@U?$pair@$$CBVioHashString@@UDamageData@DamageTable@@@std@@@5@$0A@@std@@@1@$$QAU?$pair@$$CBVioHashString@@UDamageData@DamageTable@@@1@@Z
	DD	01H
	DD	FLAT:__tryblocktable$??$_Buynode@U?$pair@$$CBVioHashString@@UDamageData@DamageTable@@@std@@@?$_Tree_val@V?$_Tmap_traits@VioHashString@@UDamageData@DamageTable@@U?$less@VioHashString@@@std@@V?$allocator@U?$pair@$$CBVioHashString@@UDamageData@DamageTable@@@std@@@5@$0A@@std@@@std@@QAEPAU_Node@?$_Tree_nod@V?$_Tmap_traits@VioHashString@@UDamageData@DamageTable@@U?$less@VioHashString@@@std@@V?$allocator@U?$pair@$$CBVioHashString@@UDamageData@DamageTable@@@std@@@5@$0A@@std@@@1@$$QAU?$pair@$$CBVioHashString@@UDamageData@DamageTable@@@1@@Z
	DD	2 DUP(00H)
	DD	00H
	DD	01H
; Function compile flags: /Ogsp
; File c:\program files (x86)\microsoft visual studio 10.0\vc\include\xtree
xdata$x	ENDS
;	COMDAT ??$_Buynode@U?$pair@$$CBVioHashString@@UDamageData@DamageTable@@@std@@@?$_Tree_val@V?$_Tmap_traits@VioHashString@@UDamageData@DamageTable@@U?$less@VioHashString@@@std@@V?$allocator@U?$pair@$$CBVioHashString@@UDamageData@DamageTable@@@std@@@5@$0A@@std@@@std@@QAEPAU_Node@?$_Tree_nod@V?$_Tmap_traits@VioHashString@@UDamageData@DamageTable@@U?$less@VioHashString@@@std@@V?$allocator@U?$pair@$$CBVioHashString@@UDamageData@DamageTable@@@std@@@5@$0A@@std@@@1@$$QAU?$pair@$$CBVioHashString@@UDamageData@DamageTable@@@1@@Z
_TEXT	SEGMENT
__Wherenode$ = -20					; size = 4
__$EHRec$ = -16						; size = 16
__Val$ = 8						; size = 4
??$_Buynode@U?$pair@$$CBVioHashString@@UDamageData@DamageTable@@@std@@@?$_Tree_val@V?$_Tmap_traits@VioHashString@@UDamageData@DamageTable@@U?$less@VioHashString@@@std@@V?$allocator@U?$pair@$$CBVioHashString@@UDamageData@DamageTable@@@std@@@5@$0A@@std@@@std@@QAEPAU_Node@?$_Tree_nod@V?$_Tmap_traits@VioHashString@@UDamageData@DamageTable@@U?$less@VioHashString@@@std@@V?$allocator@U?$pair@$$CBVioHashString@@UDamageData@DamageTable@@@std@@@5@$0A@@std@@@1@$$QAU?$pair@$$CBVioHashString@@UDamageData@DamageTable@@@1@@Z PROC ; std::_Tree_val<std::_Tmap_traits<ioHashString,DamageTable::DamageData,std::less<ioHashString>,std::allocator<std::pair<ioHashString const ,DamageTable::DamageData> >,0> >::_Buynode<std::pair<ioHashString const ,DamageTable::DamageData> >, COMDAT
; _this$ = ecx

; 586  : 		_Nodeptr _Buynode(_Valty&& _Val)

  00000	6a 08		 push	 8
  00002	b8 00 00 00 00	 mov	 eax, __ehhandler$??$_Buynode@U?$pair@$$CBVioHashString@@UDamageData@DamageTable@@@std@@@?$_Tree_val@V?$_Tmap_traits@VioHashString@@UDamageData@DamageTable@@U?$less@VioHashString@@@std@@V?$allocator@U?$pair@$$CBVioHashString@@UDamageData@DamageTable@@@std@@@5@$0A@@std@@@std@@QAEPAU_Node@?$_Tree_nod@V?$_Tmap_traits@VioHashString@@UDamageData@DamageTable@@U?$less@VioHashString@@@std@@V?$allocator@U?$pair@$$CBVioHashString@@UDamageData@DamageTable@@@std@@@5@$0A@@std@@@1@$$QAU?$pair@$$CBVioHashString@@UDamageData@DamageTable@@@1@@Z
  00007	e8 00 00 00 00	 call	 __EH_prolog3_catch
  0000c	8b f1		 mov	 esi, ecx

; 587  : 		{	// allocate a node with defaults
; 588  : 		_Nodeptr _Wherenode = _Buynode();

  0000e	e8 00 00 00 00	 call	 ?_Buynode@?$_Tree_val@V?$_Tmap_traits@VioHashString@@UDamageData@DamageTable@@U?$less@VioHashString@@@std@@V?$allocator@U?$pair@$$CBVioHashString@@UDamageData@DamageTable@@@std@@@5@$0A@@std@@@std@@QAEPAU_Node@?$_Tree_nod@V?$_Tmap_traits@VioHashString@@UDamageData@DamageTable@@U?$less@VioHashString@@@std@@V?$allocator@U?$pair@$$CBVioHashString@@UDamageData@DamageTable@@@std@@@5@$0A@@std@@@2@XZ ; std::_Tree_val<std::_Tmap_traits<ioHashString,DamageTable::DamageData,std::less<ioHashString>,std::allocator<std::pair<ioHashString const ,DamageTable::DamageData> >,0> >::_Buynode

; 589  : 
; 590  : 		_TRY_BEGIN
; 591  : 		_Cons_val(this->_Alval, _STD addressof(this->_Myval(_Wherenode)),
; 592  : 			_STD forward<_Valty>(_Val));

  00013	ff 75 08	 push	 DWORD PTR __Val$[ebp]
  00016	83 65 fc 00	 and	 DWORD PTR __$EHRec$[ebp+12], 0
  0001a	8b f8		 mov	 edi, eax
  0001c	8d 47 0c	 lea	 eax, DWORD PTR [edi+12]
  0001f	50		 push	 eax
  00020	8d 4e 0d	 lea	 ecx, DWORD PTR [esi+13]
  00023	89 7d ec	 mov	 DWORD PTR __Wherenode$[ebp], edi
  00026	e8 00 00 00 00	 call	 ?construct@?$allocator@U?$pair@$$CBVioHashString@@UDamageData@DamageTable@@@std@@@std@@QAEXPAU?$pair@$$CBVioHashString@@UDamageData@DamageTable@@@2@$$QAU32@@Z ; std::allocator<std::pair<ioHashString const ,DamageTable::DamageData> >::construct

; 596  : 		_CATCH_END
; 597  : 
; 598  : 		return (_Wherenode);

  0002b	8b c7		 mov	 eax, edi

; 599  : 		}

  0002d	e8 00 00 00 00	 call	 __EH_epilog3
  00032	c2 04 00	 ret	 4
__catch$??$_Buynode@U?$pair@$$CBVioHashString@@UDamageData@DamageTable@@@std@@@?$_Tree_val@V?$_Tmap_traits@VioHashString@@UDamageData@DamageTable@@U?$less@VioHashString@@@std@@V?$allocator@U?$pair@$$CBVioHashString@@UDamageData@DamageTable@@@std@@@5@$0A@@std@@@std@@QAEPAU_Node@?$_Tree_nod@V?$_Tmap_traits@VioHashString@@UDamageData@DamageTable@@U?$less@VioHashString@@@std@@V?$allocator@U?$pair@$$CBVioHashString@@UDamageData@DamageTable@@@std@@@5@$0A@@std@@@1@$$QAU?$pair@$$CBVioHashString@@UDamageData@DamageTable@@@1@@Z$0:

; 593  : 		_CATCH_ALL
; 594  : 		this->_Alnod.deallocate(_Wherenode, 1);

  00035	ff 75 ec	 push	 DWORD PTR __Wherenode$[ebp]
  00038	e8 00 00 00 00	 call	 ??3@YAXPAX@Z		; operator delete
  0003d	59		 pop	 ecx

; 595  : 		_RERAISE;

  0003e	6a 00		 push	 0
  00040	6a 00		 push	 0
  00042	e8 00 00 00 00	 call	 __CxxThrowException@8
$LN23@Buynode@2:
$LN22@Buynode@2:
  00047	cc		 int	 3
_TEXT	ENDS
;	COMDAT text$x
text$x	SEGMENT
__ehhandler$??$_Buynode@U?$pair@$$CBVioHashString@@UDamageData@DamageTable@@@std@@@?$_Tree_val@V?$_Tmap_traits@VioHashString@@UDamageData@DamageTable@@U?$less@VioHashString@@@std@@V?$allocator@U?$pair@$$CBVioHashString@@UDamageData@DamageTable@@@std@@@5@$0A@@std@@@std@@QAEPAU_Node@?$_Tree_nod@V?$_Tmap_traits@VioHashString@@UDamageData@DamageTable@@U?$less@VioHashString@@@std@@V?$allocator@U?$pair@$$CBVioHashString@@UDamageData@DamageTable@@@std@@@5@$0A@@std@@@1@$$QAU?$pair@$$CBVioHashString@@UDamageData@DamageTable@@@1@@Z:
  00000	8b 54 24 08	 mov	 edx, DWORD PTR [esp+8]
  00004	8d 42 0c	 lea	 eax, DWORD PTR [edx+12]
  00007	8b 4a e8	 mov	 ecx, DWORD PTR [edx-24]
  0000a	33 c8		 xor	 ecx, eax
  0000c	e8 00 00 00 00	 call	 @__security_check_cookie@4
  00011	b8 00 00 00 00	 mov	 eax, OFFSET __ehfuncinfo$??$_Buynode@U?$pair@$$CBVioHashString@@UDamageData@DamageTable@@@std@@@?$_Tree_val@V?$_Tmap_traits@VioHashString@@UDamageData@DamageTable@@U?$less@VioHashString@@@std@@V?$allocator@U?$pair@$$CBVioHashString@@UDamageData@DamageTable@@@std@@@5@$0A@@std@@@std@@QAEPAU_Node@?$_Tree_nod@V?$_Tmap_traits@VioHashString@@UDamageData@DamageTable@@U?$less@VioHashString@@@std@@V?$allocator@U?$pair@$$CBVioHashString@@UDamageData@DamageTable@@@std@@@5@$0A@@std@@@1@$$QAU?$pair@$$CBVioHashString@@UDamageData@DamageTable@@@1@@Z
  00016	e9 00 00 00 00	 jmp	 ___CxxFrameHandler3
text$x	ENDS
??$_Buynode@U?$pair@$$CBVioHashString@@UDamageData@DamageTable@@@std@@@?$_Tree_val@V?$_Tmap_traits@VioHashString@@UDamageData@DamageTable@@U?$less@VioHashString@@@std@@V?$allocator@U?$pair@$$CBVioHashString@@UDamageData@DamageTable@@@std@@@5@$0A@@std@@@std@@QAEPAU_Node@?$_Tree_nod@V?$_Tmap_traits@VioHashString@@UDamageData@DamageTable@@U?$less@VioHashString@@@std@@V?$allocator@U?$pair@$$CBVioHashString@@UDamageData@DamageTable@@@std@@@5@$0A@@std@@@1@$$QAU?$pair@$$CBVioHashString@@UDamageData@DamageTable@@@1@@Z ENDP ; std::_Tree_val<std::_Tmap_traits<ioHashString,DamageTable::DamageData,std::less<ioHashString>,std::allocator<std::pair<ioHashString const ,DamageTable::DamageData> >,0> >::_Buynode<std::pair<ioHashString const ,DamageTable::DamageData> >
PUBLIC	?GetAllDamage@DamageTable@@QAEHABVioHashString@@@Z ; DamageTable::GetAllDamage
; Function compile flags: /Ogsp
; File d:\lost saga for developer\youtube\tutorial\source\src\lsclient\damagetable.cpp
;	COMDAT ?GetAllDamage@DamageTable@@QAEHABVioHashString@@@Z
_TEXT	SEGMENT
_iter$ = 8						; size = 4
_rkAttacker$ = 8					; size = 4
?GetAllDamage@DamageTable@@QAEHABVioHashString@@@Z PROC	; DamageTable::GetAllDamage, COMDAT
; _this$ = ecx

; 94   : {

  00000	55		 push	 ebp
  00001	8b ec		 mov	 ebp, esp
  00003	56		 push	 esi

; 95   : 	DamageTableMap::iterator iter = m_DamageTable.find( rkAttacker );

  00004	ff 75 08	 push	 DWORD PTR _rkAttacker$[ebp]
  00007	8d 45 08	 lea	 eax, DWORD PTR _iter$[ebp]
  0000a	50		 push	 eax
  0000b	8b f1		 mov	 esi, ecx
  0000d	e8 00 00 00 00	 call	 ?find@?$_Tree@V?$_Tmap_traits@VioHashString@@UDamageData@DamageTable@@U?$less@VioHashString@@@std@@V?$allocator@U?$pair@$$CBVioHashString@@UDamageData@DamageTable@@@std@@@5@$0A@@std@@@std@@QAE?AV?$_Tree_iterator@V?$_Tree_val@V?$_Tmap_traits@VioHashString@@UDamageData@DamageTable@@U?$less@VioHashString@@@std@@V?$allocator@U?$pair@$$CBVioHashString@@UDamageData@DamageTable@@@std@@@5@$0A@@std@@@std@@@2@ABVioHashString@@@Z ; std::_Tree<std::_Tmap_traits<ioHashString,DamageTable::DamageData,std::less<ioHashString>,std::allocator<std::pair<ioHashString const ,DamageTable::DamageData> >,0> >::find

; 96   : 	if( iter == m_DamageTable.end() )

  00012	8b 4d 08	 mov	 ecx, DWORD PTR _iter$[ebp]
  00015	3b 4e 04	 cmp	 ecx, DWORD PTR [esi+4]
  00018	5e		 pop	 esi
  00019	75 04		 jne	 SHORT $LN1@GetAllDama@2

; 97   : 		return 0;

  0001b	33 c0		 xor	 eax, eax
  0001d	eb 06		 jmp	 SHORT $LN2@GetAllDama@2
$LN1@GetAllDama@2:

; 98   : 
; 99   : 	DamageData &rkData = iter->second;	
; 100  : 	return rkData.m_iCurDamage + rkData.m_iPrevDamage;

  0001f	8b 41 20	 mov	 eax, DWORD PTR [ecx+32]
  00022	03 41 1c	 add	 eax, DWORD PTR [ecx+28]
$LN2@GetAllDama@2:

; 101  : }

  00025	5d		 pop	 ebp
  00026	c2 04 00	 ret	 4
?GetAllDamage@DamageTable@@QAEHABVioHashString@@@Z ENDP	; DamageTable::GetAllDamage
_TEXT	ENDS
PUBLIC	?AttachAllDamage@DamageTable@@QAEXABVioHashString@@@Z ; DamageTable::AttachAllDamage
; Function compile flags: /Ogsp
;	COMDAT ?AttachAllDamage@DamageTable@@QAEXABVioHashString@@@Z
_TEXT	SEGMENT
_iter$ = 8						; size = 4
_rkName$ = 8						; size = 4
?AttachAllDamage@DamageTable@@QAEXABVioHashString@@@Z PROC ; DamageTable::AttachAllDamage, COMDAT
; _this$ = ecx

; 104  : {

  00000	55		 push	 ebp
  00001	8b ec		 mov	 ebp, esp
  00003	56		 push	 esi

; 105  : 	DamageTableMap::iterator iter = m_DamageTable.find( rkName );

  00004	ff 75 08	 push	 DWORD PTR _rkName$[ebp]
  00007	8d 45 08	 lea	 eax, DWORD PTR _iter$[ebp]
  0000a	50		 push	 eax
  0000b	8b f1		 mov	 esi, ecx
  0000d	e8 00 00 00 00	 call	 ?find@?$_Tree@V?$_Tmap_traits@VioHashString@@UDamageData@DamageTable@@U?$less@VioHashString@@@std@@V?$allocator@U?$pair@$$CBVioHashString@@UDamageData@DamageTable@@@std@@@5@$0A@@std@@@std@@QAE?AV?$_Tree_iterator@V?$_Tree_val@V?$_Tmap_traits@VioHashString@@UDamageData@DamageTable@@U?$less@VioHashString@@@std@@V?$allocator@U?$pair@$$CBVioHashString@@UDamageData@DamageTable@@@std@@@5@$0A@@std@@@std@@@2@ABVioHashString@@@Z ; std::_Tree<std::_Tmap_traits<ioHashString,DamageTable::DamageData,std::less<ioHashString>,std::allocator<std::pair<ioHashString const ,DamageTable::DamageData> >,0> >::find

; 106  : 	if( iter != m_DamageTable.end() )

  00012	8b 45 08	 mov	 eax, DWORD PTR _iter$[ebp]
  00015	3b 46 04	 cmp	 eax, DWORD PTR [esi+4]
  00018	5e		 pop	 esi
  00019	74 0a		 je	 SHORT $LN1@AttachAllD@2

; 107  : 	{
; 108  : 		DamageData &rkData = iter->second;
; 109  : 		rkData.m_iPrevDamage += rkData.m_iCurDamage;

  0001b	8b 48 20	 mov	 ecx, DWORD PTR [eax+32]
  0001e	01 48 1c	 add	 DWORD PTR [eax+28], ecx

; 110  : 		rkData.m_iCurDamage   = 0;

  00021	83 60 20 00	 and	 DWORD PTR [eax+32], 0
$LN1@AttachAllD@2:

; 111  : 	}
; 112  : }

  00025	5d		 pop	 ebp
  00026	c2 04 00	 ret	 4
?AttachAllDamage@DamageTable@@QAEXABVioHashString@@@Z ENDP ; DamageTable::AttachAllDamage
_TEXT	ENDS
PUBLIC	?clear@?$_Tree@V?$_Tmap_traits@VioHashString@@UDamageData@DamageTable@@U?$less@VioHashString@@@std@@V?$allocator@U?$pair@$$CBVioHashString@@UDamageData@DamageTable@@@std@@@5@$0A@@std@@@std@@QAEXXZ ; std::_Tree<std::_Tmap_traits<ioHashString,DamageTable::DamageData,std::less<ioHashString>,std::allocator<std::pair<ioHashString const ,DamageTable::DamageData> >,0> >::clear
; Function compile flags: /Ogsp
; File c:\program files (x86)\microsoft visual studio 10.0\vc\include\xtree
;	COMDAT ?clear@?$_Tree@V?$_Tmap_traits@VioHashString@@UDamageData@DamageTable@@U?$less@VioHashString@@@std@@V?$allocator@U?$pair@$$CBVioHashString@@UDamageData@DamageTable@@@std@@@5@$0A@@std@@@std@@QAEXXZ
_TEXT	SEGMENT
?clear@?$_Tree@V?$_Tmap_traits@VioHashString@@UDamageData@DamageTable@@U?$less@VioHashString@@@std@@V?$allocator@U?$pair@$$CBVioHashString@@UDamageData@DamageTable@@@std@@@5@$0A@@std@@@std@@QAEXXZ PROC ; std::_Tree<std::_Tmap_traits<ioHashString,DamageTable::DamageData,std::less<ioHashString>,std::allocator<std::pair<ioHashString const ,DamageTable::DamageData> >,0> >::clear, COMDAT
; _this$ = ecx

; 1410 : 		{	// erase all

  00000	56		 push	 esi
  00001	57		 push	 edi
  00002	8b f9		 mov	 edi, ecx

; 1411 :  #if _ITERATOR_DEBUG_LEVEL == 2
; 1412 : 		this->_Orphan_ptr(*this, 0);
; 1413 :  #endif /* _ITERATOR_DEBUG_LEVEL == 2 */
; 1414 : 
; 1415 : 		_Erase(_Root());

  00004	8b 47 04	 mov	 eax, DWORD PTR [edi+4]
  00007	ff 70 04	 push	 DWORD PTR [eax+4]
  0000a	e8 00 00 00 00	 call	 ?_Erase@?$_Tree@V?$_Tmap_traits@VioHashString@@UDamageData@DamageTable@@U?$less@VioHashString@@@std@@V?$allocator@U?$pair@$$CBVioHashString@@UDamageData@DamageTable@@@std@@@5@$0A@@std@@@std@@IAEXPAU_Node@?$_Tree_nod@V?$_Tmap_traits@VioHashString@@UDamageData@DamageTable@@U?$less@VioHashString@@@std@@V?$allocator@U?$pair@$$CBVioHashString@@UDamageData@DamageTable@@@std@@@5@$0A@@std@@@2@@Z ; std::_Tree<std::_Tmap_traits<ioHashString,DamageTable::DamageData,std::less<ioHashString>,std::allocator<std::pair<ioHashString const ,DamageTable::DamageData> >,0> >::_Erase

; 1416 : 		_Root() = this->_Myhead;

  0000f	8b 47 04	 mov	 eax, DWORD PTR [edi+4]
  00012	89 40 04	 mov	 DWORD PTR [eax+4], eax

; 1417 : 		_Lmost() = this->_Myhead;

  00015	8b 47 04	 mov	 eax, DWORD PTR [edi+4]
  00018	89 00		 mov	 DWORD PTR [eax], eax

; 1418 : 		_Rmost() = this->_Myhead;

  0001a	8b 77 04	 mov	 esi, DWORD PTR [edi+4]
  0001d	89 76 08	 mov	 DWORD PTR [esi+8], esi

; 1419 : 		this->_Mysize = 0;

  00020	83 67 08 00	 and	 DWORD PTR [edi+8], 0
  00024	5f		 pop	 edi
  00025	5e		 pop	 esi

; 1420 : 		}

  00026	c3		 ret	 0
?clear@?$_Tree@V?$_Tmap_traits@VioHashString@@UDamageData@DamageTable@@U?$less@VioHashString@@@std@@V?$allocator@U?$pair@$$CBVioHashString@@UDamageData@DamageTable@@@std@@@5@$0A@@std@@@std@@QAEXXZ ENDP ; std::_Tree<std::_Tmap_traits<ioHashString,DamageTable::DamageData,std::less<ioHashString>,std::allocator<std::pair<ioHashString const ,DamageTable::DamageData> >,0> >::clear
_TEXT	ENDS
PUBLIC	?erase@?$_Tree@V?$_Tmap_traits@VioHashString@@UDamageData@DamageTable@@U?$less@VioHashString@@@std@@V?$allocator@U?$pair@$$CBVioHashString@@UDamageData@DamageTable@@@std@@@5@$0A@@std@@@std@@QAE?AV?$_Tree_iterator@V?$_Tree_val@V?$_Tmap_traits@VioHashString@@UDamageData@DamageTable@@U?$less@VioHashString@@@std@@V?$allocator@U?$pair@$$CBVioHashString@@UDamageData@DamageTable@@@std@@@5@$0A@@std@@@std@@@2@V?$_Tree_const_iterator@V?$_Tree_val@V?$_Tmap_traits@VioHashString@@UDamageData@DamageTable@@U?$less@VioHashString@@@std@@V?$allocator@U?$pair@$$CBVioHashString@@UDamageData@DamageTable@@@std@@@5@$0A@@std@@@std@@@2@0@Z ; std::_Tree<std::_Tmap_traits<ioHashString,DamageTable::DamageData,std::less<ioHashString>,std::allocator<std::pair<ioHashString const ,DamageTable::DamageData> >,0> >::erase
; Function compile flags: /Ogsp
;	COMDAT ?erase@?$_Tree@V?$_Tmap_traits@VioHashString@@UDamageData@DamageTable@@U?$less@VioHashString@@@std@@V?$allocator@U?$pair@$$CBVioHashString@@UDamageData@DamageTable@@@std@@@5@$0A@@std@@@std@@QAE?AV?$_Tree_iterator@V?$_Tree_val@V?$_Tmap_traits@VioHashString@@UDamageData@DamageTable@@U?$less@VioHashString@@@std@@V?$allocator@U?$pair@$$CBVioHashString@@UDamageData@DamageTable@@@std@@@5@$0A@@std@@@std@@@2@V?$_Tree_const_iterator@V?$_Tree_val@V?$_Tmap_traits@VioHashString@@UDamageData@DamageTable@@U?$less@VioHashString@@@std@@V?$allocator@U?$pair@$$CBVioHashString@@UDamageData@DamageTable@@@std@@@5@$0A@@std@@@std@@@2@0@Z
_TEXT	SEGMENT
$T509645 = -4						; size = 4
___$ReturnUdt$ = 8					; size = 4
__First$ = 12						; size = 4
__Last$ = 16						; size = 4
?erase@?$_Tree@V?$_Tmap_traits@VioHashString@@UDamageData@DamageTable@@U?$less@VioHashString@@@std@@V?$allocator@U?$pair@$$CBVioHashString@@UDamageData@DamageTable@@@std@@@5@$0A@@std@@@std@@QAE?AV?$_Tree_iterator@V?$_Tree_val@V?$_Tmap_traits@VioHashString@@UDamageData@DamageTable@@U?$less@VioHashString@@@std@@V?$allocator@U?$pair@$$CBVioHashString@@UDamageData@DamageTable@@@std@@@5@$0A@@std@@@std@@@2@V?$_Tree_const_iterator@V?$_Tree_val@V?$_Tmap_traits@VioHashString@@UDamageData@DamageTable@@U?$less@VioHashString@@@std@@V?$allocator@U?$pair@$$CBVioHashString@@UDamageData@DamageTable@@@std@@@5@$0A@@std@@@std@@@2@0@Z PROC ; std::_Tree<std::_Tmap_traits<ioHashString,DamageTable::DamageData,std::less<ioHashString>,std::allocator<std::pair<ioHashString const ,DamageTable::DamageData> >,0> >::erase, COMDAT
; _this$ = ecx

; 1379 : 		{	// erase [_First, _Last)

  00000	55		 push	 ebp
  00001	8b ec		 mov	 ebp, esp
  00003	51		 push	 ecx
  00004	56		 push	 esi
  00005	8b f1		 mov	 esi, ecx

; 1380 : 		if (_First == begin() && _Last == end())

  00007	8b 46 04	 mov	 eax, DWORD PTR [esi+4]
  0000a	8b 4d 0c	 mov	 ecx, DWORD PTR __First$[ebp]
  0000d	3b 08		 cmp	 ecx, DWORD PTR [eax]
  0000f	75 13		 jne	 SHORT $LN65@erase@2
  00011	39 45 10	 cmp	 DWORD PTR __Last$[ebp], eax
  00014	75 0e		 jne	 SHORT $LN65@erase@2

; 1381 : 			{	// erase all
; 1382 : 			clear();

  00016	8b ce		 mov	 ecx, esi
  00018	e8 00 00 00 00	 call	 ?clear@?$_Tree@V?$_Tmap_traits@VioHashString@@UDamageData@DamageTable@@U?$less@VioHashString@@@std@@V?$allocator@U?$pair@$$CBVioHashString@@UDamageData@DamageTable@@@std@@@5@$0A@@std@@@std@@QAEXXZ ; std::_Tree<std::_Tmap_traits<ioHashString,DamageTable::DamageData,std::less<ioHashString>,std::allocator<std::pair<ioHashString const ,DamageTable::DamageData> >,0> >::clear

; 1383 : 			return (begin());

  0001d	8b 46 04	 mov	 eax, DWORD PTR [esi+4]
  00020	8b 08		 mov	 ecx, DWORD PTR [eax]
  00022	eb 25		 jmp	 SHORT $LN1@erase@2
$LN65@erase@2:

; 1384 : 			}
; 1385 : 		else
; 1386 : 			{	// partial erase, one at a time
; 1387 : 			while (_First != _Last)

  00024	3b 4d 10	 cmp	 ecx, DWORD PTR __Last$[ebp]
  00027	74 20		 je	 SHORT $LN1@erase@2
  00029	57		 push	 edi
$LL2@erase@2:

; 1388 : 				erase(_First++);

  0002a	8b f9		 mov	 edi, ecx
  0002c	8d 4d 0c	 lea	 ecx, DWORD PTR __First$[ebp]
  0002f	e8 00 00 00 00	 call	 ??E?$_Tree_unchecked_const_iterator@V?$_Tree_val@V?$_Tmap_traits@VioHashString@@UDamageData@DamageTable@@U?$less@VioHashString@@@std@@V?$allocator@U?$pair@$$CBVioHashString@@UDamageData@DamageTable@@@std@@@5@$0A@@std@@@std@@U_Iterator_base0@2@@std@@QAEAAV01@XZ ; std::_Tree_unchecked_const_iterator<std::_Tree_val<std::_Tmap_traits<ioHashString,DamageTable::DamageData,std::less<ioHashString>,std::allocator<std::pair<ioHashString const ,DamageTable::DamageData> >,0> >,std::_Iterator_base0>::operator++
  00034	57		 push	 edi
  00035	8d 45 fc	 lea	 eax, DWORD PTR $T509645[ebp]
  00038	50		 push	 eax
  00039	8b ce		 mov	 ecx, esi
  0003b	e8 00 00 00 00	 call	 ?erase@?$_Tree@V?$_Tmap_traits@VioHashString@@UDamageData@DamageTable@@U?$less@VioHashString@@@std@@V?$allocator@U?$pair@$$CBVioHashString@@UDamageData@DamageTable@@@std@@@5@$0A@@std@@@std@@QAE?AV?$_Tree_iterator@V?$_Tree_val@V?$_Tmap_traits@VioHashString@@UDamageData@DamageTable@@U?$less@VioHashString@@@std@@V?$allocator@U?$pair@$$CBVioHashString@@UDamageData@DamageTable@@@std@@@5@$0A@@std@@@std@@@2@V?$_Tree_const_iterator@V?$_Tree_val@V?$_Tmap_traits@VioHashString@@UDamageData@DamageTable@@U?$less@VioHashString@@@std@@V?$allocator@U?$pair@$$CBVioHashString@@UDamageData@DamageTable@@@std@@@5@$0A@@std@@@std@@@2@@Z ; std::_Tree<std::_Tmap_traits<ioHashString,DamageTable::DamageData,std::less<ioHashString>,std::allocator<std::pair<ioHashString const ,DamageTable::DamageData> >,0> >::erase
  00040	8b 4d 0c	 mov	 ecx, DWORD PTR __First$[ebp]
  00043	3b 4d 10	 cmp	 ecx, DWORD PTR __Last$[ebp]
  00046	75 e2		 jne	 SHORT $LL2@erase@2
  00048	5f		 pop	 edi
$LN1@erase@2:

; 1389 : 			return (iterator(_First._Ptr, this));

  00049	8b 45 08	 mov	 eax, DWORD PTR ___$ReturnUdt$[ebp]
  0004c	89 08		 mov	 DWORD PTR [eax], ecx
  0004e	5e		 pop	 esi

; 1390 : 			}
; 1391 : 		}

  0004f	c9		 leave
  00050	c2 0c 00	 ret	 12			; 0000000cH
?erase@?$_Tree@V?$_Tmap_traits@VioHashString@@UDamageData@DamageTable@@U?$less@VioHashString@@@std@@V?$allocator@U?$pair@$$CBVioHashString@@UDamageData@DamageTable@@@std@@@5@$0A@@std@@@std@@QAE?AV?$_Tree_iterator@V?$_Tree_val@V?$_Tmap_traits@VioHashString@@UDamageData@DamageTable@@U?$less@VioHashString@@@std@@V?$allocator@U?$pair@$$CBVioHashString@@UDamageData@DamageTable@@@std@@@5@$0A@@std@@@std@@@2@V?$_Tree_const_iterator@V?$_Tree_val@V?$_Tmap_traits@VioHashString@@UDamageData@DamageTable@@U?$less@VioHashString@@@std@@V?$allocator@U?$pair@$$CBVioHashString@@UDamageData@DamageTable@@@std@@@5@$0A@@std@@@std@@@2@0@Z ENDP ; std::_Tree<std::_Tmap_traits<ioHashString,DamageTable::DamageData,std::less<ioHashString>,std::allocator<std::pair<ioHashString const ,DamageTable::DamageData> >,0> >::erase
_TEXT	ENDS
PUBLIC	??$insert@U?$pair@$$CBVioHashString@@UDamageData@DamageTable@@@std@@@?$_Tree@V?$_Tmap_traits@VioHashString@@UDamageData@DamageTable@@U?$less@VioHashString@@@std@@V?$allocator@U?$pair@$$CBVioHashString@@UDamageData@DamageTable@@@std@@@5@$0A@@std@@@std@@QAE?AU?$pair@V?$_Tree_iterator@V?$_Tree_val@V?$_Tmap_traits@VioHashString@@UDamageData@DamageTable@@U?$less@VioHashString@@@std@@V?$allocator@U?$pair@$$CBVioHashString@@UDamageData@DamageTable@@@std@@@5@$0A@@std@@@std@@@std@@_N@1@$$QAU?$pair@$$CBVioHashString@@UDamageData@DamageTable@@@1@@Z ; std::_Tree<std::_Tmap_traits<ioHashString,DamageTable::DamageData,std::less<ioHashString>,std::allocator<std::pair<ioHashString const ,DamageTable::DamageData> >,0> >::insert<std::pair<ioHashString const ,DamageTable::DamageData> >
; Function compile flags: /Ogsp
;	COMDAT ??$insert@U?$pair@$$CBVioHashString@@UDamageData@DamageTable@@@std@@@?$_Tree@V?$_Tmap_traits@VioHashString@@UDamageData@DamageTable@@U?$less@VioHashString@@@std@@V?$allocator@U?$pair@$$CBVioHashString@@UDamageData@DamageTable@@@std@@@5@$0A@@std@@@std@@QAE?AU?$pair@V?$_Tree_iterator@V?$_Tree_val@V?$_Tmap_traits@VioHashString@@UDamageData@DamageTable@@U?$less@VioHashString@@@std@@V?$allocator@U?$pair@$$CBVioHashString@@UDamageData@DamageTable@@@std@@@5@$0A@@std@@@std@@@std@@_N@1@$$QAU?$pair@$$CBVioHashString@@UDamageData@DamageTable@@@1@@Z
_TEXT	SEGMENT
___$ReturnUdt$ = 8					; size = 4
__Val$ = 12						; size = 4
??$insert@U?$pair@$$CBVioHashString@@UDamageData@DamageTable@@@std@@@?$_Tree@V?$_Tmap_traits@VioHashString@@UDamageData@DamageTable@@U?$less@VioHashString@@@std@@V?$allocator@U?$pair@$$CBVioHashString@@UDamageData@DamageTable@@@std@@@5@$0A@@std@@@std@@QAE?AU?$pair@V?$_Tree_iterator@V?$_Tree_val@V?$_Tmap_traits@VioHashString@@UDamageData@DamageTable@@U?$less@VioHashString@@@std@@V?$allocator@U?$pair@$$CBVioHashString@@UDamageData@DamageTable@@@std@@@5@$0A@@std@@@std@@@std@@_N@1@$$QAU?$pair@$$CBVioHashString@@UDamageData@DamageTable@@@1@@Z PROC ; std::_Tree<std::_Tmap_traits<ioHashString,DamageTable::DamageData,std::less<ioHashString>,std::allocator<std::pair<ioHashString const ,DamageTable::DamageData> >,0> >::insert<std::pair<ioHashString const ,DamageTable::DamageData> >, COMDAT
; _this$ = ecx

; 753  : 		_Pairib insert(_Valty&& _Val)

  00000	55		 push	 ebp
  00001	8b ec		 mov	 ebp, esp
  00003	56		 push	 esi

; 754  : 		{	// try to insert node with value _Val, favoring right side
; 755  : 		return (_Linsert(this->_Buynode(_STD forward<_Valty>(_Val)),
; 756  : 			false));

  00004	6a 00		 push	 0
  00006	ff 75 0c	 push	 DWORD PTR __Val$[ebp]
  00009	8b f1		 mov	 esi, ecx
  0000b	e8 00 00 00 00	 call	 ??$_Buynode@U?$pair@$$CBVioHashString@@UDamageData@DamageTable@@@std@@@?$_Tree_val@V?$_Tmap_traits@VioHashString@@UDamageData@DamageTable@@U?$less@VioHashString@@@std@@V?$allocator@U?$pair@$$CBVioHashString@@UDamageData@DamageTable@@@std@@@5@$0A@@std@@@std@@QAEPAU_Node@?$_Tree_nod@V?$_Tmap_traits@VioHashString@@UDamageData@DamageTable@@U?$less@VioHashString@@@std@@V?$allocator@U?$pair@$$CBVioHashString@@UDamageData@DamageTable@@@std@@@5@$0A@@std@@@1@$$QAU?$pair@$$CBVioHashString@@UDamageData@DamageTable@@@1@@Z ; std::_Tree_val<std::_Tmap_traits<ioHashString,DamageTable::DamageData,std::less<ioHashString>,std::allocator<std::pair<ioHashString const ,DamageTable::DamageData> >,0> >::_Buynode<std::pair<ioHashString const ,DamageTable::DamageData> >
  00010	50		 push	 eax
  00011	ff 75 08	 push	 DWORD PTR ___$ReturnUdt$[ebp]
  00014	8b ce		 mov	 ecx, esi
  00016	e8 00 00 00 00	 call	 ?_Linsert@?$_Tree@V?$_Tmap_traits@VioHashString@@UDamageData@DamageTable@@U?$less@VioHashString@@@std@@V?$allocator@U?$pair@$$CBVioHashString@@UDamageData@DamageTable@@@std@@@5@$0A@@std@@@std@@QAE?AU?$pair@V?$_Tree_iterator@V?$_Tree_val@V?$_Tmap_traits@VioHashString@@UDamageData@DamageTable@@U?$less@VioHashString@@@std@@V?$allocator@U?$pair@$$CBVioHashString@@UDamageData@DamageTable@@@std@@@5@$0A@@std@@@std@@@std@@_N@2@PAU_Node@?$_Tree_nod@V?$_Tmap_traits@VioHashString@@UDamageData@DamageTable@@U?$less@VioHashString@@@std@@V?$allocator@U?$pair@$$CBVioHashString@@UDamageData@DamageTable@@@std@@@5@$0A@@std@@@2@_N@Z ; std::_Tree<std::_Tmap_traits<ioHashString,DamageTable::DamageData,std::less<ioHashString>,std::allocator<std::pair<ioHashString const ,DamageTable::DamageData> >,0> >::_Linsert
  0001b	8b 45 08	 mov	 eax, DWORD PTR ___$ReturnUdt$[ebp]
  0001e	5e		 pop	 esi

; 757  : 		}

  0001f	5d		 pop	 ebp
  00020	c2 08 00	 ret	 8
??$insert@U?$pair@$$CBVioHashString@@UDamageData@DamageTable@@@std@@@?$_Tree@V?$_Tmap_traits@VioHashString@@UDamageData@DamageTable@@U?$less@VioHashString@@@std@@V?$allocator@U?$pair@$$CBVioHashString@@UDamageData@DamageTable@@@std@@@5@$0A@@std@@@std@@QAE?AU?$pair@V?$_Tree_iterator@V?$_Tree_val@V?$_Tmap_traits@VioHashString@@UDamageData@DamageTable@@U?$less@VioHashString@@@std@@V?$allocator@U?$pair@$$CBVioHashString@@UDamageData@DamageTable@@@std@@@5@$0A@@std@@@std@@@std@@_N@1@$$QAU?$pair@$$CBVioHashString@@UDamageData@DamageTable@@@1@@Z ENDP ; std::_Tree<std::_Tmap_traits<ioHashString,DamageTable::DamageData,std::less<ioHashString>,std::allocator<std::pair<ioHashString const ,DamageTable::DamageData> >,0> >::insert<std::pair<ioHashString const ,DamageTable::DamageData> >
_TEXT	ENDS
PUBLIC	?AddDamage@DamageTable@@QAEXABVioHashString@@H@Z ; DamageTable::AddDamage
EXTRN	__imp_?IsEmpty@ioHashString@@QBE_NXZ:PROC
;	COMDAT xdata$x
; File d:\lost saga for developer\youtube\tutorial\source\src\lsclient\damagetable.cpp
xdata$x	SEGMENT
__unwindtable$?AddDamage@DamageTable@@QAEXABVioHashString@@H@Z DD 0ffffffffH
	DD	FLAT:__unwindfunclet$?AddDamage@DamageTable@@QAEXABVioHashString@@H@Z$0
__ehfuncinfo$?AddDamage@DamageTable@@QAEXABVioHashString@@H@Z DD 019930522H
	DD	01H
	DD	FLAT:__unwindtable$?AddDamage@DamageTable@@QAEXABVioHashString@@H@Z
	DD	2 DUP(00H)
	DD	2 DUP(00H)
	DD	00H
	DD	01H
; Function compile flags: /Ogsp
xdata$x	ENDS
;	COMDAT ?AddDamage@DamageTable@@QAEXABVioHashString@@H@Z
_TEXT	SEGMENT
$T509838 = -44						; size = 24
$T509839 = -20						; size = 8
__$EHRec$ = -12						; size = 12
_rkAttacker$ = 8					; size = 4
_iter$ = 12						; size = 4
_iDamage$ = 12						; size = 4
?AddDamage@DamageTable@@QAEXABVioHashString@@H@Z PROC	; DamageTable::AddDamage, COMDAT
; _this$ = ecx

; 16   : {

  00000	6a 20		 push	 32			; 00000020H
  00002	b8 00 00 00 00	 mov	 eax, __ehhandler$?AddDamage@DamageTable@@QAEXABVioHashString@@H@Z
  00007	e8 00 00 00 00	 call	 __EH_prolog3
  0000c	8b f1		 mov	 esi, ecx

; 17   : 	if( rkAttacker.IsEmpty() || iDamage <= 0 )

  0000e	8b 4d 08	 mov	 ecx, DWORD PTR _rkAttacker$[ebp]
  00011	ff 15 00 00 00
	00		 call	 DWORD PTR __imp_?IsEmpty@ioHashString@@QBE_NXZ
  00017	84 c0		 test	 al, al
  00019	75 5e		 jne	 SHORT $LN3@AddDamage
  0001b	8b 5d 0c	 mov	 ebx, DWORD PTR _iDamage$[ebp]
  0001e	85 db		 test	 ebx, ebx
  00020	7e 57		 jle	 SHORT $LN3@AddDamage

; 18   : 		return;
; 19   : 
; 20   : 	DamageTableMap::iterator iter = m_DamageTable.find( rkAttacker );

  00022	ff 75 08	 push	 DWORD PTR _rkAttacker$[ebp]
  00025	8d 45 0c	 lea	 eax, DWORD PTR _iter$[ebp]
  00028	50		 push	 eax
  00029	8b ce		 mov	 ecx, esi
  0002b	e8 00 00 00 00	 call	 ?find@?$_Tree@V?$_Tmap_traits@VioHashString@@UDamageData@DamageTable@@U?$less@VioHashString@@@std@@V?$allocator@U?$pair@$$CBVioHashString@@UDamageData@DamageTable@@@std@@@5@$0A@@std@@@std@@QAE?AV?$_Tree_iterator@V?$_Tree_val@V?$_Tmap_traits@VioHashString@@UDamageData@DamageTable@@U?$less@VioHashString@@@std@@V?$allocator@U?$pair@$$CBVioHashString@@UDamageData@DamageTable@@@std@@@5@$0A@@std@@@std@@@2@ABVioHashString@@@Z ; std::_Tree<std::_Tmap_traits<ioHashString,DamageTable::DamageData,std::less<ioHashString>,std::allocator<std::pair<ioHashString const ,DamageTable::DamageData> >,0> >::find

; 21   : 	if( iter != m_DamageTable.end() )

  00030	8b 4d 0c	 mov	 ecx, DWORD PTR _iter$[ebp]
  00033	3b 4e 04	 cmp	 ecx, DWORD PTR [esi+4]
  00036	74 05		 je	 SHORT $LN2@AddDamage

; 22   : 	{
; 23   : 		DamageData &rkData = iter->second;
; 24   : 		rkData.m_iCurDamage += iDamage;

  00038	01 59 20	 add	 DWORD PTR [ecx+32], ebx

; 25   : 	}
; 26   : 	else

  0003b	eb 3c		 jmp	 SHORT $LN3@AddDamage
$LN2@AddDamage:

; 27   : 	{
; 28   : 		DamageData kData;
; 29   : 		kData.m_iCurDamage = iDamage;
; 30   : 		m_DamageTable.insert( DamageTableMap::value_type( rkAttacker, kData ) );

  0003d	ff 75 08	 push	 DWORD PTR _rkAttacker$[ebp]
  00040	8d 4d d4	 lea	 ecx, DWORD PTR $T509838[ebp]
  00043	33 ff		 xor	 edi, edi
  00045	ff 15 00 00 00
	00		 call	 DWORD PTR __imp_??0ioHashString@@QAE@ABV0@@Z
  0004b	89 7d e4	 mov	 DWORD PTR $T509838[ebp+16], edi
  0004e	89 5d e8	 mov	 DWORD PTR $T509838[ebp+20], ebx
  00051	21 7d fc	 and	 DWORD PTR __$EHRec$[ebp+8], edi
  00054	57		 push	 edi
  00055	8d 45 d4	 lea	 eax, DWORD PTR $T509838[ebp]
  00058	50		 push	 eax
  00059	8b ce		 mov	 ecx, esi
  0005b	e8 00 00 00 00	 call	 ??$_Buynode@U?$pair@$$CBVioHashString@@UDamageData@DamageTable@@@std@@@?$_Tree_val@V?$_Tmap_traits@VioHashString@@UDamageData@DamageTable@@U?$less@VioHashString@@@std@@V?$allocator@U?$pair@$$CBVioHashString@@UDamageData@DamageTable@@@std@@@5@$0A@@std@@@std@@QAEPAU_Node@?$_Tree_nod@V?$_Tmap_traits@VioHashString@@UDamageData@DamageTable@@U?$less@VioHashString@@@std@@V?$allocator@U?$pair@$$CBVioHashString@@UDamageData@DamageTable@@@std@@@5@$0A@@std@@@1@$$QAU?$pair@$$CBVioHashString@@UDamageData@DamageTable@@@1@@Z ; std::_Tree_val<std::_Tmap_traits<ioHashString,DamageTable::DamageData,std::less<ioHashString>,std::allocator<std::pair<ioHashString const ,DamageTable::DamageData> >,0> >::_Buynode<std::pair<ioHashString const ,DamageTable::DamageData> >
  00060	50		 push	 eax
  00061	8d 45 ec	 lea	 eax, DWORD PTR $T509839[ebp]
  00064	50		 push	 eax
  00065	8b ce		 mov	 ecx, esi
  00067	e8 00 00 00 00	 call	 ?_Linsert@?$_Tree@V?$_Tmap_traits@VioHashString@@UDamageData@DamageTable@@U?$less@VioHashString@@@std@@V?$allocator@U?$pair@$$CBVioHashString@@UDamageData@DamageTable@@@std@@@5@$0A@@std@@@std@@QAE?AU?$pair@V?$_Tree_iterator@V?$_Tree_val@V?$_Tmap_traits@VioHashString@@UDamageData@DamageTable@@U?$less@VioHashString@@@std@@V?$allocator@U?$pair@$$CBVioHashString@@UDamageData@DamageTable@@@std@@@5@$0A@@std@@@std@@@std@@_N@2@PAU_Node@?$_Tree_nod@V?$_Tmap_traits@VioHashString@@UDamageData@DamageTable@@U?$less@VioHashString@@@std@@V?$allocator@U?$pair@$$CBVioHashString@@UDamageData@DamageTable@@@std@@@5@$0A@@std@@@2@_N@Z ; std::_Tree<std::_Tmap_traits<ioHashString,DamageTable::DamageData,std::less<ioHashString>,std::allocator<std::pair<ioHashString const ,DamageTable::DamageData> >,0> >::_Linsert
  0006c	83 4d fc ff	 or	 DWORD PTR __$EHRec$[ebp+8], -1
  00070	8d 4d d4	 lea	 ecx, DWORD PTR $T509838[ebp]
  00073	ff 15 00 00 00
	00		 call	 DWORD PTR __imp_??1ioHashString@@QAE@XZ
$LN3@AddDamage:

; 31   : 	}
; 32   : }

  00079	e8 00 00 00 00	 call	 __EH_epilog3
  0007e	c2 08 00	 ret	 8
_TEXT	ENDS
;	COMDAT text$x
text$x	SEGMENT
__unwindfunclet$?AddDamage@DamageTable@@QAEXABVioHashString@@H@Z$0:
  00000	8d 4d d4	 lea	 ecx, DWORD PTR $T509838[ebp]
  00003	e9 00 00 00 00	 jmp	 ??1?$pair@$$CBVioHashString@@UDamageData@DamageTable@@@std@@QAE@XZ
__ehhandler$?AddDamage@DamageTable@@QAEXABVioHashString@@H@Z:
  00008	8b 54 24 08	 mov	 edx, DWORD PTR [esp+8]
  0000c	8d 42 0c	 lea	 eax, DWORD PTR [edx+12]
  0000f	8b 4a d0	 mov	 ecx, DWORD PTR [edx-48]
  00012	33 c8		 xor	 ecx, eax
  00014	e8 00 00 00 00	 call	 @__security_check_cookie@4
  00019	b8 00 00 00 00	 mov	 eax, OFFSET __ehfuncinfo$?AddDamage@DamageTable@@QAEXABVioHashString@@H@Z
  0001e	e9 00 00 00 00	 jmp	 ___CxxFrameHandler3
text$x	ENDS
?AddDamage@DamageTable@@QAEXABVioHashString@@H@Z ENDP	; DamageTable::AddDamage
PUBLIC	?ClearTable@DamageTable@@QAEXXZ			; DamageTable::ClearTable
; Function compile flags: /Ogsp
;	COMDAT ?ClearTable@DamageTable@@QAEXXZ
_TEXT	SEGMENT
?ClearTable@DamageTable@@QAEXXZ PROC			; DamageTable::ClearTable, COMDAT
; _this$ = ecx

; 36   : 	m_DamageTable.clear();

  00000	e9 00 00 00 00	 jmp	 ?clear@?$_Tree@V?$_Tmap_traits@VioHashString@@UDamageData@DamageTable@@U?$less@VioHashString@@@std@@V?$allocator@U?$pair@$$CBVioHashString@@UDamageData@DamageTable@@@std@@@5@$0A@@std@@@std@@QAEXXZ ; std::_Tree<std::_Tmap_traits<ioHashString,DamageTable::DamageData,std::less<ioHashString>,std::allocator<std::pair<ioHashString const ,DamageTable::DamageData> >,0> >::clear
?ClearTable@DamageTable@@QAEXXZ ENDP			; DamageTable::ClearTable
_TEXT	ENDS
PUBLIC	?_Tidy@?$_Tree@V?$_Tmap_traits@VioHashString@@UDamageData@DamageTable@@U?$less@VioHashString@@@std@@V?$allocator@U?$pair@$$CBVioHashString@@UDamageData@DamageTable@@@std@@@5@$0A@@std@@@std@@IAEXXZ ; std::_Tree<std::_Tmap_traits<ioHashString,DamageTable::DamageData,std::less<ioHashString>,std::allocator<std::pair<ioHashString const ,DamageTable::DamageData> >,0> >::_Tidy
; Function compile flags: /Ogsp
; File c:\program files (x86)\microsoft visual studio 10.0\vc\include\xtree
;	COMDAT ?_Tidy@?$_Tree@V?$_Tmap_traits@VioHashString@@UDamageData@DamageTable@@U?$less@VioHashString@@@std@@V?$allocator@U?$pair@$$CBVioHashString@@UDamageData@DamageTable@@@std@@@5@$0A@@std@@@std@@IAEXXZ
_TEXT	SEGMENT
$T509981 = -4						; size = 4
?_Tidy@?$_Tree@V?$_Tmap_traits@VioHashString@@UDamageData@DamageTable@@U?$less@VioHashString@@@std@@V?$allocator@U?$pair@$$CBVioHashString@@UDamageData@DamageTable@@@std@@@5@$0A@@std@@@std@@IAEXXZ PROC ; std::_Tree<std::_Tmap_traits<ioHashString,DamageTable::DamageData,std::less<ioHashString>,std::allocator<std::pair<ioHashString const ,DamageTable::DamageData> >,0> >::_Tidy, COMDAT
; _this$ = ecx

; 1865 : 		{	// free all storage

  00000	55		 push	 ebp
  00001	8b ec		 mov	 ebp, esp
  00003	51		 push	 ecx

; 1866 : 		erase(begin(), end());

  00004	8b 41 04	 mov	 eax, DWORD PTR [ecx+4]
  00007	8b 10		 mov	 edx, DWORD PTR [eax]
  00009	50		 push	 eax
  0000a	52		 push	 edx
  0000b	8d 45 fc	 lea	 eax, DWORD PTR $T509981[ebp]
  0000e	50		 push	 eax
  0000f	e8 00 00 00 00	 call	 ?erase@?$_Tree@V?$_Tmap_traits@VioHashString@@UDamageData@DamageTable@@U?$less@VioHashString@@@std@@V?$allocator@U?$pair@$$CBVioHashString@@UDamageData@DamageTable@@@std@@@5@$0A@@std@@@std@@QAE?AV?$_Tree_iterator@V?$_Tree_val@V?$_Tmap_traits@VioHashString@@UDamageData@DamageTable@@U?$less@VioHashString@@@std@@V?$allocator@U?$pair@$$CBVioHashString@@UDamageData@DamageTable@@@std@@@5@$0A@@std@@@std@@@2@V?$_Tree_const_iterator@V?$_Tree_val@V?$_Tmap_traits@VioHashString@@UDamageData@DamageTable@@U?$less@VioHashString@@@std@@V?$allocator@U?$pair@$$CBVioHashString@@UDamageData@DamageTable@@@std@@@5@$0A@@std@@@std@@@2@0@Z ; std::_Tree<std::_Tmap_traits<ioHashString,DamageTable::DamageData,std::less<ioHashString>,std::allocator<std::pair<ioHashString const ,DamageTable::DamageData> >,0> >::erase

; 1867 : 		}

  00014	c9		 leave
  00015	c3		 ret	 0
?_Tidy@?$_Tree@V?$_Tmap_traits@VioHashString@@UDamageData@DamageTable@@U?$less@VioHashString@@@std@@V?$allocator@U?$pair@$$CBVioHashString@@UDamageData@DamageTable@@@std@@@5@$0A@@std@@@std@@IAEXXZ ENDP ; std::_Tree<std::_Tmap_traits<ioHashString,DamageTable::DamageData,std::less<ioHashString>,std::allocator<std::pair<ioHashString const ,DamageTable::DamageData> >,0> >::_Tidy
_TEXT	ENDS
PUBLIC	??1?$_Tree@V?$_Tmap_traits@VioHashString@@UDamageData@DamageTable@@U?$less@VioHashString@@@std@@V?$allocator@U?$pair@$$CBVioHashString@@UDamageData@DamageTable@@@std@@@5@$0A@@std@@@std@@QAE@XZ ; std::_Tree<std::_Tmap_traits<ioHashString,DamageTable::DamageData,std::less<ioHashString>,std::allocator<std::pair<ioHashString const ,DamageTable::DamageData> >,0> >::~_Tree<std::_Tmap_traits<ioHashString,DamageTable::DamageData,std::less<ioHashString>,std::allocator<std::pair<ioHashString const ,DamageTable::DamageData> >,0> >
;	COMDAT xdata$x
; File c:\program files (x86)\microsoft visual studio 10.0\vc\include\xmemory
xdata$x	SEGMENT
__unwindtable$??1?$_Tree@V?$_Tmap_traits@VioHashString@@UDamageData@DamageTable@@U?$less@VioHashString@@@std@@V?$allocator@U?$pair@$$CBVioHashString@@UDamageData@DamageTable@@@std@@@5@$0A@@std@@@std@@QAE@XZ DD 0ffffffffH
	DD	FLAT:__unwindfunclet$??1?$_Tree@V?$_Tmap_traits@VioHashString@@UDamageData@DamageTable@@U?$less@VioHashString@@@std@@V?$allocator@U?$pair@$$CBVioHashString@@UDamageData@DamageTable@@@std@@@5@$0A@@std@@@std@@QAE@XZ$0
__ehfuncinfo$??1?$_Tree@V?$_Tmap_traits@VioHashString@@UDamageData@DamageTable@@U?$less@VioHashString@@@std@@V?$allocator@U?$pair@$$CBVioHashString@@UDamageData@DamageTable@@@std@@@5@$0A@@std@@@std@@QAE@XZ DD 019930522H
	DD	01H
	DD	FLAT:__unwindtable$??1?$_Tree@V?$_Tmap_traits@VioHashString@@UDamageData@DamageTable@@U?$less@VioHashString@@@std@@V?$allocator@U?$pair@$$CBVioHashString@@UDamageData@DamageTable@@@std@@@5@$0A@@std@@@std@@QAE@XZ
	DD	2 DUP(00H)
	DD	2 DUP(00H)
	DD	00H
	DD	01H
; Function compile flags: /Ogsp
; File c:\program files (x86)\microsoft visual studio 10.0\vc\include\xtree
xdata$x	ENDS
;	COMDAT ??1?$_Tree@V?$_Tmap_traits@VioHashString@@UDamageData@DamageTable@@U?$less@VioHashString@@@std@@V?$allocator@U?$pair@$$CBVioHashString@@UDamageData@DamageTable@@@std@@@5@$0A@@std@@@std@@QAE@XZ
_TEXT	SEGMENT
$T510166 = -20						; size = 4
_this$ = -16						; size = 4
__$EHRec$ = -12						; size = 12
??1?$_Tree@V?$_Tmap_traits@VioHashString@@UDamageData@DamageTable@@U?$less@VioHashString@@@std@@V?$allocator@U?$pair@$$CBVioHashString@@UDamageData@DamageTable@@@std@@@5@$0A@@std@@@std@@QAE@XZ PROC ; std::_Tree<std::_Tmap_traits<ioHashString,DamageTable::DamageData,std::less<ioHashString>,std::allocator<std::pair<ioHashString const ,DamageTable::DamageData> >,0> >::~_Tree<std::_Tmap_traits<ioHashString,DamageTable::DamageData,std::less<ioHashString>,std::allocator<std::pair<ioHashString const ,DamageTable::DamageData> >,0> >, COMDAT
; _this$ = ecx

; 790  : 		{	// destroy tree

  00000	6a 08		 push	 8
  00002	b8 00 00 00 00	 mov	 eax, __ehhandler$??1?$_Tree@V?$_Tmap_traits@VioHashString@@UDamageData@DamageTable@@U?$less@VioHashString@@@std@@V?$allocator@U?$pair@$$CBVioHashString@@UDamageData@DamageTable@@@std@@@5@$0A@@std@@@std@@QAE@XZ
  00007	e8 00 00 00 00	 call	 __EH_prolog3
  0000c	8b f1		 mov	 esi, ecx
  0000e	89 75 f0	 mov	 DWORD PTR _this$[ebp], esi

; 791  : 		_Tidy();

  00011	8b 46 04	 mov	 eax, DWORD PTR [esi+4]
  00014	8b 08		 mov	 ecx, DWORD PTR [eax]
  00016	83 65 fc 00	 and	 DWORD PTR __$EHRec$[ebp+8], 0
  0001a	50		 push	 eax
  0001b	51		 push	 ecx
  0001c	8d 45 ec	 lea	 eax, DWORD PTR $T510166[ebp]
  0001f	50		 push	 eax
  00020	8b ce		 mov	 ecx, esi
  00022	e8 00 00 00 00	 call	 ?erase@?$_Tree@V?$_Tmap_traits@VioHashString@@UDamageData@DamageTable@@U?$less@VioHashString@@@std@@V?$allocator@U?$pair@$$CBVioHashString@@UDamageData@DamageTable@@@std@@@5@$0A@@std@@@std@@QAE?AV?$_Tree_iterator@V?$_Tree_val@V?$_Tmap_traits@VioHashString@@UDamageData@DamageTable@@U?$less@VioHashString@@@std@@V?$allocator@U?$pair@$$CBVioHashString@@UDamageData@DamageTable@@@std@@@5@$0A@@std@@@std@@@2@V?$_Tree_const_iterator@V?$_Tree_val@V?$_Tmap_traits@VioHashString@@UDamageData@DamageTable@@U?$less@VioHashString@@@std@@V?$allocator@U?$pair@$$CBVioHashString@@UDamageData@DamageTable@@@std@@@5@$0A@@std@@@std@@@2@0@Z ; std::_Tree<std::_Tmap_traits<ioHashString,DamageTable::DamageData,std::less<ioHashString>,std::allocator<std::pair<ioHashString const ,DamageTable::DamageData> >,0> >::erase

; 792  : 		}

  00027	ff 76 04	 push	 DWORD PTR [esi+4]
  0002a	e8 00 00 00 00	 call	 ??3@YAXPAX@Z		; operator delete
  0002f	59		 pop	 ecx
  00030	e8 00 00 00 00	 call	 __EH_epilog3
  00035	c3		 ret	 0
_TEXT	ENDS
;	COMDAT text$x
text$x	SEGMENT
__unwindfunclet$??1?$_Tree@V?$_Tmap_traits@VioHashString@@UDamageData@DamageTable@@U?$less@VioHashString@@@std@@V?$allocator@U?$pair@$$CBVioHashString@@UDamageData@DamageTable@@@std@@@5@$0A@@std@@@std@@QAE@XZ$0:
  00000	8b 4d f0	 mov	 ecx, DWORD PTR _this$[ebp]
  00003	e9 00 00 00 00	 jmp	 ??1?$_Tree_val@V?$_Tmap_traits@VioHashString@@UDamageData@DamageTable@@U?$less@VioHashString@@@std@@V?$allocator@U?$pair@$$CBVioHashString@@UDamageData@DamageTable@@@std@@@5@$0A@@std@@@std@@QAE@XZ ; std::_Tree_val<std::_Tmap_traits<ioHashString,DamageTable::DamageData,std::less<ioHashString>,std::allocator<std::pair<ioHashString const ,DamageTable::DamageData> >,0> >::~_Tree_val<std::_Tmap_traits<ioHashString,DamageTable::DamageData,std::less<ioHashString>,std::allocator<std::pair<ioHashString const ,DamageTable::DamageData> >,0> >
__ehhandler$??1?$_Tree@V?$_Tmap_traits@VioHashString@@UDamageData@DamageTable@@U?$less@VioHashString@@@std@@V?$allocator@U?$pair@$$CBVioHashString@@UDamageData@DamageTable@@@std@@@5@$0A@@std@@@std@@QAE@XZ:
  00008	8b 54 24 08	 mov	 edx, DWORD PTR [esp+8]
  0000c	8d 42 0c	 lea	 eax, DWORD PTR [edx+12]
  0000f	8b 4a e8	 mov	 ecx, DWORD PTR [edx-24]
  00012	33 c8		 xor	 ecx, eax
  00014	e8 00 00 00 00	 call	 @__security_check_cookie@4
  00019	b8 00 00 00 00	 mov	 eax, OFFSET __ehfuncinfo$??1?$_Tree@V?$_Tmap_traits@VioHashString@@UDamageData@DamageTable@@U?$less@VioHashString@@@std@@V?$allocator@U?$pair@$$CBVioHashString@@UDamageData@DamageTable@@@std@@@5@$0A@@std@@@std@@QAE@XZ
  0001e	e9 00 00 00 00	 jmp	 ___CxxFrameHandler3
text$x	ENDS
??1?$_Tree@V?$_Tmap_traits@VioHashString@@UDamageData@DamageTable@@U?$less@VioHashString@@@std@@V?$allocator@U?$pair@$$CBVioHashString@@UDamageData@DamageTable@@@std@@@5@$0A@@std@@@std@@QAE@XZ ENDP ; std::_Tree<std::_Tmap_traits<ioHashString,DamageTable::DamageData,std::less<ioHashString>,std::allocator<std::pair<ioHashString const ,DamageTable::DamageData> >,0> >::~_Tree<std::_Tmap_traits<ioHashString,DamageTable::DamageData,std::less<ioHashString>,std::allocator<std::pair<ioHashString const ,DamageTable::DamageData> >,0> >
PUBLIC	??1?$map@VioHashString@@UDamageData@DamageTable@@U?$less@VioHashString@@@std@@V?$allocator@U?$pair@$$CBVioHashString@@UDamageData@DamageTable@@@std@@@5@@std@@QAE@XZ ; std::map<ioHashString,DamageTable::DamageData,std::less<ioHashString>,std::allocator<std::pair<ioHashString const ,DamageTable::DamageData> > >::~map<ioHashString,DamageTable::DamageData,std::less<ioHashString>,std::allocator<std::pair<ioHashString const ,DamageTable::DamageData> > >
; Function compile flags: /Ogsp
;	COMDAT ??1?$map@VioHashString@@UDamageData@DamageTable@@U?$less@VioHashString@@@std@@V?$allocator@U?$pair@$$CBVioHashString@@UDamageData@DamageTable@@@std@@@5@@std@@QAE@XZ
_TEXT	SEGMENT
??1?$map@VioHashString@@UDamageData@DamageTable@@U?$less@VioHashString@@@std@@V?$allocator@U?$pair@$$CBVioHashString@@UDamageData@DamageTable@@@std@@@5@@std@@QAE@XZ PROC ; std::map<ioHashString,DamageTable::DamageData,std::less<ioHashString>,std::allocator<std::pair<ioHashString const ,DamageTable::DamageData> > >::~map<ioHashString,DamageTable::DamageData,std::less<ioHashString>,std::allocator<std::pair<ioHashString const ,DamageTable::DamageData> > >, COMDAT
; _this$ = ecx
  00000	e9 00 00 00 00	 jmp	 ??1?$_Tree@V?$_Tmap_traits@VioHashString@@UDamageData@DamageTable@@U?$less@VioHashString@@@std@@V?$allocator@U?$pair@$$CBVioHashString@@UDamageData@DamageTable@@@std@@@5@$0A@@std@@@std@@QAE@XZ ; std::_Tree<std::_Tmap_traits<ioHashString,DamageTable::DamageData,std::less<ioHashString>,std::allocator<std::pair<ioHashString const ,DamageTable::DamageData> >,0> >::~_Tree<std::_Tmap_traits<ioHashString,DamageTable::DamageData,std::less<ioHashString>,std::allocator<std::pair<ioHashString const ,DamageTable::DamageData> >,0> >
??1?$map@VioHashString@@UDamageData@DamageTable@@U?$less@VioHashString@@@std@@V?$allocator@U?$pair@$$CBVioHashString@@UDamageData@DamageTable@@@std@@@5@@std@@QAE@XZ ENDP ; std::map<ioHashString,DamageTable::DamageData,std::less<ioHashString>,std::allocator<std::pair<ioHashString const ,DamageTable::DamageData> > >::~map<ioHashString,DamageTable::DamageData,std::less<ioHashString>,std::allocator<std::pair<ioHashString const ,DamageTable::DamageData> > >
_TEXT	ENDS
PUBLIC	??1DamageTable@@QAE@XZ				; DamageTable::~DamageTable
; Function compile flags: /Ogsp
; File d:\lost saga for developer\youtube\tutorial\source\src\lsclient\damagetable.cpp
;	COMDAT ??1DamageTable@@QAE@XZ
_TEXT	SEGMENT
??1DamageTable@@QAE@XZ PROC				; DamageTable::~DamageTable, COMDAT
; _this$ = ecx

; 13   : }

  00000	e9 00 00 00 00	 jmp	 ??1?$_Tree@V?$_Tmap_traits@VioHashString@@UDamageData@DamageTable@@U?$less@VioHashString@@@std@@V?$allocator@U?$pair@$$CBVioHashString@@UDamageData@DamageTable@@@std@@@5@$0A@@std@@@std@@QAE@XZ ; std::_Tree<std::_Tmap_traits<ioHashString,DamageTable::DamageData,std::less<ioHashString>,std::allocator<std::pair<ioHashString const ,DamageTable::DamageData> >,0> >::~_Tree<std::_Tmap_traits<ioHashString,DamageTable::DamageData,std::less<ioHashString>,std::allocator<std::pair<ioHashString const ,DamageTable::DamageData> >,0> >
??1DamageTable@@QAE@XZ ENDP				; DamageTable::~DamageTable
_TEXT	ENDS
PUBLIC	??0?$map@VioHashString@@UDamageData@DamageTable@@U?$less@VioHashString@@@std@@V?$allocator@U?$pair@$$CBVioHashString@@UDamageData@DamageTable@@@std@@@5@@std@@QAE@XZ ; std::map<ioHashString,DamageTable::DamageData,std::less<ioHashString>,std::allocator<std::pair<ioHashString const ,DamageTable::DamageData> > >::map<ioHashString,DamageTable::DamageData,std::less<ioHashString>,std::allocator<std::pair<ioHashString const ,DamageTable::DamageData> > >
; Function compile flags: /Ogsp
; File c:\program files (x86)\microsoft visual studio 10.0\vc\include\map
;	COMDAT ??0?$map@VioHashString@@UDamageData@DamageTable@@U?$less@VioHashString@@@std@@V?$allocator@U?$pair@$$CBVioHashString@@UDamageData@DamageTable@@@std@@@5@@std@@QAE@XZ
_TEXT	SEGMENT
$T510235 = -8						; size = 4
$T510237 = -8						; size = 4
$T510224 = -1						; size = 1
??0?$map@VioHashString@@UDamageData@DamageTable@@U?$less@VioHashString@@@std@@V?$allocator@U?$pair@$$CBVioHashString@@UDamageData@DamageTable@@@std@@@5@@std@@QAE@XZ PROC ; std::map<ioHashString,DamageTable::DamageData,std::less<ioHashString>,std::allocator<std::pair<ioHashString const ,DamageTable::DamageData> > >::map<ioHashString,DamageTable::DamageData,std::less<ioHashString>,std::allocator<std::pair<ioHashString const ,DamageTable::DamageData> > >, COMDAT
; _this$ = ecx

; 106  : 		{	// construct empty map from defaults

  00000	55		 push	 ebp
  00001	8b ec		 mov	 ebp, esp
  00003	51		 push	 ecx
  00004	51		 push	 ecx
  00005	56		 push	 esi
  00006	51		 push	 ecx
  00007	89 65 f8	 mov	 DWORD PTR $T510237[ebp], esp
  0000a	8d 45 ff	 lea	 eax, DWORD PTR $T510224[ebp]
  0000d	89 65 f8	 mov	 DWORD PTR $T510235[ebp], esp
  00010	50		 push	 eax
  00011	8b f1		 mov	 esi, ecx
  00013	e8 00 00 00 00	 call	 ??0?$_Tree_val@V?$_Tmap_traits@VioHashString@@UDamageData@DamageTable@@U?$less@VioHashString@@@std@@V?$allocator@U?$pair@$$CBVioHashString@@UDamageData@DamageTable@@@std@@@5@$0A@@std@@@std@@QAE@ABU?$less@VioHashString@@@1@V?$allocator@U?$pair@$$CBVioHashString@@UDamageData@DamageTable@@@std@@@1@@Z ; std::_Tree_val<std::_Tmap_traits<ioHashString,DamageTable::DamageData,std::less<ioHashString>,std::allocator<std::pair<ioHashString const ,DamageTable::DamageData> >,0> >::_Tree_val<std::_Tmap_traits<ioHashString,DamageTable::DamageData,std::less<ioHashString>,std::allocator<std::pair<ioHashString const ,DamageTable::DamageData> >,0> >

; 107  : 		}

  00018	8b c6		 mov	 eax, esi
  0001a	5e		 pop	 esi
  0001b	c9		 leave
  0001c	c3		 ret	 0
??0?$map@VioHashString@@UDamageData@DamageTable@@U?$less@VioHashString@@@std@@V?$allocator@U?$pair@$$CBVioHashString@@UDamageData@DamageTable@@@std@@@5@@std@@QAE@XZ ENDP ; std::map<ioHashString,DamageTable::DamageData,std::less<ioHashString>,std::allocator<std::pair<ioHashString const ,DamageTable::DamageData> > >::map<ioHashString,DamageTable::DamageData,std::less<ioHashString>,std::allocator<std::pair<ioHashString const ,DamageTable::DamageData> > >
_TEXT	ENDS
PUBLIC	??0DamageTable@@QAE@XZ				; DamageTable::DamageTable
; Function compile flags: /Ogsp
; File d:\lost saga for developer\youtube\tutorial\source\src\lsclient\damagetable.cpp
;	COMDAT ??0DamageTable@@QAE@XZ
_TEXT	SEGMENT
$T510257 = -8						; size = 4
$T510269 = -8						; size = 4
$T510265 = -1						; size = 1
??0DamageTable@@QAE@XZ PROC				; DamageTable::DamageTable, COMDAT
; _this$ = ecx

; 8    : {

  00000	55		 push	 ebp
  00001	8b ec		 mov	 ebp, esp
  00003	51		 push	 ecx
  00004	51		 push	 ecx
  00005	56		 push	 esi
  00006	51		 push	 ecx
  00007	89 65 f8	 mov	 DWORD PTR $T510269[ebp], esp
  0000a	8d 45 ff	 lea	 eax, DWORD PTR $T510265[ebp]
  0000d	89 65 f8	 mov	 DWORD PTR $T510257[ebp], esp
  00010	50		 push	 eax
  00011	8b f1		 mov	 esi, ecx
  00013	e8 00 00 00 00	 call	 ??0?$_Tree_val@V?$_Tmap_traits@VioHashString@@UDamageData@DamageTable@@U?$less@VioHashString@@@std@@V?$allocator@U?$pair@$$CBVioHashString@@UDamageData@DamageTable@@@std@@@5@$0A@@std@@@std@@QAE@ABU?$less@VioHashString@@@1@V?$allocator@U?$pair@$$CBVioHashString@@UDamageData@DamageTable@@@std@@@1@@Z ; std::_Tree_val<std::_Tmap_traits<ioHashString,DamageTable::DamageData,std::less<ioHashString>,std::allocator<std::pair<ioHashString const ,DamageTable::DamageData> >,0> >::_Tree_val<std::_Tmap_traits<ioHashString,DamageTable::DamageData,std::less<ioHashString>,std::allocator<std::pair<ioHashString const ,DamageTable::DamageData> >,0> >

; 9    : }

  00018	8b c6		 mov	 eax, esi
  0001a	5e		 pop	 esi
  0001b	c9		 leave
  0001c	c3		 ret	 0
??0DamageTable@@QAE@XZ ENDP				; DamageTable::DamageTable
_TEXT	ENDS
END
