; Listing generated by Microsoft (R) Optimizing Compiler Version 16.00.30319.01 

	TITLE	D:\Lost Saga For Developer\Youtube\Tutorial\Source\src\LSClient\GUI\DebugInfoWnd.cpp
	.686P
	.XMM
	include listing.inc
	.model	flat

INCLUDELIB MSVCRT
INCLUDELIB OLDNAMES

PUBLIC	?_EEM_DS@?$deque@UD3DXVECTOR3@@V?$allocator@UD3DXVECTOR3@@@std@@@std@@2HB ; std::deque<D3DXVECTOR3,std::allocator<D3DXVECTOR3> >::_EEM_DS
PUBLIC	?m_bSingle@SingleSettingWnd@@1_NA		; SingleSettingWnd::m_bSingle
PUBLIC	?m_bAutoShow@SingleSettingWnd@@1_NA		; SingleSettingWnd::m_bAutoShow
PUBLIC	?m_bPause@SingleSettingWnd@@1_NA		; SingleSettingWnd::m_bPause
_BSS	SEGMENT
?m_bSingle@SingleSettingWnd@@1_NA DB 01H DUP (?)	; SingleSettingWnd::m_bSingle
?m_bAutoShow@SingleSettingWnd@@1_NA DB 01H DUP (?)	; SingleSettingWnd::m_bAutoShow
?m_bPause@SingleSettingWnd@@1_NA DB 01H DUP (?)		; SingleSettingWnd::m_bPause
_BSS	ENDS
;	COMDAT ?_EEM_DS@?$deque@UD3DXVECTOR3@@V?$allocator@UD3DXVECTOR3@@@std@@@std@@2HB
CONST	SEGMENT
?_EEM_DS@?$deque@UD3DXVECTOR3@@V?$allocator@UD3DXVECTOR3@@@std@@@std@@2HB DD 01H ; std::deque<D3DXVECTOR3,std::allocator<D3DXVECTOR3> >::_EEM_DS
CONST	ENDS
PUBLIC	?return1@@YAIXZ					; return1
; Function compile flags: /Ogsp
; File d:\lost saga for developer\youtube\tutorial\source\src\lsclient\stdafx.h
;	COMDAT ?return1@@YAIXZ
_TEXT	SEGMENT
?return1@@YAIXZ PROC					; return1, COMDAT

; 17   : 	__forceinline unsigned int return1() { __asm mov eax, 1 };

  00000	b8 01 00 00 00	 mov	 eax, 1
  00005	c3		 ret	 0
?return1@@YAIXZ ENDP					; return1
_TEXT	ENDS
PUBLIC	?return100@@YAIXZ				; return100
; Function compile flags: /Ogsp
;	COMDAT ?return100@@YAIXZ
_TEXT	SEGMENT
?return100@@YAIXZ PROC					; return100, COMDAT

; 25   : 	__forceinline unsigned int return100() { __asm mov eax, 100 };

  00000	b8 64 00 00 00	 mov	 eax, 100		; 00000064H
  00005	c3		 ret	 0
?return100@@YAIXZ ENDP					; return100
_TEXT	ENDS
PUBLIC	?GetEquipSlot@ioBaseChar@@QAEPAVioEquipSlot@@XZ	; ioBaseChar::GetEquipSlot
; Function compile flags: /Ogsp
; File d:\lost saga for developer\youtube\tutorial\source\src\lsclient\iobasechar.h
;	COMDAT ?GetEquipSlot@ioBaseChar@@QAEPAVioEquipSlot@@XZ
_TEXT	SEGMENT
?GetEquipSlot@ioBaseChar@@QAEPAVioEquipSlot@@XZ PROC	; ioBaseChar::GetEquipSlot, COMDAT
; _this$ = ecx

; 1871 : 	ioEquipSlot* GetEquipSlot() { return m_pEquipSlot; }

  00000	8b 81 48 03 00
	00		 mov	 eax, DWORD PTR [ecx+840]
  00006	c3		 ret	 0
?GetEquipSlot@ioBaseChar@@QAEPAVioEquipSlot@@XZ ENDP	; ioBaseChar::GetEquipSlot
_TEXT	ENDS
PUBLIC	?GetIndex@ioBaseChar@@QBEKXZ			; ioBaseChar::GetIndex
; Function compile flags: /Ogsp
;	COMDAT ?GetIndex@ioBaseChar@@QBEKXZ
_TEXT	SEGMENT
?GetIndex@ioBaseChar@@QBEKXZ PROC			; ioBaseChar::GetIndex, COMDAT
; _this$ = ecx

; 2591 : 	inline DWORD GetIndex() const { return m_dwIndex; }

  00000	8b 81 c8 02 00
	00		 mov	 eax, DWORD PTR [ecx+712]
  00006	c3		 ret	 0
?GetIndex@ioBaseChar@@QBEKXZ ENDP			; ioBaseChar::GetIndex
_TEXT	ENDS
PUBLIC	?GetCharName@ioBaseChar@@QBEABVioHashString@@XZ	; ioBaseChar::GetCharName
; Function compile flags: /Ogsp
;	COMDAT ?GetCharName@ioBaseChar@@QBEABVioHashString@@XZ
_TEXT	SEGMENT
?GetCharName@ioBaseChar@@QBEABVioHashString@@XZ PROC	; ioBaseChar::GetCharName, COMDAT
; _this$ = ecx

; 2594 : 	inline const ioHashString& GetCharName() const { return m_Name; }

  00000	8d 81 d4 02 00
	00		 lea	 eax, DWORD PTR [ecx+724]
  00006	c3		 ret	 0
?GetCharName@ioBaseChar@@QBEABVioHashString@@XZ ENDP	; ioBaseChar::GetCharName
_TEXT	ENDS
PUBLIC	?GetCurJumpPowerAmt@ioBaseChar@@QAEMXZ		; ioBaseChar::GetCurJumpPowerAmt
EXTRN	__fltused:DWORD
; Function compile flags: /Ogsp
;	COMDAT ?GetCurJumpPowerAmt@ioBaseChar@@QAEMXZ
_TEXT	SEGMENT
?GetCurJumpPowerAmt@ioBaseChar@@QAEMXZ PROC		; ioBaseChar::GetCurJumpPowerAmt, COMDAT
; _this$ = ecx

; 2629 : 	inline float GetCurJumpPowerAmt() { return m_fCurJumpPowerAmt; }

  00000	d9 81 90 0e 00
	00		 fld	 DWORD PTR [ecx+3728]
  00006	c3		 ret	 0
?GetCurJumpPowerAmt@ioBaseChar@@QAEMXZ ENDP		; ioBaseChar::GetCurJumpPowerAmt
_TEXT	ENDS
PUBLIC	?GetCharacterInfo@ioBaseChar@@QBEABUCHARACTER@@XZ ; ioBaseChar::GetCharacterInfo
; Function compile flags: /Ogsp
;	COMDAT ?GetCharacterInfo@ioBaseChar@@QBEABUCHARACTER@@XZ
_TEXT	SEGMENT
?GetCharacterInfo@ioBaseChar@@QBEABUCHARACTER@@XZ PROC	; ioBaseChar::GetCharacterInfo, COMDAT
; _this$ = ecx

; 2777 : 	inline const CHARACTER& GetCharacterInfo() const { return m_CharInfo; }

  00000	8d 81 58 03 00
	00		 lea	 eax, DWORD PTR [ecx+856]
  00006	c3		 ret	 0
?GetCharacterInfo@ioBaseChar@@QBEABUCHARACTER@@XZ ENDP	; ioBaseChar::GetCharacterInfo
_TEXT	ENDS
PUBLIC	??_7bad_alloc@std@@6B@				; std::bad_alloc::`vftable'
PUBLIC	??0bad_alloc@std@@QAE@PBD@Z			; std::bad_alloc::bad_alloc
PUBLIC	??_R4bad_alloc@std@@6B@				; std::bad_alloc::`RTTI Complete Object Locator'
PUBLIC	??_R0?AVbad_alloc@std@@@8			; std::bad_alloc `RTTI Type Descriptor'
PUBLIC	??_R3bad_alloc@std@@8				; std::bad_alloc::`RTTI Class Hierarchy Descriptor'
PUBLIC	??_R2bad_alloc@std@@8				; std::bad_alloc::`RTTI Base Class Array'
PUBLIC	??_R1A@?0A@EA@bad_alloc@std@@8			; std::bad_alloc::`RTTI Base Class Descriptor at (0,-1,0,64)'
PUBLIC	??_R1A@?0A@EA@exception@std@@8			; std::exception::`RTTI Base Class Descriptor at (0,-1,0,64)'
PUBLIC	??_R0?AVexception@std@@@8			; std::exception `RTTI Type Descriptor'
PUBLIC	??_R3exception@std@@8				; std::exception::`RTTI Class Hierarchy Descriptor'
PUBLIC	??_R2exception@std@@8				; std::exception::`RTTI Base Class Array'
EXTRN	__imp_??0exception@std@@QAE@ABQBD@Z:PROC
EXTRN	??_7type_info@@6B@:QWORD			; type_info::`vftable'
EXTRN	??_Ebad_alloc@std@@UAEPAXI@Z:PROC		; std::bad_alloc::`vector deleting destructor'
EXTRN	?what@exception@std@@UBEPBDXZ:PROC		; std::exception::what
;	COMDAT ??_R2exception@std@@8
; File c:\program files (x86)\microsoft visual studio 10.0\vc\include\exception
rdata$r	SEGMENT
??_R2exception@std@@8 DD FLAT:??_R1A@?0A@EA@exception@std@@8 ; std::exception::`RTTI Base Class Array'
rdata$r	ENDS
;	COMDAT ??_R3exception@std@@8
rdata$r	SEGMENT
??_R3exception@std@@8 DD 00H				; std::exception::`RTTI Class Hierarchy Descriptor'
	DD	00H
	DD	01H
	DD	FLAT:??_R2exception@std@@8
rdata$r	ENDS
;	COMDAT ??_R0?AVexception@std@@@8
_DATA	SEGMENT
??_R0?AVexception@std@@@8 DD FLAT:??_7type_info@@6B@	; std::exception `RTTI Type Descriptor'
	DD	00H
	DB	'.?AVexception@std@@', 00H
_DATA	ENDS
;	COMDAT ??_R1A@?0A@EA@exception@std@@8
rdata$r	SEGMENT
??_R1A@?0A@EA@exception@std@@8 DD FLAT:??_R0?AVexception@std@@@8 ; std::exception::`RTTI Base Class Descriptor at (0,-1,0,64)'
	DD	00H
	DD	00H
	DD	0ffffffffH
	DD	00H
	DD	040H
	DD	FLAT:??_R3exception@std@@8
rdata$r	ENDS
;	COMDAT ??_R1A@?0A@EA@bad_alloc@std@@8
rdata$r	SEGMENT
??_R1A@?0A@EA@bad_alloc@std@@8 DD FLAT:??_R0?AVbad_alloc@std@@@8 ; std::bad_alloc::`RTTI Base Class Descriptor at (0,-1,0,64)'
	DD	01H
	DD	00H
	DD	0ffffffffH
	DD	00H
	DD	040H
	DD	FLAT:??_R3bad_alloc@std@@8
rdata$r	ENDS
;	COMDAT ??_R2bad_alloc@std@@8
rdata$r	SEGMENT
??_R2bad_alloc@std@@8 DD FLAT:??_R1A@?0A@EA@bad_alloc@std@@8 ; std::bad_alloc::`RTTI Base Class Array'
	DD	FLAT:??_R1A@?0A@EA@exception@std@@8
rdata$r	ENDS
;	COMDAT ??_R3bad_alloc@std@@8
rdata$r	SEGMENT
??_R3bad_alloc@std@@8 DD 00H				; std::bad_alloc::`RTTI Class Hierarchy Descriptor'
	DD	00H
	DD	02H
	DD	FLAT:??_R2bad_alloc@std@@8
rdata$r	ENDS
;	COMDAT ??_R0?AVbad_alloc@std@@@8
_DATA	SEGMENT
??_R0?AVbad_alloc@std@@@8 DD FLAT:??_7type_info@@6B@	; std::bad_alloc `RTTI Type Descriptor'
	DD	00H
	DB	'.?AVbad_alloc@std@@', 00H
_DATA	ENDS
;	COMDAT ??_R4bad_alloc@std@@6B@
rdata$r	SEGMENT
??_R4bad_alloc@std@@6B@ DD 00H				; std::bad_alloc::`RTTI Complete Object Locator'
	DD	00H
	DD	00H
	DD	FLAT:??_R0?AVbad_alloc@std@@@8
	DD	FLAT:??_R3bad_alloc@std@@8
rdata$r	ENDS
;	COMDAT ??_7bad_alloc@std@@6B@
CONST	SEGMENT
??_7bad_alloc@std@@6B@ DD FLAT:??_R4bad_alloc@std@@6B@	; std::bad_alloc::`vftable'
	DD	FLAT:??_Ebad_alloc@std@@UAEPAXI@Z
	DD	FLAT:?what@exception@std@@UBEPBDXZ
; Function compile flags: /Ogsp
CONST	ENDS
;	COMDAT ??0bad_alloc@std@@QAE@PBD@Z
_TEXT	SEGMENT
__Message$ = 8						; size = 4
??0bad_alloc@std@@QAE@PBD@Z PROC			; std::bad_alloc::bad_alloc, COMDAT
; _this$ = ecx

; 345  : 		{	// construct from message string

  00000	55		 push	 ebp
  00001	8b ec		 mov	 ebp, esp
  00003	56		 push	 esi
  00004	8d 45 08	 lea	 eax, DWORD PTR __Message$[ebp]
  00007	50		 push	 eax
  00008	8b f1		 mov	 esi, ecx
  0000a	ff 15 00 00 00
	00		 call	 DWORD PTR __imp_??0exception@std@@QAE@ABQBD@Z
  00010	c7 06 00 00 00
	00		 mov	 DWORD PTR [esi], OFFSET ??_7bad_alloc@std@@6B@

; 346  : 		}

  00016	8b c6		 mov	 eax, esi
  00018	5e		 pop	 esi
  00019	5d		 pop	 ebp
  0001a	c2 04 00	 ret	 4
??0bad_alloc@std@@QAE@PBD@Z ENDP			; std::bad_alloc::bad_alloc
_TEXT	ENDS
PUBLIC	??1bad_alloc@std@@UAE@XZ			; std::bad_alloc::~bad_alloc
EXTRN	__imp_??1exception@std@@UAE@XZ:PROC
; Function compile flags: /Ogsp
;	COMDAT ??1bad_alloc@std@@UAE@XZ
_TEXT	SEGMENT
??1bad_alloc@std@@UAE@XZ PROC				; std::bad_alloc::~bad_alloc, COMDAT
; _this$ = ecx

; 354  : 		{	// destroy the object

  00000	c7 01 00 00 00
	00		 mov	 DWORD PTR [ecx], OFFSET ??_7bad_alloc@std@@6B@

; 355  : 		}

  00006	ff 25 00 00 00
	00		 jmp	 DWORD PTR __imp_??1exception@std@@UAE@XZ
??1bad_alloc@std@@UAE@XZ ENDP				; std::bad_alloc::~bad_alloc
_TEXT	ENDS
EXTRN	??3@YAXPAX@Z:PROC				; operator delete
; Function compile flags: /Ogsp
;	COMDAT ??_Gbad_alloc@std@@UAEPAXI@Z
_TEXT	SEGMENT
___flags$ = 8						; size = 4
??_Gbad_alloc@std@@UAEPAXI@Z PROC			; std::bad_alloc::`scalar deleting destructor', COMDAT
; _this$ = ecx
  00000	55		 push	 ebp
  00001	8b ec		 mov	 ebp, esp
  00003	56		 push	 esi
  00004	8b f1		 mov	 esi, ecx
  00006	c7 06 00 00 00
	00		 mov	 DWORD PTR [esi], OFFSET ??_7bad_alloc@std@@6B@
  0000c	ff 15 00 00 00
	00		 call	 DWORD PTR __imp_??1exception@std@@UAE@XZ
  00012	f6 45 08 01	 test	 BYTE PTR ___flags$[ebp], 1
  00016	74 07		 je	 SHORT $LN1@scalar
  00018	56		 push	 esi
  00019	e8 00 00 00 00	 call	 ??3@YAXPAX@Z		; operator delete
  0001e	59		 pop	 ecx
$LN1@scalar:
  0001f	8b c6		 mov	 eax, esi
  00021	5e		 pop	 esi
  00022	5d		 pop	 ebp
  00023	c2 04 00	 ret	 4
??_Gbad_alloc@std@@UAEPAXI@Z ENDP			; std::bad_alloc::`scalar deleting destructor'
_TEXT	ENDS
PUBLIC	??2@YAPAXIPAX@Z					; operator new
; Function compile flags: /Ogsp
; File c:\program files (x86)\microsoft visual studio 10.0\vc\include\new
;	COMDAT ??2@YAPAXIPAX@Z
_TEXT	SEGMENT
___formal$ = 8						; size = 4
__Where$ = 12						; size = 4
??2@YAPAXIPAX@Z PROC					; operator new, COMDAT

; 56   : 	{	// construct array with placement at _Where

  00000	55		 push	 ebp
  00001	8b ec		 mov	 ebp, esp

; 57   : 	return (_Where);

  00003	8b 45 0c	 mov	 eax, DWORD PTR __Where$[ebp]

; 58   : 	}

  00006	5d		 pop	 ebp
  00007	c3		 ret	 0
??2@YAPAXIPAX@Z ENDP					; operator new
_TEXT	ENDS
PUBLIC	??3@YAXPAX0@Z					; operator delete
; Function compile flags: /Ogsp
;	COMDAT ??3@YAXPAX0@Z
_TEXT	SEGMENT
___formal$ = 8						; size = 4
___formal$ = 12						; size = 4
??3@YAXPAX0@Z PROC					; operator delete, COMDAT

; 62   : 	}

  00000	c3		 ret	 0
??3@YAXPAX0@Z ENDP					; operator delete
_TEXT	ENDS
PUBLIC	?GetBaseCharList@ioPlayStage@@QBEABV?$vector@PAVioBaseChar@@V?$allocator@PAVioBaseChar@@@std@@@std@@XZ ; ioPlayStage::GetBaseCharList
; Function compile flags: /Ogsp
; File d:\lost saga for developer\youtube\tutorial\source\src\lsclient\ioplaystage.h
;	COMDAT ?GetBaseCharList@ioPlayStage@@QBEABV?$vector@PAVioBaseChar@@V?$allocator@PAVioBaseChar@@@std@@@std@@XZ
_TEXT	SEGMENT
?GetBaseCharList@ioPlayStage@@QBEABV?$vector@PAVioBaseChar@@V?$allocator@PAVioBaseChar@@@std@@@std@@XZ PROC ; ioPlayStage::GetBaseCharList, COMDAT
; _this$ = ecx

; 755  : 	const BaseCharList& GetBaseCharList() const { return m_BaseCharList; }

  00000	8d 41 2c	 lea	 eax, DWORD PTR [ecx+44]
  00003	c3		 ret	 0
?GetBaseCharList@ioPlayStage@@QBEABV?$vector@PAVioBaseChar@@V?$allocator@PAVioBaseChar@@@std@@@std@@XZ ENDP ; ioPlayStage::GetBaseCharList
_TEXT	ENDS
PUBLIC	??0UserInfo@DeveloperInfoWnd@@QAE@XZ		; DeveloperInfoWnd::UserInfo::UserInfo
EXTRN	__imp_??0ioHashString@@QAE@XZ:PROC
; Function compile flags: /Ogsp
; File d:\lost saga for developer\youtube\tutorial\source\src\lsclient\gui\debuginfownd.h
;	COMDAT ??0UserInfo@DeveloperInfoWnd@@QAE@XZ
_TEXT	SEGMENT
??0UserInfo@DeveloperInfoWnd@@QAE@XZ PROC		; DeveloperInfoWnd::UserInfo::UserInfo, COMDAT
; _this$ = ecx

; 25   : 		UserInfo()

  00000	56		 push	 esi
  00001	8b f1		 mov	 esi, ecx
  00003	ff 15 00 00 00
	00		 call	 DWORD PTR __imp_??0ioHashString@@QAE@XZ

; 26   : 		{
; 27   : 			m_iGradeLevel	= 0;

  00009	33 c0		 xor	 eax, eax
  0000b	89 46 10	 mov	 DWORD PTR [esi+16], eax

; 28   : 			m_iKillDeathLevel	= 0;

  0000e	89 46 14	 mov	 DWORD PTR [esi+20], eax

; 29   : 			m_iSoloKO	= 0;

  00011	89 46 18	 mov	 DWORD PTR [esi+24], eax

; 30   : 			m_iPartyKO	= 0;

  00014	89 46 1c	 mov	 DWORD PTR [esi+28], eax

; 31   : 			m_iSoloKOed	= 0;		

  00017	89 46 20	 mov	 DWORD PTR [esi+32], eax

; 32   : 			m_iPartyKOed	= 0;

  0001a	89 46 24	 mov	 DWORD PTR [esi+36], eax

; 33   : 		}

  0001d	8b c6		 mov	 eax, esi
  0001f	5e		 pop	 esi
  00020	c3		 ret	 0
??0UserInfo@DeveloperInfoWnd@@QAE@XZ ENDP		; DeveloperInfoWnd::UserInfo::UserInfo
_TEXT	ENDS
PUBLIC	?iwm_command@DeveloperInfoWnd@@UAEXPAVioWnd@@HK@Z ; DeveloperInfoWnd::iwm_command
EXTRN	__imp_?HideWnd@ioWnd@@QAEXXZ:PROC
EXTRN	__imp_?GetID@ioWnd@@QBEKXZ:PROC
; Function compile flags: /Ogsp
; File d:\lost saga for developer\youtube\tutorial\source\src\lsclient\gui\debuginfownd.cpp
;	COMDAT ?iwm_command@DeveloperInfoWnd@@UAEXPAVioWnd@@HK@Z
_TEXT	SEGMENT
_pWnd$ = 8						; size = 4
_cmd$ = 12						; size = 4
_param$ = 16						; size = 4
?iwm_command@DeveloperInfoWnd@@UAEXPAVioWnd@@HK@Z PROC	; DeveloperInfoWnd::iwm_command, COMDAT
; _this$ = ecx

; 36   : {

  00000	55		 push	 ebp
  00001	8b ec		 mov	 ebp, esp
  00003	56		 push	 esi
  00004	8b f1		 mov	 esi, ecx

; 37   : 	DWORD dwID = pWnd->GetID();

  00006	8b 4d 08	 mov	 ecx, DWORD PTR _pWnd$[ebp]
  00009	ff 15 00 00 00
	00		 call	 DWORD PTR __imp_?GetID@ioWnd@@QBEKXZ

; 38   : 	switch( dwID )

  0000f	48		 dec	 eax
  00010	75 0e		 jne	 SHORT $LN1@iwm_comman

; 39   : 	{
; 40   : 	case ID_EXIT:
; 41   : 		if( cmd == IOBN_BTNUP )

  00012	83 7d 0c 11	 cmp	 DWORD PTR _cmd$[ebp], 17 ; 00000011H
  00016	75 08		 jne	 SHORT $LN1@iwm_comman

; 42   : 		{
; 43   : 			HideWnd();

  00018	8b ce		 mov	 ecx, esi
  0001a	ff 15 00 00 00
	00		 call	 DWORD PTR __imp_?HideWnd@ioWnd@@QAEXXZ
$LN1@iwm_comman:
  00020	5e		 pop	 esi

; 44   : 		}
; 45   : 		break;
; 46   : 	}
; 47   : }

  00021	5d		 pop	 ebp
  00022	c2 0c 00	 ret	 12			; 0000000cH
?iwm_command@DeveloperInfoWnd@@UAEXPAVioWnd@@HK@Z ENDP	; DeveloperInfoWnd::iwm_command
_TEXT	ENDS
PUBLIC	??1UserInfo@DeveloperInfoWnd@@QAE@XZ		; DeveloperInfoWnd::UserInfo::~UserInfo
EXTRN	__imp_??1ioHashString@@QAE@XZ:PROC
; Function compile flags: /Ogsp
;	COMDAT ??1UserInfo@DeveloperInfoWnd@@QAE@XZ
_TEXT	SEGMENT
??1UserInfo@DeveloperInfoWnd@@QAE@XZ PROC		; DeveloperInfoWnd::UserInfo::~UserInfo, COMDAT
; _this$ = ecx
  00000	ff 25 00 00 00
	00		 jmp	 DWORD PTR __imp_??1ioHashString@@QAE@XZ
??1UserInfo@DeveloperInfoWnd@@QAE@XZ ENDP		; DeveloperInfoWnd::UserInfo::~UserInfo
_TEXT	ENDS
PUBLIC	??_7DeveloperP2PWnd@@6B@			; DeveloperP2PWnd::`vftable'
PUBLIC	??0DeveloperP2PWnd@@QAE@XZ			; DeveloperP2PWnd::DeveloperP2PWnd
PUBLIC	??_R4DeveloperP2PWnd@@6B@			; DeveloperP2PWnd::`RTTI Complete Object Locator'
PUBLIC	??_R0?AVDeveloperP2PWnd@@@8			; DeveloperP2PWnd `RTTI Type Descriptor'
PUBLIC	??_R3DeveloperP2PWnd@@8				; DeveloperP2PWnd::`RTTI Class Hierarchy Descriptor'
PUBLIC	??_R2DeveloperP2PWnd@@8				; DeveloperP2PWnd::`RTTI Base Class Array'
PUBLIC	??_R1A@?0A@EA@DeveloperP2PWnd@@8		; DeveloperP2PWnd::`RTTI Base Class Descriptor at (0,-1,0,64)'
PUBLIC	??_R1A@?0A@EA@ioWnd@@8				; ioWnd::`RTTI Base Class Descriptor at (0,-1,0,64)'
PUBLIC	??_R0?AVioWnd@@@8				; ioWnd `RTTI Type Descriptor'
PUBLIC	??_R3ioWnd@@8					; ioWnd::`RTTI Class Hierarchy Descriptor'
PUBLIC	??_R2ioWnd@@8					; ioWnd::`RTTI Base Class Array'
PUBLIC	?OnRender@DeveloperP2PWnd@@MAEXXZ		; DeveloperP2PWnd::OnRender
PUBLIC	?iwm_command@DeveloperP2PWnd@@UAEXPAVioWnd@@HK@Z ; DeveloperP2PWnd::iwm_command
EXTRN	__imp_??0ioWnd@@QAE@XZ:PROC
EXTRN	?AddRenderFrame@ioWnd@@UAEXABVioHashString@@PAVioUIRenderFrame@@@Z:PROC ; ioWnd::AddRenderFrame
EXTRN	?AddRenderImage@ioWnd@@UAEXABVioHashString@@PAVioUIRenderImage@@@Z:PROC ; ioWnd::AddRenderImage
EXTRN	?AddTooltipHelp@ioWnd@@UAEXABVioHashString@@00@Z:PROC ; ioWnd::AddTooltipHelp
EXTRN	?ParseExtraInfo@ioWnd@@UAEXAAVioXMLElement@@@Z:PROC ; ioWnd::ParseExtraInfo
EXTRN	?AddNamedRenderImage@ioWnd@@UAEXABVioHashString@@PAVioUIRenderImage@@@Z:PROC ; ioWnd::AddNamedRenderImage
EXTRN	?RemoveNamedRenderImage@ioWnd@@UAEXABVioHashString@@@Z:PROC ; ioWnd::RemoveNamedRenderImage
EXTRN	?GetNamedRenderImage@ioWnd@@UBEPAVioUIRenderImage@@ABVioHashString@@@Z:PROC ; ioWnd::GetNamedRenderImage
EXTRN	?SetWindowAlpha@ioWnd@@UAEXH@Z:PROC		; ioWnd::SetWindowAlpha
EXTRN	?SetActive@ioWnd@@UAEXXZ:PROC			; ioWnd::SetActive
EXTRN	?SetInActive@ioWnd@@UAEXXZ:PROC			; ioWnd::SetInActive
EXTRN	?ClearElementImageList@ioWnd@@UAEXXZ:PROC	; ioWnd::ClearElementImageList
EXTRN	?SetSize@ioWnd@@UAEXHH@Z:PROC			; ioWnd::SetSize
EXTRN	?SetPositionToDefault@ioWnd@@UAEXHH_N0@Z:PROC	; ioWnd::SetPositionToDefault
EXTRN	?IsNeedProcess@ioWnd@@UBE_NXZ:PROC		; ioWnd::IsNeedProcess
EXTRN	?IsCanMouseReaction@ioWnd@@UBE_NXZ:PROC		; ioWnd::IsCanMouseReaction
EXTRN	?AddChild@ioWnd@@UAEXPAV1@@Z:PROC		; ioWnd::AddChild
EXTRN	?DeleteChild@ioWnd@@UAEXK@Z:PROC		; ioWnd::DeleteChild
EXTRN	?DeleteAllChild@ioWnd@@UAEXXZ:PROC		; ioWnd::DeleteAllChild
EXTRN	?OnRenderShowAndHide@ioWnd@@MAE_NXZ:PROC	; ioWnd::OnRenderShowAndHide
EXTRN	?OnRenderShowAndHideByDefault@ioWnd@@MAE_NK@Z:PROC ; ioWnd::OnRenderShowAndHideByDefault
EXTRN	?OnRenderShowAndHideByTop@ioWnd@@MAE_NK@Z:PROC	; ioWnd::OnRenderShowAndHideByTop
EXTRN	?OnRenderShowAndHideByDown@ioWnd@@MAE_NK@Z:PROC	; ioWnd::OnRenderShowAndHideByDown
EXTRN	?OnRenderAfterChild@ioWnd@@MAEXXZ:PROC		; ioWnd::OnRenderAfterChild
EXTRN	?OnProcess@ioWnd@@MAEXM@Z:PROC			; ioWnd::OnProcess
EXTRN	?OnMouseProcess@ioWnd@@MAEXABVioMouse@@@Z:PROC	; ioWnd::OnMouseProcess
EXTRN	?CheckFrameReSize@ioWnd@@MAEXHHHH@Z:PROC	; ioWnd::CheckFrameReSize
EXTRN	?RenderImageList@ioWnd@@MAEXHHW4UIRenderType@@@Z:PROC ; ioWnd::RenderImageList
EXTRN	?iwm_create@ioWnd@@UAEXXZ:PROC			; ioWnd::iwm_create
EXTRN	?iwm_destroy@ioWnd@@UAEXXZ:PROC			; ioWnd::iwm_destroy
EXTRN	?iwm_lbuttondown@ioWnd@@UAEXABVioMouse@@@Z:PROC	; ioWnd::iwm_lbuttondown
EXTRN	?iwm_lbuttonup@ioWnd@@UAEXABVioMouse@@@Z:PROC	; ioWnd::iwm_lbuttonup
EXTRN	?iwm_lbuttonDBLCLK@ioWnd@@UAEXABVioMouse@@@Z:PROC ; ioWnd::iwm_lbuttonDBLCLK
EXTRN	?iwm_rbuttondown@ioWnd@@UAEXABVioMouse@@@Z:PROC	; ioWnd::iwm_rbuttondown
EXTRN	?iwm_rbuttonup@ioWnd@@UAEXABVioMouse@@@Z:PROC	; ioWnd::iwm_rbuttonup
EXTRN	?iwm_mouseover@ioWnd@@UAEXABVioMouse@@@Z:PROC	; ioWnd::iwm_mouseover
EXTRN	?iwm_mousemove@ioWnd@@UAEXABVioMouse@@@Z:PROC	; ioWnd::iwm_mousemove
EXTRN	?iwm_mouseleave@ioWnd@@UAEXABVioMouse@@@Z:PROC	; ioWnd::iwm_mouseleave
EXTRN	?iwm_vscroll@ioWnd@@UAEXKH@Z:PROC		; ioWnd::iwm_vscroll
EXTRN	?iwm_wheel@ioWnd@@UAEXH@Z:PROC			; ioWnd::iwm_wheel
EXTRN	?iwm_show@ioWnd@@UAEXXZ:PROC			; ioWnd::iwm_show
EXTRN	?iwm_hide@ioWnd@@UAEXXZ:PROC			; ioWnd::iwm_hide
EXTRN	?iwm_esc@ioWnd@@UAE_NXZ:PROC			; ioWnd::iwm_esc
EXTRN	?iwm_spacebar@ioWnd@@UAE_NXZ:PROC		; ioWnd::iwm_spacebar
EXTRN	?iwm_gototop@ioWnd@@UAEXXZ:PROC			; ioWnd::iwm_gototop
EXTRN	?iwm_dragenter@ioWnd@@UAE?AW4IWDropEffect@@PAVioDragItem@@ABVioMouse@@@Z:PROC ; ioWnd::iwm_dragenter
EXTRN	?iwm_dragover@ioWnd@@UAE?AW4IWDropEffect@@PAVioDragItem@@ABVioMouse@@@Z:PROC ; ioWnd::iwm_dragover
EXTRN	?iwm_dragleave@ioWnd@@UAEXXZ:PROC		; ioWnd::iwm_dragleave
EXTRN	?iwm_dropitem@ioWnd@@UAE_NPAVioDragItem@@ABVioMouse@@PAV1@@Z:PROC ; ioWnd::iwm_dropitem
EXTRN	?iwm_dropdone@ioWnd@@UAEXPAVioDragItem@@PAV1@_N@Z:PROC ; ioWnd::iwm_dropdone
EXTRN	?IsEXType@ioWnd@@UBE_NXZ:PROC			; ioWnd::IsEXType
EXTRN	?GetWndType@ioWnd@@UBEKXZ:PROC			; ioWnd::GetWndType
EXTRN	?RenderWnd@ioWnd@@UAEXXZ:PROC			; ioWnd::RenderWnd
EXTRN	?SetIDEX@ioWnd@@UAEXAAK_N@Z:PROC		; ioWnd::SetIDEX
EXTRN	?ParseXML@ioWnd@@UAEXAAVioXMLElement@@@Z:PROC	; ioWnd::ParseXML
EXTRN	?GetHeaderFileName@ioWnd@@UAEPBDXZ:PROC		; ioWnd::GetHeaderFileName
EXTRN	?GetTemplateName@ioWnd@@UAEPBDXZ:PROC		; ioWnd::GetTemplateName
EXTRN	?GetDefClassName@ioWnd@@UBEPBDXZ:PROC		; ioWnd::GetDefClassName
EXTRN	?_Clone@ioWnd@@UAEPAV1@XZ:PROC			; ioWnd::_Clone
EXTRN	?Copy@ioWnd@@UAEXPAV1@@Z:PROC			; ioWnd::Copy
EXTRN	?Save@ioWnd@@UAE_NAAVioXMLElement@@@Z:PROC	; ioWnd::Save
EXTRN	?SetSaveData@ioWnd@@UAEXAAVioXMLElement@@@Z:PROC ; ioWnd::SetSaveData
EXTRN	?SetPosX@ioWnd@@UAEXH@Z:PROC			; ioWnd::SetPosX
EXTRN	?SetPosY@ioWnd@@UAEXH@Z:PROC			; ioWnd::SetPosY
EXTRN	?SetWidth@ioWnd@@UAEXH@Z:PROC			; ioWnd::SetWidth
EXTRN	?SetHeight@ioWnd@@UAEXH@Z:PROC			; ioWnd::SetHeight
EXTRN	?GetNumFixedRenderFrame@ioWnd@@UBEHXZ:PROC	; ioWnd::GetNumFixedRenderFrame
EXTRN	?GetFixedRenderFrameType@ioWnd@@UAEPBDH@Z:PROC	; ioWnd::GetFixedRenderFrameType
EXTRN	?GetRenderFrame@ioWnd@@UAEPAPAVioUIRenderElement@@PBD@Z:PROC ; ioWnd::GetRenderFrame
EXTRN	?GetNumFixedRenderImage@ioWnd@@UBEHXZ:PROC	; ioWnd::GetNumFixedRenderImage
EXTRN	?GetFixedRenderImageType@ioWnd@@UAEPBDH@Z:PROC	; ioWnd::GetFixedRenderImageType
EXTRN	?GetRenderImage@ioWnd@@UAEPAPAVioUIRenderElement@@PBD@Z:PROC ; ioWnd::GetRenderImage
EXTRN	?AddEffect@ioWnd@@UAEXABVioHashString@@PAVioUI3DEffectRender@@@Z:PROC ; ioWnd::AddEffect
EXTRN	?GetEffect@ioWnd@@UAEPAVioUI3DEffectRender@@VioHashString@@@Z:PROC ; ioWnd::GetEffect
EXTRN	??_EDeveloperP2PWnd@@UAEPAXI@Z:PROC		; DeveloperP2PWnd::`vector deleting destructor'
;	COMDAT ??_R2ioWnd@@8
rdata$r	SEGMENT
??_R2ioWnd@@8 DD FLAT:??_R1A@?0A@EA@ioWnd@@8		; ioWnd::`RTTI Base Class Array'
rdata$r	ENDS
;	COMDAT ??_R3ioWnd@@8
rdata$r	SEGMENT
??_R3ioWnd@@8 DD 00H					; ioWnd::`RTTI Class Hierarchy Descriptor'
	DD	00H
	DD	01H
	DD	FLAT:??_R2ioWnd@@8
rdata$r	ENDS
;	COMDAT ??_R0?AVioWnd@@@8
_DATA	SEGMENT
??_R0?AVioWnd@@@8 DD FLAT:??_7type_info@@6B@		; ioWnd `RTTI Type Descriptor'
	DD	00H
	DB	'.?AVioWnd@@', 00H
_DATA	ENDS
;	COMDAT ??_R1A@?0A@EA@ioWnd@@8
rdata$r	SEGMENT
??_R1A@?0A@EA@ioWnd@@8 DD FLAT:??_R0?AVioWnd@@@8	; ioWnd::`RTTI Base Class Descriptor at (0,-1,0,64)'
	DD	00H
	DD	00H
	DD	0ffffffffH
	DD	00H
	DD	040H
	DD	FLAT:??_R3ioWnd@@8
rdata$r	ENDS
;	COMDAT ??_R1A@?0A@EA@DeveloperP2PWnd@@8
rdata$r	SEGMENT
??_R1A@?0A@EA@DeveloperP2PWnd@@8 DD FLAT:??_R0?AVDeveloperP2PWnd@@@8 ; DeveloperP2PWnd::`RTTI Base Class Descriptor at (0,-1,0,64)'
	DD	01H
	DD	00H
	DD	0ffffffffH
	DD	00H
	DD	040H
	DD	FLAT:??_R3DeveloperP2PWnd@@8
rdata$r	ENDS
;	COMDAT ??_R2DeveloperP2PWnd@@8
rdata$r	SEGMENT
??_R2DeveloperP2PWnd@@8 DD FLAT:??_R1A@?0A@EA@DeveloperP2PWnd@@8 ; DeveloperP2PWnd::`RTTI Base Class Array'
	DD	FLAT:??_R1A@?0A@EA@ioWnd@@8
rdata$r	ENDS
;	COMDAT ??_R3DeveloperP2PWnd@@8
rdata$r	SEGMENT
??_R3DeveloperP2PWnd@@8 DD 00H				; DeveloperP2PWnd::`RTTI Class Hierarchy Descriptor'
	DD	00H
	DD	02H
	DD	FLAT:??_R2DeveloperP2PWnd@@8
rdata$r	ENDS
;	COMDAT ??_R0?AVDeveloperP2PWnd@@@8
_DATA	SEGMENT
??_R0?AVDeveloperP2PWnd@@@8 DD FLAT:??_7type_info@@6B@	; DeveloperP2PWnd `RTTI Type Descriptor'
	DD	00H
	DB	'.?AVDeveloperP2PWnd@@', 00H
_DATA	ENDS
;	COMDAT ??_R4DeveloperP2PWnd@@6B@
rdata$r	SEGMENT
??_R4DeveloperP2PWnd@@6B@ DD 00H			; DeveloperP2PWnd::`RTTI Complete Object Locator'
	DD	00H
	DD	00H
	DD	FLAT:??_R0?AVDeveloperP2PWnd@@@8
	DD	FLAT:??_R3DeveloperP2PWnd@@8
rdata$r	ENDS
;	COMDAT ??_7DeveloperP2PWnd@@6B@
CONST	SEGMENT
??_7DeveloperP2PWnd@@6B@ DD FLAT:??_R4DeveloperP2PWnd@@6B@ ; DeveloperP2PWnd::`vftable'
	DD	FLAT:?AddRenderFrame@ioWnd@@UAEXABVioHashString@@PAVioUIRenderFrame@@@Z
	DD	FLAT:?AddRenderImage@ioWnd@@UAEXABVioHashString@@PAVioUIRenderImage@@@Z
	DD	FLAT:?AddTooltipHelp@ioWnd@@UAEXABVioHashString@@00@Z
	DD	FLAT:?ParseExtraInfo@ioWnd@@UAEXAAVioXMLElement@@@Z
	DD	FLAT:?AddNamedRenderImage@ioWnd@@UAEXABVioHashString@@PAVioUIRenderImage@@@Z
	DD	FLAT:?RemoveNamedRenderImage@ioWnd@@UAEXABVioHashString@@@Z
	DD	FLAT:?GetNamedRenderImage@ioWnd@@UBEPAVioUIRenderImage@@ABVioHashString@@@Z
	DD	FLAT:?SetWindowAlpha@ioWnd@@UAEXH@Z
	DD	FLAT:?SetActive@ioWnd@@UAEXXZ
	DD	FLAT:?SetInActive@ioWnd@@UAEXXZ
	DD	FLAT:?ClearElementImageList@ioWnd@@UAEXXZ
	DD	FLAT:?SetSize@ioWnd@@UAEXHH@Z
	DD	FLAT:?SetPositionToDefault@ioWnd@@UAEXHH_N0@Z
	DD	FLAT:?IsNeedProcess@ioWnd@@UBE_NXZ
	DD	FLAT:?IsCanMouseReaction@ioWnd@@UBE_NXZ
	DD	FLAT:?AddChild@ioWnd@@UAEXPAV1@@Z
	DD	FLAT:?DeleteChild@ioWnd@@UAEXK@Z
	DD	FLAT:?DeleteAllChild@ioWnd@@UAEXXZ
	DD	FLAT:?OnRenderShowAndHide@ioWnd@@MAE_NXZ
	DD	FLAT:?OnRenderShowAndHideByDefault@ioWnd@@MAE_NK@Z
	DD	FLAT:?OnRenderShowAndHideByTop@ioWnd@@MAE_NK@Z
	DD	FLAT:?OnRenderShowAndHideByDown@ioWnd@@MAE_NK@Z
	DD	FLAT:?OnRender@DeveloperP2PWnd@@MAEXXZ
	DD	FLAT:?OnRenderAfterChild@ioWnd@@MAEXXZ
	DD	FLAT:?OnProcess@ioWnd@@MAEXM@Z
	DD	FLAT:?OnMouseProcess@ioWnd@@MAEXABVioMouse@@@Z
	DD	FLAT:?CheckFrameReSize@ioWnd@@MAEXHHHH@Z
	DD	FLAT:?RenderImageList@ioWnd@@MAEXHHW4UIRenderType@@@Z
	DD	FLAT:?iwm_create@ioWnd@@UAEXXZ
	DD	FLAT:?iwm_destroy@ioWnd@@UAEXXZ
	DD	FLAT:?iwm_lbuttondown@ioWnd@@UAEXABVioMouse@@@Z
	DD	FLAT:?iwm_lbuttonup@ioWnd@@UAEXABVioMouse@@@Z
	DD	FLAT:?iwm_lbuttonDBLCLK@ioWnd@@UAEXABVioMouse@@@Z
	DD	FLAT:?iwm_rbuttondown@ioWnd@@UAEXABVioMouse@@@Z
	DD	FLAT:?iwm_rbuttonup@ioWnd@@UAEXABVioMouse@@@Z
	DD	FLAT:?iwm_command@DeveloperP2PWnd@@UAEXPAVioWnd@@HK@Z
	DD	FLAT:?iwm_mouseover@ioWnd@@UAEXABVioMouse@@@Z
	DD	FLAT:?iwm_mousemove@ioWnd@@UAEXABVioMouse@@@Z
	DD	FLAT:?iwm_mouseleave@ioWnd@@UAEXABVioMouse@@@Z
	DD	FLAT:?iwm_vscroll@ioWnd@@UAEXKH@Z
	DD	FLAT:?iwm_wheel@ioWnd@@UAEXH@Z
	DD	FLAT:?iwm_show@ioWnd@@UAEXXZ
	DD	FLAT:?iwm_hide@ioWnd@@UAEXXZ
	DD	FLAT:?iwm_esc@ioWnd@@UAE_NXZ
	DD	FLAT:?iwm_spacebar@ioWnd@@UAE_NXZ
	DD	FLAT:?iwm_gototop@ioWnd@@UAEXXZ
	DD	FLAT:?iwm_dragenter@ioWnd@@UAE?AW4IWDropEffect@@PAVioDragItem@@ABVioMouse@@@Z
	DD	FLAT:?iwm_dragover@ioWnd@@UAE?AW4IWDropEffect@@PAVioDragItem@@ABVioMouse@@@Z
	DD	FLAT:?iwm_dragleave@ioWnd@@UAEXXZ
	DD	FLAT:?iwm_dropitem@ioWnd@@UAE_NPAVioDragItem@@ABVioMouse@@PAV1@@Z
	DD	FLAT:?iwm_dropdone@ioWnd@@UAEXPAVioDragItem@@PAV1@_N@Z
	DD	FLAT:?IsEXType@ioWnd@@UBE_NXZ
	DD	FLAT:?GetWndType@ioWnd@@UBEKXZ
	DD	FLAT:?RenderWnd@ioWnd@@UAEXXZ
	DD	FLAT:?SetIDEX@ioWnd@@UAEXAAK_N@Z
	DD	FLAT:?ParseXML@ioWnd@@UAEXAAVioXMLElement@@@Z
	DD	FLAT:?GetHeaderFileName@ioWnd@@UAEPBDXZ
	DD	FLAT:?GetTemplateName@ioWnd@@UAEPBDXZ
	DD	FLAT:?GetDefClassName@ioWnd@@UBEPBDXZ
	DD	FLAT:?_Clone@ioWnd@@UAEPAV1@XZ
	DD	FLAT:?Copy@ioWnd@@UAEXPAV1@@Z
	DD	FLAT:?Save@ioWnd@@UAE_NAAVioXMLElement@@@Z
	DD	FLAT:?SetSaveData@ioWnd@@UAEXAAVioXMLElement@@@Z
	DD	FLAT:?SetPosX@ioWnd@@UAEXH@Z
	DD	FLAT:?SetPosY@ioWnd@@UAEXH@Z
	DD	FLAT:?SetWidth@ioWnd@@UAEXH@Z
	DD	FLAT:?SetHeight@ioWnd@@UAEXH@Z
	DD	FLAT:?GetNumFixedRenderFrame@ioWnd@@UBEHXZ
	DD	FLAT:?GetFixedRenderFrameType@ioWnd@@UAEPBDH@Z
	DD	FLAT:?GetRenderFrame@ioWnd@@UAEPAPAVioUIRenderElement@@PBD@Z
	DD	FLAT:?GetNumFixedRenderImage@ioWnd@@UBEHXZ
	DD	FLAT:?GetFixedRenderImageType@ioWnd@@UAEPBDH@Z
	DD	FLAT:?GetRenderImage@ioWnd@@UAEPAPAVioUIRenderElement@@PBD@Z
	DD	FLAT:?AddEffect@ioWnd@@UAEXABVioHashString@@PAVioUI3DEffectRender@@@Z
	DD	FLAT:?GetEffect@ioWnd@@UAEPAVioUI3DEffectRender@@VioHashString@@@Z
	DD	FLAT:??_EDeveloperP2PWnd@@UAEPAXI@Z
; Function compile flags: /Ogsp
CONST	ENDS
;	COMDAT ??0DeveloperP2PWnd@@QAE@XZ
_TEXT	SEGMENT
??0DeveloperP2PWnd@@QAE@XZ PROC				; DeveloperP2PWnd::DeveloperP2PWnd, COMDAT
; _this$ = ecx

; 104  : {

  00000	56		 push	 esi
  00001	8b f1		 mov	 esi, ecx
  00003	ff 15 00 00 00
	00		 call	 DWORD PTR __imp_??0ioWnd@@QAE@XZ
  00009	c7 06 00 00 00
	00		 mov	 DWORD PTR [esi], OFFSET ??_7DeveloperP2PWnd@@6B@

; 105  : 
; 106  : }

  0000f	8b c6		 mov	 eax, esi
  00011	5e		 pop	 esi
  00012	c3		 ret	 0
??0DeveloperP2PWnd@@QAE@XZ ENDP				; DeveloperP2PWnd::DeveloperP2PWnd
_TEXT	ENDS
PUBLIC	??1DeveloperP2PWnd@@UAE@XZ			; DeveloperP2PWnd::~DeveloperP2PWnd
EXTRN	__imp_??1ioWnd@@UAE@XZ:PROC
; Function compile flags: /Ogsp
;	COMDAT ??1DeveloperP2PWnd@@UAE@XZ
_TEXT	SEGMENT
??1DeveloperP2PWnd@@UAE@XZ PROC				; DeveloperP2PWnd::~DeveloperP2PWnd, COMDAT
; _this$ = ecx

; 109  : {

  00000	c7 01 00 00 00
	00		 mov	 DWORD PTR [ecx], OFFSET ??_7DeveloperP2PWnd@@6B@

; 110  : 	
; 111  : }

  00006	ff 25 00 00 00
	00		 jmp	 DWORD PTR __imp_??1ioWnd@@UAE@XZ
??1DeveloperP2PWnd@@UAE@XZ ENDP				; DeveloperP2PWnd::~DeveloperP2PWnd
; Function compile flags: /Ogsp
_TEXT	ENDS
;	COMDAT ?iwm_command@DeveloperP2PWnd@@UAEXPAVioWnd@@HK@Z
_TEXT	SEGMENT
_pWnd$ = 8						; size = 4
_cmd$ = 12						; size = 4
_param$ = 16						; size = 4
?iwm_command@DeveloperP2PWnd@@UAEXPAVioWnd@@HK@Z PROC	; DeveloperP2PWnd::iwm_command, COMDAT
; _this$ = ecx

; 114  : {

  00000	55		 push	 ebp
  00001	8b ec		 mov	 ebp, esp
  00003	56		 push	 esi
  00004	8b f1		 mov	 esi, ecx

; 115  : 	DWORD dwID = pWnd->GetID();

  00006	8b 4d 08	 mov	 ecx, DWORD PTR _pWnd$[ebp]
  00009	ff 15 00 00 00
	00		 call	 DWORD PTR __imp_?GetID@ioWnd@@QBEKXZ

; 116  : 	switch( dwID )

  0000f	48		 dec	 eax
  00010	75 0e		 jne	 SHORT $LN1@iwm_comman@2

; 117  : 	{
; 118  : 	case ID_EXIT:
; 119  : 		if( cmd == IOBN_BTNUP )

  00012	83 7d 0c 11	 cmp	 DWORD PTR _cmd$[ebp], 17 ; 00000011H
  00016	75 08		 jne	 SHORT $LN1@iwm_comman@2

; 120  : 		{
; 121  : 			HideWnd();

  00018	8b ce		 mov	 ecx, esi
  0001a	ff 15 00 00 00
	00		 call	 DWORD PTR __imp_?HideWnd@ioWnd@@QAEXXZ
$LN1@iwm_comman@2:
  00020	5e		 pop	 esi

; 122  : 		}
; 123  : 		break;
; 124  : 	}
; 125  : }

  00021	5d		 pop	 ebp
  00022	c2 0c 00	 ret	 12			; 0000000cH
?iwm_command@DeveloperP2PWnd@@UAEXPAVioWnd@@HK@Z ENDP	; DeveloperP2PWnd::iwm_command
_TEXT	ENDS
PUBLIC	??_C@_08HMLFPDOA@RecvList?$AA@			; `string'
PUBLIC	??_C@_08EEAHCFPD@SendList?$AA@			; `string'
PUBLIC	__real@3f266666
EXTRN	?RecvPacketLog@ioP2PChecker@@QAE?AVioHashString@@H@Z:PROC ; ioP2PChecker::RecvPacketLog
EXTRN	__imp_?c_str@ioHashString@@QBEPBDXZ:PROC
EXTRN	?SendPacketLog@ioP2PChecker@@QAE?AVioHashString@@H@Z:PROC ; ioP2PChecker::SendPacketLog
EXTRN	__imp_?PrintText@ioFontManager@@QAAXMMMPBDZZ:PROC
EXTRN	__imp_?SetTextColor@ioFontManager@@QAEXK@Z:PROC
EXTRN	__imp_?SetBkColor@ioFontManager@@QAEXHHH@Z:PROC
EXTRN	__imp_?SetTextStyle@ioFontManager@@QAEXW4TextStyle@@@Z:PROC
EXTRN	__imp_?SetAlignType@ioFontManager@@QAEXW4TextAlignType@@@Z:PROC
EXTRN	__imp_?GetSingleton@ioFontManager@@SAAAV1@XZ:PROC
EXTRN	?RenderLog@ioP2PChecker@@QAEXHH@Z:PROC		; ioP2PChecker::RenderLog
EXTRN	?GetSingleton@ioP2PChecker@@SAAAV1@XZ:PROC	; ioP2PChecker::GetSingleton
EXTRN	__imp_?GetDerivedPosY@ioWnd@@QBEHXZ:PROC
EXTRN	__imp_?GetDerivedPosX@ioWnd@@QBEHXZ:PROC
EXTRN	__imp_?OnRender@ioWnd@@MAEXXZ:PROC
EXTRN	___CxxFrameHandler3:PROC
EXTRN	@__security_check_cookie@4:PROC
EXTRN	__EH_epilog3:PROC
EXTRN	__EH_prolog3:PROC
;	COMDAT ??_C@_08HMLFPDOA@RecvList?$AA@
CONST	SEGMENT
??_C@_08HMLFPDOA@RecvList?$AA@ DB 'RecvList', 00H	; `string'
CONST	ENDS
;	COMDAT ??_C@_08EEAHCFPD@SendList?$AA@
CONST	SEGMENT
??_C@_08EEAHCFPD@SendList?$AA@ DB 'SendList', 00H	; `string'
CONST	ENDS
;	COMDAT __real@3f266666
CONST	SEGMENT
__real@3f266666 DD 03f266666r			; 0.65
CONST	ENDS
;	COMDAT xdata$x
xdata$x	SEGMENT
__unwindtable$?OnRender@DeveloperP2PWnd@@MAEXXZ DD 0ffffffffH
	DD	FLAT:__unwindfunclet$?OnRender@DeveloperP2PWnd@@MAEXXZ$0
	DD	0ffffffffH
	DD	FLAT:__unwindfunclet$?OnRender@DeveloperP2PWnd@@MAEXXZ$1
__ehfuncinfo$?OnRender@DeveloperP2PWnd@@MAEXXZ DD 019930522H
	DD	02H
	DD	FLAT:__unwindtable$?OnRender@DeveloperP2PWnd@@MAEXXZ
	DD	2 DUP(00H)
	DD	2 DUP(00H)
	DD	00H
	DD	01H
; Function compile flags: /Ogsp
xdata$x	ENDS
;	COMDAT ?OnRender@DeveloperP2PWnd@@MAEXXZ
_TEXT	SEGMENT
$T537107 = -64						; size = 16
$T537106 = -48						; size = 16
tv230 = -32						; size = 4
tv228 = -28						; size = 4
tv261 = -24						; size = 4
tv226 = -24						; size = 4
tv259 = -20						; size = 4
_iYPos$ = -20						; size = 4
_i$ = -16						; size = 4
__$EHRec$ = -12						; size = 12
?OnRender@DeveloperP2PWnd@@MAEXXZ PROC			; DeveloperP2PWnd::OnRender, COMDAT
; _this$ = ecx

; 128  : {

  00000	6a 34		 push	 52			; 00000034H
  00002	b8 00 00 00 00	 mov	 eax, __ehhandler$?OnRender@DeveloperP2PWnd@@MAEXXZ
  00007	e8 00 00 00 00	 call	 __EH_prolog3
  0000c	8b f1		 mov	 esi, ecx

; 129  : 	ioWnd::OnRender();

  0000e	ff 15 00 00 00
	00		 call	 DWORD PTR __imp_?OnRender@ioWnd@@MAEXXZ

; 130  : 
; 131  : 	int iXPos, iYPos;
; 132  : 	iXPos = GetDerivedPosX();

  00014	8b ce		 mov	 ecx, esi
  00016	ff 15 00 00 00
	00		 call	 DWORD PTR __imp_?GetDerivedPosX@ioWnd@@QBEHXZ

; 133  : 	iYPos = GetDerivedPosY();

  0001c	8b ce		 mov	 ecx, esi
  0001e	8b d8		 mov	 ebx, eax
  00020	ff 15 00 00 00
	00		 call	 DWORD PTR __imp_?GetDerivedPosY@ioWnd@@QBEHXZ
  00026	8b f8		 mov	 edi, eax

; 134  : 
; 135  : 	g_P2PChecker.RenderLog( iXPos + 600, iYPos );

  00028	8d 83 58 02 00
	00		 lea	 eax, DWORD PTR [ebx+600]
  0002e	57		 push	 edi
  0002f	50		 push	 eax
  00030	89 7d ec	 mov	 DWORD PTR _iYPos$[ebp], edi
  00033	e8 00 00 00 00	 call	 ?GetSingleton@ioP2PChecker@@SAAAV1@XZ ; ioP2PChecker::GetSingleton
  00038	8b c8		 mov	 ecx, eax
  0003a	e8 00 00 00 00	 call	 ?RenderLog@ioP2PChecker@@QAEXHH@Z ; ioP2PChecker::RenderLog

; 136  : 	
; 137  : 	g_FontMgr.SetAlignType( TAT_LEFT );

  0003f	8b 35 00 00 00
	00		 mov	 esi, DWORD PTR __imp_?GetSingleton@ioFontManager@@SAAAV1@XZ
  00045	6a 00		 push	 0
  00047	ff d6		 call	 esi
  00049	8b c8		 mov	 ecx, eax
  0004b	ff 15 00 00 00
	00		 call	 DWORD PTR __imp_?SetAlignType@ioFontManager@@QAEXW4TextAlignType@@@Z

; 138  : 	g_FontMgr.SetTextStyle( TS_OUTLINE_FULL_2X );

  00051	6a 05		 push	 5
  00053	ff d6		 call	 esi
  00055	8b c8		 mov	 ecx, eax
  00057	ff 15 00 00 00
	00		 call	 DWORD PTR __imp_?SetTextStyle@ioFontManager@@QAEXW4TextStyle@@@Z

; 139  : 	g_FontMgr.SetBkColor( 0, 0, 0 );

  0005d	33 c0		 xor	 eax, eax
  0005f	50		 push	 eax
  00060	50		 push	 eax
  00061	50		 push	 eax
  00062	ff d6		 call	 esi
  00064	8b c8		 mov	 ecx, eax
  00066	ff 15 00 00 00
	00		 call	 DWORD PTR __imp_?SetBkColor@ioFontManager@@QAEXHHH@Z

; 140  : 	g_FontMgr.SetTextColor( TCT_DEFAULT_GRAY );

  0006c	68 6e 6e 6e ff	 push	 -9539986		; ff6e6e6eH
  00071	ff d6		 call	 esi
  00073	8b c8		 mov	 ecx, eax
  00075	ff 15 00 00 00
	00		 call	 DWORD PTR __imp_?SetTextColor@ioFontManager@@QAEXK@Z

; 141  : 
; 142  : 	g_FontMgr.PrintText( iXPos + 10, iYPos + 55, FONT_SIZE_13, "SendList" );		

  0007b	f3 0f 10 15 00
	00 00 00	 movss	 xmm2, DWORD PTR __real@3f266666
  00083	68 00 00 00 00	 push	 OFFSET ??_C@_08EEAHCFPD@SendList?$AA@
  00088	83 ec 0c	 sub	 esp, 12			; 0000000cH
  0008b	83 c7 37	 add	 edi, 55			; 00000037H
  0008e	0f 57 c0	 xorps	 xmm0, xmm0
  00091	f3 0f 2a c7	 cvtsi2ss xmm0, edi
  00095	8d 43 0a	 lea	 eax, DWORD PTR [ebx+10]
  00098	f3 0f 11 54 24
	08		 movss	 DWORD PTR [esp+8], xmm2
  0009e	0f 57 c9	 xorps	 xmm1, xmm1
  000a1	f3 0f 2a c8	 cvtsi2ss xmm1, eax
  000a5	f3 0f 11 44 24
	04		 movss	 DWORD PTR [esp+4], xmm0
  000ab	f3 0f 11 45 e8	 movss	 DWORD PTR tv226[ebp], xmm0
  000b0	f3 0f 11 4d e4	 movss	 DWORD PTR tv228[ebp], xmm1
  000b5	f3 0f 11 0c 24	 movss	 DWORD PTR [esp], xmm1
  000ba	ff d6		 call	 esi
  000bc	8b 3d 00 00 00
	00		 mov	 edi, DWORD PTR __imp_?PrintText@ioFontManager@@QAAXMMMPBDZZ
  000c2	50		 push	 eax
  000c3	ff d7		 call	 edi

; 143  : 	g_FontMgr.PrintText( iXPos + 200, iYPos + 55, FONT_SIZE_13, "RecvList" );		

  000c5	f3 0f 10 0d 00
	00 00 00	 movss	 xmm1, DWORD PTR __real@3f266666
  000cd	83 c4 14	 add	 esp, 20			; 00000014H
  000d0	68 00 00 00 00	 push	 OFFSET ??_C@_08HMLFPDOA@RecvList?$AA@
  000d5	83 ec 0c	 sub	 esp, 12			; 0000000cH
  000d8	f3 0f 11 4c 24
	08		 movss	 DWORD PTR [esp+8], xmm1
  000de	f3 0f 10 4d e8	 movss	 xmm1, DWORD PTR tv226[ebp]
  000e3	81 c3 c8 00 00
	00		 add	 ebx, 200		; 000000c8H
  000e9	0f 57 c0	 xorps	 xmm0, xmm0
  000ec	f3 0f 2a c3	 cvtsi2ss xmm0, ebx
  000f0	f3 0f 11 4c 24
	04		 movss	 DWORD PTR [esp+4], xmm1
  000f6	f3 0f 11 45 e0	 movss	 DWORD PTR tv230[ebp], xmm0
  000fb	f3 0f 11 04 24	 movss	 DWORD PTR [esp], xmm0
  00100	ff d6		 call	 esi
  00102	50		 push	 eax
  00103	ff d7		 call	 edi
  00105	8b 45 ec	 mov	 eax, DWORD PTR _iYPos$[ebp]

; 144  : 
; 145  : 	int i = 0;
; 146  : 	for(i = 0;i < ioP2PChecker::MAX_SEND_HIGH_SIZE;i++)

  00108	83 65 f0 00	 and	 DWORD PTR _i$[ebp], 0
  0010c	8b 1d 00 00 00
	00		 mov	 ebx, DWORD PTR __imp_??1ioHashString@@QAE@XZ
  00112	83 c4 14	 add	 esp, 20			; 00000014H
  00115	83 c0 4b	 add	 eax, 75			; 0000004bH
  00118	89 45 ec	 mov	 DWORD PTR tv259[ebp], eax
$LN3@OnRender:

; 147  : 	{
; 148  : 		g_FontMgr.PrintText( iXPos + 10, iYPos + 75 + (i*20), FONT_SIZE_13, g_P2PChecker.SendPacketLog(i).c_str() );		

  0011b	ff 75 f0	 push	 DWORD PTR _i$[ebp]
  0011e	8d 45 d0	 lea	 eax, DWORD PTR $T537106[ebp]
  00121	50		 push	 eax
  00122	e8 00 00 00 00	 call	 ?GetSingleton@ioP2PChecker@@SAAAV1@XZ ; ioP2PChecker::GetSingleton
  00127	8b c8		 mov	 ecx, eax
  00129	e8 00 00 00 00	 call	 ?SendPacketLog@ioP2PChecker@@QAE?AVioHashString@@H@Z ; ioP2PChecker::SendPacketLog
  0012e	66 0f 6e 45 ec	 movd	 xmm0, DWORD PTR tv259[ebp]
  00133	83 65 fc 00	 and	 DWORD PTR __$EHRec$[ebp+8], 0
  00137	0f 5b c0	 cvtdq2ps xmm0, xmm0
  0013a	8b c8		 mov	 ecx, eax
  0013c	f3 0f 11 45 e8	 movss	 DWORD PTR tv261[ebp], xmm0
  00141	ff 15 00 00 00
	00		 call	 DWORD PTR __imp_?c_str@ioHashString@@QBEPBDXZ
  00147	f3 0f 10 05 00
	00 00 00	 movss	 xmm0, DWORD PTR __real@3f266666
  0014f	50		 push	 eax
  00150	83 ec 0c	 sub	 esp, 12			; 0000000cH
  00153	f3 0f 11 44 24
	08		 movss	 DWORD PTR [esp+8], xmm0
  00159	f3 0f 10 45 e8	 movss	 xmm0, DWORD PTR tv261[ebp]
  0015e	f3 0f 11 44 24
	04		 movss	 DWORD PTR [esp+4], xmm0
  00164	f3 0f 10 45 e4	 movss	 xmm0, DWORD PTR tv228[ebp]
  00169	f3 0f 11 04 24	 movss	 DWORD PTR [esp], xmm0
  0016e	ff d6		 call	 esi
  00170	50		 push	 eax
  00171	ff d7		 call	 edi
  00173	83 4d fc ff	 or	 DWORD PTR __$EHRec$[ebp+8], -1
  00177	83 c4 14	 add	 esp, 20			; 00000014H
  0017a	8d 4d d0	 lea	 ecx, DWORD PTR $T537106[ebp]
  0017d	ff d3		 call	 ebx

; 149  : 		g_FontMgr.PrintText( iXPos + 200, iYPos + 75 + (i*20), FONT_SIZE_13, g_P2PChecker.RecvPacketLog(i).c_str() );		

  0017f	ff 75 f0	 push	 DWORD PTR _i$[ebp]
  00182	8d 45 c0	 lea	 eax, DWORD PTR $T537107[ebp]
  00185	50		 push	 eax
  00186	e8 00 00 00 00	 call	 ?GetSingleton@ioP2PChecker@@SAAAV1@XZ ; ioP2PChecker::GetSingleton
  0018b	8b c8		 mov	 ecx, eax
  0018d	e8 00 00 00 00	 call	 ?RecvPacketLog@ioP2PChecker@@QAE?AVioHashString@@H@Z ; ioP2PChecker::RecvPacketLog
  00192	8b c8		 mov	 ecx, eax
  00194	c7 45 fc 01 00
	00 00		 mov	 DWORD PTR __$EHRec$[ebp+8], 1
  0019b	ff 15 00 00 00
	00		 call	 DWORD PTR __imp_?c_str@ioHashString@@QBEPBDXZ
  001a1	f3 0f 10 05 00
	00 00 00	 movss	 xmm0, DWORD PTR __real@3f266666
  001a9	50		 push	 eax
  001aa	83 ec 0c	 sub	 esp, 12			; 0000000cH
  001ad	f3 0f 11 44 24
	08		 movss	 DWORD PTR [esp+8], xmm0
  001b3	f3 0f 10 45 e8	 movss	 xmm0, DWORD PTR tv261[ebp]
  001b8	f3 0f 11 44 24
	04		 movss	 DWORD PTR [esp+4], xmm0
  001be	f3 0f 10 45 e0	 movss	 xmm0, DWORD PTR tv230[ebp]
  001c3	f3 0f 11 04 24	 movss	 DWORD PTR [esp], xmm0
  001c8	ff d6		 call	 esi
  001ca	50		 push	 eax
  001cb	ff d7		 call	 edi
  001cd	83 4d fc ff	 or	 DWORD PTR __$EHRec$[ebp+8], -1
  001d1	83 c4 14	 add	 esp, 20			; 00000014H
  001d4	8d 4d c0	 lea	 ecx, DWORD PTR $T537107[ebp]
  001d7	ff d3		 call	 ebx
  001d9	ff 45 f0	 inc	 DWORD PTR _i$[ebp]
  001dc	83 45 ec 14	 add	 DWORD PTR tv259[ebp], 20 ; 00000014H
  001e0	83 7d f0 0a	 cmp	 DWORD PTR _i$[ebp], 10	; 0000000aH
  001e4	0f 8c 31 ff ff
	ff		 jl	 $LN3@OnRender

; 150  : 	}	
; 151  : }

  001ea	e8 00 00 00 00	 call	 __EH_epilog3
  001ef	c3		 ret	 0
_TEXT	ENDS
;	COMDAT text$x
text$x	SEGMENT
__unwindfunclet$?OnRender@DeveloperP2PWnd@@MAEXXZ$0:
  00000	8d 4d d0	 lea	 ecx, DWORD PTR $T537106[ebp]
  00003	ff 25 00 00 00
	00		 jmp	 DWORD PTR __imp_??1ioHashString@@QAE@XZ
__unwindfunclet$?OnRender@DeveloperP2PWnd@@MAEXXZ$1:
  00009	8d 4d c0	 lea	 ecx, DWORD PTR $T537107[ebp]
  0000c	ff 25 00 00 00
	00		 jmp	 DWORD PTR __imp_??1ioHashString@@QAE@XZ
__ehhandler$?OnRender@DeveloperP2PWnd@@MAEXXZ:
  00012	8b 54 24 08	 mov	 edx, DWORD PTR [esp+8]
  00016	8d 42 0c	 lea	 eax, DWORD PTR [edx+12]
  00019	8b 4a bc	 mov	 ecx, DWORD PTR [edx-68]
  0001c	33 c8		 xor	 ecx, eax
  0001e	e8 00 00 00 00	 call	 @__security_check_cookie@4
  00023	b8 00 00 00 00	 mov	 eax, OFFSET __ehfuncinfo$?OnRender@DeveloperP2PWnd@@MAEXXZ
  00028	e9 00 00 00 00	 jmp	 ___CxxFrameHandler3
text$x	ENDS
?OnRender@DeveloperP2PWnd@@MAEXXZ ENDP			; DeveloperP2PWnd::OnRender
PUBLIC	??_7DeveloperFrameWnd@@6B@			; DeveloperFrameWnd::`vftable'
PUBLIC	??0DeveloperFrameWnd@@QAE@XZ			; DeveloperFrameWnd::DeveloperFrameWnd
PUBLIC	??_R4DeveloperFrameWnd@@6B@			; DeveloperFrameWnd::`RTTI Complete Object Locator'
PUBLIC	??_R0?AVDeveloperFrameWnd@@@8			; DeveloperFrameWnd `RTTI Type Descriptor'
PUBLIC	??_R3DeveloperFrameWnd@@8			; DeveloperFrameWnd::`RTTI Class Hierarchy Descriptor'
PUBLIC	??_R2DeveloperFrameWnd@@8			; DeveloperFrameWnd::`RTTI Base Class Array'
PUBLIC	??_R1A@?0A@EA@DeveloperFrameWnd@@8		; DeveloperFrameWnd::`RTTI Base Class Descriptor at (0,-1,0,64)'
PUBLIC	?OnRender@DeveloperFrameWnd@@MAEXXZ		; DeveloperFrameWnd::OnRender
PUBLIC	?iwm_command@DeveloperFrameWnd@@UAEXPAVioWnd@@HK@Z ; DeveloperFrameWnd::iwm_command
PUBLIC	?iwm_show@DeveloperFrameWnd@@UAEXXZ		; DeveloperFrameWnd::iwm_show
PUBLIC	?iwm_hide@DeveloperFrameWnd@@UAEXXZ		; DeveloperFrameWnd::iwm_hide
EXTRN	??_EDeveloperFrameWnd@@UAEPAXI@Z:PROC		; DeveloperFrameWnd::`vector deleting destructor'
;	COMDAT ??_R1A@?0A@EA@DeveloperFrameWnd@@8
rdata$r	SEGMENT
??_R1A@?0A@EA@DeveloperFrameWnd@@8 DD FLAT:??_R0?AVDeveloperFrameWnd@@@8 ; DeveloperFrameWnd::`RTTI Base Class Descriptor at (0,-1,0,64)'
	DD	01H
	DD	00H
	DD	0ffffffffH
	DD	00H
	DD	040H
	DD	FLAT:??_R3DeveloperFrameWnd@@8
rdata$r	ENDS
;	COMDAT ??_R2DeveloperFrameWnd@@8
rdata$r	SEGMENT
??_R2DeveloperFrameWnd@@8 DD FLAT:??_R1A@?0A@EA@DeveloperFrameWnd@@8 ; DeveloperFrameWnd::`RTTI Base Class Array'
	DD	FLAT:??_R1A@?0A@EA@ioWnd@@8
rdata$r	ENDS
;	COMDAT ??_R3DeveloperFrameWnd@@8
rdata$r	SEGMENT
??_R3DeveloperFrameWnd@@8 DD 00H			; DeveloperFrameWnd::`RTTI Class Hierarchy Descriptor'
	DD	00H
	DD	02H
	DD	FLAT:??_R2DeveloperFrameWnd@@8
rdata$r	ENDS
;	COMDAT ??_R0?AVDeveloperFrameWnd@@@8
_DATA	SEGMENT
??_R0?AVDeveloperFrameWnd@@@8 DD FLAT:??_7type_info@@6B@ ; DeveloperFrameWnd `RTTI Type Descriptor'
	DD	00H
	DB	'.?AVDeveloperFrameWnd@@', 00H
_DATA	ENDS
;	COMDAT ??_R4DeveloperFrameWnd@@6B@
rdata$r	SEGMENT
??_R4DeveloperFrameWnd@@6B@ DD 00H			; DeveloperFrameWnd::`RTTI Complete Object Locator'
	DD	00H
	DD	00H
	DD	FLAT:??_R0?AVDeveloperFrameWnd@@@8
	DD	FLAT:??_R3DeveloperFrameWnd@@8
rdata$r	ENDS
;	COMDAT ??_7DeveloperFrameWnd@@6B@
CONST	SEGMENT
??_7DeveloperFrameWnd@@6B@ DD FLAT:??_R4DeveloperFrameWnd@@6B@ ; DeveloperFrameWnd::`vftable'
	DD	FLAT:?AddRenderFrame@ioWnd@@UAEXABVioHashString@@PAVioUIRenderFrame@@@Z
	DD	FLAT:?AddRenderImage@ioWnd@@UAEXABVioHashString@@PAVioUIRenderImage@@@Z
	DD	FLAT:?AddTooltipHelp@ioWnd@@UAEXABVioHashString@@00@Z
	DD	FLAT:?ParseExtraInfo@ioWnd@@UAEXAAVioXMLElement@@@Z
	DD	FLAT:?AddNamedRenderImage@ioWnd@@UAEXABVioHashString@@PAVioUIRenderImage@@@Z
	DD	FLAT:?RemoveNamedRenderImage@ioWnd@@UAEXABVioHashString@@@Z
	DD	FLAT:?GetNamedRenderImage@ioWnd@@UBEPAVioUIRenderImage@@ABVioHashString@@@Z
	DD	FLAT:?SetWindowAlpha@ioWnd@@UAEXH@Z
	DD	FLAT:?SetActive@ioWnd@@UAEXXZ
	DD	FLAT:?SetInActive@ioWnd@@UAEXXZ
	DD	FLAT:?ClearElementImageList@ioWnd@@UAEXXZ
	DD	FLAT:?SetSize@ioWnd@@UAEXHH@Z
	DD	FLAT:?SetPositionToDefault@ioWnd@@UAEXHH_N0@Z
	DD	FLAT:?IsNeedProcess@ioWnd@@UBE_NXZ
	DD	FLAT:?IsCanMouseReaction@ioWnd@@UBE_NXZ
	DD	FLAT:?AddChild@ioWnd@@UAEXPAV1@@Z
	DD	FLAT:?DeleteChild@ioWnd@@UAEXK@Z
	DD	FLAT:?DeleteAllChild@ioWnd@@UAEXXZ
	DD	FLAT:?OnRenderShowAndHide@ioWnd@@MAE_NXZ
	DD	FLAT:?OnRenderShowAndHideByDefault@ioWnd@@MAE_NK@Z
	DD	FLAT:?OnRenderShowAndHideByTop@ioWnd@@MAE_NK@Z
	DD	FLAT:?OnRenderShowAndHideByDown@ioWnd@@MAE_NK@Z
	DD	FLAT:?OnRender@DeveloperFrameWnd@@MAEXXZ
	DD	FLAT:?OnRenderAfterChild@ioWnd@@MAEXXZ
	DD	FLAT:?OnProcess@ioWnd@@MAEXM@Z
	DD	FLAT:?OnMouseProcess@ioWnd@@MAEXABVioMouse@@@Z
	DD	FLAT:?CheckFrameReSize@ioWnd@@MAEXHHHH@Z
	DD	FLAT:?RenderImageList@ioWnd@@MAEXHHW4UIRenderType@@@Z
	DD	FLAT:?iwm_create@ioWnd@@UAEXXZ
	DD	FLAT:?iwm_destroy@ioWnd@@UAEXXZ
	DD	FLAT:?iwm_lbuttondown@ioWnd@@UAEXABVioMouse@@@Z
	DD	FLAT:?iwm_lbuttonup@ioWnd@@UAEXABVioMouse@@@Z
	DD	FLAT:?iwm_lbuttonDBLCLK@ioWnd@@UAEXABVioMouse@@@Z
	DD	FLAT:?iwm_rbuttondown@ioWnd@@UAEXABVioMouse@@@Z
	DD	FLAT:?iwm_rbuttonup@ioWnd@@UAEXABVioMouse@@@Z
	DD	FLAT:?iwm_command@DeveloperFrameWnd@@UAEXPAVioWnd@@HK@Z
	DD	FLAT:?iwm_mouseover@ioWnd@@UAEXABVioMouse@@@Z
	DD	FLAT:?iwm_mousemove@ioWnd@@UAEXABVioMouse@@@Z
	DD	FLAT:?iwm_mouseleave@ioWnd@@UAEXABVioMouse@@@Z
	DD	FLAT:?iwm_vscroll@ioWnd@@UAEXKH@Z
	DD	FLAT:?iwm_wheel@ioWnd@@UAEXH@Z
	DD	FLAT:?iwm_show@DeveloperFrameWnd@@UAEXXZ
	DD	FLAT:?iwm_hide@DeveloperFrameWnd@@UAEXXZ
	DD	FLAT:?iwm_esc@ioWnd@@UAE_NXZ
	DD	FLAT:?iwm_spacebar@ioWnd@@UAE_NXZ
	DD	FLAT:?iwm_gototop@ioWnd@@UAEXXZ
	DD	FLAT:?iwm_dragenter@ioWnd@@UAE?AW4IWDropEffect@@PAVioDragItem@@ABVioMouse@@@Z
	DD	FLAT:?iwm_dragover@ioWnd@@UAE?AW4IWDropEffect@@PAVioDragItem@@ABVioMouse@@@Z
	DD	FLAT:?iwm_dragleave@ioWnd@@UAEXXZ
	DD	FLAT:?iwm_dropitem@ioWnd@@UAE_NPAVioDragItem@@ABVioMouse@@PAV1@@Z
	DD	FLAT:?iwm_dropdone@ioWnd@@UAEXPAVioDragItem@@PAV1@_N@Z
	DD	FLAT:?IsEXType@ioWnd@@UBE_NXZ
	DD	FLAT:?GetWndType@ioWnd@@UBEKXZ
	DD	FLAT:?RenderWnd@ioWnd@@UAEXXZ
	DD	FLAT:?SetIDEX@ioWnd@@UAEXAAK_N@Z
	DD	FLAT:?ParseXML@ioWnd@@UAEXAAVioXMLElement@@@Z
	DD	FLAT:?GetHeaderFileName@ioWnd@@UAEPBDXZ
	DD	FLAT:?GetTemplateName@ioWnd@@UAEPBDXZ
	DD	FLAT:?GetDefClassName@ioWnd@@UBEPBDXZ
	DD	FLAT:?_Clone@ioWnd@@UAEPAV1@XZ
	DD	FLAT:?Copy@ioWnd@@UAEXPAV1@@Z
	DD	FLAT:?Save@ioWnd@@UAE_NAAVioXMLElement@@@Z
	DD	FLAT:?SetSaveData@ioWnd@@UAEXAAVioXMLElement@@@Z
	DD	FLAT:?SetPosX@ioWnd@@UAEXH@Z
	DD	FLAT:?SetPosY@ioWnd@@UAEXH@Z
	DD	FLAT:?SetWidth@ioWnd@@UAEXH@Z
	DD	FLAT:?SetHeight@ioWnd@@UAEXH@Z
	DD	FLAT:?GetNumFixedRenderFrame@ioWnd@@UBEHXZ
	DD	FLAT:?GetFixedRenderFrameType@ioWnd@@UAEPBDH@Z
	DD	FLAT:?GetRenderFrame@ioWnd@@UAEPAPAVioUIRenderElement@@PBD@Z
	DD	FLAT:?GetNumFixedRenderImage@ioWnd@@UBEHXZ
	DD	FLAT:?GetFixedRenderImageType@ioWnd@@UAEPBDH@Z
	DD	FLAT:?GetRenderImage@ioWnd@@UAEPAPAVioUIRenderElement@@PBD@Z
	DD	FLAT:?AddEffect@ioWnd@@UAEXABVioHashString@@PAVioUI3DEffectRender@@@Z
	DD	FLAT:?GetEffect@ioWnd@@UAEPAVioUI3DEffectRender@@VioHashString@@@Z
	DD	FLAT:??_EDeveloperFrameWnd@@UAEPAXI@Z
; Function compile flags: /Ogsp
CONST	ENDS
;	COMDAT ??0DeveloperFrameWnd@@QAE@XZ
_TEXT	SEGMENT
??0DeveloperFrameWnd@@QAE@XZ PROC			; DeveloperFrameWnd::DeveloperFrameWnd, COMDAT
; _this$ = ecx

; 154  : {

  00000	56		 push	 esi
  00001	8b f1		 mov	 esi, ecx
  00003	ff 15 00 00 00
	00		 call	 DWORD PTR __imp_??0ioWnd@@QAE@XZ
  00009	c7 06 00 00 00
	00		 mov	 DWORD PTR [esi], OFFSET ??_7DeveloperFrameWnd@@6B@

; 155  : }

  0000f	8b c6		 mov	 eax, esi
  00011	5e		 pop	 esi
  00012	c3		 ret	 0
??0DeveloperFrameWnd@@QAE@XZ ENDP			; DeveloperFrameWnd::DeveloperFrameWnd
_TEXT	ENDS
PUBLIC	??1DeveloperFrameWnd@@UAE@XZ			; DeveloperFrameWnd::~DeveloperFrameWnd
; Function compile flags: /Ogsp
;	COMDAT ??1DeveloperFrameWnd@@UAE@XZ
_TEXT	SEGMENT
??1DeveloperFrameWnd@@UAE@XZ PROC			; DeveloperFrameWnd::~DeveloperFrameWnd, COMDAT
; _this$ = ecx

; 158  : {

  00000	c7 01 00 00 00
	00		 mov	 DWORD PTR [ecx], OFFSET ??_7DeveloperFrameWnd@@6B@

; 159  : }

  00006	ff 25 00 00 00
	00		 jmp	 DWORD PTR __imp_??1ioWnd@@UAE@XZ
??1DeveloperFrameWnd@@UAE@XZ ENDP			; DeveloperFrameWnd::~DeveloperFrameWnd
; Function compile flags: /Ogsp
_TEXT	ENDS
;	COMDAT ?iwm_show@DeveloperFrameWnd@@UAEXXZ
_TEXT	SEGMENT
?iwm_show@DeveloperFrameWnd@@UAEXXZ PROC		; DeveloperFrameWnd::iwm_show, COMDAT
; _this$ = ecx

; 163  : //	g_TimeReport.SetReportOnOff( true, 100 );
; 164  : }

  00000	c3		 ret	 0
?iwm_show@DeveloperFrameWnd@@UAEXXZ ENDP		; DeveloperFrameWnd::iwm_show
; Function compile flags: /Ogsp
_TEXT	ENDS
;	COMDAT ?iwm_hide@DeveloperFrameWnd@@UAEXXZ
_TEXT	SEGMENT
?iwm_hide@DeveloperFrameWnd@@UAEXXZ PROC		; DeveloperFrameWnd::iwm_hide, COMDAT
; _this$ = ecx

; 168  : //	g_TimeReport.SetReportOnOff( false, 100 );
; 169  : }

  00000	c3		 ret	 0
?iwm_hide@DeveloperFrameWnd@@UAEXXZ ENDP		; DeveloperFrameWnd::iwm_hide
; Function compile flags: /Ogsp
_TEXT	ENDS
;	COMDAT ?iwm_command@DeveloperFrameWnd@@UAEXPAVioWnd@@HK@Z
_TEXT	SEGMENT
_pWnd$ = 8						; size = 4
_cmd$ = 12						; size = 4
_param$ = 16						; size = 4
?iwm_command@DeveloperFrameWnd@@UAEXPAVioWnd@@HK@Z PROC	; DeveloperFrameWnd::iwm_command, COMDAT
; _this$ = ecx

; 172  : {

  00000	55		 push	 ebp
  00001	8b ec		 mov	 ebp, esp
  00003	56		 push	 esi
  00004	8b f1		 mov	 esi, ecx

; 173  : 	DWORD dwID = pWnd->GetID();

  00006	8b 4d 08	 mov	 ecx, DWORD PTR _pWnd$[ebp]
  00009	ff 15 00 00 00
	00		 call	 DWORD PTR __imp_?GetID@ioWnd@@QBEKXZ

; 174  : 	switch( dwID )

  0000f	48		 dec	 eax
  00010	75 0e		 jne	 SHORT $LN1@iwm_comman@3

; 175  : 	{
; 176  : 	case ID_EXIT:
; 177  : 		if( cmd == IOBN_BTNUP )

  00012	83 7d 0c 11	 cmp	 DWORD PTR _cmd$[ebp], 17 ; 00000011H
  00016	75 08		 jne	 SHORT $LN1@iwm_comman@3

; 178  : 		{
; 179  : 			HideWnd();

  00018	8b ce		 mov	 ecx, esi
  0001a	ff 15 00 00 00
	00		 call	 DWORD PTR __imp_?HideWnd@ioWnd@@QAEXXZ
$LN1@iwm_comman@3:
  00020	5e		 pop	 esi

; 180  : 		}
; 181  : 		break;
; 182  : 	}
; 183  : }

  00021	5d		 pop	 ebp
  00022	c2 0c 00	 ret	 12			; 0000000cH
?iwm_command@DeveloperFrameWnd@@UAEXPAVioWnd@@HK@Z ENDP	; DeveloperFrameWnd::iwm_command
; Function compile flags: /Ogsp
_TEXT	ENDS
;	COMDAT ?OnRender@DeveloperFrameWnd@@MAEXXZ
_TEXT	SEGMENT
?OnRender@DeveloperFrameWnd@@MAEXXZ PROC		; DeveloperFrameWnd::OnRender, COMDAT
; _this$ = ecx

; 187  : 	ioWnd::OnRender();

  00000	ff 25 00 00 00
	00		 jmp	 DWORD PTR __imp_?OnRender@ioWnd@@MAEXXZ
?OnRender@DeveloperFrameWnd@@MAEXXZ ENDP		; DeveloperFrameWnd::OnRender
_TEXT	ENDS
PUBLIC	??_7FontTextureTestWnd@@6B@			; FontTextureTestWnd::`vftable'
PUBLIC	__real@3f000000
PUBLIC	??0FontTextureTestWnd@@QAE@XZ			; FontTextureTestWnd::FontTextureTestWnd
PUBLIC	??_R4FontTextureTestWnd@@6B@			; FontTextureTestWnd::`RTTI Complete Object Locator'
PUBLIC	??_R0?AVFontTextureTestWnd@@@8			; FontTextureTestWnd `RTTI Type Descriptor'
PUBLIC	??_R3FontTextureTestWnd@@8			; FontTextureTestWnd::`RTTI Class Hierarchy Descriptor'
PUBLIC	??_R2FontTextureTestWnd@@8			; FontTextureTestWnd::`RTTI Base Class Array'
PUBLIC	??_R1A@?0A@EA@FontTextureTestWnd@@8		; FontTextureTestWnd::`RTTI Base Class Descriptor at (0,-1,0,64)'
EXTRN	?OnRender@ioWnd@@MAEXXZ:PROC			; ioWnd::OnRender
EXTRN	?iwm_command@ioWnd@@UAEXPAV1@HK@Z:PROC		; ioWnd::iwm_command
EXTRN	??_EFontTextureTestWnd@@UAEPAXI@Z:PROC		; FontTextureTestWnd::`vector deleting destructor'
;	COMDAT ??_R1A@?0A@EA@FontTextureTestWnd@@8
rdata$r	SEGMENT
??_R1A@?0A@EA@FontTextureTestWnd@@8 DD FLAT:??_R0?AVFontTextureTestWnd@@@8 ; FontTextureTestWnd::`RTTI Base Class Descriptor at (0,-1,0,64)'
	DD	01H
	DD	00H
	DD	0ffffffffH
	DD	00H
	DD	040H
	DD	FLAT:??_R3FontTextureTestWnd@@8
rdata$r	ENDS
;	COMDAT ??_R2FontTextureTestWnd@@8
rdata$r	SEGMENT
??_R2FontTextureTestWnd@@8 DD FLAT:??_R1A@?0A@EA@FontTextureTestWnd@@8 ; FontTextureTestWnd::`RTTI Base Class Array'
	DD	FLAT:??_R1A@?0A@EA@ioWnd@@8
rdata$r	ENDS
;	COMDAT ??_R3FontTextureTestWnd@@8
rdata$r	SEGMENT
??_R3FontTextureTestWnd@@8 DD 00H			; FontTextureTestWnd::`RTTI Class Hierarchy Descriptor'
	DD	00H
	DD	02H
	DD	FLAT:??_R2FontTextureTestWnd@@8
rdata$r	ENDS
;	COMDAT ??_R0?AVFontTextureTestWnd@@@8
_DATA	SEGMENT
??_R0?AVFontTextureTestWnd@@@8 DD FLAT:??_7type_info@@6B@ ; FontTextureTestWnd `RTTI Type Descriptor'
	DD	00H
	DB	'.?AVFontTextureTestWnd@@', 00H
_DATA	ENDS
;	COMDAT ??_R4FontTextureTestWnd@@6B@
rdata$r	SEGMENT
??_R4FontTextureTestWnd@@6B@ DD 00H			; FontTextureTestWnd::`RTTI Complete Object Locator'
	DD	00H
	DD	00H
	DD	FLAT:??_R0?AVFontTextureTestWnd@@@8
	DD	FLAT:??_R3FontTextureTestWnd@@8
rdata$r	ENDS
;	COMDAT ??_7FontTextureTestWnd@@6B@
CONST	SEGMENT
??_7FontTextureTestWnd@@6B@ DD FLAT:??_R4FontTextureTestWnd@@6B@ ; FontTextureTestWnd::`vftable'
	DD	FLAT:?AddRenderFrame@ioWnd@@UAEXABVioHashString@@PAVioUIRenderFrame@@@Z
	DD	FLAT:?AddRenderImage@ioWnd@@UAEXABVioHashString@@PAVioUIRenderImage@@@Z
	DD	FLAT:?AddTooltipHelp@ioWnd@@UAEXABVioHashString@@00@Z
	DD	FLAT:?ParseExtraInfo@ioWnd@@UAEXAAVioXMLElement@@@Z
	DD	FLAT:?AddNamedRenderImage@ioWnd@@UAEXABVioHashString@@PAVioUIRenderImage@@@Z
	DD	FLAT:?RemoveNamedRenderImage@ioWnd@@UAEXABVioHashString@@@Z
	DD	FLAT:?GetNamedRenderImage@ioWnd@@UBEPAVioUIRenderImage@@ABVioHashString@@@Z
	DD	FLAT:?SetWindowAlpha@ioWnd@@UAEXH@Z
	DD	FLAT:?SetActive@ioWnd@@UAEXXZ
	DD	FLAT:?SetInActive@ioWnd@@UAEXXZ
	DD	FLAT:?ClearElementImageList@ioWnd@@UAEXXZ
	DD	FLAT:?SetSize@ioWnd@@UAEXHH@Z
	DD	FLAT:?SetPositionToDefault@ioWnd@@UAEXHH_N0@Z
	DD	FLAT:?IsNeedProcess@ioWnd@@UBE_NXZ
	DD	FLAT:?IsCanMouseReaction@ioWnd@@UBE_NXZ
	DD	FLAT:?AddChild@ioWnd@@UAEXPAV1@@Z
	DD	FLAT:?DeleteChild@ioWnd@@UAEXK@Z
	DD	FLAT:?DeleteAllChild@ioWnd@@UAEXXZ
	DD	FLAT:?OnRenderShowAndHide@ioWnd@@MAE_NXZ
	DD	FLAT:?OnRenderShowAndHideByDefault@ioWnd@@MAE_NK@Z
	DD	FLAT:?OnRenderShowAndHideByTop@ioWnd@@MAE_NK@Z
	DD	FLAT:?OnRenderShowAndHideByDown@ioWnd@@MAE_NK@Z
	DD	FLAT:?OnRender@ioWnd@@MAEXXZ
	DD	FLAT:?OnRenderAfterChild@ioWnd@@MAEXXZ
	DD	FLAT:?OnProcess@ioWnd@@MAEXM@Z
	DD	FLAT:?OnMouseProcess@ioWnd@@MAEXABVioMouse@@@Z
	DD	FLAT:?CheckFrameReSize@ioWnd@@MAEXHHHH@Z
	DD	FLAT:?RenderImageList@ioWnd@@MAEXHHW4UIRenderType@@@Z
	DD	FLAT:?iwm_create@ioWnd@@UAEXXZ
	DD	FLAT:?iwm_destroy@ioWnd@@UAEXXZ
	DD	FLAT:?iwm_lbuttondown@ioWnd@@UAEXABVioMouse@@@Z
	DD	FLAT:?iwm_lbuttonup@ioWnd@@UAEXABVioMouse@@@Z
	DD	FLAT:?iwm_lbuttonDBLCLK@ioWnd@@UAEXABVioMouse@@@Z
	DD	FLAT:?iwm_rbuttondown@ioWnd@@UAEXABVioMouse@@@Z
	DD	FLAT:?iwm_rbuttonup@ioWnd@@UAEXABVioMouse@@@Z
	DD	FLAT:?iwm_command@ioWnd@@UAEXPAV1@HK@Z
	DD	FLAT:?iwm_mouseover@ioWnd@@UAEXABVioMouse@@@Z
	DD	FLAT:?iwm_mousemove@ioWnd@@UAEXABVioMouse@@@Z
	DD	FLAT:?iwm_mouseleave@ioWnd@@UAEXABVioMouse@@@Z
	DD	FLAT:?iwm_vscroll@ioWnd@@UAEXKH@Z
	DD	FLAT:?iwm_wheel@ioWnd@@UAEXH@Z
	DD	FLAT:?iwm_show@ioWnd@@UAEXXZ
	DD	FLAT:?iwm_hide@ioWnd@@UAEXXZ
	DD	FLAT:?iwm_esc@ioWnd@@UAE_NXZ
	DD	FLAT:?iwm_spacebar@ioWnd@@UAE_NXZ
	DD	FLAT:?iwm_gototop@ioWnd@@UAEXXZ
	DD	FLAT:?iwm_dragenter@ioWnd@@UAE?AW4IWDropEffect@@PAVioDragItem@@ABVioMouse@@@Z
	DD	FLAT:?iwm_dragover@ioWnd@@UAE?AW4IWDropEffect@@PAVioDragItem@@ABVioMouse@@@Z
	DD	FLAT:?iwm_dragleave@ioWnd@@UAEXXZ
	DD	FLAT:?iwm_dropitem@ioWnd@@UAE_NPAVioDragItem@@ABVioMouse@@PAV1@@Z
	DD	FLAT:?iwm_dropdone@ioWnd@@UAEXPAVioDragItem@@PAV1@_N@Z
	DD	FLAT:?IsEXType@ioWnd@@UBE_NXZ
	DD	FLAT:?GetWndType@ioWnd@@UBEKXZ
	DD	FLAT:?RenderWnd@ioWnd@@UAEXXZ
	DD	FLAT:?SetIDEX@ioWnd@@UAEXAAK_N@Z
	DD	FLAT:?ParseXML@ioWnd@@UAEXAAVioXMLElement@@@Z
	DD	FLAT:?GetHeaderFileName@ioWnd@@UAEPBDXZ
	DD	FLAT:?GetTemplateName@ioWnd@@UAEPBDXZ
	DD	FLAT:?GetDefClassName@ioWnd@@UBEPBDXZ
	DD	FLAT:?_Clone@ioWnd@@UAEPAV1@XZ
	DD	FLAT:?Copy@ioWnd@@UAEXPAV1@@Z
	DD	FLAT:?Save@ioWnd@@UAE_NAAVioXMLElement@@@Z
	DD	FLAT:?SetSaveData@ioWnd@@UAEXAAVioXMLElement@@@Z
	DD	FLAT:?SetPosX@ioWnd@@UAEXH@Z
	DD	FLAT:?SetPosY@ioWnd@@UAEXH@Z
	DD	FLAT:?SetWidth@ioWnd@@UAEXH@Z
	DD	FLAT:?SetHeight@ioWnd@@UAEXH@Z
	DD	FLAT:?GetNumFixedRenderFrame@ioWnd@@UBEHXZ
	DD	FLAT:?GetFixedRenderFrameType@ioWnd@@UAEPBDH@Z
	DD	FLAT:?GetRenderFrame@ioWnd@@UAEPAPAVioUIRenderElement@@PBD@Z
	DD	FLAT:?GetNumFixedRenderImage@ioWnd@@UBEHXZ
	DD	FLAT:?GetFixedRenderImageType@ioWnd@@UAEPBDH@Z
	DD	FLAT:?GetRenderImage@ioWnd@@UAEPAPAVioUIRenderElement@@PBD@Z
	DD	FLAT:?AddEffect@ioWnd@@UAEXABVioHashString@@PAVioUI3DEffectRender@@@Z
	DD	FLAT:?GetEffect@ioWnd@@UAEPAVioUI3DEffectRender@@VioHashString@@@Z
	DD	FLAT:??_EFontTextureTestWnd@@UAEPAXI@Z
CONST	ENDS
;	COMDAT __real@3f000000
CONST	SEGMENT
__real@3f000000 DD 03f000000r			; 0.5
; Function compile flags: /Ogsp
CONST	ENDS
;	COMDAT ??0FontTextureTestWnd@@QAE@XZ
_TEXT	SEGMENT
??0FontTextureTestWnd@@QAE@XZ PROC			; FontTextureTestWnd::FontTextureTestWnd, COMDAT
; _this$ = ecx

; 211  : {

  00000	56		 push	 esi
  00001	8b f1		 mov	 esi, ecx
  00003	ff 15 00 00 00
	00		 call	 DWORD PTR __imp_??0ioWnd@@QAE@XZ

; 212  : 	m_fFontScale = FONT_SIZE_10;

  00009	f3 0f 10 05 00
	00 00 00	 movss	 xmm0, DWORD PTR __real@3f000000
  00011	c7 06 00 00 00
	00		 mov	 DWORD PTR [esi], OFFSET ??_7FontTextureTestWnd@@6B@
  00017	f3 0f 11 86 60
	01 00 00	 movss	 DWORD PTR [esi+352], xmm0

; 213  : }

  0001f	8b c6		 mov	 eax, esi
  00021	5e		 pop	 esi
  00022	c3		 ret	 0
??0FontTextureTestWnd@@QAE@XZ ENDP			; FontTextureTestWnd::FontTextureTestWnd
_TEXT	ENDS
PUBLIC	??1FontTextureTestWnd@@UAE@XZ			; FontTextureTestWnd::~FontTextureTestWnd
; Function compile flags: /Ogsp
;	COMDAT ??1FontTextureTestWnd@@UAE@XZ
_TEXT	SEGMENT
??1FontTextureTestWnd@@UAE@XZ PROC			; FontTextureTestWnd::~FontTextureTestWnd, COMDAT
; _this$ = ecx

; 216  : {

  00000	c7 01 00 00 00
	00		 mov	 DWORD PTR [ecx], OFFSET ??_7FontTextureTestWnd@@6B@

; 217  : 
; 218  : }

  00006	ff 25 00 00 00
	00		 jmp	 DWORD PTR __imp_??1ioWnd@@UAE@XZ
??1FontTextureTestWnd@@UAE@XZ ENDP			; FontTextureTestWnd::~FontTextureTestWnd
_TEXT	ENDS
PUBLIC	__real@4f800000
PUBLIC	?SetFontSize@FontTextureTestWnd@@QAEXH@Z	; FontTextureTestWnd::SetFontSize
EXTRN	__imp_?GetFontSize@ioFontManager@@QAEHXZ:PROC
;	COMDAT __real@4f800000
; File d:\lost saga for developer\youtube\tutorial\source\src\lsclient\stdafx.h
CONST	SEGMENT
__real@4f800000 DD 04f800000r			; 4.29497e+009
; Function compile flags: /Ogsp
; File d:\lost saga for developer\youtube\tutorial\source\src\lsclient\gui\debuginfownd.cpp
CONST	ENDS
;	COMDAT ?SetFontSize@FontTextureTestWnd@@QAEXH@Z
_TEXT	SEGMENT
tv130 = -8						; size = 8
tv135 = 8						; size = 4
_iSize$ = 8						; size = 4
?SetFontSize@FontTextureTestWnd@@QAEXH@Z PROC		; FontTextureTestWnd::SetFontSize, COMDAT
; _this$ = ecx

; 221  : {

  00000	55		 push	 ebp
  00001	8b ec		 mov	 ebp, esp
  00003	51		 push	 ecx
  00004	51		 push	 ecx

; 222  : 	if( iSize == 0 )

  00005	83 7d 08 00	 cmp	 DWORD PTR _iSize$[ebp], 0
  00009	56		 push	 esi
  0000a	8b f1		 mov	 esi, ecx
  0000c	75 1d		 jne	 SHORT $LN2@SetFontSiz

; 223  : 		m_fFontScale = FLOAT1;

  0000e	b8 01 00 00 00	 mov	 eax, 1
  00013	89 45 08	 mov	 DWORD PTR tv135[ebp], eax
  00016	db 45 08	 fild	 DWORD PTR tv135[ebp]
  00019	85 c0		 test	 eax, eax
  0001b	79 06		 jns	 SHORT $LN7@SetFontSiz
  0001d	d8 05 00 00 00
	00		 fadd	 DWORD PTR __real@4f800000
$LN7@SetFontSiz:
  00023	d9 9e 60 01 00
	00		 fstp	 DWORD PTR [esi+352]

; 224  : 	else

  00029	eb 3e		 jmp	 SHORT $LN1@SetFontSiz
$LN2@SetFontSiz:

; 225  : 		m_fFontScale = (float)iSize / (float)g_FontMgr.GetFontSize();

  0002b	66 0f 6e 45 08	 movd	 xmm0, DWORD PTR _iSize$[ebp]
  00030	0f 5b c0	 cvtdq2ps xmm0, xmm0
  00033	f3 0f 5a c0	 cvtss2sd xmm0, xmm0
  00037	f2 0f 11 45 f8	 movsd	 QWORD PTR tv130[ebp], xmm0
  0003c	ff 15 00 00 00
	00		 call	 DWORD PTR __imp_?GetSingleton@ioFontManager@@SAAAV1@XZ
  00042	8b c8		 mov	 ecx, eax
  00044	ff 15 00 00 00
	00		 call	 DWORD PTR __imp_?GetFontSize@ioFontManager@@QAEHXZ
  0004a	f2 0f 10 4d f8	 movsd	 xmm1, QWORD PTR tv130[ebp]
  0004f	0f 57 c0	 xorps	 xmm0, xmm0
  00052	f3 0f 2a c0	 cvtsi2ss xmm0, eax
  00056	0f 5a c0	 cvtps2pd xmm0, xmm0
  00059	f2 0f 5e c8	 divsd	 xmm1, xmm0
  0005d	66 0f 5a c1	 cvtpd2ps xmm0, xmm1
  00061	f3 0f 11 86 60
	01 00 00	 movss	 DWORD PTR [esi+352], xmm0
$LN1@SetFontSiz:
  00069	5e		 pop	 esi

; 226  : }

  0006a	c9		 leave
  0006b	c2 04 00	 ret	 4
?SetFontSize@FontTextureTestWnd@@QAEXH@Z ENDP		; FontTextureTestWnd::SetFontSize
_TEXT	ENDS
PUBLIC	?FontTextureRender@FontTextureTestWnd@@QAEXXZ	; FontTextureTestWnd::FontTextureRender
EXTRN	__imp_?RenderTextTexture@ioFontManager@@QAEXHHM@Z:PROC
; Function compile flags: /Ogsp
;	COMDAT ?FontTextureRender@FontTextureTestWnd@@QAEXXZ
_TEXT	SEGMENT
?FontTextureRender@FontTextureTestWnd@@QAEXXZ PROC	; FontTextureTestWnd::FontTextureRender, COMDAT
; _this$ = ecx

; 229  : {

  00000	56		 push	 esi
  00001	57		 push	 edi
  00002	8b f1		 mov	 esi, ecx

; 230  : 	int iXPos, iYPos;
; 231  : 	iXPos = GetDerivedPosX();

  00004	ff 15 00 00 00
	00		 call	 DWORD PTR __imp_?GetDerivedPosX@ioWnd@@QBEHXZ

; 232  : 	iYPos = GetDerivedPosY();

  0000a	8b ce		 mov	 ecx, esi
  0000c	8b f8		 mov	 edi, eax
  0000e	ff 15 00 00 00
	00		 call	 DWORD PTR __imp_?GetDerivedPosY@ioWnd@@QBEHXZ

; 233  : 	g_FontMgr.RenderTextTexture( iXPos, iYPos, m_fFontScale );

  00014	f3 0f 10 86 60
	01 00 00	 movss	 xmm0, DWORD PTR [esi+352]
  0001c	51		 push	 ecx
  0001d	f3 0f 11 04 24	 movss	 DWORD PTR [esp], xmm0
  00022	50		 push	 eax
  00023	57		 push	 edi
  00024	ff 15 00 00 00
	00		 call	 DWORD PTR __imp_?GetSingleton@ioFontManager@@SAAAV1@XZ
  0002a	8b c8		 mov	 ecx, eax
  0002c	ff 15 00 00 00
	00		 call	 DWORD PTR __imp_?RenderTextTexture@ioFontManager@@QAEXHHM@Z
  00032	5f		 pop	 edi
  00033	5e		 pop	 esi

; 234  : }

  00034	c3		 ret	 0
?FontTextureRender@FontTextureTestWnd@@QAEXXZ ENDP	; FontTextureTestWnd::FontTextureRender
_TEXT	ENDS
PUBLIC	?_Adopt@_Iterator_base0@std@@QAEXPBX@Z		; std::_Iterator_base0::_Adopt
; Function compile flags: /Ogsp
; File c:\program files (x86)\microsoft visual studio 10.0\vc\include\xutility
;	COMDAT ?_Adopt@_Iterator_base0@std@@QAEXPBX@Z
_TEXT	SEGMENT
___formal$ = 8						; size = 4
?_Adopt@_Iterator_base0@std@@QAEXPBX@Z PROC		; std::_Iterator_base0::_Adopt, COMDAT
; _this$ = ecx

; 49   : 		}

  00000	c2 04 00	 ret	 4
?_Adopt@_Iterator_base0@std@@QAEXPBX@Z ENDP		; std::_Iterator_base0::_Adopt
_TEXT	ENDS
PUBLIC	??_R0?AVioEdit@@@8				; ioEdit `RTTI Type Descriptor'
PUBLIC	?EnableEditFocus@CharGameInfoListWnd@@QAEXK@Z	; CharGameInfoListWnd::EnableEditFocus
EXTRN	__imp_?m_pKeyFocusEdit@ioEdit@@2PAV1@A:DWORD
EXTRN	__imp_?IsShow@ioWnd@@QBE_NXZ:PROC
EXTRN	__imp_?FindChildWnd@ioWnd@@QAEPAV1@K@Z:PROC
EXTRN	___RTDynamicCast:PROC
;	COMDAT ??_R0?AVioEdit@@@8
; File d:\lost saga for developer\youtube\tutorial\source\src\lsclient\gui\debuginfownd.cpp
_DATA	SEGMENT
??_R0?AVioEdit@@@8 DD FLAT:??_7type_info@@6B@		; ioEdit `RTTI Type Descriptor'
	DD	00H
	DB	'.?AVioEdit@@', 00H
; Function compile flags: /Ogsp
_DATA	ENDS
;	COMDAT ?EnableEditFocus@CharGameInfoListWnd@@QAEXK@Z
_TEXT	SEGMENT
_dwEidtID$ = 8						; size = 4
?EnableEditFocus@CharGameInfoListWnd@@QAEXK@Z PROC	; CharGameInfoListWnd::EnableEditFocus, COMDAT
; _this$ = ecx

; 337  : {

  00000	55		 push	 ebp
  00001	8b ec		 mov	 ebp, esp
  00003	56		 push	 esi
  00004	57		 push	 edi

; 338  : 	ioEdit *pEdit = dynamic_cast<ioEdit*>( FindChildWnd( dwEidtID ) );

  00005	6a 00		 push	 0
  00007	68 00 00 00 00	 push	 OFFSET ??_R0?AVioEdit@@@8
  0000c	68 00 00 00 00	 push	 OFFSET ??_R0?AVioWnd@@@8
  00011	6a 00		 push	 0
  00013	ff 75 08	 push	 DWORD PTR _dwEidtID$[ebp]
  00016	8b f9		 mov	 edi, ecx
  00018	ff 15 00 00 00
	00		 call	 DWORD PTR __imp_?FindChildWnd@ioWnd@@QAEPAV1@K@Z
  0001e	50		 push	 eax
  0001f	e8 00 00 00 00	 call	 ___RTDynamicCast
  00024	8b f0		 mov	 esi, eax
  00026	83 c4 14	 add	 esp, 20			; 00000014H

; 339  : 	if( pEdit && pEdit->IsShow() )

  00029	85 f6		 test	 esi, esi
  0002b	74 2c		 je	 SHORT $LN2@EnableEdit
  0002d	8b ce		 mov	 ecx, esi
  0002f	ff 15 00 00 00
	00		 call	 DWORD PTR __imp_?IsShow@ioWnd@@QBE_NXZ
  00035	84 c0		 test	 al, al
  00037	74 20		 je	 SHORT $LN2@EnableEdit

; 340  : 	{
; 341  : 		if( m_pPreEdit != pEdit )

  00039	39 b7 b4 01 00
	00		 cmp	 DWORD PTR [edi+436], esi
  0003f	74 0e		 je	 SHORT $LN1@EnableEdit

; 342  : 			m_pPreEdit = ioEdit::m_pKeyFocusEdit;

  00041	8b 0d 00 00 00
	00		 mov	 ecx, DWORD PTR __imp_?m_pKeyFocusEdit@ioEdit@@2PAV1@A
  00047	8b 09		 mov	 ecx, DWORD PTR [ecx]
  00049	89 8f b4 01 00
	00		 mov	 DWORD PTR [edi+436], ecx
$LN1@EnableEdit:

; 343  : 				
; 344  : 		pEdit->SetKeyFocus();

  0004f	8b 06		 mov	 eax, DWORD PTR [esi]
  00051	8b ce		 mov	 ecx, esi
  00053	ff 90 30 01 00
	00		 call	 DWORD PTR [eax+304]
$LN2@EnableEdit:
  00059	5f		 pop	 edi
  0005a	5e		 pop	 esi

; 345  : 	}
; 346  : }

  0005b	5d		 pop	 ebp
  0005c	c2 04 00	 ret	 4
?EnableEditFocus@CharGameInfoListWnd@@QAEXK@Z ENDP	; CharGameInfoListWnd::EnableEditFocus
_TEXT	ENDS
PUBLIC	?DisableEditFocus@CharGameInfoListWnd@@QAEXXZ	; CharGameInfoListWnd::DisableEditFocus
EXTRN	__imp_?GetParent@ioWnd@@QAEPAV1@XZ:PROC
; Function compile flags: /Ogsp
;	COMDAT ?DisableEditFocus@CharGameInfoListWnd@@QAEXXZ
_TEXT	SEGMENT
?DisableEditFocus@CharGameInfoListWnd@@QAEXXZ PROC	; CharGameInfoListWnd::DisableEditFocus, COMDAT
; _this$ = ecx

; 349  : {

  00000	56		 push	 esi
  00001	57		 push	 edi
  00002	8b f9		 mov	 edi, ecx

; 350  : 	ioEdit* pEdit = dynamic_cast<ioEdit*>( m_pPreEdit );

  00004	8b b7 b4 01 00
	00		 mov	 esi, DWORD PTR [edi+436]

; 351  : 	if( pEdit )	

  0000a	85 f6		 test	 esi, esi
  0000c	74 22		 je	 SHORT $LN1@DisableEdi

; 352  : 	{
; 353  : 		ioWnd *pParent = pEdit->GetParent();

  0000e	8b ce		 mov	 ecx, esi
  00010	ff 15 00 00 00
	00		 call	 DWORD PTR __imp_?GetParent@ioWnd@@QAEPAV1@XZ

; 354  : 		if( pParent )

  00016	85 c0		 test	 eax, eax
  00018	74 16		 je	 SHORT $LN1@DisableEdi

; 355  : 		{
; 356  : 			if( pParent->IsShow() )

  0001a	8b c8		 mov	 ecx, eax
  0001c	ff 15 00 00 00
	00		 call	 DWORD PTR __imp_?IsShow@ioWnd@@QBE_NXZ
  00022	84 c0		 test	 al, al
  00024	74 0a		 je	 SHORT $LN1@DisableEdi

; 357  : 			{
; 358  : 				pEdit->SetKeyFocus();

  00026	8b 06		 mov	 eax, DWORD PTR [esi]
  00028	8b ce		 mov	 ecx, esi
  0002a	ff 90 30 01 00
	00		 call	 DWORD PTR [eax+304]
$LN1@DisableEdi:

; 359  : 			}
; 360  : 		}
; 361  : 	}
; 362  : 	m_pPreEdit = NULL;

  00030	83 a7 b4 01 00
	00 00		 and	 DWORD PTR [edi+436], 0
  00037	5f		 pop	 edi
  00038	5e		 pop	 esi

; 363  : }

  00039	c3		 ret	 0
?DisableEditFocus@CharGameInfoListWnd@@QAEXXZ ENDP	; CharGameInfoListWnd::DisableEditFocus
_TEXT	ENDS
PUBLIC	__real@42c80000
PUBLIC	??_7SingleSettingWnd@@6B@			; SingleSettingWnd::`vftable'
PUBLIC	??0SingleSettingWnd@@QAE@XZ			; SingleSettingWnd::SingleSettingWnd
PUBLIC	??_R4SingleSettingWnd@@6B@			; SingleSettingWnd::`RTTI Complete Object Locator'
PUBLIC	??_R0?AVSingleSettingWnd@@@8			; SingleSettingWnd `RTTI Type Descriptor'
PUBLIC	??_R3SingleSettingWnd@@8			; SingleSettingWnd::`RTTI Class Hierarchy Descriptor'
PUBLIC	??_R2SingleSettingWnd@@8			; SingleSettingWnd::`RTTI Base Class Array'
PUBLIC	??_R1A@?0A@EA@SingleSettingWnd@@8		; SingleSettingWnd::`RTTI Base Class Descriptor at (0,-1,0,64)'
PUBLIC	?OnRender@SingleSettingWnd@@MAEXXZ		; SingleSettingWnd::OnRender
PUBLIC	?OnProcess@SingleSettingWnd@@UAEXM@Z		; SingleSettingWnd::OnProcess
PUBLIC	?iwm_create@SingleSettingWnd@@UAEXXZ		; SingleSettingWnd::iwm_create
PUBLIC	?iwm_command@SingleSettingWnd@@UAEXPAVioWnd@@HK@Z ; SingleSettingWnd::iwm_command
PUBLIC	?iwm_vscroll@SingleSettingWnd@@UAEXKH@Z		; SingleSettingWnd::iwm_vscroll
PUBLIC	?iwm_wheel@SingleSettingWnd@@UAEXH@Z		; SingleSettingWnd::iwm_wheel
PUBLIC	?iwm_show@SingleSettingWnd@@UAEXXZ		; SingleSettingWnd::iwm_show
PUBLIC	?iwm_hide@SingleSettingWnd@@UAEXXZ		; SingleSettingWnd::iwm_hide
EXTRN	??_ESingleSettingWnd@@UAEPAXI@Z:PROC		; SingleSettingWnd::`vector deleting destructor'
;	COMDAT ??_R1A@?0A@EA@SingleSettingWnd@@8
rdata$r	SEGMENT
??_R1A@?0A@EA@SingleSettingWnd@@8 DD FLAT:??_R0?AVSingleSettingWnd@@@8 ; SingleSettingWnd::`RTTI Base Class Descriptor at (0,-1,0,64)'
	DD	01H
	DD	00H
	DD	0ffffffffH
	DD	00H
	DD	040H
	DD	FLAT:??_R3SingleSettingWnd@@8
rdata$r	ENDS
;	COMDAT ??_R2SingleSettingWnd@@8
rdata$r	SEGMENT
??_R2SingleSettingWnd@@8 DD FLAT:??_R1A@?0A@EA@SingleSettingWnd@@8 ; SingleSettingWnd::`RTTI Base Class Array'
	DD	FLAT:??_R1A@?0A@EA@ioWnd@@8
rdata$r	ENDS
;	COMDAT ??_R3SingleSettingWnd@@8
rdata$r	SEGMENT
??_R3SingleSettingWnd@@8 DD 00H				; SingleSettingWnd::`RTTI Class Hierarchy Descriptor'
	DD	00H
	DD	02H
	DD	FLAT:??_R2SingleSettingWnd@@8
rdata$r	ENDS
;	COMDAT ??_R0?AVSingleSettingWnd@@@8
_DATA	SEGMENT
??_R0?AVSingleSettingWnd@@@8 DD FLAT:??_7type_info@@6B@	; SingleSettingWnd `RTTI Type Descriptor'
	DD	00H
	DB	'.?AVSingleSettingWnd@@', 00H
_DATA	ENDS
;	COMDAT ??_R4SingleSettingWnd@@6B@
rdata$r	SEGMENT
??_R4SingleSettingWnd@@6B@ DD 00H			; SingleSettingWnd::`RTTI Complete Object Locator'
	DD	00H
	DD	00H
	DD	FLAT:??_R0?AVSingleSettingWnd@@@8
	DD	FLAT:??_R3SingleSettingWnd@@8
rdata$r	ENDS
;	COMDAT __real@42c80000
CONST	SEGMENT
__real@42c80000 DD 042c80000r			; 100
CONST	ENDS
;	COMDAT ??_7SingleSettingWnd@@6B@
CONST	SEGMENT
??_7SingleSettingWnd@@6B@ DD FLAT:??_R4SingleSettingWnd@@6B@ ; SingleSettingWnd::`vftable'
	DD	FLAT:?AddRenderFrame@ioWnd@@UAEXABVioHashString@@PAVioUIRenderFrame@@@Z
	DD	FLAT:?AddRenderImage@ioWnd@@UAEXABVioHashString@@PAVioUIRenderImage@@@Z
	DD	FLAT:?AddTooltipHelp@ioWnd@@UAEXABVioHashString@@00@Z
	DD	FLAT:?ParseExtraInfo@ioWnd@@UAEXAAVioXMLElement@@@Z
	DD	FLAT:?AddNamedRenderImage@ioWnd@@UAEXABVioHashString@@PAVioUIRenderImage@@@Z
	DD	FLAT:?RemoveNamedRenderImage@ioWnd@@UAEXABVioHashString@@@Z
	DD	FLAT:?GetNamedRenderImage@ioWnd@@UBEPAVioUIRenderImage@@ABVioHashString@@@Z
	DD	FLAT:?SetWindowAlpha@ioWnd@@UAEXH@Z
	DD	FLAT:?SetActive@ioWnd@@UAEXXZ
	DD	FLAT:?SetInActive@ioWnd@@UAEXXZ
	DD	FLAT:?ClearElementImageList@ioWnd@@UAEXXZ
	DD	FLAT:?SetSize@ioWnd@@UAEXHH@Z
	DD	FLAT:?SetPositionToDefault@ioWnd@@UAEXHH_N0@Z
	DD	FLAT:?IsNeedProcess@ioWnd@@UBE_NXZ
	DD	FLAT:?IsCanMouseReaction@ioWnd@@UBE_NXZ
	DD	FLAT:?AddChild@ioWnd@@UAEXPAV1@@Z
	DD	FLAT:?DeleteChild@ioWnd@@UAEXK@Z
	DD	FLAT:?DeleteAllChild@ioWnd@@UAEXXZ
	DD	FLAT:?OnRenderShowAndHide@ioWnd@@MAE_NXZ
	DD	FLAT:?OnRenderShowAndHideByDefault@ioWnd@@MAE_NK@Z
	DD	FLAT:?OnRenderShowAndHideByTop@ioWnd@@MAE_NK@Z
	DD	FLAT:?OnRenderShowAndHideByDown@ioWnd@@MAE_NK@Z
	DD	FLAT:?OnRender@SingleSettingWnd@@MAEXXZ
	DD	FLAT:?OnRenderAfterChild@ioWnd@@MAEXXZ
	DD	FLAT:?OnProcess@SingleSettingWnd@@UAEXM@Z
	DD	FLAT:?OnMouseProcess@ioWnd@@MAEXABVioMouse@@@Z
	DD	FLAT:?CheckFrameReSize@ioWnd@@MAEXHHHH@Z
	DD	FLAT:?RenderImageList@ioWnd@@MAEXHHW4UIRenderType@@@Z
	DD	FLAT:?iwm_create@SingleSettingWnd@@UAEXXZ
	DD	FLAT:?iwm_destroy@ioWnd@@UAEXXZ
	DD	FLAT:?iwm_lbuttondown@ioWnd@@UAEXABVioMouse@@@Z
	DD	FLAT:?iwm_lbuttonup@ioWnd@@UAEXABVioMouse@@@Z
	DD	FLAT:?iwm_lbuttonDBLCLK@ioWnd@@UAEXABVioMouse@@@Z
	DD	FLAT:?iwm_rbuttondown@ioWnd@@UAEXABVioMouse@@@Z
	DD	FLAT:?iwm_rbuttonup@ioWnd@@UAEXABVioMouse@@@Z
	DD	FLAT:?iwm_command@SingleSettingWnd@@UAEXPAVioWnd@@HK@Z
	DD	FLAT:?iwm_mouseover@ioWnd@@UAEXABVioMouse@@@Z
	DD	FLAT:?iwm_mousemove@ioWnd@@UAEXABVioMouse@@@Z
	DD	FLAT:?iwm_mouseleave@ioWnd@@UAEXABVioMouse@@@Z
	DD	FLAT:?iwm_vscroll@SingleSettingWnd@@UAEXKH@Z
	DD	FLAT:?iwm_wheel@SingleSettingWnd@@UAEXH@Z
	DD	FLAT:?iwm_show@SingleSettingWnd@@UAEXXZ
	DD	FLAT:?iwm_hide@SingleSettingWnd@@UAEXXZ
	DD	FLAT:?iwm_esc@ioWnd@@UAE_NXZ
	DD	FLAT:?iwm_spacebar@ioWnd@@UAE_NXZ
	DD	FLAT:?iwm_gototop@ioWnd@@UAEXXZ
	DD	FLAT:?iwm_dragenter@ioWnd@@UAE?AW4IWDropEffect@@PAVioDragItem@@ABVioMouse@@@Z
	DD	FLAT:?iwm_dragover@ioWnd@@UAE?AW4IWDropEffect@@PAVioDragItem@@ABVioMouse@@@Z
	DD	FLAT:?iwm_dragleave@ioWnd@@UAEXXZ
	DD	FLAT:?iwm_dropitem@ioWnd@@UAE_NPAVioDragItem@@ABVioMouse@@PAV1@@Z
	DD	FLAT:?iwm_dropdone@ioWnd@@UAEXPAVioDragItem@@PAV1@_N@Z
	DD	FLAT:?IsEXType@ioWnd@@UBE_NXZ
	DD	FLAT:?GetWndType@ioWnd@@UBEKXZ
	DD	FLAT:?RenderWnd@ioWnd@@UAEXXZ
	DD	FLAT:?SetIDEX@ioWnd@@UAEXAAK_N@Z
	DD	FLAT:?ParseXML@ioWnd@@UAEXAAVioXMLElement@@@Z
	DD	FLAT:?GetHeaderFileName@ioWnd@@UAEPBDXZ
	DD	FLAT:?GetTemplateName@ioWnd@@UAEPBDXZ
	DD	FLAT:?GetDefClassName@ioWnd@@UBEPBDXZ
	DD	FLAT:?_Clone@ioWnd@@UAEPAV1@XZ
	DD	FLAT:?Copy@ioWnd@@UAEXPAV1@@Z
	DD	FLAT:?Save@ioWnd@@UAE_NAAVioXMLElement@@@Z
	DD	FLAT:?SetSaveData@ioWnd@@UAEXAAVioXMLElement@@@Z
	DD	FLAT:?SetPosX@ioWnd@@UAEXH@Z
	DD	FLAT:?SetPosY@ioWnd@@UAEXH@Z
	DD	FLAT:?SetWidth@ioWnd@@UAEXH@Z
	DD	FLAT:?SetHeight@ioWnd@@UAEXH@Z
	DD	FLAT:?GetNumFixedRenderFrame@ioWnd@@UBEHXZ
	DD	FLAT:?GetFixedRenderFrameType@ioWnd@@UAEPBDH@Z
	DD	FLAT:?GetRenderFrame@ioWnd@@UAEPAPAVioUIRenderElement@@PBD@Z
	DD	FLAT:?GetNumFixedRenderImage@ioWnd@@UBEHXZ
	DD	FLAT:?GetFixedRenderImageType@ioWnd@@UAEPBDH@Z
	DD	FLAT:?GetRenderImage@ioWnd@@UAEPAPAVioUIRenderElement@@PBD@Z
	DD	FLAT:?AddEffect@ioWnd@@UAEXABVioHashString@@PAVioUI3DEffectRender@@@Z
	DD	FLAT:?GetEffect@ioWnd@@UAEPAVioUI3DEffectRender@@VioHashString@@@Z
	DD	FLAT:??_ESingleSettingWnd@@UAEPAXI@Z
CONST	ENDS
;	COMDAT xdata$x
xdata$x	SEGMENT
__unwindtable$??0SingleSettingWnd@@QAE@XZ DD 0ffffffffH
	DD	FLAT:__unwindfunclet$??0SingleSettingWnd@@QAE@XZ$0
__ehfuncinfo$??0SingleSettingWnd@@QAE@XZ DD 019930522H
	DD	01H
	DD	FLAT:__unwindtable$??0SingleSettingWnd@@QAE@XZ
	DD	2 DUP(00H)
	DD	2 DUP(00H)
	DD	00H
	DD	01H
; Function compile flags: /Ogsp
xdata$x	ENDS
;	COMDAT ??0SingleSettingWnd@@QAE@XZ
_TEXT	SEGMENT
_this$ = -16						; size = 4
__$EHRec$ = -12						; size = 12
??0SingleSettingWnd@@QAE@XZ PROC			; SingleSettingWnd::SingleSettingWnd, COMDAT
; _this$ = ecx

; 583  : {

  00000	6a 04		 push	 4
  00002	b8 00 00 00 00	 mov	 eax, __ehhandler$??0SingleSettingWnd@@QAE@XZ
  00007	e8 00 00 00 00	 call	 __EH_prolog3
  0000c	8b f1		 mov	 esi, ecx
  0000e	89 75 f0	 mov	 DWORD PTR _this$[ebp], esi
  00011	ff 15 00 00 00
	00		 call	 DWORD PTR __imp_??0ioWnd@@QAE@XZ
  00017	83 65 fc 00	 and	 DWORD PTR __$EHRec$[ebp+8], 0
  0001b	8d 8e 6c 01 00
	00		 lea	 ecx, DWORD PTR [esi+364]
  00021	c7 06 00 00 00
	00		 mov	 DWORD PTR [esi], OFFSET ??_7SingleSettingWnd@@6B@
  00027	ff 15 00 00 00
	00		 call	 DWORD PTR __imp_??0ioHashString@@QAE@XZ
  0002d	f3 0f 10 05 00
	00 00 00	 movss	 xmm0, DWORD PTR __real@42c80000
  00035	f3 0f 11 86 7c
	01 00 00	 movss	 DWORD PTR [esi+380], xmm0

; 584  : }

  0003d	8b c6		 mov	 eax, esi
  0003f	e8 00 00 00 00	 call	 __EH_epilog3
  00044	c3		 ret	 0
_TEXT	ENDS
;	COMDAT text$x
text$x	SEGMENT
__unwindfunclet$??0SingleSettingWnd@@QAE@XZ$0:
  00000	8b 4d f0	 mov	 ecx, DWORD PTR _this$[ebp]
  00003	ff 25 00 00 00
	00		 jmp	 DWORD PTR __imp_??1ioWnd@@UAE@XZ
__ehhandler$??0SingleSettingWnd@@QAE@XZ:
  00009	8b 54 24 08	 mov	 edx, DWORD PTR [esp+8]
  0000d	8d 42 0c	 lea	 eax, DWORD PTR [edx+12]
  00010	8b 4a ec	 mov	 ecx, DWORD PTR [edx-20]
  00013	33 c8		 xor	 ecx, eax
  00015	e8 00 00 00 00	 call	 @__security_check_cookie@4
  0001a	b8 00 00 00 00	 mov	 eax, OFFSET __ehfuncinfo$??0SingleSettingWnd@@QAE@XZ
  0001f	e9 00 00 00 00	 jmp	 ___CxxFrameHandler3
text$x	ENDS
??0SingleSettingWnd@@QAE@XZ ENDP			; SingleSettingWnd::SingleSettingWnd
PUBLIC	??1SingleSettingWnd@@UAE@XZ			; SingleSettingWnd::~SingleSettingWnd
;	COMDAT xdata$x
xdata$x	SEGMENT
__unwindtable$??1SingleSettingWnd@@UAE@XZ DD 0ffffffffH
	DD	FLAT:__unwindfunclet$??1SingleSettingWnd@@UAE@XZ$0
__ehfuncinfo$??1SingleSettingWnd@@UAE@XZ DD 019930522H
	DD	01H
	DD	FLAT:__unwindtable$??1SingleSettingWnd@@UAE@XZ
	DD	2 DUP(00H)
	DD	2 DUP(00H)
	DD	00H
	DD	01H
; Function compile flags: /Ogsp
xdata$x	ENDS
;	COMDAT ??1SingleSettingWnd@@UAE@XZ
_TEXT	SEGMENT
_this$ = -16						; size = 4
__$EHRec$ = -12						; size = 12
??1SingleSettingWnd@@UAE@XZ PROC			; SingleSettingWnd::~SingleSettingWnd, COMDAT
; _this$ = ecx

; 587  : {

  00000	6a 04		 push	 4
  00002	b8 00 00 00 00	 mov	 eax, __ehhandler$??1SingleSettingWnd@@UAE@XZ
  00007	e8 00 00 00 00	 call	 __EH_prolog3
  0000c	8b f1		 mov	 esi, ecx
  0000e	89 75 f0	 mov	 DWORD PTR _this$[ebp], esi
  00011	c7 06 00 00 00
	00		 mov	 DWORD PTR [esi], OFFSET ??_7SingleSettingWnd@@6B@
  00017	83 65 fc 00	 and	 DWORD PTR __$EHRec$[ebp+8], 0

; 588  : 
; 589  : }

  0001b	8d 8e 6c 01 00
	00		 lea	 ecx, DWORD PTR [esi+364]
  00021	ff 15 00 00 00
	00		 call	 DWORD PTR __imp_??1ioHashString@@QAE@XZ
  00027	83 4d fc ff	 or	 DWORD PTR __$EHRec$[ebp+8], -1
  0002b	8b ce		 mov	 ecx, esi
  0002d	ff 15 00 00 00
	00		 call	 DWORD PTR __imp_??1ioWnd@@UAE@XZ
  00033	e8 00 00 00 00	 call	 __EH_epilog3
  00038	c3		 ret	 0
_TEXT	ENDS
;	COMDAT text$x
text$x	SEGMENT
__unwindfunclet$??1SingleSettingWnd@@UAE@XZ$0:
  00000	8b 4d f0	 mov	 ecx, DWORD PTR _this$[ebp]
  00003	ff 25 00 00 00
	00		 jmp	 DWORD PTR __imp_??1ioWnd@@UAE@XZ
__ehhandler$??1SingleSettingWnd@@UAE@XZ:
  00009	8b 54 24 08	 mov	 edx, DWORD PTR [esp+8]
  0000d	8d 42 0c	 lea	 eax, DWORD PTR [edx+12]
  00010	8b 4a ec	 mov	 ecx, DWORD PTR [edx-20]
  00013	33 c8		 xor	 ecx, eax
  00015	e8 00 00 00 00	 call	 @__security_check_cookie@4
  0001a	b8 00 00 00 00	 mov	 eax, OFFSET __ehfuncinfo$??1SingleSettingWnd@@UAE@XZ
  0001f	e9 00 00 00 00	 jmp	 ___CxxFrameHandler3
text$x	ENDS
??1SingleSettingWnd@@UAE@XZ ENDP			; SingleSettingWnd::~SingleSettingWnd
PUBLIC	?SetSingle@SingleSettingWnd@@SAX_N@Z		; SingleSettingWnd::SetSingle
; Function compile flags: /Ogsp
;	COMDAT ?SetSingle@SingleSettingWnd@@SAX_N@Z
_TEXT	SEGMENT
_bSingle$ = 8						; size = 1
?SetSingle@SingleSettingWnd@@SAX_N@Z PROC		; SingleSettingWnd::SetSingle, COMDAT

; 592  : {

  00000	55		 push	 ebp
  00001	8b ec		 mov	 ebp, esp

; 593  : 	m_bSingle = bSingle;

  00003	8a 45 08	 mov	 al, BYTE PTR _bSingle$[ebp]
  00006	a2 00 00 00 00	 mov	 BYTE PTR ?m_bSingle@SingleSettingWnd@@1_NA, al ; SingleSettingWnd::m_bSingle

; 594  : }

  0000b	5d		 pop	 ebp
  0000c	c3		 ret	 0
?SetSingle@SingleSettingWnd@@SAX_N@Z ENDP		; SingleSettingWnd::SetSingle
_TEXT	ENDS
PUBLIC	?SetAutoShow@SingleSettingWnd@@SAX_N@Z		; SingleSettingWnd::SetAutoShow
; Function compile flags: /Ogsp
;	COMDAT ?SetAutoShow@SingleSettingWnd@@SAX_N@Z
_TEXT	SEGMENT
_bAutoShow$ = 8						; size = 1
?SetAutoShow@SingleSettingWnd@@SAX_N@Z PROC		; SingleSettingWnd::SetAutoShow, COMDAT

; 597  : {

  00000	55		 push	 ebp
  00001	8b ec		 mov	 ebp, esp

; 598  : 	m_bAutoShow = bAutoShow;

  00003	8a 45 08	 mov	 al, BYTE PTR _bAutoShow$[ebp]
  00006	a2 00 00 00 00	 mov	 BYTE PTR ?m_bAutoShow@SingleSettingWnd@@1_NA, al ; SingleSettingWnd::m_bAutoShow

; 599  : }

  0000b	5d		 pop	 ebp
  0000c	c3		 ret	 0
?SetAutoShow@SingleSettingWnd@@SAX_N@Z ENDP		; SingleSettingWnd::SetAutoShow
_TEXT	ENDS
PUBLIC	?SetPause@SingleSettingWnd@@SAX_N@Z		; SingleSettingWnd::SetPause
; Function compile flags: /Ogsp
;	COMDAT ?SetPause@SingleSettingWnd@@SAX_N@Z
_TEXT	SEGMENT
_bPause$ = 8						; size = 1
?SetPause@SingleSettingWnd@@SAX_N@Z PROC		; SingleSettingWnd::SetPause, COMDAT

; 602  : {

  00000	55		 push	 ebp
  00001	8b ec		 mov	 ebp, esp

; 603  : 	m_bPause = bPause;

  00003	8a 45 08	 mov	 al, BYTE PTR _bPause$[ebp]
  00006	a2 00 00 00 00	 mov	 BYTE PTR ?m_bPause@SingleSettingWnd@@1_NA, al ; SingleSettingWnd::m_bPause

; 604  : }

  0000b	5d		 pop	 ebp
  0000c	c3		 ret	 0
?SetPause@SingleSettingWnd@@SAX_N@Z ENDP		; SingleSettingWnd::SetPause
_TEXT	ENDS
PUBLIC	?IsPause@SingleSettingWnd@@SA_NXZ		; SingleSettingWnd::IsPause
; Function compile flags: /Ogsp
;	COMDAT ?IsPause@SingleSettingWnd@@SA_NXZ
_TEXT	SEGMENT
?IsPause@SingleSettingWnd@@SA_NXZ PROC			; SingleSettingWnd::IsPause, COMDAT

; 608  : 	return m_bPause;

  00000	a0 00 00 00 00	 mov	 al, BYTE PTR ?m_bPause@SingleSettingWnd@@1_NA ; SingleSettingWnd::m_bPause

; 609  : }

  00005	c3		 ret	 0
?IsPause@SingleSettingWnd@@SA_NXZ ENDP			; SingleSettingWnd::IsPause
; Function compile flags: /Ogsp
_TEXT	ENDS
;	COMDAT ?iwm_create@SingleSettingWnd@@UAEXXZ
_TEXT	SEGMENT
?iwm_create@SingleSettingWnd@@UAEXXZ PROC		; SingleSettingWnd::iwm_create, COMDAT
; _this$ = ecx

; 613  : }

  00000	c3		 ret	 0
?iwm_create@SingleSettingWnd@@UAEXXZ ENDP		; SingleSettingWnd::iwm_create
_TEXT	ENDS
PUBLIC	??_C@_05PEDNBBBD@Pause?$AA@			; `string'
PUBLIC	??_C@_04MHNGOMDK@Play?$AA@			; `string'
PUBLIC	??_C@_00CNPNBAHC@?$AA@				; `string'
PUBLIC	??_R0?AVioButton@@@8				; ioButton `RTTI Type Descriptor'
PUBLIC	?UpdatePauseButton@SingleSettingWnd@@IAEXXZ	; SingleSettingWnd::UpdatePauseButton
EXTRN	__imp_?SetTitleText@ioWnd@@QAEXPBD0H@Z:PROC
;	COMDAT ??_C@_05PEDNBBBD@Pause?$AA@
CONST	SEGMENT
??_C@_05PEDNBBBD@Pause?$AA@ DB 'Pause', 00H		; `string'
CONST	ENDS
;	COMDAT ??_C@_04MHNGOMDK@Play?$AA@
CONST	SEGMENT
??_C@_04MHNGOMDK@Play?$AA@ DB 'Play', 00H		; `string'
CONST	ENDS
;	COMDAT ??_C@_00CNPNBAHC@?$AA@
CONST	SEGMENT
??_C@_00CNPNBAHC@?$AA@ DB 00H				; `string'
CONST	ENDS
;	COMDAT ??_R0?AVioButton@@@8
_DATA	SEGMENT
??_R0?AVioButton@@@8 DD FLAT:??_7type_info@@6B@		; ioButton `RTTI Type Descriptor'
	DD	00H
	DB	'.?AVioButton@@', 00H
; Function compile flags: /Ogsp
_DATA	ENDS
;	COMDAT ?UpdatePauseButton@SingleSettingWnd@@IAEXXZ
_TEXT	SEGMENT
?UpdatePauseButton@SingleSettingWnd@@IAEXXZ PROC	; SingleSettingWnd::UpdatePauseButton, COMDAT
; _this$ = ecx

; 690  : {

  00000	53		 push	 ebx

; 691  : 	ioButton* pButton = dynamic_cast<ioButton*>( FindChildWnd( ID_PAUSE ) );

  00001	33 db		 xor	 ebx, ebx
  00003	53		 push	 ebx
  00004	68 00 00 00 00	 push	 OFFSET ??_R0?AVioButton@@@8
  00009	68 00 00 00 00	 push	 OFFSET ??_R0?AVioWnd@@@8
  0000e	53		 push	 ebx
  0000f	6a 0a		 push	 10			; 0000000aH
  00011	ff 15 00 00 00
	00		 call	 DWORD PTR __imp_?FindChildWnd@ioWnd@@QAEPAV1@K@Z
  00017	50		 push	 eax
  00018	e8 00 00 00 00	 call	 ___RTDynamicCast
  0001d	8b c8		 mov	 ecx, eax
  0001f	83 c4 14	 add	 esp, 20			; 00000014H

; 692  : 	if( pButton )

  00022	3b cb		 cmp	 ecx, ebx
  00024	74 20		 je	 SHORT $LN1@UpdatePaus

; 693  : 	{
; 694  : 		if( IsPause() )
; 695  : 			pButton->SetTitleText( "Play" );

  00026	53		 push	 ebx
  00027	68 00 00 00 00	 push	 OFFSET ??_C@_00CNPNBAHC@?$AA@
  0002c	38 1d 00 00 00
	00		 cmp	 BYTE PTR ?m_bPause@SingleSettingWnd@@1_NA, bl ; SingleSettingWnd::m_bPause
  00032	74 07		 je	 SHORT $LN2@UpdatePaus
  00034	68 00 00 00 00	 push	 OFFSET ??_C@_04MHNGOMDK@Play?$AA@

; 696  : 		else

  00039	eb 05		 jmp	 SHORT $LN8@UpdatePaus
$LN2@UpdatePaus:

; 697  : 			pButton->SetTitleText( "Pause" );

  0003b	68 00 00 00 00	 push	 OFFSET ??_C@_05PEDNBBBD@Pause?$AA@
$LN8@UpdatePaus:
  00040	ff 15 00 00 00
	00		 call	 DWORD PTR __imp_?SetTitleText@ioWnd@@QAEXPBD0H@Z
$LN1@UpdatePaus:
  00046	5b		 pop	 ebx

; 698  : 	}
; 699  : }

  00047	c3		 ret	 0
?UpdatePauseButton@SingleSettingWnd@@IAEXXZ ENDP	; SingleSettingWnd::UpdatePauseButton
_TEXT	ENDS
PUBLIC	??_C@_0CE@DDOGANAK@SingleSettingWnd?3?3GetModeNameByT@ ; `string'
PUBLIC	?GetModeNameByType@SingleSettingWnd@@IAE_NHAAVioHashString@@@Z ; SingleSettingWnd::GetModeNameByType
EXTRN	__imp_??4ioHashString@@QAEAAV0@PBD@Z:PROC
EXTRN	__imp_?GetString@ioStringManager@@QAEPADPBD0HW4FileNamePrefix@1@@Z:PROC
EXTRN	__imp_?GetSingleton@ioStringManager@@SAAAV1@XZ:PROC
;	COMDAT ??_C@_0CE@DDOGANAK@SingleSettingWnd?3?3GetModeNameByT@
CONST	SEGMENT
??_C@_0CE@DDOGANAK@SingleSettingWnd?3?3GetModeNameByT@ DB 'SingleSettingW'
	DB	'nd::GetModeNameByType', 00H			; `string'
; Function compile flags: /Ogsp
CONST	ENDS
;	COMDAT ?GetModeNameByType@SingleSettingWnd@@IAE_NHAAVioHashString@@@Z
_TEXT	SEGMENT
_eType$ = 8						; size = 4
_szModeName$ = 12					; size = 4
?GetModeNameByType@SingleSettingWnd@@IAE_NHAAVioHashString@@@Z PROC ; SingleSettingWnd::GetModeNameByType, COMDAT
; _this$ = ecx

; 718  : {

  00000	55		 push	 ebp
  00001	8b ec		 mov	 ebp, esp

; 719  : 	switch( eType )

  00003	8b 45 08	 mov	 eax, DWORD PTR _eType$[ebp]
  00006	83 f8 07	 cmp	 eax, 7
  00009	7f 2d		 jg	 SHORT $LN14@GetModeNam
  0000b	74 25		 je	 SHORT $LN3@GetModeNam
  0000d	48		 dec	 eax
  0000e	74 1c		 je	 SHORT $LN6@GetModeNam
  00010	48		 dec	 eax
  00011	74 13		 je	 SHORT $LN7@GetModeNam
  00013	83 e8 03	 sub	 eax, 3
  00016	74 08		 je	 SHORT $LN5@GetModeNam
  00018	48		 dec	 eax
  00019	75 2d		 jne	 SHORT $LN10@GetModeNam

; 736  : 	case MT_TEAM_SURVIVAL:
; 737  : 		szModeName = STR(6);

  0001b	50		 push	 eax
  0001c	6a 06		 push	 6

; 738  : 		return true;

  0001e	eb 68		 jmp	 SHORT $LN15@GetModeNam
$LN5@GetModeNam:

; 733  : 	case MT_SURVIVAL:
; 734  : 		szModeName = STR(5);

  00020	6a 00		 push	 0
  00022	6a 05		 push	 5

; 735  : 		return true;

  00024	eb 62		 jmp	 SHORT $LN15@GetModeNam
$LN7@GetModeNam:

; 727  : 	case MT_CATCH:
; 728  : 		szModeName = STR(3);

  00026	6a 00		 push	 0
  00028	6a 03		 push	 3

; 729  : 		return true;

  0002a	eb 5c		 jmp	 SHORT $LN15@GetModeNam
$LN6@GetModeNam:

; 730  : 	case MT_SYMBOL:
; 731  : 		szModeName = STR(4);

  0002c	6a 00		 push	 0
  0002e	6a 04		 push	 4

; 732  : 		return true;

  00030	eb 56		 jmp	 SHORT $LN15@GetModeNam
$LN3@GetModeNam:

; 739  : 	case MT_BOSS:
; 740  : 		szModeName = STR(7);

  00032	6a 00		 push	 0
  00034	6a 07		 push	 7

; 741  : 		return true;

  00036	eb 50		 jmp	 SHORT $LN15@GetModeNam
$LN14@GetModeNam:

; 719  : 	switch( eType )

  00038	83 e8 08	 sub	 eax, 8
  0003b	74 47		 je	 SHORT $LN2@GetModeNam
  0003d	48		 dec	 eax
  0003e	74 3e		 je	 SHORT $LN1@GetModeNam
  00040	83 e8 10	 sub	 eax, 16			; 00000010H
  00043	74 33		 je	 SHORT $LN9@GetModeNam
  00045	48		 dec	 eax
  00046	74 2a		 je	 SHORT $LN8@GetModeNam
$LN10@GetModeNam:

; 748  : 	}
; 749  : 
; 750  : 	szModeName =STR(10);

  00048	6a 00		 push	 0
  0004a	6a 0a		 push	 10			; 0000000aH
  0004c	68 00 00 00 00	 push	 OFFSET ??_C@_00CNPNBAHC@?$AA@
  00051	68 00 00 00 00	 push	 OFFSET ??_C@_0CE@DDOGANAK@SingleSettingWnd?3?3GetModeNameByT@
  00056	ff 15 00 00 00
	00		 call	 DWORD PTR __imp_?GetSingleton@ioStringManager@@SAAAV1@XZ
  0005c	8b c8		 mov	 ecx, eax
  0005e	ff 15 00 00 00
	00		 call	 DWORD PTR __imp_?GetString@ioStringManager@@QAEPADPBD0HW4FileNamePrefix@1@@Z
  00064	8b 4d 0c	 mov	 ecx, DWORD PTR _szModeName$[ebp]
  00067	50		 push	 eax
  00068	ff 15 00 00 00
	00		 call	 DWORD PTR __imp_??4ioHashString@@QAEAAV0@PBD@Z

; 751  : 	return false;

  0006e	32 c0		 xor	 al, al
  00070	eb 3a		 jmp	 SHORT $LN12@GetModeNam
$LN8@GetModeNam:

; 724  : 	case MT_CBT:
; 725  : 		szModeName = STR(2);

  00072	6a 00		 push	 0
  00074	6a 02		 push	 2

; 726  : 		return true;

  00076	eb 10		 jmp	 SHORT $LN15@GetModeNam
$LN9@GetModeNam:

; 720  : 	{
; 721  : 	case MT_UNDERWEAR:
; 722  : 		szModeName = STR(1);

  00078	6a 00		 push	 0
  0007a	6a 01		 push	 1

; 723  : 		return true;

  0007c	eb 0a		 jmp	 SHORT $LN15@GetModeNam
$LN1@GetModeNam:

; 745  : 	case MT_FOOTBALL:
; 746  : 		szModeName = STR(9);

  0007e	6a 00		 push	 0
  00080	6a 09		 push	 9

; 747  : 		return true;

  00082	eb 04		 jmp	 SHORT $LN15@GetModeNam
$LN2@GetModeNam:

; 742  : 	case MT_MONSTER_SURVIVAL:
; 743  : 		szModeName = STR(8);

  00084	6a 00		 push	 0
  00086	6a 08		 push	 8
$LN15@GetModeNam:
  00088	68 00 00 00 00	 push	 OFFSET ??_C@_00CNPNBAHC@?$AA@
  0008d	68 00 00 00 00	 push	 OFFSET ??_C@_0CE@DDOGANAK@SingleSettingWnd?3?3GetModeNameByT@
  00092	ff 15 00 00 00
	00		 call	 DWORD PTR __imp_?GetSingleton@ioStringManager@@SAAAV1@XZ
  00098	8b c8		 mov	 ecx, eax
  0009a	ff 15 00 00 00
	00		 call	 DWORD PTR __imp_?GetString@ioStringManager@@QAEPADPBD0HW4FileNamePrefix@1@@Z
  000a0	8b 4d 0c	 mov	 ecx, DWORD PTR _szModeName$[ebp]
  000a3	50		 push	 eax
  000a4	ff 15 00 00 00
	00		 call	 DWORD PTR __imp_??4ioHashString@@QAEAAV0@PBD@Z

; 744  : 		return true;

  000aa	b0 01		 mov	 al, 1
$LN12@GetModeNam:

; 752  : }

  000ac	5d		 pop	 ebp
  000ad	c2 08 00	 ret	 8
?GetModeNameByType@SingleSettingWnd@@IAE_NHAAVioHashString@@@Z ENDP ; SingleSettingWnd::GetModeNameByType
_TEXT	ENDS
PUBLIC	?ChangeModeButtonTitle@SingleSettingWnd@@IAEXABVioHashString@@@Z ; SingleSettingWnd::ChangeModeButtonTitle
; Function compile flags: /Ogsp
;	COMDAT ?ChangeModeButtonTitle@SingleSettingWnd@@IAEXABVioHashString@@@Z
_TEXT	SEGMENT
_szName$ = 8						; size = 4
?ChangeModeButtonTitle@SingleSettingWnd@@IAEXABVioHashString@@@Z PROC ; SingleSettingWnd::ChangeModeButtonTitle, COMDAT
; _this$ = ecx

; 757  : {

  00000	55		 push	 ebp
  00001	8b ec		 mov	 ebp, esp
  00003	56		 push	 esi

; 758  : 	ioButton* pButton = dynamic_cast<ioButton*>( FindChildWnd( ID_MODE ) );

  00004	6a 00		 push	 0
  00006	68 00 00 00 00	 push	 OFFSET ??_R0?AVioButton@@@8
  0000b	68 00 00 00 00	 push	 OFFSET ??_R0?AVioWnd@@@8
  00010	6a 00		 push	 0
  00012	6a 05		 push	 5
  00014	ff 15 00 00 00
	00		 call	 DWORD PTR __imp_?FindChildWnd@ioWnd@@QAEPAV1@K@Z
  0001a	50		 push	 eax
  0001b	e8 00 00 00 00	 call	 ___RTDynamicCast
  00020	8b f0		 mov	 esi, eax
  00022	83 c4 14	 add	 esp, 20			; 00000014H

; 759  : 	if( pButton )

  00025	85 f6		 test	 esi, esi
  00027	74 19		 je	 SHORT $LN1@ChangeMode

; 760  : 		pButton->SetTitleText( szName.c_str() );

  00029	8b 4d 08	 mov	 ecx, DWORD PTR _szName$[ebp]
  0002c	6a 00		 push	 0
  0002e	68 00 00 00 00	 push	 OFFSET ??_C@_00CNPNBAHC@?$AA@
  00033	ff 15 00 00 00
	00		 call	 DWORD PTR __imp_?c_str@ioHashString@@QBEPBDXZ
  00039	50		 push	 eax
  0003a	8b ce		 mov	 ecx, esi
  0003c	ff 15 00 00 00
	00		 call	 DWORD PTR __imp_?SetTitleText@ioWnd@@QAEXPBD0H@Z
$LN1@ChangeMode:
  00042	5e		 pop	 esi

; 761  : }

  00043	5d		 pop	 ebp
  00044	c2 04 00	 ret	 4
?ChangeModeButtonTitle@SingleSettingWnd@@IAEXABVioHashString@@@Z ENDP ; SingleSettingWnd::ChangeModeButtonTitle
_TEXT	ENDS
PUBLIC	??_R0?AVStringScrollListWnd@@@8			; StringScrollListWnd `RTTI Type Descriptor'
PUBLIC	?CreateModeList@SingleSettingWnd@@IAEXXZ	; SingleSettingWnd::CreateModeList
EXTRN	?AddList@StringScrollListWnd@@QAEXHHABVioHashString@@PAVioUIRenderImage@@@Z:PROC ; StringScrollListWnd::AddList
;	COMDAT ??_R0?AVStringScrollListWnd@@@8
_DATA	SEGMENT
??_R0?AVStringScrollListWnd@@@8 DD FLAT:??_7type_info@@6B@ ; StringScrollListWnd `RTTI Type Descriptor'
	DD	00H
	DB	'.?AVStringScrollListWnd@@', 00H
_DATA	ENDS
;	COMDAT xdata$x
xdata$x	SEGMENT
__unwindtable$?CreateModeList@SingleSettingWnd@@IAEXXZ DD 0ffffffffH
	DD	FLAT:__unwindfunclet$?CreateModeList@SingleSettingWnd@@IAEXXZ$0
__ehfuncinfo$?CreateModeList@SingleSettingWnd@@IAEXXZ DD 019930522H
	DD	01H
	DD	FLAT:__unwindtable$?CreateModeList@SingleSettingWnd@@IAEXXZ
	DD	2 DUP(00H)
	DD	2 DUP(00H)
	DD	00H
	DD	01H
; Function compile flags: /Ogsp
xdata$x	ENDS
;	COMDAT ?CreateModeList@SingleSettingWnd@@IAEXXZ
_TEXT	SEGMENT
_ModeName$535112 = -36					; size = 16
_pList$ = -20						; size = 4
_this$ = -16						; size = 4
__$EHRec$ = -12						; size = 12
?CreateModeList@SingleSettingWnd@@IAEXXZ PROC		; SingleSettingWnd::CreateModeList, COMDAT
; _this$ = ecx

; 764  : {

  00000	6a 18		 push	 24			; 00000018H
  00002	b8 00 00 00 00	 mov	 eax, __ehhandler$?CreateModeList@SingleSettingWnd@@IAEXXZ
  00007	e8 00 00 00 00	 call	 __EH_prolog3
  0000c	89 4d f0	 mov	 DWORD PTR _this$[ebp], ecx

; 765  : 	StringScrollListWnd *pList = dynamic_cast<StringScrollListWnd*>( FindChildWnd( ID_MODE_LIST ) );

  0000f	6a 00		 push	 0
  00011	68 00 00 00 00	 push	 OFFSET ??_R0?AVStringScrollListWnd@@@8
  00016	68 00 00 00 00	 push	 OFFSET ??_R0?AVioWnd@@@8
  0001b	6a 00		 push	 0
  0001d	be e9 03 00 00	 mov	 esi, 1001		; 000003e9H
  00022	56		 push	 esi
  00023	ff 15 00 00 00
	00		 call	 DWORD PTR __imp_?FindChildWnd@ioWnd@@QAEPAV1@K@Z
  00029	50		 push	 eax
  0002a	e8 00 00 00 00	 call	 ___RTDynamicCast
  0002f	83 c4 14	 add	 esp, 20			; 00000014H
  00032	89 45 ec	 mov	 DWORD PTR _pList$[ebp], eax

; 766  : 	if( pList )

  00035	85 c0		 test	 eax, eax
  00037	74 43		 je	 SHORT $LN2@CreateMode

; 767  : 	{
; 768  : 		for( int eMode = MT_NONE; eMode < MAX_MODE_TYPE; ++eMode )

  00039	33 ff		 xor	 edi, edi
$LL4@CreateMode:

; 769  : 		{
; 770  : 			ioHashString ModeName;

  0003b	8d 4d dc	 lea	 ecx, DWORD PTR _ModeName$535112[ebp]
  0003e	ff 15 00 00 00
	00		 call	 DWORD PTR __imp_??0ioHashString@@QAE@XZ

; 771  : 			if( GetModeNameByType( eMode, ModeName ) )

  00044	8b 4d f0	 mov	 ecx, DWORD PTR _this$[ebp]
  00047	83 65 fc 00	 and	 DWORD PTR __$EHRec$[ebp+8], 0
  0004b	8d 45 dc	 lea	 eax, DWORD PTR _ModeName$535112[ebp]
  0004e	50		 push	 eax
  0004f	57		 push	 edi
  00050	e8 00 00 00 00	 call	 ?GetModeNameByType@SingleSettingWnd@@IAE_NHAAVioHashString@@@Z ; SingleSettingWnd::GetModeNameByType
  00055	84 c0		 test	 al, al
  00057	74 10		 je	 SHORT $LN1@CreateMode

; 772  : 			{
; 773  : 				pList->AddList( ID_MODE_LIST, eMode, ModeName, NULL );

  00059	8b 4d ec	 mov	 ecx, DWORD PTR _pList$[ebp]
  0005c	6a 00		 push	 0
  0005e	8d 45 dc	 lea	 eax, DWORD PTR _ModeName$535112[ebp]
  00061	50		 push	 eax
  00062	57		 push	 edi
  00063	56		 push	 esi
  00064	e8 00 00 00 00	 call	 ?AddList@StringScrollListWnd@@QAEXHHABVioHashString@@PAVioUIRenderImage@@@Z ; StringScrollListWnd::AddList
$LN1@CreateMode:

; 774  : 			}
; 775  : 		}

  00069	83 4d fc ff	 or	 DWORD PTR __$EHRec$[ebp+8], -1
  0006d	8d 4d dc	 lea	 ecx, DWORD PTR _ModeName$535112[ebp]
  00070	ff 15 00 00 00
	00		 call	 DWORD PTR __imp_??1ioHashString@@QAE@XZ
  00076	47		 inc	 edi
  00077	83 ff 1c	 cmp	 edi, 28			; 0000001cH
  0007a	7c bf		 jl	 SHORT $LL4@CreateMode
$LN2@CreateMode:

; 776  : 	}
; 777  : }

  0007c	e8 00 00 00 00	 call	 __EH_epilog3
  00081	c3		 ret	 0
_TEXT	ENDS
;	COMDAT text$x
text$x	SEGMENT
__unwindfunclet$?CreateModeList@SingleSettingWnd@@IAEXXZ$0:
  00000	8d 4d dc	 lea	 ecx, DWORD PTR _ModeName$535112[ebp]
  00003	ff 25 00 00 00
	00		 jmp	 DWORD PTR __imp_??1ioHashString@@QAE@XZ
__ehhandler$?CreateModeList@SingleSettingWnd@@IAEXXZ:
  00009	8b 54 24 08	 mov	 edx, DWORD PTR [esp+8]
  0000d	8d 42 0c	 lea	 eax, DWORD PTR [edx+12]
  00010	8b 4a d8	 mov	 ecx, DWORD PTR [edx-40]
  00013	33 c8		 xor	 ecx, eax
  00015	e8 00 00 00 00	 call	 @__security_check_cookie@4
  0001a	b8 00 00 00 00	 mov	 eax, OFFSET __ehfuncinfo$?CreateModeList@SingleSettingWnd@@IAEXXZ
  0001f	e9 00 00 00 00	 jmp	 ___CxxFrameHandler3
text$x	ENDS
?CreateModeList@SingleSettingWnd@@IAEXXZ ENDP		; SingleSettingWnd::CreateModeList
PUBLIC	?OpenModekList@SingleSettingWnd@@IAEXPAVioWnd@@@Z ; SingleSettingWnd::OpenModekList
EXTRN	?ShowListWnd@StringScrollListWnd@@QAEXXZ:PROC	; StringScrollListWnd::ShowListWnd
EXTRN	?SetList@StringScrollListWnd@@QAEXPAVioWnd@@HHW4OpenStyle@1@@Z:PROC ; StringScrollListWnd::SetList
EXTRN	__imp_?GetXPos@ioWnd@@QBEHXZ:PROC
EXTRN	__imp_?GetYPos@ioWnd@@QBEHXZ:PROC
; Function compile flags: /Ogsp
;	COMDAT ?OpenModekList@SingleSettingWnd@@IAEXPAVioWnd@@@Z
_TEXT	SEGMENT
_pOpenWnd$ = 8						; size = 4
?OpenModekList@SingleSettingWnd@@IAEXPAVioWnd@@@Z PROC	; SingleSettingWnd::OpenModekList, COMDAT
; _this$ = ecx

; 780  : {	

  00000	55		 push	 ebp
  00001	8b ec		 mov	 ebp, esp
  00003	56		 push	 esi
  00004	57		 push	 edi

; 781  : 	StringScrollListWnd *pList = dynamic_cast<StringScrollListWnd *>( FindChildWnd( ID_MODE_LIST ) );

  00005	6a 00		 push	 0
  00007	68 00 00 00 00	 push	 OFFSET ??_R0?AVStringScrollListWnd@@@8
  0000c	68 00 00 00 00	 push	 OFFSET ??_R0?AVioWnd@@@8
  00011	6a 00		 push	 0
  00013	68 e9 03 00 00	 push	 1001			; 000003e9H
  00018	8b f9		 mov	 edi, ecx
  0001a	ff 15 00 00 00
	00		 call	 DWORD PTR __imp_?FindChildWnd@ioWnd@@QAEPAV1@K@Z
  00020	50		 push	 eax
  00021	e8 00 00 00 00	 call	 ___RTDynamicCast
  00026	8b f0		 mov	 esi, eax
  00028	83 c4 14	 add	 esp, 20			; 00000014H

; 782  : 	if( pList )

  0002b	85 f6		 test	 esi, esi
  0002d	74 31		 je	 SHORT $LN1@OpenModekL

; 783  : 	{
; 784  : 		pList->SetList( pOpenWnd, pOpenWnd->GetXPos(), pOpenWnd->GetYPos() + 24 );

  0002f	8b 4d 08	 mov	 ecx, DWORD PTR _pOpenWnd$[ebp]
  00032	6a 00		 push	 0
  00034	ff 15 00 00 00
	00		 call	 DWORD PTR __imp_?GetYPos@ioWnd@@QBEHXZ
  0003a	8b 4d 08	 mov	 ecx, DWORD PTR _pOpenWnd$[ebp]
  0003d	83 c0 18	 add	 eax, 24			; 00000018H
  00040	50		 push	 eax
  00041	ff 15 00 00 00
	00		 call	 DWORD PTR __imp_?GetXPos@ioWnd@@QBEHXZ
  00047	50		 push	 eax
  00048	ff 75 08	 push	 DWORD PTR _pOpenWnd$[ebp]
  0004b	8b ce		 mov	 ecx, esi
  0004d	e8 00 00 00 00	 call	 ?SetList@StringScrollListWnd@@QAEXPAVioWnd@@HHW4OpenStyle@1@@Z ; StringScrollListWnd::SetList

; 785  : 		CreateModeList();

  00052	8b cf		 mov	 ecx, edi
  00054	e8 00 00 00 00	 call	 ?CreateModeList@SingleSettingWnd@@IAEXXZ ; SingleSettingWnd::CreateModeList

; 786  : 		pList->ShowListWnd();

  00059	8b ce		 mov	 ecx, esi
  0005b	e8 00 00 00 00	 call	 ?ShowListWnd@StringScrollListWnd@@QAEXXZ ; StringScrollListWnd::ShowListWnd
$LN1@OpenModekL:
  00060	5f		 pop	 edi
  00061	5e		 pop	 esi

; 787  : 	}
; 788  : }

  00062	5d		 pop	 ebp
  00063	c2 04 00	 ret	 4
?OpenModekList@SingleSettingWnd@@IAEXPAVioWnd@@@Z ENDP	; SingleSettingWnd::OpenModekList
_TEXT	ENDS
PUBLIC	?UpdateMode@SingleSettingWnd@@IAEXH@Z		; SingleSettingWnd::UpdateMode
;	COMDAT xdata$x
xdata$x	SEGMENT
__unwindtable$?UpdateMode@SingleSettingWnd@@IAEXH@Z DD 0ffffffffH
	DD	FLAT:__unwindfunclet$?UpdateMode@SingleSettingWnd@@IAEXH@Z$0
__ehfuncinfo$?UpdateMode@SingleSettingWnd@@IAEXH@Z DD 019930522H
	DD	01H
	DD	FLAT:__unwindtable$?UpdateMode@SingleSettingWnd@@IAEXH@Z
	DD	2 DUP(00H)
	DD	2 DUP(00H)
	DD	00H
	DD	01H
; Function compile flags: /Ogsp
xdata$x	ENDS
;	COMDAT ?UpdateMode@SingleSettingWnd@@IAEXH@Z
_TEXT	SEGMENT
_ModeName$ = -28					; size = 16
__$EHRec$ = -12						; size = 12
_eModeType$ = 8						; size = 4
?UpdateMode@SingleSettingWnd@@IAEXH@Z PROC		; SingleSettingWnd::UpdateMode, COMDAT
; _this$ = ecx

; 791  : {

  00000	6a 10		 push	 16			; 00000010H
  00002	b8 00 00 00 00	 mov	 eax, __ehhandler$?UpdateMode@SingleSettingWnd@@IAEXH@Z
  00007	e8 00 00 00 00	 call	 __EH_prolog3
  0000c	8b f1		 mov	 esi, ecx

; 792  : 	ioHashString ModeName;

  0000e	8d 4d e4	 lea	 ecx, DWORD PTR _ModeName$[ebp]
  00011	ff 15 00 00 00
	00		 call	 DWORD PTR __imp_??0ioHashString@@QAE@XZ
  00017	83 65 fc 00	 and	 DWORD PTR __$EHRec$[ebp+8], 0

; 793  : 	if( GetModeNameByType( eModeType, ModeName ) )

  0001b	8d 45 e4	 lea	 eax, DWORD PTR _ModeName$[ebp]
  0001e	50		 push	 eax
  0001f	ff 75 08	 push	 DWORD PTR _eModeType$[ebp]
  00022	8b ce		 mov	 ecx, esi
  00024	e8 00 00 00 00	 call	 ?GetModeNameByType@SingleSettingWnd@@IAE_NHAAVioHashString@@@Z ; SingleSettingWnd::GetModeNameByType
  00029	0f b6 c0	 movzx	 eax, al
  0002c	f7 d8		 neg	 eax
  0002e	1b c0		 sbb	 eax, eax
  00030	23 45 08	 and	 eax, DWORD PTR _eModeType$[ebp]

; 794  : 		m_CurrModeType = eModeType;
; 795  : 	else
; 796  : 		m_CurrModeType = MT_NONE;
; 797  : 
; 798  : 	ChangeModeButtonTitle( ModeName );

  00033	8b ce		 mov	 ecx, esi
  00035	89 86 60 01 00
	00		 mov	 DWORD PTR [esi+352], eax
  0003b	8d 45 e4	 lea	 eax, DWORD PTR _ModeName$[ebp]
  0003e	50		 push	 eax
  0003f	e8 00 00 00 00	 call	 ?ChangeModeButtonTitle@SingleSettingWnd@@IAEXABVioHashString@@@Z ; SingleSettingWnd::ChangeModeButtonTitle

; 799  : }

  00044	83 4d fc ff	 or	 DWORD PTR __$EHRec$[ebp+8], -1
  00048	8d 4d e4	 lea	 ecx, DWORD PTR _ModeName$[ebp]
  0004b	ff 15 00 00 00
	00		 call	 DWORD PTR __imp_??1ioHashString@@QAE@XZ
  00051	e8 00 00 00 00	 call	 __EH_epilog3
  00056	c2 04 00	 ret	 4
_TEXT	ENDS
;	COMDAT text$x
text$x	SEGMENT
__unwindfunclet$?UpdateMode@SingleSettingWnd@@IAEXH@Z$0:
  00000	8d 4d e4	 lea	 ecx, DWORD PTR _ModeName$[ebp]
  00003	ff 25 00 00 00
	00		 jmp	 DWORD PTR __imp_??1ioHashString@@QAE@XZ
__ehhandler$?UpdateMode@SingleSettingWnd@@IAEXH@Z:
  00009	8b 54 24 08	 mov	 edx, DWORD PTR [esp+8]
  0000d	8d 42 0c	 lea	 eax, DWORD PTR [edx+12]
  00010	8b 4a e0	 mov	 ecx, DWORD PTR [edx-32]
  00013	33 c8		 xor	 ecx, eax
  00015	e8 00 00 00 00	 call	 @__security_check_cookie@4
  0001a	b8 00 00 00 00	 mov	 eax, OFFSET __ehfuncinfo$?UpdateMode@SingleSettingWnd@@IAEXH@Z
  0001f	e9 00 00 00 00	 jmp	 ___CxxFrameHandler3
text$x	ENDS
?UpdateMode@SingleSettingWnd@@IAEXH@Z ENDP		; SingleSettingWnd::UpdateMode
PUBLIC	?ChangeModeSubButtonTitle@SingleSettingWnd@@IAEXABVioHashString@@@Z ; SingleSettingWnd::ChangeModeSubButtonTitle
; Function compile flags: /Ogsp
;	COMDAT ?ChangeModeSubButtonTitle@SingleSettingWnd@@IAEXABVioHashString@@@Z
_TEXT	SEGMENT
_szName$ = 8						; size = 4
?ChangeModeSubButtonTitle@SingleSettingWnd@@IAEXABVioHashString@@@Z PROC ; SingleSettingWnd::ChangeModeSubButtonTitle, COMDAT
; _this$ = ecx

; 804  : {

  00000	55		 push	 ebp
  00001	8b ec		 mov	 ebp, esp
  00003	56		 push	 esi

; 805  : 	ioButton* pButton = dynamic_cast<ioButton*>( FindChildWnd( ID_MODE_SUB ) );

  00004	6a 00		 push	 0
  00006	68 00 00 00 00	 push	 OFFSET ??_R0?AVioButton@@@8
  0000b	68 00 00 00 00	 push	 OFFSET ??_R0?AVioWnd@@@8
  00010	6a 00		 push	 0
  00012	6a 06		 push	 6
  00014	ff 15 00 00 00
	00		 call	 DWORD PTR __imp_?FindChildWnd@ioWnd@@QAEPAV1@K@Z
  0001a	50		 push	 eax
  0001b	e8 00 00 00 00	 call	 ___RTDynamicCast
  00020	8b f0		 mov	 esi, eax
  00022	83 c4 14	 add	 esp, 20			; 00000014H

; 806  : 	if( pButton )

  00025	85 f6		 test	 esi, esi
  00027	74 19		 je	 SHORT $LN1@ChangeMode@2

; 807  : 		pButton->SetTitleText( szName.c_str() );

  00029	8b 4d 08	 mov	 ecx, DWORD PTR _szName$[ebp]
  0002c	6a 00		 push	 0
  0002e	68 00 00 00 00	 push	 OFFSET ??_C@_00CNPNBAHC@?$AA@
  00033	ff 15 00 00 00
	00		 call	 DWORD PTR __imp_?c_str@ioHashString@@QBEPBDXZ
  00039	50		 push	 eax
  0003a	8b ce		 mov	 ecx, esi
  0003c	ff 15 00 00 00
	00		 call	 DWORD PTR __imp_?SetTitleText@ioWnd@@QAEXPBD0H@Z
$LN1@ChangeMode@2:
  00042	5e		 pop	 esi

; 808  : }

  00043	5d		 pop	 ebp
  00044	c2 04 00	 ret	 4
?ChangeModeSubButtonTitle@SingleSettingWnd@@IAEXABVioHashString@@@Z ENDP ; SingleSettingWnd::ChangeModeSubButtonTitle
_TEXT	ENDS
PUBLIC	?CreateModeSubList@SingleSettingWnd@@IAEXXZ	; SingleSettingWnd::CreateModeSubList
EXTRN	?GetBattleModeStringList@ioModeSelectInfo@@QAEXPAVStringScrollListWnd@@HK@Z:PROC ; ioModeSelectInfo::GetBattleModeStringList
EXTRN	?GetBattleModeIndex@ioModeSelectInfo@@QAEHH@Z:PROC ; ioModeSelectInfo::GetBattleModeIndex
EXTRN	?GetSingleton@ioModeSelectInfo@@SAAAV1@XZ:PROC	; ioModeSelectInfo::GetSingleton
; Function compile flags: /Ogsp
;	COMDAT ?CreateModeSubList@SingleSettingWnd@@IAEXXZ
_TEXT	SEGMENT
?CreateModeSubList@SingleSettingWnd@@IAEXXZ PROC	; SingleSettingWnd::CreateModeSubList, COMDAT
; _this$ = ecx

; 811  : {

  00000	53		 push	 ebx
  00001	56		 push	 esi
  00002	57		 push	 edi

; 812  : 	StringScrollListWnd *pList = dynamic_cast<StringScrollListWnd*>( FindChildWnd( ID_MODE_SUB_LIST ) );

  00003	6a 00		 push	 0
  00005	68 00 00 00 00	 push	 OFFSET ??_R0?AVStringScrollListWnd@@@8
  0000a	68 00 00 00 00	 push	 OFFSET ??_R0?AVioWnd@@@8
  0000f	6a 00		 push	 0
  00011	be ea 03 00 00	 mov	 esi, 1002		; 000003eaH
  00016	56		 push	 esi
  00017	8b f9		 mov	 edi, ecx
  00019	ff 15 00 00 00
	00		 call	 DWORD PTR __imp_?FindChildWnd@ioWnd@@QAEPAV1@K@Z
  0001f	50		 push	 eax
  00020	e8 00 00 00 00	 call	 ___RTDynamicCast
  00025	8b d8		 mov	 ebx, eax
  00027	83 c4 14	 add	 esp, 20			; 00000014H

; 813  : 	if( pList )

  0002a	85 db		 test	 ebx, ebx
  0002c	74 21		 je	 SHORT $LN1@CreateMode@2

; 814  : 	{		
; 815  : 		int iModeIdx = g_ModeSelectInfo.GetBattleModeIndex( m_CurrModeType );

  0002e	ff b7 60 01 00
	00		 push	 DWORD PTR [edi+352]
  00034	e8 00 00 00 00	 call	 ?GetSingleton@ioModeSelectInfo@@SAAAV1@XZ ; ioModeSelectInfo::GetSingleton
  00039	8b c8		 mov	 ecx, eax
  0003b	e8 00 00 00 00	 call	 ?GetBattleModeIndex@ioModeSelectInfo@@QAEHH@Z ; ioModeSelectInfo::GetBattleModeIndex

; 816  : 		g_ModeSelectInfo.GetBattleModeStringList( pList, iModeIdx, ID_MODE_SUB_LIST );

  00040	56		 push	 esi
  00041	50		 push	 eax
  00042	53		 push	 ebx
  00043	e8 00 00 00 00	 call	 ?GetSingleton@ioModeSelectInfo@@SAAAV1@XZ ; ioModeSelectInfo::GetSingleton
  00048	8b c8		 mov	 ecx, eax
  0004a	e8 00 00 00 00	 call	 ?GetBattleModeStringList@ioModeSelectInfo@@QAEXPAVStringScrollListWnd@@HK@Z ; ioModeSelectInfo::GetBattleModeStringList
$LN1@CreateMode@2:

; 817  : 	}
; 818  : }

  0004f	5f		 pop	 edi
  00050	5e		 pop	 esi
  00051	5b		 pop	 ebx
  00052	c3		 ret	 0
?CreateModeSubList@SingleSettingWnd@@IAEXXZ ENDP	; SingleSettingWnd::CreateModeSubList
_TEXT	ENDS
PUBLIC	?OpenModeSubList@SingleSettingWnd@@IAEXPAVioWnd@@@Z ; SingleSettingWnd::OpenModeSubList
; Function compile flags: /Ogsp
;	COMDAT ?OpenModeSubList@SingleSettingWnd@@IAEXPAVioWnd@@@Z
_TEXT	SEGMENT
_pOpenWnd$ = 8						; size = 4
?OpenModeSubList@SingleSettingWnd@@IAEXPAVioWnd@@@Z PROC ; SingleSettingWnd::OpenModeSubList, COMDAT
; _this$ = ecx

; 821  : {	

  00000	55		 push	 ebp
  00001	8b ec		 mov	 ebp, esp
  00003	56		 push	 esi
  00004	57		 push	 edi

; 822  : 	StringScrollListWnd *pList = dynamic_cast<StringScrollListWnd *>( FindChildWnd( ID_MODE_SUB_LIST ) );

  00005	6a 00		 push	 0
  00007	68 00 00 00 00	 push	 OFFSET ??_R0?AVStringScrollListWnd@@@8
  0000c	68 00 00 00 00	 push	 OFFSET ??_R0?AVioWnd@@@8
  00011	6a 00		 push	 0
  00013	68 ea 03 00 00	 push	 1002			; 000003eaH
  00018	8b f9		 mov	 edi, ecx
  0001a	ff 15 00 00 00
	00		 call	 DWORD PTR __imp_?FindChildWnd@ioWnd@@QAEPAV1@K@Z
  00020	50		 push	 eax
  00021	e8 00 00 00 00	 call	 ___RTDynamicCast
  00026	8b f0		 mov	 esi, eax
  00028	83 c4 14	 add	 esp, 20			; 00000014H

; 823  : 	if( pList )

  0002b	85 f6		 test	 esi, esi
  0002d	74 31		 je	 SHORT $LN1@OpenModeSu

; 824  : 	{
; 825  : 		pList->SetList( pOpenWnd, pOpenWnd->GetXPos(), pOpenWnd->GetYPos() + 24 );

  0002f	8b 4d 08	 mov	 ecx, DWORD PTR _pOpenWnd$[ebp]
  00032	6a 00		 push	 0
  00034	ff 15 00 00 00
	00		 call	 DWORD PTR __imp_?GetYPos@ioWnd@@QBEHXZ
  0003a	8b 4d 08	 mov	 ecx, DWORD PTR _pOpenWnd$[ebp]
  0003d	83 c0 18	 add	 eax, 24			; 00000018H
  00040	50		 push	 eax
  00041	ff 15 00 00 00
	00		 call	 DWORD PTR __imp_?GetXPos@ioWnd@@QBEHXZ
  00047	50		 push	 eax
  00048	ff 75 08	 push	 DWORD PTR _pOpenWnd$[ebp]
  0004b	8b ce		 mov	 ecx, esi
  0004d	e8 00 00 00 00	 call	 ?SetList@StringScrollListWnd@@QAEXPAVioWnd@@HHW4OpenStyle@1@@Z ; StringScrollListWnd::SetList

; 826  : 		CreateModeSubList();

  00052	8b cf		 mov	 ecx, edi
  00054	e8 00 00 00 00	 call	 ?CreateModeSubList@SingleSettingWnd@@IAEXXZ ; SingleSettingWnd::CreateModeSubList

; 827  : 		pList->ShowListWnd();

  00059	8b ce		 mov	 ecx, esi
  0005b	e8 00 00 00 00	 call	 ?ShowListWnd@StringScrollListWnd@@QAEXXZ ; StringScrollListWnd::ShowListWnd
$LN1@OpenModeSu:
  00060	5f		 pop	 edi
  00061	5e		 pop	 esi

; 828  : 	}
; 829  : }

  00062	5d		 pop	 ebp
  00063	c2 04 00	 ret	 4
?OpenModeSubList@SingleSettingWnd@@IAEXPAVioWnd@@@Z ENDP ; SingleSettingWnd::OpenModeSubList
_TEXT	ENDS
PUBLIC	?ChangeMapIdxButtonTitle@SingleSettingWnd@@IAEXABVioHashString@@@Z ; SingleSettingWnd::ChangeMapIdxButtonTitle
; Function compile flags: /Ogsp
;	COMDAT ?ChangeMapIdxButtonTitle@SingleSettingWnd@@IAEXABVioHashString@@@Z
_TEXT	SEGMENT
_szName$ = 8						; size = 4
?ChangeMapIdxButtonTitle@SingleSettingWnd@@IAEXABVioHashString@@@Z PROC ; SingleSettingWnd::ChangeMapIdxButtonTitle, COMDAT
; _this$ = ecx

; 853  : {

  00000	55		 push	 ebp
  00001	8b ec		 mov	 ebp, esp
  00003	56		 push	 esi

; 854  : 	ioButton* pButton = dynamic_cast<ioButton*>( FindChildWnd( ID_MAP ) );

  00004	6a 00		 push	 0
  00006	68 00 00 00 00	 push	 OFFSET ??_R0?AVioButton@@@8
  0000b	68 00 00 00 00	 push	 OFFSET ??_R0?AVioWnd@@@8
  00010	6a 00		 push	 0
  00012	6a 07		 push	 7
  00014	ff 15 00 00 00
	00		 call	 DWORD PTR __imp_?FindChildWnd@ioWnd@@QAEPAV1@K@Z
  0001a	50		 push	 eax
  0001b	e8 00 00 00 00	 call	 ___RTDynamicCast
  00020	8b f0		 mov	 esi, eax
  00022	83 c4 14	 add	 esp, 20			; 00000014H

; 855  : 	if( pButton )

  00025	85 f6		 test	 esi, esi
  00027	74 19		 je	 SHORT $LN1@ChangeMapI

; 856  : 		pButton->SetTitleText( szName.c_str() );

  00029	8b 4d 08	 mov	 ecx, DWORD PTR _szName$[ebp]
  0002c	6a 00		 push	 0
  0002e	68 00 00 00 00	 push	 OFFSET ??_C@_00CNPNBAHC@?$AA@
  00033	ff 15 00 00 00
	00		 call	 DWORD PTR __imp_?c_str@ioHashString@@QBEPBDXZ
  00039	50		 push	 eax
  0003a	8b ce		 mov	 ecx, esi
  0003c	ff 15 00 00 00
	00		 call	 DWORD PTR __imp_?SetTitleText@ioWnd@@QAEXPBD0H@Z
$LN1@ChangeMapI:
  00042	5e		 pop	 esi

; 857  : }

  00043	5d		 pop	 ebp
  00044	c2 04 00	 ret	 4
?ChangeMapIdxButtonTitle@SingleSettingWnd@@IAEXABVioHashString@@@Z ENDP ; SingleSettingWnd::ChangeMapIdxButtonTitle
_TEXT	ENDS
PUBLIC	?ChangeCharacterButtonTitle@SingleSettingWnd@@QAEXABVioHashString@@@Z ; SingleSettingWnd::ChangeCharacterButtonTitle
; Function compile flags: /Ogsp
;	COMDAT ?ChangeCharacterButtonTitle@SingleSettingWnd@@QAEXABVioHashString@@@Z
_TEXT	SEGMENT
_szName$ = 8						; size = 4
?ChangeCharacterButtonTitle@SingleSettingWnd@@QAEXABVioHashString@@@Z PROC ; SingleSettingWnd::ChangeCharacterButtonTitle, COMDAT
; _this$ = ecx

; 899  : {

  00000	55		 push	 ebp
  00001	8b ec		 mov	 ebp, esp
  00003	56		 push	 esi

; 900  : 	ioButton* pButton = dynamic_cast<ioButton*>( FindChildWnd( ID_CHARACTER ) );

  00004	6a 00		 push	 0
  00006	68 00 00 00 00	 push	 OFFSET ??_R0?AVioButton@@@8
  0000b	68 00 00 00 00	 push	 OFFSET ??_R0?AVioWnd@@@8
  00010	6a 00		 push	 0
  00012	6a 0b		 push	 11			; 0000000bH
  00014	ff 15 00 00 00
	00		 call	 DWORD PTR __imp_?FindChildWnd@ioWnd@@QAEPAV1@K@Z
  0001a	50		 push	 eax
  0001b	e8 00 00 00 00	 call	 ___RTDynamicCast
  00020	8b f0		 mov	 esi, eax
  00022	83 c4 14	 add	 esp, 20			; 00000014H

; 901  : 	if( pButton )

  00025	85 f6		 test	 esi, esi
  00027	74 19		 je	 SHORT $LN1@ChangeChar

; 902  : 		pButton->SetTitleText( szName.c_str() );

  00029	8b 4d 08	 mov	 ecx, DWORD PTR _szName$[ebp]
  0002c	6a 00		 push	 0
  0002e	68 00 00 00 00	 push	 OFFSET ??_C@_00CNPNBAHC@?$AA@
  00033	ff 15 00 00 00
	00		 call	 DWORD PTR __imp_?c_str@ioHashString@@QBEPBDXZ
  00039	50		 push	 eax
  0003a	8b ce		 mov	 ecx, esi
  0003c	ff 15 00 00 00
	00		 call	 DWORD PTR __imp_?SetTitleText@ioWnd@@QAEXPBD0H@Z
$LN1@ChangeChar:
  00042	5e		 pop	 esi

; 903  : }

  00043	5d		 pop	 ebp
  00044	c2 04 00	 ret	 4
?ChangeCharacterButtonTitle@SingleSettingWnd@@QAEXABVioHashString@@@Z ENDP ; SingleSettingWnd::ChangeCharacterButtonTitle
_TEXT	ENDS
PUBLIC	?ChangeOwnerButtonTitle@SingleSettingWnd@@QAEXABVioHashString@@@Z ; SingleSettingWnd::ChangeOwnerButtonTitle
EXTRN	__imp_??4ioHashString@@QAEAAV0@ABV0@@Z:PROC
; Function compile flags: /Ogsp
;	COMDAT ?ChangeOwnerButtonTitle@SingleSettingWnd@@QAEXABVioHashString@@@Z
_TEXT	SEGMENT
_szName$ = 8						; size = 4
?ChangeOwnerButtonTitle@SingleSettingWnd@@QAEXABVioHashString@@@Z PROC ; SingleSettingWnd::ChangeOwnerButtonTitle, COMDAT
; _this$ = ecx

; 953  : {

  00000	55		 push	 ebp
  00001	8b ec		 mov	 ebp, esp
  00003	56		 push	 esi

; 954  : 	m_CurrOwner = szName;

  00004	ff 75 08	 push	 DWORD PTR _szName$[ebp]
  00007	8b f1		 mov	 esi, ecx
  00009	8d 8e 6c 01 00
	00		 lea	 ecx, DWORD PTR [esi+364]
  0000f	ff 15 00 00 00
	00		 call	 DWORD PTR __imp_??4ioHashString@@QAEAAV0@ABV0@@Z

; 955  : 	ioButton* pButton = dynamic_cast<ioButton*>( FindChildWnd( ID_OWER ) );

  00015	6a 00		 push	 0
  00017	68 00 00 00 00	 push	 OFFSET ??_R0?AVioButton@@@8
  0001c	68 00 00 00 00	 push	 OFFSET ??_R0?AVioWnd@@@8
  00021	6a 00		 push	 0
  00023	6a 0c		 push	 12			; 0000000cH
  00025	8b ce		 mov	 ecx, esi
  00027	ff 15 00 00 00
	00		 call	 DWORD PTR __imp_?FindChildWnd@ioWnd@@QAEPAV1@K@Z
  0002d	50		 push	 eax
  0002e	e8 00 00 00 00	 call	 ___RTDynamicCast
  00033	8b f0		 mov	 esi, eax
  00035	83 c4 14	 add	 esp, 20			; 00000014H

; 956  : 	if( pButton )

  00038	85 f6		 test	 esi, esi
  0003a	74 19		 je	 SHORT $LN1@ChangeOwne

; 957  : 		pButton->SetTitleText( szName.c_str() );

  0003c	8b 4d 08	 mov	 ecx, DWORD PTR _szName$[ebp]
  0003f	6a 00		 push	 0
  00041	68 00 00 00 00	 push	 OFFSET ??_C@_00CNPNBAHC@?$AA@
  00046	ff 15 00 00 00
	00		 call	 DWORD PTR __imp_?c_str@ioHashString@@QBEPBDXZ
  0004c	50		 push	 eax
  0004d	8b ce		 mov	 ecx, esi
  0004f	ff 15 00 00 00
	00		 call	 DWORD PTR __imp_?SetTitleText@ioWnd@@QAEXPBD0H@Z
$LN1@ChangeOwne:
  00055	5e		 pop	 esi

; 958  : }

  00056	5d		 pop	 ebp
  00057	c2 04 00	 ret	 4
?ChangeOwnerButtonTitle@SingleSettingWnd@@QAEXABVioHashString@@@Z ENDP ; SingleSettingWnd::ChangeOwnerButtonTitle
_TEXT	ENDS
PUBLIC	?ParseScroll@SingleSettingWnd@@QAEXXZ		; SingleSettingWnd::ParseScroll
; Function compile flags: /Ogsp
;	COMDAT ?ParseScroll@SingleSettingWnd@@QAEXXZ
_TEXT	SEGMENT
?ParseScroll@SingleSettingWnd@@QAEXXZ PROC		; SingleSettingWnd::ParseScroll, COMDAT
; _this$ = ecx

; 1018 : {

  00000	56		 push	 esi
  00001	57		 push	 edi

; 1019 : 	ioScroll *pScroll = (ioScroll*)FindChildWnd( ID_SCROLL );

  00002	68 ee 03 00 00	 push	 1006			; 000003eeH
  00007	8b f9		 mov	 edi, ecx
  00009	ff 15 00 00 00
	00		 call	 DWORD PTR __imp_?FindChildWnd@ioWnd@@QAEPAV1@K@Z
  0000f	8b f0		 mov	 esi, eax

; 1020 : 	if( pScroll )

  00011	85 f6		 test	 esi, esi
  00013	74 21		 je	 SHORT $LN1@ParseScrol

; 1021 : 	{
; 1022 : 		pScroll->SetScrollRange( 0, ALPHA_MAX );

  00015	8b 06		 mov	 eax, DWORD PTR [esi]
  00017	6a 64		 push	 100			; 00000064H
  00019	6a 00		 push	 0
  0001b	8b ce		 mov	 ecx, esi
  0001d	ff 90 30 01 00
	00		 call	 DWORD PTR [eax+304]

; 1023 : 		pScroll->SetScrollPos( (int)m_fCurrAlpha );

  00023	f3 0f 2c 8f 7c
	01 00 00	 cvttss2si ecx, DWORD PTR [edi+380]
  0002b	8b 06		 mov	 eax, DWORD PTR [esi]
  0002d	51		 push	 ecx
  0002e	8b ce		 mov	 ecx, esi
  00030	ff 90 38 01 00
	00		 call	 DWORD PTR [eax+312]
$LN1@ParseScrol:

; 1024 : 	}
; 1025 : }

  00036	5f		 pop	 edi
  00037	5e		 pop	 esi
  00038	c3		 ret	 0
?ParseScroll@SingleSettingWnd@@QAEXXZ ENDP		; SingleSettingWnd::ParseScroll
_TEXT	ENDS
PUBLIC	__real@406fe00000000000
PUBLIC	__real@4059000000000000
PUBLIC	__real@41200000
PUBLIC	__real@4024000000000000
PUBLIC	?SetAlpha@SingleSettingWnd@@QAEXM@Z		; SingleSettingWnd::SetAlpha
EXTRN	__ftol2:PROC
;	COMDAT __real@406fe00000000000
CONST	SEGMENT
__real@406fe00000000000 DQ 0406fe00000000000r	; 255
CONST	ENDS
;	COMDAT __real@4059000000000000
CONST	SEGMENT
__real@4059000000000000 DQ 04059000000000000r	; 100
CONST	ENDS
;	COMDAT __real@41200000
CONST	SEGMENT
__real@41200000 DD 041200000r			; 10
CONST	ENDS
;	COMDAT __real@4024000000000000
CONST	SEGMENT
__real@4024000000000000 DQ 04024000000000000r	; 10
; Function compile flags: /Ogsp
CONST	ENDS
;	COMDAT ?SetAlpha@SingleSettingWnd@@QAEXM@Z
_TEXT	SEGMENT
_fRate$ = 8						; size = 4
_fAlpha$ = 8						; size = 4
?SetAlpha@SingleSettingWnd@@QAEXM@Z PROC		; SingleSettingWnd::SetAlpha, COMDAT
; _this$ = ecx

; 1069 : {

  00000	55		 push	 ebp
  00001	8b ec		 mov	 ebp, esp

; 1070 : 	float fRate = max( ALPHA_MIN, fAlpha );

  00003	f3 0f 10 45 08	 movss	 xmm0, DWORD PTR _fAlpha$[ebp]
  00008	f2 0f 10 15 00
	00 00 00	 movsd	 xmm2, QWORD PTR __real@4024000000000000
  00010	56		 push	 esi
  00011	0f 5a c8	 cvtps2pd xmm1, xmm0
  00014	66 0f 2f d1	 comisd	 xmm2, xmm1
  00018	57		 push	 edi
  00019	8b f1		 mov	 esi, ecx
  0001b	76 08		 jbe	 SHORT $LN3@SetAlpha
  0001d	f3 0f 10 05 00
	00 00 00	 movss	 xmm0, DWORD PTR __real@41200000
$LN3@SetAlpha:
  00025	f3 0f 11 45 08	 movss	 DWORD PTR _fRate$[ebp], xmm0

; 1071 : 	DWORD dwRate = MAX_ALPHA_RATE * ( fRate / (float)ALPHA_MAX );
; 1072 : 	SetWindowAlpha( dwRate );	

  0002a	d9 45 08	 fld	 DWORD PTR _fRate$[ebp]
  0002d	8b 3e		 mov	 edi, DWORD PTR [esi]
  0002f	dc 35 00 00 00
	00		 fdiv	 QWORD PTR __real@4059000000000000
  00035	dc 0d 00 00 00
	00		 fmul	 QWORD PTR __real@406fe00000000000
  0003b	e8 00 00 00 00	 call	 __ftol2
  00040	50		 push	 eax
  00041	8b ce		 mov	 ecx, esi
  00043	ff 57 1c	 call	 DWORD PTR [edi+28]
  00046	5f		 pop	 edi
  00047	5e		 pop	 esi

; 1073 : }

  00048	5d		 pop	 ebp
  00049	c2 04 00	 ret	 4
?SetAlpha@SingleSettingWnd@@QAEXM@Z ENDP		; SingleSettingWnd::SetAlpha
; Function compile flags: /Ogsp
_TEXT	ENDS
;	COMDAT ?OnRender@SingleSettingWnd@@MAEXXZ
_TEXT	SEGMENT
?OnRender@SingleSettingWnd@@MAEXXZ PROC			; SingleSettingWnd::OnRender, COMDAT
; _this$ = ecx

; 1283 : {

  00000	56		 push	 esi
  00001	8b f1		 mov	 esi, ecx

; 1284 : 	ioWnd::OnRender();

  00003	ff 15 00 00 00
	00		 call	 DWORD PTR __imp_?OnRender@ioWnd@@MAEXXZ

; 1285 : 
; 1286 : 	int iXPos, iYPos;
; 1287 : 	iXPos = GetDerivedPosX();

  00009	8b ce		 mov	 ecx, esi
  0000b	ff 15 00 00 00
	00		 call	 DWORD PTR __imp_?GetDerivedPosX@ioWnd@@QBEHXZ

; 1288 : 	iYPos = GetDerivedPosY();

  00011	8b ce		 mov	 ecx, esi
  00013	5e		 pop	 esi
  00014	ff 25 00 00 00
	00		 jmp	 DWORD PTR __imp_?GetDerivedPosY@ioWnd@@QBEHXZ
?OnRender@SingleSettingWnd@@MAEXXZ ENDP			; SingleSettingWnd::OnRender
_TEXT	ENDS
PUBLIC	?size@?$vector@PAVioBaseChar@@V?$allocator@PAVioBaseChar@@@std@@@std@@QBEIXZ ; std::vector<ioBaseChar *,std::allocator<ioBaseChar *> >::size
; Function compile flags: /Ogsp
; File c:\program files (x86)\microsoft visual studio 10.0\vc\include\vector
;	COMDAT ?size@?$vector@PAVioBaseChar@@V?$allocator@PAVioBaseChar@@@std@@@std@@QBEIXZ
_TEXT	SEGMENT
?size@?$vector@PAVioBaseChar@@V?$allocator@PAVioBaseChar@@@std@@@std@@QBEIXZ PROC ; std::vector<ioBaseChar *,std::allocator<ioBaseChar *> >::size, COMDAT
; _this$ = ecx

; 879  : 		return (this->_Mylast - this->_Myfirst);

  00000	8b 41 04	 mov	 eax, DWORD PTR [ecx+4]
  00003	2b 01		 sub	 eax, DWORD PTR [ecx]
  00005	c1 f8 02	 sar	 eax, 2

; 880  : 		}

  00008	c3		 ret	 0
?size@?$vector@PAVioBaseChar@@V?$allocator@PAVioBaseChar@@@std@@@std@@QBEIXZ ENDP ; std::vector<ioBaseChar *,std::allocator<ioBaseChar *> >::size
_TEXT	ENDS
PUBLIC	?empty@?$vector@PAVioBaseChar@@V?$allocator@PAVioBaseChar@@@std@@@std@@QBE_NXZ ; std::vector<ioBaseChar *,std::allocator<ioBaseChar *> >::empty
; Function compile flags: /Ogsp
;	COMDAT ?empty@?$vector@PAVioBaseChar@@V?$allocator@PAVioBaseChar@@@std@@@std@@QBE_NXZ
_TEXT	SEGMENT
?empty@?$vector@PAVioBaseChar@@V?$allocator@PAVioBaseChar@@@std@@@std@@QBE_NXZ PROC ; std::vector<ioBaseChar *,std::allocator<ioBaseChar *> >::empty, COMDAT
; _this$ = ecx

; 889  : 		return (this->_Myfirst == this->_Mylast);

  00000	8b 01		 mov	 eax, DWORD PTR [ecx]
  00002	2b 41 04	 sub	 eax, DWORD PTR [ecx+4]
  00005	f7 d8		 neg	 eax
  00007	1b c0		 sbb	 eax, eax
  00009	40		 inc	 eax

; 890  : 		}

  0000a	c3		 ret	 0
?empty@?$vector@PAVioBaseChar@@V?$allocator@PAVioBaseChar@@@std@@@std@@QBE_NXZ ENDP ; std::vector<ioBaseChar *,std::allocator<ioBaseChar *> >::empty
_TEXT	ENDS
PUBLIC	??A?$vector@PAVioBaseChar@@V?$allocator@PAVioBaseChar@@@std@@@std@@QBEABQAVioBaseChar@@I@Z ; std::vector<ioBaseChar *,std::allocator<ioBaseChar *> >::operator[]
; Function compile flags: /Ogsp
;	COMDAT ??A?$vector@PAVioBaseChar@@V?$allocator@PAVioBaseChar@@@std@@@std@@QBEABQAVioBaseChar@@I@Z
_TEXT	SEGMENT
__Pos$ = 8						; size = 4
??A?$vector@PAVioBaseChar@@V?$allocator@PAVioBaseChar@@@std@@@std@@QBEABQAVioBaseChar@@I@Z PROC ; std::vector<ioBaseChar *,std::allocator<ioBaseChar *> >::operator[], COMDAT
; _this$ = ecx

; 912  : 		{	// subscript nonmutable sequence

  00000	55		 push	 ebp
  00001	8b ec		 mov	 ebp, esp

; 913  :  #if _ITERATOR_DEBUG_LEVEL == 2
; 914  : 		if (size() <= _Pos)
; 915  : 			{	// report error
; 916  : 			_DEBUG_ERROR("vector subscript out of range");
; 917  : 			_SCL_SECURE_OUT_OF_RANGE;
; 918  : 			}
; 919  : 
; 920  :  #elif _ITERATOR_DEBUG_LEVEL == 1
; 921  : 		_SCL_SECURE_VALIDATE_RANGE(_Pos < size());
; 922  :  #endif /* _ITERATOR_DEBUG_LEVEL */
; 923  : 
; 924  : 		return (*(this->_Myfirst + _Pos));

  00003	8b 01		 mov	 eax, DWORD PTR [ecx]
  00005	8b 4d 08	 mov	 ecx, DWORD PTR __Pos$[ebp]
  00008	8d 04 88	 lea	 eax, DWORD PTR [eax+ecx*4]

; 925  : 		}

  0000b	5d		 pop	 ebp
  0000c	c2 04 00	 ret	 4
??A?$vector@PAVioBaseChar@@V?$allocator@PAVioBaseChar@@@std@@@std@@QBEABQAVioBaseChar@@I@Z ENDP ; std::vector<ioBaseChar *,std::allocator<ioBaseChar *> >::operator[]
_TEXT	ENDS
PUBLIC	?size@?$vector@UUserInfo@DeveloperInfoWnd@@V?$allocator@UUserInfo@DeveloperInfoWnd@@@std@@@std@@QBEIXZ ; std::vector<DeveloperInfoWnd::UserInfo,std::allocator<DeveloperInfoWnd::UserInfo> >::size
; Function compile flags: /Ogsp
;	COMDAT ?size@?$vector@UUserInfo@DeveloperInfoWnd@@V?$allocator@UUserInfo@DeveloperInfoWnd@@@std@@@std@@QBEIXZ
_TEXT	SEGMENT
?size@?$vector@UUserInfo@DeveloperInfoWnd@@V?$allocator@UUserInfo@DeveloperInfoWnd@@@std@@@std@@QBEIXZ PROC ; std::vector<DeveloperInfoWnd::UserInfo,std::allocator<DeveloperInfoWnd::UserInfo> >::size, COMDAT
; _this$ = ecx

; 879  : 		return (this->_Mylast - this->_Myfirst);

  00000	8b 41 04	 mov	 eax, DWORD PTR [ecx+4]
  00003	2b 01		 sub	 eax, DWORD PTR [ecx]
  00005	6a 28		 push	 40			; 00000028H
  00007	99		 cdq
  00008	59		 pop	 ecx
  00009	f7 f9		 idiv	 ecx

; 880  : 		}

  0000b	c3		 ret	 0
?size@?$vector@UUserInfo@DeveloperInfoWnd@@V?$allocator@UUserInfo@DeveloperInfoWnd@@@std@@@std@@QBEIXZ ENDP ; std::vector<DeveloperInfoWnd::UserInfo,std::allocator<DeveloperInfoWnd::UserInfo> >::size
_TEXT	ENDS
PUBLIC	??A?$vector@UUserInfo@DeveloperInfoWnd@@V?$allocator@UUserInfo@DeveloperInfoWnd@@@std@@@std@@QAEAAUUserInfo@DeveloperInfoWnd@@I@Z ; std::vector<DeveloperInfoWnd::UserInfo,std::allocator<DeveloperInfoWnd::UserInfo> >::operator[]
; Function compile flags: /Ogsp
;	COMDAT ??A?$vector@UUserInfo@DeveloperInfoWnd@@V?$allocator@UUserInfo@DeveloperInfoWnd@@@std@@@std@@QAEAAUUserInfo@DeveloperInfoWnd@@I@Z
_TEXT	SEGMENT
__Pos$ = 8						; size = 4
??A?$vector@UUserInfo@DeveloperInfoWnd@@V?$allocator@UUserInfo@DeveloperInfoWnd@@@std@@@std@@QAEAAUUserInfo@DeveloperInfoWnd@@I@Z PROC ; std::vector<DeveloperInfoWnd::UserInfo,std::allocator<DeveloperInfoWnd::UserInfo> >::operator[], COMDAT
; _this$ = ecx

; 928  : 		{	// subscript mutable sequence

  00000	55		 push	 ebp
  00001	8b ec		 mov	 ebp, esp

; 929  :  #if _ITERATOR_DEBUG_LEVEL == 2
; 930  : 		if (size() <= _Pos)
; 931  : 			{	// report error
; 932  : 			_DEBUG_ERROR("vector subscript out of range");
; 933  : 			_SCL_SECURE_OUT_OF_RANGE;
; 934  : 			}
; 935  : 
; 936  :  #elif _ITERATOR_DEBUG_LEVEL == 1
; 937  : 		_SCL_SECURE_VALIDATE_RANGE(_Pos < size());
; 938  :  #endif /* _ITERATOR_DEBUG_LEVEL */
; 939  : 
; 940  : 		return (*(this->_Myfirst + _Pos));

  00003	8b 45 08	 mov	 eax, DWORD PTR __Pos$[ebp]
  00006	6b c0 28	 imul	 eax, 40			; 00000028H
  00009	03 01		 add	 eax, DWORD PTR [ecx]

; 941  : 		}

  0000b	5d		 pop	 ebp
  0000c	c2 04 00	 ret	 4
??A?$vector@UUserInfo@DeveloperInfoWnd@@V?$allocator@UUserInfo@DeveloperInfoWnd@@@std@@@std@@QAEAAUUserInfo@DeveloperInfoWnd@@I@Z ENDP ; std::vector<DeveloperInfoWnd::UserInfo,std::allocator<DeveloperInfoWnd::UserInfo> >::operator[]
_TEXT	ENDS
PUBLIC	?_Inside@?$vector@UUserInfo@DeveloperInfoWnd@@V?$allocator@UUserInfo@DeveloperInfoWnd@@@std@@@std@@IBE_NPBUUserInfo@DeveloperInfoWnd@@@Z ; std::vector<DeveloperInfoWnd::UserInfo,std::allocator<DeveloperInfoWnd::UserInfo> >::_Inside
; Function compile flags: /Ogsp
;	COMDAT ?_Inside@?$vector@UUserInfo@DeveloperInfoWnd@@V?$allocator@UUserInfo@DeveloperInfoWnd@@@std@@@std@@IBE_NPBUUserInfo@DeveloperInfoWnd@@@Z
_TEXT	SEGMENT
__Ptr$ = 8						; size = 4
?_Inside@?$vector@UUserInfo@DeveloperInfoWnd@@V?$allocator@UUserInfo@DeveloperInfoWnd@@@std@@@std@@IBE_NPBUUserInfo@DeveloperInfoWnd@@@Z PROC ; std::vector<DeveloperInfoWnd::UserInfo,std::allocator<DeveloperInfoWnd::UserInfo> >::_Inside, COMDAT
; _this$ = ecx

; 1285 : 		{	// test if _Ptr points inside vector

  00000	55		 push	 ebp
  00001	8b ec		 mov	 ebp, esp

; 1286 : 		return (_Ptr < this->_Mylast && this->_Myfirst <= _Ptr);

  00003	8b 45 08	 mov	 eax, DWORD PTR __Ptr$[ebp]
  00006	3b 41 04	 cmp	 eax, DWORD PTR [ecx+4]
  00009	73 09		 jae	 SHORT $LN3@Inside
  0000b	39 01		 cmp	 DWORD PTR [ecx], eax
  0000d	77 05		 ja	 SHORT $LN3@Inside
  0000f	33 c0		 xor	 eax, eax
  00011	40		 inc	 eax
  00012	eb 02		 jmp	 SHORT $LN4@Inside
$LN3@Inside:
  00014	33 c0		 xor	 eax, eax
$LN4@Inside:

; 1287 : 		}

  00016	5d		 pop	 ebp
  00017	c2 04 00	 ret	 4
?_Inside@?$vector@UUserInfo@DeveloperInfoWnd@@V?$allocator@UUserInfo@DeveloperInfoWnd@@@std@@@std@@IBE_NPBUUserInfo@DeveloperInfoWnd@@@Z ENDP ; std::vector<DeveloperInfoWnd::UserInfo,std::allocator<DeveloperInfoWnd::UserInfo> >::_Inside
_TEXT	ENDS
PUBLIC	?_Orphan_range@?$vector@UUserInfo@DeveloperInfoWnd@@V?$allocator@UUserInfo@DeveloperInfoWnd@@@std@@@std@@IBEXPAUUserInfo@DeveloperInfoWnd@@0@Z ; std::vector<DeveloperInfoWnd::UserInfo,std::allocator<DeveloperInfoWnd::UserInfo> >::_Orphan_range
; Function compile flags: /Ogsp
;	COMDAT ?_Orphan_range@?$vector@UUserInfo@DeveloperInfoWnd@@V?$allocator@UUserInfo@DeveloperInfoWnd@@@std@@@std@@IBEXPAUUserInfo@DeveloperInfoWnd@@0@Z
_TEXT	SEGMENT
___formal$ = 8						; size = 4
___formal$ = 12						; size = 4
?_Orphan_range@?$vector@UUserInfo@DeveloperInfoWnd@@V?$allocator@UUserInfo@DeveloperInfoWnd@@@std@@@std@@IBEXPAUUserInfo@DeveloperInfoWnd@@0@Z PROC ; std::vector<DeveloperInfoWnd::UserInfo,std::allocator<DeveloperInfoWnd::UserInfo> >::_Orphan_range, COMDAT
; _this$ = ecx

; 1454 : 		}

  00000	c2 08 00	 ret	 8
?_Orphan_range@?$vector@UUserInfo@DeveloperInfoWnd@@V?$allocator@UUserInfo@DeveloperInfoWnd@@@std@@@std@@IBEXPAUUserInfo@DeveloperInfoWnd@@0@Z ENDP ; std::vector<DeveloperInfoWnd::UserInfo,std::allocator<DeveloperInfoWnd::UserInfo> >::_Orphan_range
_TEXT	ENDS
PUBLIC	??1?$_Vector_val@UUserInfo@DeveloperInfoWnd@@V?$allocator@UUserInfo@DeveloperInfoWnd@@@std@@@std@@QAE@XZ ; std::_Vector_val<DeveloperInfoWnd::UserInfo,std::allocator<DeveloperInfoWnd::UserInfo> >::~_Vector_val<DeveloperInfoWnd::UserInfo,std::allocator<DeveloperInfoWnd::UserInfo> >
; Function compile flags: /Ogsp
;	COMDAT ??1?$_Vector_val@UUserInfo@DeveloperInfoWnd@@V?$allocator@UUserInfo@DeveloperInfoWnd@@@std@@@std@@QAE@XZ
_TEXT	SEGMENT
??1?$_Vector_val@UUserInfo@DeveloperInfoWnd@@V?$allocator@UUserInfo@DeveloperInfoWnd@@@std@@@std@@QAE@XZ PROC ; std::_Vector_val<DeveloperInfoWnd::UserInfo,std::allocator<DeveloperInfoWnd::UserInfo> >::~_Vector_val<DeveloperInfoWnd::UserInfo,std::allocator<DeveloperInfoWnd::UserInfo> >, COMDAT
; _this$ = ecx

; 434  : 		}

  00000	c3		 ret	 0
??1?$_Vector_val@UUserInfo@DeveloperInfoWnd@@V?$allocator@UUserInfo@DeveloperInfoWnd@@@std@@@std@@QAE@XZ ENDP ; std::_Vector_val<DeveloperInfoWnd::UserInfo,std::allocator<DeveloperInfoWnd::UserInfo> >::~_Vector_val<DeveloperInfoWnd::UserInfo,std::allocator<DeveloperInfoWnd::UserInfo> >
_TEXT	ENDS
PUBLIC	??0?$allocator@UUserInfo@DeveloperInfoWnd@@@std@@QAE@XZ ; std::allocator<DeveloperInfoWnd::UserInfo>::allocator<DeveloperInfoWnd::UserInfo>
; Function compile flags: /Ogsp
; File c:\program files (x86)\microsoft visual studio 10.0\vc\include\xmemory
;	COMDAT ??0?$allocator@UUserInfo@DeveloperInfoWnd@@@std@@QAE@XZ
_TEXT	SEGMENT
??0?$allocator@UUserInfo@DeveloperInfoWnd@@@std@@QAE@XZ PROC ; std::allocator<DeveloperInfoWnd::UserInfo>::allocator<DeveloperInfoWnd::UserInfo>, COMDAT
; _this$ = ecx

; 161  : 	_ALLOCATOR() _THROW0()

  00000	8b c1		 mov	 eax, ecx

; 162  : 		{	// construct default allocator (do nothing)
; 163  : 		}

  00002	c3		 ret	 0
??0?$allocator@UUserInfo@DeveloperInfoWnd@@@std@@QAE@XZ ENDP ; std::allocator<DeveloperInfoWnd::UserInfo>::allocator<DeveloperInfoWnd::UserInfo>
_TEXT	ENDS
PUBLIC	?capacity@?$vector@UUserInfo@DeveloperInfoWnd@@V?$allocator@UUserInfo@DeveloperInfoWnd@@@std@@@std@@QBEIXZ ; std::vector<DeveloperInfoWnd::UserInfo,std::allocator<DeveloperInfoWnd::UserInfo> >::capacity
; Function compile flags: /Ogsp
; File c:\program files (x86)\microsoft visual studio 10.0\vc\include\vector
;	COMDAT ?capacity@?$vector@UUserInfo@DeveloperInfoWnd@@V?$allocator@UUserInfo@DeveloperInfoWnd@@@std@@@std@@QBEIXZ
_TEXT	SEGMENT
?capacity@?$vector@UUserInfo@DeveloperInfoWnd@@V?$allocator@UUserInfo@DeveloperInfoWnd@@@std@@@std@@QBEIXZ PROC ; std::vector<DeveloperInfoWnd::UserInfo,std::allocator<DeveloperInfoWnd::UserInfo> >::capacity, COMDAT
; _this$ = ecx

; 777  : 		return (this->_Myend - this->_Myfirst);

  00000	8b 41 08	 mov	 eax, DWORD PTR [ecx+8]
  00003	2b 01		 sub	 eax, DWORD PTR [ecx]
  00005	6a 28		 push	 40			; 00000028H
  00007	99		 cdq
  00008	59		 pop	 ecx
  00009	f7 f9		 idiv	 ecx

; 778  : 		}

  0000b	c3		 ret	 0
?capacity@?$vector@UUserInfo@DeveloperInfoWnd@@V?$allocator@UUserInfo@DeveloperInfoWnd@@@std@@@std@@QBEIXZ ENDP ; std::vector<DeveloperInfoWnd::UserInfo,std::allocator<DeveloperInfoWnd::UserInfo> >::capacity
_TEXT	ENDS
PUBLIC	??_C@_0BD@OLBABOEK@vector?$DMT?$DO?5too?5long?$AA@ ; `string'
PUBLIC	?_Xlen@?$vector@UUserInfo@DeveloperInfoWnd@@V?$allocator@UUserInfo@DeveloperInfoWnd@@@std@@@std@@IBEXXZ ; std::vector<DeveloperInfoWnd::UserInfo,std::allocator<DeveloperInfoWnd::UserInfo> >::_Xlen
EXTRN	__imp_?_Xlength_error@std@@YAXPBD@Z:PROC
;	COMDAT ??_C@_0BD@OLBABOEK@vector?$DMT?$DO?5too?5long?$AA@
CONST	SEGMENT
??_C@_0BD@OLBABOEK@vector?$DMT?$DO?5too?5long?$AA@ DB 'vector<T> too long'
	DB	00H						; `string'
; Function compile flags: /Ogsp
CONST	ENDS
;	COMDAT ?_Xlen@?$vector@UUserInfo@DeveloperInfoWnd@@V?$allocator@UUserInfo@DeveloperInfoWnd@@@std@@@std@@IBEXXZ
_TEXT	SEGMENT
?_Xlen@?$vector@UUserInfo@DeveloperInfoWnd@@V?$allocator@UUserInfo@DeveloperInfoWnd@@@std@@@std@@IBEXXZ PROC ; std::vector<DeveloperInfoWnd::UserInfo,std::allocator<DeveloperInfoWnd::UserInfo> >::_Xlen, COMDAT
; _this$ = ecx

; 1427 : 		_Xlength_error("vector<T> too long");

  00000	68 00 00 00 00	 push	 OFFSET ??_C@_0BD@OLBABOEK@vector?$DMT?$DO?5too?5long?$AA@
  00005	ff 15 00 00 00
	00		 call	 DWORD PTR __imp_?_Xlength_error@std@@YAXPBD@Z
$LN4@Xlen:
$LN3@Xlen:
  0000b	cc		 int	 3
?_Xlen@?$vector@UUserInfo@DeveloperInfoWnd@@V?$allocator@UUserInfo@DeveloperInfoWnd@@@std@@@std@@IBEXXZ ENDP ; std::vector<DeveloperInfoWnd::UserInfo,std::allocator<DeveloperInfoWnd::UserInfo> >::_Xlen
_TEXT	ENDS
PUBLIC	??0?$allocator@UUserInfo@DeveloperInfoWnd@@@std@@QAE@ABV01@@Z ; std::allocator<DeveloperInfoWnd::UserInfo>::allocator<DeveloperInfoWnd::UserInfo>
; Function compile flags: /Ogsp
; File c:\program files (x86)\microsoft visual studio 10.0\vc\include\xmemory
;	COMDAT ??0?$allocator@UUserInfo@DeveloperInfoWnd@@@std@@QAE@ABV01@@Z
_TEXT	SEGMENT
___formal$ = 8						; size = 4
??0?$allocator@UUserInfo@DeveloperInfoWnd@@@std@@QAE@ABV01@@Z PROC ; std::allocator<DeveloperInfoWnd::UserInfo>::allocator<DeveloperInfoWnd::UserInfo>, COMDAT
; _this$ = ecx

; 165  : 	_ALLOCATOR(const _ALLOCATOR<_Ty>&) _THROW0()

  00000	8b c1		 mov	 eax, ecx

; 166  : 		{	// construct by copying (do nothing)
; 167  : 		}

  00002	c2 04 00	 ret	 4
??0?$allocator@UUserInfo@DeveloperInfoWnd@@@std@@QAE@ABV01@@Z ENDP ; std::allocator<DeveloperInfoWnd::UserInfo>::allocator<DeveloperInfoWnd::UserInfo>
_TEXT	ENDS
PUBLIC	?deallocate@?$allocator@UUserInfo@DeveloperInfoWnd@@@std@@QAEXPAUUserInfo@DeveloperInfoWnd@@I@Z ; std::allocator<DeveloperInfoWnd::UserInfo>::deallocate
; Function compile flags: /Ogsp
;	COMDAT ?deallocate@?$allocator@UUserInfo@DeveloperInfoWnd@@@std@@QAEXPAUUserInfo@DeveloperInfoWnd@@I@Z
_TEXT	SEGMENT
__Ptr$ = 8						; size = 4
___formal$ = 12						; size = 4
?deallocate@?$allocator@UUserInfo@DeveloperInfoWnd@@@std@@QAEXPAUUserInfo@DeveloperInfoWnd@@I@Z PROC ; std::allocator<DeveloperInfoWnd::UserInfo>::deallocate, COMDAT
; _this$ = ecx

; 181  : 		{	// deallocate object at _Ptr, ignore size

  00000	55		 push	 ebp
  00001	8b ec		 mov	 ebp, esp

; 182  : 		::operator delete(_Ptr);

  00003	ff 75 08	 push	 DWORD PTR __Ptr$[ebp]
  00006	e8 00 00 00 00	 call	 ??3@YAXPAX@Z		; operator delete
  0000b	59		 pop	 ecx

; 183  : 		}

  0000c	5d		 pop	 ebp
  0000d	c2 08 00	 ret	 8
?deallocate@?$allocator@UUserInfo@DeveloperInfoWnd@@@std@@QAEXPAUUserInfo@DeveloperInfoWnd@@I@Z ENDP ; std::allocator<DeveloperInfoWnd::UserInfo>::deallocate
_TEXT	ENDS
PUBLIC	?max_size@?$allocator@UUserInfo@DeveloperInfoWnd@@@std@@QBEIXZ ; std::allocator<DeveloperInfoWnd::UserInfo>::max_size
; Function compile flags: /Ogsp
;	COMDAT ?max_size@?$allocator@UUserInfo@DeveloperInfoWnd@@@std@@QBEIXZ
_TEXT	SEGMENT
?max_size@?$allocator@UUserInfo@DeveloperInfoWnd@@@std@@QBEIXZ PROC ; std::allocator<DeveloperInfoWnd::UserInfo>::max_size, COMDAT
; _this$ = ecx

; 218  : 		_SIZT _Count = (_SIZT)(-1) / sizeof (_Ty);
; 219  : 		return (0 < _Count ? _Count : 1);

  00000	b8 66 66 66 06	 mov	 eax, 107374182		; 06666666H

; 220  : 		}

  00005	c3		 ret	 0
?max_size@?$allocator@UUserInfo@DeveloperInfoWnd@@@std@@QBEIXZ ENDP ; std::allocator<DeveloperInfoWnd::UserInfo>::max_size
_TEXT	ENDS
PUBLIC	??0?$_Vector_const_iterator@V?$_Vector_val@UUserInfo@DeveloperInfoWnd@@V?$allocator@UUserInfo@DeveloperInfoWnd@@@std@@@std@@@std@@QAE@PAUUserInfo@DeveloperInfoWnd@@PBU_Container_base0@1@@Z ; std::_Vector_const_iterator<std::_Vector_val<DeveloperInfoWnd::UserInfo,std::allocator<DeveloperInfoWnd::UserInfo> > >::_Vector_const_iterator<std::_Vector_val<DeveloperInfoWnd::UserInfo,std::allocator<DeveloperInfoWnd::UserInfo> > >
; Function compile flags: /Ogsp
; File c:\program files (x86)\microsoft visual studio 10.0\vc\include\vector
;	COMDAT ??0?$_Vector_const_iterator@V?$_Vector_val@UUserInfo@DeveloperInfoWnd@@V?$allocator@UUserInfo@DeveloperInfoWnd@@@std@@@std@@@std@@QAE@PAUUserInfo@DeveloperInfoWnd@@PBU_Container_base0@1@@Z
_TEXT	SEGMENT
__Parg$ = 8						; size = 4
__Pvector$ = 12						; size = 4
??0?$_Vector_const_iterator@V?$_Vector_val@UUserInfo@DeveloperInfoWnd@@V?$allocator@UUserInfo@DeveloperInfoWnd@@@std@@@std@@@std@@QAE@PAUUserInfo@DeveloperInfoWnd@@PBU_Container_base0@1@@Z PROC ; std::_Vector_const_iterator<std::_Vector_val<DeveloperInfoWnd::UserInfo,std::allocator<DeveloperInfoWnd::UserInfo> > >::_Vector_const_iterator<std::_Vector_val<DeveloperInfoWnd::UserInfo,std::allocator<DeveloperInfoWnd::UserInfo> > >, COMDAT
; _this$ = ecx

; 45   : 		{	// construct with pointer _Parg

  00000	55		 push	 ebp
  00001	8b ec		 mov	 ebp, esp
  00003	8b c1		 mov	 eax, ecx
  00005	8b 4d 08	 mov	 ecx, DWORD PTR __Parg$[ebp]
  00008	89 08		 mov	 DWORD PTR [eax], ecx

; 46   : 		this->_Adopt(_Pvector);
; 47   : 		}

  0000a	5d		 pop	 ebp
  0000b	c2 08 00	 ret	 8
??0?$_Vector_const_iterator@V?$_Vector_val@UUserInfo@DeveloperInfoWnd@@V?$allocator@UUserInfo@DeveloperInfoWnd@@@std@@@std@@@std@@QAE@PAUUserInfo@DeveloperInfoWnd@@PBU_Container_base0@1@@Z ENDP ; std::_Vector_const_iterator<std::_Vector_val<DeveloperInfoWnd::UserInfo,std::allocator<DeveloperInfoWnd::UserInfo> > >::_Vector_const_iterator<std::_Vector_val<DeveloperInfoWnd::UserInfo,std::allocator<DeveloperInfoWnd::UserInfo> > >
_TEXT	ENDS
PUBLIC	?_Compat@?$_Vector_const_iterator@V?$_Vector_val@UUserInfo@DeveloperInfoWnd@@V?$allocator@UUserInfo@DeveloperInfoWnd@@@std@@@std@@@std@@QBEXABV12@@Z ; std::_Vector_const_iterator<std::_Vector_val<DeveloperInfoWnd::UserInfo,std::allocator<DeveloperInfoWnd::UserInfo> > >::_Compat
; Function compile flags: /Ogsp
;	COMDAT ?_Compat@?$_Vector_const_iterator@V?$_Vector_val@UUserInfo@DeveloperInfoWnd@@V?$allocator@UUserInfo@DeveloperInfoWnd@@@std@@@std@@@std@@QBEXABV12@@Z
_TEXT	SEGMENT
___formal$ = 8						; size = 4
?_Compat@?$_Vector_const_iterator@V?$_Vector_val@UUserInfo@DeveloperInfoWnd@@V?$allocator@UUserInfo@DeveloperInfoWnd@@@std@@@std@@@std@@QBEXABV12@@Z PROC ; std::_Vector_const_iterator<std::_Vector_val<DeveloperInfoWnd::UserInfo,std::allocator<DeveloperInfoWnd::UserInfo> > >::_Compat, COMDAT
; _this$ = ecx

; 253  : 		}

  00000	c2 04 00	 ret	 4
?_Compat@?$_Vector_const_iterator@V?$_Vector_val@UUserInfo@DeveloperInfoWnd@@V?$allocator@UUserInfo@DeveloperInfoWnd@@@std@@@std@@@std@@QBEXABV12@@Z ENDP ; std::_Vector_const_iterator<std::_Vector_val<DeveloperInfoWnd::UserInfo,std::allocator<DeveloperInfoWnd::UserInfo> > >::_Compat
_TEXT	ENDS
PUBLIC	??$sprintf_s@$0BAE@@@YAHAAY0BAE@DPBDZZ		; sprintf_s<260>
EXTRN	__imp__vsprintf_s:PROC
; Function compile flags: /Ogsp
; File c:\program files (x86)\microsoft visual studio 10.0\vc\include\stdio.h
;	COMDAT ??$sprintf_s@$0BAE@@@YAHAAY0BAE@DPBDZZ
_TEXT	SEGMENT
__Dest$ = 8						; size = 4
__Format$ = 12						; size = 4
??$sprintf_s@$0BAE@@@YAHAAY0BAE@DPBDZZ PROC		; sprintf_s<260>, COMDAT

; 323  : __DEFINE_CPP_OVERLOAD_SECURE_FUNC_0_1_ARGLIST(int, sprintf_s, vsprintf_s, _Deref_post_z_ char, _Dest, _In_z_ _Printf_format_string_ const char *, _Format)

  00000	55		 push	 ebp
  00001	8b ec		 mov	 ebp, esp
  00003	8d 45 10	 lea	 eax, DWORD PTR __Format$[ebp+4]
  00006	50		 push	 eax
  00007	ff 75 0c	 push	 DWORD PTR __Format$[ebp]
  0000a	68 04 01 00 00	 push	 260			; 00000104H
  0000f	ff 75 08	 push	 DWORD PTR __Dest$[ebp]
  00012	ff 15 00 00 00
	00		 call	 DWORD PTR __imp__vsprintf_s
  00018	83 c4 10	 add	 esp, 16			; 00000010H
  0001b	5d		 pop	 ebp
  0001c	c3		 ret	 0
??$sprintf_s@$0BAE@@@YAHAAY0BAE@DPBDZZ ENDP		; sprintf_s<260>
_TEXT	ENDS
PUBLIC	??$addressof@$$CBUUserInfo@DeveloperInfoWnd@@@std@@YAPBUUserInfo@DeveloperInfoWnd@@ABU12@@Z ; std::addressof<DeveloperInfoWnd::UserInfo const >
; Function compile flags: /Ogsp
; File c:\program files (x86)\microsoft visual studio 10.0\vc\include\xmemory
;	COMDAT ??$addressof@$$CBUUserInfo@DeveloperInfoWnd@@@std@@YAPBUUserInfo@DeveloperInfoWnd@@ABU12@@Z
_TEXT	SEGMENT
__Val$ = 8						; size = 4
??$addressof@$$CBUUserInfo@DeveloperInfoWnd@@@std@@YAPBUUserInfo@DeveloperInfoWnd@@ABU12@@Z PROC ; std::addressof<DeveloperInfoWnd::UserInfo const >, COMDAT

; 110  : 	{	// return address of _Val

  00000	55		 push	 ebp
  00001	8b ec		 mov	 ebp, esp

; 111  : 	return ((_Ty *) &(char&)_Val);

  00003	8b 45 08	 mov	 eax, DWORD PTR __Val$[ebp]

; 112  : 	}

  00006	5d		 pop	 ebp
  00007	c3		 ret	 0
??$addressof@$$CBUUserInfo@DeveloperInfoWnd@@@std@@YAPBUUserInfo@DeveloperInfoWnd@@ABU12@@Z ENDP ; std::addressof<DeveloperInfoWnd::UserInfo const >
_TEXT	ENDS
PUBLIC	__TI2?AVbad_alloc@std@@
PUBLIC	??$_Allocate@UUserInfo@DeveloperInfoWnd@@@std@@YAPAUUserInfo@DeveloperInfoWnd@@IPAU12@@Z ; std::_Allocate<DeveloperInfoWnd::UserInfo>
PUBLIC	__CTA2?AVbad_alloc@std@@
PUBLIC	__CT??_R0?AVbad_alloc@std@@@8??0bad_alloc@std@@QAE@ABV01@@Z12
PUBLIC	??0bad_alloc@std@@QAE@ABV01@@Z			; std::bad_alloc::bad_alloc
PUBLIC	__CT??_R0?AVexception@std@@@8??0exception@std@@QAE@ABV01@@Z12
EXTRN	??2@YAPAXI@Z:PROC				; operator new
EXTRN	__CxxThrowException@8:PROC
EXTRN	??0exception@std@@QAE@ABV01@@Z:PROC		; std::exception::exception
;	COMDAT __CT??_R0?AVexception@std@@@8??0exception@std@@QAE@ABV01@@Z12
; File c:\program files (x86)\microsoft visual studio 10.0\vc\include\exception
xdata$x	SEGMENT
__CT??_R0?AVexception@std@@@8??0exception@std@@QAE@ABV01@@Z12 DD 00H
	DD	FLAT:??_R0?AVexception@std@@@8
	DD	00H
	DD	0ffffffffH
	ORG $+4
	DD	0cH
	DD	FLAT:??0exception@std@@QAE@ABV01@@Z
xdata$x	ENDS
;	COMDAT __CT??_R0?AVbad_alloc@std@@@8??0bad_alloc@std@@QAE@ABV01@@Z12
xdata$x	SEGMENT
__CT??_R0?AVbad_alloc@std@@@8??0bad_alloc@std@@QAE@ABV01@@Z12 DD 00H
	DD	FLAT:??_R0?AVbad_alloc@std@@@8
	DD	00H
	DD	0ffffffffH
	ORG $+4
	DD	0cH
	DD	FLAT:??0bad_alloc@std@@QAE@ABV01@@Z
xdata$x	ENDS
;	COMDAT __CTA2?AVbad_alloc@std@@
xdata$x	SEGMENT
__CTA2?AVbad_alloc@std@@ DD 02H
	DD	FLAT:__CT??_R0?AVbad_alloc@std@@@8??0bad_alloc@std@@QAE@ABV01@@Z12
	DD	FLAT:__CT??_R0?AVexception@std@@@8??0exception@std@@QAE@ABV01@@Z12
xdata$x	ENDS
;	COMDAT __TI2?AVbad_alloc@std@@
xdata$x	SEGMENT
__TI2?AVbad_alloc@std@@ DD 00H
	DD	FLAT:??1bad_alloc@std@@UAE@XZ
	DD	00H
	DD	FLAT:__CTA2?AVbad_alloc@std@@
; Function compile flags: /Ogsp
; File c:\program files (x86)\microsoft visual studio 10.0\vc\include\xmemory
xdata$x	ENDS
;	COMDAT ??$_Allocate@UUserInfo@DeveloperInfoWnd@@@std@@YAPAUUserInfo@DeveloperInfoWnd@@IPAU12@@Z
_TEXT	SEGMENT
$T537337 = -12						; size = 12
$T537342 = 8						; size = 4
__Count$ = 8						; size = 4
___formal$ = 12						; size = 4
??$_Allocate@UUserInfo@DeveloperInfoWnd@@@std@@YAPAUUserInfo@DeveloperInfoWnd@@IPAU12@@Z PROC ; std::_Allocate<DeveloperInfoWnd::UserInfo>, COMDAT

; 30   : 	{	// allocate storage for _Count elements of type _Ty

  00000	55		 push	 ebp
  00001	8b ec		 mov	 ebp, esp

; 31   : 	void *_Ptr = 0;
; 32   : 
; 33   : 	if (_Count <= 0)

  00003	8b 4d 08	 mov	 ecx, DWORD PTR __Count$[ebp]
  00006	83 ec 0c	 sub	 esp, 12			; 0000000cH
  00009	33 c0		 xor	 eax, eax
  0000b	85 c9		 test	 ecx, ecx

; 34   : 		_Count = 0;
; 35   : 	else if (((_SIZT)(-1) / sizeof (_Ty) < _Count)

  0000d	74 3c		 je	 SHORT $LN5@Allocate

; 36   : 		|| (_Ptr = ::operator new(_Count * sizeof (_Ty))) == 0)

  0000f	81 f9 66 66 66
	06		 cmp	 ecx, 107374182		; 06666666H
  00015	77 0e		 ja	 SHORT $LN1@Allocate
  00017	6b c9 28	 imul	 ecx, 40			; 00000028H
  0001a	51		 push	 ecx
  0001b	e8 00 00 00 00	 call	 ??2@YAPAXI@Z		; operator new
  00020	59		 pop	 ecx
  00021	85 c0		 test	 eax, eax

; 38   : 
; 39   : 	return ((_Ty _FARQ *)_Ptr);

  00023	75 26		 jne	 SHORT $LN5@Allocate
$LN1@Allocate:

; 37   : 		_THROW_NCEE(bad_alloc, 0);

  00025	83 65 08 00	 and	 DWORD PTR $T537342[ebp], 0
  00029	8d 45 08	 lea	 eax, DWORD PTR $T537342[ebp]
  0002c	50		 push	 eax
  0002d	8d 4d f4	 lea	 ecx, DWORD PTR $T537337[ebp]
  00030	ff 15 00 00 00
	00		 call	 DWORD PTR __imp_??0exception@std@@QAE@ABQBD@Z
  00036	68 00 00 00 00	 push	 OFFSET __TI2?AVbad_alloc@std@@
  0003b	8d 45 f4	 lea	 eax, DWORD PTR $T537337[ebp]
  0003e	50		 push	 eax
  0003f	c7 45 f4 00 00
	00 00		 mov	 DWORD PTR $T537337[ebp], OFFSET ??_7bad_alloc@std@@6B@
  00046	e8 00 00 00 00	 call	 __CxxThrowException@8
$LN10@Allocate:
$LN5@Allocate:

; 40   : 	}

  0004b	c9		 leave
  0004c	c3		 ret	 0
$LN9@Allocate:
??$_Allocate@UUserInfo@DeveloperInfoWnd@@@std@@YAPAUUserInfo@DeveloperInfoWnd@@IPAU12@@Z ENDP ; std::_Allocate<DeveloperInfoWnd::UserInfo>
_TEXT	ENDS
PUBLIC	??$forward@AAUUserInfo@DeveloperInfoWnd@@@std@@YAAAUUserInfo@DeveloperInfoWnd@@AAU12@@Z ; std::forward<DeveloperInfoWnd::UserInfo &>
; Function compile flags: /Ogsp
; File c:\program files (x86)\microsoft visual studio 10.0\vc\include\utility
;	COMDAT ??$forward@AAUUserInfo@DeveloperInfoWnd@@@std@@YAAAUUserInfo@DeveloperInfoWnd@@AAU12@@Z
_TEXT	SEGMENT
__Arg$ = 8						; size = 4
??$forward@AAUUserInfo@DeveloperInfoWnd@@@std@@YAAAUUserInfo@DeveloperInfoWnd@@AAU12@@Z PROC ; std::forward<DeveloperInfoWnd::UserInfo &>, COMDAT

; 78   : 	{	// forward _Arg, given explicitly specified type parameter

  00000	55		 push	 ebp
  00001	8b ec		 mov	 ebp, esp

; 79   : 	return ((_Ty&&)_Arg);

  00003	8b 45 08	 mov	 eax, DWORD PTR __Arg$[ebp]

; 80   : 	}

  00006	5d		 pop	 ebp
  00007	c3		 ret	 0
??$forward@AAUUserInfo@DeveloperInfoWnd@@@std@@YAAAUUserInfo@DeveloperInfoWnd@@AAU12@@Z ENDP ; std::forward<DeveloperInfoWnd::UserInfo &>
_TEXT	ENDS
PUBLIC	??$forward@ABUUserInfo@DeveloperInfoWnd@@@std@@YAABUUserInfo@DeveloperInfoWnd@@ABU12@@Z ; std::forward<DeveloperInfoWnd::UserInfo const &>
; Function compile flags: /Ogsp
;	COMDAT ??$forward@ABUUserInfo@DeveloperInfoWnd@@@std@@YAABUUserInfo@DeveloperInfoWnd@@ABU12@@Z
_TEXT	SEGMENT
__Arg$ = 8						; size = 4
??$forward@ABUUserInfo@DeveloperInfoWnd@@@std@@YAABUUserInfo@DeveloperInfoWnd@@ABU12@@Z PROC ; std::forward<DeveloperInfoWnd::UserInfo const &>, COMDAT

; 78   : 	{	// forward _Arg, given explicitly specified type parameter

  00000	55		 push	 ebp
  00001	8b ec		 mov	 ebp, esp

; 79   : 	return ((_Ty&&)_Arg);

  00003	8b 45 08	 mov	 eax, DWORD PTR __Arg$[ebp]

; 80   : 	}

  00006	5d		 pop	 ebp
  00007	c3		 ret	 0
??$forward@ABUUserInfo@DeveloperInfoWnd@@@std@@YAABUUserInfo@DeveloperInfoWnd@@ABU12@@Z ENDP ; std::forward<DeveloperInfoWnd::UserInfo const &>
_TEXT	ENDS
PUBLIC	??$_Ptr_cat@UUserInfo@DeveloperInfoWnd@@U12@@std@@YA?AU_Nonscalar_ptr_iterator_tag@0@PAUUserInfo@DeveloperInfoWnd@@0@Z ; std::_Ptr_cat<DeveloperInfoWnd::UserInfo,DeveloperInfoWnd::UserInfo>
; Function compile flags: /Ogsp
; File c:\program files (x86)\microsoft visual studio 10.0\vc\include\xutility
;	COMDAT ??$_Ptr_cat@UUserInfo@DeveloperInfoWnd@@U12@@std@@YA?AU_Nonscalar_ptr_iterator_tag@0@PAUUserInfo@DeveloperInfoWnd@@0@Z
_TEXT	SEGMENT
__Cat$ = -1						; size = 1
___formal$ = 8						; size = 4
___formal$ = 12						; size = 4
??$_Ptr_cat@UUserInfo@DeveloperInfoWnd@@U12@@std@@YA?AU_Nonscalar_ptr_iterator_tag@0@PAUUserInfo@DeveloperInfoWnd@@0@Z PROC ; std::_Ptr_cat<DeveloperInfoWnd::UserInfo,DeveloperInfoWnd::UserInfo>, COMDAT

; 516  : 	{	// return pointer category from pointers

  00000	55		 push	 ebp
  00001	8b ec		 mov	 ebp, esp
  00003	51		 push	 ecx

; 517  : 	typename _Ptr_cat_helper<_Elem1, _Elem2>::_Type _Cat;
; 518  : 	return (_Cat);

  00004	8a 45 ff	 mov	 al, BYTE PTR __Cat$[ebp]

; 519  : 	}

  00007	c9		 leave
  00008	c3		 ret	 0
??$_Ptr_cat@UUserInfo@DeveloperInfoWnd@@U12@@std@@YA?AU_Nonscalar_ptr_iterator_tag@0@PAUUserInfo@DeveloperInfoWnd@@0@Z ENDP ; std::_Ptr_cat<DeveloperInfoWnd::UserInfo,DeveloperInfoWnd::UserInfo>
_TEXT	ENDS
PUBLIC	??0UserInfo@DeveloperInfoWnd@@QAE@ABU01@@Z	; DeveloperInfoWnd::UserInfo::UserInfo
EXTRN	__imp_??0ioHashString@@QAE@ABV0@@Z:PROC
; Function compile flags: /Ogsp
;	COMDAT ??0UserInfo@DeveloperInfoWnd@@QAE@ABU01@@Z
_TEXT	SEGMENT
___that$ = 8						; size = 4
??0UserInfo@DeveloperInfoWnd@@QAE@ABU01@@Z PROC		; DeveloperInfoWnd::UserInfo::UserInfo, COMDAT
; _this$ = ecx
  00000	55		 push	 ebp
  00001	8b ec		 mov	 ebp, esp
  00003	56		 push	 esi
  00004	57		 push	 edi
  00005	8b 7d 08	 mov	 edi, DWORD PTR ___that$[ebp]
  00008	57		 push	 edi
  00009	8b f1		 mov	 esi, ecx
  0000b	ff 15 00 00 00
	00		 call	 DWORD PTR __imp_??0ioHashString@@QAE@ABV0@@Z
  00011	8b 47 10	 mov	 eax, DWORD PTR [edi+16]
  00014	89 46 10	 mov	 DWORD PTR [esi+16], eax
  00017	8b 47 14	 mov	 eax, DWORD PTR [edi+20]
  0001a	89 46 14	 mov	 DWORD PTR [esi+20], eax
  0001d	8b 47 18	 mov	 eax, DWORD PTR [edi+24]
  00020	89 46 18	 mov	 DWORD PTR [esi+24], eax
  00023	8b 47 1c	 mov	 eax, DWORD PTR [edi+28]
  00026	89 46 1c	 mov	 DWORD PTR [esi+28], eax
  00029	8b 47 20	 mov	 eax, DWORD PTR [edi+32]
  0002c	89 46 20	 mov	 DWORD PTR [esi+32], eax
  0002f	8b 47 24	 mov	 eax, DWORD PTR [edi+36]
  00032	89 46 24	 mov	 DWORD PTR [esi+36], eax
  00035	5f		 pop	 edi
  00036	8b c6		 mov	 eax, esi
  00038	5e		 pop	 esi
  00039	5d		 pop	 ebp
  0003a	c2 04 00	 ret	 4
??0UserInfo@DeveloperInfoWnd@@QAE@ABU01@@Z ENDP		; DeveloperInfoWnd::UserInfo::UserInfo
_TEXT	ENDS
PUBLIC	??4UserInfo@DeveloperInfoWnd@@QAEAAU01@ABU01@@Z	; DeveloperInfoWnd::UserInfo::operator=
; Function compile flags: /Ogsp
;	COMDAT ??4UserInfo@DeveloperInfoWnd@@QAEAAU01@ABU01@@Z
_TEXT	SEGMENT
___that$ = 8						; size = 4
??4UserInfo@DeveloperInfoWnd@@QAEAAU01@ABU01@@Z PROC	; DeveloperInfoWnd::UserInfo::operator=, COMDAT
; _this$ = ecx
  00000	55		 push	 ebp
  00001	8b ec		 mov	 ebp, esp
  00003	56		 push	 esi
  00004	57		 push	 edi
  00005	8b 7d 08	 mov	 edi, DWORD PTR ___that$[ebp]
  00008	57		 push	 edi
  00009	8b f1		 mov	 esi, ecx
  0000b	ff 15 00 00 00
	00		 call	 DWORD PTR __imp_??4ioHashString@@QAEAAV0@ABV0@@Z
  00011	8b 47 10	 mov	 eax, DWORD PTR [edi+16]
  00014	89 46 10	 mov	 DWORD PTR [esi+16], eax
  00017	8b 47 14	 mov	 eax, DWORD PTR [edi+20]
  0001a	89 46 14	 mov	 DWORD PTR [esi+20], eax
  0001d	8b 47 18	 mov	 eax, DWORD PTR [edi+24]
  00020	89 46 18	 mov	 DWORD PTR [esi+24], eax
  00023	8b 47 1c	 mov	 eax, DWORD PTR [edi+28]
  00026	89 46 1c	 mov	 DWORD PTR [esi+28], eax
  00029	8b 47 20	 mov	 eax, DWORD PTR [edi+32]
  0002c	89 46 20	 mov	 DWORD PTR [esi+32], eax
  0002f	8b 47 24	 mov	 eax, DWORD PTR [edi+36]
  00032	89 46 24	 mov	 DWORD PTR [esi+36], eax
  00035	5f		 pop	 edi
  00036	8b c6		 mov	 eax, esi
  00038	5e		 pop	 esi
  00039	5d		 pop	 ebp
  0003a	c2 04 00	 ret	 4
??4UserInfo@DeveloperInfoWnd@@QAEAAU01@ABU01@@Z ENDP	; DeveloperInfoWnd::UserInfo::operator=
_TEXT	ENDS
PUBLIC	??$move@AAUUserInfo@DeveloperInfoWnd@@@std@@YA$$QAUUserInfo@DeveloperInfoWnd@@AAU12@@Z ; std::move<DeveloperInfoWnd::UserInfo &>
; Function compile flags: /Ogsp
; File c:\program files (x86)\microsoft visual studio 10.0\vc\include\utility
;	COMDAT ??$move@AAUUserInfo@DeveloperInfoWnd@@@std@@YA$$QAUUserInfo@DeveloperInfoWnd@@AAU12@@Z
_TEXT	SEGMENT
__Arg$ = 8						; size = 4
??$move@AAUUserInfo@DeveloperInfoWnd@@@std@@YA$$QAUUserInfo@DeveloperInfoWnd@@AAU12@@Z PROC ; std::move<DeveloperInfoWnd::UserInfo &>, COMDAT

; 86   : 	{	// forward _Arg as movable

  00000	55		 push	 ebp
  00001	8b ec		 mov	 ebp, esp

; 87   : 	return ((typename tr1::_Remove_reference<_Ty>::_Type&&)_Arg);

  00003	8b 45 08	 mov	 eax, DWORD PTR __Arg$[ebp]

; 88   : 	}

  00006	5d		 pop	 ebp
  00007	c3		 ret	 0
??$move@AAUUserInfo@DeveloperInfoWnd@@@std@@YA$$QAUUserInfo@DeveloperInfoWnd@@AAU12@@Z ENDP ; std::move<DeveloperInfoWnd::UserInfo &>
_TEXT	ENDS
PUBLIC	??$_Val_type@PAUUserInfo@DeveloperInfoWnd@@@std@@YAPAUUserInfo@DeveloperInfoWnd@@PAU12@@Z ; std::_Val_type<DeveloperInfoWnd::UserInfo *>
; Function compile flags: /Ogsp
; File c:\program files (x86)\microsoft visual studio 10.0\vc\include\xutility
;	COMDAT ??$_Val_type@PAUUserInfo@DeveloperInfoWnd@@@std@@YAPAUUserInfo@DeveloperInfoWnd@@PAU12@@Z
_TEXT	SEGMENT
___formal$ = 8						; size = 4
??$_Val_type@PAUUserInfo@DeveloperInfoWnd@@@std@@YAPAUUserInfo@DeveloperInfoWnd@@PAU12@@Z PROC ; std::_Val_type<DeveloperInfoWnd::UserInfo *>, COMDAT

; 790  : 	return (0);

  00000	33 c0		 xor	 eax, eax

; 791  : 	}

  00002	c3		 ret	 0
??$_Val_type@PAUUserInfo@DeveloperInfoWnd@@@std@@YAPAUUserInfo@DeveloperInfoWnd@@PAU12@@Z ENDP ; std::_Val_type<DeveloperInfoWnd::UserInfo *>
_TEXT	ENDS
PUBLIC	??_GUserInfo@DeveloperInfoWnd@@QAEPAXI@Z	; DeveloperInfoWnd::UserInfo::`scalar deleting destructor'
; Function compile flags: /Ogsp
;	COMDAT ??_GUserInfo@DeveloperInfoWnd@@QAEPAXI@Z
_TEXT	SEGMENT
___flags$ = 8						; size = 4
??_GUserInfo@DeveloperInfoWnd@@QAEPAXI@Z PROC		; DeveloperInfoWnd::UserInfo::`scalar deleting destructor', COMDAT
; _this$ = ecx
  00000	55		 push	 ebp
  00001	8b ec		 mov	 ebp, esp
  00003	56		 push	 esi
  00004	8b f1		 mov	 esi, ecx
  00006	ff 15 00 00 00
	00		 call	 DWORD PTR __imp_??1ioHashString@@QAE@XZ
  0000c	f6 45 08 01	 test	 BYTE PTR ___flags$[ebp], 1
  00010	74 07		 je	 SHORT $LN1@scalar@2
  00012	56		 push	 esi
  00013	e8 00 00 00 00	 call	 ??3@YAXPAX@Z		; operator delete
  00018	59		 pop	 ecx
$LN1@scalar@2:
  00019	8b c6		 mov	 eax, esi
  0001b	5e		 pop	 esi
  0001c	5d		 pop	 ebp
  0001d	c2 04 00	 ret	 4
??_GUserInfo@DeveloperInfoWnd@@QAEPAXI@Z ENDP		; DeveloperInfoWnd::UserInfo::`scalar deleting destructor'
_TEXT	ENDS
PUBLIC	??$forward@UUserInfo@DeveloperInfoWnd@@@std@@YA$$QAUUserInfo@DeveloperInfoWnd@@AAU12@@Z ; std::forward<DeveloperInfoWnd::UserInfo>
; Function compile flags: /Ogsp
; File c:\program files (x86)\microsoft visual studio 10.0\vc\include\utility
;	COMDAT ??$forward@UUserInfo@DeveloperInfoWnd@@@std@@YA$$QAUUserInfo@DeveloperInfoWnd@@AAU12@@Z
_TEXT	SEGMENT
__Arg$ = 8						; size = 4
??$forward@UUserInfo@DeveloperInfoWnd@@@std@@YA$$QAUUserInfo@DeveloperInfoWnd@@AAU12@@Z PROC ; std::forward<DeveloperInfoWnd::UserInfo>, COMDAT

; 78   : 	{	// forward _Arg, given explicitly specified type parameter

  00000	55		 push	 ebp
  00001	8b ec		 mov	 ebp, esp

; 79   : 	return ((_Ty&&)_Arg);

  00003	8b 45 08	 mov	 eax, DWORD PTR __Arg$[ebp]

; 80   : 	}

  00006	5d		 pop	 ebp
  00007	c3		 ret	 0
??$forward@UUserInfo@DeveloperInfoWnd@@@std@@YA$$QAUUserInfo@DeveloperInfoWnd@@AAU12@@Z ENDP ; std::forward<DeveloperInfoWnd::UserInfo>
_TEXT	ENDS
PUBLIC	?_DECSTR@@YAXPADH@Z				; _DECSTR
; Function compile flags: /Ogsp
; File d:\lost saga for developer\youtube\tutorial\source\src\lsclient\stringprotect.h
;	COMDAT ?_DECSTR@@YAXPADH@Z
_TEXT	SEGMENT
_s$ = 8							; size = 4
_l$ = 12						; size = 4
?_DECSTR@@YAXPADH@Z PROC				; _DECSTR, COMDAT

; 40   : __forceinline void _DECSTR(char* s, int l){int i=0,l4=(l-1)/4,*p=(int*)s;s[l-1]=0;for(;i<l4;++i)*(p++)^=0xEAEBECED;for(i=l4*4;i<l-1;++i)s[i]^=0xED-i%4;}

  00000	55		 push	 ebp
  00001	8b ec		 mov	 ebp, esp
  00003	8b 4d 0c	 mov	 ecx, DWORD PTR _l$[ebp]
  00006	56		 push	 esi
  00007	8b 75 08	 mov	 esi, DWORD PTR _s$[ebp]
  0000a	57		 push	 edi
  0000b	8d 79 ff	 lea	 edi, DWORD PTR [ecx-1]
  0000e	8b c7		 mov	 eax, edi
  00010	99		 cdq
  00011	83 e2 03	 and	 edx, 3
  00014	03 c2		 add	 eax, edx
  00016	c1 f8 02	 sar	 eax, 2
  00019	8b d6		 mov	 edx, esi
  0001b	c6 44 0e ff 00	 mov	 BYTE PTR [esi+ecx-1], 0
  00020	85 c0		 test	 eax, eax
  00022	7e 0e		 jle	 SHORT $LN4@DECSTR
  00024	8b c8		 mov	 ecx, eax
$LL6@DECSTR:
  00026	81 32 ed ec eb
	ea		 xor	 DWORD PTR [edx], -353637139 ; eaebecedH
  0002c	83 c2 04	 add	 edx, 4
  0002f	49		 dec	 ecx
  00030	75 f4		 jne	 SHORT $LL6@DECSTR
$LN4@DECSTR:
  00032	c1 e0 02	 shl	 eax, 2
  00035	eb 17		 jmp	 SHORT $LN14@DECSTR
$LL3@DECSTR:
  00037	8b c8		 mov	 ecx, eax
  00039	81 e1 03 00 00
	80		 and	 ecx, -2147483645	; 80000003H
  0003f	79 05		 jns	 SHORT $LN13@DECSTR
  00041	49		 dec	 ecx
  00042	83 c9 fc	 or	 ecx, -4			; fffffffcH
  00045	41		 inc	 ecx
$LN13@DECSTR:
  00046	b2 ed		 mov	 dl, -19			; ffffffedH
  00048	2a d1		 sub	 dl, cl
  0004a	30 14 30	 xor	 BYTE PTR [eax+esi], dl
  0004d	40		 inc	 eax
$LN14@DECSTR:
  0004e	3b c7		 cmp	 eax, edi
  00050	7c e5		 jl	 SHORT $LL3@DECSTR
  00052	5f		 pop	 edi
  00053	5e		 pop	 esi
  00054	5d		 pop	 ebp
  00055	c3		 ret	 0
?_DECSTR@@YAXPADH@Z ENDP				; _DECSTR
_TEXT	ENDS
PUBLIC	?SetReservedMode@Setting@@SAXH@Z		; Setting::SetReservedMode
EXTRN	?m_iReservedMode@Setting@@1HA:DWORD		; Setting::m_iReservedMode
; Function compile flags: /Ogsp
; File d:\lost saga for developer\youtube\tutorial\source\src\lsclient\setting.h
;	COMDAT ?SetReservedMode@Setting@@SAXH@Z
_TEXT	SEGMENT
_iMode$ = 8						; size = 4
?SetReservedMode@Setting@@SAXH@Z PROC			; Setting::SetReservedMode, COMDAT

; 406  : 	static void SetReservedMode( int iMode ) { m_iReservedMode = iMode; }

  00000	55		 push	 ebp
  00001	8b ec		 mov	 ebp, esp
  00003	8b 45 08	 mov	 eax, DWORD PTR _iMode$[ebp]
  00006	a3 00 00 00 00	 mov	 DWORD PTR ?m_iReservedMode@Setting@@1HA, eax ; Setting::m_iReservedMode
  0000b	5d		 pop	 ebp
  0000c	c3		 ret	 0
?SetReservedMode@Setting@@SAXH@Z ENDP			; Setting::SetReservedMode
_TEXT	ENDS
PUBLIC	?ShowBoundBox@Setting@@SA_NXZ			; Setting::ShowBoundBox
EXTRN	?m_Option@Setting@@1USettingOption@@A:BYTE	; Setting::m_Option
; Function compile flags: /Ogsp
;	COMDAT ?ShowBoundBox@Setting@@SA_NXZ
_TEXT	SEGMENT
?ShowBoundBox@Setting@@SA_NXZ PROC			; Setting::ShowBoundBox, COMDAT

; 411  : 	static bool ShowBoundBox() { return m_Option.m_bBoundBox; }

  00000	a0 6e 00 00 00	 mov	 al, BYTE PTR ?m_Option@Setting@@1USettingOption@@A+110
  00005	c3		 ret	 0
?ShowBoundBox@Setting@@SA_NXZ ENDP			; Setting::ShowBoundBox
_TEXT	ENDS
PUBLIC	?SetShowBoundBox@Setting@@SAX_N@Z		; Setting::SetShowBoundBox
; Function compile flags: /Ogsp
;	COMDAT ?SetShowBoundBox@Setting@@SAX_N@Z
_TEXT	SEGMENT
_bShow$ = 8						; size = 1
?SetShowBoundBox@Setting@@SAX_N@Z PROC			; Setting::SetShowBoundBox, COMDAT

; 412  : 	static void SetShowBoundBox( bool bShow ) { m_Option.m_bBoundBox = bShow; }

  00000	55		 push	 ebp
  00001	8b ec		 mov	 ebp, esp
  00003	8a 45 08	 mov	 al, BYTE PTR _bShow$[ebp]
  00006	a2 6e 00 00 00	 mov	 BYTE PTR ?m_Option@Setting@@1USettingOption@@A+110, al
  0000b	5d		 pop	 ebp
  0000c	c3		 ret	 0
?SetShowBoundBox@Setting@@SAX_N@Z ENDP			; Setting::SetShowBoundBox
_TEXT	ENDS
PUBLIC	?ShowBoundSphere@Setting@@SA_NXZ		; Setting::ShowBoundSphere
; Function compile flags: /Ogsp
;	COMDAT ?ShowBoundSphere@Setting@@SA_NXZ
_TEXT	SEGMENT
?ShowBoundSphere@Setting@@SA_NXZ PROC			; Setting::ShowBoundSphere, COMDAT

; 414  : 	static bool ShowBoundSphere() { return m_Option.m_bShowSphere; }

  00000	a0 6f 00 00 00	 mov	 al, BYTE PTR ?m_Option@Setting@@1USettingOption@@A+111
  00005	c3		 ret	 0
?ShowBoundSphere@Setting@@SA_NXZ ENDP			; Setting::ShowBoundSphere
_TEXT	ENDS
PUBLIC	?SetShowBoundSphere@Setting@@SAX_N@Z		; Setting::SetShowBoundSphere
; Function compile flags: /Ogsp
;	COMDAT ?SetShowBoundSphere@Setting@@SAX_N@Z
_TEXT	SEGMENT
_bShow$ = 8						; size = 1
?SetShowBoundSphere@Setting@@SAX_N@Z PROC		; Setting::SetShowBoundSphere, COMDAT

; 415  : 	static void SetShowBoundSphere( bool bShow ) { m_Option.m_bShowSphere = bShow; }

  00000	55		 push	 ebp
  00001	8b ec		 mov	 ebp, esp
  00003	8a 45 08	 mov	 al, BYTE PTR _bShow$[ebp]
  00006	a2 6f 00 00 00	 mov	 BYTE PTR ?m_Option@Setting@@1USettingOption@@A+111, al
  0000b	5d		 pop	 ebp
  0000c	c3		 ret	 0
?SetShowBoundSphere@Setting@@SAX_N@Z ENDP		; Setting::SetShowBoundSphere
_TEXT	ENDS
PUBLIC	?ShowExtraInfo@Setting@@SA_NXZ			; Setting::ShowExtraInfo
; Function compile flags: /Ogsp
;	COMDAT ?ShowExtraInfo@Setting@@SA_NXZ
_TEXT	SEGMENT
?ShowExtraInfo@Setting@@SA_NXZ PROC			; Setting::ShowExtraInfo, COMDAT

; 417  : 	static bool ShowExtraInfo() { return m_Option.m_bExtraInfo; }

  00000	a0 70 00 00 00	 mov	 al, BYTE PTR ?m_Option@Setting@@1USettingOption@@A+112
  00005	c3		 ret	 0
?ShowExtraInfo@Setting@@SA_NXZ ENDP			; Setting::ShowExtraInfo
_TEXT	ENDS
PUBLIC	?SetShowExtraInfo@Setting@@SAX_N@Z		; Setting::SetShowExtraInfo
; Function compile flags: /Ogsp
;	COMDAT ?SetShowExtraInfo@Setting@@SAX_N@Z
_TEXT	SEGMENT
_bShow$ = 8						; size = 1
?SetShowExtraInfo@Setting@@SAX_N@Z PROC			; Setting::SetShowExtraInfo, COMDAT

; 418  : 	static void SetShowExtraInfo( bool bShow ) { m_Option.m_bExtraInfo = bShow; }

  00000	55		 push	 ebp
  00001	8b ec		 mov	 ebp, esp
  00003	8a 45 08	 mov	 al, BYTE PTR _bShow$[ebp]
  00006	a2 70 00 00 00	 mov	 BYTE PTR ?m_Option@Setting@@1USettingOption@@A+112, al
  0000b	5d		 pop	 ebp
  0000c	c3		 ret	 0
?SetShowExtraInfo@Setting@@SAX_N@Z ENDP			; Setting::SetShowExtraInfo
_TEXT	ENDS
PUBLIC	?ShowMemoryUsage@Setting@@SA_NXZ		; Setting::ShowMemoryUsage
; Function compile flags: /Ogsp
;	COMDAT ?ShowMemoryUsage@Setting@@SA_NXZ
_TEXT	SEGMENT
?ShowMemoryUsage@Setting@@SA_NXZ PROC			; Setting::ShowMemoryUsage, COMDAT

; 420  : 	static bool ShowMemoryUsage() { return m_Option.m_bShowMemoryUsage; }

  00000	a0 71 00 00 00	 mov	 al, BYTE PTR ?m_Option@Setting@@1USettingOption@@A+113
  00005	c3		 ret	 0
?ShowMemoryUsage@Setting@@SA_NXZ ENDP			; Setting::ShowMemoryUsage
_TEXT	ENDS
PUBLIC	?SetShowMemoryUsage@Setting@@SAX_N@Z		; Setting::SetShowMemoryUsage
; Function compile flags: /Ogsp
;	COMDAT ?SetShowMemoryUsage@Setting@@SAX_N@Z
_TEXT	SEGMENT
_bShow$ = 8						; size = 1
?SetShowMemoryUsage@Setting@@SAX_N@Z PROC		; Setting::SetShowMemoryUsage, COMDAT

; 421  : 	static void SetShowMemoryUsage( bool bShow ) { m_Option.m_bShowMemoryUsage = bShow; }

  00000	55		 push	 ebp
  00001	8b ec		 mov	 ebp, esp
  00003	8a 45 08	 mov	 al, BYTE PTR _bShow$[ebp]
  00006	a2 71 00 00 00	 mov	 BYTE PTR ?m_Option@Setting@@1USettingOption@@A+113, al
  0000b	5d		 pop	 ebp
  0000c	c3		 ret	 0
?SetShowMemoryUsage@Setting@@SAX_N@Z ENDP		; Setting::SetShowMemoryUsage
_TEXT	ENDS
PUBLIC	?SetSWndBoundary@Setting@@SAX_N@Z		; Setting::SetSWndBoundary
; Function compile flags: /Ogsp
;	COMDAT ?SetSWndBoundary@Setting@@SAX_N@Z
_TEXT	SEGMENT
_bShow$ = 8						; size = 1
?SetSWndBoundary@Setting@@SAX_N@Z PROC			; Setting::SetSWndBoundary, COMDAT

; 424  : 	static void SetSWndBoundary( bool bShow ) { m_Option.m_bShowWndBoundary = bShow; }

  00000	55		 push	 ebp
  00001	8b ec		 mov	 ebp, esp
  00003	8a 45 08	 mov	 al, BYTE PTR _bShow$[ebp]
  00006	a2 72 00 00 00	 mov	 BYTE PTR ?m_Option@Setting@@1USettingOption@@A+114, al
  0000b	5d		 pop	 ebp
  0000c	c3		 ret	 0
?SetSWndBoundary@Setting@@SAX_N@Z ENDP			; Setting::SetSWndBoundary
_TEXT	ENDS
PUBLIC	?GetModeSub@Setting@@SAHXZ			; Setting::GetModeSub
; Function compile flags: /Ogsp
;	COMDAT ?GetModeSub@Setting@@SAHXZ
_TEXT	SEGMENT
?GetModeSub@Setting@@SAHXZ PROC				; Setting::GetModeSub, COMDAT

; 426  : 	static int  GetModeSub() { return m_Option.m_iModeSub; }

  00000	a1 74 00 00 00	 mov	 eax, DWORD PTR ?m_Option@Setting@@1USettingOption@@A+116
  00005	c3		 ret	 0
?GetModeSub@Setting@@SAHXZ ENDP				; Setting::GetModeSub
_TEXT	ENDS
PUBLIC	?SetModeSub@Setting@@SAXH@Z			; Setting::SetModeSub
; Function compile flags: /Ogsp
;	COMDAT ?SetModeSub@Setting@@SAXH@Z
_TEXT	SEGMENT
_iModeSub$ = 8						; size = 4
?SetModeSub@Setting@@SAXH@Z PROC			; Setting::SetModeSub, COMDAT

; 427  : 	static void SetModeSub( int iModeSub ) { m_Option.m_iModeSub = iModeSub; }

  00000	55		 push	 ebp
  00001	8b ec		 mov	 ebp, esp
  00003	8b 45 08	 mov	 eax, DWORD PTR _iModeSub$[ebp]
  00006	a3 74 00 00 00	 mov	 DWORD PTR ?m_Option@Setting@@1USettingOption@@A+116, eax
  0000b	5d		 pop	 ebp
  0000c	c3		 ret	 0
?SetModeSub@Setting@@SAXH@Z ENDP			; Setting::SetModeSub
_TEXT	ENDS
PUBLIC	?GetModeMap@Setting@@SAHXZ			; Setting::GetModeMap
; Function compile flags: /Ogsp
;	COMDAT ?GetModeMap@Setting@@SAHXZ
_TEXT	SEGMENT
?GetModeMap@Setting@@SAHXZ PROC				; Setting::GetModeMap, COMDAT

; 429  : 	static int  GetModeMap() { return m_Option.m_iModeMap; }

  00000	a1 78 00 00 00	 mov	 eax, DWORD PTR ?m_Option@Setting@@1USettingOption@@A+120
  00005	c3		 ret	 0
?GetModeMap@Setting@@SAHXZ ENDP				; Setting::GetModeMap
_TEXT	ENDS
PUBLIC	?SetModeMap@Setting@@SAXH@Z			; Setting::SetModeMap
; Function compile flags: /Ogsp
;	COMDAT ?SetModeMap@Setting@@SAXH@Z
_TEXT	SEGMENT
_iModeMap$ = 8						; size = 4
?SetModeMap@Setting@@SAXH@Z PROC			; Setting::SetModeMap, COMDAT

; 430  : 	static void SetModeMap( int iModeMap ) { m_Option.m_iModeMap = iModeMap; }

  00000	55		 push	 ebp
  00001	8b ec		 mov	 ebp, esp
  00003	8b 45 08	 mov	 eax, DWORD PTR _iModeMap$[ebp]
  00006	a3 78 00 00 00	 mov	 DWORD PTR ?m_Option@Setting@@1USettingOption@@A+120, eax
  0000b	5d		 pop	 ebp
  0000c	c3		 ret	 0
?SetModeMap@Setting@@SAXH@Z ENDP			; Setting::SetModeMap
_TEXT	ENDS
PUBLIC	?SetOwnerName@ioItem@@QAEXABVioHashString@@@Z	; ioItem::SetOwnerName
; Function compile flags: /Ogsp
; File d:\lost saga for developer\youtube\tutorial\source\src\lsclient\ioitem.h
;	COMDAT ?SetOwnerName@ioItem@@QAEXABVioHashString@@@Z
_TEXT	SEGMENT
_rkName$ = 8						; size = 4
?SetOwnerName@ioItem@@QAEXABVioHashString@@@Z PROC	; ioItem::SetOwnerName, COMDAT
; _this$ = ecx

; 255  : 	inline void SetOwnerName( const ioHashString &rkName ) { m_OwnerName = rkName; }

  00000	55		 push	 ebp
  00001	8b ec		 mov	 ebp, esp
  00003	81 c1 64 02 00
	00		 add	 ecx, 612		; 00000264H
  00009	5d		 pop	 ebp
  0000a	ff 25 00 00 00
	00		 jmp	 DWORD PTR __imp_??4ioHashString@@QAEAAV0@ABV0@@Z
?SetOwnerName@ioItem@@QAEXABVioHashString@@@Z ENDP	; ioItem::SetOwnerName
_TEXT	ENDS
PUBLIC	?GetItemCode@ioItem@@QBEKXZ			; ioItem::GetItemCode
; Function compile flags: /Ogsp
;	COMDAT ?GetItemCode@ioItem@@QBEKXZ
_TEXT	SEGMENT
?GetItemCode@ioItem@@QBEKXZ PROC			; ioItem::GetItemCode, COMDAT
; _this$ = ecx

; 264  : 	inline DWORD GetItemCode() const { return m_dwItemCode; }

  00000	8b 41 38	 mov	 eax, DWORD PTR [ecx+56]
  00003	c3		 ret	 0
?GetItemCode@ioItem@@QBEKXZ ENDP			; ioItem::GetItemCode
_TEXT	ENDS
PUBLIC	?GetPlayStage@ioSP2GUIManager@@QAEPAVioPlayStage@@XZ ; ioSP2GUIManager::GetPlayStage
; Function compile flags: /Ogsp
; File d:\lost saga for developer\youtube\tutorial\source\src\lsclient\gui\iosp2guimanager.h
;	COMDAT ?GetPlayStage@ioSP2GUIManager@@QAEPAVioPlayStage@@XZ
_TEXT	SEGMENT
?GetPlayStage@ioSP2GUIManager@@QAEPAVioPlayStage@@XZ PROC ; ioSP2GUIManager::GetPlayStage, COMDAT
; _this$ = ecx

; 259  : 	ioPlayStage* GetPlayStage(){ return m_pPlayStage; }

  00000	8b 81 e8 04 00
	00		 mov	 eax, DWORD PTR [ecx+1256]
  00006	c3		 ret	 0
?GetPlayStage@ioSP2GUIManager@@QAEPAVioPlayStage@@XZ ENDP ; ioSP2GUIManager::GetPlayStage
_TEXT	ENDS
PUBLIC	?size@?$vector@PAVioUIRenderElement@@V?$allocator@PAVioUIRenderElement@@@std@@@std@@QBEIXZ ; std::vector<ioUIRenderElement *,std::allocator<ioUIRenderElement *> >::size
; Function compile flags: /Ogsp
; File c:\program files (x86)\microsoft visual studio 10.0\vc\include\vector
;	COMDAT ?size@?$vector@PAVioUIRenderElement@@V?$allocator@PAVioUIRenderElement@@@std@@@std@@QBEIXZ
_TEXT	SEGMENT
?size@?$vector@PAVioUIRenderElement@@V?$allocator@PAVioUIRenderElement@@@std@@@std@@QBEIXZ PROC ; std::vector<ioUIRenderElement *,std::allocator<ioUIRenderElement *> >::size, COMDAT
; _this$ = ecx

; 879  : 		return (this->_Mylast - this->_Myfirst);

  00000	8b 41 04	 mov	 eax, DWORD PTR [ecx+4]
  00003	2b 01		 sub	 eax, DWORD PTR [ecx]
  00005	c1 f8 02	 sar	 eax, 2

; 880  : 		}

  00008	c3		 ret	 0
?size@?$vector@PAVioUIRenderElement@@V?$allocator@PAVioUIRenderElement@@@std@@@std@@QBEIXZ ENDP ; std::vector<ioUIRenderElement *,std::allocator<ioUIRenderElement *> >::size
_TEXT	ENDS
PUBLIC	??A?$vector@PAVioUIRenderElement@@V?$allocator@PAVioUIRenderElement@@@std@@@std@@QAEAAPAVioUIRenderElement@@I@Z ; std::vector<ioUIRenderElement *,std::allocator<ioUIRenderElement *> >::operator[]
; Function compile flags: /Ogsp
;	COMDAT ??A?$vector@PAVioUIRenderElement@@V?$allocator@PAVioUIRenderElement@@@std@@@std@@QAEAAPAVioUIRenderElement@@I@Z
_TEXT	SEGMENT
__Pos$ = 8						; size = 4
??A?$vector@PAVioUIRenderElement@@V?$allocator@PAVioUIRenderElement@@@std@@@std@@QAEAAPAVioUIRenderElement@@I@Z PROC ; std::vector<ioUIRenderElement *,std::allocator<ioUIRenderElement *> >::operator[], COMDAT
; _this$ = ecx

; 928  : 		{	// subscript mutable sequence

  00000	55		 push	 ebp
  00001	8b ec		 mov	 ebp, esp

; 929  :  #if _ITERATOR_DEBUG_LEVEL == 2
; 930  : 		if (size() <= _Pos)
; 931  : 			{	// report error
; 932  : 			_DEBUG_ERROR("vector subscript out of range");
; 933  : 			_SCL_SECURE_OUT_OF_RANGE;
; 934  : 			}
; 935  : 
; 936  :  #elif _ITERATOR_DEBUG_LEVEL == 1
; 937  : 		_SCL_SECURE_VALIDATE_RANGE(_Pos < size());
; 938  :  #endif /* _ITERATOR_DEBUG_LEVEL */
; 939  : 
; 940  : 		return (*(this->_Myfirst + _Pos));

  00003	8b 01		 mov	 eax, DWORD PTR [ecx]
  00005	8b 4d 08	 mov	 ecx, DWORD PTR __Pos$[ebp]
  00008	8d 04 88	 lea	 eax, DWORD PTR [eax+ecx*4]

; 941  : 		}

  0000b	5d		 pop	 ebp
  0000c	c2 04 00	 ret	 4
??A?$vector@PAVioUIRenderElement@@V?$allocator@PAVioUIRenderElement@@@std@@@std@@QAEAAPAVioUIRenderElement@@I@Z ENDP ; std::vector<ioUIRenderElement *,std::allocator<ioUIRenderElement *> >::operator[]
_TEXT	ENDS
PUBLIC	??1?$_Vector_val@VioHashString@@V?$allocator@VioHashString@@@std@@@std@@QAE@XZ ; std::_Vector_val<ioHashString,std::allocator<ioHashString> >::~_Vector_val<ioHashString,std::allocator<ioHashString> >
; Function compile flags: /Ogsp
;	COMDAT ??1?$_Vector_val@VioHashString@@V?$allocator@VioHashString@@@std@@@std@@QAE@XZ
_TEXT	SEGMENT
??1?$_Vector_val@VioHashString@@V?$allocator@VioHashString@@@std@@@std@@QAE@XZ PROC ; std::_Vector_val<ioHashString,std::allocator<ioHashString> >::~_Vector_val<ioHashString,std::allocator<ioHashString> >, COMDAT
; _this$ = ecx

; 434  : 		}

  00000	c3		 ret	 0
??1?$_Vector_val@VioHashString@@V?$allocator@VioHashString@@@std@@@std@@QAE@XZ ENDP ; std::_Vector_val<ioHashString,std::allocator<ioHashString> >::~_Vector_val<ioHashString,std::allocator<ioHashString> >
_TEXT	ENDS
PUBLIC	??0?$allocator@VioHashString@@@std@@QAE@XZ	; std::allocator<ioHashString>::allocator<ioHashString>
; Function compile flags: /Ogsp
; File c:\program files (x86)\microsoft visual studio 10.0\vc\include\xmemory
;	COMDAT ??0?$allocator@VioHashString@@@std@@QAE@XZ
_TEXT	SEGMENT
??0?$allocator@VioHashString@@@std@@QAE@XZ PROC		; std::allocator<ioHashString>::allocator<ioHashString>, COMDAT
; _this$ = ecx

; 161  : 	_ALLOCATOR() _THROW0()

  00000	8b c1		 mov	 eax, ecx

; 162  : 		{	// construct default allocator (do nothing)
; 163  : 		}

  00002	c3		 ret	 0
??0?$allocator@VioHashString@@@std@@QAE@XZ ENDP		; std::allocator<ioHashString>::allocator<ioHashString>
_TEXT	ENDS
PUBLIC	??0?$allocator@VioHashString@@@std@@QAE@ABV01@@Z ; std::allocator<ioHashString>::allocator<ioHashString>
; Function compile flags: /Ogsp
;	COMDAT ??0?$allocator@VioHashString@@@std@@QAE@ABV01@@Z
_TEXT	SEGMENT
___formal$ = 8						; size = 4
??0?$allocator@VioHashString@@@std@@QAE@ABV01@@Z PROC	; std::allocator<ioHashString>::allocator<ioHashString>, COMDAT
; _this$ = ecx

; 165  : 	_ALLOCATOR(const _ALLOCATOR<_Ty>&) _THROW0()

  00000	8b c1		 mov	 eax, ecx

; 166  : 		{	// construct by copying (do nothing)
; 167  : 		}

  00002	c2 04 00	 ret	 4
??0?$allocator@VioHashString@@@std@@QAE@ABV01@@Z ENDP	; std::allocator<ioHashString>::allocator<ioHashString>
_TEXT	ENDS
PUBLIC	?DecryptValueToPool@?$CEncrypt@M@@QAEXPAM@Z	; CEncrypt<float>::DecryptValueToPool
EXTRN	?DecryptByte@ccddaabb@@QBEXPBDPADH@Z:PROC	; ccddaabb::DecryptByte
; Function compile flags: /Ogsp
; File d:\lost saga for developer\youtube\tutorial\source\src\lsclient\encryptvalue.h
;	COMDAT ?DecryptValueToPool@?$CEncrypt@M@@QAEXPAM@Z
_TEXT	SEGMENT
_value$ = 8						; size = 4
?DecryptValueToPool@?$CEncrypt@M@@QAEXPAM@Z PROC	; CEncrypt<float>::DecryptValueToPool, COMDAT
; _this$ = ecx

; 1648 : 	{

  00000	55		 push	 ebp
  00001	8b ec		 mov	 ebp, esp
  00003	56		 push	 esi

; 1649 : 		m_RC5.DecryptByte( m_MemPool, m_TempMem, 4 );

  00004	8d 71 28	 lea	 esi, DWORD PTR [ecx+40]
  00007	6a 04		 push	 4
  00009	8d 41 1c	 lea	 eax, DWORD PTR [ecx+28]
  0000c	56		 push	 esi
  0000d	50		 push	 eax
  0000e	83 c1 0c	 add	 ecx, 12			; 0000000cH
  00011	e8 00 00 00 00	 call	 ?DecryptByte@ccddaabb@@QBEXPBDPADH@Z ; ccddaabb::DecryptByte

; 1650 : 		*value = *((float*)m_TempMem);

  00016	d9 06		 fld	 DWORD PTR [esi]
  00018	8b 45 08	 mov	 eax, DWORD PTR _value$[ebp]
  0001b	d9 18		 fstp	 DWORD PTR [eax]
  0001d	5e		 pop	 esi

; 1651 : 	}

  0001e	5d		 pop	 ebp
  0001f	c2 04 00	 ret	 4
?DecryptValueToPool@?$CEncrypt@M@@QAEXPAM@Z ENDP	; CEncrypt<float>::DecryptValueToPool
_TEXT	ENDS
PUBLIC	?DecryptValueToPool@?$CEncrypt@W4ModeType@@@@QAEXPAW4ModeType@@@Z ; CEncrypt<enum ModeType>::DecryptValueToPool
; Function compile flags: /Ogsp
;	COMDAT ?DecryptValueToPool@?$CEncrypt@W4ModeType@@@@QAEXPAW4ModeType@@@Z
_TEXT	SEGMENT
_value$ = 8						; size = 4
?DecryptValueToPool@?$CEncrypt@W4ModeType@@@@QAEXPAW4ModeType@@@Z PROC ; CEncrypt<enum ModeType>::DecryptValueToPool, COMDAT
; _this$ = ecx

; 3039 : 	{

  00000	55		 push	 ebp
  00001	8b ec		 mov	 ebp, esp
  00003	56		 push	 esi

; 3040 : 		m_RC5.DecryptByte( m_MemPool, m_TempMem, sizeof(ModeType) );

  00004	8d 71 28	 lea	 esi, DWORD PTR [ecx+40]
  00007	6a 04		 push	 4
  00009	8d 41 1c	 lea	 eax, DWORD PTR [ecx+28]
  0000c	56		 push	 esi
  0000d	50		 push	 eax
  0000e	83 c1 0c	 add	 ecx, 12			; 0000000cH
  00011	e8 00 00 00 00	 call	 ?DecryptByte@ccddaabb@@QBEXPBDPADH@Z ; ccddaabb::DecryptByte

; 3041 : 		*value = *((ModeType*)m_TempMem);

  00016	8b 06		 mov	 eax, DWORD PTR [esi]
  00018	8b 4d 08	 mov	 ecx, DWORD PTR _value$[ebp]
  0001b	89 01		 mov	 DWORD PTR [ecx], eax
  0001d	5e		 pop	 esi

; 3042 : 	}

  0001e	5d		 pop	 ebp
  0001f	c2 04 00	 ret	 4
?DecryptValueToPool@?$CEncrypt@W4ModeType@@@@QAEXPAW4ModeType@@@Z ENDP ; CEncrypt<enum ModeType>::DecryptValueToPool
_TEXT	ENDS
PUBLIC	?deallocate@?$allocator@VioHashString@@@std@@QAEXPAVioHashString@@I@Z ; std::allocator<ioHashString>::deallocate
; Function compile flags: /Ogsp
; File c:\program files (x86)\microsoft visual studio 10.0\vc\include\xmemory
;	COMDAT ?deallocate@?$allocator@VioHashString@@@std@@QAEXPAVioHashString@@I@Z
_TEXT	SEGMENT
__Ptr$ = 8						; size = 4
___formal$ = 12						; size = 4
?deallocate@?$allocator@VioHashString@@@std@@QAEXPAVioHashString@@I@Z PROC ; std::allocator<ioHashString>::deallocate, COMDAT
; _this$ = ecx

; 181  : 		{	// deallocate object at _Ptr, ignore size

  00000	55		 push	 ebp
  00001	8b ec		 mov	 ebp, esp

; 182  : 		::operator delete(_Ptr);

  00003	ff 75 08	 push	 DWORD PTR __Ptr$[ebp]
  00006	e8 00 00 00 00	 call	 ??3@YAXPAX@Z		; operator delete
  0000b	59		 pop	 ecx

; 183  : 		}

  0000c	5d		 pop	 ebp
  0000d	c2 08 00	 ret	 8
?deallocate@?$allocator@VioHashString@@@std@@QAEXPAVioHashString@@I@Z ENDP ; std::allocator<ioHashString>::deallocate
_TEXT	ENDS
PUBLIC	??0?$_Vector_const_iterator@V?$_Vector_val@VioHashString@@V?$allocator@VioHashString@@@std@@@std@@@std@@QAE@PAVioHashString@@PBU_Container_base0@1@@Z ; std::_Vector_const_iterator<std::_Vector_val<ioHashString,std::allocator<ioHashString> > >::_Vector_const_iterator<std::_Vector_val<ioHashString,std::allocator<ioHashString> > >
; Function compile flags: /Ogsp
; File c:\program files (x86)\microsoft visual studio 10.0\vc\include\vector
;	COMDAT ??0?$_Vector_const_iterator@V?$_Vector_val@VioHashString@@V?$allocator@VioHashString@@@std@@@std@@@std@@QAE@PAVioHashString@@PBU_Container_base0@1@@Z
_TEXT	SEGMENT
__Parg$ = 8						; size = 4
__Pvector$ = 12						; size = 4
??0?$_Vector_const_iterator@V?$_Vector_val@VioHashString@@V?$allocator@VioHashString@@@std@@@std@@@std@@QAE@PAVioHashString@@PBU_Container_base0@1@@Z PROC ; std::_Vector_const_iterator<std::_Vector_val<ioHashString,std::allocator<ioHashString> > >::_Vector_const_iterator<std::_Vector_val<ioHashString,std::allocator<ioHashString> > >, COMDAT
; _this$ = ecx

; 45   : 		{	// construct with pointer _Parg

  00000	55		 push	 ebp
  00001	8b ec		 mov	 ebp, esp
  00003	8b c1		 mov	 eax, ecx
  00005	8b 4d 08	 mov	 ecx, DWORD PTR __Parg$[ebp]
  00008	89 08		 mov	 DWORD PTR [eax], ecx

; 46   : 		this->_Adopt(_Pvector);
; 47   : 		}

  0000a	5d		 pop	 ebp
  0000b	c2 08 00	 ret	 8
??0?$_Vector_const_iterator@V?$_Vector_val@VioHashString@@V?$allocator@VioHashString@@@std@@@std@@@std@@QAE@PAVioHashString@@PBU_Container_base0@1@@Z ENDP ; std::_Vector_const_iterator<std::_Vector_val<ioHashString,std::allocator<ioHashString> > >::_Vector_const_iterator<std::_Vector_val<ioHashString,std::allocator<ioHashString> > >
_TEXT	ENDS
PUBLIC	??0?$_Vector_iterator@V?$_Vector_val@VioHashString@@V?$allocator@VioHashString@@@std@@@std@@@std@@QAE@PAVioHashString@@PBU_Container_base0@1@@Z ; std::_Vector_iterator<std::_Vector_val<ioHashString,std::allocator<ioHashString> > >::_Vector_iterator<std::_Vector_val<ioHashString,std::allocator<ioHashString> > >
; Function compile flags: /Ogsp
;	COMDAT ??0?$_Vector_iterator@V?$_Vector_val@VioHashString@@V?$allocator@VioHashString@@@std@@@std@@@std@@QAE@PAVioHashString@@PBU_Container_base0@1@@Z
_TEXT	SEGMENT
__Parg$ = 8						; size = 4
__Pvector$ = 12						; size = 4
??0?$_Vector_iterator@V?$_Vector_val@VioHashString@@V?$allocator@VioHashString@@@std@@@std@@@std@@QAE@PAVioHashString@@PBU_Container_base0@1@@Z PROC ; std::_Vector_iterator<std::_Vector_val<ioHashString,std::allocator<ioHashString> > >::_Vector_iterator<std::_Vector_val<ioHashString,std::allocator<ioHashString> > >, COMDAT
; _this$ = ecx

; 304  : 		{	// construct with pointer _Parg

  00000	55		 push	 ebp
  00001	8b ec		 mov	 ebp, esp
  00003	8b c1		 mov	 eax, ecx
  00005	8b 4d 08	 mov	 ecx, DWORD PTR __Parg$[ebp]
  00008	89 08		 mov	 DWORD PTR [eax], ecx

; 305  : 		}

  0000a	5d		 pop	 ebp
  0000b	c2 08 00	 ret	 8
??0?$_Vector_iterator@V?$_Vector_val@VioHashString@@V?$allocator@VioHashString@@@std@@@std@@@std@@QAE@PAVioHashString@@PBU_Container_base0@1@@Z ENDP ; std::_Vector_iterator<std::_Vector_val<ioHashString,std::allocator<ioHashString> > >::_Vector_iterator<std::_Vector_val<ioHashString,std::allocator<ioHashString> > >
_TEXT	ENDS
PUBLIC	?_Compat@?$_Vector_const_iterator@V?$_Vector_val@VioHashString@@V?$allocator@VioHashString@@@std@@@std@@@std@@QBEXABV12@@Z ; std::_Vector_const_iterator<std::_Vector_val<ioHashString,std::allocator<ioHashString> > >::_Compat
; Function compile flags: /Ogsp
;	COMDAT ?_Compat@?$_Vector_const_iterator@V?$_Vector_val@VioHashString@@V?$allocator@VioHashString@@@std@@@std@@@std@@QBEXABV12@@Z
_TEXT	SEGMENT
___formal$ = 8						; size = 4
?_Compat@?$_Vector_const_iterator@V?$_Vector_val@VioHashString@@V?$allocator@VioHashString@@@std@@@std@@@std@@QBEXABV12@@Z PROC ; std::_Vector_const_iterator<std::_Vector_val<ioHashString,std::allocator<ioHashString> > >::_Compat, COMDAT
; _this$ = ecx

; 253  : 		}

  00000	c2 04 00	 ret	 4
?_Compat@?$_Vector_const_iterator@V?$_Vector_val@VioHashString@@V?$allocator@VioHashString@@@std@@@std@@@std@@QBEXABV12@@Z ENDP ; std::_Vector_const_iterator<std::_Vector_val<ioHashString,std::allocator<ioHashString> > >::_Compat
_TEXT	ENDS
EXTRN	__imp_??0exception@std@@QAE@ABV01@@Z:PROC
; Function compile flags: /Ogsp
;	COMDAT ??0bad_alloc@std@@QAE@ABV01@@Z
_TEXT	SEGMENT
___that$ = 8						; size = 4
??0bad_alloc@std@@QAE@ABV01@@Z PROC			; std::bad_alloc::bad_alloc, COMDAT
; _this$ = ecx
  00000	55		 push	 ebp
  00001	8b ec		 mov	 ebp, esp
  00003	56		 push	 esi
  00004	ff 75 08	 push	 DWORD PTR ___that$[ebp]
  00007	8b f1		 mov	 esi, ecx
  00009	ff 15 00 00 00
	00		 call	 DWORD PTR __imp_??0exception@std@@QAE@ABV01@@Z
  0000f	c7 06 00 00 00
	00		 mov	 DWORD PTR [esi], OFFSET ??_7bad_alloc@std@@6B@
  00015	8b c6		 mov	 eax, esi
  00017	5e		 pop	 esi
  00018	5d		 pop	 ebp
  00019	c2 04 00	 ret	 4
??0bad_alloc@std@@QAE@ABV01@@Z ENDP			; std::bad_alloc::bad_alloc
_TEXT	ENDS
PUBLIC	??$_Ptr_cat@VioHashString@@V1@@std@@YA?AU_Nonscalar_ptr_iterator_tag@0@PAVioHashString@@0@Z ; std::_Ptr_cat<ioHashString,ioHashString>
; Function compile flags: /Ogsp
; File c:\program files (x86)\microsoft visual studio 10.0\vc\include\xutility
;	COMDAT ??$_Ptr_cat@VioHashString@@V1@@std@@YA?AU_Nonscalar_ptr_iterator_tag@0@PAVioHashString@@0@Z
_TEXT	SEGMENT
__Cat$ = -1						; size = 1
___formal$ = 8						; size = 4
___formal$ = 12						; size = 4
??$_Ptr_cat@VioHashString@@V1@@std@@YA?AU_Nonscalar_ptr_iterator_tag@0@PAVioHashString@@0@Z PROC ; std::_Ptr_cat<ioHashString,ioHashString>, COMDAT

; 516  : 	{	// return pointer category from pointers

  00000	55		 push	 ebp
  00001	8b ec		 mov	 ebp, esp
  00003	51		 push	 ecx

; 517  : 	typename _Ptr_cat_helper<_Elem1, _Elem2>::_Type _Cat;
; 518  : 	return (_Cat);

  00004	8a 45 ff	 mov	 al, BYTE PTR __Cat$[ebp]

; 519  : 	}

  00007	c9		 leave
  00008	c3		 ret	 0
??$_Ptr_cat@VioHashString@@V1@@std@@YA?AU_Nonscalar_ptr_iterator_tag@0@PAVioHashString@@0@Z ENDP ; std::_Ptr_cat<ioHashString,ioHashString>
_TEXT	ENDS
PUBLIC	??$move@AAVioHashString@@@std@@YA$$QAVioHashString@@AAV1@@Z ; std::move<ioHashString &>
; Function compile flags: /Ogsp
; File c:\program files (x86)\microsoft visual studio 10.0\vc\include\utility
;	COMDAT ??$move@AAVioHashString@@@std@@YA$$QAVioHashString@@AAV1@@Z
_TEXT	SEGMENT
__Arg$ = 8						; size = 4
??$move@AAVioHashString@@@std@@YA$$QAVioHashString@@AAV1@@Z PROC ; std::move<ioHashString &>, COMDAT

; 86   : 	{	// forward _Arg as movable

  00000	55		 push	 ebp
  00001	8b ec		 mov	 ebp, esp

; 87   : 	return ((typename tr1::_Remove_reference<_Ty>::_Type&&)_Arg);

  00003	8b 45 08	 mov	 eax, DWORD PTR __Arg$[ebp]

; 88   : 	}

  00006	5d		 pop	 ebp
  00007	c3		 ret	 0
??$move@AAVioHashString@@@std@@YA$$QAVioHashString@@AAV1@@Z ENDP ; std::move<ioHashString &>
_TEXT	ENDS
PUBLIC	??D?$_Vector_const_iterator@V?$_Vector_val@VioHashString@@V?$allocator@VioHashString@@@std@@@std@@@std@@QBEABVioHashString@@XZ ; std::_Vector_const_iterator<std::_Vector_val<ioHashString,std::allocator<ioHashString> > >::operator*
; Function compile flags: /Ogsp
; File c:\program files (x86)\microsoft visual studio 10.0\vc\include\vector
;	COMDAT ??D?$_Vector_const_iterator@V?$_Vector_val@VioHashString@@V?$allocator@VioHashString@@@std@@@std@@@std@@QBEABVioHashString@@XZ
_TEXT	SEGMENT
??D?$_Vector_const_iterator@V?$_Vector_val@VioHashString@@V?$allocator@VioHashString@@@std@@@std@@@std@@QBEABVioHashString@@XZ PROC ; std::_Vector_const_iterator<std::_Vector_val<ioHashString,std::allocator<ioHashString> > >::operator*, COMDAT
; _this$ = ecx

; 64   :  #if _ITERATOR_DEBUG_LEVEL == 2
; 65   : 		if (this->_Getcont() == 0
; 66   : 			|| this->_Ptr == 0
; 67   : 			|| this->_Ptr < ((_Myvec *)this->_Getcont())->_Myfirst
; 68   : 			|| ((_Myvec *)this->_Getcont())->_Mylast <= this->_Ptr)
; 69   : 			{	// report error
; 70   : 			_DEBUG_ERROR("vector iterator not dereferencable");
; 71   : 			_SCL_SECURE_OUT_OF_RANGE;
; 72   : 			}
; 73   : 
; 74   :  #elif _ITERATOR_DEBUG_LEVEL == 1
; 75   : 		_SCL_SECURE_VALIDATE(this->_Getcont() != 0);
; 76   : 		_SCL_SECURE_VALIDATE_RANGE(
; 77   : 			this->_Ptr != 0
; 78   : 			&& ((_Myvec *)this->_Getcont())->_Myfirst <= this->_Ptr
; 79   : 			&& this->_Ptr < ((_Myvec *)this->_Getcont())->_Mylast);
; 80   :  #endif /* _ITERATOR_DEBUG_LEVEL */
; 81   : 
; 82   : 		__analysis_assume(this->_Ptr != 0);
; 83   : 
; 84   : 		return (*this->_Ptr);

  00000	8b 01		 mov	 eax, DWORD PTR [ecx]

; 85   : 		}

  00002	c3		 ret	 0
??D?$_Vector_const_iterator@V?$_Vector_val@VioHashString@@V?$allocator@VioHashString@@@std@@@std@@@std@@QBEABVioHashString@@XZ ENDP ; std::_Vector_const_iterator<std::_Vector_val<ioHashString,std::allocator<ioHashString> > >::operator*
_TEXT	ENDS
PUBLIC	??E?$_Vector_const_iterator@V?$_Vector_val@VioHashString@@V?$allocator@VioHashString@@@std@@@std@@@std@@QAEAAV01@XZ ; std::_Vector_const_iterator<std::_Vector_val<ioHashString,std::allocator<ioHashString> > >::operator++
; Function compile flags: /Ogsp
;	COMDAT ??E?$_Vector_const_iterator@V?$_Vector_val@VioHashString@@V?$allocator@VioHashString@@@std@@@std@@@std@@QAEAAV01@XZ
_TEXT	SEGMENT
??E?$_Vector_const_iterator@V?$_Vector_val@VioHashString@@V?$allocator@VioHashString@@@std@@@std@@@std@@QAEAAV01@XZ PROC ; std::_Vector_const_iterator<std::_Vector_val<ioHashString,std::allocator<ioHashString> > >::operator++, COMDAT
; _this$ = ecx

; 93   : 		{	// preincrement

  00000	8b c1		 mov	 eax, ecx

; 94   :  #if _ITERATOR_DEBUG_LEVEL == 2
; 95   : 		if (this->_Getcont() == 0
; 96   : 			|| this->_Ptr == 0
; 97   : 			|| ((_Myvec *)this->_Getcont())->_Mylast <= this->_Ptr)
; 98   : 			{	// report error
; 99   : 			_DEBUG_ERROR("vector iterator not incrementable");
; 100  : 			_SCL_SECURE_OUT_OF_RANGE;
; 101  : 			}
; 102  : 
; 103  :  #elif _ITERATOR_DEBUG_LEVEL == 1
; 104  : 		_SCL_SECURE_VALIDATE(this->_Getcont() != 0);
; 105  : 		_SCL_SECURE_VALIDATE_RANGE(
; 106  : 			this->_Ptr != 0
; 107  : 			&& this->_Ptr < ((_Myvec *)this->_Getcont())->_Mylast);
; 108  :  #endif /* _ITERATOR_DEBUG_LEVEL */
; 109  : 
; 110  : 		++this->_Ptr;

  00002	83 00 10	 add	 DWORD PTR [eax], 16	; 00000010H

; 111  : 		return (*this);
; 112  : 		}

  00005	c3		 ret	 0
??E?$_Vector_const_iterator@V?$_Vector_val@VioHashString@@V?$allocator@VioHashString@@@std@@@std@@@std@@QAEAAV01@XZ ENDP ; std::_Vector_const_iterator<std::_Vector_val<ioHashString,std::allocator<ioHashString> > >::operator++
_TEXT	ENDS
PUBLIC	??_GioHashString@@QAEPAXI@Z			; ioHashString::`scalar deleting destructor'
; Function compile flags: /Ogsp
;	COMDAT ??_GioHashString@@QAEPAXI@Z
_TEXT	SEGMENT
___flags$ = 8						; size = 4
??_GioHashString@@QAEPAXI@Z PROC			; ioHashString::`scalar deleting destructor', COMDAT
; _this$ = ecx
  00000	55		 push	 ebp
  00001	8b ec		 mov	 ebp, esp
  00003	56		 push	 esi
  00004	8b f1		 mov	 esi, ecx
  00006	ff 15 00 00 00
	00		 call	 DWORD PTR __imp_??1ioHashString@@QAE@XZ
  0000c	f6 45 08 01	 test	 BYTE PTR ___flags$[ebp], 1
  00010	74 07		 je	 SHORT $LN1@scalar@3
  00012	56		 push	 esi
  00013	e8 00 00 00 00	 call	 ??3@YAXPAX@Z		; operator delete
  00018	59		 pop	 ecx
$LN1@scalar@3:
  00019	8b c6		 mov	 eax, esi
  0001b	5e		 pop	 esi
  0001c	5d		 pop	 ebp
  0001d	c2 04 00	 ret	 4
??_GioHashString@@QAEPAXI@Z ENDP			; ioHashString::`scalar deleting destructor'
_TEXT	ENDS
PUBLIC	__real@42a00000
PUBLIC	??_C@_05PGGAFPFO@Death?$AA@			; `string'
PUBLIC	??_C@_04NIFFMPNM@Kill?$AA@			; `string'
PUBLIC	??_C@_09KFEFDDCN@K?1D?5Level?$AA@		; `string'
PUBLIC	??_C@_06DHHILHM@GLevel?$AA@			; `string'
PUBLIC	??_C@_04FEKIJBFG@Nick?$AA@			; `string'
PUBLIC	??_C@_0BL@NMGPKPIO@DeveloperInfoWnd?3?3OnRender?$AA@ ; `string'
PUBLIC	?OnRender@DeveloperInfoWnd@@MAEXXZ		; DeveloperInfoWnd::OnRender
EXTRN	__imp_?PrintText@ioFontManager@@QAEXMMMPBDHH@Z:PROC
EXTRN	__imp_?PrintText@ioFontManager@@QAEXMMMPBDH@Z:PROC
EXTRN	__imp_?PrintTextWidthCut@ioFontManager@@QAAXMMMMPBDZZ:PROC
EXTRN	__imp_?PrintText@ioFontManager@@QAEXMMMPBDHHH@Z:PROC
EXTRN	__imp_?SetTextColor@ioFontManager@@QAEXHHH@Z:PROC
;	COMDAT __real@42a00000
; File d:\lost saga for developer\youtube\tutorial\source\src\lsclient\stdafx.h
CONST	SEGMENT
__real@42a00000 DD 042a00000r			; 80
CONST	ENDS
;	COMDAT ??_C@_05PGGAFPFO@Death?$AA@
CONST	SEGMENT
??_C@_05PGGAFPFO@Death?$AA@ DB 'Death', 00H		; `string'
CONST	ENDS
;	COMDAT ??_C@_04NIFFMPNM@Kill?$AA@
CONST	SEGMENT
??_C@_04NIFFMPNM@Kill?$AA@ DB 'Kill', 00H		; `string'
CONST	ENDS
;	COMDAT ??_C@_09KFEFDDCN@K?1D?5Level?$AA@
CONST	SEGMENT
??_C@_09KFEFDDCN@K?1D?5Level?$AA@ DB 'K/D Level', 00H	; `string'
CONST	ENDS
;	COMDAT ??_C@_06DHHILHM@GLevel?$AA@
CONST	SEGMENT
??_C@_06DHHILHM@GLevel?$AA@ DB 'GLevel', 00H		; `string'
CONST	ENDS
;	COMDAT ??_C@_04FEKIJBFG@Nick?$AA@
CONST	SEGMENT
??_C@_04FEKIJBFG@Nick?$AA@ DB 'Nick', 00H		; `string'
CONST	ENDS
;	COMDAT ??_C@_0BL@NMGPKPIO@DeveloperInfoWnd?3?3OnRender?$AA@
CONST	SEGMENT
??_C@_0BL@NMGPKPIO@DeveloperInfoWnd?3?3OnRender?$AA@ DB 'DeveloperInfoWnd'
	DB	'::OnRender', 00H				; `string'
; Function compile flags: /Ogsp
; File d:\lost saga for developer\youtube\tutorial\source\src\lsclient\gui\debuginfownd.cpp
CONST	ENDS
;	COMDAT ?OnRender@DeveloperInfoWnd@@MAEXXZ
_TEXT	SEGMENT
tv452 = -40						; size = 4
tv404 = -36						; size = 4
tv438 = -32						; size = 4
tv430 = -28						; size = 4
tv408 = -24						; size = 4
tv403 = -24						; size = 4
$T537485 = -24						; size = 4
tv252 = -20						; size = 4
_iYPos$ = -20						; size = 4
tv502 = -16						; size = 4
tv396 = -12						; size = 4
tv483 = -8						; size = 4
tv398 = -8						; size = 4
tv504 = -4						; size = 4
_iXPos$ = -4						; size = 4
?OnRender@DeveloperInfoWnd@@MAEXXZ PROC			; DeveloperInfoWnd::OnRender, COMDAT
; _this$ = ecx

; 69   : {

  00000	55		 push	 ebp
  00001	8b ec		 mov	 ebp, esp
  00003	83 ec 28	 sub	 esp, 40			; 00000028H
  00006	53		 push	 ebx
  00007	56		 push	 esi
  00008	57		 push	 edi
  00009	8b d9		 mov	 ebx, ecx

; 70   : 	ioWnd::OnRender();

  0000b	ff 15 00 00 00
	00		 call	 DWORD PTR __imp_?OnRender@ioWnd@@MAEXXZ

; 71   : 
; 72   : 	int iXPos, iYPos;
; 73   : 	iXPos = GetDerivedPosX();

  00011	8b cb		 mov	 ecx, ebx
  00013	ff 15 00 00 00
	00		 call	 DWORD PTR __imp_?GetDerivedPosX@ioWnd@@QBEHXZ

; 74   : 	iYPos = GetDerivedPosY();

  00019	8b cb		 mov	 ecx, ebx
  0001b	89 45 fc	 mov	 DWORD PTR _iXPos$[ebp], eax
  0001e	ff 15 00 00 00
	00		 call	 DWORD PTR __imp_?GetDerivedPosY@ioWnd@@QBEHXZ

; 75   : 
; 76   : 	g_FontMgr.SetAlignType( TAT_LEFT );

  00024	8b 35 00 00 00
	00		 mov	 esi, DWORD PTR __imp_?GetSingleton@ioFontManager@@SAAAV1@XZ
  0002a	8b f8		 mov	 edi, eax
  0002c	6a 00		 push	 0
  0002e	89 7d ec	 mov	 DWORD PTR _iYPos$[ebp], edi
  00031	ff d6		 call	 esi
  00033	8b c8		 mov	 ecx, eax
  00035	ff 15 00 00 00
	00		 call	 DWORD PTR __imp_?SetAlignType@ioFontManager@@QAEXW4TextAlignType@@@Z

; 77   : 	g_FontMgr.SetTextStyle( TS_OUTLINE_FULL_2X );

  0003b	6a 05		 push	 5
  0003d	ff d6		 call	 esi
  0003f	8b c8		 mov	 ecx, eax
  00041	ff 15 00 00 00
	00		 call	 DWORD PTR __imp_?SetTextStyle@ioFontManager@@QAEXW4TextStyle@@@Z

; 78   : 	g_FontMgr.SetBkColor( 0, 0, 0 );

  00047	33 c0		 xor	 eax, eax
  00049	50		 push	 eax
  0004a	50		 push	 eax
  0004b	50		 push	 eax
  0004c	ff d6		 call	 esi
  0004e	8b c8		 mov	 ecx, eax
  00050	ff 15 00 00 00
	00		 call	 DWORD PTR __imp_?SetBkColor@ioFontManager@@QAEXHHH@Z

; 79   : 	
; 80   : 	g_FontMgr.SetTextColor( 255, 0, 0 );

  00056	6a 00		 push	 0
  00058	6a 00		 push	 0
  0005a	68 ff 00 00 00	 push	 255			; 000000ffH
  0005f	ff d6		 call	 esi
  00061	8b c8		 mov	 ecx, eax
  00063	ff 15 00 00 00
	00		 call	 DWORD PTR __imp_?SetTextColor@ioFontManager@@QAEXHHH@Z

; 81   : 	g_FontMgr.PrintText( iXPos + 10, iYPos + 35, FONT_SIZE_13, STR(1), m_iRoomAverageLevel, m_iRoomLowLevelLimit, m_iRoomHighLevelLimit );

  00069	ff b3 78 01 00
	00		 push	 DWORD PTR [ebx+376]
  0006f	8b 45 fc	 mov	 eax, DWORD PTR _iXPos$[ebp]
  00072	ff b3 74 01 00
	00		 push	 DWORD PTR [ebx+372]
  00078	83 c0 0a	 add	 eax, 10			; 0000000aH
  0007b	ff b3 70 01 00
	00		 push	 DWORD PTR [ebx+368]
  00081	0f 57 c0	 xorps	 xmm0, xmm0
  00084	6a 00		 push	 0
  00086	6a 01		 push	 1
  00088	68 00 00 00 00	 push	 OFFSET ??_C@_00CNPNBAHC@?$AA@
  0008d	f3 0f 2a c0	 cvtsi2ss xmm0, eax
  00091	68 00 00 00 00	 push	 OFFSET ??_C@_0BL@NMGPKPIO@DeveloperInfoWnd?3?3OnRender?$AA@
  00096	f3 0f 11 45 f4	 movss	 DWORD PTR tv396[ebp], xmm0
  0009b	ff 15 00 00 00
	00		 call	 DWORD PTR __imp_?GetSingleton@ioStringManager@@SAAAV1@XZ
  000a1	8b c8		 mov	 ecx, eax
  000a3	ff 15 00 00 00
	00		 call	 DWORD PTR __imp_?GetString@ioStringManager@@QAEPADPBD0HW4FileNamePrefix@1@@Z
  000a9	f3 0f 10 05 00
	00 00 00	 movss	 xmm0, DWORD PTR __real@3f266666
  000b1	50		 push	 eax
  000b2	83 ec 0c	 sub	 esp, 12			; 0000000cH
  000b5	f3 0f 11 44 24
	08		 movss	 DWORD PTR [esp+8], xmm0
  000bb	8d 47 23	 lea	 eax, DWORD PTR [edi+35]
  000be	0f 57 c0	 xorps	 xmm0, xmm0
  000c1	f3 0f 2a c0	 cvtsi2ss xmm0, eax
  000c5	f3 0f 11 44 24
	04		 movss	 DWORD PTR [esp+4], xmm0
  000cb	f3 0f 10 45 f4	 movss	 xmm0, DWORD PTR tv396[ebp]
  000d0	f3 0f 11 04 24	 movss	 DWORD PTR [esp], xmm0
  000d5	ff d6		 call	 esi
  000d7	8b c8		 mov	 ecx, eax
  000d9	ff 15 00 00 00
	00		 call	 DWORD PTR __imp_?PrintText@ioFontManager@@QAEXMMMPBDHHH@Z

; 82   : 	g_FontMgr.SetTextColor( TCT_DEFAULT_GRAY );

  000df	68 6e 6e 6e ff	 push	 -9539986		; ff6e6e6eH
  000e4	ff d6		 call	 esi
  000e6	8b c8		 mov	 ecx, eax
  000e8	ff 15 00 00 00
	00		 call	 DWORD PTR __imp_?SetTextColor@ioFontManager@@QAEXK@Z

; 83   : 	g_FontMgr.PrintText( iXPos + 10, iYPos + 55, FONT_SIZE_13, "Nick" );

  000ee	f3 0f 10 0d 00
	00 00 00	 movss	 xmm1, DWORD PTR __real@3f266666
  000f6	68 00 00 00 00	 push	 OFFSET ??_C@_04FEKIJBFG@Nick?$AA@
  000fb	83 ec 0c	 sub	 esp, 12			; 0000000cH
  000fe	0f 57 c0	 xorps	 xmm0, xmm0
  00101	83 c7 37	 add	 edi, 55			; 00000037H
  00104	f3 0f 2a c7	 cvtsi2ss xmm0, edi
  00108	f3 0f 11 4c 24
	08		 movss	 DWORD PTR [esp+8], xmm1
  0010e	f3 0f 11 44 24
	04		 movss	 DWORD PTR [esp+4], xmm0
  00114	f3 0f 11 45 f8	 movss	 DWORD PTR tv398[ebp], xmm0
  00119	f3 0f 10 45 f4	 movss	 xmm0, DWORD PTR tv396[ebp]
  0011e	f3 0f 11 04 24	 movss	 DWORD PTR [esp], xmm0
  00123	ff d6		 call	 esi
  00125	8b 3d 00 00 00
	00		 mov	 edi, DWORD PTR __imp_?PrintText@ioFontManager@@QAAXMMMPBDZZ
  0012b	50		 push	 eax
  0012c	ff d7		 call	 edi

; 84   : 	g_FontMgr.PrintText( iXPos + 90, iYPos + 55, FONT_SIZE_13, "GLevel");

  0012e	f3 0f 10 05 00
	00 00 00	 movss	 xmm0, DWORD PTR __real@3f266666
  00136	8b 45 fc	 mov	 eax, DWORD PTR _iXPos$[ebp]
  00139	83 c4 14	 add	 esp, 20			; 00000014H
  0013c	68 00 00 00 00	 push	 OFFSET ??_C@_06DHHILHM@GLevel?$AA@
  00141	83 ec 0c	 sub	 esp, 12			; 0000000cH
  00144	f3 0f 11 44 24
	08		 movss	 DWORD PTR [esp+8], xmm0
  0014a	f3 0f 10 45 f8	 movss	 xmm0, DWORD PTR tv398[ebp]
  0014f	f3 0f 11 44 24
	04		 movss	 DWORD PTR [esp+4], xmm0
  00155	83 c0 5a	 add	 eax, 90			; 0000005aH
  00158	0f 57 c0	 xorps	 xmm0, xmm0
  0015b	f3 0f 2a c0	 cvtsi2ss xmm0, eax
  0015f	f3 0f 11 04 24	 movss	 DWORD PTR [esp], xmm0
  00164	ff d6		 call	 esi
  00166	50		 push	 eax
  00167	ff d7		 call	 edi

; 85   : 	g_FontMgr.PrintText( iXPos + 150, iYPos + 55, FONT_SIZE_13, "K/D Level");

  00169	f3 0f 10 05 00
	00 00 00	 movss	 xmm0, DWORD PTR __real@3f266666
  00171	8b 45 fc	 mov	 eax, DWORD PTR _iXPos$[ebp]
  00174	83 c4 14	 add	 esp, 20			; 00000014H
  00177	68 00 00 00 00	 push	 OFFSET ??_C@_09KFEFDDCN@K?1D?5Level?$AA@
  0017c	83 ec 0c	 sub	 esp, 12			; 0000000cH
  0017f	f3 0f 11 44 24
	08		 movss	 DWORD PTR [esp+8], xmm0
  00185	f3 0f 10 45 f8	 movss	 xmm0, DWORD PTR tv398[ebp]
  0018a	f3 0f 11 44 24
	04		 movss	 DWORD PTR [esp+4], xmm0
  00190	05 96 00 00 00	 add	 eax, 150		; 00000096H
  00195	0f 57 c0	 xorps	 xmm0, xmm0
  00198	f3 0f 2a c0	 cvtsi2ss xmm0, eax
  0019c	f3 0f 11 04 24	 movss	 DWORD PTR [esp], xmm0
  001a1	ff d6		 call	 esi
  001a3	50		 push	 eax
  001a4	ff d7		 call	 edi

; 86   : 	g_FontMgr.PrintText( iXPos + 230, iYPos + 55, FONT_SIZE_13, "Kill");

  001a6	f3 0f 10 0d 00
	00 00 00	 movss	 xmm1, DWORD PTR __real@3f266666
  001ae	8b 45 fc	 mov	 eax, DWORD PTR _iXPos$[ebp]
  001b1	83 c4 14	 add	 esp, 20			; 00000014H
  001b4	68 00 00 00 00	 push	 OFFSET ??_C@_04NIFFMPNM@Kill?$AA@
  001b9	83 ec 0c	 sub	 esp, 12			; 0000000cH
  001bc	f3 0f 11 4c 24
	08		 movss	 DWORD PTR [esp+8], xmm1
  001c2	f3 0f 10 4d f8	 movss	 xmm1, DWORD PTR tv398[ebp]
  001c7	05 e6 00 00 00	 add	 eax, 230		; 000000e6H
  001cc	0f 57 c0	 xorps	 xmm0, xmm0
  001cf	f3 0f 2a c0	 cvtsi2ss xmm0, eax
  001d3	f3 0f 11 4c 24
	04		 movss	 DWORD PTR [esp+4], xmm1
  001d9	f3 0f 11 45 dc	 movss	 DWORD PTR tv404[ebp], xmm0
  001de	f3 0f 11 04 24	 movss	 DWORD PTR [esp], xmm0
  001e3	ff d6		 call	 esi
  001e5	50		 push	 eax
  001e6	ff d7		 call	 edi

; 87   : 	g_FontMgr.PrintText( iXPos + 300, iYPos + 55, FONT_SIZE_13, "Death");

  001e8	f3 0f 10 05 00
	00 00 00	 movss	 xmm0, DWORD PTR __real@3f266666
  001f0	8b 45 fc	 mov	 eax, DWORD PTR _iXPos$[ebp]
  001f3	83 c4 14	 add	 esp, 20			; 00000014H
  001f6	68 00 00 00 00	 push	 OFFSET ??_C@_05PGGAFPFO@Death?$AA@
  001fb	83 ec 0c	 sub	 esp, 12			; 0000000cH
  001fe	f3 0f 11 44 24
	08		 movss	 DWORD PTR [esp+8], xmm0
  00204	f3 0f 10 45 f8	 movss	 xmm0, DWORD PTR tv398[ebp]
  00209	f3 0f 11 44 24
	04		 movss	 DWORD PTR [esp+4], xmm0
  0020f	05 2c 01 00 00	 add	 eax, 300		; 0000012cH
  00214	0f 57 c0	 xorps	 xmm0, xmm0
  00217	f3 0f 2a c0	 cvtsi2ss xmm0, eax
  0021b	f3 0f 11 04 24	 movss	 DWORD PTR [esp], xmm0
  00220	ff d6		 call	 esi
  00222	50		 push	 eax
  00223	ff d7		 call	 edi
  00225	83 c4 14	 add	 esp, 20			; 00000014H

; 88   : 
; 89   : 	g_FontMgr.SetTextColor( TCT_DEFAULT_GRAY );

  00228	68 6e 6e 6e ff	 push	 -9539986		; ff6e6e6eH
  0022d	ff d6		 call	 esi
  0022f	8b c8		 mov	 ecx, eax
  00231	ff 15 00 00 00
	00		 call	 DWORD PTR __imp_?SetTextColor@ioFontManager@@QAEXK@Z

; 90   : 	int i = 0;
; 91   : 	int iUserSize = m_vUserInfo.size();

  00237	8b 83 64 01 00
	00		 mov	 eax, DWORD PTR [ebx+356]
  0023d	2b 83 60 01 00
	00		 sub	 eax, DWORD PTR [ebx+352]
  00243	6a 28		 push	 40			; 00000028H
  00245	99		 cdq
  00246	59		 pop	 ecx
  00247	f7 f9		 idiv	 ecx

; 92   : 	for(i = 0;i < iUserSize;i++)

  00249	85 c0		 test	 eax, eax
  0024b	0f 8e 13 02 00
	00		 jle	 $LN1@OnRender@2
  00251	8b 4d fc	 mov	 ecx, DWORD PTR _iXPos$[ebp]
  00254	83 65 f8 00	 and	 DWORD PTR tv483[ebp], 0
  00258	0f 57 c0	 xorps	 xmm0, xmm0
  0025b	f3 0f 2a c1	 cvtsi2ss xmm0, ecx
  0025f	f3 0f 11 45 e4	 movss	 DWORD PTR tv430[ebp], xmm0
  00264	8d 91 a0 00 00
	00		 lea	 edx, DWORD PTR [ecx+160]
  0026a	0f 57 c0	 xorps	 xmm0, xmm0
  0026d	f3 0f 2a c2	 cvtsi2ss xmm0, edx
  00271	81 c1 36 01 00
	00		 add	 ecx, 310		; 00000136H
  00277	f3 0f 11 45 e0	 movss	 DWORD PTR tv438[ebp], xmm0
  0027c	0f 57 c0	 xorps	 xmm0, xmm0
  0027f	f3 0f 2a c1	 cvtsi2ss xmm0, ecx
  00283	8b 4d ec	 mov	 ecx, DWORD PTR _iYPos$[ebp]
  00286	83 c1 4b	 add	 ecx, 75			; 0000004bH
  00289	f3 0f 11 45 d8	 movss	 DWORD PTR tv452[ebp], xmm0
  0028e	89 4d f0	 mov	 DWORD PTR tv502[ebp], ecx
  00291	89 45 ec	 mov	 DWORD PTR tv252[ebp], eax
$LL14@OnRender@2:

; 93   : 	{
; 94   : 		UserInfo &kInfo = m_vUserInfo[i];

  00294	8b bb 60 01 00
	00		 mov	 edi, DWORD PTR [ebx+352]
  0029a	03 7d f8	 add	 edi, DWORD PTR tv483[ebp]

; 95   : 		g_FontMgr.PrintTextWidthCut( iXPos + 10, iYPos + 75 + (i*20), FONT_SIZE_13, 80.0f, kInfo.m_szName.c_str() );

  0029d	66 0f 6e 45 f0	 movd	 xmm0, DWORD PTR tv502[ebp]
  002a2	0f 5b c0	 cvtdq2ps xmm0, xmm0
  002a5	8b cf		 mov	 ecx, edi
  002a7	f3 0f 11 45 fc	 movss	 DWORD PTR tv504[ebp], xmm0
  002ac	ff 15 00 00 00
	00		 call	 DWORD PTR __imp_?c_str@ioHashString@@QBEPBDXZ
  002b2	f3 0f 10 05 00
	00 00 00	 movss	 xmm0, DWORD PTR __real@42a00000
  002ba	50		 push	 eax
  002bb	83 ec 10	 sub	 esp, 16			; 00000010H
  002be	f3 0f 11 44 24
	0c		 movss	 DWORD PTR [esp+12], xmm0
  002c4	f3 0f 10 05 00
	00 00 00	 movss	 xmm0, DWORD PTR __real@3f266666
  002cc	f3 0f 11 44 24
	08		 movss	 DWORD PTR [esp+8], xmm0
  002d2	f3 0f 10 45 fc	 movss	 xmm0, DWORD PTR tv504[ebp]
  002d7	f3 0f 11 44 24
	04		 movss	 DWORD PTR [esp+4], xmm0
  002dd	f3 0f 10 45 f4	 movss	 xmm0, DWORD PTR tv396[ebp]
  002e2	f3 0f 11 04 24	 movss	 DWORD PTR [esp], xmm0
  002e7	ff d6		 call	 esi
  002e9	50		 push	 eax
  002ea	ff 15 00 00 00
	00		 call	 DWORD PTR __imp_?PrintTextWidthCut@ioFontManager@@QAAXMMMMPBDZZ
  002f0	83 c4 18	 add	 esp, 24			; 00000018H

; 96   : 		g_FontMgr.PrintText( iXPos + FLOAT100, iYPos + 75 + (i*20), FONT_SIZE_13, STR(2), kInfo.m_iGradeLevel );

  002f3	b8 64 00 00 00	 mov	 eax, 100		; 00000064H
  002f8	ff 77 10	 push	 DWORD PTR [edi+16]
  002fb	89 45 e8	 mov	 DWORD PTR $T537485[ebp], eax
  002fe	6a 00		 push	 0
  00300	6a 02		 push	 2
  00302	68 00 00 00 00	 push	 OFFSET ??_C@_00CNPNBAHC@?$AA@
  00307	68 00 00 00 00	 push	 OFFSET ??_C@_0BL@NMGPKPIO@DeveloperInfoWnd?3?3OnRender?$AA@
  0030c	ff 15 00 00 00
	00		 call	 DWORD PTR __imp_?GetSingleton@ioStringManager@@SAAAV1@XZ
  00312	8b c8		 mov	 ecx, eax
  00314	ff 15 00 00 00
	00		 call	 DWORD PTR __imp_?GetString@ioStringManager@@QAEPADPBD0HW4FileNamePrefix@1@@Z
  0031a	db 45 e8	 fild	 DWORD PTR $T537485[ebp]
  0031d	f3 0f 10 05 00
	00 00 00	 movss	 xmm0, DWORD PTR __real@3f266666
  00325	50		 push	 eax
  00326	8b 45 e8	 mov	 eax, DWORD PTR $T537485[ebp]
  00329	83 ec 0c	 sub	 esp, 12			; 0000000cH
  0032c	f3 0f 11 44 24
	08		 movss	 DWORD PTR [esp+8], xmm0
  00332	f3 0f 10 45 fc	 movss	 xmm0, DWORD PTR tv504[ebp]
  00337	f3 0f 11 44 24
	04		 movss	 DWORD PTR [esp+4], xmm0
  0033d	85 c0		 test	 eax, eax
  0033f	79 06		 jns	 SHORT $LN15@OnRender@2
  00341	d8 05 00 00 00
	00		 fadd	 DWORD PTR __real@4f800000
$LN15@OnRender@2:
  00347	d8 45 e4	 fadd	 DWORD PTR tv430[ebp]
  0034a	d9 5d e8	 fstp	 DWORD PTR tv403[ebp]
  0034d	d9 45 e8	 fld	 DWORD PTR tv403[ebp]
  00350	d9 1c 24	 fstp	 DWORD PTR [esp]
  00353	ff d6		 call	 esi
  00355	8b c8		 mov	 ecx, eax
  00357	ff 15 00 00 00
	00		 call	 DWORD PTR __imp_?PrintText@ioFontManager@@QAEXMMMPBDH@Z

; 97   : 		g_FontMgr.PrintText( iXPos + 160, iYPos + 75 + (i*20), FONT_SIZE_13, STR(3), kInfo.m_iKillDeathLevel );		

  0035d	ff 77 14	 push	 DWORD PTR [edi+20]
  00360	6a 00		 push	 0
  00362	6a 03		 push	 3
  00364	68 00 00 00 00	 push	 OFFSET ??_C@_00CNPNBAHC@?$AA@
  00369	68 00 00 00 00	 push	 OFFSET ??_C@_0BL@NMGPKPIO@DeveloperInfoWnd?3?3OnRender?$AA@
  0036e	ff 15 00 00 00
	00		 call	 DWORD PTR __imp_?GetSingleton@ioStringManager@@SAAAV1@XZ
  00374	8b c8		 mov	 ecx, eax
  00376	ff 15 00 00 00
	00		 call	 DWORD PTR __imp_?GetString@ioStringManager@@QAEPADPBD0HW4FileNamePrefix@1@@Z
  0037c	f3 0f 10 05 00
	00 00 00	 movss	 xmm0, DWORD PTR __real@3f266666
  00384	50		 push	 eax
  00385	83 ec 0c	 sub	 esp, 12			; 0000000cH
  00388	f3 0f 11 44 24
	08		 movss	 DWORD PTR [esp+8], xmm0
  0038e	f3 0f 10 45 fc	 movss	 xmm0, DWORD PTR tv504[ebp]
  00393	f3 0f 11 44 24
	04		 movss	 DWORD PTR [esp+4], xmm0
  00399	f3 0f 10 45 e0	 movss	 xmm0, DWORD PTR tv438[ebp]
  0039e	f3 0f 11 04 24	 movss	 DWORD PTR [esp], xmm0
  003a3	ff d6		 call	 esi
  003a5	8b c8		 mov	 ecx, eax
  003a7	ff 15 00 00 00
	00		 call	 DWORD PTR __imp_?PrintText@ioFontManager@@QAEXMMMPBDH@Z

; 98   : 		g_FontMgr.PrintText( iXPos + 230, iYPos + 75 + (i*20), FONT_SIZE_13, STR(4), kInfo.m_iSoloKO, kInfo.m_iPartyKO );

  003ad	ff 77 1c	 push	 DWORD PTR [edi+28]
  003b0	ff 77 18	 push	 DWORD PTR [edi+24]
  003b3	6a 00		 push	 0
  003b5	6a 04		 push	 4
  003b7	68 00 00 00 00	 push	 OFFSET ??_C@_00CNPNBAHC@?$AA@
  003bc	68 00 00 00 00	 push	 OFFSET ??_C@_0BL@NMGPKPIO@DeveloperInfoWnd?3?3OnRender?$AA@
  003c1	ff 15 00 00 00
	00		 call	 DWORD PTR __imp_?GetSingleton@ioStringManager@@SAAAV1@XZ
  003c7	8b c8		 mov	 ecx, eax
  003c9	ff 15 00 00 00
	00		 call	 DWORD PTR __imp_?GetString@ioStringManager@@QAEPADPBD0HW4FileNamePrefix@1@@Z
  003cf	f3 0f 10 05 00
	00 00 00	 movss	 xmm0, DWORD PTR __real@3f266666
  003d7	50		 push	 eax
  003d8	83 ec 0c	 sub	 esp, 12			; 0000000cH
  003db	f3 0f 11 44 24
	08		 movss	 DWORD PTR [esp+8], xmm0
  003e1	f3 0f 10 45 fc	 movss	 xmm0, DWORD PTR tv504[ebp]
  003e6	f3 0f 11 44 24
	04		 movss	 DWORD PTR [esp+4], xmm0
  003ec	f3 0f 10 45 dc	 movss	 xmm0, DWORD PTR tv404[ebp]
  003f1	f3 0f 11 04 24	 movss	 DWORD PTR [esp], xmm0
  003f6	ff d6		 call	 esi
  003f8	8b c8		 mov	 ecx, eax
  003fa	ff 15 00 00 00
	00		 call	 DWORD PTR __imp_?PrintText@ioFontManager@@QAEXMMMPBDHH@Z

; 99   : 		g_FontMgr.PrintText( iXPos + 310, iYPos + 75 + (i*20), FONT_SIZE_13, STR(5), kInfo.m_iSoloKOed, kInfo.m_iPartyKOed );

  00400	ff 77 24	 push	 DWORD PTR [edi+36]
  00403	ff 77 20	 push	 DWORD PTR [edi+32]
  00406	6a 00		 push	 0
  00408	6a 05		 push	 5
  0040a	68 00 00 00 00	 push	 OFFSET ??_C@_00CNPNBAHC@?$AA@
  0040f	68 00 00 00 00	 push	 OFFSET ??_C@_0BL@NMGPKPIO@DeveloperInfoWnd?3?3OnRender?$AA@
  00414	ff 15 00 00 00
	00		 call	 DWORD PTR __imp_?GetSingleton@ioStringManager@@SAAAV1@XZ
  0041a	8b c8		 mov	 ecx, eax
  0041c	ff 15 00 00 00
	00		 call	 DWORD PTR __imp_?GetString@ioStringManager@@QAEPADPBD0HW4FileNamePrefix@1@@Z
  00422	f3 0f 10 05 00
	00 00 00	 movss	 xmm0, DWORD PTR __real@3f266666
  0042a	50		 push	 eax
  0042b	83 ec 0c	 sub	 esp, 12			; 0000000cH
  0042e	f3 0f 11 44 24
	08		 movss	 DWORD PTR [esp+8], xmm0
  00434	f3 0f 10 45 fc	 movss	 xmm0, DWORD PTR tv504[ebp]
  00439	f3 0f 11 44 24
	04		 movss	 DWORD PTR [esp+4], xmm0
  0043f	f3 0f 10 45 d8	 movss	 xmm0, DWORD PTR tv452[ebp]
  00444	f3 0f 11 04 24	 movss	 DWORD PTR [esp], xmm0
  00449	ff d6		 call	 esi
  0044b	8b c8		 mov	 ecx, eax
  0044d	ff 15 00 00 00
	00		 call	 DWORD PTR __imp_?PrintText@ioFontManager@@QAEXMMMPBDHH@Z
  00453	83 45 f8 28	 add	 DWORD PTR tv483[ebp], 40 ; 00000028H
  00457	83 45 f0 14	 add	 DWORD PTR tv502[ebp], 20 ; 00000014H
  0045b	ff 4d ec	 dec	 DWORD PTR tv252[ebp]
  0045e	0f 85 30 fe ff
	ff		 jne	 $LL14@OnRender@2
$LN1@OnRender@2:
  00464	5f		 pop	 edi
  00465	5e		 pop	 esi
  00466	5b		 pop	 ebx

; 100  : 	}
; 101  : }

  00467	c9		 leave
  00468	c3		 ret	 0
?OnRender@DeveloperInfoWnd@@MAEXXZ ENDP			; DeveloperInfoWnd::OnRender
; Function compile flags: /Ogsp
_TEXT	ENDS
;	COMDAT ??_GDeveloperP2PWnd@@UAEPAXI@Z
_TEXT	SEGMENT
___flags$ = 8						; size = 4
??_GDeveloperP2PWnd@@UAEPAXI@Z PROC			; DeveloperP2PWnd::`scalar deleting destructor', COMDAT
; _this$ = ecx
  00000	55		 push	 ebp
  00001	8b ec		 mov	 ebp, esp
  00003	56		 push	 esi
  00004	8b f1		 mov	 esi, ecx
  00006	e8 00 00 00 00	 call	 ??1DeveloperP2PWnd@@UAE@XZ ; DeveloperP2PWnd::~DeveloperP2PWnd
  0000b	f6 45 08 01	 test	 BYTE PTR ___flags$[ebp], 1
  0000f	74 07		 je	 SHORT $LN1@scalar@4
  00011	56		 push	 esi
  00012	e8 00 00 00 00	 call	 ??3@YAXPAX@Z		; operator delete
  00017	59		 pop	 ecx
$LN1@scalar@4:
  00018	8b c6		 mov	 eax, esi
  0001a	5e		 pop	 esi
  0001b	5d		 pop	 ebp
  0001c	c2 04 00	 ret	 4
??_GDeveloperP2PWnd@@UAEPAXI@Z ENDP			; DeveloperP2PWnd::`scalar deleting destructor'
; Function compile flags: /Ogsp
_TEXT	ENDS
;	COMDAT ??_GDeveloperFrameWnd@@UAEPAXI@Z
_TEXT	SEGMENT
___flags$ = 8						; size = 4
??_GDeveloperFrameWnd@@UAEPAXI@Z PROC			; DeveloperFrameWnd::`scalar deleting destructor', COMDAT
; _this$ = ecx
  00000	55		 push	 ebp
  00001	8b ec		 mov	 ebp, esp
  00003	56		 push	 esi
  00004	8b f1		 mov	 esi, ecx
  00006	e8 00 00 00 00	 call	 ??1DeveloperFrameWnd@@UAE@XZ ; DeveloperFrameWnd::~DeveloperFrameWnd
  0000b	f6 45 08 01	 test	 BYTE PTR ___flags$[ebp], 1
  0000f	74 07		 je	 SHORT $LN1@scalar@5
  00011	56		 push	 esi
  00012	e8 00 00 00 00	 call	 ??3@YAXPAX@Z		; operator delete
  00017	59		 pop	 ecx
$LN1@scalar@5:
  00018	8b c6		 mov	 eax, esi
  0001a	5e		 pop	 esi
  0001b	5d		 pop	 ebp
  0001c	c2 04 00	 ret	 4
??_GDeveloperFrameWnd@@UAEPAXI@Z ENDP			; DeveloperFrameWnd::`scalar deleting destructor'
; Function compile flags: /Ogsp
_TEXT	ENDS
;	COMDAT ??_GFontTextureTestWnd@@UAEPAXI@Z
_TEXT	SEGMENT
___flags$ = 8						; size = 4
??_GFontTextureTestWnd@@UAEPAXI@Z PROC			; FontTextureTestWnd::`scalar deleting destructor', COMDAT
; _this$ = ecx
  00000	55		 push	 ebp
  00001	8b ec		 mov	 ebp, esp
  00003	56		 push	 esi
  00004	8b f1		 mov	 esi, ecx
  00006	e8 00 00 00 00	 call	 ??1FontTextureTestWnd@@UAE@XZ ; FontTextureTestWnd::~FontTextureTestWnd
  0000b	f6 45 08 01	 test	 BYTE PTR ___flags$[ebp], 1
  0000f	74 07		 je	 SHORT $LN1@scalar@6
  00011	56		 push	 esi
  00012	e8 00 00 00 00	 call	 ??3@YAXPAX@Z		; operator delete
  00017	59		 pop	 ecx
$LN1@scalar@6:
  00018	8b c6		 mov	 eax, esi
  0001a	5e		 pop	 esi
  0001b	5d		 pop	 ebp
  0001c	c2 04 00	 ret	 4
??_GFontTextureTestWnd@@UAEPAXI@Z ENDP			; FontTextureTestWnd::`scalar deleting destructor'
_TEXT	ENDS
PUBLIC	?SetFrameElementAlpha@CharGameInfoListWnd@@QAEXM@Z ; CharGameInfoListWnd::SetFrameElementAlpha
; Function compile flags: /Ogsp
;	COMDAT ?SetFrameElementAlpha@CharGameInfoListWnd@@QAEXM@Z
_TEXT	SEGMENT
_fRate$ = 8						; size = 4
?SetFrameElementAlpha@CharGameInfoListWnd@@QAEXM@Z PROC	; CharGameInfoListWnd::SetFrameElementAlpha, COMDAT
; _this$ = ecx

; 317  : {

  00000	55		 push	 ebp
  00001	8b ec		 mov	 ebp, esp
  00003	53		 push	 ebx
  00004	56		 push	 esi
  00005	8b f1		 mov	 esi, ecx

; 318  : 	for( int i = 0; i < (int)m_ElementList.size(); ++i )

  00007	8b 46 6c	 mov	 eax, DWORD PTR [esi+108]
  0000a	2b 46 68	 sub	 eax, DWORD PTR [esi+104]
  0000d	33 db		 xor	 ebx, ebx
  0000f	a9 fc ff ff ff	 test	 eax, -4			; fffffffcH
  00014	7e 44		 jle	 SHORT $LN2@SetFrameEl
  00016	57		 push	 edi
$LL14@SetFrameEl:

; 319  : 	{
; 320  : 		ioUIRenderElement* pElment = m_ElementList[i];

  00017	8b 46 68	 mov	 eax, DWORD PTR [esi+104]
  0001a	8b 3c 98	 mov	 edi, DWORD PTR [eax+ebx*4]

; 321  : 		if( pElment && pElment->GetType() == ioUIRenderElement::UIE_FRAME )

  0001d	85 ff		 test	 edi, edi
  0001f	74 2a		 je	 SHORT $LN3@SetFrameEl
  00021	8b 07		 mov	 eax, DWORD PTR [edi]
  00023	8b cf		 mov	 ecx, edi
  00025	ff 50 08	 call	 DWORD PTR [eax+8]
  00028	85 c0		 test	 eax, eax
  0002a	75 1f		 jne	 SHORT $LN3@SetFrameEl

; 322  : 			pElment->SetAlpha( MAX_ALPHA_RATE * fRate );

  0002c	f3 0f 10 45 08	 movss	 xmm0, DWORD PTR _fRate$[ebp]
  00031	8b 07		 mov	 eax, DWORD PTR [edi]
  00033	0f 5a c0	 cvtps2pd xmm0, xmm0
  00036	f2 0f 59 05 00
	00 00 00	 mulsd	 xmm0, QWORD PTR __real@406fe00000000000
  0003e	f2 0f 2c c8	 cvttsd2si ecx, xmm0
  00042	0f b6 c9	 movzx	 ecx, cl
  00045	51		 push	 ecx
  00046	8b cf		 mov	 ecx, edi
  00048	ff 50 30	 call	 DWORD PTR [eax+48]
$LN3@SetFrameEl:

; 318  : 	for( int i = 0; i < (int)m_ElementList.size(); ++i )

  0004b	8b 46 6c	 mov	 eax, DWORD PTR [esi+108]
  0004e	2b 46 68	 sub	 eax, DWORD PTR [esi+104]
  00051	43		 inc	 ebx
  00052	c1 f8 02	 sar	 eax, 2
  00055	3b d8		 cmp	 ebx, eax
  00057	7c be		 jl	 SHORT $LL14@SetFrameEl
  00059	5f		 pop	 edi
$LN2@SetFrameEl:
  0005a	5e		 pop	 esi
  0005b	5b		 pop	 ebx

; 323  : 	}
; 324  : }

  0005c	5d		 pop	 ebp
  0005d	c2 04 00	 ret	 4
?SetFrameElementAlpha@CharGameInfoListWnd@@QAEXM@Z ENDP	; CharGameInfoListWnd::SetFrameElementAlpha
_TEXT	ENDS
PUBLIC	??_C@_0BO@OOOJOPIG@CharGameInfoListWnd?3?3iwm_hide?$AA@ ; `string'
PUBLIC	?iwm_hide@CharGameInfoListWnd@@UAEXXZ		; CharGameInfoListWnd::iwm_hide
EXTRN	__imp_??0ioHashString@@QAE@PBD@Z:PROC
EXTRN	__imp_?FindWnd@ioGUIManager@@QAEPAVioWnd@@K@Z:PROC
EXTRN	?GetSingleton@ioSP2GUIManager@@SAAAV1@XZ:PROC	; ioSP2GUIManager::GetSingleton
;	COMDAT ??_C@_0BO@OOOJOPIG@CharGameInfoListWnd?3?3iwm_hide?$AA@
CONST	SEGMENT
??_C@_0BO@OOOJOPIG@CharGameInfoListWnd?3?3iwm_hide?$AA@ DB 'CharGameInfoL'
	DB	'istWnd::iwm_hide', 00H			; `string'
CONST	ENDS
;	COMDAT xdata$x
xdata$x	SEGMENT
__unwindtable$?iwm_hide@CharGameInfoListWnd@@UAEXXZ DD 0ffffffffH
	DD	FLAT:__unwindfunclet$?iwm_hide@CharGameInfoListWnd@@UAEXXZ$0
__ehfuncinfo$?iwm_hide@CharGameInfoListWnd@@UAEXXZ DD 019930522H
	DD	01H
	DD	FLAT:__unwindtable$?iwm_hide@CharGameInfoListWnd@@UAEXXZ
	DD	2 DUP(00H)
	DD	2 DUP(00H)
	DD	00H
	DD	01H
; Function compile flags: /Ogsp
xdata$x	ENDS
;	COMDAT ?iwm_hide@CharGameInfoListWnd@@UAEXXZ
_TEXT	SEGMENT
$T537513 = -28						; size = 16
__$EHRec$ = -12						; size = 12
?iwm_hide@CharGameInfoListWnd@@UAEXXZ PROC		; CharGameInfoListWnd::iwm_hide, COMDAT
; _this$ = ecx

; 327  : {

  00000	6a 10		 push	 16			; 00000010H
  00002	b8 00 00 00 00	 mov	 eax, __ehhandler$?iwm_hide@CharGameInfoListWnd@@UAEXXZ
  00007	e8 00 00 00 00	 call	 __EH_prolog3
  0000c	8b d9		 mov	 ebx, ecx

; 328  : 	SingleSettingWnd* pWnd = dynamic_cast<SingleSettingWnd*>( g_GUIMgr.FindWnd( SINGLE_SETTING_WND ) );

  0000e	6a 00		 push	 0
  00010	68 00 00 00 00	 push	 OFFSET ??_R0?AVSingleSettingWnd@@@8
  00015	68 00 00 00 00	 push	 OFFSET ??_R0?AVioWnd@@@8
  0001a	6a 00		 push	 0
  0001c	68 2f 27 00 00	 push	 10031			; 0000272fH
  00021	e8 00 00 00 00	 call	 ?GetSingleton@ioSP2GUIManager@@SAAAV1@XZ ; ioSP2GUIManager::GetSingleton
  00026	8b c8		 mov	 ecx, eax
  00028	ff 15 00 00 00
	00		 call	 DWORD PTR __imp_?FindWnd@ioGUIManager@@QAEPAVioWnd@@K@Z
  0002e	50		 push	 eax
  0002f	e8 00 00 00 00	 call	 ___RTDynamicCast
  00034	8b f8		 mov	 edi, eax
  00036	83 c4 14	 add	 esp, 20			; 00000014H

; 329  : 	if( pWnd )

  00039	85 ff		 test	 edi, edi
  0003b	74 42		 je	 SHORT $LN1@iwm_hide

; 330  : 	{		
; 331  : 		pWnd->ChangeCharacterButtonTitle( STR(1) );

  0003d	6a 00		 push	 0
  0003f	6a 01		 push	 1
  00041	68 00 00 00 00	 push	 OFFSET ??_C@_00CNPNBAHC@?$AA@
  00046	68 00 00 00 00	 push	 OFFSET ??_C@_0BO@OOOJOPIG@CharGameInfoListWnd?3?3iwm_hide?$AA@
  0004b	ff 15 00 00 00
	00		 call	 DWORD PTR __imp_?GetSingleton@ioStringManager@@SAAAV1@XZ
  00051	8b c8		 mov	 ecx, eax
  00053	ff 15 00 00 00
	00		 call	 DWORD PTR __imp_?GetString@ioStringManager@@QAEPADPBD0HW4FileNamePrefix@1@@Z
  00059	50		 push	 eax
  0005a	8d 4d e4	 lea	 ecx, DWORD PTR $T537513[ebp]
  0005d	ff 15 00 00 00
	00		 call	 DWORD PTR __imp_??0ioHashString@@QAE@PBD@Z
  00063	83 65 fc 00	 and	 DWORD PTR __$EHRec$[ebp+8], 0
  00067	8d 45 e4	 lea	 eax, DWORD PTR $T537513[ebp]
  0006a	50		 push	 eax
  0006b	8b cf		 mov	 ecx, edi
  0006d	e8 00 00 00 00	 call	 ?ChangeCharacterButtonTitle@SingleSettingWnd@@QAEXABVioHashString@@@Z ; SingleSettingWnd::ChangeCharacterButtonTitle
  00072	83 4d fc ff	 or	 DWORD PTR __$EHRec$[ebp+8], -1
  00076	8d 4d e4	 lea	 ecx, DWORD PTR $T537513[ebp]
  00079	ff 15 00 00 00
	00		 call	 DWORD PTR __imp_??1ioHashString@@QAE@XZ
$LN1@iwm_hide:

; 332  : 	}
; 333  : 	DisableEditFocus();

  0007f	8b cb		 mov	 ecx, ebx
  00081	e8 00 00 00 00	 call	 ?DisableEditFocus@CharGameInfoListWnd@@QAEXXZ ; CharGameInfoListWnd::DisableEditFocus

; 334  : }

  00086	e8 00 00 00 00	 call	 __EH_epilog3
  0008b	c3		 ret	 0
_TEXT	ENDS
;	COMDAT text$x
text$x	SEGMENT
__unwindfunclet$?iwm_hide@CharGameInfoListWnd@@UAEXXZ$0:
  00000	8d 4d e4	 lea	 ecx, DWORD PTR $T537513[ebp]
  00003	ff 25 00 00 00
	00		 jmp	 DWORD PTR __imp_??1ioHashString@@QAE@XZ
__ehhandler$?iwm_hide@CharGameInfoListWnd@@UAEXXZ:
  00009	8b 54 24 08	 mov	 edx, DWORD PTR [esp+8]
  0000d	8d 42 0c	 lea	 eax, DWORD PTR [edx+12]
  00010	8b 4a e0	 mov	 ecx, DWORD PTR [edx-32]
  00013	33 c8		 xor	 ecx, eax
  00015	e8 00 00 00 00	 call	 @__security_check_cookie@4
  0001a	b8 00 00 00 00	 mov	 eax, OFFSET __ehfuncinfo$?iwm_hide@CharGameInfoListWnd@@UAEXXZ
  0001f	e9 00 00 00 00	 jmp	 ___CxxFrameHandler3
text$x	ENDS
?iwm_hide@CharGameInfoListWnd@@UAEXXZ ENDP		; CharGameInfoListWnd::iwm_hide
PUBLIC	??_C@_0BP@OIKNACFP@CharGameInfoListWnd?3?3EquipItem?$AA@ ; `string'
PUBLIC	_this$GSCopy$
PUBLIC	__$ArrayPad$
PUBLIC	?EquipItem@CharGameInfoListWnd@@QAEXK@Z		; CharGameInfoListWnd::EquipItem
EXTRN	?EquipItem@ioBaseChar@@QAEPAVioItem@@PAV2@_N@Z:PROC ; ioBaseChar::EquipItem
EXTRN	?ReLoadProperty@ioItem@@QAEXXZ:PROC		; ioItem::ReLoadProperty
EXTRN	?CreateItem@ioPlayStage@@QAEPAVioItem@@K@Z:PROC	; ioPlayStage::CreateItem
EXTRN	?GetBaseChar@ioPlayStage@@QAEPAVioBaseChar@@ABVioHashString@@@Z:PROC ; ioPlayStage::GetBaseChar
EXTRN	?IsItem@ioItemMaker@@QAE_NK@Z:PROC		; ioItemMaker::IsItem
EXTRN	?GetSingleton@ioItemMaker@@SAAAV1@XZ:PROC	; ioItemMaker::GetSingleton
EXTRN	__imp__atoi:PROC
EXTRN	__imp_?SetText@ioEdit@@QAEXPBD@Z:PROC
EXTRN	__imp__wsprintfA:PROC
EXTRN	?SetMsgBox@ioSP2GUIManager@@QAAXHPAVioWnd@@PBDZZ:PROC ; ioSP2GUIManager::SetMsgBox
EXTRN	__imp_?GetText@ioEdit@@QBEPBDXZ:PROC
EXTRN	___security_cookie:DWORD
;	COMDAT ??_C@_0BP@OIKNACFP@CharGameInfoListWnd?3?3EquipItem?$AA@
; File d:\lost saga for developer\youtube\tutorial\source\src\lsclient\stringprotect.h
CONST	SEGMENT
??_C@_0BP@OIKNACFP@CharGameInfoListWnd?3?3EquipItem?$AA@ DB 'CharGameInfo'
	DB	'ListWnd::EquipItem', 00H			; `string'
; Function compile flags: /Ogsp
; File d:\lost saga for developer\youtube\tutorial\source\src\lsclient\gui\debuginfownd.cpp
CONST	ENDS
;	COMDAT ?EquipItem@CharGameInfoListWnd@@QAEXK@Z
_TEXT	SEGMENT
_eSlot$534334 = -292					; size = 4
_pItem$534492 = -288					; size = 4
_nCode$534489 = -288					; size = 4
_pStage$ = -284						; size = 4
_this$GSCopy$ = -280					; size = 4
_pEdit$ = -276						; size = 4
___encStr$534656 = -272					; size = 3
___encStr$534504 = -272					; size = 3
_pChar$534491 = -272					; size = 4
tv93 = -272						; size = 4
___encStr$534340 = -272					; size = 3
_szBuf$ = -264						; size = 260
__$ArrayPad$ = -4					; size = 4
_dwID$ = 8						; size = 4
?EquipItem@CharGameInfoListWnd@@QAEXK@Z PROC		; CharGameInfoListWnd::EquipItem, COMDAT
; _this$ = ecx

; 444  : {

  00000	55		 push	 ebp
  00001	8b ec		 mov	 ebp, esp
  00003	81 ec 24 01 00
	00		 sub	 esp, 292		; 00000124H
  00009	a1 00 00 00 00	 mov	 eax, DWORD PTR ___security_cookie
  0000e	33 c5		 xor	 eax, ebp
  00010	89 45 fc	 mov	 DWORD PTR __$ArrayPad$[ebp], eax
  00013	56		 push	 esi
  00014	8b 75 08	 mov	 esi, DWORD PTR _dwID$[ebp]
  00017	89 8d e8 fe ff
	ff		 mov	 DWORD PTR _this$GSCopy$[ebp], ecx

; 445  : 	ioPlayStage* pStage = g_GUIMgr.GetPlayStage();

  0001d	e8 00 00 00 00	 call	 ?GetSingleton@ioSP2GUIManager@@SAAAV1@XZ ; ioSP2GUIManager::GetSingleton
  00022	8b 80 e8 04 00
	00		 mov	 eax, DWORD PTR [eax+1256]
  00028	89 85 e4 fe ff
	ff		 mov	 DWORD PTR _pStage$[ebp], eax

; 446  : 	if( pStage == NULL )

  0002e	85 c0		 test	 eax, eax
  00030	0f 84 27 03 00
	00		 je	 $LN100@EquipItem

; 447  : 		return;
; 448  : 
; 449  : 	char szBuf[MAX_PATH];
; 450  : 	ioEdit* pEdit = dynamic_cast<ioEdit*>( FindChildWnd( dwID ) );

  00036	8b 8d e8 fe ff
	ff		 mov	 ecx, DWORD PTR _this$GSCopy$[ebp]
  0003c	6a 00		 push	 0
  0003e	68 00 00 00 00	 push	 OFFSET ??_R0?AVioEdit@@@8
  00043	68 00 00 00 00	 push	 OFFSET ??_R0?AVioWnd@@@8
  00048	6a 00		 push	 0
  0004a	56		 push	 esi
  0004b	ff 15 00 00 00
	00		 call	 DWORD PTR __imp_?FindChildWnd@ioWnd@@QAEPAV1@K@Z
  00051	50		 push	 eax
  00052	e8 00 00 00 00	 call	 ___RTDynamicCast
  00057	8b f0		 mov	 esi, eax
  00059	83 c4 14	 add	 esp, 20			; 00000014H
  0005c	89 b5 ec fe ff
	ff		 mov	 DWORD PTR _pEdit$[ebp], esi

; 451  : 	if( pEdit )

  00062	85 f6		 test	 esi, esi
  00064	0f 84 f3 02 00
	00		 je	 $LN100@EquipItem

; 452  : 	{
; 453  : 		int eSlot = pEdit->GetID() - ID_WEAPON_EDIT;

  0006a	8b ce		 mov	 ecx, esi
  0006c	ff 15 00 00 00
	00		 call	 DWORD PTR __imp_?GetID@ioWnd@@QBEKXZ
  00072	83 e8 65	 sub	 eax, 101		; 00000065H

; 454  : 		if( strlen( pEdit->GetText() ) <= 0 )

  00075	8b ce		 mov	 ecx, esi
  00077	89 85 dc fe ff
	ff		 mov	 DWORD PTR _eSlot$534334[ebp], eax
  0007d	ff 15 00 00 00
	00		 call	 DWORD PTR __imp_?GetText@ioEdit@@QBEPBDXZ
  00083	8d 48 01	 lea	 ecx, DWORD PTR [eax+1]
$LL356@EquipItem:
  00086	8a 10		 mov	 dl, BYTE PTR [eax]
  00088	40		 inc	 eax
  00089	84 d2		 test	 dl, dl
  0008b	75 f9		 jne	 SHORT $LL356@EquipItem
  0008d	2b c1		 sub	 eax, ecx
  0008f	8b 35 00 00 00
	00		 mov	 esi, DWORD PTR __imp_?GetString@ioStringManager@@QAEPADPBD0HW4FileNamePrefix@1@@Z
  00095	53		 push	 ebx
  00096	57		 push	 edi
  00097	8b 3d 00 00 00
	00		 mov	 edi, DWORD PTR __imp_?GetSingleton@ioStringManager@@SAAAV1@XZ
  0009d	bb 00 00 00 00	 mov	 ebx, OFFSET ??_C@_0BP@OIKNACFP@CharGameInfoListWnd?3?3EquipItem?$AA@
  000a2	0f 85 92 00 00
	00		 jne	 $LN305@EquipItem

; 455  : 		{
; 456  : 			g_GUIMgr.SetMsgBox( MB_OK, NULL, STR(1) );

  000a8	6a 00		 push	 0
  000aa	6a 01		 push	 1
  000ac	68 00 00 00 00	 push	 OFFSET ??_C@_00CNPNBAHC@?$AA@
  000b1	53		 push	 ebx
  000b2	ff d7		 call	 edi
  000b4	8b c8		 mov	 ecx, eax
  000b6	ff d6		 call	 esi
  000b8	50		 push	 eax
  000b9	6a 00		 push	 0
  000bb	6a 00		 push	 0
  000bd	e8 00 00 00 00	 call	 ?GetSingleton@ioSP2GUIManager@@SAAAV1@XZ ; ioSP2GUIManager::GetSingleton
  000c2	50		 push	 eax
  000c3	e8 00 00 00 00	 call	 ?SetMsgBox@ioSP2GUIManager@@QAAXHPAVioWnd@@PBDZZ ; ioSP2GUIManager::SetMsgBox
  000c8	83 c4 10	 add	 esp, 16			; 00000010H

; 457  : 			wsprintf_e( szBuf, "%d", m_CharStateInfo.iSlot[eSlot] );

  000cb	66 c7 85 f0 fe
	ff ff c8 88	 mov	 WORD PTR ___encStr$534340[ebp], 35016 ; 000088c8H
  000d4	c6 85 f2 fe ff
	ff 00		 mov	 BYTE PTR ___encStr$534340[ebp+2], 0
  000db	33 c0		 xor	 eax, eax
$LL316@EquipItem:
  000dd	8b c8		 mov	 ecx, eax
  000df	81 e1 03 00 00
	80		 and	 ecx, -2147483645	; 80000003H
  000e5	79 05		 jns	 SHORT $LN359@EquipItem
  000e7	49		 dec	 ecx
  000e8	83 c9 fc	 or	 ecx, -4			; fffffffcH
  000eb	41		 inc	 ecx
$LN359@EquipItem:
  000ec	b2 ed		 mov	 dl, -19			; ffffffedH
  000ee	2a d1		 sub	 dl, cl
  000f0	30 94 05 f0 fe
	ff ff		 xor	 BYTE PTR ___encStr$534340[ebp+eax], dl
  000f7	40		 inc	 eax
  000f8	83 f8 02	 cmp	 eax, 2
  000fb	7c e0		 jl	 SHORT $LL316@EquipItem
  000fd	8b 85 e8 fe ff
	ff		 mov	 eax, DWORD PTR _this$GSCopy$[ebp]
  00103	8b 8d dc fe ff
	ff		 mov	 ecx, DWORD PTR _eSlot$534334[ebp]
  00109	ff b4 88 70 01
	00 00		 push	 DWORD PTR [eax+ecx*4+368]
  00110	8d 85 f0 fe ff
	ff		 lea	 eax, DWORD PTR ___encStr$534340[ebp]
  00116	50		 push	 eax
  00117	8d 85 f8 fe ff
	ff		 lea	 eax, DWORD PTR _szBuf$[ebp]
  0011d	50		 push	 eax
  0011e	ff 15 00 00 00
	00		 call	 DWORD PTR __imp__wsprintfA

; 458  : 			pEdit->SetText( szBuf );

  00124	8b 8d ec fe ff
	ff		 mov	 ecx, DWORD PTR _pEdit$[ebp]
  0012a	83 c4 0c	 add	 esp, 12			; 0000000cH
  0012d	8d 85 f8 fe ff
	ff		 lea	 eax, DWORD PTR _szBuf$[ebp]
  00133	50		 push	 eax
  00134	ff 15 00 00 00
	00		 call	 DWORD PTR __imp_?SetText@ioEdit@@QAEXPBD@Z
$LN305@EquipItem:

; 459  : 		}
; 460  : 
; 461  : 		int nCode = atoi( pEdit->GetText() );

  0013a	8b 8d ec fe ff
	ff		 mov	 ecx, DWORD PTR _pEdit$[ebp]
  00140	ff 15 00 00 00
	00		 call	 DWORD PTR __imp_?GetText@ioEdit@@QBEPBDXZ
  00146	50		 push	 eax
  00147	ff 15 00 00 00
	00		 call	 DWORD PTR __imp__atoi
  0014d	59		 pop	 ecx

; 462  : 		if( g_ItemMaker.IsItem( nCode ) )

  0014e	50		 push	 eax
  0014f	89 85 e0 fe ff
	ff		 mov	 DWORD PTR _nCode$534489[ebp], eax
  00155	e8 00 00 00 00	 call	 ?GetSingleton@ioItemMaker@@SAAAV1@XZ ; ioItemMaker::GetSingleton
  0015a	8b c8		 mov	 ecx, eax
  0015c	e8 00 00 00 00	 call	 ?IsItem@ioItemMaker@@QAE_NK@Z ; ioItemMaker::IsItem
  00161	84 c0		 test	 al, al
  00163	0f 84 5d 01 00
	00		 je	 $LN99@EquipItem

; 463  : 		{
; 464  : 			ioBaseChar* pChar = pStage->GetBaseChar( m_CharStateInfo.szName );					

  00169	8b 85 e8 fe ff
	ff		 mov	 eax, DWORD PTR _this$GSCopy$[ebp]
  0016f	8b 8d e4 fe ff
	ff		 mov	 ecx, DWORD PTR _pStage$[ebp]
  00175	05 60 01 00 00	 add	 eax, 352		; 00000160H
  0017a	50		 push	 eax
  0017b	e8 00 00 00 00	 call	 ?GetBaseChar@ioPlayStage@@QAEPAVioBaseChar@@ABVioHashString@@@Z ; ioPlayStage::GetBaseChar

; 465  : 			ioItem *pItem = pStage->CreateItem( nCode );

  00180	ff b5 e0 fe ff
	ff		 push	 DWORD PTR _nCode$534489[ebp]
  00186	8b 8d e4 fe ff
	ff		 mov	 ecx, DWORD PTR _pStage$[ebp]
  0018c	89 85 f0 fe ff
	ff		 mov	 DWORD PTR _pChar$534491[ebp], eax
  00192	e8 00 00 00 00	 call	 ?CreateItem@ioPlayStage@@QAEPAVioItem@@K@Z ; ioPlayStage::CreateItem
  00197	89 85 e0 fe ff
	ff		 mov	 DWORD PTR _pItem$534492[ebp], eax

; 466  : 			if( pItem )

  0019d	85 c0		 test	 eax, eax
  0019f	0f 84 87 00 00
	00		 je	 $LN204@EquipItem

; 467  : 			{
; 468  : 				if( pItem->GetType() == eSlot + 1 )

  001a5	8b 10		 mov	 edx, DWORD PTR [eax]
  001a7	8b c8		 mov	 ecx, eax
  001a9	ff 52 08	 call	 DWORD PTR [edx+8]
  001ac	8b 8d dc fe ff
	ff		 mov	 ecx, DWORD PTR _eSlot$534334[ebp]
  001b2	41		 inc	 ecx
  001b3	3b c1		 cmp	 eax, ecx
  001b5	75 6c		 jne	 SHORT $LN203@EquipItem

; 469  : 				{
; 470  : 					pItem->ReLoadProperty();

  001b7	8b b5 e0 fe ff
	ff		 mov	 esi, DWORD PTR _pItem$534492[ebp]
  001bd	8b ce		 mov	 ecx, esi
  001bf	e8 00 00 00 00	 call	 ?ReLoadProperty@ioItem@@QAEXXZ ; ioItem::ReLoadProperty

; 471  : 					pItem->SetOwnerName( pChar->GetCharName() );

  001c4	8b 9d f0 fe ff
	ff		 mov	 ebx, DWORD PTR _pChar$534491[ebp]
  001ca	8d bb d4 02 00
	00		 lea	 edi, DWORD PTR [ebx+724]
  001d0	57		 push	 edi
  001d1	8d 8e 64 02 00
	00		 lea	 ecx, DWORD PTR [esi+612]
  001d7	ff 15 00 00 00
	00		 call	 DWORD PTR __imp_??4ioHashString@@QAEAAV0@ABV0@@Z

; 472  : 					ioItem* pDeleteItem = pChar->EquipItem( pItem );

  001dd	6a 00		 push	 0
  001df	56		 push	 esi
  001e0	8b cb		 mov	 ecx, ebx
  001e2	e8 00 00 00 00	 call	 ?EquipItem@ioBaseChar@@QAEPAVioItem@@PAV2@_N@Z ; ioBaseChar::EquipItem

; 473  : 					if( pDeleteItem )

  001e7	85 c0		 test	 eax, eax
  001e9	74 0c		 je	 SHORT $LN310@EquipItem

; 474  : 						delete pDeleteItem;

  001eb	8b 10		 mov	 edx, DWORD PTR [eax]
  001ed	6a 01		 push	 1
  001ef	8b c8		 mov	 ecx, eax
  001f1	ff 92 b4 00 00
	00		 call	 DWORD PTR [edx+180]
$LN310@EquipItem:

; 475  : 					pItem->Initialize( pChar->GetCharName(), pStage );

  001f7	ff b5 e4 fe ff
	ff		 push	 DWORD PTR _pStage$[ebp]
  001fd	8b 06		 mov	 eax, DWORD PTR [esi]
  001ff	57		 push	 edi
  00200	8b ce		 mov	 ecx, esi
  00202	ff 50 18	 call	 DWORD PTR [eax+24]

; 476  : 
; 477  : 					pEdit->KillKeyFocus();

  00205	8b 8d ec fe ff
	ff		 mov	 ecx, DWORD PTR _pEdit$[ebp]
  0020b	8b 01		 mov	 eax, DWORD PTR [ecx]
  0020d	ff 90 34 01 00
	00		 call	 DWORD PTR [eax+308]

; 478  : 					DisableEditFocus();

  00213	8b 8d e8 fe ff
	ff		 mov	 ecx, DWORD PTR _this$GSCopy$[ebp]
  00219	e8 00 00 00 00	 call	 ?DisableEditFocus@CharGameInfoListWnd@@QAEXXZ ; CharGameInfoListWnd::DisableEditFocus

; 479  : 				}
; 480  : 				else

  0021e	e9 38 01 00 00	 jmp	 $LN357@EquipItem
$LN203@EquipItem:

; 481  : 				{
; 482  : 					g_GUIMgr.SetMsgBox( MB_OK, NULL, STR(2) );

  00223	6a 00		 push	 0
  00225	6a 02		 push	 2

; 483  : 				}
; 484  : 			}
; 485  : 			else

  00227	e9 10 01 00 00	 jmp	 $LN362@EquipItem
$LN204@EquipItem:

; 486  : 			{
; 487  : 				g_GUIMgr.SetMsgBox( MB_OK, NULL, STR(3) );

  0022c	6a 00		 push	 0
  0022e	6a 03		 push	 3
  00230	68 00 00 00 00	 push	 OFFSET ??_C@_00CNPNBAHC@?$AA@
  00235	53		 push	 ebx
  00236	ff d7		 call	 edi
  00238	8b c8		 mov	 ecx, eax
  0023a	ff d6		 call	 esi
  0023c	50		 push	 eax
  0023d	6a 00		 push	 0
  0023f	6a 00		 push	 0
  00241	e8 00 00 00 00	 call	 ?GetSingleton@ioSP2GUIManager@@SAAAV1@XZ ; ioSP2GUIManager::GetSingleton
  00246	50		 push	 eax
  00247	e8 00 00 00 00	 call	 ?SetMsgBox@ioSP2GUIManager@@QAAXHPAVioWnd@@PBDZZ ; ioSP2GUIManager::SetMsgBox
  0024c	83 c4 10	 add	 esp, 16			; 00000010H

; 488  : 				wsprintf_e( szBuf, "%d", m_CharStateInfo.iSlot[pEdit->GetID() - ID_WEAPON_EDIT] );

  0024f	66 c7 85 f0 fe
	ff ff c8 88	 mov	 WORD PTR ___encStr$534504[ebp], 35016 ; 000088c8H
  00258	c6 85 f2 fe ff
	ff 00		 mov	 BYTE PTR ___encStr$534504[ebp+2], 0
  0025f	33 c0		 xor	 eax, eax
$LL330@EquipItem:
  00261	8b c8		 mov	 ecx, eax
  00263	81 e1 03 00 00
	80		 and	 ecx, -2147483645	; 80000003H
  00269	79 05		 jns	 SHORT $LN360@EquipItem
  0026b	49		 dec	 ecx
  0026c	83 c9 fc	 or	 ecx, -4			; fffffffcH
  0026f	41		 inc	 ecx
$LN360@EquipItem:
  00270	b2 ed		 mov	 dl, -19			; ffffffedH
  00272	2a d1		 sub	 dl, cl
  00274	30 94 05 f0 fe
	ff ff		 xor	 BYTE PTR ___encStr$534504[ebp+eax], dl
  0027b	40		 inc	 eax
  0027c	83 f8 02	 cmp	 eax, 2
  0027f	7c e0		 jl	 SHORT $LL330@EquipItem
  00281	8b 8d ec fe ff
	ff		 mov	 ecx, DWORD PTR _pEdit$[ebp]
  00287	ff 15 00 00 00
	00		 call	 DWORD PTR __imp_?GetID@ioWnd@@QBEKXZ
  0028d	8b 8d e8 fe ff
	ff		 mov	 ecx, DWORD PTR _this$GSCopy$[ebp]
  00293	ff 74 81 dc	 push	 DWORD PTR [ecx+eax*4-36]
  00297	8d 85 f0 fe ff
	ff		 lea	 eax, DWORD PTR ___encStr$534504[ebp]
  0029d	50		 push	 eax
  0029e	8d 85 f8 fe ff
	ff		 lea	 eax, DWORD PTR _szBuf$[ebp]
  002a4	50		 push	 eax
  002a5	ff 15 00 00 00
	00		 call	 DWORD PTR __imp__wsprintfA

; 489  : 				pEdit->SetText( szBuf );

  002ab	8b 8d ec fe ff
	ff		 mov	 ecx, DWORD PTR _pEdit$[ebp]
  002b1	83 c4 0c	 add	 esp, 12			; 0000000cH
  002b4	8d 85 f8 fe ff
	ff		 lea	 eax, DWORD PTR _szBuf$[ebp]
  002ba	50		 push	 eax
  002bb	ff 15 00 00 00
	00		 call	 DWORD PTR __imp_?SetText@ioEdit@@QAEXPBD@Z

; 490  : 			}
; 491  : 		}
; 492  : 		else

  002c1	e9 95 00 00 00	 jmp	 $LN357@EquipItem
$LN99@EquipItem:

; 493  : 		{
; 494  : 			wsprintf_e( szBuf, "%d", m_CharStateInfo.iSlot[pEdit->GetID() - ID_WEAPON_EDIT] );

  002c6	66 c7 85 f0 fe
	ff ff c8 88	 mov	 WORD PTR ___encStr$534656[ebp], 35016 ; 000088c8H
  002cf	c6 85 f2 fe ff
	ff 00		 mov	 BYTE PTR ___encStr$534656[ebp+2], 0
  002d6	33 c0		 xor	 eax, eax
$LL338@EquipItem:
  002d8	8b c8		 mov	 ecx, eax
  002da	81 e1 03 00 00
	80		 and	 ecx, -2147483645	; 80000003H
  002e0	79 05		 jns	 SHORT $LN361@EquipItem
  002e2	49		 dec	 ecx
  002e3	83 c9 fc	 or	 ecx, -4			; fffffffcH
  002e6	41		 inc	 ecx
$LN361@EquipItem:
  002e7	b2 ed		 mov	 dl, -19			; ffffffedH
  002e9	2a d1		 sub	 dl, cl
  002eb	30 94 05 f0 fe
	ff ff		 xor	 BYTE PTR ___encStr$534656[ebp+eax], dl
  002f2	40		 inc	 eax
  002f3	83 f8 02	 cmp	 eax, 2
  002f6	7c e0		 jl	 SHORT $LL338@EquipItem
  002f8	8b 8d ec fe ff
	ff		 mov	 ecx, DWORD PTR _pEdit$[ebp]
  002fe	ff 15 00 00 00
	00		 call	 DWORD PTR __imp_?GetID@ioWnd@@QBEKXZ
  00304	8b 8d e8 fe ff
	ff		 mov	 ecx, DWORD PTR _this$GSCopy$[ebp]
  0030a	ff 74 81 dc	 push	 DWORD PTR [ecx+eax*4-36]
  0030e	8d 85 f0 fe ff
	ff		 lea	 eax, DWORD PTR ___encStr$534656[ebp]
  00314	50		 push	 eax
  00315	8d 85 f8 fe ff
	ff		 lea	 eax, DWORD PTR _szBuf$[ebp]
  0031b	50		 push	 eax
  0031c	ff 15 00 00 00
	00		 call	 DWORD PTR __imp__wsprintfA

; 495  : 			pEdit->SetText( szBuf );

  00322	8b 8d ec fe ff
	ff		 mov	 ecx, DWORD PTR _pEdit$[ebp]
  00328	83 c4 0c	 add	 esp, 12			; 0000000cH
  0032b	8d 85 f8 fe ff
	ff		 lea	 eax, DWORD PTR _szBuf$[ebp]
  00331	50		 push	 eax
  00332	ff 15 00 00 00
	00		 call	 DWORD PTR __imp_?SetText@ioEdit@@QAEXPBD@Z

; 496  : 			g_GUIMgr.SetMsgBox( MB_OK, NULL, STR(4) );

  00338	6a 00		 push	 0
  0033a	6a 04		 push	 4
$LN362@EquipItem:
  0033c	68 00 00 00 00	 push	 OFFSET ??_C@_00CNPNBAHC@?$AA@
  00341	53		 push	 ebx
  00342	ff d7		 call	 edi
  00344	8b c8		 mov	 ecx, eax
  00346	ff d6		 call	 esi
  00348	50		 push	 eax
  00349	6a 00		 push	 0
  0034b	6a 00		 push	 0
  0034d	e8 00 00 00 00	 call	 ?GetSingleton@ioSP2GUIManager@@SAAAV1@XZ ; ioSP2GUIManager::GetSingleton
  00352	50		 push	 eax
  00353	e8 00 00 00 00	 call	 ?SetMsgBox@ioSP2GUIManager@@QAAXHPAVioWnd@@PBDZZ ; ioSP2GUIManager::SetMsgBox
  00358	83 c4 10	 add	 esp, 16			; 00000010H
$LN357@EquipItem:
  0035b	5f		 pop	 edi
  0035c	5b		 pop	 ebx
$LN100@EquipItem:

; 497  : 		}
; 498  : 	}
; 499  : }

  0035d	8b 4d fc	 mov	 ecx, DWORD PTR __$ArrayPad$[ebp]
  00360	33 cd		 xor	 ecx, ebp
  00362	5e		 pop	 esi
  00363	e8 00 00 00 00	 call	 @__security_check_cookie@4
  00368	c9		 leave
  00369	c2 04 00	 ret	 4
?EquipItem@CharGameInfoListWnd@@QAEXK@Z ENDP		; CharGameInfoListWnd::EquipItem
; Function compile flags: /Ogsp
_TEXT	ENDS
;	COMDAT ??_GSingleSettingWnd@@UAEPAXI@Z
_TEXT	SEGMENT
___flags$ = 8						; size = 4
??_GSingleSettingWnd@@UAEPAXI@Z PROC			; SingleSettingWnd::`scalar deleting destructor', COMDAT
; _this$ = ecx
  00000	55		 push	 ebp
  00001	8b ec		 mov	 ebp, esp
  00003	56		 push	 esi
  00004	8b f1		 mov	 esi, ecx
  00006	e8 00 00 00 00	 call	 ??1SingleSettingWnd@@UAE@XZ ; SingleSettingWnd::~SingleSettingWnd
  0000b	f6 45 08 01	 test	 BYTE PTR ___flags$[ebp], 1
  0000f	74 07		 je	 SHORT $LN1@scalar@7
  00011	56		 push	 esi
  00012	e8 00 00 00 00	 call	 ??3@YAXPAX@Z		; operator delete
  00017	59		 pop	 ecx
$LN1@scalar@7:
  00018	8b c6		 mov	 eax, esi
  0001a	5e		 pop	 esi
  0001b	5d		 pop	 ebp
  0001c	c2 04 00	 ret	 4
??_GSingleSettingWnd@@UAEPAXI@Z ENDP			; SingleSettingWnd::`scalar deleting destructor'
; Function compile flags: /Ogsp
_TEXT	ENDS
;	COMDAT ?iwm_hide@SingleSettingWnd@@UAEXXZ
_TEXT	SEGMENT
?iwm_hide@SingleSettingWnd@@UAEXXZ PROC			; SingleSettingWnd::iwm_hide, COMDAT
; _this$ = ecx

; 655  : 	Setting::SetSWndBoundary( false );

  00000	c6 05 72 00 00
	00 00		 mov	 BYTE PTR ?m_Option@Setting@@1USettingOption@@A+114, 0

; 656  : }

  00007	c3		 ret	 0
?iwm_hide@SingleSettingWnd@@UAEXXZ ENDP			; SingleSettingWnd::iwm_hide
_TEXT	ENDS
PUBLIC	??_R0?AVioCheckButton@@@8			; ioCheckButton `RTTI Type Descriptor'
PUBLIC	?UpdateCheckBox@SingleSettingWnd@@IAEXXZ	; SingleSettingWnd::UpdateCheckBox
EXTRN	__imp_?SetCheck@ioCheckButton@@QAEX_N@Z:PROC
;	COMDAT ??_R0?AVioCheckButton@@@8
; File d:\lost saga for developer\youtube\tutorial\source\src\lsclient\setting.h
_DATA	SEGMENT
??_R0?AVioCheckButton@@@8 DD FLAT:??_7type_info@@6B@	; ioCheckButton `RTTI Type Descriptor'
	DD	00H
	DB	'.?AVioCheckButton@@', 00H
; Function compile flags: /Ogsp
; File d:\lost saga for developer\youtube\tutorial\source\src\lsclient\gui\debuginfownd.cpp
_DATA	ENDS
;	COMDAT ?UpdateCheckBox@SingleSettingWnd@@IAEXXZ
_TEXT	SEGMENT
_this$ = -4						; size = 4
?UpdateCheckBox@SingleSettingWnd@@IAEXXZ PROC		; SingleSettingWnd::UpdateCheckBox, COMDAT
; _this$ = ecx

; 671  : {

  00000	55		 push	 ebp
  00001	8b ec		 mov	 ebp, esp
  00003	51		 push	 ecx
  00004	53		 push	 ebx
  00005	56		 push	 esi

; 672  : 	ioCheckButton* pBoundButton = dynamic_cast<ioCheckButton*>( FindChildWnd( ID_BOUND ) );

  00006	8b 35 00 00 00
	00		 mov	 esi, DWORD PTR __imp_?FindChildWnd@ioWnd@@QAEPAV1@K@Z
  0000c	57		 push	 edi
  0000d	6a 00		 push	 0
  0000f	bb 00 00 00 00	 mov	 ebx, OFFSET ??_R0?AVioCheckButton@@@8
  00014	53		 push	 ebx
  00015	bf 00 00 00 00	 mov	 edi, OFFSET ??_R0?AVioWnd@@@8
  0001a	57		 push	 edi
  0001b	6a 00		 push	 0
  0001d	6a 02		 push	 2
  0001f	89 4d fc	 mov	 DWORD PTR _this$[ebp], ecx
  00022	ff d6		 call	 esi
  00024	50		 push	 eax
  00025	e8 00 00 00 00	 call	 ___RTDynamicCast
  0002a	83 c4 14	 add	 esp, 20			; 00000014H

; 673  : 	if( pBoundButton )

  0002d	85 c0		 test	 eax, eax
  0002f	74 10		 je	 SHORT $LN4@UpdateChec

; 674  : 		pBoundButton->SetCheck( Setting::ShowBoundBox() );

  00031	0f b6 0d 6e 00
	00 00		 movzx	 ecx, BYTE PTR ?m_Option@Setting@@1USettingOption@@A+110
  00038	51		 push	 ecx
  00039	8b c8		 mov	 ecx, eax
  0003b	ff 15 00 00 00
	00		 call	 DWORD PTR __imp_?SetCheck@ioCheckButton@@QAEX_N@Z
$LN4@UpdateChec:

; 675  : 
; 676  : 	ioCheckButton* pSphereButton = dynamic_cast<ioCheckButton*>( FindChildWnd( ID_SPHERE ) );

  00041	8b 4d fc	 mov	 ecx, DWORD PTR _this$[ebp]
  00044	6a 00		 push	 0
  00046	53		 push	 ebx
  00047	57		 push	 edi
  00048	6a 00		 push	 0
  0004a	6a 09		 push	 9
  0004c	ff d6		 call	 esi
  0004e	50		 push	 eax
  0004f	e8 00 00 00 00	 call	 ___RTDynamicCast
  00054	83 c4 14	 add	 esp, 20			; 00000014H

; 677  : 	if( pSphereButton )

  00057	85 c0		 test	 eax, eax
  00059	74 10		 je	 SHORT $LN3@UpdateChec

; 678  : 		pSphereButton->SetCheck( Setting::ShowBoundSphere() );

  0005b	0f b6 0d 6f 00
	00 00		 movzx	 ecx, BYTE PTR ?m_Option@Setting@@1USettingOption@@A+111
  00062	51		 push	 ecx
  00063	8b c8		 mov	 ecx, eax
  00065	ff 15 00 00 00
	00		 call	 DWORD PTR __imp_?SetCheck@ioCheckButton@@QAEX_N@Z
$LN3@UpdateChec:

; 679  : 	
; 680  : 	ioCheckButton* pExtraButton = dynamic_cast<ioCheckButton*>( FindChildWnd( ID_EXTRA ) );

  0006b	8b 4d fc	 mov	 ecx, DWORD PTR _this$[ebp]
  0006e	6a 00		 push	 0
  00070	53		 push	 ebx
  00071	57		 push	 edi
  00072	6a 00		 push	 0
  00074	6a 03		 push	 3
  00076	ff d6		 call	 esi
  00078	50		 push	 eax
  00079	e8 00 00 00 00	 call	 ___RTDynamicCast
  0007e	83 c4 14	 add	 esp, 20			; 00000014H

; 681  : 	if( pExtraButton )

  00081	85 c0		 test	 eax, eax
  00083	74 10		 je	 SHORT $LN2@UpdateChec

; 682  : 		pExtraButton->SetCheck( Setting::ShowExtraInfo() );

  00085	0f b6 0d 70 00
	00 00		 movzx	 ecx, BYTE PTR ?m_Option@Setting@@1USettingOption@@A+112
  0008c	51		 push	 ecx
  0008d	8b c8		 mov	 ecx, eax
  0008f	ff 15 00 00 00
	00		 call	 DWORD PTR __imp_?SetCheck@ioCheckButton@@QAEX_N@Z
$LN2@UpdateChec:

; 683  : 
; 684  : 	ioCheckButton* pMemButton = dynamic_cast<ioCheckButton*>( FindChildWnd( ID_MEMORY ) );

  00095	8b 4d fc	 mov	 ecx, DWORD PTR _this$[ebp]
  00098	6a 00		 push	 0
  0009a	53		 push	 ebx
  0009b	57		 push	 edi
  0009c	6a 00		 push	 0
  0009e	6a 04		 push	 4
  000a0	ff d6		 call	 esi
  000a2	50		 push	 eax
  000a3	e8 00 00 00 00	 call	 ___RTDynamicCast
  000a8	83 c4 14	 add	 esp, 20			; 00000014H
  000ab	5f		 pop	 edi
  000ac	5e		 pop	 esi
  000ad	5b		 pop	 ebx

; 685  : 	if( pMemButton )

  000ae	85 c0		 test	 eax, eax
  000b0	74 10		 je	 SHORT $LN1@UpdateChec

; 686  : 		pMemButton->SetCheck( Setting::ShowMemoryUsage() );

  000b2	0f b6 0d 71 00
	00 00		 movzx	 ecx, BYTE PTR ?m_Option@Setting@@1USettingOption@@A+113
  000b9	51		 push	 ecx
  000ba	8b c8		 mov	 ecx, eax
  000bc	ff 15 00 00 00
	00		 call	 DWORD PTR __imp_?SetCheck@ioCheckButton@@QAEX_N@Z
$LN1@UpdateChec:

; 687  : }

  000c2	c9		 leave
  000c3	c3		 ret	 0
?UpdateCheckBox@SingleSettingWnd@@IAEXXZ ENDP		; SingleSettingWnd::UpdateCheckBox
_TEXT	ENDS
PUBLIC	?UpdateMemButtonDsiable@SingleSettingWnd@@IAEXXZ ; SingleSettingWnd::UpdateMemButtonDsiable
EXTRN	__imp_?SetChildWndStyleAdd@ioWnd@@QAEXKK@Z:PROC
EXTRN	__imp_?IsChecked@ioCheckButton@@QBE_NXZ:PROC
EXTRN	__imp_?SetChildWndStyleRemove@ioWnd@@QAEXKK@Z:PROC
; Function compile flags: /Ogsp
;	COMDAT ?UpdateMemButtonDsiable@SingleSettingWnd@@IAEXXZ
_TEXT	SEGMENT
_this$ = -4						; size = 4
?UpdateMemButtonDsiable@SingleSettingWnd@@IAEXXZ PROC	; SingleSettingWnd::UpdateMemButtonDsiable, COMDAT
; _this$ = ecx

; 702  : {

  00000	55		 push	 ebp
  00001	8b ec		 mov	 ebp, esp
  00003	51		 push	 ecx
  00004	53		 push	 ebx
  00005	56		 push	 esi
  00006	57		 push	 edi

; 703  : 	SetChildWndStyleRemove( ID_MEMORY, IWS_EXACTIVE );

  00007	68 00 10 00 00	 push	 4096			; 00001000H
  0000c	6a 04		 push	 4
  0000e	89 4d fc	 mov	 DWORD PTR _this$[ebp], ecx
  00011	ff 15 00 00 00
	00		 call	 DWORD PTR __imp_?SetChildWndStyleRemove@ioWnd@@QAEXKK@Z

; 704  : 	ioCheckButton* pExtraButton = dynamic_cast<ioCheckButton*>( FindChildWnd( ID_EXTRA ) );

  00017	8b 4d fc	 mov	 ecx, DWORD PTR _this$[ebp]
  0001a	8b 35 00 00 00
	00		 mov	 esi, DWORD PTR __imp_?FindChildWnd@ioWnd@@QAEPAV1@K@Z
  00020	6a 00		 push	 0
  00022	bb 00 00 00 00	 mov	 ebx, OFFSET ??_R0?AVioCheckButton@@@8
  00027	53		 push	 ebx
  00028	bf 00 00 00 00	 mov	 edi, OFFSET ??_R0?AVioWnd@@@8
  0002d	57		 push	 edi
  0002e	6a 00		 push	 0
  00030	6a 03		 push	 3
  00032	ff d6		 call	 esi
  00034	50		 push	 eax
  00035	e8 00 00 00 00	 call	 ___RTDynamicCast
  0003a	83 c4 14	 add	 esp, 20			; 00000014H

; 705  : 	if( pExtraButton  && !pExtraButton->IsChecked() )

  0003d	85 c0		 test	 eax, eax
  0003f	74 49		 je	 SHORT $LN5@UpdateMemB
  00041	8b c8		 mov	 ecx, eax
  00043	ff 15 00 00 00
	00		 call	 DWORD PTR __imp_?IsChecked@ioCheckButton@@QBE_NXZ
  00049	84 c0		 test	 al, al
  0004b	75 3d		 jne	 SHORT $LN5@UpdateMemB

; 706  : 	{
; 707  : 		ioCheckButton* pMemButton = dynamic_cast<ioCheckButton*>( FindChildWnd( ID_MEMORY ) );

  0004d	8b 4d fc	 mov	 ecx, DWORD PTR _this$[ebp]
  00050	6a 00		 push	 0
  00052	53		 push	 ebx
  00053	57		 push	 edi
  00054	6a 00		 push	 0
  00056	6a 04		 push	 4
  00058	ff d6		 call	 esi
  0005a	50		 push	 eax
  0005b	e8 00 00 00 00	 call	 ___RTDynamicCast
  00060	8b f0		 mov	 esi, eax
  00062	83 c4 14	 add	 esp, 20			; 00000014H

; 708  : 		if( pMemButton )

  00065	85 f6		 test	 esi, esi
  00067	74 21		 je	 SHORT $LN5@UpdateMemB

; 709  : 		{
; 710  : 			SetChildWndStyleAdd( ID_MEMORY, IWS_EXACTIVE );

  00069	8b 4d fc	 mov	 ecx, DWORD PTR _this$[ebp]
  0006c	68 00 10 00 00	 push	 4096			; 00001000H
  00071	6a 04		 push	 4
  00073	ff 15 00 00 00
	00		 call	 DWORD PTR __imp_?SetChildWndStyleAdd@ioWnd@@QAEXKK@Z

; 711  : 			pMemButton->SetCheck( false );

  00079	6a 00		 push	 0
  0007b	8b ce		 mov	 ecx, esi
  0007d	ff 15 00 00 00
	00		 call	 DWORD PTR __imp_?SetCheck@ioCheckButton@@QAEX_N@Z

; 712  : 			Setting::SetShowMemoryUsage( false );

  00083	c6 05 71 00 00
	00 00		 mov	 BYTE PTR ?m_Option@Setting@@1USettingOption@@A+113, 0
$LN5@UpdateMemB:
  0008a	5f		 pop	 edi
  0008b	5e		 pop	 esi
  0008c	5b		 pop	 ebx

; 713  : 		}
; 714  : 	}
; 715  : }

  0008d	c9		 leave
  0008e	c3		 ret	 0
?UpdateMemButtonDsiable@SingleSettingWnd@@IAEXXZ ENDP	; SingleSettingWnd::UpdateMemButtonDsiable
_TEXT	ENDS
PUBLIC	??_C@_0CA@CBMPBPKC@SingleSettingWnd?3?3UpdateModeSub?$AA@ ; `string'
PUBLIC	?UpdateModeSub@SingleSettingWnd@@IAEXH@Z	; SingleSettingWnd::UpdateModeSub
EXTRN	?GetBattleMapTitle@ioModeSelectInfo@@QAE?AVioHashString@@HH@Z:PROC ; ioModeSelectInfo::GetBattleMapTitle
EXTRN	__EH_epilog3_GS:PROC
EXTRN	__EH_prolog3_GS:PROC
;	COMDAT ??_C@_0CA@CBMPBPKC@SingleSettingWnd?3?3UpdateModeSub?$AA@
CONST	SEGMENT
??_C@_0CA@CBMPBPKC@SingleSettingWnd?3?3UpdateModeSub?$AA@ DB 'SingleSetti'
	DB	'ngWnd::UpdateModeSub', 00H			; `string'
CONST	ENDS
;	COMDAT xdata$x
xdata$x	SEGMENT
__unwindtable$?UpdateModeSub@SingleSettingWnd@@IAEXH@Z DD 0ffffffffH
	DD	FLAT:__unwindfunclet$?UpdateModeSub@SingleSettingWnd@@IAEXH@Z$0
	DD	00H
	DD	FLAT:__unwindfunclet$?UpdateModeSub@SingleSettingWnd@@IAEXH@Z$1
__ehfuncinfo$?UpdateModeSub@SingleSettingWnd@@IAEXH@Z DD 019930522H
	DD	02H
	DD	FLAT:__unwindtable$?UpdateModeSub@SingleSettingWnd@@IAEXH@Z
	DD	2 DUP(00H)
	DD	2 DUP(00H)
	DD	00H
	DD	01H
; Function compile flags: /Ogsp
xdata$x	ENDS
;	COMDAT ?UpdateModeSub@SingleSettingWnd@@IAEXH@Z
_TEXT	SEGMENT
$T537629 = -308						; size = 16
_szTtitle$ = -292					; size = 16
_szBuf$ = -276						; size = 260
__$EHRec$ = -12						; size = 12
_Param$ = 8						; size = 4
?UpdateModeSub@SingleSettingWnd@@IAEXH@Z PROC		; SingleSettingWnd::UpdateModeSub, COMDAT
; _this$ = ecx

; 832  : {

  00000	68 28 01 00 00	 push	 296			; 00000128H
  00005	b8 00 00 00 00	 mov	 eax, __ehhandler$?UpdateModeSub@SingleSettingWnd@@IAEXH@Z
  0000a	e8 00 00 00 00	 call	 __EH_prolog3_GS
  0000f	8b 5d 08	 mov	 ebx, DWORD PTR _Param$[ebp]
  00012	8b f9		 mov	 edi, ecx

; 833  : 	char szBuf[MAX_PATH];
; 834  : 	ioHashString szTtitle;

  00014	8d 8d dc fe ff
	ff		 lea	 ecx, DWORD PTR _szTtitle$[ebp]
  0001a	ff 15 00 00 00
	00		 call	 DWORD PTR __imp_??0ioHashString@@QAE@XZ
  00020	83 65 fc 00	 and	 DWORD PTR __$EHRec$[ebp+8], 0

; 835  : 	if( Param == 0  )

  00024	8b 35 00 00 00
	00		 mov	 esi, DWORD PTR __imp_??1ioHashString@@QAE@XZ
  0002a	85 db		 test	 ebx, ebx
  0002c	75 40		 jne	 SHORT $LN2@UpdateMode

; 836  : 	{
; 837  : 		sprintf_s( szBuf, STR(1) );

  0002e	6a 00		 push	 0
  00030	6a 01		 push	 1
  00032	68 00 00 00 00	 push	 OFFSET ??_C@_00CNPNBAHC@?$AA@
  00037	68 00 00 00 00	 push	 OFFSET ??_C@_0CA@CBMPBPKC@SingleSettingWnd?3?3UpdateModeSub?$AA@
  0003c	ff 15 00 00 00
	00		 call	 DWORD PTR __imp_?GetSingleton@ioStringManager@@SAAAV1@XZ
  00042	8b c8		 mov	 ecx, eax
  00044	ff 15 00 00 00
	00		 call	 DWORD PTR __imp_?GetString@ioStringManager@@QAEPADPBD0HW4FileNamePrefix@1@@Z
  0004a	50		 push	 eax
  0004b	8d 85 ec fe ff
	ff		 lea	 eax, DWORD PTR _szBuf$[ebp]
  00051	50		 push	 eax
  00052	e8 00 00 00 00	 call	 ??$sprintf_s@$0BAE@@@YAHAAY0BAE@DPBDZZ ; sprintf_s<260>
  00057	59		 pop	 ecx
  00058	59		 pop	 ecx

; 838  : 		szTtitle = szBuf;

  00059	8d 85 ec fe ff
	ff		 lea	 eax, DWORD PTR _szBuf$[ebp]
  0005f	50		 push	 eax
  00060	8d 8d dc fe ff
	ff		 lea	 ecx, DWORD PTR _szTtitle$[ebp]
  00066	ff 15 00 00 00
	00		 call	 DWORD PTR __imp_??4ioHashString@@QAEAAV0@PBD@Z

; 839  : 	}
; 840  : 	else

  0006c	eb 44		 jmp	 SHORT $LN1@UpdateMode
$LN2@UpdateMode:

; 841  : 	{
; 842  : 		int nModeIdx = g_ModeSelectInfo.GetBattleModeIndex( m_CurrModeType );

  0006e	ff b7 60 01 00
	00		 push	 DWORD PTR [edi+352]
  00074	e8 00 00 00 00	 call	 ?GetSingleton@ioModeSelectInfo@@SAAAV1@XZ ; ioModeSelectInfo::GetSingleton
  00079	8b c8		 mov	 ecx, eax
  0007b	e8 00 00 00 00	 call	 ?GetBattleModeIndex@ioModeSelectInfo@@QAEHH@Z ; ioModeSelectInfo::GetBattleModeIndex

; 843  : 		szTtitle = g_ModeSelectInfo.GetBattleMapTitle( nModeIdx, Param );

  00080	53		 push	 ebx
  00081	50		 push	 eax
  00082	8d 85 cc fe ff
	ff		 lea	 eax, DWORD PTR $T537629[ebp]
  00088	50		 push	 eax
  00089	e8 00 00 00 00	 call	 ?GetSingleton@ioModeSelectInfo@@SAAAV1@XZ ; ioModeSelectInfo::GetSingleton
  0008e	8b c8		 mov	 ecx, eax
  00090	e8 00 00 00 00	 call	 ?GetBattleMapTitle@ioModeSelectInfo@@QAE?AVioHashString@@HH@Z ; ioModeSelectInfo::GetBattleMapTitle
  00095	50		 push	 eax
  00096	8d 8d dc fe ff
	ff		 lea	 ecx, DWORD PTR _szTtitle$[ebp]
  0009c	c6 45 fc 01	 mov	 BYTE PTR __$EHRec$[ebp+8], 1
  000a0	ff 15 00 00 00
	00		 call	 DWORD PTR __imp_??4ioHashString@@QAEAAV0@ABV0@@Z
  000a6	8d 8d cc fe ff
	ff		 lea	 ecx, DWORD PTR $T537629[ebp]
  000ac	c6 45 fc 00	 mov	 BYTE PTR __$EHRec$[ebp+8], 0
  000b0	ff d6		 call	 esi
$LN1@UpdateMode:

; 844  : 
; 845  : 	}
; 846  : 	ChangeModeSubButtonTitle( szTtitle );

  000b2	8d 85 dc fe ff
	ff		 lea	 eax, DWORD PTR _szTtitle$[ebp]
  000b8	50		 push	 eax
  000b9	8b cf		 mov	 ecx, edi
  000bb	e8 00 00 00 00	 call	 ?ChangeModeSubButtonTitle@SingleSettingWnd@@IAEXABVioHashString@@@Z ; SingleSettingWnd::ChangeModeSubButtonTitle

; 847  : 	m_CurrModeSub = Param;
; 848  : }

  000c0	83 4d fc ff	 or	 DWORD PTR __$EHRec$[ebp+8], -1
  000c4	8d 8d dc fe ff
	ff		 lea	 ecx, DWORD PTR _szTtitle$[ebp]
  000ca	89 9f 64 01 00
	00		 mov	 DWORD PTR [edi+356], ebx
  000d0	ff d6		 call	 esi
  000d2	e8 00 00 00 00	 call	 __EH_epilog3_GS
  000d7	c2 04 00	 ret	 4
_TEXT	ENDS
;	COMDAT text$x
text$x	SEGMENT
__unwindfunclet$?UpdateModeSub@SingleSettingWnd@@IAEXH@Z$0:
  00000	8d 8d dc fe ff
	ff		 lea	 ecx, DWORD PTR _szTtitle$[ebp]
  00006	ff 25 00 00 00
	00		 jmp	 DWORD PTR __imp_??1ioHashString@@QAE@XZ
__unwindfunclet$?UpdateModeSub@SingleSettingWnd@@IAEXH@Z$1:
  0000c	8d 8d cc fe ff
	ff		 lea	 ecx, DWORD PTR $T537629[ebp]
  00012	ff 25 00 00 00
	00		 jmp	 DWORD PTR __imp_??1ioHashString@@QAE@XZ
__ehhandler$?UpdateModeSub@SingleSettingWnd@@IAEXH@Z:
  00018	8b 54 24 08	 mov	 edx, DWORD PTR [esp+8]
  0001c	8d 42 0c	 lea	 eax, DWORD PTR [edx+12]
  0001f	8b 8a c8 fe ff
	ff		 mov	 ecx, DWORD PTR [edx-312]
  00025	33 c8		 xor	 ecx, eax
  00027	e8 00 00 00 00	 call	 @__security_check_cookie@4
  0002c	8b 4a fc	 mov	 ecx, DWORD PTR [edx-4]
  0002f	33 c8		 xor	 ecx, eax
  00031	e8 00 00 00 00	 call	 @__security_check_cookie@4
  00036	b8 00 00 00 00	 mov	 eax, OFFSET __ehfuncinfo$?UpdateModeSub@SingleSettingWnd@@IAEXH@Z
  0003b	e9 00 00 00 00	 jmp	 ___CxxFrameHandler3
text$x	ENDS
?UpdateModeSub@SingleSettingWnd@@IAEXH@Z ENDP		; SingleSettingWnd::UpdateModeSub
PUBLIC	??_C@_0CD@CHBOBHKM@SingleSettingWnd?3?3CreateMapIdxLi@ ; `string'
PUBLIC	?CreateMapIdxList@SingleSettingWnd@@IAEXXZ	; SingleSettingWnd::CreateMapIdxList
;	COMDAT ??_C@_0CD@CHBOBHKM@SingleSettingWnd?3?3CreateMapIdxLi@
CONST	SEGMENT
??_C@_0CD@CHBOBHKM@SingleSettingWnd?3?3CreateMapIdxLi@ DB 'SingleSettingW'
	DB	'nd::CreateMapIdxList', 00H			; `string'
CONST	ENDS
;	COMDAT xdata$x
xdata$x	SEGMENT
__unwindtable$?CreateMapIdxList@SingleSettingWnd@@IAEXXZ DD 0ffffffffH
	DD	FLAT:__unwindfunclet$?CreateMapIdxList@SingleSettingWnd@@IAEXXZ$0
__ehfuncinfo$?CreateMapIdxList@SingleSettingWnd@@IAEXXZ DD 019930522H
	DD	01H
	DD	FLAT:__unwindtable$?CreateMapIdxList@SingleSettingWnd@@IAEXXZ
	DD	2 DUP(00H)
	DD	2 DUP(00H)
	DD	00H
	DD	01H
; Function compile flags: /Ogsp
xdata$x	ENDS
;	COMDAT ?CreateMapIdxList@SingleSettingWnd@@IAEXXZ
_TEXT	SEGMENT
$T537645 = -296						; size = 16
_pList$ = -280						; size = 4
_szBuf$535182 = -276					; size = 260
__$EHRec$ = -12						; size = 12
?CreateMapIdxList@SingleSettingWnd@@IAEXXZ PROC		; SingleSettingWnd::CreateMapIdxList, COMDAT
; _this$ = ecx

; 860  : {

  00000	68 1c 01 00 00	 push	 284			; 0000011cH
  00005	b8 00 00 00 00	 mov	 eax, __ehhandler$?CreateMapIdxList@SingleSettingWnd@@IAEXXZ
  0000a	e8 00 00 00 00	 call	 __EH_prolog3_GS

; 861  : 	StringScrollListWnd *pList = dynamic_cast<StringScrollListWnd*>( FindChildWnd( ID_MAP_LIST ) );

  0000f	33 db		 xor	 ebx, ebx
  00011	53		 push	 ebx
  00012	68 00 00 00 00	 push	 OFFSET ??_R0?AVStringScrollListWnd@@@8
  00017	68 00 00 00 00	 push	 OFFSET ??_R0?AVioWnd@@@8
  0001c	53		 push	 ebx
  0001d	be eb 03 00 00	 mov	 esi, 1003		; 000003ebH
  00022	56		 push	 esi
  00023	ff 15 00 00 00
	00		 call	 DWORD PTR __imp_?FindChildWnd@ioWnd@@QAEPAV1@K@Z
  00029	50		 push	 eax
  0002a	e8 00 00 00 00	 call	 ___RTDynamicCast
  0002f	83 c4 14	 add	 esp, 20			; 00000014H
  00032	89 85 e8 fe ff
	ff		 mov	 DWORD PTR _pList$[ebp], eax

; 862  : 	if( pList )

  00038	3b c3		 cmp	 eax, ebx
  0003a	74 70		 je	 SHORT $LN1@CreateMapI

; 863  : 	{
; 864  : 		for( int i = 1; i <= SUB_MAX; ++i )

  0003c	33 ff		 xor	 edi, edi
  0003e	47		 inc	 edi
$LN3@CreateMapI:

; 865  : 		{
; 866  : 			char szBuf[MAX_PATH];
; 867  : 			sprintf_s( szBuf, STR(1), i );

  0003f	57		 push	 edi
  00040	53		 push	 ebx
  00041	6a 01		 push	 1
  00043	68 00 00 00 00	 push	 OFFSET ??_C@_00CNPNBAHC@?$AA@
  00048	68 00 00 00 00	 push	 OFFSET ??_C@_0CD@CHBOBHKM@SingleSettingWnd?3?3CreateMapIdxLi@
  0004d	ff 15 00 00 00
	00		 call	 DWORD PTR __imp_?GetSingleton@ioStringManager@@SAAAV1@XZ
  00053	8b c8		 mov	 ecx, eax
  00055	ff 15 00 00 00
	00		 call	 DWORD PTR __imp_?GetString@ioStringManager@@QAEPADPBD0HW4FileNamePrefix@1@@Z
  0005b	50		 push	 eax
  0005c	8d 85 ec fe ff
	ff		 lea	 eax, DWORD PTR _szBuf$535182[ebp]
  00062	50		 push	 eax
  00063	e8 00 00 00 00	 call	 ??$sprintf_s@$0BAE@@@YAHAAY0BAE@DPBDZZ ; sprintf_s<260>
  00068	83 c4 0c	 add	 esp, 12			; 0000000cH

; 868  : 			pList->AddList( ID_MAP_LIST, i, szBuf, NULL );

  0006b	8d 85 ec fe ff
	ff		 lea	 eax, DWORD PTR _szBuf$535182[ebp]
  00071	50		 push	 eax
  00072	8d 8d d8 fe ff
	ff		 lea	 ecx, DWORD PTR $T537645[ebp]
  00078	ff 15 00 00 00
	00		 call	 DWORD PTR __imp_??0ioHashString@@QAE@PBD@Z
  0007e	8b 8d e8 fe ff
	ff		 mov	 ecx, DWORD PTR _pList$[ebp]
  00084	53		 push	 ebx
  00085	8d 85 d8 fe ff
	ff		 lea	 eax, DWORD PTR $T537645[ebp]
  0008b	50		 push	 eax
  0008c	57		 push	 edi
  0008d	56		 push	 esi
  0008e	89 5d fc	 mov	 DWORD PTR __$EHRec$[ebp+8], ebx
  00091	e8 00 00 00 00	 call	 ?AddList@StringScrollListWnd@@QAEXHHABVioHashString@@PAVioUIRenderImage@@@Z ; StringScrollListWnd::AddList
  00096	83 4d fc ff	 or	 DWORD PTR __$EHRec$[ebp+8], -1
  0009a	8d 8d d8 fe ff
	ff		 lea	 ecx, DWORD PTR $T537645[ebp]
  000a0	ff 15 00 00 00
	00		 call	 DWORD PTR __imp_??1ioHashString@@QAE@XZ
  000a6	47		 inc	 edi
  000a7	83 ff 14	 cmp	 edi, 20			; 00000014H
  000aa	7e 93		 jle	 SHORT $LN3@CreateMapI
$LN1@CreateMapI:

; 869  : 		}
; 870  : 	}
; 871  : }

  000ac	e8 00 00 00 00	 call	 __EH_epilog3_GS
  000b1	c3		 ret	 0
_TEXT	ENDS
;	COMDAT text$x
text$x	SEGMENT
__unwindfunclet$?CreateMapIdxList@SingleSettingWnd@@IAEXXZ$0:
  00000	8d 8d d8 fe ff
	ff		 lea	 ecx, DWORD PTR $T537645[ebp]
  00006	ff 25 00 00 00
	00		 jmp	 DWORD PTR __imp_??1ioHashString@@QAE@XZ
__ehhandler$?CreateMapIdxList@SingleSettingWnd@@IAEXXZ:
  0000c	8b 54 24 08	 mov	 edx, DWORD PTR [esp+8]
  00010	8d 42 0c	 lea	 eax, DWORD PTR [edx+12]
  00013	8b 8a d4 fe ff
	ff		 mov	 ecx, DWORD PTR [edx-300]
  00019	33 c8		 xor	 ecx, eax
  0001b	e8 00 00 00 00	 call	 @__security_check_cookie@4
  00020	8b 4a fc	 mov	 ecx, DWORD PTR [edx-4]
  00023	33 c8		 xor	 ecx, eax
  00025	e8 00 00 00 00	 call	 @__security_check_cookie@4
  0002a	b8 00 00 00 00	 mov	 eax, OFFSET __ehfuncinfo$?CreateMapIdxList@SingleSettingWnd@@IAEXXZ
  0002f	e9 00 00 00 00	 jmp	 ___CxxFrameHandler3
text$x	ENDS
?CreateMapIdxList@SingleSettingWnd@@IAEXXZ ENDP		; SingleSettingWnd::CreateMapIdxList
PUBLIC	?OpenMapIdxList@SingleSettingWnd@@IAEXPAVioWnd@@@Z ; SingleSettingWnd::OpenMapIdxList
; Function compile flags: /Ogsp
;	COMDAT ?OpenMapIdxList@SingleSettingWnd@@IAEXPAVioWnd@@@Z
_TEXT	SEGMENT
_pOpenWnd$ = 8						; size = 4
?OpenMapIdxList@SingleSettingWnd@@IAEXPAVioWnd@@@Z PROC	; SingleSettingWnd::OpenMapIdxList, COMDAT
; _this$ = ecx

; 874  : {	

  00000	55		 push	 ebp
  00001	8b ec		 mov	 ebp, esp
  00003	56		 push	 esi
  00004	57		 push	 edi

; 875  : 	StringScrollListWnd *pList = dynamic_cast<StringScrollListWnd *>( FindChildWnd( ID_MAP_LIST ) );

  00005	6a 00		 push	 0
  00007	68 00 00 00 00	 push	 OFFSET ??_R0?AVStringScrollListWnd@@@8
  0000c	68 00 00 00 00	 push	 OFFSET ??_R0?AVioWnd@@@8
  00011	6a 00		 push	 0
  00013	68 eb 03 00 00	 push	 1003			; 000003ebH
  00018	8b f9		 mov	 edi, ecx
  0001a	ff 15 00 00 00
	00		 call	 DWORD PTR __imp_?FindChildWnd@ioWnd@@QAEPAV1@K@Z
  00020	50		 push	 eax
  00021	e8 00 00 00 00	 call	 ___RTDynamicCast
  00026	8b f0		 mov	 esi, eax
  00028	83 c4 14	 add	 esp, 20			; 00000014H

; 876  : 	if( pList )

  0002b	85 f6		 test	 esi, esi
  0002d	74 31		 je	 SHORT $LN1@OpenMapIdx

; 877  : 	{
; 878  : 		pList->SetList( pOpenWnd, pOpenWnd->GetXPos(), pOpenWnd->GetYPos() + 24 );

  0002f	8b 4d 08	 mov	 ecx, DWORD PTR _pOpenWnd$[ebp]
  00032	6a 00		 push	 0
  00034	ff 15 00 00 00
	00		 call	 DWORD PTR __imp_?GetYPos@ioWnd@@QBEHXZ
  0003a	8b 4d 08	 mov	 ecx, DWORD PTR _pOpenWnd$[ebp]
  0003d	83 c0 18	 add	 eax, 24			; 00000018H
  00040	50		 push	 eax
  00041	ff 15 00 00 00
	00		 call	 DWORD PTR __imp_?GetXPos@ioWnd@@QBEHXZ
  00047	50		 push	 eax
  00048	ff 75 08	 push	 DWORD PTR _pOpenWnd$[ebp]
  0004b	8b ce		 mov	 ecx, esi
  0004d	e8 00 00 00 00	 call	 ?SetList@StringScrollListWnd@@QAEXPAVioWnd@@HHW4OpenStyle@1@@Z ; StringScrollListWnd::SetList

; 879  : 		CreateMapIdxList();

  00052	8b cf		 mov	 ecx, edi
  00054	e8 00 00 00 00	 call	 ?CreateMapIdxList@SingleSettingWnd@@IAEXXZ ; SingleSettingWnd::CreateMapIdxList

; 880  : 		pList->ShowListWnd();

  00059	8b ce		 mov	 ecx, esi
  0005b	e8 00 00 00 00	 call	 ?ShowListWnd@StringScrollListWnd@@QAEXXZ ; StringScrollListWnd::ShowListWnd
$LN1@OpenMapIdx:
  00060	5f		 pop	 edi
  00061	5e		 pop	 esi

; 881  : 	}
; 882  : }

  00062	5d		 pop	 ebp
  00063	c2 04 00	 ret	 4
?OpenMapIdxList@SingleSettingWnd@@IAEXPAVioWnd@@@Z ENDP	; SingleSettingWnd::OpenMapIdxList
_TEXT	ENDS
PUBLIC	??_C@_0BP@JFDNKKM@SingleSettingWnd?3?3UpdateMapIdx?$AA@ ; `string'
PUBLIC	?UpdateMapIdx@SingleSettingWnd@@IAEXH@Z		; SingleSettingWnd::UpdateMapIdx
;	COMDAT ??_C@_0BP@JFDNKKM@SingleSettingWnd?3?3UpdateMapIdx?$AA@
CONST	SEGMENT
??_C@_0BP@JFDNKKM@SingleSettingWnd?3?3UpdateMapIdx?$AA@ DB 'SingleSetting'
	DB	'Wnd::UpdateMapIdx', 00H			; `string'
CONST	ENDS
;	COMDAT xdata$x
xdata$x	SEGMENT
__unwindtable$?UpdateMapIdx@SingleSettingWnd@@IAEXH@Z DD 0ffffffffH
	DD	FLAT:__unwindfunclet$?UpdateMapIdx@SingleSettingWnd@@IAEXH@Z$0
__ehfuncinfo$?UpdateMapIdx@SingleSettingWnd@@IAEXH@Z DD 019930522H
	DD	01H
	DD	FLAT:__unwindtable$?UpdateMapIdx@SingleSettingWnd@@IAEXH@Z
	DD	2 DUP(00H)
	DD	2 DUP(00H)
	DD	00H
	DD	01H
; Function compile flags: /Ogsp
xdata$x	ENDS
;	COMDAT ?UpdateMapIdx@SingleSettingWnd@@IAEXH@Z
_TEXT	SEGMENT
$T537662 = -292						; size = 16
_szBuf$ = -276						; size = 260
__$EHRec$ = -12						; size = 12
_Param$ = 8						; size = 4
?UpdateMapIdx@SingleSettingWnd@@IAEXH@Z PROC		; SingleSettingWnd::UpdateMapIdx, COMDAT
; _this$ = ecx

; 885  : {

  00000	68 18 01 00 00	 push	 280			; 00000118H
  00005	b8 00 00 00 00	 mov	 eax, __ehhandler$?UpdateMapIdx@SingleSettingWnd@@IAEXH@Z
  0000a	e8 00 00 00 00	 call	 __EH_prolog3_GS

; 886  : 	char szBuf[MAX_PATH];
; 887  : 	if( Param == 0  )

  0000f	8b 75 08	 mov	 esi, DWORD PTR _Param$[ebp]
  00012	8b f9		 mov	 edi, ecx
  00014	85 f6		 test	 esi, esi
  00016	75 2c		 jne	 SHORT $LN2@UpdateMapI

; 888  : 		sprintf_s( szBuf, STR(1) );

  00018	56		 push	 esi
  00019	6a 01		 push	 1
  0001b	68 00 00 00 00	 push	 OFFSET ??_C@_00CNPNBAHC@?$AA@
  00020	68 00 00 00 00	 push	 OFFSET ??_C@_0BP@JFDNKKM@SingleSettingWnd?3?3UpdateMapIdx?$AA@
  00025	ff 15 00 00 00
	00		 call	 DWORD PTR __imp_?GetSingleton@ioStringManager@@SAAAV1@XZ
  0002b	8b c8		 mov	 ecx, eax
  0002d	ff 15 00 00 00
	00		 call	 DWORD PTR __imp_?GetString@ioStringManager@@QAEPADPBD0HW4FileNamePrefix@1@@Z
  00033	50		 push	 eax
  00034	8d 85 ec fe ff
	ff		 lea	 eax, DWORD PTR _szBuf$[ebp]
  0003a	50		 push	 eax
  0003b	e8 00 00 00 00	 call	 ??$sprintf_s@$0BAE@@@YAHAAY0BAE@DPBDZZ ; sprintf_s<260>
  00040	59		 pop	 ecx
  00041	59		 pop	 ecx

; 889  : 	else

  00042	eb 2d		 jmp	 SHORT $LN1@UpdateMapI
$LN2@UpdateMapI:

; 890  : 		sprintf_s( szBuf, STR(2), Param );

  00044	56		 push	 esi
  00045	6a 00		 push	 0
  00047	6a 02		 push	 2
  00049	68 00 00 00 00	 push	 OFFSET ??_C@_00CNPNBAHC@?$AA@
  0004e	68 00 00 00 00	 push	 OFFSET ??_C@_0BP@JFDNKKM@SingleSettingWnd?3?3UpdateMapIdx?$AA@
  00053	ff 15 00 00 00
	00		 call	 DWORD PTR __imp_?GetSingleton@ioStringManager@@SAAAV1@XZ
  00059	8b c8		 mov	 ecx, eax
  0005b	ff 15 00 00 00
	00		 call	 DWORD PTR __imp_?GetString@ioStringManager@@QAEPADPBD0HW4FileNamePrefix@1@@Z
  00061	50		 push	 eax
  00062	8d 85 ec fe ff
	ff		 lea	 eax, DWORD PTR _szBuf$[ebp]
  00068	50		 push	 eax
  00069	e8 00 00 00 00	 call	 ??$sprintf_s@$0BAE@@@YAHAAY0BAE@DPBDZZ ; sprintf_s<260>
  0006e	83 c4 0c	 add	 esp, 12			; 0000000cH
$LN1@UpdateMapI:

; 891  : 
; 892  : 	ChangeMapIdxButtonTitle( szBuf );

  00071	8d 85 ec fe ff
	ff		 lea	 eax, DWORD PTR _szBuf$[ebp]
  00077	50		 push	 eax
  00078	8d 8d dc fe ff
	ff		 lea	 ecx, DWORD PTR $T537662[ebp]
  0007e	ff 15 00 00 00
	00		 call	 DWORD PTR __imp_??0ioHashString@@QAE@PBD@Z
  00084	83 65 fc 00	 and	 DWORD PTR __$EHRec$[ebp+8], 0
  00088	8d 85 dc fe ff
	ff		 lea	 eax, DWORD PTR $T537662[ebp]
  0008e	50		 push	 eax
  0008f	8b cf		 mov	 ecx, edi
  00091	e8 00 00 00 00	 call	 ?ChangeMapIdxButtonTitle@SingleSettingWnd@@IAEXABVioHashString@@@Z ; SingleSettingWnd::ChangeMapIdxButtonTitle
  00096	83 4d fc ff	 or	 DWORD PTR __$EHRec$[ebp+8], -1
  0009a	8d 8d dc fe ff
	ff		 lea	 ecx, DWORD PTR $T537662[ebp]
  000a0	ff 15 00 00 00
	00		 call	 DWORD PTR __imp_??1ioHashString@@QAE@XZ

; 893  : 	m_CurrModeMapIndex = Param;

  000a6	89 b7 68 01 00
	00		 mov	 DWORD PTR [edi+360], esi

; 894  : }

  000ac	e8 00 00 00 00	 call	 __EH_epilog3_GS
  000b1	c2 04 00	 ret	 4
_TEXT	ENDS
;	COMDAT text$x
text$x	SEGMENT
__unwindfunclet$?UpdateMapIdx@SingleSettingWnd@@IAEXH@Z$0:
  00000	8d 8d dc fe ff
	ff		 lea	 ecx, DWORD PTR $T537662[ebp]
  00006	ff 25 00 00 00
	00		 jmp	 DWORD PTR __imp_??1ioHashString@@QAE@XZ
__ehhandler$?UpdateMapIdx@SingleSettingWnd@@IAEXH@Z:
  0000c	8b 54 24 08	 mov	 edx, DWORD PTR [esp+8]
  00010	8d 42 0c	 lea	 eax, DWORD PTR [edx+12]
  00013	8b 8a d8 fe ff
	ff		 mov	 ecx, DWORD PTR [edx-296]
  00019	33 c8		 xor	 ecx, eax
  0001b	e8 00 00 00 00	 call	 @__security_check_cookie@4
  00020	8b 4a fc	 mov	 ecx, DWORD PTR [edx-4]
  00023	33 c8		 xor	 ecx, eax
  00025	e8 00 00 00 00	 call	 @__security_check_cookie@4
  0002a	b8 00 00 00 00	 mov	 eax, OFFSET __ehfuncinfo$?UpdateMapIdx@SingleSettingWnd@@IAEXH@Z
  0002f	e9 00 00 00 00	 jmp	 ___CxxFrameHandler3
text$x	ENDS
?UpdateMapIdx@SingleSettingWnd@@IAEXH@Z ENDP		; SingleSettingWnd::UpdateMapIdx
PUBLIC	??_C@_0CG@KHOFOILB@SingleSettingWnd?3?3CreateCharacte@ ; `string'
PUBLIC	??_C@_02DKCKIIND@?$CFs?$AA@			; `string'
PUBLIC	?CreateCharacterList@SingleSettingWnd@@IAEXXZ	; SingleSettingWnd::CreateCharacterList
;	COMDAT ??_C@_0CG@KHOFOILB@SingleSettingWnd?3?3CreateCharacte@
; File d:\lost saga for developer\youtube\tutorial\source\src\lsclient\iobasechar.h
CONST	SEGMENT
??_C@_0CG@KHOFOILB@SingleSettingWnd?3?3CreateCharacte@ DB 'SingleSettingW'
	DB	'nd::CreateCharacterList', 00H		; `string'
CONST	ENDS
;	COMDAT ??_C@_02DKCKIIND@?$CFs?$AA@
CONST	SEGMENT
??_C@_02DKCKIIND@?$CFs?$AA@ DB '%s', 00H		; `string'
CONST	ENDS
;	COMDAT xdata$x
xdata$x	SEGMENT
__unwindtable$?CreateCharacterList@SingleSettingWnd@@IAEXXZ DD 0ffffffffH
	DD	FLAT:__unwindfunclet$?CreateCharacterList@SingleSettingWnd@@IAEXXZ$0
__ehfuncinfo$?CreateCharacterList@SingleSettingWnd@@IAEXXZ DD 019930522H
	DD	01H
	DD	FLAT:__unwindtable$?CreateCharacterList@SingleSettingWnd@@IAEXXZ
	DD	2 DUP(00H)
	DD	2 DUP(00H)
	DD	00H
	DD	01H
; Function compile flags: /Ogsp
; File d:\lost saga for developer\youtube\tutorial\source\src\lsclient\gui\debuginfownd.cpp
xdata$x	ENDS
;	COMDAT ?CreateCharacterList@SingleSettingWnd@@IAEXXZ
_TEXT	SEGMENT
$T537674 = -304						; size = 16
_pChar$535224 = -288					; size = 4
_pList$ = -284						; size = 4
_i$535218 = -280					; size = 4
_szBuf$535223 = -276					; size = 260
__$EHRec$ = -12						; size = 12
?CreateCharacterList@SingleSettingWnd@@IAEXXZ PROC	; SingleSettingWnd::CreateCharacterList, COMDAT
; _this$ = ecx

; 906  : {

  00000	68 24 01 00 00	 push	 292			; 00000124H
  00005	b8 00 00 00 00	 mov	 eax, __ehhandler$?CreateCharacterList@SingleSettingWnd@@IAEXXZ
  0000a	e8 00 00 00 00	 call	 __EH_prolog3_GS

; 907  : 	StringScrollListWnd *pList = dynamic_cast<StringScrollListWnd*>( FindChildWnd( ID_CHARACTER_LIST ) );

  0000f	33 f6		 xor	 esi, esi
  00011	56		 push	 esi
  00012	68 00 00 00 00	 push	 OFFSET ??_R0?AVStringScrollListWnd@@@8
  00017	68 00 00 00 00	 push	 OFFSET ??_R0?AVioWnd@@@8
  0001c	56		 push	 esi
  0001d	68 ec 03 00 00	 push	 1004			; 000003ecH
  00022	ff 15 00 00 00
	00		 call	 DWORD PTR __imp_?FindChildWnd@ioWnd@@QAEPAV1@K@Z
  00028	50		 push	 eax
  00029	e8 00 00 00 00	 call	 ___RTDynamicCast
  0002e	83 c4 14	 add	 esp, 20			; 00000014H
  00031	89 85 e4 fe ff
	ff		 mov	 DWORD PTR _pList$[ebp], eax

; 908  : 	if( pList )

  00037	3b c6		 cmp	 eax, esi
  00039	0f 84 03 01 00
	00		 je	 $LN3@CreateChar

; 909  : 	{
; 910  : 		ioPlayStage* pStage = g_GUIMgr.GetPlayStage();

  0003f	e8 00 00 00 00	 call	 ?GetSingleton@ioSP2GUIManager@@SAAAV1@XZ ; ioSP2GUIManager::GetSingleton
  00044	8b 98 e8 04 00
	00		 mov	 ebx, DWORD PTR [eax+1256]

; 911  : 		if( pStage )

  0004a	3b de		 cmp	 ebx, esi
  0004c	0f 84 f0 00 00
	00		 je	 $LN3@CreateChar

; 912  : 		{
; 913  : 			const BaseCharList& rkList = pStage->GetBaseCharList();
; 914  : 			if( rkList.empty() )

  00052	8b 43 2c	 mov	 eax, DWORD PTR [ebx+44]
  00055	8b 4b 30	 mov	 ecx, DWORD PTR [ebx+48]
  00058	3b c1		 cmp	 eax, ecx
  0005a	0f 84 e2 00 00
	00		 je	 $LN3@CreateChar

; 915  : 				return;
; 916  : 
; 917  : 			for( int i = 0 ; i < (int)rkList.size(); ++i )

  00060	2b c8		 sub	 ecx, eax
  00062	89 b5 e8 fe ff
	ff		 mov	 DWORD PTR _i$535218[ebp], esi
  00068	f7 c1 fc ff ff
	ff		 test	 ecx, -4			; fffffffcH
  0006e	0f 8e ce 00 00
	00		 jle	 $LN3@CreateChar
$LN5@CreateChar:

; 918  : 			{
; 919  : 				char szBuf[MAX_PATH];
; 920  : 				
; 921  : 				const ioBaseChar* pChar = rkList[i];

  00074	8b 8d e8 fe ff
	ff		 mov	 ecx, DWORD PTR _i$535218[ebp]
  0007a	8b 04 88	 mov	 eax, DWORD PTR [eax+ecx*4]

; 922  : 				DWORD dwCharIdx = 0;

  0007d	33 ff		 xor	 edi, edi
  0007f	89 85 e0 fe ff
	ff		 mov	 DWORD PTR _pChar$535224[ebp], eax

; 923  : 				if( pChar )

  00085	3b c6		 cmp	 eax, esi
  00087	74 33		 je	 SHORT $LN2@CreateChar

; 924  : 				{					
; 925  : 					sprintf_s( szBuf, "%s", pChar->GetCharName() );

  00089	83 ec 10	 sub	 esp, 16			; 00000010H
  0008c	8d b0 d4 02 00
	00		 lea	 esi, DWORD PTR [eax+724]
  00092	8b fc		 mov	 edi, esp
  00094	a5		 movsd
  00095	a5		 movsd
  00096	a5		 movsd
  00097	8d 85 ec fe ff
	ff		 lea	 eax, DWORD PTR _szBuf$535223[ebp]
  0009d	68 00 00 00 00	 push	 OFFSET ??_C@_02DKCKIIND@?$CFs?$AA@
  000a2	50		 push	 eax
  000a3	a5		 movsd
  000a4	e8 00 00 00 00	 call	 ??$sprintf_s@$0BAE@@@YAHAAY0BAE@DPBDZZ ; sprintf_s<260>

; 926  : 					dwCharIdx = pChar->GetIndex();

  000a9	8b 85 e0 fe ff
	ff		 mov	 eax, DWORD PTR _pChar$535224[ebp]
  000af	8b b8 c8 02 00
	00		 mov	 edi, DWORD PTR [eax+712]
  000b5	83 c4 18	 add	 esp, 24			; 00000018H

; 927  : 				}
; 928  : 				else

  000b8	33 f6		 xor	 esi, esi
  000ba	eb 2a		 jmp	 SHORT $LN1@CreateChar
$LN2@CreateChar:

; 929  : 				{
; 930  : 					sprintf_s( szBuf, STR(1) );

  000bc	56		 push	 esi
  000bd	6a 01		 push	 1
  000bf	68 00 00 00 00	 push	 OFFSET ??_C@_00CNPNBAHC@?$AA@
  000c4	68 00 00 00 00	 push	 OFFSET ??_C@_0CG@KHOFOILB@SingleSettingWnd?3?3CreateCharacte@
  000c9	ff 15 00 00 00
	00		 call	 DWORD PTR __imp_?GetSingleton@ioStringManager@@SAAAV1@XZ
  000cf	8b c8		 mov	 ecx, eax
  000d1	ff 15 00 00 00
	00		 call	 DWORD PTR __imp_?GetString@ioStringManager@@QAEPADPBD0HW4FileNamePrefix@1@@Z
  000d7	50		 push	 eax
  000d8	8d 85 ec fe ff
	ff		 lea	 eax, DWORD PTR _szBuf$535223[ebp]
  000de	50		 push	 eax
  000df	e8 00 00 00 00	 call	 ??$sprintf_s@$0BAE@@@YAHAAY0BAE@DPBDZZ ; sprintf_s<260>
  000e4	59		 pop	 ecx
  000e5	59		 pop	 ecx
$LN1@CreateChar:

; 931  : 				}
; 932  : 
; 933  : 				pList->AddList( ID_CHARACTER_LIST, dwCharIdx, szBuf, NULL );

  000e6	8d 85 ec fe ff
	ff		 lea	 eax, DWORD PTR _szBuf$535223[ebp]
  000ec	50		 push	 eax
  000ed	8d 8d d0 fe ff
	ff		 lea	 ecx, DWORD PTR $T537674[ebp]
  000f3	ff 15 00 00 00
	00		 call	 DWORD PTR __imp_??0ioHashString@@QAE@PBD@Z
  000f9	8b 8d e4 fe ff
	ff		 mov	 ecx, DWORD PTR _pList$[ebp]
  000ff	56		 push	 esi
  00100	8d 85 d0 fe ff
	ff		 lea	 eax, DWORD PTR $T537674[ebp]
  00106	50		 push	 eax
  00107	57		 push	 edi
  00108	68 ec 03 00 00	 push	 1004			; 000003ecH
  0010d	89 75 fc	 mov	 DWORD PTR __$EHRec$[ebp+8], esi
  00110	e8 00 00 00 00	 call	 ?AddList@StringScrollListWnd@@QAEXHHABVioHashString@@PAVioUIRenderImage@@@Z ; StringScrollListWnd::AddList
  00115	83 4d fc ff	 or	 DWORD PTR __$EHRec$[ebp+8], -1
  00119	8d 8d d0 fe ff
	ff		 lea	 ecx, DWORD PTR $T537674[ebp]
  0011f	ff 15 00 00 00
	00		 call	 DWORD PTR __imp_??1ioHashString@@QAE@XZ
  00125	8b 43 2c	 mov	 eax, DWORD PTR [ebx+44]
  00128	8b 4b 30	 mov	 ecx, DWORD PTR [ebx+48]
  0012b	ff 85 e8 fe ff
	ff		 inc	 DWORD PTR _i$535218[ebp]
  00131	2b c8		 sub	 ecx, eax
  00133	c1 f9 02	 sar	 ecx, 2
  00136	39 8d e8 fe ff
	ff		 cmp	 DWORD PTR _i$535218[ebp], ecx
  0013c	0f 8c 32 ff ff
	ff		 jl	 $LN5@CreateChar
$LN3@CreateChar:

; 934  : 			}
; 935  : 		}
; 936  : 	}
; 937  : }

  00142	e8 00 00 00 00	 call	 __EH_epilog3_GS
  00147	c3		 ret	 0
_TEXT	ENDS
;	COMDAT text$x
text$x	SEGMENT
__unwindfunclet$?CreateCharacterList@SingleSettingWnd@@IAEXXZ$0:
  00000	8d 8d d0 fe ff
	ff		 lea	 ecx, DWORD PTR $T537674[ebp]
  00006	ff 25 00 00 00
	00		 jmp	 DWORD PTR __imp_??1ioHashString@@QAE@XZ
__ehhandler$?CreateCharacterList@SingleSettingWnd@@IAEXXZ:
  0000c	8b 54 24 08	 mov	 edx, DWORD PTR [esp+8]
  00010	8d 42 0c	 lea	 eax, DWORD PTR [edx+12]
  00013	8b 8a cc fe ff
	ff		 mov	 ecx, DWORD PTR [edx-308]
  00019	33 c8		 xor	 ecx, eax
  0001b	e8 00 00 00 00	 call	 @__security_check_cookie@4
  00020	8b 4a fc	 mov	 ecx, DWORD PTR [edx-4]
  00023	33 c8		 xor	 ecx, eax
  00025	e8 00 00 00 00	 call	 @__security_check_cookie@4
  0002a	b8 00 00 00 00	 mov	 eax, OFFSET __ehfuncinfo$?CreateCharacterList@SingleSettingWnd@@IAEXXZ
  0002f	e9 00 00 00 00	 jmp	 ___CxxFrameHandler3
text$x	ENDS
?CreateCharacterList@SingleSettingWnd@@IAEXXZ ENDP	; SingleSettingWnd::CreateCharacterList
PUBLIC	?OpenCharacterList@SingleSettingWnd@@IAEXPAVioWnd@@@Z ; SingleSettingWnd::OpenCharacterList
; Function compile flags: /Ogsp
;	COMDAT ?OpenCharacterList@SingleSettingWnd@@IAEXPAVioWnd@@@Z
_TEXT	SEGMENT
_pOpenWnd$ = 8						; size = 4
?OpenCharacterList@SingleSettingWnd@@IAEXPAVioWnd@@@Z PROC ; SingleSettingWnd::OpenCharacterList, COMDAT
; _this$ = ecx

; 940  : {	

  00000	55		 push	 ebp
  00001	8b ec		 mov	 ebp, esp
  00003	56		 push	 esi
  00004	57		 push	 edi

; 941  : 	StringScrollListWnd *pList = dynamic_cast<StringScrollListWnd *>( FindChildWnd( ID_CHARACTER_LIST ) );

  00005	6a 00		 push	 0
  00007	68 00 00 00 00	 push	 OFFSET ??_R0?AVStringScrollListWnd@@@8
  0000c	68 00 00 00 00	 push	 OFFSET ??_R0?AVioWnd@@@8
  00011	6a 00		 push	 0
  00013	68 ec 03 00 00	 push	 1004			; 000003ecH
  00018	8b f9		 mov	 edi, ecx
  0001a	ff 15 00 00 00
	00		 call	 DWORD PTR __imp_?FindChildWnd@ioWnd@@QAEPAV1@K@Z
  00020	50		 push	 eax
  00021	e8 00 00 00 00	 call	 ___RTDynamicCast
  00026	8b f0		 mov	 esi, eax
  00028	83 c4 14	 add	 esp, 20			; 00000014H

; 942  : 	if( pList )

  0002b	85 f6		 test	 esi, esi
  0002d	74 31		 je	 SHORT $LN1@OpenCharac

; 943  : 	{
; 944  : 		pList->SetList( pOpenWnd, pOpenWnd->GetXPos(), pOpenWnd->GetYPos() + 24 );

  0002f	8b 4d 08	 mov	 ecx, DWORD PTR _pOpenWnd$[ebp]
  00032	6a 00		 push	 0
  00034	ff 15 00 00 00
	00		 call	 DWORD PTR __imp_?GetYPos@ioWnd@@QBEHXZ
  0003a	8b 4d 08	 mov	 ecx, DWORD PTR _pOpenWnd$[ebp]
  0003d	83 c0 18	 add	 eax, 24			; 00000018H
  00040	50		 push	 eax
  00041	ff 15 00 00 00
	00		 call	 DWORD PTR __imp_?GetXPos@ioWnd@@QBEHXZ
  00047	50		 push	 eax
  00048	ff 75 08	 push	 DWORD PTR _pOpenWnd$[ebp]
  0004b	8b ce		 mov	 ecx, esi
  0004d	e8 00 00 00 00	 call	 ?SetList@StringScrollListWnd@@QAEXPAVioWnd@@HHW4OpenStyle@1@@Z ; StringScrollListWnd::SetList

; 945  : 		CreateCharacterList();

  00052	8b cf		 mov	 ecx, edi
  00054	e8 00 00 00 00	 call	 ?CreateCharacterList@SingleSettingWnd@@IAEXXZ ; SingleSettingWnd::CreateCharacterList

; 946  : 		pList->ShowListWnd();

  00059	8b ce		 mov	 ecx, esi
  0005b	e8 00 00 00 00	 call	 ?ShowListWnd@StringScrollListWnd@@QAEXXZ ; StringScrollListWnd::ShowListWnd
$LN1@OpenCharac:
  00060	5f		 pop	 edi
  00061	5e		 pop	 esi

; 947  : 	}
; 948  : }

  00062	5d		 pop	 ebp
  00063	c2 04 00	 ret	 4
?OpenCharacterList@SingleSettingWnd@@IAEXPAVioWnd@@@Z ENDP ; SingleSettingWnd::OpenCharacterList
_TEXT	ENDS
PUBLIC	??_C@_0CC@LJAPDIMO@SingleSettingWnd?3?3CreateOwnerLis@ ; `string'
PUBLIC	?CreateOwnerList@SingleSettingWnd@@IAEXXZ	; SingleSettingWnd::CreateOwnerList
;	COMDAT ??_C@_0CC@LJAPDIMO@SingleSettingWnd?3?3CreateOwnerLis@
; File d:\lost saga for developer\youtube\tutorial\source\src\lsclient\iobasechar.h
CONST	SEGMENT
??_C@_0CC@LJAPDIMO@SingleSettingWnd?3?3CreateOwnerLis@ DB 'SingleSettingW'
	DB	'nd::CreateOwnerList', 00H			; `string'
CONST	ENDS
;	COMDAT xdata$x
xdata$x	SEGMENT
__unwindtable$?CreateOwnerList@SingleSettingWnd@@IAEXXZ DD 0ffffffffH
	DD	FLAT:__unwindfunclet$?CreateOwnerList@SingleSettingWnd@@IAEXXZ$0
__ehfuncinfo$?CreateOwnerList@SingleSettingWnd@@IAEXXZ DD 019930522H
	DD	01H
	DD	FLAT:__unwindtable$?CreateOwnerList@SingleSettingWnd@@IAEXXZ
	DD	2 DUP(00H)
	DD	2 DUP(00H)
	DD	00H
	DD	01H
; Function compile flags: /Ogsp
; File d:\lost saga for developer\youtube\tutorial\source\src\lsclient\gui\debuginfownd.cpp
xdata$x	ENDS
;	COMDAT ?CreateOwnerList@SingleSettingWnd@@IAEXXZ
_TEXT	SEGMENT
$T537713 = -304						; size = 16
_pChar$535261 = -288					; size = 4
_pList$ = -284						; size = 4
_i$535255 = -280					; size = 4
_szBuf$535260 = -276					; size = 260
__$EHRec$ = -12						; size = 12
?CreateOwnerList@SingleSettingWnd@@IAEXXZ PROC		; SingleSettingWnd::CreateOwnerList, COMDAT
; _this$ = ecx

; 961  : {

  00000	68 24 01 00 00	 push	 292			; 00000124H
  00005	b8 00 00 00 00	 mov	 eax, __ehhandler$?CreateOwnerList@SingleSettingWnd@@IAEXXZ
  0000a	e8 00 00 00 00	 call	 __EH_prolog3_GS

; 962  : 	StringScrollListWnd *pList = dynamic_cast<StringScrollListWnd*>( FindChildWnd( ID_OWER_LIST ) );

  0000f	33 f6		 xor	 esi, esi
  00011	56		 push	 esi
  00012	68 00 00 00 00	 push	 OFFSET ??_R0?AVStringScrollListWnd@@@8
  00017	68 00 00 00 00	 push	 OFFSET ??_R0?AVioWnd@@@8
  0001c	56		 push	 esi
  0001d	68 ed 03 00 00	 push	 1005			; 000003edH
  00022	ff 15 00 00 00
	00		 call	 DWORD PTR __imp_?FindChildWnd@ioWnd@@QAEPAV1@K@Z
  00028	50		 push	 eax
  00029	e8 00 00 00 00	 call	 ___RTDynamicCast
  0002e	83 c4 14	 add	 esp, 20			; 00000014H
  00031	89 85 e4 fe ff
	ff		 mov	 DWORD PTR _pList$[ebp], eax

; 963  : 	if( pList )

  00037	3b c6		 cmp	 eax, esi
  00039	0f 84 03 01 00
	00		 je	 $LN3@CreateOwne

; 964  : 	{
; 965  : 		ioPlayStage* pStage = g_GUIMgr.GetPlayStage();

  0003f	e8 00 00 00 00	 call	 ?GetSingleton@ioSP2GUIManager@@SAAAV1@XZ ; ioSP2GUIManager::GetSingleton
  00044	8b 98 e8 04 00
	00		 mov	 ebx, DWORD PTR [eax+1256]

; 966  : 		if( pStage )

  0004a	3b de		 cmp	 ebx, esi
  0004c	0f 84 f0 00 00
	00		 je	 $LN3@CreateOwne

; 967  : 		{
; 968  : 			const BaseCharList& rkList = pStage->GetBaseCharList();
; 969  : 			if( rkList.empty() )

  00052	8b 43 2c	 mov	 eax, DWORD PTR [ebx+44]
  00055	8b 4b 30	 mov	 ecx, DWORD PTR [ebx+48]
  00058	3b c1		 cmp	 eax, ecx
  0005a	0f 84 e2 00 00
	00		 je	 $LN3@CreateOwne

; 970  : 				return;
; 971  : 
; 972  : 			for( int i = 0 ; i < (int)rkList.size(); ++i )

  00060	2b c8		 sub	 ecx, eax
  00062	89 b5 e8 fe ff
	ff		 mov	 DWORD PTR _i$535255[ebp], esi
  00068	f7 c1 fc ff ff
	ff		 test	 ecx, -4			; fffffffcH
  0006e	0f 8e ce 00 00
	00		 jle	 $LN3@CreateOwne
$LN5@CreateOwne:

; 973  : 			{
; 974  : 				char szBuf[MAX_PATH];
; 975  : 
; 976  : 				const ioBaseChar* pChar = rkList[i];

  00074	8b 8d e8 fe ff
	ff		 mov	 ecx, DWORD PTR _i$535255[ebp]
  0007a	8b 04 88	 mov	 eax, DWORD PTR [eax+ecx*4]

; 977  : 				DWORD dwCharIdx = 0;

  0007d	33 ff		 xor	 edi, edi
  0007f	89 85 e0 fe ff
	ff		 mov	 DWORD PTR _pChar$535261[ebp], eax

; 978  : 				if( pChar )

  00085	3b c6		 cmp	 eax, esi
  00087	74 33		 je	 SHORT $LN2@CreateOwne

; 979  : 				{					
; 980  : 					sprintf_s( szBuf, "%s", pChar->GetCharName() );

  00089	83 ec 10	 sub	 esp, 16			; 00000010H
  0008c	8d b0 d4 02 00
	00		 lea	 esi, DWORD PTR [eax+724]
  00092	8b fc		 mov	 edi, esp
  00094	a5		 movsd
  00095	a5		 movsd
  00096	a5		 movsd
  00097	8d 85 ec fe ff
	ff		 lea	 eax, DWORD PTR _szBuf$535260[ebp]
  0009d	68 00 00 00 00	 push	 OFFSET ??_C@_02DKCKIIND@?$CFs?$AA@
  000a2	50		 push	 eax
  000a3	a5		 movsd
  000a4	e8 00 00 00 00	 call	 ??$sprintf_s@$0BAE@@@YAHAAY0BAE@DPBDZZ ; sprintf_s<260>

; 981  : 					dwCharIdx = pChar->GetIndex();

  000a9	8b 85 e0 fe ff
	ff		 mov	 eax, DWORD PTR _pChar$535261[ebp]
  000af	8b b8 c8 02 00
	00		 mov	 edi, DWORD PTR [eax+712]
  000b5	83 c4 18	 add	 esp, 24			; 00000018H

; 982  : 				}
; 983  : 				else

  000b8	33 f6		 xor	 esi, esi
  000ba	eb 2a		 jmp	 SHORT $LN1@CreateOwne
$LN2@CreateOwne:

; 984  : 				{
; 985  : 					sprintf_s( szBuf, STR(1) );

  000bc	56		 push	 esi
  000bd	6a 01		 push	 1
  000bf	68 00 00 00 00	 push	 OFFSET ??_C@_00CNPNBAHC@?$AA@
  000c4	68 00 00 00 00	 push	 OFFSET ??_C@_0CC@LJAPDIMO@SingleSettingWnd?3?3CreateOwnerLis@
  000c9	ff 15 00 00 00
	00		 call	 DWORD PTR __imp_?GetSingleton@ioStringManager@@SAAAV1@XZ
  000cf	8b c8		 mov	 ecx, eax
  000d1	ff 15 00 00 00
	00		 call	 DWORD PTR __imp_?GetString@ioStringManager@@QAEPADPBD0HW4FileNamePrefix@1@@Z
  000d7	50		 push	 eax
  000d8	8d 85 ec fe ff
	ff		 lea	 eax, DWORD PTR _szBuf$535260[ebp]
  000de	50		 push	 eax
  000df	e8 00 00 00 00	 call	 ??$sprintf_s@$0BAE@@@YAHAAY0BAE@DPBDZZ ; sprintf_s<260>
  000e4	59		 pop	 ecx
  000e5	59		 pop	 ecx
$LN1@CreateOwne:

; 986  : 				}
; 987  : 
; 988  : 				pList->AddList( ID_OWER_LIST, dwCharIdx, szBuf, NULL );

  000e6	8d 85 ec fe ff
	ff		 lea	 eax, DWORD PTR _szBuf$535260[ebp]
  000ec	50		 push	 eax
  000ed	8d 8d d0 fe ff
	ff		 lea	 ecx, DWORD PTR $T537713[ebp]
  000f3	ff 15 00 00 00
	00		 call	 DWORD PTR __imp_??0ioHashString@@QAE@PBD@Z
  000f9	8b 8d e4 fe ff
	ff		 mov	 ecx, DWORD PTR _pList$[ebp]
  000ff	56		 push	 esi
  00100	8d 85 d0 fe ff
	ff		 lea	 eax, DWORD PTR $T537713[ebp]
  00106	50		 push	 eax
  00107	57		 push	 edi
  00108	68 ed 03 00 00	 push	 1005			; 000003edH
  0010d	89 75 fc	 mov	 DWORD PTR __$EHRec$[ebp+8], esi
  00110	e8 00 00 00 00	 call	 ?AddList@StringScrollListWnd@@QAEXHHABVioHashString@@PAVioUIRenderImage@@@Z ; StringScrollListWnd::AddList
  00115	83 4d fc ff	 or	 DWORD PTR __$EHRec$[ebp+8], -1
  00119	8d 8d d0 fe ff
	ff		 lea	 ecx, DWORD PTR $T537713[ebp]
  0011f	ff 15 00 00 00
	00		 call	 DWORD PTR __imp_??1ioHashString@@QAE@XZ
  00125	8b 43 2c	 mov	 eax, DWORD PTR [ebx+44]
  00128	8b 4b 30	 mov	 ecx, DWORD PTR [ebx+48]
  0012b	ff 85 e8 fe ff
	ff		 inc	 DWORD PTR _i$535255[ebp]
  00131	2b c8		 sub	 ecx, eax
  00133	c1 f9 02	 sar	 ecx, 2
  00136	39 8d e8 fe ff
	ff		 cmp	 DWORD PTR _i$535255[ebp], ecx
  0013c	0f 8c 32 ff ff
	ff		 jl	 $LN5@CreateOwne
$LN3@CreateOwne:

; 989  : 			}
; 990  : 		}
; 991  : 	}
; 992  : }

  00142	e8 00 00 00 00	 call	 __EH_epilog3_GS
  00147	c3		 ret	 0
_TEXT	ENDS
;	COMDAT text$x
text$x	SEGMENT
__unwindfunclet$?CreateOwnerList@SingleSettingWnd@@IAEXXZ$0:
  00000	8d 8d d0 fe ff
	ff		 lea	 ecx, DWORD PTR $T537713[ebp]
  00006	ff 25 00 00 00
	00		 jmp	 DWORD PTR __imp_??1ioHashString@@QAE@XZ
__ehhandler$?CreateOwnerList@SingleSettingWnd@@IAEXXZ:
  0000c	8b 54 24 08	 mov	 edx, DWORD PTR [esp+8]
  00010	8d 42 0c	 lea	 eax, DWORD PTR [edx+12]
  00013	8b 8a cc fe ff
	ff		 mov	 ecx, DWORD PTR [edx-308]
  00019	33 c8		 xor	 ecx, eax
  0001b	e8 00 00 00 00	 call	 @__security_check_cookie@4
  00020	8b 4a fc	 mov	 ecx, DWORD PTR [edx-4]
  00023	33 c8		 xor	 ecx, eax
  00025	e8 00 00 00 00	 call	 @__security_check_cookie@4
  0002a	b8 00 00 00 00	 mov	 eax, OFFSET __ehfuncinfo$?CreateOwnerList@SingleSettingWnd@@IAEXXZ
  0002f	e9 00 00 00 00	 jmp	 ___CxxFrameHandler3
text$x	ENDS
?CreateOwnerList@SingleSettingWnd@@IAEXXZ ENDP		; SingleSettingWnd::CreateOwnerList
PUBLIC	?OpenOwnerList@SingleSettingWnd@@IAEXPAVioWnd@@@Z ; SingleSettingWnd::OpenOwnerList
; Function compile flags: /Ogsp
;	COMDAT ?OpenOwnerList@SingleSettingWnd@@IAEXPAVioWnd@@@Z
_TEXT	SEGMENT
_pOpenWnd$ = 8						; size = 4
?OpenOwnerList@SingleSettingWnd@@IAEXPAVioWnd@@@Z PROC	; SingleSettingWnd::OpenOwnerList, COMDAT
; _this$ = ecx

; 995  : {	

  00000	55		 push	 ebp
  00001	8b ec		 mov	 ebp, esp
  00003	56		 push	 esi
  00004	57		 push	 edi

; 996  : 	StringScrollListWnd *pList = dynamic_cast<StringScrollListWnd *>( FindChildWnd( ID_OWER_LIST ) );

  00005	6a 00		 push	 0
  00007	68 00 00 00 00	 push	 OFFSET ??_R0?AVStringScrollListWnd@@@8
  0000c	68 00 00 00 00	 push	 OFFSET ??_R0?AVioWnd@@@8
  00011	6a 00		 push	 0
  00013	68 ed 03 00 00	 push	 1005			; 000003edH
  00018	8b f9		 mov	 edi, ecx
  0001a	ff 15 00 00 00
	00		 call	 DWORD PTR __imp_?FindChildWnd@ioWnd@@QAEPAV1@K@Z
  00020	50		 push	 eax
  00021	e8 00 00 00 00	 call	 ___RTDynamicCast
  00026	8b f0		 mov	 esi, eax
  00028	83 c4 14	 add	 esp, 20			; 00000014H

; 997  : 	if( pList )

  0002b	85 f6		 test	 esi, esi
  0002d	74 31		 je	 SHORT $LN1@OpenOwnerL

; 998  : 	{
; 999  : 		pList->SetList( pOpenWnd, pOpenWnd->GetXPos(), pOpenWnd->GetYPos() + 24 );

  0002f	8b 4d 08	 mov	 ecx, DWORD PTR _pOpenWnd$[ebp]
  00032	6a 00		 push	 0
  00034	ff 15 00 00 00
	00		 call	 DWORD PTR __imp_?GetYPos@ioWnd@@QBEHXZ
  0003a	8b 4d 08	 mov	 ecx, DWORD PTR _pOpenWnd$[ebp]
  0003d	83 c0 18	 add	 eax, 24			; 00000018H
  00040	50		 push	 eax
  00041	ff 15 00 00 00
	00		 call	 DWORD PTR __imp_?GetXPos@ioWnd@@QBEHXZ
  00047	50		 push	 eax
  00048	ff 75 08	 push	 DWORD PTR _pOpenWnd$[ebp]
  0004b	8b ce		 mov	 ecx, esi
  0004d	e8 00 00 00 00	 call	 ?SetList@StringScrollListWnd@@QAEXPAVioWnd@@HHW4OpenStyle@1@@Z ; StringScrollListWnd::SetList

; 1000 : 		CreateOwnerList();

  00052	8b cf		 mov	 ecx, edi
  00054	e8 00 00 00 00	 call	 ?CreateOwnerList@SingleSettingWnd@@IAEXXZ ; SingleSettingWnd::CreateOwnerList

; 1001 : 		pList->ShowListWnd();

  00059	8b ce		 mov	 ecx, esi
  0005b	e8 00 00 00 00	 call	 ?ShowListWnd@StringScrollListWnd@@QAEXXZ ; StringScrollListWnd::ShowListWnd
$LN1@OpenOwnerL:
  00060	5f		 pop	 edi
  00061	5e		 pop	 esi

; 1002 : 	}
; 1003 : }

  00062	5d		 pop	 ebp
  00063	c2 04 00	 ret	 4
?OpenOwnerList@SingleSettingWnd@@IAEXPAVioWnd@@@Z ENDP	; SingleSettingWnd::OpenOwnerList
_TEXT	ENDS
PUBLIC	?UpdteOwner@SingleSettingWnd@@IAEXXZ		; SingleSettingWnd::UpdteOwner
EXTRN	__imp_??9ioHashString@@QBE_NABV0@@Z:PROC
EXTRN	?GetOwnerChar@ioPlayStage@@QAEPAVioBaseChar@@XZ:PROC ; ioPlayStage::GetOwnerChar
; Function compile flags: /Ogsp
;	COMDAT ?UpdteOwner@SingleSettingWnd@@IAEXXZ
_TEXT	SEGMENT
?UpdteOwner@SingleSettingWnd@@IAEXXZ PROC		; SingleSettingWnd::UpdteOwner, COMDAT
; _this$ = ecx

; 1006 : {

  00000	56		 push	 esi
  00001	57		 push	 edi
  00002	8b f9		 mov	 edi, ecx

; 1007 : 	ioPlayStage* pStage = g_GUIMgr.GetPlayStage();

  00004	e8 00 00 00 00	 call	 ?GetSingleton@ioSP2GUIManager@@SAAAV1@XZ ; ioSP2GUIManager::GetSingleton
  00009	8b b0 e8 04 00
	00		 mov	 esi, DWORD PTR [eax+1256]

; 1008 : 	if( pStage && pStage->GetOwnerChar() )

  0000f	85 f6		 test	 esi, esi
  00011	74 3c		 je	 SHORT $LN1@UpdteOwner
  00013	8b ce		 mov	 ecx, esi
  00015	e8 00 00 00 00	 call	 ?GetOwnerChar@ioPlayStage@@QAEPAVioBaseChar@@XZ ; ioPlayStage::GetOwnerChar
  0001a	85 c0		 test	 eax, eax
  0001c	74 31		 je	 SHORT $LN1@UpdteOwner

; 1009 : 	{
; 1010 : 		if( m_CurrOwner != pStage->GetOwnerChar()->GetCharName() )

  0001e	8b ce		 mov	 ecx, esi
  00020	e8 00 00 00 00	 call	 ?GetOwnerChar@ioPlayStage@@QAEPAVioBaseChar@@XZ ; ioPlayStage::GetOwnerChar
  00025	05 d4 02 00 00	 add	 eax, 724		; 000002d4H
  0002a	50		 push	 eax
  0002b	8d 8f 6c 01 00
	00		 lea	 ecx, DWORD PTR [edi+364]
  00031	ff 15 00 00 00
	00		 call	 DWORD PTR __imp_??9ioHashString@@QBE_NABV0@@Z
  00037	84 c0		 test	 al, al
  00039	74 14		 je	 SHORT $LN1@UpdteOwner

; 1011 : 			ChangeOwnerButtonTitle( pStage->GetOwnerChar()->GetCharName() );

  0003b	8b ce		 mov	 ecx, esi
  0003d	e8 00 00 00 00	 call	 ?GetOwnerChar@ioPlayStage@@QAEPAVioBaseChar@@XZ ; ioPlayStage::GetOwnerChar
  00042	05 d4 02 00 00	 add	 eax, 724		; 000002d4H
  00047	50		 push	 eax
  00048	8b cf		 mov	 ecx, edi
  0004a	e8 00 00 00 00	 call	 ?ChangeOwnerButtonTitle@SingleSettingWnd@@QAEXABVioHashString@@@Z ; SingleSettingWnd::ChangeOwnerButtonTitle
$LN1@UpdteOwner:

; 1012 : 	}
; 1013 : }

  0004f	5f		 pop	 edi
  00050	5e		 pop	 esi
  00051	c3		 ret	 0
?UpdteOwner@SingleSettingWnd@@IAEXXZ ENDP		; SingleSettingWnd::UpdteOwner
_TEXT	ENDS
PUBLIC	__real@3ff0000000000000
EXTRN	?IsMouseBusy@ioApplication@@QAE_NXZ:PROC	; ioApplication::IsMouseBusy
EXTRN	?GetSingleton@ioApplication@@SAAAV1@XZ:PROC	; ioApplication::GetSingleton
EXTRN	__imp_?iwm_wheel@ioWnd@@UAEXH@Z:PROC
;	COMDAT __real@3ff0000000000000
CONST	SEGMENT
__real@3ff0000000000000 DQ 03ff0000000000000r	; 1
; Function compile flags: /Ogsp
CONST	ENDS
;	COMDAT ?iwm_wheel@SingleSettingWnd@@UAEXH@Z
_TEXT	SEGMENT
_zDelta$ = 8						; size = 4
?iwm_wheel@SingleSettingWnd@@UAEXH@Z PROC		; SingleSettingWnd::iwm_wheel, COMDAT
; _this$ = ecx

; 1029 : {

  00000	55		 push	 ebp
  00001	8b ec		 mov	 ebp, esp
  00003	56		 push	 esi
  00004	57		 push	 edi
  00005	8b f9		 mov	 edi, ecx

; 1030 : 	if( !IsShow() )

  00007	ff 15 00 00 00
	00		 call	 DWORD PTR __imp_?IsShow@ioWnd@@QBE_NXZ
  0000d	84 c0		 test	 al, al
  0000f	75 0d		 jne	 SHORT $LN8@iwm_wheel

; 1031 : 	{
; 1032 : 		ioWnd::iwm_wheel( zDelta );

  00011	ff 75 08	 push	 DWORD PTR _zDelta$[ebp]
  00014	8b cf		 mov	 ecx, edi
  00016	ff 15 00 00 00
	00		 call	 DWORD PTR __imp_?iwm_wheel@ioWnd@@UAEXH@Z

; 1033 : 	}
; 1034 : 	else

  0001c	eb 72		 jmp	 SHORT $LN1@iwm_wheel
$LN8@iwm_wheel:

; 1035 : 	{
; 1036 : 		if( g_App.IsMouseBusy() )

  0001e	e8 00 00 00 00	 call	 ?GetSingleton@ioApplication@@SAAAV1@XZ ; ioApplication::GetSingleton
  00023	8b c8		 mov	 ecx, eax
  00025	e8 00 00 00 00	 call	 ?IsMouseBusy@ioApplication@@QAE_NXZ ; ioApplication::IsMouseBusy
  0002a	84 c0		 test	 al, al
  0002c	75 77		 jne	 SHORT $LN9@iwm_wheel

; 1037 : 			return;
; 1038 : 
; 1039 : 		ioScroll *pScroll = (ioScroll*)FindChildWnd( ID_SCROLL );

  0002e	68 ee 03 00 00	 push	 1006			; 000003eeH
  00033	8b cf		 mov	 ecx, edi
  00035	ff 15 00 00 00
	00		 call	 DWORD PTR __imp_?FindChildWnd@ioWnd@@QAEPAV1@K@Z
  0003b	8b f0		 mov	 esi, eax

; 1040 : 		if( pScroll == NULL )

  0003d	85 f6		 test	 esi, esi
  0003f	74 64		 je	 SHORT $LN9@iwm_wheel

; 1041 : 			return;
; 1042 : 
; 1043 : 		if( !pScroll->IsShow() )

  00041	8b ce		 mov	 ecx, esi
  00043	ff 15 00 00 00
	00		 call	 DWORD PTR __imp_?IsShow@ioWnd@@QBE_NXZ
  00049	84 c0		 test	 al, al
  0004b	74 58		 je	 SHORT $LN9@iwm_wheel

; 1044 : 			return;
; 1045 : 
; 1046 : 		if( zDelta == WHEEL_DELTA )

  0004d	83 7d 08 78	 cmp	 DWORD PTR _zDelta$[ebp], 120 ; 00000078H
  00051	75 15		 jne	 SHORT $LN3@iwm_wheel

; 1047 : 			pScroll->SetScrollPos( m_fCurrAlpha - 1 );

  00053	f3 0f 10 87 7c
	01 00 00	 movss	 xmm0, DWORD PTR [edi+380]
  0005b	0f 5a c0	 cvtps2pd xmm0, xmm0
  0005e	f2 0f 5c 05 00
	00 00 00	 subsd	 xmm0, QWORD PTR __real@3ff0000000000000
  00066	eb 19		 jmp	 SHORT $LN11@iwm_wheel
$LN3@iwm_wheel:

; 1048 : 		else if( zDelta == -WHEEL_DELTA )

  00068	83 7d 08 88	 cmp	 DWORD PTR _zDelta$[ebp], -120 ; ffffff88H
  0006c	75 22		 jne	 SHORT $LN1@iwm_wheel

; 1049 : 			pScroll->SetScrollPos( m_fCurrAlpha + 1 );

  0006e	f3 0f 10 87 7c
	01 00 00	 movss	 xmm0, DWORD PTR [edi+380]
  00076	0f 5a c0	 cvtps2pd xmm0, xmm0
  00079	f2 0f 58 05 00
	00 00 00	 addsd	 xmm0, QWORD PTR __real@3ff0000000000000
$LN11@iwm_wheel:
  00081	8b 06		 mov	 eax, DWORD PTR [esi]
  00083	f2 0f 2c c8	 cvttsd2si ecx, xmm0
  00087	51		 push	 ecx
  00088	8b ce		 mov	 ecx, esi
  0008a	ff 90 38 01 00
	00		 call	 DWORD PTR [eax+312]
$LN1@iwm_wheel:

; 1050 : 	}
; 1051 : 
; 1052 : 	SetAlpha( m_fCurrAlpha );

  00090	f3 0f 10 87 7c
	01 00 00	 movss	 xmm0, DWORD PTR [edi+380]
  00098	51		 push	 ecx
  00099	8b cf		 mov	 ecx, edi
  0009b	f3 0f 11 04 24	 movss	 DWORD PTR [esp], xmm0
  000a0	e8 00 00 00 00	 call	 ?SetAlpha@SingleSettingWnd@@QAEXM@Z ; SingleSettingWnd::SetAlpha
$LN9@iwm_wheel:
  000a5	5f		 pop	 edi
  000a6	5e		 pop	 esi

; 1053 : }

  000a7	5d		 pop	 ebp
  000a8	c2 04 00	 ret	 4
?iwm_wheel@SingleSettingWnd@@UAEXH@Z ENDP		; SingleSettingWnd::iwm_wheel
; Function compile flags: /Ogsp
_TEXT	ENDS
;	COMDAT ?iwm_vscroll@SingleSettingWnd@@UAEXKH@Z
_TEXT	SEGMENT
_dwID$ = 8						; size = 4
_curPos$ = 12						; size = 4
?iwm_vscroll@SingleSettingWnd@@UAEXKH@Z PROC		; SingleSettingWnd::iwm_vscroll, COMDAT
; _this$ = ecx

; 1056 : {

  00000	55		 push	 ebp
  00001	8b ec		 mov	 ebp, esp
  00003	56		 push	 esi

; 1057 : 	ioScroll *pScroll = (ioScroll*)FindChildWnd( ID_SCROLL );

  00004	68 ee 03 00 00	 push	 1006			; 000003eeH
  00009	8b f1		 mov	 esi, ecx
  0000b	ff 15 00 00 00
	00		 call	 DWORD PTR __imp_?FindChildWnd@ioWnd@@QAEPAV1@K@Z

; 1058 : 	if( pScroll == NULL )

  00011	85 c0		 test	 eax, eax
  00013	74 29		 je	 SHORT $LN3@iwm_vscrol

; 1059 : 		return;
; 1060 : 
; 1061 : 	if( !pScroll->IsShow() )

  00015	8b c8		 mov	 ecx, eax
  00017	ff 15 00 00 00
	00		 call	 DWORD PTR __imp_?IsShow@ioWnd@@QBE_NXZ
  0001d	84 c0		 test	 al, al
  0001f	74 1d		 je	 SHORT $LN3@iwm_vscrol

; 1062 : 		return;
; 1063 : 
; 1064 : 	m_fCurrAlpha = curPos;

  00021	66 0f 6e 45 0c	 movd	 xmm0, DWORD PTR _curPos$[ebp]

; 1065 : 	SetAlpha( m_fCurrAlpha );

  00026	51		 push	 ecx
  00027	0f 5b c0	 cvtdq2ps xmm0, xmm0
  0002a	8b ce		 mov	 ecx, esi
  0002c	f3 0f 11 86 7c
	01 00 00	 movss	 DWORD PTR [esi+380], xmm0
  00034	f3 0f 11 04 24	 movss	 DWORD PTR [esp], xmm0
  00039	e8 00 00 00 00	 call	 ?SetAlpha@SingleSettingWnd@@QAEXM@Z ; SingleSettingWnd::SetAlpha
$LN3@iwm_vscrol:
  0003e	5e		 pop	 esi

; 1066 : }

  0003f	5d		 pop	 ebp
  00040	c2 08 00	 ret	 8
?iwm_vscroll@SingleSettingWnd@@UAEXKH@Z ENDP		; SingleSettingWnd::iwm_vscroll
_TEXT	ENDS
PUBLIC	??D?$_Vector_iterator@V?$_Vector_val@VioHashString@@V?$allocator@VioHashString@@@std@@@std@@@std@@QBEAAVioHashString@@XZ ; std::_Vector_iterator<std::_Vector_val<ioHashString,std::allocator<ioHashString> > >::operator*
; Function compile flags: /Ogsp
; File c:\program files (x86)\microsoft visual studio 10.0\vc\include\vector
;	COMDAT ??D?$_Vector_iterator@V?$_Vector_val@VioHashString@@V?$allocator@VioHashString@@@std@@@std@@@std@@QBEAAVioHashString@@XZ
_TEXT	SEGMENT
??D?$_Vector_iterator@V?$_Vector_val@VioHashString@@V?$allocator@VioHashString@@@std@@@std@@@std@@QBEAAVioHashString@@XZ PROC ; std::_Vector_iterator<std::_Vector_val<ioHashString,std::allocator<ioHashString> > >::operator*, COMDAT
; _this$ = ecx

; 322  : 		return ((reference)**(_Mybase *)this);

  00000	8b 01		 mov	 eax, DWORD PTR [ecx]

; 323  : 		}

  00002	c3		 ret	 0
??D?$_Vector_iterator@V?$_Vector_val@VioHashString@@V?$allocator@VioHashString@@@std@@@std@@@std@@QBEAAVioHashString@@XZ ENDP ; std::_Vector_iterator<std::_Vector_val<ioHashString,std::allocator<ioHashString> > >::operator*
_TEXT	ENDS
PUBLIC	??E?$_Vector_iterator@V?$_Vector_val@VioHashString@@V?$allocator@VioHashString@@@std@@@std@@@std@@QAEAAV01@XZ ; std::_Vector_iterator<std::_Vector_val<ioHashString,std::allocator<ioHashString> > >::operator++
; Function compile flags: /Ogsp
;	COMDAT ??E?$_Vector_iterator@V?$_Vector_val@VioHashString@@V?$allocator@VioHashString@@@std@@@std@@@std@@QAEAAV01@XZ
_TEXT	SEGMENT
??E?$_Vector_iterator@V?$_Vector_val@VioHashString@@V?$allocator@VioHashString@@@std@@@std@@@std@@QAEAAV01@XZ PROC ; std::_Vector_iterator<std::_Vector_val<ioHashString,std::allocator<ioHashString> > >::operator++, COMDAT
; _this$ = ecx

; 331  : 		{	// preincrement

  00000	8b c1		 mov	 eax, ecx

; 332  : 		++*(_Mybase *)this;

  00002	83 00 10	 add	 DWORD PTR [eax], 16	; 00000010H

; 333  : 		return (*this);
; 334  : 		}

  00005	c3		 ret	 0
??E?$_Vector_iterator@V?$_Vector_val@VioHashString@@V?$allocator@VioHashString@@@std@@@std@@@std@@QAEAAV01@XZ ENDP ; std::_Vector_iterator<std::_Vector_val<ioHashString,std::allocator<ioHashString> > >::operator++
_TEXT	ENDS
PUBLIC	??0?$_Vector_val@UUserInfo@DeveloperInfoWnd@@V?$allocator@UUserInfo@DeveloperInfoWnd@@@std@@@std@@QAE@V?$allocator@UUserInfo@DeveloperInfoWnd@@@1@@Z ; std::_Vector_val<DeveloperInfoWnd::UserInfo,std::allocator<DeveloperInfoWnd::UserInfo> >::_Vector_val<DeveloperInfoWnd::UserInfo,std::allocator<DeveloperInfoWnd::UserInfo> >
; Function compile flags: /Ogsp
;	COMDAT ??0?$_Vector_val@UUserInfo@DeveloperInfoWnd@@V?$allocator@UUserInfo@DeveloperInfoWnd@@@std@@@std@@QAE@V?$allocator@UUserInfo@DeveloperInfoWnd@@@1@@Z
_TEXT	SEGMENT
__Al$ = 8						; size = 1
??0?$_Vector_val@UUserInfo@DeveloperInfoWnd@@V?$allocator@UUserInfo@DeveloperInfoWnd@@@std@@@std@@QAE@V?$allocator@UUserInfo@DeveloperInfoWnd@@@1@@Z PROC ; std::_Vector_val<DeveloperInfoWnd::UserInfo,std::allocator<DeveloperInfoWnd::UserInfo> >::_Vector_val<DeveloperInfoWnd::UserInfo,std::allocator<DeveloperInfoWnd::UserInfo> >, COMDAT
; _this$ = ecx

; 426  : 		{	// construct allocator from _Al

  00000	8b c1		 mov	 eax, ecx

; 427  : 		_Myfirst = 0;

  00002	33 c9		 xor	 ecx, ecx
  00004	89 08		 mov	 DWORD PTR [eax], ecx

; 428  : 		_Mylast = 0;

  00006	89 48 04	 mov	 DWORD PTR [eax+4], ecx

; 429  : 		_Myend = 0;

  00009	89 48 08	 mov	 DWORD PTR [eax+8], ecx

; 430  : 		}

  0000c	c2 04 00	 ret	 4
??0?$_Vector_val@UUserInfo@DeveloperInfoWnd@@V?$allocator@UUserInfo@DeveloperInfoWnd@@@std@@@std@@QAE@V?$allocator@UUserInfo@DeveloperInfoWnd@@@1@@Z ENDP ; std::_Vector_val<DeveloperInfoWnd::UserInfo,std::allocator<DeveloperInfoWnd::UserInfo> >::_Vector_val<DeveloperInfoWnd::UserInfo,std::allocator<DeveloperInfoWnd::UserInfo> >
_TEXT	ENDS
PUBLIC	?max_size@?$vector@UUserInfo@DeveloperInfoWnd@@V?$allocator@UUserInfo@DeveloperInfoWnd@@@std@@@std@@QBEIXZ ; std::vector<DeveloperInfoWnd::UserInfo,std::allocator<DeveloperInfoWnd::UserInfo> >::max_size
; Function compile flags: /Ogsp
;	COMDAT ?max_size@?$vector@UUserInfo@DeveloperInfoWnd@@V?$allocator@UUserInfo@DeveloperInfoWnd@@@std@@@std@@QBEIXZ
_TEXT	SEGMENT
?max_size@?$vector@UUserInfo@DeveloperInfoWnd@@V?$allocator@UUserInfo@DeveloperInfoWnd@@@std@@@std@@QBEIXZ PROC ; std::vector<DeveloperInfoWnd::UserInfo,std::allocator<DeveloperInfoWnd::UserInfo> >::max_size, COMDAT
; _this$ = ecx

; 884  : 		return (this->_Alval.max_size());

  00000	b8 66 66 66 06	 mov	 eax, 107374182		; 06666666H

; 885  : 		}

  00005	c3		 ret	 0
?max_size@?$vector@UUserInfo@DeveloperInfoWnd@@V?$allocator@UUserInfo@DeveloperInfoWnd@@@std@@@std@@QBEIXZ ENDP ; std::vector<DeveloperInfoWnd::UserInfo,std::allocator<DeveloperInfoWnd::UserInfo> >::max_size
_TEXT	ENDS
PUBLIC	?_Grow_to@?$vector@UUserInfo@DeveloperInfoWnd@@V?$allocator@UUserInfo@DeveloperInfoWnd@@@std@@@std@@IBEII@Z ; std::vector<DeveloperInfoWnd::UserInfo,std::allocator<DeveloperInfoWnd::UserInfo> >::_Grow_to
; Function compile flags: /Ogsp
;	COMDAT ?_Grow_to@?$vector@UUserInfo@DeveloperInfoWnd@@V?$allocator@UUserInfo@DeveloperInfoWnd@@@std@@@std@@IBEII@Z
_TEXT	SEGMENT
__Count$ = 8						; size = 4
?_Grow_to@?$vector@UUserInfo@DeveloperInfoWnd@@V?$allocator@UUserInfo@DeveloperInfoWnd@@@std@@@std@@IBEII@Z PROC ; std::vector<DeveloperInfoWnd::UserInfo,std::allocator<DeveloperInfoWnd::UserInfo> >::_Grow_to, COMDAT
; _this$ = ecx

; 1274 : 		{	// grow by 50% or at least to _Count

  00000	55		 push	 ebp
  00001	8b ec		 mov	 ebp, esp

; 1275 : 		size_type _Capacity = capacity();

  00003	8b 41 08	 mov	 eax, DWORD PTR [ecx+8]
  00006	2b 01		 sub	 eax, DWORD PTR [ecx]
  00008	6a 28		 push	 40			; 00000028H
  0000a	99		 cdq
  0000b	59		 pop	 ecx
  0000c	f7 f9		 idiv	 ecx

; 1276 : 
; 1277 : 		_Capacity = max_size() - _Capacity / 2 < _Capacity
; 1278 : 			? 0 : _Capacity + _Capacity / 2;	// try to grow by 50%

  0000e	ba 66 66 66 06	 mov	 edx, 107374182		; 06666666H
  00013	8b c8		 mov	 ecx, eax
  00015	d1 e9		 shr	 ecx, 1
  00017	2b d1		 sub	 edx, ecx
  00019	3b d0		 cmp	 edx, eax
  0001b	73 04		 jae	 SHORT $LN4@Grow_to
  0001d	33 c0		 xor	 eax, eax
  0001f	eb 02		 jmp	 SHORT $LN5@Grow_to
$LN4@Grow_to:
  00021	03 c1		 add	 eax, ecx
$LN5@Grow_to:

; 1279 : 		if (_Capacity < _Count)

  00023	3b 45 08	 cmp	 eax, DWORD PTR __Count$[ebp]

; 1280 : 			_Capacity = _Count;

  00026	0f 42 45 08	 cmovb	 eax, DWORD PTR __Count$[ebp]

; 1281 : 		return (_Capacity);
; 1282 : 		}

  0002a	5d		 pop	 ebp
  0002b	c2 04 00	 ret	 4
?_Grow_to@?$vector@UUserInfo@DeveloperInfoWnd@@V?$allocator@UUserInfo@DeveloperInfoWnd@@@std@@@std@@IBEII@Z ENDP ; std::vector<DeveloperInfoWnd::UserInfo,std::allocator<DeveloperInfoWnd::UserInfo> >::_Grow_to
_TEXT	ENDS
PUBLIC	??0?$_Vector_iterator@V?$_Vector_val@UUserInfo@DeveloperInfoWnd@@V?$allocator@UUserInfo@DeveloperInfoWnd@@@std@@@std@@@std@@QAE@PAUUserInfo@DeveloperInfoWnd@@PBU_Container_base0@1@@Z ; std::_Vector_iterator<std::_Vector_val<DeveloperInfoWnd::UserInfo,std::allocator<DeveloperInfoWnd::UserInfo> > >::_Vector_iterator<std::_Vector_val<DeveloperInfoWnd::UserInfo,std::allocator<DeveloperInfoWnd::UserInfo> > >
; Function compile flags: /Ogsp
;	COMDAT ??0?$_Vector_iterator@V?$_Vector_val@UUserInfo@DeveloperInfoWnd@@V?$allocator@UUserInfo@DeveloperInfoWnd@@@std@@@std@@@std@@QAE@PAUUserInfo@DeveloperInfoWnd@@PBU_Container_base0@1@@Z
_TEXT	SEGMENT
__Parg$ = 8						; size = 4
__Pvector$ = 12						; size = 4
??0?$_Vector_iterator@V?$_Vector_val@UUserInfo@DeveloperInfoWnd@@V?$allocator@UUserInfo@DeveloperInfoWnd@@@std@@@std@@@std@@QAE@PAUUserInfo@DeveloperInfoWnd@@PBU_Container_base0@1@@Z PROC ; std::_Vector_iterator<std::_Vector_val<DeveloperInfoWnd::UserInfo,std::allocator<DeveloperInfoWnd::UserInfo> > >::_Vector_iterator<std::_Vector_val<DeveloperInfoWnd::UserInfo,std::allocator<DeveloperInfoWnd::UserInfo> > >, COMDAT
; _this$ = ecx

; 304  : 		{	// construct with pointer _Parg

  00000	55		 push	 ebp
  00001	8b ec		 mov	 ebp, esp
  00003	8b c1		 mov	 eax, ecx
  00005	8b 4d 08	 mov	 ecx, DWORD PTR __Parg$[ebp]
  00008	89 08		 mov	 DWORD PTR [eax], ecx

; 305  : 		}

  0000a	5d		 pop	 ebp
  0000b	c2 08 00	 ret	 8
??0?$_Vector_iterator@V?$_Vector_val@UUserInfo@DeveloperInfoWnd@@V?$allocator@UUserInfo@DeveloperInfoWnd@@@std@@@std@@@std@@QAE@PAUUserInfo@DeveloperInfoWnd@@PBU_Container_base0@1@@Z ENDP ; std::_Vector_iterator<std::_Vector_val<DeveloperInfoWnd::UserInfo,std::allocator<DeveloperInfoWnd::UserInfo> > >::_Vector_iterator<std::_Vector_val<DeveloperInfoWnd::UserInfo,std::allocator<DeveloperInfoWnd::UserInfo> > >
_TEXT	ENDS
PUBLIC	?allocate@?$allocator@UUserInfo@DeveloperInfoWnd@@@std@@QAEPAUUserInfo@DeveloperInfoWnd@@I@Z ; std::allocator<DeveloperInfoWnd::UserInfo>::allocate
; Function compile flags: /Ogsp
; File c:\program files (x86)\microsoft visual studio 10.0\vc\include\xmemory
;	COMDAT ?allocate@?$allocator@UUserInfo@DeveloperInfoWnd@@@std@@QAEPAUUserInfo@DeveloperInfoWnd@@I@Z
_TEXT	SEGMENT
__Count$ = 8						; size = 4
?allocate@?$allocator@UUserInfo@DeveloperInfoWnd@@@std@@QAEPAUUserInfo@DeveloperInfoWnd@@I@Z PROC ; std::allocator<DeveloperInfoWnd::UserInfo>::allocate, COMDAT
; _this$ = ecx

; 186  : 		{	// allocate array of _Count elements

  00000	55		 push	 ebp
  00001	8b ec		 mov	 ebp, esp

; 187  : 		return (_Allocate(_Count, (pointer)0));

  00003	6a 00		 push	 0
  00005	ff 75 08	 push	 DWORD PTR __Count$[ebp]
  00008	e8 00 00 00 00	 call	 ??$_Allocate@UUserInfo@DeveloperInfoWnd@@@std@@YAPAUUserInfo@DeveloperInfoWnd@@IPAU12@@Z ; std::_Allocate<DeveloperInfoWnd::UserInfo>
  0000d	59		 pop	 ecx
  0000e	59		 pop	 ecx

; 188  : 		}

  0000f	5d		 pop	 ebp
  00010	c2 04 00	 ret	 4
?allocate@?$allocator@UUserInfo@DeveloperInfoWnd@@@std@@QAEPAUUserInfo@DeveloperInfoWnd@@I@Z ENDP ; std::allocator<DeveloperInfoWnd::UserInfo>::allocate
_TEXT	ENDS
PUBLIC	??8?$_Vector_const_iterator@V?$_Vector_val@UUserInfo@DeveloperInfoWnd@@V?$allocator@UUserInfo@DeveloperInfoWnd@@@std@@@std@@@std@@QBE_NABV01@@Z ; std::_Vector_const_iterator<std::_Vector_val<DeveloperInfoWnd::UserInfo,std::allocator<DeveloperInfoWnd::UserInfo> > >::operator==
; Function compile flags: /Ogsp
; File c:\program files (x86)\microsoft visual studio 10.0\vc\include\vector
;	COMDAT ??8?$_Vector_const_iterator@V?$_Vector_val@UUserInfo@DeveloperInfoWnd@@V?$allocator@UUserInfo@DeveloperInfoWnd@@@std@@@std@@@std@@QBE_NABV01@@Z
_TEXT	SEGMENT
__Right$ = 8						; size = 4
??8?$_Vector_const_iterator@V?$_Vector_val@UUserInfo@DeveloperInfoWnd@@V?$allocator@UUserInfo@DeveloperInfoWnd@@@std@@@std@@@std@@QBE_NABV01@@Z PROC ; std::_Vector_const_iterator<std::_Vector_val<DeveloperInfoWnd::UserInfo,std::allocator<DeveloperInfoWnd::UserInfo> > >::operator==, COMDAT
; _this$ = ecx

; 201  : 		{	// test for iterator equality

  00000	55		 push	 ebp
  00001	8b ec		 mov	 ebp, esp

; 202  : 		_Compat(_Right);
; 203  : 		return (this->_Ptr == _Right._Ptr);

  00003	8b 01		 mov	 eax, DWORD PTR [ecx]
  00005	8b 4d 08	 mov	 ecx, DWORD PTR __Right$[ebp]
  00008	2b 01		 sub	 eax, DWORD PTR [ecx]
  0000a	f7 d8		 neg	 eax
  0000c	1b c0		 sbb	 eax, eax
  0000e	40		 inc	 eax

; 204  : 		}

  0000f	5d		 pop	 ebp
  00010	c2 04 00	 ret	 4
??8?$_Vector_const_iterator@V?$_Vector_val@UUserInfo@DeveloperInfoWnd@@V?$allocator@UUserInfo@DeveloperInfoWnd@@@std@@@std@@@std@@QBE_NABV01@@Z ENDP ; std::_Vector_const_iterator<std::_Vector_val<DeveloperInfoWnd::UserInfo,std::allocator<DeveloperInfoWnd::UserInfo> > >::operator==
_TEXT	ENDS
PUBLIC	??$construct@AAUUserInfo@DeveloperInfoWnd@@@?$allocator@UUserInfo@DeveloperInfoWnd@@@std@@QAEXPAUUserInfo@DeveloperInfoWnd@@AAU23@@Z ; std::allocator<DeveloperInfoWnd::UserInfo>::construct<DeveloperInfoWnd::UserInfo &>
;	COMDAT xdata$x
; File c:\program files (x86)\microsoft visual studio 10.0\vc\include\utility
xdata$x	SEGMENT
__unwindtable$??$construct@AAUUserInfo@DeveloperInfoWnd@@@?$allocator@UUserInfo@DeveloperInfoWnd@@@std@@QAEXPAUUserInfo@DeveloperInfoWnd@@AAU23@@Z DD 0ffffffffH
	DD	FLAT:__unwindfunclet$??$construct@AAUUserInfo@DeveloperInfoWnd@@@?$allocator@UUserInfo@DeveloperInfoWnd@@@std@@QAEXPAUUserInfo@DeveloperInfoWnd@@AAU23@@Z$0
__ehfuncinfo$??$construct@AAUUserInfo@DeveloperInfoWnd@@@?$allocator@UUserInfo@DeveloperInfoWnd@@@std@@QAEXPAUUserInfo@DeveloperInfoWnd@@AAU23@@Z DD 019930522H
	DD	01H
	DD	FLAT:__unwindtable$??$construct@AAUUserInfo@DeveloperInfoWnd@@@?$allocator@UUserInfo@DeveloperInfoWnd@@@std@@QAEXPAUUserInfo@DeveloperInfoWnd@@AAU23@@Z
	DD	2 DUP(00H)
	DD	2 DUP(00H)
	DD	00H
	DD	01H
; Function compile flags: /Ogsp
; File c:\program files (x86)\microsoft visual studio 10.0\vc\include\xmemory
xdata$x	ENDS
;	COMDAT ??$construct@AAUUserInfo@DeveloperInfoWnd@@@?$allocator@UUserInfo@DeveloperInfoWnd@@@std@@QAEXPAUUserInfo@DeveloperInfoWnd@@AAU23@@Z
_TEXT	SEGMENT
$T537844 = -16						; size = 4
__$EHRec$ = -12						; size = 12
__Ptr$ = 8						; size = 4
__Val$ = 12						; size = 4
??$construct@AAUUserInfo@DeveloperInfoWnd@@@?$allocator@UUserInfo@DeveloperInfoWnd@@@std@@QAEXPAUUserInfo@DeveloperInfoWnd@@AAU23@@Z PROC ; std::allocator<DeveloperInfoWnd::UserInfo>::construct<DeveloperInfoWnd::UserInfo &>, COMDAT
; _this$ = ecx

; 206  : 		void construct(pointer _Ptr, _Other&& _Val)

  00000	6a 04		 push	 4
  00002	b8 00 00 00 00	 mov	 eax, __ehhandler$??$construct@AAUUserInfo@DeveloperInfoWnd@@@?$allocator@UUserInfo@DeveloperInfoWnd@@@std@@QAEXPAUUserInfo@DeveloperInfoWnd@@AAU23@@Z
  00007	e8 00 00 00 00	 call	 __EH_prolog3

; 207  : 		{	// construct object at _Ptr with value _Val
; 208  : 		::new ((void _FARQ *)_Ptr) _Ty(_STD forward<_Other>(_Val));

  0000c	8b 4d 08	 mov	 ecx, DWORD PTR __Ptr$[ebp]
  0000f	89 4d f0	 mov	 DWORD PTR $T537844[ebp], ecx
  00012	83 65 fc 00	 and	 DWORD PTR __$EHRec$[ebp+8], 0
  00016	85 c9		 test	 ecx, ecx
  00018	74 08		 je	 SHORT $LN3@construct
  0001a	ff 75 0c	 push	 DWORD PTR __Val$[ebp]
  0001d	e8 00 00 00 00	 call	 ??0UserInfo@DeveloperInfoWnd@@QAE@ABU01@@Z
$LN3@construct:

; 209  : 		}

  00022	e8 00 00 00 00	 call	 __EH_epilog3
  00027	c2 08 00	 ret	 8
_TEXT	ENDS
;	COMDAT text$x
text$x	SEGMENT
__unwindfunclet$??$construct@AAUUserInfo@DeveloperInfoWnd@@@?$allocator@UUserInfo@DeveloperInfoWnd@@@std@@QAEXPAUUserInfo@DeveloperInfoWnd@@AAU23@@Z$0:
  00000	ff 75 08	 push	 DWORD PTR __Ptr$[ebp]
  00003	ff 75 f0	 push	 DWORD PTR $T537844[ebp]
  00006	e8 00 00 00 00	 call	 ??3@YAXPAX0@Z		; operator delete
  0000b	59		 pop	 ecx
  0000c	59		 pop	 ecx
  0000d	c3		 ret	 0
__ehhandler$??$construct@AAUUserInfo@DeveloperInfoWnd@@@?$allocator@UUserInfo@DeveloperInfoWnd@@@std@@QAEXPAUUserInfo@DeveloperInfoWnd@@AAU23@@Z:
  0000e	8b 54 24 08	 mov	 edx, DWORD PTR [esp+8]
  00012	8d 42 0c	 lea	 eax, DWORD PTR [edx+12]
  00015	8b 4a ec	 mov	 ecx, DWORD PTR [edx-20]
  00018	33 c8		 xor	 ecx, eax
  0001a	e8 00 00 00 00	 call	 @__security_check_cookie@4
  0001f	b8 00 00 00 00	 mov	 eax, OFFSET __ehfuncinfo$??$construct@AAUUserInfo@DeveloperInfoWnd@@@?$allocator@UUserInfo@DeveloperInfoWnd@@@std@@QAEXPAUUserInfo@DeveloperInfoWnd@@AAU23@@Z
  00024	e9 00 00 00 00	 jmp	 ___CxxFrameHandler3
text$x	ENDS
??$construct@AAUUserInfo@DeveloperInfoWnd@@@?$allocator@UUserInfo@DeveloperInfoWnd@@@std@@QAEXPAUUserInfo@DeveloperInfoWnd@@AAU23@@Z ENDP ; std::allocator<DeveloperInfoWnd::UserInfo>::construct<DeveloperInfoWnd::UserInfo &>
PUBLIC	??$_Move@PAUUserInfo@DeveloperInfoWnd@@PAU12@@std@@YAPAUUserInfo@DeveloperInfoWnd@@PAU12@00U_Nonscalar_ptr_iterator_tag@0@@Z ; std::_Move<DeveloperInfoWnd::UserInfo *,DeveloperInfoWnd::UserInfo *>
; Function compile flags: /Ogsp
; File c:\program files (x86)\microsoft visual studio 10.0\vc\include\xutility
;	COMDAT ??$_Move@PAUUserInfo@DeveloperInfoWnd@@PAU12@@std@@YAPAUUserInfo@DeveloperInfoWnd@@PAU12@00U_Nonscalar_ptr_iterator_tag@0@@Z
_TEXT	SEGMENT
__First$ = 8						; size = 4
__Last$ = 12						; size = 4
__Dest$ = 16						; size = 4
___formal$ = 20						; size = 1
??$_Move@PAUUserInfo@DeveloperInfoWnd@@PAU12@@std@@YAPAUUserInfo@DeveloperInfoWnd@@PAU12@00U_Nonscalar_ptr_iterator_tag@0@@Z PROC ; std::_Move<DeveloperInfoWnd::UserInfo *,DeveloperInfoWnd::UserInfo *>, COMDAT

; 2512 : 	{	// move [_First, _Last) to [_Dest, ...), arbitrary iterators

  00000	55		 push	 ebp
  00001	8b ec		 mov	 ebp, esp
  00003	56		 push	 esi

; 2513 : 	for (; _First != _Last; ++_Dest, ++_First)

  00004	8b 75 08	 mov	 esi, DWORD PTR __First$[ebp]
  00007	eb 10		 jmp	 SHORT $LN11@Move
$LL3@Move:

; 2514 : 		*_Dest = _STD move(*_First);

  00009	8b 4d 10	 mov	 ecx, DWORD PTR __Dest$[ebp]
  0000c	56		 push	 esi
  0000d	e8 00 00 00 00	 call	 ??4UserInfo@DeveloperInfoWnd@@QAEAAU01@ABU01@@Z
  00012	83 45 10 28	 add	 DWORD PTR __Dest$[ebp], 40 ; 00000028H
  00016	83 c6 28	 add	 esi, 40			; 00000028H
$LN11@Move:

; 2513 : 	for (; _First != _Last; ++_Dest, ++_First)

  00019	3b 75 0c	 cmp	 esi, DWORD PTR __Last$[ebp]
  0001c	75 eb		 jne	 SHORT $LL3@Move

; 2515 : 	return (_Dest);

  0001e	8b 45 10	 mov	 eax, DWORD PTR __Dest$[ebp]
  00021	5e		 pop	 esi

; 2516 : 	}

  00022	5d		 pop	 ebp
  00023	c3		 ret	 0
??$_Move@PAUUserInfo@DeveloperInfoWnd@@PAU12@@std@@YAPAUUserInfo@DeveloperInfoWnd@@PAU12@00U_Nonscalar_ptr_iterator_tag@0@@Z ENDP ; std::_Move<DeveloperInfoWnd::UserInfo *,DeveloperInfoWnd::UserInfo *>
_TEXT	ENDS
PUBLIC	??$_Construct@UUserInfo@DeveloperInfoWnd@@ABU12@@std@@YAXPAUUserInfo@DeveloperInfoWnd@@ABU12@@Z ; std::_Construct<DeveloperInfoWnd::UserInfo,DeveloperInfoWnd::UserInfo const &>
;	COMDAT xdata$x
; File c:\program files (x86)\microsoft visual studio 10.0\vc\include\utility
xdata$x	SEGMENT
__unwindtable$??$_Construct@UUserInfo@DeveloperInfoWnd@@ABU12@@std@@YAXPAUUserInfo@DeveloperInfoWnd@@ABU12@@Z DD 0ffffffffH
	DD	FLAT:__unwindfunclet$??$_Construct@UUserInfo@DeveloperInfoWnd@@ABU12@@std@@YAXPAUUserInfo@DeveloperInfoWnd@@ABU12@@Z$0
__ehfuncinfo$??$_Construct@UUserInfo@DeveloperInfoWnd@@ABU12@@std@@YAXPAUUserInfo@DeveloperInfoWnd@@ABU12@@Z DD 019930522H
	DD	01H
	DD	FLAT:__unwindtable$??$_Construct@UUserInfo@DeveloperInfoWnd@@ABU12@@std@@YAXPAUUserInfo@DeveloperInfoWnd@@ABU12@@Z
	DD	2 DUP(00H)
	DD	2 DUP(00H)
	DD	00H
	DD	01H
; Function compile flags: /Ogsp
; File c:\program files (x86)\microsoft visual studio 10.0\vc\include\xmemory
xdata$x	ENDS
;	COMDAT ??$_Construct@UUserInfo@DeveloperInfoWnd@@ABU12@@std@@YAXPAUUserInfo@DeveloperInfoWnd@@ABU12@@Z
_TEXT	SEGMENT
$T537872 = -16						; size = 4
__$EHRec$ = -12						; size = 12
__Vptr$ = 8						; size = 4
__Ptr$ = 8						; size = 4
__Val$ = 12						; size = 4
??$_Construct@UUserInfo@DeveloperInfoWnd@@ABU12@@std@@YAXPAUUserInfo@DeveloperInfoWnd@@ABU12@@Z PROC ; std::_Construct<DeveloperInfoWnd::UserInfo,DeveloperInfoWnd::UserInfo const &>, COMDAT

; 46   : 	{	// construct object at _Ptr with value _Val

  00000	6a 04		 push	 4
  00002	b8 00 00 00 00	 mov	 eax, __ehhandler$??$_Construct@UUserInfo@DeveloperInfoWnd@@ABU12@@std@@YAXPAUUserInfo@DeveloperInfoWnd@@ABU12@@Z
  00007	e8 00 00 00 00	 call	 __EH_prolog3

; 47   : 	void _FARQ *_Vptr = _Ptr;

  0000c	8b 4d 08	 mov	 ecx, DWORD PTR __Ptr$[ebp]
  0000f	89 4d 08	 mov	 DWORD PTR __Vptr$[ebp], ecx

; 48   : 	::new (_Vptr) _Ty1(_STD forward<_Ty2>(_Val));

  00012	89 4d f0	 mov	 DWORD PTR $T537872[ebp], ecx
  00015	83 65 fc 00	 and	 DWORD PTR __$EHRec$[ebp+8], 0
  00019	85 c9		 test	 ecx, ecx
  0001b	74 08		 je	 SHORT $LN3@Construct
  0001d	ff 75 0c	 push	 DWORD PTR __Val$[ebp]
  00020	e8 00 00 00 00	 call	 ??0UserInfo@DeveloperInfoWnd@@QAE@ABU01@@Z
$LN3@Construct:

; 49   : 	}

  00025	e8 00 00 00 00	 call	 __EH_epilog3
  0002a	c3		 ret	 0
_TEXT	ENDS
;	COMDAT text$x
text$x	SEGMENT
__unwindfunclet$??$_Construct@UUserInfo@DeveloperInfoWnd@@ABU12@@std@@YAXPAUUserInfo@DeveloperInfoWnd@@ABU12@@Z$0:
  00000	ff 75 08	 push	 DWORD PTR __Vptr$[ebp]
  00003	ff 75 f0	 push	 DWORD PTR $T537872[ebp]
  00006	e8 00 00 00 00	 call	 ??3@YAXPAX0@Z		; operator delete
  0000b	59		 pop	 ecx
  0000c	59		 pop	 ecx
  0000d	c3		 ret	 0
__ehhandler$??$_Construct@UUserInfo@DeveloperInfoWnd@@ABU12@@std@@YAXPAUUserInfo@DeveloperInfoWnd@@ABU12@@Z:
  0000e	8b 54 24 08	 mov	 edx, DWORD PTR [esp+8]
  00012	8d 42 0c	 lea	 eax, DWORD PTR [edx+12]
  00015	8b 4a ec	 mov	 ecx, DWORD PTR [edx-20]
  00018	33 c8		 xor	 ecx, eax
  0001a	e8 00 00 00 00	 call	 @__security_check_cookie@4
  0001f	b8 00 00 00 00	 mov	 eax, OFFSET __ehfuncinfo$??$_Construct@UUserInfo@DeveloperInfoWnd@@ABU12@@std@@YAXPAUUserInfo@DeveloperInfoWnd@@ABU12@@Z
  00024	e9 00 00 00 00	 jmp	 ___CxxFrameHandler3
text$x	ENDS
??$_Construct@UUserInfo@DeveloperInfoWnd@@ABU12@@std@@YAXPAUUserInfo@DeveloperInfoWnd@@ABU12@@Z ENDP ; std::_Construct<DeveloperInfoWnd::UserInfo,DeveloperInfoWnd::UserInfo const &>
PUBLIC	??$_Destroy@UUserInfo@DeveloperInfoWnd@@@std@@YAXPAUUserInfo@DeveloperInfoWnd@@@Z ; std::_Destroy<DeveloperInfoWnd::UserInfo>
; Function compile flags: /Ogsp
;	COMDAT ??$_Destroy@UUserInfo@DeveloperInfoWnd@@@std@@YAXPAUUserInfo@DeveloperInfoWnd@@@Z
_TEXT	SEGMENT
__Ptr$ = 8						; size = 4
??$_Destroy@UUserInfo@DeveloperInfoWnd@@@std@@YAXPAUUserInfo@DeveloperInfoWnd@@@Z PROC ; std::_Destroy<DeveloperInfoWnd::UserInfo>, COMDAT

; 62   : 	{	// destroy object at _Ptr

  00000	55		 push	 ebp
  00001	8b ec		 mov	 ebp, esp

; 63   : 	_Ptr->~_Ty();

  00003	8b 4d 08	 mov	 ecx, DWORD PTR __Ptr$[ebp]

; 64   : 	}

  00006	5d		 pop	 ebp

; 63   : 	_Ptr->~_Ty();

  00007	ff 25 00 00 00
	00		 jmp	 DWORD PTR __imp_??1ioHashString@@QAE@XZ
??$_Destroy@UUserInfo@DeveloperInfoWnd@@@std@@YAXPAUUserInfo@DeveloperInfoWnd@@@Z ENDP ; std::_Destroy<DeveloperInfoWnd::UserInfo>
_TEXT	ENDS
PUBLIC	?construct@?$allocator@UUserInfo@DeveloperInfoWnd@@@std@@QAEXPAUUserInfo@DeveloperInfoWnd@@$$QAU34@@Z ; std::allocator<DeveloperInfoWnd::UserInfo>::construct
;	COMDAT xdata$x
; File c:\program files (x86)\microsoft visual studio 10.0\vc\include\utility
xdata$x	SEGMENT
__unwindtable$?construct@?$allocator@UUserInfo@DeveloperInfoWnd@@@std@@QAEXPAUUserInfo@DeveloperInfoWnd@@$$QAU34@@Z DD 0ffffffffH
	DD	FLAT:__unwindfunclet$?construct@?$allocator@UUserInfo@DeveloperInfoWnd@@@std@@QAEXPAUUserInfo@DeveloperInfoWnd@@$$QAU34@@Z$0
__ehfuncinfo$?construct@?$allocator@UUserInfo@DeveloperInfoWnd@@@std@@QAEXPAUUserInfo@DeveloperInfoWnd@@$$QAU34@@Z DD 019930522H
	DD	01H
	DD	FLAT:__unwindtable$?construct@?$allocator@UUserInfo@DeveloperInfoWnd@@@std@@QAEXPAUUserInfo@DeveloperInfoWnd@@$$QAU34@@Z
	DD	2 DUP(00H)
	DD	2 DUP(00H)
	DD	00H
	DD	01H
; Function compile flags: /Ogsp
; File c:\program files (x86)\microsoft visual studio 10.0\vc\include\xmemory
xdata$x	ENDS
;	COMDAT ?construct@?$allocator@UUserInfo@DeveloperInfoWnd@@@std@@QAEXPAUUserInfo@DeveloperInfoWnd@@$$QAU34@@Z
_TEXT	SEGMENT
$T537904 = -16						; size = 4
__$EHRec$ = -12						; size = 12
__Ptr$ = 8						; size = 4
__Val$ = 12						; size = 4
?construct@?$allocator@UUserInfo@DeveloperInfoWnd@@@std@@QAEXPAUUserInfo@DeveloperInfoWnd@@$$QAU34@@Z PROC ; std::allocator<DeveloperInfoWnd::UserInfo>::construct, COMDAT
; _this$ = ecx

; 201  : 		{	// construct object at _Ptr with value _Val

  00000	6a 04		 push	 4
  00002	b8 00 00 00 00	 mov	 eax, __ehhandler$?construct@?$allocator@UUserInfo@DeveloperInfoWnd@@@std@@QAEXPAUUserInfo@DeveloperInfoWnd@@$$QAU34@@Z
  00007	e8 00 00 00 00	 call	 __EH_prolog3

; 202  : 		::new ((void _FARQ *)_Ptr) _Ty(_STD forward<_Ty>(_Val));

  0000c	8b 4d 08	 mov	 ecx, DWORD PTR __Ptr$[ebp]
  0000f	89 4d f0	 mov	 DWORD PTR $T537904[ebp], ecx
  00012	83 65 fc 00	 and	 DWORD PTR __$EHRec$[ebp+8], 0
  00016	85 c9		 test	 ecx, ecx
  00018	74 08		 je	 SHORT $LN3@construct@2
  0001a	ff 75 0c	 push	 DWORD PTR __Val$[ebp]
  0001d	e8 00 00 00 00	 call	 ??0UserInfo@DeveloperInfoWnd@@QAE@ABU01@@Z
$LN3@construct@2:

; 203  : 		}

  00022	e8 00 00 00 00	 call	 __EH_epilog3
  00027	c2 08 00	 ret	 8
_TEXT	ENDS
;	COMDAT text$x
text$x	SEGMENT
__unwindfunclet$?construct@?$allocator@UUserInfo@DeveloperInfoWnd@@@std@@QAEXPAUUserInfo@DeveloperInfoWnd@@$$QAU34@@Z$0:
  00000	ff 75 08	 push	 DWORD PTR __Ptr$[ebp]
  00003	ff 75 f0	 push	 DWORD PTR $T537904[ebp]
  00006	e8 00 00 00 00	 call	 ??3@YAXPAX0@Z		; operator delete
  0000b	59		 pop	 ecx
  0000c	59		 pop	 ecx
  0000d	c3		 ret	 0
__ehhandler$?construct@?$allocator@UUserInfo@DeveloperInfoWnd@@@std@@QAEXPAUUserInfo@DeveloperInfoWnd@@$$QAU34@@Z:
  0000e	8b 54 24 08	 mov	 edx, DWORD PTR [esp+8]
  00012	8d 42 0c	 lea	 eax, DWORD PTR [edx+12]
  00015	8b 4a ec	 mov	 ecx, DWORD PTR [edx-20]
  00018	33 c8		 xor	 ecx, eax
  0001a	e8 00 00 00 00	 call	 @__security_check_cookie@4
  0001f	b8 00 00 00 00	 mov	 eax, OFFSET __ehfuncinfo$?construct@?$allocator@UUserInfo@DeveloperInfoWnd@@@std@@QAEXPAUUserInfo@DeveloperInfoWnd@@$$QAU34@@Z
  00024	e9 00 00 00 00	 jmp	 ___CxxFrameHandler3
text$x	ENDS
?construct@?$allocator@UUserInfo@DeveloperInfoWnd@@@std@@QAEXPAUUserInfo@DeveloperInfoWnd@@$$QAU34@@Z ENDP ; std::allocator<DeveloperInfoWnd::UserInfo>::construct
PUBLIC	??B?$CEncrypt@M@@QAEMXZ				; CEncrypt<float>::operator float
; Function compile flags: /Ogsp
; File d:\lost saga for developer\youtube\tutorial\source\src\lsclient\encryptvalue.h
;	COMDAT ??B?$CEncrypt@M@@QAEMXZ
_TEXT	SEGMENT
_value$ = -4						; size = 4
??B?$CEncrypt@M@@QAEMXZ PROC				; CEncrypt<float>::operator float, COMDAT
; _this$ = ecx

; 134  : 	{

  00000	55		 push	 ebp
  00001	8b ec		 mov	 ebp, esp
  00003	51		 push	 ecx

; 135  : 		type value;
; 136  : 		DecryptValueToPool(&value);

  00004	8d 45 fc	 lea	 eax, DWORD PTR _value$[ebp]
  00007	50		 push	 eax
  00008	e8 00 00 00 00	 call	 ?DecryptValueToPool@?$CEncrypt@M@@QAEXPAM@Z ; CEncrypt<float>::DecryptValueToPool

; 137  : 
; 138  : #ifdef _NOTUSE
; 139  : 		Debug();
; 140  : #endif
; 141  : 		return value;

  0000d	d9 45 fc	 fld	 DWORD PTR _value$[ebp]

; 142  : 	}

  00010	c9		 leave
  00011	c3		 ret	 0
??B?$CEncrypt@M@@QAEMXZ ENDP				; CEncrypt<float>::operator float
_TEXT	ENDS
PUBLIC	??B?$CEncrypt@M@@QBEMXZ				; CEncrypt<float>::operator float
; Function compile flags: /Ogsp
;	COMDAT ??B?$CEncrypt@M@@QBEMXZ
_TEXT	SEGMENT
_value$ = -4						; size = 4
??B?$CEncrypt@M@@QBEMXZ PROC				; CEncrypt<float>::operator float, COMDAT
; _this$ = ecx

; 145  : 	{

  00000	55		 push	 ebp
  00001	8b ec		 mov	 ebp, esp
  00003	51		 push	 ecx

; 146  : 		//UJ 130829, const    --start
; 147  : 		type value;
; 148  : 		CEncrypt<type>* pThis = const_cast<CEncrypt<type>*>(this);
; 149  : 		pThis->DecryptValueToPool(&value);

  00004	8d 45 fc	 lea	 eax, DWORD PTR _value$[ebp]
  00007	50		 push	 eax
  00008	e8 00 00 00 00	 call	 ?DecryptValueToPool@?$CEncrypt@M@@QAEXPAM@Z ; CEncrypt<float>::DecryptValueToPool

; 150  : 		//// const DecryptValueToPool     .
; 151  :  		//type value;
; 152  : 		//char szTempMem[MAX_ENCRYPT];
; 153  : 		//m_RC5.DecryptByte( m_MemPool, szTempMem, max(m_ValueSize, DEFAULT_ENCRYPT) );
; 154  : 		//memcpy( &value, szTempMem, m_ValueSize );
; 155  : 		//UJ --end
; 156  : 
; 157  : #ifdef _NOTUSE
; 158  : 		Debug();
; 159  : #endif
; 160  : 		return value;

  0000d	d9 45 fc	 fld	 DWORD PTR _value$[ebp]

; 161  : 	}

  00010	c9		 leave
  00011	c3		 ret	 0
??B?$CEncrypt@M@@QBEMXZ ENDP				; CEncrypt<float>::operator float
_TEXT	ENDS
PUBLIC	??B?$CEncrypt@W4ModeType@@@@QAE?AW4ModeType@@XZ	; CEncrypt<enum ModeType>::operator enum ModeType
; Function compile flags: /Ogsp
;	COMDAT ??B?$CEncrypt@W4ModeType@@@@QAE?AW4ModeType@@XZ
_TEXT	SEGMENT
_value$ = -4						; size = 4
??B?$CEncrypt@W4ModeType@@@@QAE?AW4ModeType@@XZ PROC	; CEncrypt<enum ModeType>::operator enum ModeType, COMDAT
; _this$ = ecx

; 134  : 	{

  00000	55		 push	 ebp
  00001	8b ec		 mov	 ebp, esp
  00003	51		 push	 ecx

; 135  : 		type value;
; 136  : 		DecryptValueToPool(&value);

  00004	8d 45 fc	 lea	 eax, DWORD PTR _value$[ebp]
  00007	50		 push	 eax
  00008	e8 00 00 00 00	 call	 ?DecryptValueToPool@?$CEncrypt@W4ModeType@@@@QAEXPAW4ModeType@@@Z ; CEncrypt<enum ModeType>::DecryptValueToPool

; 137  : 
; 138  : #ifdef _NOTUSE
; 139  : 		Debug();
; 140  : #endif
; 141  : 		return value;

  0000d	8b 45 fc	 mov	 eax, DWORD PTR _value$[ebp]

; 142  : 	}

  00010	c9		 leave
  00011	c3		 ret	 0
??B?$CEncrypt@W4ModeType@@@@QAE?AW4ModeType@@XZ ENDP	; CEncrypt<enum ModeType>::operator enum ModeType
_TEXT	ENDS
PUBLIC	?begin@?$vector@VioHashString@@V?$allocator@VioHashString@@@std@@@std@@QAE?AV?$_Vector_iterator@V?$_Vector_val@VioHashString@@V?$allocator@VioHashString@@@std@@@std@@@2@XZ ; std::vector<ioHashString,std::allocator<ioHashString> >::begin
; Function compile flags: /Ogsp
; File c:\program files (x86)\microsoft visual studio 10.0\vc\include\vector
;	COMDAT ?begin@?$vector@VioHashString@@V?$allocator@VioHashString@@@std@@@std@@QAE?AV?$_Vector_iterator@V?$_Vector_val@VioHashString@@V?$allocator@VioHashString@@@std@@@std@@@2@XZ
_TEXT	SEGMENT
___$ReturnUdt$ = 8					; size = 4
?begin@?$vector@VioHashString@@V?$allocator@VioHashString@@@std@@@std@@QAE?AV?$_Vector_iterator@V?$_Vector_val@VioHashString@@V?$allocator@VioHashString@@@std@@@std@@@2@XZ PROC ; std::vector<ioHashString,std::allocator<ioHashString> >::begin, COMDAT
; _this$ = ecx

; 781  : 		{	// return iterator for beginning of mutable sequence

  00000	55		 push	 ebp
  00001	8b ec		 mov	 ebp, esp

; 782  : 		return (iterator(this->_Myfirst, this));

  00003	8b 09		 mov	 ecx, DWORD PTR [ecx]
  00005	8b 45 08	 mov	 eax, DWORD PTR ___$ReturnUdt$[ebp]
  00008	89 08		 mov	 DWORD PTR [eax], ecx

; 783  : 		}

  0000a	5d		 pop	 ebp
  0000b	c2 04 00	 ret	 4
?begin@?$vector@VioHashString@@V?$allocator@VioHashString@@@std@@@std@@QAE?AV?$_Vector_iterator@V?$_Vector_val@VioHashString@@V?$allocator@VioHashString@@@std@@@std@@@2@XZ ENDP ; std::vector<ioHashString,std::allocator<ioHashString> >::begin
_TEXT	ENDS
PUBLIC	?end@?$vector@VioHashString@@V?$allocator@VioHashString@@@std@@@std@@QAE?AV?$_Vector_iterator@V?$_Vector_val@VioHashString@@V?$allocator@VioHashString@@@std@@@std@@@2@XZ ; std::vector<ioHashString,std::allocator<ioHashString> >::end
; Function compile flags: /Ogsp
;	COMDAT ?end@?$vector@VioHashString@@V?$allocator@VioHashString@@@std@@@std@@QAE?AV?$_Vector_iterator@V?$_Vector_val@VioHashString@@V?$allocator@VioHashString@@@std@@@std@@@2@XZ
_TEXT	SEGMENT
___$ReturnUdt$ = 8					; size = 4
?end@?$vector@VioHashString@@V?$allocator@VioHashString@@@std@@@std@@QAE?AV?$_Vector_iterator@V?$_Vector_val@VioHashString@@V?$allocator@VioHashString@@@std@@@std@@@2@XZ PROC ; std::vector<ioHashString,std::allocator<ioHashString> >::end, COMDAT
; _this$ = ecx

; 791  : 		{	// return iterator for end of mutable sequence

  00000	55		 push	 ebp
  00001	8b ec		 mov	 ebp, esp

; 792  : 		return (iterator(this->_Mylast, this));

  00003	8b 49 04	 mov	 ecx, DWORD PTR [ecx+4]
  00006	8b 45 08	 mov	 eax, DWORD PTR ___$ReturnUdt$[ebp]
  00009	89 08		 mov	 DWORD PTR [eax], ecx

; 793  : 		}

  0000b	5d		 pop	 ebp
  0000c	c2 04 00	 ret	 4
?end@?$vector@VioHashString@@V?$allocator@VioHashString@@@std@@@std@@QAE?AV?$_Vector_iterator@V?$_Vector_val@VioHashString@@V?$allocator@VioHashString@@@std@@@std@@@2@XZ ENDP ; std::vector<ioHashString,std::allocator<ioHashString> >::end
_TEXT	ENDS
PUBLIC	??0?$_Vector_val@VioHashString@@V?$allocator@VioHashString@@@std@@@std@@QAE@V?$allocator@VioHashString@@@1@@Z ; std::_Vector_val<ioHashString,std::allocator<ioHashString> >::_Vector_val<ioHashString,std::allocator<ioHashString> >
; Function compile flags: /Ogsp
;	COMDAT ??0?$_Vector_val@VioHashString@@V?$allocator@VioHashString@@@std@@@std@@QAE@V?$allocator@VioHashString@@@1@@Z
_TEXT	SEGMENT
__Al$ = 8						; size = 1
??0?$_Vector_val@VioHashString@@V?$allocator@VioHashString@@@std@@@std@@QAE@V?$allocator@VioHashString@@@1@@Z PROC ; std::_Vector_val<ioHashString,std::allocator<ioHashString> >::_Vector_val<ioHashString,std::allocator<ioHashString> >, COMDAT
; _this$ = ecx

; 426  : 		{	// construct allocator from _Al

  00000	8b c1		 mov	 eax, ecx

; 427  : 		_Myfirst = 0;

  00002	33 c9		 xor	 ecx, ecx
  00004	89 08		 mov	 DWORD PTR [eax], ecx

; 428  : 		_Mylast = 0;

  00006	89 48 04	 mov	 DWORD PTR [eax+4], ecx

; 429  : 		_Myend = 0;

  00009	89 48 08	 mov	 DWORD PTR [eax+8], ecx

; 430  : 		}

  0000c	c2 04 00	 ret	 4
??0?$_Vector_val@VioHashString@@V?$allocator@VioHashString@@@std@@@std@@QAE@V?$allocator@VioHashString@@@1@@Z ENDP ; std::_Vector_val<ioHashString,std::allocator<ioHashString> >::_Vector_val<ioHashString,std::allocator<ioHashString> >
_TEXT	ENDS
PUBLIC	?_Make_iter@?$vector@VioHashString@@V?$allocator@VioHashString@@@std@@@std@@QBE?AV?$_Vector_iterator@V?$_Vector_val@VioHashString@@V?$allocator@VioHashString@@@std@@@std@@@2@V?$_Vector_const_iterator@V?$_Vector_val@VioHashString@@V?$allocator@VioHashString@@@std@@@std@@@2@@Z ; std::vector<ioHashString,std::allocator<ioHashString> >::_Make_iter
; Function compile flags: /Ogsp
;	COMDAT ?_Make_iter@?$vector@VioHashString@@V?$allocator@VioHashString@@@std@@@std@@QBE?AV?$_Vector_iterator@V?$_Vector_val@VioHashString@@V?$allocator@VioHashString@@@std@@@std@@@2@V?$_Vector_const_iterator@V?$_Vector_val@VioHashString@@V?$allocator@VioHashString@@@std@@@std@@@2@@Z
_TEXT	SEGMENT
___$ReturnUdt$ = 8					; size = 4
__Where$ = 12						; size = 4
?_Make_iter@?$vector@VioHashString@@V?$allocator@VioHashString@@@std@@@std@@QBE?AV?$_Vector_iterator@V?$_Vector_val@VioHashString@@V?$allocator@VioHashString@@@std@@@std@@@2@V?$_Vector_const_iterator@V?$_Vector_val@VioHashString@@V?$allocator@VioHashString@@@std@@@std@@@2@@Z PROC ; std::vector<ioHashString,std::allocator<ioHashString> >::_Make_iter, COMDAT
; _this$ = ecx

; 801  : 		{	// make iterator from const_iterator

  00000	55		 push	 ebp
  00001	8b ec		 mov	 ebp, esp

; 802  : 		return (iterator(_Where._Ptr, this));

  00003	8b 45 08	 mov	 eax, DWORD PTR ___$ReturnUdt$[ebp]
  00006	8b 4d 0c	 mov	 ecx, DWORD PTR __Where$[ebp]
  00009	89 08		 mov	 DWORD PTR [eax], ecx

; 803  : 		}

  0000b	5d		 pop	 ebp
  0000c	c2 08 00	 ret	 8
?_Make_iter@?$vector@VioHashString@@V?$allocator@VioHashString@@@std@@@std@@QBE?AV?$_Vector_iterator@V?$_Vector_val@VioHashString@@V?$allocator@VioHashString@@@std@@@std@@@2@V?$_Vector_const_iterator@V?$_Vector_val@VioHashString@@V?$allocator@VioHashString@@@std@@@std@@@2@@Z ENDP ; std::vector<ioHashString,std::allocator<ioHashString> >::_Make_iter
_TEXT	ENDS
PUBLIC	??8?$_Vector_const_iterator@V?$_Vector_val@VioHashString@@V?$allocator@VioHashString@@@std@@@std@@@std@@QBE_NABV01@@Z ; std::_Vector_const_iterator<std::_Vector_val<ioHashString,std::allocator<ioHashString> > >::operator==
; Function compile flags: /Ogsp
;	COMDAT ??8?$_Vector_const_iterator@V?$_Vector_val@VioHashString@@V?$allocator@VioHashString@@@std@@@std@@@std@@QBE_NABV01@@Z
_TEXT	SEGMENT
__Right$ = 8						; size = 4
??8?$_Vector_const_iterator@V?$_Vector_val@VioHashString@@V?$allocator@VioHashString@@@std@@@std@@@std@@QBE_NABV01@@Z PROC ; std::_Vector_const_iterator<std::_Vector_val<ioHashString,std::allocator<ioHashString> > >::operator==, COMDAT
; _this$ = ecx

; 201  : 		{	// test for iterator equality

  00000	55		 push	 ebp
  00001	8b ec		 mov	 ebp, esp

; 202  : 		_Compat(_Right);
; 203  : 		return (this->_Ptr == _Right._Ptr);

  00003	8b 01		 mov	 eax, DWORD PTR [ecx]
  00005	8b 4d 08	 mov	 ecx, DWORD PTR __Right$[ebp]
  00008	2b 01		 sub	 eax, DWORD PTR [ecx]
  0000a	f7 d8		 neg	 eax
  0000c	1b c0		 sbb	 eax, eax
  0000e	40		 inc	 eax

; 204  : 		}

  0000f	5d		 pop	 ebp
  00010	c2 04 00	 ret	 4
??8?$_Vector_const_iterator@V?$_Vector_val@VioHashString@@V?$allocator@VioHashString@@@std@@@std@@@std@@QBE_NABV01@@Z ENDP ; std::_Vector_const_iterator<std::_Vector_val<ioHashString,std::allocator<ioHashString> > >::operator==
_TEXT	ENDS
PUBLIC	??$_Move@PAVioHashString@@PAV1@@std@@YAPAVioHashString@@PAV1@00U_Nonscalar_ptr_iterator_tag@0@@Z ; std::_Move<ioHashString *,ioHashString *>
; Function compile flags: /Ogsp
; File c:\program files (x86)\microsoft visual studio 10.0\vc\include\xutility
;	COMDAT ??$_Move@PAVioHashString@@PAV1@@std@@YAPAVioHashString@@PAV1@00U_Nonscalar_ptr_iterator_tag@0@@Z
_TEXT	SEGMENT
__First$ = 8						; size = 4
__Last$ = 12						; size = 4
__Dest$ = 16						; size = 4
___formal$ = 20						; size = 1
??$_Move@PAVioHashString@@PAV1@@std@@YAPAVioHashString@@PAV1@00U_Nonscalar_ptr_iterator_tag@0@@Z PROC ; std::_Move<ioHashString *,ioHashString *>, COMDAT

; 2512 : 	{	// move [_First, _Last) to [_Dest, ...), arbitrary iterators

  00000	55		 push	 ebp
  00001	8b ec		 mov	 ebp, esp
  00003	56		 push	 esi

; 2513 : 	for (; _First != _Last; ++_Dest, ++_First)

  00004	8b 75 08	 mov	 esi, DWORD PTR __First$[ebp]
  00007	eb 11		 jmp	 SHORT $LN11@Move@2
$LL3@Move@2:

; 2514 : 		*_Dest = _STD move(*_First);

  00009	8b 4d 10	 mov	 ecx, DWORD PTR __Dest$[ebp]
  0000c	56		 push	 esi
  0000d	ff 15 00 00 00
	00		 call	 DWORD PTR __imp_??4ioHashString@@QAEAAV0@ABV0@@Z
  00013	83 45 10 10	 add	 DWORD PTR __Dest$[ebp], 16 ; 00000010H
  00017	83 c6 10	 add	 esi, 16			; 00000010H
$LN11@Move@2:

; 2513 : 	for (; _First != _Last; ++_Dest, ++_First)

  0001a	3b 75 0c	 cmp	 esi, DWORD PTR __Last$[ebp]
  0001d	75 ea		 jne	 SHORT $LL3@Move@2

; 2515 : 	return (_Dest);

  0001f	8b 45 10	 mov	 eax, DWORD PTR __Dest$[ebp]
  00022	5e		 pop	 esi

; 2516 : 	}

  00023	5d		 pop	 ebp
  00024	c3		 ret	 0
??$_Move@PAVioHashString@@PAV1@@std@@YAPAVioHashString@@PAV1@00U_Nonscalar_ptr_iterator_tag@0@@Z ENDP ; std::_Move<ioHashString *,ioHashString *>
_TEXT	ENDS
PUBLIC	??$_Destroy@VioHashString@@@std@@YAXPAVioHashString@@@Z ; std::_Destroy<ioHashString>
; Function compile flags: /Ogsp
; File c:\program files (x86)\microsoft visual studio 10.0\vc\include\xmemory
;	COMDAT ??$_Destroy@VioHashString@@@std@@YAXPAVioHashString@@@Z
_TEXT	SEGMENT
__Ptr$ = 8						; size = 4
??$_Destroy@VioHashString@@@std@@YAXPAVioHashString@@@Z PROC ; std::_Destroy<ioHashString>, COMDAT

; 62   : 	{	// destroy object at _Ptr

  00000	55		 push	 ebp
  00001	8b ec		 mov	 ebp, esp

; 63   : 	_Ptr->~_Ty();

  00003	8b 4d 08	 mov	 ecx, DWORD PTR __Ptr$[ebp]

; 64   : 	}

  00006	5d		 pop	 ebp

; 63   : 	_Ptr->~_Ty();

  00007	ff 25 00 00 00
	00		 jmp	 DWORD PTR __imp_??1ioHashString@@QAE@XZ
??$_Destroy@VioHashString@@@std@@YAXPAVioHashString@@@Z ENDP ; std::_Destroy<ioHashString>
_TEXT	ENDS
PUBLIC	?GetGravityAmt@ioBaseChar@@QAEMXZ		; ioBaseChar::GetGravityAmt
; Function compile flags: /Ogsp
; File d:\lost saga for developer\youtube\tutorial\source\src\lsclient\iobasechar.h
;	COMDAT ?GetGravityAmt@ioBaseChar@@QAEMXZ
_TEXT	SEGMENT
_value$538011 = -4					; size = 4
?GetGravityAmt@ioBaseChar@@QAEMXZ PROC			; ioBaseChar::GetGravityAmt, COMDAT
; _this$ = ecx

; 2632 : 	inline float GetGravityAmt() { return m_fGravityAmt; }

  00000	55		 push	 ebp
  00001	8b ec		 mov	 ebp, esp
  00003	51		 push	 ecx
  00004	8d 45 fc	 lea	 eax, DWORD PTR _value$538011[ebp]
  00007	50		 push	 eax
  00008	81 c1 e8 0b 00
	00		 add	 ecx, 3048		; 00000be8H
  0000e	e8 00 00 00 00	 call	 ?DecryptValueToPool@?$CEncrypt@M@@QAEXPAM@Z ; CEncrypt<float>::DecryptValueToPool
  00013	d9 45 fc	 fld	 DWORD PTR _value$538011[ebp]
  00016	c9		 leave
  00017	c3		 ret	 0
?GetGravityAmt@ioBaseChar@@QAEMXZ ENDP			; ioBaseChar::GetGravityAmt
_TEXT	ENDS
PUBLIC	?GetForceAmt@ioBaseChar@@QBEMXZ			; ioBaseChar::GetForceAmt
; Function compile flags: /Ogsp
;	COMDAT ?GetForceAmt@ioBaseChar@@QBEMXZ
_TEXT	SEGMENT
_value$538017 = -4					; size = 4
?GetForceAmt@ioBaseChar@@QBEMXZ PROC			; ioBaseChar::GetForceAmt, COMDAT
; _this$ = ecx

; 2642 : 	inline float GetForceAmt() const { return m_fForceAmt; }

  00000	55		 push	 ebp
  00001	8b ec		 mov	 ebp, esp
  00003	51		 push	 ecx
  00004	8d 45 fc	 lea	 eax, DWORD PTR _value$538017[ebp]
  00007	50		 push	 eax
  00008	81 c1 88 0b 00
	00		 add	 ecx, 2952		; 00000b88H
  0000e	e8 00 00 00 00	 call	 ?DecryptValueToPool@?$CEncrypt@M@@QAEXPAM@Z ; CEncrypt<float>::DecryptValueToPool
  00013	d9 45 fc	 fld	 DWORD PTR _value$538017[ebp]
  00016	c9		 leave
  00017	c3		 ret	 0
?GetForceAmt@ioBaseChar@@QBEMXZ ENDP			; ioBaseChar::GetForceAmt
_TEXT	ENDS
PUBLIC	__real@3f800000
PUBLIC	?UpdateTab@CharGameInfoListWnd@@QAEXK@Z		; CharGameInfoListWnd::UpdateTab
EXTRN	__imp_?ShowChildWnd@ioWnd@@QAEXK_N@Z:PROC
EXTRN	__imp_?HideChildWnd@ioWnd@@QAEXK_N@Z:PROC
EXTRN	__imp_?CheckRadioButton@ioWnd@@QAEXKKK@Z:PROC
;	COMDAT __real@3f800000
; File d:\lost saga for developer\youtube\tutorial\source\src\lsclient\gui\debuginfownd.cpp
CONST	SEGMENT
__real@3f800000 DD 03f800000r			; 1
; Function compile flags: /Ogsp
CONST	ENDS
;	COMDAT ?UpdateTab@CharGameInfoListWnd@@QAEXK@Z
_TEXT	SEGMENT
_dwID$ = 8						; size = 4
?UpdateTab@CharGameInfoListWnd@@QAEXK@Z PROC		; CharGameInfoListWnd::UpdateTab, COMDAT
; _this$ = ecx

; 253  : {

  00000	55		 push	 ebp
  00001	8b ec		 mov	 ebp, esp

; 254  : 	m_dwCurrTab = dwID;

  00003	8b 45 08	 mov	 eax, DWORD PTR _dwID$[ebp]
  00006	53		 push	 ebx
  00007	56		 push	 esi
  00008	57		 push	 edi

; 255  : 	CheckRadioButton( ID_ITEM_TAB, ID_BUFF_TAB, m_dwCurrTab );

  00009	50		 push	 eax
  0000a	6a 17		 push	 23			; 00000017H
  0000c	8b f9		 mov	 edi, ecx
  0000e	6a 15		 push	 21			; 00000015H
  00010	89 87 b8 01 00
	00		 mov	 DWORD PTR [edi+440], eax
  00016	ff 15 00 00 00
	00		 call	 DWORD PTR __imp_?CheckRadioButton@ioWnd@@QAEXKKK@Z

; 256  : 
; 257  : 	DisableEditFocus();

  0001c	8b cf		 mov	 ecx, edi
  0001e	e8 00 00 00 00	 call	 ?DisableEditFocus@CharGameInfoListWnd@@QAEXXZ ; CharGameInfoListWnd::DisableEditFocus

; 258  : 	HideChildWnd( ID_LABEL_WEAPON );

  00023	8b 35 00 00 00
	00		 mov	 esi, DWORD PTR __imp_?HideChildWnd@ioWnd@@QAEXK_N@Z
  00029	33 db		 xor	 ebx, ebx
  0002b	53		 push	 ebx
  0002c	6a 0b		 push	 11			; 0000000bH
  0002e	8b cf		 mov	 ecx, edi
  00030	ff d6		 call	 esi

; 259  : 	HideChildWnd( ID_LABEL_ARMOR );

  00032	53		 push	 ebx
  00033	6a 0c		 push	 12			; 0000000cH
  00035	8b cf		 mov	 ecx, edi
  00037	ff d6		 call	 esi

; 260  : 	HideChildWnd( ID_LABEL_HELMET );

  00039	53		 push	 ebx
  0003a	6a 0d		 push	 13			; 0000000dH
  0003c	8b cf		 mov	 ecx, edi
  0003e	ff d6		 call	 esi

; 261  : 	HideChildWnd( ID_LABEL_CLOAK );

  00040	53		 push	 ebx
  00041	6a 0e		 push	 14			; 0000000eH
  00043	8b cf		 mov	 ecx, edi
  00045	ff d6		 call	 esi

; 262  : 	HideChildWnd( ID_LABEL_OBJECT );

  00047	53		 push	 ebx
  00048	6a 0f		 push	 15			; 0000000fH
  0004a	8b cf		 mov	 ecx, edi
  0004c	ff d6		 call	 esi

; 263  : 	HideChildWnd( ID_LABEL_WEAR );

  0004e	53		 push	 ebx
  0004f	6a 10		 push	 16			; 00000010H
  00051	8b cf		 mov	 ecx, edi
  00053	ff d6		 call	 esi

; 264  : 	HideChildWnd( ID_WEAPON_EDIT );

  00055	53		 push	 ebx
  00056	6a 65		 push	 101			; 00000065H
  00058	8b cf		 mov	 ecx, edi
  0005a	ff d6		 call	 esi

; 265  : 	HideChildWnd( ID_ARMOR_EDIT );

  0005c	53		 push	 ebx
  0005d	6a 66		 push	 102			; 00000066H
  0005f	8b cf		 mov	 ecx, edi
  00061	ff d6		 call	 esi

; 266  : 	HideChildWnd( ID_HELMET_EDIT );

  00063	53		 push	 ebx
  00064	6a 67		 push	 103			; 00000067H
  00066	8b cf		 mov	 ecx, edi
  00068	ff d6		 call	 esi

; 267  : 	HideChildWnd( ID_CLOAK_EDIT );

  0006a	53		 push	 ebx
  0006b	6a 68		 push	 104			; 00000068H
  0006d	8b cf		 mov	 ecx, edi
  0006f	ff d6		 call	 esi

; 268  : 	HideChildWnd( ID_OBJECT_EDIT );

  00071	53		 push	 ebx
  00072	6a 69		 push	 105			; 00000069H
  00074	8b cf		 mov	 ecx, edi
  00076	ff d6		 call	 esi

; 269  : 	HideChildWnd( ID_WEAR_EDIT );

  00078	53		 push	 ebx
  00079	6a 6a		 push	 106			; 0000006aH
  0007b	8b cf		 mov	 ecx, edi
  0007d	ff d6		 call	 esi

; 270  : 	HideChildWnd( ID_WEAPON_APPLY );

  0007f	53		 push	 ebx
  00080	68 e9 03 00 00	 push	 1001			; 000003e9H
  00085	8b cf		 mov	 ecx, edi
  00087	ff d6		 call	 esi

; 271  : 	HideChildWnd( ID_ARMOR_APPLY );

  00089	53		 push	 ebx
  0008a	68 ea 03 00 00	 push	 1002			; 000003eaH
  0008f	8b cf		 mov	 ecx, edi
  00091	ff d6		 call	 esi

; 272  : 	HideChildWnd( ID_HELMET_APPLY );

  00093	53		 push	 ebx
  00094	68 eb 03 00 00	 push	 1003			; 000003ebH
  00099	8b cf		 mov	 ecx, edi
  0009b	ff d6		 call	 esi

; 273  : 	HideChildWnd( ID_CLOAK_APPLY );

  0009d	53		 push	 ebx
  0009e	68 ec 03 00 00	 push	 1004			; 000003ecH
  000a3	8b cf		 mov	 ecx, edi
  000a5	ff d6		 call	 esi

; 274  : 	HideChildWnd( ID_OBJECT_APPLY );

  000a7	53		 push	 ebx
  000a8	68 ed 03 00 00	 push	 1005			; 000003edH
  000ad	8b cf		 mov	 ecx, edi
  000af	ff d6		 call	 esi

; 275  : 	HideChildWnd( ID_WEAR_APPLY );

  000b1	53		 push	 ebx
  000b2	68 ee 03 00 00	 push	 1006			; 000003eeH
  000b7	8b cf		 mov	 ecx, edi
  000b9	ff d6		 call	 esi

; 276  : 
; 277  : 	SetFrameElementAlpha( 0.0f );

  000bb	0f 57 c0	 xorps	 xmm0, xmm0
  000be	51		 push	 ecx
  000bf	8b cf		 mov	 ecx, edi
  000c1	f3 0f 11 04 24	 movss	 DWORD PTR [esp], xmm0
  000c6	e8 00 00 00 00	 call	 ?SetFrameElementAlpha@CharGameInfoListWnd@@QAEXM@Z ; CharGameInfoListWnd::SetFrameElementAlpha

; 278  : 
; 279  : 	switch( m_dwCurrTab )

  000cb	83 bf b8 01 00
	00 15		 cmp	 DWORD PTR [edi+440], 21	; 00000015H
  000d2	0f 85 ab 00 00
	00		 jne	 $LN4@UpdateTab

; 280  : 	{
; 281  : 	case ID_ITEM_TAB:
; 282  : 		{
; 283  : 			ShowChildWnd( ID_LABEL_WEAPON );

  000d8	8b 35 00 00 00
	00		 mov	 esi, DWORD PTR __imp_?ShowChildWnd@ioWnd@@QAEXK_N@Z
  000de	53		 push	 ebx
  000df	6a 0b		 push	 11			; 0000000bH
  000e1	8b cf		 mov	 ecx, edi
  000e3	ff d6		 call	 esi

; 284  : 			ShowChildWnd( ID_LABEL_ARMOR );

  000e5	53		 push	 ebx
  000e6	6a 0c		 push	 12			; 0000000cH
  000e8	8b cf		 mov	 ecx, edi
  000ea	ff d6		 call	 esi

; 285  : 			ShowChildWnd( ID_LABEL_HELMET );

  000ec	53		 push	 ebx
  000ed	6a 0d		 push	 13			; 0000000dH
  000ef	8b cf		 mov	 ecx, edi
  000f1	ff d6		 call	 esi

; 286  : 			ShowChildWnd( ID_LABEL_CLOAK );

  000f3	53		 push	 ebx
  000f4	6a 0e		 push	 14			; 0000000eH
  000f6	8b cf		 mov	 ecx, edi
  000f8	ff d6		 call	 esi

; 287  : 			ShowChildWnd( ID_LABEL_OBJECT );

  000fa	53		 push	 ebx
  000fb	6a 0f		 push	 15			; 0000000fH
  000fd	8b cf		 mov	 ecx, edi
  000ff	ff d6		 call	 esi

; 288  : 			ShowChildWnd( ID_LABEL_WEAR );

  00101	53		 push	 ebx
  00102	6a 10		 push	 16			; 00000010H
  00104	8b cf		 mov	 ecx, edi
  00106	ff d6		 call	 esi

; 289  : 			ShowChildWnd( ID_WEAPON_EDIT );

  00108	53		 push	 ebx
  00109	6a 65		 push	 101			; 00000065H
  0010b	8b cf		 mov	 ecx, edi
  0010d	ff d6		 call	 esi

; 290  : 			ShowChildWnd( ID_ARMOR_EDIT );

  0010f	53		 push	 ebx
  00110	6a 66		 push	 102			; 00000066H
  00112	8b cf		 mov	 ecx, edi
  00114	ff d6		 call	 esi

; 291  : 			ShowChildWnd( ID_HELMET_EDIT );

  00116	53		 push	 ebx
  00117	6a 67		 push	 103			; 00000067H
  00119	8b cf		 mov	 ecx, edi
  0011b	ff d6		 call	 esi

; 292  : 			ShowChildWnd( ID_CLOAK_EDIT );

  0011d	53		 push	 ebx
  0011e	6a 68		 push	 104			; 00000068H
  00120	8b cf		 mov	 ecx, edi
  00122	ff d6		 call	 esi

; 293  : 			ShowChildWnd( ID_OBJECT_EDIT );

  00124	53		 push	 ebx
  00125	6a 69		 push	 105			; 00000069H
  00127	8b cf		 mov	 ecx, edi
  00129	ff d6		 call	 esi

; 294  : 			ShowChildWnd( ID_WEAR_EDIT );

  0012b	53		 push	 ebx
  0012c	6a 6a		 push	 106			; 0000006aH
  0012e	8b cf		 mov	 ecx, edi
  00130	ff d6		 call	 esi

; 295  : 			ShowChildWnd( ID_WEAPON_APPLY );

  00132	53		 push	 ebx
  00133	68 e9 03 00 00	 push	 1001			; 000003e9H
  00138	8b cf		 mov	 ecx, edi
  0013a	ff d6		 call	 esi

; 296  : 			ShowChildWnd( ID_ARMOR_APPLY );

  0013c	53		 push	 ebx
  0013d	68 ea 03 00 00	 push	 1002			; 000003eaH
  00142	8b cf		 mov	 ecx, edi
  00144	ff d6		 call	 esi

; 297  : 			ShowChildWnd( ID_HELMET_APPLY );

  00146	53		 push	 ebx
  00147	68 eb 03 00 00	 push	 1003			; 000003ebH
  0014c	8b cf		 mov	 ecx, edi
  0014e	ff d6		 call	 esi

; 298  : 			ShowChildWnd( ID_CLOAK_APPLY );

  00150	53		 push	 ebx
  00151	68 ec 03 00 00	 push	 1004			; 000003ecH
  00156	8b cf		 mov	 ecx, edi
  00158	ff d6		 call	 esi

; 299  : 			ShowChildWnd( ID_OBJECT_APPLY );

  0015a	53		 push	 ebx
  0015b	68 ed 03 00 00	 push	 1005			; 000003edH
  00160	8b cf		 mov	 ecx, edi
  00162	ff d6		 call	 esi

; 300  : 			ShowChildWnd( ID_WEAR_APPLY );			

  00164	53		 push	 ebx
  00165	68 ee 03 00 00	 push	 1006			; 000003eeH
  0016a	8b cf		 mov	 ecx, edi
  0016c	ff d6		 call	 esi

; 301  : 			SetFrameElementAlpha( 1.0f );

  0016e	f3 0f 10 05 00
	00 00 00	 movss	 xmm0, DWORD PTR __real@3f800000
  00176	51		 push	 ecx
  00177	8b cf		 mov	 ecx, edi
  00179	f3 0f 11 04 24	 movss	 DWORD PTR [esp], xmm0
  0017e	e8 00 00 00 00	 call	 ?SetFrameElementAlpha@CharGameInfoListWnd@@QAEXM@Z ; CharGameInfoListWnd::SetFrameElementAlpha
$LN4@UpdateTab:
  00183	5f		 pop	 edi
  00184	5e		 pop	 esi
  00185	5b		 pop	 ebx

; 302  : 		}
; 303  : 		break;
; 304  : 	case ID_CHAR_INFO_TAB:
; 305  : 		{
; 306  : 		}
; 307  : 		break;
; 308  : 	case ID_BUFF_TAB:
; 309  : 		{
; 310  : 
; 311  : 		}
; 312  : 		break;
; 313  : 	}
; 314  : }

  00186	5d		 pop	 ebp
  00187	c2 04 00	 ret	 4
?UpdateTab@CharGameInfoListWnd@@QAEXK@Z ENDP		; CharGameInfoListWnd::UpdateTab
_TEXT	ENDS
PUBLIC	?iwm_command@CharGameInfoListWnd@@UAEXPAVioWnd@@HK@Z ; CharGameInfoListWnd::iwm_command
; Function compile flags: /Ogsp
;	COMDAT ?iwm_command@CharGameInfoListWnd@@UAEXPAVioWnd@@HK@Z
_TEXT	SEGMENT
_pWnd$ = 8						; size = 4
_cmd$ = 12						; size = 4
_param$ = 16						; size = 4
?iwm_command@CharGameInfoListWnd@@UAEXPAVioWnd@@HK@Z PROC ; CharGameInfoListWnd::iwm_command, COMDAT
; _this$ = ecx

; 388  : {

  00000	55		 push	 ebp
  00001	8b ec		 mov	 ebp, esp
  00003	56		 push	 esi

; 389  : 	DWORD dwID = pWnd->GetID();

  00004	8b 75 08	 mov	 esi, DWORD PTR _pWnd$[ebp]
  00007	57		 push	 edi
  00008	8b f9		 mov	 edi, ecx
  0000a	8b ce		 mov	 ecx, esi
  0000c	ff 15 00 00 00
	00		 call	 DWORD PTR __imp_?GetID@ioWnd@@QBEKXZ

; 390  : 	switch( dwID )

  00012	83 f8 01	 cmp	 eax, 1
  00015	74 7f		 je	 SHORT $LN12@iwm_comman@4
  00017	83 f8 14	 cmp	 eax, 20			; 00000014H
  0001a	0f 86 84 00 00
	00		 jbe	 $LN11@iwm_comman@4
  00020	83 f8 17	 cmp	 eax, 23			; 00000017H
  00023	76 61		 jbe	 SHORT $LN8@iwm_comman@4
  00025	83 f8 64	 cmp	 eax, 100		; 00000064H
  00028	76 7a		 jbe	 SHORT $LN11@iwm_comman@4
  0002a	83 f8 6a	 cmp	 eax, 106		; 0000006aH
  0002d	76 2b		 jbe	 SHORT $LN6@iwm_comman@4
  0002f	3d e8 03 00 00	 cmp	 eax, 1000		; 000003e8H
  00034	76 6e		 jbe	 SHORT $LN11@iwm_comman@4
  00036	3d ee 03 00 00	 cmp	 eax, 1006		; 000003eeH
  0003b	77 67		 ja	 SHORT $LN11@iwm_comman@4

; 396  : 		}
; 397  : 		break;
; 398  : 	case ID_WEAPON_APPLY:
; 399  : 	case ID_ARMOR_APPLY:
; 400  : 	case ID_HELMET_APPLY:
; 401  : 	case ID_CLOAK_APPLY:
; 402  : 	case ID_OBJECT_APPLY:
; 403  : 	case ID_WEAR_APPLY:		
; 404  : 		if( cmd == IOBN_BTNUP )

  0003d	83 7d 0c 11	 cmp	 DWORD PTR _cmd$[ebp], 17 ; 00000011H
  00041	75 61		 jne	 SHORT $LN11@iwm_comman@4

; 405  : 		{
; 406  : 			DWORD dwID = ID_WEAPON_EDIT + pWnd->GetID() - ID_WEAPON_APPLY;

  00043	8b ce		 mov	 ecx, esi
  00045	ff 15 00 00 00
	00		 call	 DWORD PTR __imp_?GetID@ioWnd@@QBEKXZ
  0004b	2d 84 03 00 00	 sub	 eax, 900		; 00000384H
$LN17@iwm_comman@4:

; 407  : 			EquipItem( dwID );

  00050	50		 push	 eax
  00051	8b cf		 mov	 ecx, edi
  00053	e8 00 00 00 00	 call	 ?EquipItem@CharGameInfoListWnd@@QAEXK@Z ; CharGameInfoListWnd::EquipItem

; 408  : 		}
; 409  : 		break;

  00058	eb 4a		 jmp	 SHORT $LN11@iwm_comman@4
$LN6@iwm_comman@4:

; 418  : 	case ID_WEAPON_EDIT:
; 419  : 	case ID_ARMOR_EDIT:
; 420  : 	case ID_HELMET_EDIT:
; 421  : 	case ID_CLOAK_EDIT:
; 422  : 	case ID_OBJECT_EDIT:
; 423  : 	case ID_WEAR_EDIT:
; 424  : 		if( cmd == IOED_INPUT )

  0005a	83 7d 0c 22	 cmp	 DWORD PTR _cmd$[ebp], 34 ; 00000022H
  0005e	75 44		 jne	 SHORT $LN11@iwm_comman@4

; 425  : 		{
; 426  : 			if( param == 1 )
; 427  : 			{
; 428  : 				EquipItem( pWnd->GetID() );

  00060	8b ce		 mov	 ecx, esi
  00062	ff 15 00 00 00
	00		 call	 DWORD PTR __imp_?GetID@ioWnd@@QBEKXZ
  00068	83 7d 10 01	 cmp	 DWORD PTR _param$[ebp], 1

; 429  : 			}
; 430  : 			else

  0006c	74 e2		 je	 SHORT $LN17@iwm_comman@4

; 431  : 			{
; 432  : 				DWORD dwNextID = pWnd->GetID() + 1;

  0006e	40		 inc	 eax

; 433  : 				if( !COMPARE( dwNextID, ID_WEAPON_EDIT, ID_WEAR_EDIT + 1 ) )

  0006f	83 f8 65	 cmp	 eax, 101		; 00000065H
  00072	72 05		 jb	 SHORT $LN1@iwm_comman@4
  00074	83 f8 6b	 cmp	 eax, 107		; 0000006bH
  00077	72 03		 jb	 SHORT $LN2@iwm_comman@4
$LN1@iwm_comman@4:

; 434  : 					dwNextID = ID_WEAPON_EDIT;

  00079	6a 65		 push	 101			; 00000065H
  0007b	58		 pop	 eax
$LN2@iwm_comman@4:

; 435  : 
; 436  : 				EnableEditFocus( dwNextID );

  0007c	50		 push	 eax
  0007d	8b cf		 mov	 ecx, edi
  0007f	e8 00 00 00 00	 call	 ?EnableEditFocus@CharGameInfoListWnd@@QAEXK@Z ; CharGameInfoListWnd::EnableEditFocus

; 437  : 			}
; 438  : 		}
; 439  : 		break;

  00084	eb 1e		 jmp	 SHORT $LN11@iwm_comman@4
$LN8@iwm_comman@4:

; 410  : 	case ID_ITEM_TAB:
; 411  : 	case ID_CHAR_INFO_TAB:
; 412  : 	case ID_BUFF_TAB:
; 413  : 		if( cmd == IOBN_BTNUP )

  00086	83 7d 0c 11	 cmp	 DWORD PTR _cmd$[ebp], 17 ; 00000011H
  0008a	75 18		 jne	 SHORT $LN11@iwm_comman@4

; 414  : 		{
; 415  : 			UpdateTab( dwID );

  0008c	50		 push	 eax
  0008d	8b cf		 mov	 ecx, edi
  0008f	e8 00 00 00 00	 call	 ?UpdateTab@CharGameInfoListWnd@@QAEXK@Z ; CharGameInfoListWnd::UpdateTab

; 416  : 		}
; 417  : 		break;

  00094	eb 0e		 jmp	 SHORT $LN11@iwm_comman@4
$LN12@iwm_comman@4:

; 391  : 	{
; 392  : 	case ID_EXIT:
; 393  : 		if( cmd == IOBN_BTNUP )

  00096	83 7d 0c 11	 cmp	 DWORD PTR _cmd$[ebp], 17 ; 00000011H
  0009a	75 08		 jne	 SHORT $LN11@iwm_comman@4

; 394  : 		{
; 395  : 			HideWnd();

  0009c	8b cf		 mov	 ecx, edi
  0009e	ff 15 00 00 00
	00		 call	 DWORD PTR __imp_?HideWnd@ioWnd@@QAEXXZ
$LN11@iwm_comman@4:
  000a4	5f		 pop	 edi
  000a5	5e		 pop	 esi

; 440  : 	}
; 441  : }

  000a6	5d		 pop	 ebp
  000a7	c2 0c 00	 ret	 12			; 0000000cH
?iwm_command@CharGameInfoListWnd@@UAEXPAVioWnd@@HK@Z ENDP ; CharGameInfoListWnd::iwm_command
_TEXT	ENDS
PUBLIC	??0?$vector@UUserInfo@DeveloperInfoWnd@@V?$allocator@UUserInfo@DeveloperInfoWnd@@@std@@@std@@QAE@XZ ; std::vector<DeveloperInfoWnd::UserInfo,std::allocator<DeveloperInfoWnd::UserInfo> >::vector<DeveloperInfoWnd::UserInfo,std::allocator<DeveloperInfoWnd::UserInfo> >
; Function compile flags: /Ogsp
; File c:\program files (x86)\microsoft visual studio 10.0\vc\include\vector
;	COMDAT ??0?$vector@UUserInfo@DeveloperInfoWnd@@V?$allocator@UUserInfo@DeveloperInfoWnd@@@std@@@std@@QAE@XZ
_TEXT	SEGMENT
??0?$vector@UUserInfo@DeveloperInfoWnd@@V?$allocator@UUserInfo@DeveloperInfoWnd@@@std@@@std@@QAE@XZ PROC ; std::vector<DeveloperInfoWnd::UserInfo,std::allocator<DeveloperInfoWnd::UserInfo> >::vector<DeveloperInfoWnd::UserInfo,std::allocator<DeveloperInfoWnd::UserInfo> >, COMDAT
; _this$ = ecx

; 507  : 		{	// construct empty vector

  00000	8b c1		 mov	 eax, ecx
  00002	33 c9		 xor	 ecx, ecx
  00004	89 08		 mov	 DWORD PTR [eax], ecx
  00006	89 48 04	 mov	 DWORD PTR [eax+4], ecx
  00009	89 48 08	 mov	 DWORD PTR [eax+8], ecx

; 508  : 		}

  0000c	c3		 ret	 0
??0?$vector@UUserInfo@DeveloperInfoWnd@@V?$allocator@UUserInfo@DeveloperInfoWnd@@@std@@@std@@QAE@XZ ENDP ; std::vector<DeveloperInfoWnd::UserInfo,std::allocator<DeveloperInfoWnd::UserInfo> >::vector<DeveloperInfoWnd::UserInfo,std::allocator<DeveloperInfoWnd::UserInfo> >
_TEXT	ENDS
PUBLIC	?begin@?$vector@UUserInfo@DeveloperInfoWnd@@V?$allocator@UUserInfo@DeveloperInfoWnd@@@std@@@std@@QAE?AV?$_Vector_iterator@V?$_Vector_val@UUserInfo@DeveloperInfoWnd@@V?$allocator@UUserInfo@DeveloperInfoWnd@@@std@@@std@@@2@XZ ; std::vector<DeveloperInfoWnd::UserInfo,std::allocator<DeveloperInfoWnd::UserInfo> >::begin
; Function compile flags: /Ogsp
;	COMDAT ?begin@?$vector@UUserInfo@DeveloperInfoWnd@@V?$allocator@UUserInfo@DeveloperInfoWnd@@@std@@@std@@QAE?AV?$_Vector_iterator@V?$_Vector_val@UUserInfo@DeveloperInfoWnd@@V?$allocator@UUserInfo@DeveloperInfoWnd@@@std@@@std@@@2@XZ
_TEXT	SEGMENT
___$ReturnUdt$ = 8					; size = 4
?begin@?$vector@UUserInfo@DeveloperInfoWnd@@V?$allocator@UUserInfo@DeveloperInfoWnd@@@std@@@std@@QAE?AV?$_Vector_iterator@V?$_Vector_val@UUserInfo@DeveloperInfoWnd@@V?$allocator@UUserInfo@DeveloperInfoWnd@@@std@@@std@@@2@XZ PROC ; std::vector<DeveloperInfoWnd::UserInfo,std::allocator<DeveloperInfoWnd::UserInfo> >::begin, COMDAT
; _this$ = ecx

; 781  : 		{	// return iterator for beginning of mutable sequence

  00000	55		 push	 ebp
  00001	8b ec		 mov	 ebp, esp

; 782  : 		return (iterator(this->_Myfirst, this));

  00003	8b 09		 mov	 ecx, DWORD PTR [ecx]
  00005	8b 45 08	 mov	 eax, DWORD PTR ___$ReturnUdt$[ebp]
  00008	89 08		 mov	 DWORD PTR [eax], ecx

; 783  : 		}

  0000a	5d		 pop	 ebp
  0000b	c2 04 00	 ret	 4
?begin@?$vector@UUserInfo@DeveloperInfoWnd@@V?$allocator@UUserInfo@DeveloperInfoWnd@@@std@@@std@@QAE?AV?$_Vector_iterator@V?$_Vector_val@UUserInfo@DeveloperInfoWnd@@V?$allocator@UUserInfo@DeveloperInfoWnd@@@std@@@std@@@2@XZ ENDP ; std::vector<DeveloperInfoWnd::UserInfo,std::allocator<DeveloperInfoWnd::UserInfo> >::begin
_TEXT	ENDS
PUBLIC	?end@?$vector@UUserInfo@DeveloperInfoWnd@@V?$allocator@UUserInfo@DeveloperInfoWnd@@@std@@@std@@QAE?AV?$_Vector_iterator@V?$_Vector_val@UUserInfo@DeveloperInfoWnd@@V?$allocator@UUserInfo@DeveloperInfoWnd@@@std@@@std@@@2@XZ ; std::vector<DeveloperInfoWnd::UserInfo,std::allocator<DeveloperInfoWnd::UserInfo> >::end
; Function compile flags: /Ogsp
;	COMDAT ?end@?$vector@UUserInfo@DeveloperInfoWnd@@V?$allocator@UUserInfo@DeveloperInfoWnd@@@std@@@std@@QAE?AV?$_Vector_iterator@V?$_Vector_val@UUserInfo@DeveloperInfoWnd@@V?$allocator@UUserInfo@DeveloperInfoWnd@@@std@@@std@@@2@XZ
_TEXT	SEGMENT
___$ReturnUdt$ = 8					; size = 4
?end@?$vector@UUserInfo@DeveloperInfoWnd@@V?$allocator@UUserInfo@DeveloperInfoWnd@@@std@@@std@@QAE?AV?$_Vector_iterator@V?$_Vector_val@UUserInfo@DeveloperInfoWnd@@V?$allocator@UUserInfo@DeveloperInfoWnd@@@std@@@std@@@2@XZ PROC ; std::vector<DeveloperInfoWnd::UserInfo,std::allocator<DeveloperInfoWnd::UserInfo> >::end, COMDAT
; _this$ = ecx

; 791  : 		{	// return iterator for end of mutable sequence

  00000	55		 push	 ebp
  00001	8b ec		 mov	 ebp, esp

; 792  : 		return (iterator(this->_Mylast, this));

  00003	8b 49 04	 mov	 ecx, DWORD PTR [ecx+4]
  00006	8b 45 08	 mov	 eax, DWORD PTR ___$ReturnUdt$[ebp]
  00009	89 08		 mov	 DWORD PTR [eax], ecx

; 793  : 		}

  0000b	5d		 pop	 ebp
  0000c	c2 04 00	 ret	 4
?end@?$vector@UUserInfo@DeveloperInfoWnd@@V?$allocator@UUserInfo@DeveloperInfoWnd@@@std@@@std@@QAE?AV?$_Vector_iterator@V?$_Vector_val@UUserInfo@DeveloperInfoWnd@@V?$allocator@UUserInfo@DeveloperInfoWnd@@@std@@@std@@@2@XZ ENDP ; std::vector<DeveloperInfoWnd::UserInfo,std::allocator<DeveloperInfoWnd::UserInfo> >::end
_TEXT	ENDS
PUBLIC	?_Make_iter@?$vector@UUserInfo@DeveloperInfoWnd@@V?$allocator@UUserInfo@DeveloperInfoWnd@@@std@@@std@@QBE?AV?$_Vector_iterator@V?$_Vector_val@UUserInfo@DeveloperInfoWnd@@V?$allocator@UUserInfo@DeveloperInfoWnd@@@std@@@std@@@2@V?$_Vector_const_iterator@V?$_Vector_val@UUserInfo@DeveloperInfoWnd@@V?$allocator@UUserInfo@DeveloperInfoWnd@@@std@@@std@@@2@@Z ; std::vector<DeveloperInfoWnd::UserInfo,std::allocator<DeveloperInfoWnd::UserInfo> >::_Make_iter
; Function compile flags: /Ogsp
;	COMDAT ?_Make_iter@?$vector@UUserInfo@DeveloperInfoWnd@@V?$allocator@UUserInfo@DeveloperInfoWnd@@@std@@@std@@QBE?AV?$_Vector_iterator@V?$_Vector_val@UUserInfo@DeveloperInfoWnd@@V?$allocator@UUserInfo@DeveloperInfoWnd@@@std@@@std@@@2@V?$_Vector_const_iterator@V?$_Vector_val@UUserInfo@DeveloperInfoWnd@@V?$allocator@UUserInfo@DeveloperInfoWnd@@@std@@@std@@@2@@Z
_TEXT	SEGMENT
___$ReturnUdt$ = 8					; size = 4
__Where$ = 12						; size = 4
?_Make_iter@?$vector@UUserInfo@DeveloperInfoWnd@@V?$allocator@UUserInfo@DeveloperInfoWnd@@@std@@@std@@QBE?AV?$_Vector_iterator@V?$_Vector_val@UUserInfo@DeveloperInfoWnd@@V?$allocator@UUserInfo@DeveloperInfoWnd@@@std@@@std@@@2@V?$_Vector_const_iterator@V?$_Vector_val@UUserInfo@DeveloperInfoWnd@@V?$allocator@UUserInfo@DeveloperInfoWnd@@@std@@@std@@@2@@Z PROC ; std::vector<DeveloperInfoWnd::UserInfo,std::allocator<DeveloperInfoWnd::UserInfo> >::_Make_iter, COMDAT
; _this$ = ecx

; 801  : 		{	// make iterator from const_iterator

  00000	55		 push	 ebp
  00001	8b ec		 mov	 ebp, esp

; 802  : 		return (iterator(_Where._Ptr, this));

  00003	8b 45 08	 mov	 eax, DWORD PTR ___$ReturnUdt$[ebp]
  00006	8b 4d 0c	 mov	 ecx, DWORD PTR __Where$[ebp]
  00009	89 08		 mov	 DWORD PTR [eax], ecx

; 803  : 		}

  0000b	5d		 pop	 ebp
  0000c	c2 08 00	 ret	 8
?_Make_iter@?$vector@UUserInfo@DeveloperInfoWnd@@V?$allocator@UUserInfo@DeveloperInfoWnd@@@std@@@std@@QBE?AV?$_Vector_iterator@V?$_Vector_val@UUserInfo@DeveloperInfoWnd@@V?$allocator@UUserInfo@DeveloperInfoWnd@@@std@@@std@@@2@V?$_Vector_const_iterator@V?$_Vector_val@UUserInfo@DeveloperInfoWnd@@V?$allocator@UUserInfo@DeveloperInfoWnd@@@std@@@std@@@2@@Z ENDP ; std::vector<DeveloperInfoWnd::UserInfo,std::allocator<DeveloperInfoWnd::UserInfo> >::_Make_iter
_TEXT	ENDS
PUBLIC	??9?$_Vector_const_iterator@V?$_Vector_val@UUserInfo@DeveloperInfoWnd@@V?$allocator@UUserInfo@DeveloperInfoWnd@@@std@@@std@@@std@@QBE_NABV01@@Z ; std::_Vector_const_iterator<std::_Vector_val<DeveloperInfoWnd::UserInfo,std::allocator<DeveloperInfoWnd::UserInfo> > >::operator!=
; Function compile flags: /Ogsp
;	COMDAT ??9?$_Vector_const_iterator@V?$_Vector_val@UUserInfo@DeveloperInfoWnd@@V?$allocator@UUserInfo@DeveloperInfoWnd@@@std@@@std@@@std@@QBE_NABV01@@Z
_TEXT	SEGMENT
__Right$ = 8						; size = 4
??9?$_Vector_const_iterator@V?$_Vector_val@UUserInfo@DeveloperInfoWnd@@V?$allocator@UUserInfo@DeveloperInfoWnd@@@std@@@std@@@std@@QBE_NABV01@@Z PROC ; std::_Vector_const_iterator<std::_Vector_val<DeveloperInfoWnd::UserInfo,std::allocator<DeveloperInfoWnd::UserInfo> > >::operator!=, COMDAT
; _this$ = ecx

; 207  : 		{	// test for iterator inequality

  00000	55		 push	 ebp
  00001	8b ec		 mov	 ebp, esp

; 208  : 		return (!(*this == _Right));

  00003	8b 01		 mov	 eax, DWORD PTR [ecx]
  00005	8b 55 08	 mov	 edx, DWORD PTR __Right$[ebp]
  00008	33 c9		 xor	 ecx, ecx
  0000a	3b 02		 cmp	 eax, DWORD PTR [edx]
  0000c	0f 95 c0	 setne	 al

; 209  : 		}

  0000f	5d		 pop	 ebp
  00010	c2 04 00	 ret	 4
??9?$_Vector_const_iterator@V?$_Vector_val@UUserInfo@DeveloperInfoWnd@@V?$allocator@UUserInfo@DeveloperInfoWnd@@@std@@@std@@@std@@QBE_NABV01@@Z ENDP ; std::_Vector_const_iterator<std::_Vector_val<DeveloperInfoWnd::UserInfo,std::allocator<DeveloperInfoWnd::UserInfo> > >::operator!=
_TEXT	ENDS
PUBLIC	??$_Cons_val@V?$allocator@UUserInfo@DeveloperInfoWnd@@@std@@UUserInfo@DeveloperInfoWnd@@AAU34@@std@@YAXAAV?$allocator@UUserInfo@DeveloperInfoWnd@@@0@PAUUserInfo@DeveloperInfoWnd@@AAU23@@Z ; std::_Cons_val<std::allocator<DeveloperInfoWnd::UserInfo>,DeveloperInfoWnd::UserInfo,DeveloperInfoWnd::UserInfo &>
;	COMDAT xdata$x
; File c:\program files (x86)\microsoft visual studio 10.0\vc\include\utility
xdata$x	SEGMENT
__unwindtable$??$_Cons_val@V?$allocator@UUserInfo@DeveloperInfoWnd@@@std@@UUserInfo@DeveloperInfoWnd@@AAU34@@std@@YAXAAV?$allocator@UUserInfo@DeveloperInfoWnd@@@0@PAUUserInfo@DeveloperInfoWnd@@AAU23@@Z DD 0ffffffffH
	DD	FLAT:__unwindfunclet$??$_Cons_val@V?$allocator@UUserInfo@DeveloperInfoWnd@@@std@@UUserInfo@DeveloperInfoWnd@@AAU34@@std@@YAXAAV?$allocator@UUserInfo@DeveloperInfoWnd@@@0@PAUUserInfo@DeveloperInfoWnd@@AAU23@@Z$0
__ehfuncinfo$??$_Cons_val@V?$allocator@UUserInfo@DeveloperInfoWnd@@@std@@UUserInfo@DeveloperInfoWnd@@AAU34@@std@@YAXAAV?$allocator@UUserInfo@DeveloperInfoWnd@@@0@PAUUserInfo@DeveloperInfoWnd@@AAU23@@Z DD 019930522H
	DD	01H
	DD	FLAT:__unwindtable$??$_Cons_val@V?$allocator@UUserInfo@DeveloperInfoWnd@@@std@@UUserInfo@DeveloperInfoWnd@@AAU34@@std@@YAXAAV?$allocator@UUserInfo@DeveloperInfoWnd@@@0@PAUUserInfo@DeveloperInfoWnd@@AAU23@@Z
	DD	2 DUP(00H)
	DD	2 DUP(00H)
	DD	00H
	DD	01H
; Function compile flags: /Ogsp
; File c:\program files (x86)\microsoft visual studio 10.0\vc\include\xmemory
xdata$x	ENDS
;	COMDAT ??$_Cons_val@V?$allocator@UUserInfo@DeveloperInfoWnd@@@std@@UUserInfo@DeveloperInfoWnd@@AAU34@@std@@YAXAAV?$allocator@UUserInfo@DeveloperInfoWnd@@@0@PAUUserInfo@DeveloperInfoWnd@@AAU23@@Z
_TEXT	SEGMENT
$T538127 = -16						; size = 4
__$EHRec$ = -12						; size = 12
__Alval$ = 8						; size = 4
__Pdest$ = 12						; size = 4
__Src$ = 16						; size = 4
??$_Cons_val@V?$allocator@UUserInfo@DeveloperInfoWnd@@@std@@UUserInfo@DeveloperInfoWnd@@AAU34@@std@@YAXAAV?$allocator@UUserInfo@DeveloperInfoWnd@@@0@PAUUserInfo@DeveloperInfoWnd@@AAU23@@Z PROC ; std::_Cons_val<std::allocator<DeveloperInfoWnd::UserInfo>,DeveloperInfoWnd::UserInfo,DeveloperInfoWnd::UserInfo &>, COMDAT

; 279  : 	{	// construct using allocator

  00000	6a 04		 push	 4
  00002	b8 00 00 00 00	 mov	 eax, __ehhandler$??$_Cons_val@V?$allocator@UUserInfo@DeveloperInfoWnd@@@std@@UUserInfo@DeveloperInfoWnd@@AAU34@@std@@YAXAAV?$allocator@UUserInfo@DeveloperInfoWnd@@@0@PAUUserInfo@DeveloperInfoWnd@@AAU23@@Z
  00007	e8 00 00 00 00	 call	 __EH_prolog3

; 280  : 	_Alval.construct(_Pdest, _STD forward<_Ty2>(_Src));

  0000c	8b 4d 0c	 mov	 ecx, DWORD PTR __Pdest$[ebp]
  0000f	89 4d f0	 mov	 DWORD PTR $T538127[ebp], ecx
  00012	83 65 fc 00	 and	 DWORD PTR __$EHRec$[ebp+8], 0
  00016	85 c9		 test	 ecx, ecx
  00018	74 08		 je	 SHORT $LN7@Cons_val
  0001a	ff 75 10	 push	 DWORD PTR __Src$[ebp]
  0001d	e8 00 00 00 00	 call	 ??0UserInfo@DeveloperInfoWnd@@QAE@ABU01@@Z
$LN7@Cons_val:

; 281  : 	}

  00022	e8 00 00 00 00	 call	 __EH_epilog3
  00027	c3		 ret	 0
_TEXT	ENDS
;	COMDAT text$x
text$x	SEGMENT
__unwindfunclet$??$_Cons_val@V?$allocator@UUserInfo@DeveloperInfoWnd@@@std@@UUserInfo@DeveloperInfoWnd@@AAU34@@std@@YAXAAV?$allocator@UUserInfo@DeveloperInfoWnd@@@0@PAUUserInfo@DeveloperInfoWnd@@AAU23@@Z$0:
  00000	ff 75 0c	 push	 DWORD PTR __Pdest$[ebp]
  00003	ff 75 f0	 push	 DWORD PTR $T538127[ebp]
  00006	e8 00 00 00 00	 call	 ??3@YAXPAX0@Z		; operator delete
  0000b	59		 pop	 ecx
  0000c	59		 pop	 ecx
  0000d	c3		 ret	 0
__ehhandler$??$_Cons_val@V?$allocator@UUserInfo@DeveloperInfoWnd@@@std@@UUserInfo@DeveloperInfoWnd@@AAU34@@std@@YAXAAV?$allocator@UUserInfo@DeveloperInfoWnd@@@0@PAUUserInfo@DeveloperInfoWnd@@AAU23@@Z:
  0000e	8b 54 24 08	 mov	 edx, DWORD PTR [esp+8]
  00012	8d 42 0c	 lea	 eax, DWORD PTR [edx+12]
  00015	8b 4a ec	 mov	 ecx, DWORD PTR [edx-20]
  00018	33 c8		 xor	 ecx, eax
  0001a	e8 00 00 00 00	 call	 @__security_check_cookie@4
  0001f	b8 00 00 00 00	 mov	 eax, OFFSET __ehfuncinfo$??$_Cons_val@V?$allocator@UUserInfo@DeveloperInfoWnd@@@std@@UUserInfo@DeveloperInfoWnd@@AAU34@@std@@YAXAAV?$allocator@UUserInfo@DeveloperInfoWnd@@@0@PAUUserInfo@DeveloperInfoWnd@@AAU23@@Z
  00024	e9 00 00 00 00	 jmp	 ___CxxFrameHandler3
text$x	ENDS
??$_Cons_val@V?$allocator@UUserInfo@DeveloperInfoWnd@@@std@@UUserInfo@DeveloperInfoWnd@@AAU34@@std@@YAXAAV?$allocator@UUserInfo@DeveloperInfoWnd@@@0@PAUUserInfo@DeveloperInfoWnd@@AAU23@@Z ENDP ; std::_Cons_val<std::allocator<DeveloperInfoWnd::UserInfo>,DeveloperInfoWnd::UserInfo,DeveloperInfoWnd::UserInfo &>
PUBLIC	??$_Move@PAUUserInfo@DeveloperInfoWnd@@PAU12@@std@@YAPAUUserInfo@DeveloperInfoWnd@@PAU12@00@Z ; std::_Move<DeveloperInfoWnd::UserInfo *,DeveloperInfoWnd::UserInfo *>
; Function compile flags: /Ogsp
; File c:\program files (x86)\microsoft visual studio 10.0\vc\include\xutility
;	COMDAT ??$_Move@PAUUserInfo@DeveloperInfoWnd@@PAU12@@std@@YAPAUUserInfo@DeveloperInfoWnd@@PAU12@00@Z
_TEXT	SEGMENT
__Cat$538147 = -4					; size = 1
__First$ = 8						; size = 4
__Last$ = 12						; size = 4
__Dest$ = 16						; size = 4
??$_Move@PAUUserInfo@DeveloperInfoWnd@@PAU12@@std@@YAPAUUserInfo@DeveloperInfoWnd@@PAU12@00@Z PROC ; std::_Move<DeveloperInfoWnd::UserInfo *,DeveloperInfoWnd::UserInfo *>, COMDAT

; 2533 : 	{	// move [_First, _Last) to [_Dest, ...), unchecked

  00000	55		 push	 ebp
  00001	8b ec		 mov	 ebp, esp
  00003	51		 push	 ecx

; 2534 : 	return (_Move(_First, _Last,
; 2535 : 		_Dest, _Ptr_cat(_First, _Dest)));

  00004	ff 75 fc	 push	 DWORD PTR __Cat$538147[ebp]
  00007	ff 75 10	 push	 DWORD PTR __Dest$[ebp]
  0000a	ff 75 0c	 push	 DWORD PTR __Last$[ebp]
  0000d	ff 75 08	 push	 DWORD PTR __First$[ebp]
  00010	e8 00 00 00 00	 call	 ??$_Move@PAUUserInfo@DeveloperInfoWnd@@PAU12@@std@@YAPAUUserInfo@DeveloperInfoWnd@@PAU12@00U_Nonscalar_ptr_iterator_tag@0@@Z ; std::_Move<DeveloperInfoWnd::UserInfo *,DeveloperInfoWnd::UserInfo *>
  00015	83 c4 10	 add	 esp, 16			; 00000010H

; 2536 : 	}

  00018	c9		 leave
  00019	c3		 ret	 0
??$_Move@PAUUserInfo@DeveloperInfoWnd@@PAU12@@std@@YAPAUUserInfo@DeveloperInfoWnd@@PAU12@00@Z ENDP ; std::_Move<DeveloperInfoWnd::UserInfo *,DeveloperInfoWnd::UserInfo *>
_TEXT	ENDS
PUBLIC	?construct@?$allocator@UUserInfo@DeveloperInfoWnd@@@std@@QAEXPAUUserInfo@DeveloperInfoWnd@@ABU34@@Z ; std::allocator<DeveloperInfoWnd::UserInfo>::construct
; Function compile flags: /Ogsp
; File c:\program files (x86)\microsoft visual studio 10.0\vc\include\xmemory
;	COMDAT ?construct@?$allocator@UUserInfo@DeveloperInfoWnd@@@std@@QAEXPAUUserInfo@DeveloperInfoWnd@@ABU34@@Z
_TEXT	SEGMENT
__Ptr$ = 8						; size = 4
__Val$ = 12						; size = 4
?construct@?$allocator@UUserInfo@DeveloperInfoWnd@@@std@@QAEXPAUUserInfo@DeveloperInfoWnd@@ABU34@@Z PROC ; std::allocator<DeveloperInfoWnd::UserInfo>::construct, COMDAT
; _this$ = ecx

; 196  : 		{	// construct object at _Ptr with value _Val

  00000	55		 push	 ebp
  00001	8b ec		 mov	 ebp, esp

; 197  : 		_Construct(_Ptr, _Val);

  00003	ff 75 0c	 push	 DWORD PTR __Val$[ebp]
  00006	ff 75 08	 push	 DWORD PTR __Ptr$[ebp]
  00009	e8 00 00 00 00	 call	 ??$_Construct@UUserInfo@DeveloperInfoWnd@@ABU12@@std@@YAXPAUUserInfo@DeveloperInfoWnd@@ABU12@@Z ; std::_Construct<DeveloperInfoWnd::UserInfo,DeveloperInfoWnd::UserInfo const &>
  0000e	59		 pop	 ecx
  0000f	59		 pop	 ecx

; 198  : 		}

  00010	5d		 pop	 ebp
  00011	c2 08 00	 ret	 8
?construct@?$allocator@UUserInfo@DeveloperInfoWnd@@@std@@QAEXPAUUserInfo@DeveloperInfoWnd@@ABU34@@Z ENDP ; std::allocator<DeveloperInfoWnd::UserInfo>::construct
_TEXT	ENDS
PUBLIC	?destroy@?$allocator@UUserInfo@DeveloperInfoWnd@@@std@@QAEXPAUUserInfo@DeveloperInfoWnd@@@Z ; std::allocator<DeveloperInfoWnd::UserInfo>::destroy
; Function compile flags: /Ogsp
;	COMDAT ?destroy@?$allocator@UUserInfo@DeveloperInfoWnd@@@std@@QAEXPAUUserInfo@DeveloperInfoWnd@@@Z
_TEXT	SEGMENT
__Ptr$ = 8						; size = 4
?destroy@?$allocator@UUserInfo@DeveloperInfoWnd@@@std@@QAEXPAUUserInfo@DeveloperInfoWnd@@@Z PROC ; std::allocator<DeveloperInfoWnd::UserInfo>::destroy, COMDAT
; _this$ = ecx

; 212  : 		{	// destroy object at _Ptr

  00000	55		 push	 ebp
  00001	8b ec		 mov	 ebp, esp

; 213  : 		_Destroy(_Ptr);

  00003	8b 4d 08	 mov	 ecx, DWORD PTR __Ptr$[ebp]
  00006	ff 15 00 00 00
	00		 call	 DWORD PTR __imp_??1ioHashString@@QAE@XZ

; 214  : 		}

  0000c	5d		 pop	 ebp
  0000d	c2 04 00	 ret	 4
?destroy@?$allocator@UUserInfo@DeveloperInfoWnd@@@std@@QAEXPAUUserInfo@DeveloperInfoWnd@@@Z ENDP ; std::allocator<DeveloperInfoWnd::UserInfo>::destroy
_TEXT	ENDS
PUBLIC	??$_Cons_val@V?$allocator@UUserInfo@DeveloperInfoWnd@@@std@@UUserInfo@DeveloperInfoWnd@@U34@@std@@YAXAAV?$allocator@UUserInfo@DeveloperInfoWnd@@@0@PAUUserInfo@DeveloperInfoWnd@@$$QAU23@@Z ; std::_Cons_val<std::allocator<DeveloperInfoWnd::UserInfo>,DeveloperInfoWnd::UserInfo,DeveloperInfoWnd::UserInfo>
;	COMDAT xdata$x
; File c:\program files (x86)\microsoft visual studio 10.0\vc\include\utility
xdata$x	SEGMENT
__unwindtable$??$_Cons_val@V?$allocator@UUserInfo@DeveloperInfoWnd@@@std@@UUserInfo@DeveloperInfoWnd@@U34@@std@@YAXAAV?$allocator@UUserInfo@DeveloperInfoWnd@@@0@PAUUserInfo@DeveloperInfoWnd@@$$QAU23@@Z DD 0ffffffffH
	DD	FLAT:__unwindfunclet$??$_Cons_val@V?$allocator@UUserInfo@DeveloperInfoWnd@@@std@@UUserInfo@DeveloperInfoWnd@@U34@@std@@YAXAAV?$allocator@UUserInfo@DeveloperInfoWnd@@@0@PAUUserInfo@DeveloperInfoWnd@@$$QAU23@@Z$0
__ehfuncinfo$??$_Cons_val@V?$allocator@UUserInfo@DeveloperInfoWnd@@@std@@UUserInfo@DeveloperInfoWnd@@U34@@std@@YAXAAV?$allocator@UUserInfo@DeveloperInfoWnd@@@0@PAUUserInfo@DeveloperInfoWnd@@$$QAU23@@Z DD 019930522H
	DD	01H
	DD	FLAT:__unwindtable$??$_Cons_val@V?$allocator@UUserInfo@DeveloperInfoWnd@@@std@@UUserInfo@DeveloperInfoWnd@@U34@@std@@YAXAAV?$allocator@UUserInfo@DeveloperInfoWnd@@@0@PAUUserInfo@DeveloperInfoWnd@@$$QAU23@@Z
	DD	2 DUP(00H)
	DD	2 DUP(00H)
	DD	00H
	DD	01H
; Function compile flags: /Ogsp
; File c:\program files (x86)\microsoft visual studio 10.0\vc\include\xmemory
xdata$x	ENDS
;	COMDAT ??$_Cons_val@V?$allocator@UUserInfo@DeveloperInfoWnd@@@std@@UUserInfo@DeveloperInfoWnd@@U34@@std@@YAXAAV?$allocator@UUserInfo@DeveloperInfoWnd@@@0@PAUUserInfo@DeveloperInfoWnd@@$$QAU23@@Z
_TEXT	SEGMENT
$T538189 = -16						; size = 4
__$EHRec$ = -12						; size = 12
__Alval$ = 8						; size = 4
__Pdest$ = 12						; size = 4
__Src$ = 16						; size = 4
??$_Cons_val@V?$allocator@UUserInfo@DeveloperInfoWnd@@@std@@UUserInfo@DeveloperInfoWnd@@U34@@std@@YAXAAV?$allocator@UUserInfo@DeveloperInfoWnd@@@0@PAUUserInfo@DeveloperInfoWnd@@$$QAU23@@Z PROC ; std::_Cons_val<std::allocator<DeveloperInfoWnd::UserInfo>,DeveloperInfoWnd::UserInfo,DeveloperInfoWnd::UserInfo>, COMDAT

; 279  : 	{	// construct using allocator

  00000	6a 04		 push	 4
  00002	b8 00 00 00 00	 mov	 eax, __ehhandler$??$_Cons_val@V?$allocator@UUserInfo@DeveloperInfoWnd@@@std@@UUserInfo@DeveloperInfoWnd@@U34@@std@@YAXAAV?$allocator@UUserInfo@DeveloperInfoWnd@@@0@PAUUserInfo@DeveloperInfoWnd@@$$QAU23@@Z
  00007	e8 00 00 00 00	 call	 __EH_prolog3

; 280  : 	_Alval.construct(_Pdest, _STD forward<_Ty2>(_Src));

  0000c	8b 4d 0c	 mov	 ecx, DWORD PTR __Pdest$[ebp]
  0000f	89 4d f0	 mov	 DWORD PTR $T538189[ebp], ecx
  00012	83 65 fc 00	 and	 DWORD PTR __$EHRec$[ebp+8], 0
  00016	85 c9		 test	 ecx, ecx
  00018	74 08		 je	 SHORT $LN7@Cons_val@2
  0001a	ff 75 10	 push	 DWORD PTR __Src$[ebp]
  0001d	e8 00 00 00 00	 call	 ??0UserInfo@DeveloperInfoWnd@@QAE@ABU01@@Z
$LN7@Cons_val@2:

; 281  : 	}

  00022	e8 00 00 00 00	 call	 __EH_epilog3
  00027	c3		 ret	 0
_TEXT	ENDS
;	COMDAT text$x
text$x	SEGMENT
__unwindfunclet$??$_Cons_val@V?$allocator@UUserInfo@DeveloperInfoWnd@@@std@@UUserInfo@DeveloperInfoWnd@@U34@@std@@YAXAAV?$allocator@UUserInfo@DeveloperInfoWnd@@@0@PAUUserInfo@DeveloperInfoWnd@@$$QAU23@@Z$0:
  00000	ff 75 0c	 push	 DWORD PTR __Pdest$[ebp]
  00003	ff 75 f0	 push	 DWORD PTR $T538189[ebp]
  00006	e8 00 00 00 00	 call	 ??3@YAXPAX0@Z		; operator delete
  0000b	59		 pop	 ecx
  0000c	59		 pop	 ecx
  0000d	c3		 ret	 0
__ehhandler$??$_Cons_val@V?$allocator@UUserInfo@DeveloperInfoWnd@@@std@@UUserInfo@DeveloperInfoWnd@@U34@@std@@YAXAAV?$allocator@UUserInfo@DeveloperInfoWnd@@@0@PAUUserInfo@DeveloperInfoWnd@@$$QAU23@@Z:
  0000e	8b 54 24 08	 mov	 edx, DWORD PTR [esp+8]
  00012	8d 42 0c	 lea	 eax, DWORD PTR [edx+12]
  00015	8b 4a ec	 mov	 ecx, DWORD PTR [edx-20]
  00018	33 c8		 xor	 ecx, eax
  0001a	e8 00 00 00 00	 call	 @__security_check_cookie@4
  0001f	b8 00 00 00 00	 mov	 eax, OFFSET __ehfuncinfo$??$_Cons_val@V?$allocator@UUserInfo@DeveloperInfoWnd@@@std@@UUserInfo@DeveloperInfoWnd@@U34@@std@@YAXAAV?$allocator@UUserInfo@DeveloperInfoWnd@@@0@PAUUserInfo@DeveloperInfoWnd@@$$QAU23@@Z
  00024	e9 00 00 00 00	 jmp	 ___CxxFrameHandler3
text$x	ENDS
??$_Cons_val@V?$allocator@UUserInfo@DeveloperInfoWnd@@@std@@UUserInfo@DeveloperInfoWnd@@U34@@std@@YAXAAV?$allocator@UUserInfo@DeveloperInfoWnd@@@0@PAUUserInfo@DeveloperInfoWnd@@$$QAU23@@Z ENDP ; std::_Cons_val<std::allocator<DeveloperInfoWnd::UserInfo>,DeveloperInfoWnd::UserInfo,DeveloperInfoWnd::UserInfo>
PUBLIC	?GetModeType@ioPlayMode@@SA?AW4ModeType@@XZ	; ioPlayMode::GetModeType
EXTRN	?m_ModeType@ioPlayMode@@1V?$CEncrypt@W4ModeType@@@@A:BYTE ; ioPlayMode::m_ModeType
; Function compile flags: /Ogsp
; File d:\lost saga for developer\youtube\tutorial\source\src\lsclient\ioplaymode.h
;	COMDAT ?GetModeType@ioPlayMode@@SA?AW4ModeType@@XZ
_TEXT	SEGMENT
?GetModeType@ioPlayMode@@SA?AW4ModeType@@XZ PROC	; ioPlayMode::GetModeType, COMDAT

; 782  : 	static ModeType GetModeType() { return m_ModeType; }

  00000	6a 04		 push	 4
  00002	68 28 00 00 00	 push	 OFFSET ?m_ModeType@ioPlayMode@@1V?$CEncrypt@W4ModeType@@@@A+40
  00007	68 1c 00 00 00	 push	 OFFSET ?m_ModeType@ioPlayMode@@1V?$CEncrypt@W4ModeType@@@@A+28
  0000c	b9 0c 00 00 00	 mov	 ecx, OFFSET ?m_ModeType@ioPlayMode@@1V?$CEncrypt@W4ModeType@@@@A+12
  00011	e8 00 00 00 00	 call	 ?DecryptByte@ccddaabb@@QBEXPBDPADH@Z ; ccddaabb::DecryptByte
  00016	a1 28 00 00 00	 mov	 eax, DWORD PTR ?m_ModeType@ioPlayMode@@1V?$CEncrypt@W4ModeType@@@@A+40
  0001b	c3		 ret	 0
?GetModeType@ioPlayMode@@SA?AW4ModeType@@XZ ENDP	; ioPlayMode::GetModeType
_TEXT	ENDS
PUBLIC	??0?$vector@VioHashString@@V?$allocator@VioHashString@@@std@@@std@@QAE@XZ ; std::vector<ioHashString,std::allocator<ioHashString> >::vector<ioHashString,std::allocator<ioHashString> >
; Function compile flags: /Ogsp
; File c:\program files (x86)\microsoft visual studio 10.0\vc\include\vector
;	COMDAT ??0?$vector@VioHashString@@V?$allocator@VioHashString@@@std@@@std@@QAE@XZ
_TEXT	SEGMENT
??0?$vector@VioHashString@@V?$allocator@VioHashString@@@std@@@std@@QAE@XZ PROC ; std::vector<ioHashString,std::allocator<ioHashString> >::vector<ioHashString,std::allocator<ioHashString> >, COMDAT
; _this$ = ecx

; 507  : 		{	// construct empty vector

  00000	8b c1		 mov	 eax, ecx
  00002	33 c9		 xor	 ecx, ecx
  00004	89 08		 mov	 DWORD PTR [eax], ecx
  00006	89 48 04	 mov	 DWORD PTR [eax+4], ecx
  00009	89 48 08	 mov	 DWORD PTR [eax+8], ecx

; 508  : 		}

  0000c	c3		 ret	 0
??0?$vector@VioHashString@@V?$allocator@VioHashString@@@std@@@std@@QAE@XZ ENDP ; std::vector<ioHashString,std::allocator<ioHashString> >::vector<ioHashString,std::allocator<ioHashString> >
_TEXT	ENDS
PUBLIC	??9?$_Vector_const_iterator@V?$_Vector_val@VioHashString@@V?$allocator@VioHashString@@@std@@@std@@@std@@QBE_NABV01@@Z ; std::_Vector_const_iterator<std::_Vector_val<ioHashString,std::allocator<ioHashString> > >::operator!=
; Function compile flags: /Ogsp
;	COMDAT ??9?$_Vector_const_iterator@V?$_Vector_val@VioHashString@@V?$allocator@VioHashString@@@std@@@std@@@std@@QBE_NABV01@@Z
_TEXT	SEGMENT
__Right$ = 8						; size = 4
??9?$_Vector_const_iterator@V?$_Vector_val@VioHashString@@V?$allocator@VioHashString@@@std@@@std@@@std@@QBE_NABV01@@Z PROC ; std::_Vector_const_iterator<std::_Vector_val<ioHashString,std::allocator<ioHashString> > >::operator!=, COMDAT
; _this$ = ecx

; 207  : 		{	// test for iterator inequality

  00000	55		 push	 ebp
  00001	8b ec		 mov	 ebp, esp

; 208  : 		return (!(*this == _Right));

  00003	8b 01		 mov	 eax, DWORD PTR [ecx]
  00005	8b 55 08	 mov	 edx, DWORD PTR __Right$[ebp]
  00008	33 c9		 xor	 ecx, ecx
  0000a	3b 02		 cmp	 eax, DWORD PTR [edx]
  0000c	0f 95 c0	 setne	 al

; 209  : 		}

  0000f	5d		 pop	 ebp
  00010	c2 04 00	 ret	 4
??9?$_Vector_const_iterator@V?$_Vector_val@VioHashString@@V?$allocator@VioHashString@@@std@@@std@@@std@@QBE_NABV01@@Z ENDP ; std::_Vector_const_iterator<std::_Vector_val<ioHashString,std::allocator<ioHashString> > >::operator!=
_TEXT	ENDS
PUBLIC	??$_Move@PAVioHashString@@PAV1@@std@@YAPAVioHashString@@PAV1@00@Z ; std::_Move<ioHashString *,ioHashString *>
; Function compile flags: /Ogsp
; File c:\program files (x86)\microsoft visual studio 10.0\vc\include\xutility
;	COMDAT ??$_Move@PAVioHashString@@PAV1@@std@@YAPAVioHashString@@PAV1@00@Z
_TEXT	SEGMENT
__Cat$538247 = -4					; size = 1
__First$ = 8						; size = 4
__Last$ = 12						; size = 4
__Dest$ = 16						; size = 4
??$_Move@PAVioHashString@@PAV1@@std@@YAPAVioHashString@@PAV1@00@Z PROC ; std::_Move<ioHashString *,ioHashString *>, COMDAT

; 2533 : 	{	// move [_First, _Last) to [_Dest, ...), unchecked

  00000	55		 push	 ebp
  00001	8b ec		 mov	 ebp, esp
  00003	51		 push	 ecx

; 2534 : 	return (_Move(_First, _Last,
; 2535 : 		_Dest, _Ptr_cat(_First, _Dest)));

  00004	ff 75 fc	 push	 DWORD PTR __Cat$538247[ebp]
  00007	ff 75 10	 push	 DWORD PTR __Dest$[ebp]
  0000a	ff 75 0c	 push	 DWORD PTR __Last$[ebp]
  0000d	ff 75 08	 push	 DWORD PTR __First$[ebp]
  00010	e8 00 00 00 00	 call	 ??$_Move@PAVioHashString@@PAV1@@std@@YAPAVioHashString@@PAV1@00U_Nonscalar_ptr_iterator_tag@0@@Z ; std::_Move<ioHashString *,ioHashString *>
  00015	83 c4 10	 add	 esp, 16			; 00000010H

; 2536 : 	}

  00018	c9		 leave
  00019	c3		 ret	 0
??$_Move@PAVioHashString@@PAV1@@std@@YAPAVioHashString@@PAV1@00@Z ENDP ; std::_Move<ioHashString *,ioHashString *>
_TEXT	ENDS
PUBLIC	?destroy@?$allocator@VioHashString@@@std@@QAEXPAVioHashString@@@Z ; std::allocator<ioHashString>::destroy
; Function compile flags: /Ogsp
; File c:\program files (x86)\microsoft visual studio 10.0\vc\include\xmemory
;	COMDAT ?destroy@?$allocator@VioHashString@@@std@@QAEXPAVioHashString@@@Z
_TEXT	SEGMENT
__Ptr$ = 8						; size = 4
?destroy@?$allocator@VioHashString@@@std@@QAEXPAVioHashString@@@Z PROC ; std::allocator<ioHashString>::destroy, COMDAT
; _this$ = ecx

; 212  : 		{	// destroy object at _Ptr

  00000	55		 push	 ebp
  00001	8b ec		 mov	 ebp, esp

; 213  : 		_Destroy(_Ptr);

  00003	8b 4d 08	 mov	 ecx, DWORD PTR __Ptr$[ebp]
  00006	ff 15 00 00 00
	00		 call	 DWORD PTR __imp_??1ioHashString@@QAE@XZ

; 214  : 		}

  0000c	5d		 pop	 ebp
  0000d	c2 04 00	 ret	 4
?destroy@?$allocator@VioHashString@@@std@@QAEXPAVioHashString@@@Z ENDP ; std::allocator<ioHashString>::destroy
_TEXT	ENDS
PUBLIC	?iwm_show@CharGameInfoListWnd@@UAEXXZ		; CharGameInfoListWnd::iwm_show
; Function compile flags: /Ogsp
; File d:\lost saga for developer\youtube\tutorial\source\src\lsclient\gui\debuginfownd.cpp
;	COMDAT ?iwm_show@CharGameInfoListWnd@@UAEXXZ
_TEXT	SEGMENT
?iwm_show@CharGameInfoListWnd@@UAEXXZ PROC		; CharGameInfoListWnd::iwm_show, COMDAT
; _this$ = ecx

; 248  : 	m_pPreEdit = ioEdit::m_pKeyFocusEdit;

  00000	a1 00 00 00 00	 mov	 eax, DWORD PTR __imp_?m_pKeyFocusEdit@ioEdit@@2PAV1@A
  00005	8b 00		 mov	 eax, DWORD PTR [eax]

; 249  : 	UpdateTab( ID_ITEM_TAB );

  00007	6a 15		 push	 21			; 00000015H
  00009	89 81 b4 01 00
	00		 mov	 DWORD PTR [ecx+436], eax
  0000f	e8 00 00 00 00	 call	 ?UpdateTab@CharGameInfoListWnd@@QAEXK@Z ; CharGameInfoListWnd::UpdateTab

; 250  : }

  00014	c3		 ret	 0
?iwm_show@CharGameInfoListWnd@@UAEXXZ ENDP		; CharGameInfoListWnd::iwm_show
_TEXT	ENDS
PUBLIC	??_C@_0BF@HLMKMDGF@?5Jump?5Power?5Amt?5?3?5?$CFf?$AA@ ; `string'
PUBLIC	??_C@_0BF@HHBBOAPF@?5Move?5Speed?5Amt?5?3?5?$CFf?$AA@ ; `string'
PUBLIC	??_C@_0BA@GIHABAJ@?5Force?5Amt?5?3?5?$CFf?$AA@	; `string'
PUBLIC	??_C@_0BC@LGMOHADH@?5Gravity?5Amt?5?3?5?$CFf?$AA@ ; `string'
PUBLIC	__real@3f0ccccd
PUBLIC	??_C@_0BO@POFHAMAD@CharGameInfoListWnd?3?3OnRender?$AA@ ; `string'
PUBLIC	?OnRender@CharGameInfoListWnd@@MAEXXZ		; CharGameInfoListWnd::OnRender
EXTRN	__imp_?PrintText@ioFontManager@@QAEXMMMPBDM@Z:PROC
EXTRN	__imp_?PrintText@ioFontManager@@QAEXMMMPBDH0@Z:PROC
EXTRN	__imp_?IsEmpty@ioHashString@@QBE_NXZ:PROC
;	COMDAT ??_C@_0BF@HLMKMDGF@?5Jump?5Power?5Amt?5?3?5?$CFf?$AA@
; File c:\program files (x86)\microsoft visual studio 10.0\vc\include\vector
CONST	SEGMENT
??_C@_0BF@HLMKMDGF@?5Jump?5Power?5Amt?5?3?5?$CFf?$AA@ DB ' Jump Power Amt'
	DB	' : %f', 00H					; `string'
CONST	ENDS
;	COMDAT ??_C@_0BF@HHBBOAPF@?5Move?5Speed?5Amt?5?3?5?$CFf?$AA@
CONST	SEGMENT
??_C@_0BF@HHBBOAPF@?5Move?5Speed?5Amt?5?3?5?$CFf?$AA@ DB ' Move Speed Amt'
	DB	' : %f', 00H					; `string'
CONST	ENDS
;	COMDAT ??_C@_0BA@GIHABAJ@?5Force?5Amt?5?3?5?$CFf?$AA@
CONST	SEGMENT
??_C@_0BA@GIHABAJ@?5Force?5Amt?5?3?5?$CFf?$AA@ DB ' Force Amt : %f', 00H ; `string'
CONST	ENDS
;	COMDAT ??_C@_0BC@LGMOHADH@?5Gravity?5Amt?5?3?5?$CFf?$AA@
CONST	SEGMENT
??_C@_0BC@LGMOHADH@?5Gravity?5Amt?5?3?5?$CFf?$AA@ DB ' Gravity Amt : %f', 00H ; `string'
CONST	ENDS
;	COMDAT __real@3f0ccccd
CONST	SEGMENT
__real@3f0ccccd DD 03f0ccccdr			; 0.55
CONST	ENDS
;	COMDAT ??_C@_0BO@POFHAMAD@CharGameInfoListWnd?3?3OnRender?$AA@
CONST	SEGMENT
??_C@_0BO@POFHAMAD@CharGameInfoListWnd?3?3OnRender?$AA@ DB 'CharGameInfoL'
	DB	'istWnd::OnRender', 00H			; `string'
; Function compile flags: /Ogsp
; File d:\lost saga for developer\youtube\tutorial\source\src\lsclient\gui\debuginfownd.cpp
CONST	ENDS
;	COMDAT ?OnRender@CharGameInfoListWnd@@MAEXXZ
_TEXT	SEGMENT
_iXPos$ = -12						; size = 4
tv336 = -8						; size = 4
_i$534993 = -8						; size = 4
tv386 = -4						; size = 4
_iYPos$ = -4						; size = 4
?OnRender@CharGameInfoListWnd@@MAEXXZ PROC		; CharGameInfoListWnd::OnRender, COMDAT
; _this$ = ecx

; 538  : {

  00000	55		 push	 ebp
  00001	8b ec		 mov	 ebp, esp
  00003	83 ec 0c	 sub	 esp, 12			; 0000000cH
  00006	53		 push	 ebx
  00007	56		 push	 esi
  00008	57		 push	 edi
  00009	8b f9		 mov	 edi, ecx

; 539  : 	ioWnd::OnRender();

  0000b	ff 15 00 00 00
	00		 call	 DWORD PTR __imp_?OnRender@ioWnd@@MAEXXZ

; 540  : 
; 541  : 	int iXPos, iYPos;
; 542  : 	iXPos = GetDerivedPosX();

  00011	8b cf		 mov	 ecx, edi
  00013	ff 15 00 00 00
	00		 call	 DWORD PTR __imp_?GetDerivedPosX@ioWnd@@QBEHXZ

; 543  : 	iYPos = GetDerivedPosY();

  00019	8b cf		 mov	 ecx, edi
  0001b	89 45 f4	 mov	 DWORD PTR _iXPos$[ebp], eax
  0001e	ff 15 00 00 00
	00		 call	 DWORD PTR __imp_?GetDerivedPosY@ioWnd@@QBEHXZ

; 544  : 
; 545  : 	g_FontMgr.SetAlignType( TAT_LEFT );

  00024	8b 35 00 00 00
	00		 mov	 esi, DWORD PTR __imp_?GetSingleton@ioFontManager@@SAAAV1@XZ
  0002a	33 db		 xor	 ebx, ebx
  0002c	53		 push	 ebx
  0002d	89 45 fc	 mov	 DWORD PTR _iYPos$[ebp], eax
  00030	ff d6		 call	 esi
  00032	8b c8		 mov	 ecx, eax
  00034	ff 15 00 00 00
	00		 call	 DWORD PTR __imp_?SetAlignType@ioFontManager@@QAEXW4TextAlignType@@@Z

; 546  : 	g_FontMgr.SetTextStyle( TS_NORMAL );

  0003a	53		 push	 ebx
  0003b	ff d6		 call	 esi
  0003d	8b c8		 mov	 ecx, eax
  0003f	ff 15 00 00 00
	00		 call	 DWORD PTR __imp_?SetTextStyle@ioFontManager@@QAEXW4TextStyle@@@Z

; 547  : 	g_FontMgr.SetBkColor( 0, 0, 0 );

  00045	53		 push	 ebx
  00046	53		 push	 ebx
  00047	53		 push	 ebx
  00048	ff d6		 call	 esi
  0004a	8b c8		 mov	 ecx, eax
  0004c	ff 15 00 00 00
	00		 call	 DWORD PTR __imp_?SetBkColor@ioFontManager@@QAEXHHH@Z

; 548  : 	g_FontMgr.SetTextColor( TCT_DEFAULT_GRAY );

  00052	68 6e 6e 6e ff	 push	 -9539986		; ff6e6e6eH
  00057	ff d6		 call	 esi
  00059	8b c8		 mov	 ecx, eax
  0005b	ff 15 00 00 00
	00		 call	 DWORD PTR __imp_?SetTextColor@ioFontManager@@QAEXK@Z

; 549  : 	
; 550  : 	switch( m_dwCurrTab )

  00061	8b 87 b8 01 00
	00		 mov	 eax, DWORD PTR [edi+440]
  00067	83 e8 16	 sub	 eax, 22			; 00000016H
  0006a	0f 84 b0 00 00
	00		 je	 $LN6@OnRender@3
  00070	48		 dec	 eax
  00071	0f 85 d8 01 00
	00		 jne	 $LN7@OnRender@3

; 558  : 		}
; 559  : 		break;
; 560  : 	case ID_BUFF_TAB:
; 561  : 		{
; 562  : 			ioHashStringVec::iterator iter = m_CharStateInfo.BuffList.begin();

  00077	8b 9f 94 01 00
	00		 mov	 ebx, DWORD PTR [edi+404]

; 563  : 			for( int i = 0; iter != m_CharStateInfo.BuffList.end(); ++iter, ++i )

  0007d	21 45 f8	 and	 DWORD PTR _i$534993[ebp], eax
  00080	3b 9f 98 01 00
	00		 cmp	 ebx, DWORD PTR [edi+408]
  00086	0f 84 c3 01 00
	00		 je	 $LN7@OnRender@3

; 558  : 		}
; 559  : 		break;
; 560  : 	case ID_BUFF_TAB:
; 561  : 		{
; 562  : 			ioHashStringVec::iterator iter = m_CharStateInfo.BuffList.begin();

  0008c	8b 45 fc	 mov	 eax, DWORD PTR _iYPos$[ebp]
  0008f	83 c0 50	 add	 eax, 80			; 00000050H
  00092	89 45 fc	 mov	 DWORD PTR tv386[ebp], eax
$LL4@OnRender@3:

; 564  : 			{
; 565  : 				const ioHashString& szName = *iter;
; 566  : 				if( !szName.IsEmpty() )

  00095	8b cb		 mov	 ecx, ebx
  00097	ff 15 00 00 00
	00		 call	 DWORD PTR __imp_?IsEmpty@ioHashString@@QBE_NXZ
  0009d	84 c0		 test	 al, al
  0009f	75 64		 jne	 SHORT $LN3@OnRender@3

; 567  : 				{
; 568  : 					g_FontMgr.PrintText( iXPos + 10, iYPos + 80 + i * 15, FONT_SIZE_11, STR(1), i, szName.c_str() );

  000a1	8b cb		 mov	 ecx, ebx
  000a3	ff 15 00 00 00
	00		 call	 DWORD PTR __imp_?c_str@ioHashString@@QBEPBDXZ
  000a9	50		 push	 eax
  000aa	ff 75 f8	 push	 DWORD PTR _i$534993[ebp]
  000ad	6a 00		 push	 0
  000af	6a 01		 push	 1
  000b1	68 00 00 00 00	 push	 OFFSET ??_C@_00CNPNBAHC@?$AA@
  000b6	68 00 00 00 00	 push	 OFFSET ??_C@_0BO@POFHAMAD@CharGameInfoListWnd?3?3OnRender?$AA@
  000bb	ff 15 00 00 00
	00		 call	 DWORD PTR __imp_?GetSingleton@ioStringManager@@SAAAV1@XZ
  000c1	8b c8		 mov	 ecx, eax
  000c3	ff 15 00 00 00
	00		 call	 DWORD PTR __imp_?GetString@ioStringManager@@QAEPADPBD0HW4FileNamePrefix@1@@Z
  000c9	f3 0f 10 05 00
	00 00 00	 movss	 xmm0, DWORD PTR __real@3f0ccccd
  000d1	50		 push	 eax
  000d2	8b 45 f4	 mov	 eax, DWORD PTR _iXPos$[ebp]
  000d5	83 ec 0c	 sub	 esp, 12			; 0000000cH
  000d8	f3 0f 11 44 24
	08		 movss	 DWORD PTR [esp+8], xmm0
  000de	66 0f 6e 45 fc	 movd	 xmm0, DWORD PTR tv386[ebp]
  000e3	0f 5b c0	 cvtdq2ps xmm0, xmm0
  000e6	f3 0f 11 44 24
	04		 movss	 DWORD PTR [esp+4], xmm0
  000ec	83 c0 0a	 add	 eax, 10			; 0000000aH
  000ef	0f 57 c0	 xorps	 xmm0, xmm0
  000f2	f3 0f 2a c0	 cvtsi2ss xmm0, eax
  000f6	f3 0f 11 04 24	 movss	 DWORD PTR [esp], xmm0
  000fb	ff d6		 call	 esi
  000fd	8b c8		 mov	 ecx, eax
  000ff	ff 15 00 00 00
	00		 call	 DWORD PTR __imp_?PrintText@ioFontManager@@QAEXMMMPBDH0@Z
$LN3@OnRender@3:

; 563  : 			for( int i = 0; iter != m_CharStateInfo.BuffList.end(); ++iter, ++i )

  00105	83 45 fc 0f	 add	 DWORD PTR tv386[ebp], 15 ; 0000000fH
  00109	83 c3 10	 add	 ebx, 16			; 00000010H
  0010c	ff 45 f8	 inc	 DWORD PTR _i$534993[ebp]
  0010f	3b 9f 98 01 00
	00		 cmp	 ebx, DWORD PTR [edi+408]
  00115	0f 85 7a ff ff
	ff		 jne	 $LL4@OnRender@3

; 569  : 				}
; 570  : 			}
; 571  : 		}
; 572  : 		break;

  0011b	e9 2f 01 00 00	 jmp	 $LN7@OnRender@3
$LN6@OnRender@3:

; 551  : 	{
; 552  : 	case ID_CHAR_INFO_TAB:
; 553  : 		{
; 554  : 			g_FontMgr.PrintText( iXPos + 10, iYPos + 80, FONT_SIZE_11, " Gravity Amt : %f", m_CharStateInfo.fGravity );

  00120	f3 0f 10 8f a4
	01 00 00	 movss	 xmm1, DWORD PTR [edi+420]
  00128	8b 45 f4	 mov	 eax, DWORD PTR _iXPos$[ebp]
  0012b	51		 push	 ecx
  0012c	f3 0f 11 0c 24	 movss	 DWORD PTR [esp], xmm1
  00131	f3 0f 10 0d 00
	00 00 00	 movss	 xmm1, DWORD PTR __real@3f0ccccd
  00139	83 c0 0a	 add	 eax, 10			; 0000000aH
  0013c	0f 57 c0	 xorps	 xmm0, xmm0
  0013f	f3 0f 2a c0	 cvtsi2ss xmm0, eax
  00143	8b 45 fc	 mov	 eax, DWORD PTR _iYPos$[ebp]
  00146	68 00 00 00 00	 push	 OFFSET ??_C@_0BC@LGMOHADH@?5Gravity?5Amt?5?3?5?$CFf?$AA@
  0014b	83 ec 0c	 sub	 esp, 12			; 0000000cH
  0014e	f3 0f 11 4c 24
	08		 movss	 DWORD PTR [esp+8], xmm1
  00154	83 c0 50	 add	 eax, 80			; 00000050H
  00157	0f 57 c9	 xorps	 xmm1, xmm1
  0015a	f3 0f 2a c8	 cvtsi2ss xmm1, eax
  0015e	f3 0f 11 4c 24
	04		 movss	 DWORD PTR [esp+4], xmm1
  00164	f3 0f 11 45 f8	 movss	 DWORD PTR tv336[ebp], xmm0
  00169	f3 0f 11 04 24	 movss	 DWORD PTR [esp], xmm0
  0016e	ff d6		 call	 esi
  00170	8b 1d 00 00 00
	00		 mov	 ebx, DWORD PTR __imp_?PrintText@ioFontManager@@QAEXMMMPBDM@Z
  00176	8b c8		 mov	 ecx, eax
  00178	ff d3		 call	 ebx

; 555  : 			g_FontMgr.PrintText( iXPos + 10, iYPos + 95, FONT_SIZE_11, " Force Amt : %f", m_CharStateInfo.fForce );

  0017a	f3 0f 10 87 a8
	01 00 00	 movss	 xmm0, DWORD PTR [edi+424]
  00182	8b 45 fc	 mov	 eax, DWORD PTR _iYPos$[ebp]
  00185	51		 push	 ecx
  00186	f3 0f 11 04 24	 movss	 DWORD PTR [esp], xmm0
  0018b	f3 0f 10 05 00
	00 00 00	 movss	 xmm0, DWORD PTR __real@3f0ccccd
  00193	68 00 00 00 00	 push	 OFFSET ??_C@_0BA@GIHABAJ@?5Force?5Amt?5?3?5?$CFf?$AA@
  00198	83 ec 0c	 sub	 esp, 12			; 0000000cH
  0019b	f3 0f 11 44 24
	08		 movss	 DWORD PTR [esp+8], xmm0
  001a1	83 c0 5f	 add	 eax, 95			; 0000005fH
  001a4	0f 57 c0	 xorps	 xmm0, xmm0
  001a7	f3 0f 2a c0	 cvtsi2ss xmm0, eax
  001ab	f3 0f 11 44 24
	04		 movss	 DWORD PTR [esp+4], xmm0
  001b1	f3 0f 10 45 f8	 movss	 xmm0, DWORD PTR tv336[ebp]
  001b6	f3 0f 11 04 24	 movss	 DWORD PTR [esp], xmm0
  001bb	ff d6		 call	 esi
  001bd	8b c8		 mov	 ecx, eax
  001bf	ff d3		 call	 ebx

; 556  : 			g_FontMgr.PrintText( iXPos + 10, iYPos + 110, FONT_SIZE_11, " Move Speed Amt : %f", m_CharStateInfo.fMoveSpeed );

  001c1	f3 0f 10 87 ac
	01 00 00	 movss	 xmm0, DWORD PTR [edi+428]
  001c9	8b 45 fc	 mov	 eax, DWORD PTR _iYPos$[ebp]
  001cc	51		 push	 ecx
  001cd	f3 0f 11 04 24	 movss	 DWORD PTR [esp], xmm0
  001d2	f3 0f 10 05 00
	00 00 00	 movss	 xmm0, DWORD PTR __real@3f0ccccd
  001da	68 00 00 00 00	 push	 OFFSET ??_C@_0BF@HHBBOAPF@?5Move?5Speed?5Amt?5?3?5?$CFf?$AA@
  001df	83 ec 0c	 sub	 esp, 12			; 0000000cH
  001e2	f3 0f 11 44 24
	08		 movss	 DWORD PTR [esp+8], xmm0
  001e8	83 c0 6e	 add	 eax, 110		; 0000006eH
  001eb	0f 57 c0	 xorps	 xmm0, xmm0
  001ee	f3 0f 2a c0	 cvtsi2ss xmm0, eax
  001f2	f3 0f 11 44 24
	04		 movss	 DWORD PTR [esp+4], xmm0
  001f8	f3 0f 10 45 f8	 movss	 xmm0, DWORD PTR tv336[ebp]
  001fd	f3 0f 11 04 24	 movss	 DWORD PTR [esp], xmm0
  00202	ff d6		 call	 esi
  00204	8b c8		 mov	 ecx, eax
  00206	ff d3		 call	 ebx

; 557  : 			g_FontMgr.PrintText( iXPos + 10, iYPos + 125, FONT_SIZE_11, " Jump Power Amt : %f", m_CharStateInfo.fJumpPower );

  00208	f3 0f 10 87 b0
	01 00 00	 movss	 xmm0, DWORD PTR [edi+432]
  00210	8b 45 fc	 mov	 eax, DWORD PTR _iYPos$[ebp]
  00213	51		 push	 ecx
  00214	f3 0f 11 04 24	 movss	 DWORD PTR [esp], xmm0
  00219	f3 0f 10 05 00
	00 00 00	 movss	 xmm0, DWORD PTR __real@3f0ccccd
  00221	68 00 00 00 00	 push	 OFFSET ??_C@_0BF@HLMKMDGF@?5Jump?5Power?5Amt?5?3?5?$CFf?$AA@
  00226	83 ec 0c	 sub	 esp, 12			; 0000000cH
  00229	f3 0f 11 44 24
	08		 movss	 DWORD PTR [esp+8], xmm0
  0022f	83 c0 7d	 add	 eax, 125		; 0000007dH
  00232	0f 57 c0	 xorps	 xmm0, xmm0
  00235	f3 0f 2a c0	 cvtsi2ss xmm0, eax
  00239	f3 0f 11 44 24
	04		 movss	 DWORD PTR [esp+4], xmm0
  0023f	f3 0f 10 45 f8	 movss	 xmm0, DWORD PTR tv336[ebp]
  00244	f3 0f 11 04 24	 movss	 DWORD PTR [esp], xmm0
  00249	ff d6		 call	 esi
  0024b	8b c8		 mov	 ecx, eax
  0024d	ff d3		 call	 ebx
$LN7@OnRender@3:
  0024f	5f		 pop	 edi
  00250	5e		 pop	 esi
  00251	5b		 pop	 ebx

; 573  : 	}
; 574  : }

  00252	c9		 leave
  00253	c3		 ret	 0
?OnRender@CharGameInfoListWnd@@MAEXXZ ENDP		; CharGameInfoListWnd::OnRender
_TEXT	ENDS
PUBLIC	??_C@_0BL@LDJIHLEA@SingleSettingWnd?3?3iwm_show?$AA@ ; `string'
;	COMDAT ??_C@_0BL@LDJIHLEA@SingleSettingWnd?3?3iwm_show?$AA@
CONST	SEGMENT
??_C@_0BL@LDJIHLEA@SingleSettingWnd?3?3iwm_show?$AA@ DB 'SingleSettingWnd'
	DB	'::iwm_show', 00H				; `string'
CONST	ENDS
;	COMDAT xdata$x
xdata$x	SEGMENT
__unwindtable$?iwm_show@SingleSettingWnd@@UAEXXZ DD 0ffffffffH
	DD	FLAT:__unwindfunclet$?iwm_show@SingleSettingWnd@@UAEXXZ$0
__ehfuncinfo$?iwm_show@SingleSettingWnd@@UAEXXZ DD 019930522H
	DD	01H
	DD	FLAT:__unwindtable$?iwm_show@SingleSettingWnd@@UAEXXZ
	DD	2 DUP(00H)
	DD	2 DUP(00H)
	DD	00H
	DD	01H
; Function compile flags: /Ogsp
xdata$x	ENDS
;	COMDAT ?iwm_show@SingleSettingWnd@@UAEXXZ
_TEXT	SEGMENT
$T538354 = -28						; size = 16
__$EHRec$ = -12						; size = 12
?iwm_show@SingleSettingWnd@@UAEXXZ PROC			; SingleSettingWnd::iwm_show, COMDAT
; _this$ = ecx

; 616  : {

  00000	6a 10		 push	 16			; 00000010H
  00002	b8 00 00 00 00	 mov	 eax, __ehhandler$?iwm_show@SingleSettingWnd@@UAEXXZ
  00007	e8 00 00 00 00	 call	 __EH_prolog3
  0000c	8b d9		 mov	 ebx, ecx

; 617  : 	CreateModeList();

  0000e	e8 00 00 00 00	 call	 ?CreateModeList@SingleSettingWnd@@IAEXXZ ; SingleSettingWnd::CreateModeList

; 618  : 
; 619  : 	UpdateMode( ioPlayMode::GetModeType() );

  00013	e8 00 00 00 00	 call	 ?GetModeType@ioPlayMode@@SA?AW4ModeType@@XZ ; ioPlayMode::GetModeType
  00018	50		 push	 eax
  00019	8b cb		 mov	 ecx, ebx
  0001b	e8 00 00 00 00	 call	 ?UpdateMode@SingleSettingWnd@@IAEXH@Z ; SingleSettingWnd::UpdateMode

; 620  : 	UpdateModeSub( Setting::GetModeSub() );

  00020	ff 35 74 00 00
	00		 push	 DWORD PTR ?m_Option@Setting@@1USettingOption@@A+116
  00026	8b cb		 mov	 ecx, ebx
  00028	e8 00 00 00 00	 call	 ?UpdateModeSub@SingleSettingWnd@@IAEXH@Z ; SingleSettingWnd::UpdateModeSub

; 621  : 	UpdateMapIdx( Setting::GetModeMap() );

  0002d	ff 35 78 00 00
	00		 push	 DWORD PTR ?m_Option@Setting@@1USettingOption@@A+120
  00033	8b cb		 mov	 ecx, ebx
  00035	e8 00 00 00 00	 call	 ?UpdateMapIdx@SingleSettingWnd@@IAEXH@Z ; SingleSettingWnd::UpdateMapIdx

; 622  : 	UpdateCheckBox();

  0003a	8b cb		 mov	 ecx, ebx
  0003c	e8 00 00 00 00	 call	 ?UpdateCheckBox@SingleSettingWnd@@IAEXXZ ; SingleSettingWnd::UpdateCheckBox

; 623  : 
; 624  : 	Setting::SetSWndBoundary( false );
; 625  : 	SetPause( false );
; 626  : 	UpdatePauseButton();

  00041	8b cb		 mov	 ecx, ebx
  00043	c6 05 72 00 00
	00 00		 mov	 BYTE PTR ?m_Option@Setting@@1USettingOption@@A+114, 0
  0004a	c6 05 00 00 00
	00 00		 mov	 BYTE PTR ?m_bPause@SingleSettingWnd@@1_NA, 0 ; SingleSettingWnd::m_bPause
  00051	e8 00 00 00 00	 call	 ?UpdatePauseButton@SingleSettingWnd@@IAEXXZ ; SingleSettingWnd::UpdatePauseButton

; 627  : 	ChangeCharacterButtonTitle( STR(1) );

  00056	6a 00		 push	 0
  00058	6a 01		 push	 1
  0005a	68 00 00 00 00	 push	 OFFSET ??_C@_00CNPNBAHC@?$AA@
  0005f	68 00 00 00 00	 push	 OFFSET ??_C@_0BL@LDJIHLEA@SingleSettingWnd?3?3iwm_show?$AA@
  00064	ff 15 00 00 00
	00		 call	 DWORD PTR __imp_?GetSingleton@ioStringManager@@SAAAV1@XZ
  0006a	8b c8		 mov	 ecx, eax
  0006c	ff 15 00 00 00
	00		 call	 DWORD PTR __imp_?GetString@ioStringManager@@QAEPADPBD0HW4FileNamePrefix@1@@Z
  00072	50		 push	 eax
  00073	8d 4d e4	 lea	 ecx, DWORD PTR $T538354[ebp]
  00076	ff 15 00 00 00
	00		 call	 DWORD PTR __imp_??0ioHashString@@QAE@PBD@Z
  0007c	83 65 fc 00	 and	 DWORD PTR __$EHRec$[ebp+8], 0
  00080	8d 45 e4	 lea	 eax, DWORD PTR $T538354[ebp]
  00083	50		 push	 eax
  00084	8b cb		 mov	 ecx, ebx
  00086	e8 00 00 00 00	 call	 ?ChangeCharacterButtonTitle@SingleSettingWnd@@QAEXABVioHashString@@@Z ; SingleSettingWnd::ChangeCharacterButtonTitle
  0008b	83 4d fc ff	 or	 DWORD PTR __$EHRec$[ebp+8], -1
  0008f	8d 4d e4	 lea	 ecx, DWORD PTR $T538354[ebp]
  00092	ff 15 00 00 00
	00		 call	 DWORD PTR __imp_??1ioHashString@@QAE@XZ

; 628  : 
; 629  : 	ParseScroll();

  00098	8b cb		 mov	 ecx, ebx
  0009a	e8 00 00 00 00	 call	 ?ParseScroll@SingleSettingWnd@@QAEXXZ ; SingleSettingWnd::ParseScroll

; 630  : 
; 631  : 	if( m_bSingle )

  0009f	80 3d 00 00 00
	00 00		 cmp	 BYTE PTR ?m_bSingle@SingleSettingWnd@@1_NA, 0 ; SingleSettingWnd::m_bSingle

; 632  : 	{
; 633  : 		SetChildWndStyleRemove( ID_MODE, IWS_EXACTIVE );

  000a6	8b 3d 00 00 00
	00		 mov	 edi, DWORD PTR __imp_?SetChildWndStyleRemove@ioWnd@@QAEXKK@Z
  000ac	be 00 10 00 00	 mov	 esi, 4096		; 00001000H
  000b1	56		 push	 esi
  000b2	8b cb		 mov	 ecx, ebx
  000b4	6a 05		 push	 5
  000b6	75 06		 jne	 SHORT $LN15@iwm_show

; 634  : 		SetChildWndStyleRemove( ID_MODE_SUB, IWS_EXACTIVE );
; 635  : 		SetChildWndStyleRemove( ID_MAP, IWS_EXACTIVE );
; 636  : 		SetChildWndStyleRemove( ID_MODE_APPLY, IWS_EXACTIVE );
; 637  : 		SetChildWndStyleRemove( ID_PAUSE, IWS_EXACTIVE );
; 638  : 		SetChildWndStyleRemove( ID_CHARACTER, IWS_EXACTIVE );
; 639  : 		SetChildWndStyleRemove( ID_OWER, IWS_EXACTIVE );
; 640  : 	}
; 641  : 	else
; 642  : 	{
; 643  : 		SetChildWndStyleAdd( ID_MODE, IWS_EXACTIVE );

  000b8	8b 3d 00 00 00
	00		 mov	 edi, DWORD PTR __imp_?SetChildWndStyleAdd@ioWnd@@QAEXKK@Z
$LN15@iwm_show:
  000be	ff d7		 call	 edi

; 644  : 		SetChildWndStyleAdd( ID_MODE_SUB, IWS_EXACTIVE );

  000c0	56		 push	 esi
  000c1	6a 06		 push	 6
  000c3	8b cb		 mov	 ecx, ebx
  000c5	ff d7		 call	 edi

; 645  : 		SetChildWndStyleAdd( ID_MAP, IWS_EXACTIVE );

  000c7	56		 push	 esi
  000c8	6a 07		 push	 7
  000ca	8b cb		 mov	 ecx, ebx
  000cc	ff d7		 call	 edi

; 646  : 		SetChildWndStyleAdd( ID_MODE_APPLY, IWS_EXACTIVE );

  000ce	56		 push	 esi
  000cf	6a 08		 push	 8
  000d1	8b cb		 mov	 ecx, ebx
  000d3	ff d7		 call	 edi

; 647  : 		SetChildWndStyleAdd( ID_PAUSE, IWS_EXACTIVE );

  000d5	56		 push	 esi
  000d6	6a 0a		 push	 10			; 0000000aH
  000d8	8b cb		 mov	 ecx, ebx
  000da	ff d7		 call	 edi

; 648  : 		SetChildWndStyleAdd( ID_CHARACTER, IWS_EXACTIVE );

  000dc	56		 push	 esi
  000dd	6a 0b		 push	 11			; 0000000bH
  000df	8b cb		 mov	 ecx, ebx
  000e1	ff d7		 call	 edi

; 649  : 		SetChildWndStyleAdd( ID_OWER, IWS_EXACTIVE );

  000e3	56		 push	 esi
  000e4	6a 0c		 push	 12			; 0000000cH
  000e6	8b cb		 mov	 ecx, ebx
  000e8	ff d7		 call	 edi

; 650  : 	}
; 651  : }

  000ea	e8 00 00 00 00	 call	 __EH_epilog3
  000ef	c3		 ret	 0
_TEXT	ENDS
;	COMDAT text$x
text$x	SEGMENT
__unwindfunclet$?iwm_show@SingleSettingWnd@@UAEXXZ$0:
  00000	8d 4d e4	 lea	 ecx, DWORD PTR $T538354[ebp]
  00003	ff 25 00 00 00
	00		 jmp	 DWORD PTR __imp_??1ioHashString@@QAE@XZ
__ehhandler$?iwm_show@SingleSettingWnd@@UAEXXZ:
  00009	8b 54 24 08	 mov	 edx, DWORD PTR [esp+8]
  0000d	8d 42 0c	 lea	 eax, DWORD PTR [edx+12]
  00010	8b 4a e0	 mov	 ecx, DWORD PTR [edx-32]
  00013	33 c8		 xor	 ecx, eax
  00015	e8 00 00 00 00	 call	 @__security_check_cookie@4
  0001a	b8 00 00 00 00	 mov	 eax, OFFSET __ehfuncinfo$?iwm_show@SingleSettingWnd@@UAEXXZ
  0001f	e9 00 00 00 00	 jmp	 ___CxxFrameHandler3
text$x	ENDS
?iwm_show@SingleSettingWnd@@UAEXXZ ENDP			; SingleSettingWnd::iwm_show
EXTRN	__imp_?ShowWnd@ioWnd@@QAEXXZ:PROC
; Function compile flags: /Ogsp
;	COMDAT ?OnProcess@SingleSettingWnd@@UAEXM@Z
_TEXT	SEGMENT
_fTimePerSec$ = 8					; size = 4
?OnProcess@SingleSettingWnd@@UAEXM@Z PROC		; SingleSettingWnd::OnProcess, COMDAT
; _this$ = ecx

; 659  : {

  00000	56		 push	 esi
  00001	8b f1		 mov	 esi, ecx

; 660  : 	if( !IsShow() && m_bSingle && m_bAutoShow )

  00003	ff 15 00 00 00
	00		 call	 DWORD PTR __imp_?IsShow@ioWnd@@QBE_NXZ
  00009	84 c0		 test	 al, al
  0000b	75 21		 jne	 SHORT $LN1@OnProcess
  0000d	38 05 00 00 00
	00		 cmp	 BYTE PTR ?m_bSingle@SingleSettingWnd@@1_NA, al ; SingleSettingWnd::m_bSingle
  00013	74 19		 je	 SHORT $LN1@OnProcess
  00015	38 05 00 00 00
	00		 cmp	 BYTE PTR ?m_bAutoShow@SingleSettingWnd@@1_NA, al ; SingleSettingWnd::m_bAutoShow
  0001b	74 11		 je	 SHORT $LN1@OnProcess

; 661  : 	{
; 662  : 		if( ioPlayMode::GetModeType() != MT_NONE )

  0001d	e8 00 00 00 00	 call	 ?GetModeType@ioPlayMode@@SA?AW4ModeType@@XZ ; ioPlayMode::GetModeType
  00022	85 c0		 test	 eax, eax
  00024	74 08		 je	 SHORT $LN1@OnProcess

; 663  : 			ShowWnd();

  00026	8b ce		 mov	 ecx, esi
  00028	ff 15 00 00 00
	00		 call	 DWORD PTR __imp_?ShowWnd@ioWnd@@QAEXXZ
$LN1@OnProcess:

; 664  : 	}
; 665  : 
; 666  : 	UpdateMemButtonDsiable();

  0002e	8b ce		 mov	 ecx, esi
  00030	e8 00 00 00 00	 call	 ?UpdateMemButtonDsiable@SingleSettingWnd@@IAEXXZ ; SingleSettingWnd::UpdateMemButtonDsiable

; 667  : 	UpdteOwner();

  00035	8b ce		 mov	 ecx, esi
  00037	e8 00 00 00 00	 call	 ?UpdteOwner@SingleSettingWnd@@IAEXXZ ; SingleSettingWnd::UpdteOwner
  0003c	5e		 pop	 esi

; 668  : }

  0003d	c2 04 00	 ret	 4
?OnProcess@SingleSettingWnd@@UAEXM@Z ENDP		; SingleSettingWnd::OnProcess
_TEXT	ENDS
PUBLIC	??$_Cons_val@V?$allocator@UUserInfo@DeveloperInfoWnd@@@std@@UUserInfo@DeveloperInfoWnd@@ABU34@@std@@YAXAAV?$allocator@UUserInfo@DeveloperInfoWnd@@@0@PAUUserInfo@DeveloperInfoWnd@@ABU23@@Z ; std::_Cons_val<std::allocator<DeveloperInfoWnd::UserInfo>,DeveloperInfoWnd::UserInfo,DeveloperInfoWnd::UserInfo const &>
; Function compile flags: /Ogsp
; File c:\program files (x86)\microsoft visual studio 10.0\vc\include\xmemory
;	COMDAT ??$_Cons_val@V?$allocator@UUserInfo@DeveloperInfoWnd@@@std@@UUserInfo@DeveloperInfoWnd@@ABU34@@std@@YAXAAV?$allocator@UUserInfo@DeveloperInfoWnd@@@0@PAUUserInfo@DeveloperInfoWnd@@ABU23@@Z
_TEXT	SEGMENT
__Alval$ = 8						; size = 4
__Pdest$ = 12						; size = 4
__Src$ = 16						; size = 4
??$_Cons_val@V?$allocator@UUserInfo@DeveloperInfoWnd@@@std@@UUserInfo@DeveloperInfoWnd@@ABU34@@std@@YAXAAV?$allocator@UUserInfo@DeveloperInfoWnd@@@0@PAUUserInfo@DeveloperInfoWnd@@ABU23@@Z PROC ; std::_Cons_val<std::allocator<DeveloperInfoWnd::UserInfo>,DeveloperInfoWnd::UserInfo,DeveloperInfoWnd::UserInfo const &>, COMDAT

; 279  : 	{	// construct using allocator

  00000	55		 push	 ebp
  00001	8b ec		 mov	 ebp, esp

; 280  : 	_Alval.construct(_Pdest, _STD forward<_Ty2>(_Src));

  00003	ff 75 10	 push	 DWORD PTR __Src$[ebp]
  00006	ff 75 0c	 push	 DWORD PTR __Pdest$[ebp]
  00009	e8 00 00 00 00	 call	 ??$_Construct@UUserInfo@DeveloperInfoWnd@@ABU12@@std@@YAXPAUUserInfo@DeveloperInfoWnd@@ABU12@@Z ; std::_Construct<DeveloperInfoWnd::UserInfo,DeveloperInfoWnd::UserInfo const &>
  0000e	59		 pop	 ecx
  0000f	59		 pop	 ecx

; 281  : 	}

  00010	5d		 pop	 ebp
  00011	c3		 ret	 0
??$_Cons_val@V?$allocator@UUserInfo@DeveloperInfoWnd@@@std@@UUserInfo@DeveloperInfoWnd@@ABU34@@std@@YAXAAV?$allocator@UUserInfo@DeveloperInfoWnd@@@0@PAUUserInfo@DeveloperInfoWnd@@ABU23@@Z ENDP ; std::_Cons_val<std::allocator<DeveloperInfoWnd::UserInfo>,DeveloperInfoWnd::UserInfo,DeveloperInfoWnd::UserInfo const &>
_TEXT	ENDS
PUBLIC	??$_Dest_val@V?$allocator@UUserInfo@DeveloperInfoWnd@@@std@@UUserInfo@DeveloperInfoWnd@@@std@@YAXAAV?$allocator@UUserInfo@DeveloperInfoWnd@@@0@PAUUserInfo@DeveloperInfoWnd@@@Z ; std::_Dest_val<std::allocator<DeveloperInfoWnd::UserInfo>,DeveloperInfoWnd::UserInfo>
; Function compile flags: /Ogsp
;	COMDAT ??$_Dest_val@V?$allocator@UUserInfo@DeveloperInfoWnd@@@std@@UUserInfo@DeveloperInfoWnd@@@std@@YAXAAV?$allocator@UUserInfo@DeveloperInfoWnd@@@0@PAUUserInfo@DeveloperInfoWnd@@@Z
_TEXT	SEGMENT
__Alval$ = 8						; size = 4
__Pdest$ = 12						; size = 4
??$_Dest_val@V?$allocator@UUserInfo@DeveloperInfoWnd@@@std@@UUserInfo@DeveloperInfoWnd@@@std@@YAXAAV?$allocator@UUserInfo@DeveloperInfoWnd@@@0@PAUUserInfo@DeveloperInfoWnd@@@Z PROC ; std::_Dest_val<std::allocator<DeveloperInfoWnd::UserInfo>,DeveloperInfoWnd::UserInfo>, COMDAT

; 286  : 	{	// destroy using allocator

  00000	55		 push	 ebp
  00001	8b ec		 mov	 ebp, esp

; 287  : 	_Alval.destroy(_Pdest);

  00003	8b 4d 0c	 mov	 ecx, DWORD PTR __Pdest$[ebp]

; 288  : 	}

  00006	5d		 pop	 ebp

; 287  : 	_Alval.destroy(_Pdest);

  00007	ff 25 00 00 00
	00		 jmp	 DWORD PTR __imp_??1ioHashString@@QAE@XZ
??$_Dest_val@V?$allocator@UUserInfo@DeveloperInfoWnd@@@std@@UUserInfo@DeveloperInfoWnd@@@std@@YAXAAV?$allocator@UUserInfo@DeveloperInfoWnd@@@0@PAUUserInfo@DeveloperInfoWnd@@@Z ENDP ; std::_Dest_val<std::allocator<DeveloperInfoWnd::UserInfo>,DeveloperInfoWnd::UserInfo>
_TEXT	ENDS
PUBLIC	??$_Dest_val@V?$allocator@VioHashString@@@std@@VioHashString@@@std@@YAXAAV?$allocator@VioHashString@@@0@PAVioHashString@@@Z ; std::_Dest_val<std::allocator<ioHashString>,ioHashString>
; Function compile flags: /Ogsp
;	COMDAT ??$_Dest_val@V?$allocator@VioHashString@@@std@@VioHashString@@@std@@YAXAAV?$allocator@VioHashString@@@0@PAVioHashString@@@Z
_TEXT	SEGMENT
__Alval$ = 8						; size = 4
__Pdest$ = 12						; size = 4
??$_Dest_val@V?$allocator@VioHashString@@@std@@VioHashString@@@std@@YAXAAV?$allocator@VioHashString@@@0@PAVioHashString@@@Z PROC ; std::_Dest_val<std::allocator<ioHashString>,ioHashString>, COMDAT

; 286  : 	{	// destroy using allocator

  00000	55		 push	 ebp
  00001	8b ec		 mov	 ebp, esp

; 287  : 	_Alval.destroy(_Pdest);

  00003	8b 4d 0c	 mov	 ecx, DWORD PTR __Pdest$[ebp]

; 288  : 	}

  00006	5d		 pop	 ebp

; 287  : 	_Alval.destroy(_Pdest);

  00007	ff 25 00 00 00
	00		 jmp	 DWORD PTR __imp_??1ioHashString@@QAE@XZ
??$_Dest_val@V?$allocator@VioHashString@@@std@@VioHashString@@@std@@YAXAAV?$allocator@VioHashString@@@0@PAVioHashString@@@Z ENDP ; std::_Dest_val<std::allocator<ioHashString>,ioHashString>
_TEXT	ENDS
PUBLIC	??$_Destroy_range@V?$allocator@UUserInfo@DeveloperInfoWnd@@@std@@@std@@YAXPAUUserInfo@DeveloperInfoWnd@@0AAV?$allocator@UUserInfo@DeveloperInfoWnd@@@0@U_Nonscalar_ptr_iterator_tag@0@@Z ; std::_Destroy_range<std::allocator<DeveloperInfoWnd::UserInfo> >
; Function compile flags: /Ogsp
;	COMDAT ??$_Destroy_range@V?$allocator@UUserInfo@DeveloperInfoWnd@@@std@@@std@@YAXPAUUserInfo@DeveloperInfoWnd@@0AAV?$allocator@UUserInfo@DeveloperInfoWnd@@@0@U_Nonscalar_ptr_iterator_tag@0@@Z
_TEXT	SEGMENT
__First$ = 8						; size = 4
__Last$ = 12						; size = 4
__Al$ = 16						; size = 4
___formal$ = 20						; size = 1
??$_Destroy_range@V?$allocator@UUserInfo@DeveloperInfoWnd@@@std@@@std@@YAXPAUUserInfo@DeveloperInfoWnd@@0AAV?$allocator@UUserInfo@DeveloperInfoWnd@@@0@U_Nonscalar_ptr_iterator_tag@0@@Z PROC ; std::_Destroy_range<std::allocator<DeveloperInfoWnd::UserInfo> >, COMDAT

; 95   : 	{	// destroy [_First, _Last), arbitrary type

  00000	55		 push	 ebp
  00001	8b ec		 mov	 ebp, esp
  00003	56		 push	 esi

; 96   : 	for (; _First != _Last; ++_First)

  00004	8b 75 08	 mov	 esi, DWORD PTR __First$[ebp]
  00007	eb 0b		 jmp	 SHORT $LN20@Destroy_ra
$LL3@Destroy_ra:

; 97   : 		_Dest_val(_Al, _First);

  00009	8b ce		 mov	 ecx, esi
  0000b	ff 15 00 00 00
	00		 call	 DWORD PTR __imp_??1ioHashString@@QAE@XZ
  00011	83 c6 28	 add	 esi, 40			; 00000028H
$LN20@Destroy_ra:

; 96   : 	for (; _First != _Last; ++_First)

  00014	3b 75 0c	 cmp	 esi, DWORD PTR __Last$[ebp]
  00017	75 f0		 jne	 SHORT $LL3@Destroy_ra
  00019	5e		 pop	 esi

; 98   : 	}

  0001a	5d		 pop	 ebp
  0001b	c3		 ret	 0
??$_Destroy_range@V?$allocator@UUserInfo@DeveloperInfoWnd@@@std@@@std@@YAXPAUUserInfo@DeveloperInfoWnd@@0AAV?$allocator@UUserInfo@DeveloperInfoWnd@@@0@U_Nonscalar_ptr_iterator_tag@0@@Z ENDP ; std::_Destroy_range<std::allocator<DeveloperInfoWnd::UserInfo> >
_TEXT	ENDS
PUBLIC	??$_Uninit_move@PAUUserInfo@DeveloperInfoWnd@@PAU12@V?$allocator@UUserInfo@DeveloperInfoWnd@@@std@@U12@@std@@YAPAUUserInfo@DeveloperInfoWnd@@PAU12@00AAV?$allocator@UUserInfo@DeveloperInfoWnd@@@0@0U_Nonscalar_ptr_iterator_tag@0@@Z ; std::_Uninit_move<DeveloperInfoWnd::UserInfo *,DeveloperInfoWnd::UserInfo *,std::allocator<DeveloperInfoWnd::UserInfo>,DeveloperInfoWnd::UserInfo>
EXTRN	__EH_prolog3_catch:PROC
;	COMDAT xdata$x
; File d:\lost saga for developer\youtube\tutorial\source\src\lsclient\gui\debuginfownd.cpp
xdata$x	SEGMENT
__catchsym$??$_Uninit_move@PAUUserInfo@DeveloperInfoWnd@@PAU12@V?$allocator@UUserInfo@DeveloperInfoWnd@@@std@@U12@@std@@YAPAUUserInfo@DeveloperInfoWnd@@PAU12@00AAV?$allocator@UUserInfo@DeveloperInfoWnd@@@0@0U_Nonscalar_ptr_iterator_tag@0@@Z$3 DD 040H
	DD	00H
	DD	00H
	DD	FLAT:__catch$??$_Uninit_move@PAUUserInfo@DeveloperInfoWnd@@PAU12@V?$allocator@UUserInfo@DeveloperInfoWnd@@@std@@U12@@std@@YAPAUUserInfo@DeveloperInfoWnd@@PAU12@00AAV?$allocator@UUserInfo@DeveloperInfoWnd@@@0@0U_Nonscalar_ptr_iterator_tag@0@@Z$0
__unwindtable$??$_Uninit_move@PAUUserInfo@DeveloperInfoWnd@@PAU12@V?$allocator@UUserInfo@DeveloperInfoWnd@@@std@@U12@@std@@YAPAUUserInfo@DeveloperInfoWnd@@PAU12@00AAV?$allocator@UUserInfo@DeveloperInfoWnd@@@0@0U_Nonscalar_ptr_iterator_tag@0@@Z DD 0ffffffffH
	DD	00H
	DD	0ffffffffH
	DD	00H
__tryblocktable$??$_Uninit_move@PAUUserInfo@DeveloperInfoWnd@@PAU12@V?$allocator@UUserInfo@DeveloperInfoWnd@@@std@@U12@@std@@YAPAUUserInfo@DeveloperInfoWnd@@PAU12@00AAV?$allocator@UUserInfo@DeveloperInfoWnd@@@0@0U_Nonscalar_ptr_iterator_tag@0@@Z DD 00H
	DD	00H
	DD	01H
	DD	01H
	DD	FLAT:__catchsym$??$_Uninit_move@PAUUserInfo@DeveloperInfoWnd@@PAU12@V?$allocator@UUserInfo@DeveloperInfoWnd@@@std@@U12@@std@@YAPAUUserInfo@DeveloperInfoWnd@@PAU12@00AAV?$allocator@UUserInfo@DeveloperInfoWnd@@@0@0U_Nonscalar_ptr_iterator_tag@0@@Z$3
__ehfuncinfo$??$_Uninit_move@PAUUserInfo@DeveloperInfoWnd@@PAU12@V?$allocator@UUserInfo@DeveloperInfoWnd@@@std@@U12@@std@@YAPAUUserInfo@DeveloperInfoWnd@@PAU12@00AAV?$allocator@UUserInfo@DeveloperInfoWnd@@@0@0U_Nonscalar_ptr_iterator_tag@0@@Z DD 019930522H
	DD	02H
	DD	FLAT:__unwindtable$??$_Uninit_move@PAUUserInfo@DeveloperInfoWnd@@PAU12@V?$allocator@UUserInfo@DeveloperInfoWnd@@@std@@U12@@std@@YAPAUUserInfo@DeveloperInfoWnd@@PAU12@00AAV?$allocator@UUserInfo@DeveloperInfoWnd@@@0@0U_Nonscalar_ptr_iterator_tag@0@@Z
	DD	01H
	DD	FLAT:__tryblocktable$??$_Uninit_move@PAUUserInfo@DeveloperInfoWnd@@PAU12@V?$allocator@UUserInfo@DeveloperInfoWnd@@@std@@U12@@std@@YAPAUUserInfo@DeveloperInfoWnd@@PAU12@00AAV?$allocator@UUserInfo@DeveloperInfoWnd@@@0@0U_Nonscalar_ptr_iterator_tag@0@@Z
	DD	2 DUP(00H)
	DD	00H
	DD	01H
; Function compile flags: /Ogsp
; File c:\program files (x86)\microsoft visual studio 10.0\vc\include\memory
xdata$x	ENDS
;	COMDAT ??$_Uninit_move@PAUUserInfo@DeveloperInfoWnd@@PAU12@V?$allocator@UUserInfo@DeveloperInfoWnd@@@std@@U12@@std@@YAPAUUserInfo@DeveloperInfoWnd@@PAU12@00AAV?$allocator@UUserInfo@DeveloperInfoWnd@@@0@0U_Nonscalar_ptr_iterator_tag@0@@Z
_TEXT	SEGMENT
__Next$ = -20						; size = 4
__$EHRec$ = -16						; size = 16
__First$ = 8						; size = 4
__Last$ = 12						; size = 4
__Dest$ = 16						; size = 4
__Al$ = 20						; size = 4
___formal$ = 24						; size = 4
___formal$ = 28						; size = 1
??$_Uninit_move@PAUUserInfo@DeveloperInfoWnd@@PAU12@V?$allocator@UUserInfo@DeveloperInfoWnd@@@std@@U12@@std@@YAPAUUserInfo@DeveloperInfoWnd@@PAU12@00AAV?$allocator@UUserInfo@DeveloperInfoWnd@@@0@0U_Nonscalar_ptr_iterator_tag@0@@Z PROC ; std::_Uninit_move<DeveloperInfoWnd::UserInfo *,DeveloperInfoWnd::UserInfo *,std::allocator<DeveloperInfoWnd::UserInfo>,DeveloperInfoWnd::UserInfo>, COMDAT

; 424  : 	{	// move [_First, _Last) to raw _Dest, using _Al, arbitrary type

  00000	6a 08		 push	 8
  00002	b8 00 00 00 00	 mov	 eax, __ehhandler$??$_Uninit_move@PAUUserInfo@DeveloperInfoWnd@@PAU12@V?$allocator@UUserInfo@DeveloperInfoWnd@@@std@@U12@@std@@YAPAUUserInfo@DeveloperInfoWnd@@PAU12@00AAV?$allocator@UUserInfo@DeveloperInfoWnd@@@0@0U_Nonscalar_ptr_iterator_tag@0@@Z
  00007	e8 00 00 00 00	 call	 __EH_prolog3_catch

; 425  : 	_DEBUG_RANGE(_First, _Last);
; 426  : 	_DEBUG_POINTER(_Dest);
; 427  : 	_FwdIt _Next = _Dest;

  0000c	8b 45 10	 mov	 eax, DWORD PTR __Dest$[ebp]

; 428  : 
; 429  : 	_TRY_BEGIN

  0000f	83 65 fc 00	 and	 DWORD PTR __$EHRec$[ebp+12], 0
  00013	8b 75 08	 mov	 esi, DWORD PTR __First$[ebp]
  00016	89 45 ec	 mov	 DWORD PTR __Next$[ebp], eax
$LL6@Uninit_mov:

; 430  : 	for (; _First != _Last; ++_Dest, ++_First)

  00019	3b 75 0c	 cmp	 esi, DWORD PTR __Last$[ebp]
  0001c	74 36		 je	 SHORT $LN4@Uninit_mov

; 431  : 		_Cons_val(_Al, _Dest, (_Valty &&)*_First);

  0001e	56		 push	 esi
  0001f	ff 75 10	 push	 DWORD PTR __Dest$[ebp]
  00022	ff 75 14	 push	 DWORD PTR __Al$[ebp]
  00025	e8 00 00 00 00	 call	 ??$_Cons_val@V?$allocator@UUserInfo@DeveloperInfoWnd@@@std@@UUserInfo@DeveloperInfoWnd@@U34@@std@@YAXAAV?$allocator@UUserInfo@DeveloperInfoWnd@@@0@PAUUserInfo@DeveloperInfoWnd@@$$QAU23@@Z ; std::_Cons_val<std::allocator<DeveloperInfoWnd::UserInfo>,DeveloperInfoWnd::UserInfo,DeveloperInfoWnd::UserInfo>
  0002a	83 45 10 28	 add	 DWORD PTR __Dest$[ebp], 40 ; 00000028H
  0002e	83 c4 0c	 add	 esp, 12			; 0000000cH
  00031	83 c6 28	 add	 esi, 40			; 00000028H
  00034	eb e3		 jmp	 SHORT $LL6@Uninit_mov
__catch$??$_Uninit_move@PAUUserInfo@DeveloperInfoWnd@@PAU12@V?$allocator@UUserInfo@DeveloperInfoWnd@@@std@@U12@@std@@YAPAUUserInfo@DeveloperInfoWnd@@PAU12@00AAV?$allocator@UUserInfo@DeveloperInfoWnd@@@0@0U_Nonscalar_ptr_iterator_tag@0@@Z$0:

; 432  : 	_CATCH_ALL
; 433  : 	for (; _Next != _Dest; ++_Next)

  00036	8b 75 ec	 mov	 esi, DWORD PTR __Next$[ebp]
  00039	eb 0b		 jmp	 SHORT $LN32@Uninit_mov
$LL3@Uninit_mov:

; 434  : 		_Dest_val(_Al, _Next);

  0003b	8b ce		 mov	 ecx, esi
  0003d	ff 15 00 00 00
	00		 call	 DWORD PTR __imp_??1ioHashString@@QAE@XZ
  00043	83 c6 28	 add	 esi, 40			; 00000028H
$LN32@Uninit_mov:

; 432  : 	_CATCH_ALL
; 433  : 	for (; _Next != _Dest; ++_Next)

  00046	3b 75 10	 cmp	 esi, DWORD PTR __Dest$[ebp]
  00049	75 f0		 jne	 SHORT $LL3@Uninit_mov

; 435  : 	_RERAISE;

  0004b	6a 00		 push	 0
  0004d	6a 00		 push	 0
  0004f	e8 00 00 00 00	 call	 __CxxThrowException@8
$LN33@Uninit_mov:
$LN4@Uninit_mov:

; 436  : 	_CATCH_END
; 437  : 	return (_Dest);

  00054	8b 45 10	 mov	 eax, DWORD PTR __Dest$[ebp]

; 438  : 	}

  00057	e8 00 00 00 00	 call	 __EH_epilog3
  0005c	c3		 ret	 0
$LN31@Uninit_mov:
_TEXT	ENDS
;	COMDAT text$x
text$x	SEGMENT
__ehhandler$??$_Uninit_move@PAUUserInfo@DeveloperInfoWnd@@PAU12@V?$allocator@UUserInfo@DeveloperInfoWnd@@@std@@U12@@std@@YAPAUUserInfo@DeveloperInfoWnd@@PAU12@00AAV?$allocator@UUserInfo@DeveloperInfoWnd@@@0@0U_Nonscalar_ptr_iterator_tag@0@@Z:
  00000	8b 54 24 08	 mov	 edx, DWORD PTR [esp+8]
  00004	8d 42 0c	 lea	 eax, DWORD PTR [edx+12]
  00007	8b 4a e8	 mov	 ecx, DWORD PTR [edx-24]
  0000a	33 c8		 xor	 ecx, eax
  0000c	e8 00 00 00 00	 call	 @__security_check_cookie@4
  00011	b8 00 00 00 00	 mov	 eax, OFFSET __ehfuncinfo$??$_Uninit_move@PAUUserInfo@DeveloperInfoWnd@@PAU12@V?$allocator@UUserInfo@DeveloperInfoWnd@@@std@@U12@@std@@YAPAUUserInfo@DeveloperInfoWnd@@PAU12@00AAV?$allocator@UUserInfo@DeveloperInfoWnd@@@0@0U_Nonscalar_ptr_iterator_tag@0@@Z
  00016	e9 00 00 00 00	 jmp	 ___CxxFrameHandler3
text$x	ENDS
??$_Uninit_move@PAUUserInfo@DeveloperInfoWnd@@PAU12@V?$allocator@UUserInfo@DeveloperInfoWnd@@@std@@U12@@std@@YAPAUUserInfo@DeveloperInfoWnd@@PAU12@00AAV?$allocator@UUserInfo@DeveloperInfoWnd@@@0@0U_Nonscalar_ptr_iterator_tag@0@@Z ENDP ; std::_Uninit_move<DeveloperInfoWnd::UserInfo *,DeveloperInfoWnd::UserInfo *,std::allocator<DeveloperInfoWnd::UserInfo>,DeveloperInfoWnd::UserInfo>
PUBLIC	??$_Destroy_range@V?$allocator@VioHashString@@@std@@@std@@YAXPAVioHashString@@0AAV?$allocator@VioHashString@@@0@U_Nonscalar_ptr_iterator_tag@0@@Z ; std::_Destroy_range<std::allocator<ioHashString> >
; Function compile flags: /Ogsp
; File c:\program files (x86)\microsoft visual studio 10.0\vc\include\xmemory
;	COMDAT ??$_Destroy_range@V?$allocator@VioHashString@@@std@@@std@@YAXPAVioHashString@@0AAV?$allocator@VioHashString@@@0@U_Nonscalar_ptr_iterator_tag@0@@Z
_TEXT	SEGMENT
__First$ = 8						; size = 4
__Last$ = 12						; size = 4
__Al$ = 16						; size = 4
___formal$ = 20						; size = 1
??$_Destroy_range@V?$allocator@VioHashString@@@std@@@std@@YAXPAVioHashString@@0AAV?$allocator@VioHashString@@@0@U_Nonscalar_ptr_iterator_tag@0@@Z PROC ; std::_Destroy_range<std::allocator<ioHashString> >, COMDAT

; 95   : 	{	// destroy [_First, _Last), arbitrary type

  00000	55		 push	 ebp
  00001	8b ec		 mov	 ebp, esp
  00003	56		 push	 esi

; 96   : 	for (; _First != _Last; ++_First)

  00004	8b 75 08	 mov	 esi, DWORD PTR __First$[ebp]
  00007	eb 0b		 jmp	 SHORT $LN17@Destroy_ra@2
$LL3@Destroy_ra@2:

; 97   : 		_Dest_val(_Al, _First);

  00009	8b ce		 mov	 ecx, esi
  0000b	ff 15 00 00 00
	00		 call	 DWORD PTR __imp_??1ioHashString@@QAE@XZ
  00011	83 c6 10	 add	 esi, 16			; 00000010H
$LN17@Destroy_ra@2:

; 96   : 	for (; _First != _Last; ++_First)

  00014	3b 75 0c	 cmp	 esi, DWORD PTR __Last$[ebp]
  00017	75 f0		 jne	 SHORT $LL3@Destroy_ra@2
  00019	5e		 pop	 esi

; 98   : 	}

  0001a	5d		 pop	 ebp
  0001b	c3		 ret	 0
??$_Destroy_range@V?$allocator@VioHashString@@@std@@@std@@YAXPAVioHashString@@0AAV?$allocator@VioHashString@@@0@U_Nonscalar_ptr_iterator_tag@0@@Z ENDP ; std::_Destroy_range<std::allocator<ioHashString> >
_TEXT	ENDS
PUBLIC	??$_Destroy_range@V?$allocator@UUserInfo@DeveloperInfoWnd@@@std@@@std@@YAXPAUUserInfo@DeveloperInfoWnd@@0AAV?$allocator@UUserInfo@DeveloperInfoWnd@@@0@@Z ; std::_Destroy_range<std::allocator<DeveloperInfoWnd::UserInfo> >
; Function compile flags: /Ogsp
;	COMDAT ??$_Destroy_range@V?$allocator@UUserInfo@DeveloperInfoWnd@@@std@@@std@@YAXPAUUserInfo@DeveloperInfoWnd@@0AAV?$allocator@UUserInfo@DeveloperInfoWnd@@@0@@Z
_TEXT	SEGMENT
__First$ = 8						; size = 4
__Last$ = 12						; size = 4
__Al$ = 16						; size = 4
??$_Destroy_range@V?$allocator@UUserInfo@DeveloperInfoWnd@@@std@@@std@@YAXPAUUserInfo@DeveloperInfoWnd@@0AAV?$allocator@UUserInfo@DeveloperInfoWnd@@@0@@Z PROC ; std::_Destroy_range<std::allocator<DeveloperInfoWnd::UserInfo> >, COMDAT

; 87   : 	{	// destroy [_First, _Last)

  00000	55		 push	 ebp
  00001	8b ec		 mov	 ebp, esp
  00003	56		 push	 esi

; 88   : 	_Destroy_range(_First, _Last, _Al, _Ptr_cat(_First, _Last));

  00004	8b 75 08	 mov	 esi, DWORD PTR __First$[ebp]
  00007	eb 0b		 jmp	 SHORT $LN24@Destroy_ra@3
$LL7@Destroy_ra@3:
  00009	8b ce		 mov	 ecx, esi
  0000b	ff 15 00 00 00
	00		 call	 DWORD PTR __imp_??1ioHashString@@QAE@XZ
  00011	83 c6 28	 add	 esi, 40			; 00000028H
$LN24@Destroy_ra@3:
  00014	3b 75 0c	 cmp	 esi, DWORD PTR __Last$[ebp]
  00017	75 f0		 jne	 SHORT $LL7@Destroy_ra@3
  00019	5e		 pop	 esi

; 89   : 	}

  0001a	5d		 pop	 ebp
  0001b	c3		 ret	 0
??$_Destroy_range@V?$allocator@UUserInfo@DeveloperInfoWnd@@@std@@@std@@YAXPAUUserInfo@DeveloperInfoWnd@@0AAV?$allocator@UUserInfo@DeveloperInfoWnd@@@0@@Z ENDP ; std::_Destroy_range<std::allocator<DeveloperInfoWnd::UserInfo> >
_TEXT	ENDS
PUBLIC	??$_Uninitialized_move@PAUUserInfo@DeveloperInfoWnd@@PAU12@V?$allocator@UUserInfo@DeveloperInfoWnd@@@std@@@std@@YAPAUUserInfo@DeveloperInfoWnd@@PAU12@00AAV?$allocator@UUserInfo@DeveloperInfoWnd@@@0@@Z ; std::_Uninitialized_move<DeveloperInfoWnd::UserInfo *,DeveloperInfoWnd::UserInfo *,std::allocator<DeveloperInfoWnd::UserInfo> >
; Function compile flags: /Ogsp
; File c:\program files (x86)\microsoft visual studio 10.0\vc\include\memory
;	COMDAT ??$_Uninitialized_move@PAUUserInfo@DeveloperInfoWnd@@PAU12@V?$allocator@UUserInfo@DeveloperInfoWnd@@@std@@@std@@YAPAUUserInfo@DeveloperInfoWnd@@PAU12@00AAV?$allocator@UUserInfo@DeveloperInfoWnd@@@0@@Z
_TEXT	SEGMENT
__Cat$538652 = -4					; size = 1
__First$ = 8						; size = 4
__Last$ = 12						; size = 4
__Dest$ = 16						; size = 4
__Al$ = 20						; size = 4
??$_Uninitialized_move@PAUUserInfo@DeveloperInfoWnd@@PAU12@V?$allocator@UUserInfo@DeveloperInfoWnd@@@std@@@std@@YAPAUUserInfo@DeveloperInfoWnd@@PAU12@00AAV?$allocator@UUserInfo@DeveloperInfoWnd@@@0@@Z PROC ; std::_Uninitialized_move<DeveloperInfoWnd::UserInfo *,DeveloperInfoWnd::UserInfo *,std::allocator<DeveloperInfoWnd::UserInfo> >, COMDAT

; 469  : 	{	// move [_First, _Last) to raw _Dest, using _Al

  00000	55		 push	 ebp
  00001	8b ec		 mov	 ebp, esp
  00003	51		 push	 ecx

; 470  : 	return (_Uninit_move(_First, _Last, _Dest, _Al,
; 471  : 		_Val_type(_First), _Ptr_cat(_First, _Dest)));

  00004	ff 75 fc	 push	 DWORD PTR __Cat$538652[ebp]
  00007	6a 00		 push	 0
  00009	ff 75 14	 push	 DWORD PTR __Al$[ebp]
  0000c	ff 75 10	 push	 DWORD PTR __Dest$[ebp]
  0000f	ff 75 0c	 push	 DWORD PTR __Last$[ebp]
  00012	ff 75 08	 push	 DWORD PTR __First$[ebp]
  00015	e8 00 00 00 00	 call	 ??$_Uninit_move@PAUUserInfo@DeveloperInfoWnd@@PAU12@V?$allocator@UUserInfo@DeveloperInfoWnd@@@std@@U12@@std@@YAPAUUserInfo@DeveloperInfoWnd@@PAU12@00AAV?$allocator@UUserInfo@DeveloperInfoWnd@@@0@0U_Nonscalar_ptr_iterator_tag@0@@Z ; std::_Uninit_move<DeveloperInfoWnd::UserInfo *,DeveloperInfoWnd::UserInfo *,std::allocator<DeveloperInfoWnd::UserInfo>,DeveloperInfoWnd::UserInfo>
  0001a	83 c4 18	 add	 esp, 24			; 00000018H

; 472  : 	}

  0001d	c9		 leave
  0001e	c3		 ret	 0
??$_Uninitialized_move@PAUUserInfo@DeveloperInfoWnd@@PAU12@V?$allocator@UUserInfo@DeveloperInfoWnd@@@std@@@std@@YAPAUUserInfo@DeveloperInfoWnd@@PAU12@00AAV?$allocator@UUserInfo@DeveloperInfoWnd@@@0@@Z ENDP ; std::_Uninitialized_move<DeveloperInfoWnd::UserInfo *,DeveloperInfoWnd::UserInfo *,std::allocator<DeveloperInfoWnd::UserInfo> >
_TEXT	ENDS
PUBLIC	??$_Destroy_range@V?$allocator@VioHashString@@@std@@@std@@YAXPAVioHashString@@0AAV?$allocator@VioHashString@@@0@@Z ; std::_Destroy_range<std::allocator<ioHashString> >
; Function compile flags: /Ogsp
; File c:\program files (x86)\microsoft visual studio 10.0\vc\include\xmemory
;	COMDAT ??$_Destroy_range@V?$allocator@VioHashString@@@std@@@std@@YAXPAVioHashString@@0AAV?$allocator@VioHashString@@@0@@Z
_TEXT	SEGMENT
__First$ = 8						; size = 4
__Last$ = 12						; size = 4
__Al$ = 16						; size = 4
??$_Destroy_range@V?$allocator@VioHashString@@@std@@@std@@YAXPAVioHashString@@0AAV?$allocator@VioHashString@@@0@@Z PROC ; std::_Destroy_range<std::allocator<ioHashString> >, COMDAT

; 87   : 	{	// destroy [_First, _Last)

  00000	55		 push	 ebp
  00001	8b ec		 mov	 ebp, esp
  00003	56		 push	 esi

; 88   : 	_Destroy_range(_First, _Last, _Al, _Ptr_cat(_First, _Last));

  00004	8b 75 08	 mov	 esi, DWORD PTR __First$[ebp]
  00007	eb 0b		 jmp	 SHORT $LN21@Destroy_ra@4
$LL7@Destroy_ra@4:
  00009	8b ce		 mov	 ecx, esi
  0000b	ff 15 00 00 00
	00		 call	 DWORD PTR __imp_??1ioHashString@@QAE@XZ
  00011	83 c6 10	 add	 esi, 16			; 00000010H
$LN21@Destroy_ra@4:
  00014	3b 75 0c	 cmp	 esi, DWORD PTR __Last$[ebp]
  00017	75 f0		 jne	 SHORT $LL7@Destroy_ra@4
  00019	5e		 pop	 esi

; 89   : 	}

  0001a	5d		 pop	 ebp
  0001b	c3		 ret	 0
??$_Destroy_range@V?$allocator@VioHashString@@@std@@@std@@YAXPAVioHashString@@0AAV?$allocator@VioHashString@@@0@@Z ENDP ; std::_Destroy_range<std::allocator<ioHashString> >
_TEXT	ENDS
PUBLIC	?_Destroy@?$vector@UUserInfo@DeveloperInfoWnd@@V?$allocator@UUserInfo@DeveloperInfoWnd@@@std@@@std@@IAEXPAUUserInfo@DeveloperInfoWnd@@0@Z ; std::vector<DeveloperInfoWnd::UserInfo,std::allocator<DeveloperInfoWnd::UserInfo> >::_Destroy
; Function compile flags: /Ogsp
; File c:\program files (x86)\microsoft visual studio 10.0\vc\include\vector
;	COMDAT ?_Destroy@?$vector@UUserInfo@DeveloperInfoWnd@@V?$allocator@UUserInfo@DeveloperInfoWnd@@@std@@@std@@IAEXPAUUserInfo@DeveloperInfoWnd@@0@Z
_TEXT	SEGMENT
__First$ = 8						; size = 4
__Last$ = 12						; size = 4
?_Destroy@?$vector@UUserInfo@DeveloperInfoWnd@@V?$allocator@UUserInfo@DeveloperInfoWnd@@@std@@@std@@IAEXPAUUserInfo@DeveloperInfoWnd@@0@Z PROC ; std::vector<DeveloperInfoWnd::UserInfo,std::allocator<DeveloperInfoWnd::UserInfo> >::_Destroy, COMDAT
; _this$ = ecx

; 1269 : 		{	// destroy [_First, _Last) using allocator

  00000	55		 push	 ebp
  00001	8b ec		 mov	 ebp, esp
  00003	56		 push	 esi

; 1270 : 		_Destroy_range(_First, _Last, this->_Alval);

  00004	8b 75 08	 mov	 esi, DWORD PTR __First$[ebp]
  00007	eb 0b		 jmp	 SHORT $LN26@Destroy
$LL9@Destroy:
  00009	8b ce		 mov	 ecx, esi
  0000b	ff 15 00 00 00
	00		 call	 DWORD PTR __imp_??1ioHashString@@QAE@XZ
  00011	83 c6 28	 add	 esi, 40			; 00000028H
$LN26@Destroy:
  00014	3b 75 0c	 cmp	 esi, DWORD PTR __Last$[ebp]
  00017	75 f0		 jne	 SHORT $LL9@Destroy
  00019	5e		 pop	 esi

; 1271 : 		}

  0001a	5d		 pop	 ebp
  0001b	c2 08 00	 ret	 8
?_Destroy@?$vector@UUserInfo@DeveloperInfoWnd@@V?$allocator@UUserInfo@DeveloperInfoWnd@@@std@@@std@@IAEXPAUUserInfo@DeveloperInfoWnd@@0@Z ENDP ; std::vector<DeveloperInfoWnd::UserInfo,std::allocator<DeveloperInfoWnd::UserInfo> >::_Destroy
_TEXT	ENDS
PUBLIC	??$_Umove@PAUUserInfo@DeveloperInfoWnd@@@?$vector@UUserInfo@DeveloperInfoWnd@@V?$allocator@UUserInfo@DeveloperInfoWnd@@@std@@@std@@IAEPAUUserInfo@DeveloperInfoWnd@@PAU23@00@Z ; std::vector<DeveloperInfoWnd::UserInfo,std::allocator<DeveloperInfoWnd::UserInfo> >::_Umove<DeveloperInfoWnd::UserInfo *>
; Function compile flags: /Ogsp
;	COMDAT ??$_Umove@PAUUserInfo@DeveloperInfoWnd@@@?$vector@UUserInfo@DeveloperInfoWnd@@V?$allocator@UUserInfo@DeveloperInfoWnd@@@std@@@std@@IAEPAUUserInfo@DeveloperInfoWnd@@PAU23@00@Z
_TEXT	SEGMENT
__First$ = 8						; size = 4
__Last$ = 12						; size = 4
__Ptr$ = 16						; size = 4
??$_Umove@PAUUserInfo@DeveloperInfoWnd@@@?$vector@UUserInfo@DeveloperInfoWnd@@V?$allocator@UUserInfo@DeveloperInfoWnd@@@std@@@std@@IAEPAUUserInfo@DeveloperInfoWnd@@PAU23@00@Z PROC ; std::vector<DeveloperInfoWnd::UserInfo,std::allocator<DeveloperInfoWnd::UserInfo> >::_Umove<DeveloperInfoWnd::UserInfo *>, COMDAT
; _this$ = ecx

; 1322 : 		pointer _Umove(_Iter _First, _Iter _Last, pointer _Ptr)

  00000	55		 push	 ebp
  00001	8b ec		 mov	 ebp, esp

; 1323 : 		{	// move initializing [_First, _Last), using allocator
; 1324 : 		return (_Uninitialized_move(_First, _Last,
; 1325 : 			_Ptr, this->_Alval));

  00003	83 c1 0c	 add	 ecx, 12			; 0000000cH
  00006	51		 push	 ecx
  00007	ff 75 10	 push	 DWORD PTR __Ptr$[ebp]
  0000a	ff 75 0c	 push	 DWORD PTR __Last$[ebp]
  0000d	ff 75 08	 push	 DWORD PTR __First$[ebp]
  00010	e8 00 00 00 00	 call	 ??$_Uninitialized_move@PAUUserInfo@DeveloperInfoWnd@@PAU12@V?$allocator@UUserInfo@DeveloperInfoWnd@@@std@@@std@@YAPAUUserInfo@DeveloperInfoWnd@@PAU12@00AAV?$allocator@UUserInfo@DeveloperInfoWnd@@@0@@Z ; std::_Uninitialized_move<DeveloperInfoWnd::UserInfo *,DeveloperInfoWnd::UserInfo *,std::allocator<DeveloperInfoWnd::UserInfo> >
  00015	83 c4 10	 add	 esp, 16			; 00000010H

; 1326 : 		}

  00018	5d		 pop	 ebp
  00019	c2 0c 00	 ret	 12			; 0000000cH
??$_Umove@PAUUserInfo@DeveloperInfoWnd@@@?$vector@UUserInfo@DeveloperInfoWnd@@V?$allocator@UUserInfo@DeveloperInfoWnd@@@std@@@std@@IAEPAUUserInfo@DeveloperInfoWnd@@PAU23@00@Z ENDP ; std::vector<DeveloperInfoWnd::UserInfo,std::allocator<DeveloperInfoWnd::UserInfo> >::_Umove<DeveloperInfoWnd::UserInfo *>
_TEXT	ENDS
PUBLIC	?_Destroy@?$vector@VioHashString@@V?$allocator@VioHashString@@@std@@@std@@IAEXPAVioHashString@@0@Z ; std::vector<ioHashString,std::allocator<ioHashString> >::_Destroy
; Function compile flags: /Ogsp
;	COMDAT ?_Destroy@?$vector@VioHashString@@V?$allocator@VioHashString@@@std@@@std@@IAEXPAVioHashString@@0@Z
_TEXT	SEGMENT
__First$ = 8						; size = 4
__Last$ = 12						; size = 4
?_Destroy@?$vector@VioHashString@@V?$allocator@VioHashString@@@std@@@std@@IAEXPAVioHashString@@0@Z PROC ; std::vector<ioHashString,std::allocator<ioHashString> >::_Destroy, COMDAT
; _this$ = ecx

; 1269 : 		{	// destroy [_First, _Last) using allocator

  00000	55		 push	 ebp
  00001	8b ec		 mov	 ebp, esp
  00003	56		 push	 esi

; 1270 : 		_Destroy_range(_First, _Last, this->_Alval);

  00004	8b 75 08	 mov	 esi, DWORD PTR __First$[ebp]
  00007	eb 0b		 jmp	 SHORT $LN23@Destroy@2
$LL9@Destroy@2:
  00009	8b ce		 mov	 ecx, esi
  0000b	ff 15 00 00 00
	00		 call	 DWORD PTR __imp_??1ioHashString@@QAE@XZ
  00011	83 c6 10	 add	 esi, 16			; 00000010H
$LN23@Destroy@2:
  00014	3b 75 0c	 cmp	 esi, DWORD PTR __Last$[ebp]
  00017	75 f0		 jne	 SHORT $LL9@Destroy@2
  00019	5e		 pop	 esi

; 1271 : 		}

  0001a	5d		 pop	 ebp
  0001b	c2 08 00	 ret	 8
?_Destroy@?$vector@VioHashString@@V?$allocator@VioHashString@@@std@@@std@@IAEXPAVioHashString@@0@Z ENDP ; std::vector<ioHashString,std::allocator<ioHashString> >::_Destroy
_TEXT	ENDS
PUBLIC	?erase@?$vector@UUserInfo@DeveloperInfoWnd@@V?$allocator@UUserInfo@DeveloperInfoWnd@@@std@@@std@@QAE?AV?$_Vector_iterator@V?$_Vector_val@UUserInfo@DeveloperInfoWnd@@V?$allocator@UUserInfo@DeveloperInfoWnd@@@std@@@std@@@2@V?$_Vector_const_iterator@V?$_Vector_val@UUserInfo@DeveloperInfoWnd@@V?$allocator@UUserInfo@DeveloperInfoWnd@@@std@@@std@@@2@0@Z ; std::vector<DeveloperInfoWnd::UserInfo,std::allocator<DeveloperInfoWnd::UserInfo> >::erase
; Function compile flags: /Ogsp
;	COMDAT ?erase@?$vector@UUserInfo@DeveloperInfoWnd@@V?$allocator@UUserInfo@DeveloperInfoWnd@@@std@@@std@@QAE?AV?$_Vector_iterator@V?$_Vector_val@UUserInfo@DeveloperInfoWnd@@V?$allocator@UUserInfo@DeveloperInfoWnd@@@std@@@std@@@2@V?$_Vector_const_iterator@V?$_Vector_val@UUserInfo@DeveloperInfoWnd@@V?$allocator@UUserInfo@DeveloperInfoWnd@@@std@@@std@@@2@0@Z
_TEXT	SEGMENT
$T539022 = -4						; size = 4
___$ReturnUdt$ = 8					; size = 4
__First_arg$ = 12					; size = 4
__Cat$538953 = 16					; size = 1
__Last_arg$ = 16					; size = 4
?erase@?$vector@UUserInfo@DeveloperInfoWnd@@V?$allocator@UUserInfo@DeveloperInfoWnd@@@std@@@std@@QAE?AV?$_Vector_iterator@V?$_Vector_val@UUserInfo@DeveloperInfoWnd@@V?$allocator@UUserInfo@DeveloperInfoWnd@@@std@@@std@@@2@V?$_Vector_const_iterator@V?$_Vector_val@UUserInfo@DeveloperInfoWnd@@V?$allocator@UUserInfo@DeveloperInfoWnd@@@std@@@std@@@2@0@Z PROC ; std::vector<DeveloperInfoWnd::UserInfo,std::allocator<DeveloperInfoWnd::UserInfo> >::erase, COMDAT
; _this$ = ecx

; 1190 : 		{	// erase [_First, _Last)

  00000	55		 push	 ebp
  00001	8b ec		 mov	 ebp, esp
  00003	51		 push	 ecx

; 1191 : 		iterator _First = _Make_iter(_First_arg);

  00004	8b 45 08	 mov	 eax, DWORD PTR ___$ReturnUdt$[ebp]
  00007	56		 push	 esi
  00008	8b f1		 mov	 esi, ecx
  0000a	8b 4d 0c	 mov	 ecx, DWORD PTR __First_arg$[ebp]
  0000d	89 08		 mov	 DWORD PTR [eax], ecx

; 1192 : 		iterator _Last = _Make_iter(_Last_arg);
; 1193 : 
; 1194 : 		if (_First != _Last)

  0000f	3b 4d 10	 cmp	 ecx, DWORD PTR __Last_arg$[ebp]
  00012	74 38		 je	 SHORT $LN1@erase

; 1195 : 			{	// worth doing, copy down over hole
; 1196 :  #if _ITERATOR_DEBUG_LEVEL == 2
; 1197 : 			if (_Last < _First || _VICONT(_First) != this
; 1198 : 				|| _VIPTR(_First) < this->_Myfirst
; 1199 : 				|| this->_Mylast < _VIPTR(_Last))
; 1200 : 				_DEBUG_ERROR("vector erase iterator outside range");
; 1201 : 			pointer _Ptr = _Move(_VIPTR(_Last), this->_Mylast,
; 1202 : 				_VIPTR(_First));
; 1203 : 			_Orphan_range(_VIPTR(_First), this->_Mylast);
; 1204 : 
; 1205 :  #else /* _ITERATOR_DEBUG_LEVEL == 2 */
; 1206 : 			pointer _Ptr = _Move(_VIPTR(_Last), this->_Mylast,
; 1207 : 				_VIPTR(_First));

  00014	8b 46 04	 mov	 eax, DWORD PTR [esi+4]
  00017	53		 push	 ebx
  00018	57		 push	 edi
  00019	ff 75 10	 push	 DWORD PTR __Cat$538953[ebp]
  0001c	51		 push	 ecx
  0001d	50		 push	 eax
  0001e	ff 75 10	 push	 DWORD PTR __Last_arg$[ebp]
  00021	e8 00 00 00 00	 call	 ??$_Move@PAUUserInfo@DeveloperInfoWnd@@PAU12@@std@@YAPAUUserInfo@DeveloperInfoWnd@@PAU12@00U_Nonscalar_ptr_iterator_tag@0@@Z ; std::_Move<DeveloperInfoWnd::UserInfo *,DeveloperInfoWnd::UserInfo *>

; 1208 :  #endif /* _ITERATOR_DEBUG_LEVEL == 2 */
; 1209 : 
; 1210 : 			_Destroy(_Ptr, this->_Mylast);

  00026	8b 7e 04	 mov	 edi, DWORD PTR [esi+4]
  00029	8b d8		 mov	 ebx, eax
  0002b	83 c4 10	 add	 esp, 16			; 00000010H
  0002e	89 5d fc	 mov	 DWORD PTR $T539022[ebp], ebx
  00031	3b df		 cmp	 ebx, edi
  00033	74 12		 je	 SHORT $LN36@erase
$LL55@erase:
  00035	8b 4d fc	 mov	 ecx, DWORD PTR $T539022[ebp]
  00038	ff 15 00 00 00
	00		 call	 DWORD PTR __imp_??1ioHashString@@QAE@XZ
  0003e	83 45 fc 28	 add	 DWORD PTR $T539022[ebp], 40 ; 00000028H
  00042	39 7d fc	 cmp	 DWORD PTR $T539022[ebp], edi
  00045	75 ee		 jne	 SHORT $LL55@erase
$LN36@erase:

; 1211 : 			this->_Mylast = _Ptr;

  00047	5f		 pop	 edi
  00048	89 5e 04	 mov	 DWORD PTR [esi+4], ebx
  0004b	5b		 pop	 ebx
$LN1@erase:

; 1212 : 			}
; 1213 : 		return (_First);

  0004c	8b 45 08	 mov	 eax, DWORD PTR ___$ReturnUdt$[ebp]
  0004f	5e		 pop	 esi

; 1214 : 		}

  00050	c9		 leave
  00051	c2 0c 00	 ret	 12			; 0000000cH
?erase@?$vector@UUserInfo@DeveloperInfoWnd@@V?$allocator@UUserInfo@DeveloperInfoWnd@@@std@@@std@@QAE?AV?$_Vector_iterator@V?$_Vector_val@UUserInfo@DeveloperInfoWnd@@V?$allocator@UUserInfo@DeveloperInfoWnd@@@std@@@std@@@2@V?$_Vector_const_iterator@V?$_Vector_val@UUserInfo@DeveloperInfoWnd@@V?$allocator@UUserInfo@DeveloperInfoWnd@@@std@@@std@@@2@0@Z ENDP ; std::vector<DeveloperInfoWnd::UserInfo,std::allocator<DeveloperInfoWnd::UserInfo> >::erase
_TEXT	ENDS
PUBLIC	?_Tidy@?$vector@UUserInfo@DeveloperInfoWnd@@V?$allocator@UUserInfo@DeveloperInfoWnd@@@std@@@std@@IAEXXZ ; std::vector<DeveloperInfoWnd::UserInfo,std::allocator<DeveloperInfoWnd::UserInfo> >::_Tidy
EXTRN	__imp_?_Orphan_all@_Container_base0@std@@QAEXXZ:PROC
; Function compile flags: /Ogsp
;	COMDAT ?_Tidy@?$vector@UUserInfo@DeveloperInfoWnd@@V?$allocator@UUserInfo@DeveloperInfoWnd@@@std@@@std@@IAEXXZ
_TEXT	SEGMENT
?_Tidy@?$vector@UUserInfo@DeveloperInfoWnd@@V?$allocator@UUserInfo@DeveloperInfoWnd@@@std@@@std@@IAEXXZ PROC ; std::vector<DeveloperInfoWnd::UserInfo,std::allocator<DeveloperInfoWnd::UserInfo> >::_Tidy, COMDAT
; _this$ = ecx

; 1301 : 		{	// free all storage

  00000	56		 push	 esi
  00001	8b f1		 mov	 esi, ecx

; 1302 : 		if (this->_Myfirst != 0)

  00003	83 3e 00	 cmp	 DWORD PTR [esi], 0
  00006	74 28		 je	 SHORT $LN27@Tidy

; 1303 : 			{	// something to free, destroy and deallocate it
; 1304 : 			this->_Orphan_all();

  00008	53		 push	 ebx
  00009	57		 push	 edi
  0000a	ff 15 00 00 00
	00		 call	 DWORD PTR __imp_?_Orphan_all@_Container_base0@std@@QAEXXZ

; 1305 : 			_Destroy(this->_Myfirst, this->_Mylast);

  00010	8b 5e 04	 mov	 ebx, DWORD PTR [esi+4]
  00013	8b 3e		 mov	 edi, DWORD PTR [esi]
  00015	eb 0b		 jmp	 SHORT $LN31@Tidy
$LL12@Tidy:
  00017	8b cf		 mov	 ecx, edi
  00019	ff 15 00 00 00
	00		 call	 DWORD PTR __imp_??1ioHashString@@QAE@XZ
  0001f	83 c7 28	 add	 edi, 40			; 00000028H
$LN31@Tidy:
  00022	3b fb		 cmp	 edi, ebx
  00024	75 f1		 jne	 SHORT $LL12@Tidy

; 1306 : 			this->_Alval.deallocate(this->_Myfirst,
; 1307 : 				this->_Myend - this->_Myfirst);

  00026	ff 36		 push	 DWORD PTR [esi]
  00028	e8 00 00 00 00	 call	 ??3@YAXPAX@Z		; operator delete
  0002d	59		 pop	 ecx
  0002e	5f		 pop	 edi
  0002f	5b		 pop	 ebx
$LN27@Tidy:

; 1308 : 			}
; 1309 : 		this->_Myfirst = 0;

  00030	33 c0		 xor	 eax, eax
  00032	89 06		 mov	 DWORD PTR [esi], eax

; 1310 : 		this->_Mylast = 0;

  00034	89 46 04	 mov	 DWORD PTR [esi+4], eax

; 1311 : 		this->_Myend = 0;

  00037	89 46 08	 mov	 DWORD PTR [esi+8], eax
  0003a	5e		 pop	 esi

; 1312 : 		}

  0003b	c3		 ret	 0
?_Tidy@?$vector@UUserInfo@DeveloperInfoWnd@@V?$allocator@UUserInfo@DeveloperInfoWnd@@@std@@@std@@IAEXXZ ENDP ; std::vector<DeveloperInfoWnd::UserInfo,std::allocator<DeveloperInfoWnd::UserInfo> >::_Tidy
_TEXT	ENDS
PUBLIC	?reserve@?$vector@UUserInfo@DeveloperInfoWnd@@V?$allocator@UUserInfo@DeveloperInfoWnd@@@std@@@std@@QAEXI@Z ; std::vector<DeveloperInfoWnd::UserInfo,std::allocator<DeveloperInfoWnd::UserInfo> >::reserve
;	COMDAT xdata$x
; File c:\program files (x86)\microsoft visual studio 10.0\vc\include\xmemory
xdata$x	SEGMENT
__catchsym$?reserve@?$vector@UUserInfo@DeveloperInfoWnd@@V?$allocator@UUserInfo@DeveloperInfoWnd@@@std@@@std@@QAEXI@Z$3 DD 040H
	DD	00H
	DD	00H
	DD	FLAT:__catch$?reserve@?$vector@UUserInfo@DeveloperInfoWnd@@V?$allocator@UUserInfo@DeveloperInfoWnd@@@std@@@std@@QAEXI@Z$0
__unwindtable$?reserve@?$vector@UUserInfo@DeveloperInfoWnd@@V?$allocator@UUserInfo@DeveloperInfoWnd@@@std@@@std@@QAEXI@Z DD 0ffffffffH
	DD	00H
	DD	0ffffffffH
	DD	00H
__tryblocktable$?reserve@?$vector@UUserInfo@DeveloperInfoWnd@@V?$allocator@UUserInfo@DeveloperInfoWnd@@@std@@@std@@QAEXI@Z DD 00H
	DD	00H
	DD	01H
	DD	01H
	DD	FLAT:__catchsym$?reserve@?$vector@UUserInfo@DeveloperInfoWnd@@V?$allocator@UUserInfo@DeveloperInfoWnd@@@std@@@std@@QAEXI@Z$3
__ehfuncinfo$?reserve@?$vector@UUserInfo@DeveloperInfoWnd@@V?$allocator@UUserInfo@DeveloperInfoWnd@@@std@@@std@@QAEXI@Z DD 019930522H
	DD	02H
	DD	FLAT:__unwindtable$?reserve@?$vector@UUserInfo@DeveloperInfoWnd@@V?$allocator@UUserInfo@DeveloperInfoWnd@@@std@@@std@@QAEXI@Z
	DD	01H
	DD	FLAT:__tryblocktable$?reserve@?$vector@UUserInfo@DeveloperInfoWnd@@V?$allocator@UUserInfo@DeveloperInfoWnd@@@std@@@std@@QAEXI@Z
	DD	2 DUP(00H)
	DD	00H
	DD	01H
; Function compile flags: /Ogsp
; File c:\program files (x86)\microsoft visual studio 10.0\vc\include\vector
xdata$x	ENDS
;	COMDAT ?reserve@?$vector@UUserInfo@DeveloperInfoWnd@@V?$allocator@UUserInfo@DeveloperInfoWnd@@@std@@@std@@QAEXI@Z
_TEXT	SEGMENT
__Ptr$535789 = -24					; size = 4
$T539304 = -20						; size = 4
__$EHRec$ = -16						; size = 16
__Count$ = 8						; size = 4
?reserve@?$vector@UUserInfo@DeveloperInfoWnd@@V?$allocator@UUserInfo@DeveloperInfoWnd@@@std@@@std@@QAEXI@Z PROC ; std::vector<DeveloperInfoWnd::UserInfo,std::allocator<DeveloperInfoWnd::UserInfo> >::reserve, COMDAT
; _this$ = ecx

; 746  : 		{	// determine new minimum length of allocated storage

  00000	6a 0c		 push	 12			; 0000000cH
  00002	b8 00 00 00 00	 mov	 eax, __ehhandler$?reserve@?$vector@UUserInfo@DeveloperInfoWnd@@V?$allocator@UUserInfo@DeveloperInfoWnd@@@std@@@std@@QAEXI@Z
  00007	e8 00 00 00 00	 call	 __EH_prolog3_catch
  0000c	8b f1		 mov	 esi, ecx

; 747  : 		if (max_size() < _Count)

  0000e	81 7d 08 66 66
	66 06		 cmp	 DWORD PTR __Count$[ebp], 107374182 ; 06666666H
  00015	76 0b		 jbe	 SHORT $LN5@reserve

; 748  : 			_Xlen();	// result too long

  00017	68 00 00 00 00	 push	 OFFSET ??_C@_0BD@OLBABOEK@vector?$DMT?$DO?5too?5long?$AA@
  0001c	ff 15 00 00 00
	00		 call	 DWORD PTR __imp_?_Xlength_error@std@@YAXPBD@Z
$LN62@reserve:
$LN5@reserve:

; 749  : 		else if (capacity() < _Count)

  00022	8b 46 08	 mov	 eax, DWORD PTR [esi+8]
  00025	2b 06		 sub	 eax, DWORD PTR [esi]
  00027	6a 28		 push	 40			; 00000028H
  00029	99		 cdq
  0002a	59		 pop	 ecx
  0002b	f7 f9		 idiv	 ecx
  0002d	3b 45 08	 cmp	 eax, DWORD PTR __Count$[ebp]
  00030	0f 83 81 00 00
	00		 jae	 $LN3@reserve

; 750  : 			{	// not enough room, reallocate
; 751  : 			pointer _Ptr = this->_Alval.allocate(_Count);

  00036	6a 00		 push	 0
  00038	ff 75 08	 push	 DWORD PTR __Count$[ebp]
  0003b	e8 00 00 00 00	 call	 ??$_Allocate@UUserInfo@DeveloperInfoWnd@@@std@@YAPAUUserInfo@DeveloperInfoWnd@@IPAU12@@Z ; std::_Allocate<DeveloperInfoWnd::UserInfo>

; 752  : 
; 753  : 			_TRY_BEGIN
; 754  : 			_Umove(this->_Myfirst, this->_Mylast, _Ptr);

  00040	8b 0e		 mov	 ecx, DWORD PTR [esi]
  00042	83 65 fc 00	 and	 DWORD PTR __$EHRec$[ebp+12], 0
  00046	8d 56 0c	 lea	 edx, DWORD PTR [esi+12]
  00049	52		 push	 edx
  0004a	89 45 e8	 mov	 DWORD PTR __Ptr$535789[ebp], eax
  0004d	ff 75 e8	 push	 DWORD PTR __Ptr$535789[ebp]
  00050	8b 46 04	 mov	 eax, DWORD PTR [esi+4]
  00053	50		 push	 eax
  00054	51		 push	 ecx
  00055	e8 00 00 00 00	 call	 ??$_Uninitialized_move@PAUUserInfo@DeveloperInfoWnd@@PAU12@V?$allocator@UUserInfo@DeveloperInfoWnd@@@std@@@std@@YAPAUUserInfo@DeveloperInfoWnd@@PAU12@00AAV?$allocator@UUserInfo@DeveloperInfoWnd@@@0@@Z ; std::_Uninitialized_move<DeveloperInfoWnd::UserInfo *,DeveloperInfoWnd::UserInfo *,std::allocator<DeveloperInfoWnd::UserInfo> >

; 758  : 			_CATCH_END
; 759  : 
; 760  : 			size_type _Size = size();

  0005a	8b 5e 04	 mov	 ebx, DWORD PTR [esi+4]
  0005d	8b 0e		 mov	 ecx, DWORD PTR [esi]
  0005f	83 c4 18	 add	 esp, 24			; 00000018H
  00062	8b c3		 mov	 eax, ebx
  00064	2b c1		 sub	 eax, ecx
  00066	6a 28		 push	 40			; 00000028H
  00068	99		 cdq
  00069	5f		 pop	 edi
  0006a	f7 ff		 idiv	 edi
  0006c	83 4d fc ff	 or	 DWORD PTR __$EHRec$[ebp+12], -1
  00070	8b f8		 mov	 edi, eax
  00072	85 c9		 test	 ecx, ecx
  00074	74 21		 je	 SHORT $LN54@reserve

; 761  : 			if (this->_Myfirst != 0)
; 762  : 				{	// destroy and deallocate old array
; 763  : 				_Destroy(this->_Myfirst, this->_Mylast);

  00076	89 4d ec	 mov	 DWORD PTR $T539304[ebp], ecx
  00079	3b cb		 cmp	 ecx, ebx
  0007b	74 12		 je	 SHORT $LN37@reserve
$LN39@reserve:
  0007d	8b 4d ec	 mov	 ecx, DWORD PTR $T539304[ebp]
  00080	ff 15 00 00 00
	00		 call	 DWORD PTR __imp_??1ioHashString@@QAE@XZ
  00086	83 45 ec 28	 add	 DWORD PTR $T539304[ebp], 40 ; 00000028H
  0008a	39 5d ec	 cmp	 DWORD PTR $T539304[ebp], ebx
  0008d	75 ee		 jne	 SHORT $LN39@reserve
$LN37@reserve:

; 764  : 				this->_Alval.deallocate(this->_Myfirst,
; 765  : 					this->_Myend - this->_Myfirst);

  0008f	ff 36		 push	 DWORD PTR [esi]
  00091	e8 00 00 00 00	 call	 ??3@YAXPAX@Z		; operator delete
  00096	59		 pop	 ecx
$LN54@reserve:

; 766  : 				}
; 767  : 
; 768  : 			this->_Orphan_all();

  00097	8b ce		 mov	 ecx, esi
  00099	ff 15 00 00 00
	00		 call	 DWORD PTR __imp_?_Orphan_all@_Container_base0@std@@QAEXXZ

; 769  : 			this->_Myend = _Ptr + _Count;
; 770  : 			this->_Mylast = _Ptr + _Size;

  0009f	6b ff 28	 imul	 edi, 40			; 00000028H
  000a2	8b 45 08	 mov	 eax, DWORD PTR __Count$[ebp]
  000a5	8b 4d e8	 mov	 ecx, DWORD PTR __Ptr$535789[ebp]
  000a8	6b c0 28	 imul	 eax, 40			; 00000028H
  000ab	03 c1		 add	 eax, ecx
  000ad	03 f9		 add	 edi, ecx
  000af	89 46 08	 mov	 DWORD PTR [esi+8], eax
  000b2	89 7e 04	 mov	 DWORD PTR [esi+4], edi

; 771  : 			this->_Myfirst = _Ptr;

  000b5	89 0e		 mov	 DWORD PTR [esi], ecx
$LN3@reserve:

; 772  : 			}
; 773  : 		}

  000b7	e8 00 00 00 00	 call	 __EH_epilog3
  000bc	c2 04 00	 ret	 4
__catch$?reserve@?$vector@UUserInfo@DeveloperInfoWnd@@V?$allocator@UUserInfo@DeveloperInfoWnd@@@std@@@std@@QAEXI@Z$0:

; 755  : 			_CATCH_ALL
; 756  : 			this->_Alval.deallocate(_Ptr, _Count);

  000bf	ff 75 e8	 push	 DWORD PTR __Ptr$535789[ebp]
  000c2	e8 00 00 00 00	 call	 ??3@YAXPAX@Z		; operator delete
  000c7	59		 pop	 ecx

; 757  : 			_RERAISE;

  000c8	6a 00		 push	 0
  000ca	6a 00		 push	 0
  000cc	e8 00 00 00 00	 call	 __CxxThrowException@8
$LN63@reserve:
$LN61@reserve:
  000d1	cc		 int	 3
_TEXT	ENDS
;	COMDAT text$x
text$x	SEGMENT
__ehhandler$?reserve@?$vector@UUserInfo@DeveloperInfoWnd@@V?$allocator@UUserInfo@DeveloperInfoWnd@@@std@@@std@@QAEXI@Z:
  00000	8b 54 24 08	 mov	 edx, DWORD PTR [esp+8]
  00004	8d 42 0c	 lea	 eax, DWORD PTR [edx+12]
  00007	8b 4a e4	 mov	 ecx, DWORD PTR [edx-28]
  0000a	33 c8		 xor	 ecx, eax
  0000c	e8 00 00 00 00	 call	 @__security_check_cookie@4
  00011	b8 00 00 00 00	 mov	 eax, OFFSET __ehfuncinfo$?reserve@?$vector@UUserInfo@DeveloperInfoWnd@@V?$allocator@UUserInfo@DeveloperInfoWnd@@@std@@@std@@QAEXI@Z
  00016	e9 00 00 00 00	 jmp	 ___CxxFrameHandler3
text$x	ENDS
?reserve@?$vector@UUserInfo@DeveloperInfoWnd@@V?$allocator@UUserInfo@DeveloperInfoWnd@@@std@@@std@@QAEXI@Z ENDP ; std::vector<DeveloperInfoWnd::UserInfo,std::allocator<DeveloperInfoWnd::UserInfo> >::reserve
PUBLIC	?erase@?$vector@VioHashString@@V?$allocator@VioHashString@@@std@@@std@@QAE?AV?$_Vector_iterator@V?$_Vector_val@VioHashString@@V?$allocator@VioHashString@@@std@@@std@@@2@V?$_Vector_const_iterator@V?$_Vector_val@VioHashString@@V?$allocator@VioHashString@@@std@@@std@@@2@0@Z ; std::vector<ioHashString,std::allocator<ioHashString> >::erase
; Function compile flags: /Ogsp
;	COMDAT ?erase@?$vector@VioHashString@@V?$allocator@VioHashString@@@std@@@std@@QAE?AV?$_Vector_iterator@V?$_Vector_val@VioHashString@@V?$allocator@VioHashString@@@std@@@std@@@2@V?$_Vector_const_iterator@V?$_Vector_val@VioHashString@@V?$allocator@VioHashString@@@std@@@std@@@2@0@Z
_TEXT	SEGMENT
$T539503 = -4						; size = 4
___$ReturnUdt$ = 8					; size = 4
__First_arg$ = 12					; size = 4
__Cat$539447 = 16					; size = 1
__Last_arg$ = 16					; size = 4
?erase@?$vector@VioHashString@@V?$allocator@VioHashString@@@std@@@std@@QAE?AV?$_Vector_iterator@V?$_Vector_val@VioHashString@@V?$allocator@VioHashString@@@std@@@std@@@2@V?$_Vector_const_iterator@V?$_Vector_val@VioHashString@@V?$allocator@VioHashString@@@std@@@std@@@2@0@Z PROC ; std::vector<ioHashString,std::allocator<ioHashString> >::erase, COMDAT
; _this$ = ecx

; 1190 : 		{	// erase [_First, _Last)

  00000	55		 push	 ebp
  00001	8b ec		 mov	 ebp, esp
  00003	51		 push	 ecx

; 1191 : 		iterator _First = _Make_iter(_First_arg);

  00004	8b 45 08	 mov	 eax, DWORD PTR ___$ReturnUdt$[ebp]
  00007	56		 push	 esi
  00008	8b f1		 mov	 esi, ecx
  0000a	8b 4d 0c	 mov	 ecx, DWORD PTR __First_arg$[ebp]
  0000d	89 08		 mov	 DWORD PTR [eax], ecx

; 1192 : 		iterator _Last = _Make_iter(_Last_arg);
; 1193 : 
; 1194 : 		if (_First != _Last)

  0000f	3b 4d 10	 cmp	 ecx, DWORD PTR __Last_arg$[ebp]
  00012	74 38		 je	 SHORT $LN1@erase@2

; 1195 : 			{	// worth doing, copy down over hole
; 1196 :  #if _ITERATOR_DEBUG_LEVEL == 2
; 1197 : 			if (_Last < _First || _VICONT(_First) != this
; 1198 : 				|| _VIPTR(_First) < this->_Myfirst
; 1199 : 				|| this->_Mylast < _VIPTR(_Last))
; 1200 : 				_DEBUG_ERROR("vector erase iterator outside range");
; 1201 : 			pointer _Ptr = _Move(_VIPTR(_Last), this->_Mylast,
; 1202 : 				_VIPTR(_First));
; 1203 : 			_Orphan_range(_VIPTR(_First), this->_Mylast);
; 1204 : 
; 1205 :  #else /* _ITERATOR_DEBUG_LEVEL == 2 */
; 1206 : 			pointer _Ptr = _Move(_VIPTR(_Last), this->_Mylast,
; 1207 : 				_VIPTR(_First));

  00014	8b 46 04	 mov	 eax, DWORD PTR [esi+4]
  00017	53		 push	 ebx
  00018	57		 push	 edi
  00019	ff 75 10	 push	 DWORD PTR __Cat$539447[ebp]
  0001c	51		 push	 ecx
  0001d	50		 push	 eax
  0001e	ff 75 10	 push	 DWORD PTR __Last_arg$[ebp]
  00021	e8 00 00 00 00	 call	 ??$_Move@PAVioHashString@@PAV1@@std@@YAPAVioHashString@@PAV1@00U_Nonscalar_ptr_iterator_tag@0@@Z ; std::_Move<ioHashString *,ioHashString *>

; 1208 :  #endif /* _ITERATOR_DEBUG_LEVEL == 2 */
; 1209 : 
; 1210 : 			_Destroy(_Ptr, this->_Mylast);

  00026	8b 7e 04	 mov	 edi, DWORD PTR [esi+4]
  00029	8b d8		 mov	 ebx, eax
  0002b	83 c4 10	 add	 esp, 16			; 00000010H
  0002e	89 5d fc	 mov	 DWORD PTR $T539503[ebp], ebx
  00031	3b df		 cmp	 ebx, edi
  00033	74 12		 je	 SHORT $LN36@erase@2
$LL52@erase@2:
  00035	8b 4d fc	 mov	 ecx, DWORD PTR $T539503[ebp]
  00038	ff 15 00 00 00
	00		 call	 DWORD PTR __imp_??1ioHashString@@QAE@XZ
  0003e	83 45 fc 10	 add	 DWORD PTR $T539503[ebp], 16 ; 00000010H
  00042	39 7d fc	 cmp	 DWORD PTR $T539503[ebp], edi
  00045	75 ee		 jne	 SHORT $LL52@erase@2
$LN36@erase@2:

; 1211 : 			this->_Mylast = _Ptr;

  00047	5f		 pop	 edi
  00048	89 5e 04	 mov	 DWORD PTR [esi+4], ebx
  0004b	5b		 pop	 ebx
$LN1@erase@2:

; 1212 : 			}
; 1213 : 		return (_First);

  0004c	8b 45 08	 mov	 eax, DWORD PTR ___$ReturnUdt$[ebp]
  0004f	5e		 pop	 esi

; 1214 : 		}

  00050	c9		 leave
  00051	c2 0c 00	 ret	 12			; 0000000cH
?erase@?$vector@VioHashString@@V?$allocator@VioHashString@@@std@@@std@@QAE?AV?$_Vector_iterator@V?$_Vector_val@VioHashString@@V?$allocator@VioHashString@@@std@@@std@@@2@V?$_Vector_const_iterator@V?$_Vector_val@VioHashString@@V?$allocator@VioHashString@@@std@@@std@@@2@0@Z ENDP ; std::vector<ioHashString,std::allocator<ioHashString> >::erase
_TEXT	ENDS
PUBLIC	?_Tidy@?$vector@VioHashString@@V?$allocator@VioHashString@@@std@@@std@@IAEXXZ ; std::vector<ioHashString,std::allocator<ioHashString> >::_Tidy
; Function compile flags: /Ogsp
;	COMDAT ?_Tidy@?$vector@VioHashString@@V?$allocator@VioHashString@@@std@@@std@@IAEXXZ
_TEXT	SEGMENT
?_Tidy@?$vector@VioHashString@@V?$allocator@VioHashString@@@std@@@std@@IAEXXZ PROC ; std::vector<ioHashString,std::allocator<ioHashString> >::_Tidy, COMDAT
; _this$ = ecx

; 1301 : 		{	// free all storage

  00000	56		 push	 esi
  00001	8b f1		 mov	 esi, ecx

; 1302 : 		if (this->_Myfirst != 0)

  00003	83 3e 00	 cmp	 DWORD PTR [esi], 0
  00006	74 28		 je	 SHORT $LN24@Tidy@2

; 1303 : 			{	// something to free, destroy and deallocate it
; 1304 : 			this->_Orphan_all();

  00008	53		 push	 ebx
  00009	57		 push	 edi
  0000a	ff 15 00 00 00
	00		 call	 DWORD PTR __imp_?_Orphan_all@_Container_base0@std@@QAEXXZ

; 1305 : 			_Destroy(this->_Myfirst, this->_Mylast);

  00010	8b 5e 04	 mov	 ebx, DWORD PTR [esi+4]
  00013	8b 3e		 mov	 edi, DWORD PTR [esi]
  00015	eb 0b		 jmp	 SHORT $LN28@Tidy@2
$LL12@Tidy@2:
  00017	8b cf		 mov	 ecx, edi
  00019	ff 15 00 00 00
	00		 call	 DWORD PTR __imp_??1ioHashString@@QAE@XZ
  0001f	83 c7 10	 add	 edi, 16			; 00000010H
$LN28@Tidy@2:
  00022	3b fb		 cmp	 edi, ebx
  00024	75 f1		 jne	 SHORT $LL12@Tidy@2

; 1306 : 			this->_Alval.deallocate(this->_Myfirst,
; 1307 : 				this->_Myend - this->_Myfirst);

  00026	ff 36		 push	 DWORD PTR [esi]
  00028	e8 00 00 00 00	 call	 ??3@YAXPAX@Z		; operator delete
  0002d	59		 pop	 ecx
  0002e	5f		 pop	 edi
  0002f	5b		 pop	 ebx
$LN24@Tidy@2:

; 1308 : 			}
; 1309 : 		this->_Myfirst = 0;

  00030	33 c0		 xor	 eax, eax
  00032	89 06		 mov	 DWORD PTR [esi], eax

; 1310 : 		this->_Mylast = 0;

  00034	89 46 04	 mov	 DWORD PTR [esi+4], eax

; 1311 : 		this->_Myend = 0;

  00037	89 46 08	 mov	 DWORD PTR [esi+8], eax
  0003a	5e		 pop	 esi

; 1312 : 		}

  0003b	c3		 ret	 0
?_Tidy@?$vector@VioHashString@@V?$allocator@VioHashString@@@std@@@std@@IAEXXZ ENDP ; std::vector<ioHashString,std::allocator<ioHashString> >::_Tidy
_TEXT	ENDS
PUBLIC	??1?$vector@UUserInfo@DeveloperInfoWnd@@V?$allocator@UUserInfo@DeveloperInfoWnd@@@std@@@std@@QAE@XZ ; std::vector<DeveloperInfoWnd::UserInfo,std::allocator<DeveloperInfoWnd::UserInfo> >::~vector<DeveloperInfoWnd::UserInfo,std::allocator<DeveloperInfoWnd::UserInfo> >
; Function compile flags: /Ogsp
;	COMDAT ??1?$vector@UUserInfo@DeveloperInfoWnd@@V?$allocator@UUserInfo@DeveloperInfoWnd@@@std@@@std@@QAE@XZ
_TEXT	SEGMENT
??1?$vector@UUserInfo@DeveloperInfoWnd@@V?$allocator@UUserInfo@DeveloperInfoWnd@@@std@@@std@@QAE@XZ PROC ; std::vector<DeveloperInfoWnd::UserInfo,std::allocator<DeveloperInfoWnd::UserInfo> >::~vector<DeveloperInfoWnd::UserInfo,std::allocator<DeveloperInfoWnd::UserInfo> >, COMDAT
; _this$ = ecx

; 705  : 		_Tidy();

  00000	e9 00 00 00 00	 jmp	 ?_Tidy@?$vector@UUserInfo@DeveloperInfoWnd@@V?$allocator@UUserInfo@DeveloperInfoWnd@@@std@@@std@@IAEXXZ ; std::vector<DeveloperInfoWnd::UserInfo,std::allocator<DeveloperInfoWnd::UserInfo> >::_Tidy
??1?$vector@UUserInfo@DeveloperInfoWnd@@V?$allocator@UUserInfo@DeveloperInfoWnd@@@std@@@std@@QAE@XZ ENDP ; std::vector<DeveloperInfoWnd::UserInfo,std::allocator<DeveloperInfoWnd::UserInfo> >::~vector<DeveloperInfoWnd::UserInfo,std::allocator<DeveloperInfoWnd::UserInfo> >
_TEXT	ENDS
PUBLIC	?clear@?$vector@UUserInfo@DeveloperInfoWnd@@V?$allocator@UUserInfo@DeveloperInfoWnd@@@std@@@std@@QAEXXZ ; std::vector<DeveloperInfoWnd::UserInfo,std::allocator<DeveloperInfoWnd::UserInfo> >::clear
; Function compile flags: /Ogsp
;	COMDAT ?clear@?$vector@UUserInfo@DeveloperInfoWnd@@V?$allocator@UUserInfo@DeveloperInfoWnd@@@std@@@std@@QAEXXZ
_TEXT	SEGMENT
$T539669 = -4						; size = 4
?clear@?$vector@UUserInfo@DeveloperInfoWnd@@V?$allocator@UUserInfo@DeveloperInfoWnd@@@std@@@std@@QAEXXZ PROC ; std::vector<DeveloperInfoWnd::UserInfo,std::allocator<DeveloperInfoWnd::UserInfo> >::clear, COMDAT
; _this$ = ecx

; 1217 : 		{	// erase all

  00000	55		 push	 ebp
  00001	8b ec		 mov	 ebp, esp
  00003	51		 push	 ecx

; 1218 : 		erase(begin(), end());

  00004	8b 41 04	 mov	 eax, DWORD PTR [ecx+4]
  00007	8b 11		 mov	 edx, DWORD PTR [ecx]
  00009	50		 push	 eax
  0000a	52		 push	 edx
  0000b	8d 45 fc	 lea	 eax, DWORD PTR $T539669[ebp]
  0000e	50		 push	 eax
  0000f	e8 00 00 00 00	 call	 ?erase@?$vector@UUserInfo@DeveloperInfoWnd@@V?$allocator@UUserInfo@DeveloperInfoWnd@@@std@@@std@@QAE?AV?$_Vector_iterator@V?$_Vector_val@UUserInfo@DeveloperInfoWnd@@V?$allocator@UUserInfo@DeveloperInfoWnd@@@std@@@std@@@2@V?$_Vector_const_iterator@V?$_Vector_val@UUserInfo@DeveloperInfoWnd@@V?$allocator@UUserInfo@DeveloperInfoWnd@@@std@@@std@@@2@0@Z ; std::vector<DeveloperInfoWnd::UserInfo,std::allocator<DeveloperInfoWnd::UserInfo> >::erase

; 1219 : 		}

  00014	c9		 leave
  00015	c3		 ret	 0
?clear@?$vector@UUserInfo@DeveloperInfoWnd@@V?$allocator@UUserInfo@DeveloperInfoWnd@@@std@@@std@@QAEXXZ ENDP ; std::vector<DeveloperInfoWnd::UserInfo,std::allocator<DeveloperInfoWnd::UserInfo> >::clear
_TEXT	ENDS
PUBLIC	?_Reserve@?$vector@UUserInfo@DeveloperInfoWnd@@V?$allocator@UUserInfo@DeveloperInfoWnd@@@std@@@std@@IAEXI@Z ; std::vector<DeveloperInfoWnd::UserInfo,std::allocator<DeveloperInfoWnd::UserInfo> >::_Reserve
; Function compile flags: /Ogsp
;	COMDAT ?_Reserve@?$vector@UUserInfo@DeveloperInfoWnd@@V?$allocator@UUserInfo@DeveloperInfoWnd@@@std@@@std@@IAEXI@Z
_TEXT	SEGMENT
__Count$ = 8						; size = 4
?_Reserve@?$vector@UUserInfo@DeveloperInfoWnd@@V?$allocator@UUserInfo@DeveloperInfoWnd@@@std@@@std@@IAEXI@Z PROC ; std::vector<DeveloperInfoWnd::UserInfo,std::allocator<DeveloperInfoWnd::UserInfo> >::_Reserve, COMDAT
; _this$ = ecx

; 1290 : 		{	// ensure room for _Count new elements, grow exponentially

  00000	55		 push	 ebp
  00001	8b ec		 mov	 ebp, esp
  00003	56		 push	 esi
  00004	8b f1		 mov	 esi, ecx

; 1291 : 		size_type _Size = size();

  00006	8b 0e		 mov	 ecx, DWORD PTR [esi]
  00008	8b 46 04	 mov	 eax, DWORD PTR [esi+4]
  0000b	2b c1		 sub	 eax, ecx
  0000d	57		 push	 edi
  0000e	99		 cdq
  0000f	6a 28		 push	 40			; 00000028H
  00011	5f		 pop	 edi
  00012	f7 ff		 idiv	 edi
  00014	8b f8		 mov	 edi, eax

; 1292 : 		if (max_size() - _Count < _Size)

  00016	b8 66 66 66 06	 mov	 eax, 107374182		; 06666666H
  0001b	2b 45 08	 sub	 eax, DWORD PTR __Count$[ebp]
  0001e	3b c7		 cmp	 eax, edi
  00020	73 0b		 jae	 SHORT $LN4@Reserve

; 1293 : 			_Xlen();

  00022	68 00 00 00 00	 push	 OFFSET ??_C@_0BD@OLBABOEK@vector?$DMT?$DO?5too?5long?$AA@
  00027	ff 15 00 00 00
	00		 call	 DWORD PTR __imp_?_Xlength_error@std@@YAXPBD@Z
$LN21@Reserve:
$LN4@Reserve:

; 1294 : 		else if ((_Size += _Count) <= capacity())

  0002d	8b 46 08	 mov	 eax, DWORD PTR [esi+8]
  00030	2b c1		 sub	 eax, ecx
  00032	6a 28		 push	 40			; 00000028H
  00034	99		 cdq
  00035	59		 pop	 ecx
  00036	f7 f9		 idiv	 ecx
  00038	03 7d 08	 add	 edi, DWORD PTR __Count$[ebp]
  0003b	3b f8		 cmp	 edi, eax
  0003d	76 10		 jbe	 SHORT $LN1@Reserve

; 1295 : 			;
; 1296 : 		else
; 1297 : 			reserve(_Grow_to(_Size));

  0003f	57		 push	 edi
  00040	8b ce		 mov	 ecx, esi
  00042	e8 00 00 00 00	 call	 ?_Grow_to@?$vector@UUserInfo@DeveloperInfoWnd@@V?$allocator@UUserInfo@DeveloperInfoWnd@@@std@@@std@@IBEII@Z ; std::vector<DeveloperInfoWnd::UserInfo,std::allocator<DeveloperInfoWnd::UserInfo> >::_Grow_to
  00047	50		 push	 eax
  00048	8b ce		 mov	 ecx, esi
  0004a	e8 00 00 00 00	 call	 ?reserve@?$vector@UUserInfo@DeveloperInfoWnd@@V?$allocator@UUserInfo@DeveloperInfoWnd@@@std@@@std@@QAEXI@Z ; std::vector<DeveloperInfoWnd::UserInfo,std::allocator<DeveloperInfoWnd::UserInfo> >::reserve
$LN1@Reserve:
  0004f	5f		 pop	 edi
  00050	5e		 pop	 esi

; 1298 : 		}

  00051	5d		 pop	 ebp
  00052	c2 04 00	 ret	 4
$LN20@Reserve:
?_Reserve@?$vector@UUserInfo@DeveloperInfoWnd@@V?$allocator@UUserInfo@DeveloperInfoWnd@@@std@@@std@@IAEXI@Z ENDP ; std::vector<DeveloperInfoWnd::UserInfo,std::allocator<DeveloperInfoWnd::UserInfo> >::_Reserve
_TEXT	ENDS
PUBLIC	??1?$vector@VioHashString@@V?$allocator@VioHashString@@@std@@@std@@QAE@XZ ; std::vector<ioHashString,std::allocator<ioHashString> >::~vector<ioHashString,std::allocator<ioHashString> >
; Function compile flags: /Ogsp
;	COMDAT ??1?$vector@VioHashString@@V?$allocator@VioHashString@@@std@@@std@@QAE@XZ
_TEXT	SEGMENT
??1?$vector@VioHashString@@V?$allocator@VioHashString@@@std@@@std@@QAE@XZ PROC ; std::vector<ioHashString,std::allocator<ioHashString> >::~vector<ioHashString,std::allocator<ioHashString> >, COMDAT
; _this$ = ecx

; 705  : 		_Tidy();

  00000	e9 00 00 00 00	 jmp	 ?_Tidy@?$vector@VioHashString@@V?$allocator@VioHashString@@@std@@@std@@IAEXXZ ; std::vector<ioHashString,std::allocator<ioHashString> >::_Tidy
??1?$vector@VioHashString@@V?$allocator@VioHashString@@@std@@@std@@QAE@XZ ENDP ; std::vector<ioHashString,std::allocator<ioHashString> >::~vector<ioHashString,std::allocator<ioHashString> >
_TEXT	ENDS
PUBLIC	?clear@?$vector@VioHashString@@V?$allocator@VioHashString@@@std@@@std@@QAEXXZ ; std::vector<ioHashString,std::allocator<ioHashString> >::clear
; Function compile flags: /Ogsp
;	COMDAT ?clear@?$vector@VioHashString@@V?$allocator@VioHashString@@@std@@@std@@QAEXXZ
_TEXT	SEGMENT
$T539763 = -4						; size = 4
?clear@?$vector@VioHashString@@V?$allocator@VioHashString@@@std@@@std@@QAEXXZ PROC ; std::vector<ioHashString,std::allocator<ioHashString> >::clear, COMDAT
; _this$ = ecx

; 1217 : 		{	// erase all

  00000	55		 push	 ebp
  00001	8b ec		 mov	 ebp, esp
  00003	51		 push	 ecx

; 1218 : 		erase(begin(), end());

  00004	8b 41 04	 mov	 eax, DWORD PTR [ecx+4]
  00007	8b 11		 mov	 edx, DWORD PTR [ecx]
  00009	50		 push	 eax
  0000a	52		 push	 edx
  0000b	8d 45 fc	 lea	 eax, DWORD PTR $T539763[ebp]
  0000e	50		 push	 eax
  0000f	e8 00 00 00 00	 call	 ?erase@?$vector@VioHashString@@V?$allocator@VioHashString@@@std@@@std@@QAE?AV?$_Vector_iterator@V?$_Vector_val@VioHashString@@V?$allocator@VioHashString@@@std@@@std@@@2@V?$_Vector_const_iterator@V?$_Vector_val@VioHashString@@V?$allocator@VioHashString@@@std@@@std@@@2@0@Z ; std::vector<ioHashString,std::allocator<ioHashString> >::erase

; 1219 : 		}

  00014	c9		 leave
  00015	c3		 ret	 0
?clear@?$vector@VioHashString@@V?$allocator@VioHashString@@@std@@@std@@QAEXXZ ENDP ; std::vector<ioHashString,std::allocator<ioHashString> >::clear
_TEXT	ENDS
PUBLIC	?Clear@CharStateInfo@CharGameInfoListWnd@@QAEXXZ ; CharGameInfoListWnd::CharStateInfo::Clear
EXTRN	__imp_?Clear@ioHashString@@QAEXXZ:PROC
; Function compile flags: /Ogsp
; File d:\lost saga for developer\youtube\tutorial\source\src\lsclient\gui\debuginfownd.h
;	COMDAT ?Clear@CharStateInfo@CharGameInfoListWnd@@QAEXXZ
_TEXT	SEGMENT
$T539878 = -4						; size = 4
?Clear@CharStateInfo@CharGameInfoListWnd@@QAEXXZ PROC	; CharGameInfoListWnd::CharStateInfo::Clear, COMDAT
; _this$ = ecx

; 160  : 		{

  00000	55		 push	 ebp
  00001	8b ec		 mov	 ebp, esp
  00003	51		 push	 ecx
  00004	56		 push	 esi
  00005	57		 push	 edi
  00006	8b f1		 mov	 esi, ecx

; 161  : 			memset( iSlot, 0, sizeof( iSlot ) );

  00008	6a 09		 push	 9
  0000a	59		 pop	 ecx
  0000b	33 c0		 xor	 eax, eax
  0000d	8d 7e 10	 lea	 edi, DWORD PTR [esi+16]
  00010	f3 ab		 rep stosd

; 162  : 			BuffList.clear();

  00012	8d 4e 34	 lea	 ecx, DWORD PTR [esi+52]
  00015	8b 41 04	 mov	 eax, DWORD PTR [ecx+4]
  00018	8b 11		 mov	 edx, DWORD PTR [ecx]
  0001a	50		 push	 eax
  0001b	52		 push	 edx
  0001c	8d 45 fc	 lea	 eax, DWORD PTR $T539878[ebp]
  0001f	50		 push	 eax
  00020	e8 00 00 00 00	 call	 ?erase@?$vector@VioHashString@@V?$allocator@VioHashString@@@std@@@std@@QAE?AV?$_Vector_iterator@V?$_Vector_val@VioHashString@@V?$allocator@VioHashString@@@std@@@std@@@2@V?$_Vector_const_iterator@V?$_Vector_val@VioHashString@@V?$allocator@VioHashString@@@std@@@std@@@2@0@Z ; std::vector<ioHashString,std::allocator<ioHashString> >::erase

; 163  : 			szName.Clear();

  00025	8b ce		 mov	 ecx, esi
  00027	ff 15 00 00 00
	00		 call	 DWORD PTR __imp_?Clear@ioHashString@@QAEXXZ

; 164  : 
; 165  : 			fGravity	= 0.0f;

  0002d	0f 57 c0	 xorps	 xmm0, xmm0
  00030	5f		 pop	 edi
  00031	f3 0f 11 46 44	 movss	 DWORD PTR [esi+68], xmm0

; 166  : 			fForce		= 0.0f;

  00036	f3 0f 11 46 48	 movss	 DWORD PTR [esi+72], xmm0

; 167  : 			fMoveSpeed	= 0.0f;

  0003b	f3 0f 11 46 4c	 movss	 DWORD PTR [esi+76], xmm0

; 168  : 			fJumpPower	= 0.0f;

  00040	f3 0f 11 46 50	 movss	 DWORD PTR [esi+80], xmm0
  00045	5e		 pop	 esi

; 169  : 		}

  00046	c9		 leave
  00047	c3		 ret	 0
?Clear@CharStateInfo@CharGameInfoListWnd@@QAEXXZ ENDP	; CharGameInfoListWnd::CharStateInfo::Clear
_TEXT	ENDS
PUBLIC	??_7DeveloperInfoWnd@@6B@			; DeveloperInfoWnd::`vftable'
PUBLIC	??0DeveloperInfoWnd@@QAE@XZ			; DeveloperInfoWnd::DeveloperInfoWnd
PUBLIC	??_R4DeveloperInfoWnd@@6B@			; DeveloperInfoWnd::`RTTI Complete Object Locator'
PUBLIC	??_R0?AVDeveloperInfoWnd@@@8			; DeveloperInfoWnd `RTTI Type Descriptor'
PUBLIC	??_R3DeveloperInfoWnd@@8			; DeveloperInfoWnd::`RTTI Class Hierarchy Descriptor'
PUBLIC	??_R2DeveloperInfoWnd@@8			; DeveloperInfoWnd::`RTTI Base Class Array'
PUBLIC	??_R1A@?0A@EA@DeveloperInfoWnd@@8		; DeveloperInfoWnd::`RTTI Base Class Descriptor at (0,-1,0,64)'
EXTRN	??_EDeveloperInfoWnd@@UAEPAXI@Z:PROC		; DeveloperInfoWnd::`vector deleting destructor'
;	COMDAT ??_R1A@?0A@EA@DeveloperInfoWnd@@8
; File c:\program files (x86)\microsoft visual studio 10.0\vc\include\xmemory
rdata$r	SEGMENT
??_R1A@?0A@EA@DeveloperInfoWnd@@8 DD FLAT:??_R0?AVDeveloperInfoWnd@@@8 ; DeveloperInfoWnd::`RTTI Base Class Descriptor at (0,-1,0,64)'
	DD	01H
	DD	00H
	DD	0ffffffffH
	DD	00H
	DD	040H
	DD	FLAT:??_R3DeveloperInfoWnd@@8
rdata$r	ENDS
;	COMDAT ??_R2DeveloperInfoWnd@@8
rdata$r	SEGMENT
??_R2DeveloperInfoWnd@@8 DD FLAT:??_R1A@?0A@EA@DeveloperInfoWnd@@8 ; DeveloperInfoWnd::`RTTI Base Class Array'
	DD	FLAT:??_R1A@?0A@EA@ioWnd@@8
rdata$r	ENDS
;	COMDAT ??_R3DeveloperInfoWnd@@8
rdata$r	SEGMENT
??_R3DeveloperInfoWnd@@8 DD 00H				; DeveloperInfoWnd::`RTTI Class Hierarchy Descriptor'
	DD	00H
	DD	02H
	DD	FLAT:??_R2DeveloperInfoWnd@@8
rdata$r	ENDS
;	COMDAT ??_R0?AVDeveloperInfoWnd@@@8
_DATA	SEGMENT
??_R0?AVDeveloperInfoWnd@@@8 DD FLAT:??_7type_info@@6B@	; DeveloperInfoWnd `RTTI Type Descriptor'
	DD	00H
	DB	'.?AVDeveloperInfoWnd@@', 00H
_DATA	ENDS
;	COMDAT ??_R4DeveloperInfoWnd@@6B@
rdata$r	SEGMENT
??_R4DeveloperInfoWnd@@6B@ DD 00H			; DeveloperInfoWnd::`RTTI Complete Object Locator'
	DD	00H
	DD	00H
	DD	FLAT:??_R0?AVDeveloperInfoWnd@@@8
	DD	FLAT:??_R3DeveloperInfoWnd@@8
rdata$r	ENDS
;	COMDAT ??_7DeveloperInfoWnd@@6B@
CONST	SEGMENT
??_7DeveloperInfoWnd@@6B@ DD FLAT:??_R4DeveloperInfoWnd@@6B@ ; DeveloperInfoWnd::`vftable'
	DD	FLAT:?AddRenderFrame@ioWnd@@UAEXABVioHashString@@PAVioUIRenderFrame@@@Z
	DD	FLAT:?AddRenderImage@ioWnd@@UAEXABVioHashString@@PAVioUIRenderImage@@@Z
	DD	FLAT:?AddTooltipHelp@ioWnd@@UAEXABVioHashString@@00@Z
	DD	FLAT:?ParseExtraInfo@ioWnd@@UAEXAAVioXMLElement@@@Z
	DD	FLAT:?AddNamedRenderImage@ioWnd@@UAEXABVioHashString@@PAVioUIRenderImage@@@Z
	DD	FLAT:?RemoveNamedRenderImage@ioWnd@@UAEXABVioHashString@@@Z
	DD	FLAT:?GetNamedRenderImage@ioWnd@@UBEPAVioUIRenderImage@@ABVioHashString@@@Z
	DD	FLAT:?SetWindowAlpha@ioWnd@@UAEXH@Z
	DD	FLAT:?SetActive@ioWnd@@UAEXXZ
	DD	FLAT:?SetInActive@ioWnd@@UAEXXZ
	DD	FLAT:?ClearElementImageList@ioWnd@@UAEXXZ
	DD	FLAT:?SetSize@ioWnd@@UAEXHH@Z
	DD	FLAT:?SetPositionToDefault@ioWnd@@UAEXHH_N0@Z
	DD	FLAT:?IsNeedProcess@ioWnd@@UBE_NXZ
	DD	FLAT:?IsCanMouseReaction@ioWnd@@UBE_NXZ
	DD	FLAT:?AddChild@ioWnd@@UAEXPAV1@@Z
	DD	FLAT:?DeleteChild@ioWnd@@UAEXK@Z
	DD	FLAT:?DeleteAllChild@ioWnd@@UAEXXZ
	DD	FLAT:?OnRenderShowAndHide@ioWnd@@MAE_NXZ
	DD	FLAT:?OnRenderShowAndHideByDefault@ioWnd@@MAE_NK@Z
	DD	FLAT:?OnRenderShowAndHideByTop@ioWnd@@MAE_NK@Z
	DD	FLAT:?OnRenderShowAndHideByDown@ioWnd@@MAE_NK@Z
	DD	FLAT:?OnRender@DeveloperInfoWnd@@MAEXXZ
	DD	FLAT:?OnRenderAfterChild@ioWnd@@MAEXXZ
	DD	FLAT:?OnProcess@ioWnd@@MAEXM@Z
	DD	FLAT:?OnMouseProcess@ioWnd@@MAEXABVioMouse@@@Z
	DD	FLAT:?CheckFrameReSize@ioWnd@@MAEXHHHH@Z
	DD	FLAT:?RenderImageList@ioWnd@@MAEXHHW4UIRenderType@@@Z
	DD	FLAT:?iwm_create@ioWnd@@UAEXXZ
	DD	FLAT:?iwm_destroy@ioWnd@@UAEXXZ
	DD	FLAT:?iwm_lbuttondown@ioWnd@@UAEXABVioMouse@@@Z
	DD	FLAT:?iwm_lbuttonup@ioWnd@@UAEXABVioMouse@@@Z
	DD	FLAT:?iwm_lbuttonDBLCLK@ioWnd@@UAEXABVioMouse@@@Z
	DD	FLAT:?iwm_rbuttondown@ioWnd@@UAEXABVioMouse@@@Z
	DD	FLAT:?iwm_rbuttonup@ioWnd@@UAEXABVioMouse@@@Z
	DD	FLAT:?iwm_command@DeveloperInfoWnd@@UAEXPAVioWnd@@HK@Z
	DD	FLAT:?iwm_mouseover@ioWnd@@UAEXABVioMouse@@@Z
	DD	FLAT:?iwm_mousemove@ioWnd@@UAEXABVioMouse@@@Z
	DD	FLAT:?iwm_mouseleave@ioWnd@@UAEXABVioMouse@@@Z
	DD	FLAT:?iwm_vscroll@ioWnd@@UAEXKH@Z
	DD	FLAT:?iwm_wheel@ioWnd@@UAEXH@Z
	DD	FLAT:?iwm_show@ioWnd@@UAEXXZ
	DD	FLAT:?iwm_hide@ioWnd@@UAEXXZ
	DD	FLAT:?iwm_esc@ioWnd@@UAE_NXZ
	DD	FLAT:?iwm_spacebar@ioWnd@@UAE_NXZ
	DD	FLAT:?iwm_gototop@ioWnd@@UAEXXZ
	DD	FLAT:?iwm_dragenter@ioWnd@@UAE?AW4IWDropEffect@@PAVioDragItem@@ABVioMouse@@@Z
	DD	FLAT:?iwm_dragover@ioWnd@@UAE?AW4IWDropEffect@@PAVioDragItem@@ABVioMouse@@@Z
	DD	FLAT:?iwm_dragleave@ioWnd@@UAEXXZ
	DD	FLAT:?iwm_dropitem@ioWnd@@UAE_NPAVioDragItem@@ABVioMouse@@PAV1@@Z
	DD	FLAT:?iwm_dropdone@ioWnd@@UAEXPAVioDragItem@@PAV1@_N@Z
	DD	FLAT:?IsEXType@ioWnd@@UBE_NXZ
	DD	FLAT:?GetWndType@ioWnd@@UBEKXZ
	DD	FLAT:?RenderWnd@ioWnd@@UAEXXZ
	DD	FLAT:?SetIDEX@ioWnd@@UAEXAAK_N@Z
	DD	FLAT:?ParseXML@ioWnd@@UAEXAAVioXMLElement@@@Z
	DD	FLAT:?GetHeaderFileName@ioWnd@@UAEPBDXZ
	DD	FLAT:?GetTemplateName@ioWnd@@UAEPBDXZ
	DD	FLAT:?GetDefClassName@ioWnd@@UBEPBDXZ
	DD	FLAT:?_Clone@ioWnd@@UAEPAV1@XZ
	DD	FLAT:?Copy@ioWnd@@UAEXPAV1@@Z
	DD	FLAT:?Save@ioWnd@@UAE_NAAVioXMLElement@@@Z
	DD	FLAT:?SetSaveData@ioWnd@@UAEXAAVioXMLElement@@@Z
	DD	FLAT:?SetPosX@ioWnd@@UAEXH@Z
	DD	FLAT:?SetPosY@ioWnd@@UAEXH@Z
	DD	FLAT:?SetWidth@ioWnd@@UAEXH@Z
	DD	FLAT:?SetHeight@ioWnd@@UAEXH@Z
	DD	FLAT:?GetNumFixedRenderFrame@ioWnd@@UBEHXZ
	DD	FLAT:?GetFixedRenderFrameType@ioWnd@@UAEPBDH@Z
	DD	FLAT:?GetRenderFrame@ioWnd@@UAEPAPAVioUIRenderElement@@PBD@Z
	DD	FLAT:?GetNumFixedRenderImage@ioWnd@@UBEHXZ
	DD	FLAT:?GetFixedRenderImageType@ioWnd@@UAEPBDH@Z
	DD	FLAT:?GetRenderImage@ioWnd@@UAEPAPAVioUIRenderElement@@PBD@Z
	DD	FLAT:?AddEffect@ioWnd@@UAEXABVioHashString@@PAVioUI3DEffectRender@@@Z
	DD	FLAT:?GetEffect@ioWnd@@UAEPAVioUI3DEffectRender@@VioHashString@@@Z
	DD	FLAT:??_EDeveloperInfoWnd@@UAEPAXI@Z
; Function compile flags: /Ogsp
; File d:\lost saga for developer\youtube\tutorial\source\src\lsclient\gui\debuginfownd.cpp
CONST	ENDS
;	COMDAT ??0DeveloperInfoWnd@@QAE@XZ
_TEXT	SEGMENT
??0DeveloperInfoWnd@@QAE@XZ PROC			; DeveloperInfoWnd::DeveloperInfoWnd, COMDAT
; _this$ = ecx

; 24   : {

  00000	56		 push	 esi
  00001	8b f1		 mov	 esi, ecx
  00003	ff 15 00 00 00
	00		 call	 DWORD PTR __imp_??0ioWnd@@QAE@XZ
  00009	33 c9		 xor	 ecx, ecx
  0000b	c7 06 00 00 00
	00		 mov	 DWORD PTR [esi], OFFSET ??_7DeveloperInfoWnd@@6B@
  00011	89 8e 60 01 00
	00		 mov	 DWORD PTR [esi+352], ecx
  00017	89 8e 64 01 00
	00		 mov	 DWORD PTR [esi+356], ecx
  0001d	89 8e 68 01 00
	00		 mov	 DWORD PTR [esi+360], ecx

; 25   : 	m_iRoomAverageLevel     = 0;

  00023	89 8e 70 01 00
	00		 mov	 DWORD PTR [esi+368], ecx

; 26   : 	m_iRoomLowLevelLimit	= 0;

  00029	89 8e 74 01 00
	00		 mov	 DWORD PTR [esi+372], ecx

; 27   : 	m_iRoomHighLevelLimit	= 0;

  0002f	89 8e 78 01 00
	00		 mov	 DWORD PTR [esi+376], ecx

; 28   : }

  00035	8b c6		 mov	 eax, esi
  00037	5e		 pop	 esi
  00038	c3		 ret	 0
??0DeveloperInfoWnd@@QAE@XZ ENDP			; DeveloperInfoWnd::DeveloperInfoWnd
_TEXT	ENDS
PUBLIC	??1DeveloperInfoWnd@@UAE@XZ			; DeveloperInfoWnd::~DeveloperInfoWnd
;	COMDAT xdata$x
; File c:\program files (x86)\microsoft visual studio 10.0\vc\include\vector
xdata$x	SEGMENT
__unwindtable$??1DeveloperInfoWnd@@UAE@XZ DD 0ffffffffH
	DD	FLAT:__unwindfunclet$??1DeveloperInfoWnd@@UAE@XZ$0
	DD	00H
	DD	FLAT:__unwindfunclet$??1DeveloperInfoWnd@@UAE@XZ$1
__ehfuncinfo$??1DeveloperInfoWnd@@UAE@XZ DD 019930522H
	DD	02H
	DD	FLAT:__unwindtable$??1DeveloperInfoWnd@@UAE@XZ
	DD	2 DUP(00H)
	DD	2 DUP(00H)
	DD	00H
	DD	01H
; Function compile flags: /Ogsp
; File d:\lost saga for developer\youtube\tutorial\source\src\lsclient\gui\debuginfownd.cpp
xdata$x	ENDS
;	COMDAT ??1DeveloperInfoWnd@@UAE@XZ
_TEXT	SEGMENT
$T539991 = -20						; size = 4
_this$ = -16						; size = 4
__$EHRec$ = -12						; size = 12
??1DeveloperInfoWnd@@UAE@XZ PROC			; DeveloperInfoWnd::~DeveloperInfoWnd, COMDAT
; _this$ = ecx

; 31   : {

  00000	6a 08		 push	 8
  00002	b8 00 00 00 00	 mov	 eax, __ehhandler$??1DeveloperInfoWnd@@UAE@XZ
  00007	e8 00 00 00 00	 call	 __EH_prolog3
  0000c	8b f9		 mov	 edi, ecx
  0000e	89 7d f0	 mov	 DWORD PTR _this$[ebp], edi
  00011	c7 07 00 00 00
	00		 mov	 DWORD PTR [edi], OFFSET ??_7DeveloperInfoWnd@@6B@

; 32   : 	m_vUserInfo.clear();

  00017	8b 87 64 01 00
	00		 mov	 eax, DWORD PTR [edi+356]
  0001d	8b 8f 60 01 00
	00		 mov	 ecx, DWORD PTR [edi+352]
  00023	50		 push	 eax
  00024	51		 push	 ecx
  00025	8d 45 ec	 lea	 eax, DWORD PTR $T539991[ebp]
  00028	50		 push	 eax
  00029	8d 8f 60 01 00
	00		 lea	 ecx, DWORD PTR [edi+352]
  0002f	c7 45 fc 01 00
	00 00		 mov	 DWORD PTR __$EHRec$[ebp+8], 1
  00036	e8 00 00 00 00	 call	 ?erase@?$vector@UUserInfo@DeveloperInfoWnd@@V?$allocator@UUserInfo@DeveloperInfoWnd@@@std@@@std@@QAE?AV?$_Vector_iterator@V?$_Vector_val@UUserInfo@DeveloperInfoWnd@@V?$allocator@UUserInfo@DeveloperInfoWnd@@@std@@@std@@@2@V?$_Vector_const_iterator@V?$_Vector_val@UUserInfo@DeveloperInfoWnd@@V?$allocator@UUserInfo@DeveloperInfoWnd@@@std@@@std@@@2@0@Z ; std::vector<DeveloperInfoWnd::UserInfo,std::allocator<DeveloperInfoWnd::UserInfo> >::erase

; 33   : }

  0003b	8d 8f 60 01 00
	00		 lea	 ecx, DWORD PTR [edi+352]
  00041	c6 45 fc 00	 mov	 BYTE PTR __$EHRec$[ebp+8], 0
  00045	e8 00 00 00 00	 call	 ?_Tidy@?$vector@UUserInfo@DeveloperInfoWnd@@V?$allocator@UUserInfo@DeveloperInfoWnd@@@std@@@std@@IAEXXZ ; std::vector<DeveloperInfoWnd::UserInfo,std::allocator<DeveloperInfoWnd::UserInfo> >::_Tidy
  0004a	83 4d fc ff	 or	 DWORD PTR __$EHRec$[ebp+8], -1
  0004e	8b cf		 mov	 ecx, edi
  00050	ff 15 00 00 00
	00		 call	 DWORD PTR __imp_??1ioWnd@@UAE@XZ
  00056	e8 00 00 00 00	 call	 __EH_epilog3
  0005b	c3		 ret	 0
_TEXT	ENDS
;	COMDAT text$x
text$x	SEGMENT
__unwindfunclet$??1DeveloperInfoWnd@@UAE@XZ$0:
  00000	8b 4d f0	 mov	 ecx, DWORD PTR _this$[ebp]
  00003	ff 25 00 00 00
	00		 jmp	 DWORD PTR __imp_??1ioWnd@@UAE@XZ
__unwindfunclet$??1DeveloperInfoWnd@@UAE@XZ$1:
  00009	8b 4d f0	 mov	 ecx, DWORD PTR _this$[ebp]
  0000c	81 c1 60 01 00
	00		 add	 ecx, 352		; 00000160H
  00012	e9 00 00 00 00	 jmp	 ??1?$vector@UUserInfo@DeveloperInfoWnd@@V?$allocator@UUserInfo@DeveloperInfoWnd@@@std@@@std@@QAE@XZ ; std::vector<DeveloperInfoWnd::UserInfo,std::allocator<DeveloperInfoWnd::UserInfo> >::~vector<DeveloperInfoWnd::UserInfo,std::allocator<DeveloperInfoWnd::UserInfo> >
__ehhandler$??1DeveloperInfoWnd@@UAE@XZ:
  00017	8b 54 24 08	 mov	 edx, DWORD PTR [esp+8]
  0001b	8d 42 0c	 lea	 eax, DWORD PTR [edx+12]
  0001e	8b 4a e8	 mov	 ecx, DWORD PTR [edx-24]
  00021	33 c8		 xor	 ecx, eax
  00023	e8 00 00 00 00	 call	 @__security_check_cookie@4
  00028	b8 00 00 00 00	 mov	 eax, OFFSET __ehfuncinfo$??1DeveloperInfoWnd@@UAE@XZ
  0002d	e9 00 00 00 00	 jmp	 ___CxxFrameHandler3
text$x	ENDS
??1DeveloperInfoWnd@@UAE@XZ ENDP			; DeveloperInfoWnd::~DeveloperInfoWnd
PUBLIC	??1CharStateInfo@CharGameInfoListWnd@@QAE@XZ	; CharGameInfoListWnd::CharStateInfo::~CharStateInfo
;	COMDAT xdata$x
xdata$x	SEGMENT
__unwindtable$??1CharStateInfo@CharGameInfoListWnd@@QAE@XZ DD 0ffffffffH
	DD	FLAT:__unwindfunclet$??1CharStateInfo@CharGameInfoListWnd@@QAE@XZ$0
__ehfuncinfo$??1CharStateInfo@CharGameInfoListWnd@@QAE@XZ DD 019930522H
	DD	01H
	DD	FLAT:__unwindtable$??1CharStateInfo@CharGameInfoListWnd@@QAE@XZ
	DD	2 DUP(00H)
	DD	2 DUP(00H)
	DD	00H
	DD	01H
; Function compile flags: /Ogsp
xdata$x	ENDS
;	COMDAT ??1CharStateInfo@CharGameInfoListWnd@@QAE@XZ
_TEXT	SEGMENT
_this$ = -16						; size = 4
__$EHRec$ = -12						; size = 12
??1CharStateInfo@CharGameInfoListWnd@@QAE@XZ PROC	; CharGameInfoListWnd::CharStateInfo::~CharStateInfo, COMDAT
; _this$ = ecx
  00000	6a 04		 push	 4
  00002	b8 00 00 00 00	 mov	 eax, __ehhandler$??1CharStateInfo@CharGameInfoListWnd@@QAE@XZ
  00007	e8 00 00 00 00	 call	 __EH_prolog3
  0000c	8b f1		 mov	 esi, ecx
  0000e	89 75 f0	 mov	 DWORD PTR _this$[ebp], esi
  00011	83 65 fc 00	 and	 DWORD PTR __$EHRec$[ebp+8], 0
  00015	8d 4e 34	 lea	 ecx, DWORD PTR [esi+52]
  00018	e8 00 00 00 00	 call	 ?_Tidy@?$vector@VioHashString@@V?$allocator@VioHashString@@@std@@@std@@IAEXXZ ; std::vector<ioHashString,std::allocator<ioHashString> >::_Tidy
  0001d	83 4d fc ff	 or	 DWORD PTR __$EHRec$[ebp+8], -1
  00021	8b ce		 mov	 ecx, esi
  00023	ff 15 00 00 00
	00		 call	 DWORD PTR __imp_??1ioHashString@@QAE@XZ
  00029	e8 00 00 00 00	 call	 __EH_epilog3
  0002e	c3		 ret	 0
_TEXT	ENDS
;	COMDAT text$x
text$x	SEGMENT
__unwindfunclet$??1CharStateInfo@CharGameInfoListWnd@@QAE@XZ$0:
  00000	8b 4d f0	 mov	 ecx, DWORD PTR _this$[ebp]
  00003	ff 25 00 00 00
	00		 jmp	 DWORD PTR __imp_??1ioHashString@@QAE@XZ
__ehhandler$??1CharStateInfo@CharGameInfoListWnd@@QAE@XZ:
  00009	8b 54 24 08	 mov	 edx, DWORD PTR [esp+8]
  0000d	8d 42 0c	 lea	 eax, DWORD PTR [edx+12]
  00010	8b 4a ec	 mov	 ecx, DWORD PTR [edx-20]
  00013	33 c8		 xor	 ecx, eax
  00015	e8 00 00 00 00	 call	 @__security_check_cookie@4
  0001a	b8 00 00 00 00	 mov	 eax, OFFSET __ehfuncinfo$??1CharStateInfo@CharGameInfoListWnd@@QAE@XZ
  0001f	e9 00 00 00 00	 jmp	 ___CxxFrameHandler3
text$x	ENDS
??1CharStateInfo@CharGameInfoListWnd@@QAE@XZ ENDP	; CharGameInfoListWnd::CharStateInfo::~CharStateInfo
PUBLIC	??_7CharGameInfoListWnd@@6B@			; CharGameInfoListWnd::`vftable'
PUBLIC	??1CharGameInfoListWnd@@UAE@XZ			; CharGameInfoListWnd::~CharGameInfoListWnd
PUBLIC	??_R4CharGameInfoListWnd@@6B@			; CharGameInfoListWnd::`RTTI Complete Object Locator'
PUBLIC	??_R0?AVCharGameInfoListWnd@@@8			; CharGameInfoListWnd `RTTI Type Descriptor'
PUBLIC	??_R3CharGameInfoListWnd@@8			; CharGameInfoListWnd::`RTTI Class Hierarchy Descriptor'
PUBLIC	??_R2CharGameInfoListWnd@@8			; CharGameInfoListWnd::`RTTI Base Class Array'
PUBLIC	??_R1A@?0A@EA@CharGameInfoListWnd@@8		; CharGameInfoListWnd::`RTTI Base Class Descriptor at (0,-1,0,64)'
PUBLIC	?OnProcess@CharGameInfoListWnd@@MAEXM@Z		; CharGameInfoListWnd::OnProcess
EXTRN	??_ECharGameInfoListWnd@@UAEPAXI@Z:PROC		; CharGameInfoListWnd::`vector deleting destructor'
;	COMDAT ??_R1A@?0A@EA@CharGameInfoListWnd@@8
rdata$r	SEGMENT
??_R1A@?0A@EA@CharGameInfoListWnd@@8 DD FLAT:??_R0?AVCharGameInfoListWnd@@@8 ; CharGameInfoListWnd::`RTTI Base Class Descriptor at (0,-1,0,64)'
	DD	01H
	DD	00H
	DD	0ffffffffH
	DD	00H
	DD	040H
	DD	FLAT:??_R3CharGameInfoListWnd@@8
rdata$r	ENDS
;	COMDAT ??_R2CharGameInfoListWnd@@8
rdata$r	SEGMENT
??_R2CharGameInfoListWnd@@8 DD FLAT:??_R1A@?0A@EA@CharGameInfoListWnd@@8 ; CharGameInfoListWnd::`RTTI Base Class Array'
	DD	FLAT:??_R1A@?0A@EA@ioWnd@@8
rdata$r	ENDS
;	COMDAT ??_R3CharGameInfoListWnd@@8
rdata$r	SEGMENT
??_R3CharGameInfoListWnd@@8 DD 00H			; CharGameInfoListWnd::`RTTI Class Hierarchy Descriptor'
	DD	00H
	DD	02H
	DD	FLAT:??_R2CharGameInfoListWnd@@8
rdata$r	ENDS
;	COMDAT ??_R0?AVCharGameInfoListWnd@@@8
_DATA	SEGMENT
??_R0?AVCharGameInfoListWnd@@@8 DD FLAT:??_7type_info@@6B@ ; CharGameInfoListWnd `RTTI Type Descriptor'
	DD	00H
	DB	'.?AVCharGameInfoListWnd@@', 00H
_DATA	ENDS
;	COMDAT ??_R4CharGameInfoListWnd@@6B@
rdata$r	SEGMENT
??_R4CharGameInfoListWnd@@6B@ DD 00H			; CharGameInfoListWnd::`RTTI Complete Object Locator'
	DD	00H
	DD	00H
	DD	FLAT:??_R0?AVCharGameInfoListWnd@@@8
	DD	FLAT:??_R3CharGameInfoListWnd@@8
rdata$r	ENDS
;	COMDAT ??_7CharGameInfoListWnd@@6B@
CONST	SEGMENT
??_7CharGameInfoListWnd@@6B@ DD FLAT:??_R4CharGameInfoListWnd@@6B@ ; CharGameInfoListWnd::`vftable'
	DD	FLAT:?AddRenderFrame@ioWnd@@UAEXABVioHashString@@PAVioUIRenderFrame@@@Z
	DD	FLAT:?AddRenderImage@ioWnd@@UAEXABVioHashString@@PAVioUIRenderImage@@@Z
	DD	FLAT:?AddTooltipHelp@ioWnd@@UAEXABVioHashString@@00@Z
	DD	FLAT:?ParseExtraInfo@ioWnd@@UAEXAAVioXMLElement@@@Z
	DD	FLAT:?AddNamedRenderImage@ioWnd@@UAEXABVioHashString@@PAVioUIRenderImage@@@Z
	DD	FLAT:?RemoveNamedRenderImage@ioWnd@@UAEXABVioHashString@@@Z
	DD	FLAT:?GetNamedRenderImage@ioWnd@@UBEPAVioUIRenderImage@@ABVioHashString@@@Z
	DD	FLAT:?SetWindowAlpha@ioWnd@@UAEXH@Z
	DD	FLAT:?SetActive@ioWnd@@UAEXXZ
	DD	FLAT:?SetInActive@ioWnd@@UAEXXZ
	DD	FLAT:?ClearElementImageList@ioWnd@@UAEXXZ
	DD	FLAT:?SetSize@ioWnd@@UAEXHH@Z
	DD	FLAT:?SetPositionToDefault@ioWnd@@UAEXHH_N0@Z
	DD	FLAT:?IsNeedProcess@ioWnd@@UBE_NXZ
	DD	FLAT:?IsCanMouseReaction@ioWnd@@UBE_NXZ
	DD	FLAT:?AddChild@ioWnd@@UAEXPAV1@@Z
	DD	FLAT:?DeleteChild@ioWnd@@UAEXK@Z
	DD	FLAT:?DeleteAllChild@ioWnd@@UAEXXZ
	DD	FLAT:?OnRenderShowAndHide@ioWnd@@MAE_NXZ
	DD	FLAT:?OnRenderShowAndHideByDefault@ioWnd@@MAE_NK@Z
	DD	FLAT:?OnRenderShowAndHideByTop@ioWnd@@MAE_NK@Z
	DD	FLAT:?OnRenderShowAndHideByDown@ioWnd@@MAE_NK@Z
	DD	FLAT:?OnRender@CharGameInfoListWnd@@MAEXXZ
	DD	FLAT:?OnRenderAfterChild@ioWnd@@MAEXXZ
	DD	FLAT:?OnProcess@CharGameInfoListWnd@@MAEXM@Z
	DD	FLAT:?OnMouseProcess@ioWnd@@MAEXABVioMouse@@@Z
	DD	FLAT:?CheckFrameReSize@ioWnd@@MAEXHHHH@Z
	DD	FLAT:?RenderImageList@ioWnd@@MAEXHHW4UIRenderType@@@Z
	DD	FLAT:?iwm_create@ioWnd@@UAEXXZ
	DD	FLAT:?iwm_destroy@ioWnd@@UAEXXZ
	DD	FLAT:?iwm_lbuttondown@ioWnd@@UAEXABVioMouse@@@Z
	DD	FLAT:?iwm_lbuttonup@ioWnd@@UAEXABVioMouse@@@Z
	DD	FLAT:?iwm_lbuttonDBLCLK@ioWnd@@UAEXABVioMouse@@@Z
	DD	FLAT:?iwm_rbuttondown@ioWnd@@UAEXABVioMouse@@@Z
	DD	FLAT:?iwm_rbuttonup@ioWnd@@UAEXABVioMouse@@@Z
	DD	FLAT:?iwm_command@CharGameInfoListWnd@@UAEXPAVioWnd@@HK@Z
	DD	FLAT:?iwm_mouseover@ioWnd@@UAEXABVioMouse@@@Z
	DD	FLAT:?iwm_mousemove@ioWnd@@UAEXABVioMouse@@@Z
	DD	FLAT:?iwm_mouseleave@ioWnd@@UAEXABVioMouse@@@Z
	DD	FLAT:?iwm_vscroll@ioWnd@@UAEXKH@Z
	DD	FLAT:?iwm_wheel@ioWnd@@UAEXH@Z
	DD	FLAT:?iwm_show@CharGameInfoListWnd@@UAEXXZ
	DD	FLAT:?iwm_hide@CharGameInfoListWnd@@UAEXXZ
	DD	FLAT:?iwm_esc@ioWnd@@UAE_NXZ
	DD	FLAT:?iwm_spacebar@ioWnd@@UAE_NXZ
	DD	FLAT:?iwm_gototop@ioWnd@@UAEXXZ
	DD	FLAT:?iwm_dragenter@ioWnd@@UAE?AW4IWDropEffect@@PAVioDragItem@@ABVioMouse@@@Z
	DD	FLAT:?iwm_dragover@ioWnd@@UAE?AW4IWDropEffect@@PAVioDragItem@@ABVioMouse@@@Z
	DD	FLAT:?iwm_dragleave@ioWnd@@UAEXXZ
	DD	FLAT:?iwm_dropitem@ioWnd@@UAE_NPAVioDragItem@@ABVioMouse@@PAV1@@Z
	DD	FLAT:?iwm_dropdone@ioWnd@@UAEXPAVioDragItem@@PAV1@_N@Z
	DD	FLAT:?IsEXType@ioWnd@@UBE_NXZ
	DD	FLAT:?GetWndType@ioWnd@@UBEKXZ
	DD	FLAT:?RenderWnd@ioWnd@@UAEXXZ
	DD	FLAT:?SetIDEX@ioWnd@@UAEXAAK_N@Z
	DD	FLAT:?ParseXML@ioWnd@@UAEXAAVioXMLElement@@@Z
	DD	FLAT:?GetHeaderFileName@ioWnd@@UAEPBDXZ
	DD	FLAT:?GetTemplateName@ioWnd@@UAEPBDXZ
	DD	FLAT:?GetDefClassName@ioWnd@@UBEPBDXZ
	DD	FLAT:?_Clone@ioWnd@@UAEPAV1@XZ
	DD	FLAT:?Copy@ioWnd@@UAEXPAV1@@Z
	DD	FLAT:?Save@ioWnd@@UAE_NAAVioXMLElement@@@Z
	DD	FLAT:?SetSaveData@ioWnd@@UAEXAAVioXMLElement@@@Z
	DD	FLAT:?SetPosX@ioWnd@@UAEXH@Z
	DD	FLAT:?SetPosY@ioWnd@@UAEXH@Z
	DD	FLAT:?SetWidth@ioWnd@@UAEXH@Z
	DD	FLAT:?SetHeight@ioWnd@@UAEXH@Z
	DD	FLAT:?GetNumFixedRenderFrame@ioWnd@@UBEHXZ
	DD	FLAT:?GetFixedRenderFrameType@ioWnd@@UAEPBDH@Z
	DD	FLAT:?GetRenderFrame@ioWnd@@UAEPAPAVioUIRenderElement@@PBD@Z
	DD	FLAT:?GetNumFixedRenderImage@ioWnd@@UBEHXZ
	DD	FLAT:?GetFixedRenderImageType@ioWnd@@UAEPBDH@Z
	DD	FLAT:?GetRenderImage@ioWnd@@UAEPAPAVioUIRenderElement@@PBD@Z
	DD	FLAT:?AddEffect@ioWnd@@UAEXABVioHashString@@PAVioUI3DEffectRender@@@Z
	DD	FLAT:?GetEffect@ioWnd@@UAEPAVioUI3DEffectRender@@VioHashString@@@Z
	DD	FLAT:??_ECharGameInfoListWnd@@UAEPAXI@Z
CONST	ENDS
;	COMDAT xdata$x
xdata$x	SEGMENT
__unwindtable$??1CharGameInfoListWnd@@UAE@XZ DD 0ffffffffH
	DD	FLAT:__unwindfunclet$??1CharGameInfoListWnd@@UAE@XZ$0
__ehfuncinfo$??1CharGameInfoListWnd@@UAE@XZ DD 019930522H
	DD	01H
	DD	FLAT:__unwindtable$??1CharGameInfoListWnd@@UAE@XZ
	DD	2 DUP(00H)
	DD	2 DUP(00H)
	DD	00H
	DD	01H
; Function compile flags: /Ogsp
xdata$x	ENDS
;	COMDAT ??1CharGameInfoListWnd@@UAE@XZ
_TEXT	SEGMENT
_this$ = -16						; size = 4
__$EHRec$ = -12						; size = 12
??1CharGameInfoListWnd@@UAE@XZ PROC			; CharGameInfoListWnd::~CharGameInfoListWnd, COMDAT
; _this$ = ecx

; 243  : {

  00000	6a 04		 push	 4
  00002	b8 00 00 00 00	 mov	 eax, __ehhandler$??1CharGameInfoListWnd@@UAE@XZ
  00007	e8 00 00 00 00	 call	 __EH_prolog3
  0000c	8b f1		 mov	 esi, ecx
  0000e	89 75 f0	 mov	 DWORD PTR _this$[ebp], esi
  00011	c7 06 00 00 00
	00		 mov	 DWORD PTR [esi], OFFSET ??_7CharGameInfoListWnd@@6B@
  00017	83 65 fc 00	 and	 DWORD PTR __$EHRec$[ebp+8], 0

; 244  : }

  0001b	8d 8e 60 01 00
	00		 lea	 ecx, DWORD PTR [esi+352]
  00021	e8 00 00 00 00	 call	 ??1CharStateInfo@CharGameInfoListWnd@@QAE@XZ
  00026	83 4d fc ff	 or	 DWORD PTR __$EHRec$[ebp+8], -1
  0002a	8b ce		 mov	 ecx, esi
  0002c	ff 15 00 00 00
	00		 call	 DWORD PTR __imp_??1ioWnd@@UAE@XZ
  00032	e8 00 00 00 00	 call	 __EH_epilog3
  00037	c3		 ret	 0
_TEXT	ENDS
;	COMDAT text$x
text$x	SEGMENT
__unwindfunclet$??1CharGameInfoListWnd@@UAE@XZ$0:
  00000	8b 4d f0	 mov	 ecx, DWORD PTR _this$[ebp]
  00003	ff 25 00 00 00
	00		 jmp	 DWORD PTR __imp_??1ioWnd@@UAE@XZ
__ehhandler$??1CharGameInfoListWnd@@UAE@XZ:
  00009	8b 54 24 08	 mov	 edx, DWORD PTR [esp+8]
  0000d	8d 42 0c	 lea	 eax, DWORD PTR [edx+12]
  00010	8b 4a ec	 mov	 ecx, DWORD PTR [edx-20]
  00013	33 c8		 xor	 ecx, eax
  00015	e8 00 00 00 00	 call	 @__security_check_cookie@4
  0001a	b8 00 00 00 00	 mov	 eax, OFFSET __ehfuncinfo$??1CharGameInfoListWnd@@UAE@XZ
  0001f	e9 00 00 00 00	 jmp	 ___CxxFrameHandler3
text$x	ENDS
??1CharGameInfoListWnd@@UAE@XZ ENDP			; CharGameInfoListWnd::~CharGameInfoListWnd
EXTRN	?GetAllBuff@ioBaseChar@@QAEXAAV?$vector@VioHashString@@V?$allocator@VioHashString@@@std@@@std@@@Z:PROC ; ioBaseChar::GetAllBuff
EXTRN	?GetCurSpeed@ioBaseChar@@QAEMXZ:PROC		; ioBaseChar::GetCurSpeed
; Function compile flags: /Ogsp
;	COMDAT ?OnProcess@CharGameInfoListWnd@@MAEXM@Z
_TEXT	SEGMENT
$T540146 = -4						; size = 4
_value$540077 = -4					; size = 4
_value$540066 = -4					; size = 4
_fTimePerSec$ = 8					; size = 4
?OnProcess@CharGameInfoListWnd@@MAEXM@Z PROC		; CharGameInfoListWnd::OnProcess, COMDAT
; _this$ = ecx

; 366  : {

  00000	55		 push	 ebp
  00001	8b ec		 mov	 ebp, esp
  00003	51		 push	 ecx
  00004	56		 push	 esi
  00005	8b f1		 mov	 esi, ecx

; 367  : 	if( !IsShow() )

  00007	ff 15 00 00 00
	00		 call	 DWORD PTR __imp_?IsShow@ioWnd@@QBE_NXZ
  0000d	84 c0		 test	 al, al
  0000f	0f 84 95 00 00
	00		 je	 $LN1@OnProcess@2

; 368  : 		return;
; 369  : 
; 370  : 	ioPlayStage* pStage = g_GUIMgr.GetPlayStage();

  00015	e8 00 00 00 00	 call	 ?GetSingleton@ioSP2GUIManager@@SAAAV1@XZ ; ioSP2GUIManager::GetSingleton
  0001a	8b 88 e8 04 00
	00		 mov	 ecx, DWORD PTR [eax+1256]

; 371  : 	if( pStage )

  00020	85 c9		 test	 ecx, ecx
  00022	0f 84 82 00 00
	00		 je	 $LN1@OnProcess@2

; 372  : 	{
; 373  : 		ioBaseChar* pChar = pStage->GetBaseChar( m_CharStateInfo.szName );

  00028	57		 push	 edi
  00029	8d 86 60 01 00
	00		 lea	 eax, DWORD PTR [esi+352]
  0002f	50		 push	 eax
  00030	e8 00 00 00 00	 call	 ?GetBaseChar@ioPlayStage@@QAEPAVioBaseChar@@ABVioHashString@@@Z ; ioPlayStage::GetBaseChar
  00035	8b f8		 mov	 edi, eax

; 374  : 		if( pChar )

  00037	85 ff		 test	 edi, edi
  00039	74 6e		 je	 SHORT $LN36@OnProcess@2

; 375  : 		{
; 376  : 			m_CharStateInfo.fGravity	= pChar->GetGravityAmt();	

  0003b	8d 45 fc	 lea	 eax, DWORD PTR _value$540066[ebp]
  0003e	50		 push	 eax
  0003f	8d 8f e8 0b 00
	00		 lea	 ecx, DWORD PTR [edi+3048]
  00045	e8 00 00 00 00	 call	 ?DecryptValueToPool@?$CEncrypt@M@@QAEXPAM@Z ; CEncrypt<float>::DecryptValueToPool
  0004a	f3 0f 10 45 fc	 movss	 xmm0, DWORD PTR _value$540066[ebp]

; 377  : 			m_CharStateInfo.fForce		= pChar-> GetForceAmt();

  0004f	8d 45 fc	 lea	 eax, DWORD PTR _value$540077[ebp]
  00052	50		 push	 eax
  00053	8d 8f 88 0b 00
	00		 lea	 ecx, DWORD PTR [edi+2952]
  00059	f3 0f 11 86 a4
	01 00 00	 movss	 DWORD PTR [esi+420], xmm0
  00061	e8 00 00 00 00	 call	 ?DecryptValueToPool@?$CEncrypt@M@@QAEXPAM@Z ; CEncrypt<float>::DecryptValueToPool
  00066	f3 0f 10 45 fc	 movss	 xmm0, DWORD PTR _value$540077[ebp]

; 378  : 			m_CharStateInfo.fMoveSpeed	= pChar->GetCurSpeed();

  0006b	8b cf		 mov	 ecx, edi
  0006d	f3 0f 11 86 a8
	01 00 00	 movss	 DWORD PTR [esi+424], xmm0
  00075	e8 00 00 00 00	 call	 ?GetCurSpeed@ioBaseChar@@QAEMXZ ; ioBaseChar::GetCurSpeed
  0007a	d9 9e ac 01 00
	00		 fstp	 DWORD PTR [esi+428]

; 379  : 			m_CharStateInfo.fJumpPower	= pChar->GetCurJumpPowerAmt();

  00080	d9 87 90 0e 00
	00		 fld	 DWORD PTR [edi+3728]

; 380  : 
; 381  : 			m_CharStateInfo.BuffList.clear();

  00086	81 c6 94 01 00
	00		 add	 esi, 404		; 00000194H
  0008c	d9 5e 1c	 fstp	 DWORD PTR [esi+28]
  0008f	8b 46 04	 mov	 eax, DWORD PTR [esi+4]
  00092	8b 0e		 mov	 ecx, DWORD PTR [esi]
  00094	50		 push	 eax
  00095	51		 push	 ecx
  00096	8d 45 fc	 lea	 eax, DWORD PTR $T540146[ebp]
  00099	50		 push	 eax
  0009a	8b ce		 mov	 ecx, esi
  0009c	e8 00 00 00 00	 call	 ?erase@?$vector@VioHashString@@V?$allocator@VioHashString@@@std@@@std@@QAE?AV?$_Vector_iterator@V?$_Vector_val@VioHashString@@V?$allocator@VioHashString@@@std@@@std@@@2@V?$_Vector_const_iterator@V?$_Vector_val@VioHashString@@V?$allocator@VioHashString@@@std@@@std@@@2@0@Z ; std::vector<ioHashString,std::allocator<ioHashString> >::erase

; 382  : 			pChar->GetAllBuff( m_CharStateInfo.BuffList );

  000a1	56		 push	 esi
  000a2	8b cf		 mov	 ecx, edi
  000a4	e8 00 00 00 00	 call	 ?GetAllBuff@ioBaseChar@@QAEXAAV?$vector@VioHashString@@V?$allocator@VioHashString@@@std@@@std@@@Z ; ioBaseChar::GetAllBuff
$LN36@OnProcess@2:
  000a9	5f		 pop	 edi
$LN1@OnProcess@2:
  000aa	5e		 pop	 esi

; 383  : 		}
; 384  : 	}
; 385  : }

  000ab	c9		 leave
  000ac	c2 04 00	 ret	 4
?OnProcess@CharGameInfoListWnd@@MAEXM@Z ENDP		; CharGameInfoListWnd::OnProcess
_TEXT	ENDS
PUBLIC	__$ArrayPad$
PUBLIC	?SetStateInfoChar@CharGameInfoListWnd@@QAEXPAVioBaseChar@@@Z ; CharGameInfoListWnd::SetStateInfoChar
EXTRN	?GetEquipedItem@ioEquipSlot@@QAEPAVioItem@@H@Z:PROC ; ioEquipSlot::GetEquipedItem
EXTRN	_memset:PROC
; Function compile flags: /Ogsp
;	COMDAT ?SetStateInfoChar@CharGameInfoListWnd@@QAEXPAVioBaseChar@@@Z
_TEXT	SEGMENT
_pSlot$ = -284						; size = 4
_pEdit$534821 = -280					; size = 4
_iCurrItemCode$534817 = -276				; size = 4
___encStr$534827 = -272					; size = 3
_szBuf$ = -264						; size = 260
__$ArrayPad$ = -4					; size = 4
_pChar$ = 8						; size = 4
?SetStateInfoChar@CharGameInfoListWnd@@QAEXPAVioBaseChar@@@Z PROC ; CharGameInfoListWnd::SetStateInfoChar, COMDAT
; _this$ = ecx

; 502  : {

  00000	55		 push	 ebp
  00001	8b ec		 mov	 ebp, esp
  00003	81 ec 1c 01 00
	00		 sub	 esp, 284		; 0000011cH
  00009	a1 00 00 00 00	 mov	 eax, DWORD PTR ___security_cookie
  0000e	33 c5		 xor	 eax, ebp
  00010	89 45 fc	 mov	 DWORD PTR __$ArrayPad$[ebp], eax
  00013	56		 push	 esi
  00014	8b 75 08	 mov	 esi, DWORD PTR _pChar$[ebp]
  00017	57		 push	 edi
  00018	8b f9		 mov	 edi, ecx

; 503  : 	if( !pChar ) 

  0001a	85 f6		 test	 esi, esi
  0001c	0f 84 33 01 00
	00		 je	 $LN102@SetStateIn

; 504  : 		return;
; 505  : 
; 506  : 	ioEquipSlot* pSlot = pChar->GetEquipSlot();

  00022	8b 86 48 03 00
	00		 mov	 eax, DWORD PTR [esi+840]
  00028	89 85 e4 fe ff
	ff		 mov	 DWORD PTR _pSlot$[ebp], eax

; 507  : 	if( !pSlot )

  0002e	85 c0		 test	 eax, eax
  00030	0f 84 1f 01 00
	00		 je	 $LN102@SetStateIn

; 508  : 		return;
; 509  : 
; 510  : 	DisableEditFocus();

  00036	53		 push	 ebx
  00037	e8 00 00 00 00	 call	 ?DisableEditFocus@CharGameInfoListWnd@@QAEXXZ ; CharGameInfoListWnd::DisableEditFocus

; 511  : 	SetTitleText( pChar->GetCharName().c_str() );

  0003c	6a 00		 push	 0
  0003e	81 c6 d4 02 00
	00		 add	 esi, 724		; 000002d4H
  00044	68 00 00 00 00	 push	 OFFSET ??_C@_00CNPNBAHC@?$AA@
  00049	8b ce		 mov	 ecx, esi
  0004b	ff 15 00 00 00
	00		 call	 DWORD PTR __imp_?c_str@ioHashString@@QBEPBDXZ
  00051	50		 push	 eax
  00052	8b cf		 mov	 ecx, edi
  00054	ff 15 00 00 00
	00		 call	 DWORD PTR __imp_?SetTitleText@ioWnd@@QAEXPBD0H@Z

; 512  : 
; 513  : 	m_CharStateInfo.Clear();

  0005a	8d 8f 60 01 00
	00		 lea	 ecx, DWORD PTR [edi+352]
  00060	e8 00 00 00 00	 call	 ?Clear@CharStateInfo@CharGameInfoListWnd@@QAEXXZ ; CharGameInfoListWnd::CharStateInfo::Clear

; 514  : 	const CHARACTER& rkChar = pChar->GetCharacterInfo();
; 515  : 
; 516  : 	m_CharStateInfo.szName = pChar->GetCharName();

  00065	56		 push	 esi
  00066	8d 8f 60 01 00
	00		 lea	 ecx, DWORD PTR [edi+352]
  0006c	ff 15 00 00 00
	00		 call	 DWORD PTR __imp_??4ioHashString@@QAEAAV0@ABV0@@Z

; 517  : 
; 518  : 	char szBuf[MAX_PATH] ="";

  00072	68 03 01 00 00	 push	 259			; 00000103H
  00077	33 f6		 xor	 esi, esi
  00079	8d 85 f9 fe ff
	ff		 lea	 eax, DWORD PTR _szBuf$[ebp+1]
  0007f	56		 push	 esi
  00080	50		 push	 eax
  00081	c6 85 f8 fe ff
	ff 00		 mov	 BYTE PTR _szBuf$[ebp], 0
  00088	e8 00 00 00 00	 call	 _memset
  0008d	83 c4 0c	 add	 esp, 12			; 0000000cH
  00090	8d 9f 70 01 00
	00		 lea	 ebx, DWORD PTR [edi+368]
$LL104@SetStateIn:

; 520  : 	{
; 521  : 		int iCurrItemCode = 0;
; 522  : 		ioItem* pItem = pSlot->GetEquipedItem( i );

  00096	8b 8d e4 fe ff
	ff		 mov	 ecx, DWORD PTR _pSlot$[ebp]
  0009c	83 a5 ec fe ff
	ff 00		 and	 DWORD PTR _iCurrItemCode$534817[ebp], 0
  000a3	56		 push	 esi
  000a4	e8 00 00 00 00	 call	 ?GetEquipedItem@ioEquipSlot@@QAEPAVioItem@@H@Z ; ioEquipSlot::GetEquipedItem

; 523  : 		if( pItem )

  000a9	85 c0		 test	 eax, eax
  000ab	74 0b		 je	 SHORT $LN101@SetStateIn

; 524  : 		{
; 525  : 			iCurrItemCode = m_CharStateInfo.iSlot[i] = (int)pItem->GetItemCode();

  000ad	8b 40 38	 mov	 eax, DWORD PTR [eax+56]
  000b0	89 03		 mov	 DWORD PTR [ebx], eax
  000b2	89 85 ec fe ff
	ff		 mov	 DWORD PTR _iCurrItemCode$534817[ebp], eax
$LN101@SetStateIn:

; 526  : 		}
; 527  : 
; 528  : 		ioEdit* pEdit = dynamic_cast<ioEdit*>( FindChildWnd( i + ID_WEAPON_EDIT ) );

  000b8	6a 00		 push	 0
  000ba	68 00 00 00 00	 push	 OFFSET ??_R0?AVioEdit@@@8
  000bf	68 00 00 00 00	 push	 OFFSET ??_R0?AVioWnd@@@8
  000c4	6a 00		 push	 0
  000c6	8d 46 65	 lea	 eax, DWORD PTR [esi+101]
  000c9	50		 push	 eax
  000ca	8b cf		 mov	 ecx, edi
  000cc	ff 15 00 00 00
	00		 call	 DWORD PTR __imp_?FindChildWnd@ioWnd@@QAEPAV1@K@Z
  000d2	50		 push	 eax
  000d3	e8 00 00 00 00	 call	 ___RTDynamicCast
  000d8	83 c4 14	 add	 esp, 20			; 00000014H
  000db	89 85 e8 fe ff
	ff		 mov	 DWORD PTR _pEdit$534821[ebp], eax

; 529  : 		if( pEdit )

  000e1	85 c0		 test	 eax, eax
  000e3	74 62		 je	 SHORT $LN103@SetStateIn

; 530  : 		{
; 531  : 			wsprintf_e( szBuf, "%d", iCurrItemCode );

  000e5	66 c7 85 f0 fe
	ff ff c8 88	 mov	 WORD PTR ___encStr$534827[ebp], 35016 ; 000088c8H
  000ee	c6 85 f2 fe ff
	ff 00		 mov	 BYTE PTR ___encStr$534827[ebp+2], 0
  000f5	33 c0		 xor	 eax, eax
$LL121@SetStateIn:
  000f7	8b c8		 mov	 ecx, eax
  000f9	81 e1 03 00 00
	80		 and	 ecx, -2147483645	; 80000003H
  000ff	79 05		 jns	 SHORT $LN133@SetStateIn
  00101	49		 dec	 ecx
  00102	83 c9 fc	 or	 ecx, -4			; fffffffcH
  00105	41		 inc	 ecx
$LN133@SetStateIn:
  00106	b2 ed		 mov	 dl, -19			; ffffffedH
  00108	2a d1		 sub	 dl, cl
  0010a	30 94 05 f0 fe
	ff ff		 xor	 BYTE PTR ___encStr$534827[ebp+eax], dl
  00111	40		 inc	 eax
  00112	83 f8 02	 cmp	 eax, 2
  00115	7c e0		 jl	 SHORT $LL121@SetStateIn
  00117	ff b5 ec fe ff
	ff		 push	 DWORD PTR _iCurrItemCode$534817[ebp]
  0011d	8d 85 f0 fe ff
	ff		 lea	 eax, DWORD PTR ___encStr$534827[ebp]
  00123	50		 push	 eax
  00124	8d 85 f8 fe ff
	ff		 lea	 eax, DWORD PTR _szBuf$[ebp]
  0012a	50		 push	 eax
  0012b	ff 15 00 00 00
	00		 call	 DWORD PTR __imp__wsprintfA

; 532  : 			pEdit->SetText( szBuf );

  00131	8b 8d e8 fe ff
	ff		 mov	 ecx, DWORD PTR _pEdit$534821[ebp]
  00137	83 c4 0c	 add	 esp, 12			; 0000000cH
  0013a	8d 85 f8 fe ff
	ff		 lea	 eax, DWORD PTR _szBuf$[ebp]
  00140	50		 push	 eax
  00141	ff 15 00 00 00
	00		 call	 DWORD PTR __imp_?SetText@ioEdit@@QAEXPBD@Z
$LN103@SetStateIn:

; 519  : 	for( int i = 0; i < MAX_EQUIP_SLOT; ++i )

  00147	46		 inc	 esi
  00148	83 c3 04	 add	 ebx, 4
  0014b	83 fe 09	 cmp	 esi, 9
  0014e	0f 8c 42 ff ff
	ff		 jl	 $LL104@SetStateIn
  00154	5b		 pop	 ebx
$LN102@SetStateIn:

; 533  : 		}
; 534  : 	}	
; 535  : }

  00155	8b 4d fc	 mov	 ecx, DWORD PTR __$ArrayPad$[ebp]
  00158	5f		 pop	 edi
  00159	33 cd		 xor	 ecx, ebp
  0015b	5e		 pop	 esi
  0015c	e8 00 00 00 00	 call	 @__security_check_cookie@4
  00161	c9		 leave
  00162	c2 04 00	 ret	 4
?SetStateInfoChar@CharGameInfoListWnd@@QAEXPAVioBaseChar@@@Z ENDP ; CharGameInfoListWnd::SetStateInfoChar
_TEXT	ENDS
PUBLIC	??_C@_0BO@FMEDMPFK@SingleSettingWnd?3?3iwm_command?$AA@ ; `string'
EXTRN	__imp_?HideWnd@ioGUIManager@@QAEXK_N@Z:PROC
EXTRN	__imp_?SetWndPos@ioWnd@@QAEXHH@Z:PROC
EXTRN	__imp_?GetWidth@ioWnd@@QBEHXZ:PROC
EXTRN	?GetBaseChar@ioPlayStage@@QAEPAVioBaseChar@@K@Z:PROC ; ioPlayStage::GetBaseChar
EXTRN	__imp_?SetTimerPause@ioFrameTimer@@QAEX_N@Z:PROC
EXTRN	__imp_?GetSingleton@ioFrameTimer@@SAAAV1@XZ:PROC
EXTRN	?Reload@ioApplication@@QAEXXZ:PROC		; ioApplication::Reload
;	COMDAT ??_C@_0BO@FMEDMPFK@SingleSettingWnd?3?3iwm_command?$AA@
; File d:\lost saga for developer\youtube\tutorial\source\src\lsclient\setting.h
CONST	SEGMENT
??_C@_0BO@FMEDMPFK@SingleSettingWnd?3?3iwm_command?$AA@ DB 'SingleSetting'
	DB	'Wnd::iwm_command', 00H			; `string'
; Function compile flags: /Ogsp
; File d:\lost saga for developer\youtube\tutorial\source\src\lsclient\gui\debuginfownd.cpp
CONST	ENDS
;	COMDAT ?iwm_command@SingleSettingWnd@@UAEXPAVioWnd@@HK@Z
_TEXT	SEGMENT
_pWnd$ = 8						; size = 4
_pChar$535391 = 12					; size = 4
_cmd$ = 12						; size = 4
_param$ = 16						; size = 4
?iwm_command@SingleSettingWnd@@UAEXPAVioWnd@@HK@Z PROC	; SingleSettingWnd::iwm_command, COMDAT
; _this$ = ecx

; 1078 : {

  00000	55		 push	 ebp
  00001	8b ec		 mov	 ebp, esp
  00003	53		 push	 ebx

; 1079 : 	DWORD dwID = pWnd->GetID();

  00004	8b 5d 08	 mov	 ebx, DWORD PTR _pWnd$[ebp]
  00007	57		 push	 edi
  00008	8b f9		 mov	 edi, ecx
  0000a	8b cb		 mov	 ecx, ebx
  0000c	ff 15 00 00 00
	00		 call	 DWORD PTR __imp_?GetID@ioWnd@@QBEKXZ

; 1080 : 	switch( dwID )

  00012	48		 dec	 eax
  00013	83 f8 0c	 cmp	 eax, 12			; 0000000cH
  00016	0f 87 49 04 00
	00		 ja	 $LN98@iwm_comman@5
  0001c	56		 push	 esi
  0001d	33 f6		 xor	 esi, esi
  0001f	ff 24 85 00 00
	00 00		 jmp	 DWORD PTR $LN106@iwm_comman@5[eax*4]
$LN65@iwm_comman@5:

; 1081 : 	{
; 1082 : 	case ID_EXIT:
; 1083 : 		if( cmd == IOBN_BTNUP )

  00026	83 7d 0c 11	 cmp	 DWORD PTR _cmd$[ebp], 17 ; 00000011H
  0002a	0f 85 34 04 00
	00		 jne	 $LN103@iwm_comman@5

; 1084 : 		{
; 1085 : 			m_bAutoShow = false;
; 1086 : 			HideWnd();

  00030	8b cf		 mov	 ecx, edi
  00032	c6 05 00 00 00
	00 00		 mov	 BYTE PTR ?m_bAutoShow@SingleSettingWnd@@1_NA, 0 ; SingleSettingWnd::m_bAutoShow
  00039	ff 15 00 00 00
	00		 call	 DWORD PTR __imp_?HideWnd@ioWnd@@QAEXXZ

; 1087 : 		}
; 1088 : 		break;

  0003f	e9 20 04 00 00	 jmp	 $LN103@iwm_comman@5
$LN63@iwm_comman@5:

; 1089 : 	case ID_BOUND:
; 1090 : 		if( cmd == IOBN_BTNUP )

  00044	83 7d 0c 11	 cmp	 DWORD PTR _cmd$[ebp], 17 ; 00000011H
  00048	0f 85 16 04 00
	00		 jne	 $LN103@iwm_comman@5

; 1091 : 		{
; 1092 : 			ioCheckButton* pCheck = dynamic_cast<ioCheckButton*>( pWnd );

  0004e	33 f6		 xor	 esi, esi
  00050	56		 push	 esi
  00051	68 00 00 00 00	 push	 OFFSET ??_R0?AVioCheckButton@@@8
  00056	68 00 00 00 00	 push	 OFFSET ??_R0?AVioWnd@@@8
  0005b	56		 push	 esi
  0005c	53		 push	 ebx
  0005d	e8 00 00 00 00	 call	 ___RTDynamicCast
  00062	83 c4 14	 add	 esp, 20			; 00000014H

; 1093 : 			if( pCheck )

  00065	3b c6		 cmp	 eax, esi
  00067	0f 84 f7 03 00
	00		 je	 $LN103@iwm_comman@5

; 1094 : 			{	
; 1095 : 				Setting::SetShowBoundBox( pCheck->IsChecked() );

  0006d	8b c8		 mov	 ecx, eax
  0006f	ff 15 00 00 00
	00		 call	 DWORD PTR __imp_?IsChecked@ioCheckButton@@QBE_NXZ
  00075	a2 6e 00 00 00	 mov	 BYTE PTR ?m_Option@Setting@@1USettingOption@@A+110, al

; 1096 : 			}
; 1097 : 		}
; 1098 : 		break;

  0007a	e9 e5 03 00 00	 jmp	 $LN103@iwm_comman@5
$LN60@iwm_comman@5:

; 1099 : 	case ID_EXTRA:
; 1100 : 		if( cmd == IOBN_BTNUP )

  0007f	83 7d 0c 11	 cmp	 DWORD PTR _cmd$[ebp], 17 ; 00000011H
  00083	0f 85 db 03 00
	00		 jne	 $LN103@iwm_comman@5

; 1101 : 		{
; 1102 : 			ioCheckButton* pCheck = dynamic_cast<ioCheckButton*>( pWnd );

  00089	33 f6		 xor	 esi, esi
  0008b	56		 push	 esi
  0008c	68 00 00 00 00	 push	 OFFSET ??_R0?AVioCheckButton@@@8
  00091	68 00 00 00 00	 push	 OFFSET ??_R0?AVioWnd@@@8
  00096	56		 push	 esi
  00097	53		 push	 ebx
  00098	e8 00 00 00 00	 call	 ___RTDynamicCast
  0009d	83 c4 14	 add	 esp, 20			; 00000014H

; 1103 : 			if( pCheck )

  000a0	3b c6		 cmp	 eax, esi
  000a2	0f 84 bc 03 00
	00		 je	 $LN103@iwm_comman@5

; 1104 : 			{	
; 1105 : 				Setting::SetShowExtraInfo( pCheck->IsChecked() );

  000a8	8b c8		 mov	 ecx, eax
  000aa	ff 15 00 00 00
	00		 call	 DWORD PTR __imp_?IsChecked@ioCheckButton@@QBE_NXZ
  000b0	a2 70 00 00 00	 mov	 BYTE PTR ?m_Option@Setting@@1USettingOption@@A+112, al

; 1106 : 			}
; 1107 : 		}
; 1108 : 		break;

  000b5	e9 aa 03 00 00	 jmp	 $LN103@iwm_comman@5
$LN57@iwm_comman@5:

; 1109 : 	case ID_MEMORY:
; 1110 : 		if( cmd == IOBN_BTNUP )

  000ba	83 7d 0c 11	 cmp	 DWORD PTR _cmd$[ebp], 17 ; 00000011H
  000be	0f 85 a0 03 00
	00		 jne	 $LN103@iwm_comman@5

; 1111 : 		{
; 1112 : 			ioCheckButton* pCheck = dynamic_cast<ioCheckButton*>( pWnd );

  000c4	33 f6		 xor	 esi, esi
  000c6	56		 push	 esi
  000c7	68 00 00 00 00	 push	 OFFSET ??_R0?AVioCheckButton@@@8
  000cc	68 00 00 00 00	 push	 OFFSET ??_R0?AVioWnd@@@8
  000d1	56		 push	 esi
  000d2	53		 push	 ebx
  000d3	e8 00 00 00 00	 call	 ___RTDynamicCast
  000d8	83 c4 14	 add	 esp, 20			; 00000014H

; 1113 : 			if( pCheck )

  000db	3b c6		 cmp	 eax, esi
  000dd	0f 84 81 03 00
	00		 je	 $LN103@iwm_comman@5

; 1114 : 			{	
; 1115 : 				Setting::SetShowMemoryUsage( pCheck->IsChecked() );

  000e3	8b c8		 mov	 ecx, eax
  000e5	ff 15 00 00 00
	00		 call	 DWORD PTR __imp_?IsChecked@ioCheckButton@@QBE_NXZ
  000eb	a2 71 00 00 00	 mov	 BYTE PTR ?m_Option@Setting@@1USettingOption@@A+113, al

; 1116 : 			}
; 1117 : 		}
; 1118 : 		break;

  000f0	e9 6f 03 00 00	 jmp	 $LN103@iwm_comman@5
$LN54@iwm_comman@5:

; 1119 : 	case ID_MODE:
; 1120 : 		if( cmd == IOBN_BTNUP )

  000f5	83 7d 0c 11	 cmp	 DWORD PTR _cmd$[ebp], 17 ; 00000011H
  000f9	75 0d		 jne	 SHORT $LN53@iwm_comman@5

; 1121 : 		{
; 1122 : 			OpenModekList( pWnd );

  000fb	53		 push	 ebx
  000fc	8b cf		 mov	 ecx, edi
  000fe	e8 00 00 00 00	 call	 ?OpenModekList@SingleSettingWnd@@IAEXPAVioWnd@@@Z ; SingleSettingWnd::OpenModekList
  00103	e9 5c 03 00 00	 jmp	 $LN103@iwm_comman@5
$LN53@iwm_comman@5:

; 1123 : 		}
; 1124 : 		else if( cmd == ID_MODE_LIST )

  00108	81 7d 0c e9 03
	00 00		 cmp	 DWORD PTR _cmd$[ebp], 1001 ; 000003e9H
  0010f	75 17		 jne	 SHORT $LN51@iwm_comman@5

; 1125 : 		{
; 1126 : 			UpdateMode( (int)param );

  00111	ff 75 10	 push	 DWORD PTR _param$[ebp]
  00114	8b cf		 mov	 ecx, edi
  00116	e8 00 00 00 00	 call	 ?UpdateMode@SingleSettingWnd@@IAEXH@Z ; SingleSettingWnd::UpdateMode

; 1127 : 			UpdateModeSub( 0 );

  0011b	33 f6		 xor	 esi, esi
  0011d	56		 push	 esi
  0011e	8b cf		 mov	 ecx, edi
  00120	e8 00 00 00 00	 call	 ?UpdateModeSub@SingleSettingWnd@@IAEXH@Z ; SingleSettingWnd::UpdateModeSub

; 1128 : 			UpdateMapIdx( 0 );

  00125	56		 push	 esi
  00126	eb 71		 jmp	 SHORT $LN105@iwm_comman@5
$LN51@iwm_comman@5:

; 1129 : 		}
; 1130 : 		else if( cmd == IOEX_BTNDOWN )

  00128	83 7d 0c 15	 cmp	 DWORD PTR _cmd$[ebp], 21 ; 00000015H
  0012c	0f 85 32 03 00
	00		 jne	 $LN103@iwm_comman@5

; 1131 : 		{
; 1132 : 			g_GUIMgr.SetMsgBox( MB_OK, NULL, STR(1) );

  00132	33 f6		 xor	 esi, esi
  00134	56		 push	 esi
  00135	6a 01		 push	 1

; 1133 : 		}
; 1134 : 		break;

  00137	e9 cf 02 00 00	 jmp	 $LN104@iwm_comman@5
$LN48@iwm_comman@5:

; 1135 : 	case ID_MODE_SUB:
; 1136 : 		if( cmd == IOBN_BTNUP )

  0013c	83 7d 0c 11	 cmp	 DWORD PTR _cmd$[ebp], 17 ; 00000011H
  00140	75 0d		 jne	 SHORT $LN47@iwm_comman@5

; 1137 : 		{
; 1138 : 			OpenModeSubList( pWnd );

  00142	53		 push	 ebx
  00143	8b cf		 mov	 ecx, edi
  00145	e8 00 00 00 00	 call	 ?OpenModeSubList@SingleSettingWnd@@IAEXPAVioWnd@@@Z ; SingleSettingWnd::OpenModeSubList
  0014a	e9 15 03 00 00	 jmp	 $LN103@iwm_comman@5
$LN47@iwm_comman@5:

; 1139 : 		}
; 1140 : 		else if( cmd == ID_MODE_SUB_LIST )

  0014f	81 7d 0c ea 03
	00 00		 cmp	 DWORD PTR _cmd$[ebp], 1002 ; 000003eaH
  00156	75 0e		 jne	 SHORT $LN45@iwm_comman@5

; 1141 : 		{	
; 1142 : 			UpdateModeSub( (int)param );

  00158	ff 75 10	 push	 DWORD PTR _param$[ebp]
  0015b	8b cf		 mov	 ecx, edi
  0015d	e8 00 00 00 00	 call	 ?UpdateModeSub@SingleSettingWnd@@IAEXH@Z ; SingleSettingWnd::UpdateModeSub

; 1143 : 			UpdateMapIdx( 0 );

  00162	6a 00		 push	 0
  00164	eb 33		 jmp	 SHORT $LN105@iwm_comman@5
$LN45@iwm_comman@5:

; 1144 : 		}
; 1145 : 		else if( cmd == IOEX_BTNDOWN )

  00166	83 7d 0c 15	 cmp	 DWORD PTR _cmd$[ebp], 21 ; 00000015H
  0016a	0f 85 f4 02 00
	00		 jne	 $LN103@iwm_comman@5

; 1146 : 		{
; 1147 : 			g_GUIMgr.SetMsgBox( MB_OK, NULL, STR(2) );

  00170	33 f6		 xor	 esi, esi
  00172	56		 push	 esi
  00173	6a 02		 push	 2

; 1148 : 		}
; 1149 : 		break;

  00175	e9 91 02 00 00	 jmp	 $LN104@iwm_comman@5
$LN42@iwm_comman@5:

; 1150 : 	case ID_MAP:
; 1151 : 		if( cmd == IOBN_BTNUP )

  0017a	83 7d 0c 11	 cmp	 DWORD PTR _cmd$[ebp], 17 ; 00000011H
  0017e	75 0d		 jne	 SHORT $LN41@iwm_comman@5

; 1152 : 		{
; 1153 : 			OpenMapIdxList( pWnd );

  00180	53		 push	 ebx
  00181	8b cf		 mov	 ecx, edi
  00183	e8 00 00 00 00	 call	 ?OpenMapIdxList@SingleSettingWnd@@IAEXPAVioWnd@@@Z ; SingleSettingWnd::OpenMapIdxList
  00188	e9 d7 02 00 00	 jmp	 $LN103@iwm_comman@5
$LN41@iwm_comman@5:

; 1154 : 		}
; 1155 : 		else if( cmd == ID_MAP_LIST )

  0018d	81 7d 0c eb 03
	00 00		 cmp	 DWORD PTR _cmd$[ebp], 1003 ; 000003ebH
  00194	75 0f		 jne	 SHORT $LN39@iwm_comman@5

; 1156 : 		{	
; 1157 : 			UpdateMapIdx( (int)param );

  00196	ff 75 10	 push	 DWORD PTR _param$[ebp]
$LN105@iwm_comman@5:
  00199	8b cf		 mov	 ecx, edi
  0019b	e8 00 00 00 00	 call	 ?UpdateMapIdx@SingleSettingWnd@@IAEXH@Z ; SingleSettingWnd::UpdateMapIdx
  001a0	e9 bf 02 00 00	 jmp	 $LN103@iwm_comman@5
$LN39@iwm_comman@5:

; 1158 : 		}
; 1159 : 		else if( cmd == IOEX_BTNDOWN )

  001a5	83 7d 0c 15	 cmp	 DWORD PTR _cmd$[ebp], 21 ; 00000015H
  001a9	0f 85 b5 02 00
	00		 jne	 $LN103@iwm_comman@5

; 1160 : 		{
; 1161 : 			g_GUIMgr.SetMsgBox( MB_OK, NULL, STR(3) );

  001af	33 f6		 xor	 esi, esi
  001b1	56		 push	 esi
  001b2	6a 03		 push	 3

; 1162 : 		}
; 1163 : 		break;

  001b4	e9 52 02 00 00	 jmp	 $LN104@iwm_comman@5
$LN36@iwm_comman@5:

; 1164 : 	case ID_MODE_APPLY:
; 1165 : 		if( cmd == IOBN_BTNUP )

  001b9	83 7d 0c 11	 cmp	 DWORD PTR _cmd$[ebp], 17 ; 00000011H
  001bd	75 5d		 jne	 SHORT $LN35@iwm_comman@5

; 1166 : 		{
; 1167 : 			if( m_CurrModeType == MT_NONE )

  001bf	8b 87 60 01 00
	00		 mov	 eax, DWORD PTR [edi+352]
  001c5	33 f6		 xor	 esi, esi
  001c7	3b c6		 cmp	 eax, esi
  001c9	75 08		 jne	 SHORT $LN34@iwm_comman@5

; 1168 : 			{
; 1169 : 				g_GUIMgr.SetMsgBox( MB_OK, NULL, STR(4) );

  001cb	56		 push	 esi
  001cc	6a 04		 push	 4

; 1170 : 				return;

  001ce	e9 38 02 00 00	 jmp	 $LN104@iwm_comman@5
$LN34@iwm_comman@5:

; 1171 : 			}
; 1172 : 			else if( m_CurrModeSub == 0 )

  001d3	39 b7 64 01 00
	00		 cmp	 DWORD PTR [edi+356], esi
  001d9	75 08		 jne	 SHORT $LN32@iwm_comman@5

; 1173 : 			{
; 1174 : 				g_GUIMgr.SetMsgBox( MB_OK, NULL, STR(5) );

  001db	56		 push	 esi
  001dc	6a 05		 push	 5

; 1175 : 				return;

  001de	e9 28 02 00 00	 jmp	 $LN104@iwm_comman@5
$LN32@iwm_comman@5:

; 1176 : 			}
; 1177 : 			else if( m_CurrModeMapIndex == 0 )

  001e3	39 b7 68 01 00
	00		 cmp	 DWORD PTR [edi+360], esi
  001e9	75 08		 jne	 SHORT $LN30@iwm_comman@5

; 1178 : 			{
; 1179 : 				g_GUIMgr.SetMsgBox( MB_OK, NULL, STR(6) );

  001eb	56		 push	 esi
  001ec	6a 06		 push	 6

; 1180 : 				return;

  001ee	e9 18 02 00 00	 jmp	 $LN104@iwm_comman@5
$LN30@iwm_comman@5:

; 1181 : 			}
; 1182 : 
; 1183 : 			Setting::SetReservedMode( m_CurrModeType );

  001f3	a3 00 00 00 00	 mov	 DWORD PTR ?m_iReservedMode@Setting@@1HA, eax ; Setting::m_iReservedMode

; 1184 : 			Setting::SetModeSub( m_CurrModeSub );

  001f8	8b 87 64 01 00
	00		 mov	 eax, DWORD PTR [edi+356]
  001fe	a3 74 00 00 00	 mov	 DWORD PTR ?m_Option@Setting@@1USettingOption@@A+116, eax

; 1185 : 			Setting::SetModeMap( m_CurrModeMapIndex );

  00203	8b 87 68 01 00
	00		 mov	 eax, DWORD PTR [edi+360]
  00209	a3 78 00 00 00	 mov	 DWORD PTR ?m_Option@Setting@@1USettingOption@@A+120, eax

; 1186 : 			g_App.Reload();

  0020e	e8 00 00 00 00	 call	 ?GetSingleton@ioApplication@@SAAAV1@XZ ; ioApplication::GetSingleton
  00213	8b c8		 mov	 ecx, eax
  00215	e8 00 00 00 00	 call	 ?Reload@ioApplication@@QAEXXZ ; ioApplication::Reload
  0021a	eb 3c		 jmp	 SHORT $LN100@iwm_comman@5
$LN35@iwm_comman@5:

; 1187 : 		}
; 1188 : 		else if( cmd == IOEX_BTNDOWN )

  0021c	83 7d 0c 15	 cmp	 DWORD PTR _cmd$[ebp], 21 ; 00000015H
  00220	75 2c		 jne	 SHORT $LN102@iwm_comman@5

; 1189 : 		{
; 1190 : 			g_GUIMgr.SetMsgBox( MB_OK, NULL, STR(7) );

  00222	56		 push	 esi
  00223	6a 07		 push	 7
  00225	68 00 00 00 00	 push	 OFFSET ??_C@_00CNPNBAHC@?$AA@
  0022a	68 00 00 00 00	 push	 OFFSET ??_C@_0BO@FMEDMPFK@SingleSettingWnd?3?3iwm_command?$AA@
  0022f	ff 15 00 00 00
	00		 call	 DWORD PTR __imp_?GetSingleton@ioStringManager@@SAAAV1@XZ
  00235	8b c8		 mov	 ecx, eax
  00237	ff 15 00 00 00
	00		 call	 DWORD PTR __imp_?GetString@ioStringManager@@QAEPADPBD0HW4FileNamePrefix@1@@Z
  0023d	50		 push	 eax
  0023e	56		 push	 esi
  0023f	56		 push	 esi
  00240	e8 00 00 00 00	 call	 ?GetSingleton@ioSP2GUIManager@@SAAAV1@XZ ; ioSP2GUIManager::GetSingleton
  00245	50		 push	 eax
  00246	e8 00 00 00 00	 call	 ?SetMsgBox@ioSP2GUIManager@@QAAXHPAVioWnd@@PBDZZ ; ioSP2GUIManager::SetMsgBox
  0024b	83 c4 10	 add	 esp, 16			; 00000010H
$LN102@iwm_comman@5:

; 1191 : 		}
; 1192 : 	case ID_SPHERE:
; 1193 : 		if( cmd == IOBN_BTNUP )

  0024e	83 7d 0c 11	 cmp	 DWORD PTR _cmd$[ebp], 17 ; 00000011H
  00252	0f 85 0c 02 00
	00		 jne	 $LN103@iwm_comman@5
$LN100@iwm_comman@5:

; 1194 : 		{
; 1195 : 			ioCheckButton* pCheck = dynamic_cast<ioCheckButton*>( pWnd );

  00258	56		 push	 esi
  00259	68 00 00 00 00	 push	 OFFSET ??_R0?AVioCheckButton@@@8
  0025e	68 00 00 00 00	 push	 OFFSET ??_R0?AVioWnd@@@8
  00263	56		 push	 esi
  00264	53		 push	 ebx
  00265	e8 00 00 00 00	 call	 ___RTDynamicCast
  0026a	83 c4 14	 add	 esp, 20			; 00000014H

; 1196 : 			if( pCheck )

  0026d	3b c6		 cmp	 eax, esi
  0026f	0f 84 ef 01 00
	00		 je	 $LN103@iwm_comman@5

; 1197 : 			{	
; 1198 : 				Setting::SetShowBoundSphere( pCheck->IsChecked() );

  00275	8b c8		 mov	 ecx, eax
  00277	ff 15 00 00 00
	00		 call	 DWORD PTR __imp_?IsChecked@ioCheckButton@@QBE_NXZ
  0027d	a2 6f 00 00 00	 mov	 BYTE PTR ?m_Option@Setting@@1USettingOption@@A+111, al

; 1199 : 			}
; 1200 : 		}
; 1201 : 		break;

  00282	e9 dd 01 00 00	 jmp	 $LN103@iwm_comman@5
$LN24@iwm_comman@5:

; 1202 : 	case ID_PAUSE:
; 1203 : 		if( cmd == IOBN_BTNUP )

  00287	83 7d 0c 11	 cmp	 DWORD PTR _cmd$[ebp], 17 ; 00000011H
  0028b	75 2d		 jne	 SHORT $LN23@iwm_comman@5

; 1204 : 		{
; 1205 : 			SetPause( !IsPause() );

  0028d	80 3d 00 00 00
	00 00		 cmp	 BYTE PTR ?m_bPause@SingleSettingWnd@@1_NA, 0 ; SingleSettingWnd::m_bPause
  00294	0f 94 c0	 sete	 al
  00297	a2 00 00 00 00	 mov	 BYTE PTR ?m_bPause@SingleSettingWnd@@1_NA, al ; SingleSettingWnd::m_bPause

; 1206 : 			g_FrameTimer.SetTimerPause( IsPause() );

  0029c	0f b6 c0	 movzx	 eax, al
  0029f	50		 push	 eax
  002a0	ff 15 00 00 00
	00		 call	 DWORD PTR __imp_?GetSingleton@ioFrameTimer@@SAAAV1@XZ
  002a6	8b c8		 mov	 ecx, eax
  002a8	ff 15 00 00 00
	00		 call	 DWORD PTR __imp_?SetTimerPause@ioFrameTimer@@QAEX_N@Z

; 1207 : 			UpdatePauseButton();

  002ae	8b cf		 mov	 ecx, edi
  002b0	e8 00 00 00 00	 call	 ?UpdatePauseButton@SingleSettingWnd@@IAEXXZ ; SingleSettingWnd::UpdatePauseButton
  002b5	e9 aa 01 00 00	 jmp	 $LN103@iwm_comman@5
$LN23@iwm_comman@5:

; 1208 : 		}
; 1209 : 		else if( cmd == IOEX_BTNDOWN )

  002ba	83 7d 0c 15	 cmp	 DWORD PTR _cmd$[ebp], 21 ; 00000015H
  002be	0f 85 a0 01 00
	00		 jne	 $LN103@iwm_comman@5

; 1210 : 		{
; 1211 : 			g_GUIMgr.SetMsgBox( MB_OK, NULL, STR(8) );

  002c4	33 f6		 xor	 esi, esi
  002c6	56		 push	 esi
  002c7	6a 08		 push	 8

; 1212 : 		}
; 1213 : 		break;

  002c9	e9 3d 01 00 00	 jmp	 $LN104@iwm_comman@5
$LN20@iwm_comman@5:

; 1214 : 	case ID_CHARACTER:
; 1215 : 		if( cmd == IOBN_BTNUP )

  002ce	83 7d 0c 11	 cmp	 DWORD PTR _cmd$[ebp], 17 ; 00000011H
  002d2	75 0d		 jne	 SHORT $LN19@iwm_comman@5

; 1216 : 		{
; 1217 : 			OpenCharacterList( pWnd );

  002d4	53		 push	 ebx
  002d5	8b cf		 mov	 ecx, edi
  002d7	e8 00 00 00 00	 call	 ?OpenCharacterList@SingleSettingWnd@@IAEXPAVioWnd@@@Z ; SingleSettingWnd::OpenCharacterList
  002dc	e9 83 01 00 00	 jmp	 $LN103@iwm_comman@5
$LN19@iwm_comman@5:

; 1218 : 		}
; 1219 : 		else if( cmd == ID_CHARACTER_LIST )

  002e1	81 7d 0c ec 03
	00 00		 cmp	 DWORD PTR _cmd$[ebp], 1004 ; 000003ecH
  002e8	0f 85 b9 00 00
	00		 jne	 $LN17@iwm_comman@5

; 1220 : 		{			
; 1221 : 			ioPlayStage* pStage = g_GUIMgr.GetPlayStage();

  002ee	e8 00 00 00 00	 call	 ?GetSingleton@ioSP2GUIManager@@SAAAV1@XZ ; ioSP2GUIManager::GetSingleton
  002f3	8b 88 e8 04 00
	00		 mov	 ecx, DWORD PTR [eax+1256]

; 1222 : 			if( pStage )

  002f9	33 f6		 xor	 esi, esi
  002fb	3b ce		 cmp	 ecx, esi
  002fd	0f 84 8c 00 00
	00		 je	 $LN15@iwm_comman@5

; 1223 : 			{
; 1224 : 				ioBaseChar* pChar = pStage->GetBaseChar( (DWORD)param );

  00303	ff 75 10	 push	 DWORD PTR _param$[ebp]
  00306	e8 00 00 00 00	 call	 ?GetBaseChar@ioPlayStage@@QAEPAVioBaseChar@@K@Z ; ioPlayStage::GetBaseChar
  0030b	89 45 0c	 mov	 DWORD PTR _pChar$535391[ebp], eax

; 1225 : 				if( pChar )

  0030e	3b c6		 cmp	 eax, esi
  00310	74 7d		 je	 SHORT $LN15@iwm_comman@5

; 1226 : 				{
; 1227 : 					CharGameInfoListWnd* pInfoWnd = dynamic_cast<CharGameInfoListWnd*>( g_GUIMgr.FindWnd( CHAR_INFO_LIST_WND ) );

  00312	56		 push	 esi
  00313	68 00 00 00 00	 push	 OFFSET ??_R0?AVCharGameInfoListWnd@@@8
  00318	68 00 00 00 00	 push	 OFFSET ??_R0?AVioWnd@@@8
  0031d	56		 push	 esi
  0031e	68 2c 27 00 00	 push	 10028			; 0000272cH
  00323	e8 00 00 00 00	 call	 ?GetSingleton@ioSP2GUIManager@@SAAAV1@XZ ; ioSP2GUIManager::GetSingleton
  00328	8b c8		 mov	 ecx, eax
  0032a	ff 15 00 00 00
	00		 call	 DWORD PTR __imp_?FindWnd@ioGUIManager@@QAEPAVioWnd@@K@Z
  00330	50		 push	 eax
  00331	e8 00 00 00 00	 call	 ___RTDynamicCast
  00336	8b d8		 mov	 ebx, eax
  00338	83 c4 14	 add	 esp, 20			; 00000014H

; 1228 : 					if( pInfoWnd )

  0033b	3b de		 cmp	 ebx, esi
  0033d	74 3b		 je	 SHORT $LN101@iwm_comman@5

; 1229 : 					{
; 1230 : 						pInfoWnd->SetWndPos( GetDerivedPosX() - pInfoWnd->GetWidth() - 5, GetDerivedPosY() );

  0033f	8b cb		 mov	 ecx, ebx
  00341	ff 15 00 00 00
	00		 call	 DWORD PTR __imp_?GetWidth@ioWnd@@QBEHXZ
  00347	6a fb		 push	 -5			; fffffffbH
  00349	5e		 pop	 esi
  0034a	8b cf		 mov	 ecx, edi
  0034c	2b f0		 sub	 esi, eax
  0034e	ff 15 00 00 00
	00		 call	 DWORD PTR __imp_?GetDerivedPosY@ioWnd@@QBEHXZ
  00354	50		 push	 eax
  00355	8b cf		 mov	 ecx, edi
  00357	ff 15 00 00 00
	00		 call	 DWORD PTR __imp_?GetDerivedPosX@ioWnd@@QBEHXZ
  0035d	03 c6		 add	 eax, esi
  0035f	50		 push	 eax
  00360	8b cb		 mov	 ecx, ebx
  00362	ff 15 00 00 00
	00		 call	 DWORD PTR __imp_?SetWndPos@ioWnd@@QAEXHH@Z

; 1231 : 						pInfoWnd->SetStateInfoChar( pChar );

  00368	ff 75 0c	 push	 DWORD PTR _pChar$535391[ebp]
  0036b	8b cb		 mov	 ecx, ebx
  0036d	e8 00 00 00 00	 call	 ?SetStateInfoChar@CharGameInfoListWnd@@QAEXPAVioBaseChar@@@Z ; CharGameInfoListWnd::SetStateInfoChar

; 1232 : 						pInfoWnd->ShowWnd();

  00372	8b cb		 mov	 ecx, ebx
  00374	ff 15 00 00 00
	00		 call	 DWORD PTR __imp_?ShowWnd@ioWnd@@QAEXXZ
$LN101@iwm_comman@5:

; 1233 : 					}
; 1234 : 					ChangeCharacterButtonTitle( pChar->GetCharName() );

  0037a	8b 45 0c	 mov	 eax, DWORD PTR _pChar$535391[ebp]
  0037d	05 d4 02 00 00	 add	 eax, 724		; 000002d4H
  00382	50		 push	 eax
  00383	8b cf		 mov	 ecx, edi
  00385	e8 00 00 00 00	 call	 ?ChangeCharacterButtonTitle@SingleSettingWnd@@QAEXABVioHashString@@@Z ; SingleSettingWnd::ChangeCharacterButtonTitle

; 1235 : 					return;

  0038a	e9 d5 00 00 00	 jmp	 $LN103@iwm_comman@5
$LN15@iwm_comman@5:

; 1236 : 				}
; 1237 : 			}
; 1238 : 
; 1239 : 			g_GUIMgr.HideWnd( CHAR_INFO_LIST_WND );

  0038f	56		 push	 esi
  00390	68 2c 27 00 00	 push	 10028			; 0000272cH
  00395	e8 00 00 00 00	 call	 ?GetSingleton@ioSP2GUIManager@@SAAAV1@XZ ; ioSP2GUIManager::GetSingleton
  0039a	8b c8		 mov	 ecx, eax
  0039c	ff 15 00 00 00
	00		 call	 DWORD PTR __imp_?HideWnd@ioGUIManager@@QAEXK_N@Z
  003a2	e9 bd 00 00 00	 jmp	 $LN103@iwm_comman@5
$LN17@iwm_comman@5:

; 1240 : 		}
; 1241 : 		else if( cmd == IOEX_BTNDOWN )

  003a7	83 7d 0c 15	 cmp	 DWORD PTR _cmd$[ebp], 21 ; 00000015H
  003ab	0f 85 b3 00 00
	00		 jne	 $LN103@iwm_comman@5

; 1242 : 		{
; 1243 : 			g_GUIMgr.SetMsgBox( MB_OK, NULL, STR(9) );

  003b1	33 f6		 xor	 esi, esi
  003b3	56		 push	 esi
  003b4	6a 09		 push	 9

; 1244 : 		}
; 1245 : 		break;

  003b6	eb 53		 jmp	 SHORT $LN104@iwm_comman@5
$LN11@iwm_comman@5:

; 1246 : 	case ID_OWER:
; 1247 : 		if( cmd == IOBN_BTNUP )

  003b8	83 7d 0c 11	 cmp	 DWORD PTR _cmd$[ebp], 17 ; 00000011H
  003bc	75 0d		 jne	 SHORT $LN10@iwm_comman@5

; 1248 : 		{
; 1249 : 			OpenOwnerList( pWnd );

  003be	53		 push	 ebx
  003bf	8b cf		 mov	 ecx, edi
  003c1	e8 00 00 00 00	 call	 ?OpenOwnerList@SingleSettingWnd@@IAEXPAVioWnd@@@Z ; SingleSettingWnd::OpenOwnerList
  003c6	e9 99 00 00 00	 jmp	 $LN103@iwm_comman@5
$LN10@iwm_comman@5:

; 1250 : 		}
; 1251 : 		else if( cmd == ID_OWER_LIST )

  003cb	81 7d 0c ed 03
	00 00		 cmp	 DWORD PTR _cmd$[ebp], 1005 ; 000003edH
  003d2	75 2c		 jne	 SHORT $LN8@iwm_comman@5

; 1252 : 		{
; 1253 : 			ioPlayStage* pStage = g_GUIMgr.GetPlayStage();

  003d4	e8 00 00 00 00	 call	 ?GetSingleton@ioSP2GUIManager@@SAAAV1@XZ ; ioSP2GUIManager::GetSingleton
  003d9	8b 88 e8 04 00
	00		 mov	 ecx, DWORD PTR [eax+1256]

; 1254 : 			if( pStage )

  003df	33 f6		 xor	 esi, esi
  003e1	3b ce		 cmp	 ecx, esi
  003e3	74 7f		 je	 SHORT $LN103@iwm_comman@5

; 1255 : 			{
; 1256 : 				const ioBaseChar* pChar = pStage->GetBaseChar( (DWORD)param );

  003e5	ff 75 10	 push	 DWORD PTR _param$[ebp]
  003e8	e8 00 00 00 00	 call	 ?GetBaseChar@ioPlayStage@@QAEPAVioBaseChar@@K@Z ; ioPlayStage::GetBaseChar

; 1257 : 				if( pChar )

  003ed	3b c6		 cmp	 eax, esi
  003ef	74 73		 je	 SHORT $LN103@iwm_comman@5

; 1258 : 				{
; 1259 : 					ChangeOwnerButtonTitle( pChar->GetCharName() );

  003f1	05 d4 02 00 00	 add	 eax, 724		; 000002d4H
  003f6	50		 push	 eax
  003f7	8b cf		 mov	 ecx, edi
  003f9	e8 00 00 00 00	 call	 ?ChangeOwnerButtonTitle@SingleSettingWnd@@QAEXABVioHashString@@@Z ; SingleSettingWnd::ChangeOwnerButtonTitle

; 1260 : 					return;

  003fe	eb 64		 jmp	 SHORT $LN103@iwm_comman@5
$LN8@iwm_comman@5:

; 1261 : 				}
; 1262 : 			}
; 1263 : 		}
; 1264 : 		else if( cmd == IOEX_BTNDOWN )

  00400	83 7d 0c 15	 cmp	 DWORD PTR _cmd$[ebp], 21 ; 00000015H
  00404	75 5e		 jne	 SHORT $LN103@iwm_comman@5

; 1265 : 		{
; 1266 : 			g_GUIMgr.SetMsgBox( MB_OK, NULL, STR(10) );

  00406	33 f6		 xor	 esi, esi
  00408	56		 push	 esi
  00409	6a 0a		 push	 10			; 0000000aH
$LN104@iwm_comman@5:
  0040b	68 00 00 00 00	 push	 OFFSET ??_C@_00CNPNBAHC@?$AA@
  00410	68 00 00 00 00	 push	 OFFSET ??_C@_0BO@FMEDMPFK@SingleSettingWnd?3?3iwm_command?$AA@
  00415	ff 15 00 00 00
	00		 call	 DWORD PTR __imp_?GetSingleton@ioStringManager@@SAAAV1@XZ
  0041b	8b c8		 mov	 ecx, eax
  0041d	ff 15 00 00 00
	00		 call	 DWORD PTR __imp_?GetString@ioStringManager@@QAEPADPBD0HW4FileNamePrefix@1@@Z
  00423	50		 push	 eax
  00424	56		 push	 esi
  00425	56		 push	 esi
  00426	e8 00 00 00 00	 call	 ?GetSingleton@ioSP2GUIManager@@SAAAV1@XZ ; ioSP2GUIManager::GetSingleton
  0042b	50		 push	 eax
  0042c	e8 00 00 00 00	 call	 ?SetMsgBox@ioSP2GUIManager@@QAAXHPAVioWnd@@PBDZZ ; ioSP2GUIManager::SetMsgBox
  00431	83 c4 10	 add	 esp, 16			; 00000010H

; 1267 : 		}
; 1268 : 		break;

  00434	eb 2e		 jmp	 SHORT $LN103@iwm_comman@5
$LN3@iwm_comman@5:

; 1269 : 	case ID_WND_BOUNDARY:
; 1270 : 		if( cmd == IOBN_BTNUP )

  00436	83 7d 0c 11	 cmp	 DWORD PTR _cmd$[ebp], 17 ; 00000011H
  0043a	75 28		 jne	 SHORT $LN103@iwm_comman@5

; 1271 : 		{
; 1272 : 			ioCheckButton* pCheck = dynamic_cast<ioCheckButton*>( pWnd );

  0043c	33 f6		 xor	 esi, esi
  0043e	56		 push	 esi
  0043f	68 00 00 00 00	 push	 OFFSET ??_R0?AVioCheckButton@@@8
  00444	68 00 00 00 00	 push	 OFFSET ??_R0?AVioWnd@@@8
  00449	56		 push	 esi
  0044a	53		 push	 ebx
  0044b	e8 00 00 00 00	 call	 ___RTDynamicCast
  00450	83 c4 14	 add	 esp, 20			; 00000014H

; 1273 : 			if( pCheck )

  00453	3b c6		 cmp	 eax, esi
  00455	74 0d		 je	 SHORT $LN103@iwm_comman@5

; 1274 : 			{	
; 1275 : 				Setting::SetSWndBoundary( pCheck->IsChecked() );

  00457	8b c8		 mov	 ecx, eax
  00459	ff 15 00 00 00
	00		 call	 DWORD PTR __imp_?IsChecked@ioCheckButton@@QBE_NXZ
  0045f	a2 72 00 00 00	 mov	 BYTE PTR ?m_Option@Setting@@1USettingOption@@A+114, al
$LN103@iwm_comman@5:
  00464	5e		 pop	 esi
$LN98@iwm_comman@5:
  00465	5f		 pop	 edi
  00466	5b		 pop	 ebx

; 1276 : 			}
; 1277 : 		}
; 1278 : 		break;
; 1279 : 	}
; 1280 : }

  00467	5d		 pop	 ebp
  00468	c2 0c 00	 ret	 12			; 0000000cH
  0046b	90		 npad	 1
$LN106@iwm_comman@5:
  0046c	00 00 00 00	 DD	 $LN65@iwm_comman@5
  00470	00 00 00 00	 DD	 $LN63@iwm_comman@5
  00474	00 00 00 00	 DD	 $LN60@iwm_comman@5
  00478	00 00 00 00	 DD	 $LN57@iwm_comman@5
  0047c	00 00 00 00	 DD	 $LN54@iwm_comman@5
  00480	00 00 00 00	 DD	 $LN48@iwm_comman@5
  00484	00 00 00 00	 DD	 $LN42@iwm_comman@5
  00488	00 00 00 00	 DD	 $LN36@iwm_comman@5
  0048c	00 00 00 00	 DD	 $LN102@iwm_comman@5
  00490	00 00 00 00	 DD	 $LN24@iwm_comman@5
  00494	00 00 00 00	 DD	 $LN20@iwm_comman@5
  00498	00 00 00 00	 DD	 $LN11@iwm_comman@5
  0049c	00 00 00 00	 DD	 $LN3@iwm_comman@5
?iwm_command@SingleSettingWnd@@UAEXPAVioWnd@@HK@Z ENDP	; SingleSettingWnd::iwm_command
_TEXT	ENDS
PUBLIC	?push_back@?$vector@UUserInfo@DeveloperInfoWnd@@V?$allocator@UUserInfo@DeveloperInfoWnd@@@std@@@std@@QAEXABUUserInfo@DeveloperInfoWnd@@@Z ; std::vector<DeveloperInfoWnd::UserInfo,std::allocator<DeveloperInfoWnd::UserInfo> >::push_back
; Function compile flags: /Ogsp
; File c:\program files (x86)\microsoft visual studio 10.0\vc\include\vector
;	COMDAT ?push_back@?$vector@UUserInfo@DeveloperInfoWnd@@V?$allocator@UUserInfo@DeveloperInfoWnd@@@std@@@std@@QAEXABUUserInfo@DeveloperInfoWnd@@@Z
_TEXT	SEGMENT
__Val$ = 8						; size = 4
?push_back@?$vector@UUserInfo@DeveloperInfoWnd@@V?$allocator@UUserInfo@DeveloperInfoWnd@@@std@@@std@@QAEXABUUserInfo@DeveloperInfoWnd@@@Z PROC ; std::vector<DeveloperInfoWnd::UserInfo,std::allocator<DeveloperInfoWnd::UserInfo> >::push_back, COMDAT
; _this$ = ecx

; 976  : 		{	// insert element at end

  00000	55		 push	 ebp
  00001	8b ec		 mov	 ebp, esp
  00003	56		 push	 esi
  00004	8b f1		 mov	 esi, ecx

; 977  : 		if (_Inside(_STD addressof(_Val)))

  00006	8b 4e 04	 mov	 ecx, DWORD PTR [esi+4]
  00009	57		 push	 edi
  0000a	8b 7d 08	 mov	 edi, DWORD PTR __Val$[ebp]
  0000d	3b f9		 cmp	 edi, ecx
  0000f	73 37		 jae	 SHORT $LN4@push_back
  00011	8b 16		 mov	 edx, DWORD PTR [esi]
  00013	3b d7		 cmp	 edx, edi
  00015	77 31		 ja	 SHORT $LN4@push_back

; 978  : 			{	// push back an element
; 979  : 			size_type _Idx = _STD addressof(_Val) - this->_Myfirst;

  00017	8b c7		 mov	 eax, edi
  00019	2b c2		 sub	 eax, edx
  0001b	6a 28		 push	 40			; 00000028H
  0001d	99		 cdq
  0001e	5f		 pop	 edi
  0001f	f7 ff		 idiv	 edi
  00021	8b f8		 mov	 edi, eax

; 980  : 			if (this->_Mylast == this->_Myend)

  00023	3b 4e 08	 cmp	 ecx, DWORD PTR [esi+8]
  00026	75 09		 jne	 SHORT $LN3@push_back

; 981  : 				_Reserve(1);

  00028	6a 01		 push	 1
  0002a	8b ce		 mov	 ecx, esi
  0002c	e8 00 00 00 00	 call	 ?_Reserve@?$vector@UUserInfo@DeveloperInfoWnd@@V?$allocator@UUserInfo@DeveloperInfoWnd@@@std@@@std@@IAEXI@Z ; std::vector<DeveloperInfoWnd::UserInfo,std::allocator<DeveloperInfoWnd::UserInfo> >::_Reserve
$LN3@push_back:

; 982  : 			_Orphan_range(this->_Mylast, this->_Mylast);
; 983  : 			_Cons_val(this->_Alval,
; 984  : 				this->_Mylast,
; 985  : 				this->_Myfirst[_Idx]);

  00031	6b ff 28	 imul	 edi, 40			; 00000028H
  00034	03 3e		 add	 edi, DWORD PTR [esi]
  00036	8d 46 0c	 lea	 eax, DWORD PTR [esi+12]
  00039	57		 push	 edi
  0003a	ff 76 04	 push	 DWORD PTR [esi+4]
  0003d	50		 push	 eax
  0003e	e8 00 00 00 00	 call	 ??$_Cons_val@V?$allocator@UUserInfo@DeveloperInfoWnd@@@std@@UUserInfo@DeveloperInfoWnd@@AAU34@@std@@YAXAAV?$allocator@UUserInfo@DeveloperInfoWnd@@@0@PAUUserInfo@DeveloperInfoWnd@@AAU23@@Z ; std::_Cons_val<std::allocator<DeveloperInfoWnd::UserInfo>,DeveloperInfoWnd::UserInfo,DeveloperInfoWnd::UserInfo &>
  00043	83 c4 0c	 add	 esp, 12			; 0000000cH

; 986  : 			++this->_Mylast;
; 987  : 			}
; 988  : 		else

  00046	eb 19		 jmp	 SHORT $LN26@push_back
$LN4@push_back:

; 989  : 			{	// push back a non-element
; 990  : 			if (this->_Mylast == this->_Myend)

  00048	3b 4e 08	 cmp	 ecx, DWORD PTR [esi+8]
  0004b	75 09		 jne	 SHORT $LN1@push_back

; 991  : 				_Reserve(1);

  0004d	6a 01		 push	 1
  0004f	8b ce		 mov	 ecx, esi
  00051	e8 00 00 00 00	 call	 ?_Reserve@?$vector@UUserInfo@DeveloperInfoWnd@@V?$allocator@UUserInfo@DeveloperInfoWnd@@@std@@@std@@IAEXI@Z ; std::vector<DeveloperInfoWnd::UserInfo,std::allocator<DeveloperInfoWnd::UserInfo> >::_Reserve
$LN1@push_back:

; 992  : 			_Orphan_range(this->_Mylast, this->_Mylast);
; 993  : 			_Cons_val(this->_Alval,
; 994  : 				this->_Mylast,
; 995  : 				_Val);

  00056	57		 push	 edi
  00057	ff 76 04	 push	 DWORD PTR [esi+4]
  0005a	e8 00 00 00 00	 call	 ??$_Construct@UUserInfo@DeveloperInfoWnd@@ABU12@@std@@YAXPAUUserInfo@DeveloperInfoWnd@@ABU12@@Z ; std::_Construct<DeveloperInfoWnd::UserInfo,DeveloperInfoWnd::UserInfo const &>
  0005f	59		 pop	 ecx
  00060	59		 pop	 ecx
$LN26@push_back:

; 996  : 			++this->_Mylast;

  00061	83 46 04 28	 add	 DWORD PTR [esi+4], 40	; 00000028H
  00065	5f		 pop	 edi
  00066	5e		 pop	 esi

; 997  : 			}
; 998  : 		}

  00067	5d		 pop	 ebp
  00068	c2 04 00	 ret	 4
?push_back@?$vector@UUserInfo@DeveloperInfoWnd@@V?$allocator@UUserInfo@DeveloperInfoWnd@@@std@@@std@@QAEXABUUserInfo@DeveloperInfoWnd@@@Z ENDP ; std::vector<DeveloperInfoWnd::UserInfo,std::allocator<DeveloperInfoWnd::UserInfo> >::push_back
_TEXT	ENDS
PUBLIC	??0CharStateInfo@CharGameInfoListWnd@@QAE@XZ	; CharGameInfoListWnd::CharStateInfo::CharStateInfo
;	COMDAT xdata$x
; File c:\program files (x86)\microsoft visual studio 10.0\vc\include\xmemory
xdata$x	SEGMENT
__unwindtable$??0CharStateInfo@CharGameInfoListWnd@@QAE@XZ DD 0ffffffffH
	DD	FLAT:__unwindfunclet$??0CharStateInfo@CharGameInfoListWnd@@QAE@XZ$0
	DD	00H
	DD	FLAT:__unwindfunclet$??0CharStateInfo@CharGameInfoListWnd@@QAE@XZ$1
__ehfuncinfo$??0CharStateInfo@CharGameInfoListWnd@@QAE@XZ DD 019930522H
	DD	02H
	DD	FLAT:__unwindtable$??0CharStateInfo@CharGameInfoListWnd@@QAE@XZ
	DD	2 DUP(00H)
	DD	2 DUP(00H)
	DD	00H
	DD	01H
; Function compile flags: /Ogsp
; File d:\lost saga for developer\youtube\tutorial\source\src\lsclient\gui\debuginfownd.h
xdata$x	ENDS
;	COMDAT ??0CharStateInfo@CharGameInfoListWnd@@QAE@XZ
_TEXT	SEGMENT
_this$ = -16						; size = 4
__$EHRec$ = -12						; size = 12
??0CharStateInfo@CharGameInfoListWnd@@QAE@XZ PROC	; CharGameInfoListWnd::CharStateInfo::CharStateInfo, COMDAT
; _this$ = ecx

; 154  : 		CharStateInfo()

  00000	6a 04		 push	 4
  00002	b8 00 00 00 00	 mov	 eax, __ehhandler$??0CharStateInfo@CharGameInfoListWnd@@QAE@XZ
  00007	e8 00 00 00 00	 call	 __EH_prolog3
  0000c	8b f1		 mov	 esi, ecx
  0000e	89 75 f0	 mov	 DWORD PTR _this$[ebp], esi
  00011	ff 15 00 00 00
	00		 call	 DWORD PTR __imp_??0ioHashString@@QAE@XZ
  00017	33 c0		 xor	 eax, eax
  00019	89 45 fc	 mov	 DWORD PTR __$EHRec$[ebp+8], eax
  0001c	89 46 34	 mov	 DWORD PTR [esi+52], eax
  0001f	89 46 38	 mov	 DWORD PTR [esi+56], eax
  00022	89 46 3c	 mov	 DWORD PTR [esi+60], eax

; 155  : 		{
; 156  : 			Clear();

  00025	8b ce		 mov	 ecx, esi
  00027	c6 45 fc 01	 mov	 BYTE PTR __$EHRec$[ebp+8], 1
  0002b	e8 00 00 00 00	 call	 ?Clear@CharStateInfo@CharGameInfoListWnd@@QAEXXZ ; CharGameInfoListWnd::CharStateInfo::Clear

; 157  : 		}

  00030	8b c6		 mov	 eax, esi
  00032	e8 00 00 00 00	 call	 __EH_epilog3
  00037	c3		 ret	 0
_TEXT	ENDS
;	COMDAT text$x
text$x	SEGMENT
__unwindfunclet$??0CharStateInfo@CharGameInfoListWnd@@QAE@XZ$0:
  00000	8b 4d f0	 mov	 ecx, DWORD PTR _this$[ebp]
  00003	ff 25 00 00 00
	00		 jmp	 DWORD PTR __imp_??1ioHashString@@QAE@XZ
__unwindfunclet$??0CharStateInfo@CharGameInfoListWnd@@QAE@XZ$1:
  00009	8b 4d f0	 mov	 ecx, DWORD PTR _this$[ebp]
  0000c	83 c1 34	 add	 ecx, 52			; 00000034H
  0000f	e9 00 00 00 00	 jmp	 ??1?$vector@VioHashString@@V?$allocator@VioHashString@@@std@@@std@@QAE@XZ ; std::vector<ioHashString,std::allocator<ioHashString> >::~vector<ioHashString,std::allocator<ioHashString> >
__ehhandler$??0CharStateInfo@CharGameInfoListWnd@@QAE@XZ:
  00014	8b 54 24 08	 mov	 edx, DWORD PTR [esp+8]
  00018	8d 42 0c	 lea	 eax, DWORD PTR [edx+12]
  0001b	8b 4a ec	 mov	 ecx, DWORD PTR [edx-20]
  0001e	33 c8		 xor	 ecx, eax
  00020	e8 00 00 00 00	 call	 @__security_check_cookie@4
  00025	b8 00 00 00 00	 mov	 eax, OFFSET __ehfuncinfo$??0CharStateInfo@CharGameInfoListWnd@@QAE@XZ
  0002a	e9 00 00 00 00	 jmp	 ___CxxFrameHandler3
text$x	ENDS
??0CharStateInfo@CharGameInfoListWnd@@QAE@XZ ENDP	; CharGameInfoListWnd::CharStateInfo::CharStateInfo
; Function compile flags: /Ogsp
;	COMDAT ??_GDeveloperInfoWnd@@UAEPAXI@Z
_TEXT	SEGMENT
___flags$ = 8						; size = 4
??_GDeveloperInfoWnd@@UAEPAXI@Z PROC			; DeveloperInfoWnd::`scalar deleting destructor', COMDAT
; _this$ = ecx
  00000	55		 push	 ebp
  00001	8b ec		 mov	 ebp, esp
  00003	56		 push	 esi
  00004	8b f1		 mov	 esi, ecx
  00006	e8 00 00 00 00	 call	 ??1DeveloperInfoWnd@@UAE@XZ ; DeveloperInfoWnd::~DeveloperInfoWnd
  0000b	f6 45 08 01	 test	 BYTE PTR ___flags$[ebp], 1
  0000f	74 07		 je	 SHORT $LN1@scalar@8
  00011	56		 push	 esi
  00012	e8 00 00 00 00	 call	 ??3@YAXPAX@Z		; operator delete
  00017	59		 pop	 ecx
$LN1@scalar@8:
  00018	8b c6		 mov	 eax, esi
  0001a	5e		 pop	 esi
  0001b	5d		 pop	 ebp
  0001c	c2 04 00	 ret	 4
??_GDeveloperInfoWnd@@UAEPAXI@Z ENDP			; DeveloperInfoWnd::`scalar deleting destructor'
_TEXT	ENDS
PUBLIC	?OnDeveloperInfo@DeveloperInfoWnd@@QAEXAAVSP2Packet@@@Z ; DeveloperInfoWnd::OnDeveloperInfo
EXTRN	??5SP2Packet@@QAEAAV0@AAVioHashString@@@Z:PROC	; SP2Packet::operator>>
EXTRN	??5SP2Packet@@QAEAAV0@AAH@Z:PROC		; SP2Packet::operator>>
;	COMDAT xdata$x
; File d:\lost saga for developer\youtube\tutorial\source\src\lsclient\gui\debuginfownd.cpp
xdata$x	SEGMENT
__unwindtable$?OnDeveloperInfo@DeveloperInfoWnd@@QAEXAAVSP2Packet@@@Z DD 0ffffffffH
	DD	FLAT:__unwindfunclet$?OnDeveloperInfo@DeveloperInfoWnd@@QAEXAAVSP2Packet@@@Z$0
__ehfuncinfo$?OnDeveloperInfo@DeveloperInfoWnd@@QAEXAAVSP2Packet@@@Z DD 019930522H
	DD	01H
	DD	FLAT:__unwindtable$?OnDeveloperInfo@DeveloperInfoWnd@@QAEXAAVSP2Packet@@@Z
	DD	2 DUP(00H)
	DD	2 DUP(00H)
	DD	00H
	DD	01H
; Function compile flags: /Ogsp
xdata$x	ENDS
;	COMDAT ?OnDeveloperInfo@DeveloperInfoWnd@@QAEXAAVSP2Packet@@@Z
_TEXT	SEGMENT
_kInfo$534110 = -60					; size = 40
$T540410 = -20						; size = 4
_iSize$ = -16						; size = 4
__$EHRec$ = -12						; size = 12
_rkPacket$ = 8						; size = 4
?OnDeveloperInfo@DeveloperInfoWnd@@QAEXAAVSP2Packet@@@Z PROC ; DeveloperInfoWnd::OnDeveloperInfo, COMDAT
; _this$ = ecx

; 50   : {

  00000	6a 30		 push	 48			; 00000030H
  00002	b8 00 00 00 00	 mov	 eax, __ehhandler$?OnDeveloperInfo@DeveloperInfoWnd@@QAEXAAVSP2Packet@@@Z
  00007	e8 00 00 00 00	 call	 __EH_prolog3
  0000c	8b f1		 mov	 esi, ecx

; 51   : 	//   : Solo   2009. 1. 22. KDH
; 52   : 	m_vUserInfo.clear();

  0000e	8b 86 64 01 00
	00		 mov	 eax, DWORD PTR [esi+356]
  00014	8b 8e 60 01 00
	00		 mov	 ecx, DWORD PTR [esi+352]
  0001a	50		 push	 eax
  0001b	51		 push	 ecx
  0001c	8d 45 ec	 lea	 eax, DWORD PTR $T540410[ebp]
  0001f	50		 push	 eax
  00020	8d 8e 60 01 00
	00		 lea	 ecx, DWORD PTR [esi+352]
  00026	e8 00 00 00 00	 call	 ?erase@?$vector@UUserInfo@DeveloperInfoWnd@@V?$allocator@UUserInfo@DeveloperInfoWnd@@@std@@@std@@QAE?AV?$_Vector_iterator@V?$_Vector_val@UUserInfo@DeveloperInfoWnd@@V?$allocator@UUserInfo@DeveloperInfoWnd@@@std@@@std@@@2@V?$_Vector_const_iterator@V?$_Vector_val@UUserInfo@DeveloperInfoWnd@@V?$allocator@UUserInfo@DeveloperInfoWnd@@@std@@@std@@@2@0@Z ; std::vector<DeveloperInfoWnd::UserInfo,std::allocator<DeveloperInfoWnd::UserInfo> >::erase

; 53   : 	
; 54   : 	int iSize;
; 55   : 	rkPacket >> m_iRoomAverageLevel >> iSize;

  0002b	8b 4d 08	 mov	 ecx, DWORD PTR _rkPacket$[ebp]
  0002e	8d 45 f0	 lea	 eax, DWORD PTR _iSize$[ebp]
  00031	50		 push	 eax
  00032	8d 86 70 01 00
	00		 lea	 eax, DWORD PTR [esi+368]
  00038	50		 push	 eax
  00039	e8 00 00 00 00	 call	 ??5SP2Packet@@QAEAAV0@AAH@Z ; SP2Packet::operator>>
  0003e	8b c8		 mov	 ecx, eax
  00040	e8 00 00 00 00	 call	 ??5SP2Packet@@QAEAAV0@AAH@Z ; SP2Packet::operator>>

; 56   : 	for(int i = 0;i < iSize;i++)

  00045	33 db		 xor	 ebx, ebx
  00047	39 5d f0	 cmp	 DWORD PTR _iSize$[ebp], ebx
  0004a	7e 66		 jle	 SHORT $LN1@OnDevelope
$LL3@OnDevelope:

; 57   : 	{
; 58   : 		UserInfo kInfo;

  0004c	8d 4d c4	 lea	 ecx, DWORD PTR _kInfo$534110[ebp]
  0004f	e8 00 00 00 00	 call	 ??0UserInfo@DeveloperInfoWnd@@QAE@XZ ; DeveloperInfoWnd::UserInfo::UserInfo

; 59   : 		rkPacket >> kInfo.m_szName >> kInfo.m_iGradeLevel >> kInfo.m_iKillDeathLevel
; 60   : 			     >> kInfo.m_iPartyKO >> kInfo.m_iPartyKOed;

  00054	8b 4d 08	 mov	 ecx, DWORD PTR _rkPacket$[ebp]
  00057	83 65 fc 00	 and	 DWORD PTR __$EHRec$[ebp+8], 0
  0005b	8d 45 e8	 lea	 eax, DWORD PTR _kInfo$534110[ebp+36]
  0005e	50		 push	 eax
  0005f	8d 45 e0	 lea	 eax, DWORD PTR _kInfo$534110[ebp+28]
  00062	50		 push	 eax
  00063	8d 45 d8	 lea	 eax, DWORD PTR _kInfo$534110[ebp+20]
  00066	50		 push	 eax
  00067	8d 45 d4	 lea	 eax, DWORD PTR _kInfo$534110[ebp+16]
  0006a	50		 push	 eax
  0006b	8d 45 c4	 lea	 eax, DWORD PTR _kInfo$534110[ebp]
  0006e	50		 push	 eax
  0006f	e8 00 00 00 00	 call	 ??5SP2Packet@@QAEAAV0@AAVioHashString@@@Z ; SP2Packet::operator>>
  00074	8b c8		 mov	 ecx, eax
  00076	e8 00 00 00 00	 call	 ??5SP2Packet@@QAEAAV0@AAH@Z ; SP2Packet::operator>>
  0007b	8b c8		 mov	 ecx, eax
  0007d	e8 00 00 00 00	 call	 ??5SP2Packet@@QAEAAV0@AAH@Z ; SP2Packet::operator>>
  00082	8b c8		 mov	 ecx, eax
  00084	e8 00 00 00 00	 call	 ??5SP2Packet@@QAEAAV0@AAH@Z ; SP2Packet::operator>>
  00089	8b c8		 mov	 ecx, eax
  0008b	e8 00 00 00 00	 call	 ??5SP2Packet@@QAEAAV0@AAH@Z ; SP2Packet::operator>>

; 61   : 		m_vUserInfo.push_back( kInfo );

  00090	8d 45 c4	 lea	 eax, DWORD PTR _kInfo$534110[ebp]
  00093	50		 push	 eax
  00094	8d 8e 60 01 00
	00		 lea	 ecx, DWORD PTR [esi+352]
  0009a	e8 00 00 00 00	 call	 ?push_back@?$vector@UUserInfo@DeveloperInfoWnd@@V?$allocator@UUserInfo@DeveloperInfoWnd@@@std@@@std@@QAEXABUUserInfo@DeveloperInfoWnd@@@Z ; std::vector<DeveloperInfoWnd::UserInfo,std::allocator<DeveloperInfoWnd::UserInfo> >::push_back

; 62   : 	}

  0009f	83 4d fc ff	 or	 DWORD PTR __$EHRec$[ebp+8], -1
  000a3	8d 4d c4	 lea	 ecx, DWORD PTR _kInfo$534110[ebp]
  000a6	ff 15 00 00 00
	00		 call	 DWORD PTR __imp_??1ioHashString@@QAE@XZ
  000ac	43		 inc	 ebx
  000ad	3b 5d f0	 cmp	 ebx, DWORD PTR _iSize$[ebp]
  000b0	7c 9a		 jl	 SHORT $LL3@OnDevelope
$LN1@OnDevelope:

; 63   : 	rkPacket >> m_iRoomLowLevelLimit >> m_iRoomHighLevelLimit;

  000b2	8b 4d 08	 mov	 ecx, DWORD PTR _rkPacket$[ebp]
  000b5	8d 86 78 01 00
	00		 lea	 eax, DWORD PTR [esi+376]
  000bb	50		 push	 eax
  000bc	8d 86 74 01 00
	00		 lea	 eax, DWORD PTR [esi+372]
  000c2	50		 push	 eax
  000c3	e8 00 00 00 00	 call	 ??5SP2Packet@@QAEAAV0@AAH@Z ; SP2Packet::operator>>
  000c8	8b c8		 mov	 ecx, eax
  000ca	e8 00 00 00 00	 call	 ??5SP2Packet@@QAEAAV0@AAH@Z ; SP2Packet::operator>>

; 64   : 	SetSize( GetWidth(), 105 + ( iSize * 20 ) );

  000cf	8b 45 f0	 mov	 eax, DWORD PTR _iSize$[ebp]
  000d2	8b 3e		 mov	 edi, DWORD PTR [esi]
  000d4	6b c0 14	 imul	 eax, 20			; 00000014H
  000d7	83 c0 69	 add	 eax, 105		; 00000069H
  000da	50		 push	 eax
  000db	8b ce		 mov	 ecx, esi
  000dd	ff 15 00 00 00
	00		 call	 DWORD PTR __imp_?GetWidth@ioWnd@@QBEHXZ
  000e3	50		 push	 eax
  000e4	8b ce		 mov	 ecx, esi
  000e6	ff 57 2c	 call	 DWORD PTR [edi+44]

; 65   : 	ShowWnd();

  000e9	8b ce		 mov	 ecx, esi
  000eb	ff 15 00 00 00
	00		 call	 DWORD PTR __imp_?ShowWnd@ioWnd@@QAEXXZ

; 66   : }

  000f1	e8 00 00 00 00	 call	 __EH_epilog3
  000f6	c2 04 00	 ret	 4
_TEXT	ENDS
;	COMDAT text$x
text$x	SEGMENT
__unwindfunclet$?OnDeveloperInfo@DeveloperInfoWnd@@QAEXAAVSP2Packet@@@Z$0:
  00000	8d 4d c4	 lea	 ecx, DWORD PTR _kInfo$534110[ebp]
  00003	e9 00 00 00 00	 jmp	 ??1UserInfo@DeveloperInfoWnd@@QAE@XZ
__ehhandler$?OnDeveloperInfo@DeveloperInfoWnd@@QAEXAAVSP2Packet@@@Z:
  00008	8b 54 24 08	 mov	 edx, DWORD PTR [esp+8]
  0000c	8d 42 0c	 lea	 eax, DWORD PTR [edx+12]
  0000f	8b 4a c0	 mov	 ecx, DWORD PTR [edx-64]
  00012	33 c8		 xor	 ecx, eax
  00014	e8 00 00 00 00	 call	 @__security_check_cookie@4
  00019	b8 00 00 00 00	 mov	 eax, OFFSET __ehfuncinfo$?OnDeveloperInfo@DeveloperInfoWnd@@QAEXAAVSP2Packet@@@Z
  0001e	e9 00 00 00 00	 jmp	 ___CxxFrameHandler3
text$x	ENDS
?OnDeveloperInfo@DeveloperInfoWnd@@QAEXAAVSP2Packet@@@Z ENDP ; DeveloperInfoWnd::OnDeveloperInfo
PUBLIC	??0CharGameInfoListWnd@@QAE@XZ			; CharGameInfoListWnd::CharGameInfoListWnd
;	COMDAT xdata$x
xdata$x	SEGMENT
__unwindtable$??0CharGameInfoListWnd@@QAE@XZ DD 0ffffffffH
	DD	FLAT:__unwindfunclet$??0CharGameInfoListWnd@@QAE@XZ$0
__ehfuncinfo$??0CharGameInfoListWnd@@QAE@XZ DD 019930522H
	DD	01H
	DD	FLAT:__unwindtable$??0CharGameInfoListWnd@@QAE@XZ
	DD	2 DUP(00H)
	DD	2 DUP(00H)
	DD	00H
	DD	01H
; Function compile flags: /Ogsp
xdata$x	ENDS
;	COMDAT ??0CharGameInfoListWnd@@QAE@XZ
_TEXT	SEGMENT
_this$ = -16						; size = 4
__$EHRec$ = -12						; size = 12
??0CharGameInfoListWnd@@QAE@XZ PROC			; CharGameInfoListWnd::CharGameInfoListWnd, COMDAT
; _this$ = ecx

; 239  : {	

  00000	6a 04		 push	 4
  00002	b8 00 00 00 00	 mov	 eax, __ehhandler$??0CharGameInfoListWnd@@QAE@XZ
  00007	e8 00 00 00 00	 call	 __EH_prolog3
  0000c	8b f1		 mov	 esi, ecx
  0000e	89 75 f0	 mov	 DWORD PTR _this$[ebp], esi
  00011	ff 15 00 00 00
	00		 call	 DWORD PTR __imp_??0ioWnd@@QAE@XZ
  00017	83 65 fc 00	 and	 DWORD PTR __$EHRec$[ebp+8], 0
  0001b	8d 8e 60 01 00
	00		 lea	 ecx, DWORD PTR [esi+352]
  00021	c7 06 00 00 00
	00		 mov	 DWORD PTR [esi], OFFSET ??_7CharGameInfoListWnd@@6B@
  00027	e8 00 00 00 00	 call	 ??0CharStateInfo@CharGameInfoListWnd@@QAE@XZ ; CharGameInfoListWnd::CharStateInfo::CharStateInfo
  0002c	83 a6 b4 01 00
	00 00		 and	 DWORD PTR [esi+436], 0
  00033	83 a6 b8 01 00
	00 00		 and	 DWORD PTR [esi+440], 0

; 240  : }

  0003a	8b c6		 mov	 eax, esi
  0003c	e8 00 00 00 00	 call	 __EH_epilog3
  00041	c3		 ret	 0
_TEXT	ENDS
;	COMDAT text$x
text$x	SEGMENT
__unwindfunclet$??0CharGameInfoListWnd@@QAE@XZ$0:
  00000	8b 4d f0	 mov	 ecx, DWORD PTR _this$[ebp]
  00003	ff 25 00 00 00
	00		 jmp	 DWORD PTR __imp_??1ioWnd@@UAE@XZ
__ehhandler$??0CharGameInfoListWnd@@QAE@XZ:
  00009	8b 54 24 08	 mov	 edx, DWORD PTR [esp+8]
  0000d	8d 42 0c	 lea	 eax, DWORD PTR [edx+12]
  00010	8b 4a ec	 mov	 ecx, DWORD PTR [edx-20]
  00013	33 c8		 xor	 ecx, eax
  00015	e8 00 00 00 00	 call	 @__security_check_cookie@4
  0001a	b8 00 00 00 00	 mov	 eax, OFFSET __ehfuncinfo$??0CharGameInfoListWnd@@QAE@XZ
  0001f	e9 00 00 00 00	 jmp	 ___CxxFrameHandler3
text$x	ENDS
??0CharGameInfoListWnd@@QAE@XZ ENDP			; CharGameInfoListWnd::CharGameInfoListWnd
; Function compile flags: /Ogsp
;	COMDAT ??_GCharGameInfoListWnd@@UAEPAXI@Z
_TEXT	SEGMENT
___flags$ = 8						; size = 4
??_GCharGameInfoListWnd@@UAEPAXI@Z PROC			; CharGameInfoListWnd::`scalar deleting destructor', COMDAT
; _this$ = ecx
  00000	55		 push	 ebp
  00001	8b ec		 mov	 ebp, esp
  00003	56		 push	 esi
  00004	8b f1		 mov	 esi, ecx
  00006	e8 00 00 00 00	 call	 ??1CharGameInfoListWnd@@UAE@XZ ; CharGameInfoListWnd::~CharGameInfoListWnd
  0000b	f6 45 08 01	 test	 BYTE PTR ___flags$[ebp], 1
  0000f	74 07		 je	 SHORT $LN1@scalar@9
  00011	56		 push	 esi
  00012	e8 00 00 00 00	 call	 ??3@YAXPAX@Z		; operator delete
  00017	59		 pop	 ecx
$LN1@scalar@9:
  00018	8b c6		 mov	 eax, esi
  0001a	5e		 pop	 esi
  0001b	5d		 pop	 ebp
  0001c	c2 04 00	 ret	 4
??_GCharGameInfoListWnd@@UAEPAXI@Z ENDP			; CharGameInfoListWnd::`scalar deleting destructor'
_TEXT	ENDS
END
