; Listing generated by Microsoft (R) Optimizing Compiler Version 16.00.30319.01 

	TITLE	D:\Lost Saga For Developer\Youtube\Tutorial\Source\src\LSClient\GUI\DisconnectWnd.cpp
	.686P
	.XMM
	include listing.inc
	.model	flat

INCLUDELIB MSVCRT
INCLUDELIB OLDNAMES

PUBLIC	??_7DisconnectWnd@@6B@				; DisconnectWnd::`vftable'
PUBLIC	??0DisconnectWnd@@QAE@XZ			; DisconnectWnd::DisconnectWnd
PUBLIC	??_R4DisconnectWnd@@6B@				; DisconnectWnd::`RTTI Complete Object Locator'
PUBLIC	??_R0?AVDisconnectWnd@@@8			; DisconnectWnd `RTTI Type Descriptor'
PUBLIC	??_R3DisconnectWnd@@8				; DisconnectWnd::`RTTI Class Hierarchy Descriptor'
PUBLIC	??_R2DisconnectWnd@@8				; DisconnectWnd::`RTTI Base Class Array'
PUBLIC	??_R1A@?0A@EA@DisconnectWnd@@8			; DisconnectWnd::`RTTI Base Class Descriptor at (0,-1,0,64)'
PUBLIC	??_R1A@?0A@EA@ioWnd@@8				; ioWnd::`RTTI Base Class Descriptor at (0,-1,0,64)'
PUBLIC	??_R0?AVioWnd@@@8				; ioWnd `RTTI Type Descriptor'
PUBLIC	??_R3ioWnd@@8					; ioWnd::`RTTI Class Hierarchy Descriptor'
PUBLIC	??_R2ioWnd@@8					; ioWnd::`RTTI Base Class Array'
PUBLIC	?OnRender@DisconnectWnd@@MAEXXZ			; DisconnectWnd::OnRender
PUBLIC	?OnProcess@DisconnectWnd@@MAEXM@Z		; DisconnectWnd::OnProcess
PUBLIC	?iwm_create@DisconnectWnd@@UAEXXZ		; DisconnectWnd::iwm_create
PUBLIC	?iwm_command@DisconnectWnd@@UAEXPAVioWnd@@HK@Z	; DisconnectWnd::iwm_command
PUBLIC	?iwm_show@DisconnectWnd@@UAEXXZ			; DisconnectWnd::iwm_show
PUBLIC	?iwm_hide@DisconnectWnd@@UAEXXZ			; DisconnectWnd::iwm_hide
EXTRN	__imp_??0ioWnd@@QAE@XZ:PROC
EXTRN	??_7type_info@@6B@:QWORD			; type_info::`vftable'
EXTRN	?AddRenderFrame@ioWnd@@UAEXABVioHashString@@PAVioUIRenderFrame@@@Z:PROC ; ioWnd::AddRenderFrame
EXTRN	?AddRenderImage@ioWnd@@UAEXABVioHashString@@PAVioUIRenderImage@@@Z:PROC ; ioWnd::AddRenderImage
EXTRN	?AddTooltipHelp@ioWnd@@UAEXABVioHashString@@00@Z:PROC ; ioWnd::AddTooltipHelp
EXTRN	?ParseExtraInfo@ioWnd@@UAEXAAVioXMLElement@@@Z:PROC ; ioWnd::ParseExtraInfo
EXTRN	?AddNamedRenderImage@ioWnd@@UAEXABVioHashString@@PAVioUIRenderImage@@@Z:PROC ; ioWnd::AddNamedRenderImage
EXTRN	?RemoveNamedRenderImage@ioWnd@@UAEXABVioHashString@@@Z:PROC ; ioWnd::RemoveNamedRenderImage
EXTRN	?GetNamedRenderImage@ioWnd@@UBEPAVioUIRenderImage@@ABVioHashString@@@Z:PROC ; ioWnd::GetNamedRenderImage
EXTRN	?SetWindowAlpha@ioWnd@@UAEXH@Z:PROC		; ioWnd::SetWindowAlpha
EXTRN	?SetActive@ioWnd@@UAEXXZ:PROC			; ioWnd::SetActive
EXTRN	?SetInActive@ioWnd@@UAEXXZ:PROC			; ioWnd::SetInActive
EXTRN	?ClearElementImageList@ioWnd@@UAEXXZ:PROC	; ioWnd::ClearElementImageList
EXTRN	?SetSize@ioWnd@@UAEXHH@Z:PROC			; ioWnd::SetSize
EXTRN	?SetPositionToDefault@ioWnd@@UAEXHH_N0@Z:PROC	; ioWnd::SetPositionToDefault
EXTRN	?IsNeedProcess@ioWnd@@UBE_NXZ:PROC		; ioWnd::IsNeedProcess
EXTRN	?IsCanMouseReaction@ioWnd@@UBE_NXZ:PROC		; ioWnd::IsCanMouseReaction
EXTRN	?AddChild@ioWnd@@UAEXPAV1@@Z:PROC		; ioWnd::AddChild
EXTRN	?DeleteChild@ioWnd@@UAEXK@Z:PROC		; ioWnd::DeleteChild
EXTRN	?DeleteAllChild@ioWnd@@UAEXXZ:PROC		; ioWnd::DeleteAllChild
EXTRN	?OnRenderShowAndHide@ioWnd@@MAE_NXZ:PROC	; ioWnd::OnRenderShowAndHide
EXTRN	?OnRenderShowAndHideByDefault@ioWnd@@MAE_NK@Z:PROC ; ioWnd::OnRenderShowAndHideByDefault
EXTRN	?OnRenderShowAndHideByTop@ioWnd@@MAE_NK@Z:PROC	; ioWnd::OnRenderShowAndHideByTop
EXTRN	?OnRenderShowAndHideByDown@ioWnd@@MAE_NK@Z:PROC	; ioWnd::OnRenderShowAndHideByDown
EXTRN	?OnRenderAfterChild@ioWnd@@MAEXXZ:PROC		; ioWnd::OnRenderAfterChild
EXTRN	?OnMouseProcess@ioWnd@@MAEXABVioMouse@@@Z:PROC	; ioWnd::OnMouseProcess
EXTRN	?CheckFrameReSize@ioWnd@@MAEXHHHH@Z:PROC	; ioWnd::CheckFrameReSize
EXTRN	?RenderImageList@ioWnd@@MAEXHHW4UIRenderType@@@Z:PROC ; ioWnd::RenderImageList
EXTRN	?iwm_destroy@ioWnd@@UAEXXZ:PROC			; ioWnd::iwm_destroy
EXTRN	?iwm_lbuttondown@ioWnd@@UAEXABVioMouse@@@Z:PROC	; ioWnd::iwm_lbuttondown
EXTRN	?iwm_lbuttonup@ioWnd@@UAEXABVioMouse@@@Z:PROC	; ioWnd::iwm_lbuttonup
EXTRN	?iwm_lbuttonDBLCLK@ioWnd@@UAEXABVioMouse@@@Z:PROC ; ioWnd::iwm_lbuttonDBLCLK
EXTRN	?iwm_rbuttondown@ioWnd@@UAEXABVioMouse@@@Z:PROC	; ioWnd::iwm_rbuttondown
EXTRN	?iwm_rbuttonup@ioWnd@@UAEXABVioMouse@@@Z:PROC	; ioWnd::iwm_rbuttonup
EXTRN	?iwm_mouseover@ioWnd@@UAEXABVioMouse@@@Z:PROC	; ioWnd::iwm_mouseover
EXTRN	?iwm_mousemove@ioWnd@@UAEXABVioMouse@@@Z:PROC	; ioWnd::iwm_mousemove
EXTRN	?iwm_mouseleave@ioWnd@@UAEXABVioMouse@@@Z:PROC	; ioWnd::iwm_mouseleave
EXTRN	?iwm_vscroll@ioWnd@@UAEXKH@Z:PROC		; ioWnd::iwm_vscroll
EXTRN	?iwm_wheel@ioWnd@@UAEXH@Z:PROC			; ioWnd::iwm_wheel
EXTRN	?iwm_esc@ioWnd@@UAE_NXZ:PROC			; ioWnd::iwm_esc
EXTRN	?iwm_spacebar@ioWnd@@UAE_NXZ:PROC		; ioWnd::iwm_spacebar
EXTRN	?iwm_gototop@ioWnd@@UAEXXZ:PROC			; ioWnd::iwm_gototop
EXTRN	?iwm_dragenter@ioWnd@@UAE?AW4IWDropEffect@@PAVioDragItem@@ABVioMouse@@@Z:PROC ; ioWnd::iwm_dragenter
EXTRN	?iwm_dragover@ioWnd@@UAE?AW4IWDropEffect@@PAVioDragItem@@ABVioMouse@@@Z:PROC ; ioWnd::iwm_dragover
EXTRN	?iwm_dragleave@ioWnd@@UAEXXZ:PROC		; ioWnd::iwm_dragleave
EXTRN	?iwm_dropitem@ioWnd@@UAE_NPAVioDragItem@@ABVioMouse@@PAV1@@Z:PROC ; ioWnd::iwm_dropitem
EXTRN	?iwm_dropdone@ioWnd@@UAEXPAVioDragItem@@PAV1@_N@Z:PROC ; ioWnd::iwm_dropdone
EXTRN	?IsEXType@ioWnd@@UBE_NXZ:PROC			; ioWnd::IsEXType
EXTRN	?GetWndType@ioWnd@@UBEKXZ:PROC			; ioWnd::GetWndType
EXTRN	?RenderWnd@ioWnd@@UAEXXZ:PROC			; ioWnd::RenderWnd
EXTRN	?SetIDEX@ioWnd@@UAEXAAK_N@Z:PROC		; ioWnd::SetIDEX
EXTRN	?ParseXML@ioWnd@@UAEXAAVioXMLElement@@@Z:PROC	; ioWnd::ParseXML
EXTRN	?GetHeaderFileName@ioWnd@@UAEPBDXZ:PROC		; ioWnd::GetHeaderFileName
EXTRN	?GetTemplateName@ioWnd@@UAEPBDXZ:PROC		; ioWnd::GetTemplateName
EXTRN	?GetDefClassName@ioWnd@@UBEPBDXZ:PROC		; ioWnd::GetDefClassName
EXTRN	?_Clone@ioWnd@@UAEPAV1@XZ:PROC			; ioWnd::_Clone
EXTRN	?Copy@ioWnd@@UAEXPAV1@@Z:PROC			; ioWnd::Copy
EXTRN	?Save@ioWnd@@UAE_NAAVioXMLElement@@@Z:PROC	; ioWnd::Save
EXTRN	?SetSaveData@ioWnd@@UAEXAAVioXMLElement@@@Z:PROC ; ioWnd::SetSaveData
EXTRN	?SetPosX@ioWnd@@UAEXH@Z:PROC			; ioWnd::SetPosX
EXTRN	?SetPosY@ioWnd@@UAEXH@Z:PROC			; ioWnd::SetPosY
EXTRN	?SetWidth@ioWnd@@UAEXH@Z:PROC			; ioWnd::SetWidth
EXTRN	?SetHeight@ioWnd@@UAEXH@Z:PROC			; ioWnd::SetHeight
EXTRN	?GetNumFixedRenderFrame@ioWnd@@UBEHXZ:PROC	; ioWnd::GetNumFixedRenderFrame
EXTRN	?GetFixedRenderFrameType@ioWnd@@UAEPBDH@Z:PROC	; ioWnd::GetFixedRenderFrameType
EXTRN	?GetRenderFrame@ioWnd@@UAEPAPAVioUIRenderElement@@PBD@Z:PROC ; ioWnd::GetRenderFrame
EXTRN	?GetNumFixedRenderImage@ioWnd@@UBEHXZ:PROC	; ioWnd::GetNumFixedRenderImage
EXTRN	?GetFixedRenderImageType@ioWnd@@UAEPBDH@Z:PROC	; ioWnd::GetFixedRenderImageType
EXTRN	?GetRenderImage@ioWnd@@UAEPAPAVioUIRenderElement@@PBD@Z:PROC ; ioWnd::GetRenderImage
EXTRN	?AddEffect@ioWnd@@UAEXABVioHashString@@PAVioUI3DEffectRender@@@Z:PROC ; ioWnd::AddEffect
EXTRN	?GetEffect@ioWnd@@UAEPAVioUI3DEffectRender@@VioHashString@@@Z:PROC ; ioWnd::GetEffect
EXTRN	??_EDisconnectWnd@@UAEPAXI@Z:PROC		; DisconnectWnd::`vector deleting destructor'
;	COMDAT ??_R2ioWnd@@8
; File d:\lost saga for developer\youtube\tutorial\source\src\lsclient\gui\disconnectwnd.cpp
rdata$r	SEGMENT
??_R2ioWnd@@8 DD FLAT:??_R1A@?0A@EA@ioWnd@@8		; ioWnd::`RTTI Base Class Array'
rdata$r	ENDS
;	COMDAT ??_R3ioWnd@@8
rdata$r	SEGMENT
??_R3ioWnd@@8 DD 00H					; ioWnd::`RTTI Class Hierarchy Descriptor'
	DD	00H
	DD	01H
	DD	FLAT:??_R2ioWnd@@8
rdata$r	ENDS
;	COMDAT ??_R0?AVioWnd@@@8
_DATA	SEGMENT
??_R0?AVioWnd@@@8 DD FLAT:??_7type_info@@6B@		; ioWnd `RTTI Type Descriptor'
	DD	00H
	DB	'.?AVioWnd@@', 00H
_DATA	ENDS
;	COMDAT ??_R1A@?0A@EA@ioWnd@@8
rdata$r	SEGMENT
??_R1A@?0A@EA@ioWnd@@8 DD FLAT:??_R0?AVioWnd@@@8	; ioWnd::`RTTI Base Class Descriptor at (0,-1,0,64)'
	DD	00H
	DD	00H
	DD	0ffffffffH
	DD	00H
	DD	040H
	DD	FLAT:??_R3ioWnd@@8
rdata$r	ENDS
;	COMDAT ??_R1A@?0A@EA@DisconnectWnd@@8
rdata$r	SEGMENT
??_R1A@?0A@EA@DisconnectWnd@@8 DD FLAT:??_R0?AVDisconnectWnd@@@8 ; DisconnectWnd::`RTTI Base Class Descriptor at (0,-1,0,64)'
	DD	01H
	DD	00H
	DD	0ffffffffH
	DD	00H
	DD	040H
	DD	FLAT:??_R3DisconnectWnd@@8
rdata$r	ENDS
;	COMDAT ??_R2DisconnectWnd@@8
rdata$r	SEGMENT
??_R2DisconnectWnd@@8 DD FLAT:??_R1A@?0A@EA@DisconnectWnd@@8 ; DisconnectWnd::`RTTI Base Class Array'
	DD	FLAT:??_R1A@?0A@EA@ioWnd@@8
rdata$r	ENDS
;	COMDAT ??_R3DisconnectWnd@@8
rdata$r	SEGMENT
??_R3DisconnectWnd@@8 DD 00H				; DisconnectWnd::`RTTI Class Hierarchy Descriptor'
	DD	00H
	DD	02H
	DD	FLAT:??_R2DisconnectWnd@@8
rdata$r	ENDS
;	COMDAT ??_R0?AVDisconnectWnd@@@8
_DATA	SEGMENT
??_R0?AVDisconnectWnd@@@8 DD FLAT:??_7type_info@@6B@	; DisconnectWnd `RTTI Type Descriptor'
	DD	00H
	DB	'.?AVDisconnectWnd@@', 00H
_DATA	ENDS
;	COMDAT ??_R4DisconnectWnd@@6B@
rdata$r	SEGMENT
??_R4DisconnectWnd@@6B@ DD 00H				; DisconnectWnd::`RTTI Complete Object Locator'
	DD	00H
	DD	00H
	DD	FLAT:??_R0?AVDisconnectWnd@@@8
	DD	FLAT:??_R3DisconnectWnd@@8
rdata$r	ENDS
;	COMDAT ??_7DisconnectWnd@@6B@
CONST	SEGMENT
??_7DisconnectWnd@@6B@ DD FLAT:??_R4DisconnectWnd@@6B@	; DisconnectWnd::`vftable'
	DD	FLAT:?AddRenderFrame@ioWnd@@UAEXABVioHashString@@PAVioUIRenderFrame@@@Z
	DD	FLAT:?AddRenderImage@ioWnd@@UAEXABVioHashString@@PAVioUIRenderImage@@@Z
	DD	FLAT:?AddTooltipHelp@ioWnd@@UAEXABVioHashString@@00@Z
	DD	FLAT:?ParseExtraInfo@ioWnd@@UAEXAAVioXMLElement@@@Z
	DD	FLAT:?AddNamedRenderImage@ioWnd@@UAEXABVioHashString@@PAVioUIRenderImage@@@Z
	DD	FLAT:?RemoveNamedRenderImage@ioWnd@@UAEXABVioHashString@@@Z
	DD	FLAT:?GetNamedRenderImage@ioWnd@@UBEPAVioUIRenderImage@@ABVioHashString@@@Z
	DD	FLAT:?SetWindowAlpha@ioWnd@@UAEXH@Z
	DD	FLAT:?SetActive@ioWnd@@UAEXXZ
	DD	FLAT:?SetInActive@ioWnd@@UAEXXZ
	DD	FLAT:?ClearElementImageList@ioWnd@@UAEXXZ
	DD	FLAT:?SetSize@ioWnd@@UAEXHH@Z
	DD	FLAT:?SetPositionToDefault@ioWnd@@UAEXHH_N0@Z
	DD	FLAT:?IsNeedProcess@ioWnd@@UBE_NXZ
	DD	FLAT:?IsCanMouseReaction@ioWnd@@UBE_NXZ
	DD	FLAT:?AddChild@ioWnd@@UAEXPAV1@@Z
	DD	FLAT:?DeleteChild@ioWnd@@UAEXK@Z
	DD	FLAT:?DeleteAllChild@ioWnd@@UAEXXZ
	DD	FLAT:?OnRenderShowAndHide@ioWnd@@MAE_NXZ
	DD	FLAT:?OnRenderShowAndHideByDefault@ioWnd@@MAE_NK@Z
	DD	FLAT:?OnRenderShowAndHideByTop@ioWnd@@MAE_NK@Z
	DD	FLAT:?OnRenderShowAndHideByDown@ioWnd@@MAE_NK@Z
	DD	FLAT:?OnRender@DisconnectWnd@@MAEXXZ
	DD	FLAT:?OnRenderAfterChild@ioWnd@@MAEXXZ
	DD	FLAT:?OnProcess@DisconnectWnd@@MAEXM@Z
	DD	FLAT:?OnMouseProcess@ioWnd@@MAEXABVioMouse@@@Z
	DD	FLAT:?CheckFrameReSize@ioWnd@@MAEXHHHH@Z
	DD	FLAT:?RenderImageList@ioWnd@@MAEXHHW4UIRenderType@@@Z
	DD	FLAT:?iwm_create@DisconnectWnd@@UAEXXZ
	DD	FLAT:?iwm_destroy@ioWnd@@UAEXXZ
	DD	FLAT:?iwm_lbuttondown@ioWnd@@UAEXABVioMouse@@@Z
	DD	FLAT:?iwm_lbuttonup@ioWnd@@UAEXABVioMouse@@@Z
	DD	FLAT:?iwm_lbuttonDBLCLK@ioWnd@@UAEXABVioMouse@@@Z
	DD	FLAT:?iwm_rbuttondown@ioWnd@@UAEXABVioMouse@@@Z
	DD	FLAT:?iwm_rbuttonup@ioWnd@@UAEXABVioMouse@@@Z
	DD	FLAT:?iwm_command@DisconnectWnd@@UAEXPAVioWnd@@HK@Z
	DD	FLAT:?iwm_mouseover@ioWnd@@UAEXABVioMouse@@@Z
	DD	FLAT:?iwm_mousemove@ioWnd@@UAEXABVioMouse@@@Z
	DD	FLAT:?iwm_mouseleave@ioWnd@@UAEXABVioMouse@@@Z
	DD	FLAT:?iwm_vscroll@ioWnd@@UAEXKH@Z
	DD	FLAT:?iwm_wheel@ioWnd@@UAEXH@Z
	DD	FLAT:?iwm_show@DisconnectWnd@@UAEXXZ
	DD	FLAT:?iwm_hide@DisconnectWnd@@UAEXXZ
	DD	FLAT:?iwm_esc@ioWnd@@UAE_NXZ
	DD	FLAT:?iwm_spacebar@ioWnd@@UAE_NXZ
	DD	FLAT:?iwm_gototop@ioWnd@@UAEXXZ
	DD	FLAT:?iwm_dragenter@ioWnd@@UAE?AW4IWDropEffect@@PAVioDragItem@@ABVioMouse@@@Z
	DD	FLAT:?iwm_dragover@ioWnd@@UAE?AW4IWDropEffect@@PAVioDragItem@@ABVioMouse@@@Z
	DD	FLAT:?iwm_dragleave@ioWnd@@UAEXXZ
	DD	FLAT:?iwm_dropitem@ioWnd@@UAE_NPAVioDragItem@@ABVioMouse@@PAV1@@Z
	DD	FLAT:?iwm_dropdone@ioWnd@@UAEXPAVioDragItem@@PAV1@_N@Z
	DD	FLAT:?IsEXType@ioWnd@@UBE_NXZ
	DD	FLAT:?GetWndType@ioWnd@@UBEKXZ
	DD	FLAT:?RenderWnd@ioWnd@@UAEXXZ
	DD	FLAT:?SetIDEX@ioWnd@@UAEXAAK_N@Z
	DD	FLAT:?ParseXML@ioWnd@@UAEXAAVioXMLElement@@@Z
	DD	FLAT:?GetHeaderFileName@ioWnd@@UAEPBDXZ
	DD	FLAT:?GetTemplateName@ioWnd@@UAEPBDXZ
	DD	FLAT:?GetDefClassName@ioWnd@@UBEPBDXZ
	DD	FLAT:?_Clone@ioWnd@@UAEPAV1@XZ
	DD	FLAT:?Copy@ioWnd@@UAEXPAV1@@Z
	DD	FLAT:?Save@ioWnd@@UAE_NAAVioXMLElement@@@Z
	DD	FLAT:?SetSaveData@ioWnd@@UAEXAAVioXMLElement@@@Z
	DD	FLAT:?SetPosX@ioWnd@@UAEXH@Z
	DD	FLAT:?SetPosY@ioWnd@@UAEXH@Z
	DD	FLAT:?SetWidth@ioWnd@@UAEXH@Z
	DD	FLAT:?SetHeight@ioWnd@@UAEXH@Z
	DD	FLAT:?GetNumFixedRenderFrame@ioWnd@@UBEHXZ
	DD	FLAT:?GetFixedRenderFrameType@ioWnd@@UAEPBDH@Z
	DD	FLAT:?GetRenderFrame@ioWnd@@UAEPAPAVioUIRenderElement@@PBD@Z
	DD	FLAT:?GetNumFixedRenderImage@ioWnd@@UBEHXZ
	DD	FLAT:?GetFixedRenderImageType@ioWnd@@UAEPBDH@Z
	DD	FLAT:?GetRenderImage@ioWnd@@UAEPAPAVioUIRenderElement@@PBD@Z
	DD	FLAT:?AddEffect@ioWnd@@UAEXABVioHashString@@PAVioUI3DEffectRender@@@Z
	DD	FLAT:?GetEffect@ioWnd@@UAEPAVioUI3DEffectRender@@VioHashString@@@Z
	DD	FLAT:??_EDisconnectWnd@@UAEPAXI@Z
; Function compile flags: /Ogsp
CONST	ENDS
;	COMDAT ??0DisconnectWnd@@QAE@XZ
_TEXT	SEGMENT
??0DisconnectWnd@@QAE@XZ PROC				; DisconnectWnd::DisconnectWnd, COMDAT
; _this$ = ecx

; 24   : {

  00000	56		 push	 esi
  00001	8b f1		 mov	 esi, ecx
  00003	ff 15 00 00 00
	00		 call	 DWORD PTR __imp_??0ioWnd@@QAE@XZ

; 25   : 	m_dwShowTime = 0;

  00009	33 c0		 xor	 eax, eax
  0000b	89 86 60 01 00
	00		 mov	 DWORD PTR [esi+352], eax

; 26   : 	m_iType = TYPE_LOCAL_EXIT;
; 27   : 	m_dwMainIndex = 0;

  00011	89 86 68 01 00
	00		 mov	 DWORD PTR [esi+360], eax

; 28   : 	m_dwSubIndex  = 0;

  00017	89 86 6c 01 00
	00		 mov	 DWORD PTR [esi+364], eax
  0001d	c7 06 00 00 00
	00		 mov	 DWORD PTR [esi], OFFSET ??_7DisconnectWnd@@6B@
  00023	c7 86 64 01 00
	00 01 00 00 00	 mov	 DWORD PTR [esi+356], 1

; 29   : }

  0002d	8b c6		 mov	 eax, esi
  0002f	5e		 pop	 esi
  00030	c3		 ret	 0
??0DisconnectWnd@@QAE@XZ ENDP				; DisconnectWnd::DisconnectWnd
_TEXT	ENDS
PUBLIC	??1DisconnectWnd@@UAE@XZ			; DisconnectWnd::~DisconnectWnd
EXTRN	__imp_??1ioWnd@@UAE@XZ:PROC
; Function compile flags: /Ogsp
;	COMDAT ??1DisconnectWnd@@UAE@XZ
_TEXT	SEGMENT
??1DisconnectWnd@@UAE@XZ PROC				; DisconnectWnd::~DisconnectWnd, COMDAT
; _this$ = ecx

; 32   : {

  00000	c7 01 00 00 00
	00		 mov	 DWORD PTR [ecx], OFFSET ??_7DisconnectWnd@@6B@

; 33   : 
; 34   : }

  00006	ff 25 00 00 00
	00		 jmp	 DWORD PTR __imp_??1ioWnd@@UAE@XZ
??1DisconnectWnd@@UAE@XZ ENDP				; DisconnectWnd::~DisconnectWnd
_TEXT	ENDS
PUBLIC	?SetQuestData@DisconnectWnd@@QAEXKK@Z		; DisconnectWnd::SetQuestData
; Function compile flags: /Ogsp
;	COMDAT ?SetQuestData@DisconnectWnd@@QAEXKK@Z
_TEXT	SEGMENT
_dwMainIndex$ = 8					; size = 4
_dwSubIndex$ = 12					; size = 4
?SetQuestData@DisconnectWnd@@QAEXKK@Z PROC		; DisconnectWnd::SetQuestData, COMDAT
; _this$ = ecx

; 37   : {

  00000	55		 push	 ebp
  00001	8b ec		 mov	 ebp, esp

; 38   : 	m_dwMainIndex = dwMainIndex;

  00003	8b 45 08	 mov	 eax, DWORD PTR _dwMainIndex$[ebp]
  00006	89 81 68 01 00
	00		 mov	 DWORD PTR [ecx+360], eax

; 39   : 	m_dwSubIndex  = dwSubIndex;

  0000c	8b 45 0c	 mov	 eax, DWORD PTR _dwSubIndex$[ebp]
  0000f	89 81 6c 01 00
	00		 mov	 DWORD PTR [ecx+364], eax

; 40   : }

  00015	5d		 pop	 ebp
  00016	c2 08 00	 ret	 8
?SetQuestData@DisconnectWnd@@QAEXKK@Z ENDP		; DisconnectWnd::SetQuestData
_TEXT	ENDS
EXTRN	__imp_?HideWnd@ioWnd@@QAEXXZ:PROC
EXTRN	__imp_?GetID@ioWnd@@QBEKXZ:PROC
; Function compile flags: /Ogsp
;	COMDAT ?iwm_command@DisconnectWnd@@UAEXPAVioWnd@@HK@Z
_TEXT	SEGMENT
_pWnd$ = 8						; size = 4
_cmd$ = 12						; size = 4
_param$ = 16						; size = 4
?iwm_command@DisconnectWnd@@UAEXPAVioWnd@@HK@Z PROC	; DisconnectWnd::iwm_command, COMDAT
; _this$ = ecx

; 201  : {

  00000	55		 push	 ebp
  00001	8b ec		 mov	 ebp, esp
  00003	56		 push	 esi
  00004	8b f1		 mov	 esi, ecx

; 202  : 	DWORD dwID = pWnd->GetID();

  00006	8b 4d 08	 mov	 ecx, DWORD PTR _pWnd$[ebp]
  00009	ff 15 00 00 00
	00		 call	 DWORD PTR __imp_?GetID@ioWnd@@QBEKXZ

; 203  : 
; 204  : 	switch( dwID )

  0000f	48		 dec	 eax
  00010	75 0e		 jne	 SHORT $LN1@iwm_comman

; 205  : 	{
; 206  : 	case ID_OK:
; 207  : 		if( cmd == IOBN_BTNUP )

  00012	83 7d 0c 11	 cmp	 DWORD PTR _cmd$[ebp], 17 ; 00000011H
  00016	75 08		 jne	 SHORT $LN1@iwm_comman

; 208  : 		{
; 209  : 			HideWnd();

  00018	8b ce		 mov	 ecx, esi
  0001a	ff 15 00 00 00
	00		 call	 DWORD PTR __imp_?HideWnd@ioWnd@@QAEXXZ
$LN1@iwm_comman:
  00020	5e		 pop	 esi

; 210  : 		}
; 211  : 		break;
; 212  : 	}
; 213  : }

  00021	5d		 pop	 ebp
  00022	c2 0c 00	 ret	 12			; 0000000cH
?iwm_command@DisconnectWnd@@UAEXPAVioWnd@@HK@Z ENDP	; DisconnectWnd::iwm_command
_TEXT	ENDS
PUBLIC	__real@3f266666
PUBLIC	??_C@_0BI@MNPPPIJF@DisconnectWnd?3?3OnRender?$AA@ ; `string'
PUBLIC	??_C@_00CNPNBAHC@?$AA@				; `string'
EXTRN	??1ioComplexStringPrinter@@QAE@XZ:PROC		; ioComplexStringPrinter::~ioComplexStringPrinter
EXTRN	?GetChannelingType@ioMyInfo@@QBE?AW4ChannelingType@@XZ:PROC ; ioMyInfo::GetChannelingType
EXTRN	?GetSingleton@ioMyInfo@@SAAAV1@XZ:PROC		; ioMyInfo::GetSingleton
EXTRN	?AddTextPiece@ioComplexStringPrinter@@QAEXMPBDH@Z:PROC ; ioComplexStringPrinter::AddTextPiece
EXTRN	__imp_?GetLoopSec@ioFrameTimer@@QBEKXZ:PROC
EXTRN	__imp_?GetSingleton@ioFrameTimer@@SAAAV1@XZ:PROC
EXTRN	?ClearList@ioComplexStringPrinter@@QAEXXZ:PROC	; ioComplexStringPrinter::ClearList
EXTRN	?PrintFullText@ioComplexStringPrinter@@QAEXMMW4TextAlignType@@E@Z:PROC ; ioComplexStringPrinter::PrintFullText
EXTRN	?AddTextPiece@ioComplexStringPrinter@@QAAXMPBDZZ:PROC ; ioComplexStringPrinter::AddTextPiece
EXTRN	__imp_?GetString@ioStringManager@@QAEPADPBD0HW4FileNamePrefix@1@@Z:PROC
EXTRN	__imp_?GetSingleton@ioStringManager@@SAAAV1@XZ:PROC
EXTRN	?SetTextColor@ioComplexStringPrinter@@QAEXK@Z:PROC ; ioComplexStringPrinter::SetTextColor
EXTRN	?SetBkColor@ioComplexStringPrinter@@QAEXHHH@Z:PROC ; ioComplexStringPrinter::SetBkColor
EXTRN	?SetTextStyle@ioComplexStringPrinter@@QAEXW4TextStyle@@@Z:PROC ; ioComplexStringPrinter::SetTextStyle
EXTRN	??0ioComplexStringPrinter@@QAE@XZ:PROC		; ioComplexStringPrinter::ioComplexStringPrinter
EXTRN	__imp_?GetDerivedPosY@ioWnd@@QBEHXZ:PROC
EXTRN	__imp_?GetDerivedPosX@ioWnd@@QBEHXZ:PROC
EXTRN	__imp_?GetWidth@ioWnd@@QBEHXZ:PROC
EXTRN	__imp_?OnRender@ioWnd@@MAEXXZ:PROC
EXTRN	___CxxFrameHandler3:PROC
EXTRN	@__security_check_cookie@4:PROC
EXTRN	__fltused:DWORD
EXTRN	__EH_epilog3:PROC
EXTRN	__EH_prolog3:PROC
;	COMDAT __real@3f266666
CONST	SEGMENT
__real@3f266666 DD 03f266666r			; 0.65
CONST	ENDS
;	COMDAT ??_C@_0BI@MNPPPIJF@DisconnectWnd?3?3OnRender?$AA@
CONST	SEGMENT
??_C@_0BI@MNPPPIJF@DisconnectWnd?3?3OnRender?$AA@ DB 'DisconnectWnd::OnRe'
	DB	'nder', 00H					; `string'
CONST	ENDS
;	COMDAT ??_C@_00CNPNBAHC@?$AA@
CONST	SEGMENT
??_C@_00CNPNBAHC@?$AA@ DB 00H				; `string'
CONST	ENDS
;	COMDAT xdata$x
xdata$x	SEGMENT
__unwindtable$?OnRender@DisconnectWnd@@MAEXXZ DD 0ffffffffH
	DD	FLAT:__unwindfunclet$?OnRender@DisconnectWnd@@MAEXXZ$0
__ehfuncinfo$?OnRender@DisconnectWnd@@MAEXXZ DD 019930522H
	DD	01H
	DD	FLAT:__unwindtable$?OnRender@DisconnectWnd@@MAEXXZ
	DD	2 DUP(00H)
	DD	2 DUP(00H)
	DD	00H
	DD	01H
; Function compile flags: /Ogsp
xdata$x	ENDS
;	COMDAT ?OnRender@DisconnectWnd@@MAEXXZ
_TEXT	SEGMENT
_kPrinter$ = -56					; size = 32
_this$ = -24						; size = 4
tv516 = -20						; size = 4
_iXPos$ = -20						; size = 4
_iYPos$ = -16						; size = 4
__$EHRec$ = -12						; size = 12
?OnRender@DisconnectWnd@@MAEXXZ PROC			; DisconnectWnd::OnRender, COMDAT
; _this$ = ecx

; 216  : {

  00000	6a 2c		 push	 44			; 0000002cH
  00002	b8 00 00 00 00	 mov	 eax, __ehhandler$?OnRender@DisconnectWnd@@MAEXXZ
  00007	e8 00 00 00 00	 call	 __EH_prolog3
  0000c	8b f1		 mov	 esi, ecx
  0000e	89 75 e8	 mov	 DWORD PTR _this$[ebp], esi

; 217  :  	ioWnd::OnRender();

  00011	ff 15 00 00 00
	00		 call	 DWORD PTR __imp_?OnRender@ioWnd@@MAEXXZ

; 218  :  
; 219  : 	int iXPos = GetDerivedPosX() + GetWidth() / 2;

  00017	8b ce		 mov	 ecx, esi
  00019	ff 15 00 00 00
	00		 call	 DWORD PTR __imp_?GetWidth@ioWnd@@QBEHXZ
  0001f	99		 cdq
  00020	2b c2		 sub	 eax, edx
  00022	8b f8		 mov	 edi, eax
  00024	8b ce		 mov	 ecx, esi
  00026	d1 ff		 sar	 edi, 1
  00028	ff 15 00 00 00
	00		 call	 DWORD PTR __imp_?GetDerivedPosX@ioWnd@@QBEHXZ
  0002e	03 c7		 add	 eax, edi

; 220  : 	int iYPos = GetDerivedPosY() + 144;

  00030	8b ce		 mov	 ecx, esi
  00032	89 45 ec	 mov	 DWORD PTR _iXPos$[ebp], eax
  00035	ff 15 00 00 00
	00		 call	 DWORD PTR __imp_?GetDerivedPosY@ioWnd@@QBEHXZ
  0003b	05 90 00 00 00	 add	 eax, 144		; 00000090H

; 221  : 
; 222  : 	ioComplexStringPrinter kPrinter;

  00040	8d 4d c8	 lea	 ecx, DWORD PTR _kPrinter$[ebp]
  00043	89 45 f0	 mov	 DWORD PTR _iYPos$[ebp], eax
  00046	e8 00 00 00 00	 call	 ??0ioComplexStringPrinter@@QAE@XZ ; ioComplexStringPrinter::ioComplexStringPrinter
  0004b	33 f6		 xor	 esi, esi

; 223  : 	kPrinter.SetTextStyle( TS_NORMAL );

  0004d	56		 push	 esi
  0004e	8d 4d c8	 lea	 ecx, DWORD PTR _kPrinter$[ebp]
  00051	89 75 fc	 mov	 DWORD PTR __$EHRec$[ebp+8], esi
  00054	e8 00 00 00 00	 call	 ?SetTextStyle@ioComplexStringPrinter@@QAEXW4TextStyle@@@Z ; ioComplexStringPrinter::SetTextStyle

; 224  : 	kPrinter.SetBkColor( 0, 0, 0 );

  00059	56		 push	 esi
  0005a	56		 push	 esi
  0005b	56		 push	 esi
  0005c	8d 4d c8	 lea	 ecx, DWORD PTR _kPrinter$[ebp]
  0005f	e8 00 00 00 00	 call	 ?SetBkColor@ioComplexStringPrinter@@QAEXHHH@Z ; ioComplexStringPrinter::SetBkColor

; 225  : 	kPrinter.SetTextColor( TCT_DEFAULT_DARKGRAY );

  00064	68 3a 3a 3a ff	 push	 -12961222		; ff3a3a3aH
  00069	8d 4d c8	 lea	 ecx, DWORD PTR _kPrinter$[ebp]
  0006c	e8 00 00 00 00	 call	 ?SetTextColor@ioComplexStringPrinter@@QAEXK@Z ; ioComplexStringPrinter::SetTextColor

; 226  : 	kPrinter.AddTextPiece( FONT_SIZE_13, STR(1) );

  00071	56		 push	 esi
  00072	8b 35 00 00 00
	00		 mov	 esi, DWORD PTR __imp_?GetSingleton@ioStringManager@@SAAAV1@XZ
  00078	6a 01		 push	 1
  0007a	68 00 00 00 00	 push	 OFFSET ??_C@_00CNPNBAHC@?$AA@
  0007f	bb 00 00 00 00	 mov	 ebx, OFFSET ??_C@_0BI@MNPPPIJF@DisconnectWnd?3?3OnRender?$AA@
  00084	53		 push	 ebx
  00085	ff d6		 call	 esi
  00087	8b 3d 00 00 00
	00		 mov	 edi, DWORD PTR __imp_?GetString@ioStringManager@@QAEPADPBD0HW4FileNamePrefix@1@@Z
  0008d	8b c8		 mov	 ecx, eax
  0008f	ff d7		 call	 edi
  00091	f3 0f 10 05 00
	00 00 00	 movss	 xmm0, DWORD PTR __real@3f266666
  00099	50		 push	 eax
  0009a	51		 push	 ecx
  0009b	8d 45 c8	 lea	 eax, DWORD PTR _kPrinter$[ebp]
  0009e	f3 0f 11 04 24	 movss	 DWORD PTR [esp], xmm0
  000a3	50		 push	 eax
  000a4	e8 00 00 00 00	 call	 ?AddTextPiece@ioComplexStringPrinter@@QAAXMPBDZZ ; ioComplexStringPrinter::AddTextPiece

; 227  : 	kPrinter.PrintFullText( iXPos, iYPos, TAT_CENTER );

  000a9	66 0f 6e 45 ec	 movd	 xmm0, DWORD PTR _iXPos$[ebp]
  000ae	66 0f 6e 4d f0	 movd	 xmm1, DWORD PTR _iYPos$[ebp]
  000b3	83 c4 0c	 add	 esp, 12			; 0000000cH
  000b6	68 ff 00 00 00	 push	 255			; 000000ffH
  000bb	6a 01		 push	 1
  000bd	51		 push	 ecx
  000be	51		 push	 ecx
  000bf	0f 5b c0	 cvtdq2ps xmm0, xmm0
  000c2	0f 5b c9	 cvtdq2ps xmm1, xmm1
  000c5	f3 0f 11 4c 24
	04		 movss	 DWORD PTR [esp+4], xmm1
  000cb	8d 4d c8	 lea	 ecx, DWORD PTR _kPrinter$[ebp]
  000ce	f3 0f 11 45 ec	 movss	 DWORD PTR tv516[ebp], xmm0
  000d3	f3 0f 11 04 24	 movss	 DWORD PTR [esp], xmm0
  000d8	e8 00 00 00 00	 call	 ?PrintFullText@ioComplexStringPrinter@@QAEXMMW4TextAlignType@@E@Z ; ioComplexStringPrinter::PrintFullText

; 228  : 	kPrinter.ClearList();

  000dd	8d 4d c8	 lea	 ecx, DWORD PTR _kPrinter$[ebp]
  000e0	e8 00 00 00 00	 call	 ?ClearList@ioComplexStringPrinter@@QAEXXZ ; ioComplexStringPrinter::ClearList

; 229  : 
; 230  : 	kPrinter.SetTextStyle( TS_NORMAL );

  000e5	6a 00		 push	 0
  000e7	8d 4d c8	 lea	 ecx, DWORD PTR _kPrinter$[ebp]
  000ea	e8 00 00 00 00	 call	 ?SetTextStyle@ioComplexStringPrinter@@QAEXW4TextStyle@@@Z ; ioComplexStringPrinter::SetTextStyle

; 231  : 	kPrinter.SetBkColor( 0, 0, 0 );

  000ef	33 c0		 xor	 eax, eax
  000f1	50		 push	 eax
  000f2	50		 push	 eax
  000f3	50		 push	 eax
  000f4	8d 4d c8	 lea	 ecx, DWORD PTR _kPrinter$[ebp]
  000f7	e8 00 00 00 00	 call	 ?SetBkColor@ioComplexStringPrinter@@QAEXHHH@Z ; ioComplexStringPrinter::SetBkColor

; 232  : 	kPrinter.SetTextColor( TCT_DEFAULT_RED );

  000fc	68 00 16 b9 ff	 push	 -4647424		; ffb91600H
  00101	8d 4d c8	 lea	 ecx, DWORD PTR _kPrinter$[ebp]
  00104	e8 00 00 00 00	 call	 ?SetTextColor@ioComplexStringPrinter@@QAEXK@Z ; ioComplexStringPrinter::SetTextColor

; 233  : 	int iRemainSec = 10 - (FRAMEGETTIME() - m_dwShowTime) / 1000;

  00109	ff 15 00 00 00
	00		 call	 DWORD PTR __imp_?GetSingleton@ioFrameTimer@@SAAAV1@XZ
  0010f	8b c8		 mov	 ecx, eax
  00111	ff 15 00 00 00
	00		 call	 DWORD PTR __imp_?GetLoopSec@ioFrameTimer@@QBEKXZ
  00117	8b 4d e8	 mov	 ecx, DWORD PTR _this$[ebp]
  0011a	2b 81 60 01 00
	00		 sub	 eax, DWORD PTR [ecx+352]
  00120	33 d2		 xor	 edx, edx
  00122	b9 e8 03 00 00	 mov	 ecx, 1000		; 000003e8H
  00127	f7 f1		 div	 ecx
  00129	6a 0a		 push	 10			; 0000000aH
  0012b	59		 pop	 ecx
  0012c	2b c8		 sub	 ecx, eax

; 234  : 	iRemainSec = max( 0, iRemainSec );

  0012e	79 02		 jns	 SHORT $LN24@OnRender
  00130	33 c9		 xor	 ecx, ecx
$LN24@OnRender:

; 235  : 	kPrinter.AddTextPiece( FONT_SIZE_13, STR(2), iRemainSec );

  00132	51		 push	 ecx
  00133	6a 00		 push	 0
  00135	6a 02		 push	 2
  00137	68 00 00 00 00	 push	 OFFSET ??_C@_00CNPNBAHC@?$AA@
  0013c	53		 push	 ebx
  0013d	ff d6		 call	 esi
  0013f	8b c8		 mov	 ecx, eax
  00141	ff d7		 call	 edi
  00143	f3 0f 10 05 00
	00 00 00	 movss	 xmm0, DWORD PTR __real@3f266666
  0014b	50		 push	 eax
  0014c	51		 push	 ecx
  0014d	8d 4d c8	 lea	 ecx, DWORD PTR _kPrinter$[ebp]
  00150	f3 0f 11 04 24	 movss	 DWORD PTR [esp], xmm0
  00155	e8 00 00 00 00	 call	 ?AddTextPiece@ioComplexStringPrinter@@QAEXMPBDH@Z ; ioComplexStringPrinter::AddTextPiece

; 236  : 	kPrinter.SetTextColor( TCT_DEFAULT_GRAY );

  0015a	68 6e 6e 6e ff	 push	 -9539986		; ff6e6e6eH
  0015f	8d 4d c8	 lea	 ecx, DWORD PTR _kPrinter$[ebp]
  00162	e8 00 00 00 00	 call	 ?SetTextColor@ioComplexStringPrinter@@QAEXK@Z ; ioComplexStringPrinter::SetTextColor

; 237  : 	kPrinter.AddTextPiece( FONT_SIZE_13, STR(3) );

  00167	6a 00		 push	 0
  00169	6a 03		 push	 3
  0016b	68 00 00 00 00	 push	 OFFSET ??_C@_00CNPNBAHC@?$AA@
  00170	53		 push	 ebx
  00171	ff d6		 call	 esi
  00173	8b c8		 mov	 ecx, eax
  00175	ff d7		 call	 edi
  00177	f3 0f 10 05 00
	00 00 00	 movss	 xmm0, DWORD PTR __real@3f266666
  0017f	50		 push	 eax
  00180	51		 push	 ecx
  00181	8d 45 c8	 lea	 eax, DWORD PTR _kPrinter$[ebp]
  00184	f3 0f 11 04 24	 movss	 DWORD PTR [esp], xmm0
  00189	50		 push	 eax
  0018a	e8 00 00 00 00	 call	 ?AddTextPiece@ioComplexStringPrinter@@QAAXMPBDZZ ; ioComplexStringPrinter::AddTextPiece

; 238  : 	kPrinter.PrintFullText( iXPos, iYPos + 20, TAT_CENTER );

  0018f	8b 45 f0	 mov	 eax, DWORD PTR _iYPos$[ebp]
  00192	83 c4 0c	 add	 esp, 12			; 0000000cH
  00195	68 ff 00 00 00	 push	 255			; 000000ffH
  0019a	6a 01		 push	 1
  0019c	51		 push	 ecx
  0019d	51		 push	 ecx
  0019e	83 c0 14	 add	 eax, 20			; 00000014H
  001a1	0f 57 c0	 xorps	 xmm0, xmm0
  001a4	f3 0f 2a c0	 cvtsi2ss xmm0, eax
  001a8	f3 0f 11 44 24
	04		 movss	 DWORD PTR [esp+4], xmm0
  001ae	f3 0f 10 45 ec	 movss	 xmm0, DWORD PTR tv516[ebp]
  001b3	8d 4d c8	 lea	 ecx, DWORD PTR _kPrinter$[ebp]
  001b6	f3 0f 11 04 24	 movss	 DWORD PTR [esp], xmm0
  001bb	e8 00 00 00 00	 call	 ?PrintFullText@ioComplexStringPrinter@@QAEXMMW4TextAlignType@@E@Z ; ioComplexStringPrinter::PrintFullText

; 239  : 	kPrinter.ClearList();

  001c0	8d 4d c8	 lea	 ecx, DWORD PTR _kPrinter$[ebp]
  001c3	e8 00 00 00 00	 call	 ?ClearList@ioComplexStringPrinter@@QAEXXZ ; ioComplexStringPrinter::ClearList

; 240  :     
; 241  : 	kPrinter.SetTextStyle( TS_NORMAL );

  001c8	6a 00		 push	 0
  001ca	8d 4d c8	 lea	 ecx, DWORD PTR _kPrinter$[ebp]
  001cd	e8 00 00 00 00	 call	 ?SetTextStyle@ioComplexStringPrinter@@QAEXW4TextStyle@@@Z ; ioComplexStringPrinter::SetTextStyle

; 242  : 	kPrinter.SetBkColor( 0, 0, 0 );

  001d2	33 c0		 xor	 eax, eax
  001d4	50		 push	 eax
  001d5	50		 push	 eax
  001d6	50		 push	 eax
  001d7	8d 4d c8	 lea	 ecx, DWORD PTR _kPrinter$[ebp]
  001da	e8 00 00 00 00	 call	 ?SetBkColor@ioComplexStringPrinter@@QAEXHHH@Z ; ioComplexStringPrinter::SetBkColor

; 243  : 	kPrinter.SetTextColor( TCT_DEFAULT_GRAY );

  001df	68 6e 6e 6e ff	 push	 -9539986		; ff6e6e6eH
  001e4	8d 4d c8	 lea	 ecx, DWORD PTR _kPrinter$[ebp]
  001e7	e8 00 00 00 00	 call	 ?SetTextColor@ioComplexStringPrinter@@QAEXK@Z ; ioComplexStringPrinter::SetTextColor

; 244  : 	if( m_iType == TYPE_LANCABLE_EXIT )

  001ec	8b 45 e8	 mov	 eax, DWORD PTR _this$[ebp]
  001ef	8b 80 64 01 00
	00		 mov	 eax, DWORD PTR [eax+356]
  001f5	83 f8 03	 cmp	 eax, 3
  001f8	75 09		 jne	 SHORT $LN21@OnRender

; 245  : 	{
; 246  : 		kPrinter.AddTextPiece( FONT_SIZE_13, STR(4) );

  001fa	6a 00		 push	 0
  001fc	6a 04		 push	 4
  001fe	e9 ad 02 00 00	 jmp	 $LN29@OnRender
$LN21@OnRender:

; 247  : 	}
; 248  : 	else if ( m_iType == TYPE_XTRAP_EXIT )

  00203	83 f8 04	 cmp	 eax, 4
  00206	75 09		 jne	 SHORT $LN19@OnRender

; 249  : 	{
; 250  : 		kPrinter.AddTextPiece( FONT_SIZE_13, STR(5) );

  00208	6a 00		 push	 0
  0020a	6a 05		 push	 5
  0020c	e9 9f 02 00 00	 jmp	 $LN29@OnRender
$LN19@OnRender:

; 251  : 	}
; 252  : 	else if( m_iType == TYPE_BLOCK_EXIT )

  00211	83 f8 05	 cmp	 eax, 5
  00214	75 09		 jne	 SHORT $LN17@OnRender

; 253  : 	{
; 254  : 		kPrinter.AddTextPiece( FONT_SIZE_13, STR(6) );

  00216	6a 00		 push	 0
  00218	6a 06		 push	 6
  0021a	e9 91 02 00 00	 jmp	 $LN29@OnRender
$LN17@OnRender:

; 255  : 	}
; 256  : 	else if( m_iType == TYPE_SERVER_TO_CLIENT_PING_EXIT )

  0021f	83 f8 06	 cmp	 eax, 6
  00222	75 09		 jne	 SHORT $LN15@OnRender

; 257  : 	{
; 258  : 		kPrinter.AddTextPiece( FONT_SIZE_13, STR(7) );

  00224	6a 00		 push	 0
  00226	6a 07		 push	 7
  00228	e9 83 02 00 00	 jmp	 $LN29@OnRender
$LN15@OnRender:

; 259  : 	}
; 260  : 	else if( m_iType == TYPE_NPROTECT_EXIT )

  0022d	83 f8 07	 cmp	 eax, 7
  00230	75 09		 jne	 SHORT $LN13@OnRender

; 261  : 	{
; 262  : 		kPrinter.AddTextPiece( FONT_SIZE_13, STR(9) );

  00232	6a 00		 push	 0
  00234	6a 09		 push	 9
  00236	e9 75 02 00 00	 jmp	 $LN29@OnRender
$LN13@OnRender:

; 263  : 	}
; 264  : 	else if( m_iType == TYPE_QUEST_ABUSE_EXIT )

  0023b	83 f8 08	 cmp	 eax, 8
  0023e	75 09		 jne	 SHORT $LN11@OnRender

; 265  : 	{
; 266  : 		kPrinter.AddTextPiece( FONT_SIZE_13, STR(13) );

  00240	6a 00		 push	 0
  00242	6a 0d		 push	 13			; 0000000dH
  00244	e9 67 02 00 00	 jmp	 $LN29@OnRender
$LN11@OnRender:

; 267  : 	}
; 268  : 	else if( m_iType == TYPE_SHUT_DOWN_EXIT )

  00249	83 f8 09	 cmp	 eax, 9
  0024c	0f 85 12 01 00
	00		 jne	 $LN9@OnRender

; 269  : 	{
; 270  : 		if( g_MyInfo.GetChannelingType() == CNT_NEXON )

  00252	e8 00 00 00 00	 call	 ?GetSingleton@ioMyInfo@@SAAAV1@XZ ; ioMyInfo::GetSingleton
  00257	8b c8		 mov	 ecx, eax
  00259	e8 00 00 00 00	 call	 ?GetChannelingType@ioMyInfo@@QBE?AW4ChannelingType@@XZ ; ioMyInfo::GetChannelingType

; 271  : 		{
; 272  : 			kPrinter.AddTextPiece( FONT_SIZE_13, STR(17) );

  0025e	6a 00		 push	 0
  00260	3d 20 03 00 00	 cmp	 eax, 800		; 00000320H
  00265	75 34		 jne	 SHORT $LN8@OnRender
  00267	6a 11		 push	 17			; 00000011H
$LN33@OnRender:
  00269	68 00 00 00 00	 push	 OFFSET ??_C@_00CNPNBAHC@?$AA@
  0026e	53		 push	 ebx
  0026f	ff d6		 call	 esi
  00271	8b c8		 mov	 ecx, eax
  00273	ff d7		 call	 edi
  00275	f3 0f 10 05 00
	00 00 00	 movss	 xmm0, DWORD PTR __real@3f266666
  0027d	50		 push	 eax
  0027e	51		 push	 ecx
  0027f	8d 45 c8	 lea	 eax, DWORD PTR _kPrinter$[ebp]
  00282	f3 0f 11 04 24	 movss	 DWORD PTR [esp], xmm0
  00287	50		 push	 eax
  00288	e8 00 00 00 00	 call	 ?AddTextPiece@ioComplexStringPrinter@@QAAXMPBDZZ ; ioComplexStringPrinter::AddTextPiece

; 273  : 			kPrinter.PrintFullText( iXPos, iYPos + 40, TAT_CENTER );

  0028d	8b 45 f0	 mov	 eax, DWORD PTR _iYPos$[ebp]
  00290	83 c4 0c	 add	 esp, 12			; 0000000cH
  00293	83 c0 28	 add	 eax, 40			; 00000028H

; 274  : 			kPrinter.ClearList();
; 275  : 		}
; 276  : 		else

  00296	e9 df 01 00 00	 jmp	 $LN32@OnRender
$LN8@OnRender:

; 277  : 		{
; 278  : 			kPrinter.AddTextPiece( FONT_SIZE_13, STR(10) );

  0029b	6a 0a		 push	 10			; 0000000aH
  0029d	68 00 00 00 00	 push	 OFFSET ??_C@_00CNPNBAHC@?$AA@
  002a2	53		 push	 ebx
  002a3	ff d6		 call	 esi
  002a5	8b c8		 mov	 ecx, eax
  002a7	ff d7		 call	 edi
  002a9	f3 0f 10 05 00
	00 00 00	 movss	 xmm0, DWORD PTR __real@3f266666
  002b1	50		 push	 eax
  002b2	51		 push	 ecx
  002b3	8d 45 c8	 lea	 eax, DWORD PTR _kPrinter$[ebp]
  002b6	f3 0f 11 04 24	 movss	 DWORD PTR [esp], xmm0
  002bb	50		 push	 eax
  002bc	e8 00 00 00 00	 call	 ?AddTextPiece@ioComplexStringPrinter@@QAAXMPBDZZ ; ioComplexStringPrinter::AddTextPiece

; 279  : 			kPrinter.PrintFullText( iXPos, iYPos + 40, TAT_CENTER );

  002c1	8b 45 f0	 mov	 eax, DWORD PTR _iYPos$[ebp]
  002c4	83 c4 0c	 add	 esp, 12			; 0000000cH
  002c7	68 ff 00 00 00	 push	 255			; 000000ffH
  002cc	6a 01		 push	 1
  002ce	51		 push	 ecx
  002cf	51		 push	 ecx
  002d0	83 c0 28	 add	 eax, 40			; 00000028H
  002d3	0f 57 c0	 xorps	 xmm0, xmm0
  002d6	f3 0f 2a c0	 cvtsi2ss xmm0, eax
  002da	f3 0f 11 44 24
	04		 movss	 DWORD PTR [esp+4], xmm0
  002e0	f3 0f 10 45 ec	 movss	 xmm0, DWORD PTR tv516[ebp]
  002e5	8d 4d c8	 lea	 ecx, DWORD PTR _kPrinter$[ebp]
  002e8	f3 0f 11 04 24	 movss	 DWORD PTR [esp], xmm0
  002ed	e8 00 00 00 00	 call	 ?PrintFullText@ioComplexStringPrinter@@QAEXMMW4TextAlignType@@E@Z ; ioComplexStringPrinter::PrintFullText

; 280  : 			kPrinter.ClearList();

  002f2	8d 4d c8	 lea	 ecx, DWORD PTR _kPrinter$[ebp]
  002f5	e8 00 00 00 00	 call	 ?ClearList@ioComplexStringPrinter@@QAEXXZ ; ioComplexStringPrinter::ClearList

; 281  : 			kPrinter.AddTextPiece( FONT_SIZE_13, STR(11) );

  002fa	6a 00		 push	 0
  002fc	6a 0b		 push	 11			; 0000000bH
  002fe	68 00 00 00 00	 push	 OFFSET ??_C@_00CNPNBAHC@?$AA@
  00303	53		 push	 ebx
  00304	ff d6		 call	 esi
  00306	8b c8		 mov	 ecx, eax
  00308	ff d7		 call	 edi
  0030a	f3 0f 10 05 00
	00 00 00	 movss	 xmm0, DWORD PTR __real@3f266666
  00312	50		 push	 eax
  00313	51		 push	 ecx
  00314	8d 45 c8	 lea	 eax, DWORD PTR _kPrinter$[ebp]
  00317	f3 0f 11 04 24	 movss	 DWORD PTR [esp], xmm0
  0031c	50		 push	 eax
  0031d	e8 00 00 00 00	 call	 ?AddTextPiece@ioComplexStringPrinter@@QAAXMPBDZZ ; ioComplexStringPrinter::AddTextPiece

; 282  : 			kPrinter.PrintFullText( iXPos, iYPos + 60, TAT_CENTER );

  00322	8b 45 f0	 mov	 eax, DWORD PTR _iYPos$[ebp]
  00325	83 c4 0c	 add	 esp, 12			; 0000000cH
  00328	68 ff 00 00 00	 push	 255			; 000000ffH
  0032d	6a 01		 push	 1
  0032f	51		 push	 ecx
  00330	51		 push	 ecx
  00331	83 c0 3c	 add	 eax, 60			; 0000003cH
  00334	0f 57 c0	 xorps	 xmm0, xmm0
  00337	f3 0f 2a c0	 cvtsi2ss xmm0, eax
  0033b	f3 0f 11 44 24
	04		 movss	 DWORD PTR [esp+4], xmm0
  00341	f3 0f 10 45 ec	 movss	 xmm0, DWORD PTR tv516[ebp]
  00346	8d 4d c8	 lea	 ecx, DWORD PTR _kPrinter$[ebp]
  00349	f3 0f 11 04 24	 movss	 DWORD PTR [esp], xmm0
  0034e	e8 00 00 00 00	 call	 ?PrintFullText@ioComplexStringPrinter@@QAEXMMW4TextAlignType@@E@Z ; ioComplexStringPrinter::PrintFullText

; 283  : 			kPrinter.ClearList();

  00353	8d 4d c8	 lea	 ecx, DWORD PTR _kPrinter$[ebp]
  00356	e8 00 00 00 00	 call	 ?ClearList@ioComplexStringPrinter@@QAEXXZ ; ioComplexStringPrinter::ClearList

; 284  : 			kPrinter.AddTextPiece( FONT_SIZE_13, STR(12) );

  0035b	6a 00		 push	 0
  0035d	6a 0c		 push	 12			; 0000000cH

; 285  : 			kPrinter.PrintFullText( iXPos, iYPos + 80, TAT_CENTER );
; 286  : 			kPrinter.ClearList();
; 287  : 		}

  0035f	e9 e9 00 00 00	 jmp	 $LN30@OnRender
$LN9@OnRender:

; 288  : 	}
; 289  : 	else if( m_iType == TYPE_SELECT_SHUT_DOWN_EXIT )

  00364	83 f8 0a	 cmp	 eax, 10			; 0000000aH
  00367	0f 85 3f 01 00
	00		 jne	 $LN5@OnRender

; 290  : 	{
; 291  : 		if( g_MyInfo.GetChannelingType() == CNT_NEXON )

  0036d	e8 00 00 00 00	 call	 ?GetSingleton@ioMyInfo@@SAAAV1@XZ ; ioMyInfo::GetSingleton
  00372	8b c8		 mov	 ecx, eax
  00374	e8 00 00 00 00	 call	 ?GetChannelingType@ioMyInfo@@QBE?AW4ChannelingType@@XZ ; ioMyInfo::GetChannelingType

; 292  : 		{
; 293  : 			kPrinter.AddTextPiece( FONT_SIZE_13, STR(18) );

  00379	6a 00		 push	 0
  0037b	3d 20 03 00 00	 cmp	 eax, 800		; 00000320H
  00380	75 07		 jne	 SHORT $LN4@OnRender
  00382	6a 12		 push	 18			; 00000012H

; 294  : 			kPrinter.PrintFullText( iXPos, iYPos + 40, TAT_CENTER );
; 295  : 			kPrinter.ClearList();
; 296  : 		}
; 297  : 		else

  00384	e9 e0 fe ff ff	 jmp	 $LN33@OnRender
$LN4@OnRender:

; 298  : 		{
; 299  : 			kPrinter.AddTextPiece( FONT_SIZE_13, STR(14) );

  00389	6a 0e		 push	 14			; 0000000eH
  0038b	68 00 00 00 00	 push	 OFFSET ??_C@_00CNPNBAHC@?$AA@
  00390	53		 push	 ebx
  00391	ff d6		 call	 esi
  00393	8b c8		 mov	 ecx, eax
  00395	ff d7		 call	 edi
  00397	f3 0f 10 05 00
	00 00 00	 movss	 xmm0, DWORD PTR __real@3f266666
  0039f	50		 push	 eax
  003a0	51		 push	 ecx
  003a1	8d 45 c8	 lea	 eax, DWORD PTR _kPrinter$[ebp]
  003a4	f3 0f 11 04 24	 movss	 DWORD PTR [esp], xmm0
  003a9	50		 push	 eax
  003aa	e8 00 00 00 00	 call	 ?AddTextPiece@ioComplexStringPrinter@@QAAXMPBDZZ ; ioComplexStringPrinter::AddTextPiece

; 300  : 			kPrinter.PrintFullText( iXPos, iYPos + 40, TAT_CENTER );

  003af	8b 45 f0	 mov	 eax, DWORD PTR _iYPos$[ebp]
  003b2	83 c4 0c	 add	 esp, 12			; 0000000cH
  003b5	68 ff 00 00 00	 push	 255			; 000000ffH
  003ba	6a 01		 push	 1
  003bc	51		 push	 ecx
  003bd	51		 push	 ecx
  003be	83 c0 28	 add	 eax, 40			; 00000028H
  003c1	0f 57 c0	 xorps	 xmm0, xmm0
  003c4	f3 0f 2a c0	 cvtsi2ss xmm0, eax
  003c8	f3 0f 11 44 24
	04		 movss	 DWORD PTR [esp+4], xmm0
  003ce	f3 0f 10 45 ec	 movss	 xmm0, DWORD PTR tv516[ebp]
  003d3	8d 4d c8	 lea	 ecx, DWORD PTR _kPrinter$[ebp]
  003d6	f3 0f 11 04 24	 movss	 DWORD PTR [esp], xmm0
  003db	e8 00 00 00 00	 call	 ?PrintFullText@ioComplexStringPrinter@@QAEXMMW4TextAlignType@@E@Z ; ioComplexStringPrinter::PrintFullText

; 301  : 			kPrinter.ClearList();

  003e0	8d 4d c8	 lea	 ecx, DWORD PTR _kPrinter$[ebp]
  003e3	e8 00 00 00 00	 call	 ?ClearList@ioComplexStringPrinter@@QAEXXZ ; ioComplexStringPrinter::ClearList

; 302  : 			kPrinter.AddTextPiece( FONT_SIZE_13, STR(15) );

  003e8	6a 00		 push	 0
  003ea	6a 0f		 push	 15			; 0000000fH
  003ec	68 00 00 00 00	 push	 OFFSET ??_C@_00CNPNBAHC@?$AA@
  003f1	53		 push	 ebx
  003f2	ff d6		 call	 esi
  003f4	8b c8		 mov	 ecx, eax
  003f6	ff d7		 call	 edi
  003f8	f3 0f 10 05 00
	00 00 00	 movss	 xmm0, DWORD PTR __real@3f266666
  00400	50		 push	 eax
  00401	51		 push	 ecx
  00402	8d 45 c8	 lea	 eax, DWORD PTR _kPrinter$[ebp]
  00405	f3 0f 11 04 24	 movss	 DWORD PTR [esp], xmm0
  0040a	50		 push	 eax
  0040b	e8 00 00 00 00	 call	 ?AddTextPiece@ioComplexStringPrinter@@QAAXMPBDZZ ; ioComplexStringPrinter::AddTextPiece

; 303  : 			kPrinter.PrintFullText( iXPos, iYPos + 60, TAT_CENTER );

  00410	8b 45 f0	 mov	 eax, DWORD PTR _iYPos$[ebp]
  00413	83 c4 0c	 add	 esp, 12			; 0000000cH
  00416	68 ff 00 00 00	 push	 255			; 000000ffH
  0041b	6a 01		 push	 1
  0041d	51		 push	 ecx
  0041e	51		 push	 ecx
  0041f	83 c0 3c	 add	 eax, 60			; 0000003cH
  00422	0f 57 c0	 xorps	 xmm0, xmm0
  00425	f3 0f 2a c0	 cvtsi2ss xmm0, eax
  00429	f3 0f 11 44 24
	04		 movss	 DWORD PTR [esp+4], xmm0
  0042f	f3 0f 10 45 ec	 movss	 xmm0, DWORD PTR tv516[ebp]
  00434	8d 4d c8	 lea	 ecx, DWORD PTR _kPrinter$[ebp]
  00437	f3 0f 11 04 24	 movss	 DWORD PTR [esp], xmm0
  0043c	e8 00 00 00 00	 call	 ?PrintFullText@ioComplexStringPrinter@@QAEXMMW4TextAlignType@@E@Z ; ioComplexStringPrinter::PrintFullText

; 304  : 			kPrinter.ClearList();

  00441	8d 4d c8	 lea	 ecx, DWORD PTR _kPrinter$[ebp]
  00444	e8 00 00 00 00	 call	 ?ClearList@ioComplexStringPrinter@@QAEXXZ ; ioComplexStringPrinter::ClearList

; 305  : 			kPrinter.AddTextPiece( FONT_SIZE_13, STR(16) );

  00449	6a 00		 push	 0
  0044b	6a 10		 push	 16			; 00000010H
$LN30@OnRender:
  0044d	68 00 00 00 00	 push	 OFFSET ??_C@_00CNPNBAHC@?$AA@
  00452	53		 push	 ebx
  00453	ff d6		 call	 esi
  00455	8b c8		 mov	 ecx, eax
  00457	ff d7		 call	 edi
  00459	f3 0f 10 05 00
	00 00 00	 movss	 xmm0, DWORD PTR __real@3f266666
  00461	50		 push	 eax
  00462	51		 push	 ecx
  00463	8d 45 c8	 lea	 eax, DWORD PTR _kPrinter$[ebp]
  00466	f3 0f 11 04 24	 movss	 DWORD PTR [esp], xmm0
  0046b	50		 push	 eax
  0046c	e8 00 00 00 00	 call	 ?AddTextPiece@ioComplexStringPrinter@@QAAXMPBDZZ ; ioComplexStringPrinter::AddTextPiece

; 306  : 			kPrinter.PrintFullText( iXPos, iYPos + 80, TAT_CENTER );

  00471	8b 45 f0	 mov	 eax, DWORD PTR _iYPos$[ebp]
  00474	83 c4 0c	 add	 esp, 12			; 0000000cH
  00477	83 c0 50	 add	 eax, 80			; 00000050H
$LN32@OnRender:
  0047a	68 ff 00 00 00	 push	 255			; 000000ffH
  0047f	6a 01		 push	 1
  00481	51		 push	 ecx
  00482	51		 push	 ecx
  00483	0f 57 c0	 xorps	 xmm0, xmm0
  00486	f3 0f 2a c0	 cvtsi2ss xmm0, eax
  0048a	f3 0f 11 44 24
	04		 movss	 DWORD PTR [esp+4], xmm0
  00490	f3 0f 10 45 ec	 movss	 xmm0, DWORD PTR tv516[ebp]
  00495	8d 4d c8	 lea	 ecx, DWORD PTR _kPrinter$[ebp]
  00498	f3 0f 11 04 24	 movss	 DWORD PTR [esp], xmm0
  0049d	e8 00 00 00 00	 call	 ?PrintFullText@ioComplexStringPrinter@@QAEXMMW4TextAlignType@@E@Z ; ioComplexStringPrinter::PrintFullText

; 307  : 			kPrinter.ClearList();

  004a2	8d 4d c8	 lea	 ecx, DWORD PTR _kPrinter$[ebp]
  004a5	e8 00 00 00 00	 call	 ?ClearList@ioComplexStringPrinter@@QAEXXZ ; ioComplexStringPrinter::ClearList

; 308  : 		}
; 309  : 	}
; 310  : 	else

  004aa	eb 2b		 jmp	 SHORT $LN2@OnRender
$LN5@OnRender:

; 311  : 	{
; 312  : 		kPrinter.AddTextPiece( FONT_SIZE_13, STR(8) );

  004ac	6a 00		 push	 0
  004ae	6a 08		 push	 8
$LN29@OnRender:
  004b0	68 00 00 00 00	 push	 OFFSET ??_C@_00CNPNBAHC@?$AA@
  004b5	53		 push	 ebx
  004b6	ff d6		 call	 esi
  004b8	8b c8		 mov	 ecx, eax
  004ba	ff d7		 call	 edi
  004bc	f3 0f 10 05 00
	00 00 00	 movss	 xmm0, DWORD PTR __real@3f266666
  004c4	50		 push	 eax
  004c5	51		 push	 ecx
  004c6	8d 45 c8	 lea	 eax, DWORD PTR _kPrinter$[ebp]
  004c9	f3 0f 11 04 24	 movss	 DWORD PTR [esp], xmm0
  004ce	50		 push	 eax
  004cf	e8 00 00 00 00	 call	 ?AddTextPiece@ioComplexStringPrinter@@QAAXMPBDZZ ; ioComplexStringPrinter::AddTextPiece
  004d4	83 c4 0c	 add	 esp, 12			; 0000000cH
$LN2@OnRender:

; 313  : 	}
; 314  : 
; 315  : 	if( m_iType != TYPE_SHUT_DOWN_EXIT && m_iType != TYPE_SELECT_SHUT_DOWN_EXIT )

  004d7	8b 45 e8	 mov	 eax, DWORD PTR _this$[ebp]
  004da	8b 80 64 01 00
	00		 mov	 eax, DWORD PTR [eax+356]
  004e0	83 f8 09	 cmp	 eax, 9
  004e3	74 3b		 je	 SHORT $LN1@OnRender
  004e5	83 f8 0a	 cmp	 eax, 10			; 0000000aH
  004e8	74 36		 je	 SHORT $LN1@OnRender

; 316  : 	{
; 317  : 		kPrinter.PrintFullText( iXPos, iYPos + 40, TAT_CENTER );

  004ea	8b 45 f0	 mov	 eax, DWORD PTR _iYPos$[ebp]
  004ed	68 ff 00 00 00	 push	 255			; 000000ffH
  004f2	6a 01		 push	 1
  004f4	51		 push	 ecx
  004f5	51		 push	 ecx
  004f6	83 c0 28	 add	 eax, 40			; 00000028H
  004f9	0f 57 c0	 xorps	 xmm0, xmm0
  004fc	f3 0f 2a c0	 cvtsi2ss xmm0, eax
  00500	f3 0f 11 44 24
	04		 movss	 DWORD PTR [esp+4], xmm0
  00506	f3 0f 10 45 ec	 movss	 xmm0, DWORD PTR tv516[ebp]
  0050b	8d 4d c8	 lea	 ecx, DWORD PTR _kPrinter$[ebp]
  0050e	f3 0f 11 04 24	 movss	 DWORD PTR [esp], xmm0
  00513	e8 00 00 00 00	 call	 ?PrintFullText@ioComplexStringPrinter@@QAEXMMW4TextAlignType@@E@Z ; ioComplexStringPrinter::PrintFullText

; 318  : 		kPrinter.ClearList();

  00518	8d 4d c8	 lea	 ecx, DWORD PTR _kPrinter$[ebp]
  0051b	e8 00 00 00 00	 call	 ?ClearList@ioComplexStringPrinter@@QAEXXZ ; ioComplexStringPrinter::ClearList
$LN1@OnRender:

; 319  : 	}
; 320  : 
; 321  : /*	if( m_iType == TYPE_LANCABLE_EXIT )
; 322  : 	{
; 323  : 	//	g_FontMgr.PrintText( iXPos, iYPos , FONT_SIZE_13, STR(1));
; 324  : 	//	g_FontMgr.PrintText( iXPos, iYPos + 24 , FONT_SIZE_13, STR(2) );
; 325  : 	}
; 326  : 	else if ( m_iType == TYPE_XTRAP_EXIT )
; 327  : 	{
; 328  : 	//	g_FontMgr.PrintText( iXPos, iYPos , FONT_SIZE_13, STR(3));
; 329  : 	//	g_FontMgr.PrintText( iXPos, iYPos + 24 , FONT_SIZE_13, STR(4) );
; 330  : 	}
; 331  : 	else if( m_iType == TYPE_BLOCK_EXIT )
; 332  : 	{
; 333  : 	//	g_FontMgr.PrintText( iXPos, iYPos , FONT_SIZE_13,      STR(5));
; 334  : 	//	g_FontMgr.PrintText( iXPos, iYPos + 24 , FONT_SIZE_13, STR(6) );
; 335  : 	}
; 336  : 	else if( m_iType == TYPE_SERVER_TO_CLIENT_PING_EXIT )
; 337  : 	{
; 338  : 	//	g_FontMgr.PrintText( iXPos, iYPos , FONT_SIZE_13, STR(10));
; 339  : 	//	g_FontMgr.PrintText( iXPos, iYPos + 24 , FONT_SIZE_13, STR(11) );
; 340  : 	}
; 341  : 	else
; 342  : 	{
; 343  : 	//	g_FontMgr.PrintText( iXPos, iYPos , FONT_SIZE_13, STR(7));
; 344  : 	//	g_FontMgr.PrintText( iXPos, iYPos + 24 , FONT_SIZE_13, STR(8) );
; 345  : 	}
; 346  : */
; 347  : }

  00520	83 4d fc ff	 or	 DWORD PTR __$EHRec$[ebp+8], -1
  00524	8d 4d c8	 lea	 ecx, DWORD PTR _kPrinter$[ebp]
  00527	e8 00 00 00 00	 call	 ??1ioComplexStringPrinter@@QAE@XZ ; ioComplexStringPrinter::~ioComplexStringPrinter
  0052c	e8 00 00 00 00	 call	 __EH_epilog3
  00531	c3		 ret	 0
_TEXT	ENDS
;	COMDAT text$x
text$x	SEGMENT
__unwindfunclet$?OnRender@DisconnectWnd@@MAEXXZ$0:
  00000	8d 4d c8	 lea	 ecx, DWORD PTR _kPrinter$[ebp]
  00003	e9 00 00 00 00	 jmp	 ??1ioComplexStringPrinter@@QAE@XZ ; ioComplexStringPrinter::~ioComplexStringPrinter
__ehhandler$?OnRender@DisconnectWnd@@MAEXXZ:
  00008	8b 54 24 08	 mov	 edx, DWORD PTR [esp+8]
  0000c	8d 42 0c	 lea	 eax, DWORD PTR [edx+12]
  0000f	8b 4a c4	 mov	 ecx, DWORD PTR [edx-60]
  00012	33 c8		 xor	 ecx, eax
  00014	e8 00 00 00 00	 call	 @__security_check_cookie@4
  00019	b8 00 00 00 00	 mov	 eax, OFFSET __ehfuncinfo$?OnRender@DisconnectWnd@@MAEXXZ
  0001e	e9 00 00 00 00	 jmp	 ___CxxFrameHandler3
text$x	ENDS
?OnRender@DisconnectWnd@@MAEXXZ ENDP			; DisconnectWnd::OnRender
; Function compile flags: /Ogsp
;	COMDAT ?iwm_create@DisconnectWnd@@UAEXXZ
_TEXT	SEGMENT
?iwm_create@DisconnectWnd@@UAEXXZ PROC			; DisconnectWnd::iwm_create, COMDAT
; _this$ = ecx

; 359  : 	m_dwStyle |= IWS_PROCESS_ALWAYS;

  00000	83 49 18 40	 or	 DWORD PTR [ecx+24], 64	; 00000040H

; 360  : }

  00004	c3		 ret	 0
?iwm_create@DisconnectWnd@@UAEXXZ ENDP			; DisconnectWnd::iwm_create
; Function compile flags: /Ogsp
_TEXT	ENDS
;	COMDAT ?OnProcess@DisconnectWnd@@MAEXM@Z
_TEXT	SEGMENT
_fTimePerSec$ = 8					; size = 4
?OnProcess@DisconnectWnd@@MAEXM@Z PROC			; DisconnectWnd::OnProcess, COMDAT
; _this$ = ecx

; 363  : {

  00000	56		 push	 esi
  00001	8b f1		 mov	 esi, ecx

; 364  : 	if(m_dwShowTime == 0) return;

  00003	83 be 60 01 00
	00 00		 cmp	 DWORD PTR [esi+352], 0
  0000a	74 2a		 je	 SHORT $LN1@OnProcess

; 365  : 
; 366  : 	if(FRAMEGETTIME() - m_dwShowTime > 10000)

  0000c	ff 15 00 00 00
	00		 call	 DWORD PTR __imp_?GetSingleton@ioFrameTimer@@SAAAV1@XZ
  00012	8b c8		 mov	 ecx, eax
  00014	ff 15 00 00 00
	00		 call	 DWORD PTR __imp_?GetLoopSec@ioFrameTimer@@QBEKXZ
  0001a	2b 86 60 01 00
	00		 sub	 eax, DWORD PTR [esi+352]
  00020	3d 10 27 00 00	 cmp	 eax, 10000		; 00002710H
  00025	76 0f		 jbe	 SHORT $LN1@OnProcess

; 367  : 	{
; 368  : 		HideWnd();

  00027	8b ce		 mov	 ecx, esi
  00029	ff 15 00 00 00
	00		 call	 DWORD PTR __imp_?HideWnd@ioWnd@@QAEXXZ

; 369  : 		m_dwShowTime = 0;

  0002f	83 a6 60 01 00
	00 00		 and	 DWORD PTR [esi+352], 0
$LN1@OnProcess:
  00036	5e		 pop	 esi

; 370  : 	}
; 371  : }

  00037	c2 04 00	 ret	 4
?OnProcess@DisconnectWnd@@MAEXM@Z ENDP			; DisconnectWnd::OnProcess
_TEXT	ENDS
PUBLIC	?SetType@DisconnectWnd@@QAEXH@Z			; DisconnectWnd::SetType
EXTRN	__imp_?GetHeight@ioUIRenderElement@@QBEHXZ:PROC
EXTRN	__imp_?SetWndPos@ioWnd@@QAEXHH@Z:PROC
EXTRN	__imp_?GetXPos@ioWnd@@QBEHXZ:PROC
EXTRN	__imp_?GetHeight@ioWnd@@QBEHXZ:PROC
EXTRN	__imp_?FindChildWnd@ioWnd@@QAEPAV1@K@Z:PROC
; Function compile flags: /Ogsp
;	COMDAT ?SetType@DisconnectWnd@@QAEXH@Z
_TEXT	SEGMENT
_iType$ = 8						; size = 4
?SetType@DisconnectWnd@@QAEXH@Z PROC			; DisconnectWnd::SetType, COMDAT
; _this$ = ecx

; 374  : {

  00000	55		 push	 ebp
  00001	8b ec		 mov	 ebp, esp
  00003	56		 push	 esi
  00004	8b f1		 mov	 esi, ecx

; 375  : 	if( m_iType != TYPE_NPROTECT_EXIT ) // 서버에서 nprotect exit 메세지 전송후 disconnect을 해서 nprotect 메세지를 보호하기 위해

  00006	83 be 64 01 00
	00 07		 cmp	 DWORD PTR [esi+356], 7
  0000d	57		 push	 edi
  0000e	74 09		 je	 SHORT $LN6@SetType

; 376  : 		m_iType = iType;

  00010	8b 4d 08	 mov	 ecx, DWORD PTR _iType$[ebp]
  00013	89 8e 64 01 00
	00		 mov	 DWORD PTR [esi+356], ecx
$LN6@SetType:

; 377  : 
; 378  : 	enum { DEFAULT_HEIGHT = 278, SHUT_DOWN_HEIGHT = 318, BTN_GAP = 48};
; 379  : 	int iHeight = 0;
; 380  : 	if( m_iType == TYPE_SHUT_DOWN_EXIT || m_iType == TYPE_SELECT_SHUT_DOWN_EXIT )

  00019	8b 86 64 01 00
	00		 mov	 eax, DWORD PTR [esi+356]
  0001f	83 f8 09	 cmp	 eax, 9
  00022	74 0a		 je	 SHORT $LN4@SetType
  00024	83 f8 0a	 cmp	 eax, 10			; 0000000aH

; 383  : 	}
; 384  : 	else
; 385  : 	{
; 386  : 		iHeight = DEFAULT_HEIGHT;

  00027	b8 16 01 00 00	 mov	 eax, 278		; 00000116H
  0002c	75 05		 jne	 SHORT $LN3@SetType
$LN4@SetType:

; 381  : 	{
; 382  : 		iHeight = SHUT_DOWN_HEIGHT;

  0002e	b8 3e 01 00 00	 mov	 eax, 318		; 0000013eH
$LN3@SetType:

; 387  : 	}
; 388  : 
; 389  : 	SetSize( GetWidth(), iHeight );

  00033	8b 3e		 mov	 edi, DWORD PTR [esi]
  00035	50		 push	 eax
  00036	8b ce		 mov	 ecx, esi
  00038	ff 15 00 00 00
	00		 call	 DWORD PTR __imp_?GetWidth@ioWnd@@QBEHXZ
  0003e	50		 push	 eax
  0003f	8b ce		 mov	 ecx, esi
  00041	ff 57 2c	 call	 DWORD PTR [edi+44]

; 390  : 	ioWnd *pWnd = FindChildWnd( ID_OK );

  00044	6a 01		 push	 1
  00046	8b ce		 mov	 ecx, esi
  00048	ff 15 00 00 00
	00		 call	 DWORD PTR __imp_?FindChildWnd@ioWnd@@QAEPAV1@K@Z
  0004e	8b f8		 mov	 edi, eax

; 391  : 	if( pWnd )

  00050	85 ff		 test	 edi, edi
  00052	74 1d		 je	 SHORT $LN2@SetType

; 392  : 		pWnd->SetWndPos( pWnd->GetXPos(), GetHeight() - BTN_GAP );

  00054	8b ce		 mov	 ecx, esi
  00056	ff 15 00 00 00
	00		 call	 DWORD PTR __imp_?GetHeight@ioWnd@@QBEHXZ
  0005c	83 e8 30	 sub	 eax, 48			; 00000030H
  0005f	50		 push	 eax
  00060	8b cf		 mov	 ecx, edi
  00062	ff 15 00 00 00
	00		 call	 DWORD PTR __imp_?GetXPos@ioWnd@@QBEHXZ
  00068	50		 push	 eax
  00069	8b cf		 mov	 ecx, edi
  0006b	ff 15 00 00 00
	00		 call	 DWORD PTR __imp_?SetWndPos@ioWnd@@QAEXHH@Z
$LN2@SetType:

; 393  : 
; 394  : 	// 하단바
; 395  : 	if( m_pMultiplyFrm )

  00071	8b 8e b0 00 00
	00		 mov	 ecx, DWORD PTR [esi+176]
  00077	85 c9		 test	 ecx, ecx
  00079	74 22		 je	 SHORT $LN1@SetType

; 396  : 	{
; 397  : 		m_pMultiplyFrm->SetPosition( 0, GetHeight() - m_pMultiplyFrm->GetHeight() );

  0007b	8b 39		 mov	 edi, DWORD PTR [ecx]
  0007d	53		 push	 ebx
  0007e	ff 15 00 00 00
	00		 call	 DWORD PTR __imp_?GetHeight@ioUIRenderElement@@QBEHXZ
  00084	8b ce		 mov	 ecx, esi
  00086	8b d8		 mov	 ebx, eax
  00088	ff 15 00 00 00
	00		 call	 DWORD PTR __imp_?GetHeight@ioWnd@@QBEHXZ
  0008e	8b 8e b0 00 00
	00		 mov	 ecx, DWORD PTR [esi+176]
  00094	2b c3		 sub	 eax, ebx
  00096	50		 push	 eax
  00097	6a 00		 push	 0
  00099	ff 57 0c	 call	 DWORD PTR [edi+12]
  0009c	5b		 pop	 ebx
$LN1@SetType:
  0009d	5f		 pop	 edi
  0009e	5e		 pop	 esi

; 398  : 	}
; 399  : }

  0009f	5d		 pop	 ebp
  000a0	c2 04 00	 ret	 4
?SetType@DisconnectWnd@@QAEXH@Z ENDP			; DisconnectWnd::SetType
_TEXT	ENDS
PUBLIC	?GetUserIndex@ioMyInfo@@QBEABKXZ		; ioMyInfo::GetUserIndex
; Function compile flags: /Ogsp
; File d:\lost saga for developer\youtube\tutorial\source\src\lsclient\iomyinfo.h
;	COMDAT ?GetUserIndex@ioMyInfo@@QBEABKXZ
_TEXT	SEGMENT
?GetUserIndex@ioMyInfo@@QBEABKXZ PROC			; ioMyInfo::GetUserIndex, COMDAT
; _this$ = ecx

; 515  : 	const DWORD& GetUserIndex() const { return m_user_data.m_user_idx; }

  00000	8d 41 08	 lea	 eax, DWORD PTR [ecx+8]
  00003	c3		 ret	 0
?GetUserIndex@ioMyInfo@@QBEABKXZ ENDP			; ioMyInfo::GetUserIndex
_TEXT	ENDS
PUBLIC	?GetPublicID@ioMyInfo@@QBEABVioHashString@@XZ	; ioMyInfo::GetPublicID
; Function compile flags: /Ogsp
;	COMDAT ?GetPublicID@ioMyInfo@@QBEABVioHashString@@XZ
_TEXT	SEGMENT
?GetPublicID@ioMyInfo@@QBEABVioHashString@@XZ PROC	; ioMyInfo::GetPublicID, COMDAT
; _this$ = ecx

; 517  : 	const ioHashString& GetPublicID() const { return m_user_data.m_public_id; }    

  00000	8d 41 1c	 lea	 eax, DWORD PTR [ecx+28]
  00003	c3		 ret	 0
?GetPublicID@ioMyInfo@@QBEABVioHashString@@XZ ENDP	; ioMyInfo::GetPublicID
_TEXT	ENDS
PUBLIC	?IsNoneUIMode@ioSP2GUIManager@@QBE_NXZ		; ioSP2GUIManager::IsNoneUIMode
; Function compile flags: /Ogsp
; File d:\lost saga for developer\youtube\tutorial\source\src\lsclient\gui\iosp2guimanager.h
;	COMDAT ?IsNoneUIMode@ioSP2GUIManager@@QBE_NXZ
_TEXT	SEGMENT
?IsNoneUIMode@ioSP2GUIManager@@QBE_NXZ PROC		; ioSP2GUIManager::IsNoneUIMode, COMDAT
; _this$ = ecx

; 237  : 	inline bool IsNoneUIMode() const { return m_bNoneUIMode; }

  00000	8a 81 e1 04 00
	00		 mov	 al, BYTE PTR [ecx+1249]
  00006	c3		 ret	 0
?IsNoneUIMode@ioSP2GUIManager@@QBE_NXZ ENDP		; ioSP2GUIManager::IsNoneUIMode
_TEXT	ENDS
EXTRN	??3@YAXPAX@Z:PROC				; operator delete
; Function compile flags: /Ogsp
;	COMDAT ??_GDisconnectWnd@@UAEPAXI@Z
_TEXT	SEGMENT
___flags$ = 8						; size = 4
??_GDisconnectWnd@@UAEPAXI@Z PROC			; DisconnectWnd::`scalar deleting destructor', COMDAT
; _this$ = ecx
  00000	55		 push	 ebp
  00001	8b ec		 mov	 ebp, esp
  00003	56		 push	 esi
  00004	8b f1		 mov	 esi, ecx
  00006	e8 00 00 00 00	 call	 ??1DisconnectWnd@@UAE@XZ ; DisconnectWnd::~DisconnectWnd
  0000b	f6 45 08 01	 test	 BYTE PTR ___flags$[ebp], 1
  0000f	74 07		 je	 SHORT $LN1@scalar
  00011	56		 push	 esi
  00012	e8 00 00 00 00	 call	 ??3@YAXPAX@Z		; operator delete
  00017	59		 pop	 ecx
$LN1@scalar:
  00018	8b c6		 mov	 eax, esi
  0001a	5e		 pop	 esi
  0001b	5d		 pop	 ebp
  0001c	c2 04 00	 ret	 4
??_GDisconnectWnd@@UAEPAXI@Z ENDP			; DisconnectWnd::`scalar deleting destructor'
_TEXT	ENDS
PUBLIC	??_C@_0BI@MFHOBKLM@ExitProgram?5?9?514?5?$CI?5?$CFd?5?$CJ?$AA@ ; `string'
PUBLIC	??_C@_0CA@NNGKCBEB@?$CFs?5Server?5To?5Client?5Ping?5Failed?$AA@ ; `string'
PUBLIC	??_C@_0BF@DHHPIJEC@?$CFs?5LanCable?5UnPluged?$AA@ ; `string'
PUBLIC	??_C@_0BF@PIPHHGEM@ExitProgram?5?9?5500?5?$CFd?$AA@ ; `string'
PUBLIC	??_C@_0BG@EJENMNHG@TYPE_QUEST_ABUSE_EXIT?$AA@	; `string'
PUBLIC	??_C@_0BB@DADNPNFG@?$CFd?3?$CFs?5Block?5User?$AA@ ; `string'
PUBLIC	??_C@_02DKCKIIND@?$CFs?$AA@			; `string'
PUBLIC	??_C@_0L@JLPANJNL@CheckError?$AA@		; `string'
PUBLIC	??_C@_0BE@GMGPDJCF@?$CFs?5Xtrap?5Check?5Fail?$AA@ ; `string'
PUBLIC	??_C@_0BE@OKGIPHK@ExitProgram?5?9?514?5?$CFd?$AA@ ; `string'
PUBLIC	_this$GSCopy$
PUBLIC	__$ArrayPad$
EXTRN	?SetExitProgram@ioApplication@@QAEXXZ:PROC	; ioApplication::SetExitProgram
EXTRN	?GetSingleton@ioApplication@@SAAAV1@XZ:PROC	; ioApplication::GetSingleton
EXTRN	??1SP2Packet@@UAE@XZ:PROC			; SP2Packet::~SP2Packet
EXTRN	?SendLog@P2PNetwork@@YAXAAVSP2Packet@@@Z:PROC	; P2PNetwork::SendLog
EXTRN	??6SP2Packet@@QAEAAV0@_N@Z:PROC			; SP2Packet::operator<<
EXTRN	??6SP2Packet@@QAEAAV0@H@Z:PROC			; SP2Packet::operator<<
EXTRN	??6SP2Packet@@QAEAAV0@PAD@Z:PROC		; SP2Packet::operator<<
EXTRN	??6SP2Packet@@QAEAAV0@PBD@Z:PROC		; SP2Packet::operator<<
EXTRN	__imp__wsprintfA:PROC
EXTRN	__imp_?c_str@ioHashString@@QBEPBDXZ:PROC
EXTRN	?SendToServer@TCPNetwork@@YAXAAVSP2Packet@@@Z:PROC ; TCPNetwork::SendToServer
EXTRN	??0SP2Packet@@QAE@K@Z:PROC			; SP2Packet::SP2Packet
EXTRN	?ProcessChangeStage@ioQuestManager@@QAEXXZ:PROC	; ioQuestManager::ProcessChangeStage
EXTRN	?GetSingleton@ioQuestManager@@SAAAV1@XZ:PROC	; ioQuestManager::GetSingleton
EXTRN	__imp_?LOG@@3VCLog@@A:BYTE
EXTRN	__imp_?PrintTimeAndLog@CLog@@QAAXHPADZZ:PROC
EXTRN	___security_cookie:DWORD
EXTRN	__chkstk:PROC
;	COMDAT ??_C@_0BI@MFHOBKLM@ExitProgram?5?9?514?5?$CI?5?$CFd?5?$CJ?$AA@
; File d:\lost saga for developer\youtube\tutorial\source\src\lsclient\iomyinfo.h
CONST	SEGMENT
??_C@_0BI@MFHOBKLM@ExitProgram?5?9?514?5?$CI?5?$CFd?5?$CJ?$AA@ DB 'ExitPr'
	DB	'ogram - 14 ( %d )', 00H			; `string'
CONST	ENDS
;	COMDAT ??_C@_0CA@NNGKCBEB@?$CFs?5Server?5To?5Client?5Ping?5Failed?$AA@
CONST	SEGMENT
??_C@_0CA@NNGKCBEB@?$CFs?5Server?5To?5Client?5Ping?5Failed?$AA@ DB '%s Se'
	DB	'rver To Client Ping Failed', 00H		; `string'
CONST	ENDS
;	COMDAT ??_C@_0BF@DHHPIJEC@?$CFs?5LanCable?5UnPluged?$AA@
CONST	SEGMENT
??_C@_0BF@DHHPIJEC@?$CFs?5LanCable?5UnPluged?$AA@ DB '%s LanCable UnPluge'
	DB	'd', 00H					; `string'
CONST	ENDS
;	COMDAT ??_C@_0BF@PIPHHGEM@ExitProgram?5?9?5500?5?$CFd?$AA@
CONST	SEGMENT
??_C@_0BF@PIPHHGEM@ExitProgram?5?9?5500?5?$CFd?$AA@ DB 'ExitProgram - 500'
	DB	' %d', 00H					; `string'
CONST	ENDS
;	COMDAT ??_C@_0BG@EJENMNHG@TYPE_QUEST_ABUSE_EXIT?$AA@
CONST	SEGMENT
??_C@_0BG@EJENMNHG@TYPE_QUEST_ABUSE_EXIT?$AA@ DB 'TYPE_QUEST_ABUSE_EXIT', 00H ; `string'
CONST	ENDS
;	COMDAT ??_C@_0BB@DADNPNFG@?$CFd?3?$CFs?5Block?5User?$AA@
CONST	SEGMENT
??_C@_0BB@DADNPNFG@?$CFd?3?$CFs?5Block?5User?$AA@ DB '%d:%s Block User', 00H ; `string'
CONST	ENDS
;	COMDAT ??_C@_02DKCKIIND@?$CFs?$AA@
CONST	SEGMENT
??_C@_02DKCKIIND@?$CFs?$AA@ DB '%s', 00H		; `string'
CONST	ENDS
;	COMDAT ??_C@_0L@JLPANJNL@CheckError?$AA@
CONST	SEGMENT
??_C@_0L@JLPANJNL@CheckError?$AA@ DB 'CheckError', 00H	; `string'
CONST	ENDS
;	COMDAT ??_C@_0BE@GMGPDJCF@?$CFs?5Xtrap?5Check?5Fail?$AA@
CONST	SEGMENT
??_C@_0BE@GMGPDJCF@?$CFs?5Xtrap?5Check?5Fail?$AA@ DB '%s Xtrap Check Fail'
	DB	00H						; `string'
CONST	ENDS
;	COMDAT ??_C@_0BE@OKGIPHK@ExitProgram?5?9?514?5?$CFd?$AA@
CONST	SEGMENT
??_C@_0BE@OKGIPHK@ExitProgram?5?9?514?5?$CFd?$AA@ DB 'ExitProgram - 14 %d'
	DB	00H						; `string'
CONST	ENDS
;	COMDAT xdata$x
xdata$x	SEGMENT
__ehfuncinfo$?iwm_hide@DisconnectWnd@@UAEXXZ DD 019930522H
	DD	09H
	DD	FLAT:__unwindtable$?iwm_hide@DisconnectWnd@@UAEXXZ
	DD	2 DUP(00H)
	DD	2 DUP(00H)
	DD	00H
	DD	01H
__unwindtable$?iwm_hide@DisconnectWnd@@UAEXXZ DD 0ffffffffH
	DD	FLAT:__unwindfunclet$?iwm_hide@DisconnectWnd@@UAEXXZ$0
	DD	00H
	DD	FLAT:__unwindfunclet$?iwm_hide@DisconnectWnd@@UAEXXZ$1
	DD	00H
	DD	FLAT:__unwindfunclet$?iwm_hide@DisconnectWnd@@UAEXXZ$2
	DD	0ffffffffH
	DD	FLAT:__unwindfunclet$?iwm_hide@DisconnectWnd@@UAEXXZ$3
	DD	03H
	DD	FLAT:__unwindfunclet$?iwm_hide@DisconnectWnd@@UAEXXZ$4
	DD	0ffffffffH
	DD	FLAT:__unwindfunclet$?iwm_hide@DisconnectWnd@@UAEXXZ$5
	DD	05H
	DD	FLAT:__unwindfunclet$?iwm_hide@DisconnectWnd@@UAEXXZ$6
	DD	0ffffffffH
	DD	FLAT:__unwindfunclet$?iwm_hide@DisconnectWnd@@UAEXXZ$7
	DD	0ffffffffH
	DD	FLAT:__unwindfunclet$?iwm_hide@DisconnectWnd@@UAEXXZ$8
; Function compile flags: /Ogsp
; File d:\lost saga for developer\youtube\tutorial\source\src\lsclient\gui\disconnectwnd.cpp
xdata$x	ENDS
;	COMDAT ?iwm_hide@DisconnectWnd@@UAEXXZ
_TEXT	SEGMENT
$T505509 = -98660					; size = 4
_this$GSCopy$ = -98656					; size = 4
_kPacket$505174 = -98652				; size = 32812
_kPacket$505169 = -65860				; size = 32792
_kPacket$505163 = -65860				; size = 32792
_kPacket$505157 = -65860				; size = 32792
_kPacket$505143 = -65860				; size = 32792
_kLogPacket$505166 = -33068				; size = 32792
_kLogPacket$505160 = -33068				; size = 32792
_kPacket$505154 = -33068				; size = 32792
_kPacket$505147 = -33068				; size = 32792
_szLogMessage$505164 = -276				; size = 260
_szLogMessage$505158 = -276				; size = 260
_szLogMessage$505152 = -276				; size = 260
_szLogMessage$505145 = -276				; size = 260
__$ArrayPad$ = -16					; size = 4
__$EHRec$ = -12						; size = 12
?iwm_hide@DisconnectWnd@@UAEXXZ PROC			; DisconnectWnd::iwm_hide, COMDAT
; _this$ = ecx

; 43   : {

  00000	55		 push	 ebp
  00001	8b ec		 mov	 ebp, esp
  00003	6a ff		 push	 -1
  00005	68 00 00 00 00	 push	 __ehhandler$?iwm_hide@DisconnectWnd@@UAEXXZ
  0000a	64 a1 00 00 00
	00		 mov	 eax, DWORD PTR fs:0
  00010	50		 push	 eax
  00011	b8 58 81 01 00	 mov	 eax, 98648		; 00018158H
  00016	e8 00 00 00 00	 call	 __chkstk
  0001b	a1 00 00 00 00	 mov	 eax, DWORD PTR ___security_cookie
  00020	33 c5		 xor	 eax, ebp
  00022	89 45 f0	 mov	 DWORD PTR __$ArrayPad$[ebp], eax
  00025	53		 push	 ebx
  00026	56		 push	 esi
  00027	57		 push	 edi
  00028	50		 push	 eax
  00029	8d 45 f4	 lea	 eax, DWORD PTR __$EHRec$[ebp]
  0002c	64 a3 00 00 00
	00		 mov	 DWORD PTR fs:0, eax

; 44   : 	if(m_iType == TYPE_LOCAL_EXIT  ||
; 45   : 	   m_iType == TYPE_NPROTECT_EXIT || 
; 46   : 	   m_iType == TYPE_SHUT_DOWN_EXIT || 
; 47   : 	   m_iType == TYPE_SELECT_SHUT_DOWN_EXIT )

  00032	8b 81 64 01 00
	00		 mov	 eax, DWORD PTR [ecx+356]
  00038	33 ff		 xor	 edi, edi
  0003a	47		 inc	 edi
  0003b	33 db		 xor	 ebx, ebx

; 136  : 	{
; 137  : 		LOG.PrintTimeAndLog( 0, "ExitProgram - 14 %d", m_iType );

  0003d	89 8d a0 7e fe
	ff		 mov	 DWORD PTR _this$GSCopy$[ebp], ecx
  00043	3b c7		 cmp	 eax, edi
  00045	0f 84 28 04 00
	00		 je	 $LN15@iwm_hide

; 44   : 	if(m_iType == TYPE_LOCAL_EXIT  ||
; 45   : 	   m_iType == TYPE_NPROTECT_EXIT || 
; 46   : 	   m_iType == TYPE_SHUT_DOWN_EXIT || 
; 47   : 	   m_iType == TYPE_SELECT_SHUT_DOWN_EXIT )

  0004b	83 f8 07	 cmp	 eax, 7
  0004e	0f 84 1f 04 00
	00		 je	 $LN15@iwm_hide
  00054	83 f8 09	 cmp	 eax, 9
  00057	0f 84 16 04 00
	00		 je	 $LN15@iwm_hide
  0005d	83 f8 0a	 cmp	 eax, 10			; 0000000aH
  00060	0f 84 0d 04 00
	00		 je	 $LN15@iwm_hide

; 75   : 	}
; 76   : 	else if( m_iType == TYPE_NETWORK_EXIT ||
; 77   : 			 m_iType == TYPE_LANCABLE_EXIT ||
; 78   : 			 m_iType == TYPE_SERVER_TO_CLIENT_PING_EXIT )

  00066	83 f8 02	 cmp	 eax, 2
  00069	0f 84 d0 02 00
	00		 je	 $LN12@iwm_hide
  0006f	83 f8 03	 cmp	 eax, 3
  00072	0f 84 c7 02 00
	00		 je	 $LN12@iwm_hide
  00078	83 f8 06	 cmp	 eax, 6
  0007b	0f 84 be 02 00
	00		 je	 $LN12@iwm_hide

; 115  : 	else if( m_iType == TYPE_XTRAP_EXIT )

  00081	83 f8 04	 cmp	 eax, 4
  00084	0f 85 e5 00 00
	00		 jne	 $LN7@iwm_hide

; 116  : 	{
; 117  : 		LOG.PrintTimeAndLog( 0, "ExitProgram - 14 %d", m_iType );

  0008a	8b 35 00 00 00
	00		 mov	 esi, DWORD PTR __imp_?PrintTimeAndLog@CLog@@QAAXHPADZZ
  00090	50		 push	 eax
  00091	68 00 00 00 00	 push	 OFFSET ??_C@_0BE@OKGIPHK@ExitProgram?5?9?514?5?$CFd?$AA@
  00096	53		 push	 ebx
  00097	ff 35 00 00 00
	00		 push	 DWORD PTR __imp_?LOG@@3VCLog@@A
  0009d	ff d6		 call	 esi
  0009f	83 c4 10	 add	 esp, 16			; 00000010H

; 118  : 
; 119  : 		g_QuestMgr.ProcessChangeStage();

  000a2	e8 00 00 00 00	 call	 ?GetSingleton@ioQuestManager@@SAAAV1@XZ ; ioQuestManager::GetSingleton
  000a7	8b c8		 mov	 ecx, eax
  000a9	e8 00 00 00 00	 call	 ?ProcessChangeStage@ioQuestManager@@QAEXXZ ; ioQuestManager::ProcessChangeStage

; 120  : 		SP2Packet kPacket( CTPK_LOGOUT );

  000ae	6a 04		 push	 4
  000b0	8d 8d bc fe fe
	ff		 lea	 ecx, DWORD PTR _kPacket$505157[ebp]
  000b6	e8 00 00 00 00	 call	 ??0SP2Packet@@QAE@K@Z	; SP2Packet::SP2Packet

; 121  : 		TCPNetwork::SendToServer( kPacket );

  000bb	8d 85 bc fe fe
	ff		 lea	 eax, DWORD PTR _kPacket$505157[ebp]
  000c1	50		 push	 eax
  000c2	c7 45 fc 03 00
	00 00		 mov	 DWORD PTR __$EHRec$[ebp+8], 3
  000c9	e8 00 00 00 00	 call	 ?SendToServer@TCPNetwork@@YAXAAVSP2Packet@@@Z ; TCPNetwork::SendToServer
  000ce	59		 pop	 ecx

; 122  : 
; 123  : 		char szLogMessage[MAX_PATH];
; 124  : 		wsprintf( szLogMessage, "%s Xtrap Check Fail", g_MyInfo.GetPublicID().c_str() );

  000cf	e8 00 00 00 00	 call	 ?GetSingleton@ioMyInfo@@SAAAV1@XZ ; ioMyInfo::GetSingleton
  000d4	8d 48 1c	 lea	 ecx, DWORD PTR [eax+28]
  000d7	ff 15 00 00 00
	00		 call	 DWORD PTR __imp_?c_str@ioHashString@@QBEPBDXZ
  000dd	50		 push	 eax
  000de	8d 85 ec fe ff
	ff		 lea	 eax, DWORD PTR _szLogMessage$505158[ebp]
  000e4	68 00 00 00 00	 push	 OFFSET ??_C@_0BE@GMGPDJCF@?$CFs?5Xtrap?5Check?5Fail?$AA@
  000e9	50		 push	 eax
  000ea	ff 15 00 00 00
	00		 call	 DWORD PTR __imp__wsprintfA
  000f0	83 c4 0c	 add	 esp, 12			; 0000000cH

; 125  : 
; 126  : 		SP2Packet kLogPacket( LUPK_LOG );

  000f3	68 00 90 00 00	 push	 36864			; 00009000H
  000f8	8d 8d d4 7e ff
	ff		 lea	 ecx, DWORD PTR _kLogPacket$505160[ebp]
  000fe	e8 00 00 00 00	 call	 ??0SP2Packet@@QAE@K@Z	; SP2Packet::SP2Packet

; 127  : 		kLogPacket << "CheckError";

  00103	68 00 00 00 00	 push	 OFFSET ??_C@_0L@JLPANJNL@CheckError?$AA@
  00108	8d 8d d4 7e ff
	ff		 lea	 ecx, DWORD PTR _kLogPacket$505160[ebp]
  0010e	c6 45 fc 04	 mov	 BYTE PTR __$EHRec$[ebp+8], 4
  00112	e8 00 00 00 00	 call	 ??6SP2Packet@@QAEAAV0@PBD@Z ; SP2Packet::operator<<

; 128  : 		kLogPacket << szLogMessage;

  00117	8d 85 ec fe ff
	ff		 lea	 eax, DWORD PTR _szLogMessage$505158[ebp]
  0011d	50		 push	 eax
  0011e	8d 8d d4 7e ff
	ff		 lea	 ecx, DWORD PTR _kLogPacket$505160[ebp]
  00124	e8 00 00 00 00	 call	 ??6SP2Packet@@QAEAAV0@PAD@Z ; SP2Packet::operator<<

; 129  : 		kLogPacket << 320;  // 오류번호

  00129	68 40 01 00 00	 push	 320			; 00000140H
  0012e	8d 8d d4 7e ff
	ff		 lea	 ecx, DWORD PTR _kLogPacket$505160[ebp]
  00134	e8 00 00 00 00	 call	 ??6SP2Packet@@QAEAAV0@H@Z ; SP2Packet::operator<<

; 130  : 		kLogPacket << true; // write db

  00139	57		 push	 edi
  0013a	8d 8d d4 7e ff
	ff		 lea	 ecx, DWORD PTR _kLogPacket$505160[ebp]
  00140	e8 00 00 00 00	 call	 ??6SP2Packet@@QAEAAV0@_N@Z ; SP2Packet::operator<<

; 131  : 		P2PNetwork::SendLog( kLogPacket );

  00145	8d 85 d4 7e ff
	ff		 lea	 eax, DWORD PTR _kLogPacket$505160[ebp]
  0014b	50		 push	 eax
  0014c	e8 00 00 00 00	 call	 ?SendLog@P2PNetwork@@YAXAAVSP2Packet@@@Z ; P2PNetwork::SendLog

; 132  : 
; 133  : 		LOG.PrintTimeAndLog(0, "%s", szLogMessage );

  00151	8d 85 ec fe ff
	ff		 lea	 eax, DWORD PTR _szLogMessage$505158[ebp]
  00157	50		 push	 eax
  00158	68 00 00 00 00	 push	 OFFSET ??_C@_02DKCKIIND@?$CFs?$AA@
  0015d	53		 push	 ebx
  0015e	ff 35 00 00 00
	00		 push	 DWORD PTR __imp_?LOG@@3VCLog@@A
  00164	ff d6		 call	 esi

; 134  : 	}

  00166	c6 45 fc 03	 mov	 BYTE PTR __$EHRec$[ebp+8], 3
  0016a	e9 fe 00 00 00	 jmp	 $LN47@iwm_hide
$LN7@iwm_hide:

; 135  : 	else if( m_iType == TYPE_BLOCK_EXIT )

  0016f	6a 05		 push	 5
  00171	5f		 pop	 edi
  00172	3b c7		 cmp	 eax, edi
  00174	0f 85 03 01 00
	00		 jne	 $LN5@iwm_hide

; 136  : 	{
; 137  : 		LOG.PrintTimeAndLog( 0, "ExitProgram - 14 %d", m_iType );

  0017a	8b 35 00 00 00
	00		 mov	 esi, DWORD PTR __imp_?PrintTimeAndLog@CLog@@QAAXHPADZZ
  00180	57		 push	 edi
  00181	68 00 00 00 00	 push	 OFFSET ??_C@_0BE@OKGIPHK@ExitProgram?5?9?514?5?$CFd?$AA@
  00186	53		 push	 ebx
  00187	ff 35 00 00 00
	00		 push	 DWORD PTR __imp_?LOG@@3VCLog@@A
  0018d	ff d6		 call	 esi
  0018f	83 c4 10	 add	 esp, 16			; 00000010H

; 138  : 
; 139  : 		g_QuestMgr.ProcessChangeStage();

  00192	e8 00 00 00 00	 call	 ?GetSingleton@ioQuestManager@@SAAAV1@XZ ; ioQuestManager::GetSingleton
  00197	8b c8		 mov	 ecx, eax
  00199	e8 00 00 00 00	 call	 ?ProcessChangeStage@ioQuestManager@@QAEXXZ ; ioQuestManager::ProcessChangeStage

; 140  : 		SP2Packet kPacket( CTPK_LOGOUT );

  0019e	6a 04		 push	 4
  001a0	8d 8d bc fe fe
	ff		 lea	 ecx, DWORD PTR _kPacket$505163[ebp]
  001a6	e8 00 00 00 00	 call	 ??0SP2Packet@@QAE@K@Z	; SP2Packet::SP2Packet

; 141  : 		TCPNetwork::SendToServer( kPacket );

  001ab	8d 85 bc fe fe
	ff		 lea	 eax, DWORD PTR _kPacket$505163[ebp]
  001b1	50		 push	 eax
  001b2	89 7d fc	 mov	 DWORD PTR __$EHRec$[ebp+8], edi
  001b5	e8 00 00 00 00	 call	 ?SendToServer@TCPNetwork@@YAXAAVSP2Packet@@@Z ; TCPNetwork::SendToServer
  001ba	59		 pop	 ecx

; 142  : 
; 143  : 		char szLogMessage[MAX_PATH];
; 144  : 		wsprintf( szLogMessage, "%d:%s Block User", g_MyInfo.GetUserIndex(), g_MyInfo.GetPublicID().c_str() );

  001bb	e8 00 00 00 00	 call	 ?GetSingleton@ioMyInfo@@SAAAV1@XZ ; ioMyInfo::GetSingleton
  001c0	8b f8		 mov	 edi, eax
  001c2	e8 00 00 00 00	 call	 ?GetSingleton@ioMyInfo@@SAAAV1@XZ ; ioMyInfo::GetSingleton
  001c7	8d 4f 1c	 lea	 ecx, DWORD PTR [edi+28]
  001ca	89 85 9c 7e fe
	ff		 mov	 DWORD PTR $T505509[ebp], eax
  001d0	ff 15 00 00 00
	00		 call	 DWORD PTR __imp_?c_str@ioHashString@@QBEPBDXZ
  001d6	50		 push	 eax
  001d7	8b 85 9c 7e fe
	ff		 mov	 eax, DWORD PTR $T505509[ebp]
  001dd	ff 70 08	 push	 DWORD PTR [eax+8]
  001e0	8d 85 ec fe ff
	ff		 lea	 eax, DWORD PTR _szLogMessage$505164[ebp]
  001e6	68 00 00 00 00	 push	 OFFSET ??_C@_0BB@DADNPNFG@?$CFd?3?$CFs?5Block?5User?$AA@
  001eb	50		 push	 eax
  001ec	ff 15 00 00 00
	00		 call	 DWORD PTR __imp__wsprintfA
  001f2	83 c4 10	 add	 esp, 16			; 00000010H

; 145  : 
; 146  : 		SP2Packet kLogPacket( LUPK_LOG );

  001f5	68 00 90 00 00	 push	 36864			; 00009000H
  001fa	8d 8d d4 7e ff
	ff		 lea	 ecx, DWORD PTR _kLogPacket$505166[ebp]
  00200	e8 00 00 00 00	 call	 ??0SP2Packet@@QAE@K@Z	; SP2Packet::SP2Packet

; 147  : 		kLogPacket << "CheckError";

  00205	68 00 00 00 00	 push	 OFFSET ??_C@_0L@JLPANJNL@CheckError?$AA@
  0020a	8d 8d d4 7e ff
	ff		 lea	 ecx, DWORD PTR _kLogPacket$505166[ebp]
  00210	c6 45 fc 06	 mov	 BYTE PTR __$EHRec$[ebp+8], 6
  00214	e8 00 00 00 00	 call	 ??6SP2Packet@@QAEAAV0@PBD@Z ; SP2Packet::operator<<

; 148  : 		kLogPacket << szLogMessage;

  00219	8d 85 ec fe ff
	ff		 lea	 eax, DWORD PTR _szLogMessage$505164[ebp]
  0021f	50		 push	 eax
  00220	8d 8d d4 7e ff
	ff		 lea	 ecx, DWORD PTR _kLogPacket$505166[ebp]
  00226	e8 00 00 00 00	 call	 ??6SP2Packet@@QAEAAV0@PAD@Z ; SP2Packet::operator<<

; 149  : 		kLogPacket << 322;  // 오류번호

  0022b	68 42 01 00 00	 push	 322			; 00000142H
  00230	8d 8d d4 7e ff
	ff		 lea	 ecx, DWORD PTR _kLogPacket$505166[ebp]
  00236	e8 00 00 00 00	 call	 ??6SP2Packet@@QAEAAV0@H@Z ; SP2Packet::operator<<

; 150  : 		kLogPacket << true; // write db

  0023b	6a 01		 push	 1
  0023d	8d 8d d4 7e ff
	ff		 lea	 ecx, DWORD PTR _kLogPacket$505166[ebp]
  00243	e8 00 00 00 00	 call	 ??6SP2Packet@@QAEAAV0@_N@Z ; SP2Packet::operator<<

; 151  : 		P2PNetwork::SendLog( kLogPacket );

  00248	8d 85 d4 7e ff
	ff		 lea	 eax, DWORD PTR _kLogPacket$505166[ebp]
  0024e	50		 push	 eax
  0024f	e8 00 00 00 00	 call	 ?SendLog@P2PNetwork@@YAXAAVSP2Packet@@@Z ; P2PNetwork::SendLog

; 152  : 
; 153  : 		LOG.PrintTimeAndLog(0, "%s", szLogMessage );

  00254	8d 85 ec fe ff
	ff		 lea	 eax, DWORD PTR _szLogMessage$505164[ebp]
  0025a	50		 push	 eax
  0025b	68 00 00 00 00	 push	 OFFSET ??_C@_02DKCKIIND@?$CFs?$AA@
  00260	53		 push	 ebx
  00261	ff 35 00 00 00
	00		 push	 DWORD PTR __imp_?LOG@@3VCLog@@A
  00267	ff d6		 call	 esi

; 154  : 	}

  00269	c6 45 fc 05	 mov	 BYTE PTR __$EHRec$[ebp+8], 5
$LN47@iwm_hide:
  0026d	83 c4 14	 add	 esp, 20			; 00000014H
  00270	8d 8d d4 7e ff
	ff		 lea	 ecx, DWORD PTR _kLogPacket$505166[ebp]
  00276	e8 00 00 00 00	 call	 ??1SP2Packet@@UAE@XZ	; SP2Packet::~SP2Packet
  0027b	eb 5e		 jmp	 SHORT $LN43@iwm_hide
$LN5@iwm_hide:

; 155  : 	else if( m_iType == TYPE_QUEST_ABUSE_EXIT )

  0027d	6a 08		 push	 8
  0027f	5e		 pop	 esi
  00280	3b c6		 cmp	 eax, esi
  00282	75 6b		 jne	 SHORT $LN3@iwm_hide

; 156  : 	{
; 157  : 		LOG.PrintTimeAndLog( 0, "ExitProgram - 14 %d", m_iType );

  00284	56		 push	 esi
  00285	8b 35 00 00 00
	00		 mov	 esi, DWORD PTR __imp_?PrintTimeAndLog@CLog@@QAAXHPADZZ
  0028b	68 00 00 00 00	 push	 OFFSET ??_C@_0BE@OKGIPHK@ExitProgram?5?9?514?5?$CFd?$AA@
  00290	53		 push	 ebx
  00291	ff 35 00 00 00
	00		 push	 DWORD PTR __imp_?LOG@@3VCLog@@A
  00297	ff d6		 call	 esi
  00299	83 c4 10	 add	 esp, 16			; 00000010H

; 158  : 
; 159  : 		g_QuestMgr.ProcessChangeStage();

  0029c	e8 00 00 00 00	 call	 ?GetSingleton@ioQuestManager@@SAAAV1@XZ ; ioQuestManager::GetSingleton
  002a1	8b c8		 mov	 ecx, eax
  002a3	e8 00 00 00 00	 call	 ?ProcessChangeStage@ioQuestManager@@QAEXXZ ; ioQuestManager::ProcessChangeStage

; 160  : 		SP2Packet kPacket( CTPK_LOGOUT );

  002a8	6a 04		 push	 4
  002aa	8d 8d bc fe fe
	ff		 lea	 ecx, DWORD PTR _kPacket$505169[ebp]
  002b0	e8 00 00 00 00	 call	 ??0SP2Packet@@QAE@K@Z	; SP2Packet::SP2Packet

; 161  : 		TCPNetwork::SendToServer( kPacket );

  002b5	8d 85 bc fe fe
	ff		 lea	 eax, DWORD PTR _kPacket$505169[ebp]
  002bb	50		 push	 eax
  002bc	c7 45 fc 07 00
	00 00		 mov	 DWORD PTR __$EHRec$[ebp+8], 7
  002c3	e8 00 00 00 00	 call	 ?SendToServer@TCPNetwork@@YAXAAVSP2Packet@@@Z ; TCPNetwork::SendToServer

; 162  : 
; 163  : 		LOG.PrintTimeAndLog(0, "TYPE_QUEST_ABUSE_EXIT" );

  002c8	c7 04 24 00 00
	00 00		 mov	 DWORD PTR [esp], OFFSET ??_C@_0BG@EJENMNHG@TYPE_QUEST_ABUSE_EXIT?$AA@
  002cf	53		 push	 ebx
  002d0	ff 35 00 00 00
	00		 push	 DWORD PTR __imp_?LOG@@3VCLog@@A
  002d6	ff d6		 call	 esi
  002d8	83 c4 0c	 add	 esp, 12			; 0000000cH
$LN43@iwm_hide:

; 164  : 	}

  002db	8d 8d bc fe fe
	ff		 lea	 ecx, DWORD PTR _kPacket$505169[ebp]
$LN46@iwm_hide:
  002e1	83 4d fc ff	 or	 DWORD PTR __$EHRec$[ebp+8], -1
  002e5	e8 00 00 00 00	 call	 ??1SP2Packet@@UAE@XZ	; SP2Packet::~SP2Packet
  002ea	e9 a6 01 00 00	 jmp	 $LN1@iwm_hide
$LN3@iwm_hide:

; 165  : 	else if( m_iType == TYPE_HACK_DETECTED_EXIT )

  002ef	83 f8 0b	 cmp	 eax, 11			; 0000000bH
  002f2	0f 85 9d 01 00
	00		 jne	 $LN1@iwm_hide

; 166  : 	{
; 167  : 		LOG.PrintTimeAndLog( 0, "ExitProgram - 500 %d", m_iType );

  002f8	50		 push	 eax
  002f9	68 00 00 00 00	 push	 OFFSET ??_C@_0BF@PIPHHGEM@ExitProgram?5?9?5500?5?$CFd?$AA@
  002fe	53		 push	 ebx
  002ff	ff 35 00 00 00
	00		 push	 DWORD PTR __imp_?LOG@@3VCLog@@A
  00305	ff 15 00 00 00
	00		 call	 DWORD PTR __imp_?PrintTimeAndLog@CLog@@QAAXHPADZZ
  0030b	83 c4 10	 add	 esp, 16			; 00000010H

; 168  : 
; 169  : 		g_QuestMgr.ProcessChangeStage();

  0030e	e8 00 00 00 00	 call	 ?GetSingleton@ioQuestManager@@SAAAV1@XZ ; ioQuestManager::GetSingleton
  00313	8b c8		 mov	 ecx, eax
  00315	e8 00 00 00 00	 call	 ?ProcessChangeStage@ioQuestManager@@QAEXXZ ; ioQuestManager::ProcessChangeStage

; 170  : 		SP2Packet kPacket( CTPK_LOGOUT );

  0031a	6a 04		 push	 4
  0031c	8d 8d a4 7e fe
	ff		 lea	 ecx, DWORD PTR _kPacket$505174[ebp]
  00322	e8 00 00 00 00	 call	 ??0SP2Packet@@QAE@K@Z	; SP2Packet::SP2Packet

; 171  : 		TCPNetwork::SendToServer( kPacket );

  00327	8d 85 a4 7e fe
	ff		 lea	 eax, DWORD PTR _kPacket$505174[ebp]
  0032d	50		 push	 eax
  0032e	89 75 fc	 mov	 DWORD PTR __$EHRec$[ebp+8], esi
  00331	e8 00 00 00 00	 call	 ?SendToServer@TCPNetwork@@YAXAAVSP2Packet@@@Z ; TCPNetwork::SendToServer
  00336	59		 pop	 ecx

; 172  : 	}

  00337	8d 8d a4 7e fe
	ff		 lea	 ecx, DWORD PTR _kPacket$505174[ebp]
  0033d	eb a2		 jmp	 SHORT $LN46@iwm_hide
$LN12@iwm_hide:

; 79   : 	{
; 80   : 		LOG.PrintTimeAndLog( 0, "ExitProgram - 14 %d", m_iType );

  0033f	8b 35 00 00 00
	00		 mov	 esi, DWORD PTR __imp_?PrintTimeAndLog@CLog@@QAAXHPADZZ
  00345	50		 push	 eax
  00346	68 00 00 00 00	 push	 OFFSET ??_C@_0BE@OKGIPHK@ExitProgram?5?9?514?5?$CFd?$AA@
  0034b	53		 push	 ebx
  0034c	ff 35 00 00 00
	00		 push	 DWORD PTR __imp_?LOG@@3VCLog@@A
  00352	ff d6		 call	 esi
  00354	83 c4 10	 add	 esp, 16			; 00000010H

; 81   : 
; 82   : 		g_QuestMgr.ProcessChangeStage();

  00357	e8 00 00 00 00	 call	 ?GetSingleton@ioQuestManager@@SAAAV1@XZ ; ioQuestManager::GetSingleton
  0035c	8b c8		 mov	 ecx, eax
  0035e	e8 00 00 00 00	 call	 ?ProcessChangeStage@ioQuestManager@@QAEXXZ ; ioQuestManager::ProcessChangeStage

; 83   : 		SP2Packet kPacket( CTPK_LOGOUT );

  00363	6a 04		 push	 4
  00365	8d 8d bc fe fe
	ff		 lea	 ecx, DWORD PTR _kPacket$505143[ebp]
  0036b	e8 00 00 00 00	 call	 ??0SP2Packet@@QAE@K@Z	; SP2Packet::SP2Packet

; 84   : 		TCPNetwork::SendToServer( kPacket );

  00370	8d 85 bc fe fe
	ff		 lea	 eax, DWORD PTR _kPacket$505143[ebp]
  00376	50		 push	 eax
  00377	89 5d fc	 mov	 DWORD PTR __$EHRec$[ebp+8], ebx
  0037a	e8 00 00 00 00	 call	 ?SendToServer@TCPNetwork@@YAXAAVSP2Packet@@@Z ; TCPNetwork::SendToServer

; 85   : 
; 86   : 		if( m_iType == TYPE_LANCABLE_EXIT )

  0037f	8b 85 a0 7e fe
	ff		 mov	 eax, DWORD PTR _this$GSCopy$[ebp]
  00385	8b 80 64 01 00
	00		 mov	 eax, DWORD PTR [eax+356]
  0038b	59		 pop	 ecx
  0038c	83 f8 03	 cmp	 eax, 3
  0038f	75 3a		 jne	 SHORT $LN11@iwm_hide

; 87   : 		{
; 88   : 			char szLogMessage[MAX_PATH];
; 89   : 			wsprintf( szLogMessage, "%s LanCable UnPluged", g_MyInfo.GetPublicID().c_str() );

  00391	e8 00 00 00 00	 call	 ?GetSingleton@ioMyInfo@@SAAAV1@XZ ; ioMyInfo::GetSingleton
  00396	8d 48 1c	 lea	 ecx, DWORD PTR [eax+28]
  00399	ff 15 00 00 00
	00		 call	 DWORD PTR __imp_?c_str@ioHashString@@QBEPBDXZ
  0039f	50		 push	 eax
  003a0	8d 85 ec fe ff
	ff		 lea	 eax, DWORD PTR _szLogMessage$505145[ebp]
  003a6	68 00 00 00 00	 push	 OFFSET ??_C@_0BF@DHHPIJEC@?$CFs?5LanCable?5UnPluged?$AA@
  003ab	50		 push	 eax
  003ac	ff 15 00 00 00
	00		 call	 DWORD PTR __imp__wsprintfA
  003b2	83 c4 0c	 add	 esp, 12			; 0000000cH

; 90   : 
; 91   : 			SP2Packet kPacket( LUPK_LOG );

  003b5	68 00 90 00 00	 push	 36864			; 00009000H
  003ba	8d 8d d4 7e ff
	ff		 lea	 ecx, DWORD PTR _kPacket$505147[ebp]
  003c0	e8 00 00 00 00	 call	 ??0SP2Packet@@QAE@K@Z	; SP2Packet::SP2Packet
  003c5	c6 45 fc 01	 mov	 BYTE PTR __$EHRec$[ebp+8], 1

; 92   : 			kPacket << "CheckError";
; 93   : 			kPacket << szLogMessage;
; 94   : 			kPacket << 319;  // 오류번호
; 95   : 			kPacket << true; // write db
; 96   : 			P2PNetwork::SendLog( kPacket );
; 97   : 
; 98   : 			LOG.PrintTimeAndLog(0, "%s", szLogMessage );
; 99   : 		}

  003c9	eb 41		 jmp	 SHORT $LN42@iwm_hide
$LN11@iwm_hide:

; 100  : 		else if( m_iType == TYPE_SERVER_TO_CLIENT_PING_EXIT )

  003cb	83 f8 06	 cmp	 eax, 6
  003ce	0f 85 07 ff ff
	ff		 jne	 $LN43@iwm_hide

; 101  : 		{
; 102  : 			char szLogMessage[MAX_PATH];
; 103  : 			wsprintf( szLogMessage, "%s Server To Client Ping Failed", g_MyInfo.GetPublicID().c_str() );

  003d4	e8 00 00 00 00	 call	 ?GetSingleton@ioMyInfo@@SAAAV1@XZ ; ioMyInfo::GetSingleton
  003d9	8d 48 1c	 lea	 ecx, DWORD PTR [eax+28]
  003dc	ff 15 00 00 00
	00		 call	 DWORD PTR __imp_?c_str@ioHashString@@QBEPBDXZ
  003e2	50		 push	 eax
  003e3	8d 85 ec fe ff
	ff		 lea	 eax, DWORD PTR _szLogMessage$505152[ebp]
  003e9	68 00 00 00 00	 push	 OFFSET ??_C@_0CA@NNGKCBEB@?$CFs?5Server?5To?5Client?5Ping?5Failed?$AA@
  003ee	50		 push	 eax
  003ef	ff 15 00 00 00
	00		 call	 DWORD PTR __imp__wsprintfA
  003f5	83 c4 0c	 add	 esp, 12			; 0000000cH

; 104  : 
; 105  : 			SP2Packet kPacket( LUPK_LOG );

  003f8	68 00 90 00 00	 push	 36864			; 00009000H
  003fd	8d 8d d4 7e ff
	ff		 lea	 ecx, DWORD PTR _kPacket$505154[ebp]
  00403	e8 00 00 00 00	 call	 ??0SP2Packet@@QAE@K@Z	; SP2Packet::SP2Packet
  00408	c6 45 fc 02	 mov	 BYTE PTR __$EHRec$[ebp+8], 2
$LN42@iwm_hide:

; 106  : 			kPacket << "CheckError";

  0040c	68 00 00 00 00	 push	 OFFSET ??_C@_0L@JLPANJNL@CheckError?$AA@
  00411	8d 8d d4 7e ff
	ff		 lea	 ecx, DWORD PTR _kPacket$505154[ebp]
  00417	e8 00 00 00 00	 call	 ??6SP2Packet@@QAEAAV0@PBD@Z ; SP2Packet::operator<<

; 107  : 			kPacket << szLogMessage;

  0041c	8d 85 ec fe ff
	ff		 lea	 eax, DWORD PTR _szLogMessage$505152[ebp]
  00422	50		 push	 eax
  00423	8d 8d d4 7e ff
	ff		 lea	 ecx, DWORD PTR _kPacket$505154[ebp]
  00429	e8 00 00 00 00	 call	 ??6SP2Packet@@QAEAAV0@PAD@Z ; SP2Packet::operator<<

; 108  : 			kPacket << 319;  // 오류번호

  0042e	68 3f 01 00 00	 push	 319			; 0000013fH
  00433	8d 8d d4 7e ff
	ff		 lea	 ecx, DWORD PTR _kPacket$505154[ebp]
  00439	e8 00 00 00 00	 call	 ??6SP2Packet@@QAEAAV0@H@Z ; SP2Packet::operator<<

; 109  : 			kPacket << true; // write db

  0043e	57		 push	 edi
  0043f	8d 8d d4 7e ff
	ff		 lea	 ecx, DWORD PTR _kPacket$505154[ebp]
  00445	e8 00 00 00 00	 call	 ??6SP2Packet@@QAEAAV0@_N@Z ; SP2Packet::operator<<

; 110  : 			P2PNetwork::SendLog( kPacket );

  0044a	8d 85 d4 7e ff
	ff		 lea	 eax, DWORD PTR _kPacket$505154[ebp]
  00450	50		 push	 eax
  00451	e8 00 00 00 00	 call	 ?SendLog@P2PNetwork@@YAXAAVSP2Packet@@@Z ; P2PNetwork::SendLog

; 111  : 
; 112  : 			LOG.PrintTimeAndLog(0, "%s", szLogMessage );

  00456	8d 85 ec fe ff
	ff		 lea	 eax, DWORD PTR _szLogMessage$505152[ebp]
  0045c	50		 push	 eax
  0045d	68 00 00 00 00	 push	 OFFSET ??_C@_02DKCKIIND@?$CFs?$AA@
  00462	53		 push	 ebx
  00463	ff 35 00 00 00
	00		 push	 DWORD PTR __imp_?LOG@@3VCLog@@A
  00469	ff d6		 call	 esi

; 113  : 		}

  0046b	88 5d fc	 mov	 BYTE PTR __$EHRec$[ebp+8], bl

; 114  : 	}

  0046e	e9 fa fd ff ff	 jmp	 $LN47@iwm_hide
$LN15@iwm_hide:

; 48   : 	{
; 49   : 		LOG.PrintTimeAndLog( 0, "ExitProgram - 14 ( %d )", m_iType );

  00473	50		 push	 eax
  00474	68 00 00 00 00	 push	 OFFSET ??_C@_0BI@MFHOBKLM@ExitProgram?5?9?514?5?$CI?5?$CFd?5?$CJ?$AA@
  00479	53		 push	 ebx
  0047a	ff 35 00 00 00
	00		 push	 DWORD PTR __imp_?LOG@@3VCLog@@A
  00480	ff 15 00 00 00
	00		 call	 DWORD PTR __imp_?PrintTimeAndLog@CLog@@QAAXHPADZZ
  00486	83 c4 10	 add	 esp, 16			; 00000010H

; 50   : 
; 51   : #if defined( USE_GA )
; 52   : 		if( g_App.GetGAStart() == true )
; 53   : 		{
; 54   : 			char chLabel[32] = {0,};
; 55   : 
; 56   : 			if ( ioLocalManager::GetLocalType() == ioLocalManager::LCT_KOREA )
; 57   : 				sprintf_e( chLabel, "%d_%d", 14, m_iType );
; 58   : 			else
; 59   : 				SafeSprintf( chLabel, sizeof(chLabel), "%1_%2", 14, m_iType );
; 60   : 
; 61   : 			// GAME_END_ERR_POS
; 62   : 			g_HttpMng.GA_EventTracking( g_MyInfo.GetUserIndex()
; 63   : 				, "Game"
; 64   : 				, "Error"
; 65   : 				, chLabel
; 66   : 				, 1
; 67   : 				, "%2FGAME%2FOVER%2FERR"
; 68   : 				, 1 );
; 69   : 
; 70   : 			g_HttpMng.GA_PageVIewTracking( g_MyInfo.GetUserIndex(), "%2FGAME%2FOVER%2FERR", 6, chLabel );
; 71   : 		}		
; 72   : #endif
; 73   : 
; 74   : 		g_App.SetExitProgram();

  00489	e8 00 00 00 00	 call	 ?GetSingleton@ioApplication@@SAAAV1@XZ ; ioApplication::GetSingleton
  0048e	8b c8		 mov	 ecx, eax
  00490	e8 00 00 00 00	 call	 ?SetExitProgram@ioApplication@@QAEXXZ ; ioApplication::SetExitProgram
$LN1@iwm_hide:

; 173  : 
; 174  : #if defined( USE_GA )
; 175  : 	if( g_App.GetGAStart() == true )
; 176  : 	{
; 177  : 		char chLabel[32] = {0,};
; 178  : 
; 179  : 		if ( ioLocalManager::GetLocalType() == ioLocalManager::LCT_KOREA )
; 180  : 			SafeSprintf( chLabel, sizeof(chLabel), STR(1), 14, m_iType );
; 181  : 		else
; 182  : 			SafeSprintf( chLabel, sizeof(chLabel), "%1_%2", 14, m_iType );
; 183  : 
; 184  : 		// GAME_END_ERR_POS
; 185  : 		g_HttpMng.GA_EventTracking( g_MyInfo.GetUserIndex()
; 186  : 			, "Game"
; 187  : 			, "Error"
; 188  : 			, chLabel
; 189  : 			, 1
; 190  : 			, "%2FGAME%2FOVER%2FERR"
; 191  : 			, 1 );
; 192  : 
; 193  : 		g_HttpMng.GA_PageVIewTracking( g_MyInfo.GetUserIndex(), "%2FGAME%2FOVER%2FERR", 6, chLabel );
; 194  : 	}		
; 195  : #endif
; 196  : 
; 197  : 	m_iType = TYPE_NONE;

  00495	8b 85 a0 7e fe
	ff		 mov	 eax, DWORD PTR _this$GSCopy$[ebp]
  0049b	89 98 64 01 00
	00		 mov	 DWORD PTR [eax+356], ebx

; 198  : }

  004a1	8b 4d f4	 mov	 ecx, DWORD PTR __$EHRec$[ebp]
  004a4	64 89 0d 00 00
	00 00		 mov	 DWORD PTR fs:0, ecx
  004ab	59		 pop	 ecx
  004ac	5f		 pop	 edi
  004ad	5e		 pop	 esi
  004ae	5b		 pop	 ebx
  004af	8b 4d f0	 mov	 ecx, DWORD PTR __$ArrayPad$[ebp]
  004b2	33 cd		 xor	 ecx, ebp
  004b4	e8 00 00 00 00	 call	 @__security_check_cookie@4
  004b9	c9		 leave
  004ba	c3		 ret	 0
_TEXT	ENDS
;	COMDAT text$x
text$x	SEGMENT
__unwindfunclet$?iwm_hide@DisconnectWnd@@UAEXXZ$3:
  00000	8d 8d bc fe fe
	ff		 lea	 ecx, DWORD PTR _kPacket$505157[ebp]
  00006	e9 00 00 00 00	 jmp	 ??1SP2Packet@@UAE@XZ	; SP2Packet::~SP2Packet
__unwindfunclet$?iwm_hide@DisconnectWnd@@UAEXXZ$4:
  0000b	8d 8d d4 7e ff
	ff		 lea	 ecx, DWORD PTR _kLogPacket$505160[ebp]
  00011	e9 00 00 00 00	 jmp	 ??1SP2Packet@@UAE@XZ	; SP2Packet::~SP2Packet
__unwindfunclet$?iwm_hide@DisconnectWnd@@UAEXXZ$5:
  00016	8d 8d bc fe fe
	ff		 lea	 ecx, DWORD PTR _kPacket$505163[ebp]
  0001c	e9 00 00 00 00	 jmp	 ??1SP2Packet@@UAE@XZ	; SP2Packet::~SP2Packet
__unwindfunclet$?iwm_hide@DisconnectWnd@@UAEXXZ$6:
  00021	8d 8d d4 7e ff
	ff		 lea	 ecx, DWORD PTR _kLogPacket$505166[ebp]
  00027	e9 00 00 00 00	 jmp	 ??1SP2Packet@@UAE@XZ	; SP2Packet::~SP2Packet
__unwindfunclet$?iwm_hide@DisconnectWnd@@UAEXXZ$7:
  0002c	8d 8d bc fe fe
	ff		 lea	 ecx, DWORD PTR _kPacket$505169[ebp]
  00032	e9 00 00 00 00	 jmp	 ??1SP2Packet@@UAE@XZ	; SP2Packet::~SP2Packet
__unwindfunclet$?iwm_hide@DisconnectWnd@@UAEXXZ$8:
  00037	8d 8d a4 7e fe
	ff		 lea	 ecx, DWORD PTR _kPacket$505174[ebp]
  0003d	e9 00 00 00 00	 jmp	 ??1SP2Packet@@UAE@XZ	; SP2Packet::~SP2Packet
__unwindfunclet$?iwm_hide@DisconnectWnd@@UAEXXZ$0:
  00042	8d 8d bc fe fe
	ff		 lea	 ecx, DWORD PTR _kPacket$505143[ebp]
  00048	e9 00 00 00 00	 jmp	 ??1SP2Packet@@UAE@XZ	; SP2Packet::~SP2Packet
__unwindfunclet$?iwm_hide@DisconnectWnd@@UAEXXZ$1:
  0004d	8d 8d d4 7e ff
	ff		 lea	 ecx, DWORD PTR _kPacket$505147[ebp]
  00053	e9 00 00 00 00	 jmp	 ??1SP2Packet@@UAE@XZ	; SP2Packet::~SP2Packet
__unwindfunclet$?iwm_hide@DisconnectWnd@@UAEXXZ$2:
  00058	8d 8d d4 7e ff
	ff		 lea	 ecx, DWORD PTR _kPacket$505154[ebp]
  0005e	e9 00 00 00 00	 jmp	 ??1SP2Packet@@UAE@XZ	; SP2Packet::~SP2Packet
__ehhandler$?iwm_hide@DisconnectWnd@@UAEXXZ:
  00063	8b 54 24 08	 mov	 edx, DWORD PTR [esp+8]
  00067	8d 42 0c	 lea	 eax, DWORD PTR [edx+12]
  0006a	8b 8a 98 7e fe
	ff		 mov	 ecx, DWORD PTR [edx-98664]
  00070	33 c8		 xor	 ecx, eax
  00072	e8 00 00 00 00	 call	 @__security_check_cookie@4
  00077	8b 4a fc	 mov	 ecx, DWORD PTR [edx-4]
  0007a	33 c8		 xor	 ecx, eax
  0007c	e8 00 00 00 00	 call	 @__security_check_cookie@4
  00081	b8 00 00 00 00	 mov	 eax, OFFSET __ehfuncinfo$?iwm_hide@DisconnectWnd@@UAEXXZ
  00086	e9 00 00 00 00	 jmp	 ___CxxFrameHandler3
text$x	ENDS
?iwm_hide@DisconnectWnd@@UAEXXZ ENDP			; DisconnectWnd::iwm_hide
EXTRN	?SetNoneUIMode@ioSP2GUIManager@@QAEX_N@Z:PROC	; ioSP2GUIManager::SetNoneUIMode
EXTRN	?GetSingleton@ioSP2GUIManager@@SAAAV1@XZ:PROC	; ioSP2GUIManager::GetSingleton
; Function compile flags: /Ogsp
;	COMDAT ?iwm_show@DisconnectWnd@@UAEXXZ
_TEXT	SEGMENT
?iwm_show@DisconnectWnd@@UAEXXZ PROC			; DisconnectWnd::iwm_show, COMDAT
; _this$ = ecx

; 350  : {

  00000	56		 push	 esi
  00001	8b f1		 mov	 esi, ecx

; 351  : 	m_dwShowTime = FRAMEGETTIME();

  00003	ff 15 00 00 00
	00		 call	 DWORD PTR __imp_?GetSingleton@ioFrameTimer@@SAAAV1@XZ
  00009	8b c8		 mov	 ecx, eax
  0000b	ff 15 00 00 00
	00		 call	 DWORD PTR __imp_?GetLoopSec@ioFrameTimer@@QBEKXZ
  00011	89 86 60 01 00
	00		 mov	 DWORD PTR [esi+352], eax

; 352  : 	
; 353  : 	if( g_GUIMgr.IsNoneUIMode() )

  00017	e8 00 00 00 00	 call	 ?GetSingleton@ioSP2GUIManager@@SAAAV1@XZ ; ioSP2GUIManager::GetSingleton
  0001c	80 b8 e1 04 00
	00 00		 cmp	 BYTE PTR [eax+1249], 0
  00023	5e		 pop	 esi
  00024	74 0e		 je	 SHORT $LN1@iwm_show

; 354  : 		g_GUIMgr.SetNoneUIMode( false );

  00026	6a 00		 push	 0
  00028	e8 00 00 00 00	 call	 ?GetSingleton@ioSP2GUIManager@@SAAAV1@XZ ; ioSP2GUIManager::GetSingleton
  0002d	8b c8		 mov	 ecx, eax
  0002f	e8 00 00 00 00	 call	 ?SetNoneUIMode@ioSP2GUIManager@@QAEX_N@Z ; ioSP2GUIManager::SetNoneUIMode
$LN1@iwm_show:

; 355  : }

  00034	c3		 ret	 0
?iwm_show@DisconnectWnd@@UAEXXZ ENDP			; DisconnectWnd::iwm_show
_TEXT	ENDS
END
