; Listing generated by Microsoft (R) Optimizing Compiler Version 16.00.30319.01 

	TITLE	D:\Lost Saga For Developer\Youtube\Tutorial\Source\src\LSClient\GUI\EnablePowerupListWnd.cpp
	.686P
	.XMM
	include listing.inc
	.model	flat

INCLUDELIB MSVCRT
INCLUDELIB OLDNAMES

PUBLIC	?SetMarkType@NewShopIconBtn@@QAEXH@Z		; NewShopIconBtn::SetMarkType
; Function compile flags: /Ogsp
; File d:\lost saga for developer\youtube\tutorial\source\src\lsclient\gui\newshopiconbtn.h
;	COMDAT ?SetMarkType@NewShopIconBtn@@QAEXH@Z
_TEXT	SEGMENT
_iMarkType$ = 8						; size = 4
?SetMarkType@NewShopIconBtn@@QAEXH@Z PROC		; NewShopIconBtn::SetMarkType, COMDAT
; _this$ = ecx

; 64   : 	void SetMarkType( int iMarkType )	{ m_iMarkType = iMarkType; } 

  00000	55		 push	 ebp
  00001	8b ec		 mov	 ebp, esp
  00003	8b 45 08	 mov	 eax, DWORD PTR _iMarkType$[ebp]
  00006	89 81 4c 02 00
	00		 mov	 DWORD PTR [ecx+588], eax
  0000c	5d		 pop	 ebp
  0000d	c2 04 00	 ret	 4
?SetMarkType@NewShopIconBtn@@QAEXH@Z ENDP		; NewShopIconBtn::SetMarkType
_TEXT	ENDS
PUBLIC	?SetGradeType@NewShopIconBtn@@QAEXH@Z		; NewShopIconBtn::SetGradeType
; Function compile flags: /Ogsp
;	COMDAT ?SetGradeType@NewShopIconBtn@@QAEXH@Z
_TEXT	SEGMENT
_nGradeType$ = 8					; size = 4
?SetGradeType@NewShopIconBtn@@QAEXH@Z PROC		; NewShopIconBtn::SetGradeType, COMDAT
; _this$ = ecx

; 67   : 	void SetGradeType( int nGradeType ) { m_nGradeType = nGradeType; }

  00000	55		 push	 ebp
  00001	8b ec		 mov	 ebp, esp
  00003	8b 45 08	 mov	 eax, DWORD PTR _nGradeType$[ebp]
  00006	89 81 68 02 00
	00		 mov	 DWORD PTR [ecx+616], eax
  0000c	5d		 pop	 ebp
  0000d	c2 04 00	 ret	 4
?SetGradeType@NewShopIconBtn@@QAEXH@Z ENDP		; NewShopIconBtn::SetGradeType
_TEXT	ENDS
PUBLIC	?SetItemCode@EnablePowerupListIconBtn@@QAEXH@Z	; EnablePowerupListIconBtn::SetItemCode
; Function compile flags: /Ogsp
; File d:\lost saga for developer\youtube\tutorial\source\src\lsclient\gui\enablepoweruplistwnd.h
;	COMDAT ?SetItemCode@EnablePowerupListIconBtn@@QAEXH@Z
_TEXT	SEGMENT
_iItemCode$ = 8						; size = 4
?SetItemCode@EnablePowerupListIconBtn@@QAEXH@Z PROC	; EnablePowerupListIconBtn::SetItemCode, COMDAT
; _this$ = ecx

; 56   : 	void SetItemCode(int iItemCode ) { m_iItemCode = iItemCode; }

  00000	55		 push	 ebp
  00001	8b ec		 mov	 ebp, esp
  00003	8b 45 08	 mov	 eax, DWORD PTR _iItemCode$[ebp]
  00006	89 81 7c 02 00
	00		 mov	 DWORD PTR [ecx+636], eax
  0000c	5d		 pop	 ebp
  0000d	c2 04 00	 ret	 4
?SetItemCode@EnablePowerupListIconBtn@@QAEXH@Z ENDP	; EnablePowerupListIconBtn::SetItemCode
_TEXT	ENDS
PUBLIC	?GetItemCode@EnablePowerupListIconBtn@@QBE?BHXZ	; EnablePowerupListIconBtn::GetItemCode
; Function compile flags: /Ogsp
;	COMDAT ?GetItemCode@EnablePowerupListIconBtn@@QBE?BHXZ
_TEXT	SEGMENT
?GetItemCode@EnablePowerupListIconBtn@@QBE?BHXZ PROC	; EnablePowerupListIconBtn::GetItemCode, COMDAT
; _this$ = ecx

; 57   : 	const int  GetItemCode()	const { return m_iItemCode; }

  00000	8b 81 7c 02 00
	00		 mov	 eax, DWORD PTR [ecx+636]
  00006	c3		 ret	 0
?GetItemCode@EnablePowerupListIconBtn@@QBE?BHXZ ENDP	; EnablePowerupListIconBtn::GetItemCode
_TEXT	ENDS
PUBLIC	??0PowerupListInfo@@QAE@XZ			; PowerupListInfo::PowerupListInfo
; Function compile flags: /Ogsp
;	COMDAT ??0PowerupListInfo@@QAE@XZ
_TEXT	SEGMENT
??0PowerupListInfo@@QAE@XZ PROC				; PowerupListInfo::PowerupListInfo, COMDAT
; _this$ = ecx

; 71   : 	PowerupListInfo()

  00000	8b c1		 mov	 eax, ecx

; 72   : 	{
; 73   : 		m_iData     = 0;

  00002	83 20 00	 and	 DWORD PTR [eax], 0

; 74   : 		m_iShopMarkType = SHOP_MARK_TYPE_NONE;

  00005	83 60 04 00	 and	 DWORD PTR [eax+4], 0

; 75   : 		m_iOrder;
; 76   : 	}

  00009	c3		 ret	 0
??0PowerupListInfo@@QAE@XZ ENDP				; PowerupListInfo::PowerupListInfo
_TEXT	ENDS
PUBLIC	??REnablePowerupListSort@@QBE_NABUPowerupListInfo@@0@Z ; EnablePowerupListSort::operator()
; Function compile flags: /Ogsp
;	COMDAT ??REnablePowerupListSort@@QBE_NABUPowerupListInfo@@0@Z
_TEXT	SEGMENT
_lhs$ = 8						; size = 4
_rhs$ = 12						; size = 4
??REnablePowerupListSort@@QBE_NABUPowerupListInfo@@0@Z PROC ; EnablePowerupListSort::operator(), COMDAT
; _this$ = ecx

; 151  : 	{

  00000	55		 push	 ebp
  00001	8b ec		 mov	 ebp, esp

; 152  : 		if( lhs.m_iOrder > rhs.m_iOrder )

  00003	8b 55 08	 mov	 edx, DWORD PTR _lhs$[ebp]
  00006	8b 42 08	 mov	 eax, DWORD PTR [edx+8]
  00009	56		 push	 esi
  0000a	8b 75 0c	 mov	 esi, DWORD PTR _rhs$[ebp]
  0000d	8b 4e 08	 mov	 ecx, DWORD PTR [esi+8]
  00010	3b c1		 cmp	 eax, ecx
  00012	7e 04		 jle	 SHORT $LN6@operator
$LN7@operator:

; 153  : 			return true;

  00014	b0 01		 mov	 al, 1
  00016	eb 0a		 jmp	 SHORT $LN4@operator
$LN6@operator:

; 154  : 		if( lhs.m_iOrder == rhs.m_iOrder )

  00018	75 06		 jne	 SHORT $LN1@operator

; 155  : 		{
; 156  : 			if( lhs.m_iData < rhs.m_iData )

  0001a	8b 02		 mov	 eax, DWORD PTR [edx]
  0001c	3b 06		 cmp	 eax, DWORD PTR [esi]

; 157  : 				return true;

  0001e	7c f4		 jl	 SHORT $LN7@operator
$LN1@operator:

; 158  : 		}
; 159  : 
; 160  : 		return false;

  00020	32 c0		 xor	 al, al
$LN4@operator:
  00022	5e		 pop	 esi

; 161  : 	}

  00023	5d		 pop	 ebp
  00024	c2 08 00	 ret	 8
??REnablePowerupListSort@@QBE_NABUPowerupListInfo@@0@Z ENDP ; EnablePowerupListSort::operator()
_TEXT	ENDS
PUBLIC	__real@3f266666
PUBLIC	??_C@_0CC@PFGACOMM@EnablePowerupListWnd?3?3SettingTex@ ; `string'
PUBLIC	??_C@_00CNPNBAHC@?$AA@				; `string'
PUBLIC	?SettingText@EnablePowerupListWnd@@IAEXXZ	; EnablePowerupListWnd::SettingText
EXTRN	__imp_?c_str@ioHashString@@QBEPBDXZ:PROC
EXTRN	?AddTextPiece@ioComplexStringPrinter@@QAAXMPBDZZ:PROC ; ioComplexStringPrinter::AddTextPiece
EXTRN	__imp_?GetString@ioStringManager@@QAEPADPBD0HW4FileNamePrefix@1@@Z:PROC
EXTRN	__imp_?GetSingleton@ioStringManager@@SAAAV1@XZ:PROC
EXTRN	?SetTextColor@ioComplexStringPrinter@@QAEXK@Z:PROC ; ioComplexStringPrinter::SetTextColor
EXTRN	?SetBkColor@ioComplexStringPrinter@@QAEXHHH@Z:PROC ; ioComplexStringPrinter::SetBkColor
EXTRN	?SetTextStyle@ioComplexStringPrinter@@QAEXW4TextStyle@@@Z:PROC ; ioComplexStringPrinter::SetTextStyle
EXTRN	?ClearList@ioComplexStringPrinter@@QAEXXZ:PROC	; ioComplexStringPrinter::ClearList
EXTRN	__fltused:DWORD
;	COMDAT __real@3f266666
; File d:\lost saga for developer\youtube\tutorial\source\src\lsclient\gui\enablepoweruplistwnd.cpp
CONST	SEGMENT
__real@3f266666 DD 03f266666r			; 0.65
CONST	ENDS
;	COMDAT ??_C@_0CC@PFGACOMM@EnablePowerupListWnd?3?3SettingTex@
CONST	SEGMENT
??_C@_0CC@PFGACOMM@EnablePowerupListWnd?3?3SettingTex@ DB 'EnablePowerupL'
	DB	'istWnd::SettingText', 00H			; `string'
CONST	ENDS
;	COMDAT ??_C@_00CNPNBAHC@?$AA@
CONST	SEGMENT
??_C@_00CNPNBAHC@?$AA@ DB 00H				; `string'
; Function compile flags: /Ogsp
CONST	ENDS
;	COMDAT ?SettingText@EnablePowerupListWnd@@IAEXXZ
_TEXT	SEGMENT
tv234 = -8						; size = 4
_this$ = -4						; size = 4
?SettingText@EnablePowerupListWnd@@IAEXXZ PROC		; EnablePowerupListWnd::SettingText, COMDAT
; _this$ = ecx

; 102  : {

  00000	55		 push	 ebp
  00001	8b ec		 mov	 ebp, esp
  00003	51		 push	 ecx
  00004	51		 push	 ecx
  00005	53		 push	 ebx
  00006	56		 push	 esi
  00007	57		 push	 edi
  00008	8b f1		 mov	 esi, ecx

; 103  : 	for ( int i= 0 ; i<MAX_TEXT ; ++i )

  0000a	6a 02		 push	 2
  0000c	89 75 fc	 mov	 DWORD PTR _this$[ebp], esi
  0000f	8d be 8c 01 00
	00		 lea	 edi, DWORD PTR [esi+396]
  00015	5b		 pop	 ebx
$LL10@SettingTex:

; 104  : 		m_UnderLinePrinter[i].ClearList();

  00016	8b cf		 mov	 ecx, edi
  00018	e8 00 00 00 00	 call	 ?ClearList@ioComplexStringPrinter@@QAEXXZ ; ioComplexStringPrinter::ClearList
  0001d	83 c7 20	 add	 edi, 32			; 00000020H
  00020	4b		 dec	 ebx
  00021	75 f3		 jne	 SHORT $LL10@SettingTex

; 105  : 
; 106  : 	m_PagePrinter.ClearList();

  00023	8d 8e cc 01 00
	00		 lea	 ecx, DWORD PTR [esi+460]
  00029	e8 00 00 00 00	 call	 ?ClearList@ioComplexStringPrinter@@QAEXXZ ; ioComplexStringPrinter::ClearList
  0002e	8d be 8c 01 00
	00		 lea	 edi, DWORD PTR [esi+396]
  00034	c7 45 f8 02 00
	00 00		 mov	 DWORD PTR tv234[ebp], 2
$LL7@SettingTex:

; 107  : 
; 108  : 	for ( int i= 0 ; i<MAX_TEXT ; ++i )
; 109  : 	{
; 110  : 		m_UnderLinePrinter[i].SetTextStyle( TS_NORMAL);

  0003b	33 db		 xor	 ebx, ebx
  0003d	53		 push	 ebx
  0003e	8b cf		 mov	 ecx, edi
  00040	e8 00 00 00 00	 call	 ?SetTextStyle@ioComplexStringPrinter@@QAEXW4TextStyle@@@Z ; ioComplexStringPrinter::SetTextStyle

; 111  : 		m_UnderLinePrinter[i].SetBkColor( 0, 0, 0 );

  00045	53		 push	 ebx
  00046	53		 push	 ebx
  00047	53		 push	 ebx
  00048	8b cf		 mov	 ecx, edi
  0004a	e8 00 00 00 00	 call	 ?SetBkColor@ioComplexStringPrinter@@QAEXHHH@Z ; ioComplexStringPrinter::SetBkColor
  0004f	83 c7 20	 add	 edi, 32			; 00000020H
  00052	ff 4d f8	 dec	 DWORD PTR tv234[ebp]
  00055	75 e4		 jne	 SHORT $LL7@SettingTex

; 112  : 	}
; 113  : 
; 114  : 	if( m_dwCurSubBtn == ID_HERO_BTN )

  00057	8b 86 68 01 00
	00		 mov	 eax, DWORD PTR [esi+360]

; 115  : 	{
; 116  : 		m_UnderLinePrinter[0].SetTextColor( TCT_DEFAULT_DARKGRAY ); 

  0005d	bb 3a 3a 3a ff	 mov	 ebx, -12961222		; ff3a3a3aH
  00062	8d 8e 8c 01 00
	00		 lea	 ecx, DWORD PTR [esi+396]
  00068	53		 push	 ebx
  00069	83 f8 0a	 cmp	 eax, 10			; 0000000aH
  0006c	0f 85 e5 00 00
	00		 jne	 $LN4@SettingTex
  00072	e8 00 00 00 00	 call	 ?SetTextColor@ioComplexStringPrinter@@QAEXK@Z ; ioComplexStringPrinter::SetTextColor

; 117  : 		m_UnderLinePrinter[0].AddTextPiece( FONT_SIZE_13, STR(1) );

  00077	6a 00		 push	 0
  00079	6a 01		 push	 1
  0007b	bf 00 00 00 00	 mov	 edi, OFFSET ??_C@_00CNPNBAHC@?$AA@
  00080	57		 push	 edi
  00081	be 00 00 00 00	 mov	 esi, OFFSET ??_C@_0CC@PFGACOMM@EnablePowerupListWnd?3?3SettingTex@
  00086	56		 push	 esi
  00087	ff 15 00 00 00
	00		 call	 DWORD PTR __imp_?GetSingleton@ioStringManager@@SAAAV1@XZ
  0008d	8b c8		 mov	 ecx, eax
  0008f	ff 15 00 00 00
	00		 call	 DWORD PTR __imp_?GetString@ioStringManager@@QAEPADPBD0HW4FileNamePrefix@1@@Z
  00095	f3 0f 10 05 00
	00 00 00	 movss	 xmm0, DWORD PTR __real@3f266666
  0009d	50		 push	 eax
  0009e	8b 45 fc	 mov	 eax, DWORD PTR _this$[ebp]
  000a1	51		 push	 ecx
  000a2	05 8c 01 00 00	 add	 eax, 396		; 0000018cH
  000a7	f3 0f 11 04 24	 movss	 DWORD PTR [esp], xmm0
  000ac	50		 push	 eax
  000ad	e8 00 00 00 00	 call	 ?AddTextPiece@ioComplexStringPrinter@@QAAXMPBDZZ ; ioComplexStringPrinter::AddTextPiece

; 118  : 
; 119  : 		m_UnderLinePrinter[0].SetTextColor( TCT_DEFAULT_RED ); 

  000b2	8b 4d fc	 mov	 ecx, DWORD PTR _this$[ebp]
  000b5	83 c4 0c	 add	 esp, 12			; 0000000cH
  000b8	68 00 16 b9 ff	 push	 -4647424		; ffb91600H
  000bd	81 c1 8c 01 00
	00		 add	 ecx, 396		; 0000018cH
  000c3	e8 00 00 00 00	 call	 ?SetTextColor@ioComplexStringPrinter@@QAEXK@Z ; ioComplexStringPrinter::SetTextColor

; 120  : 		m_UnderLinePrinter[0].AddTextPiece( FONT_SIZE_13, STR(2) );

  000c8	6a 00		 push	 0
  000ca	6a 02		 push	 2
  000cc	57		 push	 edi
  000cd	56		 push	 esi
  000ce	ff 15 00 00 00
	00		 call	 DWORD PTR __imp_?GetSingleton@ioStringManager@@SAAAV1@XZ
  000d4	8b c8		 mov	 ecx, eax
  000d6	ff 15 00 00 00
	00		 call	 DWORD PTR __imp_?GetString@ioStringManager@@QAEPADPBD0HW4FileNamePrefix@1@@Z
  000dc	f3 0f 10 05 00
	00 00 00	 movss	 xmm0, DWORD PTR __real@3f266666
  000e4	50		 push	 eax
  000e5	8b 45 fc	 mov	 eax, DWORD PTR _this$[ebp]
  000e8	51		 push	 ecx
  000e9	05 8c 01 00 00	 add	 eax, 396		; 0000018cH
  000ee	f3 0f 11 04 24	 movss	 DWORD PTR [esp], xmm0
  000f3	50		 push	 eax
  000f4	e8 00 00 00 00	 call	 ?AddTextPiece@ioComplexStringPrinter@@QAAXMPBDZZ ; ioComplexStringPrinter::AddTextPiece

; 121  : 
; 122  : 		m_UnderLinePrinter[0].SetTextColor( TCT_DEFAULT_DARKGRAY ); 

  000f9	8b 4d fc	 mov	 ecx, DWORD PTR _this$[ebp]
  000fc	83 c4 0c	 add	 esp, 12			; 0000000cH
  000ff	53		 push	 ebx
  00100	81 c1 8c 01 00
	00		 add	 ecx, 396		; 0000018cH
  00106	e8 00 00 00 00	 call	 ?SetTextColor@ioComplexStringPrinter@@QAEXK@Z ; ioComplexStringPrinter::SetTextColor

; 123  : 		m_UnderLinePrinter[0].AddTextPiece( FONT_SIZE_13, STR(3) );

  0010b	6a 00		 push	 0
  0010d	6a 03		 push	 3
  0010f	57		 push	 edi
  00110	56		 push	 esi
  00111	ff 15 00 00 00
	00		 call	 DWORD PTR __imp_?GetSingleton@ioStringManager@@SAAAV1@XZ
  00117	8b c8		 mov	 ecx, eax
  00119	ff 15 00 00 00
	00		 call	 DWORD PTR __imp_?GetString@ioStringManager@@QAEPADPBD0HW4FileNamePrefix@1@@Z
  0011f	f3 0f 10 05 00
	00 00 00	 movss	 xmm0, DWORD PTR __real@3f266666
  00127	50		 push	 eax
  00128	8b 45 fc	 mov	 eax, DWORD PTR _this$[ebp]
  0012b	51		 push	 ecx
  0012c	05 8c 01 00 00	 add	 eax, 396		; 0000018cH
  00131	f3 0f 11 04 24	 movss	 DWORD PTR [esp], xmm0
  00136	50		 push	 eax
  00137	e8 00 00 00 00	 call	 ?AddTextPiece@ioComplexStringPrinter@@QAAXMPBDZZ ; ioComplexStringPrinter::AddTextPiece

; 124  : 
; 125  : 		m_UnderLinePrinter[1].SetTextColor( TCT_DEFAULT_DARKGRAY ); 

  0013c	8b 4d fc	 mov	 ecx, DWORD PTR _this$[ebp]
  0013f	83 c4 0c	 add	 esp, 12			; 0000000cH
  00142	81 c1 ac 01 00
	00		 add	 ecx, 428		; 000001acH
  00148	53		 push	 ebx
  00149	e8 00 00 00 00	 call	 ?SetTextColor@ioComplexStringPrinter@@QAEXK@Z ; ioComplexStringPrinter::SetTextColor

; 126  : 		m_UnderLinePrinter[1].AddTextPiece( FONT_SIZE_13, STR(4) );

  0014e	6a 00		 push	 0
  00150	6a 04		 push	 4
  00152	e9 ce 01 00 00	 jmp	 $LN17@SettingTex
$LN4@SettingTex:

; 127  : 	}
; 128  : 	else if( m_dwCurSubBtn == ID_WEAPON_BTN )

  00157	83 f8 0b	 cmp	 eax, 11			; 0000000bH
  0015a	0f 85 e5 00 00
	00		 jne	 $LN2@SettingTex

; 129  : 	{
; 130  : 		m_UnderLinePrinter[0].SetTextColor( TCT_DEFAULT_DARKGRAY ); 

  00160	e8 00 00 00 00	 call	 ?SetTextColor@ioComplexStringPrinter@@QAEXK@Z ; ioComplexStringPrinter::SetTextColor

; 131  : 		m_UnderLinePrinter[0].AddTextPiece( FONT_SIZE_13, STR(5) );

  00165	6a 00		 push	 0
  00167	6a 05		 push	 5
  00169	bf 00 00 00 00	 mov	 edi, OFFSET ??_C@_00CNPNBAHC@?$AA@
  0016e	57		 push	 edi
  0016f	be 00 00 00 00	 mov	 esi, OFFSET ??_C@_0CC@PFGACOMM@EnablePowerupListWnd?3?3SettingTex@
  00174	56		 push	 esi
  00175	ff 15 00 00 00
	00		 call	 DWORD PTR __imp_?GetSingleton@ioStringManager@@SAAAV1@XZ
  0017b	8b c8		 mov	 ecx, eax
  0017d	ff 15 00 00 00
	00		 call	 DWORD PTR __imp_?GetString@ioStringManager@@QAEPADPBD0HW4FileNamePrefix@1@@Z
  00183	f3 0f 10 05 00
	00 00 00	 movss	 xmm0, DWORD PTR __real@3f266666
  0018b	50		 push	 eax
  0018c	8b 45 fc	 mov	 eax, DWORD PTR _this$[ebp]
  0018f	51		 push	 ecx
  00190	05 8c 01 00 00	 add	 eax, 396		; 0000018cH
  00195	f3 0f 11 04 24	 movss	 DWORD PTR [esp], xmm0
  0019a	50		 push	 eax
  0019b	e8 00 00 00 00	 call	 ?AddTextPiece@ioComplexStringPrinter@@QAAXMPBDZZ ; ioComplexStringPrinter::AddTextPiece

; 132  : 
; 133  : 		m_UnderLinePrinter[0].SetTextColor( TCT_DEFAULT_RED ); 

  001a0	8b 4d fc	 mov	 ecx, DWORD PTR _this$[ebp]
  001a3	83 c4 0c	 add	 esp, 12			; 0000000cH
  001a6	68 00 16 b9 ff	 push	 -4647424		; ffb91600H
  001ab	81 c1 8c 01 00
	00		 add	 ecx, 396		; 0000018cH
  001b1	e8 00 00 00 00	 call	 ?SetTextColor@ioComplexStringPrinter@@QAEXK@Z ; ioComplexStringPrinter::SetTextColor

; 134  : 		m_UnderLinePrinter[0].AddTextPiece( FONT_SIZE_13, STR(6) );

  001b6	6a 00		 push	 0
  001b8	6a 06		 push	 6
  001ba	57		 push	 edi
  001bb	56		 push	 esi
  001bc	ff 15 00 00 00
	00		 call	 DWORD PTR __imp_?GetSingleton@ioStringManager@@SAAAV1@XZ
  001c2	8b c8		 mov	 ecx, eax
  001c4	ff 15 00 00 00
	00		 call	 DWORD PTR __imp_?GetString@ioStringManager@@QAEPADPBD0HW4FileNamePrefix@1@@Z
  001ca	f3 0f 10 05 00
	00 00 00	 movss	 xmm0, DWORD PTR __real@3f266666
  001d2	50		 push	 eax
  001d3	8b 45 fc	 mov	 eax, DWORD PTR _this$[ebp]
  001d6	51		 push	 ecx
  001d7	05 8c 01 00 00	 add	 eax, 396		; 0000018cH
  001dc	f3 0f 11 04 24	 movss	 DWORD PTR [esp], xmm0
  001e1	50		 push	 eax
  001e2	e8 00 00 00 00	 call	 ?AddTextPiece@ioComplexStringPrinter@@QAAXMPBDZZ ; ioComplexStringPrinter::AddTextPiece

; 135  : 
; 136  : 		m_UnderLinePrinter[0].SetTextColor( TCT_DEFAULT_DARKGRAY ); 

  001e7	8b 4d fc	 mov	 ecx, DWORD PTR _this$[ebp]
  001ea	83 c4 0c	 add	 esp, 12			; 0000000cH
  001ed	53		 push	 ebx
  001ee	81 c1 8c 01 00
	00		 add	 ecx, 396		; 0000018cH
  001f4	e8 00 00 00 00	 call	 ?SetTextColor@ioComplexStringPrinter@@QAEXK@Z ; ioComplexStringPrinter::SetTextColor

; 137  : 		m_UnderLinePrinter[0].AddTextPiece( FONT_SIZE_13, STR(7) );

  001f9	6a 00		 push	 0
  001fb	6a 07		 push	 7
  001fd	57		 push	 edi
  001fe	56		 push	 esi
  001ff	ff 15 00 00 00
	00		 call	 DWORD PTR __imp_?GetSingleton@ioStringManager@@SAAAV1@XZ
  00205	8b c8		 mov	 ecx, eax
  00207	ff 15 00 00 00
	00		 call	 DWORD PTR __imp_?GetString@ioStringManager@@QAEPADPBD0HW4FileNamePrefix@1@@Z
  0020d	f3 0f 10 05 00
	00 00 00	 movss	 xmm0, DWORD PTR __real@3f266666
  00215	50		 push	 eax
  00216	8b 45 fc	 mov	 eax, DWORD PTR _this$[ebp]
  00219	51		 push	 ecx
  0021a	05 8c 01 00 00	 add	 eax, 396		; 0000018cH
  0021f	f3 0f 11 04 24	 movss	 DWORD PTR [esp], xmm0
  00224	50		 push	 eax
  00225	e8 00 00 00 00	 call	 ?AddTextPiece@ioComplexStringPrinter@@QAAXMPBDZZ ; ioComplexStringPrinter::AddTextPiece

; 138  : 
; 139  : 		m_UnderLinePrinter[1].SetTextColor( TCT_DEFAULT_DARKGRAY ); 

  0022a	8b 4d fc	 mov	 ecx, DWORD PTR _this$[ebp]
  0022d	83 c4 0c	 add	 esp, 12			; 0000000cH
  00230	81 c1 ac 01 00
	00		 add	 ecx, 428		; 000001acH
  00236	53		 push	 ebx
  00237	e8 00 00 00 00	 call	 ?SetTextColor@ioComplexStringPrinter@@QAEXK@Z ; ioComplexStringPrinter::SetTextColor

; 140  : 		m_UnderLinePrinter[1].AddTextPiece( FONT_SIZE_13, STR(8) );

  0023c	6a 00		 push	 0
  0023e	6a 08		 push	 8

; 141  : 	}
; 142  : 	else

  00240	e9 e0 00 00 00	 jmp	 $LN17@SettingTex
$LN2@SettingTex:

; 143  : 	{
; 144  : 		m_UnderLinePrinter[0].SetTextColor( TCT_DEFAULT_DARKGRAY ); 

  00245	e8 00 00 00 00	 call	 ?SetTextColor@ioComplexStringPrinter@@QAEXK@Z ; ioComplexStringPrinter::SetTextColor

; 145  : 		m_UnderLinePrinter[0].AddTextPiece( FONT_SIZE_13, STR(9) );

  0024a	6a 00		 push	 0
  0024c	6a 09		 push	 9
  0024e	bf 00 00 00 00	 mov	 edi, OFFSET ??_C@_00CNPNBAHC@?$AA@
  00253	57		 push	 edi
  00254	be 00 00 00 00	 mov	 esi, OFFSET ??_C@_0CC@PFGACOMM@EnablePowerupListWnd?3?3SettingTex@
  00259	56		 push	 esi
  0025a	ff 15 00 00 00
	00		 call	 DWORD PTR __imp_?GetSingleton@ioStringManager@@SAAAV1@XZ
  00260	8b c8		 mov	 ecx, eax
  00262	ff 15 00 00 00
	00		 call	 DWORD PTR __imp_?GetString@ioStringManager@@QAEPADPBD0HW4FileNamePrefix@1@@Z
  00268	f3 0f 10 05 00
	00 00 00	 movss	 xmm0, DWORD PTR __real@3f266666
  00270	50		 push	 eax
  00271	8b 45 fc	 mov	 eax, DWORD PTR _this$[ebp]
  00274	51		 push	 ecx
  00275	05 8c 01 00 00	 add	 eax, 396		; 0000018cH
  0027a	f3 0f 11 04 24	 movss	 DWORD PTR [esp], xmm0
  0027f	50		 push	 eax
  00280	e8 00 00 00 00	 call	 ?AddTextPiece@ioComplexStringPrinter@@QAAXMPBDZZ ; ioComplexStringPrinter::AddTextPiece

; 146  : 
; 147  : 		m_UnderLinePrinter[0].SetTextColor( TCT_DEFAULT_RED ); 

  00285	8b 4d fc	 mov	 ecx, DWORD PTR _this$[ebp]
  00288	83 c4 0c	 add	 esp, 12			; 0000000cH
  0028b	68 00 16 b9 ff	 push	 -4647424		; ffb91600H
  00290	81 c1 8c 01 00
	00		 add	 ecx, 396		; 0000018cH
  00296	e8 00 00 00 00	 call	 ?SetTextColor@ioComplexStringPrinter@@QAEXK@Z ; ioComplexStringPrinter::SetTextColor

; 148  : 		m_UnderLinePrinter[0].AddTextPiece( FONT_SIZE_13, STR(10) );

  0029b	6a 00		 push	 0
  0029d	6a 0a		 push	 10			; 0000000aH
  0029f	57		 push	 edi
  002a0	56		 push	 esi
  002a1	ff 15 00 00 00
	00		 call	 DWORD PTR __imp_?GetSingleton@ioStringManager@@SAAAV1@XZ
  002a7	8b c8		 mov	 ecx, eax
  002a9	ff 15 00 00 00
	00		 call	 DWORD PTR __imp_?GetString@ioStringManager@@QAEPADPBD0HW4FileNamePrefix@1@@Z
  002af	f3 0f 10 05 00
	00 00 00	 movss	 xmm0, DWORD PTR __real@3f266666
  002b7	50		 push	 eax
  002b8	8b 45 fc	 mov	 eax, DWORD PTR _this$[ebp]
  002bb	51		 push	 ecx
  002bc	05 8c 01 00 00	 add	 eax, 396		; 0000018cH
  002c1	f3 0f 11 04 24	 movss	 DWORD PTR [esp], xmm0
  002c6	50		 push	 eax
  002c7	e8 00 00 00 00	 call	 ?AddTextPiece@ioComplexStringPrinter@@QAAXMPBDZZ ; ioComplexStringPrinter::AddTextPiece

; 149  : 
; 150  : 		m_UnderLinePrinter[0].SetTextColor( TCT_DEFAULT_DARKGRAY ); 

  002cc	8b 4d fc	 mov	 ecx, DWORD PTR _this$[ebp]
  002cf	83 c4 0c	 add	 esp, 12			; 0000000cH
  002d2	53		 push	 ebx
  002d3	81 c1 8c 01 00
	00		 add	 ecx, 396		; 0000018cH
  002d9	e8 00 00 00 00	 call	 ?SetTextColor@ioComplexStringPrinter@@QAEXK@Z ; ioComplexStringPrinter::SetTextColor

; 151  : 		m_UnderLinePrinter[0].AddTextPiece( FONT_SIZE_13, STR(11) );

  002de	6a 00		 push	 0
  002e0	6a 0b		 push	 11			; 0000000bH
  002e2	57		 push	 edi
  002e3	56		 push	 esi
  002e4	ff 15 00 00 00
	00		 call	 DWORD PTR __imp_?GetSingleton@ioStringManager@@SAAAV1@XZ
  002ea	8b c8		 mov	 ecx, eax
  002ec	ff 15 00 00 00
	00		 call	 DWORD PTR __imp_?GetString@ioStringManager@@QAEPADPBD0HW4FileNamePrefix@1@@Z
  002f2	f3 0f 10 05 00
	00 00 00	 movss	 xmm0, DWORD PTR __real@3f266666
  002fa	50		 push	 eax
  002fb	8b 45 fc	 mov	 eax, DWORD PTR _this$[ebp]
  002fe	51		 push	 ecx
  002ff	05 8c 01 00 00	 add	 eax, 396		; 0000018cH
  00304	f3 0f 11 04 24	 movss	 DWORD PTR [esp], xmm0
  00309	50		 push	 eax
  0030a	e8 00 00 00 00	 call	 ?AddTextPiece@ioComplexStringPrinter@@QAAXMPBDZZ ; ioComplexStringPrinter::AddTextPiece

; 152  : 
; 153  : 		m_UnderLinePrinter[1].SetTextColor( TCT_DEFAULT_DARKGRAY ); 

  0030f	8b 4d fc	 mov	 ecx, DWORD PTR _this$[ebp]
  00312	83 c4 0c	 add	 esp, 12			; 0000000cH
  00315	81 c1 ac 01 00
	00		 add	 ecx, 428		; 000001acH
  0031b	53		 push	 ebx
  0031c	e8 00 00 00 00	 call	 ?SetTextColor@ioComplexStringPrinter@@QAEXK@Z ; ioComplexStringPrinter::SetTextColor

; 154  : 		m_UnderLinePrinter[1].AddTextPiece( FONT_SIZE_13, STR(12) );

  00321	6a 00		 push	 0
  00323	6a 0c		 push	 12			; 0000000cH
$LN17@SettingTex:
  00325	57		 push	 edi
  00326	56		 push	 esi
  00327	ff 15 00 00 00
	00		 call	 DWORD PTR __imp_?GetSingleton@ioStringManager@@SAAAV1@XZ
  0032d	8b c8		 mov	 ecx, eax
  0032f	ff 15 00 00 00
	00		 call	 DWORD PTR __imp_?GetString@ioStringManager@@QAEPADPBD0HW4FileNamePrefix@1@@Z
  00335	f3 0f 10 05 00
	00 00 00	 movss	 xmm0, DWORD PTR __real@3f266666
  0033d	50		 push	 eax
  0033e	8b 45 fc	 mov	 eax, DWORD PTR _this$[ebp]
  00341	51		 push	 ecx
  00342	05 ac 01 00 00	 add	 eax, 428		; 000001acH
  00347	f3 0f 11 04 24	 movss	 DWORD PTR [esp], xmm0
  0034c	50		 push	 eax
  0034d	e8 00 00 00 00	 call	 ?AddTextPiece@ioComplexStringPrinter@@QAAXMPBDZZ ; ioComplexStringPrinter::AddTextPiece

; 155  : 	}
; 156  : 
; 157  : 	m_PagePrinter.SetTextStyle( TS_NORMAL);

  00352	8b 75 fc	 mov	 esi, DWORD PTR _this$[ebp]
  00355	83 c4 0c	 add	 esp, 12			; 0000000cH
  00358	33 ff		 xor	 edi, edi
  0035a	81 c6 cc 01 00
	00		 add	 esi, 460		; 000001ccH
  00360	57		 push	 edi
  00361	8b ce		 mov	 ecx, esi
  00363	e8 00 00 00 00	 call	 ?SetTextStyle@ioComplexStringPrinter@@QAEXW4TextStyle@@@Z ; ioComplexStringPrinter::SetTextStyle

; 158  : 	m_PagePrinter.SetBkColor( 0, 0, 0 );

  00368	57		 push	 edi
  00369	57		 push	 edi
  0036a	57		 push	 edi
  0036b	8b ce		 mov	 ecx, esi
  0036d	e8 00 00 00 00	 call	 ?SetBkColor@ioComplexStringPrinter@@QAEXHHH@Z ; ioComplexStringPrinter::SetBkColor

; 159  : 	m_PagePrinter.SetTextColor( TCT_DEFAULT_DARKGRAY ); 

  00372	53		 push	 ebx
  00373	8b ce		 mov	 ecx, esi
  00375	e8 00 00 00 00	 call	 ?SetTextColor@ioComplexStringPrinter@@QAEXK@Z ; ioComplexStringPrinter::SetTextColor

; 160  : 	m_PagePrinter.AddTextPiece( FONT_SIZE_13, m_szPageText.c_str() );

  0037a	8b 4d fc	 mov	 ecx, DWORD PTR _this$[ebp]
  0037d	81 c1 6c 01 00
	00		 add	 ecx, 364		; 0000016cH
  00383	ff 15 00 00 00
	00		 call	 DWORD PTR __imp_?c_str@ioHashString@@QBEPBDXZ
  00389	f3 0f 10 05 00
	00 00 00	 movss	 xmm0, DWORD PTR __real@3f266666
  00391	50		 push	 eax
  00392	51		 push	 ecx
  00393	f3 0f 11 04 24	 movss	 DWORD PTR [esp], xmm0
  00398	56		 push	 esi
  00399	e8 00 00 00 00	 call	 ?AddTextPiece@ioComplexStringPrinter@@QAAXMPBDZZ ; ioComplexStringPrinter::AddTextPiece
  0039e	83 c4 0c	 add	 esp, 12			; 0000000cH
  003a1	5f		 pop	 edi
  003a2	5e		 pop	 esi
  003a3	5b		 pop	 ebx

; 161  : }

  003a4	c9		 leave
  003a5	c3		 ret	 0
?SettingText@EnablePowerupListWnd@@IAEXXZ ENDP		; EnablePowerupListWnd::SettingText
_TEXT	ENDS
PUBLIC	??_7bad_alloc@std@@6B@				; std::bad_alloc::`vftable'
PUBLIC	??0bad_alloc@std@@QAE@PBD@Z			; std::bad_alloc::bad_alloc
PUBLIC	??_R4bad_alloc@std@@6B@				; std::bad_alloc::`RTTI Complete Object Locator'
PUBLIC	??_R0?AVbad_alloc@std@@@8			; std::bad_alloc `RTTI Type Descriptor'
PUBLIC	??_R3bad_alloc@std@@8				; std::bad_alloc::`RTTI Class Hierarchy Descriptor'
PUBLIC	??_R2bad_alloc@std@@8				; std::bad_alloc::`RTTI Base Class Array'
PUBLIC	??_R1A@?0A@EA@bad_alloc@std@@8			; std::bad_alloc::`RTTI Base Class Descriptor at (0,-1,0,64)'
PUBLIC	??_R1A@?0A@EA@exception@std@@8			; std::exception::`RTTI Base Class Descriptor at (0,-1,0,64)'
PUBLIC	??_R0?AVexception@std@@@8			; std::exception `RTTI Type Descriptor'
PUBLIC	??_R3exception@std@@8				; std::exception::`RTTI Class Hierarchy Descriptor'
PUBLIC	??_R2exception@std@@8				; std::exception::`RTTI Base Class Array'
EXTRN	__imp_??0exception@std@@QAE@ABQBD@Z:PROC
EXTRN	??_7type_info@@6B@:QWORD			; type_info::`vftable'
EXTRN	??_Ebad_alloc@std@@UAEPAXI@Z:PROC		; std::bad_alloc::`vector deleting destructor'
EXTRN	?what@exception@std@@UBEPBDXZ:PROC		; std::exception::what
;	COMDAT ??_R2exception@std@@8
; File c:\program files (x86)\microsoft visual studio 10.0\vc\include\exception
rdata$r	SEGMENT
??_R2exception@std@@8 DD FLAT:??_R1A@?0A@EA@exception@std@@8 ; std::exception::`RTTI Base Class Array'
rdata$r	ENDS
;	COMDAT ??_R3exception@std@@8
rdata$r	SEGMENT
??_R3exception@std@@8 DD 00H				; std::exception::`RTTI Class Hierarchy Descriptor'
	DD	00H
	DD	01H
	DD	FLAT:??_R2exception@std@@8
rdata$r	ENDS
;	COMDAT ??_R0?AVexception@std@@@8
_DATA	SEGMENT
??_R0?AVexception@std@@@8 DD FLAT:??_7type_info@@6B@	; std::exception `RTTI Type Descriptor'
	DD	00H
	DB	'.?AVexception@std@@', 00H
_DATA	ENDS
;	COMDAT ??_R1A@?0A@EA@exception@std@@8
rdata$r	SEGMENT
??_R1A@?0A@EA@exception@std@@8 DD FLAT:??_R0?AVexception@std@@@8 ; std::exception::`RTTI Base Class Descriptor at (0,-1,0,64)'
	DD	00H
	DD	00H
	DD	0ffffffffH
	DD	00H
	DD	040H
	DD	FLAT:??_R3exception@std@@8
rdata$r	ENDS
;	COMDAT ??_R1A@?0A@EA@bad_alloc@std@@8
rdata$r	SEGMENT
??_R1A@?0A@EA@bad_alloc@std@@8 DD FLAT:??_R0?AVbad_alloc@std@@@8 ; std::bad_alloc::`RTTI Base Class Descriptor at (0,-1,0,64)'
	DD	01H
	DD	00H
	DD	0ffffffffH
	DD	00H
	DD	040H
	DD	FLAT:??_R3bad_alloc@std@@8
rdata$r	ENDS
;	COMDAT ??_R2bad_alloc@std@@8
rdata$r	SEGMENT
??_R2bad_alloc@std@@8 DD FLAT:??_R1A@?0A@EA@bad_alloc@std@@8 ; std::bad_alloc::`RTTI Base Class Array'
	DD	FLAT:??_R1A@?0A@EA@exception@std@@8
rdata$r	ENDS
;	COMDAT ??_R3bad_alloc@std@@8
rdata$r	SEGMENT
??_R3bad_alloc@std@@8 DD 00H				; std::bad_alloc::`RTTI Class Hierarchy Descriptor'
	DD	00H
	DD	02H
	DD	FLAT:??_R2bad_alloc@std@@8
rdata$r	ENDS
;	COMDAT ??_R0?AVbad_alloc@std@@@8
_DATA	SEGMENT
??_R0?AVbad_alloc@std@@@8 DD FLAT:??_7type_info@@6B@	; std::bad_alloc `RTTI Type Descriptor'
	DD	00H
	DB	'.?AVbad_alloc@std@@', 00H
_DATA	ENDS
;	COMDAT ??_R4bad_alloc@std@@6B@
rdata$r	SEGMENT
??_R4bad_alloc@std@@6B@ DD 00H				; std::bad_alloc::`RTTI Complete Object Locator'
	DD	00H
	DD	00H
	DD	FLAT:??_R0?AVbad_alloc@std@@@8
	DD	FLAT:??_R3bad_alloc@std@@8
rdata$r	ENDS
;	COMDAT ??_7bad_alloc@std@@6B@
CONST	SEGMENT
??_7bad_alloc@std@@6B@ DD FLAT:??_R4bad_alloc@std@@6B@	; std::bad_alloc::`vftable'
	DD	FLAT:??_Ebad_alloc@std@@UAEPAXI@Z
	DD	FLAT:?what@exception@std@@UBEPBDXZ
; Function compile flags: /Ogsp
CONST	ENDS
;	COMDAT ??0bad_alloc@std@@QAE@PBD@Z
_TEXT	SEGMENT
__Message$ = 8						; size = 4
??0bad_alloc@std@@QAE@PBD@Z PROC			; std::bad_alloc::bad_alloc, COMDAT
; _this$ = ecx

; 345  : 		{	// construct from message string

  00000	55		 push	 ebp
  00001	8b ec		 mov	 ebp, esp
  00003	56		 push	 esi
  00004	8d 45 08	 lea	 eax, DWORD PTR __Message$[ebp]
  00007	50		 push	 eax
  00008	8b f1		 mov	 esi, ecx
  0000a	ff 15 00 00 00
	00		 call	 DWORD PTR __imp_??0exception@std@@QAE@ABQBD@Z
  00010	c7 06 00 00 00
	00		 mov	 DWORD PTR [esi], OFFSET ??_7bad_alloc@std@@6B@

; 346  : 		}

  00016	8b c6		 mov	 eax, esi
  00018	5e		 pop	 esi
  00019	5d		 pop	 ebp
  0001a	c2 04 00	 ret	 4
??0bad_alloc@std@@QAE@PBD@Z ENDP			; std::bad_alloc::bad_alloc
_TEXT	ENDS
PUBLIC	??1bad_alloc@std@@UAE@XZ			; std::bad_alloc::~bad_alloc
EXTRN	__imp_??1exception@std@@UAE@XZ:PROC
; Function compile flags: /Ogsp
;	COMDAT ??1bad_alloc@std@@UAE@XZ
_TEXT	SEGMENT
??1bad_alloc@std@@UAE@XZ PROC				; std::bad_alloc::~bad_alloc, COMDAT
; _this$ = ecx

; 354  : 		{	// destroy the object

  00000	c7 01 00 00 00
	00		 mov	 DWORD PTR [ecx], OFFSET ??_7bad_alloc@std@@6B@

; 355  : 		}

  00006	ff 25 00 00 00
	00		 jmp	 DWORD PTR __imp_??1exception@std@@UAE@XZ
??1bad_alloc@std@@UAE@XZ ENDP				; std::bad_alloc::~bad_alloc
_TEXT	ENDS
EXTRN	??3@YAXPAX@Z:PROC				; operator delete
; Function compile flags: /Ogsp
;	COMDAT ??_Gbad_alloc@std@@UAEPAXI@Z
_TEXT	SEGMENT
___flags$ = 8						; size = 4
??_Gbad_alloc@std@@UAEPAXI@Z PROC			; std::bad_alloc::`scalar deleting destructor', COMDAT
; _this$ = ecx
  00000	55		 push	 ebp
  00001	8b ec		 mov	 ebp, esp
  00003	56		 push	 esi
  00004	8b f1		 mov	 esi, ecx
  00006	c7 06 00 00 00
	00		 mov	 DWORD PTR [esi], OFFSET ??_7bad_alloc@std@@6B@
  0000c	ff 15 00 00 00
	00		 call	 DWORD PTR __imp_??1exception@std@@UAE@XZ
  00012	f6 45 08 01	 test	 BYTE PTR ___flags$[ebp], 1
  00016	74 07		 je	 SHORT $LN1@scalar
  00018	56		 push	 esi
  00019	e8 00 00 00 00	 call	 ??3@YAXPAX@Z		; operator delete
  0001e	59		 pop	 ecx
$LN1@scalar:
  0001f	8b c6		 mov	 eax, esi
  00021	5e		 pop	 esi
  00022	5d		 pop	 ebp
  00023	c2 04 00	 ret	 4
??_Gbad_alloc@std@@UAEPAXI@Z ENDP			; std::bad_alloc::`scalar deleting destructor'
_TEXT	ENDS
PUBLIC	??1EXTRAITEMSLOT@@QAE@XZ			; EXTRAITEMSLOT::~EXTRAITEMSLOT
EXTRN	__imp_??1ioHashString@@QAE@XZ:PROC
EXTRN	___CxxFrameHandler3:PROC
EXTRN	@__security_check_cookie@4:PROC
EXTRN	__EH_epilog3:PROC
EXTRN	__EH_prolog3:PROC
;	COMDAT xdata$x
xdata$x	SEGMENT
__unwindtable$??1EXTRAITEMSLOT@@QAE@XZ DD 0ffffffffH
	DD	FLAT:__unwindfunclet$??1EXTRAITEMSLOT@@QAE@XZ$0
__ehfuncinfo$??1EXTRAITEMSLOT@@QAE@XZ DD 019930522H
	DD	01H
	DD	FLAT:__unwindtable$??1EXTRAITEMSLOT@@QAE@XZ
	DD	2 DUP(00H)
	DD	2 DUP(00H)
	DD	00H
	DD	01H
; Function compile flags: /Ogsp
xdata$x	ENDS
;	COMDAT ??1EXTRAITEMSLOT@@QAE@XZ
_TEXT	SEGMENT
_this$ = -16						; size = 4
__$EHRec$ = -12						; size = 12
??1EXTRAITEMSLOT@@QAE@XZ PROC				; EXTRAITEMSLOT::~EXTRAITEMSLOT, COMDAT
; _this$ = ecx
  00000	6a 04		 push	 4
  00002	b8 00 00 00 00	 mov	 eax, __ehhandler$??1EXTRAITEMSLOT@@QAE@XZ
  00007	e8 00 00 00 00	 call	 __EH_prolog3
  0000c	8b f9		 mov	 edi, ecx
  0000e	89 7d f0	 mov	 DWORD PTR _this$[ebp], edi
  00011	8b 35 00 00 00
	00		 mov	 esi, DWORD PTR __imp_??1ioHashString@@QAE@XZ
  00017	83 65 fc 00	 and	 DWORD PTR __$EHRec$[ebp+8], 0
  0001b	8d 4f 38	 lea	 ecx, DWORD PTR [edi+56]
  0001e	ff d6		 call	 esi
  00020	83 4d fc ff	 or	 DWORD PTR __$EHRec$[ebp+8], -1
  00024	8d 4f 28	 lea	 ecx, DWORD PTR [edi+40]
  00027	ff d6		 call	 esi
  00029	e8 00 00 00 00	 call	 __EH_epilog3
  0002e	c3		 ret	 0
_TEXT	ENDS
;	COMDAT text$x
text$x	SEGMENT
__unwindfunclet$??1EXTRAITEMSLOT@@QAE@XZ$0:
  00000	8b 4d f0	 mov	 ecx, DWORD PTR _this$[ebp]
  00003	83 c1 28	 add	 ecx, 40			; 00000028H
  00006	ff 25 00 00 00
	00		 jmp	 DWORD PTR __imp_??1ioHashString@@QAE@XZ
__ehhandler$??1EXTRAITEMSLOT@@QAE@XZ:
  0000c	8b 54 24 08	 mov	 edx, DWORD PTR [esp+8]
  00010	8d 42 0c	 lea	 eax, DWORD PTR [edx+12]
  00013	8b 4a ec	 mov	 ecx, DWORD PTR [edx-20]
  00016	33 c8		 xor	 ecx, eax
  00018	e8 00 00 00 00	 call	 @__security_check_cookie@4
  0001d	b8 00 00 00 00	 mov	 eax, OFFSET __ehfuncinfo$??1EXTRAITEMSLOT@@QAE@XZ
  00022	e9 00 00 00 00	 jmp	 ___CxxFrameHandler3
text$x	ENDS
??1EXTRAITEMSLOT@@QAE@XZ ENDP				; EXTRAITEMSLOT::~EXTRAITEMSLOT
PUBLIC	??2@YAPAXIPAX@Z					; operator new
; Function compile flags: /Ogsp
; File c:\program files (x86)\microsoft visual studio 10.0\vc\include\new
;	COMDAT ??2@YAPAXIPAX@Z
_TEXT	SEGMENT
___formal$ = 8						; size = 4
__Where$ = 12						; size = 4
??2@YAPAXIPAX@Z PROC					; operator new, COMDAT

; 56   : 	{	// construct array with placement at _Where

  00000	55		 push	 ebp
  00001	8b ec		 mov	 ebp, esp

; 57   : 	return (_Where);

  00003	8b 45 0c	 mov	 eax, DWORD PTR __Where$[ebp]

; 58   : 	}

  00006	5d		 pop	 ebp
  00007	c3		 ret	 0
??2@YAPAXIPAX@Z ENDP					; operator new
_TEXT	ENDS
PUBLIC	??3@YAXPAX0@Z					; operator delete
; Function compile flags: /Ogsp
;	COMDAT ??3@YAXPAX0@Z
_TEXT	SEGMENT
___formal$ = 8						; size = 4
___formal$ = 12						; size = 4
??3@YAXPAX0@Z PROC					; operator delete, COMDAT

; 62   : 	}

  00000	c3		 ret	 0
??3@YAXPAX0@Z ENDP					; operator delete
_TEXT	ENDS
PUBLIC	?length@?$char_traits@D@std@@SAIPBD@Z		; std::char_traits<char>::length
; Function compile flags: /Ogsp
; File c:\program files (x86)\microsoft visual studio 10.0\vc\include\iosfwd
;	COMDAT ?length@?$char_traits@D@std@@SAIPBD@Z
_TEXT	SEGMENT
__First$ = 8						; size = 4
?length@?$char_traits@D@std@@SAIPBD@Z PROC		; std::char_traits<char>::length, COMDAT

; 490  : 		{	// find length of null-terminated string

  00000	55		 push	 ebp
  00001	8b ec		 mov	 ebp, esp

; 491  : 		return (_CSTD strlen(_First));

  00003	8b 45 08	 mov	 eax, DWORD PTR __First$[ebp]
  00006	8d 50 01	 lea	 edx, DWORD PTR [eax+1]
$LL3@length:
  00009	8a 08		 mov	 cl, BYTE PTR [eax]
  0000b	40		 inc	 eax
  0000c	84 c9		 test	 cl, cl
  0000e	75 f9		 jne	 SHORT $LL3@length
  00010	2b c2		 sub	 eax, edx

; 492  : 		}

  00012	5d		 pop	 ebp
  00013	c3		 ret	 0
?length@?$char_traits@D@std@@SAIPBD@Z ENDP		; std::char_traits<char>::length
_TEXT	ENDS
PUBLIC	?copy@?$char_traits@D@std@@SAPADPADPBDI@Z	; std::char_traits<char>::copy
EXTRN	_memcpy:PROC
; Function compile flags: /Ogsp
;	COMDAT ?copy@?$char_traits@D@std@@SAPADPADPBDI@Z
_TEXT	SEGMENT
__First1$ = 8						; size = 4
__First2$ = 12						; size = 4
__Count$ = 16						; size = 4
?copy@?$char_traits@D@std@@SAPADPADPBDI@Z PROC		; std::char_traits<char>::copy, COMDAT

; 496  : 		{	// copy [_First1, _First1 + _Count) to [_First2, ...)

  00000	55		 push	 ebp
  00001	8b ec		 mov	 ebp, esp

; 498  : 		}

  00003	5d		 pop	 ebp

; 497  : 		return ((_Elem *)_CSTD memcpy(_First1, _First2, _Count));

  00004	e9 00 00 00 00	 jmp	 _memcpy
?copy@?$char_traits@D@std@@SAPADPADPBDI@Z ENDP		; std::char_traits<char>::copy
_TEXT	ENDS
PUBLIC	?OnRender@EnablePowerupListWnd@@MAEXXZ		; EnablePowerupListWnd::OnRender
EXTRN	?PrintFullText@ioComplexStringPrinter@@QAEXMMW4TextAlignType@@E@Z:PROC ; ioComplexStringPrinter::PrintFullText
EXTRN	__imp_?GetDerivedPosY@ioWnd@@QBEHXZ:PROC
EXTRN	__imp_?GetDerivedPosX@ioWnd@@QBEHXZ:PROC
EXTRN	__imp_?OnRender@ioWnd@@MAEXXZ:PROC
; Function compile flags: /Ogsp
; File d:\lost saga for developer\youtube\tutorial\source\src\lsclient\gui\enablepoweruplistwnd.cpp
;	COMDAT ?OnRender@EnablePowerupListWnd@@MAEXXZ
_TEXT	SEGMENT
tv166 = -16						; size = 4
tv153 = -12						; size = 4
tv205 = -8						; size = 4
tv207 = -4						; size = 4
?OnRender@EnablePowerupListWnd@@MAEXXZ PROC		; EnablePowerupListWnd::OnRender, COMDAT
; _this$ = ecx

; 358  : {

  00000	55		 push	 ebp
  00001	8b ec		 mov	 ebp, esp
  00003	83 ec 10	 sub	 esp, 16			; 00000010H
  00006	53		 push	 ebx
  00007	56		 push	 esi
  00008	57		 push	 edi
  00009	8b f1		 mov	 esi, ecx

; 359  : 	ioWnd::OnRender();

  0000b	ff 15 00 00 00
	00		 call	 DWORD PTR __imp_?OnRender@ioWnd@@MAEXXZ

; 360  : 
; 361  : 	int iXPos = GetDerivedPosX();

  00011	8b ce		 mov	 ecx, esi
  00013	ff 15 00 00 00
	00		 call	 DWORD PTR __imp_?GetDerivedPosX@ioWnd@@QBEHXZ

; 362  : 	int iYPos = GetDerivedPosY();

  00019	8b ce		 mov	 ecx, esi
  0001b	8b f8		 mov	 edi, eax
  0001d	ff 15 00 00 00
	00		 call	 DWORD PTR __imp_?GetDerivedPosY@ioWnd@@QBEHXZ
  00023	8b d8		 mov	 ebx, eax
  00025	8d 86 8c 01 00
	00		 lea	 eax, DWORD PTR [esi+396]
  0002b	81 c7 ee 00 00
	00		 add	 edi, 238		; 000000eeH
  00031	89 45 f8	 mov	 DWORD PTR tv205[ebp], eax

; 377  : 
; 378  : 	m_PagePrinter.PrintFullText( iXPos+PAGE_X, iYPos+PAGE_Y, TAT_CENTER );

  00034	0f 57 c0	 xorps	 xmm0, xmm0
  00037	f3 0f 2a c7	 cvtsi2ss xmm0, edi
  0003b	8d 83 d6 01 00
	00		 lea	 eax, DWORD PTR [ebx+470]
  00041	f3 0f 11 45 f0	 movss	 DWORD PTR tv166[ebp], xmm0
  00046	89 45 fc	 mov	 DWORD PTR tv207[ebp], eax
  00049	c7 45 f4 02 00
	00 00		 mov	 DWORD PTR tv153[ebp], 2
  00050	bf ff 00 00 00	 mov	 edi, 255		; 000000ffH
$LL8@OnRender:

; 363  : 
; 364  : 	enum
; 365  : 	{
; 366  : 		DESC_X		= 238,
; 367  : 		DESC_Y		= 470,
; 368  : 
; 369  : 		LINE_GAP	= 20,
; 370  : 
; 371  : 		PAGE_X		= 238,
; 372  : 		PAGE_Y		= 425,
; 373  : 	};
; 374  : 
; 375  : 	for (int i = 0; i < MAX_TEXT ; i++)
; 376  : 		m_UnderLinePrinter[i].PrintFullText( iXPos + DESC_X, iYPos + DESC_Y + ( i*LINE_GAP), TAT_CENTER );

  00055	66 0f 6e 45 fc	 movd	 xmm0, DWORD PTR tv207[ebp]
  0005a	57		 push	 edi
  0005b	6a 01		 push	 1
  0005d	51		 push	 ecx
  0005e	51		 push	 ecx
  0005f	8b 4d f8	 mov	 ecx, DWORD PTR tv205[ebp]
  00062	0f 5b c0	 cvtdq2ps xmm0, xmm0
  00065	f3 0f 11 44 24
	04		 movss	 DWORD PTR [esp+4], xmm0
  0006b	f3 0f 10 45 f0	 movss	 xmm0, DWORD PTR tv166[ebp]
  00070	f3 0f 11 04 24	 movss	 DWORD PTR [esp], xmm0
  00075	e8 00 00 00 00	 call	 ?PrintFullText@ioComplexStringPrinter@@QAEXMMW4TextAlignType@@E@Z ; ioComplexStringPrinter::PrintFullText
  0007a	83 45 fc 14	 add	 DWORD PTR tv207[ebp], 20 ; 00000014H
  0007e	83 45 f8 20	 add	 DWORD PTR tv205[ebp], 32 ; 00000020H
  00082	ff 4d f4	 dec	 DWORD PTR tv153[ebp]
  00085	75 ce		 jne	 SHORT $LL8@OnRender

; 377  : 
; 378  : 	m_PagePrinter.PrintFullText( iXPos+PAGE_X, iYPos+PAGE_Y, TAT_CENTER );

  00087	57		 push	 edi
  00088	6a 01		 push	 1
  0008a	51		 push	 ecx
  0008b	51		 push	 ecx
  0008c	81 c3 a9 01 00
	00		 add	 ebx, 425		; 000001a9H
  00092	0f 57 c0	 xorps	 xmm0, xmm0
  00095	f3 0f 2a c3	 cvtsi2ss xmm0, ebx
  00099	f3 0f 11 44 24
	04		 movss	 DWORD PTR [esp+4], xmm0
  0009f	f3 0f 10 45 f0	 movss	 xmm0, DWORD PTR tv166[ebp]
  000a4	8d 8e cc 01 00
	00		 lea	 ecx, DWORD PTR [esi+460]
  000aa	f3 0f 11 04 24	 movss	 DWORD PTR [esp], xmm0
  000af	e8 00 00 00 00	 call	 ?PrintFullText@ioComplexStringPrinter@@QAEXMMW4TextAlignType@@E@Z ; ioComplexStringPrinter::PrintFullText
  000b4	5f		 pop	 edi
  000b5	5e		 pop	 esi
  000b6	5b		 pop	 ebx

; 379  : }

  000b7	c9		 leave
  000b8	c3		 ret	 0
?OnRender@EnablePowerupListWnd@@MAEXXZ ENDP		; EnablePowerupListWnd::OnRender
_TEXT	ENDS
PUBLIC	?move@?$char_traits@D@std@@SAPADPADPBDI@Z	; std::char_traits<char>::move
EXTRN	__imp__memmove:PROC
; Function compile flags: /Ogsp
; File c:\program files (x86)\microsoft visual studio 10.0\vc\include\iosfwd
;	COMDAT ?move@?$char_traits@D@std@@SAPADPADPBDI@Z
_TEXT	SEGMENT
__First1$ = 8						; size = 4
__First2$ = 12						; size = 4
__Count$ = 16						; size = 4
?move@?$char_traits@D@std@@SAPADPADPBDI@Z PROC		; std::char_traits<char>::move, COMDAT

; 516  : 		{	// copy [_First1, _First1 + _Count) to [_First2, ...)

  00000	55		 push	 ebp
  00001	8b ec		 mov	 ebp, esp

; 518  : 		}

  00003	5d		 pop	 ebp

; 517  : 		return ((_Elem *)_CSTD memmove(_First1, _First2, _Count));

  00004	ff 25 00 00 00
	00		 jmp	 DWORD PTR __imp__memmove
?move@?$char_traits@D@std@@SAPADPADPBDI@Z ENDP		; std::char_traits<char>::move
_TEXT	ENDS
PUBLIC	?assign@?$char_traits@D@std@@SAXAADABD@Z	; std::char_traits<char>::assign
; Function compile flags: /Ogsp
;	COMDAT ?assign@?$char_traits@D@std@@SAXAADABD@Z
_TEXT	SEGMENT
__Left$ = 8						; size = 4
__Right$ = 12						; size = 4
?assign@?$char_traits@D@std@@SAXAADABD@Z PROC		; std::char_traits<char>::assign, COMDAT

; 526  : 		{	// assign an element

  00000	55		 push	 ebp
  00001	8b ec		 mov	 ebp, esp

; 527  : 		_Left = _Right;

  00003	8b 45 0c	 mov	 eax, DWORD PTR __Right$[ebp]
  00006	8a 00		 mov	 al, BYTE PTR [eax]
  00008	8b 4d 08	 mov	 ecx, DWORD PTR __Left$[ebp]
  0000b	88 01		 mov	 BYTE PTR [ecx], al

; 528  : 		}

  0000d	5d		 pop	 ebp
  0000e	c3		 ret	 0
?assign@?$char_traits@D@std@@SAXAADABD@Z ENDP		; std::char_traits<char>::assign
_TEXT	ENDS
PUBLIC	??_7PowerUpToolTip@@6B@				; PowerUpToolTip::`vftable'
PUBLIC	??0PowerUpToolTip@@QAE@XZ			; PowerUpToolTip::PowerUpToolTip
PUBLIC	??_R4PowerUpToolTip@@6B@			; PowerUpToolTip::`RTTI Complete Object Locator'
PUBLIC	??_R0?AVPowerUpToolTip@@@8			; PowerUpToolTip `RTTI Type Descriptor'
PUBLIC	??_R3PowerUpToolTip@@8				; PowerUpToolTip::`RTTI Class Hierarchy Descriptor'
PUBLIC	??_R2PowerUpToolTip@@8				; PowerUpToolTip::`RTTI Base Class Array'
PUBLIC	??_R1A@?0A@EA@PowerUpToolTip@@8			; PowerUpToolTip::`RTTI Base Class Descriptor at (0,-1,0,64)'
PUBLIC	??_R1A@?0A@EA@ioWnd@@8				; ioWnd::`RTTI Base Class Descriptor at (0,-1,0,64)'
PUBLIC	??_R0?AVioWnd@@@8				; ioWnd `RTTI Type Descriptor'
PUBLIC	??_R3ioWnd@@8					; ioWnd::`RTTI Class Hierarchy Descriptor'
PUBLIC	??_R2ioWnd@@8					; ioWnd::`RTTI Base Class Array'
PUBLIC	?OnRender@PowerUpToolTip@@UAEXXZ		; PowerUpToolTip::OnRender
PUBLIC	?OnProcess@PowerUpToolTip@@MAEXM@Z		; PowerUpToolTip::OnProcess
EXTRN	__imp_??1ioWnd@@UAE@XZ:PROC
EXTRN	??_L@YGXPAXIHP6EX0@Z1@Z:PROC			; `eh vector constructor iterator'
EXTRN	??0ioComplexStringPrinter@@QAE@XZ:PROC		; ioComplexStringPrinter::ioComplexStringPrinter
EXTRN	??1ioComplexStringPrinter@@QAE@XZ:PROC		; ioComplexStringPrinter::~ioComplexStringPrinter
EXTRN	__imp_??0ioWnd@@QAE@XZ:PROC
EXTRN	?AddRenderFrame@ioWnd@@UAEXABVioHashString@@PAVioUIRenderFrame@@@Z:PROC ; ioWnd::AddRenderFrame
EXTRN	?AddRenderImage@ioWnd@@UAEXABVioHashString@@PAVioUIRenderImage@@@Z:PROC ; ioWnd::AddRenderImage
EXTRN	?AddTooltipHelp@ioWnd@@UAEXABVioHashString@@00@Z:PROC ; ioWnd::AddTooltipHelp
EXTRN	?ParseExtraInfo@ioWnd@@UAEXAAVioXMLElement@@@Z:PROC ; ioWnd::ParseExtraInfo
EXTRN	?AddNamedRenderImage@ioWnd@@UAEXABVioHashString@@PAVioUIRenderImage@@@Z:PROC ; ioWnd::AddNamedRenderImage
EXTRN	?RemoveNamedRenderImage@ioWnd@@UAEXABVioHashString@@@Z:PROC ; ioWnd::RemoveNamedRenderImage
EXTRN	?GetNamedRenderImage@ioWnd@@UBEPAVioUIRenderImage@@ABVioHashString@@@Z:PROC ; ioWnd::GetNamedRenderImage
EXTRN	?SetWindowAlpha@ioWnd@@UAEXH@Z:PROC		; ioWnd::SetWindowAlpha
EXTRN	?SetActive@ioWnd@@UAEXXZ:PROC			; ioWnd::SetActive
EXTRN	?SetInActive@ioWnd@@UAEXXZ:PROC			; ioWnd::SetInActive
EXTRN	?ClearElementImageList@ioWnd@@UAEXXZ:PROC	; ioWnd::ClearElementImageList
EXTRN	?SetSize@ioWnd@@UAEXHH@Z:PROC			; ioWnd::SetSize
EXTRN	?SetPositionToDefault@ioWnd@@UAEXHH_N0@Z:PROC	; ioWnd::SetPositionToDefault
EXTRN	?IsNeedProcess@ioWnd@@UBE_NXZ:PROC		; ioWnd::IsNeedProcess
EXTRN	?IsCanMouseReaction@ioWnd@@UBE_NXZ:PROC		; ioWnd::IsCanMouseReaction
EXTRN	?AddChild@ioWnd@@UAEXPAV1@@Z:PROC		; ioWnd::AddChild
EXTRN	?DeleteChild@ioWnd@@UAEXK@Z:PROC		; ioWnd::DeleteChild
EXTRN	?DeleteAllChild@ioWnd@@UAEXXZ:PROC		; ioWnd::DeleteAllChild
EXTRN	?OnRenderShowAndHide@ioWnd@@MAE_NXZ:PROC	; ioWnd::OnRenderShowAndHide
EXTRN	?OnRenderShowAndHideByDefault@ioWnd@@MAE_NK@Z:PROC ; ioWnd::OnRenderShowAndHideByDefault
EXTRN	?OnRenderShowAndHideByTop@ioWnd@@MAE_NK@Z:PROC	; ioWnd::OnRenderShowAndHideByTop
EXTRN	?OnRenderShowAndHideByDown@ioWnd@@MAE_NK@Z:PROC	; ioWnd::OnRenderShowAndHideByDown
EXTRN	?OnRenderAfterChild@ioWnd@@MAEXXZ:PROC		; ioWnd::OnRenderAfterChild
EXTRN	?OnMouseProcess@ioWnd@@MAEXABVioMouse@@@Z:PROC	; ioWnd::OnMouseProcess
EXTRN	?CheckFrameReSize@ioWnd@@MAEXHHHH@Z:PROC	; ioWnd::CheckFrameReSize
EXTRN	?RenderImageList@ioWnd@@MAEXHHW4UIRenderType@@@Z:PROC ; ioWnd::RenderImageList
EXTRN	?iwm_create@ioWnd@@UAEXXZ:PROC			; ioWnd::iwm_create
EXTRN	?iwm_destroy@ioWnd@@UAEXXZ:PROC			; ioWnd::iwm_destroy
EXTRN	?iwm_lbuttondown@ioWnd@@UAEXABVioMouse@@@Z:PROC	; ioWnd::iwm_lbuttondown
EXTRN	?iwm_lbuttonup@ioWnd@@UAEXABVioMouse@@@Z:PROC	; ioWnd::iwm_lbuttonup
EXTRN	?iwm_lbuttonDBLCLK@ioWnd@@UAEXABVioMouse@@@Z:PROC ; ioWnd::iwm_lbuttonDBLCLK
EXTRN	?iwm_rbuttondown@ioWnd@@UAEXABVioMouse@@@Z:PROC	; ioWnd::iwm_rbuttondown
EXTRN	?iwm_rbuttonup@ioWnd@@UAEXABVioMouse@@@Z:PROC	; ioWnd::iwm_rbuttonup
EXTRN	?iwm_command@ioWnd@@UAEXPAV1@HK@Z:PROC		; ioWnd::iwm_command
EXTRN	?iwm_mouseover@ioWnd@@UAEXABVioMouse@@@Z:PROC	; ioWnd::iwm_mouseover
EXTRN	?iwm_mousemove@ioWnd@@UAEXABVioMouse@@@Z:PROC	; ioWnd::iwm_mousemove
EXTRN	?iwm_mouseleave@ioWnd@@UAEXABVioMouse@@@Z:PROC	; ioWnd::iwm_mouseleave
EXTRN	?iwm_vscroll@ioWnd@@UAEXKH@Z:PROC		; ioWnd::iwm_vscroll
EXTRN	?iwm_wheel@ioWnd@@UAEXH@Z:PROC			; ioWnd::iwm_wheel
EXTRN	?iwm_show@ioWnd@@UAEXXZ:PROC			; ioWnd::iwm_show
EXTRN	?iwm_hide@ioWnd@@UAEXXZ:PROC			; ioWnd::iwm_hide
EXTRN	?iwm_esc@ioWnd@@UAE_NXZ:PROC			; ioWnd::iwm_esc
EXTRN	?iwm_spacebar@ioWnd@@UAE_NXZ:PROC		; ioWnd::iwm_spacebar
EXTRN	?iwm_gototop@ioWnd@@UAEXXZ:PROC			; ioWnd::iwm_gototop
EXTRN	?iwm_dragenter@ioWnd@@UAE?AW4IWDropEffect@@PAVioDragItem@@ABVioMouse@@@Z:PROC ; ioWnd::iwm_dragenter
EXTRN	?iwm_dragover@ioWnd@@UAE?AW4IWDropEffect@@PAVioDragItem@@ABVioMouse@@@Z:PROC ; ioWnd::iwm_dragover
EXTRN	?iwm_dragleave@ioWnd@@UAEXXZ:PROC		; ioWnd::iwm_dragleave
EXTRN	?iwm_dropitem@ioWnd@@UAE_NPAVioDragItem@@ABVioMouse@@PAV1@@Z:PROC ; ioWnd::iwm_dropitem
EXTRN	?iwm_dropdone@ioWnd@@UAEXPAVioDragItem@@PAV1@_N@Z:PROC ; ioWnd::iwm_dropdone
EXTRN	?IsEXType@ioWnd@@UBE_NXZ:PROC			; ioWnd::IsEXType
EXTRN	?GetWndType@ioWnd@@UBEKXZ:PROC			; ioWnd::GetWndType
EXTRN	?RenderWnd@ioWnd@@UAEXXZ:PROC			; ioWnd::RenderWnd
EXTRN	?SetIDEX@ioWnd@@UAEXAAK_N@Z:PROC		; ioWnd::SetIDEX
EXTRN	?ParseXML@ioWnd@@UAEXAAVioXMLElement@@@Z:PROC	; ioWnd::ParseXML
EXTRN	?GetHeaderFileName@ioWnd@@UAEPBDXZ:PROC		; ioWnd::GetHeaderFileName
EXTRN	?GetTemplateName@ioWnd@@UAEPBDXZ:PROC		; ioWnd::GetTemplateName
EXTRN	?GetDefClassName@ioWnd@@UBEPBDXZ:PROC		; ioWnd::GetDefClassName
EXTRN	?_Clone@ioWnd@@UAEPAV1@XZ:PROC			; ioWnd::_Clone
EXTRN	?Copy@ioWnd@@UAEXPAV1@@Z:PROC			; ioWnd::Copy
EXTRN	?Save@ioWnd@@UAE_NAAVioXMLElement@@@Z:PROC	; ioWnd::Save
EXTRN	?SetSaveData@ioWnd@@UAEXAAVioXMLElement@@@Z:PROC ; ioWnd::SetSaveData
EXTRN	?SetPosX@ioWnd@@UAEXH@Z:PROC			; ioWnd::SetPosX
EXTRN	?SetPosY@ioWnd@@UAEXH@Z:PROC			; ioWnd::SetPosY
EXTRN	?SetWidth@ioWnd@@UAEXH@Z:PROC			; ioWnd::SetWidth
EXTRN	?SetHeight@ioWnd@@UAEXH@Z:PROC			; ioWnd::SetHeight
EXTRN	?GetNumFixedRenderFrame@ioWnd@@UBEHXZ:PROC	; ioWnd::GetNumFixedRenderFrame
EXTRN	?GetFixedRenderFrameType@ioWnd@@UAEPBDH@Z:PROC	; ioWnd::GetFixedRenderFrameType
EXTRN	?GetRenderFrame@ioWnd@@UAEPAPAVioUIRenderElement@@PBD@Z:PROC ; ioWnd::GetRenderFrame
EXTRN	?GetNumFixedRenderImage@ioWnd@@UBEHXZ:PROC	; ioWnd::GetNumFixedRenderImage
EXTRN	?GetFixedRenderImageType@ioWnd@@UAEPBDH@Z:PROC	; ioWnd::GetFixedRenderImageType
EXTRN	?GetRenderImage@ioWnd@@UAEPAPAVioUIRenderElement@@PBD@Z:PROC ; ioWnd::GetRenderImage
EXTRN	?AddEffect@ioWnd@@UAEXABVioHashString@@PAVioUI3DEffectRender@@@Z:PROC ; ioWnd::AddEffect
EXTRN	?GetEffect@ioWnd@@UAEPAVioUI3DEffectRender@@VioHashString@@@Z:PROC ; ioWnd::GetEffect
EXTRN	??_EPowerUpToolTip@@UAEPAXI@Z:PROC		; PowerUpToolTip::`vector deleting destructor'
;	COMDAT ??_R2ioWnd@@8
; File d:\lost saga for developer\youtube\tutorial\source\src\lsclient\gui\enablepoweruplistwnd.cpp
rdata$r	SEGMENT
??_R2ioWnd@@8 DD FLAT:??_R1A@?0A@EA@ioWnd@@8		; ioWnd::`RTTI Base Class Array'
rdata$r	ENDS
;	COMDAT ??_R3ioWnd@@8
rdata$r	SEGMENT
??_R3ioWnd@@8 DD 00H					; ioWnd::`RTTI Class Hierarchy Descriptor'
	DD	00H
	DD	01H
	DD	FLAT:??_R2ioWnd@@8
rdata$r	ENDS
;	COMDAT ??_R0?AVioWnd@@@8
_DATA	SEGMENT
??_R0?AVioWnd@@@8 DD FLAT:??_7type_info@@6B@		; ioWnd `RTTI Type Descriptor'
	DD	00H
	DB	'.?AVioWnd@@', 00H
_DATA	ENDS
;	COMDAT ??_R1A@?0A@EA@ioWnd@@8
rdata$r	SEGMENT
??_R1A@?0A@EA@ioWnd@@8 DD FLAT:??_R0?AVioWnd@@@8	; ioWnd::`RTTI Base Class Descriptor at (0,-1,0,64)'
	DD	00H
	DD	00H
	DD	0ffffffffH
	DD	00H
	DD	040H
	DD	FLAT:??_R3ioWnd@@8
rdata$r	ENDS
;	COMDAT ??_R1A@?0A@EA@PowerUpToolTip@@8
rdata$r	SEGMENT
??_R1A@?0A@EA@PowerUpToolTip@@8 DD FLAT:??_R0?AVPowerUpToolTip@@@8 ; PowerUpToolTip::`RTTI Base Class Descriptor at (0,-1,0,64)'
	DD	01H
	DD	00H
	DD	0ffffffffH
	DD	00H
	DD	040H
	DD	FLAT:??_R3PowerUpToolTip@@8
rdata$r	ENDS
;	COMDAT ??_R2PowerUpToolTip@@8
rdata$r	SEGMENT
??_R2PowerUpToolTip@@8 DD FLAT:??_R1A@?0A@EA@PowerUpToolTip@@8 ; PowerUpToolTip::`RTTI Base Class Array'
	DD	FLAT:??_R1A@?0A@EA@ioWnd@@8
rdata$r	ENDS
;	COMDAT ??_R3PowerUpToolTip@@8
rdata$r	SEGMENT
??_R3PowerUpToolTip@@8 DD 00H				; PowerUpToolTip::`RTTI Class Hierarchy Descriptor'
	DD	00H
	DD	02H
	DD	FLAT:??_R2PowerUpToolTip@@8
rdata$r	ENDS
;	COMDAT ??_R0?AVPowerUpToolTip@@@8
_DATA	SEGMENT
??_R0?AVPowerUpToolTip@@@8 DD FLAT:??_7type_info@@6B@	; PowerUpToolTip `RTTI Type Descriptor'
	DD	00H
	DB	'.?AVPowerUpToolTip@@', 00H
_DATA	ENDS
;	COMDAT ??_R4PowerUpToolTip@@6B@
rdata$r	SEGMENT
??_R4PowerUpToolTip@@6B@ DD 00H				; PowerUpToolTip::`RTTI Complete Object Locator'
	DD	00H
	DD	00H
	DD	FLAT:??_R0?AVPowerUpToolTip@@@8
	DD	FLAT:??_R3PowerUpToolTip@@8
rdata$r	ENDS
;	COMDAT ??_7PowerUpToolTip@@6B@
CONST	SEGMENT
??_7PowerUpToolTip@@6B@ DD FLAT:??_R4PowerUpToolTip@@6B@ ; PowerUpToolTip::`vftable'
	DD	FLAT:?AddRenderFrame@ioWnd@@UAEXABVioHashString@@PAVioUIRenderFrame@@@Z
	DD	FLAT:?AddRenderImage@ioWnd@@UAEXABVioHashString@@PAVioUIRenderImage@@@Z
	DD	FLAT:?AddTooltipHelp@ioWnd@@UAEXABVioHashString@@00@Z
	DD	FLAT:?ParseExtraInfo@ioWnd@@UAEXAAVioXMLElement@@@Z
	DD	FLAT:?AddNamedRenderImage@ioWnd@@UAEXABVioHashString@@PAVioUIRenderImage@@@Z
	DD	FLAT:?RemoveNamedRenderImage@ioWnd@@UAEXABVioHashString@@@Z
	DD	FLAT:?GetNamedRenderImage@ioWnd@@UBEPAVioUIRenderImage@@ABVioHashString@@@Z
	DD	FLAT:?SetWindowAlpha@ioWnd@@UAEXH@Z
	DD	FLAT:?SetActive@ioWnd@@UAEXXZ
	DD	FLAT:?SetInActive@ioWnd@@UAEXXZ
	DD	FLAT:?ClearElementImageList@ioWnd@@UAEXXZ
	DD	FLAT:?SetSize@ioWnd@@UAEXHH@Z
	DD	FLAT:?SetPositionToDefault@ioWnd@@UAEXHH_N0@Z
	DD	FLAT:?IsNeedProcess@ioWnd@@UBE_NXZ
	DD	FLAT:?IsCanMouseReaction@ioWnd@@UBE_NXZ
	DD	FLAT:?AddChild@ioWnd@@UAEXPAV1@@Z
	DD	FLAT:?DeleteChild@ioWnd@@UAEXK@Z
	DD	FLAT:?DeleteAllChild@ioWnd@@UAEXXZ
	DD	FLAT:?OnRenderShowAndHide@ioWnd@@MAE_NXZ
	DD	FLAT:?OnRenderShowAndHideByDefault@ioWnd@@MAE_NK@Z
	DD	FLAT:?OnRenderShowAndHideByTop@ioWnd@@MAE_NK@Z
	DD	FLAT:?OnRenderShowAndHideByDown@ioWnd@@MAE_NK@Z
	DD	FLAT:?OnRender@PowerUpToolTip@@UAEXXZ
	DD	FLAT:?OnRenderAfterChild@ioWnd@@MAEXXZ
	DD	FLAT:?OnProcess@PowerUpToolTip@@MAEXM@Z
	DD	FLAT:?OnMouseProcess@ioWnd@@MAEXABVioMouse@@@Z
	DD	FLAT:?CheckFrameReSize@ioWnd@@MAEXHHHH@Z
	DD	FLAT:?RenderImageList@ioWnd@@MAEXHHW4UIRenderType@@@Z
	DD	FLAT:?iwm_create@ioWnd@@UAEXXZ
	DD	FLAT:?iwm_destroy@ioWnd@@UAEXXZ
	DD	FLAT:?iwm_lbuttondown@ioWnd@@UAEXABVioMouse@@@Z
	DD	FLAT:?iwm_lbuttonup@ioWnd@@UAEXABVioMouse@@@Z
	DD	FLAT:?iwm_lbuttonDBLCLK@ioWnd@@UAEXABVioMouse@@@Z
	DD	FLAT:?iwm_rbuttondown@ioWnd@@UAEXABVioMouse@@@Z
	DD	FLAT:?iwm_rbuttonup@ioWnd@@UAEXABVioMouse@@@Z
	DD	FLAT:?iwm_command@ioWnd@@UAEXPAV1@HK@Z
	DD	FLAT:?iwm_mouseover@ioWnd@@UAEXABVioMouse@@@Z
	DD	FLAT:?iwm_mousemove@ioWnd@@UAEXABVioMouse@@@Z
	DD	FLAT:?iwm_mouseleave@ioWnd@@UAEXABVioMouse@@@Z
	DD	FLAT:?iwm_vscroll@ioWnd@@UAEXKH@Z
	DD	FLAT:?iwm_wheel@ioWnd@@UAEXH@Z
	DD	FLAT:?iwm_show@ioWnd@@UAEXXZ
	DD	FLAT:?iwm_hide@ioWnd@@UAEXXZ
	DD	FLAT:?iwm_esc@ioWnd@@UAE_NXZ
	DD	FLAT:?iwm_spacebar@ioWnd@@UAE_NXZ
	DD	FLAT:?iwm_gototop@ioWnd@@UAEXXZ
	DD	FLAT:?iwm_dragenter@ioWnd@@UAE?AW4IWDropEffect@@PAVioDragItem@@ABVioMouse@@@Z
	DD	FLAT:?iwm_dragover@ioWnd@@UAE?AW4IWDropEffect@@PAVioDragItem@@ABVioMouse@@@Z
	DD	FLAT:?iwm_dragleave@ioWnd@@UAEXXZ
	DD	FLAT:?iwm_dropitem@ioWnd@@UAE_NPAVioDragItem@@ABVioMouse@@PAV1@@Z
	DD	FLAT:?iwm_dropdone@ioWnd@@UAEXPAVioDragItem@@PAV1@_N@Z
	DD	FLAT:?IsEXType@ioWnd@@UBE_NXZ
	DD	FLAT:?GetWndType@ioWnd@@UBEKXZ
	DD	FLAT:?RenderWnd@ioWnd@@UAEXXZ
	DD	FLAT:?SetIDEX@ioWnd@@UAEXAAK_N@Z
	DD	FLAT:?ParseXML@ioWnd@@UAEXAAVioXMLElement@@@Z
	DD	FLAT:?GetHeaderFileName@ioWnd@@UAEPBDXZ
	DD	FLAT:?GetTemplateName@ioWnd@@UAEPBDXZ
	DD	FLAT:?GetDefClassName@ioWnd@@UBEPBDXZ
	DD	FLAT:?_Clone@ioWnd@@UAEPAV1@XZ
	DD	FLAT:?Copy@ioWnd@@UAEXPAV1@@Z
	DD	FLAT:?Save@ioWnd@@UAE_NAAVioXMLElement@@@Z
	DD	FLAT:?SetSaveData@ioWnd@@UAEXAAVioXMLElement@@@Z
	DD	FLAT:?SetPosX@ioWnd@@UAEXH@Z
	DD	FLAT:?SetPosY@ioWnd@@UAEXH@Z
	DD	FLAT:?SetWidth@ioWnd@@UAEXH@Z
	DD	FLAT:?SetHeight@ioWnd@@UAEXH@Z
	DD	FLAT:?GetNumFixedRenderFrame@ioWnd@@UBEHXZ
	DD	FLAT:?GetFixedRenderFrameType@ioWnd@@UAEPBDH@Z
	DD	FLAT:?GetRenderFrame@ioWnd@@UAEPAPAVioUIRenderElement@@PBD@Z
	DD	FLAT:?GetNumFixedRenderImage@ioWnd@@UBEHXZ
	DD	FLAT:?GetFixedRenderImageType@ioWnd@@UAEPBDH@Z
	DD	FLAT:?GetRenderImage@ioWnd@@UAEPAPAVioUIRenderElement@@PBD@Z
	DD	FLAT:?AddEffect@ioWnd@@UAEXABVioHashString@@PAVioUI3DEffectRender@@@Z
	DD	FLAT:?GetEffect@ioWnd@@UAEPAVioUI3DEffectRender@@VioHashString@@@Z
	DD	FLAT:??_EPowerUpToolTip@@UAEPAXI@Z
CONST	ENDS
;	COMDAT xdata$x
xdata$x	SEGMENT
__unwindtable$??0PowerUpToolTip@@QAE@XZ DD 0ffffffffH
	DD	FLAT:__unwindfunclet$??0PowerUpToolTip@@QAE@XZ$0
__ehfuncinfo$??0PowerUpToolTip@@QAE@XZ DD 019930522H
	DD	01H
	DD	FLAT:__unwindtable$??0PowerUpToolTip@@QAE@XZ
	DD	2 DUP(00H)
	DD	2 DUP(00H)
	DD	00H
	DD	01H
; Function compile flags: /Ogsp
xdata$x	ENDS
;	COMDAT ??0PowerUpToolTip@@QAE@XZ
_TEXT	SEGMENT
_this$ = -16						; size = 4
__$EHRec$ = -12						; size = 12
??0PowerUpToolTip@@QAE@XZ PROC				; PowerUpToolTip::PowerUpToolTip, COMDAT
; _this$ = ecx

; 452  : {

  00000	6a 04		 push	 4
  00002	b8 00 00 00 00	 mov	 eax, __ehhandler$??0PowerUpToolTip@@QAE@XZ
  00007	e8 00 00 00 00	 call	 __EH_prolog3
  0000c	8b f1		 mov	 esi, ecx
  0000e	89 75 f0	 mov	 DWORD PTR _this$[ebp], esi
  00011	ff 15 00 00 00
	00		 call	 DWORD PTR __imp_??0ioWnd@@QAE@XZ
  00017	83 65 fc 00	 and	 DWORD PTR __$EHRec$[ebp+8], 0
  0001b	68 00 00 00 00	 push	 OFFSET ??1ioComplexStringPrinter@@QAE@XZ ; ioComplexStringPrinter::~ioComplexStringPrinter
  00020	68 00 00 00 00	 push	 OFFSET ??0ioComplexStringPrinter@@QAE@XZ ; ioComplexStringPrinter::ioComplexStringPrinter
  00025	6a 0a		 push	 10			; 0000000aH
  00027	6a 20		 push	 32			; 00000020H
  00029	8d 86 60 01 00
	00		 lea	 eax, DWORD PTR [esi+352]
  0002f	50		 push	 eax
  00030	c7 06 00 00 00
	00		 mov	 DWORD PTR [esi], OFFSET ??_7PowerUpToolTip@@6B@
  00036	e8 00 00 00 00	 call	 ??_L@YGXPAXIHP6EX0@Z1@Z

; 453  : 
; 454  : }

  0003b	8b c6		 mov	 eax, esi
  0003d	e8 00 00 00 00	 call	 __EH_epilog3
  00042	c3		 ret	 0
_TEXT	ENDS
;	COMDAT text$x
text$x	SEGMENT
__unwindfunclet$??0PowerUpToolTip@@QAE@XZ$0:
  00000	8b 4d f0	 mov	 ecx, DWORD PTR _this$[ebp]
  00003	ff 25 00 00 00
	00		 jmp	 DWORD PTR __imp_??1ioWnd@@UAE@XZ
__ehhandler$??0PowerUpToolTip@@QAE@XZ:
  00009	8b 54 24 08	 mov	 edx, DWORD PTR [esp+8]
  0000d	8d 42 0c	 lea	 eax, DWORD PTR [edx+12]
  00010	8b 4a ec	 mov	 ecx, DWORD PTR [edx-20]
  00013	33 c8		 xor	 ecx, eax
  00015	e8 00 00 00 00	 call	 @__security_check_cookie@4
  0001a	b8 00 00 00 00	 mov	 eax, OFFSET __ehfuncinfo$??0PowerUpToolTip@@QAE@XZ
  0001f	e9 00 00 00 00	 jmp	 ___CxxFrameHandler3
text$x	ENDS
??0PowerUpToolTip@@QAE@XZ ENDP				; PowerUpToolTip::PowerUpToolTip
PUBLIC	??1PowerUpToolTip@@UAE@XZ			; PowerUpToolTip::~PowerUpToolTip
EXTRN	??_M@YGXPAXIHP6EX0@Z@Z:PROC			; `eh vector destructor iterator'
;	COMDAT xdata$x
xdata$x	SEGMENT
__unwindtable$??1PowerUpToolTip@@UAE@XZ DD 0ffffffffH
	DD	FLAT:__unwindfunclet$??1PowerUpToolTip@@UAE@XZ$0
__ehfuncinfo$??1PowerUpToolTip@@UAE@XZ DD 019930522H
	DD	01H
	DD	FLAT:__unwindtable$??1PowerUpToolTip@@UAE@XZ
	DD	2 DUP(00H)
	DD	2 DUP(00H)
	DD	00H
	DD	01H
; Function compile flags: /Ogsp
xdata$x	ENDS
;	COMDAT ??1PowerUpToolTip@@UAE@XZ
_TEXT	SEGMENT
_this$ = -16						; size = 4
__$EHRec$ = -12						; size = 12
??1PowerUpToolTip@@UAE@XZ PROC				; PowerUpToolTip::~PowerUpToolTip, COMDAT
; _this$ = ecx

; 457  : {

  00000	6a 04		 push	 4
  00002	b8 00 00 00 00	 mov	 eax, __ehhandler$??1PowerUpToolTip@@UAE@XZ
  00007	e8 00 00 00 00	 call	 __EH_prolog3
  0000c	8b f1		 mov	 esi, ecx
  0000e	89 75 f0	 mov	 DWORD PTR _this$[ebp], esi
  00011	c7 06 00 00 00
	00		 mov	 DWORD PTR [esi], OFFSET ??_7PowerUpToolTip@@6B@
  00017	83 65 fc 00	 and	 DWORD PTR __$EHRec$[ebp+8], 0

; 458  : 
; 459  : }

  0001b	68 00 00 00 00	 push	 OFFSET ??1ioComplexStringPrinter@@QAE@XZ ; ioComplexStringPrinter::~ioComplexStringPrinter
  00020	6a 0a		 push	 10			; 0000000aH
  00022	6a 20		 push	 32			; 00000020H
  00024	8d 86 60 01 00
	00		 lea	 eax, DWORD PTR [esi+352]
  0002a	50		 push	 eax
  0002b	e8 00 00 00 00	 call	 ??_M@YGXPAXIHP6EX0@Z@Z
  00030	83 4d fc ff	 or	 DWORD PTR __$EHRec$[ebp+8], -1
  00034	8b ce		 mov	 ecx, esi
  00036	ff 15 00 00 00
	00		 call	 DWORD PTR __imp_??1ioWnd@@UAE@XZ
  0003c	e8 00 00 00 00	 call	 __EH_epilog3
  00041	c3		 ret	 0
_TEXT	ENDS
;	COMDAT text$x
text$x	SEGMENT
__unwindfunclet$??1PowerUpToolTip@@UAE@XZ$0:
  00000	8b 4d f0	 mov	 ecx, DWORD PTR _this$[ebp]
  00003	ff 25 00 00 00
	00		 jmp	 DWORD PTR __imp_??1ioWnd@@UAE@XZ
__ehhandler$??1PowerUpToolTip@@UAE@XZ:
  00009	8b 54 24 08	 mov	 edx, DWORD PTR [esp+8]
  0000d	8d 42 0c	 lea	 eax, DWORD PTR [edx+12]
  00010	8b 4a ec	 mov	 ecx, DWORD PTR [edx-20]
  00013	33 c8		 xor	 ecx, eax
  00015	e8 00 00 00 00	 call	 @__security_check_cookie@4
  0001a	b8 00 00 00 00	 mov	 eax, OFFSET __ehfuncinfo$??1PowerUpToolTip@@UAE@XZ
  0001f	e9 00 00 00 00	 jmp	 ___CxxFrameHandler3
text$x	ENDS
??1PowerUpToolTip@@UAE@XZ ENDP				; PowerUpToolTip::~PowerUpToolTip
PUBLIC	?size@?$vector@V?$basic_string@DU?$char_traits@D@std@@V?$allocator@D@2@@std@@V?$allocator@V?$basic_string@DU?$char_traits@D@std@@V?$allocator@D@2@@std@@@2@@std@@QBEIXZ ; std::vector<std::basic_string<char,std::char_traits<char>,std::allocator<char> >,std::allocator<std::basic_string<char,std::char_traits<char>,std::allocator<char> > > >::size
; Function compile flags: /Ogsp
; File c:\program files (x86)\microsoft visual studio 10.0\vc\include\vector
;	COMDAT ?size@?$vector@V?$basic_string@DU?$char_traits@D@std@@V?$allocator@D@2@@std@@V?$allocator@V?$basic_string@DU?$char_traits@D@std@@V?$allocator@D@2@@std@@@2@@std@@QBEIXZ
_TEXT	SEGMENT
?size@?$vector@V?$basic_string@DU?$char_traits@D@std@@V?$allocator@D@2@@std@@V?$allocator@V?$basic_string@DU?$char_traits@D@std@@V?$allocator@D@2@@std@@@2@@std@@QBEIXZ PROC ; std::vector<std::basic_string<char,std::char_traits<char>,std::allocator<char> >,std::allocator<std::basic_string<char,std::char_traits<char>,std::allocator<char> > > >::size, COMDAT
; _this$ = ecx

; 879  : 		return (this->_Mylast - this->_Myfirst);

  00000	8b 41 04	 mov	 eax, DWORD PTR [ecx+4]
  00003	2b 01		 sub	 eax, DWORD PTR [ecx]
  00005	6a 1c		 push	 28			; 0000001cH
  00007	99		 cdq
  00008	59		 pop	 ecx
  00009	f7 f9		 idiv	 ecx

; 880  : 		}

  0000b	c3		 ret	 0
?size@?$vector@V?$basic_string@DU?$char_traits@D@std@@V?$allocator@D@2@@std@@V?$allocator@V?$basic_string@DU?$char_traits@D@std@@V?$allocator@D@2@@std@@@2@@std@@QBEIXZ ENDP ; std::vector<std::basic_string<char,std::char_traits<char>,std::allocator<char> >,std::allocator<std::basic_string<char,std::char_traits<char>,std::allocator<char> > > >::size
_TEXT	ENDS
PUBLIC	?empty@?$vector@V?$basic_string@DU?$char_traits@D@std@@V?$allocator@D@2@@std@@V?$allocator@V?$basic_string@DU?$char_traits@D@std@@V?$allocator@D@2@@std@@@2@@std@@QBE_NXZ ; std::vector<std::basic_string<char,std::char_traits<char>,std::allocator<char> >,std::allocator<std::basic_string<char,std::char_traits<char>,std::allocator<char> > > >::empty
; Function compile flags: /Ogsp
;	COMDAT ?empty@?$vector@V?$basic_string@DU?$char_traits@D@std@@V?$allocator@D@2@@std@@V?$allocator@V?$basic_string@DU?$char_traits@D@std@@V?$allocator@D@2@@std@@@2@@std@@QBE_NXZ
_TEXT	SEGMENT
?empty@?$vector@V?$basic_string@DU?$char_traits@D@std@@V?$allocator@D@2@@std@@V?$allocator@V?$basic_string@DU?$char_traits@D@std@@V?$allocator@D@2@@std@@@2@@std@@QBE_NXZ PROC ; std::vector<std::basic_string<char,std::char_traits<char>,std::allocator<char> >,std::allocator<std::basic_string<char,std::char_traits<char>,std::allocator<char> > > >::empty, COMDAT
; _this$ = ecx

; 889  : 		return (this->_Myfirst == this->_Mylast);

  00000	8b 01		 mov	 eax, DWORD PTR [ecx]
  00002	2b 41 04	 sub	 eax, DWORD PTR [ecx+4]
  00005	f7 d8		 neg	 eax
  00007	1b c0		 sbb	 eax, eax
  00009	40		 inc	 eax

; 890  : 		}

  0000a	c3		 ret	 0
?empty@?$vector@V?$basic_string@DU?$char_traits@D@std@@V?$allocator@D@2@@std@@V?$allocator@V?$basic_string@DU?$char_traits@D@std@@V?$allocator@D@2@@std@@@2@@std@@QBE_NXZ ENDP ; std::vector<std::basic_string<char,std::char_traits<char>,std::allocator<char> >,std::allocator<std::basic_string<char,std::char_traits<char>,std::allocator<char> > > >::empty
_TEXT	ENDS
PUBLIC	??A?$vector@V?$basic_string@DU?$char_traits@D@std@@V?$allocator@D@2@@std@@V?$allocator@V?$basic_string@DU?$char_traits@D@std@@V?$allocator@D@2@@std@@@2@@std@@QAEAAV?$basic_string@DU?$char_traits@D@std@@V?$allocator@D@2@@1@I@Z ; std::vector<std::basic_string<char,std::char_traits<char>,std::allocator<char> >,std::allocator<std::basic_string<char,std::char_traits<char>,std::allocator<char> > > >::operator[]
; Function compile flags: /Ogsp
;	COMDAT ??A?$vector@V?$basic_string@DU?$char_traits@D@std@@V?$allocator@D@2@@std@@V?$allocator@V?$basic_string@DU?$char_traits@D@std@@V?$allocator@D@2@@std@@@2@@std@@QAEAAV?$basic_string@DU?$char_traits@D@std@@V?$allocator@D@2@@1@I@Z
_TEXT	SEGMENT
__Pos$ = 8						; size = 4
??A?$vector@V?$basic_string@DU?$char_traits@D@std@@V?$allocator@D@2@@std@@V?$allocator@V?$basic_string@DU?$char_traits@D@std@@V?$allocator@D@2@@std@@@2@@std@@QAEAAV?$basic_string@DU?$char_traits@D@std@@V?$allocator@D@2@@1@I@Z PROC ; std::vector<std::basic_string<char,std::char_traits<char>,std::allocator<char> >,std::allocator<std::basic_string<char,std::char_traits<char>,std::allocator<char> > > >::operator[], COMDAT
; _this$ = ecx

; 928  : 		{	// subscript mutable sequence

  00000	55		 push	 ebp
  00001	8b ec		 mov	 ebp, esp

; 929  :  #if _ITERATOR_DEBUG_LEVEL == 2
; 930  : 		if (size() <= _Pos)
; 931  : 			{	// report error
; 932  : 			_DEBUG_ERROR("vector subscript out of range");
; 933  : 			_SCL_SECURE_OUT_OF_RANGE;
; 934  : 			}
; 935  : 
; 936  :  #elif _ITERATOR_DEBUG_LEVEL == 1
; 937  : 		_SCL_SECURE_VALIDATE_RANGE(_Pos < size());
; 938  :  #endif /* _ITERATOR_DEBUG_LEVEL */
; 939  : 
; 940  : 		return (*(this->_Myfirst + _Pos));

  00003	8b 45 08	 mov	 eax, DWORD PTR __Pos$[ebp]
  00006	6b c0 1c	 imul	 eax, 28			; 0000001cH
  00009	03 01		 add	 eax, DWORD PTR [ecx]

; 941  : 		}

  0000b	5d		 pop	 ebp
  0000c	c2 04 00	 ret	 4
??A?$vector@V?$basic_string@DU?$char_traits@D@std@@V?$allocator@D@2@@std@@V?$allocator@V?$basic_string@DU?$char_traits@D@std@@V?$allocator@D@2@@std@@@2@@std@@QAEAAV?$basic_string@DU?$char_traits@D@std@@V?$allocator@D@2@@1@I@Z ENDP ; std::vector<std::basic_string<char,std::char_traits<char>,std::allocator<char> >,std::allocator<std::basic_string<char,std::char_traits<char>,std::allocator<char> > > >::operator[]
_TEXT	ENDS
PUBLIC	?size@?$vector@UEXTRAITEMSLOT@@V?$allocator@UEXTRAITEMSLOT@@@std@@@std@@QBEIXZ ; std::vector<EXTRAITEMSLOT,std::allocator<EXTRAITEMSLOT> >::size
; Function compile flags: /Ogsp
;	COMDAT ?size@?$vector@UEXTRAITEMSLOT@@V?$allocator@UEXTRAITEMSLOT@@@std@@@std@@QBEIXZ
_TEXT	SEGMENT
?size@?$vector@UEXTRAITEMSLOT@@V?$allocator@UEXTRAITEMSLOT@@@std@@@std@@QBEIXZ PROC ; std::vector<EXTRAITEMSLOT,std::allocator<EXTRAITEMSLOT> >::size, COMDAT
; _this$ = ecx

; 879  : 		return (this->_Mylast - this->_Myfirst);

  00000	8b 41 04	 mov	 eax, DWORD PTR [ecx+4]
  00003	2b 01		 sub	 eax, DWORD PTR [ecx]
  00005	6a 48		 push	 72			; 00000048H
  00007	99		 cdq
  00008	59		 pop	 ecx
  00009	f7 f9		 idiv	 ecx

; 880  : 		}

  0000b	c3		 ret	 0
?size@?$vector@UEXTRAITEMSLOT@@V?$allocator@UEXTRAITEMSLOT@@@std@@@std@@QBEIXZ ENDP ; std::vector<EXTRAITEMSLOT,std::allocator<EXTRAITEMSLOT> >::size
_TEXT	ENDS
PUBLIC	?empty@?$vector@UEXTRAITEMSLOT@@V?$allocator@UEXTRAITEMSLOT@@@std@@@std@@QBE_NXZ ; std::vector<EXTRAITEMSLOT,std::allocator<EXTRAITEMSLOT> >::empty
; Function compile flags: /Ogsp
;	COMDAT ?empty@?$vector@UEXTRAITEMSLOT@@V?$allocator@UEXTRAITEMSLOT@@@std@@@std@@QBE_NXZ
_TEXT	SEGMENT
?empty@?$vector@UEXTRAITEMSLOT@@V?$allocator@UEXTRAITEMSLOT@@@std@@@std@@QBE_NXZ PROC ; std::vector<EXTRAITEMSLOT,std::allocator<EXTRAITEMSLOT> >::empty, COMDAT
; _this$ = ecx

; 889  : 		return (this->_Myfirst == this->_Mylast);

  00000	8b 01		 mov	 eax, DWORD PTR [ecx]
  00002	2b 41 04	 sub	 eax, DWORD PTR [ecx+4]
  00005	f7 d8		 neg	 eax
  00007	1b c0		 sbb	 eax, eax
  00009	40		 inc	 eax

; 890  : 		}

  0000a	c3		 ret	 0
?empty@?$vector@UEXTRAITEMSLOT@@V?$allocator@UEXTRAITEMSLOT@@@std@@@std@@QBE_NXZ ENDP ; std::vector<EXTRAITEMSLOT,std::allocator<EXTRAITEMSLOT> >::empty
_TEXT	ENDS
PUBLIC	??A?$vector@UEXTRAITEMSLOT@@V?$allocator@UEXTRAITEMSLOT@@@std@@@std@@QAEAAUEXTRAITEMSLOT@@I@Z ; std::vector<EXTRAITEMSLOT,std::allocator<EXTRAITEMSLOT> >::operator[]
; Function compile flags: /Ogsp
;	COMDAT ??A?$vector@UEXTRAITEMSLOT@@V?$allocator@UEXTRAITEMSLOT@@@std@@@std@@QAEAAUEXTRAITEMSLOT@@I@Z
_TEXT	SEGMENT
__Pos$ = 8						; size = 4
??A?$vector@UEXTRAITEMSLOT@@V?$allocator@UEXTRAITEMSLOT@@@std@@@std@@QAEAAUEXTRAITEMSLOT@@I@Z PROC ; std::vector<EXTRAITEMSLOT,std::allocator<EXTRAITEMSLOT> >::operator[], COMDAT
; _this$ = ecx

; 928  : 		{	// subscript mutable sequence

  00000	55		 push	 ebp
  00001	8b ec		 mov	 ebp, esp

; 929  :  #if _ITERATOR_DEBUG_LEVEL == 2
; 930  : 		if (size() <= _Pos)
; 931  : 			{	// report error
; 932  : 			_DEBUG_ERROR("vector subscript out of range");
; 933  : 			_SCL_SECURE_OUT_OF_RANGE;
; 934  : 			}
; 935  : 
; 936  :  #elif _ITERATOR_DEBUG_LEVEL == 1
; 937  : 		_SCL_SECURE_VALIDATE_RANGE(_Pos < size());
; 938  :  #endif /* _ITERATOR_DEBUG_LEVEL */
; 939  : 
; 940  : 		return (*(this->_Myfirst + _Pos));

  00003	8b 45 08	 mov	 eax, DWORD PTR __Pos$[ebp]
  00006	6b c0 48	 imul	 eax, 72			; 00000048H
  00009	03 01		 add	 eax, DWORD PTR [ecx]

; 941  : 		}

  0000b	5d		 pop	 ebp
  0000c	c2 04 00	 ret	 4
??A?$vector@UEXTRAITEMSLOT@@V?$allocator@UEXTRAITEMSLOT@@@std@@@std@@QAEAAUEXTRAITEMSLOT@@I@Z ENDP ; std::vector<EXTRAITEMSLOT,std::allocator<EXTRAITEMSLOT> >::operator[]
_TEXT	ENDS
PUBLIC	?_Adopt@_Iterator_base0@std@@QAEXPBX@Z		; std::_Iterator_base0::_Adopt
; Function compile flags: /Ogsp
; File c:\program files (x86)\microsoft visual studio 10.0\vc\include\xutility
;	COMDAT ?_Adopt@_Iterator_base0@std@@QAEXPBX@Z
_TEXT	SEGMENT
___formal$ = 8						; size = 4
?_Adopt@_Iterator_base0@std@@QAEXPBX@Z PROC		; std::_Iterator_base0::_Adopt, COMDAT
; _this$ = ecx

; 49   : 		}

  00000	c2 04 00	 ret	 4
?_Adopt@_Iterator_base0@std@@QAEXPBX@Z ENDP		; std::_Iterator_base0::_Adopt
_TEXT	ENDS
PUBLIC	?size@?$vector@UPowerupListInfo@@V?$allocator@UPowerupListInfo@@@std@@@std@@QBEIXZ ; std::vector<PowerupListInfo,std::allocator<PowerupListInfo> >::size
; Function compile flags: /Ogsp
; File c:\program files (x86)\microsoft visual studio 10.0\vc\include\vector
;	COMDAT ?size@?$vector@UPowerupListInfo@@V?$allocator@UPowerupListInfo@@@std@@@std@@QBEIXZ
_TEXT	SEGMENT
?size@?$vector@UPowerupListInfo@@V?$allocator@UPowerupListInfo@@@std@@@std@@QBEIXZ PROC ; std::vector<PowerupListInfo,std::allocator<PowerupListInfo> >::size, COMDAT
; _this$ = ecx

; 879  : 		return (this->_Mylast - this->_Myfirst);

  00000	8b 41 04	 mov	 eax, DWORD PTR [ecx+4]
  00003	2b 01		 sub	 eax, DWORD PTR [ecx]
  00005	6a 0c		 push	 12			; 0000000cH
  00007	99		 cdq
  00008	59		 pop	 ecx
  00009	f7 f9		 idiv	 ecx

; 880  : 		}

  0000b	c3		 ret	 0
?size@?$vector@UPowerupListInfo@@V?$allocator@UPowerupListInfo@@@std@@@std@@QBEIXZ ENDP ; std::vector<PowerupListInfo,std::allocator<PowerupListInfo> >::size
_TEXT	ENDS
PUBLIC	?empty@?$vector@UPowerupListInfo@@V?$allocator@UPowerupListInfo@@@std@@@std@@QBE_NXZ ; std::vector<PowerupListInfo,std::allocator<PowerupListInfo> >::empty
; Function compile flags: /Ogsp
;	COMDAT ?empty@?$vector@UPowerupListInfo@@V?$allocator@UPowerupListInfo@@@std@@@std@@QBE_NXZ
_TEXT	SEGMENT
?empty@?$vector@UPowerupListInfo@@V?$allocator@UPowerupListInfo@@@std@@@std@@QBE_NXZ PROC ; std::vector<PowerupListInfo,std::allocator<PowerupListInfo> >::empty, COMDAT
; _this$ = ecx

; 889  : 		return (this->_Myfirst == this->_Mylast);

  00000	8b 01		 mov	 eax, DWORD PTR [ecx]
  00002	2b 41 04	 sub	 eax, DWORD PTR [ecx+4]
  00005	f7 d8		 neg	 eax
  00007	1b c0		 sbb	 eax, eax
  00009	40		 inc	 eax

; 890  : 		}

  0000a	c3		 ret	 0
?empty@?$vector@UPowerupListInfo@@V?$allocator@UPowerupListInfo@@@std@@@std@@QBE_NXZ ENDP ; std::vector<PowerupListInfo,std::allocator<PowerupListInfo> >::empty
_TEXT	ENDS
PUBLIC	??A?$vector@UPowerupListInfo@@V?$allocator@UPowerupListInfo@@@std@@@std@@QAEAAUPowerupListInfo@@I@Z ; std::vector<PowerupListInfo,std::allocator<PowerupListInfo> >::operator[]
; Function compile flags: /Ogsp
;	COMDAT ??A?$vector@UPowerupListInfo@@V?$allocator@UPowerupListInfo@@@std@@@std@@QAEAAUPowerupListInfo@@I@Z
_TEXT	SEGMENT
__Pos$ = 8						; size = 4
??A?$vector@UPowerupListInfo@@V?$allocator@UPowerupListInfo@@@std@@@std@@QAEAAUPowerupListInfo@@I@Z PROC ; std::vector<PowerupListInfo,std::allocator<PowerupListInfo> >::operator[], COMDAT
; _this$ = ecx

; 928  : 		{	// subscript mutable sequence

  00000	55		 push	 ebp
  00001	8b ec		 mov	 ebp, esp

; 929  :  #if _ITERATOR_DEBUG_LEVEL == 2
; 930  : 		if (size() <= _Pos)
; 931  : 			{	// report error
; 932  : 			_DEBUG_ERROR("vector subscript out of range");
; 933  : 			_SCL_SECURE_OUT_OF_RANGE;
; 934  : 			}
; 935  : 
; 936  :  #elif _ITERATOR_DEBUG_LEVEL == 1
; 937  : 		_SCL_SECURE_VALIDATE_RANGE(_Pos < size());
; 938  :  #endif /* _ITERATOR_DEBUG_LEVEL */
; 939  : 
; 940  : 		return (*(this->_Myfirst + _Pos));

  00003	8b 45 08	 mov	 eax, DWORD PTR __Pos$[ebp]
  00006	6b c0 0c	 imul	 eax, 12			; 0000000cH
  00009	03 01		 add	 eax, DWORD PTR [ecx]

; 941  : 		}

  0000b	5d		 pop	 ebp
  0000c	c2 04 00	 ret	 4
??A?$vector@UPowerupListInfo@@V?$allocator@UPowerupListInfo@@@std@@@std@@QAEAAUPowerupListInfo@@I@Z ENDP ; std::vector<PowerupListInfo,std::allocator<PowerupListInfo> >::operator[]
_TEXT	ENDS
PUBLIC	?capacity@?$vector@V?$basic_string@DU?$char_traits@D@std@@V?$allocator@D@2@@std@@V?$allocator@V?$basic_string@DU?$char_traits@D@std@@V?$allocator@D@2@@std@@@2@@std@@QBEIXZ ; std::vector<std::basic_string<char,std::char_traits<char>,std::allocator<char> >,std::allocator<std::basic_string<char,std::char_traits<char>,std::allocator<char> > > >::capacity
; Function compile flags: /Ogsp
;	COMDAT ?capacity@?$vector@V?$basic_string@DU?$char_traits@D@std@@V?$allocator@D@2@@std@@V?$allocator@V?$basic_string@DU?$char_traits@D@std@@V?$allocator@D@2@@std@@@2@@std@@QBEIXZ
_TEXT	SEGMENT
?capacity@?$vector@V?$basic_string@DU?$char_traits@D@std@@V?$allocator@D@2@@std@@V?$allocator@V?$basic_string@DU?$char_traits@D@std@@V?$allocator@D@2@@std@@@2@@std@@QBEIXZ PROC ; std::vector<std::basic_string<char,std::char_traits<char>,std::allocator<char> >,std::allocator<std::basic_string<char,std::char_traits<char>,std::allocator<char> > > >::capacity, COMDAT
; _this$ = ecx

; 777  : 		return (this->_Myend - this->_Myfirst);

  00000	8b 41 08	 mov	 eax, DWORD PTR [ecx+8]
  00003	2b 01		 sub	 eax, DWORD PTR [ecx]
  00005	6a 1c		 push	 28			; 0000001cH
  00007	99		 cdq
  00008	59		 pop	 ecx
  00009	f7 f9		 idiv	 ecx

; 778  : 		}

  0000b	c3		 ret	 0
?capacity@?$vector@V?$basic_string@DU?$char_traits@D@std@@V?$allocator@D@2@@std@@V?$allocator@V?$basic_string@DU?$char_traits@D@std@@V?$allocator@D@2@@std@@@2@@std@@QBEIXZ ENDP ; std::vector<std::basic_string<char,std::char_traits<char>,std::allocator<char> >,std::allocator<std::basic_string<char,std::char_traits<char>,std::allocator<char> > > >::capacity
_TEXT	ENDS
PUBLIC	??0?$allocator@V?$basic_string@DU?$char_traits@D@std@@V?$allocator@D@2@@std@@@std@@QAE@XZ ; std::allocator<std::basic_string<char,std::char_traits<char>,std::allocator<char> > >::allocator<std::basic_string<char,std::char_traits<char>,std::allocator<char> > >
; Function compile flags: /Ogsp
; File c:\program files (x86)\microsoft visual studio 10.0\vc\include\xmemory
;	COMDAT ??0?$allocator@V?$basic_string@DU?$char_traits@D@std@@V?$allocator@D@2@@std@@@std@@QAE@XZ
_TEXT	SEGMENT
??0?$allocator@V?$basic_string@DU?$char_traits@D@std@@V?$allocator@D@2@@std@@@std@@QAE@XZ PROC ; std::allocator<std::basic_string<char,std::char_traits<char>,std::allocator<char> > >::allocator<std::basic_string<char,std::char_traits<char>,std::allocator<char> > >, COMDAT
; _this$ = ecx

; 161  : 	_ALLOCATOR() _THROW0()

  00000	8b c1		 mov	 eax, ecx

; 162  : 		{	// construct default allocator (do nothing)
; 163  : 		}

  00002	c3		 ret	 0
??0?$allocator@V?$basic_string@DU?$char_traits@D@std@@V?$allocator@D@2@@std@@@std@@QAE@XZ ENDP ; std::allocator<std::basic_string<char,std::char_traits<char>,std::allocator<char> > >::allocator<std::basic_string<char,std::char_traits<char>,std::allocator<char> > >
_TEXT	ENDS
PUBLIC	??1?$_Vector_val@UEXTRAITEMSLOT@@V?$allocator@UEXTRAITEMSLOT@@@std@@@std@@QAE@XZ ; std::_Vector_val<EXTRAITEMSLOT,std::allocator<EXTRAITEMSLOT> >::~_Vector_val<EXTRAITEMSLOT,std::allocator<EXTRAITEMSLOT> >
; Function compile flags: /Ogsp
; File c:\program files (x86)\microsoft visual studio 10.0\vc\include\vector
;	COMDAT ??1?$_Vector_val@UEXTRAITEMSLOT@@V?$allocator@UEXTRAITEMSLOT@@@std@@@std@@QAE@XZ
_TEXT	SEGMENT
??1?$_Vector_val@UEXTRAITEMSLOT@@V?$allocator@UEXTRAITEMSLOT@@@std@@@std@@QAE@XZ PROC ; std::_Vector_val<EXTRAITEMSLOT,std::allocator<EXTRAITEMSLOT> >::~_Vector_val<EXTRAITEMSLOT,std::allocator<EXTRAITEMSLOT> >, COMDAT
; _this$ = ecx

; 434  : 		}

  00000	c3		 ret	 0
??1?$_Vector_val@UEXTRAITEMSLOT@@V?$allocator@UEXTRAITEMSLOT@@@std@@@std@@QAE@XZ ENDP ; std::_Vector_val<EXTRAITEMSLOT,std::allocator<EXTRAITEMSLOT> >::~_Vector_val<EXTRAITEMSLOT,std::allocator<EXTRAITEMSLOT> >
_TEXT	ENDS
PUBLIC	??0?$allocator@UEXTRAITEMSLOT@@@std@@QAE@XZ	; std::allocator<EXTRAITEMSLOT>::allocator<EXTRAITEMSLOT>
; Function compile flags: /Ogsp
; File c:\program files (x86)\microsoft visual studio 10.0\vc\include\xmemory
;	COMDAT ??0?$allocator@UEXTRAITEMSLOT@@@std@@QAE@XZ
_TEXT	SEGMENT
??0?$allocator@UEXTRAITEMSLOT@@@std@@QAE@XZ PROC	; std::allocator<EXTRAITEMSLOT>::allocator<EXTRAITEMSLOT>, COMDAT
; _this$ = ecx

; 161  : 	_ALLOCATOR() _THROW0()

  00000	8b c1		 mov	 eax, ecx

; 162  : 		{	// construct default allocator (do nothing)
; 163  : 		}

  00002	c3		 ret	 0
??0?$allocator@UEXTRAITEMSLOT@@@std@@QAE@XZ ENDP	; std::allocator<EXTRAITEMSLOT>::allocator<EXTRAITEMSLOT>
_TEXT	ENDS
PUBLIC	?_Inside@?$vector@UPowerupListInfo@@V?$allocator@UPowerupListInfo@@@std@@@std@@IBE_NPBUPowerupListInfo@@@Z ; std::vector<PowerupListInfo,std::allocator<PowerupListInfo> >::_Inside
; Function compile flags: /Ogsp
; File c:\program files (x86)\microsoft visual studio 10.0\vc\include\vector
;	COMDAT ?_Inside@?$vector@UPowerupListInfo@@V?$allocator@UPowerupListInfo@@@std@@@std@@IBE_NPBUPowerupListInfo@@@Z
_TEXT	SEGMENT
__Ptr$ = 8						; size = 4
?_Inside@?$vector@UPowerupListInfo@@V?$allocator@UPowerupListInfo@@@std@@@std@@IBE_NPBUPowerupListInfo@@@Z PROC ; std::vector<PowerupListInfo,std::allocator<PowerupListInfo> >::_Inside, COMDAT
; _this$ = ecx

; 1285 : 		{	// test if _Ptr points inside vector

  00000	55		 push	 ebp
  00001	8b ec		 mov	 ebp, esp

; 1286 : 		return (_Ptr < this->_Mylast && this->_Myfirst <= _Ptr);

  00003	8b 45 08	 mov	 eax, DWORD PTR __Ptr$[ebp]
  00006	3b 41 04	 cmp	 eax, DWORD PTR [ecx+4]
  00009	73 09		 jae	 SHORT $LN3@Inside
  0000b	39 01		 cmp	 DWORD PTR [ecx], eax
  0000d	77 05		 ja	 SHORT $LN3@Inside
  0000f	33 c0		 xor	 eax, eax
  00011	40		 inc	 eax
  00012	eb 02		 jmp	 SHORT $LN4@Inside
$LN3@Inside:
  00014	33 c0		 xor	 eax, eax
$LN4@Inside:

; 1287 : 		}

  00016	5d		 pop	 ebp
  00017	c2 04 00	 ret	 4
?_Inside@?$vector@UPowerupListInfo@@V?$allocator@UPowerupListInfo@@@std@@@std@@IBE_NPBUPowerupListInfo@@@Z ENDP ; std::vector<PowerupListInfo,std::allocator<PowerupListInfo> >::_Inside
_TEXT	ENDS
PUBLIC	?_Orphan_range@?$vector@UPowerupListInfo@@V?$allocator@UPowerupListInfo@@@std@@@std@@IBEXPAUPowerupListInfo@@0@Z ; std::vector<PowerupListInfo,std::allocator<PowerupListInfo> >::_Orphan_range
; Function compile flags: /Ogsp
;	COMDAT ?_Orphan_range@?$vector@UPowerupListInfo@@V?$allocator@UPowerupListInfo@@@std@@@std@@IBEXPAUPowerupListInfo@@0@Z
_TEXT	SEGMENT
___formal$ = 8						; size = 4
___formal$ = 12						; size = 4
?_Orphan_range@?$vector@UPowerupListInfo@@V?$allocator@UPowerupListInfo@@@std@@@std@@IBEXPAUPowerupListInfo@@0@Z PROC ; std::vector<PowerupListInfo,std::allocator<PowerupListInfo> >::_Orphan_range, COMDAT
; _this$ = ecx

; 1454 : 		}

  00000	c2 08 00	 ret	 8
?_Orphan_range@?$vector@UPowerupListInfo@@V?$allocator@UPowerupListInfo@@@std@@@std@@IBEXPAUPowerupListInfo@@0@Z ENDP ; std::vector<PowerupListInfo,std::allocator<PowerupListInfo> >::_Orphan_range
_TEXT	ENDS
PUBLIC	??1?$_Vector_val@UPowerupListInfo@@V?$allocator@UPowerupListInfo@@@std@@@std@@QAE@XZ ; std::_Vector_val<PowerupListInfo,std::allocator<PowerupListInfo> >::~_Vector_val<PowerupListInfo,std::allocator<PowerupListInfo> >
; Function compile flags: /Ogsp
;	COMDAT ??1?$_Vector_val@UPowerupListInfo@@V?$allocator@UPowerupListInfo@@@std@@@std@@QAE@XZ
_TEXT	SEGMENT
??1?$_Vector_val@UPowerupListInfo@@V?$allocator@UPowerupListInfo@@@std@@@std@@QAE@XZ PROC ; std::_Vector_val<PowerupListInfo,std::allocator<PowerupListInfo> >::~_Vector_val<PowerupListInfo,std::allocator<PowerupListInfo> >, COMDAT
; _this$ = ecx

; 434  : 		}

  00000	c3		 ret	 0
??1?$_Vector_val@UPowerupListInfo@@V?$allocator@UPowerupListInfo@@@std@@@std@@QAE@XZ ENDP ; std::_Vector_val<PowerupListInfo,std::allocator<PowerupListInfo> >::~_Vector_val<PowerupListInfo,std::allocator<PowerupListInfo> >
_TEXT	ENDS
PUBLIC	??0?$allocator@UPowerupListInfo@@@std@@QAE@XZ	; std::allocator<PowerupListInfo>::allocator<PowerupListInfo>
; Function compile flags: /Ogsp
; File c:\program files (x86)\microsoft visual studio 10.0\vc\include\xmemory
;	COMDAT ??0?$allocator@UPowerupListInfo@@@std@@QAE@XZ
_TEXT	SEGMENT
??0?$allocator@UPowerupListInfo@@@std@@QAE@XZ PROC	; std::allocator<PowerupListInfo>::allocator<PowerupListInfo>, COMDAT
; _this$ = ecx

; 161  : 	_ALLOCATOR() _THROW0()

  00000	8b c1		 mov	 eax, ecx

; 162  : 		{	// construct default allocator (do nothing)
; 163  : 		}

  00002	c3		 ret	 0
??0?$allocator@UPowerupListInfo@@@std@@QAE@XZ ENDP	; std::allocator<PowerupListInfo>::allocator<PowerupListInfo>
_TEXT	ENDS
PUBLIC	??_C@_0BD@OLBABOEK@vector?$DMT?$DO?5too?5long?$AA@ ; `string'
PUBLIC	?_Xlen@?$vector@V?$basic_string@DU?$char_traits@D@std@@V?$allocator@D@2@@std@@V?$allocator@V?$basic_string@DU?$char_traits@D@std@@V?$allocator@D@2@@std@@@2@@std@@IBEXXZ ; std::vector<std::basic_string<char,std::char_traits<char>,std::allocator<char> >,std::allocator<std::basic_string<char,std::char_traits<char>,std::allocator<char> > > >::_Xlen
EXTRN	__imp_?_Xlength_error@std@@YAXPBD@Z:PROC
;	COMDAT ??_C@_0BD@OLBABOEK@vector?$DMT?$DO?5too?5long?$AA@
; File c:\program files (x86)\microsoft visual studio 10.0\vc\include\vector
CONST	SEGMENT
??_C@_0BD@OLBABOEK@vector?$DMT?$DO?5too?5long?$AA@ DB 'vector<T> too long'
	DB	00H						; `string'
; Function compile flags: /Ogsp
CONST	ENDS
;	COMDAT ?_Xlen@?$vector@V?$basic_string@DU?$char_traits@D@std@@V?$allocator@D@2@@std@@V?$allocator@V?$basic_string@DU?$char_traits@D@std@@V?$allocator@D@2@@std@@@2@@std@@IBEXXZ
_TEXT	SEGMENT
?_Xlen@?$vector@V?$basic_string@DU?$char_traits@D@std@@V?$allocator@D@2@@std@@V?$allocator@V?$basic_string@DU?$char_traits@D@std@@V?$allocator@D@2@@std@@@2@@std@@IBEXXZ PROC ; std::vector<std::basic_string<char,std::char_traits<char>,std::allocator<char> >,std::allocator<std::basic_string<char,std::char_traits<char>,std::allocator<char> > > >::_Xlen, COMDAT
; _this$ = ecx

; 1427 : 		_Xlength_error("vector<T> too long");

  00000	68 00 00 00 00	 push	 OFFSET ??_C@_0BD@OLBABOEK@vector?$DMT?$DO?5too?5long?$AA@
  00005	ff 15 00 00 00
	00		 call	 DWORD PTR __imp_?_Xlength_error@std@@YAXPBD@Z
$LN4@Xlen:
$LN3@Xlen:
  0000b	cc		 int	 3
?_Xlen@?$vector@V?$basic_string@DU?$char_traits@D@std@@V?$allocator@D@2@@std@@V?$allocator@V?$basic_string@DU?$char_traits@D@std@@V?$allocator@D@2@@std@@@2@@std@@IBEXXZ ENDP ; std::vector<std::basic_string<char,std::char_traits<char>,std::allocator<char> >,std::allocator<std::basic_string<char,std::char_traits<char>,std::allocator<char> > > >::_Xlen
_TEXT	ENDS
PUBLIC	??0?$allocator@V?$basic_string@DU?$char_traits@D@std@@V?$allocator@D@2@@std@@@std@@QAE@ABV01@@Z ; std::allocator<std::basic_string<char,std::char_traits<char>,std::allocator<char> > >::allocator<std::basic_string<char,std::char_traits<char>,std::allocator<char> > >
; Function compile flags: /Ogsp
; File c:\program files (x86)\microsoft visual studio 10.0\vc\include\xmemory
;	COMDAT ??0?$allocator@V?$basic_string@DU?$char_traits@D@std@@V?$allocator@D@2@@std@@@std@@QAE@ABV01@@Z
_TEXT	SEGMENT
___formal$ = 8						; size = 4
??0?$allocator@V?$basic_string@DU?$char_traits@D@std@@V?$allocator@D@2@@std@@@std@@QAE@ABV01@@Z PROC ; std::allocator<std::basic_string<char,std::char_traits<char>,std::allocator<char> > >::allocator<std::basic_string<char,std::char_traits<char>,std::allocator<char> > >, COMDAT
; _this$ = ecx

; 165  : 	_ALLOCATOR(const _ALLOCATOR<_Ty>&) _THROW0()

  00000	8b c1		 mov	 eax, ecx

; 166  : 		{	// construct by copying (do nothing)
; 167  : 		}

  00002	c2 04 00	 ret	 4
??0?$allocator@V?$basic_string@DU?$char_traits@D@std@@V?$allocator@D@2@@std@@@std@@QAE@ABV01@@Z ENDP ; std::allocator<std::basic_string<char,std::char_traits<char>,std::allocator<char> > >::allocator<std::basic_string<char,std::char_traits<char>,std::allocator<char> > >
_TEXT	ENDS
PUBLIC	??0?$allocator@UEXTRAITEMSLOT@@@std@@QAE@ABV01@@Z ; std::allocator<EXTRAITEMSLOT>::allocator<EXTRAITEMSLOT>
; Function compile flags: /Ogsp
;	COMDAT ??0?$allocator@UEXTRAITEMSLOT@@@std@@QAE@ABV01@@Z
_TEXT	SEGMENT
___formal$ = 8						; size = 4
??0?$allocator@UEXTRAITEMSLOT@@@std@@QAE@ABV01@@Z PROC	; std::allocator<EXTRAITEMSLOT>::allocator<EXTRAITEMSLOT>, COMDAT
; _this$ = ecx

; 165  : 	_ALLOCATOR(const _ALLOCATOR<_Ty>&) _THROW0()

  00000	8b c1		 mov	 eax, ecx

; 166  : 		{	// construct by copying (do nothing)
; 167  : 		}

  00002	c2 04 00	 ret	 4
??0?$allocator@UEXTRAITEMSLOT@@@std@@QAE@ABV01@@Z ENDP	; std::allocator<EXTRAITEMSLOT>::allocator<EXTRAITEMSLOT>
_TEXT	ENDS
PUBLIC	?deallocate@?$allocator@UEXTRAITEMSLOT@@@std@@QAEXPAUEXTRAITEMSLOT@@I@Z ; std::allocator<EXTRAITEMSLOT>::deallocate
; Function compile flags: /Ogsp
;	COMDAT ?deallocate@?$allocator@UEXTRAITEMSLOT@@@std@@QAEXPAUEXTRAITEMSLOT@@I@Z
_TEXT	SEGMENT
__Ptr$ = 8						; size = 4
___formal$ = 12						; size = 4
?deallocate@?$allocator@UEXTRAITEMSLOT@@@std@@QAEXPAUEXTRAITEMSLOT@@I@Z PROC ; std::allocator<EXTRAITEMSLOT>::deallocate, COMDAT
; _this$ = ecx

; 181  : 		{	// deallocate object at _Ptr, ignore size

  00000	55		 push	 ebp
  00001	8b ec		 mov	 ebp, esp

; 182  : 		::operator delete(_Ptr);

  00003	ff 75 08	 push	 DWORD PTR __Ptr$[ebp]
  00006	e8 00 00 00 00	 call	 ??3@YAXPAX@Z		; operator delete
  0000b	59		 pop	 ecx

; 183  : 		}

  0000c	5d		 pop	 ebp
  0000d	c2 08 00	 ret	 8
?deallocate@?$allocator@UEXTRAITEMSLOT@@@std@@QAEXPAUEXTRAITEMSLOT@@I@Z ENDP ; std::allocator<EXTRAITEMSLOT>::deallocate
_TEXT	ENDS
PUBLIC	?capacity@?$vector@UPowerupListInfo@@V?$allocator@UPowerupListInfo@@@std@@@std@@QBEIXZ ; std::vector<PowerupListInfo,std::allocator<PowerupListInfo> >::capacity
; Function compile flags: /Ogsp
; File c:\program files (x86)\microsoft visual studio 10.0\vc\include\vector
;	COMDAT ?capacity@?$vector@UPowerupListInfo@@V?$allocator@UPowerupListInfo@@@std@@@std@@QBEIXZ
_TEXT	SEGMENT
?capacity@?$vector@UPowerupListInfo@@V?$allocator@UPowerupListInfo@@@std@@@std@@QBEIXZ PROC ; std::vector<PowerupListInfo,std::allocator<PowerupListInfo> >::capacity, COMDAT
; _this$ = ecx

; 777  : 		return (this->_Myend - this->_Myfirst);

  00000	8b 41 08	 mov	 eax, DWORD PTR [ecx+8]
  00003	2b 01		 sub	 eax, DWORD PTR [ecx]
  00005	6a 0c		 push	 12			; 0000000cH
  00007	99		 cdq
  00008	59		 pop	 ecx
  00009	f7 f9		 idiv	 ecx

; 778  : 		}

  0000b	c3		 ret	 0
?capacity@?$vector@UPowerupListInfo@@V?$allocator@UPowerupListInfo@@@std@@@std@@QBEIXZ ENDP ; std::vector<PowerupListInfo,std::allocator<PowerupListInfo> >::capacity
_TEXT	ENDS
PUBLIC	?_Xlen@?$vector@UPowerupListInfo@@V?$allocator@UPowerupListInfo@@@std@@@std@@IBEXXZ ; std::vector<PowerupListInfo,std::allocator<PowerupListInfo> >::_Xlen
; Function compile flags: /Ogsp
;	COMDAT ?_Xlen@?$vector@UPowerupListInfo@@V?$allocator@UPowerupListInfo@@@std@@@std@@IBEXXZ
_TEXT	SEGMENT
?_Xlen@?$vector@UPowerupListInfo@@V?$allocator@UPowerupListInfo@@@std@@@std@@IBEXXZ PROC ; std::vector<PowerupListInfo,std::allocator<PowerupListInfo> >::_Xlen, COMDAT
; _this$ = ecx

; 1427 : 		_Xlength_error("vector<T> too long");

  00000	68 00 00 00 00	 push	 OFFSET ??_C@_0BD@OLBABOEK@vector?$DMT?$DO?5too?5long?$AA@
  00005	ff 15 00 00 00
	00		 call	 DWORD PTR __imp_?_Xlength_error@std@@YAXPBD@Z
$LN4@Xlen@2:
$LN3@Xlen@2:
  0000b	cc		 int	 3
?_Xlen@?$vector@UPowerupListInfo@@V?$allocator@UPowerupListInfo@@@std@@@std@@IBEXXZ ENDP ; std::vector<PowerupListInfo,std::allocator<PowerupListInfo> >::_Xlen
_TEXT	ENDS
PUBLIC	??0?$allocator@UPowerupListInfo@@@std@@QAE@ABV01@@Z ; std::allocator<PowerupListInfo>::allocator<PowerupListInfo>
; Function compile flags: /Ogsp
; File c:\program files (x86)\microsoft visual studio 10.0\vc\include\xmemory
;	COMDAT ??0?$allocator@UPowerupListInfo@@@std@@QAE@ABV01@@Z
_TEXT	SEGMENT
___formal$ = 8						; size = 4
??0?$allocator@UPowerupListInfo@@@std@@QAE@ABV01@@Z PROC ; std::allocator<PowerupListInfo>::allocator<PowerupListInfo>, COMDAT
; _this$ = ecx

; 165  : 	_ALLOCATOR(const _ALLOCATOR<_Ty>&) _THROW0()

  00000	8b c1		 mov	 eax, ecx

; 166  : 		{	// construct by copying (do nothing)
; 167  : 		}

  00002	c2 04 00	 ret	 4
??0?$allocator@UPowerupListInfo@@@std@@QAE@ABV01@@Z ENDP ; std::allocator<PowerupListInfo>::allocator<PowerupListInfo>
_TEXT	ENDS
PUBLIC	?deallocate@?$allocator@UPowerupListInfo@@@std@@QAEXPAUPowerupListInfo@@I@Z ; std::allocator<PowerupListInfo>::deallocate
; Function compile flags: /Ogsp
;	COMDAT ?deallocate@?$allocator@UPowerupListInfo@@@std@@QAEXPAUPowerupListInfo@@I@Z
_TEXT	SEGMENT
__Ptr$ = 8						; size = 4
___formal$ = 12						; size = 4
?deallocate@?$allocator@UPowerupListInfo@@@std@@QAEXPAUPowerupListInfo@@I@Z PROC ; std::allocator<PowerupListInfo>::deallocate, COMDAT
; _this$ = ecx

; 181  : 		{	// deallocate object at _Ptr, ignore size

  00000	55		 push	 ebp
  00001	8b ec		 mov	 ebp, esp

; 182  : 		::operator delete(_Ptr);

  00003	ff 75 08	 push	 DWORD PTR __Ptr$[ebp]
  00006	e8 00 00 00 00	 call	 ??3@YAXPAX@Z		; operator delete
  0000b	59		 pop	 ecx

; 183  : 		}

  0000c	5d		 pop	 ebp
  0000d	c2 08 00	 ret	 8
?deallocate@?$allocator@UPowerupListInfo@@@std@@QAEXPAUPowerupListInfo@@I@Z ENDP ; std::allocator<PowerupListInfo>::deallocate
_TEXT	ENDS
PUBLIC	??0?$_Vector_const_iterator@V?$_Vector_val@UPowerupListInfo@@V?$allocator@UPowerupListInfo@@@std@@@std@@@std@@QAE@PAUPowerupListInfo@@PBU_Container_base0@1@@Z ; std::_Vector_const_iterator<std::_Vector_val<PowerupListInfo,std::allocator<PowerupListInfo> > >::_Vector_const_iterator<std::_Vector_val<PowerupListInfo,std::allocator<PowerupListInfo> > >
; Function compile flags: /Ogsp
; File c:\program files (x86)\microsoft visual studio 10.0\vc\include\vector
;	COMDAT ??0?$_Vector_const_iterator@V?$_Vector_val@UPowerupListInfo@@V?$allocator@UPowerupListInfo@@@std@@@std@@@std@@QAE@PAUPowerupListInfo@@PBU_Container_base0@1@@Z
_TEXT	SEGMENT
__Parg$ = 8						; size = 4
__Pvector$ = 12						; size = 4
??0?$_Vector_const_iterator@V?$_Vector_val@UPowerupListInfo@@V?$allocator@UPowerupListInfo@@@std@@@std@@@std@@QAE@PAUPowerupListInfo@@PBU_Container_base0@1@@Z PROC ; std::_Vector_const_iterator<std::_Vector_val<PowerupListInfo,std::allocator<PowerupListInfo> > >::_Vector_const_iterator<std::_Vector_val<PowerupListInfo,std::allocator<PowerupListInfo> > >, COMDAT
; _this$ = ecx

; 45   : 		{	// construct with pointer _Parg

  00000	55		 push	 ebp
  00001	8b ec		 mov	 ebp, esp
  00003	8b c1		 mov	 eax, ecx
  00005	8b 4d 08	 mov	 ecx, DWORD PTR __Parg$[ebp]
  00008	89 08		 mov	 DWORD PTR [eax], ecx

; 46   : 		this->_Adopt(_Pvector);
; 47   : 		}

  0000a	5d		 pop	 ebp
  0000b	c2 08 00	 ret	 8
??0?$_Vector_const_iterator@V?$_Vector_val@UPowerupListInfo@@V?$allocator@UPowerupListInfo@@@std@@@std@@@std@@QAE@PAUPowerupListInfo@@PBU_Container_base0@1@@Z ENDP ; std::_Vector_const_iterator<std::_Vector_val<PowerupListInfo,std::allocator<PowerupListInfo> > >::_Vector_const_iterator<std::_Vector_val<PowerupListInfo,std::allocator<PowerupListInfo> > >
_TEXT	ENDS
PUBLIC	?max_size@?$allocator@V?$basic_string@DU?$char_traits@D@std@@V?$allocator@D@2@@std@@@std@@QBEIXZ ; std::allocator<std::basic_string<char,std::char_traits<char>,std::allocator<char> > >::max_size
; Function compile flags: /Ogsp
; File c:\program files (x86)\microsoft visual studio 10.0\vc\include\xmemory
;	COMDAT ?max_size@?$allocator@V?$basic_string@DU?$char_traits@D@std@@V?$allocator@D@2@@std@@@std@@QBEIXZ
_TEXT	SEGMENT
?max_size@?$allocator@V?$basic_string@DU?$char_traits@D@std@@V?$allocator@D@2@@std@@@std@@QBEIXZ PROC ; std::allocator<std::basic_string<char,std::char_traits<char>,std::allocator<char> > >::max_size, COMDAT
; _this$ = ecx

; 218  : 		_SIZT _Count = (_SIZT)(-1) / sizeof (_Ty);
; 219  : 		return (0 < _Count ? _Count : 1);

  00000	b8 49 92 24 09	 mov	 eax, 153391689		; 09249249H

; 220  : 		}

  00005	c3		 ret	 0
?max_size@?$allocator@V?$basic_string@DU?$char_traits@D@std@@V?$allocator@D@2@@std@@@std@@QBEIXZ ENDP ; std::allocator<std::basic_string<char,std::char_traits<char>,std::allocator<char> > >::max_size
_TEXT	ENDS
PUBLIC	?max_size@?$allocator@UPowerupListInfo@@@std@@QBEIXZ ; std::allocator<PowerupListInfo>::max_size
; Function compile flags: /Ogsp
;	COMDAT ?max_size@?$allocator@UPowerupListInfo@@@std@@QBEIXZ
_TEXT	SEGMENT
?max_size@?$allocator@UPowerupListInfo@@@std@@QBEIXZ PROC ; std::allocator<PowerupListInfo>::max_size, COMDAT
; _this$ = ecx

; 218  : 		_SIZT _Count = (_SIZT)(-1) / sizeof (_Ty);
; 219  : 		return (0 < _Count ? _Count : 1);

  00000	b8 55 55 55 15	 mov	 eax, 357913941		; 15555555H

; 220  : 		}

  00005	c3		 ret	 0
?max_size@?$allocator@UPowerupListInfo@@@std@@QBEIXZ ENDP ; std::allocator<PowerupListInfo>::max_size
_TEXT	ENDS
PUBLIC	??0?$_Vector_const_iterator@V?$_Vector_val@V?$basic_string@DU?$char_traits@D@std@@V?$allocator@D@2@@std@@V?$allocator@V?$basic_string@DU?$char_traits@D@std@@V?$allocator@D@2@@std@@@2@@std@@@std@@QAE@PAV?$basic_string@DU?$char_traits@D@std@@V?$allocator@D@2@@1@PBU_Container_base0@1@@Z ; std::_Vector_const_iterator<std::_Vector_val<std::basic_string<char,std::char_traits<char>,std::allocator<char> >,std::allocator<std::basic_string<char,std::char_traits<char>,std::allocator<char> > > > >::_Vector_const_iterator<std::_Vector_val<std::basic_string<char,std::char_traits<char>,std::allocator<char> >,std::allocator<std::basic_string<char,std::char_traits<char>,std::allocator<char> > > > >
; Function compile flags: /Ogsp
; File c:\program files (x86)\microsoft visual studio 10.0\vc\include\vector
;	COMDAT ??0?$_Vector_const_iterator@V?$_Vector_val@V?$basic_string@DU?$char_traits@D@std@@V?$allocator@D@2@@std@@V?$allocator@V?$basic_string@DU?$char_traits@D@std@@V?$allocator@D@2@@std@@@2@@std@@@std@@QAE@PAV?$basic_string@DU?$char_traits@D@std@@V?$allocator@D@2@@1@PBU_Container_base0@1@@Z
_TEXT	SEGMENT
__Parg$ = 8						; size = 4
__Pvector$ = 12						; size = 4
??0?$_Vector_const_iterator@V?$_Vector_val@V?$basic_string@DU?$char_traits@D@std@@V?$allocator@D@2@@std@@V?$allocator@V?$basic_string@DU?$char_traits@D@std@@V?$allocator@D@2@@std@@@2@@std@@@std@@QAE@PAV?$basic_string@DU?$char_traits@D@std@@V?$allocator@D@2@@1@PBU_Container_base0@1@@Z PROC ; std::_Vector_const_iterator<std::_Vector_val<std::basic_string<char,std::char_traits<char>,std::allocator<char> >,std::allocator<std::basic_string<char,std::char_traits<char>,std::allocator<char> > > > >::_Vector_const_iterator<std::_Vector_val<std::basic_string<char,std::char_traits<char>,std::allocator<char> >,std::allocator<std::basic_string<char,std::char_traits<char>,std::allocator<char> > > > >, COMDAT
; _this$ = ecx

; 45   : 		{	// construct with pointer _Parg

  00000	55		 push	 ebp
  00001	8b ec		 mov	 ebp, esp
  00003	8b c1		 mov	 eax, ecx
  00005	8b 4d 08	 mov	 ecx, DWORD PTR __Parg$[ebp]
  00008	89 08		 mov	 DWORD PTR [eax], ecx

; 46   : 		this->_Adopt(_Pvector);
; 47   : 		}

  0000a	5d		 pop	 ebp
  0000b	c2 08 00	 ret	 8
??0?$_Vector_const_iterator@V?$_Vector_val@V?$basic_string@DU?$char_traits@D@std@@V?$allocator@D@2@@std@@V?$allocator@V?$basic_string@DU?$char_traits@D@std@@V?$allocator@D@2@@std@@@2@@std@@@std@@QAE@PAV?$basic_string@DU?$char_traits@D@std@@V?$allocator@D@2@@1@PBU_Container_base0@1@@Z ENDP ; std::_Vector_const_iterator<std::_Vector_val<std::basic_string<char,std::char_traits<char>,std::allocator<char> >,std::allocator<std::basic_string<char,std::char_traits<char>,std::allocator<char> > > > >::_Vector_const_iterator<std::_Vector_val<std::basic_string<char,std::char_traits<char>,std::allocator<char> >,std::allocator<std::basic_string<char,std::char_traits<char>,std::allocator<char> > > > >
_TEXT	ENDS
PUBLIC	??0?$_Vector_const_iterator@V?$_Vector_val@UEXTRAITEMSLOT@@V?$allocator@UEXTRAITEMSLOT@@@std@@@std@@@std@@QAE@PAUEXTRAITEMSLOT@@PBU_Container_base0@1@@Z ; std::_Vector_const_iterator<std::_Vector_val<EXTRAITEMSLOT,std::allocator<EXTRAITEMSLOT> > >::_Vector_const_iterator<std::_Vector_val<EXTRAITEMSLOT,std::allocator<EXTRAITEMSLOT> > >
; Function compile flags: /Ogsp
;	COMDAT ??0?$_Vector_const_iterator@V?$_Vector_val@UEXTRAITEMSLOT@@V?$allocator@UEXTRAITEMSLOT@@@std@@@std@@@std@@QAE@PAUEXTRAITEMSLOT@@PBU_Container_base0@1@@Z
_TEXT	SEGMENT
__Parg$ = 8						; size = 4
__Pvector$ = 12						; size = 4
??0?$_Vector_const_iterator@V?$_Vector_val@UEXTRAITEMSLOT@@V?$allocator@UEXTRAITEMSLOT@@@std@@@std@@@std@@QAE@PAUEXTRAITEMSLOT@@PBU_Container_base0@1@@Z PROC ; std::_Vector_const_iterator<std::_Vector_val<EXTRAITEMSLOT,std::allocator<EXTRAITEMSLOT> > >::_Vector_const_iterator<std::_Vector_val<EXTRAITEMSLOT,std::allocator<EXTRAITEMSLOT> > >, COMDAT
; _this$ = ecx

; 45   : 		{	// construct with pointer _Parg

  00000	55		 push	 ebp
  00001	8b ec		 mov	 ebp, esp
  00003	8b c1		 mov	 eax, ecx
  00005	8b 4d 08	 mov	 ecx, DWORD PTR __Parg$[ebp]
  00008	89 08		 mov	 DWORD PTR [eax], ecx

; 46   : 		this->_Adopt(_Pvector);
; 47   : 		}

  0000a	5d		 pop	 ebp
  0000b	c2 08 00	 ret	 8
??0?$_Vector_const_iterator@V?$_Vector_val@UEXTRAITEMSLOT@@V?$allocator@UEXTRAITEMSLOT@@@std@@@std@@@std@@QAE@PAUEXTRAITEMSLOT@@PBU_Container_base0@1@@Z ENDP ; std::_Vector_const_iterator<std::_Vector_val<EXTRAITEMSLOT,std::allocator<EXTRAITEMSLOT> > >::_Vector_const_iterator<std::_Vector_val<EXTRAITEMSLOT,std::allocator<EXTRAITEMSLOT> > >
_TEXT	ENDS
PUBLIC	?_Compat@?$_Vector_const_iterator@V?$_Vector_val@UPowerupListInfo@@V?$allocator@UPowerupListInfo@@@std@@@std@@@std@@QBEXABV12@@Z ; std::_Vector_const_iterator<std::_Vector_val<PowerupListInfo,std::allocator<PowerupListInfo> > >::_Compat
; Function compile flags: /Ogsp
;	COMDAT ?_Compat@?$_Vector_const_iterator@V?$_Vector_val@UPowerupListInfo@@V?$allocator@UPowerupListInfo@@@std@@@std@@@std@@QBEXABV12@@Z
_TEXT	SEGMENT
___formal$ = 8						; size = 4
?_Compat@?$_Vector_const_iterator@V?$_Vector_val@UPowerupListInfo@@V?$allocator@UPowerupListInfo@@@std@@@std@@@std@@QBEXABV12@@Z PROC ; std::_Vector_const_iterator<std::_Vector_val<PowerupListInfo,std::allocator<PowerupListInfo> > >::_Compat, COMDAT
; _this$ = ecx

; 253  : 		}

  00000	c2 04 00	 ret	 4
?_Compat@?$_Vector_const_iterator@V?$_Vector_val@UPowerupListInfo@@V?$allocator@UPowerupListInfo@@@std@@@std@@@std@@QBEXABV12@@Z ENDP ; std::_Vector_const_iterator<std::_Vector_val<PowerupListInfo,std::allocator<PowerupListInfo> > >::_Compat
_TEXT	ENDS
PUBLIC	?_Compat@?$_Vector_const_iterator@V?$_Vector_val@V?$basic_string@DU?$char_traits@D@std@@V?$allocator@D@2@@std@@V?$allocator@V?$basic_string@DU?$char_traits@D@std@@V?$allocator@D@2@@std@@@2@@std@@@std@@QBEXABV12@@Z ; std::_Vector_const_iterator<std::_Vector_val<std::basic_string<char,std::char_traits<char>,std::allocator<char> >,std::allocator<std::basic_string<char,std::char_traits<char>,std::allocator<char> > > > >::_Compat
; Function compile flags: /Ogsp
;	COMDAT ?_Compat@?$_Vector_const_iterator@V?$_Vector_val@V?$basic_string@DU?$char_traits@D@std@@V?$allocator@D@2@@std@@V?$allocator@V?$basic_string@DU?$char_traits@D@std@@V?$allocator@D@2@@std@@@2@@std@@@std@@QBEXABV12@@Z
_TEXT	SEGMENT
___formal$ = 8						; size = 4
?_Compat@?$_Vector_const_iterator@V?$_Vector_val@V?$basic_string@DU?$char_traits@D@std@@V?$allocator@D@2@@std@@V?$allocator@V?$basic_string@DU?$char_traits@D@std@@V?$allocator@D@2@@std@@@2@@std@@@std@@QBEXABV12@@Z PROC ; std::_Vector_const_iterator<std::_Vector_val<std::basic_string<char,std::char_traits<char>,std::allocator<char> >,std::allocator<std::basic_string<char,std::char_traits<char>,std::allocator<char> > > > >::_Compat, COMDAT
; _this$ = ecx

; 253  : 		}

  00000	c2 04 00	 ret	 4
?_Compat@?$_Vector_const_iterator@V?$_Vector_val@V?$basic_string@DU?$char_traits@D@std@@V?$allocator@D@2@@std@@V?$allocator@V?$basic_string@DU?$char_traits@D@std@@V?$allocator@D@2@@std@@@2@@std@@@std@@QBEXABV12@@Z ENDP ; std::_Vector_const_iterator<std::_Vector_val<std::basic_string<char,std::char_traits<char>,std::allocator<char> >,std::allocator<std::basic_string<char,std::char_traits<char>,std::allocator<char> > > > >::_Compat
_TEXT	ENDS
PUBLIC	?_Compat@?$_Vector_const_iterator@V?$_Vector_val@UEXTRAITEMSLOT@@V?$allocator@UEXTRAITEMSLOT@@@std@@@std@@@std@@QBEXABV12@@Z ; std::_Vector_const_iterator<std::_Vector_val<EXTRAITEMSLOT,std::allocator<EXTRAITEMSLOT> > >::_Compat
; Function compile flags: /Ogsp
;	COMDAT ?_Compat@?$_Vector_const_iterator@V?$_Vector_val@UEXTRAITEMSLOT@@V?$allocator@UEXTRAITEMSLOT@@@std@@@std@@@std@@QBEXABV12@@Z
_TEXT	SEGMENT
___formal$ = 8						; size = 4
?_Compat@?$_Vector_const_iterator@V?$_Vector_val@UEXTRAITEMSLOT@@V?$allocator@UEXTRAITEMSLOT@@@std@@@std@@@std@@QBEXABV12@@Z PROC ; std::_Vector_const_iterator<std::_Vector_val<EXTRAITEMSLOT,std::allocator<EXTRAITEMSLOT> > >::_Compat, COMDAT
; _this$ = ecx

; 253  : 		}

  00000	c2 04 00	 ret	 4
?_Compat@?$_Vector_const_iterator@V?$_Vector_val@UEXTRAITEMSLOT@@V?$allocator@UEXTRAITEMSLOT@@@std@@@std@@@std@@QBEXABV12@@Z ENDP ; std::_Vector_const_iterator<std::_Vector_val<EXTRAITEMSLOT,std::allocator<EXTRAITEMSLOT> > >::_Compat
_TEXT	ENDS
PUBLIC	??$addressof@$$CBUPowerupListInfo@@@std@@YAPBUPowerupListInfo@@ABU1@@Z ; std::addressof<PowerupListInfo const >
; Function compile flags: /Ogsp
; File c:\program files (x86)\microsoft visual studio 10.0\vc\include\xmemory
;	COMDAT ??$addressof@$$CBUPowerupListInfo@@@std@@YAPBUPowerupListInfo@@ABU1@@Z
_TEXT	SEGMENT
__Val$ = 8						; size = 4
??$addressof@$$CBUPowerupListInfo@@@std@@YAPBUPowerupListInfo@@ABU1@@Z PROC ; std::addressof<PowerupListInfo const >, COMDAT

; 110  : 	{	// return address of _Val

  00000	55		 push	 ebp
  00001	8b ec		 mov	 ebp, esp

; 111  : 	return ((_Ty *) &(char&)_Val);

  00003	8b 45 08	 mov	 eax, DWORD PTR __Val$[ebp]

; 112  : 	}

  00006	5d		 pop	 ebp
  00007	c3		 ret	 0
??$addressof@$$CBUPowerupListInfo@@@std@@YAPBUPowerupListInfo@@ABU1@@Z ENDP ; std::addressof<PowerupListInfo const >
_TEXT	ENDS
PUBLIC	__TI2?AVbad_alloc@std@@
PUBLIC	??$_Allocate@V?$basic_string@DU?$char_traits@D@std@@V?$allocator@D@2@@std@@@std@@YAPAV?$basic_string@DU?$char_traits@D@std@@V?$allocator@D@2@@0@IPAV10@@Z ; std::_Allocate<std::basic_string<char,std::char_traits<char>,std::allocator<char> > >
PUBLIC	__CTA2?AVbad_alloc@std@@
PUBLIC	__CT??_R0?AVbad_alloc@std@@@8??0bad_alloc@std@@QAE@ABV01@@Z12
PUBLIC	??0bad_alloc@std@@QAE@ABV01@@Z			; std::bad_alloc::bad_alloc
PUBLIC	__CT??_R0?AVexception@std@@@8??0exception@std@@QAE@ABV01@@Z12
EXTRN	??2@YAPAXI@Z:PROC				; operator new
EXTRN	__CxxThrowException@8:PROC
EXTRN	??0exception@std@@QAE@ABV01@@Z:PROC		; std::exception::exception
;	COMDAT __CT??_R0?AVexception@std@@@8??0exception@std@@QAE@ABV01@@Z12
; File c:\program files (x86)\microsoft visual studio 10.0\vc\include\exception
xdata$x	SEGMENT
__CT??_R0?AVexception@std@@@8??0exception@std@@QAE@ABV01@@Z12 DD 00H
	DD	FLAT:??_R0?AVexception@std@@@8
	DD	00H
	DD	0ffffffffH
	ORG $+4
	DD	0cH
	DD	FLAT:??0exception@std@@QAE@ABV01@@Z
xdata$x	ENDS
;	COMDAT __CT??_R0?AVbad_alloc@std@@@8??0bad_alloc@std@@QAE@ABV01@@Z12
xdata$x	SEGMENT
__CT??_R0?AVbad_alloc@std@@@8??0bad_alloc@std@@QAE@ABV01@@Z12 DD 00H
	DD	FLAT:??_R0?AVbad_alloc@std@@@8
	DD	00H
	DD	0ffffffffH
	ORG $+4
	DD	0cH
	DD	FLAT:??0bad_alloc@std@@QAE@ABV01@@Z
xdata$x	ENDS
;	COMDAT __CTA2?AVbad_alloc@std@@
xdata$x	SEGMENT
__CTA2?AVbad_alloc@std@@ DD 02H
	DD	FLAT:__CT??_R0?AVbad_alloc@std@@@8??0bad_alloc@std@@QAE@ABV01@@Z12
	DD	FLAT:__CT??_R0?AVexception@std@@@8??0exception@std@@QAE@ABV01@@Z12
xdata$x	ENDS
;	COMDAT __TI2?AVbad_alloc@std@@
xdata$x	SEGMENT
__TI2?AVbad_alloc@std@@ DD 00H
	DD	FLAT:??1bad_alloc@std@@UAE@XZ
	DD	00H
	DD	FLAT:__CTA2?AVbad_alloc@std@@
; Function compile flags: /Ogsp
; File c:\program files (x86)\microsoft visual studio 10.0\vc\include\xmemory
xdata$x	ENDS
;	COMDAT ??$_Allocate@V?$basic_string@DU?$char_traits@D@std@@V?$allocator@D@2@@std@@@std@@YAPAV?$basic_string@DU?$char_traits@D@std@@V?$allocator@D@2@@0@IPAV10@@Z
_TEXT	SEGMENT
$T514180 = -12						; size = 12
$T514185 = 8						; size = 4
__Count$ = 8						; size = 4
___formal$ = 12						; size = 4
??$_Allocate@V?$basic_string@DU?$char_traits@D@std@@V?$allocator@D@2@@std@@@std@@YAPAV?$basic_string@DU?$char_traits@D@std@@V?$allocator@D@2@@0@IPAV10@@Z PROC ; std::_Allocate<std::basic_string<char,std::char_traits<char>,std::allocator<char> > >, COMDAT

; 30   : 	{	// allocate storage for _Count elements of type _Ty

  00000	55		 push	 ebp
  00001	8b ec		 mov	 ebp, esp

; 31   : 	void *_Ptr = 0;
; 32   : 
; 33   : 	if (_Count <= 0)

  00003	8b 4d 08	 mov	 ecx, DWORD PTR __Count$[ebp]
  00006	83 ec 0c	 sub	 esp, 12			; 0000000cH
  00009	33 c0		 xor	 eax, eax
  0000b	85 c9		 test	 ecx, ecx

; 34   : 		_Count = 0;
; 35   : 	else if (((_SIZT)(-1) / sizeof (_Ty) < _Count)

  0000d	74 3c		 je	 SHORT $LN5@Allocate

; 36   : 		|| (_Ptr = ::operator new(_Count * sizeof (_Ty))) == 0)

  0000f	81 f9 49 92 24
	09		 cmp	 ecx, 153391689		; 09249249H
  00015	77 0e		 ja	 SHORT $LN1@Allocate
  00017	6b c9 1c	 imul	 ecx, 28			; 0000001cH
  0001a	51		 push	 ecx
  0001b	e8 00 00 00 00	 call	 ??2@YAPAXI@Z		; operator new
  00020	59		 pop	 ecx
  00021	85 c0		 test	 eax, eax

; 38   : 
; 39   : 	return ((_Ty _FARQ *)_Ptr);

  00023	75 26		 jne	 SHORT $LN5@Allocate
$LN1@Allocate:

; 37   : 		_THROW_NCEE(bad_alloc, 0);

  00025	83 65 08 00	 and	 DWORD PTR $T514185[ebp], 0
  00029	8d 45 08	 lea	 eax, DWORD PTR $T514185[ebp]
  0002c	50		 push	 eax
  0002d	8d 4d f4	 lea	 ecx, DWORD PTR $T514180[ebp]
  00030	ff 15 00 00 00
	00		 call	 DWORD PTR __imp_??0exception@std@@QAE@ABQBD@Z
  00036	68 00 00 00 00	 push	 OFFSET __TI2?AVbad_alloc@std@@
  0003b	8d 45 f4	 lea	 eax, DWORD PTR $T514180[ebp]
  0003e	50		 push	 eax
  0003f	c7 45 f4 00 00
	00 00		 mov	 DWORD PTR $T514180[ebp], OFFSET ??_7bad_alloc@std@@6B@
  00046	e8 00 00 00 00	 call	 __CxxThrowException@8
$LN10@Allocate:
$LN5@Allocate:

; 40   : 	}

  0004b	c9		 leave
  0004c	c3		 ret	 0
$LN9@Allocate:
??$_Allocate@V?$basic_string@DU?$char_traits@D@std@@V?$allocator@D@2@@std@@@std@@YAPAV?$basic_string@DU?$char_traits@D@std@@V?$allocator@D@2@@0@IPAV10@@Z ENDP ; std::_Allocate<std::basic_string<char,std::char_traits<char>,std::allocator<char> > >
_TEXT	ENDS
PUBLIC	??$_Allocate@UPowerupListInfo@@@std@@YAPAUPowerupListInfo@@IPAU1@@Z ; std::_Allocate<PowerupListInfo>
; Function compile flags: /Ogsp
;	COMDAT ??$_Allocate@UPowerupListInfo@@@std@@YAPAUPowerupListInfo@@IPAU1@@Z
_TEXT	SEGMENT
$T514190 = -12						; size = 12
$T514194 = 8						; size = 4
__Count$ = 8						; size = 4
___formal$ = 12						; size = 4
??$_Allocate@UPowerupListInfo@@@std@@YAPAUPowerupListInfo@@IPAU1@@Z PROC ; std::_Allocate<PowerupListInfo>, COMDAT

; 30   : 	{	// allocate storage for _Count elements of type _Ty

  00000	55		 push	 ebp
  00001	8b ec		 mov	 ebp, esp

; 31   : 	void *_Ptr = 0;
; 32   : 
; 33   : 	if (_Count <= 0)

  00003	8b 4d 08	 mov	 ecx, DWORD PTR __Count$[ebp]
  00006	83 ec 0c	 sub	 esp, 12			; 0000000cH
  00009	33 c0		 xor	 eax, eax
  0000b	85 c9		 test	 ecx, ecx

; 34   : 		_Count = 0;
; 35   : 	else if (((_SIZT)(-1) / sizeof (_Ty) < _Count)

  0000d	74 3c		 je	 SHORT $LN5@Allocate@2

; 36   : 		|| (_Ptr = ::operator new(_Count * sizeof (_Ty))) == 0)

  0000f	81 f9 55 55 55
	15		 cmp	 ecx, 357913941		; 15555555H
  00015	77 0e		 ja	 SHORT $LN1@Allocate@2
  00017	6b c9 0c	 imul	 ecx, 12			; 0000000cH
  0001a	51		 push	 ecx
  0001b	e8 00 00 00 00	 call	 ??2@YAPAXI@Z		; operator new
  00020	59		 pop	 ecx
  00021	85 c0		 test	 eax, eax

; 38   : 
; 39   : 	return ((_Ty _FARQ *)_Ptr);

  00023	75 26		 jne	 SHORT $LN5@Allocate@2
$LN1@Allocate@2:

; 37   : 		_THROW_NCEE(bad_alloc, 0);

  00025	83 65 08 00	 and	 DWORD PTR $T514194[ebp], 0
  00029	8d 45 08	 lea	 eax, DWORD PTR $T514194[ebp]
  0002c	50		 push	 eax
  0002d	8d 4d f4	 lea	 ecx, DWORD PTR $T514190[ebp]
  00030	ff 15 00 00 00
	00		 call	 DWORD PTR __imp_??0exception@std@@QAE@ABQBD@Z
  00036	68 00 00 00 00	 push	 OFFSET __TI2?AVbad_alloc@std@@
  0003b	8d 45 f4	 lea	 eax, DWORD PTR $T514190[ebp]
  0003e	50		 push	 eax
  0003f	c7 45 f4 00 00
	00 00		 mov	 DWORD PTR $T514190[ebp], OFFSET ??_7bad_alloc@std@@6B@
  00046	e8 00 00 00 00	 call	 __CxxThrowException@8
$LN10@Allocate@2:
$LN5@Allocate@2:

; 40   : 	}

  0004b	c9		 leave
  0004c	c3		 ret	 0
$LN9@Allocate@2:
??$_Allocate@UPowerupListInfo@@@std@@YAPAUPowerupListInfo@@IPAU1@@Z ENDP ; std::_Allocate<PowerupListInfo>
_TEXT	ENDS
PUBLIC	??G?$_Vector_const_iterator@V?$_Vector_val@UPowerupListInfo@@V?$allocator@UPowerupListInfo@@@std@@@std@@@std@@QBEHABV01@@Z ; std::_Vector_const_iterator<std::_Vector_val<PowerupListInfo,std::allocator<PowerupListInfo> > >::operator-
; Function compile flags: /Ogsp
; File c:\program files (x86)\microsoft visual studio 10.0\vc\include\vector
;	COMDAT ??G?$_Vector_const_iterator@V?$_Vector_val@UPowerupListInfo@@V?$allocator@UPowerupListInfo@@@std@@@std@@@std@@QBEHABV01@@Z
_TEXT	SEGMENT
__Right$ = 8						; size = 4
??G?$_Vector_const_iterator@V?$_Vector_val@UPowerupListInfo@@V?$allocator@UPowerupListInfo@@@std@@@std@@@std@@QBEHABV01@@Z PROC ; std::_Vector_const_iterator<std::_Vector_val<PowerupListInfo,std::allocator<PowerupListInfo> > >::operator-, COMDAT
; _this$ = ecx

; 190  : 		{	// return difference of iterators

  00000	55		 push	 ebp
  00001	8b ec		 mov	 ebp, esp

; 191  : 		_Compat(_Right);
; 192  : 		return (this->_Ptr - _Right._Ptr);

  00003	8b 01		 mov	 eax, DWORD PTR [ecx]
  00005	8b 4d 08	 mov	 ecx, DWORD PTR __Right$[ebp]
  00008	2b 01		 sub	 eax, DWORD PTR [ecx]
  0000a	6a 0c		 push	 12			; 0000000cH
  0000c	99		 cdq
  0000d	59		 pop	 ecx
  0000e	f7 f9		 idiv	 ecx

; 193  : 		}

  00010	5d		 pop	 ebp
  00011	c2 04 00	 ret	 4
??G?$_Vector_const_iterator@V?$_Vector_val@UPowerupListInfo@@V?$allocator@UPowerupListInfo@@@std@@@std@@@std@@QBEHABV01@@Z ENDP ; std::_Vector_const_iterator<std::_Vector_val<PowerupListInfo,std::allocator<PowerupListInfo> > >::operator-
_TEXT	ENDS
PUBLIC	??$forward@AAUPowerupListInfo@@@std@@YAAAUPowerupListInfo@@AAU1@@Z ; std::forward<PowerupListInfo &>
; Function compile flags: /Ogsp
; File c:\program files (x86)\microsoft visual studio 10.0\vc\include\utility
;	COMDAT ??$forward@AAUPowerupListInfo@@@std@@YAAAUPowerupListInfo@@AAU1@@Z
_TEXT	SEGMENT
__Arg$ = 8						; size = 4
??$forward@AAUPowerupListInfo@@@std@@YAAAUPowerupListInfo@@AAU1@@Z PROC ; std::forward<PowerupListInfo &>, COMDAT

; 78   : 	{	// forward _Arg, given explicitly specified type parameter

  00000	55		 push	 ebp
  00001	8b ec		 mov	 ebp, esp

; 79   : 	return ((_Ty&&)_Arg);

  00003	8b 45 08	 mov	 eax, DWORD PTR __Arg$[ebp]

; 80   : 	}

  00006	5d		 pop	 ebp
  00007	c3		 ret	 0
??$forward@AAUPowerupListInfo@@@std@@YAAAUPowerupListInfo@@AAU1@@Z ENDP ; std::forward<PowerupListInfo &>
_TEXT	ENDS
PUBLIC	??$construct@AAUPowerupListInfo@@@?$allocator@UPowerupListInfo@@@std@@QAEXPAUPowerupListInfo@@AAU2@@Z ; std::allocator<PowerupListInfo>::construct<PowerupListInfo &>
; Function compile flags: /Ogsp
; File c:\program files (x86)\microsoft visual studio 10.0\vc\include\xmemory
;	COMDAT ??$construct@AAUPowerupListInfo@@@?$allocator@UPowerupListInfo@@@std@@QAEXPAUPowerupListInfo@@AAU2@@Z
_TEXT	SEGMENT
__Ptr$ = 8						; size = 4
__Val$ = 12						; size = 4
??$construct@AAUPowerupListInfo@@@?$allocator@UPowerupListInfo@@@std@@QAEXPAUPowerupListInfo@@AAU2@@Z PROC ; std::allocator<PowerupListInfo>::construct<PowerupListInfo &>, COMDAT
; _this$ = ecx

; 206  : 		void construct(pointer _Ptr, _Other&& _Val)

  00000	55		 push	 ebp
  00001	8b ec		 mov	 ebp, esp
  00003	57		 push	 edi

; 207  : 		{	// construct object at _Ptr with value _Val
; 208  : 		::new ((void _FARQ *)_Ptr) _Ty(_STD forward<_Other>(_Val));

  00004	8b 7d 08	 mov	 edi, DWORD PTR __Ptr$[ebp]
  00007	85 ff		 test	 edi, edi
  00009	74 08		 je	 SHORT $LN3@construct
  0000b	56		 push	 esi
  0000c	8b 75 0c	 mov	 esi, DWORD PTR __Val$[ebp]
  0000f	a5		 movsd
  00010	a5		 movsd
  00011	a5		 movsd
  00012	5e		 pop	 esi
$LN3@construct:
  00013	5f		 pop	 edi

; 209  : 		}

  00014	5d		 pop	 ebp
  00015	c2 08 00	 ret	 8
??$construct@AAUPowerupListInfo@@@?$allocator@UPowerupListInfo@@@std@@QAEXPAUPowerupListInfo@@AAU2@@Z ENDP ; std::allocator<PowerupListInfo>::construct<PowerupListInfo &>
_TEXT	ENDS
PUBLIC	??$forward@ABUPowerupListInfo@@@std@@YAABUPowerupListInfo@@ABU1@@Z ; std::forward<PowerupListInfo const &>
; Function compile flags: /Ogsp
; File c:\program files (x86)\microsoft visual studio 10.0\vc\include\utility
;	COMDAT ??$forward@ABUPowerupListInfo@@@std@@YAABUPowerupListInfo@@ABU1@@Z
_TEXT	SEGMENT
__Arg$ = 8						; size = 4
??$forward@ABUPowerupListInfo@@@std@@YAABUPowerupListInfo@@ABU1@@Z PROC ; std::forward<PowerupListInfo const &>, COMDAT

; 78   : 	{	// forward _Arg, given explicitly specified type parameter

  00000	55		 push	 ebp
  00001	8b ec		 mov	 ebp, esp

; 79   : 	return ((_Ty&&)_Arg);

  00003	8b 45 08	 mov	 eax, DWORD PTR __Arg$[ebp]

; 80   : 	}

  00006	5d		 pop	 ebp
  00007	c3		 ret	 0
??$forward@ABUPowerupListInfo@@@std@@YAABUPowerupListInfo@@ABU1@@Z ENDP ; std::forward<PowerupListInfo const &>
_TEXT	ENDS
PUBLIC	??$_Ptr_cat@UEXTRAITEMSLOT@@U1@@std@@YA?AU_Nonscalar_ptr_iterator_tag@0@PAUEXTRAITEMSLOT@@0@Z ; std::_Ptr_cat<EXTRAITEMSLOT,EXTRAITEMSLOT>
; Function compile flags: /Ogsp
; File c:\program files (x86)\microsoft visual studio 10.0\vc\include\xutility
;	COMDAT ??$_Ptr_cat@UEXTRAITEMSLOT@@U1@@std@@YA?AU_Nonscalar_ptr_iterator_tag@0@PAUEXTRAITEMSLOT@@0@Z
_TEXT	SEGMENT
__Cat$ = -1						; size = 1
___formal$ = 8						; size = 4
___formal$ = 12						; size = 4
??$_Ptr_cat@UEXTRAITEMSLOT@@U1@@std@@YA?AU_Nonscalar_ptr_iterator_tag@0@PAUEXTRAITEMSLOT@@0@Z PROC ; std::_Ptr_cat<EXTRAITEMSLOT,EXTRAITEMSLOT>, COMDAT

; 516  : 	{	// return pointer category from pointers

  00000	55		 push	 ebp
  00001	8b ec		 mov	 ebp, esp
  00003	51		 push	 ecx

; 517  : 	typename _Ptr_cat_helper<_Elem1, _Elem2>::_Type _Cat;
; 518  : 	return (_Cat);

  00004	8a 45 ff	 mov	 al, BYTE PTR __Cat$[ebp]

; 519  : 	}

  00007	c9		 leave
  00008	c3		 ret	 0
??$_Ptr_cat@UEXTRAITEMSLOT@@U1@@std@@YA?AU_Nonscalar_ptr_iterator_tag@0@PAUEXTRAITEMSLOT@@0@Z ENDP ; std::_Ptr_cat<EXTRAITEMSLOT,EXTRAITEMSLOT>
_TEXT	ENDS
PUBLIC	??$_Ptr_cat@UPowerupListInfo@@U1@@std@@YA?AU_Nonscalar_ptr_iterator_tag@0@PAUPowerupListInfo@@0@Z ; std::_Ptr_cat<PowerupListInfo,PowerupListInfo>
; Function compile flags: /Ogsp
;	COMDAT ??$_Ptr_cat@UPowerupListInfo@@U1@@std@@YA?AU_Nonscalar_ptr_iterator_tag@0@PAUPowerupListInfo@@0@Z
_TEXT	SEGMENT
__Cat$ = -1						; size = 1
___formal$ = 8						; size = 4
___formal$ = 12						; size = 4
??$_Ptr_cat@UPowerupListInfo@@U1@@std@@YA?AU_Nonscalar_ptr_iterator_tag@0@PAUPowerupListInfo@@0@Z PROC ; std::_Ptr_cat<PowerupListInfo,PowerupListInfo>, COMDAT

; 516  : 	{	// return pointer category from pointers

  00000	55		 push	 ebp
  00001	8b ec		 mov	 ebp, esp
  00003	51		 push	 ecx

; 517  : 	typename _Ptr_cat_helper<_Elem1, _Elem2>::_Type _Cat;
; 518  : 	return (_Cat);

  00004	8a 45 ff	 mov	 al, BYTE PTR __Cat$[ebp]

; 519  : 	}

  00007	c9		 leave
  00008	c3		 ret	 0
??$_Ptr_cat@UPowerupListInfo@@U1@@std@@YA?AU_Nonscalar_ptr_iterator_tag@0@PAUPowerupListInfo@@0@Z ENDP ; std::_Ptr_cat<PowerupListInfo,PowerupListInfo>
_TEXT	ENDS
PUBLIC	??$_Construct@UPowerupListInfo@@ABU1@@std@@YAXPAUPowerupListInfo@@ABU1@@Z ; std::_Construct<PowerupListInfo,PowerupListInfo const &>
; Function compile flags: /Ogsp
; File c:\program files (x86)\microsoft visual studio 10.0\vc\include\xmemory
;	COMDAT ??$_Construct@UPowerupListInfo@@ABU1@@std@@YAXPAUPowerupListInfo@@ABU1@@Z
_TEXT	SEGMENT
__Ptr$ = 8						; size = 4
__Val$ = 12						; size = 4
??$_Construct@UPowerupListInfo@@ABU1@@std@@YAXPAUPowerupListInfo@@ABU1@@Z PROC ; std::_Construct<PowerupListInfo,PowerupListInfo const &>, COMDAT

; 46   : 	{	// construct object at _Ptr with value _Val

  00000	55		 push	 ebp
  00001	8b ec		 mov	 ebp, esp
  00003	57		 push	 edi

; 47   : 	void _FARQ *_Vptr = _Ptr;
; 48   : 	::new (_Vptr) _Ty1(_STD forward<_Ty2>(_Val));

  00004	8b 7d 08	 mov	 edi, DWORD PTR __Ptr$[ebp]
  00007	85 ff		 test	 edi, edi
  00009	74 08		 je	 SHORT $LN3@Construct
  0000b	56		 push	 esi
  0000c	8b 75 0c	 mov	 esi, DWORD PTR __Val$[ebp]
  0000f	a5		 movsd
  00010	a5		 movsd
  00011	a5		 movsd
  00012	5e		 pop	 esi
$LN3@Construct:
  00013	5f		 pop	 edi

; 49   : 	}

  00014	5d		 pop	 ebp
  00015	c3		 ret	 0
??$_Construct@UPowerupListInfo@@ABU1@@std@@YAXPAUPowerupListInfo@@ABU1@@Z ENDP ; std::_Construct<PowerupListInfo,PowerupListInfo const &>
_TEXT	ENDS
PUBLIC	??4EXTRAITEMSLOT@@QAEAAU0@ABU0@@Z		; EXTRAITEMSLOT::operator=
EXTRN	__imp_??4ioHashString@@QAEAAV0@ABV0@@Z:PROC
; Function compile flags: /Ogsp
;	COMDAT ??4EXTRAITEMSLOT@@QAEAAU0@ABU0@@Z
_TEXT	SEGMENT
___that$ = 8						; size = 4
??4EXTRAITEMSLOT@@QAEAAU0@ABU0@@Z PROC			; EXTRAITEMSLOT::operator=, COMDAT
; _this$ = ecx
  00000	55		 push	 ebp
  00001	8b ec		 mov	 ebp, esp
  00003	53		 push	 ebx
  00004	56		 push	 esi
  00005	8b f1		 mov	 esi, ecx
  00007	57		 push	 edi
  00008	8b 7d 08	 mov	 edi, DWORD PTR ___that$[ebp]
  0000b	8b 07		 mov	 eax, DWORD PTR [edi]
  0000d	89 06		 mov	 DWORD PTR [esi], eax
  0000f	8b 47 04	 mov	 eax, DWORD PTR [edi+4]
  00012	89 46 04	 mov	 DWORD PTR [esi+4], eax
  00015	8b 47 08	 mov	 eax, DWORD PTR [edi+8]
  00018	89 46 08	 mov	 DWORD PTR [esi+8], eax
  0001b	8b 47 0c	 mov	 eax, DWORD PTR [edi+12]
  0001e	89 46 0c	 mov	 DWORD PTR [esi+12], eax
  00021	8b 47 10	 mov	 eax, DWORD PTR [edi+16]
  00024	8b 1d 00 00 00
	00		 mov	 ebx, DWORD PTR __imp_??4ioHashString@@QAEAAV0@ABV0@@Z
  0002a	89 46 10	 mov	 DWORD PTR [esi+16], eax
  0002d	8b 47 14	 mov	 eax, DWORD PTR [edi+20]
  00030	89 46 14	 mov	 DWORD PTR [esi+20], eax
  00033	8b 47 18	 mov	 eax, DWORD PTR [edi+24]
  00036	89 46 18	 mov	 DWORD PTR [esi+24], eax
  00039	8b 47 1c	 mov	 eax, DWORD PTR [edi+28]
  0003c	89 46 1c	 mov	 DWORD PTR [esi+28], eax
  0003f	8b 47 20	 mov	 eax, DWORD PTR [edi+32]
  00042	89 46 20	 mov	 DWORD PTR [esi+32], eax
  00045	66 8b 47 24	 mov	 ax, WORD PTR [edi+36]
  00049	66 89 46 24	 mov	 WORD PTR [esi+36], ax
  0004d	8a 47 26	 mov	 al, BYTE PTR [edi+38]
  00050	88 46 26	 mov	 BYTE PTR [esi+38], al
  00053	8d 47 28	 lea	 eax, DWORD PTR [edi+40]
  00056	50		 push	 eax
  00057	8d 4e 28	 lea	 ecx, DWORD PTR [esi+40]
  0005a	ff d3		 call	 ebx
  0005c	83 c7 38	 add	 edi, 56			; 00000038H
  0005f	57		 push	 edi
  00060	8d 4e 38	 lea	 ecx, DWORD PTR [esi+56]
  00063	ff d3		 call	 ebx
  00065	5f		 pop	 edi
  00066	8b c6		 mov	 eax, esi
  00068	5e		 pop	 esi
  00069	5b		 pop	 ebx
  0006a	5d		 pop	 ebp
  0006b	c2 04 00	 ret	 4
??4EXTRAITEMSLOT@@QAEAAU0@ABU0@@Z ENDP			; EXTRAITEMSLOT::operator=
_TEXT	ENDS
PUBLIC	?_Unchecked@?$_Vector_iterator@V?$_Vector_val@UPowerupListInfo@@V?$allocator@UPowerupListInfo@@@std@@@std@@@std@@QBEPAUPowerupListInfo@@XZ ; std::_Vector_iterator<std::_Vector_val<PowerupListInfo,std::allocator<PowerupListInfo> > >::_Unchecked
; Function compile flags: /Ogsp
; File c:\program files (x86)\microsoft visual studio 10.0\vc\include\vector
;	COMDAT ?_Unchecked@?$_Vector_iterator@V?$_Vector_val@UPowerupListInfo@@V?$allocator@UPowerupListInfo@@@std@@@std@@@std@@QBEPAUPowerupListInfo@@XZ
_TEXT	SEGMENT
?_Unchecked@?$_Vector_iterator@V?$_Vector_val@UPowerupListInfo@@V?$allocator@UPowerupListInfo@@@std@@@std@@@std@@QBEPAUPowerupListInfo@@XZ PROC ; std::_Vector_iterator<std::_Vector_val<PowerupListInfo,std::allocator<PowerupListInfo> > >::_Unchecked, COMDAT
; _this$ = ecx

; 317  : 		return (_Unchecked_type(this->_Ptr));

  00000	8b 01		 mov	 eax, DWORD PTR [ecx]

; 318  : 		}

  00002	c3		 ret	 0
?_Unchecked@?$_Vector_iterator@V?$_Vector_val@UPowerupListInfo@@V?$allocator@UPowerupListInfo@@@std@@@std@@@std@@QBEPAUPowerupListInfo@@XZ ENDP ; std::_Vector_iterator<std::_Vector_val<PowerupListInfo,std::allocator<PowerupListInfo> > >::_Unchecked
_TEXT	ENDS
PUBLIC	??$_Ptr_cat@V?$_Vector_const_iterator@V?$_Vector_val@HV?$allocator@H@std@@@std@@@std@@PAH@std@@YA?AU_Nonscalar_ptr_iterator_tag@0@AAV?$_Vector_const_iterator@V?$_Vector_val@HV?$allocator@H@std@@@std@@@0@AAPAH@Z ; std::_Ptr_cat<std::_Vector_const_iterator<std::_Vector_val<int,std::allocator<int> > >,int *>
; Function compile flags: /Ogsp
; File c:\program files (x86)\microsoft visual studio 10.0\vc\include\xutility
;	COMDAT ??$_Ptr_cat@V?$_Vector_const_iterator@V?$_Vector_val@HV?$allocator@H@std@@@std@@@std@@PAH@std@@YA?AU_Nonscalar_ptr_iterator_tag@0@AAV?$_Vector_const_iterator@V?$_Vector_val@HV?$allocator@H@std@@@std@@@0@AAPAH@Z
_TEXT	SEGMENT
__Cat$ = -1						; size = 1
___formal$ = 8						; size = 4
___formal$ = 12						; size = 4
??$_Ptr_cat@V?$_Vector_const_iterator@V?$_Vector_val@HV?$allocator@H@std@@@std@@@std@@PAH@std@@YA?AU_Nonscalar_ptr_iterator_tag@0@AAV?$_Vector_const_iterator@V?$_Vector_val@HV?$allocator@H@std@@@std@@@0@AAPAH@Z PROC ; std::_Ptr_cat<std::_Vector_const_iterator<std::_Vector_val<int,std::allocator<int> > >,int *>, COMDAT

; 485  : 	{	// return pointer category from arbitrary arguments

  00000	55		 push	 ebp
  00001	8b ec		 mov	 ebp, esp
  00003	51		 push	 ecx

; 486  : 	_Nonscalar_ptr_iterator_tag _Cat;
; 487  : 	return (_Cat);

  00004	8a 45 ff	 mov	 al, BYTE PTR __Cat$[ebp]

; 488  : 	}

  00007	c9		 leave
  00008	c3		 ret	 0
??$_Ptr_cat@V?$_Vector_const_iterator@V?$_Vector_val@HV?$allocator@H@std@@@std@@@std@@PAH@std@@YA?AU_Nonscalar_ptr_iterator_tag@0@AAV?$_Vector_const_iterator@V?$_Vector_val@HV?$allocator@H@std@@@std@@@0@AAPAH@Z ENDP ; std::_Ptr_cat<std::_Vector_const_iterator<std::_Vector_val<int,std::allocator<int> > >,int *>
_TEXT	ENDS
PUBLIC	??$move@AAUEXTRAITEMSLOT@@@std@@YA$$QAUEXTRAITEMSLOT@@AAU1@@Z ; std::move<EXTRAITEMSLOT &>
; Function compile flags: /Ogsp
; File c:\program files (x86)\microsoft visual studio 10.0\vc\include\utility
;	COMDAT ??$move@AAUEXTRAITEMSLOT@@@std@@YA$$QAUEXTRAITEMSLOT@@AAU1@@Z
_TEXT	SEGMENT
__Arg$ = 8						; size = 4
??$move@AAUEXTRAITEMSLOT@@@std@@YA$$QAUEXTRAITEMSLOT@@AAU1@@Z PROC ; std::move<EXTRAITEMSLOT &>, COMDAT

; 86   : 	{	// forward _Arg as movable

  00000	55		 push	 ebp
  00001	8b ec		 mov	 ebp, esp

; 87   : 	return ((typename tr1::_Remove_reference<_Ty>::_Type&&)_Arg);

  00003	8b 45 08	 mov	 eax, DWORD PTR __Arg$[ebp]

; 88   : 	}

  00006	5d		 pop	 ebp
  00007	c3		 ret	 0
??$move@AAUEXTRAITEMSLOT@@@std@@YA$$QAUEXTRAITEMSLOT@@AAU1@@Z ENDP ; std::move<EXTRAITEMSLOT &>
_TEXT	ENDS
PUBLIC	??$move@AAUPowerupListInfo@@@std@@YA$$QAUPowerupListInfo@@AAU1@@Z ; std::move<PowerupListInfo &>
; Function compile flags: /Ogsp
;	COMDAT ??$move@AAUPowerupListInfo@@@std@@YA$$QAUPowerupListInfo@@AAU1@@Z
_TEXT	SEGMENT
__Arg$ = 8						; size = 4
??$move@AAUPowerupListInfo@@@std@@YA$$QAUPowerupListInfo@@AAU1@@Z PROC ; std::move<PowerupListInfo &>, COMDAT

; 86   : 	{	// forward _Arg as movable

  00000	55		 push	 ebp
  00001	8b ec		 mov	 ebp, esp

; 87   : 	return ((typename tr1::_Remove_reference<_Ty>::_Type&&)_Arg);

  00003	8b 45 08	 mov	 eax, DWORD PTR __Arg$[ebp]

; 88   : 	}

  00006	5d		 pop	 ebp
  00007	c3		 ret	 0
??$move@AAUPowerupListInfo@@@std@@YA$$QAUPowerupListInfo@@AAU1@@Z ENDP ; std::move<PowerupListInfo &>
_TEXT	ENDS
PUBLIC	??$_Val_type@PAUPowerupListInfo@@@std@@YAPAUPowerupListInfo@@PAU1@@Z ; std::_Val_type<PowerupListInfo *>
; Function compile flags: /Ogsp
; File c:\program files (x86)\microsoft visual studio 10.0\vc\include\xutility
;	COMDAT ??$_Val_type@PAUPowerupListInfo@@@std@@YAPAUPowerupListInfo@@PAU1@@Z
_TEXT	SEGMENT
___formal$ = 8						; size = 4
??$_Val_type@PAUPowerupListInfo@@@std@@YAPAUPowerupListInfo@@PAU1@@Z PROC ; std::_Val_type<PowerupListInfo *>, COMDAT

; 790  : 	return (0);

  00000	33 c0		 xor	 eax, eax

; 791  : 	}

  00002	c3		 ret	 0
??$_Val_type@PAUPowerupListInfo@@@std@@YAPAUPowerupListInfo@@PAU1@@Z ENDP ; std::_Val_type<PowerupListInfo *>
_TEXT	ENDS
PUBLIC	??D?$_Vector_const_iterator@V?$_Vector_val@HV?$allocator@H@std@@@std@@@std@@QBEABHXZ ; std::_Vector_const_iterator<std::_Vector_val<int,std::allocator<int> > >::operator*
; Function compile flags: /Ogsp
; File c:\program files (x86)\microsoft visual studio 10.0\vc\include\vector
;	COMDAT ??D?$_Vector_const_iterator@V?$_Vector_val@HV?$allocator@H@std@@@std@@@std@@QBEABHXZ
_TEXT	SEGMENT
??D?$_Vector_const_iterator@V?$_Vector_val@HV?$allocator@H@std@@@std@@@std@@QBEABHXZ PROC ; std::_Vector_const_iterator<std::_Vector_val<int,std::allocator<int> > >::operator*, COMDAT
; _this$ = ecx

; 64   :  #if _ITERATOR_DEBUG_LEVEL == 2
; 65   : 		if (this->_Getcont() == 0
; 66   : 			|| this->_Ptr == 0
; 67   : 			|| this->_Ptr < ((_Myvec *)this->_Getcont())->_Myfirst
; 68   : 			|| ((_Myvec *)this->_Getcont())->_Mylast <= this->_Ptr)
; 69   : 			{	// report error
; 70   : 			_DEBUG_ERROR("vector iterator not dereferencable");
; 71   : 			_SCL_SECURE_OUT_OF_RANGE;
; 72   : 			}
; 73   : 
; 74   :  #elif _ITERATOR_DEBUG_LEVEL == 1
; 75   : 		_SCL_SECURE_VALIDATE(this->_Getcont() != 0);
; 76   : 		_SCL_SECURE_VALIDATE_RANGE(
; 77   : 			this->_Ptr != 0
; 78   : 			&& ((_Myvec *)this->_Getcont())->_Myfirst <= this->_Ptr
; 79   : 			&& this->_Ptr < ((_Myvec *)this->_Getcont())->_Mylast);
; 80   :  #endif /* _ITERATOR_DEBUG_LEVEL */
; 81   : 
; 82   : 		__analysis_assume(this->_Ptr != 0);
; 83   : 
; 84   : 		return (*this->_Ptr);

  00000	8b 01		 mov	 eax, DWORD PTR [ecx]

; 85   : 		}

  00002	c3		 ret	 0
??D?$_Vector_const_iterator@V?$_Vector_val@HV?$allocator@H@std@@@std@@@std@@QBEABHXZ ENDP ; std::_Vector_const_iterator<std::_Vector_val<int,std::allocator<int> > >::operator*
_TEXT	ENDS
PUBLIC	??E?$_Vector_const_iterator@V?$_Vector_val@HV?$allocator@H@std@@@std@@@std@@QAEAAV01@XZ ; std::_Vector_const_iterator<std::_Vector_val<int,std::allocator<int> > >::operator++
; Function compile flags: /Ogsp
;	COMDAT ??E?$_Vector_const_iterator@V?$_Vector_val@HV?$allocator@H@std@@@std@@@std@@QAEAAV01@XZ
_TEXT	SEGMENT
??E?$_Vector_const_iterator@V?$_Vector_val@HV?$allocator@H@std@@@std@@@std@@QAEAAV01@XZ PROC ; std::_Vector_const_iterator<std::_Vector_val<int,std::allocator<int> > >::operator++, COMDAT
; _this$ = ecx

; 93   : 		{	// preincrement

  00000	8b c1		 mov	 eax, ecx

; 94   :  #if _ITERATOR_DEBUG_LEVEL == 2
; 95   : 		if (this->_Getcont() == 0
; 96   : 			|| this->_Ptr == 0
; 97   : 			|| ((_Myvec *)this->_Getcont())->_Mylast <= this->_Ptr)
; 98   : 			{	// report error
; 99   : 			_DEBUG_ERROR("vector iterator not incrementable");
; 100  : 			_SCL_SECURE_OUT_OF_RANGE;
; 101  : 			}
; 102  : 
; 103  :  #elif _ITERATOR_DEBUG_LEVEL == 1
; 104  : 		_SCL_SECURE_VALIDATE(this->_Getcont() != 0);
; 105  : 		_SCL_SECURE_VALIDATE_RANGE(
; 106  : 			this->_Ptr != 0
; 107  : 			&& this->_Ptr < ((_Myvec *)this->_Getcont())->_Mylast);
; 108  :  #endif /* _ITERATOR_DEBUG_LEVEL */
; 109  : 
; 110  : 		++this->_Ptr;

  00002	83 00 04	 add	 DWORD PTR [eax], 4

; 111  : 		return (*this);
; 112  : 		}

  00005	c3		 ret	 0
??E?$_Vector_const_iterator@V?$_Vector_val@HV?$allocator@H@std@@@std@@@std@@QAEAAV01@XZ ENDP ; std::_Vector_const_iterator<std::_Vector_val<int,std::allocator<int> > >::operator++
_TEXT	ENDS
PUBLIC	??$_Unchecked@PAUPowerupListInfo@@@std@@YAPAUPowerupListInfo@@PAU1@@Z ; std::_Unchecked<PowerupListInfo *>
; Function compile flags: /Ogsp
; File c:\program files (x86)\microsoft visual studio 10.0\vc\include\xutility
;	COMDAT ??$_Unchecked@PAUPowerupListInfo@@@std@@YAPAUPowerupListInfo@@PAU1@@Z
_TEXT	SEGMENT
__Src$ = 8						; size = 4
??$_Unchecked@PAUPowerupListInfo@@@std@@YAPAUPowerupListInfo@@PAU1@@Z PROC ; std::_Unchecked<PowerupListInfo *>, COMDAT

; 266  : 	{	// construct unchecked from checked, generic

  00000	55		 push	 ebp
  00001	8b ec		 mov	 ebp, esp

; 267  : 	return (_Src);

  00003	8b 45 08	 mov	 eax, DWORD PTR __Src$[ebp]

; 268  : 	}

  00006	5d		 pop	 ebp
  00007	c3		 ret	 0
??$_Unchecked@PAUPowerupListInfo@@@std@@YAPAUPowerupListInfo@@PAU1@@Z ENDP ; std::_Unchecked<PowerupListInfo *>
_TEXT	ENDS
PUBLIC	??$_Dist_type@PAUPowerupListInfo@@@std@@YAPAHPAUPowerupListInfo@@@Z ; std::_Dist_type<PowerupListInfo *>
; Function compile flags: /Ogsp
;	COMDAT ??$_Dist_type@PAUPowerupListInfo@@@std@@YAPAHPAUPowerupListInfo@@@Z
_TEXT	SEGMENT
___formal$ = 8						; size = 4
??$_Dist_type@PAUPowerupListInfo@@@std@@YAPAHPAUPowerupListInfo@@@Z PROC ; std::_Dist_type<PowerupListInfo *>, COMDAT

; 850  : 	return (0);

  00000	33 c0		 xor	 eax, eax

; 851  : 	}

  00002	c3		 ret	 0
??$_Dist_type@PAUPowerupListInfo@@@std@@YAPAHPAUPowerupListInfo@@@Z ENDP ; std::_Dist_type<PowerupListInfo *>
_TEXT	ENDS
PUBLIC	??$_Destroy@UPowerupListInfo@@@std@@YAXPAUPowerupListInfo@@@Z ; std::_Destroy<PowerupListInfo>
; Function compile flags: /Ogsp
; File c:\program files (x86)\microsoft visual studio 10.0\vc\include\xmemory
;	COMDAT ??$_Destroy@UPowerupListInfo@@@std@@YAXPAUPowerupListInfo@@@Z
_TEXT	SEGMENT
__Ptr$ = 8						; size = 4
??$_Destroy@UPowerupListInfo@@@std@@YAXPAUPowerupListInfo@@@Z PROC ; std::_Destroy<PowerupListInfo>, COMDAT

; 63   : 	_Ptr->~_Ty();
; 64   : 	}

  00000	c3		 ret	 0
??$_Destroy@UPowerupListInfo@@@std@@YAXPAUPowerupListInfo@@@Z ENDP ; std::_Destroy<PowerupListInfo>
_TEXT	ENDS
PUBLIC	??_GEXTRAITEMSLOT@@QAEPAXI@Z			; EXTRAITEMSLOT::`scalar deleting destructor'
; Function compile flags: /Ogsp
;	COMDAT ??_GEXTRAITEMSLOT@@QAEPAXI@Z
_TEXT	SEGMENT
___flags$ = 8						; size = 4
??_GEXTRAITEMSLOT@@QAEPAXI@Z PROC			; EXTRAITEMSLOT::`scalar deleting destructor', COMDAT
; _this$ = ecx
  00000	55		 push	 ebp
  00001	8b ec		 mov	 ebp, esp
  00003	56		 push	 esi
  00004	8b f1		 mov	 esi, ecx
  00006	e8 00 00 00 00	 call	 ??1EXTRAITEMSLOT@@QAE@XZ
  0000b	f6 45 08 01	 test	 BYTE PTR ___flags$[ebp], 1
  0000f	74 07		 je	 SHORT $LN1@scalar@2
  00011	56		 push	 esi
  00012	e8 00 00 00 00	 call	 ??3@YAXPAX@Z		; operator delete
  00017	59		 pop	 ecx
$LN1@scalar@2:
  00018	8b c6		 mov	 eax, esi
  0001a	5e		 pop	 esi
  0001b	5d		 pop	 ebp
  0001c	c2 04 00	 ret	 4
??_GEXTRAITEMSLOT@@QAEPAXI@Z ENDP			; EXTRAITEMSLOT::`scalar deleting destructor'
_TEXT	ENDS
PUBLIC	??$forward@AAPAUPowerupListInfo@@@std@@YAAAPAUPowerupListInfo@@AAPAU1@@Z ; std::forward<PowerupListInfo * &>
; Function compile flags: /Ogsp
; File c:\program files (x86)\microsoft visual studio 10.0\vc\include\utility
;	COMDAT ??$forward@AAPAUPowerupListInfo@@@std@@YAAAPAUPowerupListInfo@@AAPAU1@@Z
_TEXT	SEGMENT
__Arg$ = 8						; size = 4
??$forward@AAPAUPowerupListInfo@@@std@@YAAAPAUPowerupListInfo@@AAPAU1@@Z PROC ; std::forward<PowerupListInfo * &>, COMDAT

; 78   : 	{	// forward _Arg, given explicitly specified type parameter

  00000	55		 push	 ebp
  00001	8b ec		 mov	 ebp, esp

; 79   : 	return ((_Ty&&)_Arg);

  00003	8b 45 08	 mov	 eax, DWORD PTR __Arg$[ebp]

; 80   : 	}

  00006	5d		 pop	 ebp
  00007	c3		 ret	 0
??$forward@AAPAUPowerupListInfo@@@std@@YAAAPAUPowerupListInfo@@AAPAU1@@Z ENDP ; std::forward<PowerupListInfo * &>
_TEXT	ENDS
PUBLIC	??$?0AAPAUPowerupListInfo@@AAPAU0@@?$_Pair_base@PAUPowerupListInfo@@PAU1@@std@@QAE@AAPAUPowerupListInfo@@0@Z ; std::_Pair_base<PowerupListInfo *,PowerupListInfo *>::_Pair_base<PowerupListInfo *,PowerupListInfo *><PowerupListInfo * &,PowerupListInfo * &>
; Function compile flags: /Ogsp
;	COMDAT ??$?0AAPAUPowerupListInfo@@AAPAU0@@?$_Pair_base@PAUPowerupListInfo@@PAU1@@std@@QAE@AAPAUPowerupListInfo@@0@Z
_TEXT	SEGMENT
__Val1$ = 8						; size = 4
__Val2$ = 12						; size = 4
??$?0AAPAUPowerupListInfo@@AAPAU0@@?$_Pair_base@PAUPowerupListInfo@@PAU1@@std@@QAE@AAPAUPowerupListInfo@@0@Z PROC ; std::_Pair_base<PowerupListInfo *,PowerupListInfo *>::_Pair_base<PowerupListInfo *,PowerupListInfo *><PowerupListInfo * &,PowerupListInfo * &>, COMDAT
; _this$ = ecx

; 163  : 		{	// construct from moved values

  00000	55		 push	 ebp
  00001	8b ec		 mov	 ebp, esp
  00003	8b c1		 mov	 eax, ecx
  00005	8b 4d 08	 mov	 ecx, DWORD PTR __Val1$[ebp]
  00008	8b 09		 mov	 ecx, DWORD PTR [ecx]
  0000a	89 08		 mov	 DWORD PTR [eax], ecx
  0000c	8b 4d 0c	 mov	 ecx, DWORD PTR __Val2$[ebp]
  0000f	8b 09		 mov	 ecx, DWORD PTR [ecx]
  00011	89 48 04	 mov	 DWORD PTR [eax+4], ecx

; 164  : 		}

  00014	5d		 pop	 ebp
  00015	c2 08 00	 ret	 8
??$?0AAPAUPowerupListInfo@@AAPAU0@@?$_Pair_base@PAUPowerupListInfo@@PAU1@@std@@QAE@AAPAUPowerupListInfo@@0@Z ENDP ; std::_Pair_base<PowerupListInfo *,PowerupListInfo *>::_Pair_base<PowerupListInfo *,PowerupListInfo *><PowerupListInfo * &,PowerupListInfo * &>
_TEXT	ENDS
PUBLIC	??$_Move@AAUPowerupListInfo@@@std@@YA$$QAUPowerupListInfo@@AAU1@@Z ; std::_Move<PowerupListInfo &>
; Function compile flags: /Ogsp
;	COMDAT ??$_Move@AAUPowerupListInfo@@@std@@YA$$QAUPowerupListInfo@@AAU1@@Z
_TEXT	SEGMENT
__Arg$ = 8						; size = 4
??$_Move@AAUPowerupListInfo@@@std@@YA$$QAUPowerupListInfo@@AAU1@@Z PROC ; std::_Move<PowerupListInfo &>, COMDAT

; 94   : 	{	// forward _Arg as movable

  00000	55		 push	 ebp
  00001	8b ec		 mov	 ebp, esp

; 95   : 	return ((typename tr1::_Remove_reference<_Ty>::_Type&&)_Arg);

  00003	8b 45 08	 mov	 eax, DWORD PTR __Arg$[ebp]

; 96   : 	}

  00006	5d		 pop	 ebp
  00007	c3		 ret	 0
??$_Move@AAUPowerupListInfo@@@std@@YA$$QAUPowerupListInfo@@AAU1@@Z ENDP ; std::_Move<PowerupListInfo &>
_TEXT	ENDS
PUBLIC	??$forward@AAV?$basic_string@DU?$char_traits@D@std@@V?$allocator@D@2@@std@@@std@@YAAAV?$basic_string@DU?$char_traits@D@std@@V?$allocator@D@2@@0@AAV10@@Z ; std::forward<std::basic_string<char,std::char_traits<char>,std::allocator<char> > &>
; Function compile flags: /Ogsp
;	COMDAT ??$forward@AAV?$basic_string@DU?$char_traits@D@std@@V?$allocator@D@2@@std@@@std@@YAAAV?$basic_string@DU?$char_traits@D@std@@V?$allocator@D@2@@0@AAV10@@Z
_TEXT	SEGMENT
__Arg$ = 8						; size = 4
??$forward@AAV?$basic_string@DU?$char_traits@D@std@@V?$allocator@D@2@@std@@@std@@YAAAV?$basic_string@DU?$char_traits@D@std@@V?$allocator@D@2@@0@AAV10@@Z PROC ; std::forward<std::basic_string<char,std::char_traits<char>,std::allocator<char> > &>, COMDAT

; 78   : 	{	// forward _Arg, given explicitly specified type parameter

  00000	55		 push	 ebp
  00001	8b ec		 mov	 ebp, esp

; 79   : 	return ((_Ty&&)_Arg);

  00003	8b 45 08	 mov	 eax, DWORD PTR __Arg$[ebp]

; 80   : 	}

  00006	5d		 pop	 ebp
  00007	c3		 ret	 0
??$forward@AAV?$basic_string@DU?$char_traits@D@std@@V?$allocator@D@2@@std@@@std@@YAAAV?$basic_string@DU?$char_traits@D@std@@V?$allocator@D@2@@0@AAV10@@Z ENDP ; std::forward<std::basic_string<char,std::char_traits<char>,std::allocator<char> > &>
_TEXT	ENDS
PUBLIC	??$forward@ABH@std@@YAABHABH@Z			; std::forward<int const &>
; Function compile flags: /Ogsp
;	COMDAT ??$forward@ABH@std@@YAABHABH@Z
_TEXT	SEGMENT
__Arg$ = 8						; size = 4
??$forward@ABH@std@@YAABHABH@Z PROC			; std::forward<int const &>, COMDAT

; 78   : 	{	// forward _Arg, given explicitly specified type parameter

  00000	55		 push	 ebp
  00001	8b ec		 mov	 ebp, esp

; 79   : 	return ((_Ty&&)_Arg);

  00003	8b 45 08	 mov	 eax, DWORD PTR __Arg$[ebp]

; 80   : 	}

  00006	5d		 pop	 ebp
  00007	c3		 ret	 0
??$forward@ABH@std@@YAABHABH@Z ENDP			; std::forward<int const &>
_TEXT	ENDS
PUBLIC	??$forward@UPowerupListInfo@@@std@@YA$$QAUPowerupListInfo@@AAU1@@Z ; std::forward<PowerupListInfo>
; Function compile flags: /Ogsp
;	COMDAT ??$forward@UPowerupListInfo@@@std@@YA$$QAUPowerupListInfo@@AAU1@@Z
_TEXT	SEGMENT
__Arg$ = 8						; size = 4
??$forward@UPowerupListInfo@@@std@@YA$$QAUPowerupListInfo@@AAU1@@Z PROC ; std::forward<PowerupListInfo>, COMDAT

; 78   : 	{	// forward _Arg, given explicitly specified type parameter

  00000	55		 push	 ebp
  00001	8b ec		 mov	 ebp, esp

; 79   : 	return ((_Ty&&)_Arg);

  00003	8b 45 08	 mov	 eax, DWORD PTR __Arg$[ebp]

; 80   : 	}

  00006	5d		 pop	 ebp
  00007	c3		 ret	 0
??$forward@UPowerupListInfo@@@std@@YA$$QAUPowerupListInfo@@AAU1@@Z ENDP ; std::forward<PowerupListInfo>
_TEXT	ENDS
PUBLIC	??$_Construct@HABH@std@@YAXPAHABH@Z		; std::_Construct<int,int const &>
; Function compile flags: /Ogsp
; File c:\program files (x86)\microsoft visual studio 10.0\vc\include\xmemory
;	COMDAT ??$_Construct@HABH@std@@YAXPAHABH@Z
_TEXT	SEGMENT
__Ptr$ = 8						; size = 4
__Val$ = 12						; size = 4
??$_Construct@HABH@std@@YAXPAHABH@Z PROC		; std::_Construct<int,int const &>, COMDAT

; 46   : 	{	// construct object at _Ptr with value _Val

  00000	55		 push	 ebp
  00001	8b ec		 mov	 ebp, esp

; 47   : 	void _FARQ *_Vptr = _Ptr;
; 48   : 	::new (_Vptr) _Ty1(_STD forward<_Ty2>(_Val));

  00003	8b 45 08	 mov	 eax, DWORD PTR __Ptr$[ebp]
  00006	85 c0		 test	 eax, eax
  00008	74 07		 je	 SHORT $LN3@Construct@2
  0000a	8b 4d 0c	 mov	 ecx, DWORD PTR __Val$[ebp]
  0000d	8b 09		 mov	 ecx, DWORD PTR [ecx]
  0000f	89 08		 mov	 DWORD PTR [eax], ecx
$LN3@Construct@2:

; 49   : 	}

  00011	5d		 pop	 ebp
  00012	c3		 ret	 0
??$_Construct@HABH@std@@YAXPAHABH@Z ENDP		; std::_Construct<int,int const &>
_TEXT	ENDS
PUBLIC	??$_Destroy@H@std@@YAXPAH@Z			; std::_Destroy<int>
; Function compile flags: /Ogsp
;	COMDAT ??$_Destroy@H@std@@YAXPAH@Z
_TEXT	SEGMENT
__Ptr$ = 8						; size = 4
??$_Destroy@H@std@@YAXPAH@Z PROC			; std::_Destroy<int>, COMDAT

; 63   : 	_Ptr->~_Ty();
; 64   : 	}

  00000	c3		 ret	 0
??$_Destroy@H@std@@YAXPAH@Z ENDP			; std::_Destroy<int>
_TEXT	ENDS
PUBLIC	??$_Push_heap@PAUPowerupListInfo@@HU1@VEnablePowerupListSort@@@std@@YAXPAUPowerupListInfo@@HH$$QAU1@VEnablePowerupListSort@@@Z ; std::_Push_heap<PowerupListInfo *,int,PowerupListInfo,EnablePowerupListSort>
; Function compile flags: /Ogsp
; File c:\program files (x86)\microsoft visual studio 10.0\vc\include\algorithm
;	COMDAT ??$_Push_heap@PAUPowerupListInfo@@HU1@VEnablePowerupListSort@@@std@@YAXPAUPowerupListInfo@@HH$$QAU1@VEnablePowerupListSort@@@Z
_TEXT	SEGMENT
__First$ = 8						; size = 4
__Hole$ = 12						; size = 4
__Top$ = 16						; size = 4
__Val$ = 20						; size = 4
__Pred$ = 24						; size = 1
??$_Push_heap@PAUPowerupListInfo@@HU1@VEnablePowerupListSort@@@std@@YAXPAUPowerupListInfo@@HH$$QAU1@VEnablePowerupListSort@@@Z PROC ; std::_Push_heap<PowerupListInfo *,int,PowerupListInfo,EnablePowerupListSort>, COMDAT

; 2455 : 	{	// percolate _Hole to _Top or where _Val belongs, using operator<

  00000	55		 push	 ebp
  00001	8b ec		 mov	 ebp, esp
  00003	53		 push	 ebx

; 2456 : 	for (_Diff _Idx = (_Hole - 1) / 2;
; 2457 : 		_Top < _Hole && _DEBUG_LT_PRED(_Pred, *(_First + _Idx), _Val);
; 2458 : 		_Idx = (_Hole - 1) / 2)

  00004	8b 5d 08	 mov	 ebx, DWORD PTR __First$[ebp]
  00007	56		 push	 esi
  00008	57		 push	 edi
  00009	8b 7d 0c	 mov	 edi, DWORD PTR __Hole$[ebp]
  0000c	8d 47 ff	 lea	 eax, DWORD PTR [edi-1]
  0000f	eb 2a		 jmp	 SHORT $LN20@Push_heap
$LL3@Push_heap:
  00011	8b 55 14	 mov	 edx, DWORD PTR __Val$[ebp]
  00014	8b 52 08	 mov	 edx, DWORD PTR [edx+8]
  00017	8b f0		 mov	 esi, eax
  00019	6b f6 0c	 imul	 esi, 12			; 0000000cH
  0001c	03 f3		 add	 esi, ebx
  0001e	8b 4e 08	 mov	 ecx, DWORD PTR [esi+8]
  00021	3b ca		 cmp	 ecx, edx
  00023	7f 0b		 jg	 SHORT $LN17@Push_heap
  00025	75 1e		 jne	 SHORT $LN18@Push_heap
  00027	8b 0e		 mov	 ecx, DWORD PTR [esi]
  00029	8b 55 14	 mov	 edx, DWORD PTR __Val$[ebp]
  0002c	3b 0a		 cmp	 ecx, DWORD PTR [edx]
  0002e	7d 15		 jge	 SHORT $LN18@Push_heap
$LN17@Push_heap:

; 2459 : 		{	// move _Hole up to parent
; 2460 : 		*(_First + _Hole) = _Move(*(_First + _Idx));

  00030	6b ff 0c	 imul	 edi, 12			; 0000000cH
  00033	03 fb		 add	 edi, ebx
  00035	a5		 movsd
  00036	a5		 movsd
  00037	a5		 movsd

; 2461 : 		_Hole = _Idx;

  00038	8b f8		 mov	 edi, eax
  0003a	48		 dec	 eax
$LN20@Push_heap:

; 2456 : 	for (_Diff _Idx = (_Hole - 1) / 2;
; 2457 : 		_Top < _Hole && _DEBUG_LT_PRED(_Pred, *(_First + _Idx), _Val);
; 2458 : 		_Idx = (_Hole - 1) / 2)

  0003b	99		 cdq
  0003c	2b c2		 sub	 eax, edx
  0003e	d1 f8		 sar	 eax, 1
  00040	39 7d 10	 cmp	 DWORD PTR __Top$[ebp], edi
  00043	7c cc		 jl	 SHORT $LL3@Push_heap
$LN18@Push_heap:

; 2462 : 		}
; 2463 : 
; 2464 : 	*(_First + _Hole) = _Move(_Val);	// drop _Val into final hole

  00045	8b 75 14	 mov	 esi, DWORD PTR __Val$[ebp]
  00048	6b ff 0c	 imul	 edi, 12			; 0000000cH
  0004b	03 fb		 add	 edi, ebx
  0004d	a5		 movsd
  0004e	a5		 movsd
  0004f	a5		 movsd
  00050	5f		 pop	 edi
  00051	5e		 pop	 esi
  00052	5b		 pop	 ebx

; 2465 : 	}

  00053	5d		 pop	 ebp
  00054	c3		 ret	 0
??$_Push_heap@PAUPowerupListInfo@@HU1@VEnablePowerupListSort@@@std@@YAXPAUPowerupListInfo@@HH$$QAU1@VEnablePowerupListSort@@@Z ENDP ; std::_Push_heap<PowerupListInfo *,int,PowerupListInfo,EnablePowerupListSort>
_TEXT	ENDS
PUBLIC	??$_Move_backward@PAUPowerupListInfo@@PAU1@@std@@YAPAUPowerupListInfo@@PAU1@00U_Nonscalar_ptr_iterator_tag@0@@Z ; std::_Move_backward<PowerupListInfo *,PowerupListInfo *>
; Function compile flags: /Ogsp
; File c:\program files (x86)\microsoft visual studio 10.0\vc\include\xutility
;	COMDAT ??$_Move_backward@PAUPowerupListInfo@@PAU1@@std@@YAPAUPowerupListInfo@@PAU1@00U_Nonscalar_ptr_iterator_tag@0@@Z
_TEXT	SEGMENT
__First$ = 8						; size = 4
__Last$ = 12						; size = 4
__Dest$ = 16						; size = 4
___formal$ = 20						; size = 1
??$_Move_backward@PAUPowerupListInfo@@PAU1@@std@@YAPAUPowerupListInfo@@PAU1@00U_Nonscalar_ptr_iterator_tag@0@@Z PROC ; std::_Move_backward<PowerupListInfo *,PowerupListInfo *>, COMDAT

; 2617 : 	{	// move [_First, _Last) backwards to [..., _Dest), arbitrary iterators

  00000	55		 push	 ebp
  00001	8b ec		 mov	 ebp, esp

; 2618 : 	while (_First != _Last)

  00003	8b 45 0c	 mov	 eax, DWORD PTR __Last$[ebp]
  00006	39 45 08	 cmp	 DWORD PTR __First$[ebp], eax
  00009	74 18		 je	 SHORT $LN9@Move_backw
  0000b	56		 push	 esi
  0000c	57		 push	 edi
$LL2@Move_backw:

; 2619 : 		*--_Dest = _STD move(*--_Last);

  0000d	83 6d 10 0c	 sub	 DWORD PTR __Dest$[ebp], 12 ; 0000000cH
  00011	8b 7d 10	 mov	 edi, DWORD PTR __Dest$[ebp]
  00014	83 e8 0c	 sub	 eax, 12			; 0000000cH
  00017	8b f0		 mov	 esi, eax
  00019	a5		 movsd
  0001a	a5		 movsd
  0001b	a5		 movsd
  0001c	3b 45 08	 cmp	 eax, DWORD PTR __First$[ebp]
  0001f	75 ec		 jne	 SHORT $LL2@Move_backw
  00021	5f		 pop	 edi
  00022	5e		 pop	 esi
$LN9@Move_backw:

; 2620 : 	return (_Dest);

  00023	8b 45 10	 mov	 eax, DWORD PTR __Dest$[ebp]

; 2621 : 	}

  00026	5d		 pop	 ebp
  00027	c3		 ret	 0
??$_Move_backward@PAUPowerupListInfo@@PAU1@@std@@YAPAUPowerupListInfo@@PAU1@00U_Nonscalar_ptr_iterator_tag@0@@Z ENDP ; std::_Move_backward<PowerupListInfo *,PowerupListInfo *>
_TEXT	ENDS
PUBLIC	?_DECSTR@@YAXPADH@Z				; _DECSTR
; Function compile flags: /Ogsp
; File d:\lost saga for developer\youtube\tutorial\source\src\lsclient\stringprotect.h
;	COMDAT ?_DECSTR@@YAXPADH@Z
_TEXT	SEGMENT
_s$ = 8							; size = 4
_l$ = 12						; size = 4
?_DECSTR@@YAXPADH@Z PROC				; _DECSTR, COMDAT

; 40   : __forceinline void _DECSTR(char* s, int l){int i=0,l4=(l-1)/4,*p=(int*)s;s[l-1]=0;for(;i<l4;++i)*(p++)^=0xEAEBECED;for(i=l4*4;i<l-1;++i)s[i]^=0xED-i%4;}

  00000	55		 push	 ebp
  00001	8b ec		 mov	 ebp, esp
  00003	8b 4d 0c	 mov	 ecx, DWORD PTR _l$[ebp]
  00006	56		 push	 esi
  00007	8b 75 08	 mov	 esi, DWORD PTR _s$[ebp]
  0000a	57		 push	 edi
  0000b	8d 79 ff	 lea	 edi, DWORD PTR [ecx-1]
  0000e	8b c7		 mov	 eax, edi
  00010	99		 cdq
  00011	83 e2 03	 and	 edx, 3
  00014	03 c2		 add	 eax, edx
  00016	c1 f8 02	 sar	 eax, 2
  00019	8b d6		 mov	 edx, esi
  0001b	c6 44 0e ff 00	 mov	 BYTE PTR [esi+ecx-1], 0
  00020	85 c0		 test	 eax, eax
  00022	7e 0e		 jle	 SHORT $LN4@DECSTR
  00024	8b c8		 mov	 ecx, eax
$LL6@DECSTR:
  00026	81 32 ed ec eb
	ea		 xor	 DWORD PTR [edx], -353637139 ; eaebecedH
  0002c	83 c2 04	 add	 edx, 4
  0002f	49		 dec	 ecx
  00030	75 f4		 jne	 SHORT $LL6@DECSTR
$LN4@DECSTR:
  00032	c1 e0 02	 shl	 eax, 2
  00035	eb 17		 jmp	 SHORT $LN14@DECSTR
$LL3@DECSTR:
  00037	8b c8		 mov	 ecx, eax
  00039	81 e1 03 00 00
	80		 and	 ecx, -2147483645	; 80000003H
  0003f	79 05		 jns	 SHORT $LN13@DECSTR
  00041	49		 dec	 ecx
  00042	83 c9 fc	 or	 ecx, -4			; fffffffcH
  00045	41		 inc	 ecx
$LN13@DECSTR:
  00046	b2 ed		 mov	 dl, -19			; ffffffedH
  00048	2a d1		 sub	 dl, cl
  0004a	30 14 30	 xor	 BYTE PTR [eax+esi], dl
  0004d	40		 inc	 eax
$LN14@DECSTR:
  0004e	3b c7		 cmp	 eax, edi
  00050	7c e5		 jl	 SHORT $LL3@DECSTR
  00052	5f		 pop	 edi
  00053	5e		 pop	 esi
  00054	5d		 pop	 ebp
  00055	c3		 ret	 0
?_DECSTR@@YAXPADH@Z ENDP				; _DECSTR
_TEXT	ENDS
PUBLIC	?GetName@ioItem@@QBEABVioHashString@@XZ		; ioItem::GetName
; Function compile flags: /Ogsp
; File d:\lost saga for developer\youtube\tutorial\source\src\lsclient\ioitem.h
;	COMDAT ?GetName@ioItem@@QBEABVioHashString@@XZ
_TEXT	SEGMENT
?GetName@ioItem@@QBEABVioHashString@@XZ PROC		; ioItem::GetName, COMDAT
; _this$ = ecx

; 269  : 	inline const ioHashString& GetName() const { return m_Name; }

  00000	8d 81 34 01 00
	00		 lea	 eax, DWORD PTR [ecx+308]
  00006	c3		 ret	 0
?GetName@ioItem@@QBEABVioHashString@@XZ ENDP		; ioItem::GetName
_TEXT	ENDS
PUBLIC	?GetItemLargeIconName@ioItem@@QBEABVioHashString@@XZ ; ioItem::GetItemLargeIconName
; Function compile flags: /Ogsp
;	COMDAT ?GetItemLargeIconName@ioItem@@QBEABVioHashString@@XZ
_TEXT	SEGMENT
?GetItemLargeIconName@ioItem@@QBEABVioHashString@@XZ PROC ; ioItem::GetItemLargeIconName, COMDAT
; _this$ = ecx

; 288  : 	inline const ioHashString& GetItemLargeIconName() const { return m_ItemLargeIconFile; }

  00000	8d 81 14 02 00
	00		 lea	 eax, DWORD PTR [ecx+532]
  00006	c3		 ret	 0
?GetItemLargeIconName@ioItem@@QBEABVioHashString@@XZ ENDP ; ioItem::GetItemLargeIconName
_TEXT	ENDS
PUBLIC	?GetGradeType@ioItem@@QBEHXZ			; ioItem::GetGradeType
; Function compile flags: /Ogsp
;	COMDAT ?GetGradeType@ioItem@@QBEHXZ
_TEXT	SEGMENT
?GetGradeType@ioItem@@QBEHXZ PROC			; ioItem::GetGradeType, COMDAT
; _this$ = ecx

; 445  : 	inline int GetGradeType() const { return m_nGradeType; }

  00000	8b 81 20 06 00
	00		 mov	 eax, DWORD PTR [ecx+1568]
  00006	c3		 ret	 0
?GetGradeType@ioItem@@QBEHXZ ENDP			; ioItem::GetGradeType
_TEXT	ENDS
PUBLIC	?GetMouse@ioApplication@@QAEPAVioLSMouse@@XZ	; ioApplication::GetMouse
; Function compile flags: /Ogsp
; File d:\lost saga for developer\youtube\tutorial\source\src\lsclient\ioapplication.h
;	COMDAT ?GetMouse@ioApplication@@QAEPAVioLSMouse@@XZ
_TEXT	SEGMENT
?GetMouse@ioApplication@@QAEPAVioLSMouse@@XZ PROC	; ioApplication::GetMouse, COMDAT
; _this$ = ecx

; 796  : 	inline ioLSMouse* GetMouse(){ return &m_Mouse;	}

  00000	8d 81 90 00 00
	00		 lea	 eax, DWORD PTR [ecx+144]
  00006	c3		 ret	 0
?GetMouse@ioApplication@@QAEPAVioLSMouse@@XZ ENDP	; ioApplication::GetMouse
_TEXT	ENDS
PUBLIC	?Init@EXTRAITEMSLOT@@QAEXXZ			; EXTRAITEMSLOT::Init
; Function compile flags: /Ogsp
; File d:\lost saga for developer\youtube\tutorial\source\src\lsclient\iouserextraitem.h
;	COMDAT ?Init@EXTRAITEMSLOT@@QAEXXZ
_TEXT	SEGMENT
?Init@EXTRAITEMSLOT@@QAEXXZ PROC			; EXTRAITEMSLOT::Init, COMDAT
; _this$ = ecx

; 50   : 		m_iItemCode = 0;

  00000	33 c0		 xor	 eax, eax

; 51   : 		m_iReinforce = 0;
; 52   : 		m_iIndex = 0;
; 53   : 
; 54   : 		m_PeriodType = EPT_TIME;
; 55   : 		m_iValue1 = 0;
; 56   : 		m_iValue2 = 0;
; 57   : 
; 58   : 		m_iTradeState = EET_DISABLE;
; 59   : 	
; 60   : 		m_dwMaleCustom = 0;
; 61   : 		m_dwFemaleCustom = 0;
; 62   : 		m_failExp = 0;

  00002	33 d2		 xor	 edx, edx
  00004	89 01		 mov	 DWORD PTR [ecx], eax
  00006	89 41 04	 mov	 DWORD PTR [ecx+4], eax
  00009	89 41 08	 mov	 DWORD PTR [ecx+8], eax
  0000c	89 41 0c	 mov	 DWORD PTR [ecx+12], eax
  0000f	89 41 10	 mov	 DWORD PTR [ecx+16], eax
  00012	89 41 14	 mov	 DWORD PTR [ecx+20], eax
  00015	89 41 18	 mov	 DWORD PTR [ecx+24], eax
  00018	89 41 1c	 mov	 DWORD PTR [ecx+28], eax
  0001b	89 41 20	 mov	 DWORD PTR [ecx+32], eax
  0001e	66 89 51 24	 mov	 WORD PTR [ecx+36], dx

; 63   : 
; 64   : 		m_bCharEquip = false;

  00022	88 41 26	 mov	 BYTE PTR [ecx+38], al

; 65   : 	}

  00025	c3		 ret	 0
?Init@EXTRAITEMSLOT@@QAEXXZ ENDP			; EXTRAITEMSLOT::Init
_TEXT	ENDS
PUBLIC	?GetUserExtraItem@ioMyInfo@@QAEPAVioUserExtraItem@@XZ ; ioMyInfo::GetUserExtraItem
; Function compile flags: /Ogsp
; File d:\lost saga for developer\youtube\tutorial\source\src\lsclient\iomyinfo.h
;	COMDAT ?GetUserExtraItem@ioMyInfo@@QAEPAVioUserExtraItem@@XZ
_TEXT	SEGMENT
?GetUserExtraItem@ioMyInfo@@QAEPAVioUserExtraItem@@XZ PROC ; ioMyInfo::GetUserExtraItem, COMDAT
; _this$ = ecx

; 636  : 	ioUserExtraItem* GetUserExtraItem() { return &m_UserExtraItem; }

  00000	8d 81 ac 01 00
	00		 lea	 eax, DWORD PTR [ecx+428]
  00006	c3		 ret	 0
?GetUserExtraItem@ioMyInfo@@QAEPAVioUserExtraItem@@XZ ENDP ; ioMyInfo::GetUserExtraItem
_TEXT	ENDS
PUBLIC	?GetName@ioSetItemInfo@@QBEABVioHashString@@XZ	; ioSetItemInfo::GetName
; Function compile flags: /Ogsp
; File d:\lost saga for developer\youtube\tutorial\source\src\lsclient\iosetiteminfo.h
;	COMDAT ?GetName@ioSetItemInfo@@QBEABVioHashString@@XZ
_TEXT	SEGMENT
?GetName@ioSetItemInfo@@QBEABVioHashString@@XZ PROC	; ioSetItemInfo::GetName, COMDAT
; _this$ = ecx

; 117  : 	inline const ioHashString& GetName() const { return m_SetName; }

  00000	8d 41 08	 lea	 eax, DWORD PTR [ecx+8]
  00003	c3		 ret	 0
?GetName@ioSetItemInfo@@QBEABVioHashString@@XZ ENDP	; ioSetItemInfo::GetName
_TEXT	ENDS
PUBLIC	?size@?$basic_string@DU?$char_traits@D@std@@V?$allocator@D@2@@std@@QBEIXZ ; std::basic_string<char,std::char_traits<char>,std::allocator<char> >::size
; Function compile flags: /Ogsp
; File c:\program files (x86)\microsoft visual studio 10.0\vc\include\xstring
;	COMDAT ?size@?$basic_string@DU?$char_traits@D@std@@V?$allocator@D@2@@std@@QBEIXZ
_TEXT	SEGMENT
?size@?$basic_string@DU?$char_traits@D@std@@V?$allocator@D@2@@std@@QBEIXZ PROC ; std::basic_string<char,std::char_traits<char>,std::allocator<char> >::size, COMDAT
; _this$ = ecx

; 1512 : 		return (this->_Mysize);

  00000	8b 41 10	 mov	 eax, DWORD PTR [ecx+16]

; 1513 : 		}

  00003	c3		 ret	 0
?size@?$basic_string@DU?$char_traits@D@std@@V?$allocator@D@2@@std@@QBEIXZ ENDP ; std::basic_string<char,std::char_traits<char>,std::allocator<char> >::size
_TEXT	ENDS
PUBLIC	?size@?$vector@HV?$allocator@H@std@@@std@@QBEIXZ ; std::vector<int,std::allocator<int> >::size
; Function compile flags: /Ogsp
; File c:\program files (x86)\microsoft visual studio 10.0\vc\include\vector
;	COMDAT ?size@?$vector@HV?$allocator@H@std@@@std@@QBEIXZ
_TEXT	SEGMENT
?size@?$vector@HV?$allocator@H@std@@@std@@QBEIXZ PROC	; std::vector<int,std::allocator<int> >::size, COMDAT
; _this$ = ecx

; 879  : 		return (this->_Mylast - this->_Myfirst);

  00000	8b 41 04	 mov	 eax, DWORD PTR [ecx+4]
  00003	2b 01		 sub	 eax, DWORD PTR [ecx]
  00005	c1 f8 02	 sar	 eax, 2

; 880  : 		}

  00008	c3		 ret	 0
?size@?$vector@HV?$allocator@H@std@@@std@@QBEIXZ ENDP	; std::vector<int,std::allocator<int> >::size
_TEXT	ENDS
PUBLIC	?empty@?$vector@HV?$allocator@H@std@@@std@@QBE_NXZ ; std::vector<int,std::allocator<int> >::empty
; Function compile flags: /Ogsp
;	COMDAT ?empty@?$vector@HV?$allocator@H@std@@@std@@QBE_NXZ
_TEXT	SEGMENT
?empty@?$vector@HV?$allocator@H@std@@@std@@QBE_NXZ PROC	; std::vector<int,std::allocator<int> >::empty, COMDAT
; _this$ = ecx

; 889  : 		return (this->_Myfirst == this->_Mylast);

  00000	8b 01		 mov	 eax, DWORD PTR [ecx]
  00002	2b 41 04	 sub	 eax, DWORD PTR [ecx+4]
  00005	f7 d8		 neg	 eax
  00007	1b c0		 sbb	 eax, eax
  00009	40		 inc	 eax

; 890  : 		}

  0000a	c3		 ret	 0
?empty@?$vector@HV?$allocator@H@std@@@std@@QBE_NXZ ENDP	; std::vector<int,std::allocator<int> >::empty
_TEXT	ENDS
PUBLIC	??A?$vector@HV?$allocator@H@std@@@std@@QBEABHI@Z ; std::vector<int,std::allocator<int> >::operator[]
; Function compile flags: /Ogsp
;	COMDAT ??A?$vector@HV?$allocator@H@std@@@std@@QBEABHI@Z
_TEXT	SEGMENT
__Pos$ = 8						; size = 4
??A?$vector@HV?$allocator@H@std@@@std@@QBEABHI@Z PROC	; std::vector<int,std::allocator<int> >::operator[], COMDAT
; _this$ = ecx

; 912  : 		{	// subscript nonmutable sequence

  00000	55		 push	 ebp
  00001	8b ec		 mov	 ebp, esp

; 913  :  #if _ITERATOR_DEBUG_LEVEL == 2
; 914  : 		if (size() <= _Pos)
; 915  : 			{	// report error
; 916  : 			_DEBUG_ERROR("vector subscript out of range");
; 917  : 			_SCL_SECURE_OUT_OF_RANGE;
; 918  : 			}
; 919  : 
; 920  :  #elif _ITERATOR_DEBUG_LEVEL == 1
; 921  : 		_SCL_SECURE_VALIDATE_RANGE(_Pos < size());
; 922  :  #endif /* _ITERATOR_DEBUG_LEVEL */
; 923  : 
; 924  : 		return (*(this->_Myfirst + _Pos));

  00003	8b 01		 mov	 eax, DWORD PTR [ecx]
  00005	8b 4d 08	 mov	 ecx, DWORD PTR __Pos$[ebp]
  00008	8d 04 88	 lea	 eax, DWORD PTR [eax+ecx*4]

; 925  : 		}

  0000b	5d		 pop	 ebp
  0000c	c2 04 00	 ret	 4
??A?$vector@HV?$allocator@H@std@@@std@@QBEABHI@Z ENDP	; std::vector<int,std::allocator<int> >::operator[]
_TEXT	ENDS
PUBLIC	?empty@?$vector@UtagTextPiece@ioComplexStringPrinter@@V?$allocator@UtagTextPiece@ioComplexStringPrinter@@@std@@@std@@QBE_NXZ ; std::vector<ioComplexStringPrinter::tagTextPiece,std::allocator<ioComplexStringPrinter::tagTextPiece> >::empty
; Function compile flags: /Ogsp
;	COMDAT ?empty@?$vector@UtagTextPiece@ioComplexStringPrinter@@V?$allocator@UtagTextPiece@ioComplexStringPrinter@@@std@@@std@@QBE_NXZ
_TEXT	SEGMENT
?empty@?$vector@UtagTextPiece@ioComplexStringPrinter@@V?$allocator@UtagTextPiece@ioComplexStringPrinter@@@std@@@std@@QBE_NXZ PROC ; std::vector<ioComplexStringPrinter::tagTextPiece,std::allocator<ioComplexStringPrinter::tagTextPiece> >::empty, COMDAT
; _this$ = ecx

; 889  : 		return (this->_Myfirst == this->_Mylast);

  00000	8b 01		 mov	 eax, DWORD PTR [ecx]
  00002	2b 41 04	 sub	 eax, DWORD PTR [ecx+4]
  00005	f7 d8		 neg	 eax
  00007	1b c0		 sbb	 eax, eax
  00009	40		 inc	 eax

; 890  : 		}

  0000a	c3		 ret	 0
?empty@?$vector@UtagTextPiece@ioComplexStringPrinter@@V?$allocator@UtagTextPiece@ioComplexStringPrinter@@@std@@@std@@QBE_NXZ ENDP ; std::vector<ioComplexStringPrinter::tagTextPiece,std::allocator<ioComplexStringPrinter::tagTextPiece> >::empty
_TEXT	ENDS
PUBLIC	?_Myptr@?$basic_string@DU?$char_traits@D@std@@V?$allocator@D@2@@std@@QBEPBDXZ ; std::basic_string<char,std::char_traits<char>,std::allocator<char> >::_Myptr
; Function compile flags: /Ogsp
; File c:\program files (x86)\microsoft visual studio 10.0\vc\include\xstring
;	COMDAT ?_Myptr@?$basic_string@DU?$char_traits@D@std@@V?$allocator@D@2@@std@@QBEPBDXZ
_TEXT	SEGMENT
?_Myptr@?$basic_string@DU?$char_traits@D@std@@V?$allocator@D@2@@std@@QBEPBDXZ PROC ; std::basic_string<char,std::char_traits<char>,std::allocator<char> >::_Myptr, COMDAT
; _this$ = ecx

; 2010 : 		return (this->_BUF_SIZE <= this->_Myres ? this->_Bx._Ptr
; 2011 : 			: this->_Bx._Buf);

  00000	83 79 14 10	 cmp	 DWORD PTR [ecx+20], 16	; 00000010H
  00004	72 03		 jb	 SHORT $LN3@Myptr
  00006	8b 01		 mov	 eax, DWORD PTR [ecx]

; 2012 : 		}

  00008	c3		 ret	 0
$LN3@Myptr:

; 2010 : 		return (this->_BUF_SIZE <= this->_Myres ? this->_Bx._Ptr
; 2011 : 			: this->_Bx._Buf);

  00009	8b c1		 mov	 eax, ecx

; 2012 : 		}

  0000b	c3		 ret	 0
?_Myptr@?$basic_string@DU?$char_traits@D@std@@V?$allocator@D@2@@std@@QBEPBDXZ ENDP ; std::basic_string<char,std::char_traits<char>,std::allocator<char> >::_Myptr
_TEXT	ENDS
PUBLIC	??1?$_String_val@DV?$allocator@D@std@@@std@@QAE@XZ ; std::_String_val<char,std::allocator<char> >::~_String_val<char,std::allocator<char> >
; Function compile flags: /Ogsp
;	COMDAT ??1?$_String_val@DV?$allocator@D@std@@@std@@QAE@XZ
_TEXT	SEGMENT
??1?$_String_val@DV?$allocator@D@std@@@std@@QAE@XZ PROC	; std::_String_val<char,std::allocator<char> >::~_String_val<char,std::allocator<char> >, COMDAT
; _this$ = ecx

; 459  : 		}

  00000	c3		 ret	 0
??1?$_String_val@DV?$allocator@D@std@@@std@@QAE@XZ ENDP	; std::_String_val<char,std::allocator<char> >::~_String_val<char,std::allocator<char> >
_TEXT	ENDS
PUBLIC	??0?$allocator@D@std@@QAE@XZ			; std::allocator<char>::allocator<char>
; Function compile flags: /Ogsp
; File c:\program files (x86)\microsoft visual studio 10.0\vc\include\xmemory
;	COMDAT ??0?$allocator@D@std@@QAE@XZ
_TEXT	SEGMENT
??0?$allocator@D@std@@QAE@XZ PROC			; std::allocator<char>::allocator<char>, COMDAT
; _this$ = ecx

; 161  : 	_ALLOCATOR() _THROW0()

  00000	8b c1		 mov	 eax, ecx

; 162  : 		{	// construct default allocator (do nothing)
; 163  : 		}

  00002	c3		 ret	 0
??0?$allocator@D@std@@QAE@XZ ENDP			; std::allocator<char>::allocator<char>
_TEXT	ENDS
PUBLIC	??0?$allocator@D@std@@QAE@ABV01@@Z		; std::allocator<char>::allocator<char>
; Function compile flags: /Ogsp
;	COMDAT ??0?$allocator@D@std@@QAE@ABV01@@Z
_TEXT	SEGMENT
___formal$ = 8						; size = 4
??0?$allocator@D@std@@QAE@ABV01@@Z PROC			; std::allocator<char>::allocator<char>, COMDAT
; _this$ = ecx

; 165  : 	_ALLOCATOR(const _ALLOCATOR<_Ty>&) _THROW0()

  00000	8b c1		 mov	 eax, ecx

; 166  : 		{	// construct by copying (do nothing)
; 167  : 		}

  00002	c2 04 00	 ret	 4
??0?$allocator@D@std@@QAE@ABV01@@Z ENDP			; std::allocator<char>::allocator<char>
_TEXT	ENDS
PUBLIC	??1?$_Vector_val@HV?$allocator@H@std@@@std@@QAE@XZ ; std::_Vector_val<int,std::allocator<int> >::~_Vector_val<int,std::allocator<int> >
; Function compile flags: /Ogsp
; File c:\program files (x86)\microsoft visual studio 10.0\vc\include\vector
;	COMDAT ??1?$_Vector_val@HV?$allocator@H@std@@@std@@QAE@XZ
_TEXT	SEGMENT
??1?$_Vector_val@HV?$allocator@H@std@@@std@@QAE@XZ PROC	; std::_Vector_val<int,std::allocator<int> >::~_Vector_val<int,std::allocator<int> >, COMDAT
; _this$ = ecx

; 434  : 		}

  00000	c3		 ret	 0
??1?$_Vector_val@HV?$allocator@H@std@@@std@@QAE@XZ ENDP	; std::_Vector_val<int,std::allocator<int> >::~_Vector_val<int,std::allocator<int> >
_TEXT	ENDS
PUBLIC	??0?$_Vector_const_iterator@V?$_Vector_val@HV?$allocator@H@std@@@std@@@std@@QAE@PAHPBU_Container_base0@1@@Z ; std::_Vector_const_iterator<std::_Vector_val<int,std::allocator<int> > >::_Vector_const_iterator<std::_Vector_val<int,std::allocator<int> > >
; Function compile flags: /Ogsp
;	COMDAT ??0?$_Vector_const_iterator@V?$_Vector_val@HV?$allocator@H@std@@@std@@@std@@QAE@PAHPBU_Container_base0@1@@Z
_TEXT	SEGMENT
__Parg$ = 8						; size = 4
__Pvector$ = 12						; size = 4
??0?$_Vector_const_iterator@V?$_Vector_val@HV?$allocator@H@std@@@std@@@std@@QAE@PAHPBU_Container_base0@1@@Z PROC ; std::_Vector_const_iterator<std::_Vector_val<int,std::allocator<int> > >::_Vector_const_iterator<std::_Vector_val<int,std::allocator<int> > >, COMDAT
; _this$ = ecx

; 45   : 		{	// construct with pointer _Parg

  00000	55		 push	 ebp
  00001	8b ec		 mov	 ebp, esp
  00003	8b c1		 mov	 eax, ecx
  00005	8b 4d 08	 mov	 ecx, DWORD PTR __Parg$[ebp]
  00008	89 08		 mov	 DWORD PTR [eax], ecx

; 46   : 		this->_Adopt(_Pvector);
; 47   : 		}

  0000a	5d		 pop	 ebp
  0000b	c2 08 00	 ret	 8
??0?$_Vector_const_iterator@V?$_Vector_val@HV?$allocator@H@std@@@std@@@std@@QAE@PAHPBU_Container_base0@1@@Z ENDP ; std::_Vector_const_iterator<std::_Vector_val<int,std::allocator<int> > >::_Vector_const_iterator<std::_Vector_val<int,std::allocator<int> > >
_TEXT	ENDS
PUBLIC	?get_allocator@?$basic_string@DU?$char_traits@D@std@@V?$allocator@D@2@@std@@QBE?AV?$allocator@D@2@XZ ; std::basic_string<char,std::char_traits<char>,std::allocator<char> >::get_allocator
; Function compile flags: /Ogsp
; File c:\program files (x86)\microsoft visual studio 10.0\vc\include\xstring
;	COMDAT ?get_allocator@?$basic_string@DU?$char_traits@D@std@@V?$allocator@D@2@@std@@QBE?AV?$allocator@D@2@XZ
_TEXT	SEGMENT
___$ReturnUdt$ = 8					; size = 4
?get_allocator@?$basic_string@DU?$char_traits@D@std@@V?$allocator@D@2@@std@@QBE?AV?$allocator@D@2@XZ PROC ; std::basic_string<char,std::char_traits<char>,std::allocator<char> >::get_allocator, COMDAT
; _this$ = ecx

; 1906 : 		{	// return allocator object for values

  00000	55		 push	 ebp
  00001	8b ec		 mov	 ebp, esp

; 1907 : 		return (this->_Alval);

  00003	8b 45 08	 mov	 eax, DWORD PTR ___$ReturnUdt$[ebp]

; 1908 : 		}

  00006	5d		 pop	 ebp
  00007	c2 04 00	 ret	 4
?get_allocator@?$basic_string@DU?$char_traits@D@std@@V?$allocator@D@2@@std@@QBE?AV?$allocator@D@2@XZ ENDP ; std::basic_string<char,std::char_traits<char>,std::allocator<char> >::get_allocator
_TEXT	ENDS
PUBLIC	?_Myptr@?$basic_string@DU?$char_traits@D@std@@V?$allocator@D@2@@std@@QAEPADXZ ; std::basic_string<char,std::char_traits<char>,std::allocator<char> >::_Myptr
; Function compile flags: /Ogsp
;	COMDAT ?_Myptr@?$basic_string@DU?$char_traits@D@std@@V?$allocator@D@2@@std@@QAEPADXZ
_TEXT	SEGMENT
?_Myptr@?$basic_string@DU?$char_traits@D@std@@V?$allocator@D@2@@std@@QAEPADXZ PROC ; std::basic_string<char,std::char_traits<char>,std::allocator<char> >::_Myptr, COMDAT
; _this$ = ecx

; 2004 : 		return (this->_BUF_SIZE <= this->_Myres ? this->_Bx._Ptr
; 2005 : 			: this->_Bx._Buf);

  00000	83 79 14 10	 cmp	 DWORD PTR [ecx+20], 16	; 00000010H
  00004	72 03		 jb	 SHORT $LN3@Myptr@2
  00006	8b 01		 mov	 eax, DWORD PTR [ecx]

; 2006 : 		}

  00008	c3		 ret	 0
$LN3@Myptr@2:

; 2004 : 		return (this->_BUF_SIZE <= this->_Myres ? this->_Bx._Ptr
; 2005 : 			: this->_Bx._Buf);

  00009	8b c1		 mov	 eax, ecx

; 2006 : 		}

  0000b	c3		 ret	 0
?_Myptr@?$basic_string@DU?$char_traits@D@std@@V?$allocator@D@2@@std@@QAEPADXZ ENDP ; std::basic_string<char,std::char_traits<char>,std::allocator<char> >::_Myptr
_TEXT	ENDS
PUBLIC	??_C@_0BA@JFNIOLAK@string?5too?5long?$AA@	; `string'
PUBLIC	?_Xlen@?$basic_string@DU?$char_traits@D@std@@V?$allocator@D@2@@std@@QBEXXZ ; std::basic_string<char,std::char_traits<char>,std::allocator<char> >::_Xlen
;	COMDAT ??_C@_0BA@JFNIOLAK@string?5too?5long?$AA@
CONST	SEGMENT
??_C@_0BA@JFNIOLAK@string?5too?5long?$AA@ DB 'string too long', 00H ; `string'
; Function compile flags: /Ogsp
CONST	ENDS
;	COMDAT ?_Xlen@?$basic_string@DU?$char_traits@D@std@@V?$allocator@D@2@@std@@QBEXXZ
_TEXT	SEGMENT
?_Xlen@?$basic_string@DU?$char_traits@D@std@@V?$allocator@D@2@@std@@QBEXXZ PROC ; std::basic_string<char,std::char_traits<char>,std::allocator<char> >::_Xlen, COMDAT
; _this$ = ecx

; 2016 : 		_Xlength_error("string too long");

  00000	68 00 00 00 00	 push	 OFFSET ??_C@_0BA@JFNIOLAK@string?5too?5long?$AA@
  00005	ff 15 00 00 00
	00		 call	 DWORD PTR __imp_?_Xlength_error@std@@YAXPBD@Z
$LN4@Xlen@3:
$LN3@Xlen@3:
  0000b	cc		 int	 3
?_Xlen@?$basic_string@DU?$char_traits@D@std@@V?$allocator@D@2@@std@@QBEXXZ ENDP ; std::basic_string<char,std::char_traits<char>,std::allocator<char> >::_Xlen
_TEXT	ENDS
PUBLIC	??_C@_0BI@CFPLBAOH@invalid?5string?5position?$AA@ ; `string'
PUBLIC	?_Xran@?$basic_string@DU?$char_traits@D@std@@V?$allocator@D@2@@std@@QBEXXZ ; std::basic_string<char,std::char_traits<char>,std::allocator<char> >::_Xran
EXTRN	__imp_?_Xout_of_range@std@@YAXPBD@Z:PROC
;	COMDAT ??_C@_0BI@CFPLBAOH@invalid?5string?5position?$AA@
CONST	SEGMENT
??_C@_0BI@CFPLBAOH@invalid?5string?5position?$AA@ DB 'invalid string posi'
	DB	'tion', 00H					; `string'
; Function compile flags: /Ogsp
CONST	ENDS
;	COMDAT ?_Xran@?$basic_string@DU?$char_traits@D@std@@V?$allocator@D@2@@std@@QBEXXZ
_TEXT	SEGMENT
?_Xran@?$basic_string@DU?$char_traits@D@std@@V?$allocator@D@2@@std@@QBEXXZ PROC ; std::basic_string<char,std::char_traits<char>,std::allocator<char> >::_Xran, COMDAT
; _this$ = ecx

; 2021 : 		_Xout_of_range("invalid string position");

  00000	68 00 00 00 00	 push	 OFFSET ??_C@_0BI@CFPLBAOH@invalid?5string?5position?$AA@
  00005	ff 15 00 00 00
	00		 call	 DWORD PTR __imp_?_Xout_of_range@std@@YAXPBD@Z
$LN4@Xran:
$LN3@Xran:
  0000b	cc		 int	 3
?_Xran@?$basic_string@DU?$char_traits@D@std@@V?$allocator@D@2@@std@@QBEXXZ ENDP ; std::basic_string<char,std::char_traits<char>,std::allocator<char> >::_Xran
_TEXT	ENDS
PUBLIC	?deallocate@?$allocator@D@std@@QAEXPADI@Z	; std::allocator<char>::deallocate
; Function compile flags: /Ogsp
; File c:\program files (x86)\microsoft visual studio 10.0\vc\include\xmemory
;	COMDAT ?deallocate@?$allocator@D@std@@QAEXPADI@Z
_TEXT	SEGMENT
__Ptr$ = 8						; size = 4
___formal$ = 12						; size = 4
?deallocate@?$allocator@D@std@@QAEXPADI@Z PROC		; std::allocator<char>::deallocate, COMDAT
; _this$ = ecx

; 181  : 		{	// deallocate object at _Ptr, ignore size

  00000	55		 push	 ebp
  00001	8b ec		 mov	 ebp, esp

; 182  : 		::operator delete(_Ptr);

  00003	ff 75 08	 push	 DWORD PTR __Ptr$[ebp]
  00006	e8 00 00 00 00	 call	 ??3@YAXPAX@Z		; operator delete
  0000b	59		 pop	 ecx

; 183  : 		}

  0000c	5d		 pop	 ebp
  0000d	c2 08 00	 ret	 8
?deallocate@?$allocator@D@std@@QAEXPADI@Z ENDP		; std::allocator<char>::deallocate
_TEXT	ENDS
PUBLIC	??0?$allocator@H@std@@QAE@ABV01@@Z		; std::allocator<int>::allocator<int>
; Function compile flags: /Ogsp
;	COMDAT ??0?$allocator@H@std@@QAE@ABV01@@Z
_TEXT	SEGMENT
___formal$ = 8						; size = 4
??0?$allocator@H@std@@QAE@ABV01@@Z PROC			; std::allocator<int>::allocator<int>, COMDAT
; _this$ = ecx

; 165  : 	_ALLOCATOR(const _ALLOCATOR<_Ty>&) _THROW0()

  00000	8b c1		 mov	 eax, ecx

; 166  : 		{	// construct by copying (do nothing)
; 167  : 		}

  00002	c2 04 00	 ret	 4
??0?$allocator@H@std@@QAE@ABV01@@Z ENDP			; std::allocator<int>::allocator<int>
_TEXT	ENDS
PUBLIC	?deallocate@?$allocator@H@std@@QAEXPAHI@Z	; std::allocator<int>::deallocate
; Function compile flags: /Ogsp
;	COMDAT ?deallocate@?$allocator@H@std@@QAEXPAHI@Z
_TEXT	SEGMENT
__Ptr$ = 8						; size = 4
___formal$ = 12						; size = 4
?deallocate@?$allocator@H@std@@QAEXPAHI@Z PROC		; std::allocator<int>::deallocate, COMDAT
; _this$ = ecx

; 181  : 		{	// deallocate object at _Ptr, ignore size

  00000	55		 push	 ebp
  00001	8b ec		 mov	 ebp, esp

; 182  : 		::operator delete(_Ptr);

  00003	ff 75 08	 push	 DWORD PTR __Ptr$[ebp]
  00006	e8 00 00 00 00	 call	 ??3@YAXPAX@Z		; operator delete
  0000b	59		 pop	 ecx

; 183  : 		}

  0000c	5d		 pop	 ebp
  0000d	c2 08 00	 ret	 8
?deallocate@?$allocator@H@std@@QAEXPAHI@Z ENDP		; std::allocator<int>::deallocate
_TEXT	ENDS
PUBLIC	?_Xlen@?$vector@HV?$allocator@H@std@@@std@@IBEXXZ ; std::vector<int,std::allocator<int> >::_Xlen
; Function compile flags: /Ogsp
; File c:\program files (x86)\microsoft visual studio 10.0\vc\include\vector
;	COMDAT ?_Xlen@?$vector@HV?$allocator@H@std@@@std@@IBEXXZ
_TEXT	SEGMENT
?_Xlen@?$vector@HV?$allocator@H@std@@@std@@IBEXXZ PROC	; std::vector<int,std::allocator<int> >::_Xlen, COMDAT
; _this$ = ecx

; 1427 : 		_Xlength_error("vector<T> too long");

  00000	68 00 00 00 00	 push	 OFFSET ??_C@_0BD@OLBABOEK@vector?$DMT?$DO?5too?5long?$AA@
  00005	ff 15 00 00 00
	00		 call	 DWORD PTR __imp_?_Xlength_error@std@@YAXPBD@Z
$LN4@Xlen@4:
$LN3@Xlen@4:
  0000b	cc		 int	 3
?_Xlen@?$vector@HV?$allocator@H@std@@@std@@IBEXXZ ENDP	; std::vector<int,std::allocator<int> >::_Xlen
_TEXT	ENDS
PUBLIC	?_Inside@?$basic_string@DU?$char_traits@D@std@@V?$allocator@D@2@@std@@QAE_NPBD@Z ; std::basic_string<char,std::char_traits<char>,std::allocator<char> >::_Inside
; Function compile flags: /Ogsp
; File c:\program files (x86)\microsoft visual studio 10.0\vc\include\xstring
;	COMDAT ?_Inside@?$basic_string@DU?$char_traits@D@std@@V?$allocator@D@2@@std@@QAE_NPBD@Z
_TEXT	SEGMENT
__Ptr$ = 8						; size = 4
?_Inside@?$basic_string@DU?$char_traits@D@std@@V?$allocator@D@2@@std@@QAE_NPBD@Z PROC ; std::basic_string<char,std::char_traits<char>,std::allocator<char> >::_Inside, COMDAT
; _this$ = ecx

; 1973 : 		{	// test if _Ptr points inside string

  00000	55		 push	 ebp
  00001	8b ec		 mov	 ebp, esp

; 1974 : 		if (_Ptr == 0 || _Ptr < _Myptr() || _Myptr() + this->_Mysize <= _Ptr)

  00003	83 7d 08 00	 cmp	 DWORD PTR __Ptr$[ebp], 0
  00007	74 2c		 je	 SHORT $LN2@Inside@2
  00009	8b 51 14	 mov	 edx, DWORD PTR [ecx+20]
  0000c	83 fa 10	 cmp	 edx, 16			; 00000010H
  0000f	72 04		 jb	 SHORT $LN8@Inside@2
  00011	8b 01		 mov	 eax, DWORD PTR [ecx]
  00013	eb 02		 jmp	 SHORT $LN9@Inside@2
$LN8@Inside@2:
  00015	8b c1		 mov	 eax, ecx
$LN9@Inside@2:
  00017	39 45 08	 cmp	 DWORD PTR __Ptr$[ebp], eax
  0001a	72 19		 jb	 SHORT $LN2@Inside@2
  0001c	83 fa 10	 cmp	 edx, 16			; 00000010H
  0001f	72 04		 jb	 SHORT $LN12@Inside@2
  00021	8b 01		 mov	 eax, DWORD PTR [ecx]
  00023	eb 02		 jmp	 SHORT $LN13@Inside@2
$LN12@Inside@2:
  00025	8b c1		 mov	 eax, ecx
$LN13@Inside@2:
  00027	8b 49 10	 mov	 ecx, DWORD PTR [ecx+16]
  0002a	03 c8		 add	 ecx, eax
  0002c	3b 4d 08	 cmp	 ecx, DWORD PTR __Ptr$[ebp]
  0002f	76 04		 jbe	 SHORT $LN2@Inside@2

; 1976 : 		else
; 1977 : 			return (true);

  00031	b0 01		 mov	 al, 1
  00033	eb 02		 jmp	 SHORT $LN1@Inside@2
$LN2@Inside@2:

; 1975 : 			return (false);	// don't ask

  00035	32 c0		 xor	 al, al
$LN1@Inside@2:

; 1978 : 		}

  00037	5d		 pop	 ebp
  00038	c2 04 00	 ret	 4
?_Inside@?$basic_string@DU?$char_traits@D@std@@V?$allocator@D@2@@std@@QAE_NPBD@Z ENDP ; std::basic_string<char,std::char_traits<char>,std::allocator<char> >::_Inside
_TEXT	ENDS
PUBLIC	?max_size@?$allocator@H@std@@QBEIXZ		; std::allocator<int>::max_size
; Function compile flags: /Ogsp
; File c:\program files (x86)\microsoft visual studio 10.0\vc\include\xmemory
;	COMDAT ?max_size@?$allocator@H@std@@QBEIXZ
_TEXT	SEGMENT
?max_size@?$allocator@H@std@@QBEIXZ PROC		; std::allocator<int>::max_size, COMDAT
; _this$ = ecx

; 218  : 		_SIZT _Count = (_SIZT)(-1) / sizeof (_Ty);
; 219  : 		return (0 < _Count ? _Count : 1);

  00000	b8 ff ff ff 3f	 mov	 eax, 1073741823		; 3fffffffH

; 220  : 		}

  00005	c3		 ret	 0
?max_size@?$allocator@H@std@@QBEIXZ ENDP		; std::allocator<int>::max_size
_TEXT	ENDS
PUBLIC	?max_size@?$allocator@D@std@@QBEIXZ		; std::allocator<char>::max_size
; Function compile flags: /Ogsp
;	COMDAT ?max_size@?$allocator@D@std@@QBEIXZ
_TEXT	SEGMENT
?max_size@?$allocator@D@std@@QBEIXZ PROC		; std::allocator<char>::max_size, COMDAT
; _this$ = ecx

; 218  : 		_SIZT _Count = (_SIZT)(-1) / sizeof (_Ty);
; 219  : 		return (0 < _Count ? _Count : 1);

  00000	83 c8 ff	 or	 eax, -1

; 220  : 		}

  00003	c3		 ret	 0
?max_size@?$allocator@D@std@@QBEIXZ ENDP		; std::allocator<char>::max_size
_TEXT	ENDS
PUBLIC	?_Compat@?$_Vector_const_iterator@V?$_Vector_val@HV?$allocator@H@std@@@std@@@std@@QBEXABV12@@Z ; std::_Vector_const_iterator<std::_Vector_val<int,std::allocator<int> > >::_Compat
; Function compile flags: /Ogsp
; File c:\program files (x86)\microsoft visual studio 10.0\vc\include\vector
;	COMDAT ?_Compat@?$_Vector_const_iterator@V?$_Vector_val@HV?$allocator@H@std@@@std@@@std@@QBEXABV12@@Z
_TEXT	SEGMENT
___formal$ = 8						; size = 4
?_Compat@?$_Vector_const_iterator@V?$_Vector_val@HV?$allocator@H@std@@@std@@@std@@QBEXABV12@@Z PROC ; std::_Vector_const_iterator<std::_Vector_val<int,std::allocator<int> > >::_Compat, COMDAT
; _this$ = ecx

; 253  : 		}

  00000	c2 04 00	 ret	 4
?_Compat@?$_Vector_const_iterator@V?$_Vector_val@HV?$allocator@H@std@@@std@@@std@@QBEXABV12@@Z ENDP ; std::_Vector_const_iterator<std::_Vector_val<int,std::allocator<int> > >::_Compat
_TEXT	ENDS
PUBLIC	??$forward@V?$basic_string@DU?$char_traits@D@std@@V?$allocator@D@2@@std@@@std@@YA$$QAV?$basic_string@DU?$char_traits@D@std@@V?$allocator@D@2@@0@AAV10@@Z ; std::forward<std::basic_string<char,std::char_traits<char>,std::allocator<char> > >
; Function compile flags: /Ogsp
; File c:\program files (x86)\microsoft visual studio 10.0\vc\include\utility
;	COMDAT ??$forward@V?$basic_string@DU?$char_traits@D@std@@V?$allocator@D@2@@std@@@std@@YA$$QAV?$basic_string@DU?$char_traits@D@std@@V?$allocator@D@2@@0@AAV10@@Z
_TEXT	SEGMENT
__Arg$ = 8						; size = 4
??$forward@V?$basic_string@DU?$char_traits@D@std@@V?$allocator@D@2@@std@@@std@@YA$$QAV?$basic_string@DU?$char_traits@D@std@@V?$allocator@D@2@@0@AAV10@@Z PROC ; std::forward<std::basic_string<char,std::char_traits<char>,std::allocator<char> > >, COMDAT

; 78   : 	{	// forward _Arg, given explicitly specified type parameter

  00000	55		 push	 ebp
  00001	8b ec		 mov	 ebp, esp

; 79   : 	return ((_Ty&&)_Arg);

  00003	8b 45 08	 mov	 eax, DWORD PTR __Arg$[ebp]

; 80   : 	}

  00006	5d		 pop	 ebp
  00007	c3		 ret	 0
??$forward@V?$basic_string@DU?$char_traits@D@std@@V?$allocator@D@2@@std@@@std@@YA$$QAV?$basic_string@DU?$char_traits@D@std@@V?$allocator@D@2@@0@AAV10@@Z ENDP ; std::forward<std::basic_string<char,std::char_traits<char>,std::allocator<char> > >
_TEXT	ENDS
PUBLIC	??$_Allocate@H@std@@YAPAHIPAH@Z			; std::_Allocate<int>
; Function compile flags: /Ogsp
; File c:\program files (x86)\microsoft visual studio 10.0\vc\include\xmemory
;	COMDAT ??$_Allocate@H@std@@YAPAHIPAH@Z
_TEXT	SEGMENT
$T514460 = -12						; size = 12
$T514464 = 8						; size = 4
__Count$ = 8						; size = 4
___formal$ = 12						; size = 4
??$_Allocate@H@std@@YAPAHIPAH@Z PROC			; std::_Allocate<int>, COMDAT

; 30   : 	{	// allocate storage for _Count elements of type _Ty

  00000	55		 push	 ebp
  00001	8b ec		 mov	 ebp, esp

; 31   : 	void *_Ptr = 0;
; 32   : 
; 33   : 	if (_Count <= 0)

  00003	8b 4d 08	 mov	 ecx, DWORD PTR __Count$[ebp]
  00006	83 ec 0c	 sub	 esp, 12			; 0000000cH
  00009	33 c0		 xor	 eax, eax
  0000b	85 c9		 test	 ecx, ecx

; 34   : 		_Count = 0;
; 35   : 	else if (((_SIZT)(-1) / sizeof (_Ty) < _Count)

  0000d	74 3e		 je	 SHORT $LN5@Allocate@3

; 36   : 		|| (_Ptr = ::operator new(_Count * sizeof (_Ty))) == 0)

  0000f	81 f9 ff ff ff
	3f		 cmp	 ecx, 1073741823		; 3fffffffH
  00015	77 10		 ja	 SHORT $LN1@Allocate@3
  00017	8b c1		 mov	 eax, ecx
  00019	c1 e0 02	 shl	 eax, 2
  0001c	50		 push	 eax
  0001d	e8 00 00 00 00	 call	 ??2@YAPAXI@Z		; operator new
  00022	59		 pop	 ecx
  00023	85 c0		 test	 eax, eax

; 38   : 
; 39   : 	return ((_Ty _FARQ *)_Ptr);

  00025	75 26		 jne	 SHORT $LN5@Allocate@3
$LN1@Allocate@3:

; 37   : 		_THROW_NCEE(bad_alloc, 0);

  00027	83 65 08 00	 and	 DWORD PTR $T514464[ebp], 0
  0002b	8d 45 08	 lea	 eax, DWORD PTR $T514464[ebp]
  0002e	50		 push	 eax
  0002f	8d 4d f4	 lea	 ecx, DWORD PTR $T514460[ebp]
  00032	ff 15 00 00 00
	00		 call	 DWORD PTR __imp_??0exception@std@@QAE@ABQBD@Z
  00038	68 00 00 00 00	 push	 OFFSET __TI2?AVbad_alloc@std@@
  0003d	8d 45 f4	 lea	 eax, DWORD PTR $T514460[ebp]
  00040	50		 push	 eax
  00041	c7 45 f4 00 00
	00 00		 mov	 DWORD PTR $T514460[ebp], OFFSET ??_7bad_alloc@std@@6B@
  00048	e8 00 00 00 00	 call	 __CxxThrowException@8
$LN10@Allocate@3:
$LN5@Allocate@3:

; 40   : 	}

  0004d	c9		 leave
  0004e	c3		 ret	 0
$LN9@Allocate@3:
??$_Allocate@H@std@@YAPAHIPAH@Z ENDP			; std::_Allocate<int>
_TEXT	ENDS
PUBLIC	??$_Allocate@D@std@@YAPADIPAD@Z			; std::_Allocate<char>
; Function compile flags: /Ogsp
;	COMDAT ??$_Allocate@D@std@@YAPADIPAD@Z
_TEXT	SEGMENT
$T514469 = -12						; size = 12
$T514473 = 8						; size = 4
__Count$ = 8						; size = 4
___formal$ = 12						; size = 4
??$_Allocate@D@std@@YAPADIPAD@Z PROC			; std::_Allocate<char>, COMDAT

; 30   : 	{	// allocate storage for _Count elements of type _Ty

  00000	55		 push	 ebp
  00001	8b ec		 mov	 ebp, esp

; 31   : 	void *_Ptr = 0;

  00003	33 c0		 xor	 eax, eax
  00005	83 ec 0c	 sub	 esp, 12			; 0000000cH

; 32   : 
; 33   : 	if (_Count <= 0)

  00008	39 45 08	 cmp	 DWORD PTR __Count$[ebp], eax

; 34   : 		_Count = 0;
; 35   : 	else if (((_SIZT)(-1) / sizeof (_Ty) < _Count)

  0000b	76 39		 jbe	 SHORT $LN5@Allocate@4

; 36   : 		|| (_Ptr = ::operator new(_Count * sizeof (_Ty))) == 0)

  0000d	83 7d 08 ff	 cmp	 DWORD PTR __Count$[ebp], -1
  00011	77 0d		 ja	 SHORT $LN1@Allocate@4
  00013	ff 75 08	 push	 DWORD PTR __Count$[ebp]
  00016	e8 00 00 00 00	 call	 ??2@YAPAXI@Z		; operator new
  0001b	59		 pop	 ecx
  0001c	85 c0		 test	 eax, eax

; 38   : 
; 39   : 	return ((_Ty _FARQ *)_Ptr);

  0001e	75 26		 jne	 SHORT $LN5@Allocate@4
$LN1@Allocate@4:

; 37   : 		_THROW_NCEE(bad_alloc, 0);

  00020	83 65 08 00	 and	 DWORD PTR $T514473[ebp], 0
  00024	8d 45 08	 lea	 eax, DWORD PTR $T514473[ebp]
  00027	50		 push	 eax
  00028	8d 4d f4	 lea	 ecx, DWORD PTR $T514469[ebp]
  0002b	ff 15 00 00 00
	00		 call	 DWORD PTR __imp_??0exception@std@@QAE@ABQBD@Z
  00031	68 00 00 00 00	 push	 OFFSET __TI2?AVbad_alloc@std@@
  00036	8d 45 f4	 lea	 eax, DWORD PTR $T514469[ebp]
  00039	50		 push	 eax
  0003a	c7 45 f4 00 00
	00 00		 mov	 DWORD PTR $T514469[ebp], OFFSET ??_7bad_alloc@std@@6B@
  00041	e8 00 00 00 00	 call	 __CxxThrowException@8
$LN10@Allocate@4:
$LN5@Allocate@4:

; 40   : 	}

  00046	c9		 leave
  00047	c3		 ret	 0
$LN9@Allocate@4:
??$_Allocate@D@std@@YAPADIPAD@Z ENDP			; std::_Allocate<char>
_TEXT	ENDS
EXTRN	__imp_??0exception@std@@QAE@ABV01@@Z:PROC
; Function compile flags: /Ogsp
;	COMDAT ??0bad_alloc@std@@QAE@ABV01@@Z
_TEXT	SEGMENT
___that$ = 8						; size = 4
??0bad_alloc@std@@QAE@ABV01@@Z PROC			; std::bad_alloc::bad_alloc, COMDAT
; _this$ = ecx
  00000	55		 push	 ebp
  00001	8b ec		 mov	 ebp, esp
  00003	56		 push	 esi
  00004	ff 75 08	 push	 DWORD PTR ___that$[ebp]
  00007	8b f1		 mov	 esi, ecx
  00009	ff 15 00 00 00
	00		 call	 DWORD PTR __imp_??0exception@std@@QAE@ABV01@@Z
  0000f	c7 06 00 00 00
	00		 mov	 DWORD PTR [esi], OFFSET ??_7bad_alloc@std@@6B@
  00015	8b c6		 mov	 eax, esi
  00017	5e		 pop	 esi
  00018	5d		 pop	 ebp
  00019	c2 04 00	 ret	 4
??0bad_alloc@std@@QAE@ABV01@@Z ENDP			; std::bad_alloc::bad_alloc
_TEXT	ENDS
PUBLIC	??$move@AAV?$basic_string@DU?$char_traits@D@std@@V?$allocator@D@2@@std@@@std@@YA$$QAV?$basic_string@DU?$char_traits@D@std@@V?$allocator@D@2@@0@AAV10@@Z ; std::move<std::basic_string<char,std::char_traits<char>,std::allocator<char> > &>
; Function compile flags: /Ogsp
; File c:\program files (x86)\microsoft visual studio 10.0\vc\include\utility
;	COMDAT ??$move@AAV?$basic_string@DU?$char_traits@D@std@@V?$allocator@D@2@@std@@@std@@YA$$QAV?$basic_string@DU?$char_traits@D@std@@V?$allocator@D@2@@0@AAV10@@Z
_TEXT	SEGMENT
__Arg$ = 8						; size = 4
??$move@AAV?$basic_string@DU?$char_traits@D@std@@V?$allocator@D@2@@std@@@std@@YA$$QAV?$basic_string@DU?$char_traits@D@std@@V?$allocator@D@2@@0@AAV10@@Z PROC ; std::move<std::basic_string<char,std::char_traits<char>,std::allocator<char> > &>, COMDAT

; 86   : 	{	// forward _Arg as movable

  00000	55		 push	 ebp
  00001	8b ec		 mov	 ebp, esp

; 87   : 	return ((typename tr1::_Remove_reference<_Ty>::_Type&&)_Arg);

  00003	8b 45 08	 mov	 eax, DWORD PTR __Arg$[ebp]

; 88   : 	}

  00006	5d		 pop	 ebp
  00007	c3		 ret	 0
??$move@AAV?$basic_string@DU?$char_traits@D@std@@V?$allocator@D@2@@std@@@std@@YA$$QAV?$basic_string@DU?$char_traits@D@std@@V?$allocator@D@2@@0@AAV10@@Z ENDP ; std::move<std::basic_string<char,std::char_traits<char>,std::allocator<char> > &>
_TEXT	ENDS
PUBLIC	??$_Ptr_cat@HH@std@@YA?AU_Scalar_ptr_iterator_tag@0@PAH0@Z ; std::_Ptr_cat<int,int>
; Function compile flags: /Ogsp
; File c:\program files (x86)\microsoft visual studio 10.0\vc\include\xutility
;	COMDAT ??$_Ptr_cat@HH@std@@YA?AU_Scalar_ptr_iterator_tag@0@PAH0@Z
_TEXT	SEGMENT
__Cat$ = -1						; size = 1
___formal$ = 8						; size = 4
___formal$ = 12						; size = 4
??$_Ptr_cat@HH@std@@YA?AU_Scalar_ptr_iterator_tag@0@PAH0@Z PROC ; std::_Ptr_cat<int,int>, COMDAT

; 516  : 	{	// return pointer category from pointers

  00000	55		 push	 ebp
  00001	8b ec		 mov	 ebp, esp
  00003	51		 push	 ecx

; 517  : 	typename _Ptr_cat_helper<_Elem1, _Elem2>::_Type _Cat;
; 518  : 	return (_Cat);

  00004	8a 45 ff	 mov	 al, BYTE PTR __Cat$[ebp]

; 519  : 	}

  00007	c9		 leave
  00008	c3		 ret	 0
??$_Ptr_cat@HH@std@@YA?AU_Scalar_ptr_iterator_tag@0@PAH0@Z ENDP ; std::_Ptr_cat<int,int>
_TEXT	ENDS
PUBLIC	??$?8DD@std@@YA_NABV?$allocator@D@0@0@Z		; std::operator==<char,char>
; Function compile flags: /Ogsp
; File c:\program files (x86)\microsoft visual studio 10.0\vc\include\xmemory
;	COMDAT ??$?8DD@std@@YA_NABV?$allocator@D@0@0@Z
_TEXT	SEGMENT
___formal$ = 8						; size = 4
___formal$ = 12						; size = 4
??$?8DD@std@@YA_NABV?$allocator@D@0@0@Z PROC		; std::operator==<char,char>, COMDAT

; 263  : 	return (true);

  00000	b0 01		 mov	 al, 1

; 264  : 	}

  00002	c3		 ret	 0
??$?8DD@std@@YA_NABV?$allocator@D@0@0@Z ENDP		; std::operator==<char,char>
_TEXT	ENDS
PUBLIC	??$_Destroy_range@V?$allocator@H@std@@@std@@YAXPAH0AAV?$allocator@H@0@U_Scalar_ptr_iterator_tag@0@@Z ; std::_Destroy_range<std::allocator<int> >
; Function compile flags: /Ogsp
;	COMDAT ??$_Destroy_range@V?$allocator@H@std@@@std@@YAXPAH0AAV?$allocator@H@0@U_Scalar_ptr_iterator_tag@0@@Z
_TEXT	SEGMENT
__First$ = 8						; size = 4
__Last$ = 12						; size = 4
__Al$ = 16						; size = 4
___formal$ = 20						; size = 1
??$_Destroy_range@V?$allocator@H@std@@@std@@YAXPAH0AAV?$allocator@H@0@U_Scalar_ptr_iterator_tag@0@@Z PROC ; std::_Destroy_range<std::allocator<int> >, COMDAT

; 105  : 	}

  00000	c3		 ret	 0
??$_Destroy_range@V?$allocator@H@std@@@std@@YAXPAH0AAV?$allocator@H@0@U_Scalar_ptr_iterator_tag@0@@Z ENDP ; std::_Destroy_range<std::allocator<int> >
_TEXT	ENDS
PUBLIC	??1?$_Vector_val@V?$basic_string@DU?$char_traits@D@std@@V?$allocator@D@2@@std@@V?$allocator@V?$basic_string@DU?$char_traits@D@std@@V?$allocator@D@2@@std@@@2@@std@@QAE@XZ ; std::_Vector_val<std::basic_string<char,std::char_traits<char>,std::allocator<char> >,std::allocator<std::basic_string<char,std::char_traits<char>,std::allocator<char> > > >::~_Vector_val<std::basic_string<char,std::char_traits<char>,std::allocator<char> >,std::allocator<std::basic_string<char,std::char_traits<char>,std::allocator<char> > > >
; Function compile flags: /Ogsp
; File c:\program files (x86)\microsoft visual studio 10.0\vc\include\vector
;	COMDAT ??1?$_Vector_val@V?$basic_string@DU?$char_traits@D@std@@V?$allocator@D@2@@std@@V?$allocator@V?$basic_string@DU?$char_traits@D@std@@V?$allocator@D@2@@std@@@2@@std@@QAE@XZ
_TEXT	SEGMENT
??1?$_Vector_val@V?$basic_string@DU?$char_traits@D@std@@V?$allocator@D@2@@std@@V?$allocator@V?$basic_string@DU?$char_traits@D@std@@V?$allocator@D@2@@std@@@2@@std@@QAE@XZ PROC ; std::_Vector_val<std::basic_string<char,std::char_traits<char>,std::allocator<char> >,std::allocator<std::basic_string<char,std::char_traits<char>,std::allocator<char> > > >::~_Vector_val<std::basic_string<char,std::char_traits<char>,std::allocator<char> >,std::allocator<std::basic_string<char,std::char_traits<char>,std::allocator<char> > > >, COMDAT
; _this$ = ecx

; 434  : 		}

  00000	c3		 ret	 0
??1?$_Vector_val@V?$basic_string@DU?$char_traits@D@std@@V?$allocator@D@2@@std@@V?$allocator@V?$basic_string@DU?$char_traits@D@std@@V?$allocator@D@2@@std@@@2@@std@@QAE@XZ ENDP ; std::_Vector_val<std::basic_string<char,std::char_traits<char>,std::allocator<char> >,std::allocator<std::basic_string<char,std::char_traits<char>,std::allocator<char> > > >::~_Vector_val<std::basic_string<char,std::char_traits<char>,std::allocator<char> >,std::allocator<std::basic_string<char,std::char_traits<char>,std::allocator<char> > > >
_TEXT	ENDS
PUBLIC	?deallocate@?$allocator@V?$basic_string@DU?$char_traits@D@std@@V?$allocator@D@2@@std@@@std@@QAEXPAV?$basic_string@DU?$char_traits@D@std@@V?$allocator@D@2@@2@I@Z ; std::allocator<std::basic_string<char,std::char_traits<char>,std::allocator<char> > >::deallocate
; Function compile flags: /Ogsp
; File c:\program files (x86)\microsoft visual studio 10.0\vc\include\xmemory
;	COMDAT ?deallocate@?$allocator@V?$basic_string@DU?$char_traits@D@std@@V?$allocator@D@2@@std@@@std@@QAEXPAV?$basic_string@DU?$char_traits@D@std@@V?$allocator@D@2@@2@I@Z
_TEXT	SEGMENT
__Ptr$ = 8						; size = 4
___formal$ = 12						; size = 4
?deallocate@?$allocator@V?$basic_string@DU?$char_traits@D@std@@V?$allocator@D@2@@std@@@std@@QAEXPAV?$basic_string@DU?$char_traits@D@std@@V?$allocator@D@2@@2@I@Z PROC ; std::allocator<std::basic_string<char,std::char_traits<char>,std::allocator<char> > >::deallocate, COMDAT
; _this$ = ecx

; 181  : 		{	// deallocate object at _Ptr, ignore size

  00000	55		 push	 ebp
  00001	8b ec		 mov	 ebp, esp

; 182  : 		::operator delete(_Ptr);

  00003	ff 75 08	 push	 DWORD PTR __Ptr$[ebp]
  00006	e8 00 00 00 00	 call	 ??3@YAXPAX@Z		; operator delete
  0000b	59		 pop	 ecx

; 183  : 		}

  0000c	5d		 pop	 ebp
  0000d	c2 08 00	 ret	 8
?deallocate@?$allocator@V?$basic_string@DU?$char_traits@D@std@@V?$allocator@D@2@@std@@@std@@QAEXPAV?$basic_string@DU?$char_traits@D@std@@V?$allocator@D@2@@2@I@Z ENDP ; std::allocator<std::basic_string<char,std::char_traits<char>,std::allocator<char> > >::deallocate
_TEXT	ENDS
PUBLIC	??$_Ptr_cat@V?$basic_string@DU?$char_traits@D@std@@V?$allocator@D@2@@std@@V12@@std@@YA?AU_Nonscalar_ptr_iterator_tag@0@PAV?$basic_string@DU?$char_traits@D@std@@V?$allocator@D@2@@0@0@Z ; std::_Ptr_cat<std::basic_string<char,std::char_traits<char>,std::allocator<char> >,std::basic_string<char,std::char_traits<char>,std::allocator<char> > >
; Function compile flags: /Ogsp
; File c:\program files (x86)\microsoft visual studio 10.0\vc\include\xutility
;	COMDAT ??$_Ptr_cat@V?$basic_string@DU?$char_traits@D@std@@V?$allocator@D@2@@std@@V12@@std@@YA?AU_Nonscalar_ptr_iterator_tag@0@PAV?$basic_string@DU?$char_traits@D@std@@V?$allocator@D@2@@0@0@Z
_TEXT	SEGMENT
__Cat$ = -1						; size = 1
___formal$ = 8						; size = 4
___formal$ = 12						; size = 4
??$_Ptr_cat@V?$basic_string@DU?$char_traits@D@std@@V?$allocator@D@2@@std@@V12@@std@@YA?AU_Nonscalar_ptr_iterator_tag@0@PAV?$basic_string@DU?$char_traits@D@std@@V?$allocator@D@2@@0@0@Z PROC ; std::_Ptr_cat<std::basic_string<char,std::char_traits<char>,std::allocator<char> >,std::basic_string<char,std::char_traits<char>,std::allocator<char> > >, COMDAT

; 516  : 	{	// return pointer category from pointers

  00000	55		 push	 ebp
  00001	8b ec		 mov	 ebp, esp
  00003	51		 push	 ecx

; 517  : 	typename _Ptr_cat_helper<_Elem1, _Elem2>::_Type _Cat;
; 518  : 	return (_Cat);

  00004	8a 45 ff	 mov	 al, BYTE PTR __Cat$[ebp]

; 519  : 	}

  00007	c9		 leave
  00008	c3		 ret	 0
??$_Ptr_cat@V?$basic_string@DU?$char_traits@D@std@@V?$allocator@D@2@@std@@V12@@std@@YA?AU_Nonscalar_ptr_iterator_tag@0@PAV?$basic_string@DU?$char_traits@D@std@@V?$allocator@D@2@@0@0@Z ENDP ; std::_Ptr_cat<std::basic_string<char,std::char_traits<char>,std::allocator<char> >,std::basic_string<char,std::char_traits<char>,std::allocator<char> > >
; Function compile flags: /Ogsp
_TEXT	ENDS
;	COMDAT ??_GPowerUpToolTip@@UAEPAXI@Z
_TEXT	SEGMENT
___flags$ = 8						; size = 4
??_GPowerUpToolTip@@UAEPAXI@Z PROC			; PowerUpToolTip::`scalar deleting destructor', COMDAT
; _this$ = ecx
  00000	55		 push	 ebp
  00001	8b ec		 mov	 ebp, esp
  00003	56		 push	 esi
  00004	8b f1		 mov	 esi, ecx
  00006	e8 00 00 00 00	 call	 ??1PowerUpToolTip@@UAE@XZ ; PowerUpToolTip::~PowerUpToolTip
  0000b	f6 45 08 01	 test	 BYTE PTR ___flags$[ebp], 1
  0000f	74 07		 je	 SHORT $LN1@scalar@3
  00011	56		 push	 esi
  00012	e8 00 00 00 00	 call	 ??3@YAXPAX@Z		; operator delete
  00017	59		 pop	 ecx
$LN1@scalar@3:
  00018	8b c6		 mov	 eax, esi
  0001a	5e		 pop	 esi
  0001b	5d		 pop	 ebp
  0001c	c2 04 00	 ret	 4
??_GPowerUpToolTip@@UAEPAXI@Z ENDP			; PowerUpToolTip::`scalar deleting destructor'
_TEXT	ENDS
EXTRN	__imp_?GoToTop@ioWnd@@QAEXXZ:PROC
EXTRN	__imp_?SetScreenWndPos@ioWnd@@QAEXHH@Z:PROC
EXTRN	?GetNotCutWndPos@Help@@YAXHHHHAAH0@Z:PROC	; Help::GetNotCutWndPos
EXTRN	__imp_?GetWidth@ioWnd@@QBEHXZ:PROC
EXTRN	__imp_?GetHeight@ioWnd@@QBEHXZ:PROC
EXTRN	__imp_?GetMousePos@ioMouse@@QBEABUtagPOINT@@XZ:PROC
EXTRN	?SetToolTipCursor@ioLSMouse@@QAEXXZ:PROC	; ioLSMouse::SetToolTipCursor
EXTRN	?GetSingleton@ioApplication@@SAAAV1@XZ:PROC	; ioApplication::GetSingleton
EXTRN	__imp_?IsShow@ioWnd@@QBE_NXZ:PROC
; Function compile flags: /Ogsp
; File d:\lost saga for developer\youtube\tutorial\source\src\lsclient\gui\enablepoweruplistwnd.cpp
;	COMDAT ?OnProcess@PowerUpToolTip@@MAEXM@Z
_TEXT	SEGMENT
_iXPos$509558 = -8					; size = 4
_iYPos$509559 = -4					; size = 4
_fTimePerSec$ = 8					; size = 4
?OnProcess@PowerUpToolTip@@MAEXM@Z PROC			; PowerUpToolTip::OnProcess, COMDAT
; _this$ = ecx

; 462  : {

  00000	55		 push	 ebp
  00001	8b ec		 mov	 ebp, esp
  00003	51		 push	 ecx
  00004	51		 push	 ecx
  00005	57		 push	 edi
  00006	8b f9		 mov	 edi, ecx

; 463  : 	if ( IsShow() )

  00008	ff 15 00 00 00
	00		 call	 DWORD PTR __imp_?IsShow@ioWnd@@QBE_NXZ
  0000e	84 c0		 test	 al, al
  00010	74 71		 je	 SHORT $LN2@OnProcess

; 464  : 	{
; 465  : 		ioLSMouse *pMouse = g_App.GetMouse();

  00012	56		 push	 esi
  00013	e8 00 00 00 00	 call	 ?GetSingleton@ioApplication@@SAAAV1@XZ ; ioApplication::GetSingleton
  00018	8b f0		 mov	 esi, eax
  0001a	81 c6 90 00 00
	00		 add	 esi, 144		; 00000090H

; 466  : 		if( !pMouse ) return;

  00020	74 60		 je	 SHORT $LN7@OnProcess

; 467  : 		pMouse->SetToolTipCursor();

  00022	53		 push	 ebx
  00023	8b ce		 mov	 ecx, esi
  00025	e8 00 00 00 00	 call	 ?SetToolTipCursor@ioLSMouse@@QAEXXZ ; ioLSMouse::SetToolTipCursor

; 468  : 		int iXPos = 0;

  0002a	83 65 f8 00	 and	 DWORD PTR _iXPos$509558[ebp], 0

; 469  : 		int iYPos = 0;

  0002e	83 65 fc 00	 and	 DWORD PTR _iYPos$509559[ebp], 0

; 470  : 		Help::GetNotCutWndPos( pMouse->GetMousePos().x, pMouse->GetMousePos().y, GetWidth(), GetHeight(), iXPos, iYPos );

  00032	8b ce		 mov	 ecx, esi
  00034	ff 15 00 00 00
	00		 call	 DWORD PTR __imp_?GetMousePos@ioMouse@@QBEABUtagPOINT@@XZ
  0003a	8b d8		 mov	 ebx, eax
  0003c	8d 45 fc	 lea	 eax, DWORD PTR _iYPos$509559[ebp]
  0003f	50		 push	 eax
  00040	8d 45 f8	 lea	 eax, DWORD PTR _iXPos$509558[ebp]
  00043	50		 push	 eax
  00044	8b cf		 mov	 ecx, edi
  00046	ff 15 00 00 00
	00		 call	 DWORD PTR __imp_?GetHeight@ioWnd@@QBEHXZ
  0004c	50		 push	 eax
  0004d	8b cf		 mov	 ecx, edi
  0004f	ff 15 00 00 00
	00		 call	 DWORD PTR __imp_?GetWidth@ioWnd@@QBEHXZ
  00055	50		 push	 eax
  00056	8b ce		 mov	 ecx, esi
  00058	ff 15 00 00 00
	00		 call	 DWORD PTR __imp_?GetMousePos@ioMouse@@QBEABUtagPOINT@@XZ
  0005e	ff 70 04	 push	 DWORD PTR [eax+4]
  00061	ff 33		 push	 DWORD PTR [ebx]
  00063	e8 00 00 00 00	 call	 ?GetNotCutWndPos@Help@@YAXHHHHAAH0@Z ; Help::GetNotCutWndPos
  00068	83 c4 18	 add	 esp, 24			; 00000018H

; 471  : 		SetScreenWndPos( iXPos, iYPos );

  0006b	ff 75 fc	 push	 DWORD PTR _iYPos$509559[ebp]
  0006e	8b cf		 mov	 ecx, edi
  00070	ff 75 f8	 push	 DWORD PTR _iXPos$509558[ebp]
  00073	ff 15 00 00 00
	00		 call	 DWORD PTR __imp_?SetScreenWndPos@ioWnd@@QAEXHH@Z

; 472  : 		GoToTop();

  00079	8b cf		 mov	 ecx, edi
  0007b	ff 15 00 00 00
	00		 call	 DWORD PTR __imp_?GoToTop@ioWnd@@QAEXXZ
  00081	5b		 pop	 ebx
$LN7@OnProcess:
  00082	5e		 pop	 esi
$LN2@OnProcess:
  00083	5f		 pop	 edi

; 473  : 	}
; 474  : }

  00084	c9		 leave
  00085	c2 04 00	 ret	 4
?OnProcess@PowerUpToolTip@@MAEXM@Z ENDP			; PowerUpToolTip::OnProcess
_TEXT	ENDS
PUBLIC	__real@3f19999a
PUBLIC	?SetCharInfo@PowerUpToolTip@@IAEXH@Z		; PowerUpToolTip::SetCharInfo
EXTRN	?SetCharToolTipPrinter@ioPowerUpManager@@QAEXHHMAAVioComplexStringPrinter@@@Z:PROC ; ioPowerUpManager::SetCharToolTipPrinter
EXTRN	__imp_?SetWndPos@ioWnd@@QAEXHH@Z:PROC
EXTRN	__imp_?GetYPos@ioWnd@@QBEHXZ:PROC
EXTRN	__imp_?GetXPos@ioWnd@@QBEHXZ:PROC
EXTRN	?GetCharGradeToolTipSize@ioPowerUpManager@@QAEXHAAH0@Z:PROC ; ioPowerUpManager::GetCharGradeToolTipSize
EXTRN	__imp_?HideWnd@ioWnd@@QAEXXZ:PROC
EXTRN	?GetCharGradeInfo@ioPowerUpManager@@QBEPBUCharPowerUpInfo@1@H@Z:PROC ; ioPowerUpManager::GetCharGradeInfo
EXTRN	?GetSingleton@ioPowerUpManager@@SAAAV1@XZ:PROC	; ioPowerUpManager::GetSingleton
;	COMDAT __real@3f19999a
; File d:\lost saga for developer\youtube\tutorial\source\src\io3dengine\iownd.h
CONST	SEGMENT
__real@3f19999a DD 03f19999ar			; 0.6
; Function compile flags: /Ogsp
; File d:\lost saga for developer\youtube\tutorial\source\src\lsclient\gui\enablepoweruplistwnd.cpp
CONST	ENDS
;	COMDAT ?SetCharInfo@PowerUpToolTip@@IAEXH@Z
_TEXT	SEGMENT
_SizeX$ = -16						; size = 4
_SizeY$ = -12						; size = 4
_iXPos$ = -8						; size = 4
_iYPos$ = -4						; size = 4
_nClassType$ = 8					; size = 4
?SetCharInfo@PowerUpToolTip@@IAEXH@Z PROC		; PowerUpToolTip::SetCharInfo, COMDAT
; _this$ = ecx

; 490  : {

  00000	55		 push	 ebp
  00001	8b ec		 mov	 ebp, esp
  00003	83 ec 10	 sub	 esp, 16			; 00000010H
  00006	56		 push	 esi

; 491  : 	if( !g_PowerUpManager.GetCharGradeInfo( nClassType ) )

  00007	ff 75 08	 push	 DWORD PTR _nClassType$[ebp]
  0000a	8b f1		 mov	 esi, ecx
  0000c	e8 00 00 00 00	 call	 ?GetSingleton@ioPowerUpManager@@SAAAV1@XZ ; ioPowerUpManager::GetSingleton
  00011	8b c8		 mov	 ecx, eax
  00013	e8 00 00 00 00	 call	 ?GetCharGradeInfo@ioPowerUpManager@@QBEPBUCharPowerUpInfo@1@H@Z ; ioPowerUpManager::GetCharGradeInfo
  00018	85 c0		 test	 eax, eax
  0001a	75 0d		 jne	 SHORT $LN8@SetCharInf

; 492  : 	{
; 493  : 		HideWnd();

  0001c	8b ce		 mov	 ecx, esi
  0001e	ff 15 00 00 00
	00		 call	 DWORD PTR __imp_?HideWnd@ioWnd@@QAEXXZ

; 494  : 		return;

  00024	e9 e4 00 00 00	 jmp	 $LN1@SetCharInf
$LN8@SetCharInf:
  00029	53		 push	 ebx

; 495  : 	}
; 496  : 
; 497  : 	int SizeX,SizeY;
; 498  : 	g_PowerUpManager.GetCharGradeToolTipSize( nClassType, SizeX, SizeY );

  0002a	8d 45 f4	 lea	 eax, DWORD PTR _SizeY$[ebp]
  0002d	50		 push	 eax
  0002e	8d 45 f0	 lea	 eax, DWORD PTR _SizeX$[ebp]
  00031	50		 push	 eax
  00032	ff 75 08	 push	 DWORD PTR _nClassType$[ebp]
  00035	e8 00 00 00 00	 call	 ?GetSingleton@ioPowerUpManager@@SAAAV1@XZ ; ioPowerUpManager::GetSingleton
  0003a	8b c8		 mov	 ecx, eax
  0003c	e8 00 00 00 00	 call	 ?GetCharGradeToolTipSize@ioPowerUpManager@@QAEXHAAH0@Z ; ioPowerUpManager::GetCharGradeToolTipSize

; 499  : 
; 500  : 	SetSize( SizeX, SizeY );

  00041	ff 75 f4	 push	 DWORD PTR _SizeY$[ebp]
  00044	8b 06		 mov	 eax, DWORD PTR [esi]
  00046	ff 75 f0	 push	 DWORD PTR _SizeX$[ebp]
  00049	8b ce		 mov	 ecx, esi
  0004b	ff 50 2c	 call	 DWORD PTR [eax+44]

; 501  : 
; 502  : 	ioLSMouse *pMouse = g_App.GetMouse();

  0004e	e8 00 00 00 00	 call	 ?GetSingleton@ioApplication@@SAAAV1@XZ ; ioApplication::GetSingleton
  00053	8b d8		 mov	 ebx, eax
  00055	81 c3 90 00 00
	00		 add	 ebx, 144		; 00000090H

; 503  : 	if( !pMouse ) 

  0005b	0f 84 ab 00 00
	00		 je	 $LN21@SetCharInf

; 504  : 		return;
; 505  : 
; 506  : 	int iXPos = 0;

  00061	83 65 f8 00	 and	 DWORD PTR _iXPos$[ebp], 0

; 507  : 	int iYPos = 0;

  00065	83 65 fc 00	 and	 DWORD PTR _iYPos$[ebp], 0
  00069	57		 push	 edi

; 508  : 
; 509  : 	Help::GetNotCutWndPos( pMouse->GetMousePos().x, pMouse->GetMousePos().y, GetWidth(), GetHeight(), iXPos, iYPos );

  0006a	8b cb		 mov	 ecx, ebx
  0006c	ff 15 00 00 00
	00		 call	 DWORD PTR __imp_?GetMousePos@ioMouse@@QBEABUtagPOINT@@XZ
  00072	8b f8		 mov	 edi, eax
  00074	8d 45 fc	 lea	 eax, DWORD PTR _iYPos$[ebp]
  00077	50		 push	 eax
  00078	8d 45 f8	 lea	 eax, DWORD PTR _iXPos$[ebp]
  0007b	50		 push	 eax
  0007c	8b ce		 mov	 ecx, esi
  0007e	ff 15 00 00 00
	00		 call	 DWORD PTR __imp_?GetHeight@ioWnd@@QBEHXZ
  00084	50		 push	 eax
  00085	8b ce		 mov	 ecx, esi
  00087	ff 15 00 00 00
	00		 call	 DWORD PTR __imp_?GetWidth@ioWnd@@QBEHXZ
  0008d	50		 push	 eax
  0008e	8b cb		 mov	 ecx, ebx
  00090	ff 15 00 00 00
	00		 call	 DWORD PTR __imp_?GetMousePos@ioMouse@@QBEABUtagPOINT@@XZ
  00096	ff 70 04	 push	 DWORD PTR [eax+4]
  00099	ff 37		 push	 DWORD PTR [edi]
  0009b	e8 00 00 00 00	 call	 ?GetNotCutWndPos@Help@@YAXHHHHAAH0@Z ; Help::GetNotCutWndPos

; 510  : 
; 511  : 	iXPos -= m_pParent->GetPosX();

  000a0	8b 4e 40	 mov	 ecx, DWORD PTR [esi+64]
  000a3	83 c4 18	 add	 esp, 24			; 00000018H
  000a6	ff 15 00 00 00
	00		 call	 DWORD PTR __imp_?GetXPos@ioWnd@@QBEHXZ

; 512  : 	iYPos -= m_pParent->GetPosY();

  000ac	8b 4e 40	 mov	 ecx, DWORD PTR [esi+64]
  000af	29 45 f8	 sub	 DWORD PTR _iXPos$[ebp], eax
  000b2	ff 15 00 00 00
	00		 call	 DWORD PTR __imp_?GetYPos@ioWnd@@QBEHXZ
  000b8	29 45 fc	 sub	 DWORD PTR _iYPos$[ebp], eax

; 513  : 	SetWndPos( iXPos, iYPos );

  000bb	ff 75 fc	 push	 DWORD PTR _iYPos$[ebp]
  000be	8b ce		 mov	 ecx, esi
  000c0	ff 75 f8	 push	 DWORD PTR _iXPos$[ebp]
  000c3	ff 15 00 00 00
	00		 call	 DWORD PTR __imp_?SetWndPos@ioWnd@@QAEXHH@Z
  000c9	81 c6 60 01 00
	00		 add	 esi, 352		; 00000160H
  000cf	6a 0a		 push	 10			; 0000000aH
  000d1	8b fe		 mov	 edi, esi
  000d3	5b		 pop	 ebx
$LL6@SetCharInf:

; 514  : 
; 515  : 	for( int i=0; i < MAX_TOOLTIP_DESC; ++i )
; 516  : 		m_szToolTip[i].ClearList();

  000d4	8b cf		 mov	 ecx, edi
  000d6	e8 00 00 00 00	 call	 ?ClearList@ioComplexStringPrinter@@QAEXXZ ; ioComplexStringPrinter::ClearList
  000db	83 c7 20	 add	 edi, 32			; 00000020H
  000de	4b		 dec	 ebx
  000df	75 f3		 jne	 SHORT $LL6@SetCharInf

; 517  : 
; 518  : 	for( int i=0; i < MAX_TOOLTIP_DESC; ++i )

  000e1	33 ff		 xor	 edi, edi
$LL3@SetCharInf:

; 519  : 		g_PowerUpManager.SetCharToolTipPrinter( nClassType, i,  FONT_SIZE_12, m_szToolTip[i] );

  000e3	f3 0f 10 05 00
	00 00 00	 movss	 xmm0, DWORD PTR __real@3f19999a
  000eb	56		 push	 esi
  000ec	51		 push	 ecx
  000ed	f3 0f 11 04 24	 movss	 DWORD PTR [esp], xmm0
  000f2	57		 push	 edi
  000f3	ff 75 08	 push	 DWORD PTR _nClassType$[ebp]
  000f6	e8 00 00 00 00	 call	 ?GetSingleton@ioPowerUpManager@@SAAAV1@XZ ; ioPowerUpManager::GetSingleton
  000fb	8b c8		 mov	 ecx, eax
  000fd	e8 00 00 00 00	 call	 ?SetCharToolTipPrinter@ioPowerUpManager@@QAEXHHMAAVioComplexStringPrinter@@@Z ; ioPowerUpManager::SetCharToolTipPrinter
  00102	47		 inc	 edi
  00103	83 c6 20	 add	 esi, 32			; 00000020H
  00106	83 ff 0a	 cmp	 edi, 10			; 0000000aH
  00109	7c d8		 jl	 SHORT $LL3@SetCharInf
  0010b	5f		 pop	 edi
$LN21@SetCharInf:
  0010c	5b		 pop	 ebx
$LN1@SetCharInf:
  0010d	5e		 pop	 esi

; 520  : }

  0010e	c9		 leave
  0010f	c2 04 00	 ret	 4
?SetCharInfo@PowerUpToolTip@@IAEXH@Z ENDP		; PowerUpToolTip::SetCharInfo
_TEXT	ENDS
PUBLIC	?SetItemInfo@PowerUpToolTip@@IAEXH@Z		; PowerUpToolTip::SetItemInfo
EXTRN	?SetExtraItemToolTipPrinter@ioPowerUpManager@@QAEXHHMAAVioComplexStringPrinter@@@Z:PROC ; ioPowerUpManager::SetExtraItemToolTipPrinter
EXTRN	?GetExtraItemGradeToolTipSize@ioPowerUpManager@@QAEXHAAH0@Z:PROC ; ioPowerUpManager::GetExtraItemGradeToolTipSize
EXTRN	?GetRarePowerUpItemInfo@ioPowerUpManager@@QBEPBUPowerUpRareItemInfo@1@H@Z:PROC ; ioPowerUpManager::GetRarePowerUpItemInfo
; Function compile flags: /Ogsp
;	COMDAT ?SetItemInfo@PowerUpToolTip@@IAEXH@Z
_TEXT	SEGMENT
_SizeX$ = -16						; size = 4
_SizeY$ = -12						; size = 4
_iXPos$ = -8						; size = 4
_iYPos$ = -4						; size = 4
_nItemCode$ = 8						; size = 4
?SetItemInfo@PowerUpToolTip@@IAEXH@Z PROC		; PowerUpToolTip::SetItemInfo, COMDAT
; _this$ = ecx

; 523  : {

  00000	55		 push	 ebp
  00001	8b ec		 mov	 ebp, esp
  00003	83 ec 10	 sub	 esp, 16			; 00000010H
  00006	56		 push	 esi

; 524  : 	if( !g_PowerUpManager.GetRarePowerUpItemInfo( nItemCode ) )

  00007	ff 75 08	 push	 DWORD PTR _nItemCode$[ebp]
  0000a	8b f1		 mov	 esi, ecx
  0000c	e8 00 00 00 00	 call	 ?GetSingleton@ioPowerUpManager@@SAAAV1@XZ ; ioPowerUpManager::GetSingleton
  00011	8b c8		 mov	 ecx, eax
  00013	e8 00 00 00 00	 call	 ?GetRarePowerUpItemInfo@ioPowerUpManager@@QBEPBUPowerUpRareItemInfo@1@H@Z ; ioPowerUpManager::GetRarePowerUpItemInfo
  00018	85 c0		 test	 eax, eax
  0001a	75 0d		 jne	 SHORT $LN8@SetItemInf

; 525  : 	{
; 526  : 		HideWnd();

  0001c	8b ce		 mov	 ecx, esi
  0001e	ff 15 00 00 00
	00		 call	 DWORD PTR __imp_?HideWnd@ioWnd@@QAEXXZ

; 527  : 		return;

  00024	e9 e4 00 00 00	 jmp	 $LN1@SetItemInf
$LN8@SetItemInf:
  00029	53		 push	 ebx

; 528  : 	}
; 529  : 
; 530  : 	int SizeX,SizeY;
; 531  : 	g_PowerUpManager.GetExtraItemGradeToolTipSize( nItemCode, SizeX, SizeY );

  0002a	8d 45 f4	 lea	 eax, DWORD PTR _SizeY$[ebp]
  0002d	50		 push	 eax
  0002e	8d 45 f0	 lea	 eax, DWORD PTR _SizeX$[ebp]
  00031	50		 push	 eax
  00032	ff 75 08	 push	 DWORD PTR _nItemCode$[ebp]
  00035	e8 00 00 00 00	 call	 ?GetSingleton@ioPowerUpManager@@SAAAV1@XZ ; ioPowerUpManager::GetSingleton
  0003a	8b c8		 mov	 ecx, eax
  0003c	e8 00 00 00 00	 call	 ?GetExtraItemGradeToolTipSize@ioPowerUpManager@@QAEXHAAH0@Z ; ioPowerUpManager::GetExtraItemGradeToolTipSize

; 532  : 
; 533  : 	SetSize( SizeX, SizeY );

  00041	ff 75 f4	 push	 DWORD PTR _SizeY$[ebp]
  00044	8b 06		 mov	 eax, DWORD PTR [esi]
  00046	ff 75 f0	 push	 DWORD PTR _SizeX$[ebp]
  00049	8b ce		 mov	 ecx, esi
  0004b	ff 50 2c	 call	 DWORD PTR [eax+44]

; 534  : 
; 535  : 	ioLSMouse *pMouse = g_App.GetMouse();

  0004e	e8 00 00 00 00	 call	 ?GetSingleton@ioApplication@@SAAAV1@XZ ; ioApplication::GetSingleton
  00053	8b d8		 mov	 ebx, eax
  00055	81 c3 90 00 00
	00		 add	 ebx, 144		; 00000090H

; 536  : 	if( !pMouse ) 

  0005b	0f 84 ab 00 00
	00		 je	 $LN21@SetItemInf

; 537  : 		return;
; 538  : 
; 539  : 	int iXPos = 0;

  00061	83 65 f8 00	 and	 DWORD PTR _iXPos$[ebp], 0

; 540  : 	int iYPos = 0;

  00065	83 65 fc 00	 and	 DWORD PTR _iYPos$[ebp], 0
  00069	57		 push	 edi

; 541  : 
; 542  : 	Help::GetNotCutWndPos( pMouse->GetMousePos().x, pMouse->GetMousePos().y, GetWidth(), GetHeight(), iXPos, iYPos );

  0006a	8b cb		 mov	 ecx, ebx
  0006c	ff 15 00 00 00
	00		 call	 DWORD PTR __imp_?GetMousePos@ioMouse@@QBEABUtagPOINT@@XZ
  00072	8b f8		 mov	 edi, eax
  00074	8d 45 fc	 lea	 eax, DWORD PTR _iYPos$[ebp]
  00077	50		 push	 eax
  00078	8d 45 f8	 lea	 eax, DWORD PTR _iXPos$[ebp]
  0007b	50		 push	 eax
  0007c	8b ce		 mov	 ecx, esi
  0007e	ff 15 00 00 00
	00		 call	 DWORD PTR __imp_?GetHeight@ioWnd@@QBEHXZ
  00084	50		 push	 eax
  00085	8b ce		 mov	 ecx, esi
  00087	ff 15 00 00 00
	00		 call	 DWORD PTR __imp_?GetWidth@ioWnd@@QBEHXZ
  0008d	50		 push	 eax
  0008e	8b cb		 mov	 ecx, ebx
  00090	ff 15 00 00 00
	00		 call	 DWORD PTR __imp_?GetMousePos@ioMouse@@QBEABUtagPOINT@@XZ
  00096	ff 70 04	 push	 DWORD PTR [eax+4]
  00099	ff 37		 push	 DWORD PTR [edi]
  0009b	e8 00 00 00 00	 call	 ?GetNotCutWndPos@Help@@YAXHHHHAAH0@Z ; Help::GetNotCutWndPos

; 543  : 
; 544  : 	iXPos -= m_pParent->GetPosX();

  000a0	8b 4e 40	 mov	 ecx, DWORD PTR [esi+64]
  000a3	83 c4 18	 add	 esp, 24			; 00000018H
  000a6	ff 15 00 00 00
	00		 call	 DWORD PTR __imp_?GetXPos@ioWnd@@QBEHXZ

; 545  : 	iYPos -= m_pParent->GetPosY();

  000ac	8b 4e 40	 mov	 ecx, DWORD PTR [esi+64]
  000af	29 45 f8	 sub	 DWORD PTR _iXPos$[ebp], eax
  000b2	ff 15 00 00 00
	00		 call	 DWORD PTR __imp_?GetYPos@ioWnd@@QBEHXZ
  000b8	29 45 fc	 sub	 DWORD PTR _iYPos$[ebp], eax

; 546  : 	SetWndPos( iXPos, iYPos );

  000bb	ff 75 fc	 push	 DWORD PTR _iYPos$[ebp]
  000be	8b ce		 mov	 ecx, esi
  000c0	ff 75 f8	 push	 DWORD PTR _iXPos$[ebp]
  000c3	ff 15 00 00 00
	00		 call	 DWORD PTR __imp_?SetWndPos@ioWnd@@QAEXHH@Z
  000c9	81 c6 60 01 00
	00		 add	 esi, 352		; 00000160H
  000cf	6a 0a		 push	 10			; 0000000aH
  000d1	8b fe		 mov	 edi, esi
  000d3	5b		 pop	 ebx
$LL6@SetItemInf:

; 547  : 
; 548  : 	for( int i=0; i < MAX_TOOLTIP_DESC; ++i )
; 549  : 		m_szToolTip[i].ClearList();

  000d4	8b cf		 mov	 ecx, edi
  000d6	e8 00 00 00 00	 call	 ?ClearList@ioComplexStringPrinter@@QAEXXZ ; ioComplexStringPrinter::ClearList
  000db	83 c7 20	 add	 edi, 32			; 00000020H
  000de	4b		 dec	 ebx
  000df	75 f3		 jne	 SHORT $LL6@SetItemInf

; 550  : 
; 551  : 	for( int i=0; i < MAX_TOOLTIP_DESC; ++i )

  000e1	33 ff		 xor	 edi, edi
$LL3@SetItemInf:

; 552  : 		g_PowerUpManager.SetExtraItemToolTipPrinter( nItemCode, i,  FONT_SIZE_12, m_szToolTip[i] );

  000e3	f3 0f 10 05 00
	00 00 00	 movss	 xmm0, DWORD PTR __real@3f19999a
  000eb	56		 push	 esi
  000ec	51		 push	 ecx
  000ed	f3 0f 11 04 24	 movss	 DWORD PTR [esp], xmm0
  000f2	57		 push	 edi
  000f3	ff 75 08	 push	 DWORD PTR _nItemCode$[ebp]
  000f6	e8 00 00 00 00	 call	 ?GetSingleton@ioPowerUpManager@@SAAAV1@XZ ; ioPowerUpManager::GetSingleton
  000fb	8b c8		 mov	 ecx, eax
  000fd	e8 00 00 00 00	 call	 ?SetExtraItemToolTipPrinter@ioPowerUpManager@@QAEXHHMAAVioComplexStringPrinter@@@Z ; ioPowerUpManager::SetExtraItemToolTipPrinter
  00102	47		 inc	 edi
  00103	83 c6 20	 add	 esi, 32			; 00000020H
  00106	83 ff 0a	 cmp	 edi, 10			; 0000000aH
  00109	7c d8		 jl	 SHORT $LL3@SetItemInf
  0010b	5f		 pop	 edi
$LN21@SetItemInf:
  0010c	5b		 pop	 ebx
$LN1@SetItemInf:
  0010d	5e		 pop	 esi

; 553  : }

  0010e	c9		 leave
  0010f	c2 04 00	 ret	 4
?SetItemInfo@PowerUpToolTip@@IAEXH@Z ENDP		; PowerUpToolTip::SetItemInfo
_TEXT	ENDS
PUBLIC	??0?$_Vector_val@V?$basic_string@DU?$char_traits@D@std@@V?$allocator@D@2@@std@@V?$allocator@V?$basic_string@DU?$char_traits@D@std@@V?$allocator@D@2@@std@@@2@@std@@QAE@V?$allocator@V?$basic_string@DU?$char_traits@D@std@@V?$allocator@D@2@@std@@@1@@Z ; std::_Vector_val<std::basic_string<char,std::char_traits<char>,std::allocator<char> >,std::allocator<std::basic_string<char,std::char_traits<char>,std::allocator<char> > > >::_Vector_val<std::basic_string<char,std::char_traits<char>,std::allocator<char> >,std::allocator<std::basic_string<char,std::char_traits<char>,std::allocator<char> > > >
; Function compile flags: /Ogsp
; File c:\program files (x86)\microsoft visual studio 10.0\vc\include\vector
;	COMDAT ??0?$_Vector_val@V?$basic_string@DU?$char_traits@D@std@@V?$allocator@D@2@@std@@V?$allocator@V?$basic_string@DU?$char_traits@D@std@@V?$allocator@D@2@@std@@@2@@std@@QAE@V?$allocator@V?$basic_string@DU?$char_traits@D@std@@V?$allocator@D@2@@std@@@1@@Z
_TEXT	SEGMENT
__Al$ = 8						; size = 1
??0?$_Vector_val@V?$basic_string@DU?$char_traits@D@std@@V?$allocator@D@2@@std@@V?$allocator@V?$basic_string@DU?$char_traits@D@std@@V?$allocator@D@2@@std@@@2@@std@@QAE@V?$allocator@V?$basic_string@DU?$char_traits@D@std@@V?$allocator@D@2@@std@@@1@@Z PROC ; std::_Vector_val<std::basic_string<char,std::char_traits<char>,std::allocator<char> >,std::allocator<std::basic_string<char,std::char_traits<char>,std::allocator<char> > > >::_Vector_val<std::basic_string<char,std::char_traits<char>,std::allocator<char> >,std::allocator<std::basic_string<char,std::char_traits<char>,std::allocator<char> > > >, COMDAT
; _this$ = ecx

; 426  : 		{	// construct allocator from _Al

  00000	8b c1		 mov	 eax, ecx

; 427  : 		_Myfirst = 0;

  00002	33 c9		 xor	 ecx, ecx
  00004	89 08		 mov	 DWORD PTR [eax], ecx

; 428  : 		_Mylast = 0;

  00006	89 48 04	 mov	 DWORD PTR [eax+4], ecx

; 429  : 		_Myend = 0;

  00009	89 48 08	 mov	 DWORD PTR [eax+8], ecx

; 430  : 		}

  0000c	c2 04 00	 ret	 4
??0?$_Vector_val@V?$basic_string@DU?$char_traits@D@std@@V?$allocator@D@2@@std@@V?$allocator@V?$basic_string@DU?$char_traits@D@std@@V?$allocator@D@2@@std@@@2@@std@@QAE@V?$allocator@V?$basic_string@DU?$char_traits@D@std@@V?$allocator@D@2@@std@@@1@@Z ENDP ; std::_Vector_val<std::basic_string<char,std::char_traits<char>,std::allocator<char> >,std::allocator<std::basic_string<char,std::char_traits<char>,std::allocator<char> > > >::_Vector_val<std::basic_string<char,std::char_traits<char>,std::allocator<char> >,std::allocator<std::basic_string<char,std::char_traits<char>,std::allocator<char> > > >
_TEXT	ENDS
PUBLIC	??0?$_Vector_val@UEXTRAITEMSLOT@@V?$allocator@UEXTRAITEMSLOT@@@std@@@std@@QAE@V?$allocator@UEXTRAITEMSLOT@@@1@@Z ; std::_Vector_val<EXTRAITEMSLOT,std::allocator<EXTRAITEMSLOT> >::_Vector_val<EXTRAITEMSLOT,std::allocator<EXTRAITEMSLOT> >
; Function compile flags: /Ogsp
;	COMDAT ??0?$_Vector_val@UEXTRAITEMSLOT@@V?$allocator@UEXTRAITEMSLOT@@@std@@@std@@QAE@V?$allocator@UEXTRAITEMSLOT@@@1@@Z
_TEXT	SEGMENT
__Al$ = 8						; size = 1
??0?$_Vector_val@UEXTRAITEMSLOT@@V?$allocator@UEXTRAITEMSLOT@@@std@@@std@@QAE@V?$allocator@UEXTRAITEMSLOT@@@1@@Z PROC ; std::_Vector_val<EXTRAITEMSLOT,std::allocator<EXTRAITEMSLOT> >::_Vector_val<EXTRAITEMSLOT,std::allocator<EXTRAITEMSLOT> >, COMDAT
; _this$ = ecx

; 426  : 		{	// construct allocator from _Al

  00000	8b c1		 mov	 eax, ecx

; 427  : 		_Myfirst = 0;

  00002	33 c9		 xor	 ecx, ecx
  00004	89 08		 mov	 DWORD PTR [eax], ecx

; 428  : 		_Mylast = 0;

  00006	89 48 04	 mov	 DWORD PTR [eax+4], ecx

; 429  : 		_Myend = 0;

  00009	89 48 08	 mov	 DWORD PTR [eax+8], ecx

; 430  : 		}

  0000c	c2 04 00	 ret	 4
??0?$_Vector_val@UEXTRAITEMSLOT@@V?$allocator@UEXTRAITEMSLOT@@@std@@@std@@QAE@V?$allocator@UEXTRAITEMSLOT@@@1@@Z ENDP ; std::_Vector_val<EXTRAITEMSLOT,std::allocator<EXTRAITEMSLOT> >::_Vector_val<EXTRAITEMSLOT,std::allocator<EXTRAITEMSLOT> >
_TEXT	ENDS
PUBLIC	??0?$_Vector_val@UPowerupListInfo@@V?$allocator@UPowerupListInfo@@@std@@@std@@QAE@V?$allocator@UPowerupListInfo@@@1@@Z ; std::_Vector_val<PowerupListInfo,std::allocator<PowerupListInfo> >::_Vector_val<PowerupListInfo,std::allocator<PowerupListInfo> >
; Function compile flags: /Ogsp
;	COMDAT ??0?$_Vector_val@UPowerupListInfo@@V?$allocator@UPowerupListInfo@@@std@@@std@@QAE@V?$allocator@UPowerupListInfo@@@1@@Z
_TEXT	SEGMENT
__Al$ = 8						; size = 1
??0?$_Vector_val@UPowerupListInfo@@V?$allocator@UPowerupListInfo@@@std@@@std@@QAE@V?$allocator@UPowerupListInfo@@@1@@Z PROC ; std::_Vector_val<PowerupListInfo,std::allocator<PowerupListInfo> >::_Vector_val<PowerupListInfo,std::allocator<PowerupListInfo> >, COMDAT
; _this$ = ecx

; 426  : 		{	// construct allocator from _Al

  00000	8b c1		 mov	 eax, ecx

; 427  : 		_Myfirst = 0;

  00002	33 c9		 xor	 ecx, ecx
  00004	89 08		 mov	 DWORD PTR [eax], ecx

; 428  : 		_Mylast = 0;

  00006	89 48 04	 mov	 DWORD PTR [eax+4], ecx

; 429  : 		_Myend = 0;

  00009	89 48 08	 mov	 DWORD PTR [eax+8], ecx

; 430  : 		}

  0000c	c2 04 00	 ret	 4
??0?$_Vector_val@UPowerupListInfo@@V?$allocator@UPowerupListInfo@@@std@@@std@@QAE@V?$allocator@UPowerupListInfo@@@1@@Z ENDP ; std::_Vector_val<PowerupListInfo,std::allocator<PowerupListInfo> >::_Vector_val<PowerupListInfo,std::allocator<PowerupListInfo> >
_TEXT	ENDS
PUBLIC	??0?$_Vector_iterator@V?$_Vector_val@UPowerupListInfo@@V?$allocator@UPowerupListInfo@@@std@@@std@@@std@@QAE@PAUPowerupListInfo@@PBU_Container_base0@1@@Z ; std::_Vector_iterator<std::_Vector_val<PowerupListInfo,std::allocator<PowerupListInfo> > >::_Vector_iterator<std::_Vector_val<PowerupListInfo,std::allocator<PowerupListInfo> > >
; Function compile flags: /Ogsp
;	COMDAT ??0?$_Vector_iterator@V?$_Vector_val@UPowerupListInfo@@V?$allocator@UPowerupListInfo@@@std@@@std@@@std@@QAE@PAUPowerupListInfo@@PBU_Container_base0@1@@Z
_TEXT	SEGMENT
__Parg$ = 8						; size = 4
__Pvector$ = 12						; size = 4
??0?$_Vector_iterator@V?$_Vector_val@UPowerupListInfo@@V?$allocator@UPowerupListInfo@@@std@@@std@@@std@@QAE@PAUPowerupListInfo@@PBU_Container_base0@1@@Z PROC ; std::_Vector_iterator<std::_Vector_val<PowerupListInfo,std::allocator<PowerupListInfo> > >::_Vector_iterator<std::_Vector_val<PowerupListInfo,std::allocator<PowerupListInfo> > >, COMDAT
; _this$ = ecx

; 304  : 		{	// construct with pointer _Parg

  00000	55		 push	 ebp
  00001	8b ec		 mov	 ebp, esp
  00003	8b c1		 mov	 eax, ecx
  00005	8b 4d 08	 mov	 ecx, DWORD PTR __Parg$[ebp]
  00008	89 08		 mov	 DWORD PTR [eax], ecx

; 305  : 		}

  0000a	5d		 pop	 ebp
  0000b	c2 08 00	 ret	 8
??0?$_Vector_iterator@V?$_Vector_val@UPowerupListInfo@@V?$allocator@UPowerupListInfo@@@std@@@std@@@std@@QAE@PAUPowerupListInfo@@PBU_Container_base0@1@@Z ENDP ; std::_Vector_iterator<std::_Vector_val<PowerupListInfo,std::allocator<PowerupListInfo> > >::_Vector_iterator<std::_Vector_val<PowerupListInfo,std::allocator<PowerupListInfo> > >
_TEXT	ENDS
PUBLIC	?max_size@?$vector@V?$basic_string@DU?$char_traits@D@std@@V?$allocator@D@2@@std@@V?$allocator@V?$basic_string@DU?$char_traits@D@std@@V?$allocator@D@2@@std@@@2@@std@@QBEIXZ ; std::vector<std::basic_string<char,std::char_traits<char>,std::allocator<char> >,std::allocator<std::basic_string<char,std::char_traits<char>,std::allocator<char> > > >::max_size
; Function compile flags: /Ogsp
;	COMDAT ?max_size@?$vector@V?$basic_string@DU?$char_traits@D@std@@V?$allocator@D@2@@std@@V?$allocator@V?$basic_string@DU?$char_traits@D@std@@V?$allocator@D@2@@std@@@2@@std@@QBEIXZ
_TEXT	SEGMENT
?max_size@?$vector@V?$basic_string@DU?$char_traits@D@std@@V?$allocator@D@2@@std@@V?$allocator@V?$basic_string@DU?$char_traits@D@std@@V?$allocator@D@2@@std@@@2@@std@@QBEIXZ PROC ; std::vector<std::basic_string<char,std::char_traits<char>,std::allocator<char> >,std::allocator<std::basic_string<char,std::char_traits<char>,std::allocator<char> > > >::max_size, COMDAT
; _this$ = ecx

; 884  : 		return (this->_Alval.max_size());

  00000	b8 49 92 24 09	 mov	 eax, 153391689		; 09249249H

; 885  : 		}

  00005	c3		 ret	 0
?max_size@?$vector@V?$basic_string@DU?$char_traits@D@std@@V?$allocator@D@2@@std@@V?$allocator@V?$basic_string@DU?$char_traits@D@std@@V?$allocator@D@2@@std@@@2@@std@@QBEIXZ ENDP ; std::vector<std::basic_string<char,std::char_traits<char>,std::allocator<char> >,std::allocator<std::basic_string<char,std::char_traits<char>,std::allocator<char> > > >::max_size
_TEXT	ENDS
PUBLIC	?allocate@?$allocator@V?$basic_string@DU?$char_traits@D@std@@V?$allocator@D@2@@std@@@std@@QAEPAV?$basic_string@DU?$char_traits@D@std@@V?$allocator@D@2@@2@I@Z ; std::allocator<std::basic_string<char,std::char_traits<char>,std::allocator<char> > >::allocate
; Function compile flags: /Ogsp
; File c:\program files (x86)\microsoft visual studio 10.0\vc\include\xmemory
;	COMDAT ?allocate@?$allocator@V?$basic_string@DU?$char_traits@D@std@@V?$allocator@D@2@@std@@@std@@QAEPAV?$basic_string@DU?$char_traits@D@std@@V?$allocator@D@2@@2@I@Z
_TEXT	SEGMENT
__Count$ = 8						; size = 4
?allocate@?$allocator@V?$basic_string@DU?$char_traits@D@std@@V?$allocator@D@2@@std@@@std@@QAEPAV?$basic_string@DU?$char_traits@D@std@@V?$allocator@D@2@@2@I@Z PROC ; std::allocator<std::basic_string<char,std::char_traits<char>,std::allocator<char> > >::allocate, COMDAT
; _this$ = ecx

; 186  : 		{	// allocate array of _Count elements

  00000	55		 push	 ebp
  00001	8b ec		 mov	 ebp, esp

; 187  : 		return (_Allocate(_Count, (pointer)0));

  00003	6a 00		 push	 0
  00005	ff 75 08	 push	 DWORD PTR __Count$[ebp]
  00008	e8 00 00 00 00	 call	 ??$_Allocate@V?$basic_string@DU?$char_traits@D@std@@V?$allocator@D@2@@std@@@std@@YAPAV?$basic_string@DU?$char_traits@D@std@@V?$allocator@D@2@@0@IPAV10@@Z ; std::_Allocate<std::basic_string<char,std::char_traits<char>,std::allocator<char> > >
  0000d	59		 pop	 ecx
  0000e	59		 pop	 ecx

; 188  : 		}

  0000f	5d		 pop	 ebp
  00010	c2 04 00	 ret	 4
?allocate@?$allocator@V?$basic_string@DU?$char_traits@D@std@@V?$allocator@D@2@@std@@@std@@QAEPAV?$basic_string@DU?$char_traits@D@std@@V?$allocator@D@2@@2@I@Z ENDP ; std::allocator<std::basic_string<char,std::char_traits<char>,std::allocator<char> > >::allocate
_TEXT	ENDS
PUBLIC	?_Make_iter@?$vector@UPowerupListInfo@@V?$allocator@UPowerupListInfo@@@std@@@std@@QBE?AV?$_Vector_iterator@V?$_Vector_val@UPowerupListInfo@@V?$allocator@UPowerupListInfo@@@std@@@std@@@2@V?$_Vector_const_iterator@V?$_Vector_val@UPowerupListInfo@@V?$allocator@UPowerupListInfo@@@std@@@std@@@2@@Z ; std::vector<PowerupListInfo,std::allocator<PowerupListInfo> >::_Make_iter
; Function compile flags: /Ogsp
; File c:\program files (x86)\microsoft visual studio 10.0\vc\include\vector
;	COMDAT ?_Make_iter@?$vector@UPowerupListInfo@@V?$allocator@UPowerupListInfo@@@std@@@std@@QBE?AV?$_Vector_iterator@V?$_Vector_val@UPowerupListInfo@@V?$allocator@UPowerupListInfo@@@std@@@std@@@2@V?$_Vector_const_iterator@V?$_Vector_val@UPowerupListInfo@@V?$allocator@UPowerupListInfo@@@std@@@std@@@2@@Z
_TEXT	SEGMENT
___$ReturnUdt$ = 8					; size = 4
__Where$ = 12						; size = 4
?_Make_iter@?$vector@UPowerupListInfo@@V?$allocator@UPowerupListInfo@@@std@@@std@@QBE?AV?$_Vector_iterator@V?$_Vector_val@UPowerupListInfo@@V?$allocator@UPowerupListInfo@@@std@@@std@@@2@V?$_Vector_const_iterator@V?$_Vector_val@UPowerupListInfo@@V?$allocator@UPowerupListInfo@@@std@@@std@@@2@@Z PROC ; std::vector<PowerupListInfo,std::allocator<PowerupListInfo> >::_Make_iter, COMDAT
; _this$ = ecx

; 801  : 		{	// make iterator from const_iterator

  00000	55		 push	 ebp
  00001	8b ec		 mov	 ebp, esp

; 802  : 		return (iterator(_Where._Ptr, this));

  00003	8b 45 08	 mov	 eax, DWORD PTR ___$ReturnUdt$[ebp]
  00006	8b 4d 0c	 mov	 ecx, DWORD PTR __Where$[ebp]
  00009	89 08		 mov	 DWORD PTR [eax], ecx

; 803  : 		}

  0000b	5d		 pop	 ebp
  0000c	c2 08 00	 ret	 8
?_Make_iter@?$vector@UPowerupListInfo@@V?$allocator@UPowerupListInfo@@@std@@@std@@QBE?AV?$_Vector_iterator@V?$_Vector_val@UPowerupListInfo@@V?$allocator@UPowerupListInfo@@@std@@@std@@@2@V?$_Vector_const_iterator@V?$_Vector_val@UPowerupListInfo@@V?$allocator@UPowerupListInfo@@@std@@@std@@@2@@Z ENDP ; std::vector<PowerupListInfo,std::allocator<PowerupListInfo> >::_Make_iter
_TEXT	ENDS
PUBLIC	?max_size@?$vector@UPowerupListInfo@@V?$allocator@UPowerupListInfo@@@std@@@std@@QBEIXZ ; std::vector<PowerupListInfo,std::allocator<PowerupListInfo> >::max_size
; Function compile flags: /Ogsp
;	COMDAT ?max_size@?$vector@UPowerupListInfo@@V?$allocator@UPowerupListInfo@@@std@@@std@@QBEIXZ
_TEXT	SEGMENT
?max_size@?$vector@UPowerupListInfo@@V?$allocator@UPowerupListInfo@@@std@@@std@@QBEIXZ PROC ; std::vector<PowerupListInfo,std::allocator<PowerupListInfo> >::max_size, COMDAT
; _this$ = ecx

; 884  : 		return (this->_Alval.max_size());

  00000	b8 55 55 55 15	 mov	 eax, 357913941		; 15555555H

; 885  : 		}

  00005	c3		 ret	 0
?max_size@?$vector@UPowerupListInfo@@V?$allocator@UPowerupListInfo@@@std@@@std@@QBEIXZ ENDP ; std::vector<PowerupListInfo,std::allocator<PowerupListInfo> >::max_size
_TEXT	ENDS
PUBLIC	?_Grow_to@?$vector@UPowerupListInfo@@V?$allocator@UPowerupListInfo@@@std@@@std@@IBEII@Z ; std::vector<PowerupListInfo,std::allocator<PowerupListInfo> >::_Grow_to
; Function compile flags: /Ogsp
;	COMDAT ?_Grow_to@?$vector@UPowerupListInfo@@V?$allocator@UPowerupListInfo@@@std@@@std@@IBEII@Z
_TEXT	SEGMENT
__Count$ = 8						; size = 4
?_Grow_to@?$vector@UPowerupListInfo@@V?$allocator@UPowerupListInfo@@@std@@@std@@IBEII@Z PROC ; std::vector<PowerupListInfo,std::allocator<PowerupListInfo> >::_Grow_to, COMDAT
; _this$ = ecx

; 1274 : 		{	// grow by 50% or at least to _Count

  00000	55		 push	 ebp
  00001	8b ec		 mov	 ebp, esp

; 1275 : 		size_type _Capacity = capacity();

  00003	8b 41 08	 mov	 eax, DWORD PTR [ecx+8]
  00006	2b 01		 sub	 eax, DWORD PTR [ecx]
  00008	6a 0c		 push	 12			; 0000000cH
  0000a	99		 cdq
  0000b	59		 pop	 ecx
  0000c	f7 f9		 idiv	 ecx

; 1276 : 
; 1277 : 		_Capacity = max_size() - _Capacity / 2 < _Capacity
; 1278 : 			? 0 : _Capacity + _Capacity / 2;	// try to grow by 50%

  0000e	ba 55 55 55 15	 mov	 edx, 357913941		; 15555555H
  00013	8b c8		 mov	 ecx, eax
  00015	d1 e9		 shr	 ecx, 1
  00017	2b d1		 sub	 edx, ecx
  00019	3b d0		 cmp	 edx, eax
  0001b	73 04		 jae	 SHORT $LN4@Grow_to
  0001d	33 c0		 xor	 eax, eax
  0001f	eb 02		 jmp	 SHORT $LN5@Grow_to
$LN4@Grow_to:
  00021	03 c1		 add	 eax, ecx
$LN5@Grow_to:

; 1279 : 		if (_Capacity < _Count)

  00023	3b 45 08	 cmp	 eax, DWORD PTR __Count$[ebp]

; 1280 : 			_Capacity = _Count;

  00026	0f 42 45 08	 cmovb	 eax, DWORD PTR __Count$[ebp]

; 1281 : 		return (_Capacity);
; 1282 : 		}

  0002a	5d		 pop	 ebp
  0002b	c2 04 00	 ret	 4
?_Grow_to@?$vector@UPowerupListInfo@@V?$allocator@UPowerupListInfo@@@std@@@std@@IBEII@Z ENDP ; std::vector<PowerupListInfo,std::allocator<PowerupListInfo> >::_Grow_to
_TEXT	ENDS
PUBLIC	??0?$_Vector_iterator@V?$_Vector_val@V?$basic_string@DU?$char_traits@D@std@@V?$allocator@D@2@@std@@V?$allocator@V?$basic_string@DU?$char_traits@D@std@@V?$allocator@D@2@@std@@@2@@std@@@std@@QAE@PAV?$basic_string@DU?$char_traits@D@std@@V?$allocator@D@2@@1@PBU_Container_base0@1@@Z ; std::_Vector_iterator<std::_Vector_val<std::basic_string<char,std::char_traits<char>,std::allocator<char> >,std::allocator<std::basic_string<char,std::char_traits<char>,std::allocator<char> > > > >::_Vector_iterator<std::_Vector_val<std::basic_string<char,std::char_traits<char>,std::allocator<char> >,std::allocator<std::basic_string<char,std::char_traits<char>,std::allocator<char> > > > >
; Function compile flags: /Ogsp
;	COMDAT ??0?$_Vector_iterator@V?$_Vector_val@V?$basic_string@DU?$char_traits@D@std@@V?$allocator@D@2@@std@@V?$allocator@V?$basic_string@DU?$char_traits@D@std@@V?$allocator@D@2@@std@@@2@@std@@@std@@QAE@PAV?$basic_string@DU?$char_traits@D@std@@V?$allocator@D@2@@1@PBU_Container_base0@1@@Z
_TEXT	SEGMENT
__Parg$ = 8						; size = 4
__Pvector$ = 12						; size = 4
??0?$_Vector_iterator@V?$_Vector_val@V?$basic_string@DU?$char_traits@D@std@@V?$allocator@D@2@@std@@V?$allocator@V?$basic_string@DU?$char_traits@D@std@@V?$allocator@D@2@@std@@@2@@std@@@std@@QAE@PAV?$basic_string@DU?$char_traits@D@std@@V?$allocator@D@2@@1@PBU_Container_base0@1@@Z PROC ; std::_Vector_iterator<std::_Vector_val<std::basic_string<char,std::char_traits<char>,std::allocator<char> >,std::allocator<std::basic_string<char,std::char_traits<char>,std::allocator<char> > > > >::_Vector_iterator<std::_Vector_val<std::basic_string<char,std::char_traits<char>,std::allocator<char> >,std::allocator<std::basic_string<char,std::char_traits<char>,std::allocator<char> > > > >, COMDAT
; _this$ = ecx

; 304  : 		{	// construct with pointer _Parg

  00000	55		 push	 ebp
  00001	8b ec		 mov	 ebp, esp
  00003	8b c1		 mov	 eax, ecx
  00005	8b 4d 08	 mov	 ecx, DWORD PTR __Parg$[ebp]
  00008	89 08		 mov	 DWORD PTR [eax], ecx

; 305  : 		}

  0000a	5d		 pop	 ebp
  0000b	c2 08 00	 ret	 8
??0?$_Vector_iterator@V?$_Vector_val@V?$basic_string@DU?$char_traits@D@std@@V?$allocator@D@2@@std@@V?$allocator@V?$basic_string@DU?$char_traits@D@std@@V?$allocator@D@2@@std@@@2@@std@@@std@@QAE@PAV?$basic_string@DU?$char_traits@D@std@@V?$allocator@D@2@@1@PBU_Container_base0@1@@Z ENDP ; std::_Vector_iterator<std::_Vector_val<std::basic_string<char,std::char_traits<char>,std::allocator<char> >,std::allocator<std::basic_string<char,std::char_traits<char>,std::allocator<char> > > > >::_Vector_iterator<std::_Vector_val<std::basic_string<char,std::char_traits<char>,std::allocator<char> >,std::allocator<std::basic_string<char,std::char_traits<char>,std::allocator<char> > > > >
_TEXT	ENDS
PUBLIC	??0?$_Vector_iterator@V?$_Vector_val@UEXTRAITEMSLOT@@V?$allocator@UEXTRAITEMSLOT@@@std@@@std@@@std@@QAE@PAUEXTRAITEMSLOT@@PBU_Container_base0@1@@Z ; std::_Vector_iterator<std::_Vector_val<EXTRAITEMSLOT,std::allocator<EXTRAITEMSLOT> > >::_Vector_iterator<std::_Vector_val<EXTRAITEMSLOT,std::allocator<EXTRAITEMSLOT> > >
; Function compile flags: /Ogsp
;	COMDAT ??0?$_Vector_iterator@V?$_Vector_val@UEXTRAITEMSLOT@@V?$allocator@UEXTRAITEMSLOT@@@std@@@std@@@std@@QAE@PAUEXTRAITEMSLOT@@PBU_Container_base0@1@@Z
_TEXT	SEGMENT
__Parg$ = 8						; size = 4
__Pvector$ = 12						; size = 4
??0?$_Vector_iterator@V?$_Vector_val@UEXTRAITEMSLOT@@V?$allocator@UEXTRAITEMSLOT@@@std@@@std@@@std@@QAE@PAUEXTRAITEMSLOT@@PBU_Container_base0@1@@Z PROC ; std::_Vector_iterator<std::_Vector_val<EXTRAITEMSLOT,std::allocator<EXTRAITEMSLOT> > >::_Vector_iterator<std::_Vector_val<EXTRAITEMSLOT,std::allocator<EXTRAITEMSLOT> > >, COMDAT
; _this$ = ecx

; 304  : 		{	// construct with pointer _Parg

  00000	55		 push	 ebp
  00001	8b ec		 mov	 ebp, esp
  00003	8b c1		 mov	 eax, ecx
  00005	8b 4d 08	 mov	 ecx, DWORD PTR __Parg$[ebp]
  00008	89 08		 mov	 DWORD PTR [eax], ecx

; 305  : 		}

  0000a	5d		 pop	 ebp
  0000b	c2 08 00	 ret	 8
??0?$_Vector_iterator@V?$_Vector_val@UEXTRAITEMSLOT@@V?$allocator@UEXTRAITEMSLOT@@@std@@@std@@@std@@QAE@PAUEXTRAITEMSLOT@@PBU_Container_base0@1@@Z ENDP ; std::_Vector_iterator<std::_Vector_val<EXTRAITEMSLOT,std::allocator<EXTRAITEMSLOT> > >::_Vector_iterator<std::_Vector_val<EXTRAITEMSLOT,std::allocator<EXTRAITEMSLOT> > >
_TEXT	ENDS
PUBLIC	?allocate@?$allocator@UPowerupListInfo@@@std@@QAEPAUPowerupListInfo@@I@Z ; std::allocator<PowerupListInfo>::allocate
; Function compile flags: /Ogsp
; File c:\program files (x86)\microsoft visual studio 10.0\vc\include\xmemory
;	COMDAT ?allocate@?$allocator@UPowerupListInfo@@@std@@QAEPAUPowerupListInfo@@I@Z
_TEXT	SEGMENT
__Count$ = 8						; size = 4
?allocate@?$allocator@UPowerupListInfo@@@std@@QAEPAUPowerupListInfo@@I@Z PROC ; std::allocator<PowerupListInfo>::allocate, COMDAT
; _this$ = ecx

; 186  : 		{	// allocate array of _Count elements

  00000	55		 push	 ebp
  00001	8b ec		 mov	 ebp, esp

; 187  : 		return (_Allocate(_Count, (pointer)0));

  00003	6a 00		 push	 0
  00005	ff 75 08	 push	 DWORD PTR __Count$[ebp]
  00008	e8 00 00 00 00	 call	 ??$_Allocate@UPowerupListInfo@@@std@@YAPAUPowerupListInfo@@IPAU1@@Z ; std::_Allocate<PowerupListInfo>
  0000d	59		 pop	 ecx
  0000e	59		 pop	 ecx

; 188  : 		}

  0000f	5d		 pop	 ebp
  00010	c2 04 00	 ret	 4
?allocate@?$allocator@UPowerupListInfo@@@std@@QAEPAUPowerupListInfo@@I@Z ENDP ; std::allocator<PowerupListInfo>::allocate
_TEXT	ENDS
PUBLIC	??8?$_Vector_const_iterator@V?$_Vector_val@UPowerupListInfo@@V?$allocator@UPowerupListInfo@@@std@@@std@@@std@@QBE_NABV01@@Z ; std::_Vector_const_iterator<std::_Vector_val<PowerupListInfo,std::allocator<PowerupListInfo> > >::operator==
; Function compile flags: /Ogsp
; File c:\program files (x86)\microsoft visual studio 10.0\vc\include\vector
;	COMDAT ??8?$_Vector_const_iterator@V?$_Vector_val@UPowerupListInfo@@V?$allocator@UPowerupListInfo@@@std@@@std@@@std@@QBE_NABV01@@Z
_TEXT	SEGMENT
__Right$ = 8						; size = 4
??8?$_Vector_const_iterator@V?$_Vector_val@UPowerupListInfo@@V?$allocator@UPowerupListInfo@@@std@@@std@@@std@@QBE_NABV01@@Z PROC ; std::_Vector_const_iterator<std::_Vector_val<PowerupListInfo,std::allocator<PowerupListInfo> > >::operator==, COMDAT
; _this$ = ecx

; 201  : 		{	// test for iterator equality

  00000	55		 push	 ebp
  00001	8b ec		 mov	 ebp, esp

; 202  : 		_Compat(_Right);
; 203  : 		return (this->_Ptr == _Right._Ptr);

  00003	8b 01		 mov	 eax, DWORD PTR [ecx]
  00005	8b 4d 08	 mov	 ecx, DWORD PTR __Right$[ebp]
  00008	2b 01		 sub	 eax, DWORD PTR [ecx]
  0000a	f7 d8		 neg	 eax
  0000c	1b c0		 sbb	 eax, eax
  0000e	40		 inc	 eax

; 204  : 		}

  0000f	5d		 pop	 ebp
  00010	c2 04 00	 ret	 4
??8?$_Vector_const_iterator@V?$_Vector_val@UPowerupListInfo@@V?$allocator@UPowerupListInfo@@@std@@@std@@@std@@QBE_NABV01@@Z ENDP ; std::_Vector_const_iterator<std::_Vector_val<PowerupListInfo,std::allocator<PowerupListInfo> > >::operator==
_TEXT	ENDS
PUBLIC	??8?$_Vector_const_iterator@V?$_Vector_val@V?$basic_string@DU?$char_traits@D@std@@V?$allocator@D@2@@std@@V?$allocator@V?$basic_string@DU?$char_traits@D@std@@V?$allocator@D@2@@std@@@2@@std@@@std@@QBE_NABV01@@Z ; std::_Vector_const_iterator<std::_Vector_val<std::basic_string<char,std::char_traits<char>,std::allocator<char> >,std::allocator<std::basic_string<char,std::char_traits<char>,std::allocator<char> > > > >::operator==
; Function compile flags: /Ogsp
;	COMDAT ??8?$_Vector_const_iterator@V?$_Vector_val@V?$basic_string@DU?$char_traits@D@std@@V?$allocator@D@2@@std@@V?$allocator@V?$basic_string@DU?$char_traits@D@std@@V?$allocator@D@2@@std@@@2@@std@@@std@@QBE_NABV01@@Z
_TEXT	SEGMENT
__Right$ = 8						; size = 4
??8?$_Vector_const_iterator@V?$_Vector_val@V?$basic_string@DU?$char_traits@D@std@@V?$allocator@D@2@@std@@V?$allocator@V?$basic_string@DU?$char_traits@D@std@@V?$allocator@D@2@@std@@@2@@std@@@std@@QBE_NABV01@@Z PROC ; std::_Vector_const_iterator<std::_Vector_val<std::basic_string<char,std::char_traits<char>,std::allocator<char> >,std::allocator<std::basic_string<char,std::char_traits<char>,std::allocator<char> > > > >::operator==, COMDAT
; _this$ = ecx

; 201  : 		{	// test for iterator equality

  00000	55		 push	 ebp
  00001	8b ec		 mov	 ebp, esp

; 202  : 		_Compat(_Right);
; 203  : 		return (this->_Ptr == _Right._Ptr);

  00003	8b 01		 mov	 eax, DWORD PTR [ecx]
  00005	8b 4d 08	 mov	 ecx, DWORD PTR __Right$[ebp]
  00008	2b 01		 sub	 eax, DWORD PTR [ecx]
  0000a	f7 d8		 neg	 eax
  0000c	1b c0		 sbb	 eax, eax
  0000e	40		 inc	 eax

; 204  : 		}

  0000f	5d		 pop	 ebp
  00010	c2 04 00	 ret	 4
??8?$_Vector_const_iterator@V?$_Vector_val@V?$basic_string@DU?$char_traits@D@std@@V?$allocator@D@2@@std@@V?$allocator@V?$basic_string@DU?$char_traits@D@std@@V?$allocator@D@2@@std@@@2@@std@@@std@@QBE_NABV01@@Z ENDP ; std::_Vector_const_iterator<std::_Vector_val<std::basic_string<char,std::char_traits<char>,std::allocator<char> >,std::allocator<std::basic_string<char,std::char_traits<char>,std::allocator<char> > > > >::operator==
_TEXT	ENDS
PUBLIC	??8?$_Vector_const_iterator@V?$_Vector_val@UEXTRAITEMSLOT@@V?$allocator@UEXTRAITEMSLOT@@@std@@@std@@@std@@QBE_NABV01@@Z ; std::_Vector_const_iterator<std::_Vector_val<EXTRAITEMSLOT,std::allocator<EXTRAITEMSLOT> > >::operator==
; Function compile flags: /Ogsp
;	COMDAT ??8?$_Vector_const_iterator@V?$_Vector_val@UEXTRAITEMSLOT@@V?$allocator@UEXTRAITEMSLOT@@@std@@@std@@@std@@QBE_NABV01@@Z
_TEXT	SEGMENT
__Right$ = 8						; size = 4
??8?$_Vector_const_iterator@V?$_Vector_val@UEXTRAITEMSLOT@@V?$allocator@UEXTRAITEMSLOT@@@std@@@std@@@std@@QBE_NABV01@@Z PROC ; std::_Vector_const_iterator<std::_Vector_val<EXTRAITEMSLOT,std::allocator<EXTRAITEMSLOT> > >::operator==, COMDAT
; _this$ = ecx

; 201  : 		{	// test for iterator equality

  00000	55		 push	 ebp
  00001	8b ec		 mov	 ebp, esp

; 202  : 		_Compat(_Right);
; 203  : 		return (this->_Ptr == _Right._Ptr);

  00003	8b 01		 mov	 eax, DWORD PTR [ecx]
  00005	8b 4d 08	 mov	 ecx, DWORD PTR __Right$[ebp]
  00008	2b 01		 sub	 eax, DWORD PTR [ecx]
  0000a	f7 d8		 neg	 eax
  0000c	1b c0		 sbb	 eax, eax
  0000e	40		 inc	 eax

; 204  : 		}

  0000f	5d		 pop	 ebp
  00010	c2 04 00	 ret	 4
??8?$_Vector_const_iterator@V?$_Vector_val@UEXTRAITEMSLOT@@V?$allocator@UEXTRAITEMSLOT@@@std@@@std@@@std@@QBE_NABV01@@Z ENDP ; std::_Vector_const_iterator<std::_Vector_val<EXTRAITEMSLOT,std::allocator<EXTRAITEMSLOT> > >::operator==
_TEXT	ENDS
PUBLIC	??$_Cons_val@V?$allocator@UPowerupListInfo@@@std@@UPowerupListInfo@@AAU3@@std@@YAXAAV?$allocator@UPowerupListInfo@@@0@PAUPowerupListInfo@@AAU2@@Z ; std::_Cons_val<std::allocator<PowerupListInfo>,PowerupListInfo,PowerupListInfo &>
; Function compile flags: /Ogsp
; File c:\program files (x86)\microsoft visual studio 10.0\vc\include\xmemory
;	COMDAT ??$_Cons_val@V?$allocator@UPowerupListInfo@@@std@@UPowerupListInfo@@AAU3@@std@@YAXAAV?$allocator@UPowerupListInfo@@@0@PAUPowerupListInfo@@AAU2@@Z
_TEXT	SEGMENT
__Alval$ = 8						; size = 4
__Pdest$ = 12						; size = 4
__Src$ = 16						; size = 4
??$_Cons_val@V?$allocator@UPowerupListInfo@@@std@@UPowerupListInfo@@AAU3@@std@@YAXAAV?$allocator@UPowerupListInfo@@@0@PAUPowerupListInfo@@AAU2@@Z PROC ; std::_Cons_val<std::allocator<PowerupListInfo>,PowerupListInfo,PowerupListInfo &>, COMDAT

; 279  : 	{	// construct using allocator

  00000	55		 push	 ebp
  00001	8b ec		 mov	 ebp, esp
  00003	57		 push	 edi

; 280  : 	_Alval.construct(_Pdest, _STD forward<_Ty2>(_Src));

  00004	8b 7d 0c	 mov	 edi, DWORD PTR __Pdest$[ebp]
  00007	85 ff		 test	 edi, edi
  00009	74 08		 je	 SHORT $LN7@Cons_val
  0000b	56		 push	 esi
  0000c	8b 75 10	 mov	 esi, DWORD PTR __Src$[ebp]
  0000f	a5		 movsd
  00010	a5		 movsd
  00011	a5		 movsd
  00012	5e		 pop	 esi
$LN7@Cons_val:
  00013	5f		 pop	 edi

; 281  : 	}

  00014	5d		 pop	 ebp
  00015	c3		 ret	 0
??$_Cons_val@V?$allocator@UPowerupListInfo@@@std@@UPowerupListInfo@@AAU3@@std@@YAXAAV?$allocator@UPowerupListInfo@@@0@PAUPowerupListInfo@@AAU2@@Z ENDP ; std::_Cons_val<std::allocator<PowerupListInfo>,PowerupListInfo,PowerupListInfo &>
_TEXT	ENDS
PUBLIC	?construct@?$allocator@UPowerupListInfo@@@std@@QAEXPAUPowerupListInfo@@ABU3@@Z ; std::allocator<PowerupListInfo>::construct
; Function compile flags: /Ogsp
;	COMDAT ?construct@?$allocator@UPowerupListInfo@@@std@@QAEXPAUPowerupListInfo@@ABU3@@Z
_TEXT	SEGMENT
__Ptr$ = 8						; size = 4
__Val$ = 12						; size = 4
?construct@?$allocator@UPowerupListInfo@@@std@@QAEXPAUPowerupListInfo@@ABU3@@Z PROC ; std::allocator<PowerupListInfo>::construct, COMDAT
; _this$ = ecx

; 196  : 		{	// construct object at _Ptr with value _Val

  00000	55		 push	 ebp
  00001	8b ec		 mov	 ebp, esp
  00003	57		 push	 edi

; 197  : 		_Construct(_Ptr, _Val);

  00004	8b 7d 08	 mov	 edi, DWORD PTR __Ptr$[ebp]
  00007	85 ff		 test	 edi, edi
  00009	74 08		 je	 SHORT $LN5@construct@2
  0000b	56		 push	 esi
  0000c	8b 75 0c	 mov	 esi, DWORD PTR __Val$[ebp]
  0000f	a5		 movsd
  00010	a5		 movsd
  00011	a5		 movsd
  00012	5e		 pop	 esi
$LN5@construct@2:
  00013	5f		 pop	 edi

; 198  : 		}

  00014	5d		 pop	 ebp
  00015	c2 08 00	 ret	 8
?construct@?$allocator@UPowerupListInfo@@@std@@QAEXPAUPowerupListInfo@@ABU3@@Z ENDP ; std::allocator<PowerupListInfo>::construct
_TEXT	ENDS
PUBLIC	??G?$_Vector_iterator@V?$_Vector_val@UPowerupListInfo@@V?$allocator@UPowerupListInfo@@@std@@@std@@@std@@QBEHABV?$_Vector_const_iterator@V?$_Vector_val@UPowerupListInfo@@V?$allocator@UPowerupListInfo@@@std@@@std@@@1@@Z ; std::_Vector_iterator<std::_Vector_val<PowerupListInfo,std::allocator<PowerupListInfo> > >::operator-
; Function compile flags: /Ogsp
; File c:\program files (x86)\microsoft visual studio 10.0\vc\include\vector
;	COMDAT ??G?$_Vector_iterator@V?$_Vector_val@UPowerupListInfo@@V?$allocator@UPowerupListInfo@@@std@@@std@@@std@@QBEHABV?$_Vector_const_iterator@V?$_Vector_val@UPowerupListInfo@@V?$allocator@UPowerupListInfo@@@std@@@std@@@1@@Z
_TEXT	SEGMENT
__Right$ = 8						; size = 4
??G?$_Vector_iterator@V?$_Vector_val@UPowerupListInfo@@V?$allocator@UPowerupListInfo@@@std@@@std@@@std@@QBEHABV?$_Vector_const_iterator@V?$_Vector_val@UPowerupListInfo@@V?$allocator@UPowerupListInfo@@@std@@@std@@@1@@Z PROC ; std::_Vector_iterator<std::_Vector_val<PowerupListInfo,std::allocator<PowerupListInfo> > >::operator-, COMDAT
; _this$ = ecx

; 380  : 		{	// return difference of iterators

  00000	55		 push	 ebp
  00001	8b ec		 mov	 ebp, esp

; 381  : 		return (*(_Mybase *)this - _Right);

  00003	8b 01		 mov	 eax, DWORD PTR [ecx]
  00005	8b 4d 08	 mov	 ecx, DWORD PTR __Right$[ebp]
  00008	2b 01		 sub	 eax, DWORD PTR [ecx]
  0000a	6a 0c		 push	 12			; 0000000cH
  0000c	99		 cdq
  0000d	59		 pop	 ecx
  0000e	f7 f9		 idiv	 ecx

; 382  : 		}

  00010	5d		 pop	 ebp
  00011	c2 04 00	 ret	 4
??G?$_Vector_iterator@V?$_Vector_val@UPowerupListInfo@@V?$allocator@UPowerupListInfo@@@std@@@std@@@std@@QBEHABV?$_Vector_const_iterator@V?$_Vector_val@UPowerupListInfo@@V?$allocator@UPowerupListInfo@@@std@@@std@@@1@@Z ENDP ; std::_Vector_iterator<std::_Vector_val<PowerupListInfo,std::allocator<PowerupListInfo> > >::operator-
_TEXT	ENDS
PUBLIC	??$_Unchecked@V?$_Vector_val@UPowerupListInfo@@V?$allocator@UPowerupListInfo@@@std@@@std@@@std@@YAPAUPowerupListInfo@@V?$_Vector_iterator@V?$_Vector_val@UPowerupListInfo@@V?$allocator@UPowerupListInfo@@@std@@@std@@@0@@Z ; std::_Unchecked<std::_Vector_val<PowerupListInfo,std::allocator<PowerupListInfo> > >
; Function compile flags: /Ogsp
;	COMDAT ??$_Unchecked@V?$_Vector_val@UPowerupListInfo@@V?$allocator@UPowerupListInfo@@@std@@@std@@@std@@YAPAUPowerupListInfo@@V?$_Vector_iterator@V?$_Vector_val@UPowerupListInfo@@V?$allocator@UPowerupListInfo@@@std@@@std@@@0@@Z
_TEXT	SEGMENT
__Iter$ = 8						; size = 4
??$_Unchecked@V?$_Vector_val@UPowerupListInfo@@V?$allocator@UPowerupListInfo@@@std@@@std@@@std@@YAPAUPowerupListInfo@@V?$_Vector_iterator@V?$_Vector_val@UPowerupListInfo@@V?$allocator@UPowerupListInfo@@@std@@@std@@@0@@Z PROC ; std::_Unchecked<std::_Vector_val<PowerupListInfo,std::allocator<PowerupListInfo> > >, COMDAT

; 393  : 	{	// convert to unchecked

  00000	55		 push	 ebp
  00001	8b ec		 mov	 ebp, esp

; 394  : 	return (_Iter._Unchecked());

  00003	8b 45 08	 mov	 eax, DWORD PTR __Iter$[ebp]

; 395  : 	}

  00006	5d		 pop	 ebp
  00007	c3		 ret	 0
??$_Unchecked@V?$_Vector_val@UPowerupListInfo@@V?$allocator@UPowerupListInfo@@@std@@@std@@@std@@YAPAUPowerupListInfo@@V?$_Vector_iterator@V?$_Vector_val@UPowerupListInfo@@V?$allocator@UPowerupListInfo@@@std@@@std@@@0@@Z ENDP ; std::_Unchecked<std::_Vector_val<PowerupListInfo,std::allocator<PowerupListInfo> > >
_TEXT	ENDS
PUBLIC	??$_Move@PAUEXTRAITEMSLOT@@PAU1@@std@@YAPAUEXTRAITEMSLOT@@PAU1@00U_Nonscalar_ptr_iterator_tag@0@@Z ; std::_Move<EXTRAITEMSLOT *,EXTRAITEMSLOT *>
; Function compile flags: /Ogsp
; File c:\program files (x86)\microsoft visual studio 10.0\vc\include\xutility
;	COMDAT ??$_Move@PAUEXTRAITEMSLOT@@PAU1@@std@@YAPAUEXTRAITEMSLOT@@PAU1@00U_Nonscalar_ptr_iterator_tag@0@@Z
_TEXT	SEGMENT
__First$ = 8						; size = 4
__Last$ = 12						; size = 4
__Dest$ = 16						; size = 4
___formal$ = 20						; size = 1
??$_Move@PAUEXTRAITEMSLOT@@PAU1@@std@@YAPAUEXTRAITEMSLOT@@PAU1@00U_Nonscalar_ptr_iterator_tag@0@@Z PROC ; std::_Move<EXTRAITEMSLOT *,EXTRAITEMSLOT *>, COMDAT

; 2512 : 	{	// move [_First, _Last) to [_Dest, ...), arbitrary iterators

  00000	55		 push	 ebp
  00001	8b ec		 mov	 ebp, esp
  00003	56		 push	 esi

; 2513 : 	for (; _First != _Last; ++_Dest, ++_First)

  00004	8b 75 08	 mov	 esi, DWORD PTR __First$[ebp]
  00007	eb 10		 jmp	 SHORT $LN11@Move
$LL3@Move:

; 2514 : 		*_Dest = _STD move(*_First);

  00009	8b 4d 10	 mov	 ecx, DWORD PTR __Dest$[ebp]
  0000c	56		 push	 esi
  0000d	e8 00 00 00 00	 call	 ??4EXTRAITEMSLOT@@QAEAAU0@ABU0@@Z
  00012	83 45 10 48	 add	 DWORD PTR __Dest$[ebp], 72 ; 00000048H
  00016	83 c6 48	 add	 esi, 72			; 00000048H
$LN11@Move:

; 2513 : 	for (; _First != _Last; ++_Dest, ++_First)

  00019	3b 75 0c	 cmp	 esi, DWORD PTR __Last$[ebp]
  0001c	75 eb		 jne	 SHORT $LL3@Move

; 2515 : 	return (_Dest);

  0001e	8b 45 10	 mov	 eax, DWORD PTR __Dest$[ebp]
  00021	5e		 pop	 esi

; 2516 : 	}

  00022	5d		 pop	 ebp
  00023	c3		 ret	 0
??$_Move@PAUEXTRAITEMSLOT@@PAU1@@std@@YAPAUEXTRAITEMSLOT@@PAU1@00U_Nonscalar_ptr_iterator_tag@0@@Z ENDP ; std::_Move<EXTRAITEMSLOT *,EXTRAITEMSLOT *>
_TEXT	ENDS
PUBLIC	??$_Move@PAUPowerupListInfo@@PAU1@@std@@YAPAUPowerupListInfo@@PAU1@00U_Nonscalar_ptr_iterator_tag@0@@Z ; std::_Move<PowerupListInfo *,PowerupListInfo *>
; Function compile flags: /Ogsp
;	COMDAT ??$_Move@PAUPowerupListInfo@@PAU1@@std@@YAPAUPowerupListInfo@@PAU1@00U_Nonscalar_ptr_iterator_tag@0@@Z
_TEXT	SEGMENT
__First$ = 8						; size = 4
__Last$ = 12						; size = 4
__Dest$ = 16						; size = 4
___formal$ = 20						; size = 1
??$_Move@PAUPowerupListInfo@@PAU1@@std@@YAPAUPowerupListInfo@@PAU1@00U_Nonscalar_ptr_iterator_tag@0@@Z PROC ; std::_Move<PowerupListInfo *,PowerupListInfo *>, COMDAT

; 2512 : 	{	// move [_First, _Last) to [_Dest, ...), arbitrary iterators

  00000	55		 push	 ebp
  00001	8b ec		 mov	 ebp, esp

; 2513 : 	for (; _First != _Last; ++_Dest, ++_First)

  00003	8b 45 08	 mov	 eax, DWORD PTR __First$[ebp]
  00006	3b 45 0c	 cmp	 eax, DWORD PTR __Last$[ebp]
  00009	74 18		 je	 SHORT $LN10@Move@2
  0000b	56		 push	 esi
  0000c	57		 push	 edi
$LL3@Move@2:

; 2514 : 		*_Dest = _STD move(*_First);

  0000d	8b 7d 10	 mov	 edi, DWORD PTR __Dest$[ebp]
  00010	83 45 10 0c	 add	 DWORD PTR __Dest$[ebp], 12 ; 0000000cH
  00014	8b f0		 mov	 esi, eax
  00016	a5		 movsd
  00017	a5		 movsd
  00018	83 c0 0c	 add	 eax, 12			; 0000000cH
  0001b	a5		 movsd
  0001c	3b 45 0c	 cmp	 eax, DWORD PTR __Last$[ebp]
  0001f	75 ec		 jne	 SHORT $LL3@Move@2
  00021	5f		 pop	 edi
  00022	5e		 pop	 esi
$LN10@Move@2:

; 2515 : 	return (_Dest);

  00023	8b 45 10	 mov	 eax, DWORD PTR __Dest$[ebp]

; 2516 : 	}

  00026	5d		 pop	 ebp
  00027	c3		 ret	 0
??$_Move@PAUPowerupListInfo@@PAU1@@std@@YAPAUPowerupListInfo@@PAU1@00U_Nonscalar_ptr_iterator_tag@0@@Z ENDP ; std::_Move<PowerupListInfo *,PowerupListInfo *>
_TEXT	ENDS
PUBLIC	?destroy@?$allocator@UPowerupListInfo@@@std@@QAEXPAUPowerupListInfo@@@Z ; std::allocator<PowerupListInfo>::destroy
; Function compile flags: /Ogsp
; File c:\program files (x86)\microsoft visual studio 10.0\vc\include\xmemory
;	COMDAT ?destroy@?$allocator@UPowerupListInfo@@@std@@QAEXPAUPowerupListInfo@@@Z
_TEXT	SEGMENT
__Ptr$ = 8						; size = 4
?destroy@?$allocator@UPowerupListInfo@@@std@@QAEXPAUPowerupListInfo@@@Z PROC ; std::allocator<PowerupListInfo>::destroy, COMDAT
; _this$ = ecx

; 213  : 		_Destroy(_Ptr);
; 214  : 		}

  00000	c2 04 00	 ret	 4
?destroy@?$allocator@UPowerupListInfo@@@std@@QAEXPAUPowerupListInfo@@@Z ENDP ; std::allocator<PowerupListInfo>::destroy
_TEXT	ENDS
PUBLIC	??$?0AAPAUPowerupListInfo@@AAPAU0@@?$pair@PAUPowerupListInfo@@PAU1@@std@@QAE@AAPAUPowerupListInfo@@0@Z ; std::pair<PowerupListInfo *,PowerupListInfo *>::pair<PowerupListInfo *,PowerupListInfo *><PowerupListInfo * &,PowerupListInfo * &>
; Function compile flags: /Ogsp
; File c:\program files (x86)\microsoft visual studio 10.0\vc\include\utility
;	COMDAT ??$?0AAPAUPowerupListInfo@@AAPAU0@@?$pair@PAUPowerupListInfo@@PAU1@@std@@QAE@AAPAUPowerupListInfo@@0@Z
_TEXT	SEGMENT
__Val1$ = 8						; size = 4
__Val2$ = 12						; size = 4
??$?0AAPAUPowerupListInfo@@AAPAU0@@?$pair@PAUPowerupListInfo@@PAU1@@std@@QAE@AAPAUPowerupListInfo@@0@Z PROC ; std::pair<PowerupListInfo *,PowerupListInfo *>::pair<PowerupListInfo *,PowerupListInfo *><PowerupListInfo * &,PowerupListInfo * &>, COMDAT
; _this$ = ecx

; 247  : 		{	// construct from moved values

  00000	55		 push	 ebp
  00001	8b ec		 mov	 ebp, esp
  00003	8b c1		 mov	 eax, ecx
  00005	8b 4d 08	 mov	 ecx, DWORD PTR __Val1$[ebp]
  00008	8b 09		 mov	 ecx, DWORD PTR [ecx]
  0000a	89 08		 mov	 DWORD PTR [eax], ecx
  0000c	8b 4d 0c	 mov	 ecx, DWORD PTR __Val2$[ebp]
  0000f	8b 09		 mov	 ecx, DWORD PTR [ecx]
  00011	89 48 04	 mov	 DWORD PTR [eax+4], ecx

; 248  : 		}

  00014	5d		 pop	 ebp
  00015	c2 08 00	 ret	 8
??$?0AAPAUPowerupListInfo@@AAPAU0@@?$pair@PAUPowerupListInfo@@PAU1@@std@@QAE@AAPAUPowerupListInfo@@0@Z ENDP ; std::pair<PowerupListInfo *,PowerupListInfo *>::pair<PowerupListInfo *,PowerupListInfo *><PowerupListInfo * &,PowerupListInfo * &>
_TEXT	ENDS
PUBLIC	??$_Destroy@UEXTRAITEMSLOT@@@std@@YAXPAUEXTRAITEMSLOT@@@Z ; std::_Destroy<EXTRAITEMSLOT>
; Function compile flags: /Ogsp
; File c:\program files (x86)\microsoft visual studio 10.0\vc\include\xmemory
;	COMDAT ??$_Destroy@UEXTRAITEMSLOT@@@std@@YAXPAUEXTRAITEMSLOT@@@Z
_TEXT	SEGMENT
__Ptr$ = 8						; size = 4
??$_Destroy@UEXTRAITEMSLOT@@@std@@YAXPAUEXTRAITEMSLOT@@@Z PROC ; std::_Destroy<EXTRAITEMSLOT>, COMDAT

; 62   : 	{	// destroy object at _Ptr

  00000	55		 push	 ebp
  00001	8b ec		 mov	 ebp, esp

; 63   : 	_Ptr->~_Ty();

  00003	8b 4d 08	 mov	 ecx, DWORD PTR __Ptr$[ebp]

; 64   : 	}

  00006	5d		 pop	 ebp

; 63   : 	_Ptr->~_Ty();

  00007	e9 00 00 00 00	 jmp	 ??1EXTRAITEMSLOT@@QAE@XZ
??$_Destroy@UEXTRAITEMSLOT@@@std@@YAXPAUEXTRAITEMSLOT@@@Z ENDP ; std::_Destroy<EXTRAITEMSLOT>
_TEXT	ENDS
PUBLIC	?construct@?$allocator@H@std@@QAEXPAHABH@Z	; std::allocator<int>::construct
; Function compile flags: /Ogsp
;	COMDAT ?construct@?$allocator@H@std@@QAEXPAHABH@Z
_TEXT	SEGMENT
__Ptr$ = 8						; size = 4
__Val$ = 12						; size = 4
?construct@?$allocator@H@std@@QAEXPAHABH@Z PROC		; std::allocator<int>::construct, COMDAT
; _this$ = ecx

; 196  : 		{	// construct object at _Ptr with value _Val

  00000	55		 push	 ebp
  00001	8b ec		 mov	 ebp, esp

; 197  : 		_Construct(_Ptr, _Val);

  00003	8b 45 08	 mov	 eax, DWORD PTR __Ptr$[ebp]
  00006	85 c0		 test	 eax, eax
  00008	74 07		 je	 SHORT $LN5@construct@3
  0000a	8b 4d 0c	 mov	 ecx, DWORD PTR __Val$[ebp]
  0000d	8b 09		 mov	 ecx, DWORD PTR [ecx]
  0000f	89 08		 mov	 DWORD PTR [eax], ecx
$LN5@construct@3:

; 198  : 		}

  00011	5d		 pop	 ebp
  00012	c2 08 00	 ret	 8
?construct@?$allocator@H@std@@QAEXPAHABH@Z ENDP		; std::allocator<int>::construct
_TEXT	ENDS
PUBLIC	?destroy@?$allocator@H@std@@QAEXPAH@Z		; std::allocator<int>::destroy
; Function compile flags: /Ogsp
;	COMDAT ?destroy@?$allocator@H@std@@QAEXPAH@Z
_TEXT	SEGMENT
__Ptr$ = 8						; size = 4
?destroy@?$allocator@H@std@@QAEXPAH@Z PROC		; std::allocator<int>::destroy, COMDAT
; _this$ = ecx

; 213  : 		_Destroy(_Ptr);
; 214  : 		}

  00000	c2 04 00	 ret	 4
?destroy@?$allocator@H@std@@QAEXPAH@Z ENDP		; std::allocator<int>::destroy
_TEXT	ENDS
PUBLIC	?construct@?$allocator@UPowerupListInfo@@@std@@QAEXPAUPowerupListInfo@@$$QAU3@@Z ; std::allocator<PowerupListInfo>::construct
; Function compile flags: /Ogsp
;	COMDAT ?construct@?$allocator@UPowerupListInfo@@@std@@QAEXPAUPowerupListInfo@@$$QAU3@@Z
_TEXT	SEGMENT
__Ptr$ = 8						; size = 4
__Val$ = 12						; size = 4
?construct@?$allocator@UPowerupListInfo@@@std@@QAEXPAUPowerupListInfo@@$$QAU3@@Z PROC ; std::allocator<PowerupListInfo>::construct, COMDAT
; _this$ = ecx

; 201  : 		{	// construct object at _Ptr with value _Val

  00000	55		 push	 ebp
  00001	8b ec		 mov	 ebp, esp
  00003	57		 push	 edi

; 202  : 		::new ((void _FARQ *)_Ptr) _Ty(_STD forward<_Ty>(_Val));

  00004	8b 7d 08	 mov	 edi, DWORD PTR __Ptr$[ebp]
  00007	85 ff		 test	 edi, edi
  00009	74 08		 je	 SHORT $LN3@construct@4
  0000b	56		 push	 esi
  0000c	8b 75 0c	 mov	 esi, DWORD PTR __Val$[ebp]
  0000f	a5		 movsd
  00010	a5		 movsd
  00011	a5		 movsd
  00012	5e		 pop	 esi
$LN3@construct@4:
  00013	5f		 pop	 edi

; 203  : 		}

  00014	5d		 pop	 ebp
  00015	c2 08 00	 ret	 8
?construct@?$allocator@UPowerupListInfo@@@std@@QAEXPAUPowerupListInfo@@$$QAU3@@Z ENDP ; std::allocator<PowerupListInfo>::construct
_TEXT	ENDS
PUBLIC	??$swap@UPowerupListInfo@@@std@@YAXAAUPowerupListInfo@@0@Z ; std::swap<PowerupListInfo>
; Function compile flags: /Ogsp
; File c:\program files (x86)\microsoft visual studio 10.0\vc\include\utility
;	COMDAT ??$swap@UPowerupListInfo@@@std@@YAXAAUPowerupListInfo@@0@Z
_TEXT	SEGMENT
__Tmp$ = -12						; size = 12
__Left$ = 8						; size = 4
__Right$ = 12						; size = 4
??$swap@UPowerupListInfo@@@std@@YAXAAUPowerupListInfo@@0@Z PROC ; std::swap<PowerupListInfo>, COMDAT

; 101  : 	{	// exchange values stored at _Left and _Right

  00000	55		 push	 ebp
  00001	8b ec		 mov	 ebp, esp
  00003	83 ec 0c	 sub	 esp, 12			; 0000000cH
  00006	56		 push	 esi

; 102  : 	_Ty _Tmp = _Move(_Left);

  00007	8b 75 08	 mov	 esi, DWORD PTR __Left$[ebp]
  0000a	57		 push	 edi
  0000b	8d 7d f4	 lea	 edi, DWORD PTR __Tmp$[ebp]
  0000e	a5		 movsd
  0000f	a5		 movsd
  00010	a5		 movsd

; 103  : 	_Left = _Move(_Right);

  00011	8b 75 0c	 mov	 esi, DWORD PTR __Right$[ebp]
  00014	8b 7d 08	 mov	 edi, DWORD PTR __Left$[ebp]
  00017	a5		 movsd
  00018	a5		 movsd
  00019	a5		 movsd

; 104  : 	_Right = _Move(_Tmp);

  0001a	8b 7d 0c	 mov	 edi, DWORD PTR __Right$[ebp]
  0001d	8d 75 f4	 lea	 esi, DWORD PTR __Tmp$[ebp]
  00020	a5		 movsd
  00021	a5		 movsd
  00022	a5		 movsd
  00023	5f		 pop	 edi
  00024	5e		 pop	 esi

; 105  : 	}

  00025	c9		 leave
  00026	c3		 ret	 0
??$swap@UPowerupListInfo@@@std@@YAXAAUPowerupListInfo@@0@Z ENDP ; std::swap<PowerupListInfo>
_TEXT	ENDS
PUBLIC	??$_Adjust_heap@PAUPowerupListInfo@@HU1@VEnablePowerupListSort@@@std@@YAXPAUPowerupListInfo@@HH$$QAU1@VEnablePowerupListSort@@@Z ; std::_Adjust_heap<PowerupListInfo *,int,PowerupListInfo,EnablePowerupListSort>
; Function compile flags: /Ogsp
; File c:\program files (x86)\microsoft visual studio 10.0\vc\include\algorithm
;	COMDAT ??$_Adjust_heap@PAUPowerupListInfo@@HU1@VEnablePowerupListSort@@@std@@YAXPAUPowerupListInfo@@HH$$QAU1@VEnablePowerupListSort@@@Z
_TEXT	SEGMENT
__First$ = 8						; size = 4
__Top$ = 12						; size = 4
__Hole$ = 12						; size = 4
__Bottom$ = 16						; size = 4
__Val$ = 20						; size = 4
__Pred$ = 24						; size = 1
??$_Adjust_heap@PAUPowerupListInfo@@HU1@VEnablePowerupListSort@@@std@@YAXPAUPowerupListInfo@@HH$$QAU1@VEnablePowerupListSort@@@Z PROC ; std::_Adjust_heap<PowerupListInfo *,int,PowerupListInfo,EnablePowerupListSort>, COMDAT

; 2565 : 	{	// percolate _Hole to _Bottom, then push _Val, using _Pred

  00000	55		 push	 ebp
  00001	8b ec		 mov	 ebp, esp

; 2566 : 	_Diff _Top = _Hole;
; 2567 : 	_Diff _Idx = 2 * _Hole + 2;
; 2568 : 
; 2569 : 	for (; _Idx < _Bottom; _Idx = 2 * _Idx + 2)

  00003	8b 4d 10	 mov	 ecx, DWORD PTR __Bottom$[ebp]
  00006	8b 55 08	 mov	 edx, DWORD PTR __First$[ebp]
  00009	56		 push	 esi
  0000a	57		 push	 edi
  0000b	8b 7d 0c	 mov	 edi, DWORD PTR __Hole$[ebp]
  0000e	8d 44 3f 02	 lea	 eax, DWORD PTR [edi+edi+2]
  00012	89 7d 0c	 mov	 DWORD PTR __Top$[ebp], edi
  00015	3b c1		 cmp	 eax, ecx
  00017	7d 3a		 jge	 SHORT $LN22@Adjust_hea
  00019	53		 push	 ebx
$LL5@Adjust_hea:

; 2570 : 		{	// move _Hole down to larger child
; 2571 : 		if (_DEBUG_LT_PRED(_Pred, *(_First + _Idx), *(_First + (_Idx - 1))))

  0001a	8b c8		 mov	 ecx, eax
  0001c	6b c9 0c	 imul	 ecx, 12			; 0000000cH
  0001f	03 ca		 add	 ecx, edx
  00021	8b 71 08	 mov	 esi, DWORD PTR [ecx+8]
  00024	8b 59 fc	 mov	 ebx, DWORD PTR [ecx-4]
  00027	3b f3		 cmp	 esi, ebx
  00029	7f 09		 jg	 SHORT $LN21@Adjust_hea
  0002b	75 08		 jne	 SHORT $LN2@Adjust_hea
  0002d	8b 31		 mov	 esi, DWORD PTR [ecx]
  0002f	3b 71 f4	 cmp	 esi, DWORD PTR [ecx-12]
  00032	7d 01		 jge	 SHORT $LN2@Adjust_hea
$LN21@Adjust_hea:

; 2572 : 			--_Idx;

  00034	48		 dec	 eax
$LN2@Adjust_hea:

; 2566 : 	_Diff _Top = _Hole;
; 2567 : 	_Diff _Idx = 2 * _Hole + 2;
; 2568 : 
; 2569 : 	for (; _Idx < _Bottom; _Idx = 2 * _Idx + 2)

  00035	8b 4d 10	 mov	 ecx, DWORD PTR __Bottom$[ebp]

; 2573 : 		*(_First + _Hole) = _Move(*(_First + _Idx));

  00038	6b ff 0c	 imul	 edi, 12			; 0000000cH
  0003b	8b f0		 mov	 esi, eax
  0003d	6b f6 0c	 imul	 esi, 12			; 0000000cH
  00040	03 fa		 add	 edi, edx
  00042	8d 34 16	 lea	 esi, DWORD PTR [esi+edx]
  00045	a5		 movsd
  00046	a5		 movsd
  00047	a5		 movsd

; 2574 : 		_Hole = _Idx;

  00048	8b f8		 mov	 edi, eax
  0004a	8d 44 00 02	 lea	 eax, DWORD PTR [eax+eax+2]
  0004e	3b c1		 cmp	 eax, ecx
  00050	7c c8		 jl	 SHORT $LL5@Adjust_hea
  00052	5b		 pop	 ebx
$LN22@Adjust_hea:

; 2575 : 		}
; 2576 : 
; 2577 : 	if (_Idx == _Bottom)

  00053	75 14		 jne	 SHORT $LN1@Adjust_hea

; 2578 : 		{	// only child at bottom, move _Hole down to it
; 2579 : 		*(_First + _Hole) = _Move(*(_First + (_Bottom - 1)));

  00055	6b ff 0c	 imul	 edi, 12			; 0000000cH
  00058	8b c1		 mov	 eax, ecx
  0005a	6b c0 0c	 imul	 eax, 12			; 0000000cH
  0005d	03 fa		 add	 edi, edx
  0005f	8d 74 10 f4	 lea	 esi, DWORD PTR [eax+edx-12]
  00063	a5		 movsd
  00064	a5		 movsd
  00065	a5		 movsd

; 2580 : 		_Hole = _Bottom - 1;

  00066	8d 79 ff	 lea	 edi, DWORD PTR [ecx-1]
$LN1@Adjust_hea:

; 2581 : 		}
; 2582 : 	_Push_heap(_First, _Hole, _Top, _Move(_Val), _Pred);

  00069	ff 75 18	 push	 DWORD PTR __Pred$[ebp]
  0006c	ff 75 14	 push	 DWORD PTR __Val$[ebp]
  0006f	ff 75 0c	 push	 DWORD PTR __Top$[ebp]
  00072	57		 push	 edi
  00073	52		 push	 edx
  00074	e8 00 00 00 00	 call	 ??$_Push_heap@PAUPowerupListInfo@@HU1@VEnablePowerupListSort@@@std@@YAXPAUPowerupListInfo@@HH$$QAU1@VEnablePowerupListSort@@@Z ; std::_Push_heap<PowerupListInfo *,int,PowerupListInfo,EnablePowerupListSort>
  00079	83 c4 14	 add	 esp, 20			; 00000014H
  0007c	5f		 pop	 edi
  0007d	5e		 pop	 esi

; 2583 : 	}

  0007e	5d		 pop	 ebp
  0007f	c3		 ret	 0
??$_Adjust_heap@PAUPowerupListInfo@@HU1@VEnablePowerupListSort@@@std@@YAXPAUPowerupListInfo@@HH$$QAU1@VEnablePowerupListSort@@@Z ENDP ; std::_Adjust_heap<PowerupListInfo *,int,PowerupListInfo,EnablePowerupListSort>
_TEXT	ENDS
PUBLIC	??$_Move_backward@PAUPowerupListInfo@@PAU1@@std@@YAPAUPowerupListInfo@@PAU1@00@Z ; std::_Move_backward<PowerupListInfo *,PowerupListInfo *>
; Function compile flags: /Ogsp
; File c:\program files (x86)\microsoft visual studio 10.0\vc\include\xutility
;	COMDAT ??$_Move_backward@PAUPowerupListInfo@@PAU1@@std@@YAPAUPowerupListInfo@@PAU1@00@Z
_TEXT	SEGMENT
__Cat$514880 = -4					; size = 1
__First$ = 8						; size = 4
__Last$ = 12						; size = 4
__Dest$ = 16						; size = 4
??$_Move_backward@PAUPowerupListInfo@@PAU1@@std@@YAPAUPowerupListInfo@@PAU1@00@Z PROC ; std::_Move_backward<PowerupListInfo *,PowerupListInfo *>, COMDAT

; 2638 : 	{	// move [_First, _Last) backwards to [..., _Dest), unchecked

  00000	55		 push	 ebp
  00001	8b ec		 mov	 ebp, esp
  00003	51		 push	 ecx

; 2639 : 	return (_Move_backward(_First, _Last,
; 2640 : 		_Dest, _Ptr_cat(_First, _Dest)));

  00004	ff 75 fc	 push	 DWORD PTR __Cat$514880[ebp]
  00007	ff 75 10	 push	 DWORD PTR __Dest$[ebp]
  0000a	ff 75 0c	 push	 DWORD PTR __Last$[ebp]
  0000d	ff 75 08	 push	 DWORD PTR __First$[ebp]
  00010	e8 00 00 00 00	 call	 ??$_Move_backward@PAUPowerupListInfo@@PAU1@@std@@YAPAUPowerupListInfo@@PAU1@00U_Nonscalar_ptr_iterator_tag@0@@Z ; std::_Move_backward<PowerupListInfo *,PowerupListInfo *>
  00015	83 c4 10	 add	 esp, 16			; 00000010H

; 2641 : 	}

  00018	c9		 leave
  00019	c3		 ret	 0
??$_Move_backward@PAUPowerupListInfo@@PAU1@@std@@YAPAUPowerupListInfo@@PAU1@00@Z ENDP ; std::_Move_backward<PowerupListInfo *,PowerupListInfo *>
_TEXT	ENDS
PUBLIC	??$_Pop_heap@PAUPowerupListInfo@@HU1@VEnablePowerupListSort@@@std@@YAXPAUPowerupListInfo@@00$$QAU1@VEnablePowerupListSort@@PAH@Z ; std::_Pop_heap<PowerupListInfo *,int,PowerupListInfo,EnablePowerupListSort>
; Function compile flags: /Ogsp
; File c:\program files (x86)\microsoft visual studio 10.0\vc\include\algorithm
;	COMDAT ??$_Pop_heap@PAUPowerupListInfo@@HU1@VEnablePowerupListSort@@@std@@YAXPAUPowerupListInfo@@00$$QAU1@VEnablePowerupListSort@@PAH@Z
_TEXT	SEGMENT
__First$ = 8						; size = 4
__Last$ = 12						; size = 4
__Dest$ = 16						; size = 4
__Val$ = 20						; size = 4
__Pred$ = 24						; size = 1
___formal$ = 28						; size = 4
??$_Pop_heap@PAUPowerupListInfo@@HU1@VEnablePowerupListSort@@@std@@YAXPAUPowerupListInfo@@00$$QAU1@VEnablePowerupListSort@@PAH@Z PROC ; std::_Pop_heap<PowerupListInfo *,int,PowerupListInfo,EnablePowerupListSort>, COMDAT

; 2591 : 	{	// pop *_First to *_Dest and reheap, using _Pred

  00000	55		 push	 ebp
  00001	8b ec		 mov	 ebp, esp

; 2592 : 	*_Dest = _Move(*_First);
; 2593 : 	_Adjust_heap(_First, _Diff(0), _Diff(_Last - _First),
; 2594 : 		_Move(_Val), _Pred);

  00003	8b 45 0c	 mov	 eax, DWORD PTR __Last$[ebp]
  00006	2b 45 08	 sub	 eax, DWORD PTR __First$[ebp]
  00009	56		 push	 esi
  0000a	57		 push	 edi
  0000b	ff 75 18	 push	 DWORD PTR __Pred$[ebp]
  0000e	99		 cdq
  0000f	ff 75 14	 push	 DWORD PTR __Val$[ebp]
  00012	8b 75 08	 mov	 esi, DWORD PTR __First$[ebp]
  00015	6a 0c		 push	 12			; 0000000cH
  00017	59		 pop	 ecx
  00018	f7 f9		 idiv	 ecx
  0001a	8b 7d 10	 mov	 edi, DWORD PTR __Dest$[ebp]
  0001d	a5		 movsd
  0001e	a5		 movsd
  0001f	a5		 movsd
  00020	50		 push	 eax
  00021	6a 00		 push	 0
  00023	ff 75 08	 push	 DWORD PTR __First$[ebp]
  00026	e8 00 00 00 00	 call	 ??$_Adjust_heap@PAUPowerupListInfo@@HU1@VEnablePowerupListSort@@@std@@YAXPAUPowerupListInfo@@HH$$QAU1@VEnablePowerupListSort@@@Z ; std::_Adjust_heap<PowerupListInfo *,int,PowerupListInfo,EnablePowerupListSort>
  0002b	83 c4 14	 add	 esp, 20			; 00000014H
  0002e	5f		 pop	 edi
  0002f	5e		 pop	 esi

; 2595 : 	}

  00030	5d		 pop	 ebp
  00031	c3		 ret	 0
??$_Pop_heap@PAUPowerupListInfo@@HU1@VEnablePowerupListSort@@@std@@YAXPAUPowerupListInfo@@00$$QAU1@VEnablePowerupListSort@@PAH@Z ENDP ; std::_Pop_heap<PowerupListInfo *,int,PowerupListInfo,EnablePowerupListSort>
_TEXT	ENDS
PUBLIC	?IsEmpty@ioComplexStringPrinter@@QBE_NXZ	; ioComplexStringPrinter::IsEmpty
; Function compile flags: /Ogsp
; File d:\lost saga for developer\youtube\tutorial\source\src\lsclient\iocomplexstringprinter.h
;	COMDAT ?IsEmpty@ioComplexStringPrinter@@QBE_NXZ
_TEXT	SEGMENT
?IsEmpty@ioComplexStringPrinter@@QBE_NXZ PROC		; ioComplexStringPrinter::IsEmpty, COMDAT
; _this$ = ecx

; 124  : 	inline bool IsEmpty() const { return m_vPieceList.empty(); }

  00000	8b 41 0c	 mov	 eax, DWORD PTR [ecx+12]
  00003	2b 41 10	 sub	 eax, DWORD PTR [ecx+16]
  00006	f7 d8		 neg	 eax
  00008	1b c0		 sbb	 eax, eax
  0000a	40		 inc	 eax
  0000b	c3		 ret	 0
?IsEmpty@ioComplexStringPrinter@@QBE_NXZ ENDP		; ioComplexStringPrinter::IsEmpty
_TEXT	ENDS
PUBLIC	??0EXTRAITEMSLOT@@QAE@XZ			; EXTRAITEMSLOT::EXTRAITEMSLOT
EXTRN	__imp_??0ioHashString@@QAE@XZ:PROC
;	COMDAT xdata$x
; File d:\lost saga for developer\youtube\tutorial\source\src\lsclient\iouserextraitem.h
xdata$x	SEGMENT
__unwindtable$??0EXTRAITEMSLOT@@QAE@XZ DD 0ffffffffH
	DD	FLAT:__unwindfunclet$??0EXTRAITEMSLOT@@QAE@XZ$0
__ehfuncinfo$??0EXTRAITEMSLOT@@QAE@XZ DD 019930522H
	DD	01H
	DD	FLAT:__unwindtable$??0EXTRAITEMSLOT@@QAE@XZ
	DD	2 DUP(00H)
	DD	2 DUP(00H)
	DD	00H
	DD	01H
; Function compile flags: /Ogsp
xdata$x	ENDS
;	COMDAT ??0EXTRAITEMSLOT@@QAE@XZ
_TEXT	SEGMENT
_this$ = -16						; size = 4
__$EHRec$ = -12						; size = 12
??0EXTRAITEMSLOT@@QAE@XZ PROC				; EXTRAITEMSLOT::EXTRAITEMSLOT, COMDAT
; _this$ = ecx

; 43   : 	EXTRAITEMSLOT()

  00000	6a 04		 push	 4
  00002	b8 00 00 00 00	 mov	 eax, __ehhandler$??0EXTRAITEMSLOT@@QAE@XZ
  00007	e8 00 00 00 00	 call	 __EH_prolog3
  0000c	8b f1		 mov	 esi, ecx
  0000e	89 75 f0	 mov	 DWORD PTR _this$[ebp], esi
  00011	8b 3d 00 00 00
	00		 mov	 edi, DWORD PTR __imp_??0ioHashString@@QAE@XZ
  00017	8d 4e 28	 lea	 ecx, DWORD PTR [esi+40]
  0001a	ff d7		 call	 edi
  0001c	83 65 fc 00	 and	 DWORD PTR __$EHRec$[ebp+8], 0
  00020	8d 4e 38	 lea	 ecx, DWORD PTR [esi+56]
  00023	ff d7		 call	 edi

; 44   : 	{
; 45   : 		Init();

  00025	8b ce		 mov	 ecx, esi
  00027	e8 00 00 00 00	 call	 ?Init@EXTRAITEMSLOT@@QAEXXZ ; EXTRAITEMSLOT::Init

; 46   : 	}

  0002c	8b c6		 mov	 eax, esi
  0002e	e8 00 00 00 00	 call	 __EH_epilog3
  00033	c3		 ret	 0
_TEXT	ENDS
;	COMDAT text$x
text$x	SEGMENT
__unwindfunclet$??0EXTRAITEMSLOT@@QAE@XZ$0:
  00000	8b 4d f0	 mov	 ecx, DWORD PTR _this$[ebp]
  00003	83 c1 28	 add	 ecx, 40			; 00000028H
  00006	ff 25 00 00 00
	00		 jmp	 DWORD PTR __imp_??1ioHashString@@QAE@XZ
__ehhandler$??0EXTRAITEMSLOT@@QAE@XZ:
  0000c	8b 54 24 08	 mov	 edx, DWORD PTR [esp+8]
  00010	8d 42 0c	 lea	 eax, DWORD PTR [edx+12]
  00013	8b 4a ec	 mov	 ecx, DWORD PTR [edx-20]
  00016	33 c8		 xor	 ecx, eax
  00018	e8 00 00 00 00	 call	 @__security_check_cookie@4
  0001d	b8 00 00 00 00	 mov	 eax, OFFSET __ehfuncinfo$??0EXTRAITEMSLOT@@QAE@XZ
  00022	e9 00 00 00 00	 jmp	 ___CxxFrameHandler3
text$x	ENDS
??0EXTRAITEMSLOT@@QAE@XZ ENDP				; EXTRAITEMSLOT::EXTRAITEMSLOT
PUBLIC	?c_str@?$basic_string@DU?$char_traits@D@std@@V?$allocator@D@2@@std@@QBEPBDXZ ; std::basic_string<char,std::char_traits<char>,std::allocator<char> >::c_str
; Function compile flags: /Ogsp
; File c:\program files (x86)\microsoft visual studio 10.0\vc\include\xstring
;	COMDAT ?c_str@?$basic_string@DU?$char_traits@D@std@@V?$allocator@D@2@@std@@QBEPBDXZ
_TEXT	SEGMENT
?c_str@?$basic_string@DU?$char_traits@D@std@@V?$allocator@D@2@@std@@QBEPBDXZ PROC ; std::basic_string<char,std::char_traits<char>,std::allocator<char> >::c_str, COMDAT
; _this$ = ecx

; 1497 : 		return (_Myptr());

  00000	83 79 14 10	 cmp	 DWORD PTR [ecx+20], 16	; 00000010H
  00004	72 03		 jb	 SHORT $LN5@c_str
  00006	8b 01		 mov	 eax, DWORD PTR [ecx]

; 1498 : 		}

  00008	c3		 ret	 0

; 1497 : 		return (_Myptr());

$LN5@c_str:
  00009	8b c1		 mov	 eax, ecx

; 1498 : 		}

  0000b	c3		 ret	 0
?c_str@?$basic_string@DU?$char_traits@D@std@@V?$allocator@D@2@@std@@QBEPBDXZ ENDP ; std::basic_string<char,std::char_traits<char>,std::allocator<char> >::c_str
_TEXT	ENDS
PUBLIC	?begin@?$vector@HV?$allocator@H@std@@@std@@QBE?AV?$_Vector_const_iterator@V?$_Vector_val@HV?$allocator@H@std@@@std@@@2@XZ ; std::vector<int,std::allocator<int> >::begin
; Function compile flags: /Ogsp
; File c:\program files (x86)\microsoft visual studio 10.0\vc\include\vector
;	COMDAT ?begin@?$vector@HV?$allocator@H@std@@@std@@QBE?AV?$_Vector_const_iterator@V?$_Vector_val@HV?$allocator@H@std@@@std@@@2@XZ
_TEXT	SEGMENT
___$ReturnUdt$ = 8					; size = 4
?begin@?$vector@HV?$allocator@H@std@@@std@@QBE?AV?$_Vector_const_iterator@V?$_Vector_val@HV?$allocator@H@std@@@std@@@2@XZ PROC ; std::vector<int,std::allocator<int> >::begin, COMDAT
; _this$ = ecx

; 786  : 		{	// return iterator for beginning of nonmutable sequence

  00000	55		 push	 ebp
  00001	8b ec		 mov	 ebp, esp

; 787  : 		return (const_iterator(this->_Myfirst, this));

  00003	8b 09		 mov	 ecx, DWORD PTR [ecx]
  00005	8b 45 08	 mov	 eax, DWORD PTR ___$ReturnUdt$[ebp]
  00008	89 08		 mov	 DWORD PTR [eax], ecx

; 788  : 		}

  0000a	5d		 pop	 ebp
  0000b	c2 04 00	 ret	 4
?begin@?$vector@HV?$allocator@H@std@@@std@@QBE?AV?$_Vector_const_iterator@V?$_Vector_val@HV?$allocator@H@std@@@std@@@2@XZ ENDP ; std::vector<int,std::allocator<int> >::begin
_TEXT	ENDS
PUBLIC	?end@?$vector@HV?$allocator@H@std@@@std@@QBE?AV?$_Vector_const_iterator@V?$_Vector_val@HV?$allocator@H@std@@@std@@@2@XZ ; std::vector<int,std::allocator<int> >::end
; Function compile flags: /Ogsp
;	COMDAT ?end@?$vector@HV?$allocator@H@std@@@std@@QBE?AV?$_Vector_const_iterator@V?$_Vector_val@HV?$allocator@H@std@@@std@@@2@XZ
_TEXT	SEGMENT
___$ReturnUdt$ = 8					; size = 4
?end@?$vector@HV?$allocator@H@std@@@std@@QBE?AV?$_Vector_const_iterator@V?$_Vector_val@HV?$allocator@H@std@@@std@@@2@XZ PROC ; std::vector<int,std::allocator<int> >::end, COMDAT
; _this$ = ecx

; 796  : 		{	// return iterator for end of nonmutable sequence

  00000	55		 push	 ebp
  00001	8b ec		 mov	 ebp, esp

; 797  : 		return (const_iterator(this->_Mylast, this));

  00003	8b 49 04	 mov	 ecx, DWORD PTR [ecx+4]
  00006	8b 45 08	 mov	 eax, DWORD PTR ___$ReturnUdt$[ebp]
  00009	89 08		 mov	 DWORD PTR [eax], ecx

; 798  : 		}

  0000b	5d		 pop	 ebp
  0000c	c2 04 00	 ret	 4
?end@?$vector@HV?$allocator@H@std@@@std@@QBE?AV?$_Vector_const_iterator@V?$_Vector_val@HV?$allocator@H@std@@@std@@@2@XZ ENDP ; std::vector<int,std::allocator<int> >::end
_TEXT	ENDS
PUBLIC	??0?$_String_val@DV?$allocator@D@std@@@std@@QAE@V?$allocator@D@1@@Z ; std::_String_val<char,std::allocator<char> >::_String_val<char,std::allocator<char> >
; Function compile flags: /Ogsp
; File c:\program files (x86)\microsoft visual studio 10.0\vc\include\xstring
;	COMDAT ??0?$_String_val@DV?$allocator@D@std@@@std@@QAE@V?$allocator@D@1@@Z
_TEXT	SEGMENT
__Al$ = 8						; size = 1
??0?$_String_val@DV?$allocator@D@std@@@std@@QAE@V?$allocator@D@1@@Z PROC ; std::_String_val<char,std::allocator<char> >::_String_val<char,std::allocator<char> >, COMDAT
; _this$ = ecx

; 454  : 		{	// construct allocator from _Al

  00000	8b c1		 mov	 eax, ecx

; 455  : 		}

  00002	c2 04 00	 ret	 4
??0?$_String_val@DV?$allocator@D@std@@@std@@QAE@V?$allocator@D@1@@Z ENDP ; std::_String_val<char,std::allocator<char> >::_String_val<char,std::allocator<char> >
_TEXT	ENDS
PUBLIC	??0?$_Vector_val@HV?$allocator@H@std@@@std@@QAE@V?$allocator@H@1@@Z ; std::_Vector_val<int,std::allocator<int> >::_Vector_val<int,std::allocator<int> >
; Function compile flags: /Ogsp
; File c:\program files (x86)\microsoft visual studio 10.0\vc\include\vector
;	COMDAT ??0?$_Vector_val@HV?$allocator@H@std@@@std@@QAE@V?$allocator@H@1@@Z
_TEXT	SEGMENT
__Al$ = 8						; size = 1
??0?$_Vector_val@HV?$allocator@H@std@@@std@@QAE@V?$allocator@H@1@@Z PROC ; std::_Vector_val<int,std::allocator<int> >::_Vector_val<int,std::allocator<int> >, COMDAT
; _this$ = ecx

; 426  : 		{	// construct allocator from _Al

  00000	8b c1		 mov	 eax, ecx

; 427  : 		_Myfirst = 0;

  00002	33 c9		 xor	 ecx, ecx
  00004	89 08		 mov	 DWORD PTR [eax], ecx

; 428  : 		_Mylast = 0;

  00006	89 48 04	 mov	 DWORD PTR [eax+4], ecx

; 429  : 		_Myend = 0;

  00009	89 48 08	 mov	 DWORD PTR [eax+8], ecx

; 430  : 		}

  0000c	c2 04 00	 ret	 4
??0?$_Vector_val@HV?$allocator@H@std@@@std@@QAE@V?$allocator@H@1@@Z ENDP ; std::_Vector_val<int,std::allocator<int> >::_Vector_val<int,std::allocator<int> >
_TEXT	ENDS
PUBLIC	?_Eos@?$basic_string@DU?$char_traits@D@std@@V?$allocator@D@2@@std@@QAEXI@Z ; std::basic_string<char,std::char_traits<char>,std::allocator<char> >::_Eos
; Function compile flags: /Ogsp
; File c:\program files (x86)\microsoft visual studio 10.0\vc\include\xstring
;	COMDAT ?_Eos@?$basic_string@DU?$char_traits@D@std@@V?$allocator@D@2@@std@@QAEXI@Z
_TEXT	SEGMENT
__Newsize$ = 8						; size = 4
?_Eos@?$basic_string@DU?$char_traits@D@std@@V?$allocator@D@2@@std@@QAEXI@Z PROC ; std::basic_string<char,std::char_traits<char>,std::allocator<char> >::_Eos, COMDAT
; _this$ = ecx

; 1953 : 		{	// set new length and null terminator

  00000	55		 push	 ebp
  00001	8b ec		 mov	 ebp, esp

; 1954 : 		_Traits::assign(_Myptr()[this->_Mysize = _Newsize], _Elem());

  00003	83 79 14 10	 cmp	 DWORD PTR [ecx+20], 16	; 00000010H
  00007	8b 45 08	 mov	 eax, DWORD PTR __Newsize$[ebp]
  0000a	89 41 10	 mov	 DWORD PTR [ecx+16], eax
  0000d	72 02		 jb	 SHORT $LN5@Eos
  0000f	8b 09		 mov	 ecx, DWORD PTR [ecx]
$LN5@Eos:
  00011	c6 04 01 00	 mov	 BYTE PTR [ecx+eax], 0

; 1955 : 		}

  00015	5d		 pop	 ebp
  00016	c2 04 00	 ret	 4
?_Eos@?$basic_string@DU?$char_traits@D@std@@V?$allocator@D@2@@std@@QAEXI@Z ENDP ; std::basic_string<char,std::char_traits<char>,std::allocator<char> >::_Eos
_TEXT	ENDS
PUBLIC	?max_size@?$vector@HV?$allocator@H@std@@@std@@QBEIXZ ; std::vector<int,std::allocator<int> >::max_size
; Function compile flags: /Ogsp
; File c:\program files (x86)\microsoft visual studio 10.0\vc\include\vector
;	COMDAT ?max_size@?$vector@HV?$allocator@H@std@@@std@@QBEIXZ
_TEXT	SEGMENT
?max_size@?$vector@HV?$allocator@H@std@@@std@@QBEIXZ PROC ; std::vector<int,std::allocator<int> >::max_size, COMDAT
; _this$ = ecx

; 884  : 		return (this->_Alval.max_size());

  00000	b8 ff ff ff 3f	 mov	 eax, 1073741823		; 3fffffffH

; 885  : 		}

  00005	c3		 ret	 0
?max_size@?$vector@HV?$allocator@H@std@@@std@@QBEIXZ ENDP ; std::vector<int,std::allocator<int> >::max_size
_TEXT	ENDS
PUBLIC	?max_size@?$basic_string@DU?$char_traits@D@std@@V?$allocator@D@2@@std@@QBEIXZ ; std::basic_string<char,std::char_traits<char>,std::allocator<char> >::max_size
; Function compile flags: /Ogsp
; File c:\program files (x86)\microsoft visual studio 10.0\vc\include\xstring
;	COMDAT ?max_size@?$basic_string@DU?$char_traits@D@std@@V?$allocator@D@2@@std@@QBEIXZ
_TEXT	SEGMENT
?max_size@?$basic_string@DU?$char_traits@D@std@@V?$allocator@D@2@@std@@QBEIXZ PROC ; std::basic_string<char,std::char_traits<char>,std::allocator<char> >::max_size, COMDAT
; _this$ = ecx

; 1517 : 		size_type _Num = this->_Alval.max_size();
; 1518 : 		return (_Num <= 1 ? 1 : _Num - 1);

  00000	6a fe		 push	 -2			; fffffffeH
  00002	58		 pop	 eax

; 1519 : 		}

  00003	c3		 ret	 0
?max_size@?$basic_string@DU?$char_traits@D@std@@V?$allocator@D@2@@std@@QBEIXZ ENDP ; std::basic_string<char,std::char_traits<char>,std::allocator<char> >::max_size
_TEXT	ENDS
PUBLIC	?allocate@?$allocator@H@std@@QAEPAHI@Z		; std::allocator<int>::allocate
; Function compile flags: /Ogsp
; File c:\program files (x86)\microsoft visual studio 10.0\vc\include\xmemory
;	COMDAT ?allocate@?$allocator@H@std@@QAEPAHI@Z
_TEXT	SEGMENT
__Count$ = 8						; size = 4
?allocate@?$allocator@H@std@@QAEPAHI@Z PROC		; std::allocator<int>::allocate, COMDAT
; _this$ = ecx

; 186  : 		{	// allocate array of _Count elements

  00000	55		 push	 ebp
  00001	8b ec		 mov	 ebp, esp

; 187  : 		return (_Allocate(_Count, (pointer)0));

  00003	6a 00		 push	 0
  00005	ff 75 08	 push	 DWORD PTR __Count$[ebp]
  00008	e8 00 00 00 00	 call	 ??$_Allocate@H@std@@YAPAHIPAH@Z ; std::_Allocate<int>
  0000d	59		 pop	 ecx
  0000e	59		 pop	 ecx

; 188  : 		}

  0000f	5d		 pop	 ebp
  00010	c2 04 00	 ret	 4
?allocate@?$allocator@H@std@@QAEPAHI@Z ENDP		; std::allocator<int>::allocate
_TEXT	ENDS
PUBLIC	??8?$_Vector_const_iterator@V?$_Vector_val@HV?$allocator@H@std@@@std@@@std@@QBE_NABV01@@Z ; std::_Vector_const_iterator<std::_Vector_val<int,std::allocator<int> > >::operator==
; Function compile flags: /Ogsp
; File c:\program files (x86)\microsoft visual studio 10.0\vc\include\vector
;	COMDAT ??8?$_Vector_const_iterator@V?$_Vector_val@HV?$allocator@H@std@@@std@@@std@@QBE_NABV01@@Z
_TEXT	SEGMENT
__Right$ = 8						; size = 4
??8?$_Vector_const_iterator@V?$_Vector_val@HV?$allocator@H@std@@@std@@@std@@QBE_NABV01@@Z PROC ; std::_Vector_const_iterator<std::_Vector_val<int,std::allocator<int> > >::operator==, COMDAT
; _this$ = ecx

; 201  : 		{	// test for iterator equality

  00000	55		 push	 ebp
  00001	8b ec		 mov	 ebp, esp

; 202  : 		_Compat(_Right);
; 203  : 		return (this->_Ptr == _Right._Ptr);

  00003	8b 01		 mov	 eax, DWORD PTR [ecx]
  00005	8b 4d 08	 mov	 ecx, DWORD PTR __Right$[ebp]
  00008	2b 01		 sub	 eax, DWORD PTR [ecx]
  0000a	f7 d8		 neg	 eax
  0000c	1b c0		 sbb	 eax, eax
  0000e	40		 inc	 eax

; 204  : 		}

  0000f	5d		 pop	 ebp
  00010	c2 04 00	 ret	 4
??8?$_Vector_const_iterator@V?$_Vector_val@HV?$allocator@H@std@@@std@@@std@@QBE_NABV01@@Z ENDP ; std::_Vector_const_iterator<std::_Vector_val<int,std::allocator<int> > >::operator==
_TEXT	ENDS
PUBLIC	?allocate@?$allocator@D@std@@QAEPADI@Z		; std::allocator<char>::allocate
; Function compile flags: /Ogsp
; File c:\program files (x86)\microsoft visual studio 10.0\vc\include\xmemory
;	COMDAT ?allocate@?$allocator@D@std@@QAEPADI@Z
_TEXT	SEGMENT
__Count$ = 8						; size = 4
?allocate@?$allocator@D@std@@QAEPADI@Z PROC		; std::allocator<char>::allocate, COMDAT
; _this$ = ecx

; 186  : 		{	// allocate array of _Count elements

  00000	55		 push	 ebp
  00001	8b ec		 mov	 ebp, esp

; 187  : 		return (_Allocate(_Count, (pointer)0));

  00003	6a 00		 push	 0
  00005	ff 75 08	 push	 DWORD PTR __Count$[ebp]
  00008	e8 00 00 00 00	 call	 ??$_Allocate@D@std@@YAPADIPAD@Z ; std::_Allocate<char>
  0000d	59		 pop	 ecx
  0000e	59		 pop	 ecx

; 188  : 		}

  0000f	5d		 pop	 ebp
  00010	c2 04 00	 ret	 4
?allocate@?$allocator@D@std@@QAEPADI@Z ENDP		; std::allocator<char>::allocate
_TEXT	ENDS
PUBLIC	??$?9DD@std@@YA_NABV?$allocator@D@0@0@Z		; std::operator!=<char,char>
; Function compile flags: /Ogsp
;	COMDAT ??$?9DD@std@@YA_NABV?$allocator@D@0@0@Z
_TEXT	SEGMENT
__Left$ = 8						; size = 4
__Right$ = 12						; size = 4
??$?9DD@std@@YA_NABV?$allocator@D@0@0@Z PROC		; std::operator!=<char,char>, COMDAT

; 271  : 	return (!(_Left == _Right));

  00000	32 c0		 xor	 al, al

; 272  : 	}

  00002	c3		 ret	 0
??$?9DD@std@@YA_NABV?$allocator@D@0@0@Z ENDP		; std::operator!=<char,char>
_TEXT	ENDS
PUBLIC	??$_Destroy_range@V?$allocator@H@std@@@std@@YAXPAH0AAV?$allocator@H@0@@Z ; std::_Destroy_range<std::allocator<int> >
; Function compile flags: /Ogsp
;	COMDAT ??$_Destroy_range@V?$allocator@H@std@@@std@@YAXPAH0AAV?$allocator@H@0@@Z
_TEXT	SEGMENT
__First$ = 8						; size = 4
__Last$ = 12						; size = 4
__Al$ = 16						; size = 4
??$_Destroy_range@V?$allocator@H@std@@@std@@YAXPAH0AAV?$allocator@H@0@@Z PROC ; std::_Destroy_range<std::allocator<int> >, COMDAT

; 88   : 	_Destroy_range(_First, _Last, _Al, _Ptr_cat(_First, _Last));
; 89   : 	}

  00000	c3		 ret	 0
??$_Destroy_range@V?$allocator@H@std@@@std@@YAXPAH0AAV?$allocator@H@0@@Z ENDP ; std::_Destroy_range<std::allocator<int> >
_TEXT	ENDS
PUBLIC	__real@42d00000
PUBLIC	?OnRender@EnablePowerupListIconBtn@@MAEXXZ	; EnablePowerupListIconBtn::OnRender
EXTRN	__imp_?PrintTextWidthCut@ioFontManager@@QAAXMMMMPBDZZ:PROC
EXTRN	__imp_?SetTextColor@ioFontManager@@QAEXK@Z:PROC
EXTRN	__imp_?SetAlignType@ioFontManager@@QAEXW4TextAlignType@@@Z:PROC
EXTRN	__imp_?SetBkColor@ioFontManager@@QAEXHHH@Z:PROC
EXTRN	__imp_?SetTextStyle@ioFontManager@@QAEXW4TextStyle@@@Z:PROC
EXTRN	__imp_?GetSingleton@ioFontManager@@SAAAV1@XZ:PROC
EXTRN	__imp_?OnRender@ioButton@@MAEXXZ:PROC
;	COMDAT __real@42d00000
; File c:\program files (x86)\microsoft visual studio 10.0\vc\include\xstring
CONST	SEGMENT
__real@42d00000 DD 042d00000r			; 104
; Function compile flags: /Ogsp
; File d:\lost saga for developer\youtube\tutorial\source\src\lsclient\gui\enablepoweruplistwnd.cpp
CONST	ENDS
;	COMDAT ?OnRender@EnablePowerupListIconBtn@@MAEXXZ
_TEXT	SEGMENT
tv254 = -20						; size = 4
tv261 = -16						; size = 4
_iYPos$ = -12						; size = 4
tv197 = -8						; size = 4
tv311 = -4						; size = 4
_iXPos$ = -4						; size = 4
?OnRender@EnablePowerupListIconBtn@@MAEXXZ PROC		; EnablePowerupListIconBtn::OnRender, COMDAT
; _this$ = ecx

; 19   : {

  00000	55		 push	 ebp
  00001	8b ec		 mov	 ebp, esp
  00003	83 ec 14	 sub	 esp, 20			; 00000014H
  00006	57		 push	 edi
  00007	8b f9		 mov	 edi, ecx

; 20   : 	if ( m_szNameList.empty() )

  00009	8b 87 6c 02 00
	00		 mov	 eax, DWORD PTR [edi+620]
  0000f	3b 87 70 02 00
	00		 cmp	 eax, DWORD PTR [edi+624]
  00015	0f 84 1b 01 00
	00		 je	 $LN1@OnRender@2

; 21   : 		return;
; 22   : 	NewShopIconBtn::OnRender();

  0001b	53		 push	 ebx
  0001c	56		 push	 esi
  0001d	ff 15 00 00 00
	00		 call	 DWORD PTR __imp_?OnRender@ioButton@@MAEXXZ

; 23   : 
; 24   : 	int iXPos = GetDerivedPosX();

  00023	8b cf		 mov	 ecx, edi
  00025	ff 15 00 00 00
	00		 call	 DWORD PTR __imp_?GetDerivedPosX@ioWnd@@QBEHXZ

; 25   : 	int iYPos = GetDerivedPosY();

  0002b	8b cf		 mov	 ecx, edi
  0002d	89 45 fc	 mov	 DWORD PTR _iXPos$[ebp], eax
  00030	ff 15 00 00 00
	00		 call	 DWORD PTR __imp_?GetDerivedPosY@ioWnd@@QBEHXZ

; 26   : 
; 27   : 	g_FontMgr.SetTextStyle( TS_NORMAL );

  00036	8b 35 00 00 00
	00		 mov	 esi, DWORD PTR __imp_?GetSingleton@ioFontManager@@SAAAV1@XZ
  0003c	33 db		 xor	 ebx, ebx
  0003e	53		 push	 ebx
  0003f	89 45 f4	 mov	 DWORD PTR _iYPos$[ebp], eax
  00042	ff d6		 call	 esi
  00044	8b c8		 mov	 ecx, eax
  00046	ff 15 00 00 00
	00		 call	 DWORD PTR __imp_?SetTextStyle@ioFontManager@@QAEXW4TextStyle@@@Z

; 28   : 	g_FontMgr.SetBkColor( 0, 0, 0 );

  0004c	53		 push	 ebx
  0004d	53		 push	 ebx
  0004e	53		 push	 ebx
  0004f	ff d6		 call	 esi
  00051	8b c8		 mov	 ecx, eax
  00053	ff 15 00 00 00
	00		 call	 DWORD PTR __imp_?SetBkColor@ioFontManager@@QAEXHHH@Z

; 29   : 	g_FontMgr.SetAlignType( TAT_CENTER );

  00059	6a 01		 push	 1
  0005b	ff d6		 call	 esi
  0005d	8b c8		 mov	 ecx, eax
  0005f	ff 15 00 00 00
	00		 call	 DWORD PTR __imp_?SetAlignType@ioFontManager@@QAEXW4TextAlignType@@@Z

; 30   : 
; 31   : 	if ( m_iItemCode > 0 )

  00065	39 9f 7c 02 00
	00		 cmp	 DWORD PTR [edi+636], ebx
  0006b	7e 07		 jle	 SHORT $LN6@OnRender@2

; 32   : 	{
; 33   : 		g_FontMgr.SetTextColor( TCT_DEFAULT_DARKGRAY );

  0006d	68 3a 3a 3a ff	 push	 -12961222		; ff3a3a3aH

; 34   : 		/*
; 35   : 		int iCheckNum = m_iItemCode % 10000;
; 36   : 		if( iCheckNum > 1000 )
; 37   : 			g_FontMgr.SetTextColor( TCT_DEFAULT_BLUE );
; 38   : 		*/
; 39   : 	}
; 40   : 	else

  00072	eb 05		 jmp	 SHORT $LN28@OnRender@2
$LN6@OnRender@2:

; 41   : 		g_FontMgr.SetTextColor( TCT_DEFAULT_LIGHTGRAY );

  00074	68 a7 a7 a7 ff	 push	 -5789785		; ffa7a7a7H
$LN28@OnRender@2:
  00079	ff d6		 call	 esi
  0007b	8b c8		 mov	 ecx, eax
  0007d	ff 15 00 00 00
	00		 call	 DWORD PTR __imp_?SetTextColor@ioFontManager@@QAEXK@Z

; 42   : 
; 43   : 	enum { X_TEXT_OFFSET = 32, Y_TEXT_OFFSET = 79, Y_OFFSET_LING_GAP = 18, Y_TEXT_OFFSET_ADD = -8, Y_OFFSET_LING_GAP_ADD = -4,  };
; 44   : 
; 45   : 	int iYAdd    = 0;
; 46   : 	int iYGapAdd = 0;
; 47   : 	int iSize = m_szNameList.size();

  00083	8b 87 70 02 00
	00		 mov	 eax, DWORD PTR [edi+624]
  00089	2b 87 6c 02 00
	00		 sub	 eax, DWORD PTR [edi+620]
  0008f	6a 1c		 push	 28			; 0000001cH
  00091	99		 cdq
  00092	5b		 pop	 ebx
  00093	f7 fb		 idiv	 ebx
  00095	33 c9		 xor	 ecx, ecx

; 48   : 	if( iSize >= 2 )

  00097	83 f8 02	 cmp	 eax, 2
  0009a	7c 08		 jl	 SHORT $LN25@OnRender@2

; 49   : 	{
; 50   : 		iYAdd    = Y_TEXT_OFFSET_ADD;

  0009c	6a f8		 push	 -8			; fffffff8H
  0009e	59		 pop	 ecx

; 51   : 		iYGapAdd = Y_OFFSET_LING_GAP_ADD; 

  0009f	6a fc		 push	 -4			; fffffffcH
  000a1	5a		 pop	 edx
  000a2	eb 02		 jmp	 SHORT $LN4@OnRender@2
$LN25@OnRender@2:
  000a4	8b d1		 mov	 edx, ecx
$LN4@OnRender@2:

; 52   : 	}
; 53   : 
; 54   : 	for(int i = 0;i < iSize;i++)

  000a6	85 c0		 test	 eax, eax
  000a8	0f 8e 86 00 00
	00		 jle	 $LN26@OnRender@2
  000ae	8b 5d fc	 mov	 ebx, DWORD PTR _iXPos$[ebp]
  000b1	83 65 fc 00	 and	 DWORD PTR tv311[ebp], 0
  000b5	83 c3 20	 add	 ebx, 32			; 00000020H
  000b8	83 c2 12	 add	 edx, 18			; 00000012H
  000bb	89 55 ec	 mov	 DWORD PTR tv254[ebp], edx
  000be	8b 55 f4	 mov	 edx, DWORD PTR _iYPos$[ebp]
  000c1	0f 57 c0	 xorps	 xmm0, xmm0
  000c4	f3 0f 2a c3	 cvtsi2ss xmm0, ebx
  000c8	f3 0f 11 45 f0	 movss	 DWORD PTR tv261[ebp], xmm0
  000cd	8d 5c 11 4f	 lea	 ebx, DWORD PTR [ecx+edx+79]
  000d1	89 45 f8	 mov	 DWORD PTR tv197[ebp], eax
$LL24@OnRender@2:

; 55   : 	{
; 56   : 		g_FontMgr.PrintTextWidthCut( iXPos+X_TEXT_OFFSET, iYPos+Y_TEXT_OFFSET+iYAdd+( i*(Y_OFFSET_LING_GAP+iYGapAdd) ), FONT_SIZE_13, 104.0f, m_szNameList[i].c_str() );

  000d4	8b 87 6c 02 00
	00		 mov	 eax, DWORD PTR [edi+620]
  000da	03 45 fc	 add	 eax, DWORD PTR tv311[ebp]
  000dd	83 78 14 10	 cmp	 DWORD PTR [eax+20], 16	; 00000010H
  000e1	72 02		 jb	 SHORT $LN20@OnRender@2
  000e3	8b 00		 mov	 eax, DWORD PTR [eax]
$LN20@OnRender@2:
  000e5	f3 0f 10 05 00
	00 00 00	 movss	 xmm0, DWORD PTR __real@42d00000
  000ed	50		 push	 eax
  000ee	83 ec 10	 sub	 esp, 16			; 00000010H
  000f1	f3 0f 11 44 24
	0c		 movss	 DWORD PTR [esp+12], xmm0
  000f7	f3 0f 10 05 00
	00 00 00	 movss	 xmm0, DWORD PTR __real@3f266666
  000ff	f3 0f 11 44 24
	08		 movss	 DWORD PTR [esp+8], xmm0
  00105	0f 57 c0	 xorps	 xmm0, xmm0
  00108	f3 0f 2a c3	 cvtsi2ss xmm0, ebx
  0010c	f3 0f 11 44 24
	04		 movss	 DWORD PTR [esp+4], xmm0
  00112	f3 0f 10 45 f0	 movss	 xmm0, DWORD PTR tv261[ebp]
  00117	f3 0f 11 04 24	 movss	 DWORD PTR [esp], xmm0
  0011c	ff d6		 call	 esi
  0011e	50		 push	 eax
  0011f	ff 15 00 00 00
	00		 call	 DWORD PTR __imp_?PrintTextWidthCut@ioFontManager@@QAAXMMMMPBDZZ
  00125	83 45 fc 1c	 add	 DWORD PTR tv311[ebp], 28 ; 0000001cH
  00129	03 5d ec	 add	 ebx, DWORD PTR tv254[ebp]
  0012c	83 c4 18	 add	 esp, 24			; 00000018H
  0012f	ff 4d f8	 dec	 DWORD PTR tv197[ebp]
  00132	75 a0		 jne	 SHORT $LL24@OnRender@2
$LN26@OnRender@2:
  00134	5e		 pop	 esi
  00135	5b		 pop	 ebx
$LN1@OnRender@2:
  00136	5f		 pop	 edi

; 57   : 	}
; 58   : 
; 59   : }

  00137	c9		 leave
  00138	c3		 ret	 0
?OnRender@EnablePowerupListIconBtn@@MAEXXZ ENDP		; EnablePowerupListIconBtn::OnRender
_TEXT	ENDS
PUBLIC	?SetInfo@PowerUpToolTip@@QAEXHH@Z		; PowerUpToolTip::SetInfo
; Function compile flags: /Ogsp
;	COMDAT ?SetInfo@PowerUpToolTip@@QAEXHH@Z
_TEXT	SEGMENT
_nType$ = 8						; size = 4
_iIndex$ = 12						; size = 4
?SetInfo@PowerUpToolTip@@QAEXHH@Z PROC			; PowerUpToolTip::SetInfo, COMDAT
; _this$ = ecx

; 477  : {

  00000	55		 push	 ebp
  00001	8b ec		 mov	 ebp, esp

; 478  : 	switch( nType )

  00003	8b 45 08	 mov	 eax, DWORD PTR _nType$[ebp]
  00006	83 e8 00	 sub	 eax, 0
  00009	74 0d		 je	 SHORT $LN2@SetInfo
  0000b	48		 dec	 eax
  0000c	75 12		 jne	 SHORT $LN3@SetInfo

; 482  : 		break;
; 483  : 	case Power_Item:
; 484  : 		SetItemInfo( iIndex );

  0000e	ff 75 0c	 push	 DWORD PTR _iIndex$[ebp]
  00011	e8 00 00 00 00	 call	 ?SetItemInfo@PowerUpToolTip@@IAEXH@Z ; PowerUpToolTip::SetItemInfo

; 485  : 		break;

  00016	eb 08		 jmp	 SHORT $LN3@SetInfo
$LN2@SetInfo:

; 479  : 	{
; 480  : 	case Power_Char:
; 481  : 		SetCharInfo( iIndex );

  00018	ff 75 0c	 push	 DWORD PTR _iIndex$[ebp]
  0001b	e8 00 00 00 00	 call	 ?SetCharInfo@PowerUpToolTip@@IAEXH@Z ; PowerUpToolTip::SetCharInfo
$LN3@SetInfo:

; 486  : 	}
; 487  : }

  00020	5d		 pop	 ebp
  00021	c2 08 00	 ret	 8
?SetInfo@PowerUpToolTip@@QAEXHH@Z ENDP			; PowerUpToolTip::SetInfo
; Function compile flags: /Ogsp
_TEXT	ENDS
;	COMDAT ?OnRender@PowerUpToolTip@@UAEXXZ
_TEXT	SEGMENT
_i$509618 = -4						; size = 4
?OnRender@PowerUpToolTip@@UAEXXZ PROC			; PowerUpToolTip::OnRender, COMDAT
; _this$ = ecx

; 556  : {

  00000	55		 push	 ebp
  00001	8b ec		 mov	 ebp, esp
  00003	51		 push	 ecx
  00004	53		 push	 ebx
  00005	56		 push	 esi
  00006	57		 push	 edi
  00007	8b f1		 mov	 esi, ecx

; 557  : 	ioWnd::OnRender();

  00009	ff 15 00 00 00
	00		 call	 DWORD PTR __imp_?OnRender@ioWnd@@MAEXXZ

; 558  : 	int nXPos = GetDerivedPosX();

  0000f	8b ce		 mov	 ecx, esi
  00011	ff 15 00 00 00
	00		 call	 DWORD PTR __imp_?GetDerivedPosX@ioWnd@@QBEHXZ

; 559  : 	int nYPos = GetDerivedPosY();

  00017	8b ce		 mov	 ecx, esi
  00019	8b d8		 mov	 ebx, eax
  0001b	ff 15 00 00 00
	00		 call	 DWORD PTR __imp_?GetDerivedPosY@ioWnd@@QBEHXZ

; 560  : 
; 561  : 	enum 
; 562  : 	{	
; 563  : 		PRINT_XOFFSET = 9,
; 564  : 		PRINT_YOFFSET = 9,
; 565  : 
; 566  : 		TOOLTIP_LINE_GAP = 18,
; 567  : 	};
; 568  : 	for( int i=0; i < MAX_TOOLTIP_DESC; ++i )

  00021	83 65 fc 00	 and	 DWORD PTR _i$509618[ebp], 0
  00025	8d 78 09	 lea	 edi, DWORD PTR [eax+9]
  00028	81 c6 6c 01 00
	00		 add	 esi, 364		; 0000016cH
$LL14@OnRender@3:

; 569  : 	{
; 570  : 		if( m_szToolTip[i].IsEmpty() )

  0002e	8b 06		 mov	 eax, DWORD PTR [esi]
  00030	3b 46 04	 cmp	 eax, DWORD PTR [esi+4]
  00033	74 3c		 je	 SHORT $LN12@OnRender@3

; 571  : 			break;
; 572  : 
; 573  : 		m_szToolTip[i].PrintFullText( nXPos+PRINT_XOFFSET, nYPos+PRINT_YOFFSET+(TOOLTIP_LINE_GAP*i), TAT_LEFT );

  00035	68 ff 00 00 00	 push	 255			; 000000ffH
  0003a	6a 00		 push	 0
  0003c	51		 push	 ecx
  0003d	0f 57 c0	 xorps	 xmm0, xmm0
  00040	51		 push	 ecx
  00041	f3 0f 2a c7	 cvtsi2ss xmm0, edi
  00045	f3 0f 11 44 24
	04		 movss	 DWORD PTR [esp+4], xmm0
  0004b	8d 43 09	 lea	 eax, DWORD PTR [ebx+9]
  0004e	0f 57 c0	 xorps	 xmm0, xmm0
  00051	f3 0f 2a c0	 cvtsi2ss xmm0, eax
  00055	8d 4e f4	 lea	 ecx, DWORD PTR [esi-12]
  00058	f3 0f 11 04 24	 movss	 DWORD PTR [esp], xmm0
  0005d	e8 00 00 00 00	 call	 ?PrintFullText@ioComplexStringPrinter@@QAEXMMW4TextAlignType@@E@Z ; ioComplexStringPrinter::PrintFullText
  00062	ff 45 fc	 inc	 DWORD PTR _i$509618[ebp]
  00065	83 c6 20	 add	 esi, 32			; 00000020H
  00068	83 c7 12	 add	 edi, 18			; 00000012H
  0006b	83 7d fc 0a	 cmp	 DWORD PTR _i$509618[ebp], 10 ; 0000000aH
  0006f	7c bd		 jl	 SHORT $LL14@OnRender@3
$LN12@OnRender@3:
  00071	5f		 pop	 edi
  00072	5e		 pop	 esi
  00073	5b		 pop	 ebx

; 574  : 	}
; 575  : }

  00074	c9		 leave
  00075	c3		 ret	 0
?OnRender@PowerUpToolTip@@UAEXXZ ENDP			; PowerUpToolTip::OnRender
_TEXT	ENDS
PUBLIC	??0?$vector@V?$basic_string@DU?$char_traits@D@std@@V?$allocator@D@2@@std@@V?$allocator@V?$basic_string@DU?$char_traits@D@std@@V?$allocator@D@2@@std@@@2@@std@@QAE@XZ ; std::vector<std::basic_string<char,std::char_traits<char>,std::allocator<char> >,std::allocator<std::basic_string<char,std::char_traits<char>,std::allocator<char> > > >::vector<std::basic_string<char,std::char_traits<char>,std::allocator<char> >,std::allocator<std::basic_string<char,std::char_traits<char>,std::allocator<char> > > >
; Function compile flags: /Ogsp
; File c:\program files (x86)\microsoft visual studio 10.0\vc\include\vector
;	COMDAT ??0?$vector@V?$basic_string@DU?$char_traits@D@std@@V?$allocator@D@2@@std@@V?$allocator@V?$basic_string@DU?$char_traits@D@std@@V?$allocator@D@2@@std@@@2@@std@@QAE@XZ
_TEXT	SEGMENT
??0?$vector@V?$basic_string@DU?$char_traits@D@std@@V?$allocator@D@2@@std@@V?$allocator@V?$basic_string@DU?$char_traits@D@std@@V?$allocator@D@2@@std@@@2@@std@@QAE@XZ PROC ; std::vector<std::basic_string<char,std::char_traits<char>,std::allocator<char> >,std::allocator<std::basic_string<char,std::char_traits<char>,std::allocator<char> > > >::vector<std::basic_string<char,std::char_traits<char>,std::allocator<char> >,std::allocator<std::basic_string<char,std::char_traits<char>,std::allocator<char> > > >, COMDAT
; _this$ = ecx

; 507  : 		{	// construct empty vector

  00000	8b c1		 mov	 eax, ecx
  00002	33 c9		 xor	 ecx, ecx
  00004	89 08		 mov	 DWORD PTR [eax], ecx
  00006	89 48 04	 mov	 DWORD PTR [eax+4], ecx
  00009	89 48 08	 mov	 DWORD PTR [eax+8], ecx

; 508  : 		}

  0000c	c3		 ret	 0
??0?$vector@V?$basic_string@DU?$char_traits@D@std@@V?$allocator@D@2@@std@@V?$allocator@V?$basic_string@DU?$char_traits@D@std@@V?$allocator@D@2@@std@@@2@@std@@QAE@XZ ENDP ; std::vector<std::basic_string<char,std::char_traits<char>,std::allocator<char> >,std::allocator<std::basic_string<char,std::char_traits<char>,std::allocator<char> > > >::vector<std::basic_string<char,std::char_traits<char>,std::allocator<char> >,std::allocator<std::basic_string<char,std::char_traits<char>,std::allocator<char> > > >
_TEXT	ENDS
PUBLIC	??0?$vector@UEXTRAITEMSLOT@@V?$allocator@UEXTRAITEMSLOT@@@std@@@std@@QAE@XZ ; std::vector<EXTRAITEMSLOT,std::allocator<EXTRAITEMSLOT> >::vector<EXTRAITEMSLOT,std::allocator<EXTRAITEMSLOT> >
; Function compile flags: /Ogsp
;	COMDAT ??0?$vector@UEXTRAITEMSLOT@@V?$allocator@UEXTRAITEMSLOT@@@std@@@std@@QAE@XZ
_TEXT	SEGMENT
??0?$vector@UEXTRAITEMSLOT@@V?$allocator@UEXTRAITEMSLOT@@@std@@@std@@QAE@XZ PROC ; std::vector<EXTRAITEMSLOT,std::allocator<EXTRAITEMSLOT> >::vector<EXTRAITEMSLOT,std::allocator<EXTRAITEMSLOT> >, COMDAT
; _this$ = ecx

; 507  : 		{	// construct empty vector

  00000	8b c1		 mov	 eax, ecx
  00002	33 c9		 xor	 ecx, ecx
  00004	89 08		 mov	 DWORD PTR [eax], ecx
  00006	89 48 04	 mov	 DWORD PTR [eax+4], ecx
  00009	89 48 08	 mov	 DWORD PTR [eax+8], ecx

; 508  : 		}

  0000c	c3		 ret	 0
??0?$vector@UEXTRAITEMSLOT@@V?$allocator@UEXTRAITEMSLOT@@@std@@@std@@QAE@XZ ENDP ; std::vector<EXTRAITEMSLOT,std::allocator<EXTRAITEMSLOT> >::vector<EXTRAITEMSLOT,std::allocator<EXTRAITEMSLOT> >
_TEXT	ENDS
PUBLIC	??0?$vector@UPowerupListInfo@@V?$allocator@UPowerupListInfo@@@std@@@std@@QAE@XZ ; std::vector<PowerupListInfo,std::allocator<PowerupListInfo> >::vector<PowerupListInfo,std::allocator<PowerupListInfo> >
; Function compile flags: /Ogsp
;	COMDAT ??0?$vector@UPowerupListInfo@@V?$allocator@UPowerupListInfo@@@std@@@std@@QAE@XZ
_TEXT	SEGMENT
??0?$vector@UPowerupListInfo@@V?$allocator@UPowerupListInfo@@@std@@@std@@QAE@XZ PROC ; std::vector<PowerupListInfo,std::allocator<PowerupListInfo> >::vector<PowerupListInfo,std::allocator<PowerupListInfo> >, COMDAT
; _this$ = ecx

; 507  : 		{	// construct empty vector

  00000	8b c1		 mov	 eax, ecx
  00002	33 c9		 xor	 ecx, ecx
  00004	89 08		 mov	 DWORD PTR [eax], ecx
  00006	89 48 04	 mov	 DWORD PTR [eax+4], ecx
  00009	89 48 08	 mov	 DWORD PTR [eax+8], ecx

; 508  : 		}

  0000c	c3		 ret	 0
??0?$vector@UPowerupListInfo@@V?$allocator@UPowerupListInfo@@@std@@@std@@QAE@XZ ENDP ; std::vector<PowerupListInfo,std::allocator<PowerupListInfo> >::vector<PowerupListInfo,std::allocator<PowerupListInfo> >
_TEXT	ENDS
PUBLIC	?begin@?$vector@UPowerupListInfo@@V?$allocator@UPowerupListInfo@@@std@@@std@@QAE?AV?$_Vector_iterator@V?$_Vector_val@UPowerupListInfo@@V?$allocator@UPowerupListInfo@@@std@@@std@@@2@XZ ; std::vector<PowerupListInfo,std::allocator<PowerupListInfo> >::begin
; Function compile flags: /Ogsp
;	COMDAT ?begin@?$vector@UPowerupListInfo@@V?$allocator@UPowerupListInfo@@@std@@@std@@QAE?AV?$_Vector_iterator@V?$_Vector_val@UPowerupListInfo@@V?$allocator@UPowerupListInfo@@@std@@@std@@@2@XZ
_TEXT	SEGMENT
___$ReturnUdt$ = 8					; size = 4
?begin@?$vector@UPowerupListInfo@@V?$allocator@UPowerupListInfo@@@std@@@std@@QAE?AV?$_Vector_iterator@V?$_Vector_val@UPowerupListInfo@@V?$allocator@UPowerupListInfo@@@std@@@std@@@2@XZ PROC ; std::vector<PowerupListInfo,std::allocator<PowerupListInfo> >::begin, COMDAT
; _this$ = ecx

; 781  : 		{	// return iterator for beginning of mutable sequence

  00000	55		 push	 ebp
  00001	8b ec		 mov	 ebp, esp

; 782  : 		return (iterator(this->_Myfirst, this));

  00003	8b 09		 mov	 ecx, DWORD PTR [ecx]
  00005	8b 45 08	 mov	 eax, DWORD PTR ___$ReturnUdt$[ebp]
  00008	89 08		 mov	 DWORD PTR [eax], ecx

; 783  : 		}

  0000a	5d		 pop	 ebp
  0000b	c2 04 00	 ret	 4
?begin@?$vector@UPowerupListInfo@@V?$allocator@UPowerupListInfo@@@std@@@std@@QAE?AV?$_Vector_iterator@V?$_Vector_val@UPowerupListInfo@@V?$allocator@UPowerupListInfo@@@std@@@std@@@2@XZ ENDP ; std::vector<PowerupListInfo,std::allocator<PowerupListInfo> >::begin
_TEXT	ENDS
PUBLIC	?end@?$vector@UPowerupListInfo@@V?$allocator@UPowerupListInfo@@@std@@@std@@QAE?AV?$_Vector_iterator@V?$_Vector_val@UPowerupListInfo@@V?$allocator@UPowerupListInfo@@@std@@@std@@@2@XZ ; std::vector<PowerupListInfo,std::allocator<PowerupListInfo> >::end
; Function compile flags: /Ogsp
;	COMDAT ?end@?$vector@UPowerupListInfo@@V?$allocator@UPowerupListInfo@@@std@@@std@@QAE?AV?$_Vector_iterator@V?$_Vector_val@UPowerupListInfo@@V?$allocator@UPowerupListInfo@@@std@@@std@@@2@XZ
_TEXT	SEGMENT
___$ReturnUdt$ = 8					; size = 4
?end@?$vector@UPowerupListInfo@@V?$allocator@UPowerupListInfo@@@std@@@std@@QAE?AV?$_Vector_iterator@V?$_Vector_val@UPowerupListInfo@@V?$allocator@UPowerupListInfo@@@std@@@std@@@2@XZ PROC ; std::vector<PowerupListInfo,std::allocator<PowerupListInfo> >::end, COMDAT
; _this$ = ecx

; 791  : 		{	// return iterator for end of mutable sequence

  00000	55		 push	 ebp
  00001	8b ec		 mov	 ebp, esp

; 792  : 		return (iterator(this->_Mylast, this));

  00003	8b 49 04	 mov	 ecx, DWORD PTR [ecx+4]
  00006	8b 45 08	 mov	 eax, DWORD PTR ___$ReturnUdt$[ebp]
  00009	89 08		 mov	 DWORD PTR [eax], ecx

; 793  : 		}

  0000b	5d		 pop	 ebp
  0000c	c2 04 00	 ret	 4
?end@?$vector@UPowerupListInfo@@V?$allocator@UPowerupListInfo@@@std@@@std@@QAE?AV?$_Vector_iterator@V?$_Vector_val@UPowerupListInfo@@V?$allocator@UPowerupListInfo@@@std@@@std@@@2@XZ ENDP ; std::vector<PowerupListInfo,std::allocator<PowerupListInfo> >::end
_TEXT	ENDS
PUBLIC	?begin@?$vector@V?$basic_string@DU?$char_traits@D@std@@V?$allocator@D@2@@std@@V?$allocator@V?$basic_string@DU?$char_traits@D@std@@V?$allocator@D@2@@std@@@2@@std@@QAE?AV?$_Vector_iterator@V?$_Vector_val@V?$basic_string@DU?$char_traits@D@std@@V?$allocator@D@2@@std@@V?$allocator@V?$basic_string@DU?$char_traits@D@std@@V?$allocator@D@2@@std@@@2@@std@@@2@XZ ; std::vector<std::basic_string<char,std::char_traits<char>,std::allocator<char> >,std::allocator<std::basic_string<char,std::char_traits<char>,std::allocator<char> > > >::begin
; Function compile flags: /Ogsp
;	COMDAT ?begin@?$vector@V?$basic_string@DU?$char_traits@D@std@@V?$allocator@D@2@@std@@V?$allocator@V?$basic_string@DU?$char_traits@D@std@@V?$allocator@D@2@@std@@@2@@std@@QAE?AV?$_Vector_iterator@V?$_Vector_val@V?$basic_string@DU?$char_traits@D@std@@V?$allocator@D@2@@std@@V?$allocator@V?$basic_string@DU?$char_traits@D@std@@V?$allocator@D@2@@std@@@2@@std@@@2@XZ
_TEXT	SEGMENT
___$ReturnUdt$ = 8					; size = 4
?begin@?$vector@V?$basic_string@DU?$char_traits@D@std@@V?$allocator@D@2@@std@@V?$allocator@V?$basic_string@DU?$char_traits@D@std@@V?$allocator@D@2@@std@@@2@@std@@QAE?AV?$_Vector_iterator@V?$_Vector_val@V?$basic_string@DU?$char_traits@D@std@@V?$allocator@D@2@@std@@V?$allocator@V?$basic_string@DU?$char_traits@D@std@@V?$allocator@D@2@@std@@@2@@std@@@2@XZ PROC ; std::vector<std::basic_string<char,std::char_traits<char>,std::allocator<char> >,std::allocator<std::basic_string<char,std::char_traits<char>,std::allocator<char> > > >::begin, COMDAT
; _this$ = ecx

; 781  : 		{	// return iterator for beginning of mutable sequence

  00000	55		 push	 ebp
  00001	8b ec		 mov	 ebp, esp

; 782  : 		return (iterator(this->_Myfirst, this));

  00003	8b 09		 mov	 ecx, DWORD PTR [ecx]
  00005	8b 45 08	 mov	 eax, DWORD PTR ___$ReturnUdt$[ebp]
  00008	89 08		 mov	 DWORD PTR [eax], ecx

; 783  : 		}

  0000a	5d		 pop	 ebp
  0000b	c2 04 00	 ret	 4
?begin@?$vector@V?$basic_string@DU?$char_traits@D@std@@V?$allocator@D@2@@std@@V?$allocator@V?$basic_string@DU?$char_traits@D@std@@V?$allocator@D@2@@std@@@2@@std@@QAE?AV?$_Vector_iterator@V?$_Vector_val@V?$basic_string@DU?$char_traits@D@std@@V?$allocator@D@2@@std@@V?$allocator@V?$basic_string@DU?$char_traits@D@std@@V?$allocator@D@2@@std@@@2@@std@@@2@XZ ENDP ; std::vector<std::basic_string<char,std::char_traits<char>,std::allocator<char> >,std::allocator<std::basic_string<char,std::char_traits<char>,std::allocator<char> > > >::begin
_TEXT	ENDS
PUBLIC	?end@?$vector@V?$basic_string@DU?$char_traits@D@std@@V?$allocator@D@2@@std@@V?$allocator@V?$basic_string@DU?$char_traits@D@std@@V?$allocator@D@2@@std@@@2@@std@@QAE?AV?$_Vector_iterator@V?$_Vector_val@V?$basic_string@DU?$char_traits@D@std@@V?$allocator@D@2@@std@@V?$allocator@V?$basic_string@DU?$char_traits@D@std@@V?$allocator@D@2@@std@@@2@@std@@@2@XZ ; std::vector<std::basic_string<char,std::char_traits<char>,std::allocator<char> >,std::allocator<std::basic_string<char,std::char_traits<char>,std::allocator<char> > > >::end
; Function compile flags: /Ogsp
;	COMDAT ?end@?$vector@V?$basic_string@DU?$char_traits@D@std@@V?$allocator@D@2@@std@@V?$allocator@V?$basic_string@DU?$char_traits@D@std@@V?$allocator@D@2@@std@@@2@@std@@QAE?AV?$_Vector_iterator@V?$_Vector_val@V?$basic_string@DU?$char_traits@D@std@@V?$allocator@D@2@@std@@V?$allocator@V?$basic_string@DU?$char_traits@D@std@@V?$allocator@D@2@@std@@@2@@std@@@2@XZ
_TEXT	SEGMENT
___$ReturnUdt$ = 8					; size = 4
?end@?$vector@V?$basic_string@DU?$char_traits@D@std@@V?$allocator@D@2@@std@@V?$allocator@V?$basic_string@DU?$char_traits@D@std@@V?$allocator@D@2@@std@@@2@@std@@QAE?AV?$_Vector_iterator@V?$_Vector_val@V?$basic_string@DU?$char_traits@D@std@@V?$allocator@D@2@@std@@V?$allocator@V?$basic_string@DU?$char_traits@D@std@@V?$allocator@D@2@@std@@@2@@std@@@2@XZ PROC ; std::vector<std::basic_string<char,std::char_traits<char>,std::allocator<char> >,std::allocator<std::basic_string<char,std::char_traits<char>,std::allocator<char> > > >::end, COMDAT
; _this$ = ecx

; 791  : 		{	// return iterator for end of mutable sequence

  00000	55		 push	 ebp
  00001	8b ec		 mov	 ebp, esp

; 792  : 		return (iterator(this->_Mylast, this));

  00003	8b 49 04	 mov	 ecx, DWORD PTR [ecx+4]
  00006	8b 45 08	 mov	 eax, DWORD PTR ___$ReturnUdt$[ebp]
  00009	89 08		 mov	 DWORD PTR [eax], ecx

; 793  : 		}

  0000b	5d		 pop	 ebp
  0000c	c2 04 00	 ret	 4
?end@?$vector@V?$basic_string@DU?$char_traits@D@std@@V?$allocator@D@2@@std@@V?$allocator@V?$basic_string@DU?$char_traits@D@std@@V?$allocator@D@2@@std@@@2@@std@@QAE?AV?$_Vector_iterator@V?$_Vector_val@V?$basic_string@DU?$char_traits@D@std@@V?$allocator@D@2@@std@@V?$allocator@V?$basic_string@DU?$char_traits@D@std@@V?$allocator@D@2@@std@@@2@@std@@@2@XZ ENDP ; std::vector<std::basic_string<char,std::char_traits<char>,std::allocator<char> >,std::allocator<std::basic_string<char,std::char_traits<char>,std::allocator<char> > > >::end
_TEXT	ENDS
PUBLIC	?_Buy@?$vector@V?$basic_string@DU?$char_traits@D@std@@V?$allocator@D@2@@std@@V?$allocator@V?$basic_string@DU?$char_traits@D@std@@V?$allocator@D@2@@std@@@2@@std@@IAE_NI@Z ; std::vector<std::basic_string<char,std::char_traits<char>,std::allocator<char> >,std::allocator<std::basic_string<char,std::char_traits<char>,std::allocator<char> > > >::_Buy
; Function compile flags: /Ogsp
;	COMDAT ?_Buy@?$vector@V?$basic_string@DU?$char_traits@D@std@@V?$allocator@D@2@@std@@V?$allocator@V?$basic_string@DU?$char_traits@D@std@@V?$allocator@D@2@@std@@@2@@std@@IAE_NI@Z
_TEXT	SEGMENT
__Capacity$ = 8						; size = 4
?_Buy@?$vector@V?$basic_string@DU?$char_traits@D@std@@V?$allocator@D@2@@std@@V?$allocator@V?$basic_string@DU?$char_traits@D@std@@V?$allocator@D@2@@std@@@2@@std@@IAE_NI@Z PROC ; std::vector<std::basic_string<char,std::char_traits<char>,std::allocator<char> >,std::allocator<std::basic_string<char,std::char_traits<char>,std::allocator<char> > > >::_Buy, COMDAT
; _this$ = ecx

; 1250 : 		{	// allocate array with _Capacity elements

  00000	55		 push	 ebp
  00001	8b ec		 mov	 ebp, esp
  00003	56		 push	 esi

; 1251 : 		this->_Myfirst = 0;

  00004	33 c0		 xor	 eax, eax
  00006	57		 push	 edi

; 1252 : 		this->_Mylast = 0;
; 1253 : 		this->_Myend = 0;
; 1254 : 
; 1255 : 		if (_Capacity == 0)

  00007	8b 7d 08	 mov	 edi, DWORD PTR __Capacity$[ebp]
  0000a	8b f1		 mov	 esi, ecx
  0000c	89 06		 mov	 DWORD PTR [esi], eax
  0000e	89 46 04	 mov	 DWORD PTR [esi+4], eax
  00011	89 46 08	 mov	 DWORD PTR [esi+8], eax
  00014	3b f8		 cmp	 edi, eax
  00016	75 04		 jne	 SHORT $LN4@Buy

; 1256 : 			return (false);

  00018	32 c0		 xor	 al, al
  0001a	eb 2b		 jmp	 SHORT $LN5@Buy
$LN4@Buy:

; 1257 : 		else if (max_size() < _Capacity)

  0001c	81 ff 49 92 24
	09		 cmp	 edi, 153391689		; 09249249H
  00022	76 0b		 jbe	 SHORT $LN2@Buy

; 1258 : 			_Xlen();	// result too long

  00024	68 00 00 00 00	 push	 OFFSET ??_C@_0BD@OLBABOEK@vector?$DMT?$DO?5too?5long?$AA@
  00029	ff 15 00 00 00
	00		 call	 DWORD PTR __imp_?_Xlength_error@std@@YAXPBD@Z
$LN19@Buy:
$LN2@Buy:

; 1259 : 		else
; 1260 : 			{	// nonempty array, allocate storage
; 1261 : 			this->_Myfirst = this->_Alval.allocate(_Capacity);

  0002f	50		 push	 eax
  00030	57		 push	 edi
  00031	e8 00 00 00 00	 call	 ??$_Allocate@V?$basic_string@DU?$char_traits@D@std@@V?$allocator@D@2@@std@@@std@@YAPAV?$basic_string@DU?$char_traits@D@std@@V?$allocator@D@2@@0@IPAV10@@Z ; std::_Allocate<std::basic_string<char,std::char_traits<char>,std::allocator<char> > >

; 1262 : 			this->_Mylast = this->_Myfirst;
; 1263 : 			this->_Myend = this->_Myfirst + _Capacity;

  00036	6b ff 1c	 imul	 edi, 28			; 0000001cH
  00039	03 f8		 add	 edi, eax
  0003b	59		 pop	 ecx
  0003c	89 06		 mov	 DWORD PTR [esi], eax
  0003e	89 46 04	 mov	 DWORD PTR [esi+4], eax
  00041	59		 pop	 ecx
  00042	89 7e 08	 mov	 DWORD PTR [esi+8], edi

; 1264 : 			}
; 1265 : 		return (true);

  00045	b0 01		 mov	 al, 1
$LN5@Buy:
  00047	5f		 pop	 edi
  00048	5e		 pop	 esi

; 1266 : 		}

  00049	5d		 pop	 ebp
  0004a	c2 04 00	 ret	 4
$LN18@Buy:
?_Buy@?$vector@V?$basic_string@DU?$char_traits@D@std@@V?$allocator@D@2@@std@@V?$allocator@V?$basic_string@DU?$char_traits@D@std@@V?$allocator@D@2@@std@@@2@@std@@IAE_NI@Z ENDP ; std::vector<std::basic_string<char,std::char_traits<char>,std::allocator<char> >,std::allocator<std::basic_string<char,std::char_traits<char>,std::allocator<char> > > >::_Buy
_TEXT	ENDS
PUBLIC	?_Buy@?$vector@HV?$allocator@H@std@@@std@@IAE_NI@Z ; std::vector<int,std::allocator<int> >::_Buy
; Function compile flags: /Ogsp
;	COMDAT ?_Buy@?$vector@HV?$allocator@H@std@@@std@@IAE_NI@Z
_TEXT	SEGMENT
__Capacity$ = 8						; size = 4
?_Buy@?$vector@HV?$allocator@H@std@@@std@@IAE_NI@Z PROC	; std::vector<int,std::allocator<int> >::_Buy, COMDAT
; _this$ = ecx

; 1250 : 		{	// allocate array with _Capacity elements

  00000	55		 push	 ebp
  00001	8b ec		 mov	 ebp, esp
  00003	56		 push	 esi

; 1251 : 		this->_Myfirst = 0;

  00004	33 c0		 xor	 eax, eax
  00006	57		 push	 edi

; 1252 : 		this->_Mylast = 0;
; 1253 : 		this->_Myend = 0;
; 1254 : 
; 1255 : 		if (_Capacity == 0)

  00007	8b 7d 08	 mov	 edi, DWORD PTR __Capacity$[ebp]
  0000a	8b f1		 mov	 esi, ecx
  0000c	89 06		 mov	 DWORD PTR [esi], eax
  0000e	89 46 04	 mov	 DWORD PTR [esi+4], eax
  00011	89 46 08	 mov	 DWORD PTR [esi+8], eax
  00014	3b f8		 cmp	 edi, eax
  00016	75 04		 jne	 SHORT $LN4@Buy@2

; 1256 : 			return (false);

  00018	32 c0		 xor	 al, al
  0001a	eb 29		 jmp	 SHORT $LN5@Buy@2
$LN4@Buy@2:

; 1257 : 		else if (max_size() < _Capacity)

  0001c	81 ff ff ff ff
	3f		 cmp	 edi, 1073741823		; 3fffffffH
  00022	76 0b		 jbe	 SHORT $LN2@Buy@2

; 1258 : 			_Xlen();	// result too long

  00024	68 00 00 00 00	 push	 OFFSET ??_C@_0BD@OLBABOEK@vector?$DMT?$DO?5too?5long?$AA@
  00029	ff 15 00 00 00
	00		 call	 DWORD PTR __imp_?_Xlength_error@std@@YAXPBD@Z
$LN19@Buy@2:
$LN2@Buy@2:

; 1259 : 		else
; 1260 : 			{	// nonempty array, allocate storage
; 1261 : 			this->_Myfirst = this->_Alval.allocate(_Capacity);

  0002f	50		 push	 eax
  00030	57		 push	 edi
  00031	e8 00 00 00 00	 call	 ??$_Allocate@H@std@@YAPAHIPAH@Z ; std::_Allocate<int>
  00036	89 06		 mov	 DWORD PTR [esi], eax

; 1262 : 			this->_Mylast = this->_Myfirst;

  00038	89 46 04	 mov	 DWORD PTR [esi+4], eax

; 1263 : 			this->_Myend = this->_Myfirst + _Capacity;

  0003b	8d 04 b8	 lea	 eax, DWORD PTR [eax+edi*4]
  0003e	59		 pop	 ecx
  0003f	89 46 08	 mov	 DWORD PTR [esi+8], eax
  00042	59		 pop	 ecx

; 1264 : 			}
; 1265 : 		return (true);

  00043	b0 01		 mov	 al, 1
$LN5@Buy@2:
  00045	5f		 pop	 edi
  00046	5e		 pop	 esi

; 1266 : 		}

  00047	5d		 pop	 ebp
  00048	c2 04 00	 ret	 4
$LN18@Buy@2:
?_Buy@?$vector@HV?$allocator@H@std@@@std@@IAE_NI@Z ENDP	; std::vector<int,std::allocator<int> >::_Buy
_TEXT	ENDS
PUBLIC	?begin@?$vector@UEXTRAITEMSLOT@@V?$allocator@UEXTRAITEMSLOT@@@std@@@std@@QAE?AV?$_Vector_iterator@V?$_Vector_val@UEXTRAITEMSLOT@@V?$allocator@UEXTRAITEMSLOT@@@std@@@std@@@2@XZ ; std::vector<EXTRAITEMSLOT,std::allocator<EXTRAITEMSLOT> >::begin
; Function compile flags: /Ogsp
;	COMDAT ?begin@?$vector@UEXTRAITEMSLOT@@V?$allocator@UEXTRAITEMSLOT@@@std@@@std@@QAE?AV?$_Vector_iterator@V?$_Vector_val@UEXTRAITEMSLOT@@V?$allocator@UEXTRAITEMSLOT@@@std@@@std@@@2@XZ
_TEXT	SEGMENT
___$ReturnUdt$ = 8					; size = 4
?begin@?$vector@UEXTRAITEMSLOT@@V?$allocator@UEXTRAITEMSLOT@@@std@@@std@@QAE?AV?$_Vector_iterator@V?$_Vector_val@UEXTRAITEMSLOT@@V?$allocator@UEXTRAITEMSLOT@@@std@@@std@@@2@XZ PROC ; std::vector<EXTRAITEMSLOT,std::allocator<EXTRAITEMSLOT> >::begin, COMDAT
; _this$ = ecx

; 781  : 		{	// return iterator for beginning of mutable sequence

  00000	55		 push	 ebp
  00001	8b ec		 mov	 ebp, esp

; 782  : 		return (iterator(this->_Myfirst, this));

  00003	8b 09		 mov	 ecx, DWORD PTR [ecx]
  00005	8b 45 08	 mov	 eax, DWORD PTR ___$ReturnUdt$[ebp]
  00008	89 08		 mov	 DWORD PTR [eax], ecx

; 783  : 		}

  0000a	5d		 pop	 ebp
  0000b	c2 04 00	 ret	 4
?begin@?$vector@UEXTRAITEMSLOT@@V?$allocator@UEXTRAITEMSLOT@@@std@@@std@@QAE?AV?$_Vector_iterator@V?$_Vector_val@UEXTRAITEMSLOT@@V?$allocator@UEXTRAITEMSLOT@@@std@@@std@@@2@XZ ENDP ; std::vector<EXTRAITEMSLOT,std::allocator<EXTRAITEMSLOT> >::begin
_TEXT	ENDS
PUBLIC	?end@?$vector@UEXTRAITEMSLOT@@V?$allocator@UEXTRAITEMSLOT@@@std@@@std@@QAE?AV?$_Vector_iterator@V?$_Vector_val@UEXTRAITEMSLOT@@V?$allocator@UEXTRAITEMSLOT@@@std@@@std@@@2@XZ ; std::vector<EXTRAITEMSLOT,std::allocator<EXTRAITEMSLOT> >::end
; Function compile flags: /Ogsp
;	COMDAT ?end@?$vector@UEXTRAITEMSLOT@@V?$allocator@UEXTRAITEMSLOT@@@std@@@std@@QAE?AV?$_Vector_iterator@V?$_Vector_val@UEXTRAITEMSLOT@@V?$allocator@UEXTRAITEMSLOT@@@std@@@std@@@2@XZ
_TEXT	SEGMENT
___$ReturnUdt$ = 8					; size = 4
?end@?$vector@UEXTRAITEMSLOT@@V?$allocator@UEXTRAITEMSLOT@@@std@@@std@@QAE?AV?$_Vector_iterator@V?$_Vector_val@UEXTRAITEMSLOT@@V?$allocator@UEXTRAITEMSLOT@@@std@@@std@@@2@XZ PROC ; std::vector<EXTRAITEMSLOT,std::allocator<EXTRAITEMSLOT> >::end, COMDAT
; _this$ = ecx

; 791  : 		{	// return iterator for end of mutable sequence

  00000	55		 push	 ebp
  00001	8b ec		 mov	 ebp, esp

; 792  : 		return (iterator(this->_Mylast, this));

  00003	8b 49 04	 mov	 ecx, DWORD PTR [ecx+4]
  00006	8b 45 08	 mov	 eax, DWORD PTR ___$ReturnUdt$[ebp]
  00009	89 08		 mov	 DWORD PTR [eax], ecx

; 793  : 		}

  0000b	5d		 pop	 ebp
  0000c	c2 04 00	 ret	 4
?end@?$vector@UEXTRAITEMSLOT@@V?$allocator@UEXTRAITEMSLOT@@@std@@@std@@QAE?AV?$_Vector_iterator@V?$_Vector_val@UEXTRAITEMSLOT@@V?$allocator@UEXTRAITEMSLOT@@@std@@@std@@@2@XZ ENDP ; std::vector<EXTRAITEMSLOT,std::allocator<EXTRAITEMSLOT> >::end
_TEXT	ENDS
PUBLIC	?_Make_iter@?$vector@V?$basic_string@DU?$char_traits@D@std@@V?$allocator@D@2@@std@@V?$allocator@V?$basic_string@DU?$char_traits@D@std@@V?$allocator@D@2@@std@@@2@@std@@QBE?AV?$_Vector_iterator@V?$_Vector_val@V?$basic_string@DU?$char_traits@D@std@@V?$allocator@D@2@@std@@V?$allocator@V?$basic_string@DU?$char_traits@D@std@@V?$allocator@D@2@@std@@@2@@std@@@2@V?$_Vector_const_iterator@V?$_Vector_val@V?$basic_string@DU?$char_traits@D@std@@V?$allocator@D@2@@std@@V?$allocator@V?$basic_string@DU?$char_traits@D@std@@V?$allocator@D@2@@std@@@2@@std@@@2@@Z ; std::vector<std::basic_string<char,std::char_traits<char>,std::allocator<char> >,std::allocator<std::basic_string<char,std::char_traits<char>,std::allocator<char> > > >::_Make_iter
; Function compile flags: /Ogsp
;	COMDAT ?_Make_iter@?$vector@V?$basic_string@DU?$char_traits@D@std@@V?$allocator@D@2@@std@@V?$allocator@V?$basic_string@DU?$char_traits@D@std@@V?$allocator@D@2@@std@@@2@@std@@QBE?AV?$_Vector_iterator@V?$_Vector_val@V?$basic_string@DU?$char_traits@D@std@@V?$allocator@D@2@@std@@V?$allocator@V?$basic_string@DU?$char_traits@D@std@@V?$allocator@D@2@@std@@@2@@std@@@2@V?$_Vector_const_iterator@V?$_Vector_val@V?$basic_string@DU?$char_traits@D@std@@V?$allocator@D@2@@std@@V?$allocator@V?$basic_string@DU?$char_traits@D@std@@V?$allocator@D@2@@std@@@2@@std@@@2@@Z
_TEXT	SEGMENT
___$ReturnUdt$ = 8					; size = 4
__Where$ = 12						; size = 4
?_Make_iter@?$vector@V?$basic_string@DU?$char_traits@D@std@@V?$allocator@D@2@@std@@V?$allocator@V?$basic_string@DU?$char_traits@D@std@@V?$allocator@D@2@@std@@@2@@std@@QBE?AV?$_Vector_iterator@V?$_Vector_val@V?$basic_string@DU?$char_traits@D@std@@V?$allocator@D@2@@std@@V?$allocator@V?$basic_string@DU?$char_traits@D@std@@V?$allocator@D@2@@std@@@2@@std@@@2@V?$_Vector_const_iterator@V?$_Vector_val@V?$basic_string@DU?$char_traits@D@std@@V?$allocator@D@2@@std@@V?$allocator@V?$basic_string@DU?$char_traits@D@std@@V?$allocator@D@2@@std@@@2@@std@@@2@@Z PROC ; std::vector<std::basic_string<char,std::char_traits<char>,std::allocator<char> >,std::allocator<std::basic_string<char,std::char_traits<char>,std::allocator<char> > > >::_Make_iter, COMDAT
; _this$ = ecx

; 801  : 		{	// make iterator from const_iterator

  00000	55		 push	 ebp
  00001	8b ec		 mov	 ebp, esp

; 802  : 		return (iterator(_Where._Ptr, this));

  00003	8b 45 08	 mov	 eax, DWORD PTR ___$ReturnUdt$[ebp]
  00006	8b 4d 0c	 mov	 ecx, DWORD PTR __Where$[ebp]
  00009	89 08		 mov	 DWORD PTR [eax], ecx

; 803  : 		}

  0000b	5d		 pop	 ebp
  0000c	c2 08 00	 ret	 8
?_Make_iter@?$vector@V?$basic_string@DU?$char_traits@D@std@@V?$allocator@D@2@@std@@V?$allocator@V?$basic_string@DU?$char_traits@D@std@@V?$allocator@D@2@@std@@@2@@std@@QBE?AV?$_Vector_iterator@V?$_Vector_val@V?$basic_string@DU?$char_traits@D@std@@V?$allocator@D@2@@std@@V?$allocator@V?$basic_string@DU?$char_traits@D@std@@V?$allocator@D@2@@std@@@2@@std@@@2@V?$_Vector_const_iterator@V?$_Vector_val@V?$basic_string@DU?$char_traits@D@std@@V?$allocator@D@2@@std@@V?$allocator@V?$basic_string@DU?$char_traits@D@std@@V?$allocator@D@2@@std@@@2@@std@@@2@@Z ENDP ; std::vector<std::basic_string<char,std::char_traits<char>,std::allocator<char> >,std::allocator<std::basic_string<char,std::char_traits<char>,std::allocator<char> > > >::_Make_iter
_TEXT	ENDS
PUBLIC	?_Make_iter@?$vector@UEXTRAITEMSLOT@@V?$allocator@UEXTRAITEMSLOT@@@std@@@std@@QBE?AV?$_Vector_iterator@V?$_Vector_val@UEXTRAITEMSLOT@@V?$allocator@UEXTRAITEMSLOT@@@std@@@std@@@2@V?$_Vector_const_iterator@V?$_Vector_val@UEXTRAITEMSLOT@@V?$allocator@UEXTRAITEMSLOT@@@std@@@std@@@2@@Z ; std::vector<EXTRAITEMSLOT,std::allocator<EXTRAITEMSLOT> >::_Make_iter
; Function compile flags: /Ogsp
;	COMDAT ?_Make_iter@?$vector@UEXTRAITEMSLOT@@V?$allocator@UEXTRAITEMSLOT@@@std@@@std@@QBE?AV?$_Vector_iterator@V?$_Vector_val@UEXTRAITEMSLOT@@V?$allocator@UEXTRAITEMSLOT@@@std@@@std@@@2@V?$_Vector_const_iterator@V?$_Vector_val@UEXTRAITEMSLOT@@V?$allocator@UEXTRAITEMSLOT@@@std@@@std@@@2@@Z
_TEXT	SEGMENT
___$ReturnUdt$ = 8					; size = 4
__Where$ = 12						; size = 4
?_Make_iter@?$vector@UEXTRAITEMSLOT@@V?$allocator@UEXTRAITEMSLOT@@@std@@@std@@QBE?AV?$_Vector_iterator@V?$_Vector_val@UEXTRAITEMSLOT@@V?$allocator@UEXTRAITEMSLOT@@@std@@@std@@@2@V?$_Vector_const_iterator@V?$_Vector_val@UEXTRAITEMSLOT@@V?$allocator@UEXTRAITEMSLOT@@@std@@@std@@@2@@Z PROC ; std::vector<EXTRAITEMSLOT,std::allocator<EXTRAITEMSLOT> >::_Make_iter, COMDAT
; _this$ = ecx

; 801  : 		{	// make iterator from const_iterator

  00000	55		 push	 ebp
  00001	8b ec		 mov	 ebp, esp

; 802  : 		return (iterator(_Where._Ptr, this));

  00003	8b 45 08	 mov	 eax, DWORD PTR ___$ReturnUdt$[ebp]
  00006	8b 4d 0c	 mov	 ecx, DWORD PTR __Where$[ebp]
  00009	89 08		 mov	 DWORD PTR [eax], ecx

; 803  : 		}

  0000b	5d		 pop	 ebp
  0000c	c2 08 00	 ret	 8
?_Make_iter@?$vector@UEXTRAITEMSLOT@@V?$allocator@UEXTRAITEMSLOT@@@std@@@std@@QBE?AV?$_Vector_iterator@V?$_Vector_val@UEXTRAITEMSLOT@@V?$allocator@UEXTRAITEMSLOT@@@std@@@std@@@2@V?$_Vector_const_iterator@V?$_Vector_val@UEXTRAITEMSLOT@@V?$allocator@UEXTRAITEMSLOT@@@std@@@std@@@2@@Z ENDP ; std::vector<EXTRAITEMSLOT,std::allocator<EXTRAITEMSLOT> >::_Make_iter
_TEXT	ENDS
PUBLIC	??9?$_Vector_const_iterator@V?$_Vector_val@UPowerupListInfo@@V?$allocator@UPowerupListInfo@@@std@@@std@@@std@@QBE_NABV01@@Z ; std::_Vector_const_iterator<std::_Vector_val<PowerupListInfo,std::allocator<PowerupListInfo> > >::operator!=
; Function compile flags: /Ogsp
;	COMDAT ??9?$_Vector_const_iterator@V?$_Vector_val@UPowerupListInfo@@V?$allocator@UPowerupListInfo@@@std@@@std@@@std@@QBE_NABV01@@Z
_TEXT	SEGMENT
__Right$ = 8						; size = 4
??9?$_Vector_const_iterator@V?$_Vector_val@UPowerupListInfo@@V?$allocator@UPowerupListInfo@@@std@@@std@@@std@@QBE_NABV01@@Z PROC ; std::_Vector_const_iterator<std::_Vector_val<PowerupListInfo,std::allocator<PowerupListInfo> > >::operator!=, COMDAT
; _this$ = ecx

; 207  : 		{	// test for iterator inequality

  00000	55		 push	 ebp
  00001	8b ec		 mov	 ebp, esp

; 208  : 		return (!(*this == _Right));

  00003	8b 01		 mov	 eax, DWORD PTR [ecx]
  00005	8b 55 08	 mov	 edx, DWORD PTR __Right$[ebp]
  00008	33 c9		 xor	 ecx, ecx
  0000a	3b 02		 cmp	 eax, DWORD PTR [edx]
  0000c	0f 95 c0	 setne	 al

; 209  : 		}

  0000f	5d		 pop	 ebp
  00010	c2 04 00	 ret	 4
??9?$_Vector_const_iterator@V?$_Vector_val@UPowerupListInfo@@V?$allocator@UPowerupListInfo@@@std@@@std@@@std@@QBE_NABV01@@Z ENDP ; std::_Vector_const_iterator<std::_Vector_val<PowerupListInfo,std::allocator<PowerupListInfo> > >::operator!=
_TEXT	ENDS
PUBLIC	??9?$_Vector_const_iterator@V?$_Vector_val@V?$basic_string@DU?$char_traits@D@std@@V?$allocator@D@2@@std@@V?$allocator@V?$basic_string@DU?$char_traits@D@std@@V?$allocator@D@2@@std@@@2@@std@@@std@@QBE_NABV01@@Z ; std::_Vector_const_iterator<std::_Vector_val<std::basic_string<char,std::char_traits<char>,std::allocator<char> >,std::allocator<std::basic_string<char,std::char_traits<char>,std::allocator<char> > > > >::operator!=
; Function compile flags: /Ogsp
;	COMDAT ??9?$_Vector_const_iterator@V?$_Vector_val@V?$basic_string@DU?$char_traits@D@std@@V?$allocator@D@2@@std@@V?$allocator@V?$basic_string@DU?$char_traits@D@std@@V?$allocator@D@2@@std@@@2@@std@@@std@@QBE_NABV01@@Z
_TEXT	SEGMENT
__Right$ = 8						; size = 4
??9?$_Vector_const_iterator@V?$_Vector_val@V?$basic_string@DU?$char_traits@D@std@@V?$allocator@D@2@@std@@V?$allocator@V?$basic_string@DU?$char_traits@D@std@@V?$allocator@D@2@@std@@@2@@std@@@std@@QBE_NABV01@@Z PROC ; std::_Vector_const_iterator<std::_Vector_val<std::basic_string<char,std::char_traits<char>,std::allocator<char> >,std::allocator<std::basic_string<char,std::char_traits<char>,std::allocator<char> > > > >::operator!=, COMDAT
; _this$ = ecx

; 207  : 		{	// test for iterator inequality

  00000	55		 push	 ebp
  00001	8b ec		 mov	 ebp, esp

; 208  : 		return (!(*this == _Right));

  00003	8b 01		 mov	 eax, DWORD PTR [ecx]
  00005	8b 55 08	 mov	 edx, DWORD PTR __Right$[ebp]
  00008	33 c9		 xor	 ecx, ecx
  0000a	3b 02		 cmp	 eax, DWORD PTR [edx]
  0000c	0f 95 c0	 setne	 al

; 209  : 		}

  0000f	5d		 pop	 ebp
  00010	c2 04 00	 ret	 4
??9?$_Vector_const_iterator@V?$_Vector_val@V?$basic_string@DU?$char_traits@D@std@@V?$allocator@D@2@@std@@V?$allocator@V?$basic_string@DU?$char_traits@D@std@@V?$allocator@D@2@@std@@@2@@std@@@std@@QBE_NABV01@@Z ENDP ; std::_Vector_const_iterator<std::_Vector_val<std::basic_string<char,std::char_traits<char>,std::allocator<char> >,std::allocator<std::basic_string<char,std::char_traits<char>,std::allocator<char> > > > >::operator!=
_TEXT	ENDS
PUBLIC	??9?$_Vector_const_iterator@V?$_Vector_val@UEXTRAITEMSLOT@@V?$allocator@UEXTRAITEMSLOT@@@std@@@std@@@std@@QBE_NABV01@@Z ; std::_Vector_const_iterator<std::_Vector_val<EXTRAITEMSLOT,std::allocator<EXTRAITEMSLOT> > >::operator!=
; Function compile flags: /Ogsp
;	COMDAT ??9?$_Vector_const_iterator@V?$_Vector_val@UEXTRAITEMSLOT@@V?$allocator@UEXTRAITEMSLOT@@@std@@@std@@@std@@QBE_NABV01@@Z
_TEXT	SEGMENT
__Right$ = 8						; size = 4
??9?$_Vector_const_iterator@V?$_Vector_val@UEXTRAITEMSLOT@@V?$allocator@UEXTRAITEMSLOT@@@std@@@std@@@std@@QBE_NABV01@@Z PROC ; std::_Vector_const_iterator<std::_Vector_val<EXTRAITEMSLOT,std::allocator<EXTRAITEMSLOT> > >::operator!=, COMDAT
; _this$ = ecx

; 207  : 		{	// test for iterator inequality

  00000	55		 push	 ebp
  00001	8b ec		 mov	 ebp, esp

; 208  : 		return (!(*this == _Right));

  00003	8b 01		 mov	 eax, DWORD PTR [ecx]
  00005	8b 55 08	 mov	 edx, DWORD PTR __Right$[ebp]
  00008	33 c9		 xor	 ecx, ecx
  0000a	3b 02		 cmp	 eax, DWORD PTR [edx]
  0000c	0f 95 c0	 setne	 al

; 209  : 		}

  0000f	5d		 pop	 ebp
  00010	c2 04 00	 ret	 4
??9?$_Vector_const_iterator@V?$_Vector_val@UEXTRAITEMSLOT@@V?$allocator@UEXTRAITEMSLOT@@@std@@@std@@@std@@QBE_NABV01@@Z ENDP ; std::_Vector_const_iterator<std::_Vector_val<EXTRAITEMSLOT,std::allocator<EXTRAITEMSLOT> > >::operator!=
_TEXT	ENDS
PUBLIC	??$_Cons_val@V?$allocator@UPowerupListInfo@@@std@@UPowerupListInfo@@ABU3@@std@@YAXAAV?$allocator@UPowerupListInfo@@@0@PAUPowerupListInfo@@ABU2@@Z ; std::_Cons_val<std::allocator<PowerupListInfo>,PowerupListInfo,PowerupListInfo const &>
; Function compile flags: /Ogsp
; File c:\program files (x86)\microsoft visual studio 10.0\vc\include\xmemory
;	COMDAT ??$_Cons_val@V?$allocator@UPowerupListInfo@@@std@@UPowerupListInfo@@ABU3@@std@@YAXAAV?$allocator@UPowerupListInfo@@@0@PAUPowerupListInfo@@ABU2@@Z
_TEXT	SEGMENT
__Alval$ = 8						; size = 4
__Pdest$ = 12						; size = 4
__Src$ = 16						; size = 4
??$_Cons_val@V?$allocator@UPowerupListInfo@@@std@@UPowerupListInfo@@ABU3@@std@@YAXAAV?$allocator@UPowerupListInfo@@@0@PAUPowerupListInfo@@ABU2@@Z PROC ; std::_Cons_val<std::allocator<PowerupListInfo>,PowerupListInfo,PowerupListInfo const &>, COMDAT

; 279  : 	{	// construct using allocator

  00000	55		 push	 ebp
  00001	8b ec		 mov	 ebp, esp
  00003	57		 push	 edi

; 280  : 	_Alval.construct(_Pdest, _STD forward<_Ty2>(_Src));

  00004	8b 7d 0c	 mov	 edi, DWORD PTR __Pdest$[ebp]
  00007	85 ff		 test	 edi, edi
  00009	74 08		 je	 SHORT $LN9@Cons_val@2
  0000b	56		 push	 esi
  0000c	8b 75 10	 mov	 esi, DWORD PTR __Src$[ebp]
  0000f	a5		 movsd
  00010	a5		 movsd
  00011	a5		 movsd
  00012	5e		 pop	 esi
$LN9@Cons_val@2:
  00013	5f		 pop	 edi

; 281  : 	}

  00014	5d		 pop	 ebp
  00015	c3		 ret	 0
??$_Cons_val@V?$allocator@UPowerupListInfo@@@std@@UPowerupListInfo@@ABU3@@std@@YAXAAV?$allocator@UPowerupListInfo@@@0@PAUPowerupListInfo@@ABU2@@Z ENDP ; std::_Cons_val<std::allocator<PowerupListInfo>,PowerupListInfo,PowerupListInfo const &>
_TEXT	ENDS
PUBLIC	??$_Move@PAUEXTRAITEMSLOT@@PAU1@@std@@YAPAUEXTRAITEMSLOT@@PAU1@00@Z ; std::_Move<EXTRAITEMSLOT *,EXTRAITEMSLOT *>
; Function compile flags: /Ogsp
; File c:\program files (x86)\microsoft visual studio 10.0\vc\include\xutility
;	COMDAT ??$_Move@PAUEXTRAITEMSLOT@@PAU1@@std@@YAPAUEXTRAITEMSLOT@@PAU1@00@Z
_TEXT	SEGMENT
__Cat$515391 = -4					; size = 1
__First$ = 8						; size = 4
__Last$ = 12						; size = 4
__Dest$ = 16						; size = 4
??$_Move@PAUEXTRAITEMSLOT@@PAU1@@std@@YAPAUEXTRAITEMSLOT@@PAU1@00@Z PROC ; std::_Move<EXTRAITEMSLOT *,EXTRAITEMSLOT *>, COMDAT

; 2533 : 	{	// move [_First, _Last) to [_Dest, ...), unchecked

  00000	55		 push	 ebp
  00001	8b ec		 mov	 ebp, esp
  00003	51		 push	 ecx

; 2534 : 	return (_Move(_First, _Last,
; 2535 : 		_Dest, _Ptr_cat(_First, _Dest)));

  00004	ff 75 fc	 push	 DWORD PTR __Cat$515391[ebp]
  00007	ff 75 10	 push	 DWORD PTR __Dest$[ebp]
  0000a	ff 75 0c	 push	 DWORD PTR __Last$[ebp]
  0000d	ff 75 08	 push	 DWORD PTR __First$[ebp]
  00010	e8 00 00 00 00	 call	 ??$_Move@PAUEXTRAITEMSLOT@@PAU1@@std@@YAPAUEXTRAITEMSLOT@@PAU1@00U_Nonscalar_ptr_iterator_tag@0@@Z ; std::_Move<EXTRAITEMSLOT *,EXTRAITEMSLOT *>
  00015	83 c4 10	 add	 esp, 16			; 00000010H

; 2536 : 	}

  00018	c9		 leave
  00019	c3		 ret	 0
??$_Move@PAUEXTRAITEMSLOT@@PAU1@@std@@YAPAUEXTRAITEMSLOT@@PAU1@00@Z ENDP ; std::_Move<EXTRAITEMSLOT *,EXTRAITEMSLOT *>
_TEXT	ENDS
PUBLIC	??$_Move@PAUPowerupListInfo@@PAU1@@std@@YAPAUPowerupListInfo@@PAU1@00@Z ; std::_Move<PowerupListInfo *,PowerupListInfo *>
; Function compile flags: /Ogsp
;	COMDAT ??$_Move@PAUPowerupListInfo@@PAU1@@std@@YAPAUPowerupListInfo@@PAU1@00@Z
_TEXT	SEGMENT
__Cat$515399 = -4					; size = 1
__First$ = 8						; size = 4
__Last$ = 12						; size = 4
__Dest$ = 16						; size = 4
??$_Move@PAUPowerupListInfo@@PAU1@@std@@YAPAUPowerupListInfo@@PAU1@00@Z PROC ; std::_Move<PowerupListInfo *,PowerupListInfo *>, COMDAT

; 2533 : 	{	// move [_First, _Last) to [_Dest, ...), unchecked

  00000	55		 push	 ebp
  00001	8b ec		 mov	 ebp, esp
  00003	51		 push	 ecx

; 2534 : 	return (_Move(_First, _Last,
; 2535 : 		_Dest, _Ptr_cat(_First, _Dest)));

  00004	ff 75 fc	 push	 DWORD PTR __Cat$515399[ebp]
  00007	ff 75 10	 push	 DWORD PTR __Dest$[ebp]
  0000a	ff 75 0c	 push	 DWORD PTR __Last$[ebp]
  0000d	ff 75 08	 push	 DWORD PTR __First$[ebp]
  00010	e8 00 00 00 00	 call	 ??$_Move@PAUPowerupListInfo@@PAU1@@std@@YAPAUPowerupListInfo@@PAU1@00U_Nonscalar_ptr_iterator_tag@0@@Z ; std::_Move<PowerupListInfo *,PowerupListInfo *>
  00015	83 c4 10	 add	 esp, 16			; 00000010H

; 2536 : 	}

  00018	c9		 leave
  00019	c3		 ret	 0
??$_Move@PAUPowerupListInfo@@PAU1@@std@@YAPAUPowerupListInfo@@PAU1@00@Z ENDP ; std::_Move<PowerupListInfo *,PowerupListInfo *>
_TEXT	ENDS
PUBLIC	??$_Dest_val@V?$allocator@UPowerupListInfo@@@std@@UPowerupListInfo@@@std@@YAXAAV?$allocator@UPowerupListInfo@@@0@PAUPowerupListInfo@@@Z ; std::_Dest_val<std::allocator<PowerupListInfo>,PowerupListInfo>
; Function compile flags: /Ogsp
; File c:\program files (x86)\microsoft visual studio 10.0\vc\include\xmemory
;	COMDAT ??$_Dest_val@V?$allocator@UPowerupListInfo@@@std@@UPowerupListInfo@@@std@@YAXAAV?$allocator@UPowerupListInfo@@@0@PAUPowerupListInfo@@@Z
_TEXT	SEGMENT
__Alval$ = 8						; size = 4
__Pdest$ = 12						; size = 4
??$_Dest_val@V?$allocator@UPowerupListInfo@@@std@@UPowerupListInfo@@@std@@YAXAAV?$allocator@UPowerupListInfo@@@0@PAUPowerupListInfo@@@Z PROC ; std::_Dest_val<std::allocator<PowerupListInfo>,PowerupListInfo>, COMDAT

; 287  : 	_Alval.destroy(_Pdest);
; 288  : 	}

  00000	c3		 ret	 0
??$_Dest_val@V?$allocator@UPowerupListInfo@@@std@@UPowerupListInfo@@@std@@YAXAAV?$allocator@UPowerupListInfo@@@0@PAUPowerupListInfo@@@Z ENDP ; std::_Dest_val<std::allocator<PowerupListInfo>,PowerupListInfo>
_TEXT	ENDS
PUBLIC	?destroy@?$allocator@UEXTRAITEMSLOT@@@std@@QAEXPAUEXTRAITEMSLOT@@@Z ; std::allocator<EXTRAITEMSLOT>::destroy
; Function compile flags: /Ogsp
;	COMDAT ?destroy@?$allocator@UEXTRAITEMSLOT@@@std@@QAEXPAUEXTRAITEMSLOT@@@Z
_TEXT	SEGMENT
__Ptr$ = 8						; size = 4
?destroy@?$allocator@UEXTRAITEMSLOT@@@std@@QAEXPAUEXTRAITEMSLOT@@@Z PROC ; std::allocator<EXTRAITEMSLOT>::destroy, COMDAT
; _this$ = ecx

; 212  : 		{	// destroy object at _Ptr

  00000	55		 push	 ebp
  00001	8b ec		 mov	 ebp, esp

; 213  : 		_Destroy(_Ptr);

  00003	8b 4d 08	 mov	 ecx, DWORD PTR __Ptr$[ebp]
  00006	e8 00 00 00 00	 call	 ??1EXTRAITEMSLOT@@QAE@XZ

; 214  : 		}

  0000b	5d		 pop	 ebp
  0000c	c2 04 00	 ret	 4
?destroy@?$allocator@UEXTRAITEMSLOT@@@std@@QAEXPAUEXTRAITEMSLOT@@@Z ENDP ; std::allocator<EXTRAITEMSLOT>::destroy
_TEXT	ENDS
PUBLIC	??$iter_swap@PAUPowerupListInfo@@PAU1@@std@@YAXPAUPowerupListInfo@@0@Z ; std::iter_swap<PowerupListInfo *,PowerupListInfo *>
; Function compile flags: /Ogsp
; File c:\program files (x86)\microsoft visual studio 10.0\vc\include\xutility
;	COMDAT ??$iter_swap@PAUPowerupListInfo@@PAU1@@std@@YAXPAUPowerupListInfo@@0@Z
_TEXT	SEGMENT
__Tmp$515443 = -12					; size = 12
__Left$ = 8						; size = 4
__Right$ = 12						; size = 4
??$iter_swap@PAUPowerupListInfo@@PAU1@@std@@YAXPAUPowerupListInfo@@0@Z PROC ; std::iter_swap<PowerupListInfo *,PowerupListInfo *>, COMDAT

; 2133 : 	{	// swap *_Left and *_Right

  00000	55		 push	 ebp
  00001	8b ec		 mov	 ebp, esp
  00003	83 ec 0c	 sub	 esp, 12			; 0000000cH
  00006	56		 push	 esi

; 2134 : 	swap(*_Left, *_Right);

  00007	8b 75 08	 mov	 esi, DWORD PTR __Left$[ebp]
  0000a	57		 push	 edi
  0000b	8d 7d f4	 lea	 edi, DWORD PTR __Tmp$515443[ebp]
  0000e	a5		 movsd
  0000f	a5		 movsd
  00010	a5		 movsd
  00011	8b 75 0c	 mov	 esi, DWORD PTR __Right$[ebp]
  00014	8b 7d 08	 mov	 edi, DWORD PTR __Left$[ebp]
  00017	a5		 movsd
  00018	a5		 movsd
  00019	a5		 movsd
  0001a	8b 7d 0c	 mov	 edi, DWORD PTR __Right$[ebp]
  0001d	8d 75 f4	 lea	 esi, DWORD PTR __Tmp$515443[ebp]
  00020	a5		 movsd
  00021	a5		 movsd
  00022	a5		 movsd
  00023	5f		 pop	 edi
  00024	5e		 pop	 esi

; 2135 : 	}

  00025	c9		 leave
  00026	c3		 ret	 0
??$iter_swap@PAUPowerupListInfo@@PAU1@@std@@YAXPAUPowerupListInfo@@0@Z ENDP ; std::iter_swap<PowerupListInfo *,PowerupListInfo *>
_TEXT	ENDS
PUBLIC	??$_Make_heap@PAUPowerupListInfo@@HU1@VEnablePowerupListSort@@@std@@YAXPAUPowerupListInfo@@0VEnablePowerupListSort@@PAH0@Z ; std::_Make_heap<PowerupListInfo *,int,PowerupListInfo,EnablePowerupListSort>
; Function compile flags: /Ogsp
; File c:\program files (x86)\microsoft visual studio 10.0\vc\include\algorithm
;	COMDAT ??$_Make_heap@PAUPowerupListInfo@@HU1@VEnablePowerupListSort@@@std@@YAXPAUPowerupListInfo@@0VEnablePowerupListSort@@PAH0@Z
_TEXT	SEGMENT
__Val$512735 = -16					; size = 12
__Bottom$ = -4						; size = 4
__First$ = 8						; size = 4
tv149 = 12						; size = 4
__Last$ = 12						; size = 4
__Pred$ = 16						; size = 1
___formal$ = 20						; size = 4
___formal$ = 24						; size = 4
??$_Make_heap@PAUPowerupListInfo@@HU1@VEnablePowerupListSort@@@std@@YAXPAUPowerupListInfo@@0VEnablePowerupListSort@@PAH0@Z PROC ; std::_Make_heap<PowerupListInfo *,int,PowerupListInfo,EnablePowerupListSort>, COMDAT

; 2658 : 	{	// make nontrivial [_First, _Last) into a heap, using _Pred

  00000	55		 push	 ebp
  00001	8b ec		 mov	 ebp, esp
  00003	83 ec 10	 sub	 esp, 16			; 00000010H

; 2659 : 	_Diff _Bottom = _Last - _First;

  00006	8b 45 0c	 mov	 eax, DWORD PTR __Last$[ebp]
  00009	2b 45 08	 sub	 eax, DWORD PTR __First$[ebp]
  0000c	53		 push	 ebx
  0000d	99		 cdq
  0000e	6a 0c		 push	 12			; 0000000cH
  00010	59		 pop	 ecx
  00011	f7 f9		 idiv	 ecx
  00013	89 45 fc	 mov	 DWORD PTR __Bottom$[ebp], eax

; 2660 : 	for (_Diff _Hole = _Bottom / 2; 0 < _Hole; )

  00016	99		 cdq
  00017	2b c2		 sub	 eax, edx
  00019	8b d8		 mov	 ebx, eax
  0001b	d1 fb		 sar	 ebx, 1
  0001d	85 db		 test	 ebx, ebx
  0001f	7e 38		 jle	 SHORT $LN1@Make_heap

; 2659 : 	_Diff _Bottom = _Last - _First;

  00021	56		 push	 esi
  00022	8b f3		 mov	 esi, ebx
  00024	6b f6 0c	 imul	 esi, 12			; 0000000cH
  00027	03 75 08	 add	 esi, DWORD PTR __First$[ebp]
  0002a	57		 push	 edi
  0002b	eb 03		 jmp	 SHORT $LN2@Make_heap
$LL11@Make_heap:
  0002d	8b 75 0c	 mov	 esi, DWORD PTR tv149[ebp]
$LN2@Make_heap:

; 2661 : 		{	// reheap top half, bottom to top
; 2662 : 		--_Hole;
; 2663 : 		_Ty _Val = _Move(*(_First + _Hole));
; 2664 : 		_Adjust_heap(_First, _Hole, _Bottom,
; 2665 : 			_Move(_Val), _Pred);

  00030	ff 75 10	 push	 DWORD PTR __Pred$[ebp]
  00033	83 ee 0c	 sub	 esi, 12			; 0000000cH
  00036	89 75 0c	 mov	 DWORD PTR tv149[ebp], esi
  00039	8d 7d f0	 lea	 edi, DWORD PTR __Val$512735[ebp]
  0003c	a5		 movsd
  0003d	8d 45 f0	 lea	 eax, DWORD PTR __Val$512735[ebp]
  00040	50		 push	 eax
  00041	ff 75 fc	 push	 DWORD PTR __Bottom$[ebp]
  00044	4b		 dec	 ebx
  00045	a5		 movsd
  00046	53		 push	 ebx
  00047	ff 75 08	 push	 DWORD PTR __First$[ebp]
  0004a	a5		 movsd
  0004b	e8 00 00 00 00	 call	 ??$_Adjust_heap@PAUPowerupListInfo@@HU1@VEnablePowerupListSort@@@std@@YAXPAUPowerupListInfo@@HH$$QAU1@VEnablePowerupListSort@@@Z ; std::_Adjust_heap<PowerupListInfo *,int,PowerupListInfo,EnablePowerupListSort>
  00050	83 c4 14	 add	 esp, 20			; 00000014H
  00053	85 db		 test	 ebx, ebx
  00055	7f d6		 jg	 SHORT $LL11@Make_heap
  00057	5f		 pop	 edi
  00058	5e		 pop	 esi
$LN1@Make_heap:
  00059	5b		 pop	 ebx

; 2666 : 		}
; 2667 : 	}

  0005a	c9		 leave
  0005b	c3		 ret	 0
??$_Make_heap@PAUPowerupListInfo@@HU1@VEnablePowerupListSort@@@std@@YAXPAUPowerupListInfo@@0VEnablePowerupListSort@@PAH0@Z ENDP ; std::_Make_heap<PowerupListInfo *,int,PowerupListInfo,EnablePowerupListSort>
_TEXT	ENDS
PUBLIC	??$_Insertion_sort1@PAUPowerupListInfo@@VEnablePowerupListSort@@U1@@std@@YAXPAUPowerupListInfo@@0VEnablePowerupListSort@@0@Z ; std::_Insertion_sort1<PowerupListInfo *,EnablePowerupListSort,PowerupListInfo>
; Function compile flags: /Ogsp
;	COMDAT ??$_Insertion_sort1@PAUPowerupListInfo@@VEnablePowerupListSort@@U1@@std@@YAXPAUPowerupListInfo@@0VEnablePowerupListSort@@0@Z
_TEXT	SEGMENT
__Val$512770 = -16					; size = 12
__Next1$512769 = -4					; size = 4
__Cat$515476 = 8					; size = 1
__First$ = 8						; size = 4
__Last$ = 12						; size = 4
__Pred$ = 16						; size = 1
___formal$ = 20						; size = 4
??$_Insertion_sort1@PAUPowerupListInfo@@VEnablePowerupListSort@@U1@@std@@YAXPAUPowerupListInfo@@0VEnablePowerupListSort@@0@Z PROC ; std::_Insertion_sort1<PowerupListInfo *,EnablePowerupListSort,PowerupListInfo>, COMDAT

; 3650 : 	{	// insertion sort [_First, _Last), using _Pred

  00000	55		 push	 ebp
  00001	8b ec		 mov	 ebp, esp

; 3651 : 	if (_First != _Last)

  00003	8b 55 08	 mov	 edx, DWORD PTR __First$[ebp]
  00006	83 ec 10	 sub	 esp, 16			; 00000010H
  00009	3b 55 0c	 cmp	 edx, DWORD PTR __Last$[ebp]
  0000c	74 76		 je	 SHORT $LN6@Insertion_

; 3652 : 		for (_BidIt _Next = _First; ++_Next != _Last; )

  0000e	53		 push	 ebx
  0000f	8d 5a 0c	 lea	 ebx, DWORD PTR [edx+12]
  00012	3b 5d 0c	 cmp	 ebx, DWORD PTR __Last$[ebp]
  00015	74 6c		 je	 SHORT $LN38@Insertion_
  00017	56		 push	 esi
  00018	57		 push	 edi
$LL7@Insertion_:

; 3653 : 			{	// order next element
; 3654 : 			_BidIt _Next1 = _Next;
; 3655 : 			_Ty _Val = _Move(*_Next);
; 3656 : 
; 3657 : 			if (_DEBUG_LT_PRED(_Pred, _Val, *_First))

  00019	8b 42 08	 mov	 eax, DWORD PTR [edx+8]
  0001c	8b f3		 mov	 esi, ebx
  0001e	8d 7d f0	 lea	 edi, DWORD PTR __Val$512770[ebp]
  00021	a5		 movsd
  00022	a5		 movsd
  00023	a5		 movsd
  00024	89 5d fc	 mov	 DWORD PTR __Next1$512769[ebp], ebx
  00027	39 45 f8	 cmp	 DWORD PTR __Val$512770[ebp+8], eax
  0002a	7f 09		 jg	 SHORT $LN35@Insertion_
  0002c	75 1f		 jne	 SHORT $LN37@Insertion_
  0002e	8b 45 f0	 mov	 eax, DWORD PTR __Val$512770[ebp]
  00031	3b 02		 cmp	 eax, DWORD PTR [edx]
  00033	7d 18		 jge	 SHORT $LN37@Insertion_
$LN35@Insertion_:

; 3658 : 				{	// found new earliest element, move to front
; 3659 : 				_Move_backward(_First, _Next, ++_Next1);

  00035	ff 75 08	 push	 DWORD PTR __Cat$515476[ebp]
  00038	8d 43 0c	 lea	 eax, DWORD PTR [ebx+12]
  0003b	50		 push	 eax
  0003c	53		 push	 ebx
  0003d	52		 push	 edx
  0003e	e8 00 00 00 00	 call	 ??$_Move_backward@PAUPowerupListInfo@@PAU1@@std@@YAPAUPowerupListInfo@@PAU1@00U_Nonscalar_ptr_iterator_tag@0@@Z ; std::_Move_backward<PowerupListInfo *,PowerupListInfo *>

; 3660 : 				*_First = _Move(_Val);

  00043	8b 7d 08	 mov	 edi, DWORD PTR __First$[ebp]
  00046	83 c4 10	 add	 esp, 16			; 00000010H

; 3661 : 				}
; 3662 : 			else

  00049	8b d7		 mov	 edx, edi
  0004b	eb 26		 jmp	 SHORT $LN40@Insertion_
$LN37@Insertion_:

; 3663 : 				{	// look for insertion point after first
; 3664 : 				for (_BidIt _First1 = _Next1;

  0004d	8b c3		 mov	 eax, ebx
$LL3@Insertion_:

; 3665 : 					_DEBUG_LT_PRED(_Pred, _Val, *--_First1);
; 3666 : 					_Next1 = _First1)

  0004f	8b 48 fc	 mov	 ecx, DWORD PTR [eax-4]
  00052	83 e8 0c	 sub	 eax, 12			; 0000000cH
  00055	39 4d f8	 cmp	 DWORD PTR __Val$512770[ebp+8], ecx
  00058	7f 09		 jg	 SHORT $LN36@Insertion_
  0005a	75 14		 jne	 SHORT $LN24@Insertion_
  0005c	8b 4d f0	 mov	 ecx, DWORD PTR __Val$512770[ebp]
  0005f	3b 08		 cmp	 ecx, DWORD PTR [eax]
  00061	7d 0d		 jge	 SHORT $LN24@Insertion_
$LN36@Insertion_:

; 3667 : 					*_Next1 = _Move(*_First1);	// move hole down

  00063	8b 7d fc	 mov	 edi, DWORD PTR __Next1$512769[ebp]
  00066	8b f0		 mov	 esi, eax
  00068	a5		 movsd
  00069	a5		 movsd
  0006a	a5		 movsd
  0006b	89 45 fc	 mov	 DWORD PTR __Next1$512769[ebp], eax
  0006e	eb df		 jmp	 SHORT $LL3@Insertion_

; 3665 : 					_DEBUG_LT_PRED(_Pred, _Val, *--_First1);
; 3666 : 					_Next1 = _First1)

$LN24@Insertion_:

; 3668 : 				*_Next1 = _Move(_Val);	// insert element in hole

  00070	8b 7d fc	 mov	 edi, DWORD PTR __Next1$512769[ebp]
$LN40@Insertion_:
  00073	8d 75 f0	 lea	 esi, DWORD PTR __Val$512770[ebp]
  00076	a5		 movsd
  00077	a5		 movsd
  00078	83 c3 0c	 add	 ebx, 12			; 0000000cH
  0007b	a5		 movsd
  0007c	3b 5d 0c	 cmp	 ebx, DWORD PTR __Last$[ebp]
  0007f	75 98		 jne	 SHORT $LL7@Insertion_
  00081	5f		 pop	 edi
  00082	5e		 pop	 esi
$LN38@Insertion_:
  00083	5b		 pop	 ebx
$LN6@Insertion_:

; 3669 : 				}
; 3670 : 			}
; 3671 : 	}

  00084	c9		 leave
  00085	c3		 ret	 0
??$_Insertion_sort1@PAUPowerupListInfo@@VEnablePowerupListSort@@U1@@std@@YAXPAUPowerupListInfo@@0VEnablePowerupListSort@@0@Z ENDP ; std::_Insertion_sort1<PowerupListInfo *,EnablePowerupListSort,PowerupListInfo>
_TEXT	ENDS
PUBLIC	??$_Cons_val@V?$allocator@H@std@@HABH@std@@YAXAAV?$allocator@H@0@PAHABH@Z ; std::_Cons_val<std::allocator<int>,int,int const &>
; Function compile flags: /Ogsp
; File c:\program files (x86)\microsoft visual studio 10.0\vc\include\xmemory
;	COMDAT ??$_Cons_val@V?$allocator@H@std@@HABH@std@@YAXAAV?$allocator@H@0@PAHABH@Z
_TEXT	SEGMENT
__Alval$ = 8						; size = 4
__Pdest$ = 12						; size = 4
__Src$ = 16						; size = 4
??$_Cons_val@V?$allocator@H@std@@HABH@std@@YAXAAV?$allocator@H@0@PAHABH@Z PROC ; std::_Cons_val<std::allocator<int>,int,int const &>, COMDAT

; 279  : 	{	// construct using allocator

  00000	55		 push	 ebp
  00001	8b ec		 mov	 ebp, esp

; 280  : 	_Alval.construct(_Pdest, _STD forward<_Ty2>(_Src));

  00003	8b 45 0c	 mov	 eax, DWORD PTR __Pdest$[ebp]
  00006	85 c0		 test	 eax, eax
  00008	74 07		 je	 SHORT $LN9@Cons_val@3
  0000a	8b 4d 10	 mov	 ecx, DWORD PTR __Src$[ebp]
  0000d	8b 09		 mov	 ecx, DWORD PTR [ecx]
  0000f	89 08		 mov	 DWORD PTR [eax], ecx
$LN9@Cons_val@3:

; 281  : 	}

  00011	5d		 pop	 ebp
  00012	c3		 ret	 0
??$_Cons_val@V?$allocator@H@std@@HABH@std@@YAXAAV?$allocator@H@0@PAHABH@Z ENDP ; std::_Cons_val<std::allocator<int>,int,int const &>
_TEXT	ENDS
PUBLIC	??$_Dest_val@V?$allocator@H@std@@H@std@@YAXAAV?$allocator@H@0@PAH@Z ; std::_Dest_val<std::allocator<int>,int>
; Function compile flags: /Ogsp
;	COMDAT ??$_Dest_val@V?$allocator@H@std@@H@std@@YAXAAV?$allocator@H@0@PAH@Z
_TEXT	SEGMENT
__Alval$ = 8						; size = 4
__Pdest$ = 12						; size = 4
??$_Dest_val@V?$allocator@H@std@@H@std@@YAXAAV?$allocator@H@0@PAH@Z PROC ; std::_Dest_val<std::allocator<int>,int>, COMDAT

; 287  : 	_Alval.destroy(_Pdest);
; 288  : 	}

  00000	c3		 ret	 0
??$_Dest_val@V?$allocator@H@std@@H@std@@YAXAAV?$allocator@H@0@PAH@Z ENDP ; std::_Dest_val<std::allocator<int>,int>
_TEXT	ENDS
PUBLIC	??$_Cons_val@V?$allocator@UPowerupListInfo@@@std@@UPowerupListInfo@@U3@@std@@YAXAAV?$allocator@UPowerupListInfo@@@0@PAUPowerupListInfo@@$$QAU2@@Z ; std::_Cons_val<std::allocator<PowerupListInfo>,PowerupListInfo,PowerupListInfo>
; Function compile flags: /Ogsp
;	COMDAT ??$_Cons_val@V?$allocator@UPowerupListInfo@@@std@@UPowerupListInfo@@U3@@std@@YAXAAV?$allocator@UPowerupListInfo@@@0@PAUPowerupListInfo@@$$QAU2@@Z
_TEXT	SEGMENT
__Alval$ = 8						; size = 4
__Pdest$ = 12						; size = 4
__Src$ = 16						; size = 4
??$_Cons_val@V?$allocator@UPowerupListInfo@@@std@@UPowerupListInfo@@U3@@std@@YAXAAV?$allocator@UPowerupListInfo@@@0@PAUPowerupListInfo@@$$QAU2@@Z PROC ; std::_Cons_val<std::allocator<PowerupListInfo>,PowerupListInfo,PowerupListInfo>, COMDAT

; 279  : 	{	// construct using allocator

  00000	55		 push	 ebp
  00001	8b ec		 mov	 ebp, esp
  00003	57		 push	 edi

; 280  : 	_Alval.construct(_Pdest, _STD forward<_Ty2>(_Src));

  00004	8b 7d 0c	 mov	 edi, DWORD PTR __Pdest$[ebp]
  00007	85 ff		 test	 edi, edi
  00009	74 08		 je	 SHORT $LN7@Cons_val@4
  0000b	56		 push	 esi
  0000c	8b 75 10	 mov	 esi, DWORD PTR __Src$[ebp]
  0000f	a5		 movsd
  00010	a5		 movsd
  00011	a5		 movsd
  00012	5e		 pop	 esi
$LN7@Cons_val@4:
  00013	5f		 pop	 edi

; 281  : 	}

  00014	5d		 pop	 ebp
  00015	c3		 ret	 0
??$_Cons_val@V?$allocator@UPowerupListInfo@@@std@@UPowerupListInfo@@U3@@std@@YAXAAV?$allocator@UPowerupListInfo@@@0@PAUPowerupListInfo@@$$QAU2@@Z ENDP ; std::_Cons_val<std::allocator<PowerupListInfo>,PowerupListInfo,PowerupListInfo>
_TEXT	ENDS
PUBLIC	??$_Med3@PAUPowerupListInfo@@VEnablePowerupListSort@@@std@@YAXPAUPowerupListInfo@@00VEnablePowerupListSort@@@Z ; std::_Med3<PowerupListInfo *,EnablePowerupListSort>
; Function compile flags: /Ogsp
; File c:\program files (x86)\microsoft visual studio 10.0\vc\include\algorithm
;	COMDAT ??$_Med3@PAUPowerupListInfo@@VEnablePowerupListSort@@@std@@YAXPAUPowerupListInfo@@00VEnablePowerupListSort@@@Z
_TEXT	SEGMENT
__Tmp$515695 = -12					; size = 12
__Tmp$515657 = -12					; size = 12
__Tmp$515619 = -12					; size = 12
__First$ = 8						; size = 4
__Mid$ = 12						; size = 4
__Last$ = 16						; size = 4
__Pred$ = 20						; size = 1
??$_Med3@PAUPowerupListInfo@@VEnablePowerupListSort@@@std@@YAXPAUPowerupListInfo@@00VEnablePowerupListSort@@@Z PROC ; std::_Med3<PowerupListInfo *,EnablePowerupListSort>, COMDAT

; 3683 : 	{	// sort median of three elements to middle

  00000	55		 push	 ebp
  00001	8b ec		 mov	 ebp, esp

; 3684 : 	if (_DEBUG_LT_PRED(_Pred, *_Mid, *_First))

  00003	8b 4d 08	 mov	 ecx, DWORD PTR __First$[ebp]
  00006	8b 45 0c	 mov	 eax, DWORD PTR __Mid$[ebp]
  00009	8b 50 08	 mov	 edx, DWORD PTR [eax+8]
  0000c	83 ec 0c	 sub	 esp, 12			; 0000000cH
  0000f	56		 push	 esi
  00010	8b 71 08	 mov	 esi, DWORD PTR [ecx+8]
  00013	57		 push	 edi
  00014	3b d6		 cmp	 edx, esi
  00016	7f 08		 jg	 SHORT $LN51@Med3
  00018	75 1d		 jne	 SHORT $LN13@Med3
  0001a	8b 10		 mov	 edx, DWORD PTR [eax]
  0001c	3b 11		 cmp	 edx, DWORD PTR [ecx]
  0001e	7d 17		 jge	 SHORT $LN13@Med3
$LN51@Med3:

; 3685 : 		_STD iter_swap(_Mid, _First);

  00020	8b f0		 mov	 esi, eax
  00022	8d 7d f4	 lea	 edi, DWORD PTR __Tmp$515619[ebp]
  00025	a5		 movsd
  00026	a5		 movsd
  00027	a5		 movsd
  00028	8b f1		 mov	 esi, ecx
  0002a	8b f8		 mov	 edi, eax
  0002c	a5		 movsd
  0002d	a5		 movsd
  0002e	a5		 movsd
  0002f	8d 75 f4	 lea	 esi, DWORD PTR __Tmp$515619[ebp]
  00032	8b f9		 mov	 edi, ecx
  00034	a5		 movsd
  00035	a5		 movsd
  00036	a5		 movsd
$LN13@Med3:

; 3686 : 	if (_DEBUG_LT_PRED(_Pred, *_Last, *_Mid))

  00037	8b 55 10	 mov	 edx, DWORD PTR __Last$[ebp]
  0003a	8b 72 08	 mov	 esi, DWORD PTR [edx+8]
  0003d	8b 78 08	 mov	 edi, DWORD PTR [eax+8]
  00040	3b f7		 cmp	 esi, edi
  00042	7f 08		 jg	 SHORT $LN52@Med3
  00044	75 1d		 jne	 SHORT $LN28@Med3
  00046	8b 32		 mov	 esi, DWORD PTR [edx]
  00048	3b 30		 cmp	 esi, DWORD PTR [eax]
  0004a	7d 17		 jge	 SHORT $LN28@Med3
$LN52@Med3:

; 3687 : 		_STD iter_swap(_Last, _Mid);

  0004c	8b f2		 mov	 esi, edx
  0004e	8d 7d f4	 lea	 edi, DWORD PTR __Tmp$515657[ebp]
  00051	a5		 movsd
  00052	a5		 movsd
  00053	a5		 movsd
  00054	8b f0		 mov	 esi, eax
  00056	8b fa		 mov	 edi, edx
  00058	a5		 movsd
  00059	a5		 movsd
  0005a	a5		 movsd
  0005b	8d 75 f4	 lea	 esi, DWORD PTR __Tmp$515657[ebp]
  0005e	8b f8		 mov	 edi, eax
  00060	a5		 movsd
  00061	a5		 movsd
  00062	a5		 movsd
$LN28@Med3:

; 3688 : 	if (_DEBUG_LT_PRED(_Pred, *_Mid, *_First))

  00063	8b 50 08	 mov	 edx, DWORD PTR [eax+8]
  00066	8b 71 08	 mov	 esi, DWORD PTR [ecx+8]
  00069	3b d6		 cmp	 edx, esi
  0006b	7f 08		 jg	 SHORT $LN53@Med3
  0006d	75 1d		 jne	 SHORT $LN43@Med3
  0006f	8b 10		 mov	 edx, DWORD PTR [eax]
  00071	3b 11		 cmp	 edx, DWORD PTR [ecx]
  00073	7d 17		 jge	 SHORT $LN43@Med3
$LN53@Med3:

; 3689 : 		_STD iter_swap(_Mid, _First);

  00075	8b f0		 mov	 esi, eax
  00077	8d 7d f4	 lea	 edi, DWORD PTR __Tmp$515695[ebp]
  0007a	a5		 movsd
  0007b	a5		 movsd
  0007c	a5		 movsd
  0007d	8b f1		 mov	 esi, ecx
  0007f	8b f8		 mov	 edi, eax
  00081	a5		 movsd
  00082	a5		 movsd
  00083	a5		 movsd
  00084	8d 75 f4	 lea	 esi, DWORD PTR __Tmp$515695[ebp]
  00087	8b f9		 mov	 edi, ecx
  00089	a5		 movsd
  0008a	a5		 movsd
  0008b	a5		 movsd
$LN43@Med3:
  0008c	5f		 pop	 edi
  0008d	5e		 pop	 esi

; 3690 : 	}

  0008e	c9		 leave
  0008f	c3		 ret	 0
??$_Med3@PAUPowerupListInfo@@VEnablePowerupListSort@@@std@@YAXPAUPowerupListInfo@@00VEnablePowerupListSort@@@Z ENDP ; std::_Med3<PowerupListInfo *,EnablePowerupListSort>
_TEXT	ENDS
PUBLIC	??$_Pop_heap_0@PAUPowerupListInfo@@U1@VEnablePowerupListSort@@@std@@YAXPAUPowerupListInfo@@0VEnablePowerupListSort@@0@Z ; std::_Pop_heap_0<PowerupListInfo *,PowerupListInfo,EnablePowerupListSort>
; Function compile flags: /Ogsp
;	COMDAT ??$_Pop_heap_0@PAUPowerupListInfo@@U1@VEnablePowerupListSort@@@std@@YAXPAUPowerupListInfo@@0VEnablePowerupListSort@@0@Z
_TEXT	SEGMENT
__Val$ = -12						; size = 12
__First$ = 8						; size = 4
__Last$ = 12						; size = 4
__Pred$ = 16						; size = 1
___formal$ = 20						; size = 4
??$_Pop_heap_0@PAUPowerupListInfo@@U1@VEnablePowerupListSort@@@std@@YAXPAUPowerupListInfo@@0VEnablePowerupListSort@@0@Z PROC ; std::_Pop_heap_0<PowerupListInfo *,PowerupListInfo,EnablePowerupListSort>, COMDAT

; 2601 : 	{	// pop *_First to *(_Last - 1) and reheap, using _Pred

  00000	55		 push	 ebp
  00001	8b ec		 mov	 ebp, esp

; 2602 : 	_Ty _Val = _Move(*(_Last - 1));

  00003	8b 45 0c	 mov	 eax, DWORD PTR __Last$[ebp]
  00006	83 ec 0c	 sub	 esp, 12			; 0000000cH
  00009	56		 push	 esi
  0000a	57		 push	 edi
  0000b	83 c0 f4	 add	 eax, -12		; fffffff4H

; 2603 : 	_Pop_heap(_First, _Last - 1, _Last - 1,
; 2604 : 		_Move(_Val), _Pred, _Dist_type(_First));

  0000e	6a 00		 push	 0
  00010	ff 75 10	 push	 DWORD PTR __Pred$[ebp]
  00013	8b f0		 mov	 esi, eax
  00015	8d 7d f4	 lea	 edi, DWORD PTR __Val$[ebp]
  00018	a5		 movsd
  00019	8d 4d f4	 lea	 ecx, DWORD PTR __Val$[ebp]
  0001c	51		 push	 ecx
  0001d	50		 push	 eax
  0001e	a5		 movsd
  0001f	50		 push	 eax
  00020	ff 75 08	 push	 DWORD PTR __First$[ebp]
  00023	a5		 movsd
  00024	e8 00 00 00 00	 call	 ??$_Pop_heap@PAUPowerupListInfo@@HU1@VEnablePowerupListSort@@@std@@YAXPAUPowerupListInfo@@00$$QAU1@VEnablePowerupListSort@@PAH@Z ; std::_Pop_heap<PowerupListInfo *,int,PowerupListInfo,EnablePowerupListSort>
  00029	83 c4 18	 add	 esp, 24			; 00000018H
  0002c	5f		 pop	 edi
  0002d	5e		 pop	 esi

; 2605 : 	}

  0002e	c9		 leave
  0002f	c3		 ret	 0
??$_Pop_heap_0@PAUPowerupListInfo@@U1@VEnablePowerupListSort@@@std@@YAXPAUPowerupListInfo@@0VEnablePowerupListSort@@0@Z ENDP ; std::_Pop_heap_0<PowerupListInfo *,PowerupListInfo,EnablePowerupListSort>
_TEXT	ENDS
PUBLIC	?_Tidy@?$basic_string@DU?$char_traits@D@std@@V?$allocator@D@2@@std@@QAEX_NI@Z ; std::basic_string<char,std::char_traits<char>,std::allocator<char> >::_Tidy
; Function compile flags: /Ogsp
; File c:\program files (x86)\microsoft visual studio 10.0\vc\include\xstring
;	COMDAT ?_Tidy@?$basic_string@DU?$char_traits@D@std@@V?$allocator@D@2@@std@@QAEX_NI@Z
_TEXT	SEGMENT
__Built$ = 8						; size = 1
__Newsize$ = 12						; size = 4
?_Tidy@?$basic_string@DU?$char_traits@D@std@@V?$allocator@D@2@@std@@QAEX_NI@Z PROC ; std::basic_string<char,std::char_traits<char>,std::allocator<char> >::_Tidy, COMDAT
; _this$ = ecx

; 1988 : 		{	// initialize buffer, deallocating any storage

  00000	55		 push	 ebp
  00001	8b ec		 mov	 ebp, esp

; 1989 : 		if (!_Built)

  00003	80 7d 08 00	 cmp	 BYTE PTR __Built$[ebp], 0
  00007	56		 push	 esi
  00008	57		 push	 edi
  00009	8b 7d 0c	 mov	 edi, DWORD PTR __Newsize$[ebp]
  0000c	8b f1		 mov	 esi, ecx
  0000e	74 20		 je	 SHORT $LN9@Tidy

; 1990 : 			;
; 1991 : 		else if (this->_BUF_SIZE <= this->_Myres)

  00010	83 7e 14 10	 cmp	 DWORD PTR [esi+20], 16	; 00000010H
  00014	72 1a		 jb	 SHORT $LN9@Tidy

; 1992 : 			{	// copy any leftovers to small buffer and deallocate
; 1993 : 			_Elem *_Ptr = this->_Bx._Ptr;

  00016	53		 push	 ebx
  00017	8b 1e		 mov	 ebx, DWORD PTR [esi]

; 1994 : 			if (0 < _Newsize)

  00019	85 ff		 test	 edi, edi
  0001b	74 0b		 je	 SHORT $LN7@Tidy

; 1995 : 				_Traits::copy(this->_Bx._Buf, _Ptr, _Newsize);

  0001d	57		 push	 edi
  0001e	53		 push	 ebx
  0001f	56		 push	 esi
  00020	e8 00 00 00 00	 call	 _memcpy
  00025	83 c4 0c	 add	 esp, 12			; 0000000cH
$LN7@Tidy:

; 1996 : 			this->_Alval.deallocate(_Ptr, this->_Myres + 1);

  00028	53		 push	 ebx
  00029	e8 00 00 00 00	 call	 ??3@YAXPAX@Z		; operator delete
  0002e	59		 pop	 ecx
  0002f	5b		 pop	 ebx
$LN9@Tidy:

; 1997 : 			}
; 1998 : 		this->_Myres = this->_BUF_SIZE - 1;
; 1999 : 		_Eos(_Newsize);

  00030	89 7e 10	 mov	 DWORD PTR [esi+16], edi
  00033	c7 46 14 0f 00
	00 00		 mov	 DWORD PTR [esi+20], 15	; 0000000fH
  0003a	c6 04 37 00	 mov	 BYTE PTR [edi+esi], 0
  0003e	5f		 pop	 edi
  0003f	5e		 pop	 esi

; 2000 : 		}

  00040	5d		 pop	 ebp
  00041	c2 08 00	 ret	 8
?_Tidy@?$basic_string@DU?$char_traits@D@std@@V?$allocator@D@2@@std@@QAEX_NI@Z ENDP ; std::basic_string<char,std::char_traits<char>,std::allocator<char> >::_Tidy
_TEXT	ENDS
PUBLIC	?erase@?$basic_string@DU?$char_traits@D@std@@V?$allocator@D@2@@std@@QAEAAV12@II@Z ; std::basic_string<char,std::char_traits<char>,std::allocator<char> >::erase
; Function compile flags: /Ogsp
;	COMDAT ?erase@?$basic_string@DU?$char_traits@D@std@@V?$allocator@D@2@@std@@QAEAAV12@II@Z
_TEXT	SEGMENT
__Off$ = 8						; size = 4
__Count$ = 12						; size = 4
?erase@?$basic_string@DU?$char_traits@D@std@@V?$allocator@D@2@@std@@QAEAAV12@II@Z PROC ; std::basic_string<char,std::char_traits<char>,std::allocator<char> >::erase, COMDAT
; _this$ = ecx

; 1109 : 		{	// erase elements [_Off, _Off + _Count)

  00000	55		 push	 ebp
  00001	8b ec		 mov	 ebp, esp
  00003	53		 push	 ebx
  00004	56		 push	 esi
  00005	8b f1		 mov	 esi, ecx

; 1110 : 		if (this->_Mysize < _Off)

  00007	8b 46 10	 mov	 eax, DWORD PTR [esi+16]
  0000a	8b 4d 08	 mov	 ecx, DWORD PTR __Off$[ebp]
  0000d	3b c1		 cmp	 eax, ecx
  0000f	73 0b		 jae	 SHORT $LN3@erase

; 1111 : 			_Xran();	// _Off off end

  00011	68 00 00 00 00	 push	 OFFSET ??_C@_0BI@CFPLBAOH@invalid?5string?5position?$AA@
  00016	ff 15 00 00 00
	00		 call	 DWORD PTR __imp_?_Xout_of_range@std@@YAXPBD@Z
$LN28@erase:
$LN3@erase:

; 1112 : 		if (this->_Mysize - _Off < _Count)

  0001c	8b 5d 0c	 mov	 ebx, DWORD PTR __Count$[ebp]
  0001f	2b c1		 sub	 eax, ecx
  00021	3b c3		 cmp	 eax, ebx

; 1113 : 			_Count = this->_Mysize - _Off;	// trim _Count

  00023	0f 42 d8	 cmovb	 ebx, eax

; 1114 : 		if (0 < _Count)

  00026	85 db		 test	 ebx, ebx
  00028	74 47		 je	 SHORT $LN25@erase

; 1115 : 			{	// move elements down
; 1116 : 			_Traits::move(_Myptr() + _Off, _Myptr() + _Off + _Count,
; 1117 : 				this->_Mysize - _Off - _Count);

  0002a	8b 56 14	 mov	 edx, DWORD PTR [esi+20]
  0002d	57		 push	 edi
  0002e	83 fa 10	 cmp	 edx, 16			; 00000010H
  00031	72 04		 jb	 SHORT $LN11@erase
  00033	8b 3e		 mov	 edi, DWORD PTR [esi]
  00035	eb 02		 jmp	 SHORT $LN12@erase
$LN11@erase:
  00037	8b fe		 mov	 edi, esi
$LN12@erase:
  00039	83 fa 10	 cmp	 edx, 16			; 00000010H
  0003c	72 04		 jb	 SHORT $LN15@erase
  0003e	8b 16		 mov	 edx, DWORD PTR [esi]
  00040	eb 02		 jmp	 SHORT $LN16@erase
$LN15@erase:
  00042	8b d6		 mov	 edx, esi
$LN16@erase:
  00044	2b c3		 sub	 eax, ebx
  00046	03 f9		 add	 edi, ecx
  00048	50		 push	 eax
  00049	03 fb		 add	 edi, ebx
  0004b	03 d1		 add	 edx, ecx
  0004d	57		 push	 edi
  0004e	52		 push	 edx
  0004f	ff 15 00 00 00
	00		 call	 DWORD PTR __imp__memmove

; 1118 : 			size_type _Newsize = this->_Mysize - _Count;

  00055	8b 46 10	 mov	 eax, DWORD PTR [esi+16]
  00058	83 c4 0c	 add	 esp, 12			; 0000000cH
  0005b	2b c3		 sub	 eax, ebx

; 1119 : 			_Eos(_Newsize);

  0005d	83 7e 14 10	 cmp	 DWORD PTR [esi+20], 16	; 00000010H
  00061	89 46 10	 mov	 DWORD PTR [esi+16], eax
  00064	5f		 pop	 edi
  00065	72 04		 jb	 SHORT $LN23@erase
  00067	8b 0e		 mov	 ecx, DWORD PTR [esi]
  00069	eb 02		 jmp	 SHORT $LN24@erase
$LN23@erase:
  0006b	8b ce		 mov	 ecx, esi
$LN24@erase:
  0006d	c6 04 01 00	 mov	 BYTE PTR [ecx+eax], 0
$LN25@erase:

; 1120 : 			}
; 1121 : 		return (*this);

  00071	8b c6		 mov	 eax, esi
  00073	5e		 pop	 esi
  00074	5b		 pop	 ebx

; 1122 : 		}

  00075	5d		 pop	 ebp
  00076	c2 08 00	 ret	 8
$LN27@erase:
?erase@?$basic_string@DU?$char_traits@D@std@@V?$allocator@D@2@@std@@QAEAAV12@II@Z ENDP ; std::basic_string<char,std::char_traits<char>,std::allocator<char> >::erase
_TEXT	ENDS
PUBLIC	?_Destroy@?$vector@HV?$allocator@H@std@@@std@@IAEXPAH0@Z ; std::vector<int,std::allocator<int> >::_Destroy
; Function compile flags: /Ogsp
; File c:\program files (x86)\microsoft visual studio 10.0\vc\include\vector
;	COMDAT ?_Destroy@?$vector@HV?$allocator@H@std@@@std@@IAEXPAH0@Z
_TEXT	SEGMENT
__First$ = 8						; size = 4
__Last$ = 12						; size = 4
?_Destroy@?$vector@HV?$allocator@H@std@@@std@@IAEXPAH0@Z PROC ; std::vector<int,std::allocator<int> >::_Destroy, COMDAT
; _this$ = ecx

; 1270 : 		_Destroy_range(_First, _Last, this->_Alval);
; 1271 : 		}

  00000	c2 08 00	 ret	 8
?_Destroy@?$vector@HV?$allocator@H@std@@@std@@IAEXPAH0@Z ENDP ; std::vector<int,std::allocator<int> >::_Destroy
_TEXT	ENDS
PUBLIC	??9?$_Vector_const_iterator@V?$_Vector_val@HV?$allocator@H@std@@@std@@@std@@QBE_NABV01@@Z ; std::_Vector_const_iterator<std::_Vector_val<int,std::allocator<int> > >::operator!=
; Function compile flags: /Ogsp
;	COMDAT ??9?$_Vector_const_iterator@V?$_Vector_val@HV?$allocator@H@std@@@std@@@std@@QBE_NABV01@@Z
_TEXT	SEGMENT
__Right$ = 8						; size = 4
??9?$_Vector_const_iterator@V?$_Vector_val@HV?$allocator@H@std@@@std@@@std@@QBE_NABV01@@Z PROC ; std::_Vector_const_iterator<std::_Vector_val<int,std::allocator<int> > >::operator!=, COMDAT
; _this$ = ecx

; 207  : 		{	// test for iterator inequality

  00000	55		 push	 ebp
  00001	8b ec		 mov	 ebp, esp

; 208  : 		return (!(*this == _Right));

  00003	8b 01		 mov	 eax, DWORD PTR [ecx]
  00005	8b 55 08	 mov	 edx, DWORD PTR __Right$[ebp]
  00008	33 c9		 xor	 ecx, ecx
  0000a	3b 02		 cmp	 eax, DWORD PTR [edx]
  0000c	0f 95 c0	 setne	 al

; 209  : 		}

  0000f	5d		 pop	 ebp
  00010	c2 04 00	 ret	 4
??9?$_Vector_const_iterator@V?$_Vector_val@HV?$allocator@H@std@@@std@@@std@@QBE_NABV01@@Z ENDP ; std::_Vector_const_iterator<std::_Vector_val<int,std::allocator<int> > >::operator!=
_TEXT	ENDS
PUBLIC	?_Copy@?$basic_string@DU?$char_traits@D@std@@V?$allocator@D@2@@std@@QAEXII@Z ; std::basic_string<char,std::char_traits<char>,std::allocator<char> >::_Copy
EXTRN	__EH_prolog3_catch:PROC
;	COMDAT xdata$x
; File c:\program files (x86)\microsoft visual studio 10.0\vc\include\iosfwd
xdata$x	SEGMENT
__catchsym$?_Copy@?$basic_string@DU?$char_traits@D@std@@V?$allocator@D@2@@std@@QAEXII@Z$5 DD 040H
	DD	00H
	DD	00H
	DD	FLAT:__catch$?_Copy@?$basic_string@DU?$char_traits@D@std@@V?$allocator@D@2@@std@@QAEXII@Z$0
__catchsym$?_Copy@?$basic_string@DU?$char_traits@D@std@@V?$allocator@D@2@@std@@QAEXII@Z$4 DD 040H
	DD	00H
	DD	00H
	DD	FLAT:__catch$?_Copy@?$basic_string@DU?$char_traits@D@std@@V?$allocator@D@2@@std@@QAEXII@Z$1
__unwindtable$?_Copy@?$basic_string@DU?$char_traits@D@std@@V?$allocator@D@2@@std@@QAEXII@Z DD 0ffffffffH
	DD	00H
	DD	0ffffffffH
	DD	00H
	DD	01H
	DD	00H
	DD	01H
	DD	00H
__ehfuncinfo$?_Copy@?$basic_string@DU?$char_traits@D@std@@V?$allocator@D@2@@std@@QAEXII@Z DD 019930522H
	DD	04H
	DD	FLAT:__unwindtable$?_Copy@?$basic_string@DU?$char_traits@D@std@@V?$allocator@D@2@@std@@QAEXII@Z
	DD	02H
	DD	FLAT:__tryblocktable$?_Copy@?$basic_string@DU?$char_traits@D@std@@V?$allocator@D@2@@std@@QAEXII@Z
	DD	2 DUP(00H)
	DD	00H
	DD	01H
__tryblocktable$?_Copy@?$basic_string@DU?$char_traits@D@std@@V?$allocator@D@2@@std@@QAEXII@Z DD 02H
	DD	02H
	DD	03H
	DD	01H
	DD	FLAT:__catchsym$?_Copy@?$basic_string@DU?$char_traits@D@std@@V?$allocator@D@2@@std@@QAEXII@Z$4
	DD	00H
	DD	00H
	DD	03H
	DD	01H
	DD	FLAT:__catchsym$?_Copy@?$basic_string@DU?$char_traits@D@std@@V?$allocator@D@2@@std@@QAEXII@Z$5
; Function compile flags: /Ogsp
; File c:\program files (x86)\microsoft visual studio 10.0\vc\include\xstring
xdata$x	ENDS
;	COMDAT ?_Copy@?$basic_string@DU?$char_traits@D@std@@V?$allocator@D@2@@std@@QAEXII@Z
_TEXT	SEGMENT
_this$ = -24						; size = 4
tv296 = -20						; size = 4
__Newres$ = -20						; size = 4
__$EHRec$ = -16						; size = 16
__Ptr$ = 8						; size = 4
__Newsize$ = 8						; size = 4
__Oldlen$ = 12						; size = 4
?_Copy@?$basic_string@DU?$char_traits@D@std@@V?$allocator@D@2@@std@@QAEXII@Z PROC ; std::basic_string<char,std::char_traits<char>,std::allocator<char> >::_Copy, COMDAT
; _this$ = ecx

; 1919 : 		{	// copy _Oldlen elements to newly allocated buffer

  00000	6a 0c		 push	 12			; 0000000cH
  00002	b8 00 00 00 00	 mov	 eax, __ehhandler$?_Copy@?$basic_string@DU?$char_traits@D@std@@V?$allocator@D@2@@std@@QAEXII@Z
  00007	e8 00 00 00 00	 call	 __EH_prolog3_catch
  0000c	8b f1		 mov	 esi, ecx
  0000e	89 75 e8	 mov	 DWORD PTR _this$[ebp], esi

; 1920 : 		size_type _Newres = _Newsize | this->_ALLOC_MASK;

  00011	8b 7d 08	 mov	 edi, DWORD PTR __Newsize$[ebp]
  00014	83 cf 0f	 or	 edi, 15			; 0000000fH

; 1921 : 		if (max_size() < _Newres)

  00017	83 ff fe	 cmp	 edi, -2			; fffffffeH
  0001a	76 05		 jbe	 SHORT $LN9@Copy

; 1922 : 			_Newres = _Newsize;	// undo roundup if too big

  0001c	8b 7d 08	 mov	 edi, DWORD PTR __Newsize$[ebp]
  0001f	eb 27		 jmp	 SHORT $LN5@Copy
$LN9@Copy:

; 1923 : 		else if (this->_Myres / 2 <= _Newres / 3)

  00021	33 d2		 xor	 edx, edx
  00023	6a 03		 push	 3
  00025	8b c7		 mov	 eax, edi
  00027	5b		 pop	 ebx
  00028	f7 f3		 div	 ebx
  0002a	8b 4e 14	 mov	 ecx, DWORD PTR [esi+20]
  0002d	89 4d ec	 mov	 DWORD PTR tv296[ebp], ecx
  00030	d1 6d ec	 shr	 DWORD PTR tv296[ebp], 1
  00033	8b 55 ec	 mov	 edx, DWORD PTR tv296[ebp]
  00036	3b d0		 cmp	 edx, eax
  00038	76 0e		 jbe	 SHORT $LN5@Copy

; 1924 : 			;
; 1925 : 		else if (this->_Myres <= max_size() - this->_Myres / 2)

  0003a	6a fe		 push	 -2			; fffffffeH
  0003c	5f		 pop	 edi
  0003d	8b c7		 mov	 eax, edi
  0003f	2b c2		 sub	 eax, edx
  00041	3b c8		 cmp	 ecx, eax
  00043	77 03		 ja	 SHORT $LN5@Copy

; 1926 : 			_Newres = this->_Myres
; 1927 : 				+ this->_Myres / 2;	// grow exponentially if possible

  00045	8d 3c 0a	 lea	 edi, DWORD PTR [edx+ecx]
$LN5@Copy:

; 1928 : 		else
; 1929 : 			_Newres = max_size();	// settle for max_size()
; 1930 : 
; 1931 : 		_Elem *_Ptr;
; 1932 : 		_TRY_BEGIN

  00048	83 65 fc 00	 and	 DWORD PTR __$EHRec$[ebp+12], 0

; 1933 : 			_Ptr = this->_Alval.allocate(_Newres + 1);

  0004c	8d 47 01	 lea	 eax, DWORD PTR [edi+1]
  0004f	6a 00		 push	 0
  00051	50		 push	 eax
  00052	e8 00 00 00 00	 call	 ??$_Allocate@D@std@@YAPADIPAD@Z ; std::_Allocate<char>
  00057	59		 pop	 ecx
  00058	59		 pop	 ecx
  00059	89 45 08	 mov	 DWORD PTR __Ptr$[ebp], eax
  0005c	eb 27		 jmp	 SHORT $LN19@Copy
__catch$?_Copy@?$basic_string@DU?$char_traits@D@std@@V?$allocator@D@2@@std@@QAEXII@Z$0:

; 1934 : 		_CATCH_ALL
; 1935 : 			_Newres = _Newsize;	// allocation failed, undo roundup and retry

  0005e	8b 45 08	 mov	 eax, DWORD PTR __Newsize$[ebp]
  00061	89 65 f0	 mov	 DWORD PTR __$EHRec$[ebp], esp
  00064	89 45 ec	 mov	 DWORD PTR __Newres$[ebp], eax

; 1936 : 			_TRY_BEGIN
; 1937 : 				_Ptr = this->_Alval.allocate(_Newres + 1);

  00067	40		 inc	 eax
  00068	6a 00		 push	 0
  0006a	50		 push	 eax
  0006b	c6 45 fc 02	 mov	 BYTE PTR __$EHRec$[ebp+12], 2
  0006f	e8 00 00 00 00	 call	 ??$_Allocate@D@std@@YAPADIPAD@Z ; std::_Allocate<char>
  00074	59		 pop	 ecx
  00075	89 45 08	 mov	 DWORD PTR __Ptr$[ebp], eax
  00078	59		 pop	 ecx

; 1941 : 			_CATCH_END
; 1942 : 		_CATCH_END

  00079	b8 00 00 00 00	 mov	 eax, $LN63@Copy
  0007e	c3		 ret	 0
$LN63@Copy:
  0007f	8b 75 e8	 mov	 esi, DWORD PTR _this$[ebp]
  00082	8b 7d ec	 mov	 edi, DWORD PTR __Newres$[ebp]
$LN19@Copy:

; 1943 : 
; 1944 : 		if (0 < _Oldlen)

  00085	8b 5d 0c	 mov	 ebx, DWORD PTR __Oldlen$[ebp]
  00088	85 db		 test	 ebx, ebx
  0008a	74 19		 je	 SHORT $LN52@Copy

; 1945 : 			_Traits::copy(_Ptr, _Myptr(), _Oldlen);	// copy existing elements

  0008c	83 7e 14 10	 cmp	 DWORD PTR [esi+20], 16	; 00000010H
  00090	72 04		 jb	 SHORT $LN50@Copy
  00092	8b 06		 mov	 eax, DWORD PTR [esi]
  00094	eb 02		 jmp	 SHORT $LN51@Copy
$LN50@Copy:
  00096	8b c6		 mov	 eax, esi
$LN51@Copy:
  00098	53		 push	 ebx
  00099	50		 push	 eax
  0009a	ff 75 08	 push	 DWORD PTR __Ptr$[ebp]
  0009d	e8 00 00 00 00	 call	 _memcpy
  000a2	83 c4 0c	 add	 esp, 12			; 0000000cH
$LN52@Copy:

; 1946 : 		_Tidy(true);

  000a5	6a 00		 push	 0
  000a7	6a 01		 push	 1
  000a9	8b ce		 mov	 ecx, esi
  000ab	e8 00 00 00 00	 call	 ?_Tidy@?$basic_string@DU?$char_traits@D@std@@V?$allocator@D@2@@std@@QAEX_NI@Z ; std::basic_string<char,std::char_traits<char>,std::allocator<char> >::_Tidy

; 1947 : 		this->_Bx._Ptr = _Ptr;

  000b0	8b 45 08	 mov	 eax, DWORD PTR __Ptr$[ebp]
  000b3	89 06		 mov	 DWORD PTR [esi], eax

; 1948 : 		this->_Myres = _Newres;
; 1949 : 		_Eos(_Oldlen);

  000b5	83 ff 10	 cmp	 edi, 16			; 00000010H
  000b8	89 7e 14	 mov	 DWORD PTR [esi+20], edi
  000bb	89 5e 10	 mov	 DWORD PTR [esi+16], ebx
  000be	0f 42 c6	 cmovb	 eax, esi
  000c1	c6 04 18 00	 mov	 BYTE PTR [eax+ebx], 0

; 1950 : 		}

  000c5	e8 00 00 00 00	 call	 __EH_epilog3
  000ca	c2 08 00	 ret	 8
__catch$?_Copy@?$basic_string@DU?$char_traits@D@std@@V?$allocator@D@2@@std@@QAEXII@Z$1:

; 1938 : 			_CATCH_ALL
; 1939 : 			_Tidy(true);	// failed again, discard storage and reraise

  000cd	8b 4d e8	 mov	 ecx, DWORD PTR _this$[ebp]
  000d0	33 f6		 xor	 esi, esi
  000d2	56		 push	 esi
  000d3	6a 01		 push	 1
  000d5	e8 00 00 00 00	 call	 ?_Tidy@?$basic_string@DU?$char_traits@D@std@@V?$allocator@D@2@@std@@QAEX_NI@Z ; std::basic_string<char,std::char_traits<char>,std::allocator<char> >::_Tidy

; 1940 : 			_RERAISE;

  000da	56		 push	 esi
  000db	56		 push	 esi
  000dc	e8 00 00 00 00	 call	 __CxxThrowException@8
$LN67@Copy:
$LN66@Copy:
  000e1	cc		 int	 3
_TEXT	ENDS
;	COMDAT text$x
text$x	SEGMENT
__ehhandler$?_Copy@?$basic_string@DU?$char_traits@D@std@@V?$allocator@D@2@@std@@QAEXII@Z:
  00000	8b 54 24 08	 mov	 edx, DWORD PTR [esp+8]
  00004	8d 42 0c	 lea	 eax, DWORD PTR [edx+12]
  00007	8b 4a e4	 mov	 ecx, DWORD PTR [edx-28]
  0000a	33 c8		 xor	 ecx, eax
  0000c	e8 00 00 00 00	 call	 @__security_check_cookie@4
  00011	b8 00 00 00 00	 mov	 eax, OFFSET __ehfuncinfo$?_Copy@?$basic_string@DU?$char_traits@D@std@@V?$allocator@D@2@@std@@QAEXII@Z
  00016	e9 00 00 00 00	 jmp	 ___CxxFrameHandler3
text$x	ENDS
?_Copy@?$basic_string@DU?$char_traits@D@std@@V?$allocator@D@2@@std@@QAEXII@Z ENDP ; std::basic_string<char,std::char_traits<char>,std::allocator<char> >::_Copy
PUBLIC	??$_Destroy_range@V?$allocator@UPowerupListInfo@@@std@@@std@@YAXPAUPowerupListInfo@@0AAV?$allocator@UPowerupListInfo@@@0@U_Nonscalar_ptr_iterator_tag@0@@Z ; std::_Destroy_range<std::allocator<PowerupListInfo> >
; Function compile flags: /Ogsp
; File c:\program files (x86)\microsoft visual studio 10.0\vc\include\xmemory
;	COMDAT ??$_Destroy_range@V?$allocator@UPowerupListInfo@@@std@@@std@@YAXPAUPowerupListInfo@@0AAV?$allocator@UPowerupListInfo@@@0@U_Nonscalar_ptr_iterator_tag@0@@Z
_TEXT	SEGMENT
__First$ = 8						; size = 4
__Last$ = 12						; size = 4
__Al$ = 16						; size = 4
___formal$ = 20						; size = 1
??$_Destroy_range@V?$allocator@UPowerupListInfo@@@std@@@std@@YAXPAUPowerupListInfo@@0AAV?$allocator@UPowerupListInfo@@@0@U_Nonscalar_ptr_iterator_tag@0@@Z PROC ; std::_Destroy_range<std::allocator<PowerupListInfo> >, COMDAT

; 96   : 	for (; _First != _Last; ++_First)
; 97   : 		_Dest_val(_Al, _First);
; 98   : 	}

  00000	c3		 ret	 0
??$_Destroy_range@V?$allocator@UPowerupListInfo@@@std@@@std@@YAXPAUPowerupListInfo@@0AAV?$allocator@UPowerupListInfo@@@0@U_Nonscalar_ptr_iterator_tag@0@@Z ENDP ; std::_Destroy_range<std::allocator<PowerupListInfo> >
_TEXT	ENDS
PUBLIC	??$make_heap@PAUPowerupListInfo@@VEnablePowerupListSort@@@std@@YAXPAUPowerupListInfo@@0VEnablePowerupListSort@@@Z ; std::make_heap<PowerupListInfo *,EnablePowerupListSort>
; Function compile flags: /Ogsp
; File c:\program files (x86)\microsoft visual studio 10.0\vc\include\algorithm
;	COMDAT ??$make_heap@PAUPowerupListInfo@@VEnablePowerupListSort@@@std@@YAXPAUPowerupListInfo@@0VEnablePowerupListSort@@@Z
_TEXT	SEGMENT
__First$ = 8						; size = 4
__Last$ = 12						; size = 4
__Pred$ = 16						; size = 1
??$make_heap@PAUPowerupListInfo@@VEnablePowerupListSort@@@std@@YAXPAUPowerupListInfo@@0VEnablePowerupListSort@@@Z PROC ; std::make_heap<PowerupListInfo *,EnablePowerupListSort>, COMDAT

; 2672 : 	{	// make [_First, _Last) into a heap, using _Pred

  00000	55		 push	 ebp
  00001	8b ec		 mov	 ebp, esp

; 2673 : 	_DEBUG_RANGE(_First, _Last);
; 2674 : 	_DEBUG_POINTER(_Pred);
; 2675 : 	if (1 < _Last - _First)

  00003	8b 45 0c	 mov	 eax, DWORD PTR __Last$[ebp]
  00006	2b 45 08	 sub	 eax, DWORD PTR __First$[ebp]
  00009	6a 0c		 push	 12			; 0000000cH
  0000b	99		 cdq
  0000c	59		 pop	 ecx
  0000d	f7 f9		 idiv	 ecx
  0000f	83 f8 01	 cmp	 eax, 1
  00012	7e 15		 jle	 SHORT $LN1@make_heap

; 2676 : 		_Make_heap(_Unchecked(_First), _Unchecked(_Last), _Pred,
; 2677 : 			_Dist_type(_First), _Val_type(_First));

  00014	6a 00		 push	 0
  00016	6a 00		 push	 0
  00018	ff 75 10	 push	 DWORD PTR __Pred$[ebp]
  0001b	ff 75 0c	 push	 DWORD PTR __Last$[ebp]
  0001e	ff 75 08	 push	 DWORD PTR __First$[ebp]
  00021	e8 00 00 00 00	 call	 ??$_Make_heap@PAUPowerupListInfo@@HU1@VEnablePowerupListSort@@@std@@YAXPAUPowerupListInfo@@0VEnablePowerupListSort@@PAH0@Z ; std::_Make_heap<PowerupListInfo *,int,PowerupListInfo,EnablePowerupListSort>
  00026	83 c4 14	 add	 esp, 20			; 00000014H
$LN1@make_heap:

; 2678 : 	}

  00029	5d		 pop	 ebp
  0002a	c3		 ret	 0
??$make_heap@PAUPowerupListInfo@@VEnablePowerupListSort@@@std@@YAXPAUPowerupListInfo@@0VEnablePowerupListSort@@@Z ENDP ; std::make_heap<PowerupListInfo *,EnablePowerupListSort>
_TEXT	ENDS
PUBLIC	??$_Insertion_sort@PAUPowerupListInfo@@VEnablePowerupListSort@@@std@@YAXPAUPowerupListInfo@@0VEnablePowerupListSort@@@Z ; std::_Insertion_sort<PowerupListInfo *,EnablePowerupListSort>
; Function compile flags: /Ogsp
;	COMDAT ??$_Insertion_sort@PAUPowerupListInfo@@VEnablePowerupListSort@@@std@@YAXPAUPowerupListInfo@@0VEnablePowerupListSort@@@Z
_TEXT	SEGMENT
__First$ = 8						; size = 4
__Last$ = 12						; size = 4
__Pred$ = 16						; size = 1
??$_Insertion_sort@PAUPowerupListInfo@@VEnablePowerupListSort@@@std@@YAXPAUPowerupListInfo@@0VEnablePowerupListSort@@@Z PROC ; std::_Insertion_sort<PowerupListInfo *,EnablePowerupListSort>, COMDAT

; 3676 : 	{	// insertion sort [_First, _Last), using _Pred

  00000	55		 push	 ebp
  00001	8b ec		 mov	 ebp, esp

; 3677 : 	_Insertion_sort1(_First, _Last, _Pred, _Val_type(_First));

  00003	6a 00		 push	 0
  00005	ff 75 10	 push	 DWORD PTR __Pred$[ebp]
  00008	ff 75 0c	 push	 DWORD PTR __Last$[ebp]
  0000b	ff 75 08	 push	 DWORD PTR __First$[ebp]
  0000e	e8 00 00 00 00	 call	 ??$_Insertion_sort1@PAUPowerupListInfo@@VEnablePowerupListSort@@U1@@std@@YAXPAUPowerupListInfo@@0VEnablePowerupListSort@@0@Z ; std::_Insertion_sort1<PowerupListInfo *,EnablePowerupListSort,PowerupListInfo>
  00013	83 c4 10	 add	 esp, 16			; 00000010H

; 3678 : 	}

  00016	5d		 pop	 ebp
  00017	c3		 ret	 0
??$_Insertion_sort@PAUPowerupListInfo@@VEnablePowerupListSort@@@std@@YAXPAUPowerupListInfo@@0VEnablePowerupListSort@@@Z ENDP ; std::_Insertion_sort<PowerupListInfo *,EnablePowerupListSort>
_TEXT	ENDS
PUBLIC	??$_Uninit_copy@V?$_Vector_const_iterator@V?$_Vector_val@HV?$allocator@H@std@@@std@@@std@@PAHV?$allocator@H@2@@std@@YAPAHV?$_Vector_const_iterator@V?$_Vector_val@HV?$allocator@H@std@@@std@@@0@0PAHAAV?$allocator@H@0@U_Nonscalar_ptr_iterator_tag@0@@Z ; std::_Uninit_copy<std::_Vector_const_iterator<std::_Vector_val<int,std::allocator<int> > >,int *,std::allocator<int> >
; Function compile flags: /Ogsp
; File c:\program files (x86)\microsoft visual studio 10.0\vc\include\memory
;	COMDAT ??$_Uninit_copy@V?$_Vector_const_iterator@V?$_Vector_val@HV?$allocator@H@std@@@std@@@std@@PAHV?$allocator@H@2@@std@@YAPAHV?$_Vector_const_iterator@V?$_Vector_val@HV?$allocator@H@std@@@std@@@0@0PAHAAV?$allocator@H@0@U_Nonscalar_ptr_iterator_tag@0@@Z
_TEXT	SEGMENT
__First$ = 8						; size = 4
__Last$ = 12						; size = 4
__Dest$ = 16						; size = 4
__Al$ = 20						; size = 4
___formal$ = 24						; size = 1
??$_Uninit_copy@V?$_Vector_const_iterator@V?$_Vector_val@HV?$allocator@H@std@@@std@@@std@@PAHV?$allocator@H@2@@std@@YAPAHV?$_Vector_const_iterator@V?$_Vector_val@HV?$allocator@H@std@@@std@@@0@0PAHAAV?$allocator@H@0@U_Nonscalar_ptr_iterator_tag@0@@Z PROC ; std::_Uninit_copy<std::_Vector_const_iterator<std::_Vector_val<int,std::allocator<int> > >,int *,std::allocator<int> >, COMDAT

; 369  : 	{	// copy [_First, _Last) to raw _Dest, using _Al, arbitrary type

  00000	55		 push	 ebp
  00001	8b ec		 mov	 ebp, esp

; 370  : 	_DEBUG_RANGE(_First, _Last);
; 371  : 	_DEBUG_POINTER(_Dest);
; 372  : 	_FwdIt _Next = _Dest;
; 373  : 
; 374  : 	_TRY_BEGIN
; 375  : 	for (; _First != _Last; ++_Dest, ++_First)

  00003	8b 45 08	 mov	 eax, DWORD PTR __First$[ebp]
  00006	eb 17		 jmp	 SHORT $LN48@Uninit_cop
$LL14@Uninit_cop:

; 376  : 		_Cons_val(_Al, _Dest, *_First);

  00008	83 7d 10 00	 cmp	 DWORD PTR __Dest$[ebp], 0
  0000c	74 07		 je	 SHORT $LN32@Uninit_cop
  0000e	8b 08		 mov	 ecx, DWORD PTR [eax]
  00010	8b 55 10	 mov	 edx, DWORD PTR __Dest$[ebp]
  00013	89 0a		 mov	 DWORD PTR [edx], ecx
$LN32@Uninit_cop:

; 370  : 	_DEBUG_RANGE(_First, _Last);
; 371  : 	_DEBUG_POINTER(_Dest);
; 372  : 	_FwdIt _Next = _Dest;
; 373  : 
; 374  : 	_TRY_BEGIN
; 375  : 	for (; _First != _Last; ++_Dest, ++_First)

  00015	83 45 10 04	 add	 DWORD PTR __Dest$[ebp], 4
  00019	83 c0 04	 add	 eax, 4
  0001c	89 45 08	 mov	 DWORD PTR __First$[ebp], eax
$LN48@Uninit_cop:
  0001f	3b 45 0c	 cmp	 eax, DWORD PTR __Last$[ebp]
  00022	75 e4		 jne	 SHORT $LL14@Uninit_cop

; 377  : 	_CATCH_ALL
; 378  : 	for (; _Next != _Dest; ++_Next)
; 379  : 		_Dest_val(_Al, _Next);
; 380  : 	_RERAISE;
; 381  : 	_CATCH_END
; 382  : 	return (_Dest);

  00024	8b 45 10	 mov	 eax, DWORD PTR __Dest$[ebp]

; 383  : 	}

  00027	5d		 pop	 ebp
  00028	c3		 ret	 0
??$_Uninit_copy@V?$_Vector_const_iterator@V?$_Vector_val@HV?$allocator@H@std@@@std@@@std@@PAHV?$allocator@H@2@@std@@YAPAHV?$_Vector_const_iterator@V?$_Vector_val@HV?$allocator@H@std@@@std@@@0@0PAHAAV?$allocator@H@0@U_Nonscalar_ptr_iterator_tag@0@@Z ENDP ; std::_Uninit_copy<std::_Vector_const_iterator<std::_Vector_val<int,std::allocator<int> > >,int *,std::allocator<int> >
_TEXT	ENDS
PUBLIC	??$_Dest_val@V?$allocator@UEXTRAITEMSLOT@@@std@@UEXTRAITEMSLOT@@@std@@YAXAAV?$allocator@UEXTRAITEMSLOT@@@0@PAUEXTRAITEMSLOT@@@Z ; std::_Dest_val<std::allocator<EXTRAITEMSLOT>,EXTRAITEMSLOT>
; Function compile flags: /Ogsp
; File c:\program files (x86)\microsoft visual studio 10.0\vc\include\xmemory
;	COMDAT ??$_Dest_val@V?$allocator@UEXTRAITEMSLOT@@@std@@UEXTRAITEMSLOT@@@std@@YAXAAV?$allocator@UEXTRAITEMSLOT@@@0@PAUEXTRAITEMSLOT@@@Z
_TEXT	SEGMENT
__Alval$ = 8						; size = 4
__Pdest$ = 12						; size = 4
??$_Dest_val@V?$allocator@UEXTRAITEMSLOT@@@std@@UEXTRAITEMSLOT@@@std@@YAXAAV?$allocator@UEXTRAITEMSLOT@@@0@PAUEXTRAITEMSLOT@@@Z PROC ; std::_Dest_val<std::allocator<EXTRAITEMSLOT>,EXTRAITEMSLOT>, COMDAT

; 286  : 	{	// destroy using allocator

  00000	55		 push	 ebp
  00001	8b ec		 mov	 ebp, esp

; 287  : 	_Alval.destroy(_Pdest);

  00003	8b 4d 0c	 mov	 ecx, DWORD PTR __Pdest$[ebp]

; 288  : 	}

  00006	5d		 pop	 ebp

; 287  : 	_Alval.destroy(_Pdest);

  00007	e9 00 00 00 00	 jmp	 ??1EXTRAITEMSLOT@@QAE@XZ
??$_Dest_val@V?$allocator@UEXTRAITEMSLOT@@@std@@UEXTRAITEMSLOT@@@std@@YAXAAV?$allocator@UEXTRAITEMSLOT@@@0@PAUEXTRAITEMSLOT@@@Z ENDP ; std::_Dest_val<std::allocator<EXTRAITEMSLOT>,EXTRAITEMSLOT>
_TEXT	ENDS
PUBLIC	??$_Uninit_move@PAUPowerupListInfo@@PAU1@V?$allocator@UPowerupListInfo@@@std@@U1@@std@@YAPAUPowerupListInfo@@PAU1@00AAV?$allocator@UPowerupListInfo@@@0@0U_Nonscalar_ptr_iterator_tag@0@@Z ; std::_Uninit_move<PowerupListInfo *,PowerupListInfo *,std::allocator<PowerupListInfo>,PowerupListInfo>
; Function compile flags: /Ogsp
; File c:\program files (x86)\microsoft visual studio 10.0\vc\include\memory
;	COMDAT ??$_Uninit_move@PAUPowerupListInfo@@PAU1@V?$allocator@UPowerupListInfo@@@std@@U1@@std@@YAPAUPowerupListInfo@@PAU1@00AAV?$allocator@UPowerupListInfo@@@0@0U_Nonscalar_ptr_iterator_tag@0@@Z
_TEXT	SEGMENT
__First$ = 8						; size = 4
__Last$ = 12						; size = 4
__Dest$ = 16						; size = 4
__Al$ = 20						; size = 4
___formal$ = 24						; size = 4
___formal$ = 28						; size = 1
??$_Uninit_move@PAUPowerupListInfo@@PAU1@V?$allocator@UPowerupListInfo@@@std@@U1@@std@@YAPAUPowerupListInfo@@PAU1@00AAV?$allocator@UPowerupListInfo@@@0@0U_Nonscalar_ptr_iterator_tag@0@@Z PROC ; std::_Uninit_move<PowerupListInfo *,PowerupListInfo *,std::allocator<PowerupListInfo>,PowerupListInfo>, COMDAT

; 424  : 	{	// move [_First, _Last) to raw _Dest, using _Al, arbitrary type

  00000	55		 push	 ebp
  00001	8b ec		 mov	 ebp, esp
  00003	56		 push	 esi

; 425  : 	_DEBUG_RANGE(_First, _Last);
; 426  : 	_DEBUG_POINTER(_Dest);
; 427  : 	_FwdIt _Next = _Dest;
; 428  : 
; 429  : 	_TRY_BEGIN
; 430  : 	for (; _First != _Last; ++_Dest, ++_First)

  00004	8b 75 08	 mov	 esi, DWORD PTR __First$[ebp]
  00007	eb 16		 jmp	 SHORT $LN24@Uninit_mov
$LL6@Uninit_mov:

; 431  : 		_Cons_val(_Al, _Dest, (_Valty &&)*_First);

  00009	56		 push	 esi
  0000a	ff 75 10	 push	 DWORD PTR __Dest$[ebp]
  0000d	ff 75 14	 push	 DWORD PTR __Al$[ebp]
  00010	e8 00 00 00 00	 call	 ??$_Cons_val@V?$allocator@UPowerupListInfo@@@std@@UPowerupListInfo@@U3@@std@@YAXAAV?$allocator@UPowerupListInfo@@@0@PAUPowerupListInfo@@$$QAU2@@Z ; std::_Cons_val<std::allocator<PowerupListInfo>,PowerupListInfo,PowerupListInfo>
  00015	83 45 10 0c	 add	 DWORD PTR __Dest$[ebp], 12 ; 0000000cH
  00019	83 c4 0c	 add	 esp, 12			; 0000000cH
  0001c	83 c6 0c	 add	 esi, 12			; 0000000cH
$LN24@Uninit_mov:

; 425  : 	_DEBUG_RANGE(_First, _Last);
; 426  : 	_DEBUG_POINTER(_Dest);
; 427  : 	_FwdIt _Next = _Dest;
; 428  : 
; 429  : 	_TRY_BEGIN
; 430  : 	for (; _First != _Last; ++_Dest, ++_First)

  0001f	3b 75 0c	 cmp	 esi, DWORD PTR __Last$[ebp]
  00022	75 e5		 jne	 SHORT $LL6@Uninit_mov

; 432  : 	_CATCH_ALL
; 433  : 	for (; _Next != _Dest; ++_Next)
; 434  : 		_Dest_val(_Al, _Next);
; 435  : 	_RERAISE;
; 436  : 	_CATCH_END
; 437  : 	return (_Dest);

  00024	8b 45 10	 mov	 eax, DWORD PTR __Dest$[ebp]
  00027	5e		 pop	 esi

; 438  : 	}

  00028	5d		 pop	 ebp
  00029	c3		 ret	 0
??$_Uninit_move@PAUPowerupListInfo@@PAU1@V?$allocator@UPowerupListInfo@@@std@@U1@@std@@YAPAUPowerupListInfo@@PAU1@00AAV?$allocator@UPowerupListInfo@@@0@0U_Nonscalar_ptr_iterator_tag@0@@Z ENDP ; std::_Uninit_move<PowerupListInfo *,PowerupListInfo *,std::allocator<PowerupListInfo>,PowerupListInfo>
_TEXT	ENDS
PUBLIC	??$_Median@PAUPowerupListInfo@@VEnablePowerupListSort@@@std@@YAXPAUPowerupListInfo@@00VEnablePowerupListSort@@@Z ; std::_Median<PowerupListInfo *,EnablePowerupListSort>
; Function compile flags: /Ogsp
; File c:\program files (x86)\microsoft visual studio 10.0\vc\include\algorithm
;	COMDAT ??$_Median@PAUPowerupListInfo@@VEnablePowerupListSort@@@std@@YAXPAUPowerupListInfo@@00VEnablePowerupListSort@@@Z
_TEXT	SEGMENT
tv200 = 8						; size = 4
__First$ = 8						; size = 4
__Mid$ = 12						; size = 4
tv203 = 16						; size = 4
__Last$ = 16						; size = 4
__Pred$ = 20						; size = 1
??$_Median@PAUPowerupListInfo@@VEnablePowerupListSort@@@std@@YAXPAUPowerupListInfo@@00VEnablePowerupListSort@@@Z PROC ; std::_Median<PowerupListInfo *,EnablePowerupListSort>, COMDAT

; 3695 : 	{	// sort median element to middle

  00000	55		 push	 ebp
  00001	8b ec		 mov	 ebp, esp

; 3696 : 	if (40 < _Last - _First)

  00003	8b 4d 08	 mov	 ecx, DWORD PTR __First$[ebp]
  00006	53		 push	 ebx
  00007	8b 5d 10	 mov	 ebx, DWORD PTR __Last$[ebp]
  0000a	56		 push	 esi
  0000b	8b c3		 mov	 eax, ebx
  0000d	2b c1		 sub	 eax, ecx
  0000f	6a 0c		 push	 12			; 0000000cH
  00011	99		 cdq
  00012	5e		 pop	 esi
  00013	f7 fe		 idiv	 esi
  00015	83 f8 28	 cmp	 eax, 40			; 00000028H
  00018	7e 68		 jle	 SHORT $LN2@Median

; 3697 : 		{	// median of nine
; 3698 : 		size_t _Step = (_Last - _First + 1) / 8;

  0001a	40		 inc	 eax
  0001b	99		 cdq
  0001c	83 e2 07	 and	 edx, 7
  0001f	03 c2		 add	 eax, edx
  00021	57		 push	 edi

; 3699 : 		_Med3(_First, _First + _Step, _First + 2 * _Step, _Pred);

  00022	ff 75 14	 push	 DWORD PTR __Pred$[ebp]
  00025	c1 f8 03	 sar	 eax, 3
  00028	8b f8		 mov	 edi, eax
  0002a	8b f0		 mov	 esi, eax
  0002c	6b ff 18	 imul	 edi, 24			; 00000018H
  0002f	6b f6 0c	 imul	 esi, 12			; 0000000cH
  00032	8d 14 0f	 lea	 edx, DWORD PTR [edi+ecx]
  00035	8d 04 0e	 lea	 eax, DWORD PTR [esi+ecx]
  00038	52		 push	 edx
  00039	50		 push	 eax
  0003a	51		 push	 ecx
  0003b	89 45 08	 mov	 DWORD PTR tv200[ebp], eax
  0003e	e8 00 00 00 00	 call	 ??$_Med3@PAUPowerupListInfo@@VEnablePowerupListSort@@@std@@YAXPAUPowerupListInfo@@00VEnablePowerupListSort@@@Z ; std::_Med3<PowerupListInfo *,EnablePowerupListSort>

; 3700 : 		_Med3(_Mid - _Step, _Mid, _Mid + _Step, _Pred);

  00043	8b 45 0c	 mov	 eax, DWORD PTR __Mid$[ebp]
  00046	ff 75 14	 push	 DWORD PTR __Pred$[ebp]
  00049	8d 0c 06	 lea	 ecx, DWORD PTR [esi+eax]
  0004c	51		 push	 ecx
  0004d	50		 push	 eax
  0004e	2b c6		 sub	 eax, esi
  00050	50		 push	 eax
  00051	e8 00 00 00 00	 call	 ??$_Med3@PAUPowerupListInfo@@VEnablePowerupListSort@@@std@@YAXPAUPowerupListInfo@@00VEnablePowerupListSort@@@Z ; std::_Med3<PowerupListInfo *,EnablePowerupListSort>

; 3701 : 		_Med3(_Last - 2 * _Step, _Last - _Step, _Last, _Pred);

  00056	ff 75 14	 push	 DWORD PTR __Pred$[ebp]
  00059	89 5d 10	 mov	 DWORD PTR tv203[ebp], ebx
  0005c	29 75 10	 sub	 DWORD PTR tv203[ebp], esi
  0005f	53		 push	 ebx
  00060	ff 75 10	 push	 DWORD PTR tv203[ebp]
  00063	2b df		 sub	 ebx, edi
  00065	53		 push	 ebx
  00066	e8 00 00 00 00	 call	 ??$_Med3@PAUPowerupListInfo@@VEnablePowerupListSort@@@std@@YAXPAUPowerupListInfo@@00VEnablePowerupListSort@@@Z ; std::_Med3<PowerupListInfo *,EnablePowerupListSort>

; 3702 : 		_Med3(_First + _Step, _Mid, _Last - _Step, _Pred);

  0006b	ff 75 14	 push	 DWORD PTR __Pred$[ebp]
  0006e	ff 75 10	 push	 DWORD PTR tv203[ebp]
  00071	ff 75 0c	 push	 DWORD PTR __Mid$[ebp]
  00074	ff 75 08	 push	 DWORD PTR tv200[ebp]
  00077	e8 00 00 00 00	 call	 ??$_Med3@PAUPowerupListInfo@@VEnablePowerupListSort@@@std@@YAXPAUPowerupListInfo@@00VEnablePowerupListSort@@@Z ; std::_Med3<PowerupListInfo *,EnablePowerupListSort>
  0007c	83 c4 40	 add	 esp, 64			; 00000040H
  0007f	5f		 pop	 edi

; 3703 : 		}
; 3704 : 	else

  00080	eb 10		 jmp	 SHORT $LN1@Median
$LN2@Median:

; 3705 : 		_Med3(_First, _Mid, _Last, _Pred);

  00082	ff 75 14	 push	 DWORD PTR __Pred$[ebp]
  00085	53		 push	 ebx
  00086	ff 75 0c	 push	 DWORD PTR __Mid$[ebp]
  00089	51		 push	 ecx
  0008a	e8 00 00 00 00	 call	 ??$_Med3@PAUPowerupListInfo@@VEnablePowerupListSort@@@std@@YAXPAUPowerupListInfo@@00VEnablePowerupListSort@@@Z ; std::_Med3<PowerupListInfo *,EnablePowerupListSort>
  0008f	83 c4 10	 add	 esp, 16			; 00000010H
$LN1@Median:
  00092	5e		 pop	 esi
  00093	5b		 pop	 ebx

; 3706 : 	}

  00094	5d		 pop	 ebp
  00095	c3		 ret	 0
??$_Median@PAUPowerupListInfo@@VEnablePowerupListSort@@@std@@YAXPAUPowerupListInfo@@00VEnablePowerupListSort@@@Z ENDP ; std::_Median<PowerupListInfo *,EnablePowerupListSort>
_TEXT	ENDS
PUBLIC	??$_Pop_heap@PAUPowerupListInfo@@VEnablePowerupListSort@@@std@@YAXPAUPowerupListInfo@@0VEnablePowerupListSort@@@Z ; std::_Pop_heap<PowerupListInfo *,EnablePowerupListSort>
; Function compile flags: /Ogsp
;	COMDAT ??$_Pop_heap@PAUPowerupListInfo@@VEnablePowerupListSort@@@std@@YAXPAUPowerupListInfo@@0VEnablePowerupListSort@@@Z
_TEXT	SEGMENT
__First$ = 8						; size = 4
__Last$ = 12						; size = 4
__Pred$ = 16						; size = 1
??$_Pop_heap@PAUPowerupListInfo@@VEnablePowerupListSort@@@std@@YAXPAUPowerupListInfo@@0VEnablePowerupListSort@@@Z PROC ; std::_Pop_heap<PowerupListInfo *,EnablePowerupListSort>, COMDAT

; 2610 : 	{	// pop *_First to *(_Last - 1) and reheap, using _Pred

  00000	55		 push	 ebp
  00001	8b ec		 mov	 ebp, esp

; 2611 : 	_Pop_heap_0(_Unchecked(_First), _Unchecked(_Last), _Pred,
; 2612 : 		_Val_type(_First));

  00003	6a 00		 push	 0
  00005	ff 75 10	 push	 DWORD PTR __Pred$[ebp]
  00008	ff 75 0c	 push	 DWORD PTR __Last$[ebp]
  0000b	ff 75 08	 push	 DWORD PTR __First$[ebp]
  0000e	e8 00 00 00 00	 call	 ??$_Pop_heap_0@PAUPowerupListInfo@@U1@VEnablePowerupListSort@@@std@@YAXPAUPowerupListInfo@@0VEnablePowerupListSort@@0@Z ; std::_Pop_heap_0<PowerupListInfo *,PowerupListInfo,EnablePowerupListSort>
  00013	83 c4 10	 add	 esp, 16			; 00000010H

; 2613 : 	}

  00016	5d		 pop	 ebp
  00017	c3		 ret	 0
??$_Pop_heap@PAUPowerupListInfo@@VEnablePowerupListSort@@@std@@YAXPAUPowerupListInfo@@0VEnablePowerupListSort@@@Z ENDP ; std::_Pop_heap<PowerupListInfo *,EnablePowerupListSort>
_TEXT	ENDS
PUBLIC	??1?$basic_string@DU?$char_traits@D@std@@V?$allocator@D@2@@std@@QAE@XZ ; std::basic_string<char,std::char_traits<char>,std::allocator<char> >::~basic_string<char,std::char_traits<char>,std::allocator<char> >
; Function compile flags: /Ogsp
; File c:\program files (x86)\microsoft visual studio 10.0\vc\include\xstring
;	COMDAT ??1?$basic_string@DU?$char_traits@D@std@@V?$allocator@D@2@@std@@QAE@XZ
_TEXT	SEGMENT
??1?$basic_string@DU?$char_traits@D@std@@V?$allocator@D@2@@std@@QAE@XZ PROC ; std::basic_string<char,std::char_traits<char>,std::allocator<char> >::~basic_string<char,std::char_traits<char>,std::allocator<char> >, COMDAT
; _this$ = ecx

; 754  : 		_Tidy(true);

  00000	6a 00		 push	 0
  00002	6a 01		 push	 1
  00004	e8 00 00 00 00	 call	 ?_Tidy@?$basic_string@DU?$char_traits@D@std@@V?$allocator@D@2@@std@@QAEX_NI@Z ; std::basic_string<char,std::char_traits<char>,std::allocator<char> >::_Tidy

; 755  : 		}

  00009	c3		 ret	 0
??1?$basic_string@DU?$char_traits@D@std@@V?$allocator@D@2@@std@@QAE@XZ ENDP ; std::basic_string<char,std::char_traits<char>,std::allocator<char> >::~basic_string<char,std::char_traits<char>,std::allocator<char> >
_TEXT	ENDS
PUBLIC	?_Tidy@?$vector@HV?$allocator@H@std@@@std@@IAEXXZ ; std::vector<int,std::allocator<int> >::_Tidy
EXTRN	__imp_?_Orphan_all@_Container_base0@std@@QAEXXZ:PROC
; Function compile flags: /Ogsp
; File c:\program files (x86)\microsoft visual studio 10.0\vc\include\vector
;	COMDAT ?_Tidy@?$vector@HV?$allocator@H@std@@@std@@IAEXXZ
_TEXT	SEGMENT
?_Tidy@?$vector@HV?$allocator@H@std@@@std@@IAEXXZ PROC	; std::vector<int,std::allocator<int> >::_Tidy, COMDAT
; _this$ = ecx

; 1301 : 		{	// free all storage

  00000	56		 push	 esi
  00001	8b f1		 mov	 esi, ecx

; 1302 : 		if (this->_Myfirst != 0)

  00003	83 3e 00	 cmp	 DWORD PTR [esi], 0
  00006	74 0e		 je	 SHORT $LN12@Tidy@2

; 1303 : 			{	// something to free, destroy and deallocate it
; 1304 : 			this->_Orphan_all();

  00008	ff 15 00 00 00
	00		 call	 DWORD PTR __imp_?_Orphan_all@_Container_base0@std@@QAEXXZ

; 1305 : 			_Destroy(this->_Myfirst, this->_Mylast);
; 1306 : 			this->_Alval.deallocate(this->_Myfirst,
; 1307 : 				this->_Myend - this->_Myfirst);

  0000e	ff 36		 push	 DWORD PTR [esi]
  00010	e8 00 00 00 00	 call	 ??3@YAXPAX@Z		; operator delete
  00015	59		 pop	 ecx
$LN12@Tidy@2:

; 1308 : 			}
; 1309 : 		this->_Myfirst = 0;

  00016	83 26 00	 and	 DWORD PTR [esi], 0

; 1310 : 		this->_Mylast = 0;

  00019	83 66 04 00	 and	 DWORD PTR [esi+4], 0

; 1311 : 		this->_Myend = 0;

  0001d	83 66 08 00	 and	 DWORD PTR [esi+8], 0
  00021	5e		 pop	 esi

; 1312 : 		}

  00022	c3		 ret	 0
?_Tidy@?$vector@HV?$allocator@H@std@@@std@@IAEXXZ ENDP	; std::vector<int,std::allocator<int> >::_Tidy
_TEXT	ENDS
PUBLIC	?_Grow@?$basic_string@DU?$char_traits@D@std@@V?$allocator@D@2@@std@@QAE_NI_N@Z ; std::basic_string<char,std::char_traits<char>,std::allocator<char> >::_Grow
; Function compile flags: /Ogsp
; File c:\program files (x86)\microsoft visual studio 10.0\vc\include\xstring
;	COMDAT ?_Grow@?$basic_string@DU?$char_traits@D@std@@V?$allocator@D@2@@std@@QAE_NI_N@Z
_TEXT	SEGMENT
__Newsize$ = 8						; size = 4
__Trim$ = 12						; size = 1
?_Grow@?$basic_string@DU?$char_traits@D@std@@V?$allocator@D@2@@std@@QAE_NI_N@Z PROC ; std::basic_string<char,std::char_traits<char>,std::allocator<char> >::_Grow, COMDAT
; _this$ = ecx

; 1959 : 		{	// ensure buffer is big enough, trim to size if _Trim is true

  00000	55		 push	 ebp
  00001	8b ec		 mov	 ebp, esp
  00003	56		 push	 esi

; 1960 : 		if (max_size() < _Newsize)

  00004	8b 75 08	 mov	 esi, DWORD PTR __Newsize$[ebp]
  00007	83 fe fe	 cmp	 esi, -2			; fffffffeH
  0000a	76 0b		 jbe	 SHORT $LN6@Grow

; 1961 : 			_Xlen();	// result too long

  0000c	68 00 00 00 00	 push	 OFFSET ??_C@_0BA@JFNIOLAK@string?5too?5long?$AA@
  00011	ff 15 00 00 00
	00		 call	 DWORD PTR __imp_?_Xlength_error@std@@YAXPBD@Z
$LN31@Grow:
$LN6@Grow:

; 1962 : 		if (this->_Myres < _Newsize)

  00017	8b 41 14	 mov	 eax, DWORD PTR [ecx+20]
  0001a	3b c6		 cmp	 eax, esi
  0001c	73 0b		 jae	 SHORT $LN5@Grow

; 1963 : 			_Copy(_Newsize, this->_Mysize);	// reallocate to grow

  0001e	ff 71 10	 push	 DWORD PTR [ecx+16]
  00021	56		 push	 esi
  00022	e8 00 00 00 00	 call	 ?_Copy@?$basic_string@DU?$char_traits@D@std@@V?$allocator@D@2@@std@@QAEXII@Z ; std::basic_string<char,std::char_traits<char>,std::allocator<char> >::_Copy
  00027	eb 2e		 jmp	 SHORT $LN28@Grow
$LN5@Grow:

; 1964 : 		else if (_Trim && _Newsize < this->_BUF_SIZE)

  00029	33 d2		 xor	 edx, edx
  0002b	38 55 0c	 cmp	 BYTE PTR __Trim$[ebp], dl
  0002e	74 17		 je	 SHORT $LN3@Grow
  00030	83 fe 10	 cmp	 esi, 16			; 00000010H
  00033	73 12		 jae	 SHORT $LN3@Grow

; 1965 : 			_Tidy(true,	// copy and deallocate if trimming to small string
; 1966 : 				_Newsize < this->_Mysize ? _Newsize : this->_Mysize);

  00035	8b 41 10	 mov	 eax, DWORD PTR [ecx+16]
  00038	3b f0		 cmp	 esi, eax
  0003a	0f 42 c6	 cmovb	 eax, esi
  0003d	50		 push	 eax
  0003e	6a 01		 push	 1
  00040	e8 00 00 00 00	 call	 ?_Tidy@?$basic_string@DU?$char_traits@D@std@@V?$allocator@D@2@@std@@QAEX_NI@Z ; std::basic_string<char,std::char_traits<char>,std::allocator<char> >::_Tidy
  00045	eb 10		 jmp	 SHORT $LN28@Grow
$LN3@Grow:

; 1967 : 		else if (_Newsize == 0)

  00047	3b f2		 cmp	 esi, edx
  00049	75 0c		 jne	 SHORT $LN28@Grow

; 1968 : 			_Eos(0);	// new size is zero, just null terminate

  0004b	89 51 10	 mov	 DWORD PTR [ecx+16], edx
  0004e	83 f8 10	 cmp	 eax, 16			; 00000010H
  00051	72 02		 jb	 SHORT $LN26@Grow
  00053	8b 09		 mov	 ecx, DWORD PTR [ecx]
$LN26@Grow:
  00055	88 11		 mov	 BYTE PTR [ecx], dl
$LN28@Grow:

; 1969 : 		return (0 < _Newsize);	// return true only if more work to do

  00057	33 c0		 xor	 eax, eax
  00059	3b c6		 cmp	 eax, esi
  0005b	1b c0		 sbb	 eax, eax
  0005d	f7 d8		 neg	 eax
  0005f	5e		 pop	 esi

; 1970 : 		}

  00060	5d		 pop	 ebp
  00061	c2 08 00	 ret	 8
$LN30@Grow:
?_Grow@?$basic_string@DU?$char_traits@D@std@@V?$allocator@D@2@@std@@QAE_NI_N@Z ENDP ; std::basic_string<char,std::char_traits<char>,std::allocator<char> >::_Grow
_TEXT	ENDS
PUBLIC	??_G?$basic_string@DU?$char_traits@D@std@@V?$allocator@D@2@@std@@QAEPAXI@Z ; std::basic_string<char,std::char_traits<char>,std::allocator<char> >::`scalar deleting destructor'
; Function compile flags: /Ogsp
;	COMDAT ??_G?$basic_string@DU?$char_traits@D@std@@V?$allocator@D@2@@std@@QAEPAXI@Z
_TEXT	SEGMENT
___flags$ = 8						; size = 4
??_G?$basic_string@DU?$char_traits@D@std@@V?$allocator@D@2@@std@@QAEPAXI@Z PROC ; std::basic_string<char,std::char_traits<char>,std::allocator<char> >::`scalar deleting destructor', COMDAT
; _this$ = ecx
  00000	55		 push	 ebp
  00001	8b ec		 mov	 ebp, esp
  00003	56		 push	 esi
  00004	6a 00		 push	 0
  00006	6a 01		 push	 1
  00008	8b f1		 mov	 esi, ecx
  0000a	e8 00 00 00 00	 call	 ?_Tidy@?$basic_string@DU?$char_traits@D@std@@V?$allocator@D@2@@std@@QAEX_NI@Z ; std::basic_string<char,std::char_traits<char>,std::allocator<char> >::_Tidy
  0000f	f6 45 08 01	 test	 BYTE PTR ___flags$[ebp], 1
  00013	74 07		 je	 SHORT $LN1@scalar@4
  00015	56		 push	 esi
  00016	e8 00 00 00 00	 call	 ??3@YAXPAX@Z		; operator delete
  0001b	59		 pop	 ecx
$LN1@scalar@4:
  0001c	8b c6		 mov	 eax, esi
  0001e	5e		 pop	 esi
  0001f	5d		 pop	 ebp
  00020	c2 04 00	 ret	 4
??_G?$basic_string@DU?$char_traits@D@std@@V?$allocator@D@2@@std@@QAEPAXI@Z ENDP ; std::basic_string<char,std::char_traits<char>,std::allocator<char> >::`scalar deleting destructor'
_TEXT	ENDS
PUBLIC	??$_Destroy_range@V?$allocator@UPowerupListInfo@@@std@@@std@@YAXPAUPowerupListInfo@@0AAV?$allocator@UPowerupListInfo@@@0@@Z ; std::_Destroy_range<std::allocator<PowerupListInfo> >
; Function compile flags: /Ogsp
; File c:\program files (x86)\microsoft visual studio 10.0\vc\include\xmemory
;	COMDAT ??$_Destroy_range@V?$allocator@UPowerupListInfo@@@std@@@std@@YAXPAUPowerupListInfo@@0AAV?$allocator@UPowerupListInfo@@@0@@Z
_TEXT	SEGMENT
__First$ = 8						; size = 4
__Last$ = 12						; size = 4
__Al$ = 16						; size = 4
??$_Destroy_range@V?$allocator@UPowerupListInfo@@@std@@@std@@YAXPAUPowerupListInfo@@0AAV?$allocator@UPowerupListInfo@@@0@@Z PROC ; std::_Destroy_range<std::allocator<PowerupListInfo> >, COMDAT

; 88   : 	_Destroy_range(_First, _Last, _Al, _Ptr_cat(_First, _Last));
; 89   : 	}

  00000	c3		 ret	 0
??$_Destroy_range@V?$allocator@UPowerupListInfo@@@std@@@std@@YAXPAUPowerupListInfo@@0AAV?$allocator@UPowerupListInfo@@@0@@Z ENDP ; std::_Destroy_range<std::allocator<PowerupListInfo> >
_TEXT	ENDS
PUBLIC	??$_Uninitialized_copy@V?$_Vector_const_iterator@V?$_Vector_val@HV?$allocator@H@std@@@std@@@std@@PAHV?$allocator@H@2@@std@@YAPAHV?$_Vector_const_iterator@V?$_Vector_val@HV?$allocator@H@std@@@std@@@0@0PAHAAV?$allocator@H@0@@Z ; std::_Uninitialized_copy<std::_Vector_const_iterator<std::_Vector_val<int,std::allocator<int> > >,int *,std::allocator<int> >
; Function compile flags: /Ogsp
; File c:\program files (x86)\microsoft visual studio 10.0\vc\include\memory
;	COMDAT ??$_Uninitialized_copy@V?$_Vector_const_iterator@V?$_Vector_val@HV?$allocator@H@std@@@std@@@std@@PAHV?$allocator@H@2@@std@@YAPAHV?$_Vector_const_iterator@V?$_Vector_val@HV?$allocator@H@std@@@std@@@0@0PAHAAV?$allocator@H@0@@Z
_TEXT	SEGMENT
__Cat$516301 = -4					; size = 1
__First$ = 8						; size = 4
__Last$ = 12						; size = 4
__Dest$ = 16						; size = 4
__Al$ = 20						; size = 4
??$_Uninitialized_copy@V?$_Vector_const_iterator@V?$_Vector_val@HV?$allocator@H@std@@@std@@@std@@PAHV?$allocator@H@2@@std@@YAPAHV?$_Vector_const_iterator@V?$_Vector_val@HV?$allocator@H@std@@@std@@@0@0PAHAAV?$allocator@H@0@@Z PROC ; std::_Uninitialized_copy<std::_Vector_const_iterator<std::_Vector_val<int,std::allocator<int> > >,int *,std::allocator<int> >, COMDAT

; 412  : 	{	// copy [_First, _Last) to raw _Dest, using _Al

  00000	55		 push	 ebp
  00001	8b ec		 mov	 ebp, esp
  00003	51		 push	 ecx

; 413  : 	return (_Uninit_copy(_First, _Last, _Dest, _Al,
; 414  : 		_Ptr_cat(_First, _Dest)));

  00004	ff 75 fc	 push	 DWORD PTR __Cat$516301[ebp]
  00007	ff 75 14	 push	 DWORD PTR __Al$[ebp]
  0000a	ff 75 10	 push	 DWORD PTR __Dest$[ebp]
  0000d	ff 75 0c	 push	 DWORD PTR __Last$[ebp]
  00010	ff 75 08	 push	 DWORD PTR __First$[ebp]
  00013	e8 00 00 00 00	 call	 ??$_Uninit_copy@V?$_Vector_const_iterator@V?$_Vector_val@HV?$allocator@H@std@@@std@@@std@@PAHV?$allocator@H@2@@std@@YAPAHV?$_Vector_const_iterator@V?$_Vector_val@HV?$allocator@H@std@@@std@@@0@0PAHAAV?$allocator@H@0@U_Nonscalar_ptr_iterator_tag@0@@Z ; std::_Uninit_copy<std::_Vector_const_iterator<std::_Vector_val<int,std::allocator<int> > >,int *,std::allocator<int> >
  00018	83 c4 14	 add	 esp, 20			; 00000014H

; 415  : 	}

  0001b	c9		 leave
  0001c	c3		 ret	 0
??$_Uninitialized_copy@V?$_Vector_const_iterator@V?$_Vector_val@HV?$allocator@H@std@@@std@@@std@@PAHV?$allocator@H@2@@std@@YAPAHV?$_Vector_const_iterator@V?$_Vector_val@HV?$allocator@H@std@@@std@@@0@0PAHAAV?$allocator@H@0@@Z ENDP ; std::_Uninitialized_copy<std::_Vector_const_iterator<std::_Vector_val<int,std::allocator<int> > >,int *,std::allocator<int> >
_TEXT	ENDS
PUBLIC	??$_Destroy_range@V?$allocator@UEXTRAITEMSLOT@@@std@@@std@@YAXPAUEXTRAITEMSLOT@@0AAV?$allocator@UEXTRAITEMSLOT@@@0@U_Nonscalar_ptr_iterator_tag@0@@Z ; std::_Destroy_range<std::allocator<EXTRAITEMSLOT> >
; Function compile flags: /Ogsp
; File c:\program files (x86)\microsoft visual studio 10.0\vc\include\xmemory
;	COMDAT ??$_Destroy_range@V?$allocator@UEXTRAITEMSLOT@@@std@@@std@@YAXPAUEXTRAITEMSLOT@@0AAV?$allocator@UEXTRAITEMSLOT@@@0@U_Nonscalar_ptr_iterator_tag@0@@Z
_TEXT	SEGMENT
__First$ = 8						; size = 4
__Last$ = 12						; size = 4
__Al$ = 16						; size = 4
___formal$ = 20						; size = 1
??$_Destroy_range@V?$allocator@UEXTRAITEMSLOT@@@std@@@std@@YAXPAUEXTRAITEMSLOT@@0AAV?$allocator@UEXTRAITEMSLOT@@@0@U_Nonscalar_ptr_iterator_tag@0@@Z PROC ; std::_Destroy_range<std::allocator<EXTRAITEMSLOT> >, COMDAT

; 95   : 	{	// destroy [_First, _Last), arbitrary type

  00000	55		 push	 ebp
  00001	8b ec		 mov	 ebp, esp
  00003	56		 push	 esi

; 96   : 	for (; _First != _Last; ++_First)

  00004	8b 75 08	 mov	 esi, DWORD PTR __First$[ebp]
  00007	eb 0a		 jmp	 SHORT $LN17@Destroy_ra
$LL3@Destroy_ra:

; 97   : 		_Dest_val(_Al, _First);

  00009	8b ce		 mov	 ecx, esi
  0000b	e8 00 00 00 00	 call	 ??1EXTRAITEMSLOT@@QAE@XZ
  00010	83 c6 48	 add	 esi, 72			; 00000048H
$LN17@Destroy_ra:

; 96   : 	for (; _First != _Last; ++_First)

  00013	3b 75 0c	 cmp	 esi, DWORD PTR __Last$[ebp]
  00016	75 f1		 jne	 SHORT $LL3@Destroy_ra
  00018	5e		 pop	 esi

; 98   : 	}

  00019	5d		 pop	 ebp
  0001a	c3		 ret	 0
??$_Destroy_range@V?$allocator@UEXTRAITEMSLOT@@@std@@@std@@YAXPAUEXTRAITEMSLOT@@0AAV?$allocator@UEXTRAITEMSLOT@@@0@U_Nonscalar_ptr_iterator_tag@0@@Z ENDP ; std::_Destroy_range<std::allocator<EXTRAITEMSLOT> >
_TEXT	ENDS
PUBLIC	??$_Uninitialized_move@PAUPowerupListInfo@@PAU1@V?$allocator@UPowerupListInfo@@@std@@@std@@YAPAUPowerupListInfo@@PAU1@00AAV?$allocator@UPowerupListInfo@@@0@@Z ; std::_Uninitialized_move<PowerupListInfo *,PowerupListInfo *,std::allocator<PowerupListInfo> >
; Function compile flags: /Ogsp
; File c:\program files (x86)\microsoft visual studio 10.0\vc\include\memory
;	COMDAT ??$_Uninitialized_move@PAUPowerupListInfo@@PAU1@V?$allocator@UPowerupListInfo@@@std@@@std@@YAPAUPowerupListInfo@@PAU1@00AAV?$allocator@UPowerupListInfo@@@0@@Z
_TEXT	SEGMENT
__Cat$516341 = -4					; size = 1
__First$ = 8						; size = 4
__Last$ = 12						; size = 4
__Dest$ = 16						; size = 4
__Al$ = 20						; size = 4
??$_Uninitialized_move@PAUPowerupListInfo@@PAU1@V?$allocator@UPowerupListInfo@@@std@@@std@@YAPAUPowerupListInfo@@PAU1@00AAV?$allocator@UPowerupListInfo@@@0@@Z PROC ; std::_Uninitialized_move<PowerupListInfo *,PowerupListInfo *,std::allocator<PowerupListInfo> >, COMDAT

; 469  : 	{	// move [_First, _Last) to raw _Dest, using _Al

  00000	55		 push	 ebp
  00001	8b ec		 mov	 ebp, esp
  00003	51		 push	 ecx

; 470  : 	return (_Uninit_move(_First, _Last, _Dest, _Al,
; 471  : 		_Val_type(_First), _Ptr_cat(_First, _Dest)));

  00004	ff 75 fc	 push	 DWORD PTR __Cat$516341[ebp]
  00007	6a 00		 push	 0
  00009	ff 75 14	 push	 DWORD PTR __Al$[ebp]
  0000c	ff 75 10	 push	 DWORD PTR __Dest$[ebp]
  0000f	ff 75 0c	 push	 DWORD PTR __Last$[ebp]
  00012	ff 75 08	 push	 DWORD PTR __First$[ebp]
  00015	e8 00 00 00 00	 call	 ??$_Uninit_move@PAUPowerupListInfo@@PAU1@V?$allocator@UPowerupListInfo@@@std@@U1@@std@@YAPAUPowerupListInfo@@PAU1@00AAV?$allocator@UPowerupListInfo@@@0@0U_Nonscalar_ptr_iterator_tag@0@@Z ; std::_Uninit_move<PowerupListInfo *,PowerupListInfo *,std::allocator<PowerupListInfo>,PowerupListInfo>
  0001a	83 c4 18	 add	 esp, 24			; 00000018H

; 472  : 	}

  0001d	c9		 leave
  0001e	c3		 ret	 0
??$_Uninitialized_move@PAUPowerupListInfo@@PAU1@V?$allocator@UPowerupListInfo@@@std@@@std@@YAPAUPowerupListInfo@@PAU1@00AAV?$allocator@UPowerupListInfo@@@0@@Z ENDP ; std::_Uninitialized_move<PowerupListInfo *,PowerupListInfo *,std::allocator<PowerupListInfo> >
_TEXT	ENDS
PUBLIC	??$_Unguarded_partition@PAUPowerupListInfo@@VEnablePowerupListSort@@@std@@YA?AU?$pair@PAUPowerupListInfo@@PAU1@@0@PAUPowerupListInfo@@0VEnablePowerupListSort@@@Z ; std::_Unguarded_partition<PowerupListInfo *,EnablePowerupListSort>
; Function compile flags: /Ogsp
; File c:\program files (x86)\microsoft visual studio 10.0\vc\include\algorithm
;	COMDAT ??$_Unguarded_partition@PAUPowerupListInfo@@VEnablePowerupListSort@@@std@@YA?AU?$pair@PAUPowerupListInfo@@PAU1@@0@PAUPowerupListInfo@@0VEnablePowerupListSort@@@Z
_TEXT	SEGMENT
__Tmp$516664 = -92					; size = 12
__Tmp$516631 = -80					; size = 12
__Tmp$516599 = -68					; size = 12
__Tmp$516566 = -56					; size = 12
__Tmp$516533 = -44					; size = 12
__Tmp$516468 = -32					; size = 12
__Tmp$516420 = -20					; size = 12
__Plast$ = -8						; size = 4
__Glast$ = -4						; size = 4
___$ReturnUdt$ = 8					; size = 4
__First$ = 12						; size = 4
__Last$ = 16						; size = 4
__Pred$ = 20						; size = 1
??$_Unguarded_partition@PAUPowerupListInfo@@VEnablePowerupListSort@@@std@@YA?AU?$pair@PAUPowerupListInfo@@PAU1@@0@PAUPowerupListInfo@@0VEnablePowerupListSort@@@Z PROC ; std::_Unguarded_partition<PowerupListInfo *,EnablePowerupListSort>, COMDAT

; 3712 : 	{	// partition [_First, _Last), using _Pred

  00000	55		 push	 ebp
  00001	8b ec		 mov	 ebp, esp
  00003	83 ec 5c	 sub	 esp, 92			; 0000005cH

; 3713 : 	_RanIt _Mid = _First + (_Last - _First) / 2;

  00006	8b 4d 10	 mov	 ecx, DWORD PTR __Last$[ebp]
  00009	53		 push	 ebx
  0000a	56		 push	 esi
  0000b	57		 push	 edi
  0000c	8b 7d 0c	 mov	 edi, DWORD PTR __First$[ebp]
  0000f	8b c1		 mov	 eax, ecx
  00011	2b c7		 sub	 eax, edi
  00013	6a 0c		 push	 12			; 0000000cH
  00015	5e		 pop	 esi
  00016	99		 cdq
  00017	f7 fe		 idiv	 esi

; 3714 : 	_Median(_First, _Mid, _Last - 1, _Pred);

  00019	ff 75 14	 push	 DWORD PTR __Pred$[ebp]
  0001c	83 c1 f4	 add	 ecx, -12		; fffffff4H
  0001f	51		 push	 ecx
  00020	99		 cdq
  00021	2b c2		 sub	 eax, edx
  00023	8b f0		 mov	 esi, eax
  00025	d1 fe		 sar	 esi, 1
  00027	6b f6 0c	 imul	 esi, 12			; 0000000cH
  0002a	03 f7		 add	 esi, edi
  0002c	56		 push	 esi
  0002d	57		 push	 edi
  0002e	e8 00 00 00 00	 call	 ??$_Median@PAUPowerupListInfo@@VEnablePowerupListSort@@@std@@YAXPAUPowerupListInfo@@00VEnablePowerupListSort@@@Z ; std::_Median<PowerupListInfo *,EnablePowerupListSort>
  00033	83 c4 10	 add	 esp, 16			; 00000010H

; 3715 : 	_RanIt _Pfirst = _Mid;
; 3716 : 	_RanIt _Plast = _Pfirst + 1;

  00036	8d 5e 0c	 lea	 ebx, DWORD PTR [esi+12]
  00039	8b ce		 mov	 ecx, esi
  0003b	89 5d f8	 mov	 DWORD PTR __Plast$[ebp], ebx

; 3717 : 
; 3718 : 	while (_First < _Pfirst
; 3719 : 		&& !_DEBUG_LT_PRED(_Pred, *(_Pfirst - 1), *_Pfirst)
; 3720 : 		&& !_Pred(*_Pfirst, *(_Pfirst - 1)))

  0003e	3b fe		 cmp	 edi, esi
  00040	73 2d		 jae	 SHORT $LN178@Unguarded_

; 3713 : 	_RanIt _Mid = _First + (_Last - _First) / 2;

  00042	8d 46 fc	 lea	 eax, DWORD PTR [esi-4]
$LL27@Unguarded_:

; 3717 : 
; 3718 : 	while (_First < _Pfirst
; 3719 : 		&& !_DEBUG_LT_PRED(_Pred, *(_Pfirst - 1), *_Pfirst)
; 3720 : 		&& !_Pred(*_Pfirst, *(_Pfirst - 1)))

  00045	8b 10		 mov	 edx, DWORD PTR [eax]
  00047	8b 70 0c	 mov	 esi, DWORD PTR [eax+12]
  0004a	3b d6		 cmp	 edx, esi
  0004c	7f 21		 jg	 SHORT $LN178@Unguarded_
  0004e	75 07		 jne	 SHORT $LN30@Unguarded_
  00050	8b 78 f8	 mov	 edi, DWORD PTR [eax-8]
  00053	3b 39		 cmp	 edi, DWORD PTR [ecx]
  00055	7c 18		 jl	 SHORT $LN178@Unguarded_
$LN30@Unguarded_:
  00057	3b f2		 cmp	 esi, edx
  00059	7f 14		 jg	 SHORT $LN178@Unguarded_
  0005b	75 07		 jne	 SHORT $LN35@Unguarded_
  0005d	8b 11		 mov	 edx, DWORD PTR [ecx]
  0005f	3b 50 f8	 cmp	 edx, DWORD PTR [eax-8]
  00062	7c 0b		 jl	 SHORT $LN178@Unguarded_
$LN35@Unguarded_:

; 3721 : 		--_Pfirst;

  00064	83 e9 0c	 sub	 ecx, 12			; 0000000cH
  00067	83 e8 0c	 sub	 eax, 12			; 0000000cH
  0006a	39 4d 0c	 cmp	 DWORD PTR __First$[ebp], ecx
  0006d	72 d6		 jb	 SHORT $LL27@Unguarded_
$LN178@Unguarded_:

; 3722 : 	while (_Plast < _Last
; 3723 : 		&& !_DEBUG_LT_PRED(_Pred, *_Plast, *_Pfirst)
; 3724 : 		&& !_Pred(*_Pfirst, *_Plast))

  0006f	3b 5d 10	 cmp	 ebx, DWORD PTR __Last$[ebp]
  00072	73 29		 jae	 SHORT $LN172@Unguarded_
  00074	8b 51 08	 mov	 edx, DWORD PTR [ecx+8]
$LL25@Unguarded_:
  00077	8b 43 08	 mov	 eax, DWORD PTR [ebx+8]
  0007a	3b c2		 cmp	 eax, edx
  0007c	7f 1f		 jg	 SHORT $LN172@Unguarded_
  0007e	75 06		 jne	 SHORT $LN40@Unguarded_
  00080	8b 33		 mov	 esi, DWORD PTR [ebx]
  00082	3b 31		 cmp	 esi, DWORD PTR [ecx]
  00084	7c 17		 jl	 SHORT $LN172@Unguarded_
$LN40@Unguarded_:
  00086	3b d0		 cmp	 edx, eax
  00088	7f 13		 jg	 SHORT $LN172@Unguarded_
  0008a	75 06		 jne	 SHORT $LN45@Unguarded_
  0008c	8b 01		 mov	 eax, DWORD PTR [ecx]
  0008e	3b 03		 cmp	 eax, DWORD PTR [ebx]
  00090	7c 0b		 jl	 SHORT $LN172@Unguarded_
$LN45@Unguarded_:

; 3725 : 		++_Plast;

  00092	83 c3 0c	 add	 ebx, 12			; 0000000cH
  00095	89 5d f8	 mov	 DWORD PTR __Plast$[ebp], ebx
  00098	3b 5d 10	 cmp	 ebx, DWORD PTR __Last$[ebp]
  0009b	72 da		 jb	 SHORT $LL25@Unguarded_
$LN172@Unguarded_:

; 3726 : 
; 3727 : 	_RanIt _Gfirst = _Plast;

  0009d	8b d3		 mov	 edx, ebx

; 3728 : 	_RanIt _Glast = _Pfirst;

  0009f	89 4d fc	 mov	 DWORD PTR __Glast$[ebp], ecx

; 3729 : 
; 3730 : 	for (; ; )
; 3731 : 		{	// partition
; 3732 : 		for (; _Gfirst < _Last; ++_Gfirst)

  000a2	eb 40		 jmp	 SHORT $LN181@Unguarded_
$LL21@Unguarded_:

; 3733 : 			if (_DEBUG_LT_PRED(_Pred, *_Pfirst, *_Gfirst))

  000a4	8b 41 08	 mov	 eax, DWORD PTR [ecx+8]
  000a7	8b 72 08	 mov	 esi, DWORD PTR [edx+8]
  000aa	3b c6		 cmp	 eax, esi
  000ac	7f 33		 jg	 SHORT $LN20@Unguarded_
  000ae	75 06		 jne	 SHORT $LN50@Unguarded_
  000b0	8b 39		 mov	 edi, DWORD PTR [ecx]
  000b2	3b 3a		 cmp	 edi, DWORD PTR [edx]
  000b4	7c 2b		 jl	 SHORT $LN20@Unguarded_
$LN50@Unguarded_:

; 3734 : 				;
; 3735 : 			else if (_Pred(*_Gfirst, *_Pfirst))

  000b6	3b f0		 cmp	 esi, eax
  000b8	7f 2f		 jg	 SHORT $LN174@Unguarded_
  000ba	75 06		 jne	 SHORT $LN55@Unguarded_
  000bc	8b 02		 mov	 eax, DWORD PTR [edx]
  000be	3b 01		 cmp	 eax, DWORD PTR [ecx]
  000c0	7c 27		 jl	 SHORT $LN174@Unguarded_
$LN55@Unguarded_:

; 3736 : 				break;
; 3737 : 			else
; 3738 : 				_STD iter_swap(_Plast++, _Gfirst);

  000c2	8b c3		 mov	 eax, ebx
  000c4	8b f0		 mov	 esi, eax
  000c6	8d 7d ec	 lea	 edi, DWORD PTR __Tmp$516420[ebp]
  000c9	a5		 movsd
  000ca	a5		 movsd
  000cb	a5		 movsd
  000cc	8b f2		 mov	 esi, edx
  000ce	8b f8		 mov	 edi, eax
  000d0	a5		 movsd
  000d1	a5		 movsd
  000d2	83 c3 0c	 add	 ebx, 12			; 0000000cH
  000d5	a5		 movsd
  000d6	89 5d f8	 mov	 DWORD PTR __Plast$[ebp], ebx
  000d9	8d 75 ec	 lea	 esi, DWORD PTR __Tmp$516420[ebp]
  000dc	8b fa		 mov	 edi, edx
$LN182@Unguarded_:
  000de	a5		 movsd
  000df	a5		 movsd
  000e0	a5		 movsd
$LN20@Unguarded_:

; 3729 : 
; 3730 : 	for (; ; )
; 3731 : 		{	// partition
; 3732 : 		for (; _Gfirst < _Last; ++_Gfirst)

  000e1	83 c2 0c	 add	 edx, 12			; 0000000cH
$LN181@Unguarded_:
  000e4	3b 55 10	 cmp	 edx, DWORD PTR __Last$[ebp]
  000e7	72 bb		 jb	 SHORT $LL21@Unguarded_
$LN174@Unguarded_:

; 3739 : 		for (; _First < _Glast; --_Glast)

  000e9	8b 45 fc	 mov	 eax, DWORD PTR __Glast$[ebp]
  000ec	39 45 0c	 cmp	 DWORD PTR __First$[ebp], eax
  000ef	73 4d		 jae	 SHORT $LN180@Unguarded_
  000f1	83 c0 f4	 add	 eax, -12		; fffffff4H
$LL14@Unguarded_:

; 3740 : 			if (_DEBUG_LT_PRED(_Pred, *(_Glast - 1), *_Pfirst))

  000f4	8b 70 08	 mov	 esi, DWORD PTR [eax+8]
  000f7	8b 79 08	 mov	 edi, DWORD PTR [ecx+8]
  000fa	3b f7		 cmp	 esi, edi
  000fc	7f 31		 jg	 SHORT $LN13@Unguarded_
  000fe	75 09		 jne	 SHORT $LN70@Unguarded_
  00100	8b 18		 mov	 ebx, DWORD PTR [eax]
  00102	3b 19		 cmp	 ebx, DWORD PTR [ecx]
  00104	8b 5d f8	 mov	 ebx, DWORD PTR __Plast$[ebp]
  00107	7c 26		 jl	 SHORT $LN13@Unguarded_
$LN70@Unguarded_:

; 3741 : 				;
; 3742 : 			else if (_Pred(*_Pfirst, *(_Glast - 1)))

  00109	3b fe		 cmp	 edi, esi
  0010b	7f 31		 jg	 SHORT $LN180@Unguarded_
  0010d	75 06		 jne	 SHORT $LN75@Unguarded_
  0010f	8b 31		 mov	 esi, DWORD PTR [ecx]
  00111	3b 30		 cmp	 esi, DWORD PTR [eax]
  00113	7c 29		 jl	 SHORT $LN180@Unguarded_
$LN75@Unguarded_:

; 3743 : 				break;
; 3744 : 			else
; 3745 : 				_STD iter_swap(--_Pfirst, _Glast - 1);

  00115	83 e9 0c	 sub	 ecx, 12			; 0000000cH
  00118	8b f1		 mov	 esi, ecx
  0011a	8d 7d e0	 lea	 edi, DWORD PTR __Tmp$516468[ebp]
  0011d	a5		 movsd
  0011e	a5		 movsd
  0011f	a5		 movsd
  00120	8b f0		 mov	 esi, eax
  00122	8b f9		 mov	 edi, ecx
  00124	a5		 movsd
  00125	a5		 movsd
  00126	a5		 movsd
  00127	8d 75 e0	 lea	 esi, DWORD PTR __Tmp$516468[ebp]
  0012a	8b f8		 mov	 edi, eax
  0012c	a5		 movsd
  0012d	a5		 movsd
  0012e	a5		 movsd
$LN13@Unguarded_:

; 3739 : 		for (; _First < _Glast; --_Glast)

  0012f	83 6d fc 0c	 sub	 DWORD PTR __Glast$[ebp], 12 ; 0000000cH
  00133	8b 75 0c	 mov	 esi, DWORD PTR __First$[ebp]
  00136	83 e8 0c	 sub	 eax, 12			; 0000000cH
  00139	3b 75 fc	 cmp	 esi, DWORD PTR __Glast$[ebp]
  0013c	72 b6		 jb	 SHORT $LL14@Unguarded_
$LN180@Unguarded_:

; 3746 : 		if (_Glast == _First && _Gfirst == _Last)

  0013e	8b 75 fc	 mov	 esi, DWORD PTR __Glast$[ebp]
  00141	3b 75 0c	 cmp	 esi, DWORD PTR __First$[ebp]
  00144	75 4d		 jne	 SHORT $LN6@Unguarded_
  00146	3b 55 10	 cmp	 edx, DWORD PTR __Last$[ebp]
  00149	0f 84 a9 00 00
	00		 je	 $LN160@Unguarded_

; 3748 : 
; 3749 : 		if (_Glast == _First)
; 3750 : 			{	// no room at bottom, rotate pivot upward
; 3751 : 			if (_Plast != _Gfirst)

  0014f	3b da		 cmp	 ebx, edx
  00151	74 17		 je	 SHORT $LN104@Unguarded_

; 3752 : 				_STD iter_swap(_Pfirst, _Plast);

  00153	8b f1		 mov	 esi, ecx
  00155	8d 7d d4	 lea	 edi, DWORD PTR __Tmp$516533[ebp]
  00158	a5		 movsd
  00159	a5		 movsd
  0015a	a5		 movsd
  0015b	8b f3		 mov	 esi, ebx
  0015d	8b f9		 mov	 edi, ecx
  0015f	a5		 movsd
  00160	a5		 movsd
  00161	a5		 movsd
  00162	8d 75 d4	 lea	 esi, DWORD PTR __Tmp$516533[ebp]
  00165	8b fb		 mov	 edi, ebx
  00167	a5		 movsd
  00168	a5		 movsd
  00169	a5		 movsd
$LN104@Unguarded_:

; 3753 : 			++_Plast;

  0016a	83 c3 0c	 add	 ebx, 12			; 0000000cH
  0016d	89 5d f8	 mov	 DWORD PTR __Plast$[ebp], ebx

; 3754 : 			_STD iter_swap(_Pfirst++, _Gfirst++);

  00170	8b d9		 mov	 ebx, ecx
  00172	8b f3		 mov	 esi, ebx
  00174	8d 7d c8	 lea	 edi, DWORD PTR __Tmp$516566[ebp]
  00177	a5		 movsd
  00178	a5		 movsd
  00179	a5		 movsd
  0017a	8b c2		 mov	 eax, edx
  0017c	8b fb		 mov	 edi, ebx
  0017e	8b 5d f8	 mov	 ebx, DWORD PTR __Plast$[ebp]
  00181	8b f0		 mov	 esi, eax
  00183	a5		 movsd
  00184	a5		 movsd
  00185	a5		 movsd
  00186	83 c1 0c	 add	 ecx, 12			; 0000000cH
  00189	8d 75 c8	 lea	 esi, DWORD PTR __Tmp$516566[ebp]
  0018c	8b f8		 mov	 edi, eax
  0018e	e9 4b ff ff ff	 jmp	 $LN182@Unguarded_
$LN6@Unguarded_:

; 3755 : 			}
; 3756 : 		else if (_Gfirst == _Last)
; 3757 : 			{	// no room at top, rotate pivot downward
; 3758 : 			if (--_Glast != --_Pfirst)

  00193	83 ee 0c	 sub	 esi, 12			; 0000000cH
  00196	89 75 fc	 mov	 DWORD PTR __Glast$[ebp], esi
  00199	3b 55 10	 cmp	 edx, DWORD PTR __Last$[ebp]
  0019c	75 3f		 jne	 SHORT $LN3@Unguarded_
  0019e	83 e9 0c	 sub	 ecx, 12			; 0000000cH
  001a1	3b f1		 cmp	 esi, ecx
  001a3	74 16		 je	 SHORT $LN124@Unguarded_

; 3759 : 				_STD iter_swap(_Glast, _Pfirst);

  001a5	8d 7d bc	 lea	 edi, DWORD PTR __Tmp$516599[ebp]
  001a8	a5		 movsd
  001a9	a5		 movsd
  001aa	a5		 movsd
  001ab	8b 7d fc	 mov	 edi, DWORD PTR __Glast$[ebp]
  001ae	8b f1		 mov	 esi, ecx
  001b0	a5		 movsd
  001b1	a5		 movsd
  001b2	a5		 movsd
  001b3	8d 75 bc	 lea	 esi, DWORD PTR __Tmp$516599[ebp]
  001b6	8b f9		 mov	 edi, ecx
  001b8	a5		 movsd
  001b9	a5		 movsd
  001ba	a5		 movsd
$LN124@Unguarded_:

; 3760 : 			_STD iter_swap(_Pfirst, --_Plast);

  001bb	8b f1		 mov	 esi, ecx
  001bd	8d 7d b0	 lea	 edi, DWORD PTR __Tmp$516631[ebp]
  001c0	a5		 movsd
  001c1	a5		 movsd
  001c2	a5		 movsd
  001c3	83 eb 0c	 sub	 ebx, 12			; 0000000cH
  001c6	8b f3		 mov	 esi, ebx
  001c8	8b f9		 mov	 edi, ecx
  001ca	a5		 movsd
  001cb	a5		 movsd
  001cc	a5		 movsd
  001cd	8d 75 b0	 lea	 esi, DWORD PTR __Tmp$516631[ebp]
  001d0	8b fb		 mov	 edi, ebx
  001d2	a5		 movsd
  001d3	a5		 movsd
  001d4	89 5d f8	 mov	 DWORD PTR __Plast$[ebp], ebx
  001d7	a5		 movsd

; 3761 : 			}
; 3762 : 		else

  001d8	e9 07 ff ff ff	 jmp	 $LN181@Unguarded_
$LN3@Unguarded_:

; 3763 : 			_STD iter_swap(_Gfirst++, --_Glast);

  001dd	8b f2		 mov	 esi, edx
  001df	8d 7d a4	 lea	 edi, DWORD PTR __Tmp$516664[ebp]
  001e2	a5		 movsd
  001e3	a5		 movsd
  001e4	a5		 movsd
  001e5	8b 75 fc	 mov	 esi, DWORD PTR __Glast$[ebp]
  001e8	8b fa		 mov	 edi, edx
  001ea	a5		 movsd
  001eb	a5		 movsd
  001ec	a5		 movsd
  001ed	8b 7d fc	 mov	 edi, DWORD PTR __Glast$[ebp]
  001f0	8d 75 a4	 lea	 esi, DWORD PTR __Tmp$516664[ebp]

; 3764 : 		}

  001f3	e9 e6 fe ff ff	 jmp	 $LN182@Unguarded_
$LN160@Unguarded_:

; 3747 : 			return (_STD pair<_RanIt, _RanIt>(_Pfirst, _Plast));

  001f8	8b 45 08	 mov	 eax, DWORD PTR ___$ReturnUdt$[ebp]
  001fb	5f		 pop	 edi
  001fc	5e		 pop	 esi
  001fd	89 58 04	 mov	 DWORD PTR [eax+4], ebx
  00200	89 08		 mov	 DWORD PTR [eax], ecx
  00202	5b		 pop	 ebx

; 3765 : 	}

  00203	c9		 leave
  00204	c3		 ret	 0
??$_Unguarded_partition@PAUPowerupListInfo@@VEnablePowerupListSort@@@std@@YA?AU?$pair@PAUPowerupListInfo@@PAU1@@0@PAUPowerupListInfo@@0VEnablePowerupListSort@@@Z ENDP ; std::_Unguarded_partition<PowerupListInfo *,EnablePowerupListSort>
_TEXT	ENDS
PUBLIC	??$_Sort_heap@PAUPowerupListInfo@@VEnablePowerupListSort@@@std@@YAXPAUPowerupListInfo@@0VEnablePowerupListSort@@@Z ; std::_Sort_heap<PowerupListInfo *,EnablePowerupListSort>
; Function compile flags: /Ogsp
;	COMDAT ??$_Sort_heap@PAUPowerupListInfo@@VEnablePowerupListSort@@@std@@YAXPAUPowerupListInfo@@0VEnablePowerupListSort@@@Z
_TEXT	SEGMENT
__First$ = 8						; size = 4
__Last$ = 12						; size = 4
__Pred$ = 16						; size = 1
??$_Sort_heap@PAUPowerupListInfo@@VEnablePowerupListSort@@@std@@YAXPAUPowerupListInfo@@0VEnablePowerupListSort@@@Z PROC ; std::_Sort_heap<PowerupListInfo *,EnablePowerupListSort>, COMDAT

; 2700 : 	{	// order heap by repeatedly popping, using _Pred

  00000	55		 push	 ebp
  00001	8b ec		 mov	 ebp, esp

; 2701 : 	for (; 1 < _Last - _First; --_Last)

  00003	8b 4d 0c	 mov	 ecx, DWORD PTR __Last$[ebp]
  00006	2b 4d 08	 sub	 ecx, DWORD PTR __First$[ebp]
  00009	57		 push	 edi
  0000a	8b c1		 mov	 eax, ecx
  0000c	6a 0c		 push	 12			; 0000000cH
  0000e	99		 cdq
  0000f	5f		 pop	 edi
  00010	f7 ff		 idiv	 edi
  00012	83 f8 01	 cmp	 eax, 1
  00015	7e 29		 jle	 SHORT $LN1@Sort_heap
  00017	8b f9		 mov	 edi, ecx
$LL3@Sort_heap:

; 2702 : 		_Pop_heap(_First, _Last, _Pred);

  00019	6a 00		 push	 0
  0001b	ff 75 10	 push	 DWORD PTR __Pred$[ebp]
  0001e	ff 75 0c	 push	 DWORD PTR __Last$[ebp]
  00021	ff 75 08	 push	 DWORD PTR __First$[ebp]
  00024	e8 00 00 00 00	 call	 ??$_Pop_heap_0@PAUPowerupListInfo@@U1@VEnablePowerupListSort@@@std@@YAXPAUPowerupListInfo@@0VEnablePowerupListSort@@0@Z ; std::_Pop_heap_0<PowerupListInfo *,PowerupListInfo,EnablePowerupListSort>
  00029	83 c4 10	 add	 esp, 16			; 00000010H
  0002c	83 ef 0c	 sub	 edi, 12			; 0000000cH
  0002f	8b c7		 mov	 eax, edi
  00031	6a 0c		 push	 12			; 0000000cH
  00033	99		 cdq
  00034	59		 pop	 ecx
  00035	f7 f9		 idiv	 ecx
  00037	83 6d 0c 0c	 sub	 DWORD PTR __Last$[ebp], 12 ; 0000000cH
  0003b	83 f8 01	 cmp	 eax, 1
  0003e	7f d9		 jg	 SHORT $LL3@Sort_heap
$LN1@Sort_heap:
  00040	5f		 pop	 edi

; 2703 : 	}

  00041	5d		 pop	 ebp
  00042	c3		 ret	 0
??$_Sort_heap@PAUPowerupListInfo@@VEnablePowerupListSort@@@std@@YAXPAUPowerupListInfo@@0VEnablePowerupListSort@@@Z ENDP ; std::_Sort_heap<PowerupListInfo *,EnablePowerupListSort>
_TEXT	ENDS
PUBLIC	??1?$vector@HV?$allocator@H@std@@@std@@QAE@XZ	; std::vector<int,std::allocator<int> >::~vector<int,std::allocator<int> >
; Function compile flags: /Ogsp
; File c:\program files (x86)\microsoft visual studio 10.0\vc\include\vector
;	COMDAT ??1?$vector@HV?$allocator@H@std@@@std@@QAE@XZ
_TEXT	SEGMENT
??1?$vector@HV?$allocator@H@std@@@std@@QAE@XZ PROC	; std::vector<int,std::allocator<int> >::~vector<int,std::allocator<int> >, COMDAT
; _this$ = ecx

; 705  : 		_Tidy();

  00000	e9 00 00 00 00	 jmp	 ?_Tidy@?$vector@HV?$allocator@H@std@@@std@@IAEXXZ ; std::vector<int,std::allocator<int> >::_Tidy
??1?$vector@HV?$allocator@H@std@@@std@@QAE@XZ ENDP	; std::vector<int,std::allocator<int> >::~vector<int,std::allocator<int> >
_TEXT	ENDS
PUBLIC	?assign@?$basic_string@DU?$char_traits@D@std@@V?$allocator@D@2@@std@@QAEAAV12@ABV12@II@Z ; std::basic_string<char,std::char_traits<char>,std::allocator<char> >::assign
; Function compile flags: /Ogsp
; File c:\program files (x86)\microsoft visual studio 10.0\vc\include\xstring
;	COMDAT ?assign@?$basic_string@DU?$char_traits@D@std@@V?$allocator@D@2@@std@@QAEAAV12@ABV12@II@Z
_TEXT	SEGMENT
__Right$ = 8						; size = 4
__Roff$ = 12						; size = 4
__Count$ = 16						; size = 4
?assign@?$basic_string@DU?$char_traits@D@std@@V?$allocator@D@2@@std@@QAEAAV12@ABV12@II@Z PROC ; std::basic_string<char,std::char_traits<char>,std::allocator<char> >::assign, COMDAT
; _this$ = ecx

; 893  : 		{	// assign _Right [_Roff, _Roff + _Count)

  00000	55		 push	 ebp
  00001	8b ec		 mov	 ebp, esp
  00003	53		 push	 ebx

; 894  : 		if (_Right.size() < _Roff)

  00004	8b 5d 08	 mov	 ebx, DWORD PTR __Right$[ebp]
  00007	8b 43 10	 mov	 eax, DWORD PTR [ebx+16]
  0000a	56		 push	 esi
  0000b	8b f1		 mov	 esi, ecx
  0000d	8b 4d 0c	 mov	 ecx, DWORD PTR __Roff$[ebp]
  00010	57		 push	 edi
  00011	3b c1		 cmp	 eax, ecx
  00013	73 0b		 jae	 SHORT $LN5@assign

; 895  : 			_Xran();	// _Roff off end

  00015	68 00 00 00 00	 push	 OFFSET ??_C@_0BI@CFPLBAOH@invalid?5string?5position?$AA@
  0001a	ff 15 00 00 00
	00		 call	 DWORD PTR __imp_?_Xout_of_range@std@@YAXPBD@Z
$LN34@assign:
$LN5@assign:

; 896  : 		size_type _Num = _Right.size() - _Roff;

  00020	2b c1		 sub	 eax, ecx
  00022	8b f8		 mov	 edi, eax

; 897  : 		if (_Count < _Num)

  00024	39 7d 10	 cmp	 DWORD PTR __Count$[ebp], edi

; 898  : 			_Num = _Count;	// trim _Num to size

  00027	0f 42 7d 10	 cmovb	 edi, DWORD PTR __Count$[ebp]

; 899  : 
; 900  : 		if (this == &_Right)

  0002b	3b f3		 cmp	 esi, ebx
  0002d	75 1a		 jne	 SHORT $LN3@assign

; 901  : 			erase((size_type)(_Roff + _Num)), erase(0, _Roff);	// substring

  0002f	03 f9		 add	 edi, ecx
  00031	6a ff		 push	 -1
  00033	57		 push	 edi
  00034	8b ce		 mov	 ecx, esi
  00036	e8 00 00 00 00	 call	 ?erase@?$basic_string@DU?$char_traits@D@std@@V?$allocator@D@2@@std@@QAEAAV12@II@Z ; std::basic_string<char,std::char_traits<char>,std::allocator<char> >::erase
  0003b	ff 75 0c	 push	 DWORD PTR __Roff$[ebp]
  0003e	8b ce		 mov	 ecx, esi
  00040	6a 00		 push	 0
  00042	e8 00 00 00 00	 call	 ?erase@?$basic_string@DU?$char_traits@D@std@@V?$allocator@D@2@@std@@QAEAAV12@II@Z ; std::basic_string<char,std::char_traits<char>,std::allocator<char> >::erase
  00047	eb 47		 jmp	 SHORT $LN31@assign
$LN3@assign:

; 902  : 		else if (_Grow(_Num))

  00049	6a 00		 push	 0
  0004b	57		 push	 edi
  0004c	8b ce		 mov	 ecx, esi
  0004e	e8 00 00 00 00	 call	 ?_Grow@?$basic_string@DU?$char_traits@D@std@@V?$allocator@D@2@@std@@QAE_NI_N@Z ; std::basic_string<char,std::char_traits<char>,std::allocator<char> >::_Grow
  00053	84 c0		 test	 al, al
  00055	74 39		 je	 SHORT $LN31@assign

; 903  : 			{	// make room and assign new stuff
; 904  : 			_Traits::copy(_Myptr(), _Right._Myptr() + _Roff, _Num);

  00057	83 7b 14 10	 cmp	 DWORD PTR [ebx+20], 16	; 00000010H
  0005b	72 04		 jb	 SHORT $LN17@assign
  0005d	8b 03		 mov	 eax, DWORD PTR [ebx]
  0005f	eb 02		 jmp	 SHORT $LN18@assign
$LN17@assign:
  00061	8b c3		 mov	 eax, ebx
$LN18@assign:
  00063	83 7e 14 10	 cmp	 DWORD PTR [esi+20], 16	; 00000010H
  00067	72 04		 jb	 SHORT $LN21@assign
  00069	8b 0e		 mov	 ecx, DWORD PTR [esi]
  0006b	eb 02		 jmp	 SHORT $LN22@assign
$LN21@assign:
  0006d	8b ce		 mov	 ecx, esi
$LN22@assign:
  0006f	03 45 0c	 add	 eax, DWORD PTR __Roff$[ebp]
  00072	57		 push	 edi
  00073	50		 push	 eax
  00074	51		 push	 ecx
  00075	e8 00 00 00 00	 call	 _memcpy
  0007a	83 c4 0c	 add	 esp, 12			; 0000000cH

; 905  : 			_Eos(_Num);

  0007d	83 7e 14 10	 cmp	 DWORD PTR [esi+20], 16	; 00000010H
  00081	89 7e 10	 mov	 DWORD PTR [esi+16], edi
  00084	72 04		 jb	 SHORT $LN29@assign
  00086	8b 06		 mov	 eax, DWORD PTR [esi]
  00088	eb 02		 jmp	 SHORT $LN30@assign
$LN29@assign:
  0008a	8b c6		 mov	 eax, esi
$LN30@assign:
  0008c	c6 04 38 00	 mov	 BYTE PTR [eax+edi], 0
$LN31@assign:

; 906  : 			}
; 907  : 		return (*this);

  00090	5f		 pop	 edi
  00091	8b c6		 mov	 eax, esi
  00093	5e		 pop	 esi
  00094	5b		 pop	 ebx

; 908  : 		}

  00095	5d		 pop	 ebp
  00096	c2 0c 00	 ret	 12			; 0000000cH
$LN33@assign:
?assign@?$basic_string@DU?$char_traits@D@std@@V?$allocator@D@2@@std@@QAEAAV12@ABV12@II@Z ENDP ; std::basic_string<char,std::char_traits<char>,std::allocator<char> >::assign
_TEXT	ENDS
PUBLIC	?assign@?$basic_string@DU?$char_traits@D@std@@V?$allocator@D@2@@std@@QAEAAV12@PBDI@Z ; std::basic_string<char,std::char_traits<char>,std::allocator<char> >::assign
; Function compile flags: /Ogsp
;	COMDAT ?assign@?$basic_string@DU?$char_traits@D@std@@V?$allocator@D@2@@std@@QAEAAV12@PBDI@Z
_TEXT	SEGMENT
__Ptr$ = 8						; size = 4
__Count$ = 12						; size = 4
?assign@?$basic_string@DU?$char_traits@D@std@@V?$allocator@D@2@@std@@QAEAAV12@PBDI@Z PROC ; std::basic_string<char,std::char_traits<char>,std::allocator<char> >::assign, COMDAT
; _this$ = ecx

; 911  : 		{	// assign [_Ptr, _Ptr + _Count)

  00000	55		 push	 ebp
  00001	8b ec		 mov	 ebp, esp
  00003	53		 push	 ebx

; 912  :  #if _ITERATOR_DEBUG_LEVEL == 2
; 913  : 		if (_Count != 0)
; 914  : 			_DEBUG_POINTER(_Ptr);
; 915  :  #endif /* _ITERATOR_DEBUG_LEVEL == 2 */
; 916  : 
; 917  : 		if (_Inside(_Ptr))

  00004	8b 5d 08	 mov	 ebx, DWORD PTR __Ptr$[ebp]
  00007	56		 push	 esi
  00008	53		 push	 ebx
  00009	8b f1		 mov	 esi, ecx
  0000b	e8 00 00 00 00	 call	 ?_Inside@?$basic_string@DU?$char_traits@D@std@@V?$allocator@D@2@@std@@QAE_NPBD@Z ; std::basic_string<char,std::char_traits<char>,std::allocator<char> >::_Inside
  00010	84 c0		 test	 al, al
  00012	74 1c		 je	 SHORT $LN2@assign@2

; 918  : 			return (assign(*this, _Ptr - _Myptr(), _Count));	// substring

  00014	83 7e 14 10	 cmp	 DWORD PTR [esi+20], 16	; 00000010H
  00018	72 04		 jb	 SHORT $LN7@assign@2
  0001a	8b 06		 mov	 eax, DWORD PTR [esi]
  0001c	eb 02		 jmp	 SHORT $LN8@assign@2
$LN7@assign@2:
  0001e	8b c6		 mov	 eax, esi
$LN8@assign@2:
  00020	ff 75 0c	 push	 DWORD PTR __Count$[ebp]
  00023	2b d8		 sub	 ebx, eax
  00025	53		 push	 ebx
  00026	56		 push	 esi
  00027	8b ce		 mov	 ecx, esi
  00029	e8 00 00 00 00	 call	 ?assign@?$basic_string@DU?$char_traits@D@std@@V?$allocator@D@2@@std@@QAEAAV12@ABV12@II@Z ; std::basic_string<char,std::char_traits<char>,std::allocator<char> >::assign
  0002e	eb 3f		 jmp	 SHORT $LN3@assign@2
$LN2@assign@2:
  00030	57		 push	 edi

; 919  : 
; 920  : 		if (_Grow(_Count))

  00031	8b 7d 0c	 mov	 edi, DWORD PTR __Count$[ebp]
  00034	6a 00		 push	 0
  00036	57		 push	 edi
  00037	8b ce		 mov	 ecx, esi
  00039	e8 00 00 00 00	 call	 ?_Grow@?$basic_string@DU?$char_traits@D@std@@V?$allocator@D@2@@std@@QAE_NI_N@Z ; std::basic_string<char,std::char_traits<char>,std::allocator<char> >::_Grow
  0003e	84 c0		 test	 al, al
  00040	74 2a		 je	 SHORT $LN21@assign@2

; 921  : 			{	// make room and assign new stuff
; 922  : 			_Traits::copy(_Myptr(), _Ptr, _Count);

  00042	83 7e 14 10	 cmp	 DWORD PTR [esi+20], 16	; 00000010H
  00046	72 04		 jb	 SHORT $LN11@assign@2
  00048	8b 06		 mov	 eax, DWORD PTR [esi]
  0004a	eb 02		 jmp	 SHORT $LN12@assign@2
$LN11@assign@2:
  0004c	8b c6		 mov	 eax, esi
$LN12@assign@2:
  0004e	57		 push	 edi
  0004f	53		 push	 ebx
  00050	50		 push	 eax
  00051	e8 00 00 00 00	 call	 _memcpy
  00056	83 c4 0c	 add	 esp, 12			; 0000000cH

; 923  : 			_Eos(_Count);

  00059	83 7e 14 10	 cmp	 DWORD PTR [esi+20], 16	; 00000010H
  0005d	89 7e 10	 mov	 DWORD PTR [esi+16], edi
  00060	72 04		 jb	 SHORT $LN19@assign@2
  00062	8b 06		 mov	 eax, DWORD PTR [esi]
  00064	eb 02		 jmp	 SHORT $LN20@assign@2
$LN19@assign@2:
  00066	8b c6		 mov	 eax, esi
$LN20@assign@2:
  00068	c6 04 38 00	 mov	 BYTE PTR [eax+edi], 0
$LN21@assign@2:

; 924  : 			}
; 925  : 		return (*this);

  0006c	8b c6		 mov	 eax, esi
  0006e	5f		 pop	 edi
$LN3@assign@2:
  0006f	5e		 pop	 esi
  00070	5b		 pop	 ebx

; 926  : 		}

  00071	5d		 pop	 ebp
  00072	c2 08 00	 ret	 8
?assign@?$basic_string@DU?$char_traits@D@std@@V?$allocator@D@2@@std@@QAEAAV12@PBDI@Z ENDP ; std::basic_string<char,std::char_traits<char>,std::allocator<char> >::assign
_TEXT	ENDS
PUBLIC	??$_Destroy@V?$basic_string@DU?$char_traits@D@std@@V?$allocator@D@2@@std@@@std@@YAXPAV?$basic_string@DU?$char_traits@D@std@@V?$allocator@D@2@@0@@Z ; std::_Destroy<std::basic_string<char,std::char_traits<char>,std::allocator<char> > >
; Function compile flags: /Ogsp
; File c:\program files (x86)\microsoft visual studio 10.0\vc\include\xmemory
;	COMDAT ??$_Destroy@V?$basic_string@DU?$char_traits@D@std@@V?$allocator@D@2@@std@@@std@@YAXPAV?$basic_string@DU?$char_traits@D@std@@V?$allocator@D@2@@0@@Z
_TEXT	SEGMENT
__Ptr$ = 8						; size = 4
??$_Destroy@V?$basic_string@DU?$char_traits@D@std@@V?$allocator@D@2@@std@@@std@@YAXPAV?$basic_string@DU?$char_traits@D@std@@V?$allocator@D@2@@0@@Z PROC ; std::_Destroy<std::basic_string<char,std::char_traits<char>,std::allocator<char> > >, COMDAT

; 62   : 	{	// destroy object at _Ptr

  00000	55		 push	 ebp
  00001	8b ec		 mov	 ebp, esp

; 63   : 	_Ptr->~_Ty();

  00003	8b 4d 08	 mov	 ecx, DWORD PTR __Ptr$[ebp]
  00006	6a 00		 push	 0
  00008	6a 01		 push	 1
  0000a	e8 00 00 00 00	 call	 ?_Tidy@?$basic_string@DU?$char_traits@D@std@@V?$allocator@D@2@@std@@QAEX_NI@Z ; std::basic_string<char,std::char_traits<char>,std::allocator<char> >::_Tidy

; 64   : 	}

  0000f	5d		 pop	 ebp
  00010	c3		 ret	 0
??$_Destroy@V?$basic_string@DU?$char_traits@D@std@@V?$allocator@D@2@@std@@@std@@YAXPAV?$basic_string@DU?$char_traits@D@std@@V?$allocator@D@2@@0@@Z ENDP ; std::_Destroy<std::basic_string<char,std::char_traits<char>,std::allocator<char> > >
_TEXT	ENDS
PUBLIC	?_Destroy@?$vector@UPowerupListInfo@@V?$allocator@UPowerupListInfo@@@std@@@std@@IAEXPAUPowerupListInfo@@0@Z ; std::vector<PowerupListInfo,std::allocator<PowerupListInfo> >::_Destroy
; Function compile flags: /Ogsp
; File c:\program files (x86)\microsoft visual studio 10.0\vc\include\vector
;	COMDAT ?_Destroy@?$vector@UPowerupListInfo@@V?$allocator@UPowerupListInfo@@@std@@@std@@IAEXPAUPowerupListInfo@@0@Z
_TEXT	SEGMENT
__First$ = 8						; size = 4
__Last$ = 12						; size = 4
?_Destroy@?$vector@UPowerupListInfo@@V?$allocator@UPowerupListInfo@@@std@@@std@@IAEXPAUPowerupListInfo@@0@Z PROC ; std::vector<PowerupListInfo,std::allocator<PowerupListInfo> >::_Destroy, COMDAT
; _this$ = ecx

; 1270 : 		_Destroy_range(_First, _Last, this->_Alval);
; 1271 : 		}

  00000	c2 08 00	 ret	 8
?_Destroy@?$vector@UPowerupListInfo@@V?$allocator@UPowerupListInfo@@@std@@@std@@IAEXPAUPowerupListInfo@@0@Z ENDP ; std::vector<PowerupListInfo,std::allocator<PowerupListInfo> >::_Destroy
_TEXT	ENDS
PUBLIC	??$_Ucopy@V?$_Vector_const_iterator@V?$_Vector_val@HV?$allocator@H@std@@@std@@@std@@@?$vector@HV?$allocator@H@std@@@std@@IAEPAHV?$_Vector_const_iterator@V?$_Vector_val@HV?$allocator@H@std@@@std@@@1@0PAH@Z ; std::vector<int,std::allocator<int> >::_Ucopy<std::_Vector_const_iterator<std::_Vector_val<int,std::allocator<int> > > >
; Function compile flags: /Ogsp
;	COMDAT ??$_Ucopy@V?$_Vector_const_iterator@V?$_Vector_val@HV?$allocator@H@std@@@std@@@std@@@?$vector@HV?$allocator@H@std@@@std@@IAEPAHV?$_Vector_const_iterator@V?$_Vector_val@HV?$allocator@H@std@@@std@@@1@0PAH@Z
_TEXT	SEGMENT
__First$ = 8						; size = 4
__Last$ = 12						; size = 4
__Cat$516909 = 16					; size = 1
__Ptr$ = 16						; size = 4
??$_Ucopy@V?$_Vector_const_iterator@V?$_Vector_val@HV?$allocator@H@std@@@std@@@std@@@?$vector@HV?$allocator@H@std@@@std@@IAEPAHV?$_Vector_const_iterator@V?$_Vector_val@HV?$allocator@H@std@@@std@@@1@0PAH@Z PROC ; std::vector<int,std::allocator<int> >::_Ucopy<std::_Vector_const_iterator<std::_Vector_val<int,std::allocator<int> > > >, COMDAT
; _this$ = ecx

; 1315 : 		pointer _Ucopy(_Iter _First, _Iter _Last, pointer _Ptr)

  00000	55		 push	 ebp
  00001	8b ec		 mov	 ebp, esp

; 1316 : 		{	// copy initializing [_First, _Last), using allocator
; 1317 : 		return (_Uninitialized_copy(_First, _Last,
; 1318 : 			_Ptr, this->_Alval));

  00003	ff 75 10	 push	 DWORD PTR __Cat$516909[ebp]
  00006	83 c1 0c	 add	 ecx, 12			; 0000000cH
  00009	51		 push	 ecx
  0000a	ff 75 10	 push	 DWORD PTR __Ptr$[ebp]
  0000d	ff 75 0c	 push	 DWORD PTR __Last$[ebp]
  00010	ff 75 08	 push	 DWORD PTR __First$[ebp]
  00013	e8 00 00 00 00	 call	 ??$_Uninit_copy@V?$_Vector_const_iterator@V?$_Vector_val@HV?$allocator@H@std@@@std@@@std@@PAHV?$allocator@H@2@@std@@YAPAHV?$_Vector_const_iterator@V?$_Vector_val@HV?$allocator@H@std@@@std@@@0@0PAHAAV?$allocator@H@0@U_Nonscalar_ptr_iterator_tag@0@@Z ; std::_Uninit_copy<std::_Vector_const_iterator<std::_Vector_val<int,std::allocator<int> > >,int *,std::allocator<int> >
  00018	83 c4 14	 add	 esp, 20			; 00000014H

; 1319 : 		}

  0001b	5d		 pop	 ebp
  0001c	c2 0c 00	 ret	 12			; 0000000cH
??$_Ucopy@V?$_Vector_const_iterator@V?$_Vector_val@HV?$allocator@H@std@@@std@@@std@@@?$vector@HV?$allocator@H@std@@@std@@IAEPAHV?$_Vector_const_iterator@V?$_Vector_val@HV?$allocator@H@std@@@std@@@1@0PAH@Z ENDP ; std::vector<int,std::allocator<int> >::_Ucopy<std::_Vector_const_iterator<std::_Vector_val<int,std::allocator<int> > > >
_TEXT	ENDS
PUBLIC	??$_Destroy_range@V?$allocator@UEXTRAITEMSLOT@@@std@@@std@@YAXPAUEXTRAITEMSLOT@@0AAV?$allocator@UEXTRAITEMSLOT@@@0@@Z ; std::_Destroy_range<std::allocator<EXTRAITEMSLOT> >
; Function compile flags: /Ogsp
; File c:\program files (x86)\microsoft visual studio 10.0\vc\include\xmemory
;	COMDAT ??$_Destroy_range@V?$allocator@UEXTRAITEMSLOT@@@std@@@std@@YAXPAUEXTRAITEMSLOT@@0AAV?$allocator@UEXTRAITEMSLOT@@@0@@Z
_TEXT	SEGMENT
__First$ = 8						; size = 4
__Last$ = 12						; size = 4
__Al$ = 16						; size = 4
??$_Destroy_range@V?$allocator@UEXTRAITEMSLOT@@@std@@@std@@YAXPAUEXTRAITEMSLOT@@0AAV?$allocator@UEXTRAITEMSLOT@@@0@@Z PROC ; std::_Destroy_range<std::allocator<EXTRAITEMSLOT> >, COMDAT

; 87   : 	{	// destroy [_First, _Last)

  00000	55		 push	 ebp
  00001	8b ec		 mov	 ebp, esp
  00003	56		 push	 esi

; 88   : 	_Destroy_range(_First, _Last, _Al, _Ptr_cat(_First, _Last));

  00004	8b 75 08	 mov	 esi, DWORD PTR __First$[ebp]
  00007	eb 0a		 jmp	 SHORT $LN21@Destroy_ra@2
$LL7@Destroy_ra@2:
  00009	8b ce		 mov	 ecx, esi
  0000b	e8 00 00 00 00	 call	 ??1EXTRAITEMSLOT@@QAE@XZ
  00010	83 c6 48	 add	 esi, 72			; 00000048H
$LN21@Destroy_ra@2:
  00013	3b 75 0c	 cmp	 esi, DWORD PTR __Last$[ebp]
  00016	75 f1		 jne	 SHORT $LL7@Destroy_ra@2
  00018	5e		 pop	 esi

; 89   : 	}

  00019	5d		 pop	 ebp
  0001a	c3		 ret	 0
??$_Destroy_range@V?$allocator@UEXTRAITEMSLOT@@@std@@@std@@YAXPAUEXTRAITEMSLOT@@0AAV?$allocator@UEXTRAITEMSLOT@@@0@@Z ENDP ; std::_Destroy_range<std::allocator<EXTRAITEMSLOT> >
_TEXT	ENDS
PUBLIC	??$_Umove@PAUPowerupListInfo@@@?$vector@UPowerupListInfo@@V?$allocator@UPowerupListInfo@@@std@@@std@@IAEPAUPowerupListInfo@@PAU2@00@Z ; std::vector<PowerupListInfo,std::allocator<PowerupListInfo> >::_Umove<PowerupListInfo *>
; Function compile flags: /Ogsp
; File c:\program files (x86)\microsoft visual studio 10.0\vc\include\vector
;	COMDAT ??$_Umove@PAUPowerupListInfo@@@?$vector@UPowerupListInfo@@V?$allocator@UPowerupListInfo@@@std@@@std@@IAEPAUPowerupListInfo@@PAU2@00@Z
_TEXT	SEGMENT
__First$ = 8						; size = 4
__Last$ = 12						; size = 4
__Ptr$ = 16						; size = 4
??$_Umove@PAUPowerupListInfo@@@?$vector@UPowerupListInfo@@V?$allocator@UPowerupListInfo@@@std@@@std@@IAEPAUPowerupListInfo@@PAU2@00@Z PROC ; std::vector<PowerupListInfo,std::allocator<PowerupListInfo> >::_Umove<PowerupListInfo *>, COMDAT
; _this$ = ecx

; 1322 : 		pointer _Umove(_Iter _First, _Iter _Last, pointer _Ptr)

  00000	55		 push	 ebp
  00001	8b ec		 mov	 ebp, esp

; 1323 : 		{	// move initializing [_First, _Last), using allocator
; 1324 : 		return (_Uninitialized_move(_First, _Last,
; 1325 : 			_Ptr, this->_Alval));

  00003	83 c1 0c	 add	 ecx, 12			; 0000000cH
  00006	51		 push	 ecx
  00007	ff 75 10	 push	 DWORD PTR __Ptr$[ebp]
  0000a	ff 75 0c	 push	 DWORD PTR __Last$[ebp]
  0000d	ff 75 08	 push	 DWORD PTR __First$[ebp]
  00010	e8 00 00 00 00	 call	 ??$_Uninitialized_move@PAUPowerupListInfo@@PAU1@V?$allocator@UPowerupListInfo@@@std@@@std@@YAPAUPowerupListInfo@@PAU1@00AAV?$allocator@UPowerupListInfo@@@0@@Z ; std::_Uninitialized_move<PowerupListInfo *,PowerupListInfo *,std::allocator<PowerupListInfo> >
  00015	83 c4 10	 add	 esp, 16			; 00000010H

; 1326 : 		}

  00018	5d		 pop	 ebp
  00019	c2 0c 00	 ret	 12			; 0000000cH
??$_Umove@PAUPowerupListInfo@@@?$vector@UPowerupListInfo@@V?$allocator@UPowerupListInfo@@@std@@@std@@IAEPAUPowerupListInfo@@PAU2@00@Z ENDP ; std::vector<PowerupListInfo,std::allocator<PowerupListInfo> >::_Umove<PowerupListInfo *>
_TEXT	ENDS
PUBLIC	??$sort_heap@PAUPowerupListInfo@@VEnablePowerupListSort@@@std@@YAXPAUPowerupListInfo@@0VEnablePowerupListSort@@@Z ; std::sort_heap<PowerupListInfo *,EnablePowerupListSort>
; Function compile flags: /Ogsp
; File c:\program files (x86)\microsoft visual studio 10.0\vc\include\algorithm
;	COMDAT ??$sort_heap@PAUPowerupListInfo@@VEnablePowerupListSort@@@std@@YAXPAUPowerupListInfo@@0VEnablePowerupListSort@@@Z
_TEXT	SEGMENT
__First$ = 8						; size = 4
__Last$ = 12						; size = 4
__Pred$ = 16						; size = 1
??$sort_heap@PAUPowerupListInfo@@VEnablePowerupListSort@@@std@@YAXPAUPowerupListInfo@@0VEnablePowerupListSort@@@Z PROC ; std::sort_heap<PowerupListInfo *,EnablePowerupListSort>, COMDAT

; 2708 : 	{	// order heap by repeatedly popping, using _Pred

  00000	55		 push	 ebp
  00001	8b ec		 mov	 ebp, esp

; 2709 : 	_DEBUG_RANGE(_First, _Last);
; 2710 : 	_DEBUG_POINTER(_Pred);
; 2711 : 	_DEBUG_HEAP_PRED(_First, _Last, _Pred);
; 2712 : 	_Sort_heap(_Unchecked(_First), _Unchecked(_Last), _Pred);

  00003	ff 75 10	 push	 DWORD PTR __Pred$[ebp]
  00006	ff 75 0c	 push	 DWORD PTR __Last$[ebp]
  00009	ff 75 08	 push	 DWORD PTR __First$[ebp]
  0000c	e8 00 00 00 00	 call	 ??$_Sort_heap@PAUPowerupListInfo@@VEnablePowerupListSort@@@std@@YAXPAUPowerupListInfo@@0VEnablePowerupListSort@@@Z ; std::_Sort_heap<PowerupListInfo *,EnablePowerupListSort>
  00011	83 c4 0c	 add	 esp, 12			; 0000000cH

; 2713 : 	}

  00014	5d		 pop	 ebp
  00015	c3		 ret	 0
??$sort_heap@PAUPowerupListInfo@@VEnablePowerupListSort@@@std@@YAXPAUPowerupListInfo@@0VEnablePowerupListSort@@@Z ENDP ; std::sort_heap<PowerupListInfo *,EnablePowerupListSort>
_TEXT	ENDS
PUBLIC	??0?$basic_string@DU?$char_traits@D@std@@V?$allocator@D@2@@std@@QAE@ABV01@@Z ; std::basic_string<char,std::char_traits<char>,std::allocator<char> >::basic_string<char,std::char_traits<char>,std::allocator<char> >
; Function compile flags: /Ogsp
; File c:\program files (x86)\microsoft visual studio 10.0\vc\include\xstring
;	COMDAT ??0?$basic_string@DU?$char_traits@D@std@@V?$allocator@D@2@@std@@QAE@ABV01@@Z
_TEXT	SEGMENT
__Right$ = 8						; size = 4
??0?$basic_string@DU?$char_traits@D@std@@V?$allocator@D@2@@std@@QAE@ABV01@@Z PROC ; std::basic_string<char,std::char_traits<char>,std::allocator<char> >::basic_string<char,std::char_traits<char>,std::allocator<char> >, COMDAT
; _this$ = ecx

; 543  : 		{	// construct by copying _Right

  00000	55		 push	 ebp
  00001	8b ec		 mov	 ebp, esp
  00003	56		 push	 esi

; 544  : 		_Tidy();

  00004	33 c0		 xor	 eax, eax

; 545  : 		assign(_Right, 0, npos);

  00006	6a ff		 push	 -1
  00008	8b f1		 mov	 esi, ecx
  0000a	50		 push	 eax
  0000b	ff 75 08	 push	 DWORD PTR __Right$[ebp]
  0000e	c7 46 14 0f 00
	00 00		 mov	 DWORD PTR [esi+20], 15	; 0000000fH
  00015	89 46 10	 mov	 DWORD PTR [esi+16], eax
  00018	88 06		 mov	 BYTE PTR [esi], al
  0001a	e8 00 00 00 00	 call	 ?assign@?$basic_string@DU?$char_traits@D@std@@V?$allocator@D@2@@std@@QAEAAV12@ABV12@II@Z ; std::basic_string<char,std::char_traits<char>,std::allocator<char> >::assign

; 546  : 		}

  0001f	8b c6		 mov	 eax, esi
  00021	5e		 pop	 esi
  00022	5d		 pop	 ebp
  00023	c2 04 00	 ret	 4
??0?$basic_string@DU?$char_traits@D@std@@V?$allocator@D@2@@std@@QAE@ABV01@@Z ENDP ; std::basic_string<char,std::char_traits<char>,std::allocator<char> >::basic_string<char,std::char_traits<char>,std::allocator<char> >
_TEXT	ENDS
PUBLIC	?assign@?$basic_string@DU?$char_traits@D@std@@V?$allocator@D@2@@std@@QAEAAV12@ABV12@@Z ; std::basic_string<char,std::char_traits<char>,std::allocator<char> >::assign
; Function compile flags: /Ogsp
;	COMDAT ?assign@?$basic_string@DU?$char_traits@D@std@@V?$allocator@D@2@@std@@QAEAAV12@ABV12@@Z
_TEXT	SEGMENT
__Right$ = 8						; size = 4
?assign@?$basic_string@DU?$char_traits@D@std@@V?$allocator@D@2@@std@@QAEAAV12@ABV12@@Z PROC ; std::basic_string<char,std::char_traits<char>,std::allocator<char> >::assign, COMDAT
; _this$ = ecx

; 887  : 		{	// assign _Right

  00000	55		 push	 ebp
  00001	8b ec		 mov	 ebp, esp

; 888  : 		return (assign(_Right, 0, npos));

  00003	6a ff		 push	 -1
  00005	6a 00		 push	 0
  00007	ff 75 08	 push	 DWORD PTR __Right$[ebp]
  0000a	e8 00 00 00 00	 call	 ?assign@?$basic_string@DU?$char_traits@D@std@@V?$allocator@D@2@@std@@QAEAAV12@ABV12@II@Z ; std::basic_string<char,std::char_traits<char>,std::allocator<char> >::assign

; 889  : 		}

  0000f	5d		 pop	 ebp
  00010	c2 04 00	 ret	 4
?assign@?$basic_string@DU?$char_traits@D@std@@V?$allocator@D@2@@std@@QAEAAV12@ABV12@@Z ENDP ; std::basic_string<char,std::char_traits<char>,std::allocator<char> >::assign
_TEXT	ENDS
PUBLIC	?assign@?$basic_string@DU?$char_traits@D@std@@V?$allocator@D@2@@std@@QAEAAV12@PBD@Z ; std::basic_string<char,std::char_traits<char>,std::allocator<char> >::assign
; Function compile flags: /Ogsp
;	COMDAT ?assign@?$basic_string@DU?$char_traits@D@std@@V?$allocator@D@2@@std@@QAEAAV12@PBD@Z
_TEXT	SEGMENT
__Ptr$ = 8						; size = 4
?assign@?$basic_string@DU?$char_traits@D@std@@V?$allocator@D@2@@std@@QAEAAV12@PBD@Z PROC ; std::basic_string<char,std::char_traits<char>,std::allocator<char> >::assign, COMDAT
; _this$ = ecx

; 929  : 		{	// assign [_Ptr, <null>)

  00000	55		 push	 ebp
  00001	8b ec		 mov	 ebp, esp

; 930  : 		_DEBUG_POINTER(_Ptr);
; 931  : 		return (assign(_Ptr, _Traits::length(_Ptr)));

  00003	8b 45 08	 mov	 eax, DWORD PTR __Ptr$[ebp]
  00006	8d 50 01	 lea	 edx, DWORD PTR [eax+1]
  00009	53		 push	 ebx
$LL5@assign@3:
  0000a	8a 18		 mov	 bl, BYTE PTR [eax]
  0000c	40		 inc	 eax
  0000d	84 db		 test	 bl, bl
  0000f	75 f9		 jne	 SHORT $LL5@assign@3
  00011	2b c2		 sub	 eax, edx
  00013	50		 push	 eax
  00014	ff 75 08	 push	 DWORD PTR __Ptr$[ebp]
  00017	e8 00 00 00 00	 call	 ?assign@?$basic_string@DU?$char_traits@D@std@@V?$allocator@D@2@@std@@QAEAAV12@PBDI@Z ; std::basic_string<char,std::char_traits<char>,std::allocator<char> >::assign
  0001c	5b		 pop	 ebx

; 932  : 		}

  0001d	5d		 pop	 ebp
  0001e	c2 04 00	 ret	 4
?assign@?$basic_string@DU?$char_traits@D@std@@V?$allocator@D@2@@std@@QAEAAV12@PBD@Z ENDP ; std::basic_string<char,std::char_traits<char>,std::allocator<char> >::assign
_TEXT	ENDS
PUBLIC	?destroy@?$allocator@V?$basic_string@DU?$char_traits@D@std@@V?$allocator@D@2@@std@@@std@@QAEXPAV?$basic_string@DU?$char_traits@D@std@@V?$allocator@D@2@@2@@Z ; std::allocator<std::basic_string<char,std::char_traits<char>,std::allocator<char> > >::destroy
; Function compile flags: /Ogsp
; File c:\program files (x86)\microsoft visual studio 10.0\vc\include\xmemory
;	COMDAT ?destroy@?$allocator@V?$basic_string@DU?$char_traits@D@std@@V?$allocator@D@2@@std@@@std@@QAEXPAV?$basic_string@DU?$char_traits@D@std@@V?$allocator@D@2@@2@@Z
_TEXT	SEGMENT
__Ptr$ = 8						; size = 4
?destroy@?$allocator@V?$basic_string@DU?$char_traits@D@std@@V?$allocator@D@2@@std@@@std@@QAEXPAV?$basic_string@DU?$char_traits@D@std@@V?$allocator@D@2@@2@@Z PROC ; std::allocator<std::basic_string<char,std::char_traits<char>,std::allocator<char> > >::destroy, COMDAT
; _this$ = ecx

; 212  : 		{	// destroy object at _Ptr

  00000	55		 push	 ebp
  00001	8b ec		 mov	 ebp, esp

; 213  : 		_Destroy(_Ptr);

  00003	8b 4d 08	 mov	 ecx, DWORD PTR __Ptr$[ebp]
  00006	6a 00		 push	 0
  00008	6a 01		 push	 1
  0000a	e8 00 00 00 00	 call	 ?_Tidy@?$basic_string@DU?$char_traits@D@std@@V?$allocator@D@2@@std@@QAEX_NI@Z ; std::basic_string<char,std::char_traits<char>,std::allocator<char> >::_Tidy

; 214  : 		}

  0000f	5d		 pop	 ebp
  00010	c2 04 00	 ret	 4
?destroy@?$allocator@V?$basic_string@DU?$char_traits@D@std@@V?$allocator@D@2@@std@@@std@@QAEXPAV?$basic_string@DU?$char_traits@D@std@@V?$allocator@D@2@@2@@Z ENDP ; std::allocator<std::basic_string<char,std::char_traits<char>,std::allocator<char> > >::destroy
_TEXT	ENDS
PUBLIC	??0?$vector@HV?$allocator@H@std@@@std@@QAE@ABV01@@Z ; std::vector<int,std::allocator<int> >::vector<int,std::allocator<int> >
;	COMDAT xdata$x
; File c:\program files (x86)\microsoft visual studio 10.0\vc\include\xutility
xdata$x	SEGMENT
__catchsym$??0?$vector@HV?$allocator@H@std@@@std@@QAE@ABV01@@Z$2 DD 040H
	DD	00H
	DD	00H
	DD	FLAT:__catch$??0?$vector@HV?$allocator@H@std@@@std@@QAE@ABV01@@Z$0
__unwindtable$??0?$vector@HV?$allocator@H@std@@@std@@QAE@ABV01@@Z DD 0ffffffffH
	DD	00H
	DD	0ffffffffH
	DD	00H
__tryblocktable$??0?$vector@HV?$allocator@H@std@@@std@@QAE@ABV01@@Z DD 00H
	DD	00H
	DD	01H
	DD	01H
	DD	FLAT:__catchsym$??0?$vector@HV?$allocator@H@std@@@std@@QAE@ABV01@@Z$2
__ehfuncinfo$??0?$vector@HV?$allocator@H@std@@@std@@QAE@ABV01@@Z DD 019930522H
	DD	02H
	DD	FLAT:__unwindtable$??0?$vector@HV?$allocator@H@std@@@std@@QAE@ABV01@@Z
	DD	01H
	DD	FLAT:__tryblocktable$??0?$vector@HV?$allocator@H@std@@@std@@QAE@ABV01@@Z
	DD	2 DUP(00H)
	DD	00H
	DD	01H
; Function compile flags: /Ogsp
; File c:\program files (x86)\microsoft visual studio 10.0\vc\include\vector
xdata$x	ENDS
;	COMDAT ??0?$vector@HV?$allocator@H@std@@@std@@QAE@ABV01@@Z
_TEXT	SEGMENT
_this$ = -20						; size = 4
__$EHRec$ = -16						; size = 16
__Cat$517156 = 8					; size = 1
__Right$ = 8						; size = 4
??0?$vector@HV?$allocator@H@std@@@std@@QAE@ABV01@@Z PROC ; std::vector<int,std::allocator<int> >::vector<int,std::allocator<int> >, COMDAT
; _this$ = ecx

; 535  : 		{	// construct by copying _Right

  00000	6a 08		 push	 8
  00002	b8 00 00 00 00	 mov	 eax, __ehhandler$??0?$vector@HV?$allocator@H@std@@@std@@QAE@ABV01@@Z
  00007	e8 00 00 00 00	 call	 __EH_prolog3_catch
  0000c	8b f1		 mov	 esi, ecx
  0000e	89 75 ec	 mov	 DWORD PTR _this$[ebp], esi

; 536  : 		if (_Buy(_Right.size()))

  00011	8b 7d 08	 mov	 edi, DWORD PTR __Right$[ebp]
  00014	33 db		 xor	 ebx, ebx
  00016	89 1e		 mov	 DWORD PTR [esi], ebx
  00018	89 5e 04	 mov	 DWORD PTR [esi+4], ebx
  0001b	89 5e 08	 mov	 DWORD PTR [esi+8], ebx
  0001e	8b 47 04	 mov	 eax, DWORD PTR [edi+4]
  00021	2b 07		 sub	 eax, DWORD PTR [edi]
  00023	c1 f8 02	 sar	 eax, 2
  00026	50		 push	 eax
  00027	e8 00 00 00 00	 call	 ?_Buy@?$vector@HV?$allocator@H@std@@@std@@IAE_NI@Z ; std::vector<int,std::allocator<int> >::_Buy
  0002c	84 c0		 test	 al, al
  0002e	74 1f		 je	 SHORT $LN7@vector

; 537  : 			_TRY_BEGIN
; 538  : 			this->_Mylast = _Ucopy(_Right.begin(), _Right.end(),
; 539  : 				this->_Myfirst);

  00030	ff 75 08	 push	 DWORD PTR __Cat$517156[ebp]
  00033	8b 0e		 mov	 ecx, DWORD PTR [esi]
  00035	8b 47 04	 mov	 eax, DWORD PTR [edi+4]
  00038	8b 3f		 mov	 edi, DWORD PTR [edi]
  0003a	8d 56 0c	 lea	 edx, DWORD PTR [esi+12]
  0003d	52		 push	 edx
  0003e	51		 push	 ecx
  0003f	50		 push	 eax
  00040	57		 push	 edi
  00041	89 5d fc	 mov	 DWORD PTR __$EHRec$[ebp+12], ebx
  00044	e8 00 00 00 00	 call	 ??$_Uninit_copy@V?$_Vector_const_iterator@V?$_Vector_val@HV?$allocator@H@std@@@std@@@std@@PAHV?$allocator@H@2@@std@@YAPAHV?$_Vector_const_iterator@V?$_Vector_val@HV?$allocator@H@std@@@std@@@0@0PAHAAV?$allocator@H@0@U_Nonscalar_ptr_iterator_tag@0@@Z ; std::_Uninit_copy<std::_Vector_const_iterator<std::_Vector_val<int,std::allocator<int> > >,int *,std::allocator<int> >
  00049	83 c4 14	 add	 esp, 20			; 00000014H
  0004c	89 46 04	 mov	 DWORD PTR [esi+4], eax
$LN7@vector:

; 543  : 			_CATCH_END
; 544  : 		}

  0004f	8b c6		 mov	 eax, esi
  00051	e8 00 00 00 00	 call	 __EH_epilog3
  00056	c2 04 00	 ret	 4
__catch$??0?$vector@HV?$allocator@H@std@@@std@@QAE@ABV01@@Z$0:

; 540  : 			_CATCH_ALL
; 541  : 			_Tidy();

  00059	8b 4d ec	 mov	 ecx, DWORD PTR _this$[ebp]
  0005c	e8 00 00 00 00	 call	 ?_Tidy@?$vector@HV?$allocator@H@std@@@std@@IAEXXZ ; std::vector<int,std::allocator<int> >::_Tidy

; 542  : 			_RERAISE;

  00061	33 db		 xor	 ebx, ebx
  00063	53		 push	 ebx
  00064	53		 push	 ebx
  00065	e8 00 00 00 00	 call	 __CxxThrowException@8
$LN38@vector:
$LN37@vector:
  0006a	cc		 int	 3
_TEXT	ENDS
;	COMDAT text$x
text$x	SEGMENT
__ehhandler$??0?$vector@HV?$allocator@H@std@@@std@@QAE@ABV01@@Z:
  00000	8b 54 24 08	 mov	 edx, DWORD PTR [esp+8]
  00004	8d 42 0c	 lea	 eax, DWORD PTR [edx+12]
  00007	8b 4a e8	 mov	 ecx, DWORD PTR [edx-24]
  0000a	33 c8		 xor	 ecx, eax
  0000c	e8 00 00 00 00	 call	 @__security_check_cookie@4
  00011	b8 00 00 00 00	 mov	 eax, OFFSET __ehfuncinfo$??0?$vector@HV?$allocator@H@std@@@std@@QAE@ABV01@@Z
  00016	e9 00 00 00 00	 jmp	 ___CxxFrameHandler3
text$x	ENDS
??0?$vector@HV?$allocator@H@std@@@std@@QAE@ABV01@@Z ENDP ; std::vector<int,std::allocator<int> >::vector<int,std::allocator<int> >
PUBLIC	?erase@?$vector@UPowerupListInfo@@V?$allocator@UPowerupListInfo@@@std@@@std@@QAE?AV?$_Vector_iterator@V?$_Vector_val@UPowerupListInfo@@V?$allocator@UPowerupListInfo@@@std@@@std@@@2@V?$_Vector_const_iterator@V?$_Vector_val@UPowerupListInfo@@V?$allocator@UPowerupListInfo@@@std@@@std@@@2@0@Z ; std::vector<PowerupListInfo,std::allocator<PowerupListInfo> >::erase
; Function compile flags: /Ogsp
;	COMDAT ?erase@?$vector@UPowerupListInfo@@V?$allocator@UPowerupListInfo@@@std@@@std@@QAE?AV?$_Vector_iterator@V?$_Vector_val@UPowerupListInfo@@V?$allocator@UPowerupListInfo@@@std@@@std@@@2@V?$_Vector_const_iterator@V?$_Vector_val@UPowerupListInfo@@V?$allocator@UPowerupListInfo@@@std@@@std@@@2@0@Z
_TEXT	SEGMENT
___$ReturnUdt$ = 8					; size = 4
__First_arg$ = 12					; size = 4
__Cat$517248 = 16					; size = 1
__Last_arg$ = 16					; size = 4
?erase@?$vector@UPowerupListInfo@@V?$allocator@UPowerupListInfo@@@std@@@std@@QAE?AV?$_Vector_iterator@V?$_Vector_val@UPowerupListInfo@@V?$allocator@UPowerupListInfo@@@std@@@std@@@2@V?$_Vector_const_iterator@V?$_Vector_val@UPowerupListInfo@@V?$allocator@UPowerupListInfo@@@std@@@std@@@2@0@Z PROC ; std::vector<PowerupListInfo,std::allocator<PowerupListInfo> >::erase, COMDAT
; _this$ = ecx

; 1190 : 		{	// erase [_First, _Last)

  00000	55		 push	 ebp
  00001	8b ec		 mov	 ebp, esp

; 1191 : 		iterator _First = _Make_iter(_First_arg);

  00003	8b 45 0c	 mov	 eax, DWORD PTR __First_arg$[ebp]
  00006	56		 push	 esi
  00007	57		 push	 edi
  00008	8b 7d 08	 mov	 edi, DWORD PTR ___$ReturnUdt$[ebp]
  0000b	8b f1		 mov	 esi, ecx
  0000d	89 07		 mov	 DWORD PTR [edi], eax

; 1192 : 		iterator _Last = _Make_iter(_Last_arg);
; 1193 : 
; 1194 : 		if (_First != _Last)

  0000f	3b 45 10	 cmp	 eax, DWORD PTR __Last_arg$[ebp]
  00012	74 16		 je	 SHORT $LN1@erase@2

; 1195 : 			{	// worth doing, copy down over hole
; 1196 :  #if _ITERATOR_DEBUG_LEVEL == 2
; 1197 : 			if (_Last < _First || _VICONT(_First) != this
; 1198 : 				|| _VIPTR(_First) < this->_Myfirst
; 1199 : 				|| this->_Mylast < _VIPTR(_Last))
; 1200 : 				_DEBUG_ERROR("vector erase iterator outside range");
; 1201 : 			pointer _Ptr = _Move(_VIPTR(_Last), this->_Mylast,
; 1202 : 				_VIPTR(_First));
; 1203 : 			_Orphan_range(_VIPTR(_First), this->_Mylast);
; 1204 : 
; 1205 :  #else /* _ITERATOR_DEBUG_LEVEL == 2 */
; 1206 : 			pointer _Ptr = _Move(_VIPTR(_Last), this->_Mylast,
; 1207 : 				_VIPTR(_First));

  00014	ff 75 10	 push	 DWORD PTR __Cat$517248[ebp]
  00017	8b 4e 04	 mov	 ecx, DWORD PTR [esi+4]
  0001a	50		 push	 eax
  0001b	51		 push	 ecx
  0001c	ff 75 10	 push	 DWORD PTR __Last_arg$[ebp]
  0001f	e8 00 00 00 00	 call	 ??$_Move@PAUPowerupListInfo@@PAU1@@std@@YAPAUPowerupListInfo@@PAU1@00U_Nonscalar_ptr_iterator_tag@0@@Z ; std::_Move<PowerupListInfo *,PowerupListInfo *>
  00024	83 c4 10	 add	 esp, 16			; 00000010H

; 1208 :  #endif /* _ITERATOR_DEBUG_LEVEL == 2 */
; 1209 : 
; 1210 : 			_Destroy(_Ptr, this->_Mylast);
; 1211 : 			this->_Mylast = _Ptr;

  00027	89 46 04	 mov	 DWORD PTR [esi+4], eax
$LN1@erase@2:

; 1212 : 			}
; 1213 : 		return (_First);

  0002a	8b c7		 mov	 eax, edi
  0002c	5f		 pop	 edi
  0002d	5e		 pop	 esi

; 1214 : 		}

  0002e	5d		 pop	 ebp
  0002f	c2 0c 00	 ret	 12			; 0000000cH
?erase@?$vector@UPowerupListInfo@@V?$allocator@UPowerupListInfo@@@std@@@std@@QAE?AV?$_Vector_iterator@V?$_Vector_val@UPowerupListInfo@@V?$allocator@UPowerupListInfo@@@std@@@std@@@2@V?$_Vector_const_iterator@V?$_Vector_val@UPowerupListInfo@@V?$allocator@UPowerupListInfo@@@std@@@std@@@2@0@Z ENDP ; std::vector<PowerupListInfo,std::allocator<PowerupListInfo> >::erase
_TEXT	ENDS
PUBLIC	?_Tidy@?$vector@UPowerupListInfo@@V?$allocator@UPowerupListInfo@@@std@@@std@@IAEXXZ ; std::vector<PowerupListInfo,std::allocator<PowerupListInfo> >::_Tidy
; Function compile flags: /Ogsp
;	COMDAT ?_Tidy@?$vector@UPowerupListInfo@@V?$allocator@UPowerupListInfo@@@std@@@std@@IAEXXZ
_TEXT	SEGMENT
?_Tidy@?$vector@UPowerupListInfo@@V?$allocator@UPowerupListInfo@@@std@@@std@@IAEXXZ PROC ; std::vector<PowerupListInfo,std::allocator<PowerupListInfo> >::_Tidy, COMDAT
; _this$ = ecx

; 1301 : 		{	// free all storage

  00000	56		 push	 esi
  00001	8b f1		 mov	 esi, ecx

; 1302 : 		if (this->_Myfirst != 0)

  00003	83 3e 00	 cmp	 DWORD PTR [esi], 0
  00006	74 0e		 je	 SHORT $LN21@Tidy@3

; 1303 : 			{	// something to free, destroy and deallocate it
; 1304 : 			this->_Orphan_all();

  00008	ff 15 00 00 00
	00		 call	 DWORD PTR __imp_?_Orphan_all@_Container_base0@std@@QAEXXZ

; 1305 : 			_Destroy(this->_Myfirst, this->_Mylast);
; 1306 : 			this->_Alval.deallocate(this->_Myfirst,
; 1307 : 				this->_Myend - this->_Myfirst);

  0000e	ff 36		 push	 DWORD PTR [esi]
  00010	e8 00 00 00 00	 call	 ??3@YAXPAX@Z		; operator delete
  00015	59		 pop	 ecx
$LN21@Tidy@3:

; 1308 : 			}
; 1309 : 		this->_Myfirst = 0;

  00016	83 26 00	 and	 DWORD PTR [esi], 0

; 1310 : 		this->_Mylast = 0;

  00019	83 66 04 00	 and	 DWORD PTR [esi+4], 0

; 1311 : 		this->_Myend = 0;

  0001d	83 66 08 00	 and	 DWORD PTR [esi+8], 0
  00021	5e		 pop	 esi

; 1312 : 		}

  00022	c3		 ret	 0
?_Tidy@?$vector@UPowerupListInfo@@V?$allocator@UPowerupListInfo@@@std@@@std@@IAEXXZ ENDP ; std::vector<PowerupListInfo,std::allocator<PowerupListInfo> >::_Tidy
_TEXT	ENDS
PUBLIC	?_Destroy@?$vector@UEXTRAITEMSLOT@@V?$allocator@UEXTRAITEMSLOT@@@std@@@std@@IAEXPAUEXTRAITEMSLOT@@0@Z ; std::vector<EXTRAITEMSLOT,std::allocator<EXTRAITEMSLOT> >::_Destroy
; Function compile flags: /Ogsp
;	COMDAT ?_Destroy@?$vector@UEXTRAITEMSLOT@@V?$allocator@UEXTRAITEMSLOT@@@std@@@std@@IAEXPAUEXTRAITEMSLOT@@0@Z
_TEXT	SEGMENT
__First$ = 8						; size = 4
__Last$ = 12						; size = 4
?_Destroy@?$vector@UEXTRAITEMSLOT@@V?$allocator@UEXTRAITEMSLOT@@@std@@@std@@IAEXPAUEXTRAITEMSLOT@@0@Z PROC ; std::vector<EXTRAITEMSLOT,std::allocator<EXTRAITEMSLOT> >::_Destroy, COMDAT
; _this$ = ecx

; 1269 : 		{	// destroy [_First, _Last) using allocator

  00000	55		 push	 ebp
  00001	8b ec		 mov	 ebp, esp
  00003	56		 push	 esi

; 1270 : 		_Destroy_range(_First, _Last, this->_Alval);

  00004	8b 75 08	 mov	 esi, DWORD PTR __First$[ebp]
  00007	eb 0a		 jmp	 SHORT $LN23@Destroy
$LL9@Destroy:
  00009	8b ce		 mov	 ecx, esi
  0000b	e8 00 00 00 00	 call	 ??1EXTRAITEMSLOT@@QAE@XZ
  00010	83 c6 48	 add	 esi, 72			; 00000048H
$LN23@Destroy:
  00013	3b 75 0c	 cmp	 esi, DWORD PTR __Last$[ebp]
  00016	75 f1		 jne	 SHORT $LL9@Destroy
  00018	5e		 pop	 esi

; 1271 : 		}

  00019	5d		 pop	 ebp
  0001a	c2 08 00	 ret	 8
?_Destroy@?$vector@UEXTRAITEMSLOT@@V?$allocator@UEXTRAITEMSLOT@@@std@@@std@@IAEXPAUEXTRAITEMSLOT@@0@Z ENDP ; std::vector<EXTRAITEMSLOT,std::allocator<EXTRAITEMSLOT> >::_Destroy
_TEXT	ENDS
PUBLIC	?reserve@?$vector@UPowerupListInfo@@V?$allocator@UPowerupListInfo@@@std@@@std@@QAEXI@Z ; std::vector<PowerupListInfo,std::allocator<PowerupListInfo> >::reserve
;	COMDAT xdata$x
; File c:\program files (x86)\microsoft visual studio 10.0\vc\include\xmemory
xdata$x	SEGMENT
__catchsym$?reserve@?$vector@UPowerupListInfo@@V?$allocator@UPowerupListInfo@@@std@@@std@@QAEXI@Z$2 DD 040H
	DD	00H
	DD	00H
	DD	FLAT:__catch$?reserve@?$vector@UPowerupListInfo@@V?$allocator@UPowerupListInfo@@@std@@@std@@QAEXI@Z$0
__unwindtable$?reserve@?$vector@UPowerupListInfo@@V?$allocator@UPowerupListInfo@@@std@@@std@@QAEXI@Z DD 0ffffffffH
	DD	00H
	DD	0ffffffffH
	DD	00H
__tryblocktable$?reserve@?$vector@UPowerupListInfo@@V?$allocator@UPowerupListInfo@@@std@@@std@@QAEXI@Z DD 00H
	DD	00H
	DD	01H
	DD	01H
	DD	FLAT:__catchsym$?reserve@?$vector@UPowerupListInfo@@V?$allocator@UPowerupListInfo@@@std@@@std@@QAEXI@Z$2
__ehfuncinfo$?reserve@?$vector@UPowerupListInfo@@V?$allocator@UPowerupListInfo@@@std@@@std@@QAEXI@Z DD 019930522H
	DD	02H
	DD	FLAT:__unwindtable$?reserve@?$vector@UPowerupListInfo@@V?$allocator@UPowerupListInfo@@@std@@@std@@QAEXI@Z
	DD	01H
	DD	FLAT:__tryblocktable$?reserve@?$vector@UPowerupListInfo@@V?$allocator@UPowerupListInfo@@@std@@@std@@QAEXI@Z
	DD	2 DUP(00H)
	DD	00H
	DD	01H
; Function compile flags: /Ogsp
; File c:\program files (x86)\microsoft visual studio 10.0\vc\include\vector
xdata$x	ENDS
;	COMDAT ?reserve@?$vector@UPowerupListInfo@@V?$allocator@UPowerupListInfo@@@std@@@std@@QAEXI@Z
_TEXT	SEGMENT
__$EHRec$ = -16						; size = 16
__Ptr$510605 = 8					; size = 4
__Count$ = 8						; size = 4
?reserve@?$vector@UPowerupListInfo@@V?$allocator@UPowerupListInfo@@@std@@@std@@QAEXI@Z PROC ; std::vector<PowerupListInfo,std::allocator<PowerupListInfo> >::reserve, COMDAT
; _this$ = ecx

; 746  : 		{	// determine new minimum length of allocated storage

  00000	6a 04		 push	 4
  00002	b8 00 00 00 00	 mov	 eax, __ehhandler$?reserve@?$vector@UPowerupListInfo@@V?$allocator@UPowerupListInfo@@@std@@@std@@QAEXI@Z
  00007	e8 00 00 00 00	 call	 __EH_prolog3_catch
  0000c	8b f1		 mov	 esi, ecx

; 747  : 		if (max_size() < _Count)

  0000e	8b 5d 08	 mov	 ebx, DWORD PTR __Count$[ebp]
  00011	81 fb 55 55 55
	15		 cmp	 ebx, 357913941		; 15555555H
  00017	76 0b		 jbe	 SHORT $LN5@reserve

; 748  : 			_Xlen();	// result too long

  00019	68 00 00 00 00	 push	 OFFSET ??_C@_0BD@OLBABOEK@vector?$DMT?$DO?5too?5long?$AA@
  0001e	ff 15 00 00 00
	00		 call	 DWORD PTR __imp_?_Xlength_error@std@@YAXPBD@Z
$LN56@reserve:
$LN5@reserve:

; 749  : 		else if (capacity() < _Count)

  00024	8b 46 08	 mov	 eax, DWORD PTR [esi+8]
  00027	2b 06		 sub	 eax, DWORD PTR [esi]
  00029	6a 0c		 push	 12			; 0000000cH
  0002b	99		 cdq
  0002c	59		 pop	 ecx
  0002d	f7 f9		 idiv	 ecx
  0002f	3b c3		 cmp	 eax, ebx
  00031	73 6b		 jae	 SHORT $LN3@reserve

; 750  : 			{	// not enough room, reallocate
; 751  : 			pointer _Ptr = this->_Alval.allocate(_Count);

  00033	6a 00		 push	 0
  00035	53		 push	 ebx
  00036	e8 00 00 00 00	 call	 ??$_Allocate@UPowerupListInfo@@@std@@YAPAUPowerupListInfo@@IPAU1@@Z ; std::_Allocate<PowerupListInfo>

; 752  : 
; 753  : 			_TRY_BEGIN
; 754  : 			_Umove(this->_Myfirst, this->_Mylast, _Ptr);

  0003b	8b 0e		 mov	 ecx, DWORD PTR [esi]
  0003d	83 65 fc 00	 and	 DWORD PTR __$EHRec$[ebp+12], 0
  00041	8d 56 0c	 lea	 edx, DWORD PTR [esi+12]
  00044	52		 push	 edx
  00045	89 45 08	 mov	 DWORD PTR __Ptr$510605[ebp], eax
  00048	ff 75 08	 push	 DWORD PTR __Ptr$510605[ebp]
  0004b	8b 46 04	 mov	 eax, DWORD PTR [esi+4]
  0004e	50		 push	 eax
  0004f	51		 push	 ecx
  00050	e8 00 00 00 00	 call	 ??$_Uninitialized_move@PAUPowerupListInfo@@PAU1@V?$allocator@UPowerupListInfo@@@std@@@std@@YAPAUPowerupListInfo@@PAU1@00AAV?$allocator@UPowerupListInfo@@@0@@Z ; std::_Uninitialized_move<PowerupListInfo *,PowerupListInfo *,std::allocator<PowerupListInfo> >

; 758  : 			_CATCH_END
; 759  : 
; 760  : 			size_type _Size = size();

  00055	8b 0e		 mov	 ecx, DWORD PTR [esi]
  00057	8b 46 04	 mov	 eax, DWORD PTR [esi+4]
  0005a	83 c4 18	 add	 esp, 24			; 00000018H
  0005d	2b c1		 sub	 eax, ecx
  0005f	6a 0c		 push	 12			; 0000000cH
  00061	99		 cdq
  00062	5f		 pop	 edi
  00063	f7 ff		 idiv	 edi
  00065	83 4d fc ff	 or	 DWORD PTR __$EHRec$[ebp+12], -1
  00069	8b f8		 mov	 edi, eax
  0006b	85 c9		 test	 ecx, ecx
  0006d	74 12		 je	 SHORT $LN48@reserve

; 761  : 			if (this->_Myfirst != 0)

  0006f	eb 03		 jmp	 SHORT $LN55@reserve

; 762  : 				{	// destroy and deallocate old array
; 763  : 				_Destroy(this->_Myfirst, this->_Mylast);

$LL39@reserve:
  00071	83 c1 0c	 add	 ecx, 12			; 0000000cH
$LN55@reserve:
  00074	3b 4e 04	 cmp	 ecx, DWORD PTR [esi+4]
  00077	75 f8		 jne	 SHORT $LL39@reserve

; 764  : 				this->_Alval.deallocate(this->_Myfirst,
; 765  : 					this->_Myend - this->_Myfirst);

  00079	ff 36		 push	 DWORD PTR [esi]
  0007b	e8 00 00 00 00	 call	 ??3@YAXPAX@Z		; operator delete
  00080	59		 pop	 ecx
$LN48@reserve:

; 766  : 				}
; 767  : 
; 768  : 			this->_Orphan_all();

  00081	8b ce		 mov	 ecx, esi
  00083	ff 15 00 00 00
	00		 call	 DWORD PTR __imp_?_Orphan_all@_Container_base0@std@@QAEXXZ

; 769  : 			this->_Myend = _Ptr + _Count;

  00089	6b db 0c	 imul	 ebx, 12			; 0000000cH

; 770  : 			this->_Mylast = _Ptr + _Size;

  0008c	6b ff 0c	 imul	 edi, 12			; 0000000cH
  0008f	8b 45 08	 mov	 eax, DWORD PTR __Ptr$510605[ebp]
  00092	03 d8		 add	 ebx, eax
  00094	03 f8		 add	 edi, eax
  00096	89 5e 08	 mov	 DWORD PTR [esi+8], ebx
  00099	89 7e 04	 mov	 DWORD PTR [esi+4], edi

; 771  : 			this->_Myfirst = _Ptr;

  0009c	89 06		 mov	 DWORD PTR [esi], eax
$LN3@reserve:

; 772  : 			}
; 773  : 		}

  0009e	e8 00 00 00 00	 call	 __EH_epilog3
  000a3	c2 04 00	 ret	 4
__catch$?reserve@?$vector@UPowerupListInfo@@V?$allocator@UPowerupListInfo@@@std@@@std@@QAEXI@Z$0:

; 755  : 			_CATCH_ALL
; 756  : 			this->_Alval.deallocate(_Ptr, _Count);

  000a6	ff 75 08	 push	 DWORD PTR __Ptr$510605[ebp]
  000a9	e8 00 00 00 00	 call	 ??3@YAXPAX@Z		; operator delete
  000ae	59		 pop	 ecx

; 757  : 			_RERAISE;

  000af	6a 00		 push	 0
  000b1	6a 00		 push	 0
  000b3	e8 00 00 00 00	 call	 __CxxThrowException@8
$LN57@reserve:
$LN54@reserve:
  000b8	cc		 int	 3
_TEXT	ENDS
;	COMDAT text$x
text$x	SEGMENT
__ehhandler$?reserve@?$vector@UPowerupListInfo@@V?$allocator@UPowerupListInfo@@@std@@@std@@QAEXI@Z:
  00000	8b 54 24 08	 mov	 edx, DWORD PTR [esp+8]
  00004	8d 42 0c	 lea	 eax, DWORD PTR [edx+12]
  00007	8b 4a ec	 mov	 ecx, DWORD PTR [edx-20]
  0000a	33 c8		 xor	 ecx, eax
  0000c	e8 00 00 00 00	 call	 @__security_check_cookie@4
  00011	b8 00 00 00 00	 mov	 eax, OFFSET __ehfuncinfo$?reserve@?$vector@UPowerupListInfo@@V?$allocator@UPowerupListInfo@@@std@@@std@@QAEXI@Z
  00016	e9 00 00 00 00	 jmp	 ___CxxFrameHandler3
text$x	ENDS
?reserve@?$vector@UPowerupListInfo@@V?$allocator@UPowerupListInfo@@@std@@@std@@QAEXI@Z ENDP ; std::vector<PowerupListInfo,std::allocator<PowerupListInfo> >::reserve
PUBLIC	??$_Sort@PAUPowerupListInfo@@HVEnablePowerupListSort@@@std@@YAXPAUPowerupListInfo@@0HVEnablePowerupListSort@@@Z ; std::_Sort<PowerupListInfo *,int,EnablePowerupListSort>
; Function compile flags: /Ogsp
; File c:\program files (x86)\microsoft visual studio 10.0\vc\include\algorithm
;	COMDAT ??$_Sort@PAUPowerupListInfo@@HVEnablePowerupListSort@@@std@@YAXPAUPowerupListInfo@@0HVEnablePowerupListSort@@@Z
_TEXT	SEGMENT
__Mid$512161 = -8					; size = 8
__First$ = 8						; size = 4
__Last$ = 12						; size = 4
__Ideal$ = 16						; size = 4
__Pred$ = 20						; size = 1
??$_Sort@PAUPowerupListInfo@@HVEnablePowerupListSort@@@std@@YAXPAUPowerupListInfo@@0HVEnablePowerupListSort@@@Z PROC ; std::_Sort<PowerupListInfo *,int,EnablePowerupListSort>, COMDAT

; 3771 : 	{	// order [_First, _Last), using _Pred

  00000	55		 push	 ebp
  00001	8b ec		 mov	 ebp, esp
  00003	51		 push	 ecx
  00004	51		 push	 ecx
  00005	53		 push	 ebx

; 3772 : 	_Diff _Count;
; 3773 : 	for (; _ISORT_MAX < (_Count = _Last - _First) && 0 < _Ideal; )

  00006	8b 5d 08	 mov	 ebx, DWORD PTR __First$[ebp]
  00009	57		 push	 edi
  0000a	8b 7d 0c	 mov	 edi, DWORD PTR __Last$[ebp]
  0000d	8b c7		 mov	 eax, edi
  0000f	2b c3		 sub	 eax, ebx
  00011	6a 0c		 push	 12			; 0000000cH
  00013	99		 cdq
  00014	59		 pop	 ecx
  00015	f7 f9		 idiv	 ecx
  00017	83 f8 20	 cmp	 eax, 32			; 00000020H
  0001a	0f 8e 9c 00 00
	00		 jle	 $LN22@Sort
  00020	56		 push	 esi
  00021	8b 75 10	 mov	 esi, DWORD PTR __Ideal$[ebp]
$LL7@Sort:
  00024	85 f6		 test	 esi, esi
  00026	7e 75		 jle	 SHORT $LN6@Sort

; 3774 : 		{	// divide and conquer by quicksort
; 3775 : 		_STD pair<_RanIt, _RanIt> _Mid =
; 3776 : 			_Unguarded_partition(_First, _Last, _Pred);

  00028	ff 75 14	 push	 DWORD PTR __Pred$[ebp]
  0002b	8d 45 f8	 lea	 eax, DWORD PTR __Mid$512161[ebp]
  0002e	57		 push	 edi
  0002f	53		 push	 ebx
  00030	50		 push	 eax
  00031	e8 00 00 00 00	 call	 ??$_Unguarded_partition@PAUPowerupListInfo@@VEnablePowerupListSort@@@std@@YA?AU?$pair@PAUPowerupListInfo@@PAU1@@0@PAUPowerupListInfo@@0VEnablePowerupListSort@@@Z ; std::_Unguarded_partition<PowerupListInfo *,EnablePowerupListSort>

; 3777 : 		_Ideal /= 2, _Ideal += _Ideal / 2;	// allow 1.5 log2(N) divisions

  00036	8b c6		 mov	 eax, esi
  00038	99		 cdq
  00039	2b c2		 sub	 eax, edx
  0003b	d1 f8		 sar	 eax, 1
  0003d	8b f0		 mov	 esi, eax
  0003f	99		 cdq
  00040	2b c2		 sub	 eax, edx
  00042	d1 f8		 sar	 eax, 1
  00044	03 f0		 add	 esi, eax
  00046	83 c4 10	 add	 esp, 16			; 00000010H

; 3778 : 
; 3779 : 		if (_Mid.first - _First < _Last - _Mid.second)

  00049	8b c7		 mov	 eax, edi
  0004b	2b 45 fc	 sub	 eax, DWORD PTR __Mid$512161[ebp+4]
  0004e	6a 0c		 push	 12			; 0000000cH
  00050	99		 cdq
  00051	59		 pop	 ecx
  00052	f7 f9		 idiv	 ecx
  00054	6a 0c		 push	 12			; 0000000cH
  00056	8b c8		 mov	 ecx, eax
  00058	8b 45 f8	 mov	 eax, DWORD PTR __Mid$512161[ebp]
  0005b	2b c3		 sub	 eax, ebx
  0005d	5b		 pop	 ebx
  0005e	99		 cdq
  0005f	f7 fb		 idiv	 ebx

; 3780 : 			{	// loop on second half
; 3781 : 			_Sort(_First, _Mid.first, _Ideal, _Pred);

  00061	ff 75 14	 push	 DWORD PTR __Pred$[ebp]
  00064	56		 push	 esi
  00065	3b c1		 cmp	 eax, ecx
  00067	7d 13		 jge	 SHORT $LN5@Sort
  00069	ff 75 f8	 push	 DWORD PTR __Mid$512161[ebp]
  0006c	ff 75 08	 push	 DWORD PTR __First$[ebp]
  0006f	e8 00 00 00 00	 call	 ??$_Sort@PAUPowerupListInfo@@HVEnablePowerupListSort@@@std@@YAXPAUPowerupListInfo@@0HVEnablePowerupListSort@@@Z ; std::_Sort<PowerupListInfo *,int,EnablePowerupListSort>

; 3782 : 			_First = _Mid.second;

  00074	8b 5d fc	 mov	 ebx, DWORD PTR __Mid$512161[ebp+4]
  00077	89 5d 08	 mov	 DWORD PTR __First$[ebp], ebx

; 3783 : 			}
; 3784 : 		else

  0007a	eb 0f		 jmp	 SHORT $LN23@Sort
$LN5@Sort:

; 3785 : 			{	// loop on first half
; 3786 : 			_Sort(_Mid.second, _Last, _Ideal, _Pred);

  0007c	57		 push	 edi
  0007d	ff 75 fc	 push	 DWORD PTR __Mid$512161[ebp+4]
  00080	e8 00 00 00 00	 call	 ??$_Sort@PAUPowerupListInfo@@HVEnablePowerupListSort@@@std@@YAXPAUPowerupListInfo@@0HVEnablePowerupListSort@@@Z ; std::_Sort<PowerupListInfo *,int,EnablePowerupListSort>

; 3787 : 			_Last = _Mid.first;

  00085	8b 7d f8	 mov	 edi, DWORD PTR __Mid$512161[ebp]
  00088	8b 5d 08	 mov	 ebx, DWORD PTR __First$[ebp]
$LN23@Sort:

; 3772 : 	_Diff _Count;
; 3773 : 	for (; _ISORT_MAX < (_Count = _Last - _First) && 0 < _Ideal; )

  0008b	83 c4 10	 add	 esp, 16			; 00000010H
  0008e	8b c7		 mov	 eax, edi
  00090	2b c3		 sub	 eax, ebx
  00092	6a 0c		 push	 12			; 0000000cH
  00094	99		 cdq
  00095	59		 pop	 ecx
  00096	f7 f9		 idiv	 ecx
  00098	83 f8 20	 cmp	 eax, 32			; 00000020H
  0009b	7f 87		 jg	 SHORT $LL7@Sort
$LN6@Sort:
  0009d	5e		 pop	 esi

; 3788 : 			}
; 3789 : 		}
; 3790 : 
; 3791 : 	if (_ISORT_MAX < _Count)

  0009e	83 f8 20	 cmp	 eax, 32			; 00000020H
  000a1	7e 19		 jle	 SHORT $LN22@Sort

; 3792 : 		{	// heap sort if too many divisions
; 3793 : 		_STD make_heap(_First, _Last, _Pred);

  000a3	ff 75 14	 push	 DWORD PTR __Pred$[ebp]
  000a6	57		 push	 edi
  000a7	53		 push	 ebx
  000a8	e8 00 00 00 00	 call	 ??$make_heap@PAUPowerupListInfo@@VEnablePowerupListSort@@@std@@YAXPAUPowerupListInfo@@0VEnablePowerupListSort@@@Z ; std::make_heap<PowerupListInfo *,EnablePowerupListSort>

; 3794 : 		_STD sort_heap(_First, _Last, _Pred);

  000ad	ff 75 14	 push	 DWORD PTR __Pred$[ebp]
  000b0	57		 push	 edi
  000b1	53		 push	 ebx
  000b2	e8 00 00 00 00	 call	 ??$_Sort_heap@PAUPowerupListInfo@@VEnablePowerupListSort@@@std@@YAXPAUPowerupListInfo@@0VEnablePowerupListSort@@@Z ; std::_Sort_heap<PowerupListInfo *,EnablePowerupListSort>
  000b7	83 c4 18	 add	 esp, 24			; 00000018H
  000ba	eb 14		 jmp	 SHORT $LN16@Sort
$LN22@Sort:

; 3795 : 		}
; 3796 : 	else if (1 < _Count)

  000bc	83 f8 01	 cmp	 eax, 1
  000bf	7e 0f		 jle	 SHORT $LN16@Sort

; 3797 : 		_Insertion_sort(_First, _Last, _Pred);	// small

  000c1	6a 00		 push	 0
  000c3	ff 75 14	 push	 DWORD PTR __Pred$[ebp]
  000c6	57		 push	 edi
  000c7	53		 push	 ebx
  000c8	e8 00 00 00 00	 call	 ??$_Insertion_sort1@PAUPowerupListInfo@@VEnablePowerupListSort@@U1@@std@@YAXPAUPowerupListInfo@@0VEnablePowerupListSort@@0@Z ; std::_Insertion_sort1<PowerupListInfo *,EnablePowerupListSort,PowerupListInfo>
  000cd	83 c4 10	 add	 esp, 16			; 00000010H
$LN16@Sort:
  000d0	5f		 pop	 edi
  000d1	5b		 pop	 ebx

; 3798 : 	}

  000d2	c9		 leave
  000d3	c3		 ret	 0
??$_Sort@PAUPowerupListInfo@@HVEnablePowerupListSort@@@std@@YAXPAUPowerupListInfo@@0HVEnablePowerupListSort@@@Z ENDP ; std::_Sort<PowerupListInfo *,int,EnablePowerupListSort>
_TEXT	ENDS
PUBLIC	??$construct@AAV?$basic_string@DU?$char_traits@D@std@@V?$allocator@D@2@@std@@@?$allocator@V?$basic_string@DU?$char_traits@D@std@@V?$allocator@D@2@@std@@@std@@QAEXPAV?$basic_string@DU?$char_traits@D@std@@V?$allocator@D@2@@1@AAV21@@Z ; std::allocator<std::basic_string<char,std::char_traits<char>,std::allocator<char> > >::construct<std::basic_string<char,std::char_traits<char>,std::allocator<char> > &>
;	COMDAT xdata$x
; File c:\program files (x86)\microsoft visual studio 10.0\vc\include\utility
xdata$x	SEGMENT
__unwindtable$??$construct@AAV?$basic_string@DU?$char_traits@D@std@@V?$allocator@D@2@@std@@@?$allocator@V?$basic_string@DU?$char_traits@D@std@@V?$allocator@D@2@@std@@@std@@QAEXPAV?$basic_string@DU?$char_traits@D@std@@V?$allocator@D@2@@1@AAV21@@Z DD 0ffffffffH
	DD	FLAT:__unwindfunclet$??$construct@AAV?$basic_string@DU?$char_traits@D@std@@V?$allocator@D@2@@std@@@?$allocator@V?$basic_string@DU?$char_traits@D@std@@V?$allocator@D@2@@std@@@std@@QAEXPAV?$basic_string@DU?$char_traits@D@std@@V?$allocator@D@2@@1@AAV21@@Z$0
__ehfuncinfo$??$construct@AAV?$basic_string@DU?$char_traits@D@std@@V?$allocator@D@2@@std@@@?$allocator@V?$basic_string@DU?$char_traits@D@std@@V?$allocator@D@2@@std@@@std@@QAEXPAV?$basic_string@DU?$char_traits@D@std@@V?$allocator@D@2@@1@AAV21@@Z DD 019930522H
	DD	01H
	DD	FLAT:__unwindtable$??$construct@AAV?$basic_string@DU?$char_traits@D@std@@V?$allocator@D@2@@std@@@?$allocator@V?$basic_string@DU?$char_traits@D@std@@V?$allocator@D@2@@std@@@std@@QAEXPAV?$basic_string@DU?$char_traits@D@std@@V?$allocator@D@2@@1@AAV21@@Z
	DD	2 DUP(00H)
	DD	2 DUP(00H)
	DD	00H
	DD	01H
; Function compile flags: /Ogsp
; File c:\program files (x86)\microsoft visual studio 10.0\vc\include\xmemory
xdata$x	ENDS
;	COMDAT ??$construct@AAV?$basic_string@DU?$char_traits@D@std@@V?$allocator@D@2@@std@@@?$allocator@V?$basic_string@DU?$char_traits@D@std@@V?$allocator@D@2@@std@@@std@@QAEXPAV?$basic_string@DU?$char_traits@D@std@@V?$allocator@D@2@@1@AAV21@@Z
_TEXT	SEGMENT
$T517646 = -16						; size = 4
__$EHRec$ = -12						; size = 12
__Ptr$ = 8						; size = 4
__Val$ = 12						; size = 4
??$construct@AAV?$basic_string@DU?$char_traits@D@std@@V?$allocator@D@2@@std@@@?$allocator@V?$basic_string@DU?$char_traits@D@std@@V?$allocator@D@2@@std@@@std@@QAEXPAV?$basic_string@DU?$char_traits@D@std@@V?$allocator@D@2@@1@AAV21@@Z PROC ; std::allocator<std::basic_string<char,std::char_traits<char>,std::allocator<char> > >::construct<std::basic_string<char,std::char_traits<char>,std::allocator<char> > &>, COMDAT
; _this$ = ecx

; 206  : 		void construct(pointer _Ptr, _Other&& _Val)

  00000	6a 04		 push	 4
  00002	b8 00 00 00 00	 mov	 eax, __ehhandler$??$construct@AAV?$basic_string@DU?$char_traits@D@std@@V?$allocator@D@2@@std@@@?$allocator@V?$basic_string@DU?$char_traits@D@std@@V?$allocator@D@2@@std@@@std@@QAEXPAV?$basic_string@DU?$char_traits@D@std@@V?$allocator@D@2@@1@AAV21@@Z
  00007	e8 00 00 00 00	 call	 __EH_prolog3

; 207  : 		{	// construct object at _Ptr with value _Val
; 208  : 		::new ((void _FARQ *)_Ptr) _Ty(_STD forward<_Other>(_Val));

  0000c	8b 4d 08	 mov	 ecx, DWORD PTR __Ptr$[ebp]
  0000f	89 4d f0	 mov	 DWORD PTR $T517646[ebp], ecx
  00012	83 65 fc 00	 and	 DWORD PTR __$EHRec$[ebp+8], 0
  00016	85 c9		 test	 ecx, ecx
  00018	74 08		 je	 SHORT $LN3@construct@5
  0001a	ff 75 0c	 push	 DWORD PTR __Val$[ebp]
  0001d	e8 00 00 00 00	 call	 ??0?$basic_string@DU?$char_traits@D@std@@V?$allocator@D@2@@std@@QAE@ABV01@@Z ; std::basic_string<char,std::char_traits<char>,std::allocator<char> >::basic_string<char,std::char_traits<char>,std::allocator<char> >
$LN3@construct@5:

; 209  : 		}

  00022	e8 00 00 00 00	 call	 __EH_epilog3
  00027	c2 08 00	 ret	 8
_TEXT	ENDS
;	COMDAT text$x
text$x	SEGMENT
__unwindfunclet$??$construct@AAV?$basic_string@DU?$char_traits@D@std@@V?$allocator@D@2@@std@@@?$allocator@V?$basic_string@DU?$char_traits@D@std@@V?$allocator@D@2@@std@@@std@@QAEXPAV?$basic_string@DU?$char_traits@D@std@@V?$allocator@D@2@@1@AAV21@@Z$0:
  00000	ff 75 08	 push	 DWORD PTR __Ptr$[ebp]
  00003	ff 75 f0	 push	 DWORD PTR $T517646[ebp]
  00006	e8 00 00 00 00	 call	 ??3@YAXPAX0@Z		; operator delete
  0000b	59		 pop	 ecx
  0000c	59		 pop	 ecx
  0000d	c3		 ret	 0
__ehhandler$??$construct@AAV?$basic_string@DU?$char_traits@D@std@@V?$allocator@D@2@@std@@@?$allocator@V?$basic_string@DU?$char_traits@D@std@@V?$allocator@D@2@@std@@@std@@QAEXPAV?$basic_string@DU?$char_traits@D@std@@V?$allocator@D@2@@1@AAV21@@Z:
  0000e	8b 54 24 08	 mov	 edx, DWORD PTR [esp+8]
  00012	8d 42 0c	 lea	 eax, DWORD PTR [edx+12]
  00015	8b 4a ec	 mov	 ecx, DWORD PTR [edx-20]
  00018	33 c8		 xor	 ecx, eax
  0001a	e8 00 00 00 00	 call	 @__security_check_cookie@4
  0001f	b8 00 00 00 00	 mov	 eax, OFFSET __ehfuncinfo$??$construct@AAV?$basic_string@DU?$char_traits@D@std@@V?$allocator@D@2@@std@@@?$allocator@V?$basic_string@DU?$char_traits@D@std@@V?$allocator@D@2@@std@@@std@@QAEXPAV?$basic_string@DU?$char_traits@D@std@@V?$allocator@D@2@@1@AAV21@@Z
  00024	e9 00 00 00 00	 jmp	 ___CxxFrameHandler3
text$x	ENDS
??$construct@AAV?$basic_string@DU?$char_traits@D@std@@V?$allocator@D@2@@std@@@?$allocator@V?$basic_string@DU?$char_traits@D@std@@V?$allocator@D@2@@std@@@std@@QAEXPAV?$basic_string@DU?$char_traits@D@std@@V?$allocator@D@2@@1@AAV21@@Z ENDP ; std::allocator<std::basic_string<char,std::char_traits<char>,std::allocator<char> > >::construct<std::basic_string<char,std::char_traits<char>,std::allocator<char> > &>
PUBLIC	??0?$basic_string@DU?$char_traits@D@std@@V?$allocator@D@2@@std@@QAE@PBD@Z ; std::basic_string<char,std::char_traits<char>,std::allocator<char> >::basic_string<char,std::char_traits<char>,std::allocator<char> >
; Function compile flags: /Ogsp
; File c:\program files (x86)\microsoft visual studio 10.0\vc\include\xstring
;	COMDAT ??0?$basic_string@DU?$char_traits@D@std@@V?$allocator@D@2@@std@@QAE@PBD@Z
_TEXT	SEGMENT
__Ptr$ = 8						; size = 4
??0?$basic_string@DU?$char_traits@D@std@@V?$allocator@D@2@@std@@QAE@PBD@Z PROC ; std::basic_string<char,std::char_traits<char>,std::allocator<char> >::basic_string<char,std::char_traits<char>,std::allocator<char> >, COMDAT
; _this$ = ecx

; 592  : 		{	// construct from [_Ptr, <null>)

  00000	55		 push	 ebp
  00001	8b ec		 mov	 ebp, esp
  00003	56		 push	 esi

; 593  : 		_Tidy();
; 594  : 		assign(_Ptr);

  00004	ff 75 08	 push	 DWORD PTR __Ptr$[ebp]
  00007	8b f1		 mov	 esi, ecx
  00009	83 66 10 00	 and	 DWORD PTR [esi+16], 0
  0000d	c7 46 14 0f 00
	00 00		 mov	 DWORD PTR [esi+20], 15	; 0000000fH
  00014	c6 06 00	 mov	 BYTE PTR [esi], 0
  00017	e8 00 00 00 00	 call	 ?assign@?$basic_string@DU?$char_traits@D@std@@V?$allocator@D@2@@std@@QAEAAV12@PBD@Z ; std::basic_string<char,std::char_traits<char>,std::allocator<char> >::assign

; 595  : 		}

  0001c	8b c6		 mov	 eax, esi
  0001e	5e		 pop	 esi
  0001f	5d		 pop	 ebp
  00020	c2 04 00	 ret	 4
??0?$basic_string@DU?$char_traits@D@std@@V?$allocator@D@2@@std@@QAE@PBD@Z ENDP ; std::basic_string<char,std::char_traits<char>,std::allocator<char> >::basic_string<char,std::char_traits<char>,std::allocator<char> >
_TEXT	ENDS
PUBLIC	??4?$basic_string@DU?$char_traits@D@std@@V?$allocator@D@2@@std@@QAEAAV01@ABV01@@Z ; std::basic_string<char,std::char_traits<char>,std::allocator<char> >::operator=
; Function compile flags: /Ogsp
;	COMDAT ??4?$basic_string@DU?$char_traits@D@std@@V?$allocator@D@2@@std@@QAEAAV01@ABV01@@Z
_TEXT	SEGMENT
__Right$ = 8						; size = 4
??4?$basic_string@DU?$char_traits@D@std@@V?$allocator@D@2@@std@@QAEAAV01@ABV01@@Z PROC ; std::basic_string<char,std::char_traits<char>,std::allocator<char> >::operator=, COMDAT
; _this$ = ecx

; 763  : 		{	// assign _Right

  00000	55		 push	 ebp
  00001	8b ec		 mov	 ebp, esp

; 764  : 		return (assign(_Right));

  00003	6a ff		 push	 -1
  00005	6a 00		 push	 0
  00007	ff 75 08	 push	 DWORD PTR __Right$[ebp]
  0000a	e8 00 00 00 00	 call	 ?assign@?$basic_string@DU?$char_traits@D@std@@V?$allocator@D@2@@std@@QAEAAV12@ABV12@II@Z ; std::basic_string<char,std::char_traits<char>,std::allocator<char> >::assign

; 765  : 		}

  0000f	5d		 pop	 ebp
  00010	c2 04 00	 ret	 4
??4?$basic_string@DU?$char_traits@D@std@@V?$allocator@D@2@@std@@QAEAAV01@ABV01@@Z ENDP ; std::basic_string<char,std::char_traits<char>,std::allocator<char> >::operator=
_TEXT	ENDS
PUBLIC	?assign@?$basic_string@DU?$char_traits@D@std@@V?$allocator@D@2@@std@@QAEAAV12@$$QAV12@@Z ; std::basic_string<char,std::char_traits<char>,std::allocator<char> >::assign
; Function compile flags: /Ogsp
;	COMDAT ?assign@?$basic_string@DU?$char_traits@D@std@@V?$allocator@D@2@@std@@QAEAAV12@$$QAV12@@Z
_TEXT	SEGMENT
__Right$ = 8						; size = 4
?assign@?$basic_string@DU?$char_traits@D@std@@V?$allocator@D@2@@std@@QAEAAV12@$$QAV12@@Z PROC ; std::basic_string<char,std::char_traits<char>,std::allocator<char> >::assign, COMDAT
; _this$ = ecx

; 713  : 		{	// assign by moving _Right

  00000	55		 push	 ebp
  00001	8b ec		 mov	 ebp, esp
  00003	56		 push	 esi

; 714  : 		if (this == &_Right)

  00004	8b 75 08	 mov	 esi, DWORD PTR __Right$[ebp]
  00007	57		 push	 edi
  00008	8b f9		 mov	 edi, ecx
  0000a	3b fe		 cmp	 edi, esi
  0000c	74 3c		 je	 SHORT $LN3@assign@4

; 715  : 			;
; 716  : 		else if (get_allocator() != _Right.get_allocator()
; 717  : 			&& this->_BUF_SIZE <= _Right._Myres)
; 718  : 			*this = _Right;
; 719  : 		else
; 720  : 			{	// not same, clear this and steal from _Right
; 721  : 			_Tidy(true);

  0000e	6a 00		 push	 0
  00010	6a 01		 push	 1
  00012	e8 00 00 00 00	 call	 ?_Tidy@?$basic_string@DU?$char_traits@D@std@@V?$allocator@D@2@@std@@QAEX_NI@Z ; std::basic_string<char,std::char_traits<char>,std::allocator<char> >::_Tidy

; 722  : 			if (_Right._Myres < this->_BUF_SIZE)

  00017	83 7e 14 10	 cmp	 DWORD PTR [esi+20], 16	; 00000010H
  0001b	73 12		 jae	 SHORT $LN2@assign@4

; 723  : 				_Traits::move(this->_Bx._Buf, _Right._Bx._Buf,
; 724  : 					_Right._Mysize + 1);

  0001d	8b 46 10	 mov	 eax, DWORD PTR [esi+16]
  00020	40		 inc	 eax
  00021	50		 push	 eax
  00022	56		 push	 esi
  00023	57		 push	 edi
  00024	ff 15 00 00 00
	00		 call	 DWORD PTR __imp__memmove
  0002a	83 c4 0c	 add	 esp, 12			; 0000000cH

; 725  : 			else

  0002d	eb 07		 jmp	 SHORT $LN1@assign@4
$LN2@assign@4:

; 726  : 				{	// copy pointer
; 727  : 				this->_Bx._Ptr = _Right._Bx._Ptr;

  0002f	8b 06		 mov	 eax, DWORD PTR [esi]
  00031	89 07		 mov	 DWORD PTR [edi], eax

; 728  : 				_Right._Bx._Ptr = 0;

  00033	83 26 00	 and	 DWORD PTR [esi], 0
$LN1@assign@4:

; 729  : 				}
; 730  : 			this->_Mysize = _Right._Mysize;

  00036	8b 46 10	 mov	 eax, DWORD PTR [esi+16]
  00039	89 47 10	 mov	 DWORD PTR [edi+16], eax

; 731  : 			this->_Myres = _Right._Myres;

  0003c	8b 46 14	 mov	 eax, DWORD PTR [esi+20]
  0003f	89 47 14	 mov	 DWORD PTR [edi+20], eax

; 732  : 
; 733  : 			_Right._Mysize = 0;

  00042	83 66 10 00	 and	 DWORD PTR [esi+16], 0

; 734  : 			_Right._Myres = 0;

  00046	83 66 14 00	 and	 DWORD PTR [esi+20], 0
$LN3@assign@4:

; 735  : 			}
; 736  : 		return (*this);

  0004a	8b c7		 mov	 eax, edi
  0004c	5f		 pop	 edi
  0004d	5e		 pop	 esi

; 737  : 		}

  0004e	5d		 pop	 ebp
  0004f	c2 04 00	 ret	 4
?assign@?$basic_string@DU?$char_traits@D@std@@V?$allocator@D@2@@std@@QAEAAV12@$$QAV12@@Z ENDP ; std::basic_string<char,std::char_traits<char>,std::allocator<char> >::assign
_TEXT	ENDS
PUBLIC	??$_Dest_val@V?$allocator@V?$basic_string@DU?$char_traits@D@std@@V?$allocator@D@2@@std@@@std@@V?$basic_string@DU?$char_traits@D@std@@V?$allocator@D@2@@2@@std@@YAXAAV?$allocator@V?$basic_string@DU?$char_traits@D@std@@V?$allocator@D@2@@std@@@0@PAV?$basic_string@DU?$char_traits@D@std@@V?$allocator@D@2@@0@@Z ; std::_Dest_val<std::allocator<std::basic_string<char,std::char_traits<char>,std::allocator<char> > >,std::basic_string<char,std::char_traits<char>,std::allocator<char> > >
; Function compile flags: /Ogsp
; File c:\program files (x86)\microsoft visual studio 10.0\vc\include\xmemory
;	COMDAT ??$_Dest_val@V?$allocator@V?$basic_string@DU?$char_traits@D@std@@V?$allocator@D@2@@std@@@std@@V?$basic_string@DU?$char_traits@D@std@@V?$allocator@D@2@@2@@std@@YAXAAV?$allocator@V?$basic_string@DU?$char_traits@D@std@@V?$allocator@D@2@@std@@@0@PAV?$basic_string@DU?$char_traits@D@std@@V?$allocator@D@2@@0@@Z
_TEXT	SEGMENT
__Alval$ = 8						; size = 4
__Pdest$ = 12						; size = 4
??$_Dest_val@V?$allocator@V?$basic_string@DU?$char_traits@D@std@@V?$allocator@D@2@@std@@@std@@V?$basic_string@DU?$char_traits@D@std@@V?$allocator@D@2@@2@@std@@YAXAAV?$allocator@V?$basic_string@DU?$char_traits@D@std@@V?$allocator@D@2@@std@@@0@PAV?$basic_string@DU?$char_traits@D@std@@V?$allocator@D@2@@0@@Z PROC ; std::_Dest_val<std::allocator<std::basic_string<char,std::char_traits<char>,std::allocator<char> > >,std::basic_string<char,std::char_traits<char>,std::allocator<char> > >, COMDAT

; 286  : 	{	// destroy using allocator

  00000	55		 push	 ebp
  00001	8b ec		 mov	 ebp, esp

; 287  : 	_Alval.destroy(_Pdest);

  00003	8b 4d 0c	 mov	 ecx, DWORD PTR __Pdest$[ebp]
  00006	6a 00		 push	 0
  00008	6a 01		 push	 1
  0000a	e8 00 00 00 00	 call	 ?_Tidy@?$basic_string@DU?$char_traits@D@std@@V?$allocator@D@2@@std@@QAEX_NI@Z ; std::basic_string<char,std::char_traits<char>,std::allocator<char> >::_Tidy

; 288  : 	}

  0000f	5d		 pop	 ebp
  00010	c3		 ret	 0
??$_Dest_val@V?$allocator@V?$basic_string@DU?$char_traits@D@std@@V?$allocator@D@2@@std@@@std@@V?$basic_string@DU?$char_traits@D@std@@V?$allocator@D@2@@2@@std@@YAXAAV?$allocator@V?$basic_string@DU?$char_traits@D@std@@V?$allocator@D@2@@std@@@0@PAV?$basic_string@DU?$char_traits@D@std@@V?$allocator@D@2@@0@@Z ENDP ; std::_Dest_val<std::allocator<std::basic_string<char,std::char_traits<char>,std::allocator<char> > >,std::basic_string<char,std::char_traits<char>,std::allocator<char> > >
_TEXT	ENDS
PUBLIC	??1?$vector@UPowerupListInfo@@V?$allocator@UPowerupListInfo@@@std@@@std@@QAE@XZ ; std::vector<PowerupListInfo,std::allocator<PowerupListInfo> >::~vector<PowerupListInfo,std::allocator<PowerupListInfo> >
; Function compile flags: /Ogsp
; File c:\program files (x86)\microsoft visual studio 10.0\vc\include\vector
;	COMDAT ??1?$vector@UPowerupListInfo@@V?$allocator@UPowerupListInfo@@@std@@@std@@QAE@XZ
_TEXT	SEGMENT
??1?$vector@UPowerupListInfo@@V?$allocator@UPowerupListInfo@@@std@@@std@@QAE@XZ PROC ; std::vector<PowerupListInfo,std::allocator<PowerupListInfo> >::~vector<PowerupListInfo,std::allocator<PowerupListInfo> >, COMDAT
; _this$ = ecx

; 705  : 		_Tidy();

  00000	e9 00 00 00 00	 jmp	 ?_Tidy@?$vector@UPowerupListInfo@@V?$allocator@UPowerupListInfo@@@std@@@std@@IAEXXZ ; std::vector<PowerupListInfo,std::allocator<PowerupListInfo> >::_Tidy
??1?$vector@UPowerupListInfo@@V?$allocator@UPowerupListInfo@@@std@@@std@@QAE@XZ ENDP ; std::vector<PowerupListInfo,std::allocator<PowerupListInfo> >::~vector<PowerupListInfo,std::allocator<PowerupListInfo> >
_TEXT	ENDS
PUBLIC	?clear@?$vector@UPowerupListInfo@@V?$allocator@UPowerupListInfo@@@std@@@std@@QAEXXZ ; std::vector<PowerupListInfo,std::allocator<PowerupListInfo> >::clear
; Function compile flags: /Ogsp
;	COMDAT ?clear@?$vector@UPowerupListInfo@@V?$allocator@UPowerupListInfo@@@std@@@std@@QAEXXZ
_TEXT	SEGMENT
$T517825 = -4						; size = 4
?clear@?$vector@UPowerupListInfo@@V?$allocator@UPowerupListInfo@@@std@@@std@@QAEXXZ PROC ; std::vector<PowerupListInfo,std::allocator<PowerupListInfo> >::clear, COMDAT
; _this$ = ecx

; 1217 : 		{	// erase all

  00000	55		 push	 ebp
  00001	8b ec		 mov	 ebp, esp
  00003	51		 push	 ecx

; 1218 : 		erase(begin(), end());

  00004	8b 41 04	 mov	 eax, DWORD PTR [ecx+4]
  00007	8b 11		 mov	 edx, DWORD PTR [ecx]
  00009	50		 push	 eax
  0000a	52		 push	 edx
  0000b	8d 45 fc	 lea	 eax, DWORD PTR $T517825[ebp]
  0000e	50		 push	 eax
  0000f	e8 00 00 00 00	 call	 ?erase@?$vector@UPowerupListInfo@@V?$allocator@UPowerupListInfo@@@std@@@std@@QAE?AV?$_Vector_iterator@V?$_Vector_val@UPowerupListInfo@@V?$allocator@UPowerupListInfo@@@std@@@std@@@2@V?$_Vector_const_iterator@V?$_Vector_val@UPowerupListInfo@@V?$allocator@UPowerupListInfo@@@std@@@std@@@2@0@Z ; std::vector<PowerupListInfo,std::allocator<PowerupListInfo> >::erase

; 1219 : 		}

  00014	c9		 leave
  00015	c3		 ret	 0
?clear@?$vector@UPowerupListInfo@@V?$allocator@UPowerupListInfo@@@std@@@std@@QAEXXZ ENDP ; std::vector<PowerupListInfo,std::allocator<PowerupListInfo> >::clear
_TEXT	ENDS
PUBLIC	?erase@?$vector@UEXTRAITEMSLOT@@V?$allocator@UEXTRAITEMSLOT@@@std@@@std@@QAE?AV?$_Vector_iterator@V?$_Vector_val@UEXTRAITEMSLOT@@V?$allocator@UEXTRAITEMSLOT@@@std@@@std@@@2@V?$_Vector_const_iterator@V?$_Vector_val@UEXTRAITEMSLOT@@V?$allocator@UEXTRAITEMSLOT@@@std@@@std@@@2@0@Z ; std::vector<EXTRAITEMSLOT,std::allocator<EXTRAITEMSLOT> >::erase
; Function compile flags: /Ogsp
;	COMDAT ?erase@?$vector@UEXTRAITEMSLOT@@V?$allocator@UEXTRAITEMSLOT@@@std@@@std@@QAE?AV?$_Vector_iterator@V?$_Vector_val@UEXTRAITEMSLOT@@V?$allocator@UEXTRAITEMSLOT@@@std@@@std@@@2@V?$_Vector_const_iterator@V?$_Vector_val@UEXTRAITEMSLOT@@V?$allocator@UEXTRAITEMSLOT@@@std@@@std@@@2@0@Z
_TEXT	SEGMENT
$T518006 = -4						; size = 4
___$ReturnUdt$ = 8					; size = 4
__First_arg$ = 12					; size = 4
__Cat$517950 = 16					; size = 1
__Last_arg$ = 16					; size = 4
?erase@?$vector@UEXTRAITEMSLOT@@V?$allocator@UEXTRAITEMSLOT@@@std@@@std@@QAE?AV?$_Vector_iterator@V?$_Vector_val@UEXTRAITEMSLOT@@V?$allocator@UEXTRAITEMSLOT@@@std@@@std@@@2@V?$_Vector_const_iterator@V?$_Vector_val@UEXTRAITEMSLOT@@V?$allocator@UEXTRAITEMSLOT@@@std@@@std@@@2@0@Z PROC ; std::vector<EXTRAITEMSLOT,std::allocator<EXTRAITEMSLOT> >::erase, COMDAT
; _this$ = ecx

; 1190 : 		{	// erase [_First, _Last)

  00000	55		 push	 ebp
  00001	8b ec		 mov	 ebp, esp
  00003	51		 push	 ecx

; 1191 : 		iterator _First = _Make_iter(_First_arg);

  00004	8b 45 08	 mov	 eax, DWORD PTR ___$ReturnUdt$[ebp]
  00007	56		 push	 esi
  00008	8b f1		 mov	 esi, ecx
  0000a	8b 4d 0c	 mov	 ecx, DWORD PTR __First_arg$[ebp]
  0000d	89 08		 mov	 DWORD PTR [eax], ecx

; 1192 : 		iterator _Last = _Make_iter(_Last_arg);
; 1193 : 
; 1194 : 		if (_First != _Last)

  0000f	3b 4d 10	 cmp	 ecx, DWORD PTR __Last_arg$[ebp]
  00012	74 37		 je	 SHORT $LN1@erase@3

; 1195 : 			{	// worth doing, copy down over hole
; 1196 :  #if _ITERATOR_DEBUG_LEVEL == 2
; 1197 : 			if (_Last < _First || _VICONT(_First) != this
; 1198 : 				|| _VIPTR(_First) < this->_Myfirst
; 1199 : 				|| this->_Mylast < _VIPTR(_Last))
; 1200 : 				_DEBUG_ERROR("vector erase iterator outside range");
; 1201 : 			pointer _Ptr = _Move(_VIPTR(_Last), this->_Mylast,
; 1202 : 				_VIPTR(_First));
; 1203 : 			_Orphan_range(_VIPTR(_First), this->_Mylast);
; 1204 : 
; 1205 :  #else /* _ITERATOR_DEBUG_LEVEL == 2 */
; 1206 : 			pointer _Ptr = _Move(_VIPTR(_Last), this->_Mylast,
; 1207 : 				_VIPTR(_First));

  00014	8b 46 04	 mov	 eax, DWORD PTR [esi+4]
  00017	53		 push	 ebx
  00018	57		 push	 edi
  00019	ff 75 10	 push	 DWORD PTR __Cat$517950[ebp]
  0001c	51		 push	 ecx
  0001d	50		 push	 eax
  0001e	ff 75 10	 push	 DWORD PTR __Last_arg$[ebp]
  00021	e8 00 00 00 00	 call	 ??$_Move@PAUEXTRAITEMSLOT@@PAU1@@std@@YAPAUEXTRAITEMSLOT@@PAU1@00U_Nonscalar_ptr_iterator_tag@0@@Z ; std::_Move<EXTRAITEMSLOT *,EXTRAITEMSLOT *>

; 1208 :  #endif /* _ITERATOR_DEBUG_LEVEL == 2 */
; 1209 : 
; 1210 : 			_Destroy(_Ptr, this->_Mylast);

  00026	8b 7e 04	 mov	 edi, DWORD PTR [esi+4]
  00029	8b d8		 mov	 ebx, eax
  0002b	83 c4 10	 add	 esp, 16			; 00000010H
  0002e	89 5d fc	 mov	 DWORD PTR $T518006[ebp], ebx
  00031	3b df		 cmp	 ebx, edi
  00033	74 11		 je	 SHORT $LN36@erase@3
$LL52@erase@3:
  00035	8b 4d fc	 mov	 ecx, DWORD PTR $T518006[ebp]
  00038	e8 00 00 00 00	 call	 ??1EXTRAITEMSLOT@@QAE@XZ
  0003d	83 45 fc 48	 add	 DWORD PTR $T518006[ebp], 72 ; 00000048H
  00041	39 7d fc	 cmp	 DWORD PTR $T518006[ebp], edi
  00044	75 ef		 jne	 SHORT $LL52@erase@3
$LN36@erase@3:

; 1211 : 			this->_Mylast = _Ptr;

  00046	5f		 pop	 edi
  00047	89 5e 04	 mov	 DWORD PTR [esi+4], ebx
  0004a	5b		 pop	 ebx
$LN1@erase@3:

; 1212 : 			}
; 1213 : 		return (_First);

  0004b	8b 45 08	 mov	 eax, DWORD PTR ___$ReturnUdt$[ebp]
  0004e	5e		 pop	 esi

; 1214 : 		}

  0004f	c9		 leave
  00050	c2 0c 00	 ret	 12			; 0000000cH
?erase@?$vector@UEXTRAITEMSLOT@@V?$allocator@UEXTRAITEMSLOT@@@std@@@std@@QAE?AV?$_Vector_iterator@V?$_Vector_val@UEXTRAITEMSLOT@@V?$allocator@UEXTRAITEMSLOT@@@std@@@std@@@2@V?$_Vector_const_iterator@V?$_Vector_val@UEXTRAITEMSLOT@@V?$allocator@UEXTRAITEMSLOT@@@std@@@std@@@2@0@Z ENDP ; std::vector<EXTRAITEMSLOT,std::allocator<EXTRAITEMSLOT> >::erase
_TEXT	ENDS
PUBLIC	?_Tidy@?$vector@UEXTRAITEMSLOT@@V?$allocator@UEXTRAITEMSLOT@@@std@@@std@@IAEXXZ ; std::vector<EXTRAITEMSLOT,std::allocator<EXTRAITEMSLOT> >::_Tidy
; Function compile flags: /Ogsp
;	COMDAT ?_Tidy@?$vector@UEXTRAITEMSLOT@@V?$allocator@UEXTRAITEMSLOT@@@std@@@std@@IAEXXZ
_TEXT	SEGMENT
?_Tidy@?$vector@UEXTRAITEMSLOT@@V?$allocator@UEXTRAITEMSLOT@@@std@@@std@@IAEXXZ PROC ; std::vector<EXTRAITEMSLOT,std::allocator<EXTRAITEMSLOT> >::_Tidy, COMDAT
; _this$ = ecx

; 1301 : 		{	// free all storage

  00000	56		 push	 esi
  00001	8b f1		 mov	 esi, ecx

; 1302 : 		if (this->_Myfirst != 0)

  00003	83 3e 00	 cmp	 DWORD PTR [esi], 0
  00006	74 27		 je	 SHORT $LN24@Tidy@4

; 1303 : 			{	// something to free, destroy and deallocate it
; 1304 : 			this->_Orphan_all();

  00008	53		 push	 ebx
  00009	57		 push	 edi
  0000a	ff 15 00 00 00
	00		 call	 DWORD PTR __imp_?_Orphan_all@_Container_base0@std@@QAEXXZ

; 1305 : 			_Destroy(this->_Myfirst, this->_Mylast);

  00010	8b 5e 04	 mov	 ebx, DWORD PTR [esi+4]
  00013	8b 3e		 mov	 edi, DWORD PTR [esi]
  00015	eb 0a		 jmp	 SHORT $LN28@Tidy@4
$LL12@Tidy@4:
  00017	8b cf		 mov	 ecx, edi
  00019	e8 00 00 00 00	 call	 ??1EXTRAITEMSLOT@@QAE@XZ
  0001e	83 c7 48	 add	 edi, 72			; 00000048H
$LN28@Tidy@4:
  00021	3b fb		 cmp	 edi, ebx
  00023	75 f2		 jne	 SHORT $LL12@Tidy@4

; 1306 : 			this->_Alval.deallocate(this->_Myfirst,
; 1307 : 				this->_Myend - this->_Myfirst);

  00025	ff 36		 push	 DWORD PTR [esi]
  00027	e8 00 00 00 00	 call	 ??3@YAXPAX@Z		; operator delete
  0002c	59		 pop	 ecx
  0002d	5f		 pop	 edi
  0002e	5b		 pop	 ebx
$LN24@Tidy@4:

; 1308 : 			}
; 1309 : 		this->_Myfirst = 0;

  0002f	33 c0		 xor	 eax, eax
  00031	89 06		 mov	 DWORD PTR [esi], eax

; 1310 : 		this->_Mylast = 0;

  00033	89 46 04	 mov	 DWORD PTR [esi+4], eax

; 1311 : 		this->_Myend = 0;

  00036	89 46 08	 mov	 DWORD PTR [esi+8], eax
  00039	5e		 pop	 esi

; 1312 : 		}

  0003a	c3		 ret	 0
?_Tidy@?$vector@UEXTRAITEMSLOT@@V?$allocator@UEXTRAITEMSLOT@@@std@@@std@@IAEXXZ ENDP ; std::vector<EXTRAITEMSLOT,std::allocator<EXTRAITEMSLOT> >::_Tidy
_TEXT	ENDS
PUBLIC	?_Reserve@?$vector@UPowerupListInfo@@V?$allocator@UPowerupListInfo@@@std@@@std@@IAEXI@Z ; std::vector<PowerupListInfo,std::allocator<PowerupListInfo> >::_Reserve
; Function compile flags: /Ogsp
;	COMDAT ?_Reserve@?$vector@UPowerupListInfo@@V?$allocator@UPowerupListInfo@@@std@@@std@@IAEXI@Z
_TEXT	SEGMENT
__Count$ = 8						; size = 4
?_Reserve@?$vector@UPowerupListInfo@@V?$allocator@UPowerupListInfo@@@std@@@std@@IAEXI@Z PROC ; std::vector<PowerupListInfo,std::allocator<PowerupListInfo> >::_Reserve, COMDAT
; _this$ = ecx

; 1290 : 		{	// ensure room for _Count new elements, grow exponentially

  00000	55		 push	 ebp
  00001	8b ec		 mov	 ebp, esp
  00003	56		 push	 esi
  00004	8b f1		 mov	 esi, ecx

; 1291 : 		size_type _Size = size();

  00006	8b 0e		 mov	 ecx, DWORD PTR [esi]
  00008	8b 46 04	 mov	 eax, DWORD PTR [esi+4]
  0000b	2b c1		 sub	 eax, ecx
  0000d	57		 push	 edi
  0000e	99		 cdq
  0000f	6a 0c		 push	 12			; 0000000cH
  00011	5f		 pop	 edi
  00012	f7 ff		 idiv	 edi
  00014	8b f8		 mov	 edi, eax

; 1292 : 		if (max_size() - _Count < _Size)

  00016	b8 55 55 55 15	 mov	 eax, 357913941		; 15555555H
  0001b	2b 45 08	 sub	 eax, DWORD PTR __Count$[ebp]
  0001e	3b c7		 cmp	 eax, edi
  00020	73 0b		 jae	 SHORT $LN4@Reserve

; 1293 : 			_Xlen();

  00022	68 00 00 00 00	 push	 OFFSET ??_C@_0BD@OLBABOEK@vector?$DMT?$DO?5too?5long?$AA@
  00027	ff 15 00 00 00
	00		 call	 DWORD PTR __imp_?_Xlength_error@std@@YAXPBD@Z
$LN21@Reserve:
$LN4@Reserve:

; 1294 : 		else if ((_Size += _Count) <= capacity())

  0002d	8b 46 08	 mov	 eax, DWORD PTR [esi+8]
  00030	2b c1		 sub	 eax, ecx
  00032	6a 0c		 push	 12			; 0000000cH
  00034	99		 cdq
  00035	59		 pop	 ecx
  00036	f7 f9		 idiv	 ecx
  00038	03 7d 08	 add	 edi, DWORD PTR __Count$[ebp]
  0003b	3b f8		 cmp	 edi, eax
  0003d	76 10		 jbe	 SHORT $LN1@Reserve

; 1295 : 			;
; 1296 : 		else
; 1297 : 			reserve(_Grow_to(_Size));

  0003f	57		 push	 edi
  00040	8b ce		 mov	 ecx, esi
  00042	e8 00 00 00 00	 call	 ?_Grow_to@?$vector@UPowerupListInfo@@V?$allocator@UPowerupListInfo@@@std@@@std@@IBEII@Z ; std::vector<PowerupListInfo,std::allocator<PowerupListInfo> >::_Grow_to
  00047	50		 push	 eax
  00048	8b ce		 mov	 ecx, esi
  0004a	e8 00 00 00 00	 call	 ?reserve@?$vector@UPowerupListInfo@@V?$allocator@UPowerupListInfo@@@std@@@std@@QAEXI@Z ; std::vector<PowerupListInfo,std::allocator<PowerupListInfo> >::reserve
$LN1@Reserve:
  0004f	5f		 pop	 edi
  00050	5e		 pop	 esi

; 1298 : 		}

  00051	5d		 pop	 ebp
  00052	c2 04 00	 ret	 4
$LN20@Reserve:
?_Reserve@?$vector@UPowerupListInfo@@V?$allocator@UPowerupListInfo@@@std@@@std@@IAEXI@Z ENDP ; std::vector<PowerupListInfo,std::allocator<PowerupListInfo> >::_Reserve
_TEXT	ENDS
PUBLIC	??$sort@V?$_Vector_iterator@V?$_Vector_val@UPowerupListInfo@@V?$allocator@UPowerupListInfo@@@std@@@std@@@std@@VEnablePowerupListSort@@@std@@YAXV?$_Vector_iterator@V?$_Vector_val@UPowerupListInfo@@V?$allocator@UPowerupListInfo@@@std@@@std@@@0@0VEnablePowerupListSort@@@Z ; std::sort<std::_Vector_iterator<std::_Vector_val<PowerupListInfo,std::allocator<PowerupListInfo> > >,EnablePowerupListSort>
; Function compile flags: /Ogsp
; File c:\program files (x86)\microsoft visual studio 10.0\vc\include\algorithm
;	COMDAT ??$sort@V?$_Vector_iterator@V?$_Vector_val@UPowerupListInfo@@V?$allocator@UPowerupListInfo@@@std@@@std@@@std@@VEnablePowerupListSort@@@std@@YAXV?$_Vector_iterator@V?$_Vector_val@UPowerupListInfo@@V?$allocator@UPowerupListInfo@@@std@@@std@@@0@0VEnablePowerupListSort@@@Z
_TEXT	SEGMENT
__First$ = 8						; size = 4
__Last$ = 12						; size = 4
__Pred$ = 16						; size = 1
??$sort@V?$_Vector_iterator@V?$_Vector_val@UPowerupListInfo@@V?$allocator@UPowerupListInfo@@@std@@@std@@@std@@VEnablePowerupListSort@@@std@@YAXV?$_Vector_iterator@V?$_Vector_val@UPowerupListInfo@@V?$allocator@UPowerupListInfo@@@std@@@std@@@0@0VEnablePowerupListSort@@@Z PROC ; std::sort<std::_Vector_iterator<std::_Vector_val<PowerupListInfo,std::allocator<PowerupListInfo> > >,EnablePowerupListSort>, COMDAT

; 3803 : 	{	// order [_First, _Last), using _Pred

  00000	55		 push	 ebp
  00001	8b ec		 mov	 ebp, esp

; 3804 : 	_DEBUG_RANGE(_First, _Last);
; 3805 : 	_DEBUG_POINTER(_Pred);
; 3806 : 	_Sort(_Unchecked(_First), _Unchecked(_Last), _Last - _First, _Pred);

  00003	ff 75 10	 push	 DWORD PTR __Pred$[ebp]
  00006	8b 45 0c	 mov	 eax, DWORD PTR __Last$[ebp]
  00009	2b 45 08	 sub	 eax, DWORD PTR __First$[ebp]
  0000c	6a 0c		 push	 12			; 0000000cH
  0000e	59		 pop	 ecx
  0000f	99		 cdq
  00010	f7 f9		 idiv	 ecx
  00012	50		 push	 eax
  00013	ff 75 0c	 push	 DWORD PTR __Last$[ebp]
  00016	ff 75 08	 push	 DWORD PTR __First$[ebp]
  00019	e8 00 00 00 00	 call	 ??$_Sort@PAUPowerupListInfo@@HVEnablePowerupListSort@@@std@@YAXPAUPowerupListInfo@@0HVEnablePowerupListSort@@@Z ; std::_Sort<PowerupListInfo *,int,EnablePowerupListSort>
  0001e	83 c4 10	 add	 esp, 16			; 00000010H

; 3807 : 	}

  00021	5d		 pop	 ebp
  00022	c3		 ret	 0
??$sort@V?$_Vector_iterator@V?$_Vector_val@UPowerupListInfo@@V?$allocator@UPowerupListInfo@@@std@@@std@@@std@@VEnablePowerupListSort@@@std@@YAXV?$_Vector_iterator@V?$_Vector_val@UPowerupListInfo@@V?$allocator@UPowerupListInfo@@@std@@@std@@@0@0VEnablePowerupListSort@@@Z ENDP ; std::sort<std::_Vector_iterator<std::_Vector_val<PowerupListInfo,std::allocator<PowerupListInfo> > >,EnablePowerupListSort>
_TEXT	ENDS
PUBLIC	??$_Copy_impl@PAV?$basic_string@DU?$char_traits@D@std@@V?$allocator@D@2@@std@@PAV12@@std@@YAPAV?$basic_string@DU?$char_traits@D@std@@V?$allocator@D@2@@0@PAV10@00U_Nonscalar_ptr_iterator_tag@0@@Z ; std::_Copy_impl<std::basic_string<char,std::char_traits<char>,std::allocator<char> > *,std::basic_string<char,std::char_traits<char>,std::allocator<char> > *>
; Function compile flags: /Ogsp
; File c:\program files (x86)\microsoft visual studio 10.0\vc\include\xutility
;	COMDAT ??$_Copy_impl@PAV?$basic_string@DU?$char_traits@D@std@@V?$allocator@D@2@@std@@PAV12@@std@@YAPAV?$basic_string@DU?$char_traits@D@std@@V?$allocator@D@2@@0@PAV10@00U_Nonscalar_ptr_iterator_tag@0@@Z
_TEXT	SEGMENT
__First$ = 8						; size = 4
__Last$ = 12						; size = 4
__Dest$ = 16						; size = 4
___formal$ = 20						; size = 1
??$_Copy_impl@PAV?$basic_string@DU?$char_traits@D@std@@V?$allocator@D@2@@std@@PAV12@@std@@YAPAV?$basic_string@DU?$char_traits@D@std@@V?$allocator@D@2@@0@PAV10@00U_Nonscalar_ptr_iterator_tag@0@@Z PROC ; std::_Copy_impl<std::basic_string<char,std::char_traits<char>,std::allocator<char> > *,std::basic_string<char,std::char_traits<char>,std::allocator<char> > *>, COMDAT

; 2142 : 	{	// copy [_First, _Last) to [_Dest, ...), arbitrary iterators

  00000	55		 push	 ebp
  00001	8b ec		 mov	 ebp, esp
  00003	56		 push	 esi

; 2143 : 	for (; _First != _Last; ++_Dest, ++_First)

  00004	8b 75 08	 mov	 esi, DWORD PTR __First$[ebp]
  00007	eb 14		 jmp	 SHORT $LN13@Copy_impl
$LL3@Copy_impl:

; 2144 : 		*_Dest = *_First;

  00009	8b 4d 10	 mov	 ecx, DWORD PTR __Dest$[ebp]
  0000c	6a ff		 push	 -1
  0000e	6a 00		 push	 0
  00010	56		 push	 esi
  00011	e8 00 00 00 00	 call	 ?assign@?$basic_string@DU?$char_traits@D@std@@V?$allocator@D@2@@std@@QAEAAV12@ABV12@II@Z ; std::basic_string<char,std::char_traits<char>,std::allocator<char> >::assign
  00016	83 45 10 1c	 add	 DWORD PTR __Dest$[ebp], 28 ; 0000001cH
  0001a	83 c6 1c	 add	 esi, 28			; 0000001cH
$LN13@Copy_impl:

; 2143 : 	for (; _First != _Last; ++_Dest, ++_First)

  0001d	3b 75 0c	 cmp	 esi, DWORD PTR __Last$[ebp]
  00020	75 e7		 jne	 SHORT $LL3@Copy_impl

; 2145 : 	return (_Dest);

  00022	8b 45 10	 mov	 eax, DWORD PTR __Dest$[ebp]
  00025	5e		 pop	 esi

; 2146 : 	}

  00026	5d		 pop	 ebp
  00027	c3		 ret	 0
??$_Copy_impl@PAV?$basic_string@DU?$char_traits@D@std@@V?$allocator@D@2@@std@@PAV12@@std@@YAPAV?$basic_string@DU?$char_traits@D@std@@V?$allocator@D@2@@0@PAV10@00U_Nonscalar_ptr_iterator_tag@0@@Z ENDP ; std::_Copy_impl<std::basic_string<char,std::char_traits<char>,std::allocator<char> > *,std::basic_string<char,std::char_traits<char>,std::allocator<char> > *>
_TEXT	ENDS
PUBLIC	??$_Cons_val@V?$allocator@V?$basic_string@DU?$char_traits@D@std@@V?$allocator@D@2@@std@@@std@@V?$basic_string@DU?$char_traits@D@std@@V?$allocator@D@2@@2@AAV32@@std@@YAXAAV?$allocator@V?$basic_string@DU?$char_traits@D@std@@V?$allocator@D@2@@std@@@0@PAV?$basic_string@DU?$char_traits@D@std@@V?$allocator@D@2@@0@AAV20@@Z ; std::_Cons_val<std::allocator<std::basic_string<char,std::char_traits<char>,std::allocator<char> > >,std::basic_string<char,std::char_traits<char>,std::allocator<char> >,std::basic_string<char,std::char_traits<char>,std::allocator<char> > &>
;	COMDAT xdata$x
; File c:\program files (x86)\microsoft visual studio 10.0\vc\include\utility
xdata$x	SEGMENT
__unwindtable$??$_Cons_val@V?$allocator@V?$basic_string@DU?$char_traits@D@std@@V?$allocator@D@2@@std@@@std@@V?$basic_string@DU?$char_traits@D@std@@V?$allocator@D@2@@2@AAV32@@std@@YAXAAV?$allocator@V?$basic_string@DU?$char_traits@D@std@@V?$allocator@D@2@@std@@@0@PAV?$basic_string@DU?$char_traits@D@std@@V?$allocator@D@2@@0@AAV20@@Z DD 0ffffffffH
	DD	FLAT:__unwindfunclet$??$_Cons_val@V?$allocator@V?$basic_string@DU?$char_traits@D@std@@V?$allocator@D@2@@std@@@std@@V?$basic_string@DU?$char_traits@D@std@@V?$allocator@D@2@@2@AAV32@@std@@YAXAAV?$allocator@V?$basic_string@DU?$char_traits@D@std@@V?$allocator@D@2@@std@@@0@PAV?$basic_string@DU?$char_traits@D@std@@V?$allocator@D@2@@0@AAV20@@Z$0
__ehfuncinfo$??$_Cons_val@V?$allocator@V?$basic_string@DU?$char_traits@D@std@@V?$allocator@D@2@@std@@@std@@V?$basic_string@DU?$char_traits@D@std@@V?$allocator@D@2@@2@AAV32@@std@@YAXAAV?$allocator@V?$basic_string@DU?$char_traits@D@std@@V?$allocator@D@2@@std@@@0@PAV?$basic_string@DU?$char_traits@D@std@@V?$allocator@D@2@@0@AAV20@@Z DD 019930522H
	DD	01H
	DD	FLAT:__unwindtable$??$_Cons_val@V?$allocator@V?$basic_string@DU?$char_traits@D@std@@V?$allocator@D@2@@std@@@std@@V?$basic_string@DU?$char_traits@D@std@@V?$allocator@D@2@@2@AAV32@@std@@YAXAAV?$allocator@V?$basic_string@DU?$char_traits@D@std@@V?$allocator@D@2@@std@@@0@PAV?$basic_string@DU?$char_traits@D@std@@V?$allocator@D@2@@0@AAV20@@Z
	DD	2 DUP(00H)
	DD	2 DUP(00H)
	DD	00H
	DD	01H
; Function compile flags: /Ogsp
; File c:\program files (x86)\microsoft visual studio 10.0\vc\include\xmemory
xdata$x	ENDS
;	COMDAT ??$_Cons_val@V?$allocator@V?$basic_string@DU?$char_traits@D@std@@V?$allocator@D@2@@std@@@std@@V?$basic_string@DU?$char_traits@D@std@@V?$allocator@D@2@@2@AAV32@@std@@YAXAAV?$allocator@V?$basic_string@DU?$char_traits@D@std@@V?$allocator@D@2@@std@@@0@PAV?$basic_string@DU?$char_traits@D@std@@V?$allocator@D@2@@0@AAV20@@Z
_TEXT	SEGMENT
$T518257 = -16						; size = 4
__$EHRec$ = -12						; size = 12
__Alval$ = 8						; size = 4
__Pdest$ = 12						; size = 4
__Src$ = 16						; size = 4
??$_Cons_val@V?$allocator@V?$basic_string@DU?$char_traits@D@std@@V?$allocator@D@2@@std@@@std@@V?$basic_string@DU?$char_traits@D@std@@V?$allocator@D@2@@2@AAV32@@std@@YAXAAV?$allocator@V?$basic_string@DU?$char_traits@D@std@@V?$allocator@D@2@@std@@@0@PAV?$basic_string@DU?$char_traits@D@std@@V?$allocator@D@2@@0@AAV20@@Z PROC ; std::_Cons_val<std::allocator<std::basic_string<char,std::char_traits<char>,std::allocator<char> > >,std::basic_string<char,std::char_traits<char>,std::allocator<char> >,std::basic_string<char,std::char_traits<char>,std::allocator<char> > &>, COMDAT

; 279  : 	{	// construct using allocator

  00000	6a 04		 push	 4
  00002	b8 00 00 00 00	 mov	 eax, __ehhandler$??$_Cons_val@V?$allocator@V?$basic_string@DU?$char_traits@D@std@@V?$allocator@D@2@@std@@@std@@V?$basic_string@DU?$char_traits@D@std@@V?$allocator@D@2@@2@AAV32@@std@@YAXAAV?$allocator@V?$basic_string@DU?$char_traits@D@std@@V?$allocator@D@2@@std@@@0@PAV?$basic_string@DU?$char_traits@D@std@@V?$allocator@D@2@@0@AAV20@@Z
  00007	e8 00 00 00 00	 call	 __EH_prolog3

; 280  : 	_Alval.construct(_Pdest, _STD forward<_Ty2>(_Src));

  0000c	8b 4d 0c	 mov	 ecx, DWORD PTR __Pdest$[ebp]
  0000f	89 4d f0	 mov	 DWORD PTR $T518257[ebp], ecx
  00012	83 65 fc 00	 and	 DWORD PTR __$EHRec$[ebp+8], 0
  00016	85 c9		 test	 ecx, ecx
  00018	74 08		 je	 SHORT $LN7@Cons_val@5
  0001a	ff 75 10	 push	 DWORD PTR __Src$[ebp]
  0001d	e8 00 00 00 00	 call	 ??0?$basic_string@DU?$char_traits@D@std@@V?$allocator@D@2@@std@@QAE@ABV01@@Z ; std::basic_string<char,std::char_traits<char>,std::allocator<char> >::basic_string<char,std::char_traits<char>,std::allocator<char> >
$LN7@Cons_val@5:

; 281  : 	}

  00022	e8 00 00 00 00	 call	 __EH_epilog3
  00027	c3		 ret	 0
_TEXT	ENDS
;	COMDAT text$x
text$x	SEGMENT
__unwindfunclet$??$_Cons_val@V?$allocator@V?$basic_string@DU?$char_traits@D@std@@V?$allocator@D@2@@std@@@std@@V?$basic_string@DU?$char_traits@D@std@@V?$allocator@D@2@@2@AAV32@@std@@YAXAAV?$allocator@V?$basic_string@DU?$char_traits@D@std@@V?$allocator@D@2@@std@@@0@PAV?$basic_string@DU?$char_traits@D@std@@V?$allocator@D@2@@0@AAV20@@Z$0:
  00000	ff 75 0c	 push	 DWORD PTR __Pdest$[ebp]
  00003	ff 75 f0	 push	 DWORD PTR $T518257[ebp]
  00006	e8 00 00 00 00	 call	 ??3@YAXPAX0@Z		; operator delete
  0000b	59		 pop	 ecx
  0000c	59		 pop	 ecx
  0000d	c3		 ret	 0
__ehhandler$??$_Cons_val@V?$allocator@V?$basic_string@DU?$char_traits@D@std@@V?$allocator@D@2@@std@@@std@@V?$basic_string@DU?$char_traits@D@std@@V?$allocator@D@2@@2@AAV32@@std@@YAXAAV?$allocator@V?$basic_string@DU?$char_traits@D@std@@V?$allocator@D@2@@std@@@0@PAV?$basic_string@DU?$char_traits@D@std@@V?$allocator@D@2@@0@AAV20@@Z:
  0000e	8b 54 24 08	 mov	 edx, DWORD PTR [esp+8]
  00012	8d 42 0c	 lea	 eax, DWORD PTR [edx+12]
  00015	8b 4a ec	 mov	 ecx, DWORD PTR [edx-20]
  00018	33 c8		 xor	 ecx, eax
  0001a	e8 00 00 00 00	 call	 @__security_check_cookie@4
  0001f	b8 00 00 00 00	 mov	 eax, OFFSET __ehfuncinfo$??$_Cons_val@V?$allocator@V?$basic_string@DU?$char_traits@D@std@@V?$allocator@D@2@@std@@@std@@V?$basic_string@DU?$char_traits@D@std@@V?$allocator@D@2@@2@AAV32@@std@@YAXAAV?$allocator@V?$basic_string@DU?$char_traits@D@std@@V?$allocator@D@2@@std@@@0@PAV?$basic_string@DU?$char_traits@D@std@@V?$allocator@D@2@@0@AAV20@@Z
  00024	e9 00 00 00 00	 jmp	 ___CxxFrameHandler3
text$x	ENDS
??$_Cons_val@V?$allocator@V?$basic_string@DU?$char_traits@D@std@@V?$allocator@D@2@@std@@@std@@V?$basic_string@DU?$char_traits@D@std@@V?$allocator@D@2@@2@AAV32@@std@@YAXAAV?$allocator@V?$basic_string@DU?$char_traits@D@std@@V?$allocator@D@2@@std@@@0@PAV?$basic_string@DU?$char_traits@D@std@@V?$allocator@D@2@@0@AAV20@@Z ENDP ; std::_Cons_val<std::allocator<std::basic_string<char,std::char_traits<char>,std::allocator<char> > >,std::basic_string<char,std::char_traits<char>,std::allocator<char> >,std::basic_string<char,std::char_traits<char>,std::allocator<char> > &>
PUBLIC	??4?$basic_string@DU?$char_traits@D@std@@V?$allocator@D@2@@std@@QAEAAV01@$$QAV01@@Z ; std::basic_string<char,std::char_traits<char>,std::allocator<char> >::operator=
; Function compile flags: /Ogsp
; File c:\program files (x86)\microsoft visual studio 10.0\vc\include\xstring
;	COMDAT ??4?$basic_string@DU?$char_traits@D@std@@V?$allocator@D@2@@std@@QAEAAV01@$$QAV01@@Z
_TEXT	SEGMENT
__Right$ = 8						; size = 4
??4?$basic_string@DU?$char_traits@D@std@@V?$allocator@D@2@@std@@QAEAAV01@$$QAV01@@Z PROC ; std::basic_string<char,std::char_traits<char>,std::allocator<char> >::operator=, COMDAT
; _this$ = ecx

; 708  : 		{	// assign by moving _Right

  00000	55		 push	 ebp
  00001	8b ec		 mov	 ebp, esp

; 710  : 		}

  00003	5d		 pop	 ebp

; 709  : 		return (assign(_STD forward<_Myt>(_Right)));

  00004	e9 00 00 00 00	 jmp	 ?assign@?$basic_string@DU?$char_traits@D@std@@V?$allocator@D@2@@std@@QAEAAV12@$$QAV12@@Z ; std::basic_string<char,std::char_traits<char>,std::allocator<char> >::assign
??4?$basic_string@DU?$char_traits@D@std@@V?$allocator@D@2@@std@@QAEAAV01@$$QAV01@@Z ENDP ; std::basic_string<char,std::char_traits<char>,std::allocator<char> >::operator=
_TEXT	ENDS
PUBLIC	??$_Destroy_range@V?$allocator@V?$basic_string@DU?$char_traits@D@std@@V?$allocator@D@2@@std@@@std@@@std@@YAXPAV?$basic_string@DU?$char_traits@D@std@@V?$allocator@D@2@@0@0AAV?$allocator@V?$basic_string@DU?$char_traits@D@std@@V?$allocator@D@2@@std@@@0@U_Nonscalar_ptr_iterator_tag@0@@Z ; std::_Destroy_range<std::allocator<std::basic_string<char,std::char_traits<char>,std::allocator<char> > > >
; Function compile flags: /Ogsp
; File c:\program files (x86)\microsoft visual studio 10.0\vc\include\xmemory
;	COMDAT ??$_Destroy_range@V?$allocator@V?$basic_string@DU?$char_traits@D@std@@V?$allocator@D@2@@std@@@std@@@std@@YAXPAV?$basic_string@DU?$char_traits@D@std@@V?$allocator@D@2@@0@0AAV?$allocator@V?$basic_string@DU?$char_traits@D@std@@V?$allocator@D@2@@std@@@0@U_Nonscalar_ptr_iterator_tag@0@@Z
_TEXT	SEGMENT
__First$ = 8						; size = 4
__Last$ = 12						; size = 4
__Al$ = 16						; size = 4
___formal$ = 20						; size = 1
??$_Destroy_range@V?$allocator@V?$basic_string@DU?$char_traits@D@std@@V?$allocator@D@2@@std@@@std@@@std@@YAXPAV?$basic_string@DU?$char_traits@D@std@@V?$allocator@D@2@@0@0AAV?$allocator@V?$basic_string@DU?$char_traits@D@std@@V?$allocator@D@2@@std@@@0@U_Nonscalar_ptr_iterator_tag@0@@Z PROC ; std::_Destroy_range<std::allocator<std::basic_string<char,std::char_traits<char>,std::allocator<char> > > >, COMDAT

; 95   : 	{	// destroy [_First, _Last), arbitrary type

  00000	55		 push	 ebp
  00001	8b ec		 mov	 ebp, esp
  00003	56		 push	 esi

; 96   : 	for (; _First != _Last; ++_First)

  00004	8b 75 08	 mov	 esi, DWORD PTR __First$[ebp]
  00007	eb 0e		 jmp	 SHORT $LN21@Destroy_ra@3
$LL3@Destroy_ra@3:

; 97   : 		_Dest_val(_Al, _First);

  00009	6a 00		 push	 0
  0000b	6a 01		 push	 1
  0000d	8b ce		 mov	 ecx, esi
  0000f	e8 00 00 00 00	 call	 ?_Tidy@?$basic_string@DU?$char_traits@D@std@@V?$allocator@D@2@@std@@QAEX_NI@Z ; std::basic_string<char,std::char_traits<char>,std::allocator<char> >::_Tidy
  00014	83 c6 1c	 add	 esi, 28			; 0000001cH
$LN21@Destroy_ra@3:

; 96   : 	for (; _First != _Last; ++_First)

  00017	3b 75 0c	 cmp	 esi, DWORD PTR __Last$[ebp]
  0001a	75 ed		 jne	 SHORT $LL3@Destroy_ra@3
  0001c	5e		 pop	 esi

; 98   : 	}

  0001d	5d		 pop	 ebp
  0001e	c3		 ret	 0
??$_Destroy_range@V?$allocator@V?$basic_string@DU?$char_traits@D@std@@V?$allocator@D@2@@std@@@std@@@std@@YAXPAV?$basic_string@DU?$char_traits@D@std@@V?$allocator@D@2@@0@0AAV?$allocator@V?$basic_string@DU?$char_traits@D@std@@V?$allocator@D@2@@std@@@0@U_Nonscalar_ptr_iterator_tag@0@@Z ENDP ; std::_Destroy_range<std::allocator<std::basic_string<char,std::char_traits<char>,std::allocator<char> > > >
_TEXT	ENDS
PUBLIC	??_7EnablePowerupListWnd@@6B@			; EnablePowerupListWnd::`vftable'
PUBLIC	??0EnablePowerupListWnd@@QAE@XZ			; EnablePowerupListWnd::EnablePowerupListWnd
PUBLIC	??_R4EnablePowerupListWnd@@6B@			; EnablePowerupListWnd::`RTTI Complete Object Locator'
PUBLIC	??_R0?AVEnablePowerupListWnd@@@8		; EnablePowerupListWnd `RTTI Type Descriptor'
PUBLIC	??_R3EnablePowerupListWnd@@8			; EnablePowerupListWnd::`RTTI Class Hierarchy Descriptor'
PUBLIC	??_R2EnablePowerupListWnd@@8			; EnablePowerupListWnd::`RTTI Base Class Array'
PUBLIC	??_R1A@?0A@EA@EnablePowerupListWnd@@8		; EnablePowerupListWnd::`RTTI Base Class Descriptor at (0,-1,0,64)'
PUBLIC	?iwm_command@EnablePowerupListWnd@@UAEXPAVioWnd@@HK@Z ; EnablePowerupListWnd::iwm_command
EXTRN	?OnProcess@ioWnd@@MAEXM@Z:PROC			; ioWnd::OnProcess
EXTRN	??_EEnablePowerupListWnd@@UAEPAXI@Z:PROC	; EnablePowerupListWnd::`vector deleting destructor'
;	COMDAT ??_R1A@?0A@EA@EnablePowerupListWnd@@8
; File c:\program files (x86)\microsoft visual studio 10.0\vc\include\xutility
rdata$r	SEGMENT
??_R1A@?0A@EA@EnablePowerupListWnd@@8 DD FLAT:??_R0?AVEnablePowerupListWnd@@@8 ; EnablePowerupListWnd::`RTTI Base Class Descriptor at (0,-1,0,64)'
	DD	01H
	DD	00H
	DD	0ffffffffH
	DD	00H
	DD	040H
	DD	FLAT:??_R3EnablePowerupListWnd@@8
rdata$r	ENDS
;	COMDAT ??_R2EnablePowerupListWnd@@8
rdata$r	SEGMENT
??_R2EnablePowerupListWnd@@8 DD FLAT:??_R1A@?0A@EA@EnablePowerupListWnd@@8 ; EnablePowerupListWnd::`RTTI Base Class Array'
	DD	FLAT:??_R1A@?0A@EA@ioWnd@@8
rdata$r	ENDS
;	COMDAT ??_R3EnablePowerupListWnd@@8
rdata$r	SEGMENT
??_R3EnablePowerupListWnd@@8 DD 00H			; EnablePowerupListWnd::`RTTI Class Hierarchy Descriptor'
	DD	00H
	DD	02H
	DD	FLAT:??_R2EnablePowerupListWnd@@8
rdata$r	ENDS
;	COMDAT ??_R0?AVEnablePowerupListWnd@@@8
_DATA	SEGMENT
??_R0?AVEnablePowerupListWnd@@@8 DD FLAT:??_7type_info@@6B@ ; EnablePowerupListWnd `RTTI Type Descriptor'
	DD	00H
	DB	'.?AVEnablePowerupListWnd@@', 00H
_DATA	ENDS
;	COMDAT ??_R4EnablePowerupListWnd@@6B@
rdata$r	SEGMENT
??_R4EnablePowerupListWnd@@6B@ DD 00H			; EnablePowerupListWnd::`RTTI Complete Object Locator'
	DD	00H
	DD	00H
	DD	FLAT:??_R0?AVEnablePowerupListWnd@@@8
	DD	FLAT:??_R3EnablePowerupListWnd@@8
rdata$r	ENDS
;	COMDAT ??_7EnablePowerupListWnd@@6B@
CONST	SEGMENT
??_7EnablePowerupListWnd@@6B@ DD FLAT:??_R4EnablePowerupListWnd@@6B@ ; EnablePowerupListWnd::`vftable'
	DD	FLAT:?AddRenderFrame@ioWnd@@UAEXABVioHashString@@PAVioUIRenderFrame@@@Z
	DD	FLAT:?AddRenderImage@ioWnd@@UAEXABVioHashString@@PAVioUIRenderImage@@@Z
	DD	FLAT:?AddTooltipHelp@ioWnd@@UAEXABVioHashString@@00@Z
	DD	FLAT:?ParseExtraInfo@ioWnd@@UAEXAAVioXMLElement@@@Z
	DD	FLAT:?AddNamedRenderImage@ioWnd@@UAEXABVioHashString@@PAVioUIRenderImage@@@Z
	DD	FLAT:?RemoveNamedRenderImage@ioWnd@@UAEXABVioHashString@@@Z
	DD	FLAT:?GetNamedRenderImage@ioWnd@@UBEPAVioUIRenderImage@@ABVioHashString@@@Z
	DD	FLAT:?SetWindowAlpha@ioWnd@@UAEXH@Z
	DD	FLAT:?SetActive@ioWnd@@UAEXXZ
	DD	FLAT:?SetInActive@ioWnd@@UAEXXZ
	DD	FLAT:?ClearElementImageList@ioWnd@@UAEXXZ
	DD	FLAT:?SetSize@ioWnd@@UAEXHH@Z
	DD	FLAT:?SetPositionToDefault@ioWnd@@UAEXHH_N0@Z
	DD	FLAT:?IsNeedProcess@ioWnd@@UBE_NXZ
	DD	FLAT:?IsCanMouseReaction@ioWnd@@UBE_NXZ
	DD	FLAT:?AddChild@ioWnd@@UAEXPAV1@@Z
	DD	FLAT:?DeleteChild@ioWnd@@UAEXK@Z
	DD	FLAT:?DeleteAllChild@ioWnd@@UAEXXZ
	DD	FLAT:?OnRenderShowAndHide@ioWnd@@MAE_NXZ
	DD	FLAT:?OnRenderShowAndHideByDefault@ioWnd@@MAE_NK@Z
	DD	FLAT:?OnRenderShowAndHideByTop@ioWnd@@MAE_NK@Z
	DD	FLAT:?OnRenderShowAndHideByDown@ioWnd@@MAE_NK@Z
	DD	FLAT:?OnRender@EnablePowerupListWnd@@MAEXXZ
	DD	FLAT:?OnRenderAfterChild@ioWnd@@MAEXXZ
	DD	FLAT:?OnProcess@ioWnd@@MAEXM@Z
	DD	FLAT:?OnMouseProcess@ioWnd@@MAEXABVioMouse@@@Z
	DD	FLAT:?CheckFrameReSize@ioWnd@@MAEXHHHH@Z
	DD	FLAT:?RenderImageList@ioWnd@@MAEXHHW4UIRenderType@@@Z
	DD	FLAT:?iwm_create@ioWnd@@UAEXXZ
	DD	FLAT:?iwm_destroy@ioWnd@@UAEXXZ
	DD	FLAT:?iwm_lbuttondown@ioWnd@@UAEXABVioMouse@@@Z
	DD	FLAT:?iwm_lbuttonup@ioWnd@@UAEXABVioMouse@@@Z
	DD	FLAT:?iwm_lbuttonDBLCLK@ioWnd@@UAEXABVioMouse@@@Z
	DD	FLAT:?iwm_rbuttondown@ioWnd@@UAEXABVioMouse@@@Z
	DD	FLAT:?iwm_rbuttonup@ioWnd@@UAEXABVioMouse@@@Z
	DD	FLAT:?iwm_command@EnablePowerupListWnd@@UAEXPAVioWnd@@HK@Z
	DD	FLAT:?iwm_mouseover@ioWnd@@UAEXABVioMouse@@@Z
	DD	FLAT:?iwm_mousemove@ioWnd@@UAEXABVioMouse@@@Z
	DD	FLAT:?iwm_mouseleave@ioWnd@@UAEXABVioMouse@@@Z
	DD	FLAT:?iwm_vscroll@ioWnd@@UAEXKH@Z
	DD	FLAT:?iwm_wheel@ioWnd@@UAEXH@Z
	DD	FLAT:?iwm_show@ioWnd@@UAEXXZ
	DD	FLAT:?iwm_hide@ioWnd@@UAEXXZ
	DD	FLAT:?iwm_esc@ioWnd@@UAE_NXZ
	DD	FLAT:?iwm_spacebar@ioWnd@@UAE_NXZ
	DD	FLAT:?iwm_gototop@ioWnd@@UAEXXZ
	DD	FLAT:?iwm_dragenter@ioWnd@@UAE?AW4IWDropEffect@@PAVioDragItem@@ABVioMouse@@@Z
	DD	FLAT:?iwm_dragover@ioWnd@@UAE?AW4IWDropEffect@@PAVioDragItem@@ABVioMouse@@@Z
	DD	FLAT:?iwm_dragleave@ioWnd@@UAEXXZ
	DD	FLAT:?iwm_dropitem@ioWnd@@UAE_NPAVioDragItem@@ABVioMouse@@PAV1@@Z
	DD	FLAT:?iwm_dropdone@ioWnd@@UAEXPAVioDragItem@@PAV1@_N@Z
	DD	FLAT:?IsEXType@ioWnd@@UBE_NXZ
	DD	FLAT:?GetWndType@ioWnd@@UBEKXZ
	DD	FLAT:?RenderWnd@ioWnd@@UAEXXZ
	DD	FLAT:?SetIDEX@ioWnd@@UAEXAAK_N@Z
	DD	FLAT:?ParseXML@ioWnd@@UAEXAAVioXMLElement@@@Z
	DD	FLAT:?GetHeaderFileName@ioWnd@@UAEPBDXZ
	DD	FLAT:?GetTemplateName@ioWnd@@UAEPBDXZ
	DD	FLAT:?GetDefClassName@ioWnd@@UBEPBDXZ
	DD	FLAT:?_Clone@ioWnd@@UAEPAV1@XZ
	DD	FLAT:?Copy@ioWnd@@UAEXPAV1@@Z
	DD	FLAT:?Save@ioWnd@@UAE_NAAVioXMLElement@@@Z
	DD	FLAT:?SetSaveData@ioWnd@@UAEXAAVioXMLElement@@@Z
	DD	FLAT:?SetPosX@ioWnd@@UAEXH@Z
	DD	FLAT:?SetPosY@ioWnd@@UAEXH@Z
	DD	FLAT:?SetWidth@ioWnd@@UAEXH@Z
	DD	FLAT:?SetHeight@ioWnd@@UAEXH@Z
	DD	FLAT:?GetNumFixedRenderFrame@ioWnd@@UBEHXZ
	DD	FLAT:?GetFixedRenderFrameType@ioWnd@@UAEPBDH@Z
	DD	FLAT:?GetRenderFrame@ioWnd@@UAEPAPAVioUIRenderElement@@PBD@Z
	DD	FLAT:?GetNumFixedRenderImage@ioWnd@@UBEHXZ
	DD	FLAT:?GetFixedRenderImageType@ioWnd@@UAEPBDH@Z
	DD	FLAT:?GetRenderImage@ioWnd@@UAEPAPAVioUIRenderElement@@PBD@Z
	DD	FLAT:?AddEffect@ioWnd@@UAEXABVioHashString@@PAVioUI3DEffectRender@@@Z
	DD	FLAT:?GetEffect@ioWnd@@UAEPAVioUI3DEffectRender@@VioHashString@@@Z
	DD	FLAT:??_EEnablePowerupListWnd@@UAEPAXI@Z
CONST	ENDS
;	COMDAT xdata$x
xdata$x	SEGMENT
__ehfuncinfo$??0EnablePowerupListWnd@@QAE@XZ DD 019930522H
	DD	05H
	DD	FLAT:__unwindtable$??0EnablePowerupListWnd@@QAE@XZ
	DD	2 DUP(00H)
	DD	2 DUP(00H)
	DD	00H
	DD	01H
__unwindtable$??0EnablePowerupListWnd@@QAE@XZ DD 0ffffffffH
	DD	FLAT:__unwindfunclet$??0EnablePowerupListWnd@@QAE@XZ$0
	DD	00H
	DD	FLAT:__unwindfunclet$??0EnablePowerupListWnd@@QAE@XZ$1
	DD	01H
	DD	FLAT:__unwindfunclet$??0EnablePowerupListWnd@@QAE@XZ$2
	DD	02H
	DD	FLAT:__unwindfunclet$??0EnablePowerupListWnd@@QAE@XZ$3
	DD	03H
	DD	FLAT:__unwindfunclet$??0EnablePowerupListWnd@@QAE@XZ$4
; Function compile flags: /Ogsp
; File d:\lost saga for developer\youtube\tutorial\source\src\lsclient\gui\enablepoweruplistwnd.cpp
xdata$x	ENDS
;	COMDAT ??0EnablePowerupListWnd@@QAE@XZ
_TEXT	SEGMENT
$T518429 = -20						; size = 4
_this$ = -16						; size = 4
__$EHRec$ = -12						; size = 12
??0EnablePowerupListWnd@@QAE@XZ PROC			; EnablePowerupListWnd::EnablePowerupListWnd, COMDAT
; _this$ = ecx

; 76   : {

  00000	6a 08		 push	 8
  00002	b8 00 00 00 00	 mov	 eax, __ehhandler$??0EnablePowerupListWnd@@QAE@XZ
  00007	e8 00 00 00 00	 call	 __EH_prolog3
  0000c	8b f1		 mov	 esi, ecx
  0000e	89 75 f0	 mov	 DWORD PTR _this$[ebp], esi
  00011	ff 15 00 00 00
	00		 call	 DWORD PTR __imp_??0ioWnd@@QAE@XZ
  00017	33 db		 xor	 ebx, ebx
  00019	8d 8e 6c 01 00
	00		 lea	 ecx, DWORD PTR [esi+364]
  0001f	89 5d fc	 mov	 DWORD PTR __$EHRec$[ebp+8], ebx
  00022	c7 06 00 00 00
	00		 mov	 DWORD PTR [esi], OFFSET ??_7EnablePowerupListWnd@@6B@
  00028	ff 15 00 00 00
	00		 call	 DWORD PTR __imp_??0ioHashString@@QAE@XZ
  0002e	89 9e 7c 01 00
	00		 mov	 DWORD PTR [esi+380], ebx
  00034	89 9e 80 01 00
	00		 mov	 DWORD PTR [esi+384], ebx
  0003a	89 9e 84 01 00
	00		 mov	 DWORD PTR [esi+388], ebx
  00040	68 00 00 00 00	 push	 OFFSET ??1ioComplexStringPrinter@@QAE@XZ ; ioComplexStringPrinter::~ioComplexStringPrinter
  00045	68 00 00 00 00	 push	 OFFSET ??0ioComplexStringPrinter@@QAE@XZ ; ioComplexStringPrinter::ioComplexStringPrinter
  0004a	6a 02		 push	 2
  0004c	8d 86 8c 01 00
	00		 lea	 eax, DWORD PTR [esi+396]
  00052	6a 20		 push	 32			; 00000020H
  00054	50		 push	 eax
  00055	c6 45 fc 02	 mov	 BYTE PTR __$EHRec$[ebp+8], 2
  00059	e8 00 00 00 00	 call	 ??_L@YGXPAXIHP6EX0@Z1@Z
  0005e	8d 8e cc 01 00
	00		 lea	 ecx, DWORD PTR [esi+460]
  00064	c6 45 fc 03	 mov	 BYTE PTR __$EHRec$[ebp+8], 3
  00068	e8 00 00 00 00	 call	 ??0ioComplexStringPrinter@@QAE@XZ ; ioComplexStringPrinter::ioComplexStringPrinter

; 77   : 	m_iMaxPage = 0;

  0006d	89 9e 60 01 00
	00		 mov	 DWORD PTR [esi+352], ebx

; 78   : 	m_iCurPage = 0;

  00073	89 9e 64 01 00
	00		 mov	 DWORD PTR [esi+356], ebx

; 79   : 
; 80   : 	m_dwCurSubBtn = ID_HERO_BTN;

  00079	c7 86 68 01 00
	00 0a 00 00 00	 mov	 DWORD PTR [esi+360], 10	; 0000000aH

; 81   : 
; 82   : 	m_vCurList.clear();

  00083	8b 86 80 01 00
	00		 mov	 eax, DWORD PTR [esi+384]
  00089	8b 8e 7c 01 00
	00		 mov	 ecx, DWORD PTR [esi+380]
  0008f	50		 push	 eax
  00090	51		 push	 ecx
  00091	8d 45 ec	 lea	 eax, DWORD PTR $T518429[ebp]
  00094	50		 push	 eax
  00095	8d 8e 7c 01 00
	00		 lea	 ecx, DWORD PTR [esi+380]
  0009b	c6 45 fc 04	 mov	 BYTE PTR __$EHRec$[ebp+8], 4
  0009f	e8 00 00 00 00	 call	 ?erase@?$vector@UPowerupListInfo@@V?$allocator@UPowerupListInfo@@@std@@@std@@QAE?AV?$_Vector_iterator@V?$_Vector_val@UPowerupListInfo@@V?$allocator@UPowerupListInfo@@@std@@@std@@@2@V?$_Vector_const_iterator@V?$_Vector_val@UPowerupListInfo@@V?$allocator@UPowerupListInfo@@@std@@@std@@@2@0@Z ; std::vector<PowerupListInfo,std::allocator<PowerupListInfo> >::erase
  000a4	6a 02		 push	 2
  000a6	8d be 8c 01 00
	00		 lea	 edi, DWORD PTR [esi+396]
  000ac	5b		 pop	 ebx
$LL3@EnablePowe:

; 83   : 
; 84   : 	for ( int i= 0 ; i<MAX_TEXT ; ++i )
; 85   : 		m_UnderLinePrinter[i].ClearList();

  000ad	8b cf		 mov	 ecx, edi
  000af	e8 00 00 00 00	 call	 ?ClearList@ioComplexStringPrinter@@QAEXXZ ; ioComplexStringPrinter::ClearList
  000b4	83 c7 20	 add	 edi, 32			; 00000020H
  000b7	4b		 dec	 ebx
  000b8	75 f3		 jne	 SHORT $LL3@EnablePowe

; 86   : 
; 87   : 	m_PagePrinter.ClearList();

  000ba	8d 8e cc 01 00
	00		 lea	 ecx, DWORD PTR [esi+460]
  000c0	e8 00 00 00 00	 call	 ?ClearList@ioComplexStringPrinter@@QAEXXZ ; ioComplexStringPrinter::ClearList

; 88   : }

  000c5	8b c6		 mov	 eax, esi
  000c7	e8 00 00 00 00	 call	 __EH_epilog3
  000cc	c3		 ret	 0
_TEXT	ENDS
;	COMDAT text$x
text$x	SEGMENT
__unwindfunclet$??0EnablePowerupListWnd@@QAE@XZ$0:
  00000	8b 4d f0	 mov	 ecx, DWORD PTR _this$[ebp]
  00003	ff 25 00 00 00
	00		 jmp	 DWORD PTR __imp_??1ioWnd@@UAE@XZ
__unwindfunclet$??0EnablePowerupListWnd@@QAE@XZ$1:
  00009	8b 4d f0	 mov	 ecx, DWORD PTR _this$[ebp]
  0000c	81 c1 6c 01 00
	00		 add	 ecx, 364		; 0000016cH
  00012	ff 25 00 00 00
	00		 jmp	 DWORD PTR __imp_??1ioHashString@@QAE@XZ
__unwindfunclet$??0EnablePowerupListWnd@@QAE@XZ$2:
  00018	8b 4d f0	 mov	 ecx, DWORD PTR _this$[ebp]
  0001b	81 c1 7c 01 00
	00		 add	 ecx, 380		; 0000017cH
  00021	e9 00 00 00 00	 jmp	 ??1?$vector@UPowerupListInfo@@V?$allocator@UPowerupListInfo@@@std@@@std@@QAE@XZ ; std::vector<PowerupListInfo,std::allocator<PowerupListInfo> >::~vector<PowerupListInfo,std::allocator<PowerupListInfo> >
__unwindfunclet$??0EnablePowerupListWnd@@QAE@XZ$3:
  00026	68 00 00 00 00	 push	 OFFSET ??1ioComplexStringPrinter@@QAE@XZ ; ioComplexStringPrinter::~ioComplexStringPrinter
  0002b	6a 02		 push	 2
  0002d	6a 20		 push	 32			; 00000020H
  0002f	8b 45 f0	 mov	 eax, DWORD PTR _this$[ebp]
  00032	05 8c 01 00 00	 add	 eax, 396		; 0000018cH
  00037	50		 push	 eax
  00038	e8 00 00 00 00	 call	 ??_M@YGXPAXIHP6EX0@Z@Z
  0003d	c3		 ret	 0
__unwindfunclet$??0EnablePowerupListWnd@@QAE@XZ$4:
  0003e	8b 4d f0	 mov	 ecx, DWORD PTR _this$[ebp]
  00041	81 c1 cc 01 00
	00		 add	 ecx, 460		; 000001ccH
  00047	e9 00 00 00 00	 jmp	 ??1ioComplexStringPrinter@@QAE@XZ ; ioComplexStringPrinter::~ioComplexStringPrinter
__ehhandler$??0EnablePowerupListWnd@@QAE@XZ:
  0004c	8b 54 24 08	 mov	 edx, DWORD PTR [esp+8]
  00050	8d 42 0c	 lea	 eax, DWORD PTR [edx+12]
  00053	8b 4a e8	 mov	 ecx, DWORD PTR [edx-24]
  00056	33 c8		 xor	 ecx, eax
  00058	e8 00 00 00 00	 call	 @__security_check_cookie@4
  0005d	b8 00 00 00 00	 mov	 eax, OFFSET __ehfuncinfo$??0EnablePowerupListWnd@@QAE@XZ
  00062	e9 00 00 00 00	 jmp	 ___CxxFrameHandler3
text$x	ENDS
??0EnablePowerupListWnd@@QAE@XZ ENDP			; EnablePowerupListWnd::EnablePowerupListWnd
PUBLIC	??1EnablePowerupListWnd@@UAE@XZ			; EnablePowerupListWnd::~EnablePowerupListWnd
;	COMDAT xdata$x
; File c:\program files (x86)\microsoft visual studio 10.0\vc\include\vector
xdata$x	SEGMENT
__unwindtable$??1EnablePowerupListWnd@@UAE@XZ DD 0ffffffffH
	DD	FLAT:__unwindfunclet$??1EnablePowerupListWnd@@UAE@XZ$0
	DD	00H
	DD	FLAT:__unwindfunclet$??1EnablePowerupListWnd@@UAE@XZ$1
	DD	01H
	DD	FLAT:__unwindfunclet$??1EnablePowerupListWnd@@UAE@XZ$2
	DD	02H
	DD	FLAT:__unwindfunclet$??1EnablePowerupListWnd@@UAE@XZ$3
__ehfuncinfo$??1EnablePowerupListWnd@@UAE@XZ DD 019930522H
	DD	04H
	DD	FLAT:__unwindtable$??1EnablePowerupListWnd@@UAE@XZ
	DD	2 DUP(00H)
	DD	2 DUP(00H)
	DD	00H
	DD	01H
; Function compile flags: /Ogsp
; File d:\lost saga for developer\youtube\tutorial\source\src\lsclient\gui\enablepoweruplistwnd.cpp
xdata$x	ENDS
;	COMDAT ??1EnablePowerupListWnd@@UAE@XZ
_TEXT	SEGMENT
_this$ = -16						; size = 4
__$EHRec$ = -12						; size = 12
??1EnablePowerupListWnd@@UAE@XZ PROC			; EnablePowerupListWnd::~EnablePowerupListWnd, COMDAT
; _this$ = ecx

; 91   : {

  00000	6a 04		 push	 4
  00002	b8 00 00 00 00	 mov	 eax, __ehhandler$??1EnablePowerupListWnd@@UAE@XZ
  00007	e8 00 00 00 00	 call	 __EH_prolog3
  0000c	8b f1		 mov	 esi, ecx
  0000e	89 75 f0	 mov	 DWORD PTR _this$[ebp], esi
  00011	c7 06 00 00 00
	00		 mov	 DWORD PTR [esi], OFFSET ??_7EnablePowerupListWnd@@6B@

; 92   : }

  00017	8d 8e cc 01 00
	00		 lea	 ecx, DWORD PTR [esi+460]
  0001d	c7 45 fc 03 00
	00 00		 mov	 DWORD PTR __$EHRec$[ebp+8], 3
  00024	e8 00 00 00 00	 call	 ??1ioComplexStringPrinter@@QAE@XZ ; ioComplexStringPrinter::~ioComplexStringPrinter
  00029	68 00 00 00 00	 push	 OFFSET ??1ioComplexStringPrinter@@QAE@XZ ; ioComplexStringPrinter::~ioComplexStringPrinter
  0002e	6a 02		 push	 2
  00030	6a 20		 push	 32			; 00000020H
  00032	8d 86 8c 01 00
	00		 lea	 eax, DWORD PTR [esi+396]
  00038	50		 push	 eax
  00039	c6 45 fc 02	 mov	 BYTE PTR __$EHRec$[ebp+8], 2
  0003d	e8 00 00 00 00	 call	 ??_M@YGXPAXIHP6EX0@Z@Z
  00042	8d 8e 7c 01 00
	00		 lea	 ecx, DWORD PTR [esi+380]
  00048	c6 45 fc 01	 mov	 BYTE PTR __$EHRec$[ebp+8], 1
  0004c	e8 00 00 00 00	 call	 ?_Tidy@?$vector@UPowerupListInfo@@V?$allocator@UPowerupListInfo@@@std@@@std@@IAEXXZ ; std::vector<PowerupListInfo,std::allocator<PowerupListInfo> >::_Tidy
  00051	8d 8e 6c 01 00
	00		 lea	 ecx, DWORD PTR [esi+364]
  00057	c6 45 fc 00	 mov	 BYTE PTR __$EHRec$[ebp+8], 0
  0005b	ff 15 00 00 00
	00		 call	 DWORD PTR __imp_??1ioHashString@@QAE@XZ
  00061	83 4d fc ff	 or	 DWORD PTR __$EHRec$[ebp+8], -1
  00065	8b ce		 mov	 ecx, esi
  00067	ff 15 00 00 00
	00		 call	 DWORD PTR __imp_??1ioWnd@@UAE@XZ
  0006d	e8 00 00 00 00	 call	 __EH_epilog3
  00072	c3		 ret	 0
_TEXT	ENDS
;	COMDAT text$x
text$x	SEGMENT
__unwindfunclet$??1EnablePowerupListWnd@@UAE@XZ$0:
  00000	8b 4d f0	 mov	 ecx, DWORD PTR _this$[ebp]
  00003	ff 25 00 00 00
	00		 jmp	 DWORD PTR __imp_??1ioWnd@@UAE@XZ
__unwindfunclet$??1EnablePowerupListWnd@@UAE@XZ$1:
  00009	8b 4d f0	 mov	 ecx, DWORD PTR _this$[ebp]
  0000c	81 c1 6c 01 00
	00		 add	 ecx, 364		; 0000016cH
  00012	ff 25 00 00 00
	00		 jmp	 DWORD PTR __imp_??1ioHashString@@QAE@XZ
__unwindfunclet$??1EnablePowerupListWnd@@UAE@XZ$2:
  00018	8b 4d f0	 mov	 ecx, DWORD PTR _this$[ebp]
  0001b	81 c1 7c 01 00
	00		 add	 ecx, 380		; 0000017cH
  00021	e9 00 00 00 00	 jmp	 ??1?$vector@UPowerupListInfo@@V?$allocator@UPowerupListInfo@@@std@@@std@@QAE@XZ ; std::vector<PowerupListInfo,std::allocator<PowerupListInfo> >::~vector<PowerupListInfo,std::allocator<PowerupListInfo> >
__unwindfunclet$??1EnablePowerupListWnd@@UAE@XZ$3:
  00026	68 00 00 00 00	 push	 OFFSET ??1ioComplexStringPrinter@@QAE@XZ ; ioComplexStringPrinter::~ioComplexStringPrinter
  0002b	6a 02		 push	 2
  0002d	6a 20		 push	 32			; 00000020H
  0002f	8b 45 f0	 mov	 eax, DWORD PTR _this$[ebp]
  00032	05 8c 01 00 00	 add	 eax, 396		; 0000018cH
  00037	50		 push	 eax
  00038	e8 00 00 00 00	 call	 ??_M@YGXPAXIHP6EX0@Z@Z
  0003d	c3		 ret	 0
__ehhandler$??1EnablePowerupListWnd@@UAE@XZ:
  0003e	8b 54 24 08	 mov	 edx, DWORD PTR [esp+8]
  00042	8d 42 0c	 lea	 eax, DWORD PTR [edx+12]
  00045	8b 4a ec	 mov	 ecx, DWORD PTR [edx-20]
  00048	33 c8		 xor	 ecx, eax
  0004a	e8 00 00 00 00	 call	 @__security_check_cookie@4
  0004f	b8 00 00 00 00	 mov	 eax, OFFSET __ehfuncinfo$??1EnablePowerupListWnd@@UAE@XZ
  00054	e9 00 00 00 00	 jmp	 ___CxxFrameHandler3
text$x	ENDS
??1EnablePowerupListWnd@@UAE@XZ ENDP			; EnablePowerupListWnd::~EnablePowerupListWnd
PUBLIC	??1?$vector@UEXTRAITEMSLOT@@V?$allocator@UEXTRAITEMSLOT@@@std@@@std@@QAE@XZ ; std::vector<EXTRAITEMSLOT,std::allocator<EXTRAITEMSLOT> >::~vector<EXTRAITEMSLOT,std::allocator<EXTRAITEMSLOT> >
; Function compile flags: /Ogsp
; File c:\program files (x86)\microsoft visual studio 10.0\vc\include\vector
;	COMDAT ??1?$vector@UEXTRAITEMSLOT@@V?$allocator@UEXTRAITEMSLOT@@@std@@@std@@QAE@XZ
_TEXT	SEGMENT
??1?$vector@UEXTRAITEMSLOT@@V?$allocator@UEXTRAITEMSLOT@@@std@@@std@@QAE@XZ PROC ; std::vector<EXTRAITEMSLOT,std::allocator<EXTRAITEMSLOT> >::~vector<EXTRAITEMSLOT,std::allocator<EXTRAITEMSLOT> >, COMDAT
; _this$ = ecx

; 705  : 		_Tidy();

  00000	e9 00 00 00 00	 jmp	 ?_Tidy@?$vector@UEXTRAITEMSLOT@@V?$allocator@UEXTRAITEMSLOT@@@std@@@std@@IAEXXZ ; std::vector<EXTRAITEMSLOT,std::allocator<EXTRAITEMSLOT> >::_Tidy
??1?$vector@UEXTRAITEMSLOT@@V?$allocator@UEXTRAITEMSLOT@@@std@@@std@@QAE@XZ ENDP ; std::vector<EXTRAITEMSLOT,std::allocator<EXTRAITEMSLOT> >::~vector<EXTRAITEMSLOT,std::allocator<EXTRAITEMSLOT> >
_TEXT	ENDS
PUBLIC	?clear@?$vector@UEXTRAITEMSLOT@@V?$allocator@UEXTRAITEMSLOT@@@std@@@std@@QAEXXZ ; std::vector<EXTRAITEMSLOT,std::allocator<EXTRAITEMSLOT> >::clear
; Function compile flags: /Ogsp
;	COMDAT ?clear@?$vector@UEXTRAITEMSLOT@@V?$allocator@UEXTRAITEMSLOT@@@std@@@std@@QAEXXZ
_TEXT	SEGMENT
$T518489 = -4						; size = 4
?clear@?$vector@UEXTRAITEMSLOT@@V?$allocator@UEXTRAITEMSLOT@@@std@@@std@@QAEXXZ PROC ; std::vector<EXTRAITEMSLOT,std::allocator<EXTRAITEMSLOT> >::clear, COMDAT
; _this$ = ecx

; 1217 : 		{	// erase all

  00000	55		 push	 ebp
  00001	8b ec		 mov	 ebp, esp
  00003	51		 push	 ecx

; 1218 : 		erase(begin(), end());

  00004	8b 41 04	 mov	 eax, DWORD PTR [ecx+4]
  00007	8b 11		 mov	 edx, DWORD PTR [ecx]
  00009	50		 push	 eax
  0000a	52		 push	 edx
  0000b	8d 45 fc	 lea	 eax, DWORD PTR $T518489[ebp]
  0000e	50		 push	 eax
  0000f	e8 00 00 00 00	 call	 ?erase@?$vector@UEXTRAITEMSLOT@@V?$allocator@UEXTRAITEMSLOT@@@std@@@std@@QAE?AV?$_Vector_iterator@V?$_Vector_val@UEXTRAITEMSLOT@@V?$allocator@UEXTRAITEMSLOT@@@std@@@std@@@2@V?$_Vector_const_iterator@V?$_Vector_val@UEXTRAITEMSLOT@@V?$allocator@UEXTRAITEMSLOT@@@std@@@std@@@2@0@Z ; std::vector<EXTRAITEMSLOT,std::allocator<EXTRAITEMSLOT> >::erase

; 1219 : 		}

  00014	c9		 leave
  00015	c3		 ret	 0
?clear@?$vector@UEXTRAITEMSLOT@@V?$allocator@UEXTRAITEMSLOT@@@std@@@std@@QAEXXZ ENDP ; std::vector<EXTRAITEMSLOT,std::allocator<EXTRAITEMSLOT> >::clear
_TEXT	ENDS
PUBLIC	?push_back@?$vector@UPowerupListInfo@@V?$allocator@UPowerupListInfo@@@std@@@std@@QAEXABUPowerupListInfo@@@Z ; std::vector<PowerupListInfo,std::allocator<PowerupListInfo> >::push_back
; Function compile flags: /Ogsp
;	COMDAT ?push_back@?$vector@UPowerupListInfo@@V?$allocator@UPowerupListInfo@@@std@@@std@@QAEXABUPowerupListInfo@@@Z
_TEXT	SEGMENT
__Val$ = 8						; size = 4
?push_back@?$vector@UPowerupListInfo@@V?$allocator@UPowerupListInfo@@@std@@@std@@QAEXABUPowerupListInfo@@@Z PROC ; std::vector<PowerupListInfo,std::allocator<PowerupListInfo> >::push_back, COMDAT
; _this$ = ecx

; 976  : 		{	// insert element at end

  00000	55		 push	 ebp
  00001	8b ec		 mov	 ebp, esp
  00003	56		 push	 esi
  00004	8b f1		 mov	 esi, ecx

; 977  : 		if (_Inside(_STD addressof(_Val)))

  00006	8b 4e 04	 mov	 ecx, DWORD PTR [esi+4]
  00009	57		 push	 edi
  0000a	8b 7d 08	 mov	 edi, DWORD PTR __Val$[ebp]
  0000d	3b f9		 cmp	 edi, ecx
  0000f	73 34		 jae	 SHORT $LN4@push_back
  00011	8b 16		 mov	 edx, DWORD PTR [esi]
  00013	3b d7		 cmp	 edx, edi
  00015	77 2e		 ja	 SHORT $LN4@push_back

; 978  : 			{	// push back an element
; 979  : 			size_type _Idx = _STD addressof(_Val) - this->_Myfirst;

  00017	8b c7		 mov	 eax, edi
  00019	2b c2		 sub	 eax, edx
  0001b	6a 0c		 push	 12			; 0000000cH
  0001d	99		 cdq
  0001e	5f		 pop	 edi
  0001f	f7 ff		 idiv	 edi
  00021	8b f8		 mov	 edi, eax

; 980  : 			if (this->_Mylast == this->_Myend)

  00023	3b 4e 08	 cmp	 ecx, DWORD PTR [esi+8]
  00026	75 09		 jne	 SHORT $LN3@push_back

; 981  : 				_Reserve(1);

  00028	6a 01		 push	 1
  0002a	8b ce		 mov	 ecx, esi
  0002c	e8 00 00 00 00	 call	 ?_Reserve@?$vector@UPowerupListInfo@@V?$allocator@UPowerupListInfo@@@std@@@std@@IAEXI@Z ; std::vector<PowerupListInfo,std::allocator<PowerupListInfo> >::_Reserve
$LN3@push_back:

; 982  : 			_Orphan_range(this->_Mylast, this->_Mylast);
; 983  : 			_Cons_val(this->_Alval,
; 984  : 				this->_Mylast,
; 985  : 				this->_Myfirst[_Idx]);

  00031	6b ff 0c	 imul	 edi, 12			; 0000000cH
  00034	03 3e		 add	 edi, DWORD PTR [esi]
  00036	8d 46 0c	 lea	 eax, DWORD PTR [esi+12]
  00039	57		 push	 edi
  0003a	ff 76 04	 push	 DWORD PTR [esi+4]
  0003d	50		 push	 eax
  0003e	e8 00 00 00 00	 call	 ??$_Cons_val@V?$allocator@UPowerupListInfo@@@std@@UPowerupListInfo@@AAU3@@std@@YAXAAV?$allocator@UPowerupListInfo@@@0@PAUPowerupListInfo@@AAU2@@Z ; std::_Cons_val<std::allocator<PowerupListInfo>,PowerupListInfo,PowerupListInfo &>

; 986  : 			++this->_Mylast;
; 987  : 			}
; 988  : 		else

  00043	eb 1b		 jmp	 SHORT $LN20@push_back
$LN4@push_back:

; 989  : 			{	// push back a non-element
; 990  : 			if (this->_Mylast == this->_Myend)

  00045	3b 4e 08	 cmp	 ecx, DWORD PTR [esi+8]
  00048	75 09		 jne	 SHORT $LN1@push_back

; 991  : 				_Reserve(1);

  0004a	6a 01		 push	 1
  0004c	8b ce		 mov	 ecx, esi
  0004e	e8 00 00 00 00	 call	 ?_Reserve@?$vector@UPowerupListInfo@@V?$allocator@UPowerupListInfo@@@std@@@std@@IAEXI@Z ; std::vector<PowerupListInfo,std::allocator<PowerupListInfo> >::_Reserve
$LN1@push_back:

; 992  : 			_Orphan_range(this->_Mylast, this->_Mylast);
; 993  : 			_Cons_val(this->_Alval,
; 994  : 				this->_Mylast,
; 995  : 				_Val);

  00053	57		 push	 edi
  00054	ff 76 04	 push	 DWORD PTR [esi+4]
  00057	8d 46 0c	 lea	 eax, DWORD PTR [esi+12]
  0005a	50		 push	 eax
  0005b	e8 00 00 00 00	 call	 ??$_Cons_val@V?$allocator@UPowerupListInfo@@@std@@UPowerupListInfo@@ABU3@@std@@YAXAAV?$allocator@UPowerupListInfo@@@0@PAUPowerupListInfo@@ABU2@@Z ; std::_Cons_val<std::allocator<PowerupListInfo>,PowerupListInfo,PowerupListInfo const &>
$LN20@push_back:
  00060	83 c4 0c	 add	 esp, 12			; 0000000cH

; 996  : 			++this->_Mylast;

  00063	83 46 04 0c	 add	 DWORD PTR [esi+4], 12	; 0000000cH
  00067	5f		 pop	 edi
  00068	5e		 pop	 esi

; 997  : 			}
; 998  : 		}

  00069	5d		 pop	 ebp
  0006a	c2 04 00	 ret	 4
?push_back@?$vector@UPowerupListInfo@@V?$allocator@UPowerupListInfo@@@std@@@std@@QAEXABUPowerupListInfo@@@Z ENDP ; std::vector<PowerupListInfo,std::allocator<PowerupListInfo> >::push_back
_TEXT	ENDS
PUBLIC	??$_Copy_impl@PAV?$basic_string@DU?$char_traits@D@std@@V?$allocator@D@2@@std@@PAV12@@std@@YAPAV?$basic_string@DU?$char_traits@D@std@@V?$allocator@D@2@@0@PAV10@00@Z ; std::_Copy_impl<std::basic_string<char,std::char_traits<char>,std::allocator<char> > *,std::basic_string<char,std::char_traits<char>,std::allocator<char> > *>
; Function compile flags: /Ogsp
; File c:\program files (x86)\microsoft visual studio 10.0\vc\include\xutility
;	COMDAT ??$_Copy_impl@PAV?$basic_string@DU?$char_traits@D@std@@V?$allocator@D@2@@std@@PAV12@@std@@YAPAV?$basic_string@DU?$char_traits@D@std@@V?$allocator@D@2@@0@PAV10@00@Z
_TEXT	SEGMENT
__Cat$518568 = -4					; size = 1
__First$ = 8						; size = 4
__Last$ = 12						; size = 4
__Dest$ = 16						; size = 4
??$_Copy_impl@PAV?$basic_string@DU?$char_traits@D@std@@V?$allocator@D@2@@std@@PAV12@@std@@YAPAV?$basic_string@DU?$char_traits@D@std@@V?$allocator@D@2@@0@PAV10@00@Z PROC ; std::_Copy_impl<std::basic_string<char,std::char_traits<char>,std::allocator<char> > *,std::basic_string<char,std::char_traits<char>,std::allocator<char> > *>, COMDAT

; 2163 : 	{	// copy [_First, _Last) to [_Dest, ...)

  00000	55		 push	 ebp
  00001	8b ec		 mov	 ebp, esp
  00003	51		 push	 ecx

; 2164 : 	return (_Copy_impl(_First, _Last,
; 2165 : 		_Dest, _Ptr_cat(_First, _Dest)));

  00004	ff 75 fc	 push	 DWORD PTR __Cat$518568[ebp]
  00007	ff 75 10	 push	 DWORD PTR __Dest$[ebp]
  0000a	ff 75 0c	 push	 DWORD PTR __Last$[ebp]
  0000d	ff 75 08	 push	 DWORD PTR __First$[ebp]
  00010	e8 00 00 00 00	 call	 ??$_Copy_impl@PAV?$basic_string@DU?$char_traits@D@std@@V?$allocator@D@2@@std@@PAV12@@std@@YAPAV?$basic_string@DU?$char_traits@D@std@@V?$allocator@D@2@@0@PAV10@00U_Nonscalar_ptr_iterator_tag@0@@Z ; std::_Copy_impl<std::basic_string<char,std::char_traits<char>,std::allocator<char> > *,std::basic_string<char,std::char_traits<char>,std::allocator<char> > *>
  00015	83 c4 10	 add	 esp, 16			; 00000010H

; 2166 : 	}

  00018	c9		 leave
  00019	c3		 ret	 0
??$_Copy_impl@PAV?$basic_string@DU?$char_traits@D@std@@V?$allocator@D@2@@std@@PAV12@@std@@YAPAV?$basic_string@DU?$char_traits@D@std@@V?$allocator@D@2@@0@PAV10@00@Z ENDP ; std::_Copy_impl<std::basic_string<char,std::char_traits<char>,std::allocator<char> > *,std::basic_string<char,std::char_traits<char>,std::allocator<char> > *>
_TEXT	ENDS
PUBLIC	??$_Move@PAV?$basic_string@DU?$char_traits@D@std@@V?$allocator@D@2@@std@@PAV12@@std@@YAPAV?$basic_string@DU?$char_traits@D@std@@V?$allocator@D@2@@0@PAV10@00U_Nonscalar_ptr_iterator_tag@0@@Z ; std::_Move<std::basic_string<char,std::char_traits<char>,std::allocator<char> > *,std::basic_string<char,std::char_traits<char>,std::allocator<char> > *>
; Function compile flags: /Ogsp
;	COMDAT ??$_Move@PAV?$basic_string@DU?$char_traits@D@std@@V?$allocator@D@2@@std@@PAV12@@std@@YAPAV?$basic_string@DU?$char_traits@D@std@@V?$allocator@D@2@@0@PAV10@00U_Nonscalar_ptr_iterator_tag@0@@Z
_TEXT	SEGMENT
__First$ = 8						; size = 4
__Last$ = 12						; size = 4
__Dest$ = 16						; size = 4
___formal$ = 20						; size = 1
??$_Move@PAV?$basic_string@DU?$char_traits@D@std@@V?$allocator@D@2@@std@@PAV12@@std@@YAPAV?$basic_string@DU?$char_traits@D@std@@V?$allocator@D@2@@0@PAV10@00U_Nonscalar_ptr_iterator_tag@0@@Z PROC ; std::_Move<std::basic_string<char,std::char_traits<char>,std::allocator<char> > *,std::basic_string<char,std::char_traits<char>,std::allocator<char> > *>, COMDAT

; 2512 : 	{	// move [_First, _Last) to [_Dest, ...), arbitrary iterators

  00000	55		 push	 ebp
  00001	8b ec		 mov	 ebp, esp
  00003	56		 push	 esi

; 2513 : 	for (; _First != _Last; ++_Dest, ++_First)

  00004	8b 75 08	 mov	 esi, DWORD PTR __First$[ebp]
  00007	eb 10		 jmp	 SHORT $LN15@Move@3
$LL3@Move@3:

; 2514 : 		*_Dest = _STD move(*_First);

  00009	8b 4d 10	 mov	 ecx, DWORD PTR __Dest$[ebp]
  0000c	56		 push	 esi
  0000d	e8 00 00 00 00	 call	 ?assign@?$basic_string@DU?$char_traits@D@std@@V?$allocator@D@2@@std@@QAEAAV12@$$QAV12@@Z ; std::basic_string<char,std::char_traits<char>,std::allocator<char> >::assign
  00012	83 45 10 1c	 add	 DWORD PTR __Dest$[ebp], 28 ; 0000001cH
  00016	83 c6 1c	 add	 esi, 28			; 0000001cH
$LN15@Move@3:

; 2513 : 	for (; _First != _Last; ++_Dest, ++_First)

  00019	3b 75 0c	 cmp	 esi, DWORD PTR __Last$[ebp]
  0001c	75 eb		 jne	 SHORT $LL3@Move@3

; 2515 : 	return (_Dest);

  0001e	8b 45 10	 mov	 eax, DWORD PTR __Dest$[ebp]
  00021	5e		 pop	 esi

; 2516 : 	}

  00022	5d		 pop	 ebp
  00023	c3		 ret	 0
??$_Move@PAV?$basic_string@DU?$char_traits@D@std@@V?$allocator@D@2@@std@@PAV12@@std@@YAPAV?$basic_string@DU?$char_traits@D@std@@V?$allocator@D@2@@0@PAV10@00U_Nonscalar_ptr_iterator_tag@0@@Z ENDP ; std::_Move<std::basic_string<char,std::char_traits<char>,std::allocator<char> > *,std::basic_string<char,std::char_traits<char>,std::allocator<char> > *>
_TEXT	ENDS
PUBLIC	??$_Uninit_copy@PAV?$basic_string@DU?$char_traits@D@std@@V?$allocator@D@2@@std@@PAV12@V?$allocator@V?$basic_string@DU?$char_traits@D@std@@V?$allocator@D@2@@std@@@2@@std@@YAPAV?$basic_string@DU?$char_traits@D@std@@V?$allocator@D@2@@0@PAV10@00AAV?$allocator@V?$basic_string@DU?$char_traits@D@std@@V?$allocator@D@2@@std@@@0@U_Nonscalar_ptr_iterator_tag@0@@Z ; std::_Uninit_copy<std::basic_string<char,std::char_traits<char>,std::allocator<char> > *,std::basic_string<char,std::char_traits<char>,std::allocator<char> > *,std::allocator<std::basic_string<char,std::char_traits<char>,std::allocator<char> > > >
;	COMDAT xdata$x
; File c:\program files (x86)\microsoft visual studio 10.0\vc\include\xstring
xdata$x	SEGMENT
__catchsym$??$_Uninit_copy@PAV?$basic_string@DU?$char_traits@D@std@@V?$allocator@D@2@@std@@PAV12@V?$allocator@V?$basic_string@DU?$char_traits@D@std@@V?$allocator@D@2@@std@@@2@@std@@YAPAV?$basic_string@DU?$char_traits@D@std@@V?$allocator@D@2@@0@PAV10@00AAV?$allocator@V?$basic_string@DU?$char_traits@D@std@@V?$allocator@D@2@@std@@@0@U_Nonscalar_ptr_iterator_tag@0@@Z$2 DD 040H
	DD	00H
	DD	00H
	DD	FLAT:__catch$??$_Uninit_copy@PAV?$basic_string@DU?$char_traits@D@std@@V?$allocator@D@2@@std@@PAV12@V?$allocator@V?$basic_string@DU?$char_traits@D@std@@V?$allocator@D@2@@std@@@2@@std@@YAPAV?$basic_string@DU?$char_traits@D@std@@V?$allocator@D@2@@0@PAV10@00AAV?$allocator@V?$basic_string@DU?$char_traits@D@std@@V?$allocator@D@2@@std@@@0@U_Nonscalar_ptr_iterator_tag@0@@Z$0
__unwindtable$??$_Uninit_copy@PAV?$basic_string@DU?$char_traits@D@std@@V?$allocator@D@2@@std@@PAV12@V?$allocator@V?$basic_string@DU?$char_traits@D@std@@V?$allocator@D@2@@std@@@2@@std@@YAPAV?$basic_string@DU?$char_traits@D@std@@V?$allocator@D@2@@0@PAV10@00AAV?$allocator@V?$basic_string@DU?$char_traits@D@std@@V?$allocator@D@2@@std@@@0@U_Nonscalar_ptr_iterator_tag@0@@Z DD 0ffffffffH
	DD	00H
	DD	0ffffffffH
	DD	00H
__tryblocktable$??$_Uninit_copy@PAV?$basic_string@DU?$char_traits@D@std@@V?$allocator@D@2@@std@@PAV12@V?$allocator@V?$basic_string@DU?$char_traits@D@std@@V?$allocator@D@2@@std@@@2@@std@@YAPAV?$basic_string@DU?$char_traits@D@std@@V?$allocator@D@2@@0@PAV10@00AAV?$allocator@V?$basic_string@DU?$char_traits@D@std@@V?$allocator@D@2@@std@@@0@U_Nonscalar_ptr_iterator_tag@0@@Z DD 00H
	DD	00H
	DD	01H
	DD	01H
	DD	FLAT:__catchsym$??$_Uninit_copy@PAV?$basic_string@DU?$char_traits@D@std@@V?$allocator@D@2@@std@@PAV12@V?$allocator@V?$basic_string@DU?$char_traits@D@std@@V?$allocator@D@2@@std@@@2@@std@@YAPAV?$basic_string@DU?$char_traits@D@std@@V?$allocator@D@2@@0@PAV10@00AAV?$allocator@V?$basic_string@DU?$char_traits@D@std@@V?$allocator@D@2@@std@@@0@U_Nonscalar_ptr_iterator_tag@0@@Z$2
__ehfuncinfo$??$_Uninit_copy@PAV?$basic_string@DU?$char_traits@D@std@@V?$allocator@D@2@@std@@PAV12@V?$allocator@V?$basic_string@DU?$char_traits@D@std@@V?$allocator@D@2@@std@@@2@@std@@YAPAV?$basic_string@DU?$char_traits@D@std@@V?$allocator@D@2@@0@PAV10@00AAV?$allocator@V?$basic_string@DU?$char_traits@D@std@@V?$allocator@D@2@@std@@@0@U_Nonscalar_ptr_iterator_tag@0@@Z DD 019930522H
	DD	02H
	DD	FLAT:__unwindtable$??$_Uninit_copy@PAV?$basic_string@DU?$char_traits@D@std@@V?$allocator@D@2@@std@@PAV12@V?$allocator@V?$basic_string@DU?$char_traits@D@std@@V?$allocator@D@2@@std@@@2@@std@@YAPAV?$basic_string@DU?$char_traits@D@std@@V?$allocator@D@2@@0@PAV10@00AAV?$allocator@V?$basic_string@DU?$char_traits@D@std@@V?$allocator@D@2@@std@@@0@U_Nonscalar_ptr_iterator_tag@0@@Z
	DD	01H
	DD	FLAT:__tryblocktable$??$_Uninit_copy@PAV?$basic_string@DU?$char_traits@D@std@@V?$allocator@D@2@@std@@PAV12@V?$allocator@V?$basic_string@DU?$char_traits@D@std@@V?$allocator@D@2@@std@@@2@@std@@YAPAV?$basic_string@DU?$char_traits@D@std@@V?$allocator@D@2@@0@PAV10@00AAV?$allocator@V?$basic_string@DU?$char_traits@D@std@@V?$allocator@D@2@@std@@@0@U_Nonscalar_ptr_iterator_tag@0@@Z
	DD	2 DUP(00H)
	DD	00H
	DD	01H
; Function compile flags: /Ogsp
; File c:\program files (x86)\microsoft visual studio 10.0\vc\include\memory
xdata$x	ENDS
;	COMDAT ??$_Uninit_copy@PAV?$basic_string@DU?$char_traits@D@std@@V?$allocator@D@2@@std@@PAV12@V?$allocator@V?$basic_string@DU?$char_traits@D@std@@V?$allocator@D@2@@std@@@2@@std@@YAPAV?$basic_string@DU?$char_traits@D@std@@V?$allocator@D@2@@0@PAV10@00AAV?$allocator@V?$basic_string@DU?$char_traits@D@std@@V?$allocator@D@2@@std@@@0@U_Nonscalar_ptr_iterator_tag@0@@Z
_TEXT	SEGMENT
__Next$ = -20						; size = 4
__$EHRec$ = -16						; size = 16
__First$ = 8						; size = 4
__Last$ = 12						; size = 4
__Dest$ = 16						; size = 4
__Al$ = 20						; size = 4
___formal$ = 24						; size = 1
??$_Uninit_copy@PAV?$basic_string@DU?$char_traits@D@std@@V?$allocator@D@2@@std@@PAV12@V?$allocator@V?$basic_string@DU?$char_traits@D@std@@V?$allocator@D@2@@std@@@2@@std@@YAPAV?$basic_string@DU?$char_traits@D@std@@V?$allocator@D@2@@0@PAV10@00AAV?$allocator@V?$basic_string@DU?$char_traits@D@std@@V?$allocator@D@2@@std@@@0@U_Nonscalar_ptr_iterator_tag@0@@Z PROC ; std::_Uninit_copy<std::basic_string<char,std::char_traits<char>,std::allocator<char> > *,std::basic_string<char,std::char_traits<char>,std::allocator<char> > *,std::allocator<std::basic_string<char,std::char_traits<char>,std::allocator<char> > > >, COMDAT

; 369  : 	{	// copy [_First, _Last) to raw _Dest, using _Al, arbitrary type

  00000	6a 08		 push	 8
  00002	b8 00 00 00 00	 mov	 eax, __ehhandler$??$_Uninit_copy@PAV?$basic_string@DU?$char_traits@D@std@@V?$allocator@D@2@@std@@PAV12@V?$allocator@V?$basic_string@DU?$char_traits@D@std@@V?$allocator@D@2@@std@@@2@@std@@YAPAV?$basic_string@DU?$char_traits@D@std@@V?$allocator@D@2@@0@PAV10@00AAV?$allocator@V?$basic_string@DU?$char_traits@D@std@@V?$allocator@D@2@@std@@@0@U_Nonscalar_ptr_iterator_tag@0@@Z
  00007	e8 00 00 00 00	 call	 __EH_prolog3_catch

; 370  : 	_DEBUG_RANGE(_First, _Last);
; 371  : 	_DEBUG_POINTER(_Dest);
; 372  : 	_FwdIt _Next = _Dest;

  0000c	8b 45 10	 mov	 eax, DWORD PTR __Dest$[ebp]

; 373  : 
; 374  : 	_TRY_BEGIN

  0000f	83 65 fc 00	 and	 DWORD PTR __$EHRec$[ebp+12], 0
  00013	8b 75 08	 mov	 esi, DWORD PTR __First$[ebp]
  00016	89 45 ec	 mov	 DWORD PTR __Next$[ebp], eax
$LL6@Uninit_cop@2:

; 375  : 	for (; _First != _Last; ++_Dest, ++_First)

  00019	3b 75 0c	 cmp	 esi, DWORD PTR __Last$[ebp]
  0001c	74 37		 je	 SHORT $LN4@Uninit_cop@2

; 376  : 		_Cons_val(_Al, _Dest, *_First);

  0001e	56		 push	 esi
  0001f	ff 75 10	 push	 DWORD PTR __Dest$[ebp]
  00022	ff 75 14	 push	 DWORD PTR __Al$[ebp]
  00025	e8 00 00 00 00	 call	 ??$_Cons_val@V?$allocator@V?$basic_string@DU?$char_traits@D@std@@V?$allocator@D@2@@std@@@std@@V?$basic_string@DU?$char_traits@D@std@@V?$allocator@D@2@@2@AAV32@@std@@YAXAAV?$allocator@V?$basic_string@DU?$char_traits@D@std@@V?$allocator@D@2@@std@@@0@PAV?$basic_string@DU?$char_traits@D@std@@V?$allocator@D@2@@0@AAV20@@Z ; std::_Cons_val<std::allocator<std::basic_string<char,std::char_traits<char>,std::allocator<char> > >,std::basic_string<char,std::char_traits<char>,std::allocator<char> >,std::basic_string<char,std::char_traits<char>,std::allocator<char> > &>
  0002a	83 45 10 1c	 add	 DWORD PTR __Dest$[ebp], 28 ; 0000001cH
  0002e	83 c4 0c	 add	 esp, 12			; 0000000cH
  00031	83 c6 1c	 add	 esi, 28			; 0000001cH
  00034	eb e3		 jmp	 SHORT $LL6@Uninit_cop@2
__catch$??$_Uninit_copy@PAV?$basic_string@DU?$char_traits@D@std@@V?$allocator@D@2@@std@@PAV12@V?$allocator@V?$basic_string@DU?$char_traits@D@std@@V?$allocator@D@2@@std@@@2@@std@@YAPAV?$basic_string@DU?$char_traits@D@std@@V?$allocator@D@2@@0@PAV10@00AAV?$allocator@V?$basic_string@DU?$char_traits@D@std@@V?$allocator@D@2@@std@@@0@U_Nonscalar_ptr_iterator_tag@0@@Z$0:

; 377  : 	_CATCH_ALL
; 378  : 	for (; _Next != _Dest; ++_Next)

  00036	8b 75 ec	 mov	 esi, DWORD PTR __Next$[ebp]
  00039	eb 0c		 jmp	 SHORT $LN34@Uninit_cop@2
$LL3@Uninit_cop@2:

; 379  : 		_Dest_val(_Al, _Next);

  0003b	6a 01		 push	 1
  0003d	8b ce		 mov	 ecx, esi
  0003f	e8 00 00 00 00	 call	 ?_Tidy@?$basic_string@DU?$char_traits@D@std@@V?$allocator@D@2@@std@@QAEX_NI@Z ; std::basic_string<char,std::char_traits<char>,std::allocator<char> >::_Tidy
  00044	83 c6 1c	 add	 esi, 28			; 0000001cH
$LN34@Uninit_cop@2:

; 380  : 	_RERAISE;

  00047	6a 00		 push	 0
  00049	3b 75 10	 cmp	 esi, DWORD PTR __Dest$[ebp]
  0004c	75 ed		 jne	 SHORT $LL3@Uninit_cop@2
  0004e	6a 00		 push	 0
  00050	e8 00 00 00 00	 call	 __CxxThrowException@8
$LN35@Uninit_cop@2:
$LN4@Uninit_cop@2:

; 381  : 	_CATCH_END
; 382  : 	return (_Dest);

  00055	8b 45 10	 mov	 eax, DWORD PTR __Dest$[ebp]

; 383  : 	}

  00058	e8 00 00 00 00	 call	 __EH_epilog3
  0005d	c3		 ret	 0
$LN33@Uninit_cop@2:
_TEXT	ENDS
;	COMDAT text$x
text$x	SEGMENT
__ehhandler$??$_Uninit_copy@PAV?$basic_string@DU?$char_traits@D@std@@V?$allocator@D@2@@std@@PAV12@V?$allocator@V?$basic_string@DU?$char_traits@D@std@@V?$allocator@D@2@@std@@@2@@std@@YAPAV?$basic_string@DU?$char_traits@D@std@@V?$allocator@D@2@@0@PAV10@00AAV?$allocator@V?$basic_string@DU?$char_traits@D@std@@V?$allocator@D@2@@std@@@0@U_Nonscalar_ptr_iterator_tag@0@@Z:
  00000	8b 54 24 08	 mov	 edx, DWORD PTR [esp+8]
  00004	8d 42 0c	 lea	 eax, DWORD PTR [edx+12]
  00007	8b 4a e8	 mov	 ecx, DWORD PTR [edx-24]
  0000a	33 c8		 xor	 ecx, eax
  0000c	e8 00 00 00 00	 call	 @__security_check_cookie@4
  00011	b8 00 00 00 00	 mov	 eax, OFFSET __ehfuncinfo$??$_Uninit_copy@PAV?$basic_string@DU?$char_traits@D@std@@V?$allocator@D@2@@std@@PAV12@V?$allocator@V?$basic_string@DU?$char_traits@D@std@@V?$allocator@D@2@@std@@@2@@std@@YAPAV?$basic_string@DU?$char_traits@D@std@@V?$allocator@D@2@@0@PAV10@00AAV?$allocator@V?$basic_string@DU?$char_traits@D@std@@V?$allocator@D@2@@std@@@0@U_Nonscalar_ptr_iterator_tag@0@@Z
  00016	e9 00 00 00 00	 jmp	 ___CxxFrameHandler3
text$x	ENDS
??$_Uninit_copy@PAV?$basic_string@DU?$char_traits@D@std@@V?$allocator@D@2@@std@@PAV12@V?$allocator@V?$basic_string@DU?$char_traits@D@std@@V?$allocator@D@2@@std@@@2@@std@@YAPAV?$basic_string@DU?$char_traits@D@std@@V?$allocator@D@2@@0@PAV10@00AAV?$allocator@V?$basic_string@DU?$char_traits@D@std@@V?$allocator@D@2@@std@@@0@U_Nonscalar_ptr_iterator_tag@0@@Z ENDP ; std::_Uninit_copy<std::basic_string<char,std::char_traits<char>,std::allocator<char> > *,std::basic_string<char,std::char_traits<char>,std::allocator<char> > *,std::allocator<std::basic_string<char,std::char_traits<char>,std::allocator<char> > > >
PUBLIC	??$_Destroy_range@V?$allocator@V?$basic_string@DU?$char_traits@D@std@@V?$allocator@D@2@@std@@@std@@@std@@YAXPAV?$basic_string@DU?$char_traits@D@std@@V?$allocator@D@2@@0@0AAV?$allocator@V?$basic_string@DU?$char_traits@D@std@@V?$allocator@D@2@@std@@@0@@Z ; std::_Destroy_range<std::allocator<std::basic_string<char,std::char_traits<char>,std::allocator<char> > > >
; Function compile flags: /Ogsp
; File c:\program files (x86)\microsoft visual studio 10.0\vc\include\xmemory
;	COMDAT ??$_Destroy_range@V?$allocator@V?$basic_string@DU?$char_traits@D@std@@V?$allocator@D@2@@std@@@std@@@std@@YAXPAV?$basic_string@DU?$char_traits@D@std@@V?$allocator@D@2@@0@0AAV?$allocator@V?$basic_string@DU?$char_traits@D@std@@V?$allocator@D@2@@std@@@0@@Z
_TEXT	SEGMENT
__Cat$518666 = -4					; size = 1
__First$ = 8						; size = 4
__Last$ = 12						; size = 4
__Al$ = 16						; size = 4
??$_Destroy_range@V?$allocator@V?$basic_string@DU?$char_traits@D@std@@V?$allocator@D@2@@std@@@std@@@std@@YAXPAV?$basic_string@DU?$char_traits@D@std@@V?$allocator@D@2@@0@0AAV?$allocator@V?$basic_string@DU?$char_traits@D@std@@V?$allocator@D@2@@std@@@0@@Z PROC ; std::_Destroy_range<std::allocator<std::basic_string<char,std::char_traits<char>,std::allocator<char> > > >, COMDAT

; 87   : 	{	// destroy [_First, _Last)

  00000	55		 push	 ebp
  00001	8b ec		 mov	 ebp, esp
  00003	51		 push	 ecx

; 88   : 	_Destroy_range(_First, _Last, _Al, _Ptr_cat(_First, _Last));

  00004	ff 75 fc	 push	 DWORD PTR __Cat$518666[ebp]
  00007	ff 75 10	 push	 DWORD PTR __Al$[ebp]
  0000a	ff 75 0c	 push	 DWORD PTR __Last$[ebp]
  0000d	ff 75 08	 push	 DWORD PTR __First$[ebp]
  00010	e8 00 00 00 00	 call	 ??$_Destroy_range@V?$allocator@V?$basic_string@DU?$char_traits@D@std@@V?$allocator@D@2@@std@@@std@@@std@@YAXPAV?$basic_string@DU?$char_traits@D@std@@V?$allocator@D@2@@0@0AAV?$allocator@V?$basic_string@DU?$char_traits@D@std@@V?$allocator@D@2@@std@@@0@U_Nonscalar_ptr_iterator_tag@0@@Z ; std::_Destroy_range<std::allocator<std::basic_string<char,std::char_traits<char>,std::allocator<char> > > >
  00015	83 c4 10	 add	 esp, 16			; 00000010H

; 89   : 	}

  00018	c9		 leave
  00019	c3		 ret	 0
??$_Destroy_range@V?$allocator@V?$basic_string@DU?$char_traits@D@std@@V?$allocator@D@2@@std@@@std@@@std@@YAXPAV?$basic_string@DU?$char_traits@D@std@@V?$allocator@D@2@@0@0AAV?$allocator@V?$basic_string@DU?$char_traits@D@std@@V?$allocator@D@2@@std@@@0@@Z ENDP ; std::_Destroy_range<std::allocator<std::basic_string<char,std::char_traits<char>,std::allocator<char> > > >
; Function compile flags: /Ogsp
_TEXT	ENDS
;	COMDAT ??_GEnablePowerupListWnd@@UAEPAXI@Z
_TEXT	SEGMENT
___flags$ = 8						; size = 4
??_GEnablePowerupListWnd@@UAEPAXI@Z PROC		; EnablePowerupListWnd::`scalar deleting destructor', COMDAT
; _this$ = ecx
  00000	55		 push	 ebp
  00001	8b ec		 mov	 ebp, esp
  00003	56		 push	 esi
  00004	8b f1		 mov	 esi, ecx
  00006	e8 00 00 00 00	 call	 ??1EnablePowerupListWnd@@UAE@XZ ; EnablePowerupListWnd::~EnablePowerupListWnd
  0000b	f6 45 08 01	 test	 BYTE PTR ___flags$[ebp], 1
  0000f	74 07		 je	 SHORT $LN1@scalar@5
  00011	56		 push	 esi
  00012	e8 00 00 00 00	 call	 ??3@YAXPAX@Z		; operator delete
  00017	59		 pop	 ecx
$LN1@scalar@5:
  00018	8b c6		 mov	 eax, esi
  0001a	5e		 pop	 esi
  0001b	5d		 pop	 ebp
  0001c	c2 04 00	 ret	 4
??_GEnablePowerupListWnd@@UAEPAXI@Z ENDP		; EnablePowerupListWnd::`scalar deleting destructor'
_TEXT	ENDS
PUBLIC	??_C@_0CC@HICPNGDF@EnablePowerupListWnd?3?3SetItemLis@ ; `string'
PUBLIC	?SetItemList@EnablePowerupListWnd@@IAEXV?$vector@HV?$allocator@H@std@@@std@@AAV?$vector@UPowerupListInfo@@V?$allocator@UPowerupListInfo@@@std@@@3@@Z ; EnablePowerupListWnd::SetItemList
EXTRN	?FindAllItem@ioUserExtraItem@@QAEXHAAV?$vector@UEXTRAITEMSLOT@@V?$allocator@UEXTRAITEMSLOT@@@std@@@std@@@Z:PROC ; ioUserExtraItem::FindAllItem
EXTRN	?GetItemConst@ioItemMaker@@QBEPBVioItem@@KABVioHashString@@@Z:PROC ; ioItemMaker::GetItemConst
EXTRN	?GetSingleton@ioItemMaker@@SAAAV1@XZ:PROC	; ioItemMaker::GetSingleton
EXTRN	__imp_??0ioHashString@@QAE@PBD@Z:PROC
EXTRN	?GetSingleton@ioMyInfo@@SAAAV1@XZ:PROC		; ioMyInfo::GetSingleton
EXTRN	?CheckEnableCharPowerUp@ioPowerUpManager@@QAE_NHAAVioHashString@@@Z:PROC ; ioPowerUpManager::CheckEnableCharPowerUp
;	COMDAT ??_C@_0CC@HICPNGDF@EnablePowerupListWnd?3?3SetItemLis@
; File c:\program files (x86)\microsoft visual studio 10.0\vc\include\vector
CONST	SEGMENT
??_C@_0CC@HICPNGDF@EnablePowerupListWnd?3?3SetItemLis@ DB 'EnablePowerupL'
	DB	'istWnd::SetItemList', 00H			; `string'
CONST	ENDS
;	COMDAT xdata$x
xdata$x	SEGMENT
__ehfuncinfo$?SetItemList@EnablePowerupListWnd@@IAEXV?$vector@HV?$allocator@H@std@@@std@@AAV?$vector@UPowerupListInfo@@V?$allocator@UPowerupListInfo@@@std@@@3@@Z DD 019930522H
	DD	08H
	DD	FLAT:__unwindtable$?SetItemList@EnablePowerupListWnd@@IAEXV?$vector@HV?$allocator@H@std@@@std@@AAV?$vector@UPowerupListInfo@@V?$allocator@UPowerupListInfo@@@std@@@3@@Z
	DD	2 DUP(00H)
	DD	2 DUP(00H)
	DD	00H
	DD	01H
__unwindtable$?SetItemList@EnablePowerupListWnd@@IAEXV?$vector@HV?$allocator@H@std@@@std@@AAV?$vector@UPowerupListInfo@@V?$allocator@UPowerupListInfo@@@std@@@3@@Z DD 0ffffffffH
	DD	FLAT:__unwindfunclet$?SetItemList@EnablePowerupListWnd@@IAEXV?$vector@HV?$allocator@H@std@@@std@@AAV?$vector@UPowerupListInfo@@V?$allocator@UPowerupListInfo@@@std@@@3@@Z$0
	DD	00H
	DD	FLAT:__unwindfunclet$?SetItemList@EnablePowerupListWnd@@IAEXV?$vector@HV?$allocator@H@std@@@std@@AAV?$vector@UPowerupListInfo@@V?$allocator@UPowerupListInfo@@@std@@@3@@Z$1
	DD	00H
	DD	FLAT:__unwindfunclet$?SetItemList@EnablePowerupListWnd@@IAEXV?$vector@HV?$allocator@H@std@@@std@@AAV?$vector@UPowerupListInfo@@V?$allocator@UPowerupListInfo@@@std@@@3@@Z$2
	DD	02H
	DD	FLAT:__unwindfunclet$?SetItemList@EnablePowerupListWnd@@IAEXV?$vector@HV?$allocator@H@std@@@std@@AAV?$vector@UPowerupListInfo@@V?$allocator@UPowerupListInfo@@@std@@@3@@Z$3
	DD	02H
	DD	FLAT:__unwindfunclet$?SetItemList@EnablePowerupListWnd@@IAEXV?$vector@HV?$allocator@H@std@@@std@@AAV?$vector@UPowerupListInfo@@V?$allocator@UPowerupListInfo@@@std@@@3@@Z$4
	DD	00H
	DD	FLAT:__unwindfunclet$?SetItemList@EnablePowerupListWnd@@IAEXV?$vector@HV?$allocator@H@std@@@std@@AAV?$vector@UPowerupListInfo@@V?$allocator@UPowerupListInfo@@@std@@@3@@Z$5
	DD	05H
	DD	FLAT:__unwindfunclet$?SetItemList@EnablePowerupListWnd@@IAEXV?$vector@HV?$allocator@H@std@@@std@@AAV?$vector@UPowerupListInfo@@V?$allocator@UPowerupListInfo@@@std@@@3@@Z$6
	DD	05H
	DD	FLAT:__unwindfunclet$?SetItemList@EnablePowerupListWnd@@IAEXV?$vector@HV?$allocator@H@std@@@std@@AAV?$vector@UPowerupListInfo@@V?$allocator@UPowerupListInfo@@@std@@@3@@Z$7
; Function compile flags: /Ogsp
; File d:\lost saga for developer\youtube\tutorial\source\src\lsclient\gui\enablepoweruplistwnd.cpp
xdata$x	ENDS
;	COMDAT ?SetItemList@EnablePowerupListWnd@@IAEXV?$vector@HV?$allocator@H@std@@@std@@AAV?$vector@UPowerupListInfo@@V?$allocator@UPowerupListInfo@@@std@@@3@@Z
_TEXT	SEGMENT
_kSlot$509141 = -268					; size = 72
_kSlot$509125 = -196					; size = 72
$T518672 = -124						; size = 16
$T518673 = -108						; size = 16
_szError$509121 = -92					; size = 16
$T519022 = -76						; size = 4
$T518880 = -72						; size = 4
_vExtraItem$509147 = -68				; size = 16
_this$ = -52						; size = 4
_vExtraItem$509132 = -48				; size = 16
_kInfo$509119 = -32					; size = 12
_i$509114 = -20						; size = 4
$T518747 = -16						; size = 4
_pItem$509144 = -16					; size = 4
_pItem$509128 = -16					; size = 4
__$EHRec$ = -12						; size = 12
_EnablePowerUpNumVec$ = 8				; size = 16
$T518674 = 24						; size = 1
_vItemList$ = 24					; size = 4
?SetItemList@EnablePowerupListWnd@@IAEXV?$vector@HV?$allocator@H@std@@@std@@AAV?$vector@UPowerupListInfo@@V?$allocator@UPowerupListInfo@@@std@@@3@@Z PROC ; EnablePowerupListWnd::SetItemList, COMDAT
; _this$ = ecx

; 200  : {

  00000	68 00 01 00 00	 push	 256			; 00000100H
  00005	b8 00 00 00 00	 mov	 eax, __ehhandler$?SetItemList@EnablePowerupListWnd@@IAEXV?$vector@HV?$allocator@H@std@@@std@@AAV?$vector@UPowerupListInfo@@V?$allocator@UPowerupListInfo@@@std@@@3@@Z
  0000a	e8 00 00 00 00	 call	 __EH_prolog3
  0000f	89 4d cc	 mov	 DWORD PTR _this$[ebp], ecx

; 201  : 	vItemList.clear();

  00012	8b 7d 18	 mov	 edi, DWORD PTR _vItemList$[ebp]
  00015	8b 47 04	 mov	 eax, DWORD PTR [edi+4]
  00018	8b 0f		 mov	 ecx, DWORD PTR [edi]
  0001a	50		 push	 eax
  0001b	51		 push	 ecx
  0001c	8d 45 f0	 lea	 eax, DWORD PTR $T518747[ebp]
  0001f	33 db		 xor	 ebx, ebx
  00021	50		 push	 eax
  00022	8b cf		 mov	 ecx, edi
  00024	89 5d fc	 mov	 DWORD PTR __$EHRec$[ebp+8], ebx
  00027	e8 00 00 00 00	 call	 ?erase@?$vector@UPowerupListInfo@@V?$allocator@UPowerupListInfo@@@std@@@std@@QAE?AV?$_Vector_iterator@V?$_Vector_val@UPowerupListInfo@@V?$allocator@UPowerupListInfo@@@std@@@std@@@2@V?$_Vector_const_iterator@V?$_Vector_val@UPowerupListInfo@@V?$allocator@UPowerupListInfo@@@std@@@std@@@2@0@Z ; std::vector<PowerupListInfo,std::allocator<PowerupListInfo> >::erase

; 202  : 
; 203  : 	for ( int i = 0 ; i < (int)EnablePowerUpNumVec.size() ; ++i )

  0002c	8b 4d 0c	 mov	 ecx, DWORD PTR _EnablePowerUpNumVec$[ebp+4]
  0002f	8b 45 08	 mov	 eax, DWORD PTR _EnablePowerUpNumVec$[ebp]
  00032	33 d2		 xor	 edx, edx
  00034	2b c8		 sub	 ecx, eax
  00036	89 55 ec	 mov	 DWORD PTR _i$509114[ebp], edx
  00039	f7 c1 fc ff ff
	ff		 test	 ecx, -4			; fffffffcH
  0003f	7f 2d		 jg	 SHORT $LN23@SetItemLis
$LN21@SetItemLis:

; 269  : 	}
; 270  : 
; 271  : 	if( vItemList.empty() )

  00041	8b 07		 mov	 eax, DWORD PTR [edi]
  00043	8b 7f 04	 mov	 edi, DWORD PTR [edi+4]
  00046	3b c7		 cmp	 eax, edi

; 272  : 		return;

  00048	74 0d		 je	 SHORT $LN193@SetItemLis

; 273  : 
; 274  : 	std::sort( vItemList.begin(), vItemList.end(), EnablePowerupListSort() );

  0004a	ff 75 18	 push	 DWORD PTR $T518674[ebp]
  0004d	57		 push	 edi
  0004e	50		 push	 eax
  0004f	e8 00 00 00 00	 call	 ??$sort@V?$_Vector_iterator@V?$_Vector_val@UPowerupListInfo@@V?$allocator@UPowerupListInfo@@@std@@@std@@@std@@VEnablePowerupListSort@@@std@@YAXV?$_Vector_iterator@V?$_Vector_val@UPowerupListInfo@@V?$allocator@UPowerupListInfo@@@std@@@std@@@0@0VEnablePowerupListSort@@@Z ; std::sort<std::_Vector_iterator<std::_Vector_val<PowerupListInfo,std::allocator<PowerupListInfo> > >,EnablePowerupListSort>
  00054	83 c4 0c	 add	 esp, 12			; 0000000cH
$LN193@SetItemLis:

; 275  : }

  00057	83 4d fc ff	 or	 DWORD PTR __$EHRec$[ebp+8], -1
  0005b	8d 4d 08	 lea	 ecx, DWORD PTR _EnablePowerUpNumVec$[ebp]
  0005e	e8 00 00 00 00	 call	 ?_Tidy@?$vector@HV?$allocator@H@std@@@std@@IAEXXZ ; std::vector<int,std::allocator<int> >::_Tidy
  00063	e8 00 00 00 00	 call	 __EH_epilog3
  00068	c2 14 00	 ret	 20			; 00000014H
$LL190@SetItemLis:

; 202  : 
; 203  : 	for ( int i = 0 ; i < (int)EnablePowerUpNumVec.size() ; ++i )

  0006b	8b 55 ec	 mov	 edx, DWORD PTR _i$509114[ebp]
$LN23@SetItemLis:

; 204  : 	{
; 205  : 		PowerupListInfo kInfo;
; 206  : 		if ( m_dwCurSubBtn == ID_HERO_BTN )

  0006e	8b 4d cc	 mov	 ecx, DWORD PTR _this$[ebp]
  00071	8b 89 68 01 00
	00		 mov	 ecx, DWORD PTR [ecx+360]

; 207  : 		{
; 208  : 			kInfo.m_iData = EnablePowerUpNumVec[i];

  00077	8b 34 90	 mov	 esi, DWORD PTR [eax+edx*4]
  0007a	89 5d e4	 mov	 DWORD PTR _kInfo$509119[ebp+4], ebx
  0007d	83 f9 0a	 cmp	 ecx, 10			; 0000000aH
  00080	75 3d		 jne	 SHORT $LN20@SetItemLis

; 209  : 			ioHashString szError;

  00082	8d 4d a4	 lea	 ecx, DWORD PTR _szError$509121[ebp]
  00085	89 75 e0	 mov	 DWORD PTR _kInfo$509119[ebp], esi
  00088	ff 15 00 00 00
	00		 call	 DWORD PTR __imp_??0ioHashString@@QAE@XZ

; 210  : 			if( g_PowerUpManager.CheckEnableCharPowerUp( kInfo.m_iData, szError ) )

  0008e	8d 45 a4	 lea	 eax, DWORD PTR _szError$509121[ebp]
  00091	50		 push	 eax
  00092	56		 push	 esi
  00093	c6 45 fc 01	 mov	 BYTE PTR __$EHRec$[ebp+8], 1
  00097	e8 00 00 00 00	 call	 ?GetSingleton@ioPowerUpManager@@SAAAV1@XZ ; ioPowerUpManager::GetSingleton
  0009c	8b c8		 mov	 ecx, eax
  0009e	e8 00 00 00 00	 call	 ?CheckEnableCharPowerUp@ioPowerUpManager@@QAE_NHAAVioHashString@@@Z ; ioPowerUpManager::CheckEnableCharPowerUp
  000a3	84 c0		 test	 al, al
  000a5	74 07		 je	 SHORT $LN19@SetItemLis

; 211  : 				kInfo.m_iShopMarkType = SHOP_MARK_TYPE_BOUGHT;

  000a7	c7 45 e4 05 00
	00 00		 mov	 DWORD PTR _kInfo$509119[ebp+4], 5
$LN19@SetItemLis:

; 212  : 		}

  000ae	8d 4d a4	 lea	 ecx, DWORD PTR _szError$509121[ebp]
  000b1	88 5d fc	 mov	 BYTE PTR __$EHRec$[ebp+8], bl
  000b4	ff 15 00 00 00
	00		 call	 DWORD PTR __imp_??1ioHashString@@QAE@XZ
  000ba	e9 b1 01 00 00	 jmp	 $LN9@SetItemLis
$LN20@SetItemLis:

; 213  : 		else if ( m_dwCurSubBtn == ID_WEAPON_BTN )

  000bf	83 f9 0b	 cmp	 ecx, 11			; 0000000bH
  000c2	0f 85 d4 00 00
	00		 jne	 $LN17@SetItemLis

; 214  : 		{
; 215  : 			//  
; 216  : 			kInfo.m_iData = EnablePowerUpNumVec[i] + DEFAULT_EXTRA_ITEM_CODE;

  000c8	81 c6 10 27 00
	00		 add	 esi, 10000		; 00002710H

; 217  : 			// solt check
; 218  : 			EXTRAITEMSLOT kSlot;

  000ce	8d 8d 3c ff ff
	ff		 lea	 ecx, DWORD PTR _kSlot$509125[ebp]
  000d4	89 75 e0	 mov	 DWORD PTR _kInfo$509119[ebp], esi
  000d7	e8 00 00 00 00	 call	 ??0EXTRAITEMSLOT@@QAE@XZ ; EXTRAITEMSLOT::EXTRAITEMSLOT
  000dc	c6 45 fc 02	 mov	 BYTE PTR __$EHRec$[ebp+8], 2

; 219  : 			ioUserExtraItem *pExtraItem = g_MyInfo.GetUserExtraItem();

  000e0	e8 00 00 00 00	 call	 ?GetSingleton@ioMyInfo@@SAAAV1@XZ ; ioMyInfo::GetSingleton
  000e5	8d b8 ac 01 00
	00		 lea	 edi, DWORD PTR [eax+428]

; 220  : 			if( !pExtraItem )

  000eb	3b fb		 cmp	 edi, ebx
  000ed	0f 84 b2 01 00
	00		 je	 $LN183@SetItemLis

; 222  : 
; 223  : 			const ioItem *pItem = g_ItemMaker.GetItemConst( kInfo.m_iData, __FUNCTION__ );

  000f3	68 00 00 00 00	 push	 OFFSET ??_C@_0CC@HICPNGDF@EnablePowerupListWnd?3?3SetItemLis@
  000f8	8d 4d 84	 lea	 ecx, DWORD PTR $T518672[ebp]
  000fb	ff 15 00 00 00
	00		 call	 DWORD PTR __imp_??0ioHashString@@QAE@PBD@Z
  00101	8d 45 84	 lea	 eax, DWORD PTR $T518672[ebp]
  00104	50		 push	 eax
  00105	56		 push	 esi
  00106	c6 45 fc 03	 mov	 BYTE PTR __$EHRec$[ebp+8], 3
  0010a	e8 00 00 00 00	 call	 ?GetSingleton@ioItemMaker@@SAAAV1@XZ ; ioItemMaker::GetSingleton
  0010f	8b c8		 mov	 ecx, eax
  00111	e8 00 00 00 00	 call	 ?GetItemConst@ioItemMaker@@QBEPBVioItem@@KABVioHashString@@@Z ; ioItemMaker::GetItemConst
  00116	8d 4d 84	 lea	 ecx, DWORD PTR $T518672[ebp]
  00119	89 45 f0	 mov	 DWORD PTR _pItem$509128[ebp], eax
  0011c	c6 45 fc 02	 mov	 BYTE PTR __$EHRec$[ebp+8], 2
  00120	ff 15 00 00 00
	00		 call	 DWORD PTR __imp_??1ioHashString@@QAE@XZ

; 224  : 			if ( !pItem )

  00126	39 5d f0	 cmp	 DWORD PTR _pItem$509128[ebp], ebx
  00129	0f 84 76 01 00
	00		 je	 $LN183@SetItemLis

; 225  : 				return;
; 226  : 
; 227  : 			ExtraItemList vExtraItem;

  0012f	89 5d d0	 mov	 DWORD PTR _vExtraItem$509132[ebp], ebx
  00132	89 5d d4	 mov	 DWORD PTR _vExtraItem$509132[ebp+4], ebx
  00135	89 5d d8	 mov	 DWORD PTR _vExtraItem$509132[ebp+8], ebx

; 228  : 			vExtraItem.clear();

  00138	33 c0		 xor	 eax, eax
  0013a	50		 push	 eax
  0013b	33 c9		 xor	 ecx, ecx
  0013d	51		 push	 ecx
  0013e	8d 45 b8	 lea	 eax, DWORD PTR $T518880[ebp]
  00141	50		 push	 eax
  00142	8d 4d d0	 lea	 ecx, DWORD PTR _vExtraItem$509132[ebp]
  00145	c6 45 fc 04	 mov	 BYTE PTR __$EHRec$[ebp+8], 4
  00149	e8 00 00 00 00	 call	 ?erase@?$vector@UEXTRAITEMSLOT@@V?$allocator@UEXTRAITEMSLOT@@@std@@@std@@QAE?AV?$_Vector_iterator@V?$_Vector_val@UEXTRAITEMSLOT@@V?$allocator@UEXTRAITEMSLOT@@@std@@@std@@@2@V?$_Vector_const_iterator@V?$_Vector_val@UEXTRAITEMSLOT@@V?$allocator@UEXTRAITEMSLOT@@@std@@@std@@@2@0@Z ; std::vector<EXTRAITEMSLOT,std::allocator<EXTRAITEMSLOT> >::erase

; 229  : 			pExtraItem->FindAllItem( kInfo.m_iData, vExtraItem );

  0014e	8d 45 d0	 lea	 eax, DWORD PTR _vExtraItem$509132[ebp]
  00151	50		 push	 eax
  00152	56		 push	 esi
  00153	8b cf		 mov	 ecx, edi
  00155	e8 00 00 00 00	 call	 ?FindAllItem@ioUserExtraItem@@QAEXHAAV?$vector@UEXTRAITEMSLOT@@V?$allocator@UEXTRAITEMSLOT@@@std@@@std@@@Z ; ioUserExtraItem::FindAllItem

; 230  : 			if ( !vExtraItem.empty() )

  0015a	8b 4d d0	 mov	 ecx, DWORD PTR _vExtraItem$509132[ebp]
  0015d	8b 45 d4	 mov	 eax, DWORD PTR _vExtraItem$509132[ebp+4]
  00160	3b c8		 cmp	 ecx, eax
  00162	74 21		 je	 SHORT $LN11@SetItemLis

; 231  : 			{
; 232  : 				for ( int i= 0 ; i < (int)vExtraItem.size() ; ++i )

  00164	2b c1		 sub	 eax, ecx
  00166	6a 48		 push	 72			; 00000048H
  00168	99		 cdq
  00169	5f		 pop	 edi
  0016a	f7 ff		 idiv	 edi
  0016c	3b c3		 cmp	 eax, ebx
  0016e	7e 15		 jle	 SHORT $LN11@SetItemLis
  00170	83 c1 0c	 add	 ecx, 12			; 0000000cH
$LL13@SetItemLis:

; 233  : 				{
; 234  : 					if( vExtraItem[i].m_PeriodType == EPT_MORTMAIN )

  00173	83 39 01	 cmp	 DWORD PTR [ecx], 1
  00176	75 07		 jne	 SHORT $LN12@SetItemLis

; 235  : 						kInfo.m_iShopMarkType = SHOP_MARK_TYPE_BOUGHT;

  00178	c7 45 e4 05 00
	00 00		 mov	 DWORD PTR _kInfo$509119[ebp+4], 5
$LN12@SetItemLis:

; 231  : 			{
; 232  : 				for ( int i= 0 ; i < (int)vExtraItem.size() ; ++i )

  0017f	83 c1 48	 add	 ecx, 72			; 00000048H
  00182	48		 dec	 eax
  00183	75 ee		 jne	 SHORT $LL13@SetItemLis
$LN11@SetItemLis:

; 236  : 				}
; 237  : 			}
; 238  : 		}

  00185	8d 4d d0	 lea	 ecx, DWORD PTR _vExtraItem$509132[ebp]
  00188	c6 45 fc 02	 mov	 BYTE PTR __$EHRec$[ebp+8], 2
  0018c	e8 00 00 00 00	 call	 ?_Tidy@?$vector@UEXTRAITEMSLOT@@V?$allocator@UEXTRAITEMSLOT@@@std@@@std@@IAEXXZ ; std::vector<EXTRAITEMSLOT,std::allocator<EXTRAITEMSLOT> >::_Tidy
  00191	8d 8d 3c ff ff
	ff		 lea	 ecx, DWORD PTR _kSlot$509125[ebp]

; 239  : 		else

  00197	e9 c9 00 00 00	 jmp	 $LN192@SetItemLis
$LN17@SetItemLis:

; 240  : 		{
; 241  : 			kInfo.m_iData = EnablePowerUpNumVec[i];
; 242  : 
; 243  : 			EXTRAITEMSLOT kSlot;

  0019c	8d 8d f4 fe ff
	ff		 lea	 ecx, DWORD PTR _kSlot$509141[ebp]
  001a2	89 75 e0	 mov	 DWORD PTR _kInfo$509119[ebp], esi
  001a5	e8 00 00 00 00	 call	 ??0EXTRAITEMSLOT@@QAE@XZ ; EXTRAITEMSLOT::EXTRAITEMSLOT
  001aa	c6 45 fc 05	 mov	 BYTE PTR __$EHRec$[ebp+8], 5

; 244  : 			ioUserExtraItem *pExtraItem = g_MyInfo.GetUserExtraItem();

  001ae	e8 00 00 00 00	 call	 ?GetSingleton@ioMyInfo@@SAAAV1@XZ ; ioMyInfo::GetSingleton
  001b3	8d b8 ac 01 00
	00		 lea	 edi, DWORD PTR [eax+428]

; 245  : 			if( !pExtraItem )

  001b9	3b fb		 cmp	 edi, ebx
  001bb	0f 84 f7 00 00
	00		 je	 $LN185@SetItemLis

; 247  : 
; 248  : 			const ioItem *pItem = g_ItemMaker.GetItemConst( kInfo.m_iData, __FUNCTION__ );

  001c1	68 00 00 00 00	 push	 OFFSET ??_C@_0CC@HICPNGDF@EnablePowerupListWnd?3?3SetItemLis@
  001c6	8d 4d 94	 lea	 ecx, DWORD PTR $T518673[ebp]
  001c9	ff 15 00 00 00
	00		 call	 DWORD PTR __imp_??0ioHashString@@QAE@PBD@Z
  001cf	8d 45 94	 lea	 eax, DWORD PTR $T518673[ebp]
  001d2	50		 push	 eax
  001d3	56		 push	 esi
  001d4	c6 45 fc 06	 mov	 BYTE PTR __$EHRec$[ebp+8], 6
  001d8	e8 00 00 00 00	 call	 ?GetSingleton@ioItemMaker@@SAAAV1@XZ ; ioItemMaker::GetSingleton
  001dd	8b c8		 mov	 ecx, eax
  001df	e8 00 00 00 00	 call	 ?GetItemConst@ioItemMaker@@QBEPBVioItem@@KABVioHashString@@@Z ; ioItemMaker::GetItemConst
  001e4	8d 4d 94	 lea	 ecx, DWORD PTR $T518673[ebp]
  001e7	89 45 f0	 mov	 DWORD PTR _pItem$509144[ebp], eax
  001ea	c6 45 fc 05	 mov	 BYTE PTR __$EHRec$[ebp+8], 5
  001ee	ff 15 00 00 00
	00		 call	 DWORD PTR __imp_??1ioHashString@@QAE@XZ

; 249  : 			if ( !pItem )

  001f4	39 5d f0	 cmp	 DWORD PTR _pItem$509144[ebp], ebx
  001f7	0f 84 bb 00 00
	00		 je	 $LN185@SetItemLis

; 250  : 				return;
; 251  : 
; 252  : 			ExtraItemList vExtraItem;

  001fd	89 5d bc	 mov	 DWORD PTR _vExtraItem$509147[ebp], ebx
  00200	89 5d c0	 mov	 DWORD PTR _vExtraItem$509147[ebp+4], ebx
  00203	89 5d c4	 mov	 DWORD PTR _vExtraItem$509147[ebp+8], ebx

; 253  : 			vExtraItem.clear();

  00206	33 c0		 xor	 eax, eax
  00208	50		 push	 eax
  00209	33 c9		 xor	 ecx, ecx
  0020b	51		 push	 ecx
  0020c	8d 45 b4	 lea	 eax, DWORD PTR $T519022[ebp]
  0020f	50		 push	 eax
  00210	8d 4d bc	 lea	 ecx, DWORD PTR _vExtraItem$509147[ebp]
  00213	c6 45 fc 07	 mov	 BYTE PTR __$EHRec$[ebp+8], 7
  00217	e8 00 00 00 00	 call	 ?erase@?$vector@UEXTRAITEMSLOT@@V?$allocator@UEXTRAITEMSLOT@@@std@@@std@@QAE?AV?$_Vector_iterator@V?$_Vector_val@UEXTRAITEMSLOT@@V?$allocator@UEXTRAITEMSLOT@@@std@@@std@@@2@V?$_Vector_const_iterator@V?$_Vector_val@UEXTRAITEMSLOT@@V?$allocator@UEXTRAITEMSLOT@@@std@@@std@@@2@0@Z ; std::vector<EXTRAITEMSLOT,std::allocator<EXTRAITEMSLOT> >::erase

; 254  : 			pExtraItem->FindAllItem( kInfo.m_iData, vExtraItem );

  0021c	8d 45 bc	 lea	 eax, DWORD PTR _vExtraItem$509147[ebp]
  0021f	50		 push	 eax
  00220	56		 push	 esi
  00221	8b cf		 mov	 ecx, edi
  00223	e8 00 00 00 00	 call	 ?FindAllItem@ioUserExtraItem@@QAEXHAAV?$vector@UEXTRAITEMSLOT@@V?$allocator@UEXTRAITEMSLOT@@@std@@@std@@@Z ; ioUserExtraItem::FindAllItem

; 255  : 			if ( !vExtraItem.empty() )

  00228	8b 4d bc	 mov	 ecx, DWORD PTR _vExtraItem$509147[ebp]
  0022b	8b 45 c0	 mov	 eax, DWORD PTR _vExtraItem$509147[ebp+4]
  0022e	3b c8		 cmp	 ecx, eax
  00230	74 21		 je	 SHORT $LN3@SetItemLis

; 256  : 			{
; 257  : 				for ( int i= 0 ; i < (int)vExtraItem.size() ; ++i )

  00232	2b c1		 sub	 eax, ecx
  00234	6a 48		 push	 72			; 00000048H
  00236	99		 cdq
  00237	5f		 pop	 edi
  00238	f7 ff		 idiv	 edi
  0023a	3b c3		 cmp	 eax, ebx
  0023c	7e 15		 jle	 SHORT $LN3@SetItemLis
  0023e	83 c1 0c	 add	 ecx, 12			; 0000000cH
$LL5@SetItemLis:

; 258  : 				{
; 259  : 					if( vExtraItem[i].m_PeriodType == EPT_MORTMAIN )

  00241	83 39 01	 cmp	 DWORD PTR [ecx], 1
  00244	75 07		 jne	 SHORT $LN4@SetItemLis

; 260  : 						kInfo.m_iShopMarkType = SHOP_MARK_TYPE_BOUGHT;

  00246	c7 45 e4 05 00
	00 00		 mov	 DWORD PTR _kInfo$509119[ebp+4], 5
$LN4@SetItemLis:

; 256  : 			{
; 257  : 				for ( int i= 0 ; i < (int)vExtraItem.size() ; ++i )

  0024d	83 c1 48	 add	 ecx, 72			; 00000048H
  00250	48		 dec	 eax
  00251	75 ee		 jne	 SHORT $LL5@SetItemLis
$LN3@SetItemLis:

; 261  : 				}
; 262  : 			}
; 263  : 		}

  00253	8d 4d bc	 lea	 ecx, DWORD PTR _vExtraItem$509147[ebp]
  00256	c6 45 fc 05	 mov	 BYTE PTR __$EHRec$[ebp+8], 5
  0025a	e8 00 00 00 00	 call	 ?_Tidy@?$vector@UEXTRAITEMSLOT@@V?$allocator@UEXTRAITEMSLOT@@@std@@@std@@IAEXXZ ; std::vector<EXTRAITEMSLOT,std::allocator<EXTRAITEMSLOT> >::_Tidy
  0025f	8d 8d f4 fe ff
	ff		 lea	 ecx, DWORD PTR _kSlot$509141[ebp]
$LN192@SetItemLis:
  00265	88 5d fc	 mov	 BYTE PTR __$EHRec$[ebp+8], bl
  00268	e8 00 00 00 00	 call	 ??1EXTRAITEMSLOT@@QAE@XZ
  0026d	8b 7d 18	 mov	 edi, DWORD PTR _vItemList$[ebp]
$LN9@SetItemLis:

; 264  : 
; 265  : 		//     
; 266  : 		kInfo.m_iOrder = ( kInfo.m_iShopMarkType * 1000000 ) + kInfo.m_iData;

  00270	8b 45 e4	 mov	 eax, DWORD PTR _kInfo$509119[ebp+4]
  00273	69 c0 40 42 0f
	00		 imul	 eax, 1000000		; 000f4240H
  00279	03 c6		 add	 eax, esi
  0027b	89 45 e8	 mov	 DWORD PTR _kInfo$509119[ebp+8], eax

; 267  : 
; 268  : 		vItemList.push_back( kInfo );

  0027e	8d 45 e0	 lea	 eax, DWORD PTR _kInfo$509119[ebp]
  00281	50		 push	 eax
  00282	8b cf		 mov	 ecx, edi
  00284	e8 00 00 00 00	 call	 ?push_back@?$vector@UPowerupListInfo@@V?$allocator@UPowerupListInfo@@@std@@@std@@QAEXABUPowerupListInfo@@@Z ; std::vector<PowerupListInfo,std::allocator<PowerupListInfo> >::push_back
  00289	8b 4d 0c	 mov	 ecx, DWORD PTR _EnablePowerUpNumVec$[ebp+4]
  0028c	8b 45 08	 mov	 eax, DWORD PTR _EnablePowerUpNumVec$[ebp]
  0028f	ff 45 ec	 inc	 DWORD PTR _i$509114[ebp]
  00292	2b c8		 sub	 ecx, eax
  00294	c1 f9 02	 sar	 ecx, 2
  00297	39 4d ec	 cmp	 DWORD PTR _i$509114[ebp], ecx
  0029a	0f 8c cb fd ff
	ff		 jl	 $LL190@SetItemLis

; 249  : 			if ( !pItem )

  002a0	e9 9c fd ff ff	 jmp	 $LN21@SetItemLis
$LN183@SetItemLis:

; 221  : 				return;

  002a5	8d 8d 3c ff ff
	ff		 lea	 ecx, DWORD PTR _kSlot$509125[ebp]
$LN195@SetItemLis:
  002ab	88 5d fc	 mov	 BYTE PTR __$EHRec$[ebp+8], bl
  002ae	e8 00 00 00 00	 call	 ??1EXTRAITEMSLOT@@QAE@XZ
  002b3	e9 9f fd ff ff	 jmp	 $LN193@SetItemLis
$LN185@SetItemLis:

; 246  : 				return;

  002b8	8d 8d f4 fe ff
	ff		 lea	 ecx, DWORD PTR _kSlot$509141[ebp]
  002be	eb eb		 jmp	 SHORT $LN195@SetItemLis
_TEXT	ENDS
;	COMDAT text$x
text$x	SEGMENT
__unwindfunclet$?SetItemList@EnablePowerupListWnd@@IAEXV?$vector@HV?$allocator@H@std@@@std@@AAV?$vector@UPowerupListInfo@@V?$allocator@UPowerupListInfo@@@std@@@3@@Z$0:
  00000	8d 4d 08	 lea	 ecx, DWORD PTR _EnablePowerUpNumVec$[ebp]
  00003	e9 00 00 00 00	 jmp	 ??1?$vector@HV?$allocator@H@std@@@std@@QAE@XZ ; std::vector<int,std::allocator<int> >::~vector<int,std::allocator<int> >
__unwindfunclet$?SetItemList@EnablePowerupListWnd@@IAEXV?$vector@HV?$allocator@H@std@@@std@@AAV?$vector@UPowerupListInfo@@V?$allocator@UPowerupListInfo@@@std@@@3@@Z$1:
  00008	8d 4d a4	 lea	 ecx, DWORD PTR _szError$509121[ebp]
  0000b	ff 25 00 00 00
	00		 jmp	 DWORD PTR __imp_??1ioHashString@@QAE@XZ
__unwindfunclet$?SetItemList@EnablePowerupListWnd@@IAEXV?$vector@HV?$allocator@H@std@@@std@@AAV?$vector@UPowerupListInfo@@V?$allocator@UPowerupListInfo@@@std@@@3@@Z$2:
  00011	8d 8d 3c ff ff
	ff		 lea	 ecx, DWORD PTR _kSlot$509125[ebp]
  00017	e9 00 00 00 00	 jmp	 ??1EXTRAITEMSLOT@@QAE@XZ
__unwindfunclet$?SetItemList@EnablePowerupListWnd@@IAEXV?$vector@HV?$allocator@H@std@@@std@@AAV?$vector@UPowerupListInfo@@V?$allocator@UPowerupListInfo@@@std@@@3@@Z$3:
  0001c	8d 4d 84	 lea	 ecx, DWORD PTR $T518672[ebp]
  0001f	ff 25 00 00 00
	00		 jmp	 DWORD PTR __imp_??1ioHashString@@QAE@XZ
__unwindfunclet$?SetItemList@EnablePowerupListWnd@@IAEXV?$vector@HV?$allocator@H@std@@@std@@AAV?$vector@UPowerupListInfo@@V?$allocator@UPowerupListInfo@@@std@@@3@@Z$4:
  00025	8d 4d d0	 lea	 ecx, DWORD PTR _vExtraItem$509132[ebp]
  00028	e9 00 00 00 00	 jmp	 ??1?$vector@UEXTRAITEMSLOT@@V?$allocator@UEXTRAITEMSLOT@@@std@@@std@@QAE@XZ ; std::vector<EXTRAITEMSLOT,std::allocator<EXTRAITEMSLOT> >::~vector<EXTRAITEMSLOT,std::allocator<EXTRAITEMSLOT> >
__unwindfunclet$?SetItemList@EnablePowerupListWnd@@IAEXV?$vector@HV?$allocator@H@std@@@std@@AAV?$vector@UPowerupListInfo@@V?$allocator@UPowerupListInfo@@@std@@@3@@Z$5:
  0002d	8d 8d f4 fe ff
	ff		 lea	 ecx, DWORD PTR _kSlot$509141[ebp]
  00033	e9 00 00 00 00	 jmp	 ??1EXTRAITEMSLOT@@QAE@XZ
__unwindfunclet$?SetItemList@EnablePowerupListWnd@@IAEXV?$vector@HV?$allocator@H@std@@@std@@AAV?$vector@UPowerupListInfo@@V?$allocator@UPowerupListInfo@@@std@@@3@@Z$6:
  00038	8d 4d 94	 lea	 ecx, DWORD PTR $T518673[ebp]
  0003b	ff 25 00 00 00
	00		 jmp	 DWORD PTR __imp_??1ioHashString@@QAE@XZ
__unwindfunclet$?SetItemList@EnablePowerupListWnd@@IAEXV?$vector@HV?$allocator@H@std@@@std@@AAV?$vector@UPowerupListInfo@@V?$allocator@UPowerupListInfo@@@std@@@3@@Z$7:
  00041	8d 4d bc	 lea	 ecx, DWORD PTR _vExtraItem$509147[ebp]
  00044	e9 00 00 00 00	 jmp	 ??1?$vector@UEXTRAITEMSLOT@@V?$allocator@UEXTRAITEMSLOT@@@std@@@std@@QAE@XZ ; std::vector<EXTRAITEMSLOT,std::allocator<EXTRAITEMSLOT> >::~vector<EXTRAITEMSLOT,std::allocator<EXTRAITEMSLOT> >
__ehhandler$?SetItemList@EnablePowerupListWnd@@IAEXV?$vector@HV?$allocator@H@std@@@std@@AAV?$vector@UPowerupListInfo@@V?$allocator@UPowerupListInfo@@@std@@@3@@Z:
  00049	8b 54 24 08	 mov	 edx, DWORD PTR [esp+8]
  0004d	8d 42 0c	 lea	 eax, DWORD PTR [edx+12]
  00050	8b 8a f0 fe ff
	ff		 mov	 ecx, DWORD PTR [edx-272]
  00056	33 c8		 xor	 ecx, eax
  00058	e8 00 00 00 00	 call	 @__security_check_cookie@4
  0005d	b8 00 00 00 00	 mov	 eax, OFFSET __ehfuncinfo$?SetItemList@EnablePowerupListWnd@@IAEXV?$vector@HV?$allocator@H@std@@@std@@AAV?$vector@UPowerupListInfo@@V?$allocator@UPowerupListInfo@@@std@@@3@@Z
  00062	e9 00 00 00 00	 jmp	 ___CxxFrameHandler3
text$x	ENDS
?SetItemList@EnablePowerupListWnd@@IAEXV?$vector@HV?$allocator@H@std@@@std@@AAV?$vector@UPowerupListInfo@@V?$allocator@UPowerupListInfo@@@std@@@3@@Z ENDP ; EnablePowerupListWnd::SetItemList
PUBLIC	??$_Move@PAV?$basic_string@DU?$char_traits@D@std@@V?$allocator@D@2@@std@@PAV12@@std@@YAPAV?$basic_string@DU?$char_traits@D@std@@V?$allocator@D@2@@0@PAV10@00@Z ; std::_Move<std::basic_string<char,std::char_traits<char>,std::allocator<char> > *,std::basic_string<char,std::char_traits<char>,std::allocator<char> > *>
; Function compile flags: /Ogsp
; File c:\program files (x86)\microsoft visual studio 10.0\vc\include\xutility
;	COMDAT ??$_Move@PAV?$basic_string@DU?$char_traits@D@std@@V?$allocator@D@2@@std@@PAV12@@std@@YAPAV?$basic_string@DU?$char_traits@D@std@@V?$allocator@D@2@@0@PAV10@00@Z
_TEXT	SEGMENT
__Cat$519152 = -4					; size = 1
__First$ = 8						; size = 4
__Last$ = 12						; size = 4
__Dest$ = 16						; size = 4
??$_Move@PAV?$basic_string@DU?$char_traits@D@std@@V?$allocator@D@2@@std@@PAV12@@std@@YAPAV?$basic_string@DU?$char_traits@D@std@@V?$allocator@D@2@@0@PAV10@00@Z PROC ; std::_Move<std::basic_string<char,std::char_traits<char>,std::allocator<char> > *,std::basic_string<char,std::char_traits<char>,std::allocator<char> > *>, COMDAT

; 2533 : 	{	// move [_First, _Last) to [_Dest, ...), unchecked

  00000	55		 push	 ebp
  00001	8b ec		 mov	 ebp, esp
  00003	51		 push	 ecx

; 2534 : 	return (_Move(_First, _Last,
; 2535 : 		_Dest, _Ptr_cat(_First, _Dest)));

  00004	ff 75 fc	 push	 DWORD PTR __Cat$519152[ebp]
  00007	ff 75 10	 push	 DWORD PTR __Dest$[ebp]
  0000a	ff 75 0c	 push	 DWORD PTR __Last$[ebp]
  0000d	ff 75 08	 push	 DWORD PTR __First$[ebp]
  00010	e8 00 00 00 00	 call	 ??$_Move@PAV?$basic_string@DU?$char_traits@D@std@@V?$allocator@D@2@@std@@PAV12@@std@@YAPAV?$basic_string@DU?$char_traits@D@std@@V?$allocator@D@2@@0@PAV10@00U_Nonscalar_ptr_iterator_tag@0@@Z ; std::_Move<std::basic_string<char,std::char_traits<char>,std::allocator<char> > *,std::basic_string<char,std::char_traits<char>,std::allocator<char> > *>
  00015	83 c4 10	 add	 esp, 16			; 00000010H

; 2536 : 	}

  00018	c9		 leave
  00019	c3		 ret	 0
??$_Move@PAV?$basic_string@DU?$char_traits@D@std@@V?$allocator@D@2@@std@@PAV12@@std@@YAPAV?$basic_string@DU?$char_traits@D@std@@V?$allocator@D@2@@0@PAV10@00@Z ENDP ; std::_Move<std::basic_string<char,std::char_traits<char>,std::allocator<char> > *,std::basic_string<char,std::char_traits<char>,std::allocator<char> > *>
_TEXT	ENDS
PUBLIC	??$_Uninitialized_copy@PAV?$basic_string@DU?$char_traits@D@std@@V?$allocator@D@2@@std@@PAV12@V?$allocator@V?$basic_string@DU?$char_traits@D@std@@V?$allocator@D@2@@std@@@2@@std@@YAPAV?$basic_string@DU?$char_traits@D@std@@V?$allocator@D@2@@0@PAV10@00AAV?$allocator@V?$basic_string@DU?$char_traits@D@std@@V?$allocator@D@2@@std@@@0@@Z ; std::_Uninitialized_copy<std::basic_string<char,std::char_traits<char>,std::allocator<char> > *,std::basic_string<char,std::char_traits<char>,std::allocator<char> > *,std::allocator<std::basic_string<char,std::char_traits<char>,std::allocator<char> > > >
; Function compile flags: /Ogsp
; File c:\program files (x86)\microsoft visual studio 10.0\vc\include\memory
;	COMDAT ??$_Uninitialized_copy@PAV?$basic_string@DU?$char_traits@D@std@@V?$allocator@D@2@@std@@PAV12@V?$allocator@V?$basic_string@DU?$char_traits@D@std@@V?$allocator@D@2@@std@@@2@@std@@YAPAV?$basic_string@DU?$char_traits@D@std@@V?$allocator@D@2@@0@PAV10@00AAV?$allocator@V?$basic_string@DU?$char_traits@D@std@@V?$allocator@D@2@@std@@@0@@Z
_TEXT	SEGMENT
__Cat$519159 = -4					; size = 1
__First$ = 8						; size = 4
__Last$ = 12						; size = 4
__Dest$ = 16						; size = 4
__Al$ = 20						; size = 4
??$_Uninitialized_copy@PAV?$basic_string@DU?$char_traits@D@std@@V?$allocator@D@2@@std@@PAV12@V?$allocator@V?$basic_string@DU?$char_traits@D@std@@V?$allocator@D@2@@std@@@2@@std@@YAPAV?$basic_string@DU?$char_traits@D@std@@V?$allocator@D@2@@0@PAV10@00AAV?$allocator@V?$basic_string@DU?$char_traits@D@std@@V?$allocator@D@2@@std@@@0@@Z PROC ; std::_Uninitialized_copy<std::basic_string<char,std::char_traits<char>,std::allocator<char> > *,std::basic_string<char,std::char_traits<char>,std::allocator<char> > *,std::allocator<std::basic_string<char,std::char_traits<char>,std::allocator<char> > > >, COMDAT

; 412  : 	{	// copy [_First, _Last) to raw _Dest, using _Al

  00000	55		 push	 ebp
  00001	8b ec		 mov	 ebp, esp
  00003	51		 push	 ecx

; 413  : 	return (_Uninit_copy(_First, _Last, _Dest, _Al,
; 414  : 		_Ptr_cat(_First, _Dest)));

  00004	ff 75 fc	 push	 DWORD PTR __Cat$519159[ebp]
  00007	ff 75 14	 push	 DWORD PTR __Al$[ebp]
  0000a	ff 75 10	 push	 DWORD PTR __Dest$[ebp]
  0000d	ff 75 0c	 push	 DWORD PTR __Last$[ebp]
  00010	ff 75 08	 push	 DWORD PTR __First$[ebp]
  00013	e8 00 00 00 00	 call	 ??$_Uninit_copy@PAV?$basic_string@DU?$char_traits@D@std@@V?$allocator@D@2@@std@@PAV12@V?$allocator@V?$basic_string@DU?$char_traits@D@std@@V?$allocator@D@2@@std@@@2@@std@@YAPAV?$basic_string@DU?$char_traits@D@std@@V?$allocator@D@2@@0@PAV10@00AAV?$allocator@V?$basic_string@DU?$char_traits@D@std@@V?$allocator@D@2@@std@@@0@U_Nonscalar_ptr_iterator_tag@0@@Z ; std::_Uninit_copy<std::basic_string<char,std::char_traits<char>,std::allocator<char> > *,std::basic_string<char,std::char_traits<char>,std::allocator<char> > *,std::allocator<std::basic_string<char,std::char_traits<char>,std::allocator<char> > > >
  00018	83 c4 14	 add	 esp, 20			; 00000014H

; 415  : 	}

  0001b	c9		 leave
  0001c	c3		 ret	 0
??$_Uninitialized_copy@PAV?$basic_string@DU?$char_traits@D@std@@V?$allocator@D@2@@std@@PAV12@V?$allocator@V?$basic_string@DU?$char_traits@D@std@@V?$allocator@D@2@@std@@@2@@std@@YAPAV?$basic_string@DU?$char_traits@D@std@@V?$allocator@D@2@@0@PAV10@00AAV?$allocator@V?$basic_string@DU?$char_traits@D@std@@V?$allocator@D@2@@std@@@0@@Z ENDP ; std::_Uninitialized_copy<std::basic_string<char,std::char_traits<char>,std::allocator<char> > *,std::basic_string<char,std::char_traits<char>,std::allocator<char> > *,std::allocator<std::basic_string<char,std::char_traits<char>,std::allocator<char> > > >
_TEXT	ENDS
PUBLIC	?_Destroy@?$vector@V?$basic_string@DU?$char_traits@D@std@@V?$allocator@D@2@@std@@V?$allocator@V?$basic_string@DU?$char_traits@D@std@@V?$allocator@D@2@@std@@@2@@std@@IAEXPAV?$basic_string@DU?$char_traits@D@std@@V?$allocator@D@2@@2@0@Z ; std::vector<std::basic_string<char,std::char_traits<char>,std::allocator<char> >,std::allocator<std::basic_string<char,std::char_traits<char>,std::allocator<char> > > >::_Destroy
; Function compile flags: /Ogsp
; File c:\program files (x86)\microsoft visual studio 10.0\vc\include\vector
;	COMDAT ?_Destroy@?$vector@V?$basic_string@DU?$char_traits@D@std@@V?$allocator@D@2@@std@@V?$allocator@V?$basic_string@DU?$char_traits@D@std@@V?$allocator@D@2@@std@@@2@@std@@IAEXPAV?$basic_string@DU?$char_traits@D@std@@V?$allocator@D@2@@2@0@Z
_TEXT	SEGMENT
__First$ = 8						; size = 4
__Cat$519174 = 12					; size = 1
__Last$ = 12						; size = 4
?_Destroy@?$vector@V?$basic_string@DU?$char_traits@D@std@@V?$allocator@D@2@@std@@V?$allocator@V?$basic_string@DU?$char_traits@D@std@@V?$allocator@D@2@@std@@@2@@std@@IAEXPAV?$basic_string@DU?$char_traits@D@std@@V?$allocator@D@2@@2@0@Z PROC ; std::vector<std::basic_string<char,std::char_traits<char>,std::allocator<char> >,std::allocator<std::basic_string<char,std::char_traits<char>,std::allocator<char> > > >::_Destroy, COMDAT
; _this$ = ecx

; 1269 : 		{	// destroy [_First, _Last) using allocator

  00000	55		 push	 ebp
  00001	8b ec		 mov	 ebp, esp

; 1270 : 		_Destroy_range(_First, _Last, this->_Alval);

  00003	ff 75 0c	 push	 DWORD PTR __Cat$519174[ebp]
  00006	83 c1 0c	 add	 ecx, 12			; 0000000cH
  00009	51		 push	 ecx
  0000a	ff 75 0c	 push	 DWORD PTR __Last$[ebp]
  0000d	ff 75 08	 push	 DWORD PTR __First$[ebp]
  00010	e8 00 00 00 00	 call	 ??$_Destroy_range@V?$allocator@V?$basic_string@DU?$char_traits@D@std@@V?$allocator@D@2@@std@@@std@@@std@@YAXPAV?$basic_string@DU?$char_traits@D@std@@V?$allocator@D@2@@0@0AAV?$allocator@V?$basic_string@DU?$char_traits@D@std@@V?$allocator@D@2@@std@@@0@U_Nonscalar_ptr_iterator_tag@0@@Z ; std::_Destroy_range<std::allocator<std::basic_string<char,std::char_traits<char>,std::allocator<char> > > >
  00015	83 c4 10	 add	 esp, 16			; 00000010H

; 1271 : 		}

  00018	5d		 pop	 ebp
  00019	c2 08 00	 ret	 8
?_Destroy@?$vector@V?$basic_string@DU?$char_traits@D@std@@V?$allocator@D@2@@std@@V?$allocator@V?$basic_string@DU?$char_traits@D@std@@V?$allocator@D@2@@std@@@2@@std@@IAEXPAV?$basic_string@DU?$char_traits@D@std@@V?$allocator@D@2@@2@0@Z ENDP ; std::vector<std::basic_string<char,std::char_traits<char>,std::allocator<char> >,std::allocator<std::basic_string<char,std::char_traits<char>,std::allocator<char> > > >::_Destroy
_TEXT	ENDS
PUBLIC	?erase@?$vector@V?$basic_string@DU?$char_traits@D@std@@V?$allocator@D@2@@std@@V?$allocator@V?$basic_string@DU?$char_traits@D@std@@V?$allocator@D@2@@std@@@2@@std@@QAE?AV?$_Vector_iterator@V?$_Vector_val@V?$basic_string@DU?$char_traits@D@std@@V?$allocator@D@2@@std@@V?$allocator@V?$basic_string@DU?$char_traits@D@std@@V?$allocator@D@2@@std@@@2@@std@@@2@V?$_Vector_const_iterator@V?$_Vector_val@V?$basic_string@DU?$char_traits@D@std@@V?$allocator@D@2@@std@@V?$allocator@V?$basic_string@DU?$char_traits@D@std@@V?$allocator@D@2@@std@@@2@@std@@@2@0@Z ; std::vector<std::basic_string<char,std::char_traits<char>,std::allocator<char> >,std::allocator<std::basic_string<char,std::char_traits<char>,std::allocator<char> > > >::erase
; Function compile flags: /Ogsp
;	COMDAT ?erase@?$vector@V?$basic_string@DU?$char_traits@D@std@@V?$allocator@D@2@@std@@V?$allocator@V?$basic_string@DU?$char_traits@D@std@@V?$allocator@D@2@@std@@@2@@std@@QAE?AV?$_Vector_iterator@V?$_Vector_val@V?$basic_string@DU?$char_traits@D@std@@V?$allocator@D@2@@std@@V?$allocator@V?$basic_string@DU?$char_traits@D@std@@V?$allocator@D@2@@std@@@2@@std@@@2@V?$_Vector_const_iterator@V?$_Vector_val@V?$basic_string@DU?$char_traits@D@std@@V?$allocator@D@2@@std@@V?$allocator@V?$basic_string@DU?$char_traits@D@std@@V?$allocator@D@2@@std@@@2@@std@@@2@0@Z
_TEXT	SEGMENT
___$ReturnUdt$ = 8					; size = 4
__First_arg$ = 12					; size = 4
__Cat$519272 = 16					; size = 1
__Cat$519249 = 16					; size = 1
__Last_arg$ = 16					; size = 4
?erase@?$vector@V?$basic_string@DU?$char_traits@D@std@@V?$allocator@D@2@@std@@V?$allocator@V?$basic_string@DU?$char_traits@D@std@@V?$allocator@D@2@@std@@@2@@std@@QAE?AV?$_Vector_iterator@V?$_Vector_val@V?$basic_string@DU?$char_traits@D@std@@V?$allocator@D@2@@std@@V?$allocator@V?$basic_string@DU?$char_traits@D@std@@V?$allocator@D@2@@std@@@2@@std@@@2@V?$_Vector_const_iterator@V?$_Vector_val@V?$basic_string@DU?$char_traits@D@std@@V?$allocator@D@2@@std@@V?$allocator@V?$basic_string@DU?$char_traits@D@std@@V?$allocator@D@2@@std@@@2@@std@@@2@0@Z PROC ; std::vector<std::basic_string<char,std::char_traits<char>,std::allocator<char> >,std::allocator<std::basic_string<char,std::char_traits<char>,std::allocator<char> > > >::erase, COMDAT
; _this$ = ecx

; 1190 : 		{	// erase [_First, _Last)

  00000	55		 push	 ebp
  00001	8b ec		 mov	 ebp, esp

; 1191 : 		iterator _First = _Make_iter(_First_arg);

  00003	8b 45 0c	 mov	 eax, DWORD PTR __First_arg$[ebp]
  00006	53		 push	 ebx
  00007	8b 5d 08	 mov	 ebx, DWORD PTR ___$ReturnUdt$[ebp]
  0000a	56		 push	 esi
  0000b	8b f1		 mov	 esi, ecx
  0000d	89 03		 mov	 DWORD PTR [ebx], eax

; 1192 : 		iterator _Last = _Make_iter(_Last_arg);
; 1193 : 
; 1194 : 		if (_First != _Last)

  0000f	3b 45 10	 cmp	 eax, DWORD PTR __Last_arg$[ebp]
  00012	74 2a		 je	 SHORT $LN1@erase@4

; 1195 : 			{	// worth doing, copy down over hole
; 1196 :  #if _ITERATOR_DEBUG_LEVEL == 2
; 1197 : 			if (_Last < _First || _VICONT(_First) != this
; 1198 : 				|| _VIPTR(_First) < this->_Myfirst
; 1199 : 				|| this->_Mylast < _VIPTR(_Last))
; 1200 : 				_DEBUG_ERROR("vector erase iterator outside range");
; 1201 : 			pointer _Ptr = _Move(_VIPTR(_Last), this->_Mylast,
; 1202 : 				_VIPTR(_First));
; 1203 : 			_Orphan_range(_VIPTR(_First), this->_Mylast);
; 1204 : 
; 1205 :  #else /* _ITERATOR_DEBUG_LEVEL == 2 */
; 1206 : 			pointer _Ptr = _Move(_VIPTR(_Last), this->_Mylast,
; 1207 : 				_VIPTR(_First));

  00014	8b 4e 04	 mov	 ecx, DWORD PTR [esi+4]
  00017	57		 push	 edi
  00018	ff 75 10	 push	 DWORD PTR __Cat$519249[ebp]
  0001b	50		 push	 eax
  0001c	51		 push	 ecx
  0001d	ff 75 10	 push	 DWORD PTR __Last_arg$[ebp]
  00020	e8 00 00 00 00	 call	 ??$_Move@PAV?$basic_string@DU?$char_traits@D@std@@V?$allocator@D@2@@std@@PAV12@@std@@YAPAV?$basic_string@DU?$char_traits@D@std@@V?$allocator@D@2@@0@PAV10@00U_Nonscalar_ptr_iterator_tag@0@@Z ; std::_Move<std::basic_string<char,std::char_traits<char>,std::allocator<char> > *,std::basic_string<char,std::char_traits<char>,std::allocator<char> > *>

; 1208 :  #endif /* _ITERATOR_DEBUG_LEVEL == 2 */
; 1209 : 
; 1210 : 			_Destroy(_Ptr, this->_Mylast);

  00025	ff 75 10	 push	 DWORD PTR __Cat$519272[ebp]
  00028	8b f8		 mov	 edi, eax
  0002a	8d 46 0c	 lea	 eax, DWORD PTR [esi+12]
  0002d	50		 push	 eax
  0002e	ff 76 04	 push	 DWORD PTR [esi+4]
  00031	57		 push	 edi
  00032	e8 00 00 00 00	 call	 ??$_Destroy_range@V?$allocator@V?$basic_string@DU?$char_traits@D@std@@V?$allocator@D@2@@std@@@std@@@std@@YAXPAV?$basic_string@DU?$char_traits@D@std@@V?$allocator@D@2@@0@0AAV?$allocator@V?$basic_string@DU?$char_traits@D@std@@V?$allocator@D@2@@std@@@0@U_Nonscalar_ptr_iterator_tag@0@@Z ; std::_Destroy_range<std::allocator<std::basic_string<char,std::char_traits<char>,std::allocator<char> > > >
  00037	83 c4 20	 add	 esp, 32			; 00000020H

; 1211 : 			this->_Mylast = _Ptr;

  0003a	89 7e 04	 mov	 DWORD PTR [esi+4], edi
  0003d	5f		 pop	 edi
$LN1@erase@4:

; 1212 : 			}
; 1213 : 		return (_First);

  0003e	5e		 pop	 esi
  0003f	8b c3		 mov	 eax, ebx
  00041	5b		 pop	 ebx

; 1214 : 		}

  00042	5d		 pop	 ebp
  00043	c2 0c 00	 ret	 12			; 0000000cH
?erase@?$vector@V?$basic_string@DU?$char_traits@D@std@@V?$allocator@D@2@@std@@V?$allocator@V?$basic_string@DU?$char_traits@D@std@@V?$allocator@D@2@@std@@@2@@std@@QAE?AV?$_Vector_iterator@V?$_Vector_val@V?$basic_string@DU?$char_traits@D@std@@V?$allocator@D@2@@std@@V?$allocator@V?$basic_string@DU?$char_traits@D@std@@V?$allocator@D@2@@std@@@2@@std@@@2@V?$_Vector_const_iterator@V?$_Vector_val@V?$basic_string@DU?$char_traits@D@std@@V?$allocator@D@2@@std@@V?$allocator@V?$basic_string@DU?$char_traits@D@std@@V?$allocator@D@2@@std@@@2@@std@@@2@0@Z ENDP ; std::vector<std::basic_string<char,std::char_traits<char>,std::allocator<char> >,std::allocator<std::basic_string<char,std::char_traits<char>,std::allocator<char> > > >::erase
_TEXT	ENDS
PUBLIC	??$_Ucopy@PAV?$basic_string@DU?$char_traits@D@std@@V?$allocator@D@2@@std@@@?$vector@V?$basic_string@DU?$char_traits@D@std@@V?$allocator@D@2@@std@@V?$allocator@V?$basic_string@DU?$char_traits@D@std@@V?$allocator@D@2@@std@@@2@@std@@IAEPAV?$basic_string@DU?$char_traits@D@std@@V?$allocator@D@2@@1@PAV21@00@Z ; std::vector<std::basic_string<char,std::char_traits<char>,std::allocator<char> >,std::allocator<std::basic_string<char,std::char_traits<char>,std::allocator<char> > > >::_Ucopy<std::basic_string<char,std::char_traits<char>,std::allocator<char> > *>
; Function compile flags: /Ogsp
;	COMDAT ??$_Ucopy@PAV?$basic_string@DU?$char_traits@D@std@@V?$allocator@D@2@@std@@@?$vector@V?$basic_string@DU?$char_traits@D@std@@V?$allocator@D@2@@std@@V?$allocator@V?$basic_string@DU?$char_traits@D@std@@V?$allocator@D@2@@std@@@2@@std@@IAEPAV?$basic_string@DU?$char_traits@D@std@@V?$allocator@D@2@@1@PAV21@00@Z
_TEXT	SEGMENT
__First$ = 8						; size = 4
__Last$ = 12						; size = 4
__Cat$519288 = 16					; size = 1
__Ptr$ = 16						; size = 4
??$_Ucopy@PAV?$basic_string@DU?$char_traits@D@std@@V?$allocator@D@2@@std@@@?$vector@V?$basic_string@DU?$char_traits@D@std@@V?$allocator@D@2@@std@@V?$allocator@V?$basic_string@DU?$char_traits@D@std@@V?$allocator@D@2@@std@@@2@@std@@IAEPAV?$basic_string@DU?$char_traits@D@std@@V?$allocator@D@2@@1@PAV21@00@Z PROC ; std::vector<std::basic_string<char,std::char_traits<char>,std::allocator<char> >,std::allocator<std::basic_string<char,std::char_traits<char>,std::allocator<char> > > >::_Ucopy<std::basic_string<char,std::char_traits<char>,std::allocator<char> > *>, COMDAT
; _this$ = ecx

; 1315 : 		pointer _Ucopy(_Iter _First, _Iter _Last, pointer _Ptr)

  00000	55		 push	 ebp
  00001	8b ec		 mov	 ebp, esp

; 1316 : 		{	// copy initializing [_First, _Last), using allocator
; 1317 : 		return (_Uninitialized_copy(_First, _Last,
; 1318 : 			_Ptr, this->_Alval));

  00003	ff 75 10	 push	 DWORD PTR __Cat$519288[ebp]
  00006	83 c1 0c	 add	 ecx, 12			; 0000000cH
  00009	51		 push	 ecx
  0000a	ff 75 10	 push	 DWORD PTR __Ptr$[ebp]
  0000d	ff 75 0c	 push	 DWORD PTR __Last$[ebp]
  00010	ff 75 08	 push	 DWORD PTR __First$[ebp]
  00013	e8 00 00 00 00	 call	 ??$_Uninit_copy@PAV?$basic_string@DU?$char_traits@D@std@@V?$allocator@D@2@@std@@PAV12@V?$allocator@V?$basic_string@DU?$char_traits@D@std@@V?$allocator@D@2@@std@@@2@@std@@YAPAV?$basic_string@DU?$char_traits@D@std@@V?$allocator@D@2@@0@PAV10@00AAV?$allocator@V?$basic_string@DU?$char_traits@D@std@@V?$allocator@D@2@@std@@@0@U_Nonscalar_ptr_iterator_tag@0@@Z ; std::_Uninit_copy<std::basic_string<char,std::char_traits<char>,std::allocator<char> > *,std::basic_string<char,std::char_traits<char>,std::allocator<char> > *,std::allocator<std::basic_string<char,std::char_traits<char>,std::allocator<char> > > >
  00018	83 c4 14	 add	 esp, 20			; 00000014H

; 1319 : 		}

  0001b	5d		 pop	 ebp
  0001c	c2 0c 00	 ret	 12			; 0000000cH
??$_Ucopy@PAV?$basic_string@DU?$char_traits@D@std@@V?$allocator@D@2@@std@@@?$vector@V?$basic_string@DU?$char_traits@D@std@@V?$allocator@D@2@@std@@V?$allocator@V?$basic_string@DU?$char_traits@D@std@@V?$allocator@D@2@@std@@@2@@std@@IAEPAV?$basic_string@DU?$char_traits@D@std@@V?$allocator@D@2@@1@PAV21@00@Z ENDP ; std::vector<std::basic_string<char,std::char_traits<char>,std::allocator<char> >,std::allocator<std::basic_string<char,std::char_traits<char>,std::allocator<char> > > >::_Ucopy<std::basic_string<char,std::char_traits<char>,std::allocator<char> > *>
_TEXT	ENDS
PUBLIC	?_Tidy@?$vector@V?$basic_string@DU?$char_traits@D@std@@V?$allocator@D@2@@std@@V?$allocator@V?$basic_string@DU?$char_traits@D@std@@V?$allocator@D@2@@std@@@2@@std@@IAEXXZ ; std::vector<std::basic_string<char,std::char_traits<char>,std::allocator<char> >,std::allocator<std::basic_string<char,std::char_traits<char>,std::allocator<char> > > >::_Tidy
; Function compile flags: /Ogsp
;	COMDAT ?_Tidy@?$vector@V?$basic_string@DU?$char_traits@D@std@@V?$allocator@D@2@@std@@V?$allocator@V?$basic_string@DU?$char_traits@D@std@@V?$allocator@D@2@@std@@@2@@std@@IAEXXZ
_TEXT	SEGMENT
__Cat$519310 = -4					; size = 1
?_Tidy@?$vector@V?$basic_string@DU?$char_traits@D@std@@V?$allocator@D@2@@std@@V?$allocator@V?$basic_string@DU?$char_traits@D@std@@V?$allocator@D@2@@std@@@2@@std@@IAEXXZ PROC ; std::vector<std::basic_string<char,std::char_traits<char>,std::allocator<char> >,std::allocator<std::basic_string<char,std::char_traits<char>,std::allocator<char> > > >::_Tidy, COMDAT
; _this$ = ecx

; 1301 : 		{	// free all storage

  00000	55		 push	 ebp
  00001	8b ec		 mov	 ebp, esp
  00003	51		 push	 ecx
  00004	56		 push	 esi
  00005	8b f1		 mov	 esi, ecx

; 1302 : 		if (this->_Myfirst != 0)

  00007	83 3e 00	 cmp	 DWORD PTR [esi], 0
  0000a	74 21		 je	 SHORT $LN10@Tidy@5

; 1303 : 			{	// something to free, destroy and deallocate it
; 1304 : 			this->_Orphan_all();

  0000c	ff 15 00 00 00
	00		 call	 DWORD PTR __imp_?_Orphan_all@_Container_base0@std@@QAEXXZ

; 1305 : 			_Destroy(this->_Myfirst, this->_Mylast);

  00012	ff 75 fc	 push	 DWORD PTR __Cat$519310[ebp]
  00015	8d 46 0c	 lea	 eax, DWORD PTR [esi+12]
  00018	50		 push	 eax
  00019	ff 76 04	 push	 DWORD PTR [esi+4]
  0001c	ff 36		 push	 DWORD PTR [esi]
  0001e	e8 00 00 00 00	 call	 ??$_Destroy_range@V?$allocator@V?$basic_string@DU?$char_traits@D@std@@V?$allocator@D@2@@std@@@std@@@std@@YAXPAV?$basic_string@DU?$char_traits@D@std@@V?$allocator@D@2@@0@0AAV?$allocator@V?$basic_string@DU?$char_traits@D@std@@V?$allocator@D@2@@std@@@0@U_Nonscalar_ptr_iterator_tag@0@@Z ; std::_Destroy_range<std::allocator<std::basic_string<char,std::char_traits<char>,std::allocator<char> > > >

; 1306 : 			this->_Alval.deallocate(this->_Myfirst,
; 1307 : 				this->_Myend - this->_Myfirst);

  00023	ff 36		 push	 DWORD PTR [esi]
  00025	e8 00 00 00 00	 call	 ??3@YAXPAX@Z		; operator delete
  0002a	83 c4 14	 add	 esp, 20			; 00000014H
$LN10@Tidy@5:

; 1308 : 			}
; 1309 : 		this->_Myfirst = 0;

  0002d	83 26 00	 and	 DWORD PTR [esi], 0

; 1310 : 		this->_Mylast = 0;

  00030	83 66 04 00	 and	 DWORD PTR [esi+4], 0

; 1311 : 		this->_Myend = 0;

  00034	83 66 08 00	 and	 DWORD PTR [esi+8], 0
  00038	5e		 pop	 esi

; 1312 : 		}

  00039	c9		 leave
  0003a	c3		 ret	 0
?_Tidy@?$vector@V?$basic_string@DU?$char_traits@D@std@@V?$allocator@D@2@@std@@V?$allocator@V?$basic_string@DU?$char_traits@D@std@@V?$allocator@D@2@@std@@@2@@std@@IAEXXZ ENDP ; std::vector<std::basic_string<char,std::char_traits<char>,std::allocator<char> >,std::allocator<std::basic_string<char,std::char_traits<char>,std::allocator<char> > > >::_Tidy
_TEXT	ENDS
PUBLIC	?clear@?$vector@V?$basic_string@DU?$char_traits@D@std@@V?$allocator@D@2@@std@@V?$allocator@V?$basic_string@DU?$char_traits@D@std@@V?$allocator@D@2@@std@@@2@@std@@QAEXXZ ; std::vector<std::basic_string<char,std::char_traits<char>,std::allocator<char> >,std::allocator<std::basic_string<char,std::char_traits<char>,std::allocator<char> > > >::clear
; Function compile flags: /Ogsp
;	COMDAT ?clear@?$vector@V?$basic_string@DU?$char_traits@D@std@@V?$allocator@D@2@@std@@V?$allocator@V?$basic_string@DU?$char_traits@D@std@@V?$allocator@D@2@@std@@@2@@std@@QAEXXZ
_TEXT	SEGMENT
$T519327 = -4						; size = 4
?clear@?$vector@V?$basic_string@DU?$char_traits@D@std@@V?$allocator@D@2@@std@@V?$allocator@V?$basic_string@DU?$char_traits@D@std@@V?$allocator@D@2@@std@@@2@@std@@QAEXXZ PROC ; std::vector<std::basic_string<char,std::char_traits<char>,std::allocator<char> >,std::allocator<std::basic_string<char,std::char_traits<char>,std::allocator<char> > > >::clear, COMDAT
; _this$ = ecx

; 1217 : 		{	// erase all

  00000	55		 push	 ebp
  00001	8b ec		 mov	 ebp, esp
  00003	51		 push	 ecx

; 1218 : 		erase(begin(), end());

  00004	8b 41 04	 mov	 eax, DWORD PTR [ecx+4]
  00007	8b 11		 mov	 edx, DWORD PTR [ecx]
  00009	50		 push	 eax
  0000a	52		 push	 edx
  0000b	8d 45 fc	 lea	 eax, DWORD PTR $T519327[ebp]
  0000e	50		 push	 eax
  0000f	e8 00 00 00 00	 call	 ?erase@?$vector@V?$basic_string@DU?$char_traits@D@std@@V?$allocator@D@2@@std@@V?$allocator@V?$basic_string@DU?$char_traits@D@std@@V?$allocator@D@2@@std@@@2@@std@@QAE?AV?$_Vector_iterator@V?$_Vector_val@V?$basic_string@DU?$char_traits@D@std@@V?$allocator@D@2@@std@@V?$allocator@V?$basic_string@DU?$char_traits@D@std@@V?$allocator@D@2@@std@@@2@@std@@@2@V?$_Vector_const_iterator@V?$_Vector_val@V?$basic_string@DU?$char_traits@D@std@@V?$allocator@D@2@@std@@V?$allocator@V?$basic_string@DU?$char_traits@D@std@@V?$allocator@D@2@@std@@@2@@std@@@2@0@Z ; std::vector<std::basic_string<char,std::char_traits<char>,std::allocator<char> >,std::allocator<std::basic_string<char,std::char_traits<char>,std::allocator<char> > > >::erase

; 1219 : 		}

  00014	c9		 leave
  00015	c3		 ret	 0
?clear@?$vector@V?$basic_string@DU?$char_traits@D@std@@V?$allocator@D@2@@std@@V?$allocator@V?$basic_string@DU?$char_traits@D@std@@V?$allocator@D@2@@std@@@2@@std@@QAEXXZ ENDP ; std::vector<std::basic_string<char,std::char_traits<char>,std::allocator<char> >,std::allocator<std::basic_string<char,std::char_traits<char>,std::allocator<char> > > >::clear
_TEXT	ENDS
PUBLIC	??1?$vector@V?$basic_string@DU?$char_traits@D@std@@V?$allocator@D@2@@std@@V?$allocator@V?$basic_string@DU?$char_traits@D@std@@V?$allocator@D@2@@std@@@2@@std@@QAE@XZ ; std::vector<std::basic_string<char,std::char_traits<char>,std::allocator<char> >,std::allocator<std::basic_string<char,std::char_traits<char>,std::allocator<char> > > >::~vector<std::basic_string<char,std::char_traits<char>,std::allocator<char> >,std::allocator<std::basic_string<char,std::char_traits<char>,std::allocator<char> > > >
; Function compile flags: /Ogsp
;	COMDAT ??1?$vector@V?$basic_string@DU?$char_traits@D@std@@V?$allocator@D@2@@std@@V?$allocator@V?$basic_string@DU?$char_traits@D@std@@V?$allocator@D@2@@std@@@2@@std@@QAE@XZ
_TEXT	SEGMENT
??1?$vector@V?$basic_string@DU?$char_traits@D@std@@V?$allocator@D@2@@std@@V?$allocator@V?$basic_string@DU?$char_traits@D@std@@V?$allocator@D@2@@std@@@2@@std@@QAE@XZ PROC ; std::vector<std::basic_string<char,std::char_traits<char>,std::allocator<char> >,std::allocator<std::basic_string<char,std::char_traits<char>,std::allocator<char> > > >::~vector<std::basic_string<char,std::char_traits<char>,std::allocator<char> >,std::allocator<std::basic_string<char,std::char_traits<char>,std::allocator<char> > > >, COMDAT
; _this$ = ecx

; 705  : 		_Tidy();

  00000	e9 00 00 00 00	 jmp	 ?_Tidy@?$vector@V?$basic_string@DU?$char_traits@D@std@@V?$allocator@D@2@@std@@V?$allocator@V?$basic_string@DU?$char_traits@D@std@@V?$allocator@D@2@@std@@@2@@std@@IAEXXZ ; std::vector<std::basic_string<char,std::char_traits<char>,std::allocator<char> >,std::allocator<std::basic_string<char,std::char_traits<char>,std::allocator<char> > > >::_Tidy
??1?$vector@V?$basic_string@DU?$char_traits@D@std@@V?$allocator@D@2@@std@@V?$allocator@V?$basic_string@DU?$char_traits@D@std@@V?$allocator@D@2@@std@@@2@@std@@QAE@XZ ENDP ; std::vector<std::basic_string<char,std::char_traits<char>,std::allocator<char> >,std::allocator<std::basic_string<char,std::char_traits<char>,std::allocator<char> > > >::~vector<std::basic_string<char,std::char_traits<char>,std::allocator<char> >,std::allocator<std::basic_string<char,std::char_traits<char>,std::allocator<char> > > >
_TEXT	ENDS
PUBLIC	??_7EnablePowerupListIconBtn@@6B@		; EnablePowerupListIconBtn::`vftable'
PUBLIC	??0EnablePowerupListIconBtn@@QAE@XZ		; EnablePowerupListIconBtn::EnablePowerupListIconBtn
PUBLIC	??_R4EnablePowerupListIconBtn@@6B@		; EnablePowerupListIconBtn::`RTTI Complete Object Locator'
PUBLIC	??_R0?AVEnablePowerupListIconBtn@@@8		; EnablePowerupListIconBtn `RTTI Type Descriptor'
PUBLIC	??_R3EnablePowerupListIconBtn@@8		; EnablePowerupListIconBtn::`RTTI Class Hierarchy Descriptor'
PUBLIC	??_R2EnablePowerupListIconBtn@@8		; EnablePowerupListIconBtn::`RTTI Base Class Array'
PUBLIC	??_R1A@?0A@EA@EnablePowerupListIconBtn@@8	; EnablePowerupListIconBtn::`RTTI Base Class Descriptor at (0,-1,0,64)'
PUBLIC	??_R1A@?0A@EA@NewShopIconBtn@@8			; NewShopIconBtn::`RTTI Base Class Descriptor at (0,-1,0,64)'
PUBLIC	??_R0?AVNewShopIconBtn@@@8			; NewShopIconBtn `RTTI Type Descriptor'
PUBLIC	??_R3NewShopIconBtn@@8				; NewShopIconBtn::`RTTI Class Hierarchy Descriptor'
PUBLIC	??_R2NewShopIconBtn@@8				; NewShopIconBtn::`RTTI Base Class Array'
PUBLIC	??_R1A@?0A@EA@ioButton@@8			; ioButton::`RTTI Base Class Descriptor at (0,-1,0,64)'
PUBLIC	??_R0?AVioButton@@@8				; ioButton `RTTI Type Descriptor'
PUBLIC	??_R3ioButton@@8				; ioButton::`RTTI Class Hierarchy Descriptor'
PUBLIC	??_R2ioButton@@8				; ioButton::`RTTI Base Class Array'
EXTRN	??0NewShopIconBtn@@QAE@XZ:PROC			; NewShopIconBtn::NewShopIconBtn
EXTRN	?AddRenderFrame@NewShopIconBtn@@UAEXABVioHashString@@PAVioUIRenderFrame@@@Z:PROC ; NewShopIconBtn::AddRenderFrame
EXTRN	?AddRenderImage@NewShopIconBtn@@UAEXABVioHashString@@PAVioUIRenderImage@@@Z:PROC ; NewShopIconBtn::AddRenderImage
EXTRN	?ParseExtraInfo@NewShopIconBtn@@UAEXAAVioXMLElement@@@Z:PROC ; NewShopIconBtn::ParseExtraInfo
EXTRN	?SetWindowAlpha@ioButton@@UAEXH@Z:PROC		; ioButton::SetWindowAlpha
EXTRN	?OnProcess@NewShopIconBtn@@MAEXM@Z:PROC		; NewShopIconBtn::OnProcess
EXTRN	?CheckFrameReSize@ioButton@@MAEXHHHH@Z:PROC	; ioButton::CheckFrameReSize
EXTRN	?iwm_lbuttondown@ioButton@@UAEXABVioMouse@@@Z:PROC ; ioButton::iwm_lbuttondown
EXTRN	?iwm_lbuttonup@ioButton@@UAEXABVioMouse@@@Z:PROC ; ioButton::iwm_lbuttonup
EXTRN	?iwm_lbuttonDBLCLK@ioButton@@UAEXABVioMouse@@@Z:PROC ; ioButton::iwm_lbuttonDBLCLK
EXTRN	?iwm_rbuttondown@ioButton@@UAEXABVioMouse@@@Z:PROC ; ioButton::iwm_rbuttondown
EXTRN	?iwm_rbuttonup@ioButton@@UAEXABVioMouse@@@Z:PROC ; ioButton::iwm_rbuttonup
EXTRN	?iwm_mouseover@ioButton@@UAEXABVioMouse@@@Z:PROC ; ioButton::iwm_mouseover
EXTRN	?GetWndType@ioButton@@UBEKXZ:PROC		; ioButton::GetWndType
EXTRN	?GetHeaderFileName@ioButton@@UAEPBDXZ:PROC	; ioButton::GetHeaderFileName
EXTRN	?GetTemplateName@ioButton@@UAEPBDXZ:PROC	; ioButton::GetTemplateName
EXTRN	?GetDefClassName@ioButton@@UBEPBDXZ:PROC	; ioButton::GetDefClassName
EXTRN	?_Clone@ioButton@@UAEPAVioWnd@@XZ:PROC		; ioButton::_Clone
EXTRN	?Copy@ioButton@@UAEXPAVioWnd@@@Z:PROC		; ioButton::Copy
EXTRN	?SetSaveData@ioButton@@UAEXAAVioXMLElement@@@Z:PROC ; ioButton::SetSaveData
EXTRN	?GetNumFixedRenderFrame@ioButton@@UBEHXZ:PROC	; ioButton::GetNumFixedRenderFrame
EXTRN	?GetFixedRenderFrameType@ioButton@@UAEPBDH@Z:PROC ; ioButton::GetFixedRenderFrameType
EXTRN	?GetRenderFrame@ioButton@@UAEPAPAVioUIRenderElement@@PBD@Z:PROC ; ioButton::GetRenderFrame
EXTRN	?GetNumFixedRenderImage@ioButton@@UBEHXZ:PROC	; ioButton::GetNumFixedRenderImage
EXTRN	?GetFixedRenderImageType@ioButton@@UAEPBDH@Z:PROC ; ioButton::GetFixedRenderImageType
EXTRN	?GetRenderImage@ioButton@@UAEPAPAVioUIRenderElement@@PBD@Z:PROC ; ioButton::GetRenderImage
EXTRN	??_EEnablePowerupListIconBtn@@UAEPAXI@Z:PROC	; EnablePowerupListIconBtn::`vector deleting destructor'
EXTRN	?OnDrawNormal@NewShopIconBtn@@MAEXHH@Z:PROC	; NewShopIconBtn::OnDrawNormal
EXTRN	?OnDrawOvered@NewShopIconBtn@@MAEXHH@Z:PROC	; NewShopIconBtn::OnDrawOvered
EXTRN	?OnDrawOveredAdd@ioButton@@MAEXHH@Z:PROC	; ioButton::OnDrawOveredAdd
EXTRN	?OnDrawPushed@NewShopIconBtn@@MAEXHH@Z:PROC	; NewShopIconBtn::OnDrawPushed
EXTRN	?OnDrawDisabled@NewShopIconBtn@@MAEXHH@Z:PROC	; NewShopIconBtn::OnDrawDisabled
EXTRN	?OnDrawExDisabledNormal@ioButton@@MAEXHH@Z:PROC	; ioButton::OnDrawExDisabledNormal
EXTRN	?OnDrawExDisabledOvered@ioButton@@MAEXHH@Z:PROC	; ioButton::OnDrawExDisabledOvered
EXTRN	?OnDrawExDisabledPushed@ioButton@@MAEXHH@Z:PROC	; ioButton::OnDrawExDisabledPushed
EXTRN	?OnDrawBack@ioButton@@MAEXHH@Z:PROC		; ioButton::OnDrawBack
EXTRN	?OnDrawNormalList@ioButton@@MAEXHH@Z:PROC	; ioButton::OnDrawNormalList
EXTRN	?OnDrawDisableList@ioButton@@MAEXHH@Z:PROC	; ioButton::OnDrawDisableList
;	COMDAT ??_R2ioButton@@8
; File c:\program files (x86)\microsoft visual studio 10.0\vc\include\xmemory
rdata$r	SEGMENT
??_R2ioButton@@8 DD FLAT:??_R1A@?0A@EA@ioButton@@8	; ioButton::`RTTI Base Class Array'
	DD	FLAT:??_R1A@?0A@EA@ioWnd@@8
rdata$r	ENDS
;	COMDAT ??_R3ioButton@@8
rdata$r	SEGMENT
??_R3ioButton@@8 DD 00H					; ioButton::`RTTI Class Hierarchy Descriptor'
	DD	00H
	DD	02H
	DD	FLAT:??_R2ioButton@@8
rdata$r	ENDS
;	COMDAT ??_R0?AVioButton@@@8
_DATA	SEGMENT
??_R0?AVioButton@@@8 DD FLAT:??_7type_info@@6B@		; ioButton `RTTI Type Descriptor'
	DD	00H
	DB	'.?AVioButton@@', 00H
_DATA	ENDS
;	COMDAT ??_R1A@?0A@EA@ioButton@@8
rdata$r	SEGMENT
??_R1A@?0A@EA@ioButton@@8 DD FLAT:??_R0?AVioButton@@@8	; ioButton::`RTTI Base Class Descriptor at (0,-1,0,64)'
	DD	01H
	DD	00H
	DD	0ffffffffH
	DD	00H
	DD	040H
	DD	FLAT:??_R3ioButton@@8
rdata$r	ENDS
;	COMDAT ??_R2NewShopIconBtn@@8
rdata$r	SEGMENT
??_R2NewShopIconBtn@@8 DD FLAT:??_R1A@?0A@EA@NewShopIconBtn@@8 ; NewShopIconBtn::`RTTI Base Class Array'
	DD	FLAT:??_R1A@?0A@EA@ioButton@@8
	DD	FLAT:??_R1A@?0A@EA@ioWnd@@8
rdata$r	ENDS
;	COMDAT ??_R3NewShopIconBtn@@8
rdata$r	SEGMENT
??_R3NewShopIconBtn@@8 DD 00H				; NewShopIconBtn::`RTTI Class Hierarchy Descriptor'
	DD	00H
	DD	03H
	DD	FLAT:??_R2NewShopIconBtn@@8
rdata$r	ENDS
;	COMDAT ??_R0?AVNewShopIconBtn@@@8
_DATA	SEGMENT
??_R0?AVNewShopIconBtn@@@8 DD FLAT:??_7type_info@@6B@	; NewShopIconBtn `RTTI Type Descriptor'
	DD	00H
	DB	'.?AVNewShopIconBtn@@', 00H
_DATA	ENDS
;	COMDAT ??_R1A@?0A@EA@NewShopIconBtn@@8
rdata$r	SEGMENT
??_R1A@?0A@EA@NewShopIconBtn@@8 DD FLAT:??_R0?AVNewShopIconBtn@@@8 ; NewShopIconBtn::`RTTI Base Class Descriptor at (0,-1,0,64)'
	DD	02H
	DD	00H
	DD	0ffffffffH
	DD	00H
	DD	040H
	DD	FLAT:??_R3NewShopIconBtn@@8
rdata$r	ENDS
;	COMDAT ??_R1A@?0A@EA@EnablePowerupListIconBtn@@8
rdata$r	SEGMENT
??_R1A@?0A@EA@EnablePowerupListIconBtn@@8 DD FLAT:??_R0?AVEnablePowerupListIconBtn@@@8 ; EnablePowerupListIconBtn::`RTTI Base Class Descriptor at (0,-1,0,64)'
	DD	03H
	DD	00H
	DD	0ffffffffH
	DD	00H
	DD	040H
	DD	FLAT:??_R3EnablePowerupListIconBtn@@8
rdata$r	ENDS
;	COMDAT ??_R2EnablePowerupListIconBtn@@8
rdata$r	SEGMENT
??_R2EnablePowerupListIconBtn@@8 DD FLAT:??_R1A@?0A@EA@EnablePowerupListIconBtn@@8 ; EnablePowerupListIconBtn::`RTTI Base Class Array'
	DD	FLAT:??_R1A@?0A@EA@NewShopIconBtn@@8
	DD	FLAT:??_R1A@?0A@EA@ioButton@@8
	DD	FLAT:??_R1A@?0A@EA@ioWnd@@8
rdata$r	ENDS
;	COMDAT ??_R3EnablePowerupListIconBtn@@8
rdata$r	SEGMENT
??_R3EnablePowerupListIconBtn@@8 DD 00H			; EnablePowerupListIconBtn::`RTTI Class Hierarchy Descriptor'
	DD	00H
	DD	04H
	DD	FLAT:??_R2EnablePowerupListIconBtn@@8
rdata$r	ENDS
;	COMDAT ??_R0?AVEnablePowerupListIconBtn@@@8
_DATA	SEGMENT
??_R0?AVEnablePowerupListIconBtn@@@8 DD FLAT:??_7type_info@@6B@ ; EnablePowerupListIconBtn `RTTI Type Descriptor'
	DD	00H
	DB	'.?AVEnablePowerupListIconBtn@@', 00H
_DATA	ENDS
;	COMDAT ??_R4EnablePowerupListIconBtn@@6B@
rdata$r	SEGMENT
??_R4EnablePowerupListIconBtn@@6B@ DD 00H		; EnablePowerupListIconBtn::`RTTI Complete Object Locator'
	DD	00H
	DD	00H
	DD	FLAT:??_R0?AVEnablePowerupListIconBtn@@@8
	DD	FLAT:??_R3EnablePowerupListIconBtn@@8
rdata$r	ENDS
;	COMDAT ??_7EnablePowerupListIconBtn@@6B@
CONST	SEGMENT
??_7EnablePowerupListIconBtn@@6B@ DD FLAT:??_R4EnablePowerupListIconBtn@@6B@ ; EnablePowerupListIconBtn::`vftable'
	DD	FLAT:?AddRenderFrame@NewShopIconBtn@@UAEXABVioHashString@@PAVioUIRenderFrame@@@Z
	DD	FLAT:?AddRenderImage@NewShopIconBtn@@UAEXABVioHashString@@PAVioUIRenderImage@@@Z
	DD	FLAT:?AddTooltipHelp@ioWnd@@UAEXABVioHashString@@00@Z
	DD	FLAT:?ParseExtraInfo@NewShopIconBtn@@UAEXAAVioXMLElement@@@Z
	DD	FLAT:?AddNamedRenderImage@ioWnd@@UAEXABVioHashString@@PAVioUIRenderImage@@@Z
	DD	FLAT:?RemoveNamedRenderImage@ioWnd@@UAEXABVioHashString@@@Z
	DD	FLAT:?GetNamedRenderImage@ioWnd@@UBEPAVioUIRenderImage@@ABVioHashString@@@Z
	DD	FLAT:?SetWindowAlpha@ioButton@@UAEXH@Z
	DD	FLAT:?SetActive@ioWnd@@UAEXXZ
	DD	FLAT:?SetInActive@ioWnd@@UAEXXZ
	DD	FLAT:?ClearElementImageList@ioWnd@@UAEXXZ
	DD	FLAT:?SetSize@ioWnd@@UAEXHH@Z
	DD	FLAT:?SetPositionToDefault@ioWnd@@UAEXHH_N0@Z
	DD	FLAT:?IsNeedProcess@ioWnd@@UBE_NXZ
	DD	FLAT:?IsCanMouseReaction@ioWnd@@UBE_NXZ
	DD	FLAT:?AddChild@ioWnd@@UAEXPAV1@@Z
	DD	FLAT:?DeleteChild@ioWnd@@UAEXK@Z
	DD	FLAT:?DeleteAllChild@ioWnd@@UAEXXZ
	DD	FLAT:?OnRenderShowAndHide@ioWnd@@MAE_NXZ
	DD	FLAT:?OnRenderShowAndHideByDefault@ioWnd@@MAE_NK@Z
	DD	FLAT:?OnRenderShowAndHideByTop@ioWnd@@MAE_NK@Z
	DD	FLAT:?OnRenderShowAndHideByDown@ioWnd@@MAE_NK@Z
	DD	FLAT:?OnRender@EnablePowerupListIconBtn@@MAEXXZ
	DD	FLAT:?OnRenderAfterChild@ioWnd@@MAEXXZ
	DD	FLAT:?OnProcess@NewShopIconBtn@@MAEXM@Z
	DD	FLAT:?OnMouseProcess@ioWnd@@MAEXABVioMouse@@@Z
	DD	FLAT:?CheckFrameReSize@ioButton@@MAEXHHHH@Z
	DD	FLAT:?RenderImageList@ioWnd@@MAEXHHW4UIRenderType@@@Z
	DD	FLAT:?iwm_create@ioWnd@@UAEXXZ
	DD	FLAT:?iwm_destroy@ioWnd@@UAEXXZ
	DD	FLAT:?iwm_lbuttondown@ioButton@@UAEXABVioMouse@@@Z
	DD	FLAT:?iwm_lbuttonup@ioButton@@UAEXABVioMouse@@@Z
	DD	FLAT:?iwm_lbuttonDBLCLK@ioButton@@UAEXABVioMouse@@@Z
	DD	FLAT:?iwm_rbuttondown@ioButton@@UAEXABVioMouse@@@Z
	DD	FLAT:?iwm_rbuttonup@ioButton@@UAEXABVioMouse@@@Z
	DD	FLAT:?iwm_command@ioWnd@@UAEXPAV1@HK@Z
	DD	FLAT:?iwm_mouseover@ioButton@@UAEXABVioMouse@@@Z
	DD	FLAT:?iwm_mousemove@ioWnd@@UAEXABVioMouse@@@Z
	DD	FLAT:?iwm_mouseleave@ioWnd@@UAEXABVioMouse@@@Z
	DD	FLAT:?iwm_vscroll@ioWnd@@UAEXKH@Z
	DD	FLAT:?iwm_wheel@ioWnd@@UAEXH@Z
	DD	FLAT:?iwm_show@ioWnd@@UAEXXZ
	DD	FLAT:?iwm_hide@ioWnd@@UAEXXZ
	DD	FLAT:?iwm_esc@ioWnd@@UAE_NXZ
	DD	FLAT:?iwm_spacebar@ioWnd@@UAE_NXZ
	DD	FLAT:?iwm_gototop@ioWnd@@UAEXXZ
	DD	FLAT:?iwm_dragenter@ioWnd@@UAE?AW4IWDropEffect@@PAVioDragItem@@ABVioMouse@@@Z
	DD	FLAT:?iwm_dragover@ioWnd@@UAE?AW4IWDropEffect@@PAVioDragItem@@ABVioMouse@@@Z
	DD	FLAT:?iwm_dragleave@ioWnd@@UAEXXZ
	DD	FLAT:?iwm_dropitem@ioWnd@@UAE_NPAVioDragItem@@ABVioMouse@@PAV1@@Z
	DD	FLAT:?iwm_dropdone@ioWnd@@UAEXPAVioDragItem@@PAV1@_N@Z
	DD	FLAT:?IsEXType@ioWnd@@UBE_NXZ
	DD	FLAT:?GetWndType@ioButton@@UBEKXZ
	DD	FLAT:?RenderWnd@ioWnd@@UAEXXZ
	DD	FLAT:?SetIDEX@ioWnd@@UAEXAAK_N@Z
	DD	FLAT:?ParseXML@ioWnd@@UAEXAAVioXMLElement@@@Z
	DD	FLAT:?GetHeaderFileName@ioButton@@UAEPBDXZ
	DD	FLAT:?GetTemplateName@ioButton@@UAEPBDXZ
	DD	FLAT:?GetDefClassName@ioButton@@UBEPBDXZ
	DD	FLAT:?_Clone@ioButton@@UAEPAVioWnd@@XZ
	DD	FLAT:?Copy@ioButton@@UAEXPAVioWnd@@@Z
	DD	FLAT:?Save@ioWnd@@UAE_NAAVioXMLElement@@@Z
	DD	FLAT:?SetSaveData@ioButton@@UAEXAAVioXMLElement@@@Z
	DD	FLAT:?SetPosX@ioWnd@@UAEXH@Z
	DD	FLAT:?SetPosY@ioWnd@@UAEXH@Z
	DD	FLAT:?SetWidth@ioWnd@@UAEXH@Z
	DD	FLAT:?SetHeight@ioWnd@@UAEXH@Z
	DD	FLAT:?GetNumFixedRenderFrame@ioButton@@UBEHXZ
	DD	FLAT:?GetFixedRenderFrameType@ioButton@@UAEPBDH@Z
	DD	FLAT:?GetRenderFrame@ioButton@@UAEPAPAVioUIRenderElement@@PBD@Z
	DD	FLAT:?GetNumFixedRenderImage@ioButton@@UBEHXZ
	DD	FLAT:?GetFixedRenderImageType@ioButton@@UAEPBDH@Z
	DD	FLAT:?GetRenderImage@ioButton@@UAEPAPAVioUIRenderElement@@PBD@Z
	DD	FLAT:?AddEffect@ioWnd@@UAEXABVioHashString@@PAVioUI3DEffectRender@@@Z
	DD	FLAT:?GetEffect@ioWnd@@UAEPAVioUI3DEffectRender@@VioHashString@@@Z
	DD	FLAT:??_EEnablePowerupListIconBtn@@UAEPAXI@Z
	DD	FLAT:?OnDrawNormal@NewShopIconBtn@@MAEXHH@Z
	DD	FLAT:?OnDrawOvered@NewShopIconBtn@@MAEXHH@Z
	DD	FLAT:?OnDrawOveredAdd@ioButton@@MAEXHH@Z
	DD	FLAT:?OnDrawPushed@NewShopIconBtn@@MAEXHH@Z
	DD	FLAT:?OnDrawDisabled@NewShopIconBtn@@MAEXHH@Z
	DD	FLAT:?OnDrawExDisabledNormal@ioButton@@MAEXHH@Z
	DD	FLAT:?OnDrawExDisabledOvered@ioButton@@MAEXHH@Z
	DD	FLAT:?OnDrawExDisabledPushed@ioButton@@MAEXHH@Z
	DD	FLAT:?OnDrawBack@ioButton@@MAEXHH@Z
	DD	FLAT:?OnDrawNormalList@ioButton@@MAEXHH@Z
	DD	FLAT:?OnDrawDisableList@ioButton@@MAEXHH@Z
; Function compile flags: /Ogsp
; File d:\lost saga for developer\youtube\tutorial\source\src\lsclient\gui\enablepoweruplistwnd.cpp
CONST	ENDS
;	COMDAT ??0EnablePowerupListIconBtn@@QAE@XZ
_TEXT	SEGMENT
??0EnablePowerupListIconBtn@@QAE@XZ PROC		; EnablePowerupListIconBtn::EnablePowerupListIconBtn, COMDAT
; _this$ = ecx

; 9    : {

  00000	56		 push	 esi
  00001	8b f1		 mov	 esi, ecx
  00003	e8 00 00 00 00	 call	 ??0NewShopIconBtn@@QAE@XZ ; NewShopIconBtn::NewShopIconBtn
  00008	33 c9		 xor	 ecx, ecx
  0000a	c7 06 00 00 00
	00		 mov	 DWORD PTR [esi], OFFSET ??_7EnablePowerupListIconBtn@@6B@
  00010	89 8e 6c 02 00
	00		 mov	 DWORD PTR [esi+620], ecx
  00016	89 8e 70 02 00
	00		 mov	 DWORD PTR [esi+624], ecx
  0001c	89 8e 74 02 00
	00		 mov	 DWORD PTR [esi+628], ecx

; 10   : 	m_iItemCode = 0;

  00022	89 8e 7c 02 00
	00		 mov	 DWORD PTR [esi+636], ecx

; 11   : }

  00028	8b c6		 mov	 eax, esi
  0002a	5e		 pop	 esi
  0002b	c3		 ret	 0
??0EnablePowerupListIconBtn@@QAE@XZ ENDP		; EnablePowerupListIconBtn::EnablePowerupListIconBtn
_TEXT	ENDS
PUBLIC	??1EnablePowerupListIconBtn@@UAE@XZ		; EnablePowerupListIconBtn::~EnablePowerupListIconBtn
EXTRN	??1NewShopIconBtn@@UAE@XZ:PROC			; NewShopIconBtn::~NewShopIconBtn
;	COMDAT xdata$x
; File c:\program files (x86)\microsoft visual studio 10.0\vc\include\vector
xdata$x	SEGMENT
__unwindtable$??1EnablePowerupListIconBtn@@UAE@XZ DD 0ffffffffH
	DD	FLAT:__unwindfunclet$??1EnablePowerupListIconBtn@@UAE@XZ$0
	DD	00H
	DD	FLAT:__unwindfunclet$??1EnablePowerupListIconBtn@@UAE@XZ$1
__ehfuncinfo$??1EnablePowerupListIconBtn@@UAE@XZ DD 019930522H
	DD	02H
	DD	FLAT:__unwindtable$??1EnablePowerupListIconBtn@@UAE@XZ
	DD	2 DUP(00H)
	DD	2 DUP(00H)
	DD	00H
	DD	01H
; Function compile flags: /Ogsp
; File d:\lost saga for developer\youtube\tutorial\source\src\lsclient\gui\enablepoweruplistwnd.cpp
xdata$x	ENDS
;	COMDAT ??1EnablePowerupListIconBtn@@UAE@XZ
_TEXT	SEGMENT
$T519480 = -20						; size = 4
_this$ = -16						; size = 4
__$EHRec$ = -12						; size = 12
??1EnablePowerupListIconBtn@@UAE@XZ PROC		; EnablePowerupListIconBtn::~EnablePowerupListIconBtn, COMDAT
; _this$ = ecx

; 14   : {

  00000	6a 08		 push	 8
  00002	b8 00 00 00 00	 mov	 eax, __ehhandler$??1EnablePowerupListIconBtn@@UAE@XZ
  00007	e8 00 00 00 00	 call	 __EH_prolog3
  0000c	8b f9		 mov	 edi, ecx
  0000e	89 7d f0	 mov	 DWORD PTR _this$[ebp], edi
  00011	c7 07 00 00 00
	00		 mov	 DWORD PTR [edi], OFFSET ??_7EnablePowerupListIconBtn@@6B@

; 15   : 	m_szNameList.clear();

  00017	8b 87 70 02 00
	00		 mov	 eax, DWORD PTR [edi+624]
  0001d	8b 8f 6c 02 00
	00		 mov	 ecx, DWORD PTR [edi+620]
  00023	50		 push	 eax
  00024	51		 push	 ecx
  00025	8d 45 ec	 lea	 eax, DWORD PTR $T519480[ebp]
  00028	50		 push	 eax
  00029	8d 8f 6c 02 00
	00		 lea	 ecx, DWORD PTR [edi+620]
  0002f	c7 45 fc 01 00
	00 00		 mov	 DWORD PTR __$EHRec$[ebp+8], 1
  00036	e8 00 00 00 00	 call	 ?erase@?$vector@V?$basic_string@DU?$char_traits@D@std@@V?$allocator@D@2@@std@@V?$allocator@V?$basic_string@DU?$char_traits@D@std@@V?$allocator@D@2@@std@@@2@@std@@QAE?AV?$_Vector_iterator@V?$_Vector_val@V?$basic_string@DU?$char_traits@D@std@@V?$allocator@D@2@@std@@V?$allocator@V?$basic_string@DU?$char_traits@D@std@@V?$allocator@D@2@@std@@@2@@std@@@2@V?$_Vector_const_iterator@V?$_Vector_val@V?$basic_string@DU?$char_traits@D@std@@V?$allocator@D@2@@std@@V?$allocator@V?$basic_string@DU?$char_traits@D@std@@V?$allocator@D@2@@std@@@2@@std@@@2@0@Z ; std::vector<std::basic_string<char,std::char_traits<char>,std::allocator<char> >,std::allocator<std::basic_string<char,std::char_traits<char>,std::allocator<char> > > >::erase

; 16   : }

  0003b	8d 8f 6c 02 00
	00		 lea	 ecx, DWORD PTR [edi+620]
  00041	c6 45 fc 00	 mov	 BYTE PTR __$EHRec$[ebp+8], 0
  00045	e8 00 00 00 00	 call	 ?_Tidy@?$vector@V?$basic_string@DU?$char_traits@D@std@@V?$allocator@D@2@@std@@V?$allocator@V?$basic_string@DU?$char_traits@D@std@@V?$allocator@D@2@@std@@@2@@std@@IAEXXZ ; std::vector<std::basic_string<char,std::char_traits<char>,std::allocator<char> >,std::allocator<std::basic_string<char,std::char_traits<char>,std::allocator<char> > > >::_Tidy
  0004a	83 4d fc ff	 or	 DWORD PTR __$EHRec$[ebp+8], -1
  0004e	8b cf		 mov	 ecx, edi
  00050	e8 00 00 00 00	 call	 ??1NewShopIconBtn@@UAE@XZ ; NewShopIconBtn::~NewShopIconBtn
  00055	e8 00 00 00 00	 call	 __EH_epilog3
  0005a	c3		 ret	 0
_TEXT	ENDS
;	COMDAT text$x
text$x	SEGMENT
__unwindfunclet$??1EnablePowerupListIconBtn@@UAE@XZ$0:
  00000	8b 4d f0	 mov	 ecx, DWORD PTR _this$[ebp]
  00003	e9 00 00 00 00	 jmp	 ??1NewShopIconBtn@@UAE@XZ ; NewShopIconBtn::~NewShopIconBtn
__unwindfunclet$??1EnablePowerupListIconBtn@@UAE@XZ$1:
  00008	8b 4d f0	 mov	 ecx, DWORD PTR _this$[ebp]
  0000b	81 c1 6c 02 00
	00		 add	 ecx, 620		; 0000026cH
  00011	e9 00 00 00 00	 jmp	 ??1?$vector@V?$basic_string@DU?$char_traits@D@std@@V?$allocator@D@2@@std@@V?$allocator@V?$basic_string@DU?$char_traits@D@std@@V?$allocator@D@2@@std@@@2@@std@@QAE@XZ ; std::vector<std::basic_string<char,std::char_traits<char>,std::allocator<char> >,std::allocator<std::basic_string<char,std::char_traits<char>,std::allocator<char> > > >::~vector<std::basic_string<char,std::char_traits<char>,std::allocator<char> >,std::allocator<std::basic_string<char,std::char_traits<char>,std::allocator<char> > > >
__ehhandler$??1EnablePowerupListIconBtn@@UAE@XZ:
  00016	8b 54 24 08	 mov	 edx, DWORD PTR [esp+8]
  0001a	8d 42 0c	 lea	 eax, DWORD PTR [edx+12]
  0001d	8b 4a e8	 mov	 ecx, DWORD PTR [edx-24]
  00020	33 c8		 xor	 ecx, eax
  00022	e8 00 00 00 00	 call	 @__security_check_cookie@4
  00027	b8 00 00 00 00	 mov	 eax, OFFSET __ehfuncinfo$??1EnablePowerupListIconBtn@@UAE@XZ
  0002c	e9 00 00 00 00	 jmp	 ___CxxFrameHandler3
text$x	ENDS
??1EnablePowerupListIconBtn@@UAE@XZ ENDP		; EnablePowerupListIconBtn::~EnablePowerupListIconBtn
PUBLIC	??4?$vector@V?$basic_string@DU?$char_traits@D@std@@V?$allocator@D@2@@std@@V?$allocator@V?$basic_string@DU?$char_traits@D@std@@V?$allocator@D@2@@std@@@2@@std@@QAEAAV01@ABV01@@Z ; std::vector<std::basic_string<char,std::char_traits<char>,std::allocator<char> >,std::allocator<std::basic_string<char,std::char_traits<char>,std::allocator<char> > > >::operator=
; Function compile flags: /Ogsp
; File c:\program files (x86)\microsoft visual studio 10.0\vc\include\vector
;	COMDAT ??4?$vector@V?$basic_string@DU?$char_traits@D@std@@V?$allocator@D@2@@std@@V?$allocator@V?$basic_string@DU?$char_traits@D@std@@V?$allocator@D@2@@std@@@2@@std@@QAEAAV01@ABV01@@Z
_TEXT	SEGMENT
tv551 = 8						; size = 4
__Cat$519739 = 8					; size = 1
__Cat$519708 = 8					; size = 1
__Cat$519684 = 8					; size = 1
__Cat$519661 = 8					; size = 1
__Cat$519637 = 8					; size = 1
__Cat$519612 = 8					; size = 1
$T519579 = 8						; size = 4
__Right$ = 8						; size = 4
??4?$vector@V?$basic_string@DU?$char_traits@D@std@@V?$allocator@D@2@@std@@V?$allocator@V?$basic_string@DU?$char_traits@D@std@@V?$allocator@D@2@@std@@@2@@std@@QAEAAV01@ABV01@@Z PROC ; std::vector<std::basic_string<char,std::char_traits<char>,std::allocator<char> >,std::allocator<std::basic_string<char,std::char_traits<char>,std::allocator<char> > > >::operator=, COMDAT
; _this$ = ecx

; 709  : 		{	// assign _Right

  00000	55		 push	 ebp
  00001	8b ec		 mov	 ebp, esp
  00003	56		 push	 esi
  00004	57		 push	 edi

; 710  : 		if (this != &_Right)

  00005	8b 7d 08	 mov	 edi, DWORD PTR __Right$[ebp]
  00008	8b f1		 mov	 esi, ecx
  0000a	3b f7		 cmp	 esi, edi
  0000c	0f 84 09 01 00
	00		 je	 $LN1@operator@2

; 711  : 			{	// worth doing
; 712  : 			this->_Orphan_all();

  00012	ff 15 00 00 00
	00		 call	 DWORD PTR __imp_?_Orphan_all@_Container_base0@std@@QAEXXZ

; 713  : 
; 714  : 			if (_Right.size() == 0)

  00018	8b 47 04	 mov	 eax, DWORD PTR [edi+4]
  0001b	2b 07		 sub	 eax, DWORD PTR [edi]
  0001d	6a 1c		 push	 28			; 0000001cH
  0001f	99		 cdq
  00020	59		 pop	 ecx
  00021	f7 f9		 idiv	 ecx
  00023	89 45 08	 mov	 DWORD PTR tv551[ebp], eax
  00026	85 c0		 test	 eax, eax

; 715  : 				clear();	// new sequence empty, erase existing sequence

  00028	8b 46 04	 mov	 eax, DWORD PTR [esi+4]
  0002b	75 14		 jne	 SHORT $LN8@operator@2
  0002d	8b 0e		 mov	 ecx, DWORD PTR [esi]
  0002f	50		 push	 eax
  00030	51		 push	 ecx
  00031	8d 45 08	 lea	 eax, DWORD PTR $T519579[ebp]
  00034	50		 push	 eax
  00035	8b ce		 mov	 ecx, esi
  00037	e8 00 00 00 00	 call	 ?erase@?$vector@V?$basic_string@DU?$char_traits@D@std@@V?$allocator@D@2@@std@@V?$allocator@V?$basic_string@DU?$char_traits@D@std@@V?$allocator@D@2@@std@@@2@@std@@QAE?AV?$_Vector_iterator@V?$_Vector_val@V?$basic_string@DU?$char_traits@D@std@@V?$allocator@D@2@@std@@V?$allocator@V?$basic_string@DU?$char_traits@D@std@@V?$allocator@D@2@@std@@@2@@std@@@2@V?$_Vector_const_iterator@V?$_Vector_val@V?$basic_string@DU?$char_traits@D@std@@V?$allocator@D@2@@std@@V?$allocator@V?$basic_string@DU?$char_traits@D@std@@V?$allocator@D@2@@std@@@2@@std@@@2@0@Z ; std::vector<std::basic_string<char,std::char_traits<char>,std::allocator<char> >,std::allocator<std::basic_string<char,std::char_traits<char>,std::allocator<char> > > >::erase

; 716  : 			else if (_Right.size() <= size())

  0003c	e9 da 00 00 00	 jmp	 $LN1@operator@2
$LN8@operator@2:
  00041	53		 push	 ebx
  00042	8b 1e		 mov	 ebx, DWORD PTR [esi]
  00044	2b c3		 sub	 eax, ebx
  00046	6a 1c		 push	 28			; 0000001cH
  00048	99		 cdq
  00049	59		 pop	 ecx
  0004a	f7 f9		 idiv	 ecx
  0004c	8b c8		 mov	 ecx, eax
  0004e	39 4d 08	 cmp	 DWORD PTR tv551[ebp], ecx
  00051	77 36		 ja	 SHORT $LN6@operator@2

; 717  : 				{	// enough elements, copy new and destroy old
; 718  : 				pointer _Ptr = _STD _Copy_impl(_Right._Myfirst, _Right._Mylast,
; 719  : 					this->_Myfirst);	// copy new

  00053	ff 75 08	 push	 DWORD PTR __Cat$519612[ebp]
  00056	53		 push	 ebx
  00057	ff 77 04	 push	 DWORD PTR [edi+4]
  0005a	ff 37		 push	 DWORD PTR [edi]
  0005c	e8 00 00 00 00	 call	 ??$_Copy_impl@PAV?$basic_string@DU?$char_traits@D@std@@V?$allocator@D@2@@std@@PAV12@@std@@YAPAV?$basic_string@DU?$char_traits@D@std@@V?$allocator@D@2@@0@PAV10@00U_Nonscalar_ptr_iterator_tag@0@@Z ; std::_Copy_impl<std::basic_string<char,std::char_traits<char>,std::allocator<char> > *,std::basic_string<char,std::char_traits<char>,std::allocator<char> > *>

; 720  : 				_Destroy(_Ptr, this->_Mylast);	// destroy old

  00061	ff 75 08	 push	 DWORD PTR __Cat$519637[ebp]
  00064	8d 4e 0c	 lea	 ecx, DWORD PTR [esi+12]
  00067	51		 push	 ecx
  00068	ff 76 04	 push	 DWORD PTR [esi+4]
  0006b	50		 push	 eax
  0006c	e8 00 00 00 00	 call	 ??$_Destroy_range@V?$allocator@V?$basic_string@DU?$char_traits@D@std@@V?$allocator@D@2@@std@@@std@@@std@@YAXPAV?$basic_string@DU?$char_traits@D@std@@V?$allocator@D@2@@0@0AAV?$allocator@V?$basic_string@DU?$char_traits@D@std@@V?$allocator@D@2@@std@@@0@U_Nonscalar_ptr_iterator_tag@0@@Z ; std::_Destroy_range<std::allocator<std::basic_string<char,std::char_traits<char>,std::allocator<char> > > >

; 721  : 				this->_Mylast = this->_Myfirst + _Right.size();

  00071	8b 47 04	 mov	 eax, DWORD PTR [edi+4]
  00074	2b 07		 sub	 eax, DWORD PTR [edi]
  00076	83 c4 20	 add	 esp, 32			; 00000020H
  00079	99		 cdq
  0007a	6a 1c		 push	 28			; 0000001cH
  0007c	59		 pop	 ecx
  0007d	f7 f9		 idiv	 ecx
  0007f	6b c0 1c	 imul	 eax, 28			; 0000001cH
  00082	03 06		 add	 eax, DWORD PTR [esi]

; 722  : 				}
; 723  : 			else if (_Right.size() <= capacity())

  00084	e9 8e 00 00 00	 jmp	 $LN81@operator@2
$LN6@operator@2:
  00089	8b 46 08	 mov	 eax, DWORD PTR [esi+8]
  0008c	2b c3		 sub	 eax, ebx
  0008e	6a 1c		 push	 28			; 0000001cH
  00090	99		 cdq
  00091	5b		 pop	 ebx
  00092	f7 fb		 idiv	 ebx
  00094	39 45 08	 cmp	 DWORD PTR tv551[ebp], eax
  00097	77 2e		 ja	 SHORT $LN4@operator@2

; 724  : 				{	// enough room, copy and construct new
; 725  : 				pointer _Ptr = _Right._Myfirst + size();
; 726  : 				_STD _Copy_impl(_Right._Myfirst, _Ptr, this->_Myfirst);

  00099	ff 75 08	 push	 DWORD PTR __Cat$519661[ebp]
  0009c	6b c9 1c	 imul	 ecx, 28			; 0000001cH
  0009f	8b 07		 mov	 eax, DWORD PTR [edi]
  000a1	ff 36		 push	 DWORD PTR [esi]
  000a3	8d 1c 08	 lea	 ebx, DWORD PTR [eax+ecx]
  000a6	53		 push	 ebx
  000a7	50		 push	 eax
  000a8	e8 00 00 00 00	 call	 ??$_Copy_impl@PAV?$basic_string@DU?$char_traits@D@std@@V?$allocator@D@2@@std@@PAV12@@std@@YAPAV?$basic_string@DU?$char_traits@D@std@@V?$allocator@D@2@@0@PAV10@00U_Nonscalar_ptr_iterator_tag@0@@Z ; std::_Copy_impl<std::basic_string<char,std::char_traits<char>,std::allocator<char> > *,std::basic_string<char,std::char_traits<char>,std::allocator<char> > *>

; 727  : 				this->_Mylast = _Ucopy(_Ptr, _Right._Mylast, this->_Mylast);

  000ad	ff 75 08	 push	 DWORD PTR __Cat$519684[ebp]
  000b0	8b 46 04	 mov	 eax, DWORD PTR [esi+4]
  000b3	8b 7f 04	 mov	 edi, DWORD PTR [edi+4]
  000b6	8d 4e 0c	 lea	 ecx, DWORD PTR [esi+12]
  000b9	51		 push	 ecx
  000ba	50		 push	 eax
  000bb	57		 push	 edi
  000bc	53		 push	 ebx
  000bd	e8 00 00 00 00	 call	 ??$_Uninit_copy@PAV?$basic_string@DU?$char_traits@D@std@@V?$allocator@D@2@@std@@PAV12@V?$allocator@V?$basic_string@DU?$char_traits@D@std@@V?$allocator@D@2@@std@@@2@@std@@YAPAV?$basic_string@DU?$char_traits@D@std@@V?$allocator@D@2@@0@PAV10@00AAV?$allocator@V?$basic_string@DU?$char_traits@D@std@@V?$allocator@D@2@@std@@@0@U_Nonscalar_ptr_iterator_tag@0@@Z ; std::_Uninit_copy<std::basic_string<char,std::char_traits<char>,std::allocator<char> > *,std::basic_string<char,std::char_traits<char>,std::allocator<char> > *,std::allocator<std::basic_string<char,std::char_traits<char>,std::allocator<char> > > >
  000c2	83 c4 24	 add	 esp, 36			; 00000024H

; 728  : 				}
; 729  : 			else

  000c5	eb 50		 jmp	 SHORT $LN81@operator@2
$LN4@operator@2:

; 730  : 				{	// not enough room, allocate new array and construct new
; 731  : 				if (this->_Myfirst != 0)

  000c7	8b 06		 mov	 eax, DWORD PTR [esi]
  000c9	85 c0		 test	 eax, eax
  000cb	74 1a		 je	 SHORT $LN70@operator@2

; 732  : 					{	// discard old array
; 733  : 					_Destroy(this->_Myfirst, this->_Mylast);

  000cd	ff 75 08	 push	 DWORD PTR __Cat$519708[ebp]
  000d0	8d 4e 0c	 lea	 ecx, DWORD PTR [esi+12]
  000d3	51		 push	 ecx
  000d4	ff 76 04	 push	 DWORD PTR [esi+4]
  000d7	50		 push	 eax
  000d8	e8 00 00 00 00	 call	 ??$_Destroy_range@V?$allocator@V?$basic_string@DU?$char_traits@D@std@@V?$allocator@D@2@@std@@@std@@@std@@YAXPAV?$basic_string@DU?$char_traits@D@std@@V?$allocator@D@2@@0@0AAV?$allocator@V?$basic_string@DU?$char_traits@D@std@@V?$allocator@D@2@@std@@@0@U_Nonscalar_ptr_iterator_tag@0@@Z ; std::_Destroy_range<std::allocator<std::basic_string<char,std::char_traits<char>,std::allocator<char> > > >

; 734  : 					this->_Alval.deallocate(this->_Myfirst,
; 735  : 						this->_Myend - this->_Myfirst);

  000dd	ff 36		 push	 DWORD PTR [esi]
  000df	e8 00 00 00 00	 call	 ??3@YAXPAX@Z		; operator delete
  000e4	83 c4 14	 add	 esp, 20			; 00000014H
$LN70@operator@2:

; 736  : 					}
; 737  : 				if (_Buy(_Right.size()))

  000e7	8b 47 04	 mov	 eax, DWORD PTR [edi+4]
  000ea	2b 07		 sub	 eax, DWORD PTR [edi]
  000ec	6a 1c		 push	 28			; 0000001cH
  000ee	59		 pop	 ecx
  000ef	99		 cdq
  000f0	f7 f9		 idiv	 ecx
  000f2	8b ce		 mov	 ecx, esi
  000f4	50		 push	 eax
  000f5	e8 00 00 00 00	 call	 ?_Buy@?$vector@V?$basic_string@DU?$char_traits@D@std@@V?$allocator@D@2@@std@@V?$allocator@V?$basic_string@DU?$char_traits@D@std@@V?$allocator@D@2@@std@@@2@@std@@IAE_NI@Z ; std::vector<std::basic_string<char,std::char_traits<char>,std::allocator<char> >,std::allocator<std::basic_string<char,std::char_traits<char>,std::allocator<char> > > >::_Buy
  000fa	84 c0		 test	 al, al
  000fc	74 1c		 je	 SHORT $LN80@operator@2

; 738  : 					this->_Mylast = _Ucopy(_Right._Myfirst, _Right._Mylast,
; 739  : 						this->_Myfirst);

  000fe	ff 75 08	 push	 DWORD PTR __Cat$519739[ebp]
  00101	8b 06		 mov	 eax, DWORD PTR [esi]
  00103	8b 4f 04	 mov	 ecx, DWORD PTR [edi+4]
  00106	8b 3f		 mov	 edi, DWORD PTR [edi]
  00108	8d 56 0c	 lea	 edx, DWORD PTR [esi+12]
  0010b	52		 push	 edx
  0010c	50		 push	 eax
  0010d	51		 push	 ecx
  0010e	57		 push	 edi
  0010f	e8 00 00 00 00	 call	 ??$_Uninit_copy@PAV?$basic_string@DU?$char_traits@D@std@@V?$allocator@D@2@@std@@PAV12@V?$allocator@V?$basic_string@DU?$char_traits@D@std@@V?$allocator@D@2@@std@@@2@@std@@YAPAV?$basic_string@DU?$char_traits@D@std@@V?$allocator@D@2@@0@PAV10@00AAV?$allocator@V?$basic_string@DU?$char_traits@D@std@@V?$allocator@D@2@@std@@@0@U_Nonscalar_ptr_iterator_tag@0@@Z ; std::_Uninit_copy<std::basic_string<char,std::char_traits<char>,std::allocator<char> > *,std::basic_string<char,std::char_traits<char>,std::allocator<char> > *,std::allocator<std::basic_string<char,std::char_traits<char>,std::allocator<char> > > >
  00114	83 c4 14	 add	 esp, 20			; 00000014H
$LN81@operator@2:
  00117	89 46 04	 mov	 DWORD PTR [esi+4], eax
$LN80@operator@2:
  0011a	5b		 pop	 ebx
$LN1@operator@2:
  0011b	5f		 pop	 edi

; 740  : 				}
; 741  : 			}
; 742  : 		return (*this);

  0011c	8b c6		 mov	 eax, esi
  0011e	5e		 pop	 esi

; 743  : 		}

  0011f	5d		 pop	 ebp
  00120	c2 04 00	 ret	 4
??4?$vector@V?$basic_string@DU?$char_traits@D@std@@V?$allocator@D@2@@std@@V?$allocator@V?$basic_string@DU?$char_traits@D@std@@V?$allocator@D@2@@std@@@2@@std@@QAEAAV01@ABV01@@Z ENDP ; std::vector<std::basic_string<char,std::char_traits<char>,std::allocator<char> >,std::allocator<std::basic_string<char,std::char_traits<char>,std::allocator<char> > > >::operator=
; Function compile flags: /Ogsp
_TEXT	ENDS
;	COMDAT ??_GEnablePowerupListIconBtn@@UAEPAXI@Z
_TEXT	SEGMENT
___flags$ = 8						; size = 4
??_GEnablePowerupListIconBtn@@UAEPAXI@Z PROC		; EnablePowerupListIconBtn::`scalar deleting destructor', COMDAT
; _this$ = ecx
  00000	55		 push	 ebp
  00001	8b ec		 mov	 ebp, esp
  00003	56		 push	 esi
  00004	8b f1		 mov	 esi, ecx
  00006	e8 00 00 00 00	 call	 ??1EnablePowerupListIconBtn@@UAE@XZ ; EnablePowerupListIconBtn::~EnablePowerupListIconBtn
  0000b	f6 45 08 01	 test	 BYTE PTR ___flags$[ebp], 1
  0000f	74 07		 je	 SHORT $LN1@scalar@6
  00011	56		 push	 esi
  00012	e8 00 00 00 00	 call	 ??3@YAXPAX@Z		; operator delete
  00017	59		 pop	 ecx
$LN1@scalar@6:
  00018	8b c6		 mov	 eax, esi
  0001a	5e		 pop	 esi
  0001b	5d		 pop	 ebp
  0001c	c2 04 00	 ret	 4
??_GEnablePowerupListIconBtn@@UAEPAXI@Z ENDP		; EnablePowerupListIconBtn::`scalar deleting destructor'
_TEXT	ENDS
PUBLIC	??_C@_01IPJKGB@?$CD?$AA@			; `string'
PUBLIC	_szName$GSCopy$
PUBLIC	?SplitDescription@EnablePowerupListIconBtn@@IAEXABVioHashString@@@Z ; EnablePowerupListIconBtn::SplitDescription
EXTRN	__imp_?Split@ioStringConverter@@SAABV?$vector@V?$basic_string@DU?$char_traits@D@std@@V?$allocator@D@2@@std@@V?$allocator@V?$basic_string@DU?$char_traits@D@std@@V?$allocator@D@2@@std@@@2@@std@@ABV?$basic_string@DU?$char_traits@D@std@@V?$allocator@D@2@@3@0H@Z:PROC
EXTRN	__EH_epilog3_GS:PROC
EXTRN	__EH_prolog3_GS:PROC
;	COMDAT ??_C@_01IPJKGB@?$CD?$AA@
; File c:\program files (x86)\microsoft visual studio 10.0\vc\include\xstring
CONST	SEGMENT
??_C@_01IPJKGB@?$CD?$AA@ DB '#', 00H			; `string'
CONST	ENDS
;	COMDAT xdata$x
xdata$x	SEGMENT
__unwindtable$?SplitDescription@EnablePowerupListIconBtn@@IAEXABVioHashString@@@Z DD 0ffffffffH
	DD	FLAT:__unwindfunclet$?SplitDescription@EnablePowerupListIconBtn@@IAEXABVioHashString@@@Z$0
	DD	00H
	DD	FLAT:__unwindfunclet$?SplitDescription@EnablePowerupListIconBtn@@IAEXABVioHashString@@@Z$1
__ehfuncinfo$?SplitDescription@EnablePowerupListIconBtn@@IAEXABVioHashString@@@Z DD 019930522H
	DD	02H
	DD	FLAT:__unwindtable$?SplitDescription@EnablePowerupListIconBtn@@IAEXABVioHashString@@@Z
	DD	2 DUP(00H)
	DD	2 DUP(00H)
	DD	00H
	DD	01H
; Function compile flags: /Ogsp
; File d:\lost saga for developer\youtube\tutorial\source\src\lsclient\gui\enablepoweruplistwnd.cpp
xdata$x	ENDS
;	COMDAT ?SplitDescription@EnablePowerupListIconBtn@@IAEXABVioHashString@@@Z
_TEXT	SEGMENT
$T519815 = -80						; size = 4
_szName$GSCopy$ = -76					; size = 4
$T509037 = -72						; size = 28
$T509038 = -44						; size = 28
__$EHRec$ = -12						; size = 12
_szName$ = 8						; size = 4
?SplitDescription@EnablePowerupListIconBtn@@IAEXABVioHashString@@@Z PROC ; EnablePowerupListIconBtn::SplitDescription, COMDAT
; _this$ = ecx

; 67   : {

  00000	6a 44		 push	 68			; 00000044H
  00002	b8 00 00 00 00	 mov	 eax, __ehhandler$?SplitDescription@EnablePowerupListIconBtn@@IAEXABVioHashString@@@Z
  00007	e8 00 00 00 00	 call	 __EH_prolog3_GS
  0000c	8b 45 08	 mov	 eax, DWORD PTR _szName$[ebp]
  0000f	8b f1		 mov	 esi, ecx

; 68   : 	m_szNameList.clear();

  00011	8b 8e 6c 02 00
	00		 mov	 ecx, DWORD PTR [esi+620]
  00017	89 45 b4	 mov	 DWORD PTR _szName$GSCopy$[ebp], eax
  0001a	8b 86 70 02 00
	00		 mov	 eax, DWORD PTR [esi+624]
  00020	50		 push	 eax
  00021	51		 push	 ecx
  00022	8d 45 b0	 lea	 eax, DWORD PTR $T519815[ebp]
  00025	50		 push	 eax
  00026	8d 8e 6c 02 00
	00		 lea	 ecx, DWORD PTR [esi+620]
  0002c	e8 00 00 00 00	 call	 ?erase@?$vector@V?$basic_string@DU?$char_traits@D@std@@V?$allocator@D@2@@std@@V?$allocator@V?$basic_string@DU?$char_traits@D@std@@V?$allocator@D@2@@std@@@2@@std@@QAE?AV?$_Vector_iterator@V?$_Vector_val@V?$basic_string@DU?$char_traits@D@std@@V?$allocator@D@2@@std@@V?$allocator@V?$basic_string@DU?$char_traits@D@std@@V?$allocator@D@2@@std@@@2@@std@@@2@V?$_Vector_const_iterator@V?$_Vector_val@V?$basic_string@DU?$char_traits@D@std@@V?$allocator@D@2@@std@@V?$allocator@V?$basic_string@DU?$char_traits@D@std@@V?$allocator@D@2@@std@@@2@@std@@@2@0@Z ; std::vector<std::basic_string<char,std::char_traits<char>,std::allocator<char> >,std::allocator<std::basic_string<char,std::char_traits<char>,std::allocator<char> > > >::erase

; 69   : 	m_szNameList = ioStringConverter::Split( szName.c_str(), "#" );

  00031	6a 0f		 push	 15			; 0000000fH
  00033	5f		 pop	 edi
  00034	6a 01		 push	 1
  00036	33 db		 xor	 ebx, ebx
  00038	68 00 00 00 00	 push	 OFFSET ??_C@_01IPJKGB@?$CD?$AA@
  0003d	8d 4d b8	 lea	 ecx, DWORD PTR $T509037[ebp]
  00040	89 7d cc	 mov	 DWORD PTR $T509037[ebp+20], edi
  00043	89 5d c8	 mov	 DWORD PTR $T509037[ebp+16], ebx
  00046	88 5d b8	 mov	 BYTE PTR $T509037[ebp], bl
  00049	e8 00 00 00 00	 call	 ?assign@?$basic_string@DU?$char_traits@D@std@@V?$allocator@D@2@@std@@QAEAAV12@PBDI@Z ; std::basic_string<char,std::char_traits<char>,std::allocator<char> >::assign
  0004e	8b 4d b4	 mov	 ecx, DWORD PTR _szName$GSCopy$[ebp]
  00051	89 5d fc	 mov	 DWORD PTR __$EHRec$[ebp+8], ebx
  00054	ff 15 00 00 00
	00		 call	 DWORD PTR __imp_?c_str@ioHashString@@QBEPBDXZ
  0005a	50		 push	 eax
  0005b	8d 4d d4	 lea	 ecx, DWORD PTR $T509038[ebp]
  0005e	89 7d e8	 mov	 DWORD PTR $T509038[ebp+20], edi
  00061	89 5d e4	 mov	 DWORD PTR $T509038[ebp+16], ebx
  00064	88 5d d4	 mov	 BYTE PTR $T509038[ebp], bl
  00067	e8 00 00 00 00	 call	 ?assign@?$basic_string@DU?$char_traits@D@std@@V?$allocator@D@2@@std@@QAEAAV12@PBD@Z ; std::basic_string<char,std::char_traits<char>,std::allocator<char> >::assign
  0006c	53		 push	 ebx
  0006d	8d 45 b8	 lea	 eax, DWORD PTR $T509037[ebp]
  00070	50		 push	 eax
  00071	8d 45 d4	 lea	 eax, DWORD PTR $T509038[ebp]
  00074	50		 push	 eax
  00075	c6 45 fc 01	 mov	 BYTE PTR __$EHRec$[ebp+8], 1
  00079	ff 15 00 00 00
	00		 call	 DWORD PTR __imp_?Split@ioStringConverter@@SAABV?$vector@V?$basic_string@DU?$char_traits@D@std@@V?$allocator@D@2@@std@@V?$allocator@V?$basic_string@DU?$char_traits@D@std@@V?$allocator@D@2@@std@@@2@@std@@ABV?$basic_string@DU?$char_traits@D@std@@V?$allocator@D@2@@3@0H@Z
  0007f	83 c4 0c	 add	 esp, 12			; 0000000cH
  00082	50		 push	 eax
  00083	8d 8e 6c 02 00
	00		 lea	 ecx, DWORD PTR [esi+620]
  00089	e8 00 00 00 00	 call	 ??4?$vector@V?$basic_string@DU?$char_traits@D@std@@V?$allocator@D@2@@std@@V?$allocator@V?$basic_string@DU?$char_traits@D@std@@V?$allocator@D@2@@std@@@2@@std@@QAEAAV01@ABV01@@Z ; std::vector<std::basic_string<char,std::char_traits<char>,std::allocator<char> >,std::allocator<std::basic_string<char,std::char_traits<char>,std::allocator<char> > > >::operator=
  0008e	53		 push	 ebx
  0008f	6a 01		 push	 1
  00091	8d 4d d4	 lea	 ecx, DWORD PTR $T509038[ebp]
  00094	e8 00 00 00 00	 call	 ?_Tidy@?$basic_string@DU?$char_traits@D@std@@V?$allocator@D@2@@std@@QAEX_NI@Z ; std::basic_string<char,std::char_traits<char>,std::allocator<char> >::_Tidy
  00099	53		 push	 ebx
  0009a	6a 01		 push	 1
  0009c	8d 4d b8	 lea	 ecx, DWORD PTR $T509037[ebp]
  0009f	e8 00 00 00 00	 call	 ?_Tidy@?$basic_string@DU?$char_traits@D@std@@V?$allocator@D@2@@std@@QAEX_NI@Z ; std::basic_string<char,std::char_traits<char>,std::allocator<char> >::_Tidy

; 70   : }

  000a4	e8 00 00 00 00	 call	 __EH_epilog3_GS
  000a9	c2 04 00	 ret	 4
_TEXT	ENDS
;	COMDAT text$x
text$x	SEGMENT
__unwindfunclet$?SplitDescription@EnablePowerupListIconBtn@@IAEXABVioHashString@@@Z$0:
  00000	8d 4d b8	 lea	 ecx, DWORD PTR $T509037[ebp]
  00003	e9 00 00 00 00	 jmp	 ??1?$basic_string@DU?$char_traits@D@std@@V?$allocator@D@2@@std@@QAE@XZ ; std::basic_string<char,std::char_traits<char>,std::allocator<char> >::~basic_string<char,std::char_traits<char>,std::allocator<char> >
__unwindfunclet$?SplitDescription@EnablePowerupListIconBtn@@IAEXABVioHashString@@@Z$1:
  00008	8d 4d d4	 lea	 ecx, DWORD PTR $T509038[ebp]
  0000b	e9 00 00 00 00	 jmp	 ??1?$basic_string@DU?$char_traits@D@std@@V?$allocator@D@2@@std@@QAE@XZ ; std::basic_string<char,std::char_traits<char>,std::allocator<char> >::~basic_string<char,std::char_traits<char>,std::allocator<char> >
__ehhandler$?SplitDescription@EnablePowerupListIconBtn@@IAEXABVioHashString@@@Z:
  00010	8b 54 24 08	 mov	 edx, DWORD PTR [esp+8]
  00014	8d 42 0c	 lea	 eax, DWORD PTR [edx+12]
  00017	8b 4a ac	 mov	 ecx, DWORD PTR [edx-84]
  0001a	33 c8		 xor	 ecx, eax
  0001c	e8 00 00 00 00	 call	 @__security_check_cookie@4
  00021	8b 4a fc	 mov	 ecx, DWORD PTR [edx-4]
  00024	33 c8		 xor	 ecx, eax
  00026	e8 00 00 00 00	 call	 @__security_check_cookie@4
  0002b	b8 00 00 00 00	 mov	 eax, OFFSET __ehfuncinfo$?SplitDescription@EnablePowerupListIconBtn@@IAEXABVioHashString@@@Z
  00030	e9 00 00 00 00	 jmp	 ___CxxFrameHandler3
text$x	ENDS
?SplitDescription@EnablePowerupListIconBtn@@IAEXABVioHashString@@@Z ENDP ; EnablePowerupListIconBtn::SplitDescription
PUBLIC	?SetName@EnablePowerupListIconBtn@@QAEXABVioHashString@@@Z ; EnablePowerupListIconBtn::SetName
; Function compile flags: /Ogsp
;	COMDAT ?SetName@EnablePowerupListIconBtn@@QAEXABVioHashString@@@Z
_TEXT	SEGMENT
_rName$ = 8						; size = 4
?SetName@EnablePowerupListIconBtn@@QAEXABVioHashString@@@Z PROC ; EnablePowerupListIconBtn::SetName, COMDAT
; _this$ = ecx

; 62   : {

  00000	55		 push	 ebp
  00001	8b ec		 mov	 ebp, esp

; 64   : }

  00003	5d		 pop	 ebp

; 63   : 	SplitDescription( rName );

  00004	e9 00 00 00 00	 jmp	 ?SplitDescription@EnablePowerupListIconBtn@@IAEXABVioHashString@@@Z ; EnablePowerupListIconBtn::SplitDescription
?SetName@EnablePowerupListIconBtn@@QAEXABVioHashString@@@Z ENDP ; EnablePowerupListIconBtn::SetName
_TEXT	ENDS
PUBLIC	??_C@_0CE@NLAKKEEG@EnablePowerupListWnd?3?3UpdateIcon@ ; `string'
PUBLIC	??_C@_01JOAMLHOP@?9?$AA@			; `string'
PUBLIC	?UpdateIconBtn@EnablePowerupListWnd@@IAEXXZ	; EnablePowerupListWnd::UpdateIconBtn
EXTRN	__imp_?IsEmpty@ioHashString@@QBE_NXZ:PROC
EXTRN	?GetPowerUpGradeType@ioUIImageRenderManager@@QAEHH@Z:PROC ; ioUIImageRenderManager::GetPowerUpGradeType
EXTRN	?GetSingleton@ioUIImageRenderManager@@SAAAV1@XZ:PROC ; ioUIImageRenderManager::GetSingleton
EXTRN	?SetIcon@NewShopIconBtn@@QAE_NPAVioUIRenderImage@@@Z:PROC ; NewShopIconBtn::SetIcon
EXTRN	__imp_?CreateImageByFullName@ioUIImageSetManager@@QAEPAVioUIRenderImage@@ABVioHashString@@_N@Z:PROC
EXTRN	__imp_?GetSingleton@ioUIImageSetManager@@SAAAV1@XZ:PROC
EXTRN	?GetMySoldierIconName@ioMyInfo@@QAEAAVioHashString@@H@Z:PROC ; ioMyInfo::GetMySoldierIconName
EXTRN	__imp_?RemoveWndStyle@ioWnd@@QAEXK@Z:PROC
EXTRN	?GetSetInfoByIdx@ioSetItemInfoManager@@QBEPBVioSetItemInfo@@H@Z:PROC ; ioSetItemInfoManager::GetSetInfoByIdx
EXTRN	?GetSingeton@ioSetItemInfoManager@@SAAAV1@XZ:PROC ; ioSetItemInfoManager::GetSingeton
EXTRN	__imp_?AddWndStyle@ioWnd@@QAEXK@Z:PROC
EXTRN	__imp_?FindChildWnd@ioWnd@@QAEPAV1@K@Z:PROC
EXTRN	___RTDynamicCast:PROC
;	COMDAT ??_C@_0CE@NLAKKEEG@EnablePowerupListWnd?3?3UpdateIcon@
; File d:\lost saga for developer\youtube\tutorial\source\src\lsclient\gui\newshopiconbtn.h
CONST	SEGMENT
??_C@_0CE@NLAKKEEG@EnablePowerupListWnd?3?3UpdateIcon@ DB 'EnablePowerupL'
	DB	'istWnd::UpdateIconBtn', 00H			; `string'
CONST	ENDS
;	COMDAT ??_C@_01JOAMLHOP@?9?$AA@
CONST	SEGMENT
??_C@_01JOAMLHOP@?9?$AA@ DB '-', 00H			; `string'
CONST	ENDS
;	COMDAT xdata$x
xdata$x	SEGMENT
__unwindtable$?UpdateIconBtn@EnablePowerupListWnd@@IAEXXZ DD 0ffffffffH
	DD	FLAT:__unwindfunclet$?UpdateIconBtn@EnablePowerupListWnd@@IAEXXZ$0
	DD	0ffffffffH
	DD	FLAT:__unwindfunclet$?UpdateIconBtn@EnablePowerupListWnd@@IAEXXZ$1
__ehfuncinfo$?UpdateIconBtn@EnablePowerupListWnd@@IAEXXZ DD 019930522H
	DD	02H
	DD	FLAT:__unwindtable$?UpdateIconBtn@EnablePowerupListWnd@@IAEXXZ
	DD	2 DUP(00H)
	DD	2 DUP(00H)
	DD	00H
	DD	01H
; Function compile flags: /Ogsp
; File d:\lost saga for developer\youtube\tutorial\source\src\lsclient\gui\enablepoweruplistwnd.cpp
xdata$x	ENDS
;	COMDAT ?UpdateIconBtn@EnablePowerupListWnd@@IAEXXZ
_TEXT	SEGMENT
$T520067 = -80						; size = 16
$T520066 = -64						; size = 16
_kInfo$509466 = -48					; size = 12
tv84 = -36						; size = 4
tv340 = -32						; size = 4
_pItem$509476 = -32					; size = 4
_pInfo$509473 = -32					; size = 4
tv429 = -28						; size = 4
tv436 = -24						; size = 4
tv416 = -20						; size = 4
_this$ = -16						; size = 4
__$EHRec$ = -12						; size = 12
?UpdateIconBtn@EnablePowerupListWnd@@IAEXXZ PROC	; EnablePowerupListWnd::UpdateIconBtn, COMDAT
; _this$ = ecx

; 298  : {

  00000	6a 44		 push	 68			; 00000044H
  00002	b8 00 00 00 00	 mov	 eax, __ehhandler$?UpdateIconBtn@EnablePowerupListWnd@@IAEXXZ
  00007	e8 00 00 00 00	 call	 __EH_prolog3
  0000c	89 4d f0	 mov	 DWORD PTR _this$[ebp], ecx

; 299  : 	int iStartArray = m_iCurPage * ICON_BTN_MAX;

  0000f	8b b1 64 01 00
	00		 mov	 esi, DWORD PTR [ecx+356]
  00015	6b f6 0c	 imul	 esi, 12			; 0000000cH
  00018	8b c6		 mov	 eax, esi
  0001a	6b c0 0c	 imul	 eax, 12			; 0000000cH

; 300  : 
; 301  : 	for( int i=0; i < ICON_BTN_MAX; ++i )

  0001d	c7 45 e8 64 00
	00 00		 mov	 DWORD PTR tv436[ebp], 100 ; 00000064H
  00024	29 75 e8	 sub	 DWORD PTR tv436[ebp], esi
  00027	89 75 ec	 mov	 DWORD PTR tv416[ebp], esi
  0002a	89 45 e4	 mov	 DWORD PTR tv429[ebp], eax
  0002d	c7 45 dc 0c 00
	00 00		 mov	 DWORD PTR tv84[ebp], 12	; 0000000cH
$LN13@UpdateIcon:

; 302  : 	{
; 303  : 		EnablePowerupListIconBtn *pBtn = dynamic_cast< EnablePowerupListIconBtn* >(FindChildWnd(ID_ICON_BTN1+i));

  00034	8b 45 e8	 mov	 eax, DWORD PTR tv436[ebp]
  00037	8b 4d f0	 mov	 ecx, DWORD PTR _this$[ebp]
  0003a	33 ff		 xor	 edi, edi
  0003c	57		 push	 edi
  0003d	68 00 00 00 00	 push	 OFFSET ??_R0?AVEnablePowerupListIconBtn@@@8
  00042	68 00 00 00 00	 push	 OFFSET ??_R0?AVioWnd@@@8
  00047	57		 push	 edi
  00048	03 c6		 add	 eax, esi
  0004a	50		 push	 eax
  0004b	ff 15 00 00 00
	00		 call	 DWORD PTR __imp_?FindChildWnd@ioWnd@@QAEPAV1@K@Z
  00051	50		 push	 eax
  00052	e8 00 00 00 00	 call	 ___RTDynamicCast
  00057	8b d8		 mov	 ebx, eax
  00059	83 c4 14	 add	 esp, 20			; 00000014H

; 304  : 		if( !pBtn ) 

  0005c	3b df		 cmp	 ebx, edi
  0005e	0f 84 c6 01 00
	00		 je	 $LN12@UpdateIcon

; 305  : 			continue;
; 306  : 
; 307  : 		PowerupListInfo kInfo;

  00064	21 7d d4	 and	 DWORD PTR _kInfo$509466[ebp+4], edi
  00067	89 7d d0	 mov	 DWORD PTR _kInfo$509466[ebp], edi

; 308  : 
; 309  : 		int iCurArray = iStartArray + i;
; 310  : 		if( COMPARE( iCurArray, 0, (int)m_vCurList.size() ) )

  0006a	85 f6		 test	 esi, esi
  0006c	78 3e		 js	 SHORT $LN9@UpdateIcon
  0006e	8b 45 f0	 mov	 eax, DWORD PTR _this$[ebp]
  00071	8b 88 7c 01 00
	00		 mov	 ecx, DWORD PTR [eax+380]
  00077	8b 80 80 01 00
	00		 mov	 eax, DWORD PTR [eax+384]
  0007d	2b c1		 sub	 eax, ecx
  0007f	6a 0c		 push	 12			; 0000000cH
  00081	89 4d e0	 mov	 DWORD PTR tv340[ebp], ecx
  00084	99		 cdq
  00085	59		 pop	 ecx
  00086	f7 f9		 idiv	 ecx
  00088	3b f0		 cmp	 esi, eax
  0008a	7d 20		 jge	 SHORT $LN9@UpdateIcon

; 311  : 		{
; 312  : 			kInfo = m_vCurList[iCurArray];

  0008c	8b 4d e0	 mov	 ecx, DWORD PTR tv340[ebp]
  0008f	8b 75 e4	 mov	 esi, DWORD PTR tv429[ebp]

; 313  : 			pBtn->SetActive();

  00092	8b 03		 mov	 eax, DWORD PTR [ebx]
  00094	8d 34 0e	 lea	 esi, DWORD PTR [esi+ecx]
  00097	8d 7d d0	 lea	 edi, DWORD PTR _kInfo$509466[ebp]
  0009a	a5		 movsd
  0009b	a5		 movsd
  0009c	8b cb		 mov	 ecx, ebx
  0009e	a5		 movsd
  0009f	ff 50 20	 call	 DWORD PTR [eax+32]

; 314  : 		}
; 315  : 		else

  000a2	8b 7d d0	 mov	 edi, DWORD PTR _kInfo$509466[ebp]
  000a5	be 00 02 00 00	 mov	 esi, 512		; 00000200H
  000aa	eb 46		 jmp	 SHORT $LN8@UpdateIcon
$LN9@UpdateIcon:

; 316  : 		{
; 317  : 			pBtn->SetInActive();

  000ac	8b 03		 mov	 eax, DWORD PTR [ebx]
  000ae	8b cb		 mov	 ecx, ebx
  000b0	ff 50 24	 call	 DWORD PTR [eax+36]

; 318  : 			pBtn->SetName( "-" );

  000b3	68 00 00 00 00	 push	 OFFSET ??_C@_01JOAMLHOP@?9?$AA@
  000b8	8d 4d c0	 lea	 ecx, DWORD PTR $T520066[ebp]
  000bb	ff 15 00 00 00
	00		 call	 DWORD PTR __imp_??0ioHashString@@QAE@PBD@Z
  000c1	83 65 fc 00	 and	 DWORD PTR __$EHRec$[ebp+8], 0
  000c5	8d 45 c0	 lea	 eax, DWORD PTR $T520066[ebp]
  000c8	50		 push	 eax
  000c9	8b cb		 mov	 ecx, ebx
  000cb	e8 00 00 00 00	 call	 ?SplitDescription@EnablePowerupListIconBtn@@IAEXABVioHashString@@@Z ; EnablePowerupListIconBtn::SplitDescription
  000d0	83 4d fc ff	 or	 DWORD PTR __$EHRec$[ebp+8], -1
  000d4	8d 4d c0	 lea	 ecx, DWORD PTR $T520066[ebp]
  000d7	ff 15 00 00 00
	00		 call	 DWORD PTR __imp_??1ioHashString@@QAE@XZ

; 319  : 			pBtn->SetItemCode( 0 );

  000dd	83 a3 7c 02 00
	00 00		 and	 DWORD PTR [ebx+636], 0

; 320  : 			pBtn->AddWndStyle( IWS_NO_MOUSE_RESPONSE );

  000e4	be 00 02 00 00	 mov	 esi, 512		; 00000200H
  000e9	56		 push	 esi
  000ea	8b cb		 mov	 ecx, ebx
  000ec	ff 15 00 00 00
	00		 call	 DWORD PTR __imp_?AddWndStyle@ioWnd@@QAEXK@Z
$LN8@UpdateIcon:

; 321  : 		}
; 322  : 
; 323  : 		if ( m_dwCurSubBtn == ID_HERO_BTN )

  000f2	8b 45 f0	 mov	 eax, DWORD PTR _this$[ebp]
  000f5	83 b8 68 01 00
	00 0a		 cmp	 DWORD PTR [eax+360], 10	; 0000000aH
  000fc	75 79		 jne	 SHORT $LN7@UpdateIcon

; 324  : 		{
; 325  : 			const ioSetItemInfo *pInfo = g_SetItemInfoMgr.GetSetInfoByIdx( kInfo.m_iData - 1 );

  000fe	8d 47 ff	 lea	 eax, DWORD PTR [edi-1]
  00101	50		 push	 eax
  00102	e8 00 00 00 00	 call	 ?GetSingeton@ioSetItemInfoManager@@SAAAV1@XZ ; ioSetItemInfoManager::GetSingeton
  00107	8b c8		 mov	 ecx, eax
  00109	e8 00 00 00 00	 call	 ?GetSetInfoByIdx@ioSetItemInfoManager@@QBEPBVioSetItemInfo@@H@Z ; ioSetItemInfoManager::GetSetInfoByIdx
  0010e	89 45 e0	 mov	 DWORD PTR _pInfo$509473[ebp], eax

; 326  : 			if ( !pInfo )

  00111	85 c0		 test	 eax, eax
  00113	0f 84 0e 01 00
	00		 je	 $LN56@UpdateIcon

; 327  : 				continue;
; 328  : 
; 329  : 			pBtn->RemoveWndStyle( IWS_NO_MOUSE_RESPONSE );

  00119	56		 push	 esi
  0011a	8b cb		 mov	 ecx, ebx
  0011c	ff 15 00 00 00
	00		 call	 DWORD PTR __imp_?RemoveWndStyle@ioWnd@@QAEXK@Z

; 330  : 			pBtn->SetName( pInfo->GetName() );

  00122	8b 45 e0	 mov	 eax, DWORD PTR _pInfo$509473[ebp]
  00125	83 c0 08	 add	 eax, 8
  00128	50		 push	 eax
  00129	8b cb		 mov	 ecx, ebx
  0012b	e8 00 00 00 00	 call	 ?SplitDescription@EnablePowerupListIconBtn@@IAEXABVioHashString@@@Z ; EnablePowerupListIconBtn::SplitDescription

; 331  : 			pBtn->SetItemCode( kInfo.m_iData );
; 332  : 			pBtn->SetMarkType( kInfo.m_iShopMarkType );

  00130	8b 45 d4	 mov	 eax, DWORD PTR _kInfo$509466[ebp+4]

; 333  : 			pBtn->SetIcon(  g_UIImageSetMgr.CreateImageByFullName( g_MyInfo.GetMySoldierIconName( kInfo.m_iData ), 0 ) );

  00133	6a 00		 push	 0
  00135	57		 push	 edi
  00136	89 bb 7c 02 00
	00		 mov	 DWORD PTR [ebx+636], edi
  0013c	89 83 4c 02 00
	00		 mov	 DWORD PTR [ebx+588], eax
  00142	e8 00 00 00 00	 call	 ?GetSingleton@ioMyInfo@@SAAAV1@XZ ; ioMyInfo::GetSingleton
  00147	8b c8		 mov	 ecx, eax
  00149	e8 00 00 00 00	 call	 ?GetMySoldierIconName@ioMyInfo@@QAEAAVioHashString@@H@Z ; ioMyInfo::GetMySoldierIconName
  0014e	50		 push	 eax
  0014f	ff 15 00 00 00
	00		 call	 DWORD PTR __imp_?GetSingleton@ioUIImageSetManager@@SAAAV1@XZ
  00155	8b c8		 mov	 ecx, eax
  00157	ff 15 00 00 00
	00		 call	 DWORD PTR __imp_?CreateImageByFullName@ioUIImageSetManager@@QAEPAVioUIRenderImage@@ABVioHashString@@_N@Z
  0015d	50		 push	 eax
  0015e	8b cb		 mov	 ecx, ebx
  00160	e8 00 00 00 00	 call	 ?SetIcon@NewShopIconBtn@@QAE_NPAVioUIRenderImage@@@Z ; NewShopIconBtn::SetIcon

; 334  : 			pBtn->SetGradeType( g_UIImageRenderMgr.GetPowerUpGradeType( kInfo.m_iData ) );

  00165	57		 push	 edi
  00166	e8 00 00 00 00	 call	 ?GetSingleton@ioUIImageRenderManager@@SAAAV1@XZ ; ioUIImageRenderManager::GetSingleton
  0016b	8b c8		 mov	 ecx, eax
  0016d	e8 00 00 00 00	 call	 ?GetPowerUpGradeType@ioUIImageRenderManager@@QAEHH@Z ; ioUIImageRenderManager::GetPowerUpGradeType

; 335  : 		}
; 336  : 		else

  00172	e9 aa 00 00 00	 jmp	 $LN60@UpdateIcon
$LN7@UpdateIcon:

; 337  : 		{
; 338  : 			const ioItem *pItem = g_ItemMaker.GetItemConst( kInfo.m_iData, __FUNCTION__ );

  00177	68 00 00 00 00	 push	 OFFSET ??_C@_0CE@NLAKKEEG@EnablePowerupListWnd?3?3UpdateIcon@
  0017c	8d 4d b0	 lea	 ecx, DWORD PTR $T520067[ebp]
  0017f	ff 15 00 00 00
	00		 call	 DWORD PTR __imp_??0ioHashString@@QAE@PBD@Z
  00185	8d 45 b0	 lea	 eax, DWORD PTR $T520067[ebp]
  00188	50		 push	 eax
  00189	57		 push	 edi
  0018a	c7 45 fc 01 00
	00 00		 mov	 DWORD PTR __$EHRec$[ebp+8], 1
  00191	e8 00 00 00 00	 call	 ?GetSingleton@ioItemMaker@@SAAAV1@XZ ; ioItemMaker::GetSingleton
  00196	8b c8		 mov	 ecx, eax
  00198	e8 00 00 00 00	 call	 ?GetItemConst@ioItemMaker@@QBEPBVioItem@@KABVioHashString@@@Z ; ioItemMaker::GetItemConst
  0019d	83 4d fc ff	 or	 DWORD PTR __$EHRec$[ebp+8], -1
  001a1	8d 4d b0	 lea	 ecx, DWORD PTR $T520067[ebp]
  001a4	89 45 e0	 mov	 DWORD PTR _pItem$509476[ebp], eax
  001a7	ff 15 00 00 00
	00		 call	 DWORD PTR __imp_??1ioHashString@@QAE@XZ

; 339  : 			if ( pItem )

  001ad	83 7d e0 00	 cmp	 DWORD PTR _pItem$509476[ebp], 0
  001b1	74 74		 je	 SHORT $LN56@UpdateIcon

; 340  : 			{
; 341  : 				if ( m_dwCurSubBtn == ID_WEAPON_BTN )

  001b3	8b 45 f0	 mov	 eax, DWORD PTR _this$[ebp]
  001b6	83 b8 68 01 00
	00 0b		 cmp	 DWORD PTR [eax+360], 11	; 0000000bH

; 342  : 					pBtn->AddWndStyle( IWS_NO_MOUSE_RESPONSE );

  001bd	56		 push	 esi
  001be	8b cb		 mov	 ecx, ebx
  001c0	75 08		 jne	 SHORT $LN3@UpdateIcon
  001c2	ff 15 00 00 00
	00		 call	 DWORD PTR __imp_?AddWndStyle@ioWnd@@QAEXK@Z

; 343  : 				else

  001c8	eb 06		 jmp	 SHORT $LN2@UpdateIcon
$LN3@UpdateIcon:

; 344  : 					pBtn->RemoveWndStyle( IWS_NO_MOUSE_RESPONSE );

  001ca	ff 15 00 00 00
	00		 call	 DWORD PTR __imp_?RemoveWndStyle@ioWnd@@QAEXK@Z
$LN2@UpdateIcon:

; 345  : 
; 346  : 				pBtn->SetName( pItem->GetName() );

  001d0	8b 75 e0	 mov	 esi, DWORD PTR _pItem$509476[ebp]
  001d3	8d 86 34 01 00
	00		 lea	 eax, DWORD PTR [esi+308]
  001d9	50		 push	 eax
  001da	8b cb		 mov	 ecx, ebx
  001dc	e8 00 00 00 00	 call	 ?SplitDescription@EnablePowerupListIconBtn@@IAEXABVioHashString@@@Z ; EnablePowerupListIconBtn::SplitDescription

; 347  : 				pBtn->SetItemCode( kInfo.m_iData );
; 348  : 				pBtn->SetMarkType( kInfo.m_iShopMarkType );

  001e1	8b 45 d4	 mov	 eax, DWORD PTR _kInfo$509466[ebp+4]
  001e4	89 bb 7c 02 00
	00		 mov	 DWORD PTR [ebx+636], edi

; 349  : 				if( !pItem->GetItemLargeIconName().IsEmpty() )

  001ea	8d be 14 02 00
	00		 lea	 edi, DWORD PTR [esi+532]
  001f0	8b cf		 mov	 ecx, edi
  001f2	89 83 4c 02 00
	00		 mov	 DWORD PTR [ebx+588], eax
  001f8	ff 15 00 00 00
	00		 call	 DWORD PTR __imp_?IsEmpty@ioHashString@@QBE_NXZ
  001fe	84 c0		 test	 al, al
  00200	75 19		 jne	 SHORT $LN1@UpdateIcon

; 350  : 					pBtn->SetIcon(  g_UIImageSetMgr.CreateImageByFullName( pItem->GetItemLargeIconName(), 0 ) );

  00202	6a 00		 push	 0
  00204	57		 push	 edi
  00205	ff 15 00 00 00
	00		 call	 DWORD PTR __imp_?GetSingleton@ioUIImageSetManager@@SAAAV1@XZ
  0020b	8b c8		 mov	 ecx, eax
  0020d	ff 15 00 00 00
	00		 call	 DWORD PTR __imp_?CreateImageByFullName@ioUIImageSetManager@@QAEPAVioUIRenderImage@@ABVioHashString@@_N@Z
  00213	50		 push	 eax
  00214	8b cb		 mov	 ecx, ebx
  00216	e8 00 00 00 00	 call	 ?SetIcon@NewShopIconBtn@@QAE_NPAVioUIRenderImage@@@Z ; NewShopIconBtn::SetIcon
$LN1@UpdateIcon:

; 351  : 				pBtn->SetGradeType( pItem->GetGradeType() );

  0021b	8b 86 20 06 00
	00		 mov	 eax, DWORD PTR [esi+1568]
$LN60@UpdateIcon:
  00221	89 83 68 02 00
	00		 mov	 DWORD PTR [ebx+616], eax
$LN56@UpdateIcon:
  00227	8b 75 ec	 mov	 esi, DWORD PTR tv416[ebp]
$LN12@UpdateIcon:

; 300  : 
; 301  : 	for( int i=0; i < ICON_BTN_MAX; ++i )

  0022a	83 45 e4 0c	 add	 DWORD PTR tv429[ebp], 12 ; 0000000cH
  0022e	46		 inc	 esi
  0022f	ff 4d dc	 dec	 DWORD PTR tv84[ebp]
  00232	89 75 ec	 mov	 DWORD PTR tv416[ebp], esi
  00235	0f 85 f9 fd ff
	ff		 jne	 $LN13@UpdateIcon

; 352  : 			}
; 353  : 		}
; 354  : 	}
; 355  : }

  0023b	e8 00 00 00 00	 call	 __EH_epilog3
  00240	c3		 ret	 0
_TEXT	ENDS
;	COMDAT text$x
text$x	SEGMENT
__unwindfunclet$?UpdateIconBtn@EnablePowerupListWnd@@IAEXXZ$0:
  00000	8d 4d c0	 lea	 ecx, DWORD PTR $T520066[ebp]
  00003	ff 25 00 00 00
	00		 jmp	 DWORD PTR __imp_??1ioHashString@@QAE@XZ
__unwindfunclet$?UpdateIconBtn@EnablePowerupListWnd@@IAEXXZ$1:
  00009	8d 4d b0	 lea	 ecx, DWORD PTR $T520067[ebp]
  0000c	ff 25 00 00 00
	00		 jmp	 DWORD PTR __imp_??1ioHashString@@QAE@XZ
__ehhandler$?UpdateIconBtn@EnablePowerupListWnd@@IAEXXZ:
  00012	8b 54 24 08	 mov	 edx, DWORD PTR [esp+8]
  00016	8d 42 0c	 lea	 eax, DWORD PTR [edx+12]
  00019	8b 4a ac	 mov	 ecx, DWORD PTR [edx-84]
  0001c	33 c8		 xor	 ecx, eax
  0001e	e8 00 00 00 00	 call	 @__security_check_cookie@4
  00023	b8 00 00 00 00	 mov	 eax, OFFSET __ehfuncinfo$?UpdateIconBtn@EnablePowerupListWnd@@IAEXXZ
  00028	e9 00 00 00 00	 jmp	 ___CxxFrameHandler3
text$x	ENDS
?UpdateIconBtn@EnablePowerupListWnd@@IAEXXZ ENDP	; EnablePowerupListWnd::UpdateIconBtn
PUBLIC	__$ArrayPad$
PUBLIC	?UpdatePage@EnablePowerupListWnd@@IAEXH@Z	; EnablePowerupListWnd::UpdatePage
EXTRN	__imp_?SetChildInActive@ioWnd@@QAEXK@Z:PROC
EXTRN	__imp_?SetChildActive@ioWnd@@QAEXK@Z:PROC
EXTRN	__imp_??4ioHashString@@QAEAAV0@PBD@Z:PROC
EXTRN	__imp__wsprintfA:PROC
EXTRN	___security_cookie:DWORD
EXTRN	_memset:PROC
; Function compile flags: /Ogsp
;	COMDAT ?UpdatePage@EnablePowerupListWnd@@IAEXH@Z
_TEXT	SEGMENT
_szBuf$ = -276						; size = 260
___encStr$509302 = -16					; size = 6
__$ArrayPad$ = -4					; size = 4
_iPage$ = 8						; size = 4
?UpdatePage@EnablePowerupListWnd@@IAEXH@Z PROC		; EnablePowerupListWnd::UpdatePage, COMDAT
; _this$ = ecx

; 278  : {

  00000	55		 push	 ebp
  00001	8b ec		 mov	 ebp, esp
  00003	81 ec 14 01 00
	00		 sub	 esp, 276		; 00000114H
  00009	a1 00 00 00 00	 mov	 eax, DWORD PTR ___security_cookie
  0000e	33 c5		 xor	 eax, ebp
  00010	89 45 fc	 mov	 DWORD PTR __$ArrayPad$[ebp], eax
  00013	56		 push	 esi
  00014	57		 push	 edi

; 279  : 	m_iCurPage = iPage;

  00015	8b 7d 08	 mov	 edi, DWORD PTR _iPage$[ebp]

; 280  : 
; 281  : 	char szBuf[MAX_PATH] = "";

  00018	68 03 01 00 00	 push	 259			; 00000103H
  0001d	8d 85 ed fe ff
	ff		 lea	 eax, DWORD PTR _szBuf$[ebp+1]
  00023	8b f1		 mov	 esi, ecx
  00025	6a 00		 push	 0
  00027	50		 push	 eax
  00028	89 be 64 01 00
	00		 mov	 DWORD PTR [esi+356], edi
  0002e	c6 85 ec fe ff
	ff 00		 mov	 BYTE PTR _szBuf$[ebp], 0
  00035	e8 00 00 00 00	 call	 _memset

; 282  : 	wsprintf_e( szBuf, "%d/%d", m_iCurPage+1, m_iMaxPage );

  0003a	ff b6 60 01 00
	00		 push	 DWORD PTR [esi+352]
  00040	c7 45 f0 c8 88
	c4 cf		 mov	 DWORD PTR ___encStr$509302[ebp], -809203512 ; cfc488c8H
  00047	81 75 f0 ed ec
	eb ea		 xor	 DWORD PTR ___encStr$509302[ebp], -353637139 ; eaebecedH
  0004e	47		 inc	 edi
  0004f	57		 push	 edi
  00050	8d 45 f0	 lea	 eax, DWORD PTR ___encStr$509302[ebp]
  00053	50		 push	 eax
  00054	8d 85 ec fe ff
	ff		 lea	 eax, DWORD PTR _szBuf$[ebp]
  0005a	50		 push	 eax
  0005b	66 c7 45 f4 64
	00		 mov	 WORD PTR ___encStr$509302[ebp+4], 100 ; 00000064H
  00061	ff 15 00 00 00
	00		 call	 DWORD PTR __imp__wsprintfA
  00067	83 c4 1c	 add	 esp, 28			; 0000001cH

; 283  : 	m_szPageText = szBuf;

  0006a	8d 85 ec fe ff
	ff		 lea	 eax, DWORD PTR _szBuf$[ebp]
  00070	50		 push	 eax
  00071	8d 8e 6c 01 00
	00		 lea	 ecx, DWORD PTR [esi+364]
  00077	ff 15 00 00 00
	00		 call	 DWORD PTR __imp_??4ioHashString@@QAEAAV0@PBD@Z

; 284  : 
; 285  : 	SetChildActive( ID_PRE_BTN );

  0007d	8b 3d 00 00 00
	00		 mov	 edi, DWORD PTR __imp_?SetChildActive@ioWnd@@QAEXK@Z
  00083	6a 01		 push	 1
  00085	8b ce		 mov	 ecx, esi
  00087	ff d7		 call	 edi

; 286  : 	SetChildActive( ID_NEXT_BTN );

  00089	6a 02		 push	 2
  0008b	8b ce		 mov	 ecx, esi
  0008d	ff d7		 call	 edi

; 287  : 
; 288  : 	if( m_iCurPage == 0 )

  0008f	83 be 64 01 00
	00 00		 cmp	 DWORD PTR [esi+356], 0
  00096	8b 3d 00 00 00
	00		 mov	 edi, DWORD PTR __imp_?SetChildInActive@ioWnd@@QAEXK@Z
  0009c	75 06		 jne	 SHORT $LN2@UpdatePage

; 289  : 		SetChildInActive( ID_PRE_BTN );

  0009e	6a 01		 push	 1
  000a0	8b ce		 mov	 ecx, esi
  000a2	ff d7		 call	 edi
$LN2@UpdatePage:

; 290  : 
; 291  : 	if( m_iCurPage == m_iMaxPage-1 )

  000a4	8b 86 60 01 00
	00		 mov	 eax, DWORD PTR [esi+352]
  000aa	48		 dec	 eax
  000ab	39 86 64 01 00
	00		 cmp	 DWORD PTR [esi+356], eax
  000b1	75 06		 jne	 SHORT $LN1@UpdatePage

; 292  : 		SetChildInActive( ID_NEXT_BTN );

  000b3	6a 02		 push	 2
  000b5	8b ce		 mov	 ecx, esi
  000b7	ff d7		 call	 edi
$LN1@UpdatePage:

; 293  : 
; 294  : 	UpdateIconBtn();

  000b9	8b ce		 mov	 ecx, esi
  000bb	e8 00 00 00 00	 call	 ?UpdateIconBtn@EnablePowerupListWnd@@IAEXXZ ; EnablePowerupListWnd::UpdateIconBtn

; 295  : }

  000c0	8b 4d fc	 mov	 ecx, DWORD PTR __$ArrayPad$[ebp]
  000c3	5f		 pop	 edi
  000c4	33 cd		 xor	 ecx, ebp
  000c6	5e		 pop	 esi
  000c7	e8 00 00 00 00	 call	 @__security_check_cookie@4
  000cc	c9		 leave
  000cd	c2 04 00	 ret	 4
?UpdatePage@EnablePowerupListWnd@@IAEXH@Z ENDP		; EnablePowerupListWnd::UpdatePage
_TEXT	ENDS
PUBLIC	?ChangeSubBtn@EnablePowerupListWnd@@IAEXK@Z	; EnablePowerupListWnd::ChangeSubBtn
EXTRN	?GetEnablePowerUpClassNumberInfo@ioPowerUpManager@@QBE?BV?$vector@HV?$allocator@H@std@@@std@@XZ:PROC ; ioPowerUpManager::GetEnablePowerUpClassNumberInfo
EXTRN	?GetEnablePowerUpExtraItemNumberInfo@ioPowerUpManager@@QBE?BV?$vector@HV?$allocator@H@std@@@std@@H@Z:PROC ; ioPowerUpManager::GetEnablePowerUpExtraItemNumberInfo
EXTRN	__imp_?CheckRadioButton@ioWnd@@QAEXKKK@Z:PROC
;	COMDAT xdata$x
; File c:\program files (x86)\microsoft visual studio 10.0\vc\include\vector
xdata$x	SEGMENT
__unwindtable$?ChangeSubBtn@EnablePowerupListWnd@@IAEXK@Z DD 0ffffffffH
	DD	FLAT:__unwindfunclet$?ChangeSubBtn@EnablePowerupListWnd@@IAEXK@Z$0
	DD	0ffffffffH
	DD	FLAT:__unwindfunclet$?ChangeSubBtn@EnablePowerupListWnd@@IAEXK@Z$2
__ehfuncinfo$?ChangeSubBtn@EnablePowerupListWnd@@IAEXK@Z DD 019930522H
	DD	02H
	DD	FLAT:__unwindtable$?ChangeSubBtn@EnablePowerupListWnd@@IAEXK@Z
	DD	2 DUP(00H)
	DD	2 DUP(00H)
	DD	00H
	DD	01H
; Function compile flags: /Ogsp
; File d:\lost saga for developer\youtube\tutorial\source\src\lsclient\gui\enablepoweruplistwnd.cpp
xdata$x	ENDS
;	COMDAT ?ChangeSubBtn@EnablePowerupListWnd@@IAEXK@Z
_TEXT	SEGMENT
_EnablePowerUpExtraItemNumVec$509101 = -44		; size = 16
_EnablePowerUpClassNumVec$509095 = -28			; size = 16
__$EHRec$ = -12						; size = 12
$T520256 = 8						; size = 4
$T520168 = 8						; size = 4
$T520167 = 8						; size = 4
_dwSubBtn$ = 8						; size = 4
?ChangeSubBtn@EnablePowerupListWnd@@IAEXK@Z PROC	; EnablePowerupListWnd::ChangeSubBtn, COMDAT
; _this$ = ecx

; 164  : {

  00000	6a 20		 push	 32			; 00000020H
  00002	b8 00 00 00 00	 mov	 eax, __ehhandler$?ChangeSubBtn@EnablePowerupListWnd@@IAEXK@Z
  00007	e8 00 00 00 00	 call	 __EH_prolog3
  0000c	8b f9		 mov	 edi, ecx

; 165  : 	m_dwCurSubBtn = dwSubBtn;

  0000e	8b 45 08	 mov	 eax, DWORD PTR _dwSubBtn$[ebp]

; 166  : 	CheckRadioButton( ID_HERO_BTN, ID_CLOAK_BTN, m_dwCurSubBtn );

  00011	50		 push	 eax
  00012	6a 0e		 push	 14			; 0000000eH
  00014	6a 0a		 push	 10			; 0000000aH
  00016	89 87 68 01 00
	00		 mov	 DWORD PTR [edi+360], eax
  0001c	ff 15 00 00 00
	00		 call	 DWORD PTR __imp_?CheckRadioButton@ioWnd@@QAEXKKK@Z

; 167  : 	
; 168  : 	if ( m_dwCurSubBtn == ID_HERO_BTN || m_dwCurSubBtn == ID_WEAPON_BTN )

  00022	8b b7 68 01 00
	00		 mov	 esi, DWORD PTR [edi+360]
  00028	33 db		 xor	 ebx, ebx
  0002a	43		 inc	 ebx
  0002b	83 fe 0a	 cmp	 esi, 10			; 0000000aH
  0002e	74 5c		 je	 SHORT $LN7@ChangeSubB
  00030	83 fe 0b	 cmp	 esi, 11			; 0000000bH
  00033	74 57		 je	 SHORT $LN7@ChangeSubB

; 176  : 	else
; 177  : 	{
; 178  : 		int nSlot = m_dwCurSubBtn - ID_HERO_BTN - 1;

  00035	8d 46 f5	 lea	 eax, DWORD PTR [esi-11]

; 179  : 		const IntVec EnablePowerUpExtraItemNumVec = g_PowerUpManager.GetEnablePowerUpExtraItemNumberInfo( nSlot );

  00038	50		 push	 eax
  00039	8d 45 d4	 lea	 eax, DWORD PTR _EnablePowerUpExtraItemNumVec$509101[ebp]
  0003c	50		 push	 eax
  0003d	e8 00 00 00 00	 call	 ?GetSingleton@ioPowerUpManager@@SAAAV1@XZ ; ioPowerUpManager::GetSingleton
  00042	8b c8		 mov	 ecx, eax
  00044	e8 00 00 00 00	 call	 ?GetEnablePowerUpExtraItemNumberInfo@ioPowerUpManager@@QBE?BV?$vector@HV?$allocator@H@std@@@std@@H@Z ; ioPowerUpManager::GetEnablePowerUpExtraItemNumberInfo

; 180  : 		if ( !EnablePowerUpExtraItemNumVec.empty() )

  00049	8b 45 d4	 mov	 eax, DWORD PTR _EnablePowerUpExtraItemNumVec$509101[ebp]
  0004c	89 5d fc	 mov	 DWORD PTR __$EHRec$[ebp+8], ebx

; 181  : 			SetItemList( EnablePowerUpExtraItemNumVec, m_vCurList );

  0004f	8d b7 7c 01 00
	00		 lea	 esi, DWORD PTR [edi+380]
  00055	3b 45 d8	 cmp	 eax, DWORD PTR _EnablePowerUpExtraItemNumVec$509101[ebp+4]
  00058	74 1b		 je	 SHORT $LN4@ChangeSubB
  0005a	56		 push	 esi
  0005b	83 ec 10	 sub	 esp, 16			; 00000010H
  0005e	8d 45 d4	 lea	 eax, DWORD PTR _EnablePowerUpExtraItemNumVec$509101[ebp]
  00061	8b cc		 mov	 ecx, esp
  00063	89 65 08	 mov	 DWORD PTR $T520168[ebp], esp
  00066	50		 push	 eax
  00067	e8 00 00 00 00	 call	 ??0?$vector@HV?$allocator@H@std@@@std@@QAE@ABV01@@Z ; std::vector<int,std::allocator<int> >::vector<int,std::allocator<int> >
  0006c	8b cf		 mov	 ecx, edi
  0006e	e8 00 00 00 00	 call	 ?SetItemList@EnablePowerupListWnd@@IAEXV?$vector@HV?$allocator@H@std@@@std@@AAV?$vector@UPowerupListInfo@@V?$allocator@UPowerupListInfo@@@std@@@3@@Z ; EnablePowerupListWnd::SetItemList

; 182  : 		else

  00073	eb 12		 jmp	 SHORT $LN27@ChangeSubB
$LN4@ChangeSubB:

; 183  : 			m_vCurList.clear();

  00075	8b 46 04	 mov	 eax, DWORD PTR [esi+4]
  00078	8b 0e		 mov	 ecx, DWORD PTR [esi]
  0007a	50		 push	 eax
  0007b	51		 push	 ecx
  0007c	8d 45 08	 lea	 eax, DWORD PTR $T520256[ebp]
  0007f	50		 push	 eax
  00080	8b ce		 mov	 ecx, esi
  00082	e8 00 00 00 00	 call	 ?erase@?$vector@UPowerupListInfo@@V?$allocator@UPowerupListInfo@@@std@@@std@@QAE?AV?$_Vector_iterator@V?$_Vector_val@UPowerupListInfo@@V?$allocator@UPowerupListInfo@@@std@@@std@@@2@V?$_Vector_const_iterator@V?$_Vector_val@UPowerupListInfo@@V?$allocator@UPowerupListInfo@@@std@@@std@@@2@0@Z ; std::vector<PowerupListInfo,std::allocator<PowerupListInfo> >::erase
$LN27@ChangeSubB:

; 184  : 	}

  00087	8d 4d d4	 lea	 ecx, DWORD PTR _EnablePowerUpExtraItemNumVec$509101[ebp]
  0008a	eb 4c		 jmp	 SHORT $LN52@ChangeSubB
$LN7@ChangeSubB:

; 169  : 	{
; 170  : 		const IntVec EnablePowerUpClassNumVec = g_PowerUpManager.GetEnablePowerUpClassNumberInfo();

  0008c	8d 45 e4	 lea	 eax, DWORD PTR _EnablePowerUpClassNumVec$509095[ebp]
  0008f	50		 push	 eax
  00090	e8 00 00 00 00	 call	 ?GetSingleton@ioPowerUpManager@@SAAAV1@XZ ; ioPowerUpManager::GetSingleton
  00095	8b c8		 mov	 ecx, eax
  00097	e8 00 00 00 00	 call	 ?GetEnablePowerUpClassNumberInfo@ioPowerUpManager@@QBE?BV?$vector@HV?$allocator@H@std@@@std@@XZ ; ioPowerUpManager::GetEnablePowerUpClassNumberInfo

; 171  : 		if ( EnablePowerUpClassNumVec.empty() )

  0009c	8b 45 e4	 mov	 eax, DWORD PTR _EnablePowerUpClassNumVec$509095[ebp]
  0009f	83 65 fc 00	 and	 DWORD PTR __$EHRec$[ebp+8], 0
  000a3	3b 45 e8	 cmp	 eax, DWORD PTR _EnablePowerUpClassNumVec$509095[ebp+4]
  000a6	75 0e		 jne	 SHORT $LN6@ChangeSubB

; 172  : 			return;

  000a8	83 4d fc ff	 or	 DWORD PTR __$EHRec$[ebp+8], -1
  000ac	8d 4d e4	 lea	 ecx, DWORD PTR _EnablePowerUpClassNumVec$509095[ebp]
  000af	e8 00 00 00 00	 call	 ?_Tidy@?$vector@HV?$allocator@H@std@@@std@@IAEXXZ ; std::vector<int,std::allocator<int> >::_Tidy
  000b4	eb 69		 jmp	 SHORT $LN9@ChangeSubB
$LN6@ChangeSubB:

; 173  : 
; 174  : 		SetItemList( EnablePowerUpClassNumVec, m_vCurList );

  000b6	8d b7 7c 01 00
	00		 lea	 esi, DWORD PTR [edi+380]
  000bc	56		 push	 esi
  000bd	83 ec 10	 sub	 esp, 16			; 00000010H
  000c0	8d 45 e4	 lea	 eax, DWORD PTR _EnablePowerUpClassNumVec$509095[ebp]
  000c3	8b cc		 mov	 ecx, esp
  000c5	89 65 08	 mov	 DWORD PTR $T520167[ebp], esp
  000c8	50		 push	 eax
  000c9	e8 00 00 00 00	 call	 ??0?$vector@HV?$allocator@H@std@@@std@@QAE@ABV01@@Z ; std::vector<int,std::allocator<int> >::vector<int,std::allocator<int> >
  000ce	8b cf		 mov	 ecx, edi
  000d0	e8 00 00 00 00	 call	 ?SetItemList@EnablePowerupListWnd@@IAEXV?$vector@HV?$allocator@H@std@@@std@@AAV?$vector@UPowerupListInfo@@V?$allocator@UPowerupListInfo@@@std@@@3@@Z ; EnablePowerupListWnd::SetItemList

; 175  : 	}

  000d5	8d 4d e4	 lea	 ecx, DWORD PTR _EnablePowerUpClassNumVec$509095[ebp]
$LN52@ChangeSubB:
  000d8	83 4d fc ff	 or	 DWORD PTR __$EHRec$[ebp+8], -1
  000dc	e8 00 00 00 00	 call	 ?_Tidy@?$vector@HV?$allocator@H@std@@@std@@IAEXXZ ; std::vector<int,std::allocator<int> >::_Tidy

; 185  : 		
; 186  : 	int iTotalCnt = m_vCurList.size();

  000e1	8b 46 04	 mov	 eax, DWORD PTR [esi+4]
  000e4	2b 06		 sub	 eax, DWORD PTR [esi]
  000e6	6a 0c		 push	 12			; 0000000cH
  000e8	99		 cdq
  000e9	59		 pop	 ecx
  000ea	f7 f9		 idiv	 ecx

; 187  : 	m_iMaxPage = iTotalCnt / ICON_BTN_MAX;

  000ec	99		 cdq
  000ed	f7 f9		 idiv	 ecx
  000ef	89 87 60 01 00
	00		 mov	 DWORD PTR [edi+352], eax

; 188  : 
; 189  : 	if( iTotalCnt%ICON_BTN_MAX > 0 )

  000f5	85 d2		 test	 edx, edx
  000f7	7e 07		 jle	 SHORT $LN2@ChangeSubB

; 190  : 		m_iMaxPage += 1;

  000f9	40		 inc	 eax
  000fa	89 87 60 01 00
	00		 mov	 DWORD PTR [edi+352], eax
$LN2@ChangeSubB:

; 191  : 
; 192  : 	if ( m_iMaxPage == 0 )

  00100	83 bf 60 01 00
	00 00		 cmp	 DWORD PTR [edi+352], 0
  00107	75 06		 jne	 SHORT $LN1@ChangeSubB

; 193  : 		m_iMaxPage = 1;

  00109	89 9f 60 01 00
	00		 mov	 DWORD PTR [edi+352], ebx
$LN1@ChangeSubB:

; 194  : 
; 195  : 	UpdatePage( 0 );

  0010f	6a 00		 push	 0
  00111	8b cf		 mov	 ecx, edi
  00113	e8 00 00 00 00	 call	 ?UpdatePage@EnablePowerupListWnd@@IAEXH@Z ; EnablePowerupListWnd::UpdatePage

; 196  : 	SettingText();

  00118	8b cf		 mov	 ecx, edi
  0011a	e8 00 00 00 00	 call	 ?SettingText@EnablePowerupListWnd@@IAEXXZ ; EnablePowerupListWnd::SettingText
$LN9@ChangeSubB:

; 197  : }

  0011f	e8 00 00 00 00	 call	 __EH_epilog3
  00124	c2 04 00	 ret	 4
_TEXT	ENDS
;	COMDAT text$x
text$x	SEGMENT
__unwindfunclet$?ChangeSubBtn@EnablePowerupListWnd@@IAEXK@Z$2:
  00000	8d 4d d4	 lea	 ecx, DWORD PTR _EnablePowerUpExtraItemNumVec$509101[ebp]
  00003	e9 00 00 00 00	 jmp	 ??1?$vector@HV?$allocator@H@std@@@std@@QAE@XZ ; std::vector<int,std::allocator<int> >::~vector<int,std::allocator<int> >
__unwindfunclet$?ChangeSubBtn@EnablePowerupListWnd@@IAEXK@Z$0:
  00008	8d 4d e4	 lea	 ecx, DWORD PTR _EnablePowerUpClassNumVec$509095[ebp]
  0000b	e9 00 00 00 00	 jmp	 ??1?$vector@HV?$allocator@H@std@@@std@@QAE@XZ ; std::vector<int,std::allocator<int> >::~vector<int,std::allocator<int> >
__ehhandler$?ChangeSubBtn@EnablePowerupListWnd@@IAEXK@Z:
  00010	8b 54 24 08	 mov	 edx, DWORD PTR [esp+8]
  00014	8d 42 0c	 lea	 eax, DWORD PTR [edx+12]
  00017	8b 4a d0	 mov	 ecx, DWORD PTR [edx-48]
  0001a	33 c8		 xor	 ecx, eax
  0001c	e8 00 00 00 00	 call	 @__security_check_cookie@4
  00021	b8 00 00 00 00	 mov	 eax, OFFSET __ehfuncinfo$?ChangeSubBtn@EnablePowerupListWnd@@IAEXK@Z
  00026	e9 00 00 00 00	 jmp	 ___CxxFrameHandler3
text$x	ENDS
?ChangeSubBtn@EnablePowerupListWnd@@IAEXK@Z ENDP	; EnablePowerupListWnd::ChangeSubBtn
EXTRN	__imp_?HasWndStyle@ioWnd@@QBE_NK@Z:PROC
EXTRN	__imp_?HideChildWnd@ioWnd@@QAEXK_N@Z:PROC
EXTRN	__imp_?ShowWnd@ioWnd@@QAEXXZ:PROC
EXTRN	__imp_?GetID@ioWnd@@QBEKXZ:PROC
; Function compile flags: /Ogsp
;	COMDAT ?iwm_command@EnablePowerupListWnd@@UAEXPAVioWnd@@HK@Z
_TEXT	SEGMENT
_pWnd$ = 8						; size = 4
_pBtn$509522 = 12					; size = 4
_cmd$ = 12						; size = 4
_param$ = 16						; size = 4
?iwm_command@EnablePowerupListWnd@@UAEXPAVioWnd@@HK@Z PROC ; EnablePowerupListWnd::iwm_command, COMDAT
; _this$ = ecx

; 382  : {

  00000	55		 push	 ebp
  00001	8b ec		 mov	 ebp, esp
  00003	53		 push	 ebx
  00004	56		 push	 esi
  00005	8b d9		 mov	 ebx, ecx

; 383  : 	DWORD dwID = pWnd->GetID();

  00007	8b 4d 08	 mov	 ecx, DWORD PTR _pWnd$[ebp]
  0000a	57		 push	 edi
  0000b	ff 15 00 00 00
	00		 call	 DWORD PTR __imp_?GetID@ioWnd@@QBEKXZ

; 384  : 
; 385  : 	switch( dwID )

  00011	83 f8 01	 cmp	 eax, 1
  00014	0f 84 1e 01 00
	00		 je	 $LN18@iwm_comman
  0001a	83 f8 02	 cmp	 eax, 2
  0001d	0f 84 f7 00 00
	00		 je	 $LN16@iwm_comman
  00023	83 f8 03	 cmp	 eax, 3
  00026	0f 84 de 00 00
	00		 je	 $LN12@iwm_comman
  0002c	83 f8 09	 cmp	 eax, 9
  0002f	76 1c		 jbe	 SHORT $LN10@iwm_comman
  00031	83 f8 0e	 cmp	 eax, 14			; 0000000eH
  00034	77 17		 ja	 SHORT $LN10@iwm_comman

; 401  : 	case ID_HERO_BTN:
; 402  : 	case ID_WEAPON_BTN:
; 403  : 	case ID_ARMOR_BTN:
; 404  : 	case ID_HELMET_BTN:
; 405  : 	case ID_CLOAK_BTN:
; 406  : 		if( cmd == IOBN_BTNDOWN )

  00036	83 7d 0c 10	 cmp	 DWORD PTR _cmd$[ebp], 16 ; 00000010H
  0003a	0f 85 1c 01 00
	00		 jne	 $LN17@iwm_comman

; 407  : 		{
; 408  : 			ChangeSubBtn( dwID );

  00040	50		 push	 eax
  00041	8b cb		 mov	 ecx, ebx
  00043	e8 00 00 00 00	 call	 ?ChangeSubBtn@EnablePowerupListWnd@@IAEXK@Z ; EnablePowerupListWnd::ChangeSubBtn

; 409  : 		}
; 410  : 		break;

  00048	e9 0f 01 00 00	 jmp	 $LN17@iwm_comman
$LN10@iwm_comman:

; 417  : 	default:
; 418  : 		if ( COMPARE( dwID, ID_ICON_BTN1, ID_ICON_BTN1 + ICON_BTN_MAX ) )

  0004d	8d 48 9c	 lea	 ecx, DWORD PTR [eax-100]
  00050	83 f9 0b	 cmp	 ecx, 11			; 0000000bH
  00053	0f 87 03 01 00
	00		 ja	 $LN17@iwm_comman

; 419  : 		{
; 420  : 			if( cmd == IOWN_OVERED )

  00059	83 7d 0c 04	 cmp	 DWORD PTR _cmd$[ebp], 4
  0005d	0f 85 90 00 00
	00		 jne	 $LN8@iwm_comman

; 421  : 			{
; 422  : 				EnablePowerupListIconBtn* pBtn = dynamic_cast< EnablePowerupListIconBtn* >(FindChildWnd( dwID ) );

  00063	8b 35 00 00 00
	00		 mov	 esi, DWORD PTR __imp_?FindChildWnd@ioWnd@@QAEPAV1@K@Z
  00069	6a 00		 push	 0
  0006b	68 00 00 00 00	 push	 OFFSET ??_R0?AVEnablePowerupListIconBtn@@@8
  00070	bf 00 00 00 00	 mov	 edi, OFFSET ??_R0?AVioWnd@@@8
  00075	57		 push	 edi
  00076	6a 00		 push	 0
  00078	50		 push	 eax
  00079	8b cb		 mov	 ecx, ebx
  0007b	ff d6		 call	 esi
  0007d	50		 push	 eax
  0007e	e8 00 00 00 00	 call	 ___RTDynamicCast
  00083	83 c4 14	 add	 esp, 20			; 00000014H
  00086	89 45 0c	 mov	 DWORD PTR _pBtn$509522[ebp], eax

; 423  : 				if ( !pBtn )

  00089	85 c0		 test	 eax, eax
  0008b	0f 84 cb 00 00
	00		 je	 $LN17@iwm_comman

; 424  : 					break;
; 425  : 				
; 426  : 				PowerUpToolTip* pToolTip = dynamic_cast< PowerUpToolTip* >(FindChildWnd( ID_POWERUP_TOOLTIP ) );

  00091	6a 00		 push	 0
  00093	68 00 00 00 00	 push	 OFFSET ??_R0?AVPowerUpToolTip@@@8
  00098	57		 push	 edi
  00099	6a 00		 push	 0
  0009b	68 96 00 00 00	 push	 150			; 00000096H
  000a0	8b cb		 mov	 ecx, ebx
  000a2	ff d6		 call	 esi
  000a4	50		 push	 eax
  000a5	e8 00 00 00 00	 call	 ___RTDynamicCast
  000aa	8b f0		 mov	 esi, eax
  000ac	83 c4 14	 add	 esp, 20			; 00000014H

; 427  : 				if ( pToolTip && !pToolTip->IsShow() )

  000af	85 f6		 test	 esi, esi
  000b1	0f 84 a5 00 00
	00		 je	 $LN17@iwm_comman
  000b7	8b ce		 mov	 ecx, esi
  000b9	ff 15 00 00 00
	00		 call	 DWORD PTR __imp_?IsShow@ioWnd@@QBE_NXZ
  000bf	84 c0		 test	 al, al
  000c1	0f 85 95 00 00
	00		 jne	 $LN17@iwm_comman

; 428  : 				{
; 429  : 					int nToolTipType = PowerUpToolTip::Power_Char;
; 430  : 					switch( m_dwCurSubBtn )

  000c7	8b 83 68 01 00
	00		 mov	 eax, DWORD PTR [ebx+360]
  000cd	83 c0 f4	 add	 eax, -12		; fffffff4H
  000d0	33 c9		 xor	 ecx, ecx
  000d2	83 f8 02	 cmp	 eax, 2
  000d5	77 01		 ja	 SHORT $LN4@iwm_comman

; 431  : 					{
; 432  : 					case ID_ARMOR_BTN:
; 433  : 					case ID_HELMET_BTN:
; 434  : 					case ID_CLOAK_BTN:
; 435  : 						nToolTipType = PowerUpToolTip::Power_Item;

  000d7	41		 inc	 ecx
$LN4@iwm_comman:

; 436  : 						break;
; 437  : 					}
; 438  : 
; 439  : 					pToolTip->SetInfo( nToolTipType, pBtn->GetItemCode() );

  000d8	8b 45 0c	 mov	 eax, DWORD PTR _pBtn$509522[ebp]
  000db	ff b0 7c 02 00
	00		 push	 DWORD PTR [eax+636]
  000e1	51		 push	 ecx
  000e2	8b ce		 mov	 ecx, esi
  000e4	e8 00 00 00 00	 call	 ?SetInfo@PowerUpToolTip@@QAEXHH@Z ; PowerUpToolTip::SetInfo

; 440  : 					pToolTip->ShowWnd();

  000e9	8b ce		 mov	 ecx, esi
  000eb	ff 15 00 00 00
	00		 call	 DWORD PTR __imp_?ShowWnd@ioWnd@@QAEXXZ

; 441  : 				}
; 442  : 			}

  000f1	eb 69		 jmp	 SHORT $LN17@iwm_comman
$LN8@iwm_comman:

; 443  : 			else if( cmd == IOWN_LEAVED )

  000f3	83 7d 0c 03	 cmp	 DWORD PTR _cmd$[ebp], 3
  000f7	75 63		 jne	 SHORT $LN17@iwm_comman

; 444  : 				HideChildWnd( ID_POWERUP_TOOLTIP );

  000f9	6a 00		 push	 0
  000fb	68 96 00 00 00	 push	 150			; 00000096H
  00100	8b cb		 mov	 ecx, ebx
  00102	ff 15 00 00 00
	00		 call	 DWORD PTR __imp_?HideChildWnd@ioWnd@@QAEXK_N@Z

; 445  : 		}
; 446  : 		break;

  00108	eb 52		 jmp	 SHORT $LN17@iwm_comman
$LN12@iwm_comman:

; 411  : 	case ID_X:
; 412  : 		if( cmd == IOBN_BTNUP )

  0010a	83 7d 0c 11	 cmp	 DWORD PTR _cmd$[ebp], 17 ; 00000011H
  0010e	75 4c		 jne	 SHORT $LN17@iwm_comman

; 413  : 		{
; 414  : 			HideWnd();

  00110	8b cb		 mov	 ecx, ebx
  00112	ff 15 00 00 00
	00		 call	 DWORD PTR __imp_?HideWnd@ioWnd@@QAEXXZ

; 415  : 		}
; 416  : 		break;

  00118	eb 42		 jmp	 SHORT $LN17@iwm_comman
$LN16@iwm_comman:

; 392  : 		}
; 393  : 		break;
; 394  : 	case ID_NEXT_BTN:
; 395  : 		if( cmd == IOBN_BTNUP && !pWnd->HasWndStyle( IWS_INACTIVE ) )

  0011a	83 7d 0c 11	 cmp	 DWORD PTR _cmd$[ebp], 17 ; 00000011H
  0011e	75 3c		 jne	 SHORT $LN17@iwm_comman
  00120	8b 4d 08	 mov	 ecx, DWORD PTR _pWnd$[ebp]
  00123	6a 02		 push	 2
  00125	ff 15 00 00 00
	00		 call	 DWORD PTR __imp_?HasWndStyle@ioWnd@@QBE_NK@Z
  0012b	84 c0		 test	 al, al
  0012d	75 2d		 jne	 SHORT $LN17@iwm_comman

; 396  : 		{
; 397  : 			int iNewPage = m_iCurPage + 1;

  0012f	8b 83 64 01 00
	00		 mov	 eax, DWORD PTR [ebx+356]
  00135	40		 inc	 eax

; 398  : 			UpdatePage( iNewPage );
; 399  : 		}
; 400  : 		break;

  00136	eb 1c		 jmp	 SHORT $LN25@iwm_comman
$LN18@iwm_comman:

; 386  : 	{
; 387  : 	case ID_PRE_BTN:
; 388  : 		if( cmd == IOBN_BTNUP && !pWnd->HasWndStyle( IWS_INACTIVE ) )

  00138	83 7d 0c 11	 cmp	 DWORD PTR _cmd$[ebp], 17 ; 00000011H
  0013c	75 1e		 jne	 SHORT $LN17@iwm_comman
  0013e	8b 4d 08	 mov	 ecx, DWORD PTR _pWnd$[ebp]
  00141	6a 02		 push	 2
  00143	ff 15 00 00 00
	00		 call	 DWORD PTR __imp_?HasWndStyle@ioWnd@@QBE_NK@Z
  00149	84 c0		 test	 al, al
  0014b	75 0f		 jne	 SHORT $LN17@iwm_comman

; 389  : 		{
; 390  : 			int iNewPage = m_iCurPage - 1;

  0014d	8b 83 64 01 00
	00		 mov	 eax, DWORD PTR [ebx+356]
  00153	48		 dec	 eax
$LN25@iwm_comman:

; 391  : 			UpdatePage( iNewPage );

  00154	50		 push	 eax
  00155	8b cb		 mov	 ecx, ebx
  00157	e8 00 00 00 00	 call	 ?UpdatePage@EnablePowerupListWnd@@IAEXH@Z ; EnablePowerupListWnd::UpdatePage
$LN17@iwm_comman:
  0015c	5f		 pop	 edi
  0015d	5e		 pop	 esi
  0015e	5b		 pop	 ebx

; 447  : 	}
; 448  : }

  0015f	5d		 pop	 ebp
  00160	c2 0c 00	 ret	 12			; 0000000cH
?iwm_command@EnablePowerupListWnd@@UAEXPAVioWnd@@HK@Z ENDP ; EnablePowerupListWnd::iwm_command
_TEXT	ENDS
PUBLIC	?ShowItemList@EnablePowerupListWnd@@QAEXXZ	; EnablePowerupListWnd::ShowItemList
; Function compile flags: /Ogsp
;	COMDAT ?ShowItemList@EnablePowerupListWnd@@QAEXXZ
_TEXT	SEGMENT
?ShowItemList@EnablePowerupListWnd@@QAEXXZ PROC		; EnablePowerupListWnd::ShowItemList, COMDAT
; _this$ = ecx

; 95   : {

  00000	56		 push	 esi
  00001	8b f1		 mov	 esi, ecx

; 96   : 	ShowWnd();

  00003	ff 15 00 00 00
	00		 call	 DWORD PTR __imp_?ShowWnd@ioWnd@@QAEXXZ

; 97   : 
; 98   : 	ChangeSubBtn( ID_HERO_BTN );

  00009	6a 0a		 push	 10			; 0000000aH
  0000b	8b ce		 mov	 ecx, esi
  0000d	e8 00 00 00 00	 call	 ?ChangeSubBtn@EnablePowerupListWnd@@IAEXK@Z ; EnablePowerupListWnd::ChangeSubBtn
  00012	5e		 pop	 esi

; 99   : }

  00013	c3		 ret	 0
?ShowItemList@EnablePowerupListWnd@@QAEXXZ ENDP		; EnablePowerupListWnd::ShowItemList
_TEXT	ENDS
END
