; Listing generated by Microsoft (R) Optimizing Compiler Version 16.00.30319.01 

	TITLE	D:\Lost Saga For Developer\Youtube\Tutorial\Source\src\LSClient\GUI\EventCatalogWnd.cpp
	.686P
	.XMM
	include listing.inc
	.model	flat

INCLUDELIB MSVCRT
INCLUDELIB OLDNAMES

PUBLIC	?_EEM_DS@?$deque@UD3DXVECTOR3@@V?$allocator@UD3DXVECTOR3@@@std@@@std@@2HB ; std::deque<D3DXVECTOR3,std::allocator<D3DXVECTOR3> >::_EEM_DS
PUBLIC	?m_IEHwnd@EventCatalogWnd@@1PAUHWND__@@A	; EventCatalogWnd::m_IEHwnd
PUBLIC	?m_bAutoShow@EvnetChildrenDay@@1_NA		; EvnetChildrenDay::m_bAutoShow
PUBLIC	?sg_bBonusPeso@EventMortMainWnd@@1_NA		; EventMortMainWnd::sg_bBonusPeso
PUBLIC	?sg_dwCurRandTime@EventChanceRollingWnd@@1KA	; EventChanceRollingWnd::sg_dwCurRandTime
PUBLIC	?sg_bShow@EventChanceRollingWnd@@1_NA		; EventChanceRollingWnd::sg_bShow
PUBLIC	?sg_iOriginalBonus@EventChanceRollingWnd@@1HA	; EventChanceRollingWnd::sg_iOriginalBonus
_BSS	SEGMENT
?m_IEHwnd@EventCatalogWnd@@1PAUHWND__@@A DD 01H DUP (?)	; EventCatalogWnd::m_IEHwnd
?m_bAutoShow@EvnetChildrenDay@@1_NA DB 01H DUP (?)	; EvnetChildrenDay::m_bAutoShow
	ALIGN	4

?sg_bBonusPeso@EventMortMainWnd@@1_NA DB 01H DUP (?)	; EventMortMainWnd::sg_bBonusPeso
	ALIGN	4

?sg_dwCurRandTime@EventChanceRollingWnd@@1KA DD 01H DUP (?) ; EventChanceRollingWnd::sg_dwCurRandTime
?sg_bShow@EventChanceRollingWnd@@1_NA DB 01H DUP (?)	; EventChanceRollingWnd::sg_bShow
	ALIGN	4

?sg_iOriginalBonus@EventChanceRollingWnd@@1HA DD 01H DUP (?) ; EventChanceRollingWnd::sg_iOriginalBonus
_BSS	ENDS
;	COMDAT ?_EEM_DS@?$deque@UD3DXVECTOR3@@V?$allocator@UD3DXVECTOR3@@@std@@@std@@2HB
CONST	SEGMENT
?_EEM_DS@?$deque@UD3DXVECTOR3@@V?$allocator@UD3DXVECTOR3@@@std@@@std@@2HB DD 01H ; std::deque<D3DXVECTOR3,std::allocator<D3DXVECTOR3> >::_EEM_DS
CONST	ENDS
PUBLIC	?return1@@YAIXZ					; return1
; Function compile flags: /Ogsp
; File d:\lost saga for developer\youtube\tutorial\source\src\lsclient\stdafx.h
;	COMDAT ?return1@@YAIXZ
_TEXT	SEGMENT
?return1@@YAIXZ PROC					; return1, COMDAT

; 17   : 	__forceinline unsigned int return1() { __asm mov eax, 1 };

  00000	b8 01 00 00 00	 mov	 eax, 1
  00005	c3		 ret	 0
?return1@@YAIXZ ENDP					; return1
_TEXT	ENDS
PUBLIC	?return5@@YAIXZ					; return5
; Function compile flags: /Ogsp
;	COMDAT ?return5@@YAIXZ
_TEXT	SEGMENT
?return5@@YAIXZ PROC					; return5, COMDAT

; 18   : 	__forceinline unsigned int return5() { __asm mov eax, 5 };

  00000	b8 05 00 00 00	 mov	 eax, 5
  00005	c3		 ret	 0
?return5@@YAIXZ ENDP					; return5
_TEXT	ENDS
PUBLIC	?return10@@YAIXZ				; return10
; Function compile flags: /Ogsp
;	COMDAT ?return10@@YAIXZ
_TEXT	SEGMENT
?return10@@YAIXZ PROC					; return10, COMDAT

; 21   : 	__forceinline unsigned int return10() { __asm mov eax, 10 };

  00000	b8 0a 00 00 00	 mov	 eax, 10			; 0000000aH
  00005	c3		 ret	 0
?return10@@YAIXZ ENDP					; return10
_TEXT	ENDS
PUBLIC	?return100@@YAIXZ				; return100
; Function compile flags: /Ogsp
;	COMDAT ?return100@@YAIXZ
_TEXT	SEGMENT
?return100@@YAIXZ PROC					; return100, COMDAT

; 25   : 	__forceinline unsigned int return100() { __asm mov eax, 100 };

  00000	b8 64 00 00 00	 mov	 eax, 100		; 00000064H
  00005	c3		 ret	 0
?return100@@YAIXZ ENDP					; return100
_TEXT	ENDS
PUBLIC	?return1000@@YAIXZ				; return1000
; Function compile flags: /Ogsp
;	COMDAT ?return1000@@YAIXZ
_TEXT	SEGMENT
?return1000@@YAIXZ PROC					; return1000, COMDAT

; 29   : 	__forceinline unsigned int return1000() { __asm mov eax, 1000 };

  00000	b8 e8 03 00 00	 mov	 eax, 1000		; 000003e8H
  00005	c3		 ret	 0
?return1000@@YAIXZ ENDP					; return1000
_TEXT	ENDS
EXTRN	__imp___localtime64:PROC
; Function compile flags: /Ogsp
; File c:\program files (x86)\microsoft visual studio 10.0\vc\include\time.inl
;	COMDAT _localtime
_TEXT	SEGMENT
__Time$ = 8						; size = 4
_localtime PROC						; COMDAT

; 113  : {

  00000	55		 push	 ebp
  00001	8b ec		 mov	 ebp, esp

; 117  : #pragma warning( pop )
; 118  : }

  00003	5d		 pop	 ebp

; 114  : #pragma warning( push )
; 115  : #pragma warning( disable : 4996 )
; 116  :     return _localtime64(_Time);

  00004	ff 25 00 00 00
	00		 jmp	 DWORD PTR __imp___localtime64
_localtime ENDP
_TEXT	ENDS
PUBLIC	??0tagEventInfo@@QAE@XZ				; tagEventInfo::tagEventInfo
EXTRN	__imp_??1ioHashString@@QAE@XZ:PROC
EXTRN	__imp_??0ioHashString@@QAE@XZ:PROC
EXTRN	___CxxFrameHandler3:PROC
EXTRN	@__security_check_cookie@4:PROC
EXTRN	__EH_epilog3:PROC
EXTRN	__EH_prolog3:PROC
;	COMDAT xdata$x
; File d:\lost saga for developer\youtube\tutorial\source\src\lsclient\gui\eventcatalogwnd.h
xdata$x	SEGMENT
__unwindtable$??0tagEventInfo@@QAE@XZ DD 0ffffffffH
	DD	FLAT:__unwindfunclet$??0tagEventInfo@@QAE@XZ$0
	DD	00H
	DD	FLAT:__unwindfunclet$??0tagEventInfo@@QAE@XZ$1
__ehfuncinfo$??0tagEventInfo@@QAE@XZ DD 019930522H
	DD	02H
	DD	FLAT:__unwindtable$??0tagEventInfo@@QAE@XZ
	DD	2 DUP(00H)
	DD	2 DUP(00H)
	DD	00H
	DD	01H
; Function compile flags: /Ogsp
xdata$x	ENDS
;	COMDAT ??0tagEventInfo@@QAE@XZ
_TEXT	SEGMENT
_this$ = -16						; size = 4
__$EHRec$ = -12						; size = 12
??0tagEventInfo@@QAE@XZ PROC				; tagEventInfo::tagEventInfo, COMDAT
; _this$ = ecx

; 19   : 	tagEventInfo()

  00000	6a 04		 push	 4
  00002	b8 00 00 00 00	 mov	 eax, __ehhandler$??0tagEventInfo@@QAE@XZ
  00007	e8 00 00 00 00	 call	 __EH_prolog3
  0000c	8b f1		 mov	 esi, ecx
  0000e	89 75 f0	 mov	 DWORD PTR _this$[ebp], esi
  00011	8b 3d 00 00 00
	00		 mov	 edi, DWORD PTR __imp_??0ioHashString@@QAE@XZ
  00017	8d 4e 04	 lea	 ecx, DWORD PTR [esi+4]
  0001a	ff d7		 call	 edi
  0001c	33 db		 xor	 ebx, ebx
  0001e	8d 4e 24	 lea	 ecx, DWORD PTR [esi+36]
  00021	89 5d fc	 mov	 DWORD PTR __$EHRec$[ebp+8], ebx
  00024	ff d7		 call	 edi
  00026	8d 4e 34	 lea	 ecx, DWORD PTR [esi+52]
  00029	c6 45 fc 01	 mov	 BYTE PTR __$EHRec$[ebp+8], 1
  0002d	ff d7		 call	 edi

; 20   : 	{
; 21   : 		m_bWebEvent   = false;
; 22   : 		m_dwStartDate = 0;
; 23   : 		m_dwEndDate   = 0;
; 24   : 		m_dwEventWndID= 0;
; 25   : 		m_iEventType  = 0;
; 26   : 		m_eChannelingType = CNT_NONE;

  0002f	83 4e 44 ff	 or	 DWORD PTR [esi+68], -1
  00033	88 1e		 mov	 BYTE PTR [esi], bl
  00035	89 5e 14	 mov	 DWORD PTR [esi+20], ebx
  00038	89 5e 18	 mov	 DWORD PTR [esi+24], ebx
  0003b	89 5e 1c	 mov	 DWORD PTR [esi+28], ebx
  0003e	89 5e 20	 mov	 DWORD PTR [esi+32], ebx

; 27   : 	}

  00041	8b c6		 mov	 eax, esi
  00043	e8 00 00 00 00	 call	 __EH_epilog3
  00048	c3		 ret	 0
_TEXT	ENDS
;	COMDAT text$x
text$x	SEGMENT
__unwindfunclet$??0tagEventInfo@@QAE@XZ$0:
  00000	8b 4d f0	 mov	 ecx, DWORD PTR _this$[ebp]
  00003	83 c1 04	 add	 ecx, 4
  00006	ff 25 00 00 00
	00		 jmp	 DWORD PTR __imp_??1ioHashString@@QAE@XZ
__unwindfunclet$??0tagEventInfo@@QAE@XZ$1:
  0000c	8b 4d f0	 mov	 ecx, DWORD PTR _this$[ebp]
  0000f	83 c1 24	 add	 ecx, 36			; 00000024H
  00012	ff 25 00 00 00
	00		 jmp	 DWORD PTR __imp_??1ioHashString@@QAE@XZ
__ehhandler$??0tagEventInfo@@QAE@XZ:
  00018	8b 54 24 08	 mov	 edx, DWORD PTR [esp+8]
  0001c	8d 42 0c	 lea	 eax, DWORD PTR [edx+12]
  0001f	8b 4a ec	 mov	 ecx, DWORD PTR [edx-20]
  00022	33 c8		 xor	 ecx, eax
  00024	e8 00 00 00 00	 call	 @__security_check_cookie@4
  00029	b8 00 00 00 00	 mov	 eax, OFFSET __ehfuncinfo$??0tagEventInfo@@QAE@XZ
  0002e	e9 00 00 00 00	 jmp	 ___CxxFrameHandler3
text$x	ENDS
??0tagEventInfo@@QAE@XZ ENDP				; tagEventInfo::tagEventInfo
PUBLIC	?SetAutoShow@EvnetChildrenDay@@SAX_N@Z		; EvnetChildrenDay::SetAutoShow
; Function compile flags: /Ogsp
;	COMDAT ?SetAutoShow@EvnetChildrenDay@@SAX_N@Z
_TEXT	SEGMENT
_bAutoShow$ = 8						; size = 1
?SetAutoShow@EvnetChildrenDay@@SAX_N@Z PROC		; EvnetChildrenDay::SetAutoShow, COMDAT

; 123  : 	static void SetAutoShow(bool bAutoShow) { m_bAutoShow = bAutoShow; }

  00000	55		 push	 ebp
  00001	8b ec		 mov	 ebp, esp
  00003	8a 45 08	 mov	 al, BYTE PTR _bAutoShow$[ebp]
  00006	a2 00 00 00 00	 mov	 BYTE PTR ?m_bAutoShow@EvnetChildrenDay@@1_NA, al ; EvnetChildrenDay::m_bAutoShow
  0000b	5d		 pop	 ebp
  0000c	c3		 ret	 0
?SetAutoShow@EvnetChildrenDay@@SAX_N@Z ENDP		; EvnetChildrenDay::SetAutoShow
_TEXT	ENDS
PUBLIC	??1tagEventInfo@@QAE@XZ				; tagEventInfo::~tagEventInfo
;	COMDAT xdata$x
xdata$x	SEGMENT
__unwindtable$??1tagEventInfo@@QAE@XZ DD 0ffffffffH
	DD	FLAT:__unwindfunclet$??1tagEventInfo@@QAE@XZ$0
	DD	00H
	DD	FLAT:__unwindfunclet$??1tagEventInfo@@QAE@XZ$1
__ehfuncinfo$??1tagEventInfo@@QAE@XZ DD 019930522H
	DD	02H
	DD	FLAT:__unwindtable$??1tagEventInfo@@QAE@XZ
	DD	2 DUP(00H)
	DD	2 DUP(00H)
	DD	00H
	DD	01H
; Function compile flags: /Ogsp
xdata$x	ENDS
;	COMDAT ??1tagEventInfo@@QAE@XZ
_TEXT	SEGMENT
_this$ = -16						; size = 4
__$EHRec$ = -12						; size = 12
??1tagEventInfo@@QAE@XZ PROC				; tagEventInfo::~tagEventInfo, COMDAT
; _this$ = ecx
  00000	6a 04		 push	 4
  00002	b8 00 00 00 00	 mov	 eax, __ehhandler$??1tagEventInfo@@QAE@XZ
  00007	e8 00 00 00 00	 call	 __EH_prolog3
  0000c	8b f9		 mov	 edi, ecx
  0000e	89 7d f0	 mov	 DWORD PTR _this$[ebp], edi
  00011	8b 35 00 00 00
	00		 mov	 esi, DWORD PTR __imp_??1ioHashString@@QAE@XZ
  00017	8d 4f 34	 lea	 ecx, DWORD PTR [edi+52]
  0001a	c7 45 fc 01 00
	00 00		 mov	 DWORD PTR __$EHRec$[ebp+8], 1
  00021	ff d6		 call	 esi
  00023	8d 4f 24	 lea	 ecx, DWORD PTR [edi+36]
  00026	c6 45 fc 00	 mov	 BYTE PTR __$EHRec$[ebp+8], 0
  0002a	ff d6		 call	 esi
  0002c	83 4d fc ff	 or	 DWORD PTR __$EHRec$[ebp+8], -1
  00030	8d 4f 04	 lea	 ecx, DWORD PTR [edi+4]
  00033	ff d6		 call	 esi
  00035	e8 00 00 00 00	 call	 __EH_epilog3
  0003a	c3		 ret	 0
_TEXT	ENDS
;	COMDAT text$x
text$x	SEGMENT
__unwindfunclet$??1tagEventInfo@@QAE@XZ$0:
  00000	8b 4d f0	 mov	 ecx, DWORD PTR _this$[ebp]
  00003	83 c1 04	 add	 ecx, 4
  00006	ff 25 00 00 00
	00		 jmp	 DWORD PTR __imp_??1ioHashString@@QAE@XZ
__unwindfunclet$??1tagEventInfo@@QAE@XZ$1:
  0000c	8b 4d f0	 mov	 ecx, DWORD PTR _this$[ebp]
  0000f	83 c1 24	 add	 ecx, 36			; 00000024H
  00012	ff 25 00 00 00
	00		 jmp	 DWORD PTR __imp_??1ioHashString@@QAE@XZ
__ehhandler$??1tagEventInfo@@QAE@XZ:
  00018	8b 54 24 08	 mov	 edx, DWORD PTR [esp+8]
  0001c	8d 42 0c	 lea	 eax, DWORD PTR [edx+12]
  0001f	8b 4a ec	 mov	 ecx, DWORD PTR [edx-20]
  00022	33 c8		 xor	 ecx, eax
  00024	e8 00 00 00 00	 call	 @__security_check_cookie@4
  00029	b8 00 00 00 00	 mov	 eax, OFFSET __ehfuncinfo$??1tagEventInfo@@QAE@XZ
  0002e	e9 00 00 00 00	 jmp	 ___CxxFrameHandler3
text$x	ENDS
??1tagEventInfo@@QAE@XZ ENDP				; tagEventInfo::~tagEventInfo
PUBLIC	??_C@_0BK@FPAEJHLK@EventCatalogWnd?3?3EnumProc?$AA@ ; `string'
PUBLIC	??_C@_00CNPNBAHC@?$AA@				; `string'
PUBLIC	__$ArrayPad$
PUBLIC	?EnumProc@EventCatalogWnd@@KGHPAUHWND__@@J@Z	; EventCatalogWnd::EnumProc
EXTRN	__imp_?GetString@ioStringManager@@QAEPADPBD0HW4FileNamePrefix@1@@Z:PROC
EXTRN	__imp_?GetSingleton@ioStringManager@@SAAAV1@XZ:PROC
EXTRN	__imp__GetWindowTextA@12:PROC
EXTRN	___security_cookie:DWORD
EXTRN	_memset:PROC
;	COMDAT ??_C@_0BK@FPAEJHLK@EventCatalogWnd?3?3EnumProc?$AA@
; File d:\lost saga for developer\youtube\tutorial\source\src\lsclient\gui\eventcatalogwnd.cpp
CONST	SEGMENT
??_C@_0BK@FPAEJHLK@EventCatalogWnd?3?3EnumProc?$AA@ DB 'EventCatalogWnd::'
	DB	'EnumProc', 00H				; `string'
CONST	ENDS
;	COMDAT ??_C@_00CNPNBAHC@?$AA@
CONST	SEGMENT
??_C@_00CNPNBAHC@?$AA@ DB 00H				; `string'
; Function compile flags: /Ogsp
CONST	ENDS
;	COMDAT ?EnumProc@EventCatalogWnd@@KGHPAUHWND__@@J@Z
_TEXT	SEGMENT
_szText$ = -264						; size = 260
__$ArrayPad$ = -4					; size = 4
_hWnd$ = 8						; size = 4
_lParam$ = 12						; size = 4
?EnumProc@EventCatalogWnd@@KGHPAUHWND__@@J@Z PROC	; EventCatalogWnd::EnumProc, COMDAT

; 211  : {

  00000	55		 push	 ebp
  00001	8b ec		 mov	 ebp, esp
  00003	81 ec 08 01 00
	00		 sub	 esp, 264		; 00000108H
  00009	a1 00 00 00 00	 mov	 eax, DWORD PTR ___security_cookie
  0000e	33 c5		 xor	 eax, ebp
  00010	89 45 fc	 mov	 DWORD PTR __$ArrayPad$[ebp], eax

; 212  : 	if( m_IEHwnd != 0 )

  00013	83 3d 00 00 00
	00 00		 cmp	 DWORD PTR ?m_IEHwnd@EventCatalogWnd@@1PAUHWND__@@A, 0 ; EventCatalogWnd::m_IEHwnd
  0001a	56		 push	 esi
  0001b	8b 75 08	 mov	 esi, DWORD PTR _hWnd$[ebp]

; 213  : 		return TRUE;

  0001e	0f 85 81 00 00
	00		 jne	 $LN1@EnumProc

; 214  : 
; 215  : 	char szText[MAX_PATH] = "";

  00024	68 03 01 00 00	 push	 259			; 00000103H
  00029	8d 85 f9 fe ff
	ff		 lea	 eax, DWORD PTR _szText$[ebp+1]
  0002f	6a 00		 push	 0
  00031	50		 push	 eax
  00032	c6 85 f8 fe ff
	ff 00		 mov	 BYTE PTR _szText$[ebp], 0
  00039	e8 00 00 00 00	 call	 _memset
  0003e	83 c4 0c	 add	 esp, 12			; 0000000cH

; 216  : 	GetWindowText(hWnd,szText,MAX_PATH);

  00041	68 04 01 00 00	 push	 260			; 00000104H
  00046	8d 85 f8 fe ff
	ff		 lea	 eax, DWORD PTR _szText$[ebp]
  0004c	50		 push	 eax
  0004d	56		 push	 esi
  0004e	ff 15 00 00 00
	00		 call	 DWORD PTR __imp__GetWindowTextA@12

; 217  : 	if( strcmp(szText,STR(1)) == 0 )

  00054	6a 00		 push	 0
  00056	6a 01		 push	 1
  00058	68 00 00 00 00	 push	 OFFSET ??_C@_00CNPNBAHC@?$AA@
  0005d	68 00 00 00 00	 push	 OFFSET ??_C@_0BK@FPAEJHLK@EventCatalogWnd?3?3EnumProc?$AA@
  00062	ff 15 00 00 00
	00		 call	 DWORD PTR __imp_?GetSingleton@ioStringManager@@SAAAV1@XZ
  00068	8b c8		 mov	 ecx, eax
  0006a	ff 15 00 00 00
	00		 call	 DWORD PTR __imp_?GetString@ioStringManager@@QAEPADPBD0HW4FileNamePrefix@1@@Z
  00070	8d 8d f8 fe ff
	ff		 lea	 ecx, DWORD PTR _szText$[ebp]
$LL5@EnumProc:
  00076	8a 11		 mov	 dl, BYTE PTR [ecx]
  00078	3a 10		 cmp	 dl, BYTE PTR [eax]
  0007a	75 1a		 jne	 SHORT $LN6@EnumProc
  0007c	84 d2		 test	 dl, dl
  0007e	74 12		 je	 SHORT $LN7@EnumProc
  00080	8a 51 01	 mov	 dl, BYTE PTR [ecx+1]
  00083	3a 50 01	 cmp	 dl, BYTE PTR [eax+1]
  00086	75 0e		 jne	 SHORT $LN6@EnumProc
  00088	83 c1 02	 add	 ecx, 2
  0008b	83 c0 02	 add	 eax, 2
  0008e	84 d2		 test	 dl, dl
  00090	75 e4		 jne	 SHORT $LL5@EnumProc
$LN7@EnumProc:
  00092	33 c0		 xor	 eax, eax
  00094	eb 05		 jmp	 SHORT $LN8@EnumProc
$LN6@EnumProc:
  00096	1b c0		 sbb	 eax, eax
  00098	83 d8 ff	 sbb	 eax, -1
$LN8@EnumProc:
  0009b	85 c0		 test	 eax, eax
  0009d	75 06		 jne	 SHORT $LN1@EnumProc

; 218  : 	{
; 219  : 		m_IEHwnd = hWnd;

  0009f	89 35 00 00 00
	00		 mov	 DWORD PTR ?m_IEHwnd@EventCatalogWnd@@1PAUHWND__@@A, esi ; EventCatalogWnd::m_IEHwnd
$LN1@EnumProc:

; 220  : 	}
; 221  : 	
; 222  : 	return TRUE;
; 223  : }

  000a5	8b 4d fc	 mov	 ecx, DWORD PTR __$ArrayPad$[ebp]
  000a8	33 c0		 xor	 eax, eax
  000aa	33 cd		 xor	 ecx, ebp
  000ac	40		 inc	 eax
  000ad	5e		 pop	 esi
  000ae	e8 00 00 00 00	 call	 @__security_check_cookie@4
  000b3	c9		 leave
  000b4	c2 08 00	 ret	 8
?EnumProc@EventCatalogWnd@@KGHPAUHWND__@@J@Z ENDP	; EventCatalogWnd::EnumProc
_TEXT	ENDS
PUBLIC	?ProcessIERefresh@EventCatalogWnd@@IAEXXZ	; EventCatalogWnd::ProcessIERefresh
EXTRN	__imp__PostMessageA@16:PROC
EXTRN	__imp__EnumWindows@8:PROC
EXTRN	__imp_?GetTotalSec@ioFrameTimer@@QAEKXZ:PROC
EXTRN	__imp_?GetSingleton@ioFrameTimer@@SAAAV1@XZ:PROC
EXTRN	__imp_?IsShow@ioWnd@@QBE_NXZ:PROC
; Function compile flags: /Ogsp
;	COMDAT ?ProcessIERefresh@EventCatalogWnd@@IAEXXZ
_TEXT	SEGMENT
?ProcessIERefresh@EventCatalogWnd@@IAEXXZ PROC		; EventCatalogWnd::ProcessIERefresh, COMDAT
; _this$ = ecx

; 226  : {

  00000	56		 push	 esi
  00001	8b f1		 mov	 esi, ecx

; 227  : 	if( !IsShow() )

  00003	ff 15 00 00 00
	00		 call	 DWORD PTR __imp_?IsShow@ioWnd@@QBE_NXZ
  00009	84 c0		 test	 al, al
  0000b	74 51		 je	 SHORT $LN5@ProcessIER

; 228  : 		return;
; 229  : 
; 230  : 	if( !m_bIERefreshCheck )

  0000d	53		 push	 ebx
  0000e	33 db		 xor	 ebx, ebx
  00010	38 9e b0 01 00
	00		 cmp	 BYTE PTR [esi+432], bl
  00016	74 45		 je	 SHORT $LN7@ProcessIER

; 231  : 		return;
; 232  : 
; 233  : 	enum { MAX_CHECK_TIME = 10000, };
; 234  : 	if( REALGETTIME() - m_dwIERefreshTimer > MAX_CHECK_TIME )

  00018	ff 15 00 00 00
	00		 call	 DWORD PTR __imp_?GetSingleton@ioFrameTimer@@SAAAV1@XZ
  0001e	8b c8		 mov	 ecx, eax
  00020	ff 15 00 00 00
	00		 call	 DWORD PTR __imp_?GetTotalSec@ioFrameTimer@@QAEKXZ
  00026	2b 86 ac 01 00
	00		 sub	 eax, DWORD PTR [esi+428]
  0002c	3d 10 27 00 00	 cmp	 eax, 10000		; 00002710H

; 235  : 	{
; 236  : 		m_bIERefreshCheck = false;
; 237  : 		return;

  00031	77 24		 ja	 SHORT $LN8@ProcessIER

; 238  : 	}
; 239  : 
; 240  : 	EnumWindows( EnumProc, 0 );

  00033	53		 push	 ebx
  00034	68 00 00 00 00	 push	 OFFSET ?EnumProc@EventCatalogWnd@@KGHPAUHWND__@@J@Z ; EventCatalogWnd::EnumProc
  00039	ff 15 00 00 00
	00		 call	 DWORD PTR __imp__EnumWindows@8

; 241  : 	if( m_IEHwnd == 0 )

  0003f	a1 00 00 00 00	 mov	 eax, DWORD PTR ?m_IEHwnd@EventCatalogWnd@@1PAUHWND__@@A ; EventCatalogWnd::m_IEHwnd
  00044	3b c3		 cmp	 eax, ebx
  00046	74 15		 je	 SHORT $LN7@ProcessIER

; 242  : 		return;
; 243  : 
; 244  : 	PostMessage( m_IEHwnd, WM_KEYDOWN, VK_F5, 0L ); // ie8에서 ie를 바로 실행하면 일부 페이지가 보이지 않아 리프레쉬 메세지를 한번 보낸다.

  00048	53		 push	 ebx
  00049	6a 74		 push	 116			; 00000074H
  0004b	68 00 01 00 00	 push	 256			; 00000100H
  00050	50		 push	 eax
  00051	ff 15 00 00 00
	00		 call	 DWORD PTR __imp__PostMessageA@16
$LN8@ProcessIER:

; 245  : 	m_bIERefreshCheck = false;

  00057	88 9e b0 01 00
	00		 mov	 BYTE PTR [esi+432], bl
$LN7@ProcessIER:
  0005d	5b		 pop	 ebx
$LN5@ProcessIER:
  0005e	5e		 pop	 esi

; 246  : }

  0005f	c3		 ret	 0
?ProcessIERefresh@EventCatalogWnd@@IAEXXZ ENDP		; EventCatalogWnd::ProcessIERefresh
_TEXT	ENDS
PUBLIC	??_7bad_alloc@std@@6B@				; std::bad_alloc::`vftable'
PUBLIC	??0bad_alloc@std@@QAE@PBD@Z			; std::bad_alloc::bad_alloc
PUBLIC	??_R4bad_alloc@std@@6B@				; std::bad_alloc::`RTTI Complete Object Locator'
PUBLIC	??_R0?AVbad_alloc@std@@@8			; std::bad_alloc `RTTI Type Descriptor'
PUBLIC	??_R3bad_alloc@std@@8				; std::bad_alloc::`RTTI Class Hierarchy Descriptor'
PUBLIC	??_R2bad_alloc@std@@8				; std::bad_alloc::`RTTI Base Class Array'
PUBLIC	??_R1A@?0A@EA@bad_alloc@std@@8			; std::bad_alloc::`RTTI Base Class Descriptor at (0,-1,0,64)'
PUBLIC	??_R1A@?0A@EA@exception@std@@8			; std::exception::`RTTI Base Class Descriptor at (0,-1,0,64)'
PUBLIC	??_R0?AVexception@std@@@8			; std::exception `RTTI Type Descriptor'
PUBLIC	??_R3exception@std@@8				; std::exception::`RTTI Class Hierarchy Descriptor'
PUBLIC	??_R2exception@std@@8				; std::exception::`RTTI Base Class Array'
EXTRN	__imp_??0exception@std@@QAE@ABQBD@Z:PROC
EXTRN	??_7type_info@@6B@:QWORD			; type_info::`vftable'
EXTRN	??_Ebad_alloc@std@@UAEPAXI@Z:PROC		; std::bad_alloc::`vector deleting destructor'
EXTRN	?what@exception@std@@UBEPBDXZ:PROC		; std::exception::what
;	COMDAT ??_R2exception@std@@8
; File c:\program files (x86)\microsoft visual studio 10.0\vc\include\exception
rdata$r	SEGMENT
??_R2exception@std@@8 DD FLAT:??_R1A@?0A@EA@exception@std@@8 ; std::exception::`RTTI Base Class Array'
rdata$r	ENDS
;	COMDAT ??_R3exception@std@@8
rdata$r	SEGMENT
??_R3exception@std@@8 DD 00H				; std::exception::`RTTI Class Hierarchy Descriptor'
	DD	00H
	DD	01H
	DD	FLAT:??_R2exception@std@@8
rdata$r	ENDS
;	COMDAT ??_R0?AVexception@std@@@8
_DATA	SEGMENT
??_R0?AVexception@std@@@8 DD FLAT:??_7type_info@@6B@	; std::exception `RTTI Type Descriptor'
	DD	00H
	DB	'.?AVexception@std@@', 00H
_DATA	ENDS
;	COMDAT ??_R1A@?0A@EA@exception@std@@8
rdata$r	SEGMENT
??_R1A@?0A@EA@exception@std@@8 DD FLAT:??_R0?AVexception@std@@@8 ; std::exception::`RTTI Base Class Descriptor at (0,-1,0,64)'
	DD	00H
	DD	00H
	DD	0ffffffffH
	DD	00H
	DD	040H
	DD	FLAT:??_R3exception@std@@8
rdata$r	ENDS
;	COMDAT ??_R1A@?0A@EA@bad_alloc@std@@8
rdata$r	SEGMENT
??_R1A@?0A@EA@bad_alloc@std@@8 DD FLAT:??_R0?AVbad_alloc@std@@@8 ; std::bad_alloc::`RTTI Base Class Descriptor at (0,-1,0,64)'
	DD	01H
	DD	00H
	DD	0ffffffffH
	DD	00H
	DD	040H
	DD	FLAT:??_R3bad_alloc@std@@8
rdata$r	ENDS
;	COMDAT ??_R2bad_alloc@std@@8
rdata$r	SEGMENT
??_R2bad_alloc@std@@8 DD FLAT:??_R1A@?0A@EA@bad_alloc@std@@8 ; std::bad_alloc::`RTTI Base Class Array'
	DD	FLAT:??_R1A@?0A@EA@exception@std@@8
rdata$r	ENDS
;	COMDAT ??_R3bad_alloc@std@@8
rdata$r	SEGMENT
??_R3bad_alloc@std@@8 DD 00H				; std::bad_alloc::`RTTI Class Hierarchy Descriptor'
	DD	00H
	DD	02H
	DD	FLAT:??_R2bad_alloc@std@@8
rdata$r	ENDS
;	COMDAT ??_R0?AVbad_alloc@std@@@8
_DATA	SEGMENT
??_R0?AVbad_alloc@std@@@8 DD FLAT:??_7type_info@@6B@	; std::bad_alloc `RTTI Type Descriptor'
	DD	00H
	DB	'.?AVbad_alloc@std@@', 00H
_DATA	ENDS
;	COMDAT ??_R4bad_alloc@std@@6B@
rdata$r	SEGMENT
??_R4bad_alloc@std@@6B@ DD 00H				; std::bad_alloc::`RTTI Complete Object Locator'
	DD	00H
	DD	00H
	DD	FLAT:??_R0?AVbad_alloc@std@@@8
	DD	FLAT:??_R3bad_alloc@std@@8
rdata$r	ENDS
;	COMDAT ??_7bad_alloc@std@@6B@
CONST	SEGMENT
??_7bad_alloc@std@@6B@ DD FLAT:??_R4bad_alloc@std@@6B@	; std::bad_alloc::`vftable'
	DD	FLAT:??_Ebad_alloc@std@@UAEPAXI@Z
	DD	FLAT:?what@exception@std@@UBEPBDXZ
; Function compile flags: /Ogsp
CONST	ENDS
;	COMDAT ??0bad_alloc@std@@QAE@PBD@Z
_TEXT	SEGMENT
__Message$ = 8						; size = 4
??0bad_alloc@std@@QAE@PBD@Z PROC			; std::bad_alloc::bad_alloc, COMDAT
; _this$ = ecx

; 345  : 		{	// construct from message string

  00000	55		 push	 ebp
  00001	8b ec		 mov	 ebp, esp
  00003	56		 push	 esi
  00004	8d 45 08	 lea	 eax, DWORD PTR __Message$[ebp]
  00007	50		 push	 eax
  00008	8b f1		 mov	 esi, ecx
  0000a	ff 15 00 00 00
	00		 call	 DWORD PTR __imp_??0exception@std@@QAE@ABQBD@Z
  00010	c7 06 00 00 00
	00		 mov	 DWORD PTR [esi], OFFSET ??_7bad_alloc@std@@6B@

; 346  : 		}

  00016	8b c6		 mov	 eax, esi
  00018	5e		 pop	 esi
  00019	5d		 pop	 ebp
  0001a	c2 04 00	 ret	 4
??0bad_alloc@std@@QAE@PBD@Z ENDP			; std::bad_alloc::bad_alloc
_TEXT	ENDS
PUBLIC	??1bad_alloc@std@@UAE@XZ			; std::bad_alloc::~bad_alloc
EXTRN	__imp_??1exception@std@@UAE@XZ:PROC
; Function compile flags: /Ogsp
;	COMDAT ??1bad_alloc@std@@UAE@XZ
_TEXT	SEGMENT
??1bad_alloc@std@@UAE@XZ PROC				; std::bad_alloc::~bad_alloc, COMDAT
; _this$ = ecx

; 354  : 		{	// destroy the object

  00000	c7 01 00 00 00
	00		 mov	 DWORD PTR [ecx], OFFSET ??_7bad_alloc@std@@6B@

; 355  : 		}

  00006	ff 25 00 00 00
	00		 jmp	 DWORD PTR __imp_??1exception@std@@UAE@XZ
??1bad_alloc@std@@UAE@XZ ENDP				; std::bad_alloc::~bad_alloc
_TEXT	ENDS
EXTRN	??3@YAXPAX@Z:PROC				; operator delete
; Function compile flags: /Ogsp
;	COMDAT ??_Gbad_alloc@std@@UAEPAXI@Z
_TEXT	SEGMENT
___flags$ = 8						; size = 4
??_Gbad_alloc@std@@UAEPAXI@Z PROC			; std::bad_alloc::`scalar deleting destructor', COMDAT
; _this$ = ecx
  00000	55		 push	 ebp
  00001	8b ec		 mov	 ebp, esp
  00003	56		 push	 esi
  00004	8b f1		 mov	 esi, ecx
  00006	c7 06 00 00 00
	00		 mov	 DWORD PTR [esi], OFFSET ??_7bad_alloc@std@@6B@
  0000c	ff 15 00 00 00
	00		 call	 DWORD PTR __imp_??1exception@std@@UAE@XZ
  00012	f6 45 08 01	 test	 BYTE PTR ___flags$[ebp], 1
  00016	74 07		 je	 SHORT $LN1@scalar
  00018	56		 push	 esi
  00019	e8 00 00 00 00	 call	 ??3@YAXPAX@Z		; operator delete
  0001e	59		 pop	 ecx
$LN1@scalar:
  0001f	8b c6		 mov	 eax, esi
  00021	5e		 pop	 esi
  00022	5d		 pop	 ebp
  00023	c2 04 00	 ret	 4
??_Gbad_alloc@std@@UAEPAXI@Z ENDP			; std::bad_alloc::`scalar deleting destructor'
_TEXT	ENDS
PUBLIC	??2@YAPAXIPAX@Z					; operator new
; Function compile flags: /Ogsp
; File c:\program files (x86)\microsoft visual studio 10.0\vc\include\new
;	COMDAT ??2@YAPAXIPAX@Z
_TEXT	SEGMENT
___formal$ = 8						; size = 4
__Where$ = 12						; size = 4
??2@YAPAXIPAX@Z PROC					; operator new, COMDAT

; 56   : 	{	// construct array with placement at _Where

  00000	55		 push	 ebp
  00001	8b ec		 mov	 ebp, esp

; 57   : 	return (_Where);

  00003	8b 45 0c	 mov	 eax, DWORD PTR __Where$[ebp]

; 58   : 	}

  00006	5d		 pop	 ebp
  00007	c3		 ret	 0
??2@YAPAXIPAX@Z ENDP					; operator new
_TEXT	ENDS
PUBLIC	??3@YAXPAX0@Z					; operator delete
; Function compile flags: /Ogsp
;	COMDAT ??3@YAXPAX0@Z
_TEXT	SEGMENT
___formal$ = 8						; size = 4
___formal$ = 12						; size = 4
??3@YAXPAX0@Z PROC					; operator delete, COMDAT

; 62   : 	}

  00000	c3		 ret	 0
??3@YAXPAX0@Z ENDP					; operator delete
_TEXT	ENDS
PUBLIC	?_Adopt@_Iterator_base0@std@@QAEXPBX@Z		; std::_Iterator_base0::_Adopt
; Function compile flags: /Ogsp
; File c:\program files (x86)\microsoft visual studio 10.0\vc\include\xutility
;	COMDAT ?_Adopt@_Iterator_base0@std@@QAEXPBX@Z
_TEXT	SEGMENT
___formal$ = 8						; size = 4
?_Adopt@_Iterator_base0@std@@QAEXPBX@Z PROC		; std::_Iterator_base0::_Adopt, COMDAT
; _this$ = ecx

; 49   : 		}

  00000	c2 04 00	 ret	 4
?_Adopt@_Iterator_base0@std@@QAEXPBX@Z ENDP		; std::_Iterator_base0::_Adopt
_TEXT	ENDS
PUBLIC	?iwm_spacebar@EventCatalogWnd@@UAE_NXZ		; EventCatalogWnd::iwm_spacebar
EXTRN	__imp_?FindChildWnd@ioWnd@@QAEPAV1@K@Z:PROC
; Function compile flags: /Ogsp
; File d:\lost saga for developer\youtube\tutorial\source\src\lsclient\gui\eventcatalogwnd.cpp
;	COMDAT ?iwm_spacebar@EventCatalogWnd@@UAE_NXZ
_TEXT	SEGMENT
?iwm_spacebar@EventCatalogWnd@@UAE_NXZ PROC		; EventCatalogWnd::iwm_spacebar, COMDAT
; _this$ = ecx

; 334  : {

  00000	56		 push	 esi
  00001	57		 push	 edi

; 335  : 	ioWnd *pBtn = FindChildWnd( ID_DETAIL_BTN );

  00002	68 e9 03 00 00	 push	 1001			; 000003e9H
  00007	8b f1		 mov	 esi, ecx
  00009	ff 15 00 00 00
	00		 call	 DWORD PTR __imp_?FindChildWnd@ioWnd@@QAEPAV1@K@Z
  0000f	8b f8		 mov	 edi, eax

; 336  : 	if( !pBtn ) return false;

  00011	85 ff		 test	 edi, edi
  00013	75 04		 jne	 SHORT $LN2@iwm_spaceb
$LN5@iwm_spaceb:
  00015	32 c0		 xor	 al, al
  00017	eb 1d		 jmp	 SHORT $LN3@iwm_spaceb
$LN2@iwm_spaceb:

; 337  : 	if( !pBtn->IsShow() ) return false;

  00019	8b cf		 mov	 ecx, edi
  0001b	ff 15 00 00 00
	00		 call	 DWORD PTR __imp_?IsShow@ioWnd@@QBE_NXZ
  00021	84 c0		 test	 al, al
  00023	74 f0		 je	 SHORT $LN5@iwm_spaceb

; 338  : 
; 339  : 	iwm_command( pBtn, IOBN_BTNUP, 0 );

  00025	8b 06		 mov	 eax, DWORD PTR [esi]
  00027	6a 00		 push	 0
  00029	6a 11		 push	 17			; 00000011H
  0002b	57		 push	 edi
  0002c	8b ce		 mov	 ecx, esi
  0002e	ff 90 8c 00 00
	00		 call	 DWORD PTR [eax+140]

; 340  : 	return true;

  00034	b0 01		 mov	 al, 1
$LN3@iwm_spaceb:

; 341  : }

  00036	5f		 pop	 edi
  00037	5e		 pop	 esi
  00038	c3		 ret	 0
?iwm_spacebar@EventCatalogWnd@@UAE_NXZ ENDP		; EventCatalogWnd::iwm_spacebar
_TEXT	ENDS
PUBLIC	?iwm_create@EventCatalogWnd@@UAEXXZ		; EventCatalogWnd::iwm_create
; Function compile flags: /Ogsp
;	COMDAT ?iwm_create@EventCatalogWnd@@UAEXXZ
_TEXT	SEGMENT
?iwm_create@EventCatalogWnd@@UAEXXZ PROC		; EventCatalogWnd::iwm_create, COMDAT
; _this$ = ecx

; 345  : 	m_dwStyle |= IWS_PROCESS_ALWAYS;

  00000	83 49 18 40	 or	 DWORD PTR [ecx+24], 64	; 00000040H

; 346  : }

  00004	c3		 ret	 0
?iwm_create@EventCatalogWnd@@UAEXXZ ENDP		; EventCatalogWnd::iwm_create
_TEXT	ENDS
PUBLIC	?OnRender@EventCatalogWnd@@MAEXXZ		; EventCatalogWnd::OnRender
EXTRN	__imp_?GetDerivedPosY@ioWnd@@QBEHXZ:PROC
EXTRN	__imp_?GetDerivedPosX@ioWnd@@QBEHXZ:PROC
EXTRN	__imp_?OnRender@ioWnd@@MAEXXZ:PROC
EXTRN	__fltused:DWORD
; Function compile flags: /Ogsp
;	COMDAT ?OnRender@EventCatalogWnd@@MAEXXZ
_TEXT	SEGMENT
_iYPos$ = -8						; size = 4
tv210 = -4						; size = 4
?OnRender@EventCatalogWnd@@MAEXXZ PROC			; EventCatalogWnd::OnRender, COMDAT
; _this$ = ecx

; 371  : {

  00000	55		 push	 ebp
  00001	8b ec		 mov	 ebp, esp
  00003	51		 push	 ecx
  00004	51		 push	 ecx
  00005	53		 push	 ebx
  00006	56		 push	 esi
  00007	57		 push	 edi
  00008	8b f9		 mov	 edi, ecx

; 372  : 	ioMovingWnd::OnRender();

  0000a	ff 15 00 00 00
	00		 call	 DWORD PTR __imp_?OnRender@ioWnd@@MAEXXZ

; 373  : 
; 374  : 	int iXPos, iYPos;
; 375  : 	iXPos = GetDerivedPosX();

  00010	8b cf		 mov	 ecx, edi
  00012	ff 15 00 00 00
	00		 call	 DWORD PTR __imp_?GetDerivedPosX@ioWnd@@QBEHXZ

; 376  : 	iYPos = GetDerivedPosY();

  00018	8b cf		 mov	 ecx, edi
  0001a	8b d8		 mov	 ebx, eax
  0001c	ff 15 00 00 00
	00		 call	 DWORD PTR __imp_?GetDerivedPosY@ioWnd@@QBEHXZ

; 377  : 
; 378  : 	enum { X_OFFSET_FIRST = 17, Y_OFFSET_FIRST = 48, X_OFFSET_SECOND = 529, Y_OFFSET_SECOND = 48, };
; 379  : 	if( m_pImgFirst )

  00022	33 f6		 xor	 esi, esi
  00024	8b d0		 mov	 edx, eax
  00026	89 55 f8	 mov	 DWORD PTR _iYPos$[ebp], edx
  00029	39 b7 a4 01 00
	00		 cmp	 DWORD PTR [edi+420], esi
  0002f	74 36		 je	 SHORT $LN2@OnRender

; 380  : 		m_pImgFirst->Render( iXPos + X_OFFSET_FIRST, iYPos + Y_OFFSET_FIRST );

  00031	8b 87 a4 01 00
	00		 mov	 eax, DWORD PTR [edi+420]
  00037	8b 08		 mov	 ecx, DWORD PTR [eax]
  00039	56		 push	 esi
  0003a	56		 push	 esi
  0003b	56		 push	 esi
  0003c	56		 push	 esi
  0003d	51		 push	 ecx
  0003e	83 c2 30	 add	 edx, 48			; 00000030H
  00041	0f 57 c0	 xorps	 xmm0, xmm0
  00044	f3 0f 2a c2	 cvtsi2ss xmm0, edx
  00048	51		 push	 ecx
  00049	f3 0f 11 44 24
	04		 movss	 DWORD PTR [esp+4], xmm0
  0004f	8d 53 11	 lea	 edx, DWORD PTR [ebx+17]
  00052	0f 57 c0	 xorps	 xmm0, xmm0
  00055	8b c8		 mov	 ecx, eax
  00057	8b 00		 mov	 eax, DWORD PTR [eax]
  00059	f3 0f 2a c2	 cvtsi2ss xmm0, edx
  0005d	f3 0f 11 04 24	 movss	 DWORD PTR [esp], xmm0
  00062	ff 10		 call	 DWORD PTR [eax]
  00064	8b 55 f8	 mov	 edx, DWORD PTR _iYPos$[ebp]
$LN2@OnRender:

; 381  : 	if( m_pImgSecond )

  00067	39 b7 a8 01 00
	00		 cmp	 DWORD PTR [edi+424], esi
  0006d	74 32		 je	 SHORT $LN1@OnRender

; 382  : 		m_pImgSecond->Render( iXPos + X_OFFSET_SECOND, iYPos + Y_OFFSET_SECOND );

  0006f	8b 8f a8 01 00
	00		 mov	 ecx, DWORD PTR [edi+424]
  00075	8b 01		 mov	 eax, DWORD PTR [ecx]
  00077	56		 push	 esi
  00078	56		 push	 esi
  00079	56		 push	 esi
  0007a	56		 push	 esi
  0007b	0f 57 c0	 xorps	 xmm0, xmm0
  0007e	51		 push	 ecx
  0007f	83 c2 30	 add	 edx, 48			; 00000030H
  00082	f3 0f 2a c2	 cvtsi2ss xmm0, edx
  00086	51		 push	 ecx
  00087	f3 0f 11 44 24
	04		 movss	 DWORD PTR [esp+4], xmm0
  0008d	81 c3 11 02 00
	00		 add	 ebx, 529		; 00000211H
  00093	0f 57 c0	 xorps	 xmm0, xmm0
  00096	f3 0f 2a c3	 cvtsi2ss xmm0, ebx
  0009a	f3 0f 11 04 24	 movss	 DWORD PTR [esp], xmm0
  0009f	ff 10		 call	 DWORD PTR [eax]
$LN1@OnRender:
  000a1	5f		 pop	 edi
  000a2	5e		 pop	 esi
  000a3	5b		 pop	 ebx

; 383  : 		
; 384  : }

  000a4	c9		 leave
  000a5	c3		 ret	 0
?OnRender@EventCatalogWnd@@MAEXXZ ENDP			; EventCatalogWnd::OnRender
_TEXT	ENDS
PUBLIC	??_7EvnetChildrenDay@@6B@			; EvnetChildrenDay::`vftable'
PUBLIC	??0EvnetChildrenDay@@QAE@XZ			; EvnetChildrenDay::EvnetChildrenDay
PUBLIC	??_R4EvnetChildrenDay@@6B@			; EvnetChildrenDay::`RTTI Complete Object Locator'
PUBLIC	??_R0?AVEvnetChildrenDay@@@8			; EvnetChildrenDay `RTTI Type Descriptor'
PUBLIC	??_R3EvnetChildrenDay@@8			; EvnetChildrenDay::`RTTI Class Hierarchy Descriptor'
PUBLIC	??_R2EvnetChildrenDay@@8			; EvnetChildrenDay::`RTTI Base Class Array'
PUBLIC	??_R1A@?0A@EA@EvnetChildrenDay@@8		; EvnetChildrenDay::`RTTI Base Class Descriptor at (0,-1,0,64)'
PUBLIC	??_R1A@?0A@EA@ioWnd@@8				; ioWnd::`RTTI Base Class Descriptor at (0,-1,0,64)'
PUBLIC	??_R0?AVioWnd@@@8				; ioWnd `RTTI Type Descriptor'
PUBLIC	??_R3ioWnd@@8					; ioWnd::`RTTI Class Hierarchy Descriptor'
PUBLIC	??_R2ioWnd@@8					; ioWnd::`RTTI Base Class Array'
PUBLIC	?OnRender@EvnetChildrenDay@@MAEXXZ		; EvnetChildrenDay::OnRender
PUBLIC	?OnProcess@EvnetChildrenDay@@MAEXM@Z		; EvnetChildrenDay::OnProcess
PUBLIC	?iwm_command@EvnetChildrenDay@@UAEXPAVioWnd@@HK@Z ; EvnetChildrenDay::iwm_command
PUBLIC	?iwm_spacebar@EvnetChildrenDay@@UAE_NXZ		; EvnetChildrenDay::iwm_spacebar
EXTRN	__imp_??0ioWnd@@QAE@XZ:PROC
EXTRN	?AddRenderFrame@ioWnd@@UAEXABVioHashString@@PAVioUIRenderFrame@@@Z:PROC ; ioWnd::AddRenderFrame
EXTRN	?AddRenderImage@ioWnd@@UAEXABVioHashString@@PAVioUIRenderImage@@@Z:PROC ; ioWnd::AddRenderImage
EXTRN	?AddTooltipHelp@ioWnd@@UAEXABVioHashString@@00@Z:PROC ; ioWnd::AddTooltipHelp
EXTRN	?ParseExtraInfo@ioWnd@@UAEXAAVioXMLElement@@@Z:PROC ; ioWnd::ParseExtraInfo
EXTRN	?AddNamedRenderImage@ioWnd@@UAEXABVioHashString@@PAVioUIRenderImage@@@Z:PROC ; ioWnd::AddNamedRenderImage
EXTRN	?RemoveNamedRenderImage@ioWnd@@UAEXABVioHashString@@@Z:PROC ; ioWnd::RemoveNamedRenderImage
EXTRN	?GetNamedRenderImage@ioWnd@@UBEPAVioUIRenderImage@@ABVioHashString@@@Z:PROC ; ioWnd::GetNamedRenderImage
EXTRN	?SetWindowAlpha@ioWnd@@UAEXH@Z:PROC		; ioWnd::SetWindowAlpha
EXTRN	?SetActive@ioWnd@@UAEXXZ:PROC			; ioWnd::SetActive
EXTRN	?SetInActive@ioWnd@@UAEXXZ:PROC			; ioWnd::SetInActive
EXTRN	?ClearElementImageList@ioWnd@@UAEXXZ:PROC	; ioWnd::ClearElementImageList
EXTRN	?SetSize@ioWnd@@UAEXHH@Z:PROC			; ioWnd::SetSize
EXTRN	?SetPositionToDefault@ioWnd@@UAEXHH_N0@Z:PROC	; ioWnd::SetPositionToDefault
EXTRN	?IsNeedProcess@ioWnd@@UBE_NXZ:PROC		; ioWnd::IsNeedProcess
EXTRN	?IsCanMouseReaction@ioWnd@@UBE_NXZ:PROC		; ioWnd::IsCanMouseReaction
EXTRN	?AddChild@ioWnd@@UAEXPAV1@@Z:PROC		; ioWnd::AddChild
EXTRN	?DeleteChild@ioWnd@@UAEXK@Z:PROC		; ioWnd::DeleteChild
EXTRN	?DeleteAllChild@ioWnd@@UAEXXZ:PROC		; ioWnd::DeleteAllChild
EXTRN	?OnRenderShowAndHide@ioWnd@@MAE_NXZ:PROC	; ioWnd::OnRenderShowAndHide
EXTRN	?OnRenderShowAndHideByDefault@ioWnd@@MAE_NK@Z:PROC ; ioWnd::OnRenderShowAndHideByDefault
EXTRN	?OnRenderShowAndHideByTop@ioWnd@@MAE_NK@Z:PROC	; ioWnd::OnRenderShowAndHideByTop
EXTRN	?OnRenderShowAndHideByDown@ioWnd@@MAE_NK@Z:PROC	; ioWnd::OnRenderShowAndHideByDown
EXTRN	?OnRenderAfterChild@ioWnd@@MAEXXZ:PROC		; ioWnd::OnRenderAfterChild
EXTRN	?OnMouseProcess@ioWnd@@MAEXABVioMouse@@@Z:PROC	; ioWnd::OnMouseProcess
EXTRN	?CheckFrameReSize@ioWnd@@MAEXHHHH@Z:PROC	; ioWnd::CheckFrameReSize
EXTRN	?RenderImageList@ioWnd@@MAEXHHW4UIRenderType@@@Z:PROC ; ioWnd::RenderImageList
EXTRN	?iwm_create@ioWnd@@UAEXXZ:PROC			; ioWnd::iwm_create
EXTRN	?iwm_destroy@ioWnd@@UAEXXZ:PROC			; ioWnd::iwm_destroy
EXTRN	?iwm_lbuttondown@ioWnd@@UAEXABVioMouse@@@Z:PROC	; ioWnd::iwm_lbuttondown
EXTRN	?iwm_lbuttonup@ioWnd@@UAEXABVioMouse@@@Z:PROC	; ioWnd::iwm_lbuttonup
EXTRN	?iwm_lbuttonDBLCLK@ioWnd@@UAEXABVioMouse@@@Z:PROC ; ioWnd::iwm_lbuttonDBLCLK
EXTRN	?iwm_rbuttondown@ioWnd@@UAEXABVioMouse@@@Z:PROC	; ioWnd::iwm_rbuttondown
EXTRN	?iwm_rbuttonup@ioWnd@@UAEXABVioMouse@@@Z:PROC	; ioWnd::iwm_rbuttonup
EXTRN	?iwm_mouseover@ioWnd@@UAEXABVioMouse@@@Z:PROC	; ioWnd::iwm_mouseover
EXTRN	?iwm_mousemove@ioWnd@@UAEXABVioMouse@@@Z:PROC	; ioWnd::iwm_mousemove
EXTRN	?iwm_mouseleave@ioWnd@@UAEXABVioMouse@@@Z:PROC	; ioWnd::iwm_mouseleave
EXTRN	?iwm_vscroll@ioWnd@@UAEXKH@Z:PROC		; ioWnd::iwm_vscroll
EXTRN	?iwm_wheel@ioWnd@@UAEXH@Z:PROC			; ioWnd::iwm_wheel
EXTRN	?iwm_show@ioWnd@@UAEXXZ:PROC			; ioWnd::iwm_show
EXTRN	?iwm_hide@ioWnd@@UAEXXZ:PROC			; ioWnd::iwm_hide
EXTRN	?iwm_esc@ioWnd@@UAE_NXZ:PROC			; ioWnd::iwm_esc
EXTRN	?iwm_gototop@ioWnd@@UAEXXZ:PROC			; ioWnd::iwm_gototop
EXTRN	?iwm_dragenter@ioWnd@@UAE?AW4IWDropEffect@@PAVioDragItem@@ABVioMouse@@@Z:PROC ; ioWnd::iwm_dragenter
EXTRN	?iwm_dragover@ioWnd@@UAE?AW4IWDropEffect@@PAVioDragItem@@ABVioMouse@@@Z:PROC ; ioWnd::iwm_dragover
EXTRN	?iwm_dragleave@ioWnd@@UAEXXZ:PROC		; ioWnd::iwm_dragleave
EXTRN	?iwm_dropitem@ioWnd@@UAE_NPAVioDragItem@@ABVioMouse@@PAV1@@Z:PROC ; ioWnd::iwm_dropitem
EXTRN	?iwm_dropdone@ioWnd@@UAEXPAVioDragItem@@PAV1@_N@Z:PROC ; ioWnd::iwm_dropdone
EXTRN	?IsEXType@ioWnd@@UBE_NXZ:PROC			; ioWnd::IsEXType
EXTRN	?GetWndType@ioWnd@@UBEKXZ:PROC			; ioWnd::GetWndType
EXTRN	?RenderWnd@ioWnd@@UAEXXZ:PROC			; ioWnd::RenderWnd
EXTRN	?SetIDEX@ioWnd@@UAEXAAK_N@Z:PROC		; ioWnd::SetIDEX
EXTRN	?ParseXML@ioWnd@@UAEXAAVioXMLElement@@@Z:PROC	; ioWnd::ParseXML
EXTRN	?GetHeaderFileName@ioWnd@@UAEPBDXZ:PROC		; ioWnd::GetHeaderFileName
EXTRN	?GetTemplateName@ioWnd@@UAEPBDXZ:PROC		; ioWnd::GetTemplateName
EXTRN	?GetDefClassName@ioWnd@@UBEPBDXZ:PROC		; ioWnd::GetDefClassName
EXTRN	?_Clone@ioWnd@@UAEPAV1@XZ:PROC			; ioWnd::_Clone
EXTRN	?Copy@ioWnd@@UAEXPAV1@@Z:PROC			; ioWnd::Copy
EXTRN	?Save@ioWnd@@UAE_NAAVioXMLElement@@@Z:PROC	; ioWnd::Save
EXTRN	?SetSaveData@ioWnd@@UAEXAAVioXMLElement@@@Z:PROC ; ioWnd::SetSaveData
EXTRN	?SetPosX@ioWnd@@UAEXH@Z:PROC			; ioWnd::SetPosX
EXTRN	?SetPosY@ioWnd@@UAEXH@Z:PROC			; ioWnd::SetPosY
EXTRN	?SetWidth@ioWnd@@UAEXH@Z:PROC			; ioWnd::SetWidth
EXTRN	?SetHeight@ioWnd@@UAEXH@Z:PROC			; ioWnd::SetHeight
EXTRN	?GetNumFixedRenderFrame@ioWnd@@UBEHXZ:PROC	; ioWnd::GetNumFixedRenderFrame
EXTRN	?GetFixedRenderFrameType@ioWnd@@UAEPBDH@Z:PROC	; ioWnd::GetFixedRenderFrameType
EXTRN	?GetRenderFrame@ioWnd@@UAEPAPAVioUIRenderElement@@PBD@Z:PROC ; ioWnd::GetRenderFrame
EXTRN	?GetNumFixedRenderImage@ioWnd@@UBEHXZ:PROC	; ioWnd::GetNumFixedRenderImage
EXTRN	?GetFixedRenderImageType@ioWnd@@UAEPBDH@Z:PROC	; ioWnd::GetFixedRenderImageType
EXTRN	?GetRenderImage@ioWnd@@UAEPAPAVioUIRenderElement@@PBD@Z:PROC ; ioWnd::GetRenderImage
EXTRN	?AddEffect@ioWnd@@UAEXABVioHashString@@PAVioUI3DEffectRender@@@Z:PROC ; ioWnd::AddEffect
EXTRN	?GetEffect@ioWnd@@UAEPAVioUI3DEffectRender@@VioHashString@@@Z:PROC ; ioWnd::GetEffect
EXTRN	??_EEvnetChildrenDay@@UAEPAXI@Z:PROC		; EvnetChildrenDay::`vector deleting destructor'
;	COMDAT ??_R2ioWnd@@8
rdata$r	SEGMENT
??_R2ioWnd@@8 DD FLAT:??_R1A@?0A@EA@ioWnd@@8		; ioWnd::`RTTI Base Class Array'
rdata$r	ENDS
;	COMDAT ??_R3ioWnd@@8
rdata$r	SEGMENT
??_R3ioWnd@@8 DD 00H					; ioWnd::`RTTI Class Hierarchy Descriptor'
	DD	00H
	DD	01H
	DD	FLAT:??_R2ioWnd@@8
rdata$r	ENDS
;	COMDAT ??_R0?AVioWnd@@@8
_DATA	SEGMENT
??_R0?AVioWnd@@@8 DD FLAT:??_7type_info@@6B@		; ioWnd `RTTI Type Descriptor'
	DD	00H
	DB	'.?AVioWnd@@', 00H
_DATA	ENDS
;	COMDAT ??_R1A@?0A@EA@ioWnd@@8
rdata$r	SEGMENT
??_R1A@?0A@EA@ioWnd@@8 DD FLAT:??_R0?AVioWnd@@@8	; ioWnd::`RTTI Base Class Descriptor at (0,-1,0,64)'
	DD	00H
	DD	00H
	DD	0ffffffffH
	DD	00H
	DD	040H
	DD	FLAT:??_R3ioWnd@@8
rdata$r	ENDS
;	COMDAT ??_R1A@?0A@EA@EvnetChildrenDay@@8
rdata$r	SEGMENT
??_R1A@?0A@EA@EvnetChildrenDay@@8 DD FLAT:??_R0?AVEvnetChildrenDay@@@8 ; EvnetChildrenDay::`RTTI Base Class Descriptor at (0,-1,0,64)'
	DD	01H
	DD	00H
	DD	0ffffffffH
	DD	00H
	DD	040H
	DD	FLAT:??_R3EvnetChildrenDay@@8
rdata$r	ENDS
;	COMDAT ??_R2EvnetChildrenDay@@8
rdata$r	SEGMENT
??_R2EvnetChildrenDay@@8 DD FLAT:??_R1A@?0A@EA@EvnetChildrenDay@@8 ; EvnetChildrenDay::`RTTI Base Class Array'
	DD	FLAT:??_R1A@?0A@EA@ioWnd@@8
rdata$r	ENDS
;	COMDAT ??_R3EvnetChildrenDay@@8
rdata$r	SEGMENT
??_R3EvnetChildrenDay@@8 DD 00H				; EvnetChildrenDay::`RTTI Class Hierarchy Descriptor'
	DD	00H
	DD	02H
	DD	FLAT:??_R2EvnetChildrenDay@@8
rdata$r	ENDS
;	COMDAT ??_R0?AVEvnetChildrenDay@@@8
_DATA	SEGMENT
??_R0?AVEvnetChildrenDay@@@8 DD FLAT:??_7type_info@@6B@	; EvnetChildrenDay `RTTI Type Descriptor'
	DD	00H
	DB	'.?AVEvnetChildrenDay@@', 00H
_DATA	ENDS
;	COMDAT ??_R4EvnetChildrenDay@@6B@
rdata$r	SEGMENT
??_R4EvnetChildrenDay@@6B@ DD 00H			; EvnetChildrenDay::`RTTI Complete Object Locator'
	DD	00H
	DD	00H
	DD	FLAT:??_R0?AVEvnetChildrenDay@@@8
	DD	FLAT:??_R3EvnetChildrenDay@@8
rdata$r	ENDS
;	COMDAT ??_7EvnetChildrenDay@@6B@
CONST	SEGMENT
??_7EvnetChildrenDay@@6B@ DD FLAT:??_R4EvnetChildrenDay@@6B@ ; EvnetChildrenDay::`vftable'
	DD	FLAT:?AddRenderFrame@ioWnd@@UAEXABVioHashString@@PAVioUIRenderFrame@@@Z
	DD	FLAT:?AddRenderImage@ioWnd@@UAEXABVioHashString@@PAVioUIRenderImage@@@Z
	DD	FLAT:?AddTooltipHelp@ioWnd@@UAEXABVioHashString@@00@Z
	DD	FLAT:?ParseExtraInfo@ioWnd@@UAEXAAVioXMLElement@@@Z
	DD	FLAT:?AddNamedRenderImage@ioWnd@@UAEXABVioHashString@@PAVioUIRenderImage@@@Z
	DD	FLAT:?RemoveNamedRenderImage@ioWnd@@UAEXABVioHashString@@@Z
	DD	FLAT:?GetNamedRenderImage@ioWnd@@UBEPAVioUIRenderImage@@ABVioHashString@@@Z
	DD	FLAT:?SetWindowAlpha@ioWnd@@UAEXH@Z
	DD	FLAT:?SetActive@ioWnd@@UAEXXZ
	DD	FLAT:?SetInActive@ioWnd@@UAEXXZ
	DD	FLAT:?ClearElementImageList@ioWnd@@UAEXXZ
	DD	FLAT:?SetSize@ioWnd@@UAEXHH@Z
	DD	FLAT:?SetPositionToDefault@ioWnd@@UAEXHH_N0@Z
	DD	FLAT:?IsNeedProcess@ioWnd@@UBE_NXZ
	DD	FLAT:?IsCanMouseReaction@ioWnd@@UBE_NXZ
	DD	FLAT:?AddChild@ioWnd@@UAEXPAV1@@Z
	DD	FLAT:?DeleteChild@ioWnd@@UAEXK@Z
	DD	FLAT:?DeleteAllChild@ioWnd@@UAEXXZ
	DD	FLAT:?OnRenderShowAndHide@ioWnd@@MAE_NXZ
	DD	FLAT:?OnRenderShowAndHideByDefault@ioWnd@@MAE_NK@Z
	DD	FLAT:?OnRenderShowAndHideByTop@ioWnd@@MAE_NK@Z
	DD	FLAT:?OnRenderShowAndHideByDown@ioWnd@@MAE_NK@Z
	DD	FLAT:?OnRender@EvnetChildrenDay@@MAEXXZ
	DD	FLAT:?OnRenderAfterChild@ioWnd@@MAEXXZ
	DD	FLAT:?OnProcess@EvnetChildrenDay@@MAEXM@Z
	DD	FLAT:?OnMouseProcess@ioWnd@@MAEXABVioMouse@@@Z
	DD	FLAT:?CheckFrameReSize@ioWnd@@MAEXHHHH@Z
	DD	FLAT:?RenderImageList@ioWnd@@MAEXHHW4UIRenderType@@@Z
	DD	FLAT:?iwm_create@ioWnd@@UAEXXZ
	DD	FLAT:?iwm_destroy@ioWnd@@UAEXXZ
	DD	FLAT:?iwm_lbuttondown@ioWnd@@UAEXABVioMouse@@@Z
	DD	FLAT:?iwm_lbuttonup@ioWnd@@UAEXABVioMouse@@@Z
	DD	FLAT:?iwm_lbuttonDBLCLK@ioWnd@@UAEXABVioMouse@@@Z
	DD	FLAT:?iwm_rbuttondown@ioWnd@@UAEXABVioMouse@@@Z
	DD	FLAT:?iwm_rbuttonup@ioWnd@@UAEXABVioMouse@@@Z
	DD	FLAT:?iwm_command@EvnetChildrenDay@@UAEXPAVioWnd@@HK@Z
	DD	FLAT:?iwm_mouseover@ioWnd@@UAEXABVioMouse@@@Z
	DD	FLAT:?iwm_mousemove@ioWnd@@UAEXABVioMouse@@@Z
	DD	FLAT:?iwm_mouseleave@ioWnd@@UAEXABVioMouse@@@Z
	DD	FLAT:?iwm_vscroll@ioWnd@@UAEXKH@Z
	DD	FLAT:?iwm_wheel@ioWnd@@UAEXH@Z
	DD	FLAT:?iwm_show@ioWnd@@UAEXXZ
	DD	FLAT:?iwm_hide@ioWnd@@UAEXXZ
	DD	FLAT:?iwm_esc@ioWnd@@UAE_NXZ
	DD	FLAT:?iwm_spacebar@EvnetChildrenDay@@UAE_NXZ
	DD	FLAT:?iwm_gototop@ioWnd@@UAEXXZ
	DD	FLAT:?iwm_dragenter@ioWnd@@UAE?AW4IWDropEffect@@PAVioDragItem@@ABVioMouse@@@Z
	DD	FLAT:?iwm_dragover@ioWnd@@UAE?AW4IWDropEffect@@PAVioDragItem@@ABVioMouse@@@Z
	DD	FLAT:?iwm_dragleave@ioWnd@@UAEXXZ
	DD	FLAT:?iwm_dropitem@ioWnd@@UAE_NPAVioDragItem@@ABVioMouse@@PAV1@@Z
	DD	FLAT:?iwm_dropdone@ioWnd@@UAEXPAVioDragItem@@PAV1@_N@Z
	DD	FLAT:?IsEXType@ioWnd@@UBE_NXZ
	DD	FLAT:?GetWndType@ioWnd@@UBEKXZ
	DD	FLAT:?RenderWnd@ioWnd@@UAEXXZ
	DD	FLAT:?SetIDEX@ioWnd@@UAEXAAK_N@Z
	DD	FLAT:?ParseXML@ioWnd@@UAEXAAVioXMLElement@@@Z
	DD	FLAT:?GetHeaderFileName@ioWnd@@UAEPBDXZ
	DD	FLAT:?GetTemplateName@ioWnd@@UAEPBDXZ
	DD	FLAT:?GetDefClassName@ioWnd@@UBEPBDXZ
	DD	FLAT:?_Clone@ioWnd@@UAEPAV1@XZ
	DD	FLAT:?Copy@ioWnd@@UAEXPAV1@@Z
	DD	FLAT:?Save@ioWnd@@UAE_NAAVioXMLElement@@@Z
	DD	FLAT:?SetSaveData@ioWnd@@UAEXAAVioXMLElement@@@Z
	DD	FLAT:?SetPosX@ioWnd@@UAEXH@Z
	DD	FLAT:?SetPosY@ioWnd@@UAEXH@Z
	DD	FLAT:?SetWidth@ioWnd@@UAEXH@Z
	DD	FLAT:?SetHeight@ioWnd@@UAEXH@Z
	DD	FLAT:?GetNumFixedRenderFrame@ioWnd@@UBEHXZ
	DD	FLAT:?GetFixedRenderFrameType@ioWnd@@UAEPBDH@Z
	DD	FLAT:?GetRenderFrame@ioWnd@@UAEPAPAVioUIRenderElement@@PBD@Z
	DD	FLAT:?GetNumFixedRenderImage@ioWnd@@UBEHXZ
	DD	FLAT:?GetFixedRenderImageType@ioWnd@@UAEPBDH@Z
	DD	FLAT:?GetRenderImage@ioWnd@@UAEPAPAVioUIRenderElement@@PBD@Z
	DD	FLAT:?AddEffect@ioWnd@@UAEXABVioHashString@@PAVioUI3DEffectRender@@@Z
	DD	FLAT:?GetEffect@ioWnd@@UAEPAVioUI3DEffectRender@@VioHashString@@@Z
	DD	FLAT:??_EEvnetChildrenDay@@UAEPAXI@Z
; Function compile flags: /Ogsp
CONST	ENDS
;	COMDAT ??0EvnetChildrenDay@@QAE@XZ
_TEXT	SEGMENT
??0EvnetChildrenDay@@QAE@XZ PROC			; EvnetChildrenDay::EvnetChildrenDay, COMDAT
; _this$ = ecx

; 427  : {

  00000	56		 push	 esi
  00001	8b f1		 mov	 esi, ecx
  00003	ff 15 00 00 00
	00		 call	 DWORD PTR __imp_??0ioWnd@@QAE@XZ

; 428  : 	m_pPlayStage = NULL;

  00009	83 a6 60 01 00
	00 00		 and	 DWORD PTR [esi+352], 0
  00010	c7 06 00 00 00
	00		 mov	 DWORD PTR [esi], OFFSET ??_7EvnetChildrenDay@@6B@

; 429  : }

  00016	8b c6		 mov	 eax, esi
  00018	5e		 pop	 esi
  00019	c3		 ret	 0
??0EvnetChildrenDay@@QAE@XZ ENDP			; EvnetChildrenDay::EvnetChildrenDay
_TEXT	ENDS
PUBLIC	??1EvnetChildrenDay@@UAE@XZ			; EvnetChildrenDay::~EvnetChildrenDay
EXTRN	__imp_??1ioWnd@@UAE@XZ:PROC
; Function compile flags: /Ogsp
;	COMDAT ??1EvnetChildrenDay@@UAE@XZ
_TEXT	SEGMENT
??1EvnetChildrenDay@@UAE@XZ PROC			; EvnetChildrenDay::~EvnetChildrenDay, COMDAT
; _this$ = ecx

; 432  : {

  00000	c7 01 00 00 00
	00		 mov	 DWORD PTR [ecx], OFFSET ??_7EvnetChildrenDay@@6B@

; 433  : 
; 434  : }

  00006	ff 25 00 00 00
	00		 jmp	 DWORD PTR __imp_??1ioWnd@@UAE@XZ
??1EvnetChildrenDay@@UAE@XZ ENDP			; EvnetChildrenDay::~EvnetChildrenDay
_TEXT	ENDS
PUBLIC	__real@3f266666
PUBLIC	??_C@_0BL@NLNAJGKP@EvnetChildrenDay?3?3OnRender?$AA@ ; `string'
EXTRN	__imp_?PrintText@ioFontManager@@QAAXMMMPBDZZ:PROC
EXTRN	__imp_?SetTextColor@ioFontManager@@QAEXK@Z:PROC
EXTRN	__imp_?SetBkColor@ioFontManager@@QAEXHHH@Z:PROC
EXTRN	__imp_?SetAlignType@ioFontManager@@QAEXW4TextAlignType@@@Z:PROC
EXTRN	__imp_?SetTextStyle@ioFontManager@@QAEXW4TextStyle@@@Z:PROC
EXTRN	__imp_?GetSingleton@ioFontManager@@SAAAV1@XZ:PROC
;	COMDAT __real@3f266666
CONST	SEGMENT
__real@3f266666 DD 03f266666r			; 0.65
CONST	ENDS
;	COMDAT ??_C@_0BL@NLNAJGKP@EvnetChildrenDay?3?3OnRender?$AA@
CONST	SEGMENT
??_C@_0BL@NLNAJGKP@EvnetChildrenDay?3?3OnRender?$AA@ DB 'EvnetChildrenDay'
	DB	'::OnRender', 00H				; `string'
; Function compile flags: /Ogsp
CONST	ENDS
;	COMDAT ?OnRender@EvnetChildrenDay@@MAEXXZ
_TEXT	SEGMENT
tv227 = -8						; size = 4
_iYPos$ = -4						; size = 4
?OnRender@EvnetChildrenDay@@MAEXXZ PROC			; EvnetChildrenDay::OnRender, COMDAT
; _this$ = ecx

; 464  : {

  00000	55		 push	 ebp
  00001	8b ec		 mov	 ebp, esp
  00003	51		 push	 ecx
  00004	51		 push	 ecx
  00005	53		 push	 ebx
  00006	56		 push	 esi
  00007	57		 push	 edi
  00008	8b f1		 mov	 esi, ecx

; 465  : 	ioWnd::OnRender();

  0000a	ff 15 00 00 00
	00		 call	 DWORD PTR __imp_?OnRender@ioWnd@@MAEXXZ

; 466  : 
; 467  : 	int iXPos, iYPos;
; 468  : 	iXPos = GetDerivedPosX();

  00010	8b ce		 mov	 ecx, esi
  00012	ff 15 00 00 00
	00		 call	 DWORD PTR __imp_?GetDerivedPosX@ioWnd@@QBEHXZ

; 469  : 	iYPos = GetDerivedPosY();

  00018	8b ce		 mov	 ecx, esi
  0001a	8b f8		 mov	 edi, eax
  0001c	ff 15 00 00 00
	00		 call	 DWORD PTR __imp_?GetDerivedPosY@ioWnd@@QBEHXZ

; 470  : 
; 471  : 	g_FontMgr.SetTextStyle( TS_OUTLINE_FULL_2X );

  00022	8b 35 00 00 00
	00		 mov	 esi, DWORD PTR __imp_?GetSingleton@ioFontManager@@SAAAV1@XZ
  00028	6a 05		 push	 5
  0002a	89 45 fc	 mov	 DWORD PTR _iYPos$[ebp], eax
  0002d	ff d6		 call	 esi
  0002f	8b c8		 mov	 ecx, eax
  00031	ff 15 00 00 00
	00		 call	 DWORD PTR __imp_?SetTextStyle@ioFontManager@@QAEXW4TextStyle@@@Z

; 472  : 	g_FontMgr.SetAlignType( TAT_LEFT );

  00037	33 db		 xor	 ebx, ebx
  00039	53		 push	 ebx
  0003a	ff d6		 call	 esi
  0003c	8b c8		 mov	 ecx, eax
  0003e	ff 15 00 00 00
	00		 call	 DWORD PTR __imp_?SetAlignType@ioFontManager@@QAEXW4TextAlignType@@@Z

; 473  : 	g_FontMgr.SetBkColor( 0, 0, 0 );

  00044	53		 push	 ebx
  00045	53		 push	 ebx
  00046	53		 push	 ebx
  00047	ff d6		 call	 esi
  00049	8b c8		 mov	 ecx, eax
  0004b	ff 15 00 00 00
	00		 call	 DWORD PTR __imp_?SetBkColor@ioFontManager@@QAEXHHH@Z

; 474  : 	g_FontMgr.SetTextColor( TCT_DEFAULT_GRAY );

  00051	68 6e 6e 6e ff	 push	 -9539986		; ff6e6e6eH
  00056	ff d6		 call	 esi
  00058	8b c8		 mov	 ecx, eax
  0005a	ff 15 00 00 00
	00		 call	 DWORD PTR __imp_?SetTextColor@ioFontManager@@QAEXK@Z

; 475  : 
; 476  : 	g_FontMgr.PrintText( iXPos + 18, iYPos + 266, FONT_SIZE_13, STR(1) );

  00060	53		 push	 ebx
  00061	6a 01		 push	 1
  00063	83 c7 12	 add	 edi, 18			; 00000012H
  00066	0f 57 c0	 xorps	 xmm0, xmm0
  00069	f3 0f 2a c7	 cvtsi2ss xmm0, edi
  0006d	8b 3d 00 00 00
	00		 mov	 edi, DWORD PTR __imp_?GetSingleton@ioStringManager@@SAAAV1@XZ
  00073	68 00 00 00 00	 push	 OFFSET ??_C@_00CNPNBAHC@?$AA@
  00078	68 00 00 00 00	 push	 OFFSET ??_C@_0BL@NLNAJGKP@EvnetChildrenDay?3?3OnRender?$AA@
  0007d	f3 0f 11 45 f8	 movss	 DWORD PTR tv227[ebp], xmm0
  00082	ff d7		 call	 edi
  00084	8b 1d 00 00 00
	00		 mov	 ebx, DWORD PTR __imp_?GetString@ioStringManager@@QAEPADPBD0HW4FileNamePrefix@1@@Z
  0008a	8b c8		 mov	 ecx, eax
  0008c	ff d3		 call	 ebx
  0008e	f3 0f 10 05 00
	00 00 00	 movss	 xmm0, DWORD PTR __real@3f266666
  00096	50		 push	 eax
  00097	8b 45 fc	 mov	 eax, DWORD PTR _iYPos$[ebp]
  0009a	83 ec 0c	 sub	 esp, 12			; 0000000cH
  0009d	f3 0f 11 44 24
	08		 movss	 DWORD PTR [esp+8], xmm0
  000a3	05 0a 01 00 00	 add	 eax, 266		; 0000010aH
  000a8	0f 57 c0	 xorps	 xmm0, xmm0
  000ab	f3 0f 2a c0	 cvtsi2ss xmm0, eax
  000af	f3 0f 11 44 24
	04		 movss	 DWORD PTR [esp+4], xmm0
  000b5	f3 0f 10 45 f8	 movss	 xmm0, DWORD PTR tv227[ebp]
  000ba	f3 0f 11 04 24	 movss	 DWORD PTR [esp], xmm0
  000bf	ff d6		 call	 esi
  000c1	50		 push	 eax
  000c2	ff 15 00 00 00
	00		 call	 DWORD PTR __imp_?PrintText@ioFontManager@@QAAXMMMPBDZZ
  000c8	83 c4 14	 add	 esp, 20			; 00000014H

; 477  : 	g_FontMgr.PrintText( iXPos + 18, iYPos + 286, FONT_SIZE_13, STR(2) );

  000cb	6a 00		 push	 0
  000cd	6a 02		 push	 2
  000cf	68 00 00 00 00	 push	 OFFSET ??_C@_00CNPNBAHC@?$AA@
  000d4	68 00 00 00 00	 push	 OFFSET ??_C@_0BL@NLNAJGKP@EvnetChildrenDay?3?3OnRender?$AA@
  000d9	ff d7		 call	 edi
  000db	8b c8		 mov	 ecx, eax
  000dd	ff d3		 call	 ebx
  000df	f3 0f 10 05 00
	00 00 00	 movss	 xmm0, DWORD PTR __real@3f266666
  000e7	50		 push	 eax
  000e8	8b 45 fc	 mov	 eax, DWORD PTR _iYPos$[ebp]
  000eb	83 ec 0c	 sub	 esp, 12			; 0000000cH
  000ee	f3 0f 11 44 24
	08		 movss	 DWORD PTR [esp+8], xmm0
  000f4	05 1e 01 00 00	 add	 eax, 286		; 0000011eH
  000f9	0f 57 c0	 xorps	 xmm0, xmm0
  000fc	f3 0f 2a c0	 cvtsi2ss xmm0, eax
  00100	f3 0f 11 44 24
	04		 movss	 DWORD PTR [esp+4], xmm0
  00106	f3 0f 10 45 f8	 movss	 xmm0, DWORD PTR tv227[ebp]
  0010b	f3 0f 11 04 24	 movss	 DWORD PTR [esp], xmm0
  00110	ff d6		 call	 esi
  00112	50		 push	 eax
  00113	ff 15 00 00 00
	00		 call	 DWORD PTR __imp_?PrintText@ioFontManager@@QAAXMMMPBDZZ
  00119	83 c4 14	 add	 esp, 20			; 00000014H

; 478  : 	g_FontMgr.PrintText( iXPos + 18, iYPos + 306, FONT_SIZE_13, STR(3) );

  0011c	6a 00		 push	 0
  0011e	6a 03		 push	 3
  00120	68 00 00 00 00	 push	 OFFSET ??_C@_00CNPNBAHC@?$AA@
  00125	68 00 00 00 00	 push	 OFFSET ??_C@_0BL@NLNAJGKP@EvnetChildrenDay?3?3OnRender?$AA@
  0012a	ff d7		 call	 edi
  0012c	8b c8		 mov	 ecx, eax
  0012e	ff d3		 call	 ebx
  00130	f3 0f 10 05 00
	00 00 00	 movss	 xmm0, DWORD PTR __real@3f266666
  00138	50		 push	 eax
  00139	8b 45 fc	 mov	 eax, DWORD PTR _iYPos$[ebp]
  0013c	83 ec 0c	 sub	 esp, 12			; 0000000cH
  0013f	f3 0f 11 44 24
	08		 movss	 DWORD PTR [esp+8], xmm0
  00145	05 32 01 00 00	 add	 eax, 306		; 00000132H
  0014a	0f 57 c0	 xorps	 xmm0, xmm0
  0014d	f3 0f 2a c0	 cvtsi2ss xmm0, eax
  00151	f3 0f 11 44 24
	04		 movss	 DWORD PTR [esp+4], xmm0
  00157	f3 0f 10 45 f8	 movss	 xmm0, DWORD PTR tv227[ebp]
  0015c	f3 0f 11 04 24	 movss	 DWORD PTR [esp], xmm0
  00161	ff d6		 call	 esi
  00163	50		 push	 eax
  00164	ff 15 00 00 00
	00		 call	 DWORD PTR __imp_?PrintText@ioFontManager@@QAAXMMMPBDZZ
  0016a	83 c4 14	 add	 esp, 20			; 00000014H

; 479  : 
; 480  : 	g_FontMgr.SetTextColor( TCT_DEFAULT_DARKGRAY ); // 주황

  0016d	68 3a 3a 3a ff	 push	 -12961222		; ff3a3a3aH
  00172	ff d6		 call	 esi
  00174	8b c8		 mov	 ecx, eax
  00176	ff 15 00 00 00
	00		 call	 DWORD PTR __imp_?SetTextColor@ioFontManager@@QAEXK@Z

; 481  : 	g_FontMgr.PrintText( iXPos + 18, iYPos + 326, FONT_SIZE_13, STR(4) );

  0017c	6a 00		 push	 0
  0017e	6a 04		 push	 4
  00180	68 00 00 00 00	 push	 OFFSET ??_C@_00CNPNBAHC@?$AA@
  00185	68 00 00 00 00	 push	 OFFSET ??_C@_0BL@NLNAJGKP@EvnetChildrenDay?3?3OnRender?$AA@
  0018a	ff d7		 call	 edi
  0018c	8b c8		 mov	 ecx, eax
  0018e	ff d3		 call	 ebx
  00190	f3 0f 10 05 00
	00 00 00	 movss	 xmm0, DWORD PTR __real@3f266666
  00198	50		 push	 eax
  00199	8b 45 fc	 mov	 eax, DWORD PTR _iYPos$[ebp]
  0019c	83 ec 0c	 sub	 esp, 12			; 0000000cH
  0019f	f3 0f 11 44 24
	08		 movss	 DWORD PTR [esp+8], xmm0
  001a5	05 46 01 00 00	 add	 eax, 326		; 00000146H
  001aa	0f 57 c0	 xorps	 xmm0, xmm0
  001ad	f3 0f 2a c0	 cvtsi2ss xmm0, eax
  001b1	f3 0f 11 44 24
	04		 movss	 DWORD PTR [esp+4], xmm0
  001b7	f3 0f 10 45 f8	 movss	 xmm0, DWORD PTR tv227[ebp]
  001bc	f3 0f 11 04 24	 movss	 DWORD PTR [esp], xmm0
  001c1	ff d6		 call	 esi
  001c3	50		 push	 eax
  001c4	ff 15 00 00 00
	00		 call	 DWORD PTR __imp_?PrintText@ioFontManager@@QAAXMMMPBDZZ
  001ca	83 c4 14	 add	 esp, 20			; 00000014H
  001cd	5f		 pop	 edi
  001ce	5e		 pop	 esi
  001cf	5b		 pop	 ebx

; 482  : }

  001d0	c9		 leave
  001d1	c3		 ret	 0
?OnRender@EvnetChildrenDay@@MAEXXZ ENDP			; EvnetChildrenDay::OnRender
_TEXT	ENDS
EXTRN	__imp_?ShowWnd@ioWnd@@QAEXXZ:PROC
EXTRN	?IsAlive@ioEventManager@@QAE_NW4EventType@@W4ChannelingType@@@Z:PROC ; ioEventManager::IsAlive
EXTRN	?GetSingleton@ioEventManager@@SAAAV1@XZ:PROC	; ioEventManager::GetSingleton
EXTRN	?GetChannelingType@ioMyInfo@@QBE?AW4ChannelingType@@XZ:PROC ; ioMyInfo::GetChannelingType
EXTRN	?GetSingleton@ioMyInfo@@SAAAV1@XZ:PROC		; ioMyInfo::GetSingleton
; Function compile flags: /Ogsp
;	COMDAT ?OnProcess@EvnetChildrenDay@@MAEXM@Z
_TEXT	SEGMENT
_fTimePerSec$ = 8					; size = 4
?OnProcess@EvnetChildrenDay@@MAEXM@Z PROC		; EvnetChildrenDay::OnProcess, COMDAT
; _this$ = ecx

; 486  : 	if( m_bAutoShow && !IsShow() )

  00000	80 3d 00 00 00
	00 00		 cmp	 BYTE PTR ?m_bAutoShow@EvnetChildrenDay@@1_NA, 0 ; EvnetChildrenDay::m_bAutoShow
  00007	56		 push	 esi
  00008	8b f1		 mov	 esi, ecx
  0000a	74 38		 je	 SHORT $LN2@OnProcess
  0000c	ff 15 00 00 00
	00		 call	 DWORD PTR __imp_?IsShow@ioWnd@@QBE_NXZ
  00012	84 c0		 test	 al, al
  00014	75 2e		 jne	 SHORT $LN2@OnProcess

; 487  : 	{
; 488  : 		if( !g_EventMgr.IsAlive( EVT_CHILDRENDAY, g_MyInfo.GetChannelingType() ) )

  00016	e8 00 00 00 00	 call	 ?GetSingleton@ioMyInfo@@SAAAV1@XZ ; ioMyInfo::GetSingleton
  0001b	8b c8		 mov	 ecx, eax
  0001d	e8 00 00 00 00	 call	 ?GetChannelingType@ioMyInfo@@QBE?AW4ChannelingType@@XZ ; ioMyInfo::GetChannelingType
  00022	50		 push	 eax
  00023	6a 06		 push	 6
  00025	e8 00 00 00 00	 call	 ?GetSingleton@ioEventManager@@SAAAV1@XZ ; ioEventManager::GetSingleton
  0002a	8b c8		 mov	 ecx, eax
  0002c	e8 00 00 00 00	 call	 ?IsAlive@ioEventManager@@QAE_NW4EventType@@W4ChannelingType@@@Z ; ioEventManager::IsAlive
  00031	84 c0		 test	 al, al

; 489  : 		{
; 490  : 			m_bAutoShow = false;
; 491  : 			return;

  00033	74 08		 je	 SHORT $LN5@OnProcess

; 492  : 		}
; 493  : 
; 494  : 		ShowWnd();

  00035	8b ce		 mov	 ecx, esi
  00037	ff 15 00 00 00
	00		 call	 DWORD PTR __imp_?ShowWnd@ioWnd@@QAEXXZ
$LN5@OnProcess:

; 495  : 		m_bAutoShow = false;

  0003d	c6 05 00 00 00
	00 00		 mov	 BYTE PTR ?m_bAutoShow@EvnetChildrenDay@@1_NA, 0 ; EvnetChildrenDay::m_bAutoShow
$LN2@OnProcess:
  00044	5e		 pop	 esi

; 496  : 	}
; 497  : }

  00045	c2 04 00	 ret	 4
?OnProcess@EvnetChildrenDay@@MAEXM@Z ENDP		; EvnetChildrenDay::OnProcess
; Function compile flags: /Ogsp
_TEXT	ENDS
;	COMDAT ?iwm_spacebar@EvnetChildrenDay@@UAE_NXZ
_TEXT	SEGMENT
?iwm_spacebar@EvnetChildrenDay@@UAE_NXZ PROC		; EvnetChildrenDay::iwm_spacebar, COMDAT
; _this$ = ecx

; 500  : {

  00000	56		 push	 esi
  00001	57		 push	 edi

; 501  : 	ioWnd *pBtn = FindChildWnd( ID_ACTION );

  00002	6a 03		 push	 3
  00004	8b f1		 mov	 esi, ecx
  00006	ff 15 00 00 00
	00		 call	 DWORD PTR __imp_?FindChildWnd@ioWnd@@QAEPAV1@K@Z
  0000c	8b f8		 mov	 edi, eax

; 502  : 	if( !pBtn ) return false;

  0000e	85 ff		 test	 edi, edi
  00010	75 04		 jne	 SHORT $LN2@iwm_spaceb@2
$LN5@iwm_spaceb@2:
  00012	32 c0		 xor	 al, al
  00014	eb 1d		 jmp	 SHORT $LN3@iwm_spaceb@2
$LN2@iwm_spaceb@2:

; 503  : 	if( !pBtn->IsShow() ) return false;

  00016	8b cf		 mov	 ecx, edi
  00018	ff 15 00 00 00
	00		 call	 DWORD PTR __imp_?IsShow@ioWnd@@QBE_NXZ
  0001e	84 c0		 test	 al, al
  00020	74 f0		 je	 SHORT $LN5@iwm_spaceb@2

; 504  : 
; 505  : 	iwm_command( pBtn, IOBN_BTNUP, 0 );

  00022	8b 06		 mov	 eax, DWORD PTR [esi]
  00024	6a 00		 push	 0
  00026	6a 11		 push	 17			; 00000011H
  00028	57		 push	 edi
  00029	8b ce		 mov	 ecx, esi
  0002b	ff 90 8c 00 00
	00		 call	 DWORD PTR [eax+140]

; 506  : 	return true;

  00031	b0 01		 mov	 al, 1
$LN3@iwm_spaceb@2:

; 507  : }

  00033	5f		 pop	 edi
  00034	5e		 pop	 esi
  00035	c3		 ret	 0
?iwm_spacebar@EvnetChildrenDay@@UAE_NXZ ENDP		; EvnetChildrenDay::iwm_spacebar
_TEXT	ENDS
PUBLIC	?SetPlayStage@EvnetChildrenDay@@QAEXPAVioPlayStage@@@Z ; EvnetChildrenDay::SetPlayStage
; Function compile flags: /Ogsp
;	COMDAT ?SetPlayStage@EvnetChildrenDay@@QAEXPAVioPlayStage@@@Z
_TEXT	SEGMENT
_pPlayStage$ = 8					; size = 4
?SetPlayStage@EvnetChildrenDay@@QAEXPAVioPlayStage@@@Z PROC ; EvnetChildrenDay::SetPlayStage, COMDAT
; _this$ = ecx

; 510  : {

  00000	55		 push	 ebp
  00001	8b ec		 mov	 ebp, esp

; 511  : 	m_pPlayStage = pPlayStage;

  00003	8b 45 08	 mov	 eax, DWORD PTR _pPlayStage$[ebp]
  00006	89 81 60 01 00
	00		 mov	 DWORD PTR [ecx+352], eax

; 512  : }

  0000c	5d		 pop	 ebp
  0000d	c2 04 00	 ret	 4
?SetPlayStage@EvnetChildrenDay@@QAEXPAVioPlayStage@@@Z ENDP ; EvnetChildrenDay::SetPlayStage
_TEXT	ENDS
PUBLIC	??_7EventMortMainWnd@@6B@			; EventMortMainWnd::`vftable'
PUBLIC	??0EventMortMainWnd@@QAE@XZ			; EventMortMainWnd::EventMortMainWnd
PUBLIC	??_R4EventMortMainWnd@@6B@			; EventMortMainWnd::`RTTI Complete Object Locator'
PUBLIC	??_R0?AVEventMortMainWnd@@@8			; EventMortMainWnd `RTTI Type Descriptor'
PUBLIC	??_R3EventMortMainWnd@@8			; EventMortMainWnd::`RTTI Class Hierarchy Descriptor'
PUBLIC	??_R2EventMortMainWnd@@8			; EventMortMainWnd::`RTTI Base Class Array'
PUBLIC	??_R1A@?0A@EA@EventMortMainWnd@@8		; EventMortMainWnd::`RTTI Base Class Descriptor at (0,-1,0,64)'
PUBLIC	?OnRender@EventMortMainWnd@@MAEXXZ		; EventMortMainWnd::OnRender
PUBLIC	?OnProcess@EventMortMainWnd@@MAEXM@Z		; EventMortMainWnd::OnProcess
PUBLIC	?iwm_command@EventMortMainWnd@@UAEXPAVioWnd@@HK@Z ; EventMortMainWnd::iwm_command
PUBLIC	?iwm_hide@EventMortMainWnd@@UAEXXZ		; EventMortMainWnd::iwm_hide
EXTRN	?iwm_spacebar@ioWnd@@UAE_NXZ:PROC		; ioWnd::iwm_spacebar
EXTRN	??_EEventMortMainWnd@@UAEPAXI@Z:PROC		; EventMortMainWnd::`vector deleting destructor'
;	COMDAT ??_R1A@?0A@EA@EventMortMainWnd@@8
rdata$r	SEGMENT
??_R1A@?0A@EA@EventMortMainWnd@@8 DD FLAT:??_R0?AVEventMortMainWnd@@@8 ; EventMortMainWnd::`RTTI Base Class Descriptor at (0,-1,0,64)'
	DD	01H
	DD	00H
	DD	0ffffffffH
	DD	00H
	DD	040H
	DD	FLAT:??_R3EventMortMainWnd@@8
rdata$r	ENDS
;	COMDAT ??_R2EventMortMainWnd@@8
rdata$r	SEGMENT
??_R2EventMortMainWnd@@8 DD FLAT:??_R1A@?0A@EA@EventMortMainWnd@@8 ; EventMortMainWnd::`RTTI Base Class Array'
	DD	FLAT:??_R1A@?0A@EA@ioWnd@@8
rdata$r	ENDS
;	COMDAT ??_R3EventMortMainWnd@@8
rdata$r	SEGMENT
??_R3EventMortMainWnd@@8 DD 00H				; EventMortMainWnd::`RTTI Class Hierarchy Descriptor'
	DD	00H
	DD	02H
	DD	FLAT:??_R2EventMortMainWnd@@8
rdata$r	ENDS
;	COMDAT ??_R0?AVEventMortMainWnd@@@8
_DATA	SEGMENT
??_R0?AVEventMortMainWnd@@@8 DD FLAT:??_7type_info@@6B@	; EventMortMainWnd `RTTI Type Descriptor'
	DD	00H
	DB	'.?AVEventMortMainWnd@@', 00H
_DATA	ENDS
;	COMDAT ??_R4EventMortMainWnd@@6B@
rdata$r	SEGMENT
??_R4EventMortMainWnd@@6B@ DD 00H			; EventMortMainWnd::`RTTI Complete Object Locator'
	DD	00H
	DD	00H
	DD	FLAT:??_R0?AVEventMortMainWnd@@@8
	DD	FLAT:??_R3EventMortMainWnd@@8
rdata$r	ENDS
;	COMDAT ??_7EventMortMainWnd@@6B@
CONST	SEGMENT
??_7EventMortMainWnd@@6B@ DD FLAT:??_R4EventMortMainWnd@@6B@ ; EventMortMainWnd::`vftable'
	DD	FLAT:?AddRenderFrame@ioWnd@@UAEXABVioHashString@@PAVioUIRenderFrame@@@Z
	DD	FLAT:?AddRenderImage@ioWnd@@UAEXABVioHashString@@PAVioUIRenderImage@@@Z
	DD	FLAT:?AddTooltipHelp@ioWnd@@UAEXABVioHashString@@00@Z
	DD	FLAT:?ParseExtraInfo@ioWnd@@UAEXAAVioXMLElement@@@Z
	DD	FLAT:?AddNamedRenderImage@ioWnd@@UAEXABVioHashString@@PAVioUIRenderImage@@@Z
	DD	FLAT:?RemoveNamedRenderImage@ioWnd@@UAEXABVioHashString@@@Z
	DD	FLAT:?GetNamedRenderImage@ioWnd@@UBEPAVioUIRenderImage@@ABVioHashString@@@Z
	DD	FLAT:?SetWindowAlpha@ioWnd@@UAEXH@Z
	DD	FLAT:?SetActive@ioWnd@@UAEXXZ
	DD	FLAT:?SetInActive@ioWnd@@UAEXXZ
	DD	FLAT:?ClearElementImageList@ioWnd@@UAEXXZ
	DD	FLAT:?SetSize@ioWnd@@UAEXHH@Z
	DD	FLAT:?SetPositionToDefault@ioWnd@@UAEXHH_N0@Z
	DD	FLAT:?IsNeedProcess@ioWnd@@UBE_NXZ
	DD	FLAT:?IsCanMouseReaction@ioWnd@@UBE_NXZ
	DD	FLAT:?AddChild@ioWnd@@UAEXPAV1@@Z
	DD	FLAT:?DeleteChild@ioWnd@@UAEXK@Z
	DD	FLAT:?DeleteAllChild@ioWnd@@UAEXXZ
	DD	FLAT:?OnRenderShowAndHide@ioWnd@@MAE_NXZ
	DD	FLAT:?OnRenderShowAndHideByDefault@ioWnd@@MAE_NK@Z
	DD	FLAT:?OnRenderShowAndHideByTop@ioWnd@@MAE_NK@Z
	DD	FLAT:?OnRenderShowAndHideByDown@ioWnd@@MAE_NK@Z
	DD	FLAT:?OnRender@EventMortMainWnd@@MAEXXZ
	DD	FLAT:?OnRenderAfterChild@ioWnd@@MAEXXZ
	DD	FLAT:?OnProcess@EventMortMainWnd@@MAEXM@Z
	DD	FLAT:?OnMouseProcess@ioWnd@@MAEXABVioMouse@@@Z
	DD	FLAT:?CheckFrameReSize@ioWnd@@MAEXHHHH@Z
	DD	FLAT:?RenderImageList@ioWnd@@MAEXHHW4UIRenderType@@@Z
	DD	FLAT:?iwm_create@ioWnd@@UAEXXZ
	DD	FLAT:?iwm_destroy@ioWnd@@UAEXXZ
	DD	FLAT:?iwm_lbuttondown@ioWnd@@UAEXABVioMouse@@@Z
	DD	FLAT:?iwm_lbuttonup@ioWnd@@UAEXABVioMouse@@@Z
	DD	FLAT:?iwm_lbuttonDBLCLK@ioWnd@@UAEXABVioMouse@@@Z
	DD	FLAT:?iwm_rbuttondown@ioWnd@@UAEXABVioMouse@@@Z
	DD	FLAT:?iwm_rbuttonup@ioWnd@@UAEXABVioMouse@@@Z
	DD	FLAT:?iwm_command@EventMortMainWnd@@UAEXPAVioWnd@@HK@Z
	DD	FLAT:?iwm_mouseover@ioWnd@@UAEXABVioMouse@@@Z
	DD	FLAT:?iwm_mousemove@ioWnd@@UAEXABVioMouse@@@Z
	DD	FLAT:?iwm_mouseleave@ioWnd@@UAEXABVioMouse@@@Z
	DD	FLAT:?iwm_vscroll@ioWnd@@UAEXKH@Z
	DD	FLAT:?iwm_wheel@ioWnd@@UAEXH@Z
	DD	FLAT:?iwm_show@ioWnd@@UAEXXZ
	DD	FLAT:?iwm_hide@EventMortMainWnd@@UAEXXZ
	DD	FLAT:?iwm_esc@ioWnd@@UAE_NXZ
	DD	FLAT:?iwm_spacebar@ioWnd@@UAE_NXZ
	DD	FLAT:?iwm_gototop@ioWnd@@UAEXXZ
	DD	FLAT:?iwm_dragenter@ioWnd@@UAE?AW4IWDropEffect@@PAVioDragItem@@ABVioMouse@@@Z
	DD	FLAT:?iwm_dragover@ioWnd@@UAE?AW4IWDropEffect@@PAVioDragItem@@ABVioMouse@@@Z
	DD	FLAT:?iwm_dragleave@ioWnd@@UAEXXZ
	DD	FLAT:?iwm_dropitem@ioWnd@@UAE_NPAVioDragItem@@ABVioMouse@@PAV1@@Z
	DD	FLAT:?iwm_dropdone@ioWnd@@UAEXPAVioDragItem@@PAV1@_N@Z
	DD	FLAT:?IsEXType@ioWnd@@UBE_NXZ
	DD	FLAT:?GetWndType@ioWnd@@UBEKXZ
	DD	FLAT:?RenderWnd@ioWnd@@UAEXXZ
	DD	FLAT:?SetIDEX@ioWnd@@UAEXAAK_N@Z
	DD	FLAT:?ParseXML@ioWnd@@UAEXAAVioXMLElement@@@Z
	DD	FLAT:?GetHeaderFileName@ioWnd@@UAEPBDXZ
	DD	FLAT:?GetTemplateName@ioWnd@@UAEPBDXZ
	DD	FLAT:?GetDefClassName@ioWnd@@UBEPBDXZ
	DD	FLAT:?_Clone@ioWnd@@UAEPAV1@XZ
	DD	FLAT:?Copy@ioWnd@@UAEXPAV1@@Z
	DD	FLAT:?Save@ioWnd@@UAE_NAAVioXMLElement@@@Z
	DD	FLAT:?SetSaveData@ioWnd@@UAEXAAVioXMLElement@@@Z
	DD	FLAT:?SetPosX@ioWnd@@UAEXH@Z
	DD	FLAT:?SetPosY@ioWnd@@UAEXH@Z
	DD	FLAT:?SetWidth@ioWnd@@UAEXH@Z
	DD	FLAT:?SetHeight@ioWnd@@UAEXH@Z
	DD	FLAT:?GetNumFixedRenderFrame@ioWnd@@UBEHXZ
	DD	FLAT:?GetFixedRenderFrameType@ioWnd@@UAEPBDH@Z
	DD	FLAT:?GetRenderFrame@ioWnd@@UAEPAPAVioUIRenderElement@@PBD@Z
	DD	FLAT:?GetNumFixedRenderImage@ioWnd@@UBEHXZ
	DD	FLAT:?GetFixedRenderImageType@ioWnd@@UAEPBDH@Z
	DD	FLAT:?GetRenderImage@ioWnd@@UAEPAPAVioUIRenderElement@@PBD@Z
	DD	FLAT:?AddEffect@ioWnd@@UAEXABVioHashString@@PAVioUI3DEffectRender@@@Z
	DD	FLAT:?GetEffect@ioWnd@@UAEPAVioUI3DEffectRender@@VioHashString@@@Z
	DD	FLAT:??_EEventMortMainWnd@@UAEPAXI@Z
; Function compile flags: /Ogsp
CONST	ENDS
;	COMDAT ??0EventMortMainWnd@@QAE@XZ
_TEXT	SEGMENT
??0EventMortMainWnd@@QAE@XZ PROC			; EventMortMainWnd::EventMortMainWnd, COMDAT
; _this$ = ecx

; 516  : {

  00000	56		 push	 esi
  00001	8b f1		 mov	 esi, ecx
  00003	ff 15 00 00 00
	00		 call	 DWORD PTR __imp_??0ioWnd@@QAE@XZ
  00009	c7 06 00 00 00
	00		 mov	 DWORD PTR [esi], OFFSET ??_7EventMortMainWnd@@6B@

; 517  : 	sg_bBonusPeso = false;
; 518  : }

  0000f	8b c6		 mov	 eax, esi
  00011	c6 05 00 00 00
	00 00		 mov	 BYTE PTR ?sg_bBonusPeso@EventMortMainWnd@@1_NA, 0 ; EventMortMainWnd::sg_bBonusPeso
  00018	5e		 pop	 esi
  00019	c3		 ret	 0
??0EventMortMainWnd@@QAE@XZ ENDP			; EventMortMainWnd::EventMortMainWnd
_TEXT	ENDS
PUBLIC	??1EventMortMainWnd@@UAE@XZ			; EventMortMainWnd::~EventMortMainWnd
; Function compile flags: /Ogsp
;	COMDAT ??1EventMortMainWnd@@UAE@XZ
_TEXT	SEGMENT
??1EventMortMainWnd@@UAE@XZ PROC			; EventMortMainWnd::~EventMortMainWnd, COMDAT
; _this$ = ecx

; 521  : {

  00000	c7 01 00 00 00
	00		 mov	 DWORD PTR [ecx], OFFSET ??_7EventMortMainWnd@@6B@

; 522  : 
; 523  : }

  00006	ff 25 00 00 00
	00		 jmp	 DWORD PTR __imp_??1ioWnd@@UAE@XZ
??1EventMortMainWnd@@UAE@XZ ENDP			; EventMortMainWnd::~EventMortMainWnd
; Function compile flags: /Ogsp
_TEXT	ENDS
;	COMDAT ?iwm_hide@EventMortMainWnd@@UAEXXZ
_TEXT	SEGMENT
?iwm_hide@EventMortMainWnd@@UAEXXZ PROC			; EventMortMainWnd::iwm_hide, COMDAT
; _this$ = ecx

; 527  : 	sg_bBonusPeso = false;

  00000	c6 05 00 00 00
	00 00		 mov	 BYTE PTR ?sg_bBonusPeso@EventMortMainWnd@@1_NA, 0 ; EventMortMainWnd::sg_bBonusPeso

; 528  : }

  00007	c3		 ret	 0
?iwm_hide@EventMortMainWnd@@UAEXXZ ENDP			; EventMortMainWnd::iwm_hide
_TEXT	ENDS
EXTRN	__imp_?HideWnd@ioWnd@@QAEXXZ:PROC
EXTRN	__imp_?GetID@ioWnd@@QBEKXZ:PROC
; Function compile flags: /Ogsp
;	COMDAT ?iwm_command@EventMortMainWnd@@UAEXPAVioWnd@@HK@Z
_TEXT	SEGMENT
_pWnd$ = 8						; size = 4
_cmd$ = 12						; size = 4
_param$ = 16						; size = 4
?iwm_command@EventMortMainWnd@@UAEXPAVioWnd@@HK@Z PROC	; EventMortMainWnd::iwm_command, COMDAT
; _this$ = ecx

; 531  : {

  00000	55		 push	 ebp
  00001	8b ec		 mov	 ebp, esp
  00003	56		 push	 esi
  00004	8b f1		 mov	 esi, ecx

; 532  : 	DWORD dwID = pWnd->GetID();

  00006	8b 4d 08	 mov	 ecx, DWORD PTR _pWnd$[ebp]
  00009	ff 15 00 00 00
	00		 call	 DWORD PTR __imp_?GetID@ioWnd@@QBEKXZ

; 533  : 	switch( dwID )

  0000f	48		 dec	 eax
  00010	83 f8 01	 cmp	 eax, 1
  00013	77 0e		 ja	 SHORT $LN1@iwm_comman

; 534  : 	{
; 535  : 	case ID_EXIT:
; 536  : 	case ID_OK:
; 537  : 		if( cmd == IOBN_BTNUP )

  00015	83 7d 0c 11	 cmp	 DWORD PTR _cmd$[ebp], 17 ; 00000011H
  00019	75 08		 jne	 SHORT $LN1@iwm_comman

; 538  : 		{
; 539  : 			HideWnd();

  0001b	8b ce		 mov	 ecx, esi
  0001d	ff 15 00 00 00
	00		 call	 DWORD PTR __imp_?HideWnd@ioWnd@@QAEXXZ
$LN1@iwm_comman:
  00023	5e		 pop	 esi

; 540  : 		}
; 541  : 		break;
; 542  : 	}
; 543  : }

  00024	5d		 pop	 ebp
  00025	c2 0c 00	 ret	 12			; 0000000cH
?iwm_command@EventMortMainWnd@@UAEXPAVioWnd@@HK@Z ENDP	; EventMortMainWnd::iwm_command
_TEXT	ENDS
EXTRN	__imp_?IsShow@ioGUIManager@@QAE_NK@Z:PROC
EXTRN	?GetSingleton@ioSP2GUIManager@@SAAAV1@XZ:PROC	; ioSP2GUIManager::GetSingleton
; Function compile flags: /Ogsp
;	COMDAT ?OnProcess@EventMortMainWnd@@MAEXM@Z
_TEXT	SEGMENT
_fTimePerSec$ = 8					; size = 4
?OnProcess@EventMortMainWnd@@MAEXM@Z PROC		; EventMortMainWnd::OnProcess, COMDAT
; _this$ = ecx

; 546  : {

  00000	56		 push	 esi
  00001	8b f1		 mov	 esi, ecx

; 547  : 	if( !IsShow() )

  00003	ff 15 00 00 00
	00		 call	 DWORD PTR __imp_?IsShow@ioWnd@@QBE_NXZ
  00009	84 c0		 test	 al, al
  0000b	75 26		 jne	 SHORT $LN2@OnProcess@2

; 548  : 	{
; 549  : 		if( sg_bBonusPeso )

  0000d	38 05 00 00 00
	00		 cmp	 BYTE PTR ?sg_bBonusPeso@EventMortMainWnd@@1_NA, al ; EventMortMainWnd::sg_bBonusPeso
  00013	74 1e		 je	 SHORT $LN2@OnProcess@2

; 550  : 		{
; 551  : 			if( g_GUIMgr.IsShow( MESSAGE_BOX ) )

  00015	68 10 27 00 00	 push	 10000			; 00002710H
  0001a	e8 00 00 00 00	 call	 ?GetSingleton@ioSP2GUIManager@@SAAAV1@XZ ; ioSP2GUIManager::GetSingleton
  0001f	8b c8		 mov	 ecx, eax
  00021	ff 15 00 00 00
	00		 call	 DWORD PTR __imp_?IsShow@ioGUIManager@@QAE_NK@Z
  00027	84 c0		 test	 al, al
  00029	75 08		 jne	 SHORT $LN2@OnProcess@2

; 552  : 				return;
; 553  : 			ShowWnd();

  0002b	8b ce		 mov	 ecx, esi
  0002d	ff 15 00 00 00
	00		 call	 DWORD PTR __imp_?ShowWnd@ioWnd@@QAEXXZ
$LN2@OnProcess@2:
  00033	5e		 pop	 esi

; 554  : 		}
; 555  : 		return;
; 556  : 	}	
; 557  : }

  00034	c2 04 00	 ret	 4
?OnProcess@EventMortMainWnd@@MAEXM@Z ENDP		; EventMortMainWnd::OnProcess
_TEXT	ENDS
PUBLIC	??_C@_0BL@MLJPFLKL@EventMortMainWnd?3?3OnRender?$AA@ ; `string'
EXTRN	??1ioComplexStringPrinter@@QAE@XZ:PROC		; ioComplexStringPrinter::~ioComplexStringPrinter
EXTRN	?ClearList@ioComplexStringPrinter@@QAEXXZ:PROC	; ioComplexStringPrinter::ClearList
EXTRN	?PrintFullText@ioComplexStringPrinter@@QAEXMMW4TextAlignType@@E@Z:PROC ; ioComplexStringPrinter::PrintFullText
EXTRN	?AddTextPiece@ioComplexStringPrinter@@QAAXMPBDZZ:PROC ; ioComplexStringPrinter::AddTextPiece
EXTRN	?SetBkColor@ioComplexStringPrinter@@QAEXHHH@Z:PROC ; ioComplexStringPrinter::SetBkColor
EXTRN	?SetTextColor@ioComplexStringPrinter@@QAEXK@Z:PROC ; ioComplexStringPrinter::SetTextColor
EXTRN	?SetTextStyle@ioComplexStringPrinter@@QAEXW4TextStyle@@@Z:PROC ; ioComplexStringPrinter::SetTextStyle
EXTRN	??0ioComplexStringPrinter@@QAE@XZ:PROC		; ioComplexStringPrinter::ioComplexStringPrinter
;	COMDAT ??_C@_0BL@MLJPFLKL@EventMortMainWnd?3?3OnRender?$AA@
CONST	SEGMENT
??_C@_0BL@MLJPFLKL@EventMortMainWnd?3?3OnRender?$AA@ DB 'EventMortMainWnd'
	DB	'::OnRender', 00H				; `string'
CONST	ENDS
;	COMDAT xdata$x
xdata$x	SEGMENT
__unwindtable$?OnRender@EventMortMainWnd@@MAEXXZ DD 0ffffffffH
	DD	FLAT:__unwindfunclet$?OnRender@EventMortMainWnd@@MAEXXZ$0
__ehfuncinfo$?OnRender@EventMortMainWnd@@MAEXXZ DD 019930522H
	DD	01H
	DD	FLAT:__unwindtable$?OnRender@EventMortMainWnd@@MAEXXZ
	DD	2 DUP(00H)
	DD	2 DUP(00H)
	DD	00H
	DD	01H
; Function compile flags: /Ogsp
xdata$x	ENDS
;	COMDAT ?OnRender@EventMortMainWnd@@MAEXXZ
_TEXT	SEGMENT
_kPrinter$ = -52					; size = 32
tv195 = -20						; size = 4
_iXPos$ = -20						; size = 4
_iYPos$ = -16						; size = 4
__$EHRec$ = -12						; size = 12
?OnRender@EventMortMainWnd@@MAEXXZ PROC			; EventMortMainWnd::OnRender, COMDAT
; _this$ = ecx

; 560  : {

  00000	6a 28		 push	 40			; 00000028H
  00002	b8 00 00 00 00	 mov	 eax, __ehhandler$?OnRender@EventMortMainWnd@@MAEXXZ
  00007	e8 00 00 00 00	 call	 __EH_prolog3
  0000c	8b f1		 mov	 esi, ecx

; 561  : 	ioWnd::OnRender();

  0000e	ff 15 00 00 00
	00		 call	 DWORD PTR __imp_?OnRender@ioWnd@@MAEXXZ

; 562  : 
; 563  : 	int iXPos, iYPos;
; 564  : 	iXPos = GetDerivedPosX();

  00014	8b ce		 mov	 ecx, esi
  00016	ff 15 00 00 00
	00		 call	 DWORD PTR __imp_?GetDerivedPosX@ioWnd@@QBEHXZ

; 565  : 	iYPos = GetDerivedPosY();

  0001c	8b ce		 mov	 ecx, esi
  0001e	89 45 ec	 mov	 DWORD PTR _iXPos$[ebp], eax
  00021	ff 15 00 00 00
	00		 call	 DWORD PTR __imp_?GetDerivedPosY@ioWnd@@QBEHXZ

; 566  : 
; 567  : 	ioComplexStringPrinter kPrinter;

  00027	8d 4d cc	 lea	 ecx, DWORD PTR _kPrinter$[ebp]
  0002a	89 45 f0	 mov	 DWORD PTR _iYPos$[ebp], eax
  0002d	e8 00 00 00 00	 call	 ??0ioComplexStringPrinter@@QAE@XZ ; ioComplexStringPrinter::ioComplexStringPrinter
  00032	33 f6		 xor	 esi, esi

; 568  : 	kPrinter.SetTextStyle( TS_OUTLINE_FULL_2X );

  00034	6a 05		 push	 5
  00036	8d 4d cc	 lea	 ecx, DWORD PTR _kPrinter$[ebp]
  00039	89 75 fc	 mov	 DWORD PTR __$EHRec$[ebp+8], esi
  0003c	e8 00 00 00 00	 call	 ?SetTextStyle@ioComplexStringPrinter@@QAEXW4TextStyle@@@Z ; ioComplexStringPrinter::SetTextStyle

; 569  : 	kPrinter.SetTextColor( TCT_DEFAULT_DARKGRAY );	

  00041	68 3a 3a 3a ff	 push	 -12961222		; ff3a3a3aH
  00046	8d 4d cc	 lea	 ecx, DWORD PTR _kPrinter$[ebp]
  00049	e8 00 00 00 00	 call	 ?SetTextColor@ioComplexStringPrinter@@QAEXK@Z ; ioComplexStringPrinter::SetTextColor

; 570  : 	kPrinter.SetBkColor( 0, 0, 0 );

  0004e	56		 push	 esi
  0004f	56		 push	 esi
  00050	56		 push	 esi
  00051	8d 4d cc	 lea	 ecx, DWORD PTR _kPrinter$[ebp]
  00054	e8 00 00 00 00	 call	 ?SetBkColor@ioComplexStringPrinter@@QAEXHHH@Z ; ioComplexStringPrinter::SetBkColor

; 571  : 	kPrinter.AddTextPiece( FONT_SIZE_13, STR(1));

  00059	56		 push	 esi
  0005a	8b 35 00 00 00
	00		 mov	 esi, DWORD PTR __imp_?GetSingleton@ioStringManager@@SAAAV1@XZ
  00060	6a 01		 push	 1
  00062	68 00 00 00 00	 push	 OFFSET ??_C@_00CNPNBAHC@?$AA@
  00067	bb 00 00 00 00	 mov	 ebx, OFFSET ??_C@_0BL@MLJPFLKL@EventMortMainWnd?3?3OnRender?$AA@
  0006c	53		 push	 ebx
  0006d	ff d6		 call	 esi
  0006f	8b 3d 00 00 00
	00		 mov	 edi, DWORD PTR __imp_?GetString@ioStringManager@@QAEPADPBD0HW4FileNamePrefix@1@@Z
  00075	8b c8		 mov	 ecx, eax
  00077	ff d7		 call	 edi
  00079	f3 0f 10 05 00
	00 00 00	 movss	 xmm0, DWORD PTR __real@3f266666
  00081	50		 push	 eax
  00082	51		 push	 ecx
  00083	8d 45 cc	 lea	 eax, DWORD PTR _kPrinter$[ebp]
  00086	f3 0f 11 04 24	 movss	 DWORD PTR [esp], xmm0
  0008b	50		 push	 eax
  0008c	e8 00 00 00 00	 call	 ?AddTextPiece@ioComplexStringPrinter@@QAAXMPBDZZ ; ioComplexStringPrinter::AddTextPiece
  00091	83 c4 0c	 add	 esp, 12			; 0000000cH

; 572  : 
; 573  : 	kPrinter.SetTextColor( TCT_DEFAULT_GRAY );	

  00094	68 6e 6e 6e ff	 push	 -9539986		; ff6e6e6eH
  00099	8d 4d cc	 lea	 ecx, DWORD PTR _kPrinter$[ebp]
  0009c	e8 00 00 00 00	 call	 ?SetTextColor@ioComplexStringPrinter@@QAEXK@Z ; ioComplexStringPrinter::SetTextColor

; 574  : 	kPrinter.AddTextPiece( FONT_SIZE_13, STR(2));

  000a1	6a 00		 push	 0
  000a3	6a 02		 push	 2
  000a5	68 00 00 00 00	 push	 OFFSET ??_C@_00CNPNBAHC@?$AA@
  000aa	53		 push	 ebx
  000ab	ff d6		 call	 esi
  000ad	8b c8		 mov	 ecx, eax
  000af	ff d7		 call	 edi
  000b1	f3 0f 10 05 00
	00 00 00	 movss	 xmm0, DWORD PTR __real@3f266666
  000b9	50		 push	 eax
  000ba	51		 push	 ecx
  000bb	8d 45 cc	 lea	 eax, DWORD PTR _kPrinter$[ebp]
  000be	f3 0f 11 04 24	 movss	 DWORD PTR [esp], xmm0
  000c3	50		 push	 eax
  000c4	e8 00 00 00 00	 call	 ?AddTextPiece@ioComplexStringPrinter@@QAAXMPBDZZ ; ioComplexStringPrinter::AddTextPiece

; 575  : 	kPrinter.PrintFullText( iXPos + 105, iYPos + 55, TAT_LEFT );

  000c9	8b 45 ec	 mov	 eax, DWORD PTR _iXPos$[ebp]
  000cc	83 c4 0c	 add	 esp, 12			; 0000000cH
  000cf	83 c0 69	 add	 eax, 105		; 00000069H
  000d2	68 ff 00 00 00	 push	 255			; 000000ffH
  000d7	0f 57 c0	 xorps	 xmm0, xmm0
  000da	f3 0f 2a c0	 cvtsi2ss xmm0, eax
  000de	8b 45 f0	 mov	 eax, DWORD PTR _iYPos$[ebp]
  000e1	6a 00		 push	 0
  000e3	51		 push	 ecx
  000e4	51		 push	 ecx
  000e5	83 c0 37	 add	 eax, 55			; 00000037H
  000e8	0f 57 c9	 xorps	 xmm1, xmm1
  000eb	f3 0f 2a c8	 cvtsi2ss xmm1, eax
  000ef	f3 0f 11 4c 24
	04		 movss	 DWORD PTR [esp+4], xmm1
  000f5	8d 4d cc	 lea	 ecx, DWORD PTR _kPrinter$[ebp]
  000f8	f3 0f 11 45 ec	 movss	 DWORD PTR tv195[ebp], xmm0
  000fd	f3 0f 11 04 24	 movss	 DWORD PTR [esp], xmm0
  00102	e8 00 00 00 00	 call	 ?PrintFullText@ioComplexStringPrinter@@QAEXMMW4TextAlignType@@E@Z ; ioComplexStringPrinter::PrintFullText

; 576  : 	kPrinter.ClearList();

  00107	8d 4d cc	 lea	 ecx, DWORD PTR _kPrinter$[ebp]
  0010a	e8 00 00 00 00	 call	 ?ClearList@ioComplexStringPrinter@@QAEXXZ ; ioComplexStringPrinter::ClearList

; 577  : 
; 578  : 	kPrinter.SetTextColor( TCT_DEFAULT_GRAY );	

  0010f	68 6e 6e 6e ff	 push	 -9539986		; ff6e6e6eH
  00114	8d 4d cc	 lea	 ecx, DWORD PTR _kPrinter$[ebp]
  00117	e8 00 00 00 00	 call	 ?SetTextColor@ioComplexStringPrinter@@QAEXK@Z ; ioComplexStringPrinter::SetTextColor

; 579  : 	kPrinter.AddTextPiece( FONT_SIZE_13, STR(3));

  0011c	6a 00		 push	 0
  0011e	6a 03		 push	 3
  00120	68 00 00 00 00	 push	 OFFSET ??_C@_00CNPNBAHC@?$AA@
  00125	53		 push	 ebx
  00126	ff d6		 call	 esi
  00128	8b c8		 mov	 ecx, eax
  0012a	ff d7		 call	 edi
  0012c	f3 0f 10 05 00
	00 00 00	 movss	 xmm0, DWORD PTR __real@3f266666
  00134	50		 push	 eax
  00135	51		 push	 ecx
  00136	8d 45 cc	 lea	 eax, DWORD PTR _kPrinter$[ebp]
  00139	f3 0f 11 04 24	 movss	 DWORD PTR [esp], xmm0
  0013e	50		 push	 eax
  0013f	e8 00 00 00 00	 call	 ?AddTextPiece@ioComplexStringPrinter@@QAAXMPBDZZ ; ioComplexStringPrinter::AddTextPiece

; 580  : 	kPrinter.PrintFullText( iXPos + 105, iYPos + 75, TAT_LEFT );

  00144	8b 45 f0	 mov	 eax, DWORD PTR _iYPos$[ebp]
  00147	83 c4 0c	 add	 esp, 12			; 0000000cH
  0014a	68 ff 00 00 00	 push	 255			; 000000ffH
  0014f	6a 00		 push	 0
  00151	51		 push	 ecx
  00152	51		 push	 ecx
  00153	83 c0 4b	 add	 eax, 75			; 0000004bH
  00156	0f 57 c0	 xorps	 xmm0, xmm0
  00159	f3 0f 2a c0	 cvtsi2ss xmm0, eax
  0015d	f3 0f 11 44 24
	04		 movss	 DWORD PTR [esp+4], xmm0
  00163	f3 0f 10 45 ec	 movss	 xmm0, DWORD PTR tv195[ebp]
  00168	8d 4d cc	 lea	 ecx, DWORD PTR _kPrinter$[ebp]
  0016b	f3 0f 11 04 24	 movss	 DWORD PTR [esp], xmm0
  00170	e8 00 00 00 00	 call	 ?PrintFullText@ioComplexStringPrinter@@QAEXMMW4TextAlignType@@E@Z ; ioComplexStringPrinter::PrintFullText

; 581  : 	kPrinter.ClearList();

  00175	8d 4d cc	 lea	 ecx, DWORD PTR _kPrinter$[ebp]
  00178	e8 00 00 00 00	 call	 ?ClearList@ioComplexStringPrinter@@QAEXXZ ; ioComplexStringPrinter::ClearList

; 582  : }

  0017d	83 4d fc ff	 or	 DWORD PTR __$EHRec$[ebp+8], -1
  00181	8d 4d cc	 lea	 ecx, DWORD PTR _kPrinter$[ebp]
  00184	e8 00 00 00 00	 call	 ??1ioComplexStringPrinter@@QAE@XZ ; ioComplexStringPrinter::~ioComplexStringPrinter
  00189	e8 00 00 00 00	 call	 __EH_epilog3
  0018e	c3		 ret	 0
_TEXT	ENDS
;	COMDAT text$x
text$x	SEGMENT
__unwindfunclet$?OnRender@EventMortMainWnd@@MAEXXZ$0:
  00000	8d 4d cc	 lea	 ecx, DWORD PTR _kPrinter$[ebp]
  00003	e9 00 00 00 00	 jmp	 ??1ioComplexStringPrinter@@QAE@XZ ; ioComplexStringPrinter::~ioComplexStringPrinter
__ehhandler$?OnRender@EventMortMainWnd@@MAEXXZ:
  00008	8b 54 24 08	 mov	 edx, DWORD PTR [esp+8]
  0000c	8d 42 0c	 lea	 eax, DWORD PTR [edx+12]
  0000f	8b 4a c8	 mov	 ecx, DWORD PTR [edx-56]
  00012	33 c8		 xor	 ecx, eax
  00014	e8 00 00 00 00	 call	 @__security_check_cookie@4
  00019	b8 00 00 00 00	 mov	 eax, OFFSET __ehfuncinfo$?OnRender@EventMortMainWnd@@MAEXXZ
  0001e	e9 00 00 00 00	 jmp	 ___CxxFrameHandler3
text$x	ENDS
?OnRender@EventMortMainWnd@@MAEXXZ ENDP			; EventMortMainWnd::OnRender
PUBLIC	??_7EventChanceMortmainCharWnd@@6B@		; EventChanceMortmainCharWnd::`vftable'
PUBLIC	??0EventChanceMortmainCharWnd@@QAE@XZ		; EventChanceMortmainCharWnd::EventChanceMortmainCharWnd
PUBLIC	??_R4EventChanceMortmainCharWnd@@6B@		; EventChanceMortmainCharWnd::`RTTI Complete Object Locator'
PUBLIC	??_R0?AVEventChanceMortmainCharWnd@@@8		; EventChanceMortmainCharWnd `RTTI Type Descriptor'
PUBLIC	??_R3EventChanceMortmainCharWnd@@8		; EventChanceMortmainCharWnd::`RTTI Class Hierarchy Descriptor'
PUBLIC	??_R2EventChanceMortmainCharWnd@@8		; EventChanceMortmainCharWnd::`RTTI Base Class Array'
PUBLIC	??_R1A@?0A@EA@EventChanceMortmainCharWnd@@8	; EventChanceMortmainCharWnd::`RTTI Base Class Descriptor at (0,-1,0,64)'
PUBLIC	??_R1A@?0A@EA@ioMovingWnd@@8			; ioMovingWnd::`RTTI Base Class Descriptor at (0,-1,0,64)'
PUBLIC	??_R0?AVioMovingWnd@@@8				; ioMovingWnd `RTTI Type Descriptor'
PUBLIC	??_R3ioMovingWnd@@8				; ioMovingWnd::`RTTI Class Hierarchy Descriptor'
PUBLIC	??_R2ioMovingWnd@@8				; ioMovingWnd::`RTTI Base Class Array'
PUBLIC	?AddRenderImage@EventChanceMortmainCharWnd@@MAEXABVioHashString@@PAVioUIRenderImage@@@Z ; EventChanceMortmainCharWnd::AddRenderImage
PUBLIC	?OnRender@EventChanceMortmainCharWnd@@MAEXXZ	; EventChanceMortmainCharWnd::OnRender
PUBLIC	?OnProcess@EventChanceMortmainCharWnd@@MAEXM@Z	; EventChanceMortmainCharWnd::OnProcess
PUBLIC	?iwm_command@EventChanceMortmainCharWnd@@UAEXPAVioWnd@@HK@Z ; EventChanceMortmainCharWnd::iwm_command
PUBLIC	?iwm_show@EventChanceMortmainCharWnd@@UAEXXZ	; EventChanceMortmainCharWnd::iwm_show
EXTRN	__imp_??0ioMovingWnd@@QAE@XZ:PROC
EXTRN	?SetPositionToDefault@ioMovingWnd@@UAEXHH_N0@Z:PROC ; ioMovingWnd::SetPositionToDefault
EXTRN	?OnMouseProcess@ioMovingWnd@@MAEXABVioMouse@@@Z:PROC ; ioMovingWnd::OnMouseProcess
EXTRN	?iwm_lbuttondown@ioMovingWnd@@UAEXABVioMouse@@@Z:PROC ; ioMovingWnd::iwm_lbuttondown
EXTRN	?iwm_lbuttonup@ioMovingWnd@@UAEXABVioMouse@@@Z:PROC ; ioMovingWnd::iwm_lbuttonup
EXTRN	??_EEventChanceMortmainCharWnd@@UAEPAXI@Z:PROC	; EventChanceMortmainCharWnd::`vector deleting destructor'
;	COMDAT ??_R2ioMovingWnd@@8
rdata$r	SEGMENT
??_R2ioMovingWnd@@8 DD FLAT:??_R1A@?0A@EA@ioMovingWnd@@8 ; ioMovingWnd::`RTTI Base Class Array'
	DD	FLAT:??_R1A@?0A@EA@ioWnd@@8
rdata$r	ENDS
;	COMDAT ??_R3ioMovingWnd@@8
rdata$r	SEGMENT
??_R3ioMovingWnd@@8 DD 00H				; ioMovingWnd::`RTTI Class Hierarchy Descriptor'
	DD	00H
	DD	02H
	DD	FLAT:??_R2ioMovingWnd@@8
rdata$r	ENDS
;	COMDAT ??_R0?AVioMovingWnd@@@8
_DATA	SEGMENT
??_R0?AVioMovingWnd@@@8 DD FLAT:??_7type_info@@6B@	; ioMovingWnd `RTTI Type Descriptor'
	DD	00H
	DB	'.?AVioMovingWnd@@', 00H
_DATA	ENDS
;	COMDAT ??_R1A@?0A@EA@ioMovingWnd@@8
rdata$r	SEGMENT
??_R1A@?0A@EA@ioMovingWnd@@8 DD FLAT:??_R0?AVioMovingWnd@@@8 ; ioMovingWnd::`RTTI Base Class Descriptor at (0,-1,0,64)'
	DD	01H
	DD	00H
	DD	0ffffffffH
	DD	00H
	DD	040H
	DD	FLAT:??_R3ioMovingWnd@@8
rdata$r	ENDS
;	COMDAT ??_R1A@?0A@EA@EventChanceMortmainCharWnd@@8
rdata$r	SEGMENT
??_R1A@?0A@EA@EventChanceMortmainCharWnd@@8 DD FLAT:??_R0?AVEventChanceMortmainCharWnd@@@8 ; EventChanceMortmainCharWnd::`RTTI Base Class Descriptor at (0,-1,0,64)'
	DD	02H
	DD	00H
	DD	0ffffffffH
	DD	00H
	DD	040H
	DD	FLAT:??_R3EventChanceMortmainCharWnd@@8
rdata$r	ENDS
;	COMDAT ??_R2EventChanceMortmainCharWnd@@8
rdata$r	SEGMENT
??_R2EventChanceMortmainCharWnd@@8 DD FLAT:??_R1A@?0A@EA@EventChanceMortmainCharWnd@@8 ; EventChanceMortmainCharWnd::`RTTI Base Class Array'
	DD	FLAT:??_R1A@?0A@EA@ioMovingWnd@@8
	DD	FLAT:??_R1A@?0A@EA@ioWnd@@8
rdata$r	ENDS
;	COMDAT ??_R3EventChanceMortmainCharWnd@@8
rdata$r	SEGMENT
??_R3EventChanceMortmainCharWnd@@8 DD 00H		; EventChanceMortmainCharWnd::`RTTI Class Hierarchy Descriptor'
	DD	00H
	DD	03H
	DD	FLAT:??_R2EventChanceMortmainCharWnd@@8
rdata$r	ENDS
;	COMDAT ??_R0?AVEventChanceMortmainCharWnd@@@8
_DATA	SEGMENT
??_R0?AVEventChanceMortmainCharWnd@@@8 DD FLAT:??_7type_info@@6B@ ; EventChanceMortmainCharWnd `RTTI Type Descriptor'
	DD	00H
	DB	'.?AVEventChanceMortmainCharWnd@@', 00H
_DATA	ENDS
;	COMDAT ??_R4EventChanceMortmainCharWnd@@6B@
rdata$r	SEGMENT
??_R4EventChanceMortmainCharWnd@@6B@ DD 00H		; EventChanceMortmainCharWnd::`RTTI Complete Object Locator'
	DD	00H
	DD	00H
	DD	FLAT:??_R0?AVEventChanceMortmainCharWnd@@@8
	DD	FLAT:??_R3EventChanceMortmainCharWnd@@8
rdata$r	ENDS
;	COMDAT ??_7EventChanceMortmainCharWnd@@6B@
CONST	SEGMENT
??_7EventChanceMortmainCharWnd@@6B@ DD FLAT:??_R4EventChanceMortmainCharWnd@@6B@ ; EventChanceMortmainCharWnd::`vftable'
	DD	FLAT:?AddRenderFrame@ioWnd@@UAEXABVioHashString@@PAVioUIRenderFrame@@@Z
	DD	FLAT:?AddRenderImage@EventChanceMortmainCharWnd@@MAEXABVioHashString@@PAVioUIRenderImage@@@Z
	DD	FLAT:?AddTooltipHelp@ioWnd@@UAEXABVioHashString@@00@Z
	DD	FLAT:?ParseExtraInfo@ioWnd@@UAEXAAVioXMLElement@@@Z
	DD	FLAT:?AddNamedRenderImage@ioWnd@@UAEXABVioHashString@@PAVioUIRenderImage@@@Z
	DD	FLAT:?RemoveNamedRenderImage@ioWnd@@UAEXABVioHashString@@@Z
	DD	FLAT:?GetNamedRenderImage@ioWnd@@UBEPAVioUIRenderImage@@ABVioHashString@@@Z
	DD	FLAT:?SetWindowAlpha@ioWnd@@UAEXH@Z
	DD	FLAT:?SetActive@ioWnd@@UAEXXZ
	DD	FLAT:?SetInActive@ioWnd@@UAEXXZ
	DD	FLAT:?ClearElementImageList@ioWnd@@UAEXXZ
	DD	FLAT:?SetSize@ioWnd@@UAEXHH@Z
	DD	FLAT:?SetPositionToDefault@ioMovingWnd@@UAEXHH_N0@Z
	DD	FLAT:?IsNeedProcess@ioWnd@@UBE_NXZ
	DD	FLAT:?IsCanMouseReaction@ioWnd@@UBE_NXZ
	DD	FLAT:?AddChild@ioWnd@@UAEXPAV1@@Z
	DD	FLAT:?DeleteChild@ioWnd@@UAEXK@Z
	DD	FLAT:?DeleteAllChild@ioWnd@@UAEXXZ
	DD	FLAT:?OnRenderShowAndHide@ioWnd@@MAE_NXZ
	DD	FLAT:?OnRenderShowAndHideByDefault@ioWnd@@MAE_NK@Z
	DD	FLAT:?OnRenderShowAndHideByTop@ioWnd@@MAE_NK@Z
	DD	FLAT:?OnRenderShowAndHideByDown@ioWnd@@MAE_NK@Z
	DD	FLAT:?OnRender@EventChanceMortmainCharWnd@@MAEXXZ
	DD	FLAT:?OnRenderAfterChild@ioWnd@@MAEXXZ
	DD	FLAT:?OnProcess@EventChanceMortmainCharWnd@@MAEXM@Z
	DD	FLAT:?OnMouseProcess@ioMovingWnd@@MAEXABVioMouse@@@Z
	DD	FLAT:?CheckFrameReSize@ioWnd@@MAEXHHHH@Z
	DD	FLAT:?RenderImageList@ioWnd@@MAEXHHW4UIRenderType@@@Z
	DD	FLAT:?iwm_create@ioWnd@@UAEXXZ
	DD	FLAT:?iwm_destroy@ioWnd@@UAEXXZ
	DD	FLAT:?iwm_lbuttondown@ioMovingWnd@@UAEXABVioMouse@@@Z
	DD	FLAT:?iwm_lbuttonup@ioMovingWnd@@UAEXABVioMouse@@@Z
	DD	FLAT:?iwm_lbuttonDBLCLK@ioWnd@@UAEXABVioMouse@@@Z
	DD	FLAT:?iwm_rbuttondown@ioWnd@@UAEXABVioMouse@@@Z
	DD	FLAT:?iwm_rbuttonup@ioWnd@@UAEXABVioMouse@@@Z
	DD	FLAT:?iwm_command@EventChanceMortmainCharWnd@@UAEXPAVioWnd@@HK@Z
	DD	FLAT:?iwm_mouseover@ioWnd@@UAEXABVioMouse@@@Z
	DD	FLAT:?iwm_mousemove@ioWnd@@UAEXABVioMouse@@@Z
	DD	FLAT:?iwm_mouseleave@ioWnd@@UAEXABVioMouse@@@Z
	DD	FLAT:?iwm_vscroll@ioWnd@@UAEXKH@Z
	DD	FLAT:?iwm_wheel@ioWnd@@UAEXH@Z
	DD	FLAT:?iwm_show@EventChanceMortmainCharWnd@@UAEXXZ
	DD	FLAT:?iwm_hide@ioWnd@@UAEXXZ
	DD	FLAT:?iwm_esc@ioWnd@@UAE_NXZ
	DD	FLAT:?iwm_spacebar@ioWnd@@UAE_NXZ
	DD	FLAT:?iwm_gototop@ioWnd@@UAEXXZ
	DD	FLAT:?iwm_dragenter@ioWnd@@UAE?AW4IWDropEffect@@PAVioDragItem@@ABVioMouse@@@Z
	DD	FLAT:?iwm_dragover@ioWnd@@UAE?AW4IWDropEffect@@PAVioDragItem@@ABVioMouse@@@Z
	DD	FLAT:?iwm_dragleave@ioWnd@@UAEXXZ
	DD	FLAT:?iwm_dropitem@ioWnd@@UAE_NPAVioDragItem@@ABVioMouse@@PAV1@@Z
	DD	FLAT:?iwm_dropdone@ioWnd@@UAEXPAVioDragItem@@PAV1@_N@Z
	DD	FLAT:?IsEXType@ioWnd@@UBE_NXZ
	DD	FLAT:?GetWndType@ioWnd@@UBEKXZ
	DD	FLAT:?RenderWnd@ioWnd@@UAEXXZ
	DD	FLAT:?SetIDEX@ioWnd@@UAEXAAK_N@Z
	DD	FLAT:?ParseXML@ioWnd@@UAEXAAVioXMLElement@@@Z
	DD	FLAT:?GetHeaderFileName@ioWnd@@UAEPBDXZ
	DD	FLAT:?GetTemplateName@ioWnd@@UAEPBDXZ
	DD	FLAT:?GetDefClassName@ioWnd@@UBEPBDXZ
	DD	FLAT:?_Clone@ioWnd@@UAEPAV1@XZ
	DD	FLAT:?Copy@ioWnd@@UAEXPAV1@@Z
	DD	FLAT:?Save@ioWnd@@UAE_NAAVioXMLElement@@@Z
	DD	FLAT:?SetSaveData@ioWnd@@UAEXAAVioXMLElement@@@Z
	DD	FLAT:?SetPosX@ioWnd@@UAEXH@Z
	DD	FLAT:?SetPosY@ioWnd@@UAEXH@Z
	DD	FLAT:?SetWidth@ioWnd@@UAEXH@Z
	DD	FLAT:?SetHeight@ioWnd@@UAEXH@Z
	DD	FLAT:?GetNumFixedRenderFrame@ioWnd@@UBEHXZ
	DD	FLAT:?GetFixedRenderFrameType@ioWnd@@UAEPBDH@Z
	DD	FLAT:?GetRenderFrame@ioWnd@@UAEPAPAVioUIRenderElement@@PBD@Z
	DD	FLAT:?GetNumFixedRenderImage@ioWnd@@UBEHXZ
	DD	FLAT:?GetFixedRenderImageType@ioWnd@@UAEPBDH@Z
	DD	FLAT:?GetRenderImage@ioWnd@@UAEPAPAVioUIRenderElement@@PBD@Z
	DD	FLAT:?AddEffect@ioWnd@@UAEXABVioHashString@@PAVioUI3DEffectRender@@@Z
	DD	FLAT:?GetEffect@ioWnd@@UAEPAVioUI3DEffectRender@@VioHashString@@@Z
	DD	FLAT:??_EEventChanceMortmainCharWnd@@UAEPAXI@Z
; Function compile flags: /Ogsp
CONST	ENDS
;	COMDAT ??0EventChanceMortmainCharWnd@@QAE@XZ
_TEXT	SEGMENT
??0EventChanceMortmainCharWnd@@QAE@XZ PROC		; EventChanceMortmainCharWnd::EventChanceMortmainCharWnd, COMDAT
; _this$ = ecx

; 586  : {

  00000	56		 push	 esi
  00001	8b f1		 mov	 esi, ecx
  00003	ff 15 00 00 00
	00		 call	 DWORD PTR __imp_??0ioMovingWnd@@QAE@XZ

; 587  : 	m_pGaugeBack = NULL;

  00009	33 c0		 xor	 eax, eax
  0000b	89 86 90 01 00
	00		 mov	 DWORD PTR [esi+400], eax

; 588  : 	m_pGaugeLine = NULL;

  00011	89 86 94 01 00
	00		 mov	 DWORD PTR [esi+404], eax

; 589  : 	m_pTimeText  = NULL;

  00017	89 86 98 01 00
	00		 mov	 DWORD PTR [esi+408], eax

; 590  : 	m_pTimeColon = NULL;

  0001d	89 86 9c 01 00
	00		 mov	 DWORD PTR [esi+412], eax
  00023	c7 06 00 00 00
	00		 mov	 DWORD PTR [esi], OFFSET ??_7EventChanceMortmainCharWnd@@6B@

; 591  : }

  00029	8b c6		 mov	 eax, esi
  0002b	5e		 pop	 esi
  0002c	c3		 ret	 0
??0EventChanceMortmainCharWnd@@QAE@XZ ENDP		; EventChanceMortmainCharWnd::EventChanceMortmainCharWnd
_TEXT	ENDS
PUBLIC	??1EventChanceMortmainCharWnd@@UAE@XZ		; EventChanceMortmainCharWnd::~EventChanceMortmainCharWnd
EXTRN	__imp_??1ioMovingWnd@@UAE@XZ:PROC
;	COMDAT xdata$x
xdata$x	SEGMENT
__unwindtable$??1EventChanceMortmainCharWnd@@UAE@XZ DD 0ffffffffH
	DD	FLAT:__unwindfunclet$??1EventChanceMortmainCharWnd@@UAE@XZ$0
__ehfuncinfo$??1EventChanceMortmainCharWnd@@UAE@XZ DD 019930522H
	DD	01H
	DD	FLAT:__unwindtable$??1EventChanceMortmainCharWnd@@UAE@XZ
	DD	2 DUP(00H)
	DD	2 DUP(00H)
	DD	00H
	DD	01H
; Function compile flags: /Ogsp
xdata$x	ENDS
;	COMDAT ??1EventChanceMortmainCharWnd@@UAE@XZ
_TEXT	SEGMENT
_this$ = -16						; size = 4
__$EHRec$ = -12						; size = 12
??1EventChanceMortmainCharWnd@@UAE@XZ PROC		; EventChanceMortmainCharWnd::~EventChanceMortmainCharWnd, COMDAT
; _this$ = ecx

; 594  : {

  00000	6a 04		 push	 4
  00002	b8 00 00 00 00	 mov	 eax, __ehhandler$??1EventChanceMortmainCharWnd@@UAE@XZ
  00007	e8 00 00 00 00	 call	 __EH_prolog3
  0000c	8b f1		 mov	 esi, ecx
  0000e	89 75 f0	 mov	 DWORD PTR _this$[ebp], esi
  00011	c7 06 00 00 00
	00		 mov	 DWORD PTR [esi], OFFSET ??_7EventChanceMortmainCharWnd@@6B@

; 595  : 	SAFEDELETE( m_pGaugeBack );

  00017	8b 8e 90 01 00
	00		 mov	 ecx, DWORD PTR [esi+400]
  0001d	33 db		 xor	 ebx, ebx
  0001f	89 5d fc	 mov	 DWORD PTR __$EHRec$[ebp+8], ebx
  00022	3b cb		 cmp	 ecx, ebx
  00024	74 0d		 je	 SHORT $LN4@EventChanc
  00026	8b 01		 mov	 eax, DWORD PTR [ecx]
  00028	6a 01		 push	 1
  0002a	ff 50 40	 call	 DWORD PTR [eax+64]
  0002d	89 9e 90 01 00
	00		 mov	 DWORD PTR [esi+400], ebx
$LN4@EventChanc:

; 596  : 	SAFEDELETE( m_pGaugeLine );

  00033	8b 8e 94 01 00
	00		 mov	 ecx, DWORD PTR [esi+404]
  00039	3b cb		 cmp	 ecx, ebx
  0003b	74 0d		 je	 SHORT $LN3@EventChanc
  0003d	8b 01		 mov	 eax, DWORD PTR [ecx]
  0003f	6a 01		 push	 1
  00041	ff 50 40	 call	 DWORD PTR [eax+64]
  00044	89 9e 94 01 00
	00		 mov	 DWORD PTR [esi+404], ebx
$LN3@EventChanc:

; 597  : 	SAFEDELETE( m_pTimeText );

  0004a	8b 8e 98 01 00
	00		 mov	 ecx, DWORD PTR [esi+408]
  00050	3b cb		 cmp	 ecx, ebx
  00052	74 0d		 je	 SHORT $LN2@EventChanc
  00054	8b 01		 mov	 eax, DWORD PTR [ecx]
  00056	6a 01		 push	 1
  00058	ff 50 40	 call	 DWORD PTR [eax+64]
  0005b	89 9e 98 01 00
	00		 mov	 DWORD PTR [esi+408], ebx
$LN2@EventChanc:

; 598  : 	SAFEDELETE( m_pTimeColon );

  00061	8b 8e 9c 01 00
	00		 mov	 ecx, DWORD PTR [esi+412]
  00067	3b cb		 cmp	 ecx, ebx
  00069	74 0d		 je	 SHORT $LN1@EventChanc
  0006b	8b 01		 mov	 eax, DWORD PTR [ecx]
  0006d	6a 01		 push	 1
  0006f	ff 50 40	 call	 DWORD PTR [eax+64]
  00072	89 9e 9c 01 00
	00		 mov	 DWORD PTR [esi+412], ebx
$LN1@EventChanc:

; 599  : }

  00078	83 4d fc ff	 or	 DWORD PTR __$EHRec$[ebp+8], -1
  0007c	8b ce		 mov	 ecx, esi
  0007e	ff 15 00 00 00
	00		 call	 DWORD PTR __imp_??1ioMovingWnd@@UAE@XZ
  00084	e8 00 00 00 00	 call	 __EH_epilog3
  00089	c3		 ret	 0
_TEXT	ENDS
;	COMDAT text$x
text$x	SEGMENT
__unwindfunclet$??1EventChanceMortmainCharWnd@@UAE@XZ$0:
  00000	8b 4d f0	 mov	 ecx, DWORD PTR _this$[ebp]
  00003	ff 25 00 00 00
	00		 jmp	 DWORD PTR __imp_??1ioMovingWnd@@UAE@XZ
__ehhandler$??1EventChanceMortmainCharWnd@@UAE@XZ:
  00009	8b 54 24 08	 mov	 edx, DWORD PTR [esp+8]
  0000d	8d 42 0c	 lea	 eax, DWORD PTR [edx+12]
  00010	8b 4a ec	 mov	 ecx, DWORD PTR [edx-20]
  00013	33 c8		 xor	 ecx, eax
  00015	e8 00 00 00 00	 call	 @__security_check_cookie@4
  0001a	b8 00 00 00 00	 mov	 eax, OFFSET __ehfuncinfo$??1EventChanceMortmainCharWnd@@UAE@XZ
  0001f	e9 00 00 00 00	 jmp	 ___CxxFrameHandler3
text$x	ENDS
??1EventChanceMortmainCharWnd@@UAE@XZ ENDP		; EventChanceMortmainCharWnd::~EventChanceMortmainCharWnd
EXTRN	__imp_?OnProcess@ioWnd@@MAEXM@Z:PROC
; Function compile flags: /Ogsp
;	COMDAT ?OnProcess@EventChanceMortmainCharWnd@@MAEXM@Z
_TEXT	SEGMENT
_fTimePerSec$ = 8					; size = 4
?OnProcess@EventChanceMortmainCharWnd@@MAEXM@Z PROC	; EventChanceMortmainCharWnd::OnProcess, COMDAT
; _this$ = ecx

; 768  : {

  00000	55		 push	 ebp
  00001	8b ec		 mov	 ebp, esp
  00003	56		 push	 esi
  00004	8b f1		 mov	 esi, ecx

; 769  : 	if( !IsShow() ) return;

  00006	ff 15 00 00 00
	00		 call	 DWORD PTR __imp_?IsShow@ioWnd@@QBE_NXZ
  0000c	84 c0		 test	 al, al
  0000e	74 3c		 je	 SHORT $LN1@OnProcess@3

; 770  : 
; 771  : 	if( !g_EventMgr.IsAlive( EVT_CHANCE_MORTMAIN_CHAR, g_MyInfo.GetChannelingType() ) )

  00010	e8 00 00 00 00	 call	 ?GetSingleton@ioMyInfo@@SAAAV1@XZ ; ioMyInfo::GetSingleton
  00015	8b c8		 mov	 ecx, eax
  00017	e8 00 00 00 00	 call	 ?GetChannelingType@ioMyInfo@@QBE?AW4ChannelingType@@XZ ; ioMyInfo::GetChannelingType
  0001c	50		 push	 eax
  0001d	6a 0b		 push	 11			; 0000000bH
  0001f	e8 00 00 00 00	 call	 ?GetSingleton@ioEventManager@@SAAAV1@XZ ; ioEventManager::GetSingleton
  00024	8b c8		 mov	 ecx, eax
  00026	e8 00 00 00 00	 call	 ?IsAlive@ioEventManager@@QAE_NW4EventType@@W4ChannelingType@@@Z ; ioEventManager::IsAlive
  0002b	84 c0		 test	 al, al
  0002d	75 0a		 jne	 SHORT $LN2@OnProcess@3

; 772  : 	{
; 773  : 		// 이벤트 종료
; 774  : 		HideWnd();

  0002f	8b ce		 mov	 ecx, esi
  00031	ff 15 00 00 00
	00		 call	 DWORD PTR __imp_?HideWnd@ioWnd@@QAEXXZ

; 775  : 	}
; 776  : 	else

  00037	eb 13		 jmp	 SHORT $LN1@OnProcess@3
$LN2@OnProcess@3:

; 777  : 	{
; 778  : 		ioMovingWnd::OnProcess( fTimePerSec );

  00039	f3 0f 10 45 08	 movss	 xmm0, DWORD PTR _fTimePerSec$[ebp]
  0003e	51		 push	 ecx
  0003f	8b ce		 mov	 ecx, esi
  00041	f3 0f 11 04 24	 movss	 DWORD PTR [esp], xmm0
  00046	ff 15 00 00 00
	00		 call	 DWORD PTR __imp_?OnProcess@ioWnd@@MAEXM@Z
$LN1@OnProcess@3:
  0004c	5e		 pop	 esi

; 779  : 	}
; 780  : }

  0004d	5d		 pop	 ebp
  0004e	c2 04 00	 ret	 4
?OnProcess@EventChanceMortmainCharWnd@@MAEXM@Z ENDP	; EventChanceMortmainCharWnd::OnProcess
_TEXT	ENDS
PUBLIC	__real@3f19999a
PUBLIC	??_C@_0CF@FPPDPJCJ@EventChanceMortmainCharWnd?3?3OnRe@ ; `string'
PUBLIC	__real@4f800000
PUBLIC	__real@404e000000000000
PUBLIC	__real@408f400000000000
PUBLIC	__real@3f800000
PUBLIC	??_R0?AVEventUserNode@@@8			; EventUserNode `RTTI Type Descriptor'
PUBLIC	??_R0?AVChanceMortmainCharEventUserNode@@@8	; ChanceMortmainCharEventUserNode `RTTI Type Descriptor'
EXTRN	__imp_?RenderNum@ioUIRenderImage@@QAEXMMHMMW4UIRenderType@@W4TextureFilterOption@@0W4RenerNumerFormatting@1@@Z:PROC
EXTRN	__imp_?RenderWidthCut@ioUIRenderImage@@QAEXMMHHW4UIRenderType@@W4TextureFilterOption@@0@Z:PROC
EXTRN	__imp_?GetWidth@ioUIRenderElement@@QBEHXZ:PROC
EXTRN	?GetValue@ioEventManager@@QAEHW4EventType@@H@Z:PROC ; ioEventManager::GetValue
EXTRN	?GetValue@EventUserNode@@QAEHH@Z:PROC		; EventUserNode::GetValue
EXTRN	?GetEventUserNode@EventUserManager@@QAEPAVEventUserNode@@W4EventType@@@Z:PROC ; EventUserManager::GetEventUserNode
EXTRN	?GetEventUserMgr@ioMyInfo@@QAEAAVEventUserManager@@XZ:PROC ; ioMyInfo::GetEventUserMgr
EXTRN	___RTDynamicCast:PROC
;	COMDAT __real@3f19999a
; File d:\lost saga for developer\youtube\tutorial\source\src\lsclient\stdafx.h
CONST	SEGMENT
__real@3f19999a DD 03f19999ar			; 0.6
CONST	ENDS
;	COMDAT ??_C@_0CF@FPPDPJCJ@EventChanceMortmainCharWnd?3?3OnRe@
CONST	SEGMENT
??_C@_0CF@FPPDPJCJ@EventChanceMortmainCharWnd?3?3OnRe@ DB 'EventChanceMor'
	DB	'tmainCharWnd::OnRender', 00H		; `string'
CONST	ENDS
;	COMDAT __real@4f800000
CONST	SEGMENT
__real@4f800000 DD 04f800000r			; 4.29497e+009
CONST	ENDS
;	COMDAT __real@404e000000000000
CONST	SEGMENT
__real@404e000000000000 DQ 0404e000000000000r	; 60
CONST	ENDS
;	COMDAT __real@408f400000000000
CONST	SEGMENT
__real@408f400000000000 DQ 0408f400000000000r	; 1000
CONST	ENDS
;	COMDAT __real@3f800000
CONST	SEGMENT
__real@3f800000 DD 03f800000r			; 1
CONST	ENDS
;	COMDAT ??_R0?AVEventUserNode@@@8
_DATA	SEGMENT
??_R0?AVEventUserNode@@@8 DD FLAT:??_7type_info@@6B@	; EventUserNode `RTTI Type Descriptor'
	DD	00H
	DB	'.?AVEventUserNode@@', 00H
_DATA	ENDS
;	COMDAT ??_R0?AVChanceMortmainCharEventUserNode@@@8
_DATA	SEGMENT
??_R0?AVChanceMortmainCharEventUserNode@@@8 DD FLAT:??_7type_info@@6B@ ; ChanceMortmainCharEventUserNode `RTTI Type Descriptor'
	DD	00H
	DB	'.?AVChanceMortmainCharEventUserNode@@', 00H
; Function compile flags: /Ogsp
; File d:\lost saga for developer\youtube\tutorial\source\src\lsclient\gui\eventcatalogwnd.cpp
_DATA	ENDS
;	COMDAT ?OnRender@EventChanceMortmainCharWnd@@MAEXXZ
_TEXT	SEGMENT
tv442 = -20						; size = 4
tv268 = -20						; size = 4
_iNum$515631 = -20					; size = 4
tv447 = -16						; size = 4
_iCurMS$515625 = -16					; size = 4
_iTotalMS$515624 = -12					; size = 4
_iYPos$ = -8						; size = 4
tv458 = -4						; size = 4
tv440 = -4						; size = 4
_pEventNode$ = -4					; size = 4
?OnRender@EventChanceMortmainCharWnd@@MAEXXZ PROC	; EventChanceMortmainCharWnd::OnRender, COMDAT
; _this$ = ecx

; 783  : {

  00000	55		 push	 ebp
  00001	8b ec		 mov	 ebp, esp
  00003	83 ec 14	 sub	 esp, 20			; 00000014H
  00006	53		 push	 ebx
  00007	56		 push	 esi
  00008	57		 push	 edi
  00009	8b f9		 mov	 edi, ecx

; 784  : 	ioWnd::OnRender();

  0000b	ff 15 00 00 00
	00		 call	 DWORD PTR __imp_?OnRender@ioWnd@@MAEXXZ

; 785  : 
; 786  : 	int iXPos = GetDerivedPosX();

  00011	8b cf		 mov	 ecx, edi
  00013	ff 15 00 00 00
	00		 call	 DWORD PTR __imp_?GetDerivedPosX@ioWnd@@QBEHXZ

; 787  : 	int iYPos = GetDerivedPosY();

  00019	8b cf		 mov	 ecx, edi
  0001b	8b d8		 mov	 ebx, eax
  0001d	ff 15 00 00 00
	00		 call	 DWORD PTR __imp_?GetDerivedPosY@ioWnd@@QBEHXZ

; 788  : 
; 789  : 	ChanceMortmainCharEventUserNode *pEventNode = dynamic_cast<ChanceMortmainCharEventUserNode*>( g_MyInfo.GetEventUserMgr().GetEventUserNode( EVT_CHANCE_MORTMAIN_CHAR ) );

  00023	33 f6		 xor	 esi, esi
  00025	56		 push	 esi
  00026	68 00 00 00 00	 push	 OFFSET ??_R0?AVChanceMortmainCharEventUserNode@@@8
  0002b	68 00 00 00 00	 push	 OFFSET ??_R0?AVEventUserNode@@@8
  00030	56		 push	 esi
  00031	6a 0b		 push	 11			; 0000000bH
  00033	89 45 f8	 mov	 DWORD PTR _iYPos$[ebp], eax
  00036	e8 00 00 00 00	 call	 ?GetSingleton@ioMyInfo@@SAAAV1@XZ ; ioMyInfo::GetSingleton
  0003b	8b c8		 mov	 ecx, eax
  0003d	e8 00 00 00 00	 call	 ?GetEventUserMgr@ioMyInfo@@QAEAAVEventUserManager@@XZ ; ioMyInfo::GetEventUserMgr
  00042	8b c8		 mov	 ecx, eax
  00044	e8 00 00 00 00	 call	 ?GetEventUserNode@EventUserManager@@QAEPAVEventUserNode@@W4EventType@@@Z ; EventUserManager::GetEventUserNode
  00049	50		 push	 eax
  0004a	e8 00 00 00 00	 call	 ___RTDynamicCast
  0004f	83 c4 14	 add	 esp, 20			; 00000014H
  00052	89 45 fc	 mov	 DWORD PTR _pEventNode$[ebp], eax

; 790  : 	if( pEventNode )

  00055	3b c6		 cmp	 eax, esi
  00057	0f 84 38 03 00
	00		 je	 $LN1@OnRender@2

; 791  : 	{
; 792  : 		g_FontMgr.SetTextStyle( TS_OUTLINE_FULL_2X );

  0005d	6a 05		 push	 5
  0005f	ff 15 00 00 00
	00		 call	 DWORD PTR __imp_?GetSingleton@ioFontManager@@SAAAV1@XZ
  00065	8b c8		 mov	 ecx, eax
  00067	ff 15 00 00 00
	00		 call	 DWORD PTR __imp_?SetTextStyle@ioFontManager@@QAEXW4TextStyle@@@Z

; 793  : 		g_FontMgr.SetAlignType( TAT_CENTER );

  0006d	6a 01		 push	 1
  0006f	ff 15 00 00 00
	00		 call	 DWORD PTR __imp_?GetSingleton@ioFontManager@@SAAAV1@XZ
  00075	8b c8		 mov	 ecx, eax
  00077	ff 15 00 00 00
	00		 call	 DWORD PTR __imp_?SetAlignType@ioFontManager@@QAEXW4TextAlignType@@@Z

; 794  : 		g_FontMgr.SetBkColor( 0, 0, 0 );

  0007d	56		 push	 esi
  0007e	56		 push	 esi
  0007f	56		 push	 esi
  00080	ff 15 00 00 00
	00		 call	 DWORD PTR __imp_?GetSingleton@ioFontManager@@SAAAV1@XZ
  00086	8b c8		 mov	 ecx, eax
  00088	ff 15 00 00 00
	00		 call	 DWORD PTR __imp_?SetBkColor@ioFontManager@@QAEXHHH@Z

; 795  : 		g_FontMgr.SetTextColor( TCT_DEFAULT_GRAY );

  0008e	68 6e 6e 6e ff	 push	 -9539986		; ff6e6e6eH
  00093	ff 15 00 00 00
	00		 call	 DWORD PTR __imp_?GetSingleton@ioFontManager@@SAAAV1@XZ
  00099	8b c8		 mov	 ecx, eax
  0009b	ff 15 00 00 00
	00		 call	 DWORD PTR __imp_?SetTextColor@ioFontManager@@QAEXK@Z

; 796  : 
; 797  : 		if( pEventNode->GetValue( VA_CMC_MAGIC_CODE ) >= 0 )

  000a1	8b 4d fc	 mov	 ecx, DWORD PTR _pEventNode$[ebp]
  000a4	56		 push	 esi
  000a5	e8 00 00 00 00	 call	 ?GetValue@EventUserNode@@QAEHH@Z ; EventUserNode::GetValue

; 798  : 		{
; 799  : 			int iTotalMS = max( 1, g_EventMgr.GetValue( EVT_CHANCE_MORTMAIN_CHAR, EA_CHANCE_MORTMAIN_CHAR_TIME ) );

  000aa	56		 push	 esi
  000ab	85 c0		 test	 eax, eax
  000ad	0f 88 84 02 00
	00		 js	 $LN5@OnRender@2
  000b3	6a 0b		 push	 11			; 0000000bH
  000b5	e8 00 00 00 00	 call	 ?GetSingleton@ioEventManager@@SAAAV1@XZ ; ioEventManager::GetSingleton
  000ba	8b c8		 mov	 ecx, eax
  000bc	e8 00 00 00 00	 call	 ?GetValue@ioEventManager@@QAEHW4EventType@@H@Z ; ioEventManager::GetValue
  000c1	33 c9		 xor	 ecx, ecx
  000c3	41		 inc	 ecx
  000c4	3b c1		 cmp	 eax, ecx
  000c6	7d 05		 jge	 SHORT $LN9@OnRender@2
  000c8	89 4d f4	 mov	 DWORD PTR _iTotalMS$515624[ebp], ecx
  000cb	eb 12		 jmp	 SHORT $LN10@OnRender@2
$LN9@OnRender@2:
  000cd	56		 push	 esi
  000ce	6a 0b		 push	 11			; 0000000bH
  000d0	e8 00 00 00 00	 call	 ?GetSingleton@ioEventManager@@SAAAV1@XZ ; ioEventManager::GetSingleton
  000d5	8b c8		 mov	 ecx, eax
  000d7	e8 00 00 00 00	 call	 ?GetValue@ioEventManager@@QAEHW4EventType@@H@Z ; ioEventManager::GetValue
  000dc	89 45 f4	 mov	 DWORD PTR _iTotalMS$515624[ebp], eax
$LN10@OnRender@2:

; 800  : 			int iCurMS = pEventNode->GetValue( VA_CMC_MAGIC_CODE );

  000df	8b 4d fc	 mov	 ecx, DWORD PTR _pEventNode$[ebp]
  000e2	56		 push	 esi
  000e3	e8 00 00 00 00	 call	 ?GetValue@EventUserNode@@QAEHH@Z ; EventUserNode::GetValue
  000e8	89 45 f0	 mov	 DWORD PTR _iCurMS$515625[ebp], eax

; 801  : 			float fTempPer = (float)iCurMS / (float)iTotalMS;
; 802  : 			// 시간 게이지
; 803  : 			if( m_pGaugeBack && m_pGaugeLine && m_pTimeColon && m_pTimeText )

  000eb	39 b7 90 01 00
	00		 cmp	 DWORD PTR [edi+400], esi
  000f1	0f 84 3b 02 00
	00		 je	 $LN2@OnRender@2
  000f7	39 b7 94 01 00
	00		 cmp	 DWORD PTR [edi+404], esi
  000fd	0f 84 2f 02 00
	00		 je	 $LN2@OnRender@2
  00103	39 b7 9c 01 00
	00		 cmp	 DWORD PTR [edi+412], esi
  00109	0f 84 23 02 00
	00		 je	 $LN2@OnRender@2
  0010f	39 b7 98 01 00
	00		 cmp	 DWORD PTR [edi+408], esi
  00115	0f 84 17 02 00
	00		 je	 $LN2@OnRender@2

; 804  : 			{
; 805  : 				m_pGaugeBack->Render( iXPos + 17, iYPos + 68 );

  0011b	8b 8f 90 01 00
	00		 mov	 ecx, DWORD PTR [edi+400]
  00121	8b 45 f8	 mov	 eax, DWORD PTR _iYPos$[ebp]
  00124	56		 push	 esi
  00125	56		 push	 esi
  00126	56		 push	 esi
  00127	83 c0 44	 add	 eax, 68			; 00000044H
  0012a	56		 push	 esi
  0012b	0f 57 c0	 xorps	 xmm0, xmm0
  0012e	f3 0f 2a c0	 cvtsi2ss xmm0, eax
  00132	51		 push	 ecx
  00133	8d 43 11	 lea	 eax, DWORD PTR [ebx+17]
  00136	51		 push	 ecx
  00137	0f 57 c9	 xorps	 xmm1, xmm1
  0013a	f3 0f 2a c8	 cvtsi2ss xmm1, eax
  0013e	8b 01		 mov	 eax, DWORD PTR [ecx]
  00140	f3 0f 11 44 24
	04		 movss	 DWORD PTR [esp+4], xmm0
  00146	f3 0f 11 45 fc	 movss	 DWORD PTR tv440[ebp], xmm0
  0014b	f3 0f 11 4d ec	 movss	 DWORD PTR tv442[ebp], xmm1
  00150	f3 0f 11 0c 24	 movss	 DWORD PTR [esp], xmm1
  00155	ff 10		 call	 DWORD PTR [eax]

; 806  : 				m_pGaugeLine->RenderWidthCut( iXPos + 17, iYPos + 68, 0, (float)m_pGaugeLine->GetWidth() * fTempPer );

  00157	66 0f 6e 45 f0	 movd	 xmm0, DWORD PTR _iCurMS$515625[ebp]
  0015c	8b 8f 94 01 00
	00		 mov	 ecx, DWORD PTR [edi+404]
  00162	56		 push	 esi
  00163	56		 push	 esi
  00164	0f 5b c0	 cvtdq2ps xmm0, xmm0
  00167	56		 push	 esi
  00168	f3 0f 11 45 f0	 movss	 DWORD PTR tv447[ebp], xmm0
  0016d	ff 15 00 00 00
	00		 call	 DWORD PTR __imp_?GetWidth@ioUIRenderElement@@QBEHXZ
  00173	66 0f 6e 55 f4	 movd	 xmm2, DWORD PTR _iTotalMS$515624[ebp]
  00178	f3 0f 10 4d f0	 movss	 xmm1, DWORD PTR tv447[ebp]
  0017d	0f 57 c0	 xorps	 xmm0, xmm0
  00180	f3 0f 2a c0	 cvtsi2ss xmm0, eax
  00184	0f 5a c9	 cvtps2pd xmm1, xmm1
  00187	0f 5b d2	 cvtdq2ps xmm2, xmm2
  0018a	f3 0f 5a d2	 cvtss2sd xmm2, xmm2
  0018e	f2 0f 5e ca	 divsd	 xmm1, xmm2
  00192	0f 5a c0	 cvtps2pd xmm0, xmm0
  00195	f2 0f 5a c9	 cvtsd2ss xmm1, xmm1
  00199	f3 0f 5a c9	 cvtss2sd xmm1, xmm1
  0019d	f2 0f 59 c1	 mulsd	 xmm0, xmm1
  001a1	f2 0f 2c c0	 cvttsd2si eax, xmm0
  001a5	f3 0f 10 45 fc	 movss	 xmm0, DWORD PTR tv440[ebp]
  001aa	50		 push	 eax
  001ab	56		 push	 esi
  001ac	51		 push	 ecx
  001ad	51		 push	 ecx
  001ae	8b 8f 94 01 00
	00		 mov	 ecx, DWORD PTR [edi+404]
  001b4	f3 0f 11 44 24
	04		 movss	 DWORD PTR [esp+4], xmm0
  001ba	f3 0f 10 45 ec	 movss	 xmm0, DWORD PTR tv442[ebp]
  001bf	f3 0f 11 04 24	 movss	 DWORD PTR [esp], xmm0
  001c4	ff 15 00 00 00
	00		 call	 DWORD PTR __imp_?RenderWidthCut@ioUIRenderImage@@QAEXMMHHW4UIRenderType@@W4TextureFilterOption@@0@Z

; 807  : 				m_pTimeText->RenderNum( iXPos + 82, iYPos + 70, 0 );

  001ca	f3 0f 10 0d 00
	00 00 00	 movss	 xmm1, DWORD PTR __real@3f800000
  001d2	8b 45 f8	 mov	 eax, DWORD PTR _iYPos$[ebp]
  001d5	56		 push	 esi
  001d6	56		 push	 esi
  001d7	56		 push	 esi
  001d8	56		 push	 esi
  001d9	51		 push	 ecx
  001da	51		 push	 ecx
  001db	f3 0f 11 4c 24
	04		 movss	 DWORD PTR [esp+4], xmm1
  001e1	0f 57 c9	 xorps	 xmm1, xmm1
  001e4	f3 0f 11 0c 24	 movss	 DWORD PTR [esp], xmm1
  001e9	56		 push	 esi
  001ea	51		 push	 ecx
  001eb	83 c0 46	 add	 eax, 70			; 00000046H
  001ee	0f 57 c0	 xorps	 xmm0, xmm0
  001f1	f3 0f 2a c0	 cvtsi2ss xmm0, eax
  001f5	51		 push	 ecx
  001f6	8b 8f 98 01 00
	00		 mov	 ecx, DWORD PTR [edi+408]
  001fc	f3 0f 11 44 24
	04		 movss	 DWORD PTR [esp+4], xmm0
  00202	f3 0f 11 45 fc	 movss	 DWORD PTR tv458[ebp], xmm0
  00207	8d 43 52	 lea	 eax, DWORD PTR [ebx+82]
  0020a	0f 57 c0	 xorps	 xmm0, xmm0
  0020d	f3 0f 2a c0	 cvtsi2ss xmm0, eax
  00211	f3 0f 11 04 24	 movss	 DWORD PTR [esp], xmm0
  00216	ff 15 00 00 00
	00		 call	 DWORD PTR __imp_?RenderNum@ioUIRenderImage@@QAEXMMHMMW4UIRenderType@@W4TextureFilterOption@@0W4RenerNumerFormatting@1@@Z

; 808  : 				m_pTimeColon->Render( iXPos + 89, iYPos + 70 );

  0021c	8b 8f 9c 01 00
	00		 mov	 ecx, DWORD PTR [edi+412]
  00222	8b 01		 mov	 eax, DWORD PTR [ecx]
  00224	56		 push	 esi
  00225	56		 push	 esi
  00226	56		 push	 esi
  00227	f3 0f 10 45 fc	 movss	 xmm0, DWORD PTR tv458[ebp]
  0022c	56		 push	 esi
  0022d	51		 push	 ecx
  0022e	51		 push	 ecx
  0022f	f3 0f 11 44 24
	04		 movss	 DWORD PTR [esp+4], xmm0
  00235	8d 53 59	 lea	 edx, DWORD PTR [ebx+89]
  00238	0f 57 c0	 xorps	 xmm0, xmm0
  0023b	f3 0f 2a c2	 cvtsi2ss xmm0, edx
  0023f	f3 0f 11 04 24	 movss	 DWORD PTR [esp], xmm0
  00244	ff 10		 call	 DWORD PTR [eax]

; 809  : 
; 810  : 				int iNum = (float)( (float)iCurMS / 1000 ) / 60;

  00246	f3 0f 10 45 f0	 movss	 xmm0, DWORD PTR tv447[ebp]
  0024b	0f 5a c0	 cvtps2pd xmm0, xmm0
  0024e	f2 0f 5e 05 00
	00 00 00	 divsd	 xmm0, QWORD PTR __real@408f400000000000
  00256	f2 0f 5a c0	 cvtsd2ss xmm0, xmm0
  0025a	f3 0f 5a c0	 cvtss2sd xmm0, xmm0
  0025e	f2 0f 5e 05 00
	00 00 00	 divsd	 xmm0, QWORD PTR __real@404e000000000000
  00266	f2 0f 2c c8	 cvttsd2si ecx, xmm0
  0026a	89 4d ec	 mov	 DWORD PTR _iNum$515631[ebp], ecx

; 811  : 				if( iNum < 10 )

  0026d	83 f9 0a	 cmp	 ecx, 10			; 0000000aH
  00270	7d 69		 jge	 SHORT $LN3@OnRender@2

; 812  : 				{
; 813  : 					m_pTimeText->RenderNum( iXPos + 92, iYPos + 70, 0 );

  00272	f3 0f 10 05 00
	00 00 00	 movss	 xmm0, DWORD PTR __real@3f800000
  0027a	56		 push	 esi
  0027b	56		 push	 esi
  0027c	56		 push	 esi
  0027d	56		 push	 esi
  0027e	51		 push	 ecx
  0027f	51		 push	 ecx
  00280	f3 0f 11 44 24
	04		 movss	 DWORD PTR [esp+4], xmm0
  00286	0f 57 c0	 xorps	 xmm0, xmm0
  00289	f3 0f 11 04 24	 movss	 DWORD PTR [esp], xmm0
  0028e	f3 0f 10 45 fc	 movss	 xmm0, DWORD PTR tv458[ebp]
  00293	56		 push	 esi
  00294	51		 push	 ecx
  00295	51		 push	 ecx
  00296	8b 8f 98 01 00
	00		 mov	 ecx, DWORD PTR [edi+408]
  0029c	f3 0f 11 44 24
	04		 movss	 DWORD PTR [esp+4], xmm0
  002a2	8d 43 5c	 lea	 eax, DWORD PTR [ebx+92]
  002a5	0f 57 c0	 xorps	 xmm0, xmm0
  002a8	f3 0f 2a c0	 cvtsi2ss xmm0, eax
  002ac	f3 0f 11 04 24	 movss	 DWORD PTR [esp], xmm0
  002b1	ff 15 00 00 00
	00		 call	 DWORD PTR __imp_?RenderNum@ioUIRenderImage@@QAEXMMHMMW4UIRenderType@@W4TextureFilterOption@@0W4RenerNumerFormatting@1@@Z

; 814  : 					m_pTimeText->RenderNum( iXPos + 99, iYPos + 70, iNum );

  002b7	f3 0f 10 05 00
	00 00 00	 movss	 xmm0, DWORD PTR __real@3f800000
  002bf	56		 push	 esi
  002c0	56		 push	 esi
  002c1	56		 push	 esi
  002c2	56		 push	 esi
  002c3	51		 push	 ecx
  002c4	51		 push	 ecx
  002c5	f3 0f 11 44 24
	04		 movss	 DWORD PTR [esp+4], xmm0
  002cb	0f 57 c0	 xorps	 xmm0, xmm0
  002ce	f3 0f 11 04 24	 movss	 DWORD PTR [esp], xmm0
  002d3	ff 75 ec	 push	 DWORD PTR _iNum$515631[ebp]
  002d6	8d 43 63	 lea	 eax, DWORD PTR [ebx+99]

; 815  : 				}
; 816  : 				else

  002d9	eb 32		 jmp	 SHORT $LN14@OnRender@2
$LN3@OnRender@2:

; 817  : 				{
; 818  : 					m_pTimeText->RenderNum( iXPos + 92, iYPos + 70, iNum, -FLOAT1 );

  002db	b8 01 00 00 00	 mov	 eax, 1
  002e0	f3 0f 10 05 00
	00 00 00	 movss	 xmm0, DWORD PTR __real@3f800000
  002e8	56		 push	 esi
  002e9	56		 push	 esi
  002ea	56		 push	 esi
  002eb	56		 push	 esi
  002ec	51		 push	 ecx
  002ed	51		 push	 ecx
  002ee	89 45 ec	 mov	 DWORD PTR tv268[ebp], eax
  002f1	db 45 ec	 fild	 DWORD PTR tv268[ebp]
  002f4	f3 0f 11 44 24
	04		 movss	 DWORD PTR [esp+4], xmm0
  002fa	85 c0		 test	 eax, eax
  002fc	79 06		 jns	 SHORT $LN13@OnRender@2
  002fe	d8 05 00 00 00
	00		 fadd	 DWORD PTR __real@4f800000
$LN13@OnRender@2:
  00304	d9 e0		 fchs
  00306	8d 43 5c	 lea	 eax, DWORD PTR [ebx+92]
  00309	d9 1c 24	 fstp	 DWORD PTR [esp]
  0030c	51		 push	 ecx
$LN14@OnRender@2:
  0030d	f3 0f 10 45 fc	 movss	 xmm0, DWORD PTR tv458[ebp]
  00312	51		 push	 ecx
  00313	51		 push	 ecx
  00314	8b 8f 98 01 00
	00		 mov	 ecx, DWORD PTR [edi+408]
  0031a	f3 0f 11 44 24
	04		 movss	 DWORD PTR [esp+4], xmm0
  00320	0f 57 c0	 xorps	 xmm0, xmm0
  00323	f3 0f 2a c0	 cvtsi2ss xmm0, eax
  00327	f3 0f 11 04 24	 movss	 DWORD PTR [esp], xmm0
  0032c	ff 15 00 00 00
	00		 call	 DWORD PTR __imp_?RenderNum@ioUIRenderImage@@QAEXMMHMMW4UIRenderType@@W4TextureFilterOption@@0W4RenerNumerFormatting@1@@Z
$LN2@OnRender@2:

; 819  : 				}
; 820  : 			}
; 821  : 			g_FontMgr.PrintText( iXPos + 94, iYPos + 38, FONT_SIZE_12, STR(1) );

  00332	56		 push	 esi
  00333	6a 01		 push	 1

; 822  : 		}
; 823  : 		else

  00335	eb 02		 jmp	 SHORT $LN15@OnRender@2
$LN5@OnRender@2:

; 824  : 		{
; 825  : 			// 찬스 사용
; 826  : 			g_FontMgr.PrintText( iXPos + 94, iYPos + 38, FONT_SIZE_12, STR(2) );

  00337	6a 02		 push	 2
$LN15@OnRender@2:
  00339	68 00 00 00 00	 push	 OFFSET ??_C@_00CNPNBAHC@?$AA@
  0033e	68 00 00 00 00	 push	 OFFSET ??_C@_0CF@FPPDPJCJ@EventChanceMortmainCharWnd?3?3OnRe@
  00343	ff 15 00 00 00
	00		 call	 DWORD PTR __imp_?GetSingleton@ioStringManager@@SAAAV1@XZ
  00349	8b c8		 mov	 ecx, eax
  0034b	ff 15 00 00 00
	00		 call	 DWORD PTR __imp_?GetString@ioStringManager@@QAEPADPBD0HW4FileNamePrefix@1@@Z
  00351	f3 0f 10 05 00
	00 00 00	 movss	 xmm0, DWORD PTR __real@3f19999a
  00359	50		 push	 eax
  0035a	8b 45 f8	 mov	 eax, DWORD PTR _iYPos$[ebp]
  0035d	83 ec 0c	 sub	 esp, 12			; 0000000cH
  00360	f3 0f 11 44 24
	08		 movss	 DWORD PTR [esp+8], xmm0
  00366	0f 57 c0	 xorps	 xmm0, xmm0
  00369	83 c0 26	 add	 eax, 38			; 00000026H
  0036c	f3 0f 2a c0	 cvtsi2ss xmm0, eax
  00370	f3 0f 11 44 24
	04		 movss	 DWORD PTR [esp+4], xmm0
  00376	0f 57 c0	 xorps	 xmm0, xmm0
  00379	83 c3 5e	 add	 ebx, 94			; 0000005eH
  0037c	f3 0f 2a c3	 cvtsi2ss xmm0, ebx
  00380	f3 0f 11 04 24	 movss	 DWORD PTR [esp], xmm0
  00385	ff 15 00 00 00
	00		 call	 DWORD PTR __imp_?GetSingleton@ioFontManager@@SAAAV1@XZ
  0038b	50		 push	 eax
  0038c	ff 15 00 00 00
	00		 call	 DWORD PTR __imp_?PrintText@ioFontManager@@QAAXMMMPBDZZ
  00392	83 c4 14	 add	 esp, 20			; 00000014H
$LN1@OnRender@2:
  00395	5f		 pop	 edi
  00396	5e		 pop	 esi
  00397	5b		 pop	 ebx

; 827  : 		}
; 828  : 	}
; 829  : }

  00398	c9		 leave
  00399	c3		 ret	 0
?OnRender@EventChanceMortmainCharWnd@@MAEXXZ ENDP	; EventChanceMortmainCharWnd::OnRender
_TEXT	ENDS
PUBLIC	??_7EventChanceRollingWnd@@6B@			; EventChanceRollingWnd::`vftable'
PUBLIC	??0EventChanceRollingWnd@@QAE@XZ		; EventChanceRollingWnd::EventChanceRollingWnd
PUBLIC	??_R4EventChanceRollingWnd@@6B@			; EventChanceRollingWnd::`RTTI Complete Object Locator'
PUBLIC	??_R0?AVEventChanceRollingWnd@@@8		; EventChanceRollingWnd `RTTI Type Descriptor'
PUBLIC	??_R3EventChanceRollingWnd@@8			; EventChanceRollingWnd::`RTTI Class Hierarchy Descriptor'
PUBLIC	??_R2EventChanceRollingWnd@@8			; EventChanceRollingWnd::`RTTI Base Class Array'
PUBLIC	??_R1A@?0A@EA@EventChanceRollingWnd@@8		; EventChanceRollingWnd::`RTTI Base Class Descriptor at (0,-1,0,64)'
PUBLIC	?AddRenderImage@EventChanceRollingWnd@@MAEXABVioHashString@@PAVioUIRenderImage@@@Z ; EventChanceRollingWnd::AddRenderImage
PUBLIC	?ParseExtraInfo@EventChanceRollingWnd@@MAEXAAVioXMLElement@@@Z ; EventChanceRollingWnd::ParseExtraInfo
PUBLIC	?OnRender@EventChanceRollingWnd@@MAEXXZ		; EventChanceRollingWnd::OnRender
PUBLIC	?OnProcess@EventChanceRollingWnd@@MAEXM@Z	; EventChanceRollingWnd::OnProcess
PUBLIC	?iwm_command@EventChanceRollingWnd@@UAEXPAVioWnd@@HK@Z ; EventChanceRollingWnd::iwm_command
PUBLIC	?iwm_show@EventChanceRollingWnd@@UAEXXZ		; EventChanceRollingWnd::iwm_show
PUBLIC	?iwm_hide@EventChanceRollingWnd@@UAEXXZ		; EventChanceRollingWnd::iwm_hide
PUBLIC	?iwm_esc@EventChanceRollingWnd@@UAE_NXZ		; EventChanceRollingWnd::iwm_esc
EXTRN	??_EEventChanceRollingWnd@@UAEPAXI@Z:PROC	; EventChanceRollingWnd::`vector deleting destructor'
;	COMDAT ??_R1A@?0A@EA@EventChanceRollingWnd@@8
rdata$r	SEGMENT
??_R1A@?0A@EA@EventChanceRollingWnd@@8 DD FLAT:??_R0?AVEventChanceRollingWnd@@@8 ; EventChanceRollingWnd::`RTTI Base Class Descriptor at (0,-1,0,64)'
	DD	02H
	DD	00H
	DD	0ffffffffH
	DD	00H
	DD	040H
	DD	FLAT:??_R3EventChanceRollingWnd@@8
rdata$r	ENDS
;	COMDAT ??_R2EventChanceRollingWnd@@8
rdata$r	SEGMENT
??_R2EventChanceRollingWnd@@8 DD FLAT:??_R1A@?0A@EA@EventChanceRollingWnd@@8 ; EventChanceRollingWnd::`RTTI Base Class Array'
	DD	FLAT:??_R1A@?0A@EA@ioMovingWnd@@8
	DD	FLAT:??_R1A@?0A@EA@ioWnd@@8
rdata$r	ENDS
;	COMDAT ??_R3EventChanceRollingWnd@@8
rdata$r	SEGMENT
??_R3EventChanceRollingWnd@@8 DD 00H			; EventChanceRollingWnd::`RTTI Class Hierarchy Descriptor'
	DD	00H
	DD	03H
	DD	FLAT:??_R2EventChanceRollingWnd@@8
rdata$r	ENDS
;	COMDAT ??_R0?AVEventChanceRollingWnd@@@8
_DATA	SEGMENT
??_R0?AVEventChanceRollingWnd@@@8 DD FLAT:??_7type_info@@6B@ ; EventChanceRollingWnd `RTTI Type Descriptor'
	DD	00H
	DB	'.?AVEventChanceRollingWnd@@', 00H
_DATA	ENDS
;	COMDAT ??_R4EventChanceRollingWnd@@6B@
rdata$r	SEGMENT
??_R4EventChanceRollingWnd@@6B@ DD 00H			; EventChanceRollingWnd::`RTTI Complete Object Locator'
	DD	00H
	DD	00H
	DD	FLAT:??_R0?AVEventChanceRollingWnd@@@8
	DD	FLAT:??_R3EventChanceRollingWnd@@8
rdata$r	ENDS
;	COMDAT ??_7EventChanceRollingWnd@@6B@
CONST	SEGMENT
??_7EventChanceRollingWnd@@6B@ DD FLAT:??_R4EventChanceRollingWnd@@6B@ ; EventChanceRollingWnd::`vftable'
	DD	FLAT:?AddRenderFrame@ioWnd@@UAEXABVioHashString@@PAVioUIRenderFrame@@@Z
	DD	FLAT:?AddRenderImage@EventChanceRollingWnd@@MAEXABVioHashString@@PAVioUIRenderImage@@@Z
	DD	FLAT:?AddTooltipHelp@ioWnd@@UAEXABVioHashString@@00@Z
	DD	FLAT:?ParseExtraInfo@EventChanceRollingWnd@@MAEXAAVioXMLElement@@@Z
	DD	FLAT:?AddNamedRenderImage@ioWnd@@UAEXABVioHashString@@PAVioUIRenderImage@@@Z
	DD	FLAT:?RemoveNamedRenderImage@ioWnd@@UAEXABVioHashString@@@Z
	DD	FLAT:?GetNamedRenderImage@ioWnd@@UBEPAVioUIRenderImage@@ABVioHashString@@@Z
	DD	FLAT:?SetWindowAlpha@ioWnd@@UAEXH@Z
	DD	FLAT:?SetActive@ioWnd@@UAEXXZ
	DD	FLAT:?SetInActive@ioWnd@@UAEXXZ
	DD	FLAT:?ClearElementImageList@ioWnd@@UAEXXZ
	DD	FLAT:?SetSize@ioWnd@@UAEXHH@Z
	DD	FLAT:?SetPositionToDefault@ioMovingWnd@@UAEXHH_N0@Z
	DD	FLAT:?IsNeedProcess@ioWnd@@UBE_NXZ
	DD	FLAT:?IsCanMouseReaction@ioWnd@@UBE_NXZ
	DD	FLAT:?AddChild@ioWnd@@UAEXPAV1@@Z
	DD	FLAT:?DeleteChild@ioWnd@@UAEXK@Z
	DD	FLAT:?DeleteAllChild@ioWnd@@UAEXXZ
	DD	FLAT:?OnRenderShowAndHide@ioWnd@@MAE_NXZ
	DD	FLAT:?OnRenderShowAndHideByDefault@ioWnd@@MAE_NK@Z
	DD	FLAT:?OnRenderShowAndHideByTop@ioWnd@@MAE_NK@Z
	DD	FLAT:?OnRenderShowAndHideByDown@ioWnd@@MAE_NK@Z
	DD	FLAT:?OnRender@EventChanceRollingWnd@@MAEXXZ
	DD	FLAT:?OnRenderAfterChild@ioWnd@@MAEXXZ
	DD	FLAT:?OnProcess@EventChanceRollingWnd@@MAEXM@Z
	DD	FLAT:?OnMouseProcess@ioMovingWnd@@MAEXABVioMouse@@@Z
	DD	FLAT:?CheckFrameReSize@ioWnd@@MAEXHHHH@Z
	DD	FLAT:?RenderImageList@ioWnd@@MAEXHHW4UIRenderType@@@Z
	DD	FLAT:?iwm_create@ioWnd@@UAEXXZ
	DD	FLAT:?iwm_destroy@ioWnd@@UAEXXZ
	DD	FLAT:?iwm_lbuttondown@ioMovingWnd@@UAEXABVioMouse@@@Z
	DD	FLAT:?iwm_lbuttonup@ioMovingWnd@@UAEXABVioMouse@@@Z
	DD	FLAT:?iwm_lbuttonDBLCLK@ioWnd@@UAEXABVioMouse@@@Z
	DD	FLAT:?iwm_rbuttondown@ioWnd@@UAEXABVioMouse@@@Z
	DD	FLAT:?iwm_rbuttonup@ioWnd@@UAEXABVioMouse@@@Z
	DD	FLAT:?iwm_command@EventChanceRollingWnd@@UAEXPAVioWnd@@HK@Z
	DD	FLAT:?iwm_mouseover@ioWnd@@UAEXABVioMouse@@@Z
	DD	FLAT:?iwm_mousemove@ioWnd@@UAEXABVioMouse@@@Z
	DD	FLAT:?iwm_mouseleave@ioWnd@@UAEXABVioMouse@@@Z
	DD	FLAT:?iwm_vscroll@ioWnd@@UAEXKH@Z
	DD	FLAT:?iwm_wheel@ioWnd@@UAEXH@Z
	DD	FLAT:?iwm_show@EventChanceRollingWnd@@UAEXXZ
	DD	FLAT:?iwm_hide@EventChanceRollingWnd@@UAEXXZ
	DD	FLAT:?iwm_esc@EventChanceRollingWnd@@UAE_NXZ
	DD	FLAT:?iwm_spacebar@ioWnd@@UAE_NXZ
	DD	FLAT:?iwm_gototop@ioWnd@@UAEXXZ
	DD	FLAT:?iwm_dragenter@ioWnd@@UAE?AW4IWDropEffect@@PAVioDragItem@@ABVioMouse@@@Z
	DD	FLAT:?iwm_dragover@ioWnd@@UAE?AW4IWDropEffect@@PAVioDragItem@@ABVioMouse@@@Z
	DD	FLAT:?iwm_dragleave@ioWnd@@UAEXXZ
	DD	FLAT:?iwm_dropitem@ioWnd@@UAE_NPAVioDragItem@@ABVioMouse@@PAV1@@Z
	DD	FLAT:?iwm_dropdone@ioWnd@@UAEXPAVioDragItem@@PAV1@_N@Z
	DD	FLAT:?IsEXType@ioWnd@@UBE_NXZ
	DD	FLAT:?GetWndType@ioWnd@@UBEKXZ
	DD	FLAT:?RenderWnd@ioWnd@@UAEXXZ
	DD	FLAT:?SetIDEX@ioWnd@@UAEXAAK_N@Z
	DD	FLAT:?ParseXML@ioWnd@@UAEXAAVioXMLElement@@@Z
	DD	FLAT:?GetHeaderFileName@ioWnd@@UAEPBDXZ
	DD	FLAT:?GetTemplateName@ioWnd@@UAEPBDXZ
	DD	FLAT:?GetDefClassName@ioWnd@@UBEPBDXZ
	DD	FLAT:?_Clone@ioWnd@@UAEPAV1@XZ
	DD	FLAT:?Copy@ioWnd@@UAEXPAV1@@Z
	DD	FLAT:?Save@ioWnd@@UAE_NAAVioXMLElement@@@Z
	DD	FLAT:?SetSaveData@ioWnd@@UAEXAAVioXMLElement@@@Z
	DD	FLAT:?SetPosX@ioWnd@@UAEXH@Z
	DD	FLAT:?SetPosY@ioWnd@@UAEXH@Z
	DD	FLAT:?SetWidth@ioWnd@@UAEXH@Z
	DD	FLAT:?SetHeight@ioWnd@@UAEXH@Z
	DD	FLAT:?GetNumFixedRenderFrame@ioWnd@@UBEHXZ
	DD	FLAT:?GetFixedRenderFrameType@ioWnd@@UAEPBDH@Z
	DD	FLAT:?GetRenderFrame@ioWnd@@UAEPAPAVioUIRenderElement@@PBD@Z
	DD	FLAT:?GetNumFixedRenderImage@ioWnd@@UBEHXZ
	DD	FLAT:?GetFixedRenderImageType@ioWnd@@UAEPBDH@Z
	DD	FLAT:?GetRenderImage@ioWnd@@UAEPAPAVioUIRenderElement@@PBD@Z
	DD	FLAT:?AddEffect@ioWnd@@UAEXABVioHashString@@PAVioUI3DEffectRender@@@Z
	DD	FLAT:?GetEffect@ioWnd@@UAEPAVioUI3DEffectRender@@VioHashString@@@Z
	DD	FLAT:??_EEventChanceRollingWnd@@UAEPAXI@Z
CONST	ENDS
;	COMDAT xdata$x
xdata$x	SEGMENT
__unwindtable$??0EventChanceRollingWnd@@QAE@XZ DD 0ffffffffH
	DD	FLAT:__unwindfunclet$??0EventChanceRollingWnd@@QAE@XZ$0
	DD	00H
	DD	FLAT:__unwindfunclet$??0EventChanceRollingWnd@@QAE@XZ$1
	DD	01H
	DD	FLAT:__unwindfunclet$??0EventChanceRollingWnd@@QAE@XZ$2
__ehfuncinfo$??0EventChanceRollingWnd@@QAE@XZ DD 019930522H
	DD	03H
	DD	FLAT:__unwindtable$??0EventChanceRollingWnd@@QAE@XZ
	DD	2 DUP(00H)
	DD	2 DUP(00H)
	DD	00H
	DD	01H
; Function compile flags: /Ogsp
xdata$x	ENDS
;	COMDAT ??0EventChanceRollingWnd@@QAE@XZ
_TEXT	SEGMENT
_this$ = -16						; size = 4
__$EHRec$ = -12						; size = 12
??0EventChanceRollingWnd@@QAE@XZ PROC			; EventChanceRollingWnd::EventChanceRollingWnd, COMDAT
; _this$ = ecx

; 835  : {

  00000	6a 04		 push	 4
  00002	b8 00 00 00 00	 mov	 eax, __ehhandler$??0EventChanceRollingWnd@@QAE@XZ
  00007	e8 00 00 00 00	 call	 __EH_prolog3
  0000c	8b f1		 mov	 esi, ecx
  0000e	89 75 f0	 mov	 DWORD PTR _this$[ebp], esi
  00011	ff 15 00 00 00
	00		 call	 DWORD PTR __imp_??0ioMovingWnd@@QAE@XZ
  00017	8b 3d 00 00 00
	00		 mov	 edi, DWORD PTR __imp_??0ioHashString@@QAE@XZ
  0001d	33 db		 xor	 ebx, ebx
  0001f	8d 8e ac 01 00
	00		 lea	 ecx, DWORD PTR [esi+428]
  00025	89 5d fc	 mov	 DWORD PTR __$EHRec$[ebp+8], ebx
  00028	c7 06 00 00 00
	00		 mov	 DWORD PTR [esi], OFFSET ??_7EventChanceRollingWnd@@6B@
  0002e	ff d7		 call	 edi
  00030	8d 8e bc 01 00
	00		 lea	 ecx, DWORD PTR [esi+444]
  00036	c6 45 fc 01	 mov	 BYTE PTR __$EHRec$[ebp+8], 1
  0003a	ff d7		 call	 edi
  0003c	8d 8e cc 01 00
	00		 lea	 ecx, DWORD PTR [esi+460]
  00042	c6 45 fc 02	 mov	 BYTE PTR __$EHRec$[ebp+8], 2
  00046	ff d7		 call	 edi

; 836  : 	m_pPesoIcon = NULL;

  00048	89 9e 90 01 00
	00		 mov	 DWORD PTR [esi+400], ebx

; 837  : 	m_pSoldierIcon = NULL;

  0004e	89 9e 94 01 00
	00		 mov	 DWORD PTR [esi+404], ebx

; 838  : 	m_pLotteryText = NULL;

  00054	89 9e 98 01 00
	00		 mov	 DWORD PTR [esi+408], ebx

; 839  : 	m_pCongratulationText = NULL;

  0005a	89 9e 9c 01 00
	00		 mov	 DWORD PTR [esi+412], ebx

; 840  : 	
; 841  : 	m_dwCurRandTickTime = 0;

  00060	89 9e a0 01 00
	00		 mov	 DWORD PTR [esi+416], ebx

; 842  : 	m_dwRandTime = 0;

  00066	89 9e a4 01 00
	00		 mov	 DWORD PTR [esi+420], ebx

; 843  : 	m_dwRandTickTime = 0;

  0006c	89 9e a8 01 00
	00		 mov	 DWORD PTR [esi+424], ebx

; 844  : 	m_iRandBonus = 0;

  00072	89 9e dc 01 00
	00		 mov	 DWORD PTR [esi+476], ebx

; 845  : }

  00078	8b c6		 mov	 eax, esi
  0007a	e8 00 00 00 00	 call	 __EH_epilog3
  0007f	c3		 ret	 0
_TEXT	ENDS
;	COMDAT text$x
text$x	SEGMENT
__unwindfunclet$??0EventChanceRollingWnd@@QAE@XZ$0:
  00000	8b 4d f0	 mov	 ecx, DWORD PTR _this$[ebp]
  00003	ff 25 00 00 00
	00		 jmp	 DWORD PTR __imp_??1ioMovingWnd@@UAE@XZ
__unwindfunclet$??0EventChanceRollingWnd@@QAE@XZ$1:
  00009	8b 4d f0	 mov	 ecx, DWORD PTR _this$[ebp]
  0000c	81 c1 ac 01 00
	00		 add	 ecx, 428		; 000001acH
  00012	ff 25 00 00 00
	00		 jmp	 DWORD PTR __imp_??1ioHashString@@QAE@XZ
__unwindfunclet$??0EventChanceRollingWnd@@QAE@XZ$2:
  00018	8b 4d f0	 mov	 ecx, DWORD PTR _this$[ebp]
  0001b	81 c1 bc 01 00
	00		 add	 ecx, 444		; 000001bcH
  00021	ff 25 00 00 00
	00		 jmp	 DWORD PTR __imp_??1ioHashString@@QAE@XZ
__ehhandler$??0EventChanceRollingWnd@@QAE@XZ:
  00027	8b 54 24 08	 mov	 edx, DWORD PTR [esp+8]
  0002b	8d 42 0c	 lea	 eax, DWORD PTR [edx+12]
  0002e	8b 4a ec	 mov	 ecx, DWORD PTR [edx-20]
  00031	33 c8		 xor	 ecx, eax
  00033	e8 00 00 00 00	 call	 @__security_check_cookie@4
  00038	b8 00 00 00 00	 mov	 eax, OFFSET __ehfuncinfo$??0EventChanceRollingWnd@@QAE@XZ
  0003d	e9 00 00 00 00	 jmp	 ___CxxFrameHandler3
text$x	ENDS
??0EventChanceRollingWnd@@QAE@XZ ENDP			; EventChanceRollingWnd::EventChanceRollingWnd
PUBLIC	??1EventChanceRollingWnd@@UAE@XZ		; EventChanceRollingWnd::~EventChanceRollingWnd
;	COMDAT xdata$x
xdata$x	SEGMENT
__unwindtable$??1EventChanceRollingWnd@@UAE@XZ DD 0ffffffffH
	DD	FLAT:__unwindfunclet$??1EventChanceRollingWnd@@UAE@XZ$0
	DD	00H
	DD	FLAT:__unwindfunclet$??1EventChanceRollingWnd@@UAE@XZ$1
	DD	01H
	DD	FLAT:__unwindfunclet$??1EventChanceRollingWnd@@UAE@XZ$2
	DD	02H
	DD	FLAT:__unwindfunclet$??1EventChanceRollingWnd@@UAE@XZ$3
__ehfuncinfo$??1EventChanceRollingWnd@@UAE@XZ DD 019930522H
	DD	04H
	DD	FLAT:__unwindtable$??1EventChanceRollingWnd@@UAE@XZ
	DD	2 DUP(00H)
	DD	2 DUP(00H)
	DD	00H
	DD	01H
; Function compile flags: /Ogsp
xdata$x	ENDS
;	COMDAT ??1EventChanceRollingWnd@@UAE@XZ
_TEXT	SEGMENT
_this$ = -16						; size = 4
__$EHRec$ = -12						; size = 12
??1EventChanceRollingWnd@@UAE@XZ PROC			; EventChanceRollingWnd::~EventChanceRollingWnd, COMDAT
; _this$ = ecx

; 848  : {

  00000	6a 04		 push	 4
  00002	b8 00 00 00 00	 mov	 eax, __ehhandler$??1EventChanceRollingWnd@@UAE@XZ
  00007	e8 00 00 00 00	 call	 __EH_prolog3
  0000c	8b f1		 mov	 esi, ecx
  0000e	89 75 f0	 mov	 DWORD PTR _this$[ebp], esi
  00011	c7 06 00 00 00
	00		 mov	 DWORD PTR [esi], OFFSET ??_7EventChanceRollingWnd@@6B@

; 849  : 	SAFEDELETE( m_pPesoIcon );

  00017	8b 8e 90 01 00
	00		 mov	 ecx, DWORD PTR [esi+400]
  0001d	33 db		 xor	 ebx, ebx
  0001f	c7 45 fc 03 00
	00 00		 mov	 DWORD PTR __$EHRec$[ebp+8], 3
  00026	3b cb		 cmp	 ecx, ebx
  00028	74 0d		 je	 SHORT $LN4@EventChanc@2
  0002a	8b 01		 mov	 eax, DWORD PTR [ecx]
  0002c	6a 01		 push	 1
  0002e	ff 50 40	 call	 DWORD PTR [eax+64]
  00031	89 9e 90 01 00
	00		 mov	 DWORD PTR [esi+400], ebx
$LN4@EventChanc@2:

; 850  : 	SAFEDELETE( m_pSoldierIcon );

  00037	8b 8e 94 01 00
	00		 mov	 ecx, DWORD PTR [esi+404]
  0003d	3b cb		 cmp	 ecx, ebx
  0003f	74 0d		 je	 SHORT $LN3@EventChanc@2
  00041	8b 01		 mov	 eax, DWORD PTR [ecx]
  00043	6a 01		 push	 1
  00045	ff 50 40	 call	 DWORD PTR [eax+64]
  00048	89 9e 94 01 00
	00		 mov	 DWORD PTR [esi+404], ebx
$LN3@EventChanc@2:

; 851  : 	SAFEDELETE( m_pLotteryText );

  0004e	8b 8e 98 01 00
	00		 mov	 ecx, DWORD PTR [esi+408]
  00054	3b cb		 cmp	 ecx, ebx
  00056	74 0d		 je	 SHORT $LN2@EventChanc@2
  00058	8b 01		 mov	 eax, DWORD PTR [ecx]
  0005a	6a 01		 push	 1
  0005c	ff 50 40	 call	 DWORD PTR [eax+64]
  0005f	89 9e 98 01 00
	00		 mov	 DWORD PTR [esi+408], ebx
$LN2@EventChanc@2:

; 852  : 	SAFEDELETE( m_pCongratulationText );

  00065	8b 8e 9c 01 00
	00		 mov	 ecx, DWORD PTR [esi+412]
  0006b	3b cb		 cmp	 ecx, ebx
  0006d	74 0d		 je	 SHORT $LN1@EventChanc@2
  0006f	8b 01		 mov	 eax, DWORD PTR [ecx]
  00071	6a 01		 push	 1
  00073	ff 50 40	 call	 DWORD PTR [eax+64]
  00076	89 9e 9c 01 00
	00		 mov	 DWORD PTR [esi+412], ebx
$LN1@EventChanc@2:

; 853  : }

  0007c	8b 3d 00 00 00
	00		 mov	 edi, DWORD PTR __imp_??1ioHashString@@QAE@XZ
  00082	8d 8e cc 01 00
	00		 lea	 ecx, DWORD PTR [esi+460]
  00088	c6 45 fc 02	 mov	 BYTE PTR __$EHRec$[ebp+8], 2
  0008c	ff d7		 call	 edi
  0008e	8d 8e bc 01 00
	00		 lea	 ecx, DWORD PTR [esi+444]
  00094	c6 45 fc 01	 mov	 BYTE PTR __$EHRec$[ebp+8], 1
  00098	ff d7		 call	 edi
  0009a	8d 8e ac 01 00
	00		 lea	 ecx, DWORD PTR [esi+428]
  000a0	88 5d fc	 mov	 BYTE PTR __$EHRec$[ebp+8], bl
  000a3	ff d7		 call	 edi
  000a5	83 4d fc ff	 or	 DWORD PTR __$EHRec$[ebp+8], -1
  000a9	8b ce		 mov	 ecx, esi
  000ab	ff 15 00 00 00
	00		 call	 DWORD PTR __imp_??1ioMovingWnd@@UAE@XZ
  000b1	e8 00 00 00 00	 call	 __EH_epilog3
  000b6	c3		 ret	 0
_TEXT	ENDS
;	COMDAT text$x
text$x	SEGMENT
__unwindfunclet$??1EventChanceRollingWnd@@UAE@XZ$0:
  00000	8b 4d f0	 mov	 ecx, DWORD PTR _this$[ebp]
  00003	ff 25 00 00 00
	00		 jmp	 DWORD PTR __imp_??1ioMovingWnd@@UAE@XZ
__unwindfunclet$??1EventChanceRollingWnd@@UAE@XZ$1:
  00009	8b 4d f0	 mov	 ecx, DWORD PTR _this$[ebp]
  0000c	81 c1 ac 01 00
	00		 add	 ecx, 428		; 000001acH
  00012	ff 25 00 00 00
	00		 jmp	 DWORD PTR __imp_??1ioHashString@@QAE@XZ
__unwindfunclet$??1EventChanceRollingWnd@@UAE@XZ$2:
  00018	8b 4d f0	 mov	 ecx, DWORD PTR _this$[ebp]
  0001b	81 c1 bc 01 00
	00		 add	 ecx, 444		; 000001bcH
  00021	ff 25 00 00 00
	00		 jmp	 DWORD PTR __imp_??1ioHashString@@QAE@XZ
__unwindfunclet$??1EventChanceRollingWnd@@UAE@XZ$3:
  00027	8b 4d f0	 mov	 ecx, DWORD PTR _this$[ebp]
  0002a	81 c1 cc 01 00
	00		 add	 ecx, 460		; 000001ccH
  00030	ff 25 00 00 00
	00		 jmp	 DWORD PTR __imp_??1ioHashString@@QAE@XZ
__ehhandler$??1EventChanceRollingWnd@@UAE@XZ:
  00036	8b 54 24 08	 mov	 edx, DWORD PTR [esp+8]
  0003a	8d 42 0c	 lea	 eax, DWORD PTR [edx+12]
  0003d	8b 4a ec	 mov	 ecx, DWORD PTR [edx-20]
  00040	33 c8		 xor	 ecx, eax
  00042	e8 00 00 00 00	 call	 @__security_check_cookie@4
  00047	b8 00 00 00 00	 mov	 eax, OFFSET __ehfuncinfo$??1EventChanceRollingWnd@@UAE@XZ
  0004c	e9 00 00 00 00	 jmp	 ___CxxFrameHandler3
text$x	ENDS
??1EventChanceRollingWnd@@UAE@XZ ENDP			; EventChanceRollingWnd::~EventChanceRollingWnd
PUBLIC	?SetBonusType@EventChanceRollingWnd@@SAXH@Z	; EventChanceRollingWnd::SetBonusType
; Function compile flags: /Ogsp
;	COMDAT ?SetBonusType@EventChanceRollingWnd@@SAXH@Z
_TEXT	SEGMENT
_iBonusType$ = 8					; size = 4
?SetBonusType@EventChanceRollingWnd@@SAXH@Z PROC	; EventChanceRollingWnd::SetBonusType, COMDAT

; 856  : {

  00000	55		 push	 ebp
  00001	8b ec		 mov	 ebp, esp

; 857  : 	sg_iOriginalBonus = iBonusType;

  00003	8b 45 08	 mov	 eax, DWORD PTR _iBonusType$[ebp]
  00006	a3 00 00 00 00	 mov	 DWORD PTR ?sg_iOriginalBonus@EventChanceRollingWnd@@1HA, eax ; EventChanceRollingWnd::sg_iOriginalBonus

; 858  : }

  0000b	5d		 pop	 ebp
  0000c	c3		 ret	 0
?SetBonusType@EventChanceRollingWnd@@SAXH@Z ENDP	; EventChanceRollingWnd::SetBonusType
_TEXT	ENDS
PUBLIC	??_C@_0CA@PNPNADFO@EventChanceRollingWnd?3?3iwm_show?$AA@ ; `string'
EXTRN	__imp_?HideWnd@ioGUIManager@@QAEXK_N@Z:PROC
EXTRN	__imp_?PlaySoundA@ioSoundManager@@QAEKABVioHashString@@HK@Z:PROC
EXTRN	__imp_?SetChildInActive@ioWnd@@QAEXK@Z:PROC
EXTRN	?GetSoldierIcon@ioMyInfo@@QAEPAVioUIRenderImage@@H_N@Z:PROC ; ioMyInfo::GetSoldierIcon
EXTRN	__imp_?StopSound@ioSoundManager@@QAEXABVioHashString@@K@Z:PROC
EXTRN	__imp_?GetSingleton@ioSoundManager@@SAAAV1@XZ:PROC
EXTRN	__imp_?IsEmpty@ioHashString@@QBE_NXZ:PROC
EXTRN	__imp_?SetChildActive@ioWnd@@QAEXK@Z:PROC
EXTRN	__imp_?SetTitleText@ioWnd@@QAEXPBD0H@Z:PROC
;	COMDAT ??_C@_0CA@PNPNADFO@EventChanceRollingWnd?3?3iwm_show?$AA@
CONST	SEGMENT
??_C@_0CA@PNPNADFO@EventChanceRollingWnd?3?3iwm_show?$AA@ DB 'EventChance'
	DB	'RollingWnd::iwm_show', 00H			; `string'
; Function compile flags: /Ogsp
CONST	ENDS
;	COMDAT ?iwm_show@EventChanceRollingWnd@@UAEXXZ
_TEXT	SEGMENT
_iBonusType$515683 = -4					; size = 4
_pEventNode$ = -4					; size = 4
?iwm_show@EventChanceRollingWnd@@UAEXXZ PROC		; EventChanceRollingWnd::iwm_show, COMDAT
; _this$ = ecx

; 861  : {

  00000	55		 push	 ebp
  00001	8b ec		 mov	 ebp, esp
  00003	51		 push	 ecx
  00004	53		 push	 ebx
  00005	56		 push	 esi

; 862  : 	sg_bShow = true;
; 863  : 	ChanceMortmainCharEventUserNode *pEventNode = dynamic_cast<ChanceMortmainCharEventUserNode*>( g_MyInfo.GetEventUserMgr().GetEventUserNode( EVT_CHANCE_MORTMAIN_CHAR ) );

  00006	33 db		 xor	 ebx, ebx
  00008	53		 push	 ebx
  00009	68 00 00 00 00	 push	 OFFSET ??_R0?AVChanceMortmainCharEventUserNode@@@8
  0000e	68 00 00 00 00	 push	 OFFSET ??_R0?AVEventUserNode@@@8
  00013	53		 push	 ebx
  00014	6a 0b		 push	 11			; 0000000bH
  00016	8b f1		 mov	 esi, ecx
  00018	c6 05 00 00 00
	00 01		 mov	 BYTE PTR ?sg_bShow@EventChanceRollingWnd@@1_NA, 1 ; EventChanceRollingWnd::sg_bShow
  0001f	e8 00 00 00 00	 call	 ?GetSingleton@ioMyInfo@@SAAAV1@XZ ; ioMyInfo::GetSingleton
  00024	8b c8		 mov	 ecx, eax
  00026	e8 00 00 00 00	 call	 ?GetEventUserMgr@ioMyInfo@@QAEAAVEventUserManager@@XZ ; ioMyInfo::GetEventUserMgr
  0002b	8b c8		 mov	 ecx, eax
  0002d	e8 00 00 00 00	 call	 ?GetEventUserNode@EventUserManager@@QAEPAVEventUserNode@@W4EventType@@@Z ; EventUserManager::GetEventUserNode
  00032	50		 push	 eax
  00033	e8 00 00 00 00	 call	 ___RTDynamicCast
  00038	8b c8		 mov	 ecx, eax
  0003a	83 c4 14	 add	 esp, 20			; 00000014H
  0003d	89 4d fc	 mov	 DWORD PTR _pEventNode$[ebp], ecx

; 864  : 	if( pEventNode )

  00040	3b cb		 cmp	 ecx, ebx
  00042	0f 84 61 01 00
	00		 je	 $LN9@iwm_show

; 865  : 	{
; 866  : 		if( pEventNode->GetValue( VA_CMC_MAGIC_CODE ) == -1 )

  00048	57		 push	 edi
  00049	53		 push	 ebx
  0004a	e8 00 00 00 00	 call	 ?GetValue@EventUserNode@@QAEHH@Z ; EventUserNode::GetValue

; 867  : 		{
; 868  : 			ioWnd *pChance = FindChildWnd( ID_CHANCE );

  0004f	6a 02		 push	 2
  00051	8b ce		 mov	 ecx, esi
  00053	83 f8 ff	 cmp	 eax, -1
  00056	75 18		 jne	 SHORT $LN15@iwm_show
  00058	ff 15 00 00 00
	00		 call	 DWORD PTR __imp_?FindChildWnd@ioWnd@@QAEPAV1@K@Z
  0005e	8b f8		 mov	 edi, eax

; 869  : 			if( pChance )

  00060	3b fb		 cmp	 edi, ebx
  00062	74 3f		 je	 SHORT $LN21@iwm_show

; 870  : 			{
; 871  : 				pChance->SetTitleText( STR(1) );

  00064	53		 push	 ebx
  00065	b8 00 00 00 00	 mov	 eax, OFFSET ??_C@_00CNPNBAHC@?$AA@
  0006a	50		 push	 eax
  0006b	53		 push	 ebx
  0006c	6a 01		 push	 1

; 872  : 			}
; 873  : 		}
; 874  : 		else

  0006e	eb 16		 jmp	 SHORT $LN24@iwm_show
$LN15@iwm_show:

; 875  : 		{
; 876  : 			ioWnd *pChance = FindChildWnd( ID_CHANCE );

  00070	ff 15 00 00 00
	00		 call	 DWORD PTR __imp_?FindChildWnd@ioWnd@@QAEPAV1@K@Z
  00076	8b f8		 mov	 edi, eax

; 877  : 			if( pChance )

  00078	3b fb		 cmp	 edi, ebx
  0007a	74 27		 je	 SHORT $LN21@iwm_show

; 878  : 			{
; 879  : 				pChance->SetTitleText( STR(2) );

  0007c	53		 push	 ebx
  0007d	b8 00 00 00 00	 mov	 eax, OFFSET ??_C@_00CNPNBAHC@?$AA@
  00082	50		 push	 eax
  00083	53		 push	 ebx
  00084	6a 02		 push	 2
$LN24@iwm_show:
  00086	50		 push	 eax
  00087	68 00 00 00 00	 push	 OFFSET ??_C@_0CA@PNPNADFO@EventChanceRollingWnd?3?3iwm_show?$AA@
  0008c	ff 15 00 00 00
	00		 call	 DWORD PTR __imp_?GetSingleton@ioStringManager@@SAAAV1@XZ
  00092	8b c8		 mov	 ecx, eax
  00094	ff 15 00 00 00
	00		 call	 DWORD PTR __imp_?GetString@ioStringManager@@QAEPADPBD0HW4FileNamePrefix@1@@Z
  0009a	50		 push	 eax
  0009b	8b cf		 mov	 ecx, edi
  0009d	ff 15 00 00 00
	00		 call	 DWORD PTR __imp_?SetTitleText@ioWnd@@QAEXPBD0H@Z
$LN21@iwm_show:

; 880  : 			}
; 881  : 		}
; 882  : 
; 883  : 		if( sg_dwCurRandTime != 0 || sg_iOriginalBonus == 0 )

  000a3	39 1d 00 00 00
	00		 cmp	 DWORD PTR ?sg_dwCurRandTime@EventChanceRollingWnd@@1KA, ebx ; EventChanceRollingWnd::sg_dwCurRandTime
  000a9	0f 85 bd 00 00
	00		 jne	 $LN10@iwm_show
  000af	39 1d 00 00 00
	00		 cmp	 DWORD PTR ?sg_iOriginalBonus@EventChanceRollingWnd@@1HA, ebx ; EventChanceRollingWnd::sg_iOriginalBonus
  000b5	0f 84 b1 00 00
	00		 je	 $LN10@iwm_show

; 890  : 		}
; 891  : 		else
; 892  : 		{
; 893  : 			SetChildActive( ID_EXIT );

  000bb	8b 3d 00 00 00
	00		 mov	 edi, DWORD PTR __imp_?SetChildActive@ioWnd@@QAEXK@Z
  000c1	6a 01		 push	 1
  000c3	8b ce		 mov	 ecx, esi
  000c5	ff d7		 call	 edi

; 894  : 			SetChildActive( ID_OK );

  000c7	6a 03		 push	 3
  000c9	8b ce		 mov	 ecx, esi
  000cb	ff d7		 call	 edi

; 895  : 			if( pEventNode->GetValue( VA_CMC_MAGIC_CODE ) < 0 )

  000cd	8b 4d fc	 mov	 ecx, DWORD PTR _pEventNode$[ebp]
  000d0	53		 push	 ebx
  000d1	e8 00 00 00 00	 call	 ?GetValue@EventUserNode@@QAEHH@Z ; EventUserNode::GetValue
  000d6	85 c0		 test	 eax, eax
  000d8	79 06		 jns	 SHORT $LN7@iwm_show

; 896  : 				SetChildActive( ID_CHANCE );			

  000da	6a 02		 push	 2
  000dc	8b ce		 mov	 ecx, esi
  000de	ff d7		 call	 edi
$LN7@iwm_show:

; 897  : 
; 898  : 			if( !m_szRollingSound.IsEmpty() )

  000e0	8d 8e ac 01 00
	00		 lea	 ecx, DWORD PTR [esi+428]
  000e6	ff 15 00 00 00
	00		 call	 DWORD PTR __imp_?IsEmpty@ioHashString@@QBE_NXZ
  000ec	8b 3d 00 00 00
	00		 mov	 edi, DWORD PTR __imp_?GetSingleton@ioSoundManager@@SAAAV1@XZ
  000f2	84 c0		 test	 al, al
  000f4	75 12		 jne	 SHORT $LN6@iwm_show

; 899  : 				g_SoundMgr.StopSound( m_szRollingSound, 0 );

  000f6	8d 86 ac 01 00
	00		 lea	 eax, DWORD PTR [esi+428]
  000fc	53		 push	 ebx
  000fd	50		 push	 eax
  000fe	ff d7		 call	 edi
  00100	8b c8		 mov	 ecx, eax
  00102	ff 15 00 00 00
	00		 call	 DWORD PTR __imp_?StopSound@ioSoundManager@@QAEXABVioHashString@@K@Z
$LN6@iwm_show:

; 900  : 
; 901  : 			int iBonusType = sg_iOriginalBonus % 1000;

  00108	a1 00 00 00 00	 mov	 eax, DWORD PTR ?sg_iOriginalBonus@EventChanceRollingWnd@@1HA ; EventChanceRollingWnd::sg_iOriginalBonus
  0010d	99		 cdq
  0010e	b9 e8 03 00 00	 mov	 ecx, 1000		; 000003e8H
  00113	f7 f9		 idiv	 ecx
  00115	89 55 fc	 mov	 DWORD PTR _iBonusType$515683[ebp], edx

; 902  : 			if( iBonusType != 0 )

  00118	3b d3		 cmp	 edx, ebx
  0011a	74 48		 je	 SHORT $LN5@iwm_show

; 903  : 			{
; 904  : 				SAFEDELETE( m_pSoldierIcon );

  0011c	8b 8e 94 01 00
	00		 mov	 ecx, DWORD PTR [esi+404]
  00122	3b cb		 cmp	 ecx, ebx
  00124	74 0d		 je	 SHORT $LN22@iwm_show
  00126	8b 01		 mov	 eax, DWORD PTR [ecx]
  00128	6a 01		 push	 1
  0012a	ff 50 40	 call	 DWORD PTR [eax+64]
  0012d	89 9e 94 01 00
	00		 mov	 DWORD PTR [esi+404], ebx
$LN22@iwm_show:

; 905  : 				m_pSoldierIcon = g_MyInfo.GetSoldierIcon( iBonusType, true );

  00133	6a 01		 push	 1
  00135	ff 75 fc	 push	 DWORD PTR _iBonusType$515683[ebp]
  00138	e8 00 00 00 00	 call	 ?GetSingleton@ioMyInfo@@SAAAV1@XZ ; ioMyInfo::GetSingleton
  0013d	8b c8		 mov	 ecx, eax
  0013f	e8 00 00 00 00	 call	 ?GetSoldierIcon@ioMyInfo@@QAEPAVioUIRenderImage@@H_N@Z ; ioMyInfo::GetSoldierIcon
  00144	89 86 94 01 00
	00		 mov	 DWORD PTR [esi+404], eax

; 906  : 
; 907  : 				if( !m_szCharSound.IsEmpty() )

  0014a	81 c6 cc 01 00
	00		 add	 esi, 460		; 000001ccH
$LN26@iwm_show:
  00150	8b ce		 mov	 ecx, esi
  00152	ff 15 00 00 00
	00		 call	 DWORD PTR __imp_?IsEmpty@ioHashString@@QBE_NXZ
  00158	84 c0		 test	 al, al
  0015a	75 4c		 jne	 SHORT $LN23@iwm_show

; 908  : 					g_SoundMgr.PlaySound( m_szCharSound );

  0015c	6a 04		 push	 4
  0015e	53		 push	 ebx
  0015f	56		 push	 esi
  00160	ff d7		 call	 edi

; 909  : 			}		
; 910  : 			else

  00162	eb 3c		 jmp	 SHORT $LN25@iwm_show
$LN5@iwm_show:

; 911  : 			{
; 912  : 				if( !m_szPesoSound.IsEmpty() )

  00164	81 c6 bc 01 00
	00		 add	 esi, 444		; 000001bcH

; 913  : 					g_SoundMgr.PlaySound( m_szPesoSound );

  0016a	eb e4		 jmp	 SHORT $LN26@iwm_show
$LN10@iwm_show:

; 884  : 		{
; 885  : 			SetChildInActive( ID_EXIT );

  0016c	8b 3d 00 00 00
	00		 mov	 edi, DWORD PTR __imp_?SetChildInActive@ioWnd@@QAEXK@Z
  00172	6a 01		 push	 1
  00174	8b ce		 mov	 ecx, esi
  00176	ff d7		 call	 edi

; 886  : 			SetChildInActive( ID_CHANCE );

  00178	6a 02		 push	 2
  0017a	8b ce		 mov	 ecx, esi
  0017c	ff d7		 call	 edi

; 887  : 			SetChildInActive( ID_OK );

  0017e	6a 03		 push	 3
  00180	8b ce		 mov	 ecx, esi
  00182	ff d7		 call	 edi

; 888  : 			if( !m_szRollingSound.IsEmpty() )

  00184	81 c6 ac 01 00
	00		 add	 esi, 428		; 000001acH
  0018a	8b ce		 mov	 ecx, esi
  0018c	ff 15 00 00 00
	00		 call	 DWORD PTR __imp_?IsEmpty@ioHashString@@QBE_NXZ
  00192	84 c0		 test	 al, al
  00194	75 12		 jne	 SHORT $LN23@iwm_show

; 889  : 				g_SoundMgr.PlaySound( m_szRollingSound, DSBVOLUME_MAX, PSM_LOOP | PSM_THREAD );

  00196	6a 06		 push	 6
  00198	53		 push	 ebx
  00199	56		 push	 esi
  0019a	ff 15 00 00 00
	00		 call	 DWORD PTR __imp_?GetSingleton@ioSoundManager@@SAAAV1@XZ
$LN25@iwm_show:
  001a0	8b c8		 mov	 ecx, eax
  001a2	ff 15 00 00 00
	00		 call	 DWORD PTR __imp_?PlaySoundA@ioSoundManager@@QAEKABVioHashString@@HK@Z
$LN23@iwm_show:
  001a8	5f		 pop	 edi
$LN9@iwm_show:

; 914  : 			}
; 915  : 		}
; 916  : 	}
; 917  : 	g_GUIMgr.HideWnd( EVENT_CHANCE_MORTMAIN_CHAR_WND );

  001a9	53		 push	 ebx
  001aa	68 cd 17 00 00	 push	 6093			; 000017cdH
  001af	e8 00 00 00 00	 call	 ?GetSingleton@ioSP2GUIManager@@SAAAV1@XZ ; ioSP2GUIManager::GetSingleton
  001b4	8b c8		 mov	 ecx, eax
  001b6	ff 15 00 00 00
	00		 call	 DWORD PTR __imp_?HideWnd@ioGUIManager@@QAEXK_N@Z
  001bc	5e		 pop	 esi
  001bd	5b		 pop	 ebx

; 918  : }

  001be	c9		 leave
  001bf	c3		 ret	 0
?iwm_show@EventChanceRollingWnd@@UAEXXZ ENDP		; EventChanceRollingWnd::iwm_show
_TEXT	ENDS
EXTRN	__imp_?ShowWnd@ioGUIManager@@QAEXK_N@Z:PROC
; Function compile flags: /Ogsp
;	COMDAT ?iwm_hide@EventChanceRollingWnd@@UAEXXZ
_TEXT	SEGMENT
?iwm_hide@EventChanceRollingWnd@@UAEXXZ PROC		; EventChanceRollingWnd::iwm_hide, COMDAT
; _this$ = ecx

; 921  : {

  00000	53		 push	 ebx
  00001	56		 push	 esi
  00002	8b d9		 mov	 ebx, ecx
  00004	57		 push	 edi

; 922  : 	if( !m_szRollingSound.IsEmpty() )

  00005	8d 8b ac 01 00
	00		 lea	 ecx, DWORD PTR [ebx+428]
  0000b	ff 15 00 00 00
	00		 call	 DWORD PTR __imp_?IsEmpty@ioHashString@@QBE_NXZ
  00011	8b 35 00 00 00
	00		 mov	 esi, DWORD PTR __imp_?StopSound@ioSoundManager@@QAEXABVioHashString@@K@Z
  00017	8b 3d 00 00 00
	00		 mov	 edi, DWORD PTR __imp_?GetSingleton@ioSoundManager@@SAAAV1@XZ
  0001d	84 c0		 test	 al, al
  0001f	75 0f		 jne	 SHORT $LN3@iwm_hide

; 923  : 		g_SoundMgr.StopSound( m_szRollingSound, 0 );

  00021	8d 83 ac 01 00
	00		 lea	 eax, DWORD PTR [ebx+428]
  00027	6a 00		 push	 0
  00029	50		 push	 eax
  0002a	ff d7		 call	 edi
  0002c	8b c8		 mov	 ecx, eax
  0002e	ff d6		 call	 esi
$LN3@iwm_hide:

; 924  : 	if( !m_szCharSound.IsEmpty() )

  00030	8d 8b cc 01 00
	00		 lea	 ecx, DWORD PTR [ebx+460]
  00036	ff 15 00 00 00
	00		 call	 DWORD PTR __imp_?IsEmpty@ioHashString@@QBE_NXZ
  0003c	84 c0		 test	 al, al
  0003e	75 0f		 jne	 SHORT $LN2@iwm_hide

; 925  : 		g_SoundMgr.StopSound( m_szCharSound, 0 );

  00040	8d 83 cc 01 00
	00		 lea	 eax, DWORD PTR [ebx+460]
  00046	6a 00		 push	 0
  00048	50		 push	 eax
  00049	ff d7		 call	 edi
  0004b	8b c8		 mov	 ecx, eax
  0004d	ff d6		 call	 esi
$LN2@iwm_hide:

; 926  : 	if( !m_szPesoSound.IsEmpty() )

  0004f	81 c3 bc 01 00
	00		 add	 ebx, 444		; 000001bcH
  00055	8b cb		 mov	 ecx, ebx
  00057	ff 15 00 00 00
	00		 call	 DWORD PTR __imp_?IsEmpty@ioHashString@@QBE_NXZ
  0005d	84 c0		 test	 al, al
  0005f	75 09		 jne	 SHORT $LN1@iwm_hide

; 927  : 		g_SoundMgr.StopSound( m_szPesoSound, 0 );

  00061	6a 00		 push	 0
  00063	53		 push	 ebx
  00064	ff d7		 call	 edi
  00066	8b c8		 mov	 ecx, eax
  00068	ff d6		 call	 esi
$LN1@iwm_hide:

; 928  : 
; 929  : 	g_GUIMgr.ShowWnd( EVENT_CHANCE_MORTMAIN_CHAR_WND, true );

  0006a	6a 01		 push	 1
  0006c	68 cd 17 00 00	 push	 6093			; 000017cdH
  00071	e8 00 00 00 00	 call	 ?GetSingleton@ioSP2GUIManager@@SAAAV1@XZ ; ioSP2GUIManager::GetSingleton
  00076	8b c8		 mov	 ecx, eax
  00078	ff 15 00 00 00
	00		 call	 DWORD PTR __imp_?ShowWnd@ioGUIManager@@QAEXK_N@Z
  0007e	5f		 pop	 edi
  0007f	5e		 pop	 esi
  00080	5b		 pop	 ebx

; 930  : }

  00081	c3		 ret	 0
?iwm_hide@EventChanceRollingWnd@@UAEXXZ ENDP		; EventChanceRollingWnd::iwm_hide
_TEXT	ENDS
EXTRN	__imp_?iwm_esc@ioWnd@@UAE_NXZ:PROC
; Function compile flags: /Ogsp
;	COMDAT ?iwm_esc@EventChanceRollingWnd@@UAE_NXZ
_TEXT	SEGMENT
?iwm_esc@EventChanceRollingWnd@@UAE_NXZ PROC		; EventChanceRollingWnd::iwm_esc, COMDAT
; _this$ = ecx

; 934  : 	if( sg_dwCurRandTime != 0 ) 

  00000	83 3d 00 00 00
	00 00		 cmp	 DWORD PTR ?sg_dwCurRandTime@EventChanceRollingWnd@@1KA, 0 ; EventChanceRollingWnd::sg_dwCurRandTime

; 935  : 		return false;

  00007	75 14		 jne	 SHORT $LN1@iwm_esc

; 936  : 	
; 937  : 	if( ioWnd::iwm_esc() )

  00009	ff 15 00 00 00
	00		 call	 DWORD PTR __imp_?iwm_esc@ioWnd@@UAE_NXZ
  0000f	84 c0		 test	 al, al
  00011	74 0a		 je	 SHORT $LN1@iwm_esc

; 938  : 	{
; 939  : 		sg_bShow = false;

  00013	c6 05 00 00 00
	00 00		 mov	 BYTE PTR ?sg_bShow@EventChanceRollingWnd@@1_NA, 0 ; EventChanceRollingWnd::sg_bShow

; 940  : 		return true;

  0001a	b0 01		 mov	 al, 1

; 944  : }

  0001c	c3		 ret	 0
$LN1@iwm_esc:

; 941  : 	}
; 942  : 
; 943  : 	return false;

  0001d	32 c0		 xor	 al, al

; 944  : }

  0001f	c3		 ret	 0
?iwm_esc@EventChanceRollingWnd@@UAE_NXZ ENDP		; EventChanceRollingWnd::iwm_esc
_TEXT	ENDS
PUBLIC	?StartRandAni@EventChanceRollingWnd@@QAEXXZ	; EventChanceRollingWnd::StartRandAni
EXTRN	__imp_?GetLoopSec@ioFrameTimer@@QBEKXZ:PROC
; Function compile flags: /Ogsp
;	COMDAT ?StartRandAni@EventChanceRollingWnd@@QAEXXZ
_TEXT	SEGMENT
?StartRandAni@EventChanceRollingWnd@@QAEXXZ PROC	; EventChanceRollingWnd::StartRandAni, COMDAT
; _this$ = ecx

; 1015 : 	sg_dwCurRandTime = FRAMEGETTIME();

  00000	ff 15 00 00 00
	00		 call	 DWORD PTR __imp_?GetSingleton@ioFrameTimer@@SAAAV1@XZ
  00006	8b c8		 mov	 ecx, eax
  00008	ff 15 00 00 00
	00		 call	 DWORD PTR __imp_?GetLoopSec@ioFrameTimer@@QBEKXZ

; 1016 : 	sg_iOriginalBonus= 0;

  0000e	83 25 00 00 00
	00 00		 and	 DWORD PTR ?sg_iOriginalBonus@EventChanceRollingWnd@@1HA, 0 ; EventChanceRollingWnd::sg_iOriginalBonus
  00015	a3 00 00 00 00	 mov	 DWORD PTR ?sg_dwCurRandTime@EventChanceRollingWnd@@1KA, eax ; EventChanceRollingWnd::sg_dwCurRandTime

; 1017 : }

  0001a	c3		 ret	 0
?StartRandAni@EventChanceRollingWnd@@QAEXXZ ENDP	; EventChanceRollingWnd::StartRandAni
_TEXT	ENDS
PUBLIC	??_C@_0CL@LMMLEEJC@EventChanceRollingWnd?3?3RenderOri@ ; `string'
PUBLIC	_this$GSCopy$
PUBLIC	__$ArrayPad$
PUBLIC	?RenderOriginalBonus@EventChanceRollingWnd@@IAEXHH@Z ; EventChanceRollingWnd::RenderOriginalBonus
EXTRN	?GetClassNameA@ioMyInfo@@QAEPBDHH@Z:PROC	; ioMyInfo::GetClassNameA
EXTRN	__imp_?SetTextColor@ioFontManager@@QAEXHHH@Z:PROC
EXTRN	__imp_?PrintText@ioFontManager@@QAEXMMMPBD0@Z:PROC
EXTRN	?ConvertNumToStrComma@Help@@YAXHPADH@Z:PROC	; Help::ConvertNumToStrComma
;	COMDAT ??_C@_0CL@LMMLEEJC@EventChanceRollingWnd?3?3RenderOri@
CONST	SEGMENT
??_C@_0CL@LMMLEEJC@EventChanceRollingWnd?3?3RenderOri@ DB 'EventChanceRol'
	DB	'lingWnd::RenderOriginalBonus', 00H		; `string'
; Function compile flags: /Ogsp
CONST	ENDS
;	COMDAT ?RenderOriginalBonus@EventChanceRollingWnd@@IAEXHH@Z
_TEXT	SEGMENT
_this$GSCopy$ = -276					; size = 4
_iBonusType$ = -272					; size = 4
tv333 = -268						; size = 4
_szConvertNum$515864 = -264				; size = 260
__$ArrayPad$ = -4					; size = 4
_iXPos$ = 8						; size = 4
_iYPos$ = 12						; size = 4
?RenderOriginalBonus@EventChanceRollingWnd@@IAEXHH@Z PROC ; EventChanceRollingWnd::RenderOriginalBonus, COMDAT
; _this$ = ecx

; 1153 : {

  00000	55		 push	 ebp
  00001	8b ec		 mov	 ebp, esp
  00003	81 ec 14 01 00
	00		 sub	 esp, 276		; 00000114H
  00009	a1 00 00 00 00	 mov	 eax, DWORD PTR ___security_cookie
  0000e	33 c5		 xor	 eax, ebp
  00010	89 45 fc	 mov	 DWORD PTR __$ArrayPad$[ebp], eax

; 1154 : 	int iBonusType = sg_iOriginalBonus % 1000;

  00013	a1 00 00 00 00	 mov	 eax, DWORD PTR ?sg_iOriginalBonus@EventChanceRollingWnd@@1HA ; EventChanceRollingWnd::sg_iOriginalBonus
  00018	53		 push	 ebx
  00019	56		 push	 esi
  0001a	57		 push	 edi
  0001b	be e8 03 00 00	 mov	 esi, 1000		; 000003e8H
  00020	99		 cdq
  00021	8b fe		 mov	 edi, esi
  00023	f7 ff		 idiv	 edi

; 1155 : 	if( iBonusType == 0 )
; 1156 : 	{
; 1157 : 		// 페소 보상
; 1158 : 		if( m_pPesoIcon )

  00025	8b 7d 08	 mov	 edi, DWORD PTR _iXPos$[ebp]
  00028	33 db		 xor	 ebx, ebx

; 1176 : 
; 1177 : 		g_FontMgr.SetTextStyle( TS_OUTLINE_FULL_2X );

  0002a	89 8d ec fe ff
	ff		 mov	 DWORD PTR _this$GSCopy$[ebp], ecx
  00030	89 95 f0 fe ff
	ff		 mov	 DWORD PTR _iBonusType$[ebp], edx
  00036	3b d3		 cmp	 edx, ebx
  00038	0f 85 3e 01 00
	00		 jne	 $LN5@RenderOrig

; 1155 : 	if( iBonusType == 0 )
; 1156 : 	{
; 1157 : 		// 페소 보상
; 1158 : 		if( m_pPesoIcon )

  0003e	39 99 90 01 00
	00		 cmp	 DWORD PTR [ecx+400], ebx
  00044	74 37		 je	 SHORT $LN4@RenderOrig

; 1159 : 			m_pPesoIcon->Render( iXPos + 161, iYPos + 92 );

  00046	8b 81 90 01 00
	00		 mov	 eax, DWORD PTR [ecx+400]
  0004c	8b 4d 0c	 mov	 ecx, DWORD PTR _iYPos$[ebp]
  0004f	8b 10		 mov	 edx, DWORD PTR [eax]
  00051	53		 push	 ebx
  00052	53		 push	 ebx
  00053	53		 push	 ebx
  00054	83 c1 5c	 add	 ecx, 92			; 0000005cH
  00057	53		 push	 ebx
  00058	51		 push	 ecx
  00059	51		 push	 ecx
  0005a	0f 57 c0	 xorps	 xmm0, xmm0
  0005d	f3 0f 2a c1	 cvtsi2ss xmm0, ecx
  00061	f3 0f 11 44 24
	04		 movss	 DWORD PTR [esp+4], xmm0
  00067	8d 8f a1 00 00
	00		 lea	 ecx, DWORD PTR [edi+161]
  0006d	0f 57 c0	 xorps	 xmm0, xmm0
  00070	f3 0f 2a c1	 cvtsi2ss xmm0, ecx
  00074	8b c8		 mov	 ecx, eax
  00076	f3 0f 11 04 24	 movss	 DWORD PTR [esp], xmm0
  0007b	ff 12		 call	 DWORD PTR [edx]
$LN4@RenderOrig:

; 1160 : 
; 1161 : 		char szConvertNum[MAX_PATH] = "";

  0007d	68 03 01 00 00	 push	 259			; 00000103H
  00082	8d 85 f9 fe ff
	ff		 lea	 eax, DWORD PTR _szConvertNum$515864[ebp+1]
  00088	53		 push	 ebx
  00089	50		 push	 eax
  0008a	88 9d f8 fe ff
	ff		 mov	 BYTE PTR _szConvertNum$515864[ebp], bl
  00090	e8 00 00 00 00	 call	 _memset

; 1162 : 		Help::ConvertNumToStrComma( sg_iOriginalBonus / 1000, szConvertNum, sizeof( szConvertNum ) );

  00095	68 04 01 00 00	 push	 260			; 00000104H
  0009a	8d 85 f8 fe ff
	ff		 lea	 eax, DWORD PTR _szConvertNum$515864[ebp]
  000a0	50		 push	 eax
  000a1	a1 00 00 00 00	 mov	 eax, DWORD PTR ?sg_iOriginalBonus@EventChanceRollingWnd@@1HA ; EventChanceRollingWnd::sg_iOriginalBonus
  000a6	99		 cdq
  000a7	f7 fe		 idiv	 esi
  000a9	50		 push	 eax
  000aa	e8 00 00 00 00	 call	 ?ConvertNumToStrComma@Help@@YAXHPADH@Z ; Help::ConvertNumToStrComma

; 1163 : 		g_FontMgr.SetTextStyle( TS_OUTLINE_FULL_2X );

  000af	8b 35 00 00 00
	00		 mov	 esi, DWORD PTR __imp_?GetSingleton@ioFontManager@@SAAAV1@XZ
  000b5	83 c4 18	 add	 esp, 24			; 00000018H
  000b8	6a 05		 push	 5
  000ba	ff d6		 call	 esi
  000bc	8b c8		 mov	 ecx, eax
  000be	ff 15 00 00 00
	00		 call	 DWORD PTR __imp_?SetTextStyle@ioFontManager@@QAEXW4TextStyle@@@Z

; 1164 : 		g_FontMgr.SetAlignType( TAT_CENTER );

  000c4	6a 01		 push	 1
  000c6	ff d6		 call	 esi
  000c8	8b c8		 mov	 ecx, eax
  000ca	ff 15 00 00 00
	00		 call	 DWORD PTR __imp_?SetAlignType@ioFontManager@@QAEXW4TextAlignType@@@Z

; 1165 : 		g_FontMgr.SetBkColor( 0, 0, 0 );

  000d0	53		 push	 ebx
  000d1	53		 push	 ebx
  000d2	53		 push	 ebx
  000d3	ff d6		 call	 esi
  000d5	8b c8		 mov	 ecx, eax
  000d7	ff 15 00 00 00
	00		 call	 DWORD PTR __imp_?SetBkColor@ioFontManager@@QAEXHHH@Z

; 1166 : 		g_FontMgr.SetTextColor( TCT_DEFAULT_GRAY );

  000dd	68 6e 6e 6e ff	 push	 -9539986		; ff6e6e6eH
  000e2	ff d6		 call	 esi
  000e4	8b c8		 mov	 ecx, eax
  000e6	ff 15 00 00 00
	00		 call	 DWORD PTR __imp_?SetTextColor@ioFontManager@@QAEXK@Z

; 1167 : 		g_FontMgr.PrintText( iXPos + 161, iYPos + 168, FONT_SIZE_13, STR(1), szConvertNum );

  000ec	8d 85 f8 fe ff
	ff		 lea	 eax, DWORD PTR _szConvertNum$515864[ebp]
  000f2	50		 push	 eax
  000f3	53		 push	 ebx
  000f4	81 c7 a1 00 00
	00		 add	 edi, 161		; 000000a1H
  000fa	0f 57 c0	 xorps	 xmm0, xmm0
  000fd	f3 0f 2a c7	 cvtsi2ss xmm0, edi
  00101	6a 01		 push	 1
  00103	68 00 00 00 00	 push	 OFFSET ??_C@_00CNPNBAHC@?$AA@
  00108	bf 00 00 00 00	 mov	 edi, OFFSET ??_C@_0CL@LMMLEEJC@EventChanceRollingWnd?3?3RenderOri@
  0010d	57		 push	 edi
  0010e	f3 0f 11 85 f4
	fe ff ff	 movss	 DWORD PTR tv333[ebp], xmm0
  00116	ff 15 00 00 00
	00		 call	 DWORD PTR __imp_?GetSingleton@ioStringManager@@SAAAV1@XZ
  0011c	8b c8		 mov	 ecx, eax
  0011e	ff 15 00 00 00
	00		 call	 DWORD PTR __imp_?GetString@ioStringManager@@QAEPADPBD0HW4FileNamePrefix@1@@Z
  00124	f3 0f 10 05 00
	00 00 00	 movss	 xmm0, DWORD PTR __real@3f266666
  0012c	50		 push	 eax
  0012d	8b 45 0c	 mov	 eax, DWORD PTR _iYPos$[ebp]
  00130	83 ec 0c	 sub	 esp, 12			; 0000000cH
  00133	f3 0f 11 44 24
	08		 movss	 DWORD PTR [esp+8], xmm0
  00139	05 a8 00 00 00	 add	 eax, 168		; 000000a8H
  0013e	0f 57 c0	 xorps	 xmm0, xmm0
  00141	f3 0f 2a c0	 cvtsi2ss xmm0, eax
  00145	f3 0f 11 44 24
	04		 movss	 DWORD PTR [esp+4], xmm0
  0014b	f3 0f 10 85 f4
	fe ff ff	 movss	 xmm0, DWORD PTR tv333[ebp]
  00153	f3 0f 11 04 24	 movss	 DWORD PTR [esp], xmm0
  00158	ff d6		 call	 esi
  0015a	8b c8		 mov	 ecx, eax
  0015c	ff 15 00 00 00
	00		 call	 DWORD PTR __imp_?PrintText@ioFontManager@@QAEXMMMPBD0@Z

; 1168 : 		g_FontMgr.SetTextColor( 255, 255, 255 );

  00162	b8 ff 00 00 00	 mov	 eax, 255		; 000000ffH
  00167	50		 push	 eax
  00168	50		 push	 eax
  00169	50		 push	 eax
  0016a	ff d6		 call	 esi
  0016c	8b c8		 mov	 ecx, eax
  0016e	ff 15 00 00 00
	00		 call	 DWORD PTR __imp_?SetTextColor@ioFontManager@@QAEXHHH@Z

; 1169 : 		g_FontMgr.PrintText( iXPos + 161, iYPos + 188, FONT_SIZE_13, STR(2) );

  00174	53		 push	 ebx
  00175	6a 02		 push	 2

; 1170 : 	}
; 1171 : 	else

  00177	e9 11 01 00 00	 jmp	 $LN8@RenderOrig
$LN5@RenderOrig:

; 1172 : 	{
; 1173 : 		// 용병 보상
; 1174 : 		if( m_pSoldierIcon )

  0017c	39 99 94 01 00
	00		 cmp	 DWORD PTR [ecx+404], ebx
  00182	74 37		 je	 SHORT $LN2@RenderOrig

; 1175 : 			m_pSoldierIcon->Render( iXPos + 161, iYPos + 92 );

  00184	8b 81 94 01 00
	00		 mov	 eax, DWORD PTR [ecx+404]
  0018a	8b 4d 0c	 mov	 ecx, DWORD PTR _iYPos$[ebp]
  0018d	8b 10		 mov	 edx, DWORD PTR [eax]
  0018f	53		 push	 ebx
  00190	53		 push	 ebx
  00191	53		 push	 ebx
  00192	83 c1 5c	 add	 ecx, 92			; 0000005cH
  00195	53		 push	 ebx
  00196	51		 push	 ecx
  00197	51		 push	 ecx
  00198	0f 57 c0	 xorps	 xmm0, xmm0
  0019b	f3 0f 2a c1	 cvtsi2ss xmm0, ecx
  0019f	f3 0f 11 44 24
	04		 movss	 DWORD PTR [esp+4], xmm0
  001a5	8d 8f a1 00 00
	00		 lea	 ecx, DWORD PTR [edi+161]
  001ab	0f 57 c0	 xorps	 xmm0, xmm0
  001ae	f3 0f 2a c1	 cvtsi2ss xmm0, ecx
  001b2	8b c8		 mov	 ecx, eax
  001b4	f3 0f 11 04 24	 movss	 DWORD PTR [esp], xmm0
  001b9	ff 12		 call	 DWORD PTR [edx]
$LN2@RenderOrig:

; 1176 : 
; 1177 : 		g_FontMgr.SetTextStyle( TS_OUTLINE_FULL_2X );

  001bb	8b 35 00 00 00
	00		 mov	 esi, DWORD PTR __imp_?GetSingleton@ioFontManager@@SAAAV1@XZ
  001c1	6a 05		 push	 5
  001c3	ff d6		 call	 esi
  001c5	8b c8		 mov	 ecx, eax
  001c7	ff 15 00 00 00
	00		 call	 DWORD PTR __imp_?SetTextStyle@ioFontManager@@QAEXW4TextStyle@@@Z

; 1178 : 		g_FontMgr.SetAlignType( TAT_CENTER );

  001cd	6a 01		 push	 1
  001cf	ff d6		 call	 esi
  001d1	8b c8		 mov	 ecx, eax
  001d3	ff 15 00 00 00
	00		 call	 DWORD PTR __imp_?SetAlignType@ioFontManager@@QAEXW4TextAlignType@@@Z

; 1179 : 		g_FontMgr.SetBkColor( 0, 0, 0 );

  001d9	53		 push	 ebx
  001da	53		 push	 ebx
  001db	53		 push	 ebx
  001dc	ff d6		 call	 esi
  001de	8b c8		 mov	 ecx, eax
  001e0	ff 15 00 00 00
	00		 call	 DWORD PTR __imp_?SetBkColor@ioFontManager@@QAEXHHH@Z

; 1180 : 		g_FontMgr.SetTextColor( TCT_DEFAULT_GRAY );

  001e6	68 6e 6e 6e ff	 push	 -9539986		; ff6e6e6eH
  001eb	ff d6		 call	 esi
  001ed	8b c8		 mov	 ecx, eax
  001ef	ff 15 00 00 00
	00		 call	 DWORD PTR __imp_?SetTextColor@ioFontManager@@QAEXK@Z

; 1181 : 		g_FontMgr.PrintText( iXPos + 161, iYPos + 168, FONT_SIZE_13, STR(3), g_MyInfo.GetClassName( iBonusType ) );

  001f5	53		 push	 ebx
  001f6	ff b5 f0 fe ff
	ff		 push	 DWORD PTR _iBonusType$[ebp]
  001fc	81 c7 a1 00 00
	00		 add	 edi, 161		; 000000a1H
  00202	0f 57 c0	 xorps	 xmm0, xmm0
  00205	f3 0f 2a c7	 cvtsi2ss xmm0, edi
  00209	f3 0f 11 85 f4
	fe ff ff	 movss	 DWORD PTR tv333[ebp], xmm0
  00211	e8 00 00 00 00	 call	 ?GetSingleton@ioMyInfo@@SAAAV1@XZ ; ioMyInfo::GetSingleton
  00216	8b c8		 mov	 ecx, eax
  00218	e8 00 00 00 00	 call	 ?GetClassNameA@ioMyInfo@@QAEPBDHH@Z ; ioMyInfo::GetClassNameA
  0021d	50		 push	 eax
  0021e	53		 push	 ebx
  0021f	6a 03		 push	 3
  00221	68 00 00 00 00	 push	 OFFSET ??_C@_00CNPNBAHC@?$AA@
  00226	bf 00 00 00 00	 mov	 edi, OFFSET ??_C@_0CL@LMMLEEJC@EventChanceRollingWnd?3?3RenderOri@
  0022b	57		 push	 edi
  0022c	ff 15 00 00 00
	00		 call	 DWORD PTR __imp_?GetSingleton@ioStringManager@@SAAAV1@XZ
  00232	8b c8		 mov	 ecx, eax
  00234	ff 15 00 00 00
	00		 call	 DWORD PTR __imp_?GetString@ioStringManager@@QAEPADPBD0HW4FileNamePrefix@1@@Z
  0023a	f3 0f 10 05 00
	00 00 00	 movss	 xmm0, DWORD PTR __real@3f266666
  00242	50		 push	 eax
  00243	8b 45 0c	 mov	 eax, DWORD PTR _iYPos$[ebp]
  00246	83 ec 0c	 sub	 esp, 12			; 0000000cH
  00249	f3 0f 11 44 24
	08		 movss	 DWORD PTR [esp+8], xmm0
  0024f	05 a8 00 00 00	 add	 eax, 168		; 000000a8H
  00254	0f 57 c0	 xorps	 xmm0, xmm0
  00257	f3 0f 2a c0	 cvtsi2ss xmm0, eax
  0025b	f3 0f 11 44 24
	04		 movss	 DWORD PTR [esp+4], xmm0
  00261	f3 0f 10 85 f4
	fe ff ff	 movss	 xmm0, DWORD PTR tv333[ebp]
  00269	f3 0f 11 04 24	 movss	 DWORD PTR [esp], xmm0
  0026e	ff d6		 call	 esi
  00270	8b c8		 mov	 ecx, eax
  00272	ff 15 00 00 00
	00		 call	 DWORD PTR __imp_?PrintText@ioFontManager@@QAEXMMMPBD0@Z

; 1182 : 		g_FontMgr.SetTextColor( 255, 255, 255 );

  00278	b8 ff 00 00 00	 mov	 eax, 255		; 000000ffH
  0027d	50		 push	 eax
  0027e	50		 push	 eax
  0027f	50		 push	 eax
  00280	ff d6		 call	 esi
  00282	8b c8		 mov	 ecx, eax
  00284	ff 15 00 00 00
	00		 call	 DWORD PTR __imp_?SetTextColor@ioFontManager@@QAEXHHH@Z

; 1183 : 		g_FontMgr.PrintText( iXPos + 161, iYPos + 188, FONT_SIZE_13, STR(4) );		

  0028a	53		 push	 ebx
  0028b	6a 04		 push	 4
$LN8@RenderOrig:
  0028d	68 00 00 00 00	 push	 OFFSET ??_C@_00CNPNBAHC@?$AA@
  00292	57		 push	 edi
  00293	ff 15 00 00 00
	00		 call	 DWORD PTR __imp_?GetSingleton@ioStringManager@@SAAAV1@XZ
  00299	8b c8		 mov	 ecx, eax
  0029b	ff 15 00 00 00
	00		 call	 DWORD PTR __imp_?GetString@ioStringManager@@QAEPADPBD0HW4FileNamePrefix@1@@Z
  002a1	f3 0f 10 05 00
	00 00 00	 movss	 xmm0, DWORD PTR __real@3f266666
  002a9	50		 push	 eax
  002aa	8b 45 0c	 mov	 eax, DWORD PTR _iYPos$[ebp]
  002ad	83 ec 0c	 sub	 esp, 12			; 0000000cH
  002b0	f3 0f 11 44 24
	08		 movss	 DWORD PTR [esp+8], xmm0
  002b6	0f 57 c0	 xorps	 xmm0, xmm0
  002b9	05 bc 00 00 00	 add	 eax, 188		; 000000bcH
  002be	f3 0f 2a c0	 cvtsi2ss xmm0, eax
  002c2	f3 0f 11 44 24
	04		 movss	 DWORD PTR [esp+4], xmm0
  002c8	f3 0f 10 85 f4
	fe ff ff	 movss	 xmm0, DWORD PTR tv333[ebp]
  002d0	f3 0f 11 04 24	 movss	 DWORD PTR [esp], xmm0
  002d5	ff d6		 call	 esi
  002d7	50		 push	 eax
  002d8	ff 15 00 00 00
	00		 call	 DWORD PTR __imp_?PrintText@ioFontManager@@QAAXMMMPBDZZ

; 1184 : 	}
; 1185 : 
; 1186 : 	if( m_pCongratulationText )

  002de	8b 85 ec fe ff
	ff		 mov	 eax, DWORD PTR _this$GSCopy$[ebp]
  002e4	83 c4 14	 add	 esp, 20			; 00000014H
  002e7	39 98 9c 01 00
	00		 cmp	 DWORD PTR [eax+412], ebx
  002ed	74 35		 je	 SHORT $LN1@RenderOrig

; 1187 : 		m_pCongratulationText->Render( iXPos + 161, iYPos + 132 );

  002ef	8b 4d 0c	 mov	 ecx, DWORD PTR _iYPos$[ebp]
  002f2	8b 80 9c 01 00
	00		 mov	 eax, DWORD PTR [eax+412]
  002f8	8b 10		 mov	 edx, DWORD PTR [eax]
  002fa	53		 push	 ebx
  002fb	53		 push	 ebx
  002fc	53		 push	 ebx
  002fd	81 c1 84 00 00
	00		 add	 ecx, 132		; 00000084H
  00303	53		 push	 ebx
  00304	51		 push	 ecx
  00305	51		 push	 ecx
  00306	0f 57 c0	 xorps	 xmm0, xmm0
  00309	f3 0f 2a c1	 cvtsi2ss xmm0, ecx
  0030d	f3 0f 11 44 24
	04		 movss	 DWORD PTR [esp+4], xmm0
  00313	f3 0f 10 85 f4
	fe ff ff	 movss	 xmm0, DWORD PTR tv333[ebp]
  0031b	8b c8		 mov	 ecx, eax
  0031d	f3 0f 11 04 24	 movss	 DWORD PTR [esp], xmm0
  00322	ff 12		 call	 DWORD PTR [edx]
$LN1@RenderOrig:

; 1188 : }

  00324	8b 4d fc	 mov	 ecx, DWORD PTR __$ArrayPad$[ebp]
  00327	5f		 pop	 edi
  00328	5e		 pop	 esi
  00329	33 cd		 xor	 ecx, ebp
  0032b	5b		 pop	 ebx
  0032c	e8 00 00 00 00	 call	 @__security_check_cookie@4
  00331	c9		 leave
  00332	c2 08 00	 ret	 8
?RenderOriginalBonus@EventChanceRollingWnd@@IAEXHH@Z ENDP ; EventChanceRollingWnd::RenderOriginalBonus
_TEXT	ENDS
PUBLIC	??_C@_0CH@GJDAPKBP@EventChanceRollingWnd?3?3RenderRan@ ; `string'
PUBLIC	_this$GSCopy$
PUBLIC	__$ArrayPad$
PUBLIC	?RenderRandBonus@EventChanceRollingWnd@@IAEXHH@Z ; EventChanceRollingWnd::RenderRandBonus
;	COMDAT ??_C@_0CH@GJDAPKBP@EventChanceRollingWnd?3?3RenderRan@
CONST	SEGMENT
??_C@_0CH@GJDAPKBP@EventChanceRollingWnd?3?3RenderRan@ DB 'EventChanceRol'
	DB	'lingWnd::RenderRandBonus', 00H		; `string'
; Function compile flags: /Ogsp
CONST	ENDS
;	COMDAT ?RenderRandBonus@EventChanceRollingWnd@@IAEXHH@Z
_TEXT	SEGMENT
_this$GSCopy$ = -276					; size = 4
_iBonusType$ = -272					; size = 4
tv304 = -268						; size = 4
_szConvertNum$515879 = -264				; size = 260
__$ArrayPad$ = -4					; size = 4
_iXPos$ = 8						; size = 4
_iYPos$ = 12						; size = 4
?RenderRandBonus@EventChanceRollingWnd@@IAEXHH@Z PROC	; EventChanceRollingWnd::RenderRandBonus, COMDAT
; _this$ = ecx

; 1191 : {

  00000	55		 push	 ebp
  00001	8b ec		 mov	 ebp, esp
  00003	81 ec 14 01 00
	00		 sub	 esp, 276		; 00000114H
  00009	a1 00 00 00 00	 mov	 eax, DWORD PTR ___security_cookie
  0000e	33 c5		 xor	 eax, ebp
  00010	89 45 fc	 mov	 DWORD PTR __$ArrayPad$[ebp], eax
  00013	53		 push	 ebx
  00014	56		 push	 esi
  00015	8b f1		 mov	 esi, ecx

; 1192 : 	int iBonusType = m_iRandBonus % 1000;

  00017	8b 86 dc 01 00
	00		 mov	 eax, DWORD PTR [esi+476]
  0001d	99		 cdq
  0001e	b9 e8 03 00 00	 mov	 ecx, 1000		; 000003e8H
  00023	f7 f9		 idiv	 ecx

; 1193 : 	if( iBonusType == 0 )

  00025	33 db		 xor	 ebx, ebx
  00027	57		 push	 edi

; 1194 : 	{
; 1195 : 		// 페소 보상
; 1196 : 		if( m_pPesoIcon )

  00028	8b 7d 0c	 mov	 edi, DWORD PTR _iYPos$[ebp]
  0002b	89 b5 ec fe ff
	ff		 mov	 DWORD PTR _this$GSCopy$[ebp], esi
  00031	89 95 f0 fe ff
	ff		 mov	 DWORD PTR _iBonusType$[ebp], edx
  00037	3b d3		 cmp	 edx, ebx
  00039	0f 85 dd 00 00
	00		 jne	 $LN5@RenderRand
  0003f	39 9e 90 01 00
	00		 cmp	 DWORD PTR [esi+400], ebx
  00045	74 37		 je	 SHORT $LN4@RenderRand

; 1197 : 			m_pPesoIcon->Render( iXPos + 161, iYPos + 92 );

  00047	8b 86 90 01 00
	00		 mov	 eax, DWORD PTR [esi+400]
  0004d	8b 10		 mov	 edx, DWORD PTR [eax]
  0004f	53		 push	 ebx
  00050	53		 push	 ebx
  00051	53		 push	 ebx
  00052	8d 4f 5c	 lea	 ecx, DWORD PTR [edi+92]
  00055	53		 push	 ebx
  00056	51		 push	 ecx
  00057	51		 push	 ecx
  00058	0f 57 c0	 xorps	 xmm0, xmm0
  0005b	f3 0f 2a c1	 cvtsi2ss xmm0, ecx
  0005f	8b 4d 08	 mov	 ecx, DWORD PTR _iXPos$[ebp]
  00062	f3 0f 11 44 24
	04		 movss	 DWORD PTR [esp+4], xmm0
  00068	81 c1 a1 00 00
	00		 add	 ecx, 161		; 000000a1H
  0006e	0f 57 c0	 xorps	 xmm0, xmm0
  00071	f3 0f 2a c1	 cvtsi2ss xmm0, ecx
  00075	8b c8		 mov	 ecx, eax
  00077	f3 0f 11 04 24	 movss	 DWORD PTR [esp], xmm0
  0007c	ff 12		 call	 DWORD PTR [edx]
$LN4@RenderRand:

; 1198 : 
; 1199 : 		char szConvertNum[MAX_PATH] = "";

  0007e	68 03 01 00 00	 push	 259			; 00000103H
  00083	8d 85 f9 fe ff
	ff		 lea	 eax, DWORD PTR _szConvertNum$515879[ebp+1]
  00089	53		 push	 ebx
  0008a	50		 push	 eax
  0008b	88 9d f8 fe ff
	ff		 mov	 BYTE PTR _szConvertNum$515879[ebp], bl
  00091	e8 00 00 00 00	 call	 _memset

; 1200 : 		Help::ConvertNumToStrComma( m_iRandBonus / 1000, szConvertNum, sizeof( szConvertNum ) );

  00096	68 04 01 00 00	 push	 260			; 00000104H
  0009b	8d 85 f8 fe ff
	ff		 lea	 eax, DWORD PTR _szConvertNum$515879[ebp]
  000a1	50		 push	 eax
  000a2	8b 86 dc 01 00
	00		 mov	 eax, DWORD PTR [esi+476]
  000a8	99		 cdq
  000a9	b9 e8 03 00 00	 mov	 ecx, 1000		; 000003e8H
  000ae	f7 f9		 idiv	 ecx
  000b0	50		 push	 eax
  000b1	e8 00 00 00 00	 call	 ?ConvertNumToStrComma@Help@@YAXHPADH@Z ; Help::ConvertNumToStrComma

; 1201 : 		g_FontMgr.SetTextStyle( TS_OUTLINE_FULL_2X );

  000b6	8b 35 00 00 00
	00		 mov	 esi, DWORD PTR __imp_?GetSingleton@ioFontManager@@SAAAV1@XZ
  000bc	83 c4 18	 add	 esp, 24			; 00000018H
  000bf	6a 05		 push	 5
  000c1	ff d6		 call	 esi
  000c3	8b c8		 mov	 ecx, eax
  000c5	ff 15 00 00 00
	00		 call	 DWORD PTR __imp_?SetTextStyle@ioFontManager@@QAEXW4TextStyle@@@Z

; 1202 : 		g_FontMgr.SetAlignType( TAT_CENTER );

  000cb	6a 01		 push	 1
  000cd	ff d6		 call	 esi
  000cf	8b c8		 mov	 ecx, eax
  000d1	ff 15 00 00 00
	00		 call	 DWORD PTR __imp_?SetAlignType@ioFontManager@@QAEXW4TextAlignType@@@Z

; 1203 : 		g_FontMgr.SetBkColor( 0, 0, 0 );

  000d7	53		 push	 ebx
  000d8	53		 push	 ebx
  000d9	53		 push	 ebx
  000da	ff d6		 call	 esi
  000dc	8b c8		 mov	 ecx, eax
  000de	ff 15 00 00 00
	00		 call	 DWORD PTR __imp_?SetBkColor@ioFontManager@@QAEXHHH@Z

; 1204 : 		g_FontMgr.SetTextColor( 255, 255, 255 );

  000e4	b8 ff 00 00 00	 mov	 eax, 255		; 000000ffH
  000e9	50		 push	 eax
  000ea	50		 push	 eax
  000eb	50		 push	 eax
  000ec	ff d6		 call	 esi
  000ee	8b c8		 mov	 ecx, eax
  000f0	ff 15 00 00 00
	00		 call	 DWORD PTR __imp_?SetTextColor@ioFontManager@@QAEXHHH@Z

; 1205 : 		g_FontMgr.PrintText( iXPos + 161, iYPos + 178, FONT_SIZE_13, STR(1), szConvertNum );

  000f6	8b 45 08	 mov	 eax, DWORD PTR _iXPos$[ebp]
  000f9	05 a1 00 00 00	 add	 eax, 161		; 000000a1H
  000fe	0f 57 c0	 xorps	 xmm0, xmm0
  00101	f3 0f 2a c0	 cvtsi2ss xmm0, eax
  00105	8d 85 f8 fe ff
	ff		 lea	 eax, DWORD PTR _szConvertNum$515879[ebp]
  0010b	50		 push	 eax
  0010c	53		 push	 ebx
  0010d	f3 0f 11 85 f4
	fe ff ff	 movss	 DWORD PTR tv304[ebp], xmm0
  00115	6a 01		 push	 1

; 1206 : 	}
; 1207 : 	else

  00117	e9 aa 00 00 00	 jmp	 $LN8@RenderRand
$LN5@RenderRand:

; 1208 : 	{
; 1209 : 		// 용병 보상
; 1210 : 		if( m_pSoldierIcon )

  0011c	39 9e 94 01 00
	00		 cmp	 DWORD PTR [esi+404], ebx
  00122	74 37		 je	 SHORT $LN2@RenderRand

; 1211 : 			m_pSoldierIcon->Render( iXPos + 161, iYPos + 92 );

  00124	8b 86 94 01 00
	00		 mov	 eax, DWORD PTR [esi+404]
  0012a	8b 10		 mov	 edx, DWORD PTR [eax]
  0012c	53		 push	 ebx
  0012d	53		 push	 ebx
  0012e	53		 push	 ebx
  0012f	8d 4f 5c	 lea	 ecx, DWORD PTR [edi+92]
  00132	53		 push	 ebx
  00133	51		 push	 ecx
  00134	51		 push	 ecx
  00135	0f 57 c0	 xorps	 xmm0, xmm0
  00138	f3 0f 2a c1	 cvtsi2ss xmm0, ecx
  0013c	8b 4d 08	 mov	 ecx, DWORD PTR _iXPos$[ebp]
  0013f	f3 0f 11 44 24
	04		 movss	 DWORD PTR [esp+4], xmm0
  00145	81 c1 a1 00 00
	00		 add	 ecx, 161		; 000000a1H
  0014b	0f 57 c0	 xorps	 xmm0, xmm0
  0014e	f3 0f 2a c1	 cvtsi2ss xmm0, ecx
  00152	8b c8		 mov	 ecx, eax
  00154	f3 0f 11 04 24	 movss	 DWORD PTR [esp], xmm0
  00159	ff 12		 call	 DWORD PTR [edx]
$LN2@RenderRand:

; 1212 : 
; 1213 : 		g_FontMgr.SetTextStyle( TS_OUTLINE_FULL_2X );

  0015b	8b 35 00 00 00
	00		 mov	 esi, DWORD PTR __imp_?GetSingleton@ioFontManager@@SAAAV1@XZ
  00161	6a 05		 push	 5
  00163	ff d6		 call	 esi
  00165	8b c8		 mov	 ecx, eax
  00167	ff 15 00 00 00
	00		 call	 DWORD PTR __imp_?SetTextStyle@ioFontManager@@QAEXW4TextStyle@@@Z

; 1214 : 		g_FontMgr.SetAlignType( TAT_CENTER );

  0016d	6a 01		 push	 1
  0016f	ff d6		 call	 esi
  00171	8b c8		 mov	 ecx, eax
  00173	ff 15 00 00 00
	00		 call	 DWORD PTR __imp_?SetAlignType@ioFontManager@@QAEXW4TextAlignType@@@Z

; 1215 : 		g_FontMgr.SetBkColor( 0, 0, 0 );

  00179	53		 push	 ebx
  0017a	53		 push	 ebx
  0017b	53		 push	 ebx
  0017c	ff d6		 call	 esi
  0017e	8b c8		 mov	 ecx, eax
  00180	ff 15 00 00 00
	00		 call	 DWORD PTR __imp_?SetBkColor@ioFontManager@@QAEXHHH@Z

; 1216 : 		g_FontMgr.SetTextColor( 255, 255, 255 );

  00186	b8 ff 00 00 00	 mov	 eax, 255		; 000000ffH
  0018b	50		 push	 eax
  0018c	50		 push	 eax
  0018d	50		 push	 eax
  0018e	ff d6		 call	 esi
  00190	8b c8		 mov	 ecx, eax
  00192	ff 15 00 00 00
	00		 call	 DWORD PTR __imp_?SetTextColor@ioFontManager@@QAEXHHH@Z

; 1217 : 		g_FontMgr.PrintText( iXPos + 161, iYPos + 178, FONT_SIZE_13, STR(2), g_MyInfo.GetClassName( iBonusType ) );

  00198	8b 45 08	 mov	 eax, DWORD PTR _iXPos$[ebp]
  0019b	05 a1 00 00 00	 add	 eax, 161		; 000000a1H
  001a0	53		 push	 ebx
  001a1	ff b5 f0 fe ff
	ff		 push	 DWORD PTR _iBonusType$[ebp]
  001a7	0f 57 c0	 xorps	 xmm0, xmm0
  001aa	f3 0f 2a c0	 cvtsi2ss xmm0, eax
  001ae	f3 0f 11 85 f4
	fe ff ff	 movss	 DWORD PTR tv304[ebp], xmm0
  001b6	e8 00 00 00 00	 call	 ?GetSingleton@ioMyInfo@@SAAAV1@XZ ; ioMyInfo::GetSingleton
  001bb	8b c8		 mov	 ecx, eax
  001bd	e8 00 00 00 00	 call	 ?GetClassNameA@ioMyInfo@@QAEPBDHH@Z ; ioMyInfo::GetClassNameA
  001c2	50		 push	 eax
  001c3	53		 push	 ebx
  001c4	6a 02		 push	 2
$LN8@RenderRand:
  001c6	68 00 00 00 00	 push	 OFFSET ??_C@_00CNPNBAHC@?$AA@
  001cb	68 00 00 00 00	 push	 OFFSET ??_C@_0CH@GJDAPKBP@EventChanceRollingWnd?3?3RenderRan@
  001d0	ff 15 00 00 00
	00		 call	 DWORD PTR __imp_?GetSingleton@ioStringManager@@SAAAV1@XZ
  001d6	8b c8		 mov	 ecx, eax
  001d8	ff 15 00 00 00
	00		 call	 DWORD PTR __imp_?GetString@ioStringManager@@QAEPADPBD0HW4FileNamePrefix@1@@Z
  001de	f3 0f 10 05 00
	00 00 00	 movss	 xmm0, DWORD PTR __real@3f266666
  001e6	50		 push	 eax
  001e7	83 ec 0c	 sub	 esp, 12			; 0000000cH
  001ea	f3 0f 11 44 24
	08		 movss	 DWORD PTR [esp+8], xmm0
  001f0	0f 57 c0	 xorps	 xmm0, xmm0
  001f3	8d 87 b2 00 00
	00		 lea	 eax, DWORD PTR [edi+178]
  001f9	f3 0f 2a c0	 cvtsi2ss xmm0, eax
  001fd	f3 0f 11 44 24
	04		 movss	 DWORD PTR [esp+4], xmm0
  00203	f3 0f 10 85 f4
	fe ff ff	 movss	 xmm0, DWORD PTR tv304[ebp]
  0020b	f3 0f 11 04 24	 movss	 DWORD PTR [esp], xmm0
  00210	ff d6		 call	 esi
  00212	8b c8		 mov	 ecx, eax
  00214	ff 15 00 00 00
	00		 call	 DWORD PTR __imp_?PrintText@ioFontManager@@QAEXMMMPBD0@Z

; 1218 : 	}
; 1219 : 
; 1220 : 	if( m_pLotteryText )

  0021a	8b 85 ec fe ff
	ff		 mov	 eax, DWORD PTR _this$GSCopy$[ebp]
  00220	39 98 98 01 00
	00		 cmp	 DWORD PTR [eax+408], ebx
  00226	74 32		 je	 SHORT $LN1@RenderRand

; 1221 : 		m_pLotteryText->Render( iXPos + 161, iYPos + 132 );

  00228	8b 80 98 01 00
	00		 mov	 eax, DWORD PTR [eax+408]
  0022e	8b 10		 mov	 edx, DWORD PTR [eax]
  00230	53		 push	 ebx
  00231	53		 push	 ebx
  00232	53		 push	 ebx
  00233	53		 push	 ebx
  00234	51		 push	 ecx
  00235	51		 push	 ecx
  00236	81 c7 84 00 00
	00		 add	 edi, 132		; 00000084H
  0023c	0f 57 c0	 xorps	 xmm0, xmm0
  0023f	f3 0f 2a c7	 cvtsi2ss xmm0, edi
  00243	f3 0f 11 44 24
	04		 movss	 DWORD PTR [esp+4], xmm0
  00249	f3 0f 10 85 f4
	fe ff ff	 movss	 xmm0, DWORD PTR tv304[ebp]
  00251	8b c8		 mov	 ecx, eax
  00253	f3 0f 11 04 24	 movss	 DWORD PTR [esp], xmm0
  00258	ff 12		 call	 DWORD PTR [edx]
$LN1@RenderRand:

; 1222 : }

  0025a	8b 4d fc	 mov	 ecx, DWORD PTR __$ArrayPad$[ebp]
  0025d	5f		 pop	 edi
  0025e	5e		 pop	 esi
  0025f	33 cd		 xor	 ecx, ebp
  00261	5b		 pop	 ebx
  00262	e8 00 00 00 00	 call	 @__security_check_cookie@4
  00267	c9		 leave
  00268	c2 08 00	 ret	 8
?RenderRandBonus@EventChanceRollingWnd@@IAEXHH@Z ENDP	; EventChanceRollingWnd::RenderRandBonus
_TEXT	ENDS
PUBLIC	__real@3fc00000
PUBLIC	?iwm_show@OneDayGoldItemEventWnd@@UAEXXZ	; OneDayGoldItemEventWnd::iwm_show
EXTRN	__imp_?ShowChildWnd@ioWnd@@QAEXK_N@Z:PROC
EXTRN	__imp_?HideChildWnd@ioWnd@@QAEXK_N@Z:PROC
;	COMDAT __real@3fc00000
CONST	SEGMENT
__real@3fc00000 DD 03fc00000r			; 1.5
; Function compile flags: /Ogsp
CONST	ENDS
;	COMDAT ?iwm_show@OneDayGoldItemEventWnd@@UAEXXZ
_TEXT	SEGMENT
?iwm_show@OneDayGoldItemEventWnd@@UAEXXZ PROC		; OneDayGoldItemEventWnd::iwm_show, COMDAT
; _this$ = ecx

; 1271 : {

  00000	53		 push	 ebx
  00001	56		 push	 esi
  00002	8b f1		 mov	 esi, ecx

; 1272 : 	switch( m_dwState )

  00004	8b 86 60 01 00
	00		 mov	 eax, DWORD PTR [esi+352]
  0000a	57		 push	 edi
  0000b	33 ff		 xor	 edi, edi
  0000d	2b c7		 sub	 eax, edi
  0000f	0f 84 c6 00 00
	00		 je	 $LN5@iwm_show@2
  00015	48		 dec	 eax
  00016	0f 84 95 00 00
	00		 je	 $LN4@iwm_show@2
  0001c	48		 dec	 eax
  0001d	74 6a		 je	 SHORT $LN3@iwm_show@2
  0001f	48		 dec	 eax
  00020	75 63		 jne	 SHORT $LN6@iwm_show@2

; 1295 : 	case STATE_COMPLETE:
; 1296 : 		{
; 1297 : 			HideChildWnd( ID_RECV_ITEM );

  00022	57		 push	 edi
  00023	6a 02		 push	 2
  00025	ff 15 00 00 00
	00		 call	 DWORD PTR __imp_?HideChildWnd@ioWnd@@QAEXK_N@Z

; 1298 : 			ShowChildWnd( ID_LINK );

  0002b	57		 push	 edi
  0002c	6a 03		 push	 3
  0002e	8b ce		 mov	 ecx, esi
  00030	ff 15 00 00 00
	00		 call	 DWORD PTR __imp_?ShowChildWnd@ioWnd@@QAEXK_N@Z

; 1299 : 
; 1300 : 			SetChildActive( ID_EXIT );

  00036	6a 01		 push	 1
  00038	8b ce		 mov	 ecx, esi
  0003a	ff 15 00 00 00
	00		 call	 DWORD PTR __imp_?SetChildActive@ioWnd@@QAEXK@Z

; 1301 : 
; 1302 : 			if( m_pPresentIcon )

  00040	39 be d0 01 00
	00		 cmp	 DWORD PTR [esi+464], edi
  00046	74 3d		 je	 SHORT $LN6@iwm_show@2

; 1303 : 			{
; 1304 : 				m_fCompleteIconScale   = 1.50f;

  00048	f3 0f 10 05 00
	00 00 00	 movss	 xmm0, DWORD PTR __real@3fc00000
  00050	f3 0f 11 86 b0
	01 00 00	 movss	 DWORD PTR [esi+432], xmm0

; 1305 : 				m_dwCompleteScaleTimer = FRAMEGETTIME();

  00058	ff 15 00 00 00
	00		 call	 DWORD PTR __imp_?GetSingleton@ioFrameTimer@@SAAAV1@XZ
  0005e	8b c8		 mov	 ecx, eax
  00060	ff 15 00 00 00
	00		 call	 DWORD PTR __imp_?GetLoopSec@ioFrameTimer@@QBEKXZ

; 1306 : 				m_pPresentIcon->SetScale( m_fCompleteIconScale );

  00066	8b 8e d0 01 00
	00		 mov	 ecx, DWORD PTR [esi+464]
  0006c	f3 0f 10 86 b0
	01 00 00	 movss	 xmm0, DWORD PTR [esi+432]
  00074	89 86 b4 01 00
	00		 mov	 DWORD PTR [esi+436], eax
  0007a	8b 01		 mov	 eax, DWORD PTR [ecx]
  0007c	51		 push	 ecx
  0007d	f3 0f 11 04 24	 movss	 DWORD PTR [esp], xmm0
  00082	ff 50 1c	 call	 DWORD PTR [eax+28]
$LN6@iwm_show@2:
  00085	5f		 pop	 edi
  00086	5e		 pop	 esi
  00087	5b		 pop	 ebx

; 1307 : 			}
; 1308 : 		}
; 1309 : 		break;
; 1310 : 	}
; 1311 : }

  00088	c3		 ret	 0
$LN3@iwm_show@2:

; 1286 : 	case STATE_ROLLING:
; 1287 : 		{
; 1288 : 			ShowChildWnd( ID_RECV_ITEM );

  00089	57		 push	 edi
  0008a	6a 02		 push	 2
  0008c	ff 15 00 00 00
	00		 call	 DWORD PTR __imp_?ShowChildWnd@ioWnd@@QAEXK_N@Z

; 1289 : 			HideChildWnd( ID_LINK );

  00092	57		 push	 edi
  00093	6a 03		 push	 3
  00095	8b ce		 mov	 ecx, esi
  00097	ff 15 00 00 00
	00		 call	 DWORD PTR __imp_?HideChildWnd@ioWnd@@QAEXK_N@Z

; 1290 : 
; 1291 : 			SetChildInActive( ID_EXIT );

  0009d	8b 3d 00 00 00
	00		 mov	 edi, DWORD PTR __imp_?SetChildInActive@ioWnd@@QAEXK@Z
  000a3	6a 01		 push	 1
  000a5	8b ce		 mov	 ecx, esi
  000a7	ff d7		 call	 edi

; 1292 : 			SetChildInActive( ID_RECV_ITEM );

  000a9	6a 02		 push	 2
  000ab	8b ce		 mov	 ecx, esi
  000ad	ff d7		 call	 edi

; 1293 : 		}
; 1294 : 		break;

  000af	eb d4		 jmp	 SHORT $LN6@iwm_show@2
$LN4@iwm_show@2:

; 1276 : 		break;
; 1277 : 	case STATE_RECV:
; 1278 : 		{
; 1279 : 			ShowChildWnd( ID_RECV_ITEM );

  000b1	57		 push	 edi
  000b2	6a 02		 push	 2
  000b4	ff 15 00 00 00
	00		 call	 DWORD PTR __imp_?ShowChildWnd@ioWnd@@QAEXK_N@Z

; 1280 : 			HideChildWnd( ID_LINK );

  000ba	57		 push	 edi
  000bb	6a 03		 push	 3
  000bd	8b ce		 mov	 ecx, esi
  000bf	ff 15 00 00 00
	00		 call	 DWORD PTR __imp_?HideChildWnd@ioWnd@@QAEXK_N@Z

; 1281 : 
; 1282 : 			SetChildInActive( ID_EXIT );

  000c5	6a 01		 push	 1
  000c7	8b ce		 mov	 ecx, esi
  000c9	ff 15 00 00 00
	00		 call	 DWORD PTR __imp_?SetChildInActive@ioWnd@@QAEXK@Z

; 1283 : 			SetChildActive( ID_RECV_ITEM );

  000cf	6a 02		 push	 2
  000d1	8b ce		 mov	 ecx, esi
  000d3	ff 15 00 00 00
	00		 call	 DWORD PTR __imp_?SetChildActive@ioWnd@@QAEXK@Z

; 1284 : 		}
; 1285 : 		break;

  000d9	eb aa		 jmp	 SHORT $LN6@iwm_show@2
$LN5@iwm_show@2:
  000db	5f		 pop	 edi
  000dc	5e		 pop	 esi
  000dd	5b		 pop	 ebx

; 1273 : 	{
; 1274 : 	case STATE_NONE:
; 1275 : 		HideWnd();

  000de	ff 25 00 00 00
	00		 jmp	 DWORD PTR __imp_?HideWnd@ioWnd@@QAEXXZ
?iwm_show@OneDayGoldItemEventWnd@@UAEXXZ ENDP		; OneDayGoldItemEventWnd::iwm_show
_TEXT	ENDS
PUBLIC	?iwm_hide@OneDayGoldItemEventWnd@@UAEXXZ	; OneDayGoldItemEventWnd::iwm_hide
; Function compile flags: /Ogsp
;	COMDAT ?iwm_hide@OneDayGoldItemEventWnd@@UAEXXZ
_TEXT	SEGMENT
?iwm_hide@OneDayGoldItemEventWnd@@UAEXXZ PROC		; OneDayGoldItemEventWnd::iwm_hide, COMDAT
; _this$ = ecx

; 1314 : {

  00000	53		 push	 ebx
  00001	56		 push	 esi
  00002	8b f1		 mov	 esi, ecx

; 1315 : 	m_dwState = STATE_NONE;

  00004	83 a6 60 01 00
	00 00		 and	 DWORD PTR [esi+352], 0
  0000b	57		 push	 edi

; 1316 : 	if( !m_szRollingSound.IsEmpty() )

  0000c	8d 8e 78 01 00
	00		 lea	 ecx, DWORD PTR [esi+376]
  00012	ff 15 00 00 00
	00		 call	 DWORD PTR __imp_?IsEmpty@ioHashString@@QBE_NXZ
  00018	8b 3d 00 00 00
	00		 mov	 edi, DWORD PTR __imp_?StopSound@ioSoundManager@@QAEXABVioHashString@@K@Z
  0001e	8b 1d 00 00 00
	00		 mov	 ebx, DWORD PTR __imp_?GetSingleton@ioSoundManager@@SAAAV1@XZ
  00024	84 c0		 test	 al, al
  00026	75 0f		 jne	 SHORT $LN2@iwm_hide@2

; 1317 : 		g_SoundMgr.StopSound( m_szRollingSound, 0 );

  00028	8d 86 78 01 00
	00		 lea	 eax, DWORD PTR [esi+376]
  0002e	6a 00		 push	 0
  00030	50		 push	 eax
  00031	ff d3		 call	 ebx
  00033	8b c8		 mov	 ecx, eax
  00035	ff d7		 call	 edi
$LN2@iwm_hide@2:

; 1318 : 	if( !m_szCompleteSound.IsEmpty() )

  00037	81 c6 88 01 00
	00		 add	 esi, 392		; 00000188H
  0003d	8b ce		 mov	 ecx, esi
  0003f	ff 15 00 00 00
	00		 call	 DWORD PTR __imp_?IsEmpty@ioHashString@@QBE_NXZ
  00045	84 c0		 test	 al, al
  00047	75 09		 jne	 SHORT $LN1@iwm_hide@2

; 1319 : 		g_SoundMgr.StopSound( m_szCompleteSound, 0 );

  00049	6a 00		 push	 0
  0004b	56		 push	 esi
  0004c	ff d3		 call	 ebx
  0004e	8b c8		 mov	 ecx, eax
  00050	ff d7		 call	 edi
$LN1@iwm_hide@2:

; 1320 : }

  00052	5f		 pop	 edi
  00053	5e		 pop	 esi
  00054	5b		 pop	 ebx
  00055	c3		 ret	 0
?iwm_hide@OneDayGoldItemEventWnd@@UAEXXZ ENDP		; OneDayGoldItemEventWnd::iwm_hide
_TEXT	ENDS
PUBLIC	?iwm_esc@OneDayGoldItemEventWnd@@UAE_NXZ	; OneDayGoldItemEventWnd::iwm_esc
; Function compile flags: /Ogsp
;	COMDAT ?iwm_esc@OneDayGoldItemEventWnd@@UAE_NXZ
_TEXT	SEGMENT
?iwm_esc@OneDayGoldItemEventWnd@@UAE_NXZ PROC		; OneDayGoldItemEventWnd::iwm_esc, COMDAT
; _this$ = ecx

; 1323 : {

  00000	56		 push	 esi
  00001	8b f1		 mov	 esi, ecx

; 1324 : 	if( !IsShow() ) return false;

  00003	ff 15 00 00 00
	00		 call	 DWORD PTR __imp_?IsShow@ioWnd@@QBE_NXZ
  00009	84 c0		 test	 al, al
  0000b	74 12		 je	 SHORT $LN1@iwm_esc@2

; 1325 : 
; 1326 : 	if( m_dwState == STATE_COMPLETE )

  0000d	83 be 60 01 00
	00 03		 cmp	 DWORD PTR [esi+352], 3
  00014	75 09		 jne	 SHORT $LN1@iwm_esc@2

; 1327 : 		return ioWnd::iwm_esc();

  00016	8b ce		 mov	 ecx, esi
  00018	5e		 pop	 esi
  00019	ff 25 00 00 00
	00		 jmp	 DWORD PTR __imp_?iwm_esc@ioWnd@@UAE_NXZ
$LN1@iwm_esc@2:

; 1328 : 	return false;

  0001f	32 c0		 xor	 al, al
  00021	5e		 pop	 esi

; 1329 : }

  00022	c3		 ret	 0
?iwm_esc@OneDayGoldItemEventWnd@@UAE_NXZ ENDP		; OneDayGoldItemEventWnd::iwm_esc
_TEXT	ENDS
PUBLIC	?iwm_spacebar@OneDayGoldItemEventWnd@@UAE_NXZ	; OneDayGoldItemEventWnd::iwm_spacebar
; Function compile flags: /Ogsp
;	COMDAT ?iwm_spacebar@OneDayGoldItemEventWnd@@UAE_NXZ
_TEXT	SEGMENT
?iwm_spacebar@OneDayGoldItemEventWnd@@UAE_NXZ PROC	; OneDayGoldItemEventWnd::iwm_spacebar, COMDAT
; _this$ = ecx

; 1332 : {

  00000	56		 push	 esi
  00001	8b f1		 mov	 esi, ecx

; 1333 : 	if( !IsShow() ) return false;

  00003	ff 15 00 00 00
	00		 call	 DWORD PTR __imp_?IsShow@ioWnd@@QBE_NXZ
  00009	84 c0		 test	 al, al
  0000b	74 28		 je	 SHORT $LN1@iwm_spaceb@3

; 1334 : 
; 1335 : 	if( m_dwState == STATE_COMPLETE )

  0000d	83 be 60 01 00
	00 03		 cmp	 DWORD PTR [esi+352], 3
  00014	75 1f		 jne	 SHORT $LN1@iwm_spaceb@3

; 1336 : 	{
; 1337 : 		iwm_command( FindChildWnd( ID_LINK ), IOBN_BTNUP, 0 );

  00016	57		 push	 edi
  00017	8b 3e		 mov	 edi, DWORD PTR [esi]
  00019	6a 00		 push	 0
  0001b	6a 11		 push	 17			; 00000011H
  0001d	6a 03		 push	 3
  0001f	8b ce		 mov	 ecx, esi
  00021	ff 15 00 00 00
	00		 call	 DWORD PTR __imp_?FindChildWnd@ioWnd@@QAEPAV1@K@Z
  00027	50		 push	 eax
  00028	8b ce		 mov	 ecx, esi
  0002a	ff 97 8c 00 00
	00		 call	 DWORD PTR [edi+140]
  00030	5f		 pop	 edi

; 1338 : 		return true;

  00031	b0 01		 mov	 al, 1
  00033	5e		 pop	 esi

; 1341 : }

  00034	c3		 ret	 0
$LN1@iwm_spaceb@3:

; 1339 : 	}
; 1340 : 	return false;

  00035	32 c0		 xor	 al, al
  00037	5e		 pop	 esi

; 1341 : }

  00038	c3		 ret	 0
?iwm_spacebar@OneDayGoldItemEventWnd@@UAE_NXZ ENDP	; OneDayGoldItemEventWnd::iwm_spacebar
_TEXT	ENDS
PUBLIC	?SetRecvState@OneDayGoldItemEventWnd@@QAEXXZ	; OneDayGoldItemEventWnd::SetRecvState
; Function compile flags: /Ogsp
;	COMDAT ?SetRecvState@OneDayGoldItemEventWnd@@QAEXXZ
_TEXT	SEGMENT
?SetRecvState@OneDayGoldItemEventWnd@@QAEXXZ PROC	; OneDayGoldItemEventWnd::SetRecvState, COMDAT
; _this$ = ecx

; 1425 : {

  00000	56		 push	 esi
  00001	8b f1		 mov	 esi, ecx

; 1426 : 	HideWnd();

  00003	ff 15 00 00 00
	00		 call	 DWORD PTR __imp_?HideWnd@ioWnd@@QAEXXZ

; 1427 : 	m_dwState = STATE_RECV;

  00009	c7 86 60 01 00
	00 01 00 00 00	 mov	 DWORD PTR [esi+352], 1

; 1428 : 	ShowWnd();

  00013	8b ce		 mov	 ecx, esi
  00015	5e		 pop	 esi
  00016	ff 25 00 00 00
	00		 jmp	 DWORD PTR __imp_?ShowWnd@ioWnd@@QAEXXZ
?SetRecvState@OneDayGoldItemEventWnd@@QAEXXZ ENDP	; OneDayGoldItemEventWnd::SetRecvState
_TEXT	ENDS
PUBLIC	?ProcessComplete@OneDayGoldItemEventWnd@@IAEXXZ	; OneDayGoldItemEventWnd::ProcessComplete
; Function compile flags: /Ogsp
;	COMDAT ?ProcessComplete@OneDayGoldItemEventWnd@@IAEXXZ
_TEXT	SEGMENT
tv260 = -8						; size = 4
tv248 = -8						; size = 4
tv241 = -8						; size = 4
tv235 = -8						; size = 4
tv229 = -8						; size = 4
tv134 = -8						; size = 4
tv75 = -8						; size = 4
tv264 = -4						; size = 4
tv244 = -4						; size = 4
tv237 = -4						; size = 4
tv224 = -4						; size = 4
?ProcessComplete@OneDayGoldItemEventWnd@@IAEXXZ PROC	; OneDayGoldItemEventWnd::ProcessComplete, COMDAT
; _this$ = ecx

; 1550 : {

  00000	55		 push	 ebp
  00001	8b ec		 mov	 ebp, esp
  00003	51		 push	 ecx
  00004	51		 push	 ecx
  00005	56		 push	 esi
  00006	8b f1		 mov	 esi, ecx

; 1551 : 	if( m_dwState != STATE_COMPLETE ) return;

  00008	83 be 60 01 00
	00 03		 cmp	 DWORD PTR [esi+352], 3
  0000f	0f 85 29 01 00
	00		 jne	 $LN3@ProcessCom

; 1552 : 	if( m_dwCompleteScaleTimer == 0 ) return;

  00015	57		 push	 edi
  00016	33 ff		 xor	 edi, edi
  00018	39 be b4 01 00
	00		 cmp	 DWORD PTR [esi+436], edi
  0001e	0f 84 19 01 00
	00		 je	 $LN22@ProcessCom

; 1553 : 
; 1554 : 	if( m_pPresentIcon )

  00024	39 be d0 01 00
	00		 cmp	 DWORD PTR [esi+464], edi
  0002a	0f 84 0d 01 00
	00		 je	 $LN22@ProcessCom

; 1555 : 	{
; 1556 : 		DWORD dwGapTime = FRAMEGETTIME() - m_dwCompleteScaleTimer;

  00030	ff 15 00 00 00
	00		 call	 DWORD PTR __imp_?GetSingleton@ioFrameTimer@@SAAAV1@XZ
  00036	8b c8		 mov	 ecx, eax
  00038	ff 15 00 00 00
	00		 call	 DWORD PTR __imp_?GetLoopSec@ioFrameTimer@@QBEKXZ
  0003e	8b c8		 mov	 ecx, eax
  00040	2b 8e b4 01 00
	00		 sub	 ecx, DWORD PTR [esi+436]

; 1557 : 		if( dwGapTime < FLOAT100 )

  00046	b8 64 00 00 00	 mov	 eax, 100		; 00000064H
  0004b	89 4d fc	 mov	 DWORD PTR tv264[ebp], ecx
  0004e	db 45 fc	 fild	 DWORD PTR tv264[ebp]
  00051	79 06		 jns	 SHORT $LN23@ProcessCom
  00053	d8 05 00 00 00
	00		 fadd	 DWORD PTR __real@4f800000
$LN23@ProcessCom:
  00059	d9 5d fc	 fstp	 DWORD PTR tv237[ebp]
  0005c	89 45 f8	 mov	 DWORD PTR tv260[ebp], eax
  0005f	d9 45 fc	 fld	 DWORD PTR tv237[ebp]
  00062	db 45 f8	 fild	 DWORD PTR tv260[ebp]
  00065	85 c0		 test	 eax, eax
  00067	79 06		 jns	 SHORT $LN24@ProcessCom
  00069	d8 05 00 00 00
	00		 fadd	 DWORD PTR __real@4f800000
$LN24@ProcessCom:
  0006f	df f1		 fcomip	 ST(1)
  00071	dd d8		 fstp	 ST(0)
  00073	0f 86 8a 00 00
	00		 jbe	 $LN2@ProcessCom

; 1558 : 		{
; 1559 : 			m_fCompleteIconScale = FLOAT1 + ( FLOAT05 * ( (float)( FLOAT100 - dwGapTime ) / FLOAT100 ) );

  00079	53		 push	 ebx
  0007a	b8 01 00 00 00	 mov	 eax, 1
  0007f	8b c8		 mov	 ecx, eax
  00081	b8 05 00 00 00	 mov	 eax, 5
  00086	8b d0		 mov	 edx, eax
  00088	b8 0a 00 00 00	 mov	 eax, 10			; 0000000aH
  0008d	8b f8		 mov	 edi, eax
  0008f	b8 64 00 00 00	 mov	 eax, 100		; 00000064H
  00094	8b d8		 mov	 ebx, eax
  00096	b8 64 00 00 00	 mov	 eax, 100		; 00000064H
  0009b	89 5d f8	 mov	 DWORD PTR tv248[ebp], ebx
  0009e	db 45 f8	 fild	 DWORD PTR tv248[ebp]
  000a1	85 db		 test	 ebx, ebx
  000a3	79 06		 jns	 SHORT $LN25@ProcessCom
  000a5	d8 05 00 00 00
	00		 fadd	 DWORD PTR __real@4f800000
$LN25@ProcessCom:
  000ab	d8 65 fc	 fsub	 DWORD PTR tv237[ebp]
  000ae	89 45 f8	 mov	 DWORD PTR tv241[ebp], eax
  000b1	d9 5d fc	 fstp	 DWORD PTR tv244[ebp]
  000b4	d9 45 fc	 fld	 DWORD PTR tv244[ebp]
  000b7	db 45 f8	 fild	 DWORD PTR tv241[ebp]
  000ba	85 c0		 test	 eax, eax
  000bc	79 06		 jns	 SHORT $LN26@ProcessCom
  000be	d8 05 00 00 00
	00		 fadd	 DWORD PTR __real@4f800000
$LN26@ProcessCom:
  000c4	89 55 f8	 mov	 DWORD PTR tv235[ebp], edx
  000c7	de f9		 fdivp	 ST(1), ST(0)
  000c9	db 45 f8	 fild	 DWORD PTR tv235[ebp]
  000cc	85 d2		 test	 edx, edx
  000ce	79 06		 jns	 SHORT $LN27@ProcessCom
  000d0	d8 05 00 00 00
	00		 fadd	 DWORD PTR __real@4f800000
$LN27@ProcessCom:
  000d6	89 7d f8	 mov	 DWORD PTR tv229[ebp], edi
  000d9	db 45 f8	 fild	 DWORD PTR tv229[ebp]
  000dc	85 ff		 test	 edi, edi
  000de	79 06		 jns	 SHORT $LN28@ProcessCom
  000e0	d8 05 00 00 00
	00		 fadd	 DWORD PTR __real@4f800000
$LN28@ProcessCom:
  000e6	de f9		 fdivp	 ST(1), ST(0)
  000e8	89 4d f8	 mov	 DWORD PTR tv134[ebp], ecx
  000eb	d9 5d fc	 fstp	 DWORD PTR tv224[ebp]
  000ee	d8 4d fc	 fmul	 DWORD PTR tv224[ebp]
  000f1	db 45 f8	 fild	 DWORD PTR tv134[ebp]
  000f4	85 c9		 test	 ecx, ecx
  000f6	79 06		 jns	 SHORT $LN29@ProcessCom
  000f8	d8 05 00 00 00
	00		 fadd	 DWORD PTR __real@4f800000
$LN29@ProcessCom:
  000fe	de c1		 faddp	 ST(1), ST(0)
  00100	5b		 pop	 ebx

; 1560 : 		}
; 1561 : 		else

  00101	eb 1b		 jmp	 SHORT $LN30@ProcessCom
$LN2@ProcessCom:

; 1562 : 		{
; 1563 : 			m_dwCompleteScaleTimer = 0;

  00103	89 be b4 01 00
	00		 mov	 DWORD PTR [esi+436], edi

; 1564 : 			m_fCompleteIconScale   = FLOAT1;

  00109	b8 01 00 00 00	 mov	 eax, 1
  0010e	89 45 f8	 mov	 DWORD PTR tv75[ebp], eax
  00111	db 45 f8	 fild	 DWORD PTR tv75[ebp]
  00114	85 c0		 test	 eax, eax
  00116	79 06		 jns	 SHORT $LN30@ProcessCom
  00118	d8 05 00 00 00
	00		 fadd	 DWORD PTR __real@4f800000
$LN30@ProcessCom:

; 1565 : 		}
; 1566 : 		m_pPresentIcon->SetScale( m_fCompleteIconScale );

  0011e	8b 8e d0 01 00
	00		 mov	 ecx, DWORD PTR [esi+464]
  00124	d9 9e b0 01 00
	00		 fstp	 DWORD PTR [esi+432]
  0012a	f3 0f 10 86 b0
	01 00 00	 movss	 xmm0, DWORD PTR [esi+432]
  00132	8b 01		 mov	 eax, DWORD PTR [ecx]
  00134	51		 push	 ecx
  00135	f3 0f 11 04 24	 movss	 DWORD PTR [esp], xmm0
  0013a	ff 50 1c	 call	 DWORD PTR [eax+28]
$LN22@ProcessCom:
  0013d	5f		 pop	 edi
$LN3@ProcessCom:
  0013e	5e		 pop	 esi

; 1567 : 	}
; 1568 : }

  0013f	c9		 leave
  00140	c3		 ret	 0
?ProcessComplete@OneDayGoldItemEventWnd@@IAEXXZ ENDP	; OneDayGoldItemEventWnd::ProcessComplete
_TEXT	ENDS
PUBLIC	??_C@_0CK@CJEBFJAK@OneDayGoldItemEventWnd?3?3OnStateR@ ; `string'
PUBLIC	?OnStateRecvRender@OneDayGoldItemEventWnd@@IAEXHH@Z ; OneDayGoldItemEventWnd::OnStateRecvRender
;	COMDAT ??_C@_0CK@CJEBFJAK@OneDayGoldItemEventWnd?3?3OnStateR@
CONST	SEGMENT
??_C@_0CK@CJEBFJAK@OneDayGoldItemEventWnd?3?3OnStateR@ DB 'OneDayGoldItem'
	DB	'EventWnd::OnStateRecvRender', 00H		; `string'
; Function compile flags: /Ogsp
CONST	ENDS
;	COMDAT ?OnStateRecvRender@OneDayGoldItemEventWnd@@IAEXHH@Z
_TEXT	SEGMENT
tv273 = -4						; size = 4
_iXPos$ = 8						; size = 4
tv275 = 12						; size = 4
_iYPos$ = 12						; size = 4
?OnStateRecvRender@OneDayGoldItemEventWnd@@IAEXHH@Z PROC ; OneDayGoldItemEventWnd::OnStateRecvRender, COMDAT
; _this$ = ecx

; 1599 : {

  00000	55		 push	 ebp
  00001	8b ec		 mov	 ebp, esp
  00003	51		 push	 ecx
  00004	56		 push	 esi
  00005	57		 push	 edi
  00006	8b f1		 mov	 esi, ecx

; 1600 : 	if( !m_pBackRedLight || !m_pRecvIcon || !m_pTextStateRecv ) return;

  00008	33 ff		 xor	 edi, edi
  0000a	39 be b8 01 00
	00		 cmp	 DWORD PTR [esi+440], edi
  00010	0f 84 f8 01 00
	00		 je	 $LN1@OnStateRec
  00016	39 be c0 01 00
	00		 cmp	 DWORD PTR [esi+448], edi
  0001c	0f 84 ec 01 00
	00		 je	 $LN1@OnStateRec
  00022	39 be c4 01 00
	00		 cmp	 DWORD PTR [esi+452], edi
  00028	0f 84 e0 01 00
	00		 je	 $LN1@OnStateRec

; 1601 : 
; 1602 : 	m_pBackRedLight->Render( iXPos + 161, iYPos + 92 );

  0002e	8b 8e b8 01 00
	00		 mov	 ecx, DWORD PTR [esi+440]
  00034	53		 push	 ebx
  00035	8b 5d 0c	 mov	 ebx, DWORD PTR _iYPos$[ebp]
  00038	57		 push	 edi
  00039	57		 push	 edi
  0003a	57		 push	 edi
  0003b	8d 43 5c	 lea	 eax, DWORD PTR [ebx+92]
  0003e	0f 57 c0	 xorps	 xmm0, xmm0
  00041	f3 0f 2a c0	 cvtsi2ss xmm0, eax
  00045	8b 45 08	 mov	 eax, DWORD PTR _iXPos$[ebp]
  00048	57		 push	 edi
  00049	05 a1 00 00 00	 add	 eax, 161		; 000000a1H
  0004e	51		 push	 ecx
  0004f	51		 push	 ecx
  00050	0f 57 c9	 xorps	 xmm1, xmm1
  00053	f3 0f 2a c8	 cvtsi2ss xmm1, eax
  00057	8b 01		 mov	 eax, DWORD PTR [ecx]
  00059	f3 0f 11 44 24
	04		 movss	 DWORD PTR [esp+4], xmm0
  0005f	f3 0f 11 45 fc	 movss	 DWORD PTR tv273[ebp], xmm0
  00064	f3 0f 11 4d 0c	 movss	 DWORD PTR tv275[ebp], xmm1
  00069	f3 0f 11 0c 24	 movss	 DWORD PTR [esp], xmm1
  0006e	ff 10		 call	 DWORD PTR [eax]

; 1603 : 	m_pRecvIcon->Render( iXPos + 161, iYPos + 92 );

  00070	8b 8e c0 01 00
	00		 mov	 ecx, DWORD PTR [esi+448]
  00076	f3 0f 10 45 fc	 movss	 xmm0, DWORD PTR tv273[ebp]
  0007b	8b 01		 mov	 eax, DWORD PTR [ecx]
  0007d	57		 push	 edi
  0007e	57		 push	 edi
  0007f	57		 push	 edi
  00080	57		 push	 edi
  00081	51		 push	 ecx
  00082	51		 push	 ecx
  00083	f3 0f 11 44 24
	04		 movss	 DWORD PTR [esp+4], xmm0
  00089	f3 0f 10 45 0c	 movss	 xmm0, DWORD PTR tv275[ebp]
  0008e	f3 0f 11 04 24	 movss	 DWORD PTR [esp], xmm0
  00093	ff 10		 call	 DWORD PTR [eax]

; 1604 : 	m_pTextStateRecv->Render( iXPos + 161, iYPos + 132 );

  00095	8b 8e c4 01 00
	00		 mov	 ecx, DWORD PTR [esi+452]
  0009b	8b 01		 mov	 eax, DWORD PTR [ecx]
  0009d	57		 push	 edi
  0009e	57		 push	 edi
  0009f	57		 push	 edi
  000a0	57		 push	 edi
  000a1	51		 push	 ecx
  000a2	8d 93 84 00 00
	00		 lea	 edx, DWORD PTR [ebx+132]
  000a8	0f 57 c0	 xorps	 xmm0, xmm0
  000ab	51		 push	 ecx
  000ac	f3 0f 2a c2	 cvtsi2ss xmm0, edx
  000b0	f3 0f 11 44 24
	04		 movss	 DWORD PTR [esp+4], xmm0
  000b6	f3 0f 10 45 0c	 movss	 xmm0, DWORD PTR tv275[ebp]
  000bb	f3 0f 11 04 24	 movss	 DWORD PTR [esp], xmm0
  000c0	ff 10		 call	 DWORD PTR [eax]

; 1605 : 
; 1606 : 	g_FontMgr.SetTextStyle( TS_OUTLINE_FULL_2X );

  000c2	8b 35 00 00 00
	00		 mov	 esi, DWORD PTR __imp_?GetSingleton@ioFontManager@@SAAAV1@XZ
  000c8	6a 05		 push	 5
  000ca	ff d6		 call	 esi
  000cc	8b c8		 mov	 ecx, eax
  000ce	ff 15 00 00 00
	00		 call	 DWORD PTR __imp_?SetTextStyle@ioFontManager@@QAEXW4TextStyle@@@Z

; 1607 : 	g_FontMgr.SetAlignType( TAT_CENTER );

  000d4	6a 01		 push	 1
  000d6	ff d6		 call	 esi
  000d8	8b c8		 mov	 ecx, eax
  000da	ff 15 00 00 00
	00		 call	 DWORD PTR __imp_?SetAlignType@ioFontManager@@QAEXW4TextAlignType@@@Z

; 1608 : 	g_FontMgr.SetBkColor( 0, 0, 0 );

  000e0	57		 push	 edi
  000e1	57		 push	 edi
  000e2	57		 push	 edi
  000e3	ff d6		 call	 esi
  000e5	8b c8		 mov	 ecx, eax
  000e7	ff 15 00 00 00
	00		 call	 DWORD PTR __imp_?SetBkColor@ioFontManager@@QAEXHHH@Z

; 1609 : 	g_FontMgr.SetTextColor( TCT_DEFAULT_GRAY );

  000ed	68 6e 6e 6e ff	 push	 -9539986		; ff6e6e6eH
  000f2	ff d6		 call	 esi
  000f4	8b c8		 mov	 ecx, eax
  000f6	ff 15 00 00 00
	00		 call	 DWORD PTR __imp_?SetTextColor@ioFontManager@@QAEXK@Z

; 1610 : 	g_FontMgr.PrintText( iXPos + 161, iYPos + 168, FONT_SIZE_13, STR(1) );

  000fc	57		 push	 edi
  000fd	6a 01		 push	 1
  000ff	68 00 00 00 00	 push	 OFFSET ??_C@_00CNPNBAHC@?$AA@
  00104	68 00 00 00 00	 push	 OFFSET ??_C@_0CK@CJEBFJAK@OneDayGoldItemEventWnd?3?3OnStateR@
  00109	ff 15 00 00 00
	00		 call	 DWORD PTR __imp_?GetSingleton@ioStringManager@@SAAAV1@XZ
  0010f	8b c8		 mov	 ecx, eax
  00111	ff 15 00 00 00
	00		 call	 DWORD PTR __imp_?GetString@ioStringManager@@QAEPADPBD0HW4FileNamePrefix@1@@Z
  00117	f3 0f 10 05 00
	00 00 00	 movss	 xmm0, DWORD PTR __real@3f266666
  0011f	50		 push	 eax
  00120	83 ec 0c	 sub	 esp, 12			; 0000000cH
  00123	f3 0f 11 44 24
	08		 movss	 DWORD PTR [esp+8], xmm0
  00129	8d 83 a8 00 00
	00		 lea	 eax, DWORD PTR [ebx+168]
  0012f	0f 57 c0	 xorps	 xmm0, xmm0
  00132	f3 0f 2a c0	 cvtsi2ss xmm0, eax
  00136	f3 0f 11 44 24
	04		 movss	 DWORD PTR [esp+4], xmm0
  0013c	f3 0f 10 45 0c	 movss	 xmm0, DWORD PTR tv275[ebp]
  00141	f3 0f 11 04 24	 movss	 DWORD PTR [esp], xmm0
  00146	ff d6		 call	 esi
  00148	50		 push	 eax
  00149	ff 15 00 00 00
	00		 call	 DWORD PTR __imp_?PrintText@ioFontManager@@QAAXMMMPBDZZ
  0014f	83 c4 14	 add	 esp, 20			; 00000014H

; 1611 : 	g_FontMgr.PrintText( iXPos + 161, iYPos + 190, FONT_SIZE_13, STR(2) );

  00152	57		 push	 edi
  00153	6a 02		 push	 2
  00155	68 00 00 00 00	 push	 OFFSET ??_C@_00CNPNBAHC@?$AA@
  0015a	68 00 00 00 00	 push	 OFFSET ??_C@_0CK@CJEBFJAK@OneDayGoldItemEventWnd?3?3OnStateR@
  0015f	ff 15 00 00 00
	00		 call	 DWORD PTR __imp_?GetSingleton@ioStringManager@@SAAAV1@XZ
  00165	8b c8		 mov	 ecx, eax
  00167	ff 15 00 00 00
	00		 call	 DWORD PTR __imp_?GetString@ioStringManager@@QAEPADPBD0HW4FileNamePrefix@1@@Z
  0016d	f3 0f 10 05 00
	00 00 00	 movss	 xmm0, DWORD PTR __real@3f266666
  00175	50		 push	 eax
  00176	83 ec 0c	 sub	 esp, 12			; 0000000cH
  00179	f3 0f 11 44 24
	08		 movss	 DWORD PTR [esp+8], xmm0
  0017f	8d 83 be 00 00
	00		 lea	 eax, DWORD PTR [ebx+190]
  00185	0f 57 c0	 xorps	 xmm0, xmm0
  00188	f3 0f 2a c0	 cvtsi2ss xmm0, eax
  0018c	f3 0f 11 44 24
	04		 movss	 DWORD PTR [esp+4], xmm0
  00192	f3 0f 10 45 0c	 movss	 xmm0, DWORD PTR tv275[ebp]
  00197	f3 0f 11 04 24	 movss	 DWORD PTR [esp], xmm0
  0019c	ff d6		 call	 esi
  0019e	50		 push	 eax
  0019f	ff 15 00 00 00
	00		 call	 DWORD PTR __imp_?PrintText@ioFontManager@@QAAXMMMPBDZZ
  001a5	83 c4 14	 add	 esp, 20			; 00000014H

; 1612 : 
; 1613 : 	g_FontMgr.SetTextColor( TCT_DEFAULT_DARKGRAY );

  001a8	68 3a 3a 3a ff	 push	 -12961222		; ff3a3a3aH
  001ad	ff d6		 call	 esi
  001af	8b c8		 mov	 ecx, eax
  001b1	ff 15 00 00 00
	00		 call	 DWORD PTR __imp_?SetTextColor@ioFontManager@@QAEXK@Z

; 1614 : 	g_FontMgr.PrintText( iXPos + 161, iYPos + 212, FONT_SIZE_13, STR(3) );

  001b7	57		 push	 edi
  001b8	6a 03		 push	 3
  001ba	68 00 00 00 00	 push	 OFFSET ??_C@_00CNPNBAHC@?$AA@
  001bf	68 00 00 00 00	 push	 OFFSET ??_C@_0CK@CJEBFJAK@OneDayGoldItemEventWnd?3?3OnStateR@
  001c4	ff 15 00 00 00
	00		 call	 DWORD PTR __imp_?GetSingleton@ioStringManager@@SAAAV1@XZ
  001ca	8b c8		 mov	 ecx, eax
  001cc	ff 15 00 00 00
	00		 call	 DWORD PTR __imp_?GetString@ioStringManager@@QAEPADPBD0HW4FileNamePrefix@1@@Z
  001d2	f3 0f 10 05 00
	00 00 00	 movss	 xmm0, DWORD PTR __real@3f266666
  001da	50		 push	 eax
  001db	83 ec 0c	 sub	 esp, 12			; 0000000cH
  001de	f3 0f 11 44 24
	08		 movss	 DWORD PTR [esp+8], xmm0
  001e4	0f 57 c0	 xorps	 xmm0, xmm0
  001e7	81 c3 d4 00 00
	00		 add	 ebx, 212		; 000000d4H
  001ed	f3 0f 2a c3	 cvtsi2ss xmm0, ebx
  001f1	f3 0f 11 44 24
	04		 movss	 DWORD PTR [esp+4], xmm0
  001f7	f3 0f 10 45 0c	 movss	 xmm0, DWORD PTR tv275[ebp]
  001fc	f3 0f 11 04 24	 movss	 DWORD PTR [esp], xmm0
  00201	ff d6		 call	 esi
  00203	50		 push	 eax
  00204	ff 15 00 00 00
	00		 call	 DWORD PTR __imp_?PrintText@ioFontManager@@QAAXMMMPBDZZ
  0020a	83 c4 14	 add	 esp, 20			; 00000014H
  0020d	5b		 pop	 ebx
$LN1@OnStateRec:
  0020e	5f		 pop	 edi
  0020f	5e		 pop	 esi

; 1615 : }

  00210	c9		 leave
  00211	c2 08 00	 ret	 8
?OnStateRecvRender@OneDayGoldItemEventWnd@@IAEXHH@Z ENDP ; OneDayGoldItemEventWnd::OnStateRecvRender
_TEXT	ENDS
PUBLIC	??_C@_0CN@OHFMBDMF@OneDayGoldItemEventWnd?3?3OnStateR@ ; `string'
PUBLIC	?OnStateRollingRender@OneDayGoldItemEventWnd@@IAEXHH@Z ; OneDayGoldItemEventWnd::OnStateRollingRender
;	COMDAT ??_C@_0CN@OHFMBDMF@OneDayGoldItemEventWnd?3?3OnStateR@
CONST	SEGMENT
??_C@_0CN@OHFMBDMF@OneDayGoldItemEventWnd?3?3OnStateR@ DB 'OneDayGoldItem'
	DB	'EventWnd::OnStateRollingRender', 00H	; `string'
; Function compile flags: /Ogsp
CONST	ENDS
;	COMDAT ?OnStateRollingRender@OneDayGoldItemEventWnd@@IAEXHH@Z
_TEXT	SEGMENT
tv273 = -4						; size = 4
_iXPos$ = 8						; size = 4
tv275 = 12						; size = 4
_iYPos$ = 12						; size = 4
?OnStateRollingRender@OneDayGoldItemEventWnd@@IAEXHH@Z PROC ; OneDayGoldItemEventWnd::OnStateRollingRender, COMDAT
; _this$ = ecx

; 1618 : {

  00000	55		 push	 ebp
  00001	8b ec		 mov	 ebp, esp
  00003	51		 push	 ecx
  00004	56		 push	 esi
  00005	57		 push	 edi
  00006	8b f1		 mov	 esi, ecx

; 1619 : 	if( !m_pBackRedLight || !m_pRollingIcon || !m_pTextStateRolling ) return;

  00008	33 ff		 xor	 edi, edi
  0000a	39 be b8 01 00
	00		 cmp	 DWORD PTR [esi+440], edi
  00010	0f 84 f8 01 00
	00		 je	 $LN1@OnStateRol
  00016	39 be d4 01 00
	00		 cmp	 DWORD PTR [esi+468], edi
  0001c	0f 84 ec 01 00
	00		 je	 $LN1@OnStateRol
  00022	39 be c8 01 00
	00		 cmp	 DWORD PTR [esi+456], edi
  00028	0f 84 e0 01 00
	00		 je	 $LN1@OnStateRol

; 1620 : 
; 1621 : 	m_pBackRedLight->Render( iXPos + 161, iYPos + 92 );

  0002e	8b 8e b8 01 00
	00		 mov	 ecx, DWORD PTR [esi+440]
  00034	53		 push	 ebx
  00035	8b 5d 0c	 mov	 ebx, DWORD PTR _iYPos$[ebp]
  00038	57		 push	 edi
  00039	57		 push	 edi
  0003a	57		 push	 edi
  0003b	8d 43 5c	 lea	 eax, DWORD PTR [ebx+92]
  0003e	0f 57 c0	 xorps	 xmm0, xmm0
  00041	f3 0f 2a c0	 cvtsi2ss xmm0, eax
  00045	8b 45 08	 mov	 eax, DWORD PTR _iXPos$[ebp]
  00048	57		 push	 edi
  00049	05 a1 00 00 00	 add	 eax, 161		; 000000a1H
  0004e	51		 push	 ecx
  0004f	51		 push	 ecx
  00050	0f 57 c9	 xorps	 xmm1, xmm1
  00053	f3 0f 2a c8	 cvtsi2ss xmm1, eax
  00057	8b 01		 mov	 eax, DWORD PTR [ecx]
  00059	f3 0f 11 44 24
	04		 movss	 DWORD PTR [esp+4], xmm0
  0005f	f3 0f 11 45 fc	 movss	 DWORD PTR tv273[ebp], xmm0
  00064	f3 0f 11 4d 0c	 movss	 DWORD PTR tv275[ebp], xmm1
  00069	f3 0f 11 0c 24	 movss	 DWORD PTR [esp], xmm1
  0006e	ff 10		 call	 DWORD PTR [eax]

; 1622 : 	m_pRollingIcon->Render( iXPos + 161, iYPos + 92 );

  00070	8b 8e d4 01 00
	00		 mov	 ecx, DWORD PTR [esi+468]
  00076	f3 0f 10 45 fc	 movss	 xmm0, DWORD PTR tv273[ebp]
  0007b	8b 01		 mov	 eax, DWORD PTR [ecx]
  0007d	57		 push	 edi
  0007e	57		 push	 edi
  0007f	57		 push	 edi
  00080	57		 push	 edi
  00081	51		 push	 ecx
  00082	51		 push	 ecx
  00083	f3 0f 11 44 24
	04		 movss	 DWORD PTR [esp+4], xmm0
  00089	f3 0f 10 45 0c	 movss	 xmm0, DWORD PTR tv275[ebp]
  0008e	f3 0f 11 04 24	 movss	 DWORD PTR [esp], xmm0
  00093	ff 10		 call	 DWORD PTR [eax]

; 1623 : 	m_pTextStateRolling->Render( iXPos + 161, iYPos + 132 );

  00095	8b 8e c8 01 00
	00		 mov	 ecx, DWORD PTR [esi+456]
  0009b	8b 01		 mov	 eax, DWORD PTR [ecx]
  0009d	57		 push	 edi
  0009e	57		 push	 edi
  0009f	57		 push	 edi
  000a0	57		 push	 edi
  000a1	51		 push	 ecx
  000a2	8d 93 84 00 00
	00		 lea	 edx, DWORD PTR [ebx+132]
  000a8	0f 57 c0	 xorps	 xmm0, xmm0
  000ab	51		 push	 ecx
  000ac	f3 0f 2a c2	 cvtsi2ss xmm0, edx
  000b0	f3 0f 11 44 24
	04		 movss	 DWORD PTR [esp+4], xmm0
  000b6	f3 0f 10 45 0c	 movss	 xmm0, DWORD PTR tv275[ebp]
  000bb	f3 0f 11 04 24	 movss	 DWORD PTR [esp], xmm0
  000c0	ff 10		 call	 DWORD PTR [eax]

; 1624 : 
; 1625 : 	g_FontMgr.SetTextStyle( TS_OUTLINE_FULL_2X );

  000c2	8b 35 00 00 00
	00		 mov	 esi, DWORD PTR __imp_?GetSingleton@ioFontManager@@SAAAV1@XZ
  000c8	6a 05		 push	 5
  000ca	ff d6		 call	 esi
  000cc	8b c8		 mov	 ecx, eax
  000ce	ff 15 00 00 00
	00		 call	 DWORD PTR __imp_?SetTextStyle@ioFontManager@@QAEXW4TextStyle@@@Z

; 1626 : 	g_FontMgr.SetAlignType( TAT_CENTER );

  000d4	6a 01		 push	 1
  000d6	ff d6		 call	 esi
  000d8	8b c8		 mov	 ecx, eax
  000da	ff 15 00 00 00
	00		 call	 DWORD PTR __imp_?SetAlignType@ioFontManager@@QAEXW4TextAlignType@@@Z

; 1627 : 	g_FontMgr.SetBkColor( 0, 0, 0 );

  000e0	57		 push	 edi
  000e1	57		 push	 edi
  000e2	57		 push	 edi
  000e3	ff d6		 call	 esi
  000e5	8b c8		 mov	 ecx, eax
  000e7	ff 15 00 00 00
	00		 call	 DWORD PTR __imp_?SetBkColor@ioFontManager@@QAEXHHH@Z

; 1628 : 	g_FontMgr.SetTextColor( TCT_DEFAULT_GRAY );

  000ed	68 6e 6e 6e ff	 push	 -9539986		; ff6e6e6eH
  000f2	ff d6		 call	 esi
  000f4	8b c8		 mov	 ecx, eax
  000f6	ff 15 00 00 00
	00		 call	 DWORD PTR __imp_?SetTextColor@ioFontManager@@QAEXK@Z

; 1629 : 	g_FontMgr.PrintText( iXPos + 161, iYPos + 168, FONT_SIZE_13, STR(1) );

  000fc	57		 push	 edi
  000fd	6a 01		 push	 1
  000ff	68 00 00 00 00	 push	 OFFSET ??_C@_00CNPNBAHC@?$AA@
  00104	68 00 00 00 00	 push	 OFFSET ??_C@_0CN@OHFMBDMF@OneDayGoldItemEventWnd?3?3OnStateR@
  00109	ff 15 00 00 00
	00		 call	 DWORD PTR __imp_?GetSingleton@ioStringManager@@SAAAV1@XZ
  0010f	8b c8		 mov	 ecx, eax
  00111	ff 15 00 00 00
	00		 call	 DWORD PTR __imp_?GetString@ioStringManager@@QAEPADPBD0HW4FileNamePrefix@1@@Z
  00117	f3 0f 10 05 00
	00 00 00	 movss	 xmm0, DWORD PTR __real@3f266666
  0011f	50		 push	 eax
  00120	83 ec 0c	 sub	 esp, 12			; 0000000cH
  00123	f3 0f 11 44 24
	08		 movss	 DWORD PTR [esp+8], xmm0
  00129	8d 83 a8 00 00
	00		 lea	 eax, DWORD PTR [ebx+168]
  0012f	0f 57 c0	 xorps	 xmm0, xmm0
  00132	f3 0f 2a c0	 cvtsi2ss xmm0, eax
  00136	f3 0f 11 44 24
	04		 movss	 DWORD PTR [esp+4], xmm0
  0013c	f3 0f 10 45 0c	 movss	 xmm0, DWORD PTR tv275[ebp]
  00141	f3 0f 11 04 24	 movss	 DWORD PTR [esp], xmm0
  00146	ff d6		 call	 esi
  00148	50		 push	 eax
  00149	ff 15 00 00 00
	00		 call	 DWORD PTR __imp_?PrintText@ioFontManager@@QAAXMMMPBDZZ
  0014f	83 c4 14	 add	 esp, 20			; 00000014H

; 1630 : 	g_FontMgr.PrintText( iXPos + 161, iYPos + 190, FONT_SIZE_13, STR(2) );

  00152	57		 push	 edi
  00153	6a 02		 push	 2
  00155	68 00 00 00 00	 push	 OFFSET ??_C@_00CNPNBAHC@?$AA@
  0015a	68 00 00 00 00	 push	 OFFSET ??_C@_0CN@OHFMBDMF@OneDayGoldItemEventWnd?3?3OnStateR@
  0015f	ff 15 00 00 00
	00		 call	 DWORD PTR __imp_?GetSingleton@ioStringManager@@SAAAV1@XZ
  00165	8b c8		 mov	 ecx, eax
  00167	ff 15 00 00 00
	00		 call	 DWORD PTR __imp_?GetString@ioStringManager@@QAEPADPBD0HW4FileNamePrefix@1@@Z
  0016d	f3 0f 10 05 00
	00 00 00	 movss	 xmm0, DWORD PTR __real@3f266666
  00175	50		 push	 eax
  00176	83 ec 0c	 sub	 esp, 12			; 0000000cH
  00179	f3 0f 11 44 24
	08		 movss	 DWORD PTR [esp+8], xmm0
  0017f	8d 83 be 00 00
	00		 lea	 eax, DWORD PTR [ebx+190]
  00185	0f 57 c0	 xorps	 xmm0, xmm0
  00188	f3 0f 2a c0	 cvtsi2ss xmm0, eax
  0018c	f3 0f 11 44 24
	04		 movss	 DWORD PTR [esp+4], xmm0
  00192	f3 0f 10 45 0c	 movss	 xmm0, DWORD PTR tv275[ebp]
  00197	f3 0f 11 04 24	 movss	 DWORD PTR [esp], xmm0
  0019c	ff d6		 call	 esi
  0019e	50		 push	 eax
  0019f	ff 15 00 00 00
	00		 call	 DWORD PTR __imp_?PrintText@ioFontManager@@QAAXMMMPBDZZ
  001a5	83 c4 14	 add	 esp, 20			; 00000014H

; 1631 : 
; 1632 : 	g_FontMgr.SetTextColor( TCT_DEFAULT_DARKGRAY );

  001a8	68 3a 3a 3a ff	 push	 -12961222		; ff3a3a3aH
  001ad	ff d6		 call	 esi
  001af	8b c8		 mov	 ecx, eax
  001b1	ff 15 00 00 00
	00		 call	 DWORD PTR __imp_?SetTextColor@ioFontManager@@QAEXK@Z

; 1633 : 	g_FontMgr.PrintText( iXPos + 161, iYPos + 212, FONT_SIZE_13, STR(3) );

  001b7	57		 push	 edi
  001b8	6a 03		 push	 3
  001ba	68 00 00 00 00	 push	 OFFSET ??_C@_00CNPNBAHC@?$AA@
  001bf	68 00 00 00 00	 push	 OFFSET ??_C@_0CN@OHFMBDMF@OneDayGoldItemEventWnd?3?3OnStateR@
  001c4	ff 15 00 00 00
	00		 call	 DWORD PTR __imp_?GetSingleton@ioStringManager@@SAAAV1@XZ
  001ca	8b c8		 mov	 ecx, eax
  001cc	ff 15 00 00 00
	00		 call	 DWORD PTR __imp_?GetString@ioStringManager@@QAEPADPBD0HW4FileNamePrefix@1@@Z
  001d2	f3 0f 10 05 00
	00 00 00	 movss	 xmm0, DWORD PTR __real@3f266666
  001da	50		 push	 eax
  001db	83 ec 0c	 sub	 esp, 12			; 0000000cH
  001de	f3 0f 11 44 24
	08		 movss	 DWORD PTR [esp+8], xmm0
  001e4	0f 57 c0	 xorps	 xmm0, xmm0
  001e7	81 c3 d4 00 00
	00		 add	 ebx, 212		; 000000d4H
  001ed	f3 0f 2a c3	 cvtsi2ss xmm0, ebx
  001f1	f3 0f 11 44 24
	04		 movss	 DWORD PTR [esp+4], xmm0
  001f7	f3 0f 10 45 0c	 movss	 xmm0, DWORD PTR tv275[ebp]
  001fc	f3 0f 11 04 24	 movss	 DWORD PTR [esp], xmm0
  00201	ff d6		 call	 esi
  00203	50		 push	 eax
  00204	ff 15 00 00 00
	00		 call	 DWORD PTR __imp_?PrintText@ioFontManager@@QAAXMMMPBDZZ
  0020a	83 c4 14	 add	 esp, 20			; 00000014H
  0020d	5b		 pop	 ebx
$LN1@OnStateRol:
  0020e	5f		 pop	 edi
  0020f	5e		 pop	 esi

; 1634 : }

  00210	c9		 leave
  00211	c2 08 00	 ret	 8
?OnStateRollingRender@OneDayGoldItemEventWnd@@IAEXHH@Z ENDP ; OneDayGoldItemEventWnd::OnStateRollingRender
_TEXT	ENDS
PUBLIC	??_C@_0CO@KAGJJOEM@OneDayGoldItemEventWnd?3?3OnStateC@ ; `string'
PUBLIC	?OnStateCompleteRender@OneDayGoldItemEventWnd@@IAEXHH@Z ; OneDayGoldItemEventWnd::OnStateCompleteRender
EXTRN	__imp_?PrintText@ioFontManager@@QAEXMMMPBD00@Z:PROC
EXTRN	?GetPresentValue1Text@ioPresentMgr@@QAEABVioHashString@@FHH@Z:PROC ; ioPresentMgr::GetPresentValue1Text
EXTRN	__imp_?c_str@ioHashString@@QBEPBDXZ:PROC
EXTRN	?GetPresentValue2Text@ioPresentMgr@@QAEABVioHashString@@FHH@Z:PROC ; ioPresentMgr::GetPresentValue2Text
EXTRN	?GetSingleton@ioPresentMgr@@SAAAV1@XZ:PROC	; ioPresentMgr::GetSingleton
;	COMDAT ??_C@_0CO@KAGJJOEM@OneDayGoldItemEventWnd?3?3OnStateC@
CONST	SEGMENT
??_C@_0CO@KAGJJOEM@OneDayGoldItemEventWnd?3?3OnStateC@ DB 'OneDayGoldItem'
	DB	'EventWnd::OnStateCompleteRender', 00H	; `string'
; Function compile flags: /Ogsp
CONST	ENDS
;	COMDAT ?OnStateCompleteRender@OneDayGoldItemEventWnd@@IAEXHH@Z
_TEXT	SEGMENT
tv305 = -4						; size = 4
tv307 = 8						; size = 4
_iXPos$ = 8						; size = 4
_iYPos$ = 12						; size = 4
?OnStateCompleteRender@OneDayGoldItemEventWnd@@IAEXHH@Z PROC ; OneDayGoldItemEventWnd::OnStateCompleteRender, COMDAT
; _this$ = ecx

; 1637 : {

  00000	55		 push	 ebp
  00001	8b ec		 mov	 ebp, esp
  00003	51		 push	 ecx
  00004	53		 push	 ebx
  00005	57		 push	 edi
  00006	8b f9		 mov	 edi, ecx

; 1638 : 	if( !m_pBackBlueLight || !m_pPresentIcon || !m_pTextStateComplete ) return;

  00008	33 db		 xor	 ebx, ebx
  0000a	39 9f bc 01 00
	00		 cmp	 DWORD PTR [edi+444], ebx
  00010	0f 84 4d 02 00
	00		 je	 $LN1@OnStateCom
  00016	39 9f d0 01 00
	00		 cmp	 DWORD PTR [edi+464], ebx
  0001c	0f 84 41 02 00
	00		 je	 $LN1@OnStateCom
  00022	39 9f cc 01 00
	00		 cmp	 DWORD PTR [edi+460], ebx
  00028	0f 84 35 02 00
	00		 je	 $LN1@OnStateCom

; 1639 : 
; 1640 : 	m_pBackBlueLight->Render( iXPos + 161, iYPos + 92 );

  0002e	8b 8f bc 01 00
	00		 mov	 ecx, DWORD PTR [edi+444]
  00034	56		 push	 esi
  00035	8b 75 0c	 mov	 esi, DWORD PTR _iYPos$[ebp]
  00038	53		 push	 ebx
  00039	53		 push	 ebx
  0003a	53		 push	 ebx
  0003b	8d 46 5c	 lea	 eax, DWORD PTR [esi+92]
  0003e	0f 57 c0	 xorps	 xmm0, xmm0
  00041	f3 0f 2a c0	 cvtsi2ss xmm0, eax
  00045	8b 45 08	 mov	 eax, DWORD PTR _iXPos$[ebp]
  00048	53		 push	 ebx
  00049	05 a1 00 00 00	 add	 eax, 161		; 000000a1H
  0004e	51		 push	 ecx
  0004f	51		 push	 ecx
  00050	0f 57 c9	 xorps	 xmm1, xmm1
  00053	f3 0f 2a c8	 cvtsi2ss xmm1, eax
  00057	8b 01		 mov	 eax, DWORD PTR [ecx]
  00059	f3 0f 11 44 24
	04		 movss	 DWORD PTR [esp+4], xmm0
  0005f	f3 0f 11 45 fc	 movss	 DWORD PTR tv305[ebp], xmm0
  00064	f3 0f 11 4d 08	 movss	 DWORD PTR tv307[ebp], xmm1
  00069	f3 0f 11 0c 24	 movss	 DWORD PTR [esp], xmm1
  0006e	ff 10		 call	 DWORD PTR [eax]

; 1641 : 	m_pPresentIcon->Render( iXPos + 161, iYPos + 92, UI_RENDER_NORMAL, TFO_BILINEAR );

  00070	8b 8f d0 01 00
	00		 mov	 ecx, DWORD PTR [edi+464]
  00076	f3 0f 10 45 fc	 movss	 xmm0, DWORD PTR tv305[ebp]
  0007b	8b 01		 mov	 eax, DWORD PTR [ecx]
  0007d	53		 push	 ebx
  0007e	53		 push	 ebx
  0007f	6a 01		 push	 1
  00081	53		 push	 ebx
  00082	51		 push	 ecx
  00083	51		 push	 ecx
  00084	f3 0f 11 44 24
	04		 movss	 DWORD PTR [esp+4], xmm0
  0008a	f3 0f 10 45 08	 movss	 xmm0, DWORD PTR tv307[ebp]
  0008f	f3 0f 11 04 24	 movss	 DWORD PTR [esp], xmm0
  00094	ff 10		 call	 DWORD PTR [eax]

; 1642 : 	m_pTextStateComplete->Render( iXPos + 161, iYPos + 132 );

  00096	8b 8f cc 01 00
	00		 mov	 ecx, DWORD PTR [edi+460]
  0009c	8b 01		 mov	 eax, DWORD PTR [ecx]
  0009e	53		 push	 ebx
  0009f	53		 push	 ebx
  000a0	53		 push	 ebx
  000a1	53		 push	 ebx
  000a2	51		 push	 ecx
  000a3	0f 57 c0	 xorps	 xmm0, xmm0
  000a6	51		 push	 ecx
  000a7	81 c6 84 00 00
	00		 add	 esi, 132		; 00000084H
  000ad	f3 0f 2a c6	 cvtsi2ss xmm0, esi
  000b1	f3 0f 11 44 24
	04		 movss	 DWORD PTR [esp+4], xmm0
  000b7	f3 0f 10 45 08	 movss	 xmm0, DWORD PTR tv307[ebp]
  000bc	f3 0f 11 04 24	 movss	 DWORD PTR [esp], xmm0
  000c1	ff 10		 call	 DWORD PTR [eax]

; 1643 : 
; 1644 : 	g_FontMgr.SetTextStyle( TS_OUTLINE_FULL_2X );

  000c3	8b 35 00 00 00
	00		 mov	 esi, DWORD PTR __imp_?GetSingleton@ioFontManager@@SAAAV1@XZ
  000c9	6a 05		 push	 5
  000cb	ff d6		 call	 esi
  000cd	8b c8		 mov	 ecx, eax
  000cf	ff 15 00 00 00
	00		 call	 DWORD PTR __imp_?SetTextStyle@ioFontManager@@QAEXW4TextStyle@@@Z

; 1645 : 	g_FontMgr.SetAlignType( TAT_CENTER );

  000d5	6a 01		 push	 1
  000d7	ff d6		 call	 esi
  000d9	8b c8		 mov	 ecx, eax
  000db	ff 15 00 00 00
	00		 call	 DWORD PTR __imp_?SetAlignType@ioFontManager@@QAEXW4TextAlignType@@@Z

; 1646 : 	g_FontMgr.SetBkColor( 0, 0, 0 );

  000e1	53		 push	 ebx
  000e2	53		 push	 ebx
  000e3	53		 push	 ebx
  000e4	ff d6		 call	 esi
  000e6	8b c8		 mov	 ecx, eax
  000e8	ff 15 00 00 00
	00		 call	 DWORD PTR __imp_?SetBkColor@ioFontManager@@QAEXHHH@Z

; 1647 : 	g_FontMgr.SetTextColor( TCT_DEFAULT_GRAY );

  000ee	68 6e 6e 6e ff	 push	 -9539986		; ff6e6e6eH
  000f3	ff d6		 call	 esi
  000f5	8b c8		 mov	 ecx, eax
  000f7	ff 15 00 00 00
	00		 call	 DWORD PTR __imp_?SetTextColor@ioFontManager@@QAEXK@Z

; 1648 : 	g_FontMgr.PrintText( iXPos + 161, iYPos + 168, FONT_SIZE_13, STR(1) );

  000fd	53		 push	 ebx
  000fe	6a 01		 push	 1
  00100	68 00 00 00 00	 push	 OFFSET ??_C@_00CNPNBAHC@?$AA@
  00105	68 00 00 00 00	 push	 OFFSET ??_C@_0CO@KAGJJOEM@OneDayGoldItemEventWnd?3?3OnStateC@
  0010a	ff 15 00 00 00
	00		 call	 DWORD PTR __imp_?GetSingleton@ioStringManager@@SAAAV1@XZ
  00110	8b c8		 mov	 ecx, eax
  00112	ff 15 00 00 00
	00		 call	 DWORD PTR __imp_?GetString@ioStringManager@@QAEPADPBD0HW4FileNamePrefix@1@@Z
  00118	f3 0f 10 05 00
	00 00 00	 movss	 xmm0, DWORD PTR __real@3f266666
  00120	50		 push	 eax
  00121	8b 45 0c	 mov	 eax, DWORD PTR _iYPos$[ebp]
  00124	83 ec 0c	 sub	 esp, 12			; 0000000cH
  00127	f3 0f 11 44 24
	08		 movss	 DWORD PTR [esp+8], xmm0
  0012d	05 a8 00 00 00	 add	 eax, 168		; 000000a8H
  00132	0f 57 c0	 xorps	 xmm0, xmm0
  00135	f3 0f 2a c0	 cvtsi2ss xmm0, eax
  00139	f3 0f 11 44 24
	04		 movss	 DWORD PTR [esp+4], xmm0
  0013f	f3 0f 10 45 08	 movss	 xmm0, DWORD PTR tv307[ebp]
  00144	f3 0f 11 04 24	 movss	 DWORD PTR [esp], xmm0
  00149	ff d6		 call	 esi
  0014b	50		 push	 eax
  0014c	ff 15 00 00 00
	00		 call	 DWORD PTR __imp_?PrintText@ioFontManager@@QAAXMMMPBDZZ

; 1649 : 	g_FontMgr.PrintText( iXPos + 161, iYPos + 190, FONT_SIZE_13, STR(2), g_PresentMgr.GetPresentValue1Text( m_iPresentType, m_iPresentValue1, m_iPresentValue2 ).c_str(),
; 1650 : 																		 g_PresentMgr.GetPresentValue2Text( m_iPresentType, m_iPresentValue1, m_iPresentValue2 ).c_str() );

  00152	0f b7 87 98 01
	00 00		 movzx	 eax, WORD PTR [edi+408]
  00159	83 c4 14	 add	 esp, 20			; 00000014H
  0015c	ff b7 a0 01 00
	00		 push	 DWORD PTR [edi+416]
  00162	ff b7 9c 01 00
	00		 push	 DWORD PTR [edi+412]
  00168	50		 push	 eax
  00169	e8 00 00 00 00	 call	 ?GetSingleton@ioPresentMgr@@SAAAV1@XZ ; ioPresentMgr::GetSingleton
  0016e	8b c8		 mov	 ecx, eax
  00170	e8 00 00 00 00	 call	 ?GetPresentValue2Text@ioPresentMgr@@QAEABVioHashString@@FHH@Z ; ioPresentMgr::GetPresentValue2Text
  00175	8b c8		 mov	 ecx, eax
  00177	ff 15 00 00 00
	00		 call	 DWORD PTR __imp_?c_str@ioHashString@@QBEPBDXZ
  0017d	50		 push	 eax
  0017e	ff b7 a0 01 00
	00		 push	 DWORD PTR [edi+416]
  00184	0f b7 87 98 01
	00 00		 movzx	 eax, WORD PTR [edi+408]
  0018b	ff b7 9c 01 00
	00		 push	 DWORD PTR [edi+412]
  00191	50		 push	 eax
  00192	e8 00 00 00 00	 call	 ?GetSingleton@ioPresentMgr@@SAAAV1@XZ ; ioPresentMgr::GetSingleton
  00197	8b c8		 mov	 ecx, eax
  00199	e8 00 00 00 00	 call	 ?GetPresentValue1Text@ioPresentMgr@@QAEABVioHashString@@FHH@Z ; ioPresentMgr::GetPresentValue1Text
  0019e	8b c8		 mov	 ecx, eax
  001a0	ff 15 00 00 00
	00		 call	 DWORD PTR __imp_?c_str@ioHashString@@QBEPBDXZ
  001a6	8b 3d 00 00 00
	00		 mov	 edi, DWORD PTR __imp_?GetSingleton@ioStringManager@@SAAAV1@XZ
  001ac	50		 push	 eax
  001ad	53		 push	 ebx
  001ae	6a 02		 push	 2
  001b0	68 00 00 00 00	 push	 OFFSET ??_C@_00CNPNBAHC@?$AA@
  001b5	68 00 00 00 00	 push	 OFFSET ??_C@_0CO@KAGJJOEM@OneDayGoldItemEventWnd?3?3OnStateC@
  001ba	ff d7		 call	 edi
  001bc	8b c8		 mov	 ecx, eax
  001be	ff 15 00 00 00
	00		 call	 DWORD PTR __imp_?GetString@ioStringManager@@QAEPADPBD0HW4FileNamePrefix@1@@Z
  001c4	f3 0f 10 05 00
	00 00 00	 movss	 xmm0, DWORD PTR __real@3f266666
  001cc	50		 push	 eax
  001cd	8b 45 0c	 mov	 eax, DWORD PTR _iYPos$[ebp]
  001d0	83 ec 0c	 sub	 esp, 12			; 0000000cH
  001d3	f3 0f 11 44 24
	08		 movss	 DWORD PTR [esp+8], xmm0
  001d9	05 be 00 00 00	 add	 eax, 190		; 000000beH
  001de	0f 57 c0	 xorps	 xmm0, xmm0
  001e1	f3 0f 2a c0	 cvtsi2ss xmm0, eax
  001e5	f3 0f 11 44 24
	04		 movss	 DWORD PTR [esp+4], xmm0
  001eb	f3 0f 10 45 08	 movss	 xmm0, DWORD PTR tv307[ebp]
  001f0	f3 0f 11 04 24	 movss	 DWORD PTR [esp], xmm0
  001f5	ff d6		 call	 esi
  001f7	8b c8		 mov	 ecx, eax
  001f9	ff 15 00 00 00
	00		 call	 DWORD PTR __imp_?PrintText@ioFontManager@@QAEXMMMPBD00@Z

; 1651 : 	g_FontMgr.SetTextColor( TCT_DEFAULT_DARKGRAY );

  001ff	68 3a 3a 3a ff	 push	 -12961222		; ff3a3a3aH
  00204	ff d6		 call	 esi
  00206	8b c8		 mov	 ecx, eax
  00208	ff 15 00 00 00
	00		 call	 DWORD PTR __imp_?SetTextColor@ioFontManager@@QAEXK@Z

; 1652 : 	g_FontMgr.PrintText( iXPos + 161, iYPos + 212, FONT_SIZE_13, STR(3) );

  0020e	53		 push	 ebx
  0020f	6a 03		 push	 3
  00211	68 00 00 00 00	 push	 OFFSET ??_C@_00CNPNBAHC@?$AA@
  00216	68 00 00 00 00	 push	 OFFSET ??_C@_0CO@KAGJJOEM@OneDayGoldItemEventWnd?3?3OnStateC@
  0021b	ff d7		 call	 edi
  0021d	8b c8		 mov	 ecx, eax
  0021f	ff 15 00 00 00
	00		 call	 DWORD PTR __imp_?GetString@ioStringManager@@QAEPADPBD0HW4FileNamePrefix@1@@Z
  00225	f3 0f 10 05 00
	00 00 00	 movss	 xmm0, DWORD PTR __real@3f266666
  0022d	50		 push	 eax
  0022e	8b 45 0c	 mov	 eax, DWORD PTR _iYPos$[ebp]
  00231	83 ec 0c	 sub	 esp, 12			; 0000000cH
  00234	f3 0f 11 44 24
	08		 movss	 DWORD PTR [esp+8], xmm0
  0023a	05 d4 00 00 00	 add	 eax, 212		; 000000d4H
  0023f	0f 57 c0	 xorps	 xmm0, xmm0
  00242	f3 0f 2a c0	 cvtsi2ss xmm0, eax
  00246	f3 0f 11 44 24
	04		 movss	 DWORD PTR [esp+4], xmm0
  0024c	f3 0f 10 45 08	 movss	 xmm0, DWORD PTR tv307[ebp]
  00251	f3 0f 11 04 24	 movss	 DWORD PTR [esp], xmm0
  00256	ff d6		 call	 esi
  00258	50		 push	 eax
  00259	ff 15 00 00 00
	00		 call	 DWORD PTR __imp_?PrintText@ioFontManager@@QAAXMMMPBDZZ
  0025f	83 c4 14	 add	 esp, 20			; 00000014H
  00262	5e		 pop	 esi
$LN1@OnStateCom:
  00263	5f		 pop	 edi
  00264	5b		 pop	 ebx

; 1653 : }

  00265	c9		 leave
  00266	c2 08 00	 ret	 8
?OnStateCompleteRender@OneDayGoldItemEventWnd@@IAEXHH@Z ENDP ; OneDayGoldItemEventWnd::OnStateCompleteRender
_TEXT	ENDS
PUBLIC	?size@?$vector@PAVioUIRenderImage@@V?$allocator@PAVioUIRenderImage@@@std@@@std@@QBEIXZ ; std::vector<ioUIRenderImage *,std::allocator<ioUIRenderImage *> >::size
; Function compile flags: /Ogsp
; File c:\program files (x86)\microsoft visual studio 10.0\vc\include\vector
;	COMDAT ?size@?$vector@PAVioUIRenderImage@@V?$allocator@PAVioUIRenderImage@@@std@@@std@@QBEIXZ
_TEXT	SEGMENT
?size@?$vector@PAVioUIRenderImage@@V?$allocator@PAVioUIRenderImage@@@std@@@std@@QBEIXZ PROC ; std::vector<ioUIRenderImage *,std::allocator<ioUIRenderImage *> >::size, COMDAT
; _this$ = ecx

; 879  : 		return (this->_Mylast - this->_Myfirst);

  00000	8b 41 04	 mov	 eax, DWORD PTR [ecx+4]
  00003	2b 01		 sub	 eax, DWORD PTR [ecx]
  00005	c1 f8 02	 sar	 eax, 2

; 880  : 		}

  00008	c3		 ret	 0
?size@?$vector@PAVioUIRenderImage@@V?$allocator@PAVioUIRenderImage@@@std@@@std@@QBEIXZ ENDP ; std::vector<ioUIRenderImage *,std::allocator<ioUIRenderImage *> >::size
_TEXT	ENDS
PUBLIC	??A?$vector@PAVioUIRenderImage@@V?$allocator@PAVioUIRenderImage@@@std@@@std@@QAEAAPAVioUIRenderImage@@I@Z ; std::vector<ioUIRenderImage *,std::allocator<ioUIRenderImage *> >::operator[]
; Function compile flags: /Ogsp
;	COMDAT ??A?$vector@PAVioUIRenderImage@@V?$allocator@PAVioUIRenderImage@@@std@@@std@@QAEAAPAVioUIRenderImage@@I@Z
_TEXT	SEGMENT
__Pos$ = 8						; size = 4
??A?$vector@PAVioUIRenderImage@@V?$allocator@PAVioUIRenderImage@@@std@@@std@@QAEAAPAVioUIRenderImage@@I@Z PROC ; std::vector<ioUIRenderImage *,std::allocator<ioUIRenderImage *> >::operator[], COMDAT
; _this$ = ecx

; 928  : 		{	// subscript mutable sequence

  00000	55		 push	 ebp
  00001	8b ec		 mov	 ebp, esp

; 929  :  #if _ITERATOR_DEBUG_LEVEL == 2
; 930  : 		if (size() <= _Pos)
; 931  : 			{	// report error
; 932  : 			_DEBUG_ERROR("vector subscript out of range");
; 933  : 			_SCL_SECURE_OUT_OF_RANGE;
; 934  : 			}
; 935  : 
; 936  :  #elif _ITERATOR_DEBUG_LEVEL == 1
; 937  : 		_SCL_SECURE_VALIDATE_RANGE(_Pos < size());
; 938  :  #endif /* _ITERATOR_DEBUG_LEVEL */
; 939  : 
; 940  : 		return (*(this->_Myfirst + _Pos));

  00003	8b 01		 mov	 eax, DWORD PTR [ecx]
  00005	8b 4d 08	 mov	 ecx, DWORD PTR __Pos$[ebp]
  00008	8d 04 88	 lea	 eax, DWORD PTR [eax+ecx*4]

; 941  : 		}

  0000b	5d		 pop	 ebp
  0000c	c2 04 00	 ret	 4
??A?$vector@PAVioUIRenderImage@@V?$allocator@PAVioUIRenderImage@@@std@@@std@@QAEAAPAVioUIRenderImage@@I@Z ENDP ; std::vector<ioUIRenderImage *,std::allocator<ioUIRenderImage *> >::operator[]
_TEXT	ENDS
PUBLIC	?GetSingleton@?$Singleton@VioEtcItemManager@@@@SAAAVioEtcItemManager@@XZ ; Singleton<ioEtcItemManager>::GetSingleton
EXTRN	?ms_Singleton@?$Singleton@VioEtcItemManager@@@@1PAVioEtcItemManager@@A:DWORD ; Singleton<ioEtcItemManager>::ms_Singleton
; Function compile flags: /Ogsp
; File d:\lost saga for developer\youtube\tutorial\source\src\io3dengine\iosingleton.h
;	COMDAT ?GetSingleton@?$Singleton@VioEtcItemManager@@@@SAAAVioEtcItemManager@@XZ
_TEXT	SEGMENT
?GetSingleton@?$Singleton@VioEtcItemManager@@@@SAAAVioEtcItemManager@@XZ PROC ; Singleton<ioEtcItemManager>::GetSingleton, COMDAT

; 42   : 		assert( ms_Singleton );
; 43   : 		return (*ms_Singleton);

  00000	a1 00 00 00 00	 mov	 eax, DWORD PTR ?ms_Singleton@?$Singleton@VioEtcItemManager@@@@1PAVioEtcItemManager@@A ; Singleton<ioEtcItemManager>::ms_Singleton

; 44   : 	}

  00005	c3		 ret	 0
?GetSingleton@?$Singleton@VioEtcItemManager@@@@SAAAVioEtcItemManager@@XZ ENDP ; Singleton<ioEtcItemManager>::GetSingleton
_TEXT	ENDS
PUBLIC	?size@?$vector@PAUtagEventInfo@@V?$allocator@PAUtagEventInfo@@@std@@@std@@QBEIXZ ; std::vector<tagEventInfo *,std::allocator<tagEventInfo *> >::size
; Function compile flags: /Ogsp
; File c:\program files (x86)\microsoft visual studio 10.0\vc\include\vector
;	COMDAT ?size@?$vector@PAUtagEventInfo@@V?$allocator@PAUtagEventInfo@@@std@@@std@@QBEIXZ
_TEXT	SEGMENT
?size@?$vector@PAUtagEventInfo@@V?$allocator@PAUtagEventInfo@@@std@@@std@@QBEIXZ PROC ; std::vector<tagEventInfo *,std::allocator<tagEventInfo *> >::size, COMDAT
; _this$ = ecx

; 879  : 		return (this->_Mylast - this->_Myfirst);

  00000	8b 41 04	 mov	 eax, DWORD PTR [ecx+4]
  00003	2b 01		 sub	 eax, DWORD PTR [ecx]
  00005	c1 f8 02	 sar	 eax, 2

; 880  : 		}

  00008	c3		 ret	 0
?size@?$vector@PAUtagEventInfo@@V?$allocator@PAUtagEventInfo@@@std@@@std@@QBEIXZ ENDP ; std::vector<tagEventInfo *,std::allocator<tagEventInfo *> >::size
_TEXT	ENDS
PUBLIC	??A?$vector@PAUtagEventInfo@@V?$allocator@PAUtagEventInfo@@@std@@@std@@QAEAAPAUtagEventInfo@@I@Z ; std::vector<tagEventInfo *,std::allocator<tagEventInfo *> >::operator[]
; Function compile flags: /Ogsp
;	COMDAT ??A?$vector@PAUtagEventInfo@@V?$allocator@PAUtagEventInfo@@@std@@@std@@QAEAAPAUtagEventInfo@@I@Z
_TEXT	SEGMENT
__Pos$ = 8						; size = 4
??A?$vector@PAUtagEventInfo@@V?$allocator@PAUtagEventInfo@@@std@@@std@@QAEAAPAUtagEventInfo@@I@Z PROC ; std::vector<tagEventInfo *,std::allocator<tagEventInfo *> >::operator[], COMDAT
; _this$ = ecx

; 928  : 		{	// subscript mutable sequence

  00000	55		 push	 ebp
  00001	8b ec		 mov	 ebp, esp

; 929  :  #if _ITERATOR_DEBUG_LEVEL == 2
; 930  : 		if (size() <= _Pos)
; 931  : 			{	// report error
; 932  : 			_DEBUG_ERROR("vector subscript out of range");
; 933  : 			_SCL_SECURE_OUT_OF_RANGE;
; 934  : 			}
; 935  : 
; 936  :  #elif _ITERATOR_DEBUG_LEVEL == 1
; 937  : 		_SCL_SECURE_VALIDATE_RANGE(_Pos < size());
; 938  :  #endif /* _ITERATOR_DEBUG_LEVEL */
; 939  : 
; 940  : 		return (*(this->_Myfirst + _Pos));

  00003	8b 01		 mov	 eax, DWORD PTR [ecx]
  00005	8b 4d 08	 mov	 ecx, DWORD PTR __Pos$[ebp]
  00008	8d 04 88	 lea	 eax, DWORD PTR [eax+ecx*4]

; 941  : 		}

  0000b	5d		 pop	 ebp
  0000c	c2 04 00	 ret	 4
??A?$vector@PAUtagEventInfo@@V?$allocator@PAUtagEventInfo@@@std@@@std@@QAEAAPAUtagEventInfo@@I@Z ENDP ; std::vector<tagEventInfo *,std::allocator<tagEventInfo *> >::operator[]
_TEXT	ENDS
PUBLIC	?_Inside@?$vector@PAVioUIRenderImage@@V?$allocator@PAVioUIRenderImage@@@std@@@std@@IBE_NPBQAVioUIRenderImage@@@Z ; std::vector<ioUIRenderImage *,std::allocator<ioUIRenderImage *> >::_Inside
; Function compile flags: /Ogsp
;	COMDAT ?_Inside@?$vector@PAVioUIRenderImage@@V?$allocator@PAVioUIRenderImage@@@std@@@std@@IBE_NPBQAVioUIRenderImage@@@Z
_TEXT	SEGMENT
__Ptr$ = 8						; size = 4
?_Inside@?$vector@PAVioUIRenderImage@@V?$allocator@PAVioUIRenderImage@@@std@@@std@@IBE_NPBQAVioUIRenderImage@@@Z PROC ; std::vector<ioUIRenderImage *,std::allocator<ioUIRenderImage *> >::_Inside, COMDAT
; _this$ = ecx

; 1285 : 		{	// test if _Ptr points inside vector

  00000	55		 push	 ebp
  00001	8b ec		 mov	 ebp, esp

; 1286 : 		return (_Ptr < this->_Mylast && this->_Myfirst <= _Ptr);

  00003	8b 45 08	 mov	 eax, DWORD PTR __Ptr$[ebp]
  00006	3b 41 04	 cmp	 eax, DWORD PTR [ecx+4]
  00009	73 09		 jae	 SHORT $LN3@Inside
  0000b	39 01		 cmp	 DWORD PTR [ecx], eax
  0000d	77 05		 ja	 SHORT $LN3@Inside
  0000f	33 c0		 xor	 eax, eax
  00011	40		 inc	 eax
  00012	eb 02		 jmp	 SHORT $LN4@Inside
$LN3@Inside:
  00014	33 c0		 xor	 eax, eax
$LN4@Inside:

; 1287 : 		}

  00016	5d		 pop	 ebp
  00017	c2 04 00	 ret	 4
?_Inside@?$vector@PAVioUIRenderImage@@V?$allocator@PAVioUIRenderImage@@@std@@@std@@IBE_NPBQAVioUIRenderImage@@@Z ENDP ; std::vector<ioUIRenderImage *,std::allocator<ioUIRenderImage *> >::_Inside
_TEXT	ENDS
PUBLIC	?_Orphan_range@?$vector@PAVioUIRenderImage@@V?$allocator@PAVioUIRenderImage@@@std@@@std@@IBEXPAPAVioUIRenderImage@@0@Z ; std::vector<ioUIRenderImage *,std::allocator<ioUIRenderImage *> >::_Orphan_range
; Function compile flags: /Ogsp
;	COMDAT ?_Orphan_range@?$vector@PAVioUIRenderImage@@V?$allocator@PAVioUIRenderImage@@@std@@@std@@IBEXPAPAVioUIRenderImage@@0@Z
_TEXT	SEGMENT
___formal$ = 8						; size = 4
___formal$ = 12						; size = 4
?_Orphan_range@?$vector@PAVioUIRenderImage@@V?$allocator@PAVioUIRenderImage@@@std@@@std@@IBEXPAPAVioUIRenderImage@@0@Z PROC ; std::vector<ioUIRenderImage *,std::allocator<ioUIRenderImage *> >::_Orphan_range, COMDAT
; _this$ = ecx

; 1454 : 		}

  00000	c2 08 00	 ret	 8
?_Orphan_range@?$vector@PAVioUIRenderImage@@V?$allocator@PAVioUIRenderImage@@@std@@@std@@IBEXPAPAVioUIRenderImage@@0@Z ENDP ; std::vector<ioUIRenderImage *,std::allocator<ioUIRenderImage *> >::_Orphan_range
_TEXT	ENDS
PUBLIC	??1?$_Vector_val@PAVioUIRenderImage@@V?$allocator@PAVioUIRenderImage@@@std@@@std@@QAE@XZ ; std::_Vector_val<ioUIRenderImage *,std::allocator<ioUIRenderImage *> >::~_Vector_val<ioUIRenderImage *,std::allocator<ioUIRenderImage *> >
; Function compile flags: /Ogsp
;	COMDAT ??1?$_Vector_val@PAVioUIRenderImage@@V?$allocator@PAVioUIRenderImage@@@std@@@std@@QAE@XZ
_TEXT	SEGMENT
??1?$_Vector_val@PAVioUIRenderImage@@V?$allocator@PAVioUIRenderImage@@@std@@@std@@QAE@XZ PROC ; std::_Vector_val<ioUIRenderImage *,std::allocator<ioUIRenderImage *> >::~_Vector_val<ioUIRenderImage *,std::allocator<ioUIRenderImage *> >, COMDAT
; _this$ = ecx

; 434  : 		}

  00000	c3		 ret	 0
??1?$_Vector_val@PAVioUIRenderImage@@V?$allocator@PAVioUIRenderImage@@@std@@@std@@QAE@XZ ENDP ; std::_Vector_val<ioUIRenderImage *,std::allocator<ioUIRenderImage *> >::~_Vector_val<ioUIRenderImage *,std::allocator<ioUIRenderImage *> >
_TEXT	ENDS
PUBLIC	??0?$allocator@PAVioUIRenderImage@@@std@@QAE@XZ	; std::allocator<ioUIRenderImage *>::allocator<ioUIRenderImage *>
; Function compile flags: /Ogsp
; File c:\program files (x86)\microsoft visual studio 10.0\vc\include\xmemory
;	COMDAT ??0?$allocator@PAVioUIRenderImage@@@std@@QAE@XZ
_TEXT	SEGMENT
??0?$allocator@PAVioUIRenderImage@@@std@@QAE@XZ PROC	; std::allocator<ioUIRenderImage *>::allocator<ioUIRenderImage *>, COMDAT
; _this$ = ecx

; 161  : 	_ALLOCATOR() _THROW0()

  00000	8b c1		 mov	 eax, ecx

; 162  : 		{	// construct default allocator (do nothing)
; 163  : 		}

  00002	c3		 ret	 0
??0?$allocator@PAVioUIRenderImage@@@std@@QAE@XZ ENDP	; std::allocator<ioUIRenderImage *>::allocator<ioUIRenderImage *>
_TEXT	ENDS
PUBLIC	?_Inside@?$vector@HV?$allocator@H@std@@@std@@IBE_NPBH@Z ; std::vector<int,std::allocator<int> >::_Inside
; Function compile flags: /Ogsp
; File c:\program files (x86)\microsoft visual studio 10.0\vc\include\vector
;	COMDAT ?_Inside@?$vector@HV?$allocator@H@std@@@std@@IBE_NPBH@Z
_TEXT	SEGMENT
__Ptr$ = 8						; size = 4
?_Inside@?$vector@HV?$allocator@H@std@@@std@@IBE_NPBH@Z PROC ; std::vector<int,std::allocator<int> >::_Inside, COMDAT
; _this$ = ecx

; 1285 : 		{	// test if _Ptr points inside vector

  00000	55		 push	 ebp
  00001	8b ec		 mov	 ebp, esp

; 1286 : 		return (_Ptr < this->_Mylast && this->_Myfirst <= _Ptr);

  00003	8b 45 08	 mov	 eax, DWORD PTR __Ptr$[ebp]
  00006	3b 41 04	 cmp	 eax, DWORD PTR [ecx+4]
  00009	73 09		 jae	 SHORT $LN3@Inside@2
  0000b	39 01		 cmp	 DWORD PTR [ecx], eax
  0000d	77 05		 ja	 SHORT $LN3@Inside@2
  0000f	33 c0		 xor	 eax, eax
  00011	40		 inc	 eax
  00012	eb 02		 jmp	 SHORT $LN4@Inside@2
$LN3@Inside@2:
  00014	33 c0		 xor	 eax, eax
$LN4@Inside@2:

; 1287 : 		}

  00016	5d		 pop	 ebp
  00017	c2 04 00	 ret	 4
?_Inside@?$vector@HV?$allocator@H@std@@@std@@IBE_NPBH@Z ENDP ; std::vector<int,std::allocator<int> >::_Inside
_TEXT	ENDS
PUBLIC	?_Orphan_range@?$vector@HV?$allocator@H@std@@@std@@IBEXPAH0@Z ; std::vector<int,std::allocator<int> >::_Orphan_range
; Function compile flags: /Ogsp
;	COMDAT ?_Orphan_range@?$vector@HV?$allocator@H@std@@@std@@IBEXPAH0@Z
_TEXT	SEGMENT
___formal$ = 8						; size = 4
___formal$ = 12						; size = 4
?_Orphan_range@?$vector@HV?$allocator@H@std@@@std@@IBEXPAH0@Z PROC ; std::vector<int,std::allocator<int> >::_Orphan_range, COMDAT
; _this$ = ecx

; 1454 : 		}

  00000	c2 08 00	 ret	 8
?_Orphan_range@?$vector@HV?$allocator@H@std@@@std@@IBEXPAH0@Z ENDP ; std::vector<int,std::allocator<int> >::_Orphan_range
_TEXT	ENDS
PUBLIC	?capacity@?$vector@PAUtagEventInfo@@V?$allocator@PAUtagEventInfo@@@std@@@std@@QBEIXZ ; std::vector<tagEventInfo *,std::allocator<tagEventInfo *> >::capacity
; Function compile flags: /Ogsp
;	COMDAT ?capacity@?$vector@PAUtagEventInfo@@V?$allocator@PAUtagEventInfo@@@std@@@std@@QBEIXZ
_TEXT	SEGMENT
?capacity@?$vector@PAUtagEventInfo@@V?$allocator@PAUtagEventInfo@@@std@@@std@@QBEIXZ PROC ; std::vector<tagEventInfo *,std::allocator<tagEventInfo *> >::capacity, COMDAT
; _this$ = ecx

; 777  : 		return (this->_Myend - this->_Myfirst);

  00000	8b 41 08	 mov	 eax, DWORD PTR [ecx+8]
  00003	2b 01		 sub	 eax, DWORD PTR [ecx]
  00005	c1 f8 02	 sar	 eax, 2

; 778  : 		}

  00008	c3		 ret	 0
?capacity@?$vector@PAUtagEventInfo@@V?$allocator@PAUtagEventInfo@@@std@@@std@@QBEIXZ ENDP ; std::vector<tagEventInfo *,std::allocator<tagEventInfo *> >::capacity
_TEXT	ENDS
PUBLIC	?_Inside@?$vector@PAUtagEventInfo@@V?$allocator@PAUtagEventInfo@@@std@@@std@@IBE_NPBQAUtagEventInfo@@@Z ; std::vector<tagEventInfo *,std::allocator<tagEventInfo *> >::_Inside
; Function compile flags: /Ogsp
;	COMDAT ?_Inside@?$vector@PAUtagEventInfo@@V?$allocator@PAUtagEventInfo@@@std@@@std@@IBE_NPBQAUtagEventInfo@@@Z
_TEXT	SEGMENT
__Ptr$ = 8						; size = 4
?_Inside@?$vector@PAUtagEventInfo@@V?$allocator@PAUtagEventInfo@@@std@@@std@@IBE_NPBQAUtagEventInfo@@@Z PROC ; std::vector<tagEventInfo *,std::allocator<tagEventInfo *> >::_Inside, COMDAT
; _this$ = ecx

; 1285 : 		{	// test if _Ptr points inside vector

  00000	55		 push	 ebp
  00001	8b ec		 mov	 ebp, esp

; 1286 : 		return (_Ptr < this->_Mylast && this->_Myfirst <= _Ptr);

  00003	8b 45 08	 mov	 eax, DWORD PTR __Ptr$[ebp]
  00006	3b 41 04	 cmp	 eax, DWORD PTR [ecx+4]
  00009	73 09		 jae	 SHORT $LN3@Inside@3
  0000b	39 01		 cmp	 DWORD PTR [ecx], eax
  0000d	77 05		 ja	 SHORT $LN3@Inside@3
  0000f	33 c0		 xor	 eax, eax
  00011	40		 inc	 eax
  00012	eb 02		 jmp	 SHORT $LN4@Inside@3
$LN3@Inside@3:
  00014	33 c0		 xor	 eax, eax
$LN4@Inside@3:

; 1287 : 		}

  00016	5d		 pop	 ebp
  00017	c2 04 00	 ret	 4
?_Inside@?$vector@PAUtagEventInfo@@V?$allocator@PAUtagEventInfo@@@std@@@std@@IBE_NPBQAUtagEventInfo@@@Z ENDP ; std::vector<tagEventInfo *,std::allocator<tagEventInfo *> >::_Inside
_TEXT	ENDS
PUBLIC	??_C@_0BD@OLBABOEK@vector?$DMT?$DO?5too?5long?$AA@ ; `string'
PUBLIC	?_Xlen@?$vector@PAUtagEventInfo@@V?$allocator@PAUtagEventInfo@@@std@@@std@@IBEXXZ ; std::vector<tagEventInfo *,std::allocator<tagEventInfo *> >::_Xlen
EXTRN	__imp_?_Xlength_error@std@@YAXPBD@Z:PROC
;	COMDAT ??_C@_0BD@OLBABOEK@vector?$DMT?$DO?5too?5long?$AA@
CONST	SEGMENT
??_C@_0BD@OLBABOEK@vector?$DMT?$DO?5too?5long?$AA@ DB 'vector<T> too long'
	DB	00H						; `string'
; Function compile flags: /Ogsp
CONST	ENDS
;	COMDAT ?_Xlen@?$vector@PAUtagEventInfo@@V?$allocator@PAUtagEventInfo@@@std@@@std@@IBEXXZ
_TEXT	SEGMENT
?_Xlen@?$vector@PAUtagEventInfo@@V?$allocator@PAUtagEventInfo@@@std@@@std@@IBEXXZ PROC ; std::vector<tagEventInfo *,std::allocator<tagEventInfo *> >::_Xlen, COMDAT
; _this$ = ecx

; 1427 : 		_Xlength_error("vector<T> too long");

  00000	68 00 00 00 00	 push	 OFFSET ??_C@_0BD@OLBABOEK@vector?$DMT?$DO?5too?5long?$AA@
  00005	ff 15 00 00 00
	00		 call	 DWORD PTR __imp_?_Xlength_error@std@@YAXPBD@Z
$LN4@Xlen:
$LN3@Xlen:
  0000b	cc		 int	 3
?_Xlen@?$vector@PAUtagEventInfo@@V?$allocator@PAUtagEventInfo@@@std@@@std@@IBEXXZ ENDP ; std::vector<tagEventInfo *,std::allocator<tagEventInfo *> >::_Xlen
_TEXT	ENDS
PUBLIC	?_Orphan_range@?$vector@PAUtagEventInfo@@V?$allocator@PAUtagEventInfo@@@std@@@std@@IBEXPAPAUtagEventInfo@@0@Z ; std::vector<tagEventInfo *,std::allocator<tagEventInfo *> >::_Orphan_range
; Function compile flags: /Ogsp
;	COMDAT ?_Orphan_range@?$vector@PAUtagEventInfo@@V?$allocator@PAUtagEventInfo@@@std@@@std@@IBEXPAPAUtagEventInfo@@0@Z
_TEXT	SEGMENT
___formal$ = 8						; size = 4
___formal$ = 12						; size = 4
?_Orphan_range@?$vector@PAUtagEventInfo@@V?$allocator@PAUtagEventInfo@@@std@@@std@@IBEXPAPAUtagEventInfo@@0@Z PROC ; std::vector<tagEventInfo *,std::allocator<tagEventInfo *> >::_Orphan_range, COMDAT
; _this$ = ecx

; 1454 : 		}

  00000	c2 08 00	 ret	 8
?_Orphan_range@?$vector@PAUtagEventInfo@@V?$allocator@PAUtagEventInfo@@@std@@@std@@IBEXPAPAUtagEventInfo@@0@Z ENDP ; std::vector<tagEventInfo *,std::allocator<tagEventInfo *> >::_Orphan_range
_TEXT	ENDS
PUBLIC	??1?$_Vector_val@PAUtagEventInfo@@V?$allocator@PAUtagEventInfo@@@std@@@std@@QAE@XZ ; std::_Vector_val<tagEventInfo *,std::allocator<tagEventInfo *> >::~_Vector_val<tagEventInfo *,std::allocator<tagEventInfo *> >
; Function compile flags: /Ogsp
;	COMDAT ??1?$_Vector_val@PAUtagEventInfo@@V?$allocator@PAUtagEventInfo@@@std@@@std@@QAE@XZ
_TEXT	SEGMENT
??1?$_Vector_val@PAUtagEventInfo@@V?$allocator@PAUtagEventInfo@@@std@@@std@@QAE@XZ PROC ; std::_Vector_val<tagEventInfo *,std::allocator<tagEventInfo *> >::~_Vector_val<tagEventInfo *,std::allocator<tagEventInfo *> >, COMDAT
; _this$ = ecx

; 434  : 		}

  00000	c3		 ret	 0
??1?$_Vector_val@PAUtagEventInfo@@V?$allocator@PAUtagEventInfo@@@std@@@std@@QAE@XZ ENDP ; std::_Vector_val<tagEventInfo *,std::allocator<tagEventInfo *> >::~_Vector_val<tagEventInfo *,std::allocator<tagEventInfo *> >
_TEXT	ENDS
PUBLIC	??0?$allocator@PAUtagEventInfo@@@std@@QAE@XZ	; std::allocator<tagEventInfo *>::allocator<tagEventInfo *>
; Function compile flags: /Ogsp
; File c:\program files (x86)\microsoft visual studio 10.0\vc\include\xmemory
;	COMDAT ??0?$allocator@PAUtagEventInfo@@@std@@QAE@XZ
_TEXT	SEGMENT
??0?$allocator@PAUtagEventInfo@@@std@@QAE@XZ PROC	; std::allocator<tagEventInfo *>::allocator<tagEventInfo *>, COMDAT
; _this$ = ecx

; 161  : 	_ALLOCATOR() _THROW0()

  00000	8b c1		 mov	 eax, ecx

; 162  : 		{	// construct default allocator (do nothing)
; 163  : 		}

  00002	c3		 ret	 0
??0?$allocator@PAUtagEventInfo@@@std@@QAE@XZ ENDP	; std::allocator<tagEventInfo *>::allocator<tagEventInfo *>
_TEXT	ENDS
PUBLIC	?deallocate@?$allocator@PAUtagEventInfo@@@std@@QAEXPAPAUtagEventInfo@@I@Z ; std::allocator<tagEventInfo *>::deallocate
; Function compile flags: /Ogsp
;	COMDAT ?deallocate@?$allocator@PAUtagEventInfo@@@std@@QAEXPAPAUtagEventInfo@@I@Z
_TEXT	SEGMENT
__Ptr$ = 8						; size = 4
___formal$ = 12						; size = 4
?deallocate@?$allocator@PAUtagEventInfo@@@std@@QAEXPAPAUtagEventInfo@@I@Z PROC ; std::allocator<tagEventInfo *>::deallocate, COMDAT
; _this$ = ecx

; 181  : 		{	// deallocate object at _Ptr, ignore size

  00000	55		 push	 ebp
  00001	8b ec		 mov	 ebp, esp

; 182  : 		::operator delete(_Ptr);

  00003	ff 75 08	 push	 DWORD PTR __Ptr$[ebp]
  00006	e8 00 00 00 00	 call	 ??3@YAXPAX@Z		; operator delete
  0000b	59		 pop	 ecx

; 183  : 		}

  0000c	5d		 pop	 ebp
  0000d	c2 08 00	 ret	 8
?deallocate@?$allocator@PAUtagEventInfo@@@std@@QAEXPAPAUtagEventInfo@@I@Z ENDP ; std::allocator<tagEventInfo *>::deallocate
_TEXT	ENDS
PUBLIC	??D?$_Vector_const_iterator@V?$_Vector_val@PAUtagEventInfo@@V?$allocator@PAUtagEventInfo@@@std@@@std@@@std@@QBEABQAUtagEventInfo@@XZ ; std::_Vector_const_iterator<std::_Vector_val<tagEventInfo *,std::allocator<tagEventInfo *> > >::operator*
; Function compile flags: /Ogsp
; File c:\program files (x86)\microsoft visual studio 10.0\vc\include\vector
;	COMDAT ??D?$_Vector_const_iterator@V?$_Vector_val@PAUtagEventInfo@@V?$allocator@PAUtagEventInfo@@@std@@@std@@@std@@QBEABQAUtagEventInfo@@XZ
_TEXT	SEGMENT
??D?$_Vector_const_iterator@V?$_Vector_val@PAUtagEventInfo@@V?$allocator@PAUtagEventInfo@@@std@@@std@@@std@@QBEABQAUtagEventInfo@@XZ PROC ; std::_Vector_const_iterator<std::_Vector_val<tagEventInfo *,std::allocator<tagEventInfo *> > >::operator*, COMDAT
; _this$ = ecx

; 64   :  #if _ITERATOR_DEBUG_LEVEL == 2
; 65   : 		if (this->_Getcont() == 0
; 66   : 			|| this->_Ptr == 0
; 67   : 			|| this->_Ptr < ((_Myvec *)this->_Getcont())->_Myfirst
; 68   : 			|| ((_Myvec *)this->_Getcont())->_Mylast <= this->_Ptr)
; 69   : 			{	// report error
; 70   : 			_DEBUG_ERROR("vector iterator not dereferencable");
; 71   : 			_SCL_SECURE_OUT_OF_RANGE;
; 72   : 			}
; 73   : 
; 74   :  #elif _ITERATOR_DEBUG_LEVEL == 1
; 75   : 		_SCL_SECURE_VALIDATE(this->_Getcont() != 0);
; 76   : 		_SCL_SECURE_VALIDATE_RANGE(
; 77   : 			this->_Ptr != 0
; 78   : 			&& ((_Myvec *)this->_Getcont())->_Myfirst <= this->_Ptr
; 79   : 			&& this->_Ptr < ((_Myvec *)this->_Getcont())->_Mylast);
; 80   :  #endif /* _ITERATOR_DEBUG_LEVEL */
; 81   : 
; 82   : 		__analysis_assume(this->_Ptr != 0);
; 83   : 
; 84   : 		return (*this->_Ptr);

  00000	8b 01		 mov	 eax, DWORD PTR [ecx]

; 85   : 		}

  00002	c3		 ret	 0
??D?$_Vector_const_iterator@V?$_Vector_val@PAUtagEventInfo@@V?$allocator@PAUtagEventInfo@@@std@@@std@@@std@@QBEABQAUtagEventInfo@@XZ ENDP ; std::_Vector_const_iterator<std::_Vector_val<tagEventInfo *,std::allocator<tagEventInfo *> > >::operator*
_TEXT	ENDS
PUBLIC	??E?$_Vector_const_iterator@V?$_Vector_val@PAUtagEventInfo@@V?$allocator@PAUtagEventInfo@@@std@@@std@@@std@@QAEAAV01@XZ ; std::_Vector_const_iterator<std::_Vector_val<tagEventInfo *,std::allocator<tagEventInfo *> > >::operator++
; Function compile flags: /Ogsp
;	COMDAT ??E?$_Vector_const_iterator@V?$_Vector_val@PAUtagEventInfo@@V?$allocator@PAUtagEventInfo@@@std@@@std@@@std@@QAEAAV01@XZ
_TEXT	SEGMENT
??E?$_Vector_const_iterator@V?$_Vector_val@PAUtagEventInfo@@V?$allocator@PAUtagEventInfo@@@std@@@std@@@std@@QAEAAV01@XZ PROC ; std::_Vector_const_iterator<std::_Vector_val<tagEventInfo *,std::allocator<tagEventInfo *> > >::operator++, COMDAT
; _this$ = ecx

; 93   : 		{	// preincrement

  00000	8b c1		 mov	 eax, ecx

; 94   :  #if _ITERATOR_DEBUG_LEVEL == 2
; 95   : 		if (this->_Getcont() == 0
; 96   : 			|| this->_Ptr == 0
; 97   : 			|| ((_Myvec *)this->_Getcont())->_Mylast <= this->_Ptr)
; 98   : 			{	// report error
; 99   : 			_DEBUG_ERROR("vector iterator not incrementable");
; 100  : 			_SCL_SECURE_OUT_OF_RANGE;
; 101  : 			}
; 102  : 
; 103  :  #elif _ITERATOR_DEBUG_LEVEL == 1
; 104  : 		_SCL_SECURE_VALIDATE(this->_Getcont() != 0);
; 105  : 		_SCL_SECURE_VALIDATE_RANGE(
; 106  : 			this->_Ptr != 0
; 107  : 			&& this->_Ptr < ((_Myvec *)this->_Getcont())->_Mylast);
; 108  :  #endif /* _ITERATOR_DEBUG_LEVEL */
; 109  : 
; 110  : 		++this->_Ptr;

  00002	83 00 04	 add	 DWORD PTR [eax], 4

; 111  : 		return (*this);
; 112  : 		}

  00005	c3		 ret	 0
??E?$_Vector_const_iterator@V?$_Vector_val@PAUtagEventInfo@@V?$allocator@PAUtagEventInfo@@@std@@@std@@@std@@QAEAAV01@XZ ENDP ; std::_Vector_const_iterator<std::_Vector_val<tagEventInfo *,std::allocator<tagEventInfo *> > >::operator++
_TEXT	ENDS
PUBLIC	??D?$_Vector_const_iterator@V?$_Vector_val@PAVioUIRenderImage@@V?$allocator@PAVioUIRenderImage@@@std@@@std@@@std@@QBEABQAVioUIRenderImage@@XZ ; std::_Vector_const_iterator<std::_Vector_val<ioUIRenderImage *,std::allocator<ioUIRenderImage *> > >::operator*
; Function compile flags: /Ogsp
;	COMDAT ??D?$_Vector_const_iterator@V?$_Vector_val@PAVioUIRenderImage@@V?$allocator@PAVioUIRenderImage@@@std@@@std@@@std@@QBEABQAVioUIRenderImage@@XZ
_TEXT	SEGMENT
??D?$_Vector_const_iterator@V?$_Vector_val@PAVioUIRenderImage@@V?$allocator@PAVioUIRenderImage@@@std@@@std@@@std@@QBEABQAVioUIRenderImage@@XZ PROC ; std::_Vector_const_iterator<std::_Vector_val<ioUIRenderImage *,std::allocator<ioUIRenderImage *> > >::operator*, COMDAT
; _this$ = ecx

; 64   :  #if _ITERATOR_DEBUG_LEVEL == 2
; 65   : 		if (this->_Getcont() == 0
; 66   : 			|| this->_Ptr == 0
; 67   : 			|| this->_Ptr < ((_Myvec *)this->_Getcont())->_Myfirst
; 68   : 			|| ((_Myvec *)this->_Getcont())->_Mylast <= this->_Ptr)
; 69   : 			{	// report error
; 70   : 			_DEBUG_ERROR("vector iterator not dereferencable");
; 71   : 			_SCL_SECURE_OUT_OF_RANGE;
; 72   : 			}
; 73   : 
; 74   :  #elif _ITERATOR_DEBUG_LEVEL == 1
; 75   : 		_SCL_SECURE_VALIDATE(this->_Getcont() != 0);
; 76   : 		_SCL_SECURE_VALIDATE_RANGE(
; 77   : 			this->_Ptr != 0
; 78   : 			&& ((_Myvec *)this->_Getcont())->_Myfirst <= this->_Ptr
; 79   : 			&& this->_Ptr < ((_Myvec *)this->_Getcont())->_Mylast);
; 80   :  #endif /* _ITERATOR_DEBUG_LEVEL */
; 81   : 
; 82   : 		__analysis_assume(this->_Ptr != 0);
; 83   : 
; 84   : 		return (*this->_Ptr);

  00000	8b 01		 mov	 eax, DWORD PTR [ecx]

; 85   : 		}

  00002	c3		 ret	 0
??D?$_Vector_const_iterator@V?$_Vector_val@PAVioUIRenderImage@@V?$allocator@PAVioUIRenderImage@@@std@@@std@@@std@@QBEABQAVioUIRenderImage@@XZ ENDP ; std::_Vector_const_iterator<std::_Vector_val<ioUIRenderImage *,std::allocator<ioUIRenderImage *> > >::operator*
_TEXT	ENDS
PUBLIC	?capacity@?$vector@PAVioUIRenderImage@@V?$allocator@PAVioUIRenderImage@@@std@@@std@@QBEIXZ ; std::vector<ioUIRenderImage *,std::allocator<ioUIRenderImage *> >::capacity
; Function compile flags: /Ogsp
;	COMDAT ?capacity@?$vector@PAVioUIRenderImage@@V?$allocator@PAVioUIRenderImage@@@std@@@std@@QBEIXZ
_TEXT	SEGMENT
?capacity@?$vector@PAVioUIRenderImage@@V?$allocator@PAVioUIRenderImage@@@std@@@std@@QBEIXZ PROC ; std::vector<ioUIRenderImage *,std::allocator<ioUIRenderImage *> >::capacity, COMDAT
; _this$ = ecx

; 777  : 		return (this->_Myend - this->_Myfirst);

  00000	8b 41 08	 mov	 eax, DWORD PTR [ecx+8]
  00003	2b 01		 sub	 eax, DWORD PTR [ecx]
  00005	c1 f8 02	 sar	 eax, 2

; 778  : 		}

  00008	c3		 ret	 0
?capacity@?$vector@PAVioUIRenderImage@@V?$allocator@PAVioUIRenderImage@@@std@@@std@@QBEIXZ ENDP ; std::vector<ioUIRenderImage *,std::allocator<ioUIRenderImage *> >::capacity
_TEXT	ENDS
PUBLIC	?_Xlen@?$vector@PAVioUIRenderImage@@V?$allocator@PAVioUIRenderImage@@@std@@@std@@IBEXXZ ; std::vector<ioUIRenderImage *,std::allocator<ioUIRenderImage *> >::_Xlen
; Function compile flags: /Ogsp
;	COMDAT ?_Xlen@?$vector@PAVioUIRenderImage@@V?$allocator@PAVioUIRenderImage@@@std@@@std@@IBEXXZ
_TEXT	SEGMENT
?_Xlen@?$vector@PAVioUIRenderImage@@V?$allocator@PAVioUIRenderImage@@@std@@@std@@IBEXXZ PROC ; std::vector<ioUIRenderImage *,std::allocator<ioUIRenderImage *> >::_Xlen, COMDAT
; _this$ = ecx

; 1427 : 		_Xlength_error("vector<T> too long");

  00000	68 00 00 00 00	 push	 OFFSET ??_C@_0BD@OLBABOEK@vector?$DMT?$DO?5too?5long?$AA@
  00005	ff 15 00 00 00
	00		 call	 DWORD PTR __imp_?_Xlength_error@std@@YAXPBD@Z
$LN4@Xlen@2:
$LN3@Xlen@2:
  0000b	cc		 int	 3
?_Xlen@?$vector@PAVioUIRenderImage@@V?$allocator@PAVioUIRenderImage@@@std@@@std@@IBEXXZ ENDP ; std::vector<ioUIRenderImage *,std::allocator<ioUIRenderImage *> >::_Xlen
_TEXT	ENDS
PUBLIC	??0?$allocator@PAVioUIRenderImage@@@std@@QAE@ABV01@@Z ; std::allocator<ioUIRenderImage *>::allocator<ioUIRenderImage *>
; Function compile flags: /Ogsp
; File c:\program files (x86)\microsoft visual studio 10.0\vc\include\xmemory
;	COMDAT ??0?$allocator@PAVioUIRenderImage@@@std@@QAE@ABV01@@Z
_TEXT	SEGMENT
___formal$ = 8						; size = 4
??0?$allocator@PAVioUIRenderImage@@@std@@QAE@ABV01@@Z PROC ; std::allocator<ioUIRenderImage *>::allocator<ioUIRenderImage *>, COMDAT
; _this$ = ecx

; 165  : 	_ALLOCATOR(const _ALLOCATOR<_Ty>&) _THROW0()

  00000	8b c1		 mov	 eax, ecx

; 166  : 		{	// construct by copying (do nothing)
; 167  : 		}

  00002	c2 04 00	 ret	 4
??0?$allocator@PAVioUIRenderImage@@@std@@QAE@ABV01@@Z ENDP ; std::allocator<ioUIRenderImage *>::allocator<ioUIRenderImage *>
_TEXT	ENDS
PUBLIC	?deallocate@?$allocator@PAVioUIRenderImage@@@std@@QAEXPAPAVioUIRenderImage@@I@Z ; std::allocator<ioUIRenderImage *>::deallocate
; Function compile flags: /Ogsp
;	COMDAT ?deallocate@?$allocator@PAVioUIRenderImage@@@std@@QAEXPAPAVioUIRenderImage@@I@Z
_TEXT	SEGMENT
__Ptr$ = 8						; size = 4
___formal$ = 12						; size = 4
?deallocate@?$allocator@PAVioUIRenderImage@@@std@@QAEXPAPAVioUIRenderImage@@I@Z PROC ; std::allocator<ioUIRenderImage *>::deallocate, COMDAT
; _this$ = ecx

; 181  : 		{	// deallocate object at _Ptr, ignore size

  00000	55		 push	 ebp
  00001	8b ec		 mov	 ebp, esp

; 182  : 		::operator delete(_Ptr);

  00003	ff 75 08	 push	 DWORD PTR __Ptr$[ebp]
  00006	e8 00 00 00 00	 call	 ??3@YAXPAX@Z		; operator delete
  0000b	59		 pop	 ecx

; 183  : 		}

  0000c	5d		 pop	 ebp
  0000d	c2 08 00	 ret	 8
?deallocate@?$allocator@PAVioUIRenderImage@@@std@@QAEXPAPAVioUIRenderImage@@I@Z ENDP ; std::allocator<ioUIRenderImage *>::deallocate
_TEXT	ENDS
PUBLIC	??0?$allocator@PAUtagEventInfo@@@std@@QAE@ABV01@@Z ; std::allocator<tagEventInfo *>::allocator<tagEventInfo *>
; Function compile flags: /Ogsp
;	COMDAT ??0?$allocator@PAUtagEventInfo@@@std@@QAE@ABV01@@Z
_TEXT	SEGMENT
___formal$ = 8						; size = 4
??0?$allocator@PAUtagEventInfo@@@std@@QAE@ABV01@@Z PROC	; std::allocator<tagEventInfo *>::allocator<tagEventInfo *>, COMDAT
; _this$ = ecx

; 165  : 	_ALLOCATOR(const _ALLOCATOR<_Ty>&) _THROW0()

  00000	8b c1		 mov	 eax, ecx

; 166  : 		{	// construct by copying (do nothing)
; 167  : 		}

  00002	c2 04 00	 ret	 4
??0?$allocator@PAUtagEventInfo@@@std@@QAE@ABV01@@Z ENDP	; std::allocator<tagEventInfo *>::allocator<tagEventInfo *>
_TEXT	ENDS
PUBLIC	?max_size@?$allocator@PAUtagEventInfo@@@std@@QBEIXZ ; std::allocator<tagEventInfo *>::max_size
; Function compile flags: /Ogsp
;	COMDAT ?max_size@?$allocator@PAUtagEventInfo@@@std@@QBEIXZ
_TEXT	SEGMENT
?max_size@?$allocator@PAUtagEventInfo@@@std@@QBEIXZ PROC ; std::allocator<tagEventInfo *>::max_size, COMDAT
; _this$ = ecx

; 218  : 		_SIZT _Count = (_SIZT)(-1) / sizeof (_Ty);
; 219  : 		return (0 < _Count ? _Count : 1);

  00000	b8 ff ff ff 3f	 mov	 eax, 1073741823		; 3fffffffH

; 220  : 		}

  00005	c3		 ret	 0
?max_size@?$allocator@PAUtagEventInfo@@@std@@QBEIXZ ENDP ; std::allocator<tagEventInfo *>::max_size
_TEXT	ENDS
PUBLIC	??0?$_Vector_const_iterator@V?$_Vector_val@PAUtagEventInfo@@V?$allocator@PAUtagEventInfo@@@std@@@std@@@std@@QAE@PAPAUtagEventInfo@@PBU_Container_base0@1@@Z ; std::_Vector_const_iterator<std::_Vector_val<tagEventInfo *,std::allocator<tagEventInfo *> > >::_Vector_const_iterator<std::_Vector_val<tagEventInfo *,std::allocator<tagEventInfo *> > >
; Function compile flags: /Ogsp
; File c:\program files (x86)\microsoft visual studio 10.0\vc\include\vector
;	COMDAT ??0?$_Vector_const_iterator@V?$_Vector_val@PAUtagEventInfo@@V?$allocator@PAUtagEventInfo@@@std@@@std@@@std@@QAE@PAPAUtagEventInfo@@PBU_Container_base0@1@@Z
_TEXT	SEGMENT
__Parg$ = 8						; size = 4
__Pvector$ = 12						; size = 4
??0?$_Vector_const_iterator@V?$_Vector_val@PAUtagEventInfo@@V?$allocator@PAUtagEventInfo@@@std@@@std@@@std@@QAE@PAPAUtagEventInfo@@PBU_Container_base0@1@@Z PROC ; std::_Vector_const_iterator<std::_Vector_val<tagEventInfo *,std::allocator<tagEventInfo *> > >::_Vector_const_iterator<std::_Vector_val<tagEventInfo *,std::allocator<tagEventInfo *> > >, COMDAT
; _this$ = ecx

; 45   : 		{	// construct with pointer _Parg

  00000	55		 push	 ebp
  00001	8b ec		 mov	 ebp, esp
  00003	8b c1		 mov	 eax, ecx
  00005	8b 4d 08	 mov	 ecx, DWORD PTR __Parg$[ebp]
  00008	89 08		 mov	 DWORD PTR [eax], ecx

; 46   : 		this->_Adopt(_Pvector);
; 47   : 		}

  0000a	5d		 pop	 ebp
  0000b	c2 08 00	 ret	 8
??0?$_Vector_const_iterator@V?$_Vector_val@PAUtagEventInfo@@V?$allocator@PAUtagEventInfo@@@std@@@std@@@std@@QAE@PAPAUtagEventInfo@@PBU_Container_base0@1@@Z ENDP ; std::_Vector_const_iterator<std::_Vector_val<tagEventInfo *,std::allocator<tagEventInfo *> > >::_Vector_const_iterator<std::_Vector_val<tagEventInfo *,std::allocator<tagEventInfo *> > >
_TEXT	ENDS
PUBLIC	?_Compat@?$_Vector_const_iterator@V?$_Vector_val@PAUtagEventInfo@@V?$allocator@PAUtagEventInfo@@@std@@@std@@@std@@QBEXABV12@@Z ; std::_Vector_const_iterator<std::_Vector_val<tagEventInfo *,std::allocator<tagEventInfo *> > >::_Compat
; Function compile flags: /Ogsp
;	COMDAT ?_Compat@?$_Vector_const_iterator@V?$_Vector_val@PAUtagEventInfo@@V?$allocator@PAUtagEventInfo@@@std@@@std@@@std@@QBEXABV12@@Z
_TEXT	SEGMENT
___formal$ = 8						; size = 4
?_Compat@?$_Vector_const_iterator@V?$_Vector_val@PAUtagEventInfo@@V?$allocator@PAUtagEventInfo@@@std@@@std@@@std@@QBEXABV12@@Z PROC ; std::_Vector_const_iterator<std::_Vector_val<tagEventInfo *,std::allocator<tagEventInfo *> > >::_Compat, COMDAT
; _this$ = ecx

; 253  : 		}

  00000	c2 04 00	 ret	 4
?_Compat@?$_Vector_const_iterator@V?$_Vector_val@PAUtagEventInfo@@V?$allocator@PAUtagEventInfo@@@std@@@std@@@std@@QBEXABV12@@Z ENDP ; std::_Vector_const_iterator<std::_Vector_val<tagEventInfo *,std::allocator<tagEventInfo *> > >::_Compat
_TEXT	ENDS
PUBLIC	??0?$_Vector_const_iterator@V?$_Vector_val@PAVioUIRenderImage@@V?$allocator@PAVioUIRenderImage@@@std@@@std@@@std@@QAE@PAPAVioUIRenderImage@@PBU_Container_base0@1@@Z ; std::_Vector_const_iterator<std::_Vector_val<ioUIRenderImage *,std::allocator<ioUIRenderImage *> > >::_Vector_const_iterator<std::_Vector_val<ioUIRenderImage *,std::allocator<ioUIRenderImage *> > >
; Function compile flags: /Ogsp
;	COMDAT ??0?$_Vector_const_iterator@V?$_Vector_val@PAVioUIRenderImage@@V?$allocator@PAVioUIRenderImage@@@std@@@std@@@std@@QAE@PAPAVioUIRenderImage@@PBU_Container_base0@1@@Z
_TEXT	SEGMENT
__Parg$ = 8						; size = 4
__Pvector$ = 12						; size = 4
??0?$_Vector_const_iterator@V?$_Vector_val@PAVioUIRenderImage@@V?$allocator@PAVioUIRenderImage@@@std@@@std@@@std@@QAE@PAPAVioUIRenderImage@@PBU_Container_base0@1@@Z PROC ; std::_Vector_const_iterator<std::_Vector_val<ioUIRenderImage *,std::allocator<ioUIRenderImage *> > >::_Vector_const_iterator<std::_Vector_val<ioUIRenderImage *,std::allocator<ioUIRenderImage *> > >, COMDAT
; _this$ = ecx

; 45   : 		{	// construct with pointer _Parg

  00000	55		 push	 ebp
  00001	8b ec		 mov	 ebp, esp
  00003	8b c1		 mov	 eax, ecx
  00005	8b 4d 08	 mov	 ecx, DWORD PTR __Parg$[ebp]
  00008	89 08		 mov	 DWORD PTR [eax], ecx

; 46   : 		this->_Adopt(_Pvector);
; 47   : 		}

  0000a	5d		 pop	 ebp
  0000b	c2 08 00	 ret	 8
??0?$_Vector_const_iterator@V?$_Vector_val@PAVioUIRenderImage@@V?$allocator@PAVioUIRenderImage@@@std@@@std@@@std@@QAE@PAPAVioUIRenderImage@@PBU_Container_base0@1@@Z ENDP ; std::_Vector_const_iterator<std::_Vector_val<ioUIRenderImage *,std::allocator<ioUIRenderImage *> > >::_Vector_const_iterator<std::_Vector_val<ioUIRenderImage *,std::allocator<ioUIRenderImage *> > >
_TEXT	ENDS
PUBLIC	??E?$_Vector_const_iterator@V?$_Vector_val@PAVioUIRenderImage@@V?$allocator@PAVioUIRenderImage@@@std@@@std@@@std@@QAEAAV01@XZ ; std::_Vector_const_iterator<std::_Vector_val<ioUIRenderImage *,std::allocator<ioUIRenderImage *> > >::operator++
; Function compile flags: /Ogsp
;	COMDAT ??E?$_Vector_const_iterator@V?$_Vector_val@PAVioUIRenderImage@@V?$allocator@PAVioUIRenderImage@@@std@@@std@@@std@@QAEAAV01@XZ
_TEXT	SEGMENT
??E?$_Vector_const_iterator@V?$_Vector_val@PAVioUIRenderImage@@V?$allocator@PAVioUIRenderImage@@@std@@@std@@@std@@QAEAAV01@XZ PROC ; std::_Vector_const_iterator<std::_Vector_val<ioUIRenderImage *,std::allocator<ioUIRenderImage *> > >::operator++, COMDAT
; _this$ = ecx

; 93   : 		{	// preincrement

  00000	8b c1		 mov	 eax, ecx

; 94   :  #if _ITERATOR_DEBUG_LEVEL == 2
; 95   : 		if (this->_Getcont() == 0
; 96   : 			|| this->_Ptr == 0
; 97   : 			|| ((_Myvec *)this->_Getcont())->_Mylast <= this->_Ptr)
; 98   : 			{	// report error
; 99   : 			_DEBUG_ERROR("vector iterator not incrementable");
; 100  : 			_SCL_SECURE_OUT_OF_RANGE;
; 101  : 			}
; 102  : 
; 103  :  #elif _ITERATOR_DEBUG_LEVEL == 1
; 104  : 		_SCL_SECURE_VALIDATE(this->_Getcont() != 0);
; 105  : 		_SCL_SECURE_VALIDATE_RANGE(
; 106  : 			this->_Ptr != 0
; 107  : 			&& this->_Ptr < ((_Myvec *)this->_Getcont())->_Mylast);
; 108  :  #endif /* _ITERATOR_DEBUG_LEVEL */
; 109  : 
; 110  : 		++this->_Ptr;

  00002	83 00 04	 add	 DWORD PTR [eax], 4

; 111  : 		return (*this);
; 112  : 		}

  00005	c3		 ret	 0
??E?$_Vector_const_iterator@V?$_Vector_val@PAVioUIRenderImage@@V?$allocator@PAVioUIRenderImage@@@std@@@std@@@std@@QAEAAV01@XZ ENDP ; std::_Vector_const_iterator<std::_Vector_val<ioUIRenderImage *,std::allocator<ioUIRenderImage *> > >::operator++
_TEXT	ENDS
PUBLIC	?_Compat@?$_Vector_const_iterator@V?$_Vector_val@PAVioUIRenderImage@@V?$allocator@PAVioUIRenderImage@@@std@@@std@@@std@@QBEXABV12@@Z ; std::_Vector_const_iterator<std::_Vector_val<ioUIRenderImage *,std::allocator<ioUIRenderImage *> > >::_Compat
; Function compile flags: /Ogsp
;	COMDAT ?_Compat@?$_Vector_const_iterator@V?$_Vector_val@PAVioUIRenderImage@@V?$allocator@PAVioUIRenderImage@@@std@@@std@@@std@@QBEXABV12@@Z
_TEXT	SEGMENT
___formal$ = 8						; size = 4
?_Compat@?$_Vector_const_iterator@V?$_Vector_val@PAVioUIRenderImage@@V?$allocator@PAVioUIRenderImage@@@std@@@std@@@std@@QBEXABV12@@Z PROC ; std::_Vector_const_iterator<std::_Vector_val<ioUIRenderImage *,std::allocator<ioUIRenderImage *> > >::_Compat, COMDAT
; _this$ = ecx

; 253  : 		}

  00000	c2 04 00	 ret	 4
?_Compat@?$_Vector_const_iterator@V?$_Vector_val@PAVioUIRenderImage@@V?$allocator@PAVioUIRenderImage@@@std@@@std@@@std@@QBEXABV12@@Z ENDP ; std::_Vector_const_iterator<std::_Vector_val<ioUIRenderImage *,std::allocator<ioUIRenderImage *> > >::_Compat
_TEXT	ENDS
PUBLIC	?max_size@?$allocator@PAVioUIRenderImage@@@std@@QBEIXZ ; std::allocator<ioUIRenderImage *>::max_size
; Function compile flags: /Ogsp
; File c:\program files (x86)\microsoft visual studio 10.0\vc\include\xmemory
;	COMDAT ?max_size@?$allocator@PAVioUIRenderImage@@@std@@QBEIXZ
_TEXT	SEGMENT
?max_size@?$allocator@PAVioUIRenderImage@@@std@@QBEIXZ PROC ; std::allocator<ioUIRenderImage *>::max_size, COMDAT
; _this$ = ecx

; 218  : 		_SIZT _Count = (_SIZT)(-1) / sizeof (_Ty);
; 219  : 		return (0 < _Count ? _Count : 1);

  00000	b8 ff ff ff 3f	 mov	 eax, 1073741823		; 3fffffffH

; 220  : 		}

  00005	c3		 ret	 0
?max_size@?$allocator@PAVioUIRenderImage@@@std@@QBEIXZ ENDP ; std::allocator<ioUIRenderImage *>::max_size
_TEXT	ENDS
PUBLIC	??$addressof@PAVioUIRenderImage@@@std@@YAPAPAVioUIRenderImage@@AAPAV1@@Z ; std::addressof<ioUIRenderImage *>
; Function compile flags: /Ogsp
;	COMDAT ??$addressof@PAVioUIRenderImage@@@std@@YAPAPAVioUIRenderImage@@AAPAV1@@Z
_TEXT	SEGMENT
__Val$ = 8						; size = 4
??$addressof@PAVioUIRenderImage@@@std@@YAPAPAVioUIRenderImage@@AAPAV1@@Z PROC ; std::addressof<ioUIRenderImage *>, COMDAT

; 110  : 	{	// return address of _Val

  00000	55		 push	 ebp
  00001	8b ec		 mov	 ebp, esp

; 111  : 	return ((_Ty *) &(char&)_Val);

  00003	8b 45 08	 mov	 eax, DWORD PTR __Val$[ebp]

; 112  : 	}

  00006	5d		 pop	 ebp
  00007	c3		 ret	 0
??$addressof@PAVioUIRenderImage@@@std@@YAPAPAVioUIRenderImage@@AAPAV1@@Z ENDP ; std::addressof<ioUIRenderImage *>
_TEXT	ENDS
PUBLIC	??$forward@PAVioUIRenderImage@@@std@@YA$$QAPAVioUIRenderImage@@AAPAV1@@Z ; std::forward<ioUIRenderImage *>
; Function compile flags: /Ogsp
; File c:\program files (x86)\microsoft visual studio 10.0\vc\include\utility
;	COMDAT ??$forward@PAVioUIRenderImage@@@std@@YA$$QAPAVioUIRenderImage@@AAPAV1@@Z
_TEXT	SEGMENT
__Arg$ = 8						; size = 4
??$forward@PAVioUIRenderImage@@@std@@YA$$QAPAVioUIRenderImage@@AAPAV1@@Z PROC ; std::forward<ioUIRenderImage *>, COMDAT

; 78   : 	{	// forward _Arg, given explicitly specified type parameter

  00000	55		 push	 ebp
  00001	8b ec		 mov	 ebp, esp

; 79   : 	return ((_Ty&&)_Arg);

  00003	8b 45 08	 mov	 eax, DWORD PTR __Arg$[ebp]

; 80   : 	}

  00006	5d		 pop	 ebp
  00007	c3		 ret	 0
??$forward@PAVioUIRenderImage@@@std@@YA$$QAPAVioUIRenderImage@@AAPAV1@@Z ENDP ; std::forward<ioUIRenderImage *>
_TEXT	ENDS
PUBLIC	??$addressof@H@std@@YAPAHAAH@Z			; std::addressof<int>
; Function compile flags: /Ogsp
; File c:\program files (x86)\microsoft visual studio 10.0\vc\include\xmemory
;	COMDAT ??$addressof@H@std@@YAPAHAAH@Z
_TEXT	SEGMENT
__Val$ = 8						; size = 4
??$addressof@H@std@@YAPAHAAH@Z PROC			; std::addressof<int>, COMDAT

; 110  : 	{	// return address of _Val

  00000	55		 push	 ebp
  00001	8b ec		 mov	 ebp, esp

; 111  : 	return ((_Ty *) &(char&)_Val);

  00003	8b 45 08	 mov	 eax, DWORD PTR __Val$[ebp]

; 112  : 	}

  00006	5d		 pop	 ebp
  00007	c3		 ret	 0
??$addressof@H@std@@YAPAHAAH@Z ENDP			; std::addressof<int>
_TEXT	ENDS
PUBLIC	??$addressof@QAUtagEventInfo@@@std@@YAPBQAUtagEventInfo@@ABQAU1@@Z ; std::addressof<tagEventInfo * const>
; Function compile flags: /Ogsp
;	COMDAT ??$addressof@QAUtagEventInfo@@@std@@YAPBQAUtagEventInfo@@ABQAU1@@Z
_TEXT	SEGMENT
__Val$ = 8						; size = 4
??$addressof@QAUtagEventInfo@@@std@@YAPBQAUtagEventInfo@@ABQAU1@@Z PROC ; std::addressof<tagEventInfo * const>, COMDAT

; 110  : 	{	// return address of _Val

  00000	55		 push	 ebp
  00001	8b ec		 mov	 ebp, esp

; 111  : 	return ((_Ty *) &(char&)_Val);

  00003	8b 45 08	 mov	 eax, DWORD PTR __Val$[ebp]

; 112  : 	}

  00006	5d		 pop	 ebp
  00007	c3		 ret	 0
??$addressof@QAUtagEventInfo@@@std@@YAPBQAUtagEventInfo@@ABQAU1@@Z ENDP ; std::addressof<tagEventInfo * const>
_TEXT	ENDS
PUBLIC	__TI2?AVbad_alloc@std@@
PUBLIC	??$_Allocate@PAUtagEventInfo@@@std@@YAPAPAUtagEventInfo@@IPAPAU1@@Z ; std::_Allocate<tagEventInfo *>
PUBLIC	__CTA2?AVbad_alloc@std@@
PUBLIC	__CT??_R0?AVbad_alloc@std@@@8??0bad_alloc@std@@QAE@ABV01@@Z12
PUBLIC	??0bad_alloc@std@@QAE@ABV01@@Z			; std::bad_alloc::bad_alloc
PUBLIC	__CT??_R0?AVexception@std@@@8??0exception@std@@QAE@ABV01@@Z12
EXTRN	??2@YAPAXI@Z:PROC				; operator new
EXTRN	__CxxThrowException@8:PROC
EXTRN	??0exception@std@@QAE@ABV01@@Z:PROC		; std::exception::exception
;	COMDAT __CT??_R0?AVexception@std@@@8??0exception@std@@QAE@ABV01@@Z12
; File c:\program files (x86)\microsoft visual studio 10.0\vc\include\exception
xdata$x	SEGMENT
__CT??_R0?AVexception@std@@@8??0exception@std@@QAE@ABV01@@Z12 DD 00H
	DD	FLAT:??_R0?AVexception@std@@@8
	DD	00H
	DD	0ffffffffH
	ORG $+4
	DD	0cH
	DD	FLAT:??0exception@std@@QAE@ABV01@@Z
xdata$x	ENDS
;	COMDAT __CT??_R0?AVbad_alloc@std@@@8??0bad_alloc@std@@QAE@ABV01@@Z12
xdata$x	SEGMENT
__CT??_R0?AVbad_alloc@std@@@8??0bad_alloc@std@@QAE@ABV01@@Z12 DD 00H
	DD	FLAT:??_R0?AVbad_alloc@std@@@8
	DD	00H
	DD	0ffffffffH
	ORG $+4
	DD	0cH
	DD	FLAT:??0bad_alloc@std@@QAE@ABV01@@Z
xdata$x	ENDS
;	COMDAT __CTA2?AVbad_alloc@std@@
xdata$x	SEGMENT
__CTA2?AVbad_alloc@std@@ DD 02H
	DD	FLAT:__CT??_R0?AVbad_alloc@std@@@8??0bad_alloc@std@@QAE@ABV01@@Z12
	DD	FLAT:__CT??_R0?AVexception@std@@@8??0exception@std@@QAE@ABV01@@Z12
xdata$x	ENDS
;	COMDAT __TI2?AVbad_alloc@std@@
xdata$x	SEGMENT
__TI2?AVbad_alloc@std@@ DD 00H
	DD	FLAT:??1bad_alloc@std@@UAE@XZ
	DD	00H
	DD	FLAT:__CTA2?AVbad_alloc@std@@
; Function compile flags: /Ogsp
; File c:\program files (x86)\microsoft visual studio 10.0\vc\include\xmemory
xdata$x	ENDS
;	COMDAT ??$_Allocate@PAUtagEventInfo@@@std@@YAPAPAUtagEventInfo@@IPAPAU1@@Z
_TEXT	SEGMENT
$T520737 = -12						; size = 12
$T520742 = 8						; size = 4
__Count$ = 8						; size = 4
___formal$ = 12						; size = 4
??$_Allocate@PAUtagEventInfo@@@std@@YAPAPAUtagEventInfo@@IPAPAU1@@Z PROC ; std::_Allocate<tagEventInfo *>, COMDAT

; 30   : 	{	// allocate storage for _Count elements of type _Ty

  00000	55		 push	 ebp
  00001	8b ec		 mov	 ebp, esp

; 31   : 	void *_Ptr = 0;
; 32   : 
; 33   : 	if (_Count <= 0)

  00003	8b 4d 08	 mov	 ecx, DWORD PTR __Count$[ebp]
  00006	83 ec 0c	 sub	 esp, 12			; 0000000cH
  00009	33 c0		 xor	 eax, eax
  0000b	85 c9		 test	 ecx, ecx

; 34   : 		_Count = 0;
; 35   : 	else if (((_SIZT)(-1) / sizeof (_Ty) < _Count)

  0000d	74 3e		 je	 SHORT $LN5@Allocate

; 36   : 		|| (_Ptr = ::operator new(_Count * sizeof (_Ty))) == 0)

  0000f	81 f9 ff ff ff
	3f		 cmp	 ecx, 1073741823		; 3fffffffH
  00015	77 10		 ja	 SHORT $LN1@Allocate
  00017	8b c1		 mov	 eax, ecx
  00019	c1 e0 02	 shl	 eax, 2
  0001c	50		 push	 eax
  0001d	e8 00 00 00 00	 call	 ??2@YAPAXI@Z		; operator new
  00022	59		 pop	 ecx
  00023	85 c0		 test	 eax, eax

; 38   : 
; 39   : 	return ((_Ty _FARQ *)_Ptr);

  00025	75 26		 jne	 SHORT $LN5@Allocate
$LN1@Allocate:

; 37   : 		_THROW_NCEE(bad_alloc, 0);

  00027	83 65 08 00	 and	 DWORD PTR $T520742[ebp], 0
  0002b	8d 45 08	 lea	 eax, DWORD PTR $T520742[ebp]
  0002e	50		 push	 eax
  0002f	8d 4d f4	 lea	 ecx, DWORD PTR $T520737[ebp]
  00032	ff 15 00 00 00
	00		 call	 DWORD PTR __imp_??0exception@std@@QAE@ABQBD@Z
  00038	68 00 00 00 00	 push	 OFFSET __TI2?AVbad_alloc@std@@
  0003d	8d 45 f4	 lea	 eax, DWORD PTR $T520737[ebp]
  00040	50		 push	 eax
  00041	c7 45 f4 00 00
	00 00		 mov	 DWORD PTR $T520737[ebp], OFFSET ??_7bad_alloc@std@@6B@
  00048	e8 00 00 00 00	 call	 __CxxThrowException@8
$LN10@Allocate:
$LN5@Allocate:

; 40   : 	}

  0004d	c9		 leave
  0004e	c3		 ret	 0
$LN9@Allocate:
??$_Allocate@PAUtagEventInfo@@@std@@YAPAPAUtagEventInfo@@IPAPAU1@@Z ENDP ; std::_Allocate<tagEventInfo *>
_TEXT	ENDS
PUBLIC	??$_Allocate@PAVioUIRenderImage@@@std@@YAPAPAVioUIRenderImage@@IPAPAV1@@Z ; std::_Allocate<ioUIRenderImage *>
; Function compile flags: /Ogsp
;	COMDAT ??$_Allocate@PAVioUIRenderImage@@@std@@YAPAPAVioUIRenderImage@@IPAPAV1@@Z
_TEXT	SEGMENT
$T520747 = -12						; size = 12
$T520751 = 8						; size = 4
__Count$ = 8						; size = 4
___formal$ = 12						; size = 4
??$_Allocate@PAVioUIRenderImage@@@std@@YAPAPAVioUIRenderImage@@IPAPAV1@@Z PROC ; std::_Allocate<ioUIRenderImage *>, COMDAT

; 30   : 	{	// allocate storage for _Count elements of type _Ty

  00000	55		 push	 ebp
  00001	8b ec		 mov	 ebp, esp

; 31   : 	void *_Ptr = 0;
; 32   : 
; 33   : 	if (_Count <= 0)

  00003	8b 4d 08	 mov	 ecx, DWORD PTR __Count$[ebp]
  00006	83 ec 0c	 sub	 esp, 12			; 0000000cH
  00009	33 c0		 xor	 eax, eax
  0000b	85 c9		 test	 ecx, ecx

; 34   : 		_Count = 0;
; 35   : 	else if (((_SIZT)(-1) / sizeof (_Ty) < _Count)

  0000d	74 3e		 je	 SHORT $LN5@Allocate@2

; 36   : 		|| (_Ptr = ::operator new(_Count * sizeof (_Ty))) == 0)

  0000f	81 f9 ff ff ff
	3f		 cmp	 ecx, 1073741823		; 3fffffffH
  00015	77 10		 ja	 SHORT $LN1@Allocate@2
  00017	8b c1		 mov	 eax, ecx
  00019	c1 e0 02	 shl	 eax, 2
  0001c	50		 push	 eax
  0001d	e8 00 00 00 00	 call	 ??2@YAPAXI@Z		; operator new
  00022	59		 pop	 ecx
  00023	85 c0		 test	 eax, eax

; 38   : 
; 39   : 	return ((_Ty _FARQ *)_Ptr);

  00025	75 26		 jne	 SHORT $LN5@Allocate@2
$LN1@Allocate@2:

; 37   : 		_THROW_NCEE(bad_alloc, 0);

  00027	83 65 08 00	 and	 DWORD PTR $T520751[ebp], 0
  0002b	8d 45 08	 lea	 eax, DWORD PTR $T520751[ebp]
  0002e	50		 push	 eax
  0002f	8d 4d f4	 lea	 ecx, DWORD PTR $T520747[ebp]
  00032	ff 15 00 00 00
	00		 call	 DWORD PTR __imp_??0exception@std@@QAE@ABQBD@Z
  00038	68 00 00 00 00	 push	 OFFSET __TI2?AVbad_alloc@std@@
  0003d	8d 45 f4	 lea	 eax, DWORD PTR $T520747[ebp]
  00040	50		 push	 eax
  00041	c7 45 f4 00 00
	00 00		 mov	 DWORD PTR $T520747[ebp], OFFSET ??_7bad_alloc@std@@6B@
  00048	e8 00 00 00 00	 call	 __CxxThrowException@8
$LN10@Allocate@2:
$LN5@Allocate@2:

; 40   : 	}

  0004d	c9		 leave
  0004e	c3		 ret	 0
$LN9@Allocate@2:
??$_Allocate@PAVioUIRenderImage@@@std@@YAPAPAVioUIRenderImage@@IPAPAV1@@Z ENDP ; std::_Allocate<ioUIRenderImage *>
_TEXT	ENDS
PUBLIC	?construct@?$allocator@PAVioUIRenderImage@@@std@@QAEXPAPAVioUIRenderImage@@$$QAPAV3@@Z ; std::allocator<ioUIRenderImage *>::construct
; Function compile flags: /Ogsp
;	COMDAT ?construct@?$allocator@PAVioUIRenderImage@@@std@@QAEXPAPAVioUIRenderImage@@$$QAPAV3@@Z
_TEXT	SEGMENT
__Ptr$ = 8						; size = 4
__Val$ = 12						; size = 4
?construct@?$allocator@PAVioUIRenderImage@@@std@@QAEXPAPAVioUIRenderImage@@$$QAPAV3@@Z PROC ; std::allocator<ioUIRenderImage *>::construct, COMDAT
; _this$ = ecx

; 201  : 		{	// construct object at _Ptr with value _Val

  00000	55		 push	 ebp
  00001	8b ec		 mov	 ebp, esp

; 202  : 		::new ((void _FARQ *)_Ptr) _Ty(_STD forward<_Ty>(_Val));

  00003	8b 45 08	 mov	 eax, DWORD PTR __Ptr$[ebp]
  00006	85 c0		 test	 eax, eax
  00008	74 07		 je	 SHORT $LN3@construct
  0000a	8b 4d 0c	 mov	 ecx, DWORD PTR __Val$[ebp]
  0000d	8b 09		 mov	 ecx, DWORD PTR [ecx]
  0000f	89 08		 mov	 DWORD PTR [eax], ecx
$LN3@construct:

; 203  : 		}

  00011	5d		 pop	 ebp
  00012	c2 08 00	 ret	 8
?construct@?$allocator@PAVioUIRenderImage@@@std@@QAEXPAPAVioUIRenderImage@@$$QAPAV3@@Z ENDP ; std::allocator<ioUIRenderImage *>::construct
_TEXT	ENDS
PUBLIC	??$forward@AAPAUtagEventInfo@@@std@@YAAAPAUtagEventInfo@@AAPAU1@@Z ; std::forward<tagEventInfo * &>
; Function compile flags: /Ogsp
; File c:\program files (x86)\microsoft visual studio 10.0\vc\include\utility
;	COMDAT ??$forward@AAPAUtagEventInfo@@@std@@YAAAPAUtagEventInfo@@AAPAU1@@Z
_TEXT	SEGMENT
__Arg$ = 8						; size = 4
??$forward@AAPAUtagEventInfo@@@std@@YAAAPAUtagEventInfo@@AAPAU1@@Z PROC ; std::forward<tagEventInfo * &>, COMDAT

; 78   : 	{	// forward _Arg, given explicitly specified type parameter

  00000	55		 push	 ebp
  00001	8b ec		 mov	 ebp, esp

; 79   : 	return ((_Ty&&)_Arg);

  00003	8b 45 08	 mov	 eax, DWORD PTR __Arg$[ebp]

; 80   : 	}

  00006	5d		 pop	 ebp
  00007	c3		 ret	 0
??$forward@AAPAUtagEventInfo@@@std@@YAAAPAUtagEventInfo@@AAPAU1@@Z ENDP ; std::forward<tagEventInfo * &>
_TEXT	ENDS
PUBLIC	??$construct@AAPAUtagEventInfo@@@?$allocator@PAUtagEventInfo@@@std@@QAEXPAPAUtagEventInfo@@AAPAU2@@Z ; std::allocator<tagEventInfo *>::construct<tagEventInfo * &>
; Function compile flags: /Ogsp
; File c:\program files (x86)\microsoft visual studio 10.0\vc\include\xmemory
;	COMDAT ??$construct@AAPAUtagEventInfo@@@?$allocator@PAUtagEventInfo@@@std@@QAEXPAPAUtagEventInfo@@AAPAU2@@Z
_TEXT	SEGMENT
__Ptr$ = 8						; size = 4
__Val$ = 12						; size = 4
??$construct@AAPAUtagEventInfo@@@?$allocator@PAUtagEventInfo@@@std@@QAEXPAPAUtagEventInfo@@AAPAU2@@Z PROC ; std::allocator<tagEventInfo *>::construct<tagEventInfo * &>, COMDAT
; _this$ = ecx

; 206  : 		void construct(pointer _Ptr, _Other&& _Val)

  00000	55		 push	 ebp
  00001	8b ec		 mov	 ebp, esp

; 207  : 		{	// construct object at _Ptr with value _Val
; 208  : 		::new ((void _FARQ *)_Ptr) _Ty(_STD forward<_Other>(_Val));

  00003	8b 45 08	 mov	 eax, DWORD PTR __Ptr$[ebp]
  00006	85 c0		 test	 eax, eax
  00008	74 07		 je	 SHORT $LN3@construct@2
  0000a	8b 4d 0c	 mov	 ecx, DWORD PTR __Val$[ebp]
  0000d	8b 09		 mov	 ecx, DWORD PTR [ecx]
  0000f	89 08		 mov	 DWORD PTR [eax], ecx
$LN3@construct@2:

; 209  : 		}

  00011	5d		 pop	 ebp
  00012	c2 08 00	 ret	 8
??$construct@AAPAUtagEventInfo@@@?$allocator@PAUtagEventInfo@@@std@@QAEXPAPAUtagEventInfo@@AAPAU2@@Z ENDP ; std::allocator<tagEventInfo *>::construct<tagEventInfo * &>
_TEXT	ENDS
PUBLIC	??$forward@ABQAUtagEventInfo@@@std@@YAABQAUtagEventInfo@@ABQAU1@@Z ; std::forward<tagEventInfo * const &>
; Function compile flags: /Ogsp
; File c:\program files (x86)\microsoft visual studio 10.0\vc\include\utility
;	COMDAT ??$forward@ABQAUtagEventInfo@@@std@@YAABQAUtagEventInfo@@ABQAU1@@Z
_TEXT	SEGMENT
__Arg$ = 8						; size = 4
??$forward@ABQAUtagEventInfo@@@std@@YAABQAUtagEventInfo@@ABQAU1@@Z PROC ; std::forward<tagEventInfo * const &>, COMDAT

; 78   : 	{	// forward _Arg, given explicitly specified type parameter

  00000	55		 push	 ebp
  00001	8b ec		 mov	 ebp, esp

; 79   : 	return ((_Ty&&)_Arg);

  00003	8b 45 08	 mov	 eax, DWORD PTR __Arg$[ebp]

; 80   : 	}

  00006	5d		 pop	 ebp
  00007	c3		 ret	 0
??$forward@ABQAUtagEventInfo@@@std@@YAABQAUtagEventInfo@@ABQAU1@@Z ENDP ; std::forward<tagEventInfo * const &>
_TEXT	ENDS
PUBLIC	??$_Ptr_cat@PAUtagEventInfo@@PAU1@@std@@YA?AU_Scalar_ptr_iterator_tag@0@PAPAUtagEventInfo@@0@Z ; std::_Ptr_cat<tagEventInfo *,tagEventInfo *>
; Function compile flags: /Ogsp
; File c:\program files (x86)\microsoft visual studio 10.0\vc\include\xutility
;	COMDAT ??$_Ptr_cat@PAUtagEventInfo@@PAU1@@std@@YA?AU_Scalar_ptr_iterator_tag@0@PAPAUtagEventInfo@@0@Z
_TEXT	SEGMENT
__Cat$ = -1						; size = 1
___formal$ = 8						; size = 4
___formal$ = 12						; size = 4
??$_Ptr_cat@PAUtagEventInfo@@PAU1@@std@@YA?AU_Scalar_ptr_iterator_tag@0@PAPAUtagEventInfo@@0@Z PROC ; std::_Ptr_cat<tagEventInfo *,tagEventInfo *>, COMDAT

; 516  : 	{	// return pointer category from pointers

  00000	55		 push	 ebp
  00001	8b ec		 mov	 ebp, esp
  00003	51		 push	 ecx

; 517  : 	typename _Ptr_cat_helper<_Elem1, _Elem2>::_Type _Cat;
; 518  : 	return (_Cat);

  00004	8a 45 ff	 mov	 al, BYTE PTR __Cat$[ebp]

; 519  : 	}

  00007	c9		 leave
  00008	c3		 ret	 0
??$_Ptr_cat@PAUtagEventInfo@@PAU1@@std@@YA?AU_Scalar_ptr_iterator_tag@0@PAPAUtagEventInfo@@0@Z ENDP ; std::_Ptr_cat<tagEventInfo *,tagEventInfo *>
_TEXT	ENDS
PUBLIC	??$_Move@PAPAUtagEventInfo@@PAPAU1@@std@@YAPAPAUtagEventInfo@@PAPAU1@00U_Scalar_ptr_iterator_tag@0@@Z ; std::_Move<tagEventInfo * *,tagEventInfo * *>
EXTRN	__imp__memmove:PROC
; Function compile flags: /Ogsp
;	COMDAT ??$_Move@PAPAUtagEventInfo@@PAPAU1@@std@@YAPAPAUtagEventInfo@@PAPAU1@00U_Scalar_ptr_iterator_tag@0@@Z
_TEXT	SEGMENT
__First$ = 8						; size = 4
__Last$ = 12						; size = 4
__Dest$ = 16						; size = 4
___formal$ = 20						; size = 1
??$_Move@PAPAUtagEventInfo@@PAPAU1@@std@@YAPAPAUtagEventInfo@@PAPAU1@00U_Scalar_ptr_iterator_tag@0@@Z PROC ; std::_Move<tagEventInfo * *,tagEventInfo * *>, COMDAT

; 2522 : 	{	// move [_First, _Last) to [_Dest, ...), pointers to scalars

  00000	55		 push	 ebp
  00001	8b ec		 mov	 ebp, esp
  00003	56		 push	 esi

; 2523 : 	ptrdiff_t _Count = _Last - _First;

  00004	8b 75 0c	 mov	 esi, DWORD PTR __Last$[ebp]
  00007	2b 75 08	 sub	 esi, DWORD PTR __First$[ebp]
  0000a	57		 push	 edi

; 2524 : 	_CSTD memmove(&*_Dest, &*_First,
; 2525 : 		_Count * sizeof (*_First));

  0000b	8b 7d 10	 mov	 edi, DWORD PTR __Dest$[ebp]
  0000e	c1 fe 02	 sar	 esi, 2
  00011	c1 e6 02	 shl	 esi, 2
  00014	56		 push	 esi
  00015	ff 75 08	 push	 DWORD PTR __First$[ebp]
  00018	57		 push	 edi
  00019	ff 15 00 00 00
	00		 call	 DWORD PTR __imp__memmove
  0001f	83 c4 0c	 add	 esp, 12			; 0000000cH

; 2526 : 	return (_Dest + _Count);

  00022	8d 04 3e	 lea	 eax, DWORD PTR [esi+edi]
  00025	5f		 pop	 edi
  00026	5e		 pop	 esi

; 2527 : 	}

  00027	5d		 pop	 ebp
  00028	c3		 ret	 0
??$_Move@PAPAUtagEventInfo@@PAPAU1@@std@@YAPAPAUtagEventInfo@@PAPAU1@00U_Scalar_ptr_iterator_tag@0@@Z ENDP ; std::_Move<tagEventInfo * *,tagEventInfo * *>
_TEXT	ENDS
PUBLIC	??$_Ptr_cat@PAVioUIRenderImage@@PAV1@@std@@YA?AU_Scalar_ptr_iterator_tag@0@PAPAVioUIRenderImage@@0@Z ; std::_Ptr_cat<ioUIRenderImage *,ioUIRenderImage *>
; Function compile flags: /Ogsp
;	COMDAT ??$_Ptr_cat@PAVioUIRenderImage@@PAV1@@std@@YA?AU_Scalar_ptr_iterator_tag@0@PAPAVioUIRenderImage@@0@Z
_TEXT	SEGMENT
__Cat$ = -1						; size = 1
___formal$ = 8						; size = 4
___formal$ = 12						; size = 4
??$_Ptr_cat@PAVioUIRenderImage@@PAV1@@std@@YA?AU_Scalar_ptr_iterator_tag@0@PAPAVioUIRenderImage@@0@Z PROC ; std::_Ptr_cat<ioUIRenderImage *,ioUIRenderImage *>, COMDAT

; 516  : 	{	// return pointer category from pointers

  00000	55		 push	 ebp
  00001	8b ec		 mov	 ebp, esp
  00003	51		 push	 ecx

; 517  : 	typename _Ptr_cat_helper<_Elem1, _Elem2>::_Type _Cat;
; 518  : 	return (_Cat);

  00004	8a 45 ff	 mov	 al, BYTE PTR __Cat$[ebp]

; 519  : 	}

  00007	c9		 leave
  00008	c3		 ret	 0
??$_Ptr_cat@PAVioUIRenderImage@@PAV1@@std@@YA?AU_Scalar_ptr_iterator_tag@0@PAPAVioUIRenderImage@@0@Z ENDP ; std::_Ptr_cat<ioUIRenderImage *,ioUIRenderImage *>
_TEXT	ENDS
PUBLIC	??$_Move@PAPAVioUIRenderImage@@PAPAV1@@std@@YAPAPAVioUIRenderImage@@PAPAV1@00U_Scalar_ptr_iterator_tag@0@@Z ; std::_Move<ioUIRenderImage * *,ioUIRenderImage * *>
; Function compile flags: /Ogsp
;	COMDAT ??$_Move@PAPAVioUIRenderImage@@PAPAV1@@std@@YAPAPAVioUIRenderImage@@PAPAV1@00U_Scalar_ptr_iterator_tag@0@@Z
_TEXT	SEGMENT
__First$ = 8						; size = 4
__Last$ = 12						; size = 4
__Dest$ = 16						; size = 4
___formal$ = 20						; size = 1
??$_Move@PAPAVioUIRenderImage@@PAPAV1@@std@@YAPAPAVioUIRenderImage@@PAPAV1@00U_Scalar_ptr_iterator_tag@0@@Z PROC ; std::_Move<ioUIRenderImage * *,ioUIRenderImage * *>, COMDAT

; 2522 : 	{	// move [_First, _Last) to [_Dest, ...), pointers to scalars

  00000	55		 push	 ebp
  00001	8b ec		 mov	 ebp, esp
  00003	56		 push	 esi

; 2523 : 	ptrdiff_t _Count = _Last - _First;

  00004	8b 75 0c	 mov	 esi, DWORD PTR __Last$[ebp]
  00007	2b 75 08	 sub	 esi, DWORD PTR __First$[ebp]
  0000a	57		 push	 edi

; 2524 : 	_CSTD memmove(&*_Dest, &*_First,
; 2525 : 		_Count * sizeof (*_First));

  0000b	8b 7d 10	 mov	 edi, DWORD PTR __Dest$[ebp]
  0000e	c1 fe 02	 sar	 esi, 2
  00011	c1 e6 02	 shl	 esi, 2
  00014	56		 push	 esi
  00015	ff 75 08	 push	 DWORD PTR __First$[ebp]
  00018	57		 push	 edi
  00019	ff 15 00 00 00
	00		 call	 DWORD PTR __imp__memmove
  0001f	83 c4 0c	 add	 esp, 12			; 0000000cH

; 2526 : 	return (_Dest + _Count);

  00022	8d 04 3e	 lea	 eax, DWORD PTR [esi+edi]
  00025	5f		 pop	 edi
  00026	5e		 pop	 esi

; 2527 : 	}

  00027	5d		 pop	 ebp
  00028	c3		 ret	 0
??$_Move@PAPAVioUIRenderImage@@PAPAV1@@std@@YAPAPAVioUIRenderImage@@PAPAV1@00U_Scalar_ptr_iterator_tag@0@@Z ENDP ; std::_Move<ioUIRenderImage * *,ioUIRenderImage * *>
_TEXT	ENDS
PUBLIC	??$_Destroy_range@V?$allocator@PAUtagEventInfo@@@std@@@std@@YAXPAPAUtagEventInfo@@0AAV?$allocator@PAUtagEventInfo@@@0@U_Scalar_ptr_iterator_tag@0@@Z ; std::_Destroy_range<std::allocator<tagEventInfo *> >
; Function compile flags: /Ogsp
; File c:\program files (x86)\microsoft visual studio 10.0\vc\include\xmemory
;	COMDAT ??$_Destroy_range@V?$allocator@PAUtagEventInfo@@@std@@@std@@YAXPAPAUtagEventInfo@@0AAV?$allocator@PAUtagEventInfo@@@0@U_Scalar_ptr_iterator_tag@0@@Z
_TEXT	SEGMENT
__First$ = 8						; size = 4
__Last$ = 12						; size = 4
__Al$ = 16						; size = 4
___formal$ = 20						; size = 1
??$_Destroy_range@V?$allocator@PAUtagEventInfo@@@std@@@std@@YAXPAPAUtagEventInfo@@0AAV?$allocator@PAUtagEventInfo@@@0@U_Scalar_ptr_iterator_tag@0@@Z PROC ; std::_Destroy_range<std::allocator<tagEventInfo *> >, COMDAT

; 105  : 	}

  00000	c3		 ret	 0
??$_Destroy_range@V?$allocator@PAUtagEventInfo@@@std@@@std@@YAXPAPAUtagEventInfo@@0AAV?$allocator@PAUtagEventInfo@@@0@U_Scalar_ptr_iterator_tag@0@@Z ENDP ; std::_Destroy_range<std::allocator<tagEventInfo *> >
_TEXT	ENDS
PUBLIC	??$_Destroy_range@V?$allocator@PAVioUIRenderImage@@@std@@@std@@YAXPAPAVioUIRenderImage@@0AAV?$allocator@PAVioUIRenderImage@@@0@U_Scalar_ptr_iterator_tag@0@@Z ; std::_Destroy_range<std::allocator<ioUIRenderImage *> >
; Function compile flags: /Ogsp
;	COMDAT ??$_Destroy_range@V?$allocator@PAVioUIRenderImage@@@std@@@std@@YAXPAPAVioUIRenderImage@@0AAV?$allocator@PAVioUIRenderImage@@@0@U_Scalar_ptr_iterator_tag@0@@Z
_TEXT	SEGMENT
__First$ = 8						; size = 4
__Last$ = 12						; size = 4
__Al$ = 16						; size = 4
___formal$ = 20						; size = 1
??$_Destroy_range@V?$allocator@PAVioUIRenderImage@@@std@@@std@@YAXPAPAVioUIRenderImage@@0AAV?$allocator@PAVioUIRenderImage@@@0@U_Scalar_ptr_iterator_tag@0@@Z PROC ; std::_Destroy_range<std::allocator<ioUIRenderImage *> >, COMDAT

; 105  : 	}

  00000	c3		 ret	 0
??$_Destroy_range@V?$allocator@PAVioUIRenderImage@@@std@@@std@@YAXPAPAVioUIRenderImage@@0AAV?$allocator@PAVioUIRenderImage@@@0@U_Scalar_ptr_iterator_tag@0@@Z ENDP ; std::_Destroy_range<std::allocator<ioUIRenderImage *> >
_TEXT	ENDS
PUBLIC	??$_Construct@PAUtagEventInfo@@ABQAU1@@std@@YAXPAPAUtagEventInfo@@ABQAU1@@Z ; std::_Construct<tagEventInfo *,tagEventInfo * const &>
; Function compile flags: /Ogsp
;	COMDAT ??$_Construct@PAUtagEventInfo@@ABQAU1@@std@@YAXPAPAUtagEventInfo@@ABQAU1@@Z
_TEXT	SEGMENT
__Ptr$ = 8						; size = 4
__Val$ = 12						; size = 4
??$_Construct@PAUtagEventInfo@@ABQAU1@@std@@YAXPAPAUtagEventInfo@@ABQAU1@@Z PROC ; std::_Construct<tagEventInfo *,tagEventInfo * const &>, COMDAT

; 46   : 	{	// construct object at _Ptr with value _Val

  00000	55		 push	 ebp
  00001	8b ec		 mov	 ebp, esp

; 47   : 	void _FARQ *_Vptr = _Ptr;
; 48   : 	::new (_Vptr) _Ty1(_STD forward<_Ty2>(_Val));

  00003	8b 45 08	 mov	 eax, DWORD PTR __Ptr$[ebp]
  00006	85 c0		 test	 eax, eax
  00008	74 07		 je	 SHORT $LN3@Construct
  0000a	8b 4d 0c	 mov	 ecx, DWORD PTR __Val$[ebp]
  0000d	8b 09		 mov	 ecx, DWORD PTR [ecx]
  0000f	89 08		 mov	 DWORD PTR [eax], ecx
$LN3@Construct:

; 49   : 	}

  00011	5d		 pop	 ebp
  00012	c3		 ret	 0
??$_Construct@PAUtagEventInfo@@ABQAU1@@std@@YAXPAPAUtagEventInfo@@ABQAU1@@Z ENDP ; std::_Construct<tagEventInfo *,tagEventInfo * const &>
_TEXT	ENDS
PUBLIC	??$_Val_type@PAPAUtagEventInfo@@@std@@YAPAPAUtagEventInfo@@PAPAU1@@Z ; std::_Val_type<tagEventInfo * *>
; Function compile flags: /Ogsp
; File c:\program files (x86)\microsoft visual studio 10.0\vc\include\xutility
;	COMDAT ??$_Val_type@PAPAUtagEventInfo@@@std@@YAPAPAUtagEventInfo@@PAPAU1@@Z
_TEXT	SEGMENT
___formal$ = 8						; size = 4
??$_Val_type@PAPAUtagEventInfo@@@std@@YAPAPAUtagEventInfo@@PAPAU1@@Z PROC ; std::_Val_type<tagEventInfo * *>, COMDAT

; 790  : 	return (0);

  00000	33 c0		 xor	 eax, eax

; 791  : 	}

  00002	c3		 ret	 0
??$_Val_type@PAPAUtagEventInfo@@@std@@YAPAPAUtagEventInfo@@PAPAU1@@Z ENDP ; std::_Val_type<tagEventInfo * *>
_TEXT	ENDS
PUBLIC	??$_Uninit_move@PAUtagEventInfo@@PAU1@PAU1@@std@@YAPAPAUtagEventInfo@@PAPAU1@00AAV?$allocator@PAUtagEventInfo@@@0@0U_Scalar_ptr_iterator_tag@0@@Z ; std::_Uninit_move<tagEventInfo *,tagEventInfo *,tagEventInfo *>
; Function compile flags: /Ogsp
; File c:\program files (x86)\microsoft visual studio 10.0\vc\include\memory
;	COMDAT ??$_Uninit_move@PAUtagEventInfo@@PAU1@PAU1@@std@@YAPAPAUtagEventInfo@@PAPAU1@00AAV?$allocator@PAUtagEventInfo@@@0@0U_Scalar_ptr_iterator_tag@0@@Z
_TEXT	SEGMENT
__First$ = 8						; size = 4
__Last$ = 12						; size = 4
__Dest$ = 16						; size = 4
___formal$ = 20						; size = 4
___formal$ = 24						; size = 4
___formal$ = 28						; size = 1
??$_Uninit_move@PAUtagEventInfo@@PAU1@PAU1@@std@@YAPAPAUtagEventInfo@@PAPAU1@00AAV?$allocator@PAUtagEventInfo@@@0@0U_Scalar_ptr_iterator_tag@0@@Z PROC ; std::_Uninit_move<tagEventInfo *,tagEventInfo *,tagEventInfo *>, COMDAT

; 456  : 	{	// move [_First, _Last) to raw _Dest, scalar type

  00000	55		 push	 ebp
  00001	8b ec		 mov	 ebp, esp
  00003	56		 push	 esi

; 457  : 	_DEBUG_RANGE(_First, _Last);
; 458  : 	_DEBUG_POINTER(_Dest);
; 459  : 	size_t _Count = (size_t)(_Last - _First);

  00004	8b 75 0c	 mov	 esi, DWORD PTR __Last$[ebp]
  00007	2b 75 08	 sub	 esi, DWORD PTR __First$[ebp]
  0000a	c1 fe 02	 sar	 esi, 2

; 460  : 	return ((_Ty2 *)_CSTD memmove(&*_Dest, &*_First,
; 461  : 		_Count * sizeof (*_First)) + _Count);	// NB: non-overlapping move

  0000d	c1 e6 02	 shl	 esi, 2
  00010	56		 push	 esi
  00011	ff 75 08	 push	 DWORD PTR __First$[ebp]
  00014	ff 75 10	 push	 DWORD PTR __Dest$[ebp]
  00017	ff 15 00 00 00
	00		 call	 DWORD PTR __imp__memmove
  0001d	83 c4 0c	 add	 esp, 12			; 0000000cH
  00020	03 c6		 add	 eax, esi
  00022	5e		 pop	 esi

; 462  : 	}

  00023	5d		 pop	 ebp
  00024	c3		 ret	 0
??$_Uninit_move@PAUtagEventInfo@@PAU1@PAU1@@std@@YAPAPAUtagEventInfo@@PAPAU1@00AAV?$allocator@PAUtagEventInfo@@@0@0U_Scalar_ptr_iterator_tag@0@@Z ENDP ; std::_Uninit_move<tagEventInfo *,tagEventInfo *,tagEventInfo *>
_TEXT	ENDS
PUBLIC	??$_Val_type@PAPAVioUIRenderImage@@@std@@YAPAPAVioUIRenderImage@@PAPAV1@@Z ; std::_Val_type<ioUIRenderImage * *>
; Function compile flags: /Ogsp
; File c:\program files (x86)\microsoft visual studio 10.0\vc\include\xutility
;	COMDAT ??$_Val_type@PAPAVioUIRenderImage@@@std@@YAPAPAVioUIRenderImage@@PAPAV1@@Z
_TEXT	SEGMENT
___formal$ = 8						; size = 4
??$_Val_type@PAPAVioUIRenderImage@@@std@@YAPAPAVioUIRenderImage@@PAPAV1@@Z PROC ; std::_Val_type<ioUIRenderImage * *>, COMDAT

; 790  : 	return (0);

  00000	33 c0		 xor	 eax, eax

; 791  : 	}

  00002	c3		 ret	 0
??$_Val_type@PAPAVioUIRenderImage@@@std@@YAPAPAVioUIRenderImage@@PAPAV1@@Z ENDP ; std::_Val_type<ioUIRenderImage * *>
_TEXT	ENDS
PUBLIC	??$_Uninit_move@PAVioUIRenderImage@@PAV1@PAV1@@std@@YAPAPAVioUIRenderImage@@PAPAV1@00AAV?$allocator@PAVioUIRenderImage@@@0@0U_Scalar_ptr_iterator_tag@0@@Z ; std::_Uninit_move<ioUIRenderImage *,ioUIRenderImage *,ioUIRenderImage *>
; Function compile flags: /Ogsp
; File c:\program files (x86)\microsoft visual studio 10.0\vc\include\memory
;	COMDAT ??$_Uninit_move@PAVioUIRenderImage@@PAV1@PAV1@@std@@YAPAPAVioUIRenderImage@@PAPAV1@00AAV?$allocator@PAVioUIRenderImage@@@0@0U_Scalar_ptr_iterator_tag@0@@Z
_TEXT	SEGMENT
__First$ = 8						; size = 4
__Last$ = 12						; size = 4
__Dest$ = 16						; size = 4
___formal$ = 20						; size = 4
___formal$ = 24						; size = 4
___formal$ = 28						; size = 1
??$_Uninit_move@PAVioUIRenderImage@@PAV1@PAV1@@std@@YAPAPAVioUIRenderImage@@PAPAV1@00AAV?$allocator@PAVioUIRenderImage@@@0@0U_Scalar_ptr_iterator_tag@0@@Z PROC ; std::_Uninit_move<ioUIRenderImage *,ioUIRenderImage *,ioUIRenderImage *>, COMDAT

; 456  : 	{	// move [_First, _Last) to raw _Dest, scalar type

  00000	55		 push	 ebp
  00001	8b ec		 mov	 ebp, esp
  00003	56		 push	 esi

; 457  : 	_DEBUG_RANGE(_First, _Last);
; 458  : 	_DEBUG_POINTER(_Dest);
; 459  : 	size_t _Count = (size_t)(_Last - _First);

  00004	8b 75 0c	 mov	 esi, DWORD PTR __Last$[ebp]
  00007	2b 75 08	 sub	 esi, DWORD PTR __First$[ebp]
  0000a	c1 fe 02	 sar	 esi, 2

; 460  : 	return ((_Ty2 *)_CSTD memmove(&*_Dest, &*_First,
; 461  : 		_Count * sizeof (*_First)) + _Count);	// NB: non-overlapping move

  0000d	c1 e6 02	 shl	 esi, 2
  00010	56		 push	 esi
  00011	ff 75 08	 push	 DWORD PTR __First$[ebp]
  00014	ff 75 10	 push	 DWORD PTR __Dest$[ebp]
  00017	ff 15 00 00 00
	00		 call	 DWORD PTR __imp__memmove
  0001d	83 c4 0c	 add	 esp, 12			; 0000000cH
  00020	03 c6		 add	 eax, esi
  00022	5e		 pop	 esi

; 462  : 	}

  00023	5d		 pop	 ebp
  00024	c3		 ret	 0
??$_Uninit_move@PAVioUIRenderImage@@PAV1@PAV1@@std@@YAPAPAVioUIRenderImage@@PAPAV1@00AAV?$allocator@PAVioUIRenderImage@@@0@0U_Scalar_ptr_iterator_tag@0@@Z ENDP ; std::_Uninit_move<ioUIRenderImage *,ioUIRenderImage *,ioUIRenderImage *>
; Function compile flags: /Ogsp
; File c:\program files (x86)\microsoft sdks\windows\v7.0a\include\strsafe.h
_TEXT	ENDS
;	COMDAT ?StringValidateDestA@@YGJPBDII@Z
_TEXT	SEGMENT
_cchMax$ = 8						; size = 4
?StringValidateDestA@@YGJPBDII@Z PROC			; StringValidateDestA, COMDAT
; _cchDest$ = ecx

; 8721 : {

  00000	55		 push	 ebp
  00001	8b ec		 mov	 ebp, esp

; 8722 :     HRESULT hr = S_OK;

  00003	33 c0		 xor	 eax, eax

; 8723 : 
; 8724 :     if ((cchDest == 0) || (cchDest > cchMax))

  00005	85 c9		 test	 ecx, ecx
  00007	74 05		 je	 SHORT $LN1@StringVali
  00009	3b 4d 08	 cmp	 ecx, DWORD PTR _cchMax$[ebp]
  0000c	76 05		 jbe	 SHORT $LN2@StringVali
$LN1@StringVali:

; 8725 :     {
; 8726 :         hr = STRSAFE_E_INVALID_PARAMETER;

  0000e	b8 57 00 07 80	 mov	 eax, -2147024809	; 80070057H
$LN2@StringVali:

; 8727 :     }
; 8728 : 
; 8729 :     return hr;
; 8730 : }

  00013	5d		 pop	 ebp
  00014	c2 04 00	 ret	 4
?StringValidateDestA@@YGJPBDII@Z ENDP			; StringValidateDestA
_TEXT	ENDS
EXTRN	__imp___vsnprintf:PROC
; Function compile flags: /Ogsp
;	COMDAT ?StringVPrintfWorkerA@@YGJPADIPAIPBD0@Z
_TEXT	SEGMENT
_pcchNewDestLength$ = 8					; size = 4
_pszFormat$ = 12					; size = 4
_argList$ = 16						; size = 4
?StringVPrintfWorkerA@@YGJPADIPAIPBD0@Z PROC		; StringVPrintfWorkerA, COMDAT
; _pszDest$ = edi
; _cchDest$ = eax

; 9029 : {

  00000	55		 push	 ebp
  00001	8b ec		 mov	 ebp, esp
  00003	53		 push	 ebx
  00004	56		 push	 esi

; 9030 :     HRESULT hr = S_OK;
; 9031 :     int iRet;
; 9032 :     size_t cchMax;
; 9033 :     size_t cchNewDestLength = 0;
; 9034 : 
; 9035 :     // leave the last space for the null terminator
; 9036 :     cchMax = cchDest - 1;
; 9037 : 
; 9038 : #if (STRSAFE_USE_SECURE_CRT == 1) && !defined(STRSAFE_LIB_IMPL)
; 9039 :     iRet = _vsnprintf_s(pszDest, cchDest, cchMax, pszFormat, argList);
; 9040 : #else
; 9041 :     #pragma warning(push)
; 9042 :     #pragma warning(disable: __WARNING_BANNED_API_USAGE)// "STRSAFE not included"
; 9043 :     iRet = _vsnprintf(pszDest, cchMax, pszFormat, argList);

  00005	ff 75 10	 push	 DWORD PTR _argList$[ebp]
  00008	8d 70 ff	 lea	 esi, DWORD PTR [eax-1]
  0000b	ff 75 0c	 push	 DWORD PTR _pszFormat$[ebp]
  0000e	33 db		 xor	 ebx, ebx
  00010	56		 push	 esi
  00011	57		 push	 edi
  00012	ff 15 00 00 00
	00		 call	 DWORD PTR __imp___vsnprintf
  00018	83 c4 10	 add	 esp, 16			; 00000010H

; 9044 :     #pragma warning(pop)
; 9045 : #endif
; 9046 :     // ASSERT((iRet < 0) || (((size_t)iRet) <= cchMax));
; 9047 : 
; 9048 :     if ((iRet < 0) || (((size_t)iRet) > cchMax))

  0001b	85 c0		 test	 eax, eax
  0001d	78 0b		 js	 SHORT $LN5@StringVPri
  0001f	3b c6		 cmp	 eax, esi
  00021	77 07		 ja	 SHORT $LN5@StringVPri

; 9058 :     }
; 9059 :     else if (((size_t)iRet) == cchMax)

  00023	75 0f		 jne	 SHORT $LN2@StringVPri

; 9060 :     {
; 9061 :         // need to null terminate the string
; 9062 :         pszDest += cchMax;
; 9063 :         *pszDest = '\0';

  00025	88 1c 3e	 mov	 BYTE PTR [esi+edi], bl

; 9064 : 
; 9065 :         cchNewDestLength = cchMax;
; 9066 :     }
; 9067 :     else

  00028	eb 08		 jmp	 SHORT $LN9@StringVPri
$LN5@StringVPri:

; 9049 :     {
; 9050 :         // need to null terminate the string
; 9051 :         pszDest += cchMax;
; 9052 :         *pszDest = '\0';

  0002a	88 1c 3e	 mov	 BYTE PTR [esi+edi], bl

; 9055 : 
; 9056 :         // we have truncated pszDest
; 9057 :         hr = STRSAFE_E_INSUFFICIENT_BUFFER;

  0002d	bb 7a 00 07 80	 mov	 ebx, -2147024774	; 8007007aH
$LN9@StringVPri:

; 9053 : 
; 9054 :         cchNewDestLength = cchMax;

  00032	8b c6		 mov	 eax, esi
$LN2@StringVPri:

; 9068 :     {
; 9069 :         cchNewDestLength = (size_t)iRet;
; 9070 :     }
; 9071 : 
; 9072 :     if (pcchNewDestLength)

  00034	8b 4d 08	 mov	 ecx, DWORD PTR _pcchNewDestLength$[ebp]
  00037	85 c9		 test	 ecx, ecx
  00039	74 02		 je	 SHORT $LN1@StringVPri

; 9073 :     {
; 9074 :         *pcchNewDestLength = cchNewDestLength;

  0003b	89 01		 mov	 DWORD PTR [ecx], eax
$LN1@StringVPri:
  0003d	5e		 pop	 esi

; 9075 :     }
; 9076 : 
; 9077 :     return hr;

  0003e	8b c3		 mov	 eax, ebx
  00040	5b		 pop	 ebx

; 9078 : }

  00041	5d		 pop	 ebp
  00042	c2 0c 00	 ret	 12			; 0000000cH
?StringVPrintfWorkerA@@YGJPADIPAIPBD0@Z ENDP		; StringVPrintfWorkerA
_TEXT	ENDS
PUBLIC	?_DECSTR@@YAXPADH@Z				; _DECSTR
; Function compile flags: /Ogsp
; File d:\lost saga for developer\youtube\tutorial\source\src\lsclient\stringprotect.h
;	COMDAT ?_DECSTR@@YAXPADH@Z
_TEXT	SEGMENT
_s$ = 8							; size = 4
_l$ = 12						; size = 4
?_DECSTR@@YAXPADH@Z PROC				; _DECSTR, COMDAT

; 40   : __forceinline void _DECSTR(char* s, int l){int i=0,l4=(l-1)/4,*p=(int*)s;s[l-1]=0;for(;i<l4;++i)*(p++)^=0xEAEBECED;for(i=l4*4;i<l-1;++i)s[i]^=0xED-i%4;}

  00000	55		 push	 ebp
  00001	8b ec		 mov	 ebp, esp
  00003	8b 4d 0c	 mov	 ecx, DWORD PTR _l$[ebp]
  00006	56		 push	 esi
  00007	8b 75 08	 mov	 esi, DWORD PTR _s$[ebp]
  0000a	57		 push	 edi
  0000b	8d 79 ff	 lea	 edi, DWORD PTR [ecx-1]
  0000e	8b c7		 mov	 eax, edi
  00010	99		 cdq
  00011	83 e2 03	 and	 edx, 3
  00014	03 c2		 add	 eax, edx
  00016	c1 f8 02	 sar	 eax, 2
  00019	8b d6		 mov	 edx, esi
  0001b	c6 44 0e ff 00	 mov	 BYTE PTR [esi+ecx-1], 0
  00020	85 c0		 test	 eax, eax
  00022	7e 0e		 jle	 SHORT $LN4@DECSTR
  00024	8b c8		 mov	 ecx, eax
$LL6@DECSTR:
  00026	81 32 ed ec eb
	ea		 xor	 DWORD PTR [edx], -353637139 ; eaebecedH
  0002c	83 c2 04	 add	 edx, 4
  0002f	49		 dec	 ecx
  00030	75 f4		 jne	 SHORT $LL6@DECSTR
$LN4@DECSTR:
  00032	c1 e0 02	 shl	 eax, 2
  00035	eb 17		 jmp	 SHORT $LN14@DECSTR
$LL3@DECSTR:
  00037	8b c8		 mov	 ecx, eax
  00039	81 e1 03 00 00
	80		 and	 ecx, -2147483645	; 80000003H
  0003f	79 05		 jns	 SHORT $LN13@DECSTR
  00041	49		 dec	 ecx
  00042	83 c9 fc	 or	 ecx, -4			; fffffffcH
  00045	41		 inc	 ecx
$LN13@DECSTR:
  00046	b2 ed		 mov	 dl, -19			; ffffffedH
  00048	2a d1		 sub	 dl, cl
  0004a	30 14 30	 xor	 BYTE PTR [eax+esi], dl
  0004d	40		 inc	 eax
$LN14@DECSTR:
  0004e	3b c7		 cmp	 eax, edi
  00050	7c e5		 jl	 SHORT $LL3@DECSTR
  00052	5f		 pop	 edi
  00053	5e		 pop	 esi
  00054	5d		 pop	 ebp
  00055	c3		 ret	 0
?_DECSTR@@YAXPADH@Z ENDP				; _DECSTR
_TEXT	ENDS
PUBLIC	?FullScreen@Setting@@SA_NXZ			; Setting::FullScreen
EXTRN	?m_Option@Setting@@1USettingOption@@A:BYTE	; Setting::m_Option
; Function compile flags: /Ogsp
; File d:\lost saga for developer\youtube\tutorial\source\src\lsclient\setting.h
;	COMDAT ?FullScreen@Setting@@SA_NXZ
_TEXT	SEGMENT
?FullScreen@Setting@@SA_NXZ PROC			; Setting::FullScreen, COMDAT

; 408  : 	static bool FullScreen() { return m_Option.m_bFullScreen; }

  00000	a0 00 00 00 00	 mov	 al, BYTE PTR ?m_Option@Setting@@1USettingOption@@A
  00005	c3		 ret	 0
?FullScreen@Setting@@SA_NXZ ENDP			; Setting::FullScreen
_TEXT	ENDS
PUBLIC	?GetChatFontScale@ioSP2ChatManager@@QAEMXZ	; ioSP2ChatManager::GetChatFontScale
; Function compile flags: /Ogsp
; File d:\lost saga for developer\youtube\tutorial\source\src\lsclient\chatmessagefunc.h
;	COMDAT ?GetChatFontScale@ioSP2ChatManager@@QAEMXZ
_TEXT	SEGMENT
?GetChatFontScale@ioSP2ChatManager@@QAEMXZ PROC		; ioSP2ChatManager::GetChatFontScale, COMDAT
; _this$ = ecx

; 326  : 	inline float GetChatFontScale(){ return m_fChatFontScale; }

  00000	d9 81 74 04 00
	00		 fld	 DWORD PTR [ecx+1140]
  00006	c3		 ret	 0
?GetChatFontScale@ioSP2ChatManager@@QAEMXZ ENDP		; ioSP2ChatManager::GetChatFontScale
_TEXT	ENDS
PUBLIC	?GetHWnd@ioApplication@@QBEPAUHWND__@@XZ	; ioApplication::GetHWnd
; Function compile flags: /Ogsp
; File d:\lost saga for developer\youtube\tutorial\source\src\lsclient\ioapplication.h
;	COMDAT ?GetHWnd@ioApplication@@QBEPAUHWND__@@XZ
_TEXT	SEGMENT
?GetHWnd@ioApplication@@QBEPAUHWND__@@XZ PROC		; ioApplication::GetHWnd, COMDAT
; _this$ = ecx

; 686  : 	HWND GetHWnd() const { return m_hWnd; }

  00000	8b 41 08	 mov	 eax, DWORD PTR [ecx+8]
  00003	c3		 ret	 0
?GetHWnd@ioApplication@@QBEPAUHWND__@@XZ ENDP		; ioApplication::GetHWnd
_TEXT	ENDS
PUBLIC	?GetIconName@ioEtcItem@@QBEABVioHashString@@XZ	; ioEtcItem::GetIconName
; Function compile flags: /Ogsp
; File d:\lost saga for developer\youtube\tutorial\source\src\lsclient\ioetcitem.h
;	COMDAT ?GetIconName@ioEtcItem@@QBEABVioHashString@@XZ
_TEXT	SEGMENT
?GetIconName@ioEtcItem@@QBEABVioHashString@@XZ PROC	; ioEtcItem::GetIconName, COMDAT
; _this$ = ecx

; 467  : 	inline const ioHashString& GetIconName() const { return m_IconName; }

  00000	8d 81 60 01 00
	00		 lea	 eax, DWORD PTR [ecx+352]
  00006	c3		 ret	 0
?GetIconName@ioEtcItem@@QBEABVioHashString@@XZ ENDP	; ioEtcItem::GetIconName
_TEXT	ENDS
PUBLIC	?GetPublicID@ioMyInfo@@QBEABVioHashString@@XZ	; ioMyInfo::GetPublicID
; Function compile flags: /Ogsp
; File d:\lost saga for developer\youtube\tutorial\source\src\lsclient\iomyinfo.h
;	COMDAT ?GetPublicID@ioMyInfo@@QBEABVioHashString@@XZ
_TEXT	SEGMENT
?GetPublicID@ioMyInfo@@QBEABVioHashString@@XZ PROC	; ioMyInfo::GetPublicID, COMDAT
; _this$ = ecx

; 517  : 	const ioHashString& GetPublicID() const { return m_user_data.m_public_id; }    

  00000	8d 41 1c	 lea	 eax, DWORD PTR [ecx+28]
  00003	c3		 ret	 0
?GetPublicID@ioMyInfo@@QBEABVioHashString@@XZ ENDP	; ioMyInfo::GetPublicID
_TEXT	ENDS
PUBLIC	?GetSelectCharArray@ioMyInfo@@QBEHXZ		; ioMyInfo::GetSelectCharArray
; Function compile flags: /Ogsp
;	COMDAT ?GetSelectCharArray@ioMyInfo@@QBEHXZ
_TEXT	SEGMENT
?GetSelectCharArray@ioMyInfo@@QBEHXZ PROC		; ioMyInfo::GetSelectCharArray, COMDAT
; _this$ = ecx

; 613  : 	int  GetSelectCharArray() const { return m_select_char_array; }

  00000	8b 81 c8 00 00
	00		 mov	 eax, DWORD PTR [ecx+200]
  00006	c3		 ret	 0
?GetSelectCharArray@ioMyInfo@@QBEHXZ ENDP		; ioMyInfo::GetSelectCharArray
_TEXT	ENDS
PUBLIC	?GetPCRoomAuthority@ioMyInfo@@QAEKXZ		; ioMyInfo::GetPCRoomAuthority
; Function compile flags: /Ogsp
;	COMDAT ?GetPCRoomAuthority@ioMyInfo@@QAEKXZ
_TEXT	SEGMENT
?GetPCRoomAuthority@ioMyInfo@@QAEKXZ PROC		; ioMyInfo::GetPCRoomAuthority, COMDAT
; _this$ = ecx

; 836  : 	DWORD GetPCRoomAuthority(){ return m_dwPCRoomAuthority; }

  00000	8b 81 34 08 00
	00		 mov	 eax, DWORD PTR [ecx+2100]
  00006	c3		 ret	 0
?GetPCRoomAuthority@ioMyInfo@@QAEKXZ ENDP		; ioMyInfo::GetPCRoomAuthority
_TEXT	ENDS
PUBLIC	?IsUserEvent@ioMyInfo@@QAE_NXZ			; ioMyInfo::IsUserEvent
; Function compile flags: /Ogsp
;	COMDAT ?IsUserEvent@ioMyInfo@@QAE_NXZ
_TEXT	SEGMENT
?IsUserEvent@ioMyInfo@@QAE_NXZ PROC			; ioMyInfo::IsUserEvent, COMDAT
; _this$ = ecx

; 838  : 	bool IsUserEvent() { return m_bUserHeroEvent; }

  00000	8a 81 39 08 00
	00		 mov	 al, BYTE PTR [ecx+2105]
  00006	c3		 ret	 0
?IsUserEvent@ioMyInfo@@QAE_NXZ ENDP			; ioMyInfo::IsUserEvent
_TEXT	ENDS
PUBLIC	?GetServerDate@ioMyInfo@@QBEAB_JXZ		; ioMyInfo::GetServerDate
; Function compile flags: /Ogsp
;	COMDAT ?GetServerDate@ioMyInfo@@QBEAB_JXZ
_TEXT	SEGMENT
?GetServerDate@ioMyInfo@@QBEAB_JXZ PROC			; ioMyInfo::GetServerDate, COMDAT
; _this$ = ecx

; 995  : 	inline const time_t &GetServerDate() const { return m_iServerDate; } 

  00000	8d 81 30 09 00
	00		 lea	 eax, DWORD PTR [ecx+2352]
  00006	c3		 ret	 0
?GetServerDate@ioMyInfo@@QBEAB_JXZ ENDP			; ioMyInfo::GetServerDate
_TEXT	ENDS
PUBLIC	?size@?$vector@HV?$allocator@H@std@@@std@@QBEIXZ ; std::vector<int,std::allocator<int> >::size
; Function compile flags: /Ogsp
; File c:\program files (x86)\microsoft visual studio 10.0\vc\include\vector
;	COMDAT ?size@?$vector@HV?$allocator@H@std@@@std@@QBEIXZ
_TEXT	SEGMENT
?size@?$vector@HV?$allocator@H@std@@@std@@QBEIXZ PROC	; std::vector<int,std::allocator<int> >::size, COMDAT
; _this$ = ecx

; 879  : 		return (this->_Mylast - this->_Myfirst);

  00000	8b 41 04	 mov	 eax, DWORD PTR [ecx+4]
  00003	2b 01		 sub	 eax, DWORD PTR [ecx]
  00005	c1 f8 02	 sar	 eax, 2

; 880  : 		}

  00008	c3		 ret	 0
?size@?$vector@HV?$allocator@H@std@@@std@@QBEIXZ ENDP	; std::vector<int,std::allocator<int> >::size
_TEXT	ENDS
PUBLIC	??A?$vector@HV?$allocator@H@std@@@std@@QAEAAHI@Z ; std::vector<int,std::allocator<int> >::operator[]
; Function compile flags: /Ogsp
;	COMDAT ??A?$vector@HV?$allocator@H@std@@@std@@QAEAAHI@Z
_TEXT	SEGMENT
__Pos$ = 8						; size = 4
??A?$vector@HV?$allocator@H@std@@@std@@QAEAAHI@Z PROC	; std::vector<int,std::allocator<int> >::operator[], COMDAT
; _this$ = ecx

; 928  : 		{	// subscript mutable sequence

  00000	55		 push	 ebp
  00001	8b ec		 mov	 ebp, esp

; 929  :  #if _ITERATOR_DEBUG_LEVEL == 2
; 930  : 		if (size() <= _Pos)
; 931  : 			{	// report error
; 932  : 			_DEBUG_ERROR("vector subscript out of range");
; 933  : 			_SCL_SECURE_OUT_OF_RANGE;
; 934  : 			}
; 935  : 
; 936  :  #elif _ITERATOR_DEBUG_LEVEL == 1
; 937  : 		_SCL_SECURE_VALIDATE_RANGE(_Pos < size());
; 938  :  #endif /* _ITERATOR_DEBUG_LEVEL */
; 939  : 
; 940  : 		return (*(this->_Myfirst + _Pos));

  00003	8b 01		 mov	 eax, DWORD PTR [ecx]
  00005	8b 4d 08	 mov	 ecx, DWORD PTR __Pos$[ebp]
  00008	8d 04 88	 lea	 eax, DWORD PTR [eax+ecx*4]

; 941  : 		}

  0000b	5d		 pop	 ebp
  0000c	c2 04 00	 ret	 4
??A?$vector@HV?$allocator@H@std@@@std@@QAEAAHI@Z ENDP	; std::vector<int,std::allocator<int> >::operator[]
_TEXT	ENDS
PUBLIC	?size@?$vector@PAUPriceData@ioClassPrice@@V?$allocator@PAUPriceData@ioClassPrice@@@std@@@std@@QBEIXZ ; std::vector<ioClassPrice::PriceData *,std::allocator<ioClassPrice::PriceData *> >::size
; Function compile flags: /Ogsp
;	COMDAT ?size@?$vector@PAUPriceData@ioClassPrice@@V?$allocator@PAUPriceData@ioClassPrice@@@std@@@std@@QBEIXZ
_TEXT	SEGMENT
?size@?$vector@PAUPriceData@ioClassPrice@@V?$allocator@PAUPriceData@ioClassPrice@@@std@@@std@@QBEIXZ PROC ; std::vector<ioClassPrice::PriceData *,std::allocator<ioClassPrice::PriceData *> >::size, COMDAT
; _this$ = ecx

; 879  : 		return (this->_Mylast - this->_Myfirst);

  00000	8b 41 04	 mov	 eax, DWORD PTR [ecx+4]
  00003	2b 01		 sub	 eax, DWORD PTR [ecx]
  00005	c1 f8 02	 sar	 eax, 2

; 880  : 		}

  00008	c3		 ret	 0
?size@?$vector@PAUPriceData@ioClassPrice@@V?$allocator@PAUPriceData@ioClassPrice@@@std@@@std@@QBEIXZ ENDP ; std::vector<ioClassPrice::PriceData *,std::allocator<ioClassPrice::PriceData *> >::size
_TEXT	ENDS
PUBLIC	??0?$allocator@H@std@@QAE@XZ			; std::allocator<int>::allocator<int>
; Function compile flags: /Ogsp
; File c:\program files (x86)\microsoft visual studio 10.0\vc\include\xmemory
;	COMDAT ??0?$allocator@H@std@@QAE@XZ
_TEXT	SEGMENT
??0?$allocator@H@std@@QAE@XZ PROC			; std::allocator<int>::allocator<int>, COMDAT
; _this$ = ecx

; 161  : 	_ALLOCATOR() _THROW0()

  00000	8b c1		 mov	 eax, ecx

; 162  : 		{	// construct default allocator (do nothing)
; 163  : 		}

  00002	c3		 ret	 0
??0?$allocator@H@std@@QAE@XZ ENDP			; std::allocator<int>::allocator<int>
_TEXT	ENDS
PUBLIC	??1?$_Vector_val@HV?$allocator@H@std@@@std@@QAE@XZ ; std::_Vector_val<int,std::allocator<int> >::~_Vector_val<int,std::allocator<int> >
; Function compile flags: /Ogsp
; File c:\program files (x86)\microsoft visual studio 10.0\vc\include\vector
;	COMDAT ??1?$_Vector_val@HV?$allocator@H@std@@@std@@QAE@XZ
_TEXT	SEGMENT
??1?$_Vector_val@HV?$allocator@H@std@@@std@@QAE@XZ PROC	; std::_Vector_val<int,std::allocator<int> >::~_Vector_val<int,std::allocator<int> >, COMDAT
; _this$ = ecx

; 434  : 		}

  00000	c3		 ret	 0
??1?$_Vector_val@HV?$allocator@H@std@@@std@@QAE@XZ ENDP	; std::_Vector_val<int,std::allocator<int> >::~_Vector_val<int,std::allocator<int> >
_TEXT	ENDS
PUBLIC	??0?$_Vector_const_iterator@V?$_Vector_val@HV?$allocator@H@std@@@std@@@std@@QAE@PAHPBU_Container_base0@1@@Z ; std::_Vector_const_iterator<std::_Vector_val<int,std::allocator<int> > >::_Vector_const_iterator<std::_Vector_val<int,std::allocator<int> > >
; Function compile flags: /Ogsp
;	COMDAT ??0?$_Vector_const_iterator@V?$_Vector_val@HV?$allocator@H@std@@@std@@@std@@QAE@PAHPBU_Container_base0@1@@Z
_TEXT	SEGMENT
__Parg$ = 8						; size = 4
__Pvector$ = 12						; size = 4
??0?$_Vector_const_iterator@V?$_Vector_val@HV?$allocator@H@std@@@std@@@std@@QAE@PAHPBU_Container_base0@1@@Z PROC ; std::_Vector_const_iterator<std::_Vector_val<int,std::allocator<int> > >::_Vector_const_iterator<std::_Vector_val<int,std::allocator<int> > >, COMDAT
; _this$ = ecx

; 45   : 		{	// construct with pointer _Parg

  00000	55		 push	 ebp
  00001	8b ec		 mov	 ebp, esp
  00003	8b c1		 mov	 eax, ecx
  00005	8b 4d 08	 mov	 ecx, DWORD PTR __Parg$[ebp]
  00008	89 08		 mov	 DWORD PTR [eax], ecx

; 46   : 		this->_Adopt(_Pvector);
; 47   : 		}

  0000a	5d		 pop	 ebp
  0000b	c2 08 00	 ret	 8
??0?$_Vector_const_iterator@V?$_Vector_val@HV?$allocator@H@std@@@std@@@std@@QAE@PAHPBU_Container_base0@1@@Z ENDP ; std::_Vector_const_iterator<std::_Vector_val<int,std::allocator<int> > >::_Vector_const_iterator<std::_Vector_val<int,std::allocator<int> > >
_TEXT	ENDS
PUBLIC	??0?$_Vector_iterator@V?$_Vector_val@HV?$allocator@H@std@@@std@@@std@@QAE@PAHPBU_Container_base0@1@@Z ; std::_Vector_iterator<std::_Vector_val<int,std::allocator<int> > >::_Vector_iterator<std::_Vector_val<int,std::allocator<int> > >
; Function compile flags: /Ogsp
;	COMDAT ??0?$_Vector_iterator@V?$_Vector_val@HV?$allocator@H@std@@@std@@@std@@QAE@PAHPBU_Container_base0@1@@Z
_TEXT	SEGMENT
__Parg$ = 8						; size = 4
__Pvector$ = 12						; size = 4
??0?$_Vector_iterator@V?$_Vector_val@HV?$allocator@H@std@@@std@@@std@@QAE@PAHPBU_Container_base0@1@@Z PROC ; std::_Vector_iterator<std::_Vector_val<int,std::allocator<int> > >::_Vector_iterator<std::_Vector_val<int,std::allocator<int> > >, COMDAT
; _this$ = ecx

; 304  : 		{	// construct with pointer _Parg

  00000	55		 push	 ebp
  00001	8b ec		 mov	 ebp, esp
  00003	8b c1		 mov	 eax, ecx
  00005	8b 4d 08	 mov	 ecx, DWORD PTR __Parg$[ebp]
  00008	89 08		 mov	 DWORD PTR [eax], ecx

; 305  : 		}

  0000a	5d		 pop	 ebp
  0000b	c2 08 00	 ret	 8
??0?$_Vector_iterator@V?$_Vector_val@HV?$allocator@H@std@@@std@@@std@@QAE@PAHPBU_Container_base0@1@@Z ENDP ; std::_Vector_iterator<std::_Vector_val<int,std::allocator<int> > >::_Vector_iterator<std::_Vector_val<int,std::allocator<int> > >
_TEXT	ENDS
PUBLIC	??0?$allocator@H@std@@QAE@ABV01@@Z		; std::allocator<int>::allocator<int>
; Function compile flags: /Ogsp
; File c:\program files (x86)\microsoft visual studio 10.0\vc\include\xmemory
;	COMDAT ??0?$allocator@H@std@@QAE@ABV01@@Z
_TEXT	SEGMENT
___formal$ = 8						; size = 4
??0?$allocator@H@std@@QAE@ABV01@@Z PROC			; std::allocator<int>::allocator<int>, COMDAT
; _this$ = ecx

; 165  : 	_ALLOCATOR(const _ALLOCATOR<_Ty>&) _THROW0()

  00000	8b c1		 mov	 eax, ecx

; 166  : 		{	// construct by copying (do nothing)
; 167  : 		}

  00002	c2 04 00	 ret	 4
??0?$allocator@H@std@@QAE@ABV01@@Z ENDP			; std::allocator<int>::allocator<int>
_TEXT	ENDS
PUBLIC	?deallocate@?$allocator@H@std@@QAEXPAHI@Z	; std::allocator<int>::deallocate
; Function compile flags: /Ogsp
;	COMDAT ?deallocate@?$allocator@H@std@@QAEXPAHI@Z
_TEXT	SEGMENT
__Ptr$ = 8						; size = 4
___formal$ = 12						; size = 4
?deallocate@?$allocator@H@std@@QAEXPAHI@Z PROC		; std::allocator<int>::deallocate, COMDAT
; _this$ = ecx

; 181  : 		{	// deallocate object at _Ptr, ignore size

  00000	55		 push	 ebp
  00001	8b ec		 mov	 ebp, esp

; 182  : 		::operator delete(_Ptr);

  00003	ff 75 08	 push	 DWORD PTR __Ptr$[ebp]
  00006	e8 00 00 00 00	 call	 ??3@YAXPAX@Z		; operator delete
  0000b	59		 pop	 ecx

; 183  : 		}

  0000c	5d		 pop	 ebp
  0000d	c2 08 00	 ret	 8
?deallocate@?$allocator@H@std@@QAEXPAHI@Z ENDP		; std::allocator<int>::deallocate
_TEXT	ENDS
PUBLIC	?capacity@?$vector@HV?$allocator@H@std@@@std@@QBEIXZ ; std::vector<int,std::allocator<int> >::capacity
; Function compile flags: /Ogsp
; File c:\program files (x86)\microsoft visual studio 10.0\vc\include\vector
;	COMDAT ?capacity@?$vector@HV?$allocator@H@std@@@std@@QBEIXZ
_TEXT	SEGMENT
?capacity@?$vector@HV?$allocator@H@std@@@std@@QBEIXZ PROC ; std::vector<int,std::allocator<int> >::capacity, COMDAT
; _this$ = ecx

; 777  : 		return (this->_Myend - this->_Myfirst);

  00000	8b 41 08	 mov	 eax, DWORD PTR [ecx+8]
  00003	2b 01		 sub	 eax, DWORD PTR [ecx]
  00005	c1 f8 02	 sar	 eax, 2

; 778  : 		}

  00008	c3		 ret	 0
?capacity@?$vector@HV?$allocator@H@std@@@std@@QBEIXZ ENDP ; std::vector<int,std::allocator<int> >::capacity
_TEXT	ENDS
PUBLIC	?_Make_iter@?$vector@HV?$allocator@H@std@@@std@@QBE?AV?$_Vector_iterator@V?$_Vector_val@HV?$allocator@H@std@@@std@@@2@V?$_Vector_const_iterator@V?$_Vector_val@HV?$allocator@H@std@@@std@@@2@@Z ; std::vector<int,std::allocator<int> >::_Make_iter
; Function compile flags: /Ogsp
;	COMDAT ?_Make_iter@?$vector@HV?$allocator@H@std@@@std@@QBE?AV?$_Vector_iterator@V?$_Vector_val@HV?$allocator@H@std@@@std@@@2@V?$_Vector_const_iterator@V?$_Vector_val@HV?$allocator@H@std@@@std@@@2@@Z
_TEXT	SEGMENT
___$ReturnUdt$ = 8					; size = 4
__Where$ = 12						; size = 4
?_Make_iter@?$vector@HV?$allocator@H@std@@@std@@QBE?AV?$_Vector_iterator@V?$_Vector_val@HV?$allocator@H@std@@@std@@@2@V?$_Vector_const_iterator@V?$_Vector_val@HV?$allocator@H@std@@@std@@@2@@Z PROC ; std::vector<int,std::allocator<int> >::_Make_iter, COMDAT
; _this$ = ecx

; 801  : 		{	// make iterator from const_iterator

  00000	55		 push	 ebp
  00001	8b ec		 mov	 ebp, esp

; 802  : 		return (iterator(_Where._Ptr, this));

  00003	8b 45 08	 mov	 eax, DWORD PTR ___$ReturnUdt$[ebp]
  00006	8b 4d 0c	 mov	 ecx, DWORD PTR __Where$[ebp]
  00009	89 08		 mov	 DWORD PTR [eax], ecx

; 803  : 		}

  0000b	5d		 pop	 ebp
  0000c	c2 08 00	 ret	 8
?_Make_iter@?$vector@HV?$allocator@H@std@@@std@@QBE?AV?$_Vector_iterator@V?$_Vector_val@HV?$allocator@H@std@@@std@@@2@V?$_Vector_const_iterator@V?$_Vector_val@HV?$allocator@H@std@@@std@@@2@@Z ENDP ; std::vector<int,std::allocator<int> >::_Make_iter
_TEXT	ENDS
PUBLIC	?_Xlen@?$vector@HV?$allocator@H@std@@@std@@IBEXXZ ; std::vector<int,std::allocator<int> >::_Xlen
; Function compile flags: /Ogsp
;	COMDAT ?_Xlen@?$vector@HV?$allocator@H@std@@@std@@IBEXXZ
_TEXT	SEGMENT
?_Xlen@?$vector@HV?$allocator@H@std@@@std@@IBEXXZ PROC	; std::vector<int,std::allocator<int> >::_Xlen, COMDAT
; _this$ = ecx

; 1427 : 		_Xlength_error("vector<T> too long");

  00000	68 00 00 00 00	 push	 OFFSET ??_C@_0BD@OLBABOEK@vector?$DMT?$DO?5too?5long?$AA@
  00005	ff 15 00 00 00
	00		 call	 DWORD PTR __imp_?_Xlength_error@std@@YAXPBD@Z
$LN4@Xlen@3:
$LN3@Xlen@3:
  0000b	cc		 int	 3
?_Xlen@?$vector@HV?$allocator@H@std@@@std@@IBEXXZ ENDP	; std::vector<int,std::allocator<int> >::_Xlen
_TEXT	ENDS
PUBLIC	?max_size@?$allocator@H@std@@QBEIXZ		; std::allocator<int>::max_size
; Function compile flags: /Ogsp
; File c:\program files (x86)\microsoft visual studio 10.0\vc\include\xmemory
;	COMDAT ?max_size@?$allocator@H@std@@QBEIXZ
_TEXT	SEGMENT
?max_size@?$allocator@H@std@@QBEIXZ PROC		; std::allocator<int>::max_size, COMDAT
; _this$ = ecx

; 218  : 		_SIZT _Count = (_SIZT)(-1) / sizeof (_Ty);
; 219  : 		return (0 < _Count ? _Count : 1);

  00000	b8 ff ff ff 3f	 mov	 eax, 1073741823		; 3fffffffH

; 220  : 		}

  00005	c3		 ret	 0
?max_size@?$allocator@H@std@@QBEIXZ ENDP		; std::allocator<int>::max_size
_TEXT	ENDS
PUBLIC	?_Compat@?$_Vector_const_iterator@V?$_Vector_val@HV?$allocator@H@std@@@std@@@std@@QBEXABV12@@Z ; std::_Vector_const_iterator<std::_Vector_val<int,std::allocator<int> > >::_Compat
; Function compile flags: /Ogsp
; File c:\program files (x86)\microsoft visual studio 10.0\vc\include\vector
;	COMDAT ?_Compat@?$_Vector_const_iterator@V?$_Vector_val@HV?$allocator@H@std@@@std@@@std@@QBEXABV12@@Z
_TEXT	SEGMENT
___formal$ = 8						; size = 4
?_Compat@?$_Vector_const_iterator@V?$_Vector_val@HV?$allocator@H@std@@@std@@@std@@QBEXABV12@@Z PROC ; std::_Vector_const_iterator<std::_Vector_val<int,std::allocator<int> > >::_Compat, COMDAT
; _this$ = ecx

; 253  : 		}

  00000	c2 04 00	 ret	 4
?_Compat@?$_Vector_const_iterator@V?$_Vector_val@HV?$allocator@H@std@@@std@@@std@@QBEXABV12@@Z ENDP ; std::_Vector_const_iterator<std::_Vector_val<int,std::allocator<int> > >::_Compat
_TEXT	ENDS
PUBLIC	??$_Allocate@H@std@@YAPAHIPAH@Z			; std::_Allocate<int>
; Function compile flags: /Ogsp
; File c:\program files (x86)\microsoft visual studio 10.0\vc\include\xmemory
;	COMDAT ??$_Allocate@H@std@@YAPAHIPAH@Z
_TEXT	SEGMENT
$T520930 = -12						; size = 12
$T520934 = 8						; size = 4
__Count$ = 8						; size = 4
___formal$ = 12						; size = 4
??$_Allocate@H@std@@YAPAHIPAH@Z PROC			; std::_Allocate<int>, COMDAT

; 30   : 	{	// allocate storage for _Count elements of type _Ty

  00000	55		 push	 ebp
  00001	8b ec		 mov	 ebp, esp

; 31   : 	void *_Ptr = 0;
; 32   : 
; 33   : 	if (_Count <= 0)

  00003	8b 4d 08	 mov	 ecx, DWORD PTR __Count$[ebp]
  00006	83 ec 0c	 sub	 esp, 12			; 0000000cH
  00009	33 c0		 xor	 eax, eax
  0000b	85 c9		 test	 ecx, ecx

; 34   : 		_Count = 0;
; 35   : 	else if (((_SIZT)(-1) / sizeof (_Ty) < _Count)

  0000d	74 3e		 je	 SHORT $LN5@Allocate@3

; 36   : 		|| (_Ptr = ::operator new(_Count * sizeof (_Ty))) == 0)

  0000f	81 f9 ff ff ff
	3f		 cmp	 ecx, 1073741823		; 3fffffffH
  00015	77 10		 ja	 SHORT $LN1@Allocate@3
  00017	8b c1		 mov	 eax, ecx
  00019	c1 e0 02	 shl	 eax, 2
  0001c	50		 push	 eax
  0001d	e8 00 00 00 00	 call	 ??2@YAPAXI@Z		; operator new
  00022	59		 pop	 ecx
  00023	85 c0		 test	 eax, eax

; 38   : 
; 39   : 	return ((_Ty _FARQ *)_Ptr);

  00025	75 26		 jne	 SHORT $LN5@Allocate@3
$LN1@Allocate@3:

; 37   : 		_THROW_NCEE(bad_alloc, 0);

  00027	83 65 08 00	 and	 DWORD PTR $T520934[ebp], 0
  0002b	8d 45 08	 lea	 eax, DWORD PTR $T520934[ebp]
  0002e	50		 push	 eax
  0002f	8d 4d f4	 lea	 ecx, DWORD PTR $T520930[ebp]
  00032	ff 15 00 00 00
	00		 call	 DWORD PTR __imp_??0exception@std@@QAE@ABQBD@Z
  00038	68 00 00 00 00	 push	 OFFSET __TI2?AVbad_alloc@std@@
  0003d	8d 45 f4	 lea	 eax, DWORD PTR $T520930[ebp]
  00040	50		 push	 eax
  00041	c7 45 f4 00 00
	00 00		 mov	 DWORD PTR $T520930[ebp], OFFSET ??_7bad_alloc@std@@6B@
  00048	e8 00 00 00 00	 call	 __CxxThrowException@8
$LN10@Allocate@3:
$LN5@Allocate@3:

; 40   : 	}

  0004d	c9		 leave
  0004e	c3		 ret	 0
$LN9@Allocate@3:
??$_Allocate@H@std@@YAPAHIPAH@Z ENDP			; std::_Allocate<int>
_TEXT	ENDS
EXTRN	__imp_??0exception@std@@QAE@ABV01@@Z:PROC
; Function compile flags: /Ogsp
;	COMDAT ??0bad_alloc@std@@QAE@ABV01@@Z
_TEXT	SEGMENT
___that$ = 8						; size = 4
??0bad_alloc@std@@QAE@ABV01@@Z PROC			; std::bad_alloc::bad_alloc, COMDAT
; _this$ = ecx
  00000	55		 push	 ebp
  00001	8b ec		 mov	 ebp, esp
  00003	56		 push	 esi
  00004	ff 75 08	 push	 DWORD PTR ___that$[ebp]
  00007	8b f1		 mov	 esi, ecx
  00009	ff 15 00 00 00
	00		 call	 DWORD PTR __imp_??0exception@std@@QAE@ABV01@@Z
  0000f	c7 06 00 00 00
	00		 mov	 DWORD PTR [esi], OFFSET ??_7bad_alloc@std@@6B@
  00015	8b c6		 mov	 eax, esi
  00017	5e		 pop	 esi
  00018	5d		 pop	 ebp
  00019	c2 04 00	 ret	 4
??0bad_alloc@std@@QAE@ABV01@@Z ENDP			; std::bad_alloc::bad_alloc
_TEXT	ENDS
PUBLIC	??$_Val_type@PAH@std@@YAPAHPAH@Z		; std::_Val_type<int *>
; Function compile flags: /Ogsp
; File c:\program files (x86)\microsoft visual studio 10.0\vc\include\xutility
;	COMDAT ??$_Val_type@PAH@std@@YAPAHPAH@Z
_TEXT	SEGMENT
___formal$ = 8						; size = 4
??$_Val_type@PAH@std@@YAPAHPAH@Z PROC			; std::_Val_type<int *>, COMDAT

; 790  : 	return (0);

  00000	33 c0		 xor	 eax, eax

; 791  : 	}

  00002	c3		 ret	 0
??$_Val_type@PAH@std@@YAPAHPAH@Z ENDP			; std::_Val_type<int *>
_TEXT	ENDS
PUBLIC	??$_Ptr_cat@HH@std@@YA?AU_Scalar_ptr_iterator_tag@0@PAH0@Z ; std::_Ptr_cat<int,int>
; Function compile flags: /Ogsp
;	COMDAT ??$_Ptr_cat@HH@std@@YA?AU_Scalar_ptr_iterator_tag@0@PAH0@Z
_TEXT	SEGMENT
__Cat$ = -1						; size = 1
___formal$ = 8						; size = 4
___formal$ = 12						; size = 4
??$_Ptr_cat@HH@std@@YA?AU_Scalar_ptr_iterator_tag@0@PAH0@Z PROC ; std::_Ptr_cat<int,int>, COMDAT

; 516  : 	{	// return pointer category from pointers

  00000	55		 push	 ebp
  00001	8b ec		 mov	 ebp, esp
  00003	51		 push	 ecx

; 517  : 	typename _Ptr_cat_helper<_Elem1, _Elem2>::_Type _Cat;
; 518  : 	return (_Cat);

  00004	8a 45 ff	 mov	 al, BYTE PTR __Cat$[ebp]

; 519  : 	}

  00007	c9		 leave
  00008	c3		 ret	 0
??$_Ptr_cat@HH@std@@YA?AU_Scalar_ptr_iterator_tag@0@PAH0@Z ENDP ; std::_Ptr_cat<int,int>
_TEXT	ENDS
PUBLIC	??$_Move@PAHPAH@std@@YAPAHPAH00U_Scalar_ptr_iterator_tag@0@@Z ; std::_Move<int *,int *>
; Function compile flags: /Ogsp
;	COMDAT ??$_Move@PAHPAH@std@@YAPAHPAH00U_Scalar_ptr_iterator_tag@0@@Z
_TEXT	SEGMENT
__First$ = 8						; size = 4
__Last$ = 12						; size = 4
__Dest$ = 16						; size = 4
___formal$ = 20						; size = 1
??$_Move@PAHPAH@std@@YAPAHPAH00U_Scalar_ptr_iterator_tag@0@@Z PROC ; std::_Move<int *,int *>, COMDAT

; 2522 : 	{	// move [_First, _Last) to [_Dest, ...), pointers to scalars

  00000	55		 push	 ebp
  00001	8b ec		 mov	 ebp, esp
  00003	56		 push	 esi

; 2523 : 	ptrdiff_t _Count = _Last - _First;

  00004	8b 75 0c	 mov	 esi, DWORD PTR __Last$[ebp]
  00007	2b 75 08	 sub	 esi, DWORD PTR __First$[ebp]
  0000a	57		 push	 edi

; 2524 : 	_CSTD memmove(&*_Dest, &*_First,
; 2525 : 		_Count * sizeof (*_First));

  0000b	8b 7d 10	 mov	 edi, DWORD PTR __Dest$[ebp]
  0000e	c1 fe 02	 sar	 esi, 2
  00011	c1 e6 02	 shl	 esi, 2
  00014	56		 push	 esi
  00015	ff 75 08	 push	 DWORD PTR __First$[ebp]
  00018	57		 push	 edi
  00019	ff 15 00 00 00
	00		 call	 DWORD PTR __imp__memmove
  0001f	83 c4 0c	 add	 esp, 12			; 0000000cH

; 2526 : 	return (_Dest + _Count);

  00022	8d 04 3e	 lea	 eax, DWORD PTR [esi+edi]
  00025	5f		 pop	 edi
  00026	5e		 pop	 esi

; 2527 : 	}

  00027	5d		 pop	 ebp
  00028	c3		 ret	 0
??$_Move@PAHPAH@std@@YAPAHPAH00U_Scalar_ptr_iterator_tag@0@@Z ENDP ; std::_Move<int *,int *>
_TEXT	ENDS
PUBLIC	??$_Destroy_range@V?$allocator@H@std@@@std@@YAXPAH0AAV?$allocator@H@0@U_Scalar_ptr_iterator_tag@0@@Z ; std::_Destroy_range<std::allocator<int> >
; Function compile flags: /Ogsp
; File c:\program files (x86)\microsoft visual studio 10.0\vc\include\xmemory
;	COMDAT ??$_Destroy_range@V?$allocator@H@std@@@std@@YAXPAH0AAV?$allocator@H@0@U_Scalar_ptr_iterator_tag@0@@Z
_TEXT	SEGMENT
__First$ = 8						; size = 4
__Last$ = 12						; size = 4
__Al$ = 16						; size = 4
___formal$ = 20						; size = 1
??$_Destroy_range@V?$allocator@H@std@@@std@@YAXPAH0AAV?$allocator@H@0@U_Scalar_ptr_iterator_tag@0@@Z PROC ; std::_Destroy_range<std::allocator<int> >, COMDAT

; 105  : 	}

  00000	c3		 ret	 0
??$_Destroy_range@V?$allocator@H@std@@@std@@YAXPAH0AAV?$allocator@H@0@U_Scalar_ptr_iterator_tag@0@@Z ENDP ; std::_Destroy_range<std::allocator<int> >
_TEXT	ENDS
PUBLIC	??$_Uninit_move@HHH@std@@YAPAHPAH00AAV?$allocator@H@0@0U_Scalar_ptr_iterator_tag@0@@Z ; std::_Uninit_move<int,int,int>
; Function compile flags: /Ogsp
; File c:\program files (x86)\microsoft visual studio 10.0\vc\include\memory
;	COMDAT ??$_Uninit_move@HHH@std@@YAPAHPAH00AAV?$allocator@H@0@0U_Scalar_ptr_iterator_tag@0@@Z
_TEXT	SEGMENT
__First$ = 8						; size = 4
__Last$ = 12						; size = 4
__Dest$ = 16						; size = 4
___formal$ = 20						; size = 4
___formal$ = 24						; size = 4
___formal$ = 28						; size = 1
??$_Uninit_move@HHH@std@@YAPAHPAH00AAV?$allocator@H@0@0U_Scalar_ptr_iterator_tag@0@@Z PROC ; std::_Uninit_move<int,int,int>, COMDAT

; 456  : 	{	// move [_First, _Last) to raw _Dest, scalar type

  00000	55		 push	 ebp
  00001	8b ec		 mov	 ebp, esp
  00003	56		 push	 esi

; 457  : 	_DEBUG_RANGE(_First, _Last);
; 458  : 	_DEBUG_POINTER(_Dest);
; 459  : 	size_t _Count = (size_t)(_Last - _First);

  00004	8b 75 0c	 mov	 esi, DWORD PTR __Last$[ebp]
  00007	2b 75 08	 sub	 esi, DWORD PTR __First$[ebp]
  0000a	c1 fe 02	 sar	 esi, 2

; 460  : 	return ((_Ty2 *)_CSTD memmove(&*_Dest, &*_First,
; 461  : 		_Count * sizeof (*_First)) + _Count);	// NB: non-overlapping move

  0000d	c1 e6 02	 shl	 esi, 2
  00010	56		 push	 esi
  00011	ff 75 08	 push	 DWORD PTR __First$[ebp]
  00014	ff 75 10	 push	 DWORD PTR __Dest$[ebp]
  00017	ff 15 00 00 00
	00		 call	 DWORD PTR __imp__memmove
  0001d	83 c4 0c	 add	 esp, 12			; 0000000cH
  00020	03 c6		 add	 eax, esi
  00022	5e		 pop	 esi

; 462  : 	}

  00023	5d		 pop	 ebp
  00024	c3		 ret	 0
??$_Uninit_move@HHH@std@@YAPAHPAH00AAV?$allocator@H@0@0U_Scalar_ptr_iterator_tag@0@@Z ENDP ; std::_Uninit_move<int,int,int>
_TEXT	ENDS
PUBLIC	??$forward@H@std@@YA$$QAHAAH@Z			; std::forward<int>
; Function compile flags: /Ogsp
; File c:\program files (x86)\microsoft visual studio 10.0\vc\include\utility
;	COMDAT ??$forward@H@std@@YA$$QAHAAH@Z
_TEXT	SEGMENT
__Arg$ = 8						; size = 4
??$forward@H@std@@YA$$QAHAAH@Z PROC			; std::forward<int>, COMDAT

; 78   : 	{	// forward _Arg, given explicitly specified type parameter

  00000	55		 push	 ebp
  00001	8b ec		 mov	 ebp, esp

; 79   : 	return ((_Ty&&)_Arg);

  00003	8b 45 08	 mov	 eax, DWORD PTR __Arg$[ebp]

; 80   : 	}

  00006	5d		 pop	 ebp
  00007	c3		 ret	 0
??$forward@H@std@@YA$$QAHAAH@Z ENDP			; std::forward<int>
_TEXT	ENDS
PUBLIC	??_GtagEventInfo@@QAEPAXI@Z			; tagEventInfo::`scalar deleting destructor'
; Function compile flags: /Ogsp
;	COMDAT ??_GtagEventInfo@@QAEPAXI@Z
_TEXT	SEGMENT
___flags$ = 8						; size = 4
??_GtagEventInfo@@QAEPAXI@Z PROC			; tagEventInfo::`scalar deleting destructor', COMDAT
; _this$ = ecx
  00000	55		 push	 ebp
  00001	8b ec		 mov	 ebp, esp
  00003	56		 push	 esi
  00004	8b f1		 mov	 esi, ecx
  00006	e8 00 00 00 00	 call	 ??1tagEventInfo@@QAE@XZ
  0000b	f6 45 08 01	 test	 BYTE PTR ___flags$[ebp], 1
  0000f	74 07		 je	 SHORT $LN1@scalar@2
  00011	56		 push	 esi
  00012	e8 00 00 00 00	 call	 ??3@YAXPAX@Z		; operator delete
  00017	59		 pop	 ecx
$LN1@scalar@2:
  00018	8b c6		 mov	 eax, esi
  0001a	5e		 pop	 esi
  0001b	5d		 pop	 ebp
  0001c	c2 04 00	 ret	 4
??_GtagEventInfo@@QAEPAXI@Z ENDP			; tagEventInfo::`scalar deleting destructor'
_TEXT	ENDS
PUBLIC	??_C@_0BN@CKGKBNLC@?$CFs?5VectorArray?5is?5Wrong?$CI?$CFd?$CJ?4?$AA@ ; `string'
PUBLIC	??_C@_0BB@LCMKOGHB@?$CFs?5pInfo?5is?5NULL?$AA@	; `string'
PUBLIC	??_C@_0CC@FICLKCIJ@EventCatalogWnd?3?3SetShowEventPag@ ; `string'
PUBLIC	?SetShowEventPage@EventCatalogWnd@@IAEXH@Z	; EventCatalogWnd::SetShowEventPage
EXTRN	?ExcuteWeb@Help@@YAXPBD@Z:PROC			; Help::ExcuteWeb
EXTRN	__imp__ShowWindow@8:PROC
EXTRN	?GetSingleton@ioApplication@@SAAAV1@XZ:PROC	; ioApplication::GetSingleton
EXTRN	__imp_?PrintTimeAndLog@CLog@@QAAXHPADZZ:PROC
EXTRN	__imp_?LOG@@3VCLog@@A:BYTE
;	COMDAT ??_C@_0BN@CKGKBNLC@?$CFs?5VectorArray?5is?5Wrong?$CI?$CFd?$CJ?4?$AA@
; File d:\lost saga for developer\youtube\tutorial\source\src\lsclient\ioapplication.h
CONST	SEGMENT
??_C@_0BN@CKGKBNLC@?$CFs?5VectorArray?5is?5Wrong?$CI?$CFd?$CJ?4?$AA@ DB '%'
	DB	's VectorArray is Wrong(%d).', 00H		; `string'
CONST	ENDS
;	COMDAT ??_C@_0BB@LCMKOGHB@?$CFs?5pInfo?5is?5NULL?$AA@
CONST	SEGMENT
??_C@_0BB@LCMKOGHB@?$CFs?5pInfo?5is?5NULL?$AA@ DB '%s pInfo is NULL', 00H ; `string'
CONST	ENDS
;	COMDAT ??_C@_0CC@FICLKCIJ@EventCatalogWnd?3?3SetShowEventPag@
CONST	SEGMENT
??_C@_0CC@FICLKCIJ@EventCatalogWnd?3?3SetShowEventPag@ DB 'EventCatalogWn'
	DB	'd::SetShowEventPage', 00H			; `string'
; Function compile flags: /Ogsp
; File d:\lost saga for developer\youtube\tutorial\source\src\lsclient\gui\eventcatalogwnd.cpp
CONST	ENDS
;	COMDAT ?SetShowEventPage@EventCatalogWnd@@IAEXH@Z
_TEXT	SEGMENT
_iVectorArray$ = 8					; size = 4
?SetShowEventPage@EventCatalogWnd@@IAEXH@Z PROC		; EventCatalogWnd::SetShowEventPage, COMDAT
; _this$ = ecx

; 117  : {

  00000	55		 push	 ebp
  00001	8b ec		 mov	 ebp, esp
  00003	53		 push	 ebx
  00004	56		 push	 esi
  00005	57		 push	 edi
  00006	8b f9		 mov	 edi, ecx

; 118  : 	if( !COMPARE( iVectorArray, 0, (int) m_vEventInfoVector.size() ) )

  00008	8b 4d 08	 mov	 ecx, DWORD PTR _iVectorArray$[ebp]
  0000b	33 db		 xor	 ebx, ebx
  0000d	3b cb		 cmp	 ecx, ebx
  0000f	0f 8c a2 00 00
	00		 jl	 $LN5@SetShowEve
  00015	8b 97 94 01 00
	00		 mov	 edx, DWORD PTR [edi+404]
  0001b	2b 97 90 01 00
	00		 sub	 edx, DWORD PTR [edi+400]
  00021	c1 fa 02	 sar	 edx, 2
  00024	3b ca		 cmp	 ecx, edx
  00026	0f 8d 8b 00 00
	00		 jge	 $LN5@SetShowEve

; 121  : 		return;
; 122  : 	}
; 123  : 
; 124  : 	EventInfo *pInfo = m_vEventInfoVector[iVectorArray];

  0002c	8b 87 90 01 00
	00		 mov	 eax, DWORD PTR [edi+400]
  00032	8b 34 88	 mov	 esi, DWORD PTR [eax+ecx*4]

; 125  : 	if( !pInfo )

  00035	3b f3		 cmp	 esi, ebx
  00037	75 1c		 jne	 SHORT $LN4@SetShowEve

; 126  : 	{
; 127  : 		LOG.PrintTimeAndLog( 0, "%s pInfo is NULL", __FUNCTION__ );

  00039	68 00 00 00 00	 push	 OFFSET ??_C@_0CC@FICLKCIJ@EventCatalogWnd?3?3SetShowEventPag@
  0003e	68 00 00 00 00	 push	 OFFSET ??_C@_0BB@LCMKOGHB@?$CFs?5pInfo?5is?5NULL?$AA@
  00043	53		 push	 ebx
  00044	ff 35 00 00 00
	00		 push	 DWORD PTR __imp_?LOG@@3VCLog@@A
  0004a	ff 15 00 00 00
	00		 call	 DWORD PTR __imp_?PrintTimeAndLog@CLog@@QAAXHPADZZ
  00050	83 c4 10	 add	 esp, 16			; 00000010H

; 128  : 		return;

  00053	eb 7d		 jmp	 SHORT $LN1@SetShowEve
$LN4@SetShowEve:

; 129  : 	}
; 130  : 
; 131  : 	if( pInfo->m_bWebEvent )

  00055	38 1e		 cmp	 BYTE PTR [esi], bl
  00057	74 4b		 je	 SHORT $LN3@SetShowEve

; 132  : 	{
; 133  : 		// show webpage
; 134  : 		if( Setting::FullScreen() )

  00059	38 1d 00 00 00
	00		 cmp	 BYTE PTR ?m_Option@Setting@@1USettingOption@@A, bl
  0005f	74 10		 je	 SHORT $LN2@SetShowEve

; 135  : 			ShowWindow( g_App.GetHWnd(), SW_MINIMIZE );

  00061	e8 00 00 00 00	 call	 ?GetSingleton@ioApplication@@SAAAV1@XZ ; ioApplication::GetSingleton
  00066	6a 06		 push	 6
  00068	ff 70 08	 push	 DWORD PTR [eax+8]
  0006b	ff 15 00 00 00
	00		 call	 DWORD PTR __imp__ShowWindow@8
$LN2@SetShowEve:

; 136  : 		Help::ExcuteWeb( pInfo->m_szEventURL.c_str() );

  00071	8d 4e 04	 lea	 ecx, DWORD PTR [esi+4]
  00074	ff 15 00 00 00
	00		 call	 DWORD PTR __imp_?c_str@ioHashString@@QBEPBDXZ
  0007a	50		 push	 eax
  0007b	e8 00 00 00 00	 call	 ?ExcuteWeb@Help@@YAXPBD@Z ; Help::ExcuteWeb
  00080	59		 pop	 ecx

; 137  : 		m_bIERefreshCheck = true;

  00081	c6 87 b0 01 00
	00 01		 mov	 BYTE PTR [edi+432], 1

; 138  : 		m_dwIERefreshTimer= REALGETTIME();

  00088	ff 15 00 00 00
	00		 call	 DWORD PTR __imp_?GetSingleton@ioFrameTimer@@SAAAV1@XZ
  0008e	8b c8		 mov	 ecx, eax
  00090	ff 15 00 00 00
	00		 call	 DWORD PTR __imp_?GetTotalSec@ioFrameTimer@@QAEKXZ
  00096	89 87 ac 01 00
	00		 mov	 DWORD PTR [edi+428], eax

; 139  : 		m_IEHwnd          = 0; // 초기화

  0009c	89 1d 00 00 00
	00		 mov	 DWORD PTR ?m_IEHwnd@EventCatalogWnd@@1PAUHWND__@@A, ebx ; EventCatalogWnd::m_IEHwnd

; 140  : 	}
; 141  : 	else

  000a2	eb 2e		 jmp	 SHORT $LN1@SetShowEve
$LN3@SetShowEve:

; 142  : 	{
; 143  : 		g_GUIMgr.ShowWnd( pInfo->m_dwEventWndID );

  000a4	53		 push	 ebx
  000a5	ff 76 1c	 push	 DWORD PTR [esi+28]
  000a8	e8 00 00 00 00	 call	 ?GetSingleton@ioSP2GUIManager@@SAAAV1@XZ ; ioSP2GUIManager::GetSingleton
  000ad	8b c8		 mov	 ecx, eax
  000af	ff 15 00 00 00
	00		 call	 DWORD PTR __imp_?ShowWnd@ioGUIManager@@QAEXK_N@Z
  000b5	eb 1b		 jmp	 SHORT $LN1@SetShowEve
$LN5@SetShowEve:

; 119  : 	{
; 120  : 		LOG.PrintTimeAndLog( 0, "%s VectorArray is Wrong(%d).", __FUNCTION__, iVectorArray );

  000b7	51		 push	 ecx
  000b8	68 00 00 00 00	 push	 OFFSET ??_C@_0CC@FICLKCIJ@EventCatalogWnd?3?3SetShowEventPag@
  000bd	68 00 00 00 00	 push	 OFFSET ??_C@_0BN@CKGKBNLC@?$CFs?5VectorArray?5is?5Wrong?$CI?$CFd?$CJ?4?$AA@
  000c2	53		 push	 ebx
  000c3	ff 35 00 00 00
	00		 push	 DWORD PTR __imp_?LOG@@3VCLog@@A
  000c9	ff 15 00 00 00
	00		 call	 DWORD PTR __imp_?PrintTimeAndLog@CLog@@QAAXHPADZZ
  000cf	83 c4 14	 add	 esp, 20			; 00000014H
$LN1@SetShowEve:
  000d2	5f		 pop	 edi
  000d3	5e		 pop	 esi
  000d4	5b		 pop	 ebx

; 144  : 	}
; 145  : }

  000d5	5d		 pop	 ebp
  000d6	c2 04 00	 ret	 4
?SetShowEventPage@EventCatalogWnd@@IAEXH@Z ENDP		; EventCatalogWnd::SetShowEventPage
_TEXT	ENDS
PUBLIC	?OnProcess@EventCatalogWnd@@MAEXM@Z		; EventCatalogWnd::OnProcess
; Function compile flags: /Ogsp
;	COMDAT ?OnProcess@EventCatalogWnd@@MAEXM@Z
_TEXT	SEGMENT
_fTimePerSec$ = 8					; size = 4
?OnProcess@EventCatalogWnd@@MAEXM@Z PROC		; EventCatalogWnd::OnProcess, COMDAT
; _this$ = ecx

; 148  : {

  00000	55		 push	 ebp
  00001	8b ec		 mov	 ebp, esp

; 149  : 	ioMovingWnd::OnProcess( fTimePerSec );

  00003	f3 0f 10 45 08	 movss	 xmm0, DWORD PTR _fTimePerSec$[ebp]
  00008	56		 push	 esi
  00009	51		 push	 ecx
  0000a	8b f1		 mov	 esi, ecx
  0000c	f3 0f 11 04 24	 movss	 DWORD PTR [esp], xmm0
  00011	ff 15 00 00 00
	00		 call	 DWORD PTR __imp_?OnProcess@ioWnd@@MAEXM@Z

; 150  : 	ProcessIERefresh();

  00017	8b ce		 mov	 ecx, esi
  00019	e8 00 00 00 00	 call	 ?ProcessIERefresh@EventCatalogWnd@@IAEXXZ ; EventCatalogWnd::ProcessIERefresh
  0001e	5e		 pop	 esi

; 151  : }

  0001f	5d		 pop	 ebp
  00020	c2 04 00	 ret	 4
?OnProcess@EventCatalogWnd@@MAEXM@Z ENDP		; EventCatalogWnd::OnProcess
_TEXT	ENDS
PUBLIC	?IsAlive@EventCatalogWnd@@IAE_NABUtagEventInfo@@@Z ; EventCatalogWnd::IsAlive
EXTRN	__ftol2:PROC
; Function compile flags: /Ogsp
;	COMDAT ?IsAlive@EventCatalogWnd@@IAE_NABUtagEventInfo@@@Z
_TEXT	SEGMENT
_kCurServerTime$515303 = -8				; size = 8
tv241 = 8						; size = 4
tv238 = 8						; size = 4
tv222 = 8						; size = 4
tv218 = 8						; size = 4
_kEventInfo$ = 8					; size = 4
?IsAlive@EventCatalogWnd@@IAE_NABUtagEventInfo@@@Z PROC	; EventCatalogWnd::IsAlive, COMDAT
; _this$ = ecx

; 302  : {

  00000	55		 push	 ebp
  00001	8b ec		 mov	 ebp, esp
  00003	51		 push	 ecx
  00004	51		 push	 ecx
  00005	56		 push	 esi

; 303  : 	if( kEventInfo.m_bWebEvent )

  00006	8b 75 08	 mov	 esi, DWORD PTR _kEventInfo$[ebp]
  00009	80 3e 00	 cmp	 BYTE PTR [esi], 0
  0000c	57		 push	 edi
  0000d	0f 84 db 00 00
	00		 je	 $LN7@IsAlive

; 304  : 	{
; 305  : 		if( kEventInfo.m_eChannelingType != CNT_NONE )

  00013	83 7e 44 ff	 cmp	 DWORD PTR [esi+68], -1
  00017	74 15		 je	 SHORT $LN5@IsAlive

; 306  : 		{
; 307  : 			if( g_MyInfo.GetChannelingType() != kEventInfo.m_eChannelingType )

  00019	e8 00 00 00 00	 call	 ?GetSingleton@ioMyInfo@@SAAAV1@XZ ; ioMyInfo::GetSingleton
  0001e	8b c8		 mov	 ecx, eax
  00020	e8 00 00 00 00	 call	 ?GetChannelingType@ioMyInfo@@QBE?AW4ChannelingType@@XZ ; ioMyInfo::GetChannelingType
  00025	3b 46 44	 cmp	 eax, DWORD PTR [esi+68]

; 308  : 				return false;

  00028	0f 85 e0 00 00
	00		 jne	 $LN1@IsAlive
$LN5@IsAlive:

; 309  : 		}
; 310  : 
; 311  : 
; 312  : 		time_t kCurServerTime = g_MyInfo.GetServerDate();

  0002e	e8 00 00 00 00	 call	 ?GetSingleton@ioMyInfo@@SAAAV1@XZ ; ioMyInfo::GetSingleton
  00033	8b 88 30 09 00
	00		 mov	 ecx, DWORD PTR [eax+2352]
  00039	89 4d f8	 mov	 DWORD PTR _kCurServerTime$515303[ebp], ecx
  0003c	8b 80 34 09 00
	00		 mov	 eax, DWORD PTR [eax+2356]
  00042	89 45 fc	 mov	 DWORD PTR _kCurServerTime$515303[ebp+4], eax

; 313  : 		kCurServerTime += ( REALGETTIME()/FLOAT1000 );// 현재까지의 클라이언트초를 넣는다.

  00045	b8 e8 03 00 00	 mov	 eax, 1000		; 000003e8H
  0004a	8b f8		 mov	 edi, eax
  0004c	ff 15 00 00 00
	00		 call	 DWORD PTR __imp_?GetSingleton@ioFrameTimer@@SAAAV1@XZ
  00052	8b c8		 mov	 ecx, eax
  00054	ff 15 00 00 00
	00		 call	 DWORD PTR __imp_?GetTotalSec@ioFrameTimer@@QAEKXZ
  0005a	89 45 08	 mov	 DWORD PTR tv241[ebp], eax
  0005d	db 45 08	 fild	 DWORD PTR tv241[ebp]
  00060	85 c0		 test	 eax, eax
  00062	79 06		 jns	 SHORT $LN18@IsAlive
  00064	d8 05 00 00 00
	00		 fadd	 DWORD PTR __real@4f800000
$LN18@IsAlive:
  0006a	89 7d 08	 mov	 DWORD PTR tv238[ebp], edi
  0006d	db 45 08	 fild	 DWORD PTR tv238[ebp]
  00070	85 ff		 test	 edi, edi
  00072	79 06		 jns	 SHORT $LN19@IsAlive
  00074	d8 05 00 00 00
	00		 fadd	 DWORD PTR __real@4f800000
$LN19@IsAlive:
  0007a	de f9		 fdivp	 ST(1), ST(0)
  0007c	df 6d f8	 fild	 QWORD PTR _kCurServerTime$515303[ebp]
  0007f	de c1		 faddp	 ST(1), ST(0)
  00081	e8 00 00 00 00	 call	 __ftol2
  00086	89 45 f8	 mov	 DWORD PTR _kCurServerTime$515303[ebp], eax

; 314  : 
; 315  : 		struct tm *pDate = localtime(&kCurServerTime);

  00089	8d 45 f8	 lea	 eax, DWORD PTR _kCurServerTime$515303[ebp]
  0008c	50		 push	 eax
  0008d	89 55 fc	 mov	 DWORD PTR _kCurServerTime$515303[ebp+4], edx
  00090	ff 15 00 00 00
	00		 call	 DWORD PTR __imp___localtime64
  00096	59		 pop	 ecx
  00097	8b c8		 mov	 ecx, eax

; 316  : 		if( !pDate )

  00099	85 c9		 test	 ecx, ecx

; 317  : 			return false;

  0009b	74 71		 je	 SHORT $LN1@IsAlive

; 318  : 
; 319  : 		DWORD dwCurTime =( (pDate->tm_year+1900) * 1000000) + ( (pDate->tm_mon+1) * 10000) + (pDate->tm_mday * FLOAT100) + pDate->tm_hour;

  0009d	b8 64 00 00 00	 mov	 eax, 100		; 00000064H
  000a2	8b 51 14	 mov	 edx, DWORD PTR [ecx+20]
  000a5	8b 79 10	 mov	 edi, DWORD PTR [ecx+16]
  000a8	6b d2 64	 imul	 edx, 100		; 00000064H
  000ab	8d 94 3a 31 e6
	02 00		 lea	 edx, DWORD PTR [edx+edi+190001]
  000b2	69 d2 10 27 00
	00		 imul	 edx, 10000		; 00002710H
  000b8	89 55 08	 mov	 DWORD PTR tv222[ebp], edx
  000bb	db 45 08	 fild	 DWORD PTR tv222[ebp]
  000be	89 45 08	 mov	 DWORD PTR tv218[ebp], eax
  000c1	db 41 0c	 fild	 DWORD PTR [ecx+12]
  000c4	db 45 08	 fild	 DWORD PTR tv218[ebp]
  000c7	85 c0		 test	 eax, eax
  000c9	79 06		 jns	 SHORT $LN20@IsAlive
  000cb	d8 05 00 00 00
	00		 fadd	 DWORD PTR __real@4f800000
$LN20@IsAlive:
  000d1	de c9		 fmulp	 ST(1), ST(0)
  000d3	de c1		 faddp	 ST(1), ST(0)
  000d5	da 41 08	 fiadd	 DWORD PTR [ecx+8]
  000d8	e8 00 00 00 00	 call	 __ftol2

; 320  : 
; 321  : 		if( COMPARE( dwCurTime, kEventInfo.m_dwStartDate, kEventInfo.m_dwEndDate + 1 ) )

  000dd	3b 46 14	 cmp	 eax, DWORD PTR [esi+20]
  000e0	72 2c		 jb	 SHORT $LN1@IsAlive
  000e2	8b 4e 18	 mov	 ecx, DWORD PTR [esi+24]
  000e5	41		 inc	 ecx
  000e6	3b c1		 cmp	 eax, ecx
  000e8	73 24		 jae	 SHORT $LN1@IsAlive
$LN21@IsAlive:

; 322  : 			return true;

  000ea	b0 01		 mov	 al, 1
  000ec	eb 22		 jmp	 SHORT $LN8@IsAlive
$LN7@IsAlive:

; 323  : 	}
; 324  : 	else
; 325  : 	{
; 326  : 		if( g_EventMgr.IsAlive( (EventType)kEventInfo.m_iEventType, g_MyInfo.GetChannelingType() ) )

  000ee	e8 00 00 00 00	 call	 ?GetSingleton@ioMyInfo@@SAAAV1@XZ ; ioMyInfo::GetSingleton
  000f3	8b c8		 mov	 ecx, eax
  000f5	e8 00 00 00 00	 call	 ?GetChannelingType@ioMyInfo@@QBE?AW4ChannelingType@@XZ ; ioMyInfo::GetChannelingType
  000fa	50		 push	 eax
  000fb	ff 76 20	 push	 DWORD PTR [esi+32]
  000fe	e8 00 00 00 00	 call	 ?GetSingleton@ioEventManager@@SAAAV1@XZ ; ioEventManager::GetSingleton
  00103	8b c8		 mov	 ecx, eax
  00105	e8 00 00 00 00	 call	 ?IsAlive@ioEventManager@@QAE_NW4EventType@@W4ChannelingType@@@Z ; ioEventManager::IsAlive
  0010a	84 c0		 test	 al, al

; 327  : 			return true;

  0010c	75 dc		 jne	 SHORT $LN21@IsAlive
$LN1@IsAlive:

; 328  : 	}
; 329  : 
; 330  : 	return false;

  0010e	32 c0		 xor	 al, al
$LN8@IsAlive:
  00110	5f		 pop	 edi
  00111	5e		 pop	 esi

; 331  : }

  00112	c9		 leave
  00113	c2 04 00	 ret	 4
?IsAlive@EventCatalogWnd@@IAE_NABUtagEventInfo@@@Z ENDP	; EventCatalogWnd::IsAlive
_TEXT	ENDS
PUBLIC	??_C@_0BI@HODBJLNC@EventCatalogWnd?3?3SetImg?$AA@ ; `string'
PUBLIC	?SetImg@EventCatalogWnd@@IAEXH@Z		; EventCatalogWnd::SetImg
EXTRN	__imp_?CreateImageByFullName@ioUIImageSetManager@@QAEPAVioUIRenderImage@@ABVioHashString@@_N@Z:PROC
EXTRN	__imp_?GetSingleton@ioUIImageSetManager@@SAAAV1@XZ:PROC
;	COMDAT ??_C@_0BI@HODBJLNC@EventCatalogWnd?3?3SetImg?$AA@
; File c:\program files (x86)\microsoft visual studio 10.0\vc\include\vector
CONST	SEGMENT
??_C@_0BI@HODBJLNC@EventCatalogWnd?3?3SetImg?$AA@ DB 'EventCatalogWnd::Se'
	DB	'tImg', 00H					; `string'
; Function compile flags: /Ogsp
; File d:\lost saga for developer\youtube\tutorial\source\src\lsclient\gui\eventcatalogwnd.cpp
CONST	ENDS
;	COMDAT ?SetImg@EventCatalogWnd@@IAEXH@Z
_TEXT	SEGMENT
_iVectorArray$ = 8					; size = 4
?SetImg@EventCatalogWnd@@IAEXH@Z PROC			; EventCatalogWnd::SetImg, COMDAT
; _this$ = ecx

; 349  : {

  00000	55		 push	 ebp
  00001	8b ec		 mov	 ebp, esp
  00003	53		 push	 ebx
  00004	56		 push	 esi
  00005	8b f1		 mov	 esi, ecx

; 350  : 	SAFEDELETE( m_pImgFirst );

  00007	8b 8e a4 01 00
	00		 mov	 ecx, DWORD PTR [esi+420]
  0000d	33 db		 xor	 ebx, ebx
  0000f	57		 push	 edi
  00010	3b cb		 cmp	 ecx, ebx
  00012	74 0d		 je	 SHORT $LN5@SetImg
  00014	8b 01		 mov	 eax, DWORD PTR [ecx]
  00016	6a 01		 push	 1
  00018	ff 50 40	 call	 DWORD PTR [eax+64]
  0001b	89 9e a4 01 00
	00		 mov	 DWORD PTR [esi+420], ebx
$LN5@SetImg:

; 351  : 	SAFEDELETE( m_pImgSecond );

  00021	8b 8e a8 01 00
	00		 mov	 ecx, DWORD PTR [esi+424]
  00027	3b cb		 cmp	 ecx, ebx
  00029	74 0d		 je	 SHORT $LN4@SetImg
  0002b	8b 01		 mov	 eax, DWORD PTR [ecx]
  0002d	6a 01		 push	 1
  0002f	ff 50 40	 call	 DWORD PTR [eax+64]
  00032	89 9e a8 01 00
	00		 mov	 DWORD PTR [esi+424], ebx
$LN4@SetImg:

; 352  : 
; 353  : 	if( !COMPARE( iVectorArray, 0, (int) m_vEventInfoVector.size() ) )

  00038	8b 4d 08	 mov	 ecx, DWORD PTR _iVectorArray$[ebp]
  0003b	3b cb		 cmp	 ecx, ebx
  0003d	7c 6f		 jl	 SHORT $LN2@SetImg
  0003f	8b 96 94 01 00
	00		 mov	 edx, DWORD PTR [esi+404]
  00045	2b 96 90 01 00
	00		 sub	 edx, DWORD PTR [esi+400]
  0004b	c1 fa 02	 sar	 edx, 2
  0004e	3b ca		 cmp	 ecx, edx
  00050	7d 5c		 jge	 SHORT $LN2@SetImg

; 356  : 		return;
; 357  : 	}
; 358  : 
; 359  : 	EventInfo *pInfo = m_vEventInfoVector[iVectorArray];

  00052	8b 86 90 01 00
	00		 mov	 eax, DWORD PTR [esi+400]
  00058	8b 3c 88	 mov	 edi, DWORD PTR [eax+ecx*4]

; 360  : 	if( !pInfo )

  0005b	3b fb		 cmp	 edi, ebx
  0005d	75 1c		 jne	 SHORT $LN1@SetImg

; 361  : 	{
; 362  : 		LOG.PrintTimeAndLog( 0, "%s pInfo is NULL", __FUNCTION__ );

  0005f	68 00 00 00 00	 push	 OFFSET ??_C@_0BI@HODBJLNC@EventCatalogWnd?3?3SetImg?$AA@
  00064	68 00 00 00 00	 push	 OFFSET ??_C@_0BB@LCMKOGHB@?$CFs?5pInfo?5is?5NULL?$AA@
  00069	53		 push	 ebx
  0006a	ff 35 00 00 00
	00		 push	 DWORD PTR __imp_?LOG@@3VCLog@@A
  00070	ff 15 00 00 00
	00		 call	 DWORD PTR __imp_?PrintTimeAndLog@CLog@@QAAXHPADZZ
  00076	83 c4 10	 add	 esp, 16			; 00000010H

; 363  : 		return;

  00079	eb 4e		 jmp	 SHORT $LN6@SetImg
$LN1@SetImg:

; 364  : 	}
; 365  : 
; 366  : 	m_pImgFirst  = g_UIImageSetMgr.CreateImageByFullName( pInfo->m_szEventImgFirst );

  0007b	53		 push	 ebx
  0007c	8b 1d 00 00 00
	00		 mov	 ebx, DWORD PTR __imp_?GetSingleton@ioUIImageSetManager@@SAAAV1@XZ
  00082	8d 47 24	 lea	 eax, DWORD PTR [edi+36]
  00085	50		 push	 eax
  00086	ff d3		 call	 ebx
  00088	8b c8		 mov	 ecx, eax
  0008a	ff 15 00 00 00
	00		 call	 DWORD PTR __imp_?CreateImageByFullName@ioUIImageSetManager@@QAEPAVioUIRenderImage@@ABVioHashString@@_N@Z

; 367  : 	m_pImgSecond = g_UIImageSetMgr.CreateImageByFullName( pInfo->m_szEventImgSecond );

  00090	6a 00		 push	 0
  00092	83 c7 34	 add	 edi, 52			; 00000034H
  00095	57		 push	 edi
  00096	89 86 a4 01 00
	00		 mov	 DWORD PTR [esi+420], eax
  0009c	ff d3		 call	 ebx
  0009e	8b c8		 mov	 ecx, eax
  000a0	ff 15 00 00 00
	00		 call	 DWORD PTR __imp_?CreateImageByFullName@ioUIImageSetManager@@QAEPAVioUIRenderImage@@ABVioHashString@@_N@Z
  000a6	89 86 a8 01 00
	00		 mov	 DWORD PTR [esi+424], eax
  000ac	eb 1b		 jmp	 SHORT $LN6@SetImg
$LN2@SetImg:

; 354  : 	{
; 355  : 		LOG.PrintTimeAndLog( 0, "%s VectorArray is Wrong(%d).", __FUNCTION__, iVectorArray );

  000ae	51		 push	 ecx
  000af	68 00 00 00 00	 push	 OFFSET ??_C@_0BI@HODBJLNC@EventCatalogWnd?3?3SetImg?$AA@
  000b4	68 00 00 00 00	 push	 OFFSET ??_C@_0BN@CKGKBNLC@?$CFs?5VectorArray?5is?5Wrong?$CI?$CFd?$CJ?4?$AA@
  000b9	53		 push	 ebx
  000ba	ff 35 00 00 00
	00		 push	 DWORD PTR __imp_?LOG@@3VCLog@@A
  000c0	ff 15 00 00 00
	00		 call	 DWORD PTR __imp_?PrintTimeAndLog@CLog@@QAAXHPADZZ
  000c6	83 c4 14	 add	 esp, 20			; 00000014H
$LN6@SetImg:
  000c9	5f		 pop	 edi
  000ca	5e		 pop	 esi
  000cb	5b		 pop	 ebx

; 368  : }

  000cc	5d		 pop	 ebp
  000cd	c2 04 00	 ret	 4
?SetImg@EventCatalogWnd@@IAEXH@Z ENDP			; EventCatalogWnd::SetImg
_TEXT	ENDS
PUBLIC	?GetSelectIdByEventType@EventCatalogWnd@@IAEHH@Z ; EventCatalogWnd::GetSelectIdByEventType
; Function compile flags: /Ogsp
;	COMDAT ?GetSelectIdByEventType@EventCatalogWnd@@IAEHH@Z
_TEXT	SEGMENT
_iEventType$ = 8					; size = 4
?GetSelectIdByEventType@EventCatalogWnd@@IAEHH@Z PROC	; EventCatalogWnd::GetSelectIdByEventType, COMDAT
; _this$ = ecx

; 387  : {

  00000	55		 push	 ebp
  00001	8b ec		 mov	 ebp, esp

; 388  : 	int iSize = m_vEventInfoVector.size();

  00003	8b 81 94 01 00
	00		 mov	 eax, DWORD PTR [ecx+404]
  00009	2b 81 90 01 00
	00		 sub	 eax, DWORD PTR [ecx+400]
  0000f	56		 push	 esi
  00010	c1 f8 02	 sar	 eax, 2

; 389  : 	for (int i = 0; i < iSize ; i++)

  00013	33 f6		 xor	 esi, esi
  00015	85 c0		 test	 eax, eax
  00017	7e 1c		 jle	 SHORT $LN3@GetSelectI

; 388  : 	int iSize = m_vEventInfoVector.size();

  00019	8b 89 90 01 00
	00		 mov	 ecx, DWORD PTR [ecx+400]
$LL5@GetSelectI:

; 390  : 	{
; 391  : 		EventInfo *pInfo = m_vEventInfoVector[i];

  0001f	8b 11		 mov	 edx, DWORD PTR [ecx]

; 392  : 		if( !pInfo )

  00021	85 d2		 test	 edx, edx
  00023	74 08		 je	 SHORT $LN4@GetSelectI

; 393  : 			continue;
; 394  : 		if( pInfo->m_iEventType == iEventType )

  00025	8b 52 20	 mov	 edx, DWORD PTR [edx+32]
  00028	3b 55 08	 cmp	 edx, DWORD PTR _iEventType$[ebp]
  0002b	74 10		 je	 SHORT $LN13@GetSelectI
$LN4@GetSelectI:

; 389  : 	for (int i = 0; i < iSize ; i++)

  0002d	46		 inc	 esi
  0002e	83 c1 04	 add	 ecx, 4
  00031	3b f0		 cmp	 esi, eax
  00033	7c ea		 jl	 SHORT $LL5@GetSelectI
$LN3@GetSelectI:

; 396  : 	}
; 397  : 
; 398  : 	return ID_EVENT_1_BTN;

  00035	33 c0		 xor	 eax, eax
  00037	40		 inc	 eax
$LN6@GetSelectI:
  00038	5e		 pop	 esi

; 399  : }

  00039	5d		 pop	 ebp
  0003a	c2 04 00	 ret	 4
$LN13@GetSelectI:

; 395  : 			return ( ID_EVENT_1_BTN + i );

  0003d	8d 46 01	 lea	 eax, DWORD PTR [esi+1]
  00040	eb f6		 jmp	 SHORT $LN6@GetSelectI
?GetSelectIdByEventType@EventCatalogWnd@@IAEHH@Z ENDP	; EventCatalogWnd::GetSelectIdByEventType
; Function compile flags: /Ogsp
_TEXT	ENDS
;	COMDAT ??_GEvnetChildrenDay@@UAEPAXI@Z
_TEXT	SEGMENT
___flags$ = 8						; size = 4
??_GEvnetChildrenDay@@UAEPAXI@Z PROC			; EvnetChildrenDay::`scalar deleting destructor', COMDAT
; _this$ = ecx
  00000	55		 push	 ebp
  00001	8b ec		 mov	 ebp, esp
  00003	56		 push	 esi
  00004	8b f1		 mov	 esi, ecx
  00006	e8 00 00 00 00	 call	 ??1EvnetChildrenDay@@UAE@XZ ; EvnetChildrenDay::~EvnetChildrenDay
  0000b	f6 45 08 01	 test	 BYTE PTR ___flags$[ebp], 1
  0000f	74 07		 je	 SHORT $LN1@scalar@3
  00011	56		 push	 esi
  00012	e8 00 00 00 00	 call	 ??3@YAXPAX@Z		; operator delete
  00017	59		 pop	 ecx
$LN1@scalar@3:
  00018	8b c6		 mov	 eax, esi
  0001a	5e		 pop	 esi
  0001b	5d		 pop	 ebp
  0001c	c2 04 00	 ret	 4
??_GEvnetChildrenDay@@UAEPAXI@Z ENDP			; EvnetChildrenDay::`scalar deleting destructor'
_TEXT	ENDS
PUBLIC	??_R0?AVSoldierSelectWnd@@@8			; SoldierSelectWnd `RTTI Type Descriptor'
EXTRN	?SetSelectWaitShow@SoldierSelectWnd@@QAEXH_N@Z:PROC ; SoldierSelectWnd::SetSelectWaitShow
EXTRN	?GetCharArrayToSlotIndex@ioMyInfo@@QAEHH@Z:PROC	; ioMyInfo::GetCharArrayToSlotIndex
EXTRN	?IsNetworkMode@ioPlayStage@@QAE_NXZ:PROC	; ioPlayStage::IsNetworkMode
EXTRN	__imp_?FindWnd@ioGUIManager@@QAEPAVioWnd@@K@Z:PROC
;	COMDAT ??_R0?AVSoldierSelectWnd@@@8
; File d:\lost saga for developer\youtube\tutorial\source\src\lsclient\iomyinfo.h
_DATA	SEGMENT
??_R0?AVSoldierSelectWnd@@@8 DD FLAT:??_7type_info@@6B@	; SoldierSelectWnd `RTTI Type Descriptor'
	DD	00H
	DB	'.?AVSoldierSelectWnd@@', 00H
; Function compile flags: /Ogsp
; File d:\lost saga for developer\youtube\tutorial\source\src\lsclient\gui\eventcatalogwnd.cpp
_DATA	ENDS
;	COMDAT ?iwm_command@EvnetChildrenDay@@UAEXPAVioWnd@@HK@Z
_TEXT	SEGMENT
_pWnd$ = 8						; size = 4
_cmd$ = 12						; size = 4
_param$ = 16						; size = 4
?iwm_command@EvnetChildrenDay@@UAEXPAVioWnd@@HK@Z PROC	; EvnetChildrenDay::iwm_command, COMDAT
; _this$ = ecx

; 437  : {

  00000	55		 push	 ebp
  00001	8b ec		 mov	 ebp, esp
  00003	53		 push	 ebx
  00004	56		 push	 esi
  00005	8b f1		 mov	 esi, ecx

; 438  : 	DWORD dwID = pWnd->GetID();

  00007	8b 4d 08	 mov	 ecx, DWORD PTR _pWnd$[ebp]
  0000a	57		 push	 edi
  0000b	ff 15 00 00 00
	00		 call	 DWORD PTR __imp_?GetID@ioWnd@@QBEKXZ

; 439  : 	switch( dwID )

  00011	33 ff		 xor	 edi, edi
  00013	3b c7		 cmp	 eax, edi
  00015	0f 86 a4 00 00
	00		 jbe	 $LN5@iwm_comman@2
  0001b	83 f8 02	 cmp	 eax, 2
  0001e	0f 86 8d 00 00
	00		 jbe	 $LN6@iwm_comman@2
  00024	83 f8 03	 cmp	 eax, 3
  00027	0f 85 92 00 00
	00		 jne	 $LN5@iwm_comman@2

; 446  : 		}
; 447  : 		break;
; 448  : 	case ID_ACTION:
; 449  : 		if( cmd == IOBN_BTNUP )

  0002d	83 7d 0c 11	 cmp	 DWORD PTR _cmd$[ebp], 17 ; 00000011H
  00031	0f 85 88 00 00
	00		 jne	 $LN5@iwm_comman@2

; 450  : 		{
; 451  : 			HideWnd();

  00037	8b ce		 mov	 ecx, esi
  00039	ff 15 00 00 00
	00		 call	 DWORD PTR __imp_?HideWnd@ioWnd@@QAEXXZ

; 452  : 			if( m_pPlayStage )

  0003f	39 be 60 01 00
	00		 cmp	 DWORD PTR [esi+352], edi
  00045	74 78		 je	 SHORT $LN5@iwm_comman@2

; 453  : 			{
; 454  : 				SoldierSelectWnd *pSoldier = dynamic_cast<SoldierSelectWnd*>(g_GUIMgr.FindWnd( SOLDIER_SELECT_WND ));

  00047	57		 push	 edi
  00048	68 00 00 00 00	 push	 OFFSET ??_R0?AVSoldierSelectWnd@@@8
  0004d	68 00 00 00 00	 push	 OFFSET ??_R0?AVioWnd@@@8
  00052	57		 push	 edi
  00053	68 9f 13 00 00	 push	 5023			; 0000139fH
  00058	e8 00 00 00 00	 call	 ?GetSingleton@ioSP2GUIManager@@SAAAV1@XZ ; ioSP2GUIManager::GetSingleton
  0005d	8b c8		 mov	 ecx, eax
  0005f	ff 15 00 00 00
	00		 call	 DWORD PTR __imp_?FindWnd@ioGUIManager@@QAEPAVioWnd@@K@Z
  00065	50		 push	 eax
  00066	e8 00 00 00 00	 call	 ___RTDynamicCast
  0006b	8b d8		 mov	 ebx, eax
  0006d	83 c4 14	 add	 esp, 20			; 00000014H

; 455  : 				if( pSoldier && !pSoldier->IsShow() )

  00070	3b df		 cmp	 ebx, edi
  00072	74 4b		 je	 SHORT $LN5@iwm_comman@2
  00074	8b cb		 mov	 ecx, ebx
  00076	ff 15 00 00 00
	00		 call	 DWORD PTR __imp_?IsShow@ioWnd@@QBE_NXZ
  0007c	84 c0		 test	 al, al
  0007e	75 3f		 jne	 SHORT $LN5@iwm_comman@2

; 456  : 					pSoldier->SetSelectWaitShow( g_MyInfo.GetCharArrayToSlotIndex( g_MyInfo.GetSelectCharArray() ), m_pPlayStage->IsNetworkMode() ); 

  00080	e8 00 00 00 00	 call	 ?GetSingleton@ioMyInfo@@SAAAV1@XZ ; ioMyInfo::GetSingleton
  00085	8b 8e 60 01 00
	00		 mov	 ecx, DWORD PTR [esi+352]
  0008b	8b b8 c8 00 00
	00		 mov	 edi, DWORD PTR [eax+200]
  00091	e8 00 00 00 00	 call	 ?IsNetworkMode@ioPlayStage@@QAE_NXZ ; ioPlayStage::IsNetworkMode
  00096	0f b6 c0	 movzx	 eax, al
  00099	50		 push	 eax
  0009a	57		 push	 edi
  0009b	e8 00 00 00 00	 call	 ?GetSingleton@ioMyInfo@@SAAAV1@XZ ; ioMyInfo::GetSingleton
  000a0	8b c8		 mov	 ecx, eax
  000a2	e8 00 00 00 00	 call	 ?GetCharArrayToSlotIndex@ioMyInfo@@QAEHH@Z ; ioMyInfo::GetCharArrayToSlotIndex
  000a7	50		 push	 eax
  000a8	8b cb		 mov	 ecx, ebx
  000aa	e8 00 00 00 00	 call	 ?SetSelectWaitShow@SoldierSelectWnd@@QAEXH_N@Z ; SoldierSelectWnd::SetSelectWaitShow

; 457  : 			}
; 458  : 		}
; 459  : 		break;

  000af	eb 0e		 jmp	 SHORT $LN5@iwm_comman@2
$LN6@iwm_comman@2:

; 440  : 	{
; 441  : 	case ID_EXIT:
; 442  : 	case ID_OK:
; 443  : 		if( cmd == IOBN_BTNUP )

  000b1	83 7d 0c 11	 cmp	 DWORD PTR _cmd$[ebp], 17 ; 00000011H
  000b5	75 08		 jne	 SHORT $LN5@iwm_comman@2

; 444  : 		{
; 445  : 			HideWnd();

  000b7	8b ce		 mov	 ecx, esi
  000b9	ff 15 00 00 00
	00		 call	 DWORD PTR __imp_?HideWnd@ioWnd@@QAEXXZ
$LN5@iwm_comman@2:
  000bf	5f		 pop	 edi
  000c0	5e		 pop	 esi
  000c1	5b		 pop	 ebx

; 460  : 	}
; 461  : }

  000c2	5d		 pop	 ebp
  000c3	c2 0c 00	 ret	 12			; 0000000cH
?iwm_command@EvnetChildrenDay@@UAEXPAVioWnd@@HK@Z ENDP	; EvnetChildrenDay::iwm_command
; Function compile flags: /Ogsp
_TEXT	ENDS
;	COMDAT ??_GEventMortMainWnd@@UAEPAXI@Z
_TEXT	SEGMENT
___flags$ = 8						; size = 4
??_GEventMortMainWnd@@UAEPAXI@Z PROC			; EventMortMainWnd::`scalar deleting destructor', COMDAT
; _this$ = ecx
  00000	55		 push	 ebp
  00001	8b ec		 mov	 ebp, esp
  00003	56		 push	 esi
  00004	8b f1		 mov	 esi, ecx
  00006	e8 00 00 00 00	 call	 ??1EventMortMainWnd@@UAE@XZ ; EventMortMainWnd::~EventMortMainWnd
  0000b	f6 45 08 01	 test	 BYTE PTR ___flags$[ebp], 1
  0000f	74 07		 je	 SHORT $LN1@scalar@4
  00011	56		 push	 esi
  00012	e8 00 00 00 00	 call	 ??3@YAXPAX@Z		; operator delete
  00017	59		 pop	 ecx
$LN1@scalar@4:
  00018	8b c6		 mov	 eax, esi
  0001a	5e		 pop	 esi
  0001b	5d		 pop	 ebp
  0001c	c2 04 00	 ret	 4
??_GEventMortMainWnd@@UAEPAXI@Z ENDP			; EventMortMainWnd::`scalar deleting destructor'
; Function compile flags: /Ogsp
_TEXT	ENDS
;	COMDAT ??_GEventChanceMortmainCharWnd@@UAEPAXI@Z
_TEXT	SEGMENT
___flags$ = 8						; size = 4
??_GEventChanceMortmainCharWnd@@UAEPAXI@Z PROC		; EventChanceMortmainCharWnd::`scalar deleting destructor', COMDAT
; _this$ = ecx
  00000	55		 push	 ebp
  00001	8b ec		 mov	 ebp, esp
  00003	56		 push	 esi
  00004	8b f1		 mov	 esi, ecx
  00006	e8 00 00 00 00	 call	 ??1EventChanceMortmainCharWnd@@UAE@XZ ; EventChanceMortmainCharWnd::~EventChanceMortmainCharWnd
  0000b	f6 45 08 01	 test	 BYTE PTR ___flags$[ebp], 1
  0000f	74 07		 je	 SHORT $LN1@scalar@5
  00011	56		 push	 esi
  00012	e8 00 00 00 00	 call	 ??3@YAXPAX@Z		; operator delete
  00017	59		 pop	 ecx
$LN1@scalar@5:
  00018	8b c6		 mov	 eax, esi
  0001a	5e		 pop	 esi
  0001b	5d		 pop	 ebp
  0001c	c2 04 00	 ret	 4
??_GEventChanceMortmainCharWnd@@UAEPAXI@Z ENDP		; EventChanceMortmainCharWnd::`scalar deleting destructor'
; Function compile flags: /Ogsp
_TEXT	ENDS
;	COMDAT ?iwm_show@EventChanceMortmainCharWnd@@UAEXXZ
_TEXT	SEGMENT
_pEventNode$515505 = -4					; size = 4
?iwm_show@EventChanceMortmainCharWnd@@UAEXXZ PROC	; EventChanceMortmainCharWnd::iwm_show, COMDAT
; _this$ = ecx

; 602  : {

  00000	55		 push	 ebp
  00001	8b ec		 mov	 ebp, esp
  00003	51		 push	 ecx
  00004	53		 push	 ebx
  00005	56		 push	 esi
  00006	57		 push	 edi
  00007	8b f9		 mov	 edi, ecx

; 603  : 	if( !g_EventMgr.IsAlive( EVT_CHANCE_MORTMAIN_CHAR, g_MyInfo.GetChannelingType() ) || g_GUIMgr.IsShow( EVENT_CHANCE_ROLLING_WND ) )

  00009	e8 00 00 00 00	 call	 ?GetSingleton@ioMyInfo@@SAAAV1@XZ ; ioMyInfo::GetSingleton
  0000e	8b c8		 mov	 ecx, eax
  00010	e8 00 00 00 00	 call	 ?GetChannelingType@ioMyInfo@@QBE?AW4ChannelingType@@XZ ; ioMyInfo::GetChannelingType
  00015	50		 push	 eax
  00016	6a 0b		 push	 11			; 0000000bH
  00018	e8 00 00 00 00	 call	 ?GetSingleton@ioEventManager@@SAAAV1@XZ ; ioEventManager::GetSingleton
  0001d	8b c8		 mov	 ecx, eax
  0001f	e8 00 00 00 00	 call	 ?IsAlive@ioEventManager@@QAE_NW4EventType@@W4ChannelingType@@@Z ; ioEventManager::IsAlive
  00024	84 c0		 test	 al, al
  00026	0f 84 2f 01 00
	00		 je	 $LN13@iwm_show@3
  0002c	68 ce 17 00 00	 push	 6094			; 000017ceH
  00031	e8 00 00 00 00	 call	 ?GetSingleton@ioSP2GUIManager@@SAAAV1@XZ ; ioSP2GUIManager::GetSingleton
  00036	8b c8		 mov	 ecx, eax
  00038	ff 15 00 00 00
	00		 call	 DWORD PTR __imp_?IsShow@ioGUIManager@@QAE_NK@Z
  0003e	84 c0		 test	 al, al
  00040	0f 85 15 01 00
	00		 jne	 $LN13@iwm_show@3

; 607  : 	}
; 608  : 	else
; 609  : 	{
; 610  : 		ChanceMortmainCharEventUserNode *pEventNode = dynamic_cast<ChanceMortmainCharEventUserNode*>( g_MyInfo.GetEventUserMgr().GetEventUserNode( EVT_CHANCE_MORTMAIN_CHAR ) );

  00046	33 db		 xor	 ebx, ebx
  00048	53		 push	 ebx
  00049	68 00 00 00 00	 push	 OFFSET ??_R0?AVChanceMortmainCharEventUserNode@@@8
  0004e	68 00 00 00 00	 push	 OFFSET ??_R0?AVEventUserNode@@@8
  00053	53		 push	 ebx
  00054	6a 0b		 push	 11			; 0000000bH
  00056	e8 00 00 00 00	 call	 ?GetSingleton@ioMyInfo@@SAAAV1@XZ ; ioMyInfo::GetSingleton
  0005b	8b c8		 mov	 ecx, eax
  0005d	e8 00 00 00 00	 call	 ?GetEventUserMgr@ioMyInfo@@QAEAAVEventUserManager@@XZ ; ioMyInfo::GetEventUserMgr
  00062	8b c8		 mov	 ecx, eax
  00064	e8 00 00 00 00	 call	 ?GetEventUserNode@EventUserManager@@QAEPAVEventUserNode@@W4EventType@@@Z ; EventUserManager::GetEventUserNode
  00069	50		 push	 eax
  0006a	e8 00 00 00 00	 call	 ___RTDynamicCast
  0006f	8b c8		 mov	 ecx, eax
  00071	83 c4 14	 add	 esp, 20			; 00000014H
  00074	89 4d fc	 mov	 DWORD PTR _pEventNode$515505[ebp], ecx

; 611  : 		if( pEventNode )

  00077	3b cb		 cmp	 ecx, ebx
  00079	0f 84 e4 00 00
	00		 je	 $LN1@iwm_show@3

; 612  : 		{
; 613  : 			if( pEventNode->GetValue( VA_CMC_MAGIC_CODE ) >= 0 )

  0007f	53		 push	 ebx
  00080	e8 00 00 00 00	 call	 ?GetValue@EventUserNode@@QAEHH@Z ; EventUserNode::GetValue

; 614  : 			{
; 615  : 				// 시간 게이지
; 616  : 				HideChildWnd( ID_NORMAL_CHANCE );

  00085	53		 push	 ebx
  00086	8b cf		 mov	 ecx, edi
  00088	6a 02		 push	 2
  0008a	85 c0		 test	 eax, eax
  0008c	78 1b		 js	 SHORT $LN10@iwm_show@3
  0008e	8b 35 00 00 00
	00		 mov	 esi, DWORD PTR __imp_?HideChildWnd@ioWnd@@QAEXK_N@Z
  00094	ff d6		 call	 esi

; 617  : 				HideChildWnd( ID_PCROOM_CHANCE );

  00096	53		 push	 ebx
  00097	6a 03		 push	 3
  00099	8b cf		 mov	 ecx, edi
  0009b	ff d6		 call	 esi
$LN22@iwm_show@3:

; 618  : 				HideChildWnd( ID_PCROOM_ALARM );

  0009d	53		 push	 ebx
  0009e	6a 04		 push	 4
  000a0	8b cf		 mov	 ecx, edi
  000a2	ff d6		 call	 esi

; 619  : 			}
; 620  : 			else

  000a4	e9 ba 00 00 00	 jmp	 $LN1@iwm_show@3
$LN10@iwm_show@3:

; 621  : 			{
; 622  : 				// 찬스 사용
; 623  : 				ShowChildWnd( ID_NORMAL_CHANCE );

  000a9	8b 35 00 00 00
	00		 mov	 esi, DWORD PTR __imp_?ShowChildWnd@ioWnd@@QAEXK_N@Z
  000af	ff d6		 call	 esi

; 624  : 				ShowChildWnd( ID_PCROOM_CHANCE );

  000b1	53		 push	 ebx
  000b2	6a 03		 push	 3
  000b4	8b cf		 mov	 ecx, edi
  000b6	ff d6		 call	 esi

; 625  : 				ShowChildWnd( ID_PCROOM_ALARM );

  000b8	53		 push	 ebx
  000b9	6a 04		 push	 4
  000bb	8b cf		 mov	 ecx, edi
  000bd	ff d6		 call	 esi

; 626  : 
; 627  : 				if( pEventNode->GetValue( VA_CMC_MAGIC_CODE ) == -1 )      //찬스

  000bf	8b 4d fc	 mov	 ecx, DWORD PTR _pEventNode$515505[ebp]
  000c2	53		 push	 ebx
  000c3	e8 00 00 00 00	 call	 ?GetValue@EventUserNode@@QAEHH@Z ; EventUserNode::GetValue
  000c8	83 f8 ff	 cmp	 eax, -1
  000cb	75 3d		 jne	 SHORT $LN8@iwm_show@3

; 628  : 				{
; 629  : 					SetChildActive( ID_NORMAL_CHANCE );

  000cd	6a 02		 push	 2
  000cf	8b cf		 mov	 ecx, edi
  000d1	ff 15 00 00 00
	00		 call	 DWORD PTR __imp_?SetChildActive@ioWnd@@QAEXK@Z

; 630  : 
; 631  : 					if( g_MyInfo.GetPCRoomAuthority()  || g_MyInfo.IsUserEvent() )

  000d7	e8 00 00 00 00	 call	 ?GetSingleton@ioMyInfo@@SAAAV1@XZ ; ioMyInfo::GetSingleton
  000dc	39 98 34 08 00
	00		 cmp	 DWORD PTR [eax+2100], ebx
  000e2	75 1a		 jne	 SHORT $LN6@iwm_show@3
  000e4	e8 00 00 00 00	 call	 ?GetSingleton@ioMyInfo@@SAAAV1@XZ ; ioMyInfo::GetSingleton
  000e9	38 98 39 08 00
	00		 cmp	 BYTE PTR [eax+2105], bl
  000ef	75 0d		 jne	 SHORT $LN6@iwm_show@3

; 634  : 						HideChildWnd( ID_PCROOM_ALARM );
; 635  : 					}
; 636  : 					else
; 637  : 					{
; 638  : 						HideChildWnd( ID_PCROOM_CHANCE );

  000f1	53		 push	 ebx
  000f2	6a 03		 push	 3
  000f4	8b cf		 mov	 ecx, edi
  000f6	ff 15 00 00 00
	00		 call	 DWORD PTR __imp_?HideChildWnd@ioWnd@@QAEXK_N@Z

; 639  : 						ShowChildWnd( ID_PCROOM_ALARM );

  000fc	eb 9f		 jmp	 SHORT $LN22@iwm_show@3
$LN6@iwm_show@3:

; 632  : 					{
; 633  : 						SetChildInActive( ID_PCROOM_CHANCE );

  000fe	6a 03		 push	 3
  00100	8b cf		 mov	 ecx, edi
  00102	ff 15 00 00 00
	00		 call	 DWORD PTR __imp_?SetChildInActive@ioWnd@@QAEXK@Z

; 640  : 					}

  00108	eb 22		 jmp	 SHORT $LN21@iwm_show@3
$LN8@iwm_show@3:

; 641  : 				}
; 642  : 				else if( pEventNode->GetValue( VA_CMC_MAGIC_CODE ) == -2 ) //PC방찬스

  0010a	8b 4d fc	 mov	 ecx, DWORD PTR _pEventNode$515505[ebp]
  0010d	53		 push	 ebx
  0010e	e8 00 00 00 00	 call	 ?GetValue@EventUserNode@@QAEHH@Z ; EventUserNode::GetValue
  00113	83 f8 fe	 cmp	 eax, -2			; fffffffeH
  00116	75 21		 jne	 SHORT $LN3@iwm_show@3

; 643  : 				{
; 644  : 					SetChildInActive( ID_NORMAL_CHANCE );

  00118	6a 02		 push	 2
  0011a	8b cf		 mov	 ecx, edi
  0011c	ff 15 00 00 00
	00		 call	 DWORD PTR __imp_?SetChildInActive@ioWnd@@QAEXK@Z

; 645  : 					SetChildActive( ID_PCROOM_CHANCE );

  00122	6a 03		 push	 3
  00124	8b cf		 mov	 ecx, edi
  00126	ff 15 00 00 00
	00		 call	 DWORD PTR __imp_?SetChildActive@ioWnd@@QAEXK@Z
$LN21@iwm_show@3:

; 646  : 					HideChildWnd( ID_PCROOM_ALARM );

  0012c	53		 push	 ebx
  0012d	6a 04		 push	 4
  0012f	8b cf		 mov	 ecx, edi
  00131	ff 15 00 00 00
	00		 call	 DWORD PTR __imp_?HideChildWnd@ioWnd@@QAEXK_N@Z
  00137	eb 2a		 jmp	 SHORT $LN1@iwm_show@3
$LN3@iwm_show@3:

; 647  : 				}
; 648  : 				else if( pEventNode->GetValue( VA_CMC_MAGIC_CODE ) == -3 ) //찬스 + PC방찬스

  00139	8b 4d fc	 mov	 ecx, DWORD PTR _pEventNode$515505[ebp]
  0013c	53		 push	 ebx
  0013d	e8 00 00 00 00	 call	 ?GetValue@EventUserNode@@QAEHH@Z ; EventUserNode::GetValue
  00142	83 f8 fd	 cmp	 eax, -3			; fffffffdH
  00145	75 1c		 jne	 SHORT $LN1@iwm_show@3

; 649  : 				{
; 650  : 					SetChildActive( ID_NORMAL_CHANCE );

  00147	8b 35 00 00 00
	00		 mov	 esi, DWORD PTR __imp_?SetChildActive@ioWnd@@QAEXK@Z
  0014d	6a 02		 push	 2
  0014f	8b cf		 mov	 ecx, edi
  00151	ff d6		 call	 esi

; 651  : 					SetChildActive( ID_PCROOM_CHANCE );

  00153	6a 03		 push	 3
  00155	8b cf		 mov	 ecx, edi
  00157	ff d6		 call	 esi

; 652  : 					HideChildWnd( ID_PCROOM_ALARM );

  00159	eb d1		 jmp	 SHORT $LN21@iwm_show@3
$LN13@iwm_show@3:

; 604  : 	{
; 605  : 		// 이벤트 종료
; 606  : 		HideWnd();

  0015b	8b cf		 mov	 ecx, edi
  0015d	ff 15 00 00 00
	00		 call	 DWORD PTR __imp_?HideWnd@ioWnd@@QAEXXZ
$LN1@iwm_show@3:
  00163	5f		 pop	 edi
  00164	5e		 pop	 esi
  00165	5b		 pop	 ebx

; 653  : 				}
; 654  : 			}
; 655  : 		}
; 656  : 	}
; 657  : }

  00166	c9		 leave
  00167	c3		 ret	 0
?iwm_show@EventChanceMortmainCharWnd@@UAEXXZ ENDP	; EventChanceMortmainCharWnd::iwm_show
_TEXT	ENDS
PUBLIC	??_C@_0CI@IBKFIIDH@EventChanceMortmainCharWnd?3?3iwm_@ ; `string'
PUBLIC	_this$GSCopy$
PUBLIC	__$ArrayPad$
EXTRN	??1SP2Packet@@UAE@XZ:PROC			; SP2Packet::~SP2Packet
EXTRN	?SendToServer@TCPNetwork@@YAXAAVSP2Packet@@@Z:PROC ; TCPNetwork::SendToServer
EXTRN	??6SP2Packet@@QAEAAV0@H@Z:PROC			; SP2Packet::operator<<
EXTRN	??0SP2Packet@@QAE@K@Z:PROC			; SP2Packet::SP2Packet
EXTRN	?SetValue@EventUserNode@@QAEXHH@Z:PROC		; EventUserNode::SetValue
EXTRN	?SetMsgBox@ioSP2GUIManager@@QAAXHPAVioWnd@@PBDZZ:PROC ; ioSP2GUIManager::SetMsgBox
EXTRN	__chkstk:PROC
;	COMDAT ??_C@_0CI@IBKFIIDH@EventChanceMortmainCharWnd?3?3iwm_@
CONST	SEGMENT
??_C@_0CI@IBKFIIDH@EventChanceMortmainCharWnd?3?3iwm_@ DB 'EventChanceMor'
	DB	'tmainCharWnd::iwm_command', 00H		; `string'
CONST	ENDS
;	COMDAT xdata$x
xdata$x	SEGMENT
__unwindtable$?iwm_command@EventChanceMortmainCharWnd@@UAEXPAVioWnd@@HK@Z DD 0ffffffffH
	DD	FLAT:__unwindfunclet$?iwm_command@EventChanceMortmainCharWnd@@UAEXPAVioWnd@@HK@Z$0
	DD	0ffffffffH
	DD	FLAT:__unwindfunclet$?iwm_command@EventChanceMortmainCharWnd@@UAEXPAVioWnd@@HK@Z$1
__ehfuncinfo$?iwm_command@EventChanceMortmainCharWnd@@UAEXPAVioWnd@@HK@Z DD 019930522H
	DD	02H
	DD	FLAT:__unwindtable$?iwm_command@EventChanceMortmainCharWnd@@UAEXPAVioWnd@@HK@Z
	DD	2 DUP(00H)
	DD	2 DUP(00H)
	DD	00H
	DD	01H
; Function compile flags: /Ogsp
xdata$x	ENDS
;	COMDAT ?iwm_command@EventChanceMortmainCharWnd@@UAEXPAVioWnd@@HK@Z
_TEXT	SEGMENT
_this$GSCopy$ = -65604					; size = 4
_kPacketPeso$515545 = -65600				; size = 32792
_kPacketPeso$515558 = -32808				; size = 32792
__$ArrayPad$ = -16					; size = 4
__$EHRec$ = -12						; size = 12
_pWnd$ = 8						; size = 4
_cmd$ = 12						; size = 4
_param$ = 16						; size = 4
?iwm_command@EventChanceMortmainCharWnd@@UAEXPAVioWnd@@HK@Z PROC ; EventChanceMortmainCharWnd::iwm_command, COMDAT
; _this$ = ecx

; 660  : {

  00000	55		 push	 ebp
  00001	8b ec		 mov	 ebp, esp
  00003	6a ff		 push	 -1
  00005	68 00 00 00 00	 push	 __ehhandler$?iwm_command@EventChanceMortmainCharWnd@@UAEXPAVioWnd@@HK@Z
  0000a	64 a1 00 00 00
	00		 mov	 eax, DWORD PTR fs:0
  00010	50		 push	 eax
  00011	b8 38 00 01 00	 mov	 eax, 65592		; 00010038H
  00016	e8 00 00 00 00	 call	 __chkstk
  0001b	a1 00 00 00 00	 mov	 eax, DWORD PTR ___security_cookie
  00020	33 c5		 xor	 eax, ebp
  00022	89 45 f0	 mov	 DWORD PTR __$ArrayPad$[ebp], eax
  00025	53		 push	 ebx
  00026	56		 push	 esi
  00027	57		 push	 edi
  00028	50		 push	 eax
  00029	8d 45 f4	 lea	 eax, DWORD PTR __$EHRec$[ebp]
  0002c	64 a3 00 00 00
	00		 mov	 DWORD PTR fs:0, eax
  00032	89 8d bc ff fe
	ff		 mov	 DWORD PTR _this$GSCopy$[ebp], ecx
  00038	8b 4d 08	 mov	 ecx, DWORD PTR _pWnd$[ebp]

; 661  : 	DWORD dwID = pWnd->GetID();

  0003b	ff 15 00 00 00
	00		 call	 DWORD PTR __imp_?GetID@ioWnd@@QBEKXZ

; 662  : 	switch( dwID )

  00041	48		 dec	 eax
  00042	0f 84 66 02 00
	00		 je	 $LN20@iwm_comman@3
  00048	48		 dec	 eax
  00049	0f 84 4e 01 00
	00		 je	 $LN18@iwm_comman@3
  0004f	48		 dec	 eax
  00050	74 44		 je	 SHORT $LN10@iwm_comman@3
  00052	48		 dec	 eax
  00053	0f 85 67 02 00
	00		 jne	 $LN19@iwm_comman@3

; 732  : 	case ID_PCROOM_ALARM:
; 733  : 		if( cmd == IOBN_BTNUP )

  00059	83 7d 0c 11	 cmp	 DWORD PTR _cmd$[ebp], 17 ; 00000011H
  0005d	0f 85 5d 02 00
	00		 jne	 $LN19@iwm_comman@3

; 734  : 		{
; 735  : 			g_GUIMgr.SetMsgBox( MB_OK, NULL, STR(1) );

  00063	33 f6		 xor	 esi, esi
  00065	56		 push	 esi
  00066	6a 01		 push	 1
  00068	68 00 00 00 00	 push	 OFFSET ??_C@_00CNPNBAHC@?$AA@
  0006d	68 00 00 00 00	 push	 OFFSET ??_C@_0CI@IBKFIIDH@EventChanceMortmainCharWnd?3?3iwm_@
  00072	ff 15 00 00 00
	00		 call	 DWORD PTR __imp_?GetSingleton@ioStringManager@@SAAAV1@XZ
  00078	8b c8		 mov	 ecx, eax
  0007a	ff 15 00 00 00
	00		 call	 DWORD PTR __imp_?GetString@ioStringManager@@QAEPADPBD0HW4FileNamePrefix@1@@Z
  00080	50		 push	 eax
  00081	56		 push	 esi
  00082	56		 push	 esi
  00083	e8 00 00 00 00	 call	 ?GetSingleton@ioSP2GUIManager@@SAAAV1@XZ ; ioSP2GUIManager::GetSingleton
  00088	50		 push	 eax
  00089	e8 00 00 00 00	 call	 ?SetMsgBox@ioSP2GUIManager@@QAAXHPAVioWnd@@PBDZZ ; ioSP2GUIManager::SetMsgBox
  0008e	83 c4 10	 add	 esp, 16			; 00000010H

; 736  : 		}
; 737  : 		break;

  00091	e9 2a 02 00 00	 jmp	 $LN19@iwm_comman@3
$LN10@iwm_comman@3:

; 701  : 	case ID_PCROOM_CHANCE:
; 702  : 		if( cmd == IOBN_BTNUP )

  00096	83 7d 0c 11	 cmp	 DWORD PTR _cmd$[ebp], 17 ; 00000011H
  0009a	0f 85 20 02 00
	00		 jne	 $LN19@iwm_comman@3

; 703  : 		{
; 704  : 			ChanceMortmainCharEventUserNode *pEventNode = dynamic_cast<ChanceMortmainCharEventUserNode*>( g_MyInfo.GetEventUserMgr().GetEventUserNode( EVT_CHANCE_MORTMAIN_CHAR ) );

  000a0	33 f6		 xor	 esi, esi
  000a2	56		 push	 esi
  000a3	68 00 00 00 00	 push	 OFFSET ??_R0?AVChanceMortmainCharEventUserNode@@@8
  000a8	68 00 00 00 00	 push	 OFFSET ??_R0?AVEventUserNode@@@8
  000ad	56		 push	 esi
  000ae	6a 0b		 push	 11			; 0000000bH
  000b0	e8 00 00 00 00	 call	 ?GetSingleton@ioMyInfo@@SAAAV1@XZ ; ioMyInfo::GetSingleton
  000b5	8b c8		 mov	 ecx, eax
  000b7	e8 00 00 00 00	 call	 ?GetEventUserMgr@ioMyInfo@@QAEAAVEventUserManager@@XZ ; ioMyInfo::GetEventUserMgr
  000bc	8b c8		 mov	 ecx, eax
  000be	e8 00 00 00 00	 call	 ?GetEventUserNode@EventUserManager@@QAEPAVEventUserNode@@W4EventType@@@Z ; EventUserManager::GetEventUserNode
  000c3	50		 push	 eax
  000c4	e8 00 00 00 00	 call	 ___RTDynamicCast

; 705  : 			if( pEventNode )

  000c9	8b 1d 00 00 00
	00		 mov	 ebx, DWORD PTR __imp_?HideWnd@ioWnd@@QAEXXZ
  000cf	8b f8		 mov	 edi, eax
  000d1	83 c4 14	 add	 esp, 20			; 00000014H
  000d4	3b fe		 cmp	 edi, esi
  000d6	0f 84 c8 01 00
	00		 je	 $LN15@iwm_comman@3

; 706  : 			{
; 707  : 				if( pEventNode->GetValue( VA_CMC_MAGIC_CODE ) == -2 || pEventNode->GetValue( VA_CMC_MAGIC_CODE ) == -3 )

  000dc	56		 push	 esi
  000dd	8b cf		 mov	 ecx, edi
  000df	e8 00 00 00 00	 call	 ?GetValue@EventUserNode@@QAEHH@Z ; EventUserNode::GetValue
  000e4	83 f8 fe	 cmp	 eax, -2			; fffffffeH
  000e7	74 11		 je	 SHORT $LN6@iwm_comman@3
  000e9	56		 push	 esi
  000ea	8b cf		 mov	 ecx, edi
  000ec	e8 00 00 00 00	 call	 ?GetValue@EventUserNode@@QAEHH@Z ; EventUserNode::GetValue
  000f1	83 f8 fd	 cmp	 eax, -3			; fffffffdH
  000f4	0f 85 aa 01 00
	00		 jne	 $LN15@iwm_comman@3
$LN6@iwm_comman@3:

; 708  : 				{
; 709  : 					if( pEventNode->GetValue( VA_CMC_MAGIC_CODE ) == -3 )

  000fa	56		 push	 esi
  000fb	8b cf		 mov	 ecx, edi
  000fd	e8 00 00 00 00	 call	 ?GetValue@EventUserNode@@QAEHH@Z ; EventUserNode::GetValue

; 710  : 						pEventNode->SetValue( VA_CMC_MAGIC_CODE, -1 );

  00102	8b cf		 mov	 ecx, edi
  00104	83 f8 fd	 cmp	 eax, -3			; fffffffdH
  00107	75 04		 jne	 SHORT $LN5@iwm_comman@3
  00109	6a ff		 push	 -1

; 711  : 					else

  0010b	eb 01		 jmp	 SHORT $LN29@iwm_comman@3
$LN5@iwm_comman@3:

; 712  : 						pEventNode->SetValue( VA_CMC_MAGIC_CODE, 0 );

  0010d	56		 push	 esi
$LN29@iwm_comman@3:
  0010e	56		 push	 esi
  0010f	e8 00 00 00 00	 call	 ?SetValue@EventUserNode@@QAEXHH@Z ; EventUserNode::SetValue

; 713  : 
; 714  : 					// 찬스 사용
; 715  : 					EventChanceRollingWnd *pRolling = dynamic_cast<EventChanceRollingWnd *>( g_GUIMgr.FindWnd( EVENT_CHANCE_ROLLING_WND ) );

  00114	56		 push	 esi
  00115	68 00 00 00 00	 push	 OFFSET ??_R0?AVEventChanceRollingWnd@@@8
  0011a	68 00 00 00 00	 push	 OFFSET ??_R0?AVioWnd@@@8
  0011f	56		 push	 esi
  00120	68 ce 17 00 00	 push	 6094			; 000017ceH
  00125	e8 00 00 00 00	 call	 ?GetSingleton@ioSP2GUIManager@@SAAAV1@XZ ; ioSP2GUIManager::GetSingleton
  0012a	8b c8		 mov	 ecx, eax
  0012c	ff 15 00 00 00
	00		 call	 DWORD PTR __imp_?FindWnd@ioGUIManager@@QAEPAVioWnd@@K@Z
  00132	50		 push	 eax
  00133	e8 00 00 00 00	 call	 ___RTDynamicCast
  00138	8b f8		 mov	 edi, eax
  0013a	83 c4 14	 add	 esp, 20			; 00000014H

; 716  : 					if( pRolling )

  0013d	3b fe		 cmp	 edi, esi
  0013f	74 13		 je	 SHORT $LN3@iwm_comman@3

; 717  : 					{
; 718  : 						pRolling->HideWnd();

  00141	8b cf		 mov	 ecx, edi
  00143	ff d3		 call	 ebx

; 719  : 						pRolling->StartRandAni();

  00145	8b cf		 mov	 ecx, edi
  00147	e8 00 00 00 00	 call	 ?StartRandAni@EventChanceRollingWnd@@QAEXXZ ; EventChanceRollingWnd::StartRandAni

; 720  : 						pRolling->ShowWnd();

  0014c	8b cf		 mov	 ecx, edi
  0014e	ff 15 00 00 00
	00		 call	 DWORD PTR __imp_?ShowWnd@ioWnd@@QAEXXZ
$LN3@iwm_comman@3:

; 721  : 					}
; 722  : 
; 723  : 					SP2Packet kPacketPeso( CTPK_EVENT_DATA_UPDATE );

  00154	68 72 01 00 00	 push	 370			; 00000172H
  00159	8d 8d d8 7f ff
	ff		 lea	 ecx, DWORD PTR _kPacketPeso$515558[ebp]
  0015f	e8 00 00 00 00	 call	 ??0SP2Packet@@QAE@K@Z	; SP2Packet::SP2Packet

; 724  : 					kPacketPeso << EVT_CHANCE_MORTMAIN_CHAR;

  00164	6a 0b		 push	 11			; 0000000bH
  00166	8d 8d d8 7f ff
	ff		 lea	 ecx, DWORD PTR _kPacketPeso$515558[ebp]
  0016c	c7 45 fc 01 00
	00 00		 mov	 DWORD PTR __$EHRec$[ebp+8], 1
  00173	e8 00 00 00 00	 call	 ??6SP2Packet@@QAEAAV0@H@Z ; SP2Packet::operator<<

; 725  : 					kPacketPeso << -2;

  00178	6a fe		 push	 -2			; fffffffeH
  0017a	8d 8d d8 7f ff
	ff		 lea	 ecx, DWORD PTR _kPacketPeso$515558[ebp]
  00180	e8 00 00 00 00	 call	 ??6SP2Packet@@QAEAAV0@H@Z ; SP2Packet::operator<<

; 726  : 					TCPNetwork::SendToServer( kPacketPeso );

  00185	8d 85 d8 7f ff
	ff		 lea	 eax, DWORD PTR _kPacketPeso$515558[ebp]
  0018b	50		 push	 eax
  0018c	e8 00 00 00 00	 call	 ?SendToServer@TCPNetwork@@YAXAAVSP2Packet@@@Z ; TCPNetwork::SendToServer
  00191	59		 pop	 ecx

; 727  : 				}			

  00192	8d 8d d8 7f ff
	ff		 lea	 ecx, DWORD PTR _kPacketPeso$515558[ebp]

; 728  : 			}
; 729  : 			HideWnd();
; 730  : 		}
; 731  : 		break;

  00198	e9 fe 00 00 00	 jmp	 $LN32@iwm_comman@3
$LN18@iwm_comman@3:

; 668  : 		}
; 669  : 		break;
; 670  : 	case ID_NORMAL_CHANCE:
; 671  : 		if( cmd == IOBN_BTNUP )

  0019d	83 7d 0c 11	 cmp	 DWORD PTR _cmd$[ebp], 17 ; 00000011H
  001a1	0f 85 19 01 00
	00		 jne	 $LN19@iwm_comman@3

; 672  : 		{
; 673  : 			ChanceMortmainCharEventUserNode *pEventNode = dynamic_cast<ChanceMortmainCharEventUserNode*>( g_MyInfo.GetEventUserMgr().GetEventUserNode( EVT_CHANCE_MORTMAIN_CHAR ) );

  001a7	33 f6		 xor	 esi, esi
  001a9	56		 push	 esi
  001aa	68 00 00 00 00	 push	 OFFSET ??_R0?AVChanceMortmainCharEventUserNode@@@8
  001af	68 00 00 00 00	 push	 OFFSET ??_R0?AVEventUserNode@@@8
  001b4	56		 push	 esi
  001b5	6a 0b		 push	 11			; 0000000bH
  001b7	e8 00 00 00 00	 call	 ?GetSingleton@ioMyInfo@@SAAAV1@XZ ; ioMyInfo::GetSingleton
  001bc	8b c8		 mov	 ecx, eax
  001be	e8 00 00 00 00	 call	 ?GetEventUserMgr@ioMyInfo@@QAEAAVEventUserManager@@XZ ; ioMyInfo::GetEventUserMgr
  001c3	8b c8		 mov	 ecx, eax
  001c5	e8 00 00 00 00	 call	 ?GetEventUserNode@EventUserManager@@QAEPAVEventUserNode@@W4EventType@@@Z ; EventUserManager::GetEventUserNode
  001ca	50		 push	 eax
  001cb	e8 00 00 00 00	 call	 ___RTDynamicCast

; 674  : 			if( pEventNode )

  001d0	8b 1d 00 00 00
	00		 mov	 ebx, DWORD PTR __imp_?HideWnd@ioWnd@@QAEXXZ
  001d6	8b f8		 mov	 edi, eax
  001d8	83 c4 14	 add	 esp, 20			; 00000014H
  001db	3b fe		 cmp	 edi, esi
  001dd	0f 84 c1 00 00
	00		 je	 $LN15@iwm_comman@3

; 675  : 			{
; 676  : 				if( pEventNode->GetValue( VA_CMC_MAGIC_CODE ) == -1 || pEventNode->GetValue( VA_CMC_MAGIC_CODE ) == -3 )

  001e3	56		 push	 esi
  001e4	8b cf		 mov	 ecx, edi
  001e6	e8 00 00 00 00	 call	 ?GetValue@EventUserNode@@QAEHH@Z ; EventUserNode::GetValue
  001eb	83 f8 ff	 cmp	 eax, -1
  001ee	74 11		 je	 SHORT $LN14@iwm_comman@3
  001f0	56		 push	 esi
  001f1	8b cf		 mov	 ecx, edi
  001f3	e8 00 00 00 00	 call	 ?GetValue@EventUserNode@@QAEHH@Z ; EventUserNode::GetValue
  001f8	83 f8 fd	 cmp	 eax, -3			; fffffffdH
  001fb	0f 85 a3 00 00
	00		 jne	 $LN15@iwm_comman@3
$LN14@iwm_comman@3:

; 677  : 				{
; 678  : 					if( pEventNode->GetValue( VA_CMC_MAGIC_CODE ) == -3 )

  00201	56		 push	 esi
  00202	8b cf		 mov	 ecx, edi
  00204	e8 00 00 00 00	 call	 ?GetValue@EventUserNode@@QAEHH@Z ; EventUserNode::GetValue

; 679  : 						pEventNode->SetValue( VA_CMC_MAGIC_CODE, -2 );

  00209	8b cf		 mov	 ecx, edi
  0020b	83 f8 fd	 cmp	 eax, -3			; fffffffdH
  0020e	75 04		 jne	 SHORT $LN13@iwm_comman@3
  00210	6a fe		 push	 -2			; fffffffeH

; 680  : 					else

  00212	eb 01		 jmp	 SHORT $LN30@iwm_comman@3
$LN13@iwm_comman@3:

; 681  : 						pEventNode->SetValue( VA_CMC_MAGIC_CODE, 0 );

  00214	56		 push	 esi
$LN30@iwm_comman@3:
  00215	56		 push	 esi
  00216	e8 00 00 00 00	 call	 ?SetValue@EventUserNode@@QAEXHH@Z ; EventUserNode::SetValue

; 682  : 
; 683  : 					// 찬스 사용
; 684  : 					EventChanceRollingWnd *pRolling = dynamic_cast<EventChanceRollingWnd *>( g_GUIMgr.FindWnd( EVENT_CHANCE_ROLLING_WND ) );

  0021b	56		 push	 esi
  0021c	68 00 00 00 00	 push	 OFFSET ??_R0?AVEventChanceRollingWnd@@@8
  00221	68 00 00 00 00	 push	 OFFSET ??_R0?AVioWnd@@@8
  00226	56		 push	 esi
  00227	68 ce 17 00 00	 push	 6094			; 000017ceH
  0022c	e8 00 00 00 00	 call	 ?GetSingleton@ioSP2GUIManager@@SAAAV1@XZ ; ioSP2GUIManager::GetSingleton
  00231	8b c8		 mov	 ecx, eax
  00233	ff 15 00 00 00
	00		 call	 DWORD PTR __imp_?FindWnd@ioGUIManager@@QAEPAVioWnd@@K@Z
  00239	50		 push	 eax
  0023a	e8 00 00 00 00	 call	 ___RTDynamicCast
  0023f	8b f8		 mov	 edi, eax
  00241	83 c4 14	 add	 esp, 20			; 00000014H

; 685  : 					if( pRolling )

  00244	3b fe		 cmp	 edi, esi
  00246	74 13		 je	 SHORT $LN11@iwm_comman@3

; 686  : 					{
; 687  : 						pRolling->HideWnd();

  00248	8b cf		 mov	 ecx, edi
  0024a	ff d3		 call	 ebx

; 688  : 						pRolling->StartRandAni();

  0024c	8b cf		 mov	 ecx, edi
  0024e	e8 00 00 00 00	 call	 ?StartRandAni@EventChanceRollingWnd@@QAEXXZ ; EventChanceRollingWnd::StartRandAni

; 689  : 						pRolling->ShowWnd();

  00253	8b cf		 mov	 ecx, edi
  00255	ff 15 00 00 00
	00		 call	 DWORD PTR __imp_?ShowWnd@ioWnd@@QAEXXZ
$LN11@iwm_comman@3:

; 690  : 					}
; 691  : 
; 692  : 					SP2Packet kPacketPeso( CTPK_EVENT_DATA_UPDATE );

  0025b	68 72 01 00 00	 push	 370			; 00000172H
  00260	8d 8d c0 ff fe
	ff		 lea	 ecx, DWORD PTR _kPacketPeso$515545[ebp]
  00266	e8 00 00 00 00	 call	 ??0SP2Packet@@QAE@K@Z	; SP2Packet::SP2Packet

; 693  : 					kPacketPeso << EVT_CHANCE_MORTMAIN_CHAR;

  0026b	6a 0b		 push	 11			; 0000000bH
  0026d	8d 8d c0 ff fe
	ff		 lea	 ecx, DWORD PTR _kPacketPeso$515545[ebp]
  00273	89 75 fc	 mov	 DWORD PTR __$EHRec$[ebp+8], esi
  00276	e8 00 00 00 00	 call	 ??6SP2Packet@@QAEAAV0@H@Z ; SP2Packet::operator<<

; 694  : 					kPacketPeso << -1;

  0027b	6a ff		 push	 -1
  0027d	8d 8d c0 ff fe
	ff		 lea	 ecx, DWORD PTR _kPacketPeso$515545[ebp]
  00283	e8 00 00 00 00	 call	 ??6SP2Packet@@QAEAAV0@H@Z ; SP2Packet::operator<<

; 695  : 					TCPNetwork::SendToServer( kPacketPeso );

  00288	8d 85 c0 ff fe
	ff		 lea	 eax, DWORD PTR _kPacketPeso$515545[ebp]
  0028e	50		 push	 eax
  0028f	e8 00 00 00 00	 call	 ?SendToServer@TCPNetwork@@YAXAAVSP2Packet@@@Z ; TCPNetwork::SendToServer
  00294	59		 pop	 ecx

; 696  : 				}

  00295	8d 8d c0 ff fe
	ff		 lea	 ecx, DWORD PTR _kPacketPeso$515545[ebp]
$LN32@iwm_comman@3:
  0029b	83 4d fc ff	 or	 DWORD PTR __$EHRec$[ebp+8], -1
  0029f	e8 00 00 00 00	 call	 ??1SP2Packet@@UAE@XZ	; SP2Packet::~SP2Packet
$LN15@iwm_comman@3:

; 697  : 			}
; 698  : 			HideWnd();

  002a4	8b 8d bc ff fe
	ff		 mov	 ecx, DWORD PTR _this$GSCopy$[ebp]
  002aa	ff d3		 call	 ebx

; 699  : 		}
; 700  : 		break;

  002ac	eb 12		 jmp	 SHORT $LN19@iwm_comman@3
$LN20@iwm_comman@3:

; 663  : 	{
; 664  : 	case ID_EXIT:
; 665  : 		if( cmd == IOBN_BTNUP )

  002ae	83 7d 0c 11	 cmp	 DWORD PTR _cmd$[ebp], 17 ; 00000011H
  002b2	75 0c		 jne	 SHORT $LN19@iwm_comman@3

; 666  : 		{
; 667  : 			HideWnd();

  002b4	8b 8d bc ff fe
	ff		 mov	 ecx, DWORD PTR _this$GSCopy$[ebp]
  002ba	ff 15 00 00 00
	00		 call	 DWORD PTR __imp_?HideWnd@ioWnd@@QAEXXZ
$LN19@iwm_comman@3:

; 738  : 	}
; 739  : }

  002c0	8b 4d f4	 mov	 ecx, DWORD PTR __$EHRec$[ebp]
  002c3	64 89 0d 00 00
	00 00		 mov	 DWORD PTR fs:0, ecx
  002ca	59		 pop	 ecx
  002cb	5f		 pop	 edi
  002cc	5e		 pop	 esi
  002cd	5b		 pop	 ebx
  002ce	8b 4d f0	 mov	 ecx, DWORD PTR __$ArrayPad$[ebp]
  002d1	33 cd		 xor	 ecx, ebp
  002d3	e8 00 00 00 00	 call	 @__security_check_cookie@4
  002d8	c9		 leave
  002d9	c2 0c 00	 ret	 12			; 0000000cH
_TEXT	ENDS
;	COMDAT text$x
text$x	SEGMENT
__unwindfunclet$?iwm_command@EventChanceMortmainCharWnd@@UAEXPAVioWnd@@HK@Z$1:
  00000	8d 8d d8 7f ff
	ff		 lea	 ecx, DWORD PTR _kPacketPeso$515558[ebp]
  00006	e9 00 00 00 00	 jmp	 ??1SP2Packet@@UAE@XZ	; SP2Packet::~SP2Packet
__unwindfunclet$?iwm_command@EventChanceMortmainCharWnd@@UAEXPAVioWnd@@HK@Z$0:
  0000b	8d 8d c0 ff fe
	ff		 lea	 ecx, DWORD PTR _kPacketPeso$515545[ebp]
  00011	e9 00 00 00 00	 jmp	 ??1SP2Packet@@UAE@XZ	; SP2Packet::~SP2Packet
__ehhandler$?iwm_command@EventChanceMortmainCharWnd@@UAEXPAVioWnd@@HK@Z:
  00016	8b 54 24 08	 mov	 edx, DWORD PTR [esp+8]
  0001a	8d 42 0c	 lea	 eax, DWORD PTR [edx+12]
  0001d	8b 8a b8 ff fe
	ff		 mov	 ecx, DWORD PTR [edx-65608]
  00023	33 c8		 xor	 ecx, eax
  00025	e8 00 00 00 00	 call	 @__security_check_cookie@4
  0002a	8b 4a fc	 mov	 ecx, DWORD PTR [edx-4]
  0002d	33 c8		 xor	 ecx, eax
  0002f	e8 00 00 00 00	 call	 @__security_check_cookie@4
  00034	b8 00 00 00 00	 mov	 eax, OFFSET __ehfuncinfo$?iwm_command@EventChanceMortmainCharWnd@@UAEXPAVioWnd@@HK@Z
  00039	e9 00 00 00 00	 jmp	 ___CxxFrameHandler3
text$x	ENDS
?iwm_command@EventChanceMortmainCharWnd@@UAEXPAVioWnd@@HK@Z ENDP ; EventChanceMortmainCharWnd::iwm_command
; Function compile flags: /Ogsp
;	COMDAT ??_GEventChanceRollingWnd@@UAEPAXI@Z
_TEXT	SEGMENT
___flags$ = 8						; size = 4
??_GEventChanceRollingWnd@@UAEPAXI@Z PROC		; EventChanceRollingWnd::`scalar deleting destructor', COMDAT
; _this$ = ecx
  00000	55		 push	 ebp
  00001	8b ec		 mov	 ebp, esp
  00003	56		 push	 esi
  00004	8b f1		 mov	 esi, ecx
  00006	e8 00 00 00 00	 call	 ??1EventChanceRollingWnd@@UAE@XZ ; EventChanceRollingWnd::~EventChanceRollingWnd
  0000b	f6 45 08 01	 test	 BYTE PTR ___flags$[ebp], 1
  0000f	74 07		 je	 SHORT $LN1@scalar@6
  00011	56		 push	 esi
  00012	e8 00 00 00 00	 call	 ??3@YAXPAX@Z		; operator delete
  00017	59		 pop	 ecx
$LN1@scalar@6:
  00018	8b c6		 mov	 eax, esi
  0001a	5e		 pop	 esi
  0001b	5d		 pop	 ebp
  0001c	c2 04 00	 ret	 4
??_GEventChanceRollingWnd@@UAEPAXI@Z ENDP		; EventChanceRollingWnd::`scalar deleting destructor'
_TEXT	ENDS
PUBLIC	__$ArrayPad$
;	COMDAT xdata$x
xdata$x	SEGMENT
__unwindtable$?iwm_command@EventChanceRollingWnd@@UAEXPAVioWnd@@HK@Z DD 0ffffffffH
	DD	FLAT:__unwindfunclet$?iwm_command@EventChanceRollingWnd@@UAEXPAVioWnd@@HK@Z$0
__ehfuncinfo$?iwm_command@EventChanceRollingWnd@@UAEXPAVioWnd@@HK@Z DD 019930522H
	DD	01H
	DD	FLAT:__unwindtable$?iwm_command@EventChanceRollingWnd@@UAEXPAVioWnd@@HK@Z
	DD	2 DUP(00H)
	DD	2 DUP(00H)
	DD	00H
	DD	01H
; Function compile flags: /Ogsp
xdata$x	ENDS
;	COMDAT ?iwm_command@EventChanceRollingWnd@@UAEXPAVioWnd@@HK@Z
_TEXT	SEGMENT
_kPacket$515722 = -32808				; size = 32792
__$ArrayPad$ = -16					; size = 4
__$EHRec$ = -12						; size = 12
_pWnd$ = 8						; size = 4
_cmd$ = 12						; size = 4
_param$ = 16						; size = 4
?iwm_command@EventChanceRollingWnd@@UAEXPAVioWnd@@HK@Z PROC ; EventChanceRollingWnd::iwm_command, COMDAT
; _this$ = ecx

; 947  : {

  00000	55		 push	 ebp
  00001	8b ec		 mov	 ebp, esp
  00003	6a ff		 push	 -1
  00005	68 00 00 00 00	 push	 __ehhandler$?iwm_command@EventChanceRollingWnd@@UAEXPAVioWnd@@HK@Z
  0000a	64 a1 00 00 00
	00		 mov	 eax, DWORD PTR fs:0
  00010	50		 push	 eax
  00011	b8 1c 80 00 00	 mov	 eax, 32796		; 0000801cH
  00016	e8 00 00 00 00	 call	 __chkstk
  0001b	a1 00 00 00 00	 mov	 eax, DWORD PTR ___security_cookie
  00020	33 c5		 xor	 eax, ebp
  00022	89 45 f0	 mov	 DWORD PTR __$ArrayPad$[ebp], eax
  00025	53		 push	 ebx
  00026	56		 push	 esi
  00027	57		 push	 edi
  00028	50		 push	 eax
  00029	8d 45 f4	 lea	 eax, DWORD PTR __$EHRec$[ebp]
  0002c	64 a3 00 00 00
	00		 mov	 DWORD PTR fs:0, eax
  00032	8b d9		 mov	 ebx, ecx
  00034	8b 4d 08	 mov	 ecx, DWORD PTR _pWnd$[ebp]

; 948  : 	DWORD dwID = pWnd->GetID();

  00037	ff 15 00 00 00
	00		 call	 DWORD PTR __imp_?GetID@ioWnd@@QBEKXZ

; 949  : 	switch( dwID )

  0003d	48		 dec	 eax
  0003e	74 06		 je	 SHORT $LN7@iwm_comman@4
  00040	48		 dec	 eax
  00041	74 34		 je	 SHORT $LN5@iwm_comman@4
  00043	48		 dec	 eax
  00044	75 15		 jne	 SHORT $LN6@iwm_comman@4
$LN7@iwm_comman@4:

; 950  : 	{
; 951  : 	case ID_EXIT:
; 952  : 	case ID_OK:
; 953  : 		if( cmd == IOBN_BTNUP )

  00046	83 7d 0c 11	 cmp	 DWORD PTR _cmd$[ebp], 17 ; 00000011H
  0004a	75 0f		 jne	 SHORT $LN6@iwm_comman@4

; 954  : 		{
; 955  : 			sg_bShow = false;
; 956  : 			HideWnd();

  0004c	8b cb		 mov	 ecx, ebx
  0004e	c6 05 00 00 00
	00 00		 mov	 BYTE PTR ?sg_bShow@EventChanceRollingWnd@@1_NA, 0 ; EventChanceRollingWnd::sg_bShow
  00055	ff 15 00 00 00
	00		 call	 DWORD PTR __imp_?HideWnd@ioWnd@@QAEXXZ
$LN6@iwm_comman@4:

; 980  : 	}
; 981  : }

  0005b	8b 4d f4	 mov	 ecx, DWORD PTR __$EHRec$[ebp]
  0005e	64 89 0d 00 00
	00 00		 mov	 DWORD PTR fs:0, ecx
  00065	59		 pop	 ecx
  00066	5f		 pop	 edi
  00067	5e		 pop	 esi
  00068	5b		 pop	 ebx
  00069	8b 4d f0	 mov	 ecx, DWORD PTR __$ArrayPad$[ebp]
  0006c	33 cd		 xor	 ecx, ebp
  0006e	e8 00 00 00 00	 call	 @__security_check_cookie@4
  00073	c9		 leave
  00074	c2 0c 00	 ret	 12			; 0000000cH
$LN5@iwm_comman@4:

; 957  : 		}
; 958  : 		break;
; 959  : 	case ID_CHANCE:
; 960  : 		if( cmd == IOBN_BTNUP )

  00077	83 7d 0c 11	 cmp	 DWORD PTR _cmd$[ebp], 17 ; 00000011H
  0007b	75 de		 jne	 SHORT $LN6@iwm_comman@4

; 961  : 		{
; 962  : 			ChanceMortmainCharEventUserNode *pEventNode = dynamic_cast<ChanceMortmainCharEventUserNode*>( g_MyInfo.GetEventUserMgr().GetEventUserNode( EVT_CHANCE_MORTMAIN_CHAR ) );

  0007d	33 f6		 xor	 esi, esi
  0007f	56		 push	 esi
  00080	68 00 00 00 00	 push	 OFFSET ??_R0?AVChanceMortmainCharEventUserNode@@@8
  00085	68 00 00 00 00	 push	 OFFSET ??_R0?AVEventUserNode@@@8
  0008a	56		 push	 esi
  0008b	6a 0b		 push	 11			; 0000000bH
  0008d	e8 00 00 00 00	 call	 ?GetSingleton@ioMyInfo@@SAAAV1@XZ ; ioMyInfo::GetSingleton
  00092	8b c8		 mov	 ecx, eax
  00094	e8 00 00 00 00	 call	 ?GetEventUserMgr@ioMyInfo@@QAEAAVEventUserManager@@XZ ; ioMyInfo::GetEventUserMgr
  00099	8b c8		 mov	 ecx, eax
  0009b	e8 00 00 00 00	 call	 ?GetEventUserNode@EventUserManager@@QAEPAVEventUserNode@@W4EventType@@@Z ; EventUserManager::GetEventUserNode
  000a0	50		 push	 eax
  000a1	e8 00 00 00 00	 call	 ___RTDynamicCast
  000a6	8b f8		 mov	 edi, eax
  000a8	83 c4 14	 add	 esp, 20			; 00000014H

; 963  : 			if( pEventNode )

  000ab	3b fe		 cmp	 edi, esi
  000ad	74 ac		 je	 SHORT $LN6@iwm_comman@4

; 964  : 			{
; 965  : 				if( pEventNode->GetValue( VA_CMC_MAGIC_CODE ) == -1 || pEventNode->GetValue( VA_CMC_MAGIC_CODE ) == -2 )

  000af	56		 push	 esi
  000b0	8b cf		 mov	 ecx, edi
  000b2	e8 00 00 00 00	 call	 ?GetValue@EventUserNode@@QAEHH@Z ; EventUserNode::GetValue
  000b7	83 f8 ff	 cmp	 eax, -1
  000ba	74 0d		 je	 SHORT $LN1@iwm_comman@4
  000bc	56		 push	 esi
  000bd	8b cf		 mov	 ecx, edi
  000bf	e8 00 00 00 00	 call	 ?GetValue@EventUserNode@@QAEHH@Z ; EventUserNode::GetValue
  000c4	83 f8 fe	 cmp	 eax, -2			; fffffffeH
  000c7	75 92		 jne	 SHORT $LN6@iwm_comman@4
$LN1@iwm_comman@4:

; 966  : 				{
; 967  : 					HideWnd();

  000c9	8b cb		 mov	 ecx, ebx
  000cb	ff 15 00 00 00
	00		 call	 DWORD PTR __imp_?HideWnd@ioWnd@@QAEXXZ

; 968  : 					SP2Packet kPacket( CTPK_EVENT_DATA_UPDATE );

  000d1	68 72 01 00 00	 push	 370			; 00000172H
  000d6	8d 8d d8 7f ff
	ff		 lea	 ecx, DWORD PTR _kPacket$515722[ebp]
  000dc	e8 00 00 00 00	 call	 ??0SP2Packet@@QAE@K@Z	; SP2Packet::SP2Packet

; 969  : 					kPacket << EVT_CHANCE_MORTMAIN_CHAR;

  000e1	6a 0b		 push	 11			; 0000000bH
  000e3	8d 8d d8 7f ff
	ff		 lea	 ecx, DWORD PTR _kPacket$515722[ebp]
  000e9	89 75 fc	 mov	 DWORD PTR __$EHRec$[ebp+8], esi
  000ec	e8 00 00 00 00	 call	 ??6SP2Packet@@QAEAAV0@H@Z ; SP2Packet::operator<<

; 970  : 					kPacket << pEventNode->GetValue( VA_CMC_MAGIC_CODE );

  000f1	56		 push	 esi
  000f2	8b cf		 mov	 ecx, edi
  000f4	e8 00 00 00 00	 call	 ?GetValue@EventUserNode@@QAEHH@Z ; EventUserNode::GetValue
  000f9	50		 push	 eax
  000fa	8d 8d d8 7f ff
	ff		 lea	 ecx, DWORD PTR _kPacket$515722[ebp]
  00100	e8 00 00 00 00	 call	 ??6SP2Packet@@QAEAAV0@H@Z ; SP2Packet::operator<<

; 971  : 					TCPNetwork::SendToServer( kPacket );

  00105	8d 85 d8 7f ff
	ff		 lea	 eax, DWORD PTR _kPacket$515722[ebp]
  0010b	50		 push	 eax
  0010c	e8 00 00 00 00	 call	 ?SendToServer@TCPNetwork@@YAXAAVSP2Packet@@@Z ; TCPNetwork::SendToServer
  00111	59		 pop	 ecx

; 972  : 					pEventNode->SetValue( VA_CMC_MAGIC_CODE, 0 );

  00112	56		 push	 esi
  00113	56		 push	 esi
  00114	8b cf		 mov	 ecx, edi
  00116	e8 00 00 00 00	 call	 ?SetValue@EventUserNode@@QAEXHH@Z ; EventUserNode::SetValue

; 973  : 					
; 974  : 					StartRandAni();

  0011b	8b cb		 mov	 ecx, ebx
  0011d	e8 00 00 00 00	 call	 ?StartRandAni@EventChanceRollingWnd@@QAEXXZ ; EventChanceRollingWnd::StartRandAni

; 975  : 					ShowWnd();

  00122	8b cb		 mov	 ecx, ebx
  00124	ff 15 00 00 00
	00		 call	 DWORD PTR __imp_?ShowWnd@ioWnd@@QAEXXZ

; 976  : 				}			

  0012a	83 4d fc ff	 or	 DWORD PTR __$EHRec$[ebp+8], -1
  0012e	8d 8d d8 7f ff
	ff		 lea	 ecx, DWORD PTR _kPacket$515722[ebp]
  00134	e8 00 00 00 00	 call	 ??1SP2Packet@@UAE@XZ	; SP2Packet::~SP2Packet

; 977  : 			}
; 978  : 		}
; 979  : 		break;

  00139	e9 1d ff ff ff	 jmp	 $LN6@iwm_comman@4
_TEXT	ENDS
;	COMDAT text$x
text$x	SEGMENT
__unwindfunclet$?iwm_command@EventChanceRollingWnd@@UAEXPAVioWnd@@HK@Z$0:
  00000	8d 8d d8 7f ff
	ff		 lea	 ecx, DWORD PTR _kPacket$515722[ebp]
  00006	e9 00 00 00 00	 jmp	 ??1SP2Packet@@UAE@XZ	; SP2Packet::~SP2Packet
__ehhandler$?iwm_command@EventChanceRollingWnd@@UAEXPAVioWnd@@HK@Z:
  0000b	8b 54 24 08	 mov	 edx, DWORD PTR [esp+8]
  0000f	8d 42 0c	 lea	 eax, DWORD PTR [edx+12]
  00012	8b 8a d4 7f ff
	ff		 mov	 ecx, DWORD PTR [edx-32812]
  00018	33 c8		 xor	 ecx, eax
  0001a	e8 00 00 00 00	 call	 @__security_check_cookie@4
  0001f	8b 4a fc	 mov	 ecx, DWORD PTR [edx-4]
  00022	33 c8		 xor	 ecx, eax
  00024	e8 00 00 00 00	 call	 @__security_check_cookie@4
  00029	b8 00 00 00 00	 mov	 eax, OFFSET __ehfuncinfo$?iwm_command@EventChanceRollingWnd@@UAEXPAVioWnd@@HK@Z
  0002e	e9 00 00 00 00	 jmp	 ___CxxFrameHandler3
text$x	ENDS
?iwm_command@EventChanceRollingWnd@@UAEXPAVioWnd@@HK@Z ENDP ; EventChanceRollingWnd::iwm_command
; Function compile flags: /Ogsp
;	COMDAT ?OnRender@EventChanceRollingWnd@@MAEXXZ
_TEXT	SEGMENT
?OnRender@EventChanceRollingWnd@@MAEXXZ PROC		; EventChanceRollingWnd::OnRender, COMDAT
; _this$ = ecx

; 1130 : {

  00000	53		 push	 ebx
  00001	56		 push	 esi
  00002	57		 push	 edi
  00003	8b f1		 mov	 esi, ecx

; 1131 : 	ioWnd::OnRender();

  00005	ff 15 00 00 00
	00		 call	 DWORD PTR __imp_?OnRender@ioWnd@@MAEXXZ

; 1132 : 
; 1133 : 	int iXPos = GetDerivedPosX();

  0000b	8b ce		 mov	 ecx, esi
  0000d	ff 15 00 00 00
	00		 call	 DWORD PTR __imp_?GetDerivedPosX@ioWnd@@QBEHXZ

; 1134 : 	int iYPos = GetDerivedPosY();

  00013	8b ce		 mov	 ecx, esi
  00015	8b f8		 mov	 edi, eax
  00017	ff 15 00 00 00
	00		 call	 DWORD PTR __imp_?GetDerivedPosY@ioWnd@@QBEHXZ

; 1135 : 
; 1136 : 	ChanceMortmainCharEventUserNode *pEventNode = dynamic_cast<ChanceMortmainCharEventUserNode*>( g_MyInfo.GetEventUserMgr().GetEventUserNode( EVT_CHANCE_MORTMAIN_CHAR ) );

  0001d	6a 00		 push	 0
  0001f	68 00 00 00 00	 push	 OFFSET ??_R0?AVChanceMortmainCharEventUserNode@@@8
  00024	68 00 00 00 00	 push	 OFFSET ??_R0?AVEventUserNode@@@8
  00029	6a 00		 push	 0
  0002b	6a 0b		 push	 11			; 0000000bH
  0002d	8b d8		 mov	 ebx, eax
  0002f	e8 00 00 00 00	 call	 ?GetSingleton@ioMyInfo@@SAAAV1@XZ ; ioMyInfo::GetSingleton
  00034	8b c8		 mov	 ecx, eax
  00036	e8 00 00 00 00	 call	 ?GetEventUserMgr@ioMyInfo@@QAEAAVEventUserManager@@XZ ; ioMyInfo::GetEventUserMgr
  0003b	8b c8		 mov	 ecx, eax
  0003d	e8 00 00 00 00	 call	 ?GetEventUserNode@EventUserManager@@QAEPAVEventUserNode@@W4EventType@@@Z ; EventUserManager::GetEventUserNode
  00042	50		 push	 eax
  00043	e8 00 00 00 00	 call	 ___RTDynamicCast
  00048	83 c4 14	 add	 esp, 20			; 00000014H

; 1137 : 	if( pEventNode )

  0004b	85 c0		 test	 eax, eax
  0004d	74 19		 je	 SHORT $LN1@OnRender@3

; 1138 : 	{
; 1139 : 		if( sg_dwCurRandTime == 0 )

  0004f	83 3d 00 00 00
	00 00		 cmp	 DWORD PTR ?sg_dwCurRandTime@EventChanceRollingWnd@@1KA, 0 ; EventChanceRollingWnd::sg_dwCurRandTime

; 1140 : 		{
; 1141 : 			// 오리지날 보상
; 1142 : 			RenderOriginalBonus( iXPos, iYPos );

  00056	53		 push	 ebx
  00057	8b ce		 mov	 ecx, esi
  00059	57		 push	 edi
  0005a	75 07		 jne	 SHORT $LN2@OnRender@3
  0005c	e8 00 00 00 00	 call	 ?RenderOriginalBonus@EventChanceRollingWnd@@IAEXHH@Z ; EventChanceRollingWnd::RenderOriginalBonus

; 1143 : 		}
; 1144 : 		else 

  00061	eb 05		 jmp	 SHORT $LN1@OnRender@3
$LN2@OnRender@3:

; 1145 : 		{
; 1146 : 			// 랜덤 보상
; 1147 : 			RenderRandBonus( iXPos, iYPos );

  00063	e8 00 00 00 00	 call	 ?RenderRandBonus@EventChanceRollingWnd@@IAEXHH@Z ; EventChanceRollingWnd::RenderRandBonus
$LN1@OnRender@3:
  00068	5f		 pop	 edi
  00069	5e		 pop	 esi
  0006a	5b		 pop	 ebx

; 1148 : 		}
; 1149 : 	}
; 1150 : }

  0006b	c3		 ret	 0
?OnRender@EventChanceRollingWnd@@MAEXXZ ENDP		; EventChanceRollingWnd::OnRender
_TEXT	ENDS
PUBLIC	??_C@_0BH@HADGNCPD@UIIconPack13?$CDquest_002?$AA@ ; `string'
PUBLIC	??_C@_0BH@FLBLIBDA@UIIconPack13?$CDquest_001?$AA@ ; `string'
PUBLIC	?SetCompleteState@OneDayGoldItemEventWnd@@QAEXFHHHH_N@Z ; OneDayGoldItemEventWnd::SetCompleteState
EXTRN	?GetMySoldierIconName@ioMyInfo@@QAEAAVioHashString@@H@Z:PROC ; ioMyInfo::GetMySoldierIconName
EXTRN	?FindEtcItem@ioEtcItemManager@@QAEPAVioEtcItem@@K@Z:PROC ; ioEtcItemManager::FindEtcItem
EXTRN	?GetDecoData@ioDecorationPrice@@QAEABUtagDecoData@@HHH@Z:PROC ; ioDecorationPrice::GetDecoData
EXTRN	?GetSingleton@ioDecorationPrice@@SAAAV1@XZ:PROC	; ioDecorationPrice::GetSingleton
EXTRN	__imp_??0ioHashString@@QAE@PBD@Z:PROC
;	COMDAT ??_C@_0BH@HADGNCPD@UIIconPack13?$CDquest_002?$AA@
; File d:\lost saga for developer\youtube\tutorial\source\src\lsclient\ioetcitem.h
CONST	SEGMENT
??_C@_0BH@HADGNCPD@UIIconPack13?$CDquest_002?$AA@ DB 'UIIconPack13#quest_'
	DB	'002', 00H					; `string'
CONST	ENDS
;	COMDAT ??_C@_0BH@FLBLIBDA@UIIconPack13?$CDquest_001?$AA@
CONST	SEGMENT
??_C@_0BH@FLBLIBDA@UIIconPack13?$CDquest_001?$AA@ DB 'UIIconPack13#quest_'
	DB	'001', 00H					; `string'
CONST	ENDS
;	COMDAT xdata$x
xdata$x	SEGMENT
__unwindtable$?SetCompleteState@OneDayGoldItemEventWnd@@QAEXFHHHH_N@Z DD 0ffffffffH
	DD	FLAT:__unwindfunclet$?SetCompleteState@OneDayGoldItemEventWnd@@QAEXFHHHH_N@Z$0
	DD	0ffffffffH
	DD	FLAT:__unwindfunclet$?SetCompleteState@OneDayGoldItemEventWnd@@QAEXFHHHH_N@Z$1
__ehfuncinfo$?SetCompleteState@OneDayGoldItemEventWnd@@QAEXFHHHH_N@Z DD 019930522H
	DD	02H
	DD	FLAT:__unwindtable$?SetCompleteState@OneDayGoldItemEventWnd@@QAEXFHHHH_N@Z
	DD	2 DUP(00H)
	DD	2 DUP(00H)
	DD	00H
	DD	01H
; Function compile flags: /Ogsp
; File d:\lost saga for developer\youtube\tutorial\source\src\lsclient\gui\eventcatalogwnd.cpp
xdata$x	ENDS
;	COMDAT ?SetCompleteState@OneDayGoldItemEventWnd@@QAEXFHHHH_N@Z
_TEXT	SEGMENT
$T521095 = -44						; size = 16
$T521096 = -28						; size = 16
__$EHRec$ = -12						; size = 12
_iPresentType$ = 8					; size = 2
_iPresentValue1$ = 12					; size = 4
_iPresentValue2$ = 16					; size = 4
_iPresentValue3$ = 20					; size = 4
_iPresentValue4$ = 24					; size = 4
_bAlarm$ = 28						; size = 1
?SetCompleteState@OneDayGoldItemEventWnd@@QAEXFHHHH_N@Z PROC ; OneDayGoldItemEventWnd::SetCompleteState, COMDAT
; _this$ = ecx

; 1461 : {

  00000	6a 20		 push	 32			; 00000020H
  00002	b8 00 00 00 00	 mov	 eax, __ehhandler$?SetCompleteState@OneDayGoldItemEventWnd@@QAEXFHHHH_N@Z
  00007	e8 00 00 00 00	 call	 __EH_prolog3
  0000c	8b f1		 mov	 esi, ecx

; 1462 : 	//
; 1463 : 	m_iPresentType   = iPresentType;

  0000e	66 8b 45 08	 mov	 ax, WORD PTR _iPresentType$[ebp]

; 1464 : 	m_iPresentValue1 = iPresentValue1;
; 1465 : 	m_iPresentValue2 = iPresentValue2;
; 1466 : 	m_iPresentValue3 = iPresentValue3;
; 1467 : 	m_iPresentValue4 = iPresentValue4;
; 1468 : 	m_bAlarm		 = bAlarm;
; 1469 : 
; 1470 : 	SAFEDELETE( m_pPresentIcon );

  00012	8b 8e d0 01 00
	00		 mov	 ecx, DWORD PTR [esi+464]
  00018	66 89 86 98 01
	00 00		 mov	 WORD PTR [esi+408], ax
  0001f	8b 45 0c	 mov	 eax, DWORD PTR _iPresentValue1$[ebp]
  00022	89 86 9c 01 00
	00		 mov	 DWORD PTR [esi+412], eax
  00028	8b 45 10	 mov	 eax, DWORD PTR _iPresentValue2$[ebp]
  0002b	89 86 a0 01 00
	00		 mov	 DWORD PTR [esi+416], eax
  00031	8b 45 14	 mov	 eax, DWORD PTR _iPresentValue3$[ebp]
  00034	89 86 a4 01 00
	00		 mov	 DWORD PTR [esi+420], eax
  0003a	8b 45 18	 mov	 eax, DWORD PTR _iPresentValue4$[ebp]
  0003d	33 db		 xor	 ebx, ebx
  0003f	89 86 a8 01 00
	00		 mov	 DWORD PTR [esi+424], eax
  00045	8a 45 1c	 mov	 al, BYTE PTR _bAlarm$[ebp]
  00048	33 ff		 xor	 edi, edi
  0004a	43		 inc	 ebx
  0004b	88 86 ac 01 00
	00		 mov	 BYTE PTR [esi+428], al
  00051	3b cf		 cmp	 ecx, edi
  00053	74 0c		 je	 SHORT $LN10@SetComplet
  00055	8b 01		 mov	 eax, DWORD PTR [ecx]
  00057	53		 push	 ebx
  00058	ff 50 40	 call	 DWORD PTR [eax+64]
  0005b	89 be d0 01 00
	00		 mov	 DWORD PTR [esi+464], edi
$LN10@SetComplet:

; 1471 : 	switch( m_iPresentType )

  00061	0f bf 86 98 01
	00 00		 movsx	 eax, WORD PTR [esi+408]
  00068	48		 dec	 eax
  00069	0f 84 d0 00 00
	00		 je	 $LN7@SetComplet
  0006f	48		 dec	 eax
  00070	74 3c		 je	 SHORT $LN2@SetComplet
  00072	48		 dec	 eax
  00073	0f 84 a9 00 00
	00		 je	 $LN5@SetComplet
  00079	48		 dec	 eax
  0007a	74 70		 je	 SHORT $LN3@SetComplet
  0007c	83 e8 03	 sub	 eax, 3
  0007f	74 2d		 je	 SHORT $LN2@SetComplet
  00081	48		 dec	 eax
  00082	0f 85 df 00 00
	00		 jne	 $LN8@SetComplet

; 1510 : 	case PRESENT_GRADE_EXP:
; 1511 : 		{
; 1512 : 			m_pPresentIcon = g_UIImageSetMgr.CreateImageByFullName( ioHashString( "UIIconPack13#quest_001" ) );

  00088	68 00 00 00 00	 push	 OFFSET ??_C@_0BH@FLBLIBDA@UIIconPack13?$CDquest_001?$AA@
  0008d	8d 4d e4	 lea	 ecx, DWORD PTR $T521096[ebp]
  00090	ff 15 00 00 00
	00		 call	 DWORD PTR __imp_??0ioHashString@@QAE@PBD@Z
  00096	57		 push	 edi
  00097	50		 push	 eax
  00098	89 5d fc	 mov	 DWORD PTR __$EHRec$[ebp+8], ebx
  0009b	ff 15 00 00 00
	00		 call	 DWORD PTR __imp_?GetSingleton@ioUIImageSetManager@@SAAAV1@XZ
  000a1	8b c8		 mov	 ecx, eax
  000a3	ff 15 00 00 00
	00		 call	 DWORD PTR __imp_?CreateImageByFullName@ioUIImageSetManager@@QAEPAVioUIRenderImage@@ABVioHashString@@_N@Z
  000a9	8d 4d e4	 lea	 ecx, DWORD PTR $T521096[ebp]

; 1513 : 		}
; 1514 : 		break;

  000ac	eb 62		 jmp	 SHORT $LN24@SetComplet
$LN2@SetComplet:

; 1501 : 	case PRESENT_RANDOM_DECO:
; 1502 : 		{
; 1503 : 			int iClassType = m_iPresentValue1 / 100000;
; 1504 : 			int iSexType   = (m_iPresentValue1 % 100000) / 1000;

  000ae	8b be 9c 01 00
	00		 mov	 edi, DWORD PTR [esi+412]
  000b4	8b c7		 mov	 eax, edi
  000b6	99		 cdq
  000b7	b9 a0 86 01 00	 mov	 ecx, 100000		; 000186a0H
  000bc	f7 f9		 idiv	 ecx
  000be	b9 e8 03 00 00	 mov	 ecx, 1000		; 000003e8H
  000c3	8b d9		 mov	 ebx, ecx

; 1505 : 			int iDecoType  = m_iPresentValue1 % 1000;
; 1506 : 			const DecoData &kData = g_DecorationPrice.GetDecoData( iSexType, iDecoType, m_iPresentValue2 );

  000c5	ff b6 a0 01 00
	00		 push	 DWORD PTR [esi+416]
  000cb	8b c2		 mov	 eax, edx
  000cd	99		 cdq
  000ce	f7 fb		 idiv	 ebx
  000d0	8b d8		 mov	 ebx, eax
  000d2	8b c7		 mov	 eax, edi
  000d4	99		 cdq
  000d5	f7 f9		 idiv	 ecx
  000d7	52		 push	 edx
  000d8	53		 push	 ebx
  000d9	e8 00 00 00 00	 call	 ?GetSingleton@ioDecorationPrice@@SAAAV1@XZ ; ioDecorationPrice::GetSingleton
  000de	8b c8		 mov	 ecx, eax
  000e0	e8 00 00 00 00	 call	 ?GetDecoData@ioDecorationPrice@@QAEABUtagDecoData@@HHH@Z ; ioDecorationPrice::GetDecoData

; 1507 : 			m_pPresentIcon = g_UIImageSetMgr.CreateImageByFullName( kData.m_szIcon );

  000e5	6a 00		 push	 0
  000e7	83 c0 10	 add	 eax, 16			; 00000010H

; 1508 : 		}
; 1509 : 		break;

  000ea	eb 66		 jmp	 SHORT $LN22@SetComplet
$LN3@SetComplet:

; 1496 : 	case PRESENT_PESO:
; 1497 : 		{
; 1498 : 			m_pPresentIcon = g_UIImageSetMgr.CreateImageByFullName( ioHashString( "UIIconPack13#quest_002" ) );

  000ec	68 00 00 00 00	 push	 OFFSET ??_C@_0BH@HADGNCPD@UIIconPack13?$CDquest_002?$AA@
  000f1	8d 4d d4	 lea	 ecx, DWORD PTR $T521095[ebp]
  000f4	ff 15 00 00 00
	00		 call	 DWORD PTR __imp_??0ioHashString@@QAE@PBD@Z
  000fa	57		 push	 edi
  000fb	50		 push	 eax
  000fc	89 7d fc	 mov	 DWORD PTR __$EHRec$[ebp+8], edi
  000ff	ff 15 00 00 00
	00		 call	 DWORD PTR __imp_?GetSingleton@ioUIImageSetManager@@SAAAV1@XZ
  00105	8b c8		 mov	 ecx, eax
  00107	ff 15 00 00 00
	00		 call	 DWORD PTR __imp_?CreateImageByFullName@ioUIImageSetManager@@QAEPAVioUIRenderImage@@ABVioHashString@@_N@Z
  0010d	8d 4d d4	 lea	 ecx, DWORD PTR $T521095[ebp]
$LN24@SetComplet:
  00110	83 4d fc ff	 or	 DWORD PTR __$EHRec$[ebp+8], -1
  00114	89 86 d0 01 00
	00		 mov	 DWORD PTR [esi+464], eax
  0011a	ff 15 00 00 00
	00		 call	 DWORD PTR __imp_??1ioHashString@@QAE@XZ

; 1499 : 		}
; 1500 : 		break;

  00120	eb 45		 jmp	 SHORT $LN8@SetComplet
$LN5@SetComplet:

; 1476 : 		}
; 1477 : 		break;
; 1478 : 	case PRESENT_DECORATION:
; 1479 : 		{
; 1480 : 			int iClassType = m_iPresentValue1 / 100000;
; 1481 : 			int iSexType   = (m_iPresentValue1 % 100000) / 1000;
; 1482 : 			int iDecoType  = m_iPresentValue1 % 1000;
; 1483 : 			const DecoData &kData = g_DecorationPrice.GetDecoData( iSexType, iDecoType, m_iPresentValue2 );
; 1484 : 			m_pPresentIcon = g_UIImageSetMgr.CreateImageByFullName( kData.m_szIcon );
; 1485 : 		}
; 1486 : 		break;
; 1487 : 	case PRESENT_ETC_ITEM:
; 1488 : 		{
; 1489 : 			ioEtcItem *pEtcItem = g_EtcItemMgr.FindEtcItem( m_iPresentValue1 );

  00122	ff b6 9c 01 00
	00		 push	 DWORD PTR [esi+412]
  00128	8b 0d 00 00 00
	00		 mov	 ecx, DWORD PTR ?ms_Singleton@?$Singleton@VioEtcItemManager@@@@1PAVioEtcItemManager@@A ; Singleton<ioEtcItemManager>::ms_Singleton
  0012e	e8 00 00 00 00	 call	 ?FindEtcItem@ioEtcItemManager@@QAEPAVioEtcItem@@K@Z ; ioEtcItemManager::FindEtcItem

; 1490 : 			if( pEtcItem )

  00133	3b c7		 cmp	 eax, edi
  00135	74 30		 je	 SHORT $LN8@SetComplet

; 1491 : 			{
; 1492 : 				m_pPresentIcon = g_UIImageSetMgr.CreateImageByFullName( pEtcItem->GetIconName() );

  00137	57		 push	 edi
  00138	05 60 01 00 00	 add	 eax, 352		; 00000160H

; 1493 : 			}			
; 1494 : 		}
; 1495 : 		break;

  0013d	eb 13		 jmp	 SHORT $LN22@SetComplet
$LN7@SetComplet:

; 1472 : 	{
; 1473 : 	case PRESENT_SOLDIER:
; 1474 : 		{
; 1475 : 			m_pPresentIcon = g_UIImageSetMgr.CreateImageByFullName( g_MyInfo.GetMySoldierIconName( m_iPresentValue1 ) );

  0013f	57		 push	 edi
  00140	ff b6 9c 01 00
	00		 push	 DWORD PTR [esi+412]
  00146	e8 00 00 00 00	 call	 ?GetSingleton@ioMyInfo@@SAAAV1@XZ ; ioMyInfo::GetSingleton
  0014b	8b c8		 mov	 ecx, eax
  0014d	e8 00 00 00 00	 call	 ?GetMySoldierIconName@ioMyInfo@@QAEAAVioHashString@@H@Z ; ioMyInfo::GetMySoldierIconName
$LN22@SetComplet:
  00152	50		 push	 eax
  00153	ff 15 00 00 00
	00		 call	 DWORD PTR __imp_?GetSingleton@ioUIImageSetManager@@SAAAV1@XZ
  00159	8b c8		 mov	 ecx, eax
  0015b	ff 15 00 00 00
	00		 call	 DWORD PTR __imp_?CreateImageByFullName@ioUIImageSetManager@@QAEPAVioUIRenderImage@@ABVioHashString@@_N@Z
  00161	89 86 d0 01 00
	00		 mov	 DWORD PTR [esi+464], eax
$LN8@SetComplet:

; 1515 : 	}	
; 1516 : }

  00167	e8 00 00 00 00	 call	 __EH_epilog3
  0016c	c2 18 00	 ret	 24			; 00000018H
_TEXT	ENDS
;	COMDAT text$x
text$x	SEGMENT
__unwindfunclet$?SetCompleteState@OneDayGoldItemEventWnd@@QAEXFHHHH_N@Z$1:
  00000	8d 4d e4	 lea	 ecx, DWORD PTR $T521096[ebp]
  00003	ff 25 00 00 00
	00		 jmp	 DWORD PTR __imp_??1ioHashString@@QAE@XZ
__unwindfunclet$?SetCompleteState@OneDayGoldItemEventWnd@@QAEXFHHHH_N@Z$0:
  00009	8d 4d d4	 lea	 ecx, DWORD PTR $T521095[ebp]
  0000c	ff 25 00 00 00
	00		 jmp	 DWORD PTR __imp_??1ioHashString@@QAE@XZ
__ehhandler$?SetCompleteState@OneDayGoldItemEventWnd@@QAEXFHHHH_N@Z:
  00012	8b 54 24 08	 mov	 edx, DWORD PTR [esp+8]
  00016	8d 42 0c	 lea	 eax, DWORD PTR [edx+12]
  00019	8b 4a d0	 mov	 ecx, DWORD PTR [edx-48]
  0001c	33 c8		 xor	 ecx, eax
  0001e	e8 00 00 00 00	 call	 @__security_check_cookie@4
  00023	b8 00 00 00 00	 mov	 eax, OFFSET __ehfuncinfo$?SetCompleteState@OneDayGoldItemEventWnd@@QAEXFHHHH_N@Z
  00028	e9 00 00 00 00	 jmp	 ___CxxFrameHandler3
text$x	ENDS
?SetCompleteState@OneDayGoldItemEventWnd@@QAEXFHHHH_N@Z ENDP ; OneDayGoldItemEventWnd::SetCompleteState
PUBLIC	__$ArrayPad$
PUBLIC	?ProcessRolling@OneDayGoldItemEventWnd@@IAEXXZ	; OneDayGoldItemEventWnd::ProcessRolling
EXTRN	??6SP2Packet@@QAEAAV0@F@Z:PROC			; SP2Packet::operator<<
EXTRN	??6SP2Packet@@QAEAAV0@ABVioHashString@@@Z:PROC	; SP2Packet::operator<<
;	COMDAT xdata$x
; File d:\lost saga for developer\youtube\tutorial\source\src\lsclient\iomyinfo.h
xdata$x	SEGMENT
__unwindtable$?ProcessRolling@OneDayGoldItemEventWnd@@IAEXXZ DD 0ffffffffH
	DD	FLAT:__unwindfunclet$?ProcessRolling@OneDayGoldItemEventWnd@@IAEXXZ$0
__ehfuncinfo$?ProcessRolling@OneDayGoldItemEventWnd@@IAEXXZ DD 019930522H
	DD	01H
	DD	FLAT:__unwindtable$?ProcessRolling@OneDayGoldItemEventWnd@@IAEXXZ
	DD	2 DUP(00H)
	DD	2 DUP(00H)
	DD	00H
	DD	01H
; Function compile flags: /Ogsp
; File d:\lost saga for developer\youtube\tutorial\source\src\lsclient\gui\eventcatalogwnd.cpp
xdata$x	ENDS
;	COMDAT ?ProcessRolling@OneDayGoldItemEventWnd@@IAEXXZ
_TEXT	SEGMENT
_kPacket$516292 = -32808				; size = 32792
__$ArrayPad$ = -16					; size = 4
__$EHRec$ = -12						; size = 12
?ProcessRolling@OneDayGoldItemEventWnd@@IAEXXZ PROC	; OneDayGoldItemEventWnd::ProcessRolling, COMDAT
; _this$ = ecx

; 1519 : {

  00000	55		 push	 ebp
  00001	8b ec		 mov	 ebp, esp
  00003	6a ff		 push	 -1
  00005	68 00 00 00 00	 push	 __ehhandler$?ProcessRolling@OneDayGoldItemEventWnd@@IAEXXZ
  0000a	64 a1 00 00 00
	00		 mov	 eax, DWORD PTR fs:0
  00010	50		 push	 eax
  00011	b8 1c 80 00 00	 mov	 eax, 32796		; 0000801cH
  00016	e8 00 00 00 00	 call	 __chkstk
  0001b	a1 00 00 00 00	 mov	 eax, DWORD PTR ___security_cookie
  00020	33 c5		 xor	 eax, ebp
  00022	89 45 f0	 mov	 DWORD PTR __$ArrayPad$[ebp], eax
  00025	53		 push	 ebx
  00026	56		 push	 esi
  00027	57		 push	 edi
  00028	50		 push	 eax
  00029	8d 45 f4	 lea	 eax, DWORD PTR __$EHRec$[ebp]
  0002c	64 a3 00 00 00
	00		 mov	 DWORD PTR fs:0, eax
  00032	8b f1		 mov	 esi, ecx

; 1520 : 	if( m_dwState != STATE_ROLLING ) return;

  00034	83 be 60 01 00
	00 02		 cmp	 DWORD PTR [esi+352], 2
  0003b	0f 85 50 01 00
	00		 jne	 $LN3@ProcessRol

; 1521 : 
; 1522 : 	if( FRAMEGETTIME() - m_dwCurrentTickTime > m_dwRollingTickTime )

  00041	8b 3d 00 00 00
	00		 mov	 edi, DWORD PTR __imp_?GetSingleton@ioFrameTimer@@SAAAV1@XZ
  00047	ff d7		 call	 edi
  00049	8b c8		 mov	 ecx, eax
  0004b	ff 15 00 00 00
	00		 call	 DWORD PTR __imp_?GetLoopSec@ioFrameTimer@@QBEKXZ
  00051	2b 86 70 01 00
	00		 sub	 eax, DWORD PTR [esi+368]
  00057	33 db		 xor	 ebx, ebx
  00059	3b 86 74 01 00
	00		 cmp	 eax, DWORD PTR [esi+372]
  0005f	76 4c		 jbe	 SHORT $LN6@ProcessRol

; 1523 : 	{
; 1524 : 		m_dwCurrentTickTime = FRAMEGETTIME();

  00061	ff d7		 call	 edi
  00063	8b c8		 mov	 ecx, eax
  00065	ff 15 00 00 00
	00		 call	 DWORD PTR __imp_?GetLoopSec@ioFrameTimer@@QBEKXZ

; 1525 : 		m_iRollingIconArray++;

  0006b	ff 86 64 01 00
	00		 inc	 DWORD PTR [esi+356]
  00071	8b 8e 64 01 00
	00		 mov	 ecx, DWORD PTR [esi+356]
  00077	89 86 70 01 00
	00		 mov	 DWORD PTR [esi+368], eax

; 1526 : 		if( !COMPARE( m_iRollingIconArray, 0, (int)m_vRollingIconList.size() ) )

  0007d	78 13		 js	 SHORT $LN4@ProcessRol
  0007f	8b 96 dc 01 00
	00		 mov	 edx, DWORD PTR [esi+476]
  00085	2b 96 d8 01 00
	00		 sub	 edx, DWORD PTR [esi+472]
  0008b	c1 fa 02	 sar	 edx, 2
  0008e	3b ca		 cmp	 ecx, edx
  00090	7c 06		 jl	 SHORT $LN5@ProcessRol
$LN4@ProcessRol:

; 1527 : 			m_iRollingIconArray = 0;

  00092	89 9e 64 01 00
	00		 mov	 DWORD PTR [esi+356], ebx
$LN5@ProcessRol:

; 1528 : 		m_pRollingIcon = m_vRollingIconList[m_iRollingIconArray];

  00098	8b 86 64 01 00
	00		 mov	 eax, DWORD PTR [esi+356]
  0009e	8b 8e d8 01 00
	00		 mov	 ecx, DWORD PTR [esi+472]
  000a4	8b 04 81	 mov	 eax, DWORD PTR [ecx+eax*4]
  000a7	89 86 d4 01 00
	00		 mov	 DWORD PTR [esi+468], eax
$LN6@ProcessRol:

; 1529 : 	}
; 1530 : 
; 1531 : 	if( FRAMEGETTIME() - m_dwCurrentFullTime > m_dwRollingFullTime && m_iPresentType != 0 )

  000ad	ff d7		 call	 edi
  000af	8b c8		 mov	 ecx, eax
  000b1	ff 15 00 00 00
	00		 call	 DWORD PTR __imp_?GetLoopSec@ioFrameTimer@@QBEKXZ
  000b7	2b 86 68 01 00
	00		 sub	 eax, DWORD PTR [esi+360]
  000bd	3b 86 6c 01 00
	00		 cmp	 eax, DWORD PTR [esi+364]
  000c3	0f 86 c8 00 00
	00		 jbe	 $LN3@ProcessRol
  000c9	66 39 9e 98 01
	00 00		 cmp	 WORD PTR [esi+408], bx
  000d0	0f 84 bb 00 00
	00		 je	 $LN3@ProcessRol

; 1532 : 	{
; 1533 : 		// 완료
; 1534 : 		HideWnd();

  000d6	8b ce		 mov	 ecx, esi
  000d8	ff 15 00 00 00
	00		 call	 DWORD PTR __imp_?HideWnd@ioWnd@@QAEXXZ

; 1535 : 		m_dwState = STATE_COMPLETE;

  000de	c7 86 60 01 00
	00 03 00 00 00	 mov	 DWORD PTR [esi+352], 3

; 1536 : 		if( m_bAlarm )

  000e8	38 9e ac 01 00
	00		 cmp	 BYTE PTR [esi+428], bl
  000ee	74 75		 je	 SHORT $LN2@ProcessRol

; 1537 : 		{
; 1538 : 			SP2Packet kPacket( CTPK_SERVER_ALARM_MSG );

  000f0	68 82 01 00 00	 push	 386			; 00000182H
  000f5	8d 8d d8 7f ff
	ff		 lea	 ecx, DWORD PTR _kPacket$516292[ebp]
  000fb	e8 00 00 00 00	 call	 ??0SP2Packet@@QAE@K@Z	; SP2Packet::SP2Packet
  00100	89 5d fc	 mov	 DWORD PTR __$EHRec$[ebp+8], ebx

; 1539 : 			kPacket << UDP_SERVER_ALARM_GOLD_ITEM_EVENT << g_MyInfo.GetPublicID() << m_iPresentType << m_iPresentValue1 << m_iPresentValue2;

  00103	e8 00 00 00 00	 call	 ?GetSingleton@ioMyInfo@@SAAAV1@XZ ; ioMyInfo::GetSingleton
  00108	ff b6 a0 01 00
	00		 push	 DWORD PTR [esi+416]
  0010e	0f b7 8e 98 01
	00 00		 movzx	 ecx, WORD PTR [esi+408]
  00115	ff b6 9c 01 00
	00		 push	 DWORD PTR [esi+412]
  0011b	83 c0 1c	 add	 eax, 28			; 0000001cH
  0011e	51		 push	 ecx
  0011f	50		 push	 eax
  00120	6a 06		 push	 6
  00122	8d 8d d8 7f ff
	ff		 lea	 ecx, DWORD PTR _kPacket$516292[ebp]
  00128	e8 00 00 00 00	 call	 ??6SP2Packet@@QAEAAV0@H@Z ; SP2Packet::operator<<
  0012d	8b c8		 mov	 ecx, eax
  0012f	e8 00 00 00 00	 call	 ??6SP2Packet@@QAEAAV0@ABVioHashString@@@Z ; SP2Packet::operator<<
  00134	8b c8		 mov	 ecx, eax
  00136	e8 00 00 00 00	 call	 ??6SP2Packet@@QAEAAV0@F@Z ; SP2Packet::operator<<
  0013b	8b c8		 mov	 ecx, eax
  0013d	e8 00 00 00 00	 call	 ??6SP2Packet@@QAEAAV0@H@Z ; SP2Packet::operator<<
  00142	8b c8		 mov	 ecx, eax
  00144	e8 00 00 00 00	 call	 ??6SP2Packet@@QAEAAV0@H@Z ; SP2Packet::operator<<

; 1540 : 			TCPNetwork::SendToServer( kPacket );

  00149	8d 85 d8 7f ff
	ff		 lea	 eax, DWORD PTR _kPacket$516292[ebp]
  0014f	50		 push	 eax
  00150	e8 00 00 00 00	 call	 ?SendToServer@TCPNetwork@@YAXAAVSP2Packet@@@Z ; TCPNetwork::SendToServer

; 1541 : 		}

  00155	83 4d fc ff	 or	 DWORD PTR __$EHRec$[ebp+8], -1
  00159	59		 pop	 ecx
  0015a	8d 8d d8 7f ff
	ff		 lea	 ecx, DWORD PTR _kPacket$516292[ebp]
  00160	e8 00 00 00 00	 call	 ??1SP2Packet@@UAE@XZ	; SP2Packet::~SP2Packet
$LN2@ProcessRol:

; 1542 : 
; 1543 : 		if( !m_szCompleteSound.IsEmpty() )

  00165	8d be 88 01 00
	00		 lea	 edi, DWORD PTR [esi+392]
  0016b	8b cf		 mov	 ecx, edi
  0016d	ff 15 00 00 00
	00		 call	 DWORD PTR __imp_?IsEmpty@ioHashString@@QBE_NXZ
  00173	84 c0		 test	 al, al
  00175	75 12		 jne	 SHORT $LN1@ProcessRol

; 1544 : 			g_SoundMgr.PlaySound( m_szCompleteSound );

  00177	6a 04		 push	 4
  00179	53		 push	 ebx
  0017a	57		 push	 edi
  0017b	ff 15 00 00 00
	00		 call	 DWORD PTR __imp_?GetSingleton@ioSoundManager@@SAAAV1@XZ
  00181	8b c8		 mov	 ecx, eax
  00183	ff 15 00 00 00
	00		 call	 DWORD PTR __imp_?PlaySoundA@ioSoundManager@@QAEKABVioHashString@@HK@Z
$LN1@ProcessRol:

; 1545 : 		ShowWnd();

  00189	8b ce		 mov	 ecx, esi
  0018b	ff 15 00 00 00
	00		 call	 DWORD PTR __imp_?ShowWnd@ioWnd@@QAEXXZ
$LN3@ProcessRol:

; 1546 : 	}
; 1547 : }

  00191	8b 4d f4	 mov	 ecx, DWORD PTR __$EHRec$[ebp]
  00194	64 89 0d 00 00
	00 00		 mov	 DWORD PTR fs:0, ecx
  0019b	59		 pop	 ecx
  0019c	5f		 pop	 edi
  0019d	5e		 pop	 esi
  0019e	5b		 pop	 ebx
  0019f	8b 4d f0	 mov	 ecx, DWORD PTR __$ArrayPad$[ebp]
  001a2	33 cd		 xor	 ecx, ebp
  001a4	e8 00 00 00 00	 call	 @__security_check_cookie@4
  001a9	c9		 leave
  001aa	c3		 ret	 0
_TEXT	ENDS
;	COMDAT text$x
text$x	SEGMENT
__unwindfunclet$?ProcessRolling@OneDayGoldItemEventWnd@@IAEXXZ$0:
  00000	8d 8d d8 7f ff
	ff		 lea	 ecx, DWORD PTR _kPacket$516292[ebp]
  00006	e9 00 00 00 00	 jmp	 ??1SP2Packet@@UAE@XZ	; SP2Packet::~SP2Packet
__ehhandler$?ProcessRolling@OneDayGoldItemEventWnd@@IAEXXZ:
  0000b	8b 54 24 08	 mov	 edx, DWORD PTR [esp+8]
  0000f	8d 42 0c	 lea	 eax, DWORD PTR [edx+12]
  00012	8b 8a d4 7f ff
	ff		 mov	 ecx, DWORD PTR [edx-32812]
  00018	33 c8		 xor	 ecx, eax
  0001a	e8 00 00 00 00	 call	 @__security_check_cookie@4
  0001f	8b 4a fc	 mov	 ecx, DWORD PTR [edx-4]
  00022	33 c8		 xor	 ecx, eax
  00024	e8 00 00 00 00	 call	 @__security_check_cookie@4
  00029	b8 00 00 00 00	 mov	 eax, OFFSET __ehfuncinfo$?ProcessRolling@OneDayGoldItemEventWnd@@IAEXXZ
  0002e	e9 00 00 00 00	 jmp	 ___CxxFrameHandler3
text$x	ENDS
?ProcessRolling@OneDayGoldItemEventWnd@@IAEXXZ ENDP	; OneDayGoldItemEventWnd::ProcessRolling
PUBLIC	?OnProcess@OneDayGoldItemEventWnd@@MAEXM@Z	; OneDayGoldItemEventWnd::OnProcess
; Function compile flags: /Ogsp
;	COMDAT ?OnProcess@OneDayGoldItemEventWnd@@MAEXM@Z
_TEXT	SEGMENT
_fTimePerSec$ = 8					; size = 4
?OnProcess@OneDayGoldItemEventWnd@@MAEXM@Z PROC		; OneDayGoldItemEventWnd::OnProcess, COMDAT
; _this$ = ecx

; 1571 : {

  00000	56		 push	 esi
  00001	8b f1		 mov	 esi, ecx

; 1572 : 	if( !IsShow() ) return;

  00003	ff 15 00 00 00
	00		 call	 DWORD PTR __imp_?IsShow@ioWnd@@QBE_NXZ
  00009	84 c0		 test	 al, al
  0000b	74 0e		 je	 SHORT $LN2@OnProcess@4

; 1573 : 
; 1574 : 	ProcessRolling();

  0000d	8b ce		 mov	 ecx, esi
  0000f	e8 00 00 00 00	 call	 ?ProcessRolling@OneDayGoldItemEventWnd@@IAEXXZ ; OneDayGoldItemEventWnd::ProcessRolling

; 1575 : 	ProcessComplete();

  00014	8b ce		 mov	 ecx, esi
  00016	e8 00 00 00 00	 call	 ?ProcessComplete@OneDayGoldItemEventWnd@@IAEXXZ ; OneDayGoldItemEventWnd::ProcessComplete
$LN2@OnProcess@4:
  0001b	5e		 pop	 esi

; 1576 : }

  0001c	c2 04 00	 ret	 4
?OnProcess@OneDayGoldItemEventWnd@@MAEXM@Z ENDP		; OneDayGoldItemEventWnd::OnProcess
_TEXT	ENDS
PUBLIC	?OnRender@OneDayGoldItemEventWnd@@MAEXXZ	; OneDayGoldItemEventWnd::OnRender
; Function compile flags: /Ogsp
;	COMDAT ?OnRender@OneDayGoldItemEventWnd@@MAEXXZ
_TEXT	SEGMENT
?OnRender@OneDayGoldItemEventWnd@@MAEXXZ PROC		; OneDayGoldItemEventWnd::OnRender, COMDAT
; _this$ = ecx

; 1579 : {

  00000	56		 push	 esi
  00001	57		 push	 edi
  00002	8b f1		 mov	 esi, ecx

; 1580 : 	ioWnd::OnRender();

  00004	ff 15 00 00 00
	00		 call	 DWORD PTR __imp_?OnRender@ioWnd@@MAEXXZ

; 1581 : 
; 1582 : 	int iXPos = GetDerivedPosX();

  0000a	8b ce		 mov	 ecx, esi
  0000c	ff 15 00 00 00
	00		 call	 DWORD PTR __imp_?GetDerivedPosX@ioWnd@@QBEHXZ

; 1583 : 	int iYPos = GetDerivedPosY();

  00012	8b ce		 mov	 ecx, esi
  00014	8b f8		 mov	 edi, eax
  00016	ff 15 00 00 00
	00		 call	 DWORD PTR __imp_?GetDerivedPosY@ioWnd@@QBEHXZ

; 1584 : 	switch( m_dwState )

  0001c	8b 8e 60 01 00
	00		 mov	 ecx, DWORD PTR [esi+352]
  00022	49		 dec	 ecx
  00023	74 1c		 je	 SHORT $LN3@OnRender@4
  00025	49		 dec	 ecx
  00026	74 0e		 je	 SHORT $LN2@OnRender@4
  00028	49		 dec	 ecx
  00029	75 1f		 jne	 SHORT $LN4@OnRender@4

; 1592 : 	case STATE_COMPLETE:
; 1593 : 		OnStateCompleteRender( iXPos, iYPos );

  0002b	50		 push	 eax
  0002c	57		 push	 edi
  0002d	8b ce		 mov	 ecx, esi
  0002f	e8 00 00 00 00	 call	 ?OnStateCompleteRender@OneDayGoldItemEventWnd@@IAEXHH@Z ; OneDayGoldItemEventWnd::OnStateCompleteRender

; 1594 : 		break;

  00034	eb 14		 jmp	 SHORT $LN4@OnRender@4
$LN2@OnRender@4:

; 1588 : 		break;
; 1589 : 	case STATE_ROLLING:
; 1590 : 		OnStateRollingRender( iXPos, iYPos );

  00036	50		 push	 eax
  00037	57		 push	 edi
  00038	8b ce		 mov	 ecx, esi
  0003a	e8 00 00 00 00	 call	 ?OnStateRollingRender@OneDayGoldItemEventWnd@@IAEXHH@Z ; OneDayGoldItemEventWnd::OnStateRollingRender

; 1591 : 		break;

  0003f	eb 09		 jmp	 SHORT $LN4@OnRender@4
$LN3@OnRender@4:

; 1585 : 	{
; 1586 : 	case STATE_RECV:
; 1587 : 		OnStateRecvRender( iXPos, iYPos );

  00041	50		 push	 eax
  00042	57		 push	 edi
  00043	8b ce		 mov	 ecx, esi
  00045	e8 00 00 00 00	 call	 ?OnStateRecvRender@OneDayGoldItemEventWnd@@IAEXHH@Z ; OneDayGoldItemEventWnd::OnStateRecvRender
$LN4@OnRender@4:

; 1595 : 	}
; 1596 : }

  0004a	5f		 pop	 edi
  0004b	5e		 pop	 esi
  0004c	c3		 ret	 0
?OnRender@OneDayGoldItemEventWnd@@MAEXXZ ENDP		; OneDayGoldItemEventWnd::OnRender
_TEXT	ENDS
PUBLIC	??D?$_Vector_iterator@V?$_Vector_val@PAUtagEventInfo@@V?$allocator@PAUtagEventInfo@@@std@@@std@@@std@@QBEAAPAUtagEventInfo@@XZ ; std::_Vector_iterator<std::_Vector_val<tagEventInfo *,std::allocator<tagEventInfo *> > >::operator*
; Function compile flags: /Ogsp
; File c:\program files (x86)\microsoft visual studio 10.0\vc\include\vector
;	COMDAT ??D?$_Vector_iterator@V?$_Vector_val@PAUtagEventInfo@@V?$allocator@PAUtagEventInfo@@@std@@@std@@@std@@QBEAAPAUtagEventInfo@@XZ
_TEXT	SEGMENT
??D?$_Vector_iterator@V?$_Vector_val@PAUtagEventInfo@@V?$allocator@PAUtagEventInfo@@@std@@@std@@@std@@QBEAAPAUtagEventInfo@@XZ PROC ; std::_Vector_iterator<std::_Vector_val<tagEventInfo *,std::allocator<tagEventInfo *> > >::operator*, COMDAT
; _this$ = ecx

; 322  : 		return ((reference)**(_Mybase *)this);

  00000	8b 01		 mov	 eax, DWORD PTR [ecx]

; 323  : 		}

  00002	c3		 ret	 0
??D?$_Vector_iterator@V?$_Vector_val@PAUtagEventInfo@@V?$allocator@PAUtagEventInfo@@@std@@@std@@@std@@QBEAAPAUtagEventInfo@@XZ ENDP ; std::_Vector_iterator<std::_Vector_val<tagEventInfo *,std::allocator<tagEventInfo *> > >::operator*
_TEXT	ENDS
PUBLIC	??E?$_Vector_iterator@V?$_Vector_val@PAUtagEventInfo@@V?$allocator@PAUtagEventInfo@@@std@@@std@@@std@@QAEAAV01@XZ ; std::_Vector_iterator<std::_Vector_val<tagEventInfo *,std::allocator<tagEventInfo *> > >::operator++
; Function compile flags: /Ogsp
;	COMDAT ??E?$_Vector_iterator@V?$_Vector_val@PAUtagEventInfo@@V?$allocator@PAUtagEventInfo@@@std@@@std@@@std@@QAEAAV01@XZ
_TEXT	SEGMENT
??E?$_Vector_iterator@V?$_Vector_val@PAUtagEventInfo@@V?$allocator@PAUtagEventInfo@@@std@@@std@@@std@@QAEAAV01@XZ PROC ; std::_Vector_iterator<std::_Vector_val<tagEventInfo *,std::allocator<tagEventInfo *> > >::operator++, COMDAT
; _this$ = ecx

; 331  : 		{	// preincrement

  00000	8b c1		 mov	 eax, ecx

; 332  : 		++*(_Mybase *)this;

  00002	83 00 04	 add	 DWORD PTR [eax], 4

; 333  : 		return (*this);
; 334  : 		}

  00005	c3		 ret	 0
??E?$_Vector_iterator@V?$_Vector_val@PAUtagEventInfo@@V?$allocator@PAUtagEventInfo@@@std@@@std@@@std@@QAEAAV01@XZ ENDP ; std::_Vector_iterator<std::_Vector_val<tagEventInfo *,std::allocator<tagEventInfo *> > >::operator++
_TEXT	ENDS
PUBLIC	??D?$_Vector_iterator@V?$_Vector_val@PAVioUIRenderImage@@V?$allocator@PAVioUIRenderImage@@@std@@@std@@@std@@QBEAAPAVioUIRenderImage@@XZ ; std::_Vector_iterator<std::_Vector_val<ioUIRenderImage *,std::allocator<ioUIRenderImage *> > >::operator*
; Function compile flags: /Ogsp
;	COMDAT ??D?$_Vector_iterator@V?$_Vector_val@PAVioUIRenderImage@@V?$allocator@PAVioUIRenderImage@@@std@@@std@@@std@@QBEAAPAVioUIRenderImage@@XZ
_TEXT	SEGMENT
??D?$_Vector_iterator@V?$_Vector_val@PAVioUIRenderImage@@V?$allocator@PAVioUIRenderImage@@@std@@@std@@@std@@QBEAAPAVioUIRenderImage@@XZ PROC ; std::_Vector_iterator<std::_Vector_val<ioUIRenderImage *,std::allocator<ioUIRenderImage *> > >::operator*, COMDAT
; _this$ = ecx

; 322  : 		return ((reference)**(_Mybase *)this);

  00000	8b 01		 mov	 eax, DWORD PTR [ecx]

; 323  : 		}

  00002	c3		 ret	 0
??D?$_Vector_iterator@V?$_Vector_val@PAVioUIRenderImage@@V?$allocator@PAVioUIRenderImage@@@std@@@std@@@std@@QBEAAPAVioUIRenderImage@@XZ ENDP ; std::_Vector_iterator<std::_Vector_val<ioUIRenderImage *,std::allocator<ioUIRenderImage *> > >::operator*
_TEXT	ENDS
PUBLIC	??0?$_Vector_val@PAVioUIRenderImage@@V?$allocator@PAVioUIRenderImage@@@std@@@std@@QAE@V?$allocator@PAVioUIRenderImage@@@1@@Z ; std::_Vector_val<ioUIRenderImage *,std::allocator<ioUIRenderImage *> >::_Vector_val<ioUIRenderImage *,std::allocator<ioUIRenderImage *> >
; Function compile flags: /Ogsp
;	COMDAT ??0?$_Vector_val@PAVioUIRenderImage@@V?$allocator@PAVioUIRenderImage@@@std@@@std@@QAE@V?$allocator@PAVioUIRenderImage@@@1@@Z
_TEXT	SEGMENT
__Al$ = 8						; size = 1
??0?$_Vector_val@PAVioUIRenderImage@@V?$allocator@PAVioUIRenderImage@@@std@@@std@@QAE@V?$allocator@PAVioUIRenderImage@@@1@@Z PROC ; std::_Vector_val<ioUIRenderImage *,std::allocator<ioUIRenderImage *> >::_Vector_val<ioUIRenderImage *,std::allocator<ioUIRenderImage *> >, COMDAT
; _this$ = ecx

; 426  : 		{	// construct allocator from _Al

  00000	8b c1		 mov	 eax, ecx

; 427  : 		_Myfirst = 0;

  00002	33 c9		 xor	 ecx, ecx
  00004	89 08		 mov	 DWORD PTR [eax], ecx

; 428  : 		_Mylast = 0;

  00006	89 48 04	 mov	 DWORD PTR [eax+4], ecx

; 429  : 		_Myend = 0;

  00009	89 48 08	 mov	 DWORD PTR [eax+8], ecx

; 430  : 		}

  0000c	c2 04 00	 ret	 4
??0?$_Vector_val@PAVioUIRenderImage@@V?$allocator@PAVioUIRenderImage@@@std@@@std@@QAE@V?$allocator@PAVioUIRenderImage@@@1@@Z ENDP ; std::_Vector_val<ioUIRenderImage *,std::allocator<ioUIRenderImage *> >::_Vector_val<ioUIRenderImage *,std::allocator<ioUIRenderImage *> >
_TEXT	ENDS
PUBLIC	?max_size@?$vector@PAUtagEventInfo@@V?$allocator@PAUtagEventInfo@@@std@@@std@@QBEIXZ ; std::vector<tagEventInfo *,std::allocator<tagEventInfo *> >::max_size
; Function compile flags: /Ogsp
;	COMDAT ?max_size@?$vector@PAUtagEventInfo@@V?$allocator@PAUtagEventInfo@@@std@@@std@@QBEIXZ
_TEXT	SEGMENT
?max_size@?$vector@PAUtagEventInfo@@V?$allocator@PAUtagEventInfo@@@std@@@std@@QBEIXZ PROC ; std::vector<tagEventInfo *,std::allocator<tagEventInfo *> >::max_size, COMDAT
; _this$ = ecx

; 884  : 		return (this->_Alval.max_size());

  00000	b8 ff ff ff 3f	 mov	 eax, 1073741823		; 3fffffffH

; 885  : 		}

  00005	c3		 ret	 0
?max_size@?$vector@PAUtagEventInfo@@V?$allocator@PAUtagEventInfo@@@std@@@std@@QBEIXZ ENDP ; std::vector<tagEventInfo *,std::allocator<tagEventInfo *> >::max_size
_TEXT	ENDS
PUBLIC	??0?$_Vector_val@PAUtagEventInfo@@V?$allocator@PAUtagEventInfo@@@std@@@std@@QAE@V?$allocator@PAUtagEventInfo@@@1@@Z ; std::_Vector_val<tagEventInfo *,std::allocator<tagEventInfo *> >::_Vector_val<tagEventInfo *,std::allocator<tagEventInfo *> >
; Function compile flags: /Ogsp
;	COMDAT ??0?$_Vector_val@PAUtagEventInfo@@V?$allocator@PAUtagEventInfo@@@std@@@std@@QAE@V?$allocator@PAUtagEventInfo@@@1@@Z
_TEXT	SEGMENT
__Al$ = 8						; size = 1
??0?$_Vector_val@PAUtagEventInfo@@V?$allocator@PAUtagEventInfo@@@std@@@std@@QAE@V?$allocator@PAUtagEventInfo@@@1@@Z PROC ; std::_Vector_val<tagEventInfo *,std::allocator<tagEventInfo *> >::_Vector_val<tagEventInfo *,std::allocator<tagEventInfo *> >, COMDAT
; _this$ = ecx

; 426  : 		{	// construct allocator from _Al

  00000	8b c1		 mov	 eax, ecx

; 427  : 		_Myfirst = 0;

  00002	33 c9		 xor	 ecx, ecx
  00004	89 08		 mov	 DWORD PTR [eax], ecx

; 428  : 		_Mylast = 0;

  00006	89 48 04	 mov	 DWORD PTR [eax+4], ecx

; 429  : 		_Myend = 0;

  00009	89 48 08	 mov	 DWORD PTR [eax+8], ecx

; 430  : 		}

  0000c	c2 04 00	 ret	 4
??0?$_Vector_val@PAUtagEventInfo@@V?$allocator@PAUtagEventInfo@@@std@@@std@@QAE@V?$allocator@PAUtagEventInfo@@@1@@Z ENDP ; std::_Vector_val<tagEventInfo *,std::allocator<tagEventInfo *> >::_Vector_val<tagEventInfo *,std::allocator<tagEventInfo *> >
_TEXT	ENDS
PUBLIC	?allocate@?$allocator@PAUtagEventInfo@@@std@@QAEPAPAUtagEventInfo@@I@Z ; std::allocator<tagEventInfo *>::allocate
; Function compile flags: /Ogsp
; File c:\program files (x86)\microsoft visual studio 10.0\vc\include\xmemory
;	COMDAT ?allocate@?$allocator@PAUtagEventInfo@@@std@@QAEPAPAUtagEventInfo@@I@Z
_TEXT	SEGMENT
__Count$ = 8						; size = 4
?allocate@?$allocator@PAUtagEventInfo@@@std@@QAEPAPAUtagEventInfo@@I@Z PROC ; std::allocator<tagEventInfo *>::allocate, COMDAT
; _this$ = ecx

; 186  : 		{	// allocate array of _Count elements

  00000	55		 push	 ebp
  00001	8b ec		 mov	 ebp, esp

; 187  : 		return (_Allocate(_Count, (pointer)0));

  00003	6a 00		 push	 0
  00005	ff 75 08	 push	 DWORD PTR __Count$[ebp]
  00008	e8 00 00 00 00	 call	 ??$_Allocate@PAUtagEventInfo@@@std@@YAPAPAUtagEventInfo@@IPAPAU1@@Z ; std::_Allocate<tagEventInfo *>
  0000d	59		 pop	 ecx
  0000e	59		 pop	 ecx

; 188  : 		}

  0000f	5d		 pop	 ebp
  00010	c2 04 00	 ret	 4
?allocate@?$allocator@PAUtagEventInfo@@@std@@QAEPAPAUtagEventInfo@@I@Z ENDP ; std::allocator<tagEventInfo *>::allocate
_TEXT	ENDS
PUBLIC	??0?$_Vector_iterator@V?$_Vector_val@PAUtagEventInfo@@V?$allocator@PAUtagEventInfo@@@std@@@std@@@std@@QAE@PAPAUtagEventInfo@@PBU_Container_base0@1@@Z ; std::_Vector_iterator<std::_Vector_val<tagEventInfo *,std::allocator<tagEventInfo *> > >::_Vector_iterator<std::_Vector_val<tagEventInfo *,std::allocator<tagEventInfo *> > >
; Function compile flags: /Ogsp
; File c:\program files (x86)\microsoft visual studio 10.0\vc\include\vector
;	COMDAT ??0?$_Vector_iterator@V?$_Vector_val@PAUtagEventInfo@@V?$allocator@PAUtagEventInfo@@@std@@@std@@@std@@QAE@PAPAUtagEventInfo@@PBU_Container_base0@1@@Z
_TEXT	SEGMENT
__Parg$ = 8						; size = 4
__Pvector$ = 12						; size = 4
??0?$_Vector_iterator@V?$_Vector_val@PAUtagEventInfo@@V?$allocator@PAUtagEventInfo@@@std@@@std@@@std@@QAE@PAPAUtagEventInfo@@PBU_Container_base0@1@@Z PROC ; std::_Vector_iterator<std::_Vector_val<tagEventInfo *,std::allocator<tagEventInfo *> > >::_Vector_iterator<std::_Vector_val<tagEventInfo *,std::allocator<tagEventInfo *> > >, COMDAT
; _this$ = ecx

; 304  : 		{	// construct with pointer _Parg

  00000	55		 push	 ebp
  00001	8b ec		 mov	 ebp, esp
  00003	8b c1		 mov	 eax, ecx
  00005	8b 4d 08	 mov	 ecx, DWORD PTR __Parg$[ebp]
  00008	89 08		 mov	 DWORD PTR [eax], ecx

; 305  : 		}

  0000a	5d		 pop	 ebp
  0000b	c2 08 00	 ret	 8
??0?$_Vector_iterator@V?$_Vector_val@PAUtagEventInfo@@V?$allocator@PAUtagEventInfo@@@std@@@std@@@std@@QAE@PAPAUtagEventInfo@@PBU_Container_base0@1@@Z ENDP ; std::_Vector_iterator<std::_Vector_val<tagEventInfo *,std::allocator<tagEventInfo *> > >::_Vector_iterator<std::_Vector_val<tagEventInfo *,std::allocator<tagEventInfo *> > >
_TEXT	ENDS
PUBLIC	??8?$_Vector_const_iterator@V?$_Vector_val@PAUtagEventInfo@@V?$allocator@PAUtagEventInfo@@@std@@@std@@@std@@QBE_NABV01@@Z ; std::_Vector_const_iterator<std::_Vector_val<tagEventInfo *,std::allocator<tagEventInfo *> > >::operator==
; Function compile flags: /Ogsp
;	COMDAT ??8?$_Vector_const_iterator@V?$_Vector_val@PAUtagEventInfo@@V?$allocator@PAUtagEventInfo@@@std@@@std@@@std@@QBE_NABV01@@Z
_TEXT	SEGMENT
__Right$ = 8						; size = 4
??8?$_Vector_const_iterator@V?$_Vector_val@PAUtagEventInfo@@V?$allocator@PAUtagEventInfo@@@std@@@std@@@std@@QBE_NABV01@@Z PROC ; std::_Vector_const_iterator<std::_Vector_val<tagEventInfo *,std::allocator<tagEventInfo *> > >::operator==, COMDAT
; _this$ = ecx

; 201  : 		{	// test for iterator equality

  00000	55		 push	 ebp
  00001	8b ec		 mov	 ebp, esp

; 202  : 		_Compat(_Right);
; 203  : 		return (this->_Ptr == _Right._Ptr);

  00003	8b 01		 mov	 eax, DWORD PTR [ecx]
  00005	8b 4d 08	 mov	 ecx, DWORD PTR __Right$[ebp]
  00008	2b 01		 sub	 eax, DWORD PTR [ecx]
  0000a	f7 d8		 neg	 eax
  0000c	1b c0		 sbb	 eax, eax
  0000e	40		 inc	 eax

; 204  : 		}

  0000f	5d		 pop	 ebp
  00010	c2 04 00	 ret	 4
??8?$_Vector_const_iterator@V?$_Vector_val@PAUtagEventInfo@@V?$allocator@PAUtagEventInfo@@@std@@@std@@@std@@QBE_NABV01@@Z ENDP ; std::_Vector_const_iterator<std::_Vector_val<tagEventInfo *,std::allocator<tagEventInfo *> > >::operator==
_TEXT	ENDS
PUBLIC	??0?$_Vector_iterator@V?$_Vector_val@PAVioUIRenderImage@@V?$allocator@PAVioUIRenderImage@@@std@@@std@@@std@@QAE@PAPAVioUIRenderImage@@PBU_Container_base0@1@@Z ; std::_Vector_iterator<std::_Vector_val<ioUIRenderImage *,std::allocator<ioUIRenderImage *> > >::_Vector_iterator<std::_Vector_val<ioUIRenderImage *,std::allocator<ioUIRenderImage *> > >
; Function compile flags: /Ogsp
;	COMDAT ??0?$_Vector_iterator@V?$_Vector_val@PAVioUIRenderImage@@V?$allocator@PAVioUIRenderImage@@@std@@@std@@@std@@QAE@PAPAVioUIRenderImage@@PBU_Container_base0@1@@Z
_TEXT	SEGMENT
__Parg$ = 8						; size = 4
__Pvector$ = 12						; size = 4
??0?$_Vector_iterator@V?$_Vector_val@PAVioUIRenderImage@@V?$allocator@PAVioUIRenderImage@@@std@@@std@@@std@@QAE@PAPAVioUIRenderImage@@PBU_Container_base0@1@@Z PROC ; std::_Vector_iterator<std::_Vector_val<ioUIRenderImage *,std::allocator<ioUIRenderImage *> > >::_Vector_iterator<std::_Vector_val<ioUIRenderImage *,std::allocator<ioUIRenderImage *> > >, COMDAT
; _this$ = ecx

; 304  : 		{	// construct with pointer _Parg

  00000	55		 push	 ebp
  00001	8b ec		 mov	 ebp, esp
  00003	8b c1		 mov	 eax, ecx
  00005	8b 4d 08	 mov	 ecx, DWORD PTR __Parg$[ebp]
  00008	89 08		 mov	 DWORD PTR [eax], ecx

; 305  : 		}

  0000a	5d		 pop	 ebp
  0000b	c2 08 00	 ret	 8
??0?$_Vector_iterator@V?$_Vector_val@PAVioUIRenderImage@@V?$allocator@PAVioUIRenderImage@@@std@@@std@@@std@@QAE@PAPAVioUIRenderImage@@PBU_Container_base0@1@@Z ENDP ; std::_Vector_iterator<std::_Vector_val<ioUIRenderImage *,std::allocator<ioUIRenderImage *> > >::_Vector_iterator<std::_Vector_val<ioUIRenderImage *,std::allocator<ioUIRenderImage *> > >
_TEXT	ENDS
PUBLIC	??E?$_Vector_iterator@V?$_Vector_val@PAVioUIRenderImage@@V?$allocator@PAVioUIRenderImage@@@std@@@std@@@std@@QAEAAV01@XZ ; std::_Vector_iterator<std::_Vector_val<ioUIRenderImage *,std::allocator<ioUIRenderImage *> > >::operator++
; Function compile flags: /Ogsp
;	COMDAT ??E?$_Vector_iterator@V?$_Vector_val@PAVioUIRenderImage@@V?$allocator@PAVioUIRenderImage@@@std@@@std@@@std@@QAEAAV01@XZ
_TEXT	SEGMENT
??E?$_Vector_iterator@V?$_Vector_val@PAVioUIRenderImage@@V?$allocator@PAVioUIRenderImage@@@std@@@std@@@std@@QAEAAV01@XZ PROC ; std::_Vector_iterator<std::_Vector_val<ioUIRenderImage *,std::allocator<ioUIRenderImage *> > >::operator++, COMDAT
; _this$ = ecx

; 331  : 		{	// preincrement

  00000	8b c1		 mov	 eax, ecx

; 332  : 		++*(_Mybase *)this;

  00002	83 00 04	 add	 DWORD PTR [eax], 4

; 333  : 		return (*this);
; 334  : 		}

  00005	c3		 ret	 0
??E?$_Vector_iterator@V?$_Vector_val@PAVioUIRenderImage@@V?$allocator@PAVioUIRenderImage@@@std@@@std@@@std@@QAEAAV01@XZ ENDP ; std::_Vector_iterator<std::_Vector_val<ioUIRenderImage *,std::allocator<ioUIRenderImage *> > >::operator++
_TEXT	ENDS
PUBLIC	??8?$_Vector_const_iterator@V?$_Vector_val@PAVioUIRenderImage@@V?$allocator@PAVioUIRenderImage@@@std@@@std@@@std@@QBE_NABV01@@Z ; std::_Vector_const_iterator<std::_Vector_val<ioUIRenderImage *,std::allocator<ioUIRenderImage *> > >::operator==
; Function compile flags: /Ogsp
;	COMDAT ??8?$_Vector_const_iterator@V?$_Vector_val@PAVioUIRenderImage@@V?$allocator@PAVioUIRenderImage@@@std@@@std@@@std@@QBE_NABV01@@Z
_TEXT	SEGMENT
__Right$ = 8						; size = 4
??8?$_Vector_const_iterator@V?$_Vector_val@PAVioUIRenderImage@@V?$allocator@PAVioUIRenderImage@@@std@@@std@@@std@@QBE_NABV01@@Z PROC ; std::_Vector_const_iterator<std::_Vector_val<ioUIRenderImage *,std::allocator<ioUIRenderImage *> > >::operator==, COMDAT
; _this$ = ecx

; 201  : 		{	// test for iterator equality

  00000	55		 push	 ebp
  00001	8b ec		 mov	 ebp, esp

; 202  : 		_Compat(_Right);
; 203  : 		return (this->_Ptr == _Right._Ptr);

  00003	8b 01		 mov	 eax, DWORD PTR [ecx]
  00005	8b 4d 08	 mov	 ecx, DWORD PTR __Right$[ebp]
  00008	2b 01		 sub	 eax, DWORD PTR [ecx]
  0000a	f7 d8		 neg	 eax
  0000c	1b c0		 sbb	 eax, eax
  0000e	40		 inc	 eax

; 204  : 		}

  0000f	5d		 pop	 ebp
  00010	c2 04 00	 ret	 4
??8?$_Vector_const_iterator@V?$_Vector_val@PAVioUIRenderImage@@V?$allocator@PAVioUIRenderImage@@@std@@@std@@@std@@QBE_NABV01@@Z ENDP ; std::_Vector_const_iterator<std::_Vector_val<ioUIRenderImage *,std::allocator<ioUIRenderImage *> > >::operator==
_TEXT	ENDS
PUBLIC	?_Make_iter@?$vector@PAVioUIRenderImage@@V?$allocator@PAVioUIRenderImage@@@std@@@std@@QBE?AV?$_Vector_iterator@V?$_Vector_val@PAVioUIRenderImage@@V?$allocator@PAVioUIRenderImage@@@std@@@std@@@2@V?$_Vector_const_iterator@V?$_Vector_val@PAVioUIRenderImage@@V?$allocator@PAVioUIRenderImage@@@std@@@std@@@2@@Z ; std::vector<ioUIRenderImage *,std::allocator<ioUIRenderImage *> >::_Make_iter
; Function compile flags: /Ogsp
;	COMDAT ?_Make_iter@?$vector@PAVioUIRenderImage@@V?$allocator@PAVioUIRenderImage@@@std@@@std@@QBE?AV?$_Vector_iterator@V?$_Vector_val@PAVioUIRenderImage@@V?$allocator@PAVioUIRenderImage@@@std@@@std@@@2@V?$_Vector_const_iterator@V?$_Vector_val@PAVioUIRenderImage@@V?$allocator@PAVioUIRenderImage@@@std@@@std@@@2@@Z
_TEXT	SEGMENT
___$ReturnUdt$ = 8					; size = 4
__Where$ = 12						; size = 4
?_Make_iter@?$vector@PAVioUIRenderImage@@V?$allocator@PAVioUIRenderImage@@@std@@@std@@QBE?AV?$_Vector_iterator@V?$_Vector_val@PAVioUIRenderImage@@V?$allocator@PAVioUIRenderImage@@@std@@@std@@@2@V?$_Vector_const_iterator@V?$_Vector_val@PAVioUIRenderImage@@V?$allocator@PAVioUIRenderImage@@@std@@@std@@@2@@Z PROC ; std::vector<ioUIRenderImage *,std::allocator<ioUIRenderImage *> >::_Make_iter, COMDAT
; _this$ = ecx

; 801  : 		{	// make iterator from const_iterator

  00000	55		 push	 ebp
  00001	8b ec		 mov	 ebp, esp

; 802  : 		return (iterator(_Where._Ptr, this));

  00003	8b 45 08	 mov	 eax, DWORD PTR ___$ReturnUdt$[ebp]
  00006	8b 4d 0c	 mov	 ecx, DWORD PTR __Where$[ebp]
  00009	89 08		 mov	 DWORD PTR [eax], ecx

; 803  : 		}

  0000b	5d		 pop	 ebp
  0000c	c2 08 00	 ret	 8
?_Make_iter@?$vector@PAVioUIRenderImage@@V?$allocator@PAVioUIRenderImage@@@std@@@std@@QBE?AV?$_Vector_iterator@V?$_Vector_val@PAVioUIRenderImage@@V?$allocator@PAVioUIRenderImage@@@std@@@std@@@2@V?$_Vector_const_iterator@V?$_Vector_val@PAVioUIRenderImage@@V?$allocator@PAVioUIRenderImage@@@std@@@std@@@2@@Z ENDP ; std::vector<ioUIRenderImage *,std::allocator<ioUIRenderImage *> >::_Make_iter
_TEXT	ENDS
PUBLIC	?max_size@?$vector@PAVioUIRenderImage@@V?$allocator@PAVioUIRenderImage@@@std@@@std@@QBEIXZ ; std::vector<ioUIRenderImage *,std::allocator<ioUIRenderImage *> >::max_size
; Function compile flags: /Ogsp
;	COMDAT ?max_size@?$vector@PAVioUIRenderImage@@V?$allocator@PAVioUIRenderImage@@@std@@@std@@QBEIXZ
_TEXT	SEGMENT
?max_size@?$vector@PAVioUIRenderImage@@V?$allocator@PAVioUIRenderImage@@@std@@@std@@QBEIXZ PROC ; std::vector<ioUIRenderImage *,std::allocator<ioUIRenderImage *> >::max_size, COMDAT
; _this$ = ecx

; 884  : 		return (this->_Alval.max_size());

  00000	b8 ff ff ff 3f	 mov	 eax, 1073741823		; 3fffffffH

; 885  : 		}

  00005	c3		 ret	 0
?max_size@?$vector@PAVioUIRenderImage@@V?$allocator@PAVioUIRenderImage@@@std@@@std@@QBEIXZ ENDP ; std::vector<ioUIRenderImage *,std::allocator<ioUIRenderImage *> >::max_size
_TEXT	ENDS
PUBLIC	?_Grow_to@?$vector@PAVioUIRenderImage@@V?$allocator@PAVioUIRenderImage@@@std@@@std@@IBEII@Z ; std::vector<ioUIRenderImage *,std::allocator<ioUIRenderImage *> >::_Grow_to
; Function compile flags: /Ogsp
;	COMDAT ?_Grow_to@?$vector@PAVioUIRenderImage@@V?$allocator@PAVioUIRenderImage@@@std@@@std@@IBEII@Z
_TEXT	SEGMENT
__Count$ = 8						; size = 4
?_Grow_to@?$vector@PAVioUIRenderImage@@V?$allocator@PAVioUIRenderImage@@@std@@@std@@IBEII@Z PROC ; std::vector<ioUIRenderImage *,std::allocator<ioUIRenderImage *> >::_Grow_to, COMDAT
; _this$ = ecx

; 1274 : 		{	// grow by 50% or at least to _Count

  00000	55		 push	 ebp
  00001	8b ec		 mov	 ebp, esp

; 1275 : 		size_type _Capacity = capacity();

  00003	8b 41 08	 mov	 eax, DWORD PTR [ecx+8]
  00006	2b 01		 sub	 eax, DWORD PTR [ecx]

; 1276 : 
; 1277 : 		_Capacity = max_size() - _Capacity / 2 < _Capacity
; 1278 : 			? 0 : _Capacity + _Capacity / 2;	// try to grow by 50%

  00008	ba ff ff ff 3f	 mov	 edx, 1073741823		; 3fffffffH
  0000d	c1 f8 02	 sar	 eax, 2
  00010	8b c8		 mov	 ecx, eax
  00012	d1 e9		 shr	 ecx, 1
  00014	2b d1		 sub	 edx, ecx
  00016	3b d0		 cmp	 edx, eax
  00018	73 04		 jae	 SHORT $LN4@Grow_to
  0001a	33 c0		 xor	 eax, eax
  0001c	eb 02		 jmp	 SHORT $LN5@Grow_to
$LN4@Grow_to:
  0001e	03 c1		 add	 eax, ecx
$LN5@Grow_to:

; 1279 : 		if (_Capacity < _Count)

  00020	3b 45 08	 cmp	 eax, DWORD PTR __Count$[ebp]

; 1280 : 			_Capacity = _Count;

  00023	0f 42 45 08	 cmovb	 eax, DWORD PTR __Count$[ebp]

; 1281 : 		return (_Capacity);
; 1282 : 		}

  00027	5d		 pop	 ebp
  00028	c2 04 00	 ret	 4
?_Grow_to@?$vector@PAVioUIRenderImage@@V?$allocator@PAVioUIRenderImage@@@std@@@std@@IBEII@Z ENDP ; std::vector<ioUIRenderImage *,std::allocator<ioUIRenderImage *> >::_Grow_to
_TEXT	ENDS
PUBLIC	?_Grow_to@?$vector@PAUtagEventInfo@@V?$allocator@PAUtagEventInfo@@@std@@@std@@IBEII@Z ; std::vector<tagEventInfo *,std::allocator<tagEventInfo *> >::_Grow_to
; Function compile flags: /Ogsp
;	COMDAT ?_Grow_to@?$vector@PAUtagEventInfo@@V?$allocator@PAUtagEventInfo@@@std@@@std@@IBEII@Z
_TEXT	SEGMENT
__Count$ = 8						; size = 4
?_Grow_to@?$vector@PAUtagEventInfo@@V?$allocator@PAUtagEventInfo@@@std@@@std@@IBEII@Z PROC ; std::vector<tagEventInfo *,std::allocator<tagEventInfo *> >::_Grow_to, COMDAT
; _this$ = ecx

; 1274 : 		{	// grow by 50% or at least to _Count

  00000	55		 push	 ebp
  00001	8b ec		 mov	 ebp, esp

; 1275 : 		size_type _Capacity = capacity();

  00003	8b 41 08	 mov	 eax, DWORD PTR [ecx+8]
  00006	2b 01		 sub	 eax, DWORD PTR [ecx]

; 1276 : 
; 1277 : 		_Capacity = max_size() - _Capacity / 2 < _Capacity
; 1278 : 			? 0 : _Capacity + _Capacity / 2;	// try to grow by 50%

  00008	ba ff ff ff 3f	 mov	 edx, 1073741823		; 3fffffffH
  0000d	c1 f8 02	 sar	 eax, 2
  00010	8b c8		 mov	 ecx, eax
  00012	d1 e9		 shr	 ecx, 1
  00014	2b d1		 sub	 edx, ecx
  00016	3b d0		 cmp	 edx, eax
  00018	73 04		 jae	 SHORT $LN4@Grow_to@2
  0001a	33 c0		 xor	 eax, eax
  0001c	eb 02		 jmp	 SHORT $LN5@Grow_to@2
$LN4@Grow_to@2:
  0001e	03 c1		 add	 eax, ecx
$LN5@Grow_to@2:

; 1279 : 		if (_Capacity < _Count)

  00020	3b 45 08	 cmp	 eax, DWORD PTR __Count$[ebp]

; 1280 : 			_Capacity = _Count;

  00023	0f 42 45 08	 cmovb	 eax, DWORD PTR __Count$[ebp]

; 1281 : 		return (_Capacity);
; 1282 : 		}

  00027	5d		 pop	 ebp
  00028	c2 04 00	 ret	 4
?_Grow_to@?$vector@PAUtagEventInfo@@V?$allocator@PAUtagEventInfo@@@std@@@std@@IBEII@Z ENDP ; std::vector<tagEventInfo *,std::allocator<tagEventInfo *> >::_Grow_to
_TEXT	ENDS
PUBLIC	?allocate@?$allocator@PAVioUIRenderImage@@@std@@QAEPAPAVioUIRenderImage@@I@Z ; std::allocator<ioUIRenderImage *>::allocate
; Function compile flags: /Ogsp
; File c:\program files (x86)\microsoft visual studio 10.0\vc\include\xmemory
;	COMDAT ?allocate@?$allocator@PAVioUIRenderImage@@@std@@QAEPAPAVioUIRenderImage@@I@Z
_TEXT	SEGMENT
__Count$ = 8						; size = 4
?allocate@?$allocator@PAVioUIRenderImage@@@std@@QAEPAPAVioUIRenderImage@@I@Z PROC ; std::allocator<ioUIRenderImage *>::allocate, COMDAT
; _this$ = ecx

; 186  : 		{	// allocate array of _Count elements

  00000	55		 push	 ebp
  00001	8b ec		 mov	 ebp, esp

; 187  : 		return (_Allocate(_Count, (pointer)0));

  00003	6a 00		 push	 0
  00005	ff 75 08	 push	 DWORD PTR __Count$[ebp]
  00008	e8 00 00 00 00	 call	 ??$_Allocate@PAVioUIRenderImage@@@std@@YAPAPAVioUIRenderImage@@IPAPAV1@@Z ; std::_Allocate<ioUIRenderImage *>
  0000d	59		 pop	 ecx
  0000e	59		 pop	 ecx

; 188  : 		}

  0000f	5d		 pop	 ebp
  00010	c2 04 00	 ret	 4
?allocate@?$allocator@PAVioUIRenderImage@@@std@@QAEPAPAVioUIRenderImage@@I@Z ENDP ; std::allocator<ioUIRenderImage *>::allocate
_TEXT	ENDS
PUBLIC	__$ArrayPad$
PUBLIC	??$?8$09@@YA_NABVioHashString@@AAY09$$CBD@Z	; operator==<10>
; Function compile flags: /Ogsp
; File d:\lost saga for developer\youtube\tutorial\source\src\io3dengine\iohashstring.h
;	COMDAT ??$?8$09@@YA_NABVioHashString@@AAY09$$CBD@Z
_TEXT	SEGMENT
__t$ = -20						; size = 10
__$ArrayPad$ = -4					; size = 4
_lhs$ = 8						; size = 4
_t$ = 12						; size = 4
??$?8$09@@YA_NABVioHashString@@AAY09$$CBD@Z PROC	; operator==<10>, COMDAT

; 146  : {

  00000	55		 push	 ebp
  00001	8b ec		 mov	 ebp, esp
  00003	83 ec 14	 sub	 esp, 20			; 00000014H
  00006	a1 00 00 00 00	 mov	 eax, DWORD PTR ___security_cookie
  0000b	33 c5		 xor	 eax, ebp
  0000d	89 45 fc	 mov	 DWORD PTR __$ArrayPad$[ebp], eax
  00010	8b 45 0c	 mov	 eax, DWORD PTR _t$[ebp]

; 147  : 	_ENCSTR(t, _t); return ( strcmp( lhs.c_str(), _t ) == 0 );

  00013	8a 10		 mov	 dl, BYTE PTR [eax]
  00015	8b 4d 08	 mov	 ecx, DWORD PTR _lhs$[ebp]
  00018	84 d2		 test	 dl, dl
  0001a	0f 84 0d 01 00
	00		 je	 $LN96@operator
  00020	80 f2 ed	 xor	 dl, -19			; ffffffedH
  00023	88 55 ec	 mov	 BYTE PTR __t$[ebp], dl
  00026	8a 50 01	 mov	 dl, BYTE PTR [eax+1]
  00029	84 d2		 test	 dl, dl
  0002b	0f 84 f6 00 00
	00		 je	 $LN95@operator
  00031	80 f2 ec	 xor	 dl, -20			; ffffffecH
  00034	88 55 ed	 mov	 BYTE PTR __t$[ebp+1], dl
  00037	8a 50 02	 mov	 dl, BYTE PTR [eax+2]
  0003a	84 d2		 test	 dl, dl
  0003c	0f 84 df 00 00
	00		 je	 $LN94@operator
  00042	80 f2 eb	 xor	 dl, -21			; ffffffebH
  00045	88 55 ee	 mov	 BYTE PTR __t$[ebp+2], dl
  00048	8a 50 03	 mov	 dl, BYTE PTR [eax+3]
  0004b	84 d2		 test	 dl, dl
  0004d	0f 84 c8 00 00
	00		 je	 $LN93@operator
  00053	80 f2 ea	 xor	 dl, -22			; ffffffeaH
  00056	88 55 ef	 mov	 BYTE PTR __t$[ebp+3], dl
  00059	8a 50 04	 mov	 dl, BYTE PTR [eax+4]
  0005c	84 d2		 test	 dl, dl
  0005e	0f 84 b1 00 00
	00		 je	 $LN92@operator
  00064	80 f2 ed	 xor	 dl, -19			; ffffffedH
  00067	88 55 f0	 mov	 BYTE PTR __t$[ebp+4], dl
  0006a	8a 50 05	 mov	 dl, BYTE PTR [eax+5]
  0006d	84 d2		 test	 dl, dl
  0006f	0f 84 9a 00 00
	00		 je	 $LN91@operator
  00075	80 f2 ec	 xor	 dl, -20			; ffffffecH
  00078	88 55 f1	 mov	 BYTE PTR __t$[ebp+5], dl
  0007b	8a 50 06	 mov	 dl, BYTE PTR [eax+6]
  0007e	84 d2		 test	 dl, dl
  00080	0f 84 83 00 00
	00		 je	 $LN90@operator
  00086	80 f2 eb	 xor	 dl, -21			; ffffffebH
  00089	88 55 f2	 mov	 BYTE PTR __t$[ebp+6], dl
  0008c	8a 50 07	 mov	 dl, BYTE PTR [eax+7]
  0008f	84 d2		 test	 dl, dl
  00091	74 70		 je	 SHORT $LN89@operator
  00093	80 f2 ea	 xor	 dl, -22			; ffffffeaH
  00096	88 55 f3	 mov	 BYTE PTR __t$[ebp+7], dl
  00099	8a 50 08	 mov	 dl, BYTE PTR [eax+8]
  0009c	84 d2		 test	 dl, dl
  0009e	74 5d		 je	 SHORT $LN88@operator
  000a0	80 f2 ed	 xor	 dl, -19			; ffffffedH
  000a3	80 78 09 00	 cmp	 BYTE PTR [eax+9], 0
  000a7	88 55 f4	 mov	 BYTE PTR __t$[ebp+8], dl
  000aa	0f 84 81 00 00
	00		 je	 $LN1@operator
  000b0	8a 50 0a	 mov	 dl, BYTE PTR [eax+10]
  000b3	84 d2		 test	 dl, dl
  000b5	74 40		 je	 SHORT $LN86@operator
  000b7	80 f2 eb	 xor	 dl, -21			; ffffffebH
  000ba	88 55 f6	 mov	 BYTE PTR __t$[ebp+10], dl
  000bd	8a 50 0b	 mov	 dl, BYTE PTR [eax+11]
  000c0	84 d2		 test	 dl, dl
  000c2	74 2d		 je	 SHORT $LN85@operator
  000c4	80 f2 ea	 xor	 dl, -22			; ffffffeaH
  000c7	88 55 f7	 mov	 BYTE PTR __t$[ebp+11], dl
  000ca	8a 50 0c	 mov	 dl, BYTE PTR [eax+12]
  000cd	84 d2		 test	 dl, dl
  000cf	74 1a		 je	 SHORT $LN84@operator
  000d1	8a 40 0d	 mov	 al, BYTE PTR [eax+13]
  000d4	80 f2 ed	 xor	 dl, -19			; ffffffedH
  000d7	88 55 f8	 mov	 BYTE PTR __t$[ebp+12], dl
  000da	84 c0		 test	 al, al
  000dc	74 07		 je	 SHORT $LN83@operator
  000de	34 ec		 xor	 al, -20			; ffffffecH
  000e0	88 45 f9	 mov	 BYTE PTR __t$[ebp+13], al
  000e3	eb 4c		 jmp	 SHORT $LN1@operator
$LN83@operator:
  000e5	c6 45 f9 ec	 mov	 BYTE PTR __t$[ebp+13], -20 ; ffffffecH
  000e9	eb 46		 jmp	 SHORT $LN1@operator
$LN84@operator:
  000eb	c6 45 f8 ed	 mov	 BYTE PTR __t$[ebp+12], -19 ; ffffffedH
  000ef	eb 40		 jmp	 SHORT $LN1@operator
$LN85@operator:
  000f1	c6 45 f7 ea	 mov	 BYTE PTR __t$[ebp+11], -22 ; ffffffeaH
  000f5	eb 3a		 jmp	 SHORT $LN1@operator
$LN86@operator:
  000f7	c6 45 f6 eb	 mov	 BYTE PTR __t$[ebp+10], -21 ; ffffffebH
  000fb	eb 34		 jmp	 SHORT $LN1@operator
$LN88@operator:
  000fd	c6 45 f4 ed	 mov	 BYTE PTR __t$[ebp+8], -19 ; ffffffedH
  00101	eb 2e		 jmp	 SHORT $LN1@operator
$LN89@operator:
  00103	c6 45 f3 ea	 mov	 BYTE PTR __t$[ebp+7], -22 ; ffffffeaH
  00107	eb 28		 jmp	 SHORT $LN1@operator
$LN90@operator:
  00109	c6 45 f2 eb	 mov	 BYTE PTR __t$[ebp+6], -21 ; ffffffebH
  0010d	eb 22		 jmp	 SHORT $LN1@operator
$LN91@operator:
  0010f	c6 45 f1 ec	 mov	 BYTE PTR __t$[ebp+5], -20 ; ffffffecH
  00113	eb 1c		 jmp	 SHORT $LN1@operator
$LN92@operator:
  00115	c6 45 f0 ed	 mov	 BYTE PTR __t$[ebp+4], -19 ; ffffffedH
  00119	eb 16		 jmp	 SHORT $LN1@operator
$LN93@operator:
  0011b	c6 45 ef ea	 mov	 BYTE PTR __t$[ebp+3], -22 ; ffffffeaH
  0011f	eb 10		 jmp	 SHORT $LN1@operator
$LN94@operator:
  00121	c6 45 ee eb	 mov	 BYTE PTR __t$[ebp+2], -21 ; ffffffebH
  00125	eb 0a		 jmp	 SHORT $LN1@operator
$LN95@operator:
  00127	c6 45 ed ec	 mov	 BYTE PTR __t$[ebp+1], -20 ; ffffffecH
  0012b	eb 04		 jmp	 SHORT $LN1@operator
$LN96@operator:
  0012d	c6 45 ec ed	 mov	 BYTE PTR __t$[ebp], -19	; ffffffedH
$LN1@operator:
  00131	6a 02		 push	 2
  00133	8d 45 ec	 lea	 eax, DWORD PTR __t$[ebp]
  00136	c6 45 f5 00	 mov	 BYTE PTR __t$[ebp+9], 0
  0013a	5a		 pop	 edx
$LL104@operator:
  0013b	81 30 ed ec eb
	ea		 xor	 DWORD PTR [eax], -353637139 ; eaebecedH
  00141	83 c0 04	 add	 eax, 4
  00144	4a		 dec	 edx
  00145	75 f4		 jne	 SHORT $LL104@operator
  00147	80 75 f4 ed	 xor	 BYTE PTR __t$[ebp+8], -19 ; ffffffedH
  0014b	56		 push	 esi
  0014c	8d 75 ec	 lea	 esi, DWORD PTR __t$[ebp]
  0014f	ff 15 00 00 00
	00		 call	 DWORD PTR __imp_?c_str@ioHashString@@QBEPBDXZ
$LL111@operator:
  00155	8a 08		 mov	 cl, BYTE PTR [eax]
  00157	3a 0e		 cmp	 cl, BYTE PTR [esi]
  00159	75 1a		 jne	 SHORT $LN112@operator
  0015b	84 c9		 test	 cl, cl
  0015d	74 12		 je	 SHORT $LN113@operator
  0015f	8a 48 01	 mov	 cl, BYTE PTR [eax+1]
  00162	3a 4e 01	 cmp	 cl, BYTE PTR [esi+1]
  00165	75 0e		 jne	 SHORT $LN112@operator
  00167	83 c0 02	 add	 eax, 2
  0016a	83 c6 02	 add	 esi, 2
  0016d	84 c9		 test	 cl, cl
  0016f	75 e4		 jne	 SHORT $LL111@operator
$LN113@operator:
  00171	33 c0		 xor	 eax, eax
  00173	eb 05		 jmp	 SHORT $LN114@operator
$LN112@operator:
  00175	1b c0		 sbb	 eax, eax
  00177	83 d8 ff	 sbb	 eax, -1
$LN114@operator:
  0017a	33 c9		 xor	 ecx, ecx
  0017c	85 c0		 test	 eax, eax
  0017e	0f 94 c0	 sete	 al

; 148  : }

  00181	8b 4d fc	 mov	 ecx, DWORD PTR __$ArrayPad$[ebp]
  00184	33 cd		 xor	 ecx, ebp
  00186	5e		 pop	 esi
  00187	e8 00 00 00 00	 call	 @__security_check_cookie@4
  0018c	c9		 leave
  0018d	c3		 ret	 0
??$?8$09@@YA_NABVioHashString@@AAY09$$CBD@Z ENDP	; operator==<10>
_TEXT	ENDS
PUBLIC	__$ArrayPad$
PUBLIC	??$?8$08@@YA_NABVioHashString@@AAY08$$CBD@Z	; operator==<9>
; Function compile flags: /Ogsp
;	COMDAT ??$?8$08@@YA_NABVioHashString@@AAY08$$CBD@Z
_TEXT	SEGMENT
__t$ = -20						; size = 9
__$ArrayPad$ = -4					; size = 4
_lhs$ = 8						; size = 4
_t$ = 12						; size = 4
??$?8$08@@YA_NABVioHashString@@AAY08$$CBD@Z PROC	; operator==<9>, COMDAT

; 146  : {

  00000	55		 push	 ebp
  00001	8b ec		 mov	 ebp, esp
  00003	83 ec 14	 sub	 esp, 20			; 00000014H
  00006	a1 00 00 00 00	 mov	 eax, DWORD PTR ___security_cookie
  0000b	33 c5		 xor	 eax, ebp
  0000d	89 45 fc	 mov	 DWORD PTR __$ArrayPad$[ebp], eax
  00010	8b 45 0c	 mov	 eax, DWORD PTR _t$[ebp]

; 147  : 	_ENCSTR(t, _t); return ( strcmp( lhs.c_str(), _t ) == 0 );

  00013	8a 10		 mov	 dl, BYTE PTR [eax]
  00015	8b 4d 08	 mov	 ecx, DWORD PTR _lhs$[ebp]
  00018	84 d2		 test	 dl, dl
  0001a	0f 84 ee 00 00
	00		 je	 $LN96@operator@2
  00020	80 f2 ed	 xor	 dl, -19			; ffffffedH
  00023	88 55 ec	 mov	 BYTE PTR __t$[ebp], dl
  00026	8a 50 01	 mov	 dl, BYTE PTR [eax+1]
  00029	84 d2		 test	 dl, dl
  0002b	0f 84 d7 00 00
	00		 je	 $LN95@operator@2
  00031	80 f2 ec	 xor	 dl, -20			; ffffffecH
  00034	88 55 ed	 mov	 BYTE PTR __t$[ebp+1], dl
  00037	8a 50 02	 mov	 dl, BYTE PTR [eax+2]
  0003a	84 d2		 test	 dl, dl
  0003c	0f 84 c0 00 00
	00		 je	 $LN94@operator@2
  00042	80 f2 eb	 xor	 dl, -21			; ffffffebH
  00045	88 55 ee	 mov	 BYTE PTR __t$[ebp+2], dl
  00048	8a 50 03	 mov	 dl, BYTE PTR [eax+3]
  0004b	84 d2		 test	 dl, dl
  0004d	0f 84 a9 00 00
	00		 je	 $LN93@operator@2
  00053	80 f2 ea	 xor	 dl, -22			; ffffffeaH
  00056	88 55 ef	 mov	 BYTE PTR __t$[ebp+3], dl
  00059	8a 50 04	 mov	 dl, BYTE PTR [eax+4]
  0005c	84 d2		 test	 dl, dl
  0005e	0f 84 92 00 00
	00		 je	 $LN92@operator@2
  00064	80 f2 ed	 xor	 dl, -19			; ffffffedH
  00067	88 55 f0	 mov	 BYTE PTR __t$[ebp+4], dl
  0006a	8a 50 05	 mov	 dl, BYTE PTR [eax+5]
  0006d	84 d2		 test	 dl, dl
  0006f	74 7f		 je	 SHORT $LN91@operator@2
  00071	80 f2 ec	 xor	 dl, -20			; ffffffecH
  00074	88 55 f1	 mov	 BYTE PTR __t$[ebp+5], dl
  00077	8a 50 06	 mov	 dl, BYTE PTR [eax+6]
  0007a	84 d2		 test	 dl, dl
  0007c	74 6c		 je	 SHORT $LN90@operator@2
  0007e	80 f2 eb	 xor	 dl, -21			; ffffffebH
  00081	88 55 f2	 mov	 BYTE PTR __t$[ebp+6], dl
  00084	8a 50 07	 mov	 dl, BYTE PTR [eax+7]
  00087	84 d2		 test	 dl, dl
  00089	74 59		 je	 SHORT $LN89@operator@2
  0008b	80 f2 ea	 xor	 dl, -22			; ffffffeaH
  0008e	80 78 08 00	 cmp	 BYTE PTR [eax+8], 0
  00092	88 55 f3	 mov	 BYTE PTR __t$[ebp+7], dl
  00095	74 7b		 je	 SHORT $LN1@operator@2
  00097	8a 50 09	 mov	 dl, BYTE PTR [eax+9]
  0009a	84 d2		 test	 dl, dl
  0009c	74 40		 je	 SHORT $LN87@operator@2
  0009e	80 f2 ec	 xor	 dl, -20			; ffffffecH
  000a1	88 55 f5	 mov	 BYTE PTR __t$[ebp+9], dl
  000a4	8a 50 0a	 mov	 dl, BYTE PTR [eax+10]
  000a7	84 d2		 test	 dl, dl
  000a9	74 2d		 je	 SHORT $LN86@operator@2
  000ab	80 f2 eb	 xor	 dl, -21			; ffffffebH
  000ae	88 55 f6	 mov	 BYTE PTR __t$[ebp+10], dl
  000b1	8a 50 0b	 mov	 dl, BYTE PTR [eax+11]
  000b4	84 d2		 test	 dl, dl
  000b6	74 1a		 je	 SHORT $LN85@operator@2
  000b8	8a 40 0c	 mov	 al, BYTE PTR [eax+12]
  000bb	80 f2 ea	 xor	 dl, -22			; ffffffeaH
  000be	88 55 f7	 mov	 BYTE PTR __t$[ebp+11], dl
  000c1	84 c0		 test	 al, al
  000c3	74 07		 je	 SHORT $LN84@operator@2
  000c5	34 ed		 xor	 al, -19			; ffffffedH
  000c7	88 45 f8	 mov	 BYTE PTR __t$[ebp+12], al
  000ca	eb 46		 jmp	 SHORT $LN1@operator@2
$LN84@operator@2:
  000cc	c6 45 f8 ed	 mov	 BYTE PTR __t$[ebp+12], -19 ; ffffffedH
  000d0	eb 40		 jmp	 SHORT $LN1@operator@2
$LN85@operator@2:
  000d2	c6 45 f7 ea	 mov	 BYTE PTR __t$[ebp+11], -22 ; ffffffeaH
  000d6	eb 3a		 jmp	 SHORT $LN1@operator@2
$LN86@operator@2:
  000d8	c6 45 f6 eb	 mov	 BYTE PTR __t$[ebp+10], -21 ; ffffffebH
  000dc	eb 34		 jmp	 SHORT $LN1@operator@2
$LN87@operator@2:
  000de	c6 45 f5 ec	 mov	 BYTE PTR __t$[ebp+9], -20 ; ffffffecH
  000e2	eb 2e		 jmp	 SHORT $LN1@operator@2
$LN89@operator@2:
  000e4	c6 45 f3 ea	 mov	 BYTE PTR __t$[ebp+7], -22 ; ffffffeaH
  000e8	eb 28		 jmp	 SHORT $LN1@operator@2
$LN90@operator@2:
  000ea	c6 45 f2 eb	 mov	 BYTE PTR __t$[ebp+6], -21 ; ffffffebH
  000ee	eb 22		 jmp	 SHORT $LN1@operator@2
$LN91@operator@2:
  000f0	c6 45 f1 ec	 mov	 BYTE PTR __t$[ebp+5], -20 ; ffffffecH
  000f4	eb 1c		 jmp	 SHORT $LN1@operator@2
$LN92@operator@2:
  000f6	c6 45 f0 ed	 mov	 BYTE PTR __t$[ebp+4], -19 ; ffffffedH
  000fa	eb 16		 jmp	 SHORT $LN1@operator@2
$LN93@operator@2:
  000fc	c6 45 ef ea	 mov	 BYTE PTR __t$[ebp+3], -22 ; ffffffeaH
  00100	eb 10		 jmp	 SHORT $LN1@operator@2
$LN94@operator@2:
  00102	c6 45 ee eb	 mov	 BYTE PTR __t$[ebp+2], -21 ; ffffffebH
  00106	eb 0a		 jmp	 SHORT $LN1@operator@2
$LN95@operator@2:
  00108	c6 45 ed ec	 mov	 BYTE PTR __t$[ebp+1], -20 ; ffffffecH
  0010c	eb 04		 jmp	 SHORT $LN1@operator@2
$LN96@operator@2:
  0010e	c6 45 ec ed	 mov	 BYTE PTR __t$[ebp], -19	; ffffffedH
$LN1@operator@2:
  00112	6a 02		 push	 2
  00114	8d 45 ec	 lea	 eax, DWORD PTR __t$[ebp]
  00117	c6 45 f4 00	 mov	 BYTE PTR __t$[ebp+8], 0
  0011b	5a		 pop	 edx
$LL104@operator@2:
  0011c	81 30 ed ec eb
	ea		 xor	 DWORD PTR [eax], -353637139 ; eaebecedH
  00122	83 c0 04	 add	 eax, 4
  00125	4a		 dec	 edx
  00126	75 f4		 jne	 SHORT $LL104@operator@2
  00128	56		 push	 esi
  00129	8d 75 ec	 lea	 esi, DWORD PTR __t$[ebp]
  0012c	ff 15 00 00 00
	00		 call	 DWORD PTR __imp_?c_str@ioHashString@@QBEPBDXZ
$LL111@operator@2:
  00132	8a 08		 mov	 cl, BYTE PTR [eax]
  00134	3a 0e		 cmp	 cl, BYTE PTR [esi]
  00136	75 1a		 jne	 SHORT $LN112@operator@2
  00138	84 c9		 test	 cl, cl
  0013a	74 12		 je	 SHORT $LN113@operator@2
  0013c	8a 48 01	 mov	 cl, BYTE PTR [eax+1]
  0013f	3a 4e 01	 cmp	 cl, BYTE PTR [esi+1]
  00142	75 0e		 jne	 SHORT $LN112@operator@2
  00144	83 c0 02	 add	 eax, 2
  00147	83 c6 02	 add	 esi, 2
  0014a	84 c9		 test	 cl, cl
  0014c	75 e4		 jne	 SHORT $LL111@operator@2
$LN113@operator@2:
  0014e	33 c0		 xor	 eax, eax
  00150	eb 05		 jmp	 SHORT $LN114@operator@2
$LN112@operator@2:
  00152	1b c0		 sbb	 eax, eax
  00154	83 d8 ff	 sbb	 eax, -1
$LN114@operator@2:
  00157	33 c9		 xor	 ecx, ecx
  00159	85 c0		 test	 eax, eax
  0015b	0f 94 c0	 sete	 al

; 148  : }

  0015e	8b 4d fc	 mov	 ecx, DWORD PTR __$ArrayPad$[ebp]
  00161	33 cd		 xor	 ecx, ebp
  00163	5e		 pop	 esi
  00164	e8 00 00 00 00	 call	 @__security_check_cookie@4
  00169	c9		 leave
  0016a	c3		 ret	 0
??$?8$08@@YA_NABVioHashString@@AAY08$$CBD@Z ENDP	; operator==<9>
_TEXT	ENDS
PUBLIC	__$ArrayPad$
PUBLIC	??$GetIntAttribute_e@$08@ioXMLElement@@QBEHAAY08$$CBD@Z ; ioXMLElement::GetIntAttribute_e<9>
EXTRN	__imp_?GetIntAttribute@ioXMLElement@@QBEHPBD@Z:PROC
; Function compile flags: /Ogsp
; File d:\lost saga for developer\youtube\tutorial\source\src\io3dengine\ioxmlelement.h
;	COMDAT ??$GetIntAttribute_e@$08@ioXMLElement@@QBEHAAY08$$CBD@Z
_TEXT	SEGMENT
__k$ = -20						; size = 9
__$ArrayPad$ = -4					; size = 4
_k$ = 8							; size = 4
??$GetIntAttribute_e@$08@ioXMLElement@@QBEHAAY08$$CBD@Z PROC ; ioXMLElement::GetIntAttribute_e<9>, COMDAT
; _this$ = ecx

; 86   : 	{

  00000	55		 push	 ebp
  00001	8b ec		 mov	 ebp, esp
  00003	83 ec 14	 sub	 esp, 20			; 00000014H
  00006	a1 00 00 00 00	 mov	 eax, DWORD PTR ___security_cookie
  0000b	33 c5		 xor	 eax, ebp
  0000d	89 45 fc	 mov	 DWORD PTR __$ArrayPad$[ebp], eax
  00010	8b 45 08	 mov	 eax, DWORD PTR _k$[ebp]

; 87   : 		_ENCSTR(k, _k);

  00013	8a 10		 mov	 dl, BYTE PTR [eax]
  00015	84 d2		 test	 dl, dl
  00017	0f 84 ee 00 00
	00		 je	 $LN96@GetIntAttr
  0001d	80 f2 ed	 xor	 dl, -19			; ffffffedH
  00020	88 55 ec	 mov	 BYTE PTR __k$[ebp], dl
  00023	8a 50 01	 mov	 dl, BYTE PTR [eax+1]
  00026	84 d2		 test	 dl, dl
  00028	0f 84 d7 00 00
	00		 je	 $LN95@GetIntAttr
  0002e	80 f2 ec	 xor	 dl, -20			; ffffffecH
  00031	88 55 ed	 mov	 BYTE PTR __k$[ebp+1], dl
  00034	8a 50 02	 mov	 dl, BYTE PTR [eax+2]
  00037	84 d2		 test	 dl, dl
  00039	0f 84 c0 00 00
	00		 je	 $LN94@GetIntAttr
  0003f	80 f2 eb	 xor	 dl, -21			; ffffffebH
  00042	88 55 ee	 mov	 BYTE PTR __k$[ebp+2], dl
  00045	8a 50 03	 mov	 dl, BYTE PTR [eax+3]
  00048	84 d2		 test	 dl, dl
  0004a	0f 84 a9 00 00
	00		 je	 $LN93@GetIntAttr
  00050	80 f2 ea	 xor	 dl, -22			; ffffffeaH
  00053	88 55 ef	 mov	 BYTE PTR __k$[ebp+3], dl
  00056	8a 50 04	 mov	 dl, BYTE PTR [eax+4]
  00059	84 d2		 test	 dl, dl
  0005b	0f 84 92 00 00
	00		 je	 $LN92@GetIntAttr
  00061	80 f2 ed	 xor	 dl, -19			; ffffffedH
  00064	88 55 f0	 mov	 BYTE PTR __k$[ebp+4], dl
  00067	8a 50 05	 mov	 dl, BYTE PTR [eax+5]
  0006a	84 d2		 test	 dl, dl
  0006c	74 7f		 je	 SHORT $LN91@GetIntAttr
  0006e	80 f2 ec	 xor	 dl, -20			; ffffffecH
  00071	88 55 f1	 mov	 BYTE PTR __k$[ebp+5], dl
  00074	8a 50 06	 mov	 dl, BYTE PTR [eax+6]
  00077	84 d2		 test	 dl, dl
  00079	74 6c		 je	 SHORT $LN90@GetIntAttr
  0007b	80 f2 eb	 xor	 dl, -21			; ffffffebH
  0007e	88 55 f2	 mov	 BYTE PTR __k$[ebp+6], dl
  00081	8a 50 07	 mov	 dl, BYTE PTR [eax+7]
  00084	84 d2		 test	 dl, dl
  00086	74 59		 je	 SHORT $LN89@GetIntAttr
  00088	80 f2 ea	 xor	 dl, -22			; ffffffeaH
  0008b	80 78 08 00	 cmp	 BYTE PTR [eax+8], 0
  0008f	88 55 f3	 mov	 BYTE PTR __k$[ebp+7], dl
  00092	74 7b		 je	 SHORT $LN1@GetIntAttr
  00094	8a 50 09	 mov	 dl, BYTE PTR [eax+9]
  00097	84 d2		 test	 dl, dl
  00099	74 40		 je	 SHORT $LN87@GetIntAttr
  0009b	80 f2 ec	 xor	 dl, -20			; ffffffecH
  0009e	88 55 f5	 mov	 BYTE PTR __k$[ebp+9], dl
  000a1	8a 50 0a	 mov	 dl, BYTE PTR [eax+10]
  000a4	84 d2		 test	 dl, dl
  000a6	74 2d		 je	 SHORT $LN86@GetIntAttr
  000a8	80 f2 eb	 xor	 dl, -21			; ffffffebH
  000ab	88 55 f6	 mov	 BYTE PTR __k$[ebp+10], dl
  000ae	8a 50 0b	 mov	 dl, BYTE PTR [eax+11]
  000b1	84 d2		 test	 dl, dl
  000b3	74 1a		 je	 SHORT $LN85@GetIntAttr
  000b5	8a 40 0c	 mov	 al, BYTE PTR [eax+12]
  000b8	80 f2 ea	 xor	 dl, -22			; ffffffeaH
  000bb	88 55 f7	 mov	 BYTE PTR __k$[ebp+11], dl
  000be	84 c0		 test	 al, al
  000c0	74 07		 je	 SHORT $LN84@GetIntAttr
  000c2	34 ed		 xor	 al, -19			; ffffffedH
  000c4	88 45 f8	 mov	 BYTE PTR __k$[ebp+12], al
  000c7	eb 46		 jmp	 SHORT $LN1@GetIntAttr
$LN84@GetIntAttr:
  000c9	c6 45 f8 ed	 mov	 BYTE PTR __k$[ebp+12], -19 ; ffffffedH
  000cd	eb 40		 jmp	 SHORT $LN1@GetIntAttr
$LN85@GetIntAttr:
  000cf	c6 45 f7 ea	 mov	 BYTE PTR __k$[ebp+11], -22 ; ffffffeaH
  000d3	eb 3a		 jmp	 SHORT $LN1@GetIntAttr
$LN86@GetIntAttr:
  000d5	c6 45 f6 eb	 mov	 BYTE PTR __k$[ebp+10], -21 ; ffffffebH
  000d9	eb 34		 jmp	 SHORT $LN1@GetIntAttr
$LN87@GetIntAttr:
  000db	c6 45 f5 ec	 mov	 BYTE PTR __k$[ebp+9], -20 ; ffffffecH
  000df	eb 2e		 jmp	 SHORT $LN1@GetIntAttr
$LN89@GetIntAttr:
  000e1	c6 45 f3 ea	 mov	 BYTE PTR __k$[ebp+7], -22 ; ffffffeaH
  000e5	eb 28		 jmp	 SHORT $LN1@GetIntAttr
$LN90@GetIntAttr:
  000e7	c6 45 f2 eb	 mov	 BYTE PTR __k$[ebp+6], -21 ; ffffffebH
  000eb	eb 22		 jmp	 SHORT $LN1@GetIntAttr
$LN91@GetIntAttr:
  000ed	c6 45 f1 ec	 mov	 BYTE PTR __k$[ebp+5], -20 ; ffffffecH
  000f1	eb 1c		 jmp	 SHORT $LN1@GetIntAttr
$LN92@GetIntAttr:
  000f3	c6 45 f0 ed	 mov	 BYTE PTR __k$[ebp+4], -19 ; ffffffedH
  000f7	eb 16		 jmp	 SHORT $LN1@GetIntAttr
$LN93@GetIntAttr:
  000f9	c6 45 ef ea	 mov	 BYTE PTR __k$[ebp+3], -22 ; ffffffeaH
  000fd	eb 10		 jmp	 SHORT $LN1@GetIntAttr
$LN94@GetIntAttr:
  000ff	c6 45 ee eb	 mov	 BYTE PTR __k$[ebp+2], -21 ; ffffffebH
  00103	eb 0a		 jmp	 SHORT $LN1@GetIntAttr
$LN95@GetIntAttr:
  00105	c6 45 ed ec	 mov	 BYTE PTR __k$[ebp+1], -20 ; ffffffecH
  00109	eb 04		 jmp	 SHORT $LN1@GetIntAttr
$LN96@GetIntAttr:
  0010b	c6 45 ec ed	 mov	 BYTE PTR __k$[ebp], -19	; ffffffedH
$LN1@GetIntAttr:
  0010f	6a 02		 push	 2
  00111	8d 45 ec	 lea	 eax, DWORD PTR __k$[ebp]
  00114	c6 45 f4 00	 mov	 BYTE PTR __k$[ebp+8], 0
  00118	5a		 pop	 edx
$LL104@GetIntAttr:
  00119	81 30 ed ec eb
	ea		 xor	 DWORD PTR [eax], -353637139 ; eaebecedH
  0011f	83 c0 04	 add	 eax, 4
  00122	4a		 dec	 edx
  00123	75 f4		 jne	 SHORT $LL104@GetIntAttr

; 88   : 		return GetIntAttribute(_k);

  00125	8d 45 ec	 lea	 eax, DWORD PTR __k$[ebp]
  00128	50		 push	 eax
  00129	ff 15 00 00 00
	00		 call	 DWORD PTR __imp_?GetIntAttribute@ioXMLElement@@QBEHPBD@Z

; 89   : 	}

  0012f	8b 4d fc	 mov	 ecx, DWORD PTR __$ArrayPad$[ebp]
  00132	33 cd		 xor	 ecx, ebp
  00134	e8 00 00 00 00	 call	 @__security_check_cookie@4
  00139	c9		 leave
  0013a	c2 04 00	 ret	 4
??$GetIntAttribute_e@$08@ioXMLElement@@QBEHAAY08$$CBD@Z ENDP ; ioXMLElement::GetIntAttribute_e<9>
_TEXT	ENDS
PUBLIC	__$ArrayPad$
PUBLIC	??$GetIntAttribute_e@$0N@@ioXMLElement@@QBEHAAY0N@$$CBD@Z ; ioXMLElement::GetIntAttribute_e<13>
; Function compile flags: /Ogsp
;	COMDAT ??$GetIntAttribute_e@$0N@@ioXMLElement@@QBEHAAY0N@$$CBD@Z
_TEXT	SEGMENT
__k$ = -24						; size = 13
__$ArrayPad$ = -4					; size = 4
_k$ = 8							; size = 4
??$GetIntAttribute_e@$0N@@ioXMLElement@@QBEHAAY0N@$$CBD@Z PROC ; ioXMLElement::GetIntAttribute_e<13>, COMDAT
; _this$ = ecx

; 86   : 	{

  00000	55		 push	 ebp
  00001	8b ec		 mov	 ebp, esp
  00003	83 ec 18	 sub	 esp, 24			; 00000018H
  00006	a1 00 00 00 00	 mov	 eax, DWORD PTR ___security_cookie
  0000b	33 c5		 xor	 eax, ebp
  0000d	89 45 fc	 mov	 DWORD PTR __$ArrayPad$[ebp], eax
  00010	8b 45 08	 mov	 eax, DWORD PTR _k$[ebp]

; 87   : 		_ENCSTR(k, _k);

  00013	8a 10		 mov	 dl, BYTE PTR [eax]
  00015	56		 push	 esi
  00016	8b f1		 mov	 esi, ecx
  00018	84 d2		 test	 dl, dl
  0001a	0f 84 4d 01 00
	00		 je	 $LN96@GetIntAttr@2
  00020	80 f2 ed	 xor	 dl, -19			; ffffffedH
  00023	88 55 e8	 mov	 BYTE PTR __k$[ebp], dl
  00026	8a 50 01	 mov	 dl, BYTE PTR [eax+1]
  00029	84 d2		 test	 dl, dl
  0002b	0f 84 36 01 00
	00		 je	 $LN95@GetIntAttr@2
  00031	b1 ec		 mov	 cl, -20			; ffffffecH
  00033	32 d1		 xor	 dl, cl
  00035	88 55 e9	 mov	 BYTE PTR __k$[ebp+1], dl
  00038	8a 50 02	 mov	 dl, BYTE PTR [eax+2]
  0003b	84 d2		 test	 dl, dl
  0003d	0f 84 1e 01 00
	00		 je	 $LN94@GetIntAttr@2
  00043	80 f2 eb	 xor	 dl, -21			; ffffffebH
  00046	88 55 ea	 mov	 BYTE PTR __k$[ebp+2], dl
  00049	8a 50 03	 mov	 dl, BYTE PTR [eax+3]
  0004c	84 d2		 test	 dl, dl
  0004e	0f 84 07 01 00
	00		 je	 $LN93@GetIntAttr@2
  00054	80 f2 ea	 xor	 dl, -22			; ffffffeaH
  00057	88 55 eb	 mov	 BYTE PTR __k$[ebp+3], dl
  0005a	8a 50 04	 mov	 dl, BYTE PTR [eax+4]
  0005d	84 d2		 test	 dl, dl
  0005f	0f 84 f0 00 00
	00		 je	 $LN92@GetIntAttr@2
  00065	80 f2 ed	 xor	 dl, -19			; ffffffedH
  00068	88 55 ec	 mov	 BYTE PTR __k$[ebp+4], dl
  0006b	8a 50 05	 mov	 dl, BYTE PTR [eax+5]
  0006e	84 d2		 test	 dl, dl
  00070	0f 84 da 00 00
	00		 je	 $LN91@GetIntAttr@2
  00076	32 d1		 xor	 dl, cl
  00078	88 55 ed	 mov	 BYTE PTR __k$[ebp+5], dl
  0007b	8a 50 06	 mov	 dl, BYTE PTR [eax+6]
  0007e	84 d2		 test	 dl, dl
  00080	0f 84 c4 00 00
	00		 je	 $LN90@GetIntAttr@2
  00086	80 f2 eb	 xor	 dl, -21			; ffffffebH
  00089	88 55 ee	 mov	 BYTE PTR __k$[ebp+6], dl
  0008c	8a 50 07	 mov	 dl, BYTE PTR [eax+7]
  0008f	84 d2		 test	 dl, dl
  00091	0f 84 ad 00 00
	00		 je	 $LN89@GetIntAttr@2
  00097	80 f2 ea	 xor	 dl, -22			; ffffffeaH
  0009a	88 55 ef	 mov	 BYTE PTR __k$[ebp+7], dl
  0009d	8a 50 08	 mov	 dl, BYTE PTR [eax+8]
  000a0	84 d2		 test	 dl, dl
  000a2	0f 84 96 00 00
	00		 je	 $LN88@GetIntAttr@2
  000a8	80 f2 ed	 xor	 dl, -19			; ffffffedH
  000ab	88 55 f0	 mov	 BYTE PTR __k$[ebp+8], dl
  000ae	8a 50 09	 mov	 dl, BYTE PTR [eax+9]
  000b1	84 d2		 test	 dl, dl
  000b3	0f 84 80 00 00
	00		 je	 $LN87@GetIntAttr@2
  000b9	32 d1		 xor	 dl, cl
  000bb	88 55 f1	 mov	 BYTE PTR __k$[ebp+9], dl
  000be	8a 50 0a	 mov	 dl, BYTE PTR [eax+10]
  000c1	84 d2		 test	 dl, dl
  000c3	74 6e		 je	 SHORT $LN86@GetIntAttr@2
  000c5	80 f2 eb	 xor	 dl, -21			; ffffffebH
  000c8	88 55 f2	 mov	 BYTE PTR __k$[ebp+10], dl
  000cb	8a 50 0b	 mov	 dl, BYTE PTR [eax+11]
  000ce	84 d2		 test	 dl, dl
  000d0	74 5b		 je	 SHORT $LN85@GetIntAttr@2
  000d2	80 f2 ea	 xor	 dl, -22			; ffffffeaH
  000d5	80 78 0c 00	 cmp	 BYTE PTR [eax+12], 0
  000d9	88 55 f3	 mov	 BYTE PTR __k$[ebp+11], dl
  000dc	0f 84 8f 00 00
	00		 je	 $LN1@GetIntAttr@2
  000e2	8a 50 0d	 mov	 dl, BYTE PTR [eax+13]
  000e5	84 d2		 test	 dl, dl
  000e7	74 3f		 je	 SHORT $LN83@GetIntAttr@2
  000e9	32 d1		 xor	 dl, cl
  000eb	88 55 f5	 mov	 BYTE PTR __k$[ebp+13], dl
  000ee	8a 50 0e	 mov	 dl, BYTE PTR [eax+14]
  000f1	84 d2		 test	 dl, dl
  000f3	74 2d		 je	 SHORT $LN82@GetIntAttr@2
  000f5	80 f2 eb	 xor	 dl, -21			; ffffffebH
  000f8	88 55 f6	 mov	 BYTE PTR __k$[ebp+14], dl
  000fb	8a 50 0f	 mov	 dl, BYTE PTR [eax+15]
  000fe	84 d2		 test	 dl, dl
  00100	74 1a		 je	 SHORT $LN81@GetIntAttr@2
  00102	8a 40 10	 mov	 al, BYTE PTR [eax+16]
  00105	80 f2 ea	 xor	 dl, -22			; ffffffeaH
  00108	88 55 f7	 mov	 BYTE PTR __k$[ebp+15], dl
  0010b	84 c0		 test	 al, al
  0010d	74 07		 je	 SHORT $LN80@GetIntAttr@2
  0010f	34 ed		 xor	 al, -19			; ffffffedH
  00111	88 45 f8	 mov	 BYTE PTR __k$[ebp+16], al
  00114	eb 5b		 jmp	 SHORT $LN1@GetIntAttr@2
$LN80@GetIntAttr@2:
  00116	c6 45 f8 ed	 mov	 BYTE PTR __k$[ebp+16], -19 ; ffffffedH
  0011a	eb 55		 jmp	 SHORT $LN1@GetIntAttr@2
$LN81@GetIntAttr@2:
  0011c	c6 45 f7 ea	 mov	 BYTE PTR __k$[ebp+15], -22 ; ffffffeaH
  00120	eb 4f		 jmp	 SHORT $LN1@GetIntAttr@2
$LN82@GetIntAttr@2:
  00122	c6 45 f6 eb	 mov	 BYTE PTR __k$[ebp+14], -21 ; ffffffebH
  00126	eb 49		 jmp	 SHORT $LN1@GetIntAttr@2
$LN83@GetIntAttr@2:
  00128	88 4d f5	 mov	 BYTE PTR __k$[ebp+13], cl
  0012b	eb 44		 jmp	 SHORT $LN1@GetIntAttr@2
$LN85@GetIntAttr@2:
  0012d	c6 45 f3 ea	 mov	 BYTE PTR __k$[ebp+11], -22 ; ffffffeaH
  00131	eb 3e		 jmp	 SHORT $LN1@GetIntAttr@2
$LN86@GetIntAttr@2:
  00133	c6 45 f2 eb	 mov	 BYTE PTR __k$[ebp+10], -21 ; ffffffebH
  00137	eb 38		 jmp	 SHORT $LN1@GetIntAttr@2
$LN87@GetIntAttr@2:
  00139	88 4d f1	 mov	 BYTE PTR __k$[ebp+9], cl
  0013c	eb 33		 jmp	 SHORT $LN1@GetIntAttr@2
$LN88@GetIntAttr@2:
  0013e	c6 45 f0 ed	 mov	 BYTE PTR __k$[ebp+8], -19 ; ffffffedH
  00142	eb 2d		 jmp	 SHORT $LN1@GetIntAttr@2
$LN89@GetIntAttr@2:
  00144	c6 45 ef ea	 mov	 BYTE PTR __k$[ebp+7], -22 ; ffffffeaH
  00148	eb 27		 jmp	 SHORT $LN1@GetIntAttr@2
$LN90@GetIntAttr@2:
  0014a	c6 45 ee eb	 mov	 BYTE PTR __k$[ebp+6], -21 ; ffffffebH
  0014e	eb 21		 jmp	 SHORT $LN1@GetIntAttr@2
$LN91@GetIntAttr@2:
  00150	88 4d ed	 mov	 BYTE PTR __k$[ebp+5], cl
  00153	eb 1c		 jmp	 SHORT $LN1@GetIntAttr@2
$LN92@GetIntAttr@2:
  00155	c6 45 ec ed	 mov	 BYTE PTR __k$[ebp+4], -19 ; ffffffedH
  00159	eb 16		 jmp	 SHORT $LN1@GetIntAttr@2
$LN93@GetIntAttr@2:
  0015b	c6 45 eb ea	 mov	 BYTE PTR __k$[ebp+3], -22 ; ffffffeaH
  0015f	eb 10		 jmp	 SHORT $LN1@GetIntAttr@2
$LN94@GetIntAttr@2:
  00161	c6 45 ea eb	 mov	 BYTE PTR __k$[ebp+2], -21 ; ffffffebH
  00165	eb 0a		 jmp	 SHORT $LN1@GetIntAttr@2
$LN95@GetIntAttr@2:
  00167	c6 45 e9 ec	 mov	 BYTE PTR __k$[ebp+1], -20 ; ffffffecH
  0016b	eb 04		 jmp	 SHORT $LN1@GetIntAttr@2
$LN96@GetIntAttr@2:
  0016d	c6 45 e8 ed	 mov	 BYTE PTR __k$[ebp], -19	; ffffffedH
$LN1@GetIntAttr@2:
  00171	6a 03		 push	 3
  00173	8d 45 e8	 lea	 eax, DWORD PTR __k$[ebp]
  00176	c6 45 f4 00	 mov	 BYTE PTR __k$[ebp+12], 0
  0017a	5a		 pop	 edx
$LL104@GetIntAttr@2:
  0017b	81 30 ed ec eb
	ea		 xor	 DWORD PTR [eax], -353637139 ; eaebecedH
  00181	83 c0 04	 add	 eax, 4
  00184	4a		 dec	 edx
  00185	75 f4		 jne	 SHORT $LL104@GetIntAttr@2

; 88   : 		return GetIntAttribute(_k);

  00187	8d 45 e8	 lea	 eax, DWORD PTR __k$[ebp]
  0018a	50		 push	 eax
  0018b	8b ce		 mov	 ecx, esi
  0018d	ff 15 00 00 00
	00		 call	 DWORD PTR __imp_?GetIntAttribute@ioXMLElement@@QBEHPBD@Z

; 89   : 	}

  00193	8b 4d fc	 mov	 ecx, DWORD PTR __$ArrayPad$[ebp]
  00196	33 cd		 xor	 ecx, ebp
  00198	5e		 pop	 esi
  00199	e8 00 00 00 00	 call	 @__security_check_cookie@4
  0019e	c9		 leave
  0019f	c2 04 00	 ret	 4
??$GetIntAttribute_e@$0N@@ioXMLElement@@QBEHAAY0N@$$CBD@Z ENDP ; ioXMLElement::GetIntAttribute_e<13>
_TEXT	ENDS
PUBLIC	__$ArrayPad$
PUBLIC	??$GetStringAttribute_e@$0N@@ioXMLElement@@QBEPBDAAY0N@$$CBD@Z ; ioXMLElement::GetStringAttribute_e<13>
EXTRN	__imp_?GetStringAttribute@ioXMLElement@@QBEPBDPBD@Z:PROC
; Function compile flags: /Ogsp
;	COMDAT ??$GetStringAttribute_e@$0N@@ioXMLElement@@QBEPBDAAY0N@$$CBD@Z
_TEXT	SEGMENT
__k$ = -24						; size = 13
__$ArrayPad$ = -4					; size = 4
_k$ = 8							; size = 4
??$GetStringAttribute_e@$0N@@ioXMLElement@@QBEPBDAAY0N@$$CBD@Z PROC ; ioXMLElement::GetStringAttribute_e<13>, COMDAT
; _this$ = ecx

; 107  : 	{

  00000	55		 push	 ebp
  00001	8b ec		 mov	 ebp, esp
  00003	83 ec 18	 sub	 esp, 24			; 00000018H
  00006	a1 00 00 00 00	 mov	 eax, DWORD PTR ___security_cookie
  0000b	33 c5		 xor	 eax, ebp
  0000d	89 45 fc	 mov	 DWORD PTR __$ArrayPad$[ebp], eax
  00010	8b 45 08	 mov	 eax, DWORD PTR _k$[ebp]

; 108  : 		_ENCSTR(k, _k);

  00013	8a 10		 mov	 dl, BYTE PTR [eax]
  00015	56		 push	 esi
  00016	8b f1		 mov	 esi, ecx
  00018	84 d2		 test	 dl, dl
  0001a	0f 84 4d 01 00
	00		 je	 $LN96@GetStringA
  00020	80 f2 ed	 xor	 dl, -19			; ffffffedH
  00023	88 55 e8	 mov	 BYTE PTR __k$[ebp], dl
  00026	8a 50 01	 mov	 dl, BYTE PTR [eax+1]
  00029	84 d2		 test	 dl, dl
  0002b	0f 84 36 01 00
	00		 je	 $LN95@GetStringA
  00031	b1 ec		 mov	 cl, -20			; ffffffecH
  00033	32 d1		 xor	 dl, cl
  00035	88 55 e9	 mov	 BYTE PTR __k$[ebp+1], dl
  00038	8a 50 02	 mov	 dl, BYTE PTR [eax+2]
  0003b	84 d2		 test	 dl, dl
  0003d	0f 84 1e 01 00
	00		 je	 $LN94@GetStringA
  00043	80 f2 eb	 xor	 dl, -21			; ffffffebH
  00046	88 55 ea	 mov	 BYTE PTR __k$[ebp+2], dl
  00049	8a 50 03	 mov	 dl, BYTE PTR [eax+3]
  0004c	84 d2		 test	 dl, dl
  0004e	0f 84 07 01 00
	00		 je	 $LN93@GetStringA
  00054	80 f2 ea	 xor	 dl, -22			; ffffffeaH
  00057	88 55 eb	 mov	 BYTE PTR __k$[ebp+3], dl
  0005a	8a 50 04	 mov	 dl, BYTE PTR [eax+4]
  0005d	84 d2		 test	 dl, dl
  0005f	0f 84 f0 00 00
	00		 je	 $LN92@GetStringA
  00065	80 f2 ed	 xor	 dl, -19			; ffffffedH
  00068	88 55 ec	 mov	 BYTE PTR __k$[ebp+4], dl
  0006b	8a 50 05	 mov	 dl, BYTE PTR [eax+5]
  0006e	84 d2		 test	 dl, dl
  00070	0f 84 da 00 00
	00		 je	 $LN91@GetStringA
  00076	32 d1		 xor	 dl, cl
  00078	88 55 ed	 mov	 BYTE PTR __k$[ebp+5], dl
  0007b	8a 50 06	 mov	 dl, BYTE PTR [eax+6]
  0007e	84 d2		 test	 dl, dl
  00080	0f 84 c4 00 00
	00		 je	 $LN90@GetStringA
  00086	80 f2 eb	 xor	 dl, -21			; ffffffebH
  00089	88 55 ee	 mov	 BYTE PTR __k$[ebp+6], dl
  0008c	8a 50 07	 mov	 dl, BYTE PTR [eax+7]
  0008f	84 d2		 test	 dl, dl
  00091	0f 84 ad 00 00
	00		 je	 $LN89@GetStringA
  00097	80 f2 ea	 xor	 dl, -22			; ffffffeaH
  0009a	88 55 ef	 mov	 BYTE PTR __k$[ebp+7], dl
  0009d	8a 50 08	 mov	 dl, BYTE PTR [eax+8]
  000a0	84 d2		 test	 dl, dl
  000a2	0f 84 96 00 00
	00		 je	 $LN88@GetStringA
  000a8	80 f2 ed	 xor	 dl, -19			; ffffffedH
  000ab	88 55 f0	 mov	 BYTE PTR __k$[ebp+8], dl
  000ae	8a 50 09	 mov	 dl, BYTE PTR [eax+9]
  000b1	84 d2		 test	 dl, dl
  000b3	0f 84 80 00 00
	00		 je	 $LN87@GetStringA
  000b9	32 d1		 xor	 dl, cl
  000bb	88 55 f1	 mov	 BYTE PTR __k$[ebp+9], dl
  000be	8a 50 0a	 mov	 dl, BYTE PTR [eax+10]
  000c1	84 d2		 test	 dl, dl
  000c3	74 6e		 je	 SHORT $LN86@GetStringA
  000c5	80 f2 eb	 xor	 dl, -21			; ffffffebH
  000c8	88 55 f2	 mov	 BYTE PTR __k$[ebp+10], dl
  000cb	8a 50 0b	 mov	 dl, BYTE PTR [eax+11]
  000ce	84 d2		 test	 dl, dl
  000d0	74 5b		 je	 SHORT $LN85@GetStringA
  000d2	80 f2 ea	 xor	 dl, -22			; ffffffeaH
  000d5	80 78 0c 00	 cmp	 BYTE PTR [eax+12], 0
  000d9	88 55 f3	 mov	 BYTE PTR __k$[ebp+11], dl
  000dc	0f 84 8f 00 00
	00		 je	 $LN1@GetStringA
  000e2	8a 50 0d	 mov	 dl, BYTE PTR [eax+13]
  000e5	84 d2		 test	 dl, dl
  000e7	74 3f		 je	 SHORT $LN83@GetStringA
  000e9	32 d1		 xor	 dl, cl
  000eb	88 55 f5	 mov	 BYTE PTR __k$[ebp+13], dl
  000ee	8a 50 0e	 mov	 dl, BYTE PTR [eax+14]
  000f1	84 d2		 test	 dl, dl
  000f3	74 2d		 je	 SHORT $LN82@GetStringA
  000f5	80 f2 eb	 xor	 dl, -21			; ffffffebH
  000f8	88 55 f6	 mov	 BYTE PTR __k$[ebp+14], dl
  000fb	8a 50 0f	 mov	 dl, BYTE PTR [eax+15]
  000fe	84 d2		 test	 dl, dl
  00100	74 1a		 je	 SHORT $LN81@GetStringA
  00102	8a 40 10	 mov	 al, BYTE PTR [eax+16]
  00105	80 f2 ea	 xor	 dl, -22			; ffffffeaH
  00108	88 55 f7	 mov	 BYTE PTR __k$[ebp+15], dl
  0010b	84 c0		 test	 al, al
  0010d	74 07		 je	 SHORT $LN80@GetStringA
  0010f	34 ed		 xor	 al, -19			; ffffffedH
  00111	88 45 f8	 mov	 BYTE PTR __k$[ebp+16], al
  00114	eb 5b		 jmp	 SHORT $LN1@GetStringA
$LN80@GetStringA:
  00116	c6 45 f8 ed	 mov	 BYTE PTR __k$[ebp+16], -19 ; ffffffedH
  0011a	eb 55		 jmp	 SHORT $LN1@GetStringA
$LN81@GetStringA:
  0011c	c6 45 f7 ea	 mov	 BYTE PTR __k$[ebp+15], -22 ; ffffffeaH
  00120	eb 4f		 jmp	 SHORT $LN1@GetStringA
$LN82@GetStringA:
  00122	c6 45 f6 eb	 mov	 BYTE PTR __k$[ebp+14], -21 ; ffffffebH
  00126	eb 49		 jmp	 SHORT $LN1@GetStringA
$LN83@GetStringA:
  00128	88 4d f5	 mov	 BYTE PTR __k$[ebp+13], cl
  0012b	eb 44		 jmp	 SHORT $LN1@GetStringA
$LN85@GetStringA:
  0012d	c6 45 f3 ea	 mov	 BYTE PTR __k$[ebp+11], -22 ; ffffffeaH
  00131	eb 3e		 jmp	 SHORT $LN1@GetStringA
$LN86@GetStringA:
  00133	c6 45 f2 eb	 mov	 BYTE PTR __k$[ebp+10], -21 ; ffffffebH
  00137	eb 38		 jmp	 SHORT $LN1@GetStringA
$LN87@GetStringA:
  00139	88 4d f1	 mov	 BYTE PTR __k$[ebp+9], cl
  0013c	eb 33		 jmp	 SHORT $LN1@GetStringA
$LN88@GetStringA:
  0013e	c6 45 f0 ed	 mov	 BYTE PTR __k$[ebp+8], -19 ; ffffffedH
  00142	eb 2d		 jmp	 SHORT $LN1@GetStringA
$LN89@GetStringA:
  00144	c6 45 ef ea	 mov	 BYTE PTR __k$[ebp+7], -22 ; ffffffeaH
  00148	eb 27		 jmp	 SHORT $LN1@GetStringA
$LN90@GetStringA:
  0014a	c6 45 ee eb	 mov	 BYTE PTR __k$[ebp+6], -21 ; ffffffebH
  0014e	eb 21		 jmp	 SHORT $LN1@GetStringA
$LN91@GetStringA:
  00150	88 4d ed	 mov	 BYTE PTR __k$[ebp+5], cl
  00153	eb 1c		 jmp	 SHORT $LN1@GetStringA
$LN92@GetStringA:
  00155	c6 45 ec ed	 mov	 BYTE PTR __k$[ebp+4], -19 ; ffffffedH
  00159	eb 16		 jmp	 SHORT $LN1@GetStringA
$LN93@GetStringA:
  0015b	c6 45 eb ea	 mov	 BYTE PTR __k$[ebp+3], -22 ; ffffffeaH
  0015f	eb 10		 jmp	 SHORT $LN1@GetStringA
$LN94@GetStringA:
  00161	c6 45 ea eb	 mov	 BYTE PTR __k$[ebp+2], -21 ; ffffffebH
  00165	eb 0a		 jmp	 SHORT $LN1@GetStringA
$LN95@GetStringA:
  00167	c6 45 e9 ec	 mov	 BYTE PTR __k$[ebp+1], -20 ; ffffffecH
  0016b	eb 04		 jmp	 SHORT $LN1@GetStringA
$LN96@GetStringA:
  0016d	c6 45 e8 ed	 mov	 BYTE PTR __k$[ebp], -19	; ffffffedH
$LN1@GetStringA:
  00171	6a 03		 push	 3
  00173	8d 45 e8	 lea	 eax, DWORD PTR __k$[ebp]
  00176	c6 45 f4 00	 mov	 BYTE PTR __k$[ebp+12], 0
  0017a	5a		 pop	 edx
$LL104@GetStringA:
  0017b	81 30 ed ec eb
	ea		 xor	 DWORD PTR [eax], -353637139 ; eaebecedH
  00181	83 c0 04	 add	 eax, 4
  00184	4a		 dec	 edx
  00185	75 f4		 jne	 SHORT $LL104@GetStringA

; 109  : 		return GetStringAttribute(_k);

  00187	8d 45 e8	 lea	 eax, DWORD PTR __k$[ebp]
  0018a	50		 push	 eax
  0018b	8b ce		 mov	 ecx, esi
  0018d	ff 15 00 00 00
	00		 call	 DWORD PTR __imp_?GetStringAttribute@ioXMLElement@@QBEPBDPBD@Z

; 110  : 	}

  00193	8b 4d fc	 mov	 ecx, DWORD PTR __$ArrayPad$[ebp]
  00196	33 cd		 xor	 ecx, ebp
  00198	5e		 pop	 esi
  00199	e8 00 00 00 00	 call	 @__security_check_cookie@4
  0019e	c9		 leave
  0019f	c2 04 00	 ret	 4
??$GetStringAttribute_e@$0N@@ioXMLElement@@QBEPBDAAY0N@$$CBD@Z ENDP ; ioXMLElement::GetStringAttribute_e<13>
_TEXT	ENDS
PUBLIC	__$ArrayPad$
PUBLIC	??$GetStringAttribute_e@$09@ioXMLElement@@QBEPBDAAY09$$CBD@Z ; ioXMLElement::GetStringAttribute_e<10>
; Function compile flags: /Ogsp
;	COMDAT ??$GetStringAttribute_e@$09@ioXMLElement@@QBEPBDAAY09$$CBD@Z
_TEXT	SEGMENT
__k$ = -20						; size = 10
__$ArrayPad$ = -4					; size = 4
_k$ = 8							; size = 4
??$GetStringAttribute_e@$09@ioXMLElement@@QBEPBDAAY09$$CBD@Z PROC ; ioXMLElement::GetStringAttribute_e<10>, COMDAT
; _this$ = ecx

; 107  : 	{

  00000	55		 push	 ebp
  00001	8b ec		 mov	 ebp, esp
  00003	83 ec 14	 sub	 esp, 20			; 00000014H
  00006	a1 00 00 00 00	 mov	 eax, DWORD PTR ___security_cookie
  0000b	33 c5		 xor	 eax, ebp
  0000d	89 45 fc	 mov	 DWORD PTR __$ArrayPad$[ebp], eax
  00010	8b 45 08	 mov	 eax, DWORD PTR _k$[ebp]

; 108  : 		_ENCSTR(k, _k);

  00013	8a 10		 mov	 dl, BYTE PTR [eax]
  00015	84 d2		 test	 dl, dl
  00017	0f 84 0d 01 00
	00		 je	 $LN96@GetStringA@2
  0001d	80 f2 ed	 xor	 dl, -19			; ffffffedH
  00020	88 55 ec	 mov	 BYTE PTR __k$[ebp], dl
  00023	8a 50 01	 mov	 dl, BYTE PTR [eax+1]
  00026	84 d2		 test	 dl, dl
  00028	0f 84 f6 00 00
	00		 je	 $LN95@GetStringA@2
  0002e	80 f2 ec	 xor	 dl, -20			; ffffffecH
  00031	88 55 ed	 mov	 BYTE PTR __k$[ebp+1], dl
  00034	8a 50 02	 mov	 dl, BYTE PTR [eax+2]
  00037	84 d2		 test	 dl, dl
  00039	0f 84 df 00 00
	00		 je	 $LN94@GetStringA@2
  0003f	80 f2 eb	 xor	 dl, -21			; ffffffebH
  00042	88 55 ee	 mov	 BYTE PTR __k$[ebp+2], dl
  00045	8a 50 03	 mov	 dl, BYTE PTR [eax+3]
  00048	84 d2		 test	 dl, dl
  0004a	0f 84 c8 00 00
	00		 je	 $LN93@GetStringA@2
  00050	80 f2 ea	 xor	 dl, -22			; ffffffeaH
  00053	88 55 ef	 mov	 BYTE PTR __k$[ebp+3], dl
  00056	8a 50 04	 mov	 dl, BYTE PTR [eax+4]
  00059	84 d2		 test	 dl, dl
  0005b	0f 84 b1 00 00
	00		 je	 $LN92@GetStringA@2
  00061	80 f2 ed	 xor	 dl, -19			; ffffffedH
  00064	88 55 f0	 mov	 BYTE PTR __k$[ebp+4], dl
  00067	8a 50 05	 mov	 dl, BYTE PTR [eax+5]
  0006a	84 d2		 test	 dl, dl
  0006c	0f 84 9a 00 00
	00		 je	 $LN91@GetStringA@2
  00072	80 f2 ec	 xor	 dl, -20			; ffffffecH
  00075	88 55 f1	 mov	 BYTE PTR __k$[ebp+5], dl
  00078	8a 50 06	 mov	 dl, BYTE PTR [eax+6]
  0007b	84 d2		 test	 dl, dl
  0007d	0f 84 83 00 00
	00		 je	 $LN90@GetStringA@2
  00083	80 f2 eb	 xor	 dl, -21			; ffffffebH
  00086	88 55 f2	 mov	 BYTE PTR __k$[ebp+6], dl
  00089	8a 50 07	 mov	 dl, BYTE PTR [eax+7]
  0008c	84 d2		 test	 dl, dl
  0008e	74 70		 je	 SHORT $LN89@GetStringA@2
  00090	80 f2 ea	 xor	 dl, -22			; ffffffeaH
  00093	88 55 f3	 mov	 BYTE PTR __k$[ebp+7], dl
  00096	8a 50 08	 mov	 dl, BYTE PTR [eax+8]
  00099	84 d2		 test	 dl, dl
  0009b	74 5d		 je	 SHORT $LN88@GetStringA@2
  0009d	80 f2 ed	 xor	 dl, -19			; ffffffedH
  000a0	80 78 09 00	 cmp	 BYTE PTR [eax+9], 0
  000a4	88 55 f4	 mov	 BYTE PTR __k$[ebp+8], dl
  000a7	0f 84 81 00 00
	00		 je	 $LN1@GetStringA@2
  000ad	8a 50 0a	 mov	 dl, BYTE PTR [eax+10]
  000b0	84 d2		 test	 dl, dl
  000b2	74 40		 je	 SHORT $LN86@GetStringA@2
  000b4	80 f2 eb	 xor	 dl, -21			; ffffffebH
  000b7	88 55 f6	 mov	 BYTE PTR __k$[ebp+10], dl
  000ba	8a 50 0b	 mov	 dl, BYTE PTR [eax+11]
  000bd	84 d2		 test	 dl, dl
  000bf	74 2d		 je	 SHORT $LN85@GetStringA@2
  000c1	80 f2 ea	 xor	 dl, -22			; ffffffeaH
  000c4	88 55 f7	 mov	 BYTE PTR __k$[ebp+11], dl
  000c7	8a 50 0c	 mov	 dl, BYTE PTR [eax+12]
  000ca	84 d2		 test	 dl, dl
  000cc	74 1a		 je	 SHORT $LN84@GetStringA@2
  000ce	8a 40 0d	 mov	 al, BYTE PTR [eax+13]
  000d1	80 f2 ed	 xor	 dl, -19			; ffffffedH
  000d4	88 55 f8	 mov	 BYTE PTR __k$[ebp+12], dl
  000d7	84 c0		 test	 al, al
  000d9	74 07		 je	 SHORT $LN83@GetStringA@2
  000db	34 ec		 xor	 al, -20			; ffffffecH
  000dd	88 45 f9	 mov	 BYTE PTR __k$[ebp+13], al
  000e0	eb 4c		 jmp	 SHORT $LN1@GetStringA@2
$LN83@GetStringA@2:
  000e2	c6 45 f9 ec	 mov	 BYTE PTR __k$[ebp+13], -20 ; ffffffecH
  000e6	eb 46		 jmp	 SHORT $LN1@GetStringA@2
$LN84@GetStringA@2:
  000e8	c6 45 f8 ed	 mov	 BYTE PTR __k$[ebp+12], -19 ; ffffffedH
  000ec	eb 40		 jmp	 SHORT $LN1@GetStringA@2
$LN85@GetStringA@2:
  000ee	c6 45 f7 ea	 mov	 BYTE PTR __k$[ebp+11], -22 ; ffffffeaH
  000f2	eb 3a		 jmp	 SHORT $LN1@GetStringA@2
$LN86@GetStringA@2:
  000f4	c6 45 f6 eb	 mov	 BYTE PTR __k$[ebp+10], -21 ; ffffffebH
  000f8	eb 34		 jmp	 SHORT $LN1@GetStringA@2
$LN88@GetStringA@2:
  000fa	c6 45 f4 ed	 mov	 BYTE PTR __k$[ebp+8], -19 ; ffffffedH
  000fe	eb 2e		 jmp	 SHORT $LN1@GetStringA@2
$LN89@GetStringA@2:
  00100	c6 45 f3 ea	 mov	 BYTE PTR __k$[ebp+7], -22 ; ffffffeaH
  00104	eb 28		 jmp	 SHORT $LN1@GetStringA@2
$LN90@GetStringA@2:
  00106	c6 45 f2 eb	 mov	 BYTE PTR __k$[ebp+6], -21 ; ffffffebH
  0010a	eb 22		 jmp	 SHORT $LN1@GetStringA@2
$LN91@GetStringA@2:
  0010c	c6 45 f1 ec	 mov	 BYTE PTR __k$[ebp+5], -20 ; ffffffecH
  00110	eb 1c		 jmp	 SHORT $LN1@GetStringA@2
$LN92@GetStringA@2:
  00112	c6 45 f0 ed	 mov	 BYTE PTR __k$[ebp+4], -19 ; ffffffedH
  00116	eb 16		 jmp	 SHORT $LN1@GetStringA@2
$LN93@GetStringA@2:
  00118	c6 45 ef ea	 mov	 BYTE PTR __k$[ebp+3], -22 ; ffffffeaH
  0011c	eb 10		 jmp	 SHORT $LN1@GetStringA@2
$LN94@GetStringA@2:
  0011e	c6 45 ee eb	 mov	 BYTE PTR __k$[ebp+2], -21 ; ffffffebH
  00122	eb 0a		 jmp	 SHORT $LN1@GetStringA@2
$LN95@GetStringA@2:
  00124	c6 45 ed ec	 mov	 BYTE PTR __k$[ebp+1], -20 ; ffffffecH
  00128	eb 04		 jmp	 SHORT $LN1@GetStringA@2
$LN96@GetStringA@2:
  0012a	c6 45 ec ed	 mov	 BYTE PTR __k$[ebp], -19	; ffffffedH
$LN1@GetStringA@2:
  0012e	6a 02		 push	 2
  00130	8d 45 ec	 lea	 eax, DWORD PTR __k$[ebp]
  00133	c6 45 f5 00	 mov	 BYTE PTR __k$[ebp+9], 0
  00137	5a		 pop	 edx
$LL104@GetStringA@2:
  00138	81 30 ed ec eb
	ea		 xor	 DWORD PTR [eax], -353637139 ; eaebecedH
  0013e	83 c0 04	 add	 eax, 4
  00141	4a		 dec	 edx
  00142	75 f4		 jne	 SHORT $LL104@GetStringA@2
  00144	80 75 f4 ed	 xor	 BYTE PTR __k$[ebp+8], -19 ; ffffffedH

; 109  : 		return GetStringAttribute(_k);

  00148	8d 45 ec	 lea	 eax, DWORD PTR __k$[ebp]
  0014b	50		 push	 eax
  0014c	ff 15 00 00 00
	00		 call	 DWORD PTR __imp_?GetStringAttribute@ioXMLElement@@QBEPBDPBD@Z

; 110  : 	}

  00152	8b 4d fc	 mov	 ecx, DWORD PTR __$ArrayPad$[ebp]
  00155	33 cd		 xor	 ecx, ebp
  00157	e8 00 00 00 00	 call	 @__security_check_cookie@4
  0015c	c9		 leave
  0015d	c2 04 00	 ret	 4
??$GetStringAttribute_e@$09@ioXMLElement@@QBEPBDAAY09$$CBD@Z ENDP ; ioXMLElement::GetStringAttribute_e<10>
_TEXT	ENDS
PUBLIC	__$ArrayPad$
PUBLIC	??$?8$0M@@@YA_NABVioHashString@@AAY0M@$$CBD@Z	; operator==<12>
; Function compile flags: /Ogsp
; File d:\lost saga for developer\youtube\tutorial\source\src\io3dengine\iohashstring.h
;	COMDAT ??$?8$0M@@@YA_NABVioHashString@@AAY0M@$$CBD@Z
_TEXT	SEGMENT
__t$ = -20						; size = 12
__$ArrayPad$ = -4					; size = 4
_lhs$ = 8						; size = 4
_t$ = 12						; size = 4
??$?8$0M@@@YA_NABVioHashString@@AAY0M@$$CBD@Z PROC	; operator==<12>, COMDAT

; 146  : {

  00000	55		 push	 ebp
  00001	8b ec		 mov	 ebp, esp
  00003	83 ec 14	 sub	 esp, 20			; 00000014H
  00006	a1 00 00 00 00	 mov	 eax, DWORD PTR ___security_cookie
  0000b	33 c5		 xor	 eax, ebp
  0000d	89 45 fc	 mov	 DWORD PTR __$ArrayPad$[ebp], eax
  00010	8b 45 0c	 mov	 eax, DWORD PTR _t$[ebp]

; 147  : 	_ENCSTR(t, _t); return ( strcmp( lhs.c_str(), _t ) == 0 );

  00013	8a 10		 mov	 dl, BYTE PTR [eax]
  00015	56		 push	 esi
  00016	57		 push	 edi
  00017	8b 7d 08	 mov	 edi, DWORD PTR _lhs$[ebp]
  0001a	84 d2		 test	 dl, dl
  0001c	0f 84 32 01 00
	00		 je	 $LN96@operator@3
  00022	80 f2 ed	 xor	 dl, -19			; ffffffedH
  00025	88 55 ec	 mov	 BYTE PTR __t$[ebp], dl
  00028	8a 50 01	 mov	 dl, BYTE PTR [eax+1]
  0002b	84 d2		 test	 dl, dl
  0002d	0f 84 1b 01 00
	00		 je	 $LN95@operator@3
  00033	80 f2 ec	 xor	 dl, -20			; ffffffecH
  00036	88 55 ed	 mov	 BYTE PTR __t$[ebp+1], dl
  00039	8a 50 02	 mov	 dl, BYTE PTR [eax+2]
  0003c	84 d2		 test	 dl, dl
  0003e	0f 84 04 01 00
	00		 je	 $LN94@operator@3
  00044	b1 eb		 mov	 cl, -21			; ffffffebH
  00046	32 d1		 xor	 dl, cl
  00048	88 55 ee	 mov	 BYTE PTR __t$[ebp+2], dl
  0004b	8a 50 03	 mov	 dl, BYTE PTR [eax+3]
  0004e	84 d2		 test	 dl, dl
  00050	0f 84 ec 00 00
	00		 je	 $LN93@operator@3
  00056	80 f2 ea	 xor	 dl, -22			; ffffffeaH
  00059	88 55 ef	 mov	 BYTE PTR __t$[ebp+3], dl
  0005c	8a 50 04	 mov	 dl, BYTE PTR [eax+4]
  0005f	84 d2		 test	 dl, dl
  00061	0f 84 d5 00 00
	00		 je	 $LN92@operator@3
  00067	80 f2 ed	 xor	 dl, -19			; ffffffedH
  0006a	88 55 f0	 mov	 BYTE PTR __t$[ebp+4], dl
  0006d	8a 50 05	 mov	 dl, BYTE PTR [eax+5]
  00070	84 d2		 test	 dl, dl
  00072	0f 84 be 00 00
	00		 je	 $LN91@operator@3
  00078	80 f2 ec	 xor	 dl, -20			; ffffffecH
  0007b	88 55 f1	 mov	 BYTE PTR __t$[ebp+5], dl
  0007e	8a 50 06	 mov	 dl, BYTE PTR [eax+6]
  00081	84 d2		 test	 dl, dl
  00083	0f 84 a8 00 00
	00		 je	 $LN90@operator@3
  00089	32 d1		 xor	 dl, cl
  0008b	88 55 f2	 mov	 BYTE PTR __t$[ebp+6], dl
  0008e	8a 50 07	 mov	 dl, BYTE PTR [eax+7]
  00091	84 d2		 test	 dl, dl
  00093	0f 84 92 00 00
	00		 je	 $LN89@operator@3
  00099	80 f2 ea	 xor	 dl, -22			; ffffffeaH
  0009c	88 55 f3	 mov	 BYTE PTR __t$[ebp+7], dl
  0009f	8a 50 08	 mov	 dl, BYTE PTR [eax+8]
  000a2	84 d2		 test	 dl, dl
  000a4	74 7f		 je	 SHORT $LN88@operator@3
  000a6	80 f2 ed	 xor	 dl, -19			; ffffffedH
  000a9	88 55 f4	 mov	 BYTE PTR __t$[ebp+8], dl
  000ac	8a 50 09	 mov	 dl, BYTE PTR [eax+9]
  000af	84 d2		 test	 dl, dl
  000b1	74 6c		 je	 SHORT $LN87@operator@3
  000b3	80 f2 ec	 xor	 dl, -20			; ffffffecH
  000b6	88 55 f5	 mov	 BYTE PTR __t$[ebp+9], dl
  000b9	8a 50 0a	 mov	 dl, BYTE PTR [eax+10]
  000bc	84 d2		 test	 dl, dl
  000be	74 5a		 je	 SHORT $LN86@operator@3
  000c0	32 d1		 xor	 dl, cl
  000c2	80 78 0b 00	 cmp	 BYTE PTR [eax+11], 0
  000c6	88 55 f6	 mov	 BYTE PTR __t$[ebp+10], dl
  000c9	0f 84 89 00 00
	00		 je	 $LN1@operator@3
  000cf	8a 50 0c	 mov	 dl, BYTE PTR [eax+12]
  000d2	84 d2		 test	 dl, dl
  000d4	74 3e		 je	 SHORT $LN84@operator@3
  000d6	80 f2 ed	 xor	 dl, -19			; ffffffedH
  000d9	88 55 f8	 mov	 BYTE PTR __t$[ebp+12], dl
  000dc	8a 50 0d	 mov	 dl, BYTE PTR [eax+13]
  000df	84 d2		 test	 dl, dl
  000e1	74 2b		 je	 SHORT $LN83@operator@3
  000e3	80 f2 ec	 xor	 dl, -20			; ffffffecH
  000e6	88 55 f9	 mov	 BYTE PTR __t$[ebp+13], dl
  000e9	8a 50 0e	 mov	 dl, BYTE PTR [eax+14]
  000ec	84 d2		 test	 dl, dl
  000ee	74 19		 je	 SHORT $LN82@operator@3
  000f0	8a 40 0f	 mov	 al, BYTE PTR [eax+15]
  000f3	32 d1		 xor	 dl, cl
  000f5	88 55 fa	 mov	 BYTE PTR __t$[ebp+14], dl
  000f8	84 c0		 test	 al, al
  000fa	74 07		 je	 SHORT $LN81@operator@3
  000fc	34 ea		 xor	 al, -22			; ffffffeaH
  000fe	88 45 fb	 mov	 BYTE PTR __t$[ebp+15], al
  00101	eb 55		 jmp	 SHORT $LN1@operator@3
$LN81@operator@3:
  00103	c6 45 fb ea	 mov	 BYTE PTR __t$[ebp+15], -22 ; ffffffeaH
  00107	eb 4f		 jmp	 SHORT $LN1@operator@3
$LN82@operator@3:
  00109	88 4d fa	 mov	 BYTE PTR __t$[ebp+14], cl
  0010c	eb 4a		 jmp	 SHORT $LN1@operator@3
$LN83@operator@3:
  0010e	c6 45 f9 ec	 mov	 BYTE PTR __t$[ebp+13], -20 ; ffffffecH
  00112	eb 44		 jmp	 SHORT $LN1@operator@3
$LN84@operator@3:
  00114	c6 45 f8 ed	 mov	 BYTE PTR __t$[ebp+12], -19 ; ffffffedH
  00118	eb 3e		 jmp	 SHORT $LN1@operator@3
$LN86@operator@3:
  0011a	88 4d f6	 mov	 BYTE PTR __t$[ebp+10], cl
  0011d	eb 39		 jmp	 SHORT $LN1@operator@3
$LN87@operator@3:
  0011f	c6 45 f5 ec	 mov	 BYTE PTR __t$[ebp+9], -20 ; ffffffecH
  00123	eb 33		 jmp	 SHORT $LN1@operator@3
$LN88@operator@3:
  00125	c6 45 f4 ed	 mov	 BYTE PTR __t$[ebp+8], -19 ; ffffffedH
  00129	eb 2d		 jmp	 SHORT $LN1@operator@3
$LN89@operator@3:
  0012b	c6 45 f3 ea	 mov	 BYTE PTR __t$[ebp+7], -22 ; ffffffeaH
  0012f	eb 27		 jmp	 SHORT $LN1@operator@3
$LN90@operator@3:
  00131	88 4d f2	 mov	 BYTE PTR __t$[ebp+6], cl
  00134	eb 22		 jmp	 SHORT $LN1@operator@3
$LN91@operator@3:
  00136	c6 45 f1 ec	 mov	 BYTE PTR __t$[ebp+5], -20 ; ffffffecH
  0013a	eb 1c		 jmp	 SHORT $LN1@operator@3
$LN92@operator@3:
  0013c	c6 45 f0 ed	 mov	 BYTE PTR __t$[ebp+4], -19 ; ffffffedH
  00140	eb 16		 jmp	 SHORT $LN1@operator@3
$LN93@operator@3:
  00142	c6 45 ef ea	 mov	 BYTE PTR __t$[ebp+3], -22 ; ffffffeaH
  00146	eb 10		 jmp	 SHORT $LN1@operator@3
$LN94@operator@3:
  00148	c6 45 ee eb	 mov	 BYTE PTR __t$[ebp+2], -21 ; ffffffebH
  0014c	eb 0a		 jmp	 SHORT $LN1@operator@3
$LN95@operator@3:
  0014e	c6 45 ed ec	 mov	 BYTE PTR __t$[ebp+1], -20 ; ffffffecH
  00152	eb 04		 jmp	 SHORT $LN1@operator@3
$LN96@operator@3:
  00154	c6 45 ec ed	 mov	 BYTE PTR __t$[ebp], -19	; ffffffedH
$LN1@operator@3:
  00158	6a 02		 push	 2
  0015a	8d 45 ec	 lea	 eax, DWORD PTR __t$[ebp]
  0015d	c6 45 f7 00	 mov	 BYTE PTR __t$[ebp+11], 0
  00161	5a		 pop	 edx
$LL104@operator@3:
  00162	81 30 ed ec eb
	ea		 xor	 DWORD PTR [eax], -353637139 ; eaebecedH
  00168	83 c0 04	 add	 eax, 4
  0016b	4a		 dec	 edx
  0016c	75 f4		 jne	 SHORT $LL104@operator@3
  0016e	6a 08		 push	 8
  00170	58		 pop	 eax
$LL101@operator@3:
  00171	8b c8		 mov	 ecx, eax
  00173	81 e1 03 00 00
	80		 and	 ecx, -2147483645	; 80000003H
  00179	79 05		 jns	 SHORT $LN115@operator@3
  0017b	49		 dec	 ecx
  0017c	83 c9 fc	 or	 ecx, -4			; fffffffcH
  0017f	41		 inc	 ecx
$LN115@operator@3:
  00180	b2 ed		 mov	 dl, -19			; ffffffedH
  00182	2a d1		 sub	 dl, cl
  00184	30 54 05 ec	 xor	 BYTE PTR __t$[ebp+eax], dl
  00188	40		 inc	 eax
  00189	83 f8 0b	 cmp	 eax, 11			; 0000000bH
  0018c	7c e3		 jl	 SHORT $LL101@operator@3
  0018e	8b cf		 mov	 ecx, edi
  00190	8d 75 ec	 lea	 esi, DWORD PTR __t$[ebp]
  00193	ff 15 00 00 00
	00		 call	 DWORD PTR __imp_?c_str@ioHashString@@QBEPBDXZ
$LL111@operator@3:
  00199	8a 08		 mov	 cl, BYTE PTR [eax]
  0019b	3a 0e		 cmp	 cl, BYTE PTR [esi]
  0019d	75 1a		 jne	 SHORT $LN112@operator@3
  0019f	84 c9		 test	 cl, cl
  001a1	74 12		 je	 SHORT $LN113@operator@3
  001a3	8a 48 01	 mov	 cl, BYTE PTR [eax+1]
  001a6	3a 4e 01	 cmp	 cl, BYTE PTR [esi+1]
  001a9	75 0e		 jne	 SHORT $LN112@operator@3
  001ab	83 c0 02	 add	 eax, 2
  001ae	83 c6 02	 add	 esi, 2
  001b1	84 c9		 test	 cl, cl
  001b3	75 e4		 jne	 SHORT $LL111@operator@3
$LN113@operator@3:
  001b5	33 c0		 xor	 eax, eax
  001b7	eb 05		 jmp	 SHORT $LN114@operator@3
$LN112@operator@3:
  001b9	1b c0		 sbb	 eax, eax
  001bb	83 d8 ff	 sbb	 eax, -1
$LN114@operator@3:
  001be	33 c9		 xor	 ecx, ecx
  001c0	85 c0		 test	 eax, eax
  001c2	0f 94 c0	 sete	 al

; 148  : }

  001c5	8b 4d fc	 mov	 ecx, DWORD PTR __$ArrayPad$[ebp]
  001c8	5f		 pop	 edi
  001c9	33 cd		 xor	 ecx, ebp
  001cb	5e		 pop	 esi
  001cc	e8 00 00 00 00	 call	 @__security_check_cookie@4
  001d1	c9		 leave
  001d2	c3		 ret	 0
??$?8$0M@@@YA_NABVioHashString@@AAY0M@$$CBD@Z ENDP	; operator==<12>
_TEXT	ENDS
PUBLIC	__$ArrayPad$
PUBLIC	??$?8$0BD@@@YA_NABVioHashString@@AAY0BD@$$CBD@Z	; operator==<19>
; Function compile flags: /Ogsp
;	COMDAT ??$?8$0BD@@@YA_NABVioHashString@@AAY0BD@$$CBD@Z
_TEXT	SEGMENT
__t$ = -28						; size = 19
__$ArrayPad$ = -4					; size = 4
_lhs$ = 8						; size = 4
_t$ = 12						; size = 4
??$?8$0BD@@@YA_NABVioHashString@@AAY0BD@$$CBD@Z PROC	; operator==<19>, COMDAT

; 146  : {

  00000	55		 push	 ebp
  00001	8b ec		 mov	 ebp, esp
  00003	83 ec 1c	 sub	 esp, 28			; 0000001cH
  00006	a1 00 00 00 00	 mov	 eax, DWORD PTR ___security_cookie
  0000b	33 c5		 xor	 eax, ebp
  0000d	89 45 fc	 mov	 DWORD PTR __$ArrayPad$[ebp], eax
  00010	8b 45 0c	 mov	 eax, DWORD PTR _t$[ebp]

; 147  : 	_ENCSTR(t, _t); return ( strcmp( lhs.c_str(), _t ) == 0 );

  00013	8a 10		 mov	 dl, BYTE PTR [eax]
  00015	56		 push	 esi
  00016	57		 push	 edi
  00017	8b 7d 08	 mov	 edi, DWORD PTR _lhs$[ebp]
  0001a	84 d2		 test	 dl, dl
  0001c	0f 84 cf 01 00
	00		 je	 $LN96@operator@4
  00022	80 f2 ed	 xor	 dl, -19			; ffffffedH
  00025	88 55 e4	 mov	 BYTE PTR __t$[ebp], dl
  00028	8a 50 01	 mov	 dl, BYTE PTR [eax+1]
  0002b	84 d2		 test	 dl, dl
  0002d	0f 84 b8 01 00
	00		 je	 $LN95@operator@4
  00033	b1 ec		 mov	 cl, -20			; ffffffecH
  00035	32 d1		 xor	 dl, cl
  00037	88 55 e5	 mov	 BYTE PTR __t$[ebp+1], dl
  0003a	8a 50 02	 mov	 dl, BYTE PTR [eax+2]
  0003d	84 d2		 test	 dl, dl
  0003f	0f 84 a0 01 00
	00		 je	 $LN94@operator@4
  00045	80 f2 eb	 xor	 dl, -21			; ffffffebH
  00048	88 55 e6	 mov	 BYTE PTR __t$[ebp+2], dl
  0004b	8a 50 03	 mov	 dl, BYTE PTR [eax+3]
  0004e	84 d2		 test	 dl, dl
  00050	0f 84 89 01 00
	00		 je	 $LN93@operator@4
  00056	80 f2 ea	 xor	 dl, -22			; ffffffeaH
  00059	88 55 e7	 mov	 BYTE PTR __t$[ebp+3], dl
  0005c	8a 50 04	 mov	 dl, BYTE PTR [eax+4]
  0005f	84 d2		 test	 dl, dl
  00061	0f 84 72 01 00
	00		 je	 $LN92@operator@4
  00067	80 f2 ed	 xor	 dl, -19			; ffffffedH
  0006a	88 55 e8	 mov	 BYTE PTR __t$[ebp+4], dl
  0006d	8a 50 05	 mov	 dl, BYTE PTR [eax+5]
  00070	84 d2		 test	 dl, dl
  00072	0f 84 5c 01 00
	00		 je	 $LN91@operator@4
  00078	32 d1		 xor	 dl, cl
  0007a	88 55 e9	 mov	 BYTE PTR __t$[ebp+5], dl
  0007d	8a 50 06	 mov	 dl, BYTE PTR [eax+6]
  00080	84 d2		 test	 dl, dl
  00082	0f 84 46 01 00
	00		 je	 $LN90@operator@4
  00088	80 f2 eb	 xor	 dl, -21			; ffffffebH
  0008b	88 55 ea	 mov	 BYTE PTR __t$[ebp+6], dl
  0008e	8a 50 07	 mov	 dl, BYTE PTR [eax+7]
  00091	84 d2		 test	 dl, dl
  00093	0f 84 2f 01 00
	00		 je	 $LN89@operator@4
  00099	80 f2 ea	 xor	 dl, -22			; ffffffeaH
  0009c	88 55 eb	 mov	 BYTE PTR __t$[ebp+7], dl
  0009f	8a 50 08	 mov	 dl, BYTE PTR [eax+8]
  000a2	84 d2		 test	 dl, dl
  000a4	0f 84 18 01 00
	00		 je	 $LN88@operator@4
  000aa	80 f2 ed	 xor	 dl, -19			; ffffffedH
  000ad	88 55 ec	 mov	 BYTE PTR __t$[ebp+8], dl
  000b0	8a 50 09	 mov	 dl, BYTE PTR [eax+9]
  000b3	84 d2		 test	 dl, dl
  000b5	0f 84 02 01 00
	00		 je	 $LN87@operator@4
  000bb	32 d1		 xor	 dl, cl
  000bd	88 55 ed	 mov	 BYTE PTR __t$[ebp+9], dl
  000c0	8a 50 0a	 mov	 dl, BYTE PTR [eax+10]
  000c3	84 d2		 test	 dl, dl
  000c5	0f 84 ec 00 00
	00		 je	 $LN86@operator@4
  000cb	80 f2 eb	 xor	 dl, -21			; ffffffebH
  000ce	88 55 ee	 mov	 BYTE PTR __t$[ebp+10], dl
  000d1	8a 50 0b	 mov	 dl, BYTE PTR [eax+11]
  000d4	84 d2		 test	 dl, dl
  000d6	0f 84 d5 00 00
	00		 je	 $LN85@operator@4
  000dc	80 f2 ea	 xor	 dl, -22			; ffffffeaH
  000df	88 55 ef	 mov	 BYTE PTR __t$[ebp+11], dl
  000e2	8a 50 0c	 mov	 dl, BYTE PTR [eax+12]
  000e5	84 d2		 test	 dl, dl
  000e7	0f 84 be 00 00
	00		 je	 $LN84@operator@4
  000ed	80 f2 ed	 xor	 dl, -19			; ffffffedH
  000f0	88 55 f0	 mov	 BYTE PTR __t$[ebp+12], dl
  000f3	8a 50 0d	 mov	 dl, BYTE PTR [eax+13]
  000f6	84 d2		 test	 dl, dl
  000f8	0f 84 a8 00 00
	00		 je	 $LN83@operator@4
  000fe	32 d1		 xor	 dl, cl
  00100	88 55 f1	 mov	 BYTE PTR __t$[ebp+13], dl
  00103	8a 50 0e	 mov	 dl, BYTE PTR [eax+14]
  00106	84 d2		 test	 dl, dl
  00108	0f 84 92 00 00
	00		 je	 $LN82@operator@4
  0010e	80 f2 eb	 xor	 dl, -21			; ffffffebH
  00111	88 55 f2	 mov	 BYTE PTR __t$[ebp+14], dl
  00114	8a 50 0f	 mov	 dl, BYTE PTR [eax+15]
  00117	84 d2		 test	 dl, dl
  00119	74 7f		 je	 SHORT $LN81@operator@4
  0011b	80 f2 ea	 xor	 dl, -22			; ffffffeaH
  0011e	88 55 f3	 mov	 BYTE PTR __t$[ebp+15], dl
  00121	8a 50 10	 mov	 dl, BYTE PTR [eax+16]
  00124	84 d2		 test	 dl, dl
  00126	74 6c		 je	 SHORT $LN80@operator@4
  00128	80 f2 ed	 xor	 dl, -19			; ffffffedH
  0012b	88 55 f4	 mov	 BYTE PTR __t$[ebp+16], dl
  0012e	8a 50 11	 mov	 dl, BYTE PTR [eax+17]
  00131	84 d2		 test	 dl, dl
  00133	74 5a		 je	 SHORT $LN79@operator@4
  00135	32 d1		 xor	 dl, cl
  00137	80 78 12 00	 cmp	 BYTE PTR [eax+18], 0
  0013b	88 55 f5	 mov	 BYTE PTR __t$[ebp+17], dl
  0013e	0f 84 b1 00 00
	00		 je	 $LN1@operator@4
  00144	8a 50 13	 mov	 dl, BYTE PTR [eax+19]
  00147	84 d2		 test	 dl, dl
  00149	74 3e		 je	 SHORT $LN77@operator@4
  0014b	80 f2 ea	 xor	 dl, -22			; ffffffeaH
  0014e	88 55 f7	 mov	 BYTE PTR __t$[ebp+19], dl
  00151	8a 50 14	 mov	 dl, BYTE PTR [eax+20]
  00154	84 d2		 test	 dl, dl
  00156	74 2b		 je	 SHORT $LN76@operator@4
  00158	80 f2 ed	 xor	 dl, -19			; ffffffedH
  0015b	88 55 f8	 mov	 BYTE PTR __t$[ebp+20], dl
  0015e	8a 50 15	 mov	 dl, BYTE PTR [eax+21]
  00161	84 d2		 test	 dl, dl
  00163	74 19		 je	 SHORT $LN75@operator@4
  00165	8a 40 16	 mov	 al, BYTE PTR [eax+22]
  00168	32 d1		 xor	 dl, cl
  0016a	88 55 f9	 mov	 BYTE PTR __t$[ebp+21], dl
  0016d	84 c0		 test	 al, al
  0016f	74 07		 je	 SHORT $LN74@operator@4
  00171	34 eb		 xor	 al, -21			; ffffffebH
  00173	88 45 fa	 mov	 BYTE PTR __t$[ebp+22], al
  00176	eb 7d		 jmp	 SHORT $LN1@operator@4
$LN74@operator@4:
  00178	c6 45 fa eb	 mov	 BYTE PTR __t$[ebp+22], -21 ; ffffffebH
  0017c	eb 77		 jmp	 SHORT $LN1@operator@4
$LN75@operator@4:
  0017e	88 4d f9	 mov	 BYTE PTR __t$[ebp+21], cl
  00181	eb 72		 jmp	 SHORT $LN1@operator@4
$LN76@operator@4:
  00183	c6 45 f8 ed	 mov	 BYTE PTR __t$[ebp+20], -19 ; ffffffedH
  00187	eb 6c		 jmp	 SHORT $LN1@operator@4
$LN77@operator@4:
  00189	c6 45 f7 ea	 mov	 BYTE PTR __t$[ebp+19], -22 ; ffffffeaH
  0018d	eb 66		 jmp	 SHORT $LN1@operator@4
$LN79@operator@4:
  0018f	88 4d f5	 mov	 BYTE PTR __t$[ebp+17], cl
  00192	eb 61		 jmp	 SHORT $LN1@operator@4
$LN80@operator@4:
  00194	c6 45 f4 ed	 mov	 BYTE PTR __t$[ebp+16], -19 ; ffffffedH
  00198	eb 5b		 jmp	 SHORT $LN1@operator@4
$LN81@operator@4:
  0019a	c6 45 f3 ea	 mov	 BYTE PTR __t$[ebp+15], -22 ; ffffffeaH
  0019e	eb 55		 jmp	 SHORT $LN1@operator@4
$LN82@operator@4:
  001a0	c6 45 f2 eb	 mov	 BYTE PTR __t$[ebp+14], -21 ; ffffffebH
  001a4	eb 4f		 jmp	 SHORT $LN1@operator@4
$LN83@operator@4:
  001a6	88 4d f1	 mov	 BYTE PTR __t$[ebp+13], cl
  001a9	eb 4a		 jmp	 SHORT $LN1@operator@4
$LN84@operator@4:
  001ab	c6 45 f0 ed	 mov	 BYTE PTR __t$[ebp+12], -19 ; ffffffedH
  001af	eb 44		 jmp	 SHORT $LN1@operator@4
$LN85@operator@4:
  001b1	c6 45 ef ea	 mov	 BYTE PTR __t$[ebp+11], -22 ; ffffffeaH
  001b5	eb 3e		 jmp	 SHORT $LN1@operator@4
$LN86@operator@4:
  001b7	c6 45 ee eb	 mov	 BYTE PTR __t$[ebp+10], -21 ; ffffffebH
  001bb	eb 38		 jmp	 SHORT $LN1@operator@4
$LN87@operator@4:
  001bd	88 4d ed	 mov	 BYTE PTR __t$[ebp+9], cl
  001c0	eb 33		 jmp	 SHORT $LN1@operator@4
$LN88@operator@4:
  001c2	c6 45 ec ed	 mov	 BYTE PTR __t$[ebp+8], -19 ; ffffffedH
  001c6	eb 2d		 jmp	 SHORT $LN1@operator@4
$LN89@operator@4:
  001c8	c6 45 eb ea	 mov	 BYTE PTR __t$[ebp+7], -22 ; ffffffeaH
  001cc	eb 27		 jmp	 SHORT $LN1@operator@4
$LN90@operator@4:
  001ce	c6 45 ea eb	 mov	 BYTE PTR __t$[ebp+6], -21 ; ffffffebH
  001d2	eb 21		 jmp	 SHORT $LN1@operator@4
$LN91@operator@4:
  001d4	88 4d e9	 mov	 BYTE PTR __t$[ebp+5], cl
  001d7	eb 1c		 jmp	 SHORT $LN1@operator@4
$LN92@operator@4:
  001d9	c6 45 e8 ed	 mov	 BYTE PTR __t$[ebp+4], -19 ; ffffffedH
  001dd	eb 16		 jmp	 SHORT $LN1@operator@4
$LN93@operator@4:
  001df	c6 45 e7 ea	 mov	 BYTE PTR __t$[ebp+3], -22 ; ffffffeaH
  001e3	eb 10		 jmp	 SHORT $LN1@operator@4
$LN94@operator@4:
  001e5	c6 45 e6 eb	 mov	 BYTE PTR __t$[ebp+2], -21 ; ffffffebH
  001e9	eb 0a		 jmp	 SHORT $LN1@operator@4
$LN95@operator@4:
  001eb	c6 45 e5 ec	 mov	 BYTE PTR __t$[ebp+1], -20 ; ffffffecH
  001ef	eb 04		 jmp	 SHORT $LN1@operator@4
$LN96@operator@4:
  001f1	c6 45 e4 ed	 mov	 BYTE PTR __t$[ebp], -19	; ffffffedH
$LN1@operator@4:
  001f5	6a 04		 push	 4
  001f7	8d 45 e4	 lea	 eax, DWORD PTR __t$[ebp]
  001fa	c6 45 f6 00	 mov	 BYTE PTR __t$[ebp+18], 0
  001fe	5a		 pop	 edx
$LL104@operator@4:
  001ff	81 30 ed ec eb
	ea		 xor	 DWORD PTR [eax], -353637139 ; eaebecedH
  00205	83 c0 04	 add	 eax, 4
  00208	4a		 dec	 edx
  00209	75 f4		 jne	 SHORT $LL104@operator@4
  0020b	6a 10		 push	 16			; 00000010H
  0020d	58		 pop	 eax
$LL101@operator@4:
  0020e	8b c8		 mov	 ecx, eax
  00210	81 e1 03 00 00
	80		 and	 ecx, -2147483645	; 80000003H
  00216	79 05		 jns	 SHORT $LN115@operator@4
  00218	49		 dec	 ecx
  00219	83 c9 fc	 or	 ecx, -4			; fffffffcH
  0021c	41		 inc	 ecx
$LN115@operator@4:
  0021d	b2 ed		 mov	 dl, -19			; ffffffedH
  0021f	2a d1		 sub	 dl, cl
  00221	30 54 05 e4	 xor	 BYTE PTR __t$[ebp+eax], dl
  00225	40		 inc	 eax
  00226	83 f8 12	 cmp	 eax, 18			; 00000012H
  00229	7c e3		 jl	 SHORT $LL101@operator@4
  0022b	8b cf		 mov	 ecx, edi
  0022d	8d 75 e4	 lea	 esi, DWORD PTR __t$[ebp]
  00230	ff 15 00 00 00
	00		 call	 DWORD PTR __imp_?c_str@ioHashString@@QBEPBDXZ
$LL111@operator@4:
  00236	8a 08		 mov	 cl, BYTE PTR [eax]
  00238	3a 0e		 cmp	 cl, BYTE PTR [esi]
  0023a	75 1a		 jne	 SHORT $LN112@operator@4
  0023c	84 c9		 test	 cl, cl
  0023e	74 12		 je	 SHORT $LN113@operator@4
  00240	8a 48 01	 mov	 cl, BYTE PTR [eax+1]
  00243	3a 4e 01	 cmp	 cl, BYTE PTR [esi+1]
  00246	75 0e		 jne	 SHORT $LN112@operator@4
  00248	83 c0 02	 add	 eax, 2
  0024b	83 c6 02	 add	 esi, 2
  0024e	84 c9		 test	 cl, cl
  00250	75 e4		 jne	 SHORT $LL111@operator@4
$LN113@operator@4:
  00252	33 c0		 xor	 eax, eax
  00254	eb 05		 jmp	 SHORT $LN114@operator@4
$LN112@operator@4:
  00256	1b c0		 sbb	 eax, eax
  00258	83 d8 ff	 sbb	 eax, -1
$LN114@operator@4:
  0025b	33 c9		 xor	 ecx, ecx
  0025d	85 c0		 test	 eax, eax
  0025f	0f 94 c0	 sete	 al

; 148  : }

  00262	8b 4d fc	 mov	 ecx, DWORD PTR __$ArrayPad$[ebp]
  00265	5f		 pop	 edi
  00266	33 cd		 xor	 ecx, ebp
  00268	5e		 pop	 esi
  00269	e8 00 00 00 00	 call	 @__security_check_cookie@4
  0026e	c9		 leave
  0026f	c3		 ret	 0
??$?8$0BD@@@YA_NABVioHashString@@AAY0BD@$$CBD@Z ENDP	; operator==<19>
_TEXT	ENDS
PUBLIC	__$ArrayPad$
PUBLIC	??$GetIntAttribute_e@$0BA@@ioXMLElement@@QBEHAAY0BA@$$CBD@Z ; ioXMLElement::GetIntAttribute_e<16>
; Function compile flags: /Ogsp
; File d:\lost saga for developer\youtube\tutorial\source\src\io3dengine\ioxmlelement.h
;	COMDAT ??$GetIntAttribute_e@$0BA@@ioXMLElement@@QBEHAAY0BA@$$CBD@Z
_TEXT	SEGMENT
__k$ = -24						; size = 16
__$ArrayPad$ = -4					; size = 4
_k$ = 8							; size = 4
??$GetIntAttribute_e@$0BA@@ioXMLElement@@QBEHAAY0BA@$$CBD@Z PROC ; ioXMLElement::GetIntAttribute_e<16>, COMDAT
; _this$ = ecx

; 86   : 	{

  00000	55		 push	 ebp
  00001	8b ec		 mov	 ebp, esp
  00003	83 ec 18	 sub	 esp, 24			; 00000018H
  00006	a1 00 00 00 00	 mov	 eax, DWORD PTR ___security_cookie
  0000b	33 c5		 xor	 eax, ebp
  0000d	89 45 fc	 mov	 DWORD PTR __$ArrayPad$[ebp], eax
  00010	8b 45 08	 mov	 eax, DWORD PTR _k$[ebp]

; 87   : 		_ENCSTR(k, _k);

  00013	8a 10		 mov	 dl, BYTE PTR [eax]
  00015	56		 push	 esi
  00016	8b f1		 mov	 esi, ecx
  00018	84 d2		 test	 dl, dl
  0001a	0f 84 8c 01 00
	00		 je	 $LN96@GetIntAttr@3
  00020	80 f2 ed	 xor	 dl, -19			; ffffffedH
  00023	88 55 e8	 mov	 BYTE PTR __k$[ebp], dl
  00026	8a 50 01	 mov	 dl, BYTE PTR [eax+1]
  00029	84 d2		 test	 dl, dl
  0002b	0f 84 75 01 00
	00		 je	 $LN95@GetIntAttr@3
  00031	80 f2 ec	 xor	 dl, -20			; ffffffecH
  00034	88 55 e9	 mov	 BYTE PTR __k$[ebp+1], dl
  00037	8a 50 02	 mov	 dl, BYTE PTR [eax+2]
  0003a	84 d2		 test	 dl, dl
  0003c	0f 84 5e 01 00
	00		 je	 $LN94@GetIntAttr@3
  00042	b1 eb		 mov	 cl, -21			; ffffffebH
  00044	32 d1		 xor	 dl, cl
  00046	88 55 ea	 mov	 BYTE PTR __k$[ebp+2], dl
  00049	8a 50 03	 mov	 dl, BYTE PTR [eax+3]
  0004c	84 d2		 test	 dl, dl
  0004e	0f 84 46 01 00
	00		 je	 $LN93@GetIntAttr@3
  00054	80 f2 ea	 xor	 dl, -22			; ffffffeaH
  00057	88 55 eb	 mov	 BYTE PTR __k$[ebp+3], dl
  0005a	8a 50 04	 mov	 dl, BYTE PTR [eax+4]
  0005d	84 d2		 test	 dl, dl
  0005f	0f 84 2f 01 00
	00		 je	 $LN92@GetIntAttr@3
  00065	80 f2 ed	 xor	 dl, -19			; ffffffedH
  00068	88 55 ec	 mov	 BYTE PTR __k$[ebp+4], dl
  0006b	8a 50 05	 mov	 dl, BYTE PTR [eax+5]
  0006e	84 d2		 test	 dl, dl
  00070	0f 84 18 01 00
	00		 je	 $LN91@GetIntAttr@3
  00076	80 f2 ec	 xor	 dl, -20			; ffffffecH
  00079	88 55 ed	 mov	 BYTE PTR __k$[ebp+5], dl
  0007c	8a 50 06	 mov	 dl, BYTE PTR [eax+6]
  0007f	84 d2		 test	 dl, dl
  00081	0f 84 02 01 00
	00		 je	 $LN90@GetIntAttr@3
  00087	32 d1		 xor	 dl, cl
  00089	88 55 ee	 mov	 BYTE PTR __k$[ebp+6], dl
  0008c	8a 50 07	 mov	 dl, BYTE PTR [eax+7]
  0008f	84 d2		 test	 dl, dl
  00091	0f 84 ec 00 00
	00		 je	 $LN89@GetIntAttr@3
  00097	80 f2 ea	 xor	 dl, -22			; ffffffeaH
  0009a	88 55 ef	 mov	 BYTE PTR __k$[ebp+7], dl
  0009d	8a 50 08	 mov	 dl, BYTE PTR [eax+8]
  000a0	84 d2		 test	 dl, dl
  000a2	0f 84 d5 00 00
	00		 je	 $LN88@GetIntAttr@3
  000a8	80 f2 ed	 xor	 dl, -19			; ffffffedH
  000ab	88 55 f0	 mov	 BYTE PTR __k$[ebp+8], dl
  000ae	8a 50 09	 mov	 dl, BYTE PTR [eax+9]
  000b1	84 d2		 test	 dl, dl
  000b3	0f 84 be 00 00
	00		 je	 $LN87@GetIntAttr@3
  000b9	80 f2 ec	 xor	 dl, -20			; ffffffecH
  000bc	88 55 f1	 mov	 BYTE PTR __k$[ebp+9], dl
  000bf	8a 50 0a	 mov	 dl, BYTE PTR [eax+10]
  000c2	84 d2		 test	 dl, dl
  000c4	0f 84 a8 00 00
	00		 je	 $LN86@GetIntAttr@3
  000ca	32 d1		 xor	 dl, cl
  000cc	88 55 f2	 mov	 BYTE PTR __k$[ebp+10], dl
  000cf	8a 50 0b	 mov	 dl, BYTE PTR [eax+11]
  000d2	84 d2		 test	 dl, dl
  000d4	0f 84 92 00 00
	00		 je	 $LN85@GetIntAttr@3
  000da	80 f2 ea	 xor	 dl, -22			; ffffffeaH
  000dd	88 55 f3	 mov	 BYTE PTR __k$[ebp+11], dl
  000e0	8a 50 0c	 mov	 dl, BYTE PTR [eax+12]
  000e3	84 d2		 test	 dl, dl
  000e5	74 7f		 je	 SHORT $LN84@GetIntAttr@3
  000e7	80 f2 ed	 xor	 dl, -19			; ffffffedH
  000ea	88 55 f4	 mov	 BYTE PTR __k$[ebp+12], dl
  000ed	8a 50 0d	 mov	 dl, BYTE PTR [eax+13]
  000f0	84 d2		 test	 dl, dl
  000f2	74 6c		 je	 SHORT $LN83@GetIntAttr@3
  000f4	80 f2 ec	 xor	 dl, -20			; ffffffecH
  000f7	88 55 f5	 mov	 BYTE PTR __k$[ebp+13], dl
  000fa	8a 50 0e	 mov	 dl, BYTE PTR [eax+14]
  000fd	84 d2		 test	 dl, dl
  000ff	74 5a		 je	 SHORT $LN82@GetIntAttr@3
  00101	32 d1		 xor	 dl, cl
  00103	80 78 0f 00	 cmp	 BYTE PTR [eax+15], 0
  00107	88 55 f6	 mov	 BYTE PTR __k$[ebp+14], dl
  0010a	0f 84 a0 00 00
	00		 je	 $LN1@GetIntAttr@3
  00110	8a 50 10	 mov	 dl, BYTE PTR [eax+16]
  00113	84 d2		 test	 dl, dl
  00115	74 3e		 je	 SHORT $LN80@GetIntAttr@3
  00117	80 f2 ed	 xor	 dl, -19			; ffffffedH
  0011a	88 55 f8	 mov	 BYTE PTR __k$[ebp+16], dl
  0011d	8a 50 11	 mov	 dl, BYTE PTR [eax+17]
  00120	84 d2		 test	 dl, dl
  00122	74 2b		 je	 SHORT $LN79@GetIntAttr@3
  00124	80 f2 ec	 xor	 dl, -20			; ffffffecH
  00127	88 55 f9	 mov	 BYTE PTR __k$[ebp+17], dl
  0012a	8a 50 12	 mov	 dl, BYTE PTR [eax+18]
  0012d	84 d2		 test	 dl, dl
  0012f	74 19		 je	 SHORT $LN78@GetIntAttr@3
  00131	8a 40 13	 mov	 al, BYTE PTR [eax+19]
  00134	32 d1		 xor	 dl, cl
  00136	88 55 fa	 mov	 BYTE PTR __k$[ebp+18], dl
  00139	84 c0		 test	 al, al
  0013b	74 07		 je	 SHORT $LN77@GetIntAttr@3
  0013d	34 ea		 xor	 al, -22			; ffffffeaH
  0013f	88 45 fb	 mov	 BYTE PTR __k$[ebp+19], al
  00142	eb 6c		 jmp	 SHORT $LN1@GetIntAttr@3
$LN77@GetIntAttr@3:
  00144	c6 45 fb ea	 mov	 BYTE PTR __k$[ebp+19], -22 ; ffffffeaH
  00148	eb 66		 jmp	 SHORT $LN1@GetIntAttr@3
$LN78@GetIntAttr@3:
  0014a	88 4d fa	 mov	 BYTE PTR __k$[ebp+18], cl
  0014d	eb 61		 jmp	 SHORT $LN1@GetIntAttr@3
$LN79@GetIntAttr@3:
  0014f	c6 45 f9 ec	 mov	 BYTE PTR __k$[ebp+17], -20 ; ffffffecH
  00153	eb 5b		 jmp	 SHORT $LN1@GetIntAttr@3
$LN80@GetIntAttr@3:
  00155	c6 45 f8 ed	 mov	 BYTE PTR __k$[ebp+16], -19 ; ffffffedH
  00159	eb 55		 jmp	 SHORT $LN1@GetIntAttr@3
$LN82@GetIntAttr@3:
  0015b	88 4d f6	 mov	 BYTE PTR __k$[ebp+14], cl
  0015e	eb 50		 jmp	 SHORT $LN1@GetIntAttr@3
$LN83@GetIntAttr@3:
  00160	c6 45 f5 ec	 mov	 BYTE PTR __k$[ebp+13], -20 ; ffffffecH
  00164	eb 4a		 jmp	 SHORT $LN1@GetIntAttr@3
$LN84@GetIntAttr@3:
  00166	c6 45 f4 ed	 mov	 BYTE PTR __k$[ebp+12], -19 ; ffffffedH
  0016a	eb 44		 jmp	 SHORT $LN1@GetIntAttr@3
$LN85@GetIntAttr@3:
  0016c	c6 45 f3 ea	 mov	 BYTE PTR __k$[ebp+11], -22 ; ffffffeaH
  00170	eb 3e		 jmp	 SHORT $LN1@GetIntAttr@3
$LN86@GetIntAttr@3:
  00172	88 4d f2	 mov	 BYTE PTR __k$[ebp+10], cl
  00175	eb 39		 jmp	 SHORT $LN1@GetIntAttr@3
$LN87@GetIntAttr@3:
  00177	c6 45 f1 ec	 mov	 BYTE PTR __k$[ebp+9], -20 ; ffffffecH
  0017b	eb 33		 jmp	 SHORT $LN1@GetIntAttr@3
$LN88@GetIntAttr@3:
  0017d	c6 45 f0 ed	 mov	 BYTE PTR __k$[ebp+8], -19 ; ffffffedH
  00181	eb 2d		 jmp	 SHORT $LN1@GetIntAttr@3
$LN89@GetIntAttr@3:
  00183	c6 45 ef ea	 mov	 BYTE PTR __k$[ebp+7], -22 ; ffffffeaH
  00187	eb 27		 jmp	 SHORT $LN1@GetIntAttr@3
$LN90@GetIntAttr@3:
  00189	88 4d ee	 mov	 BYTE PTR __k$[ebp+6], cl
  0018c	eb 22		 jmp	 SHORT $LN1@GetIntAttr@3
$LN91@GetIntAttr@3:
  0018e	c6 45 ed ec	 mov	 BYTE PTR __k$[ebp+5], -20 ; ffffffecH
  00192	eb 1c		 jmp	 SHORT $LN1@GetIntAttr@3
$LN92@GetIntAttr@3:
  00194	c6 45 ec ed	 mov	 BYTE PTR __k$[ebp+4], -19 ; ffffffedH
  00198	eb 16		 jmp	 SHORT $LN1@GetIntAttr@3
$LN93@GetIntAttr@3:
  0019a	c6 45 eb ea	 mov	 BYTE PTR __k$[ebp+3], -22 ; ffffffeaH
  0019e	eb 10		 jmp	 SHORT $LN1@GetIntAttr@3
$LN94@GetIntAttr@3:
  001a0	c6 45 ea eb	 mov	 BYTE PTR __k$[ebp+2], -21 ; ffffffebH
  001a4	eb 0a		 jmp	 SHORT $LN1@GetIntAttr@3
$LN95@GetIntAttr@3:
  001a6	c6 45 e9 ec	 mov	 BYTE PTR __k$[ebp+1], -20 ; ffffffecH
  001aa	eb 04		 jmp	 SHORT $LN1@GetIntAttr@3
$LN96@GetIntAttr@3:
  001ac	c6 45 e8 ed	 mov	 BYTE PTR __k$[ebp], -19	; ffffffedH
$LN1@GetIntAttr@3:
  001b0	6a 03		 push	 3
  001b2	8d 45 e8	 lea	 eax, DWORD PTR __k$[ebp]
  001b5	c6 45 f7 00	 mov	 BYTE PTR __k$[ebp+15], 0
  001b9	5a		 pop	 edx
$LL104@GetIntAttr@3:
  001ba	81 30 ed ec eb
	ea		 xor	 DWORD PTR [eax], -353637139 ; eaebecedH
  001c0	83 c0 04	 add	 eax, 4
  001c3	4a		 dec	 edx
  001c4	75 f4		 jne	 SHORT $LL104@GetIntAttr@3
  001c6	6a 0c		 push	 12			; 0000000cH
  001c8	58		 pop	 eax
$LL101@GetIntAttr@3:
  001c9	8b c8		 mov	 ecx, eax
  001cb	81 e1 03 00 00
	80		 and	 ecx, -2147483645	; 80000003H
  001d1	79 05		 jns	 SHORT $LN111@GetIntAttr@3
  001d3	49		 dec	 ecx
  001d4	83 c9 fc	 or	 ecx, -4			; fffffffcH
  001d7	41		 inc	 ecx
$LN111@GetIntAttr@3:
  001d8	b2 ed		 mov	 dl, -19			; ffffffedH
  001da	2a d1		 sub	 dl, cl
  001dc	30 54 05 e8	 xor	 BYTE PTR __k$[ebp+eax], dl
  001e0	40		 inc	 eax
  001e1	83 f8 0f	 cmp	 eax, 15			; 0000000fH
  001e4	7c e3		 jl	 SHORT $LL101@GetIntAttr@3

; 88   : 		return GetIntAttribute(_k);

  001e6	8d 45 e8	 lea	 eax, DWORD PTR __k$[ebp]
  001e9	50		 push	 eax
  001ea	8b ce		 mov	 ecx, esi
  001ec	ff 15 00 00 00
	00		 call	 DWORD PTR __imp_?GetIntAttribute@ioXMLElement@@QBEHPBD@Z

; 89   : 	}

  001f2	8b 4d fc	 mov	 ecx, DWORD PTR __$ArrayPad$[ebp]
  001f5	33 cd		 xor	 ecx, ebp
  001f7	5e		 pop	 esi
  001f8	e8 00 00 00 00	 call	 @__security_check_cookie@4
  001fd	c9		 leave
  001fe	c2 04 00	 ret	 4
??$GetIntAttribute_e@$0BA@@ioXMLElement@@QBEHAAY0BA@$$CBD@Z ENDP ; ioXMLElement::GetIntAttribute_e<16>
_TEXT	ENDS
PUBLIC	__$ArrayPad$
PUBLIC	??$GetStringAttribute_e@$0O@@ioXMLElement@@QBEPBDAAY0O@$$CBD@Z ; ioXMLElement::GetStringAttribute_e<14>
; Function compile flags: /Ogsp
;	COMDAT ??$GetStringAttribute_e@$0O@@ioXMLElement@@QBEPBDAAY0O@$$CBD@Z
_TEXT	SEGMENT
__k$ = -24						; size = 14
__$ArrayPad$ = -4					; size = 4
_k$ = 8							; size = 4
??$GetStringAttribute_e@$0O@@ioXMLElement@@QBEPBDAAY0O@$$CBD@Z PROC ; ioXMLElement::GetStringAttribute_e<14>, COMDAT
; _this$ = ecx

; 107  : 	{

  00000	55		 push	 ebp
  00001	8b ec		 mov	 ebp, esp
  00003	83 ec 18	 sub	 esp, 24			; 00000018H
  00006	a1 00 00 00 00	 mov	 eax, DWORD PTR ___security_cookie
  0000b	33 c5		 xor	 eax, ebp
  0000d	89 45 fc	 mov	 DWORD PTR __$ArrayPad$[ebp], eax
  00010	8b 45 08	 mov	 eax, DWORD PTR _k$[ebp]

; 108  : 		_ENCSTR(k, _k);

  00013	8a 10		 mov	 dl, BYTE PTR [eax]
  00015	56		 push	 esi
  00016	8b f1		 mov	 esi, ecx
  00018	84 d2		 test	 dl, dl
  0001a	0f 84 64 01 00
	00		 je	 $LN96@GetStringA@3
  00020	80 f2 ed	 xor	 dl, -19			; ffffffedH
  00023	88 55 e8	 mov	 BYTE PTR __k$[ebp], dl
  00026	8a 50 01	 mov	 dl, BYTE PTR [eax+1]
  00029	84 d2		 test	 dl, dl
  0002b	0f 84 4d 01 00
	00		 je	 $LN95@GetStringA@3
  00031	80 f2 ec	 xor	 dl, -20			; ffffffecH
  00034	88 55 e9	 mov	 BYTE PTR __k$[ebp+1], dl
  00037	8a 50 02	 mov	 dl, BYTE PTR [eax+2]
  0003a	84 d2		 test	 dl, dl
  0003c	0f 84 36 01 00
	00		 je	 $LN94@GetStringA@3
  00042	b1 eb		 mov	 cl, -21			; ffffffebH
  00044	32 d1		 xor	 dl, cl
  00046	88 55 ea	 mov	 BYTE PTR __k$[ebp+2], dl
  00049	8a 50 03	 mov	 dl, BYTE PTR [eax+3]
  0004c	84 d2		 test	 dl, dl
  0004e	0f 84 1e 01 00
	00		 je	 $LN93@GetStringA@3
  00054	80 f2 ea	 xor	 dl, -22			; ffffffeaH
  00057	88 55 eb	 mov	 BYTE PTR __k$[ebp+3], dl
  0005a	8a 50 04	 mov	 dl, BYTE PTR [eax+4]
  0005d	84 d2		 test	 dl, dl
  0005f	0f 84 07 01 00
	00		 je	 $LN92@GetStringA@3
  00065	80 f2 ed	 xor	 dl, -19			; ffffffedH
  00068	88 55 ec	 mov	 BYTE PTR __k$[ebp+4], dl
  0006b	8a 50 05	 mov	 dl, BYTE PTR [eax+5]
  0006e	84 d2		 test	 dl, dl
  00070	0f 84 f0 00 00
	00		 je	 $LN91@GetStringA@3
  00076	80 f2 ec	 xor	 dl, -20			; ffffffecH
  00079	88 55 ed	 mov	 BYTE PTR __k$[ebp+5], dl
  0007c	8a 50 06	 mov	 dl, BYTE PTR [eax+6]
  0007f	84 d2		 test	 dl, dl
  00081	0f 84 da 00 00
	00		 je	 $LN90@GetStringA@3
  00087	32 d1		 xor	 dl, cl
  00089	88 55 ee	 mov	 BYTE PTR __k$[ebp+6], dl
  0008c	8a 50 07	 mov	 dl, BYTE PTR [eax+7]
  0008f	84 d2		 test	 dl, dl
  00091	0f 84 c4 00 00
	00		 je	 $LN89@GetStringA@3
  00097	80 f2 ea	 xor	 dl, -22			; ffffffeaH
  0009a	88 55 ef	 mov	 BYTE PTR __k$[ebp+7], dl
  0009d	8a 50 08	 mov	 dl, BYTE PTR [eax+8]
  000a0	84 d2		 test	 dl, dl
  000a2	0f 84 ad 00 00
	00		 je	 $LN88@GetStringA@3
  000a8	80 f2 ed	 xor	 dl, -19			; ffffffedH
  000ab	88 55 f0	 mov	 BYTE PTR __k$[ebp+8], dl
  000ae	8a 50 09	 mov	 dl, BYTE PTR [eax+9]
  000b1	84 d2		 test	 dl, dl
  000b3	0f 84 96 00 00
	00		 je	 $LN87@GetStringA@3
  000b9	80 f2 ec	 xor	 dl, -20			; ffffffecH
  000bc	88 55 f1	 mov	 BYTE PTR __k$[ebp+9], dl
  000bf	8a 50 0a	 mov	 dl, BYTE PTR [eax+10]
  000c2	84 d2		 test	 dl, dl
  000c4	0f 84 80 00 00
	00		 je	 $LN86@GetStringA@3
  000ca	32 d1		 xor	 dl, cl
  000cc	88 55 f2	 mov	 BYTE PTR __k$[ebp+10], dl
  000cf	8a 50 0b	 mov	 dl, BYTE PTR [eax+11]
  000d2	84 d2		 test	 dl, dl
  000d4	74 6e		 je	 SHORT $LN85@GetStringA@3
  000d6	80 f2 ea	 xor	 dl, -22			; ffffffeaH
  000d9	88 55 f3	 mov	 BYTE PTR __k$[ebp+11], dl
  000dc	8a 50 0c	 mov	 dl, BYTE PTR [eax+12]
  000df	84 d2		 test	 dl, dl
  000e1	74 5b		 je	 SHORT $LN84@GetStringA@3
  000e3	80 f2 ed	 xor	 dl, -19			; ffffffedH
  000e6	80 78 0d 00	 cmp	 BYTE PTR [eax+13], 0
  000ea	88 55 f4	 mov	 BYTE PTR __k$[ebp+12], dl
  000ed	0f 84 95 00 00
	00		 je	 $LN1@GetStringA@3
  000f3	8a 50 0e	 mov	 dl, BYTE PTR [eax+14]
  000f6	84 d2		 test	 dl, dl
  000f8	74 3f		 je	 SHORT $LN82@GetStringA@3
  000fa	32 d1		 xor	 dl, cl
  000fc	88 55 f6	 mov	 BYTE PTR __k$[ebp+14], dl
  000ff	8a 50 0f	 mov	 dl, BYTE PTR [eax+15]
  00102	84 d2		 test	 dl, dl
  00104	74 2d		 je	 SHORT $LN81@GetStringA@3
  00106	80 f2 ea	 xor	 dl, -22			; ffffffeaH
  00109	88 55 f7	 mov	 BYTE PTR __k$[ebp+15], dl
  0010c	8a 50 10	 mov	 dl, BYTE PTR [eax+16]
  0010f	84 d2		 test	 dl, dl
  00111	74 1a		 je	 SHORT $LN80@GetStringA@3
  00113	8a 40 11	 mov	 al, BYTE PTR [eax+17]
  00116	80 f2 ed	 xor	 dl, -19			; ffffffedH
  00119	88 55 f8	 mov	 BYTE PTR __k$[ebp+16], dl
  0011c	84 c0		 test	 al, al
  0011e	74 07		 je	 SHORT $LN79@GetStringA@3
  00120	34 ec		 xor	 al, -20			; ffffffecH
  00122	88 45 f9	 mov	 BYTE PTR __k$[ebp+17], al
  00125	eb 61		 jmp	 SHORT $LN1@GetStringA@3
$LN79@GetStringA@3:
  00127	c6 45 f9 ec	 mov	 BYTE PTR __k$[ebp+17], -20 ; ffffffecH
  0012b	eb 5b		 jmp	 SHORT $LN1@GetStringA@3
$LN80@GetStringA@3:
  0012d	c6 45 f8 ed	 mov	 BYTE PTR __k$[ebp+16], -19 ; ffffffedH
  00131	eb 55		 jmp	 SHORT $LN1@GetStringA@3
$LN81@GetStringA@3:
  00133	c6 45 f7 ea	 mov	 BYTE PTR __k$[ebp+15], -22 ; ffffffeaH
  00137	eb 4f		 jmp	 SHORT $LN1@GetStringA@3
$LN82@GetStringA@3:
  00139	88 4d f6	 mov	 BYTE PTR __k$[ebp+14], cl
  0013c	eb 4a		 jmp	 SHORT $LN1@GetStringA@3
$LN84@GetStringA@3:
  0013e	c6 45 f4 ed	 mov	 BYTE PTR __k$[ebp+12], -19 ; ffffffedH
  00142	eb 44		 jmp	 SHORT $LN1@GetStringA@3
$LN85@GetStringA@3:
  00144	c6 45 f3 ea	 mov	 BYTE PTR __k$[ebp+11], -22 ; ffffffeaH
  00148	eb 3e		 jmp	 SHORT $LN1@GetStringA@3
$LN86@GetStringA@3:
  0014a	88 4d f2	 mov	 BYTE PTR __k$[ebp+10], cl
  0014d	eb 39		 jmp	 SHORT $LN1@GetStringA@3
$LN87@GetStringA@3:
  0014f	c6 45 f1 ec	 mov	 BYTE PTR __k$[ebp+9], -20 ; ffffffecH
  00153	eb 33		 jmp	 SHORT $LN1@GetStringA@3
$LN88@GetStringA@3:
  00155	c6 45 f0 ed	 mov	 BYTE PTR __k$[ebp+8], -19 ; ffffffedH
  00159	eb 2d		 jmp	 SHORT $LN1@GetStringA@3
$LN89@GetStringA@3:
  0015b	c6 45 ef ea	 mov	 BYTE PTR __k$[ebp+7], -22 ; ffffffeaH
  0015f	eb 27		 jmp	 SHORT $LN1@GetStringA@3
$LN90@GetStringA@3:
  00161	88 4d ee	 mov	 BYTE PTR __k$[ebp+6], cl
  00164	eb 22		 jmp	 SHORT $LN1@GetStringA@3
$LN91@GetStringA@3:
  00166	c6 45 ed ec	 mov	 BYTE PTR __k$[ebp+5], -20 ; ffffffecH
  0016a	eb 1c		 jmp	 SHORT $LN1@GetStringA@3
$LN92@GetStringA@3:
  0016c	c6 45 ec ed	 mov	 BYTE PTR __k$[ebp+4], -19 ; ffffffedH
  00170	eb 16		 jmp	 SHORT $LN1@GetStringA@3
$LN93@GetStringA@3:
  00172	c6 45 eb ea	 mov	 BYTE PTR __k$[ebp+3], -22 ; ffffffeaH
  00176	eb 10		 jmp	 SHORT $LN1@GetStringA@3
$LN94@GetStringA@3:
  00178	c6 45 ea eb	 mov	 BYTE PTR __k$[ebp+2], -21 ; ffffffebH
  0017c	eb 0a		 jmp	 SHORT $LN1@GetStringA@3
$LN95@GetStringA@3:
  0017e	c6 45 e9 ec	 mov	 BYTE PTR __k$[ebp+1], -20 ; ffffffecH
  00182	eb 04		 jmp	 SHORT $LN1@GetStringA@3
$LN96@GetStringA@3:
  00184	c6 45 e8 ed	 mov	 BYTE PTR __k$[ebp], -19	; ffffffedH
$LN1@GetStringA@3:
  00188	6a 03		 push	 3
  0018a	8d 45 e8	 lea	 eax, DWORD PTR __k$[ebp]
  0018d	c6 45 f5 00	 mov	 BYTE PTR __k$[ebp+13], 0
  00191	5a		 pop	 edx
$LL104@GetStringA@3:
  00192	81 30 ed ec eb
	ea		 xor	 DWORD PTR [eax], -353637139 ; eaebecedH
  00198	83 c0 04	 add	 eax, 4
  0019b	4a		 dec	 edx
  0019c	75 f4		 jne	 SHORT $LL104@GetStringA@3
  0019e	80 75 f4 ed	 xor	 BYTE PTR __k$[ebp+12], -19 ; ffffffedH

; 109  : 		return GetStringAttribute(_k);

  001a2	8d 45 e8	 lea	 eax, DWORD PTR __k$[ebp]
  001a5	50		 push	 eax
  001a6	8b ce		 mov	 ecx, esi
  001a8	ff 15 00 00 00
	00		 call	 DWORD PTR __imp_?GetStringAttribute@ioXMLElement@@QBEPBDPBD@Z

; 110  : 	}

  001ae	8b 4d fc	 mov	 ecx, DWORD PTR __$ArrayPad$[ebp]
  001b1	33 cd		 xor	 ecx, ebp
  001b3	5e		 pop	 esi
  001b4	e8 00 00 00 00	 call	 @__security_check_cookie@4
  001b9	c9		 leave
  001ba	c2 04 00	 ret	 4
??$GetStringAttribute_e@$0O@@ioXMLElement@@QBEPBDAAY0O@$$CBD@Z ENDP ; ioXMLElement::GetStringAttribute_e<14>
_TEXT	ENDS
PUBLIC	__$ArrayPad$
PUBLIC	??$?8$0N@@@YA_NABVioHashString@@AAY0N@$$CBD@Z	; operator==<13>
; Function compile flags: /Ogsp
; File d:\lost saga for developer\youtube\tutorial\source\src\io3dengine\iohashstring.h
;	COMDAT ??$?8$0N@@@YA_NABVioHashString@@AAY0N@$$CBD@Z
_TEXT	SEGMENT
__t$ = -24						; size = 13
__$ArrayPad$ = -4					; size = 4
_lhs$ = 8						; size = 4
_t$ = 12						; size = 4
??$?8$0N@@@YA_NABVioHashString@@AAY0N@$$CBD@Z PROC	; operator==<13>, COMDAT

; 146  : {

  00000	55		 push	 ebp
  00001	8b ec		 mov	 ebp, esp
  00003	83 ec 18	 sub	 esp, 24			; 00000018H
  00006	a1 00 00 00 00	 mov	 eax, DWORD PTR ___security_cookie
  0000b	33 c5		 xor	 eax, ebp
  0000d	89 45 fc	 mov	 DWORD PTR __$ArrayPad$[ebp], eax
  00010	8b 45 0c	 mov	 eax, DWORD PTR _t$[ebp]

; 147  : 	_ENCSTR(t, _t); return ( strcmp( lhs.c_str(), _t ) == 0 );

  00013	8a 10		 mov	 dl, BYTE PTR [eax]
  00015	56		 push	 esi
  00016	57		 push	 edi
  00017	8b 7d 08	 mov	 edi, DWORD PTR _lhs$[ebp]
  0001a	84 d2		 test	 dl, dl
  0001c	0f 84 4d 01 00
	00		 je	 $LN96@operator@5
  00022	80 f2 ed	 xor	 dl, -19			; ffffffedH
  00025	88 55 e8	 mov	 BYTE PTR __t$[ebp], dl
  00028	8a 50 01	 mov	 dl, BYTE PTR [eax+1]
  0002b	84 d2		 test	 dl, dl
  0002d	0f 84 36 01 00
	00		 je	 $LN95@operator@5
  00033	b1 ec		 mov	 cl, -20			; ffffffecH
  00035	32 d1		 xor	 dl, cl
  00037	88 55 e9	 mov	 BYTE PTR __t$[ebp+1], dl
  0003a	8a 50 02	 mov	 dl, BYTE PTR [eax+2]
  0003d	84 d2		 test	 dl, dl
  0003f	0f 84 1e 01 00
	00		 je	 $LN94@operator@5
  00045	80 f2 eb	 xor	 dl, -21			; ffffffebH
  00048	88 55 ea	 mov	 BYTE PTR __t$[ebp+2], dl
  0004b	8a 50 03	 mov	 dl, BYTE PTR [eax+3]
  0004e	84 d2		 test	 dl, dl
  00050	0f 84 07 01 00
	00		 je	 $LN93@operator@5
  00056	80 f2 ea	 xor	 dl, -22			; ffffffeaH
  00059	88 55 eb	 mov	 BYTE PTR __t$[ebp+3], dl
  0005c	8a 50 04	 mov	 dl, BYTE PTR [eax+4]
  0005f	84 d2		 test	 dl, dl
  00061	0f 84 f0 00 00
	00		 je	 $LN92@operator@5
  00067	80 f2 ed	 xor	 dl, -19			; ffffffedH
  0006a	88 55 ec	 mov	 BYTE PTR __t$[ebp+4], dl
  0006d	8a 50 05	 mov	 dl, BYTE PTR [eax+5]
  00070	84 d2		 test	 dl, dl
  00072	0f 84 da 00 00
	00		 je	 $LN91@operator@5
  00078	32 d1		 xor	 dl, cl
  0007a	88 55 ed	 mov	 BYTE PTR __t$[ebp+5], dl
  0007d	8a 50 06	 mov	 dl, BYTE PTR [eax+6]
  00080	84 d2		 test	 dl, dl
  00082	0f 84 c4 00 00
	00		 je	 $LN90@operator@5
  00088	80 f2 eb	 xor	 dl, -21			; ffffffebH
  0008b	88 55 ee	 mov	 BYTE PTR __t$[ebp+6], dl
  0008e	8a 50 07	 mov	 dl, BYTE PTR [eax+7]
  00091	84 d2		 test	 dl, dl
  00093	0f 84 ad 00 00
	00		 je	 $LN89@operator@5
  00099	80 f2 ea	 xor	 dl, -22			; ffffffeaH
  0009c	88 55 ef	 mov	 BYTE PTR __t$[ebp+7], dl
  0009f	8a 50 08	 mov	 dl, BYTE PTR [eax+8]
  000a2	84 d2		 test	 dl, dl
  000a4	0f 84 96 00 00
	00		 je	 $LN88@operator@5
  000aa	80 f2 ed	 xor	 dl, -19			; ffffffedH
  000ad	88 55 f0	 mov	 BYTE PTR __t$[ebp+8], dl
  000b0	8a 50 09	 mov	 dl, BYTE PTR [eax+9]
  000b3	84 d2		 test	 dl, dl
  000b5	0f 84 80 00 00
	00		 je	 $LN87@operator@5
  000bb	32 d1		 xor	 dl, cl
  000bd	88 55 f1	 mov	 BYTE PTR __t$[ebp+9], dl
  000c0	8a 50 0a	 mov	 dl, BYTE PTR [eax+10]
  000c3	84 d2		 test	 dl, dl
  000c5	74 6e		 je	 SHORT $LN86@operator@5
  000c7	80 f2 eb	 xor	 dl, -21			; ffffffebH
  000ca	88 55 f2	 mov	 BYTE PTR __t$[ebp+10], dl
  000cd	8a 50 0b	 mov	 dl, BYTE PTR [eax+11]
  000d0	84 d2		 test	 dl, dl
  000d2	74 5b		 je	 SHORT $LN85@operator@5
  000d4	80 f2 ea	 xor	 dl, -22			; ffffffeaH
  000d7	80 78 0c 00	 cmp	 BYTE PTR [eax+12], 0
  000db	88 55 f3	 mov	 BYTE PTR __t$[ebp+11], dl
  000de	0f 84 8f 00 00
	00		 je	 $LN1@operator@5
  000e4	8a 50 0d	 mov	 dl, BYTE PTR [eax+13]
  000e7	84 d2		 test	 dl, dl
  000e9	74 3f		 je	 SHORT $LN83@operator@5
  000eb	32 d1		 xor	 dl, cl
  000ed	88 55 f5	 mov	 BYTE PTR __t$[ebp+13], dl
  000f0	8a 50 0e	 mov	 dl, BYTE PTR [eax+14]
  000f3	84 d2		 test	 dl, dl
  000f5	74 2d		 je	 SHORT $LN82@operator@5
  000f7	80 f2 eb	 xor	 dl, -21			; ffffffebH
  000fa	88 55 f6	 mov	 BYTE PTR __t$[ebp+14], dl
  000fd	8a 50 0f	 mov	 dl, BYTE PTR [eax+15]
  00100	84 d2		 test	 dl, dl
  00102	74 1a		 je	 SHORT $LN81@operator@5
  00104	8a 40 10	 mov	 al, BYTE PTR [eax+16]
  00107	80 f2 ea	 xor	 dl, -22			; ffffffeaH
  0010a	88 55 f7	 mov	 BYTE PTR __t$[ebp+15], dl
  0010d	84 c0		 test	 al, al
  0010f	74 07		 je	 SHORT $LN80@operator@5
  00111	34 ed		 xor	 al, -19			; ffffffedH
  00113	88 45 f8	 mov	 BYTE PTR __t$[ebp+16], al
  00116	eb 5b		 jmp	 SHORT $LN1@operator@5
$LN80@operator@5:
  00118	c6 45 f8 ed	 mov	 BYTE PTR __t$[ebp+16], -19 ; ffffffedH
  0011c	eb 55		 jmp	 SHORT $LN1@operator@5
$LN81@operator@5:
  0011e	c6 45 f7 ea	 mov	 BYTE PTR __t$[ebp+15], -22 ; ffffffeaH
  00122	eb 4f		 jmp	 SHORT $LN1@operator@5
$LN82@operator@5:
  00124	c6 45 f6 eb	 mov	 BYTE PTR __t$[ebp+14], -21 ; ffffffebH
  00128	eb 49		 jmp	 SHORT $LN1@operator@5
$LN83@operator@5:
  0012a	88 4d f5	 mov	 BYTE PTR __t$[ebp+13], cl
  0012d	eb 44		 jmp	 SHORT $LN1@operator@5
$LN85@operator@5:
  0012f	c6 45 f3 ea	 mov	 BYTE PTR __t$[ebp+11], -22 ; ffffffeaH
  00133	eb 3e		 jmp	 SHORT $LN1@operator@5
$LN86@operator@5:
  00135	c6 45 f2 eb	 mov	 BYTE PTR __t$[ebp+10], -21 ; ffffffebH
  00139	eb 38		 jmp	 SHORT $LN1@operator@5
$LN87@operator@5:
  0013b	88 4d f1	 mov	 BYTE PTR __t$[ebp+9], cl
  0013e	eb 33		 jmp	 SHORT $LN1@operator@5
$LN88@operator@5:
  00140	c6 45 f0 ed	 mov	 BYTE PTR __t$[ebp+8], -19 ; ffffffedH
  00144	eb 2d		 jmp	 SHORT $LN1@operator@5
$LN89@operator@5:
  00146	c6 45 ef ea	 mov	 BYTE PTR __t$[ebp+7], -22 ; ffffffeaH
  0014a	eb 27		 jmp	 SHORT $LN1@operator@5
$LN90@operator@5:
  0014c	c6 45 ee eb	 mov	 BYTE PTR __t$[ebp+6], -21 ; ffffffebH
  00150	eb 21		 jmp	 SHORT $LN1@operator@5
$LN91@operator@5:
  00152	88 4d ed	 mov	 BYTE PTR __t$[ebp+5], cl
  00155	eb 1c		 jmp	 SHORT $LN1@operator@5
$LN92@operator@5:
  00157	c6 45 ec ed	 mov	 BYTE PTR __t$[ebp+4], -19 ; ffffffedH
  0015b	eb 16		 jmp	 SHORT $LN1@operator@5
$LN93@operator@5:
  0015d	c6 45 eb ea	 mov	 BYTE PTR __t$[ebp+3], -22 ; ffffffeaH
  00161	eb 10		 jmp	 SHORT $LN1@operator@5
$LN94@operator@5:
  00163	c6 45 ea eb	 mov	 BYTE PTR __t$[ebp+2], -21 ; ffffffebH
  00167	eb 0a		 jmp	 SHORT $LN1@operator@5
$LN95@operator@5:
  00169	c6 45 e9 ec	 mov	 BYTE PTR __t$[ebp+1], -20 ; ffffffecH
  0016d	eb 04		 jmp	 SHORT $LN1@operator@5
$LN96@operator@5:
  0016f	c6 45 e8 ed	 mov	 BYTE PTR __t$[ebp], -19	; ffffffedH
$LN1@operator@5:
  00173	6a 03		 push	 3
  00175	8d 45 e8	 lea	 eax, DWORD PTR __t$[ebp]
  00178	c6 45 f4 00	 mov	 BYTE PTR __t$[ebp+12], 0
  0017c	5a		 pop	 edx
$LL104@operator@5:
  0017d	81 30 ed ec eb
	ea		 xor	 DWORD PTR [eax], -353637139 ; eaebecedH
  00183	83 c0 04	 add	 eax, 4
  00186	4a		 dec	 edx
  00187	75 f4		 jne	 SHORT $LL104@operator@5
  00189	8b cf		 mov	 ecx, edi
  0018b	8d 75 e8	 lea	 esi, DWORD PTR __t$[ebp]
  0018e	ff 15 00 00 00
	00		 call	 DWORD PTR __imp_?c_str@ioHashString@@QBEPBDXZ
$LL111@operator@5:
  00194	8a 08		 mov	 cl, BYTE PTR [eax]
  00196	3a 0e		 cmp	 cl, BYTE PTR [esi]
  00198	75 1a		 jne	 SHORT $LN112@operator@5
  0019a	84 c9		 test	 cl, cl
  0019c	74 12		 je	 SHORT $LN113@operator@5
  0019e	8a 48 01	 mov	 cl, BYTE PTR [eax+1]
  001a1	3a 4e 01	 cmp	 cl, BYTE PTR [esi+1]
  001a4	75 0e		 jne	 SHORT $LN112@operator@5
  001a6	83 c0 02	 add	 eax, 2
  001a9	83 c6 02	 add	 esi, 2
  001ac	84 c9		 test	 cl, cl
  001ae	75 e4		 jne	 SHORT $LL111@operator@5
$LN113@operator@5:
  001b0	33 c0		 xor	 eax, eax
  001b2	eb 05		 jmp	 SHORT $LN114@operator@5
$LN112@operator@5:
  001b4	1b c0		 sbb	 eax, eax
  001b6	83 d8 ff	 sbb	 eax, -1
$LN114@operator@5:
  001b9	33 c9		 xor	 ecx, ecx
  001bb	85 c0		 test	 eax, eax
  001bd	0f 94 c0	 sete	 al

; 148  : }

  001c0	8b 4d fc	 mov	 ecx, DWORD PTR __$ArrayPad$[ebp]
  001c3	5f		 pop	 edi
  001c4	33 cd		 xor	 ecx, ebp
  001c6	5e		 pop	 esi
  001c7	e8 00 00 00 00	 call	 @__security_check_cookie@4
  001cc	c9		 leave
  001cd	c3		 ret	 0
??$?8$0N@@@YA_NABVioHashString@@AAY0N@$$CBD@Z ENDP	; operator==<13>
_TEXT	ENDS
PUBLIC	__$ArrayPad$
PUBLIC	??$?8$0O@@@YA_NABVioHashString@@AAY0O@$$CBD@Z	; operator==<14>
; Function compile flags: /Ogsp
;	COMDAT ??$?8$0O@@@YA_NABVioHashString@@AAY0O@$$CBD@Z
_TEXT	SEGMENT
__t$ = -24						; size = 14
__$ArrayPad$ = -4					; size = 4
_lhs$ = 8						; size = 4
_t$ = 12						; size = 4
??$?8$0O@@@YA_NABVioHashString@@AAY0O@$$CBD@Z PROC	; operator==<14>, COMDAT

; 146  : {

  00000	55		 push	 ebp
  00001	8b ec		 mov	 ebp, esp
  00003	83 ec 18	 sub	 esp, 24			; 00000018H
  00006	a1 00 00 00 00	 mov	 eax, DWORD PTR ___security_cookie
  0000b	33 c5		 xor	 eax, ebp
  0000d	89 45 fc	 mov	 DWORD PTR __$ArrayPad$[ebp], eax
  00010	8b 45 0c	 mov	 eax, DWORD PTR _t$[ebp]

; 147  : 	_ENCSTR(t, _t); return ( strcmp( lhs.c_str(), _t ) == 0 );

  00013	8a 10		 mov	 dl, BYTE PTR [eax]
  00015	56		 push	 esi
  00016	57		 push	 edi
  00017	8b 7d 08	 mov	 edi, DWORD PTR _lhs$[ebp]
  0001a	84 d2		 test	 dl, dl
  0001c	0f 84 64 01 00
	00		 je	 $LN96@operator@6
  00022	80 f2 ed	 xor	 dl, -19			; ffffffedH
  00025	88 55 e8	 mov	 BYTE PTR __t$[ebp], dl
  00028	8a 50 01	 mov	 dl, BYTE PTR [eax+1]
  0002b	84 d2		 test	 dl, dl
  0002d	0f 84 4d 01 00
	00		 je	 $LN95@operator@6
  00033	80 f2 ec	 xor	 dl, -20			; ffffffecH
  00036	88 55 e9	 mov	 BYTE PTR __t$[ebp+1], dl
  00039	8a 50 02	 mov	 dl, BYTE PTR [eax+2]
  0003c	84 d2		 test	 dl, dl
  0003e	0f 84 36 01 00
	00		 je	 $LN94@operator@6
  00044	b1 eb		 mov	 cl, -21			; ffffffebH
  00046	32 d1		 xor	 dl, cl
  00048	88 55 ea	 mov	 BYTE PTR __t$[ebp+2], dl
  0004b	8a 50 03	 mov	 dl, BYTE PTR [eax+3]
  0004e	84 d2		 test	 dl, dl
  00050	0f 84 1e 01 00
	00		 je	 $LN93@operator@6
  00056	80 f2 ea	 xor	 dl, -22			; ffffffeaH
  00059	88 55 eb	 mov	 BYTE PTR __t$[ebp+3], dl
  0005c	8a 50 04	 mov	 dl, BYTE PTR [eax+4]
  0005f	84 d2		 test	 dl, dl
  00061	0f 84 07 01 00
	00		 je	 $LN92@operator@6
  00067	80 f2 ed	 xor	 dl, -19			; ffffffedH
  0006a	88 55 ec	 mov	 BYTE PTR __t$[ebp+4], dl
  0006d	8a 50 05	 mov	 dl, BYTE PTR [eax+5]
  00070	84 d2		 test	 dl, dl
  00072	0f 84 f0 00 00
	00		 je	 $LN91@operator@6
  00078	80 f2 ec	 xor	 dl, -20			; ffffffecH
  0007b	88 55 ed	 mov	 BYTE PTR __t$[ebp+5], dl
  0007e	8a 50 06	 mov	 dl, BYTE PTR [eax+6]
  00081	84 d2		 test	 dl, dl
  00083	0f 84 da 00 00
	00		 je	 $LN90@operator@6
  00089	32 d1		 xor	 dl, cl
  0008b	88 55 ee	 mov	 BYTE PTR __t$[ebp+6], dl
  0008e	8a 50 07	 mov	 dl, BYTE PTR [eax+7]
  00091	84 d2		 test	 dl, dl
  00093	0f 84 c4 00 00
	00		 je	 $LN89@operator@6
  00099	80 f2 ea	 xor	 dl, -22			; ffffffeaH
  0009c	88 55 ef	 mov	 BYTE PTR __t$[ebp+7], dl
  0009f	8a 50 08	 mov	 dl, BYTE PTR [eax+8]
  000a2	84 d2		 test	 dl, dl
  000a4	0f 84 ad 00 00
	00		 je	 $LN88@operator@6
  000aa	80 f2 ed	 xor	 dl, -19			; ffffffedH
  000ad	88 55 f0	 mov	 BYTE PTR __t$[ebp+8], dl
  000b0	8a 50 09	 mov	 dl, BYTE PTR [eax+9]
  000b3	84 d2		 test	 dl, dl
  000b5	0f 84 96 00 00
	00		 je	 $LN87@operator@6
  000bb	80 f2 ec	 xor	 dl, -20			; ffffffecH
  000be	88 55 f1	 mov	 BYTE PTR __t$[ebp+9], dl
  000c1	8a 50 0a	 mov	 dl, BYTE PTR [eax+10]
  000c4	84 d2		 test	 dl, dl
  000c6	0f 84 80 00 00
	00		 je	 $LN86@operator@6
  000cc	32 d1		 xor	 dl, cl
  000ce	88 55 f2	 mov	 BYTE PTR __t$[ebp+10], dl
  000d1	8a 50 0b	 mov	 dl, BYTE PTR [eax+11]
  000d4	84 d2		 test	 dl, dl
  000d6	74 6e		 je	 SHORT $LN85@operator@6
  000d8	80 f2 ea	 xor	 dl, -22			; ffffffeaH
  000db	88 55 f3	 mov	 BYTE PTR __t$[ebp+11], dl
  000de	8a 50 0c	 mov	 dl, BYTE PTR [eax+12]
  000e1	84 d2		 test	 dl, dl
  000e3	74 5b		 je	 SHORT $LN84@operator@6
  000e5	80 f2 ed	 xor	 dl, -19			; ffffffedH
  000e8	80 78 0d 00	 cmp	 BYTE PTR [eax+13], 0
  000ec	88 55 f4	 mov	 BYTE PTR __t$[ebp+12], dl
  000ef	0f 84 95 00 00
	00		 je	 $LN1@operator@6
  000f5	8a 50 0e	 mov	 dl, BYTE PTR [eax+14]
  000f8	84 d2		 test	 dl, dl
  000fa	74 3f		 je	 SHORT $LN82@operator@6
  000fc	32 d1		 xor	 dl, cl
  000fe	88 55 f6	 mov	 BYTE PTR __t$[ebp+14], dl
  00101	8a 50 0f	 mov	 dl, BYTE PTR [eax+15]
  00104	84 d2		 test	 dl, dl
  00106	74 2d		 je	 SHORT $LN81@operator@6
  00108	80 f2 ea	 xor	 dl, -22			; ffffffeaH
  0010b	88 55 f7	 mov	 BYTE PTR __t$[ebp+15], dl
  0010e	8a 50 10	 mov	 dl, BYTE PTR [eax+16]
  00111	84 d2		 test	 dl, dl
  00113	74 1a		 je	 SHORT $LN80@operator@6
  00115	8a 40 11	 mov	 al, BYTE PTR [eax+17]
  00118	80 f2 ed	 xor	 dl, -19			; ffffffedH
  0011b	88 55 f8	 mov	 BYTE PTR __t$[ebp+16], dl
  0011e	84 c0		 test	 al, al
  00120	74 07		 je	 SHORT $LN79@operator@6
  00122	34 ec		 xor	 al, -20			; ffffffecH
  00124	88 45 f9	 mov	 BYTE PTR __t$[ebp+17], al
  00127	eb 61		 jmp	 SHORT $LN1@operator@6
$LN79@operator@6:
  00129	c6 45 f9 ec	 mov	 BYTE PTR __t$[ebp+17], -20 ; ffffffecH
  0012d	eb 5b		 jmp	 SHORT $LN1@operator@6
$LN80@operator@6:
  0012f	c6 45 f8 ed	 mov	 BYTE PTR __t$[ebp+16], -19 ; ffffffedH
  00133	eb 55		 jmp	 SHORT $LN1@operator@6
$LN81@operator@6:
  00135	c6 45 f7 ea	 mov	 BYTE PTR __t$[ebp+15], -22 ; ffffffeaH
  00139	eb 4f		 jmp	 SHORT $LN1@operator@6
$LN82@operator@6:
  0013b	88 4d f6	 mov	 BYTE PTR __t$[ebp+14], cl
  0013e	eb 4a		 jmp	 SHORT $LN1@operator@6
$LN84@operator@6:
  00140	c6 45 f4 ed	 mov	 BYTE PTR __t$[ebp+12], -19 ; ffffffedH
  00144	eb 44		 jmp	 SHORT $LN1@operator@6
$LN85@operator@6:
  00146	c6 45 f3 ea	 mov	 BYTE PTR __t$[ebp+11], -22 ; ffffffeaH
  0014a	eb 3e		 jmp	 SHORT $LN1@operator@6
$LN86@operator@6:
  0014c	88 4d f2	 mov	 BYTE PTR __t$[ebp+10], cl
  0014f	eb 39		 jmp	 SHORT $LN1@operator@6
$LN87@operator@6:
  00151	c6 45 f1 ec	 mov	 BYTE PTR __t$[ebp+9], -20 ; ffffffecH
  00155	eb 33		 jmp	 SHORT $LN1@operator@6
$LN88@operator@6:
  00157	c6 45 f0 ed	 mov	 BYTE PTR __t$[ebp+8], -19 ; ffffffedH
  0015b	eb 2d		 jmp	 SHORT $LN1@operator@6
$LN89@operator@6:
  0015d	c6 45 ef ea	 mov	 BYTE PTR __t$[ebp+7], -22 ; ffffffeaH
  00161	eb 27		 jmp	 SHORT $LN1@operator@6
$LN90@operator@6:
  00163	88 4d ee	 mov	 BYTE PTR __t$[ebp+6], cl
  00166	eb 22		 jmp	 SHORT $LN1@operator@6
$LN91@operator@6:
  00168	c6 45 ed ec	 mov	 BYTE PTR __t$[ebp+5], -20 ; ffffffecH
  0016c	eb 1c		 jmp	 SHORT $LN1@operator@6
$LN92@operator@6:
  0016e	c6 45 ec ed	 mov	 BYTE PTR __t$[ebp+4], -19 ; ffffffedH
  00172	eb 16		 jmp	 SHORT $LN1@operator@6
$LN93@operator@6:
  00174	c6 45 eb ea	 mov	 BYTE PTR __t$[ebp+3], -22 ; ffffffeaH
  00178	eb 10		 jmp	 SHORT $LN1@operator@6
$LN94@operator@6:
  0017a	c6 45 ea eb	 mov	 BYTE PTR __t$[ebp+2], -21 ; ffffffebH
  0017e	eb 0a		 jmp	 SHORT $LN1@operator@6
$LN95@operator@6:
  00180	c6 45 e9 ec	 mov	 BYTE PTR __t$[ebp+1], -20 ; ffffffecH
  00184	eb 04		 jmp	 SHORT $LN1@operator@6
$LN96@operator@6:
  00186	c6 45 e8 ed	 mov	 BYTE PTR __t$[ebp], -19	; ffffffedH
$LN1@operator@6:
  0018a	6a 03		 push	 3
  0018c	8d 45 e8	 lea	 eax, DWORD PTR __t$[ebp]
  0018f	c6 45 f5 00	 mov	 BYTE PTR __t$[ebp+13], 0
  00193	5a		 pop	 edx
$LL104@operator@6:
  00194	81 30 ed ec eb
	ea		 xor	 DWORD PTR [eax], -353637139 ; eaebecedH
  0019a	83 c0 04	 add	 eax, 4
  0019d	4a		 dec	 edx
  0019e	75 f4		 jne	 SHORT $LL104@operator@6
  001a0	80 75 f4 ed	 xor	 BYTE PTR __t$[ebp+12], -19 ; ffffffedH
  001a4	8b cf		 mov	 ecx, edi
  001a6	8d 75 e8	 lea	 esi, DWORD PTR __t$[ebp]
  001a9	ff 15 00 00 00
	00		 call	 DWORD PTR __imp_?c_str@ioHashString@@QBEPBDXZ
$LL111@operator@6:
  001af	8a 08		 mov	 cl, BYTE PTR [eax]
  001b1	3a 0e		 cmp	 cl, BYTE PTR [esi]
  001b3	75 1a		 jne	 SHORT $LN112@operator@6
  001b5	84 c9		 test	 cl, cl
  001b7	74 12		 je	 SHORT $LN113@operator@6
  001b9	8a 48 01	 mov	 cl, BYTE PTR [eax+1]
  001bc	3a 4e 01	 cmp	 cl, BYTE PTR [esi+1]
  001bf	75 0e		 jne	 SHORT $LN112@operator@6
  001c1	83 c0 02	 add	 eax, 2
  001c4	83 c6 02	 add	 esi, 2
  001c7	84 c9		 test	 cl, cl
  001c9	75 e4		 jne	 SHORT $LL111@operator@6
$LN113@operator@6:
  001cb	33 c0		 xor	 eax, eax
  001cd	eb 05		 jmp	 SHORT $LN114@operator@6
$LN112@operator@6:
  001cf	1b c0		 sbb	 eax, eax
  001d1	83 d8 ff	 sbb	 eax, -1
$LN114@operator@6:
  001d4	33 c9		 xor	 ecx, ecx
  001d6	85 c0		 test	 eax, eax
  001d8	0f 94 c0	 sete	 al

; 148  : }

  001db	8b 4d fc	 mov	 ecx, DWORD PTR __$ArrayPad$[ebp]
  001de	5f		 pop	 edi
  001df	33 cd		 xor	 ecx, ebp
  001e1	5e		 pop	 esi
  001e2	e8 00 00 00 00	 call	 @__security_check_cookie@4
  001e7	c9		 leave
  001e8	c3		 ret	 0
??$?8$0O@@@YA_NABVioHashString@@AAY0O@$$CBD@Z ENDP	; operator==<14>
_TEXT	ENDS
PUBLIC	__$ArrayPad$
PUBLIC	??$?8$0BB@@@YA_NABVioHashString@@AAY0BB@$$CBD@Z	; operator==<17>
; Function compile flags: /Ogsp
;	COMDAT ??$?8$0BB@@@YA_NABVioHashString@@AAY0BB@$$CBD@Z
_TEXT	SEGMENT
__t$ = -28						; size = 17
__$ArrayPad$ = -4					; size = 4
_lhs$ = 8						; size = 4
_t$ = 12						; size = 4
??$?8$0BB@@@YA_NABVioHashString@@AAY0BB@$$CBD@Z PROC	; operator==<17>, COMDAT

; 146  : {

  00000	55		 push	 ebp
  00001	8b ec		 mov	 ebp, esp
  00003	83 ec 1c	 sub	 esp, 28			; 0000001cH
  00006	a1 00 00 00 00	 mov	 eax, DWORD PTR ___security_cookie
  0000b	33 c5		 xor	 eax, ebp
  0000d	89 45 fc	 mov	 DWORD PTR __$ArrayPad$[ebp], eax
  00010	8b 45 0c	 mov	 eax, DWORD PTR _t$[ebp]

; 147  : 	_ENCSTR(t, _t); return ( strcmp( lhs.c_str(), _t ) == 0 );

  00013	8a 10		 mov	 dl, BYTE PTR [eax]
  00015	56		 push	 esi
  00016	57		 push	 edi
  00017	8b 7d 08	 mov	 edi, DWORD PTR _lhs$[ebp]
  0001a	84 d2		 test	 dl, dl
  0001c	0f 84 a7 01 00
	00		 je	 $LN96@operator@7
  00022	80 f2 ed	 xor	 dl, -19			; ffffffedH
  00025	88 55 e4	 mov	 BYTE PTR __t$[ebp], dl
  00028	8a 50 01	 mov	 dl, BYTE PTR [eax+1]
  0002b	84 d2		 test	 dl, dl
  0002d	0f 84 90 01 00
	00		 je	 $LN95@operator@7
  00033	b1 ec		 mov	 cl, -20			; ffffffecH
  00035	32 d1		 xor	 dl, cl
  00037	88 55 e5	 mov	 BYTE PTR __t$[ebp+1], dl
  0003a	8a 50 02	 mov	 dl, BYTE PTR [eax+2]
  0003d	84 d2		 test	 dl, dl
  0003f	0f 84 78 01 00
	00		 je	 $LN94@operator@7
  00045	80 f2 eb	 xor	 dl, -21			; ffffffebH
  00048	88 55 e6	 mov	 BYTE PTR __t$[ebp+2], dl
  0004b	8a 50 03	 mov	 dl, BYTE PTR [eax+3]
  0004e	84 d2		 test	 dl, dl
  00050	0f 84 61 01 00
	00		 je	 $LN93@operator@7
  00056	80 f2 ea	 xor	 dl, -22			; ffffffeaH
  00059	88 55 e7	 mov	 BYTE PTR __t$[ebp+3], dl
  0005c	8a 50 04	 mov	 dl, BYTE PTR [eax+4]
  0005f	84 d2		 test	 dl, dl
  00061	0f 84 4a 01 00
	00		 je	 $LN92@operator@7
  00067	80 f2 ed	 xor	 dl, -19			; ffffffedH
  0006a	88 55 e8	 mov	 BYTE PTR __t$[ebp+4], dl
  0006d	8a 50 05	 mov	 dl, BYTE PTR [eax+5]
  00070	84 d2		 test	 dl, dl
  00072	0f 84 34 01 00
	00		 je	 $LN91@operator@7
  00078	32 d1		 xor	 dl, cl
  0007a	88 55 e9	 mov	 BYTE PTR __t$[ebp+5], dl
  0007d	8a 50 06	 mov	 dl, BYTE PTR [eax+6]
  00080	84 d2		 test	 dl, dl
  00082	0f 84 1e 01 00
	00		 je	 $LN90@operator@7
  00088	80 f2 eb	 xor	 dl, -21			; ffffffebH
  0008b	88 55 ea	 mov	 BYTE PTR __t$[ebp+6], dl
  0008e	8a 50 07	 mov	 dl, BYTE PTR [eax+7]
  00091	84 d2		 test	 dl, dl
  00093	0f 84 07 01 00
	00		 je	 $LN89@operator@7
  00099	80 f2 ea	 xor	 dl, -22			; ffffffeaH
  0009c	88 55 eb	 mov	 BYTE PTR __t$[ebp+7], dl
  0009f	8a 50 08	 mov	 dl, BYTE PTR [eax+8]
  000a2	84 d2		 test	 dl, dl
  000a4	0f 84 f0 00 00
	00		 je	 $LN88@operator@7
  000aa	80 f2 ed	 xor	 dl, -19			; ffffffedH
  000ad	88 55 ec	 mov	 BYTE PTR __t$[ebp+8], dl
  000b0	8a 50 09	 mov	 dl, BYTE PTR [eax+9]
  000b3	84 d2		 test	 dl, dl
  000b5	0f 84 da 00 00
	00		 je	 $LN87@operator@7
  000bb	32 d1		 xor	 dl, cl
  000bd	88 55 ed	 mov	 BYTE PTR __t$[ebp+9], dl
  000c0	8a 50 0a	 mov	 dl, BYTE PTR [eax+10]
  000c3	84 d2		 test	 dl, dl
  000c5	0f 84 c4 00 00
	00		 je	 $LN86@operator@7
  000cb	80 f2 eb	 xor	 dl, -21			; ffffffebH
  000ce	88 55 ee	 mov	 BYTE PTR __t$[ebp+10], dl
  000d1	8a 50 0b	 mov	 dl, BYTE PTR [eax+11]
  000d4	84 d2		 test	 dl, dl
  000d6	0f 84 ad 00 00
	00		 je	 $LN85@operator@7
  000dc	80 f2 ea	 xor	 dl, -22			; ffffffeaH
  000df	88 55 ef	 mov	 BYTE PTR __t$[ebp+11], dl
  000e2	8a 50 0c	 mov	 dl, BYTE PTR [eax+12]
  000e5	84 d2		 test	 dl, dl
  000e7	0f 84 96 00 00
	00		 je	 $LN84@operator@7
  000ed	80 f2 ed	 xor	 dl, -19			; ffffffedH
  000f0	88 55 f0	 mov	 BYTE PTR __t$[ebp+12], dl
  000f3	8a 50 0d	 mov	 dl, BYTE PTR [eax+13]
  000f6	84 d2		 test	 dl, dl
  000f8	0f 84 80 00 00
	00		 je	 $LN83@operator@7
  000fe	32 d1		 xor	 dl, cl
  00100	88 55 f1	 mov	 BYTE PTR __t$[ebp+13], dl
  00103	8a 50 0e	 mov	 dl, BYTE PTR [eax+14]
  00106	84 d2		 test	 dl, dl
  00108	74 6e		 je	 SHORT $LN82@operator@7
  0010a	80 f2 eb	 xor	 dl, -21			; ffffffebH
  0010d	88 55 f2	 mov	 BYTE PTR __t$[ebp+14], dl
  00110	8a 50 0f	 mov	 dl, BYTE PTR [eax+15]
  00113	84 d2		 test	 dl, dl
  00115	74 5b		 je	 SHORT $LN81@operator@7
  00117	80 f2 ea	 xor	 dl, -22			; ffffffeaH
  0011a	80 78 10 00	 cmp	 BYTE PTR [eax+16], 0
  0011e	88 55 f3	 mov	 BYTE PTR __t$[ebp+15], dl
  00121	0f 84 a6 00 00
	00		 je	 $LN1@operator@7
  00127	8a 50 11	 mov	 dl, BYTE PTR [eax+17]
  0012a	84 d2		 test	 dl, dl
  0012c	74 3f		 je	 SHORT $LN79@operator@7
  0012e	32 d1		 xor	 dl, cl
  00130	88 55 f5	 mov	 BYTE PTR __t$[ebp+17], dl
  00133	8a 50 12	 mov	 dl, BYTE PTR [eax+18]
  00136	84 d2		 test	 dl, dl
  00138	74 2d		 je	 SHORT $LN78@operator@7
  0013a	80 f2 eb	 xor	 dl, -21			; ffffffebH
  0013d	88 55 f6	 mov	 BYTE PTR __t$[ebp+18], dl
  00140	8a 50 13	 mov	 dl, BYTE PTR [eax+19]
  00143	84 d2		 test	 dl, dl
  00145	74 1a		 je	 SHORT $LN77@operator@7
  00147	8a 40 14	 mov	 al, BYTE PTR [eax+20]
  0014a	80 f2 ea	 xor	 dl, -22			; ffffffeaH
  0014d	88 55 f7	 mov	 BYTE PTR __t$[ebp+19], dl
  00150	84 c0		 test	 al, al
  00152	74 07		 je	 SHORT $LN76@operator@7
  00154	34 ed		 xor	 al, -19			; ffffffedH
  00156	88 45 f8	 mov	 BYTE PTR __t$[ebp+20], al
  00159	eb 72		 jmp	 SHORT $LN1@operator@7
$LN76@operator@7:
  0015b	c6 45 f8 ed	 mov	 BYTE PTR __t$[ebp+20], -19 ; ffffffedH
  0015f	eb 6c		 jmp	 SHORT $LN1@operator@7
$LN77@operator@7:
  00161	c6 45 f7 ea	 mov	 BYTE PTR __t$[ebp+19], -22 ; ffffffeaH
  00165	eb 66		 jmp	 SHORT $LN1@operator@7
$LN78@operator@7:
  00167	c6 45 f6 eb	 mov	 BYTE PTR __t$[ebp+18], -21 ; ffffffebH
  0016b	eb 60		 jmp	 SHORT $LN1@operator@7
$LN79@operator@7:
  0016d	88 4d f5	 mov	 BYTE PTR __t$[ebp+17], cl
  00170	eb 5b		 jmp	 SHORT $LN1@operator@7
$LN81@operator@7:
  00172	c6 45 f3 ea	 mov	 BYTE PTR __t$[ebp+15], -22 ; ffffffeaH
  00176	eb 55		 jmp	 SHORT $LN1@operator@7
$LN82@operator@7:
  00178	c6 45 f2 eb	 mov	 BYTE PTR __t$[ebp+14], -21 ; ffffffebH
  0017c	eb 4f		 jmp	 SHORT $LN1@operator@7
$LN83@operator@7:
  0017e	88 4d f1	 mov	 BYTE PTR __t$[ebp+13], cl
  00181	eb 4a		 jmp	 SHORT $LN1@operator@7
$LN84@operator@7:
  00183	c6 45 f0 ed	 mov	 BYTE PTR __t$[ebp+12], -19 ; ffffffedH
  00187	eb 44		 jmp	 SHORT $LN1@operator@7
$LN85@operator@7:
  00189	c6 45 ef ea	 mov	 BYTE PTR __t$[ebp+11], -22 ; ffffffeaH
  0018d	eb 3e		 jmp	 SHORT $LN1@operator@7
$LN86@operator@7:
  0018f	c6 45 ee eb	 mov	 BYTE PTR __t$[ebp+10], -21 ; ffffffebH
  00193	eb 38		 jmp	 SHORT $LN1@operator@7
$LN87@operator@7:
  00195	88 4d ed	 mov	 BYTE PTR __t$[ebp+9], cl
  00198	eb 33		 jmp	 SHORT $LN1@operator@7
$LN88@operator@7:
  0019a	c6 45 ec ed	 mov	 BYTE PTR __t$[ebp+8], -19 ; ffffffedH
  0019e	eb 2d		 jmp	 SHORT $LN1@operator@7
$LN89@operator@7:
  001a0	c6 45 eb ea	 mov	 BYTE PTR __t$[ebp+7], -22 ; ffffffeaH
  001a4	eb 27		 jmp	 SHORT $LN1@operator@7
$LN90@operator@7:
  001a6	c6 45 ea eb	 mov	 BYTE PTR __t$[ebp+6], -21 ; ffffffebH
  001aa	eb 21		 jmp	 SHORT $LN1@operator@7
$LN91@operator@7:
  001ac	88 4d e9	 mov	 BYTE PTR __t$[ebp+5], cl
  001af	eb 1c		 jmp	 SHORT $LN1@operator@7
$LN92@operator@7:
  001b1	c6 45 e8 ed	 mov	 BYTE PTR __t$[ebp+4], -19 ; ffffffedH
  001b5	eb 16		 jmp	 SHORT $LN1@operator@7
$LN93@operator@7:
  001b7	c6 45 e7 ea	 mov	 BYTE PTR __t$[ebp+3], -22 ; ffffffeaH
  001bb	eb 10		 jmp	 SHORT $LN1@operator@7
$LN94@operator@7:
  001bd	c6 45 e6 eb	 mov	 BYTE PTR __t$[ebp+2], -21 ; ffffffebH
  001c1	eb 0a		 jmp	 SHORT $LN1@operator@7
$LN95@operator@7:
  001c3	c6 45 e5 ec	 mov	 BYTE PTR __t$[ebp+1], -20 ; ffffffecH
  001c7	eb 04		 jmp	 SHORT $LN1@operator@7
$LN96@operator@7:
  001c9	c6 45 e4 ed	 mov	 BYTE PTR __t$[ebp], -19	; ffffffedH
$LN1@operator@7:
  001cd	6a 04		 push	 4
  001cf	8d 45 e4	 lea	 eax, DWORD PTR __t$[ebp]
  001d2	c6 45 f4 00	 mov	 BYTE PTR __t$[ebp+16], 0
  001d6	5a		 pop	 edx
$LL104@operator@7:
  001d7	81 30 ed ec eb
	ea		 xor	 DWORD PTR [eax], -353637139 ; eaebecedH
  001dd	83 c0 04	 add	 eax, 4
  001e0	4a		 dec	 edx
  001e1	75 f4		 jne	 SHORT $LL104@operator@7
  001e3	8b cf		 mov	 ecx, edi
  001e5	8d 75 e4	 lea	 esi, DWORD PTR __t$[ebp]
  001e8	ff 15 00 00 00
	00		 call	 DWORD PTR __imp_?c_str@ioHashString@@QBEPBDXZ
$LL111@operator@7:
  001ee	8a 08		 mov	 cl, BYTE PTR [eax]
  001f0	3a 0e		 cmp	 cl, BYTE PTR [esi]
  001f2	75 1a		 jne	 SHORT $LN112@operator@7
  001f4	84 c9		 test	 cl, cl
  001f6	74 12		 je	 SHORT $LN113@operator@7
  001f8	8a 48 01	 mov	 cl, BYTE PTR [eax+1]
  001fb	3a 4e 01	 cmp	 cl, BYTE PTR [esi+1]
  001fe	75 0e		 jne	 SHORT $LN112@operator@7
  00200	83 c0 02	 add	 eax, 2
  00203	83 c6 02	 add	 esi, 2
  00206	84 c9		 test	 cl, cl
  00208	75 e4		 jne	 SHORT $LL111@operator@7
$LN113@operator@7:
  0020a	33 c0		 xor	 eax, eax
  0020c	eb 05		 jmp	 SHORT $LN114@operator@7
$LN112@operator@7:
  0020e	1b c0		 sbb	 eax, eax
  00210	83 d8 ff	 sbb	 eax, -1
$LN114@operator@7:
  00213	33 c9		 xor	 ecx, ecx
  00215	85 c0		 test	 eax, eax
  00217	0f 94 c0	 sete	 al

; 148  : }

  0021a	8b 4d fc	 mov	 ecx, DWORD PTR __$ArrayPad$[ebp]
  0021d	5f		 pop	 edi
  0021e	33 cd		 xor	 ecx, ebp
  00220	5e		 pop	 esi
  00221	e8 00 00 00 00	 call	 @__security_check_cookie@4
  00226	c9		 leave
  00227	c3		 ret	 0
??$?8$0BB@@@YA_NABVioHashString@@AAY0BB@$$CBD@Z ENDP	; operator==<17>
_TEXT	ENDS
PUBLIC	__$ArrayPad$
PUBLIC	??$?8$0BC@@@YA_NABVioHashString@@AAY0BC@$$CBD@Z	; operator==<18>
; Function compile flags: /Ogsp
;	COMDAT ??$?8$0BC@@@YA_NABVioHashString@@AAY0BC@$$CBD@Z
_TEXT	SEGMENT
__t$ = -28						; size = 18
__$ArrayPad$ = -4					; size = 4
_lhs$ = 8						; size = 4
_t$ = 12						; size = 4
??$?8$0BC@@@YA_NABVioHashString@@AAY0BC@$$CBD@Z PROC	; operator==<18>, COMDAT

; 146  : {

  00000	55		 push	 ebp
  00001	8b ec		 mov	 ebp, esp
  00003	83 ec 1c	 sub	 esp, 28			; 0000001cH
  00006	a1 00 00 00 00	 mov	 eax, DWORD PTR ___security_cookie
  0000b	33 c5		 xor	 eax, ebp
  0000d	89 45 fc	 mov	 DWORD PTR __$ArrayPad$[ebp], eax
  00010	8b 45 0c	 mov	 eax, DWORD PTR _t$[ebp]

; 147  : 	_ENCSTR(t, _t); return ( strcmp( lhs.c_str(), _t ) == 0 );

  00013	8a 10		 mov	 dl, BYTE PTR [eax]
  00015	56		 push	 esi
  00016	57		 push	 edi
  00017	8b 7d 08	 mov	 edi, DWORD PTR _lhs$[ebp]
  0001a	84 d2		 test	 dl, dl
  0001c	0f 84 be 01 00
	00		 je	 $LN96@operator@8
  00022	80 f2 ed	 xor	 dl, -19			; ffffffedH
  00025	88 55 e4	 mov	 BYTE PTR __t$[ebp], dl
  00028	8a 50 01	 mov	 dl, BYTE PTR [eax+1]
  0002b	84 d2		 test	 dl, dl
  0002d	0f 84 a7 01 00
	00		 je	 $LN95@operator@8
  00033	80 f2 ec	 xor	 dl, -20			; ffffffecH
  00036	88 55 e5	 mov	 BYTE PTR __t$[ebp+1], dl
  00039	8a 50 02	 mov	 dl, BYTE PTR [eax+2]
  0003c	84 d2		 test	 dl, dl
  0003e	0f 84 90 01 00
	00		 je	 $LN94@operator@8
  00044	b1 eb		 mov	 cl, -21			; ffffffebH
  00046	32 d1		 xor	 dl, cl
  00048	88 55 e6	 mov	 BYTE PTR __t$[ebp+2], dl
  0004b	8a 50 03	 mov	 dl, BYTE PTR [eax+3]
  0004e	84 d2		 test	 dl, dl
  00050	0f 84 78 01 00
	00		 je	 $LN93@operator@8
  00056	80 f2 ea	 xor	 dl, -22			; ffffffeaH
  00059	88 55 e7	 mov	 BYTE PTR __t$[ebp+3], dl
  0005c	8a 50 04	 mov	 dl, BYTE PTR [eax+4]
  0005f	84 d2		 test	 dl, dl
  00061	0f 84 61 01 00
	00		 je	 $LN92@operator@8
  00067	80 f2 ed	 xor	 dl, -19			; ffffffedH
  0006a	88 55 e8	 mov	 BYTE PTR __t$[ebp+4], dl
  0006d	8a 50 05	 mov	 dl, BYTE PTR [eax+5]
  00070	84 d2		 test	 dl, dl
  00072	0f 84 4a 01 00
	00		 je	 $LN91@operator@8
  00078	80 f2 ec	 xor	 dl, -20			; ffffffecH
  0007b	88 55 e9	 mov	 BYTE PTR __t$[ebp+5], dl
  0007e	8a 50 06	 mov	 dl, BYTE PTR [eax+6]
  00081	84 d2		 test	 dl, dl
  00083	0f 84 34 01 00
	00		 je	 $LN90@operator@8
  00089	32 d1		 xor	 dl, cl
  0008b	88 55 ea	 mov	 BYTE PTR __t$[ebp+6], dl
  0008e	8a 50 07	 mov	 dl, BYTE PTR [eax+7]
  00091	84 d2		 test	 dl, dl
  00093	0f 84 1e 01 00
	00		 je	 $LN89@operator@8
  00099	80 f2 ea	 xor	 dl, -22			; ffffffeaH
  0009c	88 55 eb	 mov	 BYTE PTR __t$[ebp+7], dl
  0009f	8a 50 08	 mov	 dl, BYTE PTR [eax+8]
  000a2	84 d2		 test	 dl, dl
  000a4	0f 84 07 01 00
	00		 je	 $LN88@operator@8
  000aa	80 f2 ed	 xor	 dl, -19			; ffffffedH
  000ad	88 55 ec	 mov	 BYTE PTR __t$[ebp+8], dl
  000b0	8a 50 09	 mov	 dl, BYTE PTR [eax+9]
  000b3	84 d2		 test	 dl, dl
  000b5	0f 84 f0 00 00
	00		 je	 $LN87@operator@8
  000bb	80 f2 ec	 xor	 dl, -20			; ffffffecH
  000be	88 55 ed	 mov	 BYTE PTR __t$[ebp+9], dl
  000c1	8a 50 0a	 mov	 dl, BYTE PTR [eax+10]
  000c4	84 d2		 test	 dl, dl
  000c6	0f 84 da 00 00
	00		 je	 $LN86@operator@8
  000cc	32 d1		 xor	 dl, cl
  000ce	88 55 ee	 mov	 BYTE PTR __t$[ebp+10], dl
  000d1	8a 50 0b	 mov	 dl, BYTE PTR [eax+11]
  000d4	84 d2		 test	 dl, dl
  000d6	0f 84 c4 00 00
	00		 je	 $LN85@operator@8
  000dc	80 f2 ea	 xor	 dl, -22			; ffffffeaH
  000df	88 55 ef	 mov	 BYTE PTR __t$[ebp+11], dl
  000e2	8a 50 0c	 mov	 dl, BYTE PTR [eax+12]
  000e5	84 d2		 test	 dl, dl
  000e7	0f 84 ad 00 00
	00		 je	 $LN84@operator@8
  000ed	80 f2 ed	 xor	 dl, -19			; ffffffedH
  000f0	88 55 f0	 mov	 BYTE PTR __t$[ebp+12], dl
  000f3	8a 50 0d	 mov	 dl, BYTE PTR [eax+13]
  000f6	84 d2		 test	 dl, dl
  000f8	0f 84 96 00 00
	00		 je	 $LN83@operator@8
  000fe	80 f2 ec	 xor	 dl, -20			; ffffffecH
  00101	88 55 f1	 mov	 BYTE PTR __t$[ebp+13], dl
  00104	8a 50 0e	 mov	 dl, BYTE PTR [eax+14]
  00107	84 d2		 test	 dl, dl
  00109	0f 84 80 00 00
	00		 je	 $LN82@operator@8
  0010f	32 d1		 xor	 dl, cl
  00111	88 55 f2	 mov	 BYTE PTR __t$[ebp+14], dl
  00114	8a 50 0f	 mov	 dl, BYTE PTR [eax+15]
  00117	84 d2		 test	 dl, dl
  00119	74 6e		 je	 SHORT $LN81@operator@8
  0011b	80 f2 ea	 xor	 dl, -22			; ffffffeaH
  0011e	88 55 f3	 mov	 BYTE PTR __t$[ebp+15], dl
  00121	8a 50 10	 mov	 dl, BYTE PTR [eax+16]
  00124	84 d2		 test	 dl, dl
  00126	74 5b		 je	 SHORT $LN80@operator@8
  00128	80 f2 ed	 xor	 dl, -19			; ffffffedH
  0012b	80 78 11 00	 cmp	 BYTE PTR [eax+17], 0
  0012f	88 55 f4	 mov	 BYTE PTR __t$[ebp+16], dl
  00132	0f 84 ac 00 00
	00		 je	 $LN1@operator@8
  00138	8a 50 12	 mov	 dl, BYTE PTR [eax+18]
  0013b	84 d2		 test	 dl, dl
  0013d	74 3f		 je	 SHORT $LN78@operator@8
  0013f	32 d1		 xor	 dl, cl
  00141	88 55 f6	 mov	 BYTE PTR __t$[ebp+18], dl
  00144	8a 50 13	 mov	 dl, BYTE PTR [eax+19]
  00147	84 d2		 test	 dl, dl
  00149	74 2d		 je	 SHORT $LN77@operator@8
  0014b	80 f2 ea	 xor	 dl, -22			; ffffffeaH
  0014e	88 55 f7	 mov	 BYTE PTR __t$[ebp+19], dl
  00151	8a 50 14	 mov	 dl, BYTE PTR [eax+20]
  00154	84 d2		 test	 dl, dl
  00156	74 1a		 je	 SHORT $LN76@operator@8
  00158	8a 40 15	 mov	 al, BYTE PTR [eax+21]
  0015b	80 f2 ed	 xor	 dl, -19			; ffffffedH
  0015e	88 55 f8	 mov	 BYTE PTR __t$[ebp+20], dl
  00161	84 c0		 test	 al, al
  00163	74 07		 je	 SHORT $LN75@operator@8
  00165	34 ec		 xor	 al, -20			; ffffffecH
  00167	88 45 f9	 mov	 BYTE PTR __t$[ebp+21], al
  0016a	eb 78		 jmp	 SHORT $LN1@operator@8
$LN75@operator@8:
  0016c	c6 45 f9 ec	 mov	 BYTE PTR __t$[ebp+21], -20 ; ffffffecH
  00170	eb 72		 jmp	 SHORT $LN1@operator@8
$LN76@operator@8:
  00172	c6 45 f8 ed	 mov	 BYTE PTR __t$[ebp+20], -19 ; ffffffedH
  00176	eb 6c		 jmp	 SHORT $LN1@operator@8
$LN77@operator@8:
  00178	c6 45 f7 ea	 mov	 BYTE PTR __t$[ebp+19], -22 ; ffffffeaH
  0017c	eb 66		 jmp	 SHORT $LN1@operator@8
$LN78@operator@8:
  0017e	88 4d f6	 mov	 BYTE PTR __t$[ebp+18], cl
  00181	eb 61		 jmp	 SHORT $LN1@operator@8
$LN80@operator@8:
  00183	c6 45 f4 ed	 mov	 BYTE PTR __t$[ebp+16], -19 ; ffffffedH
  00187	eb 5b		 jmp	 SHORT $LN1@operator@8
$LN81@operator@8:
  00189	c6 45 f3 ea	 mov	 BYTE PTR __t$[ebp+15], -22 ; ffffffeaH
  0018d	eb 55		 jmp	 SHORT $LN1@operator@8
$LN82@operator@8:
  0018f	88 4d f2	 mov	 BYTE PTR __t$[ebp+14], cl
  00192	eb 50		 jmp	 SHORT $LN1@operator@8
$LN83@operator@8:
  00194	c6 45 f1 ec	 mov	 BYTE PTR __t$[ebp+13], -20 ; ffffffecH
  00198	eb 4a		 jmp	 SHORT $LN1@operator@8
$LN84@operator@8:
  0019a	c6 45 f0 ed	 mov	 BYTE PTR __t$[ebp+12], -19 ; ffffffedH
  0019e	eb 44		 jmp	 SHORT $LN1@operator@8
$LN85@operator@8:
  001a0	c6 45 ef ea	 mov	 BYTE PTR __t$[ebp+11], -22 ; ffffffeaH
  001a4	eb 3e		 jmp	 SHORT $LN1@operator@8
$LN86@operator@8:
  001a6	88 4d ee	 mov	 BYTE PTR __t$[ebp+10], cl
  001a9	eb 39		 jmp	 SHORT $LN1@operator@8
$LN87@operator@8:
  001ab	c6 45 ed ec	 mov	 BYTE PTR __t$[ebp+9], -20 ; ffffffecH
  001af	eb 33		 jmp	 SHORT $LN1@operator@8
$LN88@operator@8:
  001b1	c6 45 ec ed	 mov	 BYTE PTR __t$[ebp+8], -19 ; ffffffedH
  001b5	eb 2d		 jmp	 SHORT $LN1@operator@8
$LN89@operator@8:
  001b7	c6 45 eb ea	 mov	 BYTE PTR __t$[ebp+7], -22 ; ffffffeaH
  001bb	eb 27		 jmp	 SHORT $LN1@operator@8
$LN90@operator@8:
  001bd	88 4d ea	 mov	 BYTE PTR __t$[ebp+6], cl
  001c0	eb 22		 jmp	 SHORT $LN1@operator@8
$LN91@operator@8:
  001c2	c6 45 e9 ec	 mov	 BYTE PTR __t$[ebp+5], -20 ; ffffffecH
  001c6	eb 1c		 jmp	 SHORT $LN1@operator@8
$LN92@operator@8:
  001c8	c6 45 e8 ed	 mov	 BYTE PTR __t$[ebp+4], -19 ; ffffffedH
  001cc	eb 16		 jmp	 SHORT $LN1@operator@8
$LN93@operator@8:
  001ce	c6 45 e7 ea	 mov	 BYTE PTR __t$[ebp+3], -22 ; ffffffeaH
  001d2	eb 10		 jmp	 SHORT $LN1@operator@8
$LN94@operator@8:
  001d4	c6 45 e6 eb	 mov	 BYTE PTR __t$[ebp+2], -21 ; ffffffebH
  001d8	eb 0a		 jmp	 SHORT $LN1@operator@8
$LN95@operator@8:
  001da	c6 45 e5 ec	 mov	 BYTE PTR __t$[ebp+1], -20 ; ffffffecH
  001de	eb 04		 jmp	 SHORT $LN1@operator@8
$LN96@operator@8:
  001e0	c6 45 e4 ed	 mov	 BYTE PTR __t$[ebp], -19	; ffffffedH
$LN1@operator@8:
  001e4	6a 04		 push	 4
  001e6	8d 45 e4	 lea	 eax, DWORD PTR __t$[ebp]
  001e9	c6 45 f5 00	 mov	 BYTE PTR __t$[ebp+17], 0
  001ed	5a		 pop	 edx
$LL104@operator@8:
  001ee	81 30 ed ec eb
	ea		 xor	 DWORD PTR [eax], -353637139 ; eaebecedH
  001f4	83 c0 04	 add	 eax, 4
  001f7	4a		 dec	 edx
  001f8	75 f4		 jne	 SHORT $LL104@operator@8
  001fa	80 75 f4 ed	 xor	 BYTE PTR __t$[ebp+16], -19 ; ffffffedH
  001fe	8b cf		 mov	 ecx, edi
  00200	8d 75 e4	 lea	 esi, DWORD PTR __t$[ebp]
  00203	ff 15 00 00 00
	00		 call	 DWORD PTR __imp_?c_str@ioHashString@@QBEPBDXZ
$LL111@operator@8:
  00209	8a 08		 mov	 cl, BYTE PTR [eax]
  0020b	3a 0e		 cmp	 cl, BYTE PTR [esi]
  0020d	75 1a		 jne	 SHORT $LN112@operator@8
  0020f	84 c9		 test	 cl, cl
  00211	74 12		 je	 SHORT $LN113@operator@8
  00213	8a 48 01	 mov	 cl, BYTE PTR [eax+1]
  00216	3a 4e 01	 cmp	 cl, BYTE PTR [esi+1]
  00219	75 0e		 jne	 SHORT $LN112@operator@8
  0021b	83 c0 02	 add	 eax, 2
  0021e	83 c6 02	 add	 esi, 2
  00221	84 c9		 test	 cl, cl
  00223	75 e4		 jne	 SHORT $LL111@operator@8
$LN113@operator@8:
  00225	33 c0		 xor	 eax, eax
  00227	eb 05		 jmp	 SHORT $LN114@operator@8
$LN112@operator@8:
  00229	1b c0		 sbb	 eax, eax
  0022b	83 d8 ff	 sbb	 eax, -1
$LN114@operator@8:
  0022e	33 c9		 xor	 ecx, ecx
  00230	85 c0		 test	 eax, eax
  00232	0f 94 c0	 sete	 al

; 148  : }

  00235	8b 4d fc	 mov	 ecx, DWORD PTR __$ArrayPad$[ebp]
  00238	5f		 pop	 edi
  00239	33 cd		 xor	 ecx, ebp
  0023b	5e		 pop	 esi
  0023c	e8 00 00 00 00	 call	 @__security_check_cookie@4
  00241	c9		 leave
  00242	c3		 ret	 0
??$?8$0BC@@@YA_NABVioHashString@@AAY0BC@$$CBD@Z ENDP	; operator==<18>
_TEXT	ENDS
PUBLIC	??$_Cons_val@V?$allocator@PAVioUIRenderImage@@@std@@PAVioUIRenderImage@@PAV3@@std@@YAXAAV?$allocator@PAVioUIRenderImage@@@0@PAPAVioUIRenderImage@@$$QAPAV2@@Z ; std::_Cons_val<std::allocator<ioUIRenderImage *>,ioUIRenderImage *,ioUIRenderImage *>
; Function compile flags: /Ogsp
; File c:\program files (x86)\microsoft visual studio 10.0\vc\include\xmemory
;	COMDAT ??$_Cons_val@V?$allocator@PAVioUIRenderImage@@@std@@PAVioUIRenderImage@@PAV3@@std@@YAXAAV?$allocator@PAVioUIRenderImage@@@0@PAPAVioUIRenderImage@@$$QAPAV2@@Z
_TEXT	SEGMENT
__Alval$ = 8						; size = 4
__Pdest$ = 12						; size = 4
__Src$ = 16						; size = 4
??$_Cons_val@V?$allocator@PAVioUIRenderImage@@@std@@PAVioUIRenderImage@@PAV3@@std@@YAXAAV?$allocator@PAVioUIRenderImage@@@0@PAPAVioUIRenderImage@@$$QAPAV2@@Z PROC ; std::_Cons_val<std::allocator<ioUIRenderImage *>,ioUIRenderImage *,ioUIRenderImage *>, COMDAT

; 279  : 	{	// construct using allocator

  00000	55		 push	 ebp
  00001	8b ec		 mov	 ebp, esp

; 280  : 	_Alval.construct(_Pdest, _STD forward<_Ty2>(_Src));

  00003	8b 45 0c	 mov	 eax, DWORD PTR __Pdest$[ebp]
  00006	85 c0		 test	 eax, eax
  00008	74 07		 je	 SHORT $LN7@Cons_val
  0000a	8b 4d 10	 mov	 ecx, DWORD PTR __Src$[ebp]
  0000d	8b 09		 mov	 ecx, DWORD PTR [ecx]
  0000f	89 08		 mov	 DWORD PTR [eax], ecx
$LN7@Cons_val:

; 281  : 	}

  00011	5d		 pop	 ebp
  00012	c3		 ret	 0
??$_Cons_val@V?$allocator@PAVioUIRenderImage@@@std@@PAVioUIRenderImage@@PAV3@@std@@YAXAAV?$allocator@PAVioUIRenderImage@@@0@PAPAVioUIRenderImage@@$$QAPAV2@@Z ENDP ; std::_Cons_val<std::allocator<ioUIRenderImage *>,ioUIRenderImage *,ioUIRenderImage *>
_TEXT	ENDS
PUBLIC	??$_Cons_val@V?$allocator@PAUtagEventInfo@@@std@@PAUtagEventInfo@@AAPAU3@@std@@YAXAAV?$allocator@PAUtagEventInfo@@@0@PAPAUtagEventInfo@@AAPAU2@@Z ; std::_Cons_val<std::allocator<tagEventInfo *>,tagEventInfo *,tagEventInfo * &>
; Function compile flags: /Ogsp
;	COMDAT ??$_Cons_val@V?$allocator@PAUtagEventInfo@@@std@@PAUtagEventInfo@@AAPAU3@@std@@YAXAAV?$allocator@PAUtagEventInfo@@@0@PAPAUtagEventInfo@@AAPAU2@@Z
_TEXT	SEGMENT
__Alval$ = 8						; size = 4
__Pdest$ = 12						; size = 4
__Src$ = 16						; size = 4
??$_Cons_val@V?$allocator@PAUtagEventInfo@@@std@@PAUtagEventInfo@@AAPAU3@@std@@YAXAAV?$allocator@PAUtagEventInfo@@@0@PAPAUtagEventInfo@@AAPAU2@@Z PROC ; std::_Cons_val<std::allocator<tagEventInfo *>,tagEventInfo *,tagEventInfo * &>, COMDAT

; 279  : 	{	// construct using allocator

  00000	55		 push	 ebp
  00001	8b ec		 mov	 ebp, esp

; 280  : 	_Alval.construct(_Pdest, _STD forward<_Ty2>(_Src));

  00003	8b 45 0c	 mov	 eax, DWORD PTR __Pdest$[ebp]
  00006	85 c0		 test	 eax, eax
  00008	74 07		 je	 SHORT $LN7@Cons_val@2
  0000a	8b 4d 10	 mov	 ecx, DWORD PTR __Src$[ebp]
  0000d	8b 09		 mov	 ecx, DWORD PTR [ecx]
  0000f	89 08		 mov	 DWORD PTR [eax], ecx
$LN7@Cons_val@2:

; 281  : 	}

  00011	5d		 pop	 ebp
  00012	c3		 ret	 0
??$_Cons_val@V?$allocator@PAUtagEventInfo@@@std@@PAUtagEventInfo@@AAPAU3@@std@@YAXAAV?$allocator@PAUtagEventInfo@@@0@PAPAUtagEventInfo@@AAPAU2@@Z ENDP ; std::_Cons_val<std::allocator<tagEventInfo *>,tagEventInfo *,tagEventInfo * &>
_TEXT	ENDS
PUBLIC	??$_Move@PAPAUtagEventInfo@@PAPAU1@@std@@YAPAPAUtagEventInfo@@PAPAU1@00@Z ; std::_Move<tagEventInfo * *,tagEventInfo * *>
; Function compile flags: /Ogsp
; File c:\program files (x86)\microsoft visual studio 10.0\vc\include\xutility
;	COMDAT ??$_Move@PAPAUtagEventInfo@@PAPAU1@@std@@YAPAPAUtagEventInfo@@PAPAU1@00@Z
_TEXT	SEGMENT
__Cat$521686 = -4					; size = 1
__First$ = 8						; size = 4
__Last$ = 12						; size = 4
__Dest$ = 16						; size = 4
??$_Move@PAPAUtagEventInfo@@PAPAU1@@std@@YAPAPAUtagEventInfo@@PAPAU1@00@Z PROC ; std::_Move<tagEventInfo * *,tagEventInfo * *>, COMDAT

; 2533 : 	{	// move [_First, _Last) to [_Dest, ...), unchecked

  00000	55		 push	 ebp
  00001	8b ec		 mov	 ebp, esp
  00003	51		 push	 ecx

; 2534 : 	return (_Move(_First, _Last,
; 2535 : 		_Dest, _Ptr_cat(_First, _Dest)));

  00004	ff 75 fc	 push	 DWORD PTR __Cat$521686[ebp]
  00007	ff 75 10	 push	 DWORD PTR __Dest$[ebp]
  0000a	ff 75 0c	 push	 DWORD PTR __Last$[ebp]
  0000d	ff 75 08	 push	 DWORD PTR __First$[ebp]
  00010	e8 00 00 00 00	 call	 ??$_Move@PAPAUtagEventInfo@@PAPAU1@@std@@YAPAPAUtagEventInfo@@PAPAU1@00U_Scalar_ptr_iterator_tag@0@@Z ; std::_Move<tagEventInfo * *,tagEventInfo * *>
  00015	83 c4 10	 add	 esp, 16			; 00000010H

; 2536 : 	}

  00018	c9		 leave
  00019	c3		 ret	 0
??$_Move@PAPAUtagEventInfo@@PAPAU1@@std@@YAPAPAUtagEventInfo@@PAPAU1@00@Z ENDP ; std::_Move<tagEventInfo * *,tagEventInfo * *>
_TEXT	ENDS
PUBLIC	??$_Move@PAPAVioUIRenderImage@@PAPAV1@@std@@YAPAPAVioUIRenderImage@@PAPAV1@00@Z ; std::_Move<ioUIRenderImage * *,ioUIRenderImage * *>
; Function compile flags: /Ogsp
;	COMDAT ??$_Move@PAPAVioUIRenderImage@@PAPAV1@@std@@YAPAPAVioUIRenderImage@@PAPAV1@00@Z
_TEXT	SEGMENT
__Cat$521693 = -4					; size = 1
__First$ = 8						; size = 4
__Last$ = 12						; size = 4
__Dest$ = 16						; size = 4
??$_Move@PAPAVioUIRenderImage@@PAPAV1@@std@@YAPAPAVioUIRenderImage@@PAPAV1@00@Z PROC ; std::_Move<ioUIRenderImage * *,ioUIRenderImage * *>, COMDAT

; 2533 : 	{	// move [_First, _Last) to [_Dest, ...), unchecked

  00000	55		 push	 ebp
  00001	8b ec		 mov	 ebp, esp
  00003	51		 push	 ecx

; 2534 : 	return (_Move(_First, _Last,
; 2535 : 		_Dest, _Ptr_cat(_First, _Dest)));

  00004	ff 75 fc	 push	 DWORD PTR __Cat$521693[ebp]
  00007	ff 75 10	 push	 DWORD PTR __Dest$[ebp]
  0000a	ff 75 0c	 push	 DWORD PTR __Last$[ebp]
  0000d	ff 75 08	 push	 DWORD PTR __First$[ebp]
  00010	e8 00 00 00 00	 call	 ??$_Move@PAPAVioUIRenderImage@@PAPAV1@@std@@YAPAPAVioUIRenderImage@@PAPAV1@00U_Scalar_ptr_iterator_tag@0@@Z ; std::_Move<ioUIRenderImage * *,ioUIRenderImage * *>
  00015	83 c4 10	 add	 esp, 16			; 00000010H

; 2536 : 	}

  00018	c9		 leave
  00019	c3		 ret	 0
??$_Move@PAPAVioUIRenderImage@@PAPAV1@@std@@YAPAPAVioUIRenderImage@@PAPAV1@00@Z ENDP ; std::_Move<ioUIRenderImage * *,ioUIRenderImage * *>
_TEXT	ENDS
PUBLIC	??$_Destroy_range@V?$allocator@PAUtagEventInfo@@@std@@@std@@YAXPAPAUtagEventInfo@@0AAV?$allocator@PAUtagEventInfo@@@0@@Z ; std::_Destroy_range<std::allocator<tagEventInfo *> >
; Function compile flags: /Ogsp
; File c:\program files (x86)\microsoft visual studio 10.0\vc\include\xmemory
;	COMDAT ??$_Destroy_range@V?$allocator@PAUtagEventInfo@@@std@@@std@@YAXPAPAUtagEventInfo@@0AAV?$allocator@PAUtagEventInfo@@@0@@Z
_TEXT	SEGMENT
__First$ = 8						; size = 4
__Last$ = 12						; size = 4
__Al$ = 16						; size = 4
??$_Destroy_range@V?$allocator@PAUtagEventInfo@@@std@@@std@@YAXPAPAUtagEventInfo@@0AAV?$allocator@PAUtagEventInfo@@@0@@Z PROC ; std::_Destroy_range<std::allocator<tagEventInfo *> >, COMDAT

; 88   : 	_Destroy_range(_First, _Last, _Al, _Ptr_cat(_First, _Last));
; 89   : 	}

  00000	c3		 ret	 0
??$_Destroy_range@V?$allocator@PAUtagEventInfo@@@std@@@std@@YAXPAPAUtagEventInfo@@0AAV?$allocator@PAUtagEventInfo@@@0@@Z ENDP ; std::_Destroy_range<std::allocator<tagEventInfo *> >
_TEXT	ENDS
PUBLIC	??$_Destroy_range@V?$allocator@PAVioUIRenderImage@@@std@@@std@@YAXPAPAVioUIRenderImage@@0AAV?$allocator@PAVioUIRenderImage@@@0@@Z ; std::_Destroy_range<std::allocator<ioUIRenderImage *> >
; Function compile flags: /Ogsp
;	COMDAT ??$_Destroy_range@V?$allocator@PAVioUIRenderImage@@@std@@@std@@YAXPAPAVioUIRenderImage@@0AAV?$allocator@PAVioUIRenderImage@@@0@@Z
_TEXT	SEGMENT
__First$ = 8						; size = 4
__Last$ = 12						; size = 4
__Al$ = 16						; size = 4
??$_Destroy_range@V?$allocator@PAVioUIRenderImage@@@std@@@std@@YAXPAPAVioUIRenderImage@@0AAV?$allocator@PAVioUIRenderImage@@@0@@Z PROC ; std::_Destroy_range<std::allocator<ioUIRenderImage *> >, COMDAT

; 88   : 	_Destroy_range(_First, _Last, _Al, _Ptr_cat(_First, _Last));
; 89   : 	}

  00000	c3		 ret	 0
??$_Destroy_range@V?$allocator@PAVioUIRenderImage@@@std@@@std@@YAXPAPAVioUIRenderImage@@0AAV?$allocator@PAVioUIRenderImage@@@0@@Z ENDP ; std::_Destroy_range<std::allocator<ioUIRenderImage *> >
_TEXT	ENDS
PUBLIC	?construct@?$allocator@H@std@@QAEXPAH$$QAH@Z	; std::allocator<int>::construct
; Function compile flags: /Ogsp
;	COMDAT ?construct@?$allocator@H@std@@QAEXPAH$$QAH@Z
_TEXT	SEGMENT
__Ptr$ = 8						; size = 4
__Val$ = 12						; size = 4
?construct@?$allocator@H@std@@QAEXPAH$$QAH@Z PROC	; std::allocator<int>::construct, COMDAT
; _this$ = ecx

; 201  : 		{	// construct object at _Ptr with value _Val

  00000	55		 push	 ebp
  00001	8b ec		 mov	 ebp, esp

; 202  : 		::new ((void _FARQ *)_Ptr) _Ty(_STD forward<_Ty>(_Val));

  00003	8b 45 08	 mov	 eax, DWORD PTR __Ptr$[ebp]
  00006	85 c0		 test	 eax, eax
  00008	74 07		 je	 SHORT $LN3@construct@3
  0000a	8b 4d 0c	 mov	 ecx, DWORD PTR __Val$[ebp]
  0000d	8b 09		 mov	 ecx, DWORD PTR [ecx]
  0000f	89 08		 mov	 DWORD PTR [eax], ecx
$LN3@construct@3:

; 203  : 		}

  00011	5d		 pop	 ebp
  00012	c2 08 00	 ret	 8
?construct@?$allocator@H@std@@QAEXPAH$$QAH@Z ENDP	; std::allocator<int>::construct
_TEXT	ENDS
PUBLIC	?construct@?$allocator@PAUtagEventInfo@@@std@@QAEXPAPAUtagEventInfo@@ABQAU3@@Z ; std::allocator<tagEventInfo *>::construct
; Function compile flags: /Ogsp
;	COMDAT ?construct@?$allocator@PAUtagEventInfo@@@std@@QAEXPAPAUtagEventInfo@@ABQAU3@@Z
_TEXT	SEGMENT
__Ptr$ = 8						; size = 4
__Val$ = 12						; size = 4
?construct@?$allocator@PAUtagEventInfo@@@std@@QAEXPAPAUtagEventInfo@@ABQAU3@@Z PROC ; std::allocator<tagEventInfo *>::construct, COMDAT
; _this$ = ecx

; 196  : 		{	// construct object at _Ptr with value _Val

  00000	55		 push	 ebp
  00001	8b ec		 mov	 ebp, esp

; 197  : 		_Construct(_Ptr, _Val);

  00003	8b 45 08	 mov	 eax, DWORD PTR __Ptr$[ebp]
  00006	85 c0		 test	 eax, eax
  00008	74 07		 je	 SHORT $LN5@construct@4
  0000a	8b 4d 0c	 mov	 ecx, DWORD PTR __Val$[ebp]
  0000d	8b 09		 mov	 ecx, DWORD PTR [ecx]
  0000f	89 08		 mov	 DWORD PTR [eax], ecx
$LN5@construct@4:

; 198  : 		}

  00011	5d		 pop	 ebp
  00012	c2 08 00	 ret	 8
?construct@?$allocator@PAUtagEventInfo@@@std@@QAEXPAPAUtagEventInfo@@ABQAU3@@Z ENDP ; std::allocator<tagEventInfo *>::construct
_TEXT	ENDS
PUBLIC	??$_Uninitialized_move@PAPAUtagEventInfo@@PAPAU1@V?$allocator@PAUtagEventInfo@@@std@@@std@@YAPAPAUtagEventInfo@@PAPAU1@00AAV?$allocator@PAUtagEventInfo@@@0@@Z ; std::_Uninitialized_move<tagEventInfo * *,tagEventInfo * *,std::allocator<tagEventInfo *> >
; Function compile flags: /Ogsp
; File c:\program files (x86)\microsoft visual studio 10.0\vc\include\memory
;	COMDAT ??$_Uninitialized_move@PAPAUtagEventInfo@@PAPAU1@V?$allocator@PAUtagEventInfo@@@std@@@std@@YAPAPAUtagEventInfo@@PAPAU1@00AAV?$allocator@PAUtagEventInfo@@@0@@Z
_TEXT	SEGMENT
__First$ = 8						; size = 4
__Last$ = 12						; size = 4
__Dest$ = 16						; size = 4
__Al$ = 20						; size = 4
??$_Uninitialized_move@PAPAUtagEventInfo@@PAPAU1@V?$allocator@PAUtagEventInfo@@@std@@@std@@YAPAPAUtagEventInfo@@PAPAU1@00AAV?$allocator@PAUtagEventInfo@@@0@@Z PROC ; std::_Uninitialized_move<tagEventInfo * *,tagEventInfo * *,std::allocator<tagEventInfo *> >, COMDAT

; 469  : 	{	// move [_First, _Last) to raw _Dest, using _Al

  00000	55		 push	 ebp
  00001	8b ec		 mov	 ebp, esp
  00003	56		 push	 esi

; 470  : 	return (_Uninit_move(_First, _Last, _Dest, _Al,
; 471  : 		_Val_type(_First), _Ptr_cat(_First, _Dest)));

  00004	8b 75 0c	 mov	 esi, DWORD PTR __Last$[ebp]
  00007	2b 75 08	 sub	 esi, DWORD PTR __First$[ebp]
  0000a	c1 fe 02	 sar	 esi, 2
  0000d	c1 e6 02	 shl	 esi, 2
  00010	56		 push	 esi
  00011	ff 75 08	 push	 DWORD PTR __First$[ebp]
  00014	ff 75 10	 push	 DWORD PTR __Dest$[ebp]
  00017	ff 15 00 00 00
	00		 call	 DWORD PTR __imp__memmove
  0001d	83 c4 0c	 add	 esp, 12			; 0000000cH
  00020	03 c6		 add	 eax, esi
  00022	5e		 pop	 esi

; 472  : 	}

  00023	5d		 pop	 ebp
  00024	c3		 ret	 0
??$_Uninitialized_move@PAPAUtagEventInfo@@PAPAU1@V?$allocator@PAUtagEventInfo@@@std@@@std@@YAPAPAUtagEventInfo@@PAPAU1@00AAV?$allocator@PAUtagEventInfo@@@0@@Z ENDP ; std::_Uninitialized_move<tagEventInfo * *,tagEventInfo * *,std::allocator<tagEventInfo *> >
_TEXT	ENDS
PUBLIC	??$_Uninitialized_move@PAPAVioUIRenderImage@@PAPAV1@V?$allocator@PAVioUIRenderImage@@@std@@@std@@YAPAPAVioUIRenderImage@@PAPAV1@00AAV?$allocator@PAVioUIRenderImage@@@0@@Z ; std::_Uninitialized_move<ioUIRenderImage * *,ioUIRenderImage * *,std::allocator<ioUIRenderImage *> >
; Function compile flags: /Ogsp
;	COMDAT ??$_Uninitialized_move@PAPAVioUIRenderImage@@PAPAV1@V?$allocator@PAVioUIRenderImage@@@std@@@std@@YAPAPAVioUIRenderImage@@PAPAV1@00AAV?$allocator@PAVioUIRenderImage@@@0@@Z
_TEXT	SEGMENT
__First$ = 8						; size = 4
__Last$ = 12						; size = 4
__Dest$ = 16						; size = 4
__Al$ = 20						; size = 4
??$_Uninitialized_move@PAPAVioUIRenderImage@@PAPAV1@V?$allocator@PAVioUIRenderImage@@@std@@@std@@YAPAPAVioUIRenderImage@@PAPAV1@00AAV?$allocator@PAVioUIRenderImage@@@0@@Z PROC ; std::_Uninitialized_move<ioUIRenderImage * *,ioUIRenderImage * *,std::allocator<ioUIRenderImage *> >, COMDAT

; 469  : 	{	// move [_First, _Last) to raw _Dest, using _Al

  00000	55		 push	 ebp
  00001	8b ec		 mov	 ebp, esp
  00003	56		 push	 esi

; 470  : 	return (_Uninit_move(_First, _Last, _Dest, _Al,
; 471  : 		_Val_type(_First), _Ptr_cat(_First, _Dest)));

  00004	8b 75 0c	 mov	 esi, DWORD PTR __Last$[ebp]
  00007	2b 75 08	 sub	 esi, DWORD PTR __First$[ebp]
  0000a	c1 fe 02	 sar	 esi, 2
  0000d	c1 e6 02	 shl	 esi, 2
  00010	56		 push	 esi
  00011	ff 75 08	 push	 DWORD PTR __First$[ebp]
  00014	ff 75 10	 push	 DWORD PTR __Dest$[ebp]
  00017	ff 15 00 00 00
	00		 call	 DWORD PTR __imp__memmove
  0001d	83 c4 0c	 add	 esp, 12			; 0000000cH
  00020	03 c6		 add	 eax, esi
  00022	5e		 pop	 esi

; 472  : 	}

  00023	5d		 pop	 ebp
  00024	c3		 ret	 0
??$_Uninitialized_move@PAPAVioUIRenderImage@@PAPAV1@V?$allocator@PAVioUIRenderImage@@@std@@@std@@YAPAPAVioUIRenderImage@@PAPAV1@00AAV?$allocator@PAVioUIRenderImage@@@0@@Z ENDP ; std::_Uninitialized_move<ioUIRenderImage * *,ioUIRenderImage * *,std::allocator<ioUIRenderImage *> >
_TEXT	ENDS
PUBLIC	?StringCbPrintfA@@YAJPADIPBDZZ			; StringCbPrintfA
; Function compile flags: /Ogsp
; File c:\program files (x86)\microsoft sdks\windows\v7.0a\include\strsafe.h
;	COMDAT ?StringCbPrintfA@@YAJPADIPBDZZ
_TEXT	SEGMENT
_pszDest$ = 8						; size = 4
_cbDest$ = 12						; size = 4
_pszFormat$ = 16					; size = 4
?StringCbPrintfA@@YAJPADIPBDZZ PROC			; StringCbPrintfA, COMDAT

; 4767 : {

  00000	55		 push	 ebp
  00001	8b ec		 mov	 ebp, esp

; 4768 :     HRESULT hr;
; 4769 :     size_t cchDest = cbDest / sizeof(char);
; 4770 : 
; 4771 :     hr = StringValidateDestA(pszDest, cchDest, STRSAFE_MAX_CCH);

  00003	8b 4d 0c	 mov	 ecx, DWORD PTR _cbDest$[ebp]
  00006	33 c0		 xor	 eax, eax
  00008	85 c9		 test	 ecx, ecx
  0000a	74 08		 je	 SHORT $LN4@StringCbPr
  0000c	81 f9 ff ff ff
	7f		 cmp	 ecx, 2147483647		; 7fffffffH
  00012	76 05		 jbe	 SHORT $LN5@StringCbPr
$LN4@StringCbPr:
  00014	b8 57 00 07 80	 mov	 eax, -2147024809	; 80070057H
$LN5@StringCbPr:

; 4772 :     
; 4773 :     if (SUCCEEDED(hr))

  00019	85 c0		 test	 eax, eax
  0001b	78 39		 js	 SHORT $LN1@StringCbPr

; 4774 :     {
; 4775 :         va_list argList;
; 4776 : 
; 4777 :         va_start(argList, pszFormat);
; 4778 : 
; 4779 :         hr = StringVPrintfWorkerA(pszDest,
; 4780 :                                   cchDest,
; 4781 :                                   NULL,
; 4782 :                                   pszFormat,
; 4783 :                                   argList);

  0001d	53		 push	 ebx
  0001e	56		 push	 esi
  0001f	57		 push	 edi
  00020	8b 7d 08	 mov	 edi, DWORD PTR _pszDest$[ebp]
  00023	8d 45 14	 lea	 eax, DWORD PTR _pszFormat$[ebp+4]
  00026	50		 push	 eax
  00027	ff 75 10	 push	 DWORD PTR _pszFormat$[ebp]
  0002a	8d 71 ff	 lea	 esi, DWORD PTR [ecx-1]
  0002d	56		 push	 esi
  0002e	57		 push	 edi
  0002f	33 db		 xor	 ebx, ebx
  00031	ff 15 00 00 00
	00		 call	 DWORD PTR __imp___vsnprintf
  00037	83 c4 10	 add	 esp, 16			; 00000010H
  0003a	85 c0		 test	 eax, eax
  0003c	78 0b		 js	 SHORT $LN12@StringCbPr
  0003e	3b c6		 cmp	 eax, esi
  00040	77 07		 ja	 SHORT $LN12@StringCbPr
  00042	75 0d		 jne	 SHORT $LN9@StringCbPr
  00044	88 1c 3e	 mov	 BYTE PTR [esi+edi], bl
  00047	eb 08		 jmp	 SHORT $LN9@StringCbPr
$LN12@StringCbPr:
  00049	88 1c 3e	 mov	 BYTE PTR [esi+edi], bl
  0004c	bb 7a 00 07 80	 mov	 ebx, -2147024774	; 8007007aH
$LN9@StringCbPr:
  00051	5f		 pop	 edi
  00052	5e		 pop	 esi
  00053	8b c3		 mov	 eax, ebx
  00055	5b		 pop	 ebx
$LN1@StringCbPr:

; 4784 : 
; 4785 :         va_end(argList);
; 4786 :     }
; 4787 : 
; 4788 :     return hr;
; 4789 : }

  00056	5d		 pop	 ebp
  00057	c3		 ret	 0
?StringCbPrintfA@@YAJPADIPBDZZ ENDP			; StringCbPrintfA
_TEXT	ENDS
PUBLIC	?MaxClassPrice@ioClassPrice@@QAEHXZ		; ioClassPrice::MaxClassPrice
; Function compile flags: /Ogsp
; File d:\lost saga for developer\youtube\tutorial\source\src\lsclient\ioclassprice.h
;	COMDAT ?MaxClassPrice@ioClassPrice@@QAEHXZ
_TEXT	SEGMENT
?MaxClassPrice@ioClassPrice@@QAEHXZ PROC		; ioClassPrice::MaxClassPrice, COMDAT
; _this$ = ecx

; 114  : 	int MaxClassPrice(){ return m_vPriceData.size(); }

  00000	8b 41 08	 mov	 eax, DWORD PTR [ecx+8]
  00003	2b 41 04	 sub	 eax, DWORD PTR [ecx+4]
  00006	c1 f8 02	 sar	 eax, 2
  00009	c3		 ret	 0
?MaxClassPrice@ioClassPrice@@QAEHXZ ENDP		; ioClassPrice::MaxClassPrice
_TEXT	ENDS
PUBLIC	?begin@?$vector@HV?$allocator@H@std@@@std@@QAE?AV?$_Vector_iterator@V?$_Vector_val@HV?$allocator@H@std@@@std@@@2@XZ ; std::vector<int,std::allocator<int> >::begin
; Function compile flags: /Ogsp
; File c:\program files (x86)\microsoft visual studio 10.0\vc\include\vector
;	COMDAT ?begin@?$vector@HV?$allocator@H@std@@@std@@QAE?AV?$_Vector_iterator@V?$_Vector_val@HV?$allocator@H@std@@@std@@@2@XZ
_TEXT	SEGMENT
___$ReturnUdt$ = 8					; size = 4
?begin@?$vector@HV?$allocator@H@std@@@std@@QAE?AV?$_Vector_iterator@V?$_Vector_val@HV?$allocator@H@std@@@std@@@2@XZ PROC ; std::vector<int,std::allocator<int> >::begin, COMDAT
; _this$ = ecx

; 781  : 		{	// return iterator for beginning of mutable sequence

  00000	55		 push	 ebp
  00001	8b ec		 mov	 ebp, esp

; 782  : 		return (iterator(this->_Myfirst, this));

  00003	8b 09		 mov	 ecx, DWORD PTR [ecx]
  00005	8b 45 08	 mov	 eax, DWORD PTR ___$ReturnUdt$[ebp]
  00008	89 08		 mov	 DWORD PTR [eax], ecx

; 783  : 		}

  0000a	5d		 pop	 ebp
  0000b	c2 04 00	 ret	 4
?begin@?$vector@HV?$allocator@H@std@@@std@@QAE?AV?$_Vector_iterator@V?$_Vector_val@HV?$allocator@H@std@@@std@@@2@XZ ENDP ; std::vector<int,std::allocator<int> >::begin
_TEXT	ENDS
PUBLIC	?end@?$vector@HV?$allocator@H@std@@@std@@QAE?AV?$_Vector_iterator@V?$_Vector_val@HV?$allocator@H@std@@@std@@@2@XZ ; std::vector<int,std::allocator<int> >::end
; Function compile flags: /Ogsp
;	COMDAT ?end@?$vector@HV?$allocator@H@std@@@std@@QAE?AV?$_Vector_iterator@V?$_Vector_val@HV?$allocator@H@std@@@std@@@2@XZ
_TEXT	SEGMENT
___$ReturnUdt$ = 8					; size = 4
?end@?$vector@HV?$allocator@H@std@@@std@@QAE?AV?$_Vector_iterator@V?$_Vector_val@HV?$allocator@H@std@@@std@@@2@XZ PROC ; std::vector<int,std::allocator<int> >::end, COMDAT
; _this$ = ecx

; 791  : 		{	// return iterator for end of mutable sequence

  00000	55		 push	 ebp
  00001	8b ec		 mov	 ebp, esp

; 792  : 		return (iterator(this->_Mylast, this));

  00003	8b 49 04	 mov	 ecx, DWORD PTR [ecx+4]
  00006	8b 45 08	 mov	 eax, DWORD PTR ___$ReturnUdt$[ebp]
  00009	89 08		 mov	 DWORD PTR [eax], ecx

; 793  : 		}

  0000b	5d		 pop	 ebp
  0000c	c2 04 00	 ret	 4
?end@?$vector@HV?$allocator@H@std@@@std@@QAE?AV?$_Vector_iterator@V?$_Vector_val@HV?$allocator@H@std@@@std@@@2@XZ ENDP ; std::vector<int,std::allocator<int> >::end
_TEXT	ENDS
PUBLIC	??0?$_Vector_val@HV?$allocator@H@std@@@std@@QAE@V?$allocator@H@1@@Z ; std::_Vector_val<int,std::allocator<int> >::_Vector_val<int,std::allocator<int> >
; Function compile flags: /Ogsp
;	COMDAT ??0?$_Vector_val@HV?$allocator@H@std@@@std@@QAE@V?$allocator@H@1@@Z
_TEXT	SEGMENT
__Al$ = 8						; size = 1
??0?$_Vector_val@HV?$allocator@H@std@@@std@@QAE@V?$allocator@H@1@@Z PROC ; std::_Vector_val<int,std::allocator<int> >::_Vector_val<int,std::allocator<int> >, COMDAT
; _this$ = ecx

; 426  : 		{	// construct allocator from _Al

  00000	8b c1		 mov	 eax, ecx

; 427  : 		_Myfirst = 0;

  00002	33 c9		 xor	 ecx, ecx
  00004	89 08		 mov	 DWORD PTR [eax], ecx

; 428  : 		_Mylast = 0;

  00006	89 48 04	 mov	 DWORD PTR [eax+4], ecx

; 429  : 		_Myend = 0;

  00009	89 48 08	 mov	 DWORD PTR [eax+8], ecx

; 430  : 		}

  0000c	c2 04 00	 ret	 4
??0?$_Vector_val@HV?$allocator@H@std@@@std@@QAE@V?$allocator@H@1@@Z ENDP ; std::_Vector_val<int,std::allocator<int> >::_Vector_val<int,std::allocator<int> >
_TEXT	ENDS
PUBLIC	?max_size@?$vector@HV?$allocator@H@std@@@std@@QBEIXZ ; std::vector<int,std::allocator<int> >::max_size
; Function compile flags: /Ogsp
;	COMDAT ?max_size@?$vector@HV?$allocator@H@std@@@std@@QBEIXZ
_TEXT	SEGMENT
?max_size@?$vector@HV?$allocator@H@std@@@std@@QBEIXZ PROC ; std::vector<int,std::allocator<int> >::max_size, COMDAT
; _this$ = ecx

; 884  : 		return (this->_Alval.max_size());

  00000	b8 ff ff ff 3f	 mov	 eax, 1073741823		; 3fffffffH

; 885  : 		}

  00005	c3		 ret	 0
?max_size@?$vector@HV?$allocator@H@std@@@std@@QBEIXZ ENDP ; std::vector<int,std::allocator<int> >::max_size
_TEXT	ENDS
PUBLIC	?_Grow_to@?$vector@HV?$allocator@H@std@@@std@@IBEII@Z ; std::vector<int,std::allocator<int> >::_Grow_to
; Function compile flags: /Ogsp
;	COMDAT ?_Grow_to@?$vector@HV?$allocator@H@std@@@std@@IBEII@Z
_TEXT	SEGMENT
__Count$ = 8						; size = 4
?_Grow_to@?$vector@HV?$allocator@H@std@@@std@@IBEII@Z PROC ; std::vector<int,std::allocator<int> >::_Grow_to, COMDAT
; _this$ = ecx

; 1274 : 		{	// grow by 50% or at least to _Count

  00000	55		 push	 ebp
  00001	8b ec		 mov	 ebp, esp

; 1275 : 		size_type _Capacity = capacity();

  00003	8b 41 08	 mov	 eax, DWORD PTR [ecx+8]
  00006	2b 01		 sub	 eax, DWORD PTR [ecx]

; 1276 : 
; 1277 : 		_Capacity = max_size() - _Capacity / 2 < _Capacity
; 1278 : 			? 0 : _Capacity + _Capacity / 2;	// try to grow by 50%

  00008	ba ff ff ff 3f	 mov	 edx, 1073741823		; 3fffffffH
  0000d	c1 f8 02	 sar	 eax, 2
  00010	8b c8		 mov	 ecx, eax
  00012	d1 e9		 shr	 ecx, 1
  00014	2b d1		 sub	 edx, ecx
  00016	3b d0		 cmp	 edx, eax
  00018	73 04		 jae	 SHORT $LN4@Grow_to@3
  0001a	33 c0		 xor	 eax, eax
  0001c	eb 02		 jmp	 SHORT $LN5@Grow_to@3
$LN4@Grow_to@3:
  0001e	03 c1		 add	 eax, ecx
$LN5@Grow_to@3:

; 1279 : 		if (_Capacity < _Count)

  00020	3b 45 08	 cmp	 eax, DWORD PTR __Count$[ebp]

; 1280 : 			_Capacity = _Count;

  00023	0f 42 45 08	 cmovb	 eax, DWORD PTR __Count$[ebp]

; 1281 : 		return (_Capacity);
; 1282 : 		}

  00027	5d		 pop	 ebp
  00028	c2 04 00	 ret	 4
?_Grow_to@?$vector@HV?$allocator@H@std@@@std@@IBEII@Z ENDP ; std::vector<int,std::allocator<int> >::_Grow_to
_TEXT	ENDS
PUBLIC	?allocate@?$allocator@H@std@@QAEPAHI@Z		; std::allocator<int>::allocate
; Function compile flags: /Ogsp
; File c:\program files (x86)\microsoft visual studio 10.0\vc\include\xmemory
;	COMDAT ?allocate@?$allocator@H@std@@QAEPAHI@Z
_TEXT	SEGMENT
__Count$ = 8						; size = 4
?allocate@?$allocator@H@std@@QAEPAHI@Z PROC		; std::allocator<int>::allocate, COMDAT
; _this$ = ecx

; 186  : 		{	// allocate array of _Count elements

  00000	55		 push	 ebp
  00001	8b ec		 mov	 ebp, esp

; 187  : 		return (_Allocate(_Count, (pointer)0));

  00003	6a 00		 push	 0
  00005	ff 75 08	 push	 DWORD PTR __Count$[ebp]
  00008	e8 00 00 00 00	 call	 ??$_Allocate@H@std@@YAPAHIPAH@Z ; std::_Allocate<int>
  0000d	59		 pop	 ecx
  0000e	59		 pop	 ecx

; 188  : 		}

  0000f	5d		 pop	 ebp
  00010	c2 04 00	 ret	 4
?allocate@?$allocator@H@std@@QAEPAHI@Z ENDP		; std::allocator<int>::allocate
_TEXT	ENDS
PUBLIC	??8?$_Vector_const_iterator@V?$_Vector_val@HV?$allocator@H@std@@@std@@@std@@QBE_NABV01@@Z ; std::_Vector_const_iterator<std::_Vector_val<int,std::allocator<int> > >::operator==
; Function compile flags: /Ogsp
; File c:\program files (x86)\microsoft visual studio 10.0\vc\include\vector
;	COMDAT ??8?$_Vector_const_iterator@V?$_Vector_val@HV?$allocator@H@std@@@std@@@std@@QBE_NABV01@@Z
_TEXT	SEGMENT
__Right$ = 8						; size = 4
??8?$_Vector_const_iterator@V?$_Vector_val@HV?$allocator@H@std@@@std@@@std@@QBE_NABV01@@Z PROC ; std::_Vector_const_iterator<std::_Vector_val<int,std::allocator<int> > >::operator==, COMDAT
; _this$ = ecx

; 201  : 		{	// test for iterator equality

  00000	55		 push	 ebp
  00001	8b ec		 mov	 ebp, esp

; 202  : 		_Compat(_Right);
; 203  : 		return (this->_Ptr == _Right._Ptr);

  00003	8b 01		 mov	 eax, DWORD PTR [ecx]
  00005	8b 4d 08	 mov	 ecx, DWORD PTR __Right$[ebp]
  00008	2b 01		 sub	 eax, DWORD PTR [ecx]
  0000a	f7 d8		 neg	 eax
  0000c	1b c0		 sbb	 eax, eax
  0000e	40		 inc	 eax

; 204  : 		}

  0000f	5d		 pop	 ebp
  00010	c2 04 00	 ret	 4
??8?$_Vector_const_iterator@V?$_Vector_val@HV?$allocator@H@std@@@std@@@std@@QBE_NABV01@@Z ENDP ; std::_Vector_const_iterator<std::_Vector_val<int,std::allocator<int> > >::operator==
_TEXT	ENDS
PUBLIC	??$_Move@PAHPAH@std@@YAPAHPAH00@Z		; std::_Move<int *,int *>
; Function compile flags: /Ogsp
; File c:\program files (x86)\microsoft visual studio 10.0\vc\include\xutility
;	COMDAT ??$_Move@PAHPAH@std@@YAPAHPAH00@Z
_TEXT	SEGMENT
__Cat$521900 = -4					; size = 1
__First$ = 8						; size = 4
__Last$ = 12						; size = 4
__Dest$ = 16						; size = 4
??$_Move@PAHPAH@std@@YAPAHPAH00@Z PROC			; std::_Move<int *,int *>, COMDAT

; 2533 : 	{	// move [_First, _Last) to [_Dest, ...), unchecked

  00000	55		 push	 ebp
  00001	8b ec		 mov	 ebp, esp
  00003	51		 push	 ecx

; 2534 : 	return (_Move(_First, _Last,
; 2535 : 		_Dest, _Ptr_cat(_First, _Dest)));

  00004	ff 75 fc	 push	 DWORD PTR __Cat$521900[ebp]
  00007	ff 75 10	 push	 DWORD PTR __Dest$[ebp]
  0000a	ff 75 0c	 push	 DWORD PTR __Last$[ebp]
  0000d	ff 75 08	 push	 DWORD PTR __First$[ebp]
  00010	e8 00 00 00 00	 call	 ??$_Move@PAHPAH@std@@YAPAHPAH00U_Scalar_ptr_iterator_tag@0@@Z ; std::_Move<int *,int *>
  00015	83 c4 10	 add	 esp, 16			; 00000010H

; 2536 : 	}

  00018	c9		 leave
  00019	c3		 ret	 0
??$_Move@PAHPAH@std@@YAPAHPAH00@Z ENDP			; std::_Move<int *,int *>
_TEXT	ENDS
PUBLIC	??$_Destroy_range@V?$allocator@H@std@@@std@@YAXPAH0AAV?$allocator@H@0@@Z ; std::_Destroy_range<std::allocator<int> >
; Function compile flags: /Ogsp
; File c:\program files (x86)\microsoft visual studio 10.0\vc\include\xmemory
;	COMDAT ??$_Destroy_range@V?$allocator@H@std@@@std@@YAXPAH0AAV?$allocator@H@0@@Z
_TEXT	SEGMENT
__First$ = 8						; size = 4
__Last$ = 12						; size = 4
__Al$ = 16						; size = 4
??$_Destroy_range@V?$allocator@H@std@@@std@@YAXPAH0AAV?$allocator@H@0@@Z PROC ; std::_Destroy_range<std::allocator<int> >, COMDAT

; 88   : 	_Destroy_range(_First, _Last, _Al, _Ptr_cat(_First, _Last));
; 89   : 	}

  00000	c3		 ret	 0
??$_Destroy_range@V?$allocator@H@std@@@std@@YAXPAH0AAV?$allocator@H@0@@Z ENDP ; std::_Destroy_range<std::allocator<int> >
_TEXT	ENDS
PUBLIC	??$_Uninitialized_move@PAHPAHV?$allocator@H@std@@@std@@YAPAHPAH00AAV?$allocator@H@0@@Z ; std::_Uninitialized_move<int *,int *,std::allocator<int> >
; Function compile flags: /Ogsp
; File c:\program files (x86)\microsoft visual studio 10.0\vc\include\memory
;	COMDAT ??$_Uninitialized_move@PAHPAHV?$allocator@H@std@@@std@@YAPAHPAH00AAV?$allocator@H@0@@Z
_TEXT	SEGMENT
__First$ = 8						; size = 4
__Last$ = 12						; size = 4
__Dest$ = 16						; size = 4
__Al$ = 20						; size = 4
??$_Uninitialized_move@PAHPAHV?$allocator@H@std@@@std@@YAPAHPAH00AAV?$allocator@H@0@@Z PROC ; std::_Uninitialized_move<int *,int *,std::allocator<int> >, COMDAT

; 469  : 	{	// move [_First, _Last) to raw _Dest, using _Al

  00000	55		 push	 ebp
  00001	8b ec		 mov	 ebp, esp
  00003	56		 push	 esi

; 470  : 	return (_Uninit_move(_First, _Last, _Dest, _Al,
; 471  : 		_Val_type(_First), _Ptr_cat(_First, _Dest)));

  00004	8b 75 0c	 mov	 esi, DWORD PTR __Last$[ebp]
  00007	2b 75 08	 sub	 esi, DWORD PTR __First$[ebp]
  0000a	c1 fe 02	 sar	 esi, 2
  0000d	c1 e6 02	 shl	 esi, 2
  00010	56		 push	 esi
  00011	ff 75 08	 push	 DWORD PTR __First$[ebp]
  00014	ff 75 10	 push	 DWORD PTR __Dest$[ebp]
  00017	ff 15 00 00 00
	00		 call	 DWORD PTR __imp__memmove
  0001d	83 c4 0c	 add	 esp, 12			; 0000000cH
  00020	03 c6		 add	 eax, esi
  00022	5e		 pop	 esi

; 472  : 	}

  00023	5d		 pop	 ebp
  00024	c3		 ret	 0
??$_Uninitialized_move@PAHPAHV?$allocator@H@std@@@std@@YAPAHPAH00AAV?$allocator@H@0@@Z ENDP ; std::_Uninitialized_move<int *,int *,std::allocator<int> >
_TEXT	ENDS
PUBLIC	?iwm_command@EventCatalogWnd@@UAEXPAVioWnd@@HK@Z ; EventCatalogWnd::iwm_command
EXTRN	__imp_?CheckRadioButton@ioWnd@@QAEXKKK@Z:PROC
; Function compile flags: /Ogsp
; File d:\lost saga for developer\youtube\tutorial\source\src\lsclient\gui\eventcatalogwnd.cpp
;	COMDAT ?iwm_command@EventCatalogWnd@@UAEXPAVioWnd@@HK@Z
_TEXT	SEGMENT
_pWnd$ = 8						; size = 4
_cmd$ = 12						; size = 4
_param$ = 16						; size = 4
?iwm_command@EventCatalogWnd@@UAEXPAVioWnd@@HK@Z PROC	; EventCatalogWnd::iwm_command, COMDAT
; _this$ = ecx

; 79   : {

  00000	55		 push	 ebp
  00001	8b ec		 mov	 ebp, esp
  00003	56		 push	 esi
  00004	8b f1		 mov	 esi, ecx

; 80   : 	DWORD dwID = pWnd->GetID();

  00006	8b 4d 08	 mov	 ecx, DWORD PTR _pWnd$[ebp]
  00009	ff 15 00 00 00
	00		 call	 DWORD PTR __imp_?GetID@ioWnd@@QBEKXZ

; 81   : 
; 82   : 	switch ( dwID )

  0000f	85 c0		 test	 eax, eax
  00011	74 6f		 je	 SHORT $LN5@iwm_comman@5
  00013	83 f8 0a	 cmp	 eax, 10			; 0000000aH
  00016	76 33		 jbe	 SHORT $LN6@iwm_comman@5
  00018	83 f8 65	 cmp	 eax, 101		; 00000065H
  0001b	74 1e		 je	 SHORT $LN4@iwm_comman@5
  0001d	3d e9 03 00 00	 cmp	 eax, 1001		; 000003e9H
  00022	75 5e		 jne	 SHORT $LN5@iwm_comman@5

; 107  : 	case ID_DETAIL_BTN:
; 108  : 		if( cmd == IOBN_BTNUP )

  00024	83 7d 0c 11	 cmp	 DWORD PTR _cmd$[ebp], 17 ; 00000011H
  00028	75 58		 jne	 SHORT $LN5@iwm_comman@5

; 109  : 		{
; 110  : 			SetShowEventPage( m_iSelectId - ID_EVENT_1_BTN );

  0002a	8b 86 a0 01 00
	00		 mov	 eax, DWORD PTR [esi+416]
  00030	48		 dec	 eax
  00031	50		 push	 eax
  00032	8b ce		 mov	 ecx, esi
  00034	e8 00 00 00 00	 call	 ?SetShowEventPage@EventCatalogWnd@@IAEXH@Z ; EventCatalogWnd::SetShowEventPage

; 111  : 		}
; 112  : 		break;

  00039	eb 47		 jmp	 SHORT $LN5@iwm_comman@5
$LN4@iwm_comman@5:

; 99   : 		}
; 100  : 		break;
; 101  : 	case ID_EXIT_BTN:
; 102  : 		if( cmd == IOBN_BTNUP )

  0003b	83 7d 0c 11	 cmp	 DWORD PTR _cmd$[ebp], 17 ; 00000011H
  0003f	75 41		 jne	 SHORT $LN5@iwm_comman@5

; 103  : 		{
; 104  : 			HideWnd();

  00041	8b ce		 mov	 ecx, esi
  00043	ff 15 00 00 00
	00		 call	 DWORD PTR __imp_?HideWnd@ioWnd@@QAEXXZ

; 105  : 		}
; 106  : 		break;

  00049	eb 37		 jmp	 SHORT $LN5@iwm_comman@5
$LN6@iwm_comman@5:

; 83   : 	{
; 84   : 	case ID_EVENT_1_BTN:
; 85   : 	case ID_EVENT_2_BTN:
; 86   : 	case ID_EVENT_3_BTN:
; 87   : 	case ID_EVENT_4_BTN:
; 88   : 	case ID_EVENT_5_BTN:
; 89   : 	case ID_EVENT_6_BTN:
; 90   : 	case ID_EVENT_7_BTN:
; 91   : 	case ID_EVENT_8_BTN:
; 92   : 	case ID_EVENT_9_BTN:
; 93   : 	case ID_EVENT_10_BTN:
; 94   : 		if( cmd == IOBN_BTNDOWN )

  0004b	83 7d 0c 10	 cmp	 DWORD PTR _cmd$[ebp], 16 ; 00000010H
  0004f	75 31		 jne	 SHORT $LN5@iwm_comman@5

; 95   : 		{
; 96   : 			m_iSelectId = dwID;
; 97   : 			CheckRadioButton( ID_EVENT_1_BTN, ID_EVENT_1_BTN + m_vEventInfoVector.size(), m_iSelectId );

  00051	50		 push	 eax
  00052	89 86 a0 01 00
	00		 mov	 DWORD PTR [esi+416], eax
  00058	8b 86 94 01 00
	00		 mov	 eax, DWORD PTR [esi+404]
  0005e	2b 86 90 01 00
	00		 sub	 eax, DWORD PTR [esi+400]
  00064	8b ce		 mov	 ecx, esi
  00066	c1 f8 02	 sar	 eax, 2
  00069	40		 inc	 eax
  0006a	50		 push	 eax
  0006b	6a 01		 push	 1
  0006d	ff 15 00 00 00
	00		 call	 DWORD PTR __imp_?CheckRadioButton@ioWnd@@QAEXKKK@Z

; 98   : 			SetImg( m_iSelectId - ID_EVENT_1_BTN );

  00073	8b 86 a0 01 00
	00		 mov	 eax, DWORD PTR [esi+416]
  00079	48		 dec	 eax
  0007a	50		 push	 eax
  0007b	8b ce		 mov	 ecx, esi
  0007d	e8 00 00 00 00	 call	 ?SetImg@EventCatalogWnd@@IAEXH@Z ; EventCatalogWnd::SetImg
$LN5@iwm_comman@5:
  00082	5e		 pop	 esi

; 113  : 	}
; 114  : }

  00083	5d		 pop	 ebp
  00084	c2 0c 00	 ret	 12			; 0000000cH
?iwm_command@EventCatalogWnd@@UAEXPAVioWnd@@HK@Z ENDP	; EventCatalogWnd::iwm_command
_TEXT	ENDS
PUBLIC	_szType$GSCopy$
PUBLIC	_pImage$GSCopy$
PUBLIC	_this$GSCopy$
PUBLIC	__$ArrayPad$
EXTRN	__imp_?AddRenderImage@ioWnd@@UAEXABVioHashString@@PAVioUIRenderImage@@@Z:PROC
; Function compile flags: /Ogsp
;	COMDAT ?AddRenderImage@EventChanceMortmainCharWnd@@MAEXABVioHashString@@PAVioUIRenderImage@@@Z
_TEXT	SEGMENT
_szType$GSCopy$ = -32					; size = 4
_pImage$GSCopy$ = -28					; size = 4
_this$GSCopy$ = -24					; size = 4
__t$522354 = -20					; size = 10
__t$522216 = -20					; size = 9
__t$522091 = -20					; size = 10
__t$521966 = -20					; size = 10
__$ArrayPad$ = -4					; size = 4
_szType$ = 8						; size = 4
_pImage$ = 12						; size = 4
?AddRenderImage@EventChanceMortmainCharWnd@@MAEXABVioHashString@@PAVioUIRenderImage@@@Z PROC ; EventChanceMortmainCharWnd::AddRenderImage, COMDAT
; _this$ = ecx

; 742  : {

  00000	55		 push	 ebp
  00001	8b ec		 mov	 ebp, esp
  00003	83 ec 20	 sub	 esp, 32			; 00000020H
  00006	a1 00 00 00 00	 mov	 eax, DWORD PTR ___security_cookie
  0000b	33 c5		 xor	 eax, ebp
  0000d	89 45 fc	 mov	 DWORD PTR __$ArrayPad$[ebp], eax
  00010	8b 45 0c	 mov	 eax, DWORD PTR _pImage$[ebp]
  00013	8b 55 08	 mov	 edx, DWORD PTR _szType$[ebp]
  00016	53		 push	 ebx
  00017	56		 push	 esi
  00018	57		 push	 edi

; 743  : 	if( szType == "GaugeBack" )

  00019	6a 02		 push	 2
  0001b	5f		 pop	 edi
  0001c	89 4d e8	 mov	 DWORD PTR _this$GSCopy$[ebp], ecx

; 759  : 	{
; 760  : 		SAFEDELETE( m_pTimeColon );

  0001f	89 45 e4	 mov	 DWORD PTR _pImage$GSCopy$[ebp], eax
  00022	89 55 e0	 mov	 DWORD PTR _szType$GSCopy$[ebp], edx
  00025	c7 45 ec aa 8d
	9e 8d		 mov	 DWORD PTR __t$521966[ebp], -1918988886 ; 8d9e8daaH
  0002c	c7 45 f0 88 ae
	8a 89		 mov	 DWORD PTR __t$521966[ebp+4], -1987400056 ; 898aae88H
  00033	8d 45 ec	 lea	 eax, DWORD PTR __t$521966[ebp]
  00036	33 db		 xor	 ebx, ebx
  00038	66 c7 45 f4 86
	00		 mov	 WORD PTR __t$521966[ebp+8], 134 ; 00000086H
  0003e	8b cf		 mov	 ecx, edi
$LL126@AddRenderI:

; 743  : 	if( szType == "GaugeBack" )

  00040	81 30 ed ec eb
	ea		 xor	 DWORD PTR [eax], -353637139 ; eaebecedH
  00046	83 c0 04	 add	 eax, 4
  00049	49		 dec	 ecx
  0004a	75 f4		 jne	 SHORT $LL126@AddRenderI
  0004c	80 75 f4 ed	 xor	 BYTE PTR __t$521966[ebp+8], -19 ; ffffffedH
  00050	8b ca		 mov	 ecx, edx
  00052	8d 75 ec	 lea	 esi, DWORD PTR __t$521966[ebp]
  00055	ff 15 00 00 00
	00		 call	 DWORD PTR __imp_?c_str@ioHashString@@QBEPBDXZ
$LL466@AddRenderI:
  0005b	8a 08		 mov	 cl, BYTE PTR [eax]
  0005d	3a 0e		 cmp	 cl, BYTE PTR [esi]
  0005f	75 18		 jne	 SHORT $LN467@AddRenderI
  00061	3a cb		 cmp	 cl, bl
  00063	74 10		 je	 SHORT $LN468@AddRenderI
  00065	8a 48 01	 mov	 cl, BYTE PTR [eax+1]
  00068	3a 4e 01	 cmp	 cl, BYTE PTR [esi+1]
  0006b	75 0c		 jne	 SHORT $LN467@AddRenderI
  0006d	03 c7		 add	 eax, edi
  0006f	03 f7		 add	 esi, edi
  00071	3a cb		 cmp	 cl, bl
  00073	75 e6		 jne	 SHORT $LL466@AddRenderI
$LN468@AddRenderI:
  00075	33 c0		 xor	 eax, eax
  00077	eb 05		 jmp	 SHORT $LN469@AddRenderI
$LN467@AddRenderI:
  00079	1b c0		 sbb	 eax, eax
  0007b	83 d8 ff	 sbb	 eax, -1
$LN469@AddRenderI:
  0007e	3b c3		 cmp	 eax, ebx
  00080	75 28		 jne	 SHORT $LN463@AddRenderI

; 744  : 	{
; 745  : 		SAFEDELETE( m_pGaugeBack );

  00082	8b 75 e8	 mov	 esi, DWORD PTR _this$GSCopy$[ebp]
  00085	8b 8e 90 01 00
	00		 mov	 ecx, DWORD PTR [esi+400]
  0008b	3b cb		 cmp	 ecx, ebx
  0008d	74 0d		 je	 SHORT $LN11@AddRenderI
  0008f	8b 01		 mov	 eax, DWORD PTR [ecx]
  00091	6a 01		 push	 1
  00093	ff 50 40	 call	 DWORD PTR [eax+64]
  00096	89 9e 90 01 00
	00		 mov	 DWORD PTR [esi+400], ebx
$LN11@AddRenderI:

; 746  : 		m_pGaugeBack = pImage;

  0009c	8b 45 e4	 mov	 eax, DWORD PTR _pImage$GSCopy$[ebp]
  0009f	89 86 90 01 00
	00		 mov	 DWORD PTR [esi+400], eax
  000a5	e9 91 01 00 00	 jmp	 $LN1@AddRenderI
$LN463@AddRenderI:

; 747  : 	}
; 748  : 	else if( szType == "GaugeLine" )

  000aa	c7 45 ec aa 8d
	9e 8d		 mov	 DWORD PTR __t$522091[ebp], -1918988886 ; 8d9e8daaH
  000b1	c7 45 f0 88 a0
	82 84		 mov	 DWORD PTR __t$522091[ebp+4], -2071814008 ; 8482a088H
  000b8	8d 45 ec	 lea	 eax, DWORD PTR __t$522091[ebp]
  000bb	66 c7 45 f4 88
	00		 mov	 WORD PTR __t$522091[ebp+8], 136 ; 00000088H
  000c1	8b cf		 mov	 ecx, edi
$LL232@AddRenderI:
  000c3	81 30 ed ec eb
	ea		 xor	 DWORD PTR [eax], -353637139 ; eaebecedH
  000c9	83 c0 04	 add	 eax, 4
  000cc	49		 dec	 ecx
  000cd	75 f4		 jne	 SHORT $LL232@AddRenderI
  000cf	8b 4d e0	 mov	 ecx, DWORD PTR _szType$GSCopy$[ebp]
  000d2	80 75 f4 ed	 xor	 BYTE PTR __t$522091[ebp+8], -19 ; ffffffedH
  000d6	8d 75 ec	 lea	 esi, DWORD PTR __t$522091[ebp]
  000d9	ff 15 00 00 00
	00		 call	 DWORD PTR __imp_?c_str@ioHashString@@QBEPBDXZ
$LL470@AddRenderI:
  000df	8a 08		 mov	 cl, BYTE PTR [eax]
  000e1	3a 0e		 cmp	 cl, BYTE PTR [esi]
  000e3	75 18		 jne	 SHORT $LN471@AddRenderI
  000e5	3a cb		 cmp	 cl, bl
  000e7	74 10		 je	 SHORT $LN472@AddRenderI
  000e9	8a 48 01	 mov	 cl, BYTE PTR [eax+1]
  000ec	3a 4e 01	 cmp	 cl, BYTE PTR [esi+1]
  000ef	75 0c		 jne	 SHORT $LN471@AddRenderI
  000f1	03 c7		 add	 eax, edi
  000f3	03 f7		 add	 esi, edi
  000f5	3a cb		 cmp	 cl, bl
  000f7	75 e6		 jne	 SHORT $LL470@AddRenderI
$LN472@AddRenderI:
  000f9	33 c0		 xor	 eax, eax
  000fb	eb 05		 jmp	 SHORT $LN473@AddRenderI
$LN471@AddRenderI:
  000fd	1b c0		 sbb	 eax, eax
  000ff	83 d8 ff	 sbb	 eax, -1
$LN473@AddRenderI:
  00102	3b c3		 cmp	 eax, ebx
  00104	75 28		 jne	 SHORT $LN464@AddRenderI

; 749  : 	{
; 750  : 		SAFEDELETE( m_pGaugeLine );

  00106	8b 75 e8	 mov	 esi, DWORD PTR _this$GSCopy$[ebp]
  00109	8b 8e 94 01 00
	00		 mov	 ecx, DWORD PTR [esi+404]
  0010f	3b cb		 cmp	 ecx, ebx
  00111	74 0d		 je	 SHORT $LN8@AddRenderI
  00113	8b 01		 mov	 eax, DWORD PTR [ecx]
  00115	6a 01		 push	 1
  00117	ff 50 40	 call	 DWORD PTR [eax+64]
  0011a	89 9e 94 01 00
	00		 mov	 DWORD PTR [esi+404], ebx
$LN8@AddRenderI:

; 751  : 		m_pGaugeLine = pImage;

  00120	8b 45 e4	 mov	 eax, DWORD PTR _pImage$GSCopy$[ebp]
  00123	89 86 94 01 00
	00		 mov	 DWORD PTR [esi+404], eax
  00129	e9 0d 01 00 00	 jmp	 $LN1@AddRenderI
$LN464@AddRenderI:

; 752  : 	}
; 753  : 	else if( szType == "TimeText" )

  0012e	c7 45 ec b9 85
	86 8f		 mov	 DWORD PTR __t$522216[ebp], -1887009351 ; 8f8685b9H
  00135	c7 45 f0 b9 89
	93 9e		 mov	 DWORD PTR __t$522216[ebp+4], -1634498119 ; 9e9389b9H
  0013c	8d 45 ec	 lea	 eax, DWORD PTR __t$522216[ebp]
  0013f	88 5d f4	 mov	 BYTE PTR __t$522216[ebp+8], bl
  00142	8b cf		 mov	 ecx, edi
$LL338@AddRenderI:
  00144	81 30 ed ec eb
	ea		 xor	 DWORD PTR [eax], -353637139 ; eaebecedH
  0014a	83 c0 04	 add	 eax, 4
  0014d	49		 dec	 ecx
  0014e	75 f4		 jne	 SHORT $LL338@AddRenderI
  00150	8b 4d e0	 mov	 ecx, DWORD PTR _szType$GSCopy$[ebp]
  00153	8d 75 ec	 lea	 esi, DWORD PTR __t$522216[ebp]
  00156	ff 15 00 00 00
	00		 call	 DWORD PTR __imp_?c_str@ioHashString@@QBEPBDXZ
$LL474@AddRenderI:
  0015c	8a 08		 mov	 cl, BYTE PTR [eax]
  0015e	3a 0e		 cmp	 cl, BYTE PTR [esi]
  00160	75 18		 jne	 SHORT $LN475@AddRenderI
  00162	3a cb		 cmp	 cl, bl
  00164	74 10		 je	 SHORT $LN476@AddRenderI
  00166	8a 48 01	 mov	 cl, BYTE PTR [eax+1]
  00169	3a 4e 01	 cmp	 cl, BYTE PTR [esi+1]
  0016c	75 0c		 jne	 SHORT $LN475@AddRenderI
  0016e	03 c7		 add	 eax, edi
  00170	03 f7		 add	 esi, edi
  00172	3a cb		 cmp	 cl, bl
  00174	75 e6		 jne	 SHORT $LL474@AddRenderI
$LN476@AddRenderI:
  00176	33 c0		 xor	 eax, eax
  00178	eb 05		 jmp	 SHORT $LN477@AddRenderI
$LN475@AddRenderI:
  0017a	1b c0		 sbb	 eax, eax
  0017c	83 d8 ff	 sbb	 eax, -1
$LN477@AddRenderI:
  0017f	3b c3		 cmp	 eax, ebx
  00181	75 28		 jne	 SHORT $LN465@AddRenderI

; 754  : 	{
; 755  : 		SAFEDELETE( m_pTimeText );

  00183	8b 75 e8	 mov	 esi, DWORD PTR _this$GSCopy$[ebp]
  00186	8b 8e 98 01 00
	00		 mov	 ecx, DWORD PTR [esi+408]
  0018c	3b cb		 cmp	 ecx, ebx
  0018e	74 0d		 je	 SHORT $LN5@AddRenderI
  00190	8b 01		 mov	 eax, DWORD PTR [ecx]
  00192	6a 01		 push	 1
  00194	ff 50 40	 call	 DWORD PTR [eax+64]
  00197	89 9e 98 01 00
	00		 mov	 DWORD PTR [esi+408], ebx
$LN5@AddRenderI:

; 756  : 		m_pTimeText = pImage;

  0019d	8b 45 e4	 mov	 eax, DWORD PTR _pImage$GSCopy$[ebp]
  001a0	89 86 98 01 00
	00		 mov	 DWORD PTR [esi+408], eax
  001a6	e9 90 00 00 00	 jmp	 $LN1@AddRenderI
$LN465@AddRenderI:

; 757  : 	}
; 758  : 	else if( szType == "TimeColon" )

  001ab	c7 45 ec b9 85
	86 8f		 mov	 DWORD PTR __t$522354[ebp], -1887009351 ; 8f8685b9H
  001b2	c7 45 f0 ae 83
	87 85		 mov	 DWORD PTR __t$522354[ebp+4], -2054716498 ; 858783aeH
  001b9	8d 45 ec	 lea	 eax, DWORD PTR __t$522354[ebp]
  001bc	66 c7 45 f4 83
	00		 mov	 WORD PTR __t$522354[ebp+8], 131 ; 00000083H
  001c2	8b cf		 mov	 ecx, edi
$LL444@AddRenderI:
  001c4	81 30 ed ec eb
	ea		 xor	 DWORD PTR [eax], -353637139 ; eaebecedH
  001ca	83 c0 04	 add	 eax, 4
  001cd	49		 dec	 ecx
  001ce	75 f4		 jne	 SHORT $LL444@AddRenderI
  001d0	8b 4d e0	 mov	 ecx, DWORD PTR _szType$GSCopy$[ebp]
  001d3	80 75 f4 ed	 xor	 BYTE PTR __t$522354[ebp+8], -19 ; ffffffedH
  001d7	8d 75 ec	 lea	 esi, DWORD PTR __t$522354[ebp]
  001da	ff 15 00 00 00
	00		 call	 DWORD PTR __imp_?c_str@ioHashString@@QBEPBDXZ
$LL478@AddRenderI:
  001e0	8a 08		 mov	 cl, BYTE PTR [eax]
  001e2	3a 0e		 cmp	 cl, BYTE PTR [esi]
  001e4	75 18		 jne	 SHORT $LN479@AddRenderI
  001e6	3a cb		 cmp	 cl, bl
  001e8	74 10		 je	 SHORT $LN480@AddRenderI
  001ea	8a 48 01	 mov	 cl, BYTE PTR [eax+1]
  001ed	3a 4e 01	 cmp	 cl, BYTE PTR [esi+1]
  001f0	75 0c		 jne	 SHORT $LN479@AddRenderI
  001f2	03 c7		 add	 eax, edi
  001f4	03 f7		 add	 esi, edi
  001f6	3a cb		 cmp	 cl, bl
  001f8	75 e6		 jne	 SHORT $LL478@AddRenderI
$LN480@AddRenderI:
  001fa	33 c0		 xor	 eax, eax
  001fc	eb 05		 jmp	 SHORT $LN481@AddRenderI
$LN479@AddRenderI:
  001fe	1b c0		 sbb	 eax, eax
  00200	83 d8 ff	 sbb	 eax, -1
$LN481@AddRenderI:
  00203	3b c3		 cmp	 eax, ebx
  00205	75 25		 jne	 SHORT $LN3@AddRenderI

; 759  : 	{
; 760  : 		SAFEDELETE( m_pTimeColon );

  00207	8b 75 e8	 mov	 esi, DWORD PTR _this$GSCopy$[ebp]
  0020a	8b 8e 9c 01 00
	00		 mov	 ecx, DWORD PTR [esi+412]
  00210	3b cb		 cmp	 ecx, ebx
  00212	74 0d		 je	 SHORT $LN2@AddRenderI
  00214	8b 01		 mov	 eax, DWORD PTR [ecx]
  00216	6a 01		 push	 1
  00218	ff 50 40	 call	 DWORD PTR [eax+64]
  0021b	89 9e 9c 01 00
	00		 mov	 DWORD PTR [esi+412], ebx
$LN2@AddRenderI:

; 761  : 		m_pTimeColon = pImage;

  00221	8b 45 e4	 mov	 eax, DWORD PTR _pImage$GSCopy$[ebp]
  00224	89 86 9c 01 00
	00		 mov	 DWORD PTR [esi+412], eax

; 762  : 	}
; 763  : 	else

  0022a	eb 0f		 jmp	 SHORT $LN1@AddRenderI
$LN3@AddRenderI:

; 764  : 		ioWnd::AddRenderImage( szType, pImage );

  0022c	ff 75 e4	 push	 DWORD PTR _pImage$GSCopy$[ebp]
  0022f	8b 4d e8	 mov	 ecx, DWORD PTR _this$GSCopy$[ebp]
  00232	ff 75 e0	 push	 DWORD PTR _szType$GSCopy$[ebp]
  00235	ff 15 00 00 00
	00		 call	 DWORD PTR __imp_?AddRenderImage@ioWnd@@UAEXABVioHashString@@PAVioUIRenderImage@@@Z
$LN1@AddRenderI:

; 765  : }

  0023b	8b 4d fc	 mov	 ecx, DWORD PTR __$ArrayPad$[ebp]
  0023e	5f		 pop	 edi
  0023f	5e		 pop	 esi
  00240	33 cd		 xor	 ecx, ebp
  00242	5b		 pop	 ebx
  00243	e8 00 00 00 00	 call	 @__security_check_cookie@4
  00248	c9		 leave
  00249	c2 08 00	 ret	 8
?AddRenderImage@EventChanceMortmainCharWnd@@MAEXABVioHashString@@PAVioUIRenderImage@@@Z ENDP ; EventChanceMortmainCharWnd::AddRenderImage
_TEXT	ENDS
PUBLIC	_xElement$GSCopy$
PUBLIC	__$ArrayPad$
EXTRN	__imp_??4ioHashString@@QAEAAV0@PBD@Z:PROC
; Function compile flags: /Ogsp
;	COMDAT ?ParseExtraInfo@EventChanceRollingWnd@@MAEXAAVioXMLElement@@@Z
_TEXT	SEGMENT
_xElement$GSCopy$ = -28					; size = 4
__k$523006 = -24					; size = 10
__k$522881 = -24					; size = 10
__k$522756 = -24					; size = 13
__k$522631 = -24					; size = 13
__k$522588 = -20					; size = 9
__$ArrayPad$ = -4					; size = 4
_xElement$ = 8						; size = 4
?ParseExtraInfo@EventChanceRollingWnd@@MAEXAAVioXMLElement@@@Z PROC ; EventChanceRollingWnd::ParseExtraInfo, COMDAT
; _this$ = ecx

; 984  : {

  00000	55		 push	 ebp
  00001	8b ec		 mov	 ebp, esp
  00003	83 ec 1c	 sub	 esp, 28			; 0000001cH
  00006	a1 00 00 00 00	 mov	 eax, DWORD PTR ___security_cookie
  0000b	33 c5		 xor	 eax, ebp
  0000d	89 45 fc	 mov	 DWORD PTR __$ArrayPad$[ebp], eax
  00010	53		 push	 ebx
  00011	8b 5d 08	 mov	 ebx, DWORD PTR _xElement$[ebp]
  00014	56		 push	 esi
  00015	57		 push	 edi

; 985  : 	m_dwRandTime		= xElement.GetIntAttribute_e( "RandTime" );

  00016	6a 02		 push	 2
  00018	8b f1		 mov	 esi, ecx

; 989  : 	m_szCharSound       = xElement.GetStringAttribute_e( "CharSound" );

  0001a	89 5d e4	 mov	 DWORD PTR _xElement$GSCopy$[ebp], ebx
  0001d	c7 45 ec bf 8d
	85 8e		 mov	 DWORD PTR __k$522588[ebp], -1903850049 ; 8e858dbfH
  00024	c7 45 f0 b9 85
	86 8f		 mov	 DWORD PTR __k$522588[ebp+4], -1887009351 ; 8f8685b9H
  0002b	8d 45 ec	 lea	 eax, DWORD PTR __k$522588[ebp]
  0002e	c6 45 f4 00	 mov	 BYTE PTR __k$522588[ebp+8], 0
  00032	59		 pop	 ecx
$LL106@ParseExtra:

; 985  : 	m_dwRandTime		= xElement.GetIntAttribute_e( "RandTime" );

  00033	81 30 ed ec eb
	ea		 xor	 DWORD PTR [eax], -353637139 ; eaebecedH
  00039	83 c0 04	 add	 eax, 4
  0003c	49		 dec	 ecx
  0003d	75 f4		 jne	 SHORT $LL106@ParseExtra
  0003f	8b 3d 00 00 00
	00		 mov	 edi, DWORD PTR __imp_?GetIntAttribute@ioXMLElement@@QBEHPBD@Z
  00045	8d 45 ec	 lea	 eax, DWORD PTR __k$522588[ebp]
  00048	50		 push	 eax
  00049	8b cb		 mov	 ecx, ebx
  0004b	ff d7		 call	 edi
  0004d	6a 03		 push	 3
  0004f	89 86 a4 01 00
	00		 mov	 DWORD PTR [esi+420], eax

; 986  : 	m_dwRandTickTime	= xElement.GetIntAttribute_e( "RandTickTime" );

  00055	c7 45 e8 bf 8d
	85 8e		 mov	 DWORD PTR __k$522631[ebp], -1903850049 ; 8e858dbfH
  0005c	c7 45 ec b9 85
	88 81		 mov	 DWORD PTR __k$522631[ebp+4], -2121759303 ; 818885b9H
  00063	c7 45 f0 b9 85
	86 8f		 mov	 DWORD PTR __k$522631[ebp+8], -1887009351 ; 8f8685b9H
  0006a	8d 45 e8	 lea	 eax, DWORD PTR __k$522631[ebp]
  0006d	c6 45 f4 00	 mov	 BYTE PTR __k$522631[ebp+12], 0
  00071	59		 pop	 ecx
$LL212@ParseExtra:
  00072	81 30 ed ec eb
	ea		 xor	 DWORD PTR [eax], -353637139 ; eaebecedH
  00078	83 c0 04	 add	 eax, 4
  0007b	49		 dec	 ecx
  0007c	75 f4		 jne	 SHORT $LL212@ParseExtra
  0007e	8d 45 e8	 lea	 eax, DWORD PTR __k$522631[ebp]
  00081	50		 push	 eax
  00082	8b cb		 mov	 ecx, ebx
  00084	ff d7		 call	 edi
  00086	6a 03		 push	 3
  00088	89 86 a8 01 00
	00		 mov	 DWORD PTR [esi+424], eax

; 987  : 	m_szRollingSound    = xElement.GetStringAttribute_e( "RollingSound" );

  0008e	c7 45 e8 bf 83
	87 86		 mov	 DWORD PTR __k$522756[ebp], -2037939265 ; 868783bfH
  00095	c7 45 ec 84 82
	8c b9		 mov	 DWORD PTR __k$522756[ebp+4], -1181973884 ; b98c8284H
  0009c	c7 45 f0 82 99
	85 8e		 mov	 DWORD PTR __k$522756[ebp+8], -1903847038 ; 8e859982H
  000a3	8d 45 e8	 lea	 eax, DWORD PTR __k$522756[ebp]
  000a6	c6 45 f4 00	 mov	 BYTE PTR __k$522756[ebp+12], 0
  000aa	59		 pop	 ecx
$LL318@ParseExtra:
  000ab	81 30 ed ec eb
	ea		 xor	 DWORD PTR [eax], -353637139 ; eaebecedH
  000b1	83 c0 04	 add	 eax, 4
  000b4	49		 dec	 ecx
  000b5	75 f4		 jne	 SHORT $LL318@ParseExtra
  000b7	8b 3d 00 00 00
	00		 mov	 edi, DWORD PTR __imp_?GetStringAttribute@ioXMLElement@@QBEPBDPBD@Z
  000bd	8d 45 e8	 lea	 eax, DWORD PTR __k$522756[ebp]
  000c0	50		 push	 eax
  000c1	8b cb		 mov	 ecx, ebx
  000c3	ff d7		 call	 edi
  000c5	8b 1d 00 00 00
	00		 mov	 ebx, DWORD PTR __imp_??4ioHashString@@QAEAAV0@PBD@Z
  000cb	50		 push	 eax
  000cc	8d 8e ac 01 00
	00		 lea	 ecx, DWORD PTR [esi+428]
  000d2	ff d3		 call	 ebx
  000d4	6a 02		 push	 2

; 988  : 	m_szPesoSound       = xElement.GetStringAttribute_e( "PesoSound" );  

  000d6	c7 45 e8 bd 89
	98 85		 mov	 DWORD PTR __k$522881[ebp], -2053600835 ; 859889bdH
  000dd	c7 45 ec be 83
	9e 84		 mov	 DWORD PTR __k$522881[ebp+4], -2069986370 ; 849e83beH
  000e4	8d 45 e8	 lea	 eax, DWORD PTR __k$522881[ebp]
  000e7	66 c7 45 f0 89
	00		 mov	 WORD PTR __k$522881[ebp+8], 137 ; 00000089H
  000ed	59		 pop	 ecx
$LL424@ParseExtra:
  000ee	81 30 ed ec eb
	ea		 xor	 DWORD PTR [eax], -353637139 ; eaebecedH
  000f4	83 c0 04	 add	 eax, 4
  000f7	49		 dec	 ecx
  000f8	75 f4		 jne	 SHORT $LL424@ParseExtra
  000fa	8b 4d e4	 mov	 ecx, DWORD PTR _xElement$GSCopy$[ebp]
  000fd	80 75 f0 ed	 xor	 BYTE PTR __k$522881[ebp+8], -19 ; ffffffedH
  00101	8d 45 e8	 lea	 eax, DWORD PTR __k$522881[ebp]
  00104	50		 push	 eax
  00105	ff d7		 call	 edi
  00107	50		 push	 eax
  00108	8d 8e bc 01 00
	00		 lea	 ecx, DWORD PTR [esi+444]
  0010e	ff d3		 call	 ebx
  00110	6a 02		 push	 2

; 989  : 	m_szCharSound       = xElement.GetStringAttribute_e( "CharSound" );

  00112	c7 45 e8 ae 84
	8a 98		 mov	 DWORD PTR __k$523006[ebp], -1735752530 ; 988a84aeH
  00119	c7 45 ec be 83
	9e 84		 mov	 DWORD PTR __k$523006[ebp+4], -2069986370 ; 849e83beH
  00120	8d 45 e8	 lea	 eax, DWORD PTR __k$523006[ebp]
  00123	66 c7 45 f0 89
	00		 mov	 WORD PTR __k$523006[ebp+8], 137 ; 00000089H
  00129	59		 pop	 ecx
$LL530@ParseExtra:
  0012a	81 30 ed ec eb
	ea		 xor	 DWORD PTR [eax], -353637139 ; eaebecedH
  00130	83 c0 04	 add	 eax, 4
  00133	49		 dec	 ecx
  00134	75 f4		 jne	 SHORT $LL530@ParseExtra
  00136	8b 4d e4	 mov	 ecx, DWORD PTR _xElement$GSCopy$[ebp]
  00139	80 75 f0 ed	 xor	 BYTE PTR __k$523006[ebp+8], -19 ; ffffffedH
  0013d	8d 45 e8	 lea	 eax, DWORD PTR __k$523006[ebp]
  00140	50		 push	 eax
  00141	ff d7		 call	 edi
  00143	50		 push	 eax
  00144	8d 8e cc 01 00
	00		 lea	 ecx, DWORD PTR [esi+460]
  0014a	ff d3		 call	 ebx

; 990  : }

  0014c	8b 4d fc	 mov	 ecx, DWORD PTR __$ArrayPad$[ebp]
  0014f	5f		 pop	 edi
  00150	5e		 pop	 esi
  00151	33 cd		 xor	 ecx, ebp
  00153	5b		 pop	 ebx
  00154	e8 00 00 00 00	 call	 @__security_check_cookie@4
  00159	c9		 leave
  0015a	c2 04 00	 ret	 4
?ParseExtraInfo@EventChanceRollingWnd@@MAEXAAVioXMLElement@@@Z ENDP ; EventChanceRollingWnd::ParseExtraInfo
_TEXT	ENDS
PUBLIC	_szType$GSCopy$
PUBLIC	_pImage$GSCopy$
PUBLIC	_this$GSCopy$
PUBLIC	__$ArrayPad$
; Function compile flags: /Ogsp
;	COMDAT ?AddRenderImage@EventChanceRollingWnd@@MAEXABVioHashString@@PAVioUIRenderImage@@@Z
_TEXT	SEGMENT
_szType$GSCopy$ = -40					; size = 4
_pImage$GSCopy$ = -36					; size = 4
_this$GSCopy$ = -32					; size = 4
__t$523430 = -28					; size = 19
__t$523305 = -24					; size = 12
__t$523167 = -20					; size = 9
__$ArrayPad$ = -4					; size = 4
_szType$ = 8						; size = 4
_pImage$ = 12						; size = 4
?AddRenderImage@EventChanceRollingWnd@@MAEXABVioHashString@@PAVioUIRenderImage@@@Z PROC ; EventChanceRollingWnd::AddRenderImage, COMDAT
; _this$ = ecx

; 993  : {

  00000	55		 push	 ebp
  00001	8b ec		 mov	 ebp, esp
  00003	83 ec 28	 sub	 esp, 40			; 00000028H
  00006	a1 00 00 00 00	 mov	 eax, DWORD PTR ___security_cookie
  0000b	33 c5		 xor	 eax, ebp
  0000d	89 45 fc	 mov	 DWORD PTR __$ArrayPad$[ebp], eax
  00010	8b 45 0c	 mov	 eax, DWORD PTR _pImage$[ebp]
  00013	8b 55 08	 mov	 edx, DWORD PTR _szType$[ebp]
  00016	53		 push	 ebx
  00017	56		 push	 esi
  00018	57		 push	 edi

; 994  : 	if( szType == "PesoIcon" )

  00019	33 db		 xor	 ebx, ebx
  0001b	6a 02		 push	 2
  0001d	89 4d e0	 mov	 DWORD PTR _this$GSCopy$[ebp], ecx

; 1003 : 	}
; 1004 : 	else if( szType == "CongratulationText" )

  00020	89 45 dc	 mov	 DWORD PTR _pImage$GSCopy$[ebp], eax
  00023	89 55 d8	 mov	 DWORD PTR _szType$GSCopy$[ebp], edx
  00026	c7 45 ec bd 89
	98 85		 mov	 DWORD PTR __t$523167[ebp], -2053600835 ; 859889bdH
  0002d	c7 45 f0 a4 8f
	84 84		 mov	 DWORD PTR __t$523167[ebp+4], -2071687260 ; 84848fa4H
  00034	8d 45 ec	 lea	 eax, DWORD PTR __t$523167[ebp]
  00037	88 5d f4	 mov	 BYTE PTR __t$523167[ebp+8], bl
  0003a	59		 pop	 ecx
  0003b	bf ed ec eb ea	 mov	 edi, -353637139		; eaebecedH
$LL121@AddRenderI@2:

; 994  : 	if( szType == "PesoIcon" )

  00040	31 38		 xor	 DWORD PTR [eax], edi
  00042	83 c0 04	 add	 eax, 4
  00045	49		 dec	 ecx
  00046	75 f8		 jne	 SHORT $LL121@AddRenderI@2
  00048	8b ca		 mov	 ecx, edx
  0004a	8d 75 ec	 lea	 esi, DWORD PTR __t$523167[ebp]
  0004d	ff 15 00 00 00
	00		 call	 DWORD PTR __imp_?c_str@ioHashString@@QBEPBDXZ
$LL350@AddRenderI@2:
  00053	8a 08		 mov	 cl, BYTE PTR [eax]
  00055	3a 0e		 cmp	 cl, BYTE PTR [esi]
  00057	75 1a		 jne	 SHORT $LN351@AddRenderI@2
  00059	3a cb		 cmp	 cl, bl
  0005b	74 12		 je	 SHORT $LN352@AddRenderI@2
  0005d	8a 48 01	 mov	 cl, BYTE PTR [eax+1]
  00060	3a 4e 01	 cmp	 cl, BYTE PTR [esi+1]
  00063	75 0e		 jne	 SHORT $LN351@AddRenderI@2
  00065	83 c0 02	 add	 eax, 2
  00068	83 c6 02	 add	 esi, 2
  0006b	3a cb		 cmp	 cl, bl
  0006d	75 e4		 jne	 SHORT $LL350@AddRenderI@2
$LN352@AddRenderI@2:
  0006f	33 c0		 xor	 eax, eax
  00071	eb 05		 jmp	 SHORT $LN353@AddRenderI@2
$LN351@AddRenderI@2:
  00073	1b c0		 sbb	 eax, eax
  00075	83 d8 ff	 sbb	 eax, -1
$LN353@AddRenderI@2:
  00078	3b c3		 cmp	 eax, ebx
  0007a	75 28		 jne	 SHORT $LN348@AddRenderI@2

; 995  : 	{
; 996  : 		SAFEDELETE( m_pPesoIcon );

  0007c	8b 75 e0	 mov	 esi, DWORD PTR _this$GSCopy$[ebp]
  0007f	8b 8e 90 01 00
	00		 mov	 ecx, DWORD PTR [esi+400]
  00085	3b cb		 cmp	 ecx, ebx
  00087	74 0d		 je	 SHORT $LN8@AddRenderI@2
  00089	8b 01		 mov	 eax, DWORD PTR [ecx]
  0008b	6a 01		 push	 1
  0008d	ff 50 40	 call	 DWORD PTR [eax+64]
  00090	89 9e 90 01 00
	00		 mov	 DWORD PTR [esi+400], ebx
$LN8@AddRenderI@2:

; 997  : 		m_pPesoIcon = pImage;

  00096	8b 45 dc	 mov	 eax, DWORD PTR _pImage$GSCopy$[ebp]
  00099	89 86 90 01 00
	00		 mov	 DWORD PTR [esi+400], eax
  0009f	e9 5c 01 00 00	 jmp	 $LN1@AddRenderI@2
$LN348@AddRenderI@2:

; 998  : 	}
; 999  : 	else if( szType == "LotteryText" )

  000a4	6a 02		 push	 2
  000a6	c7 45 e8 a1 83
	9f 9e		 mov	 DWORD PTR __t$523305[ebp], -1633713247 ; 9e9f83a1H
  000ad	c7 45 ec 88 9e
	92 be		 mov	 DWORD PTR __t$523305[ebp+4], -1097687416 ; be929e88H
  000b4	8d 45 e8	 lea	 eax, DWORD PTR __t$523305[ebp]
  000b7	c7 45 f0 88 94
	9f 00		 mov	 DWORD PTR __t$523305[ebp+8], 10458248 ; 009f9488H
  000be	59		 pop	 ecx
$LL227@AddRenderI@2:
  000bf	31 38		 xor	 DWORD PTR [eax], edi
  000c1	83 c0 04	 add	 eax, 4
  000c4	49		 dec	 ecx
  000c5	75 f8		 jne	 SHORT $LL227@AddRenderI@2
  000c7	6a 08		 push	 8
  000c9	58		 pop	 eax
$LL224@AddRenderI@2:
  000ca	8b c8		 mov	 ecx, eax
  000cc	81 e1 03 00 00
	80		 and	 ecx, -2147483645	; 80000003H
  000d2	79 05		 jns	 SHORT $LN362@AddRenderI@2
  000d4	49		 dec	 ecx
  000d5	83 c9 fc	 or	 ecx, -4			; fffffffcH
  000d8	41		 inc	 ecx
$LN362@AddRenderI@2:
  000d9	b2 ed		 mov	 dl, -19			; ffffffedH
  000db	2a d1		 sub	 dl, cl
  000dd	30 54 05 e8	 xor	 BYTE PTR __t$523305[ebp+eax], dl
  000e1	40		 inc	 eax
  000e2	83 f8 0b	 cmp	 eax, 11			; 0000000bH
  000e5	7c e3		 jl	 SHORT $LL224@AddRenderI@2
  000e7	8b 4d d8	 mov	 ecx, DWORD PTR _szType$GSCopy$[ebp]
  000ea	8d 75 e8	 lea	 esi, DWORD PTR __t$523305[ebp]
  000ed	ff 15 00 00 00
	00		 call	 DWORD PTR __imp_?c_str@ioHashString@@QBEPBDXZ
$LL354@AddRenderI@2:
  000f3	8a 08		 mov	 cl, BYTE PTR [eax]
  000f5	3a 0e		 cmp	 cl, BYTE PTR [esi]
  000f7	75 1a		 jne	 SHORT $LN355@AddRenderI@2
  000f9	3a cb		 cmp	 cl, bl
  000fb	74 12		 je	 SHORT $LN356@AddRenderI@2
  000fd	8a 48 01	 mov	 cl, BYTE PTR [eax+1]
  00100	3a 4e 01	 cmp	 cl, BYTE PTR [esi+1]
  00103	75 0e		 jne	 SHORT $LN355@AddRenderI@2
  00105	83 c0 02	 add	 eax, 2
  00108	83 c6 02	 add	 esi, 2
  0010b	3a cb		 cmp	 cl, bl
  0010d	75 e4		 jne	 SHORT $LL354@AddRenderI@2
$LN356@AddRenderI@2:
  0010f	33 c0		 xor	 eax, eax
  00111	eb 05		 jmp	 SHORT $LN357@AddRenderI@2
$LN355@AddRenderI@2:
  00113	1b c0		 sbb	 eax, eax
  00115	83 d8 ff	 sbb	 eax, -1
$LN357@AddRenderI@2:
  00118	3b c3		 cmp	 eax, ebx
  0011a	75 28		 jne	 SHORT $LN349@AddRenderI@2

; 1000 : 	{
; 1001 : 		SAFEDELETE( m_pLotteryText );

  0011c	8b 75 e0	 mov	 esi, DWORD PTR _this$GSCopy$[ebp]
  0011f	8b 8e 98 01 00
	00		 mov	 ecx, DWORD PTR [esi+408]
  00125	3b cb		 cmp	 ecx, ebx
  00127	74 0d		 je	 SHORT $LN5@AddRenderI@2
  00129	8b 01		 mov	 eax, DWORD PTR [ecx]
  0012b	6a 01		 push	 1
  0012d	ff 50 40	 call	 DWORD PTR [eax+64]
  00130	89 9e 98 01 00
	00		 mov	 DWORD PTR [esi+408], ebx
$LN5@AddRenderI@2:

; 1002 : 		m_pLotteryText = pImage;

  00136	8b 45 dc	 mov	 eax, DWORD PTR _pImage$GSCopy$[ebp]
  00139	89 86 98 01 00
	00		 mov	 DWORD PTR [esi+408], eax
  0013f	e9 bc 00 00 00	 jmp	 $LN1@AddRenderI@2
$LN349@AddRenderI@2:

; 1003 : 	}
; 1004 : 	else if( szType == "CongratulationText" )

  00144	6a 04		 push	 4
  00146	c7 45 e4 ae 83
	85 8d		 mov	 DWORD PTR __t$523430[ebp], -1920629842 ; 8d8583aeH
  0014d	c7 45 e8 9f 8d
	9f 9f		 mov	 DWORD PTR __t$523430[ebp+4], -1616933473 ; 9f9f8d9fH
  00154	c7 45 ec 81 8d
	9f 83		 mov	 DWORD PTR __t$523430[ebp+8], -2086695551 ; 839f8d81H
  0015b	c7 45 f0 82 82
	bf 8f		 mov	 DWORD PTR __t$523430[ebp+12], -1883274622 ; 8fbf8282H
  00162	66 c7 45 f4 95
	98		 mov	 WORD PTR __t$523430[ebp+16], 39061 ; 00009895H
  00168	8d 45 e4	 lea	 eax, DWORD PTR __t$523430[ebp]
  0016b	88 5d f6	 mov	 BYTE PTR __t$523430[ebp+18], bl
  0016e	59		 pop	 ecx
$LL333@AddRenderI@2:
  0016f	31 38		 xor	 DWORD PTR [eax], edi
  00171	83 c0 04	 add	 eax, 4
  00174	49		 dec	 ecx
  00175	75 f8		 jne	 SHORT $LL333@AddRenderI@2
  00177	6a 10		 push	 16			; 00000010H
  00179	58		 pop	 eax
$LL330@AddRenderI@2:
  0017a	8b c8		 mov	 ecx, eax
  0017c	81 e1 03 00 00
	80		 and	 ecx, -2147483645	; 80000003H
  00182	79 05		 jns	 SHORT $LN363@AddRenderI@2
  00184	49		 dec	 ecx
  00185	83 c9 fc	 or	 ecx, -4			; fffffffcH
  00188	41		 inc	 ecx
$LN363@AddRenderI@2:
  00189	b2 ed		 mov	 dl, -19			; ffffffedH
  0018b	2a d1		 sub	 dl, cl
  0018d	30 54 05 e4	 xor	 BYTE PTR __t$523430[ebp+eax], dl
  00191	40		 inc	 eax
  00192	83 f8 12	 cmp	 eax, 18			; 00000012H
  00195	7c e3		 jl	 SHORT $LL330@AddRenderI@2
  00197	8b 4d d8	 mov	 ecx, DWORD PTR _szType$GSCopy$[ebp]
  0019a	8d 75 e4	 lea	 esi, DWORD PTR __t$523430[ebp]
  0019d	ff 15 00 00 00
	00		 call	 DWORD PTR __imp_?c_str@ioHashString@@QBEPBDXZ
$LL358@AddRenderI@2:
  001a3	8a 08		 mov	 cl, BYTE PTR [eax]
  001a5	3a 0e		 cmp	 cl, BYTE PTR [esi]
  001a7	75 1a		 jne	 SHORT $LN359@AddRenderI@2
  001a9	3a cb		 cmp	 cl, bl
  001ab	74 12		 je	 SHORT $LN360@AddRenderI@2
  001ad	8a 48 01	 mov	 cl, BYTE PTR [eax+1]
  001b0	3a 4e 01	 cmp	 cl, BYTE PTR [esi+1]
  001b3	75 0e		 jne	 SHORT $LN359@AddRenderI@2
  001b5	83 c0 02	 add	 eax, 2
  001b8	83 c6 02	 add	 esi, 2
  001bb	3a cb		 cmp	 cl, bl
  001bd	75 e4		 jne	 SHORT $LL358@AddRenderI@2
$LN360@AddRenderI@2:
  001bf	33 c0		 xor	 eax, eax
  001c1	eb 05		 jmp	 SHORT $LN361@AddRenderI@2
$LN359@AddRenderI@2:
  001c3	1b c0		 sbb	 eax, eax
  001c5	83 d8 ff	 sbb	 eax, -1
$LN361@AddRenderI@2:
  001c8	3b c3		 cmp	 eax, ebx
  001ca	75 25		 jne	 SHORT $LN3@AddRenderI@2

; 1005 : 	{
; 1006 : 		SAFEDELETE( m_pCongratulationText );

  001cc	8b 75 e0	 mov	 esi, DWORD PTR _this$GSCopy$[ebp]
  001cf	8b 8e 9c 01 00
	00		 mov	 ecx, DWORD PTR [esi+412]
  001d5	3b cb		 cmp	 ecx, ebx
  001d7	74 0d		 je	 SHORT $LN2@AddRenderI@2
  001d9	8b 01		 mov	 eax, DWORD PTR [ecx]
  001db	6a 01		 push	 1
  001dd	ff 50 40	 call	 DWORD PTR [eax+64]
  001e0	89 9e 9c 01 00
	00		 mov	 DWORD PTR [esi+412], ebx
$LN2@AddRenderI@2:

; 1007 : 		m_pCongratulationText = pImage;

  001e6	8b 45 dc	 mov	 eax, DWORD PTR _pImage$GSCopy$[ebp]
  001e9	89 86 9c 01 00
	00		 mov	 DWORD PTR [esi+412], eax

; 1008 : 	}
; 1009 : 	else

  001ef	eb 0f		 jmp	 SHORT $LN1@AddRenderI@2
$LN3@AddRenderI@2:

; 1010 : 		ioWnd::AddRenderImage( szType, pImage );

  001f1	ff 75 dc	 push	 DWORD PTR _pImage$GSCopy$[ebp]
  001f4	8b 4d e0	 mov	 ecx, DWORD PTR _this$GSCopy$[ebp]
  001f7	ff 75 d8	 push	 DWORD PTR _szType$GSCopy$[ebp]
  001fa	ff 15 00 00 00
	00		 call	 DWORD PTR __imp_?AddRenderImage@ioWnd@@UAEXABVioHashString@@PAVioUIRenderImage@@@Z
$LN1@AddRenderI@2:

; 1011 : }

  00200	8b 4d fc	 mov	 ecx, DWORD PTR __$ArrayPad$[ebp]
  00203	5f		 pop	 edi
  00204	5e		 pop	 esi
  00205	33 cd		 xor	 ecx, ebp
  00207	5b		 pop	 ebx
  00208	e8 00 00 00 00	 call	 @__security_check_cookie@4
  0020d	c9		 leave
  0020e	c2 08 00	 ret	 8
?AddRenderImage@EventChanceRollingWnd@@MAEXABVioHashString@@PAVioUIRenderImage@@@Z ENDP ; EventChanceRollingWnd::AddRenderImage
_TEXT	ENDS
PUBLIC	_xElement$GSCopy$
PUBLIC	__$ArrayPad$
PUBLIC	?ParseExtraInfo@OneDayGoldItemEventWnd@@MAEXAAVioXMLElement@@@Z ; OneDayGoldItemEventWnd::ParseExtraInfo
; Function compile flags: /Ogsp
;	COMDAT ?ParseExtraInfo@OneDayGoldItemEventWnd@@MAEXAAVioXMLElement@@@Z
_TEXT	SEGMENT
_xElement$GSCopy$ = -28					; size = 4
__k$524056 = -24					; size = 14
__k$523825 = -24					; size = 13
__k$523713 = -24					; size = 16
__k$523588 = -24					; size = 16
__$ArrayPad$ = -4					; size = 4
_xElement$ = 8						; size = 4
?ParseExtraInfo@OneDayGoldItemEventWnd@@MAEXAAVioXMLElement@@@Z PROC ; OneDayGoldItemEventWnd::ParseExtraInfo, COMDAT
; _this$ = ecx

; 1381 : {

  00000	55		 push	 ebp
  00001	8b ec		 mov	 ebp, esp
  00003	83 ec 1c	 sub	 esp, 28			; 0000001cH
  00006	a1 00 00 00 00	 mov	 eax, DWORD PTR ___security_cookie
  0000b	33 c5		 xor	 eax, ebp
  0000d	89 45 fc	 mov	 DWORD PTR __$ArrayPad$[ebp], eax
  00010	53		 push	 ebx
  00011	8b 5d 08	 mov	 ebx, DWORD PTR _xElement$[ebp]
  00014	56		 push	 esi
  00015	57		 push	 edi

; 1382 : 	m_dwRollingFullTime	= xElement.GetIntAttribute_e( "RollingFullTime" );

  00016	6a 03		 push	 3
  00018	8b f1		 mov	 esi, ecx

; 1385 : 	m_szCompleteSound   = xElement.GetStringAttribute_e( "CompleteSound" );  

  0001a	89 5d e4	 mov	 DWORD PTR _xElement$GSCopy$[ebp], ebx
  0001d	c7 45 e8 bf 83
	87 86		 mov	 DWORD PTR __k$523588[ebp], -2037939265 ; 868783bfH
  00024	c7 45 ec 84 82
	8c ac		 mov	 DWORD PTR __k$523588[ebp+4], -1400077692 ; ac8c8284H
  0002b	c7 45 f0 98 80
	87 be		 mov	 DWORD PTR __k$523588[ebp+8], -1098415976 ; be878098H
  00032	8d 45 e8	 lea	 eax, DWORD PTR __k$523588[ebp]
  00035	c7 45 f4 84 81
	8e 00		 mov	 DWORD PTR __k$523588[ebp+12], 9339268 ; 008e8184H
  0003c	59		 pop	 ecx
$LL106@ParseExtra@2:

; 1382 : 	m_dwRollingFullTime	= xElement.GetIntAttribute_e( "RollingFullTime" );

  0003d	81 30 ed ec eb
	ea		 xor	 DWORD PTR [eax], -353637139 ; eaebecedH
  00043	83 c0 04	 add	 eax, 4
  00046	49		 dec	 ecx
  00047	75 f4		 jne	 SHORT $LL106@ParseExtra@2
  00049	6a 0c		 push	 12			; 0000000cH
  0004b	5f		 pop	 edi
$LL103@ParseExtra@2:
  0004c	8b c7		 mov	 eax, edi
  0004e	25 03 00 00 80	 and	 eax, -2147483645	; 80000003H
  00053	79 05		 jns	 SHORT $LN443@ParseExtra@2
  00055	48		 dec	 eax
  00056	83 c8 fc	 or	 eax, -4			; fffffffcH
  00059	40		 inc	 eax
$LN443@ParseExtra@2:
  0005a	b1 ed		 mov	 cl, -19			; ffffffedH
  0005c	2a c8		 sub	 cl, al
  0005e	30 4c 3d e8	 xor	 BYTE PTR __k$523588[ebp+edi], cl
  00062	47		 inc	 edi
  00063	83 ff 0f	 cmp	 edi, 15			; 0000000fH
  00066	7c e4		 jl	 SHORT $LL103@ParseExtra@2
  00068	8b 3d 00 00 00
	00		 mov	 edi, DWORD PTR __imp_?GetIntAttribute@ioXMLElement@@QBEHPBD@Z
  0006e	8d 45 e8	 lea	 eax, DWORD PTR __k$523588[ebp]
  00071	50		 push	 eax
  00072	8b cb		 mov	 ecx, ebx
  00074	ff d7		 call	 edi
  00076	6a 03		 push	 3
  00078	89 86 6c 01 00
	00		 mov	 DWORD PTR [esi+364], eax

; 1383 : 	m_dwRollingTickTime	= xElement.GetIntAttribute_e( "RollingTickTime" );

  0007e	c7 45 e8 bf 83
	87 86		 mov	 DWORD PTR __k$523713[ebp], -2037939265 ; 868783bfH
  00085	c7 45 ec 84 82
	8c be		 mov	 DWORD PTR __k$523713[ebp+4], -1098087804 ; be8c8284H
  0008c	c7 45 f0 84 8f
	80 be		 mov	 DWORD PTR __k$523713[ebp+8], -1098870908 ; be808f84H
  00093	8d 45 e8	 lea	 eax, DWORD PTR __k$523713[ebp]
  00096	c7 45 f4 84 81
	8e 00		 mov	 DWORD PTR __k$523713[ebp+12], 9339268 ; 008e8184H
  0009d	59		 pop	 ecx
$LL212@ParseExtra@2:
  0009e	81 30 ed ec eb
	ea		 xor	 DWORD PTR [eax], -353637139 ; eaebecedH
  000a4	83 c0 04	 add	 eax, 4
  000a7	49		 dec	 ecx
  000a8	75 f4		 jne	 SHORT $LL212@ParseExtra@2
  000aa	6a 0c		 push	 12			; 0000000cH
  000ac	58		 pop	 eax
$LL209@ParseExtra@2:
  000ad	8b c8		 mov	 ecx, eax
  000af	81 e1 03 00 00
	80		 and	 ecx, -2147483645	; 80000003H
  000b5	79 05		 jns	 SHORT $LN444@ParseExtra@2
  000b7	49		 dec	 ecx
  000b8	83 c9 fc	 or	 ecx, -4			; fffffffcH
  000bb	41		 inc	 ecx
$LN444@ParseExtra@2:
  000bc	b2 ed		 mov	 dl, -19			; ffffffedH
  000be	2a d1		 sub	 dl, cl
  000c0	30 54 05 e8	 xor	 BYTE PTR __k$523713[ebp+eax], dl
  000c4	40		 inc	 eax
  000c5	83 f8 0f	 cmp	 eax, 15			; 0000000fH
  000c8	7c e3		 jl	 SHORT $LL209@ParseExtra@2
  000ca	8d 45 e8	 lea	 eax, DWORD PTR __k$523713[ebp]
  000cd	50		 push	 eax
  000ce	8b cb		 mov	 ecx, ebx
  000d0	ff d7		 call	 edi
  000d2	6a 03		 push	 3
  000d4	89 86 74 01 00
	00		 mov	 DWORD PTR [esi+372], eax

; 1384 : 	m_szRollingSound    = xElement.GetStringAttribute_e( "RollingSound" );

  000da	c7 45 e8 bf 83
	87 86		 mov	 DWORD PTR __k$523825[ebp], -2037939265 ; 868783bfH
  000e1	c7 45 ec 84 82
	8c b9		 mov	 DWORD PTR __k$523825[ebp+4], -1181973884 ; b98c8284H
  000e8	c7 45 f0 82 99
	85 8e		 mov	 DWORD PTR __k$523825[ebp+8], -1903847038 ; 8e859982H
  000ef	8d 45 e8	 lea	 eax, DWORD PTR __k$523825[ebp]
  000f2	c6 45 f4 00	 mov	 BYTE PTR __k$523825[ebp+12], 0
  000f6	59		 pop	 ecx
$LL318@ParseExtra@2:
  000f7	81 30 ed ec eb
	ea		 xor	 DWORD PTR [eax], -353637139 ; eaebecedH
  000fd	83 c0 04	 add	 eax, 4
  00100	49		 dec	 ecx
  00101	75 f4		 jne	 SHORT $LL318@ParseExtra@2
  00103	8b 3d 00 00 00
	00		 mov	 edi, DWORD PTR __imp_?GetStringAttribute@ioXMLElement@@QBEPBDPBD@Z
  00109	8d 45 e8	 lea	 eax, DWORD PTR __k$523825[ebp]
  0010c	50		 push	 eax
  0010d	8b cb		 mov	 ecx, ebx
  0010f	ff d7		 call	 edi
  00111	8b 1d 00 00 00
	00		 mov	 ebx, DWORD PTR __imp_??4ioHashString@@QAEAAV0@PBD@Z
  00117	50		 push	 eax
  00118	8d 8e 78 01 00
	00		 lea	 ecx, DWORD PTR [esi+376]
  0011e	ff d3		 call	 ebx
  00120	6a 03		 push	 3

; 1385 : 	m_szCompleteSound   = xElement.GetStringAttribute_e( "CompleteSound" );  

  00122	c7 45 e8 ae 83
	86 9a		 mov	 DWORD PTR __k$524056[ebp], -1702460498 ; 9a8683aeH
  00129	c7 45 ec 81 89
	9f 8f		 mov	 DWORD PTR __k$524056[ebp+4], -1885369983 ; 8f9f8981H
  00130	c7 45 f0 be 83
	9e 84		 mov	 DWORD PTR __k$524056[ebp+8], -2069986370 ; 849e83beH
  00137	8d 45 e8	 lea	 eax, DWORD PTR __k$524056[ebp]
  0013a	66 c7 45 f4 89
	00		 mov	 WORD PTR __k$524056[ebp+12], 137 ; 00000089H
  00140	59		 pop	 ecx
$LL424@ParseExtra@2:
  00141	81 30 ed ec eb
	ea		 xor	 DWORD PTR [eax], -353637139 ; eaebecedH
  00147	83 c0 04	 add	 eax, 4
  0014a	49		 dec	 ecx
  0014b	75 f4		 jne	 SHORT $LL424@ParseExtra@2
  0014d	8b 4d e4	 mov	 ecx, DWORD PTR _xElement$GSCopy$[ebp]
  00150	80 75 f4 ed	 xor	 BYTE PTR __k$524056[ebp+12], -19 ; ffffffedH
  00154	8d 45 e8	 lea	 eax, DWORD PTR __k$524056[ebp]
  00157	50		 push	 eax
  00158	ff d7		 call	 edi
  0015a	50		 push	 eax
  0015b	8d 8e 88 01 00
	00		 lea	 ecx, DWORD PTR [esi+392]
  00161	ff d3		 call	 ebx

; 1386 : }

  00163	8b 4d fc	 mov	 ecx, DWORD PTR __$ArrayPad$[ebp]
  00166	5f		 pop	 edi
  00167	5e		 pop	 esi
  00168	33 cd		 xor	 ecx, ebp
  0016a	5b		 pop	 ebx
  0016b	e8 00 00 00 00	 call	 @__security_check_cookie@4
  00170	c9		 leave
  00171	c2 04 00	 ret	 4
?ParseExtraInfo@OneDayGoldItemEventWnd@@MAEXAAVioXMLElement@@@Z ENDP ; OneDayGoldItemEventWnd::ParseExtraInfo
_TEXT	ENDS
PUBLIC	_pImage$GSCopy$
PUBLIC	_this$GSCopy$
PUBLIC	_szType$GSCopy$
PUBLIC	__$ArrayPad$
PUBLIC	?AddRenderImage@OneDayGoldItemEventWnd@@MAEXABVioHashString@@PAVioUIRenderImage@@@Z ; OneDayGoldItemEventWnd::AddRenderImage
; Function compile flags: /Ogsp
;	COMDAT ?AddRenderImage@OneDayGoldItemEventWnd@@MAEXABVioHashString@@PAVioUIRenderImage@@@Z
_TEXT	SEGMENT
_pImage$GSCopy$ = -40					; size = 4
_this$GSCopy$ = -36					; size = 4
_szType$GSCopy$ = -32					; size = 4
__t$524759 = -28					; size = 18
__t$524634 = -28					; size = 17
__t$524509 = -24					; size = 14
__t$524246 = -24					; size = 14
__t$524121 = -24					; size = 13
__t$524384 = -20					; size = 9
__$ArrayPad$ = -4					; size = 4
_szType$ = 8						; size = 4
_pImage$ = 12						; size = 4
?AddRenderImage@OneDayGoldItemEventWnd@@MAEXABVioHashString@@PAVioUIRenderImage@@@Z PROC ; OneDayGoldItemEventWnd::AddRenderImage, COMDAT
; _this$ = ecx

; 1389 : {

  00000	55		 push	 ebp
  00001	8b ec		 mov	 ebp, esp
  00003	83 ec 28	 sub	 esp, 40			; 00000028H
  00006	a1 00 00 00 00	 mov	 eax, DWORD PTR ___security_cookie
  0000b	33 c5		 xor	 eax, ebp
  0000d	89 45 fc	 mov	 DWORD PTR __$ArrayPad$[ebp], eax
  00010	8b 45 08	 mov	 eax, DWORD PTR _szType$[ebp]
  00013	53		 push	 ebx
  00014	56		 push	 esi
  00015	57		 push	 edi

; 1414 : 	}
; 1415 : 	else if( szType == "TextStateComplete" )

  00016	89 45 e0	 mov	 DWORD PTR _szType$GSCopy$[ebp], eax
  00019	8b 45 0c	 mov	 eax, DWORD PTR _pImage$[ebp]
  0001c	33 db		 xor	 ebx, ebx
  0001e	6a 03		 push	 3
  00020	89 4d dc	 mov	 DWORD PTR _this$GSCopy$[ebp], ecx
  00023	89 45 d8	 mov	 DWORD PTR _pImage$GSCopy$[ebp], eax
  00026	c7 45 e8 af 8d
	88 81		 mov	 DWORD PTR __t$524121[ebp], -2121757265 ; 81888dafH
  0002d	c7 45 ec bf 89
	8f a6		 mov	 DWORD PTR __t$524121[ebp+4], -1500542529 ; a68f89bfH
  00034	c7 45 f0 84 8b
	83 9e		 mov	 DWORD PTR __t$524121[ebp+8], -1635546236 ; 9e838b84H
  0003b	8d 45 e8	 lea	 eax, DWORD PTR __t$524121[ebp]
  0003e	88 5d f4	 mov	 BYTE PTR __t$524121[ebp+12], bl
  00041	59		 pop	 ecx
  00042	bf ed ec eb ea	 mov	 edi, -353637139		; eaebecedH
$LL136@AddRenderI@3:

; 1390 : 	if( szType == "BackRedLight" )

  00047	31 38		 xor	 DWORD PTR [eax], edi
  00049	83 c0 04	 add	 eax, 4
  0004c	49		 dec	 ecx
  0004d	75 f8		 jne	 SHORT $LL136@AddRenderI@3
  0004f	8b 4d e0	 mov	 ecx, DWORD PTR _szType$GSCopy$[ebp]
  00052	8d 75 e8	 lea	 esi, DWORD PTR __t$524121[ebp]
  00055	ff 15 00 00 00
	00		 call	 DWORD PTR __imp_?c_str@ioHashString@@QBEPBDXZ
$LL698@AddRenderI@3:
  0005b	8a 08		 mov	 cl, BYTE PTR [eax]
  0005d	3a 0e		 cmp	 cl, BYTE PTR [esi]
  0005f	75 1a		 jne	 SHORT $LN699@AddRenderI@3
  00061	3a cb		 cmp	 cl, bl
  00063	74 12		 je	 SHORT $LN700@AddRenderI@3
  00065	8a 48 01	 mov	 cl, BYTE PTR [eax+1]
  00068	3a 4e 01	 cmp	 cl, BYTE PTR [esi+1]
  0006b	75 0e		 jne	 SHORT $LN699@AddRenderI@3
  0006d	83 c0 02	 add	 eax, 2
  00070	83 c6 02	 add	 esi, 2
  00073	3a cb		 cmp	 cl, bl
  00075	75 e4		 jne	 SHORT $LL698@AddRenderI@3
$LN700@AddRenderI@3:
  00077	33 c0		 xor	 eax, eax
  00079	eb 05		 jmp	 SHORT $LN701@AddRenderI@3
$LN699@AddRenderI@3:
  0007b	1b c0		 sbb	 eax, eax
  0007d	83 d8 ff	 sbb	 eax, -1
$LN701@AddRenderI@3:
  00080	3b c3		 cmp	 eax, ebx
  00082	75 28		 jne	 SHORT $LN693@AddRenderI@3

; 1391 : 	{
; 1392 : 		SAFEDELETE( m_pBackRedLight );

  00084	8b 75 dc	 mov	 esi, DWORD PTR _this$GSCopy$[ebp]
  00087	8b 8e b8 01 00
	00		 mov	 ecx, DWORD PTR [esi+440]
  0008d	3b cb		 cmp	 ecx, ebx
  0008f	74 0d		 je	 SHORT $LN17@AddRenderI@3
  00091	8b 01		 mov	 eax, DWORD PTR [ecx]
  00093	6a 01		 push	 1
  00095	ff 50 40	 call	 DWORD PTR [eax+64]
  00098	89 9e b8 01 00
	00		 mov	 DWORD PTR [esi+440], ebx
$LN17@AddRenderI@3:

; 1393 : 		m_pBackRedLight = pImage;

  0009e	8b 45 d8	 mov	 eax, DWORD PTR _pImage$GSCopy$[ebp]
  000a1	89 86 b8 01 00
	00		 mov	 DWORD PTR [esi+440], eax
  000a7	e9 b7 02 00 00	 jmp	 $LN1@AddRenderI@3
$LN693@AddRenderI@3:

; 1394 : 	}
; 1395 : 	else if( szType == "BackBlueLight" )

  000ac	6a 03		 push	 3
  000ae	c7 45 e8 af 8d
	88 81		 mov	 DWORD PTR __t$524246[ebp], -2121757265 ; 81888dafH
  000b5	c7 45 ec af 80
	9e 8f		 mov	 DWORD PTR __t$524246[ebp+4], -1885437777 ; 8f9e80afH
  000bc	c7 45 f0 a1 85
	8c 82		 mov	 DWORD PTR __t$524246[ebp+8], -2104719967 ; 828c85a1H
  000c3	8d 45 e8	 lea	 eax, DWORD PTR __t$524246[ebp]
  000c6	66 c7 45 f4 99
	00		 mov	 WORD PTR __t$524246[ebp+12], 153 ; 00000099H
  000cc	59		 pop	 ecx
$LL242@AddRenderI@3:
  000cd	31 38		 xor	 DWORD PTR [eax], edi
  000cf	83 c0 04	 add	 eax, 4
  000d2	49		 dec	 ecx
  000d3	75 f8		 jne	 SHORT $LL242@AddRenderI@3
  000d5	8b 4d e0	 mov	 ecx, DWORD PTR _szType$GSCopy$[ebp]
  000d8	80 75 f4 ed	 xor	 BYTE PTR __t$524246[ebp+12], -19 ; ffffffedH
  000dc	8d 75 e8	 lea	 esi, DWORD PTR __t$524246[ebp]
  000df	ff 15 00 00 00
	00		 call	 DWORD PTR __imp_?c_str@ioHashString@@QBEPBDXZ
$LL702@AddRenderI@3:
  000e5	8a 08		 mov	 cl, BYTE PTR [eax]
  000e7	3a 0e		 cmp	 cl, BYTE PTR [esi]
  000e9	75 1a		 jne	 SHORT $LN703@AddRenderI@3
  000eb	3a cb		 cmp	 cl, bl
  000ed	74 12		 je	 SHORT $LN722@AddRenderI@3
  000ef	8a 48 01	 mov	 cl, BYTE PTR [eax+1]
  000f2	3a 4e 01	 cmp	 cl, BYTE PTR [esi+1]
  000f5	75 0e		 jne	 SHORT $LN703@AddRenderI@3
  000f7	83 c0 02	 add	 eax, 2
  000fa	83 c6 02	 add	 esi, 2
  000fd	3a cb		 cmp	 cl, bl
  000ff	75 e4		 jne	 SHORT $LL702@AddRenderI@3
$LN722@AddRenderI@3:
  00101	33 c0		 xor	 eax, eax
  00103	eb 05		 jmp	 SHORT $LN705@AddRenderI@3
$LN703@AddRenderI@3:
  00105	1b c0		 sbb	 eax, eax
  00107	83 d8 ff	 sbb	 eax, -1
$LN705@AddRenderI@3:
  0010a	3b c3		 cmp	 eax, ebx
  0010c	75 28		 jne	 SHORT $LN694@AddRenderI@3

; 1396 : 	{
; 1397 : 		SAFEDELETE( m_pBackBlueLight );

  0010e	8b 75 dc	 mov	 esi, DWORD PTR _this$GSCopy$[ebp]
  00111	8b 8e bc 01 00
	00		 mov	 ecx, DWORD PTR [esi+444]
  00117	3b cb		 cmp	 ecx, ebx
  00119	74 0d		 je	 SHORT $LN14@AddRenderI@3
  0011b	8b 01		 mov	 eax, DWORD PTR [ecx]
  0011d	6a 01		 push	 1
  0011f	ff 50 40	 call	 DWORD PTR [eax+64]
  00122	89 9e bc 01 00
	00		 mov	 DWORD PTR [esi+444], ebx
$LN14@AddRenderI@3:

; 1398 : 		m_pBackBlueLight = pImage;

  00128	8b 45 d8	 mov	 eax, DWORD PTR _pImage$GSCopy$[ebp]
  0012b	89 86 bc 01 00
	00		 mov	 DWORD PTR [esi+444], eax
  00131	e9 2d 02 00 00	 jmp	 $LN1@AddRenderI@3
$LN694@AddRenderI@3:

; 1399 : 	}
; 1400 : 	else if( szType == "RecvIcon" )

  00136	6a 02		 push	 2
  00138	c7 45 ec bf 89
	88 9c		 mov	 DWORD PTR __t$524384[ebp], -1668773441 ; 9c8889bfH
  0013f	c7 45 f0 a4 8f
	84 84		 mov	 DWORD PTR __t$524384[ebp+4], -2071687260 ; 84848fa4H
  00146	8d 45 ec	 lea	 eax, DWORD PTR __t$524384[ebp]
  00149	88 5d f4	 mov	 BYTE PTR __t$524384[ebp+8], bl
  0014c	59		 pop	 ecx
$LL348@AddRenderI@3:
  0014d	31 38		 xor	 DWORD PTR [eax], edi
  0014f	83 c0 04	 add	 eax, 4
  00152	49		 dec	 ecx
  00153	75 f8		 jne	 SHORT $LL348@AddRenderI@3
  00155	8b 4d e0	 mov	 ecx, DWORD PTR _szType$GSCopy$[ebp]
  00158	8d 75 ec	 lea	 esi, DWORD PTR __t$524384[ebp]
  0015b	ff 15 00 00 00
	00		 call	 DWORD PTR __imp_?c_str@ioHashString@@QBEPBDXZ
$LL706@AddRenderI@3:
  00161	8a 08		 mov	 cl, BYTE PTR [eax]
  00163	3a 0e		 cmp	 cl, BYTE PTR [esi]
  00165	75 1a		 jne	 SHORT $LN707@AddRenderI@3
  00167	3a cb		 cmp	 cl, bl
  00169	74 12		 je	 SHORT $LN708@AddRenderI@3
  0016b	8a 48 01	 mov	 cl, BYTE PTR [eax+1]
  0016e	3a 4e 01	 cmp	 cl, BYTE PTR [esi+1]
  00171	75 0e		 jne	 SHORT $LN707@AddRenderI@3
  00173	83 c0 02	 add	 eax, 2
  00176	83 c6 02	 add	 esi, 2
  00179	3a cb		 cmp	 cl, bl
  0017b	75 e4		 jne	 SHORT $LL706@AddRenderI@3
$LN708@AddRenderI@3:
  0017d	33 c0		 xor	 eax, eax
  0017f	eb 05		 jmp	 SHORT $LN709@AddRenderI@3
$LN707@AddRenderI@3:
  00181	1b c0		 sbb	 eax, eax
  00183	83 d8 ff	 sbb	 eax, -1
$LN709@AddRenderI@3:
  00186	3b c3		 cmp	 eax, ebx
  00188	75 28		 jne	 SHORT $LN695@AddRenderI@3

; 1401 : 	{
; 1402 : 		SAFEDELETE( m_pRecvIcon );

  0018a	8b 75 dc	 mov	 esi, DWORD PTR _this$GSCopy$[ebp]
  0018d	8b 8e c0 01 00
	00		 mov	 ecx, DWORD PTR [esi+448]
  00193	3b cb		 cmp	 ecx, ebx
  00195	74 0d		 je	 SHORT $LN11@AddRenderI@3
  00197	8b 01		 mov	 eax, DWORD PTR [ecx]
  00199	6a 01		 push	 1
  0019b	ff 50 40	 call	 DWORD PTR [eax+64]
  0019e	89 9e c0 01 00
	00		 mov	 DWORD PTR [esi+448], ebx
$LN11@AddRenderI@3:

; 1403 : 		m_pRecvIcon = pImage;

  001a4	8b 45 d8	 mov	 eax, DWORD PTR _pImage$GSCopy$[ebp]
  001a7	89 86 c0 01 00
	00		 mov	 DWORD PTR [esi+448], eax
  001ad	e9 b1 01 00 00	 jmp	 $LN1@AddRenderI@3
$LN695@AddRenderI@3:

; 1404 : 	}
; 1405 : 	else if( szType == "TextStateRecv" )

  001b2	6a 03		 push	 3
  001b4	c7 45 e8 b9 89
	93 9e		 mov	 DWORD PTR __t$524509[ebp], -1634498119 ; 9e9389b9H
  001bb	c7 45 ec be 98
	8a 9e		 mov	 DWORD PTR __t$524509[ebp+4], -1635084098 ; 9e8a98beH
  001c2	c7 45 f0 88 be
	8e 89		 mov	 DWORD PTR __t$524509[ebp+8], -1987133816 ; 898ebe88H
  001c9	8d 45 e8	 lea	 eax, DWORD PTR __t$524509[ebp]
  001cc	66 c7 45 f4 9b
	00		 mov	 WORD PTR __t$524509[ebp+12], 155 ; 0000009bH
  001d2	59		 pop	 ecx
$LL454@AddRenderI@3:
  001d3	31 38		 xor	 DWORD PTR [eax], edi
  001d5	83 c0 04	 add	 eax, 4
  001d8	49		 dec	 ecx
  001d9	75 f8		 jne	 SHORT $LL454@AddRenderI@3
  001db	8b 4d e0	 mov	 ecx, DWORD PTR _szType$GSCopy$[ebp]
  001de	80 75 f4 ed	 xor	 BYTE PTR __t$524509[ebp+12], -19 ; ffffffedH
  001e2	8d 75 e8	 lea	 esi, DWORD PTR __t$524509[ebp]
  001e5	ff 15 00 00 00
	00		 call	 DWORD PTR __imp_?c_str@ioHashString@@QBEPBDXZ
$LL710@AddRenderI@3:
  001eb	8a 08		 mov	 cl, BYTE PTR [eax]
  001ed	3a 0e		 cmp	 cl, BYTE PTR [esi]
  001ef	75 1a		 jne	 SHORT $LN711@AddRenderI@3
  001f1	3a cb		 cmp	 cl, bl
  001f3	74 12		 je	 SHORT $LN712@AddRenderI@3
  001f5	8a 48 01	 mov	 cl, BYTE PTR [eax+1]
  001f8	3a 4e 01	 cmp	 cl, BYTE PTR [esi+1]
  001fb	75 0e		 jne	 SHORT $LN711@AddRenderI@3
  001fd	83 c0 02	 add	 eax, 2
  00200	83 c6 02	 add	 esi, 2
  00203	3a cb		 cmp	 cl, bl
  00205	75 e4		 jne	 SHORT $LL710@AddRenderI@3
$LN712@AddRenderI@3:
  00207	33 c0		 xor	 eax, eax
  00209	eb 05		 jmp	 SHORT $LN713@AddRenderI@3
$LN711@AddRenderI@3:
  0020b	1b c0		 sbb	 eax, eax
  0020d	83 d8 ff	 sbb	 eax, -1
$LN713@AddRenderI@3:
  00210	3b c3		 cmp	 eax, ebx
  00212	75 28		 jne	 SHORT $LN696@AddRenderI@3

; 1406 : 	{
; 1407 : 		SAFEDELETE( m_pTextStateRecv );

  00214	8b 75 dc	 mov	 esi, DWORD PTR _this$GSCopy$[ebp]
  00217	8b 8e c4 01 00
	00		 mov	 ecx, DWORD PTR [esi+452]
  0021d	3b cb		 cmp	 ecx, ebx
  0021f	74 0d		 je	 SHORT $LN8@AddRenderI@3
  00221	8b 01		 mov	 eax, DWORD PTR [ecx]
  00223	6a 01		 push	 1
  00225	ff 50 40	 call	 DWORD PTR [eax+64]
  00228	89 9e c4 01 00
	00		 mov	 DWORD PTR [esi+452], ebx
$LN8@AddRenderI@3:

; 1408 : 		m_pTextStateRecv = pImage;

  0022e	8b 45 d8	 mov	 eax, DWORD PTR _pImage$GSCopy$[ebp]
  00231	89 86 c4 01 00
	00		 mov	 DWORD PTR [esi+452], eax
  00237	e9 27 01 00 00	 jmp	 $LN1@AddRenderI@3
$LN696@AddRenderI@3:

; 1409 : 	}
; 1410 : 	else if( szType == "TextStateRolling" )

  0023c	6a 04		 push	 4
  0023e	c7 45 e4 b9 89
	93 9e		 mov	 DWORD PTR __t$524634[ebp], -1634498119 ; 9e9389b9H
  00245	c7 45 e8 be 98
	8a 9e		 mov	 DWORD PTR __t$524634[ebp+4], -1635084098 ; 9e8a98beH
  0024c	c7 45 ec 88 be
	84 86		 mov	 DWORD PTR __t$524634[ebp+8], -2038120824 ; 8684be88H
  00253	c7 45 f0 81 85
	85 8d		 mov	 DWORD PTR __t$524634[ebp+12], -1920629375 ; 8d858581H
  0025a	8d 45 e4	 lea	 eax, DWORD PTR __t$524634[ebp]
  0025d	88 5d f4	 mov	 BYTE PTR __t$524634[ebp+16], bl
  00260	59		 pop	 ecx
$LL560@AddRenderI@3:
  00261	31 38		 xor	 DWORD PTR [eax], edi
  00263	83 c0 04	 add	 eax, 4
  00266	49		 dec	 ecx
  00267	75 f8		 jne	 SHORT $LL560@AddRenderI@3
  00269	8b 4d e0	 mov	 ecx, DWORD PTR _szType$GSCopy$[ebp]
  0026c	8d 75 e4	 lea	 esi, DWORD PTR __t$524634[ebp]
  0026f	ff 15 00 00 00
	00		 call	 DWORD PTR __imp_?c_str@ioHashString@@QBEPBDXZ
$LL714@AddRenderI@3:
  00275	8a 08		 mov	 cl, BYTE PTR [eax]
  00277	3a 0e		 cmp	 cl, BYTE PTR [esi]
  00279	75 1a		 jne	 SHORT $LN715@AddRenderI@3
  0027b	3a cb		 cmp	 cl, bl
  0027d	74 12		 je	 SHORT $LN716@AddRenderI@3
  0027f	8a 48 01	 mov	 cl, BYTE PTR [eax+1]
  00282	3a 4e 01	 cmp	 cl, BYTE PTR [esi+1]
  00285	75 0e		 jne	 SHORT $LN715@AddRenderI@3
  00287	83 c0 02	 add	 eax, 2
  0028a	83 c6 02	 add	 esi, 2
  0028d	3a cb		 cmp	 cl, bl
  0028f	75 e4		 jne	 SHORT $LL714@AddRenderI@3
$LN716@AddRenderI@3:
  00291	33 c0		 xor	 eax, eax
  00293	eb 05		 jmp	 SHORT $LN717@AddRenderI@3
$LN715@AddRenderI@3:
  00295	1b c0		 sbb	 eax, eax
  00297	83 d8 ff	 sbb	 eax, -1
$LN717@AddRenderI@3:
  0029a	3b c3		 cmp	 eax, ebx
  0029c	75 28		 jne	 SHORT $LN697@AddRenderI@3

; 1411 : 	{
; 1412 : 		SAFEDELETE( m_pTextStateRolling );

  0029e	8b 75 dc	 mov	 esi, DWORD PTR _this$GSCopy$[ebp]
  002a1	8b 8e c8 01 00
	00		 mov	 ecx, DWORD PTR [esi+456]
  002a7	3b cb		 cmp	 ecx, ebx
  002a9	74 0d		 je	 SHORT $LN5@AddRenderI@3
  002ab	8b 01		 mov	 eax, DWORD PTR [ecx]
  002ad	6a 01		 push	 1
  002af	ff 50 40	 call	 DWORD PTR [eax+64]
  002b2	89 9e c8 01 00
	00		 mov	 DWORD PTR [esi+456], ebx
$LN5@AddRenderI@3:

; 1413 : 		m_pTextStateRolling = pImage;

  002b8	8b 45 d8	 mov	 eax, DWORD PTR _pImage$GSCopy$[ebp]
  002bb	89 86 c8 01 00
	00		 mov	 DWORD PTR [esi+456], eax
  002c1	e9 9d 00 00 00	 jmp	 $LN1@AddRenderI@3
$LN697@AddRenderI@3:

; 1414 : 	}
; 1415 : 	else if( szType == "TextStateComplete" )

  002c6	6a 04		 push	 4
  002c8	c7 45 e4 b9 89
	93 9e		 mov	 DWORD PTR __t$524759[ebp], -1634498119 ; 9e9389b9H
  002cf	c7 45 e8 be 98
	8a 9e		 mov	 DWORD PTR __t$524759[ebp+4], -1635084098 ; 9e8a98beH
  002d6	c7 45 ec 88 af
	84 87		 mov	 DWORD PTR __t$524759[ebp+8], -2021347448 ; 8784af88H
  002dd	c7 45 f0 9d 80
	8e 9e		 mov	 DWORD PTR __t$524759[ebp+12], -1634828131 ; 9e8e809dH
  002e4	8d 45 e4	 lea	 eax, DWORD PTR __t$524759[ebp]
  002e7	66 c7 45 f4 88
	00		 mov	 WORD PTR __t$524759[ebp+16], 136 ; 00000088H
  002ed	59		 pop	 ecx
$LL666@AddRenderI@3:
  002ee	31 38		 xor	 DWORD PTR [eax], edi
  002f0	83 c0 04	 add	 eax, 4
  002f3	49		 dec	 ecx
  002f4	75 f8		 jne	 SHORT $LL666@AddRenderI@3
  002f6	8b 4d e0	 mov	 ecx, DWORD PTR _szType$GSCopy$[ebp]
  002f9	80 75 f4 ed	 xor	 BYTE PTR __t$524759[ebp+16], -19 ; ffffffedH
  002fd	8d 75 e4	 lea	 esi, DWORD PTR __t$524759[ebp]
  00300	ff 15 00 00 00
	00		 call	 DWORD PTR __imp_?c_str@ioHashString@@QBEPBDXZ
$LL718@AddRenderI@3:
  00306	8a 08		 mov	 cl, BYTE PTR [eax]
  00308	3a 0e		 cmp	 cl, BYTE PTR [esi]
  0030a	75 1a		 jne	 SHORT $LN719@AddRenderI@3
  0030c	3a cb		 cmp	 cl, bl
  0030e	74 12		 je	 SHORT $LN720@AddRenderI@3
  00310	8a 48 01	 mov	 cl, BYTE PTR [eax+1]
  00313	3a 4e 01	 cmp	 cl, BYTE PTR [esi+1]
  00316	75 0e		 jne	 SHORT $LN719@AddRenderI@3
  00318	83 c0 02	 add	 eax, 2
  0031b	83 c6 02	 add	 esi, 2
  0031e	3a cb		 cmp	 cl, bl
  00320	75 e4		 jne	 SHORT $LL718@AddRenderI@3
$LN720@AddRenderI@3:
  00322	33 c0		 xor	 eax, eax
  00324	eb 05		 jmp	 SHORT $LN721@AddRenderI@3
$LN719@AddRenderI@3:
  00326	1b c0		 sbb	 eax, eax
  00328	83 d8 ff	 sbb	 eax, -1
$LN721@AddRenderI@3:
  0032b	3b c3		 cmp	 eax, ebx
  0032d	75 25		 jne	 SHORT $LN3@AddRenderI@3

; 1416 : 	{
; 1417 : 		SAFEDELETE( m_pTextStateComplete );

  0032f	8b 75 dc	 mov	 esi, DWORD PTR _this$GSCopy$[ebp]
  00332	8b 8e cc 01 00
	00		 mov	 ecx, DWORD PTR [esi+460]
  00338	3b cb		 cmp	 ecx, ebx
  0033a	74 0d		 je	 SHORT $LN2@AddRenderI@3
  0033c	8b 01		 mov	 eax, DWORD PTR [ecx]
  0033e	6a 01		 push	 1
  00340	ff 50 40	 call	 DWORD PTR [eax+64]
  00343	89 9e cc 01 00
	00		 mov	 DWORD PTR [esi+460], ebx
$LN2@AddRenderI@3:

; 1418 : 		m_pTextStateComplete = pImage;

  00349	8b 45 d8	 mov	 eax, DWORD PTR _pImage$GSCopy$[ebp]
  0034c	89 86 cc 01 00
	00		 mov	 DWORD PTR [esi+460], eax

; 1419 : 	}
; 1420 : 	else

  00352	eb 0f		 jmp	 SHORT $LN1@AddRenderI@3
$LN3@AddRenderI@3:

; 1421 : 		ioWnd::AddRenderImage( szType, pImage );

  00354	ff 75 d8	 push	 DWORD PTR _pImage$GSCopy$[ebp]
  00357	8b 4d dc	 mov	 ecx, DWORD PTR _this$GSCopy$[ebp]
  0035a	ff 75 e0	 push	 DWORD PTR _szType$GSCopy$[ebp]
  0035d	ff 15 00 00 00
	00		 call	 DWORD PTR __imp_?AddRenderImage@ioWnd@@UAEXABVioHashString@@PAVioUIRenderImage@@@Z
$LN1@AddRenderI@3:

; 1422 : }

  00363	8b 4d fc	 mov	 ecx, DWORD PTR __$ArrayPad$[ebp]
  00366	5f		 pop	 edi
  00367	5e		 pop	 esi
  00368	33 cd		 xor	 ecx, ebp
  0036a	5b		 pop	 ebx
  0036b	e8 00 00 00 00	 call	 @__security_check_cookie@4
  00370	c9		 leave
  00371	c2 08 00	 ret	 8
?AddRenderImage@OneDayGoldItemEventWnd@@MAEXABVioHashString@@PAVioUIRenderImage@@@Z ENDP ; OneDayGoldItemEventWnd::AddRenderImage
_TEXT	ENDS
PUBLIC	??0?$vector@PAVioUIRenderImage@@V?$allocator@PAVioUIRenderImage@@@std@@@std@@QAE@XZ ; std::vector<ioUIRenderImage *,std::allocator<ioUIRenderImage *> >::vector<ioUIRenderImage *,std::allocator<ioUIRenderImage *> >
; Function compile flags: /Ogsp
; File c:\program files (x86)\microsoft visual studio 10.0\vc\include\vector
;	COMDAT ??0?$vector@PAVioUIRenderImage@@V?$allocator@PAVioUIRenderImage@@@std@@@std@@QAE@XZ
_TEXT	SEGMENT
??0?$vector@PAVioUIRenderImage@@V?$allocator@PAVioUIRenderImage@@@std@@@std@@QAE@XZ PROC ; std::vector<ioUIRenderImage *,std::allocator<ioUIRenderImage *> >::vector<ioUIRenderImage *,std::allocator<ioUIRenderImage *> >, COMDAT
; _this$ = ecx

; 507  : 		{	// construct empty vector

  00000	8b c1		 mov	 eax, ecx
  00002	33 c9		 xor	 ecx, ecx
  00004	89 08		 mov	 DWORD PTR [eax], ecx
  00006	89 48 04	 mov	 DWORD PTR [eax+4], ecx
  00009	89 48 08	 mov	 DWORD PTR [eax+8], ecx

; 508  : 		}

  0000c	c3		 ret	 0
??0?$vector@PAVioUIRenderImage@@V?$allocator@PAVioUIRenderImage@@@std@@@std@@QAE@XZ ENDP ; std::vector<ioUIRenderImage *,std::allocator<ioUIRenderImage *> >::vector<ioUIRenderImage *,std::allocator<ioUIRenderImage *> >
_TEXT	ENDS
PUBLIC	?begin@?$vector@PAVioUIRenderImage@@V?$allocator@PAVioUIRenderImage@@@std@@@std@@QAE?AV?$_Vector_iterator@V?$_Vector_val@PAVioUIRenderImage@@V?$allocator@PAVioUIRenderImage@@@std@@@std@@@2@XZ ; std::vector<ioUIRenderImage *,std::allocator<ioUIRenderImage *> >::begin
; Function compile flags: /Ogsp
;	COMDAT ?begin@?$vector@PAVioUIRenderImage@@V?$allocator@PAVioUIRenderImage@@@std@@@std@@QAE?AV?$_Vector_iterator@V?$_Vector_val@PAVioUIRenderImage@@V?$allocator@PAVioUIRenderImage@@@std@@@std@@@2@XZ
_TEXT	SEGMENT
___$ReturnUdt$ = 8					; size = 4
?begin@?$vector@PAVioUIRenderImage@@V?$allocator@PAVioUIRenderImage@@@std@@@std@@QAE?AV?$_Vector_iterator@V?$_Vector_val@PAVioUIRenderImage@@V?$allocator@PAVioUIRenderImage@@@std@@@std@@@2@XZ PROC ; std::vector<ioUIRenderImage *,std::allocator<ioUIRenderImage *> >::begin, COMDAT
; _this$ = ecx

; 781  : 		{	// return iterator for beginning of mutable sequence

  00000	55		 push	 ebp
  00001	8b ec		 mov	 ebp, esp

; 782  : 		return (iterator(this->_Myfirst, this));

  00003	8b 09		 mov	 ecx, DWORD PTR [ecx]
  00005	8b 45 08	 mov	 eax, DWORD PTR ___$ReturnUdt$[ebp]
  00008	89 08		 mov	 DWORD PTR [eax], ecx

; 783  : 		}

  0000a	5d		 pop	 ebp
  0000b	c2 04 00	 ret	 4
?begin@?$vector@PAVioUIRenderImage@@V?$allocator@PAVioUIRenderImage@@@std@@@std@@QAE?AV?$_Vector_iterator@V?$_Vector_val@PAVioUIRenderImage@@V?$allocator@PAVioUIRenderImage@@@std@@@std@@@2@XZ ENDP ; std::vector<ioUIRenderImage *,std::allocator<ioUIRenderImage *> >::begin
_TEXT	ENDS
PUBLIC	?end@?$vector@PAVioUIRenderImage@@V?$allocator@PAVioUIRenderImage@@@std@@@std@@QAE?AV?$_Vector_iterator@V?$_Vector_val@PAVioUIRenderImage@@V?$allocator@PAVioUIRenderImage@@@std@@@std@@@2@XZ ; std::vector<ioUIRenderImage *,std::allocator<ioUIRenderImage *> >::end
; Function compile flags: /Ogsp
;	COMDAT ?end@?$vector@PAVioUIRenderImage@@V?$allocator@PAVioUIRenderImage@@@std@@@std@@QAE?AV?$_Vector_iterator@V?$_Vector_val@PAVioUIRenderImage@@V?$allocator@PAVioUIRenderImage@@@std@@@std@@@2@XZ
_TEXT	SEGMENT
___$ReturnUdt$ = 8					; size = 4
?end@?$vector@PAVioUIRenderImage@@V?$allocator@PAVioUIRenderImage@@@std@@@std@@QAE?AV?$_Vector_iterator@V?$_Vector_val@PAVioUIRenderImage@@V?$allocator@PAVioUIRenderImage@@@std@@@std@@@2@XZ PROC ; std::vector<ioUIRenderImage *,std::allocator<ioUIRenderImage *> >::end, COMDAT
; _this$ = ecx

; 791  : 		{	// return iterator for end of mutable sequence

  00000	55		 push	 ebp
  00001	8b ec		 mov	 ebp, esp

; 792  : 		return (iterator(this->_Mylast, this));

  00003	8b 49 04	 mov	 ecx, DWORD PTR [ecx+4]
  00006	8b 45 08	 mov	 eax, DWORD PTR ___$ReturnUdt$[ebp]
  00009	89 08		 mov	 DWORD PTR [eax], ecx

; 793  : 		}

  0000b	5d		 pop	 ebp
  0000c	c2 04 00	 ret	 4
?end@?$vector@PAVioUIRenderImage@@V?$allocator@PAVioUIRenderImage@@@std@@@std@@QAE?AV?$_Vector_iterator@V?$_Vector_val@PAVioUIRenderImage@@V?$allocator@PAVioUIRenderImage@@@std@@@std@@@2@XZ ENDP ; std::vector<ioUIRenderImage *,std::allocator<ioUIRenderImage *> >::end
_TEXT	ENDS
PUBLIC	??0?$vector@PAUtagEventInfo@@V?$allocator@PAUtagEventInfo@@@std@@@std@@QAE@XZ ; std::vector<tagEventInfo *,std::allocator<tagEventInfo *> >::vector<tagEventInfo *,std::allocator<tagEventInfo *> >
; Function compile flags: /Ogsp
;	COMDAT ??0?$vector@PAUtagEventInfo@@V?$allocator@PAUtagEventInfo@@@std@@@std@@QAE@XZ
_TEXT	SEGMENT
??0?$vector@PAUtagEventInfo@@V?$allocator@PAUtagEventInfo@@@std@@@std@@QAE@XZ PROC ; std::vector<tagEventInfo *,std::allocator<tagEventInfo *> >::vector<tagEventInfo *,std::allocator<tagEventInfo *> >, COMDAT
; _this$ = ecx

; 507  : 		{	// construct empty vector

  00000	8b c1		 mov	 eax, ecx
  00002	33 c9		 xor	 ecx, ecx
  00004	89 08		 mov	 DWORD PTR [eax], ecx
  00006	89 48 04	 mov	 DWORD PTR [eax+4], ecx
  00009	89 48 08	 mov	 DWORD PTR [eax+8], ecx

; 508  : 		}

  0000c	c3		 ret	 0
??0?$vector@PAUtagEventInfo@@V?$allocator@PAUtagEventInfo@@@std@@@std@@QAE@XZ ENDP ; std::vector<tagEventInfo *,std::allocator<tagEventInfo *> >::vector<tagEventInfo *,std::allocator<tagEventInfo *> >
_TEXT	ENDS
PUBLIC	?begin@?$vector@PAUtagEventInfo@@V?$allocator@PAUtagEventInfo@@@std@@@std@@QAE?AV?$_Vector_iterator@V?$_Vector_val@PAUtagEventInfo@@V?$allocator@PAUtagEventInfo@@@std@@@std@@@2@XZ ; std::vector<tagEventInfo *,std::allocator<tagEventInfo *> >::begin
; Function compile flags: /Ogsp
;	COMDAT ?begin@?$vector@PAUtagEventInfo@@V?$allocator@PAUtagEventInfo@@@std@@@std@@QAE?AV?$_Vector_iterator@V?$_Vector_val@PAUtagEventInfo@@V?$allocator@PAUtagEventInfo@@@std@@@std@@@2@XZ
_TEXT	SEGMENT
___$ReturnUdt$ = 8					; size = 4
?begin@?$vector@PAUtagEventInfo@@V?$allocator@PAUtagEventInfo@@@std@@@std@@QAE?AV?$_Vector_iterator@V?$_Vector_val@PAUtagEventInfo@@V?$allocator@PAUtagEventInfo@@@std@@@std@@@2@XZ PROC ; std::vector<tagEventInfo *,std::allocator<tagEventInfo *> >::begin, COMDAT
; _this$ = ecx

; 781  : 		{	// return iterator for beginning of mutable sequence

  00000	55		 push	 ebp
  00001	8b ec		 mov	 ebp, esp

; 782  : 		return (iterator(this->_Myfirst, this));

  00003	8b 09		 mov	 ecx, DWORD PTR [ecx]
  00005	8b 45 08	 mov	 eax, DWORD PTR ___$ReturnUdt$[ebp]
  00008	89 08		 mov	 DWORD PTR [eax], ecx

; 783  : 		}

  0000a	5d		 pop	 ebp
  0000b	c2 04 00	 ret	 4
?begin@?$vector@PAUtagEventInfo@@V?$allocator@PAUtagEventInfo@@@std@@@std@@QAE?AV?$_Vector_iterator@V?$_Vector_val@PAUtagEventInfo@@V?$allocator@PAUtagEventInfo@@@std@@@std@@@2@XZ ENDP ; std::vector<tagEventInfo *,std::allocator<tagEventInfo *> >::begin
_TEXT	ENDS
PUBLIC	?end@?$vector@PAUtagEventInfo@@V?$allocator@PAUtagEventInfo@@@std@@@std@@QAE?AV?$_Vector_iterator@V?$_Vector_val@PAUtagEventInfo@@V?$allocator@PAUtagEventInfo@@@std@@@std@@@2@XZ ; std::vector<tagEventInfo *,std::allocator<tagEventInfo *> >::end
; Function compile flags: /Ogsp
;	COMDAT ?end@?$vector@PAUtagEventInfo@@V?$allocator@PAUtagEventInfo@@@std@@@std@@QAE?AV?$_Vector_iterator@V?$_Vector_val@PAUtagEventInfo@@V?$allocator@PAUtagEventInfo@@@std@@@std@@@2@XZ
_TEXT	SEGMENT
___$ReturnUdt$ = 8					; size = 4
?end@?$vector@PAUtagEventInfo@@V?$allocator@PAUtagEventInfo@@@std@@@std@@QAE?AV?$_Vector_iterator@V?$_Vector_val@PAUtagEventInfo@@V?$allocator@PAUtagEventInfo@@@std@@@std@@@2@XZ PROC ; std::vector<tagEventInfo *,std::allocator<tagEventInfo *> >::end, COMDAT
; _this$ = ecx

; 791  : 		{	// return iterator for end of mutable sequence

  00000	55		 push	 ebp
  00001	8b ec		 mov	 ebp, esp

; 792  : 		return (iterator(this->_Mylast, this));

  00003	8b 49 04	 mov	 ecx, DWORD PTR [ecx+4]
  00006	8b 45 08	 mov	 eax, DWORD PTR ___$ReturnUdt$[ebp]
  00009	89 08		 mov	 DWORD PTR [eax], ecx

; 793  : 		}

  0000b	5d		 pop	 ebp
  0000c	c2 04 00	 ret	 4
?end@?$vector@PAUtagEventInfo@@V?$allocator@PAUtagEventInfo@@@std@@@std@@QAE?AV?$_Vector_iterator@V?$_Vector_val@PAUtagEventInfo@@V?$allocator@PAUtagEventInfo@@@std@@@std@@@2@XZ ENDP ; std::vector<tagEventInfo *,std::allocator<tagEventInfo *> >::end
_TEXT	ENDS
PUBLIC	??9?$_Vector_const_iterator@V?$_Vector_val@PAUtagEventInfo@@V?$allocator@PAUtagEventInfo@@@std@@@std@@@std@@QBE_NABV01@@Z ; std::_Vector_const_iterator<std::_Vector_val<tagEventInfo *,std::allocator<tagEventInfo *> > >::operator!=
; Function compile flags: /Ogsp
;	COMDAT ??9?$_Vector_const_iterator@V?$_Vector_val@PAUtagEventInfo@@V?$allocator@PAUtagEventInfo@@@std@@@std@@@std@@QBE_NABV01@@Z
_TEXT	SEGMENT
__Right$ = 8						; size = 4
??9?$_Vector_const_iterator@V?$_Vector_val@PAUtagEventInfo@@V?$allocator@PAUtagEventInfo@@@std@@@std@@@std@@QBE_NABV01@@Z PROC ; std::_Vector_const_iterator<std::_Vector_val<tagEventInfo *,std::allocator<tagEventInfo *> > >::operator!=, COMDAT
; _this$ = ecx

; 207  : 		{	// test for iterator inequality

  00000	55		 push	 ebp
  00001	8b ec		 mov	 ebp, esp

; 208  : 		return (!(*this == _Right));

  00003	8b 01		 mov	 eax, DWORD PTR [ecx]
  00005	8b 55 08	 mov	 edx, DWORD PTR __Right$[ebp]
  00008	33 c9		 xor	 ecx, ecx
  0000a	3b 02		 cmp	 eax, DWORD PTR [edx]
  0000c	0f 95 c0	 setne	 al

; 209  : 		}

  0000f	5d		 pop	 ebp
  00010	c2 04 00	 ret	 4
??9?$_Vector_const_iterator@V?$_Vector_val@PAUtagEventInfo@@V?$allocator@PAUtagEventInfo@@@std@@@std@@@std@@QBE_NABV01@@Z ENDP ; std::_Vector_const_iterator<std::_Vector_val<tagEventInfo *,std::allocator<tagEventInfo *> > >::operator!=
_TEXT	ENDS
PUBLIC	??E?$_Vector_iterator@V?$_Vector_val@PAVioUIRenderImage@@V?$allocator@PAVioUIRenderImage@@@std@@@std@@@std@@QAE?AV01@H@Z ; std::_Vector_iterator<std::_Vector_val<ioUIRenderImage *,std::allocator<ioUIRenderImage *> > >::operator++
; Function compile flags: /Ogsp
;	COMDAT ??E?$_Vector_iterator@V?$_Vector_val@PAVioUIRenderImage@@V?$allocator@PAVioUIRenderImage@@@std@@@std@@@std@@QAE?AV01@H@Z
_TEXT	SEGMENT
___$ReturnUdt$ = 8					; size = 4
___formal$ = 12						; size = 4
??E?$_Vector_iterator@V?$_Vector_val@PAVioUIRenderImage@@V?$allocator@PAVioUIRenderImage@@@std@@@std@@@std@@QAE?AV01@H@Z PROC ; std::_Vector_iterator<std::_Vector_val<ioUIRenderImage *,std::allocator<ioUIRenderImage *> > >::operator++, COMDAT
; _this$ = ecx

; 337  : 		{	// postincrement

  00000	55		 push	 ebp
  00001	8b ec		 mov	 ebp, esp

; 338  : 		_Myiter _Tmp = *this;

  00003	8b 11		 mov	 edx, DWORD PTR [ecx]
  00005	8b 45 08	 mov	 eax, DWORD PTR ___$ReturnUdt$[ebp]
  00008	89 10		 mov	 DWORD PTR [eax], edx

; 339  : 		++*this;

  0000a	83 c2 04	 add	 edx, 4
  0000d	89 11		 mov	 DWORD PTR [ecx], edx

; 340  : 		return (_Tmp);
; 341  : 		}

  0000f	5d		 pop	 ebp
  00010	c2 08 00	 ret	 8
??E?$_Vector_iterator@V?$_Vector_val@PAVioUIRenderImage@@V?$allocator@PAVioUIRenderImage@@@std@@@std@@@std@@QAE?AV01@H@Z ENDP ; std::_Vector_iterator<std::_Vector_val<ioUIRenderImage *,std::allocator<ioUIRenderImage *> > >::operator++
_TEXT	ENDS
PUBLIC	??9?$_Vector_const_iterator@V?$_Vector_val@PAVioUIRenderImage@@V?$allocator@PAVioUIRenderImage@@@std@@@std@@@std@@QBE_NABV01@@Z ; std::_Vector_const_iterator<std::_Vector_val<ioUIRenderImage *,std::allocator<ioUIRenderImage *> > >::operator!=
; Function compile flags: /Ogsp
;	COMDAT ??9?$_Vector_const_iterator@V?$_Vector_val@PAVioUIRenderImage@@V?$allocator@PAVioUIRenderImage@@@std@@@std@@@std@@QBE_NABV01@@Z
_TEXT	SEGMENT
__Right$ = 8						; size = 4
??9?$_Vector_const_iterator@V?$_Vector_val@PAVioUIRenderImage@@V?$allocator@PAVioUIRenderImage@@@std@@@std@@@std@@QBE_NABV01@@Z PROC ; std::_Vector_const_iterator<std::_Vector_val<ioUIRenderImage *,std::allocator<ioUIRenderImage *> > >::operator!=, COMDAT
; _this$ = ecx

; 207  : 		{	// test for iterator inequality

  00000	55		 push	 ebp
  00001	8b ec		 mov	 ebp, esp

; 208  : 		return (!(*this == _Right));

  00003	8b 01		 mov	 eax, DWORD PTR [ecx]
  00005	8b 55 08	 mov	 edx, DWORD PTR __Right$[ebp]
  00008	33 c9		 xor	 ecx, ecx
  0000a	3b 02		 cmp	 eax, DWORD PTR [edx]
  0000c	0f 95 c0	 setne	 al

; 209  : 		}

  0000f	5d		 pop	 ebp
  00010	c2 04 00	 ret	 4
??9?$_Vector_const_iterator@V?$_Vector_val@PAVioUIRenderImage@@V?$allocator@PAVioUIRenderImage@@@std@@@std@@@std@@QBE_NABV01@@Z ENDP ; std::_Vector_const_iterator<std::_Vector_val<ioUIRenderImage *,std::allocator<ioUIRenderImage *> > >::operator!=
_TEXT	ENDS
PUBLIC	?_Make_iter@?$vector@PAUtagEventInfo@@V?$allocator@PAUtagEventInfo@@@std@@@std@@QBE?AV?$_Vector_iterator@V?$_Vector_val@PAUtagEventInfo@@V?$allocator@PAUtagEventInfo@@@std@@@std@@@2@V?$_Vector_const_iterator@V?$_Vector_val@PAUtagEventInfo@@V?$allocator@PAUtagEventInfo@@@std@@@std@@@2@@Z ; std::vector<tagEventInfo *,std::allocator<tagEventInfo *> >::_Make_iter
; Function compile flags: /Ogsp
;	COMDAT ?_Make_iter@?$vector@PAUtagEventInfo@@V?$allocator@PAUtagEventInfo@@@std@@@std@@QBE?AV?$_Vector_iterator@V?$_Vector_val@PAUtagEventInfo@@V?$allocator@PAUtagEventInfo@@@std@@@std@@@2@V?$_Vector_const_iterator@V?$_Vector_val@PAUtagEventInfo@@V?$allocator@PAUtagEventInfo@@@std@@@std@@@2@@Z
_TEXT	SEGMENT
___$ReturnUdt$ = 8					; size = 4
__Where$ = 12						; size = 4
?_Make_iter@?$vector@PAUtagEventInfo@@V?$allocator@PAUtagEventInfo@@@std@@@std@@QBE?AV?$_Vector_iterator@V?$_Vector_val@PAUtagEventInfo@@V?$allocator@PAUtagEventInfo@@@std@@@std@@@2@V?$_Vector_const_iterator@V?$_Vector_val@PAUtagEventInfo@@V?$allocator@PAUtagEventInfo@@@std@@@std@@@2@@Z PROC ; std::vector<tagEventInfo *,std::allocator<tagEventInfo *> >::_Make_iter, COMDAT
; _this$ = ecx

; 801  : 		{	// make iterator from const_iterator

  00000	55		 push	 ebp
  00001	8b ec		 mov	 ebp, esp

; 802  : 		return (iterator(_Where._Ptr, this));

  00003	8b 45 08	 mov	 eax, DWORD PTR ___$ReturnUdt$[ebp]
  00006	8b 4d 0c	 mov	 ecx, DWORD PTR __Where$[ebp]
  00009	89 08		 mov	 DWORD PTR [eax], ecx

; 803  : 		}

  0000b	5d		 pop	 ebp
  0000c	c2 08 00	 ret	 8
?_Make_iter@?$vector@PAUtagEventInfo@@V?$allocator@PAUtagEventInfo@@@std@@@std@@QBE?AV?$_Vector_iterator@V?$_Vector_val@PAUtagEventInfo@@V?$allocator@PAUtagEventInfo@@@std@@@std@@@2@V?$_Vector_const_iterator@V?$_Vector_val@PAUtagEventInfo@@V?$allocator@PAUtagEventInfo@@@std@@@std@@@2@@Z ENDP ; std::vector<tagEventInfo *,std::allocator<tagEventInfo *> >::_Make_iter
_TEXT	ENDS
PUBLIC	?_Destroy@?$vector@PAUtagEventInfo@@V?$allocator@PAUtagEventInfo@@@std@@@std@@IAEXPAPAUtagEventInfo@@0@Z ; std::vector<tagEventInfo *,std::allocator<tagEventInfo *> >::_Destroy
; Function compile flags: /Ogsp
;	COMDAT ?_Destroy@?$vector@PAUtagEventInfo@@V?$allocator@PAUtagEventInfo@@@std@@@std@@IAEXPAPAUtagEventInfo@@0@Z
_TEXT	SEGMENT
__First$ = 8						; size = 4
__Last$ = 12						; size = 4
?_Destroy@?$vector@PAUtagEventInfo@@V?$allocator@PAUtagEventInfo@@@std@@@std@@IAEXPAPAUtagEventInfo@@0@Z PROC ; std::vector<tagEventInfo *,std::allocator<tagEventInfo *> >::_Destroy, COMDAT
; _this$ = ecx

; 1270 : 		_Destroy_range(_First, _Last, this->_Alval);
; 1271 : 		}

  00000	c2 08 00	 ret	 8
?_Destroy@?$vector@PAUtagEventInfo@@V?$allocator@PAUtagEventInfo@@@std@@@std@@IAEXPAPAUtagEventInfo@@0@Z ENDP ; std::vector<tagEventInfo *,std::allocator<tagEventInfo *> >::_Destroy
_TEXT	ENDS
PUBLIC	?_Tidy@?$vector@PAUtagEventInfo@@V?$allocator@PAUtagEventInfo@@@std@@@std@@IAEXXZ ; std::vector<tagEventInfo *,std::allocator<tagEventInfo *> >::_Tidy
EXTRN	__imp_?_Orphan_all@_Container_base0@std@@QAEXXZ:PROC
; Function compile flags: /Ogsp
;	COMDAT ?_Tidy@?$vector@PAUtagEventInfo@@V?$allocator@PAUtagEventInfo@@@std@@@std@@IAEXXZ
_TEXT	SEGMENT
?_Tidy@?$vector@PAUtagEventInfo@@V?$allocator@PAUtagEventInfo@@@std@@@std@@IAEXXZ PROC ; std::vector<tagEventInfo *,std::allocator<tagEventInfo *> >::_Tidy, COMDAT
; _this$ = ecx

; 1301 : 		{	// free all storage

  00000	56		 push	 esi
  00001	8b f1		 mov	 esi, ecx

; 1302 : 		if (this->_Myfirst != 0)

  00003	83 3e 00	 cmp	 DWORD PTR [esi], 0
  00006	74 0e		 je	 SHORT $LN12@Tidy

; 1303 : 			{	// something to free, destroy and deallocate it
; 1304 : 			this->_Orphan_all();

  00008	ff 15 00 00 00
	00		 call	 DWORD PTR __imp_?_Orphan_all@_Container_base0@std@@QAEXXZ

; 1305 : 			_Destroy(this->_Myfirst, this->_Mylast);
; 1306 : 			this->_Alval.deallocate(this->_Myfirst,
; 1307 : 				this->_Myend - this->_Myfirst);

  0000e	ff 36		 push	 DWORD PTR [esi]
  00010	e8 00 00 00 00	 call	 ??3@YAXPAX@Z		; operator delete
  00015	59		 pop	 ecx
$LN12@Tidy:

; 1308 : 			}
; 1309 : 		this->_Myfirst = 0;

  00016	83 26 00	 and	 DWORD PTR [esi], 0

; 1310 : 		this->_Mylast = 0;

  00019	83 66 04 00	 and	 DWORD PTR [esi+4], 0

; 1311 : 		this->_Myend = 0;

  0001d	83 66 08 00	 and	 DWORD PTR [esi+8], 0
  00021	5e		 pop	 esi

; 1312 : 		}

  00022	c3		 ret	 0
?_Tidy@?$vector@PAUtagEventInfo@@V?$allocator@PAUtagEventInfo@@@std@@@std@@IAEXXZ ENDP ; std::vector<tagEventInfo *,std::allocator<tagEventInfo *> >::_Tidy
_TEXT	ENDS
PUBLIC	?_Destroy@?$vector@PAVioUIRenderImage@@V?$allocator@PAVioUIRenderImage@@@std@@@std@@IAEXPAPAVioUIRenderImage@@0@Z ; std::vector<ioUIRenderImage *,std::allocator<ioUIRenderImage *> >::_Destroy
; Function compile flags: /Ogsp
;	COMDAT ?_Destroy@?$vector@PAVioUIRenderImage@@V?$allocator@PAVioUIRenderImage@@@std@@@std@@IAEXPAPAVioUIRenderImage@@0@Z
_TEXT	SEGMENT
__First$ = 8						; size = 4
__Last$ = 12						; size = 4
?_Destroy@?$vector@PAVioUIRenderImage@@V?$allocator@PAVioUIRenderImage@@@std@@@std@@IAEXPAPAVioUIRenderImage@@0@Z PROC ; std::vector<ioUIRenderImage *,std::allocator<ioUIRenderImage *> >::_Destroy, COMDAT
; _this$ = ecx

; 1270 : 		_Destroy_range(_First, _Last, this->_Alval);
; 1271 : 		}

  00000	c2 08 00	 ret	 8
?_Destroy@?$vector@PAVioUIRenderImage@@V?$allocator@PAVioUIRenderImage@@@std@@@std@@IAEXPAPAVioUIRenderImage@@0@Z ENDP ; std::vector<ioUIRenderImage *,std::allocator<ioUIRenderImage *> >::_Destroy
_TEXT	ENDS
PUBLIC	??$_Cons_val@V?$allocator@H@std@@HH@std@@YAXAAV?$allocator@H@0@PAH$$QAH@Z ; std::_Cons_val<std::allocator<int>,int,int>
; Function compile flags: /Ogsp
; File c:\program files (x86)\microsoft visual studio 10.0\vc\include\xmemory
;	COMDAT ??$_Cons_val@V?$allocator@H@std@@HH@std@@YAXAAV?$allocator@H@0@PAH$$QAH@Z
_TEXT	SEGMENT
__Alval$ = 8						; size = 4
__Pdest$ = 12						; size = 4
__Src$ = 16						; size = 4
??$_Cons_val@V?$allocator@H@std@@HH@std@@YAXAAV?$allocator@H@0@PAH$$QAH@Z PROC ; std::_Cons_val<std::allocator<int>,int,int>, COMDAT

; 279  : 	{	// construct using allocator

  00000	55		 push	 ebp
  00001	8b ec		 mov	 ebp, esp

; 280  : 	_Alval.construct(_Pdest, _STD forward<_Ty2>(_Src));

  00003	8b 45 0c	 mov	 eax, DWORD PTR __Pdest$[ebp]
  00006	85 c0		 test	 eax, eax
  00008	74 07		 je	 SHORT $LN7@Cons_val@3
  0000a	8b 4d 10	 mov	 ecx, DWORD PTR __Src$[ebp]
  0000d	8b 09		 mov	 ecx, DWORD PTR [ecx]
  0000f	89 08		 mov	 DWORD PTR [eax], ecx
$LN7@Cons_val@3:

; 281  : 	}

  00011	5d		 pop	 ebp
  00012	c3		 ret	 0
??$_Cons_val@V?$allocator@H@std@@HH@std@@YAXAAV?$allocator@H@0@PAH$$QAH@Z ENDP ; std::_Cons_val<std::allocator<int>,int,int>
_TEXT	ENDS
PUBLIC	??$_Umove@PAPAUtagEventInfo@@@?$vector@PAUtagEventInfo@@V?$allocator@PAUtagEventInfo@@@std@@@std@@IAEPAPAUtagEventInfo@@PAPAU2@00@Z ; std::vector<tagEventInfo *,std::allocator<tagEventInfo *> >::_Umove<tagEventInfo * *>
; Function compile flags: /Ogsp
; File c:\program files (x86)\microsoft visual studio 10.0\vc\include\vector
;	COMDAT ??$_Umove@PAPAUtagEventInfo@@@?$vector@PAUtagEventInfo@@V?$allocator@PAUtagEventInfo@@@std@@@std@@IAEPAPAUtagEventInfo@@PAPAU2@00@Z
_TEXT	SEGMENT
__First$ = 8						; size = 4
__Last$ = 12						; size = 4
__Ptr$ = 16						; size = 4
??$_Umove@PAPAUtagEventInfo@@@?$vector@PAUtagEventInfo@@V?$allocator@PAUtagEventInfo@@@std@@@std@@IAEPAPAUtagEventInfo@@PAPAU2@00@Z PROC ; std::vector<tagEventInfo *,std::allocator<tagEventInfo *> >::_Umove<tagEventInfo * *>, COMDAT
; _this$ = ecx

; 1322 : 		pointer _Umove(_Iter _First, _Iter _Last, pointer _Ptr)

  00000	55		 push	 ebp
  00001	8b ec		 mov	 ebp, esp

; 1323 : 		{	// move initializing [_First, _Last), using allocator
; 1324 : 		return (_Uninitialized_move(_First, _Last,
; 1325 : 			_Ptr, this->_Alval));

  00003	83 c1 0c	 add	 ecx, 12			; 0000000cH
  00006	51		 push	 ecx
  00007	ff 75 10	 push	 DWORD PTR __Ptr$[ebp]
  0000a	ff 75 0c	 push	 DWORD PTR __Last$[ebp]
  0000d	ff 75 08	 push	 DWORD PTR __First$[ebp]
  00010	e8 00 00 00 00	 call	 ??$_Uninitialized_move@PAPAUtagEventInfo@@PAPAU1@V?$allocator@PAUtagEventInfo@@@std@@@std@@YAPAPAUtagEventInfo@@PAPAU1@00AAV?$allocator@PAUtagEventInfo@@@0@@Z ; std::_Uninitialized_move<tagEventInfo * *,tagEventInfo * *,std::allocator<tagEventInfo *> >
  00015	83 c4 10	 add	 esp, 16			; 00000010H

; 1326 : 		}

  00018	5d		 pop	 ebp
  00019	c2 0c 00	 ret	 12			; 0000000cH
??$_Umove@PAPAUtagEventInfo@@@?$vector@PAUtagEventInfo@@V?$allocator@PAUtagEventInfo@@@std@@@std@@IAEPAPAUtagEventInfo@@PAPAU2@00@Z ENDP ; std::vector<tagEventInfo *,std::allocator<tagEventInfo *> >::_Umove<tagEventInfo * *>
_TEXT	ENDS
PUBLIC	??$_Cons_val@V?$allocator@PAUtagEventInfo@@@std@@PAUtagEventInfo@@ABQAU3@@std@@YAXAAV?$allocator@PAUtagEventInfo@@@0@PAPAUtagEventInfo@@ABQAU2@@Z ; std::_Cons_val<std::allocator<tagEventInfo *>,tagEventInfo *,tagEventInfo * const &>
; Function compile flags: /Ogsp
; File c:\program files (x86)\microsoft visual studio 10.0\vc\include\xmemory
;	COMDAT ??$_Cons_val@V?$allocator@PAUtagEventInfo@@@std@@PAUtagEventInfo@@ABQAU3@@std@@YAXAAV?$allocator@PAUtagEventInfo@@@0@PAPAUtagEventInfo@@ABQAU2@@Z
_TEXT	SEGMENT
__Alval$ = 8						; size = 4
__Pdest$ = 12						; size = 4
__Src$ = 16						; size = 4
??$_Cons_val@V?$allocator@PAUtagEventInfo@@@std@@PAUtagEventInfo@@ABQAU3@@std@@YAXAAV?$allocator@PAUtagEventInfo@@@0@PAPAUtagEventInfo@@ABQAU2@@Z PROC ; std::_Cons_val<std::allocator<tagEventInfo *>,tagEventInfo *,tagEventInfo * const &>, COMDAT

; 279  : 	{	// construct using allocator

  00000	55		 push	 ebp
  00001	8b ec		 mov	 ebp, esp

; 280  : 	_Alval.construct(_Pdest, _STD forward<_Ty2>(_Src));

  00003	8b 45 0c	 mov	 eax, DWORD PTR __Pdest$[ebp]
  00006	85 c0		 test	 eax, eax
  00008	74 07		 je	 SHORT $LN9@Cons_val@4
  0000a	8b 4d 10	 mov	 ecx, DWORD PTR __Src$[ebp]
  0000d	8b 09		 mov	 ecx, DWORD PTR [ecx]
  0000f	89 08		 mov	 DWORD PTR [eax], ecx
$LN9@Cons_val@4:

; 281  : 	}

  00011	5d		 pop	 ebp
  00012	c3		 ret	 0
??$_Cons_val@V?$allocator@PAUtagEventInfo@@@std@@PAUtagEventInfo@@ABQAU3@@std@@YAXAAV?$allocator@PAUtagEventInfo@@@0@PAPAUtagEventInfo@@ABQAU2@@Z ENDP ; std::_Cons_val<std::allocator<tagEventInfo *>,tagEventInfo *,tagEventInfo * const &>
_TEXT	ENDS
PUBLIC	??$_Umove@PAPAVioUIRenderImage@@@?$vector@PAVioUIRenderImage@@V?$allocator@PAVioUIRenderImage@@@std@@@std@@IAEPAPAVioUIRenderImage@@PAPAV2@00@Z ; std::vector<ioUIRenderImage *,std::allocator<ioUIRenderImage *> >::_Umove<ioUIRenderImage * *>
; Function compile flags: /Ogsp
; File c:\program files (x86)\microsoft visual studio 10.0\vc\include\vector
;	COMDAT ??$_Umove@PAPAVioUIRenderImage@@@?$vector@PAVioUIRenderImage@@V?$allocator@PAVioUIRenderImage@@@std@@@std@@IAEPAPAVioUIRenderImage@@PAPAV2@00@Z
_TEXT	SEGMENT
__First$ = 8						; size = 4
__Last$ = 12						; size = 4
__Ptr$ = 16						; size = 4
??$_Umove@PAPAVioUIRenderImage@@@?$vector@PAVioUIRenderImage@@V?$allocator@PAVioUIRenderImage@@@std@@@std@@IAEPAPAVioUIRenderImage@@PAPAV2@00@Z PROC ; std::vector<ioUIRenderImage *,std::allocator<ioUIRenderImage *> >::_Umove<ioUIRenderImage * *>, COMDAT
; _this$ = ecx

; 1322 : 		pointer _Umove(_Iter _First, _Iter _Last, pointer _Ptr)

  00000	55		 push	 ebp
  00001	8b ec		 mov	 ebp, esp

; 1323 : 		{	// move initializing [_First, _Last), using allocator
; 1324 : 		return (_Uninitialized_move(_First, _Last,
; 1325 : 			_Ptr, this->_Alval));

  00003	83 c1 0c	 add	 ecx, 12			; 0000000cH
  00006	51		 push	 ecx
  00007	ff 75 10	 push	 DWORD PTR __Ptr$[ebp]
  0000a	ff 75 0c	 push	 DWORD PTR __Last$[ebp]
  0000d	ff 75 08	 push	 DWORD PTR __First$[ebp]
  00010	e8 00 00 00 00	 call	 ??$_Uninitialized_move@PAPAVioUIRenderImage@@PAPAV1@V?$allocator@PAVioUIRenderImage@@@std@@@std@@YAPAPAVioUIRenderImage@@PAPAV1@00AAV?$allocator@PAVioUIRenderImage@@@0@@Z ; std::_Uninitialized_move<ioUIRenderImage * *,ioUIRenderImage * *,std::allocator<ioUIRenderImage *> >
  00015	83 c4 10	 add	 esp, 16			; 00000010H

; 1326 : 		}

  00018	5d		 pop	 ebp
  00019	c2 0c 00	 ret	 12			; 0000000cH
??$_Umove@PAPAVioUIRenderImage@@@?$vector@PAVioUIRenderImage@@V?$allocator@PAVioUIRenderImage@@@std@@@std@@IAEPAPAVioUIRenderImage@@PAPAV2@00@Z ENDP ; std::vector<ioUIRenderImage *,std::allocator<ioUIRenderImage *> >::_Umove<ioUIRenderImage * *>
_TEXT	ENDS
PUBLIC	??0?$vector@HV?$allocator@H@std@@@std@@QAE@XZ	; std::vector<int,std::allocator<int> >::vector<int,std::allocator<int> >
; Function compile flags: /Ogsp
;	COMDAT ??0?$vector@HV?$allocator@H@std@@@std@@QAE@XZ
_TEXT	SEGMENT
??0?$vector@HV?$allocator@H@std@@@std@@QAE@XZ PROC	; std::vector<int,std::allocator<int> >::vector<int,std::allocator<int> >, COMDAT
; _this$ = ecx

; 507  : 		{	// construct empty vector

  00000	8b c1		 mov	 eax, ecx
  00002	33 c9		 xor	 ecx, ecx
  00004	89 08		 mov	 DWORD PTR [eax], ecx
  00006	89 48 04	 mov	 DWORD PTR [eax+4], ecx
  00009	89 48 08	 mov	 DWORD PTR [eax+8], ecx

; 508  : 		}

  0000c	c3		 ret	 0
??0?$vector@HV?$allocator@H@std@@@std@@QAE@XZ ENDP	; std::vector<int,std::allocator<int> >::vector<int,std::allocator<int> >
_TEXT	ENDS
PUBLIC	?_Destroy@?$vector@HV?$allocator@H@std@@@std@@IAEXPAH0@Z ; std::vector<int,std::allocator<int> >::_Destroy
; Function compile flags: /Ogsp
;	COMDAT ?_Destroy@?$vector@HV?$allocator@H@std@@@std@@IAEXPAH0@Z
_TEXT	SEGMENT
__First$ = 8						; size = 4
__Last$ = 12						; size = 4
?_Destroy@?$vector@HV?$allocator@H@std@@@std@@IAEXPAH0@Z PROC ; std::vector<int,std::allocator<int> >::_Destroy, COMDAT
; _this$ = ecx

; 1270 : 		_Destroy_range(_First, _Last, this->_Alval);
; 1271 : 		}

  00000	c2 08 00	 ret	 8
?_Destroy@?$vector@HV?$allocator@H@std@@@std@@IAEXPAH0@Z ENDP ; std::vector<int,std::allocator<int> >::_Destroy
_TEXT	ENDS
PUBLIC	??9?$_Vector_const_iterator@V?$_Vector_val@HV?$allocator@H@std@@@std@@@std@@QBE_NABV01@@Z ; std::_Vector_const_iterator<std::_Vector_val<int,std::allocator<int> > >::operator!=
; Function compile flags: /Ogsp
;	COMDAT ??9?$_Vector_const_iterator@V?$_Vector_val@HV?$allocator@H@std@@@std@@@std@@QBE_NABV01@@Z
_TEXT	SEGMENT
__Right$ = 8						; size = 4
??9?$_Vector_const_iterator@V?$_Vector_val@HV?$allocator@H@std@@@std@@@std@@QBE_NABV01@@Z PROC ; std::_Vector_const_iterator<std::_Vector_val<int,std::allocator<int> > >::operator!=, COMDAT
; _this$ = ecx

; 207  : 		{	// test for iterator inequality

  00000	55		 push	 ebp
  00001	8b ec		 mov	 ebp, esp

; 208  : 		return (!(*this == _Right));

  00003	8b 01		 mov	 eax, DWORD PTR [ecx]
  00005	8b 55 08	 mov	 edx, DWORD PTR __Right$[ebp]
  00008	33 c9		 xor	 ecx, ecx
  0000a	3b 02		 cmp	 eax, DWORD PTR [edx]
  0000c	0f 95 c0	 setne	 al

; 209  : 		}

  0000f	5d		 pop	 ebp
  00010	c2 04 00	 ret	 4
??9?$_Vector_const_iterator@V?$_Vector_val@HV?$allocator@H@std@@@std@@@std@@QBE_NABV01@@Z ENDP ; std::_Vector_const_iterator<std::_Vector_val<int,std::allocator<int> > >::operator!=
_TEXT	ENDS
PUBLIC	??$_Umove@PAH@?$vector@HV?$allocator@H@std@@@std@@IAEPAHPAH00@Z ; std::vector<int,std::allocator<int> >::_Umove<int *>
; Function compile flags: /Ogsp
;	COMDAT ??$_Umove@PAH@?$vector@HV?$allocator@H@std@@@std@@IAEPAHPAH00@Z
_TEXT	SEGMENT
__First$ = 8						; size = 4
__Last$ = 12						; size = 4
__Ptr$ = 16						; size = 4
??$_Umove@PAH@?$vector@HV?$allocator@H@std@@@std@@IAEPAHPAH00@Z PROC ; std::vector<int,std::allocator<int> >::_Umove<int *>, COMDAT
; _this$ = ecx

; 1322 : 		pointer _Umove(_Iter _First, _Iter _Last, pointer _Ptr)

  00000	55		 push	 ebp
  00001	8b ec		 mov	 ebp, esp

; 1323 : 		{	// move initializing [_First, _Last), using allocator
; 1324 : 		return (_Uninitialized_move(_First, _Last,
; 1325 : 			_Ptr, this->_Alval));

  00003	83 c1 0c	 add	 ecx, 12			; 0000000cH
  00006	51		 push	 ecx
  00007	ff 75 10	 push	 DWORD PTR __Ptr$[ebp]
  0000a	ff 75 0c	 push	 DWORD PTR __Last$[ebp]
  0000d	ff 75 08	 push	 DWORD PTR __First$[ebp]
  00010	e8 00 00 00 00	 call	 ??$_Uninitialized_move@PAHPAHV?$allocator@H@std@@@std@@YAPAHPAH00AAV?$allocator@H@0@@Z ; std::_Uninitialized_move<int *,int *,std::allocator<int> >
  00015	83 c4 10	 add	 esp, 16			; 00000010H

; 1326 : 		}

  00018	5d		 pop	 ebp
  00019	c2 0c 00	 ret	 12			; 0000000cH
??$_Umove@PAH@?$vector@HV?$allocator@H@std@@@std@@IAEPAHPAH00@Z ENDP ; std::vector<int,std::allocator<int> >::_Umove<int *>
_TEXT	ENDS
PUBLIC	??1?$vector@PAUtagEventInfo@@V?$allocator@PAUtagEventInfo@@@std@@@std@@QAE@XZ ; std::vector<tagEventInfo *,std::allocator<tagEventInfo *> >::~vector<tagEventInfo *,std::allocator<tagEventInfo *> >
; Function compile flags: /Ogsp
;	COMDAT ??1?$vector@PAUtagEventInfo@@V?$allocator@PAUtagEventInfo@@@std@@@std@@QAE@XZ
_TEXT	SEGMENT
??1?$vector@PAUtagEventInfo@@V?$allocator@PAUtagEventInfo@@@std@@@std@@QAE@XZ PROC ; std::vector<tagEventInfo *,std::allocator<tagEventInfo *> >::~vector<tagEventInfo *,std::allocator<tagEventInfo *> >, COMDAT
; _this$ = ecx

; 705  : 		_Tidy();

  00000	e9 00 00 00 00	 jmp	 ?_Tidy@?$vector@PAUtagEventInfo@@V?$allocator@PAUtagEventInfo@@@std@@@std@@IAEXXZ ; std::vector<tagEventInfo *,std::allocator<tagEventInfo *> >::_Tidy
??1?$vector@PAUtagEventInfo@@V?$allocator@PAUtagEventInfo@@@std@@@std@@QAE@XZ ENDP ; std::vector<tagEventInfo *,std::allocator<tagEventInfo *> >::~vector<tagEventInfo *,std::allocator<tagEventInfo *> >
_TEXT	ENDS
PUBLIC	?reserve@?$vector@PAUtagEventInfo@@V?$allocator@PAUtagEventInfo@@@std@@@std@@QAEXI@Z ; std::vector<tagEventInfo *,std::allocator<tagEventInfo *> >::reserve
; Function compile flags: /Ogsp
;	COMDAT ?reserve@?$vector@PAUtagEventInfo@@V?$allocator@PAUtagEventInfo@@@std@@@std@@QAEXI@Z
_TEXT	SEGMENT
__Count$ = 8						; size = 4
?reserve@?$vector@PAUtagEventInfo@@V?$allocator@PAUtagEventInfo@@@std@@@std@@QAEXI@Z PROC ; std::vector<tagEventInfo *,std::allocator<tagEventInfo *> >::reserve, COMDAT
; _this$ = ecx

; 746  : 		{	// determine new minimum length of allocated storage

  00000	55		 push	 ebp
  00001	8b ec		 mov	 ebp, esp

; 747  : 		if (max_size() < _Count)

  00003	81 7d 08 ff ff
	ff 3f		 cmp	 DWORD PTR __Count$[ebp], 1073741823 ; 3fffffffH
  0000a	56		 push	 esi
  0000b	8b f1		 mov	 esi, ecx
  0000d	76 0b		 jbe	 SHORT $LN5@reserve

; 748  : 			_Xlen();	// result too long

  0000f	68 00 00 00 00	 push	 OFFSET ??_C@_0BD@OLBABOEK@vector?$DMT?$DO?5too?5long?$AA@
  00014	ff 15 00 00 00
	00		 call	 DWORD PTR __imp_?_Xlength_error@std@@YAXPBD@Z
$LN43@reserve:
$LN5@reserve:

; 749  : 		else if (capacity() < _Count)

  0001a	8b 46 08	 mov	 eax, DWORD PTR [esi+8]
  0001d	2b 06		 sub	 eax, DWORD PTR [esi]
  0001f	c1 f8 02	 sar	 eax, 2
  00022	3b 45 08	 cmp	 eax, DWORD PTR __Count$[ebp]
  00025	73 52		 jae	 SHORT $LN3@reserve

; 750  : 			{	// not enough room, reallocate
; 751  : 			pointer _Ptr = this->_Alval.allocate(_Count);

  00027	53		 push	 ebx
  00028	57		 push	 edi
  00029	6a 00		 push	 0
  0002b	ff 75 08	 push	 DWORD PTR __Count$[ebp]
  0002e	e8 00 00 00 00	 call	 ??$_Allocate@PAUtagEventInfo@@@std@@YAPAPAUtagEventInfo@@IPAPAU1@@Z ; std::_Allocate<tagEventInfo *>

; 752  : 
; 753  : 			_TRY_BEGIN
; 754  : 			_Umove(this->_Myfirst, this->_Mylast, _Ptr);

  00033	8b 0e		 mov	 ecx, DWORD PTR [esi]
  00035	8d 56 0c	 lea	 edx, DWORD PTR [esi+12]
  00038	52		 push	 edx
  00039	8b d8		 mov	 ebx, eax
  0003b	8b 46 04	 mov	 eax, DWORD PTR [esi+4]
  0003e	53		 push	 ebx
  0003f	50		 push	 eax
  00040	51		 push	 ecx
  00041	e8 00 00 00 00	 call	 ??$_Uninitialized_move@PAPAUtagEventInfo@@PAPAU1@V?$allocator@PAUtagEventInfo@@@std@@@std@@YAPAPAUtagEventInfo@@PAPAU1@00AAV?$allocator@PAUtagEventInfo@@@0@@Z ; std::_Uninitialized_move<tagEventInfo * *,tagEventInfo * *,std::allocator<tagEventInfo *> >

; 755  : 			_CATCH_ALL
; 756  : 			this->_Alval.deallocate(_Ptr, _Count);
; 757  : 			_RERAISE;
; 758  : 			_CATCH_END
; 759  : 
; 760  : 			size_type _Size = size();

  00046	8b 06		 mov	 eax, DWORD PTR [esi]
  00048	8b 7e 04	 mov	 edi, DWORD PTR [esi+4]
  0004b	2b f8		 sub	 edi, eax
  0004d	83 c4 18	 add	 esp, 24			; 00000018H
  00050	c1 ff 02	 sar	 edi, 2

; 761  : 			if (this->_Myfirst != 0)

  00053	85 c0		 test	 eax, eax
  00055	74 07		 je	 SHORT $LN39@reserve

; 762  : 				{	// destroy and deallocate old array
; 763  : 				_Destroy(this->_Myfirst, this->_Mylast);
; 764  : 				this->_Alval.deallocate(this->_Myfirst,
; 765  : 					this->_Myend - this->_Myfirst);

  00057	50		 push	 eax
  00058	e8 00 00 00 00	 call	 ??3@YAXPAX@Z		; operator delete
  0005d	59		 pop	 ecx
$LN39@reserve:

; 766  : 				}
; 767  : 
; 768  : 			this->_Orphan_all();

  0005e	8b ce		 mov	 ecx, esi
  00060	ff 15 00 00 00
	00		 call	 DWORD PTR __imp_?_Orphan_all@_Container_base0@std@@QAEXXZ

; 769  : 			this->_Myend = _Ptr + _Count;

  00066	8b 45 08	 mov	 eax, DWORD PTR __Count$[ebp]
  00069	8d 04 83	 lea	 eax, DWORD PTR [ebx+eax*4]
  0006c	89 46 08	 mov	 DWORD PTR [esi+8], eax

; 770  : 			this->_Mylast = _Ptr + _Size;

  0006f	8d 04 bb	 lea	 eax, DWORD PTR [ebx+edi*4]
  00072	5f		 pop	 edi

; 771  : 			this->_Myfirst = _Ptr;

  00073	89 1e		 mov	 DWORD PTR [esi], ebx
  00075	89 46 04	 mov	 DWORD PTR [esi+4], eax
  00078	5b		 pop	 ebx
$LN3@reserve:
  00079	5e		 pop	 esi

; 772  : 			}
; 773  : 		}

  0007a	5d		 pop	 ebp
  0007b	c2 04 00	 ret	 4
$LN42@reserve:
?reserve@?$vector@PAUtagEventInfo@@V?$allocator@PAUtagEventInfo@@@std@@@std@@QAEXI@Z ENDP ; std::vector<tagEventInfo *,std::allocator<tagEventInfo *> >::reserve
_TEXT	ENDS
PUBLIC	?erase@?$vector@PAUtagEventInfo@@V?$allocator@PAUtagEventInfo@@@std@@@std@@QAE?AV?$_Vector_iterator@V?$_Vector_val@PAUtagEventInfo@@V?$allocator@PAUtagEventInfo@@@std@@@std@@@2@V?$_Vector_const_iterator@V?$_Vector_val@PAUtagEventInfo@@V?$allocator@PAUtagEventInfo@@@std@@@std@@@2@@Z ; std::vector<tagEventInfo *,std::allocator<tagEventInfo *> >::erase
; Function compile flags: /Ogsp
;	COMDAT ?erase@?$vector@PAUtagEventInfo@@V?$allocator@PAUtagEventInfo@@@std@@@std@@QAE?AV?$_Vector_iterator@V?$_Vector_val@PAUtagEventInfo@@V?$allocator@PAUtagEventInfo@@@std@@@std@@@2@V?$_Vector_const_iterator@V?$_Vector_val@PAUtagEventInfo@@V?$allocator@PAUtagEventInfo@@@std@@@std@@@2@@Z
_TEXT	SEGMENT
___$ReturnUdt$ = 8					; size = 4
__Cat$525362 = 12					; size = 1
__Where$ = 12						; size = 4
?erase@?$vector@PAUtagEventInfo@@V?$allocator@PAUtagEventInfo@@@std@@@std@@QAE?AV?$_Vector_iterator@V?$_Vector_val@PAUtagEventInfo@@V?$allocator@PAUtagEventInfo@@@std@@@std@@@2@V?$_Vector_const_iterator@V?$_Vector_val@PAUtagEventInfo@@V?$allocator@PAUtagEventInfo@@@std@@@std@@@2@@Z PROC ; std::vector<tagEventInfo *,std::allocator<tagEventInfo *> >::erase, COMDAT
; _this$ = ecx

; 1179 : 		{	// erase element at where

  00000	55		 push	 ebp
  00001	8b ec		 mov	 ebp, esp

; 1180 : 		_Move(_VIPTR(_Where) + 1, this->_Mylast,
; 1181 : 			_VIPTR(_Where));

  00003	8b 45 0c	 mov	 eax, DWORD PTR __Where$[ebp]
  00006	56		 push	 esi
  00007	ff 75 0c	 push	 DWORD PTR __Cat$525362[ebp]
  0000a	8b f1		 mov	 esi, ecx
  0000c	50		 push	 eax
  0000d	ff 76 04	 push	 DWORD PTR [esi+4]
  00010	83 c0 04	 add	 eax, 4
  00013	50		 push	 eax
  00014	e8 00 00 00 00	 call	 ??$_Move@PAPAUtagEventInfo@@PAPAU1@@std@@YAPAPAUtagEventInfo@@PAPAU1@00U_Scalar_ptr_iterator_tag@0@@Z ; std::_Move<tagEventInfo * *,tagEventInfo * *>

; 1182 : 		_Destroy(this->_Mylast - 1, this->_Mylast);
; 1183 : 		--this->_Mylast;
; 1184 : 		return (_Make_iter(_Where));

  00019	8b 45 08	 mov	 eax, DWORD PTR ___$ReturnUdt$[ebp]
  0001c	8b 4d 0c	 mov	 ecx, DWORD PTR __Where$[ebp]
  0001f	83 c4 10	 add	 esp, 16			; 00000010H
  00022	83 46 04 fc	 add	 DWORD PTR [esi+4], -4	; fffffffcH
  00026	89 08		 mov	 DWORD PTR [eax], ecx
  00028	5e		 pop	 esi

; 1185 : 		}

  00029	5d		 pop	 ebp
  0002a	c2 08 00	 ret	 8
?erase@?$vector@PAUtagEventInfo@@V?$allocator@PAUtagEventInfo@@@std@@@std@@QAE?AV?$_Vector_iterator@V?$_Vector_val@PAUtagEventInfo@@V?$allocator@PAUtagEventInfo@@@std@@@std@@@2@V?$_Vector_const_iterator@V?$_Vector_val@PAUtagEventInfo@@V?$allocator@PAUtagEventInfo@@@std@@@std@@@2@@Z ENDP ; std::vector<tagEventInfo *,std::allocator<tagEventInfo *> >::erase
_TEXT	ENDS
PUBLIC	?erase@?$vector@PAVioUIRenderImage@@V?$allocator@PAVioUIRenderImage@@@std@@@std@@QAE?AV?$_Vector_iterator@V?$_Vector_val@PAVioUIRenderImage@@V?$allocator@PAVioUIRenderImage@@@std@@@std@@@2@V?$_Vector_const_iterator@V?$_Vector_val@PAVioUIRenderImage@@V?$allocator@PAVioUIRenderImage@@@std@@@std@@@2@0@Z ; std::vector<ioUIRenderImage *,std::allocator<ioUIRenderImage *> >::erase
; Function compile flags: /Ogsp
;	COMDAT ?erase@?$vector@PAVioUIRenderImage@@V?$allocator@PAVioUIRenderImage@@@std@@@std@@QAE?AV?$_Vector_iterator@V?$_Vector_val@PAVioUIRenderImage@@V?$allocator@PAVioUIRenderImage@@@std@@@std@@@2@V?$_Vector_const_iterator@V?$_Vector_val@PAVioUIRenderImage@@V?$allocator@PAVioUIRenderImage@@@std@@@std@@@2@0@Z
_TEXT	SEGMENT
___$ReturnUdt$ = 8					; size = 4
__First_arg$ = 12					; size = 4
__Cat$525493 = 16					; size = 1
__Last_arg$ = 16					; size = 4
?erase@?$vector@PAVioUIRenderImage@@V?$allocator@PAVioUIRenderImage@@@std@@@std@@QAE?AV?$_Vector_iterator@V?$_Vector_val@PAVioUIRenderImage@@V?$allocator@PAVioUIRenderImage@@@std@@@std@@@2@V?$_Vector_const_iterator@V?$_Vector_val@PAVioUIRenderImage@@V?$allocator@PAVioUIRenderImage@@@std@@@std@@@2@0@Z PROC ; std::vector<ioUIRenderImage *,std::allocator<ioUIRenderImage *> >::erase, COMDAT
; _this$ = ecx

; 1190 : 		{	// erase [_First, _Last)

  00000	55		 push	 ebp
  00001	8b ec		 mov	 ebp, esp

; 1191 : 		iterator _First = _Make_iter(_First_arg);

  00003	8b 45 0c	 mov	 eax, DWORD PTR __First_arg$[ebp]
  00006	56		 push	 esi
  00007	57		 push	 edi
  00008	8b 7d 08	 mov	 edi, DWORD PTR ___$ReturnUdt$[ebp]
  0000b	8b f1		 mov	 esi, ecx
  0000d	89 07		 mov	 DWORD PTR [edi], eax

; 1192 : 		iterator _Last = _Make_iter(_Last_arg);
; 1193 : 
; 1194 : 		if (_First != _Last)

  0000f	3b 45 10	 cmp	 eax, DWORD PTR __Last_arg$[ebp]
  00012	74 16		 je	 SHORT $LN1@erase

; 1195 : 			{	// worth doing, copy down over hole
; 1196 :  #if _ITERATOR_DEBUG_LEVEL == 2
; 1197 : 			if (_Last < _First || _VICONT(_First) != this
; 1198 : 				|| _VIPTR(_First) < this->_Myfirst
; 1199 : 				|| this->_Mylast < _VIPTR(_Last))
; 1200 : 				_DEBUG_ERROR("vector erase iterator outside range");
; 1201 : 			pointer _Ptr = _Move(_VIPTR(_Last), this->_Mylast,
; 1202 : 				_VIPTR(_First));
; 1203 : 			_Orphan_range(_VIPTR(_First), this->_Mylast);
; 1204 : 
; 1205 :  #else /* _ITERATOR_DEBUG_LEVEL == 2 */
; 1206 : 			pointer _Ptr = _Move(_VIPTR(_Last), this->_Mylast,
; 1207 : 				_VIPTR(_First));

  00014	ff 75 10	 push	 DWORD PTR __Cat$525493[ebp]
  00017	8b 4e 04	 mov	 ecx, DWORD PTR [esi+4]
  0001a	50		 push	 eax
  0001b	51		 push	 ecx
  0001c	ff 75 10	 push	 DWORD PTR __Last_arg$[ebp]
  0001f	e8 00 00 00 00	 call	 ??$_Move@PAPAVioUIRenderImage@@PAPAV1@@std@@YAPAPAVioUIRenderImage@@PAPAV1@00U_Scalar_ptr_iterator_tag@0@@Z ; std::_Move<ioUIRenderImage * *,ioUIRenderImage * *>
  00024	83 c4 10	 add	 esp, 16			; 00000010H

; 1208 :  #endif /* _ITERATOR_DEBUG_LEVEL == 2 */
; 1209 : 
; 1210 : 			_Destroy(_Ptr, this->_Mylast);
; 1211 : 			this->_Mylast = _Ptr;

  00027	89 46 04	 mov	 DWORD PTR [esi+4], eax
$LN1@erase:

; 1212 : 			}
; 1213 : 		return (_First);

  0002a	8b c7		 mov	 eax, edi
  0002c	5f		 pop	 edi
  0002d	5e		 pop	 esi

; 1214 : 		}

  0002e	5d		 pop	 ebp
  0002f	c2 0c 00	 ret	 12			; 0000000cH
?erase@?$vector@PAVioUIRenderImage@@V?$allocator@PAVioUIRenderImage@@@std@@@std@@QAE?AV?$_Vector_iterator@V?$_Vector_val@PAVioUIRenderImage@@V?$allocator@PAVioUIRenderImage@@@std@@@std@@@2@V?$_Vector_const_iterator@V?$_Vector_val@PAVioUIRenderImage@@V?$allocator@PAVioUIRenderImage@@@std@@@std@@@2@0@Z ENDP ; std::vector<ioUIRenderImage *,std::allocator<ioUIRenderImage *> >::erase
_TEXT	ENDS
PUBLIC	?_Tidy@?$vector@PAVioUIRenderImage@@V?$allocator@PAVioUIRenderImage@@@std@@@std@@IAEXXZ ; std::vector<ioUIRenderImage *,std::allocator<ioUIRenderImage *> >::_Tidy
; Function compile flags: /Ogsp
;	COMDAT ?_Tidy@?$vector@PAVioUIRenderImage@@V?$allocator@PAVioUIRenderImage@@@std@@@std@@IAEXXZ
_TEXT	SEGMENT
?_Tidy@?$vector@PAVioUIRenderImage@@V?$allocator@PAVioUIRenderImage@@@std@@@std@@IAEXXZ PROC ; std::vector<ioUIRenderImage *,std::allocator<ioUIRenderImage *> >::_Tidy, COMDAT
; _this$ = ecx

; 1301 : 		{	// free all storage

  00000	56		 push	 esi
  00001	8b f1		 mov	 esi, ecx

; 1302 : 		if (this->_Myfirst != 0)

  00003	83 3e 00	 cmp	 DWORD PTR [esi], 0
  00006	74 0e		 je	 SHORT $LN12@Tidy@2

; 1303 : 			{	// something to free, destroy and deallocate it
; 1304 : 			this->_Orphan_all();

  00008	ff 15 00 00 00
	00		 call	 DWORD PTR __imp_?_Orphan_all@_Container_base0@std@@QAEXXZ

; 1305 : 			_Destroy(this->_Myfirst, this->_Mylast);
; 1306 : 			this->_Alval.deallocate(this->_Myfirst,
; 1307 : 				this->_Myend - this->_Myfirst);

  0000e	ff 36		 push	 DWORD PTR [esi]
  00010	e8 00 00 00 00	 call	 ??3@YAXPAX@Z		; operator delete
  00015	59		 pop	 ecx
$LN12@Tidy@2:

; 1308 : 			}
; 1309 : 		this->_Myfirst = 0;

  00016	83 26 00	 and	 DWORD PTR [esi], 0

; 1310 : 		this->_Mylast = 0;

  00019	83 66 04 00	 and	 DWORD PTR [esi+4], 0

; 1311 : 		this->_Myend = 0;

  0001d	83 66 08 00	 and	 DWORD PTR [esi+8], 0
  00021	5e		 pop	 esi

; 1312 : 		}

  00022	c3		 ret	 0
?_Tidy@?$vector@PAVioUIRenderImage@@V?$allocator@PAVioUIRenderImage@@@std@@@std@@IAEXXZ ENDP ; std::vector<ioUIRenderImage *,std::allocator<ioUIRenderImage *> >::_Tidy
_TEXT	ENDS
PUBLIC	?erase@?$vector@PAUtagEventInfo@@V?$allocator@PAUtagEventInfo@@@std@@@std@@QAE?AV?$_Vector_iterator@V?$_Vector_val@PAUtagEventInfo@@V?$allocator@PAUtagEventInfo@@@std@@@std@@@2@V?$_Vector_const_iterator@V?$_Vector_val@PAUtagEventInfo@@V?$allocator@PAUtagEventInfo@@@std@@@std@@@2@0@Z ; std::vector<tagEventInfo *,std::allocator<tagEventInfo *> >::erase
; Function compile flags: /Ogsp
;	COMDAT ?erase@?$vector@PAUtagEventInfo@@V?$allocator@PAUtagEventInfo@@@std@@@std@@QAE?AV?$_Vector_iterator@V?$_Vector_val@PAUtagEventInfo@@V?$allocator@PAUtagEventInfo@@@std@@@std@@@2@V?$_Vector_const_iterator@V?$_Vector_val@PAUtagEventInfo@@V?$allocator@PAUtagEventInfo@@@std@@@std@@@2@0@Z
_TEXT	SEGMENT
___$ReturnUdt$ = 8					; size = 4
__First_arg$ = 12					; size = 4
__Cat$525636 = 16					; size = 1
__Last_arg$ = 16					; size = 4
?erase@?$vector@PAUtagEventInfo@@V?$allocator@PAUtagEventInfo@@@std@@@std@@QAE?AV?$_Vector_iterator@V?$_Vector_val@PAUtagEventInfo@@V?$allocator@PAUtagEventInfo@@@std@@@std@@@2@V?$_Vector_const_iterator@V?$_Vector_val@PAUtagEventInfo@@V?$allocator@PAUtagEventInfo@@@std@@@std@@@2@0@Z PROC ; std::vector<tagEventInfo *,std::allocator<tagEventInfo *> >::erase, COMDAT
; _this$ = ecx

; 1190 : 		{	// erase [_First, _Last)

  00000	55		 push	 ebp
  00001	8b ec		 mov	 ebp, esp

; 1191 : 		iterator _First = _Make_iter(_First_arg);

  00003	8b 45 0c	 mov	 eax, DWORD PTR __First_arg$[ebp]
  00006	56		 push	 esi
  00007	57		 push	 edi
  00008	8b 7d 08	 mov	 edi, DWORD PTR ___$ReturnUdt$[ebp]
  0000b	8b f1		 mov	 esi, ecx
  0000d	89 07		 mov	 DWORD PTR [edi], eax

; 1192 : 		iterator _Last = _Make_iter(_Last_arg);
; 1193 : 
; 1194 : 		if (_First != _Last)

  0000f	3b 45 10	 cmp	 eax, DWORD PTR __Last_arg$[ebp]
  00012	74 16		 je	 SHORT $LN1@erase@2

; 1195 : 			{	// worth doing, copy down over hole
; 1196 :  #if _ITERATOR_DEBUG_LEVEL == 2
; 1197 : 			if (_Last < _First || _VICONT(_First) != this
; 1198 : 				|| _VIPTR(_First) < this->_Myfirst
; 1199 : 				|| this->_Mylast < _VIPTR(_Last))
; 1200 : 				_DEBUG_ERROR("vector erase iterator outside range");
; 1201 : 			pointer _Ptr = _Move(_VIPTR(_Last), this->_Mylast,
; 1202 : 				_VIPTR(_First));
; 1203 : 			_Orphan_range(_VIPTR(_First), this->_Mylast);
; 1204 : 
; 1205 :  #else /* _ITERATOR_DEBUG_LEVEL == 2 */
; 1206 : 			pointer _Ptr = _Move(_VIPTR(_Last), this->_Mylast,
; 1207 : 				_VIPTR(_First));

  00014	ff 75 10	 push	 DWORD PTR __Cat$525636[ebp]
  00017	8b 4e 04	 mov	 ecx, DWORD PTR [esi+4]
  0001a	50		 push	 eax
  0001b	51		 push	 ecx
  0001c	ff 75 10	 push	 DWORD PTR __Last_arg$[ebp]
  0001f	e8 00 00 00 00	 call	 ??$_Move@PAPAUtagEventInfo@@PAPAU1@@std@@YAPAPAUtagEventInfo@@PAPAU1@00U_Scalar_ptr_iterator_tag@0@@Z ; std::_Move<tagEventInfo * *,tagEventInfo * *>
  00024	83 c4 10	 add	 esp, 16			; 00000010H

; 1208 :  #endif /* _ITERATOR_DEBUG_LEVEL == 2 */
; 1209 : 
; 1210 : 			_Destroy(_Ptr, this->_Mylast);
; 1211 : 			this->_Mylast = _Ptr;

  00027	89 46 04	 mov	 DWORD PTR [esi+4], eax
$LN1@erase@2:

; 1212 : 			}
; 1213 : 		return (_First);

  0002a	8b c7		 mov	 eax, edi
  0002c	5f		 pop	 edi
  0002d	5e		 pop	 esi

; 1214 : 		}

  0002e	5d		 pop	 ebp
  0002f	c2 0c 00	 ret	 12			; 0000000cH
?erase@?$vector@PAUtagEventInfo@@V?$allocator@PAUtagEventInfo@@@std@@@std@@QAE?AV?$_Vector_iterator@V?$_Vector_val@PAUtagEventInfo@@V?$allocator@PAUtagEventInfo@@@std@@@std@@@2@V?$_Vector_const_iterator@V?$_Vector_val@PAUtagEventInfo@@V?$allocator@PAUtagEventInfo@@@std@@@std@@@2@0@Z ENDP ; std::vector<tagEventInfo *,std::allocator<tagEventInfo *> >::erase
_TEXT	ENDS
PUBLIC	?_Reserve@?$vector@PAUtagEventInfo@@V?$allocator@PAUtagEventInfo@@@std@@@std@@IAEXI@Z ; std::vector<tagEventInfo *,std::allocator<tagEventInfo *> >::_Reserve
; Function compile flags: /Ogsp
;	COMDAT ?_Reserve@?$vector@PAUtagEventInfo@@V?$allocator@PAUtagEventInfo@@@std@@@std@@IAEXI@Z
_TEXT	SEGMENT
__Count$ = 8						; size = 4
?_Reserve@?$vector@PAUtagEventInfo@@V?$allocator@PAUtagEventInfo@@@std@@@std@@IAEXI@Z PROC ; std::vector<tagEventInfo *,std::allocator<tagEventInfo *> >::_Reserve, COMDAT
; _this$ = ecx

; 1290 : 		{	// ensure room for _Count new elements, grow exponentially

  00000	55		 push	 ebp
  00001	8b ec		 mov	 ebp, esp
  00003	56		 push	 esi
  00004	8b f1		 mov	 esi, ecx

; 1291 : 		size_type _Size = size();

  00006	8b 0e		 mov	 ecx, DWORD PTR [esi]
  00008	8b 46 04	 mov	 eax, DWORD PTR [esi+4]
  0000b	2b c1		 sub	 eax, ecx

; 1292 : 		if (max_size() - _Count < _Size)

  0000d	ba ff ff ff 3f	 mov	 edx, 1073741823		; 3fffffffH
  00012	2b 55 08	 sub	 edx, DWORD PTR __Count$[ebp]
  00015	c1 f8 02	 sar	 eax, 2
  00018	3b d0		 cmp	 edx, eax
  0001a	73 0b		 jae	 SHORT $LN4@Reserve

; 1293 : 			_Xlen();

  0001c	68 00 00 00 00	 push	 OFFSET ??_C@_0BD@OLBABOEK@vector?$DMT?$DO?5too?5long?$AA@
  00021	ff 15 00 00 00
	00		 call	 DWORD PTR __imp_?_Xlength_error@std@@YAXPBD@Z
$LN21@Reserve:
$LN4@Reserve:

; 1294 : 		else if ((_Size += _Count) <= capacity())

  00027	8b 56 08	 mov	 edx, DWORD PTR [esi+8]
  0002a	03 45 08	 add	 eax, DWORD PTR __Count$[ebp]
  0002d	2b d1		 sub	 edx, ecx
  0002f	c1 fa 02	 sar	 edx, 2
  00032	3b c2		 cmp	 eax, edx
  00034	76 10		 jbe	 SHORT $LN1@Reserve

; 1295 : 			;
; 1296 : 		else
; 1297 : 			reserve(_Grow_to(_Size));

  00036	50		 push	 eax
  00037	8b ce		 mov	 ecx, esi
  00039	e8 00 00 00 00	 call	 ?_Grow_to@?$vector@PAUtagEventInfo@@V?$allocator@PAUtagEventInfo@@@std@@@std@@IBEII@Z ; std::vector<tagEventInfo *,std::allocator<tagEventInfo *> >::_Grow_to
  0003e	50		 push	 eax
  0003f	8b ce		 mov	 ecx, esi
  00041	e8 00 00 00 00	 call	 ?reserve@?$vector@PAUtagEventInfo@@V?$allocator@PAUtagEventInfo@@@std@@@std@@QAEXI@Z ; std::vector<tagEventInfo *,std::allocator<tagEventInfo *> >::reserve
$LN1@Reserve:
  00046	5e		 pop	 esi

; 1298 : 		}

  00047	5d		 pop	 ebp
  00048	c2 04 00	 ret	 4
$LN20@Reserve:
?_Reserve@?$vector@PAUtagEventInfo@@V?$allocator@PAUtagEventInfo@@@std@@@std@@IAEXI@Z ENDP ; std::vector<tagEventInfo *,std::allocator<tagEventInfo *> >::_Reserve
_TEXT	ENDS
PUBLIC	?reserve@?$vector@PAVioUIRenderImage@@V?$allocator@PAVioUIRenderImage@@@std@@@std@@QAEXI@Z ; std::vector<ioUIRenderImage *,std::allocator<ioUIRenderImage *> >::reserve
; Function compile flags: /Ogsp
;	COMDAT ?reserve@?$vector@PAVioUIRenderImage@@V?$allocator@PAVioUIRenderImage@@@std@@@std@@QAEXI@Z
_TEXT	SEGMENT
__Count$ = 8						; size = 4
?reserve@?$vector@PAVioUIRenderImage@@V?$allocator@PAVioUIRenderImage@@@std@@@std@@QAEXI@Z PROC ; std::vector<ioUIRenderImage *,std::allocator<ioUIRenderImage *> >::reserve, COMDAT
; _this$ = ecx

; 746  : 		{	// determine new minimum length of allocated storage

  00000	55		 push	 ebp
  00001	8b ec		 mov	 ebp, esp

; 747  : 		if (max_size() < _Count)

  00003	81 7d 08 ff ff
	ff 3f		 cmp	 DWORD PTR __Count$[ebp], 1073741823 ; 3fffffffH
  0000a	56		 push	 esi
  0000b	8b f1		 mov	 esi, ecx
  0000d	76 0b		 jbe	 SHORT $LN5@reserve@2

; 748  : 			_Xlen();	// result too long

  0000f	68 00 00 00 00	 push	 OFFSET ??_C@_0BD@OLBABOEK@vector?$DMT?$DO?5too?5long?$AA@
  00014	ff 15 00 00 00
	00		 call	 DWORD PTR __imp_?_Xlength_error@std@@YAXPBD@Z
$LN43@reserve@2:
$LN5@reserve@2:

; 749  : 		else if (capacity() < _Count)

  0001a	8b 46 08	 mov	 eax, DWORD PTR [esi+8]
  0001d	2b 06		 sub	 eax, DWORD PTR [esi]
  0001f	c1 f8 02	 sar	 eax, 2
  00022	3b 45 08	 cmp	 eax, DWORD PTR __Count$[ebp]
  00025	73 52		 jae	 SHORT $LN3@reserve@2

; 750  : 			{	// not enough room, reallocate
; 751  : 			pointer _Ptr = this->_Alval.allocate(_Count);

  00027	53		 push	 ebx
  00028	57		 push	 edi
  00029	6a 00		 push	 0
  0002b	ff 75 08	 push	 DWORD PTR __Count$[ebp]
  0002e	e8 00 00 00 00	 call	 ??$_Allocate@PAVioUIRenderImage@@@std@@YAPAPAVioUIRenderImage@@IPAPAV1@@Z ; std::_Allocate<ioUIRenderImage *>

; 752  : 
; 753  : 			_TRY_BEGIN
; 754  : 			_Umove(this->_Myfirst, this->_Mylast, _Ptr);

  00033	8b 0e		 mov	 ecx, DWORD PTR [esi]
  00035	8d 56 0c	 lea	 edx, DWORD PTR [esi+12]
  00038	52		 push	 edx
  00039	8b d8		 mov	 ebx, eax
  0003b	8b 46 04	 mov	 eax, DWORD PTR [esi+4]
  0003e	53		 push	 ebx
  0003f	50		 push	 eax
  00040	51		 push	 ecx
  00041	e8 00 00 00 00	 call	 ??$_Uninitialized_move@PAPAVioUIRenderImage@@PAPAV1@V?$allocator@PAVioUIRenderImage@@@std@@@std@@YAPAPAVioUIRenderImage@@PAPAV1@00AAV?$allocator@PAVioUIRenderImage@@@0@@Z ; std::_Uninitialized_move<ioUIRenderImage * *,ioUIRenderImage * *,std::allocator<ioUIRenderImage *> >

; 755  : 			_CATCH_ALL
; 756  : 			this->_Alval.deallocate(_Ptr, _Count);
; 757  : 			_RERAISE;
; 758  : 			_CATCH_END
; 759  : 
; 760  : 			size_type _Size = size();

  00046	8b 06		 mov	 eax, DWORD PTR [esi]
  00048	8b 7e 04	 mov	 edi, DWORD PTR [esi+4]
  0004b	2b f8		 sub	 edi, eax
  0004d	83 c4 18	 add	 esp, 24			; 00000018H
  00050	c1 ff 02	 sar	 edi, 2

; 761  : 			if (this->_Myfirst != 0)

  00053	85 c0		 test	 eax, eax
  00055	74 07		 je	 SHORT $LN39@reserve@2

; 762  : 				{	// destroy and deallocate old array
; 763  : 				_Destroy(this->_Myfirst, this->_Mylast);
; 764  : 				this->_Alval.deallocate(this->_Myfirst,
; 765  : 					this->_Myend - this->_Myfirst);

  00057	50		 push	 eax
  00058	e8 00 00 00 00	 call	 ??3@YAXPAX@Z		; operator delete
  0005d	59		 pop	 ecx
$LN39@reserve@2:

; 766  : 				}
; 767  : 
; 768  : 			this->_Orphan_all();

  0005e	8b ce		 mov	 ecx, esi
  00060	ff 15 00 00 00
	00		 call	 DWORD PTR __imp_?_Orphan_all@_Container_base0@std@@QAEXXZ

; 769  : 			this->_Myend = _Ptr + _Count;

  00066	8b 45 08	 mov	 eax, DWORD PTR __Count$[ebp]
  00069	8d 04 83	 lea	 eax, DWORD PTR [ebx+eax*4]
  0006c	89 46 08	 mov	 DWORD PTR [esi+8], eax

; 770  : 			this->_Mylast = _Ptr + _Size;

  0006f	8d 04 bb	 lea	 eax, DWORD PTR [ebx+edi*4]
  00072	5f		 pop	 edi

; 771  : 			this->_Myfirst = _Ptr;

  00073	89 1e		 mov	 DWORD PTR [esi], ebx
  00075	89 46 04	 mov	 DWORD PTR [esi+4], eax
  00078	5b		 pop	 ebx
$LN3@reserve@2:
  00079	5e		 pop	 esi

; 772  : 			}
; 773  : 		}

  0007a	5d		 pop	 ebp
  0007b	c2 04 00	 ret	 4
$LN42@reserve@2:
?reserve@?$vector@PAVioUIRenderImage@@V?$allocator@PAVioUIRenderImage@@@std@@@std@@QAEXI@Z ENDP ; std::vector<ioUIRenderImage *,std::allocator<ioUIRenderImage *> >::reserve
_TEXT	ENDS
PUBLIC	?erase@?$vector@HV?$allocator@H@std@@@std@@QAE?AV?$_Vector_iterator@V?$_Vector_val@HV?$allocator@H@std@@@std@@@2@V?$_Vector_const_iterator@V?$_Vector_val@HV?$allocator@H@std@@@std@@@2@0@Z ; std::vector<int,std::allocator<int> >::erase
; Function compile flags: /Ogsp
;	COMDAT ?erase@?$vector@HV?$allocator@H@std@@@std@@QAE?AV?$_Vector_iterator@V?$_Vector_val@HV?$allocator@H@std@@@std@@@2@V?$_Vector_const_iterator@V?$_Vector_val@HV?$allocator@H@std@@@std@@@2@0@Z
_TEXT	SEGMENT
___$ReturnUdt$ = 8					; size = 4
__First_arg$ = 12					; size = 4
__Cat$525855 = 16					; size = 1
__Last_arg$ = 16					; size = 4
?erase@?$vector@HV?$allocator@H@std@@@std@@QAE?AV?$_Vector_iterator@V?$_Vector_val@HV?$allocator@H@std@@@std@@@2@V?$_Vector_const_iterator@V?$_Vector_val@HV?$allocator@H@std@@@std@@@2@0@Z PROC ; std::vector<int,std::allocator<int> >::erase, COMDAT
; _this$ = ecx

; 1190 : 		{	// erase [_First, _Last)

  00000	55		 push	 ebp
  00001	8b ec		 mov	 ebp, esp

; 1191 : 		iterator _First = _Make_iter(_First_arg);

  00003	8b 45 0c	 mov	 eax, DWORD PTR __First_arg$[ebp]
  00006	56		 push	 esi
  00007	57		 push	 edi
  00008	8b 7d 08	 mov	 edi, DWORD PTR ___$ReturnUdt$[ebp]
  0000b	8b f1		 mov	 esi, ecx
  0000d	89 07		 mov	 DWORD PTR [edi], eax

; 1192 : 		iterator _Last = _Make_iter(_Last_arg);
; 1193 : 
; 1194 : 		if (_First != _Last)

  0000f	3b 45 10	 cmp	 eax, DWORD PTR __Last_arg$[ebp]
  00012	74 16		 je	 SHORT $LN1@erase@3

; 1195 : 			{	// worth doing, copy down over hole
; 1196 :  #if _ITERATOR_DEBUG_LEVEL == 2
; 1197 : 			if (_Last < _First || _VICONT(_First) != this
; 1198 : 				|| _VIPTR(_First) < this->_Myfirst
; 1199 : 				|| this->_Mylast < _VIPTR(_Last))
; 1200 : 				_DEBUG_ERROR("vector erase iterator outside range");
; 1201 : 			pointer _Ptr = _Move(_VIPTR(_Last), this->_Mylast,
; 1202 : 				_VIPTR(_First));
; 1203 : 			_Orphan_range(_VIPTR(_First), this->_Mylast);
; 1204 : 
; 1205 :  #else /* _ITERATOR_DEBUG_LEVEL == 2 */
; 1206 : 			pointer _Ptr = _Move(_VIPTR(_Last), this->_Mylast,
; 1207 : 				_VIPTR(_First));

  00014	ff 75 10	 push	 DWORD PTR __Cat$525855[ebp]
  00017	8b 4e 04	 mov	 ecx, DWORD PTR [esi+4]
  0001a	50		 push	 eax
  0001b	51		 push	 ecx
  0001c	ff 75 10	 push	 DWORD PTR __Last_arg$[ebp]
  0001f	e8 00 00 00 00	 call	 ??$_Move@PAHPAH@std@@YAPAHPAH00U_Scalar_ptr_iterator_tag@0@@Z ; std::_Move<int *,int *>
  00024	83 c4 10	 add	 esp, 16			; 00000010H

; 1208 :  #endif /* _ITERATOR_DEBUG_LEVEL == 2 */
; 1209 : 
; 1210 : 			_Destroy(_Ptr, this->_Mylast);
; 1211 : 			this->_Mylast = _Ptr;

  00027	89 46 04	 mov	 DWORD PTR [esi+4], eax
$LN1@erase@3:

; 1212 : 			}
; 1213 : 		return (_First);

  0002a	8b c7		 mov	 eax, edi
  0002c	5f		 pop	 edi
  0002d	5e		 pop	 esi

; 1214 : 		}

  0002e	5d		 pop	 ebp
  0002f	c2 0c 00	 ret	 12			; 0000000cH
?erase@?$vector@HV?$allocator@H@std@@@std@@QAE?AV?$_Vector_iterator@V?$_Vector_val@HV?$allocator@H@std@@@std@@@2@V?$_Vector_const_iterator@V?$_Vector_val@HV?$allocator@H@std@@@std@@@2@0@Z ENDP ; std::vector<int,std::allocator<int> >::erase
_TEXT	ENDS
PUBLIC	?_Tidy@?$vector@HV?$allocator@H@std@@@std@@IAEXXZ ; std::vector<int,std::allocator<int> >::_Tidy
; Function compile flags: /Ogsp
;	COMDAT ?_Tidy@?$vector@HV?$allocator@H@std@@@std@@IAEXXZ
_TEXT	SEGMENT
?_Tidy@?$vector@HV?$allocator@H@std@@@std@@IAEXXZ PROC	; std::vector<int,std::allocator<int> >::_Tidy, COMDAT
; _this$ = ecx

; 1301 : 		{	// free all storage

  00000	56		 push	 esi
  00001	8b f1		 mov	 esi, ecx

; 1302 : 		if (this->_Myfirst != 0)

  00003	83 3e 00	 cmp	 DWORD PTR [esi], 0
  00006	74 0e		 je	 SHORT $LN12@Tidy@3

; 1303 : 			{	// something to free, destroy and deallocate it
; 1304 : 			this->_Orphan_all();

  00008	ff 15 00 00 00
	00		 call	 DWORD PTR __imp_?_Orphan_all@_Container_base0@std@@QAEXXZ

; 1305 : 			_Destroy(this->_Myfirst, this->_Mylast);
; 1306 : 			this->_Alval.deallocate(this->_Myfirst,
; 1307 : 				this->_Myend - this->_Myfirst);

  0000e	ff 36		 push	 DWORD PTR [esi]
  00010	e8 00 00 00 00	 call	 ??3@YAXPAX@Z		; operator delete
  00015	59		 pop	 ecx
$LN12@Tidy@3:

; 1308 : 			}
; 1309 : 		this->_Myfirst = 0;

  00016	83 26 00	 and	 DWORD PTR [esi], 0

; 1310 : 		this->_Mylast = 0;

  00019	83 66 04 00	 and	 DWORD PTR [esi+4], 0

; 1311 : 		this->_Myend = 0;

  0001d	83 66 08 00	 and	 DWORD PTR [esi+8], 0
  00021	5e		 pop	 esi

; 1312 : 		}

  00022	c3		 ret	 0
?_Tidy@?$vector@HV?$allocator@H@std@@@std@@IAEXXZ ENDP	; std::vector<int,std::allocator<int> >::_Tidy
_TEXT	ENDS
PUBLIC	?reserve@?$vector@HV?$allocator@H@std@@@std@@QAEXI@Z ; std::vector<int,std::allocator<int> >::reserve
; Function compile flags: /Ogsp
;	COMDAT ?reserve@?$vector@HV?$allocator@H@std@@@std@@QAEXI@Z
_TEXT	SEGMENT
__Count$ = 8						; size = 4
?reserve@?$vector@HV?$allocator@H@std@@@std@@QAEXI@Z PROC ; std::vector<int,std::allocator<int> >::reserve, COMDAT
; _this$ = ecx

; 746  : 		{	// determine new minimum length of allocated storage

  00000	55		 push	 ebp
  00001	8b ec		 mov	 ebp, esp

; 747  : 		if (max_size() < _Count)

  00003	81 7d 08 ff ff
	ff 3f		 cmp	 DWORD PTR __Count$[ebp], 1073741823 ; 3fffffffH
  0000a	56		 push	 esi
  0000b	8b f1		 mov	 esi, ecx
  0000d	76 0b		 jbe	 SHORT $LN5@reserve@3

; 748  : 			_Xlen();	// result too long

  0000f	68 00 00 00 00	 push	 OFFSET ??_C@_0BD@OLBABOEK@vector?$DMT?$DO?5too?5long?$AA@
  00014	ff 15 00 00 00
	00		 call	 DWORD PTR __imp_?_Xlength_error@std@@YAXPBD@Z
$LN43@reserve@3:
$LN5@reserve@3:

; 749  : 		else if (capacity() < _Count)

  0001a	8b 46 08	 mov	 eax, DWORD PTR [esi+8]
  0001d	2b 06		 sub	 eax, DWORD PTR [esi]
  0001f	c1 f8 02	 sar	 eax, 2
  00022	3b 45 08	 cmp	 eax, DWORD PTR __Count$[ebp]
  00025	73 52		 jae	 SHORT $LN3@reserve@3

; 750  : 			{	// not enough room, reallocate
; 751  : 			pointer _Ptr = this->_Alval.allocate(_Count);

  00027	53		 push	 ebx
  00028	57		 push	 edi
  00029	6a 00		 push	 0
  0002b	ff 75 08	 push	 DWORD PTR __Count$[ebp]
  0002e	e8 00 00 00 00	 call	 ??$_Allocate@H@std@@YAPAHIPAH@Z ; std::_Allocate<int>

; 752  : 
; 753  : 			_TRY_BEGIN
; 754  : 			_Umove(this->_Myfirst, this->_Mylast, _Ptr);

  00033	8b 0e		 mov	 ecx, DWORD PTR [esi]
  00035	8d 56 0c	 lea	 edx, DWORD PTR [esi+12]
  00038	52		 push	 edx
  00039	8b d8		 mov	 ebx, eax
  0003b	8b 46 04	 mov	 eax, DWORD PTR [esi+4]
  0003e	53		 push	 ebx
  0003f	50		 push	 eax
  00040	51		 push	 ecx
  00041	e8 00 00 00 00	 call	 ??$_Uninitialized_move@PAHPAHV?$allocator@H@std@@@std@@YAPAHPAH00AAV?$allocator@H@0@@Z ; std::_Uninitialized_move<int *,int *,std::allocator<int> >

; 755  : 			_CATCH_ALL
; 756  : 			this->_Alval.deallocate(_Ptr, _Count);
; 757  : 			_RERAISE;
; 758  : 			_CATCH_END
; 759  : 
; 760  : 			size_type _Size = size();

  00046	8b 06		 mov	 eax, DWORD PTR [esi]
  00048	8b 7e 04	 mov	 edi, DWORD PTR [esi+4]
  0004b	2b f8		 sub	 edi, eax
  0004d	83 c4 18	 add	 esp, 24			; 00000018H
  00050	c1 ff 02	 sar	 edi, 2

; 761  : 			if (this->_Myfirst != 0)

  00053	85 c0		 test	 eax, eax
  00055	74 07		 je	 SHORT $LN39@reserve@3

; 762  : 				{	// destroy and deallocate old array
; 763  : 				_Destroy(this->_Myfirst, this->_Mylast);
; 764  : 				this->_Alval.deallocate(this->_Myfirst,
; 765  : 					this->_Myend - this->_Myfirst);

  00057	50		 push	 eax
  00058	e8 00 00 00 00	 call	 ??3@YAXPAX@Z		; operator delete
  0005d	59		 pop	 ecx
$LN39@reserve@3:

; 766  : 				}
; 767  : 
; 768  : 			this->_Orphan_all();

  0005e	8b ce		 mov	 ecx, esi
  00060	ff 15 00 00 00
	00		 call	 DWORD PTR __imp_?_Orphan_all@_Container_base0@std@@QAEXXZ

; 769  : 			this->_Myend = _Ptr + _Count;

  00066	8b 45 08	 mov	 eax, DWORD PTR __Count$[ebp]
  00069	8d 04 83	 lea	 eax, DWORD PTR [ebx+eax*4]
  0006c	89 46 08	 mov	 DWORD PTR [esi+8], eax

; 770  : 			this->_Mylast = _Ptr + _Size;

  0006f	8d 04 bb	 lea	 eax, DWORD PTR [ebx+edi*4]
  00072	5f		 pop	 edi

; 771  : 			this->_Myfirst = _Ptr;

  00073	89 1e		 mov	 DWORD PTR [esi], ebx
  00075	89 46 04	 mov	 DWORD PTR [esi+4], eax
  00078	5b		 pop	 ebx
$LN3@reserve@3:
  00079	5e		 pop	 esi

; 772  : 			}
; 773  : 		}

  0007a	5d		 pop	 ebp
  0007b	c2 04 00	 ret	 4
$LN42@reserve@3:
?reserve@?$vector@HV?$allocator@H@std@@@std@@QAEXI@Z ENDP ; std::vector<int,std::allocator<int> >::reserve
_TEXT	ENDS
PUBLIC	??_7EventCatalogWnd@@6B@			; EventCatalogWnd::`vftable'
PUBLIC	??0EventCatalogWnd@@QAE@XZ			; EventCatalogWnd::EventCatalogWnd
PUBLIC	??_R4EventCatalogWnd@@6B@			; EventCatalogWnd::`RTTI Complete Object Locator'
PUBLIC	??_R0?AVEventCatalogWnd@@@8			; EventCatalogWnd `RTTI Type Descriptor'
PUBLIC	??_R3EventCatalogWnd@@8				; EventCatalogWnd::`RTTI Class Hierarchy Descriptor'
PUBLIC	??_R2EventCatalogWnd@@8				; EventCatalogWnd::`RTTI Base Class Array'
PUBLIC	??_R1A@?0A@EA@EventCatalogWnd@@8		; EventCatalogWnd::`RTTI Base Class Descriptor at (0,-1,0,64)'
PUBLIC	?ParseExtraInfo@EventCatalogWnd@@UAEXAAVioXMLElement@@@Z ; EventCatalogWnd::ParseExtraInfo
PUBLIC	?iwm_show@EventCatalogWnd@@UAEXXZ		; EventCatalogWnd::iwm_show
EXTRN	??_EEventCatalogWnd@@UAEPAXI@Z:PROC		; EventCatalogWnd::`vector deleting destructor'
;	COMDAT ??_R1A@?0A@EA@EventCatalogWnd@@8
; File c:\program files (x86)\microsoft visual studio 10.0\vc\include\xmemory
rdata$r	SEGMENT
??_R1A@?0A@EA@EventCatalogWnd@@8 DD FLAT:??_R0?AVEventCatalogWnd@@@8 ; EventCatalogWnd::`RTTI Base Class Descriptor at (0,-1,0,64)'
	DD	02H
	DD	00H
	DD	0ffffffffH
	DD	00H
	DD	040H
	DD	FLAT:??_R3EventCatalogWnd@@8
rdata$r	ENDS
;	COMDAT ??_R2EventCatalogWnd@@8
rdata$r	SEGMENT
??_R2EventCatalogWnd@@8 DD FLAT:??_R1A@?0A@EA@EventCatalogWnd@@8 ; EventCatalogWnd::`RTTI Base Class Array'
	DD	FLAT:??_R1A@?0A@EA@ioMovingWnd@@8
	DD	FLAT:??_R1A@?0A@EA@ioWnd@@8
rdata$r	ENDS
;	COMDAT ??_R3EventCatalogWnd@@8
rdata$r	SEGMENT
??_R3EventCatalogWnd@@8 DD 00H				; EventCatalogWnd::`RTTI Class Hierarchy Descriptor'
	DD	00H
	DD	03H
	DD	FLAT:??_R2EventCatalogWnd@@8
rdata$r	ENDS
;	COMDAT ??_R0?AVEventCatalogWnd@@@8
_DATA	SEGMENT
??_R0?AVEventCatalogWnd@@@8 DD FLAT:??_7type_info@@6B@	; EventCatalogWnd `RTTI Type Descriptor'
	DD	00H
	DB	'.?AVEventCatalogWnd@@', 00H
_DATA	ENDS
;	COMDAT ??_R4EventCatalogWnd@@6B@
rdata$r	SEGMENT
??_R4EventCatalogWnd@@6B@ DD 00H			; EventCatalogWnd::`RTTI Complete Object Locator'
	DD	00H
	DD	00H
	DD	FLAT:??_R0?AVEventCatalogWnd@@@8
	DD	FLAT:??_R3EventCatalogWnd@@8
rdata$r	ENDS
;	COMDAT ??_7EventCatalogWnd@@6B@
CONST	SEGMENT
??_7EventCatalogWnd@@6B@ DD FLAT:??_R4EventCatalogWnd@@6B@ ; EventCatalogWnd::`vftable'
	DD	FLAT:?AddRenderFrame@ioWnd@@UAEXABVioHashString@@PAVioUIRenderFrame@@@Z
	DD	FLAT:?AddRenderImage@ioWnd@@UAEXABVioHashString@@PAVioUIRenderImage@@@Z
	DD	FLAT:?AddTooltipHelp@ioWnd@@UAEXABVioHashString@@00@Z
	DD	FLAT:?ParseExtraInfo@EventCatalogWnd@@UAEXAAVioXMLElement@@@Z
	DD	FLAT:?AddNamedRenderImage@ioWnd@@UAEXABVioHashString@@PAVioUIRenderImage@@@Z
	DD	FLAT:?RemoveNamedRenderImage@ioWnd@@UAEXABVioHashString@@@Z
	DD	FLAT:?GetNamedRenderImage@ioWnd@@UBEPAVioUIRenderImage@@ABVioHashString@@@Z
	DD	FLAT:?SetWindowAlpha@ioWnd@@UAEXH@Z
	DD	FLAT:?SetActive@ioWnd@@UAEXXZ
	DD	FLAT:?SetInActive@ioWnd@@UAEXXZ
	DD	FLAT:?ClearElementImageList@ioWnd@@UAEXXZ
	DD	FLAT:?SetSize@ioWnd@@UAEXHH@Z
	DD	FLAT:?SetPositionToDefault@ioMovingWnd@@UAEXHH_N0@Z
	DD	FLAT:?IsNeedProcess@ioWnd@@UBE_NXZ
	DD	FLAT:?IsCanMouseReaction@ioWnd@@UBE_NXZ
	DD	FLAT:?AddChild@ioWnd@@UAEXPAV1@@Z
	DD	FLAT:?DeleteChild@ioWnd@@UAEXK@Z
	DD	FLAT:?DeleteAllChild@ioWnd@@UAEXXZ
	DD	FLAT:?OnRenderShowAndHide@ioWnd@@MAE_NXZ
	DD	FLAT:?OnRenderShowAndHideByDefault@ioWnd@@MAE_NK@Z
	DD	FLAT:?OnRenderShowAndHideByTop@ioWnd@@MAE_NK@Z
	DD	FLAT:?OnRenderShowAndHideByDown@ioWnd@@MAE_NK@Z
	DD	FLAT:?OnRender@EventCatalogWnd@@MAEXXZ
	DD	FLAT:?OnRenderAfterChild@ioWnd@@MAEXXZ
	DD	FLAT:?OnProcess@EventCatalogWnd@@MAEXM@Z
	DD	FLAT:?OnMouseProcess@ioMovingWnd@@MAEXABVioMouse@@@Z
	DD	FLAT:?CheckFrameReSize@ioWnd@@MAEXHHHH@Z
	DD	FLAT:?RenderImageList@ioWnd@@MAEXHHW4UIRenderType@@@Z
	DD	FLAT:?iwm_create@EventCatalogWnd@@UAEXXZ
	DD	FLAT:?iwm_destroy@ioWnd@@UAEXXZ
	DD	FLAT:?iwm_lbuttondown@ioMovingWnd@@UAEXABVioMouse@@@Z
	DD	FLAT:?iwm_lbuttonup@ioMovingWnd@@UAEXABVioMouse@@@Z
	DD	FLAT:?iwm_lbuttonDBLCLK@ioWnd@@UAEXABVioMouse@@@Z
	DD	FLAT:?iwm_rbuttondown@ioWnd@@UAEXABVioMouse@@@Z
	DD	FLAT:?iwm_rbuttonup@ioWnd@@UAEXABVioMouse@@@Z
	DD	FLAT:?iwm_command@EventCatalogWnd@@UAEXPAVioWnd@@HK@Z
	DD	FLAT:?iwm_mouseover@ioWnd@@UAEXABVioMouse@@@Z
	DD	FLAT:?iwm_mousemove@ioWnd@@UAEXABVioMouse@@@Z
	DD	FLAT:?iwm_mouseleave@ioWnd@@UAEXABVioMouse@@@Z
	DD	FLAT:?iwm_vscroll@ioWnd@@UAEXKH@Z
	DD	FLAT:?iwm_wheel@ioWnd@@UAEXH@Z
	DD	FLAT:?iwm_show@EventCatalogWnd@@UAEXXZ
	DD	FLAT:?iwm_hide@ioWnd@@UAEXXZ
	DD	FLAT:?iwm_esc@ioWnd@@UAE_NXZ
	DD	FLAT:?iwm_spacebar@EventCatalogWnd@@UAE_NXZ
	DD	FLAT:?iwm_gototop@ioWnd@@UAEXXZ
	DD	FLAT:?iwm_dragenter@ioWnd@@UAE?AW4IWDropEffect@@PAVioDragItem@@ABVioMouse@@@Z
	DD	FLAT:?iwm_dragover@ioWnd@@UAE?AW4IWDropEffect@@PAVioDragItem@@ABVioMouse@@@Z
	DD	FLAT:?iwm_dragleave@ioWnd@@UAEXXZ
	DD	FLAT:?iwm_dropitem@ioWnd@@UAE_NPAVioDragItem@@ABVioMouse@@PAV1@@Z
	DD	FLAT:?iwm_dropdone@ioWnd@@UAEXPAVioDragItem@@PAV1@_N@Z
	DD	FLAT:?IsEXType@ioWnd@@UBE_NXZ
	DD	FLAT:?GetWndType@ioWnd@@UBEKXZ
	DD	FLAT:?RenderWnd@ioWnd@@UAEXXZ
	DD	FLAT:?SetIDEX@ioWnd@@UAEXAAK_N@Z
	DD	FLAT:?ParseXML@ioWnd@@UAEXAAVioXMLElement@@@Z
	DD	FLAT:?GetHeaderFileName@ioWnd@@UAEPBDXZ
	DD	FLAT:?GetTemplateName@ioWnd@@UAEPBDXZ
	DD	FLAT:?GetDefClassName@ioWnd@@UBEPBDXZ
	DD	FLAT:?_Clone@ioWnd@@UAEPAV1@XZ
	DD	FLAT:?Copy@ioWnd@@UAEXPAV1@@Z
	DD	FLAT:?Save@ioWnd@@UAE_NAAVioXMLElement@@@Z
	DD	FLAT:?SetSaveData@ioWnd@@UAEXAAVioXMLElement@@@Z
	DD	FLAT:?SetPosX@ioWnd@@UAEXH@Z
	DD	FLAT:?SetPosY@ioWnd@@UAEXH@Z
	DD	FLAT:?SetWidth@ioWnd@@UAEXH@Z
	DD	FLAT:?SetHeight@ioWnd@@UAEXH@Z
	DD	FLAT:?GetNumFixedRenderFrame@ioWnd@@UBEHXZ
	DD	FLAT:?GetFixedRenderFrameType@ioWnd@@UAEPBDH@Z
	DD	FLAT:?GetRenderFrame@ioWnd@@UAEPAPAVioUIRenderElement@@PBD@Z
	DD	FLAT:?GetNumFixedRenderImage@ioWnd@@UBEHXZ
	DD	FLAT:?GetFixedRenderImageType@ioWnd@@UAEPBDH@Z
	DD	FLAT:?GetRenderImage@ioWnd@@UAEPAPAVioUIRenderElement@@PBD@Z
	DD	FLAT:?AddEffect@ioWnd@@UAEXABVioHashString@@PAVioUI3DEffectRender@@@Z
	DD	FLAT:?GetEffect@ioWnd@@UAEPAVioUI3DEffectRender@@VioHashString@@@Z
	DD	FLAT:??_EEventCatalogWnd@@UAEPAXI@Z
CONST	ENDS
;	COMDAT xdata$x
xdata$x	SEGMENT
__unwindtable$??0EventCatalogWnd@@QAE@XZ DD 0ffffffffH
	DD	FLAT:__unwindfunclet$??0EventCatalogWnd@@QAE@XZ$0
	DD	00H
	DD	FLAT:__unwindfunclet$??0EventCatalogWnd@@QAE@XZ$1
__ehfuncinfo$??0EventCatalogWnd@@QAE@XZ DD 019930522H
	DD	02H
	DD	FLAT:__unwindtable$??0EventCatalogWnd@@QAE@XZ
	DD	2 DUP(00H)
	DD	2 DUP(00H)
	DD	00H
	DD	01H
; Function compile flags: /Ogsp
; File d:\lost saga for developer\youtube\tutorial\source\src\lsclient\gui\eventcatalogwnd.cpp
xdata$x	ENDS
;	COMDAT ??0EventCatalogWnd@@QAE@XZ
_TEXT	SEGMENT
_this$ = -16						; size = 4
__$EHRec$ = -12						; size = 12
??0EventCatalogWnd@@QAE@XZ PROC				; EventCatalogWnd::EventCatalogWnd, COMDAT
; _this$ = ecx

; 40   : {

  00000	6a 04		 push	 4
  00002	b8 00 00 00 00	 mov	 eax, __ehhandler$??0EventCatalogWnd@@QAE@XZ
  00007	e8 00 00 00 00	 call	 __EH_prolog3
  0000c	8b f1		 mov	 esi, ecx
  0000e	89 75 f0	 mov	 DWORD PTR _this$[ebp], esi
  00011	ff 15 00 00 00
	00		 call	 DWORD PTR __imp_??0ioMovingWnd@@QAE@XZ
  00017	33 c0		 xor	 eax, eax
  00019	8d 8e 90 01 00
	00		 lea	 ecx, DWORD PTR [esi+400]
  0001f	c7 06 00 00 00
	00		 mov	 DWORD PTR [esi], OFFSET ??_7EventCatalogWnd@@6B@
  00025	89 45 fc	 mov	 DWORD PTR __$EHRec$[ebp+8], eax
  00028	89 01		 mov	 DWORD PTR [ecx], eax
  0002a	89 41 04	 mov	 DWORD PTR [ecx+4], eax
  0002d	89 41 08	 mov	 DWORD PTR [ecx+8], eax

; 41   : 	m_bIERefreshCheck  = false;

  00030	88 86 b0 01 00
	00		 mov	 BYTE PTR [esi+432], al

; 42   : 	m_dwIERefreshTimer = 0;

  00036	89 86 ac 01 00
	00		 mov	 DWORD PTR [esi+428], eax

; 43   : 	m_IEHwnd           = 0;

  0003c	a3 00 00 00 00	 mov	 DWORD PTR ?m_IEHwnd@EventCatalogWnd@@1PAUHWND__@@A, eax ; EventCatalogWnd::m_IEHwnd

; 44   : 
; 45   : 	m_iSelectId        = ID_EVENT_1_BTN;
; 46   : 	m_pImgFirst        = NULL;
; 47   : 	m_pImgSecond       = NULL;
; 48   : 
; 49   : 	m_vEventInfoVector.reserve( MAX_BTN );

  00041	6a 0a		 push	 10			; 0000000aH
  00043	c6 45 fc 01	 mov	 BYTE PTR __$EHRec$[ebp+8], 1
  00047	c7 86 a0 01 00
	00 01 00 00 00	 mov	 DWORD PTR [esi+416], 1
  00051	89 86 a4 01 00
	00		 mov	 DWORD PTR [esi+420], eax
  00057	89 86 a8 01 00
	00		 mov	 DWORD PTR [esi+424], eax
  0005d	e8 00 00 00 00	 call	 ?reserve@?$vector@PAUtagEventInfo@@V?$allocator@PAUtagEventInfo@@@std@@@std@@QAEXI@Z ; std::vector<tagEventInfo *,std::allocator<tagEventInfo *> >::reserve

; 50   : }

  00062	8b c6		 mov	 eax, esi
  00064	e8 00 00 00 00	 call	 __EH_epilog3
  00069	c3		 ret	 0
_TEXT	ENDS
;	COMDAT text$x
text$x	SEGMENT
__unwindfunclet$??0EventCatalogWnd@@QAE@XZ$0:
  00000	8b 4d f0	 mov	 ecx, DWORD PTR _this$[ebp]
  00003	ff 25 00 00 00
	00		 jmp	 DWORD PTR __imp_??1ioMovingWnd@@UAE@XZ
__unwindfunclet$??0EventCatalogWnd@@QAE@XZ$1:
  00009	8b 4d f0	 mov	 ecx, DWORD PTR _this$[ebp]
  0000c	81 c1 90 01 00
	00		 add	 ecx, 400		; 00000190H
  00012	e9 00 00 00 00	 jmp	 ??1?$vector@PAUtagEventInfo@@V?$allocator@PAUtagEventInfo@@@std@@@std@@QAE@XZ ; std::vector<tagEventInfo *,std::allocator<tagEventInfo *> >::~vector<tagEventInfo *,std::allocator<tagEventInfo *> >
__ehhandler$??0EventCatalogWnd@@QAE@XZ:
  00017	8b 54 24 08	 mov	 edx, DWORD PTR [esp+8]
  0001b	8d 42 0c	 lea	 eax, DWORD PTR [edx+12]
  0001e	8b 4a ec	 mov	 ecx, DWORD PTR [edx-20]
  00021	33 c8		 xor	 ecx, eax
  00023	e8 00 00 00 00	 call	 @__security_check_cookie@4
  00028	b8 00 00 00 00	 mov	 eax, OFFSET __ehfuncinfo$??0EventCatalogWnd@@QAE@XZ
  0002d	e9 00 00 00 00	 jmp	 ___CxxFrameHandler3
text$x	ENDS
??0EventCatalogWnd@@QAE@XZ ENDP				; EventCatalogWnd::EventCatalogWnd
PUBLIC	??_C@_0BC@DPBOECMF@?$CFs?5pInfo?5?$DN?$DN?5NULL?4?$AA@ ; `string'
PUBLIC	??_C@_0BF@LIJDIHBM@?$CFs?5pBtn?5is?5NULL?$CI?$CFd?$CJ?4?$AA@ ; `string'
PUBLIC	??_C@_0CC@EINFMCOA@EventCatalogWnd?3?3SetShowHideChil@ ; `string'
PUBLIC	?SetShowHideChild@EventCatalogWnd@@QAEXH@Z	; EventCatalogWnd::SetShowHideChild
EXTRN	__imp__rand:PROC
;	COMDAT ??_C@_0BC@DPBOECMF@?$CFs?5pInfo?5?$DN?$DN?5NULL?4?$AA@
; File c:\program files (x86)\microsoft visual studio 10.0\vc\include\vector
CONST	SEGMENT
??_C@_0BC@DPBOECMF@?$CFs?5pInfo?5?$DN?$DN?5NULL?4?$AA@ DB '%s pInfo == NU'
	DB	'LL.', 00H					; `string'
CONST	ENDS
;	COMDAT ??_C@_0BF@LIJDIHBM@?$CFs?5pBtn?5is?5NULL?$CI?$CFd?$CJ?4?$AA@
CONST	SEGMENT
??_C@_0BF@LIJDIHBM@?$CFs?5pBtn?5is?5NULL?$CI?$CFd?$CJ?4?$AA@ DB '%s pBtn '
	DB	'is NULL(%d).', 00H				; `string'
CONST	ENDS
;	COMDAT ??_C@_0CC@EINFMCOA@EventCatalogWnd?3?3SetShowHideChil@
CONST	SEGMENT
??_C@_0CC@EINFMCOA@EventCatalogWnd?3?3SetShowHideChil@ DB 'EventCatalogWn'
	DB	'd::SetShowHideChild', 00H			; `string'
; Function compile flags: /Ogsp
; File d:\lost saga for developer\youtube\tutorial\source\src\lsclient\gui\eventcatalogwnd.cpp
CONST	ENDS
;	COMDAT ?SetShowHideChild@EventCatalogWnd@@QAEXH@Z
_TEXT	SEGMENT
$T526048 = -8						; size = 4
tv347 = -4						; size = 4
$T526043 = -4						; size = 4
_iShowEventType$ = 8					; size = 4
?SetShowHideChild@EventCatalogWnd@@QAEXH@Z PROC		; EventCatalogWnd::SetShowHideChild, COMDAT
; _this$ = ecx

; 154  : {

  00000	55		 push	 ebp
  00001	8b ec		 mov	 ebp, esp
  00003	51		 push	 ecx
  00004	51		 push	 ecx
  00005	53		 push	 ebx
  00006	56		 push	 esi
  00007	57		 push	 edi
  00008	8b f9		 mov	 edi, ecx

; 155  : 	// erase
; 156  : 	vEventInfoVector::iterator iter = m_vEventInfoVector.begin();

  0000a	8b b7 90 01 00
	00		 mov	 esi, DWORD PTR [edi+400]
  00010	eb 44		 jmp	 SHORT $LN62@SetShowHid
$LL14@SetShowHid:

; 158  : 	{
; 159  : 		EventInfo *pInfo = (*iter);

  00012	8b 06		 mov	 eax, DWORD PTR [esi]

; 160  : 		if( !pInfo )

  00014	85 c0		 test	 eax, eax
  00016	0f 84 85 00 00
	00		 je	 $LN60@SetShowHid

; 164  : 		}
; 165  : 
; 166  : 		if( IsAlive( *pInfo ) )

  0001c	50		 push	 eax
  0001d	8b cf		 mov	 ecx, edi
  0001f	e8 00 00 00 00	 call	 ?IsAlive@EventCatalogWnd@@IAE_NABUtagEventInfo@@@Z ; EventCatalogWnd::IsAlive
  00024	84 c0		 test	 al, al
  00026	74 05		 je	 SHORT $LN11@SetShowHid

; 167  : 		{
; 168  : 			++iter;

  00028	83 c6 04	 add	 esi, 4

; 169  : 		}
; 170  : 		else

  0002b	eb 29		 jmp	 SHORT $LN62@SetShowHid
$LN11@SetShowHid:

; 171  : 		{
; 172  : 			delete *iter;

  0002d	8b 0e		 mov	 ecx, DWORD PTR [esi]
  0002f	89 4d fc	 mov	 DWORD PTR $T526043[ebp], ecx
  00032	85 c9		 test	 ecx, ecx
  00034	74 0e		 je	 SHORT $LN53@SetShowHid
  00036	e8 00 00 00 00	 call	 ??1tagEventInfo@@QAE@XZ
  0003b	ff 75 fc	 push	 DWORD PTR $T526043[ebp]
  0003e	e8 00 00 00 00	 call	 ??3@YAXPAX@Z		; operator delete
  00043	59		 pop	 ecx
$LN53@SetShowHid:

; 173  : 			iter = m_vEventInfoVector.erase( iter );

  00044	56		 push	 esi
  00045	8d 45 f8	 lea	 eax, DWORD PTR $T526048[ebp]
  00048	50		 push	 eax
  00049	8d 8f 90 01 00
	00		 lea	 ecx, DWORD PTR [edi+400]
  0004f	e8 00 00 00 00	 call	 ?erase@?$vector@PAUtagEventInfo@@V?$allocator@PAUtagEventInfo@@@std@@@std@@QAE?AV?$_Vector_iterator@V?$_Vector_val@PAUtagEventInfo@@V?$allocator@PAUtagEventInfo@@@std@@@std@@@2@V?$_Vector_const_iterator@V?$_Vector_val@PAUtagEventInfo@@V?$allocator@PAUtagEventInfo@@@std@@@std@@@2@@Z ; std::vector<tagEventInfo *,std::allocator<tagEventInfo *> >::erase
  00054	8b 30		 mov	 esi, DWORD PTR [eax]
$LN62@SetShowHid:

; 157  : 	while ( iter != m_vEventInfoVector.end() )

  00056	3b b7 94 01 00
	00		 cmp	 esi, DWORD PTR [edi+404]
  0005c	75 b4		 jne	 SHORT $LL14@SetShowHid

; 174  : 		}
; 175  : 	}
; 176  : 
; 177  : 	// show hide
; 178  : 	int iSize = m_vEventInfoVector.size();

  0005e	8b b7 94 01 00
	00		 mov	 esi, DWORD PTR [edi+404]
  00064	2b b7 90 01 00
	00		 sub	 esi, DWORD PTR [edi+400]
  0006a	c1 fe 02	 sar	 esi, 2

; 179  : 	for (int i = 0; i < MAX_BTN ; i++)

  0006d	33 db		 xor	 ebx, ebx
$LL9@SetShowHid:

; 180  : 	{
; 181  : 		ioWnd *pBtn = FindChildWnd( ID_EVENT_1_BTN + i );

  0006f	8d 43 01	 lea	 eax, DWORD PTR [ebx+1]
  00072	50		 push	 eax
  00073	8b cf		 mov	 ecx, edi
  00075	89 45 fc	 mov	 DWORD PTR tv347[ebp], eax
  00078	ff 15 00 00 00
	00		 call	 DWORD PTR __imp_?FindChildWnd@ioWnd@@QAEPAV1@K@Z

; 182  : 		if( !pBtn )

  0007e	85 c0		 test	 eax, eax
  00080	75 3c		 jne	 SHORT $LN6@SetShowHid

; 183  : 		{
; 184  : 			LOG.PrintTimeAndLog( 0, "%s pBtn is NULL(%d).", __FUNCTION__, ID_EVENT_1_BTN + i );

  00082	ff 75 fc	 push	 DWORD PTR tv347[ebp]
  00085	68 00 00 00 00	 push	 OFFSET ??_C@_0CC@EINFMCOA@EventCatalogWnd?3?3SetShowHideChil@
  0008a	68 00 00 00 00	 push	 OFFSET ??_C@_0BF@LIJDIHBM@?$CFs?5pBtn?5is?5NULL?$CI?$CFd?$CJ?4?$AA@
  0008f	50		 push	 eax
  00090	ff 35 00 00 00
	00		 push	 DWORD PTR __imp_?LOG@@3VCLog@@A
  00096	ff 15 00 00 00
	00		 call	 DWORD PTR __imp_?PrintTimeAndLog@CLog@@QAAXHPADZZ
  0009c	83 c4 14	 add	 esp, 20			; 00000014H

; 185  : 			continue;

  0009f	eb 37		 jmp	 SHORT $LN8@SetShowHid
$LN60@SetShowHid:

; 161  : 		{
; 162  : 			LOG.PrintTimeAndLog( 0, "%s pInfo == NULL.", __FUNCTION__ );

  000a1	68 00 00 00 00	 push	 OFFSET ??_C@_0CC@EINFMCOA@EventCatalogWnd?3?3SetShowHideChil@
  000a6	68 00 00 00 00	 push	 OFFSET ??_C@_0BC@DPBOECMF@?$CFs?5pInfo?5?$DN?$DN?5NULL?4?$AA@
  000ab	6a 00		 push	 0
  000ad	ff 35 00 00 00
	00		 push	 DWORD PTR __imp_?LOG@@3VCLog@@A
  000b3	ff 15 00 00 00
	00		 call	 DWORD PTR __imp_?PrintTimeAndLog@CLog@@QAAXHPADZZ
  000b9	83 c4 10	 add	 esp, 16			; 00000010H

; 163  : 			return;

  000bc	eb 77		 jmp	 SHORT $LN15@SetShowHid
$LN6@SetShowHid:

; 186  : 		}
; 187  : 
; 188  : 		if( COMPARE( i , 0 , iSize ) )

  000be	85 db		 test	 ebx, ebx
  000c0	78 0e		 js	 SHORT $LN5@SetShowHid
  000c2	3b de		 cmp	 ebx, esi
  000c4	7d 0a		 jge	 SHORT $LN5@SetShowHid

; 189  : 			pBtn->ShowWnd();

  000c6	8b c8		 mov	 ecx, eax
  000c8	ff 15 00 00 00
	00		 call	 DWORD PTR __imp_?ShowWnd@ioWnd@@QAEXXZ

; 190  : 		else

  000ce	eb 08		 jmp	 SHORT $LN8@SetShowHid
$LN5@SetShowHid:

; 191  : 			pBtn->HideWnd();

  000d0	8b c8		 mov	 ecx, eax
  000d2	ff 15 00 00 00
	00		 call	 DWORD PTR __imp_?HideWnd@ioWnd@@QAEXXZ
$LN8@SetShowHid:

; 179  : 	for (int i = 0; i < MAX_BTN ; i++)

  000d8	8b 5d fc	 mov	 ebx, DWORD PTR tv347[ebp]
  000db	83 fb 0a	 cmp	 ebx, 10			; 0000000aH
  000de	7c 8f		 jl	 SHORT $LL9@SetShowHid

; 192  : 	}
; 193  : 
; 194  : 	// radom 셋팅
; 195  : 	if( iShowEventType == -1 )

  000e0	33 db		 xor	 ebx, ebx
  000e2	43		 inc	 ebx
  000e3	83 7d 08 ff	 cmp	 DWORD PTR _iShowEventType$[ebp], -1
  000e7	75 1c		 jne	 SHORT $LN3@SetShowHid

; 196  : 	{
; 197  : 		m_iSelectId = ID_EVENT_1_BTN;

  000e9	89 9f a0 01 00
	00		 mov	 DWORD PTR [edi+416], ebx

; 198  : 		if( iSize > 0 ) // block divide by zero

  000ef	85 f6		 test	 esi, esi
  000f1	7e 22		 jle	 SHORT $LN1@SetShowHid

; 199  : 		{
; 200  : 			m_iSelectId =  ID_EVENT_1_BTN + ( rand()%iSize );

  000f3	ff 15 00 00 00
	00		 call	 DWORD PTR __imp__rand
  000f9	99		 cdq
  000fa	f7 fe		 idiv	 esi
  000fc	42		 inc	 edx
  000fd	89 97 a0 01 00
	00		 mov	 DWORD PTR [edi+416], edx

; 201  : 		}
; 202  : 	}
; 203  : 	else

  00103	eb 10		 jmp	 SHORT $LN1@SetShowHid
$LN3@SetShowHid:

; 204  : 		m_iSelectId = GetSelectIdByEventType( iShowEventType );

  00105	ff 75 08	 push	 DWORD PTR _iShowEventType$[ebp]
  00108	8b cf		 mov	 ecx, edi
  0010a	e8 00 00 00 00	 call	 ?GetSelectIdByEventType@EventCatalogWnd@@IAEHH@Z ; EventCatalogWnd::GetSelectIdByEventType
  0010f	89 87 a0 01 00
	00		 mov	 DWORD PTR [edi+416], eax
$LN1@SetShowHid:

; 205  : 
; 206  : 	CheckRadioButton( ID_EVENT_1_BTN, ID_EVENT_1_BTN+iSize, m_iSelectId );

  00115	ff b7 a0 01 00
	00		 push	 DWORD PTR [edi+416]
  0011b	46		 inc	 esi
  0011c	56		 push	 esi
  0011d	53		 push	 ebx
  0011e	8b cf		 mov	 ecx, edi
  00120	ff 15 00 00 00
	00		 call	 DWORD PTR __imp_?CheckRadioButton@ioWnd@@QAEXKKK@Z

; 207  : 	SetImg( m_iSelectId - ID_EVENT_1_BTN );

  00126	8b 87 a0 01 00
	00		 mov	 eax, DWORD PTR [edi+416]
  0012c	48		 dec	 eax
  0012d	50		 push	 eax
  0012e	8b cf		 mov	 ecx, edi
  00130	e8 00 00 00 00	 call	 ?SetImg@EventCatalogWnd@@IAEXH@Z ; EventCatalogWnd::SetImg
$LN15@SetShowHid:
  00135	5f		 pop	 edi
  00136	5e		 pop	 esi
  00137	5b		 pop	 ebx

; 208  : }

  00138	c9		 leave
  00139	c2 04 00	 ret	 4
?SetShowHideChild@EventCatalogWnd@@QAEXH@Z ENDP		; EventCatalogWnd::SetShowHideChild
_TEXT	ENDS
PUBLIC	??1?$vector@PAVioUIRenderImage@@V?$allocator@PAVioUIRenderImage@@@std@@@std@@QAE@XZ ; std::vector<ioUIRenderImage *,std::allocator<ioUIRenderImage *> >::~vector<ioUIRenderImage *,std::allocator<ioUIRenderImage *> >
; Function compile flags: /Ogsp
; File c:\program files (x86)\microsoft visual studio 10.0\vc\include\vector
;	COMDAT ??1?$vector@PAVioUIRenderImage@@V?$allocator@PAVioUIRenderImage@@@std@@@std@@QAE@XZ
_TEXT	SEGMENT
??1?$vector@PAVioUIRenderImage@@V?$allocator@PAVioUIRenderImage@@@std@@@std@@QAE@XZ PROC ; std::vector<ioUIRenderImage *,std::allocator<ioUIRenderImage *> >::~vector<ioUIRenderImage *,std::allocator<ioUIRenderImage *> >, COMDAT
; _this$ = ecx

; 705  : 		_Tidy();

  00000	e9 00 00 00 00	 jmp	 ?_Tidy@?$vector@PAVioUIRenderImage@@V?$allocator@PAVioUIRenderImage@@@std@@@std@@IAEXXZ ; std::vector<ioUIRenderImage *,std::allocator<ioUIRenderImage *> >::_Tidy
??1?$vector@PAVioUIRenderImage@@V?$allocator@PAVioUIRenderImage@@@std@@@std@@QAE@XZ ENDP ; std::vector<ioUIRenderImage *,std::allocator<ioUIRenderImage *> >::~vector<ioUIRenderImage *,std::allocator<ioUIRenderImage *> >
_TEXT	ENDS
PUBLIC	?clear@?$vector@PAVioUIRenderImage@@V?$allocator@PAVioUIRenderImage@@@std@@@std@@QAEXXZ ; std::vector<ioUIRenderImage *,std::allocator<ioUIRenderImage *> >::clear
; Function compile flags: /Ogsp
;	COMDAT ?clear@?$vector@PAVioUIRenderImage@@V?$allocator@PAVioUIRenderImage@@@std@@@std@@QAEXXZ
_TEXT	SEGMENT
$T526164 = -4						; size = 4
?clear@?$vector@PAVioUIRenderImage@@V?$allocator@PAVioUIRenderImage@@@std@@@std@@QAEXXZ PROC ; std::vector<ioUIRenderImage *,std::allocator<ioUIRenderImage *> >::clear, COMDAT
; _this$ = ecx

; 1217 : 		{	// erase all

  00000	55		 push	 ebp
  00001	8b ec		 mov	 ebp, esp
  00003	51		 push	 ecx

; 1218 : 		erase(begin(), end());

  00004	8b 41 04	 mov	 eax, DWORD PTR [ecx+4]
  00007	8b 11		 mov	 edx, DWORD PTR [ecx]
  00009	50		 push	 eax
  0000a	52		 push	 edx
  0000b	8d 45 fc	 lea	 eax, DWORD PTR $T526164[ebp]
  0000e	50		 push	 eax
  0000f	e8 00 00 00 00	 call	 ?erase@?$vector@PAVioUIRenderImage@@V?$allocator@PAVioUIRenderImage@@@std@@@std@@QAE?AV?$_Vector_iterator@V?$_Vector_val@PAVioUIRenderImage@@V?$allocator@PAVioUIRenderImage@@@std@@@std@@@2@V?$_Vector_const_iterator@V?$_Vector_val@PAVioUIRenderImage@@V?$allocator@PAVioUIRenderImage@@@std@@@std@@@2@0@Z ; std::vector<ioUIRenderImage *,std::allocator<ioUIRenderImage *> >::erase

; 1219 : 		}

  00014	c9		 leave
  00015	c3		 ret	 0
?clear@?$vector@PAVioUIRenderImage@@V?$allocator@PAVioUIRenderImage@@@std@@@std@@QAEXXZ ENDP ; std::vector<ioUIRenderImage *,std::allocator<ioUIRenderImage *> >::clear
_TEXT	ENDS
PUBLIC	?push_back@?$vector@PAUtagEventInfo@@V?$allocator@PAUtagEventInfo@@@std@@@std@@QAEXABQAUtagEventInfo@@@Z ; std::vector<tagEventInfo *,std::allocator<tagEventInfo *> >::push_back
; Function compile flags: /Ogsp
;	COMDAT ?push_back@?$vector@PAUtagEventInfo@@V?$allocator@PAUtagEventInfo@@@std@@@std@@QAEXABQAUtagEventInfo@@@Z
_TEXT	SEGMENT
__Val$ = 8						; size = 4
?push_back@?$vector@PAUtagEventInfo@@V?$allocator@PAUtagEventInfo@@@std@@@std@@QAEXABQAUtagEventInfo@@@Z PROC ; std::vector<tagEventInfo *,std::allocator<tagEventInfo *> >::push_back, COMDAT
; _this$ = ecx

; 976  : 		{	// insert element at end

  00000	55		 push	 ebp
  00001	8b ec		 mov	 ebp, esp
  00003	56		 push	 esi
  00004	8b f1		 mov	 esi, ecx

; 977  : 		if (_Inside(_STD addressof(_Val)))

  00006	8b 46 04	 mov	 eax, DWORD PTR [esi+4]
  00009	57		 push	 edi
  0000a	8b 7d 08	 mov	 edi, DWORD PTR __Val$[ebp]
  0000d	3b f8		 cmp	 edi, eax
  0000f	73 27		 jae	 SHORT $LN4@push_back
  00011	8b 0e		 mov	 ecx, DWORD PTR [esi]
  00013	3b cf		 cmp	 ecx, edi
  00015	77 21		 ja	 SHORT $LN4@push_back

; 978  : 			{	// push back an element
; 979  : 			size_type _Idx = _STD addressof(_Val) - this->_Myfirst;

  00017	2b f9		 sub	 edi, ecx
  00019	c1 ff 02	 sar	 edi, 2

; 980  : 			if (this->_Mylast == this->_Myend)

  0001c	3b 46 08	 cmp	 eax, DWORD PTR [esi+8]
  0001f	75 09		 jne	 SHORT $LN3@push_back

; 981  : 				_Reserve(1);

  00021	6a 01		 push	 1
  00023	8b ce		 mov	 ecx, esi
  00025	e8 00 00 00 00	 call	 ?_Reserve@?$vector@PAUtagEventInfo@@V?$allocator@PAUtagEventInfo@@@std@@@std@@IAEXI@Z ; std::vector<tagEventInfo *,std::allocator<tagEventInfo *> >::_Reserve
$LN3@push_back:

; 982  : 			_Orphan_range(this->_Mylast, this->_Mylast);
; 983  : 			_Cons_val(this->_Alval,
; 984  : 				this->_Mylast,
; 985  : 				this->_Myfirst[_Idx]);

  0002a	8b 46 04	 mov	 eax, DWORD PTR [esi+4]
  0002d	85 c0		 test	 eax, eax
  0002f	74 20		 je	 SHORT $LN39@push_back
  00031	8b 0e		 mov	 ecx, DWORD PTR [esi]
  00033	8b 0c b9	 mov	 ecx, DWORD PTR [ecx+edi*4]

; 986  : 			++this->_Mylast;
; 987  : 			}
; 988  : 		else

  00036	eb 17		 jmp	 SHORT $LN46@push_back
$LN4@push_back:

; 989  : 			{	// push back a non-element
; 990  : 			if (this->_Mylast == this->_Myend)

  00038	3b 46 08	 cmp	 eax, DWORD PTR [esi+8]
  0003b	75 09		 jne	 SHORT $LN1@push_back

; 991  : 				_Reserve(1);

  0003d	6a 01		 push	 1
  0003f	8b ce		 mov	 ecx, esi
  00041	e8 00 00 00 00	 call	 ?_Reserve@?$vector@PAUtagEventInfo@@V?$allocator@PAUtagEventInfo@@@std@@@std@@IAEXI@Z ; std::vector<tagEventInfo *,std::allocator<tagEventInfo *> >::_Reserve
$LN1@push_back:

; 992  : 			_Orphan_range(this->_Mylast, this->_Mylast);
; 993  : 			_Cons_val(this->_Alval,
; 994  : 				this->_Mylast,
; 995  : 				_Val);

  00046	8b 46 04	 mov	 eax, DWORD PTR [esi+4]
  00049	85 c0		 test	 eax, eax
  0004b	74 04		 je	 SHORT $LN39@push_back
  0004d	8b 0f		 mov	 ecx, DWORD PTR [edi]
$LN46@push_back:
  0004f	89 08		 mov	 DWORD PTR [eax], ecx
$LN39@push_back:

; 996  : 			++this->_Mylast;

  00051	83 46 04 04	 add	 DWORD PTR [esi+4], 4
  00055	5f		 pop	 edi
  00056	5e		 pop	 esi

; 997  : 			}
; 998  : 		}

  00057	5d		 pop	 ebp
  00058	c2 04 00	 ret	 4
?push_back@?$vector@PAUtagEventInfo@@V?$allocator@PAUtagEventInfo@@@std@@@std@@QAEXABQAUtagEventInfo@@@Z ENDP ; std::vector<tagEventInfo *,std::allocator<tagEventInfo *> >::push_back
_TEXT	ENDS
PUBLIC	?clear@?$vector@PAUtagEventInfo@@V?$allocator@PAUtagEventInfo@@@std@@@std@@QAEXXZ ; std::vector<tagEventInfo *,std::allocator<tagEventInfo *> >::clear
; Function compile flags: /Ogsp
;	COMDAT ?clear@?$vector@PAUtagEventInfo@@V?$allocator@PAUtagEventInfo@@@std@@@std@@QAEXXZ
_TEXT	SEGMENT
$T526343 = -4						; size = 4
?clear@?$vector@PAUtagEventInfo@@V?$allocator@PAUtagEventInfo@@@std@@@std@@QAEXXZ PROC ; std::vector<tagEventInfo *,std::allocator<tagEventInfo *> >::clear, COMDAT
; _this$ = ecx

; 1217 : 		{	// erase all

  00000	55		 push	 ebp
  00001	8b ec		 mov	 ebp, esp
  00003	51		 push	 ecx

; 1218 : 		erase(begin(), end());

  00004	8b 41 04	 mov	 eax, DWORD PTR [ecx+4]
  00007	8b 11		 mov	 edx, DWORD PTR [ecx]
  00009	50		 push	 eax
  0000a	52		 push	 edx
  0000b	8d 45 fc	 lea	 eax, DWORD PTR $T526343[ebp]
  0000e	50		 push	 eax
  0000f	e8 00 00 00 00	 call	 ?erase@?$vector@PAUtagEventInfo@@V?$allocator@PAUtagEventInfo@@@std@@@std@@QAE?AV?$_Vector_iterator@V?$_Vector_val@PAUtagEventInfo@@V?$allocator@PAUtagEventInfo@@@std@@@std@@@2@V?$_Vector_const_iterator@V?$_Vector_val@PAUtagEventInfo@@V?$allocator@PAUtagEventInfo@@@std@@@std@@@2@0@Z ; std::vector<tagEventInfo *,std::allocator<tagEventInfo *> >::erase

; 1219 : 		}

  00014	c9		 leave
  00015	c3		 ret	 0
?clear@?$vector@PAUtagEventInfo@@V?$allocator@PAUtagEventInfo@@@std@@@std@@QAEXXZ ENDP ; std::vector<tagEventInfo *,std::allocator<tagEventInfo *> >::clear
_TEXT	ENDS
PUBLIC	?_Reserve@?$vector@PAVioUIRenderImage@@V?$allocator@PAVioUIRenderImage@@@std@@@std@@IAEXI@Z ; std::vector<ioUIRenderImage *,std::allocator<ioUIRenderImage *> >::_Reserve
; Function compile flags: /Ogsp
;	COMDAT ?_Reserve@?$vector@PAVioUIRenderImage@@V?$allocator@PAVioUIRenderImage@@@std@@@std@@IAEXI@Z
_TEXT	SEGMENT
__Count$ = 8						; size = 4
?_Reserve@?$vector@PAVioUIRenderImage@@V?$allocator@PAVioUIRenderImage@@@std@@@std@@IAEXI@Z PROC ; std::vector<ioUIRenderImage *,std::allocator<ioUIRenderImage *> >::_Reserve, COMDAT
; _this$ = ecx

; 1290 : 		{	// ensure room for _Count new elements, grow exponentially

  00000	55		 push	 ebp
  00001	8b ec		 mov	 ebp, esp
  00003	56		 push	 esi
  00004	8b f1		 mov	 esi, ecx

; 1291 : 		size_type _Size = size();

  00006	8b 0e		 mov	 ecx, DWORD PTR [esi]
  00008	8b 46 04	 mov	 eax, DWORD PTR [esi+4]
  0000b	2b c1		 sub	 eax, ecx

; 1292 : 		if (max_size() - _Count < _Size)

  0000d	ba ff ff ff 3f	 mov	 edx, 1073741823		; 3fffffffH
  00012	2b 55 08	 sub	 edx, DWORD PTR __Count$[ebp]
  00015	c1 f8 02	 sar	 eax, 2
  00018	3b d0		 cmp	 edx, eax
  0001a	73 0b		 jae	 SHORT $LN4@Reserve@2

; 1293 : 			_Xlen();

  0001c	68 00 00 00 00	 push	 OFFSET ??_C@_0BD@OLBABOEK@vector?$DMT?$DO?5too?5long?$AA@
  00021	ff 15 00 00 00
	00		 call	 DWORD PTR __imp_?_Xlength_error@std@@YAXPBD@Z
$LN21@Reserve@2:
$LN4@Reserve@2:

; 1294 : 		else if ((_Size += _Count) <= capacity())

  00027	8b 56 08	 mov	 edx, DWORD PTR [esi+8]
  0002a	03 45 08	 add	 eax, DWORD PTR __Count$[ebp]
  0002d	2b d1		 sub	 edx, ecx
  0002f	c1 fa 02	 sar	 edx, 2
  00032	3b c2		 cmp	 eax, edx
  00034	76 10		 jbe	 SHORT $LN1@Reserve@2

; 1295 : 			;
; 1296 : 		else
; 1297 : 			reserve(_Grow_to(_Size));

  00036	50		 push	 eax
  00037	8b ce		 mov	 ecx, esi
  00039	e8 00 00 00 00	 call	 ?_Grow_to@?$vector@PAVioUIRenderImage@@V?$allocator@PAVioUIRenderImage@@@std@@@std@@IBEII@Z ; std::vector<ioUIRenderImage *,std::allocator<ioUIRenderImage *> >::_Grow_to
  0003e	50		 push	 eax
  0003f	8b ce		 mov	 ecx, esi
  00041	e8 00 00 00 00	 call	 ?reserve@?$vector@PAVioUIRenderImage@@V?$allocator@PAVioUIRenderImage@@@std@@@std@@QAEXI@Z ; std::vector<ioUIRenderImage *,std::allocator<ioUIRenderImage *> >::reserve
$LN1@Reserve@2:
  00046	5e		 pop	 esi

; 1298 : 		}

  00047	5d		 pop	 ebp
  00048	c2 04 00	 ret	 4
$LN20@Reserve@2:
?_Reserve@?$vector@PAVioUIRenderImage@@V?$allocator@PAVioUIRenderImage@@@std@@@std@@IAEXI@Z ENDP ; std::vector<ioUIRenderImage *,std::allocator<ioUIRenderImage *> >::_Reserve
_TEXT	ENDS
PUBLIC	??1?$vector@HV?$allocator@H@std@@@std@@QAE@XZ	; std::vector<int,std::allocator<int> >::~vector<int,std::allocator<int> >
; Function compile flags: /Ogsp
;	COMDAT ??1?$vector@HV?$allocator@H@std@@@std@@QAE@XZ
_TEXT	SEGMENT
??1?$vector@HV?$allocator@H@std@@@std@@QAE@XZ PROC	; std::vector<int,std::allocator<int> >::~vector<int,std::allocator<int> >, COMDAT
; _this$ = ecx

; 705  : 		_Tidy();

  00000	e9 00 00 00 00	 jmp	 ?_Tidy@?$vector@HV?$allocator@H@std@@@std@@IAEXXZ ; std::vector<int,std::allocator<int> >::_Tidy
??1?$vector@HV?$allocator@H@std@@@std@@QAE@XZ ENDP	; std::vector<int,std::allocator<int> >::~vector<int,std::allocator<int> >
_TEXT	ENDS
PUBLIC	?clear@?$vector@HV?$allocator@H@std@@@std@@QAEXXZ ; std::vector<int,std::allocator<int> >::clear
; Function compile flags: /Ogsp
;	COMDAT ?clear@?$vector@HV?$allocator@H@std@@@std@@QAEXXZ
_TEXT	SEGMENT
$T526437 = -4						; size = 4
?clear@?$vector@HV?$allocator@H@std@@@std@@QAEXXZ PROC	; std::vector<int,std::allocator<int> >::clear, COMDAT
; _this$ = ecx

; 1217 : 		{	// erase all

  00000	55		 push	 ebp
  00001	8b ec		 mov	 ebp, esp
  00003	51		 push	 ecx

; 1218 : 		erase(begin(), end());

  00004	8b 41 04	 mov	 eax, DWORD PTR [ecx+4]
  00007	8b 11		 mov	 edx, DWORD PTR [ecx]
  00009	50		 push	 eax
  0000a	52		 push	 edx
  0000b	8d 45 fc	 lea	 eax, DWORD PTR $T526437[ebp]
  0000e	50		 push	 eax
  0000f	e8 00 00 00 00	 call	 ?erase@?$vector@HV?$allocator@H@std@@@std@@QAE?AV?$_Vector_iterator@V?$_Vector_val@HV?$allocator@H@std@@@std@@@2@V?$_Vector_const_iterator@V?$_Vector_val@HV?$allocator@H@std@@@std@@@2@0@Z ; std::vector<int,std::allocator<int> >::erase

; 1219 : 		}

  00014	c9		 leave
  00015	c3		 ret	 0
?clear@?$vector@HV?$allocator@H@std@@@std@@QAEXXZ ENDP	; std::vector<int,std::allocator<int> >::clear
_TEXT	ENDS
PUBLIC	?_Reserve@?$vector@HV?$allocator@H@std@@@std@@IAEXI@Z ; std::vector<int,std::allocator<int> >::_Reserve
; Function compile flags: /Ogsp
;	COMDAT ?_Reserve@?$vector@HV?$allocator@H@std@@@std@@IAEXI@Z
_TEXT	SEGMENT
__Count$ = 8						; size = 4
?_Reserve@?$vector@HV?$allocator@H@std@@@std@@IAEXI@Z PROC ; std::vector<int,std::allocator<int> >::_Reserve, COMDAT
; _this$ = ecx

; 1290 : 		{	// ensure room for _Count new elements, grow exponentially

  00000	55		 push	 ebp
  00001	8b ec		 mov	 ebp, esp
  00003	56		 push	 esi
  00004	8b f1		 mov	 esi, ecx

; 1291 : 		size_type _Size = size();

  00006	8b 0e		 mov	 ecx, DWORD PTR [esi]
  00008	8b 46 04	 mov	 eax, DWORD PTR [esi+4]
  0000b	2b c1		 sub	 eax, ecx

; 1292 : 		if (max_size() - _Count < _Size)

  0000d	ba ff ff ff 3f	 mov	 edx, 1073741823		; 3fffffffH
  00012	2b 55 08	 sub	 edx, DWORD PTR __Count$[ebp]
  00015	c1 f8 02	 sar	 eax, 2
  00018	3b d0		 cmp	 edx, eax
  0001a	73 0b		 jae	 SHORT $LN4@Reserve@3

; 1293 : 			_Xlen();

  0001c	68 00 00 00 00	 push	 OFFSET ??_C@_0BD@OLBABOEK@vector?$DMT?$DO?5too?5long?$AA@
  00021	ff 15 00 00 00
	00		 call	 DWORD PTR __imp_?_Xlength_error@std@@YAXPBD@Z
$LN21@Reserve@3:
$LN4@Reserve@3:

; 1294 : 		else if ((_Size += _Count) <= capacity())

  00027	8b 56 08	 mov	 edx, DWORD PTR [esi+8]
  0002a	03 45 08	 add	 eax, DWORD PTR __Count$[ebp]
  0002d	2b d1		 sub	 edx, ecx
  0002f	c1 fa 02	 sar	 edx, 2
  00032	3b c2		 cmp	 eax, edx
  00034	76 10		 jbe	 SHORT $LN1@Reserve@3

; 1295 : 			;
; 1296 : 		else
; 1297 : 			reserve(_Grow_to(_Size));

  00036	50		 push	 eax
  00037	8b ce		 mov	 ecx, esi
  00039	e8 00 00 00 00	 call	 ?_Grow_to@?$vector@HV?$allocator@H@std@@@std@@IBEII@Z ; std::vector<int,std::allocator<int> >::_Grow_to
  0003e	50		 push	 eax
  0003f	8b ce		 mov	 ecx, esi
  00041	e8 00 00 00 00	 call	 ?reserve@?$vector@HV?$allocator@H@std@@@std@@QAEXI@Z ; std::vector<int,std::allocator<int> >::reserve
$LN1@Reserve@3:
  00046	5e		 pop	 esi

; 1298 : 		}

  00047	5d		 pop	 ebp
  00048	c2 04 00	 ret	 4
$LN20@Reserve@3:
?_Reserve@?$vector@HV?$allocator@H@std@@@std@@IAEXI@Z ENDP ; std::vector<int,std::allocator<int> >::_Reserve
_TEXT	ENDS
PUBLIC	??1EventCatalogWnd@@UAE@XZ			; EventCatalogWnd::~EventCatalogWnd
;	COMDAT xdata$x
xdata$x	SEGMENT
__unwindtable$??1EventCatalogWnd@@UAE@XZ DD 0ffffffffH
	DD	FLAT:__unwindfunclet$??1EventCatalogWnd@@UAE@XZ$0
	DD	00H
	DD	FLAT:__unwindfunclet$??1EventCatalogWnd@@UAE@XZ$1
__ehfuncinfo$??1EventCatalogWnd@@UAE@XZ DD 019930522H
	DD	02H
	DD	FLAT:__unwindtable$??1EventCatalogWnd@@UAE@XZ
	DD	2 DUP(00H)
	DD	2 DUP(00H)
	DD	00H
	DD	01H
; Function compile flags: /Ogsp
; File d:\lost saga for developer\youtube\tutorial\source\src\lsclient\gui\eventcatalogwnd.cpp
xdata$x	ENDS
;	COMDAT ??1EventCatalogWnd@@UAE@XZ
_TEXT	SEGMENT
_this$ = -20						; size = 4
$T526681 = -16						; size = 4
$T526521 = -16						; size = 4
__$EHRec$ = -12						; size = 12
??1EventCatalogWnd@@UAE@XZ PROC				; EventCatalogWnd::~EventCatalogWnd, COMDAT
; _this$ = ecx

; 53   : {

  00000	6a 08		 push	 8
  00002	b8 00 00 00 00	 mov	 eax, __ehhandler$??1EventCatalogWnd@@UAE@XZ
  00007	e8 00 00 00 00	 call	 __EH_prolog3
  0000c	8b f1		 mov	 esi, ecx
  0000e	89 75 ec	 mov	 DWORD PTR _this$[ebp], esi
  00011	c7 06 00 00 00
	00		 mov	 DWORD PTR [esi], OFFSET ??_7EventCatalogWnd@@6B@

; 54   : 	for(vEventInfoVector::iterator iter = m_vEventInfoVector.begin(); iter != m_vEventInfoVector.end(); ++iter)

  00017	8b 9e 90 01 00
	00		 mov	 ebx, DWORD PTR [esi+400]
  0001d	c7 45 fc 01 00
	00 00		 mov	 DWORD PTR __$EHRec$[ebp+8], 1
  00024	eb 1a		 jmp	 SHORT $LN74@EventCatal
$LL26@EventCatal:

; 55   : 	{
; 56   : 	    delete *iter;

  00026	8b 0b		 mov	 ecx, DWORD PTR [ebx]
  00028	89 4d f0	 mov	 DWORD PTR $T526521[ebp], ecx
  0002b	85 c9		 test	 ecx, ecx
  0002d	74 0e		 je	 SHORT $LN4@EventCatal
  0002f	e8 00 00 00 00	 call	 ??1tagEventInfo@@QAE@XZ
  00034	ff 75 f0	 push	 DWORD PTR $T526521[ebp]
  00037	e8 00 00 00 00	 call	 ??3@YAXPAX@Z		; operator delete
  0003c	59		 pop	 ecx
$LN4@EventCatal:

; 54   : 	for(vEventInfoVector::iterator iter = m_vEventInfoVector.begin(); iter != m_vEventInfoVector.end(); ++iter)

  0003d	83 c3 04	 add	 ebx, 4
$LN74@EventCatal:
  00040	3b 9e 94 01 00
	00		 cmp	 ebx, DWORD PTR [esi+404]
  00046	75 de		 jne	 SHORT $LL26@EventCatal

; 57   : 	}
; 58   : 	m_vEventInfoVector.clear();

  00048	8b 86 94 01 00
	00		 mov	 eax, DWORD PTR [esi+404]
  0004e	8b 8e 90 01 00
	00		 mov	 ecx, DWORD PTR [esi+400]
  00054	50		 push	 eax
  00055	51		 push	 ecx
  00056	8d 45 f0	 lea	 eax, DWORD PTR $T526681[ebp]
  00059	50		 push	 eax
  0005a	8d 8e 90 01 00
	00		 lea	 ecx, DWORD PTR [esi+400]
  00060	e8 00 00 00 00	 call	 ?erase@?$vector@PAUtagEventInfo@@V?$allocator@PAUtagEventInfo@@@std@@@std@@QAE?AV?$_Vector_iterator@V?$_Vector_val@PAUtagEventInfo@@V?$allocator@PAUtagEventInfo@@@std@@@std@@@2@V?$_Vector_const_iterator@V?$_Vector_val@PAUtagEventInfo@@V?$allocator@PAUtagEventInfo@@@std@@@std@@@2@0@Z ; std::vector<tagEventInfo *,std::allocator<tagEventInfo *> >::erase

; 59   : 
; 60   : 	SAFEDELETE( m_pImgFirst );

  00065	8b 8e a4 01 00
	00		 mov	 ecx, DWORD PTR [esi+420]
  0006b	85 c9		 test	 ecx, ecx
  0006d	74 0e		 je	 SHORT $LN2@EventCatal
  0006f	8b 01		 mov	 eax, DWORD PTR [ecx]
  00071	6a 01		 push	 1
  00073	ff 50 40	 call	 DWORD PTR [eax+64]
  00076	83 a6 a4 01 00
	00 00		 and	 DWORD PTR [esi+420], 0
$LN2@EventCatal:

; 61   : 	SAFEDELETE( m_pImgSecond );

  0007d	8b 8e a8 01 00
	00		 mov	 ecx, DWORD PTR [esi+424]
  00083	85 c9		 test	 ecx, ecx
  00085	74 0e		 je	 SHORT $LN1@EventCatal
  00087	8b 01		 mov	 eax, DWORD PTR [ecx]
  00089	6a 01		 push	 1
  0008b	ff 50 40	 call	 DWORD PTR [eax+64]
  0008e	83 a6 a8 01 00
	00 00		 and	 DWORD PTR [esi+424], 0
$LN1@EventCatal:

; 62   : }

  00095	8d 8e 90 01 00
	00		 lea	 ecx, DWORD PTR [esi+400]
  0009b	c6 45 fc 00	 mov	 BYTE PTR __$EHRec$[ebp+8], 0
  0009f	e8 00 00 00 00	 call	 ?_Tidy@?$vector@PAUtagEventInfo@@V?$allocator@PAUtagEventInfo@@@std@@@std@@IAEXXZ ; std::vector<tagEventInfo *,std::allocator<tagEventInfo *> >::_Tidy
  000a4	83 4d fc ff	 or	 DWORD PTR __$EHRec$[ebp+8], -1
  000a8	8b ce		 mov	 ecx, esi
  000aa	ff 15 00 00 00
	00		 call	 DWORD PTR __imp_??1ioMovingWnd@@UAE@XZ
  000b0	e8 00 00 00 00	 call	 __EH_epilog3
  000b5	c3		 ret	 0
_TEXT	ENDS
;	COMDAT text$x
text$x	SEGMENT
__unwindfunclet$??1EventCatalogWnd@@UAE@XZ$0:
  00000	8b 4d ec	 mov	 ecx, DWORD PTR _this$[ebp]
  00003	ff 25 00 00 00
	00		 jmp	 DWORD PTR __imp_??1ioMovingWnd@@UAE@XZ
__unwindfunclet$??1EventCatalogWnd@@UAE@XZ$1:
  00009	8b 4d ec	 mov	 ecx, DWORD PTR _this$[ebp]
  0000c	81 c1 90 01 00
	00		 add	 ecx, 400		; 00000190H
  00012	e9 00 00 00 00	 jmp	 ??1?$vector@PAUtagEventInfo@@V?$allocator@PAUtagEventInfo@@@std@@@std@@QAE@XZ ; std::vector<tagEventInfo *,std::allocator<tagEventInfo *> >::~vector<tagEventInfo *,std::allocator<tagEventInfo *> >
__ehhandler$??1EventCatalogWnd@@UAE@XZ:
  00017	8b 54 24 08	 mov	 edx, DWORD PTR [esp+8]
  0001b	8d 42 0c	 lea	 eax, DWORD PTR [edx+12]
  0001e	8b 4a e8	 mov	 ecx, DWORD PTR [edx-24]
  00021	33 c8		 xor	 ecx, eax
  00023	e8 00 00 00 00	 call	 @__security_check_cookie@4
  00028	b8 00 00 00 00	 mov	 eax, OFFSET __ehfuncinfo$??1EventCatalogWnd@@UAE@XZ
  0002d	e9 00 00 00 00	 jmp	 ___CxxFrameHandler3
text$x	ENDS
??1EventCatalogWnd@@UAE@XZ ENDP				; EventCatalogWnd::~EventCatalogWnd
PUBLIC	_xElement$GSCopy$
PUBLIC	_this$GSCopy$
EXTRN	__imp_?GetBoolAttribute@ioXMLElement@@QBE_NPBD@Z:PROC
EXTRN	__EH_epilog3_GS:PROC
EXTRN	__EH_prolog3_GS:PROC
;	COMDAT xdata$x
; File d:\lost saga for developer\youtube\tutorial\source\src\lsclient\stringprotect.h
xdata$x	SEGMENT
__unwindtable$?ParseExtraInfo@EventCatalogWnd@@UAEXAAVioXMLElement@@@Z DD 0ffffffffH
	DD	FLAT:__unwindfunclet$?ParseExtraInfo@EventCatalogWnd@@UAEXAAVioXMLElement@@@Z$0
__ehfuncinfo$?ParseExtraInfo@EventCatalogWnd@@UAEXAAVioXMLElement@@@Z DD 019930522H
	DD	01H
	DD	FLAT:__unwindtable$?ParseExtraInfo@EventCatalogWnd@@UAEXAAVioXMLElement@@@Z
	DD	2 DUP(00H)
	DD	2 DUP(00H)
	DD	00H
	DD	01H
; Function compile flags: /Ogsp
; File d:\lost saga for developer\youtube\tutorial\source\src\lsclient\gui\eventcatalogwnd.cpp
xdata$x	ENDS
;	COMDAT ?ParseExtraInfo@EventCatalogWnd@@UAEXAAVioXMLElement@@@Z
_TEXT	SEGMENT
_this$GSCopy$ = -432					; size = 4
tv2840 = -428						; size = 4
$T526721 = -424						; size = 4
_pInfo$513766 = -424					; size = 4
_xElement$GSCopy$ = -420				; size = 4
tv7698 = -416						; size = 4
_szName$513772 = -412					; size = 260
___encStr$514843 = -152					; size = 12
___encStr$515148 = -136					; size = 12
___encStr$514538 = -120					; size = 10
___encStr$514386 = -104					; size = 12
___encStr$514081 = -88					; size = 12
___encStr$514234 = -72					; size = 11
___encStr$513929 = -56					; size = 11
___encStr$514690 = -40					; size = 17
___encStr$514996 = -36					; size = 13
___encStr$513776 = -36					; size = 13
__$EHRec$ = -12						; size = 12
_xElement$ = 8						; size = 4
?ParseExtraInfo@EventCatalogWnd@@UAEXAAVioXMLElement@@@Z PROC ; EventCatalogWnd::ParseExtraInfo, COMDAT
; _this$ = ecx

; 249  : {

  00000	68 a4 01 00 00	 push	 420			; 000001a4H
  00005	b8 00 00 00 00	 mov	 eax, __ehhandler$?ParseExtraInfo@EventCatalogWnd@@UAEXAAVioXMLElement@@@Z
  0000a	e8 00 00 00 00	 call	 __EH_prolog3_GS
  0000f	8b 45 08	 mov	 eax, DWORD PTR _xElement$[ebp]
  00012	89 8d 50 fe ff
	ff		 mov	 DWORD PTR _this$GSCopy$[ebp], ecx

; 258  : 		StringCbPrintf_e( szName, sizeof( szName ), "IsWebEvent%d", i+1 );

  00018	89 85 5c fe ff
	ff		 mov	 DWORD PTR _xElement$GSCopy$[ebp], eax
  0001e	c7 85 60 fe ff
	ff 01 00 00 00	 mov	 DWORD PTR tv7698[ebp], 1
  00028	c7 85 54 fe ff
	ff 1e 00 00 00	 mov	 DWORD PTR tv2840[ebp], 30 ; 0000001eH
  00032	33 db		 xor	 ebx, ebx
  00034	be 04 01 00 00	 mov	 esi, 260		; 00000104H
$LL996@ParseExtra@3:

; 252  : 	{
; 253  : 		EventInfo *pInfo = new EventInfo;

  00039	6a 48		 push	 72			; 00000048H
  0003b	e8 00 00 00 00	 call	 ??2@YAPAXI@Z		; operator new
  00040	59		 pop	 ecx
  00041	8b c8		 mov	 ecx, eax
  00043	89 8d 58 fe ff
	ff		 mov	 DWORD PTR $T526721[ebp], ecx
  00049	89 5d fc	 mov	 DWORD PTR __$EHRec$[ebp+8], ebx
  0004c	3b cb		 cmp	 ecx, ebx
  0004e	74 09		 je	 SHORT $LN999@ParseExtra@3
  00050	e8 00 00 00 00	 call	 ??0tagEventInfo@@QAE@XZ	; tagEventInfo::tagEventInfo
  00055	8b f8		 mov	 edi, eax
  00057	eb 02		 jmp	 SHORT $LN1000@ParseExtra@3
$LN999@ParseExtra@3:
  00059	33 ff		 xor	 edi, edi
$LN1000@ParseExtra@3:
  0005b	83 4d fc ff	 or	 DWORD PTR __$EHRec$[ebp+8], -1
  0005f	89 bd 58 fe ff
	ff		 mov	 DWORD PTR _pInfo$513766[ebp], edi

; 254  : 		if( !pInfo )

  00065	3b fb		 cmp	 edi, ebx
  00067	0f 84 15 05 00
	00		 je	 $LN995@ParseExtra@3

; 255  : 			continue;
; 256  : 
; 257  : 		char szName[MAX_PATH]="";

  0006d	68 03 01 00 00	 push	 259			; 00000103H
  00072	8d 85 65 fe ff
	ff		 lea	 eax, DWORD PTR _szName$513772[ebp+1]
  00078	53		 push	 ebx
  00079	50		 push	 eax
  0007a	88 9d 64 fe ff
	ff		 mov	 BYTE PTR _szName$513772[ebp], bl
  00080	e8 00 00 00 00	 call	 _memset
  00085	83 c4 0c	 add	 esp, 12			; 0000000cH
  00088	6a 03		 push	 3

; 258  : 		StringCbPrintf_e( szName, sizeof( szName ), "IsWebEvent%d", i+1 );

  0008a	c7 45 dc a4 9f
	bc 8f		 mov	 DWORD PTR ___encStr$513776[ebp], -1883463772 ; 8fbc9fa4H
  00091	c7 45 e0 8f a9
	9d 8f		 mov	 DWORD PTR ___encStr$513776[ebp+4], -1885492849 ; 8f9da98fH
  00098	c7 45 e4 83 98
	ce 8e		 mov	 DWORD PTR ___encStr$513776[ebp+8], -1899063165 ; 8ece9883H
  0009f	8d 45 dc	 lea	 eax, DWORD PTR ___encStr$513776[ebp]
  000a2	88 5d e8	 mov	 BYTE PTR ___encStr$513776[ebp+12], bl
  000a5	59		 pop	 ecx
$LL1007@ParseExtra@3:
  000a6	81 30 ed ec eb
	ea		 xor	 DWORD PTR [eax], -353637139 ; eaebecedH
  000ac	83 c0 04	 add	 eax, 4
  000af	49		 dec	 ecx
  000b0	75 f4		 jne	 SHORT $LL1007@ParseExtra@3
  000b2	ff b5 60 fe ff
	ff		 push	 DWORD PTR tv7698[ebp]
  000b8	8d 45 dc	 lea	 eax, DWORD PTR ___encStr$513776[ebp]
  000bb	50		 push	 eax
  000bc	8d 85 64 fe ff
	ff		 lea	 eax, DWORD PTR _szName$513772[ebp]
  000c2	56		 push	 esi
  000c3	50		 push	 eax
  000c4	e8 00 00 00 00	 call	 ?StringCbPrintfA@@YAJPADIPBDZZ ; StringCbPrintfA

; 259  : 		pInfo->m_bWebEvent  = xElement.GetBoolAttribute( szName );

  000c9	8b 8d 5c fe ff
	ff		 mov	 ecx, DWORD PTR _xElement$GSCopy$[ebp]
  000cf	83 c4 10	 add	 esp, 16			; 00000010H
  000d2	8d 85 64 fe ff
	ff		 lea	 eax, DWORD PTR _szName$513772[ebp]
  000d8	50		 push	 eax
  000d9	ff 15 00 00 00
	00		 call	 DWORD PTR __imp_?GetBoolAttribute@ioXMLElement@@QBE_NPBD@Z

; 260  : 
; 261  : 		ZeroMemory( szName, sizeof( szName ) );

  000df	56		 push	 esi
  000e0	88 07		 mov	 BYTE PTR [edi], al
  000e2	8d 85 64 fe ff
	ff		 lea	 eax, DWORD PTR _szName$513772[ebp]
  000e8	53		 push	 ebx
  000e9	50		 push	 eax
  000ea	e8 00 00 00 00	 call	 _memset
  000ef	83 c4 0c	 add	 esp, 12			; 0000000cH
  000f2	6a 02		 push	 2

; 262  : 		StringCbPrintf_e( szName, sizeof( szName ), "ImgFirst%d", i+1 );

  000f4	c7 45 c8 a4 81
	8c ac		 mov	 DWORD PTR ___encStr$513929[ebp], -1400077916 ; ac8c81a4H
  000fb	c7 45 cc 84 9e
	98 9e		 mov	 DWORD PTR ___encStr$513929[ebp+4], -1634165116 ; 9e989e84H
  00102	66 c7 45 d0 c8
	88		 mov	 WORD PTR ___encStr$513929[ebp+8], 35016 ; 000088c8H
  00108	8d 45 c8	 lea	 eax, DWORD PTR ___encStr$513929[ebp]
  0010b	88 5d d2	 mov	 BYTE PTR ___encStr$513929[ebp+10], bl
  0010e	59		 pop	 ecx
$LL1015@ParseExtra@3:
  0010f	81 30 ed ec eb
	ea		 xor	 DWORD PTR [eax], -353637139 ; eaebecedH
  00115	83 c0 04	 add	 eax, 4
  00118	49		 dec	 ecx
  00119	75 f4		 jne	 SHORT $LL1015@ParseExtra@3
  0011b	6a 08		 push	 8
  0011d	58		 pop	 eax
$LL1012@ParseExtra@3:
  0011e	8b c8		 mov	 ecx, eax
  00120	81 e1 03 00 00
	80		 and	 ecx, -2147483645	; 80000003H
  00126	79 05		 jns	 SHORT $LN1125@ParseExtra@3
  00128	49		 dec	 ecx
  00129	83 c9 fc	 or	 ecx, -4			; fffffffcH
  0012c	41		 inc	 ecx
$LN1125@ParseExtra@3:
  0012d	b2 ed		 mov	 dl, -19			; ffffffedH
  0012f	2a d1		 sub	 dl, cl
  00131	30 54 05 c8	 xor	 BYTE PTR ___encStr$513929[ebp+eax], dl
  00135	40		 inc	 eax
  00136	83 f8 0a	 cmp	 eax, 10			; 0000000aH
  00139	7c e3		 jl	 SHORT $LL1012@ParseExtra@3
  0013b	ff b5 60 fe ff
	ff		 push	 DWORD PTR tv7698[ebp]
  00141	8d 45 c8	 lea	 eax, DWORD PTR ___encStr$513929[ebp]
  00144	50		 push	 eax
  00145	8d 85 64 fe ff
	ff		 lea	 eax, DWORD PTR _szName$513772[ebp]
  0014b	56		 push	 esi
  0014c	50		 push	 eax
  0014d	e8 00 00 00 00	 call	 ?StringCbPrintfA@@YAJPADIPBDZZ ; StringCbPrintfA

; 263  : 		pInfo->m_szEventImgFirst  = xElement.GetStringAttribute( szName );

  00152	8b 8d 5c fe ff
	ff		 mov	 ecx, DWORD PTR _xElement$GSCopy$[ebp]
  00158	83 c4 10	 add	 esp, 16			; 00000010H
  0015b	8d 85 64 fe ff
	ff		 lea	 eax, DWORD PTR _szName$513772[ebp]
  00161	50		 push	 eax
  00162	ff 15 00 00 00
	00		 call	 DWORD PTR __imp_?GetStringAttribute@ioXMLElement@@QBEPBDPBD@Z
  00168	50		 push	 eax
  00169	8d 4f 24	 lea	 ecx, DWORD PTR [edi+36]
  0016c	ff 15 00 00 00
	00		 call	 DWORD PTR __imp_??4ioHashString@@QAEAAV0@PBD@Z

; 264  : 
; 265  : 		ZeroMemory( szName, sizeof( szName ) );

  00172	56		 push	 esi
  00173	8d 85 64 fe ff
	ff		 lea	 eax, DWORD PTR _szName$513772[ebp]
  00179	53		 push	 ebx
  0017a	50		 push	 eax
  0017b	e8 00 00 00 00	 call	 _memset
  00180	83 c4 0c	 add	 esp, 12			; 0000000cH
  00183	6a 02		 push	 2

; 266  : 		StringCbPrintf_e( szName, sizeof( szName ), "ImgSecond%d", i+1 );

  00185	c7 45 a8 a4 81
	8c b9		 mov	 DWORD PTR ___encStr$514081[ebp], -1181974108 ; b98c81a4H
  0018c	c7 45 ac 88 8f
	84 84		 mov	 DWORD PTR ___encStr$514081[ebp+4], -2071687288 ; 84848f88H
  00193	8d 45 a8	 lea	 eax, DWORD PTR ___encStr$514081[ebp]
  00196	c7 45 b0 89 c9
	8f 00		 mov	 DWORD PTR ___encStr$514081[ebp+8], 9423241 ; 008fc989H
  0019d	59		 pop	 ecx
$LL1023@ParseExtra@3:
  0019e	81 30 ed ec eb
	ea		 xor	 DWORD PTR [eax], -353637139 ; eaebecedH
  001a4	83 c0 04	 add	 eax, 4
  001a7	49		 dec	 ecx
  001a8	75 f4		 jne	 SHORT $LL1023@ParseExtra@3
  001aa	6a 08		 push	 8
  001ac	58		 pop	 eax
$LL1020@ParseExtra@3:
  001ad	8b c8		 mov	 ecx, eax
  001af	81 e1 03 00 00
	80		 and	 ecx, -2147483645	; 80000003H
  001b5	79 05		 jns	 SHORT $LN1126@ParseExtra@3
  001b7	49		 dec	 ecx
  001b8	83 c9 fc	 or	 ecx, -4			; fffffffcH
  001bb	41		 inc	 ecx
$LN1126@ParseExtra@3:
  001bc	b2 ed		 mov	 dl, -19			; ffffffedH
  001be	2a d1		 sub	 dl, cl
  001c0	30 54 05 a8	 xor	 BYTE PTR ___encStr$514081[ebp+eax], dl
  001c4	40		 inc	 eax
  001c5	83 f8 0b	 cmp	 eax, 11			; 0000000bH
  001c8	7c e3		 jl	 SHORT $LL1020@ParseExtra@3
  001ca	ff b5 60 fe ff
	ff		 push	 DWORD PTR tv7698[ebp]
  001d0	8d 45 a8	 lea	 eax, DWORD PTR ___encStr$514081[ebp]
  001d3	50		 push	 eax
  001d4	8d 85 64 fe ff
	ff		 lea	 eax, DWORD PTR _szName$513772[ebp]
  001da	56		 push	 esi
  001db	50		 push	 eax
  001dc	e8 00 00 00 00	 call	 ?StringCbPrintfA@@YAJPADIPBDZZ ; StringCbPrintfA

; 267  : 		pInfo->m_szEventImgSecond = xElement.GetStringAttribute( szName );

  001e1	8b 8d 5c fe ff
	ff		 mov	 ecx, DWORD PTR _xElement$GSCopy$[ebp]
  001e7	83 c4 10	 add	 esp, 16			; 00000010H
  001ea	8d 85 64 fe ff
	ff		 lea	 eax, DWORD PTR _szName$513772[ebp]
  001f0	50		 push	 eax
  001f1	ff 15 00 00 00
	00		 call	 DWORD PTR __imp_?GetStringAttribute@ioXMLElement@@QBEPBDPBD@Z
  001f7	50		 push	 eax
  001f8	8d 4f 34	 lea	 ecx, DWORD PTR [edi+52]
  001fb	ff 15 00 00 00
	00		 call	 DWORD PTR __imp_??4ioHashString@@QAEAAV0@PBD@Z

; 268  : 
; 269  : 		if( pInfo->m_bWebEvent )
; 270  : 		{
; 271  : 			ZeroMemory( szName, sizeof( szName ) );

  00201	56		 push	 esi
  00202	8d 85 64 fe ff
	ff		 lea	 eax, DWORD PTR _szName$513772[ebp]
  00208	53		 push	 ebx
  00209	50		 push	 eax
  0020a	38 1f		 cmp	 BYTE PTR [edi], bl
  0020c	0f 84 5f 02 00
	00		 je	 $LN695@ParseExtra@3
  00212	e8 00 00 00 00	 call	 _memset
  00217	83 c4 0c	 add	 esp, 12			; 0000000cH
  0021a	6a 02		 push	 2

; 272  : 			StringCbPrintf_e( szName, sizeof( szName ), "EventUrl%d", i+1 );

  0021c	c7 45 b8 a8 9a
	8e 84		 mov	 DWORD PTR ___encStr$514234[ebp], -2071029080 ; 848e9aa8H
  00223	c7 45 bc 99 b9
	99 86		 mov	 DWORD PTR ___encStr$514234[ebp+4], -2036745831 ; 8699b999H
  0022a	66 c7 45 c0 c8
	88		 mov	 WORD PTR ___encStr$514234[ebp+8], 35016 ; 000088c8H
  00230	8d 45 b8	 lea	 eax, DWORD PTR ___encStr$514234[ebp]
  00233	88 5d c2	 mov	 BYTE PTR ___encStr$514234[ebp+10], bl
  00236	59		 pop	 ecx
$LL1031@ParseExtra@3:
  00237	81 30 ed ec eb
	ea		 xor	 DWORD PTR [eax], -353637139 ; eaebecedH
  0023d	83 c0 04	 add	 eax, 4
  00240	49		 dec	 ecx
  00241	75 f4		 jne	 SHORT $LL1031@ParseExtra@3
  00243	6a 08		 push	 8
  00245	58		 pop	 eax
$LL1028@ParseExtra@3:
  00246	8b c8		 mov	 ecx, eax
  00248	81 e1 03 00 00
	80		 and	 ecx, -2147483645	; 80000003H
  0024e	79 05		 jns	 SHORT $LN1127@ParseExtra@3
  00250	49		 dec	 ecx
  00251	83 c9 fc	 or	 ecx, -4			; fffffffcH
  00254	41		 inc	 ecx
$LN1127@ParseExtra@3:
  00255	b2 ed		 mov	 dl, -19			; ffffffedH
  00257	2a d1		 sub	 dl, cl
  00259	30 54 05 b8	 xor	 BYTE PTR ___encStr$514234[ebp+eax], dl
  0025d	40		 inc	 eax
  0025e	83 f8 0a	 cmp	 eax, 10			; 0000000aH
  00261	7c e3		 jl	 SHORT $LL1028@ParseExtra@3
  00263	ff b5 60 fe ff
	ff		 push	 DWORD PTR tv7698[ebp]
  00269	8d 45 b8	 lea	 eax, DWORD PTR ___encStr$514234[ebp]
  0026c	50		 push	 eax
  0026d	8d 85 64 fe ff
	ff		 lea	 eax, DWORD PTR _szName$513772[ebp]
  00273	56		 push	 esi
  00274	50		 push	 eax
  00275	e8 00 00 00 00	 call	 ?StringCbPrintfA@@YAJPADIPBDZZ ; StringCbPrintfA

; 273  : 			pInfo->m_szEventURL   = xElement.GetStringAttribute( szName );

  0027a	8b 8d 5c fe ff
	ff		 mov	 ecx, DWORD PTR _xElement$GSCopy$[ebp]
  00280	83 c4 10	 add	 esp, 16			; 00000010H
  00283	8d 85 64 fe ff
	ff		 lea	 eax, DWORD PTR _szName$513772[ebp]
  00289	50		 push	 eax
  0028a	ff 15 00 00 00
	00		 call	 DWORD PTR __imp_?GetStringAttribute@ioXMLElement@@QBEPBDPBD@Z
  00290	50		 push	 eax
  00291	8d 4f 04	 lea	 ecx, DWORD PTR [edi+4]
  00294	ff 15 00 00 00
	00		 call	 DWORD PTR __imp_??4ioHashString@@QAEAAV0@PBD@Z

; 274  : 			ZeroMemory( szName, sizeof( szName ) );

  0029a	56		 push	 esi
  0029b	8d 85 64 fe ff
	ff		 lea	 eax, DWORD PTR _szName$513772[ebp]
  002a1	53		 push	 ebx
  002a2	50		 push	 eax
  002a3	e8 00 00 00 00	 call	 _memset
  002a8	83 c4 0c	 add	 esp, 12			; 0000000cH
  002ab	6a 02		 push	 2

; 275  : 			StringCbPrintf_e( szName, sizeof( szName ), "StartDate%d", i+1 );

  002ad	c7 45 98 be 98
	8a 98		 mov	 DWORD PTR ___encStr$514386[ebp], -1735747394 ; 988a98beH
  002b4	c7 45 9c 99 a8
	8a 9e		 mov	 DWORD PTR ___encStr$514386[ebp+4], -1635080039 ; 9e8aa899H
  002bb	8d 45 98	 lea	 eax, DWORD PTR ___encStr$514386[ebp]
  002be	c7 45 a0 88 c9
	8f 00		 mov	 DWORD PTR ___encStr$514386[ebp+8], 9423240 ; 008fc988H
  002c5	59		 pop	 ecx
$LL1039@ParseExtra@3:
  002c6	81 30 ed ec eb
	ea		 xor	 DWORD PTR [eax], -353637139 ; eaebecedH
  002cc	83 c0 04	 add	 eax, 4
  002cf	49		 dec	 ecx
  002d0	75 f4		 jne	 SHORT $LL1039@ParseExtra@3
  002d2	6a 08		 push	 8
  002d4	58		 pop	 eax
$LL1036@ParseExtra@3:
  002d5	8b c8		 mov	 ecx, eax
  002d7	81 e1 03 00 00
	80		 and	 ecx, -2147483645	; 80000003H
  002dd	79 05		 jns	 SHORT $LN1128@ParseExtra@3
  002df	49		 dec	 ecx
  002e0	83 c9 fc	 or	 ecx, -4			; fffffffcH
  002e3	41		 inc	 ecx
$LN1128@ParseExtra@3:
  002e4	b2 ed		 mov	 dl, -19			; ffffffedH
  002e6	2a d1		 sub	 dl, cl
  002e8	30 54 05 98	 xor	 BYTE PTR ___encStr$514386[ebp+eax], dl
  002ec	40		 inc	 eax
  002ed	83 f8 0b	 cmp	 eax, 11			; 0000000bH
  002f0	7c e3		 jl	 SHORT $LL1036@ParseExtra@3
  002f2	ff b5 60 fe ff
	ff		 push	 DWORD PTR tv7698[ebp]
  002f8	8d 45 98	 lea	 eax, DWORD PTR ___encStr$514386[ebp]
  002fb	50		 push	 eax
  002fc	8d 85 64 fe ff
	ff		 lea	 eax, DWORD PTR _szName$513772[ebp]
  00302	56		 push	 esi
  00303	50		 push	 eax
  00304	e8 00 00 00 00	 call	 ?StringCbPrintfA@@YAJPADIPBDZZ ; StringCbPrintfA

; 276  : 			pInfo->m_dwStartDate  = xElement.GetIntAttribute( szName);

  00309	8b 8d 5c fe ff
	ff		 mov	 ecx, DWORD PTR _xElement$GSCopy$[ebp]
  0030f	83 c4 10	 add	 esp, 16			; 00000010H
  00312	8d 85 64 fe ff
	ff		 lea	 eax, DWORD PTR _szName$513772[ebp]
  00318	50		 push	 eax
  00319	ff 15 00 00 00
	00		 call	 DWORD PTR __imp_?GetIntAttribute@ioXMLElement@@QBEHPBD@Z

; 277  : 			ZeroMemory( szName, sizeof( szName ) );

  0031f	56		 push	 esi
  00320	89 47 14	 mov	 DWORD PTR [edi+20], eax
  00323	8d 85 64 fe ff
	ff		 lea	 eax, DWORD PTR _szName$513772[ebp]
  00329	53		 push	 ebx
  0032a	50		 push	 eax
  0032b	e8 00 00 00 00	 call	 _memset
  00330	83 c4 0c	 add	 esp, 12			; 0000000cH
  00333	6a 02		 push	 2

; 278  : 			StringCbPrintf_e( szName, sizeof( szName ), "EndDate%d", i+1 );

  00335	c7 45 88 a8 82
	8f ae		 mov	 DWORD PTR ___encStr$514538[ebp], -1366326616 ; ae8f82a8H
  0033c	c7 45 8c 8c 98
	8e cf		 mov	 DWORD PTR ___encStr$514538[ebp+4], -812738420 ; cf8e988cH
  00343	8d 45 88	 lea	 eax, DWORD PTR ___encStr$514538[ebp]
  00346	66 c7 45 90 89
	00		 mov	 WORD PTR ___encStr$514538[ebp+8], 137 ; 00000089H
  0034c	59		 pop	 ecx
$LL1047@ParseExtra@3:
  0034d	81 30 ed ec eb
	ea		 xor	 DWORD PTR [eax], -353637139 ; eaebecedH
  00353	83 c0 04	 add	 eax, 4
  00356	49		 dec	 ecx
  00357	75 f4		 jne	 SHORT $LL1047@ParseExtra@3
  00359	ff b5 60 fe ff
	ff		 push	 DWORD PTR tv7698[ebp]
  0035f	80 75 90 ed	 xor	 BYTE PTR ___encStr$514538[ebp+8], -19 ; ffffffedH
  00363	8d 45 88	 lea	 eax, DWORD PTR ___encStr$514538[ebp]
  00366	50		 push	 eax
  00367	8d 85 64 fe ff
	ff		 lea	 eax, DWORD PTR _szName$513772[ebp]
  0036d	56		 push	 esi
  0036e	50		 push	 eax
  0036f	e8 00 00 00 00	 call	 ?StringCbPrintfA@@YAJPADIPBDZZ ; StringCbPrintfA

; 279  : 			pInfo->m_dwEndDate    = xElement.GetIntAttribute( szName );

  00374	8b 8d 5c fe ff
	ff		 mov	 ecx, DWORD PTR _xElement$GSCopy$[ebp]
  0037a	83 c4 10	 add	 esp, 16			; 00000010H
  0037d	8d 85 64 fe ff
	ff		 lea	 eax, DWORD PTR _szName$513772[ebp]
  00383	50		 push	 eax
  00384	ff 15 00 00 00
	00		 call	 DWORD PTR __imp_?GetIntAttribute@ioXMLElement@@QBEHPBD@Z

; 280  : 			ZeroMemory( szName, sizeof( szName ) );

  0038a	56		 push	 esi
  0038b	89 47 18	 mov	 DWORD PTR [edi+24], eax
  0038e	8d 85 64 fe ff
	ff		 lea	 eax, DWORD PTR _szName$513772[ebp]
  00394	53		 push	 ebx
  00395	50		 push	 eax
  00396	e8 00 00 00 00	 call	 _memset
  0039b	83 c4 0c	 add	 esp, 12			; 0000000cH
  0039e	6a 04		 push	 4

; 281  : 			StringCbPrintf_e( szName, sizeof( szName ), "ChannelingType%d", i+1 );

  003a0	c7 45 d8 ae 84
	8a 84		 mov	 DWORD PTR ___encStr$514690[ebp], -2071296850 ; 848a84aeH
  003a7	c7 45 dc 83 89
	87 83		 mov	 DWORD PTR ___encStr$514690[ebp+4], -2088269437 ; 83878983H
  003ae	c7 45 e0 83 8b
	bf 93		 mov	 DWORD PTR ___encStr$514690[ebp+8], -1816163453 ; 93bf8b83H
  003b5	c7 45 e4 9d 89
	ce 8e		 mov	 DWORD PTR ___encStr$514690[ebp+12], -1899066979 ; 8ece899dH
  003bc	8d 45 d8	 lea	 eax, DWORD PTR ___encStr$514690[ebp]
  003bf	88 5d e8	 mov	 BYTE PTR ___encStr$514690[ebp+16], bl
  003c2	59		 pop	 ecx
$LL1055@ParseExtra@3:
  003c3	81 30 ed ec eb
	ea		 xor	 DWORD PTR [eax], -353637139 ; eaebecedH
  003c9	83 c0 04	 add	 eax, 4
  003cc	49		 dec	 ecx
  003cd	75 f4		 jne	 SHORT $LL1055@ParseExtra@3
  003cf	ff b5 60 fe ff
	ff		 push	 DWORD PTR tv7698[ebp]
  003d5	8d 45 d8	 lea	 eax, DWORD PTR ___encStr$514690[ebp]
  003d8	50		 push	 eax
  003d9	8d 85 64 fe ff
	ff		 lea	 eax, DWORD PTR _szName$513772[ebp]
  003df	56		 push	 esi
  003e0	50		 push	 eax
  003e1	e8 00 00 00 00	 call	 ?StringCbPrintfA@@YAJPADIPBDZZ ; StringCbPrintfA

; 282  : 			pInfo->m_eChannelingType = (ChannelingType) xElement.GetIntAttribute( szName );

  003e6	8b 8d 5c fe ff
	ff		 mov	 ecx, DWORD PTR _xElement$GSCopy$[ebp]
  003ec	83 c4 10	 add	 esp, 16			; 00000010H
  003ef	8d 85 64 fe ff
	ff		 lea	 eax, DWORD PTR _szName$513772[ebp]
  003f5	50		 push	 eax
  003f6	ff 15 00 00 00
	00		 call	 DWORD PTR __imp_?GetIntAttribute@ioXMLElement@@QBEHPBD@Z

; 283  : 			ZeroMemory( szName, sizeof( szName ) );

  003fc	56		 push	 esi
  003fd	89 47 44	 mov	 DWORD PTR [edi+68], eax
  00400	8d 85 64 fe ff
	ff		 lea	 eax, DWORD PTR _szName$513772[ebp]
  00406	53		 push	 ebx
  00407	50		 push	 eax
  00408	e8 00 00 00 00	 call	 _memset
  0040d	83 c4 0c	 add	 esp, 12			; 0000000cH
  00410	6a 02		 push	 2

; 284  : 			StringCbPrintf_e( szName, sizeof( szName ), "EventType%d", i+1 );

  00412	c7 85 68 ff ff
	ff a8 9a 8e 84	 mov	 DWORD PTR ___encStr$514843[ebp], -2071029080 ; 848e9aa8H
  0041c	c7 85 6c ff ff
	ff 99 b8 92 9a	 mov	 DWORD PTR ___encStr$514843[ebp+4], -1701660519 ; 9a92b899H
  00426	8d 85 68 ff ff
	ff		 lea	 eax, DWORD PTR ___encStr$514843[ebp]
  0042c	c7 85 70 ff ff
	ff 88 c9 8f 00	 mov	 DWORD PTR ___encStr$514843[ebp+8], 9423240 ; 008fc988H
  00436	59		 pop	 ecx
$LL1063@ParseExtra@3:
  00437	81 30 ed ec eb
	ea		 xor	 DWORD PTR [eax], -353637139 ; eaebecedH
  0043d	83 c0 04	 add	 eax, 4
  00440	49		 dec	 ecx
  00441	75 f4		 jne	 SHORT $LL1063@ParseExtra@3
  00443	6a 08		 push	 8
  00445	58		 pop	 eax
$LL1060@ParseExtra@3:
  00446	8b c8		 mov	 ecx, eax
  00448	81 e1 03 00 00
	80		 and	 ecx, -2147483645	; 80000003H
  0044e	79 05		 jns	 SHORT $LN1129@ParseExtra@3
  00450	49		 dec	 ecx
  00451	83 c9 fc	 or	 ecx, -4			; fffffffcH
  00454	41		 inc	 ecx
$LN1129@ParseExtra@3:
  00455	b2 ed		 mov	 dl, -19			; ffffffedH
  00457	2a d1		 sub	 dl, cl
  00459	30 94 05 68 ff
	ff ff		 xor	 BYTE PTR ___encStr$514843[ebp+eax], dl
  00460	40		 inc	 eax
  00461	83 f8 0b	 cmp	 eax, 11			; 0000000bH
  00464	7c e0		 jl	 SHORT $LL1060@ParseExtra@3
  00466	8d 85 68 ff ff
	ff		 lea	 eax, DWORD PTR ___encStr$514843[ebp]

; 285  : 			pInfo->m_iEventType   = xElement.GetIntAttribute( szName);
; 286  : 		}
; 287  : 		else

  0046c	e9 cc 00 00 00	 jmp	 $LN1131@ParseExtra@3
$LN695@ParseExtra@3:

; 288  : 		{
; 289  : 			ZeroMemory( szName, sizeof( szName ) );

  00471	e8 00 00 00 00	 call	 _memset
  00476	83 c4 0c	 add	 esp, 12			; 0000000cH
  00479	6a 03		 push	 3

; 290  : 			StringCbPrintf_e( szName, sizeof( szName ), "EventWndID%d", i+1 );

  0047b	c7 45 dc a8 9a
	8e 84		 mov	 DWORD PTR ___encStr$514996[ebp], -2071029080 ; 848e9aa8H
  00482	c7 45 e0 99 bb
	85 8e		 mov	 DWORD PTR ___encStr$514996[ebp+4], -1903838311 ; 8e85bb99H
  00489	c7 45 e4 a4 a8
	ce 8e		 mov	 DWORD PTR ___encStr$514996[ebp+8], -1899059036 ; 8ecea8a4H
  00490	8d 45 dc	 lea	 eax, DWORD PTR ___encStr$514996[ebp]
  00493	88 5d e8	 mov	 BYTE PTR ___encStr$514996[ebp+12], bl
  00496	59		 pop	 ecx
$LL1071@ParseExtra@3:
  00497	81 30 ed ec eb
	ea		 xor	 DWORD PTR [eax], -353637139 ; eaebecedH
  0049d	83 c0 04	 add	 eax, 4
  004a0	49		 dec	 ecx
  004a1	75 f4		 jne	 SHORT $LL1071@ParseExtra@3
  004a3	ff b5 60 fe ff
	ff		 push	 DWORD PTR tv7698[ebp]
  004a9	8d 45 dc	 lea	 eax, DWORD PTR ___encStr$514996[ebp]
  004ac	50		 push	 eax
  004ad	8d 85 64 fe ff
	ff		 lea	 eax, DWORD PTR _szName$513772[ebp]
  004b3	56		 push	 esi
  004b4	50		 push	 eax
  004b5	e8 00 00 00 00	 call	 ?StringCbPrintfA@@YAJPADIPBDZZ ; StringCbPrintfA

; 291  : 			pInfo->m_dwEventWndID = xElement.GetIntAttribute( szName);

  004ba	8b 8d 5c fe ff
	ff		 mov	 ecx, DWORD PTR _xElement$GSCopy$[ebp]
  004c0	83 c4 10	 add	 esp, 16			; 00000010H
  004c3	8d 85 64 fe ff
	ff		 lea	 eax, DWORD PTR _szName$513772[ebp]
  004c9	50		 push	 eax
  004ca	ff 15 00 00 00
	00		 call	 DWORD PTR __imp_?GetIntAttribute@ioXMLElement@@QBEHPBD@Z

; 292  : 			ZeroMemory( szName, sizeof( szName ) );

  004d0	56		 push	 esi
  004d1	89 47 1c	 mov	 DWORD PTR [edi+28], eax
  004d4	8d 85 64 fe ff
	ff		 lea	 eax, DWORD PTR _szName$513772[ebp]
  004da	53		 push	 ebx
  004db	50		 push	 eax
  004dc	e8 00 00 00 00	 call	 _memset
  004e1	83 c4 0c	 add	 esp, 12			; 0000000cH
  004e4	6a 02		 push	 2

; 293  : 			StringCbPrintf_e( szName, sizeof( szName ), "EventType%d", i+1 );

  004e6	c7 85 78 ff ff
	ff a8 9a 8e 84	 mov	 DWORD PTR ___encStr$515148[ebp], -2071029080 ; 848e9aa8H
  004f0	c7 85 7c ff ff
	ff 99 b8 92 9a	 mov	 DWORD PTR ___encStr$515148[ebp+4], -1701660519 ; 9a92b899H
  004fa	8d 85 78 ff ff
	ff		 lea	 eax, DWORD PTR ___encStr$515148[ebp]
  00500	c7 45 80 88 c9
	8f 00		 mov	 DWORD PTR ___encStr$515148[ebp+8], 9423240 ; 008fc988H
  00507	59		 pop	 ecx
$LL1079@ParseExtra@3:
  00508	81 30 ed ec eb
	ea		 xor	 DWORD PTR [eax], -353637139 ; eaebecedH
  0050e	83 c0 04	 add	 eax, 4
  00511	49		 dec	 ecx
  00512	75 f4		 jne	 SHORT $LL1079@ParseExtra@3
  00514	6a 08		 push	 8
  00516	58		 pop	 eax
$LL1076@ParseExtra@3:
  00517	8b c8		 mov	 ecx, eax
  00519	81 e1 03 00 00
	80		 and	 ecx, -2147483645	; 80000003H
  0051f	79 05		 jns	 SHORT $LN1130@ParseExtra@3
  00521	49		 dec	 ecx
  00522	83 c9 fc	 or	 ecx, -4			; fffffffcH
  00525	41		 inc	 ecx
$LN1130@ParseExtra@3:
  00526	b2 ed		 mov	 dl, -19			; ffffffedH
  00528	2a d1		 sub	 dl, cl
  0052a	30 94 05 78 ff
	ff ff		 xor	 BYTE PTR ___encStr$515148[ebp+eax], dl
  00531	40		 inc	 eax
  00532	83 f8 0b	 cmp	 eax, 11			; 0000000bH
  00535	7c e0		 jl	 SHORT $LL1076@ParseExtra@3
  00537	8d 85 78 ff ff
	ff		 lea	 eax, DWORD PTR ___encStr$515148[ebp]
$LN1131@ParseExtra@3:
  0053d	ff b5 60 fe ff
	ff		 push	 DWORD PTR tv7698[ebp]
  00543	50		 push	 eax
  00544	8d 85 64 fe ff
	ff		 lea	 eax, DWORD PTR _szName$513772[ebp]
  0054a	56		 push	 esi
  0054b	50		 push	 eax
  0054c	e8 00 00 00 00	 call	 ?StringCbPrintfA@@YAJPADIPBDZZ ; StringCbPrintfA

; 294  : 			pInfo->m_iEventType   = xElement.GetIntAttribute( szName);

  00551	8b 8d 5c fe ff
	ff		 mov	 ecx, DWORD PTR _xElement$GSCopy$[ebp]
  00557	83 c4 10	 add	 esp, 16			; 00000010H
  0055a	8d 85 64 fe ff
	ff		 lea	 eax, DWORD PTR _szName$513772[ebp]
  00560	50		 push	 eax
  00561	ff 15 00 00 00
	00		 call	 DWORD PTR __imp_?GetIntAttribute@ioXMLElement@@QBEHPBD@Z

; 295  : 		}	
; 296  : 
; 297  : 		m_vEventInfoVector.push_back( pInfo );

  00567	8b 8d 50 fe ff
	ff		 mov	 ecx, DWORD PTR _this$GSCopy$[ebp]
  0056d	89 47 20	 mov	 DWORD PTR [edi+32], eax
  00570	8d 85 58 fe ff
	ff		 lea	 eax, DWORD PTR _pInfo$513766[ebp]
  00576	50		 push	 eax
  00577	81 c1 90 01 00
	00		 add	 ecx, 400		; 00000190H
  0057d	e8 00 00 00 00	 call	 ?push_back@?$vector@PAUtagEventInfo@@V?$allocator@PAUtagEventInfo@@@std@@@std@@QAEXABQAUtagEventInfo@@@Z ; std::vector<tagEventInfo *,std::allocator<tagEventInfo *> >::push_back
$LN995@ParseExtra@3:

; 250  : 	enum { MAX_XML_VALUE = 30, };
; 251  : 	for (int i = 0; i < MAX_XML_VALUE ; i++)

  00582	ff 85 60 fe ff
	ff		 inc	 DWORD PTR tv7698[ebp]
  00588	ff 8d 54 fe ff
	ff		 dec	 DWORD PTR tv2840[ebp]
  0058e	0f 85 a5 fa ff
	ff		 jne	 $LL996@ParseExtra@3

; 298  : 	}
; 299  : }

  00594	e8 00 00 00 00	 call	 __EH_epilog3_GS
  00599	c2 04 00	 ret	 4
_TEXT	ENDS
;	COMDAT text$x
text$x	SEGMENT
__unwindfunclet$?ParseExtraInfo@EventCatalogWnd@@UAEXAAVioXMLElement@@@Z$0:
  00000	ff b5 58 fe ff
	ff		 push	 DWORD PTR $T526721[ebp]
  00006	e8 00 00 00 00	 call	 ??3@YAXPAX@Z		; operator delete
  0000b	59		 pop	 ecx
  0000c	c3		 ret	 0
__ehhandler$?ParseExtraInfo@EventCatalogWnd@@UAEXAAVioXMLElement@@@Z:
  0000d	8b 54 24 08	 mov	 edx, DWORD PTR [esp+8]
  00011	8d 42 0c	 lea	 eax, DWORD PTR [edx+12]
  00014	8b 8a 4c fe ff
	ff		 mov	 ecx, DWORD PTR [edx-436]
  0001a	33 c8		 xor	 ecx, eax
  0001c	e8 00 00 00 00	 call	 @__security_check_cookie@4
  00021	8b 4a fc	 mov	 ecx, DWORD PTR [edx-4]
  00024	33 c8		 xor	 ecx, eax
  00026	e8 00 00 00 00	 call	 @__security_check_cookie@4
  0002b	b8 00 00 00 00	 mov	 eax, OFFSET __ehfuncinfo$?ParseExtraInfo@EventCatalogWnd@@UAEXAAVioXMLElement@@@Z
  00030	e9 00 00 00 00	 jmp	 ___CxxFrameHandler3
text$x	ENDS
?ParseExtraInfo@EventCatalogWnd@@UAEXAAVioXMLElement@@@Z ENDP ; EventCatalogWnd::ParseExtraInfo
PUBLIC	??_R0?AVOneDayGiftEventUserNode@@@8		; OneDayGiftEventUserNode `RTTI Type Descriptor'
PUBLIC	__$ArrayPad$
PUBLIC	?SendEventGiftRequest@EventCatalogWnd@@IAEXXZ	; EventCatalogWnd::SendEventGiftRequest
EXTRN	?GetSameClassEventTypeVec@EventUserManager@@QAEXW4EventType@@AAV?$vector@HV?$allocator@H@std@@@std@@@Z:PROC ; EventUserManager::GetSameClassEventTypeVec
;	COMDAT ??_R0?AVOneDayGiftEventUserNode@@@8
; File c:\program files (x86)\microsoft visual studio 10.0\vc\include\vector
_DATA	SEGMENT
??_R0?AVOneDayGiftEventUserNode@@@8 DD FLAT:??_7type_info@@6B@ ; OneDayGiftEventUserNode `RTTI Type Descriptor'
	DD	00H
	DB	'.?AVOneDayGiftEventUserNode@@', 00H
_DATA	ENDS
;	COMDAT xdata$x
xdata$x	SEGMENT
__unwindtable$?SendEventGiftRequest@EventCatalogWnd@@IAEXXZ DD 0ffffffffH
	DD	FLAT:__unwindfunclet$?SendEventGiftRequest@EventCatalogWnd@@IAEXXZ$0
	DD	00H
	DD	FLAT:__unwindfunclet$?SendEventGiftRequest@EventCatalogWnd@@IAEXXZ$1
__ehfuncinfo$?SendEventGiftRequest@EventCatalogWnd@@IAEXXZ DD 019930522H
	DD	02H
	DD	FLAT:__unwindtable$?SendEventGiftRequest@EventCatalogWnd@@IAEXXZ
	DD	2 DUP(00H)
	DD	2 DUP(00H)
	DD	00H
	DD	01H
; Function compile flags: /Ogsp
; File d:\lost saga for developer\youtube\tutorial\source\src\lsclient\gui\eventcatalogwnd.cpp
xdata$x	ENDS
;	COMDAT ?SendEventGiftRequest@EventCatalogWnd@@IAEXXZ
_TEXT	SEGMENT
_vEventTypeVec$ = -32828				; size = 16
_i$515367 = -32812					; size = 4
_kPacket$515378 = -32808				; size = 32792
__$ArrayPad$ = -16					; size = 4
__$EHRec$ = -12						; size = 12
?SendEventGiftRequest@EventCatalogWnd@@IAEXXZ PROC	; EventCatalogWnd::SendEventGiftRequest, COMDAT
; _this$ = ecx

; 402  : {

  00000	55		 push	 ebp
  00001	8b ec		 mov	 ebp, esp
  00003	6a ff		 push	 -1
  00005	68 00 00 00 00	 push	 __ehhandler$?SendEventGiftRequest@EventCatalogWnd@@IAEXXZ
  0000a	64 a1 00 00 00
	00		 mov	 eax, DWORD PTR fs:0
  00010	50		 push	 eax
  00011	b8 30 80 00 00	 mov	 eax, 32816		; 00008030H
  00016	e8 00 00 00 00	 call	 __chkstk
  0001b	a1 00 00 00 00	 mov	 eax, DWORD PTR ___security_cookie
  00020	33 c5		 xor	 eax, ebp
  00022	89 45 f0	 mov	 DWORD PTR __$ArrayPad$[ebp], eax
  00025	53		 push	 ebx
  00026	56		 push	 esi
  00027	57		 push	 edi
  00028	50		 push	 eax
  00029	8d 45 f4	 lea	 eax, DWORD PTR __$EHRec$[ebp]
  0002c	64 a3 00 00 00
	00		 mov	 DWORD PTR fs:0, eax

; 403  : 	IntVec vEventTypeVec;

  00032	33 db		 xor	 ebx, ebx
  00034	89 9d c4 7f ff
	ff		 mov	 DWORD PTR _vEventTypeVec$[ebp], ebx
  0003a	89 9d c8 7f ff
	ff		 mov	 DWORD PTR _vEventTypeVec$[ebp+4], ebx
  00040	89 9d cc 7f ff
	ff		 mov	 DWORD PTR _vEventTypeVec$[ebp+8], ebx

; 404  : 	vEventTypeVec.reserve(10);

  00046	6a 0a		 push	 10			; 0000000aH
  00048	8d 8d c4 7f ff
	ff		 lea	 ecx, DWORD PTR _vEventTypeVec$[ebp]
  0004e	89 5d fc	 mov	 DWORD PTR __$EHRec$[ebp+8], ebx
  00051	e8 00 00 00 00	 call	 ?reserve@?$vector@HV?$allocator@H@std@@@std@@QAEXI@Z ; std::vector<int,std::allocator<int> >::reserve

; 405  : 	g_MyInfo.GetEventUserMgr().GetSameClassEventTypeVec( EVT_ONE_DAY_GIFT, vEventTypeVec );

  00056	8d 85 c4 7f ff
	ff		 lea	 eax, DWORD PTR _vEventTypeVec$[ebp]
  0005c	50		 push	 eax
  0005d	6a 14		 push	 20			; 00000014H
  0005f	e8 00 00 00 00	 call	 ?GetSingleton@ioMyInfo@@SAAAV1@XZ ; ioMyInfo::GetSingleton
  00064	8b c8		 mov	 ecx, eax
  00066	e8 00 00 00 00	 call	 ?GetEventUserMgr@ioMyInfo@@QAEAAVEventUserManager@@XZ ; ioMyInfo::GetEventUserMgr
  0006b	8b c8		 mov	 ecx, eax
  0006d	e8 00 00 00 00	 call	 ?GetSameClassEventTypeVec@EventUserManager@@QAEXW4EventType@@AAV?$vector@HV?$allocator@H@std@@@std@@@Z ; EventUserManager::GetSameClassEventTypeVec

; 406  : 	int iSize = vEventTypeVec.size();

  00072	8b b5 c8 7f ff
	ff		 mov	 esi, DWORD PTR _vEventTypeVec$[ebp+4]
  00078	2b b5 c4 7f ff
	ff		 sub	 esi, DWORD PTR _vEventTypeVec$[ebp]

; 407  : 	for (int i = 0; i < iSize ; i++)

  0007e	89 9d d4 7f ff
	ff		 mov	 DWORD PTR _i$515367[ebp], ebx
  00084	c1 fe 02	 sar	 esi, 2
  00087	3b f3		 cmp	 esi, ebx
  00089	0f 8e 9f 00 00
	00		 jle	 $LN3@SendEventG
$LN5@SendEventG:
  0008f	8b 85 c4 7f ff
	ff		 mov	 eax, DWORD PTR _vEventTypeVec$[ebp]
  00095	8b 8d d4 7f ff
	ff		 mov	 ecx, DWORD PTR _i$515367[ebp]

; 408  : 	{
; 409  : 		OneDayGiftEventUserNode *pEventNode = dynamic_cast<OneDayGiftEventUserNode*>( g_MyInfo.GetEventUserMgr().GetEventUserNode( (EventType)vEventTypeVec[i] ) );

  0009b	53		 push	 ebx
  0009c	68 00 00 00 00	 push	 OFFSET ??_R0?AVOneDayGiftEventUserNode@@@8
  000a1	68 00 00 00 00	 push	 OFFSET ??_R0?AVEventUserNode@@@8
  000a6	8d 04 88	 lea	 eax, DWORD PTR [eax+ecx*4]
  000a9	53		 push	 ebx
  000aa	ff 30		 push	 DWORD PTR [eax]
  000ac	e8 00 00 00 00	 call	 ?GetSingleton@ioMyInfo@@SAAAV1@XZ ; ioMyInfo::GetSingleton
  000b1	8b c8		 mov	 ecx, eax
  000b3	e8 00 00 00 00	 call	 ?GetEventUserMgr@ioMyInfo@@QAEAAVEventUserManager@@XZ ; ioMyInfo::GetEventUserMgr
  000b8	8b c8		 mov	 ecx, eax
  000ba	e8 00 00 00 00	 call	 ?GetEventUserNode@EventUserManager@@QAEPAVEventUserNode@@W4EventType@@@Z ; EventUserManager::GetEventUserNode
  000bf	50		 push	 eax
  000c0	e8 00 00 00 00	 call	 ___RTDynamicCast
  000c5	8b f8		 mov	 edi, eax
  000c7	83 c4 14	 add	 esp, 20			; 00000014H

; 410  : 		if( !pEventNode )

  000ca	3b fb		 cmp	 edi, ebx
  000cc	74 60		 je	 SHORT $LN3@SendEventG

; 411  : 			return;
; 412  : 
; 413  : 		if( pEventNode->GetValue( VA_OG_GET_GIFT ) == 1 ) // 선물을 받았다면

  000ce	53		 push	 ebx
  000cf	8b cf		 mov	 ecx, edi
  000d1	e8 00 00 00 00	 call	 ?GetValue@EventUserNode@@QAEHH@Z ; EventUserNode::GetValue
  000d6	83 f8 01	 cmp	 eax, 1
  000d9	74 53		 je	 SHORT $LN3@SendEventG

; 414  : 			return;
; 415  : 
; 416  : 		SP2Packet kPacket( CTPK_EVENT_DATA_UPDATE );

  000db	68 72 01 00 00	 push	 370			; 00000172H
  000e0	8d 8d d8 7f ff
	ff		 lea	 ecx, DWORD PTR _kPacket$515378[ebp]
  000e6	e8 00 00 00 00	 call	 ??0SP2Packet@@QAE@K@Z	; SP2Packet::SP2Packet

; 417  : 		kPacket << (int) pEventNode->GetType();

  000eb	8b 07		 mov	 eax, DWORD PTR [edi]
  000ed	8b cf		 mov	 ecx, edi
  000ef	c6 45 fc 01	 mov	 BYTE PTR __$EHRec$[ebp+8], 1
  000f3	ff 10		 call	 DWORD PTR [eax]
  000f5	50		 push	 eax
  000f6	8d 8d d8 7f ff
	ff		 lea	 ecx, DWORD PTR _kPacket$515378[ebp]
  000fc	e8 00 00 00 00	 call	 ??6SP2Packet@@QAEAAV0@H@Z ; SP2Packet::operator<<

; 418  : 		TCPNetwork::SendToServer( kPacket );

  00101	8d 85 d8 7f ff
	ff		 lea	 eax, DWORD PTR _kPacket$515378[ebp]
  00107	50		 push	 eax
  00108	e8 00 00 00 00	 call	 ?SendToServer@TCPNetwork@@YAXAAVSP2Packet@@@Z ; TCPNetwork::SendToServer
  0010d	59		 pop	 ecx

; 419  : 	}

  0010e	8d 8d d8 7f ff
	ff		 lea	 ecx, DWORD PTR _kPacket$515378[ebp]
  00114	88 5d fc	 mov	 BYTE PTR __$EHRec$[ebp+8], bl
  00117	e8 00 00 00 00	 call	 ??1SP2Packet@@UAE@XZ	; SP2Packet::~SP2Packet
  0011c	ff 85 d4 7f ff
	ff		 inc	 DWORD PTR _i$515367[ebp]
  00122	39 b5 d4 7f ff
	ff		 cmp	 DWORD PTR _i$515367[ebp], esi
  00128	0f 8c 61 ff ff
	ff		 jl	 $LN5@SendEventG
$LN3@SendEventG:

; 420  : }

  0012e	83 4d fc ff	 or	 DWORD PTR __$EHRec$[ebp+8], -1
  00132	8d 8d c4 7f ff
	ff		 lea	 ecx, DWORD PTR _vEventTypeVec$[ebp]
  00138	e8 00 00 00 00	 call	 ?_Tidy@?$vector@HV?$allocator@H@std@@@std@@IAEXXZ ; std::vector<int,std::allocator<int> >::_Tidy
  0013d	8b 4d f4	 mov	 ecx, DWORD PTR __$EHRec$[ebp]
  00140	64 89 0d 00 00
	00 00		 mov	 DWORD PTR fs:0, ecx
  00147	59		 pop	 ecx
  00148	5f		 pop	 edi
  00149	5e		 pop	 esi
  0014a	5b		 pop	 ebx
  0014b	8b 4d f0	 mov	 ecx, DWORD PTR __$ArrayPad$[ebp]
  0014e	33 cd		 xor	 ecx, ebp
  00150	e8 00 00 00 00	 call	 @__security_check_cookie@4
  00155	c9		 leave
  00156	c3		 ret	 0
_TEXT	ENDS
;	COMDAT text$x
text$x	SEGMENT
__unwindfunclet$?SendEventGiftRequest@EventCatalogWnd@@IAEXXZ$0:
  00000	8d 8d c4 7f ff
	ff		 lea	 ecx, DWORD PTR _vEventTypeVec$[ebp]
  00006	e9 00 00 00 00	 jmp	 ??1?$vector@HV?$allocator@H@std@@@std@@QAE@XZ ; std::vector<int,std::allocator<int> >::~vector<int,std::allocator<int> >
__unwindfunclet$?SendEventGiftRequest@EventCatalogWnd@@IAEXXZ$1:
  0000b	8d 8d d8 7f ff
	ff		 lea	 ecx, DWORD PTR _kPacket$515378[ebp]
  00011	e9 00 00 00 00	 jmp	 ??1SP2Packet@@UAE@XZ	; SP2Packet::~SP2Packet
__ehhandler$?SendEventGiftRequest@EventCatalogWnd@@IAEXXZ:
  00016	8b 54 24 08	 mov	 edx, DWORD PTR [esp+8]
  0001a	8d 42 0c	 lea	 eax, DWORD PTR [edx+12]
  0001d	8b 8a c0 7f ff
	ff		 mov	 ecx, DWORD PTR [edx-32832]
  00023	33 c8		 xor	 ecx, eax
  00025	e8 00 00 00 00	 call	 @__security_check_cookie@4
  0002a	8b 4a fc	 mov	 ecx, DWORD PTR [edx-4]
  0002d	33 c8		 xor	 ecx, eax
  0002f	e8 00 00 00 00	 call	 @__security_check_cookie@4
  00034	b8 00 00 00 00	 mov	 eax, OFFSET __ehfuncinfo$?SendEventGiftRequest@EventCatalogWnd@@IAEXXZ
  00039	e9 00 00 00 00	 jmp	 ___CxxFrameHandler3
text$x	ENDS
?SendEventGiftRequest@EventCatalogWnd@@IAEXXZ ENDP	; EventCatalogWnd::SendEventGiftRequest
PUBLIC	??_7OneDayGoldItemEventWnd@@6B@			; OneDayGoldItemEventWnd::`vftable'
PUBLIC	??0OneDayGoldItemEventWnd@@QAE@XZ		; OneDayGoldItemEventWnd::OneDayGoldItemEventWnd
PUBLIC	??_R4OneDayGoldItemEventWnd@@6B@		; OneDayGoldItemEventWnd::`RTTI Complete Object Locator'
PUBLIC	??_R0?AVOneDayGoldItemEventWnd@@@8		; OneDayGoldItemEventWnd `RTTI Type Descriptor'
PUBLIC	??_R3OneDayGoldItemEventWnd@@8			; OneDayGoldItemEventWnd::`RTTI Class Hierarchy Descriptor'
PUBLIC	??_R2OneDayGoldItemEventWnd@@8			; OneDayGoldItemEventWnd::`RTTI Base Class Array'
PUBLIC	??_R1A@?0A@EA@OneDayGoldItemEventWnd@@8		; OneDayGoldItemEventWnd::`RTTI Base Class Descriptor at (0,-1,0,64)'
PUBLIC	?iwm_command@OneDayGoldItemEventWnd@@UAEXPAVioWnd@@HK@Z ; OneDayGoldItemEventWnd::iwm_command
EXTRN	??_EOneDayGoldItemEventWnd@@UAEPAXI@Z:PROC	; OneDayGoldItemEventWnd::`vector deleting destructor'
;	COMDAT ??_R1A@?0A@EA@OneDayGoldItemEventWnd@@8
; File c:\program files (x86)\microsoft visual studio 10.0\vc\include\xmemory
rdata$r	SEGMENT
??_R1A@?0A@EA@OneDayGoldItemEventWnd@@8 DD FLAT:??_R0?AVOneDayGoldItemEventWnd@@@8 ; OneDayGoldItemEventWnd::`RTTI Base Class Descriptor at (0,-1,0,64)'
	DD	01H
	DD	00H
	DD	0ffffffffH
	DD	00H
	DD	040H
	DD	FLAT:??_R3OneDayGoldItemEventWnd@@8
rdata$r	ENDS
;	COMDAT ??_R2OneDayGoldItemEventWnd@@8
rdata$r	SEGMENT
??_R2OneDayGoldItemEventWnd@@8 DD FLAT:??_R1A@?0A@EA@OneDayGoldItemEventWnd@@8 ; OneDayGoldItemEventWnd::`RTTI Base Class Array'
	DD	FLAT:??_R1A@?0A@EA@ioWnd@@8
rdata$r	ENDS
;	COMDAT ??_R3OneDayGoldItemEventWnd@@8
rdata$r	SEGMENT
??_R3OneDayGoldItemEventWnd@@8 DD 00H			; OneDayGoldItemEventWnd::`RTTI Class Hierarchy Descriptor'
	DD	00H
	DD	02H
	DD	FLAT:??_R2OneDayGoldItemEventWnd@@8
rdata$r	ENDS
;	COMDAT ??_R0?AVOneDayGoldItemEventWnd@@@8
_DATA	SEGMENT
??_R0?AVOneDayGoldItemEventWnd@@@8 DD FLAT:??_7type_info@@6B@ ; OneDayGoldItemEventWnd `RTTI Type Descriptor'
	DD	00H
	DB	'.?AVOneDayGoldItemEventWnd@@', 00H
_DATA	ENDS
;	COMDAT ??_R4OneDayGoldItemEventWnd@@6B@
rdata$r	SEGMENT
??_R4OneDayGoldItemEventWnd@@6B@ DD 00H			; OneDayGoldItemEventWnd::`RTTI Complete Object Locator'
	DD	00H
	DD	00H
	DD	FLAT:??_R0?AVOneDayGoldItemEventWnd@@@8
	DD	FLAT:??_R3OneDayGoldItemEventWnd@@8
rdata$r	ENDS
;	COMDAT ??_7OneDayGoldItemEventWnd@@6B@
CONST	SEGMENT
??_7OneDayGoldItemEventWnd@@6B@ DD FLAT:??_R4OneDayGoldItemEventWnd@@6B@ ; OneDayGoldItemEventWnd::`vftable'
	DD	FLAT:?AddRenderFrame@ioWnd@@UAEXABVioHashString@@PAVioUIRenderFrame@@@Z
	DD	FLAT:?AddRenderImage@OneDayGoldItemEventWnd@@MAEXABVioHashString@@PAVioUIRenderImage@@@Z
	DD	FLAT:?AddTooltipHelp@ioWnd@@UAEXABVioHashString@@00@Z
	DD	FLAT:?ParseExtraInfo@OneDayGoldItemEventWnd@@MAEXAAVioXMLElement@@@Z
	DD	FLAT:?AddNamedRenderImage@ioWnd@@UAEXABVioHashString@@PAVioUIRenderImage@@@Z
	DD	FLAT:?RemoveNamedRenderImage@ioWnd@@UAEXABVioHashString@@@Z
	DD	FLAT:?GetNamedRenderImage@ioWnd@@UBEPAVioUIRenderImage@@ABVioHashString@@@Z
	DD	FLAT:?SetWindowAlpha@ioWnd@@UAEXH@Z
	DD	FLAT:?SetActive@ioWnd@@UAEXXZ
	DD	FLAT:?SetInActive@ioWnd@@UAEXXZ
	DD	FLAT:?ClearElementImageList@ioWnd@@UAEXXZ
	DD	FLAT:?SetSize@ioWnd@@UAEXHH@Z
	DD	FLAT:?SetPositionToDefault@ioWnd@@UAEXHH_N0@Z
	DD	FLAT:?IsNeedProcess@ioWnd@@UBE_NXZ
	DD	FLAT:?IsCanMouseReaction@ioWnd@@UBE_NXZ
	DD	FLAT:?AddChild@ioWnd@@UAEXPAV1@@Z
	DD	FLAT:?DeleteChild@ioWnd@@UAEXK@Z
	DD	FLAT:?DeleteAllChild@ioWnd@@UAEXXZ
	DD	FLAT:?OnRenderShowAndHide@ioWnd@@MAE_NXZ
	DD	FLAT:?OnRenderShowAndHideByDefault@ioWnd@@MAE_NK@Z
	DD	FLAT:?OnRenderShowAndHideByTop@ioWnd@@MAE_NK@Z
	DD	FLAT:?OnRenderShowAndHideByDown@ioWnd@@MAE_NK@Z
	DD	FLAT:?OnRender@OneDayGoldItemEventWnd@@MAEXXZ
	DD	FLAT:?OnRenderAfterChild@ioWnd@@MAEXXZ
	DD	FLAT:?OnProcess@OneDayGoldItemEventWnd@@MAEXM@Z
	DD	FLAT:?OnMouseProcess@ioWnd@@MAEXABVioMouse@@@Z
	DD	FLAT:?CheckFrameReSize@ioWnd@@MAEXHHHH@Z
	DD	FLAT:?RenderImageList@ioWnd@@MAEXHHW4UIRenderType@@@Z
	DD	FLAT:?iwm_create@ioWnd@@UAEXXZ
	DD	FLAT:?iwm_destroy@ioWnd@@UAEXXZ
	DD	FLAT:?iwm_lbuttondown@ioWnd@@UAEXABVioMouse@@@Z
	DD	FLAT:?iwm_lbuttonup@ioWnd@@UAEXABVioMouse@@@Z
	DD	FLAT:?iwm_lbuttonDBLCLK@ioWnd@@UAEXABVioMouse@@@Z
	DD	FLAT:?iwm_rbuttondown@ioWnd@@UAEXABVioMouse@@@Z
	DD	FLAT:?iwm_rbuttonup@ioWnd@@UAEXABVioMouse@@@Z
	DD	FLAT:?iwm_command@OneDayGoldItemEventWnd@@UAEXPAVioWnd@@HK@Z
	DD	FLAT:?iwm_mouseover@ioWnd@@UAEXABVioMouse@@@Z
	DD	FLAT:?iwm_mousemove@ioWnd@@UAEXABVioMouse@@@Z
	DD	FLAT:?iwm_mouseleave@ioWnd@@UAEXABVioMouse@@@Z
	DD	FLAT:?iwm_vscroll@ioWnd@@UAEXKH@Z
	DD	FLAT:?iwm_wheel@ioWnd@@UAEXH@Z
	DD	FLAT:?iwm_show@OneDayGoldItemEventWnd@@UAEXXZ
	DD	FLAT:?iwm_hide@OneDayGoldItemEventWnd@@UAEXXZ
	DD	FLAT:?iwm_esc@OneDayGoldItemEventWnd@@UAE_NXZ
	DD	FLAT:?iwm_spacebar@OneDayGoldItemEventWnd@@UAE_NXZ
	DD	FLAT:?iwm_gototop@ioWnd@@UAEXXZ
	DD	FLAT:?iwm_dragenter@ioWnd@@UAE?AW4IWDropEffect@@PAVioDragItem@@ABVioMouse@@@Z
	DD	FLAT:?iwm_dragover@ioWnd@@UAE?AW4IWDropEffect@@PAVioDragItem@@ABVioMouse@@@Z
	DD	FLAT:?iwm_dragleave@ioWnd@@UAEXXZ
	DD	FLAT:?iwm_dropitem@ioWnd@@UAE_NPAVioDragItem@@ABVioMouse@@PAV1@@Z
	DD	FLAT:?iwm_dropdone@ioWnd@@UAEXPAVioDragItem@@PAV1@_N@Z
	DD	FLAT:?IsEXType@ioWnd@@UBE_NXZ
	DD	FLAT:?GetWndType@ioWnd@@UBEKXZ
	DD	FLAT:?RenderWnd@ioWnd@@UAEXXZ
	DD	FLAT:?SetIDEX@ioWnd@@UAEXAAK_N@Z
	DD	FLAT:?ParseXML@ioWnd@@UAEXAAVioXMLElement@@@Z
	DD	FLAT:?GetHeaderFileName@ioWnd@@UAEPBDXZ
	DD	FLAT:?GetTemplateName@ioWnd@@UAEPBDXZ
	DD	FLAT:?GetDefClassName@ioWnd@@UBEPBDXZ
	DD	FLAT:?_Clone@ioWnd@@UAEPAV1@XZ
	DD	FLAT:?Copy@ioWnd@@UAEXPAV1@@Z
	DD	FLAT:?Save@ioWnd@@UAE_NAAVioXMLElement@@@Z
	DD	FLAT:?SetSaveData@ioWnd@@UAEXAAVioXMLElement@@@Z
	DD	FLAT:?SetPosX@ioWnd@@UAEXH@Z
	DD	FLAT:?SetPosY@ioWnd@@UAEXH@Z
	DD	FLAT:?SetWidth@ioWnd@@UAEXH@Z
	DD	FLAT:?SetHeight@ioWnd@@UAEXH@Z
	DD	FLAT:?GetNumFixedRenderFrame@ioWnd@@UBEHXZ
	DD	FLAT:?GetFixedRenderFrameType@ioWnd@@UAEPBDH@Z
	DD	FLAT:?GetRenderFrame@ioWnd@@UAEPAPAVioUIRenderElement@@PBD@Z
	DD	FLAT:?GetNumFixedRenderImage@ioWnd@@UBEHXZ
	DD	FLAT:?GetFixedRenderImageType@ioWnd@@UAEPBDH@Z
	DD	FLAT:?GetRenderImage@ioWnd@@UAEPAPAVioUIRenderElement@@PBD@Z
	DD	FLAT:?AddEffect@ioWnd@@UAEXABVioHashString@@PAVioUI3DEffectRender@@@Z
	DD	FLAT:?GetEffect@ioWnd@@UAEPAVioUI3DEffectRender@@VioHashString@@@Z
	DD	FLAT:??_EOneDayGoldItemEventWnd@@UAEPAXI@Z
CONST	ENDS
;	COMDAT xdata$x
xdata$x	SEGMENT
__unwindtable$??0OneDayGoldItemEventWnd@@QAE@XZ DD 0ffffffffH
	DD	FLAT:__unwindfunclet$??0OneDayGoldItemEventWnd@@QAE@XZ$0
	DD	00H
	DD	FLAT:__unwindfunclet$??0OneDayGoldItemEventWnd@@QAE@XZ$1
__ehfuncinfo$??0OneDayGoldItemEventWnd@@QAE@XZ DD 019930522H
	DD	02H
	DD	FLAT:__unwindtable$??0OneDayGoldItemEventWnd@@QAE@XZ
	DD	2 DUP(00H)
	DD	2 DUP(00H)
	DD	00H
	DD	01H
; Function compile flags: /Ogsp
; File d:\lost saga for developer\youtube\tutorial\source\src\lsclient\gui\eventcatalogwnd.cpp
xdata$x	ENDS
;	COMDAT ??0OneDayGoldItemEventWnd@@QAE@XZ
_TEXT	SEGMENT
_this$ = -16						; size = 4
__$EHRec$ = -12						; size = 12
??0OneDayGoldItemEventWnd@@QAE@XZ PROC			; OneDayGoldItemEventWnd::OneDayGoldItemEventWnd, COMDAT
; _this$ = ecx

; 1225 : {

  00000	6a 04		 push	 4
  00002	b8 00 00 00 00	 mov	 eax, __ehhandler$??0OneDayGoldItemEventWnd@@QAE@XZ
  00007	e8 00 00 00 00	 call	 __EH_prolog3
  0000c	8b f1		 mov	 esi, ecx
  0000e	89 75 f0	 mov	 DWORD PTR _this$[ebp], esi
  00011	ff 15 00 00 00
	00		 call	 DWORD PTR __imp_??0ioWnd@@QAE@XZ
  00017	8b 3d 00 00 00
	00		 mov	 edi, DWORD PTR __imp_??0ioHashString@@QAE@XZ
  0001d	33 db		 xor	 ebx, ebx
  0001f	8d 8e 78 01 00
	00		 lea	 ecx, DWORD PTR [esi+376]
  00025	89 5d fc	 mov	 DWORD PTR __$EHRec$[ebp+8], ebx
  00028	c7 06 00 00 00
	00		 mov	 DWORD PTR [esi], OFFSET ??_7OneDayGoldItemEventWnd@@6B@
  0002e	ff d7		 call	 edi
  00030	8d 8e 88 01 00
	00		 lea	 ecx, DWORD PTR [esi+392]
  00036	c6 45 fc 01	 mov	 BYTE PTR __$EHRec$[ebp+8], 1
  0003a	ff d7		 call	 edi

; 1226 : 	m_dwState			= 0;
; 1227 : 	m_iRollingIconArray = 0;
; 1228 : 	m_dwCurrentFullTime = 0;
; 1229 : 	m_dwRollingFullTime = 0;
; 1230 : 	m_dwCurrentTickTime = 0;
; 1231 : 	m_dwRollingTickTime = 0;
; 1232 : 	m_iPresentType		= 0;
; 1233 : 	m_iPresentValue1	= 0;
; 1234 : 	m_iPresentValue2	= 0;
; 1235 : 	m_iPresentValue3	= 0;
; 1236 : 	m_iPresentValue4	= 0;
; 1237 : 	m_bAlarm			= false;
; 1238 : 	m_fCompleteIconScale = 1.50f;

  0003c	f3 0f 10 05 00
	00 00 00	 movss	 xmm0, DWORD PTR __real@3fc00000
  00044	89 9e d8 01 00
	00		 mov	 DWORD PTR [esi+472], ebx
  0004a	89 9e dc 01 00
	00		 mov	 DWORD PTR [esi+476], ebx
  00050	89 9e e0 01 00
	00		 mov	 DWORD PTR [esi+480], ebx
  00056	33 c0		 xor	 eax, eax
  00058	66 89 86 98 01
	00 00		 mov	 WORD PTR [esi+408], ax
  0005f	89 9e 60 01 00
	00		 mov	 DWORD PTR [esi+352], ebx
  00065	89 9e 64 01 00
	00		 mov	 DWORD PTR [esi+356], ebx
  0006b	89 9e 68 01 00
	00		 mov	 DWORD PTR [esi+360], ebx
  00071	89 9e 6c 01 00
	00		 mov	 DWORD PTR [esi+364], ebx
  00077	89 9e 70 01 00
	00		 mov	 DWORD PTR [esi+368], ebx
  0007d	89 9e 74 01 00
	00		 mov	 DWORD PTR [esi+372], ebx
  00083	89 9e 9c 01 00
	00		 mov	 DWORD PTR [esi+412], ebx
  00089	89 9e a0 01 00
	00		 mov	 DWORD PTR [esi+416], ebx
  0008f	89 9e a4 01 00
	00		 mov	 DWORD PTR [esi+420], ebx
  00095	89 9e a8 01 00
	00		 mov	 DWORD PTR [esi+424], ebx
  0009b	88 9e ac 01 00
	00		 mov	 BYTE PTR [esi+428], bl
  000a1	f3 0f 11 86 b0
	01 00 00	 movss	 DWORD PTR [esi+432], xmm0

; 1239 : 	m_dwCompleteScaleTimer = 0;

  000a9	89 9e b4 01 00
	00		 mov	 DWORD PTR [esi+436], ebx

; 1240 : 
; 1241 : 	m_pBackRedLight = NULL;

  000af	89 9e b8 01 00
	00		 mov	 DWORD PTR [esi+440], ebx

; 1242 : 	m_pBackBlueLight = NULL;

  000b5	89 9e bc 01 00
	00		 mov	 DWORD PTR [esi+444], ebx

; 1243 : 	m_pRecvIcon = NULL;

  000bb	89 9e c0 01 00
	00		 mov	 DWORD PTR [esi+448], ebx

; 1244 : 	m_pTextStateRecv = NULL;

  000c1	89 9e c4 01 00
	00		 mov	 DWORD PTR [esi+452], ebx

; 1245 : 	m_pTextStateRolling = NULL;

  000c7	89 9e c8 01 00
	00		 mov	 DWORD PTR [esi+456], ebx

; 1246 : 	m_pTextStateComplete = NULL;

  000cd	89 9e cc 01 00
	00		 mov	 DWORD PTR [esi+460], ebx

; 1247 : 	m_pPresentIcon = NULL;

  000d3	89 9e d0 01 00
	00		 mov	 DWORD PTR [esi+464], ebx

; 1248 : 	m_pRollingIcon = NULL;           // 메모리 해제 안함.

  000d9	89 9e d4 01 00
	00		 mov	 DWORD PTR [esi+468], ebx

; 1249 : }

  000df	8b c6		 mov	 eax, esi
  000e1	e8 00 00 00 00	 call	 __EH_epilog3
  000e6	c3		 ret	 0
_TEXT	ENDS
;	COMDAT text$x
text$x	SEGMENT
__unwindfunclet$??0OneDayGoldItemEventWnd@@QAE@XZ$0:
  00000	8b 4d f0	 mov	 ecx, DWORD PTR _this$[ebp]
  00003	ff 25 00 00 00
	00		 jmp	 DWORD PTR __imp_??1ioWnd@@UAE@XZ
__unwindfunclet$??0OneDayGoldItemEventWnd@@QAE@XZ$1:
  00009	8b 4d f0	 mov	 ecx, DWORD PTR _this$[ebp]
  0000c	81 c1 78 01 00
	00		 add	 ecx, 376		; 00000178H
  00012	ff 25 00 00 00
	00		 jmp	 DWORD PTR __imp_??1ioHashString@@QAE@XZ
__ehhandler$??0OneDayGoldItemEventWnd@@QAE@XZ:
  00018	8b 54 24 08	 mov	 edx, DWORD PTR [esp+8]
  0001c	8d 42 0c	 lea	 eax, DWORD PTR [edx+12]
  0001f	8b 4a ec	 mov	 ecx, DWORD PTR [edx-20]
  00022	33 c8		 xor	 ecx, eax
  00024	e8 00 00 00 00	 call	 @__security_check_cookie@4
  00029	b8 00 00 00 00	 mov	 eax, OFFSET __ehfuncinfo$??0OneDayGoldItemEventWnd@@QAE@XZ
  0002e	e9 00 00 00 00	 jmp	 ___CxxFrameHandler3
text$x	ENDS
??0OneDayGoldItemEventWnd@@QAE@XZ ENDP			; OneDayGoldItemEventWnd::OneDayGoldItemEventWnd
PUBLIC	??1OneDayGoldItemEventWnd@@UAE@XZ		; OneDayGoldItemEventWnd::~OneDayGoldItemEventWnd
;	COMDAT xdata$x
; File c:\program files (x86)\microsoft visual studio 10.0\vc\include\vector
xdata$x	SEGMENT
__unwindtable$??1OneDayGoldItemEventWnd@@UAE@XZ DD 0ffffffffH
	DD	FLAT:__unwindfunclet$??1OneDayGoldItemEventWnd@@UAE@XZ$0
	DD	00H
	DD	FLAT:__unwindfunclet$??1OneDayGoldItemEventWnd@@UAE@XZ$1
	DD	01H
	DD	FLAT:__unwindfunclet$??1OneDayGoldItemEventWnd@@UAE@XZ$2
	DD	02H
	DD	FLAT:__unwindfunclet$??1OneDayGoldItemEventWnd@@UAE@XZ$3
__ehfuncinfo$??1OneDayGoldItemEventWnd@@UAE@XZ DD 019930522H
	DD	04H
	DD	FLAT:__unwindtable$??1OneDayGoldItemEventWnd@@UAE@XZ
	DD	2 DUP(00H)
	DD	2 DUP(00H)
	DD	00H
	DD	01H
; Function compile flags: /Ogsp
; File d:\lost saga for developer\youtube\tutorial\source\src\lsclient\gui\eventcatalogwnd.cpp
xdata$x	ENDS
;	COMDAT ??1OneDayGoldItemEventWnd@@UAE@XZ
_TEXT	SEGMENT
$T527203 = -20						; size = 4
_this$ = -16						; size = 4
__$EHRec$ = -12						; size = 12
??1OneDayGoldItemEventWnd@@UAE@XZ PROC			; OneDayGoldItemEventWnd::~OneDayGoldItemEventWnd, COMDAT
; _this$ = ecx

; 1252 : {

  00000	6a 08		 push	 8
  00002	b8 00 00 00 00	 mov	 eax, __ehhandler$??1OneDayGoldItemEventWnd@@UAE@XZ
  00007	e8 00 00 00 00	 call	 __EH_prolog3
  0000c	8b f1		 mov	 esi, ecx
  0000e	89 75 f0	 mov	 DWORD PTR _this$[ebp], esi
  00011	c7 06 00 00 00
	00		 mov	 DWORD PTR [esi], OFFSET ??_7OneDayGoldItemEventWnd@@6B@

; 1253 : 	SAFEDELETE( m_pBackRedLight );

  00017	8b 8e b8 01 00
	00		 mov	 ecx, DWORD PTR [esi+440]
  0001d	33 db		 xor	 ebx, ebx
  0001f	c7 45 fc 03 00
	00 00		 mov	 DWORD PTR __$EHRec$[ebp+8], 3
  00026	3b cb		 cmp	 ecx, ebx
  00028	74 0d		 je	 SHORT $LN11@OneDayGold
  0002a	8b 01		 mov	 eax, DWORD PTR [ecx]
  0002c	6a 01		 push	 1
  0002e	ff 50 40	 call	 DWORD PTR [eax+64]
  00031	89 9e b8 01 00
	00		 mov	 DWORD PTR [esi+440], ebx
$LN11@OneDayGold:

; 1254 : 	SAFEDELETE( m_pBackBlueLight );

  00037	8b 8e bc 01 00
	00		 mov	 ecx, DWORD PTR [esi+444]
  0003d	3b cb		 cmp	 ecx, ebx
  0003f	74 0d		 je	 SHORT $LN10@OneDayGold
  00041	8b 01		 mov	 eax, DWORD PTR [ecx]
  00043	6a 01		 push	 1
  00045	ff 50 40	 call	 DWORD PTR [eax+64]
  00048	89 9e bc 01 00
	00		 mov	 DWORD PTR [esi+444], ebx
$LN10@OneDayGold:

; 1255 : 	SAFEDELETE( m_pRecvIcon );

  0004e	8b 8e c0 01 00
	00		 mov	 ecx, DWORD PTR [esi+448]
  00054	3b cb		 cmp	 ecx, ebx
  00056	74 0d		 je	 SHORT $LN9@OneDayGold
  00058	8b 01		 mov	 eax, DWORD PTR [ecx]
  0005a	6a 01		 push	 1
  0005c	ff 50 40	 call	 DWORD PTR [eax+64]
  0005f	89 9e c0 01 00
	00		 mov	 DWORD PTR [esi+448], ebx
$LN9@OneDayGold:

; 1256 : 	SAFEDELETE( m_pTextStateRecv );

  00065	8b 8e c4 01 00
	00		 mov	 ecx, DWORD PTR [esi+452]
  0006b	3b cb		 cmp	 ecx, ebx
  0006d	74 0d		 je	 SHORT $LN8@OneDayGold
  0006f	8b 01		 mov	 eax, DWORD PTR [ecx]
  00071	6a 01		 push	 1
  00073	ff 50 40	 call	 DWORD PTR [eax+64]
  00076	89 9e c4 01 00
	00		 mov	 DWORD PTR [esi+452], ebx
$LN8@OneDayGold:

; 1257 : 	SAFEDELETE( m_pTextStateRolling );

  0007c	8b 8e c8 01 00
	00		 mov	 ecx, DWORD PTR [esi+456]
  00082	3b cb		 cmp	 ecx, ebx
  00084	74 0d		 je	 SHORT $LN7@OneDayGold
  00086	8b 01		 mov	 eax, DWORD PTR [ecx]
  00088	6a 01		 push	 1
  0008a	ff 50 40	 call	 DWORD PTR [eax+64]
  0008d	89 9e c8 01 00
	00		 mov	 DWORD PTR [esi+456], ebx
$LN7@OneDayGold:

; 1258 : 	SAFEDELETE( m_pTextStateComplete );

  00093	8b 8e cc 01 00
	00		 mov	 ecx, DWORD PTR [esi+460]
  00099	3b cb		 cmp	 ecx, ebx
  0009b	74 0d		 je	 SHORT $LN6@OneDayGold
  0009d	8b 01		 mov	 eax, DWORD PTR [ecx]
  0009f	6a 01		 push	 1
  000a1	ff 50 40	 call	 DWORD PTR [eax+64]
  000a4	89 9e cc 01 00
	00		 mov	 DWORD PTR [esi+460], ebx
$LN6@OneDayGold:

; 1259 : 	SAFEDELETE( m_pPresentIcon );

  000aa	8b 8e d0 01 00
	00		 mov	 ecx, DWORD PTR [esi+464]
  000b0	3b cb		 cmp	 ecx, ebx
  000b2	74 0d		 je	 SHORT $LN5@OneDayGold
  000b4	8b 01		 mov	 eax, DWORD PTR [ecx]
  000b6	6a 01		 push	 1
  000b8	ff 50 40	 call	 DWORD PTR [eax+64]
  000bb	89 9e d0 01 00
	00		 mov	 DWORD PTR [esi+464], ebx
$LN5@OneDayGold:

; 1260 : 
; 1261 : 	ioUIRenderImageVec::iterator iter = m_vRollingIconList.begin(); 

  000c1	8b 9e d8 01 00
	00		 mov	 ebx, DWORD PTR [esi+472]
  000c7	eb 10		 jmp	 SHORT $LN92@OneDayGold

; 1262 : 	for(;iter != m_vRollingIconList.end();iter++)

$LL46@OneDayGold:

; 1263 : 	{
; 1264 : 		ioUIRenderImage *pImage = *iter;

  000c9	8b 0b		 mov	 ecx, DWORD PTR [ebx]

; 1265 : 		SAFEDELETE( pImage );

  000cb	85 c9		 test	 ecx, ecx
  000cd	74 07		 je	 SHORT $LN3@OneDayGold
  000cf	8b 01		 mov	 eax, DWORD PTR [ecx]
  000d1	6a 01		 push	 1
  000d3	ff 50 40	 call	 DWORD PTR [eax+64]
$LN3@OneDayGold:

; 1262 : 	for(;iter != m_vRollingIconList.end();iter++)

  000d6	83 c3 04	 add	 ebx, 4
$LN92@OneDayGold:
  000d9	3b 9e dc 01 00
	00		 cmp	 ebx, DWORD PTR [esi+476]
  000df	75 e8		 jne	 SHORT $LL46@OneDayGold

; 1266 : 	}
; 1267 : 	m_vRollingIconList.clear();

  000e1	8b 86 dc 01 00
	00		 mov	 eax, DWORD PTR [esi+476]
  000e7	8b 8e d8 01 00
	00		 mov	 ecx, DWORD PTR [esi+472]
  000ed	50		 push	 eax
  000ee	51		 push	 ecx
  000ef	8d 45 ec	 lea	 eax, DWORD PTR $T527203[ebp]
  000f2	50		 push	 eax
  000f3	8d 8e d8 01 00
	00		 lea	 ecx, DWORD PTR [esi+472]
  000f9	e8 00 00 00 00	 call	 ?erase@?$vector@PAVioUIRenderImage@@V?$allocator@PAVioUIRenderImage@@@std@@@std@@QAE?AV?$_Vector_iterator@V?$_Vector_val@PAVioUIRenderImage@@V?$allocator@PAVioUIRenderImage@@@std@@@std@@@2@V?$_Vector_const_iterator@V?$_Vector_val@PAVioUIRenderImage@@V?$allocator@PAVioUIRenderImage@@@std@@@std@@@2@0@Z ; std::vector<ioUIRenderImage *,std::allocator<ioUIRenderImage *> >::erase

; 1268 : }

  000fe	8d 8e d8 01 00
	00		 lea	 ecx, DWORD PTR [esi+472]
  00104	c6 45 fc 02	 mov	 BYTE PTR __$EHRec$[ebp+8], 2
  00108	e8 00 00 00 00	 call	 ?_Tidy@?$vector@PAVioUIRenderImage@@V?$allocator@PAVioUIRenderImage@@@std@@@std@@IAEXXZ ; std::vector<ioUIRenderImage *,std::allocator<ioUIRenderImage *> >::_Tidy
  0010d	8b 3d 00 00 00
	00		 mov	 edi, DWORD PTR __imp_??1ioHashString@@QAE@XZ
  00113	8d 8e 88 01 00
	00		 lea	 ecx, DWORD PTR [esi+392]
  00119	c6 45 fc 01	 mov	 BYTE PTR __$EHRec$[ebp+8], 1
  0011d	ff d7		 call	 edi
  0011f	8d 8e 78 01 00
	00		 lea	 ecx, DWORD PTR [esi+376]
  00125	c6 45 fc 00	 mov	 BYTE PTR __$EHRec$[ebp+8], 0
  00129	ff d7		 call	 edi
  0012b	83 4d fc ff	 or	 DWORD PTR __$EHRec$[ebp+8], -1
  0012f	8b ce		 mov	 ecx, esi
  00131	ff 15 00 00 00
	00		 call	 DWORD PTR __imp_??1ioWnd@@UAE@XZ
  00137	e8 00 00 00 00	 call	 __EH_epilog3
  0013c	c3		 ret	 0
_TEXT	ENDS
;	COMDAT text$x
text$x	SEGMENT
__unwindfunclet$??1OneDayGoldItemEventWnd@@UAE@XZ$0:
  00000	8b 4d f0	 mov	 ecx, DWORD PTR _this$[ebp]
  00003	ff 25 00 00 00
	00		 jmp	 DWORD PTR __imp_??1ioWnd@@UAE@XZ
__unwindfunclet$??1OneDayGoldItemEventWnd@@UAE@XZ$1:
  00009	8b 4d f0	 mov	 ecx, DWORD PTR _this$[ebp]
  0000c	81 c1 78 01 00
	00		 add	 ecx, 376		; 00000178H
  00012	ff 25 00 00 00
	00		 jmp	 DWORD PTR __imp_??1ioHashString@@QAE@XZ
__unwindfunclet$??1OneDayGoldItemEventWnd@@UAE@XZ$2:
  00018	8b 4d f0	 mov	 ecx, DWORD PTR _this$[ebp]
  0001b	81 c1 88 01 00
	00		 add	 ecx, 392		; 00000188H
  00021	ff 25 00 00 00
	00		 jmp	 DWORD PTR __imp_??1ioHashString@@QAE@XZ
__unwindfunclet$??1OneDayGoldItemEventWnd@@UAE@XZ$3:
  00027	8b 4d f0	 mov	 ecx, DWORD PTR _this$[ebp]
  0002a	81 c1 d8 01 00
	00		 add	 ecx, 472		; 000001d8H
  00030	e9 00 00 00 00	 jmp	 ??1?$vector@PAVioUIRenderImage@@V?$allocator@PAVioUIRenderImage@@@std@@@std@@QAE@XZ ; std::vector<ioUIRenderImage *,std::allocator<ioUIRenderImage *> >::~vector<ioUIRenderImage *,std::allocator<ioUIRenderImage *> >
__ehhandler$??1OneDayGoldItemEventWnd@@UAE@XZ:
  00035	8b 54 24 08	 mov	 edx, DWORD PTR [esp+8]
  00039	8d 42 0c	 lea	 eax, DWORD PTR [edx+12]
  0003c	8b 4a e8	 mov	 ecx, DWORD PTR [edx-24]
  0003f	33 c8		 xor	 ecx, eax
  00041	e8 00 00 00 00	 call	 @__security_check_cookie@4
  00046	b8 00 00 00 00	 mov	 eax, OFFSET __ehfuncinfo$??1OneDayGoldItemEventWnd@@UAE@XZ
  0004b	e9 00 00 00 00	 jmp	 ___CxxFrameHandler3
text$x	ENDS
??1OneDayGoldItemEventWnd@@UAE@XZ ENDP			; OneDayGoldItemEventWnd::~OneDayGoldItemEventWnd
PUBLIC	?push_back@?$vector@PAVioUIRenderImage@@V?$allocator@PAVioUIRenderImage@@@std@@@std@@QAEX$$QAPAVioUIRenderImage@@@Z ; std::vector<ioUIRenderImage *,std::allocator<ioUIRenderImage *> >::push_back
; Function compile flags: /Ogsp
; File c:\program files (x86)\microsoft visual studio 10.0\vc\include\vector
;	COMDAT ?push_back@?$vector@PAVioUIRenderImage@@V?$allocator@PAVioUIRenderImage@@@std@@@std@@QAEX$$QAPAVioUIRenderImage@@@Z
_TEXT	SEGMENT
__Val$ = 8						; size = 4
?push_back@?$vector@PAVioUIRenderImage@@V?$allocator@PAVioUIRenderImage@@@std@@@std@@QAEX$$QAPAVioUIRenderImage@@@Z PROC ; std::vector<ioUIRenderImage *,std::allocator<ioUIRenderImage *> >::push_back, COMDAT
; _this$ = ecx

; 631  : 		{	// insert element at end

  00000	55		 push	 ebp
  00001	8b ec		 mov	 ebp, esp
  00003	56		 push	 esi
  00004	8b f1		 mov	 esi, ecx

; 632  : 		if (_Inside(_STD addressof(_Val)))

  00006	8b 46 04	 mov	 eax, DWORD PTR [esi+4]
  00009	57		 push	 edi
  0000a	8b 7d 08	 mov	 edi, DWORD PTR __Val$[ebp]
  0000d	3b f8		 cmp	 edi, eax
  0000f	73 27		 jae	 SHORT $LN4@push_back@2
  00011	8b 0e		 mov	 ecx, DWORD PTR [esi]
  00013	3b cf		 cmp	 ecx, edi
  00015	77 21		 ja	 SHORT $LN4@push_back@2

; 633  : 			{	// push back an element
; 634  : 			size_type _Idx = _STD addressof(_Val) - this->_Myfirst;

  00017	2b f9		 sub	 edi, ecx
  00019	c1 ff 02	 sar	 edi, 2

; 635  : 			if (this->_Mylast == this->_Myend)

  0001c	3b 46 08	 cmp	 eax, DWORD PTR [esi+8]
  0001f	75 09		 jne	 SHORT $LN3@push_back@2

; 636  : 				_Reserve(1);

  00021	6a 01		 push	 1
  00023	8b ce		 mov	 ecx, esi
  00025	e8 00 00 00 00	 call	 ?_Reserve@?$vector@PAVioUIRenderImage@@V?$allocator@PAVioUIRenderImage@@@std@@@std@@IAEXI@Z ; std::vector<ioUIRenderImage *,std::allocator<ioUIRenderImage *> >::_Reserve
$LN3@push_back@2:

; 637  : 			_Orphan_range(this->_Mylast, this->_Mylast);
; 638  : 			_Cons_val(this->_Alval,
; 639  : 				this->_Mylast,
; 640  : 				_STD forward<_Ty>(this->_Myfirst[_Idx]));

  0002a	8b 46 04	 mov	 eax, DWORD PTR [esi+4]
  0002d	85 c0		 test	 eax, eax
  0002f	74 20		 je	 SHORT $LN41@push_back@2
  00031	8b 0e		 mov	 ecx, DWORD PTR [esi]
  00033	8b 0c b9	 mov	 ecx, DWORD PTR [ecx+edi*4]

; 641  : 			++this->_Mylast;
; 642  : 			}
; 643  : 		else

  00036	eb 17		 jmp	 SHORT $LN48@push_back@2
$LN4@push_back@2:

; 644  : 			{	// push back a non-element
; 645  : 			if (this->_Mylast == this->_Myend)

  00038	3b 46 08	 cmp	 eax, DWORD PTR [esi+8]
  0003b	75 09		 jne	 SHORT $LN1@push_back@2

; 646  : 				_Reserve(1);

  0003d	6a 01		 push	 1
  0003f	8b ce		 mov	 ecx, esi
  00041	e8 00 00 00 00	 call	 ?_Reserve@?$vector@PAVioUIRenderImage@@V?$allocator@PAVioUIRenderImage@@@std@@@std@@IAEXI@Z ; std::vector<ioUIRenderImage *,std::allocator<ioUIRenderImage *> >::_Reserve
$LN1@push_back@2:

; 647  : 			_Orphan_range(this->_Mylast, this->_Mylast);
; 648  : 			_Cons_val(this->_Alval,
; 649  : 				this->_Mylast,
; 650  : 				_STD forward<_Ty>(_Val));

  00046	8b 46 04	 mov	 eax, DWORD PTR [esi+4]
  00049	85 c0		 test	 eax, eax
  0004b	74 04		 je	 SHORT $LN41@push_back@2
  0004d	8b 0f		 mov	 ecx, DWORD PTR [edi]
$LN48@push_back@2:
  0004f	89 08		 mov	 DWORD PTR [eax], ecx
$LN41@push_back@2:

; 651  : 			++this->_Mylast;

  00051	83 46 04 04	 add	 DWORD PTR [esi+4], 4
  00055	5f		 pop	 edi
  00056	5e		 pop	 esi

; 652  : 			}
; 653  : 		}

  00057	5d		 pop	 ebp
  00058	c2 04 00	 ret	 4
?push_back@?$vector@PAVioUIRenderImage@@V?$allocator@PAVioUIRenderImage@@@std@@@std@@QAEX$$QAPAVioUIRenderImage@@@Z ENDP ; std::vector<ioUIRenderImage *,std::allocator<ioUIRenderImage *> >::push_back
_TEXT	ENDS
PUBLIC	?push_back@?$vector@HV?$allocator@H@std@@@std@@QAEX$$QAH@Z ; std::vector<int,std::allocator<int> >::push_back
; Function compile flags: /Ogsp
;	COMDAT ?push_back@?$vector@HV?$allocator@H@std@@@std@@QAEX$$QAH@Z
_TEXT	SEGMENT
__Val$ = 8						; size = 4
?push_back@?$vector@HV?$allocator@H@std@@@std@@QAEX$$QAH@Z PROC ; std::vector<int,std::allocator<int> >::push_back, COMDAT
; _this$ = ecx

; 631  : 		{	// insert element at end

  00000	55		 push	 ebp
  00001	8b ec		 mov	 ebp, esp
  00003	56		 push	 esi
  00004	8b f1		 mov	 esi, ecx

; 632  : 		if (_Inside(_STD addressof(_Val)))

  00006	8b 46 04	 mov	 eax, DWORD PTR [esi+4]
  00009	57		 push	 edi
  0000a	8b 7d 08	 mov	 edi, DWORD PTR __Val$[ebp]
  0000d	3b f8		 cmp	 edi, eax
  0000f	73 27		 jae	 SHORT $LN4@push_back@3
  00011	8b 0e		 mov	 ecx, DWORD PTR [esi]
  00013	3b cf		 cmp	 ecx, edi
  00015	77 21		 ja	 SHORT $LN4@push_back@3

; 633  : 			{	// push back an element
; 634  : 			size_type _Idx = _STD addressof(_Val) - this->_Myfirst;

  00017	2b f9		 sub	 edi, ecx
  00019	c1 ff 02	 sar	 edi, 2

; 635  : 			if (this->_Mylast == this->_Myend)

  0001c	3b 46 08	 cmp	 eax, DWORD PTR [esi+8]
  0001f	75 09		 jne	 SHORT $LN3@push_back@3

; 636  : 				_Reserve(1);

  00021	6a 01		 push	 1
  00023	8b ce		 mov	 ecx, esi
  00025	e8 00 00 00 00	 call	 ?_Reserve@?$vector@HV?$allocator@H@std@@@std@@IAEXI@Z ; std::vector<int,std::allocator<int> >::_Reserve
$LN3@push_back@3:

; 637  : 			_Orphan_range(this->_Mylast, this->_Mylast);
; 638  : 			_Cons_val(this->_Alval,
; 639  : 				this->_Mylast,
; 640  : 				_STD forward<_Ty>(this->_Myfirst[_Idx]));

  0002a	8b 46 04	 mov	 eax, DWORD PTR [esi+4]
  0002d	85 c0		 test	 eax, eax
  0002f	74 20		 je	 SHORT $LN41@push_back@3
  00031	8b 0e		 mov	 ecx, DWORD PTR [esi]
  00033	8b 0c b9	 mov	 ecx, DWORD PTR [ecx+edi*4]

; 641  : 			++this->_Mylast;
; 642  : 			}
; 643  : 		else

  00036	eb 17		 jmp	 SHORT $LN48@push_back@3
$LN4@push_back@3:

; 644  : 			{	// push back a non-element
; 645  : 			if (this->_Mylast == this->_Myend)

  00038	3b 46 08	 cmp	 eax, DWORD PTR [esi+8]
  0003b	75 09		 jne	 SHORT $LN1@push_back@3

; 646  : 				_Reserve(1);

  0003d	6a 01		 push	 1
  0003f	8b ce		 mov	 ecx, esi
  00041	e8 00 00 00 00	 call	 ?_Reserve@?$vector@HV?$allocator@H@std@@@std@@IAEXI@Z ; std::vector<int,std::allocator<int> >::_Reserve
$LN1@push_back@3:

; 647  : 			_Orphan_range(this->_Mylast, this->_Mylast);
; 648  : 			_Cons_val(this->_Alval,
; 649  : 				this->_Mylast,
; 650  : 				_STD forward<_Ty>(_Val));

  00046	8b 46 04	 mov	 eax, DWORD PTR [esi+4]
  00049	85 c0		 test	 eax, eax
  0004b	74 04		 je	 SHORT $LN41@push_back@3
  0004d	8b 0f		 mov	 ecx, DWORD PTR [edi]
$LN48@push_back@3:
  0004f	89 08		 mov	 DWORD PTR [eax], ecx
$LN41@push_back@3:

; 651  : 			++this->_Mylast;

  00051	83 46 04 04	 add	 DWORD PTR [esi+4], 4
  00055	5f		 pop	 edi
  00056	5e		 pop	 esi

; 652  : 			}
; 653  : 		}

  00057	5d		 pop	 ebp
  00058	c2 04 00	 ret	 4
?push_back@?$vector@HV?$allocator@H@std@@@std@@QAEX$$QAH@Z ENDP ; std::vector<int,std::allocator<int> >::push_back
; Function compile flags: /Ogsp
_TEXT	ENDS
;	COMDAT ??_GEventCatalogWnd@@UAEPAXI@Z
_TEXT	SEGMENT
___flags$ = 8						; size = 4
??_GEventCatalogWnd@@UAEPAXI@Z PROC			; EventCatalogWnd::`scalar deleting destructor', COMDAT
; _this$ = ecx
  00000	55		 push	 ebp
  00001	8b ec		 mov	 ebp, esp
  00003	56		 push	 esi
  00004	8b f1		 mov	 esi, ecx
  00006	e8 00 00 00 00	 call	 ??1EventCatalogWnd@@UAE@XZ ; EventCatalogWnd::~EventCatalogWnd
  0000b	f6 45 08 01	 test	 BYTE PTR ___flags$[ebp], 1
  0000f	74 07		 je	 SHORT $LN1@scalar@7
  00011	56		 push	 esi
  00012	e8 00 00 00 00	 call	 ??3@YAXPAX@Z		; operator delete
  00017	59		 pop	 ecx
$LN1@scalar@7:
  00018	8b c6		 mov	 eax, esi
  0001a	5e		 pop	 esi
  0001b	5d		 pop	 ebp
  0001c	c2 04 00	 ret	 4
??_GEventCatalogWnd@@UAEPAXI@Z ENDP			; EventCatalogWnd::`scalar deleting destructor'
_TEXT	ENDS
EXTRN	?IsTutorialUser@ioMyInfo@@QAE_NXZ:PROC		; ioMyInfo::IsTutorialUser
; Function compile flags: /Ogsp
; File d:\lost saga for developer\youtube\tutorial\source\src\lsclient\gui\eventcatalogwnd.cpp
;	COMDAT ?iwm_show@EventCatalogWnd@@UAEXXZ
_TEXT	SEGMENT
?iwm_show@EventCatalogWnd@@UAEXXZ PROC			; EventCatalogWnd::iwm_show, COMDAT
; _this$ = ecx

; 65   : {

  00000	56		 push	 esi
  00001	8b f1		 mov	 esi, ecx

; 66   : 	if( g_MyInfo.IsTutorialUser() )

  00003	e8 00 00 00 00	 call	 ?GetSingleton@ioMyInfo@@SAAAV1@XZ ; ioMyInfo::GetSingleton
  00008	8b c8		 mov	 ecx, eax
  0000a	e8 00 00 00 00	 call	 ?IsTutorialUser@ioMyInfo@@QAE_NXZ ; ioMyInfo::IsTutorialUser

; 67   : 	{
; 68   : 		HideWnd();

  0000f	8b ce		 mov	 ecx, esi
  00011	84 c0		 test	 al, al
  00013	74 07		 je	 SHORT $LN1@iwm_show@4
  00015	5e		 pop	 esi
  00016	ff 25 00 00 00
	00		 jmp	 DWORD PTR __imp_?HideWnd@ioWnd@@QAEXXZ
$LN1@iwm_show@4:

; 69   : 		return;
; 70   : 	}
; 71   : 	SetShowHideChild();

  0001c	6a ff		 push	 -1
  0001e	e8 00 00 00 00	 call	 ?SetShowHideChild@EventCatalogWnd@@QAEXH@Z ; EventCatalogWnd::SetShowHideChild

; 72   : 
; 73   : 	EvnetChildrenDay::SetAutoShow( true );
; 74   : 
; 75   : 	SendEventGiftRequest();

  00023	8b ce		 mov	 ecx, esi
  00025	c6 05 00 00 00
	00 01		 mov	 BYTE PTR ?m_bAutoShow@EvnetChildrenDay@@1_NA, 1 ; EvnetChildrenDay::m_bAutoShow
  0002c	5e		 pop	 esi
  0002d	e9 00 00 00 00	 jmp	 ?SendEventGiftRequest@EventCatalogWnd@@IAEXXZ ; EventCatalogWnd::SendEventGiftRequest
?iwm_show@EventCatalogWnd@@UAEXXZ ENDP			; EventCatalogWnd::iwm_show
_TEXT	ENDS
PUBLIC	??_C@_0CF@JNENDHBK@EventChanceRollingWnd?3?3OnProcess@ ; `string'
PUBLIC	?OnProcessRand@EventChanceRollingWnd@@IAEXXZ	; EventChanceRollingWnd::OnProcessRand
EXTRN	?IsCashOnlyByArray@ioClassPrice@@QAE_NH@Z:PROC	; ioClassPrice::IsCashOnlyByArray
EXTRN	?IsActiveClass@ioClassPrice@@QAE_NH@Z:PROC	; ioClassPrice::IsActiveClass
EXTRN	?GetSingleton@ioClassPrice@@SAAAV1@XZ:PROC	; ioClassPrice::GetSingleton
EXTRN	?SetChatComplexString@ioSP2ChatManager@@QAEXABVioHashString@@AAVioComplexStringPrinter@@_N@Z:PROC ; ioSP2ChatManager::SetChatComplexString
EXTRN	?AddTextPiece@ioComplexStringPrinter@@QAEXMPBD00@Z:PROC ; ioComplexStringPrinter::AddTextPiece
EXTRN	?PresetChatComplexString@ioSP2ChatManager@@QAEXW4MsgStyleType@@AAVioComplexStringPrinter@@@Z:PROC ; ioSP2ChatManager::PresetChatComplexString
EXTRN	?GetSingleton@ioSP2ChatManager@@SAAAV1@XZ:PROC	; ioSP2ChatManager::GetSingleton
;	COMDAT ??_C@_0CF@JNENDHBK@EventChanceRollingWnd?3?3OnProcess@
; File c:\program files (x86)\microsoft visual studio 10.0\vc\include\vector
CONST	SEGMENT
??_C@_0CF@JNENDHBK@EventChanceRollingWnd?3?3OnProcess@ DB 'EventChanceRol'
	DB	'lingWnd::OnProcessRand', 00H		; `string'
CONST	ENDS
;	COMDAT xdata$x
xdata$x	SEGMENT
__unwindtable$?OnProcessRand@EventChanceRollingWnd@@IAEXXZ DD 0ffffffffH
	DD	FLAT:__unwindfunclet$?OnProcessRand@EventChanceRollingWnd@@IAEXXZ$0
	DD	00H
	DD	FLAT:__unwindfunclet$?OnProcessRand@EventChanceRollingWnd@@IAEXXZ$1
	DD	0ffffffffH
	DD	FLAT:__unwindfunclet$?OnProcessRand@EventChanceRollingWnd@@IAEXXZ$2
__ehfuncinfo$?OnProcessRand@EventChanceRollingWnd@@IAEXXZ DD 019930522H
	DD	03H
	DD	FLAT:__unwindtable$?OnProcessRand@EventChanceRollingWnd@@IAEXXZ
	DD	2 DUP(00H)
	DD	2 DUP(00H)
	DD	00H
	DD	01H
; Function compile flags: /Ogsp
; File d:\lost saga for developer\youtube\tutorial\source\src\lsclient\gui\eventcatalogwnd.cpp
xdata$x	ENDS
;	COMDAT ?OnProcessRand@EventChanceRollingWnd@@IAEXXZ
_TEXT	SEGMENT
_kPrinter$515803 = -68					; size = 32
_vClassType$515813 = -36				; size = 16
$T527475 = -36						; size = 16
$T527597 = -20						; size = 4
$T527492 = -20						; size = 4
$T527476 = -20						; size = 4
_i$515815 = -16						; size = 4
_iBonusType$515798 = -16				; size = 4
__$EHRec$ = -12						; size = 12
?OnProcessRand@EventChanceRollingWnd@@IAEXXZ PROC	; EventChanceRollingWnd::OnProcessRand, COMDAT
; _this$ = ecx

; 1020 : {

  00000	6a 38		 push	 56			; 00000038H
  00002	b8 00 00 00 00	 mov	 eax, __ehhandler$?OnProcessRand@EventChanceRollingWnd@@IAEXXZ
  00007	e8 00 00 00 00	 call	 __EH_prolog3
  0000c	8b f1		 mov	 esi, ecx

; 1021 : 	if( sg_dwCurRandTime == 0 ) return;

  0000e	33 db		 xor	 ebx, ebx
  00010	39 1d 00 00 00
	00		 cmp	 DWORD PTR ?sg_dwCurRandTime@EventChanceRollingWnd@@1KA, ebx ; EventChanceRollingWnd::sg_dwCurRandTime
  00016	0f 84 c3 03 00
	00		 je	 $LN7@OnProcessR

; 1022 : 	if( FRAMEGETTIME() - m_dwCurRandTickTime < m_dwRandTickTime ) return;

  0001c	8b 3d 00 00 00
	00		 mov	 edi, DWORD PTR __imp_?GetSingleton@ioFrameTimer@@SAAAV1@XZ
  00022	ff d7		 call	 edi
  00024	8b c8		 mov	 ecx, eax
  00026	ff 15 00 00 00
	00		 call	 DWORD PTR __imp_?GetLoopSec@ioFrameTimer@@QBEKXZ
  0002c	2b 86 a0 01 00
	00		 sub	 eax, DWORD PTR [esi+416]
  00032	3b 86 a8 01 00
	00		 cmp	 eax, DWORD PTR [esi+424]
  00038	0f 82 a1 03 00
	00		 jb	 $LN7@OnProcessR

; 1023 : 
; 1024 : 	m_dwCurRandTickTime = FRAMEGETTIME();

  0003e	ff d7		 call	 edi
  00040	8b c8		 mov	 ecx, eax
  00042	ff 15 00 00 00
	00		 call	 DWORD PTR __imp_?GetLoopSec@ioFrameTimer@@QBEKXZ
  00048	89 86 a0 01 00
	00		 mov	 DWORD PTR [esi+416], eax

; 1025 : 	DWORD dwGap = FRAMEGETTIME() - sg_dwCurRandTime;

  0004e	ff d7		 call	 edi
  00050	8b c8		 mov	 ecx, eax
  00052	ff 15 00 00 00
	00		 call	 DWORD PTR __imp_?GetLoopSec@ioFrameTimer@@QBEKXZ
  00058	2b 05 00 00 00
	00		 sub	 eax, DWORD PTR ?sg_dwCurRandTime@EventChanceRollingWnd@@1KA ; EventChanceRollingWnd::sg_dwCurRandTime

; 1026 : 	if( dwGap > m_dwRandTime && sg_iOriginalBonus != 0 )

  0005e	3b 86 a4 01 00
	00		 cmp	 eax, DWORD PTR [esi+420]
  00064	0f 86 05 02 00
	00		 jbe	 $LN27@OnProcessR
  0006a	39 1d 00 00 00
	00		 cmp	 DWORD PTR ?sg_iOriginalBonus@EventChanceRollingWnd@@1HA, ebx ; EventChanceRollingWnd::sg_iOriginalBonus
  00070	0f 84 f9 01 00
	00		 je	 $LN27@OnProcessR

; 1027 : 	{
; 1028 : 		sg_dwCurRandTime = 0;
; 1029 : 		SetChildActive( ID_EXIT );		

  00076	8b 3d 00 00 00
	00		 mov	 edi, DWORD PTR __imp_?SetChildActive@ioWnd@@QAEXK@Z
  0007c	6a 01		 push	 1
  0007e	8b ce		 mov	 ecx, esi
  00080	89 1d 00 00 00
	00		 mov	 DWORD PTR ?sg_dwCurRandTime@EventChanceRollingWnd@@1KA, ebx ; EventChanceRollingWnd::sg_dwCurRandTime
  00086	ff d7		 call	 edi

; 1030 : 		SetChildActive( ID_OK );

  00088	6a 03		 push	 3
  0008a	8b ce		 mov	 ecx, esi
  0008c	ff d7		 call	 edi

; 1031 : 		ChanceMortmainCharEventUserNode *pEventNode = dynamic_cast<ChanceMortmainCharEventUserNode*>( g_MyInfo.GetEventUserMgr().GetEventUserNode( EVT_CHANCE_MORTMAIN_CHAR ) );

  0008e	53		 push	 ebx
  0008f	68 00 00 00 00	 push	 OFFSET ??_R0?AVChanceMortmainCharEventUserNode@@@8
  00094	68 00 00 00 00	 push	 OFFSET ??_R0?AVEventUserNode@@@8
  00099	53		 push	 ebx
  0009a	6a 0b		 push	 11			; 0000000bH
  0009c	e8 00 00 00 00	 call	 ?GetSingleton@ioMyInfo@@SAAAV1@XZ ; ioMyInfo::GetSingleton
  000a1	8b c8		 mov	 ecx, eax
  000a3	e8 00 00 00 00	 call	 ?GetEventUserMgr@ioMyInfo@@QAEAAVEventUserManager@@XZ ; ioMyInfo::GetEventUserMgr
  000a8	8b c8		 mov	 ecx, eax
  000aa	e8 00 00 00 00	 call	 ?GetEventUserNode@EventUserManager@@QAEPAVEventUserNode@@W4EventType@@@Z ; EventUserManager::GetEventUserNode
  000af	50		 push	 eax
  000b0	e8 00 00 00 00	 call	 ___RTDynamicCast
  000b5	83 c4 14	 add	 esp, 20			; 00000014H

; 1032 : 		if( pEventNode )

  000b8	3b c3		 cmp	 eax, ebx
  000ba	74 12		 je	 SHORT $LN25@OnProcessR

; 1033 : 		{
; 1034 : 			if( pEventNode->GetValue( VA_CMC_MAGIC_CODE ) < 0 )

  000bc	53		 push	 ebx
  000bd	8b c8		 mov	 ecx, eax
  000bf	e8 00 00 00 00	 call	 ?GetValue@EventUserNode@@QAEHH@Z ; EventUserNode::GetValue
  000c4	85 c0		 test	 eax, eax
  000c6	79 06		 jns	 SHORT $LN25@OnProcessR

; 1035 : 				SetChildActive( ID_CHANCE );

  000c8	6a 02		 push	 2
  000ca	8b ce		 mov	 ecx, esi
  000cc	ff d7		 call	 edi
$LN25@OnProcessR:

; 1036 : 		}
; 1037 : 
; 1038 : 		if( !m_szRollingSound.IsEmpty() )

  000ce	8d be ac 01 00
	00		 lea	 edi, DWORD PTR [esi+428]
  000d4	8b cf		 mov	 ecx, edi
  000d6	ff 15 00 00 00
	00		 call	 DWORD PTR __imp_?IsEmpty@ioHashString@@QBE_NXZ
  000dc	84 c0		 test	 al, al
  000de	75 10		 jne	 SHORT $LN24@OnProcessR

; 1039 : 			g_SoundMgr.StopSound( m_szRollingSound, 0 );			

  000e0	53		 push	 ebx
  000e1	57		 push	 edi
  000e2	ff 15 00 00 00
	00		 call	 DWORD PTR __imp_?GetSingleton@ioSoundManager@@SAAAV1@XZ
  000e8	8b c8		 mov	 ecx, eax
  000ea	ff 15 00 00 00
	00		 call	 DWORD PTR __imp_?StopSound@ioSoundManager@@QAEXABVioHashString@@K@Z
$LN24@OnProcessR:

; 1040 : 
; 1041 : 		int iBonusType = sg_iOriginalBonus % 1000;

  000f0	a1 00 00 00 00	 mov	 eax, DWORD PTR ?sg_iOriginalBonus@EventChanceRollingWnd@@1HA ; EventChanceRollingWnd::sg_iOriginalBonus
  000f5	99		 cdq
  000f6	b9 e8 03 00 00	 mov	 ecx, 1000		; 000003e8H
  000fb	f7 f9		 idiv	 ecx
  000fd	89 55 f0	 mov	 DWORD PTR _iBonusType$515798[ebp], edx

; 1042 : 		if( iBonusType != 0 )

  00100	3b d3		 cmp	 edx, ebx
  00102	0f 84 3a 01 00
	00		 je	 $LN23@OnProcessR

; 1043 : 		{
; 1044 : 			SAFEDELETE( m_pSoldierIcon );

  00108	8b 8e 94 01 00
	00		 mov	 ecx, DWORD PTR [esi+404]
  0010e	3b cb		 cmp	 ecx, ebx
  00110	74 0d		 je	 SHORT $LN22@OnProcessR
  00112	8b 01		 mov	 eax, DWORD PTR [ecx]
  00114	6a 01		 push	 1
  00116	ff 50 40	 call	 DWORD PTR [eax+64]
  00119	89 9e 94 01 00
	00		 mov	 DWORD PTR [esi+404], ebx
$LN22@OnProcessR:

; 1045 : 			m_pSoldierIcon = g_MyInfo.GetSoldierIcon( iBonusType, true );

  0011f	6a 01		 push	 1
  00121	ff 75 f0	 push	 DWORD PTR _iBonusType$515798[ebp]
  00124	e8 00 00 00 00	 call	 ?GetSingleton@ioMyInfo@@SAAAV1@XZ ; ioMyInfo::GetSingleton
  00129	8b c8		 mov	 ecx, eax
  0012b	e8 00 00 00 00	 call	 ?GetSoldierIcon@ioMyInfo@@QAEPAVioUIRenderImage@@H_N@Z ; ioMyInfo::GetSoldierIcon

; 1046 : 
; 1047 : 			ioComplexStringPrinter kPrinter;

  00130	8d 4d bc	 lea	 ecx, DWORD PTR _kPrinter$515803[ebp]
  00133	89 86 94 01 00
	00		 mov	 DWORD PTR [esi+404], eax
  00139	e8 00 00 00 00	 call	 ??0ioComplexStringPrinter@@QAE@XZ ; ioComplexStringPrinter::ioComplexStringPrinter

; 1048 : 			g_ChatMgr.PresetChatComplexString( MSG_ANNOUNCE_CHAT, kPrinter );

  0013e	8d 45 bc	 lea	 eax, DWORD PTR _kPrinter$515803[ebp]
  00141	50		 push	 eax
  00142	6a 05		 push	 5
  00144	89 5d fc	 mov	 DWORD PTR __$EHRec$[ebp+8], ebx
  00147	e8 00 00 00 00	 call	 ?GetSingleton@ioSP2ChatManager@@SAAAV1@XZ ; ioSP2ChatManager::GetSingleton
  0014c	8b c8		 mov	 ecx, eax
  0014e	e8 00 00 00 00	 call	 ?PresetChatComplexString@ioSP2ChatManager@@QAEXW4MsgStyleType@@AAVioComplexStringPrinter@@@Z ; ioSP2ChatManager::PresetChatComplexString

; 1049 : 			kPrinter.SetTextColor( TCT_DEFAULT_VIOLET );

  00153	68 8f 24 8e ff	 push	 -7461745		; ff8e248fH
  00158	8d 4d bc	 lea	 ecx, DWORD PTR _kPrinter$515803[ebp]
  0015b	e8 00 00 00 00	 call	 ?SetTextColor@ioComplexStringPrinter@@QAEXK@Z ; ioComplexStringPrinter::SetTextColor

; 1050 : 			kPrinter.AddTextPiece( g_ChatMgr.GetChatFontScale(), STR(1), g_MyInfo.GetPublicID().c_str(), g_MyInfo.GetClassName( iBonusType ) );

  00160	e8 00 00 00 00	 call	 ?GetSingleton@ioMyInfo@@SAAAV1@XZ ; ioMyInfo::GetSingleton
  00165	8b f8		 mov	 edi, eax
  00167	e8 00 00 00 00	 call	 ?GetSingleton@ioSP2ChatManager@@SAAAV1@XZ ; ioSP2ChatManager::GetSingleton
  0016c	f3 0f 10 80 74
	04 00 00	 movss	 xmm0, DWORD PTR [eax+1140]
  00174	53		 push	 ebx
  00175	ff 75 f0	 push	 DWORD PTR _iBonusType$515798[ebp]
  00178	f3 0f 11 45 ec	 movss	 DWORD PTR $T527492[ebp], xmm0
  0017d	e8 00 00 00 00	 call	 ?GetSingleton@ioMyInfo@@SAAAV1@XZ ; ioMyInfo::GetSingleton
  00182	8b c8		 mov	 ecx, eax
  00184	e8 00 00 00 00	 call	 ?GetClassNameA@ioMyInfo@@QAEPBDHH@Z ; ioMyInfo::GetClassNameA
  00189	50		 push	 eax
  0018a	8d 4f 1c	 lea	 ecx, DWORD PTR [edi+28]
  0018d	ff 15 00 00 00
	00		 call	 DWORD PTR __imp_?c_str@ioHashString@@QBEPBDXZ
  00193	8b 3d 00 00 00
	00		 mov	 edi, DWORD PTR __imp_?GetSingleton@ioStringManager@@SAAAV1@XZ
  00199	50		 push	 eax
  0019a	53		 push	 ebx
  0019b	6a 01		 push	 1
  0019d	68 00 00 00 00	 push	 OFFSET ??_C@_00CNPNBAHC@?$AA@
  001a2	68 00 00 00 00	 push	 OFFSET ??_C@_0CF@JNENDHBK@EventChanceRollingWnd?3?3OnProcess@
  001a7	ff d7		 call	 edi
  001a9	8b 1d 00 00 00
	00		 mov	 ebx, DWORD PTR __imp_?GetString@ioStringManager@@QAEPADPBD0HW4FileNamePrefix@1@@Z
  001af	8b c8		 mov	 ecx, eax
  001b1	ff d3		 call	 ebx
  001b3	f3 0f 10 45 ec	 movss	 xmm0, DWORD PTR $T527492[ebp]
  001b8	50		 push	 eax
  001b9	51		 push	 ecx
  001ba	8d 4d bc	 lea	 ecx, DWORD PTR _kPrinter$515803[ebp]
  001bd	f3 0f 11 04 24	 movss	 DWORD PTR [esp], xmm0
  001c2	e8 00 00 00 00	 call	 ?AddTextPiece@ioComplexStringPrinter@@QAEXMPBD00@Z ; ioComplexStringPrinter::AddTextPiece

; 1051 : 			g_ChatMgr.SetChatComplexString( STR(2), kPrinter );

  001c7	6a 00		 push	 0
  001c9	6a 02		 push	 2
  001cb	68 00 00 00 00	 push	 OFFSET ??_C@_00CNPNBAHC@?$AA@
  001d0	68 00 00 00 00	 push	 OFFSET ??_C@_0CF@JNENDHBK@EventChanceRollingWnd?3?3OnProcess@
  001d5	ff d7		 call	 edi
  001d7	8b c8		 mov	 ecx, eax
  001d9	ff d3		 call	 ebx
  001db	50		 push	 eax
  001dc	8d 4d dc	 lea	 ecx, DWORD PTR $T527475[ebp]
  001df	ff 15 00 00 00
	00		 call	 DWORD PTR __imp_??0ioHashString@@QAE@PBD@Z
  001e5	6a 01		 push	 1
  001e7	8d 45 bc	 lea	 eax, DWORD PTR _kPrinter$515803[ebp]
  001ea	50		 push	 eax
  001eb	8d 45 dc	 lea	 eax, DWORD PTR $T527475[ebp]
  001ee	50		 push	 eax
  001ef	c6 45 fc 01	 mov	 BYTE PTR __$EHRec$[ebp+8], 1
  001f3	e8 00 00 00 00	 call	 ?GetSingleton@ioSP2ChatManager@@SAAAV1@XZ ; ioSP2ChatManager::GetSingleton
  001f8	8b c8		 mov	 ecx, eax
  001fa	e8 00 00 00 00	 call	 ?SetChatComplexString@ioSP2ChatManager@@QAEXABVioHashString@@AAVioComplexStringPrinter@@_N@Z ; ioSP2ChatManager::SetChatComplexString
  001ff	8d 4d dc	 lea	 ecx, DWORD PTR $T527475[ebp]
  00202	c6 45 fc 00	 mov	 BYTE PTR __$EHRec$[ebp+8], 0
  00206	ff 15 00 00 00
	00		 call	 DWORD PTR __imp_??1ioHashString@@QAE@XZ

; 1052 : 
; 1053 : 			if( !m_szCharSound.IsEmpty() )

  0020c	81 c6 cc 01 00
	00		 add	 esi, 460		; 000001ccH
  00212	8b ce		 mov	 ecx, esi
  00214	ff 15 00 00 00
	00		 call	 DWORD PTR __imp_?IsEmpty@ioHashString@@QBE_NXZ
  0021a	84 c0		 test	 al, al
  0021c	75 13		 jne	 SHORT $LN21@OnProcessR

; 1054 : 				g_SoundMgr.PlaySound( m_szCharSound );

  0021e	6a 04		 push	 4
  00220	6a 00		 push	 0
  00222	56		 push	 esi
  00223	ff 15 00 00 00
	00		 call	 DWORD PTR __imp_?GetSingleton@ioSoundManager@@SAAAV1@XZ
  00229	8b c8		 mov	 ecx, eax
  0022b	ff 15 00 00 00
	00		 call	 DWORD PTR __imp_?PlaySoundA@ioSoundManager@@QAEKABVioHashString@@HK@Z
$LN21@OnProcessR:

; 1055 : 		}		

  00231	83 4d fc ff	 or	 DWORD PTR __$EHRec$[ebp+8], -1
  00235	8d 4d bc	 lea	 ecx, DWORD PTR _kPrinter$515803[ebp]
  00238	e8 00 00 00 00	 call	 ??1ioComplexStringPrinter@@QAE@XZ ; ioComplexStringPrinter::~ioComplexStringPrinter

; 1056 : 		else

  0023d	e9 9d 01 00 00	 jmp	 $LN7@OnProcessR
$LN23@OnProcessR:

; 1057 : 		{
; 1058 : 			if( !m_szPesoSound.IsEmpty() )

  00242	81 c6 bc 01 00
	00		 add	 esi, 444		; 000001bcH
  00248	8b ce		 mov	 ecx, esi
  0024a	ff 15 00 00 00
	00		 call	 DWORD PTR __imp_?IsEmpty@ioHashString@@QBE_NXZ
  00250	84 c0		 test	 al, al
  00252	0f 85 87 01 00
	00		 jne	 $LN7@OnProcessR

; 1059 : 				g_SoundMgr.PlaySound( m_szPesoSound );

  00258	6a 04		 push	 4
  0025a	53		 push	 ebx
  0025b	56		 push	 esi
  0025c	ff 15 00 00 00
	00		 call	 DWORD PTR __imp_?GetSingleton@ioSoundManager@@SAAAV1@XZ
  00262	8b c8		 mov	 ecx, eax
  00264	ff 15 00 00 00
	00		 call	 DWORD PTR __imp_?PlaySoundA@ioSoundManager@@QAEKABVioHashString@@HK@Z

; 1060 : 		}
; 1061 : 	}
; 1062 : 	else

  0026a	e9 70 01 00 00	 jmp	 $LN7@OnProcessR
$LN27@OnProcessR:

; 1063 : 	{
; 1064 : 		// 랜덤 보상 변경
; 1065 : 		int iBonusType = m_iRandBonus % 1000;

  0026f	8b 86 dc 01 00
	00		 mov	 eax, DWORD PTR [esi+476]
  00275	99		 cdq
  00276	b9 e8 03 00 00	 mov	 ecx, 1000		; 000003e8H
  0027b	f7 f9		 idiv	 ecx

; 1066 : 		if( iBonusType == 0 )    // 페소 보상이었으면 용병 보상으로 

  0027d	3b d3		 cmp	 edx, ebx
  0027f	0f 85 f5 00 00
	00		 jne	 $LN17@OnProcessR

; 1067 : 		{
; 1068 : 			IntVec vClassType;

  00285	89 5d dc	 mov	 DWORD PTR _vClassType$515813[ebp], ebx
  00288	89 5d e0	 mov	 DWORD PTR _vClassType$515813[ebp+4], ebx
  0028b	89 5d e4	 mov	 DWORD PTR _vClassType$515813[ebp+8], ebx

; 1069 : 			vClassType.reserve(10);

  0028e	6a 0a		 push	 10			; 0000000aH
  00290	8d 4d dc	 lea	 ecx, DWORD PTR _vClassType$515813[ebp]
  00293	c7 45 fc 02 00
	00 00		 mov	 DWORD PTR __$EHRec$[ebp+8], 2
  0029a	e8 00 00 00 00	 call	 ?reserve@?$vector@HV?$allocator@H@std@@@std@@QAEXI@Z ; std::vector<int,std::allocator<int> >::reserve

; 1070 : 			int iSize = g_ClassPrice.MaxClassPrice();

  0029f	e8 00 00 00 00	 call	 ?GetSingleton@ioClassPrice@@SAAAV1@XZ ; ioClassPrice::GetSingleton
  002a4	8b 78 08	 mov	 edi, DWORD PTR [eax+8]
  002a7	2b 78 04	 sub	 edi, DWORD PTR [eax+4]

; 1071 : 			for (int i = 0; i < iSize ; i++)

  002aa	89 5d f0	 mov	 DWORD PTR _i$515815[ebp], ebx
  002ad	c1 ff 02	 sar	 edi, 2
  002b0	3b fb		 cmp	 edi, ebx
  002b2	7e 41		 jle	 SHORT $LN14@OnProcessR
$LN16@OnProcessR:

; 1072 : 			{
; 1073 : 				if( !g_ClassPrice.IsActiveClass( i ) )

  002b4	ff 75 f0	 push	 DWORD PTR _i$515815[ebp]
  002b7	e8 00 00 00 00	 call	 ?GetSingleton@ioClassPrice@@SAAAV1@XZ ; ioClassPrice::GetSingleton
  002bc	8b c8		 mov	 ecx, eax
  002be	e8 00 00 00 00	 call	 ?IsActiveClass@ioClassPrice@@QAE_NH@Z ; ioClassPrice::IsActiveClass
  002c3	84 c0		 test	 al, al
  002c5	74 26		 je	 SHORT $LN15@OnProcessR

; 1074 : 					continue;
; 1075 : 				if( g_ClassPrice.IsCashOnlyByArray( i ) )

  002c7	ff 75 f0	 push	 DWORD PTR _i$515815[ebp]
  002ca	e8 00 00 00 00	 call	 ?GetSingleton@ioClassPrice@@SAAAV1@XZ ; ioClassPrice::GetSingleton
  002cf	8b c8		 mov	 ecx, eax
  002d1	e8 00 00 00 00	 call	 ?IsCashOnlyByArray@ioClassPrice@@QAE_NH@Z ; ioClassPrice::IsCashOnlyByArray
  002d6	84 c0		 test	 al, al
  002d8	75 13		 jne	 SHORT $LN15@OnProcessR

; 1076 : 					continue;
; 1077 : 				vClassType.push_back( i + 1 );

  002da	8b 45 f0	 mov	 eax, DWORD PTR _i$515815[ebp]
  002dd	40		 inc	 eax
  002de	89 45 ec	 mov	 DWORD PTR $T527476[ebp], eax
  002e1	8d 45 ec	 lea	 eax, DWORD PTR $T527476[ebp]
  002e4	50		 push	 eax
  002e5	8d 4d dc	 lea	 ecx, DWORD PTR _vClassType$515813[ebp]
  002e8	e8 00 00 00 00	 call	 ?push_back@?$vector@HV?$allocator@H@std@@@std@@QAEX$$QAH@Z ; std::vector<int,std::allocator<int> >::push_back
$LN15@OnProcessR:

; 1071 : 			for (int i = 0; i < iSize ; i++)

  002ed	ff 45 f0	 inc	 DWORD PTR _i$515815[ebp]
  002f0	39 7d f0	 cmp	 DWORD PTR _i$515815[ebp], edi
  002f3	7c bf		 jl	 SHORT $LN16@OnProcessR
$LN14@OnProcessR:

; 1078 : 			}
; 1079 : 			int iRand = rand()%vClassType.size();

  002f5	8b 7d e0	 mov	 edi, DWORD PTR _vClassType$515813[ebp+4]
  002f8	2b 7d dc	 sub	 edi, DWORD PTR _vClassType$515813[ebp]
  002fb	c1 ff 02	 sar	 edi, 2
  002fe	ff 15 00 00 00
	00		 call	 DWORD PTR __imp__rand
  00304	33 d2		 xor	 edx, edx
  00306	f7 f7		 div	 edi

; 1080 : 			m_iRandBonus = 1;
; 1081 : 			if( COMPARE( iRand, 0, (int) vClassType.size() ) )

  00308	8b 45 dc	 mov	 eax, DWORD PTR _vClassType$515813[ebp]
  0030b	33 ff		 xor	 edi, edi
  0030d	47		 inc	 edi
  0030e	89 be dc 01 00
	00		 mov	 DWORD PTR [esi+476], edi
  00314	3b d3		 cmp	 edx, ebx
  00316	7c 15		 jl	 SHORT $LN11@OnProcessR
  00318	8b 4d e0	 mov	 ecx, DWORD PTR _vClassType$515813[ebp+4]
  0031b	2b c8		 sub	 ecx, eax
  0031d	c1 f9 02	 sar	 ecx, 2
  00320	3b d1		 cmp	 edx, ecx
  00322	7d 09		 jge	 SHORT $LN11@OnProcessR

; 1082 : 				m_iRandBonus = vClassType[iRand];

  00324	8b 0c 90	 mov	 ecx, DWORD PTR [eax+edx*4]
  00327	89 8e dc 01 00
	00		 mov	 DWORD PTR [esi+476], ecx
$LN11@OnProcessR:

; 1083 : 			vClassType.clear();

  0032d	ff 75 e0	 push	 DWORD PTR _vClassType$515813[ebp+4]
  00330	8d 4d dc	 lea	 ecx, DWORD PTR _vClassType$515813[ebp]
  00333	50		 push	 eax
  00334	8d 45 ec	 lea	 eax, DWORD PTR $T527597[ebp]
  00337	50		 push	 eax
  00338	e8 00 00 00 00	 call	 ?erase@?$vector@HV?$allocator@H@std@@@std@@QAE?AV?$_Vector_iterator@V?$_Vector_val@HV?$allocator@H@std@@@std@@@2@V?$_Vector_const_iterator@V?$_Vector_val@HV?$allocator@H@std@@@std@@@2@0@Z ; std::vector<int,std::allocator<int> >::erase

; 1084 : 
; 1085 : 			SAFEDELETE( m_pSoldierIcon );

  0033d	8b 8e 94 01 00
	00		 mov	 ecx, DWORD PTR [esi+404]
  00343	3b cb		 cmp	 ecx, ebx
  00345	74 0c		 je	 SHORT $LN10@OnProcessR
  00347	8b 01		 mov	 eax, DWORD PTR [ecx]
  00349	57		 push	 edi
  0034a	ff 50 40	 call	 DWORD PTR [eax+64]
  0034d	89 9e 94 01 00
	00		 mov	 DWORD PTR [esi+404], ebx
$LN10@OnProcessR:

; 1086 : 			m_pSoldierIcon = g_MyInfo.GetSoldierIcon( m_iRandBonus, true );

  00353	57		 push	 edi
  00354	ff b6 dc 01 00
	00		 push	 DWORD PTR [esi+476]
  0035a	e8 00 00 00 00	 call	 ?GetSingleton@ioMyInfo@@SAAAV1@XZ ; ioMyInfo::GetSingleton
  0035f	8b c8		 mov	 ecx, eax
  00361	e8 00 00 00 00	 call	 ?GetSoldierIcon@ioMyInfo@@QAEPAVioUIRenderImage@@H_N@Z ; ioMyInfo::GetSoldierIcon

; 1087 : 		}

  00366	83 4d fc ff	 or	 DWORD PTR __$EHRec$[ebp+8], -1
  0036a	8d 4d dc	 lea	 ecx, DWORD PTR _vClassType$515813[ebp]
  0036d	89 86 94 01 00
	00		 mov	 DWORD PTR [esi+404], eax
  00373	e8 00 00 00 00	 call	 ?_Tidy@?$vector@HV?$allocator@H@std@@@std@@IAEXXZ ; std::vector<int,std::allocator<int> >::_Tidy

; 1088 : 		else                     // 페소 보상으로

  00378	eb 65		 jmp	 SHORT $LN7@OnProcessR
$LN17@OnProcessR:

; 1089 : 		{
; 1090 : 			int r = rand()%6;

  0037a	ff 15 00 00 00
	00		 call	 DWORD PTR __imp__rand
  00380	6a 06		 push	 6
  00382	99		 cdq
  00383	59		 pop	 ecx
  00384	f7 f9		 idiv	 ecx

; 1091 : 			switch( r )

  00386	2b d3		 sub	 edx, ebx
  00388	74 4b		 je	 SHORT $LN6@OnProcessR
  0038a	4a		 dec	 edx
  0038b	74 3c		 je	 SHORT $LN5@OnProcessR
  0038d	4a		 dec	 edx
  0038e	74 2d		 je	 SHORT $LN4@OnProcessR
  00390	4a		 dec	 edx
  00391	74 1e		 je	 SHORT $LN3@OnProcessR
  00393	4a		 dec	 edx
  00394	74 0f		 je	 SHORT $LN2@OnProcessR
  00396	4a		 dec	 edx
  00397	75 46		 jne	 SHORT $LN7@OnProcessR

; 1108 : 			case 5:
; 1109 : 				m_iRandBonus = 100000;

  00399	c7 86 dc 01 00
	00 a0 86 01 00	 mov	 DWORD PTR [esi+476], 100000 ; 000186a0H

; 1110 : 				break;

  003a3	eb 3a		 jmp	 SHORT $LN7@OnProcessR
$LN2@OnProcessR:

; 1105 : 			case 4:
; 1106 : 				m_iRandBonus = 200000;

  003a5	c7 86 dc 01 00
	00 40 0d 03 00	 mov	 DWORD PTR [esi+476], 200000 ; 00030d40H

; 1107 : 				break;

  003af	eb 2e		 jmp	 SHORT $LN7@OnProcessR
$LN3@OnProcessR:

; 1102 : 			case 3:
; 1103 : 				m_iRandBonus = 300000;

  003b1	c7 86 dc 01 00
	00 e0 93 04 00	 mov	 DWORD PTR [esi+476], 300000 ; 000493e0H

; 1104 : 				break;

  003bb	eb 22		 jmp	 SHORT $LN7@OnProcessR
$LN4@OnProcessR:

; 1099 : 			case 2:
; 1100 : 				m_iRandBonus = 500000;

  003bd	c7 86 dc 01 00
	00 20 a1 07 00	 mov	 DWORD PTR [esi+476], 500000 ; 0007a120H

; 1101 : 				break;

  003c7	eb 16		 jmp	 SHORT $LN7@OnProcessR
$LN5@OnProcessR:

; 1095 : 				break;
; 1096 : 			case 1:
; 1097 : 				m_iRandBonus = 700000;

  003c9	c7 86 dc 01 00
	00 60 ae 0a 00	 mov	 DWORD PTR [esi+476], 700000 ; 000aae60H

; 1098 : 				break;

  003d3	eb 0a		 jmp	 SHORT $LN7@OnProcessR
$LN6@OnProcessR:

; 1092 : 			{
; 1093 : 			case 0:
; 1094 : 				m_iRandBonus = 1000000;         //FLOAT1000페소

  003d5	c7 86 dc 01 00
	00 40 42 0f 00	 mov	 DWORD PTR [esi+476], 1000000 ; 000f4240H
$LN7@OnProcessR:

; 1111 : 			}
; 1112 : 		}
; 1113 : 	}
; 1114 : }

  003df	e8 00 00 00 00	 call	 __EH_epilog3
  003e4	c3		 ret	 0
_TEXT	ENDS
;	COMDAT text$x
text$x	SEGMENT
__unwindfunclet$?OnProcessRand@EventChanceRollingWnd@@IAEXXZ$0:
  00000	8d 4d bc	 lea	 ecx, DWORD PTR _kPrinter$515803[ebp]
  00003	e9 00 00 00 00	 jmp	 ??1ioComplexStringPrinter@@QAE@XZ ; ioComplexStringPrinter::~ioComplexStringPrinter
__unwindfunclet$?OnProcessRand@EventChanceRollingWnd@@IAEXXZ$1:
  00008	8d 4d dc	 lea	 ecx, DWORD PTR $T527475[ebp]
  0000b	ff 25 00 00 00
	00		 jmp	 DWORD PTR __imp_??1ioHashString@@QAE@XZ
__unwindfunclet$?OnProcessRand@EventChanceRollingWnd@@IAEXXZ$2:
  00011	8d 4d dc	 lea	 ecx, DWORD PTR _vClassType$515813[ebp]
  00014	e9 00 00 00 00	 jmp	 ??1?$vector@HV?$allocator@H@std@@@std@@QAE@XZ ; std::vector<int,std::allocator<int> >::~vector<int,std::allocator<int> >
__ehhandler$?OnProcessRand@EventChanceRollingWnd@@IAEXXZ:
  00019	8b 54 24 08	 mov	 edx, DWORD PTR [esp+8]
  0001d	8d 42 0c	 lea	 eax, DWORD PTR [edx+12]
  00020	8b 4a b8	 mov	 ecx, DWORD PTR [edx-72]
  00023	33 c8		 xor	 ecx, eax
  00025	e8 00 00 00 00	 call	 @__security_check_cookie@4
  0002a	b8 00 00 00 00	 mov	 eax, OFFSET __ehfuncinfo$?OnProcessRand@EventChanceRollingWnd@@IAEXXZ
  0002f	e9 00 00 00 00	 jmp	 ___CxxFrameHandler3
text$x	ENDS
?OnProcessRand@EventChanceRollingWnd@@IAEXXZ ENDP	; EventChanceRollingWnd::OnProcessRand
; Function compile flags: /Ogsp
;	COMDAT ?OnProcess@EventChanceRollingWnd@@MAEXM@Z
_TEXT	SEGMENT
_fTimePerSec$ = 8					; size = 4
?OnProcess@EventChanceRollingWnd@@MAEXM@Z PROC		; EventChanceRollingWnd::OnProcess, COMDAT
; _this$ = ecx

; 1117 : {

  00000	55		 push	 ebp
  00001	8b ec		 mov	 ebp, esp
  00003	56		 push	 esi
  00004	8b f1		 mov	 esi, ecx

; 1118 : 	if( !IsShow() )

  00006	ff 15 00 00 00
	00		 call	 DWORD PTR __imp_?IsShow@ioWnd@@QBE_NXZ
  0000c	84 c0		 test	 al, al
  0000e	75 12		 jne	 SHORT $LN2@OnProcess@5

; 1119 : 	{
; 1120 : 		if( sg_bShow )

  00010	38 05 00 00 00
	00		 cmp	 BYTE PTR ?sg_bShow@EventChanceRollingWnd@@1_NA, al ; EventChanceRollingWnd::sg_bShow
  00016	74 24		 je	 SHORT $LN3@OnProcess@5

; 1121 : 			ShowWnd();

  00018	8b ce		 mov	 ecx, esi
  0001a	ff 15 00 00 00
	00		 call	 DWORD PTR __imp_?ShowWnd@ioWnd@@QAEXXZ

; 1122 : 		return;

  00020	eb 1a		 jmp	 SHORT $LN3@OnProcess@5
$LN2@OnProcess@5:

; 1123 : 	}
; 1124 : 
; 1125 : 	OnProcessRand();

  00022	8b ce		 mov	 ecx, esi
  00024	e8 00 00 00 00	 call	 ?OnProcessRand@EventChanceRollingWnd@@IAEXXZ ; EventChanceRollingWnd::OnProcessRand

; 1126 : 	ioMovingWnd::OnProcess( fTimePerSec );

  00029	f3 0f 10 45 08	 movss	 xmm0, DWORD PTR _fTimePerSec$[ebp]
  0002e	51		 push	 ecx
  0002f	8b ce		 mov	 ecx, esi
  00031	f3 0f 11 04 24	 movss	 DWORD PTR [esp], xmm0
  00036	ff 15 00 00 00
	00		 call	 DWORD PTR __imp_?OnProcess@ioWnd@@MAEXM@Z
$LN3@OnProcess@5:
  0003c	5e		 pop	 esi

; 1127 : }

  0003d	5d		 pop	 ebp
  0003e	c2 04 00	 ret	 4
?OnProcess@EventChanceRollingWnd@@MAEXM@Z ENDP		; EventChanceRollingWnd::OnProcess
; Function compile flags: /Ogsp
_TEXT	ENDS
;	COMDAT ??_GOneDayGoldItemEventWnd@@UAEPAXI@Z
_TEXT	SEGMENT
___flags$ = 8						; size = 4
??_GOneDayGoldItemEventWnd@@UAEPAXI@Z PROC		; OneDayGoldItemEventWnd::`scalar deleting destructor', COMDAT
; _this$ = ecx
  00000	55		 push	 ebp
  00001	8b ec		 mov	 ebp, esp
  00003	56		 push	 esi
  00004	8b f1		 mov	 esi, ecx
  00006	e8 00 00 00 00	 call	 ??1OneDayGoldItemEventWnd@@UAE@XZ ; OneDayGoldItemEventWnd::~OneDayGoldItemEventWnd
  0000b	f6 45 08 01	 test	 BYTE PTR ___flags$[ebp], 1
  0000f	74 07		 je	 SHORT $LN1@scalar@8
  00011	56		 push	 esi
  00012	e8 00 00 00 00	 call	 ??3@YAXPAX@Z		; operator delete
  00017	59		 pop	 ecx
$LN1@scalar@8:
  00018	8b c6		 mov	 eax, esi
  0001a	5e		 pop	 esi
  0001b	5d		 pop	 ebp
  0001c	c2 04 00	 ret	 4
??_GOneDayGoldItemEventWnd@@UAEPAXI@Z ENDP		; OneDayGoldItemEventWnd::`scalar deleting destructor'
_TEXT	ENDS
PUBLIC	??_C@_0BL@LPGCMOLA@UIIconPack8?$CDgoods_slotplus?$AA@ ; `string'
PUBLIC	??_C@_0CB@ICFDBPDL@UIIconPack6?$CDgoods_friendlistplus@ ; `string'
PUBLIC	??_C@_0CC@MLOPNFLD@UIIconPack9?$CDgoods_guildnamechang@ ; `string'
PUBLIC	??_C@_0CC@NHOLCHOJ@UIIconPack6?$CDgoods_guildmarkchang@ ; `string'
PUBLIC	??_C@_0BO@NODECBDF@UIIconPack6?$CDgoods_guildcreate?$AA@ ; `string'
PUBLIC	??_C@_0BN@KNLJMLLG@UIIconPack6?$CDgoods_namechange?$AA@ ; `string'
PUBLIC	??_C@_0BM@HPNELHJH@UIIconPack8?$CDgoods_peso40pro?$AA@ ; `string'
PUBLIC	??_C@_0BM@IFCIIPAC@UIIconPack8?$CDgoods_exp100pro?$AA@ ; `string'
PUBLIC	??_C@_0BP@GCLHCPCD@UIIconPack8?$CDgoods_growrecovery?$AA@ ; `string'
PUBLIC	??_C@_0BP@DNOJFMEP@UIIconPack9?$CDgoods_fishing_rod2?$AA@ ; `string'
PUBLIC	??_C@_0CA@DBLFHEHJ@UIIconPack9?$CDgoods_fishing_bait2?$AA@ ; `string'
PUBLIC	??_C@_0BH@DFEIFNNP@UIIconPack6?$CDgoods_yell?$AA@ ; `string'
PUBLIC	?SetRollingState@OneDayGoldItemEventWnd@@QAEXXZ	; OneDayGoldItemEventWnd::SetRollingState
;	COMDAT ??_C@_0BL@LPGCMOLA@UIIconPack8?$CDgoods_slotplus?$AA@
; File c:\program files (x86)\microsoft visual studio 10.0\vc\include\vector
CONST	SEGMENT
??_C@_0BL@LPGCMOLA@UIIconPack8?$CDgoods_slotplus?$AA@ DB 'UIIconPack8#goo'
	DB	'ds_slotplus', 00H				; `string'
CONST	ENDS
;	COMDAT ??_C@_0CB@ICFDBPDL@UIIconPack6?$CDgoods_friendlistplus@
CONST	SEGMENT
??_C@_0CB@ICFDBPDL@UIIconPack6?$CDgoods_friendlistplus@ DB 'UIIconPack6#g'
	DB	'oods_friendlistplus', 00H			; `string'
CONST	ENDS
;	COMDAT ??_C@_0CC@MLOPNFLD@UIIconPack9?$CDgoods_guildnamechang@
CONST	SEGMENT
??_C@_0CC@MLOPNFLD@UIIconPack9?$CDgoods_guildnamechang@ DB 'UIIconPack9#g'
	DB	'oods_guildnamechange', 00H			; `string'
CONST	ENDS
;	COMDAT ??_C@_0CC@NHOLCHOJ@UIIconPack6?$CDgoods_guildmarkchang@
CONST	SEGMENT
??_C@_0CC@NHOLCHOJ@UIIconPack6?$CDgoods_guildmarkchang@ DB 'UIIconPack6#g'
	DB	'oods_guildmarkchange', 00H			; `string'
CONST	ENDS
;	COMDAT ??_C@_0BO@NODECBDF@UIIconPack6?$CDgoods_guildcreate?$AA@
CONST	SEGMENT
??_C@_0BO@NODECBDF@UIIconPack6?$CDgoods_guildcreate?$AA@ DB 'UIIconPack6#'
	DB	'goods_guildcreate', 00H			; `string'
CONST	ENDS
;	COMDAT ??_C@_0BN@KNLJMLLG@UIIconPack6?$CDgoods_namechange?$AA@
CONST	SEGMENT
??_C@_0BN@KNLJMLLG@UIIconPack6?$CDgoods_namechange?$AA@ DB 'UIIconPack6#g'
	DB	'oods_namechange', 00H			; `string'
CONST	ENDS
;	COMDAT ??_C@_0BM@HPNELHJH@UIIconPack8?$CDgoods_peso40pro?$AA@
CONST	SEGMENT
??_C@_0BM@HPNELHJH@UIIconPack8?$CDgoods_peso40pro?$AA@ DB 'UIIconPack8#go'
	DB	'ods_peso40pro', 00H				; `string'
CONST	ENDS
;	COMDAT ??_C@_0BM@IFCIIPAC@UIIconPack8?$CDgoods_exp100pro?$AA@
CONST	SEGMENT
??_C@_0BM@IFCIIPAC@UIIconPack8?$CDgoods_exp100pro?$AA@ DB 'UIIconPack8#go'
	DB	'ods_exp100pro', 00H				; `string'
CONST	ENDS
;	COMDAT ??_C@_0BP@GCLHCPCD@UIIconPack8?$CDgoods_growrecovery?$AA@
CONST	SEGMENT
??_C@_0BP@GCLHCPCD@UIIconPack8?$CDgoods_growrecovery?$AA@ DB 'UIIconPack8'
	DB	'#goods_growrecovery', 00H			; `string'
CONST	ENDS
;	COMDAT ??_C@_0BP@DNOJFMEP@UIIconPack9?$CDgoods_fishing_rod2?$AA@
CONST	SEGMENT
??_C@_0BP@DNOJFMEP@UIIconPack9?$CDgoods_fishing_rod2?$AA@ DB 'UIIconPack9'
	DB	'#goods_fishing_rod2', 00H			; `string'
CONST	ENDS
;	COMDAT ??_C@_0CA@DBLFHEHJ@UIIconPack9?$CDgoods_fishing_bait2?$AA@
CONST	SEGMENT
??_C@_0CA@DBLFHEHJ@UIIconPack9?$CDgoods_fishing_bait2?$AA@ DB 'UIIconPack'
	DB	'9#goods_fishing_bait2', 00H			; `string'
CONST	ENDS
;	COMDAT ??_C@_0BH@DFEIFNNP@UIIconPack6?$CDgoods_yell?$AA@
CONST	SEGMENT
??_C@_0BH@DFEIFNNP@UIIconPack6?$CDgoods_yell?$AA@ DB 'UIIconPack6#goods_y'
	DB	'ell', 00H					; `string'
CONST	ENDS
;	COMDAT xdata$x
xdata$x	SEGMENT
__ehfuncinfo$?SetRollingState@OneDayGoldItemEventWnd@@QAEXXZ DD 019930522H
	DD	0cH
	DD	FLAT:__unwindtable$?SetRollingState@OneDayGoldItemEventWnd@@QAEXXZ
	DD	2 DUP(00H)
	DD	2 DUP(00H)
	DD	00H
	DD	01H
__unwindtable$?SetRollingState@OneDayGoldItemEventWnd@@QAEXXZ DD 0ffffffffH
	DD	FLAT:__unwindfunclet$?SetRollingState@OneDayGoldItemEventWnd@@QAEXXZ$0
	DD	0ffffffffH
	DD	FLAT:__unwindfunclet$?SetRollingState@OneDayGoldItemEventWnd@@QAEXXZ$1
	DD	0ffffffffH
	DD	FLAT:__unwindfunclet$?SetRollingState@OneDayGoldItemEventWnd@@QAEXXZ$2
	DD	0ffffffffH
	DD	FLAT:__unwindfunclet$?SetRollingState@OneDayGoldItemEventWnd@@QAEXXZ$3
	DD	0ffffffffH
	DD	FLAT:__unwindfunclet$?SetRollingState@OneDayGoldItemEventWnd@@QAEXXZ$4
	DD	0ffffffffH
	DD	FLAT:__unwindfunclet$?SetRollingState@OneDayGoldItemEventWnd@@QAEXXZ$5
	DD	0ffffffffH
	DD	FLAT:__unwindfunclet$?SetRollingState@OneDayGoldItemEventWnd@@QAEXXZ$6
	DD	0ffffffffH
	DD	FLAT:__unwindfunclet$?SetRollingState@OneDayGoldItemEventWnd@@QAEXXZ$7
	DD	0ffffffffH
	DD	FLAT:__unwindfunclet$?SetRollingState@OneDayGoldItemEventWnd@@QAEXXZ$8
	DD	0ffffffffH
	DD	FLAT:__unwindfunclet$?SetRollingState@OneDayGoldItemEventWnd@@QAEXXZ$9
	DD	0ffffffffH
	DD	FLAT:__unwindfunclet$?SetRollingState@OneDayGoldItemEventWnd@@QAEXXZ$10
	DD	0ffffffffH
	DD	FLAT:__unwindfunclet$?SetRollingState@OneDayGoldItemEventWnd@@QAEXXZ$11
; Function compile flags: /Ogsp
; File d:\lost saga for developer\youtube\tutorial\source\src\lsclient\gui\eventcatalogwnd.cpp
xdata$x	ENDS
;	COMDAT ?SetRollingState@OneDayGoldItemEventWnd@@QAEXXZ
_TEXT	SEGMENT
$T527664 = -52						; size = 16
$T527662 = -36						; size = 16
$T527660 = -36						; size = 16
$T527658 = -36						; size = 16
$T527656 = -36						; size = 16
$T527654 = -36						; size = 16
$T527652 = -36						; size = 16
$T527650 = -36						; size = 16
$T527648 = -36						; size = 16
$T527646 = -36						; size = 16
$T527644 = -36						; size = 16
$T527642 = -36						; size = 16
$T527663 = -20						; size = 4
$T527661 = -20						; size = 4
$T527659 = -20						; size = 4
$T527657 = -20						; size = 4
$T527655 = -20						; size = 4
$T527653 = -20						; size = 4
$T527651 = -20						; size = 4
$T527649 = -20						; size = 4
$T527647 = -20						; size = 4
$T527645 = -20						; size = 4
$T527643 = -20						; size = 4
$T527641 = -20						; size = 4
_this$ = -16						; size = 4
__$EHRec$ = -12						; size = 12
?SetRollingState@OneDayGoldItemEventWnd@@QAEXXZ PROC	; OneDayGoldItemEventWnd::SetRollingState, COMDAT
; _this$ = ecx

; 1432 : {

  00000	6a 28		 push	 40			; 00000028H
  00002	b8 00 00 00 00	 mov	 eax, __ehhandler$?SetRollingState@OneDayGoldItemEventWnd@@QAEXXZ
  00007	e8 00 00 00 00	 call	 __EH_prolog3
  0000c	8b f1		 mov	 esi, ecx
  0000e	89 75 f0	 mov	 DWORD PTR _this$[ebp], esi

; 1433 : 	HideWnd();

  00011	ff 15 00 00 00
	00		 call	 DWORD PTR __imp_?HideWnd@ioWnd@@QAEXXZ

; 1434 : 	m_dwState = STATE_ROLLING;

  00017	c7 86 60 01 00
	00 02 00 00 00	 mov	 DWORD PTR [esi+352], 2

; 1435 : 
; 1436 : 	// ICON Setting
; 1437 : 	m_vRollingIconList.push_back( g_UIImageSetMgr.CreateImageByFullName( "UIIconPack6#goods_yell" ) );				// 확성기

  00021	8b 35 00 00 00
	00		 mov	 esi, DWORD PTR __imp_??0ioHashString@@QAE@PBD@Z
  00027	68 00 00 00 00	 push	 OFFSET ??_C@_0BH@DFEIFNNP@UIIconPack6?$CDgoods_yell?$AA@
  0002c	8d 4d dc	 lea	 ecx, DWORD PTR $T527642[ebp]
  0002f	ff d6		 call	 esi
  00031	8b 3d 00 00 00
	00		 mov	 edi, DWORD PTR __imp_?GetSingleton@ioUIImageSetManager@@SAAAV1@XZ
  00037	83 65 fc 00	 and	 DWORD PTR __$EHRec$[ebp+8], 0
  0003b	8d 45 dc	 lea	 eax, DWORD PTR $T527642[ebp]
  0003e	6a 00		 push	 0
  00040	50		 push	 eax
  00041	ff d7		 call	 edi
  00043	8b 1d 00 00 00
	00		 mov	 ebx, DWORD PTR __imp_?CreateImageByFullName@ioUIImageSetManager@@QAEPAVioUIRenderImage@@ABVioHashString@@_N@Z
  00049	8b c8		 mov	 ecx, eax
  0004b	ff d3		 call	 ebx
  0004d	8b 4d f0	 mov	 ecx, DWORD PTR _this$[ebp]
  00050	89 45 ec	 mov	 DWORD PTR $T527641[ebp], eax
  00053	8d 45 ec	 lea	 eax, DWORD PTR $T527641[ebp]
  00056	81 c1 d8 01 00
	00		 add	 ecx, 472		; 000001d8H
  0005c	50		 push	 eax
  0005d	e8 00 00 00 00	 call	 ?push_back@?$vector@PAVioUIRenderImage@@V?$allocator@PAVioUIRenderImage@@@std@@@std@@QAEX$$QAPAVioUIRenderImage@@@Z ; std::vector<ioUIRenderImage *,std::allocator<ioUIRenderImage *> >::push_back
  00062	83 4d fc ff	 or	 DWORD PTR __$EHRec$[ebp+8], -1
  00066	8d 4d dc	 lea	 ecx, DWORD PTR $T527642[ebp]
  00069	ff 15 00 00 00
	00		 call	 DWORD PTR __imp_??1ioHashString@@QAE@XZ

; 1438 : 	m_vRollingIconList.push_back( g_UIImageSetMgr.CreateImageByFullName( "UIIconPack9#goods_fishing_bait2" ) );     // 달빛시공미끼

  0006f	68 00 00 00 00	 push	 OFFSET ??_C@_0CA@DBLFHEHJ@UIIconPack9?$CDgoods_fishing_bait2?$AA@
  00074	8d 4d dc	 lea	 ecx, DWORD PTR $T527644[ebp]
  00077	ff d6		 call	 esi
  00079	8d 45 dc	 lea	 eax, DWORD PTR $T527644[ebp]
  0007c	6a 00		 push	 0
  0007e	50		 push	 eax
  0007f	c7 45 fc 01 00
	00 00		 mov	 DWORD PTR __$EHRec$[ebp+8], 1
  00086	ff d7		 call	 edi
  00088	8b c8		 mov	 ecx, eax
  0008a	ff d3		 call	 ebx
  0008c	8b 4d f0	 mov	 ecx, DWORD PTR _this$[ebp]
  0008f	89 45 ec	 mov	 DWORD PTR $T527643[ebp], eax
  00092	8d 45 ec	 lea	 eax, DWORD PTR $T527643[ebp]
  00095	50		 push	 eax
  00096	81 c1 d8 01 00
	00		 add	 ecx, 472		; 000001d8H
  0009c	e8 00 00 00 00	 call	 ?push_back@?$vector@PAVioUIRenderImage@@V?$allocator@PAVioUIRenderImage@@@std@@@std@@QAEX$$QAPAVioUIRenderImage@@@Z ; std::vector<ioUIRenderImage *,std::allocator<ioUIRenderImage *> >::push_back
  000a1	83 4d fc ff	 or	 DWORD PTR __$EHRec$[ebp+8], -1
  000a5	8d 4d dc	 lea	 ecx, DWORD PTR $T527644[ebp]
  000a8	ff 15 00 00 00
	00		 call	 DWORD PTR __imp_??1ioHashString@@QAE@XZ

; 1439 : 	m_vRollingIconList.push_back( g_UIImageSetMgr.CreateImageByFullName( "UIIconPack9#goods_fishing_rod2" ) );      // 달빛시공낚싯대

  000ae	68 00 00 00 00	 push	 OFFSET ??_C@_0BP@DNOJFMEP@UIIconPack9?$CDgoods_fishing_rod2?$AA@
  000b3	8d 4d dc	 lea	 ecx, DWORD PTR $T527646[ebp]
  000b6	ff d6		 call	 esi
  000b8	8d 45 dc	 lea	 eax, DWORD PTR $T527646[ebp]
  000bb	6a 00		 push	 0
  000bd	50		 push	 eax
  000be	c7 45 fc 02 00
	00 00		 mov	 DWORD PTR __$EHRec$[ebp+8], 2
  000c5	ff d7		 call	 edi
  000c7	8b c8		 mov	 ecx, eax
  000c9	ff d3		 call	 ebx
  000cb	8b 4d f0	 mov	 ecx, DWORD PTR _this$[ebp]
  000ce	89 45 ec	 mov	 DWORD PTR $T527645[ebp], eax
  000d1	8d 45 ec	 lea	 eax, DWORD PTR $T527645[ebp]
  000d4	50		 push	 eax
  000d5	81 c1 d8 01 00
	00		 add	 ecx, 472		; 000001d8H
  000db	e8 00 00 00 00	 call	 ?push_back@?$vector@PAVioUIRenderImage@@V?$allocator@PAVioUIRenderImage@@@std@@@std@@QAEX$$QAPAVioUIRenderImage@@@Z ; std::vector<ioUIRenderImage *,std::allocator<ioUIRenderImage *> >::push_back
  000e0	83 4d fc ff	 or	 DWORD PTR __$EHRec$[ebp+8], -1
  000e4	8d 4d dc	 lea	 ecx, DWORD PTR $T527646[ebp]
  000e7	ff 15 00 00 00
	00		 call	 DWORD PTR __imp_??1ioHashString@@QAE@XZ

; 1440 : 	m_vRollingIconList.push_back( g_UIImageSetMgr.CreateImageByFullName( "UIIconPack8#goods_growrecovery" ) );      // 강화복구권

  000ed	68 00 00 00 00	 push	 OFFSET ??_C@_0BP@GCLHCPCD@UIIconPack8?$CDgoods_growrecovery?$AA@
  000f2	8d 4d dc	 lea	 ecx, DWORD PTR $T527648[ebp]
  000f5	ff d6		 call	 esi
  000f7	8d 45 dc	 lea	 eax, DWORD PTR $T527648[ebp]
  000fa	6a 00		 push	 0
  000fc	50		 push	 eax
  000fd	c7 45 fc 03 00
	00 00		 mov	 DWORD PTR __$EHRec$[ebp+8], 3
  00104	ff d7		 call	 edi
  00106	8b c8		 mov	 ecx, eax
  00108	ff d3		 call	 ebx
  0010a	8b 4d f0	 mov	 ecx, DWORD PTR _this$[ebp]
  0010d	89 45 ec	 mov	 DWORD PTR $T527647[ebp], eax
  00110	8d 45 ec	 lea	 eax, DWORD PTR $T527647[ebp]
  00113	50		 push	 eax
  00114	81 c1 d8 01 00
	00		 add	 ecx, 472		; 000001d8H
  0011a	e8 00 00 00 00	 call	 ?push_back@?$vector@PAVioUIRenderImage@@V?$allocator@PAVioUIRenderImage@@@std@@@std@@QAEX$$QAPAVioUIRenderImage@@@Z ; std::vector<ioUIRenderImage *,std::allocator<ioUIRenderImage *> >::push_back
  0011f	83 4d fc ff	 or	 DWORD PTR __$EHRec$[ebp+8], -1
  00123	8d 4d dc	 lea	 ecx, DWORD PTR $T527648[ebp]
  00126	ff 15 00 00 00
	00		 call	 DWORD PTR __imp_??1ioHashString@@QAE@XZ

; 1441 : 	m_vRollingIconList.push_back( g_UIImageSetMgr.CreateImageByFullName( "UIIconPack8#goods_exp100pro" ) );			// 경험치 100%

  0012c	68 00 00 00 00	 push	 OFFSET ??_C@_0BM@IFCIIPAC@UIIconPack8?$CDgoods_exp100pro?$AA@
  00131	8d 4d dc	 lea	 ecx, DWORD PTR $T527650[ebp]
  00134	ff d6		 call	 esi
  00136	8d 45 dc	 lea	 eax, DWORD PTR $T527650[ebp]
  00139	6a 00		 push	 0
  0013b	50		 push	 eax
  0013c	c7 45 fc 04 00
	00 00		 mov	 DWORD PTR __$EHRec$[ebp+8], 4
  00143	ff d7		 call	 edi
  00145	8b c8		 mov	 ecx, eax
  00147	ff d3		 call	 ebx
  00149	8b 4d f0	 mov	 ecx, DWORD PTR _this$[ebp]
  0014c	89 45 ec	 mov	 DWORD PTR $T527649[ebp], eax
  0014f	8d 45 ec	 lea	 eax, DWORD PTR $T527649[ebp]
  00152	50		 push	 eax
  00153	81 c1 d8 01 00
	00		 add	 ecx, 472		; 000001d8H
  00159	e8 00 00 00 00	 call	 ?push_back@?$vector@PAVioUIRenderImage@@V?$allocator@PAVioUIRenderImage@@@std@@@std@@QAEX$$QAPAVioUIRenderImage@@@Z ; std::vector<ioUIRenderImage *,std::allocator<ioUIRenderImage *> >::push_back
  0015e	83 4d fc ff	 or	 DWORD PTR __$EHRec$[ebp+8], -1
  00162	8d 4d dc	 lea	 ecx, DWORD PTR $T527650[ebp]
  00165	ff 15 00 00 00
	00		 call	 DWORD PTR __imp_??1ioHashString@@QAE@XZ

; 1442 : 	m_vRollingIconList.push_back( g_UIImageSetMgr.CreateImageByFullName( "UIIconPack8#goods_peso40pro" ) );			// 페소+40%

  0016b	68 00 00 00 00	 push	 OFFSET ??_C@_0BM@HPNELHJH@UIIconPack8?$CDgoods_peso40pro?$AA@
  00170	8d 4d dc	 lea	 ecx, DWORD PTR $T527652[ebp]
  00173	ff d6		 call	 esi
  00175	8d 45 dc	 lea	 eax, DWORD PTR $T527652[ebp]
  00178	6a 00		 push	 0
  0017a	50		 push	 eax
  0017b	c7 45 fc 05 00
	00 00		 mov	 DWORD PTR __$EHRec$[ebp+8], 5
  00182	ff d7		 call	 edi
  00184	8b c8		 mov	 ecx, eax
  00186	ff d3		 call	 ebx
  00188	8b 4d f0	 mov	 ecx, DWORD PTR _this$[ebp]
  0018b	89 45 ec	 mov	 DWORD PTR $T527651[ebp], eax
  0018e	8d 45 ec	 lea	 eax, DWORD PTR $T527651[ebp]
  00191	50		 push	 eax
  00192	81 c1 d8 01 00
	00		 add	 ecx, 472		; 000001d8H
  00198	e8 00 00 00 00	 call	 ?push_back@?$vector@PAVioUIRenderImage@@V?$allocator@PAVioUIRenderImage@@@std@@@std@@QAEX$$QAPAVioUIRenderImage@@@Z ; std::vector<ioUIRenderImage *,std::allocator<ioUIRenderImage *> >::push_back
  0019d	83 4d fc ff	 or	 DWORD PTR __$EHRec$[ebp+8], -1
  001a1	8d 4d dc	 lea	 ecx, DWORD PTR $T527652[ebp]
  001a4	ff 15 00 00 00
	00		 call	 DWORD PTR __imp_??1ioHashString@@QAE@XZ

; 1443 : 	m_vRollingIconList.push_back( g_UIImageSetMgr.CreateImageByFullName( "UIIconPack6#goods_namechange" ) );		// 프리미엄 닉네임

  001aa	68 00 00 00 00	 push	 OFFSET ??_C@_0BN@KNLJMLLG@UIIconPack6?$CDgoods_namechange?$AA@
  001af	8d 4d dc	 lea	 ecx, DWORD PTR $T527654[ebp]
  001b2	ff d6		 call	 esi
  001b4	8d 45 dc	 lea	 eax, DWORD PTR $T527654[ebp]
  001b7	6a 00		 push	 0
  001b9	50		 push	 eax
  001ba	c7 45 fc 06 00
	00 00		 mov	 DWORD PTR __$EHRec$[ebp+8], 6
  001c1	ff d7		 call	 edi
  001c3	8b c8		 mov	 ecx, eax
  001c5	ff d3		 call	 ebx
  001c7	8b 4d f0	 mov	 ecx, DWORD PTR _this$[ebp]
  001ca	89 45 ec	 mov	 DWORD PTR $T527653[ebp], eax
  001cd	8d 45 ec	 lea	 eax, DWORD PTR $T527653[ebp]
  001d0	50		 push	 eax
  001d1	81 c1 d8 01 00
	00		 add	 ecx, 472		; 000001d8H
  001d7	e8 00 00 00 00	 call	 ?push_back@?$vector@PAVioUIRenderImage@@V?$allocator@PAVioUIRenderImage@@@std@@@std@@QAEX$$QAPAVioUIRenderImage@@@Z ; std::vector<ioUIRenderImage *,std::allocator<ioUIRenderImage *> >::push_back
  001dc	83 4d fc ff	 or	 DWORD PTR __$EHRec$[ebp+8], -1
  001e0	8d 4d dc	 lea	 ecx, DWORD PTR $T527654[ebp]
  001e3	ff 15 00 00 00
	00		 call	 DWORD PTR __imp_??1ioHashString@@QAE@XZ

; 1444 : 	m_vRollingIconList.push_back( g_UIImageSetMgr.CreateImageByFullName( "UIIconPack6#goods_guildcreate" ) );		// 길드생성권

  001e9	68 00 00 00 00	 push	 OFFSET ??_C@_0BO@NODECBDF@UIIconPack6?$CDgoods_guildcreate?$AA@
  001ee	8d 4d dc	 lea	 ecx, DWORD PTR $T527656[ebp]
  001f1	ff d6		 call	 esi
  001f3	8d 45 dc	 lea	 eax, DWORD PTR $T527656[ebp]
  001f6	6a 00		 push	 0
  001f8	50		 push	 eax
  001f9	c7 45 fc 07 00
	00 00		 mov	 DWORD PTR __$EHRec$[ebp+8], 7
  00200	ff d7		 call	 edi
  00202	8b c8		 mov	 ecx, eax
  00204	ff d3		 call	 ebx
  00206	8b 4d f0	 mov	 ecx, DWORD PTR _this$[ebp]
  00209	89 45 ec	 mov	 DWORD PTR $T527655[ebp], eax
  0020c	8d 45 ec	 lea	 eax, DWORD PTR $T527655[ebp]
  0020f	50		 push	 eax
  00210	81 c1 d8 01 00
	00		 add	 ecx, 472		; 000001d8H
  00216	e8 00 00 00 00	 call	 ?push_back@?$vector@PAVioUIRenderImage@@V?$allocator@PAVioUIRenderImage@@@std@@@std@@QAEX$$QAPAVioUIRenderImage@@@Z ; std::vector<ioUIRenderImage *,std::allocator<ioUIRenderImage *> >::push_back
  0021b	83 4d fc ff	 or	 DWORD PTR __$EHRec$[ebp+8], -1
  0021f	8d 4d dc	 lea	 ecx, DWORD PTR $T527656[ebp]
  00222	ff 15 00 00 00
	00		 call	 DWORD PTR __imp_??1ioHashString@@QAE@XZ

; 1445 : 	m_vRollingIconList.push_back( g_UIImageSetMgr.CreateImageByFullName( "UIIconPack6#goods_guildmarkchange" ) );   // 길드마크변경권

  00228	68 00 00 00 00	 push	 OFFSET ??_C@_0CC@NHOLCHOJ@UIIconPack6?$CDgoods_guildmarkchang@
  0022d	8d 4d dc	 lea	 ecx, DWORD PTR $T527658[ebp]
  00230	ff d6		 call	 esi
  00232	8d 45 dc	 lea	 eax, DWORD PTR $T527658[ebp]
  00235	6a 00		 push	 0
  00237	50		 push	 eax
  00238	c7 45 fc 08 00
	00 00		 mov	 DWORD PTR __$EHRec$[ebp+8], 8
  0023f	ff d7		 call	 edi
  00241	8b c8		 mov	 ecx, eax
  00243	ff d3		 call	 ebx
  00245	8b 4d f0	 mov	 ecx, DWORD PTR _this$[ebp]
  00248	89 45 ec	 mov	 DWORD PTR $T527657[ebp], eax
  0024b	8d 45 ec	 lea	 eax, DWORD PTR $T527657[ebp]
  0024e	50		 push	 eax
  0024f	81 c1 d8 01 00
	00		 add	 ecx, 472		; 000001d8H
  00255	e8 00 00 00 00	 call	 ?push_back@?$vector@PAVioUIRenderImage@@V?$allocator@PAVioUIRenderImage@@@std@@@std@@QAEX$$QAPAVioUIRenderImage@@@Z ; std::vector<ioUIRenderImage *,std::allocator<ioUIRenderImage *> >::push_back
  0025a	83 4d fc ff	 or	 DWORD PTR __$EHRec$[ebp+8], -1
  0025e	8d 4d dc	 lea	 ecx, DWORD PTR $T527658[ebp]
  00261	ff 15 00 00 00
	00		 call	 DWORD PTR __imp_??1ioHashString@@QAE@XZ

; 1446 : 	m_vRollingIconList.push_back( g_UIImageSetMgr.CreateImageByFullName( "UIIconPack9#goods_guildnamechange" ) );   // 프리미엄길드명

  00267	68 00 00 00 00	 push	 OFFSET ??_C@_0CC@MLOPNFLD@UIIconPack9?$CDgoods_guildnamechang@
  0026c	8d 4d dc	 lea	 ecx, DWORD PTR $T527660[ebp]
  0026f	ff d6		 call	 esi
  00271	8d 45 dc	 lea	 eax, DWORD PTR $T527660[ebp]
  00274	6a 00		 push	 0
  00276	50		 push	 eax
  00277	c7 45 fc 09 00
	00 00		 mov	 DWORD PTR __$EHRec$[ebp+8], 9
  0027e	ff d7		 call	 edi
  00280	8b c8		 mov	 ecx, eax
  00282	ff d3		 call	 ebx
  00284	8b 4d f0	 mov	 ecx, DWORD PTR _this$[ebp]
  00287	89 45 ec	 mov	 DWORD PTR $T527659[ebp], eax
  0028a	8d 45 ec	 lea	 eax, DWORD PTR $T527659[ebp]
  0028d	50		 push	 eax
  0028e	81 c1 d8 01 00
	00		 add	 ecx, 472		; 000001d8H
  00294	e8 00 00 00 00	 call	 ?push_back@?$vector@PAVioUIRenderImage@@V?$allocator@PAVioUIRenderImage@@@std@@@std@@QAEX$$QAPAVioUIRenderImage@@@Z ; std::vector<ioUIRenderImage *,std::allocator<ioUIRenderImage *> >::push_back
  00299	83 4d fc ff	 or	 DWORD PTR __$EHRec$[ebp+8], -1
  0029d	8d 4d dc	 lea	 ecx, DWORD PTR $T527660[ebp]
  002a0	ff 15 00 00 00
	00		 call	 DWORD PTR __imp_??1ioHashString@@QAE@XZ

; 1447 : 	m_vRollingIconList.push_back( g_UIImageSetMgr.CreateImageByFullName( "UIIconPack6#goods_friendlistplus" ) );    // 친구목록 확장

  002a6	68 00 00 00 00	 push	 OFFSET ??_C@_0CB@ICFDBPDL@UIIconPack6?$CDgoods_friendlistplus@
  002ab	8d 4d dc	 lea	 ecx, DWORD PTR $T527662[ebp]
  002ae	ff d6		 call	 esi
  002b0	8d 45 dc	 lea	 eax, DWORD PTR $T527662[ebp]
  002b3	6a 00		 push	 0
  002b5	50		 push	 eax
  002b6	c7 45 fc 0a 00
	00 00		 mov	 DWORD PTR __$EHRec$[ebp+8], 10 ; 0000000aH
  002bd	ff d7		 call	 edi
  002bf	8b c8		 mov	 ecx, eax
  002c1	ff d3		 call	 ebx
  002c3	8b 4d f0	 mov	 ecx, DWORD PTR _this$[ebp]
  002c6	89 45 ec	 mov	 DWORD PTR $T527661[ebp], eax
  002c9	8d 45 ec	 lea	 eax, DWORD PTR $T527661[ebp]
  002cc	50		 push	 eax
  002cd	81 c1 d8 01 00
	00		 add	 ecx, 472		; 000001d8H
  002d3	e8 00 00 00 00	 call	 ?push_back@?$vector@PAVioUIRenderImage@@V?$allocator@PAVioUIRenderImage@@@std@@@std@@QAEX$$QAPAVioUIRenderImage@@@Z ; std::vector<ioUIRenderImage *,std::allocator<ioUIRenderImage *> >::push_back
  002d8	83 4d fc ff	 or	 DWORD PTR __$EHRec$[ebp+8], -1
  002dc	8d 4d dc	 lea	 ecx, DWORD PTR $T527662[ebp]
  002df	ff 15 00 00 00
	00		 call	 DWORD PTR __imp_??1ioHashString@@QAE@XZ

; 1448 : 	m_vRollingIconList.push_back( g_UIImageSetMgr.CreateImageByFullName( "UIIconPack8#goods_slotplus" ) );			// 용병슬롯확장+6

  002e5	68 00 00 00 00	 push	 OFFSET ??_C@_0BL@LPGCMOLA@UIIconPack8?$CDgoods_slotplus?$AA@
  002ea	8d 4d cc	 lea	 ecx, DWORD PTR $T527664[ebp]
  002ed	ff d6		 call	 esi
  002ef	33 f6		 xor	 esi, esi
  002f1	8d 45 cc	 lea	 eax, DWORD PTR $T527664[ebp]
  002f4	56		 push	 esi
  002f5	50		 push	 eax
  002f6	c7 45 fc 0b 00
	00 00		 mov	 DWORD PTR __$EHRec$[ebp+8], 11 ; 0000000bH
  002fd	ff d7		 call	 edi
  002ff	8b c8		 mov	 ecx, eax
  00301	ff d3		 call	 ebx
  00303	8b 7d f0	 mov	 edi, DWORD PTR _this$[ebp]
  00306	89 45 ec	 mov	 DWORD PTR $T527663[ebp], eax
  00309	8d 45 ec	 lea	 eax, DWORD PTR $T527663[ebp]
  0030c	50		 push	 eax
  0030d	8d 8f d8 01 00
	00		 lea	 ecx, DWORD PTR [edi+472]
  00313	e8 00 00 00 00	 call	 ?push_back@?$vector@PAVioUIRenderImage@@V?$allocator@PAVioUIRenderImage@@@std@@@std@@QAEX$$QAPAVioUIRenderImage@@@Z ; std::vector<ioUIRenderImage *,std::allocator<ioUIRenderImage *> >::push_back
  00318	83 4d fc ff	 or	 DWORD PTR __$EHRec$[ebp+8], -1
  0031c	8d 4d cc	 lea	 ecx, DWORD PTR $T527664[ebp]
  0031f	ff 15 00 00 00
	00		 call	 DWORD PTR __imp_??1ioHashString@@QAE@XZ

; 1449 : 
; 1450 : 	m_pRollingIcon = m_vRollingIconList[0];

  00325	8b 87 d8 01 00
	00		 mov	 eax, DWORD PTR [edi+472]
  0032b	8b 00		 mov	 eax, DWORD PTR [eax]

; 1451 : 	m_iRollingIconArray = 0;
; 1452 : 	m_dwCurrentFullTime = FRAMEGETTIME();

  0032d	8b 1d 00 00 00
	00		 mov	 ebx, DWORD PTR __imp_?GetSingleton@ioFrameTimer@@SAAAV1@XZ
  00333	89 87 d4 01 00
	00		 mov	 DWORD PTR [edi+468], eax
  00339	89 b7 64 01 00
	00		 mov	 DWORD PTR [edi+356], esi
  0033f	ff d3		 call	 ebx
  00341	8b c8		 mov	 ecx, eax
  00343	ff 15 00 00 00
	00		 call	 DWORD PTR __imp_?GetLoopSec@ioFrameTimer@@QBEKXZ
  00349	89 87 68 01 00
	00		 mov	 DWORD PTR [edi+360], eax

; 1453 : 	m_dwCurrentTickTime = FRAMEGETTIME();

  0034f	ff d3		 call	 ebx
  00351	8b c8		 mov	 ecx, eax
  00353	ff 15 00 00 00
	00		 call	 DWORD PTR __imp_?GetLoopSec@ioFrameTimer@@QBEKXZ

; 1454 : 
; 1455 : 	if( !m_szRollingSound.IsEmpty() )

  00359	8d 9f 78 01 00
	00		 lea	 ebx, DWORD PTR [edi+376]
  0035f	8b cb		 mov	 ecx, ebx
  00361	89 87 70 01 00
	00		 mov	 DWORD PTR [edi+368], eax
  00367	ff 15 00 00 00
	00		 call	 DWORD PTR __imp_?IsEmpty@ioHashString@@QBE_NXZ
  0036d	84 c0		 test	 al, al
  0036f	75 12		 jne	 SHORT $LN1@SetRolling

; 1456 : 		g_SoundMgr.PlaySound( m_szRollingSound, DSBVOLUME_MAX, PSM_LOOP | PSM_THREAD );

  00371	6a 06		 push	 6
  00373	56		 push	 esi
  00374	53		 push	 ebx
  00375	ff 15 00 00 00
	00		 call	 DWORD PTR __imp_?GetSingleton@ioSoundManager@@SAAAV1@XZ
  0037b	8b c8		 mov	 ecx, eax
  0037d	ff 15 00 00 00
	00		 call	 DWORD PTR __imp_?PlaySoundA@ioSoundManager@@QAEKABVioHashString@@HK@Z
$LN1@SetRolling:

; 1457 : 	ShowWnd();

  00383	8b cf		 mov	 ecx, edi
  00385	ff 15 00 00 00
	00		 call	 DWORD PTR __imp_?ShowWnd@ioWnd@@QAEXXZ

; 1458 : }

  0038b	e8 00 00 00 00	 call	 __EH_epilog3
  00390	c3		 ret	 0
_TEXT	ENDS
;	COMDAT text$x
text$x	SEGMENT
__unwindfunclet$?SetRollingState@OneDayGoldItemEventWnd@@QAEXXZ$0:
  00000	8d 4d dc	 lea	 ecx, DWORD PTR $T527642[ebp]
  00003	ff 25 00 00 00
	00		 jmp	 DWORD PTR __imp_??1ioHashString@@QAE@XZ
__unwindfunclet$?SetRollingState@OneDayGoldItemEventWnd@@QAEXXZ$1:
  00009	8d 4d dc	 lea	 ecx, DWORD PTR $T527644[ebp]
  0000c	ff 25 00 00 00
	00		 jmp	 DWORD PTR __imp_??1ioHashString@@QAE@XZ
__unwindfunclet$?SetRollingState@OneDayGoldItemEventWnd@@QAEXXZ$2:
  00012	8d 4d dc	 lea	 ecx, DWORD PTR $T527646[ebp]
  00015	ff 25 00 00 00
	00		 jmp	 DWORD PTR __imp_??1ioHashString@@QAE@XZ
__unwindfunclet$?SetRollingState@OneDayGoldItemEventWnd@@QAEXXZ$3:
  0001b	8d 4d dc	 lea	 ecx, DWORD PTR $T527648[ebp]
  0001e	ff 25 00 00 00
	00		 jmp	 DWORD PTR __imp_??1ioHashString@@QAE@XZ
__unwindfunclet$?SetRollingState@OneDayGoldItemEventWnd@@QAEXXZ$4:
  00024	8d 4d dc	 lea	 ecx, DWORD PTR $T527650[ebp]
  00027	ff 25 00 00 00
	00		 jmp	 DWORD PTR __imp_??1ioHashString@@QAE@XZ
__unwindfunclet$?SetRollingState@OneDayGoldItemEventWnd@@QAEXXZ$5:
  0002d	8d 4d dc	 lea	 ecx, DWORD PTR $T527652[ebp]
  00030	ff 25 00 00 00
	00		 jmp	 DWORD PTR __imp_??1ioHashString@@QAE@XZ
__unwindfunclet$?SetRollingState@OneDayGoldItemEventWnd@@QAEXXZ$6:
  00036	8d 4d dc	 lea	 ecx, DWORD PTR $T527654[ebp]
  00039	ff 25 00 00 00
	00		 jmp	 DWORD PTR __imp_??1ioHashString@@QAE@XZ
__unwindfunclet$?SetRollingState@OneDayGoldItemEventWnd@@QAEXXZ$7:
  0003f	8d 4d dc	 lea	 ecx, DWORD PTR $T527656[ebp]
  00042	ff 25 00 00 00
	00		 jmp	 DWORD PTR __imp_??1ioHashString@@QAE@XZ
__unwindfunclet$?SetRollingState@OneDayGoldItemEventWnd@@QAEXXZ$8:
  00048	8d 4d dc	 lea	 ecx, DWORD PTR $T527658[ebp]
  0004b	ff 25 00 00 00
	00		 jmp	 DWORD PTR __imp_??1ioHashString@@QAE@XZ
__unwindfunclet$?SetRollingState@OneDayGoldItemEventWnd@@QAEXXZ$9:
  00051	8d 4d dc	 lea	 ecx, DWORD PTR $T527660[ebp]
  00054	ff 25 00 00 00
	00		 jmp	 DWORD PTR __imp_??1ioHashString@@QAE@XZ
__unwindfunclet$?SetRollingState@OneDayGoldItemEventWnd@@QAEXXZ$10:
  0005a	8d 4d dc	 lea	 ecx, DWORD PTR $T527662[ebp]
  0005d	ff 25 00 00 00
	00		 jmp	 DWORD PTR __imp_??1ioHashString@@QAE@XZ
__unwindfunclet$?SetRollingState@OneDayGoldItemEventWnd@@QAEXXZ$11:
  00063	8d 4d cc	 lea	 ecx, DWORD PTR $T527664[ebp]
  00066	ff 25 00 00 00
	00		 jmp	 DWORD PTR __imp_??1ioHashString@@QAE@XZ
__ehhandler$?SetRollingState@OneDayGoldItemEventWnd@@QAEXXZ:
  0006c	8b 54 24 08	 mov	 edx, DWORD PTR [esp+8]
  00070	8d 42 0c	 lea	 eax, DWORD PTR [edx+12]
  00073	8b 4a c8	 mov	 ecx, DWORD PTR [edx-56]
  00076	33 c8		 xor	 ecx, eax
  00078	e8 00 00 00 00	 call	 @__security_check_cookie@4
  0007d	b8 00 00 00 00	 mov	 eax, OFFSET __ehfuncinfo$?SetRollingState@OneDayGoldItemEventWnd@@QAEXXZ
  00082	e9 00 00 00 00	 jmp	 ___CxxFrameHandler3
text$x	ENDS
?SetRollingState@OneDayGoldItemEventWnd@@QAEXXZ ENDP	; OneDayGoldItemEventWnd::SetRollingState
PUBLIC	??_R0?AVMyInventoryWnd@@@8			; MyInventoryWnd `RTTI Type Descriptor'
PUBLIC	__$ArrayPad$
EXTRN	?MouseBusy@TCPNetwork@@YAX_N@Z:PROC		; TCPNetwork::MouseBusy
EXTRN	?ShowPresentTabDirect@MyInventoryWnd@@QAEXXZ:PROC ; MyInventoryWnd::ShowPresentTabDirect
;	COMDAT ??_R0?AVMyInventoryWnd@@@8
_DATA	SEGMENT
??_R0?AVMyInventoryWnd@@@8 DD FLAT:??_7type_info@@6B@	; MyInventoryWnd `RTTI Type Descriptor'
	DD	00H
	DB	'.?AVMyInventoryWnd@@', 00H
_DATA	ENDS
;	COMDAT xdata$x
xdata$x	SEGMENT
__unwindtable$?iwm_command@OneDayGoldItemEventWnd@@UAEXPAVioWnd@@HK@Z DD 0ffffffffH
	DD	FLAT:__unwindfunclet$?iwm_command@OneDayGoldItemEventWnd@@UAEXPAVioWnd@@HK@Z$0
__ehfuncinfo$?iwm_command@OneDayGoldItemEventWnd@@UAEXPAVioWnd@@HK@Z DD 019930522H
	DD	01H
	DD	FLAT:__unwindtable$?iwm_command@OneDayGoldItemEventWnd@@UAEXPAVioWnd@@HK@Z
	DD	2 DUP(00H)
	DD	2 DUP(00H)
	DD	00H
	DD	01H
; Function compile flags: /Ogsp
xdata$x	ENDS
;	COMDAT ?iwm_command@OneDayGoldItemEventWnd@@UAEXPAVioWnd@@HK@Z
_TEXT	SEGMENT
_kPacket$516110 = -32808				; size = 32792
__$ArrayPad$ = -16					; size = 4
__$EHRec$ = -12						; size = 12
_pWnd$ = 8						; size = 4
_cmd$ = 12						; size = 4
_param$ = 16						; size = 4
?iwm_command@OneDayGoldItemEventWnd@@UAEXPAVioWnd@@HK@Z PROC ; OneDayGoldItemEventWnd::iwm_command, COMDAT
; _this$ = ecx

; 1344 : {

  00000	55		 push	 ebp
  00001	8b ec		 mov	 ebp, esp
  00003	6a ff		 push	 -1
  00005	68 00 00 00 00	 push	 __ehhandler$?iwm_command@OneDayGoldItemEventWnd@@UAEXPAVioWnd@@HK@Z
  0000a	64 a1 00 00 00
	00		 mov	 eax, DWORD PTR fs:0
  00010	50		 push	 eax
  00011	b8 1c 80 00 00	 mov	 eax, 32796		; 0000801cH
  00016	e8 00 00 00 00	 call	 __chkstk
  0001b	a1 00 00 00 00	 mov	 eax, DWORD PTR ___security_cookie
  00020	33 c5		 xor	 eax, ebp
  00022	89 45 f0	 mov	 DWORD PTR __$ArrayPad$[ebp], eax
  00025	56		 push	 esi
  00026	50		 push	 eax
  00027	8d 45 f4	 lea	 eax, DWORD PTR __$EHRec$[ebp]
  0002a	64 a3 00 00 00
	00		 mov	 DWORD PTR fs:0, eax
  00030	8b f1		 mov	 esi, ecx
  00032	8b 4d 08	 mov	 ecx, DWORD PTR _pWnd$[ebp]

; 1345 : 	DWORD dwID = pWnd->GetID();

  00035	ff 15 00 00 00
	00		 call	 DWORD PTR __imp_?GetID@ioWnd@@QBEKXZ

; 1346 : 	switch( dwID )

  0003b	48		 dec	 eax
  0003c	0f 84 a6 00 00
	00		 je	 $LN7@iwm_comman@6
  00042	48		 dec	 eax
  00043	74 4f		 je	 SHORT $LN5@iwm_comman@6
  00045	48		 dec	 eax
  00046	0f 85 aa 00 00
	00		 jne	 $LN6@iwm_comman@6

; 1365 : 	case ID_LINK:
; 1366 : 		if( cmd == IOBN_BTNUP )

  0004c	83 7d 0c 11	 cmp	 DWORD PTR _cmd$[ebp], 17 ; 00000011H
  00050	0f 85 a0 00 00
	00		 jne	 $LN6@iwm_comman@6

; 1367 : 		{
; 1368 : 			HideWnd();

  00056	8b ce		 mov	 ecx, esi
  00058	ff 15 00 00 00
	00		 call	 DWORD PTR __imp_?HideWnd@ioWnd@@QAEXXZ

; 1369 : 
; 1370 : 			MyInventoryWnd *pInvenWnd = dynamic_cast<MyInventoryWnd*>(g_GUIMgr.FindWnd(MY_INVENTORY_WND));

  0005e	6a 00		 push	 0
  00060	68 00 00 00 00	 push	 OFFSET ??_R0?AVMyInventoryWnd@@@8
  00065	68 00 00 00 00	 push	 OFFSET ??_R0?AVioWnd@@@8
  0006a	6a 00		 push	 0
  0006c	68 96 17 00 00	 push	 6038			; 00001796H
  00071	e8 00 00 00 00	 call	 ?GetSingleton@ioSP2GUIManager@@SAAAV1@XZ ; ioSP2GUIManager::GetSingleton
  00076	8b c8		 mov	 ecx, eax
  00078	ff 15 00 00 00
	00		 call	 DWORD PTR __imp_?FindWnd@ioGUIManager@@QAEPAVioWnd@@K@Z
  0007e	50		 push	 eax
  0007f	e8 00 00 00 00	 call	 ___RTDynamicCast
  00084	83 c4 14	 add	 esp, 20			; 00000014H

; 1371 : 			if( pInvenWnd )

  00087	85 c0		 test	 eax, eax
  00089	74 6b		 je	 SHORT $LN6@iwm_comman@6

; 1372 : 			{
; 1373 : 				pInvenWnd->ShowPresentTabDirect();

  0008b	8b c8		 mov	 ecx, eax
  0008d	e8 00 00 00 00	 call	 ?ShowPresentTabDirect@MyInventoryWnd@@QAEXXZ ; MyInventoryWnd::ShowPresentTabDirect

; 1374 : 			}
; 1375 : 		}
; 1376 : 		break;

  00092	eb 62		 jmp	 SHORT $LN6@iwm_comman@6
$LN5@iwm_comman@6:

; 1352 : 		}
; 1353 : 		break;
; 1354 : 	case ID_RECV_ITEM:
; 1355 : 		if( cmd == IOBN_BTNUP )

  00094	83 7d 0c 11	 cmp	 DWORD PTR _cmd$[ebp], 17 ; 00000011H
  00098	75 5c		 jne	 SHORT $LN6@iwm_comman@6

; 1356 : 		{
; 1357 : 			SP2Packet kPacket( CTPK_EVENT_DATA_UPDATE );

  0009a	68 72 01 00 00	 push	 370			; 00000172H
  0009f	8d 8d d8 7f ff
	ff		 lea	 ecx, DWORD PTR _kPacket$516110[ebp]
  000a5	e8 00 00 00 00	 call	 ??0SP2Packet@@QAE@K@Z	; SP2Packet::SP2Packet
  000aa	83 65 fc 00	 and	 DWORD PTR __$EHRec$[ebp+8], 0

; 1358 : 			kPacket << EVT_ONE_DAY_GOLD_ITEM;			

  000ae	6a 0c		 push	 12			; 0000000cH
  000b0	8d 8d d8 7f ff
	ff		 lea	 ecx, DWORD PTR _kPacket$516110[ebp]
  000b6	e8 00 00 00 00	 call	 ??6SP2Packet@@QAEAAV0@H@Z ; SP2Packet::operator<<

; 1359 : 			TCPNetwork::SendToServer( kPacket );

  000bb	8d 85 d8 7f ff
	ff		 lea	 eax, DWORD PTR _kPacket$516110[ebp]
  000c1	50		 push	 eax
  000c2	e8 00 00 00 00	 call	 ?SendToServer@TCPNetwork@@YAXAAVSP2Packet@@@Z ; TCPNetwork::SendToServer

; 1360 : 			TCPNetwork::MouseBusy( true );

  000c7	6a 01		 push	 1
  000c9	e8 00 00 00 00	 call	 ?MouseBusy@TCPNetwork@@YAX_N@Z ; TCPNetwork::MouseBusy
  000ce	59		 pop	 ecx
  000cf	59		 pop	 ecx

; 1361 : 
; 1362 : 			SetRollingState();

  000d0	8b ce		 mov	 ecx, esi
  000d2	e8 00 00 00 00	 call	 ?SetRollingState@OneDayGoldItemEventWnd@@QAEXXZ ; OneDayGoldItemEventWnd::SetRollingState

; 1363 : 		}

  000d7	83 4d fc ff	 or	 DWORD PTR __$EHRec$[ebp+8], -1
  000db	8d 8d d8 7f ff
	ff		 lea	 ecx, DWORD PTR _kPacket$516110[ebp]
  000e1	e8 00 00 00 00	 call	 ??1SP2Packet@@UAE@XZ	; SP2Packet::~SP2Packet

; 1364 : 		break;

  000e6	eb 0e		 jmp	 SHORT $LN6@iwm_comman@6
$LN7@iwm_comman@6:

; 1347 : 	{
; 1348 : 	case ID_EXIT:
; 1349 : 		if( cmd == IOBN_BTNUP )

  000e8	83 7d 0c 11	 cmp	 DWORD PTR _cmd$[ebp], 17 ; 00000011H
  000ec	75 08		 jne	 SHORT $LN6@iwm_comman@6

; 1350 : 		{
; 1351 : 			HideWnd();

  000ee	8b ce		 mov	 ecx, esi
  000f0	ff 15 00 00 00
	00		 call	 DWORD PTR __imp_?HideWnd@ioWnd@@QAEXXZ
$LN6@iwm_comman@6:

; 1377 : 	}
; 1378 : }

  000f6	8b 4d f4	 mov	 ecx, DWORD PTR __$EHRec$[ebp]
  000f9	64 89 0d 00 00
	00 00		 mov	 DWORD PTR fs:0, ecx
  00100	59		 pop	 ecx
  00101	5e		 pop	 esi
  00102	8b 4d f0	 mov	 ecx, DWORD PTR __$ArrayPad$[ebp]
  00105	33 cd		 xor	 ecx, ebp
  00107	e8 00 00 00 00	 call	 @__security_check_cookie@4
  0010c	c9		 leave
  0010d	c2 0c 00	 ret	 12			; 0000000cH
_TEXT	ENDS
;	COMDAT text$x
text$x	SEGMENT
__unwindfunclet$?iwm_command@OneDayGoldItemEventWnd@@UAEXPAVioWnd@@HK@Z$0:
  00000	8d 8d d8 7f ff
	ff		 lea	 ecx, DWORD PTR _kPacket$516110[ebp]
  00006	e9 00 00 00 00	 jmp	 ??1SP2Packet@@UAE@XZ	; SP2Packet::~SP2Packet
__ehhandler$?iwm_command@OneDayGoldItemEventWnd@@UAEXPAVioWnd@@HK@Z:
  0000b	8b 54 24 08	 mov	 edx, DWORD PTR [esp+8]
  0000f	8d 42 0c	 lea	 eax, DWORD PTR [edx+12]
  00012	8b 8a dc 7f ff
	ff		 mov	 ecx, DWORD PTR [edx-32804]
  00018	33 c8		 xor	 ecx, eax
  0001a	e8 00 00 00 00	 call	 @__security_check_cookie@4
  0001f	8b 4a fc	 mov	 ecx, DWORD PTR [edx-4]
  00022	33 c8		 xor	 ecx, eax
  00024	e8 00 00 00 00	 call	 @__security_check_cookie@4
  00029	b8 00 00 00 00	 mov	 eax, OFFSET __ehfuncinfo$?iwm_command@OneDayGoldItemEventWnd@@UAEXPAVioWnd@@HK@Z
  0002e	e9 00 00 00 00	 jmp	 ___CxxFrameHandler3
text$x	ENDS
?iwm_command@OneDayGoldItemEventWnd@@UAEXPAVioWnd@@HK@Z ENDP ; OneDayGoldItemEventWnd::iwm_command
END
