; Listing generated by Microsoft (R) Optimizing Compiler Version 16.00.30319.01 

	TITLE	D:\Lost Saga For Developer\Youtube\Tutorial\Source\src\LSClient\GUI\EventCatalogWnd.cpp
	.686P
	.XMM
	include listing.inc
	.model	flat

INCLUDELIB MSVCRT
INCLUDELIB OLDNAMES

PUBLIC	?_EEM_DS@?$deque@UD3DXVECTOR3@@V?$allocator@UD3DXVECTOR3@@@std@@@std@@2HB ; std::deque<D3DXVECTOR3,std::allocator<D3DXVECTOR3> >::_EEM_DS
PUBLIC	?m_IEHwnd@EventCatalogWnd@@1PAUHWND__@@A	; EventCatalogWnd::m_IEHwnd
PUBLIC	?m_bAutoShow@EvnetChildrenDay@@1_NA		; EvnetChildrenDay::m_bAutoShow
PUBLIC	?sg_bBonusPeso@EventMortMainWnd@@1_NA		; EventMortMainWnd::sg_bBonusPeso
PUBLIC	?sg_dwCurRandTime@EventChanceRollingWnd@@1KA	; EventChanceRollingWnd::sg_dwCurRandTime
PUBLIC	?sg_bShow@EventChanceRollingWnd@@1_NA		; EventChanceRollingWnd::sg_bShow
PUBLIC	?sg_iOriginalBonus@EventChanceRollingWnd@@1HA	; EventChanceRollingWnd::sg_iOriginalBonus
_BSS	SEGMENT
?m_IEHwnd@EventCatalogWnd@@1PAUHWND__@@A DD 01H DUP (?)	; EventCatalogWnd::m_IEHwnd
?m_bAutoShow@EvnetChildrenDay@@1_NA DB 01H DUP (?)	; EvnetChildrenDay::m_bAutoShow
	ALIGN	4

?sg_bBonusPeso@EventMortMainWnd@@1_NA DB 01H DUP (?)	; EventMortMainWnd::sg_bBonusPeso
	ALIGN	4

?sg_dwCurRandTime@EventChanceRollingWnd@@1KA DD 01H DUP (?) ; EventChanceRollingWnd::sg_dwCurRandTime
?sg_bShow@EventChanceRollingWnd@@1_NA DB 01H DUP (?)	; EventChanceRollingWnd::sg_bShow
	ALIGN	4

?sg_iOriginalBonus@EventChanceRollingWnd@@1HA DD 01H DUP (?) ; EventChanceRollingWnd::sg_iOriginalBonus
_BSS	ENDS
;	COMDAT ?_EEM_DS@?$deque@UD3DXVECTOR3@@V?$allocator@UD3DXVECTOR3@@@std@@@std@@2HB
CONST	SEGMENT
?_EEM_DS@?$deque@UD3DXVECTOR3@@V?$allocator@UD3DXVECTOR3@@@std@@@std@@2HB DD 01H ; std::deque<D3DXVECTOR3,std::allocator<D3DXVECTOR3> >::_EEM_DS
CONST	ENDS
PUBLIC	?return1@@YAIXZ					; return1
; Function compile flags: /Ogsp
; File d:\lost saga for developer\youtube\tutorial\source\src\lsclient\stdafx.h
;	COMDAT ?return1@@YAIXZ
_TEXT	SEGMENT
?return1@@YAIXZ PROC					; return1, COMDAT

; 17   : 	__forceinline unsigned int return1() { __asm mov eax, 1 };

  00000	b8 01 00 00 00	 mov	 eax, 1
  00005	c3		 ret	 0
?return1@@YAIXZ ENDP					; return1
_TEXT	ENDS
PUBLIC	?return5@@YAIXZ					; return5
; Function compile flags: /Ogsp
;	COMDAT ?return5@@YAIXZ
_TEXT	SEGMENT
?return5@@YAIXZ PROC					; return5, COMDAT

; 18   : 	__forceinline unsigned int return5() { __asm mov eax, 5 };

  00000	b8 05 00 00 00	 mov	 eax, 5
  00005	c3		 ret	 0
?return5@@YAIXZ ENDP					; return5
_TEXT	ENDS
PUBLIC	?return10@@YAIXZ				; return10
; Function compile flags: /Ogsp
;	COMDAT ?return10@@YAIXZ
_TEXT	SEGMENT
?return10@@YAIXZ PROC					; return10, COMDAT

; 21   : 	__forceinline unsigned int return10() { __asm mov eax, 10 };

  00000	b8 0a 00 00 00	 mov	 eax, 10			; 0000000aH
  00005	c3		 ret	 0
?return10@@YAIXZ ENDP					; return10
_TEXT	ENDS
PUBLIC	?return100@@YAIXZ				; return100
; Function compile flags: /Ogsp
;	COMDAT ?return100@@YAIXZ
_TEXT	SEGMENT
?return100@@YAIXZ PROC					; return100, COMDAT

; 25   : 	__forceinline unsigned int return100() { __asm mov eax, 100 };

  00000	b8 64 00 00 00	 mov	 eax, 100		; 00000064H
  00005	c3		 ret	 0
?return100@@YAIXZ ENDP					; return100
_TEXT	ENDS
PUBLIC	?return1000@@YAIXZ				; return1000
; Function compile flags: /Ogsp
;	COMDAT ?return1000@@YAIXZ
_TEXT	SEGMENT
?return1000@@YAIXZ PROC					; return1000, COMDAT

; 29   : 	__forceinline unsigned int return1000() { __asm mov eax, 1000 };

  00000	b8 e8 03 00 00	 mov	 eax, 1000		; 000003e8H
  00005	c3		 ret	 0
?return1000@@YAIXZ ENDP					; return1000
_TEXT	ENDS
EXTRN	__imp___localtime64:PROC
; Function compile flags: /Ogsp
; File c:\program files (x86)\microsoft visual studio 10.0\vc\include\time.inl
;	COMDAT _localtime
_TEXT	SEGMENT
__Time$ = 8						; size = 4
_localtime PROC						; COMDAT

; 113  : {

  00000	55		 push	 ebp
  00001	8b ec		 mov	 ebp, esp

; 117  : #pragma warning( pop )
; 118  : }

  00003	5d		 pop	 ebp

; 114  : #pragma warning( push )
; 115  : #pragma warning( disable : 4996 )
; 116  :     return _localtime64(_Time);

  00004	ff 25 00 00 00
	00		 jmp	 DWORD PTR __imp___localtime64
_localtime ENDP
_TEXT	ENDS
PUBLIC	??0tagEventInfo@@QAE@XZ				; tagEventInfo::tagEventInfo
EXTRN	__imp_??1ioHashString@@QAE@XZ:PROC
EXTRN	__imp_??0ioHashString@@QAE@XZ:PROC
EXTRN	___CxxFrameHandler3:PROC
EXTRN	@__security_check_cookie@4:PROC
EXTRN	__EH_epilog3:PROC
EXTRN	__EH_prolog3:PROC
;	COMDAT xdata$x
; File d:\lost saga for developer\youtube\tutorial\source\src\lsclient\gui\eventcatalogwnd.h
xdata$x	SEGMENT
__unwindtable$??0tagEventInfo@@QAE@XZ DD 0ffffffffH
	DD	FLAT:__unwindfunclet$??0tagEventInfo@@QAE@XZ$0
	DD	00H
	DD	FLAT:__unwindfunclet$??0tagEventInfo@@QAE@XZ$1
__ehfuncinfo$??0tagEventInfo@@QAE@XZ DD 019930522H
	DD	02H
	DD	FLAT:__unwindtable$??0tagEventInfo@@QAE@XZ
	DD	2 DUP(00H)
	DD	2 DUP(00H)
	DD	00H
	DD	01H
; Function compile flags: /Ogsp
xdata$x	ENDS
;	COMDAT ??0tagEventInfo@@QAE@XZ
_TEXT	SEGMENT
_this$ = -16						; size = 4
__$EHRec$ = -12						; size = 12
??0tagEventInfo@@QAE@XZ PROC				; tagEventInfo::tagEventInfo, COMDAT
; _this$ = ecx

; 19   : 	tagEventInfo()

  00000	6a 04		 push	 4
  00002	b8 00 00 00 00	 mov	 eax, __ehhandler$??0tagEventInfo@@QAE@XZ
  00007	e8 00 00 00 00	 call	 __EH_prolog3
  0000c	8b f1		 mov	 esi, ecx
  0000e	89 75 f0	 mov	 DWORD PTR _this$[ebp], esi
  00011	8b 3d 00 00 00
	00		 mov	 edi, DWORD PTR __imp_??0ioHashString@@QAE@XZ
  00017	8d 4e 04	 lea	 ecx, DWORD PTR [esi+4]
  0001a	ff d7		 call	 edi
  0001c	33 db		 xor	 ebx, ebx
  0001e	8d 4e 24	 lea	 ecx, DWORD PTR [esi+36]
  00021	89 5d fc	 mov	 DWORD PTR __$EHRec$[ebp+8], ebx
  00024	ff d7		 call	 edi
  00026	8d 4e 34	 lea	 ecx, DWORD PTR [esi+52]
  00029	c6 45 fc 01	 mov	 BYTE PTR __$EHRec$[ebp+8], 1
  0002d	ff d7		 call	 edi

; 20   : 	{
; 21   : 		m_bWebEvent   = false;
; 22   : 		m_dwStartDate = 0;
; 23   : 		m_dwEndDate   = 0;
; 24   : 		m_dwEventWndID= 0;
; 25   : 		m_iEventType  = 0;
; 26   : 		m_eChannelingType = CNT_NONE;

  0002f	83 4e 44 ff	 or	 DWORD PTR [esi+68], -1
  00033	88 1e		 mov	 BYTE PTR [esi], bl
  00035	89 5e 14	 mov	 DWORD PTR [esi+20], ebx
  00038	89 5e 18	 mov	 DWORD PTR [esi+24], ebx
  0003b	89 5e 1c	 mov	 DWORD PTR [esi+28], ebx
  0003e	89 5e 20	 mov	 DWORD PTR [esi+32], ebx

; 27   : 	}

  00041	8b c6		 mov	 eax, esi
  00043	e8 00 00 00 00	 call	 __EH_epilog3
  00048	c3		 ret	 0
_TEXT	ENDS
;	COMDAT text$x
text$x	SEGMENT
__unwindfunclet$??0tagEventInfo@@QAE@XZ$0:
  00000	8b 4d f0	 mov	 ecx, DWORD PTR _this$[ebp]
  00003	83 c1 04	 add	 ecx, 4
  00006	ff 25 00 00 00
	00		 jmp	 DWORD PTR __imp_??1ioHashString@@QAE@XZ
__unwindfunclet$??0tagEventInfo@@QAE@XZ$1:
  0000c	8b 4d f0	 mov	 ecx, DWORD PTR _this$[ebp]
  0000f	83 c1 24	 add	 ecx, 36			; 00000024H
  00012	ff 25 00 00 00
	00		 jmp	 DWORD PTR __imp_??1ioHashString@@QAE@XZ
__ehhandler$??0tagEventInfo@@QAE@XZ:
  00018	8b 54 24 08	 mov	 edx, DWORD PTR [esp+8]
  0001c	8d 42 0c	 lea	 eax, DWORD PTR [edx+12]
  0001f	8b 4a ec	 mov	 ecx, DWORD PTR [edx-20]
  00022	33 c8		 xor	 ecx, eax
  00024	e8 00 00 00 00	 call	 @__security_check_cookie@4
  00029	b8 00 00 00 00	 mov	 eax, OFFSET __ehfuncinfo$??0tagEventInfo@@QAE@XZ
  0002e	e9 00 00 00 00	 jmp	 ___CxxFrameHandler3
text$x	ENDS
??0tagEventInfo@@QAE@XZ ENDP				; tagEventInfo::tagEventInfo
PUBLIC	?SetAutoShow@EvnetChildrenDay@@SAX_N@Z		; EvnetChildrenDay::SetAutoShow
; Function compile flags: /Ogsp
;	COMDAT ?SetAutoShow@EvnetChildrenDay@@SAX_N@Z
_TEXT	SEGMENT
_bAutoShow$ = 8						; size = 1
?SetAutoShow@EvnetChildrenDay@@SAX_N@Z PROC		; EvnetChildrenDay::SetAutoShow, COMDAT

; 123  : 	static void SetAutoShow(bool bAutoShow) { m_bAutoShow = bAutoShow; }

  00000	55		 push	 ebp
  00001	8b ec		 mov	 ebp, esp
  00003	8a 45 08	 mov	 al, BYTE PTR _bAutoShow$[ebp]
  00006	a2 00 00 00 00	 mov	 BYTE PTR ?m_bAutoShow@EvnetChildrenDay@@1_NA, al ; EvnetChildrenDay::m_bAutoShow
  0000b	5d		 pop	 ebp
  0000c	c3		 ret	 0
?SetAutoShow@EvnetChildrenDay@@SAX_N@Z ENDP		; EvnetChildrenDay::SetAutoShow
_TEXT	ENDS
PUBLIC	??1tagEventInfo@@QAE@XZ				; tagEventInfo::~tagEventInfo
;	COMDAT xdata$x
xdata$x	SEGMENT
__unwindtable$??1tagEventInfo@@QAE@XZ DD 0ffffffffH
	DD	FLAT:__unwindfunclet$??1tagEventInfo@@QAE@XZ$0
	DD	00H
	DD	FLAT:__unwindfunclet$??1tagEventInfo@@QAE@XZ$1
__ehfuncinfo$??1tagEventInfo@@QAE@XZ DD 019930522H
	DD	02H
	DD	FLAT:__unwindtable$??1tagEventInfo@@QAE@XZ
	DD	2 DUP(00H)
	DD	2 DUP(00H)
	DD	00H
	DD	01H
; Function compile flags: /Ogsp
xdata$x	ENDS
;	COMDAT ??1tagEventInfo@@QAE@XZ
_TEXT	SEGMENT
_this$ = -16						; size = 4
__$EHRec$ = -12						; size = 12
??1tagEventInfo@@QAE@XZ PROC				; tagEventInfo::~tagEventInfo, COMDAT
; _this$ = ecx
  00000	6a 04		 push	 4
  00002	b8 00 00 00 00	 mov	 eax, __ehhandler$??1tagEventInfo@@QAE@XZ
  00007	e8 00 00 00 00	 call	 __EH_prolog3
  0000c	8b f9		 mov	 edi, ecx
  0000e	89 7d f0	 mov	 DWORD PTR _this$[ebp], edi
  00011	8b 35 00 00 00
	00		 mov	 esi, DWORD PTR __imp_??1ioHashString@@QAE@XZ
  00017	8d 4f 34	 lea	 ecx, DWORD PTR [edi+52]
  0001a	c7 45 fc 01 00
	00 00		 mov	 DWORD PTR __$EHRec$[ebp+8], 1
  00021	ff d6		 call	 esi
  00023	8d 4f 24	 lea	 ecx, DWORD PTR [edi+36]
  00026	c6 45 fc 00	 mov	 BYTE PTR __$EHRec$[ebp+8], 0
  0002a	ff d6		 call	 esi
  0002c	83 4d fc ff	 or	 DWORD PTR __$EHRec$[ebp+8], -1
  00030	8d 4f 04	 lea	 ecx, DWORD PTR [edi+4]
  00033	ff d6		 call	 esi
  00035	e8 00 00 00 00	 call	 __EH_epilog3
  0003a	c3		 ret	 0
_TEXT	ENDS
;	COMDAT text$x
text$x	SEGMENT
__unwindfunclet$??1tagEventInfo@@QAE@XZ$0:
  00000	8b 4d f0	 mov	 ecx, DWORD PTR _this$[ebp]
  00003	83 c1 04	 add	 ecx, 4
  00006	ff 25 00 00 00
	00		 jmp	 DWORD PTR __imp_??1ioHashString@@QAE@XZ
__unwindfunclet$??1tagEventInfo@@QAE@XZ$1:
  0000c	8b 4d f0	 mov	 ecx, DWORD PTR _this$[ebp]
  0000f	83 c1 24	 add	 ecx, 36			; 00000024H
  00012	ff 25 00 00 00
	00		 jmp	 DWORD PTR __imp_??1ioHashString@@QAE@XZ
__ehhandler$??1tagEventInfo@@QAE@XZ:
  00018	8b 54 24 08	 mov	 edx, DWORD PTR [esp+8]
  0001c	8d 42 0c	 lea	 eax, DWORD PTR [edx+12]
  0001f	8b 4a ec	 mov	 ecx, DWORD PTR [edx-20]
  00022	33 c8		 xor	 ecx, eax
  00024	e8 00 00 00 00	 call	 @__security_check_cookie@4
  00029	b8 00 00 00 00	 mov	 eax, OFFSET __ehfuncinfo$??1tagEventInfo@@QAE@XZ
  0002e	e9 00 00 00 00	 jmp	 ___CxxFrameHandler3
text$x	ENDS
??1tagEventInfo@@QAE@XZ ENDP				; tagEventInfo::~tagEventInfo
PUBLIC	??_C@_0BK@FPAEJHLK@EventCatalogWnd?3?3EnumProc?$AA@ ; `string'
PUBLIC	??_C@_00CNPNBAHC@?$AA@				; `string'
PUBLIC	__$ArrayPad$
PUBLIC	?EnumProc@EventCatalogWnd@@KGHPAUHWND__@@J@Z	; EventCatalogWnd::EnumProc
EXTRN	__imp_?GetString@ioStringManager@@QAEPADPBD0HW4FileNamePrefix@1@@Z:PROC
EXTRN	__imp_?GetSingleton@ioStringManager@@SAAAV1@XZ:PROC
EXTRN	__imp__GetWindowTextA@12:PROC
EXTRN	___security_cookie:DWORD
EXTRN	_memset:PROC
;	COMDAT ??_C@_0BK@FPAEJHLK@EventCatalogWnd?3?3EnumProc?$AA@
; File d:\lost saga for developer\youtube\tutorial\source\src\lsclient\gui\eventcatalogwnd.cpp
CONST	SEGMENT
??_C@_0BK@FPAEJHLK@EventCatalogWnd?3?3EnumProc?$AA@ DB 'EventCatalogWnd::'
	DB	'EnumProc', 00H				; `string'
CONST	ENDS
;	COMDAT ??_C@_00CNPNBAHC@?$AA@
CONST	SEGMENT
??_C@_00CNPNBAHC@?$AA@ DB 00H				; `string'
; Function compile flags: /Ogsp
CONST	ENDS
;	COMDAT ?EnumProc@EventCatalogWnd@@KGHPAUHWND__@@J@Z
_TEXT	SEGMENT
_szText$ = -264						; size = 260
__$ArrayPad$ = -4					; size = 4
_hWnd$ = 8						; size = 4
_lParam$ = 12						; size = 4
?EnumProc@EventCatalogWnd@@KGHPAUHWND__@@J@Z PROC	; EventCatalogWnd::EnumProc, COMDAT

; 211  : {

  00000	55		 push	 ebp
  00001	8b ec		 mov	 ebp, esp
  00003	81 ec 08 01 00
	00		 sub	 esp, 264		; 00000108H
  00009	a1 00 00 00 00	 mov	 eax, DWORD PTR ___security_cookie
  0000e	33 c5		 xor	 eax, ebp
  00010	89 45 fc	 mov	 DWORD PTR __$ArrayPad$[ebp], eax

; 212  : 	if( m_IEHwnd != 0 )

  00013	83 3d 00 00 00
	00 00		 cmp	 DWORD PTR ?m_IEHwnd@EventCatalogWnd@@1PAUHWND__@@A, 0 ; EventCatalogWnd::m_IEHwnd
  0001a	56		 push	 esi
  0001b	8b 75 08	 mov	 esi, DWORD PTR _hWnd$[ebp]

; 213  : 		return TRUE;

  0001e	0f 85 81 00 00
	00		 jne	 $LN1@EnumProc

; 214  : 
; 215  : 	char szText[MAX_PATH] = "";

  00024	68 03 01 00 00	 push	 259			; 00000103H
  00029	8d 85 f9 fe ff
	ff		 lea	 eax, DWORD PTR _szText$[ebp+1]
  0002f	6a 00		 push	 0
  00031	50		 push	 eax
  00032	c6 85 f8 fe ff
	ff 00		 mov	 BYTE PTR _szText$[ebp], 0
  00039	e8 00 00 00 00	 call	 _memset
  0003e	83 c4 0c	 add	 esp, 12			; 0000000cH

; 216  : 	GetWindowText(hWnd,szText,MAX_PATH);

  00041	68 04 01 00 00	 push	 260			; 00000104H
  00046	8d 85 f8 fe ff
	ff		 lea	 eax, DWORD PTR _szText$[ebp]
  0004c	50		 push	 eax
  0004d	56		 push	 esi
  0004e	ff 15 00 00 00
	00		 call	 DWORD PTR __imp__GetWindowTextA@12

; 217  : 	if( strcmp(szText,STR(1)) == 0 )

  00054	6a 00		 push	 0
  00056	6a 01		 push	 1
  00058	68 00 00 00 00	 push	 OFFSET ??_C@_00CNPNBAHC@?$AA@
  0005d	68 00 00 00 00	 push	 OFFSET ??_C@_0BK@FPAEJHLK@EventCatalogWnd?3?3EnumProc?$AA@
  00062	ff 15 00 00 00
	00		 call	 DWORD PTR __imp_?GetSingleton@ioStringManager@@SAAAV1@XZ
  00068	8b c8		 mov	 ecx, eax
  0006a	ff 15 00 00 00
	00		 call	 DWORD PTR __imp_?GetString@ioStringManager@@QAEPADPBD0HW4FileNamePrefix@1@@Z
  00070	8d 8d f8 fe ff
	ff		 lea	 ecx, DWORD PTR _szText$[ebp]
$LL5@EnumProc:
  00076	8a 11		 mov	 dl, BYTE PTR [ecx]
  00078	3a 10		 cmp	 dl, BYTE PTR [eax]
  0007a	75 1a		 jne	 SHORT $LN6@EnumProc
  0007c	84 d2		 test	 dl, dl
  0007e	74 12		 je	 SHORT $LN7@EnumProc
  00080	8a 51 01	 mov	 dl, BYTE PTR [ecx+1]
  00083	3a 50 01	 cmp	 dl, BYTE PTR [eax+1]
  00086	75 0e		 jne	 SHORT $LN6@EnumProc
  00088	83 c1 02	 add	 ecx, 2
  0008b	83 c0 02	 add	 eax, 2
  0008e	84 d2		 test	 dl, dl
  00090	75 e4		 jne	 SHORT $LL5@EnumProc
$LN7@EnumProc:
  00092	33 c0		 xor	 eax, eax
  00094	eb 05		 jmp	 SHORT $LN8@EnumProc
$LN6@EnumProc:
  00096	1b c0		 sbb	 eax, eax
  00098	83 d8 ff	 sbb	 eax, -1
$LN8@EnumProc:
  0009b	85 c0		 test	 eax, eax
  0009d	75 06		 jne	 SHORT $LN1@EnumProc

; 218  : 	{
; 219  : 		m_IEHwnd = hWnd;

  0009f	89 35 00 00 00
	00		 mov	 DWORD PTR ?m_IEHwnd@EventCatalogWnd@@1PAUHWND__@@A, esi ; EventCatalogWnd::m_IEHwnd
$LN1@EnumProc:

; 220  : 	}
; 221  : 	
; 222  : 	return TRUE;
; 223  : }

  000a5	8b 4d fc	 mov	 ecx, DWORD PTR __$ArrayPad$[ebp]
  000a8	33 c0		 xor	 eax, eax
  000aa	33 cd		 xor	 ecx, ebp
  000ac	40		 inc	 eax
  000ad	5e		 pop	 esi
  000ae	e8 00 00 00 00	 call	 @__security_check_cookie@4
  000b3	c9		 leave
  000b4	c2 08 00	 ret	 8
?EnumProc@EventCatalogWnd@@KGHPAUHWND__@@J@Z ENDP	; EventCatalogWnd::EnumProc
_TEXT	ENDS
PUBLIC	?ProcessIERefresh@EventCatalogWnd@@IAEXXZ	; EventCatalogWnd::ProcessIERefresh
EXTRN	__imp__PostMessageA@16:PROC
EXTRN	__imp__EnumWindows@8:PROC
EXTRN	__imp_?GetTotalSec@ioFrameTimer@@QAEKXZ:PROC
EXTRN	__imp_?GetSingleton@ioFrameTimer@@SAAAV1@XZ:PROC
EXTRN	__imp_?IsShow@ioWnd@@QBE_NXZ:PROC
; Function compile flags: /Ogsp
;	COMDAT ?ProcessIERefresh@EventCatalogWnd@@IAEXXZ
_TEXT	SEGMENT
?ProcessIERefresh@EventCatalogWnd@@IAEXXZ PROC		; EventCatalogWnd::ProcessIERefresh, COMDAT
; _this$ = ecx

; 226  : {

  00000	56		 push	 esi
  00001	8b f1		 mov	 esi, ecx

; 227  : 	if( !IsShow() )

  00003	ff 15 00 00 00
	00		 call	 DWORD PTR __imp_?IsShow@ioWnd@@QBE_NXZ
  00009	84 c0		 test	 al, al
  0000b	74 51		 je	 SHORT $LN5@ProcessIER

; 228  : 		return;
; 229  : 
; 230  : 	if( !m_bIERefreshCheck )

  0000d	53		 push	 ebx
  0000e	33 db		 xor	 ebx, ebx
  00010	38 9e b0 01 00
	00		 cmp	 BYTE PTR [esi+432], bl
  00016	74 45		 je	 SHORT $LN7@ProcessIER

; 231  : 		return;
; 232  : 
; 233  : 	enum { MAX_CHECK_TIME = 10000, };
; 234  : 	if( REALGETTIME() - m_dwIERefreshTimer > MAX_CHECK_TIME )

  00018	ff 15 00 00 00
	00		 call	 DWORD PTR __imp_?GetSingleton@ioFrameTimer@@SAAAV1@XZ
  0001e	8b c8		 mov	 ecx, eax
  00020	ff 15 00 00 00
	00		 call	 DWORD PTR __imp_?GetTotalSec@ioFrameTimer@@QAEKXZ
  00026	2b 86 ac 01 00
	00		 sub	 eax, DWORD PTR [esi+428]
  0002c	3d 10 27 00 00	 cmp	 eax, 10000		; 00002710H

; 235  : 	{
; 236  : 		m_bIERefreshCheck = false;
; 237  : 		return;

  00031	77 24		 ja	 SHORT $LN8@ProcessIER

; 238  : 	}
; 239  : 
; 240  : 	EnumWindows( EnumProc, 0 );

  00033	53		 push	 ebx
  00034	68 00 00 00 00	 push	 OFFSET ?EnumProc@EventCatalogWnd@@KGHPAUHWND__@@J@Z ; EventCatalogWnd::EnumProc
  00039	ff 15 00 00 00
	00		 call	 DWORD PTR __imp__EnumWindows@8

; 241  : 	if( m_IEHwnd == 0 )

  0003f	a1 00 00 00 00	 mov	 eax, DWORD PTR ?m_IEHwnd@EventCatalogWnd@@1PAUHWND__@@A ; EventCatalogWnd::m_IEHwnd
  00044	3b c3		 cmp	 eax, ebx
  00046	74 15		 je	 SHORT $LN7@ProcessIER

; 242  : 		return;
; 243  : 
; 244  : 	PostMessage( m_IEHwnd, WM_KEYDOWN, VK_F5, 0L ); // ie8에서 ie를 바로 실행하면 일부 페이지가 보이지 않아 리프레쉬 메세지를 한번 보낸다.

  00048	53		 push	 ebx
  00049	6a 74		 push	 116			; 00000074H
  0004b	68 00 01 00 00	 push	 256			; 00000100H
  00050	50		 push	 eax
  00051	ff 15 00 00 00
	00		 call	 DWORD PTR __imp__PostMessageA@16
$LN8@ProcessIER:

; 245  : 	m_bIERefreshCheck = false;

  00057	88 9e b0 01 00
	00		 mov	 BYTE PTR [esi+432], bl
$LN7@ProcessIER:
  0005d	5b		 pop	 ebx
$LN5@ProcessIER:
  0005e	5e		 pop	 esi

; 246  : }

  0005f	c3		 ret	 0
?ProcessIERefresh@EventCatalogWnd@@IAEXXZ ENDP		; EventCatalogWnd::ProcessIERefresh
_TEXT	ENDS
PUBLIC	??_7bad_alloc@std@@6B@				; std::bad_alloc::`vftable'
PUBLIC	??0bad_alloc@std@@QAE@PBD@Z			; std::bad_alloc::bad_alloc
PUBLIC	??_R4bad_alloc@std@@6B@				; std::bad_alloc::`RTTI Complete Object Locator'
PUBLIC	??_R0?AVbad_alloc@std@@@8			; std::bad_alloc `RTTI Type Descriptor'
PUBLIC	??_R3bad_alloc@std@@8				; std::bad_alloc::`RTTI Class Hierarchy Descriptor'
PUBLIC	??_R2bad_alloc@std@@8				; std::bad_alloc::`RTTI Base Class Array'
PUBLIC	??_R1A@?0A@EA@bad_alloc@std@@8			; std::bad_alloc::`RTTI Base Class Descriptor at (0,-1,0,64)'
PUBLIC	??_R1A@?0A@EA@exception@std@@8			; std::exception::`RTTI Base Class Descriptor at (0,-1,0,64)'
PUBLIC	??_R0?AVexception@std@@@8			; std::exception `RTTI Type Descriptor'
PUBLIC	??_R3exception@std@@8				; std::exception::`RTTI Class Hierarchy Descriptor'
PUBLIC	??_R2exception@std@@8				; std::exception::`RTTI Base Class Array'
EXTRN	__imp_??0exception@std@@QAE@ABQBD@Z:PROC
EXTRN	??_7type_info@@6B@:QWORD			; type_info::`vftable'
EXTRN	??_Ebad_alloc@std@@UAEPAXI@Z:PROC		; std::bad_alloc::`vector deleting destructor'
EXTRN	?what@exception@std@@UBEPBDXZ:PROC		; std::exception::what
;	COMDAT ??_R2exception@std@@8
; File c:\program files (x86)\microsoft visual studio 10.0\vc\include\exception
rdata$r	SEGMENT
??_R2exception@std@@8 DD FLAT:??_R1A@?0A@EA@exception@std@@8 ; std::exception::`RTTI Base Class Array'
rdata$r	ENDS
;	COMDAT ??_R3exception@std@@8
rdata$r	SEGMENT
??_R3exception@std@@8 DD 00H				; std::exception::`RTTI Class Hierarchy Descriptor'
	DD	00H
	DD	01H
	DD	FLAT:??_R2exception@std@@8
rdata$r	ENDS
;	COMDAT ??_R0?AVexception@std@@@8
_DATA	SEGMENT
??_R0?AVexception@std@@@8 DD FLAT:??_7type_info@@6B@	; std::exception `RTTI Type Descriptor'
	DD	00H
	DB	'.?AVexception@std@@', 00H
_DATA	ENDS
;	COMDAT ??_R1A@?0A@EA@exception@std@@8
rdata$r	SEGMENT
??_R1A@?0A@EA@exception@std@@8 DD FLAT:??_R0?AVexception@std@@@8 ; std::exception::`RTTI Base Class Descriptor at (0,-1,0,64)'
	DD	00H
	DD	00H
	DD	0ffffffffH
	DD	00H
	DD	040H
	DD	FLAT:??_R3exception@std@@8
rdata$r	ENDS
;	COMDAT ??_R1A@?0A@EA@bad_alloc@std@@8
rdata$r	SEGMENT
??_R1A@?0A@EA@bad_alloc@std@@8 DD FLAT:??_R0?AVbad_alloc@std@@@8 ; std::bad_alloc::`RTTI Base Class Descriptor at (0,-1,0,64)'
	DD	01H
	DD	00H
	DD	0ffffffffH
	DD	00H
	DD	040H
	DD	FLAT:??_R3bad_alloc@std@@8
rdata$r	ENDS
;	COMDAT ??_R2bad_alloc@std@@8
rdata$r	SEGMENT
??_R2bad_alloc@std@@8 DD FLAT:??_R1A@?0A@EA@bad_alloc@std@@8 ; std::bad_alloc::`RTTI Base Class Array'
	DD	FLAT:??_R1A@?0A@EA@exception@std@@8
rdata$r	ENDS
;	COMDAT ??_R3bad_alloc@std@@8
rdata$r	SEGMENT
??_R3bad_alloc@std@@8 DD 00H				; std::bad_alloc::`RTTI Class Hierarchy Descriptor'
	DD	00H
	DD	02H
	DD	FLAT:??_R2bad_alloc@std@@8
rdata$r	ENDS
;	COMDAT ??_R0?AVbad_alloc@std@@@8
_DATA	SEGMENT
??_R0?AVbad_alloc@std@@@8 DD FLAT:??_7type_info@@6B@	; std::bad_alloc `RTTI Type Descriptor'
	DD	00H
	DB	'.?AVbad_alloc@std@@', 00H
_DATA	ENDS
;	COMDAT ??_R4bad_alloc@std@@6B@
rdata$r	SEGMENT
??_R4bad_alloc@std@@6B@ DD 00H				; std::bad_alloc::`RTTI Complete Object Locator'
	DD	00H
	DD	00H
	DD	FLAT:??_R0?AVbad_alloc@std@@@8
	DD	FLAT:??_R3bad_alloc@std@@8
rdata$r	ENDS
;	COMDAT ??_7bad_alloc@std@@6B@
CONST	SEGMENT
??_7bad_alloc@std@@6B@ DD FLAT:??_R4bad_alloc@std@@6B@	; std::bad_alloc::`vftable'
	DD	FLAT:??_Ebad_alloc@std@@UAEPAXI@Z
	DD	FLAT:?what@exception@std@@UBEPBDXZ
; Function compile flags: /Ogsp
CONST	ENDS
;	COMDAT ??0bad_alloc@std@@QAE@PBD@Z
_TEXT	SEGMENT
__Message$ = 8						; size = 4
??0bad_alloc@std@@QAE@PBD@Z PROC			; std::bad_alloc::bad_alloc, COMDAT
; _this$ = ecx

; 345  : 		{	// construct from message string

  00000	55		 push	 ebp
  00001	8b ec		 mov	 ebp, esp
  00003	56		 push	 esi
  00004	8d 45 08	 lea	 eax, DWORD PTR __Message$[ebp]
  00007	50		 push	 eax
  00008	8b f1		 mov	 esi, ecx
  0000a	ff 15 00 00 00
	00		 call	 DWORD PTR __imp_??0exception@std@@QAE@ABQBD@Z
  00010	c7 06 00 00 00
	00		 mov	 DWORD PTR [esi], OFFSET ??_7bad_alloc@std@@6B@

; 346  : 		}

  00016	8b c6		 mov	 eax, esi
  00018	5e		 pop	 esi
  00019	5d		 pop	 ebp
  0001a	c2 04 00	 ret	 4
??0bad_alloc@std@@QAE@PBD@Z ENDP			; std::bad_alloc::bad_alloc
_TEXT	ENDS
PUBLIC	??1bad_alloc@std@@UAE@XZ			; std::bad_alloc::~bad_alloc
EXTRN	__imp_??1exception@std@@UAE@XZ:PROC
; Function compile flags: /Ogsp
;	COMDAT ??1bad_alloc@std@@UAE@XZ
_TEXT	SEGMENT
??1bad_alloc@std@@UAE@XZ PROC				; std::bad_alloc::~bad_alloc, COMDAT
; _this$ = ecx

; 354  : 		{	// destroy the object

  00000	c7 01 00 00 00
	00		 mov	 DWORD PTR [ecx], OFFSET ??_7bad_alloc@std@@6B@

; 355  : 		}

  00006	ff 25 00 00 00
	00		 jmp	 DWORD PTR __imp_??1exception@std@@UAE@XZ
??1bad_alloc@std@@UAE@XZ ENDP				; std::bad_alloc::~bad_alloc
_TEXT	ENDS
EXTRN	??3@YAXPAX@Z:PROC				; operator delete
; Function compile flags: /Ogsp
;	COMDAT ??_Gbad_alloc@std@@UAEPAXI@Z
_TEXT	SEGMENT
___flags$ = 8						; size = 4
??_Gbad_alloc@std@@UAEPAXI@Z PROC			; std::bad_alloc::`scalar deleting destructor', COMDAT
; _this$ = ecx
  00000	55		 push	 ebp
  00001	8b ec		 mov	 ebp, esp
  00003	56		 push	 esi
  00004	8b f1		 mov	 esi, ecx
  00006	c7 06 00 00 00
	00		 mov	 DWORD PTR [esi], OFFSET ??_7bad_alloc@std@@6B@
  0000c	ff 15 00 00 00
	00		 call	 DWORD PTR __imp_??1exception@std@@UAE@XZ
  00012	f6 45 08 01	 test	 BYTE PTR ___flags$[ebp], 1
  00016	74 07		 je	 SHORT $LN1@scalar
  00018	56		 push	 esi
  00019	e8 00 00 00 00	 call	 ??3@YAXPAX@Z		; operator delete
  0001e	59		 pop	 ecx
$LN1@scalar:
  0001f	8b c6		 mov	 eax, esi
  00021	5e		 pop	 esi
  00022	5d		 pop	 ebp
  00023	c2 04 00	 ret	 4
??_Gbad_alloc@std@@UAEPAXI@Z ENDP			; std::bad_alloc::`scalar deleting destructor'
_TEXT	ENDS
PUBLIC	??2@YAPAXIPAX@Z					; operator new
; Function compile flags: /Ogsp
; File c:\program files (x86)\microsoft visual studio 10.0\vc\include\new
;	COMDAT ??2@YAPAXIPAX@Z
_TEXT	SEGMENT
___formal$ = 8						; size = 4
__Where$ = 12						; size = 4
??2@YAPAXIPAX@Z PROC					; operator new, COMDAT

; 56   : 	{	// construct array with placement at _Where

  00000	55		 push	 ebp
  00001	8b ec		 mov	 ebp, esp

; 57   : 	return (_Where);

  00003	8b 45 0c	 mov	 eax, DWORD PTR __Where$[ebp]

; 58   : 	}

  00006	5d		 pop	 ebp
  00007	c3		 ret	 0
??2@YAPAXIPAX@Z ENDP					; operator new
_TEXT	ENDS
PUBLIC	??3@YAXPAX0@Z					; operator delete
; Function compile flags: /Ogsp
;	COMDAT ??3@YAXPAX0@Z
_TEXT	SEGMENT
___formal$ = 8						; size = 4
___formal$ = 12						; size = 4
??3@YAXPAX0@Z PROC					; operator delete, COMDAT

; 62   : 	}

  00000	c3		 ret	 0
??3@YAXPAX0@Z ENDP					; operator delete
_TEXT	ENDS
PUBLIC	?_Adopt@_Iterator_base0@std@@QAEXPBX@Z		; std::_Iterator_base0::_Adopt
; Function compile flags: /Ogsp
; File c:\program files (x86)\microsoft visual studio 10.0\vc\include\xutility
;	COMDAT ?_Adopt@_Iterator_base0@std@@QAEXPBX@Z
_TEXT	SEGMENT
___formal$ = 8						; size = 4
?_Adopt@_Iterator_base0@std@@QAEXPBX@Z PROC		; std::_Iterator_base0::_Adopt, COMDAT
; _this$ = ecx

; 49   : 		}

  00000	c2 04 00	 ret	 4
?_Adopt@_Iterator_base0@std@@QAEXPBX@Z ENDP		; std::_Iterator_base0::_Adopt
_TEXT	ENDS
PUBLIC	?iwm_spacebar@EventCatalogWnd@@UAE_NXZ		; EventCatalogWnd::iwm_spacebar
EXTRN	__imp_?FindChildWnd@ioWnd@@QAEPAV1@K@Z:PROC
; Function compile flags: /Ogsp
; File d:\lost saga for developer\youtube\tutorial\source\src\lsclient\gui\eventcatalogwnd.cpp
;	COMDAT ?iwm_spacebar@EventCatalogWnd@@UAE_NXZ
_TEXT	SEGMENT
?iwm_spacebar@EventCatalogWnd@@UAE_NXZ PROC		; EventCatalogWnd::iwm_spacebar, COMDAT
; _this$ = ecx

; 334  : {

  00000	56		 push	 esi
  00001	57		 push	 edi

; 335  : 	ioWnd *pBtn = FindChildWnd( ID_DETAIL_BTN );

  00002	68 e9 03 00 00	 push	 1001			; 000003e9H
  00007	8b f1		 mov	 esi, ecx
  00009	ff 15 00 00 00
	00		 call	 DWORD PTR __imp_?FindChildWnd@ioWnd@@QAEPAV1@K@Z
  0000f	8b f8		 mov	 edi, eax

; 336  : 	if( !pBtn ) return false;

  00011	85 ff		 test	 edi, edi
  00013	75 04		 jne	 SHORT $LN2@iwm_spaceb
$LN5@iwm_spaceb:
  00015	32 c0		 xor	 al, al
  00017	eb 1d		 jmp	 SHORT $LN3@iwm_spaceb
$LN2@iwm_spaceb:

; 337  : 	if( !pBtn->IsShow() ) return false;

  00019	8b cf		 mov	 ecx, edi
  0001b	ff 15 00 00 00
	00		 call	 DWORD PTR __imp_?IsShow@ioWnd@@QBE_NXZ
  00021	84 c0		 test	 al, al
  00023	74 f0		 je	 SHORT $LN5@iwm_spaceb

; 338  : 
; 339  : 	iwm_command( pBtn, IOBN_BTNUP, 0 );

  00025	8b 06		 mov	 eax, DWORD PTR [esi]
  00027	6a 00		 push	 0
  00029	6a 11		 push	 17			; 00000011H
  0002b	57		 push	 edi
  0002c	8b ce		 mov	 ecx, esi
  0002e	ff 90 8c 00 00
	00		 call	 DWORD PTR [eax+140]

; 340  : 	return true;

  00034	b0 01		 mov	 al, 1
$LN3@iwm_spaceb:

; 341  : }

  00036	5f		 pop	 edi
  00037	5e		 pop	 esi
  00038	c3		 ret	 0
?iwm_spacebar@EventCatalogWnd@@UAE_NXZ ENDP		; EventCatalogWnd::iwm_spacebar
_TEXT	ENDS
PUBLIC	?iwm_create@EventCatalogWnd@@UAEXXZ		; EventCatalogWnd::iwm_create
; Function compile flags: /Ogsp
;	COMDAT ?iwm_create@EventCatalogWnd@@UAEXXZ
_TEXT	SEGMENT
?iwm_create@EventCatalogWnd@@UAEXXZ PROC		; EventCatalogWnd::iwm_create, COMDAT
; _this$ = ecx

; 345  : 	m_dwStyle |= IWS_PROCESS_ALWAYS;

  00000	83 49 18 40	 or	 DWORD PTR [ecx+24], 64	; 00000040H

; 346  : }

  00004	c3		 ret	 0
?iwm_create@EventCatalogWnd@@UAEXXZ ENDP		; EventCatalogWnd::iwm_create
_TEXT	ENDS
PUBLIC	?OnRender@EventCatalogWnd@@MAEXXZ		; EventCatalogWnd::OnRender
EXTRN	__imp_?GetDerivedPosY@ioWnd@@QBEHXZ:PROC
EXTRN	__imp_?GetDerivedPosX@ioWnd@@QBEHXZ:PROC
EXTRN	__imp_?OnRender@ioWnd@@MAEXXZ:PROC
EXTRN	__fltused:DWORD
; Function compile flags: /Ogsp
;	COMDAT ?OnRender@EventCatalogWnd@@MAEXXZ
_TEXT	SEGMENT
_iYPos$ = -8						; size = 4
tv210 = -4						; size = 4
?OnRender@EventCatalogWnd@@MAEXXZ PROC			; EventCatalogWnd::OnRender, COMDAT
; _this$ = ecx

; 371  : {

  00000	55		 push	 ebp
  00001	8b ec		 mov	 ebp, esp
  00003	51		 push	 ecx
  00004	51		 push	 ecx
  00005	53		 push	 ebx
  00006	56		 push	 esi
  00007	57		 push	 edi
  00008	8b f9		 mov	 edi, ecx

; 372  : 	ioMovingWnd::OnRender();

  0000a	ff 15 00 00 00
	00		 call	 DWORD PTR __imp_?OnRender@ioWnd@@MAEXXZ

; 373  : 
; 374  : 	int iXPos, iYPos;
; 375  : 	iXPos = GetDerivedPosX();

  00010	8b cf		 mov	 ecx, edi
  00012	ff 15 00 00 00
	00		 call	 DWORD PTR __imp_?GetDerivedPosX@ioWnd@@QBEHXZ

; 376  : 	iYPos = GetDerivedPosY();

  00018	8b cf		 mov	 ecx, edi
  0001a	8b d8		 mov	 ebx, eax
  0001c	ff 15 00 00 00
	00		 call	 DWORD PTR __imp_?GetDerivedPosY@ioWnd@@QBEHXZ

; 377  : 
; 378  : 	enum { X_OFFSET_FIRST = 17, Y_OFFSET_FIRST = 48, X_OFFSET_SECOND = 529, Y_OFFSET_SECOND = 48, };
; 379  : 	if( m_pImgFirst )

  00022	33 f6		 xor	 esi, esi
  00024	8b d0		 mov	 edx, eax
  00026	89 55 f8	 mov	 DWORD PTR _iYPos$[ebp], edx
  00029	39 b7 a4 01 00
	00		 cmp	 DWORD PTR [edi+420], esi
  0002f	74 36		 je	 SHORT $LN2@OnRender

; 380  : 		m_pImgFirst->Render( iXPos + X_OFFSET_FIRST, iYPos + Y_OFFSET_FIRST );

  00031	8b 87 a4 01 00
	00		 mov	 eax, DWORD PTR [edi+420]
  00037	8b 08		 mov	 ecx, DWORD PTR [eax]
  00039	56		 push	 esi
  0003a	56		 push	 esi
  0003b	56		 push	 esi
  0003c	56		 push	 esi
  0003d	51		 push	 ecx
  0003e	83 c2 30	 add	 edx, 48			; 00000030H
  00041	0f 57 c0	 xorps	 xmm0, xmm0
  00044	f3 0f 2a c2	 cvtsi2ss xmm0, edx
  00048	51		 push	 ecx
  00049	f3 0f 11 44 24
	04		 movss	 DWORD PTR [esp+4], xmm0
  0004f	8d 53 11	 lea	 edx, DWORD PTR [ebx+17]
  00052	0f 57 c0	 xorps	 xmm0, xmm0
  00055	8b c8		 mov	 ecx, eax
  00057	8b 00		 mov	 eax, DWORD PTR [eax]
  00059	f3 0f 2a c2	 cvtsi2ss xmm0, edx
  0005d	f3 0f 11 04 24	 movss	 DWORD PTR [esp], xmm0
  00062	ff 10		 call	 DWORD PTR [eax]
  00064	8b 55 f8	 mov	 edx, DWORD PTR _iYPos$[ebp]
$LN2@OnRender:

; 381  : 	if( m_pImgSecond )

  00067	39 b7 a8 01 00
	00		 cmp	 DWORD PTR [edi+424], esi
  0006d	74 32		 je	 SHORT $LN1@OnRender

; 382  : 		m_pImgSecond->Render( iXPos + X_OFFSET_SECOND, iYPos + Y_OFFSET_SECOND );

  0006f	8b 8f a8 01 00
	00		 mov	 ecx, DWORD PTR [edi+424]
  00075	8b 01		 mov	 eax, DWORD PTR [ecx]
  00077	56		 push	 esi
  00078	56		 push	 esi
  00079	56		 push	 esi
  0007a	56		 push	 esi
  0007b	0f 57 c0	 xorps	 xmm0, xmm0
  0007e	51		 push	 ecx
  0007f	83 c2 30	 add	 edx, 48			; 00000030H
  00082	f3 0f 2a c2	 cvtsi2ss xmm0, edx
  00086	51		 push	 ecx
  00087	f3 0f 11 44 24
	04		 movss	 DWORD PTR [esp+4], xmm0
  0008d	81 c3 11 02 00
	00		 add	 ebx, 529		; 00000211H
  00093	0f 57 c0	 xorps	 xmm0, xmm0
  00096	f3 0f 2a c3	 cvtsi2ss xmm0, ebx
  0009a	f3 0f 11 04 24	 movss	 DWORD PTR [esp], xmm0
  0009f	ff 10		 call	 DWORD PTR [eax]
$LN1@OnRender:
  000a1	5f		 pop	 edi
  000a2	5e		 pop	 esi
  000a3	5b		 pop	 ebx

; 383  : 		
; 384  : }

  000a4	c9		 leave
  000a5	c3		 ret	 0
?OnRender@EventCatalogWnd@@MAEXXZ ENDP			; EventCatalogWnd::OnRender
_TEXT	ENDS
PUBLIC	??_7EvnetChildrenDay@@6B@			; EvnetChildrenDay::`vftable'
PUBLIC	??0EvnetChildrenDay@@QAE@XZ			; EvnetChildrenDay::EvnetChildrenDay
PUBLIC	??_R4EvnetChildrenDay@@6B@			; EvnetChildrenDay::`RTTI Complete Object Locator'
PUBLIC	??_R0?AVEvnetChildrenDay@@@8			; EvnetChildrenDay `RTTI Type Descriptor'
PUBLIC	??_R3EvnetChildrenDay@@8			; EvnetChildrenDay::`RTTI Class Hierarchy Descriptor'
PUBLIC	??_R2EvnetChildrenDay@@8			; EvnetChildrenDay::`RTTI Base Class Array'
PUBLIC	??_R1A@?0A@EA@EvnetChildrenDay@@8		; EvnetChildrenDay::`RTTI Base Class Descriptor at (0,-1,0,64)'
PUBLIC	??_R1A@?0A@EA@ioWnd@@8				; ioWnd::`RTTI Base Class Descriptor at (0,-1,0,64)'
PUBLIC	??_R0?AVioWnd@@@8				; ioWnd `RTTI Type Descriptor'
PUBLIC	??_R3ioWnd@@8					; ioWnd::`RTTI Class Hierarchy Descriptor'
PUBLIC	??_R2ioWnd@@8					; ioWnd::`RTTI Base Class Array'
PUBLIC	?OnRender@EvnetChildrenDay@@MAEXXZ		; EvnetChildrenDay::OnRender
PUBLIC	?OnProcess@EvnetChildrenDay@@MAEXM@Z		; EvnetChildrenDay::OnProcess
PUBLIC	?iwm_command@EvnetChildrenDay@@UAEXPAVioWnd@@HK@Z ; EvnetChildrenDay::iwm_command
PUBLIC	?iwm_spacebar@EvnetChildrenDay@@UAE_NXZ		; EvnetChildrenDay::iwm_spacebar
EXTRN	__imp_??0ioWnd@@QAE@XZ:PROC
EXTRN	?AddRenderFrame@ioWnd@@UAEXABVioHashString@@PAVioUIRenderFrame@@@Z:PROC ; ioWnd::AddRenderFrame
EXTRN	?AddRenderImage@ioWnd@@UAEXABVioHashString@@PAVioUIRenderImage@@@Z:PROC ; ioWnd::AddRenderImage
EXTRN	?AddTooltipHelp@ioWnd@@UAEXABVioHashString@@00@Z:PROC ; ioWnd::AddTooltipHelp
EXTRN	?ParseExtraInfo@ioWnd@@UAEXAAVioXMLElement@@@Z:PROC ; ioWnd::ParseExtraInfo
EXTRN	?AddNamedRenderImage@ioWnd@@UAEXABVioHashString@@PAVioUIRenderImage@@@Z:PROC ; ioWnd::AddNamedRenderImage
EXTRN	?RemoveNamedRenderImage@ioWnd@@UAEXABVioHashString@@@Z:PROC ; ioWnd::RemoveNamedRenderImage
EXTRN	?GetNamedRenderImage@ioWnd@@UBEPAVioUIRenderImage@@ABVioHashString@@@Z:PROC ; ioWnd::GetNamedRenderImage
EXTRN	?SetWindowAlpha@ioWnd@@UAEXH@Z:PROC		; ioWnd::SetWindowAlpha
EXTRN	?SetActive@ioWnd@@UAEXXZ:PROC			; ioWnd::SetActive
EXTRN	?SetInActive@ioWnd@@UAEXXZ:PROC			; ioWnd::SetInActive
EXTRN	?ClearElementImageList@ioWnd@@UAEXXZ:PROC	; ioWnd::ClearElementImageList
EXTRN	?SetSize@ioWnd@@UAEXHH@Z:PROC			; ioWnd::SetSize
EXTRN	?SetPositionToDefault@ioWnd@@UAEXHH_N0@Z:PROC	; ioWnd::SetPositionToDefault
EXTRN	?IsNeedProcess@ioWnd@@UBE_NXZ:PROC		; ioWnd::IsNeedProcess
EXTRN	?IsCanMouseReaction@ioWnd@@UBE_NXZ:PROC		; ioWnd::IsCanMouseReaction
EXTRN	?AddChild@ioWnd@@UAEXPAV1@@Z:PROC		; ioWnd::AddChild
EXTRN	?DeleteChild@ioWnd@@UAEXK@Z:PROC		; ioWnd::DeleteChild
EXTRN	?DeleteAllChild@ioWnd@@UAEXXZ:PROC		; ioWnd::DeleteAllChild
EXTRN	?OnRenderShowAndHide@ioWnd@@MAE_NXZ:PROC	; ioWnd::OnRenderShowAndHide
EXTRN	?OnRenderShowAndHideByDefault@ioWnd@@MAE_NK@Z:PROC ; ioWnd::OnRenderShowAndHideByDefault
EXTRN	?OnRenderShowAndHideByTop@ioWnd@@MAE_NK@Z:PROC	; ioWnd::OnRenderShowAndHideByTop
EXTRN	?OnRenderShowAndHideByDown@ioWnd@@MAE_NK@Z:PROC	; ioWnd::OnRenderShowAndHideByDown
EXTRN	?OnRenderAfterChild@ioWnd@@MAEXXZ:PROC		; ioWnd::OnRenderAfterChild
EXTRN	?OnMouseProcess@ioWnd@@MAEXABVioMouse@@@Z:PROC	; ioWnd::OnMouseProcess
EXTRN	?CheckFrameReSize@ioWnd@@MAEXHHHH@Z:PROC	; ioWnd::CheckFrameReSize
EXTRN	?RenderImageList@ioWnd@@MAEXHHW4UIRenderType@@@Z:PROC ; ioWnd::RenderImageList
EXTRN	?iwm_create@ioWnd@@UAEXXZ:PROC			; ioWnd::iwm_create
EXTRN	?iwm_destroy@ioWnd@@UAEXXZ:PROC			; ioWnd::iwm_destroy
EXTRN	?iwm_lbuttondown@ioWnd@@UAEXABVioMouse@@@Z:PROC	; ioWnd::iwm_lbuttondown
EXTRN	?iwm_lbuttonup@ioWnd@@UAEXABVioMouse@@@Z:PROC	; ioWnd::iwm_lbuttonup
EXTRN	?iwm_lbuttonDBLCLK@ioWnd@@UAEXABVioMouse@@@Z:PROC ; ioWnd::iwm_lbuttonDBLCLK
EXTRN	?iwm_rbuttondown@ioWnd@@UAEXABVioMouse@@@Z:PROC	; ioWnd::iwm_rbuttondown
EXTRN	?iwm_rbuttonup@ioWnd@@UAEXABVioMouse@@@Z:PROC	; ioWnd::iwm_rbuttonup
EXTRN	?iwm_mouseover@ioWnd@@UAEXABVioMouse@@@Z:PROC	; ioWnd::iwm_mouseover
EXTRN	?iwm_mousemove@ioWnd@@UAEXABVioMouse@@@Z:PROC	; ioWnd::iwm_mousemove
EXTRN	?iwm_mouseleave@ioWnd@@UAEXABVioMouse@@@Z:PROC	; ioWnd::iwm_mouseleave
EXTRN	?iwm_vscroll@ioWnd@@UAEXKH@Z:PROC		; ioWnd::iwm_vscroll
EXTRN	?iwm_wheel@ioWnd@@UAEXH@Z:PROC			; ioWnd::iwm_wheel
EXTRN	?iwm_show@ioWnd@@UAEXXZ:PROC			; ioWnd::iwm_show
EXTRN	?iwm_hide@ioWnd@@UAEXXZ:PROC			; ioWnd::iwm_hide
EXTRN	?iwm_esc@ioWnd@@UAE_NXZ:PROC			; ioWnd::iwm_esc
EXTRN	?iwm_gototop@ioWnd@@UAEXXZ:PROC			; ioWnd::iwm_gototop
EXTRN	?iwm_dragenter@ioWnd@@UAE?AW4IWDropEffect@@PAVioDragItem@@ABVioMouse@@@Z:PROC ; ioWnd::iwm_dragenter
EXTRN	?iwm_dragover@ioWnd@@UAE?AW4IWDropEffect@@PAVioDragItem@@ABVioMouse@@@Z:PROC ; ioWnd::iwm_dragover
EXTRN	?iwm_dragleave@ioWnd@@UAEXXZ:PROC		; ioWnd::iwm_dragleave
EXTRN	?iwm_dropitem@ioWnd@@UAE_NPAVioDragItem@@ABVioMouse@@PAV1@@Z:PROC ; ioWnd::iwm_dropitem
EXTRN	?iwm_dropdone@ioWnd@@UAEXPAVioDragItem@@PAV1@_N@Z:PROC ; ioWnd::iwm_dropdone
EXTRN	?IsEXType@ioWnd@@UBE_NXZ:PROC			; ioWnd::IsEXType
EXTRN	?GetWndType@ioWnd@@UBEKXZ:PROC			; ioWnd::GetWndType
EXTRN	?RenderWnd@ioWnd@@UAEXXZ:PROC			; ioWnd::RenderWnd
EXTRN	?SetIDEX@ioWnd@@UAEXAAK_N@Z:PROC		; ioWnd::SetIDEX
EXTRN	?ParseXML@ioWnd@@UAEXAAVioXMLElement@@@Z:PROC	; ioWnd::ParseXML
EXTRN	?GetHeaderFileName@ioWnd@@UAEPBDXZ:PROC		; ioWnd::GetHeaderFileName
EXTRN	?GetTemplateName@ioWnd@@UAEPBDXZ:PROC		; ioWnd::GetTemplateName
EXTRN	?GetDefClassName@ioWnd@@UBEPBDXZ:PROC		; ioWnd::GetDefClassName
EXTRN	?_Clone@ioWnd@@UAEPAV1@XZ:PROC			; ioWnd::_Clone
EXTRN	?Copy@ioWnd@@UAEXPAV1@@Z:PROC			; ioWnd::Copy
EXTRN	?Save@ioWnd@@UAE_NAAVioXMLElement@@@Z:PROC	; ioWnd::Save
EXTRN	?SetSaveData@ioWnd@@UAEXAAVioXMLElement@@@Z:PROC ; ioWnd::SetSaveData
EXTRN	?SetPosX@ioWnd@@UAEXH@Z:PROC			; ioWnd::SetPosX
EXTRN	?SetPosY@ioWnd@@UAEXH@Z:PROC			; ioWnd::SetPosY
EXTRN	?SetWidth@ioWnd@@UAEXH@Z:PROC			; ioWnd::SetWidth
EXTRN	?SetHeight@ioWnd@@UAEXH@Z:PROC			; ioWnd::SetHeight
EXTRN	?GetNumFixedRenderFrame@ioWnd@@UBEHXZ:PROC	; ioWnd::GetNumFixedRenderFrame
EXTRN	?GetFixedRenderFrameType@ioWnd@@UAEPBDH@Z:PROC	; ioWnd::GetFixedRenderFrameType
EXTRN	?GetRenderFrame@ioWnd@@UAEPAPAVioUIRenderElement@@PBD@Z:PROC ; ioWnd::GetRenderFrame
EXTRN	?GetNumFixedRenderImage@ioWnd@@UBEHXZ:PROC	; ioWnd::GetNumFixedRenderImage
EXTRN	?GetFixedRenderImageType@ioWnd@@UAEPBDH@Z:PROC	; ioWnd::GetFixedRenderImageType
EXTRN	?GetRenderImage@ioWnd@@UAEPAPAVioUIRenderElement@@PBD@Z:PROC ; ioWnd::GetRenderImage
EXTRN	?AddEffect@ioWnd@@UAEXABVioHashString@@PAVioUI3DEffectRender@@@Z:PROC ; ioWnd::AddEffect
EXTRN	?GetEffect@ioWnd@@UAEPAVioUI3DEffectRender@@VioHashString@@@Z:PROC ; ioWnd::GetEffect
EXTRN	??_EEvnetChildrenDay@@UAEPAXI@Z:PROC		; EvnetChildrenDay::`vector deleting destructor'
;	COMDAT ??_R2ioWnd@@8
rdata$r	SEGMENT
??_R2ioWnd@@8 DD FLAT:??_R1A@?0A@EA@ioWnd@@8		; ioWnd::`RTTI Base Class Array'
rdata$r	ENDS
;	COMDAT ??_R3ioWnd@@8
rdata$r	SEGMENT
??_R3ioWnd@@8 DD 00H					; ioWnd::`RTTI Class Hierarchy Descriptor'
	DD	00H
	DD	01H
	DD	FLAT:??_R2ioWnd@@8
rdata$r	ENDS
;	COMDAT ??_R0?AVioWnd@@@8
_DATA	SEGMENT
??_R0?AVioWnd@@@8 DD FLAT:??_7type_info@@6B@		; ioWnd `RTTI Type Descriptor'
	DD	00H
	DB	'.?AVioWnd@@', 00H
_DATA	ENDS
;	COMDAT ??_R1A@?0A@EA@ioWnd@@8
rdata$r	SEGMENT
??_R1A@?0A@EA@ioWnd@@8 DD FLAT:??_R0?AVioWnd@@@8	; ioWnd::`RTTI Base Class Descriptor at (0,-1,0,64)'
	DD	00H
	DD	00H
	DD	0ffffffffH
	DD	00H
	DD	040H
	DD	FLAT:??_R3ioWnd@@8
rdata$r	ENDS
;	COMDAT ??_R1A@?0A@EA@EvnetChildrenDay@@8
rdata$r	SEGMENT
??_R1A@?0A@EA@EvnetChildrenDay@@8 DD FLAT:??_R0?AVEvnetChildrenDay@@@8 ; EvnetChildrenDay::`RTTI Base Class Descriptor at (0,-1,0,64)'
	DD	01H
	DD	00H
	DD	0ffffffffH
	DD	00H
	DD	040H
	DD	FLAT:??_R3EvnetChildrenDay@@8
rdata$r	ENDS
;	COMDAT ??_R2EvnetChildrenDay@@8
rdata$r	SEGMENT
??_R2EvnetChildrenDay@@8 DD FLAT:??_R1A@?0A@EA@EvnetChildrenDay@@8 ; EvnetChildrenDay::`RTTI Base Class Array'
	DD	FLAT:??_R1A@?0A@EA@ioWnd@@8
rdata$r	ENDS
;	COMDAT ??_R3EvnetChildrenDay@@8
rdata$r	SEGMENT
??_R3EvnetChildrenDay@@8 DD 00H				; EvnetChildrenDay::`RTTI Class Hierarchy Descriptor'
	DD	00H
	DD	02H
	DD	FLAT:??_R2EvnetChildrenDay@@8
rdata$r	ENDS
;	COMDAT ??_R0?AVEvnetChildrenDay@@@8
_DATA	SEGMENT
??_R0?AVEvnetChildrenDay@@@8 DD FLAT:??_7type_info@@6B@	; EvnetChildrenDay `RTTI Type Descriptor'
	DD	00H
	DB	'.?AVEvnetChildrenDay@@', 00H
_DATA	ENDS
;	COMDAT ??_R4EvnetChildrenDay@@6B@
rdata$r	SEGMENT
??_R4EvnetChildrenDay@@6B@ DD 00H			; EvnetChildrenDay::`RTTI Complete Object Locator'
	DD	00H
	DD	00H
	DD	FLAT:??_R0?AVEvnetChildrenDay@@@8
	DD	FLAT:??_R3EvnetChildrenDay@@8
rdata$r	ENDS
;	COMDAT ??_7EvnetChildrenDay@@6B@
CONST	SEGMENT
??_7EvnetChildrenDay@@6B@ DD FLAT:??_R4EvnetChildrenDay@@6B@ ; EvnetChildrenDay::`vftable'
	DD	FLAT:?AddRenderFrame@ioWnd@@UAEXABVioHashString@@PAVioUIRenderFrame@@@Z
	DD	FLAT:?AddRenderImage@ioWnd@@UAEXABVioHashString@@PAVioUIRenderImage@@@Z
	DD	FLAT:?AddTooltipHelp@ioWnd@@UAEXABVioHashString@@00@Z
	DD	FLAT:?ParseExtraInfo@ioWnd@@UAEXAAVioXMLElement@@@Z
	DD	FLAT:?AddNamedRenderImage@ioWnd@@UAEXABVioHashString@@PAVioUIRenderImage@@@Z
	DD	FLAT:?RemoveNamedRenderImage@ioWnd@@UAEXABVioHashString@@@Z
	DD	FLAT:?GetNamedRenderImage@ioWnd@@UBEPAVioUIRenderImage@@ABVioHashString@@@Z
	DD	FLAT:?SetWindowAlpha@ioWnd@@UAEXH@Z
	DD	FLAT:?SetActive@ioWnd@@UAEXXZ
	DD	FLAT:?SetInActive@ioWnd@@UAEXXZ
	DD	FLAT:?ClearElementImageList@ioWnd@@UAEXXZ
	DD	FLAT:?SetSize@ioWnd@@UAEXHH@Z
	DD	FLAT:?SetPositionToDefault@ioWnd@@UAEXHH_N0@Z
	DD	FLAT:?IsNeedProcess@ioWnd@@UBE_NXZ
	DD	FLAT:?IsCanMouseReaction@ioWnd@@UBE_NXZ
	DD	FLAT:?AddChild@ioWnd@@UAEXPAV1@@Z
	DD	FLAT:?DeleteChild@ioWnd@@UAEXK@Z
	DD	FLAT:?DeleteAllChild@ioWnd@@UAEXXZ
	DD	FLAT:?OnRenderShowAndHide@ioWnd@@MAE_NXZ
	DD	FLAT:?OnRenderShowAndHideByDefault@ioWnd@@MAE_NK@Z
	DD	FLAT:?OnRenderShowAndHideByTop@ioWnd@@MAE_NK@Z
	DD	FLAT:?OnRenderShowAndHideByDown@ioWnd@@MAE_NK@Z
	DD	FLAT:?OnRender@EvnetChildrenDay@@MAEXXZ
	DD	FLAT:?OnRenderAfterChild@ioWnd@@MAEXXZ
	DD	FLAT:?OnProcess@EvnetChildrenDay@@MAEXM@Z
	DD	FLAT:?OnMouseProcess@ioWnd@@MAEXABVioMouse@@@Z
	DD	FLAT:?CheckFrameReSize@ioWnd@@MAEXHHHH@Z
	DD	FLAT:?RenderImageList@ioWnd@@MAEXHHW4UIRenderType@@@Z
	DD	FLAT:?iwm_create@ioWnd@@UAEXXZ
	DD	FLAT:?iwm_destroy@ioWnd@@UAEXXZ
	DD	FLAT:?iwm_lbuttondown@ioWnd@@UAEXABVioMouse@@@Z
	DD	FLAT:?iwm_lbuttonup@ioWnd@@UAEXABVioMouse@@@Z
	DD	FLAT:?iwm_lbuttonDBLCLK@ioWnd@@UAEXABVioMouse@@@Z
	DD	FLAT:?iwm_rbuttondown@ioWnd@@UAEXABVioMouse@@@Z
	DD	FLAT:?iwm_rbuttonup@ioWnd@@UAEXABVioMouse@@@Z
	DD	FLAT:?iwm_command@EvnetChildrenDay@@UAEXPAVioWnd@@HK@Z
	DD	FLAT:?iwm_mouseover@ioWnd@@UAEXABVioMouse@@@Z
	DD	FLAT:?iwm_mousemove@ioWnd@@UAEXABVioMouse@@@Z
	DD	FLAT:?iwm_mouseleave@ioWnd@@UAEXABVioMouse@@@Z
	DD	FLAT:?iwm_vscroll@ioWnd@@UAEXKH@Z
	DD	FLAT:?iwm_wheel@ioWnd@@UAEXH@Z
	DD	FLAT:?iwm_show@ioWnd@@UAEXXZ
	DD	FLAT:?iwm_hide@ioWnd@@UAEXXZ
	DD	FLAT:?iwm_esc@ioWnd@@UAE_NXZ
	DD	FLAT:?iwm_spacebar@EvnetChildrenDay@@UAE_NXZ
	DD	FLAT:?iwm_gototop@ioWnd@@UAEXXZ
	DD	FLAT:?iwm_dragenter@ioWnd@@UAE?AW4IWDropEffect@@PAVioDragItem@@ABVioMouse@@@Z
	DD	FLAT:?iwm_dragover@ioWnd@@UAE?AW4IWDropEffect@@PAVioDragItem@@ABVioMouse@@@Z
	DD	FLAT:?iwm_dragleave@ioWnd@@UAEXXZ
	DD	FLAT:?iwm_dropitem@ioWnd@@UAE_NPAVioDragItem@@ABVioMouse@@PAV1@@Z
	DD	FLAT:?iwm_dropdone@ioWnd@@UAEXPAVioDragItem@@PAV1@_N@Z
	DD	FLAT:?IsEXType@ioWnd@@UBE_NXZ
	DD	FLAT:?GetWndType@ioWnd@@UBEKXZ
	DD	FLAT:?RenderWnd@ioWnd@@UAEXXZ
	DD	FLAT:?SetIDEX@ioWnd@@UAEXAAK_N@Z
	DD	FLAT:?ParseXML@ioWnd@@UAEXAAVioXMLElement@@@Z
	DD	FLAT:?GetHeaderFileName@ioWnd@@UAEPBDXZ
	DD	FLAT:?GetTemplateName@ioWnd@@UAEPBDXZ
	DD	FLAT:?GetDefClassName@ioWnd@@UBEPBDXZ
	DD	FLAT:?_Clone@ioWnd@@UAEPAV1@XZ
	DD	FLAT:?Copy@ioWnd@@UAEXPAV1@@Z
	DD	FLAT:?Save@ioWnd@@UAE_NAAVioXMLElement@@@Z
	DD	FLAT:?SetSaveData@ioWnd@@UAEXAAVioXMLElement@@@Z
	DD	FLAT:?SetPosX@ioWnd@@UAEXH@Z
	DD	FLAT:?SetPosY@ioWnd@@UAEXH@Z
	DD	FLAT:?SetWidth@ioWnd@@UAEXH@Z
	DD	FLAT:?SetHeight@ioWnd@@UAEXH@Z
	DD	FLAT:?GetNumFixedRenderFrame@ioWnd@@UBEHXZ
	DD	FLAT:?GetFixedRenderFrameType@ioWnd@@UAEPBDH@Z
	DD	FLAT:?GetRenderFrame@ioWnd@@UAEPAPAVioUIRenderElement@@PBD@Z
	DD	FLAT:?GetNumFixedRenderImage@ioWnd@@UBEHXZ
	DD	FLAT:?GetFixedRenderImageType@ioWnd@@UAEPBDH@Z
	DD	FLAT:?GetRenderImage@ioWnd@@UAEPAPAVioUIRenderElement@@PBD@Z
	DD	FLAT:?AddEffect@ioWnd@@UAEXABVioHashString@@PAVioUI3DEffectRender@@@Z
	DD	FLAT:?GetEffect@ioWnd@@UAEPAVioUI3DEffectRender@@VioHashString@@@Z
	DD	FLAT:??_EEvnetChildrenDay@@UAEPAXI@Z
; Function compile flags: /Ogsp
CONST	ENDS
;	COMDAT ??0EvnetChildrenDay@@QAE@XZ
_TEXT	SEGMENT
??0EvnetChildrenDay@@QAE@XZ PROC			; EvnetChildrenDay::EvnetChildrenDay, COMDAT
; _this$ = ecx

; 427  : {

  00000	56		 push	 esi
  00001	8b f1		 mov	 esi, ecx
  00003	ff 15 00 00 00
	00		 call	 DWORD PTR __imp_??0ioWnd@@QAE@XZ

; 428  : 	m_pPlayStage = NULL;

  00009	83 a6 60 01 00
	00 00		 and	 DWORD PTR [esi+352], 0
  00010	c7 06 00 00 00
	00		 mov	 DWORD PTR [esi], OFFSET ??_7EvnetChildrenDay@@6B@

; 429  : }

  00016	8b c6		 mov	 eax, esi
  00018	5e		 pop	 esi
  00019	c3		 ret	 0
??0EvnetChildrenDay@@QAE@XZ ENDP			; EvnetChildrenDay::EvnetChildrenDay
_TEXT	ENDS
PUBLIC	??1EvnetChildrenDay@@UAE@XZ			; EvnetChildrenDay::~EvnetChildrenDay
EXTRN	__imp_??1ioWnd@@UAE@XZ:PROC
; Function compile flags: /Ogsp
;	COMDAT ??1EvnetChildrenDay@@UAE@XZ
_TEXT	SEGMENT
??1EvnetChildrenDay@@UAE@XZ PROC			; EvnetChildrenDay::~EvnetChildrenDay, COMDAT
; _this$ = ecx

; 432  : {

  00000	c7 01 00 00 00
	00		 mov	 DWORD PTR [ecx], OFFSET ??_7EvnetChildrenDay@@6B@

; 433  : 
; 434  : }

  00006	ff 25 00 00 00
	00		 jmp	 DWORD PTR __imp_??1ioWnd@@UAE@XZ
??1EvnetChildrenDay@@UAE@XZ ENDP			; EvnetChildrenDay::~EvnetChildrenDay
_TEXT	ENDS
PUBLIC	__real@3f266666
PUBLIC	??_C@_0BL@NLNAJGKP@EvnetChildrenDay?3?3OnRender?$AA@ ; `string'
EXTRN	__imp_?PrintText@ioFontManager@@QAAXMMMPBDZZ:PROC
EXTRN	__imp_?SetTextColor@ioFontManager@@QAEXK@Z:PROC
EXTRN	__imp_?SetBkColor@ioFontManager@@QAEXHHH@Z:PROC
EXTRN	__imp_?SetAlignType@ioFontManager@@QAEXW4TextAlignType@@@Z:PROC
EXTRN	__imp_?SetTextStyle@ioFontManager@@QAEXW4TextStyle@@@Z:PROC
EXTRN	__imp_?GetSingleton@ioFontManager@@SAAAV1@XZ:PROC
;	COMDAT __real@3f266666
CONST	SEGMENT
__real@3f266666 DD 03f266666r			; 0.65
CONST	ENDS
;	COMDAT ??_C@_0BL@NLNAJGKP@EvnetChildrenDay?3?3OnRender?$AA@
CONST	SEGMENT
??_C@_0BL@NLNAJGKP@EvnetChildrenDay?3?3OnRender?$AA@ DB 'EvnetChildrenDay'
	DB	'::OnRender', 00H				; `string'
; Function compile flags: /Ogsp
CONST	ENDS
;	COMDAT ?OnRender@EvnetChildrenDay@@MAEXXZ
_TEXT	SEGMENT
tv227 = -8						; size = 4
_iYPos$ = -4						; size = 4
?OnRender@EvnetChildrenDay@@MAEXXZ PROC			; EvnetChildrenDay::OnRender, COMDAT
; _this$ = ecx

; 464  : {

  00000	55		 push	 ebp
  00001	8b ec		 mov	 ebp, esp
  00003	51		 push	 ecx
  00004	51		 push	 ecx
  00005	53		 push	 ebx
  00006	56		 push	 esi
  00007	57		 push	 edi
  00008	8b f1		 mov	 esi, ecx

; 465  : 	ioWnd::OnRender();

  0000a	ff 15 00 00 00
	00		 call	 DWORD PTR __imp_?OnRender@ioWnd@@MAEXXZ

; 466  : 
; 467  : 	int iXPos, iYPos;
; 468  : 	iXPos = GetDerivedPosX();

  00010	8b ce		 mov	 ecx, esi
  00012	ff 15 00 00 00
	00		 call	 DWORD PTR __imp_?GetDerivedPosX@ioWnd@@QBEHXZ

; 469  : 	iYPos = GetDerivedPosY();

  00018	8b ce		 mov	 ecx, esi
  0001a	8b f8		 mov	 edi, eax
  0001c	ff 15 00 00 00
	00		 call	 DWORD PTR __imp_?GetDerivedPosY@ioWnd@@QBEHXZ

; 470  : 
; 471  : 	g_FontMgr.SetTextStyle( TS_OUTLINE_FULL_2X );

  00022	8b 35 00 00 00
	00		 mov	 esi, DWORD PTR __imp_?GetSingleton@ioFontManager@@SAAAV1@XZ
  00028	6a 05		 push	 5
  0002a	89 45 fc	 mov	 DWORD PTR _iYPos$[ebp], eax
  0002d	ff d6		 call	 esi
  0002f	8b c8		 mov	 ecx, eax
  00031	ff 15 00 00 00
	00		 call	 DWORD PTR __imp_?SetTextStyle@ioFontManager@@QAEXW4TextStyle@@@Z

; 472  : 	g_FontMgr.SetAlignType( TAT_LEFT );

  00037	33 db		 xor	 ebx, ebx
  00039	53		 push	 ebx
  0003a	ff d6		 call	 esi
  0003c	8b c8		 mov	 ecx, eax
  0003e	ff 15 00 00 00
	00		 call	 DWORD PTR __imp_?SetAlignType@ioFontManager@@QAEXW4TextAlignType@@@Z

; 473  : 	g_FontMgr.SetBkColor( 0, 0, 0 );

  00044	53		 push	 ebx
  00045	53		 push	 ebx
  00046	53		 push	 ebx
  00047	ff d6		 call	 esi
  00049	8b c8		 mov	 ecx, eax
  0004b	ff 15 00 00 00
	00		 call	 DWORD PTR __imp_?SetBkColor@ioFontManager@@QAEXHHH@Z

; 474  : 	g_FontMgr.SetTextColor( TCT_DEFAULT_GRAY );

  00051	68 6e 6e 6e ff	 push	 -9539986		; ff6e6e6eH
  00056	ff d6		 call	 esi
  00058	8b c8		 mov	 ecx, eax
  0005a	ff 15 00 00 00
	00		 call	 DWORD PTR __imp_?SetTextColor@ioFontManager@@QAEXK@Z

; 475  : 
; 476  : 	g_FontMgr.PrintText( iXPos + 18, iYPos + 266, FONT_SIZE_13, STR(1) );

  00060	53		 push	 ebx
  00061	6a 01		 push	 1
  00063	83 c7 12	 add	 edi, 18			; 00000012H
  00066	0f 57 c0	 xorps	 xmm0, xmm0
  00069	f3 0f 2a c7	 cvtsi2ss xmm0, edi
  0006d	8b 3d 00 00 00
	00		 mov	 edi, DWORD PTR __imp_?GetSingleton@ioStringManager@@SAAAV1@XZ
  00073	68 00 00 00 00	 push	 OFFSET ??_C@_00CNPNBAHC@?$AA@
  00078	68 00 00 00 00	 push	 OFFSET ??_C@_0BL@NLNAJGKP@EvnetChildrenDay?3?3OnRender?$AA@
  0007d	f3 0f 11 45 f8	 movss	 DWORD PTR tv227[ebp], xmm0
  00082	ff d7		 call	 edi
  00084	8b 1d 00 00 00
	00		 mov	 ebx, DWORD PTR __imp_?GetString@ioStringManager@@QAEPADPBD0HW4FileNamePrefix@1@@Z
  0008a	8b c8		 mov	 ecx, eax
  0008c	ff d3		 call	 ebx
  0008e	f3 0f 10 05 00
	00 00 00	 movss	 xmm0, DWORD PTR __real@3f266666
  00096	50		 push	 eax
  00097	8b 45 fc	 mov	 eax, DWORD PTR _iYPos$[ebp]
  0009a	83 ec 0c	 sub	 esp, 12			; 0000000cH
  0009d	f3 0f 11 44 24
	08		 movss	 DWORD PTR [esp+8], xmm0
  000a3	05 0a 01 00 00	 add	 eax, 266		; 0000010aH
  000a8	0f 57 c0	 xorps	 xmm0, xmm0
  000ab	f3 0f 2a c0	 cvtsi2ss xmm0, eax
  000af	f3 0f 11 44 24
	04		 movss	 DWORD PTR [esp+4], xmm0
  000b5	f3 0f 10 45 f8	 movss	 xmm0, DWORD PTR tv227[ebp]
  000ba	f3 0f 11 04 24	 movss	 DWORD PTR [esp], xmm0
  000bf	ff d6		 call	 esi
  000c1	50		 push	 eax
  000c2	ff 15 00 00 00
	00		 call	 DWORD PTR __imp_?PrintText@ioFontManager@@QAAXMMMPBDZZ
  000c8	83 c4 14	 add	 esp, 20			; 00000014H

; 477  : 	g_FontMgr.PrintText( iXPos + 18, iYPos + 286, FONT_SIZE_13, STR(2) );

  000cb	6a 00		 push	 0
  000cd	6a 02		 push	 2
  000cf	68 00 00 00 00	 push	 OFFSET ??_C@_00CNPNBAHC@?$AA@
  000d4	68 00 00 00 00	 push	 OFFSET ??_C@_0BL@NLNAJGKP@EvnetChildrenDay?3?3OnRender?$AA@
  000d9	ff d7		 call	 edi
  000db	8b c8		 mov	 ecx, eax
  000dd	ff d3		 call	 ebx
  000df	f3 0f 10 05 00
	00 00 00	 movss	 xmm0, DWORD PTR __real@3f266666
  000e7	50		 push	 eax
  000e8	8b 45 fc	 mov	 eax, DWORD PTR _iYPos$[ebp]
  000eb	83 ec 0c	 sub	 esp, 12			; 0000000cH
  000ee	f3 0f 11 44 24
	08		 movss	 DWORD PTR [esp+8], xmm0
  000f4	05 1e 01 00 00	 add	 eax, 286		; 0000011eH
  000f9	0f 57 c0	 xorps	 xmm0, xmm0
  000fc	f3 0f 2a c0	 cvtsi2ss xmm0, eax
  00100	f3 0f 11 44 24
	04		 movss	 DWORD PTR [esp+4], xmm0
  00106	f3 0f 10 45 f8	 movss	 xmm0, DWORD PTR tv227[ebp]
  0010b	f3 0f 11 04 24	 movss	 DWORD PTR [esp], xmm0
  00110	ff d6		 call	 esi
  00112	50		 push	 eax
  00113	ff 15 00 00 00
	00		 call	 DWORD PTR __imp_?PrintText@ioFontManager@@QAAXMMMPBDZZ
  00119	83 c4 14	 add	 esp, 20			; 00000014H

; 478  : 	g_FontMgr.PrintText( iXPos + 18, iYPos + 306, FONT_SIZE_13, STR(3) );

  0011c	6a 00		 push	 0
  0011e	6a 03		 push	 3
  00120	68 00 00 00 00	 push	 OFFSET ??_C@_00CNPNBAHC@?$AA@
  00125	68 00 00 00 00	 push	 OFFSET ??_C@_0BL@NLNAJGKP@EvnetChildrenDay?3?3OnRender?$AA@
  0012a	ff d7		 call	 edi
  0012c	8b c8		 mov	 ecx, eax
  0012e	ff d3		 call	 ebx
  00130	f3 0f 10 05 00
	00 00 00	 movss	 xmm0, DWORD PTR __real@3f266666
  00138	50		 push	 eax
  00139	8b 45 fc	 mov	 eax, DWORD PTR _iYPos$[ebp]
  0013c	83 ec 0c	 sub	 esp, 12			; 0000000cH
  0013f	f3 0f 11 44 24
	08		 movss	 DWORD PTR [esp+8], xmm0
  00145	05 32 01 00 00	 add	 eax, 306		; 00000132H
  0014a	0f 57 c0	 xorps	 xmm0, xmm0
  0014d	f3 0f 2a c0	 cvtsi2ss xmm0, eax
  00151	f3 0f 11 44 24
	04		 movss	 DWORD PTR [esp+4], xmm0
  00157	f3 0f 10 45 f8	 movss	 xmm0, DWORD PTR tv227[ebp]
  0015c	f3 0f 11 04 24	 movss	 DWORD PTR [esp], xmm0
  00161	ff d6		 call	 esi
  00163	50		 push	 eax
  00164	ff 15 00 00 00
	00		 call	 DWORD PTR __imp_?PrintText@ioFontManager@@QAAXMMMPBDZZ
  0016a	83 c4 14	 add	 esp, 20			; 00000014H

; 479  : 
; 480  : 	g_FontMgr.SetTextColor( TCT_DEFAULT_DARKGRAY ); // 주황

  0016d	68 3a 3a 3a ff	 push	 -12961222		; ff3a3a3aH
  00172	ff d6		 call	 esi
  00174	8b c8		 mov	 ecx, eax
  00176	ff 15 00 00 00
	00		 call	 DWORD PTR __imp_?SetTextColor@ioFontManager@@QAEXK@Z

; 481  : 	g_FontMgr.PrintText( iXPos + 18, iYPos + 326, FONT_SIZE_13, STR(4) );

  0017c	6a 00		 push	 0
  0017e	6a 04		 push	 4
  00180	68 00 00 00 00	 push	 OFFSET ??_C@_00CNPNBAHC@?$AA@
  00185	68 00 00 00 00	 push	 OFFSET ??_C@_0BL@NLNAJGKP@EvnetChildrenDay?3?3OnRender?$AA@
  0018a	ff d7		 call	 edi
  0018c	8b c8		 mov	 ecx, eax
  0018e	ff d3		 call	 ebx
  00190	f3 0f 10 05 00
	00 00 00	 movss	 xmm0, DWORD PTR __real@3f266666
  00198	50		 push	 eax
  00199	8b 45 fc	 mov	 eax, DWORD PTR _iYPos$[ebp]
  0019c	83 ec 0c	 sub	 esp, 12			; 0000000cH
  0019f	f3 0f 11 44 24
	08		 movss	 DWORD PTR [esp+8], xmm0
  001a5	05 46 01 00 00	 add	 eax, 326		; 00000146H
  001aa	0f 57 c0	 xorps	 xmm0, xmm0
  001ad	f3 0f 2a c0	 cvtsi2ss xmm0, eax
  001b1	f3 0f 11 44 24
	04		 movss	 DWORD PTR [esp+4], xmm0
  001b7	f3 0f 10 45 f8	 movss	 xmm0, DWORD PTR tv227[ebp]
  001bc	f3 0f 11 04 24	 movss	 DWORD PTR [esp], xmm0
  001c1	ff d6		 call	 esi
  001c3	50		 push	 eax
  001c4	ff 15 00 00 00
	00		 call	 DWORD PTR __imp_?PrintText@ioFontManager@@QAAXMMMPBDZZ
  001ca	83 c4 14	 add	 esp, 20			; 00000014H
  001cd	5f		 pop	 edi
  001ce	5e		 pop	 esi
  001cf	5b		 pop	 ebx

; 482  : }

  001d0	c9		 leave
  001d1	c3		 ret	 0
?OnRender@EvnetChildrenDay@@MAEXXZ ENDP			; EvnetChildrenDay::OnRender
_TEXT	ENDS
EXTRN	__imp_?ShowWnd@ioWnd@@QAEXXZ:PROC
EXTRN	?IsAlive@ioEventManager@@QAE_NW4EventType@@W4ChannelingType@@@Z:PROC ; ioEventManager::IsAlive
EXTRN	?GetSingleton@ioEventManager@@SAAAV1@XZ:PROC	; ioEventManager::GetSingleton
EXTRN	?GetChannelingType@ioMyInfo@@QBE?AW4ChannelingType@@XZ:PROC ; ioMyInfo::GetChannelingType
EXTRN	?GetSingleton@ioMyInfo@@SAAAV1@XZ:PROC		; ioMyInfo::GetSingleton
; Function compile flags: /Ogsp
;	COMDAT ?OnProcess@EvnetChildrenDay@@MAEXM@Z
_TEXT	SEGMENT
_fTimePerSec$ = 8					; size = 4
?OnProcess@EvnetChildrenDay@@MAEXM@Z PROC		; EvnetChildrenDay::OnProcess, COMDAT
; _this$ = ecx

; 486  : 	if( m_bAutoShow && !IsShow() )

  00000	80 3d 00 00 00
	00 00		 cmp	 BYTE PTR ?m_bAutoShow@EvnetChildrenDay@@1_NA, 0 ; EvnetChildrenDay::m_bAutoShow
  00007	56		 push	 esi
  00008	8b f1		 mov	 esi, ecx
  0000a	74 38		 je	 SHORT $LN2@OnProcess
  0000c	ff 15 00 00 00
	00		 call	 DWORD PTR __imp_?IsShow@ioWnd@@QBE_NXZ
  00012	84 c0		 test	 al, al
  00014	75 2e		 jne	 SHORT $LN2@OnProcess

; 487  : 	{
; 488  : 		if( !g_EventMgr.IsAlive( EVT_CHILDRENDAY, g_MyInfo.GetChannelingType() ) )

  00016	e8 00 00 00 00	 call	 ?GetSingleton@ioMyInfo@@SAAAV1@XZ ; ioMyInfo::GetSingleton
  0001b	8b c8		 mov	 ecx, eax
  0001d	e8 00 00 00 00	 call	 ?GetChannelingType@ioMyInfo@@QBE?AW4ChannelingType@@XZ ; ioMyInfo::GetChannelingType
  00022	50		 push	 eax
  00023	6a 06		 push	 6
  00025	e8 00 00 00 00	 call	 ?GetSingleton@ioEventManager@@SAAAV1@XZ ; ioEventManager::GetSingleton
  0002a	8b c8		 mov	 ecx, eax
  0002c	e8 00 00 00 00	 call	 ?IsAlive@ioEventManager@@QAE_NW4EventType@@W4ChannelingType@@@Z ; ioEventManager::IsAlive
  00031	84 c0		 test	 al, al

; 489  : 		{
; 490  : 			m_bAutoShow = false;
; 491  : 			return;

  00033	74 08		 je	 SHORT $LN5@OnProcess

; 492  : 		}
; 493  : 
; 494  : 		ShowWnd();

  00035	8b ce		 mov	 ecx, esi
  00037	ff 15 00 00 00
	00		 call	 DWORD PTR __imp_?ShowWnd@ioWnd@@QAEXXZ
$LN5@OnProcess:

; 495  : 		m_bAutoShow = false;

  0003d	c6 05 00 00 00
	00 00		 mov	 BYTE PTR ?m_bAutoShow@EvnetChildrenDay@@1_NA, 0 ; EvnetChildrenDay::m_bAutoShow
$LN2@OnProcess:
  00044	5e		 pop	 esi

; 496  : 	}
; 497  : }

  00045	c2 04 00	 ret	 4
?OnProcess@EvnetChildrenDay@@MAEXM@Z ENDP		; EvnetChildrenDay::OnProcess
; Function compile flags: /Ogsp
_TEXT	ENDS
;	COMDAT ?iwm_spacebar@EvnetChildrenDay@@UAE_NXZ
_TEXT	SEGMENT
?iwm_spacebar@EvnetChildrenDay@@UAE_NXZ PROC		; EvnetChildrenDay::iwm_spacebar, COMDAT
; _this$ = ecx

; 500  : {

  00000	56		 push	 esi
  00001	57		 push	 edi

; 501  : 	ioWnd *pBtn = FindChildWnd( ID_ACTION );

  00002	6a 03		 push	 3
  00004	8b f1		 mov	 esi, ecx
  00006	ff 15 00 00 00
	00		 call	 DWORD PTR __imp_?FindChildWnd@ioWnd@@QAEPAV1@K@Z
  0000c	8b f8		 mov	 edi, eax

; 502  : 	if( !pBtn ) return false;

  0000e	85 ff		 test	 edi, edi
  00010	75 04		 jne	 SHORT $LN2@iwm_spaceb@2
$LN5@iwm_spaceb@2:
  00012	32 c0		 xor	 al, al
  00014	eb 1d		 jmp	 SHORT $LN3@iwm_spaceb@2
$LN2@iwm_spaceb@2:

; 503  : 	if( !pBtn->IsShow() ) return false;

  00016	8b cf		 mov	 ecx, edi
  00018	ff 15 00 00 00
	00		 call	 DWORD PTR __imp_?IsShow@ioWnd@@QBE_NXZ
  0001e	84 c0		 test	 al, al
  00020	74 f0		 je	 SHORT $LN5@iwm_spaceb@2

; 504  : 
; 505  : 	iwm_command( pBtn, IOBN_BTNUP, 0 );

  00022	8b 06		 mov	 eax, DWORD PTR [esi]
  00024	6a 00		 push	 0
  00026	6a 11		 push	 17			; 00000011H
  00028	57		 push	 edi
  00029	8b ce		 mov	 ecx, esi
  0002b	ff 90 8c 00 00
	00		 call	 DWORD PTR [eax+140]

; 506  : 	return true;

  00031	b0 01		 mov	 al, 1
$LN3@iwm_spaceb@2:

; 507  : }

  00033	5f		 pop	 edi
  00034	5e		 pop	 esi
  00035	c3		 ret	 0
?iwm_spacebar@EvnetChildrenDay@@UAE_NXZ ENDP		; EvnetChildrenDay::iwm_spacebar
_TEXT	ENDS
PUBLIC	?SetPlayStage@EvnetChildrenDay@@QAEXPAVioPlayStage@@@Z ; EvnetChildrenDay::SetPlayStage
; Function compile flags: /Ogsp
;	COMDAT ?SetPlayStage@EvnetChildrenDay@@QAEXPAVioPlayStage@@@Z
_TEXT	SEGMENT
_pPlayStage$ = 8					; size = 4
?SetPlayStage@EvnetChildrenDay@@QAEXPAVioPlayStage@@@Z PROC ; EvnetChildrenDay::SetPlayStage, COMDAT
; _this$ = ecx

; 510  : {

  00000	55		 push	 ebp
  00001	8b ec		 mov	 ebp, esp

; 511  : 	m_pPlayStage = pPlayStage;

  00003	8b 45 08	 mov	 eax, DWORD PTR _pPlayStage$[ebp]
  00006	89 81 60 01 00
	00		 mov	 DWORD PTR [ecx+352], eax

; 512  : }

  0000c	5d		 pop	 ebp
  0000d	c2 04 00	 ret	 4
?SetPlayStage@EvnetChildrenDay@@QAEXPAVioPlayStage@@@Z ENDP ; EvnetChildrenDay::SetPlayStage
_TEXT	ENDS
PUBLIC	??_7EventMortMainWnd@@6B@			; EventMortMainWnd::`vftable'
PUBLIC	??0EventMortMainWnd@@QAE@XZ			; EventMortMainWnd::EventMortMainWnd
PUBLIC	??_R4EventMortMainWnd@@6B@			; EventMortMainWnd::`RTTI Complete Object Locator'
PUBLIC	??_R0?AVEventMortMainWnd@@@8			; EventMortMainWnd `RTTI Type Descriptor'
PUBLIC	??_R3EventMortMainWnd@@8			; EventMortMainWnd::`RTTI Class Hierarchy Descriptor'
PUBLIC	??_R2EventMortMainWnd@@8			; EventMortMainWnd::`RTTI Base Class Array'
PUBLIC	??_R1A@?0A@EA@EventMortMainWnd@@8		; EventMortMainWnd::`RTTI Base Class Descriptor at (0,-1,0,64)'
PUBLIC	?OnRender@EventMortMainWnd@@MAEXXZ		; EventMortMainWnd::OnRender
PUBLIC	?OnProcess@EventMortMainWnd@@MAEXM@Z		; EventMortMainWnd::OnProcess
PUBLIC	?iwm_command@EventMortMainWnd@@UAEXPAVioWnd@@HK@Z ; EventMortMainWnd::iwm_command
PUBLIC	?iwm_hide@EventMortMainWnd@@UAEXXZ		; EventMortMainWnd::iwm_hide
EXTRN	?iwm_spacebar@ioWnd@@UAE_NXZ:PROC		; ioWnd::iwm_spacebar
EXTRN	??_EEventMortMainWnd@@UAEPAXI@Z:PROC		; EventMortMainWnd::`vector deleting destructor'
;	COMDAT ??_R1A@?0A@EA@EventMortMainWnd@@8
rdata$r	SEGMENT
??_R1A@?0A@EA@EventMortMainWnd@@8 DD FLAT:??_R0?AVEventMortMainWnd@@@8 ; EventMortMainWnd::`RTTI Base Class Descriptor at (0,-1,0,64)'
	DD	01H
	DD	00H
	DD	0ffffffffH
	DD	00H
	DD	040H
	DD	FLAT:??_R3EventMortMainWnd@@8
rdata$r	ENDS
;	COMDAT ??_R2EventMortMainWnd@@8
rdata$r	SEGMENT
??_R2EventMortMainWnd@@8 DD FLAT:??_R1A@?0A@EA@EventMortMainWnd@@8 ; EventMortMainWnd::`RTTI Base Class Array'
	DD	FLAT:??_R1A@?0A@EA@ioWnd@@8
rdata$r	ENDS
;	COMDAT ??_R3EventMortMainWnd@@8
rdata$r	SEGMENT
??_R3EventMortMainWnd@@8 DD 00H				; EventMortMainWnd::`RTTI Class Hierarchy Descriptor'
	DD	00H
	DD	02H
	DD	FLAT:??_R2EventMortMainWnd@@8
rdata$r	ENDS
;	COMDAT ??_R0?AVEventMortMainWnd@@@8
_DATA	SEGMENT
??_R0?AVEventMortMainWnd@@@8 DD FLAT:??_7type_info@@6B@	; EventMortMainWnd `RTTI Type Descriptor'
	DD	00H
	DB	'.?AVEventMortMainWnd@@', 00H
_DATA	ENDS
;	COMDAT ??_R4EventMortMainWnd@@6B@
rdata$r	SEGMENT
??_R4EventMortMainWnd@@6B@ DD 00H			; EventMortMainWnd::`RTTI Complete Object Locator'
	DD	00H
	DD	00H
	DD	FLAT:??_R0?AVEventMortMainWnd@@@8
	DD	FLAT:??_R3EventMortMainWnd@@8
rdata$r	ENDS
;	COMDAT ??_7EventMortMainWnd@@6B@
CONST	SEGMENT
??_7EventMortMainWnd@@6B@ DD FLAT:??_R4EventMortMainWnd@@6B@ ; EventMortMainWnd::`vftable'
	DD	FLAT:?AddRenderFrame@ioWnd@@UAEXABVioHashString@@PAVioUIRenderFrame@@@Z
	DD	FLAT:?AddRenderImage@ioWnd@@UAEXABVioHashString@@PAVioUIRenderImage@@@Z
	DD	FLAT:?AddTooltipHelp@ioWnd@@UAEXABVioHashString@@00@Z
	DD	FLAT:?ParseExtraInfo@ioWnd@@UAEXAAVioXMLElement@@@Z
	DD	FLAT:?AddNamedRenderImage@ioWnd@@UAEXABVioHashString@@PAVioUIRenderImage@@@Z
	DD	FLAT:?RemoveNamedRenderImage@ioWnd@@UAEXABVioHashString@@@Z
	DD	FLAT:?GetNamedRenderImage@ioWnd@@UBEPAVioUIRenderImage@@ABVioHashString@@@Z
	DD	FLAT:?SetWindowAlpha@ioWnd@@UAEXH@Z
	DD	FLAT:?SetActive@ioWnd@@UAEXXZ
	DD	FLAT:?SetInActive@ioWnd@@UAEXXZ
	DD	FLAT:?ClearElementImageList@ioWnd@@UAEXXZ
	DD	FLAT:?SetSize@ioWnd@@UAEXHH@Z
	DD	FLAT:?SetPositionToDefault@ioWnd@@UAEXHH_N0@Z
	DD	FLAT:?IsNeedProcess@ioWnd@@UBE_NXZ
	DD	FLAT:?IsCanMouseReaction@ioWnd@@UBE_NXZ
	DD	FLAT:?AddChild@ioWnd@@UAEXPAV1@@Z
	DD	FLAT:?DeleteChild@ioWnd@@UAEXK@Z
	DD	FLAT:?DeleteAllChild@ioWnd@@UAEXXZ
	DD	FLAT:?OnRenderShowAndHide@ioWnd@@MAE_NXZ
	DD	FLAT:?OnRenderShowAndHideByDefault@ioWnd@@MAE_NK@Z
	DD	FLAT:?OnRenderShowAndHideByTop@ioWnd@@MAE_NK@Z
	DD	FLAT:?OnRenderShowAndHideByDown@ioWnd@@MAE_NK@Z
	DD	FLAT:?OnRender@EventMortMainWnd@@MAEXXZ
	DD	FLAT:?OnRenderAfterChild@ioWnd@@MAEXXZ
	DD	FLAT:?OnProcess@EventMortMainWnd@@MAEXM@Z
	DD	FLAT:?OnMouseProcess@ioWnd@@MAEXABVioMouse@@@Z
	DD	FLAT:?CheckFrameReSize@ioWnd@@MAEXHHHH@Z
	DD	FLAT:?RenderImageList@ioWnd@@MAEXHHW4UIRenderType@@@Z
	DD	FLAT:?iwm_create@ioWnd@@UAEXXZ
	DD	FLAT:?iwm_destroy@ioWnd@@UAEXXZ
	DD	FLAT:?iwm_lbuttondown@ioWnd@@UAEXABVioMouse@@@Z
	DD	FLAT:?iwm_lbuttonup@ioWnd@@UAEXABVioMouse@@@Z
	DD	FLAT:?iwm_lbuttonDBLCLK@ioWnd@@UAEXABVioMouse@@@Z
	DD	FLAT:?iwm_rbuttondown@ioWnd@@UAEXABVioMouse@@@Z
	DD	FLAT:?iwm_rbuttonup@ioWnd@@UAEXABVioMouse@@@Z
	DD	FLAT:?iwm_command@EventMortMainWnd@@UAEXPAVioWnd@@HK@Z
	DD	FLAT:?iwm_mouseover@ioWnd@@UAEXABVioMouse@@@Z
	DD	FLAT:?iwm_mousemove@ioWnd@@UAEXABVioMouse@@@Z
	DD	FLAT:?iwm_mouseleave@ioWnd@@UAEXABVioMouse@@@Z
	DD	FLAT:?iwm_vscroll@ioWnd@@UAEXKH@Z
	DD	FLAT:?iwm_wheel@ioWnd@@UAEXH@Z
	DD	FLAT:?iwm_show@ioWnd@@UAEXXZ
	DD	FLAT:?iwm_hide@EventMortMainWnd@@UAEXXZ
	DD	FLAT:?iwm_esc@ioWnd@@UAE_NXZ
	DD	FLAT:?iwm_spacebar@ioWnd@@UAE_NXZ
	DD	FLAT:?iwm_gototop@ioWnd@@UAEXXZ
	DD	FLAT:?iwm_dragenter@ioWnd@@UAE?AW4IWDropEffect@@PAVioDragItem@@ABVioMouse@@@Z
	DD	FLAT:?iwm_dragover@ioWnd@@UAE?AW4IWDropEffect@@PAVioDragItem@@ABVioMouse@@@Z
	DD	FLAT:?iwm_dragleave@ioWnd@@UAEXXZ
	DD	FLAT:?iwm_dropitem@ioWnd@@UAE_NPAVioDragItem@@ABVioMouse@@PAV1@@Z
	DD	FLAT:?iwm_dropdone@ioWnd@@UAEXPAVioDragItem@@PAV1@_N@Z
	DD	FLAT:?IsEXType@ioWnd@@UBE_NXZ
	DD	FLAT:?GetWndType@ioWnd@@UBEKXZ
	DD	FLAT:?RenderWnd@ioWnd@@UAEXXZ
	DD	FLAT:?SetIDEX@ioWnd@@UAEXAAK_N@Z
	DD	FLAT:?ParseXML@ioWnd@@UAEXAAVioXMLElement@@@Z
	DD	FLAT:?GetHeaderFileName@ioWnd@@UAEPBDXZ
	DD	FLAT:?GetTemplateName@ioWnd@@UAEPBDXZ
	DD	FLAT:?GetDefClassName@ioWnd@@UBEPBDXZ
	DD	FLAT:?_Clone@ioWnd@@UAEPAV1@XZ
	DD	FLAT:?Copy@ioWnd@@UAEXPAV1@@Z
	DD	FLAT:?Save@ioWnd@@UAE_NAAVioXMLElement@@@Z
	DD	FLAT:?SetSaveData@ioWnd@@UAEXAAVioXMLElement@@@Z
	DD	FLAT:?SetPosX@ioWnd@@UAEXH@Z
	DD	FLAT:?SetPosY@ioWnd@@UAEXH@Z
	DD	FLAT:?SetWidth@ioWnd@@UAEXH@Z
	DD	FLAT:?SetHeight@ioWnd@@UAEXH@Z
	DD	FLAT:?GetNumFixedRenderFrame@ioWnd@@UBEHXZ
	DD	FLAT:?GetFixedRenderFrameType@ioWnd@@UAEPBDH@Z
	DD	FLAT:?GetRenderFrame@ioWnd@@UAEPAPAVioUIRenderElement@@PBD@Z
	DD	FLAT:?GetNumFixedRenderImage@ioWnd@@UBEHXZ
	DD	FLAT:?GetFixedRenderImageType@ioWnd@@UAEPBDH@Z
	DD	FLAT:?GetRenderImage@ioWnd@@UAEPAPAVioUIRenderElement@@PBD@Z
	DD	FLAT:?AddEffect@ioWnd@@UAEXABVioHashString@@PAVioUI3DEffectRender@@@Z
	DD	FLAT:?GetEffect@ioWnd@@UAEPAVioUI3DEffectRender@@VioHashString@@@Z
	DD	FLAT:??_EEventMortMainWnd@@UAEPAXI@Z
; Function compile flags: /Ogsp
CONST	ENDS
;	COMDAT ??0EventMortMainWnd@@QAE@XZ
_TEXT	SEGMENT
??0EventMortMainWnd@@QAE@XZ PROC			; EventMortMainWnd::EventMortMainWnd, COMDAT
; _this$ = ecx

; 516  : {

  00000	56		 push	 esi
  00001	8b f1		 mov	 esi, ecx
  00003	ff 15 00 00 00
	00		 call	 DWORD PTR __imp_??0ioWnd@@QAE@XZ
  00009	c7 06 00 00 00
	00		 mov	 DWORD PTR [esi], OFFSET ??_7EventMortMainWnd@@6B@

; 517  : 	sg_bBonusPeso = false;
; 518  : }

  0000f	8b c6		 mov	 eax, esi
  00011	c6 05 00 00 00
	00 00		 mov	 BYTE PTR ?sg_bBonusPeso@EventMortMainWnd@@1_NA, 0 ; EventMortMainWnd::sg_bBonusPeso
  00018	5e		 pop	 esi
  00019	c3		 ret	 0
??0EventMortMainWnd@@QAE@XZ ENDP			; EventMortMainWnd::EventMortMainWnd
_TEXT	ENDS
PUBLIC	??1EventMortMainWnd@@UAE@XZ			; EventMortMainWnd::~EventMortMainWnd
; Function compile flags: /Ogsp
;	COMDAT ??1EventMortMainWnd@@UAE@XZ
_TEXT	SEGMENT
??1EventMortMainWnd@@UAE@XZ PROC			; EventMortMainWnd::~EventMortMainWnd, COMDAT
; _this$ = ecx

; 521  : {

  00000	c7 01 00 00 00
	00		 mov	 DWORD PTR [ecx], OFFSET ??_7EventMortMainWnd@@6B@

; 522  : 
; 523  : }

  00006	ff 25 00 00 00
	00		 jmp	 DWORD PTR __imp_??1ioWnd@@UAE@XZ
??1EventMortMainWnd@@UAE@XZ ENDP			; EventMortMainWnd::~EventMortMainWnd
; Function compile flags: /Ogsp
_TEXT	ENDS
;	COMDAT ?iwm_hide@EventMortMainWnd@@UAEXXZ
_TEXT	SEGMENT
?iwm_hide@EventMortMainWnd@@UAEXXZ PROC			; EventMortMainWnd::iwm_hide, COMDAT
; _this$ = ecx

; 527  : 	sg_bBonusPeso = false;

  00000	c6 05 00 00 00
	00 00		 mov	 BYTE PTR ?sg_bBonusPeso@EventMortMainWnd@@1_NA, 0 ; EventMortMainWnd::sg_bBonusPeso

; 528  : }

  00007	c3		 ret	 0
?iwm_hide@EventMortMainWnd@@UAEXXZ ENDP			; EventMortMainWnd::iwm_hide
_TEXT	ENDS
EXTRN	__imp_?HideWnd@ioWnd@@QAEXXZ:PROC
EXTRN	__imp_?GetID@ioWnd@@QBEKXZ:PROC
; Function compile flags: /Ogsp
;	COMDAT ?iwm_command@EventMortMainWnd@@UAEXPAVioWnd@@HK@Z
_TEXT	SEGMENT
_pWnd$ = 8						; size = 4
_cmd$ = 12						; size = 4
_param$ = 16						; size = 4
?iwm_command@EventMortMainWnd@@UAEXPAVioWnd@@HK@Z PROC	; EventMortMainWnd::iwm_command, COMDAT
; _this$ = ecx

; 531  : {

  00000	55		 push	 ebp
  00001	8b ec		 mov	 ebp, esp
  00003	56		 push	 esi
  00004	8b f1		 mov	 esi, ecx

; 532  : 	DWORD dwID = pWnd->GetID();

  00006	8b 4d 08	 mov	 ecx, DWORD PTR _pWnd$[ebp]
  00009	ff 15 00 00 00
	00		 call	 DWORD PTR __imp_?GetID@ioWnd@@QBEKXZ

; 533  : 	switch( dwID )

  0000f	48		 dec	 eax
  00010	83 f8 01	 cmp	 eax, 1
  00013	77 0e		 ja	 SHORT $LN1@iwm_comman

; 534  : 	{
; 535  : 	case ID_EXIT:
; 536  : 	case ID_OK:
; 537  : 		if( cmd == IOBN_BTNUP )

  00015	83 7d 0c 11	 cmp	 DWORD PTR _cmd$[ebp], 17 ; 00000011H
  00019	75 08		 jne	 SHORT $LN1@iwm_comman

; 538  : 		{
; 539  : 			HideWnd();

  0001b	8b ce		 mov	 ecx, esi
  0001d	ff 15 00 00 00
	00		 call	 DWORD PTR __imp_?HideWnd@ioWnd@@QAEXXZ
$LN1@iwm_comman:
  00023	5e		 pop	 esi

; 540  : 		}
; 541  : 		break;
; 542  : 	}
; 543  : }

  00024	5d		 pop	 ebp
  00025	c2 0c 00	 ret	 12			; 0000000cH
?iwm_command@EventMortMainWnd@@UAEXPAVioWnd@@HK@Z ENDP	; EventMortMainWnd::iwm_command
_TEXT	ENDS
EXTRN	__imp_?IsShow@ioGUIManager@@QAE_NK@Z:PROC
EXTRN	?GetSingleton@ioSP2GUIManager@@SAAAV1@XZ:PROC	; ioSP2GUIManager::GetSingleton
; Function compile flags: /Ogsp
;	COMDAT ?OnProcess@EventMortMainWnd@@MAEXM@Z
_TEXT	SEGMENT
_fTimePerSec$ = 8					; size = 4
?OnProcess@EventMortMainWnd@@MAEXM@Z PROC		; EventMortMainWnd::OnProcess, COMDAT
; _this$ = ecx

; 546  : {

  00000	56		 push	 esi
  00001	8b f1		 mov	 esi, ecx

; 547  : 	if( !IsShow() )

  00003	ff 15 00 00 00
	00		 call	 DWORD PTR __imp_?IsShow@ioWnd@@QBE_NXZ
  00009	84 c0		 test	 al, al
  0000b	75 26		 jne	 SHORT $LN2@OnProcess@2

; 548  : 	{
; 549  : 		if( sg_bBonusPeso )

  0000d	38 05 00 00 00
	00		 cmp	 BYTE PTR ?sg_bBonusPeso@EventMortMainWnd@@1_NA, al ; EventMortMainWnd::sg_bBonusPeso
  00013	74 1e		 je	 SHORT $LN2@OnProcess@2

; 550  : 		{
; 551  : 			if( g_GUIMgr.IsShow( MESSAGE_BOX ) )

  00015	68 10 27 00 00	 push	 10000			; 00002710H
  0001a	e8 00 00 00 00	 call	 ?GetSingleton@ioSP2GUIManager@@SAAAV1@XZ ; ioSP2GUIManager::GetSingleton
  0001f	8b c8		 mov	 ecx, eax
  00021	ff 15 00 00 00
	00		 call	 DWORD PTR __imp_?IsShow@ioGUIManager@@QAE_NK@Z
  00027	84 c0		 test	 al, al
  00029	75 08		 jne	 SHORT $LN2@OnProcess@2

; 552  : 				return;
; 553  : 			ShowWnd();

  0002b	8b ce		 mov	 ecx, esi
  0002d	ff 15 00 00 00
	00		 call	 DWORD PTR __imp_?ShowWnd@ioWnd@@QAEXXZ
$LN2@OnProcess@2:
  00033	5e		 pop	 esi

; 554  : 		}
; 555  : 		return;
; 556  : 	}	
; 557  : }

  00034	c2 04 00	 ret	 4
?OnProcess@EventMortMainWnd@@MAEXM@Z ENDP		; EventMortMainWnd::OnProcess
_TEXT	ENDS
PUBLIC	??_C@_0BL@MLJPFLKL@EventMortMainWnd?3?3OnRender?$AA@ ; `string'
EXTRN	??1ioComplexStringPrinter@@QAE@XZ:PROC		; ioComplexStringPrinter::~ioComplexStringPrinter
EXTRN	?ClearList@ioComplexStringPrinter@@QAEXXZ:PROC	; ioComplexStringPrinter::ClearList
EXTRN	?PrintFullText@ioComplexStringPrinter@@QAEXMMW4TextAlignType@@E@Z:PROC ; ioComplexStringPrinter::PrintFullText
EXTRN	?AddTextPiece@ioComplexStringPrinter@@QAAXMPBDZZ:PROC ; ioComplexStringPrinter::AddTextPiece
EXTRN	?SetBkColor@ioComplexStringPrinter@@QAEXHHH@Z:PROC ; ioComplexStringPrinter::SetBkColor
EXTRN	?SetTextColor@ioComplexStringPrinter@@QAEXK@Z:PROC ; ioComplexStringPrinter::SetTextColor
EXTRN	?SetTextStyle@ioComplexStringPrinter@@QAEXW4TextStyle@@@Z:PROC ; ioComplexStringPrinter::SetTextStyle
EXTRN	??0ioComplexStringPrinter@@QAE@XZ:PROC		; ioComplexStringPrinter::ioComplexStringPrinter
;	COMDAT ??_C@_0BL@MLJPFLKL@EventMortMainWnd?3?3OnRender?$AA@
CONST	SEGMENT
??_C@_0BL@MLJPFLKL@EventMortMainWnd?3?3OnRender?$AA@ DB 'EventMortMainWnd'
	DB	'::OnRender', 00H				; `string'
CONST	ENDS
;	COMDAT xdata$x
xdata$x	SEGMENT
__unwindtable$?OnRender@EventMortMainWnd@@MAEXXZ DD 0ffffffffH
	DD	FLAT:__unwindfunclet$?OnRender@EventMortMainWnd@@MAEXXZ$0
__ehfuncinfo$?OnRender@EventMortMainWnd@@MAEXXZ DD 019930522H
	DD	01H
	DD	FLAT:__unwindtable$?OnRender@EventMortMainWnd@@MAEXXZ
	DD	2 DUP(00H)
	DD	2 DUP(00H)
	DD	00H
	DD	01H
; Function compile flags: /Ogsp
xdata$x	ENDS
;	COMDAT ?OnRender@EventMortMainWnd@@MAEXXZ
_TEXT	SEGMENT
_kPrinter$ = -52					; size = 32
tv195 = -20						; size = 4
_iXPos$ = -20						; size = 4
_iYPos$ = -16						; size = 4
__$EHRec$ = -12						; size = 12
?OnRender@EventMortMainWnd@@MAEXXZ PROC			; EventMortMainWnd::OnRender, COMDAT
; _this$ = ecx

; 560  : {

  00000	6a 28		 push	 40			; 00000028H
  00002	b8 00 00 00 00	 mov	 eax, __ehhandler$?OnRender@EventMortMainWnd@@MAEXXZ
  00007	e8 00 00 00 00	 call	 __EH_prolog3
  0000c	8b f1		 mov	 esi, ecx

; 561  : 	ioWnd::OnRender();

  0000e	ff 15 00 00 00
	00		 call	 DWORD PTR __imp_?OnRender@ioWnd@@MAEXXZ

; 562  : 
; 563  : 	int iXPos, iYPos;
; 564  : 	iXPos = GetDerivedPosX();

  00014	8b ce		 mov	 ecx, esi
  00016	ff 15 00 00 00
	00		 call	 DWORD PTR __imp_?GetDerivedPosX@ioWnd@@QBEHXZ

; 565  : 	iYPos = GetDerivedPosY();

  0001c	8b ce		 mov	 ecx, esi
  0001e	89 45 ec	 mov	 DWORD PTR _iXPos$[ebp], eax
  00021	ff 15 00 00 00
	00		 call	 DWORD PTR __imp_?GetDerivedPosY@ioWnd@@QBEHXZ

; 566  : 
; 567  : 	ioComplexStringPrinter kPrinter;

  00027	8d 4d cc	 lea	 ecx, DWORD PTR _kPrinter$[ebp]
  0002a	89 45 f0	 mov	 DWORD PTR _iYPos$[ebp], eax
  0002d	e8 00 00 00 00	 call	 ??0ioComplexStringPrinter@@QAE@XZ ; ioComplexStringPrinter::ioComplexStringPrinter
  00032	33 f6		 xor	 esi, esi

; 568  : 	kPrinter.SetTextStyle( TS_OUTLINE_FULL_2X );

  00034	6a 05		 push	 5
  00036	8d 4d cc	 lea	 ecx, DWORD PTR _kPrinter$[ebp]
  00039	89 75 fc	 mov	 DWORD PTR __$EHRec$[ebp+8], esi
  0003c	e8 00 00 00 00	 call	 ?SetTextStyle@ioComplexStringPrinter@@QAEXW4TextStyle@@@Z ; ioComplexStringPrinter::SetTextStyle

; 569  : 	kPrinter.SetTextColor( TCT_DEFAULT_DARKGRAY );	

  00041	68 3a 3a 3a ff	 push	 -12961222		; ff3a3a3aH
  00046	8d 4d cc	 lea	 ecx, DWORD PTR _kPrinter$[ebp]
  00049	e8 00 00 00 00	 call	 ?SetTextColor@ioComplexStringPrinter@@QAEXK@Z ; ioComplexStringPrinter::SetTextColor

; 570  : 	kPrinter.SetBkColor( 0, 0, 0 );

  0004e	56		 push	 esi
  0004f	56		 push	 esi
  00050	56		 push	 esi
  00051	8d 4d cc	 lea	 ecx, DWORD PTR _kPrinter$[ebp]
  00054	e8 00 00 00 00	 call	 ?SetBkColor@ioComplexStringPrinter@@QAEXHHH@Z ; ioComplexStringPrinter::SetBkColor

; 571  : 	kPrinter.AddTextPiece( FONT_SIZE_13, STR(1));

  00059	56		 push	 esi
  0005a	8b 35 00 00 00
	00		 mov	 esi, DWORD PTR __imp_?GetSingleton@ioStringManager@@SAAAV1@XZ
  00060	6a 01		 push	 1
  00062	68 00 00 00 00	 push	 OFFSET ??_C@_00CNPNBAHC@?$AA@
  00067	bb 00 00 00 00	 mov	 ebx, OFFSET ??_C@_0BL@MLJPFLKL@EventMortMainWnd?3?3OnRender?$AA@
  0006c	53		 push	 ebx
  0006d	ff d6		 call	 esi
  0006f	8b 3d 00 00 00
	00		 mov	 edi, DWORD PTR __imp_?GetString@ioStringManager@@QAEPADPBD0HW4FileNamePrefix@1@@Z
  00075	8b c8		 mov	 ecx, eax
  00077	ff d7		 call	 edi
  00079	f3 0f 10 05 00
	00 00 00	 movss	 xmm0, DWORD PTR __real@3f266666
  00081	50		 push	 eax
  00082	51		 push	 ecx
  00083	8d 45 cc	 lea	 eax, DWORD PTR _kPrinter$[ebp]
  00086	f3 0f 11 04 24	 movss	 DWORD PTR [esp], xmm0
  0008b	50		 push	 eax
  0008c	e8 00 00 00 00	 call	 ?AddTextPiece@ioComplexStringPrinter@@QAAXMPBDZZ ; ioComplexStringPrinter::AddTextPiece
  00091	83 c4 0c	 add	 esp, 12			; 0000000cH

; 572  : 
; 573  : 	kPrinter.SetTextColor( TCT_DEFAULT_GRAY );	

  00094	68 6e 6e 6e ff	 push	 -9539986		; ff6e6e6eH
  00099	8d 4d cc	 lea	 ecx, DWORD PTR _kPrinter$[ebp]
  0009c	e8 00 00 00 00	 call	 ?SetTextColor@ioComplexStringPrinter@@QAEXK@Z ; ioComplexStringPrinter::SetTextColor

; 574  : 	kPrinter.AddTextPiece( FONT_SIZE_13, STR(2));

  000a1	6a 00		 push	 0
  000a3	6a 02		 push	 2
  000a5	68 00 00 00 00	 push	 OFFSET ??_C@_00CNPNBAHC@?$AA@
  000aa	53		 push	 ebx
  000ab	ff d6		 call	 esi
  000ad	8b c8		 mov	 ecx, eax
  000af	ff d7		 call	 edi
  000b1	f3 0f 10 05 00
	00 00 00	 movss	 xmm0, DWORD PTR __real@3f266666
  000b9	50		 push	 eax
  000ba	51		 push	 ecx
  000bb	8d 45 cc	 lea	 eax, DWORD PTR _kPrinter$[ebp]
  000be	f3 0f 11 04 24	 movss	 DWORD PTR [esp], xmm0
  000c3	50		 push	 eax
  000c4	e8 00 00 00 00	 call	 ?AddTextPiece@ioComplexStringPrinter@@QAAXMPBDZZ ; ioComplexStringPrinter::AddTextPiece

; 575  : 	kPrinter.PrintFullText( iXPos + 105, iYPos + 55, TAT_LEFT );

  000c9	8b 45 ec	 mov	 eax, DWORD PTR _iXPos$[ebp]
  000cc	83 c4 0c	 add	 esp, 12			; 0000000cH
  000cf	83 c0 69	 add	 eax, 105		; 00000069H
  000d2	68 ff 00 00 00	 push	 255			; 000000ffH
  000d7	0f 57 c0	 xorps	 xmm0, xmm0
  000da	f3 0f 2a c0	 cvtsi2ss xmm0, eax
  000de	8b 45 f0	 mov	 eax, DWORD PTR _iYPos$[ebp]
  000e1	6a 00		 push	 0
  000e3	51		 push	 ecx
  000e4	51		 push	 ecx
  000e5	83 c0 37	 add	 eax, 55			; 00000037H
  000e8	0f 57 c9	 xorps	 xmm1, xmm1
  000eb	f3 0f 2a c8	 cvtsi2ss xmm1, eax
  000ef	f3 0f 11 4c 24
	04		 movss	 DWORD PTR [esp+4], xmm1
  000f5	8d 4d cc	 lea	 ecx, DWORD PTR _kPrinter$[ebp]
  000f8	f3 0f 11 45 ec	 movss	 DWORD PTR tv195[ebp], xmm0
  000fd	f3 0f 11 04 24	 movss	 DWORD PTR [esp], xmm0
  00102	e8 00 00 00 00	 call	 ?PrintFullText@ioComplexStringPrinter@@QAEXMMW4TextAlignType@@E@Z ; ioComplexStringPrinter::PrintFullText

; 576  : 	kPrinter.ClearList();

  00107	8d 4d cc	 lea	 ecx, DWORD PTR _kPrinter$[ebp]
  0010a	e8 00 00 00 00	 call	 ?ClearList@ioComplexStringPrinter@@QAEXXZ ; ioComplexStringPrinter::ClearList

; 577  : 
; 578  : 	kPrinter.SetTextColor( TCT_DEFAULT_GRAY );	

  0010f	68 6e 6e 6e ff	 push	 -9539986		; ff6e6e6eH
  00114	8d 4d cc	 lea	 ecx, DWORD PTR _kPrinter$[ebp]
  00117	e8 00 00 00 00	 call	 ?SetTextColor@ioComplexStringPrinter@@QAEXK@Z ; ioComplexStringPrinter::SetTextColor

; 579  : 	kPrinter.AddTextPiece( FONT_SIZE_13, STR(3));

  0011c	6a 00		 push	 0
  0011e	6a 03		 push	 3
  00120	68 00 00 00 00	 push	 OFFSET ??_C@_00CNPNBAHC@?$AA@
  00125	53		 push	 ebx
  00126	ff d6		 call	 esi
  00128	8b c8		 mov	 ecx, eax
  0012a	ff d7		 call	 edi
  0012c	f3 0f 10 05 00
	00 00 00	 movss	 xmm0, DWORD PTR __real@3f266666
  00134	50		 push	 eax
  00135	51		 push	 ecx
  00136	8d 45 cc	 lea	 eax, DWORD PTR _kPrinter$[ebp]
  00139	f3 0f 11 04 24	 movss	 DWORD PTR [esp], xmm0
  0013e	50		 push	 eax
  0013f	e8 00 00 00 00	 call	 ?AddTextPiece@ioComplexStringPrinter@@QAAXMPBDZZ ; ioComplexStringPrinter::AddTextPiece

; 580  : 	kPrinter.PrintFullText( iXPos + 105, iYPos + 75, TAT_LEFT );

  00144	8b 45 f0	 mov	 eax, DWORD PTR _iYPos$[ebp]
  00147	83 c4 0c	 add	 esp, 12			; 0000000cH
  0014a	68 ff 00 00 00	 push	 255			; 000000ffH
  0014f	6a 00		 push	 0
  00151	51		 push	 ecx
  00152	51		 push	 ecx
  00153	83 c0 4b	 add	 eax, 75			; 0000004bH
  00156	0f 57 c0	 xorps	 xmm0, xmm0
  00159	f3 0f 2a c0	 cvtsi2ss xmm0, eax
  0015d	f3 0f 11 44 24
	04		 movss	 DWORD PTR [esp+4], xmm0
  00163	f3 0f 10 45 ec	 movss	 xmm0, DWORD PTR tv195[ebp]
  00168	8d 4d cc	 lea	 ecx, DWORD PTR _kPrinter$[ebp]
  0016b	f3 0f 11 04 24	 movss	 DWORD PTR [esp], xmm0
  00170	e8 00 00 00 00	 call	 ?PrintFullText@ioComplexStringPrinter@@QAEXMMW4TextAlignType@@E@Z ; ioComplexStringPrinter::PrintFullText

; 581  : 	kPrinter.ClearList();

  00175	8d 4d cc	 lea	 ecx, DWORD PTR _kPrinter$[ebp]
  00178	e8 00 00 00 00	 call	 ?ClearList@ioComplexStringPrinter@@QAEXXZ ; ioComplexStringPrinter::ClearList

; 582  : }

  0017d	83 4d fc ff	 or	 DWORD PTR __$EHRec$[ebp+8], -1
  00181	8d 4d cc	 lea	 ecx, DWORD PTR _kPrinter$[ebp]
  00184	e8 00 00 00 00	 call	 ??1ioComplexStringPrinter@@QAE@XZ ; ioComplexStringPrinter::~ioComplexStringPrinter
  00189	e8 00 00 00 00	 call	 __EH_epilog3
  0018e	c3		 ret	 0
_TEXT	ENDS
;	COMDAT text$x
text$x	SEGMENT
__unwindfunclet$?OnRender@EventMortMainWnd@@MAEXXZ$0:
  00000	8d 4d cc	 lea	 ecx, DWORD PTR _kPrinter$[ebp]
  00003	e9 00 00 00 00	 jmp	 ??1ioComplexStringPrinter@@QAE@XZ ; ioComplexStringPrinter::~ioComplexStringPrinter
__ehhandler$?OnRender@EventMortMainWnd@@MAEXXZ:
  00008	8b 54 24 08	 mov	 edx, DWORD PTR [esp+8]
  0000c	8d 42 0c	 lea	 eax, DWORD PTR [edx+12]
  0000f	8b 4a c8	 mov	 ecx, DWORD PTR [edx-56]
  00012	33 c8		 xor	 ecx, eax
  00014	e8 00 00 00 00	 call	 @__security_check_cookie@4
  00019	b8 00 00 00 00	 mov	 eax, OFFSET __ehfuncinfo$?OnRender@EventMortMainWnd@@MAEXXZ
  0001e	e9 00 00 00 00	 jmp	 ___CxxFrameHandler3
text$x	ENDS
?OnRender@EventMortMainWnd@@MAEXXZ ENDP			; EventMortMainWnd::OnRender
PUBLIC	??_7EventChanceMortmainCharWnd@@6B@		; EventChanceMortmainCharWnd::`vftable'
PUBLIC	??0EventChanceMortmainCharWnd@@QAE@XZ		; EventChanceMortmainCharWnd::EventChanceMortmainCharWnd
PUBLIC	??_R4EventChanceMortmainCharWnd@@6B@		; EventChanceMortmainCharWnd::`RTTI Complete Object Locator'
PUBLIC	??_R0?AVEventChanceMortmainCharWnd@@@8		; EventChanceMortmainCharWnd `RTTI Type Descriptor'
PUBLIC	??_R3EventChanceMortmainCharWnd@@8		; EventChanceMortmainCharWnd::`RTTI Class Hierarchy Descriptor'
PUBLIC	??_R2EventChanceMortmainCharWnd@@8		; EventChanceMortmainCharWnd::`RTTI Base Class Array'
PUBLIC	??_R1A@?0A@EA@EventChanceMortmainCharWnd@@8	; EventChanceMortmainCharWnd::`RTTI Base Class Descriptor at (0,-1,0,64)'
PUBLIC	??_R1A@?0A@EA@ioMovingWnd@@8			; ioMovingWnd::`RTTI Base Class Descriptor at (0,-1,0,64)'
PUBLIC	??_R0?AVioMovingWnd@@@8				; ioMovingWnd `RTTI Type Descriptor'
PUBLIC	??_R3ioMovingWnd@@8				; ioMovingWnd::`RTTI Class Hierarchy Descriptor'
PUBLIC	??_R2ioMovingWnd@@8				; ioMovingWnd::`RTTI Base Class Array'
PUBLIC	?AddRenderImage@EventChanceMortmainCharWnd@@MAEXABVioHashString@@PAVioUIRenderImage@@@Z ; EventChanceMortmainCharWnd::AddRenderImage
PUBLIC	?OnRender@EventChanceMortmainCharWnd@@MAEXXZ	; EventChanceMortmainCharWnd::OnRender
PUBLIC	?OnProcess@EventChanceMortmainCharWnd@@MAEXM@Z	; EventChanceMortmainCharWnd::OnProcess
PUBLIC	?iwm_command@EventChanceMortmainCharWnd@@UAEXPAVioWnd@@HK@Z ; EventChanceMortmainCharWnd::iwm_command
PUBLIC	?iwm_show@EventChanceMortmainCharWnd@@UAEXXZ	; EventChanceMortmainCharWnd::iwm_show
EXTRN	__imp_??0ioMovingWnd@@QAE@XZ:PROC
EXTRN	?SetPositionToDefault@ioMovingWnd@@UAEXHH_N0@Z:PROC ; ioMovingWnd::SetPositionToDefault
EXTRN	?OnMouseProcess@ioMovingWnd@@MAEXABVioMouse@@@Z:PROC ; ioMovingWnd::OnMouseProcess
EXTRN	?iwm_lbuttondown@ioMovingWnd@@UAEXABVioMouse@@@Z:PROC ; ioMovingWnd::iwm_lbuttondown
EXTRN	?iwm_lbuttonup@ioMovingWnd@@UAEXABVioMouse@@@Z:PROC ; ioMovingWnd::iwm_lbuttonup
EXTRN	??_EEventChanceMortmainCharWnd@@UAEPAXI@Z:PROC	; EventChanceMortmainCharWnd::`vector deleting destructor'
;	COMDAT ??_R2ioMovingWnd@@8
rdata$r	SEGMENT
??_R2ioMovingWnd@@8 DD FLAT:??_R1A@?0A@EA@ioMovingWnd@@8 ; ioMovingWnd::`RTTI Base Class Array'
	DD	FLAT:??_R1A@?0A@EA@ioWnd@@8
rdata$r	ENDS
;	COMDAT ??_R3ioMovingWnd@@8
rdata$r	SEGMENT
??_R3ioMovingWnd@@8 DD 00H				; ioMovingWnd::`RTTI Class Hierarchy Descriptor'
	DD	00H
	DD	02H
	DD	FLAT:??_R2ioMovingWnd@@8
rdata$r	ENDS
;	COMDAT ??_R0?AVioMovingWnd@@@8
_DATA	SEGMENT
??_R0?AVioMovingWnd@@@8 DD FLAT:??_7type_info@@6B@	; ioMovingWnd `RTTI Type Descriptor'
	DD	00H
	DB	'.?AVioMovingWnd@@', 00H
_DATA	ENDS
;	COMDAT ??_R1A@?0A@EA@ioMovingWnd@@8
rdata$r	SEGMENT
??_R1A@?0A@EA@ioMovingWnd@@8 DD FLAT:??_R0?AVioMovingWnd@@@8 ; ioMovingWnd::`RTTI Base Class Descriptor at (0,-1,0,64)'
	DD	01H
	DD	00H
	DD	0ffffffffH
	DD	00H
	DD	040H
	DD	FLAT:??_R3ioMovingWnd@@8
rdata$r	ENDS
;	COMDAT ??_R1A@?0A@EA@EventChanceMortmainCharWnd@@8
rdata$r	SEGMENT
??_R1A@?0A@EA@EventChanceMortmainCharWnd@@8 DD FLAT:??_R0?AVEventChanceMortmainCharWnd@@@8 ; EventChanceMortmainCharWnd::`RTTI Base Class Descriptor at (0,-1,0,64)'
	DD	02H
	DD	00H
	DD	0ffffffffH
	DD	00H
	DD	040H
	DD	FLAT:??_R3EventChanceMortmainCharWnd@@8
rdata$r	ENDS
;	COMDAT ??_R2EventChanceMortmainCharWnd@@8
rdata$r	SEGMENT
??_R2EventChanceMortmainCharWnd@@8 DD FLAT:??_R1A@?0A@EA@EventChanceMortmainCharWnd@@8 ; EventChanceMortmainCharWnd::`RTTI Base Class Array'
	DD	FLAT:??_R1A@?0A@EA@ioMovingWnd@@8
	DD	FLAT:??_R1A@?0A@EA@ioWnd@@8
rdata$r	ENDS
;	COMDAT ??_R3EventChanceMortmainCharWnd@@8
rdata$r	SEGMENT
??_R3EventChanceMortmainCharWnd@@8 DD 00H		; EventChanceMortmainCharWnd::`RTTI Class Hierarchy Descriptor'
	DD	00H
	DD	03H
	DD	FLAT:??_R2EventChanceMortmainCharWnd@@8
rdata$r	ENDS
;	COMDAT ??_R0?AVEventChanceMortmainCharWnd@@@8
_DATA	SEGMENT
??_R0?AVEventChanceMortmainCharWnd@@@8 DD FLAT:??_7type_info@@6B@ ; EventChanceMortmainCharWnd `RTTI Type Descriptor'
	DD	00H
	DB	'.?AVEventChanceMortmainCharWnd@@', 00H
_DATA	ENDS
;	COMDAT ??_R4EventChanceMortmainCharWnd@@6B@
rdata$r	SEGMENT
??_R4EventChanceMortmainCharWnd@@6B@ DD 00H		; EventChanceMortmainCharWnd::`RTTI Complete Object Locator'
	DD	00H
	DD	00H
	DD	FLAT:??_R0?AVEventChanceMortmainCharWnd@@@8
	DD	FLAT:??_R3EventChanceMortmainCharWnd@@8
rdata$r	ENDS
;	COMDAT ??_7EventChanceMortmainCharWnd@@6B@
CONST	SEGMENT
??_7EventChanceMortmainCharWnd@@6B@ DD FLAT:??_R4EventChanceMortmainCharWnd@@6B@ ; EventChanceMortmainCharWnd::`vftable'
	DD	FLAT:?AddRenderFrame@ioWnd@@UAEXABVioHashString@@PAVioUIRenderFrame@@@Z
	DD	FLAT:?AddRenderImage@EventChanceMortmainCharWnd@@MAEXABVioHashString@@PAVioUIRenderImage@@@Z
	DD	FLAT:?AddTooltipHelp@ioWnd@@UAEXABVioHashString@@00@Z
	DD	FLAT:?ParseExtraInfo@ioWnd@@UAEXAAVioXMLElement@@@Z
	DD	FLAT:?AddNamedRenderImage@ioWnd@@UAEXABVioHashString@@PAVioUIRenderImage@@@Z
	DD	FLAT:?RemoveNamedRenderImage@ioWnd@@UAEXABVioHashString@@@Z
	DD	FLAT:?GetNamedRenderImage@ioWnd@@UBEPAVioUIRenderImage@@ABVioHashString@@@Z
	DD	FLAT:?SetWindowAlpha@ioWnd@@UAEXH@Z
	DD	FLAT:?SetActive@ioWnd@@UAEXXZ
	DD	FLAT:?SetInActive@ioWnd@@UAEXXZ
	DD	FLAT:?ClearElementImageList@ioWnd@@UAEXXZ
	DD	FLAT:?SetSize@ioWnd@@UAEXHH@Z
	DD	FLAT:?SetPositionToDefault@ioMovingWnd@@UAEXHH_N0@Z
	DD	FLAT:?IsNeedProcess@ioWnd@@UBE_NXZ
	DD	FLAT:?IsCanMouseReaction@ioWnd@@UBE_NXZ
	DD	FLAT:?AddChild@ioWnd@@UAEXPAV1@@Z
	DD	FLAT:?DeleteChild@ioWnd@@UAEXK@Z
	DD	FLAT:?DeleteAllChild@ioWnd@@UAEXXZ
	DD	FLAT:?OnRenderShowAndHide@ioWnd@@MAE_NXZ
	DD	FLAT:?OnRenderShowAndHideByDefault@ioWnd@@MAE_NK@Z
	DD	FLAT:?OnRenderShowAndHideByTop@ioWnd@@MAE_NK@Z
	DD	FLAT:?OnRenderShowAndHideByDown@ioWnd@@MAE_NK@Z
	DD	FLAT:?OnRender@EventChanceMortmainCharWnd@@MAEXXZ
	DD	FLAT:?OnRenderAfterChild@ioWnd@@MAEXXZ
	DD	FLAT:?OnProcess@EventChanceMortmainCharWnd@@MAEXM@Z
	DD	FLAT:?OnMouseProcess@ioMovingWnd@@MAEXABVioMouse@@@Z
	DD	FLAT:?CheckFrameReSize@ioWnd@@MAEXHHHH@Z
	DD	FLAT:?RenderImageList@ioWnd@@MAEXHHW4UIRenderType@@@Z
	DD	FLAT:?iwm_create@ioWnd@@UAEXXZ
	DD	FLAT:?iwm_destroy@ioWnd@@UAEXXZ
	DD	FLAT:?iwm_lbuttondown@ioMovingWnd@@UAEXABVioMouse@@@Z
	DD	FLAT:?iwm_lbuttonup@ioMovingWnd@@UAEXABVioMouse@@@Z
	DD	FLAT:?iwm_lbuttonDBLCLK@ioWnd@@UAEXABVioMouse@@@Z
	DD	FLAT:?iwm_rbuttondown@ioWnd@@UAEXABVioMouse@@@Z
	DD	FLAT:?iwm_rbuttonup@ioWnd@@UAEXABVioMouse@@@Z
	DD	FLAT:?iwm_command@EventChanceMortmainCharWnd@@UAEXPAVioWnd@@HK@Z
	DD	FLAT:?iwm_mouseover@ioWnd@@UAEXABVioMouse@@@Z
	DD	FLAT:?iwm_mousemove@ioWnd@@UAEXABVioMouse@@@Z
	DD	FLAT:?iwm_mouseleave@ioWnd@@UAEXABVioMouse@@@Z
	DD	FLAT:?iwm_vscroll@ioWnd@@UAEXKH@Z
	DD	FLAT:?iwm_wheel@ioWnd@@UAEXH@Z
	DD	FLAT:?iwm_show@EventChanceMortmainCharWnd@@UAEXXZ
	DD	FLAT:?iwm_hide@ioWnd@@UAEXXZ
	DD	FLAT:?iwm_esc@ioWnd@@UAE_NXZ
	DD	FLAT:?iwm_spacebar@ioWnd@@UAE_NXZ
	DD	FLAT:?iwm_gototop@ioWnd@@UAEXXZ
	DD	FLAT:?iwm_dragenter@ioWnd@@UAE?AW4IWDropEffect@@PAVioDragItem@@ABVioMouse@@@Z
	DD	FLAT:?iwm_dragover@ioWnd@@UAE?AW4IWDropEffect@@PAVioDragItem@@ABVioMouse@@@Z
	DD	FLAT:?iwm_dragleave@ioWnd@@UAEXXZ
	DD	FLAT:?iwm_dropitem@ioWnd@@UAE_NPAVioDragItem@@ABVioMouse@@PAV1@@Z
	DD	FLAT:?iwm_dropdone@ioWnd@@UAEXPAVioDragItem@@PAV1@_N@Z
	DD	FLAT:?IsEXType@ioWnd@@UBE_NXZ
	DD	FLAT:?GetWndType@ioWnd@@UBEKXZ
	DD	FLAT:?RenderWnd@ioWnd@@UAEXXZ
	DD	FLAT:?SetIDEX@ioWnd@@UAEXAAK_N@Z
	DD	FLAT:?ParseXML@ioWnd@@UAEXAAVioXMLElement@@@Z
	DD	FLAT:?GetHeaderFileName@ioWnd@@UAEPBDXZ
	DD	FLAT:?GetTemplateName@ioWnd@@UAEPBDXZ
	DD	FLAT:?GetDefClassName@ioWnd@@UBEPBDXZ
	DD	FLAT:?_Clone@ioWnd@@UAEPAV1@XZ
	DD	FLAT:?Copy@ioWnd@@UAEXPAV1@@Z
	DD	FLAT:?Save@ioWnd@@UAE_NAAVioXMLElement@@@Z
	DD	FLAT:?SetSaveData@ioWnd@@UAEXAAVioXMLElement@@@Z
	DD	FLAT:?SetPosX@ioWnd@@UAEXH@Z
	DD	FLAT:?SetPosY@ioWnd@@UAEXH@Z
	DD	FLAT:?SetWidth@ioWnd@@UAEXH@Z
	DD	FLAT:?SetHeight@ioWnd@@UAEXH@Z
	DD	FLAT:?GetNumFixedRenderFrame@ioWnd@@UBEHXZ
	DD	FLAT:?GetFixedRenderFrameType@ioWnd@@UAEPBDH@Z
	DD	FLAT:?GetRenderFrame@ioWnd@@UAEPAPAVioUIRenderElement@@PBD@Z
	DD	FLAT:?GetNumFixedRenderImage@ioWnd@@UBEHXZ
	DD	FLAT:?GetFixedRenderImageType@ioWnd@@UAEPBDH@Z
	DD	FLAT:?GetRenderImage@ioWnd@@UAEPAPAVioUIRenderElement@@PBD@Z
	DD	FLAT:?AddEffect@ioWnd@@UAEXABVioHashString@@PAVioUI3DEffectRender@@@Z
	DD	FLAT:?GetEffect@ioWnd@@UAEPAVioUI3DEffectRender@@VioHashString@@@Z
	DD	FLAT:??_EEventChanceMortmainCharWnd@@UAEPAXI@Z
; Function compile flags: /Ogsp
CONST	ENDS
;	COMDAT ??0EventChanceMortmainCharWnd@@QAE@XZ
_TEXT	SEGMENT
??0EventChanceMortmainCharWnd@@QAE@XZ PROC		; EventChanceMortmainCharWnd::EventChanceMortmainCharWnd, COMDAT
; _this$ = ecx

; 586  : {

  00000	56		 push	 esi
  00001	8b f1		 mov	 esi, ecx
  00003	ff 15 00 00 00
	00		 call	 DWORD PTR __imp_??0ioMovingWnd@@QAE@XZ

; 587  : 	m_pGaugeBack = NULL;

  00009	33 c0		 xor	 eax, eax
  0000b	89 86 90 01 00
	00		 mov	 DWORD PTR [esi+400], eax

; 588  : 	m_pGaugeLine = NULL;

  00011	89 86 94 01 00
	00		 mov	 DWORD PTR [esi+404], eax

; 589  : 	m_pTimeText  = NULL;

  00017	89 86 98 01 00
	00		 mov	 DWORD PTR [esi+408], eax

; 590  : 	m_pTimeColon = NULL;

  0001d	89 86 9c 01 00
	00		 mov	 DWORD PTR [esi+412], eax
  00023	c7 06 00 00 00
	00		 mov	 DWORD PTR [esi], OFFSET ??_7EventChanceMortmainCharWnd@@6B@

; 591  : }

  00029	8b c6		 mov	 eax, esi
  0002b	5e		 pop	 esi
  0002c	c3		 ret	 0
??0EventChanceMortmainCharWnd@@QAE@XZ ENDP		; EventChanceMortmainCharWnd::EventChanceMortmainCharWnd
_TEXT	ENDS
PUBLIC	??1EventChanceMortmainCharWnd@@UAE@XZ		; EventChanceMortmainCharWnd::~EventChanceMortmainCharWnd
EXTRN	__imp_??1ioMovingWnd@@UAE@XZ:PROC
;	COMDAT xdata$x
xdata$x	SEGMENT
__unwindtable$??1EventChanceMortmainCharWnd@@UAE@XZ DD 0ffffffffH
	DD	FLAT:__unwindfunclet$??1EventChanceMortmainCharWnd@@UAE@XZ$0
__ehfuncinfo$??1EventChanceMortmainCharWnd@@UAE@XZ DD 019930522H
	DD	01H
	DD	FLAT:__unwindtable$??1EventChanceMortmainCharWnd@@UAE@XZ
	DD	2 DUP(00H)
	DD	2 DUP(00H)
	DD	00H
	DD	01H
; Function compile flags: /Ogsp
xdata$x	ENDS
;	COMDAT ??1EventChanceMortmainCharWnd@@UAE@XZ
_TEXT	SEGMENT
_this$ = -16						; size = 4
__$EHRec$ = -12						; size = 12
??1EventChanceMortmainCharWnd@@UAE@XZ PROC		; EventChanceMortmainCharWnd::~EventChanceMortmainCharWnd, COMDAT
; _this$ = ecx

; 594  : {

  00000	6a 04		 push	 4
  00002	b8 00 00 00 00	 mov	 eax, __ehhandler$??1EventChanceMortmainCharWnd@@UAE@XZ
  00007	e8 00 00 00 00	 call	 __EH_prolog3
  0000c	8b f1		 mov	 esi, ecx
  0000e	89 75 f0	 mov	 DWORD PTR _this$[ebp], esi
  00011	c7 06 00 00 00
	00		 mov	 DWORD PTR [esi], OFFSET ??_7EventChanceMortmainCharWnd@@6B@

; 595  : 	SAFEDELETE( m_pGaugeBack );

  00017	8b 8e 90 01 00
	00		 mov	 ecx, DWORD PTR [esi+400]
  0001d	33 db		 xor	 ebx, ebx
  0001f	89 5d fc	 mov	 DWORD PTR __$EHRec$[ebp+8], ebx
  00022	3b cb		 cmp	 ecx, ebx
  00024	74 0d		 je	 SHORT $LN4@EventChanc
  00026	8b 01		 mov	 eax, DWORD PTR [ecx]
  00028	6a 01		 push	 1
  0002a	ff 50 40	 call	 DWORD PTR [eax+64]
  0002d	89 9e 90 01 00
	00		 mov	 DWORD PTR [esi+400], ebx
$LN4@EventChanc:

; 596  : 	SAFEDELETE( m_pGaugeLine );

  00033	8b 8e 94 01 00
	00		 mov	 ecx, DWORD PTR [esi+404]
  00039	3b cb		 cmp	 ecx, ebx
  0003b	74 0d		 je	 SHORT $LN3@EventChanc
  0003d	8b 01		 mov	 eax, DWORD PTR [ecx]
  0003f	6a 01		 push	 1
  00041	ff 50 40	 call	 DWORD PTR [eax+64]
  00044	89 9e 94 01 00
	00		 mov	 DWORD PTR [esi+404], ebx
$LN3@EventChanc:

; 597  : 	SAFEDELETE( m_pTimeText );

  0004a	8b 8e 98 01 00
	00		 mov	 ecx, DWORD PTR [esi+408]
  00050	3b cb		 cmp	 ecx, ebx
  00052	74 0d		 je	 SHORT $LN2@EventChanc
  00054	8b 01		 mov	 eax, DWORD PTR [ecx]
  00056	6a 01		 push	 1
  00058	ff 50 40	 call	 DWORD PTR [eax+64]
  0005b	89 9e 98 01 00
	00		 mov	 DWORD PTR [esi+408], ebx
$LN2@EventChanc:

; 598  : 	SAFEDELETE( m_pTimeColon );

  00061	8b 8e 9c 01 00
	00		 mov	 ecx, DWORD PTR [esi+412]
  00067	3b cb		 cmp	 ecx, ebx
  00069	74 0d		 je	 SHORT $LN1@EventChanc
  0006b	8b 01		 mov	 eax, DWORD PTR [ecx]
  0006d	6a 01		 push	 1
  0006f	ff 50 40	 call	 DWORD PTR [eax+64]
  00072	89 9e 9c 01 00
	00		 mov	 DWORD PTR [esi+412], ebx
$LN1@EventChanc:

; 599  : }

  00078	83 4d fc ff	 or	 DWORD PTR __$EHRec$[ebp+8], -1
  0007c	8b ce		 mov	 ecx, esi
  0007e	ff 15 00 00 00
	00		 call	 DWORD PTR __imp_??1ioMovingWnd@@UAE@XZ
  00084	e8 00 00 00 00	 call	 __EH_epilog3
  00089	c3		 ret	 0
_TEXT	ENDS
;	COMDAT text$x
text$x	SEGMENT
__unwindfunclet$??1EventChanceMortmainCharWnd@@UAE@XZ$0:
  00000	8b 4d f0	 mov	 ecx, DWORD PTR _this$[ebp]
  00003	ff 25 00 00 00
	00		 jmp	 DWORD PTR __imp_??1ioMovingWnd@@UAE@XZ
__ehhandler$??1EventChanceMortmainCharWnd@@UAE@XZ:
  00009	8b 54 24 08	 mov	 edx, DWORD PTR [esp+8]
  0000d	8d 42 0c	 lea	 eax, DWORD PTR [edx+12]
  00010	8b 4a ec	 mov	 ecx, DWORD PTR [edx-20]
  00013	33 c8		 xor	 ecx, eax
  00015	e8 00 00 00 00	 call	 @__security_check_cookie@4
  0001a	b8 00 00 00 00	 mov	 eax, OFFSET __ehfuncinfo$??1EventChanceMortmainCharWnd@@UAE@XZ
  0001f	e9 00 00 00 00	 jmp	 ___CxxFrameHandler3
text$x	ENDS
??1EventChanceMortmainCharWnd@@UAE@XZ ENDP		; EventChanceMortmainCharWnd::~EventChanceMortmainCharWnd
EXTRN	__imp_?OnProcess@ioWnd@@MAEXM@Z:PROC
; Function compile flags: /Ogsp
;	COMDAT ?OnProcess@EventChanceMortmainCharWnd@@MAEXM@Z
_TEXT	SEGMENT
_fTimePerSec$ = 8					; size = 4
?OnProcess@EventChanceMortmainCharWnd@@MAEXM@Z PROC	; EventChanceMortmainCharWnd::OnProcess, COMDAT
; _this$ = ecx

; 768  : {

  00000	55		 push	 ebp
  00001	8b ec		 mov	 ebp, esp
  00003	56		 push	 esi
  00004	8b f1		 mov	 esi, ecx

; 769  : 	if( !IsShow() ) return;

  00006	ff 15 00 00 00
	00		 call	 DWORD PTR __imp_?IsShow@ioWnd@@QBE_NXZ
  0000c	84 c0		 test	 al, al
  0000e	74 3c		 je	 SHORT $LN1@OnProcess@3

; 770  : 
; 771  : 	if( !g_EventMgr.IsAlive( EVT_CHANCE_MORTMAIN_CHAR, g_MyInfo.GetChannelingType() ) )

  00010	e8 00 00 00 00	 call	 ?GetSingleton@ioMyInfo@@SAAAV1@XZ ; ioMyInfo::GetSingleton
  00015	8b c8		 mov	 ecx, eax
  00017	e8 00 00 00 00	 call	 ?GetChannelingType@ioMyInfo@@QBE?AW4ChannelingType@@XZ ; ioMyInfo::GetChannelingType
  0001c	50		 push	 eax
  0001d	6a 0b		 push	 11			; 0000000bH
  0001f	e8 00 00 00 00	 call	 ?GetSingleton@ioEventManager@@SAAAV1@XZ ; ioEventManager::GetSingleton
  00024	8b c8		 mov	 ecx, eax
  00026	e8 00 00 00 00	 call	 ?IsAlive@ioEventManager@@QAE_NW4EventType@@W4ChannelingType@@@Z ; ioEventManager::IsAlive
  0002b	84 c0		 test	 al, al
  0002d	75 0a		 jne	 SHORT $LN2@OnProcess@3

; 772  : 	{
; 773  : 		// 이벤트 종료
; 774  : 		HideWnd();

  0002f	8b ce		 mov	 ecx, esi
  00031	ff 15 00 00 00
	00		 call	 DWORD PTR __imp_?HideWnd@ioWnd@@QAEXXZ

; 775  : 	}
; 776  : 	else

  00037	eb 13		 jmp	 SHORT $LN1@OnProcess@3
$LN2@OnProcess@3:

; 777  : 	{
; 778  : 		ioMovingWnd::OnProcess( fTimePerSec );

  00039	f3 0f 10 45 08	 movss	 xmm0, DWORD PTR _fTimePerSec$[ebp]
  0003e	51		 push	 ecx
  0003f	8b ce		 mov	 ecx, esi
  00041	f3 0f 11 04 24	 movss	 DWORD PTR [esp], xmm0
  00046	ff 15 00 00 00
	00		 call	 DWORD PTR __imp_?OnProcess@ioWnd@@MAEXM@Z
$LN1@OnProcess@3:
  0004c	5e		 pop	 esi

; 779  : 	}
; 780  : }

  0004d	5d		 pop	 ebp
  0004e	c2 04 00	 ret	 4
?OnProcess@EventChanceMortmainCharWnd@@MAEXM@Z ENDP	; EventChanceMortmainCharWnd::OnProcess
_TEXT	ENDS
PUBLIC	__real@3f19999a
PUBLIC	??_C@_0CF@FPPDPJCJ@EventChanceMortmainCharWnd?3?3OnRe@ ; `string'
PUBLIC	__real@4f800000
PUBLIC	__real@404e000000000000
PUBLIC	__real@408f400000000000
PUBLIC	__real@3f800000
PUBLIC	??_R0?AVEventUserNode@@@8			; EventUserNode `RTTI Type Descriptor'
PUBLIC	??_R0?AVChanceMortmainCharEventUserNode@@@8	; ChanceMortmainCharEventUserNode `RTTI Type Descriptor'
EXTRN	__imp_?RenderNum@ioUIRenderImage@@QAEXMMHMMW4UIRenderType@@W4TextureFilterOption@@0W4RenerNumerFormatting@1@@Z:PROC
EXTRN	__imp_?RenderWidthCut@ioUIRenderImage@@QAEXMMHHW4UIRenderType@@W4TextureFilterOption@@0@Z:PROC
EXTRN	__imp_?GetWidth@ioUIRenderElement@@QBEHXZ:PROC
EXTRN	?GetValue@ioEventManager@@QAEHW4EventType@@H@Z:PROC ; ioEventManager::GetValue
EXTRN	?GetValue@EventUserNode@@QAEHH@Z:PROC		; EventUserNode::GetValue
EXTRN	?GetEventUserNode@EventUserManager@@QAEPAVEventUserNode@@W4EventType@@@Z:PROC ; EventUserManager::GetEventUserNode
EXTRN	?GetEventUserMgr@ioMyInfo@@QAEAAVEventUserManager@@XZ:PROC ; ioMyInfo::GetEventUserMgr
EXTRN	___RTDynamicCast:PROC
;	COMDAT __real@3f19999a
; File d:\lost saga for developer\youtube\tutorial\source\src\lsclient\stdafx.h
CONST	SEGMENT
__real@3f19999a DD 03f19999ar			; 0.6
CONST	ENDS
;	COMDAT ??_C@_0CF@FPPDPJCJ@EventChanceMortmainCharWnd?3?3OnRe@
CONST	SEGMENT
??_C@_0CF@FPPDPJCJ@EventChanceMortmainCharWnd?3?3OnRe@ DB 'EventChanceMor'
	DB	'tmainCharWnd::OnRender', 00H		; `string'
CONST	ENDS
;	COMDAT __real@4f800000
CONST	SEGMENT
__real@4f800000 DD 04f800000r			; 4.29497e+009
CONST	ENDS
;	COMDAT __real@404e000000000000
CONST	SEGMENT
__real@404e000000000000 DQ 0404e000000000000r	; 60
CONST	ENDS
;	COMDAT __real@408f400000000000
CONST	SEGMENT
__real@408f400000000000 DQ 0408f400000000000r	; 1000
CONST	ENDS
;	COMDAT __real@3f800000
CONST	SEGMENT
__real@3f800000 DD 03f800000r			; 1
CONST	ENDS
;	COMDAT ??_R0?AVEventUserNode@@@8
_DATA	SEGMENT
??_R0?AVEventUserNode@@@8 DD FLAT:??_7type_info@@6B@	; EventUserNode `RTTI Type Descriptor'
	DD	00H
	DB	'.?AVEventUserNode@@', 00H
_DATA	ENDS
;	COMDAT ??_R0?AVChanceMortmainCharEventUserNode@@@8
_DATA	SEGMENT
??_R0?AVChanceMortmainCharEventUserNode@@@8 DD FLAT:??_7type_info@@6B@ ; ChanceMortmainCharEventUserNode `RTTI Type Descriptor'
	DD	00H
	DB	'.?AVChanceMortmainCharEventUserNode@@', 00H
; Function compile flags: /Ogsp
; File d:\lost saga for developer\youtube\tutorial\source\src\lsclient\gui\eventcatalogwnd.cpp
_DATA	ENDS
;	COMDAT ?OnRender@EventChanceMortmainCharWnd@@MAEXXZ
_TEXT	SEGMENT
tv442 = -20						; size = 4
tv268 = -20						; size = 4
_iNum$515631 = -20					; size = 4
tv447 = -16						; size = 4
_iCurMS$515625 = -16					; size = 4
_iTotalMS$515624 = -12					; size = 4
_iYPos$ = -8						; size = 4
tv458 = -4						; size = 4
tv440 = -4						; size = 4
_pEventNode$ = -4					; size = 4
?OnRender@EventChanceMortmainCharWnd@@MAEXXZ PROC	; EventChanceMortmainCharWnd::OnRender, COMDAT
; _this$ = ecx

; 783  : {

  00000	55		 push	 ebp
  00001	8b ec		 mov	 ebp, esp
  00003	83 ec 14	 sub	 esp, 20			; 00000014H
  00006	53		 push	 ebx
  00007	56		 push	 esi
  00008	57		 push	 edi
  00009	8b f9		 mov	 edi, ecx

; 784  : 	ioWnd::OnRender();

  0000b	ff 15 00 00 00
	00		 call	 DWORD PTR __imp_?OnRender@ioWnd@@MAEXXZ

; 785  : 
; 786  : 	int iXPos = GetDerivedPosX();

  00011	8b cf		 mov	 ecx, edi
  00013	ff 15 00 00 00
	00		 call	 DWORD PTR __imp_?GetDerivedPosX@ioWnd@@QBEHXZ

; 787  : 	int iYPos = GetDerivedPosY();

  00019	8b cf		 mov	 ecx, edi
  0001b	8b d8		 mov	 ebx, eax
  0001d	ff 15 00 00 00
	00		 call	 DWORD PTR __imp_?GetDerivedPosY@ioWnd@@QBEHXZ

; 788  : 
; 789  : 	ChanceMortmainCharEventUserNode *pEventNode = dynamic_cast<ChanceMortmainCharEventUserNode*>( g_MyInfo.GetEventUserMgr().GetEventUserNode( EVT_CHANCE_MORTMAIN_CHAR ) );

  00023	33 f6		 xor	 esi, esi
  00025	56		 push	 esi
  00026	68 00 00 00 00	 push	 OFFSET ??_R0?AVChanceMortmainCharEventUserNode@@@8
  0002b	68 00 00 00 00	 push	 OFFSET ??_R0?AVEventUserNode@@@8
  00030	56		 push	 esi
  00031	6a 0b		 push	 11			; 0000000bH
  00033	89 45 f8	 mov	 DWORD PTR _iYPos$[ebp], eax
  00036	e8 00 00 00 00	 call	 ?GetSingleton@ioMyInfo@@SAAAV1@XZ ; ioMyInfo::GetSingleton
  0003b	8b c8		 mov	 ecx, eax
  0003d	e8 00 00 00 00	 call	 ?GetEventUserMgr@ioMyInfo@@QAEAAVEventUserManager@@XZ ; ioMyInfo::GetEventUserMgr
  00042	8b c8		 mov	 ecx, eax
  00044	e8 00 00 00 00	 call	 ?GetEventUserNode@EventUserManager@@QAEPAVEventUserNode@@W4EventType@@@Z ; EventUserManager::GetEventUserNode
  00049	50		 push	 eax
  0004a	e8 00 00 00 00	 call	 ___RTDynamicCast
  0004f	83 c4 14	 add	 esp, 20			; 00000014H
  00052	89 45 fc	 mov	 DWORD PTR _pEventNode$[ebp], eax

; 790  : 	if( pEventNode )

  00055	3b c6		 cmp	 eax, esi
  00057	0f 84 38 03 00
	00		 je	 $LN1@OnRender@2

; 791  : 	{
; 792  : 		g_FontMgr.SetTextStyle( TS_OUTLINE_FULL_2X );

  0005d	6a 05		 push	 5
  0005f	ff 15 00 00 00
	00		 call	 DWORD PTR __imp_?GetSingleton@ioFontManager@@SAAAV1@XZ
  00065	8b c8		 mov	 ecx, eax
  00067	ff 15 00 00 00
	00		 call	 DWORD PTR __imp_?SetTextStyle@ioFontManager@@QAEXW4TextStyle@@@Z

; 793  : 		g_FontMgr.SetAlignType( TAT_CENTER );

  0006d	6a 01		 push	 1
  0006f	ff 15 00 00 00
	00		 call	 DWORD PTR __imp_?GetSingleton@ioFontManager@@SAAAV1@XZ
  00075	8b c8		 mov	 ecx, eax
  00077	ff 15 00 00 00
	00		 call	 DWORD PTR __imp_?SetAlignType@ioFontManager@@QAEXW4TextAlignType@@@Z

; 794  : 		g_FontMgr.SetBkColor( 0, 0, 0 );

  0007d	56		 push	 esi
  0007e	56		 push	 esi
  0007f	56		 push	 esi
  00080	ff 15 00 00 00
	00		 call	 DWORD PTR __imp_?GetSingleton@ioFontManager@@SAAAV1@XZ
  00086	8b c8		 mov	 ecx, eax
  00088	ff 15 00 00 00
	00		 call	 DWORD PTR __imp_?SetBkColor@ioFontManager@@QAEXHHH@Z

; 795  : 		g_FontMgr.SetTextColor( TCT_DEFAULT_GRAY );

  0008e	68 6e 6e 6e ff	 push	 -9539986		; ff6e6e6eH
  00093	ff 15 00 00 00
	00		 call	 DWORD PTR __imp_?GetSingleton@ioFontManager@@SAAAV1@XZ
  00099	8b c8		 mov	 ecx, eax
  0009b	ff 15 00 00 00
	00		 call	 DWORD PTR __imp_?SetTextColor@ioFontManager@@QAEXK@Z

; 796  : 
; 797  : 		if( pEventNode->GetValue( VA_CMC_MAGIC_CODE ) >= 0 )

  000a1	8b 4d fc	 mov	 ecx, DWORD PTR _pEventNode$[ebp]
  000a4	56		 push	 esi
  000a5	e8 00 00 00 00	 call	 ?GetValue@EventUserNode@@QAEHH@Z ; EventUserNode::GetValue

; 798  : 		{
; 799  : 			int iTotalMS = max( 1, g_EventMgr.GetValue( EVT_CHANCE_MORTMAIN_CHAR, EA_CHANCE_MORTMAIN_CHAR_TIME ) );

  000aa	56		 push	 esi
  000ab	85 c0		 test	 eax, eax
  000ad	0f 88 84 02 00
	00		 js	 $LN5@OnRender@2
  000b3	6a 0b		 push	 11			; 0000000bH
  000b5	e8 00 00 00 00	 call	 ?GetSingleton@ioEventManager@@SAAAV1@XZ ; ioEventManager::GetSingleton
  000ba	8b c8		 mov	 ecx, eax
  000bc	e8 00 00 00 00	 call	 ?GetValue@ioEventManager@@QAEHW4EventType@@H@Z ; ioEventManager::GetValue
  000c1	33 c9		 xor	 ecx, ecx
  000c3	41		 inc	 ecx
  000c4	3b c1		 cmp	 eax, ecx
  000c6	7d 05		 jge	 SHORT $LN9@OnRender@2
  000c8	89 4d f4	 mov	 DWORD PTR _iTotalMS$515624[ebp], ecx
  000cb	eb 12		 jmp	 SHORT $LN10@OnRender@2
$LN9@OnRender@2:
  000cd	56		 push	 esi
  000ce	6a 0b		 push	 11			; 0000000bH
  000d0	e8 00 00 00 00	 call	 ?GetSingleton@ioEventManager@@SAAAV1@XZ ; ioEventManager::GetSingleton
  000d5	8b c8		 mov	 ecx, eax
  000d7	e8 00 00 00 00	 call	 ?GetValue@ioEventManager@@QAEHW4EventType@@H@Z ; ioEventManager::GetValue
  000dc	89 45 f4	 mov	 DWORD PTR _iTotalMS$515624[ebp], eax
$LN10@OnRender@2:

; 800  : 			int iCurMS = pEventNode->GetValue( VA_CMC_MAGIC_CODE );

  000df	8b 4d fc	 mov	 ecx, DWORD PTR _pEventNode$[ebp]
  000e2	56		 push	 esi
  000e3	e8 00 00 00 00	 call	 ?GetValue@EventUserNode@@QAEHH@Z ; EventUserNode::GetValue
  000e8	89 45 f0	 mov	 DWORD PTR _iCurMS$515625[ebp], eax

; 801  : 			float fTempPer = (float)iCurMS / (float)iTotalMS;
; 802  : 			// 시간 게이지
; 803  : 			if( m_pGaugeBack && m_pGaugeLine && m_pTimeColon && m_pTimeText )

  000eb	39 b7 90 01 00
	00		 cmp	 DWORD PTR [edi+400], esi
  000f1	0f 84 3b 02 00
	00		 je	 $LN2@OnRender@2
  000f7	39 b7 94 01 00
	00		 cmp	 DWORD PTR [edi+404], esi
  000fd	0f 84 2f 02 00
	00		 je	 $LN2@OnRender@2
  00103	39 b7 9c 01 00
	00		 cmp	 DWORD PTR [edi+412], esi
  00109	0f 84 23 02 00
	00		 je	 $LN2@OnRender@2
  0010f	39 b7 98 01 00
	00		 cmp	 DWORD PTR [edi+408], esi
  00115	0f 84 17 02 00
	00		 je	 $LN2@OnRender@2

; 804  : 			{
; 805  : 				m_pGaugeBack->Render( iXPos + 17, iYPos + 68 );

  0011b	8b 8f 90 01 00
	00		 mov	 ecx, DWORD PTR [edi+400]
  00121	8b 45 f8	 mov	 eax, DWORD PTR _iYPos$[ebp]
  00124	56		 push	 esi
  00125	56		 push	 esi
  00126	56		 push	 esi
  00127	83 c0 44	 add	 eax, 68			; 00000044H
  0012a	56		 push	 esi
  0012b	0f 57 c0	 xorps	 xmm0, xmm0
  0012e	f3 0f 2a c0	 cvtsi2ss xmm0, eax
  00132	51		 push	 ecx
  00133	8d 43 11	 lea	 eax, DWORD PTR [ebx+17]
  00136	51		 push	 ecx
  00137	0f 57 c9	 xorps	 xmm1, xmm1
  0013a	f3 0f 2a c8	 cvtsi2ss xmm1, eax
  0013e	8b 01		 mov	 eax, DWORD PTR [ecx]
  00140	f3 0f 11 44 24
	04		 movss	 DWORD PTR [esp+4], xmm0
  00146	f3 0f 11 45 fc	 movss	 DWORD PTR tv440[ebp], xmm0
  0014b	f3 0f 11 4d ec	 movss	 DWORD PTR tv442[ebp], xmm1
  00150	f3 0f 11 0c 24	 movss	 DWORD PTR [esp], xmm1
  00155	ff 10		 call	 DWORD PTR [eax]

; 806  : 				m_pGaugeLine->RenderWidthCut( iXPos + 17, iYPos + 68, 0, (float)m_pGaugeLine->GetWidth() * fTempPer );

  00157	66 0f 6e 45 f0	 movd	 xmm0, DWORD PTR _iCurMS$515625[ebp]
  0015c	8b 8f 94 01 00
	00		 mov	 ecx, DWORD PTR [edi+404]
  00162	56		 push	 esi
  00163	56		 push	 esi
  00164	0f 5b c0	 cvtdq2ps xmm0, xmm0
  00167	56		 push	 esi
  00168	f3 0f 11 45 f0	 movss	 DWORD PTR tv447[ebp], xmm0
  0016d	ff 15 00 00 00
	00		 call	 DWORD PTR __imp_?GetWidth@ioUIRenderElement@@QBEHXZ
  00173	66 0f 6e 55 f4	 movd	 xmm2, DWORD PTR _iTotalMS$515624[ebp]
  00178	f3 0f 10 4d f0	 movss	 xmm1, DWORD PTR tv447[ebp]
  0017d	0f 57 c0	 xorps	 xmm0, xmm0
  00180	f3 0f 2a c0	 cvtsi2ss xmm0, eax
  00184	0f 5a c9	 cvtps2pd xmm1, xmm1
  00187	0f 5b d2	 cvtdq2ps xmm2, xmm2
  0018a	f3 0f 5a d2	 cvtss2sd xmm2, xmm2
  0018e	f2 0f 5e ca	 divsd	 xmm1, xmm2
  00192	0f 5a c0	 cvtps2pd xmm0, xmm0
  00195	f2 0f 5a c9	 cvtsd2ss xmm1, xmm1
  00199	f3 0f 5a c9	 cvtss2sd xmm1, xmm1
  0019d	f2 0f 59 c1	 mulsd	 xmm0, xmm1
  001a1	f2 0f 2c c0	 cvttsd2si eax, xmm0
  001a5	f3 0f 10 45 fc	 movss	 xmm0, DWORD PTR tv440[ebp]
  001aa	50		 push	 eax
  001ab	56		 push	 esi
  001ac	51		 push	 ecx
  001ad	51		 push	 ecx
  001ae	8b 8f 94 01 00
	00		 mov	 ecx, DWORD PTR [edi+404]
  001b4	f3 0f 11 44 24
	04		 movss	 DWORD PTR [esp+4], xmm0
  001ba	f3 0f 10 45 ec	 movss	 xmm0, DWORD PTR tv442[ebp]
  001bf	f3 0f 11 04 24	 movss	 DWORD PTR [esp], xmm0
  001c4	ff 15 00 00 00
	00		 call	 DWORD PTR __imp_?RenderWidthCut@ioUIRenderImage@@QAEXMMHHW4UIRenderType@@W4TextureFilterOption@@0@Z

; 807  : 				m_pTimeText->RenderNum( iXPos + 82, iYPos + 70, 0 );

  001ca	f3 0f 10 0d 00
	00 00 00	 movss	 xmm1, DWORD PTR __real@3f800000
  001d2	8b 45 f8	 mov	 eax, DWORD PTR _iYPos$[ebp]
  001d5	56		 push	 esi
  001d6	56		 push	 esi
  001d7	56		 push	 esi
  001d8	56		 push	 esi
  001d9	51		 push	 ecx
  001da	51		 push	 ecx
  001db	f3 0f 11 4c 24
	04		 movss	 DWORD PTR [esp+4], xmm1
  001e1	0f 57 c9	 xorps	 xmm1, xmm1
  001e4	f3 0f 11 0c 24	 movss	 DWORD PTR [esp], xmm1
  001e9	56		 push	 esi
  001ea	51		 push	 ecx
  001eb	83 c0 46	 add	 eax, 70			; 00000046H
  001ee	0f 57 c0	 xorps	 xmm0, xmm0
  001f1	f3 0f 2a c0	 cvtsi2ss xmm0, eax
  001f5	51		 push	 ecx
  001f6	8b 8f 98 01 00
	00		 mov	 ecx, DWORD PTR [edi+408]
  001fc	f3 0f 11 44 24
	04		 movss	 DWORD PTR [esp+4], xmm0
  00202	f3 0f 11 45 fc	 movss	 DWORD PTR tv458[ebp], xmm0
  00207	8d 43 52	 lea	 eax, DWORD PTR [ebx+82]
  0020a	0f 57 c0	 xorps	 xmm0, xmm0
  0020d	f3 0f 2a c0	 cvtsi2ss xmm0, eax
  00211	f3 0f 11 04 24	 movss	 DWORD PTR [esp], xmm0
  00216	ff 15 00 00 00
	00		 call	 DWORD PTR __imp_?RenderNum@ioUIRenderImage@@QAEXMMHMMW4UIRenderType@@W4TextureFilterOption@@0W4RenerNumerFormatting@1@@Z

; 808  : 				m_pTimeColon->Render( iXPos + 89, iYPos + 70 );

  0021c	8b 8f 9c 01 00
	00		 mov	 ecx, DWORD PTR [edi+412]
  00222	8b 01		 mov	 eax, DWORD PTR [ecx]
  00224	56		 push	 esi
  00225	56		 push	 esi
  00226	56		 push	 esi
  00227	f3 0f 10 45 fc	 movss	 xmm0, DWORD PTR tv458[ebp]
  0022c	56		 push	 esi
  0022d	51		 push	 ecx
  0022e	51		 push	 ecx
  0022f	f3 0f 11 44 24
	04		 movss	 DWORD PTR [esp+4], xmm0
  00235	8d 53 59	 lea	 edx, DWORD PTR [ebx+89]
  00238	0f 57 c0	 xorps	 xmm0, xmm0
  0023b	f3 0f 2a c2	 cvtsi2ss xmm0, edx
  0023f	f3 0f 11 04 24	 movss	 DWORD PTR [esp], xmm0
  00244	ff 10		 call	 DWORD PTR [eax]

; 809  : 
; 810  : 				int iNum = (float)( (float)iCurMS / 1000 ) / 60;

  00246	f3 0f 10 45 f0	 movss	 xmm0, DWORD PTR tv447[ebp]
  0024b	0f 5a c0	 cvtps2pd xmm0, xmm0
  0024e	f2 0f 5e 05 00
	00 00 00	 divsd	 xmm0, QWORD PTR __real@408f400000000000
  00256	f2 0f 5a c0	 cvtsd2ss xmm0, xmm0
  0025a	f3 0f 5a c0	 cvtss2sd xmm0, xmm0
  0025e	f2 0f 5e 05 00
	00 00 00	 divsd	 xmm0, QWORD PTR __real@404e000000000000
  00266	f2 0f 2c c8	 cvttsd2si ecx, xmm0
  0026a	89 4d ec	 mov	 DWORD PTR _iNum$515631[ebp], ecx

; 811  : 				if( iNum < 10 )

  0026d	83 f9 0a	 cmp	 ecx, 10			; 0000000aH
  00270	7d 69		 jge	 SHORT $LN3@OnRender@2

; 812  : 				{
; 813  : 					m_pTimeText->RenderNum( iXPos + 92, iYPos + 70, 0 );

  00272	f3 0f 10 05 00
	00 00 00	 movss	 xmm0, DWORD PTR __real@3f800000
  0027a	56		 push	 esi
  0027b	56		 push	 esi
  0027c	56		 push	 esi
  0027d	56		 push	 esi
  0027e	51		 push	 ecx
  0027f	51		 push	 ecx
  00280	f3 0f 11 44 24
	04		 movss	 DWORD PTR [esp+4], xmm0
  00286	0f 57 c0	 xorps	 xmm0, xmm0
  00289	f3 0f 11 04 24	 movss	 DWORD PTR [esp], xmm0
  0028e	f3 0f 10 45 fc	 movss	 xmm0, DWORD PTR tv458[ebp]
  00293	56		 push	 esi
  00294	51		 push	 ecx
  00295	51		 push	 ecx
  00296	8b 8f 98 01 00
	00		 mov	 ecx, DWORD PTR [edi+408]
  0029c	f3 0f 11 44 24
	04		 movss	 DWORD PTR [esp+4], xmm0
  002a2	8d 43 5c	 lea	 eax, DWORD PTR [ebx+92]
  002a5	0f 57 c0	 xorps	 xmm0, xmm0
  002a8	f3 0f 2a c0	 cvtsi2ss xmm0, eax
  002ac	f3 0f 11 04 24	 movss	 DWORD PTR [esp], xmm0
  002b1	ff 15 00 00 00
	00		 call	 DWORD PTR __imp_?RenderNum@ioUIRenderImage@@QAEXMMHMMW4UIRenderType@@W4TextureFilterOption@@0W4RenerNumerFormatting@1@@Z

; 814  : 					m_pTimeText->RenderNum( iXPos + 99, iYPos + 70, iNum );

  002b7	f3 0f 10 05 00
	00 00 00	 movss	 xmm0, DWORD PTR __real@3f800000
  002bf	56		 push	 esi
  002c0	56		 push	 esi
  002c1	56		 push	 esi
  002c2	56		 push	 esi
  002c3	51		 push	 ecx
  002c4	51		 push	 ecx
  002c5	f3 0f 11 44 24
	04		 movss	 DWORD PTR [esp+4], xmm0
  002cb	0f 57 c0	 xorps	 xmm0, xmm0
  002ce	f3 0f 11 04 24	 movss	 DWORD PTR [esp], xmm0
  002d3	ff 75 ec	 push	 DWORD PTR _iNum$515631[ebp]
  002d6	8d 43 63	 lea	 eax, DWORD PTR [ebx+99]

; 815  : 				}
; 816  : 				else

  002d9	eb 32		 jmp	 SHORT $LN14@OnRender@2
$LN3@OnRender@2:

; 817  : 				{
; 818  : 					m_pTimeText->RenderNum( iXPos + 92, iYPos + 70, iNum, -FLOAT1 );

  002db	b8 01 00 00 00	 mov	 eax, 1
  002e0	f3 0f 10 05 00
	00 00 00	 movss	 xmm0, DWORD PTR __real@3f800000
  002e8	56		 push	 esi
  002e9	56		 push	 esi
  002ea	56		 push	 esi
  002eb	56		 push	 esi
  002ec	51		 push	 ecx
  002ed	51		 push	 ecx
  002ee	89 45 ec	 mov	 DWORD PTR tv268[ebp], eax
  002f1	db 45 ec	 fild	 DWORD PTR tv268[ebp]
  002f4	f3 0f 11 44 24
	04		 movss	 DWORD PTR [esp+4], xmm0
  002fa	85 c0		 test	 eax, eax
  002fc	79 06		 jns	 SHORT $LN13@OnRender@2
  002fe	d8 05 00 00 00
	00		 fadd	 DWORD PTR __real@4f800000
$LN13@OnRender@2:
  00304	d9 e0		 fchs
  00306	8d 43 5c	 lea	 eax, DWORD PTR [ebx+92]
  00309	d9 1c 24	 fstp	 DWORD PTR [esp]
  0030c	51		 push	 ecx
$LN14@OnRender@2:
  0030d	f3 0f 10 45 fc	 movss	 xmm0, DWORD PTR tv458[ebp]
  00312	51		 push	 ecx
  00313	51		 push	 ecx
  00314	8b 8f 98 01 00
	00		 mov	 ecx, DWORD PTR [edi+408]
  0031a	f3 0f 11 44 24
	04		 movss	 DWORD PTR [esp+4], xmm0
  00320	0f 57 c0	 xorps	 xmm0, xmm0
  00323	f3 0f 2a c0	 cvtsi2ss xmm0, eax
  00327	f3 0f 11 04 24	 movss	 DWORD PTR [esp], xmm0
  0032c	ff 15 00 00 00
	00		 call	 DWORD PTR __imp_?RenderNum@ioUIRenderImage@@QAEXMMHMMW4UIRenderType@@W4TextureFilterOption@@0W4RenerNumerFormatting@1@@Z
$LN2@OnRender@2:

; 819  : 				}
; 820  : 			}
; 821  : 			g_FontMgr.PrintText( iXPos + 94, iYPos + 38, FONT_SIZE_12, STR(1) );

  00332	56		 push	 esi
  00333	6a 01		 push	 1

; 822  : 		}
; 823  : 		else

  00335	eb 02		 jmp	 SHORT $LN15@OnRender@2
$LN5@OnRender@2:

; 824  : 		{
; 825  : 			// 찬스 사용
; 826  : 			g_FontMgr.PrintText( iXPos + 94, iYPos + 38, FONT_SIZE_12, STR(2) );

  00337	6a 02		 push	 2
$LN15@OnRender@2:
  00339	68 00 00 00 00	 push	 OFFSET ??_C@_00CNPNBAHC@?$AA@
  0033e	68 00 00 00 00	 push	 OFFSET ??_C@_0CF@FPPDPJCJ@EventChanceMortmainCharWnd?3?3OnRe@
  00343	ff 15 00 00 00
	00		 call	 DWORD PTR __imp_?GetSingleton@ioStringManager@@SAAAV1@XZ
  00349	8b c8		 mov	 ecx, eax
  0034b	ff 15 00 00 00
	00		 call	 DWORD PTR __imp_?GetString@ioStringManager@@QAEPADPBD0HW4FileNamePrefix@1@@Z
  00351	f3 0f 10 05 00
	00 00 00	 movss	 xmm0, DWORD PTR __real@3f19999a
  00359	50		 push	 eax
  0035a	8b 45 f8	 mov	 eax, DWORD PTR _iYPos$[ebp]
  0035d	83 ec 0c	 sub	 esp, 12			; 0000000cH
  00360	f3 0f 11 44 24
	08		 movss	 DWORD PTR [esp+8], xmm0
  00366	0f 57 c0	 xorps	 xmm0, xmm0
  00369	83 c0 26	 add	 eax, 38			; 00000026H
  0036c	f3 0f 2a c0	 cvtsi2ss xmm0, eax
  00370	f3 0f 11 44 24
	04		 movss	 DWORD PTR [esp+4], xmm0
  00376	0f 57 c0	 xorps	 xmm0, xmm0
  00379	83 c3 5e	 add	 ebx, 94			; 0000005eH
  0037c	f3 0f 2a c3	 cvtsi2ss xmm0, ebx
  00380	f3 0f 11 04 24	 movss	 DWORD PTR [esp], xmm0
  00385	ff 15 00 00 00
	00		 call	 DWORD PTR __imp_?GetSingleton@ioFontManager@@SAAAV1@XZ
  0038b	50		 push	 eax
  0038c	ff 15 00 00 00
	00		 call	 DWORD PTR __imp_?PrintText@ioFontManager@@QAAXMMMPBDZZ
  00392	83 c4 14	 add	 esp, 20			; 00000014H
$LN1@OnRender@2:
  00395	5f		 pop	 edi
  00396	5e		 pop	 esi
  00397	5b		 pop	 ebx

; 827  : 		}
; 828  : 	}
; 829  : }

  00398	c9		 leave
  00399	c3		 ret	 0
?OnRender@EventChanceMortmainCharWnd@@MAEXXZ ENDP	; EventChanceMortmainCharWnd::OnRender
_TEXT	ENDS
PUBLIC	??_7EventChanceRollingWnd@@6B@			; EventChanceRollingWnd::`vftable'
PUBLIC	??0EventChanceRollingWnd@@QAE@XZ		; EventChanceRollingWnd::EventChanceRollingWnd
PUBLIC	??_R4EventChanceRollingWnd@@6B@			; EventChanceRollingWnd::`RTTI Complete Object Locator'
PUBLIC	??_R0?AVEventChanceRollingWnd@@@8		; EventChanceRollingWnd `RTTI Type Descriptor'
PUBLIC	??_R3EventChanceRollingWnd@@8			; EventChanceRollingWnd::`RTTI Class Hierarchy Descriptor'
PUBLIC	??_R2EventChanceRollingWnd@@8			; EventChanceRollingWnd::`RTTI Base Class Array'
PUBLIC	??_R1A@?0A@EA@EventChanceRollingWnd@@8		; EventChanceRollingWnd::`RTTI Base Class Descriptor at (0,-1,0,64)'
PUBLIC	?AddRenderImage@EventChanceRollingWnd@@MAEXABVioHashString@@PAVioUIRenderImage@@@Z ; EventChanceRollingWnd::AddRenderImage
PUBLIC	?ParseExtraInfo@EventChanceRollingWnd@@MAEXAAVioXMLElement@@@Z ; EventChanceRollingWnd::ParseExtraInfo
PUBLIC	?OnRender@EventChanceRollingWnd@@MAEXXZ		; EventChanceRollingWnd::OnRender
PUBLIC	?OnProcess@EventChanceRollingWnd@@MAEXM@Z	; EventChanceRollingWnd::OnProcess
PUBLIC	?iwm_command@EventChanceRollingWnd@@UAEXPAVioWnd@@HK@Z ; EventChanceRollingWnd::iwm_command
PUBLIC	?iwm_show@EventChanceRollingWnd@@UAEXXZ		; EventChanceRollingWnd::iwm_show
PUBLIC	?iwm_hide@EventChanceRollingWnd@@UAEXXZ		; EventChanceRollingWnd::iwm_hide
PUBLIC	?iwm_esc@EventChanceRollingWnd@@UAE_NXZ		; EventChanceRollingWnd::iwm_esc
EXTRN	??_EEventChanceRollingWnd@@UAEPAXI@Z:PROC	; EventChanceRollingWnd::`vector deleting destructor'
;	COMDAT ??_R1A@?0A@EA@EventChanceRollingWnd@@8
rdata$r	SEGMENT
??_R1A@?0A@EA@EventChanceRollingWnd@@8 DD FLAT:??_R0?AVEventChanceRollingWnd@@@8 ; EventChanceRollingWnd::`RTTI Base Class Descriptor at (0,-1,0,64)'
	DD	02H
	DD	00H
	DD	0ffffffffH
	DD	00H
	DD	040H
	DD	FLAT:??_R3EventChanceRollingWnd@@8
rdata$r	ENDS
;	COMDAT ??_R2EventChanceRollingWnd@@8
rdata$r	SEGMENT
??_R2EventChanceRollingWnd@@8 DD FLAT:??_R1A@?0A@EA@EventChanceRollingWnd@@8 ; EventChanceRollingWnd::`RTTI Base Class Array'
	DD	FLAT:??_R1A@?0A@EA@ioMovingWnd@@8
	DD	FLAT:??_R1A@?0A@EA@ioWnd@@8
rdata$r	ENDS
;	COMDAT ??_R3EventChanceRollingWnd@@8
rdata$r	SEGMENT
??_R3EventChanceRollingWnd@@8 DD 00H			; EventChanceRollingWnd::`RTTI Class Hierarchy Descriptor'
	DD	00H
	DD	03H
	DD	FLAT:??_R2EventChanceRollingWnd@@8
rdata$r	ENDS
;	COMDAT ??_R0?AVEventChanceRollingWnd@@@8
_DATA	SEGMENT
??_R0?AVEventChanceRollingWnd@@@8 DD FLAT:??_7type_info@@6B@ ; EventChanceRollingWnd `RTTI Type Descriptor'
	DD	00H
	DB	'.?AVEventChanceRollingWnd@@', 00H
_DATA	ENDS
;	COMDAT ??_R4EventChanceRollingWnd@@6B@
rdata$r	SEGMENT
??_R4EventChanceRollingWnd@@6B@ DD 00H			; EventChanceRollingWnd::`RTTI Complete Object Locator'
	DD	00H
	DD	00H
	DD	FLAT:??_R0?AVEventChanceRollingWnd@@@8
	DD	FLAT:??_R3EventChanceRollingWnd@@8
rdata$r	ENDS
;	COMDAT ??_7EventChanceRollingWnd@@6B@
CONST	SEGMENT
??_7EventChanceRollingWnd@@6B@ DD FLAT:??_R4EventChanceRollingWnd@@6B@ ; EventChanceRollingWnd::`vftable'
	DD	FLAT:?AddRenderFrame@ioWnd@@UAEXABVioHashString@@PAVioUIRenderFrame@@@Z
	DD	FLAT:?AddRenderImage@EventChanceRollingWnd@@MAEXABVioHashString@@PAVioUIRenderImage@@@Z
	DD	FLAT:?AddTooltipHelp@ioWnd@@UAEXABVioHashString@@00@Z
	DD	FLAT:?ParseExtraInfo@EventChanceRollingWnd@@MAEXAAVioXMLElement@@@Z
	DD	FLAT:?AddNamedRenderImage@ioWnd@@UAEXABVioHashString@@PAVioUIRenderImage@@@Z
	DD	FLAT:?RemoveNamedRenderImage@ioWnd@@UAEXABVioHashString@@@Z
	DD	FLAT:?GetNamedRenderImage@ioWnd@@UBEPAVioUIRenderImage@@ABVioHashString@@@Z
	DD	FLAT:?SetWindowAlpha@ioWnd@@UAEXH@Z
	DD	FLAT:?SetActive@ioWnd@@UAEXXZ
	DD	FLAT:?SetInActive@ioWnd@@UAEXXZ
	DD	FLAT:?ClearElementImageList@ioWnd@@UAEXXZ
	DD	FLAT:?SetSize@ioWnd@@UAEXHH@Z
	DD	FLAT:?SetPositionToDefault@ioMovingWnd@@UAEXHH_N0@Z
	DD	FLAT:?IsNeedProcess@ioWnd@@UBE_NXZ
	DD	FLAT:?IsCanMouseReaction@ioWnd@@UBE_NXZ
	DD	FLAT:?AddChild@ioWnd@@UAEXPAV1@@Z
	DD	FLAT:?DeleteChild@ioWnd@@UAEXK@Z
	DD	FLAT:?DeleteAllChild@ioWnd@@UAEXXZ
	DD	FLAT:?OnRenderShowAndHide@ioWnd@@MAE_NXZ
	DD	FLAT:?OnRenderShowAndHideByDefault@ioWnd@@MAE_NK@Z
	DD	FLAT:?OnRenderShowAndHideByTop@ioWnd@@MAE_NK@Z
	DD	FLAT:?OnRenderShowAndHideByDown@ioWnd@@MAE_NK@Z
	DD	FLAT:?OnRender@EventChanceRollingWnd@@MAEXXZ
	DD	FLAT:?OnRenderAfterChild@ioWnd@@MAEXXZ
	DD	FLAT:?OnProcess@EventChanceRollingWnd@@MAEXM@Z
	DD	FLAT:?OnMouseProcess@ioMovingWnd@@MAEXABVioMouse@@@Z
	DD	FLAT:?CheckFrameReSize@ioWnd@@MAEXHHHH@Z
	DD	FLAT:?RenderImageList@ioWnd@@MAEXHHW4UIRenderType@@@Z
	DD	FLAT:?iwm_create@ioWnd@@UAEXXZ
	DD	FLAT:?iwm_destroy@ioWnd@@UAEXXZ
	DD	FLAT:?iwm_lbuttondown@ioMovingWnd@@UAEXABVioMouse@@@Z
	DD	FLAT:?iwm_lbuttonup@ioMovingWnd@@UAEXABVioMouse@@@Z
	DD	FLAT:?iwm_lbuttonDBLCLK@ioWnd@@UAEXABVioMouse@@@Z
	DD	FLAT:?iwm_rbuttondown@ioWnd@@UAEXABVioMouse@@@Z
	DD	FLAT:?iwm_rbuttonup@ioWnd@@UAEXABVioMouse@@@Z
	DD	FLAT:?iwm_command@EventChanceRollingWnd@@UAEXPAVioWnd@@HK@Z
	DD	FLAT:?iwm_mouseover@ioWnd@@UAEXABVioMouse@@@Z
	DD	FLAT:?iwm_mousemove@ioWnd@@UAEXABVioMouse@@@Z
	DD	FLAT:?iwm_mouseleave@ioWnd@@UAEXABVioMouse@@@Z
	DD	FLAT:?iwm_vscroll@ioWnd@@UAEXKH@Z
	DD	FLAT:?iwm_wheel@ioWnd@@UAEXH@Z
	DD	FLAT:?iwm_show@EventChanceRollingWnd@@UAEXXZ
	DD	FLAT:?iwm_hide@EventChanceRollingWnd@@UAEXXZ
	DD	FLAT:?iwm_esc@EventChanceRollingWnd@@UAE_NXZ
	DD	FLAT:?iwm_spacebar@ioWnd@@UAE_NXZ
	DD	FLAT:?iwm_gototop@ioWnd@@UAEXXZ
	DD	FLAT:?iwm_dragenter@ioWnd@@UAE?AW4IWDropEffect@@PAVioDragItem@@ABVioMouse@@@Z
	DD	FLAT:?iwm_dragover@ioWnd@@UAE?AW4IWDropEffect@@PAVioDragItem@@ABVioMouse@@@Z
	DD	FLAT:?iwm_dragleave@ioWnd@@UAEXXZ
	DD	FLAT:?iwm_dropitem@ioWnd@@UAE_NPAVioDragItem@@ABVioMouse@@PAV1@@Z
	DD	FLAT:?iwm_dropdone@ioWnd@@UAEXPAVioDragItem@@PAV1@_N@Z
	DD	FLAT:?IsEXType@ioWnd@@UBE_NXZ
	DD	FLAT:?GetWndType@ioWnd@@UBEKXZ
	DD	FLAT:?RenderWnd@ioWnd@@UAEXXZ
	DD	FLAT:?SetIDEX@ioWnd@@UAEXAAK_N@Z
	DD	FLAT:?ParseXML@ioWnd@@UAEXAAVioXMLElement@@@Z
	DD	FLAT:?GetHeaderFileName@ioWnd@@UAEPBDXZ
	DD	FLAT:?GetTemplateName@ioWnd@@UAEPBDXZ
	DD	FLAT:?GetDefClassName@ioWnd@@UBEPBDXZ
	DD	FLAT:?_Clone@ioWnd@@UAEPAV1@XZ
	DD	FLAT:?Copy@ioWnd@@UAEXPAV1@@Z
	DD	FLAT:?Save@ioWnd@@UAE_NAAVioXMLElement@@@Z
	DD	FLAT:?SetSaveData@ioWnd@@UAEXAAVioXMLElement@@@Z
	DD	FLAT:?SetPosX@ioWnd@@UAEXH@Z
	DD	FLAT:?SetPosY@ioWnd@@UAEXH@Z
	DD	FLAT:?SetWidth@ioWnd@@UAEXH@Z
	DD	FLAT:?SetHeight@ioWnd@@UAEXH@Z
	DD	FLAT:?GetNumFixedRenderFrame@ioWnd@@UBEHXZ
	DD	FLAT:?GetFixedRenderFrameType@ioWnd@@UAEPBDH@Z
	DD	FLAT:?GetRenderFrame@ioWnd@@UAEPAPAVioUIRenderElement@@PBD@Z
	DD	FLAT:?GetNumFixedRenderImage@ioWnd@@UBEHXZ
	DD	FLAT:?GetFixedRenderImageType@ioWnd@@UAEPBDH@Z
	DD	FLAT:?GetRenderImage@ioWnd@@UAEPAPAVioUIRenderElement@@PBD@Z
	DD	FLAT:?AddEffect@ioWnd@@UAEXABVioHashString@@PAVioUI3DEffectRender@@@Z
	DD	FLAT:?GetEffect@ioWnd@@UAEPAVioUI3DEffectRender@@VioHashString@@@Z
	DD	FLAT:??_EEventChanceRollingWnd@@UAEPAXI@Z
CONST	ENDS
;	COMDAT xdata$x
xdata$x	SEGMENT
__unwindtable$??0EventChanceRollingWnd@@QAE@XZ DD 0ffffffffH
	DD	FLAT:__unwindfunclet$??0EventChanceRollingWnd@@QAE@XZ$0
	DD	00H
	DD	FLAT:__unwindfunclet$??0EventChanceRollingWnd@@QAE@XZ$1
	DD	01H
	DD	FLAT:__unwindfunclet$??0EventChanceRollingWnd@@QAE@XZ$2
__ehfuncinfo$??0EventChanceRollingWnd@@QAE@XZ DD 019930522H
	DD	03H
	DD	FLAT:__unwindtable$??0EventChanceRollingWnd@@QAE@XZ
	DD	2 DUP(00H)
	DD	2 DUP(00H)
	DD	00H
	DD	01H
; Function compile flags: /Ogsp
xdata$x	ENDS
;	COMDAT ??0EventChanceRollingWnd@@QAE@XZ
_TEXT	SEGMENT
_this$ = -16						; size = 4
__$EHRec$ = -12						; size = 12
??0EventChanceRollingWnd@@QAE@XZ PROC			; EventChanceRollingWnd::EventChanceRollingWnd, COMDAT
; _this$ = ecx

; 835  : {

  00000	6a 04		 push	 4
  00002	b8 00 00 00 00	 mov	 eax, __ehhandler$??0EventChanceRollingWnd@@QAE@XZ
  00007	e8 00 00 00 00	 call	 __EH_prolog3
  0000c	8b f1		 mov	 esi, ecx
  0000e	89 75 f0	 mov	 DWORD PTR _this$[ebp], esi
  00011	ff 15 00 00 00
	00		 call	 DWORD PTR __imp_??0ioMovingWnd@@QAE@XZ
  00017	8b 3d 00 00 00
	00		 mov	 edi, DWORD PTR __imp_??0ioHashString@@QAE@XZ
  0001d	33 db		 xor	 ebx, ebx
  0001f	8d 8e ac 01 00
	00		 lea	 ecx, DWORD PTR [esi+428]
  00025	89 5d fc	 mov	 DWORD PTR __$EHRec$[ebp+8], ebx
  00028	c7 06 00 00 00
	00		 mov	 DWORD PTR [esi], OFFSET ??_7EventChanceRollingWnd@@6B@
  0002e	ff d7		 call	 edi
  00030	8d 8e bc 01 00
	00		 lea	 ecx, DWORD PTR [esi+444]
  00036	c6 45 fc 01	 mov	 BYTE PTR __$EHRec$[ebp+8], 1
  0003a	ff d7		 call	 edi
  0003c	8d 8e cc 01 00
	00		 lea	 ecx, DWORD PTR [esi+460]
  00042	c6 45 fc 02	 mov	 BYTE PTR __$EHRec$[ebp+8], 2
  00046	ff d7		 call	 edi

; 836  : 	m_pPesoIcon = NULL;

  00048	89 9e 90 01 00
	00		 mov	 DWORD PTR [esi+400], ebx

; 837  : 	m_pSoldierIcon = NULL;

  0004e	89 9e 94 01 00
	00		 mov	 DWORD PTR [esi+404], ebx

; 838  : 	m_pLotteryText = NULL;

  00054	89 9e 98 01 00
	00		 mov	 DWORD PTR [esi+408], ebx

; 839  : 	m_pCongratulationText = NULL;

  0005a	89 9e 9c 01 00
	00		 mov	 DWORD PTR [esi+412], ebx

; 840  : 	
; 841  : 	m_dwCurRandTickTime = 0;

  00060	89 9e a0 01 00
	00		 mov	 DWORD PTR [esi+416], ebx

; 842  : 	m_dwRandTime = 0;

  00066	89 9e a4 01 00
	00		 mov	 DWORD PTR [esi+420], ebx

; 843  : 	m_dwRandTickTime = 0;

  0006c	89 9e a8 01 00
	00		 mov	 DWORD PTR [esi+424], ebx

; 844  : 	m_iRandBonus = 0;

  00072	89 9e dc 01 00
	00		 mov	 DWORD PTR [esi+476], ebx

; 845  : }

  00078	8b c6		 mov	 eax, esi
  0007a	e8 00 00 00 00	 call	 __EH_epilog3
  0007f	c3		 ret	 0
_TEXT	ENDS
;	COMDAT text$x
text$x	SEGMENT
__unwindfunclet$??0EventChanceRollingWnd@@QAE@XZ$0:
  00000	8b 4d f0	 mov	 ecx, DWORD PTR _this$[ebp]
  00003	ff 25 00 00 00
	00		 jmp	 DWORD PTR __imp_??1ioMovingWnd@@UAE@XZ
__unwindfunclet$??0EventChanceRollingWnd@@QAE@XZ$1:
  00009	8b 4d f0	 mov	 ecx, DWORD PTR _this$[ebp]
  0000c	81 c1 ac 01 00
	00		 add	 ecx, 428		; 000001acH
  00012	ff 25 00 00 00
	00		 jmp	 DWORD PTR __imp_??1ioHashString@@QAE@XZ
__unwindfunclet$??0EventChanceRollingWnd@@QAE@XZ$2:
  00018	8b 4d f0	 mov	 ecx, DWORD PTR _this$[ebp]
  0001b	81 c1 bc 01 00
	00		 add	 ecx, 444		; 000001bcH
  00021	ff 25 00 00 00
	00		 jmp	 DWORD PTR __imp_??1ioHashString@@QAE@XZ
__ehhandler$??0EventChanceRollingWnd@@QAE@XZ:
  00027	8b 54 24 08	 mov	 edx, DWORD PTR [esp+8]
  0002b	8d 42 0c	 lea	 eax, DWORD PTR [edx+12]
  0002e	8b 4a ec	 mov	 ecx, DWORD PTR [edx-20]
  00031	33 c8		 xor	 ecx, eax
  00033	e8 00 00 00 00	 call	 @__security_check_cookie@4
  00038	b8 00 00 00 00	 mov	 eax, OFFSET __ehfuncinfo$??0EventChanceRollingWnd@@QAE@XZ
  0003d	e9 00 00 00 00	 jmp	 ___CxxFrameHandler3
text$x	ENDS
??0EventChanceRollingWnd@@QAE@XZ ENDP			; EventChanceRollingWnd::EventChanceRollingWnd
PUBLIC	??1EventChanceRollingWnd@@UAE@XZ		; EventChanceRollingWnd::~EventChanceRollingWnd
;	COMDAT xdata$x
xdata$x	SEGMENT
__unwindtable$??1EventChanceRollingWnd@@UAE@XZ DD 0ffffffffH
	DD	FLAT:__unwindfunclet$??1EventChanceRollingWnd@@UAE@XZ$0
	DD	00H
	DD	FLAT:__unwindfunclet$??1EventChanceRollingWnd@@UAE@XZ$1
	DD	01H
	DD	FLAT:__unwindfunclet$??1EventChanceRollingWnd@@UAE@XZ$2
	DD	02H
	DD	FLAT:__unwindfunclet$??1EventChanceRollingWnd@@UAE@XZ$3
__ehfuncinfo$??1EventChanceRollingWnd@@UAE@XZ DD 019930522H
	DD	04H
	DD	FLAT:__unwindtable$??1EventChanceRollingWnd@@UAE@XZ
	DD	2 DUP(00H)
	DD	2 DUP(00H)
	DD	00H
	DD	01H
; Function compile flags: /Ogsp
xdata$x	ENDS
;	COMDAT ??1EventChanceRollingWnd@@UAE@XZ
_TEXT	SEGMENT
_this$ = -16						; size = 4
__$EHRec$ = -12						; size = 12
??1EventChanceRollingWnd@@UAE@XZ PROC			; EventChanceRollingWnd::~EventChanceRollingWnd, COMDAT
; _this$ = ecx

; 848  : {

  00000	6a 04		 push	 4
  00002	b8 00 00 00 00	 mov	 eax, __ehhandler$??1EventChanceRollingWnd@@UAE@XZ
  00007	e8 00 00 00 00	 call	 __EH_prolog3
  0000c	8b f1		 mov	 esi, ecx
  0000e	89 75 f0	 mov	 DWORD PTR _this$[ebp], esi
  00011	c7 06 00 00 00
	00		 mov	 DWORD PTR [esi], OFFSET ??_7EventChanceRollingWnd@@6B@

; 849  : 	SAFEDELETE( m_pPesoIcon );

  00017	8b 8e 90 01 00
	00		 mov	 ecx, DWORD PTR [esi+400]
  0001d	33 db		 xor	 ebx, ebx
  0001f	c7 45 fc 03 00
	00 00		 mov	 DWORD PTR __$EHRec$[ebp+8], 3
  00026	3b cb		 cmp	 ecx, ebx
  00028	74 0d		 je	 SHORT $LN4@EventChanc@2
  0002a	8b 01		 mov	 eax, DWORD PTR [ecx]
  0002c	6a 01		 push	 1
  0002e	ff 50 40	 call	 DWORD PTR [eax+64]
  00031	89 9e 90 01 00
	00		 mov	 DWORD PTR [esi+400], ebx
$LN4@EventChanc@2:

; 850  : 	SAFEDELETE( m_pSoldierIcon );

  00037	8b 8e 94 01 00
	00		 mov	 ecx, DWORD PTR [esi+404]
  0003d	3b cb		 cmp	 ecx, ebx
  0003f	74 0d		 je	 SHORT $LN3@EventChanc@2
  00041	8b 01		 mov	 eax, DWORD PTR [ecx]
  00043	6a 01		 push	 1
  00045	ff 50 40	 call	 DWORD PTR [eax+64]
  00048	89 9e 94 01 00
	00		 mov	 DWORD PTR [esi+404], ebx
$LN3@EventChanc@2:

; 851  : 	SAFEDELETE( m_pLotteryText );

  0004e	8b 8e 98 01 00
	00		 mov	 ecx, DWORD PTR [esi+408]
  00054	3b cb		 cmp	 ecx, ebx
  00056	74 0d		 je	 SHORT $LN2@EventChanc@2
  00058	8b 01		 mov	 eax, DWORD PTR [ecx]
  0005a	6a 01		 push	 1
  0005c	ff 50 40	 call	 DWORD PTR [eax+64]
  0005f	89 9e 98 01 00
	00		 mov	 DWORD PTR [esi+408], ebx
$LN2@EventChanc@2:

; 852  : 	SAFEDELETE( m_pCongratulationText );

  00065	8b 8e 9c 01 00
	00		 mov	 ecx, DWORD PTR [esi+412]
  0006b	3b cb		 cmp	 ecx, ebx
  0006d	74 0d		 je	 SHORT $LN1@EventChanc@2
  0006f	8b 01		 mov	 eax, DWORD PTR [ecx]
  00071	6a 01		 push	 1
  00073	ff 50 40	 call	 DWORD PTR [eax+64]
  00076	89 9e 9c 01 00
	00		 mov	 DWORD PTR [esi+412], ebx
$LN1@EventChanc@2:

; 853  : }

  0007c	8b 3d 00 00 00
	00		 mov	 edi, DWORD PTR __imp_??1ioHashString@@QAE@XZ
  00082	8d 8e cc 01 00
	00		 lea	 ecx, DWORD PTR [esi+460]
  00088	c6 45 fc 02	 mov	 BYTE PTR __$EHRec$[ebp+8], 2
  0008c	ff d7		 call	 edi
  0008e	8d 8e bc 01 00
	00		 lea	 ecx, DWORD PTR [esi+444]
  00094	c6 45 fc 01	 mov	 BYTE PTR __$EHRec$[ebp+8], 1
  00098	ff d7		 call	 edi
  0009a	8d 8e ac 01 00
	00		 lea	 ecx, DWORD PTR [esi+428]
  000a0	88 5d fc	 mov	 BYTE PTR __$EHRec$[ebp+8], bl
  000a3	ff d7		 call	 edi
  000a5	83 4d fc ff	 or	 DWORD PTR __$EHRec$[ebp+8], -1
  000a9	8b ce		 mov	 ecx, esi
  000ab	ff 15 00 00 00
	00		 call	 DWORD PTR __imp_??1ioMovingWnd@@UAE@XZ
  000b1	e8 00 00 00 00	 call	 __EH_epilog3
  000b6	c3		 ret	 0
_TEXT	ENDS
;	COMDAT text$x
text$x	SEGMENT
__unwindfunclet$??1EventChanceRollingWnd@@UAE@XZ$0:
  00000	8b 4d f0	 mov	 ecx, DWORD PTR _this$[ebp]
  00003	ff 25 00 00 00
	00		 jmp	 DWORD PTR __imp_??1ioMovingWnd@@UAE@XZ
__unwindfunclet$??1EventChanceRollingWnd@@UAE@XZ$1:
  00009	8b 4d f0	 mov	 ecx, DWORD PTR _this$[ebp]
  0000c	81 c1 ac 01 00
	00		 add	 ecx, 428		; 000001acH
  00012	ff 25 00 00 00
	00		 jmp	 DWORD PTR __imp_??1ioHashString@@QAE@XZ
__unwindfunclet$??1EventChanceRollingWnd@@UAE@XZ$2:
  00018	8b 4d f0	 mov	 ecx, DWORD PTR _this$[ebp]
  0001b	81 c1 bc 01 00
	00		 add	 ecx, 444		; 000001bcH
  00021	ff 25 00 00 00
	00		 jmp	 DWORD PTR __imp_??1ioHashString@@QAE@XZ
__unwindfunclet$??1EventChanceRollingWnd@@UAE@XZ$3:
  00027	8b 4d f0	 mov	 ecx, DWORD PTR _this$[ebp]
  0002a	81 c1 cc 01 00
	00		 add	 ecx, 460		; 000001ccH
  00030	ff 25 00 00 00
	00		 jmp	 DWORD PTR __imp_??1ioHashString@@QAE@XZ
__ehhandler$??1EventChanceRollingWnd@@UAE@XZ:
  00036	8b 54 24 08	 mov	 edx, DWORD PTR [esp+8]
  0003a	8d 42 0c	 lea	 eax, DWORD PTR [edx+12]
  0003d	8b 4a ec	 mov	 ecx, DWORD PTR [edx-20]
  00040	33 c8		 xor	 ecx, eax
  00042	e8 00 00 00 00	 call	 @__security_check_cookie@4
  00047	b8 00 00 00 00	 mov	 eax, OFFSET __ehfuncinfo$??1EventChanceRollingWnd@@UAE@XZ
  0004c	e9 00 00 00 00	 jmp	 ___CxxFrameHandler3
text$x	ENDS
??1EventChanceRollingWnd@@UAE@XZ ENDP			; EventChanceRollingWnd::~EventChanceRollingWnd
PUBLIC	?SetBonusType@EventChanceRollingWnd@@SAXH@Z	; EventChanceRollingWnd::SetBonusType
; Function compile flags: /Ogsp
;	COMDAT ?SetBonusType@EventChanceRollingWnd@@SAXH@Z
_TEXT	SEGMENT
_iBonusType$ = 8					; size = 4
?SetBonusType@EventChanceRollingWnd@@SAXH@Z PROC	; EventChanceRollingWnd::SetBonusType, COMDAT

; 856  : {

  00000	55		 push	 ebp
  00001	8b ec		 mov	 ebp, esp

; 857  : 	sg_iOriginalBonus = iBonusType;

  00003	8b 45 08	 mov	 eax, DWORD PTR _iBonusType$[ebp]
  00006	a3 00 00 00 00	 mov	 DWORD PTR ?sg_iOriginalBonus@EventChanceRollingWnd@@1HA, eax ; EventChanceRollingWnd::sg_iOriginalBonus

; 858  : }

  0000b	5d		 pop	 ebp
  0000c	c3		 ret	 0
?SetBonusType@EventChanceRollingWnd@@SAXH@Z ENDP	; EventChanceRollingWnd::SetBonusType
_TEXT	ENDS
PUBLIC	??_C@_0CA@PNPNADFO@EventChanceRollingWnd?3?3iwm_show?$AA@ ; `string'
EXTRN	__imp_?HideWnd@ioGUIManager@@QAEXK_N@Z:PROC
EXTRN	__imp_?PlaySoundA@ioSoundManager@@QAEKABVioHashString@@HK@Z:PROC
EXTRN	__imp_?SetChildInActive@ioWnd@@QAEXK@Z:PROC
EXTRN	?GetSoldierIcon@ioMyInfo@@QAEPAVioUIRenderImage@@H_N@Z:PROC ; ioMyInfo::GetSoldierIcon
EXTRN	__imp_?StopSound@ioSoundManager@@QAEXABVioHashString@@K@Z:PROC
EXTRN	__imp_?GetSingleton@ioSoundManager@@SAAAV1@XZ:PROC
EXTRN	__imp_?IsEmpty@ioHashString@@QBE_NXZ:PROC
EXTRN	__imp_?SetChildActive@ioWnd@@QAEXK@Z:PROC
EXTRN	__imp_?SetTitleText@ioWnd@@QAEXPBD0H@Z:PROC
;	COMDAT ??_C@_0CA@PNPNADFO@EventChanceRollingWnd?3?3iwm_show?$AA@
CONST	SEGMENT
??_C@_0CA@PNPNADFO@EventChanceRollingWnd?3?3iwm_show?$AA@ DB 'EventChance'
	DB	'RollingWnd::iwm_show', 00H			; `string'
; Function compile flags: /Ogsp
CONST	ENDS
;	COMDAT ?iwm_show@EventChanceRollingWnd@@UAEXXZ
_TEXT	SEGMENT
_iBonusType$515683 = -4					; size = 4
_pEventNode$ = -4					; size = 4
?iwm_show@EventChanceRollingWnd@@UAEXXZ PROC		; EventChanceRollingWnd::iwm_show, COMDAT
; _this$ = ecx

; 861  : {

  00000	55		 push	 ebp
  00001	8b ec		 mov	 ebp, esp
  00003	51		 push	 ecx
  00004	53		 push	 ebx
  00005	56		 push	 esi

; 862  : 	sg_bShow = true;
; 863  : 	ChanceMortmainCharEventUserNode *pEventNode = dynamic_cast<ChanceMortmainCharEventUserNode*>( g_MyInfo.GetEventUserMgr().GetEventUserNode( EVT_CHANCE_MORTMAIN_CHAR ) );

  00006	33 db		 xor	 ebx, ebx
  00008	53		 push	 ebx
  00009	68 00 00 00 00	 push	 OFFSET ??_R0?AVChanceMortmainCharEventUserNode@@@8
  0000e	68 00 00 00 00	 push	 OFFSET ??_R0?AVEventUserNode@@@8
  00013	53		 push	 ebx
  00014	6a 0b		 push	 11			; 0000000bH
  00016	8b f1		 mov	 esi, ecx
  00018	c6 05 00 00 00
	00 01		 mov	 BYTE PTR ?sg_bShow@EventChanceRollingWnd@@1_NA, 1 ; EventChanceRollingWnd::sg_bShow
  0001f	e8 00 00 00 00	 call	 ?GetSingleton@ioMyInfo@@SAAAV1@XZ ; ioMyInfo::GetSingleton
  00024	8b c8		 mov	 ecx, eax
  00026	e8 00 00 00 00	 call	 ?GetEventUserMgr@ioMyInfo@@QAEAAVEventUserManager@@XZ ; ioMyInfo::GetEventUserMgr
  0002b	8b c8		 mov	 ecx, eax
  0002d	e8 00 00 00 00	 call	 ?GetEventUserNode@EventUserManager@@QAEPAVEventUserNode@@W4EventType@@@Z ; EventUserManager::GetEventUserNode
  00032	50		 push	 eax
  00033	e8 00 00 00 00	 call	 ___RTDynamicCast
  00038	8b c8		 mov	 ecx, eax
  0003a	83 c4 14	 add	 esp, 20			; 00000014H
  0003d	89 4d fc	 mov	 DWORD PTR _pEventNode$[ebp], ecx

; 864  : 	if( pEventNode )

  00040	3b cb		 cmp	 ecx, ebx
  00042	0f 84 61 01 00
	00		 je	 $LN9@iwm_show

; 865  : 	{
; 866  : 		if( pEventNode->GetValue( VA_CMC_MAGIC_CODE ) == -1 )

  00048	57		 push	 edi
  00049	53		 push	 ebx
  0004a	e8 00 00 00 00	 call	 ?GetValue@EventUserNode@@QAEHH@Z ; EventUserNode::GetValue

; 867  : 		{
; 868  : 			ioWnd *pChance = FindChildWnd( ID_CHANCE );

  0004f	6a 02		 push	 2
  00051	8b ce		 mov	 ecx, esi
  00053	83 f8 ff	 cmp	 eax, -1
  00056	75 18		 jne	 SHORT $LN15@iwm_show
  00058	ff 15 00 00 00
	00		 call	 DWORD PTR __imp_?FindChildWnd@ioWnd@@QAEPAV1@K@Z
  0005e	8b f8		 mov	 edi, eax

; 869  : 			if( pChance )

  00060	3b fb		 cmp	 edi, ebx
  00062	74 3f		 je	 SHORT $LN21@iwm_show

; 870  : 			{
; 871  : 				pChance->SetTitleText( STR(1) );

  00064	53		 push	 ebx
  00065	b8 00 00 00 00	 mov	 eax, OFFSET ??_C@_00CNPNBAHC@?$AA@
  0006a	50		 push	 eax
  0006b	53		 push	 ebx
  0006c	6a 01		 push	 1

; 872  : 			}
; 873  : 		}
; 874  : 		else

  0006e	eb 16		 jmp	 SHORT $LN24@iwm_show
$LN15@iwm_show:

; 875  : 		{
; 876  : 			ioWnd *pChance = FindChildWnd( ID_CHANCE );

  00070	ff 15 00 00 00
	00		 call	 DWORD PTR __imp_?FindChildWnd@ioWnd@@QAEPAV1@K@Z
  00076	8b f8		 mov	 edi, eax

; 877  : 			if( pChance )

  00078	3b fb		 cmp	 edi, ebx
  0007a	74 27		 je	 SHORT $LN21@iwm_show

; 878  : 			{
; 879  : 				pChance->SetTitleText( STR(2) );

  0007c	53		 push	 ebx
  0007d	b8 00 00 00 00	 mov	 eax, OFFSET ??_C@_00CNPNBAHC@?$AA@
  00082	50		 push	 eax
  00083	53		 push	 ebx
  00084	6a 02		 push	 2
$LN24@iwm_show:
  00086	50		 push	 eax
  00087	68 00 00 00 00	 push	 OFFSET ??_C@_0CA@PNPNADFO@EventChanceRollingWnd?3?3iwm_show?$AA@
  0008c	ff 15 00 00 00
	00		 call	 DWORD PTR __imp_?GetSingleton@ioStringManager@@SAAAV1@XZ
  00092	8b c8		 mov	 ecx, eax
  00094	ff 15 00 00 00
	00		 call	 DWORD PTR __imp_?GetString@ioStringManager@@QAEPADPBD0HW4FileNamePrefix@1@@Z
  0009a	50		 push	 eax
  0009b	8b cf		 mov	 ecx, edi
  0009d	ff 15 00 00 00
	00		 call	 DWORD PTR __imp_?SetTitleText@ioWnd@@QAEXPBD0H@Z
$LN21@iwm_show:

; 880  : 			}
; 881  : 		}
; 882  : 
; 883  : 		if( sg_dwCurRandTime != 0 || sg_iOriginalBonus == 0 )

  000a3	39 1d 00 00 00
	00		 cmp	 DWORD PTR ?sg_dwCurRandTime@EventChanceRollingWnd@@1KA, ebx ; EventChanceRollingWnd::sg_dwCurRandTime
  000a9	0f 85 bd 00 00
	00		 jne	 $LN10@iwm_show
  000af	39 1d 00 00 00
	00		 cmp	 DWORD PTR ?sg_iOriginalBonus@EventChanceRollingWnd@@1HA, ebx ; EventChanceRollingWnd::sg_iOriginalBonus
  000b5	0f 84 b1 00 00
	00		 je	 $LN10@iwm_show

; 890  : 		}
; 891  : 		else
; 892  : 		{
; 893  : 			SetChildActive( ID_EXIT );

  000bb	8b 3d 00 00 00
	00		 mov	 edi, DWORD PTR __imp_?SetChildActive@ioWnd@@QAEXK@Z
  000c1	6a 01		 push	 1
  000c3	8b ce		 mov	 ecx, esi
  000c5	ff d7		 call	 edi

; 894  : 			SetChildActive( ID_OK );

  000c7	6a 03		 push	 3
  000c9	8b ce		 mov	 ecx, esi
  000cb	ff d7		 call	 edi

; 895  : 			if( pEventNode->GetValue( VA_CMC_MAGIC_CODE ) < 0 )

  000cd	8b 4d fc	 mov	 ecx, DWORD PTR _pEventNode$[ebp]
  000d0	53		 push	 ebx
  000d1	e8 00 00 00 00	 call	 ?GetValue@EventUserNode@@QAEHH@Z ; EventUserNode::GetValue
  000d6	85 c0		 test	 eax, eax
  000d8	79 06		 jns	 SHORT $LN7@iwm_show

; 896  : 				SetChildActive( ID_CHANCE );			

  000da	6a 02		 push	 2
  000dc	8b ce		 mov	 ecx, esi
  000de	ff d7		 call	 edi
$LN7@iwm_show:

; 897  : 
; 898  : 			if( !m_szRollingSound.IsEmpty() )

  000e0	8d 8e ac 01 00
	00		 lea	 ecx, DWORD PTR [esi+428]
  000e6	ff 15 00 00 00
	00		 call	 DWORD PTR __imp_?IsEmpty@ioHashString@@QBE_NXZ
  000ec	8b 3d 00 00 00
	00		 mov	 edi, DWORD PTR __imp_?GetSingleton@ioSoundManager@@SAAAV1@XZ
  000f2	84 c0		 test	 al, al
  000f4	75 12		 jne	 SHORT $LN6@iwm_show

; 899  : 				g_SoundMgr.StopSound( m_szRollingSound, 0 );

  000f6	8d 86 ac 01 00
	00		 lea	 eax, DWORD PTR [esi+428]
  000fc	53		 push	 ebx
  000fd	50		 push	 eax
  000fe	ff d7		 call	 edi
  00100	8b c8		 mov	 ecx, eax
  00102	ff 15 00 00 00
	00		 call	 DWORD PTR __imp_?StopSound@ioSoundManager@@QAEXABVioHashString@@K@Z
$LN6@iwm_show:

; 900  : 
; 901  : 			int iBonusType = sg_iOriginalBonus % 1000;

  00108	a1 00 00 00 00	 mov	 eax, DWORD PTR ?sg_iOriginalBonus@EventChanceRollingWnd@@1HA ; EventChanceRollingWnd::sg_iOriginalBonus
  0010d	99		 cdq
  0010e	b9 e8 03 00 00	 mov	 ecx, 1000		; 000003e8H
  00113	f7 f9		 idiv	 ecx
  00115	89 55 fc	 mov	 DWORD PTR _iBonusType$515683[ebp], edx

; 902  : 			if( iBonusType != 0 )

  00118	3b d3		 cmp	 edx, ebx
  0011a	74 48		 je	 SHORT $LN5@iwm_show

; 903  : 			{
; 904  : 				SAFEDELETE( m_pSoldierIcon );

  0011c	8b 8e 94 01 00
	00		 mov	 ecx, DWORD PTR [esi+404]
  00122	3b cb		 cmp	 ecx, ebx
  00124	74 0d		 je	 SHORT $LN22@iwm_show
  00126	8b 01		 mov	 eax, DWORD PTR [ecx]
  00128	6a 01		 push	 1
  0012a	ff 50 40	 call	 DWORD PTR [eax+64]
  0012d	89 9e 94 01 00
	00		 mov	 DWORD PTR [esi+404], ebx
$LN22@iwm_show:

; 905  : 				m_pSoldierIcon = g_MyInfo.GetSoldierIcon( iBonusType, true );

  00133	6a 01		 push	 1
  00135	ff 75 fc	 push	 DWORD PTR _iBonusType$515683[ebp]
  00138	e8 00 00 00 00	 call	 ?GetSingleton@ioMyInfo@@SAAAV1@XZ ; ioMyInfo::GetSingleton
  0013d	8b c8		 mov	 ecx, eax
  0013f	e8 00 00 00 00	 call	 ?GetSoldierIcon@ioMyInfo@@QAEPAVioUIRenderImage@@H_N@Z ; ioMyInfo::GetSoldierIcon
  00144	89 86 94 01 00
	00		 mov	 DWORD PTR [esi+404], eax

; 906  : 
; 907  : 				if( !m_szCharSound.IsEmpty() )

  0014a	81 c6 cc 01 00
	00		 add	 esi, 460		; 000001ccH
$LN26@iwm_show:
  00150	8b ce		 mov	 ecx, esi
  00152	ff 15 00 00 00
	00		 call	 DWORD PTR __imp_?IsEmpty@ioHashString@@QBE_NXZ
  00158	84 c0		 test	 al, al
  0015a	75 4c		 jne	 SHORT $LN23@iwm_show

; 908  : 					g_SoundMgr.PlaySound( m_szCharSound );

  0015c	6a 04		 push	 4
  0015e	53		 push	 ebx
  0015f	56		 push	 esi
  00160	ff d7		 call	 edi

; 909  : 			}		
; 910  : 			else

  00162	eb 3c		 jmp	 SHORT $LN25@iwm_show
$LN5@iwm_show:

; 911  : 			{
; 912  : 				if( !m_szPesoSound.IsEmpty() )

  00164	81 c6 bc 01 00
	00		 add	 esi, 444		; 000001bcH

; 913  : 					g_SoundMgr.PlaySound( m_szPesoSound );

  0016a	eb e4		 jmp	 SHORT $LN26@iwm_show
$LN10@iwm_show:

; 884  : 		{
; 885  : 			SetChildInActive( ID_EXIT );

  0016c	8b 3d 00 00 00
	00		 mov	 edi, DWORD PTR __imp_?SetChildInActive@ioWnd@@QAEXK@Z
  00172	6a 01		 push	 1
  00174	8b ce		 mov	 ecx, esi
  00176	ff d7		 call	 edi

; 886  : 			SetChildInActive( ID_CHANCE );

  00178	6a 02		 push	 2
  0017a	8b ce		 mov	 ecx, esi
  0017c	ff d7		 call	 edi

; 887  : 			SetChildInActive( ID_OK );

  0017e	6a 03		 push	 3
  00180	8b ce		 mov	 ecx, esi
  00182	ff d7		 call	 edi

; 888  : 			if( !m_szRollingSound.IsEmpty() )

  00184	81 c6 ac 01 00
	00		 add	 esi, 428		; 000001acH
  0018a	8b ce		 mov	 ecx, esi
  0018c	ff 15 00 00 00
	00		 call	 DWORD PTR __imp_?IsEmpty@ioHashString@@QBE_NXZ
  00192	84 c0		 test	 al, al
  00194	75 12		 jne	 SHORT $LN23@iwm_show

; 889  : 				g_SoundMgr.PlaySound( m_szRollingSound, DSBVOLUME_MAX, PSM_LOOP | PSM_THREAD );

  00196	6a 06		 push	 6
  00198	53		 push	 ebx
  00199	56		 push	 esi
  0019a	ff 15 00 00 00
	00		 call	 DWORD PTR __imp_?GetSingleton@ioSoundManager@@SAAAV1@XZ
$LN25@iwm_show:
  001a0	8b c8		 mov	 ecx, eax
  001a2	ff 15 00 00 00
	00		 call	 DWORD PTR __imp_?PlaySoundA@ioSoundManager@@QAEKABVioHashString@@HK@Z
$LN23@iwm_show:
  001a8	5f		 pop	 edi
$LN9@iwm_show:

; 914  : 			}
; 915  : 		}
; 916  : 	}
; 917  : 	g_GUIMgr.HideWnd( EVENT_CHANCE_MORTMAIN_CHAR_WND );

  001a9	53		 push	 ebx
  001aa	68 cd 17 00 00	 push	 6093			; 000017cdH
  001af	e8 00 00 00 00	 call	 ?GetSingleton@ioSP2GUIManager@@SAAAV1@XZ ; ioSP2GUIManager::GetSingleton
  001b4	8b c8		 mov	 ecx, eax
  001b6	ff 15 00 00 00
	00		 call	 DWORD PTR __imp_?HideWnd@ioGUIManager@@QAEXK_N@Z
  001bc	5e		 pop	 esi
  001bd	5b		 pop	 ebx

; 918  : }

  001be	c9		 leave
  001bf	c3		 ret	 0
?iwm_show@EventChanceRollingWnd@@UAEXXZ ENDP		; EventChanceRollingWnd::iwm_show
_TEXT	ENDS
EXTRN	__imp_?ShowWnd@ioGUIManager@@QAEXK_N@Z:PROC
; Function compile flags: /Ogsp
;	COMDAT ?iwm_hide@EventChanceRollingWnd@@UAEXXZ
_TEXT	SEGMENT
?iwm_hide@EventChanceRollingWnd@@UAEXXZ PROC		; EventChanceRollingWnd::iwm_hide, COMDAT
; _this$ = ecx

; 921  : {

  00000	53		 push	 ebx
  00001	56		 push	 esi
  00002	8b d9		 mov	 ebx, ecx
  00004	57		 push	 edi

; 922  : 	if( !m_szRollingSound.IsEmpty() )

  00005	8d 8b ac 01 00
	00		 lea	 ecx, DWORD PTR [ebx+428]
  0000b	ff 15 00 00 00
	00		 call	 DWORD PTR __imp_?IsEmpty@ioHashString@@QBE_NXZ
  00011	8b 35 00 00 00
	00		 mov	 esi, DWORD PTR __imp_?StopSound@ioSoundManager@@QAEXABVioHashString@@K@Z
  00017	8b 3d 00 00 00
	00		 mov	 edi, DWORD PTR __imp_?GetSingleton@ioSoundManager@@SAAAV1@XZ
  0001d	84 c0		 test	 al, al
  0001f	75 0f		 jne	 SHORT $LN3@iwm_hide

; 923  : 		g_SoundMgr.StopSound( m_szRollingSound, 0 );

  00021	8d 83 ac 01 00
	00		 lea	 eax, DWORD PTR [ebx+428]
  00027	6a 00		 push	 0
  00029	50		 push	 eax
  0002a	ff d7		 call	 edi
  0002c	8b c8		 mov	 ecx, eax
  0002e	ff d6		 call	 esi
$LN3@iwm_hide:

; 924  : 	if( !m_szCharSound.IsEmpty() )

  00030	8d 8b cc 01 00
	00		 lea	 ecx, DWORD PTR [ebx+460]
  00036	ff 15 00 00 00
	00		 call	 DWORD PTR __imp_?IsEmpty@ioHashString@@QBE_NXZ
  0003c	84 c0		 test	 al, al
  0003e	75 0f		 jne	 SHORT $LN2@iwm_hide

; 925  : 		g_SoundMgr.StopSound( m_szCharSound, 0 );

  00040	8d 83 cc 01 00
	00		 lea	 eax, DWORD PTR [ebx+460]
  00046	6a 00		 push	 0
  00048	50		 push	 eax
  00049	ff d7		 call	 edi
  0004b	8b c8		 mov	 ecx, eax
  0004d	ff d6		 call	 esi
$LN2@iwm_hide:

; 926  : 	if( !m_szPesoSound.IsEmpty() )

  0004f	81 c3 bc 01 00
	00		 add	 ebx, 444		; 000001bcH
  00055	8b cb		 mov	 ecx, ebx
  00057	ff 15 00 00 00
	00		 call	 DWORD PTR __imp_?IsEmpty@ioHashString@@QBE_NXZ
  0005d	84 c0		 test	 al, al
  0005f	75 09		 jne	 SHORT $LN1@iwm_hide

; 927  : 		g_SoundMgr.StopSound( m_szPesoSound, 0 );

  00061	6a 00		 push	 0
  00063	53		 push	 ebx
  00064	ff d7		 call	 edi
  00066	8b c8		 mov	 ecx, eax
  00068	ff d6		 call	 esi
$LN1@iwm_hide:

; 928  : 
; 929  : 	g_GUIMgr.ShowWnd( EVENT_CHANCE_MORTMAIN_CHAR_WND, true );

  0006a	6a 01		 push	 1
  0006c	68 cd 17 00 00	 push	 6093			; 000017cdH
  00071	e8 00 00 00 00	 call	 ?GetSingleton@ioSP2GUIManager@@SAAAV1@XZ ; ioSP2GUIManager::GetSingleton
  00076	8b c8		 mov	 ecx, eax
  00078	ff 15 00 00 00
	00		 call	 DWORD PTR __imp_?ShowWnd@ioGUIManager@@QAEXK_N@Z
  0007e	5f		 pop	 edi
  0007f	5e		 pop	 esi
  00080	5b		 pop	 ebx

; 930  : }

  00081	c3		 ret	 0
?iwm_hide@EventChanceRollingWnd@@UAEXXZ ENDP		; EventChanceRollingWnd::iwm_hide
_TEXT	ENDS
EXTRN	__imp_?iwm_esc@ioWnd@@UAE_NXZ:PROC
; Function compile flags: /Ogsp
;	COMDAT ?iwm_esc@EventChanceRollingWnd@@UAE_NXZ
_TEXT	SEGMENT
?iwm_esc@EventChanceRollingWnd@@UAE_NXZ PROC		; EventChanceRollingWnd::iwm_esc, COMDAT
; _this$ = ecx

; 934  : 	if( sg_dwCurRandTime != 0 ) 

  00000	83 3d 00 00 00
	00 00		 cmp	 DWORD PTR ?sg_dwCurRandTime@EventChanceRollingWnd@@1KA, 0 ; EventChanceRollingWnd::sg_dwCurRandTime

; 935  : 		return false;

  00007	75 14		 jne	 SHORT $LN1@iwm_esc

; 936  : 	
; 937  : 	if( ioWnd::iwm_esc() )

  00009	ff 15 00 00 00
	00		 call	 DWORD PTR __imp_?iwm_esc@ioWnd@@UAE_NXZ
  0000f	84 c0		 test	 al, al
  00011	74 0a		 je	 SHORT $LN1@iwm_esc

; 938  : 	{
; 939  : 		sg_bShow = false;

  00013	c6 05 00 00 00
	00 00		 mov	 BYTE PTR ?sg_bShow@EventChanceRollingWnd@@1_NA, 0 ; EventChanceRollingWnd::sg_bShow

; 940  : 		return true;

  0001a	b0 01		 mov	 al, 1

; 944  : }

  0001c	c3		 ret	 0
$LN1@iwm_esc:

; 941  : 	}
; 942  : 
; 943  : 	return false;

  0001d	32 c0		 xor	 al, al

; 944  : }

  0001f	c3		 ret	 0
?iwm_esc@EventChanceRollingWnd@@UAE_NXZ ENDP		; EventChanceRollingWnd::iwm_esc
_TEXT	ENDS
PUBLIC	?StartRandAni@EventChanceRollingWnd@@QAEXXZ	; EventChanceRollingWnd::StartRandAni
EXTRN	__imp_?GetLoopSec@ioFrameTimer@@QBEKXZ:PROC
; Function compile flags: /Ogsp
;	COMDAT ?StartRandAni@EventChanceRollingWnd@@QAEXXZ
_TEXT	SEGMENT
?StartRandAni@EventChanceRollingWnd@@QAEXXZ PROC	; EventChanceRollingWnd::StartRandAni, COMDAT
; _this$ = ecx

; 1015 : 	sg_dwCurRandTime = FRAMEGETTIME();

  00000	ff 15 00 00 00
	00		 call	 DWORD PTR __imp_?GetSingleton@ioFrameTimer@@SAAAV1@XZ
  00006	8b c8		 mov	 ecx, eax
  00008	ff 15 00 00 00
	00		 call	 DWORD PTR __imp_?GetLoopSec@ioFrameTimer@@QBEKXZ

; 1016 : 	sg_iOriginalBonus= 0;

  0000e	83 25 00 00 00
	00 00		 and	 DWORD PTR ?sg_iOriginalBonus@EventChanceRollingWnd@@1HA, 0 ; EventChanceRollingWnd::sg_iOriginalBonus
  00015	a3 00 00 00 00	 mov	 DWORD PTR ?sg_dwCurRandTime@EventChanceRollingWnd@@1KA, eax ; EventChanceRollingWnd::sg_dwCurRandTime

; 1017 : }

  0001a	c3		 ret	 0
?StartRandAni@EventChanceRollingWnd@@QAEXXZ ENDP	; EventChanceRollingWnd::StartRandAni
_TEXT	ENDS
PUBLIC	??_C@_0CL@LMMLEEJC@EventChanceRollingWnd?3?3RenderOri@ ; `string'
PUBLIC	_this$GSCopy$
PUBLIC	__$ArrayPad$
PUBLIC	?RenderOriginalBonus@EventChanceRollingWnd@@IAEXHH@Z ; EventChanceRollingWnd::RenderOriginalBonus
EXTRN	?GetClassNameA@ioMyInfo@@QAEPBDHH@Z:PROC	; ioMyInfo::GetClassNameA
EXTRN	__imp_?SetTextColor@ioFontManager@@QAEXHHH@Z:PROC
EXTRN	__imp_?PrintText@ioFontManager@@QAEXMMMPBD0@Z:PROC
EXTRN	?ConvertNumToStrComma@Help@@YAXHPADH@Z:PROC	; Help::ConvertNumToStrComma
;	COMDAT ??_C@_0CL@LMMLEEJC@EventChanceRollingWnd?3?3RenderOri@
CONST	SEGMENT
??_C@_0CL@LMMLEEJC@EventChanceRollingWnd?3?3RenderOri@ DB 'EventChanceRol'
	DB	'lingWnd::RenderOriginalBonus', 00H		; `string'
; Function compile flags: /Ogsp
CONST	ENDS
;	COMDAT ?RenderOriginalBonus@EventChanceRollingWnd@@IAEXHH@Z
_TEXT	SEGMENT
_this$GSCopy$ = -276					; size = 4
_iBonusType$ = -272					; size = 4
tv333 = -268						; size = 4
_szConvertNum$515864 = -264				; size = 260
__$ArrayPad$ = -4					; size = 4
_iXPos$ = 8						; size = 4
_iYPos$ = 12						; size = 4
?RenderOriginalBonus@EventChanceRollingWnd@@IAEXHH@Z PROC ; EventChanceRollingWnd::RenderOriginalBonus, COMDAT
; _this$ = ecx

; 1153 : {

  00000	55		 push	 ebp
  00001	8b ec		 mov	 ebp, esp
  00003	81 ec 14 01 00
	00		 sub	 esp, 276		; 00000114H
  00009	a1 00 00 00 00	 mov	 eax, DWORD PTR ___security_cookie
  0000e	33 c5		 xor	 eax, ebp
  00010	89 45 fc	 mov	 DWORD PTR __$ArrayPad$[ebp], eax

; 1154 : 	int iBonusType = sg_iOriginalBonus % 1000;

  00013	a1 00 00 00 00	 mov	 eax, DWORD PTR ?sg_iOriginalBonus@EventChanceRollingWnd@@1HA ; EventChanceRollingWnd::sg_iOriginalBonus
  00018	53		 push	 ebx
  00019	56		 push	 esi
  0001a	57		 push	 edi
  0001b	be e8 03 00 00	 mov	 esi, 1000		; 000003e8H
  00020	99		 cdq
  00021	8b fe		 mov	 edi, esi
  00023	f7 ff		 idiv	 edi

; 1155 : 	if( iBonusType == 0 )
; 1156 : 	{
; 1157 : 		// 페소 보상
; 1158 : 		if( m_pPesoIcon )

  00025	8b 7d 08	 mov	 edi, DWORD PTR _iXPos$[ebp]
  00028	33 db		 xor	 ebx, ebx

; 1176 : 
; 1177 : 		g_FontMgr.SetTextStyle( TS_OUTLINE_FULL_2X );

  0002a	89 8d ec fe ff
	ff		 mov	 DWORD PTR _this$GSCopy$[ebp], ecx
  00030	89 95 f0 fe ff
	ff		 mov	 DWORD PTR _iBonusType$[ebp], edx
  00036	3b d3		 cmp	 edx, ebx
  00038	0f 85 3e 01 00
	00		 jne	 $LN5@RenderOrig

; 1155 : 	if( iBonusType == 0 )
; 1156 : 	{
; 1157 : 		// 페소 보상
; 1158 : 		if( m_pPesoIcon )

  0003e	39 99 90 01 00
	00		 cmp	 DWORD PTR [ecx+400], ebx
  00044	74 37		 je	 SHORT $LN4@RenderOrig

; 1159 : 			m_pPesoIcon->Render( iXPos + 161, iYPos + 92 );

  00046	8b 81 90 01 00
	00		 mov	 eax, DWORD PTR [ecx+400]
  0004c	8b 4d 0c	 mov	 ecx, DWORD PTR _iYPos$[ebp]
  0004f	8b 10		 mov	 edx, DWORD PTR [eax]
  00051	53		 push	 ebx
  00052	53		 push	 ebx
  00053	53		 push	 ebx
  00054	83 c1 5c	 add	 ecx, 92			; 0000005cH
  00057	53		 push	 ebx
  00058	51		 push	 ecx
  00059	51		 push	 ecx
  0005a	0f 57 c0	 xorps	 xmm0, xmm0
  0005d	f3 0f 2a c1	 cvtsi2ss xmm0, ecx
  00061	f3 0f 11 44 24
	04		 movss	 DWORD PTR [esp+4], xmm0
  00067	8d 8f a1 00 00
	00		 lea	 ecx, DWORD PTR [edi+161]
  0006d	0f 57 c0	 xorps	 xmm0, xmm0
  00070	f3 0f 2a c1	 cvtsi2ss xmm0, ecx
  00074	8b c8		 mov	 ecx, eax
  00076	f3 0f 11 04 24	 movss	 DWORD PTR [esp], xmm0
  0007b	ff 12		 call	 DWORD PTR [edx]
$LN4@RenderOrig:

; 1160 : 
; 1161 : 		char szConvertNum[MAX_PATH] = "";

  0007d	68 03 01 00 00	 push	 259			; 00000103H
  00082	8d 85 f9 fe ff
	ff		 lea	 eax, DWORD PTR _szConvertNum$515864[ebp+1]
  00088	53		 push	 ebx
  00089	50		 push	 eax
  0008a	88 9d f8 fe ff
	ff		 mov	 BYTE PTR _szConvertNum$515864[ebp], bl
  00090	e8 00 00 00 00	 call	 _memset

; 1162 : 		Help::ConvertNumToStrComma( sg_iOriginalBonus / 1000, szConvertNum, sizeof( szConvertNum ) );

  00095	68 04 01 00 00	 push	 260			; 00000104H
  0009a	8d 85 f8 fe ff
	ff		 lea	 eax, DWORD PTR _szConvertNum$515864[ebp]
  000a0	50		 push	 eax
  000a1	a1 00 00 00 00	 mov	 eax, DWORD PTR ?sg_iOriginalBonus@EventChanceRollingWnd@@1HA ; EventChanceRollingWnd::sg_iOriginalBonus
  000a6	99		 cdq
  000a7	f7 fe		 idiv	 esi
  000a9	50		 push	 eax
  000aa	e8 00 00 00 00	 call	 ?ConvertNumToStrComma@Help@@YAXHPADH@Z ; Help::ConvertNumToStrComma

; 1163 : 		g_FontMgr.SetTextStyle( TS_OUTLINE_FULL_2X );

  000af	8b 35 00 00 00
	00		 mov	 esi, DWORD PTR __imp_?GetSingleton@ioFontManager@@SAAAV1@XZ
  000b5	83 c4 18	 add	 esp, 24			; 00000018H
  000b8	6a 05		 push	 5
  000ba	ff d6		 call	 esi
  000bc	8b c8		 mov	 ecx, eax
  000be	ff 15 00 00 00
	00		 call	 DWORD PTR __imp_?SetTextStyle@ioFontManager@@QAEXW4TextStyle@@@Z

; 1164 : 		g_FontMgr.SetAlignType( TAT_CENTER );

  000c4	6a 01		 push	 1
  000c6	ff d6		 call	 esi
  000c8	8b c8		 mov	 ecx, eax
  000ca	ff 15 00 00 00
	00		 call	 DWORD PTR __imp_?SetAlignType@ioFontManager@@QAEXW4TextAlignType@@@Z

; 1165 : 		g_FontMgr.SetBkColor( 0, 0, 0 );

  000d0	53		 push	 ebx
  000d1	53		 push	 ebx
  000d2	53		 push	 ebx
  000d3	ff d6		 call	 esi
  000d5	8b c8		 mov	 ecx, eax
  000d7	ff 15 00 00 00
	00		 call	 DWORD PTR __imp_?SetBkColor@ioFontManager@@QAEXHHH@Z

; 1166 : 		g_FontMgr.SetTextColor( TCT_DEFAULT_GRAY );

  000dd	68 6e 6e 6e ff	 push	 -9539986		; ff6e6e6eH
  000e2	ff d6		 call	 esi
  000e4	8b c8		 mov	 ecx, eax
  000e6	ff 15 00 00 00
	00		 call	 DWORD PTR __imp_?SetTextColor@ioFontManager@@QAEXK@Z

; 1167 : 		g_FontMgr.PrintText( iXPos + 161, iYPos + 168, FONT_SIZE_13, STR(1), szConvertNum );

  000ec	8d 85 f8 fe ff
	ff		 lea	 eax, DWORD PTR _szConvertNum$515864[ebp]
  000f2	50		 push	 eax
  000f3	53		 push	 ebx
  000f4	81 c7 a1 00 00
	00		 add	 edi, 161		; 000000a1H
  000fa	0f 57 c0	 xorps	 xmm0, xmm0
  000fd	f3 0f 2a c7	 cvtsi2ss xmm0, edi
  00101	6a 01		 push	 1
  00103	68 00 00 00 00	 push	 OFFSET ??_C@_00CNPNBAHC@?$AA@
  00108	bf 00 00 00 00	 mov	 edi, OFFSET ??_C@_0CL@LMMLEEJC@EventChanceRollingWnd?3?3RenderOri@
  0010d	57		 push	 edi
  0010e	f3 0f 11 85 f4
	fe ff ff	 movss	 DWORD PTR tv333[ebp], xmm0
  00116	ff 15 00 00 00
	00		 call	 DWORD PTR __imp_?GetSingleton@ioStringManager@@SAAAV1@XZ
  0011c	8b c8		 mov	 ecx, eax
  0011e	ff 15 00 00 00
	00		 call	 DWORD PTR __imp_?GetString@ioStringManager@@QAEPADPBD0HW4FileNamePrefix@1@@Z
  00124	f3 0f 10 05 00
	00 00 00	 movss	 xmm0, DWORD PTR __real@3f266666
  0012c	50		 push	 eax
  0012d	8b 45 0c	 mov	 eax, DWORD PTR _iYPos$[ebp]
  00130	83 ec 0c	 sub	 esp, 12			; 0000000cH
  00133	f3 0f 11 44 24
	08		 movss	 DWORD PTR [esp+8], xmm0
  00139	05 a8 00 00 00	 add	 eax, 168		; 000000a8H
  0013e	0f 57 c0	 xorps	 xmm0, xmm0
  00141	f3 0f 2a c0	 cvtsi2ss xmm0, eax
  00145	f3 0f 11 44 24
	04		 movss	 DWORD PTR [esp+4], xmm0
  0014b	f3 0f 10 85 f4
	fe ff ff	 movss	 xmm0, DWORD PTR tv333[ebp]
  00153	f3 0f 11 04 24	 movss	 DWORD PTR [esp], xmm0
  00158	ff d6		 call	 esi
  0015a	8b c8		 mov	 ecx, eax
  0015c	ff 15 00 00 00
	00		 call	 DWORD PTR __imp_?PrintText@ioFontManager@@QAEXMMMPBD0@Z

; 1168 : 		g_FontMgr.SetTextColor( 255, 255, 255 );

  00162	b8 ff 00 00 00	 mov	 eax, 255		; 000000ffH
  00167	50		 push	 eax
  00168	50		 push	 eax
  00169	50		 push	 eax
  0016a	ff d6		 call	 esi
  0016c	8b c8		 mov	 ecx, eax
  0016e	ff 15 00 00 00
	00		 call	 DWORD PTR __imp_?SetTextColor@ioFontManager@@QAEXHHH@Z

; 1169 : 		g_FontMgr.PrintText( iXPos + 161, iYPos + 188, FONT_SIZE_13, STR(2) );

  00174	53		 push	 ebx
  00175	6a 02		 push	 2

; 1170 : 	}
; 1171 : 	else

  00177	e9 11 01 00 00	 jmp	 $LN8@RenderOrig
$LN5@RenderOrig:

; 1172 : 	{
; 1173 : 		// 용병 보상
; 1174 : 		if( m_pSoldierIcon )

  0017c	39 99 94 01 00
	00		 cmp	 DWORD PTR [ecx+404], ebx
  00182	74 37		 je	 SHORT $LN2@RenderOrig

; 1175 : 			m_pSoldierIcon->Render( iXPos + 161, iYPos + 92 );

  00184	8b 81 94 01 00
	00		 mov	 eax, DWORD PTR [ecx+404]
  0018a	8b 4d 0c	 mov	 ecx, DWORD PTR _iYPos$[ebp]
  0018d	8b 10		 mov	 edx, DWORD PTR [eax]
  0018f	53		 push	 ebx
  00190	53		 push	 ebx
  00191	53		 push	 ebx
  00192	83 c1 5c	 add	 ecx, 92			; 0000005cH
  00195	53		 push	 ebx
  00196	51		 push	 ecx
  00197	51		 push	 ecx
  00198	0f 57 c0	 xorps	 xmm0, xmm0
  0019b	f3 0f 2a c1	 cvtsi2ss xmm0, ecx
  0019f	f3 0f 11 44 24
	04		 movss	 DWORD PTR [esp+4], xmm0
  001a5	8d 8f a1 00 00
	00		 lea	 ecx, DWORD PTR [edi+161]
  001ab	0f 57 c0	 xorps	 xmm0, xmm0
  001ae	f3 0f 2a c1	 cvtsi2ss xmm0, ecx
  001b2	8b c8		 mov	 ecx, eax
  001b4	f3 0f 11 04 24	 movss	 DWORD PTR [esp], xmm0
  001b9	ff 12		 call	 DWORD PTR [edx]
$LN2@RenderOrig:

; 1176 : 
; 1177 : 		g_FontMgr.SetTextStyle( TS_OUTLINE_FULL_2X );

  001bb	8b 35 00 00 00
	00		 mov	 esi, DWORD PTR __imp_?GetSingleton@ioFontManager@@SAAAV1@XZ
  001c1	6a 05		 push	 5
  001c3	ff d6		 call	 esi
  001c5	8b c8		 mov	 ecx, eax
  001c7	ff 15 00 00 00
	00		 call	 DWORD PTR __imp_?SetTextStyle@ioFontManager@@QAEXW4TextStyle@@@Z

; 1178 : 		g_FontMgr.SetAlignType( TAT_CENTER );

  001cd	6a 01		 push	 1
  001cf	ff d6		 call	 esi
  001d1	8b c8		 mov	 ecx, eax
  001d3	ff 15 00 00 00
	00		 call	 DWORD PTR __imp_?SetAlignType@ioFontManager@@QAEXW4TextAlignType@@@Z

; 1179 : 		g_FontMgr.SetBkColor( 0, 0, 0 );

  001d9	53		 push	 ebx
  001da	53		 push	 ebx
  001db	53		 push	 ebx
  001dc	ff d6		 call	 esi
  001de	8b c8		 mov	 ecx, eax
  001e0	ff 15 00 00 00
	00		 call	 DWORD PTR __imp_?SetBkColor@ioFontManager@@QAEXHHH@Z

; 1180 : 		g_FontMgr.SetTextColor( TCT_DEFAULT_GRAY );

  001e6	68 6e 6e 6e ff	 push	 -9539986		; ff6e6e6eH
  001eb	ff d6		 call	 esi
  001ed	8b c8		 mov	 ecx, eax
  001ef	ff 15 00 00 00
	00		 call	 DWORD PTR __imp_?SetTextColor@ioFontManager@@QAEXK@Z

; 1181 : 		g_FontMgr.PrintText( iXPos + 161, iYPos + 168, FONT_SIZE_13, STR(3), g_MyInfo.GetClassName( iBonusType ) );

  001f5	53		 push	 ebx
  001f6	ff b5 f0 fe ff
	ff		 push	 DWORD PTR _iBonusType$[ebp]
  001fc	81 c7 a1 00 00
	00		 add	 edi, 161		; 000000a1H
  00202	0f 57 c0	 xorps	 xmm0, xmm0
  00205	f3 0f 2a c7	 cvtsi2ss xmm0, edi
  00209	f3 0f 11 85 f4
	fe ff ff	 movss	 DWORD PTR tv333[ebp], xmm0
  00211	e8 00 00 00 00	 call	 ?GetSingleton@ioMyInfo@@SAAAV1@XZ ; ioMyInfo::GetSingleton
  00216	8b c8		 mov	 ecx, eax
  00218	e8 00 00 00 00	 call	 ?GetClassNameA@ioMyInfo@@QAEPBDHH@Z ; ioMyInfo::GetClassNameA
  0021d	50		 push	 eax
  0021e	53		 push	 ebx
  0021f	6a 03		 push	 3
  00221	68 00 00 00 00	 push	 OFFSET ??_C@_00CNPNBAHC@?$AA@
  00226	bf 00 00 00 00	 mov	 edi, OFFSET ??_C@_0CL@LMMLEEJC@EventChanceRollingWnd?3?3RenderOri@
  0022b	57		 push	 edi
  0022c	ff 15 00 00 00
	00		 call	 DWORD PTR __imp_?GetSingleton@ioStringManager@@SAAAV1@XZ
  00232	8b c8		 mov	 ecx, eax
  00234	ff 15 00 00 00
	00		 call	 DWORD PTR __imp_?GetString@ioStringManager@@QAEPADPBD0HW4FileNamePrefix@1@@Z
  0023a	f3 0f 10 05 00
	00 00 00	 movss	 xmm0, DWORD PTR __real@3f266666
  00242	50		 push	 eax
  00243	8b 45 0c	 mov	 eax, DWORD PTR _iYPos$[ebp]
  00246	83 ec 0c	 sub	 esp, 12			; 0000000cH
  00249	f3 0f 11 44 24
	08		 movss	 DWORD PTR [esp+8], xmm0
  0024f	05 a8 00 00 00	 add	 eax, 168		; 000000a8H
  00254	0f 57 c0	 xorps	 xmm0, xmm0
  00257	f3 0f 2a c0	 cvtsi2ss xmm0, eax
  0025b	f3 0f 11 44 24
	04		 movss	 DWORD PTR [esp+4], xmm0
  00261	f3 0f 10 85 f4
	fe ff ff	 movss	 xmm0, DWORD PTR tv333[ebp]
  00269	f3 0f 11 04 24	 movss	 DWORD PTR [esp], xmm0
  0026e	ff d6		 call	 esi
  00270	8b c8		 mov	 ecx, eax
  00272	ff 15 00 00 00
	00		 call	 DWORD PTR __imp_?PrintText@ioFontManager@@QAEXMMMPBD0@Z

; 1182 : 		g_FontMgr.SetTextColor( 255, 255, 255 );

  00278	b8 ff 00 00 00	 mov	 eax, 255		; 000000ffH
  0027d	50		 push	 eax
  0027e	50		 push	 eax
  0027f	50		 push	 eax
  00280	ff d6		 call	 esi
  00282	8b c8		 mov	 ecx, eax
  00284	ff 15 00 00 00
	00		 call	 DWORD PTR __imp_?SetTextColor@ioFontManager@@QAEXHHH@Z

; 1183 : 		g_FontMgr.PrintText( iXPos + 161, iYPos + 188, FONT_SIZE_13, STR(4) );		

  0028a	53		 push	 ebx
  0028b	6a 04		 push	 4
$LN8@RenderOrig:
  0028d	68 00 00 00 00	 push	 OFFSET ??_C@_00CNPNBAHC@?$AA@
  00292	57		 push	 edi
  00293	ff 15 00 00 00
	00		 call	 DWORD PTR __imp_?GetSingleton@ioStringManager@@SAAAV1@XZ
  00299	8b c8		 mov	 ecx, eax
  0029b	ff 15 00 00 00
	00		 call	 DWORD PTR __imp_?GetString@ioStringManager@@QAEPADPBD0HW4FileNamePrefix@1@@Z
  002a1	f3 0f 10 05 00
	00 00 00	 movss	 xmm0, DWORD PTR __real@3f266666
  002a9	50		 push	 eax
  002aa	8b 45 0c	 mov	 eax, DWORD PTR _iYPos$[ebp]
  002ad	83 ec 0c	 sub	 esp, 12			; 0000000cH
  002b0	f3 0f 11 44 24
	08		 movss	 DWORD PTR [esp+8], xmm0
  002b6	0f 57 c0	 xorps	 xmm0, xmm0
  002b9	05 bc 00 00 00	 add	 eax, 188		; 000000bcH
  002be	f3 0f 2a c0	 cvtsi2ss xmm0, eax
  002c2	f3 0f 11 44 24
	04		 movss	 DWORD PTR [esp+4], xmm0
  002c8	f3 0f 10 85 f4
	fe ff ff	 movss	 xmm0, DWORD PTR tv333[ebp]
  002d0	f3 0f 11 04 24	 movss	 DWORD PTR [esp], xmm0
  002d5	ff d6		 call	 esi
  002d7	50		 push	 eax
  002d8	ff 15 00 00 00
	00		 call	 DWORD PTR __imp_?PrintText@ioFontManager@@QAAXMMMPBDZZ

; 1184 : 	}
; 1185 : 
; 1186 : 	if( m_pCongratulationText )

  002de	8b 85 ec fe ff
	ff		 mov	 eax, DWORD PTR _this$GSCopy$[ebp]
  002e4	83 c4 14	 add	 esp, 20			; 00000014H
  002e7	39 98 9c 01 00
	00		 cmp	 DWORD PTR [eax+412], ebx
  002ed	74 35		 je	 SHORT $LN1@RenderOrig

; 1187 : 		m_pCongratulationText->Render( iXPos + 161, iYPos + 132 );

  002ef	8b 4d 0c	 mov	 ecx, DWORD PTR _iYPos$[ebp]
  002f2	8b 80 9c 01 00
	00		 mov	 eax, DWORD PTR [eax+412]
  002f8	8b 10		 mov	 edx, DWORD PTR [eax]
  002fa	53		 push	 ebx
  002fb	53		 push	 ebx
  002fc	53		 push	 ebx
  002fd	81 c1 84 00 00
	00		 add	 ecx, 132		; 00000084H
  00303	53		 push	 ebx
  00304	51		 push	 ecx
  00305	51		 push	 ecx
  00306	0f 57 c0	 xorps	 xmm0, xmm0
  00309	f3 0f 2a c1	 cvtsi2ss xmm0, ecx
  0030d	f3 0f 11 44 24
	04		 movss	 DWORD PTR [esp+4], xmm0
  00313	f3 0f 10 85 f4
	fe ff ff	 movss	 xmm0, DWORD PTR tv333[ebp]
  0031b	8b c8		 mov	 ecx, eax
  0031d	f3 0f 11 04 24	 movss	 DWORD PTR [esp], xmm0
  00322	ff 12		 call	 DWORD PTR [edx]
$LN1@RenderOrig:

; 1188 : }

  00324	8b 4d fc	 mov	 ecx, DWORD PTR __$ArrayPad$[ebp]
  00327	5f		 pop	 edi
  00328	5e		 pop	 esi
  00329	33 cd		 xor	 ecx, ebp
  0032b	5b		 pop	 ebx
  0032c	e8 00 00 00 00	 call	 @__security_check_cookie@4
  00331	c9		 leave
  00332	c2 08 00	 ret	 8
?RenderOriginalBonus@EventChanceRollingWnd@@IAEXHH@Z ENDP ; EventChanceRollingWnd::RenderOriginalBonus
_TEXT	ENDS
PUBLIC	??_C@_0CH@GJDAPKBP@EventChanceRollingWnd?3?3RenderRan@ ; `string'
PUBLIC	_this$GSCopy$
PUBLIC	__$ArrayPad$
PUBLIC	?RenderRandBonus@EventChanceRollingWnd@@IAEXHH@Z ; EventChanceRollingWnd::RenderRandBonus
;	COMDAT ??_C@_0CH@GJDAPKBP@EventChanceRollingWnd?3?3RenderRan@
CONST	SEGMENT
??_C@_0CH@GJDAPKBP@EventChanceRollingWnd?3?3RenderRan@ DB 'EventChanceRol'
	DB	'lingWnd::RenderRandBonus', 00H		; `string'
; Function compile flags: /Ogsp
CONST	ENDS
;	COMDAT ?RenderRandBonus@EventChanceRollingWnd@@IAEXHH@Z
_TEXT	SEGMENT
_this$GSCopy$ = -276					; size = 4
_iBonusType$ = -272					; size = 4
tv304 = -268						; size = 4
_szConvertNum$515879 = -264				; size = 260
__$ArrayPad$ = -4					; size = 4
_iXPos$ = 8						; size = 4
_iYPos$ = 12						; size = 4
?RenderRandBonus@EventChanceRollingWnd@@IAEXHH@Z PROC	; EventChanceRollingWnd::RenderRandBonus, COMDAT
; _this$ = ecx

; 1191 : {

  00000	55		 push	 ebp
  00001	8b ec		 mov	 ebp, esp
  00003	81 ec 14 01 00
	00		 sub	 esp, 276		; 00000114H
  00009	a1 00 00 00 00	 mov	 eax, DWORD PTR ___security_cookie
  0000e	33 c5		 xor	 eax, ebp
  00010	89 45 fc	 mov	 DWORD PTR __$ArrayPad$[ebp], eax
  00013	53		 push	 ebx
  00014	56		 push	 esi
  00015	8b f1		 mov	 esi, ecx

; 1192 : 	int iBonusType = m_iRandBonus % 1000;

  00017	8b 86 dc 01 00
	00		 mov	 eax, DWORD PTR [esi+476]
  0001d	99		 cdq
  0001e	b9 e8 03 00 00	 mov	 ecx, 1000		; 000003e8H
  00023	f7 f9		 idiv	 ecx

; 1193 : 	if( iBonusType == 0 )

  00025	33 db		 xor	 ebx, ebx
  00027	57		 push	 edi

; 1194 : 	{
; 1195 : 		// 페소 보상
; 1196 : 		if( m_pPesoIcon )

  00028	8b 7d 0c	 mov	 edi, DWORD PTR _iYPos$[ebp]
  0002b	89 b5 ec fe ff
	ff		 mov	 DWORD PTR _this$GSCopy$[ebp], esi
  00031	89 95 f0 fe ff
	ff		 mov	 DWORD PTR _iBonusType$[ebp], edx
  00037	3b d3		 cmp	 edx, ebx
  00039	0f 85 dd 00 00
	00		 jne	 $LN5@RenderRand
  0003f	39 9e 90 01 00
	00		 cmp	 DWORD PTR [esi+400], ebx
  00045	74 37		 je	 SHORT $LN4@RenderRand

; 1197 : 			m_pPesoIcon->Render( iXPos + 161, iYPos + 92 );

  00047	8b 86 90 01 00
	00		 mov	 eax, DWORD PTR [esi+400]
  0004d	8b 10		 mov	 edx, DWORD PTR [eax]
  0004f	53		 push	 ebx
  00050	53		 push	 ebx
  00051	53		 push	 ebx
  00052	8d 4f 5c	 lea	 ecx, DWORD PTR [edi+92]
  00055	53		 push	 ebx
  00056	51		 push	 ecx
  00057	51		 push	 ecx
  00058	0f 57 c0	 xorps	 xmm0, xmm0
  0005b	f3 0f 2a c1	 cvtsi2ss xmm0, ecx
  0005f	8b 4d 08	 mov	 ecx, DWORD PTR _iXPos$[ebp]
  00062	f3 0f 11 44 24
	04		 movss	 DWORD PTR [esp+4], xmm0
  00068	81 c1 a1 00 00
	00		 add	 ecx, 161		; 000000a1H
  0006e	0f 57 c0	 xorps	 xmm0, xmm0
  00071	f3 0f 2a c1	 cvtsi2ss xmm0, ecx
  00075	8b c8		 mov	 ecx, eax
  00077	f3 0f 11 04 24	 movss	 DWORD PTR [esp], xmm0
  0007c	ff 12		 call	 DWORD PTR [edx]
$LN4@RenderRand:

; 1198 : 
; 1199 : 		char szConvertNum[MAX_PATH] = "";

  0007e	68 03 01 00 00	 push	 259			; 00000103H
  00083	8d 85 f9 fe ff
	ff		 lea	 eax, DWORD PTR _szConvertNum$515879[ebp+1]
  00089	53		 push	 ebx
  0008a	50		 push	 eax
  0008b	88 9d f8 fe ff
	ff		 mov	 BYTE PTR _szConvertNum$515879[ebp], bl
  00091	e8 00 00 00 00	 call	 _memset

; 1200 : 		Help::ConvertNumToStrComma( m_iRandBonus / 1000, szConvertNum, sizeof( szConvertNum ) );

  00096	68 04 01 00 00	 push	 260			; 00000104H
  0009b	8d 85 f8 fe ff
	ff		 lea	 eax, DWORD PTR _szConvertNum$515879[ebp]
  000a1	50		 push	 eax
  000a2	8b 86 dc 01 00
	00		 mov	 eax, DWORD PTR [esi+476]
  000a8	99		 cdq
  000a9	b9 e8 03 00 00	 mov	 ecx, 1000		; 000003e8H
  000ae	f7 f9		 idiv	 ecx
  000b0	50		 push	 eax
  000b1	e8 00 00 00 00	 call	 ?ConvertNumToStrComma@Help@@YAXHPADH@Z ; Help::ConvertNumToStrComma

; 1201 : 		g_FontMgr.SetTextStyle( TS_OUTLINE_FULL_2X );

  000b6	8b 35 00 00 00
	00		 mov	 esi, DWORD PTR __imp_?GetSingleton@ioFontManager@@SAAAV1@XZ
  000bc	83 c4 18	 add	 esp, 24			; 00000018H
  000bf	6a 05		 push	 5
  000c1	ff d6		 call	 esi
  000c3	8b c8		 mov	 ecx, eax
  000c5	ff 15 00 00 00
	00		 call	 DWORD PTR __imp_?SetTextStyle@ioFontManager@@QAEXW4TextStyle@@@Z

; 1202 : 		g_FontMgr.SetAlignType( TAT_CENTER );

  000cb	6a 01		 push	 1
  000cd	ff d6		 call	 esi
  000cf	8b c8		 mov	 ecx, eax
  000d1	ff 15 00 00 00
	00		 call	 DWORD PTR __imp_?SetAlignType@ioFontManager@@QAEXW4TextAlignType@@@Z

; 1203 : 		g_FontMgr.SetBkColor( 0, 0, 0 );

  000d7	53		 push	 ebx
  000d8	53		 push	 ebx
  000d9	53		 push	 ebx
  000da	ff d6		 call	 esi
  000dc	8b c8		 mov	 ecx, eax
  000de	ff 15 00 00 00
	00		 call	 DWORD PTR __imp_?SetBkColor@ioFontManager@@QAEXHHH@Z

; 1204 : 		g_FontMgr.SetTextColor( 255, 255, 255 );

  000e4	b8 ff 00 00 00	 mov	 eax, 255		; 000000ffH
  000e9	50		 push	 eax
  000ea	50		 push	 eax
  000eb	50		 push	 eax
  000ec	ff d6		 call	 esi
  000ee	8b c8		 mov	 ecx, eax
  000f0	ff 15 00 00 00
	00		 call	 DWORD PTR __imp_?SetTextColor@ioFontManager@@QAEXHHH@Z

; 1205 : 		g_FontMgr.PrintText( iXPos + 161, iYPos + 178, FONT_SIZE_13, STR(1), szConvertNum );

  000f6	8b 45 08	 mov	 eax, DWORD PTR _iXPos$[ebp]
  000f9	05 a1 00 00 00	 add	 eax, 161		; 000000a1H
  000fe	0f 57 c0	 xorps	 xmm0, xmm0
  00101	f3 0f 2a c0	 cvtsi2ss xmm0, eax
  00105	8d 85 f8 fe ff
	ff		 lea	 eax, DWORD PTR _szConvertNum$515879[ebp]
  0010b	50		 push	 eax
  0010c	53		 push	 ebx
  0010d	f3 0f 11 85 f4
	fe ff ff	 movss	 DWORD PTR tv304[ebp], xmm0
  00115	6a 01		 push	 1

; 1206 : 	}
; 1207 : 	else

  00117	e9 aa 00 00 00	 jmp	 $LN8@RenderRand
$LN5@RenderRand:

; 1208 : 	{
; 1209 : 		// 용병 보상
; 1210 : 		if( m_pSoldierIcon )

  0011c	39 9e 94 01 00
	00		 cmp	 DWORD PTR [esi+404], ebx
  00122	74 37		 je	 SHORT $LN2@RenderRand

; 1211 : 			m_pSoldierIcon->Render( iXPos + 161, iYPos + 92 );

  00124	8b 86 94 01 00
	00		 mov	 eax, DWORD PTR [esi+404]
  0012a	8b 10		 mov	 edx, DWORD PTR [eax]
  0012c	53		 push	 ebx
  0012d	53		 push	 ebx
  0012e	53		 push	 ebx
  0012f	8d 4f 5c	 lea	 ecx, DWORD PTR [edi+92]
  00132	53		 push	 ebx
  00133	51		 push	 ecx
  00134	51		 push	 ecx
  00135	0f 57 c0	 xorps	 xmm0, xmm0
  00138	f3 0f 2a c1	 cvtsi2ss xmm0, ecx
  0013c	8b 4d 08	 mov	 ecx, DWORD PTR _iXPos$[ebp]
  0013f	f3 0f 11 44 24
	04		 movss	 DWORD PTR [esp+4], xmm0
  00145	81 c1 a1 00 00
	00		 add	 ecx, 161		; 000000a1H
  0014b	0f 57 c0	 xorps	 xmm0, xmm0
  0014e	f3 0f 2a c1	 cvtsi2ss xmm0, ecx
  00152	8b c8		 mov	 ecx, eax
  00154	f3 0f 11 04 24	 movss	 DWORD PTR [esp], xmm0
  00159	ff 12		 call	 DWORD PTR [edx]
$LN2@RenderRand:

; 1212 : 
; 1213 : 		g_FontMgr.SetTextStyle( TS_OUTLINE_FULL_2X );

  0015b	8b 35 00 00 00
	00		 mov	 esi, DWORD PTR __imp_?GetSingleton@ioFontManager@@SAAAV1@XZ
  00161	6a 05		 push	 5
  00163	ff d6		 call	 esi
  00165	8b c8		 mov	 ecx, eax
  00167	ff 15 00 00 00
	00		 call	 DWORD PTR __imp_?SetTextStyle@ioFontManager@@QAEXW4TextStyle@@@Z

; 1214 : 		g_FontMgr.SetAlignType( TAT_CENTER );

  0016d	6a 01		 push	 1
  0016f	ff d6		 call	 esi
  00171	8b c8		 mov	 ecx, eax
  00173	ff 15 00 00 00
	00		 call	 DWORD PTR __imp_?SetAlignType@ioFontManager@@QAEXW4TextAlignType@@@Z

; 1215 : 		g_FontMgr.SetBkColor( 0, 0, 0 );

  00179	53		 push	 ebx
  0017a	53		 push	 ebx
  0017b	53		 push	 ebx
  0017c	ff d6		 call	 esi
  0017e	8b c8		 mov	 ecx, eax
  00180	ff 15 00 00 00
	00		 call	 DWORD PTR __imp_?SetBkColor@ioFontManager@@QAEXHHH@Z

; 1216 : 		g_FontMgr.SetTextColor( 255, 255, 255 );

  00186	b8 ff 00 00 00	 mov	 eax, 255		; 000000ffH
  0018b	50		 push	 eax
  0018c	50		 push	 eax
  0018d	50		 push	 eax
  0018e	ff d6		 call	 esi
  00190	8b c8		 mov	 ecx, eax
  00192	ff 15 00 00 00
	00		 call	 DWORD PTR __imp_?SetTextColor@ioFontManager@@QAEXHHH@Z

; 1217 : 		g_FontMgr.PrintText( iXPos + 161, iYPos + 178, FONT_SIZE_13, STR(2), g_MyInfo.GetClassName( iBonusType ) );

  00198	8b 45 08	 mov	 eax, DWORD PTR _iXPos$[ebp]
  0019b	05 a1 00 00 00	 add	 eax, 161		; 000000a1H
  001a0	53		 push	 ebx
  001a1	ff b5 f0 fe ff
	ff		 push	 DWORD PTR _iBonusType$[ebp]
  001a7	0f 57 c0	 xorps	 xmm0, xmm0
  001aa	f3 0f 2a c0	 cvtsi2ss xmm0, eax
  001ae	f3 0f 11 85 f4
	fe ff ff	 movss	 DWORD PTR tv304[ebp], xmm0
  001b6	e8 00 00 00 00	 call	 ?GetSingleton@ioMyInfo@@SAAAV1@XZ ; ioMyInfo::GetSingleton
  001bb	8b c8		 mov	 ecx, eax
  001bd	e8 00 00 00 00	 call	 ?GetClassNameA@ioMyInfo@@QAEPBDHH@Z ; ioMyInfo::GetClassNameA
  001c2	50		 push	 eax
  001c3	53		 push	 ebx
  001c4	6a 02		 push	 2
$LN8@RenderRand:
  001c6	68 00 00 00 00	 push	 OFFSET ??_C@_00CNPNBAHC@?$AA@
  001cb	68 00 00 00 00	 push	 OFFSET ??_C@_0CH@GJDAPKBP@EventChanceRollingWnd?3?3RenderRan@
  001d0	ff 15 00 00 00
	00		 call	 DWORD PTR __imp_?GetSingleton@ioStringManager@@SAAAV1@XZ
  001d6	8b c8		 mov	 ecx, eax
  001d8	ff 15 00 00 00
	00		 call	 DWORD PTR __imp_?GetString@ioStringManager@@QAEPADPBD0HW4FileNamePrefix@1@@Z
  001de	f3 0f 10 05 00
	00 00 00	 movss	 xmm0, DWORD PTR __real@3f266666
  001e6	50		 push	 eax
  001e7	83 ec 0c	 sub	 esp, 12			; 0000000cH
  001ea	f3 0f 11 44 24
	08		 movss	 DWORD PTR [esp+8], xmm0
  001f0	0f 57 c0	 xorps	 xmm0, xmm0
  001f3	8d 87 b2 00 00
	00		 lea	 eax, DWORD PTR [edi+178]
  001f9	f3 0f 2a c0	 cvtsi2ss xmm0, eax
  001fd	f3 0f 11 44 24
	04		 movss	 DWORD PTR [esp+4], xmm0
  00203	f3 0f 10 85 f4
	fe ff ff	 movss	 xmm0, DWORD PTR tv304[ebp]
  0020b	f3 0f 11 04 24	 movss	 DWORD PTR [esp], xmm0
  00210	ff d6		 call	 esi
  00212	8b c8		 mov	 ecx, eax
  00214	ff 15 00 00 00
	00		 call	 DWORD PTR __imp_?PrintText@ioFontManager@@QAEXMMMPBD0@Z

; 1218 : 	}
; 1219 : 
; 1220 : 	if( m_pLotteryText )

  0021a	8b 85 ec fe ff
	ff		 mov	 eax, DWORD PTR _this$GSCopy$[ebp]
  00220	39 98 98 01 00
	00		 cmp	 DWORD PTR [eax+408], ebx
  00226	74 32		 je	 SHORT $LN1@RenderRand

; 1221 : 		m_pLotteryText->Render( iXPos + 161, iYPos + 132 );

  00228	8b 80 98 01 00
	00		 mov	 eax, DWORD PTR [eax+408]
  0022e	8b 10		 mov	 edx, DWORD PTR [eax]
  00230	53		 push	 ebx
  00231	53		 push	 ebx
  00232	53		 push	 ebx
  00233	53		 push	 ebx
  00234	51		 push	 ecx
  00235	51		 push	 ecx
  00236	81 c7 84 00 00
	00		 add	 edi, 132		; 00000084H
  0023c	0f 57 c0	 xorps	 xmm0, xmm0
  0023f	f3 0f 2a c7	 cvtsi2ss xmm0, edi
  00243	f3 0f 11 44 24
	04		 movss	 DWORD PTR [esp+4], xmm0
  00249	f3 0f 10 85 f4
	fe ff ff	 movss	 xmm0, DWORD PTR tv304[ebp]
  00251	8b c8		 mov	 ecx, eax
  00253	f3 0f 11 04 24	 movss	 DWORD PTR [esp], xmm0
  00258	ff 12		 call	 DWORD PTR [edx]
$LN1@RenderRand:

; 1222 : }

  0025a	8b 4d fc	 mov	 ecx, DWORD PTR __$ArrayPad$[ebp]
  0025d	5f		 pop	 edi
  0025e	5e		 pop	 esi
  0025f	33 cd		 xor	 ecx, ebp
  00261	5b		 pop	 ebx
  00262	e8 00 00 00 00	 call	 @__security_check_cookie@4
  00267	c9		 leave
  00268	c2 08 00	 ret	 8
?RenderRandBonus@EventChanceRollingWnd@@IAEXHH@Z ENDP	; EventChanceRollingWnd::RenderRandBonus
_TEXT	ENDS
PUBLIC	__real@3fc00000
PUBLIC	?iwm_show@OneDayGoldItemEventWnd@@UAEXXZ	; OneDayGoldItemEventWnd::iwm_show
EXTRN	__imp_?ShowChildWnd@ioWnd@@QAEXK_N@Z:PROC
EXTRN	__imp_?HideChildWnd@ioWnd@@QAEXK_N@Z:PROC
;	COMDAT __real@3fc00000
CONST	SEGMENT
__real@3fc00000 DD 03fc00000r			; 1.5
; Function compile flags: /Ogsp
CONST	ENDS
;	COMDAT ?iwm_show@OneDayGoldItemEventWnd@@UAEXXZ
_TEXT	SEGMENT
?iwm_show@OneDayGoldItemEventWnd@@UAEXXZ PROC		; OneDayGoldItemEventWnd::iwm_show, COMDAT
; _this$ = ecx

; 1271 : {

  00000	53		 push	 ebx
  00001	56		 push	 esi
  00002	8b f1		 mov	 esi, ecx

; 1272 : 	switch( m_dwState )

  00004	8b 86 60 01 00
	00		 mov	 eax, DWORD PTR [esi+352]
  0000a	57		 push	 edi
  0000b	33 ff		 xor	 edi, edi
  0000d	2b c7		 sub	 eax, edi
  0000f	0f 84 c6 00 00
	00		 je	 $LN5@iwm_show@2
  00015	48		 dec	 eax
  00016	0f 84 95 00 00
	00		 je	 $LN4@iwm_show@2
  0001c	48		 dec	 eax
  0001d	74 6a		 je	 SHORT $LN3@iwm_show@2
  0001f	48		 dec	 eax
  00020	75 63		 jne	 SHORT $LN6@iwm_show@2

; 1295 : 	case STATE_COMPLETE:
; 1296 : 		{
; 1297 : 			HideChildWnd( ID_RECV_ITEM );

  00022	57		 push	 edi
  00023	6a 02		 push	 2
  00025	ff 15 00 00 00
	00		 call	 DWORD PTR __imp_?HideChildWnd@ioWnd@@QAEXK_N@Z

; 1298 : 			ShowChildWnd( ID_LINK );

  0002b	57		 push	 edi
  0002c	6a 03		 push	 3
  0002e	8b ce		 mov	 ecx, esi
  00030	ff 15 00 00 00
	00		 call	 DWORD PTR __imp_?ShowChildWnd@ioWnd@@QAEXK_N@Z

; 1299 : 
; 1300 : 			SetChildActive( ID_EXIT );

  00036	6a 01		 push	 1
  00038	8b ce		 mov	 ecx, esi
  0003a	ff 15 00 00 00
	00		 call	 DWORD PTR __imp_?SetChildActive@ioWnd@@QAEXK@Z

; 1301 : 
; 1302 : 			if( m_pPresentIcon )

  00040	39 be d0 01 00
	00		 cmp	 DWORD PTR [esi+464], edi
  00046	74 3d		 je	 SHORT $LN6@iwm_show@2

; 1303 : 			{
; 1304 : 				m_fCompleteIconScale   = 1.50f;

  00048	f3 0f 10 05 00
	00 00 00	 movss	 xmm0, DWORD PTR __real@3fc00000
  00050	f3 0f 11 86 b0
	01 00 00	 movss	 DWORD PTR [esi+432], xmm0

; 1305 : 				m_dwCompleteScaleTimer = FRAMEGETTIME();

  00058	ff 15 00 00 00
	00		 call	 DWORD PTR __imp_?GetSingleton@ioFrameTimer@@SAAAV1@XZ
  0005e	8b c8		 mov	 ecx, eax
  00060	ff 15 00 00 00
	00		 call	 DWORD PTR __imp_?GetLoopSec@ioFrameTimer@@QBEKXZ

; 1306 : 				m_pPresentIcon->SetScale( m_fCompleteIconScale );

  00066	8b 8e d0 01 00
	00		 mov	 ecx, DWORD PTR [esi+464]
  0006c	f3 0f 10 86 b0
	01 00 00	 movss	 xmm0, DWORD PTR [esi+432]
  00074	89 86 b4 01 00
	00		 mov	 DWORD PTR [esi+436], eax
  0007a	8b 01		 mov	 eax, DWORD PTR [ecx]
  0007c	51		 push	 ecx
  0007d	f3 0f 11 04 24	 movss	 DWORD PTR [esp], xmm0
  00082	ff 50 1c	 call	 DWORD PTR [eax+28]
$LN6@iwm_show@2:
  00085	5f		 pop	 edi
  00086	5e		 pop	 esi
  00087	5b		 pop	 ebx

; 1307 : 			}
; 1308 : 		}
; 1309 : 		break;
; 1310 : 	}
; 1311 : }

  00088	c3		 ret	 0
$LN3@iwm_show@2:

; 1286 : 	case STATE_ROLLING:
; 1287 : 		{
; 1288 : 			ShowChildWnd( ID_RECV_ITEM );

  00089	57		 push	 edi
  0008a	6a 02		 push	 2
  0008c	ff 15 00 00 00
	00		 call	 DWORD PTR __imp_?ShowChildWnd@ioWnd@@QAEXK_N@Z

; 1289 : 			HideChildWnd( ID_LINK );

  00092	57		 push	 edi
  00093	6a 03		 push	 3
  00095	8b ce		 mov	 ecx, esi
  00097	ff 15 00 00 00
	00		 call	 DWORD PTR __imp_?HideChildWnd@ioWnd@@QAEXK_N@Z

; 1290 : 
; 1291 : 			SetChildInActive( ID_EXIT );

  0009d	8b 3d 00 00 00
	00		 mov	 edi, DWORD PTR __imp_?SetChildInActive@ioWnd@@QAEXK@Z
  000a3	6a 01		 push	 1
  000a5	8b ce		 mov	 ecx, esi
  000a7	ff d7		 call	 edi

; 1292 : 			SetChildInActive( ID_RECV_ITEM );

  000a9	6a 02		 push	 2
  000ab	8b ce		 mov	 ecx, esi
  000ad	ff d7		 call	 edi

; 1293 : 		}
; 1294 : 		break;

  000af	eb d4		 jmp	 SHORT $LN6@iwm_show@2
$LN4@iwm_show@2:

; 1276 : 		break;
; 1277 : 	case STATE_RECV:
; 1278 : 		{
; 1279 : 			ShowChildWnd( ID_RECV_ITEM );

  000b1	57		 push	 edi
  000b2	6a 02		 push	 2
  000b4	ff 15 00 00 00
	00		 call	 DWORD PTR __imp_?ShowChildWnd@ioWnd@@QAEXK_N@Z

; 1280 : 			HideChildWnd( ID_LINK );

  000ba	57		 push	 edi
  000bb	6a 03		 push	 3
  000bd	8b ce		 mov	 ecx, esi
  000bf	ff 15 00 00 00
	00		 call	 DWORD PTR __imp_?HideChildWnd@ioWnd@@QAEXK_N@Z

; 1281 : 
; 1282 : 			SetChildInActive( ID_EXIT );

  000c5	6a 01		 push	 1
  000c7	8b ce		 mov	 ecx, esi
  000c9	ff 15 00 00 00
	00		 call	 DWORD PTR __imp_?SetChildInActive@ioWnd@@QAEXK@Z

; 1283 : 			SetChildActive( ID_RECV_ITEM );

  000cf	6a 02		 push	 2
  000d1	8b ce		 mov	 ecx, esi
  000d3	ff 15 00 00 00
	00		 call	 DWORD PTR __imp_?SetChildActive@ioWnd@@QAEXK@Z

; 1284 : 		}
; 1285 : 		break;

  000d9	eb aa		 jmp	 SHORT $LN6@iwm_show@2
$LN5@iwm_show@2:
  000db	5f		 pop	 edi
  000dc	5e		 pop	 esi
  000dd	5b		 pop	 ebx

; 1273 : 	{
; 1274 : 	case STATE_NONE:
; 1275 : 		HideWnd();

  000de	ff 25 00 00 00
	00		 jmp	 DWORD PTR __imp_?HideWnd@ioWnd@@QAEXXZ
?iwm_show@OneDayGoldItemEventWnd@@UAEXXZ ENDP		; OneDayGoldItemEventWnd::iwm_show
_TEXT	ENDS
PUBLIC	?iwm_hide@OneDayGoldItemEventWnd@@UAEXXZ	; OneDayGoldItemEventWnd::iwm_hide
; Function compile flags: /Ogsp
;	COMDAT ?iwm_hide@OneDayGoldItemEventWnd@@UAEXXZ
_TEXT	SEGMENT
?iwm_hide@OneDayGoldItemEventWnd@@UAEXXZ PROC		; OneDayGoldItemEventWnd::iwm_hide, COMDAT
; _this$ = ecx

; 1314 : {

  00000	53		 push	 ebx
  00001	56		 push	 esi
  00002	8b f1		 mov	 esi, ecx

; 1315 : 	m_dwState = STATE_NONE;

  00004	83 a6 60 01 00
	00 00		 and	 DWORD PTR [esi+352], 0
  0000b	57		 push	 edi

; 1316 : 	if( !m_szRollingSound.IsEmpty() )

  0000c	8d 8e 78 01 00
	00		 lea	 ecx, DWORD PTR [esi+376]
  00012	ff 15 00 00 00
	00		 call	 DWORD PTR __imp_?IsEmpty@ioHashString@@QBE_NXZ
  00018	8b 3d 00 00 00
	00		 mov	 edi, DWORD PTR __imp_?StopSound@ioSoundManager@@QAEXABVioHashString@@K@Z
  0001e	8b 1d 00 00 00
	00		 mov	 ebx, DWORD PTR __imp_?GetSingleton@ioSoundManager@@SAAAV1@XZ
  00024	84 c0		 test	 al, al
  00026	75 0f		 jne	 SHORT $LN2@iwm_hide@2

; 1317 : 		g_SoundMgr.StopSound( m_szRollingSound, 0 );

  00028	8d 86 78 01 00
	00		 lea	 eax, DWORD PTR [esi+376]
  0002e	6a 00		 push	 0
  00030	50		 push	 eax
  00031	ff d3		 call	 ebx
  00033	8b c8		 mov	 ecx, eax
  00035	ff d7		 call	 edi
$LN2@iwm_hide@2:

; 1318 : 	if( !m_szCompleteSound.IsEmpty() )

  00037	81 c6 88 01 00
	00		 add	 esi, 392		; 00000188H
  0003d	8b ce		 mov	 ecx, esi
  0003f	ff 15 00 00 00
	00		 call	 DWORD PTR __imp_?IsEmpty@ioHashString@@QBE_NXZ
  00045	84 c0		 test	 al, al
  00047	75 09		 jne	 SHORT $LN1@iwm_hide@2

; 1319 : 		g_SoundMgr.StopSound( m_szCompleteSound, 0 );

  00049	6a 00		 push	 0
  0004b	56		 push	 esi
  0004c	ff d3		 call	 ebx
  0004e	8b c8		 mov	 ecx, eax
  00050	ff d7		 call	 edi
$LN1@iwm_hide@2:

; 1320 : }

  00052	5f		 pop	 edi
  00053	5e		 pop	 esi
  00054	5b		 pop	 ebx
  00055	c3		 ret	 0
?iwm_hide@OneDayGoldItemEventWnd@@UAEXXZ ENDP		; OneDayGoldItemEventWnd::iwm_hide
_TEXT	ENDS
PUBLIC	?iwm_esc@OneDayGoldItemEventWnd@@UAE_NXZ	; OneDayGoldItemEventWnd::iwm_esc
; Function compile flags: /Ogsp
;	COMDAT ?iwm_esc@OneDayGoldItemEventWnd@@UAE_NXZ
_TEXT	SEGMENT
?iwm_esc@OneDayGoldItemEventWnd@@UAE_NXZ PROC		; OneDayGoldItemEventWnd::iwm_esc, COMDAT
; _this$ = ecx

; 1323 : {

  00000	56		 push	 esi
  00001	8b f1		 mov	 esi, ecx

; 1324 : 	if( !IsShow() ) return false;

  00003	ff 15 00 00 00
	00		 call	 DWORD PTR __imp_?IsShow@ioWnd@@QBE_NXZ
  00009	84 c0		 test	 al, al
  0000b	74 12		 je	 SHORT $LN1@iwm_esc@2

; 1325 : 
; 1326 : 	if( m_dwState == STATE_COMPLETE )

  0000d	83 be 60 01 00
	00 03		 cmp	 DWORD PTR [esi+352], 3
  00014	75 09		 jne	 SHORT $LN1@iwm_esc@2

; 1327 : 		return ioWnd::iwm_esc();

  00016	8b ce		 mov	 ecx, esi
  00018	5e		 pop	 esi
  00019	ff 25 00 00 00
	00		 jmp	 DWORD PTR __imp_?iwm_esc@ioWnd@@UAE_NXZ
$LN1@iwm_esc@2:

; 1328 : 	return false;

  0001f	32 c0		 xor	 al, al
  00021	5e		 pop	 esi

; 1329 : }

  00022	c3		 ret	 0
?iwm_esc@OneDayGoldItemEventWnd@@UAE_NXZ ENDP		; OneDayGoldItemEventWnd::iwm_esc
_TEXT	ENDS
PUBLIC	?iwm_spacebar@OneDayGoldItemEventWnd@@UAE_NXZ	; OneDayGoldItemEventWnd::iwm_spacebar
; Function compile flags: /Ogsp
;	COMDAT ?iwm_spacebar@OneDayGoldItemEventWnd@@UAE_NXZ
_TEXT	SEGMENT
?iwm_spacebar@OneDayGoldItemEventWnd@@UAE_NXZ PROC	; OneDayGoldItemEventWnd::iwm_spacebar, COMDAT
; _this$ = ecx

; 1332 : {

  00000	56		 push	 esi
  00001	8b f1		 mov	 esi, ecx

; 1333 : 	if( !IsShow() ) return false;

  00003	ff 15 00 00 00
	00		 call	 DWORD PTR __imp_?IsShow@ioWnd@@QBE_NXZ
  00009	84 c0		 test	 al, al
  0000b	74 28		 je	 SHORT $LN1@iwm_spaceb@3

; 1334 : 
; 1335 : 	if( m_dwState == STATE_COMPLETE )

  0000d	83 be 60 01 00
	00 03		 cmp	 DWORD PTR [esi+352], 3
  00014	75 1f		 jne	 SHORT $LN1@iwm_spaceb@3

; 1336 : 	{
; 1337 : 		iwm_command( FindChildWnd( ID_LINK ), IOBN_BTNUP, 0 );

  00016	57		 push	 edi
  00017	8b 3e		 mov	 edi, DWORD PTR [esi]
  00019	6a 00		 push	 0
  0001b	6a 11		 push	 17			; 00000011H
  0001d	6a 03		 push	 3
  0001f	8b ce		 mov	 ecx, esi
  00021	ff 15 00 00 00
	00		 call	 DWORD PTR __imp_?FindChildWnd@ioWnd@@QAEPAV1@K@Z
  00027	50		 push	 eax
  00028	8b ce		 mov	 ecx, esi
  0002a	ff 97 8c 00 00
	00		 call	 DWORD PTR [edi+140]
  00030	5f		 pop	 edi

; 1338 : 		return true;

  00031	b0 01		 mov	 al, 1
  00033	5e		 pop	 esi

; 1341 : }

  00034	c3		 ret	 0
$LN1@iwm_spaceb@3:

; 1339 : 	}
; 1340 : 	return false;

  00035	32 c0		 xor	 al, al
  00037	5e		 pop	 esi

; 1341 : }

  00038	c3		 ret	 0
?iwm_spacebar@OneDayGoldItemEventWnd@@UAE_NXZ ENDP	; OneDayGoldItemEventWnd::iwm_spacebar
_TEXT	ENDS
PUBLIC	?SetRecvState@OneDayGoldItemEventWnd@@QAEXXZ	; OneDayGoldItemEventWnd::SetRecvState
; Function compile flags: /Ogsp
;	COMDAT ?SetRecvState@OneDayGoldItemEventWnd@@QAEXXZ
_TEXT	SEGMENT
?SetRecvState@OneDayGoldItemEventWnd@@QAEXXZ PROC	; OneDayGoldItemEventWnd::SetRecvState, COMDAT
; _this$ = ecx

; 1425 : {

  00000	56		 push	 esi
  00001	8b f1		 mov	 esi, ecx

; 1426 : 	HideWnd();

  00003	ff 15 00 00 00
	00		 call	 DWORD PTR __imp_?HideWnd@ioWnd@@QAEXXZ

; 1427 : 	m_dwState = STATE_RECV;

  00009	c7 86 60 01 00
	00 01 00 00 00	 mov	 DWORD PTR [esi+352], 1

; 1428 : 	ShowWnd();

  00013	8b ce		 mov	 ecx, esi
  00015	5e		 pop	 esi
  00016	ff 25 00 00 00
	00		 jmp	 DWORD PTR __imp_?ShowWnd@ioWnd@@QAEXXZ
?SetRecvState@OneDayGoldItemEventWnd@@QAEXXZ ENDP	; OneDayGoldItemEventWnd::SetRecvState
_TEXT	ENDS
PUBLIC	?ProcessComplete@OneDayGoldItemEventWnd@@IAEXXZ	; OneDayGoldItemEventWnd::ProcessComplete
; Function compile flags: /Ogsp
;	COMDAT ?ProcessComplete@OneDayGoldItemEventWnd@@IAEXXZ
_TEXT	SEGMENT
tv260 = -8						; size = 4
tv248 = -8						; size = 4
tv241 = -8						; size = 4
tv235 = -8						; size = 4
tv229 = -8						; size = 4
tv134 = -8						; size = 4
tv75 = -8						; size = 4
tv264 = -4						; size = 4
tv244 = -4						; size = 4
tv237 = -4						; size = 4
tv224 = -4						; size = 4
?ProcessComplete@OneDayGoldItemEventWnd@@IAEXXZ PROC	; OneDayGoldItemEventWnd::ProcessComplete, COMDAT
; _this$ = ecx

; 1550 : {

  00000	55		 push	 ebp
  00001	8b ec		 mov	 ebp, esp
  00003	51		 push	 ecx
  00004	51		 push	 ecx
  00005	56		 push	 esi
  00006	8b f1		 mov	 esi, ecx

; 1551 : 	if( m_dwState != STATE_COMPLETE ) return;

  00008	83 be 60 01 00
	00 03		 cmp	 DWORD PTR [esi+352], 3
  0000f	0f 85 29 01 00
	00		 jne	 $LN3@ProcessCom

; 1552 : 	if( m_dwCompleteScaleTimer == 0 ) return;

  00015	57		 push	 edi
  00016	33 ff		 xor	 edi, edi
  00018	39 be b4 01 00
	00		 cmp	 DWORD PTR [esi+436], edi
  0001e	0f 84 19 01 00
	00		 je	 $LN22@ProcessCom

; 1553 : 
; 1554 : 	if( m_pPresentIcon )

  00024	39 be d0 01 00
	00		 cmp	 DWORD PTR [esi+464], edi
  0002a	0f 84 0d 01 00
	00		 je	 $LN22@ProcessCom

; 1555 : 	{
; 1556 : 		DWORD dwGapTime = FRAMEGETTIME() - m_dwCompleteScaleTimer;

  00030	ff 15 00 00 00
	00		 call	 DWORD PTR __imp_?GetSingleton@ioFrameTimer@@SAAAV1@XZ
  00036	8b c8		 mov	 ecx, eax
  00038	ff 15 00 00 00
	00		 call	 DWORD PTR __imp_?GetLoopSec@ioFrameTimer@@QBEKXZ
  0003e	8b c8		 mov	 ecx, eax
  00040	2b 8e b4 01 00
	00		 sub	 ecx, DWORD PTR [esi+436]

; 1557 : 		if( dwGapTime < FLOAT100 )

  00046	b8 64 00 00 00	 mov	 eax, 100		; 00000064H
  0004b	89 4d fc	 mov	 DWORD PTR tv264[ebp], ecx
  0004e	db 45 fc	 fild	 DWORD PTR tv264[ebp]
  00051	79 06		 jns	 SHORT $LN23@ProcessCom
  00053	d8 05 00 00 00
	00		 fadd	 DWORD PTR __real@4f800000
$LN23@ProcessCom:
  00059	d9 5d fc	 fstp	 DWORD PTR tv237[ebp]
  0005c	89 45 f8	 mov	 DWORD PTR tv260[ebp], eax
  0005f	d9 45 fc	 fld	 DWORD PTR tv237[ebp]
  00062	db 45 f8	 fild	 DWORD PTR tv260[ebp]
  00065	85 c0		 test	 eax, eax
  00067	79 06		 jns	 SHORT $LN24@ProcessCom
  00069	d8 05 00 00 00
	00		 fadd	 DWORD PTR __real@4f800000
$LN24@ProcessCom:
  0006f	df f1		 fcomip	 ST(1)
  00071	dd d8		 fstp	 ST(0)
  00073	0f 86 8a 00 00
	00		 jbe	 $LN2@ProcessCom

; 1558 : 		{
; 1559 : 			m_fCompleteIconScale = FLOAT1 + ( FLOAT05 * ( (float)( FLOAT100 - dwGapTime ) / FLOAT100 ) );

  00079	53		 push	 ebx
  0007a	b8 01 00 00 00	 mov	 eax, 1
  0007f	8b c8		 mov	 ecx, eax
  00081	b8 05 00 00 00	 mov	 eax, 5
  00086	8b d0		 mov	 edx, eax
  00088	b8 0a 00 00 00	 mov	 eax, 10			; 0000000aH
  0008d	8b f8		 mov	 edi, eax
  0008f	b8 64 00 00 00	 mov	 eax, 100		; 00000064H
  00094	8b d8		 mov	 ebx, eax
  00096	b8 64 00 00 00	 mov	 eax, 100		; 00000064H
  0009b	89 5d f8	 mov	 DWORD PTR tv248[ebp], ebx
  0009e	db 45 f8	 fild	 DWORD PTR tv248[ebp]
  000a1	85 db		 test	 ebx, ebx
  000a3	79 06		 jns	 SHORT $LN25@ProcessCom
  000a5	d8 05 00 00 00
	00		 fadd	 DWORD PTR __real@4f800000
$LN25@ProcessCom:
  000ab	d8 65 fc	 fsub	 DWORD PTR tv237[ebp]
  000ae	89 45 f8	 mov	 DWORD PTR tv241[ebp], eax
  000b1	d9 5d fc	 fstp	 DWORD PTR tv244[ebp]
  000b4	d9 45 fc	 fld	 DWORD PTR tv244[ebp]
  000b7	db 45 f8	 fild	 DWORD PTR tv241[ebp]
  000ba	85 c0		 test	 eax, eax
  000bc	79 06		 jns	 SHORT $LN26@ProcessCom
  000be	d8 05 00 00 00
	00		 fadd	 DWORD PTR __real@4f800000
$LN26@ProcessCom:
  000c4	89 55 f8	 mov	 DWORD PTR tv235[ebp], edx
  000c7	de f9		 fdivp	 ST(1), ST(0)
  000c9	db 45 f8	 fild	 DWORD PTR tv235[ebp]
  000cc	85 d2		 test	 edx, edx
  000ce	79 06		 jns	 SHORT $LN27@ProcessCom
  000d0	d8 05 00 00 00
	00		 fadd	 DWORD PTR __real@4f800000
$LN27@ProcessCom:
  000d6	89 7d f8	 mov	 DWORD PTR tv229[ebp], edi
  000d9	db 45 f8	 fild	 DWORD PTR tv229[ebp]
  000dc	85 ff		 test	 edi, edi
  000de	79 06		 jns	 SHORT $LN28@ProcessCom
  000e0	d8 05 00 00 00
	00		 fadd	 DWORD PTR __real@4f800000
$LN28@ProcessCom:
  000e6	de f9		 fdivp	 ST(1), ST(0)
  000e8	89 4d f8	 mov	 DWORD PTR tv134[ebp], ecx
  000eb	d9 5d fc	 fstp	 DWORD PTR tv224[ebp]
  000ee	d8 4d fc	 fmul	 DWORD PTR tv224[ebp]
  000f1	db 45 f8	 fild	 DWORD PTR tv134[ebp]
  000f4	85 c9		 test	 ecx, ecx
  000f6	79 06		 jns	 SHORT $LN29@ProcessCom
  000f8	d8 05 00 00 00
	00		 fadd	 DWORD PTR __real@4f800000
$LN29@ProcessCom:
  000fe	de c1		 faddp	 ST(1), ST(0)
  00100	5b		 pop	 ebx

; 1560 : 		}
; 1561 : 		else

  00101	eb 1b		 jmp	 SHORT $LN30@ProcessCom
$LN2@ProcessCom:

; 1562 : 		{
; 1563 : 			m_dwCompleteScaleTimer = 0;

  00103	89 be b4 01 00
	00		 mov	 DWORD PTR [esi+436], edi

; 1564 : 			m_fCompleteIconScale   = FLOAT1;

  00109	b8 01 00 00 00	 mov	 eax, 1
  0010e	89 45 f8	 mov	 DWORD PTR tv75[ebp], eax
  00111	db 45 f8	 fild	 DWORD PTR tv75[ebp]
  00114	85 c0		 test	 eax, eax
  00116	79 06		 jns	 SHORT $LN30@ProcessCom
  00118	d8 05 00 00 00
	00		 fadd	 DWORD PTR __real@4f800000
$LN30@ProcessCom:

; 1565 : 		}
; 1566 : 		m_pPresentIcon->SetScale( m_fCompleteIconScale );

  0011e	8b 8e d0 01 00
	00		 mov	 ecx, DWORD PTR [esi+464]
  00124	d9 9e b0 01 00
	00		 fstp	 DWORD PTR [esi+432]
  0012a	f3 0f 10 86 b0
	01 00 00	 movss	 xmm0, DWORD PTR [esi+432]
  00132	8b 01		 mov	 eax, DWORD PTR [ecx]
  00134	51		 push	 ecx
  00135	f3 0f 11 04 24	 movss	 DWORD PTR [esp], xmm0
  0013a	ff 50 1c	 call	 DWORD PTR [eax+28]
$LN22@ProcessCom:
  0013d	5f		 pop	 edi
$LN3@ProcessCom:
  0013e	5e		 pop	 esi

; 1567 : 	}
; 1568 : }

  0013f	c9		 leave
  00140	c3		 ret	 0
?ProcessComplete@OneDayGoldItemEventWnd@@IAEXXZ ENDP	; OneDayGoldItemEventWnd::ProcessComplete
_TEXT	ENDS
PUBLIC	??_C@_0CK@CJEBFJAK@OneDayGoldItemEventWnd?3?3OnStateR@ ; `string'
PUBLIC	?OnStateRecvRender@OneDayGoldItemEventWnd@@IAEXHH@Z ; OneDayGoldItemEventWnd::OnStateRecvRender
;	COMDAT ??_C@_0CK@CJEBFJAK@OneDayGoldItemEventWnd?3?3OnStateR@
CONST	SEGMENT
??_C@_0CK@CJEBFJAK@OneDayGoldItemEventWnd?3?3OnStateR@ DB 'OneDayGoldItem'
	DB	'EventWnd::OnStateRecvRender', 00H		; `string'
; Function compile flags: /Ogsp
CONST	ENDS
;	COMDAT ?OnStateRecvRender@OneDayGoldItemEventWnd@@IAEXHH@Z
_TEXT	SEGMENT
tv273 = -4						; size = 4
_iXPos$ = 8						; size = 4
tv275 = 12						; size = 4
_iYPos$ = 12						; size = 4
?OnStateRecvRender@OneDayGoldItemEventWnd@@IAEXHH@Z PROC ; OneDayGoldItemEventWnd::OnStateRecvRender, COMDAT
; _this$ = ecx

; 1599 : {

  00000	55		 push	 ebp
  00001	8b ec		 mov	 ebp, esp
  00003	51		 push	 ecx
  00004	56		 push	 esi
  00005	57		 push	 edi
  00006	8b f1		 mov	 esi, ecx

; 1600 : 	if( !m_pBackRedLight || !m_pRecvIcon || !m_pTextStateRecv ) return;

  00008	33 ff		 xor	 edi, edi
  0000a	39 be b8 01 00
	00		 cmp	 DWORD PTR [esi+440], edi
  00010	0f 84 f8 01 00
	00		 je	 $LN1@OnStateRec
  00016	39 be c0 01 00
	00		 cmp	 DWORD PTR [esi+448], edi
  0001c	0f 84 ec 01 00
	00		 je	 $LN1@OnStateRec
  00022	39 be c4 01 00
	00		 cmp	 DWORD PTR [esi+452], edi
  00028	0f 84 e0 01 00
	00		 je	 $LN1@OnStateRec

; 1601 : 
; 1602 : 	m_pBackRedLight->Render( iXPos + 161, iYPos + 92 );

  0002e	8b 8e b8 01 00
	00		 mov	 ecx, DWORD PTR [esi+440]
  00034	53		 push	 ebx
  00035	8b 5d 0c	 mov	 ebx, DWORD PTR _iYPos$[ebp]
  00038	57		 push	 edi
  00039	57		 push	 edi
  0003a	57		 push	 edi
  0003b	8d 43 5c	 lea	 eax, DWORD PTR [ebx+92]
  0003e	0f 57 c0	 xorps	 xmm0, xmm0
  00041	f3 0f 2a c0	 cvtsi2ss xmm0, eax
  00045	8b 45 08	 mov	 eax, DWORD PTR _iXPos$[ebp]
  00048	57		 push	 edi
  00049	05 a1 00 00 00	 add	 eax, 161		; 000000a1H
  0004e	51		 push	 ecx
  0004f	51		 push	 ecx
  00050	0f 57 c9	 xorps	 xmm1, xmm1
  00053	f3 0f 2a c8	 cvtsi2ss xmm1, eax
  00057	8b 01		 mov	 eax, DWORD PTR [ecx]
  00059	f3 0f 11 44 24
	04		 movss	 DWORD PTR [esp+4], xmm0
  0005f	f3 0f 11 45 fc	 movss	 DWORD PTR tv273[ebp], xmm0
  00064	f3 0f 11 4d 0c	 movss	 DWORD PTR tv275[ebp], xmm1
  00069	f3 0f 11 0c 24	 movss	 DWORD PTR [esp], xmm1
  0006e	ff 10		 call	 DWORD PTR [eax]

; 1603 : 	m_pRecvIcon->Render( iXPos + 161, iYPos + 92 );

  00070	8b 8e c0 01 00
	00		 mov	 ecx, DWORD PTR [esi+448]
  00076	f3 0f 10 45 fc	 movss	 xmm0, DWORD PTR tv273[ebp]
  0007b	8b 01		 mov	 eax, DWORD PTR [ecx]
  0007d	57		 push	 edi
  0007e	57		 push	 edi
  0007f	57		 push	 edi
  00080	57		 push	 edi
  00081	51		 push	 ecx
  00082	51		 push	 ecx
  00083	f3 0f 11 44 24
	04		 movss	 DWORD PTR [esp+4], xmm0
  00089	f3 0f 10 45 0c	 movss	 xmm0, DWORD PTR tv275[ebp]
  0008e	f3 0f 11 04 24	 movss	 DWORD PTR [esp], xmm0
  00093	ff 10		 call	 DWORD PTR [eax]

; 1604 : 	m_pTextStateRecv->Render( iXPos + 161, iYPos + 132 );

  00095	8b 8e c4 01 00
	00		 mov	 ecx, DWORD PTR [esi+452]
  0009b	8b 01		 mov	 eax, DWORD PTR [ecx]
  0009d	57		 push	 edi
  0009e	57		 push	 edi
  0009f	57		 push	 edi
  000a0	57		 push	 edi
  000a1	51		 push	 ecx
  000a2	8d 93 84 00 00
	00		 lea	 edx, DWORD PTR [ebx+132]
  000a8	0f 57 c0	 xorps	 xmm0, xmm0
  000ab	51		 push	 ecx
  000ac	f3 0f 2a c2	 cvtsi2ss xmm0, edx
  000b0	f3 0f 11 44 24
	04		 movss	 DWORD PTR [esp+4], xmm0
  000b6	f3 0f 10 45 0c	 movss	 xmm0, DWORD PTR tv275[ebp]
  000bb	f3 0f 11 04 24	 movss	 DWORD PTR [esp], xmm0
  000c0	ff 10		 call	 DWORD PTR [eax]

; 1605 : 
; 1606 : 	g_FontMgr.SetTextStyle( TS_OUTLINE_FULL_2X );

  000c2	8b 35 00 00 00
	00		 mov	 esi, DWORD PTR __imp_?GetSingleton@ioFontManager@@SAAAV1@XZ
  000c8	6a 05		 push	 5
  000ca	ff d6		 call	 esi
  000cc	8b c8		 mov	 ecx, eax
  000ce	ff 15 00 00 00
	00		 call	 DWORD PTR __imp_?SetTextStyle@ioFontManager@@QAEXW4TextStyle@@@Z

; 1607 : 	g_FontMgr.SetAlignType( TAT_CENTER );

  000d4	6a 01		 push	 1
  000d6	ff d6		 call	 esi
  000d8	8b c8		 mov	 ecx, eax
  000da	ff 15 00 00 00
	00		 call	 DWORD PTR __imp_?SetAlignType@ioFontManager@@QAEXW4TextAlignType@@@Z

; 1608 : 	g_FontMgr.SetBkColor( 0, 0, 0 );

  000e0	57		 push	 edi
  000e1	57		 push	 edi
  000e2	57		 push	 edi
  000e3	ff d6		 call	 esi
  000e5	8b c8		 mov	 ecx, eax
  000e7	ff 15 00 00 00
	00		 call	 DWORD PTR __imp_?SetBkColor@ioFontManager@@QAEXHHH@Z

; 1609 : 	g_FontMgr.SetTextColor( TCT_DEFAULT_GRAY );

  000ed	68 6e 6e 6e ff	 push	 -9539986		; ff6e6e6eH
  000f2	ff d6		 call	 esi
  000f4	8b c8		 mov	 ecx, eax
  000f6	ff 15 00 00 00
	00		 call	 DWORD PTR __imp_?SetTextColor@ioFontManager@@QAEXK@Z

; 1610 : 	g_FontMgr.PrintText( iXPos + 161, iYPos + 168, FONT_SIZE_13, STR(1) );

  000fc	57		 push	 edi
  000fd	6a 01		 push	 1
  000ff	68 00 00 00 00	 push	 OFFSET ??_C@_00CNPNBAHC@?$AA@
  00104	68 00 00 00 00	 push	 OFFSET ??_C@_0CK@CJEBFJAK@OneDayGoldItemEventWnd?3?3OnStateR@
  00109	ff 15 00 00 00
	00		 call	 DWORD PTR __imp_?GetSingleton@ioStringManager@@SAAAV1@XZ
  0010f	8b c8		 mov	 ecx, eax
  00111	ff 15 00 00 00
	00		 call	 DWORD PTR __imp_?GetString@ioStringManager@@QAEPADPBD0HW4FileNamePrefix@1@@Z
  00117	f3 0f 10 05 00
	00 00 00	 movss	 xmm0, DWORD PTR __real@3f266666
  0011f	50		 push	 eax
  00120	83 ec 0c	 sub	 esp, 12			; 0000000cH
  00123	f3 0f 11 44 24
	08		 movss	 DWORD PTR [esp+8], xmm0
  00129	8d 83 a8 00 00
	00		 lea	 eax, DWORD PTR [ebx+168]
  0012f	0f 57 c0	 xorps	 xmm0, xmm0
  00132	f3 0f 2a c0	 cvtsi2ss xmm0, eax
  00136	f3 0f 11 44 24
	04		 movss	 DWORD PTR [esp+4], xmm0
  0013c	f3 0f 10 45 0c	 movss	 xmm0, DWORD PTR tv275[ebp]
  00141	f3 0f 11 04 24	 movss	 DWORD PTR [esp], xmm0
  00146	ff d6		 call	 esi
  00148	50		 push	 eax
  00149	ff 15 00 00 00
	00		 call	 DWORD PTR __imp_?PrintText@ioFontManager@@QAAXMMMPBDZZ
  0014f	83 c4 14	 add	 esp, 20			; 00000014H

; 1611 : 	g_FontMgr.PrintText( iXPos + 161, iYPos + 190, FONT_SIZE_13, STR(2) );

  00152	57		 push	 edi
  00153	6a 02		 push	 2
  00155	68 00 00 00 00	 push	 OFFSET ??_C@_00CNPNBAHC@?$AA@
  0015a	68 00 00 00 00	 push	 OFFSET ??_C@_0CK@CJEBFJAK@OneDayGoldItemEventWnd?3?3OnStateR@
  0015f	ff 15 00 00 00
	00		 call	 DWORD PTR __imp_?GetSingleton@ioStringManager@@SAAAV1@XZ
  00165	8b c8		 mov	 ecx, eax
  00167	ff 15 00 00 00
	00		 call	 DWORD PTR __imp_?GetString@ioStringManager@@QAEPADPBD0HW4FileNamePrefix@1@@Z
  0016d	f3 0f 10 05 00
	00 00 00	 movss	 xmm0, DWORD PTR __real@3f266666
  00175	50		 push	 eax
  00176	83 ec 0c	 sub	 esp, 12			; 0000000cH
  00179	f3 0f 11 44 24
	08		 movss	 DWORD PTR [esp+8], xmm0
  0017f	8d 83 be 00 00
	00		 lea	 eax, DWORD PTR [ebx+190]
  00185	0f 57 c0	 xorps	 xmm0, xmm0
  00188	f3 0f 2a c0	 cvtsi2ss xmm0, eax
  0018c	f3 0f 11 44 24
	04		 movss	 DWORD PTR [esp+4], xmm0
  00192	f3 0f 10 45 0c	 movss	 xmm0, DWORD PTR tv275[ebp]
  00197	f3 0f 11 04 24	 movss	 DWORD PTR [esp], xmm0
  0019c	ff d6		 call	 esi
  0019e	50		 push	 eax
  0019f	ff 15 00 00 00
	00		 call	 DWORD PTR __imp_?PrintText@ioFontManager@@QAAXMMMPBDZZ
  001a5	83 c4 14	 add	 esp, 20			; 00000014H

; 1612 : 
; 1613 : 	g_FontMgr.SetTextColor( TCT_DEFAULT_DARKGRAY );

  001a8	68 3a 3a 3a ff	 push	 -12961222		; ff3a3a3aH
  001ad	ff d6		 call	 esi
  001af	8b c8		 mov	 ecx, eax
  001b1	ff 15 00 00 00
	00		 call	 DWORD PTR __imp_?SetTextColor@ioFontManager@@QAEXK@Z

; 1614 : 	g_FontMgr.PrintText( iXPos + 161, iYPos + 212, FONT_SIZE_13, STR(3) );

  001b7	57		 push	 edi
  001b8	6a 03		 push	 3
  001ba	68 00 00 00 00	 push	 OFFSET ??_C@_00CNPNBAHC@?$AA@
  001bf	68 00 00 00 00	 push	 OFFSET ??_C@_0CK@CJEBFJAK@OneDayGoldItemEventWnd?3?3OnStateR@
  001c4	ff 15 00 00 00
	00		 call	 DWORD PTR __imp_?GetSingleton@ioStringManager@@SAAAV1@XZ
  001ca	8b c8		 mov	 ecx, eax
  001cc	ff 15 00 00 00
	00		 call	 DWORD PTR __imp_?GetString@ioStringManager@@QAEPADPBD0HW4FileNamePrefix@1@@Z
  001d2	f3 0f 10 05 00
	00 00 00	 movss	 xmm0, DWORD PTR __real@3f266666
  001da	50		 push	 eax
  001db	83 ec 0c	 sub	 esp, 12			; 0000000cH
  001de	f3 0f 11 44 24
	08		 movss	 DWORD PTR [esp+8], xmm0
  001e4	0f 57 c0	 xorps	 xmm0, xmm0
  001e7	81 c3 d4 00 00
	00		 add	 ebx, 212		; 000000d4H
  001ed	f3 0f 2a c3	 cvtsi2ss xmm0, ebx
  001f1	f3 0f 11 44 24
	04		 movss	 DWORD PTR [esp+4], xmm0
  001f7	f3 0f 10 45 0c	 movss	 xmm0, DWORD PTR tv275[ebp]
  001fc	f3 0f 11 04 24	 movss	 DWORD PTR [esp], xmm0
  00201	ff d6		 call	 esi
  00203	50		 push	 eax
  00204	ff 15 00 00 00
	00		 call	 DWORD PTR __imp_?PrintText@ioFontManager@@QAAXMMMPBDZZ
  0020a	83 c4 14	 add	 esp, 20			; 00000014H
  0020d	5b		 pop	 ebx
$LN1@OnStateRec:
  0020e	5f		 pop	 edi
  0020f	5e		 pop	 esi

; 1615 : }

  00210	c9		 leave
  00211	c2 08 00	 ret	 8
?OnStateRecvRender@OneDayGoldItemEventWnd@@IAEXHH@Z ENDP ; OneDayGoldItemEventWnd::OnStateRecvRender
_TEXT	ENDS
PUBLIC	??_C@_0CN@OHFMBDMF@OneDayGoldItemEventWnd?3?3OnStateR@ ; `string'
PUBLIC	?OnStateRollingRender@OneDayGoldItemEventWnd@@IAEXHH@Z ; OneDayGoldItemEventWnd::OnStateRollingRender
;	COMDAT ??_C@_0CN@OHFMBDMF@OneDayGoldItemEventWnd?3?3OnStateR@
CONST	SEGMENT
??_C@_0CN@OHFMBDMF@OneDayGoldItemEventWnd?3?3OnStateR@ DB 'OneDayGoldItem'
	DB	'EventWnd::OnStateRollingRender', 00H	; `string'
; Function compile flags: /Ogsp
CONST	ENDS
;	COMDAT ?OnStateRollingRender@OneDayGoldItemEventWnd@@IAEXHH@Z
_TEXT	SEGMENT
tv273 = -4						; size = 4
_iXPos$ = 8						; size = 4
tv275 = 12						; size = 4
_iYPos$ = 12						; size = 4
?OnStateRollingRender@OneDayGoldItemEventWnd@@IAEXHH@Z PROC ; OneDayGoldItemEventWnd::OnStateRollingRender, COMDAT
; _this$ = ecx

; 1618 : {

  00000	55		 push	 ebp
  00001	8b ec		 mov	 ebp, esp
  00003	51		 push	 ecx
  00004	56		 push	 esi
  00005	57		 push	 edi
  00006	8b f1		 mov	 esi, ecx

; 1619 : 	if( !m_pBackRedLight || !m_pRollingIcon || !m_pTextStateRolling ) return;

  00008	33 ff		 xor	 edi, edi
  0000a	39 be b8 01 00
	00		 cmp	 DWORD PTR [esi+440], edi
  00010	0f 84 f8 01 00
	00		 je	 $LN1@OnStateRol
  00016	39 be d4 01 00
	00		 cmp	 DWORD PTR [esi+468], edi
  0001c	0f 84 ec 01 00
	00		 je	 $LN1@OnStateRol
  00022	39 be c8 01 00
	00		 cmp	 DWORD PTR [esi+456], edi
  00028	0f 84 e0 01 00
	00		 je	 $LN1@OnStateRol

; 1620 : 
; 1621 : 	m_pBackRedLight->Render( iXPos + 161, iYPos + 92 );

  0002e	8b 8e b8 01 00
	00		 mov	 ecx, DWORD PTR [esi+440]
  00034	53		 push	 ebx
  00035	8b 5d 0c	 mov	 ebx, DWORD PTR _iYPos$[ebp]
  00038	57		 push	 edi
  00039	57		 push	 edi
  0003a	57		 push	 edi
  0003b	8d 43 5c	 lea	 eax, DWORD PTR [ebx+92]
  0003e	0f 57 c0	 xorps	 xmm0, xmm0
  00041	f3 0f 2a c0	 cvtsi2ss xmm0, eax
  00045	8b 45 08	 mov	 eax, DWORD PTR _iXPos$[ebp]
  00048	57		 push	 edi
  00049	05 a1 00 00 00	 add	 eax, 161		; 000000a1H
  0004e	51		 push	 ecx
  0004f	51		 push	 ecx
  00050	0f 57 c9	 xorps	 xmm1, xmm1
  00053	f3 0f 2a c8	 cvtsi2ss xmm1, eax
  00057	8b 01		 mov	 eax, DWORD PTR [ecx]
  00059	f3 0f 11 44 24
	04		 movss	 DWORD PTR [esp+4], xmm0
  0005f	f3 0f 11 45 fc	 movss	 DWORD PTR tv273[ebp], xmm0
  00064	f3 0f 11 4d 0c	 movss	 DWORD PTR tv275[ebp], xmm1
  00069	f3 0f 11 0c 24	 movss	 DWORD PTR [esp], xmm1
  0006e	ff 10		 call	 DWORD PTR [eax]

; 1622 : 	m_pRollingIcon->Render( iXPos + 161, iYPos + 92 );

  00070	8b 8e d4 01 00
	00		 mov	 ecx, DWORD PTR [esi+468]
  00076	f3 0f 10 45 fc	 movss	 xmm0, DWORD PTR tv273[ebp]
  0007b	8b 01		 mov	 eax, DWORD PTR [ecx]
  0007d	57		 push	 edi
  0007e	57		 push	 edi
  0007f	57		 push	 edi
  00080	57		 push	 edi
  00081	51		 push	 ecx
  00082	51		 push	 ecx
  00083	f3 0f 11 44 24
	04		 movss	 DWORD PTR [esp+4], xmm0
  00089	f3 0f 10 45 0c	 movss	 xmm0, DWORD PTR tv275[ebp]
  0008e	f3 0f 11 04 24	 movss	 DWORD PTR [esp], xmm0
  00093	ff 10		 call	 DWORD PTR [eax]

; 1623 : 	m_pTextStateRolling->Render( iXPos + 161, iYPos + 132 );

  00095	8b 8e c8 01 00
	00		 mov	 ecx, DWORD PTR [esi+456]
  0009b	8b 01		 mov	 eax, DWORD PTR [ecx]
  0009d	57		 push	 edi
  0009e	57		 push	 edi
  0009f	57		 push	 edi
  000a0	57		 push	 edi
  000a1	51		 push	 ecx
  000a2	8d 93 84 00 00
	00		 lea	 edx, DWORD PTR [ebx+132]
  000a8	0f 57 c0	 xorps	 xmm0, xmm0
  000ab	51		 push	 ecx
  000ac	f3 0f 2a c2	 cvtsi2ss xmm0, edx
  000b0	f3 0f 11 44 24
	04		 movss	 DWORD PTR [esp+4], xmm0
  000b6	f3 0f 10 45 0c	 movss	 xmm0, DWORD PTR tv275[ebp]
  000bb	f3 0f 11 04 24	 movss	 DWORD PTR [esp], xmm0
  000c0	ff 10		 call	 DWORD PTR [eax]

; 1624 : 
; 1625 : 	g_FontMgr.SetTextStyle( TS_OUTLINE_FULL_2X );

  000c2	8b 35 00 00 00
	00		 mov	 esi, DWORD PTR __imp_?GetSingleton@ioFontManager@@SAAAV1@XZ
  000c8	6a 05		 push	 5
  000ca	ff d6		 call	 esi
  000cc	8b c8		 mov	 ecx, eax
  000ce	ff 15 00 00 00
	00		 call	 DWORD PTR __imp_?SetTextStyle@ioFontManager@@QAEXW4TextStyle@@@Z

; 1626 : 	g_FontMgr.SetAlignType( TAT_CENTER );

  000d4	6a 01		 push	 1
  000d6	ff d6		 call	 esi
  000d8	8b c8		 mov	 ecx, eax
  000da	ff 15 00 00 00
	00		 call	 DWORD PTR __imp_?SetAlignType@ioFontManager@@QAEXW4TextAlignType@@@Z

; 1627 : 	g_FontMgr.SetBkColor( 0, 0, 0 );

  000e0	57		 push	 edi
  000e1	57		 push	 edi
  000e2	57		 push	 edi
  000e3	ff d6		 call	 esi
  000e5	8b c8		 mov	 ecx, eax
  000e7	ff 15 00 00 00
	00		 call	 DWORD PTR __imp_?SetBkColor@ioFontManager@@QAEXHHH@Z

; 1628 : 	g_FontMgr.SetTextColor( TCT_DEFAULT_GRAY );

  000ed	68 6e 6e 6e ff	 push	 -9539986		; ff6e6e6eH
  000f2	ff d6		 call	 esi
  000f4	8b c8		 mov	 ecx, eax
  000f6	ff 15 00 00 00
	00		 call	 DWORD PTR __imp_?SetTextColor@ioFontManager@@QAEXK@Z

; 1629 : 	g_FontMgr.PrintText( iXPos + 161, iYPos + 168, FONT_SIZE_13, STR(1) );

  000fc	57		 push	 edi
  000fd	6a 01		 push	 1
  000ff	68 00 00 00 00	 push	 OFFSET ??_C@_00CNPNBAHC@?$AA@
  00104	68 00 00 00 00	 push	 OFFSET ??_C@_0CN@OHFMBDMF@OneDayGoldItemEventWnd?3?3OnStateR@
  00109	ff 15 00 00 00
	00		 call	 DWORD PTR __imp_?GetSingleton@ioStringManager@@SAAAV1@XZ
  0010f	8b c8		 mov	 ecx, eax
  00111	ff 15 00 00 00
	00		 call	 DWORD PTR __imp_?GetString@ioStringManager@@QAEPADPBD0HW4FileNamePrefix@1@@Z
  00117	f3 0f 10 05 00
	00 00 00	 movss	 xmm0, DWORD PTR __real@3f266666
  0011f	50		 push	 eax
  00120	83 ec 0c	 sub	 esp, 12			; 0000000cH
  00123	f3 0f 11 44 24
	08		 movss	 DWORD PTR [esp+8], xmm0
  00129	8d 83 a8 00 00
	00		 lea	 eax, DWORD PTR [ebx+168]
  0012f	0f 57 c0	 xorps	 xmm0, xmm0
  00132	f3 0f 2a c0	 cvtsi2ss xmm0, eax
  00136	f3 0f 11 44 24
	04		 movss	 DWORD PTR [esp+4], xmm0
  0013c	f3 0f 10 45 0c	 movss	 xmm0, DWORD PTR tv275[ebp]
  00141	f3 0f 11 04 24	 movss	 DWORD PTR [esp], xmm0
  00146	ff d6		 call	 esi
  00148	50		 push	 eax
  00149	ff 15 00 00 00
	00		 call	 DWORD PTR __imp_?PrintText@ioFontManager@@QAAXMMMPBDZZ
  0014f	83 c4 14	 add	 esp, 20			; 00000014H

; 1630 : 	g_FontMgr.PrintText( iXPos + 161, iYPos + 190, FONT_SIZE_13, STR(2) );

  00152	57		 push	 edi
  00153	6a 02		 push	 2
  00155	68 00 00 00 00	 push	 OFFSET ??_C@_00CNPNBAHC@?$AA@
  0015a	68 00 00 00 00	 push	 OFFSET ??_C@_0CN@OHFMBDMF@OneDayGoldItemEventWnd?3?3OnStateR@
  0015f	ff 15 00 00 00
	00		 call	 DWORD PTR __imp_?GetSingleton@ioStringManager@@SAAAV1@XZ
  00165	8b c8		 mov	 ecx, eax
  00167	ff 15 00 00 00
	00		 call	 DWORD PTR __imp_?GetString@ioStringManager@@QAEPADPBD0HW4FileNamePrefix@1@@Z
  0016d	f3 0f 10 05 00
	00 00 00	 movss	 xmm0, DWORD PTR __real@3f266666
  00175	50		 push	 eax
  00176	83 ec 0c	 sub	 esp, 12			; 0000000cH
  00179	f3 0f 11 44 24
	08		 movss	 DWORD PTR [esp+8], xmm0
  0017f	8d 83 be 00 00
	00		 lea	 eax, DWORD PTR [ebx+190]
  00185	0f 57 c0	 xorps	 xmm0, xmm0
  00188	f3 0f 2a c0	 cvtsi2ss xmm0, eax
  0018c	f3 0f 11 44 24
	04		 movss	 DWORD PTR [esp+4], xmm0
  00192	f3 0f 10 45 0c	 movss	 xmm0, DWORD PTR tv275[ebp]
  00197	f3 0f 11 04 24	 movss	 DWORD PTR [esp], xmm0
  0019c	ff d6		 call	 esi
  0019e	50		 push	 eax
  0019f	ff 15 00 00 00
	00		 call	 DWORD PTR __imp_?PrintText@ioFontManager@@QAAXMMMPBDZZ
  001a5	83 c4 14	 add	 esp, 20			; 00000014H

; 1631 : 
; 1632 : 	g_FontMgr.SetTextColor( TCT_DEFAULT_DARKGRAY );

  001a8	68 3a 3a 3a ff	 push	 -12961222		; ff3a3a3aH
  001ad	ff d6		 call	 esi
  001af	8b c8		 mov	 ecx, eax
  001b1	ff 15 00 00 00
	00		 call	 DWORD PTR __imp_?SetTextColor@ioFontManager@@QAEXK@Z

; 1633 : 	g_FontMgr.PrintText( iXPos + 161, iYPos + 212, FONT_SIZE_13, STR(3) );

  001b7	57		 push	 edi
  001b8	6a 03		 push	 3
  001ba	68 00 00 00 00	 push	 OFFSET ??_C@_00CNPNBAHC@?$AA@
  001bf	68 00 00 00 00	 push	 OFFSET ??_C@_0CN@OHFMBDMF@OneDayGoldItemEventWnd?3?3OnStateR@
  001c4	ff 15 00 00 00
	00		 call	 DWORD PTR __imp_?GetSingleton@ioStringManager@@SAAAV1@XZ
  001ca	8b c8		 mov	 ecx, eax
  001cc	ff 15 00 00 00
	00		 call	 DWORD PTR __imp_?GetString@ioStringManager@@QAEPADPBD0HW4FileNamePrefix@1@@Z
  001d2	f3 0f 10 05 00
	00 00 00	 movss	 xmm0, DWORD PTR __real@3f266666
  001da	50		 push	 eax
  001db	83 ec 0c	 sub	 esp, 12			; 0000000cH
  001de	f3 0f 11 44 24
	08		 movss	 DWORD PTR [esp+8], xmm0
  001e4	0f 57 c0	 xorps	 xmm0, xmm0
  001e7	81 c3 d4 00 00
	00		 add	 ebx, 212		; 000000d4H
  001ed	f3 0f 2a c3	 cvtsi2ss xmm0, ebx
  001f1	f3 0f 11 44 24
	04		 movss	 DWORD PTR [esp+4], xmm0
  001f7	f3 0f 10 45 0c	 movss	 xmm0, DWORD PTR tv275[ebp]
  001fc	f3 0f 11 04 24	 movss	 DWORD PTR [esp], xmm0
  00201	ff d6		 call	 esi
  00203	50		 push	 eax
  00204	ff 15 00 00 00
	00		 call	 DWORD PTR __imp_?PrintText@ioFontManager@@QAAXMMMPBDZZ
  0020a	83 c4 14	 add	 esp, 20			; 00000014H
  0020d	5b		 pop	 ebx
$LN1@OnStateRol:
  0020e	5f		 pop	 edi
  0020f	5e		 pop	 esi

; 1634 : }

  00210	c9		 leave
  00211	c2 08 00	 ret	 8
?OnStateRollingRender@OneDayGoldItemEventWnd@@IAEXHH@Z ENDP ; OneDayGoldItemEventWnd::OnStateRollingRender
_TEXT	ENDS
PUBLIC	??_C@_0CO@KAGJJOEM@OneDayGoldItemEventWnd?3?3OnStateC@ ; `string'
PUBLIC	?OnStateCompleteRender@OneDayGoldItemEventWnd@@IAEXHH@Z ; OneDayGoldItemEventWnd::OnStateCompleteRender
EXTRN	__imp_?PrintText@ioFontManager@@QAEXMMMPBD00@Z:PROC
EXTRN	?GetPresentValue1Text@ioPresentMgr@@QAEABVioHashString@@FHH@Z:PROC ; ioPresentMgr::GetPresentValue1Text
EXTRN	__imp_?c_str@ioHashString@@QBEPBDXZ:PROC
EXTRN	?GetPresentValue2Text@ioPresentMgr@@QAEABVioHashString@@FHH@Z:PROC ; ioPresentMgr::GetPresentValue2Text
EXTRN	?GetSingleton@ioPresentMgr@@SAAAV1@XZ:PROC	; ioPresentMgr::GetSingleton
;	COMDAT ??_C@_0CO@KAGJJOEM@OneDayGoldItemEventWnd?3?3OnStateC@
CONST	SEGMENT
??_C@_0CO@KAGJJOEM@OneDayGoldItemEventWnd?3?3OnStateC@ DB 'OneDayGoldItem'
	DB	'EventWnd::OnStateCompleteRender', 00H	; `string'
; Function compile flags: /Ogsp
CONST	ENDS
;	COMDAT ?OnStateCompleteRender@OneDayGoldItemEventWnd@@IAEXHH@Z
_TEXT	SEGMENT
tv305 = -4						; size = 4
tv307 = 8						; size = 4
_iXPos$ = 8						; size = 4
_iYPos$ = 12						; size = 4
?OnStateCompleteRender@OneDayGoldItemEventWnd@@IAEXHH@Z PROC ; OneDayGoldItemEventWnd::OnStateCompleteRender, COMDAT
; _this$ = ecx

; 1637 : {

  00000	55		 push	 ebp
  00001	8b ec		 mov	 ebp, esp
  00003	51		 push	 ecx
  00004	53		 push	 ebx
  00005	57		 push	 edi
  00006	8b f9		 mov	 edi, ecx

; 1638 : 	if( !m_pBackBlueLight || !m_pPresentIcon || !m_pTextStateComplete ) return;

  00008	33 db		 xor	 ebx, ebx
  0000a	39 9f bc 01 00
	00		 cmp	 DWORD PTR [edi+444], ebx
  00010	0f 84 4d 02 00
	00		 je	 $LN1@OnStateCom
  00016	39 9f d0 01 00
	00		 cmp	 DWORD PTR [edi+464], ebx
  0001c	0f 84 41 02 00
	00		 je	 $LN1@OnStateCom
  00022	39 9f cc 01 00
	00		 cmp	 DWORD PTR [edi+460], ebx
  00028	0f 84 35 02 00
	00		 je	 $LN1@OnStateCom

; 1639 : 
; 1640 : 	m_pBackBlueLight->Render( iXPos + 161, iYPos + 92 );

  0002e	8b 8f bc 01 00
	00		 mov	 ecx, DWORD PTR [edi+444]
  00034	56		 push	 esi
  00035	8b 75 0c	 mov	 esi, DWORD PTR _iYPos$[ebp]
  00038	53		 push	 ebx
  00039	53		 push	 ebx
  0003a	53		 push	 ebx
  0003b	8d 46 5c	 lea	 eax, DWORD PTR [esi+92]
  0003e	0f 57 c0	 xorps	 xmm0, xmm0
  00041	f3 0f 2a c0	 cvtsi2ss xmm0, eax
  00045	8b 45 08	 mov	 eax, DWORD PTR _iXPos$[ebp]
  00048	53		 push	 ebx
  00049	05 a1 00 00 00	 add	 eax, 161		; 000000a1H
  0004e	51		 push	 ecx
  0004f	51		 push	 ecx
  00050	0f 57 c9	 xorps	 xmm1, xmm1
  00053	f3 0f 2a c8	 cvtsi2ss xmm1, eax
  00057	8b 01		 mov	 eax, DWORD PTR [ecx]
  00059	f3 0f 11 44 24
	04		 movss	 DWORD PTR [esp+4], xmm0
  0005f	f3 0f 11 45 fc	 movss	 DWORD PTR tv305[ebp], xmm0
  00064	f3 0f 11 4d 08	 movss	 DWORD PTR tv307[ebp], xmm1
  00069	f3 0f 11 0c 24	 movss	 DWORD PTR [esp], xmm1
  0006e	ff 10		 call	 DWORD PTR [eax]

; 1641 : 	m_pPresentIcon->Render( iXPos + 161, iYPos + 92, UI_RENDER_NORMAL, TFO_BILINEAR );

  00070	8b 8f d0 01 00
	00		 mov	 ecx, DWORD PTR [edi+464]
  00076	f3 0f 10 45 fc	 movss	 xmm0, DWORD PTR tv305[ebp]
  0007b	8b 01		 mov	 eax, DWORD PTR [ecx]
  0007d	53		 push	 ebx
  0007e	53		 push	 ebx
  0007f	6a 01		 push	 1
  00081	53		 push	 ebx
  00082	51		 push	 ecx
  00083	51		 push	 ecx
  00084	f3 0f 11 44 24
	04		 movss	 DWORD PTR [esp+4], xmm0
  0008a	f3 0f 10 45 08	 movss	 xmm0, DWORD PTR tv307[ebp]
  0008f	f3 0f 11 04 24	 movss	 DWORD PTR [esp], xmm0
  00094	ff 10		 call	 DWORD PTR [eax]

; 1642 : 	m_pTextStateComplete->Render( iXPos + 161, iYPos + 132 );

  00096	8b 8f cc 01 00
	00		 mov	 ecx, DWORD PTR [edi+460]
  0009c	8b 01		 mov	 eax, DWORD PTR [ecx]
  0009e	53		 push	 ebx
  0009f	53		 push	 ebx
  000a0	53		 push	 ebx
  000a1	53		 push	 ebx
  000a2	51		 push	 ecx
  000a3	0f 57 c0	 xorps	 xmm0, xmm0
  000a6	51		 push	 ecx
  000a7	81 c6 84 00 00
	00		 add	 esi, 132		; 00000084H
  000ad	f3 0f 2a c6	 cvtsi2ss xmm0, esi
  000b1	f3 0f 11 44 24
	04		 movss	 DWORD PTR [esp+4], xmm0
  000b7	f3 0f 10 45 08	 movss	 xmm0, DWORD PTR tv307[ebp]
  000bc	f3 0f 11 04 24	 movss	 DWORD PTR [esp], xmm0
  000c1	ff 10		 call	 DWORD PTR [eax]

; 1643 : 
; 1644 : 	g_FontMgr.SetTextStyle( TS_OUTLINE_FULL_2X );

  000c3	8b 35 00 00 00
	00		 mov	 esi, DWORD PTR __imp_?GetSingleton@ioFontManager@@SAAAV1@XZ
  000c9	6a 05		 push	 5
  000cb	ff d6		 call	 esi
  000cd	8b c8		 mov	 ecx, eax
  000cf	ff 15 00 00 00
	00		 call	 DWORD PTR __imp_?SetTextStyle@ioFontManager@@QAEXW4TextStyle@@@Z

; 1645 : 	g_FontMgr.SetAlignType( TAT_CENTER );

  000d5	6a 01		 push	 1
  000d7	ff d6		 call	 esi
  000d9	8b c8		 mov	 ecx, eax
  000db	ff 15 00 00 00
	00		 call	 DWORD PTR __imp_?SetAlignType@ioFontManager@@QAEXW4TextAlignType@@@Z

; 1646 : 	g_FontMgr.SetBkColor( 0, 0, 0 );

  000e1	53		 push	 ebx
  000e2	53		 push	 ebx
  000e3	53		 push	 ebx
  000e4	ff d6		 call	 esi
  000e6	8b c8		 mov	 ecx, eax
  000e8	ff 15 00 00 00
	00		 call	 DWORD PTR __imp_?SetBkColor@ioFontManager@@QAEXHHH@Z

; 1647 : 	g_FontMgr.SetTextColor( TCT_DEFAULT_GRAY );

  000ee	68 6e 6e 6e ff	 push	 -9539986		; ff6e6e6eH
  000f3	ff d6		 call	 esi
  000f5	8b c8		 mov	 ecx, eax
  000f7	ff 15 00 00 00
	00		 call	 DWORD PTR __imp_?SetTextColor@ioFontManager@@QAEXK@Z

; 1648 : 	g_FontMgr.PrintText( iXPos + 161, iYPos + 168, FONT_SIZE_13, STR(1) );

  000fd	53		 push	 ebx
  000fe	6a 01		 push	 1
  00100	68 00 00 00 00	 push	 OFFSET ??_C@_00CNPNBAHC@?$AA@
  00105	68 00 00 00 00	 push	 OFFSET ??_C@_0CO@KAGJJOEM@OneDayGoldItemEventWnd?3?3OnStateC@
  0010a	ff 15 00 00 00
	00		 call	 DWORD PTR __imp_?GetSingleton@ioStringManager@@SAAAV1@XZ
  00110	8b c8		 mov	 ecx, eax
  00112	ff 15 00 00 00
	00		 call	 DWORD PTR __imp_?GetString@ioStringManager@@QAEPADPBD0HW4FileNamePrefix@1@@Z
  00118	f3 0f 10 05 00
	00 00 00	 movss	 xmm0, DWORD PTR __real@3f266666
  00120	50		 push	 eax
  00121	8b 45 0c	 mov	 eax, DWORD PTR _iYPos$[ebp]
  00124	83 ec 0c	 sub	 esp, 12			; 0000000cH
  00127	f3 0f 11 44 24
	08		 movss	 DWORD PTR [esp+8], xmm0
  0012d	05 a8 00 00 00	 add	 eax, 168		; 000000a8H
  00132	0f 57 c0	 xorps	 xmm0, xmm0
  00135	f3 0f 2a c0	 cvtsi2ss xmm0, eax
  00139	f3 0f 11 44 24
	04		 movss	 DWORD PTR [esp+4], xmm0
  0013f	f3 0f 10 45 08	 movss	 xmm0, DWORD PTR tv307[ebp]
  00144	f3 0f 11 04 24	 movss	 DWORD PTR [esp], xmm0
  00149	ff d6		 call	 esi
  0014b	50		 push	 eax
  0014c	ff 15 00 00 00
	00		 call	 DWORD PTR __imp_?PrintText@ioFontManager@@QAAXMMMPBDZZ

; 1649 : 	g_FontMgr.PrintText( iXPos + 161, iYPos + 190, FONT_SIZE_13, STR(2), g_PresentMgr.GetPresentValue1Text( m_iPresentType, m_iPresentValue1, m_iPresentValue2 ).c_str(),
; 1650 : 																		 g_PresentMgr.GetPresentValue2Text( m_iPresentType, m_iPresentValue1, m_iPresentValue2 ).c_str() );

  00152	0f b7 87 98 01
	00 00		 movzx	 eax, WORD PTR [edi+408]
  00159	83 c4 14	 add	 esp, 20			; 00000014H
  0015c	ff b7 a0 01 00
	00		 push	 DWORD PTR [edi+416]
  00162	ff b7 9c 01 00
	00		 push	 DWORD PTR [edi+412]
  00168	50		 push	 eax
  00169	e8 00 00 00 00	 call	 ?GetSingleton@ioPresentMgr@@SAAAV1@XZ ; ioPresentMgr::GetSingleton
  0016e	8b c8		 mov	 ecx, eax
  00170	e8 00 00 00 00	 call	 ?GetPresentValue2Text@ioPresentMgr@@QAEABVioHashString@@FHH@Z ; ioPresentMgr::GetPresentValue2Text
  00175	8b c8		 mov	 ecx, eax
  00177	ff 15 00 00 00
	00		 call	 DWORD PTR __imp_?c_str@ioHashString@@QBEPBDXZ
  0017d	50		 push	 eax
  0017e	ff b7 a0 01 00
	00		 push	 DWORD PTR [edi+416]
  00184	0f b7 87 98 01
	00 00		 movzx	 eax, WORD PTR [edi+408]
  0018b	ff b7 9c 01 00
	00		 push	 DWORD PTR [edi+412]
  00191	50		 push	 eax
  00192	e8 00 00 00 00	 call	 ?GetSingleton@ioPresentMgr@@SAAAV1@XZ ; ioPresentMgr::GetSingleton
  00197	8b c8		 mov	 ecx, eax
  00199	e8 00 00 00 00	 call	 ?GetPresentValue1Text@ioPresentMgr@@QAEABVioHashString@@FHH@Z ; ioPresentMgr::GetPresentValue1Text
  0019e	8b c8		 mov	 ecx, eax
  001a0	ff 15 00 00 00
	00		 call	 DWORD PTR __imp_?c_str@ioHashString@@QBEPBDXZ
  001a6	8b 3d 00 00 00
	00		 mov	 edi, DWORD PTR __imp_?GetSingleton@ioStringManager@@SAAAV1@XZ
  001ac	50		 push	 eax
  001ad	53		 push	 ebx
  001ae	6a 02		 push	 2
  001b0	68 00 00 00 00	 push	 OFFSET ??_C@_00CNPNBAHC@?$AA@
  001b5	68 00 00 00 00	 push	 OFFSET ??_C@_0CO@KAGJJOEM@OneDayGoldItemEventWnd?3?3OnStateC@
  001ba	ff d7		 call	 edi
  001bc	8b c8		 mov	 ecx, eax
  001be	ff 15 00 00 00
	00		 call	 DWORD PTR __imp_?GetString@ioStringManager@@QAEPADPBD0HW4FileNamePrefix@1@@Z
  001c4	f3 0f 10 05 00
	00 00 00	 movss	 xmm0, DWORD PTR __real@3f266666
  001cc	50		 push	 eax
  001cd	8b 45 0c	 mov	 eax, DWORD PTR _iYPos$[ebp]
  001d0	83 ec 0c	 sub	 esp, 12			; 0000000cH
  001d3	f3 0f 11 44 24
	08		 movss	 DWORD PTR [esp+8], xmm0
  001d9	05 be 00 00 00	 add	 eax, 190		; 000000beH
  001de	0f 57 c0	 xorps	 xmm0, xmm0
  001e1	f3 0f 2a c0	 cvtsi2ss xmm0, eax
  001e5	f3 0f 11 44 24
	04		 movss	 DWORD PTR [esp+4], xmm0
  001eb	f3 0f 10 45 08	 movss	 xmm0, DWORD PTR tv307[ebp]
  001f0	f3 0f 11 04 24	 movss	 DWORD PTR [esp], xmm0
  001f5	ff d6		 call	 esi
  001f7	8b c8		 mov	 ecx, eax
  001f9	ff 15 00 00 00
	00		 call	 DWORD PTR __imp_?PrintText@ioFontManager@@QAEXMMMPBD00@Z

; 1651 : 	g_FontMgr.SetTextColor( TCT_DEFAULT_DARKGRAY );

  001ff	68 3a 3a 3a ff	 push	 -12961222		; ff3a3a3aH
  00204	ff d6		 call	 esi
  00206	8b c8		 mov	 ecx, eax
  00208	ff 15 00 00 00
	00		 call	 DWORD PTR __imp_?SetTextColor@ioFontManager@@QAEXK@Z

; 1652 : 	g_FontMgr.PrintText( iXPos + 161, iYPos + 212, FONT_SIZE_13, STR(3) );

  0020e	53		 push	 ebx
  0020f	6a 03		 push	 3
  00211	68 00 00 00 00	 push	 OFFSET ??_C@_00CNPNBAHC@?$AA@
  00216	68 00 00 00 00	 push	 OFFSET ??_C@_0CO@KAGJJOEM@OneDayGoldItemEventWnd?3?3OnStateC@
  0021b	ff d7		 call	 edi
  0021d	8b c8		 mov	 ecx, eax
  0021f	ff 15 00 00 00
	00		 call	 DWORD PTR __imp_?GetString@ioStringManager@@QAEPADPBD0HW4FileNamePrefix@1@@Z
  00225	f3 0f 10 05 00
	00 00 00	 movss	 xmm0, DWORD PTR __real@3f266666
  0022d	50		 push	 eax
  0022e	8b 45 0c	 mov	 eax, DWORD PTR _iYPos$[ebp]
  00231	83 ec 0c	 sub	 esp, 12			; 0000000cH
  00234	f3 0f 11 44 24
	08		 movss	 DWORD PTR [esp+8], xmm0
  0023a	05 d4 00 00 00	 add	 eax, 212		; 000000d4H
  0023f	0f 57 c0	 xorps	 xmm0, xmm0
  00242	f3 0f 2a c0	 cvtsi2ss xmm0, eax
  00246	f3 0f 11 44 24
	04		 movss	 DWORD PTR [esp+4], xmm0
  0024c	f3 0f 10 45 08	 movss	 xmm0, DWORD PTR tv307[ebp]
  00251	f3 0f 11 04 24	 movss	 DWORD PTR [esp], xmm0
  00256	ff d6		 call	 esi
  00258	50		 push	 eax
  00259	ff 15 00 00 00
	00		 call	 DWORD PTR __imp_?PrintText@ioFontManager@@QAAXMMMPBDZZ
  0025f	83 c4 14	 add	 esp, 20			; 00000014H
  00262	5e		 pop	 esi
$LN1@OnStateCom:
  00263	5f		 pop	 edi
  00264	5b		 pop	 ebx

; 1653 : }

  00265	c9		 leave
  00266	c2 08 00	 ret	 8
?OnStateCompleteRender@OneDayGoldItemEventWnd@@IAEXHH@Z ENDP ; OneDayGoldItemEventWnd::OnStateCompleteRender
_TEXT	ENDS
PUBLIC	?size@?$vector@PAVioUIRenderImage@@V?$allocator@PAVioUIRenderImage@@@std@@@std@@QBEIXZ ; std::vector<ioUIRenderImage *,std::allocator<ioUIRenderImage *> >::size
; Function compile flags: /Ogsp
; File c:\program files (x86)\microsoft visual studio 10.0\vc\include\vector
;	COMDAT ?size@?$vector@PAVioUIRenderImage@@V?$allocator@PAVioUIRenderImage@@@std@@@std@@QBEIXZ
_TEXT	SEGMENT
?size@?$vector@PAVioUIRenderImage@@V?$allocator@PAVioUIRenderImage@@@std@@@std@@QBEIXZ PROC ; std::vector<ioUIRenderImage *,std::allocator<ioUIRenderImage *> >::size, COMDAT
; _this$ = ecx

; 879  : 		return (this->_Mylast - this->_Myfirst);

  00000	8b 41 04	 mov	 eax, DWORD PTR [ecx+4]
  00003	2b 01		 sub	 eax, DWORD PTR [ecx]
  00005	c1 f8 02	 sar	 eax, 2

; 880  : 		}

  00008	c3		 ret	 0
?size@?$vector@PAVioUIRenderImage@@V?$allocator@PAVioUIRenderImage@@@std@@@std@@QBEIXZ ENDP ; std::vector<ioUIRenderImage *,std::allocator<ioUIRenderImage *> >::size
_TEXT	ENDS
PUBLIC	??A?$vector@PAVioUIRenderImage@@V?$allocator@PAVioUIRenderImage@@@std@@@std@@QAEAAPAVioUIRenderImage@@I@Z ; std::vector<ioUIRenderImage *,std::allocator<ioUIRenderImage *> >::operator[]
; Function compile flags: /Ogsp
;	COMDAT ??A?$vector@PAVioUIRenderImage@@V?$allocator@PAVioUIRenderImage@@@std@@@std@@QAEAAPAVioUIRenderImage@@I@Z
_TEXT	SEGMENT
__Pos$ = 8						; size = 4
??A?$vector@PAVioUIRenderImage@@V?$allocator@PAVioUIRenderImage@@@std@@@std@@QAEAAPAVioUIRenderImage@@I@Z PROC ; std::vector<ioUIRenderImage *,std::allocator<ioUIRenderImage *> >::operator[], COMDAT
; _this$ = ecx

; 928  : 		{	// subscript mutable sequence

  00000	55		 push	 ebp
  00001	8b ec		 mov	 ebp, esp

; 929  :  #if _ITERATOR_DEBUG_LEVEL == 2
; 930  : 		if (size() <= _Pos)
; 931  : 			{	// report error
; 932  : 			_DEBUG_ERROR("vector subscript out of range");
; 933  : 			_SCL_SECURE_OUT_OF_RANGE;
; 934  : 			}
; 935  : 
; 936  :  #elif _ITERATOR_DEBUG_LEVEL == 1
; 937  : 		_SCL_SECURE_VALIDATE_RANGE(_Pos < size());
; 938  :  #endif /* _ITERATOR_DEBUG_LEVEL */
; 939  : 
; 940  : 		return (*(this->_Myfirst + _Pos));

  00003	8b 01		 mov	 eax, DWORD PTR [ecx]
  00005	8b 4d 08	 mov	 ecx, DWORD PTR __Pos$[ebp]
  00008	8d 04 88	 lea	 eax, DWORD PTR [eax+ecx*4]

; 941  : 		}

  0000b	5d		 pop	 ebp
  0000c	c2 04 00	 ret	 4
??A?$vector@PAVioUIRenderImage@@V?$allocator@PAVioUIRenderImage@@@std@@@std@@QAEAAPAVioUIRenderImage@@I@Z ENDP ; std::vector<ioUIRenderImage *,std::allocator<ioUIRenderImage *> >::operator[]
_TEXT	ENDS
PUBLIC	?GetSingleton@?$Singleton@VioEtcItemManager@@@@SAAAVioEtcItemManager@@XZ ; Singleton<ioEtcItemManager>::GetSingleton
EXTRN	?ms_Singleton@?$Singleton@VioEtcItemManager@@@@1PAVioEtcItemManager@@A:DWORD ; Singleton<ioEtcItemManager>::ms_Singleton
; Function compile flags: /Ogsp
; File d:\lost saga for developer\youtube\tutorial\source\src\io3dengine\iosingleton.h
;	COMDAT ?GetSingleton@?$Singleton@VioEtcItemManager@@@@SAAAVioEtcItemManager@@XZ
_TEXT	SEGMENT
?GetSingleton@?$Singleton@VioEtcItemManager@@@@SAAAVioEtcItemManager@@XZ PROC ; Singleton<ioEtcItemManager>::GetSingleton, COMDAT

; 42   : 		assert( ms_Singleton );
; 43   : 		return (*ms_Singleton);

  00000	a1 00 00 00 00	 mov	 eax, DWORD PTR ?ms_Singleton@?$Singleton@VioEtcItemManager@@@@1PAVioEtcItemManager@@A ; Singleton<ioEtcItemManager>::ms_Singleton

; 44   : 	}

  00005	c3		 ret	 0
?GetSingleton@?$Singleton@VioEtcItemManager@@@@SAAAVioEtcItemManager@@XZ ENDP ; Singleton<ioEtcItemManager>::GetSingleton
_TEXT	ENDS
PUBLIC	?size@?$vector@PAUtagEventInfo@@V?$allocator@PAUtagEventInfo@@@std@@@std@@QBEIXZ ; std::vector<tagEventInfo *,std::allocator<tagEventInfo *> >::size
; Function compile flags: /Ogsp
; File c:\program files (x86)\microsoft visual studio 10.0\vc\include\vector
;	COMDAT ?size@?$vector@PAUtagEventInfo@@V?$allocator@PAUtagEventInfo@@@std@@@std@@QBEIXZ
_TEXT	SEGMENT
?size@?$vector@PAUtagEventInfo@@V?$allocator@PAUtagEventInfo@@@std@@@std@@QBEIXZ PROC ; std::vector<tagEventInfo *,std::allocator<tagEventInfo *> >::size, COMDAT
; _this$ = ecx

; 879  : 		return (this->_Mylast - this->_Myfirst);

  00000	8b 41 04	 mov	 eax, DWORD PTR [ecx+4]
  00003	2b 01		 sub	 eax, DWORD PTR [ecx]
  00005	c1 f8 02	 sar	 eax, 2

; 880  : 		}

  00008	c3		 ret	 0
?size@?$vector@PAUtagEventInfo@@V?$allocator@PAUtagEventInfo@@@std@@@std@@QBEIXZ ENDP ; std::vector<tagEventInfo *,std::allocator<tagEventInfo *> >::size
_TEXT	ENDS
PUBLIC	??A?$vector@PAUtagEventInfo@@V?$allocator@PAUtagEventInfo@@@std@@@std@@QAEAAPAUtagEventInfo@@I@Z ; std::vector<tagEventInfo *,std::allocator<tagEventInfo *> >::operator[]
; Function compile flags: /Ogsp
;	COMDAT ??A?$vector@PAUtagEventInfo@@V?$allocator@PAUtagEventInfo@@@std@@@std@@QAEAAPAUtagEventInfo@@I@Z
_TEXT	SEGMENT
__Pos$ = 8						; size = 4
??A?$vector@PAUtagEventInfo@@V?$allocator@PAUtagEventInfo@@@std@@@std@@QAEAAPAUtagEventInfo@@I@Z PROC ; std::vector<tagEventInfo *,std::allocator<tagEventInfo *> >::operator[], COMDAT
; _this$ = ecx

; 928  : 		{	// subscript mutable sequence

  00000	55		 push	 ebp
  00001	8b ec		 mov	 ebp, esp

; 929  :  #if _ITERATOR_DEBUG_LEVEL == 2
; 930  : 		if (size() <= _Pos)
; 931  : 			{	// report error
; 932  : 			_DEBUG_ERROR("vector subscript out of range");
; 933  : 			_SCL_SECURE_OUT_OF_RANGE;
; 934  : 			}
; 935  : 
; 936  :  #elif _ITERATOR_DEBUG_LEVEL == 1
; 937  : 		_SCL_SECURE_VALIDATE_RANGE(_Pos < size());
; 938  :  #endif /* _ITERATOR_DEBUG_LEVEL */
; 939  : 
; 940  : 		return (*(this->_Myfirst + _Pos));

  00003	8b 01		 mov	 eax, DWORD PTR [ecx]
  00005	8b 4d 08	 mov	 ecx, DWORD PTR __Pos$[ebp]
  00008	8d 04 88	 lea	 eax, DWORD PTR [eax+ecx*4]

; 941  : 		}

  0000b	5d		 pop	 ebp
  0000c	c2 04 00	 ret	 4
??A?$vector@PAUtagEventInfo@@V?$allocator@PAUtagEventInfo@@@std@@@std@@QAEAAPAUtagEventInfo@@I@Z ENDP ; std::vector<tagEventInfo *,std::allocator<tagEventInfo *> >::operator[]
_TEXT	ENDS
PUBLIC	?_Inside@?$vector@PAVioUIRenderImage@@V?$allocator@PAVioUIRenderImage@@@std@@@std@@IBE_NPBQAVioUIRenderImage@@@Z ; std::vector<ioUIRenderImage *,std::allocator<ioUIRenderImage *> >::_Inside
; Function compile flags: /Ogsp
;	COMDAT ?_Inside@?$vector@PAVioUIRenderImage@@V?$allocator@PAVioUIRenderImage@@@std@@@std@@IBE_NPBQAVioUIRenderImage@@@Z
_TEXT	SEGMENT
__Ptr$ = 8						; size = 4
?_Inside@?$vector@PAVioUIRenderImage@@V?$allocator@PAVioUIRenderImage@@@std@@@std@@IBE_NPBQAVioUIRenderImage@@@Z PROC ; std::vector<ioUIRenderImage *,std::allocator<ioUIRenderImage *> >::_Inside, COMDAT
; _this$ = ecx

; 1285 : 		{	// test if _Ptr points inside vector

  00000	55		 push	 ebp
  00001	8b ec		 mov	 ebp, esp

; 1286 : 		return (_Ptr < this->_Mylast && this->_Myfirst <= _Ptr);

  00003	8b 45 08	 mov	 eax, DWORD PTR __Ptr$[ebp]
  00006	3b 41 04	 cmp	 eax, DWORD PTR [ecx+4]
  00009	73 09		 jae	 SHORT $LN3@Inside
  0000b	39 01		 cmp	 DWORD PTR [ecx], eax
  0000d	77 05		 ja	 SHORT $LN3@Inside
  0000f	33 c0		 xor	 eax, eax
  00011	40		 inc	 eax
  00012	eb 02		 jmp	 SHORT $LN4@Inside
$LN3@Inside:
  00014	33 c0		 xor	 eax, eax
$LN4@Inside:

; 1287 : 		}

  00016	5d		 pop	 ebp
  00017	c2 04 00	 ret	 4
?_Inside@?$vector@PAVioUIRenderImage@@V?$allocator@PAVioUIRenderImage@@@std@@@std@@IBE_NPBQAVioUIRenderImage@@@Z ENDP ; std::vector<ioUIRenderImage *,std::allocator<ioUIRenderImage *> >::_Inside
_TEXT	ENDS
PUBLIC	?_Orphan_range@?$vector@PAVioUIRenderImage@@V?$allocator@PAVioUIRenderImage@@@std@@@std@@IBEXPAPAVioUIRenderImage@@0@Z ; std::vector<ioUIRenderImage *,std::allocator<ioUIRenderImage *> >::_Orphan_range
; Function compile flags: /Ogsp
;	COMDAT ?_Orphan_range@?$vector@PAVioUIRenderImage@@V?$allocator@PAVioUIRenderImage@@@std@@@std@@IBEXPAPAVioUIRenderImage@@0@Z
_TEXT	SEGMENT
___formal$ = 8						; size = 4
___formal$ = 12						; size = 4
?_Orphan_range@?$vector@PAVioUIRenderImage@@V?$allocator@PAVioUIRenderImage@@@std@@@std@@IBEXPAPAVioUIRenderImage@@0@Z PROC ; std::vector<ioUIRenderImage *,std::allocator<ioUIRenderImage *> >::_Orphan_range, COMDAT
; _this$ = ecx

; 1454 : 		}

  00000	c2 08 00	 ret	 8
?_Orphan_range@?$vector@PAVioUIRenderImage@@V?$allocator@PAVioUIRenderImage@@@std@@@std@@IBEXPAPAVioUIRenderImage@@0@Z ENDP ; std::vector<ioUIRenderImage *,std::allocator<ioUIRenderImage *> >::_Orphan_range
_TEXT	ENDS
PUBLIC	??1?$_Vector_val@PAVioUIRenderImage@@V?$allocator@PAVioUIRenderImage@@@std@@@std@@QAE@XZ ; std::_Vector_val<ioUIRenderImage *,std::allocator<ioUIRenderImage *> >::~_Vector_val<ioUIRenderImage *,std::allocator<ioUIRenderImage *> >
; Function compile flags: /Ogsp
;	COMDAT ??1?$_Vector_val@PAVioUIRenderImage@@V?$allocator@PAVioUIRenderImage@@@std@@@std@@QAE@XZ
_TEXT	SEGMENT
??1?$_Vector_val@PAVioUIRenderImage@@V?$allocator@PAVioUIRenderImage@@@std@@@std@@QAE@XZ PROC ; std::_Vector_val<ioUIRenderImage *,std::allocator<ioUIRenderImage *> >::~_Vector_val<ioUIRenderImage *,std::allocator<ioUIRenderImage *> >, COMDAT
; _this$ = ecx

; 434  : 		}

  00000	c3		 ret	 0
??1?$_Vector_val@PAVioUIRenderImage@@V?$allocator@PAVioUIRenderImage@@@std@@@std@@QAE@XZ ENDP ; std::_Vector_val<ioUIRenderImage *,std::allocator<ioUIRenderImage *> >::~_Vector_val<ioUIRenderImage *,std::allocator<ioUIRenderImage *> >
_TEXT	ENDS
PUBLIC	??0?$allocator@PAVioUIRenderImage@@@std@@QAE@XZ	; std::allocator<ioUIRenderImage *>::allocator<ioUIRenderImage *>
; Function compile flags: /Ogsp
; File c:\program files (x86)\microsoft visual studio 10.0\vc\include\xmemory
;	COMDAT ??0?$allocator@PAVioUIRenderImage@@@std@@QAE@XZ
_TEXT	SEGMENT
??0?$allocator@PAVioUIRenderImage@@@std@@QAE@XZ PROC	; std::allocator<ioUIRenderImage *>::allocator<ioUIRenderImage *>, COMDAT
; _this$ = ecx

; 161  : 	_ALLOCATOR() _THROW0()

  00000	8b c1		 mov	 eax, ecx

; 162  : 		{	// construct default allocator (do nothing)
; 163  : 		}

  00002	c3		 ret	 0
??0?$allocator@PAVioUIRenderImage@@@std@@QAE@XZ ENDP	; std::allocator<ioUIRenderImage *>::allocator<ioUIRenderImage *>
_TEXT	ENDS
PUBLIC	?_Inside@?$vector@HV?$allocator@H@std@@@std@@IBE_NPBH@Z ; std::vector<int,std::allocator<int> >::_Inside
; Function compile flags: /Ogsp
; File c:\program files (x86)\microsoft visual studio 10.0\vc\include\vector
;	COMDAT ?_Inside@?$vector@HV?$allocator@H@std@@@std@@IBE_NPBH@Z
_TEXT	SEGMENT
__Ptr$ = 8						; size = 4
?_Inside@?$vector@HV?$allocator@H@std@@@std@@IBE_NPBH@Z PROC ; std::vector<int,std::allocator<int> >::_Inside, COMDAT
; _this$ = ecx

; 1285 : 		{	// test if _Ptr points inside vector

  00000	55		 push	 ebp
  00001	8b ec		 mov	 ebp, esp

; 1286 : 		return (_Ptr < this->_Mylast && this->_Myfirst <= _Ptr);

  00003	8b 45 08	 mov	 eax, DWORD PTR __Ptr$[ebp]
  00006	3b 41 04	 cmp	 eax, DWORD PTR [ecx+4]
  00009	73 09		 jae	 SHORT $LN3@Inside@2
  0000b	39 01		 cmp	 DWORD PTR [ecx], eax
  0000d	77 05		 ja	 SHORT $LN3@Inside@2
  0000f	33 c0		 xor	 eax, eax
  00011	40		 inc	 eax
  00012	eb 02		 jmp	 SHORT $LN4@Inside@2
$LN3@Inside@2:
  00014	33 c0		 xor	 eax, eax
$LN4@Inside@2:

; 1287 : 		}

  00016	5d		 pop	 ebp
  00017	c2 04 00	 ret	 4
?_Inside@?$vector@HV?$allocator@H@std@@@std@@IBE_NPBH@Z ENDP ; std::vector<int,std::allocator<int> >::_Inside
_TEXT	ENDS
PUBLIC	?_Orphan_range@?$vector@HV?$allocator@H@std@@@std@@IBEXPAH0@Z ; std::vector<int,std::allocator<int> >::_Orphan_range
; Function compile flags: /Ogsp
;	COMDAT ?_Orphan_range@?$vector@HV?$allocator@H@std@@@std@@IBEXPAH0@Z
_TEXT	SEGMENT
___formal$ = 8						; size = 4
___formal$ = 12						; size = 4
?_Orphan_range@?$vector@HV?$allocator@H@std@@@std@@IBEXPAH0@Z PROC ; std::vector<int,std::allocator<int> >::_Orphan_range, COMDAT
; _this$ = ecx

; 1454 : 		}

  00000	c2 08 00	 ret	 8
?_Orphan_range@?$vector@HV?$allocator@H@std@@@std@@IBEXPAH0@Z ENDP ; std::vector<int,std::allocator<int> >::_Orphan_range
_TEXT	ENDS
PUBLIC	?capacity@?$vector@PAUtagEventInfo@@V?$allocator@PAUtagEventInfo@@@std@@@std@@QBEIXZ ; std::vector<tagEventInfo *,std::allocator<tagEventInfo *> >::capacity
; Function compile flags: /Ogsp
;	COMDAT ?capacity@?$vector@PAUtagEventInfo@@V?$allocator@PAUtagEventInfo@@@std@@@std@@QBEIXZ
_TEXT	SEGMENT
?capacity@?$vector@PAUtagEventInfo@@V?$allocator@PAUtagEventInfo@@@std@@@std@@QBEIXZ PROC ; std::vector<tagEventInfo *,std::allocator<tagEventInfo *> >::capacity, COMDAT
; _this$ = ecx

; 777  : 		return (this->_Myend - this->_Myfirst);

  00000	8b 41 08	 mov	 eax, DWORD PTR [ecx+8]
  00003	2b 01		 sub	 eax, DWORD PTR [ecx]
  00005	c1 f8 02	 sar	 eax, 2

; 778  : 		}

  00008	c3		 ret	 0
?capacity@?$vector@PAUtagEventInfo@@V?$allocator@PAUtagEventInfo@@@std@@@std@@QBEIXZ ENDP ; std::vector<tagEventInfo *,std::allocator<tagEventInfo *> >::capacity
_TEXT	ENDS
PUBLIC	?_Inside@?$vector@PAUtagEventInfo@@V?$allocator@PAUtagEventInfo@@@std@@@std@@IBE_NPBQAUtagEventInfo@@@Z ; std::vector<tagEventInfo *,std::allocator<tagEventInfo *> >::_Inside
; Function compile flags: /Ogsp
;	COMDAT ?_Inside@?$vector@PAUtagEventInfo@@V?$allocator@PAUtagEventInfo@@@std@@@std@@IBE_NPBQAUtagEventInfo@@@Z
_TEXT	SEGMENT
__Ptr$ = 8						; size = 4
?_Inside@?$vector@PAUtagEventInfo@@V?$allocator@PAUtagEventInfo@@@std@@@std@@IBE_NPBQAUtagEventInfo@@@Z PROC ; std::vector<tagEventInfo *,std::allocator<tagEventInfo *> >::_Inside, COMDAT
; _this$ = ecx

; 1285 : 		{	// test if _Ptr points inside vector

  00000	55		 push	 ebp
  00001	8b ec		 mov	 ebp, esp

; 1286 : 		return (_Ptr < this->_Mylast && this->_Myfirst <= _Ptr);

  00003	8b 45 08	 mov	 eax, DWORD PTR __Ptr$[ebp]
  00006	3b 41 04	 cmp	 eax, DWORD PTR [ecx+4]
  00009	73 09		 jae	 SHORT $LN3@Inside@3
  0000b	39 01		 cmp	 DWORD PTR [ecx], eax
  0000d	77 05		 ja	 SHORT $LN3@Inside@3
  0000f	33 c0		 xor	 eax, eax
  00011	40		 inc	 eax
  00012	eb 02		 jmp	 SHORT $LN4@Inside@3
$LN3@Inside@3:
  00014	33 c0		 xor	 eax, eax
$LN4@Inside@3:

; 1287 : 		}

  00016	5d		 pop	 ebp
  00017	c2 04 00	 ret	 4
?_Inside@?$vector@PAUtagEventInfo@@V?$allocator@PAUtagEventInfo@@@std@@@std@@IBE_NPBQAUtagEventInfo@@@Z ENDP ; std::vector<tagEventInfo *,std::allocator<tagEventInfo *> >::_Inside
_TEXT	ENDS
PUBLIC	??_C@_0BD@OLBABOEK@vector?$DMT?$DO?5too?5long?$AA@ ; `string'
PUBLIC	?_Xlen@?$vector@PAUtagEventInfo@@V?$allocator@PAUtagEventInfo@@@std@@@std@@IBEXXZ ; std::vector<tagEventInfo *,std::allocator<tagEventInfo *> >::_Xlen
EXTRN	__imp_?_Xlength_error@std@@YAXPBD@Z:PROC
;	COMDAT ??_C@_0BD@OLBABOEK@vector?$DMT?$DO?5too?5long?$AA@
CONST	SEGMENT
??_C@_0BD@OLBABOEK@vector?$DMT?$DO?5too?5long?$AA@ DB 'vector<T> too long'
	DB	00H						; `string'
; Function compile flags: /Ogsp
CONST	ENDS
;	COMDAT ?_Xlen@?$vector@PAUtagEventInfo@@V?$allocator@PAUtagEventInfo@@@std@@@std@@IBEXXZ
_TEXT	SEGMENT
?_Xlen@?$vector@PAUtagEventInfo@@V?$allocator@PAUtagEventInfo@@@std@@@std@@IBEXXZ PROC ; std::vector<tagEventInfo *,std::allocator<tagEventInfo *> >::_Xlen, COMDAT
; _this$ = ecx

; 1427 : 		_Xlength_error("vector<T> too long");

  00000	68 00 00 00 00	 push	 OFFSET ??_C@_0BD@OLBABOEK@vector?$DMT?$DO?5too?5long?$AA@
  00005	ff 15 00 00 00
	00		 call	 DWORD PTR __imp_?_Xlength_error@std@@YAXPBD@Z
$LN4@Xlen:
$LN3@Xlen:
  0000b	cc		 int	 3
?_Xlen@?$vector@PAUtagEventInfo@@V?$allocator@PAUtagEventInfo@@@std@@@std@@IBEXXZ ENDP ; std::vector<tagEventInfo *,std::allocator<tagEventInfo *> >::_Xlen
_TEXT	ENDS
PUBLIC	?_Orphan_range@?$vector@PAUtagEventInfo@@V?$allocator@PAUtagEventInfo@@@std@@@std@@IBEXPAPAUtagEventInfo@@0@Z ; std::vector<tagEventInfo *,std::allocator<tagEventInfo *> >::_Orphan_range
; Function compile flags: /Ogsp
;	COMDAT ?_Orphan_range@?$vector@PAUtagEventInfo@@V?$allocator@PAUtagEventInfo@@@std@@@std@@IBEXPAPAUtagEventInfo@@0@Z
_TEXT	SEGMENT
___formal$ = 8						; size = 4
___formal$ = 12						; size = 4
?_Orphan_range@?$vector@PAUtagEventInfo@@V?$allocator@PAUtagEventInfo@@@std@@@std@@IBEXPAPAUtagEventInfo@@0@Z PROC ; std::vector<tagEventInfo *,std::allocator<tagEventInfo *> >::_Orphan_range, COMDAT
; _this$ = ecx

; 1454 : 		}

  00000	c2 08 00	 ret	 8
?_Orphan_range@?$vector@PAUtagEventInfo@@V?$allocator@PAUtagEventInfo@@@std@@@std@@IBEXPAPAUtagEventInfo@@0@Z ENDP ; std::vector<tagEventInfo *,std::allocator<tagEventInfo *> >::_Orphan_range
_TEXT	ENDS
PUBLIC	??1?$_Vector_val@PAUtagEventInfo@@V?$allocator@PAUtagEventInfo@@@std@@@std@@QAE@XZ ; std::_Vector_val<tagEventInfo *,std::allocator<tagEventInfo *> >::~_Vector_val<tagEventInfo *,std::allocator<tagEventInfo *> >
; Function compile flags: /Ogsp
;	COMDAT ??1?$_Vector_val@PAUtagEventInfo@@V?$allocator@PAUtagEventInfo@@@std@@@std@@QAE@XZ
_TEXT	SEGMENT
??1?$_Vector_val@PAUtagEventInfo@@V?$allocator@PAUtagEventInfo@@@std@@@std@@QAE@XZ PROC ; std::_Vector_val<tagEventInfo *,std::allocator<tagEventInfo *> >::~_Vector_val<tagEventInfo *,std::allocator<tagEventInfo *> >, COMDAT
; _this$ = ecx

; 434  : 		}

  00000	c3		 ret	 0
??1?$_Vector_val@PAUtagEventInfo@@V?$allocator@PAUtagEventInfo@@@std@@@std@@QAE@XZ ENDP ; std::_Vector_val<tagEventInfo *,std::allocator<tagEventInfo *> >::~_Vector_val<tagEventInfo *,std::allocator<tagEventInfo *> >
_TEXT	ENDS
PUBLIC	??0?$allocator@PAUtagEventInfo@@@std@@QAE@XZ	; std::allocator<tagEventInfo *>::allocator<tagEventInfo *>
; Function compile flags: /Ogsp
; File c:\program files (x86)\microsoft visual studio 10.0\vc\include\xmemory
;	COMDAT ??0?$allocator@PAUtagEventInfo@@@std@@QAE@XZ
_TEXT	SEGMENT
??0?$allocator@PAUtagEventInfo@@@std@@QAE@XZ PROC	; std::allocator<tagEventInfo *>::allocator<tagEventInfo *>, COMDAT
; _this$ = ecx

; 161  : 	_ALLOCATOR() _THROW0()

  00000	8b c1		 mov	 eax, ecx

; 162  : 		{	// construct default allocator (do nothing)
; 163  : 		}

  00002	c3		 ret	 0
??0?$allocator@PAUtagEventInfo@@@std@@QAE@XZ ENDP	; std::allocator<tagEventInfo *>::allocator<tagEventInfo *>
_TEXT	ENDS
PUBLIC	?deallocate@?$allocator@PAUtagEventInfo@@@std@@QAEXPAPAUtagEventInfo@@I@Z ; std::allocator<tagEventInfo *>::deallocate
; Function compile flags: /Ogsp
;	COMDAT ?deallocate@?$allocator@PAUtagEventInfo@@@std@@QAEXPAPAUtagEventInfo@@I@Z
_TEXT	SEGMENT
__Ptr$ = 8						; size = 4
___formal$ = 12						; size = 4
?deallocate@?$allocator@PAUtagEventInfo@@@std@@QAEXPAPAUtagEventInfo@@I@Z PROC ; std::allocator<tagEventInfo *>::deallocate, COMDAT
; _this$ = ecx

; 181  : 		{	// deallocate object at _Ptr, ignore size

  00000	55		 push	 ebp
  00001	8b ec		 mov	 ebp, esp

; 182  : 		::operator delete(_Ptr);

  00003	ff 75 08	 push	 DWORD PTR __Ptr$[ebp]
  00006	e8 00 00 00 00	 call	 ??3@YAXPAX@Z		; operator delete
  0000b	59		 pop	 ecx

; 183  : 		}

  0000c	5d		 pop	 ebp
  0000d	c2 08 00	 ret	 8
?deallocate@?$allocator@PAUtagEventInfo@@@std@@QAEXPAPAUtagEventInfo@@I@Z ENDP ; std::allocator<tagEventInfo *>::deallocate
_TEXT	ENDS
PUBLIC	??D?$_Vector_const_iterator@V?$_Vector_val@PAUtagEventInfo@@V?$allocator@PAUtagEventInfo@@@std@@@std@@@std@@QBEABQAUtagEventInfo@@XZ ; std::_Vector_const_iterator<std::_Vector_val<tagEventInfo *,std::allocator<tagEventInfo *> > >::operator*
; Function compile flags: /Ogsp
; File c:\program files (x86)\microsoft visual studio 10.0\vc\include\vector
;	COMDAT ??D?$_Vector_const_iterator@V?$_Vector_val@PAUtagEventInfo@@V?$allocator@PAUtagEventInfo@@@std@@@std@@@std@@QBEABQAUtagEventInfo@@XZ
_TEXT	SEGMENT
??D?$_Vector_const_iterator@V?$_Vector_val@PAUtagEventInfo@@V?$allocator@PAUtagEventInfo@@@std@@@std@@@std@@QBEABQAUtagEventInfo@@XZ PROC ; std::_Vector_const_iterator<std::_Vector_val<tagEventInfo *,std::allocator<tagEventInfo *> > >::operator*, COMDAT
; _this$ = ecx

; 64   :  #if _ITERATOR_DEBUG_LEVEL == 2
; 65   : 		if (this->_Getcont() == 0
; 66   : 			|| this->_Ptr == 0
; 67   : 			|| this->_Ptr < ((_Myvec *)this->_Getcont())->_Myfirst
; 68   : 			|| ((_Myvec *)this->_Getcont())->_Mylast <= this->_Ptr)
; 69   : 			{	// report error
; 70   : 			_DEBUG_ERROR("vector iterator not dereferencable");
; 71   : 			_SCL_SECURE_OUT_OF_RANGE;
; 72   : 			}
; 73   : 
; 74   :  #elif _ITERATOR_DEBUG_LEVEL == 1
; 75   : 		_SCL_SECURE_VALIDATE(this->_Getcont() != 0);
; 76   : 		_SCL_SECURE_VALIDATE_RANGE(
; 77   : 			this->_Ptr != 0
; 78   : 			&& ((_Myvec *)this->_Getcont())->_Myfirst <= this->_Ptr
; 79   : 			&& this->_Ptr < ((_Myvec *)this->_Getcont())->_Mylast);
; 80   :  #endif /* _ITERATOR_DEBUG_LEVEL */
; 81   : 
; 82   : 		__analysis_assume(this->_Ptr != 0);
; 83   : 
; 84   : 		return (*this->_Ptr);

  00000	8b 01		 mov	 eax, DWORD PTR [ecx]

; 85   : 		}

  00002	c3		 ret	 0
??D?$_Vector_const_iterator@V?$_Vector_val@PAUtagEventInfo@@V?$allocator@PAUtagEventInfo@@@std@@@std@@@std@@QBEABQAUtagEventInfo@@XZ ENDP ; std::_Vector_const_iterator<std::_Vector_val<tagEventInfo *,std::allocator<tagEventInfo *> > >::operator*
_TEXT	ENDS
PUBLIC	??E?$_Vector_const_iterator@V?$_Vector_val@PAUtagEventInfo@@V?$allocator@PAUtagEventInfo@@@std@@@std@@@std@@QAEAAV01@XZ ; std::_Vector_const_iterator<std::_Vector_val<tagEventInfo *,std::allocator<tagEventInfo *> > >::operator++
; Function compile flags: /Ogsp
;	COMDAT ??E?$_Vector_const_iterator@V?$_Vector_val@PAUtagEventInfo@@V?$allocator@PAUtagEventInfo@@@std@@@std@@@std@@QAEAAV01@XZ
_TEXT	SEGMENT
??E?$_Vector_const_iterator@V?$_Vector_val@PAUtagEventInfo@@V?$allocator@PAUtagEventInfo@@@std@@@std@@@std@@QAEAAV01@XZ PROC ; std::_Vector_const_iterator<std::_Vector_val<tagEventInfo *,std::allocator<tagEventInfo *> > >::operator++, COMDAT
; _this$ = ecx

; 93   : 		{	// preincrement

  00000	8b c1		 mov	 eax, ecx

; 94   :  #if _ITERATOR_DEBUG_LEVEL == 2
; 95   : 		if (this->_Getcont() == 0
; 96   : 			|| this->_Ptr == 0
; 97   : 			|| ((_Myvec *)this->_Getcont())->_Mylast <= this->_Ptr)
; 98   : 			{	// report error
; 99   : 			_DEBUG_ERROR("vector iterator not incrementable");
; 100  : 			_SCL_SECURE_OUT_OF_RANGE;
; 101  : 			}
; 102  : 
; 103  :  #elif _ITERATOR_DEBUG_LEVEL == 1
; 104  : 		_SCL_SECURE_VALIDATE(this->_Getcont() != 0);
; 105  : 		_SCL_SECURE_VALIDATE_RANGE(
; 106  : 			this->_Ptr != 0
; 107  : 			&& this->_Ptr < ((_Myvec *)this->_Getcont())->_Mylast);
; 108  :  #endif /* _ITERATOR_DEBUG_LEVEL */
; 109  : 
; 110  : 		++this->_Ptr;

  00002	83 00 04	 add	 DWORD PTR [eax], 4

; 111  : 		return (*this);
; 112  : 		}

  00005	c3		 ret	 0
??E?$_Vector_const_iterator@V?$_Vector_val@PAUtagEventInfo@@V?$allocator@PAUtagEventInfo@@@std@@@std@@@std@@QAEAAV01@XZ ENDP ; std::_Vector_const_iterator<std::_Vector_val<tagEventInfo *,std::allocator<tagEventInfo *> > >::operator++
_TEXT	ENDS
PUBLIC	??D?$_Vector_const_iterator@V?$_Vector_val@PAVioUIRenderImage@@V?$allocator@PAVioUIRenderImage@@@std@@@std@@@std@@QBEABQAVioUIRenderImage@@XZ ; std::_Vector_const_iterator<std::_Vector_val<ioUIRenderImage *,std::allocator<ioUIRenderImage *> > >::operator*
; Function compile flags: /Ogsp
;	COMDAT ??D?$_Vector_const_iterator@V?$_Vector_val@PAVioUIRenderImage@@V?$allocator@PAVioUIRenderImage@@@std@@@std@@@std@@QBEABQAVioUIRenderImage@@XZ
_TEXT	SEGMENT
??D?$_Vector_const_iterator@V?$_Vector_val@PAVioUIRenderImage@@V?$allocator@PAVioUIRenderImage@@@std@@@std@@@std@@QBEABQAVioUIRenderImage@@XZ PROC ; std::_Vector_const_iterator<std::_Vector_val<ioUIRenderImage *,std::allocator<ioUIRenderImage *> > >::operator*, COMDAT
; _this$ = ecx

; 64   :  #if _ITERATOR_DEBUG_LEVEL == 2
; 65   : 		if (this->_Getcont() == 0
; 66   : 			|| this->_Ptr == 0
; 67   : 			|| this->_Ptr < ((_Myvec *)this->_Getcont())->_Myfirst
; 68   : 			|| ((_Myvec *)this->_Getcont())->_Mylast <= this->_Ptr)
; 69   : 			{	// report error
; 70   : 			_DEBUG_ERROR("vector iterator not dereferencable");
; 71   : 			_SCL_SECURE_OUT_OF_RANGE;
; 72   : 			}
; 73   : 
; 74   :  #elif _ITERATOR_DEBUG_LEVEL == 1
; 75   : 		_SCL_SECURE_VALIDATE(this->_Getcont() != 0);
; 76   : 		_SCL_SECURE_VALIDATE_RANGE(
; 77   : 			this->_Ptr != 0
; 78   : 			&& ((_Myvec *)this->_Getcont())->_Myfirst <= this->_Ptr
; 79   : 			&& this->_Ptr < ((_Myvec *)this->_Getcont())->_Mylast);
; 80   :  #endif /* _ITERATOR_DEBUG_LEVEL */
; 81   : 
; 82   : 		__analysis_assume(this->_Ptr != 0);
; 83   : 
; 84   : 		return (*this->_Ptr);

  00000	8b 01		 mov	 eax, DWORD PTR [ecx]

; 85   : 		}

  00002	c3		 ret	 0
??D?$_Vector_const_iterator@V?$_Vector_val@PAVioUIRenderImage@@V?$allocator@PAVioUIRenderImage@@@std@@@std@@@std@@QBEABQAVioUIRenderImage@@XZ ENDP ; std::_Vector_const_iterator<std::_Vector_val<ioUIRenderImage *,std::allocator<ioUIRenderImage *> > >::operator*
_TEXT	ENDS
PUBLIC	?capacity@?$vector@PAVioUIRenderImage@@V?$allocator@PAVioUIRenderImage@@@std@@@std@@QBEIXZ ; std::vector<ioUIRenderImage *,std::allocator<ioUIRenderImage *> >::capacity
; Function compile flags: /Ogsp
;	COMDAT ?capacity@?$vector@PAVioUIRenderImage@@V?$allocator@PAVioUIRenderImage@@@std@@@std@@QBEIXZ
_TEXT	SEGMENT
?capacity@?$vector@PAVioUIRenderImage@@V?$allocator@PAVioUIRenderImage@@@std@@@std@@QBEIXZ PROC ; std::vector<ioUIRenderImage *,std::allocator<ioUIRenderImage *> >::capacity, COMDAT
; _this$ = ecx

; 777  : 		return (this->_Myend - this->_Myfirst);

  00000	8b 41 08	 mov	 eax, DWORD PTR [ecx+8]
  00003	2b 01		 sub	 eax, DWORD PTR [ecx]
  00005	c1 f8 02	 sar	 eax, 2

; 778  : 		}

  00008	c3		 ret	 0
?capacity@?$vector@PAVioUIRenderImage@@V?$allocator@PAVioUIRenderImage@@@std@@@std@@QBEIXZ ENDP ; std::vector<ioUIRenderImage *,std::allocator<ioUIRenderImage *> >::capacity
_TEXT	ENDS
PUBLIC	?_Xlen@?$vector@PAVioUIRenderImage@@V?$allocator@PAVioUIRenderImage@@@std@@@std@@IBEXXZ ; std::vector<ioUIRenderImage *,std::allocator<ioUIRenderImage *> >::_Xlen
; Function compile flags: /Ogsp
;	COMDAT ?_Xlen@?$vector@PAVioUIRenderImage@@V?$allocator@PAVioUIRenderImage@@@std@@@std@@IBEXXZ
_TEXT	SEGMENT
?_Xlen@?$vector@PAVioUIRenderImage@@V?$allocator@PAVioUIRenderImage@@@std@@@std@@IBEXXZ PROC ; std::vector<ioUIRenderImage *,std::allocator<ioUIRenderImage *> >::_Xlen, COMDAT
; _this$ = ecx

; 1427 : 		_Xlength_error("vector<T> too long");

  00000	68 00 00 00 00	 push	 OFFSET ??_C@_0BD@OLBABOEK@vector?$DMT?$DO?5too?5long?$AA@
  00005	ff 15 00 00 00
	00		 call	 DWORD PTR __imp_?_Xlength_error@std@@YAXPBD@Z
$LN4@Xlen@2:
$LN3@Xlen@2:
  0000b	cc		 int	 3
?_Xlen@?$vector@PAVioUIRenderImage@@V?$allocator@PAVioUIRenderImage@@@std@@@std@@IBEXXZ ENDP ; std::vector<ioUIRenderImage *,std::allocator<ioUIRenderImage *> >::_Xlen
_TEXT	ENDS
PUBLIC	??0?$allocator@PAVioUIRenderImage@@@std@@QAE@ABV01@@Z ; std::allocator<ioUIRenderImage *>::allocator<ioUIRenderImage *>
; Function compile flags: /Ogsp
; File c:\program files (x86)\microsoft visual studio 10.0\vc\include\xmemory
;	COMDAT ??0?$allocator@PAVioUIRenderImage@@@std@@QAE@ABV01@@Z
_TEXT	SEGMENT
___formal$ = 8						; size = 4
??0?$allocator@PAVioUIRenderImage@@@std@@QAE@ABV01@@Z PROC ; std::allocator<ioUIRenderImage *>::allocator<ioUIRenderImage *>, COMDAT
; _this$ = ecx

; 165  : 	_ALLOCATOR(const _ALLOCATOR<_Ty>&) _THROW0()

  00000	8b c1		 mov	 eax, ecx

; 166  : 		{	// construct by copying (do nothing)
; 167  : 		}

  00002	c2 04 00	 ret	 4
??0?$allocator@PAVioUIRenderImage@@@std@@QAE@ABV01@@Z ENDP ; std::allocator<ioUIRenderImage *>::allocator<ioUIRenderImage *>
_TEXT	ENDS
PUBLIC	?deallocate@?$allocator@PAVioUIRenderImage@@@std@@QAEXPAPAVioUIRenderImage@@I@Z ; std::allocator<ioUIRenderImage *>::deallocate
; Function compile flags: /Ogsp
;	COMDAT ?deallocate@?$allocator@PAVioUIRenderImage@@@std@@QAEXPAPAVioUIRenderImage@@I@Z
_TEXT	SEGMENT
__Ptr$ = 8						; size = 4
___formal$ = 12						; size = 4
?deallocate@?$allocator@PAVioUIRenderImage@@@std@@QAEXPAPAVioUIRenderImage@@I@Z PROC ; std::allocator<ioUIRenderImage *>::deallocate, COMDAT
; _this$ = ecx

; 181  : 		{	// deallocate object at _Ptr, ignore size

  00000	55		 push	 ebp
  00001	8b ec		 mov	 ebp, esp

; 182  : 		::operator delete(_Ptr);

  00003	ff 75 08	 push	 DWORD PTR __Ptr$[ebp]
  00006	e8 00 00 00 00	 call	 ??3@YAXPAX@Z		; operator delete
  0000b	59		 pop	 ecx

; 183  : 		}

  0000c	5d		 pop	 ebp
  0000d	c2 08 00	 ret	 8
?deallocate@?$allocator@PAVioUIRenderImage@@@std@@QAEXPAPAVioUIRenderImage@@I@Z ENDP ; std::allocator<ioUIRenderImage *>::deallocate
_TEXT	ENDS
PUBLIC	??0?$allocator@PAUtagEventInfo@@@std@@QAE@ABV01@@Z ; std::allocator<tagEventInfo *>::allocator<tagEventInfo *>
; Function compile flags: /Ogsp
;	COMDAT ??0?$allocator@PAUtagEventInfo@@@std@@QAE@ABV01@@Z
_TEXT	SEGMENT
___formal$ = 8						; size = 4
??0?$allocator@PAUtagEventInfo@@@std@@QAE@ABV01@@Z PROC	; std::allocator<tagEventInfo *>::allocator<tagEventInfo *>, COMDAT
; _this$ = ecx

; 165  : 	_ALLOCATOR(const _ALLOCATOR<_Ty>&) _THROW0()

  00000	8b c1		 mov	 eax, ecx

; 166  : 		{	// construct by copying (do nothing)
; 167  : 		}

  00002	c2 04 00	 ret	 4
??0?$allocator@PAUtagEventInfo@@@std@@QAE@ABV01@@Z ENDP	; std::allocator<tagEventInfo *>::allocator<tagEventInfo *>
_TEXT	ENDS
PUBLIC	?max_size@?$allocator@PAUtagEventInfo@@@std@@QBEIXZ ; std::allocator<tagEventInfo *>::max_size
; Function compile flags: /Ogsp
;	COMDAT ?max_size@?$allocator@PAUtagEventInfo@@@std@@QBEIXZ
_TEXT	SEGMENT
?max_size@?$allocator@PAUtagEventInfo@@@std@@QBEIXZ PROC ; std::allocator<tagEventInfo *>::max_size, COMDAT
; _this$ = ecx

; 218  : 		_SIZT _Count = (_SIZT)(-1) / sizeof (_Ty);
; 219  : 		return (0 < _Count ? _Count : 1);

  00000	b8 ff ff ff 3f	 mov	 eax, 1073741823		; 3fffffffH

; 220  : 		}

  00005	c3		 ret	 0
?max_size@?$allocator@PAUtagEventInfo@@@std@@QBEIXZ ENDP ; std::allocator<tagEventInfo *>::max_size
_TEXT	ENDS
PUBLIC	??0?$_Vector_const_iterator@V?$_Vector_val@PAUtagEventInfo@@V?$allocator@PAUtagEventInfo@@@std@@@std@@@std@@QAE@PAPAUtagEventInfo@@PBU_Container_base0@1@@Z ; std::_Vector_const_iterator<std::_Vector_val<tagEventInfo *,std::allocator<tagEventInfo *> > >::_Vector_const_iterator<std::_Vector_val<tagEventInfo *,std::allocator<tagEventInfo *> > >
; Function compile flags: /Ogsp
; File c:\program files (x86)\microsoft visual studio 10.0\vc\include\vector
;	COMDAT ??0?$_Vector_const_iterator@V?$_Vector_val@PAUtagEventInfo@@V?$allocator@PAUtagEventInfo@@@std@@@std@@@std@@QAE@PAPAUtagEventInfo@@PBU_Container_base0@1@@Z
_TEXT	SEGMENT
__Parg$ = 8						; size = 4
__Pvector$ = 12						; size = 4
??0?$_Vector_const_iterator@V?$_Vector_val@PAUtagEventInfo@@V?$allocator@PAUtagEventInfo@@@std@@@std@@@std@@QAE@PAPAUtagEventInfo@@PBU_Container_base0@1@@Z PROC ; std::_Vector_const_iterator<std::_Vector_val<tagEventInfo *,std::allocator<tagEventInfo *> > >::_Vector_const_iterator<std::_Vector_val<tagEventInfo *,std::allocator<tagEventInfo *> > >, COMDAT
; _this$ = ecx

; 45   : 		{	// construct with pointer _Parg

  00000	55		 push	 ebp
  00001	8b ec		 mov	 ebp, esp
  00003	8b c1		 mov	 eax, ecx
  00005	8b 4d 08	 mov	 ecx, DWORD PTR __Parg$[ebp]
  00008	89 08		 mov	 DWORD PTR [eax], ecx

; 46   : 		this->_Adopt(_Pvector);
; 47   : 		}

  0000a	5d		 pop	 ebp
  0000b	c2 08 00	 ret	 8
??0?$_Vector_const_iterator@V?$_Vector_val@PAUtagEventInfo@@V?$allocator@PAUtagEventInfo@@@std@@@std@@@std@@QAE@PAPAUtagEventInfo@@PBU_Container_base0@1@@Z ENDP ; std::_Vector_const_iterator<std::_Vector_val<tagEventInfo *,std::allocator<tagEventInfo *> > >::_Vector_const_iterator<std::_Vector_val<tagEventInfo *,std::allocator<tagEventInfo *> > >
_TEXT	ENDS
PUBLIC	?_Compat@?$_Vector_const_iterator@V?$_Vector_val@PAUtagEventInfo@@V?$allocator@PAUtagEventInfo@@@std@@@std@@@std@@QBEXABV12@@Z ; std::_Vector_const_iterator<std::_Vector_val<tagEventInfo *,std::allocator<tagEventInfo *> > >::_Compat
; Function compile flags: /Ogsp
;	COMDAT ?_Compat@?$_Vector_const_iterator@V?$_Vector_val@PAUtagEventInfo@@V?$allocator@PAUtagEventInfo@@@std@@@std@@@std@@QBEXABV12@@Z
_TEXT	SEGMENT
___formal$ = 8						; size = 4
?_Compat@?$_Vector_const_iterator@V?$_Vector_val@PAUtagEventInfo@@V?$allocator@PAUtagEventInfo@@@std@@@std@@@std@@QBEXABV12@@Z PROC ; std::_Vector_const_iterator<std::_Vector_val<tagEventInfo *,std::allocator<tagEventInfo *> > >::_Compat, COMDAT
; _this$ = ecx

; 253  : 		}

  00000	c2 04 00	 ret	 4
?_Compat@?$_Vector_const_iterator@V?$_Vector_val@PAUtagEventInfo@@V?$allocator@PAUtagEventInfo@@@std@@@std@@@std@@QBEXABV12@@Z ENDP ; std::_Vector_const_iterator<std::_Vector_val<tagEventInfo *,std::allocator<tagEventInfo *> > >::_Compat
_TEXT	ENDS
PUBLIC	??0?$_Vector_const_iterator@V?$_Vector_val@PAVioUIRenderImage@@V?$allocator@PAVioUIRenderImage@@@std@@@std@@@std@@QAE@PAPAVioUIRenderImage@@PBU_Container_base0@1@@Z ; std::_Vector_const_iterator<std::_Vector_val<ioUIRenderImage *,std::allocator<ioUIRenderImage *> > >::_Vector_const_iterator<std::_Vector_val<ioUIRenderImage *,std::allocator<ioUIRenderImage *> > >
; Function compile flags: /Ogsp
;	COMDAT ??0?$_Vector_const_iterator@V?$_Vector_val@PAVioUIRenderImage@@V?$allocator@PAVioUIRenderImage@@@std@@@std@@@std@@QAE@PAPAVioUIRenderImage@@PBU_Container_base0@1@@Z
_TEXT	SEGMENT
__Parg$ = 8						; size = 4
__Pvector$ = 12						; size = 4
??0?$_Vector_const_iterator@V?$_Vector_val@PAVioUIRenderImage@@V?$allocator@PAVioUIRenderImage@@@std@@@std@@@std@@QAE@PAPAVioUIRenderImage@@PBU_Container_base0@1@@Z PROC ; std::_Vector_const_iterator<std::_Vector_val<ioUIRenderImage *,std::allocator<ioUIRenderImage *> > >::_Vector_const_iterator<std::_Vector_val<ioUIRenderImage *,std::allocator<ioUIRenderImage *> > >, COMDAT
; _this$ = ecx

; 45   : 		{	// construct with pointer _Parg

  00000	55		 push	 ebp
  00001	8b ec		 mov	 ebp, esp
  00003	8b c1		 mov	 eax, ecx
  00005	8b 4d 08	 mov	 ecx, DWORD PTR __Parg$[ebp]
  00008	89 08		 mov	 DWORD PTR [eax], ecx

; 46   : 		this->_Adopt(_Pvector);
; 47   : 		}

  0000a	5d		 pop	 ebp
  0000b	c2 08 00	 ret	 8
??0?$_Vector_const_iterator@V?$_Vector_val@PAVioUIRenderImage@@V?$allocator@PAVioUIRenderImage@@@std@@@std@@@std@@QAE@PAPAVioUIRenderImage@@PBU_Container_base0@1@@Z ENDP ; std::_Vector_const_iterator<std::_Vector_val<ioUIRenderImage *,std::allocator<ioUIRenderImage *> > >::_Vector_const_iterator<std::_Vector_val<ioUIRenderImage *,std::allocator<ioUIRenderImage *> > >
_TEXT	ENDS
PUBLIC	??E?$_Vector_const_iterator@V?$_Vector_val@PAVioUIRenderImage@@V?$allocator@PAVioUIRenderImage@@@std@@@std@@@std@@QAEAAV01@XZ ; std::_Vector_const_iterator<std::_Vector_val<ioUIRenderImage *,std::allocator<ioUIRenderImage *> > >::operator++
; Function compile flags: /Ogsp
;	COMDAT ??E?$_Vector_const_iterator@V?$_Vector_val@PAVioUIRenderImage@@V?$allocator@PAVioUIRenderImage@@@std@@@std@@@std@@QAEAAV01@XZ
_TEXT	SEGMENT
??E?$_Vector_const_iterator@V?$_Vector_val@PAVioUIRenderImage@@V?$allocator@PAVioUIRenderImage@@@std@@@std@@@std@@QAEAAV01@XZ PROC ; std::_Vector_const_iterator<std::_Vector_val<ioUIRenderImage *,std::allocator<ioUIRenderImage *> > >::operator++, COMDAT
; _this$ = ecx

; 93   : 		{	// preincrement

  00000	8b c1		 mov	 eax, ecx

; 94   :  #if _ITERATOR_DEBUG_LEVEL == 2
; 95   : 		if (this->_Getcont() == 0
; 96   : 			|| this->_Ptr == 0
; 97   : 			|| ((_Myvec *)this->_Getcont())->_Mylast <= this->_Ptr)
; 98   : 			{	// report error
; 99   : 			_DEBUG_ERROR("vector iterator not incrementable");
; 100  : 			_SCL_SECURE_OUT_OF_RANGE;
; 101  : 			}
; 102  : 
; 103  :  #elif _ITERATOR_DEBUG_LEVEL == 1
; 104  : 		_SCL_SECURE_VALIDATE(this->_Getcont() != 0);
; 105  : 		_SCL_SECURE_VALIDATE_RANGE(
; 106  : 			this->_Ptr != 0
; 107  : 			&& this->_Ptr < ((_Myvec *)this->_Getcont())->_Mylast);
; 108  :  #endif /* _ITERATOR_DEBUG_LEVEL */
; 109  : 
; 110  : 		++this->_Ptr;

  00002	83 00 04	 add	 DWORD PTR [eax], 4

; 111  : 		return (*this);
; 112  : 		}

  00005	c3		 ret	 0
??E?$_Vector_const_iterator@V?$_Vector_val@PAVioUIRenderImage@@V?$allocator@PAVioUIRenderImage@@@std@@@std@@@std@@QAEAAV01@XZ ENDP ; std::_Vector_const_iterator<std::_Vector_val<ioUIRenderImage *,std::allocator<ioUIRenderImage *> > >::operator++
_TEXT	ENDS
PUBLIC	?_Compat@?$_Vector_const_iterator@V?$_Vector_val@PAVioUIRenderImage@@V?$allocator@PAVioUIRenderImage@@@std@@@std@@@std@@QBEXABV12@@Z ; std::_Vector_const_iterator<std::_Vector_val<ioUIRenderImage *,std::allocator<ioUIRenderImage *> > >::_Compat
; Function compile flags: /Ogsp
;	COMDAT ?_Compat@?$_Vector_const_iterator@V?$_Vector_val@PAVioUIRenderImage@@V?$allocator@PAVioUIRenderImage@@@std@@@std@@@std@@QBEXABV12@@Z
_TEXT	SEGMENT
___formal$ = 8						; size = 4
?_Compat@?$_Vector_const_iterator@V?$_Vector_val@PAVioUIRenderImage@@V?$allocator@PAVioUIRenderImage@@@std@@@std@@@std@@QBEXABV12@@Z PROC ; std::_Vector_const_iterator<std::_Vector_val<ioUIRenderImage *,std::allocator<ioUIRenderImage *> > >::_Compat, COMDAT
; _this$ = ecx

; 253  : 		}

  00000	c2 04 00	 ret	 4
?_Compat@?$_Vector_const_iterator@V?$_Vector_val@PAVioUIRenderImage@@V?$allocator@PAVioUIRenderImage@@@std@@@std@@@std@@QBEXABV12@@Z ENDP ; std::_Vector_const_iterator<std::_Vector_val<ioUIRenderImage *,std::allocator<ioUIRenderImage *> > >::_Compat
_TEXT	ENDS
PUBLIC	?max_size@?$allocator@PAVioUIRenderImage@@@std@@QBEIXZ ; std::allocator<ioUIRenderImage *>::max_size
; Function compile flags: /Ogsp
; File c:\program files (x86)\microsoft visual studio 10.0\vc\include\xmemory
;	COMDAT ?max_size@?$allocator@PAVioUIRenderImage@@@std@@QBEIXZ
_TEXT	SEGMENT
?max_size@?$allocator@PAVioUIRenderImage@@@std@@QBEIXZ PROC ; std::allocator<ioUIRenderImage *>::max_size, COMDAT
; _this$ = ecx

; 218  : 		_SIZT _Count = (_SIZT)(-1) / sizeof (_Ty);
; 219  : 		return (0 < _Count ? _Count : 1);

  00000	b8 ff ff ff 3f	 mov	 eax, 1073741823		; 3fffffffH

; 220  : 		}

  00005	c3		 ret	 0
?max_size@?$allocator@PAVioUIRenderImage@@@std@@QBEIXZ ENDP ; std::allocator<ioUIRenderImage *>::max_size
_TEXT	ENDS
PUBLIC	??$addressof@PAVioUIRenderImage@@@std@@YAPAPAVioUIRenderImage@@AAPAV1@@Z ; std::addressof<ioUIRenderImage *>
; Function compile flags: /Ogsp
;	COMDAT ??$addressof@PAVioUIRenderImage@@@std@@YAPAPAVioUIRenderImage@@AAPAV1@@Z
_TEXT	SEGMENT
__Val$ = 8						; size = 4
??$addressof@PAVioUIRenderImage@@@std@@YAPAPAVioUIRenderImage@@AAPAV1@@Z PROC ; std::addressof<ioUIRenderImage *>, COMDAT

; 110  : 	{	// return address of _Val

  00000	55		 push	 ebp
  00001	8b ec		 mov	 ebp, esp

; 111  : 	return ((_Ty *) &(char&)_Val);

  00003	8b 45 08	 mov	 eax, DWORD PTR __Val$[ebp]

; 112  : 	}

  00006	5d		 pop	 ebp
  00007	c3		 ret	 0
??$addressof@PAVioUIRenderImage@@@std@@YAPAPAVioUIRenderImage@@AAPAV1@@Z ENDP ; std::addressof<ioUIRenderImage *>
_TEXT	ENDS
PUBLIC	??$forward@PAVioUIRenderImage@@@std@@YA$$QAPAVioUIRenderImage@@AAPAV1@@Z ; std::forward<ioUIRenderImage *>
; Function compile flags: /Ogsp
; File c:\program files (x86)\microsoft visual studio 10.0\vc\include\utility
;	COMDAT ??$forward@PAVioUIRenderImage@@@std@@YA$$QAPAVioUIRenderImage@@AAPAV1@@Z
_TEXT	SEGMENT
__Arg$ = 8						; size = 4
??$forward@PAVioUIRenderImage@@@std@@YA$$QAPAVioUIRenderImage@@AAPAV1@@Z PROC ; std::forward<ioUIRenderImage *>, COMDAT

; 78   : 	{	// forward _Arg, given explicitly specified type parameter

  00000	55		 push	 ebp
  00001	8b ec		 mov	 ebp, esp

; 79   : 	return ((_Ty&&)_Arg);

  00003	8b 45 08	 mov	 eax, DWORD PTR __Arg$[ebp]

; 80   : 	}

  00006	5d		 pop	 ebp
  00007	c3		 ret	 0
??$forward@PAVioUIRenderImage@@@std@@YA$$QAPAVioUIRenderImage@@AAPAV1@@Z ENDP ; std::forward<ioUIRenderImage *>
_TEXT	ENDS
PUBLIC	??$addressof@H@std@@YAPAHAAH@Z			; std::addressof<int>
; Function compile flags: /Ogsp
; File c:\program files (x86)\microsoft visual studio 10.0\vc\include\xmemory
;	COMDAT ??$addressof@H@std@@YAPAHAAH@Z
_TEXT	SEGMENT
__Val$ = 8						; size = 4
??$addressof@H@std@@YAPAHAAH@Z PROC			; std::addressof<int>, COMDAT

; 110  : 	{	// return address of _Val

  00000	55		 push	 ebp
  00001	8b ec		 mov	 ebp, esp

; 111  : 	return ((_Ty *) &(char&)_Val);

  00003	8b 45 08	 mov	 eax, DWORD PTR __Val$[ebp]

; 112  : 	}

  00006	5d		 pop	 ebp
  00007	c3		 ret	 0
??$addressof@H@std@@YAPAHAAH@Z ENDP			; std::addressof<int>
_TEXT	ENDS
PUBLIC	??$addressof@QAUtagEventInfo@@@std@@YAPBQAUtagEventInfo@@ABQAU1@@Z ; std::addressof<tagEventInfo * const>
; Function compile flags: /Ogsp
;	COMDAT ??$addressof@QAUtagEventInfo@@@std@@YAPBQAUtagEventInfo@@ABQAU1@@Z
_TEXT	SEGMENT
__Val$ = 8						; size = 4
??$addressof@QAUtagEventInfo@@@std@@YAPBQAUtagEventInfo@@ABQAU1@@Z PROC ; std::addressof<tagEventInfo * const>, COMDAT

; 110  : 	{	// return address of _Val

  00000	55		 push	 ebp
  00001	8b ec		 mov	 ebp, esp

; 111  : 	return ((_Ty *) &(char&)_Val);

  00003	8b 45 08	 mov	 eax, DWORD PTR __Val$[ebp]

; 112  : 	}

  00006	5d		 pop	 ebp
  00007	c3		 ret	 0
??$addressof@QAUtagEventInfo@@@std@@YAPBQAUtagEventInfo@@ABQAU1@@Z ENDP ; std::addressof<tagEventInfo * const>
_TEXT	ENDS
PUBLIC	__TI2?AVbad_alloc@std@@
PUBLIC	??$_Allocate@PAUtagEventInfo@@@std@@YAPAPAUtagEventInfo@@IPAPAU1@@Z ; std::_Allocate<tagEventInfo *>
PUBLIC	__CTA2?AVbad_alloc@std@@
PUBLIC	__CT??_R0?AVbad_alloc@std@@@8??0bad_alloc@std@@QAE@ABV01@@Z12
PUBLIC	??0bad_alloc@std@@QAE@ABV01@@Z			; std::bad_alloc::bad_alloc
PUBLIC	__CT??_R0?AVexception@std@@@8??0exception@std@@QAE@ABV01@@Z12
EXTRN	??2@YAPAXI@Z:PROC				; operator new
EXTRN	__CxxThrowException@8:PROC
EXTRN	??0exception@std@@QAE@ABV01@@Z:PROC		; std::exception::exception
