; Listing generated by Microsoft (R) Optimizing Compiler Version 16.00.30319.01 

	TITLE	D:\Lost Saga For Developer\Youtube\Tutorial\Source\src\LSClient\GUI\ExcavationWnd.cpp
	.686P
	.XMM
	include listing.inc
	.model	flat

INCLUDELIB MSVCRT
INCLUDELIB OLDNAMES

PUBLIC	?_EEM_DS@?$deque@UD3DXVECTOR3@@V?$allocator@UD3DXVECTOR3@@@std@@@std@@2HB ; std::deque<D3DXVECTOR3,std::allocator<D3DXVECTOR3> >::_EEM_DS
;	COMDAT ?_EEM_DS@?$deque@UD3DXVECTOR3@@V?$allocator@UD3DXVECTOR3@@@std@@@std@@2HB
CONST	SEGMENT
?_EEM_DS@?$deque@UD3DXVECTOR3@@V?$allocator@UD3DXVECTOR3@@@std@@@std@@2HB DD 01H ; std::deque<D3DXVECTOR3,std::allocator<D3DXVECTOR3> >::_EEM_DS
CONST	ENDS
PUBLIC	?return1@@YAIXZ					; return1
; Function compile flags: /Ogsp
; File d:\lost saga for developer\youtube\tutorial\source\src\lsclient\stdafx.h
;	COMDAT ?return1@@YAIXZ
_TEXT	SEGMENT
?return1@@YAIXZ PROC					; return1, COMDAT

; 17   : 	__forceinline unsigned int return1() { __asm mov eax, 1 };

  00000	b8 01 00 00 00	 mov	 eax, 1
  00005	c3		 ret	 0
?return1@@YAIXZ ENDP					; return1
_TEXT	ENDS
PUBLIC	?return100@@YAIXZ				; return100
; Function compile flags: /Ogsp
;	COMDAT ?return100@@YAIXZ
_TEXT	SEGMENT
?return100@@YAIXZ PROC					; return100, COMDAT

; 25   : 	__forceinline unsigned int return100() { __asm mov eax, 100 };

  00000	b8 64 00 00 00	 mov	 eax, 100		; 00000064H
  00005	c3		 ret	 0
?return100@@YAIXZ ENDP					; return100
_TEXT	ENDS
PUBLIC	?GetRealExcavatingUserTime@ioExcavationManager@@QBEHXZ ; ioExcavationManager::GetRealExcavatingUserTime
; Function compile flags: /Ogsp
; File d:\lost saga for developer\youtube\tutorial\source\src\lsclient\ioexcavationmanager.h
;	COMDAT ?GetRealExcavatingUserTime@ioExcavationManager@@QBEHXZ
_TEXT	SEGMENT
?GetRealExcavatingUserTime@ioExcavationManager@@QBEHXZ PROC ; ioExcavationManager::GetRealExcavatingUserTime, COMDAT
; _this$ = ecx

; 281  : 	int GetRealExcavatingUserTime() const { return m_iRealExcavatingUserTime; }

  00000	8b 81 68 14 00
	00		 mov	 eax, DWORD PTR [ecx+5224]
  00006	c3		 ret	 0
?GetRealExcavatingUserTime@ioExcavationManager@@QBEHXZ ENDP ; ioExcavationManager::GetRealExcavatingUserTime
_TEXT	ENDS
PUBLIC	?GetMaxSuccessRate@ioExcavationManager@@QBEHXZ	; ioExcavationManager::GetMaxSuccessRate
; Function compile flags: /Ogsp
;	COMDAT ?GetMaxSuccessRate@ioExcavationManager@@QBEHXZ
_TEXT	SEGMENT
?GetMaxSuccessRate@ioExcavationManager@@QBEHXZ PROC	; ioExcavationManager::GetMaxSuccessRate, COMDAT
; _this$ = ecx

; 282  : 	int GetMaxSuccessRate() const { return m_iMaxSuccessRate; }

  00000	8b 81 70 14 00
	00		 mov	 eax, DWORD PTR [ecx+5232]
  00006	c3		 ret	 0
?GetMaxSuccessRate@ioExcavationManager@@QBEHXZ ENDP	; ioExcavationManager::GetMaxSuccessRate
_TEXT	ENDS
PUBLIC	?GetSuccessRatePerOneUser@ioExcavationManager@@QBEHXZ ; ioExcavationManager::GetSuccessRatePerOneUser
; Function compile flags: /Ogsp
;	COMDAT ?GetSuccessRatePerOneUser@ioExcavationManager@@QBEHXZ
_TEXT	SEGMENT
?GetSuccessRatePerOneUser@ioExcavationManager@@QBEHXZ PROC ; ioExcavationManager::GetSuccessRatePerOneUser, COMDAT
; _this$ = ecx

; 283  : 	int GetSuccessRatePerOneUser() const { return m_iSuccessRatePerOneUser; }

  00000	8b 81 6c 14 00
	00		 mov	 eax, DWORD PTR [ecx+5228]
  00006	c3		 ret	 0
?GetSuccessRatePerOneUser@ioExcavationManager@@QBEHXZ ENDP ; ioExcavationManager::GetSuccessRatePerOneUser
_TEXT	ENDS
PUBLIC	?SetKeyInputTimer@ioExcavationManager@@QAEXK@Z	; ioExcavationManager::SetKeyInputTimer
; Function compile flags: /Ogsp
;	COMDAT ?SetKeyInputTimer@ioExcavationManager@@QAEXK@Z
_TEXT	SEGMENT
_dwKeyInputTimer$ = 8					; size = 4
?SetKeyInputTimer@ioExcavationManager@@QAEXK@Z PROC	; ioExcavationManager::SetKeyInputTimer, COMDAT
; _this$ = ecx

; 285  : 	void SetKeyInputTimer(DWORD dwKeyInputTimer) { m_dwKeyInputTimer = dwKeyInputTimer; }

  00000	55		 push	 ebp
  00001	8b ec		 mov	 ebp, esp
  00003	8b 45 08	 mov	 eax, DWORD PTR _dwKeyInputTimer$[ebp]
  00006	89 81 54 14 00
	00		 mov	 DWORD PTR [ecx+5204], eax
  0000c	5d		 pop	 ebp
  0000d	c2 04 00	 ret	 4
?SetKeyInputTimer@ioExcavationManager@@QAEXK@Z ENDP	; ioExcavationManager::SetKeyInputTimer
_TEXT	ENDS
PUBLIC	?GetBaseCharList@ioPlayStage@@QBEABV?$vector@PAVioBaseChar@@V?$allocator@PAVioBaseChar@@@std@@@std@@XZ ; ioPlayStage::GetBaseCharList
; Function compile flags: /Ogsp
; File d:\lost saga for developer\youtube\tutorial\source\src\lsclient\ioplaystage.h
;	COMDAT ?GetBaseCharList@ioPlayStage@@QBEABV?$vector@PAVioBaseChar@@V?$allocator@PAVioBaseChar@@@std@@@std@@XZ
_TEXT	SEGMENT
?GetBaseCharList@ioPlayStage@@QBEABV?$vector@PAVioBaseChar@@V?$allocator@PAVioBaseChar@@@std@@@std@@XZ PROC ; ioPlayStage::GetBaseCharList, COMDAT
; _this$ = ecx

; 755  : 	const BaseCharList& GetBaseCharList() const { return m_BaseCharList; }

  00000	8d 41 2c	 lea	 eax, DWORD PTR [ecx+44]
  00003	c3		 ret	 0
?GetBaseCharList@ioPlayStage@@QBEABV?$vector@PAVioBaseChar@@V?$allocator@PAVioBaseChar@@@std@@@std@@XZ ENDP ; ioPlayStage::GetBaseCharList
_TEXT	ENDS
PUBLIC	_sinf
EXTRN	__fltused:DWORD
EXTRN	__CIsin:PROC
; Function compile flags: /Ogsp
; File c:\program files (x86)\microsoft visual studio 10.0\vc\include\math.h
;	COMDAT _sinf
_TEXT	SEGMENT
tv69 = 8						; size = 4
__X$ = 8						; size = 4
_sinf	PROC						; COMDAT

; 430  :         {return ((float)sin((double)_X)); }

  00000	55		 push	 ebp
  00001	8b ec		 mov	 ebp, esp
  00003	d9 45 08	 fld	 DWORD PTR __X$[ebp]
  00006	e8 00 00 00 00	 call	 __CIsin
  0000b	d9 5d 08	 fstp	 DWORD PTR tv69[ebp]
  0000e	d9 45 08	 fld	 DWORD PTR tv69[ebp]
  00011	5d		 pop	 ebp
  00012	c3		 ret	 0
_sinf	ENDP
_TEXT	ENDS
PUBLIC	_sqrtf
EXTRN	__CIsqrt:PROC
; Function compile flags: /Ogsp
;	COMDAT _sqrtf
_TEXT	SEGMENT
tv69 = 8						; size = 4
__X$ = 8						; size = 4
_sqrtf	PROC						; COMDAT

; 434  :         {return ((float)sqrt((double)_X)); }

  00000	55		 push	 ebp
  00001	8b ec		 mov	 ebp, esp
  00003	d9 45 08	 fld	 DWORD PTR __X$[ebp]
  00006	e8 00 00 00 00	 call	 __CIsqrt
  0000b	d9 5d 08	 fstp	 DWORD PTR tv69[ebp]
  0000e	d9 45 08	 fld	 DWORD PTR tv69[ebp]
  00011	5d		 pop	 ebp
  00012	c3		 ret	 0
_sqrtf	ENDP
_TEXT	ENDS
PUBLIC	??_7bad_alloc@std@@6B@				; std::bad_alloc::`vftable'
PUBLIC	??0bad_alloc@std@@QAE@PBD@Z			; std::bad_alloc::bad_alloc
PUBLIC	??_R4bad_alloc@std@@6B@				; std::bad_alloc::`RTTI Complete Object Locator'
PUBLIC	??_R0?AVbad_alloc@std@@@8			; std::bad_alloc `RTTI Type Descriptor'
PUBLIC	??_R3bad_alloc@std@@8				; std::bad_alloc::`RTTI Class Hierarchy Descriptor'
PUBLIC	??_R2bad_alloc@std@@8				; std::bad_alloc::`RTTI Base Class Array'
PUBLIC	??_R1A@?0A@EA@bad_alloc@std@@8			; std::bad_alloc::`RTTI Base Class Descriptor at (0,-1,0,64)'
PUBLIC	??_R1A@?0A@EA@exception@std@@8			; std::exception::`RTTI Base Class Descriptor at (0,-1,0,64)'
PUBLIC	??_R0?AVexception@std@@@8			; std::exception `RTTI Type Descriptor'
PUBLIC	??_R3exception@std@@8				; std::exception::`RTTI Class Hierarchy Descriptor'
PUBLIC	??_R2exception@std@@8				; std::exception::`RTTI Base Class Array'
EXTRN	__imp_??0exception@std@@QAE@ABQBD@Z:PROC
EXTRN	??_7type_info@@6B@:QWORD			; type_info::`vftable'
EXTRN	??_Ebad_alloc@std@@UAEPAXI@Z:PROC		; std::bad_alloc::`vector deleting destructor'
EXTRN	?what@exception@std@@UBEPBDXZ:PROC		; std::exception::what
;	COMDAT ??_R2exception@std@@8
; File c:\program files (x86)\microsoft visual studio 10.0\vc\include\exception
rdata$r	SEGMENT
??_R2exception@std@@8 DD FLAT:??_R1A@?0A@EA@exception@std@@8 ; std::exception::`RTTI Base Class Array'
rdata$r	ENDS
;	COMDAT ??_R3exception@std@@8
rdata$r	SEGMENT
??_R3exception@std@@8 DD 00H				; std::exception::`RTTI Class Hierarchy Descriptor'
	DD	00H
	DD	01H
	DD	FLAT:??_R2exception@std@@8
rdata$r	ENDS
;	COMDAT ??_R0?AVexception@std@@@8
_DATA	SEGMENT
??_R0?AVexception@std@@@8 DD FLAT:??_7type_info@@6B@	; std::exception `RTTI Type Descriptor'
	DD	00H
	DB	'.?AVexception@std@@', 00H
_DATA	ENDS
;	COMDAT ??_R1A@?0A@EA@exception@std@@8
rdata$r	SEGMENT
??_R1A@?0A@EA@exception@std@@8 DD FLAT:??_R0?AVexception@std@@@8 ; std::exception::`RTTI Base Class Descriptor at (0,-1,0,64)'
	DD	00H
	DD	00H
	DD	0ffffffffH
	DD	00H
	DD	040H
	DD	FLAT:??_R3exception@std@@8
rdata$r	ENDS
;	COMDAT ??_R1A@?0A@EA@bad_alloc@std@@8
rdata$r	SEGMENT
??_R1A@?0A@EA@bad_alloc@std@@8 DD FLAT:??_R0?AVbad_alloc@std@@@8 ; std::bad_alloc::`RTTI Base Class Descriptor at (0,-1,0,64)'
	DD	01H
	DD	00H
	DD	0ffffffffH
	DD	00H
	DD	040H
	DD	FLAT:??_R3bad_alloc@std@@8
rdata$r	ENDS
;	COMDAT ??_R2bad_alloc@std@@8
rdata$r	SEGMENT
??_R2bad_alloc@std@@8 DD FLAT:??_R1A@?0A@EA@bad_alloc@std@@8 ; std::bad_alloc::`RTTI Base Class Array'
	DD	FLAT:??_R1A@?0A@EA@exception@std@@8
rdata$r	ENDS
;	COMDAT ??_R3bad_alloc@std@@8
rdata$r	SEGMENT
??_R3bad_alloc@std@@8 DD 00H				; std::bad_alloc::`RTTI Class Hierarchy Descriptor'
	DD	00H
	DD	02H
	DD	FLAT:??_R2bad_alloc@std@@8
rdata$r	ENDS
;	COMDAT ??_R0?AVbad_alloc@std@@@8
_DATA	SEGMENT
??_R0?AVbad_alloc@std@@@8 DD FLAT:??_7type_info@@6B@	; std::bad_alloc `RTTI Type Descriptor'
	DD	00H
	DB	'.?AVbad_alloc@std@@', 00H
_DATA	ENDS
;	COMDAT ??_R4bad_alloc@std@@6B@
rdata$r	SEGMENT
??_R4bad_alloc@std@@6B@ DD 00H				; std::bad_alloc::`RTTI Complete Object Locator'
	DD	00H
	DD	00H
	DD	FLAT:??_R0?AVbad_alloc@std@@@8
	DD	FLAT:??_R3bad_alloc@std@@8
rdata$r	ENDS
;	COMDAT ??_7bad_alloc@std@@6B@
CONST	SEGMENT
??_7bad_alloc@std@@6B@ DD FLAT:??_R4bad_alloc@std@@6B@	; std::bad_alloc::`vftable'
	DD	FLAT:??_Ebad_alloc@std@@UAEPAXI@Z
	DD	FLAT:?what@exception@std@@UBEPBDXZ
; Function compile flags: /Ogsp
CONST	ENDS
;	COMDAT ??0bad_alloc@std@@QAE@PBD@Z
_TEXT	SEGMENT
__Message$ = 8						; size = 4
??0bad_alloc@std@@QAE@PBD@Z PROC			; std::bad_alloc::bad_alloc, COMDAT
; _this$ = ecx

; 345  : 		{	// construct from message string

  00000	55		 push	 ebp
  00001	8b ec		 mov	 ebp, esp
  00003	56		 push	 esi
  00004	8d 45 08	 lea	 eax, DWORD PTR __Message$[ebp]
  00007	50		 push	 eax
  00008	8b f1		 mov	 esi, ecx
  0000a	ff 15 00 00 00
	00		 call	 DWORD PTR __imp_??0exception@std@@QAE@ABQBD@Z
  00010	c7 06 00 00 00
	00		 mov	 DWORD PTR [esi], OFFSET ??_7bad_alloc@std@@6B@

; 346  : 		}

  00016	8b c6		 mov	 eax, esi
  00018	5e		 pop	 esi
  00019	5d		 pop	 ebp
  0001a	c2 04 00	 ret	 4
??0bad_alloc@std@@QAE@PBD@Z ENDP			; std::bad_alloc::bad_alloc
_TEXT	ENDS
PUBLIC	??1bad_alloc@std@@UAE@XZ			; std::bad_alloc::~bad_alloc
EXTRN	__imp_??1exception@std@@UAE@XZ:PROC
; Function compile flags: /Ogsp
;	COMDAT ??1bad_alloc@std@@UAE@XZ
_TEXT	SEGMENT
??1bad_alloc@std@@UAE@XZ PROC				; std::bad_alloc::~bad_alloc, COMDAT
; _this$ = ecx

; 354  : 		{	// destroy the object

  00000	c7 01 00 00 00
	00		 mov	 DWORD PTR [ecx], OFFSET ??_7bad_alloc@std@@6B@

; 355  : 		}

  00006	ff 25 00 00 00
	00		 jmp	 DWORD PTR __imp_??1exception@std@@UAE@XZ
??1bad_alloc@std@@UAE@XZ ENDP				; std::bad_alloc::~bad_alloc
_TEXT	ENDS
EXTRN	??3@YAXPAX@Z:PROC				; operator delete
; Function compile flags: /Ogsp
;	COMDAT ??_Gbad_alloc@std@@UAEPAXI@Z
_TEXT	SEGMENT
___flags$ = 8						; size = 4
??_Gbad_alloc@std@@UAEPAXI@Z PROC			; std::bad_alloc::`scalar deleting destructor', COMDAT
; _this$ = ecx
  00000	55		 push	 ebp
  00001	8b ec		 mov	 ebp, esp
  00003	56		 push	 esi
  00004	8b f1		 mov	 esi, ecx
  00006	c7 06 00 00 00
	00		 mov	 DWORD PTR [esi], OFFSET ??_7bad_alloc@std@@6B@
  0000c	ff 15 00 00 00
	00		 call	 DWORD PTR __imp_??1exception@std@@UAE@XZ
  00012	f6 45 08 01	 test	 BYTE PTR ___flags$[ebp], 1
  00016	74 07		 je	 SHORT $LN1@scalar
  00018	56		 push	 esi
  00019	e8 00 00 00 00	 call	 ??3@YAXPAX@Z		; operator delete
  0001e	59		 pop	 ecx
$LN1@scalar:
  0001f	8b c6		 mov	 eax, esi
  00021	5e		 pop	 esi
  00022	5d		 pop	 ebp
  00023	c2 04 00	 ret	 4
??_Gbad_alloc@std@@UAEPAXI@Z ENDP			; std::bad_alloc::`scalar deleting destructor'
_TEXT	ENDS
PUBLIC	??2@YAPAXIPAX@Z					; operator new
; Function compile flags: /Ogsp
; File c:\program files (x86)\microsoft visual studio 10.0\vc\include\new
;	COMDAT ??2@YAPAXIPAX@Z
_TEXT	SEGMENT
___formal$ = 8						; size = 4
__Where$ = 12						; size = 4
??2@YAPAXIPAX@Z PROC					; operator new, COMDAT

; 56   : 	{	// construct array with placement at _Where

  00000	55		 push	 ebp
  00001	8b ec		 mov	 ebp, esp

; 57   : 	return (_Where);

  00003	8b 45 0c	 mov	 eax, DWORD PTR __Where$[ebp]

; 58   : 	}

  00006	5d		 pop	 ebp
  00007	c3		 ret	 0
??2@YAPAXIPAX@Z ENDP					; operator new
_TEXT	ENDS
PUBLIC	??3@YAXPAX0@Z					; operator delete
; Function compile flags: /Ogsp
;	COMDAT ??3@YAXPAX0@Z
_TEXT	SEGMENT
___formal$ = 8						; size = 4
___formal$ = 12						; size = 4
??3@YAXPAX0@Z PROC					; operator delete, COMDAT

; 62   : 	}

  00000	c3		 ret	 0
??3@YAXPAX0@Z ENDP					; operator delete
_TEXT	ENDS
PUBLIC	??RDistLevelSort@ExcavationSearchingWnd@@QBE_NABH0@Z ; ExcavationSearchingWnd::DistLevelSort::operator()
; Function compile flags: /Ogsp
; File d:\lost saga for developer\youtube\tutorial\source\src\lsclient\gui\excavationwnd.h
;	COMDAT ??RDistLevelSort@ExcavationSearchingWnd@@QBE_NABH0@Z
_TEXT	SEGMENT
_lhs$ = 8						; size = 4
_rhs$ = 12						; size = 4
??RDistLevelSort@ExcavationSearchingWnd@@QBE_NABH0@Z PROC ; ExcavationSearchingWnd::DistLevelSort::operator(), COMDAT
; _this$ = ecx

; 193  : 		{

  00000	55		 push	 ebp
  00001	8b ec		 mov	 ebp, esp

; 194  : 			if( lhs > rhs )

  00003	8b 45 08	 mov	 eax, DWORD PTR _lhs$[ebp]
  00006	8b 00		 mov	 eax, DWORD PTR [eax]
  00008	8b 4d 0c	 mov	 ecx, DWORD PTR _rhs$[ebp]
  0000b	3b 01		 cmp	 eax, DWORD PTR [ecx]
  0000d	0f 9f c0	 setg	 al

; 195  : 				return true;
; 196  : 			return false;
; 197  : 		}

  00010	5d		 pop	 ebp
  00011	c2 08 00	 ret	 8
??RDistLevelSort@ExcavationSearchingWnd@@QBE_NABH0@Z ENDP ; ExcavationSearchingWnd::DistLevelSort::operator()
_TEXT	ENDS
PUBLIC	?SetProcessRadarPos@ExcavationSearchingWnd@@QAEX_N@Z ; ExcavationSearchingWnd::SetProcessRadarPos
; Function compile flags: /Ogsp
;	COMDAT ?SetProcessRadarPos@ExcavationSearchingWnd@@QAEX_N@Z
_TEXT	SEGMENT
_bProcessRadarPos$ = 8					; size = 1
?SetProcessRadarPos@ExcavationSearchingWnd@@QAEX_N@Z PROC ; ExcavationSearchingWnd::SetProcessRadarPos, COMDAT
; _this$ = ecx

; 255  : 	void SetProcessRadarPos(bool bProcessRadarPos) { m_bProcessRadarPos = bProcessRadarPos; }

  00000	55		 push	 ebp
  00001	8b ec		 mov	 ebp, esp
  00003	8a 45 08	 mov	 al, BYTE PTR _bProcessRadarPos$[ebp]
  00006	88 81 8c 02 00
	00		 mov	 BYTE PTR [ecx+652], al
  0000c	5d		 pop	 ebp
  0000d	c2 04 00	 ret	 4
?SetProcessRadarPos@ExcavationSearchingWnd@@QAEX_N@Z ENDP ; ExcavationSearchingWnd::SetProcessRadarPos
_TEXT	ENDS
PUBLIC	?GetEquipTime@ioExcavationItem@@QBEKXZ		; ioExcavationItem::GetEquipTime
; Function compile flags: /Ogsp
; File d:\lost saga for developer\youtube\tutorial\source\src\lsclient\ioexcavationitem.h
;	COMDAT ?GetEquipTime@ioExcavationItem@@QBEKXZ
_TEXT	SEGMENT
?GetEquipTime@ioExcavationItem@@QBEKXZ PROC		; ioExcavationItem::GetEquipTime, COMDAT
; _this$ = ecx

; 63   : 	DWORD GetEquipTime() const { return m_dwEquipTime; }

  00000	8b 81 c8 1b 00
	00		 mov	 eax, DWORD PTR [ecx+7112]
  00006	c3		 ret	 0
?GetEquipTime@ioExcavationItem@@QBEKXZ ENDP		; ioExcavationItem::GetEquipTime
_TEXT	ENDS
PUBLIC	??_7ExcavationResultWnd@@6B@			; ExcavationResultWnd::`vftable'
PUBLIC	??0ExcavationResultWnd@@QAE@XZ			; ExcavationResultWnd::ExcavationResultWnd
PUBLIC	??_R4ExcavationResultWnd@@6B@			; ExcavationResultWnd::`RTTI Complete Object Locator'
PUBLIC	??_R0?AVExcavationResultWnd@@@8			; ExcavationResultWnd `RTTI Type Descriptor'
PUBLIC	??_R3ExcavationResultWnd@@8			; ExcavationResultWnd::`RTTI Class Hierarchy Descriptor'
PUBLIC	??_R2ExcavationResultWnd@@8			; ExcavationResultWnd::`RTTI Base Class Array'
PUBLIC	??_R1A@?0A@EA@ExcavationResultWnd@@8		; ExcavationResultWnd::`RTTI Base Class Descriptor at (0,-1,0,64)'
PUBLIC	??_R1A@?0A@EA@ioWnd@@8				; ioWnd::`RTTI Base Class Descriptor at (0,-1,0,64)'
PUBLIC	??_R0?AVioWnd@@@8				; ioWnd `RTTI Type Descriptor'
PUBLIC	??_R3ioWnd@@8					; ioWnd::`RTTI Class Hierarchy Descriptor'
PUBLIC	??_R2ioWnd@@8					; ioWnd::`RTTI Base Class Array'
PUBLIC	?AddRenderImage@ExcavationResultWnd@@UAEXABVioHashString@@PAVioUIRenderImage@@@Z ; ExcavationResultWnd::AddRenderImage
PUBLIC	?ParseExtraInfo@ExcavationResultWnd@@UAEXAAVioXMLElement@@@Z ; ExcavationResultWnd::ParseExtraInfo
PUBLIC	?OnRender@ExcavationResultWnd@@MAEXXZ		; ExcavationResultWnd::OnRender
PUBLIC	?OnProcess@ExcavationResultWnd@@MAEXM@Z		; ExcavationResultWnd::OnProcess
PUBLIC	?iwm_command@ExcavationResultWnd@@UAEXPAVioWnd@@HK@Z ; ExcavationResultWnd::iwm_command
PUBLIC	?iwm_show@ExcavationResultWnd@@UAEXXZ		; ExcavationResultWnd::iwm_show
PUBLIC	?iwm_hide@ExcavationResultWnd@@UAEXXZ		; ExcavationResultWnd::iwm_hide
PUBLIC	?iwm_esc@ExcavationResultWnd@@UAE_NXZ		; ExcavationResultWnd::iwm_esc
PUBLIC	?iwm_spacebar@ExcavationResultWnd@@UAE_NXZ	; ExcavationResultWnd::iwm_spacebar
PUBLIC	?ReBatchButton@ExcavationResultWnd@@MAEXH@Z	; ExcavationResultWnd::ReBatchButton
EXTRN	__imp_??1ioHashString@@QAE@XZ:PROC
EXTRN	__imp_??1ioWnd@@UAE@XZ:PROC
EXTRN	__imp_??0ioHashString@@QAE@XZ:PROC
EXTRN	__imp_??0ioWnd@@QAE@XZ:PROC
EXTRN	___CxxFrameHandler3:PROC
EXTRN	@__security_check_cookie@4:PROC
EXTRN	__EH_epilog3:PROC
EXTRN	__EH_prolog3:PROC
EXTRN	?AddRenderFrame@ioWnd@@UAEXABVioHashString@@PAVioUIRenderFrame@@@Z:PROC ; ioWnd::AddRenderFrame
EXTRN	?AddTooltipHelp@ioWnd@@UAEXABVioHashString@@00@Z:PROC ; ioWnd::AddTooltipHelp
EXTRN	?AddNamedRenderImage@ioWnd@@UAEXABVioHashString@@PAVioUIRenderImage@@@Z:PROC ; ioWnd::AddNamedRenderImage
EXTRN	?RemoveNamedRenderImage@ioWnd@@UAEXABVioHashString@@@Z:PROC ; ioWnd::RemoveNamedRenderImage
EXTRN	?GetNamedRenderImage@ioWnd@@UBEPAVioUIRenderImage@@ABVioHashString@@@Z:PROC ; ioWnd::GetNamedRenderImage
EXTRN	?SetWindowAlpha@ioWnd@@UAEXH@Z:PROC		; ioWnd::SetWindowAlpha
EXTRN	?SetActive@ioWnd@@UAEXXZ:PROC			; ioWnd::SetActive
EXTRN	?SetInActive@ioWnd@@UAEXXZ:PROC			; ioWnd::SetInActive
EXTRN	?ClearElementImageList@ioWnd@@UAEXXZ:PROC	; ioWnd::ClearElementImageList
EXTRN	?SetSize@ioWnd@@UAEXHH@Z:PROC			; ioWnd::SetSize
EXTRN	?SetPositionToDefault@ioWnd@@UAEXHH_N0@Z:PROC	; ioWnd::SetPositionToDefault
EXTRN	?IsNeedProcess@ioWnd@@UBE_NXZ:PROC		; ioWnd::IsNeedProcess
EXTRN	?IsCanMouseReaction@ioWnd@@UBE_NXZ:PROC		; ioWnd::IsCanMouseReaction
EXTRN	?AddChild@ioWnd@@UAEXPAV1@@Z:PROC		; ioWnd::AddChild
EXTRN	?DeleteChild@ioWnd@@UAEXK@Z:PROC		; ioWnd::DeleteChild
EXTRN	?DeleteAllChild@ioWnd@@UAEXXZ:PROC		; ioWnd::DeleteAllChild
EXTRN	?OnRenderShowAndHide@ioWnd@@MAE_NXZ:PROC	; ioWnd::OnRenderShowAndHide
EXTRN	?OnRenderShowAndHideByDefault@ioWnd@@MAE_NK@Z:PROC ; ioWnd::OnRenderShowAndHideByDefault
EXTRN	?OnRenderShowAndHideByTop@ioWnd@@MAE_NK@Z:PROC	; ioWnd::OnRenderShowAndHideByTop
EXTRN	?OnRenderShowAndHideByDown@ioWnd@@MAE_NK@Z:PROC	; ioWnd::OnRenderShowAndHideByDown
EXTRN	?OnRenderAfterChild@ioWnd@@MAEXXZ:PROC		; ioWnd::OnRenderAfterChild
EXTRN	?OnMouseProcess@ioWnd@@MAEXABVioMouse@@@Z:PROC	; ioWnd::OnMouseProcess
EXTRN	?CheckFrameReSize@ioWnd@@MAEXHHHH@Z:PROC	; ioWnd::CheckFrameReSize
EXTRN	?RenderImageList@ioWnd@@MAEXHHW4UIRenderType@@@Z:PROC ; ioWnd::RenderImageList
EXTRN	?iwm_create@ioWnd@@UAEXXZ:PROC			; ioWnd::iwm_create
EXTRN	?iwm_destroy@ioWnd@@UAEXXZ:PROC			; ioWnd::iwm_destroy
EXTRN	?iwm_lbuttondown@ioWnd@@UAEXABVioMouse@@@Z:PROC	; ioWnd::iwm_lbuttondown
EXTRN	?iwm_lbuttonup@ioWnd@@UAEXABVioMouse@@@Z:PROC	; ioWnd::iwm_lbuttonup
EXTRN	?iwm_lbuttonDBLCLK@ioWnd@@UAEXABVioMouse@@@Z:PROC ; ioWnd::iwm_lbuttonDBLCLK
EXTRN	?iwm_rbuttondown@ioWnd@@UAEXABVioMouse@@@Z:PROC	; ioWnd::iwm_rbuttondown
EXTRN	?iwm_rbuttonup@ioWnd@@UAEXABVioMouse@@@Z:PROC	; ioWnd::iwm_rbuttonup
EXTRN	?iwm_mouseover@ioWnd@@UAEXABVioMouse@@@Z:PROC	; ioWnd::iwm_mouseover
EXTRN	?iwm_mousemove@ioWnd@@UAEXABVioMouse@@@Z:PROC	; ioWnd::iwm_mousemove
EXTRN	?iwm_mouseleave@ioWnd@@UAEXABVioMouse@@@Z:PROC	; ioWnd::iwm_mouseleave
EXTRN	?iwm_vscroll@ioWnd@@UAEXKH@Z:PROC		; ioWnd::iwm_vscroll
EXTRN	?iwm_wheel@ioWnd@@UAEXH@Z:PROC			; ioWnd::iwm_wheel
EXTRN	?iwm_gototop@ioWnd@@UAEXXZ:PROC			; ioWnd::iwm_gototop
EXTRN	?iwm_dragenter@ioWnd@@UAE?AW4IWDropEffect@@PAVioDragItem@@ABVioMouse@@@Z:PROC ; ioWnd::iwm_dragenter
EXTRN	?iwm_dragover@ioWnd@@UAE?AW4IWDropEffect@@PAVioDragItem@@ABVioMouse@@@Z:PROC ; ioWnd::iwm_dragover
EXTRN	?iwm_dragleave@ioWnd@@UAEXXZ:PROC		; ioWnd::iwm_dragleave
EXTRN	?iwm_dropitem@ioWnd@@UAE_NPAVioDragItem@@ABVioMouse@@PAV1@@Z:PROC ; ioWnd::iwm_dropitem
EXTRN	?iwm_dropdone@ioWnd@@UAEXPAVioDragItem@@PAV1@_N@Z:PROC ; ioWnd::iwm_dropdone
EXTRN	?IsEXType@ioWnd@@UBE_NXZ:PROC			; ioWnd::IsEXType
EXTRN	?GetWndType@ioWnd@@UBEKXZ:PROC			; ioWnd::GetWndType
EXTRN	?RenderWnd@ioWnd@@UAEXXZ:PROC			; ioWnd::RenderWnd
EXTRN	?SetIDEX@ioWnd@@UAEXAAK_N@Z:PROC		; ioWnd::SetIDEX
EXTRN	?ParseXML@ioWnd@@UAEXAAVioXMLElement@@@Z:PROC	; ioWnd::ParseXML
EXTRN	?GetHeaderFileName@ioWnd@@UAEPBDXZ:PROC		; ioWnd::GetHeaderFileName
EXTRN	?GetTemplateName@ioWnd@@UAEPBDXZ:PROC		; ioWnd::GetTemplateName
EXTRN	?GetDefClassName@ioWnd@@UBEPBDXZ:PROC		; ioWnd::GetDefClassName
EXTRN	?_Clone@ioWnd@@UAEPAV1@XZ:PROC			; ioWnd::_Clone
EXTRN	?Copy@ioWnd@@UAEXPAV1@@Z:PROC			; ioWnd::Copy
EXTRN	?Save@ioWnd@@UAE_NAAVioXMLElement@@@Z:PROC	; ioWnd::Save
EXTRN	?SetSaveData@ioWnd@@UAEXAAVioXMLElement@@@Z:PROC ; ioWnd::SetSaveData
EXTRN	?SetPosX@ioWnd@@UAEXH@Z:PROC			; ioWnd::SetPosX
EXTRN	?SetPosY@ioWnd@@UAEXH@Z:PROC			; ioWnd::SetPosY
EXTRN	?SetWidth@ioWnd@@UAEXH@Z:PROC			; ioWnd::SetWidth
EXTRN	?SetHeight@ioWnd@@UAEXH@Z:PROC			; ioWnd::SetHeight
EXTRN	?GetNumFixedRenderFrame@ioWnd@@UBEHXZ:PROC	; ioWnd::GetNumFixedRenderFrame
EXTRN	?GetFixedRenderFrameType@ioWnd@@UAEPBDH@Z:PROC	; ioWnd::GetFixedRenderFrameType
EXTRN	?GetRenderFrame@ioWnd@@UAEPAPAVioUIRenderElement@@PBD@Z:PROC ; ioWnd::GetRenderFrame
EXTRN	?GetNumFixedRenderImage@ioWnd@@UBEHXZ:PROC	; ioWnd::GetNumFixedRenderImage
EXTRN	?GetFixedRenderImageType@ioWnd@@UAEPBDH@Z:PROC	; ioWnd::GetFixedRenderImageType
EXTRN	?GetRenderImage@ioWnd@@UAEPAPAVioUIRenderElement@@PBD@Z:PROC ; ioWnd::GetRenderImage
EXTRN	?AddEffect@ioWnd@@UAEXABVioHashString@@PAVioUI3DEffectRender@@@Z:PROC ; ioWnd::AddEffect
EXTRN	?GetEffect@ioWnd@@UAEPAVioUI3DEffectRender@@VioHashString@@@Z:PROC ; ioWnd::GetEffect
EXTRN	??_EExcavationResultWnd@@UAEPAXI@Z:PROC		; ExcavationResultWnd::`vector deleting destructor'
;	COMDAT ??_R2ioWnd@@8
; File d:\lost saga for developer\youtube\tutorial\source\src\lsclient\gui\excavationwnd.cpp
rdata$r	SEGMENT
??_R2ioWnd@@8 DD FLAT:??_R1A@?0A@EA@ioWnd@@8		; ioWnd::`RTTI Base Class Array'
rdata$r	ENDS
;	COMDAT ??_R3ioWnd@@8
rdata$r	SEGMENT
??_R3ioWnd@@8 DD 00H					; ioWnd::`RTTI Class Hierarchy Descriptor'
	DD	00H
	DD	01H
	DD	FLAT:??_R2ioWnd@@8
rdata$r	ENDS
;	COMDAT ??_R0?AVioWnd@@@8
_DATA	SEGMENT
??_R0?AVioWnd@@@8 DD FLAT:??_7type_info@@6B@		; ioWnd `RTTI Type Descriptor'
	DD	00H
	DB	'.?AVioWnd@@', 00H
_DATA	ENDS
;	COMDAT ??_R1A@?0A@EA@ioWnd@@8
rdata$r	SEGMENT
??_R1A@?0A@EA@ioWnd@@8 DD FLAT:??_R0?AVioWnd@@@8	; ioWnd::`RTTI Base Class Descriptor at (0,-1,0,64)'
	DD	00H
	DD	00H
	DD	0ffffffffH
	DD	00H
	DD	040H
	DD	FLAT:??_R3ioWnd@@8
rdata$r	ENDS
;	COMDAT ??_R1A@?0A@EA@ExcavationResultWnd@@8
rdata$r	SEGMENT
??_R1A@?0A@EA@ExcavationResultWnd@@8 DD FLAT:??_R0?AVExcavationResultWnd@@@8 ; ExcavationResultWnd::`RTTI Base Class Descriptor at (0,-1,0,64)'
	DD	01H
	DD	00H
	DD	0ffffffffH
	DD	00H
	DD	040H
	DD	FLAT:??_R3ExcavationResultWnd@@8
rdata$r	ENDS
;	COMDAT ??_R2ExcavationResultWnd@@8
rdata$r	SEGMENT
??_R2ExcavationResultWnd@@8 DD FLAT:??_R1A@?0A@EA@ExcavationResultWnd@@8 ; ExcavationResultWnd::`RTTI Base Class Array'
	DD	FLAT:??_R1A@?0A@EA@ioWnd@@8
rdata$r	ENDS
;	COMDAT ??_R3ExcavationResultWnd@@8
rdata$r	SEGMENT
??_R3ExcavationResultWnd@@8 DD 00H			; ExcavationResultWnd::`RTTI Class Hierarchy Descriptor'
	DD	00H
	DD	02H
	DD	FLAT:??_R2ExcavationResultWnd@@8
rdata$r	ENDS
;	COMDAT ??_R0?AVExcavationResultWnd@@@8
_DATA	SEGMENT
??_R0?AVExcavationResultWnd@@@8 DD FLAT:??_7type_info@@6B@ ; ExcavationResultWnd `RTTI Type Descriptor'
	DD	00H
	DB	'.?AVExcavationResultWnd@@', 00H
_DATA	ENDS
;	COMDAT ??_R4ExcavationResultWnd@@6B@
rdata$r	SEGMENT
??_R4ExcavationResultWnd@@6B@ DD 00H			; ExcavationResultWnd::`RTTI Complete Object Locator'
	DD	00H
	DD	00H
	DD	FLAT:??_R0?AVExcavationResultWnd@@@8
	DD	FLAT:??_R3ExcavationResultWnd@@8
rdata$r	ENDS
;	COMDAT ??_7ExcavationResultWnd@@6B@
CONST	SEGMENT
??_7ExcavationResultWnd@@6B@ DD FLAT:??_R4ExcavationResultWnd@@6B@ ; ExcavationResultWnd::`vftable'
	DD	FLAT:?AddRenderFrame@ioWnd@@UAEXABVioHashString@@PAVioUIRenderFrame@@@Z
	DD	FLAT:?AddRenderImage@ExcavationResultWnd@@UAEXABVioHashString@@PAVioUIRenderImage@@@Z
	DD	FLAT:?AddTooltipHelp@ioWnd@@UAEXABVioHashString@@00@Z
	DD	FLAT:?ParseExtraInfo@ExcavationResultWnd@@UAEXAAVioXMLElement@@@Z
	DD	FLAT:?AddNamedRenderImage@ioWnd@@UAEXABVioHashString@@PAVioUIRenderImage@@@Z
	DD	FLAT:?RemoveNamedRenderImage@ioWnd@@UAEXABVioHashString@@@Z
	DD	FLAT:?GetNamedRenderImage@ioWnd@@UBEPAVioUIRenderImage@@ABVioHashString@@@Z
	DD	FLAT:?SetWindowAlpha@ioWnd@@UAEXH@Z
	DD	FLAT:?SetActive@ioWnd@@UAEXXZ
	DD	FLAT:?SetInActive@ioWnd@@UAEXXZ
	DD	FLAT:?ClearElementImageList@ioWnd@@UAEXXZ
	DD	FLAT:?SetSize@ioWnd@@UAEXHH@Z
	DD	FLAT:?SetPositionToDefault@ioWnd@@UAEXHH_N0@Z
	DD	FLAT:?IsNeedProcess@ioWnd@@UBE_NXZ
	DD	FLAT:?IsCanMouseReaction@ioWnd@@UBE_NXZ
	DD	FLAT:?AddChild@ioWnd@@UAEXPAV1@@Z
	DD	FLAT:?DeleteChild@ioWnd@@UAEXK@Z
	DD	FLAT:?DeleteAllChild@ioWnd@@UAEXXZ
	DD	FLAT:?OnRenderShowAndHide@ioWnd@@MAE_NXZ
	DD	FLAT:?OnRenderShowAndHideByDefault@ioWnd@@MAE_NK@Z
	DD	FLAT:?OnRenderShowAndHideByTop@ioWnd@@MAE_NK@Z
	DD	FLAT:?OnRenderShowAndHideByDown@ioWnd@@MAE_NK@Z
	DD	FLAT:?OnRender@ExcavationResultWnd@@MAEXXZ
	DD	FLAT:?OnRenderAfterChild@ioWnd@@MAEXXZ
	DD	FLAT:?OnProcess@ExcavationResultWnd@@MAEXM@Z
	DD	FLAT:?OnMouseProcess@ioWnd@@MAEXABVioMouse@@@Z
	DD	FLAT:?CheckFrameReSize@ioWnd@@MAEXHHHH@Z
	DD	FLAT:?RenderImageList@ioWnd@@MAEXHHW4UIRenderType@@@Z
	DD	FLAT:?iwm_create@ioWnd@@UAEXXZ
	DD	FLAT:?iwm_destroy@ioWnd@@UAEXXZ
	DD	FLAT:?iwm_lbuttondown@ioWnd@@UAEXABVioMouse@@@Z
	DD	FLAT:?iwm_lbuttonup@ioWnd@@UAEXABVioMouse@@@Z
	DD	FLAT:?iwm_lbuttonDBLCLK@ioWnd@@UAEXABVioMouse@@@Z
	DD	FLAT:?iwm_rbuttondown@ioWnd@@UAEXABVioMouse@@@Z
	DD	FLAT:?iwm_rbuttonup@ioWnd@@UAEXABVioMouse@@@Z
	DD	FLAT:?iwm_command@ExcavationResultWnd@@UAEXPAVioWnd@@HK@Z
	DD	FLAT:?iwm_mouseover@ioWnd@@UAEXABVioMouse@@@Z
	DD	FLAT:?iwm_mousemove@ioWnd@@UAEXABVioMouse@@@Z
	DD	FLAT:?iwm_mouseleave@ioWnd@@UAEXABVioMouse@@@Z
	DD	FLAT:?iwm_vscroll@ioWnd@@UAEXKH@Z
	DD	FLAT:?iwm_wheel@ioWnd@@UAEXH@Z
	DD	FLAT:?iwm_show@ExcavationResultWnd@@UAEXXZ
	DD	FLAT:?iwm_hide@ExcavationResultWnd@@UAEXXZ
	DD	FLAT:?iwm_esc@ExcavationResultWnd@@UAE_NXZ
	DD	FLAT:?iwm_spacebar@ExcavationResultWnd@@UAE_NXZ
	DD	FLAT:?iwm_gototop@ioWnd@@UAEXXZ
	DD	FLAT:?iwm_dragenter@ioWnd@@UAE?AW4IWDropEffect@@PAVioDragItem@@ABVioMouse@@@Z
	DD	FLAT:?iwm_dragover@ioWnd@@UAE?AW4IWDropEffect@@PAVioDragItem@@ABVioMouse@@@Z
	DD	FLAT:?iwm_dragleave@ioWnd@@UAEXXZ
	DD	FLAT:?iwm_dropitem@ioWnd@@UAE_NPAVioDragItem@@ABVioMouse@@PAV1@@Z
	DD	FLAT:?iwm_dropdone@ioWnd@@UAEXPAVioDragItem@@PAV1@_N@Z
	DD	FLAT:?IsEXType@ioWnd@@UBE_NXZ
	DD	FLAT:?GetWndType@ioWnd@@UBEKXZ
	DD	FLAT:?RenderWnd@ioWnd@@UAEXXZ
	DD	FLAT:?SetIDEX@ioWnd@@UAEXAAK_N@Z
	DD	FLAT:?ParseXML@ioWnd@@UAEXAAVioXMLElement@@@Z
	DD	FLAT:?GetHeaderFileName@ioWnd@@UAEPBDXZ
	DD	FLAT:?GetTemplateName@ioWnd@@UAEPBDXZ
	DD	FLAT:?GetDefClassName@ioWnd@@UBEPBDXZ
	DD	FLAT:?_Clone@ioWnd@@UAEPAV1@XZ
	DD	FLAT:?Copy@ioWnd@@UAEXPAV1@@Z
	DD	FLAT:?Save@ioWnd@@UAE_NAAVioXMLElement@@@Z
	DD	FLAT:?SetSaveData@ioWnd@@UAEXAAVioXMLElement@@@Z
	DD	FLAT:?SetPosX@ioWnd@@UAEXH@Z
	DD	FLAT:?SetPosY@ioWnd@@UAEXH@Z
	DD	FLAT:?SetWidth@ioWnd@@UAEXH@Z
	DD	FLAT:?SetHeight@ioWnd@@UAEXH@Z
	DD	FLAT:?GetNumFixedRenderFrame@ioWnd@@UBEHXZ
	DD	FLAT:?GetFixedRenderFrameType@ioWnd@@UAEPBDH@Z
	DD	FLAT:?GetRenderFrame@ioWnd@@UAEPAPAVioUIRenderElement@@PBD@Z
	DD	FLAT:?GetNumFixedRenderImage@ioWnd@@UBEHXZ
	DD	FLAT:?GetFixedRenderImageType@ioWnd@@UAEPBDH@Z
	DD	FLAT:?GetRenderImage@ioWnd@@UAEPAPAVioUIRenderElement@@PBD@Z
	DD	FLAT:?AddEffect@ioWnd@@UAEXABVioHashString@@PAVioUI3DEffectRender@@@Z
	DD	FLAT:?GetEffect@ioWnd@@UAEPAVioUI3DEffectRender@@VioHashString@@@Z
	DD	FLAT:??_EExcavationResultWnd@@UAEPAXI@Z
	DD	FLAT:?ReBatchButton@ExcavationResultWnd@@MAEXH@Z
CONST	ENDS
;	COMDAT xdata$x
xdata$x	SEGMENT
__ehfuncinfo$??0ExcavationResultWnd@@QAE@XZ DD 019930522H
	DD	07H
	DD	FLAT:__unwindtable$??0ExcavationResultWnd@@QAE@XZ
	DD	2 DUP(00H)
	DD	2 DUP(00H)
	DD	00H
	DD	01H
__unwindtable$??0ExcavationResultWnd@@QAE@XZ DD 0ffffffffH
	DD	FLAT:__unwindfunclet$??0ExcavationResultWnd@@QAE@XZ$0
	DD	00H
	DD	FLAT:__unwindfunclet$??0ExcavationResultWnd@@QAE@XZ$1
	DD	01H
	DD	FLAT:__unwindfunclet$??0ExcavationResultWnd@@QAE@XZ$2
	DD	02H
	DD	FLAT:__unwindfunclet$??0ExcavationResultWnd@@QAE@XZ$3
	DD	03H
	DD	FLAT:__unwindfunclet$??0ExcavationResultWnd@@QAE@XZ$4
	DD	04H
	DD	FLAT:__unwindfunclet$??0ExcavationResultWnd@@QAE@XZ$5
	DD	05H
	DD	FLAT:__unwindfunclet$??0ExcavationResultWnd@@QAE@XZ$6
; Function compile flags: /Ogsp
xdata$x	ENDS
;	COMDAT ??0ExcavationResultWnd@@QAE@XZ
_TEXT	SEGMENT
_this$ = -16						; size = 4
__$EHRec$ = -12						; size = 12
??0ExcavationResultWnd@@QAE@XZ PROC			; ExcavationResultWnd::ExcavationResultWnd, COMDAT
; _this$ = ecx

; 47   : {

  00000	6a 04		 push	 4
  00002	b8 00 00 00 00	 mov	 eax, __ehhandler$??0ExcavationResultWnd@@QAE@XZ
  00007	e8 00 00 00 00	 call	 __EH_prolog3
  0000c	8b f1		 mov	 esi, ecx
  0000e	89 75 f0	 mov	 DWORD PTR _this$[ebp], esi
  00011	ff 15 00 00 00
	00		 call	 DWORD PTR __imp_??0ioWnd@@QAE@XZ
  00017	8b 3d 00 00 00
	00		 mov	 edi, DWORD PTR __imp_??0ioHashString@@QAE@XZ
  0001d	33 db		 xor	 ebx, ebx
  0001f	8d 8e b0 01 00
	00		 lea	 ecx, DWORD PTR [esi+432]
  00025	89 5d fc	 mov	 DWORD PTR __$EHRec$[ebp+8], ebx
  00028	c7 06 00 00 00
	00		 mov	 DWORD PTR [esi], OFFSET ??_7ExcavationResultWnd@@6B@
  0002e	ff d7		 call	 edi
  00030	8d 8e c0 01 00
	00		 lea	 ecx, DWORD PTR [esi+448]
  00036	c6 45 fc 01	 mov	 BYTE PTR __$EHRec$[ebp+8], 1
  0003a	ff d7		 call	 edi
  0003c	8d 8e d0 01 00
	00		 lea	 ecx, DWORD PTR [esi+464]
  00042	c6 45 fc 02	 mov	 BYTE PTR __$EHRec$[ebp+8], 2
  00046	ff d7		 call	 edi
  00048	8d 8e e0 01 00
	00		 lea	 ecx, DWORD PTR [esi+480]
  0004e	c6 45 fc 03	 mov	 BYTE PTR __$EHRec$[ebp+8], 3
  00052	ff d7		 call	 edi
  00054	8d 8e f0 01 00
	00		 lea	 ecx, DWORD PTR [esi+496]
  0005a	c6 45 fc 04	 mov	 BYTE PTR __$EHRec$[ebp+8], 4
  0005e	ff d7		 call	 edi
  00060	8d 8e 00 02 00
	00		 lea	 ecx, DWORD PTR [esi+512]
  00066	c6 45 fc 05	 mov	 BYTE PTR __$EHRec$[ebp+8], 5
  0006a	ff d7		 call	 edi
  0006c	8d 8e 10 02 00
	00		 lea	 ecx, DWORD PTR [esi+528]
  00072	c6 45 fc 06	 mov	 BYTE PTR __$EHRec$[ebp+8], 6
  00076	ff d7		 call	 edi

; 48   : 	m_pRedBackEffect  = NULL;
; 49   : 	m_pBlueBackEffect = NULL;
; 50   : 	m_pNumText  = NULL;
; 51   : 	m_pPlusText = NULL;
; 52   : 
; 53   : 	m_pIcon	= NULL;
; 54   : 
; 55   : 	m_bFinalResult       = false;
; 56   : 
; 57   : 	m_fIconScale         = 0.0f;

  00078	0f 57 c0	 xorps	 xmm0, xmm0
  0007b	89 9e 64 01 00
	00		 mov	 DWORD PTR [esi+356], ebx
  00081	89 9e 68 01 00
	00		 mov	 DWORD PTR [esi+360], ebx
  00087	89 9e 6c 01 00
	00		 mov	 DWORD PTR [esi+364], ebx
  0008d	89 9e 70 01 00
	00		 mov	 DWORD PTR [esi+368], ebx
  00093	89 9e 60 01 00
	00		 mov	 DWORD PTR [esi+352], ebx
  00099	88 9e 88 01 00
	00		 mov	 BYTE PTR [esi+392], bl
  0009f	f3 0f 11 86 8c
	01 00 00	 movss	 DWORD PTR [esi+396], xmm0

; 58   : 	m_dwIconScaleTime    = 0;

  000a7	89 9e 90 01 00
	00		 mov	 DWORD PTR [esi+400], ebx

; 59   : 	m_dwRollingTime      = 0;

  000ad	89 9e 94 01 00
	00		 mov	 DWORD PTR [esi+404], ebx

; 60   : 	m_dwRollingTotalTime = 0;

  000b3	89 9e 98 01 00
	00		 mov	 DWORD PTR [esi+408], ebx

; 61   : 
; 62   : 	m_dwRollingCheckTime = 0;

  000b9	89 9e 9c 01 00
	00		 mov	 DWORD PTR [esi+412], ebx

; 63   : 	m_dwRollingEndTime   = 0;

  000bf	89 9e a0 01 00
	00		 mov	 DWORD PTR [esi+416], ebx

; 64   : 	m_dwScaleStartTime   = 0;

  000c5	89 9e a4 01 00
	00		 mov	 DWORD PTR [esi+420], ebx

; 65   : 
; 66   : 	m_iCurIconArray      = 0;

  000cb	89 9e a8 01 00
	00		 mov	 DWORD PTR [esi+424], ebx

; 67   : 	m_iCurGradeArray     = 0;

  000d1	89 9e ac 01 00
	00		 mov	 DWORD PTR [esi+428], ebx

; 68   : 
; 69   : 	m_iArtifactType      = 0;

  000d7	89 9e 74 01 00
	00		 mov	 DWORD PTR [esi+372], ebx

; 70   : 	m_iArtifactValue1    = 0;

  000dd	89 9e 78 01 00
	00		 mov	 DWORD PTR [esi+376], ebx

; 71   : 	m_iArtifactValue2    = 0;

  000e3	89 9e 7c 01 00
	00		 mov	 DWORD PTR [esi+380], ebx

; 72   : 	m_bAlarm             = false;

  000e9	88 9e 80 01 00
	00		 mov	 BYTE PTR [esi+384], bl

; 73   : 	m_fMapRate           = 0.0f;

  000ef	f3 0f 11 86 84
	01 00 00	 movss	 DWORD PTR [esi+388], xmm0

; 74   : 
; 75   : 	m_pPlayStage         = NULL;

  000f7	89 9e 20 02 00
	00		 mov	 DWORD PTR [esi+544], ebx

; 76   : }

  000fd	8b c6		 mov	 eax, esi
  000ff	e8 00 00 00 00	 call	 __EH_epilog3
  00104	c3		 ret	 0
_TEXT	ENDS
;	COMDAT text$x
text$x	SEGMENT
__unwindfunclet$??0ExcavationResultWnd@@QAE@XZ$0:
  00000	8b 4d f0	 mov	 ecx, DWORD PTR _this$[ebp]
  00003	ff 25 00 00 00
	00		 jmp	 DWORD PTR __imp_??1ioWnd@@UAE@XZ
__unwindfunclet$??0ExcavationResultWnd@@QAE@XZ$1:
  00009	8b 4d f0	 mov	 ecx, DWORD PTR _this$[ebp]
  0000c	81 c1 b0 01 00
	00		 add	 ecx, 432		; 000001b0H
  00012	ff 25 00 00 00
	00		 jmp	 DWORD PTR __imp_??1ioHashString@@QAE@XZ
__unwindfunclet$??0ExcavationResultWnd@@QAE@XZ$2:
  00018	8b 4d f0	 mov	 ecx, DWORD PTR _this$[ebp]
  0001b	81 c1 c0 01 00
	00		 add	 ecx, 448		; 000001c0H
  00021	ff 25 00 00 00
	00		 jmp	 DWORD PTR __imp_??1ioHashString@@QAE@XZ
__unwindfunclet$??0ExcavationResultWnd@@QAE@XZ$3:
  00027	8b 4d f0	 mov	 ecx, DWORD PTR _this$[ebp]
  0002a	81 c1 d0 01 00
	00		 add	 ecx, 464		; 000001d0H
  00030	ff 25 00 00 00
	00		 jmp	 DWORD PTR __imp_??1ioHashString@@QAE@XZ
__unwindfunclet$??0ExcavationResultWnd@@QAE@XZ$4:
  00036	8b 4d f0	 mov	 ecx, DWORD PTR _this$[ebp]
  00039	81 c1 e0 01 00
	00		 add	 ecx, 480		; 000001e0H
  0003f	ff 25 00 00 00
	00		 jmp	 DWORD PTR __imp_??1ioHashString@@QAE@XZ
__unwindfunclet$??0ExcavationResultWnd@@QAE@XZ$5:
  00045	8b 4d f0	 mov	 ecx, DWORD PTR _this$[ebp]
  00048	81 c1 f0 01 00
	00		 add	 ecx, 496		; 000001f0H
  0004e	ff 25 00 00 00
	00		 jmp	 DWORD PTR __imp_??1ioHashString@@QAE@XZ
__unwindfunclet$??0ExcavationResultWnd@@QAE@XZ$6:
  00054	8b 4d f0	 mov	 ecx, DWORD PTR _this$[ebp]
  00057	81 c1 00 02 00
	00		 add	 ecx, 512		; 00000200H
  0005d	ff 25 00 00 00
	00		 jmp	 DWORD PTR __imp_??1ioHashString@@QAE@XZ
__ehhandler$??0ExcavationResultWnd@@QAE@XZ:
  00063	8b 54 24 08	 mov	 edx, DWORD PTR [esp+8]
  00067	8d 42 0c	 lea	 eax, DWORD PTR [edx+12]
  0006a	8b 4a ec	 mov	 ecx, DWORD PTR [edx-20]
  0006d	33 c8		 xor	 ecx, eax
  0006f	e8 00 00 00 00	 call	 @__security_check_cookie@4
  00074	b8 00 00 00 00	 mov	 eax, OFFSET __ehfuncinfo$??0ExcavationResultWnd@@QAE@XZ
  00079	e9 00 00 00 00	 jmp	 ___CxxFrameHandler3
text$x	ENDS
??0ExcavationResultWnd@@QAE@XZ ENDP			; ExcavationResultWnd::ExcavationResultWnd
PUBLIC	??1ExcavationResultWnd@@UAE@XZ			; ExcavationResultWnd::~ExcavationResultWnd
;	COMDAT xdata$x
xdata$x	SEGMENT
__ehfuncinfo$??1ExcavationResultWnd@@UAE@XZ DD 019930522H
	DD	08H
	DD	FLAT:__unwindtable$??1ExcavationResultWnd@@UAE@XZ
	DD	2 DUP(00H)
	DD	2 DUP(00H)
	DD	00H
	DD	01H
__unwindtable$??1ExcavationResultWnd@@UAE@XZ DD 0ffffffffH
	DD	FLAT:__unwindfunclet$??1ExcavationResultWnd@@UAE@XZ$0
	DD	00H
	DD	FLAT:__unwindfunclet$??1ExcavationResultWnd@@UAE@XZ$1
	DD	01H
	DD	FLAT:__unwindfunclet$??1ExcavationResultWnd@@UAE@XZ$2
	DD	02H
	DD	FLAT:__unwindfunclet$??1ExcavationResultWnd@@UAE@XZ$3
	DD	03H
	DD	FLAT:__unwindfunclet$??1ExcavationResultWnd@@UAE@XZ$4
	DD	04H
	DD	FLAT:__unwindfunclet$??1ExcavationResultWnd@@UAE@XZ$5
	DD	05H
	DD	FLAT:__unwindfunclet$??1ExcavationResultWnd@@UAE@XZ$6
	DD	06H
	DD	FLAT:__unwindfunclet$??1ExcavationResultWnd@@UAE@XZ$7
; Function compile flags: /Ogsp
xdata$x	ENDS
;	COMDAT ??1ExcavationResultWnd@@UAE@XZ
_TEXT	SEGMENT
_this$ = -16						; size = 4
__$EHRec$ = -12						; size = 12
??1ExcavationResultWnd@@UAE@XZ PROC			; ExcavationResultWnd::~ExcavationResultWnd, COMDAT
; _this$ = ecx

; 79   : {

  00000	6a 04		 push	 4
  00002	b8 00 00 00 00	 mov	 eax, __ehhandler$??1ExcavationResultWnd@@UAE@XZ
  00007	e8 00 00 00 00	 call	 __EH_prolog3
  0000c	8b f1		 mov	 esi, ecx
  0000e	89 75 f0	 mov	 DWORD PTR _this$[ebp], esi
  00011	c7 06 00 00 00
	00		 mov	 DWORD PTR [esi], OFFSET ??_7ExcavationResultWnd@@6B@

; 80   : 	SAFEDELETE(m_pRedBackEffect);

  00017	8b 8e 64 01 00
	00		 mov	 ecx, DWORD PTR [esi+356]
  0001d	33 db		 xor	 ebx, ebx
  0001f	c7 45 fc 07 00
	00 00		 mov	 DWORD PTR __$EHRec$[ebp+8], 7
  00026	3b cb		 cmp	 ecx, ebx
  00028	74 0d		 je	 SHORT $LN5@Excavation
  0002a	8b 01		 mov	 eax, DWORD PTR [ecx]
  0002c	6a 01		 push	 1
  0002e	ff 50 40	 call	 DWORD PTR [eax+64]
  00031	89 9e 64 01 00
	00		 mov	 DWORD PTR [esi+356], ebx
$LN5@Excavation:

; 81   : 	SAFEDELETE(m_pBlueBackEffect);

  00037	8b 8e 68 01 00
	00		 mov	 ecx, DWORD PTR [esi+360]
  0003d	3b cb		 cmp	 ecx, ebx
  0003f	74 0d		 je	 SHORT $LN4@Excavation
  00041	8b 01		 mov	 eax, DWORD PTR [ecx]
  00043	6a 01		 push	 1
  00045	ff 50 40	 call	 DWORD PTR [eax+64]
  00048	89 9e 68 01 00
	00		 mov	 DWORD PTR [esi+360], ebx
$LN4@Excavation:

; 82   : 
; 83   : 	SAFEDELETE(m_pNumText);

  0004e	8b 8e 6c 01 00
	00		 mov	 ecx, DWORD PTR [esi+364]
  00054	3b cb		 cmp	 ecx, ebx
  00056	74 0d		 je	 SHORT $LN3@Excavation
  00058	8b 01		 mov	 eax, DWORD PTR [ecx]
  0005a	6a 01		 push	 1
  0005c	ff 50 40	 call	 DWORD PTR [eax+64]
  0005f	89 9e 6c 01 00
	00		 mov	 DWORD PTR [esi+364], ebx
$LN3@Excavation:

; 84   : 	SAFEDELETE(m_pPlusText);

  00065	8b 8e 70 01 00
	00		 mov	 ecx, DWORD PTR [esi+368]
  0006b	3b cb		 cmp	 ecx, ebx
  0006d	74 0d		 je	 SHORT $LN2@Excavation
  0006f	8b 01		 mov	 eax, DWORD PTR [ecx]
  00071	6a 01		 push	 1
  00073	ff 50 40	 call	 DWORD PTR [eax+64]
  00076	89 9e 70 01 00
	00		 mov	 DWORD PTR [esi+368], ebx
$LN2@Excavation:

; 85   : 
; 86   : 	SAFEDELETE(m_pIcon);

  0007c	8b 8e 60 01 00
	00		 mov	 ecx, DWORD PTR [esi+352]
  00082	3b cb		 cmp	 ecx, ebx
  00084	74 0d		 je	 SHORT $LN1@Excavation
  00086	8b 01		 mov	 eax, DWORD PTR [ecx]
  00088	6a 01		 push	 1
  0008a	ff 50 40	 call	 DWORD PTR [eax+64]
  0008d	89 9e 60 01 00
	00		 mov	 DWORD PTR [esi+352], ebx
$LN1@Excavation:

; 87   : }

  00093	8b 3d 00 00 00
	00		 mov	 edi, DWORD PTR __imp_??1ioHashString@@QAE@XZ
  00099	8d 8e 10 02 00
	00		 lea	 ecx, DWORD PTR [esi+528]
  0009f	c6 45 fc 06	 mov	 BYTE PTR __$EHRec$[ebp+8], 6
  000a3	ff d7		 call	 edi
  000a5	8d 8e 00 02 00
	00		 lea	 ecx, DWORD PTR [esi+512]
  000ab	c6 45 fc 05	 mov	 BYTE PTR __$EHRec$[ebp+8], 5
  000af	ff d7		 call	 edi
  000b1	8d 8e f0 01 00
	00		 lea	 ecx, DWORD PTR [esi+496]
  000b7	c6 45 fc 04	 mov	 BYTE PTR __$EHRec$[ebp+8], 4
  000bb	ff d7		 call	 edi
  000bd	8d 8e e0 01 00
	00		 lea	 ecx, DWORD PTR [esi+480]
  000c3	c6 45 fc 03	 mov	 BYTE PTR __$EHRec$[ebp+8], 3
  000c7	ff d7		 call	 edi
  000c9	8d 8e d0 01 00
	00		 lea	 ecx, DWORD PTR [esi+464]
  000cf	c6 45 fc 02	 mov	 BYTE PTR __$EHRec$[ebp+8], 2
  000d3	ff d7		 call	 edi
  000d5	8d 8e c0 01 00
	00		 lea	 ecx, DWORD PTR [esi+448]
  000db	c6 45 fc 01	 mov	 BYTE PTR __$EHRec$[ebp+8], 1
  000df	ff d7		 call	 edi
  000e1	8d 8e b0 01 00
	00		 lea	 ecx, DWORD PTR [esi+432]
  000e7	88 5d fc	 mov	 BYTE PTR __$EHRec$[ebp+8], bl
  000ea	ff d7		 call	 edi
  000ec	83 4d fc ff	 or	 DWORD PTR __$EHRec$[ebp+8], -1
  000f0	8b ce		 mov	 ecx, esi
  000f2	ff 15 00 00 00
	00		 call	 DWORD PTR __imp_??1ioWnd@@UAE@XZ
  000f8	e8 00 00 00 00	 call	 __EH_epilog3
  000fd	c3		 ret	 0
_TEXT	ENDS
;	COMDAT text$x
text$x	SEGMENT
__unwindfunclet$??1ExcavationResultWnd@@UAE@XZ$0:
  00000	8b 4d f0	 mov	 ecx, DWORD PTR _this$[ebp]
  00003	ff 25 00 00 00
	00		 jmp	 DWORD PTR __imp_??1ioWnd@@UAE@XZ
__unwindfunclet$??1ExcavationResultWnd@@UAE@XZ$1:
  00009	8b 4d f0	 mov	 ecx, DWORD PTR _this$[ebp]
  0000c	81 c1 b0 01 00
	00		 add	 ecx, 432		; 000001b0H
  00012	ff 25 00 00 00
	00		 jmp	 DWORD PTR __imp_??1ioHashString@@QAE@XZ
__unwindfunclet$??1ExcavationResultWnd@@UAE@XZ$2:
  00018	8b 4d f0	 mov	 ecx, DWORD PTR _this$[ebp]
  0001b	81 c1 c0 01 00
	00		 add	 ecx, 448		; 000001c0H
  00021	ff 25 00 00 00
	00		 jmp	 DWORD PTR __imp_??1ioHashString@@QAE@XZ
__unwindfunclet$??1ExcavationResultWnd@@UAE@XZ$3:
  00027	8b 4d f0	 mov	 ecx, DWORD PTR _this$[ebp]
  0002a	81 c1 d0 01 00
	00		 add	 ecx, 464		; 000001d0H
  00030	ff 25 00 00 00
	00		 jmp	 DWORD PTR __imp_??1ioHashString@@QAE@XZ
__unwindfunclet$??1ExcavationResultWnd@@UAE@XZ$4:
  00036	8b 4d f0	 mov	 ecx, DWORD PTR _this$[ebp]
  00039	81 c1 e0 01 00
	00		 add	 ecx, 480		; 000001e0H
  0003f	ff 25 00 00 00
	00		 jmp	 DWORD PTR __imp_??1ioHashString@@QAE@XZ
__unwindfunclet$??1ExcavationResultWnd@@UAE@XZ$5:
  00045	8b 4d f0	 mov	 ecx, DWORD PTR _this$[ebp]
  00048	81 c1 f0 01 00
	00		 add	 ecx, 496		; 000001f0H
  0004e	ff 25 00 00 00
	00		 jmp	 DWORD PTR __imp_??1ioHashString@@QAE@XZ
__unwindfunclet$??1ExcavationResultWnd@@UAE@XZ$6:
  00054	8b 4d f0	 mov	 ecx, DWORD PTR _this$[ebp]
  00057	81 c1 00 02 00
	00		 add	 ecx, 512		; 00000200H
  0005d	ff 25 00 00 00
	00		 jmp	 DWORD PTR __imp_??1ioHashString@@QAE@XZ
__unwindfunclet$??1ExcavationResultWnd@@UAE@XZ$7:
  00063	8b 4d f0	 mov	 ecx, DWORD PTR _this$[ebp]
  00066	81 c1 10 02 00
	00		 add	 ecx, 528		; 00000210H
  0006c	ff 25 00 00 00
	00		 jmp	 DWORD PTR __imp_??1ioHashString@@QAE@XZ
__ehhandler$??1ExcavationResultWnd@@UAE@XZ:
  00072	8b 54 24 08	 mov	 edx, DWORD PTR [esp+8]
  00076	8d 42 0c	 lea	 eax, DWORD PTR [edx+12]
  00079	8b 4a ec	 mov	 ecx, DWORD PTR [edx-20]
  0007c	33 c8		 xor	 ecx, eax
  0007e	e8 00 00 00 00	 call	 @__security_check_cookie@4
  00083	b8 00 00 00 00	 mov	 eax, OFFSET __ehfuncinfo$??1ExcavationResultWnd@@UAE@XZ
  00088	e9 00 00 00 00	 jmp	 ___CxxFrameHandler3
text$x	ENDS
??1ExcavationResultWnd@@UAE@XZ ENDP			; ExcavationResultWnd::~ExcavationResultWnd
PUBLIC	__$ArrayPad$
EXTRN	__imp_?PlaySoundA@ioSoundManager@@QAEKABVioHashString@@HK@Z:PROC
EXTRN	__imp_?GetSingleton@ioSoundManager@@SAAAV1@XZ:PROC
EXTRN	__imp_?IsEmpty@ioHashString@@QBE_NXZ:PROC
EXTRN	__imp_??4ioHashString@@QAEAAV0@PBD@Z:PROC
EXTRN	__imp_?GetLoopSec@ioFrameTimer@@QBEKXZ:PROC
EXTRN	__imp_?GetSingleton@ioFrameTimer@@SAAAV1@XZ:PROC
EXTRN	___security_cookie:DWORD
; Function compile flags: /Ogsp
;	COMDAT ?iwm_show@ExcavationResultWnd@@UAEXXZ
_TEXT	SEGMENT
_szHack1$ = -12						; size = 6
__$ArrayPad$ = -4					; size = 4
?iwm_show@ExcavationResultWnd@@UAEXXZ PROC		; ExcavationResultWnd::iwm_show, COMDAT
; _this$ = ecx

; 129  : {

  00000	55		 push	 ebp
  00001	8b ec		 mov	 ebp, esp
  00003	83 ec 0c	 sub	 esp, 12			; 0000000cH
  00006	a1 00 00 00 00	 mov	 eax, DWORD PTR ___security_cookie
  0000b	33 c5		 xor	 eax, ebp
  0000d	89 45 fc	 mov	 DWORD PTR __$ArrayPad$[ebp], eax
  00010	53		 push	 ebx
  00011	56		 push	 esi
  00012	8b f1		 mov	 esi, ecx

; 130  : 	DWORD dwCurTime = FRAMEGETTIME();

  00014	ff 15 00 00 00
	00		 call	 DWORD PTR __imp_?GetSingleton@ioFrameTimer@@SAAAV1@XZ
  0001a	8b c8		 mov	 ecx, eax
  0001c	ff 15 00 00 00
	00		 call	 DWORD PTR __imp_?GetLoopSec@ioFrameTimer@@QBEKXZ

; 131  : 	m_dwRollingEndTime = dwCurTime + m_dwRollingTotalTime;

  00022	8b 8e 98 01 00
	00		 mov	 ecx, DWORD PTR [esi+408]

; 132  : 	m_dwRollingCheckTime = 0;
; 133  : 	m_dwScaleStartTime   = 0;
; 134  : 
; 135  : 	m_iCurIconArray = -1;

  00028	83 8e a8 01 00
	00 ff		 or	 DWORD PTR [esi+424], -1

; 136  : 	m_iCurGradeArray= -1;

  0002f	83 8e ac 01 00
	00 ff		 or	 DWORD PTR [esi+428], -1
  00036	03 c8		 add	 ecx, eax
  00038	33 db		 xor	 ebx, ebx

; 137  : 	m_bFinalResult  = false;
; 138  : 
; 139  : 	char szHack1[] = {'?','?','?','?','?','\0'};
; 140  : 	m_szResultArtifact = szHack1;

  0003a	8d 45 f4	 lea	 eax, DWORD PTR _szHack1$[ebp]
  0003d	89 8e a0 01 00
	00		 mov	 DWORD PTR [esi+416], ecx
  00043	50		 push	 eax
  00044	8d 8e 10 02 00
	00		 lea	 ecx, DWORD PTR [esi+528]
  0004a	89 9e 9c 01 00
	00		 mov	 DWORD PTR [esi+412], ebx
  00050	89 9e a4 01 00
	00		 mov	 DWORD PTR [esi+420], ebx
  00056	88 9e 88 01 00
	00		 mov	 BYTE PTR [esi+392], bl
  0005c	c7 45 f4 3f 3f
	3f 3f		 mov	 DWORD PTR _szHack1$[ebp], 1061109567 ; 3f3f3f3fH
  00063	66 c7 45 f8 3f
	00		 mov	 WORD PTR _szHack1$[ebp+4], 63 ; 0000003fH
  00069	ff 15 00 00 00
	00		 call	 DWORD PTR __imp_??4ioHashString@@QAEAAV0@PBD@Z

; 141  : 
; 142  : 	ReBatchButton( ROLLING_BTN );

  0006f	8b 06		 mov	 eax, DWORD PTR [esi]
  00071	6a 01		 push	 1
  00073	8b ce		 mov	 ecx, esi
  00075	ff 90 30 01 00
	00		 call	 DWORD PTR [eax+304]

; 143  : 	if( !m_szRollingSound.IsEmpty() )

  0007b	81 c6 b0 01 00
	00		 add	 esi, 432		; 000001b0H
  00081	8b ce		 mov	 ecx, esi
  00083	ff 15 00 00 00
	00		 call	 DWORD PTR __imp_?IsEmpty@ioHashString@@QBE_NXZ
  00089	84 c0		 test	 al, al
  0008b	75 12		 jne	 SHORT $LN1@iwm_show

; 144  : 		g_SoundMgr.PlaySound( m_szRollingSound, DSBVOLUME_MAX, PSM_LOOP | PSM_THREAD );

  0008d	6a 06		 push	 6
  0008f	53		 push	 ebx
  00090	56		 push	 esi
  00091	ff 15 00 00 00
	00		 call	 DWORD PTR __imp_?GetSingleton@ioSoundManager@@SAAAV1@XZ
  00097	8b c8		 mov	 ecx, eax
  00099	ff 15 00 00 00
	00		 call	 DWORD PTR __imp_?PlaySoundA@ioSoundManager@@QAEKABVioHashString@@HK@Z
$LN1@iwm_show:

; 145  : }

  0009f	8b 4d fc	 mov	 ecx, DWORD PTR __$ArrayPad$[ebp]
  000a2	5e		 pop	 esi
  000a3	33 cd		 xor	 ecx, ebp
  000a5	5b		 pop	 ebx
  000a6	e8 00 00 00 00	 call	 @__security_check_cookie@4
  000ab	c9		 leave
  000ac	c3		 ret	 0
?iwm_show@ExcavationResultWnd@@UAEXXZ ENDP		; ExcavationResultWnd::iwm_show
_TEXT	ENDS
PUBLIC	?_Adopt@_Iterator_base0@std@@QAEXPBX@Z		; std::_Iterator_base0::_Adopt
; Function compile flags: /Ogsp
; File c:\program files (x86)\microsoft visual studio 10.0\vc\include\xutility
;	COMDAT ?_Adopt@_Iterator_base0@std@@QAEXPBX@Z
_TEXT	SEGMENT
___formal$ = 8						; size = 4
?_Adopt@_Iterator_base0@std@@QAEXPBX@Z PROC		; std::_Iterator_base0::_Adopt, COMDAT
; _this$ = ecx

; 49   : 		}

  00000	c2 04 00	 ret	 4
?_Adopt@_Iterator_base0@std@@QAEXPBX@Z ENDP		; std::_Iterator_base0::_Adopt
_TEXT	ENDS
PUBLIC	__real@3f266666
PUBLIC	__real@3f59999a
PUBLIC	__real@c0a00000
PUBLIC	__real@3f800000
PUBLIC	__real@4f800000
EXTRN	__imp_?PrintText@ioFontManager@@QAAXMMMPBDZZ:PROC
EXTRN	__imp_?c_str@ioHashString@@QBEPBDXZ:PROC
EXTRN	__imp_?SetTextColor@ioFontManager@@QAEXK@Z:PROC
EXTRN	__imp_?SetAlignType@ioFontManager@@QAEXW4TextAlignType@@@Z:PROC
EXTRN	__imp_?SetBkColor@ioFontManager@@QAEXHHH@Z:PROC
EXTRN	__imp_?SetTextStyle@ioFontManager@@QAEXW4TextStyle@@@Z:PROC
EXTRN	__imp_?GetSingleton@ioFontManager@@SAAAV1@XZ:PROC
EXTRN	__imp_?RenderNum@ioUIRenderImage@@QAEXMMHMMW4UIRenderType@@W4TextureFilterOption@@0W4RenerNumerFormatting@1@@Z:PROC
EXTRN	__imp_?GetDerivedPosY@ioWnd@@QBEHXZ:PROC
EXTRN	__imp_?GetDerivedPosX@ioWnd@@QBEHXZ:PROC
EXTRN	__imp_?OnRender@ioWnd@@MAEXXZ:PROC
;	COMDAT __real@3f266666
; File d:\lost saga for developer\youtube\tutorial\source\src\lsclient\stdafx.h
CONST	SEGMENT
__real@3f266666 DD 03f266666r			; 0.65
CONST	ENDS
;	COMDAT __real@3f59999a
CONST	SEGMENT
__real@3f59999a DD 03f59999ar			; 0.85
CONST	ENDS
;	COMDAT __real@c0a00000
CONST	SEGMENT
__real@c0a00000 DD 0c0a00000r			; -5
CONST	ENDS
;	COMDAT __real@3f800000
CONST	SEGMENT
__real@3f800000 DD 03f800000r			; 1
CONST	ENDS
;	COMDAT __real@4f800000
CONST	SEGMENT
__real@4f800000 DD 04f800000r			; 4.29497e+009
; Function compile flags: /Ogsp
; File d:\lost saga for developer\youtube\tutorial\source\src\lsclient\gui\excavationwnd.cpp
CONST	ENDS
;	COMDAT ?OnRender@ExcavationResultWnd@@MAEXXZ
_TEXT	SEGMENT
tv429 = -16						; size = 4
_iCurPos$535093 = -16					; size = 4
tv420 = -12						; size = 4
_iReinforce$535092 = -8					; size = 4
tv367 = -4						; size = 4
_iXPos$ = -4						; size = 4
?OnRender@ExcavationResultWnd@@MAEXXZ PROC		; ExcavationResultWnd::OnRender, COMDAT
; _this$ = ecx

; 246  : {

  00000	55		 push	 ebp
  00001	8b ec		 mov	 ebp, esp
  00003	83 ec 10	 sub	 esp, 16			; 00000010H
  00006	53		 push	 ebx
  00007	56		 push	 esi
  00008	57		 push	 edi
  00009	8b f9		 mov	 edi, ecx

; 247  : 	ioWnd::OnRender();

  0000b	ff 15 00 00 00
	00		 call	 DWORD PTR __imp_?OnRender@ioWnd@@MAEXXZ

; 248  : 
; 249  : 	int iXPos = GetDerivedPosX();

  00011	8b cf		 mov	 ecx, edi
  00013	ff 15 00 00 00
	00		 call	 DWORD PTR __imp_?GetDerivedPosX@ioWnd@@QBEHXZ

; 250  : 	int iYPos = GetDerivedPosY();

  00019	8b cf		 mov	 ecx, edi
  0001b	89 45 fc	 mov	 DWORD PTR _iXPos$[ebp], eax
  0001e	ff 15 00 00 00
	00		 call	 DWORD PTR __imp_?GetDerivedPosY@ioWnd@@QBEHXZ

; 251  : 
; 252  : 	enum
; 253  : 	{
; 254  : 		ICON_X		= 170,
; 255  : 		ICON_Y		= 98,
; 256  : 
; 257  : 		GRADE_X     = 170,
; 258  : 		GRADE_Y     = 144,
; 259  : 
; 260  : 		NAME_X		= 170,
; 261  : 		NAME_Y		= 166,
; 262  : 
; 263  : 		DESC_X		= 170,
; 264  : 		DESC_Y		= 198,
; 265  : 
; 266  : 		ARTIFACT_X  = 170,
; 267  : 		ARTIFACT_Y  = 218,
; 268  : 
; 269  : 		REINFORCE_X	= 170,
; 270  : 		REINFORCE_Y	= 112,
; 271  : 
; 272  : 		TEXT_SIZE	= 15,
; 273  : 		TEXT_GAP	= 5,
; 274  : 		PLUS_SIZE   = 14,
; 275  : 	};
; 276  : 
; 277  : 	// Back
; 278  : 	if( m_bFinalResult && m_pBlueBackEffect )

  00024	8a 8f 88 01 00
	00		 mov	 cl, BYTE PTR [edi+392]
  0002a	33 f6		 xor	 esi, esi
  0002c	8b d8		 mov	 ebx, eax
  0002e	84 c9		 test	 cl, cl
  00030	74 14		 je	 SHORT $LN19@OnRender
  00032	39 b7 68 01 00
	00		 cmp	 DWORD PTR [edi+360], esi
  00038	74 08		 je	 SHORT $LN9@OnRender

; 279  : 		m_pBlueBackEffect->Render( iXPos+ICON_X, iYPos+ICON_Y, UI_RENDER_MULTIPLY );

  0003a	8b 8f 68 01 00
	00		 mov	 ecx, DWORD PTR [edi+360]
  00040	eb 12		 jmp	 SHORT $LN16@OnRender
$LN9@OnRender:

; 280  : 	else if( !m_bFinalResult && m_pRedBackEffect )

  00042	84 c9		 test	 cl, cl
  00044	75 3e		 jne	 SHORT $LN7@OnRender
$LN19@OnRender:
  00046	39 b7 64 01 00
	00		 cmp	 DWORD PTR [edi+356], esi
  0004c	74 36		 je	 SHORT $LN7@OnRender

; 281  : 		m_pRedBackEffect->Render( iXPos+ICON_X, iYPos+ICON_Y, UI_RENDER_MULTIPLY );

  0004e	8b 8f 64 01 00
	00		 mov	 ecx, DWORD PTR [edi+356]
$LN16@OnRender:
  00054	8b 01		 mov	 eax, DWORD PTR [ecx]
  00056	56		 push	 esi
  00057	56		 push	 esi
  00058	56		 push	 esi
  00059	6a 08		 push	 8
  0005b	0f 57 c0	 xorps	 xmm0, xmm0
  0005e	8d 53 62	 lea	 edx, DWORD PTR [ebx+98]
  00061	f3 0f 2a c2	 cvtsi2ss xmm0, edx
  00065	8b 55 fc	 mov	 edx, DWORD PTR _iXPos$[ebp]
  00068	51		 push	 ecx
  00069	51		 push	 ecx
  0006a	f3 0f 11 44 24
	04		 movss	 DWORD PTR [esp+4], xmm0
  00070	81 c2 aa 00 00
	00		 add	 edx, 170		; 000000aaH
  00076	0f 57 c0	 xorps	 xmm0, xmm0
  00079	f3 0f 2a c2	 cvtsi2ss xmm0, edx
  0007d	f3 0f 11 04 24	 movss	 DWORD PTR [esp], xmm0
  00082	ff 10		 call	 DWORD PTR [eax]
$LN7@OnRender:

; 282  : 	
; 283  : 	// Icon
; 284  : 	if( m_pIcon )

  00084	39 b7 60 01 00
	00		 cmp	 DWORD PTR [edi+352], esi
  0008a	74 36		 je	 SHORT $LN6@OnRender

; 285  : 		m_pIcon->Render( iXPos+ICON_X, iYPos+ICON_Y, UI_RENDER_NORMAL, TFO_BILINEAR );

  0008c	8b 8f 60 01 00
	00		 mov	 ecx, DWORD PTR [edi+352]
  00092	8b 01		 mov	 eax, DWORD PTR [ecx]
  00094	56		 push	 esi
  00095	56		 push	 esi
  00096	6a 01		 push	 1
  00098	56		 push	 esi
  00099	0f 57 c0	 xorps	 xmm0, xmm0
  0009c	8d 53 62	 lea	 edx, DWORD PTR [ebx+98]
  0009f	f3 0f 2a c2	 cvtsi2ss xmm0, edx
  000a3	8b 55 fc	 mov	 edx, DWORD PTR _iXPos$[ebp]
  000a6	51		 push	 ecx
  000a7	51		 push	 ecx
  000a8	f3 0f 11 44 24
	04		 movss	 DWORD PTR [esp+4], xmm0
  000ae	81 c2 aa 00 00
	00		 add	 edx, 170		; 000000aaH
  000b4	0f 57 c0	 xorps	 xmm0, xmm0
  000b7	f3 0f 2a c2	 cvtsi2ss xmm0, edx
  000bb	f3 0f 11 04 24	 movss	 DWORD PTR [esp], xmm0
  000c0	ff 10		 call	 DWORD PTR [eax]
$LN6@OnRender:

; 286  : 
; 287  : 	// Reinforce
; 288  : 	if( m_bFinalResult && m_pNumText && m_pPlusText && m_iArtifactType > ioExcavationManager::EXTRAITEM_START_TYPE )

  000c2	80 bf 88 01 00
	00 00		 cmp	 BYTE PTR [edi+392], 0
  000c9	0f 84 f8 00 00
	00		 je	 $LN5@OnRender
  000cf	39 b7 6c 01 00
	00		 cmp	 DWORD PTR [edi+364], esi
  000d5	0f 84 ec 00 00
	00		 je	 $LN5@OnRender
  000db	39 b7 70 01 00
	00		 cmp	 DWORD PTR [edi+368], esi
  000e1	0f 84 e0 00 00
	00		 je	 $LN5@OnRender
  000e7	81 bf 74 01 00
	00 10 27 00 00	 cmp	 DWORD PTR [edi+372], 10000 ; 00002710H
  000f1	0f 8e d0 00 00
	00		 jle	 $LN5@OnRender

; 289  : 	{
; 290  : 		int iReinforce = m_iArtifactValue2 / PRESENT_EXTRAITEM_DIVISION_2;   // /10000  value2   

  000f7	8b 87 7c 01 00
	00		 mov	 eax, DWORD PTR [edi+380]
  000fd	99		 cdq
  000fe	b9 10 27 00 00	 mov	 ecx, 10000		; 00002710H
  00103	f7 f9		 idiv	 ecx

; 291  : 		int iCurPos = 0;
; 292  : 		int iDefaultPos = iXPos + REINFORCE_X;

  00105	8b 4d fc	 mov	 ecx, DWORD PTR _iXPos$[ebp]
  00108	81 c1 aa 00 00
	00		 add	 ecx, 170		; 000000aaH
  0010e	89 45 f8	 mov	 DWORD PTR _iReinforce$535092[ebp], eax

; 293  : 
; 294  : 		int iTotalSize = PLUS_SIZE;      
; 295  : 		if( iReinforce < 10 )

  00111	83 f8 0a	 cmp	 eax, 10			; 0000000aH
  00114	7d 04		 jge	 SHORT $LN4@OnRender

; 296  : 			iTotalSize += TEXT_SIZE;

  00116	6a 1d		 push	 29			; 0000001dH
  00118	eb 24		 jmp	 SHORT $LN17@OnRender
$LN4@OnRender:

; 297  : 		else if( iReinforce < FLOAT100 )

  0011a	b8 64 00 00 00	 mov	 eax, 100		; 00000064H
  0011f	db 45 f8	 fild	 DWORD PTR _iReinforce$535092[ebp]
  00122	89 45 f0	 mov	 DWORD PTR tv429[ebp], eax
  00125	db 45 f0	 fild	 DWORD PTR tv429[ebp]
  00128	85 c0		 test	 eax, eax
  0012a	79 06		 jns	 SHORT $LN15@OnRender
  0012c	d8 05 00 00 00
	00		 fadd	 DWORD PTR __real@4f800000
$LN15@OnRender:
  00132	df f1		 fcomip	 ST(1)
  00134	dd d8		 fstp	 ST(0)
  00136	76 04		 jbe	 SHORT $LN2@OnRender

; 298  : 			iTotalSize += TEXT_SIZE * 2;

  00138	6a 2c		 push	 44			; 0000002cH

; 299  : 		else

  0013a	eb 02		 jmp	 SHORT $LN17@OnRender
$LN2@OnRender:

; 300  : 			iTotalSize += TEXT_SIZE * 3;

  0013c	6a 3b		 push	 59			; 0000003bH
$LN17@OnRender:

; 301  : 
; 302  : 		iCurPos = iDefaultPos - (iTotalSize / 2);
; 303  : 		m_pNumText->RenderNum( iCurPos + ( PLUS_SIZE - ( TEXT_GAP - 1 ) ), iYPos + REINFORCE_Y, iReinforce, -TEXT_GAP );

  0013e	f3 0f 10 0d 00
	00 00 00	 movss	 xmm1, DWORD PTR __real@3f800000
  00146	58		 pop	 eax
  00147	56		 push	 esi
  00148	56		 push	 esi
  00149	99		 cdq
  0014a	56		 push	 esi
  0014b	2b c2		 sub	 eax, edx
  0014d	56		 push	 esi
  0014e	d1 f8		 sar	 eax, 1
  00150	2b c8		 sub	 ecx, eax
  00152	51		 push	 ecx
  00153	51		 push	 ecx
  00154	f3 0f 11 4c 24
	04		 movss	 DWORD PTR [esp+4], xmm1
  0015a	f3 0f 10 0d 00
	00 00 00	 movss	 xmm1, DWORD PTR __real@c0a00000
  00162	f3 0f 11 0c 24	 movss	 DWORD PTR [esp], xmm1
  00167	ff 75 f8	 push	 DWORD PTR _iReinforce$535092[ebp]
  0016a	0f 57 c0	 xorps	 xmm0, xmm0
  0016d	51		 push	 ecx
  0016e	51		 push	 ecx
  0016f	8d 43 70	 lea	 eax, DWORD PTR [ebx+112]
  00172	f3 0f 2a c0	 cvtsi2ss xmm0, eax
  00176	89 4d f0	 mov	 DWORD PTR _iCurPos$535093[ebp], ecx
  00179	f3 0f 11 44 24
	04		 movss	 DWORD PTR [esp+4], xmm0
  0017f	f3 0f 11 45 f4	 movss	 DWORD PTR tv420[ebp], xmm0
  00184	83 c1 0a	 add	 ecx, 10			; 0000000aH
  00187	0f 57 c0	 xorps	 xmm0, xmm0
  0018a	f3 0f 2a c1	 cvtsi2ss xmm0, ecx
  0018e	8b 8f 6c 01 00
	00		 mov	 ecx, DWORD PTR [edi+364]
  00194	f3 0f 11 04 24	 movss	 DWORD PTR [esp], xmm0
  00199	ff 15 00 00 00
	00		 call	 DWORD PTR __imp_?RenderNum@ioUIRenderImage@@QAEXMMHMMW4UIRenderType@@W4TextureFilterOption@@0W4RenerNumerFormatting@1@@Z

; 304  : 		m_pPlusText->Render( iCurPos, iYPos + REINFORCE_Y );

  0019f	8b 8f 70 01 00
	00		 mov	 ecx, DWORD PTR [edi+368]
  001a5	f3 0f 10 45 f4	 movss	 xmm0, DWORD PTR tv420[ebp]
  001aa	8b 01		 mov	 eax, DWORD PTR [ecx]
  001ac	56		 push	 esi
  001ad	56		 push	 esi
  001ae	56		 push	 esi
  001af	56		 push	 esi
  001b0	51		 push	 ecx
  001b1	51		 push	 ecx
  001b2	f3 0f 11 44 24
	04		 movss	 DWORD PTR [esp+4], xmm0
  001b8	66 0f 6e 45 f0	 movd	 xmm0, DWORD PTR _iCurPos$535093[ebp]
  001bd	0f 5b c0	 cvtdq2ps xmm0, xmm0
  001c0	f3 0f 11 04 24	 movss	 DWORD PTR [esp], xmm0
  001c5	ff 10		 call	 DWORD PTR [eax]
$LN5@OnRender:

; 305  : 	}
; 306  : 
; 307  : 	// Text
; 308  : 	g_FontMgr.SetTextStyle( TS_NORMAL );

  001c7	56		 push	 esi
  001c8	8b 35 00 00 00
	00		 mov	 esi, DWORD PTR __imp_?GetSingleton@ioFontManager@@SAAAV1@XZ
  001ce	ff d6		 call	 esi
  001d0	8b c8		 mov	 ecx, eax
  001d2	ff 15 00 00 00
	00		 call	 DWORD PTR __imp_?SetTextStyle@ioFontManager@@QAEXW4TextStyle@@@Z

; 309  : 	g_FontMgr.SetBkColor( 0, 0, 0 );

  001d8	33 c0		 xor	 eax, eax
  001da	50		 push	 eax
  001db	50		 push	 eax
  001dc	50		 push	 eax
  001dd	ff d6		 call	 esi
  001df	8b c8		 mov	 ecx, eax
  001e1	ff 15 00 00 00
	00		 call	 DWORD PTR __imp_?SetBkColor@ioFontManager@@QAEXHHH@Z

; 310  : 	g_FontMgr.SetAlignType( TAT_CENTER );

  001e7	6a 01		 push	 1
  001e9	ff d6		 call	 esi
  001eb	8b c8		 mov	 ecx, eax
  001ed	ff 15 00 00 00
	00		 call	 DWORD PTR __imp_?SetAlignType@ioFontManager@@QAEXW4TextAlignType@@@Z

; 311  : 
; 312  : 	g_FontMgr.SetTextColor( TCT_DEFAULT_BLUE );

  001f3	68 b2 46 16 ff	 push	 -15317326		; ff1646b2H
  001f8	ff d6		 call	 esi
  001fa	8b c8		 mov	 ecx, eax
  001fc	ff 15 00 00 00
	00		 call	 DWORD PTR __imp_?SetTextColor@ioFontManager@@QAEXK@Z

; 313  : 	g_FontMgr.PrintText( iXPos + GRADE_X, iYPos + GRADE_Y, FONT_SIZE_17, m_szGrade.c_str() );

  00202	8b 45 fc	 mov	 eax, DWORD PTR _iXPos$[ebp]
  00205	05 aa 00 00 00	 add	 eax, 170		; 000000aaH
  0020a	0f 57 c0	 xorps	 xmm0, xmm0
  0020d	f3 0f 2a c0	 cvtsi2ss xmm0, eax
  00211	8d 8f 00 02 00
	00		 lea	 ecx, DWORD PTR [edi+512]
  00217	f3 0f 11 45 fc	 movss	 DWORD PTR tv367[ebp], xmm0
  0021c	ff 15 00 00 00
	00		 call	 DWORD PTR __imp_?c_str@ioHashString@@QBEPBDXZ
  00222	f3 0f 10 05 00
	00 00 00	 movss	 xmm0, DWORD PTR __real@3f59999a
  0022a	50		 push	 eax
  0022b	83 ec 0c	 sub	 esp, 12			; 0000000cH
  0022e	f3 0f 11 44 24
	08		 movss	 DWORD PTR [esp+8], xmm0
  00234	8d 83 90 00 00
	00		 lea	 eax, DWORD PTR [ebx+144]
  0023a	0f 57 c0	 xorps	 xmm0, xmm0
  0023d	f3 0f 2a c0	 cvtsi2ss xmm0, eax
  00241	f3 0f 11 44 24
	04		 movss	 DWORD PTR [esp+4], xmm0
  00247	f3 0f 10 45 fc	 movss	 xmm0, DWORD PTR tv367[ebp]
  0024c	f3 0f 11 04 24	 movss	 DWORD PTR [esp], xmm0
  00251	ff d6		 call	 esi
  00253	50		 push	 eax
  00254	ff 15 00 00 00
	00		 call	 DWORD PTR __imp_?PrintText@ioFontManager@@QAAXMMMPBDZZ
  0025a	83 c4 14	 add	 esp, 20			; 00000014H

; 314  : 
; 315  : 	g_FontMgr.SetTextColor( TCT_DEFAULT_BLUE );

  0025d	68 b2 46 16 ff	 push	 -15317326		; ff1646b2H
  00262	ff d6		 call	 esi
  00264	8b c8		 mov	 ecx, eax
  00266	ff 15 00 00 00
	00		 call	 DWORD PTR __imp_?SetTextColor@ioFontManager@@QAEXK@Z

; 316  : 	g_FontMgr.PrintText( iXPos + NAME_X, iYPos + NAME_Y, FONT_SIZE_17, m_szName.c_str() );

  0026c	8d 8f e0 01 00
	00		 lea	 ecx, DWORD PTR [edi+480]
  00272	ff 15 00 00 00
	00		 call	 DWORD PTR __imp_?c_str@ioHashString@@QBEPBDXZ
  00278	f3 0f 10 05 00
	00 00 00	 movss	 xmm0, DWORD PTR __real@3f59999a
  00280	50		 push	 eax
  00281	83 ec 0c	 sub	 esp, 12			; 0000000cH
  00284	f3 0f 11 44 24
	08		 movss	 DWORD PTR [esp+8], xmm0
  0028a	8d 83 a6 00 00
	00		 lea	 eax, DWORD PTR [ebx+166]
  00290	0f 57 c0	 xorps	 xmm0, xmm0
  00293	f3 0f 2a c0	 cvtsi2ss xmm0, eax
  00297	f3 0f 11 44 24
	04		 movss	 DWORD PTR [esp+4], xmm0
  0029d	f3 0f 10 45 fc	 movss	 xmm0, DWORD PTR tv367[ebp]
  002a2	f3 0f 11 04 24	 movss	 DWORD PTR [esp], xmm0
  002a7	ff d6		 call	 esi
  002a9	50		 push	 eax
  002aa	ff 15 00 00 00
	00		 call	 DWORD PTR __imp_?PrintText@ioFontManager@@QAAXMMMPBDZZ
  002b0	83 c4 14	 add	 esp, 20			; 00000014H

; 317  : 
; 318  : 	g_FontMgr.SetTextColor( TCT_DEFAULT_GRAY );

  002b3	68 6e 6e 6e ff	 push	 -9539986		; ff6e6e6eH
  002b8	ff d6		 call	 esi
  002ba	8b c8		 mov	 ecx, eax
  002bc	ff 15 00 00 00
	00		 call	 DWORD PTR __imp_?SetTextColor@ioFontManager@@QAEXK@Z

; 319  : 	g_FontMgr.PrintText( iXPos + DESC_X, iYPos + DESC_Y, FONT_SIZE_13, m_szDesc.c_str() );

  002c2	8d 8f f0 01 00
	00		 lea	 ecx, DWORD PTR [edi+496]
  002c8	ff 15 00 00 00
	00		 call	 DWORD PTR __imp_?c_str@ioHashString@@QBEPBDXZ
  002ce	f3 0f 10 05 00
	00 00 00	 movss	 xmm0, DWORD PTR __real@3f266666
  002d6	50		 push	 eax
  002d7	83 ec 0c	 sub	 esp, 12			; 0000000cH
  002da	f3 0f 11 44 24
	08		 movss	 DWORD PTR [esp+8], xmm0
  002e0	8d 83 c6 00 00
	00		 lea	 eax, DWORD PTR [ebx+198]
  002e6	0f 57 c0	 xorps	 xmm0, xmm0
  002e9	f3 0f 2a c0	 cvtsi2ss xmm0, eax
  002ed	f3 0f 11 44 24
	04		 movss	 DWORD PTR [esp+4], xmm0
  002f3	f3 0f 10 45 fc	 movss	 xmm0, DWORD PTR tv367[ebp]
  002f8	f3 0f 11 04 24	 movss	 DWORD PTR [esp], xmm0
  002fd	ff d6		 call	 esi
  002ff	50		 push	 eax
  00300	ff 15 00 00 00
	00		 call	 DWORD PTR __imp_?PrintText@ioFontManager@@QAAXMMMPBDZZ
  00306	83 c4 14	 add	 esp, 20			; 00000014H

; 320  : 
; 321  : 	g_FontMgr.SetTextColor( TCT_DEFAULT_GREEN );

  00309	68 22 72 11 ff	 push	 -15633886		; ff117222H
  0030e	ff d6		 call	 esi
  00310	8b c8		 mov	 ecx, eax
  00312	ff 15 00 00 00
	00		 call	 DWORD PTR __imp_?SetTextColor@ioFontManager@@QAEXK@Z

; 322  : 	g_FontMgr.PrintText( iXPos + ARTIFACT_X, iYPos + ARTIFACT_Y, FONT_SIZE_13, m_szResultArtifact.c_str() );

  00318	8d 8f 10 02 00
	00		 lea	 ecx, DWORD PTR [edi+528]
  0031e	ff 15 00 00 00
	00		 call	 DWORD PTR __imp_?c_str@ioHashString@@QBEPBDXZ
  00324	f3 0f 10 05 00
	00 00 00	 movss	 xmm0, DWORD PTR __real@3f266666
  0032c	50		 push	 eax
  0032d	83 ec 0c	 sub	 esp, 12			; 0000000cH
  00330	f3 0f 11 44 24
	08		 movss	 DWORD PTR [esp+8], xmm0
  00336	0f 57 c0	 xorps	 xmm0, xmm0
  00339	81 c3 da 00 00
	00		 add	 ebx, 218		; 000000daH
  0033f	f3 0f 2a c3	 cvtsi2ss xmm0, ebx
  00343	f3 0f 11 44 24
	04		 movss	 DWORD PTR [esp+4], xmm0
  00349	f3 0f 10 45 fc	 movss	 xmm0, DWORD PTR tv367[ebp]
  0034e	f3 0f 11 04 24	 movss	 DWORD PTR [esp], xmm0
  00353	ff d6		 call	 esi
  00355	50		 push	 eax
  00356	ff 15 00 00 00
	00		 call	 DWORD PTR __imp_?PrintText@ioFontManager@@QAAXMMMPBDZZ
  0035c	83 c4 14	 add	 esp, 20			; 00000014H
  0035f	5f		 pop	 edi
  00360	5e		 pop	 esi
  00361	5b		 pop	 ebx

; 323  : }

  00362	c9		 leave
  00363	c3		 ret	 0
?OnRender@ExcavationResultWnd@@MAEXXZ ENDP		; ExcavationResultWnd::OnRender
_TEXT	ENDS
PUBLIC	??_R0?AVMyInventoryWnd@@@8			; MyInventoryWnd `RTTI Type Descriptor'
EXTRN	?ShowExtraItemTabDirect@MyInventoryWnd@@QAEXHH@Z:PROC ; MyInventoryWnd::ShowExtraItemTabDirect
EXTRN	?GetClassType@ioMyInfo@@QAEHXZ:PROC		; ioMyInfo::GetClassType
EXTRN	?GetSingleton@ioMyInfo@@SAAAV1@XZ:PROC		; ioMyInfo::GetSingleton
EXTRN	__imp_?FindWnd@ioGUIManager@@QAEPAVioWnd@@K@Z:PROC
EXTRN	?GetSingleton@ioSP2GUIManager@@SAAAV1@XZ:PROC	; ioSP2GUIManager::GetSingleton
EXTRN	__imp_?HideWnd@ioWnd@@QAEXXZ:PROC
EXTRN	__imp_?GetID@ioWnd@@QBEKXZ:PROC
EXTRN	___RTDynamicCast:PROC
;	COMDAT ??_R0?AVMyInventoryWnd@@@8
_DATA	SEGMENT
??_R0?AVMyInventoryWnd@@@8 DD FLAT:??_7type_info@@6B@	; MyInventoryWnd `RTTI Type Descriptor'
	DD	00H
	DB	'.?AVMyInventoryWnd@@', 00H
; Function compile flags: /Ogsp
_DATA	ENDS
;	COMDAT ?iwm_command@ExcavationResultWnd@@UAEXPAVioWnd@@HK@Z
_TEXT	SEGMENT
_pWnd$ = 8						; size = 4
_cmd$ = 12						; size = 4
_param$ = 16						; size = 4
?iwm_command@ExcavationResultWnd@@UAEXPAVioWnd@@HK@Z PROC ; ExcavationResultWnd::iwm_command, COMDAT
; _this$ = ecx

; 341  : {

  00000	55		 push	 ebp
  00001	8b ec		 mov	 ebp, esp
  00003	56		 push	 esi
  00004	8b f1		 mov	 esi, ecx

; 342  : 	DWORD dwID = pWnd->GetID();

  00006	8b 4d 08	 mov	 ecx, DWORD PTR _pWnd$[ebp]
  00009	ff 15 00 00 00
	00		 call	 DWORD PTR __imp_?GetID@ioWnd@@QBEKXZ

; 343  : 
; 344  : 	switch( dwID )

  0000f	83 f8 01	 cmp	 eax, 1
  00012	74 18		 je	 SHORT $LN5@iwm_comman
  00014	83 c0 fe	 add	 eax, -2			; fffffffeH
  00017	83 f8 01	 cmp	 eax, 1
  0001a	77 63		 ja	 SHORT $LN3@iwm_comman

; 355  : 			}
; 356  : 		}
; 357  : 		break;
; 358  : 	case ID_X:
; 359  : 	case ID_OK:
; 360  : 		if( cmd == IOBN_BTNUP )

  0001c	83 7d 0c 11	 cmp	 DWORD PTR _cmd$[ebp], 17 ; 00000011H
  00020	75 5d		 jne	 SHORT $LN3@iwm_comman

; 361  : 		{
; 362  : 			HideWnd();

  00022	8b ce		 mov	 ecx, esi
  00024	ff 15 00 00 00
	00		 call	 DWORD PTR __imp_?HideWnd@ioWnd@@QAEXXZ

; 363  : 		}
; 364  : 		break;

  0002a	eb 53		 jmp	 SHORT $LN3@iwm_comman
$LN5@iwm_comman:

; 345  : 	{
; 346  : 	case ID_GO:
; 347  : 		if( cmd == IOBN_BTNUP )

  0002c	83 7d 0c 11	 cmp	 DWORD PTR _cmd$[ebp], 17 ; 00000011H
  00030	75 4d		 jne	 SHORT $LN3@iwm_comman

; 348  : 		{
; 349  : 			HideWnd();

  00032	8b ce		 mov	 ecx, esi
  00034	ff 15 00 00 00
	00		 call	 DWORD PTR __imp_?HideWnd@ioWnd@@QAEXXZ

; 350  : 
; 351  : 			MyInventoryWnd *pInvenWnd = dynamic_cast<MyInventoryWnd*>(g_GUIMgr.FindWnd(MY_INVENTORY_WND));

  0003a	6a 00		 push	 0
  0003c	68 00 00 00 00	 push	 OFFSET ??_R0?AVMyInventoryWnd@@@8
  00041	68 00 00 00 00	 push	 OFFSET ??_R0?AVioWnd@@@8
  00046	6a 00		 push	 0
  00048	68 96 17 00 00	 push	 6038			; 00001796H
  0004d	e8 00 00 00 00	 call	 ?GetSingleton@ioSP2GUIManager@@SAAAV1@XZ ; ioSP2GUIManager::GetSingleton
  00052	8b c8		 mov	 ecx, eax
  00054	ff 15 00 00 00
	00		 call	 DWORD PTR __imp_?FindWnd@ioGUIManager@@QAEPAVioWnd@@K@Z
  0005a	50		 push	 eax
  0005b	e8 00 00 00 00	 call	 ___RTDynamicCast
  00060	8b f0		 mov	 esi, eax
  00062	83 c4 14	 add	 esp, 20			; 00000014H

; 352  : 			if( pInvenWnd )

  00065	85 f6		 test	 esi, esi
  00067	74 16		 je	 SHORT $LN3@iwm_comman

; 353  : 			{
; 354  : 				pInvenWnd->ShowExtraItemTabDirect( g_MyInfo.GetClassType() );

  00069	6a ff		 push	 -1
  0006b	e8 00 00 00 00	 call	 ?GetSingleton@ioMyInfo@@SAAAV1@XZ ; ioMyInfo::GetSingleton
  00070	8b c8		 mov	 ecx, eax
  00072	e8 00 00 00 00	 call	 ?GetClassType@ioMyInfo@@QAEHXZ ; ioMyInfo::GetClassType
  00077	50		 push	 eax
  00078	8b ce		 mov	 ecx, esi
  0007a	e8 00 00 00 00	 call	 ?ShowExtraItemTabDirect@MyInventoryWnd@@QAEXHH@Z ; MyInventoryWnd::ShowExtraItemTabDirect
$LN3@iwm_comman:
  0007f	5e		 pop	 esi

; 365  : 	}
; 366  : }

  00080	5d		 pop	 ebp
  00081	c2 0c 00	 ret	 12			; 0000000cH
?iwm_command@ExcavationResultWnd@@UAEXPAVioWnd@@HK@Z ENDP ; ExcavationResultWnd::iwm_command
_TEXT	ENDS
EXTRN	__imp_?SetChildInActive@ioWnd@@QAEXK@Z:PROC
EXTRN	__imp_?SetChildActive@ioWnd@@QAEXK@Z:PROC
EXTRN	__imp_?ShowChildWnd@ioWnd@@QAEXK_N@Z:PROC
; Function compile flags: /Ogsp
;	COMDAT ?ReBatchButton@ExcavationResultWnd@@MAEXH@Z
_TEXT	SEGMENT
_iType$ = 8						; size = 4
?ReBatchButton@ExcavationResultWnd@@MAEXH@Z PROC	; ExcavationResultWnd::ReBatchButton, COMDAT
; _this$ = ecx

; 369  : {

  00000	55		 push	 ebp
  00001	8b ec		 mov	 ebp, esp

; 370  : 	switch( iType )

  00003	8b 45 08	 mov	 eax, DWORD PTR _iType$[ebp]
  00006	48		 dec	 eax
  00007	56		 push	 esi
  00008	57		 push	 edi
  00009	8b f1		 mov	 esi, ecx
  0000b	74 3c		 je	 SHORT $LN4@ReBatchBut
  0000d	48		 dec	 eax
  0000e	75 6d		 jne	 SHORT $LN5@ReBatchBut

; 380  : 		break;
; 381  : 	case RESULT_BTN:
; 382  : 		ShowChildWnd( ID_GO );

  00010	8b 3d 00 00 00
	00		 mov	 edi, DWORD PTR __imp_?ShowChildWnd@ioWnd@@QAEXK_N@Z
  00016	50		 push	 eax
  00017	6a 01		 push	 1
  00019	ff d7		 call	 edi

; 383  : 		ShowChildWnd( ID_OK );

  0001b	6a 00		 push	 0
  0001d	6a 02		 push	 2
  0001f	8b ce		 mov	 ecx, esi
  00021	ff d7		 call	 edi

; 384  : 		ShowChildWnd( ID_X );

  00023	6a 00		 push	 0
  00025	6a 03		 push	 3
  00027	8b ce		 mov	 ecx, esi
  00029	ff d7		 call	 edi

; 385  : 
; 386  : 		if( m_iArtifactType < ioExcavationManager::EXTRAITEM_START_TYPE )

  0002b	81 be 74 01 00
	00 10 27 00 00	 cmp	 DWORD PTR [esi+372], 10000 ; 00002710H
  00035	8b 3d 00 00 00
	00		 mov	 edi, DWORD PTR __imp_?SetChildActive@ioWnd@@QAEXK@Z

; 387  : 			SetChildInActive( ID_GO );

  0003b	6a 01		 push	 1
  0003d	8b ce		 mov	 ecx, esi
  0003f	7d 2e		 jge	 SHORT $LN2@ReBatchBut
  00041	ff 15 00 00 00
	00		 call	 DWORD PTR __imp_?SetChildInActive@ioWnd@@QAEXK@Z

; 388  : 		else

  00047	eb 28		 jmp	 SHORT $LN1@ReBatchBut
$LN4@ReBatchBut:

; 371  : 	{
; 372  : 	case ROLLING_BTN:
; 373  : 		ShowChildWnd( ID_GO );

  00049	8b 3d 00 00 00
	00		 mov	 edi, DWORD PTR __imp_?ShowChildWnd@ioWnd@@QAEXK_N@Z
  0004f	6a 00		 push	 0
  00051	6a 01		 push	 1
  00053	ff d7		 call	 edi

; 374  : 		ShowChildWnd( ID_OK );

  00055	6a 00		 push	 0
  00057	6a 02		 push	 2
  00059	8b ce		 mov	 ecx, esi
  0005b	ff d7		 call	 edi

; 375  : 		ShowChildWnd( ID_X );

  0005d	6a 00		 push	 0
  0005f	6a 03		 push	 3
  00061	8b ce		 mov	 ecx, esi
  00063	ff d7		 call	 edi

; 376  : 
; 377  : 		SetChildInActive( ID_GO );

  00065	8b 3d 00 00 00
	00		 mov	 edi, DWORD PTR __imp_?SetChildInActive@ioWnd@@QAEXK@Z
  0006b	6a 01		 push	 1
  0006d	8b ce		 mov	 ecx, esi
$LN2@ReBatchBut:
  0006f	ff d7		 call	 edi
$LN1@ReBatchBut:

; 378  : 		SetChildInActive( ID_OK );

  00071	6a 02		 push	 2
  00073	8b ce		 mov	 ecx, esi
  00075	ff d7		 call	 edi

; 379  : 		SetChildInActive( ID_X );

  00077	6a 03		 push	 3
  00079	8b ce		 mov	 ecx, esi
  0007b	ff d7		 call	 edi
$LN5@ReBatchBut:
  0007d	5f		 pop	 edi
  0007e	5e		 pop	 esi

; 389  : 			SetChildActive( ID_GO );
; 390  : 		SetChildActive( ID_OK );
; 391  : 		SetChildActive( ID_X );
; 392  : 		break;
; 393  : 	}
; 394  : }

  0007f	5d		 pop	 ebp
  00080	c2 04 00	 ret	 4
?ReBatchButton@ExcavationResultWnd@@MAEXH@Z ENDP	; ExcavationResultWnd::ReBatchButton
_TEXT	ENDS
PUBLIC	?SetResultInfo@ExcavationResultWnd@@QAEXHHH_NM@Z ; ExcavationResultWnd::SetResultInfo
; Function compile flags: /Ogsp
;	COMDAT ?SetResultInfo@ExcavationResultWnd@@QAEXHHH_NM@Z
_TEXT	SEGMENT
_iArtifactType$ = 8					; size = 4
_iArtifactValue1$ = 12					; size = 4
_iArtifactValue2$ = 16					; size = 4
_bAlram$ = 20						; size = 1
_fMapRate$ = 24						; size = 4
?SetResultInfo@ExcavationResultWnd@@QAEXHHH_NM@Z PROC	; ExcavationResultWnd::SetResultInfo, COMDAT
; _this$ = ecx

; 397  : {

  00000	55		 push	 ebp
  00001	8b ec		 mov	 ebp, esp

; 398  : 	m_iArtifactType   = iArtifactType;

  00003	8b 45 08	 mov	 eax, DWORD PTR _iArtifactType$[ebp]

; 399  : 	m_iArtifactValue1 = iArtifactValue1;
; 400  : 	m_iArtifactValue2 = iArtifactValue2;
; 401  : 	m_bAlarm          = bAlram;
; 402  : 	m_fMapRate        = fMapRate;

  00006	f3 0f 10 45 18	 movss	 xmm0, DWORD PTR _fMapRate$[ebp]
  0000b	89 81 74 01 00
	00		 mov	 DWORD PTR [ecx+372], eax
  00011	8b 45 0c	 mov	 eax, DWORD PTR _iArtifactValue1$[ebp]
  00014	89 81 78 01 00
	00		 mov	 DWORD PTR [ecx+376], eax
  0001a	8b 45 10	 mov	 eax, DWORD PTR _iArtifactValue2$[ebp]
  0001d	89 81 7c 01 00
	00		 mov	 DWORD PTR [ecx+380], eax
  00023	8a 45 14	 mov	 al, BYTE PTR _bAlram$[ebp]
  00026	88 81 80 01 00
	00		 mov	 BYTE PTR [ecx+384], al
  0002c	f3 0f 11 81 84
	01 00 00	 movss	 DWORD PTR [ecx+388], xmm0

; 403  : 
; 404  : }

  00034	5d		 pop	 ebp
  00035	c2 14 00	 ret	 20			; 00000014H
?SetResultInfo@ExcavationResultWnd@@QAEXHHH_NM@Z ENDP	; ExcavationResultWnd::SetResultInfo
_TEXT	ENDS
EXTRN	__imp_?HasWndStyle@ioWnd@@QBE_NK@Z:PROC
EXTRN	__imp_?IsShow@ioWnd@@QBE_NXZ:PROC
EXTRN	__imp_?FindChildWnd@ioWnd@@QAEPAV1@K@Z:PROC
; Function compile flags: /Ogsp
;	COMDAT ?iwm_spacebar@ExcavationResultWnd@@UAE_NXZ
_TEXT	SEGMENT
?iwm_spacebar@ExcavationResultWnd@@UAE_NXZ PROC		; ExcavationResultWnd::iwm_spacebar, COMDAT
; _this$ = ecx

; 407  : {

  00000	56		 push	 esi
  00001	57		 push	 edi

; 408  : 	ioMessageBoxBtn *pYesBtn = (ioMessageBoxBtn*)FindChildWnd( ID_GO );

  00002	6a 01		 push	 1
  00004	8b f1		 mov	 esi, ecx
  00006	ff 15 00 00 00
	00		 call	 DWORD PTR __imp_?FindChildWnd@ioWnd@@QAEPAV1@K@Z
  0000c	8b f8		 mov	 edi, eax

; 409  : 	if( !pYesBtn ) return false;

  0000e	85 ff		 test	 edi, edi
  00010	75 04		 jne	 SHORT $LN3@iwm_spaceb
$LN6@iwm_spaceb:
  00012	32 c0		 xor	 al, al
  00014	eb 2b		 jmp	 SHORT $LN4@iwm_spaceb
$LN3@iwm_spaceb:

; 410  : 	if( !pYesBtn->IsShow() ) return false;

  00016	8b cf		 mov	 ecx, edi
  00018	ff 15 00 00 00
	00		 call	 DWORD PTR __imp_?IsShow@ioWnd@@QBE_NXZ
  0001e	84 c0		 test	 al, al
  00020	74 f0		 je	 SHORT $LN6@iwm_spaceb

; 411  : 
; 412  : 	if( pYesBtn->HasWndStyle( IWS_INACTIVE ) ) return false;

  00022	6a 02		 push	 2
  00024	8b cf		 mov	 ecx, edi
  00026	ff 15 00 00 00
	00		 call	 DWORD PTR __imp_?HasWndStyle@ioWnd@@QBE_NK@Z
  0002c	84 c0		 test	 al, al
  0002e	75 e2		 jne	 SHORT $LN6@iwm_spaceb

; 413  : 
; 414  : 	iwm_command( pYesBtn, IOBN_BTNUP, 0 );

  00030	8b 06		 mov	 eax, DWORD PTR [esi]
  00032	6a 00		 push	 0
  00034	6a 11		 push	 17			; 00000011H
  00036	57		 push	 edi
  00037	8b ce		 mov	 ecx, esi
  00039	ff 90 8c 00 00
	00		 call	 DWORD PTR [eax+140]

; 415  : 	return true;

  0003f	b0 01		 mov	 al, 1
$LN4@iwm_spaceb:

; 416  : }

  00041	5f		 pop	 edi
  00042	5e		 pop	 esi
  00043	c3		 ret	 0
?iwm_spacebar@ExcavationResultWnd@@UAE_NXZ ENDP		; ExcavationResultWnd::iwm_spacebar
; Function compile flags: /Ogsp
_TEXT	ENDS
;	COMDAT ?iwm_esc@ExcavationResultWnd@@UAE_NXZ
_TEXT	SEGMENT
?iwm_esc@ExcavationResultWnd@@UAE_NXZ PROC		; ExcavationResultWnd::iwm_esc, COMDAT
; _this$ = ecx

; 419  : {

  00000	56		 push	 esi
  00001	57		 push	 edi

; 420  : 	ioMessageBoxBtn *pXBtn = (ioMessageBoxBtn*)FindChildWnd( ID_X );

  00002	6a 03		 push	 3
  00004	8b f1		 mov	 esi, ecx
  00006	ff 15 00 00 00
	00		 call	 DWORD PTR __imp_?FindChildWnd@ioWnd@@QAEPAV1@K@Z
  0000c	8b f8		 mov	 edi, eax

; 421  : 	if( !pXBtn ) return false;

  0000e	85 ff		 test	 edi, edi
  00010	75 04		 jne	 SHORT $LN3@iwm_esc
$LN6@iwm_esc:
  00012	32 c0		 xor	 al, al
  00014	eb 2b		 jmp	 SHORT $LN4@iwm_esc
$LN3@iwm_esc:

; 422  : 	if( !pXBtn->IsShow() ) return false;

  00016	8b cf		 mov	 ecx, edi
  00018	ff 15 00 00 00
	00		 call	 DWORD PTR __imp_?IsShow@ioWnd@@QBE_NXZ
  0001e	84 c0		 test	 al, al
  00020	74 f0		 je	 SHORT $LN6@iwm_esc

; 423  : 
; 424  : 	if( pXBtn->HasWndStyle( IWS_INACTIVE ) ) return false;

  00022	6a 02		 push	 2
  00024	8b cf		 mov	 ecx, edi
  00026	ff 15 00 00 00
	00		 call	 DWORD PTR __imp_?HasWndStyle@ioWnd@@QBE_NK@Z
  0002c	84 c0		 test	 al, al
  0002e	75 e2		 jne	 SHORT $LN6@iwm_esc

; 425  : 
; 426  : 	iwm_command( pXBtn, IOBN_BTNUP, 0 );

  00030	8b 06		 mov	 eax, DWORD PTR [esi]
  00032	6a 00		 push	 0
  00034	6a 11		 push	 17			; 00000011H
  00036	57		 push	 edi
  00037	8b ce		 mov	 ecx, esi
  00039	ff 90 8c 00 00
	00		 call	 DWORD PTR [eax+140]

; 427  : 	return true;

  0003f	b0 01		 mov	 al, 1
$LN4@iwm_esc:

; 428  : }

  00041	5f		 pop	 edi
  00042	5e		 pop	 esi
  00043	c3		 ret	 0
?iwm_esc@ExcavationResultWnd@@UAE_NXZ ENDP		; ExcavationResultWnd::iwm_esc
_TEXT	ENDS
PUBLIC	?SetPlayStage@ExcavationResultWnd@@QAEXPAVioPlayStage@@@Z ; ExcavationResultWnd::SetPlayStage
; Function compile flags: /Ogsp
;	COMDAT ?SetPlayStage@ExcavationResultWnd@@QAEXPAVioPlayStage@@@Z
_TEXT	SEGMENT
_pPlayStage$ = 8					; size = 4
?SetPlayStage@ExcavationResultWnd@@QAEXPAVioPlayStage@@@Z PROC ; ExcavationResultWnd::SetPlayStage, COMDAT
; _this$ = ecx

; 515  : {

  00000	55		 push	 ebp
  00001	8b ec		 mov	 ebp, esp

; 516  : 	m_pPlayStage = pPlayStage;

  00003	8b 45 08	 mov	 eax, DWORD PTR _pPlayStage$[ebp]
  00006	89 81 20 02 00
	00		 mov	 DWORD PTR [ecx+544], eax

; 517  : }

  0000c	5d		 pop	 ebp
  0000d	c2 04 00	 ret	 4
?SetPlayStage@ExcavationResultWnd@@QAEXPAVioPlayStage@@@Z ENDP ; ExcavationResultWnd::SetPlayStage
_TEXT	ENDS
PUBLIC	??_7ExcavationExpWnd@@6B@			; ExcavationExpWnd::`vftable'
PUBLIC	??0ExcavationExpWnd@@QAE@XZ			; ExcavationExpWnd::ExcavationExpWnd
PUBLIC	??_R4ExcavationExpWnd@@6B@			; ExcavationExpWnd::`RTTI Complete Object Locator'
PUBLIC	??_R0?AVExcavationExpWnd@@@8			; ExcavationExpWnd `RTTI Type Descriptor'
PUBLIC	??_R3ExcavationExpWnd@@8			; ExcavationExpWnd::`RTTI Class Hierarchy Descriptor'
PUBLIC	??_R2ExcavationExpWnd@@8			; ExcavationExpWnd::`RTTI Base Class Array'
PUBLIC	??_R1A@?0A@EA@ExcavationExpWnd@@8		; ExcavationExpWnd::`RTTI Base Class Descriptor at (0,-1,0,64)'
PUBLIC	?AddRenderImage@ExcavationExpWnd@@UAEXABVioHashString@@PAVioUIRenderImage@@@Z ; ExcavationExpWnd::AddRenderImage
PUBLIC	?OnRender@ExcavationExpWnd@@MAEXXZ		; ExcavationExpWnd::OnRender
EXTRN	?ParseExtraInfo@ioWnd@@UAEXAAVioXMLElement@@@Z:PROC ; ioWnd::ParseExtraInfo
EXTRN	?OnProcess@ioWnd@@MAEXM@Z:PROC			; ioWnd::OnProcess
EXTRN	?iwm_command@ioWnd@@UAEXPAV1@HK@Z:PROC		; ioWnd::iwm_command
EXTRN	?iwm_show@ioWnd@@UAEXXZ:PROC			; ioWnd::iwm_show
EXTRN	?iwm_hide@ioWnd@@UAEXXZ:PROC			; ioWnd::iwm_hide
EXTRN	?iwm_esc@ioWnd@@UAE_NXZ:PROC			; ioWnd::iwm_esc
EXTRN	?iwm_spacebar@ioWnd@@UAE_NXZ:PROC		; ioWnd::iwm_spacebar
EXTRN	??_EExcavationExpWnd@@UAEPAXI@Z:PROC		; ExcavationExpWnd::`vector deleting destructor'
;	COMDAT ??_R1A@?0A@EA@ExcavationExpWnd@@8
rdata$r	SEGMENT
??_R1A@?0A@EA@ExcavationExpWnd@@8 DD FLAT:??_R0?AVExcavationExpWnd@@@8 ; ExcavationExpWnd::`RTTI Base Class Descriptor at (0,-1,0,64)'
	DD	01H
	DD	00H
	DD	0ffffffffH
	DD	00H
	DD	040H
	DD	FLAT:??_R3ExcavationExpWnd@@8
rdata$r	ENDS
;	COMDAT ??_R2ExcavationExpWnd@@8
rdata$r	SEGMENT
??_R2ExcavationExpWnd@@8 DD FLAT:??_R1A@?0A@EA@ExcavationExpWnd@@8 ; ExcavationExpWnd::`RTTI Base Class Array'
	DD	FLAT:??_R1A@?0A@EA@ioWnd@@8
rdata$r	ENDS
;	COMDAT ??_R3ExcavationExpWnd@@8
rdata$r	SEGMENT
??_R3ExcavationExpWnd@@8 DD 00H				; ExcavationExpWnd::`RTTI Class Hierarchy Descriptor'
	DD	00H
	DD	02H
	DD	FLAT:??_R2ExcavationExpWnd@@8
rdata$r	ENDS
;	COMDAT ??_R0?AVExcavationExpWnd@@@8
_DATA	SEGMENT
??_R0?AVExcavationExpWnd@@@8 DD FLAT:??_7type_info@@6B@	; ExcavationExpWnd `RTTI Type Descriptor'
	DD	00H
	DB	'.?AVExcavationExpWnd@@', 00H
_DATA	ENDS
;	COMDAT ??_R4ExcavationExpWnd@@6B@
rdata$r	SEGMENT
??_R4ExcavationExpWnd@@6B@ DD 00H			; ExcavationExpWnd::`RTTI Complete Object Locator'
	DD	00H
	DD	00H
	DD	FLAT:??_R0?AVExcavationExpWnd@@@8
	DD	FLAT:??_R3ExcavationExpWnd@@8
rdata$r	ENDS
;	COMDAT ??_7ExcavationExpWnd@@6B@
CONST	SEGMENT
??_7ExcavationExpWnd@@6B@ DD FLAT:??_R4ExcavationExpWnd@@6B@ ; ExcavationExpWnd::`vftable'
	DD	FLAT:?AddRenderFrame@ioWnd@@UAEXABVioHashString@@PAVioUIRenderFrame@@@Z
	DD	FLAT:?AddRenderImage@ExcavationExpWnd@@UAEXABVioHashString@@PAVioUIRenderImage@@@Z
	DD	FLAT:?AddTooltipHelp@ioWnd@@UAEXABVioHashString@@00@Z
	DD	FLAT:?ParseExtraInfo@ioWnd@@UAEXAAVioXMLElement@@@Z
	DD	FLAT:?AddNamedRenderImage@ioWnd@@UAEXABVioHashString@@PAVioUIRenderImage@@@Z
	DD	FLAT:?RemoveNamedRenderImage@ioWnd@@UAEXABVioHashString@@@Z
	DD	FLAT:?GetNamedRenderImage@ioWnd@@UBEPAVioUIRenderImage@@ABVioHashString@@@Z
	DD	FLAT:?SetWindowAlpha@ioWnd@@UAEXH@Z
	DD	FLAT:?SetActive@ioWnd@@UAEXXZ
	DD	FLAT:?SetInActive@ioWnd@@UAEXXZ
	DD	FLAT:?ClearElementImageList@ioWnd@@UAEXXZ
	DD	FLAT:?SetSize@ioWnd@@UAEXHH@Z
	DD	FLAT:?SetPositionToDefault@ioWnd@@UAEXHH_N0@Z
	DD	FLAT:?IsNeedProcess@ioWnd@@UBE_NXZ
	DD	FLAT:?IsCanMouseReaction@ioWnd@@UBE_NXZ
	DD	FLAT:?AddChild@ioWnd@@UAEXPAV1@@Z
	DD	FLAT:?DeleteChild@ioWnd@@UAEXK@Z
	DD	FLAT:?DeleteAllChild@ioWnd@@UAEXXZ
	DD	FLAT:?OnRenderShowAndHide@ioWnd@@MAE_NXZ
	DD	FLAT:?OnRenderShowAndHideByDefault@ioWnd@@MAE_NK@Z
	DD	FLAT:?OnRenderShowAndHideByTop@ioWnd@@MAE_NK@Z
	DD	FLAT:?OnRenderShowAndHideByDown@ioWnd@@MAE_NK@Z
	DD	FLAT:?OnRender@ExcavationExpWnd@@MAEXXZ
	DD	FLAT:?OnRenderAfterChild@ioWnd@@MAEXXZ
	DD	FLAT:?OnProcess@ioWnd@@MAEXM@Z
	DD	FLAT:?OnMouseProcess@ioWnd@@MAEXABVioMouse@@@Z
	DD	FLAT:?CheckFrameReSize@ioWnd@@MAEXHHHH@Z
	DD	FLAT:?RenderImageList@ioWnd@@MAEXHHW4UIRenderType@@@Z
	DD	FLAT:?iwm_create@ioWnd@@UAEXXZ
	DD	FLAT:?iwm_destroy@ioWnd@@UAEXXZ
	DD	FLAT:?iwm_lbuttondown@ioWnd@@UAEXABVioMouse@@@Z
	DD	FLAT:?iwm_lbuttonup@ioWnd@@UAEXABVioMouse@@@Z
	DD	FLAT:?iwm_lbuttonDBLCLK@ioWnd@@UAEXABVioMouse@@@Z
	DD	FLAT:?iwm_rbuttondown@ioWnd@@UAEXABVioMouse@@@Z
	DD	FLAT:?iwm_rbuttonup@ioWnd@@UAEXABVioMouse@@@Z
	DD	FLAT:?iwm_command@ioWnd@@UAEXPAV1@HK@Z
	DD	FLAT:?iwm_mouseover@ioWnd@@UAEXABVioMouse@@@Z
	DD	FLAT:?iwm_mousemove@ioWnd@@UAEXABVioMouse@@@Z
	DD	FLAT:?iwm_mouseleave@ioWnd@@UAEXABVioMouse@@@Z
	DD	FLAT:?iwm_vscroll@ioWnd@@UAEXKH@Z
	DD	FLAT:?iwm_wheel@ioWnd@@UAEXH@Z
	DD	FLAT:?iwm_show@ioWnd@@UAEXXZ
	DD	FLAT:?iwm_hide@ioWnd@@UAEXXZ
	DD	FLAT:?iwm_esc@ioWnd@@UAE_NXZ
	DD	FLAT:?iwm_spacebar@ioWnd@@UAE_NXZ
	DD	FLAT:?iwm_gototop@ioWnd@@UAEXXZ
	DD	FLAT:?iwm_dragenter@ioWnd@@UAE?AW4IWDropEffect@@PAVioDragItem@@ABVioMouse@@@Z
	DD	FLAT:?iwm_dragover@ioWnd@@UAE?AW4IWDropEffect@@PAVioDragItem@@ABVioMouse@@@Z
	DD	FLAT:?iwm_dragleave@ioWnd@@UAEXXZ
	DD	FLAT:?iwm_dropitem@ioWnd@@UAE_NPAVioDragItem@@ABVioMouse@@PAV1@@Z
	DD	FLAT:?iwm_dropdone@ioWnd@@UAEXPAVioDragItem@@PAV1@_N@Z
	DD	FLAT:?IsEXType@ioWnd@@UBE_NXZ
	DD	FLAT:?GetWndType@ioWnd@@UBEKXZ
	DD	FLAT:?RenderWnd@ioWnd@@UAEXXZ
	DD	FLAT:?SetIDEX@ioWnd@@UAEXAAK_N@Z
	DD	FLAT:?ParseXML@ioWnd@@UAEXAAVioXMLElement@@@Z
	DD	FLAT:?GetHeaderFileName@ioWnd@@UAEPBDXZ
	DD	FLAT:?GetTemplateName@ioWnd@@UAEPBDXZ
	DD	FLAT:?GetDefClassName@ioWnd@@UBEPBDXZ
	DD	FLAT:?_Clone@ioWnd@@UAEPAV1@XZ
	DD	FLAT:?Copy@ioWnd@@UAEXPAV1@@Z
	DD	FLAT:?Save@ioWnd@@UAE_NAAVioXMLElement@@@Z
	DD	FLAT:?SetSaveData@ioWnd@@UAEXAAVioXMLElement@@@Z
	DD	FLAT:?SetPosX@ioWnd@@UAEXH@Z
	DD	FLAT:?SetPosY@ioWnd@@UAEXH@Z
	DD	FLAT:?SetWidth@ioWnd@@UAEXH@Z
	DD	FLAT:?SetHeight@ioWnd@@UAEXH@Z
	DD	FLAT:?GetNumFixedRenderFrame@ioWnd@@UBEHXZ
	DD	FLAT:?GetFixedRenderFrameType@ioWnd@@UAEPBDH@Z
	DD	FLAT:?GetRenderFrame@ioWnd@@UAEPAPAVioUIRenderElement@@PBD@Z
	DD	FLAT:?GetNumFixedRenderImage@ioWnd@@UBEHXZ
	DD	FLAT:?GetFixedRenderImageType@ioWnd@@UAEPBDH@Z
	DD	FLAT:?GetRenderImage@ioWnd@@UAEPAPAVioUIRenderElement@@PBD@Z
	DD	FLAT:?AddEffect@ioWnd@@UAEXABVioHashString@@PAVioUI3DEffectRender@@@Z
	DD	FLAT:?GetEffect@ioWnd@@UAEPAVioUI3DEffectRender@@VioHashString@@@Z
	DD	FLAT:??_EExcavationExpWnd@@UAEPAXI@Z
; Function compile flags: /Ogsp
CONST	ENDS
;	COMDAT ??0ExcavationExpWnd@@QAE@XZ
_TEXT	SEGMENT
??0ExcavationExpWnd@@QAE@XZ PROC			; ExcavationExpWnd::ExcavationExpWnd, COMDAT
; _this$ = ecx

; 520  : {

  00000	56		 push	 esi
  00001	8b f1		 mov	 esi, ecx
  00003	ff 15 00 00 00
	00		 call	 DWORD PTR __imp_??0ioWnd@@QAE@XZ

; 521  : 	m_pExpGauge = NULL;

  00009	33 c0		 xor	 eax, eax
  0000b	89 86 60 01 00
	00		 mov	 DWORD PTR [esi+352], eax

; 522  : 
; 523  : 	m_iCurLevel = 0;

  00011	89 86 64 01 00
	00		 mov	 DWORD PTR [esi+356], eax

; 524  : 	m_iCurExp = 0;

  00017	89 86 68 01 00
	00		 mov	 DWORD PTR [esi+360], eax
  0001d	c7 06 00 00 00
	00		 mov	 DWORD PTR [esi], OFFSET ??_7ExcavationExpWnd@@6B@

; 525  : }

  00023	8b c6		 mov	 eax, esi
  00025	5e		 pop	 esi
  00026	c3		 ret	 0
??0ExcavationExpWnd@@QAE@XZ ENDP			; ExcavationExpWnd::ExcavationExpWnd
_TEXT	ENDS
PUBLIC	??1ExcavationExpWnd@@UAE@XZ			; ExcavationExpWnd::~ExcavationExpWnd
;	COMDAT xdata$x
xdata$x	SEGMENT
__unwindtable$??1ExcavationExpWnd@@UAE@XZ DD 0ffffffffH
	DD	FLAT:__unwindfunclet$??1ExcavationExpWnd@@UAE@XZ$0
__ehfuncinfo$??1ExcavationExpWnd@@UAE@XZ DD 019930522H
	DD	01H
	DD	FLAT:__unwindtable$??1ExcavationExpWnd@@UAE@XZ
	DD	2 DUP(00H)
	DD	2 DUP(00H)
	DD	00H
	DD	01H
; Function compile flags: /Ogsp
xdata$x	ENDS
;	COMDAT ??1ExcavationExpWnd@@UAE@XZ
_TEXT	SEGMENT
_this$ = -16						; size = 4
__$EHRec$ = -12						; size = 12
??1ExcavationExpWnd@@UAE@XZ PROC			; ExcavationExpWnd::~ExcavationExpWnd, COMDAT
; _this$ = ecx

; 528  : {

  00000	6a 04		 push	 4
  00002	b8 00 00 00 00	 mov	 eax, __ehhandler$??1ExcavationExpWnd@@UAE@XZ
  00007	e8 00 00 00 00	 call	 __EH_prolog3
  0000c	8b f9		 mov	 edi, ecx
  0000e	89 7d f0	 mov	 DWORD PTR _this$[ebp], edi
  00011	c7 07 00 00 00
	00		 mov	 DWORD PTR [edi], OFFSET ??_7ExcavationExpWnd@@6B@

; 529  : 	SAFEDELETE(m_pExpGauge);

  00017	8b 8f 60 01 00
	00		 mov	 ecx, DWORD PTR [edi+352]
  0001d	83 65 fc 00	 and	 DWORD PTR __$EHRec$[ebp+8], 0
  00021	85 c9		 test	 ecx, ecx
  00023	74 0e		 je	 SHORT $LN1@Excavation@2
  00025	8b 01		 mov	 eax, DWORD PTR [ecx]
  00027	6a 01		 push	 1
  00029	ff 50 40	 call	 DWORD PTR [eax+64]
  0002c	83 a7 60 01 00
	00 00		 and	 DWORD PTR [edi+352], 0
$LN1@Excavation@2:

; 530  : }

  00033	83 4d fc ff	 or	 DWORD PTR __$EHRec$[ebp+8], -1
  00037	8b cf		 mov	 ecx, edi
  00039	ff 15 00 00 00
	00		 call	 DWORD PTR __imp_??1ioWnd@@UAE@XZ
  0003f	e8 00 00 00 00	 call	 __EH_epilog3
  00044	c3		 ret	 0
_TEXT	ENDS
;	COMDAT text$x
text$x	SEGMENT
__unwindfunclet$??1ExcavationExpWnd@@UAE@XZ$0:
  00000	8b 4d f0	 mov	 ecx, DWORD PTR _this$[ebp]
  00003	ff 25 00 00 00
	00		 jmp	 DWORD PTR __imp_??1ioWnd@@UAE@XZ
__ehhandler$??1ExcavationExpWnd@@UAE@XZ:
  00009	8b 54 24 08	 mov	 edx, DWORD PTR [esp+8]
  0000d	8d 42 0c	 lea	 eax, DWORD PTR [edx+12]
  00010	8b 4a ec	 mov	 ecx, DWORD PTR [edx-20]
  00013	33 c8		 xor	 ecx, eax
  00015	e8 00 00 00 00	 call	 @__security_check_cookie@4
  0001a	b8 00 00 00 00	 mov	 eax, OFFSET __ehfuncinfo$??1ExcavationExpWnd@@UAE@XZ
  0001f	e9 00 00 00 00	 jmp	 ___CxxFrameHandler3
text$x	ENDS
??1ExcavationExpWnd@@UAE@XZ ENDP			; ExcavationExpWnd::~ExcavationExpWnd
PUBLIC	?SetInfo@ExcavationExpWnd@@QAEXHH@Z		; ExcavationExpWnd::SetInfo
; Function compile flags: /Ogsp
;	COMDAT ?SetInfo@ExcavationExpWnd@@QAEXHH@Z
_TEXT	SEGMENT
_iLevel$ = 8						; size = 4
_iExp$ = 12						; size = 4
?SetInfo@ExcavationExpWnd@@QAEXHH@Z PROC		; ExcavationExpWnd::SetInfo, COMDAT
; _this$ = ecx

; 546  : {

  00000	55		 push	 ebp
  00001	8b ec		 mov	 ebp, esp

; 547  : 	m_iCurLevel = iLevel;

  00003	8b 45 08	 mov	 eax, DWORD PTR _iLevel$[ebp]
  00006	89 81 64 01 00
	00		 mov	 DWORD PTR [ecx+356], eax

; 548  : 	m_iCurExp = iExp;

  0000c	8b 45 0c	 mov	 eax, DWORD PTR _iExp$[ebp]
  0000f	89 81 68 01 00
	00		 mov	 DWORD PTR [ecx+360], eax

; 549  : }

  00015	5d		 pop	 ebp
  00016	c2 08 00	 ret	 8
?SetInfo@ExcavationExpWnd@@QAEXHH@Z ENDP		; ExcavationExpWnd::SetInfo
_TEXT	ENDS
PUBLIC	__real@3f19999a
PUBLIC	??_C@_0BL@NMHBGJLD@ExcavationExpWnd?3?3OnRender?$AA@ ; `string'
PUBLIC	??_C@_00CNPNBAHC@?$AA@				; `string'
EXTRN	__imp_?PrintText@ioFontManager@@QAEXMMMPBDH@Z:PROC
EXTRN	__imp_?GetString@ioStringManager@@QAEPADPBD0HW4FileNamePrefix@1@@Z:PROC
EXTRN	__imp_?GetSingleton@ioStringManager@@SAAAV1@XZ:PROC
EXTRN	__imp_?RenderWidthCut@ioUIRenderImage@@QAEXMMHHW4UIRenderType@@W4TextureFilterOption@@0@Z:PROC
EXTRN	__imp_?GetWidth@ioUIRenderElement@@QBEHXZ:PROC
EXTRN	?GetNextExcavationLevelUpExp@ioMyLevelMgr@@QAEHH@Z:PROC ; ioMyLevelMgr::GetNextExcavationLevelUpExp
EXTRN	?GetSingleton@ioMyLevelMgr@@SAAAV1@XZ:PROC	; ioMyLevelMgr::GetSingleton
EXTRN	__ftol2_sse:PROC
;	COMDAT __real@3f19999a
; File d:\lost saga for developer\youtube\tutorial\source\src\lsclient\stdafx.h
CONST	SEGMENT
__real@3f19999a DD 03f19999ar			; 0.6
CONST	ENDS
;	COMDAT ??_C@_0BL@NMHBGJLD@ExcavationExpWnd?3?3OnRender?$AA@
CONST	SEGMENT
??_C@_0BL@NMHBGJLD@ExcavationExpWnd?3?3OnRender?$AA@ DB 'ExcavationExpWnd'
	DB	'::OnRender', 00H				; `string'
CONST	ENDS
;	COMDAT ??_C@_00CNPNBAHC@?$AA@
CONST	SEGMENT
??_C@_00CNPNBAHC@?$AA@ DB 00H				; `string'
; Function compile flags: /Ogsp
; File d:\lost saga for developer\youtube\tutorial\source\src\lsclient\gui\excavationwnd.cpp
CONST	ENDS
;	COMDAT ?OnRender@ExcavationExpWnd@@MAEXXZ
_TEXT	SEGMENT
tv180 = -16						; size = 4
tv280 = -12						; size = 4
_iYPos$ = -12						; size = 4
_iXPos$ = -8						; size = 4
_fExpRate$ = -4						; size = 4
?OnRender@ExcavationExpWnd@@MAEXXZ PROC			; ExcavationExpWnd::OnRender, COMDAT
; _this$ = ecx

; 552  : {

  00000	55		 push	 ebp
  00001	8b ec		 mov	 ebp, esp
  00003	83 ec 10	 sub	 esp, 16			; 00000010H
  00006	53		 push	 ebx
  00007	56		 push	 esi
  00008	57		 push	 edi
  00009	8b f9		 mov	 edi, ecx

; 553  : 	ioWnd::OnRender();

  0000b	ff 15 00 00 00
	00		 call	 DWORD PTR __imp_?OnRender@ioWnd@@MAEXXZ

; 554  : 
; 555  : 	int iXPos = GetDerivedPosX();

  00011	8b cf		 mov	 ecx, edi
  00013	ff 15 00 00 00
	00		 call	 DWORD PTR __imp_?GetDerivedPosX@ioWnd@@QBEHXZ

; 556  : 	int iYPos = GetDerivedPosY();

  00019	8b cf		 mov	 ecx, edi
  0001b	89 45 f8	 mov	 DWORD PTR _iXPos$[ebp], eax
  0001e	ff 15 00 00 00
	00		 call	 DWORD PTR __imp_?GetDerivedPosY@ioWnd@@QBEHXZ

; 557  : 
; 558  : 	float fExpRate = 0.0f;

  00024	0f 57 c0	 xorps	 xmm0, xmm0

; 559  : 	int iMaxExp = g_LevelMgr.GetNextExcavationLevelUpExp( m_iCurLevel );

  00027	ff b7 64 01 00
	00		 push	 DWORD PTR [edi+356]
  0002d	8b f0		 mov	 esi, eax
  0002f	89 75 f4	 mov	 DWORD PTR _iYPos$[ebp], esi
  00032	f3 0f 11 45 fc	 movss	 DWORD PTR _fExpRate$[ebp], xmm0
  00037	e8 00 00 00 00	 call	 ?GetSingleton@ioMyLevelMgr@@SAAAV1@XZ ; ioMyLevelMgr::GetSingleton
  0003c	8b c8		 mov	 ecx, eax
  0003e	e8 00 00 00 00	 call	 ?GetNextExcavationLevelUpExp@ioMyLevelMgr@@QAEHH@Z ; ioMyLevelMgr::GetNextExcavationLevelUpExp

; 560  : 	if( iMaxExp != 0 )

  00043	33 db		 xor	 ebx, ebx
  00045	3b c3		 cmp	 eax, ebx
  00047	74 26		 je	 SHORT $LN2@OnRender@2

; 561  : 		fExpRate = (float)m_iCurExp / (float)iMaxExp;

  00049	66 0f 6e 87 68
	01 00 00	 movd	 xmm0, DWORD PTR [edi+360]
  00051	0f 5b c0	 cvtdq2ps xmm0, xmm0
  00054	0f 57 c9	 xorps	 xmm1, xmm1
  00057	f3 0f 5a c0	 cvtss2sd xmm0, xmm0
  0005b	f3 0f 2a c8	 cvtsi2ss xmm1, eax
  0005f	0f 5a c9	 cvtps2pd xmm1, xmm1
  00062	f2 0f 5e c1	 divsd	 xmm0, xmm1
  00066	f2 0f 5a c0	 cvtsd2ss xmm0, xmm0
  0006a	f3 0f 11 45 fc	 movss	 DWORD PTR _fExpRate$[ebp], xmm0
$LN2@OnRender@2:

; 562  : 
; 563  : 	if( m_pExpGauge )

  0006f	8b 8f 60 01 00
	00		 mov	 ecx, DWORD PTR [edi+352]
  00075	3b cb		 cmp	 ecx, ebx
  00077	74 44		 je	 SHORT $LN1@OnRender@2

; 564  : 	{
; 565  : 		int iWidth = m_pExpGauge->GetWidth();

  00079	ff 15 00 00 00
	00		 call	 DWORD PTR __imp_?GetWidth@ioUIRenderElement@@QBEHXZ

; 566  : 		iWidth *= fExpRate;
; 567  : 		m_pExpGauge->RenderWidthCut( iXPos , iYPos + 1, 0, iWidth );

  0007f	53		 push	 ebx
  00080	0f 57 c0	 xorps	 xmm0, xmm0
  00083	f3 0f 2a c0	 cvtsi2ss xmm0, eax
  00087	f3 0f 59 45 fc	 mulss	 xmm0, DWORD PTR _fExpRate$[ebp]
  0008c	53		 push	 ebx
  0008d	f3 0f 2c c0	 cvttss2si eax, xmm0
  00091	53		 push	 ebx
  00092	50		 push	 eax
  00093	53		 push	 ebx
  00094	51		 push	 ecx
  00095	0f 57 c0	 xorps	 xmm0, xmm0
  00098	51		 push	 ecx
  00099	8b 8f 60 01 00
	00		 mov	 ecx, DWORD PTR [edi+352]
  0009f	46		 inc	 esi
  000a0	f3 0f 2a c6	 cvtsi2ss xmm0, esi
  000a4	f3 0f 11 44 24
	04		 movss	 DWORD PTR [esp+4], xmm0
  000aa	66 0f 6e 45 f8	 movd	 xmm0, DWORD PTR _iXPos$[ebp]
  000af	0f 5b c0	 cvtdq2ps xmm0, xmm0
  000b2	f3 0f 11 04 24	 movss	 DWORD PTR [esp], xmm0
  000b7	ff 15 00 00 00
	00		 call	 DWORD PTR __imp_?RenderWidthCut@ioUIRenderImage@@QAEXMMHHW4UIRenderType@@W4TextureFilterOption@@0@Z
$LN1@OnRender@2:

; 568  : 	}
; 569  : 
; 570  : 	g_FontMgr.SetBkColor( 0, 0, 0 );

  000bd	8b 35 00 00 00
	00		 mov	 esi, DWORD PTR __imp_?GetSingleton@ioFontManager@@SAAAV1@XZ
  000c3	53		 push	 ebx
  000c4	53		 push	 ebx
  000c5	53		 push	 ebx
  000c6	ff d6		 call	 esi
  000c8	8b c8		 mov	 ecx, eax
  000ca	ff 15 00 00 00
	00		 call	 DWORD PTR __imp_?SetBkColor@ioFontManager@@QAEXHHH@Z

; 571  : 	g_FontMgr.SetTextStyle( TS_NORMAL );

  000d0	53		 push	 ebx
  000d1	ff d6		 call	 esi
  000d3	8b c8		 mov	 ecx, eax
  000d5	ff 15 00 00 00
	00		 call	 DWORD PTR __imp_?SetTextStyle@ioFontManager@@QAEXW4TextStyle@@@Z

; 572  : 	g_FontMgr.SetAlignType( TAT_RIGHT );

  000db	6a 02		 push	 2
  000dd	ff d6		 call	 esi
  000df	8b c8		 mov	 ecx, eax
  000e1	ff 15 00 00 00
	00		 call	 DWORD PTR __imp_?SetAlignType@ioFontManager@@QAEXW4TextAlignType@@@Z

; 573  : 	g_FontMgr.SetTextColor( TCT_DEFAULT_DARKGRAY );

  000e7	68 3a 3a 3a ff	 push	 -12961222		; ff3a3a3aH
  000ec	ff d6		 call	 esi
  000ee	8b 1d 00 00 00
	00		 mov	 ebx, DWORD PTR __imp_?SetTextColor@ioFontManager@@QAEXK@Z
  000f4	8b c8		 mov	 ecx, eax
  000f6	ff d3		 call	 ebx

; 574  : 	g_FontMgr.PrintText( iXPos - 9, iYPos - 3, FONT_SIZE_12, STR(1), m_iCurLevel );

  000f8	ff b7 64 01 00
	00		 push	 DWORD PTR [edi+356]
  000fe	8b 45 f4	 mov	 eax, DWORD PTR _iYPos$[ebp]
  00101	8b 3d 00 00 00
	00		 mov	 edi, DWORD PTR __imp_?GetSingleton@ioStringManager@@SAAAV1@XZ
  00107	6a 00		 push	 0
  00109	6a 01		 push	 1
  0010b	83 c0 fd	 add	 eax, -3			; fffffffdH
  0010e	0f 57 c0	 xorps	 xmm0, xmm0
  00111	68 00 00 00 00	 push	 OFFSET ??_C@_00CNPNBAHC@?$AA@
  00116	f3 0f 2a c0	 cvtsi2ss xmm0, eax
  0011a	68 00 00 00 00	 push	 OFFSET ??_C@_0BL@NMHBGJLD@ExcavationExpWnd?3?3OnRender?$AA@
  0011f	f3 0f 11 45 f4	 movss	 DWORD PTR tv280[ebp], xmm0
  00124	ff d7		 call	 edi
  00126	8b c8		 mov	 ecx, eax
  00128	ff 15 00 00 00
	00		 call	 DWORD PTR __imp_?GetString@ioStringManager@@QAEPADPBD0HW4FileNamePrefix@1@@Z
  0012e	f3 0f 10 05 00
	00 00 00	 movss	 xmm0, DWORD PTR __real@3f19999a
  00136	50		 push	 eax
  00137	8b 45 f8	 mov	 eax, DWORD PTR _iXPos$[ebp]
  0013a	83 ec 0c	 sub	 esp, 12			; 0000000cH
  0013d	f3 0f 11 44 24
	08		 movss	 DWORD PTR [esp+8], xmm0
  00143	f3 0f 10 45 f4	 movss	 xmm0, DWORD PTR tv280[ebp]
  00148	f3 0f 11 44 24
	04		 movss	 DWORD PTR [esp+4], xmm0
  0014e	83 c0 f7	 add	 eax, -9			; fffffff7H
  00151	0f 57 c0	 xorps	 xmm0, xmm0
  00154	f3 0f 2a c0	 cvtsi2ss xmm0, eax
  00158	f3 0f 11 04 24	 movss	 DWORD PTR [esp], xmm0
  0015d	ff d6		 call	 esi
  0015f	8b c8		 mov	 ecx, eax
  00161	ff 15 00 00 00
	00		 call	 DWORD PTR __imp_?PrintText@ioFontManager@@QAEXMMMPBDH@Z

; 575  : 
; 576  : 	g_FontMgr.SetTextColor( TCT_DEFAULT_BLUE );

  00167	68 b2 46 16 ff	 push	 -15317326		; ff1646b2H
  0016c	ff d6		 call	 esi
  0016e	8b c8		 mov	 ecx, eax
  00170	ff d3		 call	 ebx

; 577  : 	g_FontMgr.PrintText( iXPos + 191, iYPos - 3, FONT_SIZE_12, STR(2), (int)( fExpRate * FLOAT100 ) );

  00172	b8 64 00 00 00	 mov	 eax, 100		; 00000064H
  00177	89 45 f0	 mov	 DWORD PTR tv180[ebp], eax
  0017a	db 45 f0	 fild	 DWORD PTR tv180[ebp]
  0017d	85 c0		 test	 eax, eax
  0017f	79 06		 jns	 SHORT $LN7@OnRender@2
  00181	d8 05 00 00 00
	00		 fadd	 DWORD PTR __real@4f800000
$LN7@OnRender@2:
  00187	d8 4d fc	 fmul	 DWORD PTR _fExpRate$[ebp]
  0018a	e8 00 00 00 00	 call	 __ftol2_sse
  0018f	50		 push	 eax
  00190	6a 00		 push	 0
  00192	6a 02		 push	 2
  00194	68 00 00 00 00	 push	 OFFSET ??_C@_00CNPNBAHC@?$AA@
  00199	68 00 00 00 00	 push	 OFFSET ??_C@_0BL@NMHBGJLD@ExcavationExpWnd?3?3OnRender?$AA@
  0019e	ff d7		 call	 edi
  001a0	8b c8		 mov	 ecx, eax
  001a2	ff 15 00 00 00
	00		 call	 DWORD PTR __imp_?GetString@ioStringManager@@QAEPADPBD0HW4FileNamePrefix@1@@Z
  001a8	f3 0f 10 05 00
	00 00 00	 movss	 xmm0, DWORD PTR __real@3f19999a
  001b0	50		 push	 eax
  001b1	8b 45 f8	 mov	 eax, DWORD PTR _iXPos$[ebp]
  001b4	83 ec 0c	 sub	 esp, 12			; 0000000cH
  001b7	f3 0f 11 44 24
	08		 movss	 DWORD PTR [esp+8], xmm0
  001bd	f3 0f 10 45 f4	 movss	 xmm0, DWORD PTR tv280[ebp]
  001c2	f3 0f 11 44 24
	04		 movss	 DWORD PTR [esp+4], xmm0
  001c8	05 bf 00 00 00	 add	 eax, 191		; 000000bfH
  001cd	0f 57 c0	 xorps	 xmm0, xmm0
  001d0	f3 0f 2a c0	 cvtsi2ss xmm0, eax
  001d4	f3 0f 11 04 24	 movss	 DWORD PTR [esp], xmm0
  001d9	ff d6		 call	 esi
  001db	8b c8		 mov	 ecx, eax
  001dd	ff 15 00 00 00
	00		 call	 DWORD PTR __imp_?PrintText@ioFontManager@@QAEXMMMPBDH@Z
  001e3	5f		 pop	 edi
  001e4	5e		 pop	 esi
  001e5	5b		 pop	 ebx

; 578  : 
; 579  : }

  001e6	c9		 leave
  001e7	c3		 ret	 0
?OnRender@ExcavationExpWnd@@MAEXXZ ENDP			; ExcavationExpWnd::OnRender
_TEXT	ENDS
PUBLIC	?GetRenderImageStartHeight@ExcavatingBtn@@IAEHPAVioUIRenderImage@@HHH@Z ; ExcavatingBtn::GetRenderImageStartHeight
EXTRN	__imp_?GetHeight@ioUIRenderElement@@QBEHXZ:PROC
EXTRN	__imp_?GetOffsetY@ioUIRenderImage@@QBEHXZ:PROC
; Function compile flags: /Ogsp
;	COMDAT ?GetRenderImageStartHeight@ExcavatingBtn@@IAEHPAVioUIRenderImage@@HHH@Z
_TEXT	SEGMENT
_pImage$ = 8						; size = 4
_iSrcHeight$ = 12					; size = 4
_iCur$ = 16						; size = 4
_iMax$ = 20						; size = 4
?GetRenderImageStartHeight@ExcavatingBtn@@IAEHPAVioUIRenderImage@@HHH@Z PROC ; ExcavatingBtn::GetRenderImageStartHeight, COMDAT
; _this$ = ecx

; 749  : {

  00000	55		 push	 ebp
  00001	8b ec		 mov	 ebp, esp
  00003	57		 push	 edi

; 750  : 	if( iMax == iCur ) return 0;

  00004	8b 7d 14	 mov	 edi, DWORD PTR _iMax$[ebp]
  00007	3b 7d 10	 cmp	 edi, DWORD PTR _iCur$[ebp]
  0000a	75 04		 jne	 SHORT $LN2@GetRenderI
$LN5@GetRenderI:
  0000c	33 c0		 xor	 eax, eax
  0000e	eb 7e		 jmp	 SHORT $LN3@GetRenderI
$LN2@GetRenderI:

; 751  : 	if( !pImage )	return 0;

  00010	83 7d 08 00	 cmp	 DWORD PTR _pImage$[ebp], 0
  00014	74 f6		 je	 SHORT $LN5@GetRenderI

; 752  : 
; 753  : 	float fGap = (float)iCur / (float)iMax;
; 754  : 	float fGapHeight = (float)iSrcHeight * fGap;
; 755  : 	int iOffYPos = pImage->GetOffsetY();

  00016	8b 4d 08	 mov	 ecx, DWORD PTR _pImage$[ebp]
  00019	56		 push	 esi
  0001a	ff 15 00 00 00
	00		 call	 DWORD PTR __imp_?GetOffsetY@ioUIRenderImage@@QBEHXZ

; 756  : 	int iHeight  = pImage->GetHeight();

  00020	8b 4d 08	 mov	 ecx, DWORD PTR _pImage$[ebp]
  00023	8b f0		 mov	 esi, eax
  00025	ff 15 00 00 00
	00		 call	 DWORD PTR __imp_?GetHeight@ioUIRenderElement@@QBEHXZ

; 757  : 
; 758  : 	return iOffYPos + ( (iSrcHeight / 2) - fGapHeight );							

  0002b	66 0f 6e 4d 10	 movd	 xmm1, DWORD PTR _iCur$[ebp]
  00030	8b 45 0c	 mov	 eax, DWORD PTR _iSrcHeight$[ebp]
  00033	0f 5b c9	 cvtdq2ps xmm1, xmm1
  00036	f3 0f 5a c9	 cvtss2sd xmm1, xmm1
  0003a	0f 57 d2	 xorps	 xmm2, xmm2
  0003d	f3 0f 2a d7	 cvtsi2ss xmm2, edi
  00041	99		 cdq
  00042	0f 5a d2	 cvtps2pd xmm2, xmm2
  00045	f2 0f 5e ca	 divsd	 xmm1, xmm2
  00049	66 0f 6e 55 0c	 movd	 xmm2, DWORD PTR _iSrcHeight$[ebp]
  0004e	f2 0f 5a c9	 cvtsd2ss xmm1, xmm1
  00052	f3 0f 5a c9	 cvtss2sd xmm1, xmm1
  00056	2b c2		 sub	 eax, edx
  00058	0f 57 c0	 xorps	 xmm0, xmm0
  0005b	d1 f8		 sar	 eax, 1
  0005d	f3 0f 2a c0	 cvtsi2ss xmm0, eax
  00061	0f 5b d2	 cvtdq2ps xmm2, xmm2
  00064	f3 0f 5a d2	 cvtss2sd xmm2, xmm2
  00068	f2 0f 59 ca	 mulsd	 xmm1, xmm2
  0006c	f2 0f 5a c9	 cvtsd2ss xmm1, xmm1
  00070	f3 0f 5a c9	 cvtss2sd xmm1, xmm1
  00074	0f 5a c0	 cvtps2pd xmm0, xmm0
  00077	f2 0f 5c c1	 subsd	 xmm0, xmm1
  0007b	0f 57 c9	 xorps	 xmm1, xmm1
  0007e	f3 0f 2a ce	 cvtsi2ss xmm1, esi
  00082	0f 5a c9	 cvtps2pd xmm1, xmm1
  00085	f2 0f 58 c1	 addsd	 xmm0, xmm1
  00089	f2 0f 2c c0	 cvttsd2si eax, xmm0
  0008d	5e		 pop	 esi
$LN3@GetRenderI:
  0008e	5f		 pop	 edi

; 759  : }

  0008f	5d		 pop	 ebp
  00090	c2 10 00	 ret	 16			; 00000010H
?GetRenderImageStartHeight@ExcavatingBtn@@IAEHPAVioUIRenderImage@@HHH@Z ENDP ; ExcavatingBtn::GetRenderImageStartHeight
_TEXT	ENDS
PUBLIC	?RenderGaugeIcon@ExcavatingBtn@@IAEXHHPAVioUIRenderImage@@HHH@Z ; ExcavatingBtn::RenderGaugeIcon
EXTRN	__imp_?RenderHeightCut@ioUIRenderImage@@QAEXMMHHW4UIRenderType@@W4TextureFilterOption@@0@Z:PROC
; Function compile flags: /Ogsp
;	COMDAT ?RenderGaugeIcon@ExcavatingBtn@@IAEXHHPAVioUIRenderImage@@HHH@Z
_TEXT	SEGMENT
_xPos$ = 8						; size = 4
_yPos$ = 12						; size = 4
_iRealHeight$ = 16					; size = 4
_pImage$ = 16						; size = 4
_iSrcHeight$ = 20					; size = 4
tv196 = 24						; size = 4
_iCur$ = 24						; size = 4
tv195 = 28						; size = 4
_iMax$ = 28						; size = 4
?RenderGaugeIcon@ExcavatingBtn@@IAEXHHPAVioUIRenderImage@@HHH@Z PROC ; ExcavatingBtn::RenderGaugeIcon, COMDAT
; _this$ = ecx

; 762  : {

  00000	55		 push	 ebp
  00001	8b ec		 mov	 ebp, esp
  00003	56		 push	 esi

; 763  : 	if( !pImage )

  00004	8b 75 10	 mov	 esi, DWORD PTR _pImage$[ebp]
  00007	57		 push	 edi
  00008	33 ff		 xor	 edi, edi
  0000a	3b f7		 cmp	 esi, edi
  0000c	0f 84 c9 00 00
	00		 je	 $LN1@RenderGaug

; 764  : 		return;
; 765  : 
; 766  : 	int iRealHeight = GetRenderImageStartHeight( pImage, iSrcHeight, iCur, iMax );

  00012	53		 push	 ebx
  00013	ff 75 1c	 push	 DWORD PTR _iMax$[ebp]
  00016	ff 75 18	 push	 DWORD PTR _iCur$[ebp]
  00019	ff 75 14	 push	 DWORD PTR _iSrcHeight$[ebp]
  0001c	56		 push	 esi
  0001d	e8 00 00 00 00	 call	 ?GetRenderImageStartHeight@ExcavatingBtn@@IAEHPAVioUIRenderImage@@HHH@Z ; ExcavatingBtn::GetRenderImageStartHeight

; 767  : 
; 768  : 	pImage->Render( xPos, yPos, UI_RENDER_GRAY );

  00022	66 0f 6e 45 0c	 movd	 xmm0, DWORD PTR _yPos$[ebp]
  00027	66 0f 6e 4d 08	 movd	 xmm1, DWORD PTR _xPos$[ebp]
  0002c	57		 push	 edi
  0002d	57		 push	 edi
  0002e	57		 push	 edi
  0002f	6a 02		 push	 2
  00031	51		 push	 ecx
  00032	51		 push	 ecx
  00033	0f 5b c0	 cvtdq2ps xmm0, xmm0
  00036	89 45 10	 mov	 DWORD PTR _iRealHeight$[ebp], eax
  00039	8b 06		 mov	 eax, DWORD PTR [esi]
  0003b	0f 5b c9	 cvtdq2ps xmm1, xmm1
  0003e	f3 0f 11 44 24
	04		 movss	 DWORD PTR [esp+4], xmm0
  00044	8b ce		 mov	 ecx, esi
  00046	f3 0f 11 45 1c	 movss	 DWORD PTR tv195[ebp], xmm0
  0004b	f3 0f 11 4d 18	 movss	 DWORD PTR tv196[ebp], xmm1
  00050	f3 0f 11 0c 24	 movss	 DWORD PTR [esp], xmm1
  00055	ff 10		 call	 DWORD PTR [eax]

; 769  : 	pImage->RenderHeightCut( xPos, yPos, iRealHeight, pImage->GetHeight() );

  00057	57		 push	 edi
  00058	57		 push	 edi
  00059	57		 push	 edi
  0005a	8b ce		 mov	 ecx, esi
  0005c	ff 15 00 00 00
	00		 call	 DWORD PTR __imp_?GetHeight@ioUIRenderElement@@QBEHXZ
  00062	f3 0f 10 45 1c	 movss	 xmm0, DWORD PTR tv195[ebp]
  00067	8b 1d 00 00 00
	00		 mov	 ebx, DWORD PTR __imp_?RenderHeightCut@ioUIRenderImage@@QAEXMMHHW4UIRenderType@@W4TextureFilterOption@@0@Z
  0006d	50		 push	 eax
  0006e	ff 75 10	 push	 DWORD PTR _iRealHeight$[ebp]
  00071	51		 push	 ecx
  00072	51		 push	 ecx
  00073	f3 0f 11 44 24
	04		 movss	 DWORD PTR [esp+4], xmm0
  00079	f3 0f 10 45 18	 movss	 xmm0, DWORD PTR tv196[ebp]
  0007e	8b ce		 mov	 ecx, esi
  00080	f3 0f 11 04 24	 movss	 DWORD PTR [esp], xmm0
  00085	ff d3		 call	 ebx

; 770  : 	
; 771  : 	if( iRealHeight + 2 <= pImage->GetHeight() )

  00087	8b ce		 mov	 ecx, esi
  00089	ff 15 00 00 00
	00		 call	 DWORD PTR __imp_?GetHeight@ioUIRenderElement@@QBEHXZ
  0008f	8b 4d 10	 mov	 ecx, DWORD PTR _iRealHeight$[ebp]
  00092	83 c1 02	 add	 ecx, 2
  00095	3b c8		 cmp	 ecx, eax
  00097	7f 41		 jg	 SHORT $LN5@RenderGaug

; 772  : 	{
; 773  : 		pImage->SetColor( 0, 0, 0 );

  00099	8b 06		 mov	 eax, DWORD PTR [esi]
  0009b	57		 push	 edi
  0009c	57		 push	 edi
  0009d	57		 push	 edi
  0009e	8b ce		 mov	 ecx, esi
  000a0	ff 50 28	 call	 DWORD PTR [eax+40]

; 774  : 		pImage->RenderHeightCut( xPos, yPos, iRealHeight, iRealHeight + 2 );

  000a3	8b 45 10	 mov	 eax, DWORD PTR _iRealHeight$[ebp]
  000a6	f3 0f 10 45 1c	 movss	 xmm0, DWORD PTR tv195[ebp]
  000ab	57		 push	 edi
  000ac	57		 push	 edi
  000ad	57		 push	 edi
  000ae	83 c0 02	 add	 eax, 2
  000b1	50		 push	 eax
  000b2	ff 75 10	 push	 DWORD PTR _iRealHeight$[ebp]
  000b5	51		 push	 ecx
  000b6	51		 push	 ecx
  000b7	f3 0f 11 44 24
	04		 movss	 DWORD PTR [esp+4], xmm0
  000bd	f3 0f 10 45 18	 movss	 xmm0, DWORD PTR tv196[ebp]
  000c2	8b ce		 mov	 ecx, esi
  000c4	f3 0f 11 04 24	 movss	 DWORD PTR [esp], xmm0
  000c9	ff d3		 call	 ebx

; 775  : 		pImage->SetColor( 255, 255, 255 );

  000cb	8b 16		 mov	 edx, DWORD PTR [esi]
  000cd	b8 ff 00 00 00	 mov	 eax, 255		; 000000ffH
  000d2	50		 push	 eax
  000d3	50		 push	 eax
  000d4	50		 push	 eax
  000d5	8b ce		 mov	 ecx, esi
  000d7	ff 52 28	 call	 DWORD PTR [edx+40]
$LN5@RenderGaug:
  000da	5b		 pop	 ebx
$LN1@RenderGaug:
  000db	5f		 pop	 edi
  000dc	5e		 pop	 esi

; 776  : 	}
; 777  : }

  000dd	5d		 pop	 ebp
  000de	c2 18 00	 ret	 24			; 00000018H
?RenderGaugeIcon@ExcavatingBtn@@IAEXHHPAVioUIRenderImage@@HHH@Z ENDP ; ExcavatingBtn::RenderGaugeIcon
_TEXT	ENDS
PUBLIC	?RenderInputKeyBack@ExcavatingBtn@@IAEXHH@Z	; ExcavatingBtn::RenderInputKeyBack
; Function compile flags: /Ogsp
;	COMDAT ?RenderInputKeyBack@ExcavatingBtn@@IAEXHH@Z
_TEXT	SEGMENT
_xPos$ = 8						; size = 4
_yPos$ = 12						; size = 4
?RenderInputKeyBack@ExcavatingBtn@@IAEXHH@Z PROC	; ExcavatingBtn::RenderInputKeyBack, COMDAT
; _this$ = ecx

; 808  : {

  00000	55		 push	 ebp
  00001	8b ec		 mov	 ebp, esp

; 809  : 	if( !m_pKeyBack ) return;

  00003	8d 81 08 02 00
	00		 lea	 eax, DWORD PTR [ecx+520]
  00009	33 c9		 xor	 ecx, ecx
  0000b	39 08		 cmp	 DWORD PTR [eax], ecx
  0000d	74 29		 je	 SHORT $LN2@RenderInpu

; 810  : 	m_pKeyBack->Render( xPos, yPos);

  0000f	66 0f 6e 45 0c	 movd	 xmm0, DWORD PTR _yPos$[ebp]
  00014	8b 00		 mov	 eax, DWORD PTR [eax]
  00016	8b 10		 mov	 edx, DWORD PTR [eax]
  00018	51		 push	 ecx
  00019	51		 push	 ecx
  0001a	51		 push	 ecx
  0001b	51		 push	 ecx
  0001c	51		 push	 ecx
  0001d	51		 push	 ecx
  0001e	0f 5b c0	 cvtdq2ps xmm0, xmm0
  00021	f3 0f 11 44 24
	04		 movss	 DWORD PTR [esp+4], xmm0
  00027	66 0f 6e 45 08	 movd	 xmm0, DWORD PTR _xPos$[ebp]
  0002c	0f 5b c0	 cvtdq2ps xmm0, xmm0
  0002f	8b c8		 mov	 ecx, eax
  00031	f3 0f 11 04 24	 movss	 DWORD PTR [esp], xmm0
  00036	ff 12		 call	 DWORD PTR [edx]
$LN2@RenderInpu:

; 811  : }

  00038	5d		 pop	 ebp
  00039	c2 08 00	 ret	 8
?RenderInputKeyBack@ExcavatingBtn@@IAEXHH@Z ENDP	; ExcavatingBtn::RenderInputKeyBack
_TEXT	ENDS
PUBLIC	?SetPlayStage@ExcavationSearchingWnd@@QAEXPAVioPlayStage@@@Z ; ExcavationSearchingWnd::SetPlayStage
; Function compile flags: /Ogsp
;	COMDAT ?SetPlayStage@ExcavationSearchingWnd@@QAEXPAVioPlayStage@@@Z
_TEXT	SEGMENT
_pPlayStage$ = 8					; size = 4
?SetPlayStage@ExcavationSearchingWnd@@QAEXPAVioPlayStage@@@Z PROC ; ExcavationSearchingWnd::SetPlayStage, COMDAT
; _this$ = ecx

; 1005 : {

  00000	55		 push	 ebp
  00001	8b ec		 mov	 ebp, esp

; 1006 : 	m_pPlayStage = pPlayStage;

  00003	8b 45 08	 mov	 eax, DWORD PTR _pPlayStage$[ebp]
  00006	89 81 90 01 00
	00		 mov	 DWORD PTR [ecx+400], eax

; 1007 : }

  0000c	5d		 pop	 ebp
  0000d	c2 04 00	 ret	 4
?SetPlayStage@ExcavationSearchingWnd@@QAEXPAVioPlayStage@@@Z ENDP ; ExcavationSearchingWnd::SetPlayStage
_TEXT	ENDS
PUBLIC	?ProcessRadar@ExcavationSearchingWnd@@IAEXXZ	; ExcavationSearchingWnd::ProcessRadar
EXTRN	__imp_??4ioHashString@@QAEAAV0@ABV0@@Z:PROC
EXTRN	__imp_?StopSound@ioSoundManager@@QAEXABVioHashString@@K@Z:PROC
; Function compile flags: /Ogsp
;	COMDAT ?ProcessRadar@ExcavationSearchingWnd@@IAEXXZ
_TEXT	SEGMENT
?ProcessRadar@ExcavationSearchingWnd@@IAEXXZ PROC	; ExcavationSearchingWnd::ProcessRadar, COMDAT
; _this$ = ecx

; 1362 : {

  00000	56		 push	 esi
  00001	57		 push	 edi

; 1363 : 	if( FRAMEGETTIME() - m_dwCurRadarCheckTime < m_dwRadarCheckTime  )

  00002	8b 3d 00 00 00
	00		 mov	 edi, DWORD PTR __imp_?GetSingleton@ioFrameTimer@@SAAAV1@XZ
  00008	8b f1		 mov	 esi, ecx
  0000a	ff d7		 call	 edi
  0000c	8b c8		 mov	 ecx, eax
  0000e	ff 15 00 00 00
	00		 call	 DWORD PTR __imp_?GetLoopSec@ioFrameTimer@@QBEKXZ
  00014	2b 86 fc 01 00
	00		 sub	 eax, DWORD PTR [esi+508]
  0001a	3b 86 f8 01 00
	00		 cmp	 eax, DWORD PTR [esi+504]
  00020	0f 82 c7 00 00
	00		 jb	 $LN1@ProcessRad

; 1364 : 		return;
; 1365 : 	m_dwCurRadarCheckTime = FRAMEGETTIME();

  00026	ff d7		 call	 edi
  00028	8b c8		 mov	 ecx, eax
  0002a	ff 15 00 00 00
	00		 call	 DWORD PTR __imp_?GetLoopSec@ioFrameTimer@@QBEKXZ
  00030	89 86 fc 01 00
	00		 mov	 DWORD PTR [esi+508], eax

; 1366 : 
; 1367 : 	enum { WAVE_WIDTH = 168, };
; 1368 : 	m_iWaveWidthcut-=m_iWaveAddSize;

  00036	8b 86 00 02 00
	00		 mov	 eax, DWORD PTR [esi+512]
  0003c	29 86 dc 01 00
	00		 sub	 DWORD PTR [esi+476], eax

; 1369 : 	if( m_iWaveWidthcut < 0 )

  00042	b8 a8 00 00 00	 mov	 eax, 168		; 000000a8H
  00047	79 06		 jns	 SHORT $LN7@ProcessRad

; 1370 : 		m_iWaveWidthcut = WAVE_WIDTH;

  00049	89 86 dc 01 00
	00		 mov	 DWORD PTR [esi+476], eax
$LN7@ProcessRad:

; 1371 : 
; 1372 : 	if( !m_bProcessRadarPos )

  0004f	80 be 8c 02 00
	00 00		 cmp	 BYTE PTR [esi+652], 0
  00056	0f 84 91 00 00
	00		 je	 $LN1@ProcessRad

; 1373 : 		return;
; 1374 : 
; 1375 : 	if( m_iWaveWidthcut == WAVE_WIDTH )

  0005c	39 86 dc 01 00
	00		 cmp	 DWORD PTR [esi+476], eax
  00062	75 6e		 jne	 SHORT $LN11@ProcessRad

; 1376 : 	{
; 1377 : 		m_iCurGrowWaveTypeArray = m_iRangeTypeArray; 

  00064	8b 86 d0 01 00
	00		 mov	 eax, DWORD PTR [esi+464]

; 1378 : 
; 1379 : 		if( !m_sCurWaveSound.IsEmpty() )

  0006a	8d be 70 02 00
	00		 lea	 edi, DWORD PTR [esi+624]
  00070	53		 push	 ebx
  00071	8b cf		 mov	 ecx, edi
  00073	89 86 d4 01 00
	00		 mov	 DWORD PTR [esi+468], eax
  00079	ff 15 00 00 00
	00		 call	 DWORD PTR __imp_?IsEmpty@ioHashString@@QBE_NXZ
  0007f	8b 1d 00 00 00
	00		 mov	 ebx, DWORD PTR __imp_?GetSingleton@ioSoundManager@@SAAAV1@XZ
  00085	84 c0		 test	 al, al
  00087	75 0d		 jne	 SHORT $LN4@ProcessRad

; 1380 : 			g_SoundMgr.StopSound( m_sCurWaveSound, 0 );

  00089	6a 00		 push	 0
  0008b	57		 push	 edi
  0008c	ff d3		 call	 ebx
  0008e	8b c8		 mov	 ecx, eax
  00090	ff 15 00 00 00
	00		 call	 DWORD PTR __imp_?StopSound@ioSoundManager@@QAEXABVioHashString@@K@Z
$LN4@ProcessRad:

; 1381 : 
; 1382 : 		if( COMPARE( m_iCurGrowWaveTypeArray, 0, MAX_SEARCHING_TYPE ) )

  00096	8b 86 d4 01 00
	00		 mov	 eax, DWORD PTR [esi+468]
  0009c	85 c0		 test	 eax, eax
  0009e	78 31		 js	 SHORT $LN12@ProcessRad
  000a0	83 f8 06	 cmp	 eax, 6
  000a3	7d 2c		 jge	 SHORT $LN12@ProcessRad

; 1383 : 		{
; 1384 : 			m_sCurWaveSound = m_sWaveSoundArray[m_iCurGrowWaveTypeArray];

  000a5	83 c0 21	 add	 eax, 33			; 00000021H
  000a8	c1 e0 04	 shl	 eax, 4
  000ab	03 c6		 add	 eax, esi
  000ad	50		 push	 eax
  000ae	8b cf		 mov	 ecx, edi
  000b0	ff 15 00 00 00
	00		 call	 DWORD PTR __imp_??4ioHashString@@QAEAAV0@ABV0@@Z

; 1385 : 			if( !m_sCurWaveSound.IsEmpty() )

  000b6	8b cf		 mov	 ecx, edi
  000b8	ff 15 00 00 00
	00		 call	 DWORD PTR __imp_?IsEmpty@ioHashString@@QBE_NXZ
  000be	84 c0		 test	 al, al
  000c0	75 0f		 jne	 SHORT $LN12@ProcessRad

; 1386 : 				g_SoundMgr.PlaySound( m_sCurWaveSound, DSBVOLUME_MAX, PSM_LOOP | PSM_THREAD );

  000c2	6a 06		 push	 6
  000c4	6a 00		 push	 0
  000c6	57		 push	 edi
  000c7	ff d3		 call	 ebx
  000c9	8b c8		 mov	 ecx, eax
  000cb	ff 15 00 00 00
	00		 call	 DWORD PTR __imp_?PlaySoundA@ioSoundManager@@QAEKABVioHashString@@HK@Z
$LN12@ProcessRad:
  000d1	5b		 pop	 ebx
$LN11@ProcessRad:

; 1387 : 		}
; 1388 : 	}
; 1389 : 
; 1390 : 	if( COMPARE( m_iWaveWidthcut , 0, 10 ) )

  000d2	8b 86 dc 01 00
	00		 mov	 eax, DWORD PTR [esi+476]
  000d8	85 c0		 test	 eax, eax
  000da	78 11		 js	 SHORT $LN1@ProcessRad
  000dc	83 f8 0a	 cmp	 eax, 10			; 0000000aH
  000df	7d 0c		 jge	 SHORT $LN1@ProcessRad

; 1391 : 		m_iCurExtinctWaveTypeArray = m_iCurGrowWaveTypeArray;

  000e1	8b 86 d4 01 00
	00		 mov	 eax, DWORD PTR [esi+468]
  000e7	89 86 d8 01 00
	00		 mov	 DWORD PTR [esi+472], eax
$LN1@ProcessRad:

; 1392 : }

  000ed	5f		 pop	 edi
  000ee	5e		 pop	 esi
  000ef	c3		 ret	 0
?ProcessRadar@ExcavationSearchingWnd@@IAEXXZ ENDP	; ExcavationSearchingWnd::ProcessRadar
_TEXT	ENDS
PUBLIC	?UpdateDefaultPos@ExcavationSearchingWnd@@IAEXXZ ; ExcavationSearchingWnd::UpdateDefaultPos
EXTRN	?Height@Setting@@SAHXZ:PROC			; Setting::Height
EXTRN	__imp_?GetHeight@ioWnd@@QBEHXZ:PROC
EXTRN	__imp_?GetYPos@ioWnd@@QBEHXZ:PROC
EXTRN	?Width@Setting@@SAHXZ:PROC			; Setting::Width
EXTRN	__imp_?GetWidth@ioWnd@@QBEHXZ:PROC
EXTRN	__imp_?GetXPos@ioWnd@@QBEHXZ:PROC
EXTRN	__imp_?IsMoving@ioMovingWnd@@QAE_NXZ:PROC
EXTRN	?IsDragMove@ioSP2GUIManager@@QBE_NK@Z:PROC	; ioSP2GUIManager::IsDragMove
; Function compile flags: /Ogsp
;	COMDAT ?UpdateDefaultPos@ExcavationSearchingWnd@@IAEXXZ
_TEXT	SEGMENT
?UpdateDefaultPos@ExcavationSearchingWnd@@IAEXXZ PROC	; ExcavationSearchingWnd::UpdateDefaultPos, COMDAT
; _this$ = ecx

; 1395 : {

  00000	56		 push	 esi
  00001	8b f1		 mov	 esi, ecx

; 1396 : 	if(  g_GUIMgr.IsDragMove( m_dwID )  || IsMoving() )

  00003	ff 76 14	 push	 DWORD PTR [esi+20]
  00006	e8 00 00 00 00	 call	 ?GetSingleton@ioSP2GUIManager@@SAAAV1@XZ ; ioSP2GUIManager::GetSingleton
  0000b	8b c8		 mov	 ecx, eax
  0000d	e8 00 00 00 00	 call	 ?IsDragMove@ioSP2GUIManager@@QBE_NK@Z ; ioSP2GUIManager::IsDragMove
  00012	84 c0		 test	 al, al
  00014	75 10		 jne	 SHORT $LN5@UpdateDefa
  00016	8b ce		 mov	 ecx, esi
  00018	ff 15 00 00 00
	00		 call	 DWORD PTR __imp_?IsMoving@ioMovingWnd@@QAE_NXZ
  0001e	84 c0		 test	 al, al
  00020	0f 84 96 00 00
	00		 je	 $LN1@UpdateDefa
$LN5@UpdateDefa:
  00026	57		 push	 edi

; 1397 : 	{
; 1398 : 		if( m_iDefaultX != GetXPos() )

  00027	8b ce		 mov	 ecx, esi
  00029	ff 15 00 00 00
	00		 call	 DWORD PTR __imp_?GetXPos@ioWnd@@QBEHXZ
  0002f	39 86 08 02 00
	00		 cmp	 DWORD PTR [esi+520], eax
  00035	74 3a		 je	 SHORT $LN3@UpdateDefa

; 1399 : 		{
; 1400 : 			if( COMPARE( GetXPos(), 0, (Setting::Width() - GetWidth() ) + 1 ))

  00037	8b ce		 mov	 ecx, esi
  00039	ff 15 00 00 00
	00		 call	 DWORD PTR __imp_?GetXPos@ioWnd@@QBEHXZ
  0003f	85 c0		 test	 eax, eax
  00041	78 2e		 js	 SHORT $LN3@UpdateDefa
  00043	8b ce		 mov	 ecx, esi
  00045	ff 15 00 00 00
	00		 call	 DWORD PTR __imp_?GetWidth@ioWnd@@QBEHXZ
  0004b	33 ff		 xor	 edi, edi
  0004d	47		 inc	 edi
  0004e	2b f8		 sub	 edi, eax
  00050	e8 00 00 00 00	 call	 ?Width@Setting@@SAHXZ	; Setting::Width
  00055	8b ce		 mov	 ecx, esi
  00057	03 f8		 add	 edi, eax
  00059	ff 15 00 00 00
	00		 call	 DWORD PTR __imp_?GetXPos@ioWnd@@QBEHXZ
  0005f	3b c7		 cmp	 eax, edi
  00061	7d 0e		 jge	 SHORT $LN3@UpdateDefa

; 1401 : 				m_iDefaultX = GetXPos();

  00063	8b ce		 mov	 ecx, esi
  00065	ff 15 00 00 00
	00		 call	 DWORD PTR __imp_?GetXPos@ioWnd@@QBEHXZ
  0006b	89 86 08 02 00
	00		 mov	 DWORD PTR [esi+520], eax
$LN3@UpdateDefa:

; 1402 : 		}
; 1403 : 
; 1404 : 		if( m_iDefaultY != GetYPos() )

  00071	8b ce		 mov	 ecx, esi
  00073	ff 15 00 00 00
	00		 call	 DWORD PTR __imp_?GetYPos@ioWnd@@QBEHXZ
  00079	39 86 0c 02 00
	00		 cmp	 DWORD PTR [esi+524], eax
  0007f	74 3a		 je	 SHORT $LN9@UpdateDefa

; 1405 : 		{
; 1406 : 			if( COMPARE( GetYPos(), 0, (Setting::Height() - GetHeight() ) + 1 ))

  00081	8b ce		 mov	 ecx, esi
  00083	ff 15 00 00 00
	00		 call	 DWORD PTR __imp_?GetYPos@ioWnd@@QBEHXZ
  00089	85 c0		 test	 eax, eax
  0008b	78 2e		 js	 SHORT $LN9@UpdateDefa
  0008d	8b ce		 mov	 ecx, esi
  0008f	ff 15 00 00 00
	00		 call	 DWORD PTR __imp_?GetHeight@ioWnd@@QBEHXZ
  00095	33 ff		 xor	 edi, edi
  00097	47		 inc	 edi
  00098	2b f8		 sub	 edi, eax
  0009a	e8 00 00 00 00	 call	 ?Height@Setting@@SAHXZ	; Setting::Height
  0009f	8b ce		 mov	 ecx, esi
  000a1	03 f8		 add	 edi, eax
  000a3	ff 15 00 00 00
	00		 call	 DWORD PTR __imp_?GetYPos@ioWnd@@QBEHXZ
  000a9	3b c7		 cmp	 eax, edi
  000ab	7d 0e		 jge	 SHORT $LN9@UpdateDefa

; 1407 : 				m_iDefaultY = GetYPos();

  000ad	8b ce		 mov	 ecx, esi
  000af	ff 15 00 00 00
	00		 call	 DWORD PTR __imp_?GetYPos@ioWnd@@QBEHXZ
  000b5	89 86 0c 02 00
	00		 mov	 DWORD PTR [esi+524], eax
$LN9@UpdateDefa:
  000bb	5f		 pop	 edi
$LN1@UpdateDefa:
  000bc	5e		 pop	 esi

; 1408 : 		}
; 1409 : 	}
; 1410 : }

  000bd	c3		 ret	 0
?UpdateDefaultPos@ExcavationSearchingWnd@@IAEXXZ ENDP	; ExcavationSearchingWnd::UpdateDefaultPos
_TEXT	ENDS
PUBLIC	??_C@_04IAEKAMNC@YPos?$AA@			; `string'
PUBLIC	??_C@_0BH@EPABHOPI@ExcavationSearchingWnd?$AA@	; `string'
PUBLIC	??_C@_04LNCKCFGC@XPos?$AA@			; `string'
PUBLIC	?iwm_create@ExcavationSearchingWnd@@UAEXXZ	; ExcavationSearchingWnd::iwm_create
EXTRN	__imp_?SetWndPos@ioWnd@@QAEXHH@Z:PROC
EXTRN	?GUIPosLoadInt@ioSP2GUIManager@@QAEHPBD0HH@Z:PROC ; ioSP2GUIManager::GUIPosLoadInt
;	COMDAT ??_C@_04IAEKAMNC@YPos?$AA@
CONST	SEGMENT
??_C@_04IAEKAMNC@YPos?$AA@ DB 'YPos', 00H		; `string'
CONST	ENDS
;	COMDAT ??_C@_0BH@EPABHOPI@ExcavationSearchingWnd?$AA@
CONST	SEGMENT
??_C@_0BH@EPABHOPI@ExcavationSearchingWnd?$AA@ DB 'ExcavationSearchingWnd'
	DB	00H						; `string'
CONST	ENDS
;	COMDAT ??_C@_04LNCKCFGC@XPos?$AA@
CONST	SEGMENT
??_C@_04LNCKCFGC@XPos?$AA@ DB 'XPos', 00H		; `string'
; Function compile flags: /Ogsp
CONST	ENDS
;	COMDAT ?iwm_create@ExcavationSearchingWnd@@UAEXXZ
_TEXT	SEGMENT
?iwm_create@ExcavationSearchingWnd@@UAEXXZ PROC		; ExcavationSearchingWnd::iwm_create, COMDAT
; _this$ = ecx

; 1413 : {

  00000	53		 push	 ebx
  00001	56		 push	 esi
  00002	57		 push	 edi

; 1414 : 	int iXPos = g_GUIMgr.GUIPosLoadInt( "ExcavationSearchingWnd", "XPos", GetXPos() ,POS_SAVE_VERSION );

  00003	6a 04		 push	 4
  00005	8b f9		 mov	 edi, ecx
  00007	ff 15 00 00 00
	00		 call	 DWORD PTR __imp_?GetXPos@ioWnd@@QBEHXZ
  0000d	50		 push	 eax
  0000e	68 00 00 00 00	 push	 OFFSET ??_C@_04LNCKCFGC@XPos?$AA@
  00013	be 00 00 00 00	 mov	 esi, OFFSET ??_C@_0BH@EPABHOPI@ExcavationSearchingWnd?$AA@
  00018	56		 push	 esi
  00019	e8 00 00 00 00	 call	 ?GetSingleton@ioSP2GUIManager@@SAAAV1@XZ ; ioSP2GUIManager::GetSingleton
  0001e	8b c8		 mov	 ecx, eax
  00020	e8 00 00 00 00	 call	 ?GUIPosLoadInt@ioSP2GUIManager@@QAEHPBD0HH@Z ; ioSP2GUIManager::GUIPosLoadInt

; 1415 : 	int iYPos = g_GUIMgr.GUIPosLoadInt( "ExcavationSearchingWnd", "YPos", GetYPos() ,POS_SAVE_VERSION );

  00025	6a 04		 push	 4
  00027	8b cf		 mov	 ecx, edi
  00029	8b d8		 mov	 ebx, eax
  0002b	ff 15 00 00 00
	00		 call	 DWORD PTR __imp_?GetYPos@ioWnd@@QBEHXZ
  00031	50		 push	 eax
  00032	68 00 00 00 00	 push	 OFFSET ??_C@_04IAEKAMNC@YPos?$AA@
  00037	56		 push	 esi
  00038	e8 00 00 00 00	 call	 ?GetSingleton@ioSP2GUIManager@@SAAAV1@XZ ; ioSP2GUIManager::GetSingleton
  0003d	8b c8		 mov	 ecx, eax
  0003f	e8 00 00 00 00	 call	 ?GUIPosLoadInt@ioSP2GUIManager@@QAEHPBD0HH@Z ; ioSP2GUIManager::GUIPosLoadInt
  00044	8b f0		 mov	 esi, eax

; 1416 : 
; 1417 : 	if( COMPARE( iXPos, 0, Setting::Width() ) && 
; 1418 : 		COMPARE( iYPos, 0, Setting::Height() ) )

  00046	85 db		 test	 ebx, ebx
  00048	78 20		 js	 SHORT $LN1@iwm_create
  0004a	e8 00 00 00 00	 call	 ?Width@Setting@@SAHXZ	; Setting::Width
  0004f	3b d8		 cmp	 ebx, eax
  00051	7d 17		 jge	 SHORT $LN1@iwm_create
  00053	85 f6		 test	 esi, esi
  00055	78 13		 js	 SHORT $LN1@iwm_create
  00057	e8 00 00 00 00	 call	 ?Height@Setting@@SAHXZ	; Setting::Height
  0005c	3b f0		 cmp	 esi, eax
  0005e	7d 0a		 jge	 SHORT $LN1@iwm_create

; 1419 : 	{
; 1420 : 		SetWndPos( iXPos, iYPos );

  00060	56		 push	 esi
  00061	53		 push	 ebx
  00062	8b cf		 mov	 ecx, edi
  00064	ff 15 00 00 00
	00		 call	 DWORD PTR __imp_?SetWndPos@ioWnd@@QAEXHH@Z
$LN1@iwm_create:

; 1421 : 	}
; 1422 : 
; 1423 : 	m_iDefaultX = GetDerivedPosX();

  0006a	8b cf		 mov	 ecx, edi
  0006c	ff 15 00 00 00
	00		 call	 DWORD PTR __imp_?GetDerivedPosX@ioWnd@@QBEHXZ

; 1424 : 	m_iDefaultY = GetDerivedPosY();

  00072	8b cf		 mov	 ecx, edi
  00074	89 87 08 02 00
	00		 mov	 DWORD PTR [edi+520], eax
  0007a	ff 15 00 00 00
	00		 call	 DWORD PTR __imp_?GetDerivedPosY@ioWnd@@QBEHXZ
  00080	89 87 0c 02 00
	00		 mov	 DWORD PTR [edi+524], eax
  00086	5f		 pop	 edi
  00087	5e		 pop	 esi
  00088	5b		 pop	 ebx

; 1425 : }

  00089	c3		 ret	 0
?iwm_create@ExcavationSearchingWnd@@UAEXXZ ENDP		; ExcavationSearchingWnd::iwm_create
_TEXT	ENDS
PUBLIC	__real@3fcc28f5c0000000
PUBLIC	?SetPositionToDefault@ExcavationSearchingWnd@@UAEXHH_N0@Z ; ExcavationSearchingWnd::SetPositionToDefault
EXTRN	__imp_?SetPositionToDefault@ioMovingWnd@@UAEXHH_N0@Z:PROC
;	COMDAT __real@3fcc28f5c0000000
CONST	SEGMENT
__real@3fcc28f5c0000000 DQ 03fcc28f5c0000000r	; 0.22
; Function compile flags: /Ogsp
CONST	ENDS
;	COMDAT ?SetPositionToDefault@ExcavationSearchingWnd@@UAEXHH_N0@Z
_TEXT	SEGMENT
tv176 = -8						; size = 8
_iParentWidth$ = 8					; size = 4
_iParentHeight$ = 12					; size = 4
_bChildMove$ = 16					; size = 1
_bCreate$ = 20						; size = 1
?SetPositionToDefault@ExcavationSearchingWnd@@UAEXHH_N0@Z PROC ; ExcavationSearchingWnd::SetPositionToDefault, COMDAT
; _this$ = ecx

; 1428 : {

  00000	55		 push	 ebp
  00001	8b ec		 mov	 ebp, esp
  00003	51		 push	 ecx
  00004	51		 push	 ecx
  00005	56		 push	 esi
  00006	8b f1		 mov	 esi, ecx
  00008	57		 push	 edi

; 1429 : 	int iTempDefYPos = m_iDefYPos;

  00009	8b be c4 00 00
	00		 mov	 edi, DWORD PTR [esi+196]

; 1430 : 	m_iDefYPos -= ( Setting::Height() - 600 ) * 0.22f;

  0000f	0f 57 c0	 xorps	 xmm0, xmm0
  00012	f2 0f 2a c7	 cvtsi2sd xmm0, edi
  00016	f2 0f 11 45 f8	 movsd	 QWORD PTR tv176[ebp], xmm0
  0001b	e8 00 00 00 00	 call	 ?Height@Setting@@SAHXZ	; Setting::Height

; 1431 : 
; 1432 : 	ioMovingWnd::SetPositionToDefault( iParentWidth, iParentHeight, bChildMove, bCreate );

  00020	ff 75 14	 push	 DWORD PTR _bCreate$[ebp]
  00023	f2 0f 10 4d f8	 movsd	 xmm1, QWORD PTR tv176[ebp]
  00028	ff 75 10	 push	 DWORD PTR _bChildMove$[ebp]
  0002b	2d 58 02 00 00	 sub	 eax, 600		; 00000258H
  00030	ff 75 0c	 push	 DWORD PTR _iParentHeight$[ebp]
  00033	0f 57 c0	 xorps	 xmm0, xmm0
  00036	ff 75 08	 push	 DWORD PTR _iParentWidth$[ebp]
  00039	f3 0f 2a c0	 cvtsi2ss xmm0, eax
  0003d	0f 5a c0	 cvtps2pd xmm0, xmm0
  00040	f2 0f 59 05 00
	00 00 00	 mulsd	 xmm0, QWORD PTR __real@3fcc28f5c0000000
  00048	f2 0f 5c c8	 subsd	 xmm1, xmm0
  0004c	f2 0f 2c c1	 cvttsd2si eax, xmm1
  00050	8b ce		 mov	 ecx, esi
  00052	89 86 c4 00 00
	00		 mov	 DWORD PTR [esi+196], eax
  00058	ff 15 00 00 00
	00		 call	 DWORD PTR __imp_?SetPositionToDefault@ioMovingWnd@@UAEXHH_N0@Z

; 1433 : 
; 1434 : 	m_iDefYPos = iTempDefYPos;
; 1435 : 
; 1436 : 	if( !bCreate )

  0005e	80 7d 14 00	 cmp	 BYTE PTR _bCreate$[ebp], 0
  00062	89 be c4 00 00
	00		 mov	 DWORD PTR [esi+196], edi
  00068	75 1c		 jne	 SHORT $LN1@SetPositio

; 1437 : 	{
; 1438 : 		m_iDefaultX = GetXPos();

  0006a	8b ce		 mov	 ecx, esi
  0006c	ff 15 00 00 00
	00		 call	 DWORD PTR __imp_?GetXPos@ioWnd@@QBEHXZ

; 1439 : 		m_iDefaultY = GetYPos();

  00072	8b ce		 mov	 ecx, esi
  00074	89 86 08 02 00
	00		 mov	 DWORD PTR [esi+520], eax
  0007a	ff 15 00 00 00
	00		 call	 DWORD PTR __imp_?GetYPos@ioWnd@@QBEHXZ
  00080	89 86 0c 02 00
	00		 mov	 DWORD PTR [esi+524], eax
$LN1@SetPositio:
  00086	5f		 pop	 edi
  00087	5e		 pop	 esi

; 1440 : 	}
; 1441 : }

  00088	c9		 leave
  00089	c2 10 00	 ret	 16			; 00000010H
?SetPositionToDefault@ExcavationSearchingWnd@@UAEXHH_N0@Z ENDP ; ExcavationSearchingWnd::SetPositionToDefault
_TEXT	ENDS
PUBLIC	?iwm_hide@ExcavationSearchingWnd@@UAEXXZ	; ExcavationSearchingWnd::iwm_hide
EXTRN	__imp_?HideChildWnd@ioWnd@@QAEXK_N@Z:PROC
; Function compile flags: /Ogsp
;	COMDAT ?iwm_hide@ExcavationSearchingWnd@@UAEXXZ
_TEXT	SEGMENT
tv153 = -4						; size = 4
?iwm_hide@ExcavationSearchingWnd@@UAEXXZ PROC		; ExcavationSearchingWnd::iwm_hide, COMDAT
; _this$ = ecx

; 1459 : {

  00000	55		 push	 ebp
  00001	8b ec		 mov	 ebp, esp
  00003	51		 push	 ecx
  00004	53		 push	 ebx
  00005	56		 push	 esi
  00006	57		 push	 edi

; 1460 : 	HideChildWnd( ID_EXCAVATING_BTN );

  00007	6a 00		 push	 0
  00009	6a 02		 push	 2
  0000b	8b f1		 mov	 esi, ecx
  0000d	ff 15 00 00 00
	00		 call	 DWORD PTR __imp_?HideChildWnd@ioWnd@@QAEXK_N@Z

; 1461 : 
; 1462 : 	if( !m_sCurWaveSound.IsEmpty() )

  00013	8d 8e 70 02 00
	00		 lea	 ecx, DWORD PTR [esi+624]
  00019	ff 15 00 00 00
	00		 call	 DWORD PTR __imp_?IsEmpty@ioHashString@@QBE_NXZ
  0001f	8b 3d 00 00 00
	00		 mov	 edi, DWORD PTR __imp_?StopSound@ioSoundManager@@QAEXABVioHashString@@K@Z
  00025	8b 1d 00 00 00
	00		 mov	 ebx, DWORD PTR __imp_?GetSingleton@ioSoundManager@@SAAAV1@XZ
  0002b	84 c0		 test	 al, al
  0002d	75 0f		 jne	 SHORT $LN5@iwm_hide

; 1463 : 		g_SoundMgr.StopSound( m_sCurWaveSound, 0 );

  0002f	8d 86 70 02 00
	00		 lea	 eax, DWORD PTR [esi+624]
  00035	6a 00		 push	 0
  00037	50		 push	 eax
  00038	ff d3		 call	 ebx
  0003a	8b c8		 mov	 ecx, eax
  0003c	ff d7		 call	 edi
$LN5@iwm_hide:

; 1464 : 
; 1465 : 	for (int i = 0; i < MAX_SEARCHING_TYPE ; i++)

  0003e	81 c6 10 02 00
	00		 add	 esi, 528		; 00000210H
  00044	c7 45 fc 06 00
	00 00		 mov	 DWORD PTR tv153[ebp], 6
$LL4@iwm_hide:

; 1466 : 	{
; 1467 : 		if( !m_sWaveSoundArray[i].IsEmpty() )

  0004b	8b ce		 mov	 ecx, esi
  0004d	ff 15 00 00 00
	00		 call	 DWORD PTR __imp_?IsEmpty@ioHashString@@QBE_NXZ
  00053	84 c0		 test	 al, al
  00055	75 09		 jne	 SHORT $LN3@iwm_hide

; 1468 : 		g_SoundMgr.StopSound( m_sWaveSoundArray[i], 0 );

  00057	6a 00		 push	 0
  00059	56		 push	 esi
  0005a	ff d3		 call	 ebx
  0005c	8b c8		 mov	 ecx, eax
  0005e	ff d7		 call	 edi
$LN3@iwm_hide:

; 1464 : 
; 1465 : 	for (int i = 0; i < MAX_SEARCHING_TYPE ; i++)

  00060	83 c6 10	 add	 esi, 16			; 00000010H
  00063	ff 4d fc	 dec	 DWORD PTR tv153[ebp]
  00066	75 e3		 jne	 SHORT $LL4@iwm_hide
  00068	5f		 pop	 edi
  00069	5e		 pop	 esi
  0006a	5b		 pop	 ebx

; 1469 : 	}
; 1470 : }

  0006b	c9		 leave
  0006c	c3		 ret	 0
?iwm_hide@ExcavationSearchingWnd@@UAEXXZ ENDP		; ExcavationSearchingWnd::iwm_hide
_TEXT	ENDS
PUBLIC	?UpdateExp@ExcavationSearchingWnd@@QAEXXZ	; ExcavationSearchingWnd::UpdateExp
EXTRN	?GetExcavationLevel@ioMyInfo@@QAEHXZ:PROC	; ioMyInfo::GetExcavationLevel
EXTRN	?GetExcavationExpert@ioMyInfo@@QAEHXZ:PROC	; ioMyInfo::GetExcavationExpert
; Function compile flags: /Ogsp
;	COMDAT ?UpdateExp@ExcavationSearchingWnd@@QAEXXZ
_TEXT	SEGMENT
?UpdateExp@ExcavationSearchingWnd@@QAEXXZ PROC		; ExcavationSearchingWnd::UpdateExp, COMDAT
; _this$ = ecx

; 1497 : {

  00000	56		 push	 esi

; 1498 : 	ExcavationExpWnd* pExp = dynamic_cast<ExcavationExpWnd*> ( FindChildWnd( ID_EXP_WND ) );

  00001	6a 00		 push	 0
  00003	68 00 00 00 00	 push	 OFFSET ??_R0?AVExcavationExpWnd@@@8
  00008	68 00 00 00 00	 push	 OFFSET ??_R0?AVioWnd@@@8
  0000d	6a 00		 push	 0
  0000f	6a 03		 push	 3
  00011	ff 15 00 00 00
	00		 call	 DWORD PTR __imp_?FindChildWnd@ioWnd@@QAEPAV1@K@Z
  00017	50		 push	 eax
  00018	e8 00 00 00 00	 call	 ___RTDynamicCast
  0001d	8b f0		 mov	 esi, eax
  0001f	83 c4 14	 add	 esp, 20			; 00000014H

; 1499 : 	if( !pExp ) return;

  00022	85 f6		 test	 esi, esi
  00024	74 28		 je	 SHORT $LN4@UpdateExp

; 1500 : 
; 1501 : 	pExp->SetInfo( g_MyInfo.GetExcavationLevel(), g_MyInfo.GetExcavationExpert() );

  00026	57		 push	 edi
  00027	e8 00 00 00 00	 call	 ?GetSingleton@ioMyInfo@@SAAAV1@XZ ; ioMyInfo::GetSingleton
  0002c	8b c8		 mov	 ecx, eax
  0002e	e8 00 00 00 00	 call	 ?GetExcavationExpert@ioMyInfo@@QAEHXZ ; ioMyInfo::GetExcavationExpert
  00033	8b f8		 mov	 edi, eax
  00035	e8 00 00 00 00	 call	 ?GetSingleton@ioMyInfo@@SAAAV1@XZ ; ioMyInfo::GetSingleton
  0003a	8b c8		 mov	 ecx, eax
  0003c	e8 00 00 00 00	 call	 ?GetExcavationLevel@ioMyInfo@@QAEHXZ ; ioMyInfo::GetExcavationLevel
  00041	89 be 68 01 00
	00		 mov	 DWORD PTR [esi+360], edi
  00047	89 86 64 01 00
	00		 mov	 DWORD PTR [esi+356], eax
  0004d	5f		 pop	 edi
$LN4@UpdateExp:
  0004e	5e		 pop	 esi

; 1502 : }

  0004f	c3		 ret	 0
?UpdateExp@ExcavationSearchingWnd@@QAEXXZ ENDP		; ExcavationSearchingWnd::UpdateExp
_TEXT	ENDS
PUBLIC	??_7ExcavationBuyPopup@@6B@			; ExcavationBuyPopup::`vftable'
PUBLIC	??0ExcavationBuyPopup@@QAE@XZ			; ExcavationBuyPopup::ExcavationBuyPopup
PUBLIC	??_R4ExcavationBuyPopup@@6B@			; ExcavationBuyPopup::`RTTI Complete Object Locator'
PUBLIC	??_R0?AVExcavationBuyPopup@@@8			; ExcavationBuyPopup `RTTI Type Descriptor'
PUBLIC	??_R3ExcavationBuyPopup@@8			; ExcavationBuyPopup::`RTTI Class Hierarchy Descriptor'
PUBLIC	??_R2ExcavationBuyPopup@@8			; ExcavationBuyPopup::`RTTI Base Class Array'
PUBLIC	??_R1A@?0A@EA@ExcavationBuyPopup@@8		; ExcavationBuyPopup::`RTTI Base Class Descriptor at (0,-1,0,64)'
PUBLIC	?AddRenderImage@ExcavationBuyPopup@@UAEXABVioHashString@@PAVioUIRenderImage@@@Z ; ExcavationBuyPopup::AddRenderImage
PUBLIC	?OnRender@ExcavationBuyPopup@@MAEXXZ		; ExcavationBuyPopup::OnRender
PUBLIC	?iwm_command@ExcavationBuyPopup@@UAEXPAVioWnd@@HK@Z ; ExcavationBuyPopup::iwm_command
PUBLIC	?iwm_show@ExcavationBuyPopup@@UAEXXZ		; ExcavationBuyPopup::iwm_show
PUBLIC	?iwm_hide@ExcavationBuyPopup@@UAEXXZ		; ExcavationBuyPopup::iwm_hide
EXTRN	??_EExcavationBuyPopup@@UAEPAXI@Z:PROC		; ExcavationBuyPopup::`vector deleting destructor'
;	COMDAT ??_R1A@?0A@EA@ExcavationBuyPopup@@8
rdata$r	SEGMENT
??_R1A@?0A@EA@ExcavationBuyPopup@@8 DD FLAT:??_R0?AVExcavationBuyPopup@@@8 ; ExcavationBuyPopup::`RTTI Base Class Descriptor at (0,-1,0,64)'
	DD	01H
	DD	00H
	DD	0ffffffffH
	DD	00H
	DD	040H
	DD	FLAT:??_R3ExcavationBuyPopup@@8
rdata$r	ENDS
;	COMDAT ??_R2ExcavationBuyPopup@@8
rdata$r	SEGMENT
??_R2ExcavationBuyPopup@@8 DD FLAT:??_R1A@?0A@EA@ExcavationBuyPopup@@8 ; ExcavationBuyPopup::`RTTI Base Class Array'
	DD	FLAT:??_R1A@?0A@EA@ioWnd@@8
rdata$r	ENDS
;	COMDAT ??_R3ExcavationBuyPopup@@8
rdata$r	SEGMENT
??_R3ExcavationBuyPopup@@8 DD 00H			; ExcavationBuyPopup::`RTTI Class Hierarchy Descriptor'
	DD	00H
	DD	02H
	DD	FLAT:??_R2ExcavationBuyPopup@@8
rdata$r	ENDS
;	COMDAT ??_R0?AVExcavationBuyPopup@@@8
_DATA	SEGMENT
??_R0?AVExcavationBuyPopup@@@8 DD FLAT:??_7type_info@@6B@ ; ExcavationBuyPopup `RTTI Type Descriptor'
	DD	00H
	DB	'.?AVExcavationBuyPopup@@', 00H
_DATA	ENDS
;	COMDAT ??_R4ExcavationBuyPopup@@6B@
rdata$r	SEGMENT
??_R4ExcavationBuyPopup@@6B@ DD 00H			; ExcavationBuyPopup::`RTTI Complete Object Locator'
	DD	00H
	DD	00H
	DD	FLAT:??_R0?AVExcavationBuyPopup@@@8
	DD	FLAT:??_R3ExcavationBuyPopup@@8
rdata$r	ENDS
;	COMDAT ??_7ExcavationBuyPopup@@6B@
CONST	SEGMENT
??_7ExcavationBuyPopup@@6B@ DD FLAT:??_R4ExcavationBuyPopup@@6B@ ; ExcavationBuyPopup::`vftable'
	DD	FLAT:?AddRenderFrame@ioWnd@@UAEXABVioHashString@@PAVioUIRenderFrame@@@Z
	DD	FLAT:?AddRenderImage@ExcavationBuyPopup@@UAEXABVioHashString@@PAVioUIRenderImage@@@Z
	DD	FLAT:?AddTooltipHelp@ioWnd@@UAEXABVioHashString@@00@Z
	DD	FLAT:?ParseExtraInfo@ioWnd@@UAEXAAVioXMLElement@@@Z
	DD	FLAT:?AddNamedRenderImage@ioWnd@@UAEXABVioHashString@@PAVioUIRenderImage@@@Z
	DD	FLAT:?RemoveNamedRenderImage@ioWnd@@UAEXABVioHashString@@@Z
	DD	FLAT:?GetNamedRenderImage@ioWnd@@UBEPAVioUIRenderImage@@ABVioHashString@@@Z
	DD	FLAT:?SetWindowAlpha@ioWnd@@UAEXH@Z
	DD	FLAT:?SetActive@ioWnd@@UAEXXZ
	DD	FLAT:?SetInActive@ioWnd@@UAEXXZ
	DD	FLAT:?ClearElementImageList@ioWnd@@UAEXXZ
	DD	FLAT:?SetSize@ioWnd@@UAEXHH@Z
	DD	FLAT:?SetPositionToDefault@ioWnd@@UAEXHH_N0@Z
	DD	FLAT:?IsNeedProcess@ioWnd@@UBE_NXZ
	DD	FLAT:?IsCanMouseReaction@ioWnd@@UBE_NXZ
	DD	FLAT:?AddChild@ioWnd@@UAEXPAV1@@Z
	DD	FLAT:?DeleteChild@ioWnd@@UAEXK@Z
	DD	FLAT:?DeleteAllChild@ioWnd@@UAEXXZ
	DD	FLAT:?OnRenderShowAndHide@ioWnd@@MAE_NXZ
	DD	FLAT:?OnRenderShowAndHideByDefault@ioWnd@@MAE_NK@Z
	DD	FLAT:?OnRenderShowAndHideByTop@ioWnd@@MAE_NK@Z
	DD	FLAT:?OnRenderShowAndHideByDown@ioWnd@@MAE_NK@Z
	DD	FLAT:?OnRender@ExcavationBuyPopup@@MAEXXZ
	DD	FLAT:?OnRenderAfterChild@ioWnd@@MAEXXZ
	DD	FLAT:?OnProcess@ioWnd@@MAEXM@Z
	DD	FLAT:?OnMouseProcess@ioWnd@@MAEXABVioMouse@@@Z
	DD	FLAT:?CheckFrameReSize@ioWnd@@MAEXHHHH@Z
	DD	FLAT:?RenderImageList@ioWnd@@MAEXHHW4UIRenderType@@@Z
	DD	FLAT:?iwm_create@ioWnd@@UAEXXZ
	DD	FLAT:?iwm_destroy@ioWnd@@UAEXXZ
	DD	FLAT:?iwm_lbuttondown@ioWnd@@UAEXABVioMouse@@@Z
	DD	FLAT:?iwm_lbuttonup@ioWnd@@UAEXABVioMouse@@@Z
	DD	FLAT:?iwm_lbuttonDBLCLK@ioWnd@@UAEXABVioMouse@@@Z
	DD	FLAT:?iwm_rbuttondown@ioWnd@@UAEXABVioMouse@@@Z
	DD	FLAT:?iwm_rbuttonup@ioWnd@@UAEXABVioMouse@@@Z
	DD	FLAT:?iwm_command@ExcavationBuyPopup@@UAEXPAVioWnd@@HK@Z
	DD	FLAT:?iwm_mouseover@ioWnd@@UAEXABVioMouse@@@Z
	DD	FLAT:?iwm_mousemove@ioWnd@@UAEXABVioMouse@@@Z
	DD	FLAT:?iwm_mouseleave@ioWnd@@UAEXABVioMouse@@@Z
	DD	FLAT:?iwm_vscroll@ioWnd@@UAEXKH@Z
	DD	FLAT:?iwm_wheel@ioWnd@@UAEXH@Z
	DD	FLAT:?iwm_show@ExcavationBuyPopup@@UAEXXZ
	DD	FLAT:?iwm_hide@ExcavationBuyPopup@@UAEXXZ
	DD	FLAT:?iwm_esc@ioWnd@@UAE_NXZ
	DD	FLAT:?iwm_spacebar@ioWnd@@UAE_NXZ
	DD	FLAT:?iwm_gototop@ioWnd@@UAEXXZ
	DD	FLAT:?iwm_dragenter@ioWnd@@UAE?AW4IWDropEffect@@PAVioDragItem@@ABVioMouse@@@Z
	DD	FLAT:?iwm_dragover@ioWnd@@UAE?AW4IWDropEffect@@PAVioDragItem@@ABVioMouse@@@Z
	DD	FLAT:?iwm_dragleave@ioWnd@@UAEXXZ
	DD	FLAT:?iwm_dropitem@ioWnd@@UAE_NPAVioDragItem@@ABVioMouse@@PAV1@@Z
	DD	FLAT:?iwm_dropdone@ioWnd@@UAEXPAVioDragItem@@PAV1@_N@Z
	DD	FLAT:?IsEXType@ioWnd@@UBE_NXZ
	DD	FLAT:?GetWndType@ioWnd@@UBEKXZ
	DD	FLAT:?RenderWnd@ioWnd@@UAEXXZ
	DD	FLAT:?SetIDEX@ioWnd@@UAEXAAK_N@Z
	DD	FLAT:?ParseXML@ioWnd@@UAEXAAVioXMLElement@@@Z
	DD	FLAT:?GetHeaderFileName@ioWnd@@UAEPBDXZ
	DD	FLAT:?GetTemplateName@ioWnd@@UAEPBDXZ
	DD	FLAT:?GetDefClassName@ioWnd@@UBEPBDXZ
	DD	FLAT:?_Clone@ioWnd@@UAEPAV1@XZ
	DD	FLAT:?Copy@ioWnd@@UAEXPAV1@@Z
	DD	FLAT:?Save@ioWnd@@UAE_NAAVioXMLElement@@@Z
	DD	FLAT:?SetSaveData@ioWnd@@UAEXAAVioXMLElement@@@Z
	DD	FLAT:?SetPosX@ioWnd@@UAEXH@Z
	DD	FLAT:?SetPosY@ioWnd@@UAEXH@Z
	DD	FLAT:?SetWidth@ioWnd@@UAEXH@Z
	DD	FLAT:?SetHeight@ioWnd@@UAEXH@Z
	DD	FLAT:?GetNumFixedRenderFrame@ioWnd@@UBEHXZ
	DD	FLAT:?GetFixedRenderFrameType@ioWnd@@UAEPBDH@Z
	DD	FLAT:?GetRenderFrame@ioWnd@@UAEPAPAVioUIRenderElement@@PBD@Z
	DD	FLAT:?GetNumFixedRenderImage@ioWnd@@UBEHXZ
	DD	FLAT:?GetFixedRenderImageType@ioWnd@@UAEPBDH@Z
	DD	FLAT:?GetRenderImage@ioWnd@@UAEPAPAVioUIRenderElement@@PBD@Z
	DD	FLAT:?AddEffect@ioWnd@@UAEXABVioHashString@@PAVioUI3DEffectRender@@@Z
	DD	FLAT:?GetEffect@ioWnd@@UAEPAVioUI3DEffectRender@@VioHashString@@@Z
	DD	FLAT:??_EExcavationBuyPopup@@UAEPAXI@Z
CONST	ENDS
;	COMDAT xdata$x
xdata$x	SEGMENT
__unwindtable$??0ExcavationBuyPopup@@QAE@XZ DD 0ffffffffH
	DD	FLAT:__unwindfunclet$??0ExcavationBuyPopup@@QAE@XZ$0
__ehfuncinfo$??0ExcavationBuyPopup@@QAE@XZ DD 019930522H
	DD	01H
	DD	FLAT:__unwindtable$??0ExcavationBuyPopup@@QAE@XZ
	DD	2 DUP(00H)
	DD	2 DUP(00H)
	DD	00H
	DD	01H
; Function compile flags: /Ogsp
xdata$x	ENDS
;	COMDAT ??0ExcavationBuyPopup@@QAE@XZ
_TEXT	SEGMENT
_this$ = -16						; size = 4
__$EHRec$ = -12						; size = 12
??0ExcavationBuyPopup@@QAE@XZ PROC			; ExcavationBuyPopup::ExcavationBuyPopup, COMDAT
; _this$ = ecx

; 1531 : {

  00000	6a 04		 push	 4
  00002	b8 00 00 00 00	 mov	 eax, __ehhandler$??0ExcavationBuyPopup@@QAE@XZ
  00007	e8 00 00 00 00	 call	 __EH_prolog3
  0000c	8b f1		 mov	 esi, ecx
  0000e	89 75 f0	 mov	 DWORD PTR _this$[ebp], esi
  00011	ff 15 00 00 00
	00		 call	 DWORD PTR __imp_??0ioWnd@@QAE@XZ
  00017	83 65 fc 00	 and	 DWORD PTR __$EHRec$[ebp+8], 0
  0001b	8d 8e 68 01 00
	00		 lea	 ecx, DWORD PTR [esi+360]
  00021	c7 06 00 00 00
	00		 mov	 DWORD PTR [esi], OFFSET ??_7ExcavationBuyPopup@@6B@
  00027	ff 15 00 00 00
	00		 call	 DWORD PTR __imp_??0ioHashString@@QAE@XZ

; 1532 : 	m_pIconBack = NULL;

  0002d	83 a6 60 01 00
	00 00		 and	 DWORD PTR [esi+352], 0

; 1533 : 	m_pItemIcon = NULL;

  00034	83 a6 64 01 00
	00 00		 and	 DWORD PTR [esi+356], 0

; 1534 : }

  0003b	8b c6		 mov	 eax, esi
  0003d	e8 00 00 00 00	 call	 __EH_epilog3
  00042	c3		 ret	 0
_TEXT	ENDS
;	COMDAT text$x
text$x	SEGMENT
__unwindfunclet$??0ExcavationBuyPopup@@QAE@XZ$0:
  00000	8b 4d f0	 mov	 ecx, DWORD PTR _this$[ebp]
  00003	ff 25 00 00 00
	00		 jmp	 DWORD PTR __imp_??1ioWnd@@UAE@XZ
__ehhandler$??0ExcavationBuyPopup@@QAE@XZ:
  00009	8b 54 24 08	 mov	 edx, DWORD PTR [esp+8]
  0000d	8d 42 0c	 lea	 eax, DWORD PTR [edx+12]
  00010	8b 4a ec	 mov	 ecx, DWORD PTR [edx-20]
  00013	33 c8		 xor	 ecx, eax
  00015	e8 00 00 00 00	 call	 @__security_check_cookie@4
  0001a	b8 00 00 00 00	 mov	 eax, OFFSET __ehfuncinfo$??0ExcavationBuyPopup@@QAE@XZ
  0001f	e9 00 00 00 00	 jmp	 ___CxxFrameHandler3
text$x	ENDS
??0ExcavationBuyPopup@@QAE@XZ ENDP			; ExcavationBuyPopup::ExcavationBuyPopup
PUBLIC	??1ExcavationBuyPopup@@UAE@XZ			; ExcavationBuyPopup::~ExcavationBuyPopup
;	COMDAT xdata$x
xdata$x	SEGMENT
__unwindtable$??1ExcavationBuyPopup@@UAE@XZ DD 0ffffffffH
	DD	FLAT:__unwindfunclet$??1ExcavationBuyPopup@@UAE@XZ$0
	DD	00H
	DD	FLAT:__unwindfunclet$??1ExcavationBuyPopup@@UAE@XZ$1
__ehfuncinfo$??1ExcavationBuyPopup@@UAE@XZ DD 019930522H
	DD	02H
	DD	FLAT:__unwindtable$??1ExcavationBuyPopup@@UAE@XZ
	DD	2 DUP(00H)
	DD	2 DUP(00H)
	DD	00H
	DD	01H
; Function compile flags: /Ogsp
xdata$x	ENDS
;	COMDAT ??1ExcavationBuyPopup@@UAE@XZ
_TEXT	SEGMENT
_this$ = -16						; size = 4
__$EHRec$ = -12						; size = 12
??1ExcavationBuyPopup@@UAE@XZ PROC			; ExcavationBuyPopup::~ExcavationBuyPopup, COMDAT
; _this$ = ecx

; 1537 : {

  00000	6a 04		 push	 4
  00002	b8 00 00 00 00	 mov	 eax, __ehhandler$??1ExcavationBuyPopup@@UAE@XZ
  00007	e8 00 00 00 00	 call	 __EH_prolog3
  0000c	8b f1		 mov	 esi, ecx
  0000e	89 75 f0	 mov	 DWORD PTR _this$[ebp], esi
  00011	c7 06 00 00 00
	00		 mov	 DWORD PTR [esi], OFFSET ??_7ExcavationBuyPopup@@6B@

; 1538 : 	SAFEDELETE( m_pIconBack );

  00017	8b 8e 60 01 00
	00		 mov	 ecx, DWORD PTR [esi+352]
  0001d	c7 45 fc 01 00
	00 00		 mov	 DWORD PTR __$EHRec$[ebp+8], 1
  00024	85 c9		 test	 ecx, ecx
  00026	74 0e		 je	 SHORT $LN2@Excavation@3
  00028	8b 01		 mov	 eax, DWORD PTR [ecx]
  0002a	6a 01		 push	 1
  0002c	ff 50 40	 call	 DWORD PTR [eax+64]
  0002f	83 a6 60 01 00
	00 00		 and	 DWORD PTR [esi+352], 0
$LN2@Excavation@3:

; 1539 : 	SAFEDELETE( m_pItemIcon );

  00036	8b 8e 64 01 00
	00		 mov	 ecx, DWORD PTR [esi+356]
  0003c	85 c9		 test	 ecx, ecx
  0003e	74 0e		 je	 SHORT $LN1@Excavation@3
  00040	8b 01		 mov	 eax, DWORD PTR [ecx]
  00042	6a 01		 push	 1
  00044	ff 50 40	 call	 DWORD PTR [eax+64]
  00047	83 a6 64 01 00
	00 00		 and	 DWORD PTR [esi+356], 0
$LN1@Excavation@3:

; 1540 : }

  0004e	8d 8e 68 01 00
	00		 lea	 ecx, DWORD PTR [esi+360]
  00054	c6 45 fc 00	 mov	 BYTE PTR __$EHRec$[ebp+8], 0
  00058	ff 15 00 00 00
	00		 call	 DWORD PTR __imp_??1ioHashString@@QAE@XZ
  0005e	83 4d fc ff	 or	 DWORD PTR __$EHRec$[ebp+8], -1
  00062	8b ce		 mov	 ecx, esi
  00064	ff 15 00 00 00
	00		 call	 DWORD PTR __imp_??1ioWnd@@UAE@XZ
  0006a	e8 00 00 00 00	 call	 __EH_epilog3
  0006f	c3		 ret	 0
_TEXT	ENDS
;	COMDAT text$x
text$x	SEGMENT
__unwindfunclet$??1ExcavationBuyPopup@@UAE@XZ$0:
  00000	8b 4d f0	 mov	 ecx, DWORD PTR _this$[ebp]
  00003	ff 25 00 00 00
	00		 jmp	 DWORD PTR __imp_??1ioWnd@@UAE@XZ
__unwindfunclet$??1ExcavationBuyPopup@@UAE@XZ$1:
  00009	8b 4d f0	 mov	 ecx, DWORD PTR _this$[ebp]
  0000c	81 c1 68 01 00
	00		 add	 ecx, 360		; 00000168H
  00012	ff 25 00 00 00
	00		 jmp	 DWORD PTR __imp_??1ioHashString@@QAE@XZ
__ehhandler$??1ExcavationBuyPopup@@UAE@XZ:
  00018	8b 54 24 08	 mov	 edx, DWORD PTR [esp+8]
  0001c	8d 42 0c	 lea	 eax, DWORD PTR [edx+12]
  0001f	8b 4a ec	 mov	 ecx, DWORD PTR [edx-20]
  00022	33 c8		 xor	 ecx, eax
  00024	e8 00 00 00 00	 call	 @__security_check_cookie@4
  00029	b8 00 00 00 00	 mov	 eax, OFFSET __ehfuncinfo$??1ExcavationBuyPopup@@UAE@XZ
  0002e	e9 00 00 00 00	 jmp	 ___CxxFrameHandler3
text$x	ENDS
??1ExcavationBuyPopup@@UAE@XZ ENDP			; ExcavationBuyPopup::~ExcavationBuyPopup
; Function compile flags: /Ogsp
;	COMDAT ?iwm_hide@ExcavationBuyPopup@@UAEXXZ
_TEXT	SEGMENT
?iwm_hide@ExcavationBuyPopup@@UAEXXZ PROC		; ExcavationBuyPopup::iwm_hide, COMDAT
; _this$ = ecx

; 1559 : 
; 1560 : }

  00000	c3		 ret	 0
?iwm_hide@ExcavationBuyPopup@@UAEXXZ ENDP		; ExcavationBuyPopup::iwm_hide
_TEXT	ENDS
PUBLIC	??_R0?AVNewShopWnd@@@8				; NewShopWnd `RTTI Type Descriptor'
EXTRN	?SetDirectTab@NewShopWnd@@QAEXHHH_N@Z:PROC	; NewShopWnd::SetDirectTab
EXTRN	__imp_?ShowWnd@ioWnd@@QAEXXZ:PROC
;	COMDAT ??_R0?AVNewShopWnd@@@8
_DATA	SEGMENT
??_R0?AVNewShopWnd@@@8 DD FLAT:??_7type_info@@6B@	; NewShopWnd `RTTI Type Descriptor'
	DD	00H
	DB	'.?AVNewShopWnd@@', 00H
; Function compile flags: /Ogsp
_DATA	ENDS
;	COMDAT ?iwm_command@ExcavationBuyPopup@@UAEXPAVioWnd@@HK@Z
_TEXT	SEGMENT
_pWnd$ = 8						; size = 4
_cmd$ = 12						; size = 4
_param$ = 16						; size = 4
?iwm_command@ExcavationBuyPopup@@UAEXPAVioWnd@@HK@Z PROC ; ExcavationBuyPopup::iwm_command, COMDAT
; _this$ = ecx

; 1563 : {

  00000	55		 push	 ebp
  00001	8b ec		 mov	 ebp, esp
  00003	53		 push	 ebx
  00004	8b d9		 mov	 ebx, ecx

; 1564 : 	DWORD dwID = pWnd->GetID();

  00006	8b 4d 08	 mov	 ecx, DWORD PTR _pWnd$[ebp]
  00009	56		 push	 esi
  0000a	ff 15 00 00 00
	00		 call	 DWORD PTR __imp_?GetID@ioWnd@@QBEKXZ

; 1565 : 	switch( dwID )

  00010	48		 dec	 eax
  00011	74 06		 je	 SHORT $LN5@iwm_comman@2
  00013	48		 dec	 eax
  00014	74 17		 je	 SHORT $LN3@iwm_comman@2
  00016	48		 dec	 eax
  00017	75 0e		 jne	 SHORT $LN4@iwm_comman@2
$LN5@iwm_comman@2:

; 1566 : 	{
; 1567 : 	case ID_EXIT:
; 1568 : 	case ID_CANCEL:
; 1569 : 		if( cmd == IOBN_BTNUP )

  00019	83 7d 0c 11	 cmp	 DWORD PTR _cmd$[ebp], 17 ; 00000011H
  0001d	75 08		 jne	 SHORT $LN4@iwm_comman@2
$LN10@iwm_comman@2:

; 1570 : 			HideWnd();

  0001f	8b cb		 mov	 ecx, ebx
  00021	ff 15 00 00 00
	00		 call	 DWORD PTR __imp_?HideWnd@ioWnd@@QAEXXZ
$LN4@iwm_comman@2:
  00027	5e		 pop	 esi
  00028	5b		 pop	 ebx

; 1585 : 	}
; 1586 : }

  00029	5d		 pop	 ebp
  0002a	c2 0c 00	 ret	 12			; 0000000cH
$LN3@iwm_comman@2:

; 1571 : 		break;
; 1572 : 	case ID_SHOP:
; 1573 : 		if( cmd == IOBN_BTNUP )

  0002d	83 7d 0c 11	 cmp	 DWORD PTR _cmd$[ebp], 17 ; 00000011H
  00031	75 f4		 jne	 SHORT $LN4@iwm_comman@2

; 1574 : 		{
; 1575 : 			//   
; 1576 : 			NewShopWnd *pNewShopWnd = dynamic_cast<NewShopWnd*>( g_GUIMgr.FindWnd( NEW_SHOP_WND ) );

  00033	6a 00		 push	 0
  00035	68 00 00 00 00	 push	 OFFSET ??_R0?AVNewShopWnd@@@8
  0003a	68 00 00 00 00	 push	 OFFSET ??_R0?AVioWnd@@@8
  0003f	6a 00		 push	 0
  00041	68 f8 17 00 00	 push	 6136			; 000017f8H
  00046	e8 00 00 00 00	 call	 ?GetSingleton@ioSP2GUIManager@@SAAAV1@XZ ; ioSP2GUIManager::GetSingleton
  0004b	8b c8		 mov	 ecx, eax
  0004d	ff 15 00 00 00
	00		 call	 DWORD PTR __imp_?FindWnd@ioGUIManager@@QAEPAVioWnd@@K@Z
  00053	50		 push	 eax
  00054	e8 00 00 00 00	 call	 ___RTDynamicCast
  00059	8b f0		 mov	 esi, eax
  0005b	83 c4 14	 add	 esp, 20			; 00000014H

; 1577 : 			if( pNewShopWnd )

  0005e	85 f6		 test	 esi, esi
  00060	74 c5		 je	 SHORT $LN4@iwm_comman@2

; 1578 : 			{
; 1579 : 				pNewShopWnd->ShowWnd();

  00062	8b ce		 mov	 ecx, esi
  00064	ff 15 00 00 00
	00		 call	 DWORD PTR __imp_?ShowWnd@ioWnd@@QAEXXZ

; 1580 : 				pNewShopWnd->SetDirectTab( NewShopWnd::ID_ETC_TAB_BTN, ioEtcItem::EIT_ETC_EXCAVATING_KIT, 0 );

  0006a	6a 01		 push	 1
  0006c	6a 00		 push	 0
  0006e	68 a0 84 1e 00	 push	 2000032			; 001e84a0H
  00073	6a 69		 push	 105			; 00000069H
  00075	8b ce		 mov	 ecx, esi
  00077	e8 00 00 00 00	 call	 ?SetDirectTab@NewShopWnd@@QAEXHHH_N@Z ; NewShopWnd::SetDirectTab

; 1581 : 				HideWnd();
; 1582 : 			}
; 1583 : 		}
; 1584 : 		break;		

  0007c	eb a1		 jmp	 SHORT $LN10@iwm_comman@2
?iwm_command@ExcavationBuyPopup@@UAEXPAVioWnd@@HK@Z ENDP ; ExcavationBuyPopup::iwm_command
_TEXT	ENDS
PUBLIC	??_C@_0BN@JCFHOFPD@ExcavationBuyPopup?3?3OnRender?$AA@ ; `string'
EXTRN	__imp_?PrintText@ioFontManager@@QAEXMMMPBD0@Z:PROC
;	COMDAT ??_C@_0BN@JCFHOFPD@ExcavationBuyPopup?3?3OnRender?$AA@
CONST	SEGMENT
??_C@_0BN@JCFHOFPD@ExcavationBuyPopup?3?3OnRender?$AA@ DB 'ExcavationBuyP'
	DB	'opup::OnRender', 00H			; `string'
; Function compile flags: /Ogsp
CONST	ENDS
;	COMDAT ?OnRender@ExcavationBuyPopup@@MAEXXZ
_TEXT	SEGMENT
_iXPos$ = -16						; size = 4
tv269 = -12						; size = 4
_iYPos$ = -8						; size = 4
tv271 = -4						; size = 4
?OnRender@ExcavationBuyPopup@@MAEXXZ PROC		; ExcavationBuyPopup::OnRender, COMDAT
; _this$ = ecx

; 1602 : {

  00000	55		 push	 ebp
  00001	8b ec		 mov	 ebp, esp
  00003	83 ec 10	 sub	 esp, 16			; 00000010H
  00006	53		 push	 ebx
  00007	56		 push	 esi
  00008	57		 push	 edi
  00009	8b f9		 mov	 edi, ecx

; 1603 : 	ioWnd::OnRender();

  0000b	ff 15 00 00 00
	00		 call	 DWORD PTR __imp_?OnRender@ioWnd@@MAEXXZ

; 1604 : 	
; 1605 : 	int iXPos = GetDerivedPosX();

  00011	8b cf		 mov	 ecx, edi
  00013	ff 15 00 00 00
	00		 call	 DWORD PTR __imp_?GetDerivedPosX@ioWnd@@QBEHXZ
  00019	8b f0		 mov	 esi, eax

; 1606 : 	int iYPos = GetDerivedPosY();

  0001b	8b cf		 mov	 ecx, edi
  0001d	89 75 f0	 mov	 DWORD PTR _iXPos$[ebp], esi
  00020	ff 15 00 00 00
	00		 call	 DWORD PTR __imp_?GetDerivedPosY@ioWnd@@QBEHXZ

; 1607 : 	if( m_pIconBack && m_pItemIcon )

  00026	33 db		 xor	 ebx, ebx
  00028	89 45 f8	 mov	 DWORD PTR _iYPos$[ebp], eax
  0002b	39 9f 60 01 00
	00		 cmp	 DWORD PTR [edi+352], ebx
  00031	74 6a		 je	 SHORT $LN1@OnRender@3
  00033	39 9f 64 01 00
	00		 cmp	 DWORD PTR [edi+356], ebx
  00039	74 62		 je	 SHORT $LN1@OnRender@3

; 1608 : 	{
; 1609 : 		m_pIconBack->Render( iXPos + 151, iYPos + 98, UI_RENDER_MULTIPLY );

  0003b	8b 8f 60 01 00
	00		 mov	 ecx, DWORD PTR [edi+352]
  00041	53		 push	 ebx
  00042	53		 push	 ebx
  00043	53		 push	 ebx
  00044	6a 08		 push	 8
  00046	83 c0 62	 add	 eax, 98			; 00000062H
  00049	51		 push	 ecx
  0004a	51		 push	 ecx
  0004b	0f 57 c0	 xorps	 xmm0, xmm0
  0004e	f3 0f 2a c0	 cvtsi2ss xmm0, eax
  00052	8b 01		 mov	 eax, DWORD PTR [ecx]
  00054	81 c6 97 00 00
	00		 add	 esi, 151		; 00000097H
  0005a	0f 57 c9	 xorps	 xmm1, xmm1
  0005d	f3 0f 2a ce	 cvtsi2ss xmm1, esi
  00061	f3 0f 11 44 24
	04		 movss	 DWORD PTR [esp+4], xmm0
  00067	f3 0f 11 45 f4	 movss	 DWORD PTR tv269[ebp], xmm0
  0006c	f3 0f 11 4d fc	 movss	 DWORD PTR tv271[ebp], xmm1
  00071	f3 0f 11 0c 24	 movss	 DWORD PTR [esp], xmm1
  00076	ff 10		 call	 DWORD PTR [eax]

; 1610 : 		m_pItemIcon->Render( iXPos + 151, iYPos + 98 );

  00078	8b 8f 64 01 00
	00		 mov	 ecx, DWORD PTR [edi+356]
  0007e	f3 0f 10 45 f4	 movss	 xmm0, DWORD PTR tv269[ebp]
  00083	8b 01		 mov	 eax, DWORD PTR [ecx]
  00085	53		 push	 ebx
  00086	53		 push	 ebx
  00087	53		 push	 ebx
  00088	53		 push	 ebx
  00089	51		 push	 ecx
  0008a	51		 push	 ecx
  0008b	f3 0f 11 44 24
	04		 movss	 DWORD PTR [esp+4], xmm0
  00091	f3 0f 10 45 fc	 movss	 xmm0, DWORD PTR tv271[ebp]
  00096	f3 0f 11 04 24	 movss	 DWORD PTR [esp], xmm0
  0009b	ff 10		 call	 DWORD PTR [eax]
$LN1@OnRender@3:

; 1611 : 	}
; 1612 : 
; 1613 : 	g_FontMgr.SetAlignType( TAT_CENTER );

  0009d	8b 35 00 00 00
	00		 mov	 esi, DWORD PTR __imp_?GetSingleton@ioFontManager@@SAAAV1@XZ
  000a3	6a 01		 push	 1
  000a5	ff d6		 call	 esi
  000a7	8b c8		 mov	 ecx, eax
  000a9	ff 15 00 00 00
	00		 call	 DWORD PTR __imp_?SetAlignType@ioFontManager@@QAEXW4TextAlignType@@@Z

; 1614 : 	g_FontMgr.SetTextStyle( TS_NORMAL );

  000af	53		 push	 ebx
  000b0	ff d6		 call	 esi
  000b2	8b c8		 mov	 ecx, eax
  000b4	ff 15 00 00 00
	00		 call	 DWORD PTR __imp_?SetTextStyle@ioFontManager@@QAEXW4TextStyle@@@Z

; 1615 : 	g_FontMgr.SetBkColor( 0, 0, 0 );

  000ba	53		 push	 ebx
  000bb	53		 push	 ebx
  000bc	53		 push	 ebx
  000bd	ff d6		 call	 esi
  000bf	8b c8		 mov	 ecx, eax
  000c1	ff 15 00 00 00
	00		 call	 DWORD PTR __imp_?SetBkColor@ioFontManager@@QAEXHHH@Z

; 1616 : 	g_FontMgr.SetTextColor( TCT_DEFAULT_DARKGRAY );

  000c7	68 3a 3a 3a ff	 push	 -12961222		; ff3a3a3aH
  000cc	ff d6		 call	 esi
  000ce	8b c8		 mov	 ecx, eax
  000d0	ff 15 00 00 00
	00		 call	 DWORD PTR __imp_?SetTextColor@ioFontManager@@QAEXK@Z

; 1617 : 	g_FontMgr.PrintText( iXPos + 151, iYPos + 144, FONT_SIZE_13, STR(1), m_szItemName.c_str() );

  000d6	8b 45 f0	 mov	 eax, DWORD PTR _iXPos$[ebp]
  000d9	05 97 00 00 00	 add	 eax, 151		; 00000097H
  000de	0f 57 c0	 xorps	 xmm0, xmm0
  000e1	f3 0f 2a c0	 cvtsi2ss xmm0, eax
  000e5	8d 8f 68 01 00
	00		 lea	 ecx, DWORD PTR [edi+360]
  000eb	f3 0f 11 45 fc	 movss	 DWORD PTR tv271[ebp], xmm0
  000f0	ff 15 00 00 00
	00		 call	 DWORD PTR __imp_?c_str@ioHashString@@QBEPBDXZ
  000f6	8b 3d 00 00 00
	00		 mov	 edi, DWORD PTR __imp_?GetSingleton@ioStringManager@@SAAAV1@XZ
  000fc	50		 push	 eax
  000fd	53		 push	 ebx
  000fe	6a 01		 push	 1
  00100	68 00 00 00 00	 push	 OFFSET ??_C@_00CNPNBAHC@?$AA@
  00105	68 00 00 00 00	 push	 OFFSET ??_C@_0BN@JCFHOFPD@ExcavationBuyPopup?3?3OnRender?$AA@
  0010a	ff d7		 call	 edi
  0010c	8b 1d 00 00 00
	00		 mov	 ebx, DWORD PTR __imp_?GetString@ioStringManager@@QAEPADPBD0HW4FileNamePrefix@1@@Z
  00112	8b c8		 mov	 ecx, eax
  00114	ff d3		 call	 ebx
  00116	f3 0f 10 05 00
	00 00 00	 movss	 xmm0, DWORD PTR __real@3f266666
  0011e	50		 push	 eax
  0011f	8b 45 f8	 mov	 eax, DWORD PTR _iYPos$[ebp]
  00122	83 ec 0c	 sub	 esp, 12			; 0000000cH
  00125	f3 0f 11 44 24
	08		 movss	 DWORD PTR [esp+8], xmm0
  0012b	05 90 00 00 00	 add	 eax, 144		; 00000090H
  00130	0f 57 c0	 xorps	 xmm0, xmm0
  00133	f3 0f 2a c0	 cvtsi2ss xmm0, eax
  00137	f3 0f 11 44 24
	04		 movss	 DWORD PTR [esp+4], xmm0
  0013d	f3 0f 10 45 fc	 movss	 xmm0, DWORD PTR tv271[ebp]
  00142	f3 0f 11 04 24	 movss	 DWORD PTR [esp], xmm0
  00147	ff d6		 call	 esi
  00149	8b c8		 mov	 ecx, eax
  0014b	ff 15 00 00 00
	00		 call	 DWORD PTR __imp_?PrintText@ioFontManager@@QAEXMMMPBD0@Z

; 1618 : 
; 1619 : 	g_FontMgr.SetTextColor( TCT_DEFAULT_GRAY );

  00151	68 6e 6e 6e ff	 push	 -9539986		; ff6e6e6eH
  00156	ff d6		 call	 esi
  00158	8b c8		 mov	 ecx, eax
  0015a	ff 15 00 00 00
	00		 call	 DWORD PTR __imp_?SetTextColor@ioFontManager@@QAEXK@Z

; 1620 : 	g_FontMgr.PrintText( iXPos + 151, iYPos + 164, FONT_SIZE_13, STR(2) );

  00160	6a 00		 push	 0
  00162	6a 02		 push	 2
  00164	68 00 00 00 00	 push	 OFFSET ??_C@_00CNPNBAHC@?$AA@
  00169	68 00 00 00 00	 push	 OFFSET ??_C@_0BN@JCFHOFPD@ExcavationBuyPopup?3?3OnRender?$AA@
  0016e	ff d7		 call	 edi
  00170	8b c8		 mov	 ecx, eax
  00172	ff d3		 call	 ebx
  00174	f3 0f 10 05 00
	00 00 00	 movss	 xmm0, DWORD PTR __real@3f266666
  0017c	50		 push	 eax
  0017d	8b 45 f8	 mov	 eax, DWORD PTR _iYPos$[ebp]
  00180	83 ec 0c	 sub	 esp, 12			; 0000000cH
  00183	f3 0f 11 44 24
	08		 movss	 DWORD PTR [esp+8], xmm0
  00189	05 a4 00 00 00	 add	 eax, 164		; 000000a4H
  0018e	0f 57 c0	 xorps	 xmm0, xmm0
  00191	f3 0f 2a c0	 cvtsi2ss xmm0, eax
  00195	f3 0f 11 44 24
	04		 movss	 DWORD PTR [esp+4], xmm0
  0019b	f3 0f 10 45 fc	 movss	 xmm0, DWORD PTR tv271[ebp]
  001a0	f3 0f 11 04 24	 movss	 DWORD PTR [esp], xmm0
  001a5	ff d6		 call	 esi
  001a7	50		 push	 eax
  001a8	ff 15 00 00 00
	00		 call	 DWORD PTR __imp_?PrintText@ioFontManager@@QAAXMMMPBDZZ
  001ae	83 c4 14	 add	 esp, 20			; 00000014H

; 1621 : 	g_FontMgr.PrintText( iXPos + 151, iYPos + 184, FONT_SIZE_13, STR(3) );

  001b1	6a 00		 push	 0
  001b3	6a 03		 push	 3
  001b5	68 00 00 00 00	 push	 OFFSET ??_C@_00CNPNBAHC@?$AA@
  001ba	68 00 00 00 00	 push	 OFFSET ??_C@_0BN@JCFHOFPD@ExcavationBuyPopup?3?3OnRender?$AA@
  001bf	ff d7		 call	 edi
  001c1	8b c8		 mov	 ecx, eax
  001c3	ff d3		 call	 ebx
  001c5	f3 0f 10 05 00
	00 00 00	 movss	 xmm0, DWORD PTR __real@3f266666
  001cd	50		 push	 eax
  001ce	8b 45 f8	 mov	 eax, DWORD PTR _iYPos$[ebp]
  001d1	83 ec 0c	 sub	 esp, 12			; 0000000cH
  001d4	f3 0f 11 44 24
	08		 movss	 DWORD PTR [esp+8], xmm0
  001da	05 b8 00 00 00	 add	 eax, 184		; 000000b8H
  001df	0f 57 c0	 xorps	 xmm0, xmm0
  001e2	f3 0f 2a c0	 cvtsi2ss xmm0, eax
  001e6	f3 0f 11 44 24
	04		 movss	 DWORD PTR [esp+4], xmm0
  001ec	f3 0f 10 45 fc	 movss	 xmm0, DWORD PTR tv271[ebp]
  001f1	f3 0f 11 04 24	 movss	 DWORD PTR [esp], xmm0
  001f6	ff d6		 call	 esi
  001f8	50		 push	 eax
  001f9	ff 15 00 00 00
	00		 call	 DWORD PTR __imp_?PrintText@ioFontManager@@QAAXMMMPBDZZ
  001ff	83 c4 14	 add	 esp, 20			; 00000014H
  00202	5f		 pop	 edi
  00203	5e		 pop	 esi
  00204	5b		 pop	 ebx

; 1622 : }

  00205	c9		 leave
  00206	c3		 ret	 0
?OnRender@ExcavationBuyPopup@@MAEXXZ ENDP		; ExcavationBuyPopup::OnRender
_TEXT	ENDS
PUBLIC	?GetSingleton@?$Singleton@VioEtcItemManager@@@@SAAAVioEtcItemManager@@XZ ; Singleton<ioEtcItemManager>::GetSingleton
EXTRN	?ms_Singleton@?$Singleton@VioEtcItemManager@@@@1PAVioEtcItemManager@@A:DWORD ; Singleton<ioEtcItemManager>::ms_Singleton
; Function compile flags: /Ogsp
; File d:\lost saga for developer\youtube\tutorial\source\src\io3dengine\iosingleton.h
;	COMDAT ?GetSingleton@?$Singleton@VioEtcItemManager@@@@SAAAVioEtcItemManager@@XZ
_TEXT	SEGMENT
?GetSingleton@?$Singleton@VioEtcItemManager@@@@SAAAVioEtcItemManager@@XZ PROC ; Singleton<ioEtcItemManager>::GetSingleton, COMDAT

; 42   : 		assert( ms_Singleton );
; 43   : 		return (*ms_Singleton);

  00000	a1 00 00 00 00	 mov	 eax, DWORD PTR ?ms_Singleton@?$Singleton@VioEtcItemManager@@@@1PAVioEtcItemManager@@A ; Singleton<ioEtcItemManager>::ms_Singleton

; 44   : 	}

  00005	c3		 ret	 0
?GetSingleton@?$Singleton@VioEtcItemManager@@@@SAAAVioEtcItemManager@@XZ ENDP ; Singleton<ioEtcItemManager>::GetSingleton
_TEXT	ENDS
PUBLIC	??0?$_Vector_const_iterator@V?$_Vector_val@PAVioBaseChar@@V?$allocator@PAVioBaseChar@@@std@@@std@@@std@@QAE@XZ ; std::_Vector_const_iterator<std::_Vector_val<ioBaseChar *,std::allocator<ioBaseChar *> > >::_Vector_const_iterator<std::_Vector_val<ioBaseChar *,std::allocator<ioBaseChar *> > >
; Function compile flags: /Ogsp
; File c:\program files (x86)\microsoft visual studio 10.0\vc\include\vector
;	COMDAT ??0?$_Vector_const_iterator@V?$_Vector_val@PAVioBaseChar@@V?$allocator@PAVioBaseChar@@@std@@@std@@@std@@QAE@XZ
_TEXT	SEGMENT
??0?$_Vector_const_iterator@V?$_Vector_val@PAVioBaseChar@@V?$allocator@PAVioBaseChar@@@std@@@std@@@std@@QAE@XZ PROC ; std::_Vector_const_iterator<std::_Vector_val<ioBaseChar *,std::allocator<ioBaseChar *> > >::_Vector_const_iterator<std::_Vector_val<ioBaseChar *,std::allocator<ioBaseChar *> > >, COMDAT
; _this$ = ecx

; 40   : 		{	// construct with null pointer

  00000	8b c1		 mov	 eax, ecx
  00002	83 20 00	 and	 DWORD PTR [eax], 0

; 41   : 		}

  00005	c3		 ret	 0
??0?$_Vector_const_iterator@V?$_Vector_val@PAVioBaseChar@@V?$allocator@PAVioBaseChar@@@std@@@std@@@std@@QAE@XZ ENDP ; std::_Vector_const_iterator<std::_Vector_val<ioBaseChar *,std::allocator<ioBaseChar *> > >::_Vector_const_iterator<std::_Vector_val<ioBaseChar *,std::allocator<ioBaseChar *> > >
_TEXT	ENDS
PUBLIC	??D?$_Vector_const_iterator@V?$_Vector_val@PAVioBaseChar@@V?$allocator@PAVioBaseChar@@@std@@@std@@@std@@QBEABQAVioBaseChar@@XZ ; std::_Vector_const_iterator<std::_Vector_val<ioBaseChar *,std::allocator<ioBaseChar *> > >::operator*
; Function compile flags: /Ogsp
;	COMDAT ??D?$_Vector_const_iterator@V?$_Vector_val@PAVioBaseChar@@V?$allocator@PAVioBaseChar@@@std@@@std@@@std@@QBEABQAVioBaseChar@@XZ
_TEXT	SEGMENT
??D?$_Vector_const_iterator@V?$_Vector_val@PAVioBaseChar@@V?$allocator@PAVioBaseChar@@@std@@@std@@@std@@QBEABQAVioBaseChar@@XZ PROC ; std::_Vector_const_iterator<std::_Vector_val<ioBaseChar *,std::allocator<ioBaseChar *> > >::operator*, COMDAT
; _this$ = ecx

; 64   :  #if _ITERATOR_DEBUG_LEVEL == 2
; 65   : 		if (this->_Getcont() == 0
; 66   : 			|| this->_Ptr == 0
; 67   : 			|| this->_Ptr < ((_Myvec *)this->_Getcont())->_Myfirst
; 68   : 			|| ((_Myvec *)this->_Getcont())->_Mylast <= this->_Ptr)
; 69   : 			{	// report error
; 70   : 			_DEBUG_ERROR("vector iterator not dereferencable");
; 71   : 			_SCL_SECURE_OUT_OF_RANGE;
; 72   : 			}
; 73   : 
; 74   :  #elif _ITERATOR_DEBUG_LEVEL == 1
; 75   : 		_SCL_SECURE_VALIDATE(this->_Getcont() != 0);
; 76   : 		_SCL_SECURE_VALIDATE_RANGE(
; 77   : 			this->_Ptr != 0
; 78   : 			&& ((_Myvec *)this->_Getcont())->_Myfirst <= this->_Ptr
; 79   : 			&& this->_Ptr < ((_Myvec *)this->_Getcont())->_Mylast);
; 80   :  #endif /* _ITERATOR_DEBUG_LEVEL */
; 81   : 
; 82   : 		__analysis_assume(this->_Ptr != 0);
; 83   : 
; 84   : 		return (*this->_Ptr);

  00000	8b 01		 mov	 eax, DWORD PTR [ecx]

; 85   : 		}

  00002	c3		 ret	 0
??D?$_Vector_const_iterator@V?$_Vector_val@PAVioBaseChar@@V?$allocator@PAVioBaseChar@@@std@@@std@@@std@@QBEABQAVioBaseChar@@XZ ENDP ; std::_Vector_const_iterator<std::_Vector_val<ioBaseChar *,std::allocator<ioBaseChar *> > >::operator*
_TEXT	ENDS
PUBLIC	??E?$_Vector_const_iterator@V?$_Vector_val@PAVioBaseChar@@V?$allocator@PAVioBaseChar@@@std@@@std@@@std@@QAEAAV01@XZ ; std::_Vector_const_iterator<std::_Vector_val<ioBaseChar *,std::allocator<ioBaseChar *> > >::operator++
; Function compile flags: /Ogsp
;	COMDAT ??E?$_Vector_const_iterator@V?$_Vector_val@PAVioBaseChar@@V?$allocator@PAVioBaseChar@@@std@@@std@@@std@@QAEAAV01@XZ
_TEXT	SEGMENT
??E?$_Vector_const_iterator@V?$_Vector_val@PAVioBaseChar@@V?$allocator@PAVioBaseChar@@@std@@@std@@@std@@QAEAAV01@XZ PROC ; std::_Vector_const_iterator<std::_Vector_val<ioBaseChar *,std::allocator<ioBaseChar *> > >::operator++, COMDAT
; _this$ = ecx

; 93   : 		{	// preincrement

  00000	8b c1		 mov	 eax, ecx

; 94   :  #if _ITERATOR_DEBUG_LEVEL == 2
; 95   : 		if (this->_Getcont() == 0
; 96   : 			|| this->_Ptr == 0
; 97   : 			|| ((_Myvec *)this->_Getcont())->_Mylast <= this->_Ptr)
; 98   : 			{	// report error
; 99   : 			_DEBUG_ERROR("vector iterator not incrementable");
; 100  : 			_SCL_SECURE_OUT_OF_RANGE;
; 101  : 			}
; 102  : 
; 103  :  #elif _ITERATOR_DEBUG_LEVEL == 1
; 104  : 		_SCL_SECURE_VALIDATE(this->_Getcont() != 0);
; 105  : 		_SCL_SECURE_VALIDATE_RANGE(
; 106  : 			this->_Ptr != 0
; 107  : 			&& this->_Ptr < ((_Myvec *)this->_Getcont())->_Mylast);
; 108  :  #endif /* _ITERATOR_DEBUG_LEVEL */
; 109  : 
; 110  : 		++this->_Ptr;

  00002	83 00 04	 add	 DWORD PTR [eax], 4

; 111  : 		return (*this);
; 112  : 		}

  00005	c3		 ret	 0
??E?$_Vector_const_iterator@V?$_Vector_val@PAVioBaseChar@@V?$allocator@PAVioBaseChar@@@std@@@std@@@std@@QAEAAV01@XZ ENDP ; std::_Vector_const_iterator<std::_Vector_val<ioBaseChar *,std::allocator<ioBaseChar *> > >::operator++
_TEXT	ENDS
PUBLIC	?_Inside@?$vector@HV?$allocator@H@std@@@std@@IBE_NPBH@Z ; std::vector<int,std::allocator<int> >::_Inside
; Function compile flags: /Ogsp
;	COMDAT ?_Inside@?$vector@HV?$allocator@H@std@@@std@@IBE_NPBH@Z
_TEXT	SEGMENT
__Ptr$ = 8						; size = 4
?_Inside@?$vector@HV?$allocator@H@std@@@std@@IBE_NPBH@Z PROC ; std::vector<int,std::allocator<int> >::_Inside, COMDAT
; _this$ = ecx

; 1285 : 		{	// test if _Ptr points inside vector

  00000	55		 push	 ebp
  00001	8b ec		 mov	 ebp, esp

; 1286 : 		return (_Ptr < this->_Mylast && this->_Myfirst <= _Ptr);

  00003	8b 45 08	 mov	 eax, DWORD PTR __Ptr$[ebp]
  00006	3b 41 04	 cmp	 eax, DWORD PTR [ecx+4]
  00009	73 09		 jae	 SHORT $LN3@Inside
  0000b	39 01		 cmp	 DWORD PTR [ecx], eax
  0000d	77 05		 ja	 SHORT $LN3@Inside
  0000f	33 c0		 xor	 eax, eax
  00011	40		 inc	 eax
  00012	eb 02		 jmp	 SHORT $LN4@Inside
$LN3@Inside:
  00014	33 c0		 xor	 eax, eax
$LN4@Inside:

; 1287 : 		}

  00016	5d		 pop	 ebp
  00017	c2 04 00	 ret	 4
?_Inside@?$vector@HV?$allocator@H@std@@@std@@IBE_NPBH@Z ENDP ; std::vector<int,std::allocator<int> >::_Inside
_TEXT	ENDS
PUBLIC	?_Orphan_range@?$vector@HV?$allocator@H@std@@@std@@IBEXPAH0@Z ; std::vector<int,std::allocator<int> >::_Orphan_range
; Function compile flags: /Ogsp
;	COMDAT ?_Orphan_range@?$vector@HV?$allocator@H@std@@@std@@IBEXPAH0@Z
_TEXT	SEGMENT
___formal$ = 8						; size = 4
___formal$ = 12						; size = 4
?_Orphan_range@?$vector@HV?$allocator@H@std@@@std@@IBEXPAH0@Z PROC ; std::vector<int,std::allocator<int> >::_Orphan_range, COMDAT
; _this$ = ecx

; 1454 : 		}

  00000	c2 08 00	 ret	 8
?_Orphan_range@?$vector@HV?$allocator@H@std@@@std@@IBEXPAH0@Z ENDP ; std::vector<int,std::allocator<int> >::_Orphan_range
_TEXT	ENDS
PUBLIC	??0?$_Vector_const_iterator@V?$_Vector_val@PAVioBaseChar@@V?$allocator@PAVioBaseChar@@@std@@@std@@@std@@QAE@PAPAVioBaseChar@@PBU_Container_base0@1@@Z ; std::_Vector_const_iterator<std::_Vector_val<ioBaseChar *,std::allocator<ioBaseChar *> > >::_Vector_const_iterator<std::_Vector_val<ioBaseChar *,std::allocator<ioBaseChar *> > >
; Function compile flags: /Ogsp
;	COMDAT ??0?$_Vector_const_iterator@V?$_Vector_val@PAVioBaseChar@@V?$allocator@PAVioBaseChar@@@std@@@std@@@std@@QAE@PAPAVioBaseChar@@PBU_Container_base0@1@@Z
_TEXT	SEGMENT
__Parg$ = 8						; size = 4
__Pvector$ = 12						; size = 4
??0?$_Vector_const_iterator@V?$_Vector_val@PAVioBaseChar@@V?$allocator@PAVioBaseChar@@@std@@@std@@@std@@QAE@PAPAVioBaseChar@@PBU_Container_base0@1@@Z PROC ; std::_Vector_const_iterator<std::_Vector_val<ioBaseChar *,std::allocator<ioBaseChar *> > >::_Vector_const_iterator<std::_Vector_val<ioBaseChar *,std::allocator<ioBaseChar *> > >, COMDAT
; _this$ = ecx

; 45   : 		{	// construct with pointer _Parg

  00000	55		 push	 ebp
  00001	8b ec		 mov	 ebp, esp
  00003	8b c1		 mov	 eax, ecx
  00005	8b 4d 08	 mov	 ecx, DWORD PTR __Parg$[ebp]
  00008	89 08		 mov	 DWORD PTR [eax], ecx

; 46   : 		this->_Adopt(_Pvector);
; 47   : 		}

  0000a	5d		 pop	 ebp
  0000b	c2 08 00	 ret	 8
??0?$_Vector_const_iterator@V?$_Vector_val@PAVioBaseChar@@V?$allocator@PAVioBaseChar@@@std@@@std@@@std@@QAE@PAPAVioBaseChar@@PBU_Container_base0@1@@Z ENDP ; std::_Vector_const_iterator<std::_Vector_val<ioBaseChar *,std::allocator<ioBaseChar *> > >::_Vector_const_iterator<std::_Vector_val<ioBaseChar *,std::allocator<ioBaseChar *> > >
_TEXT	ENDS
PUBLIC	?_Compat@?$_Vector_const_iterator@V?$_Vector_val@PAVioBaseChar@@V?$allocator@PAVioBaseChar@@@std@@@std@@@std@@QBEXABV12@@Z ; std::_Vector_const_iterator<std::_Vector_val<ioBaseChar *,std::allocator<ioBaseChar *> > >::_Compat
; Function compile flags: /Ogsp
;	COMDAT ?_Compat@?$_Vector_const_iterator@V?$_Vector_val@PAVioBaseChar@@V?$allocator@PAVioBaseChar@@@std@@@std@@@std@@QBEXABV12@@Z
_TEXT	SEGMENT
___formal$ = 8						; size = 4
?_Compat@?$_Vector_const_iterator@V?$_Vector_val@PAVioBaseChar@@V?$allocator@PAVioBaseChar@@@std@@@std@@@std@@QBEXABV12@@Z PROC ; std::_Vector_const_iterator<std::_Vector_val<ioBaseChar *,std::allocator<ioBaseChar *> > >::_Compat, COMDAT
; _this$ = ecx

; 253  : 		}

  00000	c2 04 00	 ret	 4
?_Compat@?$_Vector_const_iterator@V?$_Vector_val@PAVioBaseChar@@V?$allocator@PAVioBaseChar@@@std@@@std@@@std@@QBEXABV12@@Z ENDP ; std::_Vector_const_iterator<std::_Vector_val<ioBaseChar *,std::allocator<ioBaseChar *> > >::_Compat
_TEXT	ENDS
PUBLIC	??0D3DXVECTOR3@@QAE@XZ				; D3DXVECTOR3::D3DXVECTOR3
; Function compile flags: /Ogsp
; File c:\program files (x86)\microsoft directx sdk (june 2010)\include\d3dx9math.h
;	COMDAT ??0D3DXVECTOR3@@QAE@XZ
_TEXT	SEGMENT
??0D3DXVECTOR3@@QAE@XZ PROC				; D3DXVECTOR3::D3DXVECTOR3, COMDAT
; _this$ = ecx

; 165  :     D3DXVECTOR3() {};

  00000	8b c1		 mov	 eax, ecx
  00002	c3		 ret	 0
??0D3DXVECTOR3@@QAE@XZ ENDP				; D3DXVECTOR3::D3DXVECTOR3
_TEXT	ENDS
PUBLIC	??0D3DXVECTOR3@@QAE@MMM@Z			; D3DXVECTOR3::D3DXVECTOR3
; Function compile flags: /Ogsp
; File c:\program files (x86)\microsoft directx sdk (june 2010)\include\d3dx9math.inl
;	COMDAT ??0D3DXVECTOR3@@QAE@MMM@Z
_TEXT	SEGMENT
_fx$ = 8						; size = 4
_fy$ = 12						; size = 4
_fz$ = 16						; size = 4
??0D3DXVECTOR3@@QAE@MMM@Z PROC				; D3DXVECTOR3::D3DXVECTOR3, COMDAT
; _this$ = ecx

; 303  : {

  00000	55		 push	 ebp
  00001	8b ec		 mov	 ebp, esp

; 304  :     x = fx;

  00003	f3 0f 10 45 08	 movss	 xmm0, DWORD PTR _fx$[ebp]
  00008	8b c1		 mov	 eax, ecx
  0000a	f3 0f 11 00	 movss	 DWORD PTR [eax], xmm0

; 305  :     y = fy;

  0000e	f3 0f 10 45 0c	 movss	 xmm0, DWORD PTR _fy$[ebp]
  00013	f3 0f 11 40 04	 movss	 DWORD PTR [eax+4], xmm0

; 306  :     z = fz;

  00018	f3 0f 10 45 10	 movss	 xmm0, DWORD PTR _fz$[ebp]
  0001d	f3 0f 11 40 08	 movss	 DWORD PTR [eax+8], xmm0

; 307  : }

  00022	5d		 pop	 ebp
  00023	c2 0c 00	 ret	 12			; 0000000cH
??0D3DXVECTOR3@@QAE@MMM@Z ENDP				; D3DXVECTOR3::D3DXVECTOR3
_TEXT	ENDS
PUBLIC	??GD3DXVECTOR3@@QBE?AU0@ABU0@@Z			; D3DXVECTOR3::operator-
; Function compile flags: /Ogsp
;	COMDAT ??GD3DXVECTOR3@@QBE?AU0@ABU0@@Z
_TEXT	SEGMENT
___$ReturnUdt$ = 8					; size = 4
_v$ = 12						; size = 4
??GD3DXVECTOR3@@QBE?AU0@ABU0@@Z PROC			; D3DXVECTOR3::operator-, COMDAT
; _this$ = ecx

; 386  : {

  00000	55		 push	 ebp
  00001	8b ec		 mov	 ebp, esp

; 387  :     return D3DXVECTOR3(x - v.x, y - v.y, z - v.z);

  00003	8b 55 0c	 mov	 edx, DWORD PTR _v$[ebp]
  00006	f3 0f 10 01	 movss	 xmm0, DWORD PTR [ecx]
  0000a	f3 0f 10 0a	 movss	 xmm1, DWORD PTR [edx]
  0000e	8b 45 08	 mov	 eax, DWORD PTR ___$ReturnUdt$[ebp]
  00011	0f 5a c0	 cvtps2pd xmm0, xmm0
  00014	0f 5a c9	 cvtps2pd xmm1, xmm1
  00017	f2 0f 5c c1	 subsd	 xmm0, xmm1
  0001b	f3 0f 10 4a 04	 movss	 xmm1, DWORD PTR [edx+4]
  00020	66 0f 5a c0	 cvtpd2ps xmm0, xmm0
  00024	f3 0f 11 00	 movss	 DWORD PTR [eax], xmm0
  00028	f3 0f 10 41 04	 movss	 xmm0, DWORD PTR [ecx+4]
  0002d	0f 5a c0	 cvtps2pd xmm0, xmm0
  00030	0f 5a c9	 cvtps2pd xmm1, xmm1
  00033	f2 0f 5c c1	 subsd	 xmm0, xmm1
  00037	f3 0f 10 4a 08	 movss	 xmm1, DWORD PTR [edx+8]
  0003c	66 0f 5a c0	 cvtpd2ps xmm0, xmm0
  00040	f3 0f 11 40 04	 movss	 DWORD PTR [eax+4], xmm0
  00045	f3 0f 10 41 08	 movss	 xmm0, DWORD PTR [ecx+8]
  0004a	0f 5a c0	 cvtps2pd xmm0, xmm0
  0004d	0f 5a c9	 cvtps2pd xmm1, xmm1
  00050	f2 0f 5c c1	 subsd	 xmm0, xmm1
  00054	66 0f 5a c0	 cvtpd2ps xmm0, xmm0
  00058	f3 0f 11 40 08	 movss	 DWORD PTR [eax+8], xmm0

; 388  : }

  0005d	5d		 pop	 ebp
  0005e	c2 08 00	 ret	 8
??GD3DXVECTOR3@@QBE?AU0@ABU0@@Z ENDP			; D3DXVECTOR3::operator-
_TEXT	ENDS
PUBLIC	?D3DXVec3Length@@YAMPBUD3DXVECTOR3@@@Z		; D3DXVec3Length
; Function compile flags: /Ogsp
;	COMDAT ?D3DXVec3Length@@YAMPBUD3DXVECTOR3@@@Z
_TEXT	SEGMENT
tv169 = 8						; size = 4
tv160 = 8						; size = 4
_pV$ = 8						; size = 4
?D3DXVec3Length@@YAMPBUD3DXVECTOR3@@@Z PROC		; D3DXVec3Length, COMDAT

; 1710 : {

  00000	55		 push	 ebp
  00001	8b ec		 mov	 ebp, esp

; 1711 : #ifdef D3DX_DEBUG
; 1712 :     if(!pV)
; 1713 :         return 0.0f;
; 1714 : #endif
; 1715 : 
; 1716 : #ifdef __cplusplus
; 1717 :     return sqrtf(pV->x * pV->x + pV->y * pV->y + pV->z * pV->z);

  00003	8b 45 08	 mov	 eax, DWORD PTR _pV$[ebp]
  00006	d9 40 04	 fld	 DWORD PTR [eax+4]
  00009	d9 00		 fld	 DWORD PTR [eax]
  0000b	d9 40 08	 fld	 DWORD PTR [eax+8]
  0000e	d9 c1		 fld	 ST(1)
  00010	de ca		 fmulp	 ST(2), ST(0)
  00012	d9 c2		 fld	 ST(2)
  00014	de cb		 fmulp	 ST(3), ST(0)
  00016	d9 c9		 fxch	 ST(1)
  00018	de c2		 faddp	 ST(2), ST(0)
  0001a	d9 c0		 fld	 ST(0)
  0001c	de c9		 fmulp	 ST(1), ST(0)
  0001e	de c1		 faddp	 ST(1), ST(0)
  00020	d9 5d 08	 fstp	 DWORD PTR tv169[ebp]
  00023	d9 45 08	 fld	 DWORD PTR tv169[ebp]
  00026	e8 00 00 00 00	 call	 __CIsqrt
  0002b	d9 5d 08	 fstp	 DWORD PTR tv160[ebp]
  0002e	d9 45 08	 fld	 DWORD PTR tv160[ebp]

; 1718 : #else
; 1719 :     return (FLOAT) sqrt(pV->x * pV->x + pV->y * pV->y + pV->z * pV->z);
; 1720 : #endif
; 1721 : }

  00031	5d		 pop	 ebp
  00032	c3		 ret	 0
?D3DXVec3Length@@YAMPBUD3DXVECTOR3@@@Z ENDP		; D3DXVec3Length
_TEXT	ENDS
PUBLIC	??$addressof@H@std@@YAPAHAAH@Z			; std::addressof<int>
; Function compile flags: /Ogsp
; File c:\program files (x86)\microsoft visual studio 10.0\vc\include\xmemory
;	COMDAT ??$addressof@H@std@@YAPAHAAH@Z
_TEXT	SEGMENT
__Val$ = 8						; size = 4
??$addressof@H@std@@YAPAHAAH@Z PROC			; std::addressof<int>, COMDAT

; 110  : 	{	// return address of _Val

  00000	55		 push	 ebp
  00001	8b ec		 mov	 ebp, esp

; 111  : 	return ((_Ty *) &(char&)_Val);

  00003	8b 45 08	 mov	 eax, DWORD PTR __Val$[ebp]

; 112  : 	}

  00006	5d		 pop	 ebp
  00007	c3		 ret	 0
??$addressof@H@std@@YAPAHAAH@Z ENDP			; std::addressof<int>
_TEXT	ENDS
PUBLIC	??$addressof@$$CBH@std@@YAPBHABH@Z		; std::addressof<int const >
; Function compile flags: /Ogsp
;	COMDAT ??$addressof@$$CBH@std@@YAPBHABH@Z
_TEXT	SEGMENT
__Val$ = 8						; size = 4
??$addressof@$$CBH@std@@YAPBHABH@Z PROC			; std::addressof<int const >, COMDAT

; 110  : 	{	// return address of _Val

  00000	55		 push	 ebp
  00001	8b ec		 mov	 ebp, esp

; 111  : 	return ((_Ty *) &(char&)_Val);

  00003	8b 45 08	 mov	 eax, DWORD PTR __Val$[ebp]

; 112  : 	}

  00006	5d		 pop	 ebp
  00007	c3		 ret	 0
??$addressof@$$CBH@std@@YAPBHABH@Z ENDP			; std::addressof<int const >
_TEXT	ENDS
PUBLIC	??$forward@ABH@std@@YAABHABH@Z			; std::forward<int const &>
; Function compile flags: /Ogsp
; File c:\program files (x86)\microsoft visual studio 10.0\vc\include\utility
;	COMDAT ??$forward@ABH@std@@YAABHABH@Z
_TEXT	SEGMENT
__Arg$ = 8						; size = 4
??$forward@ABH@std@@YAABHABH@Z PROC			; std::forward<int const &>, COMDAT

; 78   : 	{	// forward _Arg, given explicitly specified type parameter

  00000	55		 push	 ebp
  00001	8b ec		 mov	 ebp, esp

; 79   : 	return ((_Ty&&)_Arg);

  00003	8b 45 08	 mov	 eax, DWORD PTR __Arg$[ebp]

; 80   : 	}

  00006	5d		 pop	 ebp
  00007	c3		 ret	 0
??$forward@ABH@std@@YAABHABH@Z ENDP			; std::forward<int const &>
_TEXT	ENDS
PUBLIC	??$_Construct@HABH@std@@YAXPAHABH@Z		; std::_Construct<int,int const &>
; Function compile flags: /Ogsp
; File c:\program files (x86)\microsoft visual studio 10.0\vc\include\xmemory
;	COMDAT ??$_Construct@HABH@std@@YAXPAHABH@Z
_TEXT	SEGMENT
__Ptr$ = 8						; size = 4
__Val$ = 12						; size = 4
??$_Construct@HABH@std@@YAXPAHABH@Z PROC		; std::_Construct<int,int const &>, COMDAT

; 46   : 	{	// construct object at _Ptr with value _Val

  00000	55		 push	 ebp
  00001	8b ec		 mov	 ebp, esp

; 47   : 	void _FARQ *_Vptr = _Ptr;
; 48   : 	::new (_Vptr) _Ty1(_STD forward<_Ty2>(_Val));

  00003	8b 45 08	 mov	 eax, DWORD PTR __Ptr$[ebp]
  00006	85 c0		 test	 eax, eax
  00008	74 07		 je	 SHORT $LN3@Construct
  0000a	8b 4d 0c	 mov	 ecx, DWORD PTR __Val$[ebp]
  0000d	8b 09		 mov	 ecx, DWORD PTR [ecx]
  0000f	89 08		 mov	 DWORD PTR [eax], ecx
$LN3@Construct:

; 49   : 	}

  00011	5d		 pop	 ebp
  00012	c3		 ret	 0
??$_Construct@HABH@std@@YAXPAHABH@Z ENDP		; std::_Construct<int,int const &>
_TEXT	ENDS
PUBLIC	??$_Unchecked@PAH@std@@YAPAHPAH@Z		; std::_Unchecked<int *>
; Function compile flags: /Ogsp
; File c:\program files (x86)\microsoft visual studio 10.0\vc\include\xutility
;	COMDAT ??$_Unchecked@PAH@std@@YAPAHPAH@Z
_TEXT	SEGMENT
__Src$ = 8						; size = 4
??$_Unchecked@PAH@std@@YAPAHPAH@Z PROC			; std::_Unchecked<int *>, COMDAT

; 266  : 	{	// construct unchecked from checked, generic

  00000	55		 push	 ebp
  00001	8b ec		 mov	 ebp, esp

; 267  : 	return (_Src);

  00003	8b 45 08	 mov	 eax, DWORD PTR __Src$[ebp]

; 268  : 	}

  00006	5d		 pop	 ebp
  00007	c3		 ret	 0
??$_Unchecked@PAH@std@@YAPAHPAH@Z ENDP			; std::_Unchecked<int *>
_TEXT	ENDS
PUBLIC	??$_Dist_type@PAH@std@@YAPAHPAH@Z		; std::_Dist_type<int *>
; Function compile flags: /Ogsp
;	COMDAT ??$_Dist_type@PAH@std@@YAPAHPAH@Z
_TEXT	SEGMENT
___formal$ = 8						; size = 4
??$_Dist_type@PAH@std@@YAPAHPAH@Z PROC			; std::_Dist_type<int *>, COMDAT

; 850  : 	return (0);

  00000	33 c0		 xor	 eax, eax

; 851  : 	}

  00002	c3		 ret	 0
??$_Dist_type@PAH@std@@YAPAHPAH@Z ENDP			; std::_Dist_type<int *>
_TEXT	ENDS
PUBLIC	??$forward@AAPAH@std@@YAAAPAHAAPAH@Z		; std::forward<int * &>
; Function compile flags: /Ogsp
; File c:\program files (x86)\microsoft visual studio 10.0\vc\include\utility
;	COMDAT ??$forward@AAPAH@std@@YAAAPAHAAPAH@Z
_TEXT	SEGMENT
__Arg$ = 8						; size = 4
??$forward@AAPAH@std@@YAAAPAHAAPAH@Z PROC		; std::forward<int * &>, COMDAT

; 78   : 	{	// forward _Arg, given explicitly specified type parameter

  00000	55		 push	 ebp
  00001	8b ec		 mov	 ebp, esp

; 79   : 	return ((_Ty&&)_Arg);

  00003	8b 45 08	 mov	 eax, DWORD PTR __Arg$[ebp]

; 80   : 	}

  00006	5d		 pop	 ebp
  00007	c3		 ret	 0
??$forward@AAPAH@std@@YAAAPAHAAPAH@Z ENDP		; std::forward<int * &>
_TEXT	ENDS
PUBLIC	??$?0AAPAHAAPAH@?$_Pair_base@PAHPAH@std@@QAE@AAPAH0@Z ; std::_Pair_base<int *,int *>::_Pair_base<int *,int *><int * &,int * &>
; Function compile flags: /Ogsp
;	COMDAT ??$?0AAPAHAAPAH@?$_Pair_base@PAHPAH@std@@QAE@AAPAH0@Z
_TEXT	SEGMENT
__Val1$ = 8						; size = 4
__Val2$ = 12						; size = 4
??$?0AAPAHAAPAH@?$_Pair_base@PAHPAH@std@@QAE@AAPAH0@Z PROC ; std::_Pair_base<int *,int *>::_Pair_base<int *,int *><int * &,int * &>, COMDAT
; _this$ = ecx

; 163  : 		{	// construct from moved values

  00000	55		 push	 ebp
  00001	8b ec		 mov	 ebp, esp
  00003	8b c1		 mov	 eax, ecx
  00005	8b 4d 08	 mov	 ecx, DWORD PTR __Val1$[ebp]
  00008	8b 09		 mov	 ecx, DWORD PTR [ecx]
  0000a	89 08		 mov	 DWORD PTR [eax], ecx
  0000c	8b 4d 0c	 mov	 ecx, DWORD PTR __Val2$[ebp]
  0000f	8b 09		 mov	 ecx, DWORD PTR [ecx]
  00011	89 48 04	 mov	 DWORD PTR [eax+4], ecx

; 164  : 		}

  00014	5d		 pop	 ebp
  00015	c2 08 00	 ret	 8
??$?0AAPAHAAPAH@?$_Pair_base@PAHPAH@std@@QAE@AAPAH0@Z ENDP ; std::_Pair_base<int *,int *>::_Pair_base<int *,int *><int * &,int * &>
_TEXT	ENDS
PUBLIC	??$_Move_backward@PAHPAH@std@@YAPAHPAH00U_Scalar_ptr_iterator_tag@0@@Z ; std::_Move_backward<int *,int *>
EXTRN	__imp__memmove:PROC
; Function compile flags: /Ogsp
; File c:\program files (x86)\microsoft visual studio 10.0\vc\include\xutility
;	COMDAT ??$_Move_backward@PAHPAH@std@@YAPAHPAH00U_Scalar_ptr_iterator_tag@0@@Z
_TEXT	SEGMENT
__First$ = 8						; size = 4
__Last$ = 12						; size = 4
__Dest$ = 16						; size = 4
___formal$ = 20						; size = 1
??$_Move_backward@PAHPAH@std@@YAPAHPAH00U_Scalar_ptr_iterator_tag@0@@Z PROC ; std::_Move_backward<int *,int *>, COMDAT

; 2627 : 	{	// move [_First, _Last) backwards to [..., _Dest), pointers to scalars

  00000	55		 push	 ebp
  00001	8b ec		 mov	 ebp, esp

; 2628 : 	ptrdiff_t _Count = _Last - _First;

  00003	8b 45 0c	 mov	 eax, DWORD PTR __Last$[ebp]
  00006	2b 45 08	 sub	 eax, DWORD PTR __First$[ebp]
  00009	56		 push	 esi

; 2629 : 	_CSTD memmove(&*_Dest - _Count, &*_First,
; 2630 : 		_Count * sizeof (*_First));

  0000a	8b 75 10	 mov	 esi, DWORD PTR __Dest$[ebp]
  0000d	83 e0 fc	 and	 eax, -4			; fffffffcH
  00010	50		 push	 eax
  00011	ff 75 08	 push	 DWORD PTR __First$[ebp]
  00014	2b f0		 sub	 esi, eax
  00016	56		 push	 esi
  00017	ff 15 00 00 00
	00		 call	 DWORD PTR __imp__memmove
  0001d	83 c4 0c	 add	 esp, 12			; 0000000cH

; 2631 : 	return (_Dest - _Count);

  00020	8b c6		 mov	 eax, esi
  00022	5e		 pop	 esi

; 2632 : 	}

  00023	5d		 pop	 ebp
  00024	c3		 ret	 0
??$_Move_backward@PAHPAH@std@@YAPAHPAH00U_Scalar_ptr_iterator_tag@0@@Z ENDP ; std::_Move_backward<int *,int *>
; Function compile flags: /Ogsp
; File c:\program files (x86)\microsoft sdks\windows\v7.0a\include\strsafe.h
_TEXT	ENDS
;	COMDAT ?StringValidateDestA@@YGJPBDII@Z
_TEXT	SEGMENT
_cchMax$ = 8						; size = 4
?StringValidateDestA@@YGJPBDII@Z PROC			; StringValidateDestA, COMDAT
; _cchDest$ = ecx

; 8721 : {

  00000	55		 push	 ebp
  00001	8b ec		 mov	 ebp, esp

; 8722 :     HRESULT hr = S_OK;

  00003	33 c0		 xor	 eax, eax

; 8723 : 
; 8724 :     if ((cchDest == 0) || (cchDest > cchMax))

  00005	85 c9		 test	 ecx, ecx
  00007	74 05		 je	 SHORT $LN1@StringVali
  00009	3b 4d 08	 cmp	 ecx, DWORD PTR _cchMax$[ebp]
  0000c	76 05		 jbe	 SHORT $LN2@StringVali
$LN1@StringVali:

; 8725 :     {
; 8726 :         hr = STRSAFE_E_INVALID_PARAMETER;

  0000e	b8 57 00 07 80	 mov	 eax, -2147024809	; 80070057H
$LN2@StringVali:

; 8727 :     }
; 8728 : 
; 8729 :     return hr;
; 8730 : }

  00013	5d		 pop	 ebp
  00014	c2 04 00	 ret	 4
?StringValidateDestA@@YGJPBDII@Z ENDP			; StringValidateDestA
; Function compile flags: /Ogsp
_TEXT	ENDS
;	COMDAT ?StringCopyWorkerA@@YGJPADIPAIPBDI@Z
_TEXT	SEGMENT
_hr$ = -4						; size = 4
_pcchNewDestLength$ = 8					; size = 4
_pszSrc$ = 12						; size = 4
_cchToCopy$ = 16					; size = 4
?StringCopyWorkerA@@YGJPADIPAIPBDI@Z PROC		; StringCopyWorkerA, COMDAT
; _pszDest$ = ecx
; _cchDest$ = eax

; 8947 : {

  00000	55		 push	 ebp
  00001	8b ec		 mov	 ebp, esp
  00003	51		 push	 ecx

; 8948 :     HRESULT hr = S_OK;

  00004	83 65 fc 00	 and	 DWORD PTR _hr$[ebp], 0
  00008	57		 push	 edi
  00009	8b f8		 mov	 edi, eax

; 8949 :     size_t cchNewDestLength = 0;

  0000b	33 c0		 xor	 eax, eax

; 8950 :     
; 8951 :     // ASSERT(cchDest != 0);
; 8952 : 
; 8953 :     while (cchDest && cchToCopy && (*pszSrc != '\0'))

  0000d	85 ff		 test	 edi, edi
  0000f	74 23		 je	 SHORT $LN9@StringCopy

; 8948 :     HRESULT hr = S_OK;

  00011	53		 push	 ebx
  00012	8b 5d 10	 mov	 ebx, DWORD PTR _cchToCopy$[ebp]
  00015	56		 push	 esi

; 8950 :     
; 8951 :     // ASSERT(cchDest != 0);
; 8952 : 
; 8953 :     while (cchDest && cchToCopy && (*pszSrc != '\0'))

  00016	8b 75 0c	 mov	 esi, DWORD PTR _pszSrc$[ebp]
  00019	2b f1		 sub	 esi, ecx
$LL4@StringCopy:
  0001b	85 db		 test	 ebx, ebx
  0001d	74 0f		 je	 SHORT $LN11@StringCopy
  0001f	8a 14 0e	 mov	 dl, BYTE PTR [esi+ecx]
  00022	84 d2		 test	 dl, dl
  00024	74 08		 je	 SHORT $LN11@StringCopy

; 8954 :     {
; 8955 :         *pszDest++ = *pszSrc++;

  00026	88 11		 mov	 BYTE PTR [ecx], dl
  00028	41		 inc	 ecx

; 8956 :         cchDest--;

  00029	4b		 dec	 ebx

; 8957 :         cchToCopy--;
; 8958 : 
; 8959 :         cchNewDestLength++;

  0002a	40		 inc	 eax
  0002b	4f		 dec	 edi
  0002c	75 ed		 jne	 SHORT $LL4@StringCopy
$LN11@StringCopy:
  0002e	5e		 pop	 esi
  0002f	5b		 pop	 ebx

; 8960 :     }
; 8961 : 
; 8962 :     if (cchDest == 0)

  00030	85 ff		 test	 edi, edi
  00032	75 09		 jne	 SHORT $LN2@StringCopy
$LN9@StringCopy:

; 8963 :     {
; 8964 :         // we are going to truncate pszDest
; 8965 :         pszDest--;

  00034	49		 dec	 ecx

; 8966 :         cchNewDestLength--;

  00035	48		 dec	 eax

; 8967 : 
; 8968 :         hr = STRSAFE_E_INSUFFICIENT_BUFFER;

  00036	c7 45 fc 7a 00
	07 80		 mov	 DWORD PTR _hr$[ebp], -2147024774 ; 8007007aH
$LN2@StringCopy:

; 8969 :     }
; 8970 : 
; 8971 :     *pszDest = '\0';

  0003d	c6 01 00	 mov	 BYTE PTR [ecx], 0

; 8972 : 
; 8973 :     if (pcchNewDestLength)

  00040	8b 4d 08	 mov	 ecx, DWORD PTR _pcchNewDestLength$[ebp]
  00043	5f		 pop	 edi
  00044	85 c9		 test	 ecx, ecx
  00046	74 02		 je	 SHORT $LN1@StringCopy

; 8974 :     {
; 8975 :         *pcchNewDestLength = cchNewDestLength;

  00048	89 01		 mov	 DWORD PTR [ecx], eax
$LN1@StringCopy:

; 8976 :     }
; 8977 : 
; 8978 :     return hr;

  0004a	8b 45 fc	 mov	 eax, DWORD PTR _hr$[ebp]

; 8979 : }

  0004d	c9		 leave
  0004e	c2 0c 00	 ret	 12			; 0000000cH
?StringCopyWorkerA@@YGJPADIPAIPBDI@Z ENDP		; StringCopyWorkerA
_TEXT	ENDS
EXTRN	__imp___vsnprintf:PROC
; Function compile flags: /Ogsp
;	COMDAT ?StringVPrintfWorkerA@@YGJPADIPAIPBD0@Z
_TEXT	SEGMENT
_pcchNewDestLength$ = 8					; size = 4
_pszFormat$ = 12					; size = 4
_argList$ = 16						; size = 4
?StringVPrintfWorkerA@@YGJPADIPAIPBD0@Z PROC		; StringVPrintfWorkerA, COMDAT
; _pszDest$ = edi
; _cchDest$ = eax

; 9029 : {

  00000	55		 push	 ebp
  00001	8b ec		 mov	 ebp, esp
  00003	53		 push	 ebx
  00004	56		 push	 esi

; 9030 :     HRESULT hr = S_OK;
; 9031 :     int iRet;
; 9032 :     size_t cchMax;
; 9033 :     size_t cchNewDestLength = 0;
; 9034 : 
; 9035 :     // leave the last space for the null terminator
; 9036 :     cchMax = cchDest - 1;
; 9037 : 
; 9038 : #if (STRSAFE_USE_SECURE_CRT == 1) && !defined(STRSAFE_LIB_IMPL)
; 9039 :     iRet = _vsnprintf_s(pszDest, cchDest, cchMax, pszFormat, argList);
; 9040 : #else
; 9041 :     #pragma warning(push)
; 9042 :     #pragma warning(disable: __WARNING_BANNED_API_USAGE)// "STRSAFE not included"
; 9043 :     iRet = _vsnprintf(pszDest, cchMax, pszFormat, argList);

  00005	ff 75 10	 push	 DWORD PTR _argList$[ebp]
  00008	8d 70 ff	 lea	 esi, DWORD PTR [eax-1]
  0000b	ff 75 0c	 push	 DWORD PTR _pszFormat$[ebp]
  0000e	33 db		 xor	 ebx, ebx
  00010	56		 push	 esi
  00011	57		 push	 edi
  00012	ff 15 00 00 00
	00		 call	 DWORD PTR __imp___vsnprintf
  00018	83 c4 10	 add	 esp, 16			; 00000010H

; 9044 :     #pragma warning(pop)
; 9045 : #endif
; 9046 :     // ASSERT((iRet < 0) || (((size_t)iRet) <= cchMax));
; 9047 : 
; 9048 :     if ((iRet < 0) || (((size_t)iRet) > cchMax))

  0001b	85 c0		 test	 eax, eax
  0001d	78 0b		 js	 SHORT $LN5@StringVPri
  0001f	3b c6		 cmp	 eax, esi
  00021	77 07		 ja	 SHORT $LN5@StringVPri

; 9058 :     }
; 9059 :     else if (((size_t)iRet) == cchMax)

  00023	75 0f		 jne	 SHORT $LN2@StringVPri

; 9060 :     {
; 9061 :         // need to null terminate the string
; 9062 :         pszDest += cchMax;
; 9063 :         *pszDest = '\0';

  00025	88 1c 3e	 mov	 BYTE PTR [esi+edi], bl

; 9064 : 
; 9065 :         cchNewDestLength = cchMax;
; 9066 :     }
; 9067 :     else

  00028	eb 08		 jmp	 SHORT $LN9@StringVPri
$LN5@StringVPri:

; 9049 :     {
; 9050 :         // need to null terminate the string
; 9051 :         pszDest += cchMax;
; 9052 :         *pszDest = '\0';

  0002a	88 1c 3e	 mov	 BYTE PTR [esi+edi], bl

; 9055 : 
; 9056 :         // we have truncated pszDest
; 9057 :         hr = STRSAFE_E_INSUFFICIENT_BUFFER;

  0002d	bb 7a 00 07 80	 mov	 ebx, -2147024774	; 8007007aH
$LN9@StringVPri:

; 9053 : 
; 9054 :         cchNewDestLength = cchMax;

  00032	8b c6		 mov	 eax, esi
$LN2@StringVPri:

; 9068 :     {
; 9069 :         cchNewDestLength = (size_t)iRet;
; 9070 :     }
; 9071 : 
; 9072 :     if (pcchNewDestLength)

  00034	8b 4d 08	 mov	 ecx, DWORD PTR _pcchNewDestLength$[ebp]
  00037	85 c9		 test	 ecx, ecx
  00039	74 02		 je	 SHORT $LN1@StringVPri

; 9073 :     {
; 9074 :         *pcchNewDestLength = cchNewDestLength;

  0003b	89 01		 mov	 DWORD PTR [ecx], eax
$LN1@StringVPri:
  0003d	5e		 pop	 esi

; 9075 :     }
; 9076 : 
; 9077 :     return hr;

  0003e	8b c3		 mov	 eax, ebx
  00040	5b		 pop	 ebx

; 9078 : }

  00041	5d		 pop	 ebp
  00042	c2 0c 00	 ret	 12			; 0000000cH
?StringVPrintfWorkerA@@YGJPADIPAIPBD0@Z ENDP		; StringVPrintfWorkerA
_TEXT	ENDS
PUBLIC	?_DECSTR@@YAXPADH@Z				; _DECSTR
; Function compile flags: /Ogsp
; File d:\lost saga for developer\youtube\tutorial\source\src\lsclient\stringprotect.h
;	COMDAT ?_DECSTR@@YAXPADH@Z
_TEXT	SEGMENT
_s$ = 8							; size = 4
_l$ = 12						; size = 4
?_DECSTR@@YAXPADH@Z PROC				; _DECSTR, COMDAT

; 40   : __forceinline void _DECSTR(char* s, int l){int i=0,l4=(l-1)/4,*p=(int*)s;s[l-1]=0;for(;i<l4;++i)*(p++)^=0xEAEBECED;for(i=l4*4;i<l-1;++i)s[i]^=0xED-i%4;}

  00000	55		 push	 ebp
  00001	8b ec		 mov	 ebp, esp
  00003	8b 4d 0c	 mov	 ecx, DWORD PTR _l$[ebp]
  00006	56		 push	 esi
  00007	8b 75 08	 mov	 esi, DWORD PTR _s$[ebp]
  0000a	57		 push	 edi
  0000b	8d 79 ff	 lea	 edi, DWORD PTR [ecx-1]
  0000e	8b c7		 mov	 eax, edi
  00010	99		 cdq
  00011	83 e2 03	 and	 edx, 3
  00014	03 c2		 add	 eax, edx
  00016	c1 f8 02	 sar	 eax, 2
  00019	8b d6		 mov	 edx, esi
  0001b	c6 44 0e ff 00	 mov	 BYTE PTR [esi+ecx-1], 0
  00020	85 c0		 test	 eax, eax
  00022	7e 0e		 jle	 SHORT $LN4@DECSTR
  00024	8b c8		 mov	 ecx, eax
$LL6@DECSTR:
  00026	81 32 ed ec eb
	ea		 xor	 DWORD PTR [edx], -353637139 ; eaebecedH
  0002c	83 c2 04	 add	 edx, 4
  0002f	49		 dec	 ecx
  00030	75 f4		 jne	 SHORT $LL6@DECSTR
$LN4@DECSTR:
  00032	c1 e0 02	 shl	 eax, 2
  00035	eb 17		 jmp	 SHORT $LN14@DECSTR
$LL3@DECSTR:
  00037	8b c8		 mov	 ecx, eax
  00039	81 e1 03 00 00
	80		 and	 ecx, -2147483645	; 80000003H
  0003f	79 05		 jns	 SHORT $LN13@DECSTR
  00041	49		 dec	 ecx
  00042	83 c9 fc	 or	 ecx, -4			; fffffffcH
  00045	41		 inc	 ecx
$LN13@DECSTR:
  00046	b2 ed		 mov	 dl, -19			; ffffffedH
  00048	2a d1		 sub	 dl, cl
  0004a	30 14 30	 xor	 BYTE PTR [eax+esi], dl
  0004d	40		 inc	 eax
$LN14@DECSTR:
  0004e	3b c7		 cmp	 eax, edi
  00050	7c e5		 jl	 SHORT $LL3@DECSTR
  00052	5f		 pop	 edi
  00053	5e		 pop	 esi
  00054	5d		 pop	 ebp
  00055	c3		 ret	 0
?_DECSTR@@YAXPADH@Z ENDP				; _DECSTR
_TEXT	ENDS
PUBLIC	?GetName@ioItem@@QBEABVioHashString@@XZ		; ioItem::GetName
; Function compile flags: /Ogsp
; File d:\lost saga for developer\youtube\tutorial\source\src\lsclient\ioitem.h
;	COMDAT ?GetName@ioItem@@QBEABVioHashString@@XZ
_TEXT	SEGMENT
?GetName@ioItem@@QBEABVioHashString@@XZ PROC		; ioItem::GetName, COMDAT
; _this$ = ecx

; 269  : 	inline const ioHashString& GetName() const { return m_Name; }

  00000	8d 81 34 01 00
	00		 lea	 eax, DWORD PTR [ecx+308]
  00006	c3		 ret	 0
?GetName@ioItem@@QBEABVioHashString@@XZ ENDP		; ioItem::GetName
_TEXT	ENDS
PUBLIC	?GetItemLargeIconName@ioItem@@QBEABVioHashString@@XZ ; ioItem::GetItemLargeIconName
; Function compile flags: /Ogsp
;	COMDAT ?GetItemLargeIconName@ioItem@@QBEABVioHashString@@XZ
_TEXT	SEGMENT
?GetItemLargeIconName@ioItem@@QBEABVioHashString@@XZ PROC ; ioItem::GetItemLargeIconName, COMDAT
; _this$ = ecx

; 288  : 	inline const ioHashString& GetItemLargeIconName() const { return m_ItemLargeIconFile; }

  00000	8d 81 14 02 00
	00		 lea	 eax, DWORD PTR [ecx+532]
  00006	c3		 ret	 0
?GetItemLargeIconName@ioItem@@QBEABVioHashString@@XZ ENDP ; ioItem::GetItemLargeIconName
_TEXT	ENDS
PUBLIC	??0ETCITEMSLOT@ioUserEtcItem@@QAE@XZ		; ioUserEtcItem::ETCITEMSLOT::ETCITEMSLOT
; Function compile flags: /Ogsp
; File d:\lost saga for developer\youtube\tutorial\source\src\lsclient\iouseretcitem.h
;	COMDAT ??0ETCITEMSLOT@ioUserEtcItem@@QAE@XZ
_TEXT	SEGMENT
??0ETCITEMSLOT@ioUserEtcItem@@QAE@XZ PROC		; ioUserEtcItem::ETCITEMSLOT::ETCITEMSLOT, COMDAT
; _this$ = ecx

; 22   : 		ETCITEMSLOT()

  00000	8b c1		 mov	 eax, ecx

; 23   : 		{
; 24   : 			m_iType   = 0;

  00002	33 c9		 xor	 ecx, ecx
  00004	89 08		 mov	 DWORD PTR [eax], ecx

; 25   : 			m_iValue1 = 0;

  00006	89 48 04	 mov	 DWORD PTR [eax+4], ecx

; 26   : 			m_iValue2 = 0;

  00009	89 48 08	 mov	 DWORD PTR [eax+8], ecx

; 27   : 		}

  0000c	c3		 ret	 0
??0ETCITEMSLOT@ioUserEtcItem@@QAE@XZ ENDP		; ioUserEtcItem::ETCITEMSLOT::ETCITEMSLOT
_TEXT	ENDS
PUBLIC	?GetUse@ETCITEMSLOT@ioUserEtcItem@@QAEHXZ	; ioUserEtcItem::ETCITEMSLOT::GetUse
; Function compile flags: /Ogsp
;	COMDAT ?GetUse@ETCITEMSLOT@ioUserEtcItem@@QAEHXZ
_TEXT	SEGMENT
?GetUse@ETCITEMSLOT@ioUserEtcItem@@QAEHXZ PROC		; ioUserEtcItem::ETCITEMSLOT::GetUse, COMDAT
; _this$ = ecx

; 35   : 			return m_iValue1;

  00000	8b 41 04	 mov	 eax, DWORD PTR [ecx+4]

; 36   : 		}

  00003	c3		 ret	 0
?GetUse@ETCITEMSLOT@ioUserEtcItem@@QAEHXZ ENDP		; ioUserEtcItem::ETCITEMSLOT::GetUse
_TEXT	ENDS
PUBLIC	?IsUse@ETCITEMSLOT@ioUserEtcItem@@QAE_NXZ	; ioUserEtcItem::ETCITEMSLOT::IsUse
; Function compile flags: /Ogsp
;	COMDAT ?IsUse@ETCITEMSLOT@ioUserEtcItem@@QAE_NXZ
_TEXT	SEGMENT
?IsUse@ETCITEMSLOT@ioUserEtcItem@@QAE_NXZ PROC		; ioUserEtcItem::ETCITEMSLOT::IsUse, COMDAT
; _this$ = ecx

; 39   : 			if( m_iValue2 == ITEM_USE_ON )

  00000	83 79 08 01	 cmp	 DWORD PTR [ecx+8], 1
  00004	0f 94 c0	 sete	 al

; 40   : 				return true;
; 41   : 			
; 42   : 			return false;
; 43   : 		}

  00007	c3		 ret	 0
?IsUse@ETCITEMSLOT@ioUserEtcItem@@QAE_NXZ ENDP		; ioUserEtcItem::ETCITEMSLOT::IsUse
_TEXT	ENDS
PUBLIC	?GetName@ioEtcItem@@QBEABVioHashString@@XZ	; ioEtcItem::GetName
; Function compile flags: /Ogsp
; File d:\lost saga for developer\youtube\tutorial\source\src\lsclient\ioetcitem.h
;	COMDAT ?GetName@ioEtcItem@@QBEABVioHashString@@XZ
_TEXT	SEGMENT
?GetName@ioEtcItem@@QBEABVioHashString@@XZ PROC		; ioEtcItem::GetName, COMDAT
; _this$ = ecx

; 465  : 	inline const ioHashString& GetName() const { return m_Name; }

  00000	8d 41 04	 lea	 eax, DWORD PTR [ecx+4]
  00003	c3		 ret	 0
?GetName@ioEtcItem@@QBEABVioHashString@@XZ ENDP		; ioEtcItem::GetName
_TEXT	ENDS
PUBLIC	?GetIconName@ioEtcItem@@QBEABVioHashString@@XZ	; ioEtcItem::GetIconName
; Function compile flags: /Ogsp
;	COMDAT ?GetIconName@ioEtcItem@@QBEABVioHashString@@XZ
_TEXT	SEGMENT
?GetIconName@ioEtcItem@@QBEABVioHashString@@XZ PROC	; ioEtcItem::GetIconName, COMDAT
; _this$ = ecx

; 467  : 	inline const ioHashString& GetIconName() const { return m_IconName; }

  00000	8d 81 60 01 00
	00		 lea	 eax, DWORD PTR [ecx+352]
  00006	c3		 ret	 0
?GetIconName@ioEtcItem@@QBEABVioHashString@@XZ ENDP	; ioEtcItem::GetIconName
_TEXT	ENDS
PUBLIC	?GetPublicID@ioMyInfo@@QBEABVioHashString@@XZ	; ioMyInfo::GetPublicID
; Function compile flags: /Ogsp
; File d:\lost saga for developer\youtube\tutorial\source\src\lsclient\iomyinfo.h
;	COMDAT ?GetPublicID@ioMyInfo@@QBEABVioHashString@@XZ
_TEXT	SEGMENT
?GetPublicID@ioMyInfo@@QBEABVioHashString@@XZ PROC	; ioMyInfo::GetPublicID, COMDAT
; _this$ = ecx

; 517  : 	const ioHashString& GetPublicID() const { return m_user_data.m_public_id; }    

  00000	8d 41 1c	 lea	 eax, DWORD PTR [ecx+28]
  00003	c3		 ret	 0
?GetPublicID@ioMyInfo@@QBEABVioHashString@@XZ ENDP	; ioMyInfo::GetPublicID
_TEXT	ENDS
PUBLIC	?GetUserEtcItem@ioMyInfo@@QAEPAVioUserEtcItem@@XZ ; ioMyInfo::GetUserEtcItem
; Function compile flags: /Ogsp
;	COMDAT ?GetUserEtcItem@ioMyInfo@@QAEPAVioUserEtcItem@@XZ
_TEXT	SEGMENT
?GetUserEtcItem@ioMyInfo@@QAEPAVioUserEtcItem@@XZ PROC	; ioMyInfo::GetUserEtcItem, COMDAT
; _this$ = ecx

; 635  : 	ioUserEtcItem* GetUserEtcItem() { return &m_UserEtcItem; }

  00000	8d 81 44 01 00
	00		 lea	 eax, DWORD PTR [ecx+324]
  00006	c3		 ret	 0
?GetUserEtcItem@ioMyInfo@@QAEPAVioUserEtcItem@@XZ ENDP	; ioMyInfo::GetUserEtcItem
_TEXT	ENDS
PUBLIC	??_R0?AVioItem@@@8				; ioItem `RTTI Type Descriptor'
PUBLIC	??_R0?AVioObjectItem@@@8			; ioObjectItem `RTTI Type Descriptor'
PUBLIC	?ToObjectItem@@YAPAVioObjectItem@@PAVioItem@@@Z	; ToObjectItem
;	COMDAT ??_R0?AVioItem@@@8
; File d:\lost saga for developer\youtube\tutorial\source\src\lsclient\ioobjectitem.h
_DATA	SEGMENT
??_R0?AVioItem@@@8 DD FLAT:??_7type_info@@6B@		; ioItem `RTTI Type Descriptor'
	DD	00H
	DB	'.?AVioItem@@', 00H
_DATA	ENDS
;	COMDAT ??_R0?AVioObjectItem@@@8
_DATA	SEGMENT
??_R0?AVioObjectItem@@@8 DD FLAT:??_7type_info@@6B@	; ioObjectItem `RTTI Type Descriptor'
	DD	00H
	DB	'.?AVioObjectItem@@', 00H
; Function compile flags: /Ogsp
_DATA	ENDS
;	COMDAT ?ToObjectItem@@YAPAVioObjectItem@@PAVioItem@@@Z
_TEXT	SEGMENT
_pItem$ = 8						; size = 4
?ToObjectItem@@YAPAVioObjectItem@@PAVioItem@@@Z PROC	; ToObjectItem, COMDAT

; 176  : {

  00000	55		 push	 ebp
  00001	8b ec		 mov	 ebp, esp
  00003	56		 push	 esi

; 177  : 	if( !pItem || pItem->GetType() != ioItem::IT_OBJECT )

  00004	8b 75 08	 mov	 esi, DWORD PTR _pItem$[ebp]
  00007	85 f6		 test	 esi, esi
  00009	74 25		 je	 SHORT $LN1@ToObjectIt
  0000b	8b 06		 mov	 eax, DWORD PTR [esi]
  0000d	8b ce		 mov	 ecx, esi
  0000f	ff 50 08	 call	 DWORD PTR [eax+8]
  00012	83 f8 05	 cmp	 eax, 5
  00015	75 19		 jne	 SHORT $LN1@ToObjectIt

; 179  : 
; 180  : 	return dynamic_cast< ioObjectItem* >( pItem );

  00017	6a 00		 push	 0
  00019	68 00 00 00 00	 push	 OFFSET ??_R0?AVioObjectItem@@@8
  0001e	68 00 00 00 00	 push	 OFFSET ??_R0?AVioItem@@@8
  00023	6a 00		 push	 0
  00025	56		 push	 esi
  00026	e8 00 00 00 00	 call	 ___RTDynamicCast
  0002b	83 c4 14	 add	 esp, 20			; 00000014H
  0002e	eb 02		 jmp	 SHORT $LN3@ToObjectIt
$LN1@ToObjectIt:

; 178  : 		return NULL;

  00030	33 c0		 xor	 eax, eax
$LN3@ToObjectIt:
  00032	5e		 pop	 esi

; 181  : }

  00033	5d		 pop	 ebp
  00034	c3		 ret	 0
?ToObjectItem@@YAPAVioObjectItem@@PAVioItem@@@Z ENDP	; ToObjectItem
_TEXT	ENDS
PUBLIC	?GetPreOverWnd@ioSP2GUIManager@@QAEPAVioWnd@@XZ	; ioSP2GUIManager::GetPreOverWnd
; Function compile flags: /Ogsp
; File d:\lost saga for developer\youtube\tutorial\source\src\lsclient\gui\iosp2guimanager.h
;	COMDAT ?GetPreOverWnd@ioSP2GUIManager@@QAEPAVioWnd@@XZ
_TEXT	SEGMENT
?GetPreOverWnd@ioSP2GUIManager@@QAEPAVioWnd@@XZ PROC	; ioSP2GUIManager::GetPreOverWnd, COMDAT
; _this$ = ecx

; 220  : 	ioWnd *GetPreOverWnd(){ return m_pPreOverWnd; }

  00000	8b 41 10	 mov	 eax, DWORD PTR [ecx+16]
  00003	c3		 ret	 0
?GetPreOverWnd@ioSP2GUIManager@@QAEPAVioWnd@@XZ ENDP	; ioSP2GUIManager::GetPreOverWnd
_TEXT	ENDS
PUBLIC	?size@?$vector@HV?$allocator@H@std@@@std@@QBEIXZ ; std::vector<int,std::allocator<int> >::size
; Function compile flags: /Ogsp
; File c:\program files (x86)\microsoft visual studio 10.0\vc\include\vector
;	COMDAT ?size@?$vector@HV?$allocator@H@std@@@std@@QBEIXZ
_TEXT	SEGMENT
?size@?$vector@HV?$allocator@H@std@@@std@@QBEIXZ PROC	; std::vector<int,std::allocator<int> >::size, COMDAT
; _this$ = ecx

; 879  : 		return (this->_Mylast - this->_Myfirst);

  00000	8b 41 04	 mov	 eax, DWORD PTR [ecx+4]
  00003	2b 01		 sub	 eax, DWORD PTR [ecx]
  00005	c1 f8 02	 sar	 eax, 2

; 880  : 		}

  00008	c3		 ret	 0
?size@?$vector@HV?$allocator@H@std@@@std@@QBEIXZ ENDP	; std::vector<int,std::allocator<int> >::size
_TEXT	ENDS
PUBLIC	?empty@?$vector@HV?$allocator@H@std@@@std@@QBE_NXZ ; std::vector<int,std::allocator<int> >::empty
; Function compile flags: /Ogsp
;	COMDAT ?empty@?$vector@HV?$allocator@H@std@@@std@@QBE_NXZ
_TEXT	SEGMENT
?empty@?$vector@HV?$allocator@H@std@@@std@@QBE_NXZ PROC	; std::vector<int,std::allocator<int> >::empty, COMDAT
; _this$ = ecx

; 889  : 		return (this->_Myfirst == this->_Mylast);

  00000	8b 01		 mov	 eax, DWORD PTR [ecx]
  00002	2b 41 04	 sub	 eax, DWORD PTR [ecx+4]
  00005	f7 d8		 neg	 eax
  00007	1b c0		 sbb	 eax, eax
  00009	40		 inc	 eax

; 890  : 		}

  0000a	c3		 ret	 0
?empty@?$vector@HV?$allocator@H@std@@@std@@QBE_NXZ ENDP	; std::vector<int,std::allocator<int> >::empty
_TEXT	ENDS
PUBLIC	??A?$vector@HV?$allocator@H@std@@@std@@QAEAAHI@Z ; std::vector<int,std::allocator<int> >::operator[]
; Function compile flags: /Ogsp
;	COMDAT ??A?$vector@HV?$allocator@H@std@@@std@@QAEAAHI@Z
_TEXT	SEGMENT
__Pos$ = 8						; size = 4
??A?$vector@HV?$allocator@H@std@@@std@@QAEAAHI@Z PROC	; std::vector<int,std::allocator<int> >::operator[], COMDAT
; _this$ = ecx

; 928  : 		{	// subscript mutable sequence

  00000	55		 push	 ebp
  00001	8b ec		 mov	 ebp, esp

; 929  :  #if _ITERATOR_DEBUG_LEVEL == 2
; 930  : 		if (size() <= _Pos)
; 931  : 			{	// report error
; 932  : 			_DEBUG_ERROR("vector subscript out of range");
; 933  : 			_SCL_SECURE_OUT_OF_RANGE;
; 934  : 			}
; 935  : 
; 936  :  #elif _ITERATOR_DEBUG_LEVEL == 1
; 937  : 		_SCL_SECURE_VALIDATE_RANGE(_Pos < size());
; 938  :  #endif /* _ITERATOR_DEBUG_LEVEL */
; 939  : 
; 940  : 		return (*(this->_Myfirst + _Pos));

  00003	8b 01		 mov	 eax, DWORD PTR [ecx]
  00005	8b 4d 08	 mov	 ecx, DWORD PTR __Pos$[ebp]
  00008	8d 04 88	 lea	 eax, DWORD PTR [eax+ecx*4]

; 941  : 		}

  0000b	5d		 pop	 ebp
  0000c	c2 04 00	 ret	 4
??A?$vector@HV?$allocator@H@std@@@std@@QAEAAHI@Z ENDP	; std::vector<int,std::allocator<int> >::operator[]
_TEXT	ENDS
PUBLIC	??_7?$CEncrypt@H@@6B@				; CEncrypt<int>::`vftable'
PUBLIC	??1?$CEncrypt@H@@UAE@XZ				; CEncrypt<int>::~CEncrypt<int>
PUBLIC	??_R4?$CEncrypt@H@@6B@				; CEncrypt<int>::`RTTI Complete Object Locator'
PUBLIC	??_R0?AV?$CEncrypt@H@@@8			; CEncrypt<int> `RTTI Type Descriptor'
PUBLIC	??_R3?$CEncrypt@H@@8				; CEncrypt<int>::`RTTI Class Hierarchy Descriptor'
PUBLIC	??_R2?$CEncrypt@H@@8				; CEncrypt<int>::`RTTI Base Class Array'
PUBLIC	??_R1A@?0A@EA@?$CEncrypt@H@@8			; CEncrypt<int>::`RTTI Base Class Descriptor at (0,-1,0,64)'
EXTRN	??1ccddaabb@@UAE@XZ:PROC			; ccddaabb::~ccddaabb
EXTRN	??_E?$CEncrypt@H@@UAEPAXI@Z:PROC		; CEncrypt<int>::`vector deleting destructor'
;	COMDAT ??_R1A@?0A@EA@?$CEncrypt@H@@8
; File d:\lost saga for developer\youtube\tutorial\source\src\lsclient\encryptvalue.h
rdata$r	SEGMENT
??_R1A@?0A@EA@?$CEncrypt@H@@8 DD FLAT:??_R0?AV?$CEncrypt@H@@@8 ; CEncrypt<int>::`RTTI Base Class Descriptor at (0,-1,0,64)'
	DD	00H
	DD	00H
	DD	0ffffffffH
	DD	00H
	DD	040H
	DD	FLAT:??_R3?$CEncrypt@H@@8
rdata$r	ENDS
;	COMDAT ??_R2?$CEncrypt@H@@8
rdata$r	SEGMENT
??_R2?$CEncrypt@H@@8 DD FLAT:??_R1A@?0A@EA@?$CEncrypt@H@@8 ; CEncrypt<int>::`RTTI Base Class Array'
rdata$r	ENDS
;	COMDAT ??_R3?$CEncrypt@H@@8
rdata$r	SEGMENT
??_R3?$CEncrypt@H@@8 DD 00H				; CEncrypt<int>::`RTTI Class Hierarchy Descriptor'
	DD	00H
	DD	01H
	DD	FLAT:??_R2?$CEncrypt@H@@8
rdata$r	ENDS
;	COMDAT ??_R0?AV?$CEncrypt@H@@@8
_DATA	SEGMENT
??_R0?AV?$CEncrypt@H@@@8 DD FLAT:??_7type_info@@6B@	; CEncrypt<int> `RTTI Type Descriptor'
	DD	00H
	DB	'.?AV?$CEncrypt@H@@', 00H
_DATA	ENDS
;	COMDAT ??_R4?$CEncrypt@H@@6B@
rdata$r	SEGMENT
??_R4?$CEncrypt@H@@6B@ DD 00H				; CEncrypt<int>::`RTTI Complete Object Locator'
	DD	00H
	DD	00H
	DD	FLAT:??_R0?AV?$CEncrypt@H@@@8
	DD	FLAT:??_R3?$CEncrypt@H@@8
rdata$r	ENDS
;	COMDAT ??_7?$CEncrypt@H@@6B@
CONST	SEGMENT
??_7?$CEncrypt@H@@6B@ DD FLAT:??_R4?$CEncrypt@H@@6B@	; CEncrypt<int>::`vftable'
	DD	FLAT:??_E?$CEncrypt@H@@UAEPAXI@Z
; Function compile flags: /Ogsp
CONST	ENDS
;	COMDAT ??1?$CEncrypt@H@@UAE@XZ
_TEXT	SEGMENT
??1?$CEncrypt@H@@UAE@XZ PROC				; CEncrypt<int>::~CEncrypt<int>, COMDAT
; _this$ = ecx

; 127  : 	{

  00000	c7 01 00 00 00
	00		 mov	 DWORD PTR [ecx], OFFSET ??_7?$CEncrypt@H@@6B@

; 128  : 	}

  00006	83 c1 0c	 add	 ecx, 12			; 0000000cH
  00009	e9 00 00 00 00	 jmp	 ??1ccddaabb@@UAE@XZ	; ccddaabb::~ccddaabb
??1?$CEncrypt@H@@UAE@XZ ENDP				; CEncrypt<int>::~CEncrypt<int>
; Function compile flags: /Ogsp
_TEXT	ENDS
;	COMDAT ??_G?$CEncrypt@H@@UAEPAXI@Z
_TEXT	SEGMENT
___flags$ = 8						; size = 4
??_G?$CEncrypt@H@@UAEPAXI@Z PROC			; CEncrypt<int>::`scalar deleting destructor', COMDAT
; _this$ = ecx
  00000	55		 push	 ebp
  00001	8b ec		 mov	 ebp, esp
  00003	56		 push	 esi
  00004	8b f1		 mov	 esi, ecx
  00006	8d 4e 0c	 lea	 ecx, DWORD PTR [esi+12]
  00009	c7 06 00 00 00
	00		 mov	 DWORD PTR [esi], OFFSET ??_7?$CEncrypt@H@@6B@
  0000f	e8 00 00 00 00	 call	 ??1ccddaabb@@UAE@XZ	; ccddaabb::~ccddaabb
  00014	f6 45 08 01	 test	 BYTE PTR ___flags$[ebp], 1
  00018	74 07		 je	 SHORT $LN1@scalar@2
  0001a	56		 push	 esi
  0001b	e8 00 00 00 00	 call	 ??3@YAXPAX@Z		; operator delete
  00020	59		 pop	 ecx
$LN1@scalar@2:
  00021	8b c6		 mov	 eax, esi
  00023	5e		 pop	 esi
  00024	5d		 pop	 ebp
  00025	c2 04 00	 ret	 4
??_G?$CEncrypt@H@@UAEPAXI@Z ENDP			; CEncrypt<int>::`scalar deleting destructor'
_TEXT	ENDS
PUBLIC	??0?$allocator@H@std@@QAE@XZ			; std::allocator<int>::allocator<int>
; Function compile flags: /Ogsp
; File c:\program files (x86)\microsoft visual studio 10.0\vc\include\xmemory
;	COMDAT ??0?$allocator@H@std@@QAE@XZ
_TEXT	SEGMENT
??0?$allocator@H@std@@QAE@XZ PROC			; std::allocator<int>::allocator<int>, COMDAT
; _this$ = ecx

; 161  : 	_ALLOCATOR() _THROW0()

  00000	8b c1		 mov	 eax, ecx

; 162  : 		{	// construct default allocator (do nothing)
; 163  : 		}

  00002	c3		 ret	 0
??0?$allocator@H@std@@QAE@XZ ENDP			; std::allocator<int>::allocator<int>
_TEXT	ENDS
PUBLIC	??1?$_Vector_val@HV?$allocator@H@std@@@std@@QAE@XZ ; std::_Vector_val<int,std::allocator<int> >::~_Vector_val<int,std::allocator<int> >
; Function compile flags: /Ogsp
; File c:\program files (x86)\microsoft visual studio 10.0\vc\include\vector
;	COMDAT ??1?$_Vector_val@HV?$allocator@H@std@@@std@@QAE@XZ
_TEXT	SEGMENT
??1?$_Vector_val@HV?$allocator@H@std@@@std@@QAE@XZ PROC	; std::_Vector_val<int,std::allocator<int> >::~_Vector_val<int,std::allocator<int> >, COMDAT
; _this$ = ecx

; 434  : 		}

  00000	c3		 ret	 0
??1?$_Vector_val@HV?$allocator@H@std@@@std@@QAE@XZ ENDP	; std::_Vector_val<int,std::allocator<int> >::~_Vector_val<int,std::allocator<int> >
_TEXT	ENDS
PUBLIC	?EncryptValueToPool@?$CEncrypt@H@@AAEXPBD@Z	; CEncrypt<int>::EncryptValueToPool
EXTRN	?EncryptByte@ccddaabb@@QAEXPBDPADH@Z:PROC	; ccddaabb::EncryptByte
; Function compile flags: /Ogsp
; File d:\lost saga for developer\youtube\tutorial\source\src\lsclient\encryptvalue.h
;	COMDAT ?EncryptValueToPool@?$CEncrypt@H@@AAEXPBD@Z
_TEXT	SEGMENT
_value$ = 8						; size = 4
?EncryptValueToPool@?$CEncrypt@H@@AAEXPBD@Z PROC	; CEncrypt<int>::EncryptValueToPool, COMDAT
; _this$ = ecx

; 67   : 	{

  00000	55		 push	 ebp
  00001	8b ec		 mov	 ebp, esp

; 68   : 		m_RC5.EncryptByte( value, m_MemPool, max(m_ValueSize, DEFAULT_ENCRYPT) );

  00003	0f b7 41 06	 movzx	 eax, WORD PTR [ecx+6]
  00007	83 f8 04	 cmp	 eax, 4
  0000a	77 03		 ja	 SHORT $LN4@EncryptVal
  0000c	6a 04		 push	 4
  0000e	58		 pop	 eax
$LN4@EncryptVal:
  0000f	50		 push	 eax
  00010	8d 41 1c	 lea	 eax, DWORD PTR [ecx+28]
  00013	50		 push	 eax
  00014	ff 75 08	 push	 DWORD PTR _value$[ebp]
  00017	83 c1 0c	 add	 ecx, 12			; 0000000cH
  0001a	e8 00 00 00 00	 call	 ?EncryptByte@ccddaabb@@QAEXPBDPADH@Z ; ccddaabb::EncryptByte

; 69   : 		
; 70   : 	}

  0001f	5d		 pop	 ebp
  00020	c2 04 00	 ret	 4
?EncryptValueToPool@?$CEncrypt@H@@AAEXPBD@Z ENDP	; CEncrypt<int>::EncryptValueToPool
_TEXT	ENDS
PUBLIC	?Init@?$CEncrypt@H@@AAEXXZ			; CEncrypt<int>::Init
EXTRN	?Setup@ccddaabb@@QAEXPBDHH@Z:PROC		; ccddaabb::Setup
EXTRN	__imp__rand:PROC
EXTRN	__imp__timeGetTime@0:PROC
EXTRN	__imp__GetCurrentProcessId@0:PROC
; Function compile flags: /Ogsp
;	COMDAT ?Init@?$CEncrypt@H@@AAEXXZ
_TEXT	SEGMENT
_pid$ = -8						; size = 4
_tick$ = -4						; size = 4
?Init@?$CEncrypt@H@@AAEXXZ PROC				; CEncrypt<int>::Init, COMDAT
; _this$ = ecx

; 73   : 	{

  00000	55		 push	 ebp
  00001	8b ec		 mov	 ebp, esp
  00003	51		 push	 ecx
  00004	51		 push	 ecx
  00005	53		 push	 ebx
  00006	56		 push	 esi
  00007	57		 push	 edi
  00008	8b f1		 mov	 esi, ecx

; 74   : 		DWORD pid = GetCurrentProcessId();

  0000a	ff 15 00 00 00
	00		 call	 DWORD PTR __imp__GetCurrentProcessId@0
  00010	89 45 f8	 mov	 DWORD PTR _pid$[ebp], eax

; 75   : 		DWORD tick = timeGetTime();

  00013	ff 15 00 00 00
	00		 call	 DWORD PTR __imp__timeGetTime@0

; 76   : 		m_ValueSize    = sizeof(type);
; 77   : 		m_MemPoolPos   = (unsigned short)( rand()+pid+tick )%(MAX_MEM_POOL-m_ValueSize);

  00019	8b 3d 00 00 00
	00		 mov	 edi, DWORD PTR __imp__rand
  0001f	89 45 fc	 mov	 DWORD PTR _tick$[ebp], eax
  00022	6a 04		 push	 4
  00024	58		 pop	 eax
  00025	66 89 46 06	 mov	 WORD PTR [esi+6], ax
  00029	ff d7		 call	 edi
  0002b	03 45 f8	 add	 eax, DWORD PTR _pid$[ebp]
  0002e	0f b7 4e 06	 movzx	 ecx, WORD PTR [esi+6]
  00032	03 45 fc	 add	 eax, DWORD PTR _tick$[ebp]
  00035	6a 0c		 push	 12			; 0000000cH
  00037	0f b7 c0	 movzx	 eax, ax
  0003a	5b		 pop	 ebx
  0003b	99		 cdq
  0003c	2b d9		 sub	 ebx, ecx
  0003e	f7 fb		 idiv	 ebx
  00040	66 89 56 04	 mov	 WORD PTR [esi+4], dx

; 78   : 		m_EncryptSeed  = (char)( rand()+pid+tick )%256;

  00044	ff d7		 call	 edi
  00046	02 45 f8	 add	 al, BYTE PTR _pid$[ebp]
  00049	02 45 fc	 add	 al, BYTE PTR _tick$[ebp]
  0004c	0f be c0	 movsx	 eax, al
  0004f	25 ff 00 00 80	 and	 eax, -2147483393	; 800000ffH
  00054	79 07		 jns	 SHORT $LN8@Init
  00056	48		 dec	 eax
  00057	0d 00 ff ff ff	 or	 eax, -256		; ffffff00H
  0005c	40		 inc	 eax
$LN8@Init:
  0005d	88 46 08	 mov	 BYTE PTR [esi+8], al

; 79   : 
; 80   : 		for (int i = 0; i < MAX_MEM_POOL ; i++)

  00060	33 db		 xor	 ebx, ebx
$LL3@Init:

; 81   : 			m_MemPool[i] = (char)( rand()+pid+tick )%256; // 

  00062	ff d7		 call	 edi
  00064	02 45 f8	 add	 al, BYTE PTR _pid$[ebp]
  00067	02 45 fc	 add	 al, BYTE PTR _tick$[ebp]
  0006a	0f be c0	 movsx	 eax, al
  0006d	25 ff 00 00 80	 and	 eax, -2147483393	; 800000ffH
  00072	79 07		 jns	 SHORT $LN9@Init
  00074	48		 dec	 eax
  00075	0d 00 ff ff ff	 or	 eax, -256		; ffffff00H
  0007a	40		 inc	 eax
$LN9@Init:
  0007b	88 44 1e 1c	 mov	 BYTE PTR [esi+ebx+28], al
  0007f	43		 inc	 ebx
  00080	83 fb 0c	 cmp	 ebx, 12			; 0000000cH
  00083	7c dd		 jl	 SHORT $LL3@Init

; 82   : 
; 83   : 		//UJ 130913, : szKey  
; 84   : 		//char szKey[ccddaabb::KEY_SIZE];//="";
; 85   : 		//for (int i = 0; i < ccddaabb::KEY_SIZE  ; i++)
; 86   : 		//	szKey[i] = (char)( rand()+pid+tick )%256; // 
; 87   : 		m_RC5.Setup( NULL, pid, tick );

  00085	ff 75 fc	 push	 DWORD PTR _tick$[ebp]
  00088	8d 4e 0c	 lea	 ecx, DWORD PTR [esi+12]
  0008b	ff 75 f8	 push	 DWORD PTR _pid$[ebp]
  0008e	6a 00		 push	 0
  00090	e8 00 00 00 00	 call	 ?Setup@ccddaabb@@QAEXPBDHH@Z ; ccddaabb::Setup
  00095	5f		 pop	 edi
  00096	5e		 pop	 esi
  00097	5b		 pop	 ebx

; 88   : 
; 89   : #ifdef _NOTUSE
; 90   : 		m_value        = 0;
; 91   : 		EncryptValueToPool((char*)&m_value);
; 92   : 		Debug();
; 93   : #endif
; 94   : 	}

  00098	c9		 leave
  00099	c3		 ret	 0
?Init@?$CEncrypt@H@@AAEXXZ ENDP				; CEncrypt<int>::Init
_TEXT	ENDS
PUBLIC	?DecryptValueToPool@?$CEncrypt@H@@QAEXPAH@Z	; CEncrypt<int>::DecryptValueToPool
EXTRN	?DecryptByte@ccddaabb@@QBEXPBDPADH@Z:PROC	; ccddaabb::DecryptByte
; Function compile flags: /Ogsp
;	COMDAT ?DecryptValueToPool@?$CEncrypt@H@@QAEXPAH@Z
_TEXT	SEGMENT
_value$ = 8						; size = 4
?DecryptValueToPool@?$CEncrypt@H@@QAEXPAH@Z PROC	; CEncrypt<int>::DecryptValueToPool, COMDAT
; _this$ = ecx

; 837  : 	{

  00000	55		 push	 ebp
  00001	8b ec		 mov	 ebp, esp
  00003	56		 push	 esi

; 838  : 		m_RC5.DecryptByte( m_MemPool, m_TempMem, 4 );

  00004	8d 71 28	 lea	 esi, DWORD PTR [ecx+40]
  00007	6a 04		 push	 4
  00009	8d 41 1c	 lea	 eax, DWORD PTR [ecx+28]
  0000c	56		 push	 esi
  0000d	50		 push	 eax
  0000e	83 c1 0c	 add	 ecx, 12			; 0000000cH
  00011	e8 00 00 00 00	 call	 ?DecryptByte@ccddaabb@@QBEXPBDPADH@Z ; ccddaabb::DecryptByte

; 839  : 		*value = *((int*)m_TempMem);

  00016	8b 06		 mov	 eax, DWORD PTR [esi]
  00018	8b 4d 08	 mov	 ecx, DWORD PTR _value$[ebp]
  0001b	89 01		 mov	 DWORD PTR [ecx], eax
  0001d	5e		 pop	 esi

; 840  : 	}

  0001e	5d		 pop	 ebp
  0001f	c2 04 00	 ret	 4
?DecryptValueToPool@?$CEncrypt@H@@QAEXPAH@Z ENDP	; CEncrypt<int>::DecryptValueToPool
_TEXT	ENDS
PUBLIC	??0?$_Vector_const_iterator@V?$_Vector_val@HV?$allocator@H@std@@@std@@@std@@QAE@PAHPBU_Container_base0@1@@Z ; std::_Vector_const_iterator<std::_Vector_val<int,std::allocator<int> > >::_Vector_const_iterator<std::_Vector_val<int,std::allocator<int> > >
; Function compile flags: /Ogsp
; File c:\program files (x86)\microsoft visual studio 10.0\vc\include\vector
;	COMDAT ??0?$_Vector_const_iterator@V?$_Vector_val@HV?$allocator@H@std@@@std@@@std@@QAE@PAHPBU_Container_base0@1@@Z
_TEXT	SEGMENT
__Parg$ = 8						; size = 4
__Pvector$ = 12						; size = 4
??0?$_Vector_const_iterator@V?$_Vector_val@HV?$allocator@H@std@@@std@@@std@@QAE@PAHPBU_Container_base0@1@@Z PROC ; std::_Vector_const_iterator<std::_Vector_val<int,std::allocator<int> > >::_Vector_const_iterator<std::_Vector_val<int,std::allocator<int> > >, COMDAT
; _this$ = ecx

; 45   : 		{	// construct with pointer _Parg

  00000	55		 push	 ebp
  00001	8b ec		 mov	 ebp, esp
  00003	8b c1		 mov	 eax, ecx
  00005	8b 4d 08	 mov	 ecx, DWORD PTR __Parg$[ebp]
  00008	89 08		 mov	 DWORD PTR [eax], ecx

; 46   : 		this->_Adopt(_Pvector);
; 47   : 		}

  0000a	5d		 pop	 ebp
  0000b	c2 08 00	 ret	 8
??0?$_Vector_const_iterator@V?$_Vector_val@HV?$allocator@H@std@@@std@@@std@@QAE@PAHPBU_Container_base0@1@@Z ENDP ; std::_Vector_const_iterator<std::_Vector_val<int,std::allocator<int> > >::_Vector_const_iterator<std::_Vector_val<int,std::allocator<int> > >
_TEXT	ENDS
PUBLIC	??0?$_Vector_iterator@V?$_Vector_val@HV?$allocator@H@std@@@std@@@std@@QAE@PAHPBU_Container_base0@1@@Z ; std::_Vector_iterator<std::_Vector_val<int,std::allocator<int> > >::_Vector_iterator<std::_Vector_val<int,std::allocator<int> > >
; Function compile flags: /Ogsp
;	COMDAT ??0?$_Vector_iterator@V?$_Vector_val@HV?$allocator@H@std@@@std@@@std@@QAE@PAHPBU_Container_base0@1@@Z
_TEXT	SEGMENT
__Parg$ = 8						; size = 4
__Pvector$ = 12						; size = 4
??0?$_Vector_iterator@V?$_Vector_val@HV?$allocator@H@std@@@std@@@std@@QAE@PAHPBU_Container_base0@1@@Z PROC ; std::_Vector_iterator<std::_Vector_val<int,std::allocator<int> > >::_Vector_iterator<std::_Vector_val<int,std::allocator<int> > >, COMDAT
; _this$ = ecx

; 304  : 		{	// construct with pointer _Parg

  00000	55		 push	 ebp
  00001	8b ec		 mov	 ebp, esp
  00003	8b c1		 mov	 eax, ecx
  00005	8b 4d 08	 mov	 ecx, DWORD PTR __Parg$[ebp]
  00008	89 08		 mov	 DWORD PTR [eax], ecx

; 305  : 		}

  0000a	5d		 pop	 ebp
  0000b	c2 08 00	 ret	 8
??0?$_Vector_iterator@V?$_Vector_val@HV?$allocator@H@std@@@std@@@std@@QAE@PAHPBU_Container_base0@1@@Z ENDP ; std::_Vector_iterator<std::_Vector_val<int,std::allocator<int> > >::_Vector_iterator<std::_Vector_val<int,std::allocator<int> > >
_TEXT	ENDS
PUBLIC	??0?$allocator@H@std@@QAE@ABV01@@Z		; std::allocator<int>::allocator<int>
; Function compile flags: /Ogsp
; File c:\program files (x86)\microsoft visual studio 10.0\vc\include\xmemory
;	COMDAT ??0?$allocator@H@std@@QAE@ABV01@@Z
_TEXT	SEGMENT
___formal$ = 8						; size = 4
??0?$allocator@H@std@@QAE@ABV01@@Z PROC			; std::allocator<int>::allocator<int>, COMDAT
; _this$ = ecx

; 165  : 	_ALLOCATOR(const _ALLOCATOR<_Ty>&) _THROW0()

  00000	8b c1		 mov	 eax, ecx

; 166  : 		{	// construct by copying (do nothing)
; 167  : 		}

  00002	c2 04 00	 ret	 4
??0?$allocator@H@std@@QAE@ABV01@@Z ENDP			; std::allocator<int>::allocator<int>
_TEXT	ENDS
PUBLIC	?deallocate@?$allocator@H@std@@QAEXPAHI@Z	; std::allocator<int>::deallocate
; Function compile flags: /Ogsp
;	COMDAT ?deallocate@?$allocator@H@std@@QAEXPAHI@Z
_TEXT	SEGMENT
__Ptr$ = 8						; size = 4
___formal$ = 12						; size = 4
?deallocate@?$allocator@H@std@@QAEXPAHI@Z PROC		; std::allocator<int>::deallocate, COMDAT
; _this$ = ecx

; 181  : 		{	// deallocate object at _Ptr, ignore size

  00000	55		 push	 ebp
  00001	8b ec		 mov	 ebp, esp

; 182  : 		::operator delete(_Ptr);

  00003	ff 75 08	 push	 DWORD PTR __Ptr$[ebp]
  00006	e8 00 00 00 00	 call	 ??3@YAXPAX@Z		; operator delete
  0000b	59		 pop	 ecx

; 183  : 		}

  0000c	5d		 pop	 ebp
  0000d	c2 08 00	 ret	 8
?deallocate@?$allocator@H@std@@QAEXPAHI@Z ENDP		; std::allocator<int>::deallocate
_TEXT	ENDS
PUBLIC	?capacity@?$vector@HV?$allocator@H@std@@@std@@QBEIXZ ; std::vector<int,std::allocator<int> >::capacity
; Function compile flags: /Ogsp
; File c:\program files (x86)\microsoft visual studio 10.0\vc\include\vector
;	COMDAT ?capacity@?$vector@HV?$allocator@H@std@@@std@@QBEIXZ
_TEXT	SEGMENT
?capacity@?$vector@HV?$allocator@H@std@@@std@@QBEIXZ PROC ; std::vector<int,std::allocator<int> >::capacity, COMDAT
; _this$ = ecx

; 777  : 		return (this->_Myend - this->_Myfirst);

  00000	8b 41 08	 mov	 eax, DWORD PTR [ecx+8]
  00003	2b 01		 sub	 eax, DWORD PTR [ecx]
  00005	c1 f8 02	 sar	 eax, 2

; 778  : 		}

  00008	c3		 ret	 0
?capacity@?$vector@HV?$allocator@H@std@@@std@@QBEIXZ ENDP ; std::vector<int,std::allocator<int> >::capacity
_TEXT	ENDS
PUBLIC	?_Make_iter@?$vector@HV?$allocator@H@std@@@std@@QBE?AV?$_Vector_iterator@V?$_Vector_val@HV?$allocator@H@std@@@std@@@2@V?$_Vector_const_iterator@V?$_Vector_val@HV?$allocator@H@std@@@std@@@2@@Z ; std::vector<int,std::allocator<int> >::_Make_iter
; Function compile flags: /Ogsp
;	COMDAT ?_Make_iter@?$vector@HV?$allocator@H@std@@@std@@QBE?AV?$_Vector_iterator@V?$_Vector_val@HV?$allocator@H@std@@@std@@@2@V?$_Vector_const_iterator@V?$_Vector_val@HV?$allocator@H@std@@@std@@@2@@Z
_TEXT	SEGMENT
___$ReturnUdt$ = 8					; size = 4
__Where$ = 12						; size = 4
?_Make_iter@?$vector@HV?$allocator@H@std@@@std@@QBE?AV?$_Vector_iterator@V?$_Vector_val@HV?$allocator@H@std@@@std@@@2@V?$_Vector_const_iterator@V?$_Vector_val@HV?$allocator@H@std@@@std@@@2@@Z PROC ; std::vector<int,std::allocator<int> >::_Make_iter, COMDAT
; _this$ = ecx

; 801  : 		{	// make iterator from const_iterator

  00000	55		 push	 ebp
  00001	8b ec		 mov	 ebp, esp

; 802  : 		return (iterator(_Where._Ptr, this));

  00003	8b 45 08	 mov	 eax, DWORD PTR ___$ReturnUdt$[ebp]
  00006	8b 4d 0c	 mov	 ecx, DWORD PTR __Where$[ebp]
  00009	89 08		 mov	 DWORD PTR [eax], ecx

; 803  : 		}

  0000b	5d		 pop	 ebp
  0000c	c2 08 00	 ret	 8
?_Make_iter@?$vector@HV?$allocator@H@std@@@std@@QBE?AV?$_Vector_iterator@V?$_Vector_val@HV?$allocator@H@std@@@std@@@2@V?$_Vector_const_iterator@V?$_Vector_val@HV?$allocator@H@std@@@std@@@2@@Z ENDP ; std::vector<int,std::allocator<int> >::_Make_iter
_TEXT	ENDS
PUBLIC	??_C@_0BD@OLBABOEK@vector?$DMT?$DO?5too?5long?$AA@ ; `string'
PUBLIC	?_Xlen@?$vector@HV?$allocator@H@std@@@std@@IBEXXZ ; std::vector<int,std::allocator<int> >::_Xlen
EXTRN	__imp_?_Xlength_error@std@@YAXPBD@Z:PROC
;	COMDAT ??_C@_0BD@OLBABOEK@vector?$DMT?$DO?5too?5long?$AA@
CONST	SEGMENT
??_C@_0BD@OLBABOEK@vector?$DMT?$DO?5too?5long?$AA@ DB 'vector<T> too long'
	DB	00H						; `string'
; Function compile flags: /Ogsp
CONST	ENDS
;	COMDAT ?_Xlen@?$vector@HV?$allocator@H@std@@@std@@IBEXXZ
_TEXT	SEGMENT
?_Xlen@?$vector@HV?$allocator@H@std@@@std@@IBEXXZ PROC	; std::vector<int,std::allocator<int> >::_Xlen, COMDAT
; _this$ = ecx

; 1427 : 		_Xlength_error("vector<T> too long");

  00000	68 00 00 00 00	 push	 OFFSET ??_C@_0BD@OLBABOEK@vector?$DMT?$DO?5too?5long?$AA@
  00005	ff 15 00 00 00
	00		 call	 DWORD PTR __imp_?_Xlength_error@std@@YAXPBD@Z
$LN4@Xlen:
$LN3@Xlen:
  0000b	cc		 int	 3
?_Xlen@?$vector@HV?$allocator@H@std@@@std@@IBEXXZ ENDP	; std::vector<int,std::allocator<int> >::_Xlen
_TEXT	ENDS
PUBLIC	?max_size@?$allocator@H@std@@QBEIXZ		; std::allocator<int>::max_size
; Function compile flags: /Ogsp
; File c:\program files (x86)\microsoft visual studio 10.0\vc\include\xmemory
;	COMDAT ?max_size@?$allocator@H@std@@QBEIXZ
_TEXT	SEGMENT
?max_size@?$allocator@H@std@@QBEIXZ PROC		; std::allocator<int>::max_size, COMDAT
; _this$ = ecx

; 218  : 		_SIZT _Count = (_SIZT)(-1) / sizeof (_Ty);
; 219  : 		return (0 < _Count ? _Count : 1);

  00000	b8 ff ff ff 3f	 mov	 eax, 1073741823		; 3fffffffH

; 220  : 		}

  00005	c3		 ret	 0
?max_size@?$allocator@H@std@@QBEIXZ ENDP		; std::allocator<int>::max_size
_TEXT	ENDS
PUBLIC	?_Compat@?$_Vector_const_iterator@V?$_Vector_val@HV?$allocator@H@std@@@std@@@std@@QBEXABV12@@Z ; std::_Vector_const_iterator<std::_Vector_val<int,std::allocator<int> > >::_Compat
; Function compile flags: /Ogsp
; File c:\program files (x86)\microsoft visual studio 10.0\vc\include\vector
;	COMDAT ?_Compat@?$_Vector_const_iterator@V?$_Vector_val@HV?$allocator@H@std@@@std@@@std@@QBEXABV12@@Z
_TEXT	SEGMENT
___formal$ = 8						; size = 4
?_Compat@?$_Vector_const_iterator@V?$_Vector_val@HV?$allocator@H@std@@@std@@@std@@QBEXABV12@@Z PROC ; std::_Vector_const_iterator<std::_Vector_val<int,std::allocator<int> > >::_Compat, COMDAT
; _this$ = ecx

; 253  : 		}

  00000	c2 04 00	 ret	 4
?_Compat@?$_Vector_const_iterator@V?$_Vector_val@HV?$allocator@H@std@@@std@@@std@@QBEXABV12@@Z ENDP ; std::_Vector_const_iterator<std::_Vector_val<int,std::allocator<int> > >::_Compat
_TEXT	ENDS
PUBLIC	__TI2?AVbad_alloc@std@@
PUBLIC	??$_Allocate@H@std@@YAPAHIPAH@Z			; std::_Allocate<int>
PUBLIC	__CTA2?AVbad_alloc@std@@
PUBLIC	__CT??_R0?AVbad_alloc@std@@@8??0bad_alloc@std@@QAE@ABV01@@Z12
PUBLIC	??0bad_alloc@std@@QAE@ABV01@@Z			; std::bad_alloc::bad_alloc
PUBLIC	__CT??_R0?AVexception@std@@@8??0exception@std@@QAE@ABV01@@Z12
EXTRN	??2@YAPAXI@Z:PROC				; operator new
EXTRN	__CxxThrowException@8:PROC
EXTRN	??0exception@std@@QAE@ABV01@@Z:PROC		; std::exception::exception
;	COMDAT __CT??_R0?AVexception@std@@@8??0exception@std@@QAE@ABV01@@Z12
; File c:\program files (x86)\microsoft visual studio 10.0\vc\include\exception
xdata$x	SEGMENT
__CT??_R0?AVexception@std@@@8??0exception@std@@QAE@ABV01@@Z12 DD 00H
	DD	FLAT:??_R0?AVexception@std@@@8
	DD	00H
	DD	0ffffffffH
	ORG $+4
	DD	0cH
	DD	FLAT:??0exception@std@@QAE@ABV01@@Z
xdata$x	ENDS
;	COMDAT __CT??_R0?AVbad_alloc@std@@@8??0bad_alloc@std@@QAE@ABV01@@Z12
xdata$x	SEGMENT
__CT??_R0?AVbad_alloc@std@@@8??0bad_alloc@std@@QAE@ABV01@@Z12 DD 00H
	DD	FLAT:??_R0?AVbad_alloc@std@@@8
	DD	00H
	DD	0ffffffffH
	ORG $+4
	DD	0cH
	DD	FLAT:??0bad_alloc@std@@QAE@ABV01@@Z
xdata$x	ENDS
;	COMDAT __CTA2?AVbad_alloc@std@@
xdata$x	SEGMENT
__CTA2?AVbad_alloc@std@@ DD 02H
	DD	FLAT:__CT??_R0?AVbad_alloc@std@@@8??0bad_alloc@std@@QAE@ABV01@@Z12
	DD	FLAT:__CT??_R0?AVexception@std@@@8??0exception@std@@QAE@ABV01@@Z12
xdata$x	ENDS
;	COMDAT __TI2?AVbad_alloc@std@@
xdata$x	SEGMENT
__TI2?AVbad_alloc@std@@ DD 00H
	DD	FLAT:??1bad_alloc@std@@UAE@XZ
	DD	00H
	DD	FLAT:__CTA2?AVbad_alloc@std@@
; Function compile flags: /Ogsp
; File c:\program files (x86)\microsoft visual studio 10.0\vc\include\xmemory
xdata$x	ENDS
;	COMDAT ??$_Allocate@H@std@@YAPAHIPAH@Z
_TEXT	SEGMENT
$T542304 = -12						; size = 12
$T542309 = 8						; size = 4
__Count$ = 8						; size = 4
___formal$ = 12						; size = 4
??$_Allocate@H@std@@YAPAHIPAH@Z PROC			; std::_Allocate<int>, COMDAT

; 30   : 	{	// allocate storage for _Count elements of type _Ty

  00000	55		 push	 ebp
  00001	8b ec		 mov	 ebp, esp

; 31   : 	void *_Ptr = 0;
; 32   : 
; 33   : 	if (_Count <= 0)

  00003	8b 4d 08	 mov	 ecx, DWORD PTR __Count$[ebp]
  00006	83 ec 0c	 sub	 esp, 12			; 0000000cH
  00009	33 c0		 xor	 eax, eax
  0000b	85 c9		 test	 ecx, ecx

; 34   : 		_Count = 0;
; 35   : 	else if (((_SIZT)(-1) / sizeof (_Ty) < _Count)

  0000d	74 3e		 je	 SHORT $LN5@Allocate

; 36   : 		|| (_Ptr = ::operator new(_Count * sizeof (_Ty))) == 0)

  0000f	81 f9 ff ff ff
	3f		 cmp	 ecx, 1073741823		; 3fffffffH
  00015	77 10		 ja	 SHORT $LN1@Allocate
  00017	8b c1		 mov	 eax, ecx
  00019	c1 e0 02	 shl	 eax, 2
  0001c	50		 push	 eax
  0001d	e8 00 00 00 00	 call	 ??2@YAPAXI@Z		; operator new
  00022	59		 pop	 ecx
  00023	85 c0		 test	 eax, eax

; 38   : 
; 39   : 	return ((_Ty _FARQ *)_Ptr);

  00025	75 26		 jne	 SHORT $LN5@Allocate
$LN1@Allocate:

; 37   : 		_THROW_NCEE(bad_alloc, 0);

  00027	83 65 08 00	 and	 DWORD PTR $T542309[ebp], 0
  0002b	8d 45 08	 lea	 eax, DWORD PTR $T542309[ebp]
  0002e	50		 push	 eax
  0002f	8d 4d f4	 lea	 ecx, DWORD PTR $T542304[ebp]
  00032	ff 15 00 00 00
	00		 call	 DWORD PTR __imp_??0exception@std@@QAE@ABQBD@Z
  00038	68 00 00 00 00	 push	 OFFSET __TI2?AVbad_alloc@std@@
  0003d	8d 45 f4	 lea	 eax, DWORD PTR $T542304[ebp]
  00040	50		 push	 eax
  00041	c7 45 f4 00 00
	00 00		 mov	 DWORD PTR $T542304[ebp], OFFSET ??_7bad_alloc@std@@6B@
  00048	e8 00 00 00 00	 call	 __CxxThrowException@8
$LN10@Allocate:
$LN5@Allocate:

; 40   : 	}

  0004d	c9		 leave
  0004e	c3		 ret	 0
$LN9@Allocate:
??$_Allocate@H@std@@YAPAHIPAH@Z ENDP			; std::_Allocate<int>
_TEXT	ENDS
EXTRN	__imp_??0exception@std@@QAE@ABV01@@Z:PROC
; Function compile flags: /Ogsp
;	COMDAT ??0bad_alloc@std@@QAE@ABV01@@Z
_TEXT	SEGMENT
___that$ = 8						; size = 4
??0bad_alloc@std@@QAE@ABV01@@Z PROC			; std::bad_alloc::bad_alloc, COMDAT
; _this$ = ecx
  00000	55		 push	 ebp
  00001	8b ec		 mov	 ebp, esp
  00003	56		 push	 esi
  00004	ff 75 08	 push	 DWORD PTR ___that$[ebp]
  00007	8b f1		 mov	 esi, ecx
  00009	ff 15 00 00 00
	00		 call	 DWORD PTR __imp_??0exception@std@@QAE@ABV01@@Z
  0000f	c7 06 00 00 00
	00		 mov	 DWORD PTR [esi], OFFSET ??_7bad_alloc@std@@6B@
  00015	8b c6		 mov	 eax, esi
  00017	5e		 pop	 esi
  00018	5d		 pop	 ebp
  00019	c2 04 00	 ret	 4
??0bad_alloc@std@@QAE@ABV01@@Z ENDP			; std::bad_alloc::bad_alloc
_TEXT	ENDS
PUBLIC	??$_Move@AAH@std@@YA$$QAHAAH@Z			; std::_Move<int &>
; Function compile flags: /Ogsp
; File c:\program files (x86)\microsoft visual studio 10.0\vc\include\utility
;	COMDAT ??$_Move@AAH@std@@YA$$QAHAAH@Z
_TEXT	SEGMENT
__Arg$ = 8						; size = 4
??$_Move@AAH@std@@YA$$QAHAAH@Z PROC			; std::_Move<int &>, COMDAT

; 94   : 	{	// forward _Arg as movable

  00000	55		 push	 ebp
  00001	8b ec		 mov	 ebp, esp

; 95   : 	return ((typename tr1::_Remove_reference<_Ty>::_Type&&)_Arg);

  00003	8b 45 08	 mov	 eax, DWORD PTR __Arg$[ebp]

; 96   : 	}

  00006	5d		 pop	 ebp
  00007	c3		 ret	 0
??$_Move@AAH@std@@YA$$QAHAAH@Z ENDP			; std::_Move<int &>
_TEXT	ENDS
PUBLIC	??$forward@AAH@std@@YAAAHAAH@Z			; std::forward<int &>
; Function compile flags: /Ogsp
;	COMDAT ??$forward@AAH@std@@YAAAHAAH@Z
_TEXT	SEGMENT
__Arg$ = 8						; size = 4
??$forward@AAH@std@@YAAAHAAH@Z PROC			; std::forward<int &>, COMDAT

; 78   : 	{	// forward _Arg, given explicitly specified type parameter

  00000	55		 push	 ebp
  00001	8b ec		 mov	 ebp, esp

; 79   : 	return ((_Ty&&)_Arg);

  00003	8b 45 08	 mov	 eax, DWORD PTR __Arg$[ebp]

; 80   : 	}

  00006	5d		 pop	 ebp
  00007	c3		 ret	 0
??$forward@AAH@std@@YAAAHAAH@Z ENDP			; std::forward<int &>
_TEXT	ENDS
PUBLIC	??$_Val_type@PAH@std@@YAPAHPAH@Z		; std::_Val_type<int *>
; Function compile flags: /Ogsp
; File c:\program files (x86)\microsoft visual studio 10.0\vc\include\xutility
;	COMDAT ??$_Val_type@PAH@std@@YAPAHPAH@Z
_TEXT	SEGMENT
___formal$ = 8						; size = 4
??$_Val_type@PAH@std@@YAPAHPAH@Z PROC			; std::_Val_type<int *>, COMDAT

; 790  : 	return (0);

  00000	33 c0		 xor	 eax, eax

; 791  : 	}

  00002	c3		 ret	 0
??$_Val_type@PAH@std@@YAPAHPAH@Z ENDP			; std::_Val_type<int *>
_TEXT	ENDS
PUBLIC	??$_Ptr_cat@HH@std@@YA?AU_Scalar_ptr_iterator_tag@0@PAH0@Z ; std::_Ptr_cat<int,int>
; Function compile flags: /Ogsp
;	COMDAT ??$_Ptr_cat@HH@std@@YA?AU_Scalar_ptr_iterator_tag@0@PAH0@Z
_TEXT	SEGMENT
__Cat$ = -1						; size = 1
___formal$ = 8						; size = 4
___formal$ = 12						; size = 4
??$_Ptr_cat@HH@std@@YA?AU_Scalar_ptr_iterator_tag@0@PAH0@Z PROC ; std::_Ptr_cat<int,int>, COMDAT

; 516  : 	{	// return pointer category from pointers

  00000	55		 push	 ebp
  00001	8b ec		 mov	 ebp, esp
  00003	51		 push	 ecx

; 517  : 	typename _Ptr_cat_helper<_Elem1, _Elem2>::_Type _Cat;
; 518  : 	return (_Cat);

  00004	8a 45 ff	 mov	 al, BYTE PTR __Cat$[ebp]

; 519  : 	}

  00007	c9		 leave
  00008	c3		 ret	 0
??$_Ptr_cat@HH@std@@YA?AU_Scalar_ptr_iterator_tag@0@PAH0@Z ENDP ; std::_Ptr_cat<int,int>
_TEXT	ENDS
PUBLIC	??$_Move@PAHPAH@std@@YAPAHPAH00U_Scalar_ptr_iterator_tag@0@@Z ; std::_Move<int *,int *>
; Function compile flags: /Ogsp
;	COMDAT ??$_Move@PAHPAH@std@@YAPAHPAH00U_Scalar_ptr_iterator_tag@0@@Z
_TEXT	SEGMENT
__First$ = 8						; size = 4
__Last$ = 12						; size = 4
__Dest$ = 16						; size = 4
___formal$ = 20						; size = 1
??$_Move@PAHPAH@std@@YAPAHPAH00U_Scalar_ptr_iterator_tag@0@@Z PROC ; std::_Move<int *,int *>, COMDAT

; 2522 : 	{	// move [_First, _Last) to [_Dest, ...), pointers to scalars

  00000	55		 push	 ebp
  00001	8b ec		 mov	 ebp, esp
  00003	56		 push	 esi

; 2523 : 	ptrdiff_t _Count = _Last - _First;

  00004	8b 75 0c	 mov	 esi, DWORD PTR __Last$[ebp]
  00007	2b 75 08	 sub	 esi, DWORD PTR __First$[ebp]
  0000a	57		 push	 edi

; 2524 : 	_CSTD memmove(&*_Dest, &*_First,
; 2525 : 		_Count * sizeof (*_First));

  0000b	8b 7d 10	 mov	 edi, DWORD PTR __Dest$[ebp]
  0000e	c1 fe 02	 sar	 esi, 2
  00011	c1 e6 02	 shl	 esi, 2
  00014	56		 push	 esi
  00015	ff 75 08	 push	 DWORD PTR __First$[ebp]
  00018	57		 push	 edi
  00019	ff 15 00 00 00
	00		 call	 DWORD PTR __imp__memmove
  0001f	83 c4 0c	 add	 esp, 12			; 0000000cH

; 2526 : 	return (_Dest + _Count);

  00022	8d 04 3e	 lea	 eax, DWORD PTR [esi+edi]
  00025	5f		 pop	 edi
  00026	5e		 pop	 esi

; 2527 : 	}

  00027	5d		 pop	 ebp
  00028	c3		 ret	 0
??$_Move@PAHPAH@std@@YAPAHPAH00U_Scalar_ptr_iterator_tag@0@@Z ENDP ; std::_Move<int *,int *>
_TEXT	ENDS
PUBLIC	??$_Destroy_range@V?$allocator@H@std@@@std@@YAXPAH0AAV?$allocator@H@0@U_Scalar_ptr_iterator_tag@0@@Z ; std::_Destroy_range<std::allocator<int> >
; Function compile flags: /Ogsp
; File c:\program files (x86)\microsoft visual studio 10.0\vc\include\xmemory
;	COMDAT ??$_Destroy_range@V?$allocator@H@std@@@std@@YAXPAH0AAV?$allocator@H@0@U_Scalar_ptr_iterator_tag@0@@Z
_TEXT	SEGMENT
__First$ = 8						; size = 4
__Last$ = 12						; size = 4
__Al$ = 16						; size = 4
___formal$ = 20						; size = 1
??$_Destroy_range@V?$allocator@H@std@@@std@@YAXPAH0AAV?$allocator@H@0@U_Scalar_ptr_iterator_tag@0@@Z PROC ; std::_Destroy_range<std::allocator<int> >, COMDAT

; 105  : 	}

  00000	c3		 ret	 0
??$_Destroy_range@V?$allocator@H@std@@@std@@YAXPAH0AAV?$allocator@H@0@U_Scalar_ptr_iterator_tag@0@@Z ENDP ; std::_Destroy_range<std::allocator<int> >
_TEXT	ENDS
PUBLIC	?_Unchecked@?$_Vector_iterator@V?$_Vector_val@HV?$allocator@H@std@@@std@@@std@@QBEPAHXZ ; std::_Vector_iterator<std::_Vector_val<int,std::allocator<int> > >::_Unchecked
; Function compile flags: /Ogsp
; File c:\program files (x86)\microsoft visual studio 10.0\vc\include\vector
;	COMDAT ?_Unchecked@?$_Vector_iterator@V?$_Vector_val@HV?$allocator@H@std@@@std@@@std@@QBEPAHXZ
_TEXT	SEGMENT
?_Unchecked@?$_Vector_iterator@V?$_Vector_val@HV?$allocator@H@std@@@std@@@std@@QBEPAHXZ PROC ; std::_Vector_iterator<std::_Vector_val<int,std::allocator<int> > >::_Unchecked, COMDAT
; _this$ = ecx

; 317  : 		return (_Unchecked_type(this->_Ptr));

  00000	8b 01		 mov	 eax, DWORD PTR [ecx]

; 318  : 		}

  00002	c3		 ret	 0
?_Unchecked@?$_Vector_iterator@V?$_Vector_val@HV?$allocator@H@std@@@std@@@std@@QBEPAHXZ ENDP ; std::_Vector_iterator<std::_Vector_val<int,std::allocator<int> > >::_Unchecked
_TEXT	ENDS
PUBLIC	??$_Uninit_move@HHH@std@@YAPAHPAH00AAV?$allocator@H@0@0U_Scalar_ptr_iterator_tag@0@@Z ; std::_Uninit_move<int,int,int>
; Function compile flags: /Ogsp
; File c:\program files (x86)\microsoft visual studio 10.0\vc\include\memory
;	COMDAT ??$_Uninit_move@HHH@std@@YAPAHPAH00AAV?$allocator@H@0@0U_Scalar_ptr_iterator_tag@0@@Z
_TEXT	SEGMENT
__First$ = 8						; size = 4
__Last$ = 12						; size = 4
__Dest$ = 16						; size = 4
___formal$ = 20						; size = 4
___formal$ = 24						; size = 4
___formal$ = 28						; size = 1
??$_Uninit_move@HHH@std@@YAPAHPAH00AAV?$allocator@H@0@0U_Scalar_ptr_iterator_tag@0@@Z PROC ; std::_Uninit_move<int,int,int>, COMDAT

; 456  : 	{	// move [_First, _Last) to raw _Dest, scalar type

  00000	55		 push	 ebp
  00001	8b ec		 mov	 ebp, esp
  00003	56		 push	 esi

; 457  : 	_DEBUG_RANGE(_First, _Last);
; 458  : 	_DEBUG_POINTER(_Dest);
; 459  : 	size_t _Count = (size_t)(_Last - _First);

  00004	8b 75 0c	 mov	 esi, DWORD PTR __Last$[ebp]
  00007	2b 75 08	 sub	 esi, DWORD PTR __First$[ebp]
  0000a	c1 fe 02	 sar	 esi, 2

; 460  : 	return ((_Ty2 *)_CSTD memmove(&*_Dest, &*_First,
; 461  : 		_Count * sizeof (*_First)) + _Count);	// NB: non-overlapping move

  0000d	c1 e6 02	 shl	 esi, 2
  00010	56		 push	 esi
  00011	ff 75 08	 push	 DWORD PTR __First$[ebp]
  00014	ff 75 10	 push	 DWORD PTR __Dest$[ebp]
  00017	ff 15 00 00 00
	00		 call	 DWORD PTR __imp__memmove
  0001d	83 c4 0c	 add	 esp, 12			; 0000000cH
  00020	03 c6		 add	 eax, esi
  00022	5e		 pop	 esi

; 462  : 	}

  00023	5d		 pop	 ebp
  00024	c3		 ret	 0
??$_Uninit_move@HHH@std@@YAPAHPAH00AAV?$allocator@H@0@0U_Scalar_ptr_iterator_tag@0@@Z ENDP ; std::_Uninit_move<int,int,int>
_TEXT	ENDS
PUBLIC	??$forward@H@std@@YA$$QAHAAH@Z			; std::forward<int>
; Function compile flags: /Ogsp
; File c:\program files (x86)\microsoft visual studio 10.0\vc\include\utility
;	COMDAT ??$forward@H@std@@YA$$QAHAAH@Z
_TEXT	SEGMENT
__Arg$ = 8						; size = 4
??$forward@H@std@@YA$$QAHAAH@Z PROC			; std::forward<int>, COMDAT

; 78   : 	{	// forward _Arg, given explicitly specified type parameter

  00000	55		 push	 ebp
  00001	8b ec		 mov	 ebp, esp

; 79   : 	return ((_Ty&&)_Arg);

  00003	8b 45 08	 mov	 eax, DWORD PTR __Arg$[ebp]

; 80   : 	}

  00006	5d		 pop	 ebp
  00007	c3		 ret	 0
??$forward@H@std@@YA$$QAHAAH@Z ENDP			; std::forward<int>
_TEXT	ENDS
PUBLIC	??_R0?AVioExcavationItem@@@8			; ioExcavationItem `RTTI Type Descriptor'
PUBLIC	?ToExcavationItem@@YAPAVioExcavationItem@@PAVioItem@@@Z ; ToExcavationItem
;	COMDAT ??_R0?AVioExcavationItem@@@8
; File d:\lost saga for developer\youtube\tutorial\source\src\lsclient\ioexcavationitem.h
_DATA	SEGMENT
??_R0?AVioExcavationItem@@@8 DD FLAT:??_7type_info@@6B@	; ioExcavationItem `RTTI Type Descriptor'
	DD	00H
	DB	'.?AVioExcavationItem@@', 00H
; Function compile flags: /Ogsp
_DATA	ENDS
;	COMDAT ?ToExcavationItem@@YAPAVioExcavationItem@@PAVioItem@@@Z
_TEXT	SEGMENT
_pItem$ = 8						; size = 4
?ToExcavationItem@@YAPAVioExcavationItem@@PAVioItem@@@Z PROC ; ToExcavationItem, COMDAT

; 83   : {

  00000	55		 push	 ebp
  00001	8b ec		 mov	 ebp, esp
  00003	56		 push	 esi

; 84   : 	ioObjectItem *pObject = ToObjectItem( pItem );

  00004	ff 75 08	 push	 DWORD PTR _pItem$[ebp]
  00007	e8 00 00 00 00	 call	 ?ToObjectItem@@YAPAVioObjectItem@@PAVioItem@@@Z ; ToObjectItem
  0000c	8b f0		 mov	 esi, eax
  0000e	59		 pop	 ecx

; 85   : 	if( !pObject || pObject->GetObjectSubType() != ioObjectItem::OST_EXCAVATION )

  0000f	85 f6		 test	 esi, esi
  00011	74 28		 je	 SHORT $LN1@ToExcavati
  00013	8b 06		 mov	 eax, DWORD PTR [esi]
  00015	8b ce		 mov	 ecx, esi
  00017	ff 90 04 03 00
	00		 call	 DWORD PTR [eax+772]
  0001d	83 f8 03	 cmp	 eax, 3
  00020	75 19		 jne	 SHORT $LN1@ToExcavati

; 87   : 
; 88   : 	return dynamic_cast< ioExcavationItem* >( pObject );

  00022	6a 00		 push	 0
  00024	68 00 00 00 00	 push	 OFFSET ??_R0?AVioExcavationItem@@@8
  00029	68 00 00 00 00	 push	 OFFSET ??_R0?AVioObjectItem@@@8
  0002e	6a 00		 push	 0
  00030	56		 push	 esi
  00031	e8 00 00 00 00	 call	 ___RTDynamicCast
  00036	83 c4 14	 add	 esp, 20			; 00000014H
  00039	eb 02		 jmp	 SHORT $LN3@ToExcavati
$LN1@ToExcavati:

; 86   : 		return NULL;

  0003b	33 c0		 xor	 eax, eax
$LN3@ToExcavati:
  0003d	5e		 pop	 esi

; 89   : }

  0003e	5d		 pop	 ebp
  0003f	c3		 ret	 0
?ToExcavationItem@@YAPAVioExcavationItem@@PAVioItem@@@Z ENDP ; ToExcavationItem
; Function compile flags: /Ogsp
_TEXT	ENDS
;	COMDAT ??_GExcavationResultWnd@@UAEPAXI@Z
_TEXT	SEGMENT
___flags$ = 8						; size = 4
??_GExcavationResultWnd@@UAEPAXI@Z PROC			; ExcavationResultWnd::`scalar deleting destructor', COMDAT
; _this$ = ecx
  00000	55		 push	 ebp
  00001	8b ec		 mov	 ebp, esp
  00003	56		 push	 esi
  00004	8b f1		 mov	 esi, ecx
  00006	e8 00 00 00 00	 call	 ??1ExcavationResultWnd@@UAE@XZ ; ExcavationResultWnd::~ExcavationResultWnd
  0000b	f6 45 08 01	 test	 BYTE PTR ___flags$[ebp], 1
  0000f	74 07		 je	 SHORT $LN1@scalar@3
  00011	56		 push	 esi
  00012	e8 00 00 00 00	 call	 ??3@YAXPAX@Z		; operator delete
  00017	59		 pop	 ecx
$LN1@scalar@3:
  00018	8b c6		 mov	 eax, esi
  0001a	5e		 pop	 esi
  0001b	5d		 pop	 ebp
  0001c	c2 04 00	 ret	 4
??_GExcavationResultWnd@@UAEPAXI@Z ENDP			; ExcavationResultWnd::`scalar deleting destructor'
_TEXT	ENDS
PUBLIC	??_R0?AVExcavationSearchingWnd@@@8		; ExcavationSearchingWnd `RTTI Type Descriptor'
EXTRN	?NoticeLevelAndExp@ioExcavationManager@@QAEXXZ:PROC ; ioExcavationManager::NoticeLevelAndExp
EXTRN	?GetSingleton@ioExcavationManager@@SAAAV1@XZ:PROC ; ioExcavationManager::GetSingleton
;	COMDAT ??_R0?AVExcavationSearchingWnd@@@8
; File d:\lost saga for developer\youtube\tutorial\source\src\lsclient\gui\excavationwnd.cpp
_DATA	SEGMENT
??_R0?AVExcavationSearchingWnd@@@8 DD FLAT:??_7type_info@@6B@ ; ExcavationSearchingWnd `RTTI Type Descriptor'
	DD	00H
	DB	'.?AVExcavationSearchingWnd@@', 00H
; Function compile flags: /Ogsp
_DATA	ENDS
;	COMDAT ?iwm_hide@ExcavationResultWnd@@UAEXXZ
_TEXT	SEGMENT
?iwm_hide@ExcavationResultWnd@@UAEXXZ PROC		; ExcavationResultWnd::iwm_hide, COMDAT
; _this$ = ecx

; 326  : {

  00000	56		 push	 esi

; 327  : 	if( !m_szRollingSound.IsEmpty() )

  00001	8d b1 b0 01 00
	00		 lea	 esi, DWORD PTR [ecx+432]
  00007	8b ce		 mov	 ecx, esi
  00009	ff 15 00 00 00
	00		 call	 DWORD PTR __imp_?IsEmpty@ioHashString@@QBE_NXZ
  0000f	84 c0		 test	 al, al
  00011	75 11		 jne	 SHORT $LN2@iwm_hide@2

; 328  : 	{
; 329  : 		g_SoundMgr.StopSound( m_szRollingSound, 0 );

  00013	6a 00		 push	 0
  00015	56		 push	 esi
  00016	ff 15 00 00 00
	00		 call	 DWORD PTR __imp_?GetSingleton@ioSoundManager@@SAAAV1@XZ
  0001c	8b c8		 mov	 ecx, eax
  0001e	ff 15 00 00 00
	00		 call	 DWORD PTR __imp_?StopSound@ioSoundManager@@QAEXABVioHashString@@K@Z
$LN2@iwm_hide@2:

; 330  : 	}
; 331  : 
; 332  : 	g_ExcavationMgr.NoticeLevelAndExp();

  00024	e8 00 00 00 00	 call	 ?GetSingleton@ioExcavationManager@@SAAAV1@XZ ; ioExcavationManager::GetSingleton
  00029	8b c8		 mov	 ecx, eax
  0002b	e8 00 00 00 00	 call	 ?NoticeLevelAndExp@ioExcavationManager@@QAEXXZ ; ioExcavationManager::NoticeLevelAndExp

; 333  : 
; 334  : 	ExcavationSearchingWnd *pSearchingWnd = dynamic_cast< ExcavationSearchingWnd* > ( g_GUIMgr.FindWnd( EXCAVATION_SEARCHING_WND ) );

  00030	6a 00		 push	 0
  00032	68 00 00 00 00	 push	 OFFSET ??_R0?AVExcavationSearchingWnd@@@8
  00037	68 00 00 00 00	 push	 OFFSET ??_R0?AVioWnd@@@8
  0003c	6a 00		 push	 0
  0003e	68 cb 13 00 00	 push	 5067			; 000013cbH
  00043	e8 00 00 00 00	 call	 ?GetSingleton@ioSP2GUIManager@@SAAAV1@XZ ; ioSP2GUIManager::GetSingleton
  00048	8b c8		 mov	 ecx, eax
  0004a	ff 15 00 00 00
	00		 call	 DWORD PTR __imp_?FindWnd@ioGUIManager@@QAEPAVioWnd@@K@Z
  00050	50		 push	 eax
  00051	e8 00 00 00 00	 call	 ___RTDynamicCast
  00056	83 c4 14	 add	 esp, 20			; 00000014H
  00059	5e		 pop	 esi

; 335  : 	if( pSearchingWnd )

  0005a	85 c0		 test	 eax, eax
  0005c	74 07		 je	 SHORT $LN1@iwm_hide@2

; 336  : 		pSearchingWnd->UpdateExp();

  0005e	8b c8		 mov	 ecx, eax
  00060	e9 00 00 00 00	 jmp	 ?UpdateExp@ExcavationSearchingWnd@@QAEXXZ ; ExcavationSearchingWnd::UpdateExp
$LN1@iwm_hide@2:

; 337  : }

  00065	c3		 ret	 0
?iwm_hide@ExcavationResultWnd@@UAEXXZ ENDP		; ExcavationResultWnd::iwm_hide
; Function compile flags: /Ogsp
_TEXT	ENDS
;	COMDAT ??_GExcavationExpWnd@@UAEPAXI@Z
_TEXT	SEGMENT
___flags$ = 8						; size = 4
??_GExcavationExpWnd@@UAEPAXI@Z PROC			; ExcavationExpWnd::`scalar deleting destructor', COMDAT
; _this$ = ecx
  00000	55		 push	 ebp
  00001	8b ec		 mov	 ebp, esp
  00003	56		 push	 esi
  00004	8b f1		 mov	 esi, ecx
  00006	e8 00 00 00 00	 call	 ??1ExcavationExpWnd@@UAE@XZ ; ExcavationExpWnd::~ExcavationExpWnd
  0000b	f6 45 08 01	 test	 BYTE PTR ___flags$[ebp], 1
  0000f	74 07		 je	 SHORT $LN1@scalar@4
  00011	56		 push	 esi
  00012	e8 00 00 00 00	 call	 ??3@YAXPAX@Z		; operator delete
  00017	59		 pop	 ecx
$LN1@scalar@4:
  00018	8b c6		 mov	 eax, esi
  0001a	5e		 pop	 esi
  0001b	5d		 pop	 ebp
  0001c	c2 04 00	 ret	 4
??_GExcavationExpWnd@@UAEPAXI@Z ENDP			; ExcavationExpWnd::`scalar deleting destructor'
_TEXT	ENDS
PUBLIC	??_7ExcavatingBtn@@6B@				; ExcavatingBtn::`vftable'
PUBLIC	??1ExcavatingBtn@@UAE@XZ			; ExcavatingBtn::~ExcavatingBtn
PUBLIC	??_R4ExcavatingBtn@@6B@				; ExcavatingBtn::`RTTI Complete Object Locator'
PUBLIC	??_R0?AVExcavatingBtn@@@8			; ExcavatingBtn `RTTI Type Descriptor'
PUBLIC	??_R3ExcavatingBtn@@8				; ExcavatingBtn::`RTTI Class Hierarchy Descriptor'
PUBLIC	??_R2ExcavatingBtn@@8				; ExcavatingBtn::`RTTI Base Class Array'
PUBLIC	??_R1A@?0A@EA@ExcavatingBtn@@8			; ExcavatingBtn::`RTTI Base Class Descriptor at (0,-1,0,64)'
PUBLIC	??_R1A@?0A@EA@ioButton@@8			; ioButton::`RTTI Base Class Descriptor at (0,-1,0,64)'
PUBLIC	??_R0?AVioButton@@@8				; ioButton `RTTI Type Descriptor'
PUBLIC	??_R3ioButton@@8				; ioButton::`RTTI Class Hierarchy Descriptor'
PUBLIC	??_R2ioButton@@8				; ioButton::`RTTI Base Class Array'
PUBLIC	?AddRenderImage@ExcavatingBtn@@UAEXABVioHashString@@PAVioUIRenderImage@@@Z ; ExcavatingBtn::AddRenderImage
PUBLIC	?OnRender@ExcavatingBtn@@MAEXXZ			; ExcavatingBtn::OnRender
PUBLIC	?OnProcess@ExcavatingBtn@@MAEXM@Z		; ExcavatingBtn::OnProcess
PUBLIC	?iwm_show@ExcavatingBtn@@UAEXXZ			; ExcavatingBtn::iwm_show
EXTRN	__imp_??1ioButton@@UAE@XZ:PROC
EXTRN	?AddRenderFrame@ioButton@@UAEXABVioHashString@@PAVioUIRenderFrame@@@Z:PROC ; ioButton::AddRenderFrame
EXTRN	?ParseExtraInfo@ioButton@@UAEXAAVioXMLElement@@@Z:PROC ; ioButton::ParseExtraInfo
EXTRN	?SetWindowAlpha@ioButton@@UAEXH@Z:PROC		; ioButton::SetWindowAlpha
EXTRN	?CheckFrameReSize@ioButton@@MAEXHHHH@Z:PROC	; ioButton::CheckFrameReSize
EXTRN	?iwm_lbuttondown@ioButton@@UAEXABVioMouse@@@Z:PROC ; ioButton::iwm_lbuttondown
EXTRN	?iwm_lbuttonup@ioButton@@UAEXABVioMouse@@@Z:PROC ; ioButton::iwm_lbuttonup
EXTRN	?iwm_lbuttonDBLCLK@ioButton@@UAEXABVioMouse@@@Z:PROC ; ioButton::iwm_lbuttonDBLCLK
EXTRN	?iwm_rbuttondown@ioButton@@UAEXABVioMouse@@@Z:PROC ; ioButton::iwm_rbuttondown
EXTRN	?iwm_rbuttonup@ioButton@@UAEXABVioMouse@@@Z:PROC ; ioButton::iwm_rbuttonup
EXTRN	?iwm_mouseover@ioButton@@UAEXABVioMouse@@@Z:PROC ; ioButton::iwm_mouseover
EXTRN	?GetWndType@ioButton@@UBEKXZ:PROC		; ioButton::GetWndType
EXTRN	?GetHeaderFileName@ioButton@@UAEPBDXZ:PROC	; ioButton::GetHeaderFileName
EXTRN	?GetTemplateName@ioButton@@UAEPBDXZ:PROC	; ioButton::GetTemplateName
EXTRN	?GetDefClassName@ioButton@@UBEPBDXZ:PROC	; ioButton::GetDefClassName
EXTRN	?_Clone@ioButton@@UAEPAVioWnd@@XZ:PROC		; ioButton::_Clone
EXTRN	?Copy@ioButton@@UAEXPAVioWnd@@@Z:PROC		; ioButton::Copy
EXTRN	?SetSaveData@ioButton@@UAEXAAVioXMLElement@@@Z:PROC ; ioButton::SetSaveData
EXTRN	?GetNumFixedRenderFrame@ioButton@@UBEHXZ:PROC	; ioButton::GetNumFixedRenderFrame
EXTRN	?GetFixedRenderFrameType@ioButton@@UAEPBDH@Z:PROC ; ioButton::GetFixedRenderFrameType
EXTRN	?GetRenderFrame@ioButton@@UAEPAPAVioUIRenderElement@@PBD@Z:PROC ; ioButton::GetRenderFrame
EXTRN	?GetNumFixedRenderImage@ioButton@@UBEHXZ:PROC	; ioButton::GetNumFixedRenderImage
EXTRN	?GetFixedRenderImageType@ioButton@@UAEPBDH@Z:PROC ; ioButton::GetFixedRenderImageType
EXTRN	?GetRenderImage@ioButton@@UAEPAPAVioUIRenderElement@@PBD@Z:PROC ; ioButton::GetRenderImage
EXTRN	??_EExcavatingBtn@@UAEPAXI@Z:PROC		; ExcavatingBtn::`vector deleting destructor'
EXTRN	?OnDrawNormal@ioButton@@MAEXHH@Z:PROC		; ioButton::OnDrawNormal
EXTRN	?OnDrawOvered@ioButton@@MAEXHH@Z:PROC		; ioButton::OnDrawOvered
EXTRN	?OnDrawOveredAdd@ioButton@@MAEXHH@Z:PROC	; ioButton::OnDrawOveredAdd
EXTRN	?OnDrawPushed@ioButton@@MAEXHH@Z:PROC		; ioButton::OnDrawPushed
EXTRN	?OnDrawDisabled@ioButton@@MAEXHH@Z:PROC		; ioButton::OnDrawDisabled
EXTRN	?OnDrawExDisabledNormal@ioButton@@MAEXHH@Z:PROC	; ioButton::OnDrawExDisabledNormal
EXTRN	?OnDrawExDisabledOvered@ioButton@@MAEXHH@Z:PROC	; ioButton::OnDrawExDisabledOvered
EXTRN	?OnDrawExDisabledPushed@ioButton@@MAEXHH@Z:PROC	; ioButton::OnDrawExDisabledPushed
EXTRN	?OnDrawBack@ioButton@@MAEXHH@Z:PROC		; ioButton::OnDrawBack
EXTRN	?OnDrawNormalList@ioButton@@MAEXHH@Z:PROC	; ioButton::OnDrawNormalList
EXTRN	?OnDrawDisableList@ioButton@@MAEXHH@Z:PROC	; ioButton::OnDrawDisableList
;	COMDAT ??_R2ioButton@@8
; File d:\lost saga for developer\youtube\tutorial\source\src\lsclient\encryptvalue.h
rdata$r	SEGMENT
??_R2ioButton@@8 DD FLAT:??_R1A@?0A@EA@ioButton@@8	; ioButton::`RTTI Base Class Array'
	DD	FLAT:??_R1A@?0A@EA@ioWnd@@8
rdata$r	ENDS
;	COMDAT ??_R3ioButton@@8
rdata$r	SEGMENT
??_R3ioButton@@8 DD 00H					; ioButton::`RTTI Class Hierarchy Descriptor'
	DD	00H
	DD	02H
	DD	FLAT:??_R2ioButton@@8
rdata$r	ENDS
;	COMDAT ??_R0?AVioButton@@@8
_DATA	SEGMENT
??_R0?AVioButton@@@8 DD FLAT:??_7type_info@@6B@		; ioButton `RTTI Type Descriptor'
	DD	00H
	DB	'.?AVioButton@@', 00H
_DATA	ENDS
;	COMDAT ??_R1A@?0A@EA@ioButton@@8
rdata$r	SEGMENT
??_R1A@?0A@EA@ioButton@@8 DD FLAT:??_R0?AVioButton@@@8	; ioButton::`RTTI Base Class Descriptor at (0,-1,0,64)'
	DD	01H
	DD	00H
	DD	0ffffffffH
	DD	00H
	DD	040H
	DD	FLAT:??_R3ioButton@@8
rdata$r	ENDS
;	COMDAT ??_R1A@?0A@EA@ExcavatingBtn@@8
rdata$r	SEGMENT
??_R1A@?0A@EA@ExcavatingBtn@@8 DD FLAT:??_R0?AVExcavatingBtn@@@8 ; ExcavatingBtn::`RTTI Base Class Descriptor at (0,-1,0,64)'
	DD	02H
	DD	00H
	DD	0ffffffffH
	DD	00H
	DD	040H
	DD	FLAT:??_R3ExcavatingBtn@@8
rdata$r	ENDS
;	COMDAT ??_R2ExcavatingBtn@@8
rdata$r	SEGMENT
??_R2ExcavatingBtn@@8 DD FLAT:??_R1A@?0A@EA@ExcavatingBtn@@8 ; ExcavatingBtn::`RTTI Base Class Array'
	DD	FLAT:??_R1A@?0A@EA@ioButton@@8
	DD	FLAT:??_R1A@?0A@EA@ioWnd@@8
rdata$r	ENDS
;	COMDAT ??_R3ExcavatingBtn@@8
rdata$r	SEGMENT
??_R3ExcavatingBtn@@8 DD 00H				; ExcavatingBtn::`RTTI Class Hierarchy Descriptor'
	DD	00H
	DD	03H
	DD	FLAT:??_R2ExcavatingBtn@@8
rdata$r	ENDS
;	COMDAT ??_R0?AVExcavatingBtn@@@8
_DATA	SEGMENT
??_R0?AVExcavatingBtn@@@8 DD FLAT:??_7type_info@@6B@	; ExcavatingBtn `RTTI Type Descriptor'
	DD	00H
	DB	'.?AVExcavatingBtn@@', 00H
_DATA	ENDS
;	COMDAT ??_R4ExcavatingBtn@@6B@
rdata$r	SEGMENT
??_R4ExcavatingBtn@@6B@ DD 00H				; ExcavatingBtn::`RTTI Complete Object Locator'
	DD	00H
	DD	00H
	DD	FLAT:??_R0?AVExcavatingBtn@@@8
	DD	FLAT:??_R3ExcavatingBtn@@8
rdata$r	ENDS
;	COMDAT ??_7ExcavatingBtn@@6B@
CONST	SEGMENT
??_7ExcavatingBtn@@6B@ DD FLAT:??_R4ExcavatingBtn@@6B@	; ExcavatingBtn::`vftable'
	DD	FLAT:?AddRenderFrame@ioButton@@UAEXABVioHashString@@PAVioUIRenderFrame@@@Z
	DD	FLAT:?AddRenderImage@ExcavatingBtn@@UAEXABVioHashString@@PAVioUIRenderImage@@@Z
	DD	FLAT:?AddTooltipHelp@ioWnd@@UAEXABVioHashString@@00@Z
	DD	FLAT:?ParseExtraInfo@ioButton@@UAEXAAVioXMLElement@@@Z
	DD	FLAT:?AddNamedRenderImage@ioWnd@@UAEXABVioHashString@@PAVioUIRenderImage@@@Z
	DD	FLAT:?RemoveNamedRenderImage@ioWnd@@UAEXABVioHashString@@@Z
	DD	FLAT:?GetNamedRenderImage@ioWnd@@UBEPAVioUIRenderImage@@ABVioHashString@@@Z
	DD	FLAT:?SetWindowAlpha@ioButton@@UAEXH@Z
	DD	FLAT:?SetActive@ioWnd@@UAEXXZ
	DD	FLAT:?SetInActive@ioWnd@@UAEXXZ
	DD	FLAT:?ClearElementImageList@ioWnd@@UAEXXZ
	DD	FLAT:?SetSize@ioWnd@@UAEXHH@Z
	DD	FLAT:?SetPositionToDefault@ioWnd@@UAEXHH_N0@Z
	DD	FLAT:?IsNeedProcess@ioWnd@@UBE_NXZ
	DD	FLAT:?IsCanMouseReaction@ioWnd@@UBE_NXZ
	DD	FLAT:?AddChild@ioWnd@@UAEXPAV1@@Z
	DD	FLAT:?DeleteChild@ioWnd@@UAEXK@Z
	DD	FLAT:?DeleteAllChild@ioWnd@@UAEXXZ
	DD	FLAT:?OnRenderShowAndHide@ioWnd@@MAE_NXZ
	DD	FLAT:?OnRenderShowAndHideByDefault@ioWnd@@MAE_NK@Z
	DD	FLAT:?OnRenderShowAndHideByTop@ioWnd@@MAE_NK@Z
	DD	FLAT:?OnRenderShowAndHideByDown@ioWnd@@MAE_NK@Z
	DD	FLAT:?OnRender@ExcavatingBtn@@MAEXXZ
	DD	FLAT:?OnRenderAfterChild@ioWnd@@MAEXXZ
	DD	FLAT:?OnProcess@ExcavatingBtn@@MAEXM@Z
	DD	FLAT:?OnMouseProcess@ioWnd@@MAEXABVioMouse@@@Z
	DD	FLAT:?CheckFrameReSize@ioButton@@MAEXHHHH@Z
	DD	FLAT:?RenderImageList@ioWnd@@MAEXHHW4UIRenderType@@@Z
	DD	FLAT:?iwm_create@ioWnd@@UAEXXZ
	DD	FLAT:?iwm_destroy@ioWnd@@UAEXXZ
	DD	FLAT:?iwm_lbuttondown@ioButton@@UAEXABVioMouse@@@Z
	DD	FLAT:?iwm_lbuttonup@ioButton@@UAEXABVioMouse@@@Z
	DD	FLAT:?iwm_lbuttonDBLCLK@ioButton@@UAEXABVioMouse@@@Z
	DD	FLAT:?iwm_rbuttondown@ioButton@@UAEXABVioMouse@@@Z
	DD	FLAT:?iwm_rbuttonup@ioButton@@UAEXABVioMouse@@@Z
	DD	FLAT:?iwm_command@ioWnd@@UAEXPAV1@HK@Z
	DD	FLAT:?iwm_mouseover@ioButton@@UAEXABVioMouse@@@Z
	DD	FLAT:?iwm_mousemove@ioWnd@@UAEXABVioMouse@@@Z
	DD	FLAT:?iwm_mouseleave@ioWnd@@UAEXABVioMouse@@@Z
	DD	FLAT:?iwm_vscroll@ioWnd@@UAEXKH@Z
	DD	FLAT:?iwm_wheel@ioWnd@@UAEXH@Z
	DD	FLAT:?iwm_show@ExcavatingBtn@@UAEXXZ
	DD	FLAT:?iwm_hide@ioWnd@@UAEXXZ
	DD	FLAT:?iwm_esc@ioWnd@@UAE_NXZ
	DD	FLAT:?iwm_spacebar@ioWnd@@UAE_NXZ
	DD	FLAT:?iwm_gototop@ioWnd@@UAEXXZ
	DD	FLAT:?iwm_dragenter@ioWnd@@UAE?AW4IWDropEffect@@PAVioDragItem@@ABVioMouse@@@Z
	DD	FLAT:?iwm_dragover@ioWnd@@UAE?AW4IWDropEffect@@PAVioDragItem@@ABVioMouse@@@Z
	DD	FLAT:?iwm_dragleave@ioWnd@@UAEXXZ
	DD	FLAT:?iwm_dropitem@ioWnd@@UAE_NPAVioDragItem@@ABVioMouse@@PAV1@@Z
	DD	FLAT:?iwm_dropdone@ioWnd@@UAEXPAVioDragItem@@PAV1@_N@Z
	DD	FLAT:?IsEXType@ioWnd@@UBE_NXZ
	DD	FLAT:?GetWndType@ioButton@@UBEKXZ
	DD	FLAT:?RenderWnd@ioWnd@@UAEXXZ
	DD	FLAT:?SetIDEX@ioWnd@@UAEXAAK_N@Z
	DD	FLAT:?ParseXML@ioWnd@@UAEXAAVioXMLElement@@@Z
	DD	FLAT:?GetHeaderFileName@ioButton@@UAEPBDXZ
	DD	FLAT:?GetTemplateName@ioButton@@UAEPBDXZ
	DD	FLAT:?GetDefClassName@ioButton@@UBEPBDXZ
	DD	FLAT:?_Clone@ioButton@@UAEPAVioWnd@@XZ
	DD	FLAT:?Copy@ioButton@@UAEXPAVioWnd@@@Z
	DD	FLAT:?Save@ioWnd@@UAE_NAAVioXMLElement@@@Z
	DD	FLAT:?SetSaveData@ioButton@@UAEXAAVioXMLElement@@@Z
	DD	FLAT:?SetPosX@ioWnd@@UAEXH@Z
	DD	FLAT:?SetPosY@ioWnd@@UAEXH@Z
	DD	FLAT:?SetWidth@ioWnd@@UAEXH@Z
	DD	FLAT:?SetHeight@ioWnd@@UAEXH@Z
	DD	FLAT:?GetNumFixedRenderFrame@ioButton@@UBEHXZ
	DD	FLAT:?GetFixedRenderFrameType@ioButton@@UAEPBDH@Z
	DD	FLAT:?GetRenderFrame@ioButton@@UAEPAPAVioUIRenderElement@@PBD@Z
	DD	FLAT:?GetNumFixedRenderImage@ioButton@@UBEHXZ
	DD	FLAT:?GetFixedRenderImageType@ioButton@@UAEPBDH@Z
	DD	FLAT:?GetRenderImage@ioButton@@UAEPAPAVioUIRenderElement@@PBD@Z
	DD	FLAT:?AddEffect@ioWnd@@UAEXABVioHashString@@PAVioUI3DEffectRender@@@Z
	DD	FLAT:?GetEffect@ioWnd@@UAEPAVioUI3DEffectRender@@VioHashString@@@Z
	DD	FLAT:??_EExcavatingBtn@@UAEPAXI@Z
	DD	FLAT:?OnDrawNormal@ioButton@@MAEXHH@Z
	DD	FLAT:?OnDrawOvered@ioButton@@MAEXHH@Z
	DD	FLAT:?OnDrawOveredAdd@ioButton@@MAEXHH@Z
	DD	FLAT:?OnDrawPushed@ioButton@@MAEXHH@Z
	DD	FLAT:?OnDrawDisabled@ioButton@@MAEXHH@Z
	DD	FLAT:?OnDrawExDisabledNormal@ioButton@@MAEXHH@Z
	DD	FLAT:?OnDrawExDisabledOvered@ioButton@@MAEXHH@Z
	DD	FLAT:?OnDrawExDisabledPushed@ioButton@@MAEXHH@Z
	DD	FLAT:?OnDrawBack@ioButton@@MAEXHH@Z
	DD	FLAT:?OnDrawNormalList@ioButton@@MAEXHH@Z
	DD	FLAT:?OnDrawDisableList@ioButton@@MAEXHH@Z
CONST	ENDS
;	COMDAT xdata$x
xdata$x	SEGMENT
__unwindtable$??1ExcavatingBtn@@UAE@XZ DD 0ffffffffH
	DD	FLAT:__unwindfunclet$??1ExcavatingBtn@@UAE@XZ$0
	DD	00H
	DD	FLAT:__unwindfunclet$??1ExcavatingBtn@@UAE@XZ$1
	DD	01H
	DD	FLAT:__unwindfunclet$??1ExcavatingBtn@@UAE@XZ$2
__ehfuncinfo$??1ExcavatingBtn@@UAE@XZ DD 019930522H
	DD	03H
	DD	FLAT:__unwindtable$??1ExcavatingBtn@@UAE@XZ
	DD	2 DUP(00H)
	DD	2 DUP(00H)
	DD	00H
	DD	01H
; Function compile flags: /Ogsp
; File d:\lost saga for developer\youtube\tutorial\source\src\lsclient\gui\excavationwnd.cpp
xdata$x	ENDS
;	COMDAT ??1ExcavatingBtn@@UAE@XZ
_TEXT	SEGMENT
_this$ = -16						; size = 4
__$EHRec$ = -12						; size = 12
??1ExcavatingBtn@@UAE@XZ PROC				; ExcavatingBtn::~ExcavatingBtn, COMDAT
; _this$ = ecx

; 606  : {

  00000	6a 04		 push	 4
  00002	b8 00 00 00 00	 mov	 eax, __ehhandler$??1ExcavatingBtn@@UAE@XZ
  00007	e8 00 00 00 00	 call	 __EH_prolog3
  0000c	8b f1		 mov	 esi, ecx
  0000e	89 75 f0	 mov	 DWORD PTR _this$[ebp], esi
  00011	c7 06 00 00 00
	00		 mov	 DWORD PTR [esi], OFFSET ??_7ExcavatingBtn@@6B@

; 607  : 	SAFEDELETE( m_pIcon );

  00017	8b 8e fc 01 00
	00		 mov	 ecx, DWORD PTR [esi+508]
  0001d	33 db		 xor	 ebx, ebx
  0001f	c7 45 fc 02 00
	00 00		 mov	 DWORD PTR __$EHRec$[ebp+8], 2
  00026	3b cb		 cmp	 ecx, ebx
  00028	74 0d		 je	 SHORT $LN8@Excavating
  0002a	8b 01		 mov	 eax, DWORD PTR [ecx]
  0002c	6a 01		 push	 1
  0002e	ff 50 40	 call	 DWORD PTR [eax+64]
  00031	89 9e fc 01 00
	00		 mov	 DWORD PTR [esi+508], ebx
$LN8@Excavating:

; 608  : 
; 609  : 	SAFEDELETE( m_pKeyBackNor );

  00037	8b 8e 00 02 00
	00		 mov	 ecx, DWORD PTR [esi+512]
  0003d	3b cb		 cmp	 ecx, ebx
  0003f	74 0d		 je	 SHORT $LN7@Excavating
  00041	8b 01		 mov	 eax, DWORD PTR [ecx]
  00043	6a 01		 push	 1
  00045	ff 50 40	 call	 DWORD PTR [eax+64]
  00048	89 9e 00 02 00
	00		 mov	 DWORD PTR [esi+512], ebx
$LN7@Excavating:

; 610  : 	SAFEDELETE( m_pKeyBackOn );

  0004e	8b 8e 04 02 00
	00		 mov	 ecx, DWORD PTR [esi+516]
  00054	3b cb		 cmp	 ecx, ebx
  00056	74 0d		 je	 SHORT $LN6@Excavating
  00058	8b 01		 mov	 eax, DWORD PTR [ecx]
  0005a	6a 01		 push	 1
  0005c	ff 50 40	 call	 DWORD PTR [eax+64]
  0005f	89 9e 04 02 00
	00		 mov	 DWORD PTR [esi+516], ebx
$LN6@Excavating:

; 611  : 	SAFEDELETE( m_pKeyBack );

  00065	8b 8e 08 02 00
	00		 mov	 ecx, DWORD PTR [esi+520]
  0006b	3b cb		 cmp	 ecx, ebx
  0006d	74 0d		 je	 SHORT $LN5@Excavating
  0006f	8b 01		 mov	 eax, DWORD PTR [ecx]
  00071	6a 01		 push	 1
  00073	ff 50 40	 call	 DWORD PTR [eax+64]
  00076	89 9e 08 02 00
	00		 mov	 DWORD PTR [esi+520], ebx
$LN5@Excavating:

; 612  : 
; 613  : 	SAFEDELETE( m_pAttackKeyNor );

  0007c	8b 8e 0c 02 00
	00		 mov	 ecx, DWORD PTR [esi+524]
  00082	3b cb		 cmp	 ecx, ebx
  00084	74 0d		 je	 SHORT $LN4@Excavating
  00086	8b 01		 mov	 eax, DWORD PTR [ecx]
  00088	6a 01		 push	 1
  0008a	ff 50 40	 call	 DWORD PTR [eax+64]
  0008d	89 9e 0c 02 00
	00		 mov	 DWORD PTR [esi+524], ebx
$LN4@Excavating:

; 614  : 	SAFEDELETE( m_pAttackKeyOn );

  00093	8b 8e 10 02 00
	00		 mov	 ecx, DWORD PTR [esi+528]
  00099	3b cb		 cmp	 ecx, ebx
  0009b	74 0d		 je	 SHORT $LN3@Excavating
  0009d	8b 01		 mov	 eax, DWORD PTR [ecx]
  0009f	6a 01		 push	 1
  000a1	ff 50 40	 call	 DWORD PTR [eax+64]
  000a4	89 9e 10 02 00
	00		 mov	 DWORD PTR [esi+528], ebx
$LN3@Excavating:

; 615  : 
; 616  : 	SAFEDELETE( m_pKeyDashNor );

  000aa	8b 8e 14 02 00
	00		 mov	 ecx, DWORD PTR [esi+532]
  000b0	3b cb		 cmp	 ecx, ebx
  000b2	74 0d		 je	 SHORT $LN2@Excavating
  000b4	8b 01		 mov	 eax, DWORD PTR [ecx]
  000b6	6a 01		 push	 1
  000b8	ff 50 40	 call	 DWORD PTR [eax+64]
  000bb	89 9e 14 02 00
	00		 mov	 DWORD PTR [esi+532], ebx
$LN2@Excavating:

; 617  : 	SAFEDELETE( m_pKeyDashOn );

  000c1	8b 8e 18 02 00
	00		 mov	 ecx, DWORD PTR [esi+536]
  000c7	3b cb		 cmp	 ecx, ebx
  000c9	74 0d		 je	 SHORT $LN1@Excavating
  000cb	8b 01		 mov	 eax, DWORD PTR [ecx]
  000cd	6a 01		 push	 1
  000cf	ff 50 40	 call	 DWORD PTR [eax+64]
  000d2	89 9e 18 02 00
	00		 mov	 DWORD PTR [esi+536], ebx
$LN1@Excavating:

; 618  : }

  000d8	bf 00 00 00 00	 mov	 edi, OFFSET ??_7?$CEncrypt@H@@6B@
  000dd	8d 8e 58 02 00
	00		 lea	 ecx, DWORD PTR [esi+600]
  000e3	c6 45 fc 01	 mov	 BYTE PTR __$EHRec$[ebp+8], 1
  000e7	89 be 4c 02 00
	00		 mov	 DWORD PTR [esi+588], edi
  000ed	e8 00 00 00 00	 call	 ??1ccddaabb@@UAE@XZ	; ccddaabb::~ccddaabb
  000f2	8d 8e 28 02 00
	00		 lea	 ecx, DWORD PTR [esi+552]
  000f8	88 5d fc	 mov	 BYTE PTR __$EHRec$[ebp+8], bl
  000fb	89 be 1c 02 00
	00		 mov	 DWORD PTR [esi+540], edi
  00101	e8 00 00 00 00	 call	 ??1ccddaabb@@UAE@XZ	; ccddaabb::~ccddaabb
  00106	83 4d fc ff	 or	 DWORD PTR __$EHRec$[ebp+8], -1
  0010a	8b ce		 mov	 ecx, esi
  0010c	ff 15 00 00 00
	00		 call	 DWORD PTR __imp_??1ioButton@@UAE@XZ
  00112	e8 00 00 00 00	 call	 __EH_epilog3
  00117	c3		 ret	 0
_TEXT	ENDS
;	COMDAT text$x
text$x	SEGMENT
__unwindfunclet$??1ExcavatingBtn@@UAE@XZ$0:
  00000	8b 4d f0	 mov	 ecx, DWORD PTR _this$[ebp]
  00003	ff 25 00 00 00
	00		 jmp	 DWORD PTR __imp_??1ioButton@@UAE@XZ
__unwindfunclet$??1ExcavatingBtn@@UAE@XZ$1:
  00009	8b 4d f0	 mov	 ecx, DWORD PTR _this$[ebp]
  0000c	81 c1 1c 02 00
	00		 add	 ecx, 540		; 0000021cH
  00012	e9 00 00 00 00	 jmp	 ??1?$CEncrypt@H@@UAE@XZ	; CEncrypt<int>::~CEncrypt<int>
__unwindfunclet$??1ExcavatingBtn@@UAE@XZ$2:
  00017	8b 4d f0	 mov	 ecx, DWORD PTR _this$[ebp]
  0001a	81 c1 4c 02 00
	00		 add	 ecx, 588		; 0000024cH
  00020	e9 00 00 00 00	 jmp	 ??1?$CEncrypt@H@@UAE@XZ	; CEncrypt<int>::~CEncrypt<int>
__ehhandler$??1ExcavatingBtn@@UAE@XZ:
  00025	8b 54 24 08	 mov	 edx, DWORD PTR [esp+8]
  00029	8d 42 0c	 lea	 eax, DWORD PTR [edx+12]
  0002c	8b 4a ec	 mov	 ecx, DWORD PTR [edx-20]
  0002f	33 c8		 xor	 ecx, eax
  00031	e8 00 00 00 00	 call	 @__security_check_cookie@4
  00036	b8 00 00 00 00	 mov	 eax, OFFSET __ehfuncinfo$??1ExcavatingBtn@@UAE@XZ
  0003b	e9 00 00 00 00	 jmp	 ___CxxFrameHandler3
text$x	ENDS
??1ExcavatingBtn@@UAE@XZ ENDP				; ExcavatingBtn::~ExcavatingBtn
PUBLIC	?OnRender@ExcavationSearchingWnd@@MAEXXZ	; ExcavationSearchingWnd::OnRender
EXTRN	?GetEtcItem@ioUserEtcItem@@QAE_NHAAUETCITEMSLOT@1@@Z:PROC ; ioUserEtcItem::GetEtcItem
; Function compile flags: /Ogsp
;	COMDAT ?OnRender@ExcavationSearchingWnd@@MAEXXZ
_TEXT	SEGMENT
_kSlot$ = -28						; size = 12
tv587 = -16						; size = 4
tv578 = -16						; size = 4
tv569 = -16						; size = 4
tv559 = -16						; size = 4
tv507 = -16						; size = 4
tv242 = -16						; size = 4
_iRemainSec$ = -16					; size = 4
_iGaugeCnt$ = -12					; size = 4
_iXPos$ = -8						; size = 4
_iYPos$ = -4						; size = 4
?OnRender@ExcavationSearchingWnd@@MAEXXZ PROC		; ExcavationSearchingWnd::OnRender, COMDAT
; _this$ = ecx

; 1116 : {

  00000	55		 push	 ebp
  00001	8b ec		 mov	 ebp, esp
  00003	83 ec 1c	 sub	 esp, 28			; 0000001cH
  00006	53		 push	 ebx
  00007	56		 push	 esi
  00008	8b f1		 mov	 esi, ecx

; 1117 : 	ioMovingWnd::OnRender();

  0000a	ff 15 00 00 00
	00		 call	 DWORD PTR __imp_?OnRender@ioWnd@@MAEXXZ

; 1118 : 
; 1119 : 	int iXPos, iYPos;
; 1120 : 	iXPos = GetDerivedPosX();

  00010	8b ce		 mov	 ecx, esi
  00012	ff 15 00 00 00
	00		 call	 DWORD PTR __imp_?GetDerivedPosX@ioWnd@@QBEHXZ

; 1121 : 	iYPos = GetDerivedPosY();

  00018	8b ce		 mov	 ecx, esi
  0001a	89 45 f8	 mov	 DWORD PTR _iXPos$[ebp], eax
  0001d	ff 15 00 00 00
	00		 call	 DWORD PTR __imp_?GetDerivedPosY@ioWnd@@QBEHXZ
  00023	89 45 fc	 mov	 DWORD PTR _iYPos$[ebp], eax

; 1122 : 
; 1123 : 	ioUserEtcItem *pUserEtcItem = g_MyInfo.GetUserEtcItem();

  00026	e8 00 00 00 00	 call	 ?GetSingleton@ioMyInfo@@SAAAV1@XZ ; ioMyInfo::GetSingleton
  0002b	8b d8		 mov	 ebx, eax
  0002d	81 c3 44 01 00
	00		 add	 ebx, 324		; 00000144H

; 1124 : 	if( !pUserEtcItem )

  00033	0f 84 9e 03 00
	00		 je	 $LN1@OnRender@4

; 1125 : 		return;
; 1126 : 
; 1127 : 	int iGaugeCnt  = 0;

  00039	57		 push	 edi
  0003a	33 ff		 xor	 edi, edi

; 1128 : 	int iRemainSec = 0;
; 1129 : 
; 1130 : 	ioUserEtcItem::ETCITEMSLOT kSlot;
; 1131 : 	if( pUserEtcItem->GetEtcItem( ioEtcItem::EIT_ETC_EXCAVATING_KIT, kSlot ) )

  0003c	8d 45 e4	 lea	 eax, DWORD PTR _kSlot$[ebp]
  0003f	50		 push	 eax
  00040	68 a0 84 1e 00	 push	 2000032			; 001e84a0H
  00045	8b cb		 mov	 ecx, ebx
  00047	89 7d f4	 mov	 DWORD PTR _iGaugeCnt$[ebp], edi
  0004a	89 7d f0	 mov	 DWORD PTR _iRemainSec$[ebp], edi
  0004d	89 7d e4	 mov	 DWORD PTR _kSlot$[ebp], edi
  00050	89 7d e8	 mov	 DWORD PTR _kSlot$[ebp+4], edi
  00053	89 7d ec	 mov	 DWORD PTR _kSlot$[ebp+8], edi
  00056	e8 00 00 00 00	 call	 ?GetEtcItem@ioUserEtcItem@@QAE_NHAAUETCITEMSLOT@1@@Z ; ioUserEtcItem::GetEtcItem
  0005b	84 c0		 test	 al, al
  0005d	74 0c		 je	 SHORT $LN43@OnRender@4

; 1132 : 	{
; 1133 : 		if( kSlot.IsUse() )

  0005f	83 7d ec 01	 cmp	 DWORD PTR _kSlot$[ebp+8], 1
  00063	75 06		 jne	 SHORT $LN43@OnRender@4

; 1134 : 			iRemainSec = kSlot.GetUse();

  00065	8b 45 e8	 mov	 eax, DWORD PTR _kSlot$[ebp+4]
  00068	89 45 f0	 mov	 DWORD PTR _iRemainSec$[ebp], eax
$LN43@OnRender@4:

; 1135 : 	}
; 1136 : 
; 1137 : 	if( pUserEtcItem->GetEtcItem( ioEtcItem::EIT_ETC_GOLD_EXCAVATING_KIT, kSlot ) )

  0006b	8d 45 e4	 lea	 eax, DWORD PTR _kSlot$[ebp]
  0006e	50		 push	 eax
  0006f	68 a1 84 1e 00	 push	 2000033			; 001e84a1H
  00074	8b cb		 mov	 ecx, ebx
  00076	e8 00 00 00 00	 call	 ?GetEtcItem@ioUserEtcItem@@QAE_NHAAUETCITEMSLOT@1@@Z ; ioUserEtcItem::GetEtcItem
  0007b	84 c0		 test	 al, al
  0007d	74 09		 je	 SHORT $LN68@OnRender@4

; 1138 : 	{
; 1139 : 		if( kSlot.IsUse() )

  0007f	83 7d ec 01	 cmp	 DWORD PTR _kSlot$[ebp+8], 1

; 1140 : 			iRemainSec = kSlot.GetUse();

  00083	8b 45 e8	 mov	 eax, DWORD PTR _kSlot$[ebp+4]
  00086	74 03		 je	 SHORT $LN48@OnRender@4
$LN68@OnRender@4:
  00088	8b 45 f0	 mov	 eax, DWORD PTR _iRemainSec$[ebp]
$LN48@OnRender@4:

; 1141 : 	}
; 1142 : 
; 1143 : 	if( iRemainSec > (int)m_dwFullBatteryTime )

  0008b	3b 86 c4 01 00
	00		 cmp	 eax, DWORD PTR [esi+452]
  00091	7e 09		 jle	 SHORT $LN28@OnRender@4

; 1144 : 		iGaugeCnt = 3;

  00093	c7 45 f4 03 00
	00 00		 mov	 DWORD PTR _iGaugeCnt$[ebp], 3
  0009a	eb 20		 jmp	 SHORT $LN24@OnRender@4
$LN28@OnRender@4:

; 1145 : 	else if( iRemainSec > (int)m_dwMiddleBatteryTime )

  0009c	3b 86 c8 01 00
	00		 cmp	 eax, DWORD PTR [esi+456]
  000a2	7e 09		 jle	 SHORT $LN26@OnRender@4

; 1146 : 		iGaugeCnt = 2;

  000a4	c7 45 f4 02 00
	00 00		 mov	 DWORD PTR _iGaugeCnt$[ebp], 2
  000ab	eb 0f		 jmp	 SHORT $LN24@OnRender@4
$LN26@OnRender@4:

; 1147 : 	else if( iRemainSec > (int)m_dwLowBatteryTime )

  000ad	3b 86 cc 01 00
	00		 cmp	 eax, DWORD PTR [esi+460]
  000b3	7e 07		 jle	 SHORT $LN24@OnRender@4

; 1148 : 		iGaugeCnt = 1;

  000b5	c7 45 f4 01 00
	00 00		 mov	 DWORD PTR _iGaugeCnt$[ebp], 1
$LN24@OnRender@4:

; 1149 : 
; 1150 : 	enum 
; 1151 : 	{
; 1152 : 		GAUGE_X = 17,
; 1153 : 		GAUGE_Y = 28,
; 1154 : 
; 1155 : 		GAUGE_GAP_X = 5,
; 1156 : 
; 1157 : 		RADAR_X = 96,
; 1158 : 		RADAR_Y = 63,
; 1159 : 
; 1160 : 		MAX_RADAR_WIDTH  = 172,
; 1161 : 		MAX_RADAR_HEIGHT = 83,
; 1162 : 
; 1163 : 		RADAR_WIDTH      = 175,
; 1164 : 		RADAR_HEIGHT     = 175,
; 1165 : 
; 1166 : 		RANGE_X = 132,
; 1167 : 		RANGE_Y = 25,
; 1168 : 
; 1169 : 		WAVE_X  = 8,
; 1170 : 		WAVE_Y  = 21,
; 1171 : 
; 1172 : 		WAVE_WIDTH = 168,
; 1173 : 
; 1174 : 		DIST_NUM_X = 116,
; 1175 : 		DIST_NUM_Y = 46, 
; 1176 : 
; 1177 : 		RATE_NUM_X = 149,
; 1178 : 		RATE_NUM_Y = 23,
; 1179 : 
; 1180 : 		BLUE_DIST  = 100,
; 1181 : 		YELLOW_DIST= 50,
; 1182 : 
; 1183 : 		DIST_NONE_X= 44,
; 1184 : 		DIST_NONE_Y= 72,
; 1185 : 	};
; 1186 : 
; 1187 : 	if( COMPARE( m_iCurGrowWaveTypeArray, 0, MAX_SEARCHING_TYPE ) )

  000bc	8b 86 d4 01 00
	00		 mov	 eax, DWORD PTR [esi+468]
  000c2	8b 1d 00 00 00
	00		 mov	 ebx, DWORD PTR __imp_?RenderWidthCut@ioUIRenderImage@@QAEXMMHHW4UIRenderType@@W4TextureFilterOption@@0@Z
  000c8	3b c7		 cmp	 eax, edi
  000ca	7c 4c		 jl	 SHORT $LN66@OnRender@4
  000cc	83 f8 06	 cmp	 eax, 6
  000cf	7d 47		 jge	 SHORT $LN66@OnRender@4

; 1188 : 	{
; 1189 : 		if( m_pWave[m_iCurGrowWaveTypeArray] ) //  

  000d1	8d 84 86 98 01
	00 00		 lea	 eax, DWORD PTR [esi+eax*4+408]
  000d8	39 38		 cmp	 DWORD PTR [eax], edi
  000da	74 3c		 je	 SHORT $LN66@OnRender@4

; 1190 : 			m_pWave[m_iCurGrowWaveTypeArray]->RenderWidthCut( iXPos + WAVE_X -m_iWaveWidthcut, iYPos + WAVE_Y , m_iWaveWidthcut, WAVE_WIDTH );

  000dc	8b 8e dc 01 00
	00		 mov	 ecx, DWORD PTR [esi+476]
  000e2	8b 55 fc	 mov	 edx, DWORD PTR _iYPos$[ebp]
  000e5	57		 push	 edi
  000e6	57		 push	 edi
  000e7	57		 push	 edi
  000e8	68 a8 00 00 00	 push	 168			; 000000a8H
  000ed	83 c2 15	 add	 edx, 21			; 00000015H
  000f0	51		 push	 ecx
  000f1	0f 57 c0	 xorps	 xmm0, xmm0
  000f4	f3 0f 2a c2	 cvtsi2ss xmm0, edx
  000f8	8b 55 f8	 mov	 edx, DWORD PTR _iXPos$[ebp]
  000fb	51		 push	 ecx
  000fc	51		 push	 ecx
  000fd	2b d1		 sub	 edx, ecx
  000ff	8b 08		 mov	 ecx, DWORD PTR [eax]
  00101	f3 0f 11 44 24
	04		 movss	 DWORD PTR [esp+4], xmm0
  00107	83 c2 08	 add	 edx, 8
  0010a	0f 57 c0	 xorps	 xmm0, xmm0
  0010d	f3 0f 2a c2	 cvtsi2ss xmm0, edx
  00111	f3 0f 11 04 24	 movss	 DWORD PTR [esp], xmm0
  00116	ff d3		 call	 ebx
$LN66@OnRender@4:

; 1191 : 	}
; 1192 : 
; 1193 :  	if( COMPARE( m_iCurExtinctWaveTypeArray, 0, MAX_SEARCHING_TYPE ) )

  00118	8b 86 d8 01 00
	00		 mov	 eax, DWORD PTR [esi+472]
  0011e	3b c7		 cmp	 eax, edi
  00120	7c 4b		 jl	 SHORT $LN20@OnRender@4
  00122	83 f8 06	 cmp	 eax, 6
  00125	7d 46		 jge	 SHORT $LN20@OnRender@4

; 1194 :  	{
; 1195 :  		if( m_pWave[m_iCurExtinctWaveTypeArray] ) //  

  00127	8d 84 86 98 01
	00 00		 lea	 eax, DWORD PTR [esi+eax*4+408]
  0012e	39 38		 cmp	 DWORD PTR [eax], edi
  00130	74 3b		 je	 SHORT $LN20@OnRender@4

; 1196 :  			m_pWave[m_iCurExtinctWaveTypeArray]->RenderWidthCut( iXPos + WAVE_X + (WAVE_WIDTH-m_iWaveWidthcut), iYPos + WAVE_Y ,0, m_iWaveWidthcut );

  00132	8b 8e dc 01 00
	00		 mov	 ecx, DWORD PTR [esi+476]
  00138	8b 55 fc	 mov	 edx, DWORD PTR _iYPos$[ebp]
  0013b	57		 push	 edi
  0013c	57		 push	 edi
  0013d	57		 push	 edi
  0013e	51		 push	 ecx
  0013f	83 c2 15	 add	 edx, 21			; 00000015H
  00142	0f 57 c0	 xorps	 xmm0, xmm0
  00145	f3 0f 2a c2	 cvtsi2ss xmm0, edx
  00149	8b 55 f8	 mov	 edx, DWORD PTR _iXPos$[ebp]
  0014c	57		 push	 edi
  0014d	51		 push	 ecx
  0014e	51		 push	 ecx
  0014f	2b d1		 sub	 edx, ecx
  00151	8b 08		 mov	 ecx, DWORD PTR [eax]
  00153	f3 0f 11 44 24
	04		 movss	 DWORD PTR [esp+4], xmm0
  00159	81 c2 b0 00 00
	00		 add	 edx, 176		; 000000b0H
  0015f	0f 57 c0	 xorps	 xmm0, xmm0
  00162	f3 0f 2a c2	 cvtsi2ss xmm0, edx
  00166	f3 0f 11 04 24	 movss	 DWORD PTR [esp], xmm0
  0016b	ff d3		 call	 ebx
$LN20@OnRender@4:

; 1197 :  	}
; 1198 : 
; 1199 : 	for (int i = 0; i < iGaugeCnt ; i++)

  0016d	8b 45 f4	 mov	 eax, DWORD PTR _iGaugeCnt$[ebp]
  00170	3b c7		 cmp	 eax, edi
  00172	7e 48		 jle	 SHORT $LN17@OnRender@4
  00174	8b 5d f8	 mov	 ebx, DWORD PTR _iXPos$[ebp]
  00177	83 c3 11	 add	 ebx, 17			; 00000011H
  0017a	89 45 f0	 mov	 DWORD PTR tv242[ebp], eax
$LL19@OnRender@4:

; 1200 : 	{
; 1201 : 		if( m_pBatteryGauge )

  0017d	39 be 94 01 00
	00		 cmp	 DWORD PTR [esi+404], edi
  00183	74 2f		 je	 SHORT $LN18@OnRender@4

; 1202 : 			m_pBatteryGauge->Render( iXPos + GAUGE_X + ( GAUGE_GAP_X * i ), iYPos + GAUGE_Y  );

  00185	8b 8e 94 01 00
	00		 mov	 ecx, DWORD PTR [esi+404]
  0018b	8b 55 fc	 mov	 edx, DWORD PTR _iYPos$[ebp]
  0018e	8b 01		 mov	 eax, DWORD PTR [ecx]
  00190	57		 push	 edi
  00191	57		 push	 edi
  00192	57		 push	 edi
  00193	57		 push	 edi
  00194	0f 57 c0	 xorps	 xmm0, xmm0
  00197	51		 push	 ecx
  00198	83 c2 1c	 add	 edx, 28			; 0000001cH
  0019b	f3 0f 2a c2	 cvtsi2ss xmm0, edx
  0019f	51		 push	 ecx
  001a0	f3 0f 11 44 24
	04		 movss	 DWORD PTR [esp+4], xmm0
  001a6	0f 57 c0	 xorps	 xmm0, xmm0
  001a9	f3 0f 2a c3	 cvtsi2ss xmm0, ebx
  001ad	f3 0f 11 04 24	 movss	 DWORD PTR [esp], xmm0
  001b2	ff 10		 call	 DWORD PTR [eax]
$LN18@OnRender@4:

; 1197 :  	}
; 1198 : 
; 1199 : 	for (int i = 0; i < iGaugeCnt ; i++)

  001b4	83 c3 05	 add	 ebx, 5
  001b7	ff 4d f0	 dec	 DWORD PTR tv242[ebp]
  001ba	75 c1		 jne	 SHORT $LL19@OnRender@4
$LN17@OnRender@4:

; 1203 : 	}
; 1204 : 
; 1205 : 	// dist
; 1206 : 	int iCnt   = 0;
; 1207 : 	int iCheck = 10;
; 1208 : 	while( iCheck <= m_iArtifactDist )

  001bc	8b 86 04 02 00
	00		 mov	 eax, DWORD PTR [esi+516]
  001c2	6a 0a		 push	 10			; 0000000aH
  001c4	5a		 pop	 edx
  001c5	33 c9		 xor	 ecx, ecx
  001c7	3b c2		 cmp	 eax, edx
  001c9	7c 08		 jl	 SHORT $LN14@OnRender@4
$LL15@OnRender@4:

; 1209 : 	{
; 1210 : 		iCheck *= 10;

  001cb	6b d2 0a	 imul	 edx, 10			; 0000000aH

; 1211 : 		iCnt++;

  001ce	41		 inc	 ecx
  001cf	3b d0		 cmp	 edx, eax
  001d1	7e f8		 jle	 SHORT $LL15@OnRender@4
$LN14@OnRender@4:

; 1212 : 	}
; 1213 : 
; 1214 : 	int iXOffset = -32*iCnt;
; 1215 : 	if( m_iArtifactDist == -1 )

  001d3	f3 0f 10 05 00
	00 00 00	 movss	 xmm0, DWORD PTR __real@3f800000
  001db	6b c9 e0	 imul	 ecx, -32		; ffffffe0H
  001de	8b 1d 00 00 00
	00		 mov	 ebx, DWORD PTR __imp_?RenderNum@ioUIRenderImage@@QAEXMMHMMW4UIRenderType@@W4TextureFilterOption@@0W4RenerNumerFormatting@1@@Z
  001e4	83 f8 ff	 cmp	 eax, -1
  001e7	75 4d		 jne	 SHORT $LN13@OnRender@4

; 1216 : 	{
; 1217 : 		if( m_pDistNone )

  001e9	39 be c0 01 00
	00		 cmp	 DWORD PTR [esi+448], edi
  001ef	0f 84 58 01 00
	00		 je	 $LN4@OnRender@4

; 1218 : 			m_pDistNone->Render( iXPos + DIST_NONE_X + iXOffset, iYPos + DIST_NONE_Y );

  001f5	8b 55 fc	 mov	 edx, DWORD PTR _iYPos$[ebp]
  001f8	8b 86 c0 01 00
	00		 mov	 eax, DWORD PTR [esi+448]
  001fe	8b 00		 mov	 eax, DWORD PTR [eax]
  00200	57		 push	 edi
  00201	57		 push	 edi
  00202	57		 push	 edi
  00203	57		 push	 edi
  00204	83 c2 48	 add	 edx, 72			; 00000048H
  00207	0f 57 c0	 xorps	 xmm0, xmm0
  0020a	f3 0f 2a c2	 cvtsi2ss xmm0, edx
  0020e	8b 55 f8	 mov	 edx, DWORD PTR _iXPos$[ebp]
  00211	51		 push	 ecx
  00212	51		 push	 ecx
  00213	f3 0f 11 44 24
	04		 movss	 DWORD PTR [esp+4], xmm0
  00219	8d 4c 11 2c	 lea	 ecx, DWORD PTR [ecx+edx+44]
  0021d	0f 57 c0	 xorps	 xmm0, xmm0
  00220	f3 0f 2a c1	 cvtsi2ss xmm0, ecx
  00224	8b 8e c0 01 00
	00		 mov	 ecx, DWORD PTR [esi+448]
  0022a	f3 0f 11 04 24	 movss	 DWORD PTR [esp], xmm0
  0022f	ff 10		 call	 DWORD PTR [eax]

; 1219 : 	}

  00231	e9 17 01 00 00	 jmp	 $LN4@OnRender@4
$LN13@OnRender@4:

; 1220 : 	else if( m_iArtifactDist > BLUE_DIST )

  00236	83 f8 64	 cmp	 eax, 100		; 00000064H
  00239	7e 57		 jle	 SHORT $LN10@OnRender@4

; 1221 : 	{
; 1222 : 		if( m_pDistNumBlue )

  0023b	39 be b0 01 00
	00		 cmp	 DWORD PTR [esi+432], edi
  00241	0f 84 06 01 00
	00		 je	 $LN4@OnRender@4

; 1223 : 			m_pDistNumBlue->RenderNum( iXPos + DIST_NUM_X + iXOffset, iYPos + DIST_NUM_Y, m_iArtifactDist, FLOAT1 );

  00247	b8 01 00 00 00	 mov	 eax, 1
  0024c	57		 push	 edi
  0024d	57		 push	 edi
  0024e	57		 push	 edi
  0024f	57		 push	 edi
  00250	51		 push	 ecx
  00251	51		 push	 ecx
  00252	89 45 f0	 mov	 DWORD PTR tv587[ebp], eax
  00255	db 45 f0	 fild	 DWORD PTR tv587[ebp]
  00258	f3 0f 11 44 24
	04		 movss	 DWORD PTR [esp+4], xmm0
  0025e	85 c0		 test	 eax, eax
  00260	79 06		 jns	 SHORT $LN70@OnRender@4
  00262	d8 05 00 00 00
	00		 fadd	 DWORD PTR __real@4f800000
$LN70@OnRender@4:
  00268	8b 45 fc	 mov	 eax, DWORD PTR _iYPos$[ebp]
  0026b	d9 1c 24	 fstp	 DWORD PTR [esp]
  0026e	ff b6 04 02 00
	00		 push	 DWORD PTR [esi+516]
  00274	83 c0 2e	 add	 eax, 46			; 0000002eH
  00277	0f 57 c0	 xorps	 xmm0, xmm0
  0027a	f3 0f 2a c0	 cvtsi2ss xmm0, eax
  0027e	8b 45 f8	 mov	 eax, DWORD PTR _iXPos$[ebp]
  00281	51		 push	 ecx
  00282	51		 push	 ecx
  00283	8d 44 01 74	 lea	 eax, DWORD PTR [ecx+eax+116]
  00287	8b 8e b0 01 00
	00		 mov	 ecx, DWORD PTR [esi+432]

; 1224 : 	}

  0028d	e9 a7 00 00 00	 jmp	 $LN74@OnRender@4
$LN10@OnRender@4:

; 1225 : 	else if( m_iArtifactDist > YELLOW_DIST )

  00292	83 f8 32	 cmp	 eax, 50			; 00000032H
  00295	7e 54		 jle	 SHORT $LN7@OnRender@4

; 1226 : 	{
; 1227 : 		if( m_pDistNumYellow )

  00297	39 be b4 01 00
	00		 cmp	 DWORD PTR [esi+436], edi
  0029d	0f 84 aa 00 00
	00		 je	 $LN4@OnRender@4

; 1228 : 			m_pDistNumYellow->RenderNum( iXPos + DIST_NUM_X + iXOffset, iYPos + DIST_NUM_Y, m_iArtifactDist, FLOAT1 );

  002a3	b8 01 00 00 00	 mov	 eax, 1
  002a8	57		 push	 edi
  002a9	57		 push	 edi
  002aa	57		 push	 edi
  002ab	57		 push	 edi
  002ac	51		 push	 ecx
  002ad	51		 push	 ecx
  002ae	89 45 f0	 mov	 DWORD PTR tv578[ebp], eax
  002b1	db 45 f0	 fild	 DWORD PTR tv578[ebp]
  002b4	f3 0f 11 44 24
	04		 movss	 DWORD PTR [esp+4], xmm0
  002ba	85 c0		 test	 eax, eax
  002bc	79 06		 jns	 SHORT $LN71@OnRender@4
  002be	d8 05 00 00 00
	00		 fadd	 DWORD PTR __real@4f800000
$LN71@OnRender@4:
  002c4	8b 45 fc	 mov	 eax, DWORD PTR _iYPos$[ebp]
  002c7	d9 1c 24	 fstp	 DWORD PTR [esp]
  002ca	ff b6 04 02 00
	00		 push	 DWORD PTR [esi+516]
  002d0	83 c0 2e	 add	 eax, 46			; 0000002eH
  002d3	0f 57 c0	 xorps	 xmm0, xmm0
  002d6	f3 0f 2a c0	 cvtsi2ss xmm0, eax
  002da	8b 45 f8	 mov	 eax, DWORD PTR _iXPos$[ebp]
  002dd	51		 push	 ecx
  002de	51		 push	 ecx
  002df	8d 44 01 74	 lea	 eax, DWORD PTR [ecx+eax+116]
  002e3	8b 8e b4 01 00
	00		 mov	 ecx, DWORD PTR [esi+436]

; 1229 : 	}
; 1230 : 	else 

  002e9	eb 4e		 jmp	 SHORT $LN74@OnRender@4
$LN7@OnRender@4:

; 1231 : 	{
; 1232 : 		if( m_pDistNumRed )

  002eb	39 be b8 01 00
	00		 cmp	 DWORD PTR [esi+440], edi
  002f1	74 5a		 je	 SHORT $LN4@OnRender@4

; 1233 : 			m_pDistNumRed->RenderNum( iXPos + DIST_NUM_X + iXOffset, iYPos + DIST_NUM_Y, m_iArtifactDist, FLOAT1 );

  002f3	b8 01 00 00 00	 mov	 eax, 1
  002f8	57		 push	 edi
  002f9	57		 push	 edi
  002fa	57		 push	 edi
  002fb	57		 push	 edi
  002fc	51		 push	 ecx
  002fd	51		 push	 ecx
  002fe	89 45 f0	 mov	 DWORD PTR tv569[ebp], eax
  00301	db 45 f0	 fild	 DWORD PTR tv569[ebp]
  00304	f3 0f 11 44 24
	04		 movss	 DWORD PTR [esp+4], xmm0
  0030a	85 c0		 test	 eax, eax
  0030c	79 06		 jns	 SHORT $LN72@OnRender@4
  0030e	d8 05 00 00 00
	00		 fadd	 DWORD PTR __real@4f800000
$LN72@OnRender@4:
  00314	8b 45 fc	 mov	 eax, DWORD PTR _iYPos$[ebp]
  00317	d9 1c 24	 fstp	 DWORD PTR [esp]
  0031a	ff b6 04 02 00
	00		 push	 DWORD PTR [esi+516]
  00320	83 c0 2e	 add	 eax, 46			; 0000002eH
  00323	0f 57 c0	 xorps	 xmm0, xmm0
  00326	f3 0f 2a c0	 cvtsi2ss xmm0, eax
  0032a	8b 45 f8	 mov	 eax, DWORD PTR _iXPos$[ebp]
  0032d	51		 push	 ecx
  0032e	51		 push	 ecx
  0032f	8d 44 01 74	 lea	 eax, DWORD PTR [ecx+eax+116]
  00333	8b 8e b8 01 00
	00		 mov	 ecx, DWORD PTR [esi+440]
$LN74@OnRender@4:
  00339	f3 0f 11 44 24
	04		 movss	 DWORD PTR [esp+4], xmm0
  0033f	0f 57 c0	 xorps	 xmm0, xmm0
  00342	f3 0f 2a c0	 cvtsi2ss xmm0, eax
  00346	f3 0f 11 04 24	 movss	 DWORD PTR [esp], xmm0
  0034b	ff d3		 call	 ebx
$LN4@OnRender@4:

; 1234 : 	}
; 1235 : 	
; 1236 : 
; 1237 : 	// rate
; 1238 : 	iCnt      = 0;
; 1239 : 	iCheck    = 10;
; 1240 : 	while( iCheck <= m_iCurSuccessPercent )

  0034d	8b 96 80 02 00
	00		 mov	 edx, DWORD PTR [esi+640]
  00353	6a 0a		 push	 10			; 0000000aH
  00355	58		 pop	 eax
  00356	33 c9		 xor	 ecx, ecx
  00358	3b d0		 cmp	 edx, eax
  0035a	7c 08		 jl	 SHORT $LN2@OnRender@4
$LL3@OnRender@4:

; 1241 : 	{
; 1242 : 		iCheck *= 10;

  0035c	6b c0 0a	 imul	 eax, 10			; 0000000aH

; 1243 : 		iCnt++;

  0035f	41		 inc	 ecx
  00360	3b c2		 cmp	 eax, edx
  00362	7e f8		 jle	 SHORT $LL3@OnRender@4
$LN2@OnRender@4:

; 1244 : 	}
; 1245 : 
; 1246 : 	iXOffset = -10*iCnt;
; 1247 : 	if( m_pRateNum )

  00364	39 be bc 01 00
	00		 cmp	 DWORD PTR [esi+444], edi
  0036a	74 6a		 je	 SHORT $LN69@OnRender@4

; 1248 : 		m_pRateNum->RenderNum( iXPos + RATE_NUM_X + iXOffset, iYPos + RATE_NUM_Y, m_iCurSuccessPercent, -FLOAT1 );

  0036c	b8 01 00 00 00	 mov	 eax, 1
  00371	f3 0f 10 05 00
	00 00 00	 movss	 xmm0, DWORD PTR __real@3f800000
  00379	57		 push	 edi
  0037a	57		 push	 edi
  0037b	57		 push	 edi
  0037c	57		 push	 edi
  0037d	51		 push	 ecx
  0037e	51		 push	 ecx
  0037f	89 45 f0	 mov	 DWORD PTR tv559[ebp], eax
  00382	db 45 f0	 fild	 DWORD PTR tv559[ebp]
  00385	f3 0f 11 44 24
	04		 movss	 DWORD PTR [esp+4], xmm0
  0038b	85 c0		 test	 eax, eax
  0038d	79 06		 jns	 SHORT $LN73@OnRender@4
  0038f	d8 05 00 00 00
	00		 fadd	 DWORD PTR __real@4f800000
$LN73@OnRender@4:
  00395	8b 45 fc	 mov	 eax, DWORD PTR _iYPos$[ebp]
  00398	d9 e0		 fchs
  0039a	d9 1c 24	 fstp	 DWORD PTR [esp]
  0039d	ff b6 80 02 00
	00		 push	 DWORD PTR [esi+640]
  003a3	83 c0 17	 add	 eax, 23			; 00000017H
  003a6	51		 push	 ecx
  003a7	51		 push	 ecx
  003a8	6b c9 0a	 imul	 ecx, 10			; 0000000aH
  003ab	0f 57 c0	 xorps	 xmm0, xmm0
  003ae	f3 0f 2a c0	 cvtsi2ss xmm0, eax
  003b2	8b 45 f8	 mov	 eax, DWORD PTR _iXPos$[ebp]
  003b5	2b c1		 sub	 eax, ecx
  003b7	8b 8e bc 01 00
	00		 mov	 ecx, DWORD PTR [esi+444]
  003bd	f3 0f 11 44 24
	04		 movss	 DWORD PTR [esp+4], xmm0
  003c3	05 95 00 00 00	 add	 eax, 149		; 00000095H
  003c8	0f 57 c0	 xorps	 xmm0, xmm0
  003cb	f3 0f 2a c0	 cvtsi2ss xmm0, eax
  003cf	f3 0f 11 04 24	 movss	 DWORD PTR [esp], xmm0
  003d4	ff d3		 call	 ebx
$LN69@OnRender@4:
  003d6	5f		 pop	 edi
$LN1@OnRender@4:
  003d7	5e		 pop	 esi
  003d8	5b		 pop	 ebx

; 1249 : }

  003d9	c9		 leave
  003da	c3		 ret	 0
?OnRender@ExcavationSearchingWnd@@MAEXXZ ENDP		; ExcavationSearchingWnd::OnRender
_TEXT	ENDS
PUBLIC	?iwm_show@ExcavationSearchingWnd@@UAEXXZ	; ExcavationSearchingWnd::iwm_show
EXTRN	__imp_?Clear@ioHashString@@QAEXXZ:PROC
; Function compile flags: /Ogsp
;	COMDAT ?iwm_show@ExcavationSearchingWnd@@UAEXXZ
_TEXT	SEGMENT
?iwm_show@ExcavationSearchingWnd@@UAEXXZ PROC		; ExcavationSearchingWnd::iwm_show, COMDAT
; _this$ = ecx

; 1444 : {

  00000	56		 push	 esi
  00001	57		 push	 edi

; 1445 : 	ShowChildWnd( ID_EXCAVATING_BTN );

  00002	33 ff		 xor	 edi, edi
  00004	57		 push	 edi
  00005	6a 02		 push	 2
  00007	8b f1		 mov	 esi, ecx
  00009	ff 15 00 00 00
	00		 call	 DWORD PTR __imp_?ShowChildWnd@ioWnd@@QAEXK_N@Z

; 1446 : 	m_iWaveWidthcut = 0;
; 1447 : 	m_sCurWaveSound.Clear();

  0000f	8d 8e 70 02 00
	00		 lea	 ecx, DWORD PTR [esi+624]
  00015	89 be dc 01 00
	00		 mov	 DWORD PTR [esi+476], edi
  0001b	ff 15 00 00 00
	00		 call	 DWORD PTR __imp_?Clear@ioHashString@@QAEXXZ

; 1448 : 	m_iRangeTypeArray       = 0;

  00021	89 be d0 01 00
	00		 mov	 DWORD PTR [esi+464], edi

; 1449 : 	m_iCurGrowWaveTypeArray = 0;

  00027	89 be d4 01 00
	00		 mov	 DWORD PTR [esi+468], edi

; 1450 : 	m_iCurExtinctWaveTypeArray = 0;

  0002d	89 be d8 01 00
	00		 mov	 DWORD PTR [esi+472], edi

; 1451 : 	m_iArtifactDist            = 0;

  00033	89 be 04 02 00
	00		 mov	 DWORD PTR [esi+516], edi

; 1452 : 	m_iCurSuccessPercent       = 0;

  00039	89 be 80 02 00
	00		 mov	 DWORD PTR [esi+640], edi
  0003f	5f		 pop	 edi

; 1453 : 	m_bProcessRadarPos         = true;

  00040	c6 86 8c 02 00
	00 01		 mov	 BYTE PTR [esi+652], 1

; 1454 : 
; 1455 : 	UpdateExp();

  00047	8b ce		 mov	 ecx, esi
  00049	5e		 pop	 esi
  0004a	e9 00 00 00 00	 jmp	 ?UpdateExp@ExcavationSearchingWnd@@QAEXXZ ; ExcavationSearchingWnd::UpdateExp
?iwm_show@ExcavationSearchingWnd@@UAEXXZ ENDP		; ExcavationSearchingWnd::iwm_show
_TEXT	ENDS
PUBLIC	??_R0?AVGlobalTextTooltip@@@8			; GlobalTextTooltip `RTTI Type Descriptor'
PUBLIC	??_C@_0CH@DBIAADGF@ExcavationSearchingWnd?3?3ProcessT@ ; `string'
PUBLIC	_this$GSCopy$
PUBLIC	?ProcessToolTip@ExcavationSearchingWnd@@IAEXXZ	; ExcavationSearchingWnd::ProcessToolTip
EXTRN	??_M@YGXPAXIHP6EX0@Z@Z:PROC			; `eh vector destructor iterator'
EXTRN	?SetTooltipText@GlobalTextTooltip@@QAEXPAVioComplexStringPrinter@@@Z:PROC ; GlobalTextTooltip::SetTooltipText
EXTRN	?AddTextPiece@ioComplexStringPrinter@@QAEXMPBDHH@Z:PROC ; ioComplexStringPrinter::AddTextPiece
EXTRN	?SetTextColor@ioComplexStringPrinter@@QAEXK@Z:PROC ; ioComplexStringPrinter::SetTextColor
EXTRN	?SetBkColor@ioComplexStringPrinter@@QAEXHHH@Z:PROC ; ioComplexStringPrinter::SetBkColor
EXTRN	?SetTextStyle@ioComplexStringPrinter@@QAEXW4TextStyle@@@Z:PROC ; ioComplexStringPrinter::SetTextStyle
EXTRN	??_L@YGXPAXIHP6EX0@Z1@Z:PROC			; `eh vector constructor iterator'
EXTRN	??0ioComplexStringPrinter@@QAE@XZ:PROC		; ioComplexStringPrinter::ioComplexStringPrinter
EXTRN	??1ioComplexStringPrinter@@QAE@XZ:PROC		; ioComplexStringPrinter::~ioComplexStringPrinter
EXTRN	__imp_?GetParent@ioWnd@@QAEPAV1@XZ:PROC
EXTRN	__EH_epilog3_GS:PROC
EXTRN	__EH_prolog3_GS:PROC
;	COMDAT ??_R0?AVGlobalTextTooltip@@@8
; File d:\lost saga for developer\youtube\tutorial\source\src\lsclient\gui\iosp2guimanager.h
_DATA	SEGMENT
??_R0?AVGlobalTextTooltip@@@8 DD FLAT:??_7type_info@@6B@ ; GlobalTextTooltip `RTTI Type Descriptor'
	DD	00H
	DB	'.?AVGlobalTextTooltip@@', 00H
_DATA	ENDS
;	COMDAT ??_C@_0CH@DBIAADGF@ExcavationSearchingWnd?3?3ProcessT@
CONST	SEGMENT
??_C@_0CH@DBIAADGF@ExcavationSearchingWnd?3?3ProcessT@ DB 'ExcavationSear'
	DB	'chingWnd::ProcessToolTip', 00H		; `string'
CONST	ENDS
;	COMDAT xdata$x
xdata$x	SEGMENT
__unwindtable$?ProcessToolTip@ExcavationSearchingWnd@@IAEXXZ DD 0ffffffffH
	DD	FLAT:__unwindfunclet$?ProcessToolTip@ExcavationSearchingWnd@@IAEXXZ$0
__ehfuncinfo$?ProcessToolTip@ExcavationSearchingWnd@@IAEXXZ DD 019930522H
	DD	01H
	DD	FLAT:__unwindtable$?ProcessToolTip@ExcavationSearchingWnd@@IAEXXZ
	DD	2 DUP(00H)
	DD	2 DUP(00H)
	DD	00H
	DD	01H
; Function compile flags: /Ogsp
; File d:\lost saga for developer\youtube\tutorial\source\src\lsclient\gui\excavationwnd.cpp
xdata$x	ENDS
;	COMDAT ?ProcessToolTip@ExcavationSearchingWnd@@IAEXXZ
_TEXT	SEGMENT
_this$GSCopy$ = -180					; size = 4
_kPrinter$ = -176					; size = 160
__$EHRec$ = -12						; size = 12
?ProcessToolTip@ExcavationSearchingWnd@@IAEXXZ PROC	; ExcavationSearchingWnd::ProcessToolTip, COMDAT
; _this$ = ecx

; 1505 : {

  00000	68 a8 00 00 00	 push	 168			; 000000a8H
  00005	b8 00 00 00 00	 mov	 eax, __ehhandler$?ProcessToolTip@ExcavationSearchingWnd@@IAEXXZ
  0000a	e8 00 00 00 00	 call	 __EH_prolog3_GS
  0000f	89 8d 4c ff ff
	ff		 mov	 DWORD PTR _this$GSCopy$[ebp], ecx

; 1506 : 	DWORD dwCurOverID = 0;

  00015	33 db		 xor	 ebx, ebx
  00017	33 ff		 xor	 edi, edi

; 1507 : 	if( g_GUIMgr.GetPreOverWnd() )

  00019	e8 00 00 00 00	 call	 ?GetSingleton@ioSP2GUIManager@@SAAAV1@XZ ; ioSP2GUIManager::GetSingleton
  0001e	39 58 10	 cmp	 DWORD PTR [eax+16], ebx
  00021	74 26		 je	 SHORT $LN3@ProcessToo

; 1508 : 	{
; 1509 : 		if( g_GUIMgr.GetPreOverWnd()->GetParent() == this )

  00023	e8 00 00 00 00	 call	 ?GetSingleton@ioSP2GUIManager@@SAAAV1@XZ ; ioSP2GUIManager::GetSingleton
  00028	8b 48 10	 mov	 ecx, DWORD PTR [eax+16]
  0002b	ff 15 00 00 00
	00		 call	 DWORD PTR __imp_?GetParent@ioWnd@@QAEPAV1@XZ
  00031	3b 85 4c ff ff
	ff		 cmp	 eax, DWORD PTR _this$GSCopy$[ebp]
  00037	75 10		 jne	 SHORT $LN3@ProcessToo

; 1510 : 			dwCurOverID = g_GUIMgr.GetPreOverWnd()->GetID();

  00039	e8 00 00 00 00	 call	 ?GetSingleton@ioSP2GUIManager@@SAAAV1@XZ ; ioSP2GUIManager::GetSingleton
  0003e	8b 48 10	 mov	 ecx, DWORD PTR [eax+16]
  00041	ff 15 00 00 00
	00		 call	 DWORD PTR __imp_?GetID@ioWnd@@QBEKXZ
  00047	8b f8		 mov	 edi, eax
$LN3@ProcessToo:

; 1511 : 	}
; 1512 : 
; 1513 : 	ioComplexStringPrinter kPrinter[GLOBAL_TEXT_TOOLTIP_LINE];

  00049	be 00 00 00 00	 mov	 esi, OFFSET ??1ioComplexStringPrinter@@QAE@XZ ; ioComplexStringPrinter::~ioComplexStringPrinter
  0004e	56		 push	 esi
  0004f	68 00 00 00 00	 push	 OFFSET ??0ioComplexStringPrinter@@QAE@XZ ; ioComplexStringPrinter::ioComplexStringPrinter
  00054	6a 05		 push	 5
  00056	6a 20		 push	 32			; 00000020H
  00058	8d 85 50 ff ff
	ff		 lea	 eax, DWORD PTR _kPrinter$[ebp]
  0005e	50		 push	 eax
  0005f	e8 00 00 00 00	 call	 ??_L@YGXPAXIHP6EX0@Z1@Z
  00064	89 5d fc	 mov	 DWORD PTR __$EHRec$[ebp+8], ebx

; 1514 : 
; 1515 : 	if( ID_EXP_WND == dwCurOverID )

  00067	83 ff 03	 cmp	 edi, 3
  0006a	0f 85 86 00 00
	00		 jne	 $LN2@ProcessToo

; 1516 : 	{
; 1517 : 		kPrinter[0].SetTextStyle( TS_NORMAL );

  00070	53		 push	 ebx
  00071	8d 8d 50 ff ff
	ff		 lea	 ecx, DWORD PTR _kPrinter$[ebp]
  00077	e8 00 00 00 00	 call	 ?SetTextStyle@ioComplexStringPrinter@@QAEXW4TextStyle@@@Z ; ioComplexStringPrinter::SetTextStyle

; 1518 : 		kPrinter[0].SetBkColor( 0, 0, 0 );

  0007c	53		 push	 ebx
  0007d	53		 push	 ebx
  0007e	53		 push	 ebx
  0007f	8d 8d 50 ff ff
	ff		 lea	 ecx, DWORD PTR _kPrinter$[ebp]
  00085	e8 00 00 00 00	 call	 ?SetBkColor@ioComplexStringPrinter@@QAEXHHH@Z ; ioComplexStringPrinter::SetBkColor

; 1519 : 		kPrinter[0].SetTextColor( TCT_DEFAULT_DARKGRAY );

  0008a	68 3a 3a 3a ff	 push	 -12961222		; ff3a3a3aH
  0008f	8d 8d 50 ff ff
	ff		 lea	 ecx, DWORD PTR _kPrinter$[ebp]
  00095	e8 00 00 00 00	 call	 ?SetTextColor@ioComplexStringPrinter@@QAEXK@Z ; ioComplexStringPrinter::SetTextColor

; 1520 : 		kPrinter[0].AddTextPiece( FONT_SIZE_12, STR(1), g_MyInfo.GetExcavationExpert(), g_LevelMgr.GetNextExcavationLevelUpExp( g_MyInfo.GetExcavationLevel() ) );

  0009a	e8 00 00 00 00	 call	 ?GetSingleton@ioMyInfo@@SAAAV1@XZ ; ioMyInfo::GetSingleton
  0009f	8b c8		 mov	 ecx, eax
  000a1	e8 00 00 00 00	 call	 ?GetExcavationLevel@ioMyInfo@@QAEHXZ ; ioMyInfo::GetExcavationLevel
  000a6	50		 push	 eax
  000a7	e8 00 00 00 00	 call	 ?GetSingleton@ioMyLevelMgr@@SAAAV1@XZ ; ioMyLevelMgr::GetSingleton
  000ac	8b c8		 mov	 ecx, eax
  000ae	e8 00 00 00 00	 call	 ?GetNextExcavationLevelUpExp@ioMyLevelMgr@@QAEHH@Z ; ioMyLevelMgr::GetNextExcavationLevelUpExp
  000b3	50		 push	 eax
  000b4	e8 00 00 00 00	 call	 ?GetSingleton@ioMyInfo@@SAAAV1@XZ ; ioMyInfo::GetSingleton
  000b9	8b c8		 mov	 ecx, eax
  000bb	e8 00 00 00 00	 call	 ?GetExcavationExpert@ioMyInfo@@QAEHXZ ; ioMyInfo::GetExcavationExpert
  000c0	50		 push	 eax
  000c1	53		 push	 ebx
  000c2	6a 01		 push	 1
  000c4	68 00 00 00 00	 push	 OFFSET ??_C@_00CNPNBAHC@?$AA@
  000c9	68 00 00 00 00	 push	 OFFSET ??_C@_0CH@DBIAADGF@ExcavationSearchingWnd?3?3ProcessT@
  000ce	ff 15 00 00 00
	00		 call	 DWORD PTR __imp_?GetSingleton@ioStringManager@@SAAAV1@XZ
  000d4	8b c8		 mov	 ecx, eax
  000d6	ff 15 00 00 00
	00		 call	 DWORD PTR __imp_?GetString@ioStringManager@@QAEPADPBD0HW4FileNamePrefix@1@@Z
  000dc	f3 0f 10 05 00
	00 00 00	 movss	 xmm0, DWORD PTR __real@3f19999a
  000e4	50		 push	 eax
  000e5	51		 push	 ecx
  000e6	8d 8d 50 ff ff
	ff		 lea	 ecx, DWORD PTR _kPrinter$[ebp]
  000ec	f3 0f 11 04 24	 movss	 DWORD PTR [esp], xmm0
  000f1	e8 00 00 00 00	 call	 ?AddTextPiece@ioComplexStringPrinter@@QAEXMPBDHH@Z ; ioComplexStringPrinter::AddTextPiece
$LN2@ProcessToo:

; 1521 : 	}
; 1522 : 
; 1523 : 	GlobalTextTooltip *pTooltip = dynamic_cast<GlobalTextTooltip*>(FindChildWnd( ID_TOOL_TIP ));

  000f6	8b 8d 4c ff ff
	ff		 mov	 ecx, DWORD PTR _this$GSCopy$[ebp]
  000fc	53		 push	 ebx
  000fd	68 00 00 00 00	 push	 OFFSET ??_R0?AVGlobalTextTooltip@@@8
  00102	68 00 00 00 00	 push	 OFFSET ??_R0?AVioWnd@@@8
  00107	53		 push	 ebx
  00108	6a 04		 push	 4
  0010a	ff 15 00 00 00
	00		 call	 DWORD PTR __imp_?FindChildWnd@ioWnd@@QAEPAV1@K@Z
  00110	50		 push	 eax
  00111	e8 00 00 00 00	 call	 ___RTDynamicCast
  00116	83 c4 14	 add	 esp, 20			; 00000014H

; 1524 : 	if( pTooltip )

  00119	3b c3		 cmp	 eax, ebx
  0011b	74 0e		 je	 SHORT $LN1@ProcessToo

; 1525 : 	{
; 1526 : 		pTooltip->SetTooltipText( kPrinter );

  0011d	8d 8d 50 ff ff
	ff		 lea	 ecx, DWORD PTR _kPrinter$[ebp]
  00123	51		 push	 ecx
  00124	8b c8		 mov	 ecx, eax
  00126	e8 00 00 00 00	 call	 ?SetTooltipText@GlobalTextTooltip@@QAEXPAVioComplexStringPrinter@@@Z ; GlobalTextTooltip::SetTooltipText
$LN1@ProcessToo:

; 1527 : 	}
; 1528 : }

  0012b	83 4d fc ff	 or	 DWORD PTR __$EHRec$[ebp+8], -1
  0012f	56		 push	 esi
  00130	6a 05		 push	 5
  00132	6a 20		 push	 32			; 00000020H
  00134	8d 85 50 ff ff
	ff		 lea	 eax, DWORD PTR _kPrinter$[ebp]
  0013a	50		 push	 eax
  0013b	e8 00 00 00 00	 call	 ??_M@YGXPAXIHP6EX0@Z@Z
  00140	e8 00 00 00 00	 call	 __EH_epilog3_GS
  00145	c3		 ret	 0
_TEXT	ENDS
;	COMDAT text$x
text$x	SEGMENT
__unwindfunclet$?ProcessToolTip@ExcavationSearchingWnd@@IAEXXZ$0:
  00000	68 00 00 00 00	 push	 OFFSET ??1ioComplexStringPrinter@@QAE@XZ ; ioComplexStringPrinter::~ioComplexStringPrinter
  00005	6a 05		 push	 5
  00007	6a 20		 push	 32			; 00000020H
  00009	8d 85 50 ff ff
	ff		 lea	 eax, DWORD PTR _kPrinter$[ebp]
  0000f	50		 push	 eax
  00010	e8 00 00 00 00	 call	 ??_M@YGXPAXIHP6EX0@Z@Z
  00015	c3		 ret	 0
__ehhandler$?ProcessToolTip@ExcavationSearchingWnd@@IAEXXZ:
  00016	8b 54 24 08	 mov	 edx, DWORD PTR [esp+8]
  0001a	8d 42 0c	 lea	 eax, DWORD PTR [edx+12]
  0001d	8b 8a 48 ff ff
	ff		 mov	 ecx, DWORD PTR [edx-184]
  00023	33 c8		 xor	 ecx, eax
  00025	e8 00 00 00 00	 call	 @__security_check_cookie@4
  0002a	8b 4a fc	 mov	 ecx, DWORD PTR [edx-4]
  0002d	33 c8		 xor	 ecx, eax
  0002f	e8 00 00 00 00	 call	 @__security_check_cookie@4
  00034	b8 00 00 00 00	 mov	 eax, OFFSET __ehfuncinfo$?ProcessToolTip@ExcavationSearchingWnd@@IAEXXZ
  00039	e9 00 00 00 00	 jmp	 ___CxxFrameHandler3
text$x	ENDS
?ProcessToolTip@ExcavationSearchingWnd@@IAEXXZ ENDP	; ExcavationSearchingWnd::ProcessToolTip
; Function compile flags: /Ogsp
;	COMDAT ??_GExcavationBuyPopup@@UAEPAXI@Z
_TEXT	SEGMENT
___flags$ = 8						; size = 4
??_GExcavationBuyPopup@@UAEPAXI@Z PROC			; ExcavationBuyPopup::`scalar deleting destructor', COMDAT
; _this$ = ecx
  00000	55		 push	 ebp
  00001	8b ec		 mov	 ebp, esp
  00003	56		 push	 esi
  00004	8b f1		 mov	 esi, ecx
  00006	e8 00 00 00 00	 call	 ??1ExcavationBuyPopup@@UAE@XZ ; ExcavationBuyPopup::~ExcavationBuyPopup
  0000b	f6 45 08 01	 test	 BYTE PTR ___flags$[ebp], 1
  0000f	74 07		 je	 SHORT $LN1@scalar@5
  00011	56		 push	 esi
  00012	e8 00 00 00 00	 call	 ??3@YAXPAX@Z		; operator delete
  00017	59		 pop	 ecx
$LN1@scalar@5:
  00018	8b c6		 mov	 eax, esi
  0001a	5e		 pop	 esi
  0001b	5d		 pop	 ebp
  0001c	c2 04 00	 ret	 4
??_GExcavationBuyPopup@@UAEPAXI@Z ENDP			; ExcavationBuyPopup::`scalar deleting destructor'
_TEXT	ENDS
EXTRN	__imp_?CreateImageByFullName@ioUIImageSetManager@@QAEPAVioUIRenderImage@@ABVioHashString@@_N@Z:PROC
EXTRN	__imp_?GetSingleton@ioUIImageSetManager@@SAAAV1@XZ:PROC
EXTRN	?FindEtcItem@ioEtcItemManager@@QAEPAVioEtcItem@@K@Z:PROC ; ioEtcItemManager::FindEtcItem
; Function compile flags: /Ogsp
;	COMDAT ?iwm_show@ExcavationBuyPopup@@UAEXXZ
_TEXT	SEGMENT
?iwm_show@ExcavationBuyPopup@@UAEXXZ PROC		; ExcavationBuyPopup::iwm_show, COMDAT
; _this$ = ecx

; 1543 : {

  00000	56		 push	 esi
  00001	57		 push	 edi
  00002	8b f1		 mov	 esi, ecx

; 1544 : 	ioEtcItem *pEtcItem = g_EtcItemMgr.FindEtcItem( ioEtcItem::EIT_ETC_EXCAVATING_KIT );

  00004	8b 0d 00 00 00
	00		 mov	 ecx, DWORD PTR ?ms_Singleton@?$Singleton@VioEtcItemManager@@@@1PAVioEtcItemManager@@A ; Singleton<ioEtcItemManager>::ms_Singleton
  0000a	68 a0 84 1e 00	 push	 2000032			; 001e84a0H
  0000f	e8 00 00 00 00	 call	 ?FindEtcItem@ioEtcItemManager@@QAEPAVioEtcItem@@K@Z ; ioEtcItemManager::FindEtcItem
  00014	8b f8		 mov	 edi, eax

; 1545 : 	if( !pEtcItem )

  00016	85 ff		 test	 edi, edi
  00018	75 0a		 jne	 SHORT $LN2@iwm_show@2

; 1546 : 	{
; 1547 : 		HideWnd();

  0001a	5f		 pop	 edi
  0001b	8b ce		 mov	 ecx, esi
  0001d	5e		 pop	 esi
  0001e	ff 25 00 00 00
	00		 jmp	 DWORD PTR __imp_?HideWnd@ioWnd@@QAEXXZ
$LN2@iwm_show@2:

; 1548 : 		return;
; 1549 : 	}
; 1550 : 
; 1551 : 	m_szItemName = pEtcItem->GetName();

  00024	8d 47 04	 lea	 eax, DWORD PTR [edi+4]
  00027	50		 push	 eax
  00028	8d 8e 68 01 00
	00		 lea	 ecx, DWORD PTR [esi+360]
  0002e	ff 15 00 00 00
	00		 call	 DWORD PTR __imp_??4ioHashString@@QAEAAV0@ABV0@@Z

; 1552 : 
; 1553 : 	SAFEDELETE( m_pItemIcon );

  00034	8b 8e 64 01 00
	00		 mov	 ecx, DWORD PTR [esi+356]
  0003a	85 c9		 test	 ecx, ecx
  0003c	74 0e		 je	 SHORT $LN1@iwm_show@2
  0003e	8b 01		 mov	 eax, DWORD PTR [ecx]
  00040	6a 01		 push	 1
  00042	ff 50 40	 call	 DWORD PTR [eax+64]
  00045	83 a6 64 01 00
	00 00		 and	 DWORD PTR [esi+356], 0
$LN1@iwm_show@2:

; 1554 : 	m_pItemIcon = g_UIImageSetMgr.CreateImageByFullName( pEtcItem->GetIconName() );

  0004c	6a 00		 push	 0
  0004e	81 c7 60 01 00
	00		 add	 edi, 352		; 00000160H
  00054	57		 push	 edi
  00055	ff 15 00 00 00
	00		 call	 DWORD PTR __imp_?GetSingleton@ioUIImageSetManager@@SAAAV1@XZ
  0005b	8b c8		 mov	 ecx, eax
  0005d	ff 15 00 00 00
	00		 call	 DWORD PTR __imp_?CreateImageByFullName@ioUIImageSetManager@@QAEPAVioUIRenderImage@@ABVioHashString@@_N@Z
  00063	5f		 pop	 edi
  00064	89 86 64 01 00
	00		 mov	 DWORD PTR [esi+356], eax
  0006a	5e		 pop	 esi

; 1555 : }

  0006b	c3		 ret	 0
?iwm_show@ExcavationBuyPopup@@UAEXXZ ENDP		; ExcavationBuyPopup::iwm_show
_TEXT	ENDS
PUBLIC	??8?$CEncrypt@H@@QAE_NABH@Z			; CEncrypt<int>::operator==
; Function compile flags: /Ogsp
; File d:\lost saga for developer\youtube\tutorial\source\src\lsclient\encryptvalue.h
;	COMDAT ??8?$CEncrypt@H@@QAE_NABH@Z
_TEXT	SEGMENT
_value$ = -4						; size = 4
_inValue$ = 8						; size = 4
??8?$CEncrypt@H@@QAE_NABH@Z PROC			; CEncrypt<int>::operator==, COMDAT
; _this$ = ecx

; 976  : 	{

  00000	55		 push	 ebp
  00001	8b ec		 mov	 ebp, esp
  00003	51		 push	 ecx

; 977  : 		
; 978  : 		type value;
; 979  : 		DecryptValueToPool(&value);

  00004	8d 45 fc	 lea	 eax, DWORD PTR _value$[ebp]
  00007	50		 push	 eax
  00008	e8 00 00 00 00	 call	 ?DecryptValueToPool@?$CEncrypt@H@@QAEXPAH@Z ; CEncrypt<int>::DecryptValueToPool

; 980  : #ifdef _NOTUSE
; 981  : 		Debug();
; 982  : #endif
; 983  : 		return (value == inValue);

  0000d	8b 4d 08	 mov	 ecx, DWORD PTR _inValue$[ebp]
  00010	8b 55 fc	 mov	 edx, DWORD PTR _value$[ebp]
  00013	33 c0		 xor	 eax, eax
  00015	3b 11		 cmp	 edx, DWORD PTR [ecx]
  00017	0f 94 c0	 sete	 al

; 984  : 	} 

  0001a	c9		 leave
  0001b	c2 04 00	 ret	 4
??8?$CEncrypt@H@@QAE_NABH@Z ENDP			; CEncrypt<int>::operator==
_TEXT	ENDS
PUBLIC	??O?$CEncrypt@H@@QAE_NABH@Z			; CEncrypt<int>::operator>
; Function compile flags: /Ogsp
;	COMDAT ??O?$CEncrypt@H@@QAE_NABH@Z
_TEXT	SEGMENT
_value$ = -4						; size = 4
_inValue$ = 8						; size = 4
??O?$CEncrypt@H@@QAE_NABH@Z PROC			; CEncrypt<int>::operator>, COMDAT
; _this$ = ecx

; 1009 : 	{

  00000	55		 push	 ebp
  00001	8b ec		 mov	 ebp, esp
  00003	51		 push	 ecx

; 1010 : 		
; 1011 : 		type value;
; 1012 : 		DecryptValueToPool(&value);

  00004	8d 45 fc	 lea	 eax, DWORD PTR _value$[ebp]
  00007	50		 push	 eax
  00008	e8 00 00 00 00	 call	 ?DecryptValueToPool@?$CEncrypt@H@@QAEXPAH@Z ; CEncrypt<int>::DecryptValueToPool

; 1013 : #ifdef _NOTUSE
; 1014 : 		Debug();
; 1015 : #endif
; 1016 : 		return (value > inValue);

  0000d	8b 4d 08	 mov	 ecx, DWORD PTR _inValue$[ebp]
  00010	8b 55 fc	 mov	 edx, DWORD PTR _value$[ebp]
  00013	33 c0		 xor	 eax, eax
  00015	3b 11		 cmp	 edx, DWORD PTR [ecx]
  00017	0f 9f c0	 setg	 al

; 1017 : 	}		

  0001a	c9		 leave
  0001b	c2 04 00	 ret	 4
??O?$CEncrypt@H@@QAE_NABH@Z ENDP			; CEncrypt<int>::operator>
_TEXT	ENDS
PUBLIC	??4?$CEncrypt@H@@QAEHK@Z			; CEncrypt<int>::operator=
; Function compile flags: /Ogsp
;	COMDAT ??4?$CEncrypt@H@@QAEHK@Z
_TEXT	SEGMENT
_value$ = 8						; size = 4
_inValue$ = 8						; size = 4
??4?$CEncrypt@H@@QAEHK@Z PROC				; CEncrypt<int>::operator=, COMDAT
; _this$ = ecx

; 1262 : 	{

  00000	55		 push	 ebp
  00001	8b ec		 mov	 ebp, esp

; 1263 : 		
; 1264 : 		type value = inValue;

  00003	8b 45 08	 mov	 eax, DWORD PTR _inValue$[ebp]
  00006	89 45 08	 mov	 DWORD PTR _value$[ebp], eax

; 1265 : 		EncryptValueToPool((char*)&value);

  00009	8d 45 08	 lea	 eax, DWORD PTR _value$[ebp]
  0000c	50		 push	 eax
  0000d	e8 00 00 00 00	 call	 ?EncryptValueToPool@?$CEncrypt@H@@AAEXPBD@Z ; CEncrypt<int>::EncryptValueToPool

; 1266 : #ifdef _NOTUSE
; 1267 : 		m_value = inValue;
; 1268 : 		Debug();
; 1269 : #endif
; 1270 : 		return value;

  00012	8b 45 08	 mov	 eax, DWORD PTR _value$[ebp]

; 1271 : 	}

  00015	5d		 pop	 ebp
  00016	c2 04 00	 ret	 4
??4?$CEncrypt@H@@QAEHK@Z ENDP				; CEncrypt<int>::operator=
_TEXT	ENDS
PUBLIC	?begin@?$vector@PAVioBaseChar@@V?$allocator@PAVioBaseChar@@@std@@@std@@QBE?AV?$_Vector_const_iterator@V?$_Vector_val@PAVioBaseChar@@V?$allocator@PAVioBaseChar@@@std@@@std@@@2@XZ ; std::vector<ioBaseChar *,std::allocator<ioBaseChar *> >::begin
; Function compile flags: /Ogsp
; File c:\program files (x86)\microsoft visual studio 10.0\vc\include\vector
;	COMDAT ?begin@?$vector@PAVioBaseChar@@V?$allocator@PAVioBaseChar@@@std@@@std@@QBE?AV?$_Vector_const_iterator@V?$_Vector_val@PAVioBaseChar@@V?$allocator@PAVioBaseChar@@@std@@@std@@@2@XZ
_TEXT	SEGMENT
___$ReturnUdt$ = 8					; size = 4
?begin@?$vector@PAVioBaseChar@@V?$allocator@PAVioBaseChar@@@std@@@std@@QBE?AV?$_Vector_const_iterator@V?$_Vector_val@PAVioBaseChar@@V?$allocator@PAVioBaseChar@@@std@@@std@@@2@XZ PROC ; std::vector<ioBaseChar *,std::allocator<ioBaseChar *> >::begin, COMDAT
; _this$ = ecx

; 786  : 		{	// return iterator for beginning of nonmutable sequence

  00000	55		 push	 ebp
  00001	8b ec		 mov	 ebp, esp

; 787  : 		return (const_iterator(this->_Myfirst, this));

  00003	8b 09		 mov	 ecx, DWORD PTR [ecx]
  00005	8b 45 08	 mov	 eax, DWORD PTR ___$ReturnUdt$[ebp]
  00008	89 08		 mov	 DWORD PTR [eax], ecx

; 788  : 		}

  0000a	5d		 pop	 ebp
  0000b	c2 04 00	 ret	 4
?begin@?$vector@PAVioBaseChar@@V?$allocator@PAVioBaseChar@@@std@@@std@@QBE?AV?$_Vector_const_iterator@V?$_Vector_val@PAVioBaseChar@@V?$allocator@PAVioBaseChar@@@std@@@std@@@2@XZ ENDP ; std::vector<ioBaseChar *,std::allocator<ioBaseChar *> >::begin
_TEXT	ENDS
PUBLIC	?end@?$vector@PAVioBaseChar@@V?$allocator@PAVioBaseChar@@@std@@@std@@QBE?AV?$_Vector_const_iterator@V?$_Vector_val@PAVioBaseChar@@V?$allocator@PAVioBaseChar@@@std@@@std@@@2@XZ ; std::vector<ioBaseChar *,std::allocator<ioBaseChar *> >::end
; Function compile flags: /Ogsp
;	COMDAT ?end@?$vector@PAVioBaseChar@@V?$allocator@PAVioBaseChar@@@std@@@std@@QBE?AV?$_Vector_const_iterator@V?$_Vector_val@PAVioBaseChar@@V?$allocator@PAVioBaseChar@@@std@@@std@@@2@XZ
_TEXT	SEGMENT
___$ReturnUdt$ = 8					; size = 4
?end@?$vector@PAVioBaseChar@@V?$allocator@PAVioBaseChar@@@std@@@std@@QBE?AV?$_Vector_const_iterator@V?$_Vector_val@PAVioBaseChar@@V?$allocator@PAVioBaseChar@@@std@@@std@@@2@XZ PROC ; std::vector<ioBaseChar *,std::allocator<ioBaseChar *> >::end, COMDAT
; _this$ = ecx

; 796  : 		{	// return iterator for end of nonmutable sequence

  00000	55		 push	 ebp
  00001	8b ec		 mov	 ebp, esp

; 797  : 		return (const_iterator(this->_Mylast, this));

  00003	8b 49 04	 mov	 ecx, DWORD PTR [ecx+4]
  00006	8b 45 08	 mov	 eax, DWORD PTR ___$ReturnUdt$[ebp]
  00009	89 08		 mov	 DWORD PTR [eax], ecx

; 798  : 		}

  0000b	5d		 pop	 ebp
  0000c	c2 04 00	 ret	 4
?end@?$vector@PAVioBaseChar@@V?$allocator@PAVioBaseChar@@@std@@@std@@QBE?AV?$_Vector_const_iterator@V?$_Vector_val@PAVioBaseChar@@V?$allocator@PAVioBaseChar@@@std@@@std@@@2@XZ ENDP ; std::vector<ioBaseChar *,std::allocator<ioBaseChar *> >::end
_TEXT	ENDS
PUBLIC	??8?$_Vector_const_iterator@V?$_Vector_val@PAVioBaseChar@@V?$allocator@PAVioBaseChar@@@std@@@std@@@std@@QBE_NABV01@@Z ; std::_Vector_const_iterator<std::_Vector_val<ioBaseChar *,std::allocator<ioBaseChar *> > >::operator==
; Function compile flags: /Ogsp
;	COMDAT ??8?$_Vector_const_iterator@V?$_Vector_val@PAVioBaseChar@@V?$allocator@PAVioBaseChar@@@std@@@std@@@std@@QBE_NABV01@@Z
_TEXT	SEGMENT
__Right$ = 8						; size = 4
??8?$_Vector_const_iterator@V?$_Vector_val@PAVioBaseChar@@V?$allocator@PAVioBaseChar@@@std@@@std@@@std@@QBE_NABV01@@Z PROC ; std::_Vector_const_iterator<std::_Vector_val<ioBaseChar *,std::allocator<ioBaseChar *> > >::operator==, COMDAT
; _this$ = ecx

; 201  : 		{	// test for iterator equality

  00000	55		 push	 ebp
  00001	8b ec		 mov	 ebp, esp

; 202  : 		_Compat(_Right);
; 203  : 		return (this->_Ptr == _Right._Ptr);

  00003	8b 01		 mov	 eax, DWORD PTR [ecx]
  00005	8b 4d 08	 mov	 ecx, DWORD PTR __Right$[ebp]
  00008	2b 01		 sub	 eax, DWORD PTR [ecx]
  0000a	f7 d8		 neg	 eax
  0000c	1b c0		 sbb	 eax, eax
  0000e	40		 inc	 eax

; 204  : 		}

  0000f	5d		 pop	 ebp
  00010	c2 04 00	 ret	 4
??8?$_Vector_const_iterator@V?$_Vector_val@PAVioBaseChar@@V?$allocator@PAVioBaseChar@@@std@@@std@@@std@@QBE_NABV01@@Z ENDP ; std::_Vector_const_iterator<std::_Vector_val<ioBaseChar *,std::allocator<ioBaseChar *> > >::operator==
_TEXT	ENDS
PUBLIC	__$ArrayPad$
PUBLIC	??$?8$0BA@@@YA_NABVioHashString@@AAY0BA@$$CBD@Z	; operator==<16>
; Function compile flags: /Ogsp
; File d:\lost saga for developer\youtube\tutorial\source\src\io3dengine\iohashstring.h
;	COMDAT ??$?8$0BA@@@YA_NABVioHashString@@AAY0BA@$$CBD@Z
_TEXT	SEGMENT
__t$ = -24						; size = 16
__$ArrayPad$ = -4					; size = 4
_lhs$ = 8						; size = 4
_t$ = 12						; size = 4
??$?8$0BA@@@YA_NABVioHashString@@AAY0BA@$$CBD@Z PROC	; operator==<16>, COMDAT

; 146  : {

  00000	55		 push	 ebp
  00001	8b ec		 mov	 ebp, esp
  00003	83 ec 18	 sub	 esp, 24			; 00000018H
  00006	a1 00 00 00 00	 mov	 eax, DWORD PTR ___security_cookie
  0000b	33 c5		 xor	 eax, ebp
  0000d	89 45 fc	 mov	 DWORD PTR __$ArrayPad$[ebp], eax
  00010	8b 45 0c	 mov	 eax, DWORD PTR _t$[ebp]

; 147  : 	_ENCSTR(t, _t); return ( strcmp( lhs.c_str(), _t ) == 0 );

  00013	8a 10		 mov	 dl, BYTE PTR [eax]
  00015	56		 push	 esi
  00016	57		 push	 edi
  00017	8b 7d 08	 mov	 edi, DWORD PTR _lhs$[ebp]
  0001a	84 d2		 test	 dl, dl
  0001c	0f 84 8c 01 00
	00		 je	 $LN96@operator
  00022	80 f2 ed	 xor	 dl, -19			; ffffffedH
  00025	88 55 e8	 mov	 BYTE PTR __t$[ebp], dl
  00028	8a 50 01	 mov	 dl, BYTE PTR [eax+1]
  0002b	84 d2		 test	 dl, dl
  0002d	0f 84 75 01 00
	00		 je	 $LN95@operator
  00033	80 f2 ec	 xor	 dl, -20			; ffffffecH
  00036	88 55 e9	 mov	 BYTE PTR __t$[ebp+1], dl
  00039	8a 50 02	 mov	 dl, BYTE PTR [eax+2]
  0003c	84 d2		 test	 dl, dl
  0003e	0f 84 5e 01 00
	00		 je	 $LN94@operator
  00044	b1 eb		 mov	 cl, -21			; ffffffebH
  00046	32 d1		 xor	 dl, cl
  00048	88 55 ea	 mov	 BYTE PTR __t$[ebp+2], dl
  0004b	8a 50 03	 mov	 dl, BYTE PTR [eax+3]
  0004e	84 d2		 test	 dl, dl
  00050	0f 84 46 01 00
	00		 je	 $LN93@operator
  00056	80 f2 ea	 xor	 dl, -22			; ffffffeaH
  00059	88 55 eb	 mov	 BYTE PTR __t$[ebp+3], dl
  0005c	8a 50 04	 mov	 dl, BYTE PTR [eax+4]
  0005f	84 d2		 test	 dl, dl
  00061	0f 84 2f 01 00
	00		 je	 $LN92@operator
  00067	80 f2 ed	 xor	 dl, -19			; ffffffedH
  0006a	88 55 ec	 mov	 BYTE PTR __t$[ebp+4], dl
  0006d	8a 50 05	 mov	 dl, BYTE PTR [eax+5]
  00070	84 d2		 test	 dl, dl
  00072	0f 84 18 01 00
	00		 je	 $LN91@operator
  00078	80 f2 ec	 xor	 dl, -20			; ffffffecH
  0007b	88 55 ed	 mov	 BYTE PTR __t$[ebp+5], dl
  0007e	8a 50 06	 mov	 dl, BYTE PTR [eax+6]
  00081	84 d2		 test	 dl, dl
  00083	0f 84 02 01 00
	00		 je	 $LN90@operator
  00089	32 d1		 xor	 dl, cl
  0008b	88 55 ee	 mov	 BYTE PTR __t$[ebp+6], dl
  0008e	8a 50 07	 mov	 dl, BYTE PTR [eax+7]
  00091	84 d2		 test	 dl, dl
  00093	0f 84 ec 00 00
	00		 je	 $LN89@operator
  00099	80 f2 ea	 xor	 dl, -22			; ffffffeaH
  0009c	88 55 ef	 mov	 BYTE PTR __t$[ebp+7], dl
  0009f	8a 50 08	 mov	 dl, BYTE PTR [eax+8]
  000a2	84 d2		 test	 dl, dl
  000a4	0f 84 d5 00 00
	00		 je	 $LN88@operator
  000aa	80 f2 ed	 xor	 dl, -19			; ffffffedH
  000ad	88 55 f0	 mov	 BYTE PTR __t$[ebp+8], dl
  000b0	8a 50 09	 mov	 dl, BYTE PTR [eax+9]
  000b3	84 d2		 test	 dl, dl
  000b5	0f 84 be 00 00
	00		 je	 $LN87@operator
  000bb	80 f2 ec	 xor	 dl, -20			; ffffffecH
  000be	88 55 f1	 mov	 BYTE PTR __t$[ebp+9], dl
  000c1	8a 50 0a	 mov	 dl, BYTE PTR [eax+10]
  000c4	84 d2		 test	 dl, dl
  000c6	0f 84 a8 00 00
	00		 je	 $LN86@operator
  000cc	32 d1		 xor	 dl, cl
  000ce	88 55 f2	 mov	 BYTE PTR __t$[ebp+10], dl
  000d1	8a 50 0b	 mov	 dl, BYTE PTR [eax+11]
  000d4	84 d2		 test	 dl, dl
  000d6	0f 84 92 00 00
	00		 je	 $LN85@operator
  000dc	80 f2 ea	 xor	 dl, -22			; ffffffeaH
  000df	88 55 f3	 mov	 BYTE PTR __t$[ebp+11], dl
  000e2	8a 50 0c	 mov	 dl, BYTE PTR [eax+12]
  000e5	84 d2		 test	 dl, dl
  000e7	74 7f		 je	 SHORT $LN84@operator
  000e9	80 f2 ed	 xor	 dl, -19			; ffffffedH
  000ec	88 55 f4	 mov	 BYTE PTR __t$[ebp+12], dl
  000ef	8a 50 0d	 mov	 dl, BYTE PTR [eax+13]
  000f2	84 d2		 test	 dl, dl
  000f4	74 6c		 je	 SHORT $LN83@operator
  000f6	80 f2 ec	 xor	 dl, -20			; ffffffecH
  000f9	88 55 f5	 mov	 BYTE PTR __t$[ebp+13], dl
  000fc	8a 50 0e	 mov	 dl, BYTE PTR [eax+14]
  000ff	84 d2		 test	 dl, dl
  00101	74 5a		 je	 SHORT $LN82@operator
  00103	32 d1		 xor	 dl, cl
  00105	80 78 0f 00	 cmp	 BYTE PTR [eax+15], 0
  00109	88 55 f6	 mov	 BYTE PTR __t$[ebp+14], dl
  0010c	0f 84 a0 00 00
	00		 je	 $LN1@operator
  00112	8a 50 10	 mov	 dl, BYTE PTR [eax+16]
  00115	84 d2		 test	 dl, dl
  00117	74 3e		 je	 SHORT $LN80@operator
  00119	80 f2 ed	 xor	 dl, -19			; ffffffedH
  0011c	88 55 f8	 mov	 BYTE PTR __t$[ebp+16], dl
  0011f	8a 50 11	 mov	 dl, BYTE PTR [eax+17]
  00122	84 d2		 test	 dl, dl
  00124	74 2b		 je	 SHORT $LN79@operator
  00126	80 f2 ec	 xor	 dl, -20			; ffffffecH
  00129	88 55 f9	 mov	 BYTE PTR __t$[ebp+17], dl
  0012c	8a 50 12	 mov	 dl, BYTE PTR [eax+18]
  0012f	84 d2		 test	 dl, dl
  00131	74 19		 je	 SHORT $LN78@operator
  00133	8a 40 13	 mov	 al, BYTE PTR [eax+19]
  00136	32 d1		 xor	 dl, cl
  00138	88 55 fa	 mov	 BYTE PTR __t$[ebp+18], dl
  0013b	84 c0		 test	 al, al
  0013d	74 07		 je	 SHORT $LN77@operator
  0013f	34 ea		 xor	 al, -22			; ffffffeaH
  00141	88 45 fb	 mov	 BYTE PTR __t$[ebp+19], al
  00144	eb 6c		 jmp	 SHORT $LN1@operator
$LN77@operator:
  00146	c6 45 fb ea	 mov	 BYTE PTR __t$[ebp+19], -22 ; ffffffeaH
  0014a	eb 66		 jmp	 SHORT $LN1@operator
$LN78@operator:
  0014c	88 4d fa	 mov	 BYTE PTR __t$[ebp+18], cl
  0014f	eb 61		 jmp	 SHORT $LN1@operator
$LN79@operator:
  00151	c6 45 f9 ec	 mov	 BYTE PTR __t$[ebp+17], -20 ; ffffffecH
  00155	eb 5b		 jmp	 SHORT $LN1@operator
$LN80@operator:
  00157	c6 45 f8 ed	 mov	 BYTE PTR __t$[ebp+16], -19 ; ffffffedH
  0015b	eb 55		 jmp	 SHORT $LN1@operator
$LN82@operator:
  0015d	88 4d f6	 mov	 BYTE PTR __t$[ebp+14], cl
  00160	eb 50		 jmp	 SHORT $LN1@operator
$LN83@operator:
  00162	c6 45 f5 ec	 mov	 BYTE PTR __t$[ebp+13], -20 ; ffffffecH
  00166	eb 4a		 jmp	 SHORT $LN1@operator
$LN84@operator:
  00168	c6 45 f4 ed	 mov	 BYTE PTR __t$[ebp+12], -19 ; ffffffedH
  0016c	eb 44		 jmp	 SHORT $LN1@operator
$LN85@operator:
  0016e	c6 45 f3 ea	 mov	 BYTE PTR __t$[ebp+11], -22 ; ffffffeaH
  00172	eb 3e		 jmp	 SHORT $LN1@operator
$LN86@operator:
  00174	88 4d f2	 mov	 BYTE PTR __t$[ebp+10], cl
  00177	eb 39		 jmp	 SHORT $LN1@operator
$LN87@operator:
  00179	c6 45 f1 ec	 mov	 BYTE PTR __t$[ebp+9], -20 ; ffffffecH
  0017d	eb 33		 jmp	 SHORT $LN1@operator
$LN88@operator:
  0017f	c6 45 f0 ed	 mov	 BYTE PTR __t$[ebp+8], -19 ; ffffffedH
  00183	eb 2d		 jmp	 SHORT $LN1@operator
$LN89@operator:
  00185	c6 45 ef ea	 mov	 BYTE PTR __t$[ebp+7], -22 ; ffffffeaH
  00189	eb 27		 jmp	 SHORT $LN1@operator
$LN90@operator:
  0018b	88 4d ee	 mov	 BYTE PTR __t$[ebp+6], cl
  0018e	eb 22		 jmp	 SHORT $LN1@operator
$LN91@operator:
  00190	c6 45 ed ec	 mov	 BYTE PTR __t$[ebp+5], -20 ; ffffffecH
  00194	eb 1c		 jmp	 SHORT $LN1@operator
$LN92@operator:
  00196	c6 45 ec ed	 mov	 BYTE PTR __t$[ebp+4], -19 ; ffffffedH
  0019a	eb 16		 jmp	 SHORT $LN1@operator
$LN93@operator:
  0019c	c6 45 eb ea	 mov	 BYTE PTR __t$[ebp+3], -22 ; ffffffeaH
  001a0	eb 10		 jmp	 SHORT $LN1@operator
$LN94@operator:
  001a2	c6 45 ea eb	 mov	 BYTE PTR __t$[ebp+2], -21 ; ffffffebH
  001a6	eb 0a		 jmp	 SHORT $LN1@operator
$LN95@operator:
  001a8	c6 45 e9 ec	 mov	 BYTE PTR __t$[ebp+1], -20 ; ffffffecH
  001ac	eb 04		 jmp	 SHORT $LN1@operator
$LN96@operator:
  001ae	c6 45 e8 ed	 mov	 BYTE PTR __t$[ebp], -19	; ffffffedH
$LN1@operator:
  001b2	6a 03		 push	 3
  001b4	8d 45 e8	 lea	 eax, DWORD PTR __t$[ebp]
  001b7	c6 45 f7 00	 mov	 BYTE PTR __t$[ebp+15], 0
  001bb	5a		 pop	 edx
$LL104@operator:
  001bc	81 30 ed ec eb
	ea		 xor	 DWORD PTR [eax], -353637139 ; eaebecedH
  001c2	83 c0 04	 add	 eax, 4
  001c5	4a		 dec	 edx
  001c6	75 f4		 jne	 SHORT $LL104@operator
  001c8	6a 0c		 push	 12			; 0000000cH
  001ca	58		 pop	 eax
$LL101@operator:
  001cb	8b c8		 mov	 ecx, eax
  001cd	81 e1 03 00 00
	80		 and	 ecx, -2147483645	; 80000003H
  001d3	79 05		 jns	 SHORT $LN115@operator
  001d5	49		 dec	 ecx
  001d6	83 c9 fc	 or	 ecx, -4			; fffffffcH
  001d9	41		 inc	 ecx
$LN115@operator:
  001da	b2 ed		 mov	 dl, -19			; ffffffedH
  001dc	2a d1		 sub	 dl, cl
  001de	30 54 05 e8	 xor	 BYTE PTR __t$[ebp+eax], dl
  001e2	40		 inc	 eax
  001e3	83 f8 0f	 cmp	 eax, 15			; 0000000fH
  001e6	7c e3		 jl	 SHORT $LL101@operator
  001e8	8b cf		 mov	 ecx, edi
  001ea	8d 75 e8	 lea	 esi, DWORD PTR __t$[ebp]
  001ed	ff 15 00 00 00
	00		 call	 DWORD PTR __imp_?c_str@ioHashString@@QBEPBDXZ
$LL111@operator:
  001f3	8a 08		 mov	 cl, BYTE PTR [eax]
  001f5	3a 0e		 cmp	 cl, BYTE PTR [esi]
  001f7	75 1a		 jne	 SHORT $LN112@operator
  001f9	84 c9		 test	 cl, cl
  001fb	74 12		 je	 SHORT $LN113@operator
  001fd	8a 48 01	 mov	 cl, BYTE PTR [eax+1]
  00200	3a 4e 01	 cmp	 cl, BYTE PTR [esi+1]
  00203	75 0e		 jne	 SHORT $LN112@operator
  00205	83 c0 02	 add	 eax, 2
  00208	83 c6 02	 add	 esi, 2
  0020b	84 c9		 test	 cl, cl
  0020d	75 e4		 jne	 SHORT $LL111@operator
$LN113@operator:
  0020f	33 c0		 xor	 eax, eax
  00211	eb 05		 jmp	 SHORT $LN114@operator
$LN112@operator:
  00213	1b c0		 sbb	 eax, eax
  00215	83 d8 ff	 sbb	 eax, -1
$LN114@operator:
  00218	33 c9		 xor	 ecx, ecx
  0021a	85 c0		 test	 eax, eax
  0021c	0f 94 c0	 sete	 al

; 148  : }

  0021f	8b 4d fc	 mov	 ecx, DWORD PTR __$ArrayPad$[ebp]
  00222	5f		 pop	 edi
  00223	33 cd		 xor	 ecx, ebp
  00225	5e		 pop	 esi
  00226	e8 00 00 00 00	 call	 @__security_check_cookie@4
  0022b	c9		 leave
  0022c	c3		 ret	 0
??$?8$0BA@@@YA_NABVioHashString@@AAY0BA@$$CBD@Z ENDP	; operator==<16>
_TEXT	ENDS
PUBLIC	__$ArrayPad$
PUBLIC	??$?8$0BB@@@YA_NABVioHashString@@AAY0BB@$$CBD@Z	; operator==<17>
; Function compile flags: /Ogsp
;	COMDAT ??$?8$0BB@@@YA_NABVioHashString@@AAY0BB@$$CBD@Z
_TEXT	SEGMENT
__t$ = -28						; size = 17
__$ArrayPad$ = -4					; size = 4
_lhs$ = 8						; size = 4
_t$ = 12						; size = 4
??$?8$0BB@@@YA_NABVioHashString@@AAY0BB@$$CBD@Z PROC	; operator==<17>, COMDAT

; 146  : {

  00000	55		 push	 ebp
  00001	8b ec		 mov	 ebp, esp
  00003	83 ec 1c	 sub	 esp, 28			; 0000001cH
  00006	a1 00 00 00 00	 mov	 eax, DWORD PTR ___security_cookie
  0000b	33 c5		 xor	 eax, ebp
  0000d	89 45 fc	 mov	 DWORD PTR __$ArrayPad$[ebp], eax
  00010	8b 45 0c	 mov	 eax, DWORD PTR _t$[ebp]

; 147  : 	_ENCSTR(t, _t); return ( strcmp( lhs.c_str(), _t ) == 0 );

  00013	8a 10		 mov	 dl, BYTE PTR [eax]
  00015	56		 push	 esi
  00016	57		 push	 edi
  00017	8b 7d 08	 mov	 edi, DWORD PTR _lhs$[ebp]
  0001a	84 d2		 test	 dl, dl
  0001c	0f 84 a7 01 00
	00		 je	 $LN96@operator@2
  00022	80 f2 ed	 xor	 dl, -19			; ffffffedH
  00025	88 55 e4	 mov	 BYTE PTR __t$[ebp], dl
  00028	8a 50 01	 mov	 dl, BYTE PTR [eax+1]
  0002b	84 d2		 test	 dl, dl
  0002d	0f 84 90 01 00
	00		 je	 $LN95@operator@2
  00033	b1 ec		 mov	 cl, -20			; ffffffecH
  00035	32 d1		 xor	 dl, cl
  00037	88 55 e5	 mov	 BYTE PTR __t$[ebp+1], dl
  0003a	8a 50 02	 mov	 dl, BYTE PTR [eax+2]
  0003d	84 d2		 test	 dl, dl
  0003f	0f 84 78 01 00
	00		 je	 $LN94@operator@2
  00045	80 f2 eb	 xor	 dl, -21			; ffffffebH
  00048	88 55 e6	 mov	 BYTE PTR __t$[ebp+2], dl
  0004b	8a 50 03	 mov	 dl, BYTE PTR [eax+3]
  0004e	84 d2		 test	 dl, dl
  00050	0f 84 61 01 00
	00		 je	 $LN93@operator@2
  00056	80 f2 ea	 xor	 dl, -22			; ffffffeaH
  00059	88 55 e7	 mov	 BYTE PTR __t$[ebp+3], dl
  0005c	8a 50 04	 mov	 dl, BYTE PTR [eax+4]
  0005f	84 d2		 test	 dl, dl
  00061	0f 84 4a 01 00
	00		 je	 $LN92@operator@2
  00067	80 f2 ed	 xor	 dl, -19			; ffffffedH
  0006a	88 55 e8	 mov	 BYTE PTR __t$[ebp+4], dl
  0006d	8a 50 05	 mov	 dl, BYTE PTR [eax+5]
  00070	84 d2		 test	 dl, dl
  00072	0f 84 34 01 00
	00		 je	 $LN91@operator@2
  00078	32 d1		 xor	 dl, cl
  0007a	88 55 e9	 mov	 BYTE PTR __t$[ebp+5], dl
  0007d	8a 50 06	 mov	 dl, BYTE PTR [eax+6]
  00080	84 d2		 test	 dl, dl
  00082	0f 84 1e 01 00
	00		 je	 $LN90@operator@2
  00088	80 f2 eb	 xor	 dl, -21			; ffffffebH
  0008b	88 55 ea	 mov	 BYTE PTR __t$[ebp+6], dl
  0008e	8a 50 07	 mov	 dl, BYTE PTR [eax+7]
  00091	84 d2		 test	 dl, dl
  00093	0f 84 07 01 00
	00		 je	 $LN89@operator@2
  00099	80 f2 ea	 xor	 dl, -22			; ffffffeaH
  0009c	88 55 eb	 mov	 BYTE PTR __t$[ebp+7], dl
  0009f	8a 50 08	 mov	 dl, BYTE PTR [eax+8]
  000a2	84 d2		 test	 dl, dl
  000a4	0f 84 f0 00 00
	00		 je	 $LN88@operator@2
  000aa	80 f2 ed	 xor	 dl, -19			; ffffffedH
  000ad	88 55 ec	 mov	 BYTE PTR __t$[ebp+8], dl
  000b0	8a 50 09	 mov	 dl, BYTE PTR [eax+9]
  000b3	84 d2		 test	 dl, dl
  000b5	0f 84 da 00 00
	00		 je	 $LN87@operator@2
  000bb	32 d1		 xor	 dl, cl
  000bd	88 55 ed	 mov	 BYTE PTR __t$[ebp+9], dl
  000c0	8a 50 0a	 mov	 dl, BYTE PTR [eax+10]
  000c3	84 d2		 test	 dl, dl
  000c5	0f 84 c4 00 00
	00		 je	 $LN86@operator@2
  000cb	80 f2 eb	 xor	 dl, -21			; ffffffebH
  000ce	88 55 ee	 mov	 BYTE PTR __t$[ebp+10], dl
  000d1	8a 50 0b	 mov	 dl, BYTE PTR [eax+11]
  000d4	84 d2		 test	 dl, dl
  000d6	0f 84 ad 00 00
	00		 je	 $LN85@operator@2
  000dc	80 f2 ea	 xor	 dl, -22			; ffffffeaH
  000df	88 55 ef	 mov	 BYTE PTR __t$[ebp+11], dl
  000e2	8a 50 0c	 mov	 dl, BYTE PTR [eax+12]
  000e5	84 d2		 test	 dl, dl
  000e7	0f 84 96 00 00
	00		 je	 $LN84@operator@2
  000ed	80 f2 ed	 xor	 dl, -19			; ffffffedH
  000f0	88 55 f0	 mov	 BYTE PTR __t$[ebp+12], dl
  000f3	8a 50 0d	 mov	 dl, BYTE PTR [eax+13]
  000f6	84 d2		 test	 dl, dl
  000f8	0f 84 80 00 00
	00		 je	 $LN83@operator@2
  000fe	32 d1		 xor	 dl, cl
  00100	88 55 f1	 mov	 BYTE PTR __t$[ebp+13], dl
  00103	8a 50 0e	 mov	 dl, BYTE PTR [eax+14]
  00106	84 d2		 test	 dl, dl
  00108	74 6e		 je	 SHORT $LN82@operator@2
  0010a	80 f2 eb	 xor	 dl, -21			; ffffffebH
  0010d	88 55 f2	 mov	 BYTE PTR __t$[ebp+14], dl
  00110	8a 50 0f	 mov	 dl, BYTE PTR [eax+15]
  00113	84 d2		 test	 dl, dl
  00115	74 5b		 je	 SHORT $LN81@operator@2
  00117	80 f2 ea	 xor	 dl, -22			; ffffffeaH
  0011a	80 78 10 00	 cmp	 BYTE PTR [eax+16], 0
  0011e	88 55 f3	 mov	 BYTE PTR __t$[ebp+15], dl
  00121	0f 84 a6 00 00
	00		 je	 $LN1@operator@2
  00127	8a 50 11	 mov	 dl, BYTE PTR [eax+17]
  0012a	84 d2		 test	 dl, dl
  0012c	74 3f		 je	 SHORT $LN79@operator@2
  0012e	32 d1		 xor	 dl, cl
  00130	88 55 f5	 mov	 BYTE PTR __t$[ebp+17], dl
  00133	8a 50 12	 mov	 dl, BYTE PTR [eax+18]
  00136	84 d2		 test	 dl, dl
  00138	74 2d		 je	 SHORT $LN78@operator@2
  0013a	80 f2 eb	 xor	 dl, -21			; ffffffebH
  0013d	88 55 f6	 mov	 BYTE PTR __t$[ebp+18], dl
  00140	8a 50 13	 mov	 dl, BYTE PTR [eax+19]
  00143	84 d2		 test	 dl, dl
  00145	74 1a		 je	 SHORT $LN77@operator@2
  00147	8a 40 14	 mov	 al, BYTE PTR [eax+20]
  0014a	80 f2 ea	 xor	 dl, -22			; ffffffeaH
  0014d	88 55 f7	 mov	 BYTE PTR __t$[ebp+19], dl
  00150	84 c0		 test	 al, al
  00152	74 07		 je	 SHORT $LN76@operator@2
  00154	34 ed		 xor	 al, -19			; ffffffedH
  00156	88 45 f8	 mov	 BYTE PTR __t$[ebp+20], al
  00159	eb 72		 jmp	 SHORT $LN1@operator@2
$LN76@operator@2:
  0015b	c6 45 f8 ed	 mov	 BYTE PTR __t$[ebp+20], -19 ; ffffffedH
  0015f	eb 6c		 jmp	 SHORT $LN1@operator@2
$LN77@operator@2:
  00161	c6 45 f7 ea	 mov	 BYTE PTR __t$[ebp+19], -22 ; ffffffeaH
  00165	eb 66		 jmp	 SHORT $LN1@operator@2
$LN78@operator@2:
  00167	c6 45 f6 eb	 mov	 BYTE PTR __t$[ebp+18], -21 ; ffffffebH
  0016b	eb 60		 jmp	 SHORT $LN1@operator@2
$LN79@operator@2:
  0016d	88 4d f5	 mov	 BYTE PTR __t$[ebp+17], cl
  00170	eb 5b		 jmp	 SHORT $LN1@operator@2
$LN81@operator@2:
  00172	c6 45 f3 ea	 mov	 BYTE PTR __t$[ebp+15], -22 ; ffffffeaH
  00176	eb 55		 jmp	 SHORT $LN1@operator@2
$LN82@operator@2:
  00178	c6 45 f2 eb	 mov	 BYTE PTR __t$[ebp+14], -21 ; ffffffebH
  0017c	eb 4f		 jmp	 SHORT $LN1@operator@2
$LN83@operator@2:
  0017e	88 4d f1	 mov	 BYTE PTR __t$[ebp+13], cl
  00181	eb 4a		 jmp	 SHORT $LN1@operator@2
$LN84@operator@2:
  00183	c6 45 f0 ed	 mov	 BYTE PTR __t$[ebp+12], -19 ; ffffffedH
  00187	eb 44		 jmp	 SHORT $LN1@operator@2
$LN85@operator@2:
  00189	c6 45 ef ea	 mov	 BYTE PTR __t$[ebp+11], -22 ; ffffffeaH
  0018d	eb 3e		 jmp	 SHORT $LN1@operator@2
$LN86@operator@2:
  0018f	c6 45 ee eb	 mov	 BYTE PTR __t$[ebp+10], -21 ; ffffffebH
  00193	eb 38		 jmp	 SHORT $LN1@operator@2
$LN87@operator@2:
  00195	88 4d ed	 mov	 BYTE PTR __t$[ebp+9], cl
  00198	eb 33		 jmp	 SHORT $LN1@operator@2
$LN88@operator@2:
  0019a	c6 45 ec ed	 mov	 BYTE PTR __t$[ebp+8], -19 ; ffffffedH
  0019e	eb 2d		 jmp	 SHORT $LN1@operator@2
$LN89@operator@2:
  001a0	c6 45 eb ea	 mov	 BYTE PTR __t$[ebp+7], -22 ; ffffffeaH
  001a4	eb 27		 jmp	 SHORT $LN1@operator@2
$LN90@operator@2:
  001a6	c6 45 ea eb	 mov	 BYTE PTR __t$[ebp+6], -21 ; ffffffebH
  001aa	eb 21		 jmp	 SHORT $LN1@operator@2
$LN91@operator@2:
  001ac	88 4d e9	 mov	 BYTE PTR __t$[ebp+5], cl
  001af	eb 1c		 jmp	 SHORT $LN1@operator@2
$LN92@operator@2:
  001b1	c6 45 e8 ed	 mov	 BYTE PTR __t$[ebp+4], -19 ; ffffffedH
  001b5	eb 16		 jmp	 SHORT $LN1@operator@2
$LN93@operator@2:
  001b7	c6 45 e7 ea	 mov	 BYTE PTR __t$[ebp+3], -22 ; ffffffeaH
  001bb	eb 10		 jmp	 SHORT $LN1@operator@2
$LN94@operator@2:
  001bd	c6 45 e6 eb	 mov	 BYTE PTR __t$[ebp+2], -21 ; ffffffebH
  001c1	eb 0a		 jmp	 SHORT $LN1@operator@2
$LN95@operator@2:
  001c3	c6 45 e5 ec	 mov	 BYTE PTR __t$[ebp+1], -20 ; ffffffecH
  001c7	eb 04		 jmp	 SHORT $LN1@operator@2
$LN96@operator@2:
  001c9	c6 45 e4 ed	 mov	 BYTE PTR __t$[ebp], -19	; ffffffedH
$LN1@operator@2:
  001cd	6a 04		 push	 4
  001cf	8d 45 e4	 lea	 eax, DWORD PTR __t$[ebp]
  001d2	c6 45 f4 00	 mov	 BYTE PTR __t$[ebp+16], 0
  001d6	5a		 pop	 edx
$LL104@operator@2:
  001d7	81 30 ed ec eb
	ea		 xor	 DWORD PTR [eax], -353637139 ; eaebecedH
  001dd	83 c0 04	 add	 eax, 4
  001e0	4a		 dec	 edx
  001e1	75 f4		 jne	 SHORT $LL104@operator@2
  001e3	8b cf		 mov	 ecx, edi
  001e5	8d 75 e4	 lea	 esi, DWORD PTR __t$[ebp]
  001e8	ff 15 00 00 00
	00		 call	 DWORD PTR __imp_?c_str@ioHashString@@QBEPBDXZ
$LL111@operator@2:
  001ee	8a 08		 mov	 cl, BYTE PTR [eax]
  001f0	3a 0e		 cmp	 cl, BYTE PTR [esi]
  001f2	75 1a		 jne	 SHORT $LN112@operator@2
  001f4	84 c9		 test	 cl, cl
  001f6	74 12		 je	 SHORT $LN113@operator@2
  001f8	8a 48 01	 mov	 cl, BYTE PTR [eax+1]
  001fb	3a 4e 01	 cmp	 cl, BYTE PTR [esi+1]
  001fe	75 0e		 jne	 SHORT $LN112@operator@2
  00200	83 c0 02	 add	 eax, 2
  00203	83 c6 02	 add	 esi, 2
  00206	84 c9		 test	 cl, cl
  00208	75 e4		 jne	 SHORT $LL111@operator@2
$LN113@operator@2:
  0020a	33 c0		 xor	 eax, eax
  0020c	eb 05		 jmp	 SHORT $LN114@operator@2
$LN112@operator@2:
  0020e	1b c0		 sbb	 eax, eax
  00210	83 d8 ff	 sbb	 eax, -1
$LN114@operator@2:
  00213	33 c9		 xor	 ecx, ecx
  00215	85 c0		 test	 eax, eax
  00217	0f 94 c0	 sete	 al

; 148  : }

  0021a	8b 4d fc	 mov	 ecx, DWORD PTR __$ArrayPad$[ebp]
  0021d	5f		 pop	 edi
  0021e	33 cd		 xor	 ecx, ebp
  00220	5e		 pop	 esi
  00221	e8 00 00 00 00	 call	 @__security_check_cookie@4
  00226	c9		 leave
  00227	c3		 ret	 0
??$?8$0BB@@@YA_NABVioHashString@@AAY0BB@$$CBD@Z ENDP	; operator==<17>
_TEXT	ENDS
PUBLIC	__$ArrayPad$
PUBLIC	??$?8$08@@YA_NABVioHashString@@AAY08$$CBD@Z	; operator==<9>
; Function compile flags: /Ogsp
;	COMDAT ??$?8$08@@YA_NABVioHashString@@AAY08$$CBD@Z
_TEXT	SEGMENT
__t$ = -20						; size = 9
__$ArrayPad$ = -4					; size = 4
_lhs$ = 8						; size = 4
_t$ = 12						; size = 4
??$?8$08@@YA_NABVioHashString@@AAY08$$CBD@Z PROC	; operator==<9>, COMDAT

; 146  : {

  00000	55		 push	 ebp
  00001	8b ec		 mov	 ebp, esp
  00003	83 ec 14	 sub	 esp, 20			; 00000014H
  00006	a1 00 00 00 00	 mov	 eax, DWORD PTR ___security_cookie
  0000b	33 c5		 xor	 eax, ebp
  0000d	89 45 fc	 mov	 DWORD PTR __$ArrayPad$[ebp], eax
  00010	8b 45 0c	 mov	 eax, DWORD PTR _t$[ebp]

; 147  : 	_ENCSTR(t, _t); return ( strcmp( lhs.c_str(), _t ) == 0 );

  00013	8a 10		 mov	 dl, BYTE PTR [eax]
  00015	8b 4d 08	 mov	 ecx, DWORD PTR _lhs$[ebp]
  00018	84 d2		 test	 dl, dl
  0001a	0f 84 ee 00 00
	00		 je	 $LN96@operator@3
  00020	80 f2 ed	 xor	 dl, -19			; ffffffedH
  00023	88 55 ec	 mov	 BYTE PTR __t$[ebp], dl
  00026	8a 50 01	 mov	 dl, BYTE PTR [eax+1]
  00029	84 d2		 test	 dl, dl
  0002b	0f 84 d7 00 00
	00		 je	 $LN95@operator@3
  00031	80 f2 ec	 xor	 dl, -20			; ffffffecH
  00034	88 55 ed	 mov	 BYTE PTR __t$[ebp+1], dl
  00037	8a 50 02	 mov	 dl, BYTE PTR [eax+2]
  0003a	84 d2		 test	 dl, dl
  0003c	0f 84 c0 00 00
	00		 je	 $LN94@operator@3
  00042	80 f2 eb	 xor	 dl, -21			; ffffffebH
  00045	88 55 ee	 mov	 BYTE PTR __t$[ebp+2], dl
  00048	8a 50 03	 mov	 dl, BYTE PTR [eax+3]
  0004b	84 d2		 test	 dl, dl
  0004d	0f 84 a9 00 00
	00		 je	 $LN93@operator@3
  00053	80 f2 ea	 xor	 dl, -22			; ffffffeaH
  00056	88 55 ef	 mov	 BYTE PTR __t$[ebp+3], dl
  00059	8a 50 04	 mov	 dl, BYTE PTR [eax+4]
  0005c	84 d2		 test	 dl, dl
  0005e	0f 84 92 00 00
	00		 je	 $LN92@operator@3
  00064	80 f2 ed	 xor	 dl, -19			; ffffffedH
  00067	88 55 f0	 mov	 BYTE PTR __t$[ebp+4], dl
  0006a	8a 50 05	 mov	 dl, BYTE PTR [eax+5]
  0006d	84 d2		 test	 dl, dl
  0006f	74 7f		 je	 SHORT $LN91@operator@3
  00071	80 f2 ec	 xor	 dl, -20			; ffffffecH
  00074	88 55 f1	 mov	 BYTE PTR __t$[ebp+5], dl
  00077	8a 50 06	 mov	 dl, BYTE PTR [eax+6]
  0007a	84 d2		 test	 dl, dl
  0007c	74 6c		 je	 SHORT $LN90@operator@3
  0007e	80 f2 eb	 xor	 dl, -21			; ffffffebH
  00081	88 55 f2	 mov	 BYTE PTR __t$[ebp+6], dl
  00084	8a 50 07	 mov	 dl, BYTE PTR [eax+7]
  00087	84 d2		 test	 dl, dl
  00089	74 59		 je	 SHORT $LN89@operator@3
  0008b	80 f2 ea	 xor	 dl, -22			; ffffffeaH
  0008e	80 78 08 00	 cmp	 BYTE PTR [eax+8], 0
  00092	88 55 f3	 mov	 BYTE PTR __t$[ebp+7], dl
  00095	74 7b		 je	 SHORT $LN1@operator@3
  00097	8a 50 09	 mov	 dl, BYTE PTR [eax+9]
  0009a	84 d2		 test	 dl, dl
  0009c	74 40		 je	 SHORT $LN87@operator@3
  0009e	80 f2 ec	 xor	 dl, -20			; ffffffecH
  000a1	88 55 f5	 mov	 BYTE PTR __t$[ebp+9], dl
  000a4	8a 50 0a	 mov	 dl, BYTE PTR [eax+10]
  000a7	84 d2		 test	 dl, dl
  000a9	74 2d		 je	 SHORT $LN86@operator@3
  000ab	80 f2 eb	 xor	 dl, -21			; ffffffebH
  000ae	88 55 f6	 mov	 BYTE PTR __t$[ebp+10], dl
  000b1	8a 50 0b	 mov	 dl, BYTE PTR [eax+11]
  000b4	84 d2		 test	 dl, dl
  000b6	74 1a		 je	 SHORT $LN85@operator@3
  000b8	8a 40 0c	 mov	 al, BYTE PTR [eax+12]
  000bb	80 f2 ea	 xor	 dl, -22			; ffffffeaH
  000be	88 55 f7	 mov	 BYTE PTR __t$[ebp+11], dl
  000c1	84 c0		 test	 al, al
  000c3	74 07		 je	 SHORT $LN84@operator@3
  000c5	34 ed		 xor	 al, -19			; ffffffedH
  000c7	88 45 f8	 mov	 BYTE PTR __t$[ebp+12], al
  000ca	eb 46		 jmp	 SHORT $LN1@operator@3
$LN84@operator@3:
  000cc	c6 45 f8 ed	 mov	 BYTE PTR __t$[ebp+12], -19 ; ffffffedH
  000d0	eb 40		 jmp	 SHORT $LN1@operator@3
$LN85@operator@3:
  000d2	c6 45 f7 ea	 mov	 BYTE PTR __t$[ebp+11], -22 ; ffffffeaH
  000d6	eb 3a		 jmp	 SHORT $LN1@operator@3
$LN86@operator@3:
  000d8	c6 45 f6 eb	 mov	 BYTE PTR __t$[ebp+10], -21 ; ffffffebH
  000dc	eb 34		 jmp	 SHORT $LN1@operator@3
$LN87@operator@3:
  000de	c6 45 f5 ec	 mov	 BYTE PTR __t$[ebp+9], -20 ; ffffffecH
  000e2	eb 2e		 jmp	 SHORT $LN1@operator@3
$LN89@operator@3:
  000e4	c6 45 f3 ea	 mov	 BYTE PTR __t$[ebp+7], -22 ; ffffffeaH
  000e8	eb 28		 jmp	 SHORT $LN1@operator@3
$LN90@operator@3:
  000ea	c6 45 f2 eb	 mov	 BYTE PTR __t$[ebp+6], -21 ; ffffffebH
  000ee	eb 22		 jmp	 SHORT $LN1@operator@3
$LN91@operator@3:
  000f0	c6 45 f1 ec	 mov	 BYTE PTR __t$[ebp+5], -20 ; ffffffecH
  000f4	eb 1c		 jmp	 SHORT $LN1@operator@3
$LN92@operator@3:
  000f6	c6 45 f0 ed	 mov	 BYTE PTR __t$[ebp+4], -19 ; ffffffedH
  000fa	eb 16		 jmp	 SHORT $LN1@operator@3
$LN93@operator@3:
  000fc	c6 45 ef ea	 mov	 BYTE PTR __t$[ebp+3], -22 ; ffffffeaH
  00100	eb 10		 jmp	 SHORT $LN1@operator@3
$LN94@operator@3:
  00102	c6 45 ee eb	 mov	 BYTE PTR __t$[ebp+2], -21 ; ffffffebH
  00106	eb 0a		 jmp	 SHORT $LN1@operator@3
$LN95@operator@3:
  00108	c6 45 ed ec	 mov	 BYTE PTR __t$[ebp+1], -20 ; ffffffecH
  0010c	eb 04		 jmp	 SHORT $LN1@operator@3
$LN96@operator@3:
  0010e	c6 45 ec ed	 mov	 BYTE PTR __t$[ebp], -19	; ffffffedH
$LN1@operator@3:
  00112	6a 02		 push	 2
  00114	8d 45 ec	 lea	 eax, DWORD PTR __t$[ebp]
  00117	c6 45 f4 00	 mov	 BYTE PTR __t$[ebp+8], 0
  0011b	5a		 pop	 edx
$LL104@operator@3:
  0011c	81 30 ed ec eb
	ea		 xor	 DWORD PTR [eax], -353637139 ; eaebecedH
  00122	83 c0 04	 add	 eax, 4
  00125	4a		 dec	 edx
  00126	75 f4		 jne	 SHORT $LL104@operator@3
  00128	56		 push	 esi
  00129	8d 75 ec	 lea	 esi, DWORD PTR __t$[ebp]
  0012c	ff 15 00 00 00
	00		 call	 DWORD PTR __imp_?c_str@ioHashString@@QBEPBDXZ
$LL111@operator@3:
  00132	8a 08		 mov	 cl, BYTE PTR [eax]
  00134	3a 0e		 cmp	 cl, BYTE PTR [esi]
  00136	75 1a		 jne	 SHORT $LN112@operator@3
  00138	84 c9		 test	 cl, cl
  0013a	74 12		 je	 SHORT $LN113@operator@3
  0013c	8a 48 01	 mov	 cl, BYTE PTR [eax+1]
  0013f	3a 4e 01	 cmp	 cl, BYTE PTR [esi+1]
  00142	75 0e		 jne	 SHORT $LN112@operator@3
  00144	83 c0 02	 add	 eax, 2
  00147	83 c6 02	 add	 esi, 2
  0014a	84 c9		 test	 cl, cl
  0014c	75 e4		 jne	 SHORT $LL111@operator@3
$LN113@operator@3:
  0014e	33 c0		 xor	 eax, eax
  00150	eb 05		 jmp	 SHORT $LN114@operator@3
$LN112@operator@3:
  00152	1b c0		 sbb	 eax, eax
  00154	83 d8 ff	 sbb	 eax, -1
$LN114@operator@3:
  00157	33 c9		 xor	 ecx, ecx
  00159	85 c0		 test	 eax, eax
  0015b	0f 94 c0	 sete	 al

; 148  : }

  0015e	8b 4d fc	 mov	 ecx, DWORD PTR __$ArrayPad$[ebp]
  00161	33 cd		 xor	 ecx, ebp
  00163	5e		 pop	 esi
  00164	e8 00 00 00 00	 call	 @__security_check_cookie@4
  00169	c9		 leave
  0016a	c3		 ret	 0
??$?8$08@@YA_NABVioHashString@@AAY08$$CBD@Z ENDP	; operator==<9>
_TEXT	ENDS
PUBLIC	__$ArrayPad$
PUBLIC	??$?8$0L@@@YA_NABVioHashString@@AAY0L@$$CBD@Z	; operator==<11>
; Function compile flags: /Ogsp
;	COMDAT ??$?8$0L@@@YA_NABVioHashString@@AAY0L@$$CBD@Z
_TEXT	SEGMENT
__t$ = -20						; size = 11
__$ArrayPad$ = -4					; size = 4
_lhs$ = 8						; size = 4
_t$ = 12						; size = 4
??$?8$0L@@@YA_NABVioHashString@@AAY0L@$$CBD@Z PROC	; operator==<11>, COMDAT

; 146  : {

  00000	55		 push	 ebp
  00001	8b ec		 mov	 ebp, esp
  00003	83 ec 14	 sub	 esp, 20			; 00000014H
  00006	a1 00 00 00 00	 mov	 eax, DWORD PTR ___security_cookie
  0000b	33 c5		 xor	 eax, ebp
  0000d	89 45 fc	 mov	 DWORD PTR __$ArrayPad$[ebp], eax
  00010	8b 45 0c	 mov	 eax, DWORD PTR _t$[ebp]

; 147  : 	_ENCSTR(t, _t); return ( strcmp( lhs.c_str(), _t ) == 0 );

  00013	8a 10		 mov	 dl, BYTE PTR [eax]
  00015	56		 push	 esi
  00016	57		 push	 edi
  00017	8b 7d 08	 mov	 edi, DWORD PTR _lhs$[ebp]
  0001a	84 d2		 test	 dl, dl
  0001c	0f 84 24 01 00
	00		 je	 $LN96@operator@4
  00022	80 f2 ed	 xor	 dl, -19			; ffffffedH
  00025	88 55 ec	 mov	 BYTE PTR __t$[ebp], dl
  00028	8a 50 01	 mov	 dl, BYTE PTR [eax+1]
  0002b	84 d2		 test	 dl, dl
  0002d	0f 84 0d 01 00
	00		 je	 $LN95@operator@4
  00033	80 f2 ec	 xor	 dl, -20			; ffffffecH
  00036	88 55 ed	 mov	 BYTE PTR __t$[ebp+1], dl
  00039	8a 50 02	 mov	 dl, BYTE PTR [eax+2]
  0003c	84 d2		 test	 dl, dl
  0003e	0f 84 f6 00 00
	00		 je	 $LN94@operator@4
  00044	80 f2 eb	 xor	 dl, -21			; ffffffebH
  00047	88 55 ee	 mov	 BYTE PTR __t$[ebp+2], dl
  0004a	8a 50 03	 mov	 dl, BYTE PTR [eax+3]
  0004d	84 d2		 test	 dl, dl
  0004f	0f 84 df 00 00
	00		 je	 $LN93@operator@4
  00055	80 f2 ea	 xor	 dl, -22			; ffffffeaH
  00058	88 55 ef	 mov	 BYTE PTR __t$[ebp+3], dl
  0005b	8a 50 04	 mov	 dl, BYTE PTR [eax+4]
  0005e	84 d2		 test	 dl, dl
  00060	0f 84 c8 00 00
	00		 je	 $LN92@operator@4
  00066	80 f2 ed	 xor	 dl, -19			; ffffffedH
  00069	88 55 f0	 mov	 BYTE PTR __t$[ebp+4], dl
  0006c	8a 50 05	 mov	 dl, BYTE PTR [eax+5]
  0006f	84 d2		 test	 dl, dl
  00071	0f 84 b1 00 00
	00		 je	 $LN91@operator@4
  00077	80 f2 ec	 xor	 dl, -20			; ffffffecH
  0007a	88 55 f1	 mov	 BYTE PTR __t$[ebp+5], dl
  0007d	8a 50 06	 mov	 dl, BYTE PTR [eax+6]
  00080	84 d2		 test	 dl, dl
  00082	0f 84 9a 00 00
	00		 je	 $LN90@operator@4
  00088	80 f2 eb	 xor	 dl, -21			; ffffffebH
  0008b	88 55 f2	 mov	 BYTE PTR __t$[ebp+6], dl
  0008e	8a 50 07	 mov	 dl, BYTE PTR [eax+7]
  00091	84 d2		 test	 dl, dl
  00093	0f 84 83 00 00
	00		 je	 $LN89@operator@4
  00099	80 f2 ea	 xor	 dl, -22			; ffffffeaH
  0009c	88 55 f3	 mov	 BYTE PTR __t$[ebp+7], dl
  0009f	8a 50 08	 mov	 dl, BYTE PTR [eax+8]
  000a2	84 d2		 test	 dl, dl
  000a4	74 70		 je	 SHORT $LN88@operator@4
  000a6	80 f2 ed	 xor	 dl, -19			; ffffffedH
  000a9	88 55 f4	 mov	 BYTE PTR __t$[ebp+8], dl
  000ac	8a 50 09	 mov	 dl, BYTE PTR [eax+9]
  000af	84 d2		 test	 dl, dl
  000b1	74 5d		 je	 SHORT $LN87@operator@4
  000b3	80 f2 ec	 xor	 dl, -20			; ffffffecH
  000b6	80 78 0a 00	 cmp	 BYTE PTR [eax+10], 0
  000ba	88 55 f5	 mov	 BYTE PTR __t$[ebp+9], dl
  000bd	0f 84 87 00 00
	00		 je	 $LN1@operator@4
  000c3	8a 50 0b	 mov	 dl, BYTE PTR [eax+11]
  000c6	84 d2		 test	 dl, dl
  000c8	74 40		 je	 SHORT $LN85@operator@4
  000ca	80 f2 ea	 xor	 dl, -22			; ffffffeaH
  000cd	88 55 f7	 mov	 BYTE PTR __t$[ebp+11], dl
  000d0	8a 50 0c	 mov	 dl, BYTE PTR [eax+12]
  000d3	84 d2		 test	 dl, dl
  000d5	74 2d		 je	 SHORT $LN84@operator@4
  000d7	80 f2 ed	 xor	 dl, -19			; ffffffedH
  000da	88 55 f8	 mov	 BYTE PTR __t$[ebp+12], dl
  000dd	8a 50 0d	 mov	 dl, BYTE PTR [eax+13]
  000e0	84 d2		 test	 dl, dl
  000e2	74 1a		 je	 SHORT $LN83@operator@4
  000e4	8a 40 0e	 mov	 al, BYTE PTR [eax+14]
  000e7	80 f2 ec	 xor	 dl, -20			; ffffffecH
  000ea	88 55 f9	 mov	 BYTE PTR __t$[ebp+13], dl
  000ed	84 c0		 test	 al, al
  000ef	74 07		 je	 SHORT $LN82@operator@4
  000f1	34 eb		 xor	 al, -21			; ffffffebH
  000f3	88 45 fa	 mov	 BYTE PTR __t$[ebp+14], al
  000f6	eb 52		 jmp	 SHORT $LN1@operator@4
$LN82@operator@4:
  000f8	c6 45 fa eb	 mov	 BYTE PTR __t$[ebp+14], -21 ; ffffffebH
  000fc	eb 4c		 jmp	 SHORT $LN1@operator@4
$LN83@operator@4:
  000fe	c6 45 f9 ec	 mov	 BYTE PTR __t$[ebp+13], -20 ; ffffffecH
  00102	eb 46		 jmp	 SHORT $LN1@operator@4
$LN84@operator@4:
  00104	c6 45 f8 ed	 mov	 BYTE PTR __t$[ebp+12], -19 ; ffffffedH
  00108	eb 40		 jmp	 SHORT $LN1@operator@4
$LN85@operator@4:
  0010a	c6 45 f7 ea	 mov	 BYTE PTR __t$[ebp+11], -22 ; ffffffeaH
  0010e	eb 3a		 jmp	 SHORT $LN1@operator@4
$LN87@operator@4:
  00110	c6 45 f5 ec	 mov	 BYTE PTR __t$[ebp+9], -20 ; ffffffecH
  00114	eb 34		 jmp	 SHORT $LN1@operator@4
$LN88@operator@4:
  00116	c6 45 f4 ed	 mov	 BYTE PTR __t$[ebp+8], -19 ; ffffffedH
  0011a	eb 2e		 jmp	 SHORT $LN1@operator@4
$LN89@operator@4:
  0011c	c6 45 f3 ea	 mov	 BYTE PTR __t$[ebp+7], -22 ; ffffffeaH
  00120	eb 28		 jmp	 SHORT $LN1@operator@4
$LN90@operator@4:
  00122	c6 45 f2 eb	 mov	 BYTE PTR __t$[ebp+6], -21 ; ffffffebH
  00126	eb 22		 jmp	 SHORT $LN1@operator@4
$LN91@operator@4:
  00128	c6 45 f1 ec	 mov	 BYTE PTR __t$[ebp+5], -20 ; ffffffecH
  0012c	eb 1c		 jmp	 SHORT $LN1@operator@4
$LN92@operator@4:
  0012e	c6 45 f0 ed	 mov	 BYTE PTR __t$[ebp+4], -19 ; ffffffedH
  00132	eb 16		 jmp	 SHORT $LN1@operator@4
$LN93@operator@4:
  00134	c6 45 ef ea	 mov	 BYTE PTR __t$[ebp+3], -22 ; ffffffeaH
  00138	eb 10		 jmp	 SHORT $LN1@operator@4
$LN94@operator@4:
  0013a	c6 45 ee eb	 mov	 BYTE PTR __t$[ebp+2], -21 ; ffffffebH
  0013e	eb 0a		 jmp	 SHORT $LN1@operator@4
$LN95@operator@4:
  00140	c6 45 ed ec	 mov	 BYTE PTR __t$[ebp+1], -20 ; ffffffecH
  00144	eb 04		 jmp	 SHORT $LN1@operator@4
$LN96@operator@4:
  00146	c6 45 ec ed	 mov	 BYTE PTR __t$[ebp], -19	; ffffffedH
$LN1@operator@4:
  0014a	6a 02		 push	 2
  0014c	8d 45 ec	 lea	 eax, DWORD PTR __t$[ebp]
  0014f	c6 45 f6 00	 mov	 BYTE PTR __t$[ebp+10], 0
  00153	5a		 pop	 edx
$LL104@operator@4:
  00154	81 30 ed ec eb
	ea		 xor	 DWORD PTR [eax], -353637139 ; eaebecedH
  0015a	83 c0 04	 add	 eax, 4
  0015d	4a		 dec	 edx
  0015e	75 f4		 jne	 SHORT $LL104@operator@4
  00160	6a 08		 push	 8
  00162	58		 pop	 eax
$LL101@operator@4:
  00163	8b c8		 mov	 ecx, eax
  00165	81 e1 03 00 00
	80		 and	 ecx, -2147483645	; 80000003H
  0016b	79 05		 jns	 SHORT $LN115@operator@4
  0016d	49		 dec	 ecx
  0016e	83 c9 fc	 or	 ecx, -4			; fffffffcH
  00171	41		 inc	 ecx
$LN115@operator@4:
  00172	b2 ed		 mov	 dl, -19			; ffffffedH
  00174	2a d1		 sub	 dl, cl
  00176	30 54 05 ec	 xor	 BYTE PTR __t$[ebp+eax], dl
  0017a	40		 inc	 eax
  0017b	83 f8 0a	 cmp	 eax, 10			; 0000000aH
  0017e	7c e3		 jl	 SHORT $LL101@operator@4
  00180	8b cf		 mov	 ecx, edi
  00182	8d 75 ec	 lea	 esi, DWORD PTR __t$[ebp]
  00185	ff 15 00 00 00
	00		 call	 DWORD PTR __imp_?c_str@ioHashString@@QBEPBDXZ
$LL111@operator@4:
  0018b	8a 08		 mov	 cl, BYTE PTR [eax]
  0018d	3a 0e		 cmp	 cl, BYTE PTR [esi]
  0018f	75 1a		 jne	 SHORT $LN112@operator@4
  00191	84 c9		 test	 cl, cl
  00193	74 12		 je	 SHORT $LN113@operator@4
  00195	8a 48 01	 mov	 cl, BYTE PTR [eax+1]
  00198	3a 4e 01	 cmp	 cl, BYTE PTR [esi+1]
  0019b	75 0e		 jne	 SHORT $LN112@operator@4
  0019d	83 c0 02	 add	 eax, 2
  001a0	83 c6 02	 add	 esi, 2
  001a3	84 c9		 test	 cl, cl
  001a5	75 e4		 jne	 SHORT $LL111@operator@4
$LN113@operator@4:
  001a7	33 c0		 xor	 eax, eax
  001a9	eb 05		 jmp	 SHORT $LN114@operator@4
$LN112@operator@4:
  001ab	1b c0		 sbb	 eax, eax
  001ad	83 d8 ff	 sbb	 eax, -1
$LN114@operator@4:
  001b0	33 c9		 xor	 ecx, ecx
  001b2	85 c0		 test	 eax, eax
  001b4	0f 94 c0	 sete	 al

; 148  : }

  001b7	8b 4d fc	 mov	 ecx, DWORD PTR __$ArrayPad$[ebp]
  001ba	5f		 pop	 edi
  001bb	33 cd		 xor	 ecx, ebp
  001bd	5e		 pop	 esi
  001be	e8 00 00 00 00	 call	 @__security_check_cookie@4
  001c3	c9		 leave
  001c4	c3		 ret	 0
??$?8$0L@@@YA_NABVioHashString@@AAY0L@$$CBD@Z ENDP	; operator==<11>
_TEXT	ENDS
PUBLIC	__$ArrayPad$
PUBLIC	??$GetIntAttribute_e@$0N@@ioXMLElement@@QBEHAAY0N@$$CBD@Z ; ioXMLElement::GetIntAttribute_e<13>
EXTRN	__imp_?GetIntAttribute@ioXMLElement@@QBEHPBD@Z:PROC
; Function compile flags: /Ogsp
; File d:\lost saga for developer\youtube\tutorial\source\src\io3dengine\ioxmlelement.h
;	COMDAT ??$GetIntAttribute_e@$0N@@ioXMLElement@@QBEHAAY0N@$$CBD@Z
_TEXT	SEGMENT
__k$ = -24						; size = 13
__$ArrayPad$ = -4					; size = 4
_k$ = 8							; size = 4
??$GetIntAttribute_e@$0N@@ioXMLElement@@QBEHAAY0N@$$CBD@Z PROC ; ioXMLElement::GetIntAttribute_e<13>, COMDAT
; _this$ = ecx

; 86   : 	{

  00000	55		 push	 ebp
  00001	8b ec		 mov	 ebp, esp
  00003	83 ec 18	 sub	 esp, 24			; 00000018H
  00006	a1 00 00 00 00	 mov	 eax, DWORD PTR ___security_cookie
  0000b	33 c5		 xor	 eax, ebp
  0000d	89 45 fc	 mov	 DWORD PTR __$ArrayPad$[ebp], eax
  00010	8b 45 08	 mov	 eax, DWORD PTR _k$[ebp]

; 87   : 		_ENCSTR(k, _k);

  00013	8a 10		 mov	 dl, BYTE PTR [eax]
  00015	56		 push	 esi
  00016	8b f1		 mov	 esi, ecx
  00018	84 d2		 test	 dl, dl
  0001a	0f 84 4d 01 00
	00		 je	 $LN96@GetIntAttr
  00020	80 f2 ed	 xor	 dl, -19			; ffffffedH
  00023	88 55 e8	 mov	 BYTE PTR __k$[ebp], dl
  00026	8a 50 01	 mov	 dl, BYTE PTR [eax+1]
  00029	84 d2		 test	 dl, dl
  0002b	0f 84 36 01 00
	00		 je	 $LN95@GetIntAttr
  00031	b1 ec		 mov	 cl, -20			; ffffffecH
  00033	32 d1		 xor	 dl, cl
  00035	88 55 e9	 mov	 BYTE PTR __k$[ebp+1], dl
  00038	8a 50 02	 mov	 dl, BYTE PTR [eax+2]
  0003b	84 d2		 test	 dl, dl
  0003d	0f 84 1e 01 00
	00		 je	 $LN94@GetIntAttr
  00043	80 f2 eb	 xor	 dl, -21			; ffffffebH
  00046	88 55 ea	 mov	 BYTE PTR __k$[ebp+2], dl
  00049	8a 50 03	 mov	 dl, BYTE PTR [eax+3]
  0004c	84 d2		 test	 dl, dl
  0004e	0f 84 07 01 00
	00		 je	 $LN93@GetIntAttr
  00054	80 f2 ea	 xor	 dl, -22			; ffffffeaH
  00057	88 55 eb	 mov	 BYTE PTR __k$[ebp+3], dl
  0005a	8a 50 04	 mov	 dl, BYTE PTR [eax+4]
  0005d	84 d2		 test	 dl, dl
  0005f	0f 84 f0 00 00
	00		 je	 $LN92@GetIntAttr
  00065	80 f2 ed	 xor	 dl, -19			; ffffffedH
  00068	88 55 ec	 mov	 BYTE PTR __k$[ebp+4], dl
  0006b	8a 50 05	 mov	 dl, BYTE PTR [eax+5]
  0006e	84 d2		 test	 dl, dl
  00070	0f 84 da 00 00
	00		 je	 $LN91@GetIntAttr
  00076	32 d1		 xor	 dl, cl
  00078	88 55 ed	 mov	 BYTE PTR __k$[ebp+5], dl
  0007b	8a 50 06	 mov	 dl, BYTE PTR [eax+6]
  0007e	84 d2		 test	 dl, dl
  00080	0f 84 c4 00 00
	00		 je	 $LN90@GetIntAttr
  00086	80 f2 eb	 xor	 dl, -21			; ffffffebH
  00089	88 55 ee	 mov	 BYTE PTR __k$[ebp+6], dl
  0008c	8a 50 07	 mov	 dl, BYTE PTR [eax+7]
  0008f	84 d2		 test	 dl, dl
  00091	0f 84 ad 00 00
	00		 je	 $LN89@GetIntAttr
  00097	80 f2 ea	 xor	 dl, -22			; ffffffeaH
  0009a	88 55 ef	 mov	 BYTE PTR __k$[ebp+7], dl
  0009d	8a 50 08	 mov	 dl, BYTE PTR [eax+8]
  000a0	84 d2		 test	 dl, dl
  000a2	0f 84 96 00 00
	00		 je	 $LN88@GetIntAttr
  000a8	80 f2 ed	 xor	 dl, -19			; ffffffedH
  000ab	88 55 f0	 mov	 BYTE PTR __k$[ebp+8], dl
  000ae	8a 50 09	 mov	 dl, BYTE PTR [eax+9]
  000b1	84 d2		 test	 dl, dl
  000b3	0f 84 80 00 00
	00		 je	 $LN87@GetIntAttr
  000b9	32 d1		 xor	 dl, cl
  000bb	88 55 f1	 mov	 BYTE PTR __k$[ebp+9], dl
  000be	8a 50 0a	 mov	 dl, BYTE PTR [eax+10]
  000c1	84 d2		 test	 dl, dl
  000c3	74 6e		 je	 SHORT $LN86@GetIntAttr
  000c5	80 f2 eb	 xor	 dl, -21			; ffffffebH
  000c8	88 55 f2	 mov	 BYTE PTR __k$[ebp+10], dl
  000cb	8a 50 0b	 mov	 dl, BYTE PTR [eax+11]
  000ce	84 d2		 test	 dl, dl
  000d0	74 5b		 je	 SHORT $LN85@GetIntAttr
  000d2	80 f2 ea	 xor	 dl, -22			; ffffffeaH
  000d5	80 78 0c 00	 cmp	 BYTE PTR [eax+12], 0
  000d9	88 55 f3	 mov	 BYTE PTR __k$[ebp+11], dl
  000dc	0f 84 8f 00 00
	00		 je	 $LN1@GetIntAttr
  000e2	8a 50 0d	 mov	 dl, BYTE PTR [eax+13]
  000e5	84 d2		 test	 dl, dl
  000e7	74 3f		 je	 SHORT $LN83@GetIntAttr
  000e9	32 d1		 xor	 dl, cl
  000eb	88 55 f5	 mov	 BYTE PTR __k$[ebp+13], dl
  000ee	8a 50 0e	 mov	 dl, BYTE PTR [eax+14]
  000f1	84 d2		 test	 dl, dl
  000f3	74 2d		 je	 SHORT $LN82@GetIntAttr
  000f5	80 f2 eb	 xor	 dl, -21			; ffffffebH
  000f8	88 55 f6	 mov	 BYTE PTR __k$[ebp+14], dl
  000fb	8a 50 0f	 mov	 dl, BYTE PTR [eax+15]
  000fe	84 d2		 test	 dl, dl
  00100	74 1a		 je	 SHORT $LN81@GetIntAttr
  00102	8a 40 10	 mov	 al, BYTE PTR [eax+16]
  00105	80 f2 ea	 xor	 dl, -22			; ffffffeaH
  00108	88 55 f7	 mov	 BYTE PTR __k$[ebp+15], dl
  0010b	84 c0		 test	 al, al
  0010d	74 07		 je	 SHORT $LN80@GetIntAttr
  0010f	34 ed		 xor	 al, -19			; ffffffedH
  00111	88 45 f8	 mov	 BYTE PTR __k$[ebp+16], al
  00114	eb 5b		 jmp	 SHORT $LN1@GetIntAttr
$LN80@GetIntAttr:
  00116	c6 45 f8 ed	 mov	 BYTE PTR __k$[ebp+16], -19 ; ffffffedH
  0011a	eb 55		 jmp	 SHORT $LN1@GetIntAttr
$LN81@GetIntAttr:
  0011c	c6 45 f7 ea	 mov	 BYTE PTR __k$[ebp+15], -22 ; ffffffeaH
  00120	eb 4f		 jmp	 SHORT $LN1@GetIntAttr
$LN82@GetIntAttr:
  00122	c6 45 f6 eb	 mov	 BYTE PTR __k$[ebp+14], -21 ; ffffffebH
  00126	eb 49		 jmp	 SHORT $LN1@GetIntAttr
$LN83@GetIntAttr:
  00128	88 4d f5	 mov	 BYTE PTR __k$[ebp+13], cl
  0012b	eb 44		 jmp	 SHORT $LN1@GetIntAttr
$LN85@GetIntAttr:
  0012d	c6 45 f3 ea	 mov	 BYTE PTR __k$[ebp+11], -22 ; ffffffeaH
  00131	eb 3e		 jmp	 SHORT $LN1@GetIntAttr
$LN86@GetIntAttr:
  00133	c6 45 f2 eb	 mov	 BYTE PTR __k$[ebp+10], -21 ; ffffffebH
  00137	eb 38		 jmp	 SHORT $LN1@GetIntAttr
$LN87@GetIntAttr:
  00139	88 4d f1	 mov	 BYTE PTR __k$[ebp+9], cl
  0013c	eb 33		 jmp	 SHORT $LN1@GetIntAttr
$LN88@GetIntAttr:
  0013e	c6 45 f0 ed	 mov	 BYTE PTR __k$[ebp+8], -19 ; ffffffedH
  00142	eb 2d		 jmp	 SHORT $LN1@GetIntAttr
$LN89@GetIntAttr:
  00144	c6 45 ef ea	 mov	 BYTE PTR __k$[ebp+7], -22 ; ffffffeaH
  00148	eb 27		 jmp	 SHORT $LN1@GetIntAttr
$LN90@GetIntAttr:
  0014a	c6 45 ee eb	 mov	 BYTE PTR __k$[ebp+6], -21 ; ffffffebH
  0014e	eb 21		 jmp	 SHORT $LN1@GetIntAttr
$LN91@GetIntAttr:
  00150	88 4d ed	 mov	 BYTE PTR __k$[ebp+5], cl
  00153	eb 1c		 jmp	 SHORT $LN1@GetIntAttr
$LN92@GetIntAttr:
  00155	c6 45 ec ed	 mov	 BYTE PTR __k$[ebp+4], -19 ; ffffffedH
  00159	eb 16		 jmp	 SHORT $LN1@GetIntAttr
$LN93@GetIntAttr:
  0015b	c6 45 eb ea	 mov	 BYTE PTR __k$[ebp+3], -22 ; ffffffeaH
  0015f	eb 10		 jmp	 SHORT $LN1@GetIntAttr
$LN94@GetIntAttr:
  00161	c6 45 ea eb	 mov	 BYTE PTR __k$[ebp+2], -21 ; ffffffebH
  00165	eb 0a		 jmp	 SHORT $LN1@GetIntAttr
$LN95@GetIntAttr:
  00167	c6 45 e9 ec	 mov	 BYTE PTR __k$[ebp+1], -20 ; ffffffecH
  0016b	eb 04		 jmp	 SHORT $LN1@GetIntAttr
$LN96@GetIntAttr:
  0016d	c6 45 e8 ed	 mov	 BYTE PTR __k$[ebp], -19	; ffffffedH
$LN1@GetIntAttr:
  00171	6a 03		 push	 3
  00173	8d 45 e8	 lea	 eax, DWORD PTR __k$[ebp]
  00176	c6 45 f4 00	 mov	 BYTE PTR __k$[ebp+12], 0
  0017a	5a		 pop	 edx
$LL104@GetIntAttr:
  0017b	81 30 ed ec eb
	ea		 xor	 DWORD PTR [eax], -353637139 ; eaebecedH
  00181	83 c0 04	 add	 eax, 4
  00184	4a		 dec	 edx
  00185	75 f4		 jne	 SHORT $LL104@GetIntAttr

; 88   : 		return GetIntAttribute(_k);

  00187	8d 45 e8	 lea	 eax, DWORD PTR __k$[ebp]
  0018a	50		 push	 eax
  0018b	8b ce		 mov	 ecx, esi
  0018d	ff 15 00 00 00
	00		 call	 DWORD PTR __imp_?GetIntAttribute@ioXMLElement@@QBEHPBD@Z

; 89   : 	}

  00193	8b 4d fc	 mov	 ecx, DWORD PTR __$ArrayPad$[ebp]
  00196	33 cd		 xor	 ecx, ebp
  00198	5e		 pop	 esi
  00199	e8 00 00 00 00	 call	 @__security_check_cookie@4
  0019e	c9		 leave
  0019f	c2 04 00	 ret	 4
??$GetIntAttribute_e@$0N@@ioXMLElement@@QBEHAAY0N@$$CBD@Z ENDP ; ioXMLElement::GetIntAttribute_e<13>
_TEXT	ENDS
PUBLIC	__$ArrayPad$
PUBLIC	??$GetIntAttribute_e@$0BD@@ioXMLElement@@QBEHAAY0BD@$$CBD@Z ; ioXMLElement::GetIntAttribute_e<19>
; Function compile flags: /Ogsp
;	COMDAT ??$GetIntAttribute_e@$0BD@@ioXMLElement@@QBEHAAY0BD@$$CBD@Z
_TEXT	SEGMENT
__k$ = -28						; size = 19
__$ArrayPad$ = -4					; size = 4
_k$ = 8							; size = 4
??$GetIntAttribute_e@$0BD@@ioXMLElement@@QBEHAAY0BD@$$CBD@Z PROC ; ioXMLElement::GetIntAttribute_e<19>, COMDAT
; _this$ = ecx

; 86   : 	{

  00000	55		 push	 ebp
  00001	8b ec		 mov	 ebp, esp
  00003	83 ec 1c	 sub	 esp, 28			; 0000001cH
  00006	a1 00 00 00 00	 mov	 eax, DWORD PTR ___security_cookie
  0000b	33 c5		 xor	 eax, ebp
  0000d	89 45 fc	 mov	 DWORD PTR __$ArrayPad$[ebp], eax
  00010	8b 45 08	 mov	 eax, DWORD PTR _k$[ebp]

; 87   : 		_ENCSTR(k, _k);

  00013	8a 10		 mov	 dl, BYTE PTR [eax]
  00015	56		 push	 esi
  00016	8b f1		 mov	 esi, ecx
  00018	84 d2		 test	 dl, dl
  0001a	0f 84 cf 01 00
	00		 je	 $LN96@GetIntAttr@2
  00020	80 f2 ed	 xor	 dl, -19			; ffffffedH
  00023	88 55 e4	 mov	 BYTE PTR __k$[ebp], dl
  00026	8a 50 01	 mov	 dl, BYTE PTR [eax+1]
  00029	84 d2		 test	 dl, dl
  0002b	0f 84 b8 01 00
	00		 je	 $LN95@GetIntAttr@2
  00031	b1 ec		 mov	 cl, -20			; ffffffecH
  00033	32 d1		 xor	 dl, cl
  00035	88 55 e5	 mov	 BYTE PTR __k$[ebp+1], dl
  00038	8a 50 02	 mov	 dl, BYTE PTR [eax+2]
  0003b	84 d2		 test	 dl, dl
  0003d	0f 84 a0 01 00
	00		 je	 $LN94@GetIntAttr@2
  00043	80 f2 eb	 xor	 dl, -21			; ffffffebH
  00046	88 55 e6	 mov	 BYTE PTR __k$[ebp+2], dl
  00049	8a 50 03	 mov	 dl, BYTE PTR [eax+3]
  0004c	84 d2		 test	 dl, dl
  0004e	0f 84 89 01 00
	00		 je	 $LN93@GetIntAttr@2
  00054	80 f2 ea	 xor	 dl, -22			; ffffffeaH
  00057	88 55 e7	 mov	 BYTE PTR __k$[ebp+3], dl
  0005a	8a 50 04	 mov	 dl, BYTE PTR [eax+4]
  0005d	84 d2		 test	 dl, dl
  0005f	0f 84 72 01 00
	00		 je	 $LN92@GetIntAttr@2
  00065	80 f2 ed	 xor	 dl, -19			; ffffffedH
  00068	88 55 e8	 mov	 BYTE PTR __k$[ebp+4], dl
  0006b	8a 50 05	 mov	 dl, BYTE PTR [eax+5]
  0006e	84 d2		 test	 dl, dl
  00070	0f 84 5c 01 00
	00		 je	 $LN91@GetIntAttr@2
  00076	32 d1		 xor	 dl, cl
  00078	88 55 e9	 mov	 BYTE PTR __k$[ebp+5], dl
  0007b	8a 50 06	 mov	 dl, BYTE PTR [eax+6]
  0007e	84 d2		 test	 dl, dl
  00080	0f 84 46 01 00
	00		 je	 $LN90@GetIntAttr@2
  00086	80 f2 eb	 xor	 dl, -21			; ffffffebH
  00089	88 55 ea	 mov	 BYTE PTR __k$[ebp+6], dl
  0008c	8a 50 07	 mov	 dl, BYTE PTR [eax+7]
  0008f	84 d2		 test	 dl, dl
  00091	0f 84 2f 01 00
	00		 je	 $LN89@GetIntAttr@2
  00097	80 f2 ea	 xor	 dl, -22			; ffffffeaH
  0009a	88 55 eb	 mov	 BYTE PTR __k$[ebp+7], dl
  0009d	8a 50 08	 mov	 dl, BYTE PTR [eax+8]
  000a0	84 d2		 test	 dl, dl
  000a2	0f 84 18 01 00
	00		 je	 $LN88@GetIntAttr@2
  000a8	80 f2 ed	 xor	 dl, -19			; ffffffedH
  000ab	88 55 ec	 mov	 BYTE PTR __k$[ebp+8], dl
  000ae	8a 50 09	 mov	 dl, BYTE PTR [eax+9]
  000b1	84 d2		 test	 dl, dl
  000b3	0f 84 02 01 00
	00		 je	 $LN87@GetIntAttr@2
  000b9	32 d1		 xor	 dl, cl
  000bb	88 55 ed	 mov	 BYTE PTR __k$[ebp+9], dl
  000be	8a 50 0a	 mov	 dl, BYTE PTR [eax+10]
  000c1	84 d2		 test	 dl, dl
  000c3	0f 84 ec 00 00
	00		 je	 $LN86@GetIntAttr@2
  000c9	80 f2 eb	 xor	 dl, -21			; ffffffebH
  000cc	88 55 ee	 mov	 BYTE PTR __k$[ebp+10], dl
  000cf	8a 50 0b	 mov	 dl, BYTE PTR [eax+11]
  000d2	84 d2		 test	 dl, dl
  000d4	0f 84 d5 00 00
	00		 je	 $LN85@GetIntAttr@2
  000da	80 f2 ea	 xor	 dl, -22			; ffffffeaH
  000dd	88 55 ef	 mov	 BYTE PTR __k$[ebp+11], dl
  000e0	8a 50 0c	 mov	 dl, BYTE PTR [eax+12]
  000e3	84 d2		 test	 dl, dl
  000e5	0f 84 be 00 00
	00		 je	 $LN84@GetIntAttr@2
  000eb	80 f2 ed	 xor	 dl, -19			; ffffffedH
  000ee	88 55 f0	 mov	 BYTE PTR __k$[ebp+12], dl
  000f1	8a 50 0d	 mov	 dl, BYTE PTR [eax+13]
  000f4	84 d2		 test	 dl, dl
  000f6	0f 84 a8 00 00
	00		 je	 $LN83@GetIntAttr@2
  000fc	32 d1		 xor	 dl, cl
  000fe	88 55 f1	 mov	 BYTE PTR __k$[ebp+13], dl
  00101	8a 50 0e	 mov	 dl, BYTE PTR [eax+14]
  00104	84 d2		 test	 dl, dl
  00106	0f 84 92 00 00
	00		 je	 $LN82@GetIntAttr@2
  0010c	80 f2 eb	 xor	 dl, -21			; ffffffebH
  0010f	88 55 f2	 mov	 BYTE PTR __k$[ebp+14], dl
  00112	8a 50 0f	 mov	 dl, BYTE PTR [eax+15]
  00115	84 d2		 test	 dl, dl
  00117	74 7f		 je	 SHORT $LN81@GetIntAttr@2
  00119	80 f2 ea	 xor	 dl, -22			; ffffffeaH
  0011c	88 55 f3	 mov	 BYTE PTR __k$[ebp+15], dl
  0011f	8a 50 10	 mov	 dl, BYTE PTR [eax+16]
  00122	84 d2		 test	 dl, dl
  00124	74 6c		 je	 SHORT $LN80@GetIntAttr@2
  00126	80 f2 ed	 xor	 dl, -19			; ffffffedH
  00129	88 55 f4	 mov	 BYTE PTR __k$[ebp+16], dl
  0012c	8a 50 11	 mov	 dl, BYTE PTR [eax+17]
  0012f	84 d2		 test	 dl, dl
  00131	74 5a		 je	 SHORT $LN79@GetIntAttr@2
  00133	32 d1		 xor	 dl, cl
  00135	80 78 12 00	 cmp	 BYTE PTR [eax+18], 0
  00139	88 55 f5	 mov	 BYTE PTR __k$[ebp+17], dl
  0013c	0f 84 b1 00 00
	00		 je	 $LN1@GetIntAttr@2
  00142	8a 50 13	 mov	 dl, BYTE PTR [eax+19]
  00145	84 d2		 test	 dl, dl
  00147	74 3e		 je	 SHORT $LN77@GetIntAttr@2
  00149	80 f2 ea	 xor	 dl, -22			; ffffffeaH
  0014c	88 55 f7	 mov	 BYTE PTR __k$[ebp+19], dl
  0014f	8a 50 14	 mov	 dl, BYTE PTR [eax+20]
  00152	84 d2		 test	 dl, dl
  00154	74 2b		 je	 SHORT $LN76@GetIntAttr@2
  00156	80 f2 ed	 xor	 dl, -19			; ffffffedH
  00159	88 55 f8	 mov	 BYTE PTR __k$[ebp+20], dl
  0015c	8a 50 15	 mov	 dl, BYTE PTR [eax+21]
  0015f	84 d2		 test	 dl, dl
  00161	74 19		 je	 SHORT $LN75@GetIntAttr@2
  00163	8a 40 16	 mov	 al, BYTE PTR [eax+22]
  00166	32 d1		 xor	 dl, cl
  00168	88 55 f9	 mov	 BYTE PTR __k$[ebp+21], dl
  0016b	84 c0		 test	 al, al
  0016d	74 07		 je	 SHORT $LN74@GetIntAttr@2
  0016f	34 eb		 xor	 al, -21			; ffffffebH
  00171	88 45 fa	 mov	 BYTE PTR __k$[ebp+22], al
  00174	eb 7d		 jmp	 SHORT $LN1@GetIntAttr@2
$LN74@GetIntAttr@2:
  00176	c6 45 fa eb	 mov	 BYTE PTR __k$[ebp+22], -21 ; ffffffebH
  0017a	eb 77		 jmp	 SHORT $LN1@GetIntAttr@2
$LN75@GetIntAttr@2:
  0017c	88 4d f9	 mov	 BYTE PTR __k$[ebp+21], cl
  0017f	eb 72		 jmp	 SHORT $LN1@GetIntAttr@2
$LN76@GetIntAttr@2:
  00181	c6 45 f8 ed	 mov	 BYTE PTR __k$[ebp+20], -19 ; ffffffedH
  00185	eb 6c		 jmp	 SHORT $LN1@GetIntAttr@2
$LN77@GetIntAttr@2:
  00187	c6 45 f7 ea	 mov	 BYTE PTR __k$[ebp+19], -22 ; ffffffeaH
  0018b	eb 66		 jmp	 SHORT $LN1@GetIntAttr@2
$LN79@GetIntAttr@2:
  0018d	88 4d f5	 mov	 BYTE PTR __k$[ebp+17], cl
  00190	eb 61		 jmp	 SHORT $LN1@GetIntAttr@2
$LN80@GetIntAttr@2:
  00192	c6 45 f4 ed	 mov	 BYTE PTR __k$[ebp+16], -19 ; ffffffedH
  00196	eb 5b		 jmp	 SHORT $LN1@GetIntAttr@2
$LN81@GetIntAttr@2:
  00198	c6 45 f3 ea	 mov	 BYTE PTR __k$[ebp+15], -22 ; ffffffeaH
  0019c	eb 55		 jmp	 SHORT $LN1@GetIntAttr@2
$LN82@GetIntAttr@2:
  0019e	c6 45 f2 eb	 mov	 BYTE PTR __k$[ebp+14], -21 ; ffffffebH
  001a2	eb 4f		 jmp	 SHORT $LN1@GetIntAttr@2
$LN83@GetIntAttr@2:
  001a4	88 4d f1	 mov	 BYTE PTR __k$[ebp+13], cl
  001a7	eb 4a		 jmp	 SHORT $LN1@GetIntAttr@2
$LN84@GetIntAttr@2:
  001a9	c6 45 f0 ed	 mov	 BYTE PTR __k$[ebp+12], -19 ; ffffffedH
  001ad	eb 44		 jmp	 SHORT $LN1@GetIntAttr@2
$LN85@GetIntAttr@2:
  001af	c6 45 ef ea	 mov	 BYTE PTR __k$[ebp+11], -22 ; ffffffeaH
  001b3	eb 3e		 jmp	 SHORT $LN1@GetIntAttr@2
$LN86@GetIntAttr@2:
  001b5	c6 45 ee eb	 mov	 BYTE PTR __k$[ebp+10], -21 ; ffffffebH
  001b9	eb 38		 jmp	 SHORT $LN1@GetIntAttr@2
$LN87@GetIntAttr@2:
  001bb	88 4d ed	 mov	 BYTE PTR __k$[ebp+9], cl
  001be	eb 33		 jmp	 SHORT $LN1@GetIntAttr@2
$LN88@GetIntAttr@2:
  001c0	c6 45 ec ed	 mov	 BYTE PTR __k$[ebp+8], -19 ; ffffffedH
  001c4	eb 2d		 jmp	 SHORT $LN1@GetIntAttr@2
$LN89@GetIntAttr@2:
  001c6	c6 45 eb ea	 mov	 BYTE PTR __k$[ebp+7], -22 ; ffffffeaH
  001ca	eb 27		 jmp	 SHORT $LN1@GetIntAttr@2
$LN90@GetIntAttr@2:
  001cc	c6 45 ea eb	 mov	 BYTE PTR __k$[ebp+6], -21 ; ffffffebH
  001d0	eb 21		 jmp	 SHORT $LN1@GetIntAttr@2
$LN91@GetIntAttr@2:
  001d2	88 4d e9	 mov	 BYTE PTR __k$[ebp+5], cl
  001d5	eb 1c		 jmp	 SHORT $LN1@GetIntAttr@2
$LN92@GetIntAttr@2:
  001d7	c6 45 e8 ed	 mov	 BYTE PTR __k$[ebp+4], -19 ; ffffffedH
  001db	eb 16		 jmp	 SHORT $LN1@GetIntAttr@2
$LN93@GetIntAttr@2:
  001dd	c6 45 e7 ea	 mov	 BYTE PTR __k$[ebp+3], -22 ; ffffffeaH
  001e1	eb 10		 jmp	 SHORT $LN1@GetIntAttr@2
$LN94@GetIntAttr@2:
  001e3	c6 45 e6 eb	 mov	 BYTE PTR __k$[ebp+2], -21 ; ffffffebH
  001e7	eb 0a		 jmp	 SHORT $LN1@GetIntAttr@2
$LN95@GetIntAttr@2:
  001e9	c6 45 e5 ec	 mov	 BYTE PTR __k$[ebp+1], -20 ; ffffffecH
  001ed	eb 04		 jmp	 SHORT $LN1@GetIntAttr@2
$LN96@GetIntAttr@2:
  001ef	c6 45 e4 ed	 mov	 BYTE PTR __k$[ebp], -19	; ffffffedH
$LN1@GetIntAttr@2:
  001f3	6a 04		 push	 4
  001f5	8d 45 e4	 lea	 eax, DWORD PTR __k$[ebp]
  001f8	c6 45 f6 00	 mov	 BYTE PTR __k$[ebp+18], 0
  001fc	5a		 pop	 edx
$LL104@GetIntAttr@2:
  001fd	81 30 ed ec eb
	ea		 xor	 DWORD PTR [eax], -353637139 ; eaebecedH
  00203	83 c0 04	 add	 eax, 4
  00206	4a		 dec	 edx
  00207	75 f4		 jne	 SHORT $LL104@GetIntAttr@2
  00209	6a 10		 push	 16			; 00000010H
  0020b	58		 pop	 eax
$LL101@GetIntAttr@2:
  0020c	8b c8		 mov	 ecx, eax
  0020e	81 e1 03 00 00
	80		 and	 ecx, -2147483645	; 80000003H
  00214	79 05		 jns	 SHORT $LN111@GetIntAttr@2
  00216	49		 dec	 ecx
  00217	83 c9 fc	 or	 ecx, -4			; fffffffcH
  0021a	41		 inc	 ecx
$LN111@GetIntAttr@2:
  0021b	b2 ed		 mov	 dl, -19			; ffffffedH
  0021d	2a d1		 sub	 dl, cl
  0021f	30 54 05 e4	 xor	 BYTE PTR __k$[ebp+eax], dl
  00223	40		 inc	 eax
  00224	83 f8 12	 cmp	 eax, 18			; 00000012H
  00227	7c e3		 jl	 SHORT $LL101@GetIntAttr@2

; 88   : 		return GetIntAttribute(_k);

  00229	8d 45 e4	 lea	 eax, DWORD PTR __k$[ebp]
  0022c	50		 push	 eax
  0022d	8b ce		 mov	 ecx, esi
  0022f	ff 15 00 00 00
	00		 call	 DWORD PTR __imp_?GetIntAttribute@ioXMLElement@@QBEHPBD@Z

; 89   : 	}

  00235	8b 4d fc	 mov	 ecx, DWORD PTR __$ArrayPad$[ebp]
  00238	33 cd		 xor	 ecx, ebp
  0023a	5e		 pop	 esi
  0023b	e8 00 00 00 00	 call	 @__security_check_cookie@4
  00240	c9		 leave
  00241	c2 04 00	 ret	 4
??$GetIntAttribute_e@$0BD@@ioXMLElement@@QBEHAAY0BD@$$CBD@Z ENDP ; ioXMLElement::GetIntAttribute_e<19>
_TEXT	ENDS
PUBLIC	__$ArrayPad$
PUBLIC	??$GetFloatAttribute_e@$0L@@ioXMLElement@@QBEMAAY0L@$$CBD@Z ; ioXMLElement::GetFloatAttribute_e<11>
EXTRN	__imp_?GetFloatAttribute@ioXMLElement@@QBEMPBD@Z:PROC
; Function compile flags: /Ogsp
;	COMDAT ??$GetFloatAttribute_e@$0L@@ioXMLElement@@QBEMAAY0L@$$CBD@Z
_TEXT	SEGMENT
__k$ = -20						; size = 11
__$ArrayPad$ = -4					; size = 4
_k$ = 8							; size = 4
??$GetFloatAttribute_e@$0L@@ioXMLElement@@QBEMAAY0L@$$CBD@Z PROC ; ioXMLElement::GetFloatAttribute_e<11>, COMDAT
; _this$ = ecx

; 100  : 	{

  00000	55		 push	 ebp
  00001	8b ec		 mov	 ebp, esp
  00003	83 ec 14	 sub	 esp, 20			; 00000014H
  00006	a1 00 00 00 00	 mov	 eax, DWORD PTR ___security_cookie
  0000b	33 c5		 xor	 eax, ebp
  0000d	89 45 fc	 mov	 DWORD PTR __$ArrayPad$[ebp], eax
  00010	8b 45 08	 mov	 eax, DWORD PTR _k$[ebp]

; 101  : 		_ENCSTR(k, _k);

  00013	8a 10		 mov	 dl, BYTE PTR [eax]
  00015	56		 push	 esi
  00016	8b f1		 mov	 esi, ecx
  00018	84 d2		 test	 dl, dl
  0001a	0f 84 24 01 00
	00		 je	 $LN96@GetFloatAt
  00020	80 f2 ed	 xor	 dl, -19			; ffffffedH
  00023	88 55 ec	 mov	 BYTE PTR __k$[ebp], dl
  00026	8a 50 01	 mov	 dl, BYTE PTR [eax+1]
  00029	84 d2		 test	 dl, dl
  0002b	0f 84 0d 01 00
	00		 je	 $LN95@GetFloatAt
  00031	80 f2 ec	 xor	 dl, -20			; ffffffecH
  00034	88 55 ed	 mov	 BYTE PTR __k$[ebp+1], dl
  00037	8a 50 02	 mov	 dl, BYTE PTR [eax+2]
  0003a	84 d2		 test	 dl, dl
  0003c	0f 84 f6 00 00
	00		 je	 $LN94@GetFloatAt
  00042	80 f2 eb	 xor	 dl, -21			; ffffffebH
  00045	88 55 ee	 mov	 BYTE PTR __k$[ebp+2], dl
  00048	8a 50 03	 mov	 dl, BYTE PTR [eax+3]
  0004b	84 d2		 test	 dl, dl
  0004d	0f 84 df 00 00
	00		 je	 $LN93@GetFloatAt
  00053	80 f2 ea	 xor	 dl, -22			; ffffffeaH
  00056	88 55 ef	 mov	 BYTE PTR __k$[ebp+3], dl
  00059	8a 50 04	 mov	 dl, BYTE PTR [eax+4]
  0005c	84 d2		 test	 dl, dl
  0005e	0f 84 c8 00 00
	00		 je	 $LN92@GetFloatAt
  00064	80 f2 ed	 xor	 dl, -19			; ffffffedH
  00067	88 55 f0	 mov	 BYTE PTR __k$[ebp+4], dl
  0006a	8a 50 05	 mov	 dl, BYTE PTR [eax+5]
  0006d	84 d2		 test	 dl, dl
  0006f	0f 84 b1 00 00
	00		 je	 $LN91@GetFloatAt
  00075	80 f2 ec	 xor	 dl, -20			; ffffffecH
  00078	88 55 f1	 mov	 BYTE PTR __k$[ebp+5], dl
  0007b	8a 50 06	 mov	 dl, BYTE PTR [eax+6]
  0007e	84 d2		 test	 dl, dl
  00080	0f 84 9a 00 00
	00		 je	 $LN90@GetFloatAt
  00086	80 f2 eb	 xor	 dl, -21			; ffffffebH
  00089	88 55 f2	 mov	 BYTE PTR __k$[ebp+6], dl
  0008c	8a 50 07	 mov	 dl, BYTE PTR [eax+7]
  0008f	84 d2		 test	 dl, dl
  00091	0f 84 83 00 00
	00		 je	 $LN89@GetFloatAt
  00097	80 f2 ea	 xor	 dl, -22			; ffffffeaH
  0009a	88 55 f3	 mov	 BYTE PTR __k$[ebp+7], dl
  0009d	8a 50 08	 mov	 dl, BYTE PTR [eax+8]
  000a0	84 d2		 test	 dl, dl
  000a2	74 70		 je	 SHORT $LN88@GetFloatAt
  000a4	80 f2 ed	 xor	 dl, -19			; ffffffedH
  000a7	88 55 f4	 mov	 BYTE PTR __k$[ebp+8], dl
  000aa	8a 50 09	 mov	 dl, BYTE PTR [eax+9]
  000ad	84 d2		 test	 dl, dl
  000af	74 5d		 je	 SHORT $LN87@GetFloatAt
  000b1	80 f2 ec	 xor	 dl, -20			; ffffffecH
  000b4	80 78 0a 00	 cmp	 BYTE PTR [eax+10], 0
  000b8	88 55 f5	 mov	 BYTE PTR __k$[ebp+9], dl
  000bb	0f 84 87 00 00
	00		 je	 $LN1@GetFloatAt
  000c1	8a 50 0b	 mov	 dl, BYTE PTR [eax+11]
  000c4	84 d2		 test	 dl, dl
  000c6	74 40		 je	 SHORT $LN85@GetFloatAt
  000c8	80 f2 ea	 xor	 dl, -22			; ffffffeaH
  000cb	88 55 f7	 mov	 BYTE PTR __k$[ebp+11], dl
  000ce	8a 50 0c	 mov	 dl, BYTE PTR [eax+12]
  000d1	84 d2		 test	 dl, dl
  000d3	74 2d		 je	 SHORT $LN84@GetFloatAt
  000d5	80 f2 ed	 xor	 dl, -19			; ffffffedH
  000d8	88 55 f8	 mov	 BYTE PTR __k$[ebp+12], dl
  000db	8a 50 0d	 mov	 dl, BYTE PTR [eax+13]
  000de	84 d2		 test	 dl, dl
  000e0	74 1a		 je	 SHORT $LN83@GetFloatAt
  000e2	8a 40 0e	 mov	 al, BYTE PTR [eax+14]
  000e5	80 f2 ec	 xor	 dl, -20			; ffffffecH
  000e8	88 55 f9	 mov	 BYTE PTR __k$[ebp+13], dl
  000eb	84 c0		 test	 al, al
  000ed	74 07		 je	 SHORT $LN82@GetFloatAt
  000ef	34 eb		 xor	 al, -21			; ffffffebH
  000f1	88 45 fa	 mov	 BYTE PTR __k$[ebp+14], al
  000f4	eb 52		 jmp	 SHORT $LN1@GetFloatAt
$LN82@GetFloatAt:
  000f6	c6 45 fa eb	 mov	 BYTE PTR __k$[ebp+14], -21 ; ffffffebH
  000fa	eb 4c		 jmp	 SHORT $LN1@GetFloatAt
$LN83@GetFloatAt:
  000fc	c6 45 f9 ec	 mov	 BYTE PTR __k$[ebp+13], -20 ; ffffffecH
  00100	eb 46		 jmp	 SHORT $LN1@GetFloatAt
$LN84@GetFloatAt:
  00102	c6 45 f8 ed	 mov	 BYTE PTR __k$[ebp+12], -19 ; ffffffedH
  00106	eb 40		 jmp	 SHORT $LN1@GetFloatAt
$LN85@GetFloatAt:
  00108	c6 45 f7 ea	 mov	 BYTE PTR __k$[ebp+11], -22 ; ffffffeaH
  0010c	eb 3a		 jmp	 SHORT $LN1@GetFloatAt
$LN87@GetFloatAt:
  0010e	c6 45 f5 ec	 mov	 BYTE PTR __k$[ebp+9], -20 ; ffffffecH
  00112	eb 34		 jmp	 SHORT $LN1@GetFloatAt
$LN88@GetFloatAt:
  00114	c6 45 f4 ed	 mov	 BYTE PTR __k$[ebp+8], -19 ; ffffffedH
  00118	eb 2e		 jmp	 SHORT $LN1@GetFloatAt
$LN89@GetFloatAt:
  0011a	c6 45 f3 ea	 mov	 BYTE PTR __k$[ebp+7], -22 ; ffffffeaH
  0011e	eb 28		 jmp	 SHORT $LN1@GetFloatAt
$LN90@GetFloatAt:
  00120	c6 45 f2 eb	 mov	 BYTE PTR __k$[ebp+6], -21 ; ffffffebH
  00124	eb 22		 jmp	 SHORT $LN1@GetFloatAt
$LN91@GetFloatAt:
  00126	c6 45 f1 ec	 mov	 BYTE PTR __k$[ebp+5], -20 ; ffffffecH
  0012a	eb 1c		 jmp	 SHORT $LN1@GetFloatAt
$LN92@GetFloatAt:
  0012c	c6 45 f0 ed	 mov	 BYTE PTR __k$[ebp+4], -19 ; ffffffedH
  00130	eb 16		 jmp	 SHORT $LN1@GetFloatAt
$LN93@GetFloatAt:
  00132	c6 45 ef ea	 mov	 BYTE PTR __k$[ebp+3], -22 ; ffffffeaH
  00136	eb 10		 jmp	 SHORT $LN1@GetFloatAt
$LN94@GetFloatAt:
  00138	c6 45 ee eb	 mov	 BYTE PTR __k$[ebp+2], -21 ; ffffffebH
  0013c	eb 0a		 jmp	 SHORT $LN1@GetFloatAt
$LN95@GetFloatAt:
  0013e	c6 45 ed ec	 mov	 BYTE PTR __k$[ebp+1], -20 ; ffffffecH
  00142	eb 04		 jmp	 SHORT $LN1@GetFloatAt
$LN96@GetFloatAt:
  00144	c6 45 ec ed	 mov	 BYTE PTR __k$[ebp], -19	; ffffffedH
$LN1@GetFloatAt:
  00148	6a 02		 push	 2
  0014a	8d 45 ec	 lea	 eax, DWORD PTR __k$[ebp]
  0014d	c6 45 f6 00	 mov	 BYTE PTR __k$[ebp+10], 0
  00151	5a		 pop	 edx
$LL104@GetFloatAt:
  00152	81 30 ed ec eb
	ea		 xor	 DWORD PTR [eax], -353637139 ; eaebecedH
  00158	83 c0 04	 add	 eax, 4
  0015b	4a		 dec	 edx
  0015c	75 f4		 jne	 SHORT $LL104@GetFloatAt
  0015e	6a 08		 push	 8
  00160	58		 pop	 eax
$LL101@GetFloatAt:
  00161	8b c8		 mov	 ecx, eax
  00163	81 e1 03 00 00
	80		 and	 ecx, -2147483645	; 80000003H
  00169	79 05		 jns	 SHORT $LN111@GetFloatAt
  0016b	49		 dec	 ecx
  0016c	83 c9 fc	 or	 ecx, -4			; fffffffcH
  0016f	41		 inc	 ecx
$LN111@GetFloatAt:
  00170	b2 ed		 mov	 dl, -19			; ffffffedH
  00172	2a d1		 sub	 dl, cl
  00174	30 54 05 ec	 xor	 BYTE PTR __k$[ebp+eax], dl
  00178	40		 inc	 eax
  00179	83 f8 0a	 cmp	 eax, 10			; 0000000aH
  0017c	7c e3		 jl	 SHORT $LL101@GetFloatAt

; 102  : 		return GetFloatAttribute(_k);

  0017e	8d 45 ec	 lea	 eax, DWORD PTR __k$[ebp]
  00181	50		 push	 eax
  00182	8b ce		 mov	 ecx, esi
  00184	ff 15 00 00 00
	00		 call	 DWORD PTR __imp_?GetFloatAttribute@ioXMLElement@@QBEMPBD@Z

; 103  : 	}

  0018a	8b 4d fc	 mov	 ecx, DWORD PTR __$ArrayPad$[ebp]
  0018d	33 cd		 xor	 ecx, ebp
  0018f	5e		 pop	 esi
  00190	e8 00 00 00 00	 call	 @__security_check_cookie@4
  00195	c9		 leave
  00196	c2 04 00	 ret	 4
??$GetFloatAttribute_e@$0L@@ioXMLElement@@QBEMAAY0L@$$CBD@Z ENDP ; ioXMLElement::GetFloatAttribute_e<11>
_TEXT	ENDS
PUBLIC	__$ArrayPad$
PUBLIC	??$GetIntAttribute_e@$0BA@@ioXMLElement@@QBEHAAY0BA@$$CBD@Z ; ioXMLElement::GetIntAttribute_e<16>
; Function compile flags: /Ogsp
;	COMDAT ??$GetIntAttribute_e@$0BA@@ioXMLElement@@QBEHAAY0BA@$$CBD@Z
_TEXT	SEGMENT
__k$ = -24						; size = 16
__$ArrayPad$ = -4					; size = 4
_k$ = 8							; size = 4
??$GetIntAttribute_e@$0BA@@ioXMLElement@@QBEHAAY0BA@$$CBD@Z PROC ; ioXMLElement::GetIntAttribute_e<16>, COMDAT
; _this$ = ecx

; 86   : 	{

  00000	55		 push	 ebp
  00001	8b ec		 mov	 ebp, esp
  00003	83 ec 18	 sub	 esp, 24			; 00000018H
  00006	a1 00 00 00 00	 mov	 eax, DWORD PTR ___security_cookie
  0000b	33 c5		 xor	 eax, ebp
  0000d	89 45 fc	 mov	 DWORD PTR __$ArrayPad$[ebp], eax
  00010	8b 45 08	 mov	 eax, DWORD PTR _k$[ebp]

; 87   : 		_ENCSTR(k, _k);

  00013	8a 10		 mov	 dl, BYTE PTR [eax]
  00015	56		 push	 esi
  00016	8b f1		 mov	 esi, ecx
  00018	84 d2		 test	 dl, dl
  0001a	0f 84 8c 01 00
	00		 je	 $LN96@GetIntAttr@3
  00020	80 f2 ed	 xor	 dl, -19			; ffffffedH
  00023	88 55 e8	 mov	 BYTE PTR __k$[ebp], dl
  00026	8a 50 01	 mov	 dl, BYTE PTR [eax+1]
  00029	84 d2		 test	 dl, dl
  0002b	0f 84 75 01 00
	00		 je	 $LN95@GetIntAttr@3
  00031	80 f2 ec	 xor	 dl, -20			; ffffffecH
  00034	88 55 e9	 mov	 BYTE PTR __k$[ebp+1], dl
  00037	8a 50 02	 mov	 dl, BYTE PTR [eax+2]
  0003a	84 d2		 test	 dl, dl
  0003c	0f 84 5e 01 00
	00		 je	 $LN94@GetIntAttr@3
  00042	b1 eb		 mov	 cl, -21			; ffffffebH
  00044	32 d1		 xor	 dl, cl
  00046	88 55 ea	 mov	 BYTE PTR __k$[ebp+2], dl
  00049	8a 50 03	 mov	 dl, BYTE PTR [eax+3]
  0004c	84 d2		 test	 dl, dl
  0004e	0f 84 46 01 00
	00		 je	 $LN93@GetIntAttr@3
  00054	80 f2 ea	 xor	 dl, -22			; ffffffeaH
  00057	88 55 eb	 mov	 BYTE PTR __k$[ebp+3], dl
  0005a	8a 50 04	 mov	 dl, BYTE PTR [eax+4]
  0005d	84 d2		 test	 dl, dl
  0005f	0f 84 2f 01 00
	00		 je	 $LN92@GetIntAttr@3
  00065	80 f2 ed	 xor	 dl, -19			; ffffffedH
  00068	88 55 ec	 mov	 BYTE PTR __k$[ebp+4], dl
  0006b	8a 50 05	 mov	 dl, BYTE PTR [eax+5]
  0006e	84 d2		 test	 dl, dl
  00070	0f 84 18 01 00
	00		 je	 $LN91@GetIntAttr@3
  00076	80 f2 ec	 xor	 dl, -20			; ffffffecH
  00079	88 55 ed	 mov	 BYTE PTR __k$[ebp+5], dl
  0007c	8a 50 06	 mov	 dl, BYTE PTR [eax+6]
  0007f	84 d2		 test	 dl, dl
  00081	0f 84 02 01 00
	00		 je	 $LN90@GetIntAttr@3
  00087	32 d1		 xor	 dl, cl
  00089	88 55 ee	 mov	 BYTE PTR __k$[ebp+6], dl
  0008c	8a 50 07	 mov	 dl, BYTE PTR [eax+7]
  0008f	84 d2		 test	 dl, dl
  00091	0f 84 ec 00 00
	00		 je	 $LN89@GetIntAttr@3
  00097	80 f2 ea	 xor	 dl, -22			; ffffffeaH
  0009a	88 55 ef	 mov	 BYTE PTR __k$[ebp+7], dl
  0009d	8a 50 08	 mov	 dl, BYTE PTR [eax+8]
  000a0	84 d2		 test	 dl, dl
  000a2	0f 84 d5 00 00
	00		 je	 $LN88@GetIntAttr@3
  000a8	80 f2 ed	 xor	 dl, -19			; ffffffedH
  000ab	88 55 f0	 mov	 BYTE PTR __k$[ebp+8], dl
  000ae	8a 50 09	 mov	 dl, BYTE PTR [eax+9]
  000b1	84 d2		 test	 dl, dl
  000b3	0f 84 be 00 00
	00		 je	 $LN87@GetIntAttr@3
  000b9	80 f2 ec	 xor	 dl, -20			; ffffffecH
  000bc	88 55 f1	 mov	 BYTE PTR __k$[ebp+9], dl
  000bf	8a 50 0a	 mov	 dl, BYTE PTR [eax+10]
  000c2	84 d2		 test	 dl, dl
  000c4	0f 84 a8 00 00
	00		 je	 $LN86@GetIntAttr@3
  000ca	32 d1		 xor	 dl, cl
  000cc	88 55 f2	 mov	 BYTE PTR __k$[ebp+10], dl
  000cf	8a 50 0b	 mov	 dl, BYTE PTR [eax+11]
  000d2	84 d2		 test	 dl, dl
  000d4	0f 84 92 00 00
	00		 je	 $LN85@GetIntAttr@3
  000da	80 f2 ea	 xor	 dl, -22			; ffffffeaH
  000dd	88 55 f3	 mov	 BYTE PTR __k$[ebp+11], dl
  000e0	8a 50 0c	 mov	 dl, BYTE PTR [eax+12]
  000e3	84 d2		 test	 dl, dl
  000e5	74 7f		 je	 SHORT $LN84@GetIntAttr@3
  000e7	80 f2 ed	 xor	 dl, -19			; ffffffedH
  000ea	88 55 f4	 mov	 BYTE PTR __k$[ebp+12], dl
  000ed	8a 50 0d	 mov	 dl, BYTE PTR [eax+13]
  000f0	84 d2		 test	 dl, dl
  000f2	74 6c		 je	 SHORT $LN83@GetIntAttr@3
  000f4	80 f2 ec	 xor	 dl, -20			; ffffffecH
  000f7	88 55 f5	 mov	 BYTE PTR __k$[ebp+13], dl
  000fa	8a 50 0e	 mov	 dl, BYTE PTR [eax+14]
  000fd	84 d2		 test	 dl, dl
  000ff	74 5a		 je	 SHORT $LN82@GetIntAttr@3
  00101	32 d1		 xor	 dl, cl
  00103	80 78 0f 00	 cmp	 BYTE PTR [eax+15], 0
  00107	88 55 f6	 mov	 BYTE PTR __k$[ebp+14], dl
  0010a	0f 84 a0 00 00
	00		 je	 $LN1@GetIntAttr@3
  00110	8a 50 10	 mov	 dl, BYTE PTR [eax+16]
  00113	84 d2		 test	 dl, dl
  00115	74 3e		 je	 SHORT $LN80@GetIntAttr@3
  00117	80 f2 ed	 xor	 dl, -19			; ffffffedH
  0011a	88 55 f8	 mov	 BYTE PTR __k$[ebp+16], dl
  0011d	8a 50 11	 mov	 dl, BYTE PTR [eax+17]
  00120	84 d2		 test	 dl, dl
  00122	74 2b		 je	 SHORT $LN79@GetIntAttr@3
  00124	80 f2 ec	 xor	 dl, -20			; ffffffecH
  00127	88 55 f9	 mov	 BYTE PTR __k$[ebp+17], dl
  0012a	8a 50 12	 mov	 dl, BYTE PTR [eax+18]
  0012d	84 d2		 test	 dl, dl
  0012f	74 19		 je	 SHORT $LN78@GetIntAttr@3
  00131	8a 40 13	 mov	 al, BYTE PTR [eax+19]
  00134	32 d1		 xor	 dl, cl
  00136	88 55 fa	 mov	 BYTE PTR __k$[ebp+18], dl
  00139	84 c0		 test	 al, al
  0013b	74 07		 je	 SHORT $LN77@GetIntAttr@3
  0013d	34 ea		 xor	 al, -22			; ffffffeaH
  0013f	88 45 fb	 mov	 BYTE PTR __k$[ebp+19], al
  00142	eb 6c		 jmp	 SHORT $LN1@GetIntAttr@3
$LN77@GetIntAttr@3:
  00144	c6 45 fb ea	 mov	 BYTE PTR __k$[ebp+19], -22 ; ffffffeaH
  00148	eb 66		 jmp	 SHORT $LN1@GetIntAttr@3
$LN78@GetIntAttr@3:
  0014a	88 4d fa	 mov	 BYTE PTR __k$[ebp+18], cl
  0014d	eb 61		 jmp	 SHORT $LN1@GetIntAttr@3
$LN79@GetIntAttr@3:
  0014f	c6 45 f9 ec	 mov	 BYTE PTR __k$[ebp+17], -20 ; ffffffecH
  00153	eb 5b		 jmp	 SHORT $LN1@GetIntAttr@3
$LN80@GetIntAttr@3:
  00155	c6 45 f8 ed	 mov	 BYTE PTR __k$[ebp+16], -19 ; ffffffedH
  00159	eb 55		 jmp	 SHORT $LN1@GetIntAttr@3
$LN82@GetIntAttr@3:
  0015b	88 4d f6	 mov	 BYTE PTR __k$[ebp+14], cl
  0015e	eb 50		 jmp	 SHORT $LN1@GetIntAttr@3
$LN83@GetIntAttr@3:
  00160	c6 45 f5 ec	 mov	 BYTE PTR __k$[ebp+13], -20 ; ffffffecH
  00164	eb 4a		 jmp	 SHORT $LN1@GetIntAttr@3
$LN84@GetIntAttr@3:
  00166	c6 45 f4 ed	 mov	 BYTE PTR __k$[ebp+12], -19 ; ffffffedH
  0016a	eb 44		 jmp	 SHORT $LN1@GetIntAttr@3
$LN85@GetIntAttr@3:
  0016c	c6 45 f3 ea	 mov	 BYTE PTR __k$[ebp+11], -22 ; ffffffeaH
  00170	eb 3e		 jmp	 SHORT $LN1@GetIntAttr@3
$LN86@GetIntAttr@3:
  00172	88 4d f2	 mov	 BYTE PTR __k$[ebp+10], cl
  00175	eb 39		 jmp	 SHORT $LN1@GetIntAttr@3
$LN87@GetIntAttr@3:
  00177	c6 45 f1 ec	 mov	 BYTE PTR __k$[ebp+9], -20 ; ffffffecH
  0017b	eb 33		 jmp	 SHORT $LN1@GetIntAttr@3
$LN88@GetIntAttr@3:
  0017d	c6 45 f0 ed	 mov	 BYTE PTR __k$[ebp+8], -19 ; ffffffedH
  00181	eb 2d		 jmp	 SHORT $LN1@GetIntAttr@3
$LN89@GetIntAttr@3:
  00183	c6 45 ef ea	 mov	 BYTE PTR __k$[ebp+7], -22 ; ffffffeaH
  00187	eb 27		 jmp	 SHORT $LN1@GetIntAttr@3
$LN90@GetIntAttr@3:
  00189	88 4d ee	 mov	 BYTE PTR __k$[ebp+6], cl
  0018c	eb 22		 jmp	 SHORT $LN1@GetIntAttr@3
$LN91@GetIntAttr@3:
  0018e	c6 45 ed ec	 mov	 BYTE PTR __k$[ebp+5], -20 ; ffffffecH
  00192	eb 1c		 jmp	 SHORT $LN1@GetIntAttr@3
$LN92@GetIntAttr@3:
  00194	c6 45 ec ed	 mov	 BYTE PTR __k$[ebp+4], -19 ; ffffffedH
  00198	eb 16		 jmp	 SHORT $LN1@GetIntAttr@3
$LN93@GetIntAttr@3:
  0019a	c6 45 eb ea	 mov	 BYTE PTR __k$[ebp+3], -22 ; ffffffeaH
  0019e	eb 10		 jmp	 SHORT $LN1@GetIntAttr@3
$LN94@GetIntAttr@3:
  001a0	c6 45 ea eb	 mov	 BYTE PTR __k$[ebp+2], -21 ; ffffffebH
  001a4	eb 0a		 jmp	 SHORT $LN1@GetIntAttr@3
$LN95@GetIntAttr@3:
  001a6	c6 45 e9 ec	 mov	 BYTE PTR __k$[ebp+1], -20 ; ffffffecH
  001aa	eb 04		 jmp	 SHORT $LN1@GetIntAttr@3
$LN96@GetIntAttr@3:
  001ac	c6 45 e8 ed	 mov	 BYTE PTR __k$[ebp], -19	; ffffffedH
$LN1@GetIntAttr@3:
  001b0	6a 03		 push	 3
  001b2	8d 45 e8	 lea	 eax, DWORD PTR __k$[ebp]
  001b5	c6 45 f7 00	 mov	 BYTE PTR __k$[ebp+15], 0
  001b9	5a		 pop	 edx
$LL104@GetIntAttr@3:
  001ba	81 30 ed ec eb
	ea		 xor	 DWORD PTR [eax], -353637139 ; eaebecedH
  001c0	83 c0 04	 add	 eax, 4
  001c3	4a		 dec	 edx
  001c4	75 f4		 jne	 SHORT $LL104@GetIntAttr@3
  001c6	6a 0c		 push	 12			; 0000000cH
  001c8	58		 pop	 eax
$LL101@GetIntAttr@3:
  001c9	8b c8		 mov	 ecx, eax
  001cb	81 e1 03 00 00
	80		 and	 ecx, -2147483645	; 80000003H
  001d1	79 05		 jns	 SHORT $LN111@GetIntAttr@3
  001d3	49		 dec	 ecx
  001d4	83 c9 fc	 or	 ecx, -4			; fffffffcH
  001d7	41		 inc	 ecx
$LN111@GetIntAttr@3:
  001d8	b2 ed		 mov	 dl, -19			; ffffffedH
  001da	2a d1		 sub	 dl, cl
  001dc	30 54 05 e8	 xor	 BYTE PTR __k$[ebp+eax], dl
  001e0	40		 inc	 eax
  001e1	83 f8 0f	 cmp	 eax, 15			; 0000000fH
  001e4	7c e3		 jl	 SHORT $LL101@GetIntAttr@3

; 88   : 		return GetIntAttribute(_k);

  001e6	8d 45 e8	 lea	 eax, DWORD PTR __k$[ebp]
  001e9	50		 push	 eax
  001ea	8b ce		 mov	 ecx, esi
  001ec	ff 15 00 00 00
	00		 call	 DWORD PTR __imp_?GetIntAttribute@ioXMLElement@@QBEHPBD@Z

; 89   : 	}

  001f2	8b 4d fc	 mov	 ecx, DWORD PTR __$ArrayPad$[ebp]
  001f5	33 cd		 xor	 ecx, ebp
  001f7	5e		 pop	 esi
  001f8	e8 00 00 00 00	 call	 @__security_check_cookie@4
  001fd	c9		 leave
  001fe	c2 04 00	 ret	 4
??$GetIntAttribute_e@$0BA@@ioXMLElement@@QBEHAAY0BA@$$CBD@Z ENDP ; ioXMLElement::GetIntAttribute_e<16>
_TEXT	ENDS
PUBLIC	__$ArrayPad$
PUBLIC	??$GetStringAttribute_e@$0O@@ioXMLElement@@QBEPBDAAY0O@$$CBD@Z ; ioXMLElement::GetStringAttribute_e<14>
EXTRN	__imp_?GetStringAttribute@ioXMLElement@@QBEPBDPBD@Z:PROC
; Function compile flags: /Ogsp
;	COMDAT ??$GetStringAttribute_e@$0O@@ioXMLElement@@QBEPBDAAY0O@$$CBD@Z
_TEXT	SEGMENT
__k$ = -24						; size = 14
__$ArrayPad$ = -4					; size = 4
_k$ = 8							; size = 4
??$GetStringAttribute_e@$0O@@ioXMLElement@@QBEPBDAAY0O@$$CBD@Z PROC ; ioXMLElement::GetStringAttribute_e<14>, COMDAT
; _this$ = ecx

; 107  : 	{

  00000	55		 push	 ebp
  00001	8b ec		 mov	 ebp, esp
  00003	83 ec 18	 sub	 esp, 24			; 00000018H
  00006	a1 00 00 00 00	 mov	 eax, DWORD PTR ___security_cookie
  0000b	33 c5		 xor	 eax, ebp
  0000d	89 45 fc	 mov	 DWORD PTR __$ArrayPad$[ebp], eax
  00010	8b 45 08	 mov	 eax, DWORD PTR _k$[ebp]

; 108  : 		_ENCSTR(k, _k);

  00013	8a 10		 mov	 dl, BYTE PTR [eax]
  00015	56		 push	 esi
  00016	8b f1		 mov	 esi, ecx
  00018	84 d2		 test	 dl, dl
  0001a	0f 84 64 01 00
	00		 je	 $LN96@GetStringA
  00020	80 f2 ed	 xor	 dl, -19			; ffffffedH
  00023	88 55 e8	 mov	 BYTE PTR __k$[ebp], dl
  00026	8a 50 01	 mov	 dl, BYTE PTR [eax+1]
  00029	84 d2		 test	 dl, dl
  0002b	0f 84 4d 01 00
	00		 je	 $LN95@GetStringA
  00031	80 f2 ec	 xor	 dl, -20			; ffffffecH
  00034	88 55 e9	 mov	 BYTE PTR __k$[ebp+1], dl
  00037	8a 50 02	 mov	 dl, BYTE PTR [eax+2]
  0003a	84 d2		 test	 dl, dl
  0003c	0f 84 36 01 00
	00		 je	 $LN94@GetStringA
  00042	b1 eb		 mov	 cl, -21			; ffffffebH
  00044	32 d1		 xor	 dl, cl
  00046	88 55 ea	 mov	 BYTE PTR __k$[ebp+2], dl
  00049	8a 50 03	 mov	 dl, BYTE PTR [eax+3]
  0004c	84 d2		 test	 dl, dl
  0004e	0f 84 1e 01 00
	00		 je	 $LN93@GetStringA
  00054	80 f2 ea	 xor	 dl, -22			; ffffffeaH
  00057	88 55 eb	 mov	 BYTE PTR __k$[ebp+3], dl
  0005a	8a 50 04	 mov	 dl, BYTE PTR [eax+4]
  0005d	84 d2		 test	 dl, dl
  0005f	0f 84 07 01 00
	00		 je	 $LN92@GetStringA
  00065	80 f2 ed	 xor	 dl, -19			; ffffffedH
  00068	88 55 ec	 mov	 BYTE PTR __k$[ebp+4], dl
  0006b	8a 50 05	 mov	 dl, BYTE PTR [eax+5]
  0006e	84 d2		 test	 dl, dl
  00070	0f 84 f0 00 00
	00		 je	 $LN91@GetStringA
  00076	80 f2 ec	 xor	 dl, -20			; ffffffecH
  00079	88 55 ed	 mov	 BYTE PTR __k$[ebp+5], dl
  0007c	8a 50 06	 mov	 dl, BYTE PTR [eax+6]
  0007f	84 d2		 test	 dl, dl
  00081	0f 84 da 00 00
	00		 je	 $LN90@GetStringA
  00087	32 d1		 xor	 dl, cl
  00089	88 55 ee	 mov	 BYTE PTR __k$[ebp+6], dl
  0008c	8a 50 07	 mov	 dl, BYTE PTR [eax+7]
  0008f	84 d2		 test	 dl, dl
  00091	0f 84 c4 00 00
	00		 je	 $LN89@GetStringA
  00097	80 f2 ea	 xor	 dl, -22			; ffffffeaH
  0009a	88 55 ef	 mov	 BYTE PTR __k$[ebp+7], dl
  0009d	8a 50 08	 mov	 dl, BYTE PTR [eax+8]
  000a0	84 d2		 test	 dl, dl
  000a2	0f 84 ad 00 00
	00		 je	 $LN88@GetStringA
  000a8	80 f2 ed	 xor	 dl, -19			; ffffffedH
  000ab	88 55 f0	 mov	 BYTE PTR __k$[ebp+8], dl
  000ae	8a 50 09	 mov	 dl, BYTE PTR [eax+9]
  000b1	84 d2		 test	 dl, dl
  000b3	0f 84 96 00 00
	00		 je	 $LN87@GetStringA
  000b9	80 f2 ec	 xor	 dl, -20			; ffffffecH
  000bc	88 55 f1	 mov	 BYTE PTR __k$[ebp+9], dl
  000bf	8a 50 0a	 mov	 dl, BYTE PTR [eax+10]
  000c2	84 d2		 test	 dl, dl
  000c4	0f 84 80 00 00
	00		 je	 $LN86@GetStringA
  000ca	32 d1		 xor	 dl, cl
  000cc	88 55 f2	 mov	 BYTE PTR __k$[ebp+10], dl
  000cf	8a 50 0b	 mov	 dl, BYTE PTR [eax+11]
  000d2	84 d2		 test	 dl, dl
  000d4	74 6e		 je	 SHORT $LN85@GetStringA
  000d6	80 f2 ea	 xor	 dl, -22			; ffffffeaH
  000d9	88 55 f3	 mov	 BYTE PTR __k$[ebp+11], dl
  000dc	8a 50 0c	 mov	 dl, BYTE PTR [eax+12]
  000df	84 d2		 test	 dl, dl
  000e1	74 5b		 je	 SHORT $LN84@GetStringA
  000e3	80 f2 ed	 xor	 dl, -19			; ffffffedH
  000e6	80 78 0d 00	 cmp	 BYTE PTR [eax+13], 0
  000ea	88 55 f4	 mov	 BYTE PTR __k$[ebp+12], dl
  000ed	0f 84 95 00 00
	00		 je	 $LN1@GetStringA
  000f3	8a 50 0e	 mov	 dl, BYTE PTR [eax+14]
  000f6	84 d2		 test	 dl, dl
  000f8	74 3f		 je	 SHORT $LN82@GetStringA
  000fa	32 d1		 xor	 dl, cl
  000fc	88 55 f6	 mov	 BYTE PTR __k$[ebp+14], dl
  000ff	8a 50 0f	 mov	 dl, BYTE PTR [eax+15]
  00102	84 d2		 test	 dl, dl
  00104	74 2d		 je	 SHORT $LN81@GetStringA
  00106	80 f2 ea	 xor	 dl, -22			; ffffffeaH
  00109	88 55 f7	 mov	 BYTE PTR __k$[ebp+15], dl
  0010c	8a 50 10	 mov	 dl, BYTE PTR [eax+16]
  0010f	84 d2		 test	 dl, dl
  00111	74 1a		 je	 SHORT $LN80@GetStringA
  00113	8a 40 11	 mov	 al, BYTE PTR [eax+17]
  00116	80 f2 ed	 xor	 dl, -19			; ffffffedH
  00119	88 55 f8	 mov	 BYTE PTR __k$[ebp+16], dl
  0011c	84 c0		 test	 al, al
  0011e	74 07		 je	 SHORT $LN79@GetStringA
  00120	34 ec		 xor	 al, -20			; ffffffecH
  00122	88 45 f9	 mov	 BYTE PTR __k$[ebp+17], al
  00125	eb 61		 jmp	 SHORT $LN1@GetStringA
$LN79@GetStringA:
  00127	c6 45 f9 ec	 mov	 BYTE PTR __k$[ebp+17], -20 ; ffffffecH
  0012b	eb 5b		 jmp	 SHORT $LN1@GetStringA
$LN80@GetStringA:
  0012d	c6 45 f8 ed	 mov	 BYTE PTR __k$[ebp+16], -19 ; ffffffedH
  00131	eb 55		 jmp	 SHORT $LN1@GetStringA
$LN81@GetStringA:
  00133	c6 45 f7 ea	 mov	 BYTE PTR __k$[ebp+15], -22 ; ffffffeaH
  00137	eb 4f		 jmp	 SHORT $LN1@GetStringA
$LN82@GetStringA:
  00139	88 4d f6	 mov	 BYTE PTR __k$[ebp+14], cl
  0013c	eb 4a		 jmp	 SHORT $LN1@GetStringA
$LN84@GetStringA:
  0013e	c6 45 f4 ed	 mov	 BYTE PTR __k$[ebp+12], -19 ; ffffffedH
  00142	eb 44		 jmp	 SHORT $LN1@GetStringA
$LN85@GetStringA:
  00144	c6 45 f3 ea	 mov	 BYTE PTR __k$[ebp+11], -22 ; ffffffeaH
  00148	eb 3e		 jmp	 SHORT $LN1@GetStringA
$LN86@GetStringA:
  0014a	88 4d f2	 mov	 BYTE PTR __k$[ebp+10], cl
  0014d	eb 39		 jmp	 SHORT $LN1@GetStringA
$LN87@GetStringA:
  0014f	c6 45 f1 ec	 mov	 BYTE PTR __k$[ebp+9], -20 ; ffffffecH
  00153	eb 33		 jmp	 SHORT $LN1@GetStringA
$LN88@GetStringA:
  00155	c6 45 f0 ed	 mov	 BYTE PTR __k$[ebp+8], -19 ; ffffffedH
  00159	eb 2d		 jmp	 SHORT $LN1@GetStringA
$LN89@GetStringA:
  0015b	c6 45 ef ea	 mov	 BYTE PTR __k$[ebp+7], -22 ; ffffffeaH
  0015f	eb 27		 jmp	 SHORT $LN1@GetStringA
$LN90@GetStringA:
  00161	88 4d ee	 mov	 BYTE PTR __k$[ebp+6], cl
  00164	eb 22		 jmp	 SHORT $LN1@GetStringA
$LN91@GetStringA:
  00166	c6 45 ed ec	 mov	 BYTE PTR __k$[ebp+5], -20 ; ffffffecH
  0016a	eb 1c		 jmp	 SHORT $LN1@GetStringA
$LN92@GetStringA:
  0016c	c6 45 ec ed	 mov	 BYTE PTR __k$[ebp+4], -19 ; ffffffedH
  00170	eb 16		 jmp	 SHORT $LN1@GetStringA
$LN93@GetStringA:
  00172	c6 45 eb ea	 mov	 BYTE PTR __k$[ebp+3], -22 ; ffffffeaH
  00176	eb 10		 jmp	 SHORT $LN1@GetStringA
$LN94@GetStringA:
  00178	c6 45 ea eb	 mov	 BYTE PTR __k$[ebp+2], -21 ; ffffffebH
  0017c	eb 0a		 jmp	 SHORT $LN1@GetStringA
$LN95@GetStringA:
  0017e	c6 45 e9 ec	 mov	 BYTE PTR __k$[ebp+1], -20 ; ffffffecH
  00182	eb 04		 jmp	 SHORT $LN1@GetStringA
$LN96@GetStringA:
  00184	c6 45 e8 ed	 mov	 BYTE PTR __k$[ebp], -19	; ffffffedH
$LN1@GetStringA:
  00188	6a 03		 push	 3
  0018a	8d 45 e8	 lea	 eax, DWORD PTR __k$[ebp]
  0018d	c6 45 f5 00	 mov	 BYTE PTR __k$[ebp+13], 0
  00191	5a		 pop	 edx
$LL104@GetStringA:
  00192	81 30 ed ec eb
	ea		 xor	 DWORD PTR [eax], -353637139 ; eaebecedH
  00198	83 c0 04	 add	 eax, 4
  0019b	4a		 dec	 edx
  0019c	75 f4		 jne	 SHORT $LL104@GetStringA
  0019e	80 75 f4 ed	 xor	 BYTE PTR __k$[ebp+12], -19 ; ffffffedH

; 109  : 		return GetStringAttribute(_k);

  001a2	8d 45 e8	 lea	 eax, DWORD PTR __k$[ebp]
  001a5	50		 push	 eax
  001a6	8b ce		 mov	 ecx, esi
  001a8	ff 15 00 00 00
	00		 call	 DWORD PTR __imp_?GetStringAttribute@ioXMLElement@@QBEPBDPBD@Z

; 110  : 	}

  001ae	8b 4d fc	 mov	 ecx, DWORD PTR __$ArrayPad$[ebp]
  001b1	33 cd		 xor	 ecx, ebp
  001b3	5e		 pop	 esi
  001b4	e8 00 00 00 00	 call	 @__security_check_cookie@4
  001b9	c9		 leave
  001ba	c2 04 00	 ret	 4
??$GetStringAttribute_e@$0O@@ioXMLElement@@QBEPBDAAY0O@$$CBD@Z ENDP ; ioXMLElement::GetStringAttribute_e<14>
_TEXT	ENDS
PUBLIC	__$ArrayPad$
PUBLIC	??$GetStringAttribute_e@$0N@@ioXMLElement@@QBEPBDAAY0N@$$CBD@Z ; ioXMLElement::GetStringAttribute_e<13>
; Function compile flags: /Ogsp
;	COMDAT ??$GetStringAttribute_e@$0N@@ioXMLElement@@QBEPBDAAY0N@$$CBD@Z
_TEXT	SEGMENT
__k$ = -24						; size = 13
__$ArrayPad$ = -4					; size = 4
_k$ = 8							; size = 4
??$GetStringAttribute_e@$0N@@ioXMLElement@@QBEPBDAAY0N@$$CBD@Z PROC ; ioXMLElement::GetStringAttribute_e<13>, COMDAT
; _this$ = ecx

; 107  : 	{

  00000	55		 push	 ebp
  00001	8b ec		 mov	 ebp, esp
  00003	83 ec 18	 sub	 esp, 24			; 00000018H
  00006	a1 00 00 00 00	 mov	 eax, DWORD PTR ___security_cookie
  0000b	33 c5		 xor	 eax, ebp
  0000d	89 45 fc	 mov	 DWORD PTR __$ArrayPad$[ebp], eax
  00010	8b 45 08	 mov	 eax, DWORD PTR _k$[ebp]

; 108  : 		_ENCSTR(k, _k);

  00013	8a 10		 mov	 dl, BYTE PTR [eax]
  00015	56		 push	 esi
  00016	8b f1		 mov	 esi, ecx
  00018	84 d2		 test	 dl, dl
  0001a	0f 84 4d 01 00
	00		 je	 $LN96@GetStringA@2
  00020	80 f2 ed	 xor	 dl, -19			; ffffffedH
  00023	88 55 e8	 mov	 BYTE PTR __k$[ebp], dl
  00026	8a 50 01	 mov	 dl, BYTE PTR [eax+1]
  00029	84 d2		 test	 dl, dl
  0002b	0f 84 36 01 00
	00		 je	 $LN95@GetStringA@2
  00031	b1 ec		 mov	 cl, -20			; ffffffecH
  00033	32 d1		 xor	 dl, cl
  00035	88 55 e9	 mov	 BYTE PTR __k$[ebp+1], dl
  00038	8a 50 02	 mov	 dl, BYTE PTR [eax+2]
  0003b	84 d2		 test	 dl, dl
  0003d	0f 84 1e 01 00
	00		 je	 $LN94@GetStringA@2
  00043	80 f2 eb	 xor	 dl, -21			; ffffffebH
  00046	88 55 ea	 mov	 BYTE PTR __k$[ebp+2], dl
  00049	8a 50 03	 mov	 dl, BYTE PTR [eax+3]
  0004c	84 d2		 test	 dl, dl
  0004e	0f 84 07 01 00
	00		 je	 $LN93@GetStringA@2
  00054	80 f2 ea	 xor	 dl, -22			; ffffffeaH
  00057	88 55 eb	 mov	 BYTE PTR __k$[ebp+3], dl
  0005a	8a 50 04	 mov	 dl, BYTE PTR [eax+4]
  0005d	84 d2		 test	 dl, dl
  0005f	0f 84 f0 00 00
	00		 je	 $LN92@GetStringA@2
  00065	80 f2 ed	 xor	 dl, -19			; ffffffedH
  00068	88 55 ec	 mov	 BYTE PTR __k$[ebp+4], dl
  0006b	8a 50 05	 mov	 dl, BYTE PTR [eax+5]
  0006e	84 d2		 test	 dl, dl
  00070	0f 84 da 00 00
	00		 je	 $LN91@GetStringA@2
  00076	32 d1		 xor	 dl, cl
  00078	88 55 ed	 mov	 BYTE PTR __k$[ebp+5], dl
  0007b	8a 50 06	 mov	 dl, BYTE PTR [eax+6]
  0007e	84 d2		 test	 dl, dl
  00080	0f 84 c4 00 00
	00		 je	 $LN90@GetStringA@2
  00086	80 f2 eb	 xor	 dl, -21			; ffffffebH
  00089	88 55 ee	 mov	 BYTE PTR __k$[ebp+6], dl
  0008c	8a 50 07	 mov	 dl, BYTE PTR [eax+7]
  0008f	84 d2		 test	 dl, dl
  00091	0f 84 ad 00 00
	00		 je	 $LN89@GetStringA@2
  00097	80 f2 ea	 xor	 dl, -22			; ffffffeaH
  0009a	88 55 ef	 mov	 BYTE PTR __k$[ebp+7], dl
  0009d	8a 50 08	 mov	 dl, BYTE PTR [eax+8]
  000a0	84 d2		 test	 dl, dl
  000a2	0f 84 96 00 00
	00		 je	 $LN88@GetStringA@2
  000a8	80 f2 ed	 xor	 dl, -19			; ffffffedH
  000ab	88 55 f0	 mov	 BYTE PTR __k$[ebp+8], dl
  000ae	8a 50 09	 mov	 dl, BYTE PTR [eax+9]
  000b1	84 d2		 test	 dl, dl
  000b3	0f 84 80 00 00
	00		 je	 $LN87@GetStringA@2
  000b9	32 d1		 xor	 dl, cl
  000bb	88 55 f1	 mov	 BYTE PTR __k$[ebp+9], dl
  000be	8a 50 0a	 mov	 dl, BYTE PTR [eax+10]
  000c1	84 d2		 test	 dl, dl
  000c3	74 6e		 je	 SHORT $LN86@GetStringA@2
  000c5	80 f2 eb	 xor	 dl, -21			; ffffffebH
  000c8	88 55 f2	 mov	 BYTE PTR __k$[ebp+10], dl
  000cb	8a 50 0b	 mov	 dl, BYTE PTR [eax+11]
  000ce	84 d2		 test	 dl, dl
  000d0	74 5b		 je	 SHORT $LN85@GetStringA@2
  000d2	80 f2 ea	 xor	 dl, -22			; ffffffeaH
  000d5	80 78 0c 00	 cmp	 BYTE PTR [eax+12], 0
  000d9	88 55 f3	 mov	 BYTE PTR __k$[ebp+11], dl
  000dc	0f 84 8f 00 00
	00		 je	 $LN1@GetStringA@2
  000e2	8a 50 0d	 mov	 dl, BYTE PTR [eax+13]
  000e5	84 d2		 test	 dl, dl
  000e7	74 3f		 je	 SHORT $LN83@GetStringA@2
  000e9	32 d1		 xor	 dl, cl
  000eb	88 55 f5	 mov	 BYTE PTR __k$[ebp+13], dl
  000ee	8a 50 0e	 mov	 dl, BYTE PTR [eax+14]
  000f1	84 d2		 test	 dl, dl
  000f3	74 2d		 je	 SHORT $LN82@GetStringA@2
  000f5	80 f2 eb	 xor	 dl, -21			; ffffffebH
  000f8	88 55 f6	 mov	 BYTE PTR __k$[ebp+14], dl
  000fb	8a 50 0f	 mov	 dl, BYTE PTR [eax+15]
  000fe	84 d2		 test	 dl, dl
  00100	74 1a		 je	 SHORT $LN81@GetStringA@2
  00102	8a 40 10	 mov	 al, BYTE PTR [eax+16]
  00105	80 f2 ea	 xor	 dl, -22			; ffffffeaH
  00108	88 55 f7	 mov	 BYTE PTR __k$[ebp+15], dl
  0010b	84 c0		 test	 al, al
  0010d	74 07		 je	 SHORT $LN80@GetStringA@2
  0010f	34 ed		 xor	 al, -19			; ffffffedH
  00111	88 45 f8	 mov	 BYTE PTR __k$[ebp+16], al
  00114	eb 5b		 jmp	 SHORT $LN1@GetStringA@2
$LN80@GetStringA@2:
  00116	c6 45 f8 ed	 mov	 BYTE PTR __k$[ebp+16], -19 ; ffffffedH
  0011a	eb 55		 jmp	 SHORT $LN1@GetStringA@2
$LN81@GetStringA@2:
  0011c	c6 45 f7 ea	 mov	 BYTE PTR __k$[ebp+15], -22 ; ffffffeaH
  00120	eb 4f		 jmp	 SHORT $LN1@GetStringA@2
$LN82@GetStringA@2:
  00122	c6 45 f6 eb	 mov	 BYTE PTR __k$[ebp+14], -21 ; ffffffebH
  00126	eb 49		 jmp	 SHORT $LN1@GetStringA@2
$LN83@GetStringA@2:
  00128	88 4d f5	 mov	 BYTE PTR __k$[ebp+13], cl
  0012b	eb 44		 jmp	 SHORT $LN1@GetStringA@2
$LN85@GetStringA@2:
  0012d	c6 45 f3 ea	 mov	 BYTE PTR __k$[ebp+11], -22 ; ffffffeaH
  00131	eb 3e		 jmp	 SHORT $LN1@GetStringA@2
$LN86@GetStringA@2:
  00133	c6 45 f2 eb	 mov	 BYTE PTR __k$[ebp+10], -21 ; ffffffebH
  00137	eb 38		 jmp	 SHORT $LN1@GetStringA@2
$LN87@GetStringA@2:
  00139	88 4d f1	 mov	 BYTE PTR __k$[ebp+9], cl
  0013c	eb 33		 jmp	 SHORT $LN1@GetStringA@2
$LN88@GetStringA@2:
  0013e	c6 45 f0 ed	 mov	 BYTE PTR __k$[ebp+8], -19 ; ffffffedH
  00142	eb 2d		 jmp	 SHORT $LN1@GetStringA@2
$LN89@GetStringA@2:
  00144	c6 45 ef ea	 mov	 BYTE PTR __k$[ebp+7], -22 ; ffffffeaH
  00148	eb 27		 jmp	 SHORT $LN1@GetStringA@2
$LN90@GetStringA@2:
  0014a	c6 45 ee eb	 mov	 BYTE PTR __k$[ebp+6], -21 ; ffffffebH
  0014e	eb 21		 jmp	 SHORT $LN1@GetStringA@2
$LN91@GetStringA@2:
  00150	88 4d ed	 mov	 BYTE PTR __k$[ebp+5], cl
  00153	eb 1c		 jmp	 SHORT $LN1@GetStringA@2
$LN92@GetStringA@2:
  00155	c6 45 ec ed	 mov	 BYTE PTR __k$[ebp+4], -19 ; ffffffedH
  00159	eb 16		 jmp	 SHORT $LN1@GetStringA@2
$LN93@GetStringA@2:
  0015b	c6 45 eb ea	 mov	 BYTE PTR __k$[ebp+3], -22 ; ffffffeaH
  0015f	eb 10		 jmp	 SHORT $LN1@GetStringA@2
$LN94@GetStringA@2:
  00161	c6 45 ea eb	 mov	 BYTE PTR __k$[ebp+2], -21 ; ffffffebH
  00165	eb 0a		 jmp	 SHORT $LN1@GetStringA@2
$LN95@GetStringA@2:
  00167	c6 45 e9 ec	 mov	 BYTE PTR __k$[ebp+1], -20 ; ffffffecH
  0016b	eb 04		 jmp	 SHORT $LN1@GetStringA@2
$LN96@GetStringA@2:
  0016d	c6 45 e8 ed	 mov	 BYTE PTR __k$[ebp], -19	; ffffffedH
$LN1@GetStringA@2:
  00171	6a 03		 push	 3
  00173	8d 45 e8	 lea	 eax, DWORD PTR __k$[ebp]
  00176	c6 45 f4 00	 mov	 BYTE PTR __k$[ebp+12], 0
  0017a	5a		 pop	 edx
$LL104@GetStringA@2:
  0017b	81 30 ed ec eb
	ea		 xor	 DWORD PTR [eax], -353637139 ; eaebecedH
  00181	83 c0 04	 add	 eax, 4
  00184	4a		 dec	 edx
  00185	75 f4		 jne	 SHORT $LL104@GetStringA@2

; 109  : 		return GetStringAttribute(_k);

  00187	8d 45 e8	 lea	 eax, DWORD PTR __k$[ebp]
  0018a	50		 push	 eax
  0018b	8b ce		 mov	 ecx, esi
  0018d	ff 15 00 00 00
	00		 call	 DWORD PTR __imp_?GetStringAttribute@ioXMLElement@@QBEPBDPBD@Z

; 110  : 	}

  00193	8b 4d fc	 mov	 ecx, DWORD PTR __$ArrayPad$[ebp]
  00196	33 cd		 xor	 ecx, ebp
  00198	5e		 pop	 esi
  00199	e8 00 00 00 00	 call	 @__security_check_cookie@4
  0019e	c9		 leave
  0019f	c2 04 00	 ret	 4
??$GetStringAttribute_e@$0N@@ioXMLElement@@QBEPBDAAY0N@$$CBD@Z ENDP ; ioXMLElement::GetStringAttribute_e<13>
_TEXT	ENDS
PUBLIC	__$ArrayPad$
PUBLIC	??$GetStringAttribute_e@$0BC@@ioXMLElement@@QBEPBDAAY0BC@$$CBD@Z ; ioXMLElement::GetStringAttribute_e<18>
; Function compile flags: /Ogsp
;	COMDAT ??$GetStringAttribute_e@$0BC@@ioXMLElement@@QBEPBDAAY0BC@$$CBD@Z
_TEXT	SEGMENT
__k$ = -28						; size = 18
__$ArrayPad$ = -4					; size = 4
_k$ = 8							; size = 4
??$GetStringAttribute_e@$0BC@@ioXMLElement@@QBEPBDAAY0BC@$$CBD@Z PROC ; ioXMLElement::GetStringAttribute_e<18>, COMDAT
; _this$ = ecx

; 107  : 	{

  00000	55		 push	 ebp
  00001	8b ec		 mov	 ebp, esp
  00003	83 ec 1c	 sub	 esp, 28			; 0000001cH
  00006	a1 00 00 00 00	 mov	 eax, DWORD PTR ___security_cookie
  0000b	33 c5		 xor	 eax, ebp
  0000d	89 45 fc	 mov	 DWORD PTR __$ArrayPad$[ebp], eax
  00010	8b 45 08	 mov	 eax, DWORD PTR _k$[ebp]

; 108  : 		_ENCSTR(k, _k);

  00013	8a 10		 mov	 dl, BYTE PTR [eax]
  00015	56		 push	 esi
  00016	8b f1		 mov	 esi, ecx
  00018	84 d2		 test	 dl, dl
  0001a	0f 84 be 01 00
	00		 je	 $LN96@GetStringA@3
  00020	80 f2 ed	 xor	 dl, -19			; ffffffedH
  00023	88 55 e4	 mov	 BYTE PTR __k$[ebp], dl
  00026	8a 50 01	 mov	 dl, BYTE PTR [eax+1]
  00029	84 d2		 test	 dl, dl
  0002b	0f 84 a7 01 00
	00		 je	 $LN95@GetStringA@3
  00031	80 f2 ec	 xor	 dl, -20			; ffffffecH
  00034	88 55 e5	 mov	 BYTE PTR __k$[ebp+1], dl
  00037	8a 50 02	 mov	 dl, BYTE PTR [eax+2]
  0003a	84 d2		 test	 dl, dl
  0003c	0f 84 90 01 00
	00		 je	 $LN94@GetStringA@3
  00042	b1 eb		 mov	 cl, -21			; ffffffebH
  00044	32 d1		 xor	 dl, cl
  00046	88 55 e6	 mov	 BYTE PTR __k$[ebp+2], dl
  00049	8a 50 03	 mov	 dl, BYTE PTR [eax+3]
  0004c	84 d2		 test	 dl, dl
  0004e	0f 84 78 01 00
	00		 je	 $LN93@GetStringA@3
  00054	80 f2 ea	 xor	 dl, -22			; ffffffeaH
  00057	88 55 e7	 mov	 BYTE PTR __k$[ebp+3], dl
  0005a	8a 50 04	 mov	 dl, BYTE PTR [eax+4]
  0005d	84 d2		 test	 dl, dl
  0005f	0f 84 61 01 00
	00		 je	 $LN92@GetStringA@3
  00065	80 f2 ed	 xor	 dl, -19			; ffffffedH
  00068	88 55 e8	 mov	 BYTE PTR __k$[ebp+4], dl
  0006b	8a 50 05	 mov	 dl, BYTE PTR [eax+5]
  0006e	84 d2		 test	 dl, dl
  00070	0f 84 4a 01 00
	00		 je	 $LN91@GetStringA@3
  00076	80 f2 ec	 xor	 dl, -20			; ffffffecH
  00079	88 55 e9	 mov	 BYTE PTR __k$[ebp+5], dl
  0007c	8a 50 06	 mov	 dl, BYTE PTR [eax+6]
  0007f	84 d2		 test	 dl, dl
  00081	0f 84 34 01 00
	00		 je	 $LN90@GetStringA@3
  00087	32 d1		 xor	 dl, cl
  00089	88 55 ea	 mov	 BYTE PTR __k$[ebp+6], dl
  0008c	8a 50 07	 mov	 dl, BYTE PTR [eax+7]
  0008f	84 d2		 test	 dl, dl
  00091	0f 84 1e 01 00
	00		 je	 $LN89@GetStringA@3
  00097	80 f2 ea	 xor	 dl, -22			; ffffffeaH
  0009a	88 55 eb	 mov	 BYTE PTR __k$[ebp+7], dl
  0009d	8a 50 08	 mov	 dl, BYTE PTR [eax+8]
  000a0	84 d2		 test	 dl, dl
  000a2	0f 84 07 01 00
	00		 je	 $LN88@GetStringA@3
  000a8	80 f2 ed	 xor	 dl, -19			; ffffffedH
  000ab	88 55 ec	 mov	 BYTE PTR __k$[ebp+8], dl
  000ae	8a 50 09	 mov	 dl, BYTE PTR [eax+9]
  000b1	84 d2		 test	 dl, dl
  000b3	0f 84 f0 00 00
	00		 je	 $LN87@GetStringA@3
  000b9	80 f2 ec	 xor	 dl, -20			; ffffffecH
  000bc	88 55 ed	 mov	 BYTE PTR __k$[ebp+9], dl
  000bf	8a 50 0a	 mov	 dl, BYTE PTR [eax+10]
  000c2	84 d2		 test	 dl, dl
  000c4	0f 84 da 00 00
	00		 je	 $LN86@GetStringA@3
  000ca	32 d1		 xor	 dl, cl
  000cc	88 55 ee	 mov	 BYTE PTR __k$[ebp+10], dl
  000cf	8a 50 0b	 mov	 dl, BYTE PTR [eax+11]
  000d2	84 d2		 test	 dl, dl
  000d4	0f 84 c4 00 00
	00		 je	 $LN85@GetStringA@3
  000da	80 f2 ea	 xor	 dl, -22			; ffffffeaH
  000dd	88 55 ef	 mov	 BYTE PTR __k$[ebp+11], dl
  000e0	8a 50 0c	 mov	 dl, BYTE PTR [eax+12]
  000e3	84 d2		 test	 dl, dl
  000e5	0f 84 ad 00 00
	00		 je	 $LN84@GetStringA@3
  000eb	80 f2 ed	 xor	 dl, -19			; ffffffedH
  000ee	88 55 f0	 mov	 BYTE PTR __k$[ebp+12], dl
  000f1	8a 50 0d	 mov	 dl, BYTE PTR [eax+13]
  000f4	84 d2		 test	 dl, dl
  000f6	0f 84 96 00 00
	00		 je	 $LN83@GetStringA@3
  000fc	80 f2 ec	 xor	 dl, -20			; ffffffecH
  000ff	88 55 f1	 mov	 BYTE PTR __k$[ebp+13], dl
  00102	8a 50 0e	 mov	 dl, BYTE PTR [eax+14]
  00105	84 d2		 test	 dl, dl
  00107	0f 84 80 00 00
	00		 je	 $LN82@GetStringA@3
  0010d	32 d1		 xor	 dl, cl
  0010f	88 55 f2	 mov	 BYTE PTR __k$[ebp+14], dl
  00112	8a 50 0f	 mov	 dl, BYTE PTR [eax+15]
  00115	84 d2		 test	 dl, dl
  00117	74 6e		 je	 SHORT $LN81@GetStringA@3
  00119	80 f2 ea	 xor	 dl, -22			; ffffffeaH
  0011c	88 55 f3	 mov	 BYTE PTR __k$[ebp+15], dl
  0011f	8a 50 10	 mov	 dl, BYTE PTR [eax+16]
  00122	84 d2		 test	 dl, dl
  00124	74 5b		 je	 SHORT $LN80@GetStringA@3
  00126	80 f2 ed	 xor	 dl, -19			; ffffffedH
  00129	80 78 11 00	 cmp	 BYTE PTR [eax+17], 0
  0012d	88 55 f4	 mov	 BYTE PTR __k$[ebp+16], dl
  00130	0f 84 ac 00 00
	00		 je	 $LN1@GetStringA@3
  00136	8a 50 12	 mov	 dl, BYTE PTR [eax+18]
  00139	84 d2		 test	 dl, dl
  0013b	74 3f		 je	 SHORT $LN78@GetStringA@3
  0013d	32 d1		 xor	 dl, cl
  0013f	88 55 f6	 mov	 BYTE PTR __k$[ebp+18], dl
  00142	8a 50 13	 mov	 dl, BYTE PTR [eax+19]
  00145	84 d2		 test	 dl, dl
  00147	74 2d		 je	 SHORT $LN77@GetStringA@3
  00149	80 f2 ea	 xor	 dl, -22			; ffffffeaH
  0014c	88 55 f7	 mov	 BYTE PTR __k$[ebp+19], dl
  0014f	8a 50 14	 mov	 dl, BYTE PTR [eax+20]
  00152	84 d2		 test	 dl, dl
  00154	74 1a		 je	 SHORT $LN76@GetStringA@3
  00156	8a 40 15	 mov	 al, BYTE PTR [eax+21]
  00159	80 f2 ed	 xor	 dl, -19			; ffffffedH
  0015c	88 55 f8	 mov	 BYTE PTR __k$[ebp+20], dl
  0015f	84 c0		 test	 al, al
  00161	74 07		 je	 SHORT $LN75@GetStringA@3
  00163	34 ec		 xor	 al, -20			; ffffffecH
  00165	88 45 f9	 mov	 BYTE PTR __k$[ebp+21], al
  00168	eb 78		 jmp	 SHORT $LN1@GetStringA@3
$LN75@GetStringA@3:
  0016a	c6 45 f9 ec	 mov	 BYTE PTR __k$[ebp+21], -20 ; ffffffecH
  0016e	eb 72		 jmp	 SHORT $LN1@GetStringA@3
$LN76@GetStringA@3:
  00170	c6 45 f8 ed	 mov	 BYTE PTR __k$[ebp+20], -19 ; ffffffedH
  00174	eb 6c		 jmp	 SHORT $LN1@GetStringA@3
$LN77@GetStringA@3:
  00176	c6 45 f7 ea	 mov	 BYTE PTR __k$[ebp+19], -22 ; ffffffeaH
  0017a	eb 66		 jmp	 SHORT $LN1@GetStringA@3
$LN78@GetStringA@3:
  0017c	88 4d f6	 mov	 BYTE PTR __k$[ebp+18], cl
  0017f	eb 61		 jmp	 SHORT $LN1@GetStringA@3
$LN80@GetStringA@3:
  00181	c6 45 f4 ed	 mov	 BYTE PTR __k$[ebp+16], -19 ; ffffffedH
  00185	eb 5b		 jmp	 SHORT $LN1@GetStringA@3
$LN81@GetStringA@3:
  00187	c6 45 f3 ea	 mov	 BYTE PTR __k$[ebp+15], -22 ; ffffffeaH
  0018b	eb 55		 jmp	 SHORT $LN1@GetStringA@3
$LN82@GetStringA@3:
  0018d	88 4d f2	 mov	 BYTE PTR __k$[ebp+14], cl
  00190	eb 50		 jmp	 SHORT $LN1@GetStringA@3
$LN83@GetStringA@3:
  00192	c6 45 f1 ec	 mov	 BYTE PTR __k$[ebp+13], -20 ; ffffffecH
  00196	eb 4a		 jmp	 SHORT $LN1@GetStringA@3
$LN84@GetStringA@3:
  00198	c6 45 f0 ed	 mov	 BYTE PTR __k$[ebp+12], -19 ; ffffffedH
  0019c	eb 44		 jmp	 SHORT $LN1@GetStringA@3
$LN85@GetStringA@3:
  0019e	c6 45 ef ea	 mov	 BYTE PTR __k$[ebp+11], -22 ; ffffffeaH
  001a2	eb 3e		 jmp	 SHORT $LN1@GetStringA@3
$LN86@GetStringA@3:
  001a4	88 4d ee	 mov	 BYTE PTR __k$[ebp+10], cl
  001a7	eb 39		 jmp	 SHORT $LN1@GetStringA@3
$LN87@GetStringA@3:
  001a9	c6 45 ed ec	 mov	 BYTE PTR __k$[ebp+9], -20 ; ffffffecH
  001ad	eb 33		 jmp	 SHORT $LN1@GetStringA@3
$LN88@GetStringA@3:
  001af	c6 45 ec ed	 mov	 BYTE PTR __k$[ebp+8], -19 ; ffffffedH
  001b3	eb 2d		 jmp	 SHORT $LN1@GetStringA@3
$LN89@GetStringA@3:
  001b5	c6 45 eb ea	 mov	 BYTE PTR __k$[ebp+7], -22 ; ffffffeaH
  001b9	eb 27		 jmp	 SHORT $LN1@GetStringA@3
$LN90@GetStringA@3:
  001bb	88 4d ea	 mov	 BYTE PTR __k$[ebp+6], cl
  001be	eb 22		 jmp	 SHORT $LN1@GetStringA@3
$LN91@GetStringA@3:
  001c0	c6 45 e9 ec	 mov	 BYTE PTR __k$[ebp+5], -20 ; ffffffecH
  001c4	eb 1c		 jmp	 SHORT $LN1@GetStringA@3
$LN92@GetStringA@3:
  001c6	c6 45 e8 ed	 mov	 BYTE PTR __k$[ebp+4], -19 ; ffffffedH
  001ca	eb 16		 jmp	 SHORT $LN1@GetStringA@3
$LN93@GetStringA@3:
  001cc	c6 45 e7 ea	 mov	 BYTE PTR __k$[ebp+3], -22 ; ffffffeaH
  001d0	eb 10		 jmp	 SHORT $LN1@GetStringA@3
$LN94@GetStringA@3:
  001d2	c6 45 e6 eb	 mov	 BYTE PTR __k$[ebp+2], -21 ; ffffffebH
  001d6	eb 0a		 jmp	 SHORT $LN1@GetStringA@3
$LN95@GetStringA@3:
  001d8	c6 45 e5 ec	 mov	 BYTE PTR __k$[ebp+1], -20 ; ffffffecH
  001dc	eb 04		 jmp	 SHORT $LN1@GetStringA@3
$LN96@GetStringA@3:
  001de	c6 45 e4 ed	 mov	 BYTE PTR __k$[ebp], -19	; ffffffedH
$LN1@GetStringA@3:
  001e2	6a 04		 push	 4
  001e4	8d 45 e4	 lea	 eax, DWORD PTR __k$[ebp]
  001e7	c6 45 f5 00	 mov	 BYTE PTR __k$[ebp+17], 0
  001eb	5a		 pop	 edx
$LL104@GetStringA@3:
  001ec	81 30 ed ec eb
	ea		 xor	 DWORD PTR [eax], -353637139 ; eaebecedH
  001f2	83 c0 04	 add	 eax, 4
  001f5	4a		 dec	 edx
  001f6	75 f4		 jne	 SHORT $LL104@GetStringA@3
  001f8	80 75 f4 ed	 xor	 BYTE PTR __k$[ebp+16], -19 ; ffffffedH

; 109  : 		return GetStringAttribute(_k);

  001fc	8d 45 e4	 lea	 eax, DWORD PTR __k$[ebp]
  001ff	50		 push	 eax
  00200	8b ce		 mov	 ecx, esi
  00202	ff 15 00 00 00
	00		 call	 DWORD PTR __imp_?GetStringAttribute@ioXMLElement@@QBEPBDPBD@Z

; 110  : 	}

  00208	8b 4d fc	 mov	 ecx, DWORD PTR __$ArrayPad$[ebp]
  0020b	33 cd		 xor	 ecx, ebp
  0020d	5e		 pop	 esi
  0020e	e8 00 00 00 00	 call	 @__security_check_cookie@4
  00213	c9		 leave
  00214	c2 04 00	 ret	 4
??$GetStringAttribute_e@$0BC@@ioXMLElement@@QBEPBDAAY0BC@$$CBD@Z ENDP ; ioXMLElement::GetStringAttribute_e<18>
_TEXT	ENDS
PUBLIC	__$ArrayPad$
PUBLIC	??$?8$09@@YA_NABVioHashString@@AAY09$$CBD@Z	; operator==<10>
; Function compile flags: /Ogsp
; File d:\lost saga for developer\youtube\tutorial\source\src\io3dengine\iohashstring.h
;	COMDAT ??$?8$09@@YA_NABVioHashString@@AAY09$$CBD@Z
_TEXT	SEGMENT
__t$ = -20						; size = 10
__$ArrayPad$ = -4					; size = 4
_lhs$ = 8						; size = 4
_t$ = 12						; size = 4
??$?8$09@@YA_NABVioHashString@@AAY09$$CBD@Z PROC	; operator==<10>, COMDAT

; 146  : {

  00000	55		 push	 ebp
  00001	8b ec		 mov	 ebp, esp
  00003	83 ec 14	 sub	 esp, 20			; 00000014H
  00006	a1 00 00 00 00	 mov	 eax, DWORD PTR ___security_cookie
  0000b	33 c5		 xor	 eax, ebp
  0000d	89 45 fc	 mov	 DWORD PTR __$ArrayPad$[ebp], eax
  00010	8b 45 0c	 mov	 eax, DWORD PTR _t$[ebp]

; 147  : 	_ENCSTR(t, _t); return ( strcmp( lhs.c_str(), _t ) == 0 );

  00013	8a 10		 mov	 dl, BYTE PTR [eax]
  00015	8b 4d 08	 mov	 ecx, DWORD PTR _lhs$[ebp]
  00018	84 d2		 test	 dl, dl
  0001a	0f 84 0d 01 00
	00		 je	 $LN96@operator@5
  00020	80 f2 ed	 xor	 dl, -19			; ffffffedH
  00023	88 55 ec	 mov	 BYTE PTR __t$[ebp], dl
  00026	8a 50 01	 mov	 dl, BYTE PTR [eax+1]
  00029	84 d2		 test	 dl, dl
  0002b	0f 84 f6 00 00
	00		 je	 $LN95@operator@5
  00031	80 f2 ec	 xor	 dl, -20			; ffffffecH
  00034	88 55 ed	 mov	 BYTE PTR __t$[ebp+1], dl
  00037	8a 50 02	 mov	 dl, BYTE PTR [eax+2]
  0003a	84 d2		 test	 dl, dl
  0003c	0f 84 df 00 00
	00		 je	 $LN94@operator@5
  00042	80 f2 eb	 xor	 dl, -21			; ffffffebH
  00045	88 55 ee	 mov	 BYTE PTR __t$[ebp+2], dl
  00048	8a 50 03	 mov	 dl, BYTE PTR [eax+3]
  0004b	84 d2		 test	 dl, dl
  0004d	0f 84 c8 00 00
	00		 je	 $LN93@operator@5
  00053	80 f2 ea	 xor	 dl, -22			; ffffffeaH
  00056	88 55 ef	 mov	 BYTE PTR __t$[ebp+3], dl
  00059	8a 50 04	 mov	 dl, BYTE PTR [eax+4]
  0005c	84 d2		 test	 dl, dl
  0005e	0f 84 b1 00 00
	00		 je	 $LN92@operator@5
  00064	80 f2 ed	 xor	 dl, -19			; ffffffedH
  00067	88 55 f0	 mov	 BYTE PTR __t$[ebp+4], dl
  0006a	8a 50 05	 mov	 dl, BYTE PTR [eax+5]
  0006d	84 d2		 test	 dl, dl
  0006f	0f 84 9a 00 00
	00		 je	 $LN91@operator@5
  00075	80 f2 ec	 xor	 dl, -20			; ffffffecH
  00078	88 55 f1	 mov	 BYTE PTR __t$[ebp+5], dl
  0007b	8a 50 06	 mov	 dl, BYTE PTR [eax+6]
  0007e	84 d2		 test	 dl, dl
  00080	0f 84 83 00 00
	00		 je	 $LN90@operator@5
  00086	80 f2 eb	 xor	 dl, -21			; ffffffebH
  00089	88 55 f2	 mov	 BYTE PTR __t$[ebp+6], dl
  0008c	8a 50 07	 mov	 dl, BYTE PTR [eax+7]
  0008f	84 d2		 test	 dl, dl
  00091	74 70		 je	 SHORT $LN89@operator@5
  00093	80 f2 ea	 xor	 dl, -22			; ffffffeaH
  00096	88 55 f3	 mov	 BYTE PTR __t$[ebp+7], dl
  00099	8a 50 08	 mov	 dl, BYTE PTR [eax+8]
  0009c	84 d2		 test	 dl, dl
  0009e	74 5d		 je	 SHORT $LN88@operator@5
  000a0	80 f2 ed	 xor	 dl, -19			; ffffffedH
  000a3	80 78 09 00	 cmp	 BYTE PTR [eax+9], 0
  000a7	88 55 f4	 mov	 BYTE PTR __t$[ebp+8], dl
  000aa	0f 84 81 00 00
	00		 je	 $LN1@operator@5
  000b0	8a 50 0a	 mov	 dl, BYTE PTR [eax+10]
  000b3	84 d2		 test	 dl, dl
  000b5	74 40		 je	 SHORT $LN86@operator@5
  000b7	80 f2 eb	 xor	 dl, -21			; ffffffebH
  000ba	88 55 f6	 mov	 BYTE PTR __t$[ebp+10], dl
  000bd	8a 50 0b	 mov	 dl, BYTE PTR [eax+11]
  000c0	84 d2		 test	 dl, dl
  000c2	74 2d		 je	 SHORT $LN85@operator@5
  000c4	80 f2 ea	 xor	 dl, -22			; ffffffeaH
  000c7	88 55 f7	 mov	 BYTE PTR __t$[ebp+11], dl
  000ca	8a 50 0c	 mov	 dl, BYTE PTR [eax+12]
  000cd	84 d2		 test	 dl, dl
  000cf	74 1a		 je	 SHORT $LN84@operator@5
  000d1	8a 40 0d	 mov	 al, BYTE PTR [eax+13]
  000d4	80 f2 ed	 xor	 dl, -19			; ffffffedH
  000d7	88 55 f8	 mov	 BYTE PTR __t$[ebp+12], dl
  000da	84 c0		 test	 al, al
  000dc	74 07		 je	 SHORT $LN83@operator@5
  000de	34 ec		 xor	 al, -20			; ffffffecH
  000e0	88 45 f9	 mov	 BYTE PTR __t$[ebp+13], al
  000e3	eb 4c		 jmp	 SHORT $LN1@operator@5
$LN83@operator@5:
  000e5	c6 45 f9 ec	 mov	 BYTE PTR __t$[ebp+13], -20 ; ffffffecH
  000e9	eb 46		 jmp	 SHORT $LN1@operator@5
$LN84@operator@5:
  000eb	c6 45 f8 ed	 mov	 BYTE PTR __t$[ebp+12], -19 ; ffffffedH
  000ef	eb 40		 jmp	 SHORT $LN1@operator@5
$LN85@operator@5:
  000f1	c6 45 f7 ea	 mov	 BYTE PTR __t$[ebp+11], -22 ; ffffffeaH
  000f5	eb 3a		 jmp	 SHORT $LN1@operator@5
$LN86@operator@5:
  000f7	c6 45 f6 eb	 mov	 BYTE PTR __t$[ebp+10], -21 ; ffffffebH
  000fb	eb 34		 jmp	 SHORT $LN1@operator@5
$LN88@operator@5:
  000fd	c6 45 f4 ed	 mov	 BYTE PTR __t$[ebp+8], -19 ; ffffffedH
  00101	eb 2e		 jmp	 SHORT $LN1@operator@5
$LN89@operator@5:
  00103	c6 45 f3 ea	 mov	 BYTE PTR __t$[ebp+7], -22 ; ffffffeaH
  00107	eb 28		 jmp	 SHORT $LN1@operator@5
$LN90@operator@5:
  00109	c6 45 f2 eb	 mov	 BYTE PTR __t$[ebp+6], -21 ; ffffffebH
  0010d	eb 22		 jmp	 SHORT $LN1@operator@5
$LN91@operator@5:
  0010f	c6 45 f1 ec	 mov	 BYTE PTR __t$[ebp+5], -20 ; ffffffecH
  00113	eb 1c		 jmp	 SHORT $LN1@operator@5
$LN92@operator@5:
  00115	c6 45 f0 ed	 mov	 BYTE PTR __t$[ebp+4], -19 ; ffffffedH
  00119	eb 16		 jmp	 SHORT $LN1@operator@5
$LN93@operator@5:
  0011b	c6 45 ef ea	 mov	 BYTE PTR __t$[ebp+3], -22 ; ffffffeaH
  0011f	eb 10		 jmp	 SHORT $LN1@operator@5
$LN94@operator@5:
  00121	c6 45 ee eb	 mov	 BYTE PTR __t$[ebp+2], -21 ; ffffffebH
  00125	eb 0a		 jmp	 SHORT $LN1@operator@5
$LN95@operator@5:
  00127	c6 45 ed ec	 mov	 BYTE PTR __t$[ebp+1], -20 ; ffffffecH
  0012b	eb 04		 jmp	 SHORT $LN1@operator@5
$LN96@operator@5:
  0012d	c6 45 ec ed	 mov	 BYTE PTR __t$[ebp], -19	; ffffffedH
$LN1@operator@5:
  00131	6a 02		 push	 2
  00133	8d 45 ec	 lea	 eax, DWORD PTR __t$[ebp]
  00136	c6 45 f5 00	 mov	 BYTE PTR __t$[ebp+9], 0
  0013a	5a		 pop	 edx
$LL104@operator@5:
  0013b	81 30 ed ec eb
	ea		 xor	 DWORD PTR [eax], -353637139 ; eaebecedH
  00141	83 c0 04	 add	 eax, 4
  00144	4a		 dec	 edx
  00145	75 f4		 jne	 SHORT $LL104@operator@5
  00147	80 75 f4 ed	 xor	 BYTE PTR __t$[ebp+8], -19 ; ffffffedH
  0014b	56		 push	 esi
  0014c	8d 75 ec	 lea	 esi, DWORD PTR __t$[ebp]
  0014f	ff 15 00 00 00
	00		 call	 DWORD PTR __imp_?c_str@ioHashString@@QBEPBDXZ
$LL111@operator@5:
  00155	8a 08		 mov	 cl, BYTE PTR [eax]
  00157	3a 0e		 cmp	 cl, BYTE PTR [esi]
  00159	75 1a		 jne	 SHORT $LN112@operator@5
  0015b	84 c9		 test	 cl, cl
  0015d	74 12		 je	 SHORT $LN113@operator@5
  0015f	8a 48 01	 mov	 cl, BYTE PTR [eax+1]
  00162	3a 4e 01	 cmp	 cl, BYTE PTR [esi+1]
  00165	75 0e		 jne	 SHORT $LN112@operator@5
  00167	83 c0 02	 add	 eax, 2
  0016a	83 c6 02	 add	 esi, 2
  0016d	84 c9		 test	 cl, cl
  0016f	75 e4		 jne	 SHORT $LL111@operator@5
$LN113@operator@5:
  00171	33 c0		 xor	 eax, eax
  00173	eb 05		 jmp	 SHORT $LN114@operator@5
$LN112@operator@5:
  00175	1b c0		 sbb	 eax, eax
  00177	83 d8 ff	 sbb	 eax, -1
$LN114@operator@5:
  0017a	33 c9		 xor	 ecx, ecx
  0017c	85 c0		 test	 eax, eax
  0017e	0f 94 c0	 sete	 al

; 148  : }

  00181	8b 4d fc	 mov	 ecx, DWORD PTR __$ArrayPad$[ebp]
  00184	33 cd		 xor	 ecx, ebp
  00186	5e		 pop	 esi
  00187	e8 00 00 00 00	 call	 @__security_check_cookie@4
  0018c	c9		 leave
  0018d	c3		 ret	 0
??$?8$09@@YA_NABVioHashString@@AAY09$$CBD@Z ENDP	; operator==<10>
_TEXT	ENDS
PUBLIC	__$ArrayPad$
PUBLIC	??$?8$04@@YA_NABVioHashString@@AAY04$$CBD@Z	; operator==<5>
; Function compile flags: /Ogsp
;	COMDAT ??$?8$04@@YA_NABVioHashString@@AAY04$$CBD@Z
_TEXT	SEGMENT
__t$ = -16						; size = 5
__$ArrayPad$ = -4					; size = 4
_lhs$ = 8						; size = 4
_t$ = 12						; size = 4
??$?8$04@@YA_NABVioHashString@@AAY04$$CBD@Z PROC	; operator==<5>, COMDAT

; 146  : {

  00000	55		 push	 ebp
  00001	8b ec		 mov	 ebp, esp
  00003	83 ec 10	 sub	 esp, 16			; 00000010H
  00006	a1 00 00 00 00	 mov	 eax, DWORD PTR ___security_cookie
  0000b	33 c5		 xor	 eax, ebp
  0000d	89 45 fc	 mov	 DWORD PTR __$ArrayPad$[ebp], eax
  00010	8b 45 0c	 mov	 eax, DWORD PTR _t$[ebp]

; 147  : 	_ENCSTR(t, _t); return ( strcmp( lhs.c_str(), _t ) == 0 );

  00013	8a 10		 mov	 dl, BYTE PTR [eax]
  00015	8b 4d 08	 mov	 ecx, DWORD PTR _lhs$[ebp]
  00018	84 d2		 test	 dl, dl
  0001a	0f 84 92 00 00
	00		 je	 $LN96@operator@6
  00020	80 f2 ed	 xor	 dl, -19			; ffffffedH
  00023	88 55 f0	 mov	 BYTE PTR __t$[ebp], dl
  00026	8a 50 01	 mov	 dl, BYTE PTR [eax+1]
  00029	84 d2		 test	 dl, dl
  0002b	74 7f		 je	 SHORT $LN95@operator@6
  0002d	80 f2 ec	 xor	 dl, -20			; ffffffecH
  00030	88 55 f1	 mov	 BYTE PTR __t$[ebp+1], dl
  00033	8a 50 02	 mov	 dl, BYTE PTR [eax+2]
  00036	84 d2		 test	 dl, dl
  00038	74 6c		 je	 SHORT $LN94@operator@6
  0003a	80 f2 eb	 xor	 dl, -21			; ffffffebH
  0003d	88 55 f2	 mov	 BYTE PTR __t$[ebp+2], dl
  00040	8a 50 03	 mov	 dl, BYTE PTR [eax+3]
  00043	84 d2		 test	 dl, dl
  00045	74 59		 je	 SHORT $LN93@operator@6
  00047	80 f2 ea	 xor	 dl, -22			; ffffffeaH
  0004a	80 78 04 00	 cmp	 BYTE PTR [eax+4], 0
  0004e	88 55 f3	 mov	 BYTE PTR __t$[ebp+3], dl
  00051	74 63		 je	 SHORT $LN1@operator@6
  00053	8a 50 05	 mov	 dl, BYTE PTR [eax+5]
  00056	84 d2		 test	 dl, dl
  00058	74 40		 je	 SHORT $LN91@operator@6
  0005a	80 f2 ec	 xor	 dl, -20			; ffffffecH
  0005d	88 55 f5	 mov	 BYTE PTR __t$[ebp+5], dl
  00060	8a 50 06	 mov	 dl, BYTE PTR [eax+6]
  00063	84 d2		 test	 dl, dl
  00065	74 2d		 je	 SHORT $LN90@operator@6
  00067	80 f2 eb	 xor	 dl, -21			; ffffffebH
  0006a	88 55 f6	 mov	 BYTE PTR __t$[ebp+6], dl
  0006d	8a 50 07	 mov	 dl, BYTE PTR [eax+7]
  00070	84 d2		 test	 dl, dl
  00072	74 1a		 je	 SHORT $LN89@operator@6
  00074	8a 40 08	 mov	 al, BYTE PTR [eax+8]
  00077	80 f2 ea	 xor	 dl, -22			; ffffffeaH
  0007a	88 55 f7	 mov	 BYTE PTR __t$[ebp+7], dl
  0007d	84 c0		 test	 al, al
  0007f	74 07		 je	 SHORT $LN88@operator@6
  00081	34 ed		 xor	 al, -19			; ffffffedH
  00083	88 45 f8	 mov	 BYTE PTR __t$[ebp+8], al
  00086	eb 2e		 jmp	 SHORT $LN1@operator@6
$LN88@operator@6:
  00088	c6 45 f8 ed	 mov	 BYTE PTR __t$[ebp+8], -19 ; ffffffedH
  0008c	eb 28		 jmp	 SHORT $LN1@operator@6
$LN89@operator@6:
  0008e	c6 45 f7 ea	 mov	 BYTE PTR __t$[ebp+7], -22 ; ffffffeaH
  00092	eb 22		 jmp	 SHORT $LN1@operator@6
$LN90@operator@6:
  00094	c6 45 f6 eb	 mov	 BYTE PTR __t$[ebp+6], -21 ; ffffffebH
  00098	eb 1c		 jmp	 SHORT $LN1@operator@6
$LN91@operator@6:
  0009a	c6 45 f5 ec	 mov	 BYTE PTR __t$[ebp+5], -20 ; ffffffecH
  0009e	eb 16		 jmp	 SHORT $LN1@operator@6
$LN93@operator@6:
  000a0	c6 45 f3 ea	 mov	 BYTE PTR __t$[ebp+3], -22 ; ffffffeaH
  000a4	eb 10		 jmp	 SHORT $LN1@operator@6
$LN94@operator@6:
  000a6	c6 45 f2 eb	 mov	 BYTE PTR __t$[ebp+2], -21 ; ffffffebH
  000aa	eb 0a		 jmp	 SHORT $LN1@operator@6
$LN95@operator@6:
  000ac	c6 45 f1 ec	 mov	 BYTE PTR __t$[ebp+1], -20 ; ffffffecH
  000b0	eb 04		 jmp	 SHORT $LN1@operator@6
$LN96@operator@6:
  000b2	c6 45 f0 ed	 mov	 BYTE PTR __t$[ebp], -19	; ffffffedH
$LN1@operator@6:
  000b6	81 75 f0 ed ec
	eb ea		 xor	 DWORD PTR __t$[ebp], -353637139 ; eaebecedH
  000bd	56		 push	 esi
  000be	c6 45 f4 00	 mov	 BYTE PTR __t$[ebp+4], 0
  000c2	8d 75 f0	 lea	 esi, DWORD PTR __t$[ebp]
  000c5	ff 15 00 00 00
	00		 call	 DWORD PTR __imp_?c_str@ioHashString@@QBEPBDXZ
$LL111@operator@6:
  000cb	8a 08		 mov	 cl, BYTE PTR [eax]
  000cd	3a 0e		 cmp	 cl, BYTE PTR [esi]
  000cf	75 1a		 jne	 SHORT $LN112@operator@6
  000d1	84 c9		 test	 cl, cl
  000d3	74 12		 je	 SHORT $LN113@operator@6
  000d5	8a 48 01	 mov	 cl, BYTE PTR [eax+1]
  000d8	3a 4e 01	 cmp	 cl, BYTE PTR [esi+1]
  000db	75 0e		 jne	 SHORT $LN112@operator@6
  000dd	83 c0 02	 add	 eax, 2
  000e0	83 c6 02	 add	 esi, 2
  000e3	84 c9		 test	 cl, cl
  000e5	75 e4		 jne	 SHORT $LL111@operator@6
$LN113@operator@6:
  000e7	33 c0		 xor	 eax, eax
  000e9	eb 05		 jmp	 SHORT $LN114@operator@6
$LN112@operator@6:
  000eb	1b c0		 sbb	 eax, eax
  000ed	83 d8 ff	 sbb	 eax, -1
$LN114@operator@6:
  000f0	33 c9		 xor	 ecx, ecx
  000f2	85 c0		 test	 eax, eax
  000f4	0f 94 c0	 sete	 al

; 148  : }

  000f7	8b 4d fc	 mov	 ecx, DWORD PTR __$ArrayPad$[ebp]
  000fa	33 cd		 xor	 ecx, ebp
  000fc	5e		 pop	 esi
  000fd	e8 00 00 00 00	 call	 @__security_check_cookie@4
  00102	c9		 leave
  00103	c3		 ret	 0
??$?8$04@@YA_NABVioHashString@@AAY04$$CBD@Z ENDP	; operator==<5>
_TEXT	ENDS
PUBLIC	__$ArrayPad$
PUBLIC	??$?8$07@@YA_NABVioHashString@@AAY07$$CBD@Z	; operator==<8>
; Function compile flags: /Ogsp
;	COMDAT ??$?8$07@@YA_NABVioHashString@@AAY07$$CBD@Z
_TEXT	SEGMENT
__t$ = -16						; size = 8
__$ArrayPad$ = -4					; size = 4
_lhs$ = 8						; size = 4
_t$ = 12						; size = 4
??$?8$07@@YA_NABVioHashString@@AAY07$$CBD@Z PROC	; operator==<8>, COMDAT

; 146  : {

  00000	55		 push	 ebp
  00001	8b ec		 mov	 ebp, esp
  00003	83 ec 10	 sub	 esp, 16			; 00000010H
  00006	a1 00 00 00 00	 mov	 eax, DWORD PTR ___security_cookie
  0000b	33 c5		 xor	 eax, ebp
  0000d	89 45 fc	 mov	 DWORD PTR __$ArrayPad$[ebp], eax
  00010	8b 45 0c	 mov	 eax, DWORD PTR _t$[ebp]

; 147  : 	_ENCSTR(t, _t); return ( strcmp( lhs.c_str(), _t ) == 0 );

  00013	8a 10		 mov	 dl, BYTE PTR [eax]
  00015	56		 push	 esi
  00016	57		 push	 edi
  00017	8b 7d 08	 mov	 edi, DWORD PTR _lhs$[ebp]
  0001a	84 d2		 test	 dl, dl
  0001c	0f 84 d7 00 00
	00		 je	 $LN96@operator@7
  00022	80 f2 ed	 xor	 dl, -19			; ffffffedH
  00025	88 55 f0	 mov	 BYTE PTR __t$[ebp], dl
  00028	8a 50 01	 mov	 dl, BYTE PTR [eax+1]
  0002b	84 d2		 test	 dl, dl
  0002d	0f 84 c0 00 00
	00		 je	 $LN95@operator@7
  00033	80 f2 ec	 xor	 dl, -20			; ffffffecH
  00036	88 55 f1	 mov	 BYTE PTR __t$[ebp+1], dl
  00039	8a 50 02	 mov	 dl, BYTE PTR [eax+2]
  0003c	84 d2		 test	 dl, dl
  0003e	0f 84 a9 00 00
	00		 je	 $LN94@operator@7
  00044	80 f2 eb	 xor	 dl, -21			; ffffffebH
  00047	88 55 f2	 mov	 BYTE PTR __t$[ebp+2], dl
  0004a	8a 50 03	 mov	 dl, BYTE PTR [eax+3]
  0004d	84 d2		 test	 dl, dl
  0004f	0f 84 92 00 00
	00		 je	 $LN93@operator@7
  00055	80 f2 ea	 xor	 dl, -22			; ffffffeaH
  00058	88 55 f3	 mov	 BYTE PTR __t$[ebp+3], dl
  0005b	8a 50 04	 mov	 dl, BYTE PTR [eax+4]
  0005e	84 d2		 test	 dl, dl
  00060	74 7f		 je	 SHORT $LN92@operator@7
  00062	80 f2 ed	 xor	 dl, -19			; ffffffedH
  00065	88 55 f4	 mov	 BYTE PTR __t$[ebp+4], dl
  00068	8a 50 05	 mov	 dl, BYTE PTR [eax+5]
  0006b	84 d2		 test	 dl, dl
  0006d	74 6c		 je	 SHORT $LN91@operator@7
  0006f	80 f2 ec	 xor	 dl, -20			; ffffffecH
  00072	88 55 f5	 mov	 BYTE PTR __t$[ebp+5], dl
  00075	8a 50 06	 mov	 dl, BYTE PTR [eax+6]
  00078	84 d2		 test	 dl, dl
  0007a	74 59		 je	 SHORT $LN90@operator@7
  0007c	80 f2 eb	 xor	 dl, -21			; ffffffebH
  0007f	80 78 07 00	 cmp	 BYTE PTR [eax+7], 0
  00083	88 55 f6	 mov	 BYTE PTR __t$[ebp+6], dl
  00086	74 75		 je	 SHORT $LN1@operator@7
  00088	8a 50 08	 mov	 dl, BYTE PTR [eax+8]
  0008b	84 d2		 test	 dl, dl
  0008d	74 40		 je	 SHORT $LN88@operator@7
  0008f	80 f2 ed	 xor	 dl, -19			; ffffffedH
  00092	88 55 f8	 mov	 BYTE PTR __t$[ebp+8], dl
  00095	8a 50 09	 mov	 dl, BYTE PTR [eax+9]
  00098	84 d2		 test	 dl, dl
  0009a	74 2d		 je	 SHORT $LN87@operator@7
  0009c	80 f2 ec	 xor	 dl, -20			; ffffffecH
  0009f	88 55 f9	 mov	 BYTE PTR __t$[ebp+9], dl
  000a2	8a 50 0a	 mov	 dl, BYTE PTR [eax+10]
  000a5	84 d2		 test	 dl, dl
  000a7	74 1a		 je	 SHORT $LN86@operator@7
  000a9	8a 40 0b	 mov	 al, BYTE PTR [eax+11]
  000ac	80 f2 eb	 xor	 dl, -21			; ffffffebH
  000af	88 55 fa	 mov	 BYTE PTR __t$[ebp+10], dl
  000b2	84 c0		 test	 al, al
  000b4	74 07		 je	 SHORT $LN85@operator@7
  000b6	34 ea		 xor	 al, -22			; ffffffeaH
  000b8	88 45 fb	 mov	 BYTE PTR __t$[ebp+11], al
  000bb	eb 40		 jmp	 SHORT $LN1@operator@7
$LN85@operator@7:
  000bd	c6 45 fb ea	 mov	 BYTE PTR __t$[ebp+11], -22 ; ffffffeaH
  000c1	eb 3a		 jmp	 SHORT $LN1@operator@7
$LN86@operator@7:
  000c3	c6 45 fa eb	 mov	 BYTE PTR __t$[ebp+10], -21 ; ffffffebH
  000c7	eb 34		 jmp	 SHORT $LN1@operator@7
$LN87@operator@7:
  000c9	c6 45 f9 ec	 mov	 BYTE PTR __t$[ebp+9], -20 ; ffffffecH
  000cd	eb 2e		 jmp	 SHORT $LN1@operator@7
$LN88@operator@7:
  000cf	c6 45 f8 ed	 mov	 BYTE PTR __t$[ebp+8], -19 ; ffffffedH
  000d3	eb 28		 jmp	 SHORT $LN1@operator@7
$LN90@operator@7:
  000d5	c6 45 f6 eb	 mov	 BYTE PTR __t$[ebp+6], -21 ; ffffffebH
  000d9	eb 22		 jmp	 SHORT $LN1@operator@7
$LN91@operator@7:
  000db	c6 45 f5 ec	 mov	 BYTE PTR __t$[ebp+5], -20 ; ffffffecH
  000df	eb 1c		 jmp	 SHORT $LN1@operator@7
$LN92@operator@7:
  000e1	c6 45 f4 ed	 mov	 BYTE PTR __t$[ebp+4], -19 ; ffffffedH
  000e5	eb 16		 jmp	 SHORT $LN1@operator@7
$LN93@operator@7:
  000e7	c6 45 f3 ea	 mov	 BYTE PTR __t$[ebp+3], -22 ; ffffffeaH
  000eb	eb 10		 jmp	 SHORT $LN1@operator@7
$LN94@operator@7:
  000ed	c6 45 f2 eb	 mov	 BYTE PTR __t$[ebp+2], -21 ; ffffffebH
  000f1	eb 0a		 jmp	 SHORT $LN1@operator@7
$LN95@operator@7:
  000f3	c6 45 f1 ec	 mov	 BYTE PTR __t$[ebp+1], -20 ; ffffffecH
  000f7	eb 04		 jmp	 SHORT $LN1@operator@7
$LN96@operator@7:
  000f9	c6 45 f0 ed	 mov	 BYTE PTR __t$[ebp], -19	; ffffffedH
$LN1@operator@7:
  000fd	81 75 f0 ed ec
	eb ea		 xor	 DWORD PTR __t$[ebp], -353637139 ; eaebecedH
  00104	6a 04		 push	 4
  00106	c6 45 f7 00	 mov	 BYTE PTR __t$[ebp+7], 0
  0010a	58		 pop	 eax
$LL101@operator@7:
  0010b	8b c8		 mov	 ecx, eax
  0010d	81 e1 03 00 00
	80		 and	 ecx, -2147483645	; 80000003H
  00113	79 05		 jns	 SHORT $LN115@operator@7
  00115	49		 dec	 ecx
  00116	83 c9 fc	 or	 ecx, -4			; fffffffcH
  00119	41		 inc	 ecx
$LN115@operator@7:
  0011a	b2 ed		 mov	 dl, -19			; ffffffedH
  0011c	2a d1		 sub	 dl, cl
  0011e	30 54 05 f0	 xor	 BYTE PTR __t$[ebp+eax], dl
  00122	40		 inc	 eax
  00123	83 f8 07	 cmp	 eax, 7
  00126	7c e3		 jl	 SHORT $LL101@operator@7
  00128	8b cf		 mov	 ecx, edi
  0012a	8d 75 f0	 lea	 esi, DWORD PTR __t$[ebp]
  0012d	ff 15 00 00 00
	00		 call	 DWORD PTR __imp_?c_str@ioHashString@@QBEPBDXZ
$LL111@operator@7:
  00133	8a 08		 mov	 cl, BYTE PTR [eax]
  00135	3a 0e		 cmp	 cl, BYTE PTR [esi]
  00137	75 1a		 jne	 SHORT $LN112@operator@7
  00139	84 c9		 test	 cl, cl
  0013b	74 12		 je	 SHORT $LN113@operator@7
  0013d	8a 48 01	 mov	 cl, BYTE PTR [eax+1]
  00140	3a 4e 01	 cmp	 cl, BYTE PTR [esi+1]
  00143	75 0e		 jne	 SHORT $LN112@operator@7
  00145	83 c0 02	 add	 eax, 2
  00148	83 c6 02	 add	 esi, 2
  0014b	84 c9		 test	 cl, cl
  0014d	75 e4		 jne	 SHORT $LL111@operator@7
$LN113@operator@7:
  0014f	33 c0		 xor	 eax, eax
  00151	eb 05		 jmp	 SHORT $LN114@operator@7
$LN112@operator@7:
  00153	1b c0		 sbb	 eax, eax
  00155	83 d8 ff	 sbb	 eax, -1
$LN114@operator@7:
  00158	33 c9		 xor	 ecx, ecx
  0015a	85 c0		 test	 eax, eax
  0015c	0f 94 c0	 sete	 al

; 148  : }

  0015f	8b 4d fc	 mov	 ecx, DWORD PTR __$ArrayPad$[ebp]
  00162	5f		 pop	 edi
  00163	33 cd		 xor	 ecx, ebp
  00165	5e		 pop	 esi
  00166	e8 00 00 00 00	 call	 @__security_check_cookie@4
  0016b	c9		 leave
  0016c	c3		 ret	 0
??$?8$07@@YA_NABVioHashString@@AAY07$$CBD@Z ENDP	; operator==<8>
_TEXT	ENDS
PUBLIC	__$ArrayPad$
PUBLIC	??$?8$0N@@@YA_NABVioHashString@@AAY0N@$$CBD@Z	; operator==<13>
; Function compile flags: /Ogsp
;	COMDAT ??$?8$0N@@@YA_NABVioHashString@@AAY0N@$$CBD@Z
_TEXT	SEGMENT
__t$ = -24						; size = 13
__$ArrayPad$ = -4					; size = 4
_lhs$ = 8						; size = 4
_t$ = 12						; size = 4
??$?8$0N@@@YA_NABVioHashString@@AAY0N@$$CBD@Z PROC	; operator==<13>, COMDAT

; 146  : {

  00000	55		 push	 ebp
  00001	8b ec		 mov	 ebp, esp
  00003	83 ec 18	 sub	 esp, 24			; 00000018H
  00006	a1 00 00 00 00	 mov	 eax, DWORD PTR ___security_cookie
  0000b	33 c5		 xor	 eax, ebp
  0000d	89 45 fc	 mov	 DWORD PTR __$ArrayPad$[ebp], eax
  00010	8b 45 0c	 mov	 eax, DWORD PTR _t$[ebp]

; 147  : 	_ENCSTR(t, _t); return ( strcmp( lhs.c_str(), _t ) == 0 );

  00013	8a 10		 mov	 dl, BYTE PTR [eax]
  00015	56		 push	 esi
  00016	57		 push	 edi
  00017	8b 7d 08	 mov	 edi, DWORD PTR _lhs$[ebp]
  0001a	84 d2		 test	 dl, dl
  0001c	0f 84 4d 01 00
	00		 je	 $LN96@operator@8
  00022	80 f2 ed	 xor	 dl, -19			; ffffffedH
  00025	88 55 e8	 mov	 BYTE PTR __t$[ebp], dl
  00028	8a 50 01	 mov	 dl, BYTE PTR [eax+1]
  0002b	84 d2		 test	 dl, dl
  0002d	0f 84 36 01 00
	00		 je	 $LN95@operator@8
  00033	b1 ec		 mov	 cl, -20			; ffffffecH
  00035	32 d1		 xor	 dl, cl
  00037	88 55 e9	 mov	 BYTE PTR __t$[ebp+1], dl
  0003a	8a 50 02	 mov	 dl, BYTE PTR [eax+2]
  0003d	84 d2		 test	 dl, dl
  0003f	0f 84 1e 01 00
	00		 je	 $LN94@operator@8
  00045	80 f2 eb	 xor	 dl, -21			; ffffffebH
  00048	88 55 ea	 mov	 BYTE PTR __t$[ebp+2], dl
  0004b	8a 50 03	 mov	 dl, BYTE PTR [eax+3]
  0004e	84 d2		 test	 dl, dl
  00050	0f 84 07 01 00
	00		 je	 $LN93@operator@8
  00056	80 f2 ea	 xor	 dl, -22			; ffffffeaH
  00059	88 55 eb	 mov	 BYTE PTR __t$[ebp+3], dl
  0005c	8a 50 04	 mov	 dl, BYTE PTR [eax+4]
  0005f	84 d2		 test	 dl, dl
  00061	0f 84 f0 00 00
	00		 je	 $LN92@operator@8
  00067	80 f2 ed	 xor	 dl, -19			; ffffffedH
  0006a	88 55 ec	 mov	 BYTE PTR __t$[ebp+4], dl
  0006d	8a 50 05	 mov	 dl, BYTE PTR [eax+5]
  00070	84 d2		 test	 dl, dl
  00072	0f 84 da 00 00
	00		 je	 $LN91@operator@8
  00078	32 d1		 xor	 dl, cl
  0007a	88 55 ed	 mov	 BYTE PTR __t$[ebp+5], dl
  0007d	8a 50 06	 mov	 dl, BYTE PTR [eax+6]
  00080	84 d2		 test	 dl, dl
  00082	0f 84 c4 00 00
	00		 je	 $LN90@operator@8
  00088	80 f2 eb	 xor	 dl, -21			; ffffffebH
  0008b	88 55 ee	 mov	 BYTE PTR __t$[ebp+6], dl
  0008e	8a 50 07	 mov	 dl, BYTE PTR [eax+7]
  00091	84 d2		 test	 dl, dl
  00093	0f 84 ad 00 00
	00		 je	 $LN89@operator@8
  00099	80 f2 ea	 xor	 dl, -22			; ffffffeaH
  0009c	88 55 ef	 mov	 BYTE PTR __t$[ebp+7], dl
  0009f	8a 50 08	 mov	 dl, BYTE PTR [eax+8]
  000a2	84 d2		 test	 dl, dl
  000a4	0f 84 96 00 00
	00		 je	 $LN88@operator@8
  000aa	80 f2 ed	 xor	 dl, -19			; ffffffedH
  000ad	88 55 f0	 mov	 BYTE PTR __t$[ebp+8], dl
  000b0	8a 50 09	 mov	 dl, BYTE PTR [eax+9]
  000b3	84 d2		 test	 dl, dl
  000b5	0f 84 80 00 00
	00		 je	 $LN87@operator@8
  000bb	32 d1		 xor	 dl, cl
  000bd	88 55 f1	 mov	 BYTE PTR __t$[ebp+9], dl
  000c0	8a 50 0a	 mov	 dl, BYTE PTR [eax+10]
  000c3	84 d2		 test	 dl, dl
  000c5	74 6e		 je	 SHORT $LN86@operator@8
  000c7	80 f2 eb	 xor	 dl, -21			; ffffffebH
  000ca	88 55 f2	 mov	 BYTE PTR __t$[ebp+10], dl
  000cd	8a 50 0b	 mov	 dl, BYTE PTR [eax+11]
  000d0	84 d2		 test	 dl, dl
  000d2	74 5b		 je	 SHORT $LN85@operator@8
  000d4	80 f2 ea	 xor	 dl, -22			; ffffffeaH
  000d7	80 78 0c 00	 cmp	 BYTE PTR [eax+12], 0
  000db	88 55 f3	 mov	 BYTE PTR __t$[ebp+11], dl
  000de	0f 84 8f 00 00
	00		 je	 $LN1@operator@8
  000e4	8a 50 0d	 mov	 dl, BYTE PTR [eax+13]
  000e7	84 d2		 test	 dl, dl
  000e9	74 3f		 je	 SHORT $LN83@operator@8
  000eb	32 d1		 xor	 dl, cl
  000ed	88 55 f5	 mov	 BYTE PTR __t$[ebp+13], dl
  000f0	8a 50 0e	 mov	 dl, BYTE PTR [eax+14]
  000f3	84 d2		 test	 dl, dl
  000f5	74 2d		 je	 SHORT $LN82@operator@8
  000f7	80 f2 eb	 xor	 dl, -21			; ffffffebH
  000fa	88 55 f6	 mov	 BYTE PTR __t$[ebp+14], dl
  000fd	8a 50 0f	 mov	 dl, BYTE PTR [eax+15]
  00100	84 d2		 test	 dl, dl
  00102	74 1a		 je	 SHORT $LN81@operator@8
  00104	8a 40 10	 mov	 al, BYTE PTR [eax+16]
  00107	80 f2 ea	 xor	 dl, -22			; ffffffeaH
  0010a	88 55 f7	 mov	 BYTE PTR __t$[ebp+15], dl
  0010d	84 c0		 test	 al, al
  0010f	74 07		 je	 SHORT $LN80@operator@8
  00111	34 ed		 xor	 al, -19			; ffffffedH
  00113	88 45 f8	 mov	 BYTE PTR __t$[ebp+16], al
  00116	eb 5b		 jmp	 SHORT $LN1@operator@8
$LN80@operator@8:
  00118	c6 45 f8 ed	 mov	 BYTE PTR __t$[ebp+16], -19 ; ffffffedH
  0011c	eb 55		 jmp	 SHORT $LN1@operator@8
$LN81@operator@8:
  0011e	c6 45 f7 ea	 mov	 BYTE PTR __t$[ebp+15], -22 ; ffffffeaH
  00122	eb 4f		 jmp	 SHORT $LN1@operator@8
$LN82@operator@8:
  00124	c6 45 f6 eb	 mov	 BYTE PTR __t$[ebp+14], -21 ; ffffffebH
  00128	eb 49		 jmp	 SHORT $LN1@operator@8
$LN83@operator@8:
  0012a	88 4d f5	 mov	 BYTE PTR __t$[ebp+13], cl
  0012d	eb 44		 jmp	 SHORT $LN1@operator@8
$LN85@operator@8:
  0012f	c6 45 f3 ea	 mov	 BYTE PTR __t$[ebp+11], -22 ; ffffffeaH
  00133	eb 3e		 jmp	 SHORT $LN1@operator@8
$LN86@operator@8:
  00135	c6 45 f2 eb	 mov	 BYTE PTR __t$[ebp+10], -21 ; ffffffebH
  00139	eb 38		 jmp	 SHORT $LN1@operator@8
$LN87@operator@8:
  0013b	88 4d f1	 mov	 BYTE PTR __t$[ebp+9], cl
  0013e	eb 33		 jmp	 SHORT $LN1@operator@8
$LN88@operator@8:
  00140	c6 45 f0 ed	 mov	 BYTE PTR __t$[ebp+8], -19 ; ffffffedH
  00144	eb 2d		 jmp	 SHORT $LN1@operator@8
$LN89@operator@8:
  00146	c6 45 ef ea	 mov	 BYTE PTR __t$[ebp+7], -22 ; ffffffeaH
  0014a	eb 27		 jmp	 SHORT $LN1@operator@8
$LN90@operator@8:
  0014c	c6 45 ee eb	 mov	 BYTE PTR __t$[ebp+6], -21 ; ffffffebH
  00150	eb 21		 jmp	 SHORT $LN1@operator@8
$LN91@operator@8:
  00152	88 4d ed	 mov	 BYTE PTR __t$[ebp+5], cl
  00155	eb 1c		 jmp	 SHORT $LN1@operator@8
$LN92@operator@8:
  00157	c6 45 ec ed	 mov	 BYTE PTR __t$[ebp+4], -19 ; ffffffedH
  0015b	eb 16		 jmp	 SHORT $LN1@operator@8
$LN93@operator@8:
  0015d	c6 45 eb ea	 mov	 BYTE PTR __t$[ebp+3], -22 ; ffffffeaH
  00161	eb 10		 jmp	 SHORT $LN1@operator@8
$LN94@operator@8:
  00163	c6 45 ea eb	 mov	 BYTE PTR __t$[ebp+2], -21 ; ffffffebH
  00167	eb 0a		 jmp	 SHORT $LN1@operator@8
$LN95@operator@8:
  00169	c6 45 e9 ec	 mov	 BYTE PTR __t$[ebp+1], -20 ; ffffffecH
  0016d	eb 04		 jmp	 SHORT $LN1@operator@8
$LN96@operator@8:
  0016f	c6 45 e8 ed	 mov	 BYTE PTR __t$[ebp], -19	; ffffffedH
$LN1@operator@8:
  00173	6a 03		 push	 3
  00175	8d 45 e8	 lea	 eax, DWORD PTR __t$[ebp]
  00178	c6 45 f4 00	 mov	 BYTE PTR __t$[ebp+12], 0
  0017c	5a		 pop	 edx
$LL104@operator@8:
  0017d	81 30 ed ec eb
	ea		 xor	 DWORD PTR [eax], -353637139 ; eaebecedH
  00183	83 c0 04	 add	 eax, 4
  00186	4a		 dec	 edx
  00187	75 f4		 jne	 SHORT $LL104@operator@8
  00189	8b cf		 mov	 ecx, edi
  0018b	8d 75 e8	 lea	 esi, DWORD PTR __t$[ebp]
  0018e	ff 15 00 00 00
	00		 call	 DWORD PTR __imp_?c_str@ioHashString@@QBEPBDXZ
$LL111@operator@8:
  00194	8a 08		 mov	 cl, BYTE PTR [eax]
  00196	3a 0e		 cmp	 cl, BYTE PTR [esi]
  00198	75 1a		 jne	 SHORT $LN112@operator@8
  0019a	84 c9		 test	 cl, cl
  0019c	74 12		 je	 SHORT $LN113@operator@8
  0019e	8a 48 01	 mov	 cl, BYTE PTR [eax+1]
  001a1	3a 4e 01	 cmp	 cl, BYTE PTR [esi+1]
  001a4	75 0e		 jne	 SHORT $LN112@operator@8
  001a6	83 c0 02	 add	 eax, 2
  001a9	83 c6 02	 add	 esi, 2
  001ac	84 c9		 test	 cl, cl
  001ae	75 e4		 jne	 SHORT $LL111@operator@8
$LN113@operator@8:
  001b0	33 c0		 xor	 eax, eax
  001b2	eb 05		 jmp	 SHORT $LN114@operator@8
$LN112@operator@8:
  001b4	1b c0		 sbb	 eax, eax
  001b6	83 d8 ff	 sbb	 eax, -1
$LN114@operator@8:
  001b9	33 c9		 xor	 ecx, ecx
  001bb	85 c0		 test	 eax, eax
  001bd	0f 94 c0	 sete	 al

; 148  : }

  001c0	8b 4d fc	 mov	 ecx, DWORD PTR __$ArrayPad$[ebp]
  001c3	5f		 pop	 edi
  001c4	33 cd		 xor	 ecx, ebp
  001c6	5e		 pop	 esi
  001c7	e8 00 00 00 00	 call	 @__security_check_cookie@4
  001cc	c9		 leave
  001cd	c3		 ret	 0
??$?8$0N@@@YA_NABVioHashString@@AAY0N@$$CBD@Z ENDP	; operator==<13>
_TEXT	ENDS
PUBLIC	__$ArrayPad$
PUBLIC	??$?8$05@@YA_NABVioHashString@@AAY05$$CBD@Z	; operator==<6>
; Function compile flags: /Ogsp
;	COMDAT ??$?8$05@@YA_NABVioHashString@@AAY05$$CBD@Z
_TEXT	SEGMENT
__t$ = -16						; size = 6
__$ArrayPad$ = -4					; size = 4
_lhs$ = 8						; size = 4
_t$ = 12						; size = 4
??$?8$05@@YA_NABVioHashString@@AAY05$$CBD@Z PROC	; operator==<6>, COMDAT

; 146  : {

  00000	55		 push	 ebp
  00001	8b ec		 mov	 ebp, esp
  00003	83 ec 10	 sub	 esp, 16			; 00000010H
  00006	a1 00 00 00 00	 mov	 eax, DWORD PTR ___security_cookie
  0000b	33 c5		 xor	 eax, ebp
  0000d	89 45 fc	 mov	 DWORD PTR __$ArrayPad$[ebp], eax
  00010	8b 45 0c	 mov	 eax, DWORD PTR _t$[ebp]

; 147  : 	_ENCSTR(t, _t); return ( strcmp( lhs.c_str(), _t ) == 0 );

  00013	8a 10		 mov	 dl, BYTE PTR [eax]
  00015	8b 4d 08	 mov	 ecx, DWORD PTR _lhs$[ebp]
  00018	84 d2		 test	 dl, dl
  0001a	0f 84 a9 00 00
	00		 je	 $LN96@operator@9
  00020	80 f2 ed	 xor	 dl, -19			; ffffffedH
  00023	88 55 f0	 mov	 BYTE PTR __t$[ebp], dl
  00026	8a 50 01	 mov	 dl, BYTE PTR [eax+1]
  00029	84 d2		 test	 dl, dl
  0002b	0f 84 92 00 00
	00		 je	 $LN95@operator@9
  00031	80 f2 ec	 xor	 dl, -20			; ffffffecH
  00034	88 55 f1	 mov	 BYTE PTR __t$[ebp+1], dl
  00037	8a 50 02	 mov	 dl, BYTE PTR [eax+2]
  0003a	84 d2		 test	 dl, dl
  0003c	74 7f		 je	 SHORT $LN94@operator@9
  0003e	80 f2 eb	 xor	 dl, -21			; ffffffebH
  00041	88 55 f2	 mov	 BYTE PTR __t$[ebp+2], dl
  00044	8a 50 03	 mov	 dl, BYTE PTR [eax+3]
  00047	84 d2		 test	 dl, dl
  00049	74 6c		 je	 SHORT $LN93@operator@9
  0004b	80 f2 ea	 xor	 dl, -22			; ffffffeaH
  0004e	88 55 f3	 mov	 BYTE PTR __t$[ebp+3], dl
  00051	8a 50 04	 mov	 dl, BYTE PTR [eax+4]
  00054	84 d2		 test	 dl, dl
  00056	74 59		 je	 SHORT $LN92@operator@9
  00058	80 f2 ed	 xor	 dl, -19			; ffffffedH
  0005b	80 78 05 00	 cmp	 BYTE PTR [eax+5], 0
  0005f	88 55 f4	 mov	 BYTE PTR __t$[ebp+4], dl
  00062	74 69		 je	 SHORT $LN1@operator@9
  00064	8a 50 06	 mov	 dl, BYTE PTR [eax+6]
  00067	84 d2		 test	 dl, dl
  00069	74 40		 je	 SHORT $LN90@operator@9
  0006b	80 f2 eb	 xor	 dl, -21			; ffffffebH
  0006e	88 55 f6	 mov	 BYTE PTR __t$[ebp+6], dl
  00071	8a 50 07	 mov	 dl, BYTE PTR [eax+7]
  00074	84 d2		 test	 dl, dl
  00076	74 2d		 je	 SHORT $LN89@operator@9
  00078	80 f2 ea	 xor	 dl, -22			; ffffffeaH
  0007b	88 55 f7	 mov	 BYTE PTR __t$[ebp+7], dl
  0007e	8a 50 08	 mov	 dl, BYTE PTR [eax+8]
  00081	84 d2		 test	 dl, dl
  00083	74 1a		 je	 SHORT $LN88@operator@9
  00085	8a 40 09	 mov	 al, BYTE PTR [eax+9]
  00088	80 f2 ed	 xor	 dl, -19			; ffffffedH
  0008b	88 55 f8	 mov	 BYTE PTR __t$[ebp+8], dl
  0008e	84 c0		 test	 al, al
  00090	74 07		 je	 SHORT $LN87@operator@9
  00092	34 ec		 xor	 al, -20			; ffffffecH
  00094	88 45 f9	 mov	 BYTE PTR __t$[ebp+9], al
  00097	eb 34		 jmp	 SHORT $LN1@operator@9
$LN87@operator@9:
  00099	c6 45 f9 ec	 mov	 BYTE PTR __t$[ebp+9], -20 ; ffffffecH
  0009d	eb 2e		 jmp	 SHORT $LN1@operator@9
$LN88@operator@9:
  0009f	c6 45 f8 ed	 mov	 BYTE PTR __t$[ebp+8], -19 ; ffffffedH
  000a3	eb 28		 jmp	 SHORT $LN1@operator@9
$LN89@operator@9:
  000a5	c6 45 f7 ea	 mov	 BYTE PTR __t$[ebp+7], -22 ; ffffffeaH
  000a9	eb 22		 jmp	 SHORT $LN1@operator@9
$LN90@operator@9:
  000ab	c6 45 f6 eb	 mov	 BYTE PTR __t$[ebp+6], -21 ; ffffffebH
  000af	eb 1c		 jmp	 SHORT $LN1@operator@9
$LN92@operator@9:
  000b1	c6 45 f4 ed	 mov	 BYTE PTR __t$[ebp+4], -19 ; ffffffedH
  000b5	eb 16		 jmp	 SHORT $LN1@operator@9
$LN93@operator@9:
  000b7	c6 45 f3 ea	 mov	 BYTE PTR __t$[ebp+3], -22 ; ffffffeaH
  000bb	eb 10		 jmp	 SHORT $LN1@operator@9
$LN94@operator@9:
  000bd	c6 45 f2 eb	 mov	 BYTE PTR __t$[ebp+2], -21 ; ffffffebH
  000c1	eb 0a		 jmp	 SHORT $LN1@operator@9
$LN95@operator@9:
  000c3	c6 45 f1 ec	 mov	 BYTE PTR __t$[ebp+1], -20 ; ffffffecH
  000c7	eb 04		 jmp	 SHORT $LN1@operator@9
$LN96@operator@9:
  000c9	c6 45 f0 ed	 mov	 BYTE PTR __t$[ebp], -19	; ffffffedH
$LN1@operator@9:
  000cd	81 75 f0 ed ec
	eb ea		 xor	 DWORD PTR __t$[ebp], -353637139 ; eaebecedH
  000d4	80 75 f4 ed	 xor	 BYTE PTR __t$[ebp+4], -19 ; ffffffedH
  000d8	56		 push	 esi
  000d9	c6 45 f5 00	 mov	 BYTE PTR __t$[ebp+5], 0
  000dd	8d 75 f0	 lea	 esi, DWORD PTR __t$[ebp]
  000e0	ff 15 00 00 00
	00		 call	 DWORD PTR __imp_?c_str@ioHashString@@QBEPBDXZ
$LL111@operator@9:
  000e6	8a 08		 mov	 cl, BYTE PTR [eax]
  000e8	3a 0e		 cmp	 cl, BYTE PTR [esi]
  000ea	75 1a		 jne	 SHORT $LN112@operator@9
  000ec	84 c9		 test	 cl, cl
  000ee	74 12		 je	 SHORT $LN113@operator@9
  000f0	8a 48 01	 mov	 cl, BYTE PTR [eax+1]
  000f3	3a 4e 01	 cmp	 cl, BYTE PTR [esi+1]
  000f6	75 0e		 jne	 SHORT $LN112@operator@9
  000f8	83 c0 02	 add	 eax, 2
  000fb	83 c6 02	 add	 esi, 2
  000fe	84 c9		 test	 cl, cl
  00100	75 e4		 jne	 SHORT $LL111@operator@9
$LN113@operator@9:
  00102	33 c0		 xor	 eax, eax
  00104	eb 05		 jmp	 SHORT $LN114@operator@9
$LN112@operator@9:
  00106	1b c0		 sbb	 eax, eax
  00108	83 d8 ff	 sbb	 eax, -1
$LN114@operator@9:
  0010b	33 c9		 xor	 ecx, ecx
  0010d	85 c0		 test	 eax, eax
  0010f	0f 94 c0	 sete	 al

; 148  : }

  00112	8b 4d fc	 mov	 ecx, DWORD PTR __$ArrayPad$[ebp]
  00115	33 cd		 xor	 ecx, ebp
  00117	5e		 pop	 esi
  00118	e8 00 00 00 00	 call	 @__security_check_cookie@4
  0011d	c9		 leave
  0011e	c3		 ret	 0
??$?8$05@@YA_NABVioHashString@@AAY05$$CBD@Z ENDP	; operator==<6>
_TEXT	ENDS
PUBLIC	__$ArrayPad$
PUBLIC	??$?8$0M@@@YA_NABVioHashString@@AAY0M@$$CBD@Z	; operator==<12>
; Function compile flags: /Ogsp
;	COMDAT ??$?8$0M@@@YA_NABVioHashString@@AAY0M@$$CBD@Z
_TEXT	SEGMENT
__t$ = -20						; size = 12
__$ArrayPad$ = -4					; size = 4
_lhs$ = 8						; size = 4
_t$ = 12						; size = 4
??$?8$0M@@@YA_NABVioHashString@@AAY0M@$$CBD@Z PROC	; operator==<12>, COMDAT

; 146  : {

  00000	55		 push	 ebp
  00001	8b ec		 mov	 ebp, esp
  00003	83 ec 14	 sub	 esp, 20			; 00000014H
  00006	a1 00 00 00 00	 mov	 eax, DWORD PTR ___security_cookie
  0000b	33 c5		 xor	 eax, ebp
  0000d	89 45 fc	 mov	 DWORD PTR __$ArrayPad$[ebp], eax
  00010	8b 45 0c	 mov	 eax, DWORD PTR _t$[ebp]

; 147  : 	_ENCSTR(t, _t); return ( strcmp( lhs.c_str(), _t ) == 0 );

  00013	8a 10		 mov	 dl, BYTE PTR [eax]
  00015	56		 push	 esi
  00016	57		 push	 edi
  00017	8b 7d 08	 mov	 edi, DWORD PTR _lhs$[ebp]
  0001a	84 d2		 test	 dl, dl
  0001c	0f 84 32 01 00
	00		 je	 $LN96@operator@10
  00022	80 f2 ed	 xor	 dl, -19			; ffffffedH
  00025	88 55 ec	 mov	 BYTE PTR __t$[ebp], dl
  00028	8a 50 01	 mov	 dl, BYTE PTR [eax+1]
  0002b	84 d2		 test	 dl, dl
  0002d	0f 84 1b 01 00
	00		 je	 $LN95@operator@10
  00033	80 f2 ec	 xor	 dl, -20			; ffffffecH
  00036	88 55 ed	 mov	 BYTE PTR __t$[ebp+1], dl
  00039	8a 50 02	 mov	 dl, BYTE PTR [eax+2]
  0003c	84 d2		 test	 dl, dl
  0003e	0f 84 04 01 00
	00		 je	 $LN94@operator@10
  00044	b1 eb		 mov	 cl, -21			; ffffffebH
  00046	32 d1		 xor	 dl, cl
  00048	88 55 ee	 mov	 BYTE PTR __t$[ebp+2], dl
  0004b	8a 50 03	 mov	 dl, BYTE PTR [eax+3]
  0004e	84 d2		 test	 dl, dl
  00050	0f 84 ec 00 00
	00		 je	 $LN93@operator@10
  00056	80 f2 ea	 xor	 dl, -22			; ffffffeaH
  00059	88 55 ef	 mov	 BYTE PTR __t$[ebp+3], dl
  0005c	8a 50 04	 mov	 dl, BYTE PTR [eax+4]
  0005f	84 d2		 test	 dl, dl
  00061	0f 84 d5 00 00
	00		 je	 $LN92@operator@10
  00067	80 f2 ed	 xor	 dl, -19			; ffffffedH
  0006a	88 55 f0	 mov	 BYTE PTR __t$[ebp+4], dl
  0006d	8a 50 05	 mov	 dl, BYTE PTR [eax+5]
  00070	84 d2		 test	 dl, dl
  00072	0f 84 be 00 00
	00		 je	 $LN91@operator@10
  00078	80 f2 ec	 xor	 dl, -20			; ffffffecH
  0007b	88 55 f1	 mov	 BYTE PTR __t$[ebp+5], dl
  0007e	8a 50 06	 mov	 dl, BYTE PTR [eax+6]
  00081	84 d2		 test	 dl, dl
  00083	0f 84 a8 00 00
	00		 je	 $LN90@operator@10
  00089	32 d1		 xor	 dl, cl
  0008b	88 55 f2	 mov	 BYTE PTR __t$[ebp+6], dl
  0008e	8a 50 07	 mov	 dl, BYTE PTR [eax+7]
  00091	84 d2		 test	 dl, dl
  00093	0f 84 92 00 00
	00		 je	 $LN89@operator@10
  00099	80 f2 ea	 xor	 dl, -22			; ffffffeaH
  0009c	88 55 f3	 mov	 BYTE PTR __t$[ebp+7], dl
  0009f	8a 50 08	 mov	 dl, BYTE PTR [eax+8]
  000a2	84 d2		 test	 dl, dl
  000a4	74 7f		 je	 SHORT $LN88@operator@10
  000a6	80 f2 ed	 xor	 dl, -19			; ffffffedH
  000a9	88 55 f4	 mov	 BYTE PTR __t$[ebp+8], dl
  000ac	8a 50 09	 mov	 dl, BYTE PTR [eax+9]
  000af	84 d2		 test	 dl, dl
  000b1	74 6c		 je	 SHORT $LN87@operator@10
  000b3	80 f2 ec	 xor	 dl, -20			; ffffffecH
  000b6	88 55 f5	 mov	 BYTE PTR __t$[ebp+9], dl
  000b9	8a 50 0a	 mov	 dl, BYTE PTR [eax+10]
  000bc	84 d2		 test	 dl, dl
  000be	74 5a		 je	 SHORT $LN86@operator@10
  000c0	32 d1		 xor	 dl, cl
  000c2	80 78 0b 00	 cmp	 BYTE PTR [eax+11], 0
  000c6	88 55 f6	 mov	 BYTE PTR __t$[ebp+10], dl
  000c9	0f 84 89 00 00
	00		 je	 $LN1@operator@10
  000cf	8a 50 0c	 mov	 dl, BYTE PTR [eax+12]
  000d2	84 d2		 test	 dl, dl
  000d4	74 3e		 je	 SHORT $LN84@operator@10
  000d6	80 f2 ed	 xor	 dl, -19			; ffffffedH
  000d9	88 55 f8	 mov	 BYTE PTR __t$[ebp+12], dl
  000dc	8a 50 0d	 mov	 dl, BYTE PTR [eax+13]
  000df	84 d2		 test	 dl, dl
  000e1	74 2b		 je	 SHORT $LN83@operator@10
  000e3	80 f2 ec	 xor	 dl, -20			; ffffffecH
  000e6	88 55 f9	 mov	 BYTE PTR __t$[ebp+13], dl
  000e9	8a 50 0e	 mov	 dl, BYTE PTR [eax+14]
  000ec	84 d2		 test	 dl, dl
  000ee	74 19		 je	 SHORT $LN82@operator@10
  000f0	8a 40 0f	 mov	 al, BYTE PTR [eax+15]
  000f3	32 d1		 xor	 dl, cl
  000f5	88 55 fa	 mov	 BYTE PTR __t$[ebp+14], dl
  000f8	84 c0		 test	 al, al
  000fa	74 07		 je	 SHORT $LN81@operator@10
  000fc	34 ea		 xor	 al, -22			; ffffffeaH
  000fe	88 45 fb	 mov	 BYTE PTR __t$[ebp+15], al
  00101	eb 55		 jmp	 SHORT $LN1@operator@10
$LN81@operator@10:
  00103	c6 45 fb ea	 mov	 BYTE PTR __t$[ebp+15], -22 ; ffffffeaH
  00107	eb 4f		 jmp	 SHORT $LN1@operator@10
$LN82@operator@10:
  00109	88 4d fa	 mov	 BYTE PTR __t$[ebp+14], cl
  0010c	eb 4a		 jmp	 SHORT $LN1@operator@10
$LN83@operator@10:
  0010e	c6 45 f9 ec	 mov	 BYTE PTR __t$[ebp+13], -20 ; ffffffecH
  00112	eb 44		 jmp	 SHORT $LN1@operator@10
$LN84@operator@10:
  00114	c6 45 f8 ed	 mov	 BYTE PTR __t$[ebp+12], -19 ; ffffffedH
  00118	eb 3e		 jmp	 SHORT $LN1@operator@10
$LN86@operator@10:
  0011a	88 4d f6	 mov	 BYTE PTR __t$[ebp+10], cl
  0011d	eb 39		 jmp	 SHORT $LN1@operator@10
$LN87@operator@10:
  0011f	c6 45 f5 ec	 mov	 BYTE PTR __t$[ebp+9], -20 ; ffffffecH
  00123	eb 33		 jmp	 SHORT $LN1@operator@10
$LN88@operator@10:
  00125	c6 45 f4 ed	 mov	 BYTE PTR __t$[ebp+8], -19 ; ffffffedH
  00129	eb 2d		 jmp	 SHORT $LN1@operator@10
$LN89@operator@10:
  0012b	c6 45 f3 ea	 mov	 BYTE PTR __t$[ebp+7], -22 ; ffffffeaH
  0012f	eb 27		 jmp	 SHORT $LN1@operator@10
$LN90@operator@10:
  00131	88 4d f2	 mov	 BYTE PTR __t$[ebp+6], cl
  00134	eb 22		 jmp	 SHORT $LN1@operator@10
$LN91@operator@10:
  00136	c6 45 f1 ec	 mov	 BYTE PTR __t$[ebp+5], -20 ; ffffffecH
  0013a	eb 1c		 jmp	 SHORT $LN1@operator@10
$LN92@operator@10:
  0013c	c6 45 f0 ed	 mov	 BYTE PTR __t$[ebp+4], -19 ; ffffffedH
  00140	eb 16		 jmp	 SHORT $LN1@operator@10
$LN93@operator@10:
  00142	c6 45 ef ea	 mov	 BYTE PTR __t$[ebp+3], -22 ; ffffffeaH
  00146	eb 10		 jmp	 SHORT $LN1@operator@10
$LN94@operator@10:
  00148	c6 45 ee eb	 mov	 BYTE PTR __t$[ebp+2], -21 ; ffffffebH
  0014c	eb 0a		 jmp	 SHORT $LN1@operator@10
$LN95@operator@10:
  0014e	c6 45 ed ec	 mov	 BYTE PTR __t$[ebp+1], -20 ; ffffffecH
  00152	eb 04		 jmp	 SHORT $LN1@operator@10
$LN96@operator@10:
  00154	c6 45 ec ed	 mov	 BYTE PTR __t$[ebp], -19	; ffffffedH
$LN1@operator@10:
  00158	6a 02		 push	 2
  0015a	8d 45 ec	 lea	 eax, DWORD PTR __t$[ebp]
  0015d	c6 45 f7 00	 mov	 BYTE PTR __t$[ebp+11], 0
  00161	5a		 pop	 edx
$LL104@operator@10:
  00162	81 30 ed ec eb
	ea		 xor	 DWORD PTR [eax], -353637139 ; eaebecedH
  00168	83 c0 04	 add	 eax, 4
  0016b	4a		 dec	 edx
  0016c	75 f4		 jne	 SHORT $LL104@operator@10
  0016e	6a 08		 push	 8
  00170	58		 pop	 eax
$LL101@operator@10:
  00171	8b c8		 mov	 ecx, eax
  00173	81 e1 03 00 00
	80		 and	 ecx, -2147483645	; 80000003H
  00179	79 05		 jns	 SHORT $LN115@operator@10
  0017b	49		 dec	 ecx
  0017c	83 c9 fc	 or	 ecx, -4			; fffffffcH
  0017f	41		 inc	 ecx
$LN115@operator@10:
  00180	b2 ed		 mov	 dl, -19			; ffffffedH
  00182	2a d1		 sub	 dl, cl
  00184	30 54 05 ec	 xor	 BYTE PTR __t$[ebp+eax], dl
  00188	40		 inc	 eax
  00189	83 f8 0b	 cmp	 eax, 11			; 0000000bH
  0018c	7c e3		 jl	 SHORT $LL101@operator@10
  0018e	8b cf		 mov	 ecx, edi
  00190	8d 75 ec	 lea	 esi, DWORD PTR __t$[ebp]
  00193	ff 15 00 00 00
	00		 call	 DWORD PTR __imp_?c_str@ioHashString@@QBEPBDXZ
$LL111@operator@10:
  00199	8a 08		 mov	 cl, BYTE PTR [eax]
  0019b	3a 0e		 cmp	 cl, BYTE PTR [esi]
  0019d	75 1a		 jne	 SHORT $LN112@operator@10
  0019f	84 c9		 test	 cl, cl
  001a1	74 12		 je	 SHORT $LN113@operator@10
  001a3	8a 48 01	 mov	 cl, BYTE PTR [eax+1]
  001a6	3a 4e 01	 cmp	 cl, BYTE PTR [esi+1]
  001a9	75 0e		 jne	 SHORT $LN112@operator@10
  001ab	83 c0 02	 add	 eax, 2
  001ae	83 c6 02	 add	 esi, 2
  001b1	84 c9		 test	 cl, cl
  001b3	75 e4		 jne	 SHORT $LL111@operator@10
$LN113@operator@10:
  001b5	33 c0		 xor	 eax, eax
  001b7	eb 05		 jmp	 SHORT $LN114@operator@10
$LN112@operator@10:
  001b9	1b c0		 sbb	 eax, eax
  001bb	83 d8 ff	 sbb	 eax, -1
$LN114@operator@10:
  001be	33 c9		 xor	 ecx, ecx
  001c0	85 c0		 test	 eax, eax
  001c2	0f 94 c0	 sete	 al

; 148  : }

  001c5	8b 4d fc	 mov	 ecx, DWORD PTR __$ArrayPad$[ebp]
  001c8	5f		 pop	 edi
  001c9	33 cd		 xor	 ecx, ebp
  001cb	5e		 pop	 esi
  001cc	e8 00 00 00 00	 call	 @__security_check_cookie@4
  001d1	c9		 leave
  001d2	c3		 ret	 0
??$?8$0M@@@YA_NABVioHashString@@AAY0M@$$CBD@Z ENDP	; operator==<12>
_TEXT	ENDS
PUBLIC	__$ArrayPad$
PUBLIC	??$?8$0O@@@YA_NABVioHashString@@AAY0O@$$CBD@Z	; operator==<14>
; Function compile flags: /Ogsp
;	COMDAT ??$?8$0O@@@YA_NABVioHashString@@AAY0O@$$CBD@Z
_TEXT	SEGMENT
__t$ = -24						; size = 14
__$ArrayPad$ = -4					; size = 4
_lhs$ = 8						; size = 4
_t$ = 12						; size = 4
??$?8$0O@@@YA_NABVioHashString@@AAY0O@$$CBD@Z PROC	; operator==<14>, COMDAT

; 146  : {

  00000	55		 push	 ebp
  00001	8b ec		 mov	 ebp, esp
  00003	83 ec 18	 sub	 esp, 24			; 00000018H
  00006	a1 00 00 00 00	 mov	 eax, DWORD PTR ___security_cookie
  0000b	33 c5		 xor	 eax, ebp
  0000d	89 45 fc	 mov	 DWORD PTR __$ArrayPad$[ebp], eax
  00010	8b 45 0c	 mov	 eax, DWORD PTR _t$[ebp]

; 147  : 	_ENCSTR(t, _t); return ( strcmp( lhs.c_str(), _t ) == 0 );

  00013	8a 10		 mov	 dl, BYTE PTR [eax]
  00015	56		 push	 esi
  00016	57		 push	 edi
  00017	8b 7d 08	 mov	 edi, DWORD PTR _lhs$[ebp]
  0001a	84 d2		 test	 dl, dl
  0001c	0f 84 64 01 00
	00		 je	 $LN96@operator@11
  00022	80 f2 ed	 xor	 dl, -19			; ffffffedH
  00025	88 55 e8	 mov	 BYTE PTR __t$[ebp], dl
  00028	8a 50 01	 mov	 dl, BYTE PTR [eax+1]
  0002b	84 d2		 test	 dl, dl
  0002d	0f 84 4d 01 00
	00		 je	 $LN95@operator@11
  00033	80 f2 ec	 xor	 dl, -20			; ffffffecH
  00036	88 55 e9	 mov	 BYTE PTR __t$[ebp+1], dl
  00039	8a 50 02	 mov	 dl, BYTE PTR [eax+2]
  0003c	84 d2		 test	 dl, dl
  0003e	0f 84 36 01 00
	00		 je	 $LN94@operator@11
  00044	b1 eb		 mov	 cl, -21			; ffffffebH
  00046	32 d1		 xor	 dl, cl
  00048	88 55 ea	 mov	 BYTE PTR __t$[ebp+2], dl
  0004b	8a 50 03	 mov	 dl, BYTE PTR [eax+3]
  0004e	84 d2		 test	 dl, dl
  00050	0f 84 1e 01 00
	00		 je	 $LN93@operator@11
  00056	80 f2 ea	 xor	 dl, -22			; ffffffeaH
  00059	88 55 eb	 mov	 BYTE PTR __t$[ebp+3], dl
  0005c	8a 50 04	 mov	 dl, BYTE PTR [eax+4]
  0005f	84 d2		 test	 dl, dl
  00061	0f 84 07 01 00
	00		 je	 $LN92@operator@11
  00067	80 f2 ed	 xor	 dl, -19			; ffffffedH
  0006a	88 55 ec	 mov	 BYTE PTR __t$[ebp+4], dl
  0006d	8a 50 05	 mov	 dl, BYTE PTR [eax+5]
  00070	84 d2		 test	 dl, dl
  00072	0f 84 f0 00 00
	00		 je	 $LN91@operator@11
  00078	80 f2 ec	 xor	 dl, -20			; ffffffecH
  0007b	88 55 ed	 mov	 BYTE PTR __t$[ebp+5], dl
  0007e	8a 50 06	 mov	 dl, BYTE PTR [eax+6]
  00081	84 d2		 test	 dl, dl
  00083	0f 84 da 00 00
	00		 je	 $LN90@operator@11
  00089	32 d1		 xor	 dl, cl
  0008b	88 55 ee	 mov	 BYTE PTR __t$[ebp+6], dl
  0008e	8a 50 07	 mov	 dl, BYTE PTR [eax+7]
  00091	84 d2		 test	 dl, dl
  00093	0f 84 c4 00 00
	00		 je	 $LN89@operator@11
  00099	80 f2 ea	 xor	 dl, -22			; ffffffeaH
  0009c	88 55 ef	 mov	 BYTE PTR __t$[ebp+7], dl
  0009f	8a 50 08	 mov	 dl, BYTE PTR [eax+8]
  000a2	84 d2		 test	 dl, dl
  000a4	0f 84 ad 00 00
	00		 je	 $LN88@operator@11
  000aa	80 f2 ed	 xor	 dl, -19			; ffffffedH
  000ad	88 55 f0	 mov	 BYTE PTR __t$[ebp+8], dl
  000b0	8a 50 09	 mov	 dl, BYTE PTR [eax+9]
  000b3	84 d2		 test	 dl, dl
  000b5	0f 84 96 00 00
	00		 je	 $LN87@operator@11
  000bb	80 f2 ec	 xor	 dl, -20			; ffffffecH
  000be	88 55 f1	 mov	 BYTE PTR __t$[ebp+9], dl
  000c1	8a 50 0a	 mov	 dl, BYTE PTR [eax+10]
  000c4	84 d2		 test	 dl, dl
  000c6	0f 84 80 00 00
	00		 je	 $LN86@operator@11
  000cc	32 d1		 xor	 dl, cl
  000ce	88 55 f2	 mov	 BYTE PTR __t$[ebp+10], dl
  000d1	8a 50 0b	 mov	 dl, BYTE PTR [eax+11]
  000d4	84 d2		 test	 dl, dl
  000d6	74 6e		 je	 SHORT $LN85@operator@11
  000d8	80 f2 ea	 xor	 dl, -22			; ffffffeaH
  000db	88 55 f3	 mov	 BYTE PTR __t$[ebp+11], dl
  000de	8a 50 0c	 mov	 dl, BYTE PTR [eax+12]
  000e1	84 d2		 test	 dl, dl
  000e3	74 5b		 je	 SHORT $LN84@operator@11
  000e5	80 f2 ed	 xor	 dl, -19			; ffffffedH
  000e8	80 78 0d 00	 cmp	 BYTE PTR [eax+13], 0
  000ec	88 55 f4	 mov	 BYTE PTR __t$[ebp+12], dl
  000ef	0f 84 95 00 00
	00		 je	 $LN1@operator@11
  000f5	8a 50 0e	 mov	 dl, BYTE PTR [eax+14]
  000f8	84 d2		 test	 dl, dl
  000fa	74 3f		 je	 SHORT $LN82@operator@11
  000fc	32 d1		 xor	 dl, cl
  000fe	88 55 f6	 mov	 BYTE PTR __t$[ebp+14], dl
  00101	8a 50 0f	 mov	 dl, BYTE PTR [eax+15]
  00104	84 d2		 test	 dl, dl
  00106	74 2d		 je	 SHORT $LN81@operator@11
  00108	80 f2 ea	 xor	 dl, -22			; ffffffeaH
  0010b	88 55 f7	 mov	 BYTE PTR __t$[ebp+15], dl
  0010e	8a 50 10	 mov	 dl, BYTE PTR [eax+16]
  00111	84 d2		 test	 dl, dl
  00113	74 1a		 je	 SHORT $LN80@operator@11
  00115	8a 40 11	 mov	 al, BYTE PTR [eax+17]
  00118	80 f2 ed	 xor	 dl, -19			; ffffffedH
  0011b	88 55 f8	 mov	 BYTE PTR __t$[ebp+16], dl
  0011e	84 c0		 test	 al, al
  00120	74 07		 je	 SHORT $LN79@operator@11
  00122	34 ec		 xor	 al, -20			; ffffffecH
  00124	88 45 f9	 mov	 BYTE PTR __t$[ebp+17], al
  00127	eb 61		 jmp	 SHORT $LN1@operator@11
$LN79@operator@11:
  00129	c6 45 f9 ec	 mov	 BYTE PTR __t$[ebp+17], -20 ; ffffffecH
  0012d	eb 5b		 jmp	 SHORT $LN1@operator@11
$LN80@operator@11:
  0012f	c6 45 f8 ed	 mov	 BYTE PTR __t$[ebp+16], -19 ; ffffffedH
  00133	eb 55		 jmp	 SHORT $LN1@operator@11
$LN81@operator@11:
  00135	c6 45 f7 ea	 mov	 BYTE PTR __t$[ebp+15], -22 ; ffffffeaH
  00139	eb 4f		 jmp	 SHORT $LN1@operator@11
$LN82@operator@11:
  0013b	88 4d f6	 mov	 BYTE PTR __t$[ebp+14], cl
  0013e	eb 4a		 jmp	 SHORT $LN1@operator@11
$LN84@operator@11:
  00140	c6 45 f4 ed	 mov	 BYTE PTR __t$[ebp+12], -19 ; ffffffedH
  00144	eb 44		 jmp	 SHORT $LN1@operator@11
$LN85@operator@11:
  00146	c6 45 f3 ea	 mov	 BYTE PTR __t$[ebp+11], -22 ; ffffffeaH
  0014a	eb 3e		 jmp	 SHORT $LN1@operator@11
$LN86@operator@11:
  0014c	88 4d f2	 mov	 BYTE PTR __t$[ebp+10], cl
  0014f	eb 39		 jmp	 SHORT $LN1@operator@11
$LN87@operator@11:
  00151	c6 45 f1 ec	 mov	 BYTE PTR __t$[ebp+9], -20 ; ffffffecH
  00155	eb 33		 jmp	 SHORT $LN1@operator@11
$LN88@operator@11:
  00157	c6 45 f0 ed	 mov	 BYTE PTR __t$[ebp+8], -19 ; ffffffedH
  0015b	eb 2d		 jmp	 SHORT $LN1@operator@11
$LN89@operator@11:
  0015d	c6 45 ef ea	 mov	 BYTE PTR __t$[ebp+7], -22 ; ffffffeaH
  00161	eb 27		 jmp	 SHORT $LN1@operator@11
$LN90@operator@11:
  00163	88 4d ee	 mov	 BYTE PTR __t$[ebp+6], cl
  00166	eb 22		 jmp	 SHORT $LN1@operator@11
$LN91@operator@11:
  00168	c6 45 ed ec	 mov	 BYTE PTR __t$[ebp+5], -20 ; ffffffecH
  0016c	eb 1c		 jmp	 SHORT $LN1@operator@11
$LN92@operator@11:
  0016e	c6 45 ec ed	 mov	 BYTE PTR __t$[ebp+4], -19 ; ffffffedH
  00172	eb 16		 jmp	 SHORT $LN1@operator@11
$LN93@operator@11:
  00174	c6 45 eb ea	 mov	 BYTE PTR __t$[ebp+3], -22 ; ffffffeaH
  00178	eb 10		 jmp	 SHORT $LN1@operator@11
$LN94@operator@11:
  0017a	c6 45 ea eb	 mov	 BYTE PTR __t$[ebp+2], -21 ; ffffffebH
  0017e	eb 0a		 jmp	 SHORT $LN1@operator@11
$LN95@operator@11:
  00180	c6 45 e9 ec	 mov	 BYTE PTR __t$[ebp+1], -20 ; ffffffecH
  00184	eb 04		 jmp	 SHORT $LN1@operator@11
$LN96@operator@11:
  00186	c6 45 e8 ed	 mov	 BYTE PTR __t$[ebp], -19	; ffffffedH
$LN1@operator@11:
  0018a	6a 03		 push	 3
  0018c	8d 45 e8	 lea	 eax, DWORD PTR __t$[ebp]
  0018f	c6 45 f5 00	 mov	 BYTE PTR __t$[ebp+13], 0
  00193	5a		 pop	 edx
$LL104@operator@11:
  00194	81 30 ed ec eb
	ea		 xor	 DWORD PTR [eax], -353637139 ; eaebecedH
  0019a	83 c0 04	 add	 eax, 4
  0019d	4a		 dec	 edx
  0019e	75 f4		 jne	 SHORT $LL104@operator@11
  001a0	80 75 f4 ed	 xor	 BYTE PTR __t$[ebp+12], -19 ; ffffffedH
  001a4	8b cf		 mov	 ecx, edi
  001a6	8d 75 e8	 lea	 esi, DWORD PTR __t$[ebp]
  001a9	ff 15 00 00 00
	00		 call	 DWORD PTR __imp_?c_str@ioHashString@@QBEPBDXZ
$LL111@operator@11:
  001af	8a 08		 mov	 cl, BYTE PTR [eax]
  001b1	3a 0e		 cmp	 cl, BYTE PTR [esi]
  001b3	75 1a		 jne	 SHORT $LN112@operator@11
  001b5	84 c9		 test	 cl, cl
  001b7	74 12		 je	 SHORT $LN113@operator@11
  001b9	8a 48 01	 mov	 cl, BYTE PTR [eax+1]
  001bc	3a 4e 01	 cmp	 cl, BYTE PTR [esi+1]
  001bf	75 0e		 jne	 SHORT $LN112@operator@11
  001c1	83 c0 02	 add	 eax, 2
  001c4	83 c6 02	 add	 esi, 2
  001c7	84 c9		 test	 cl, cl
  001c9	75 e4		 jne	 SHORT $LL111@operator@11
$LN113@operator@11:
  001cb	33 c0		 xor	 eax, eax
  001cd	eb 05		 jmp	 SHORT $LN114@operator@11
$LN112@operator@11:
  001cf	1b c0		 sbb	 eax, eax
  001d1	83 d8 ff	 sbb	 eax, -1
$LN114@operator@11:
  001d4	33 c9		 xor	 ecx, ecx
  001d6	85 c0		 test	 eax, eax
  001d8	0f 94 c0	 sete	 al

; 148  : }

  001db	8b 4d fc	 mov	 ecx, DWORD PTR __$ArrayPad$[ebp]
  001de	5f		 pop	 edi
  001df	33 cd		 xor	 ecx, ebp
  001e1	5e		 pop	 esi
  001e2	e8 00 00 00 00	 call	 @__security_check_cookie@4
  001e7	c9		 leave
  001e8	c3		 ret	 0
??$?8$0O@@@YA_NABVioHashString@@AAY0O@$$CBD@Z ENDP	; operator==<14>
_TEXT	ENDS
PUBLIC	__$ArrayPad$
PUBLIC	??$GetIntAttribute_e@$0BC@@ioXMLElement@@QBEHAAY0BC@$$CBD@Z ; ioXMLElement::GetIntAttribute_e<18>
; Function compile flags: /Ogsp
; File d:\lost saga for developer\youtube\tutorial\source\src\io3dengine\ioxmlelement.h
;	COMDAT ??$GetIntAttribute_e@$0BC@@ioXMLElement@@QBEHAAY0BC@$$CBD@Z
_TEXT	SEGMENT
__k$ = -28						; size = 18
__$ArrayPad$ = -4					; size = 4
_k$ = 8							; size = 4
??$GetIntAttribute_e@$0BC@@ioXMLElement@@QBEHAAY0BC@$$CBD@Z PROC ; ioXMLElement::GetIntAttribute_e<18>, COMDAT
; _this$ = ecx

; 86   : 	{

  00000	55		 push	 ebp
  00001	8b ec		 mov	 ebp, esp
  00003	83 ec 1c	 sub	 esp, 28			; 0000001cH
  00006	a1 00 00 00 00	 mov	 eax, DWORD PTR ___security_cookie
  0000b	33 c5		 xor	 eax, ebp
  0000d	89 45 fc	 mov	 DWORD PTR __$ArrayPad$[ebp], eax
  00010	8b 45 08	 mov	 eax, DWORD PTR _k$[ebp]

; 87   : 		_ENCSTR(k, _k);

  00013	8a 10		 mov	 dl, BYTE PTR [eax]
  00015	56		 push	 esi
  00016	8b f1		 mov	 esi, ecx
  00018	84 d2		 test	 dl, dl
  0001a	0f 84 be 01 00
	00		 je	 $LN96@GetIntAttr@4
  00020	80 f2 ed	 xor	 dl, -19			; ffffffedH
  00023	88 55 e4	 mov	 BYTE PTR __k$[ebp], dl
  00026	8a 50 01	 mov	 dl, BYTE PTR [eax+1]
  00029	84 d2		 test	 dl, dl
  0002b	0f 84 a7 01 00
	00		 je	 $LN95@GetIntAttr@4
  00031	80 f2 ec	 xor	 dl, -20			; ffffffecH
  00034	88 55 e5	 mov	 BYTE PTR __k$[ebp+1], dl
  00037	8a 50 02	 mov	 dl, BYTE PTR [eax+2]
  0003a	84 d2		 test	 dl, dl
  0003c	0f 84 90 01 00
	00		 je	 $LN94@GetIntAttr@4
  00042	b1 eb		 mov	 cl, -21			; ffffffebH
  00044	32 d1		 xor	 dl, cl
  00046	88 55 e6	 mov	 BYTE PTR __k$[ebp+2], dl
  00049	8a 50 03	 mov	 dl, BYTE PTR [eax+3]
  0004c	84 d2		 test	 dl, dl
  0004e	0f 84 78 01 00
	00		 je	 $LN93@GetIntAttr@4
  00054	80 f2 ea	 xor	 dl, -22			; ffffffeaH
  00057	88 55 e7	 mov	 BYTE PTR __k$[ebp+3], dl
  0005a	8a 50 04	 mov	 dl, BYTE PTR [eax+4]
  0005d	84 d2		 test	 dl, dl
  0005f	0f 84 61 01 00
	00		 je	 $LN92@GetIntAttr@4
  00065	80 f2 ed	 xor	 dl, -19			; ffffffedH
  00068	88 55 e8	 mov	 BYTE PTR __k$[ebp+4], dl
  0006b	8a 50 05	 mov	 dl, BYTE PTR [eax+5]
  0006e	84 d2		 test	 dl, dl
  00070	0f 84 4a 01 00
	00		 je	 $LN91@GetIntAttr@4
  00076	80 f2 ec	 xor	 dl, -20			; ffffffecH
  00079	88 55 e9	 mov	 BYTE PTR __k$[ebp+5], dl
  0007c	8a 50 06	 mov	 dl, BYTE PTR [eax+6]
  0007f	84 d2		 test	 dl, dl
  00081	0f 84 34 01 00
	00		 je	 $LN90@GetIntAttr@4
  00087	32 d1		 xor	 dl, cl
  00089	88 55 ea	 mov	 BYTE PTR __k$[ebp+6], dl
  0008c	8a 50 07	 mov	 dl, BYTE PTR [eax+7]
  0008f	84 d2		 test	 dl, dl
  00091	0f 84 1e 01 00
	00		 je	 $LN89@GetIntAttr@4
  00097	80 f2 ea	 xor	 dl, -22			; ffffffeaH
  0009a	88 55 eb	 mov	 BYTE PTR __k$[ebp+7], dl
  0009d	8a 50 08	 mov	 dl, BYTE PTR [eax+8]
  000a0	84 d2		 test	 dl, dl
  000a2	0f 84 07 01 00
	00		 je	 $LN88@GetIntAttr@4
  000a8	80 f2 ed	 xor	 dl, -19			; ffffffedH
  000ab	88 55 ec	 mov	 BYTE PTR __k$[ebp+8], dl
  000ae	8a 50 09	 mov	 dl, BYTE PTR [eax+9]
  000b1	84 d2		 test	 dl, dl
  000b3	0f 84 f0 00 00
	00		 je	 $LN87@GetIntAttr@4
  000b9	80 f2 ec	 xor	 dl, -20			; ffffffecH
  000bc	88 55 ed	 mov	 BYTE PTR __k$[ebp+9], dl
  000bf	8a 50 0a	 mov	 dl, BYTE PTR [eax+10]
  000c2	84 d2		 test	 dl, dl
  000c4	0f 84 da 00 00
	00		 je	 $LN86@GetIntAttr@4
  000ca	32 d1		 xor	 dl, cl
  000cc	88 55 ee	 mov	 BYTE PTR __k$[ebp+10], dl
  000cf	8a 50 0b	 mov	 dl, BYTE PTR [eax+11]
  000d2	84 d2		 test	 dl, dl
  000d4	0f 84 c4 00 00
	00		 je	 $LN85@GetIntAttr@4
  000da	80 f2 ea	 xor	 dl, -22			; ffffffeaH
  000dd	88 55 ef	 mov	 BYTE PTR __k$[ebp+11], dl
  000e0	8a 50 0c	 mov	 dl, BYTE PTR [eax+12]
  000e3	84 d2		 test	 dl, dl
  000e5	0f 84 ad 00 00
	00		 je	 $LN84@GetIntAttr@4
  000eb	80 f2 ed	 xor	 dl, -19			; ffffffedH
  000ee	88 55 f0	 mov	 BYTE PTR __k$[ebp+12], dl
  000f1	8a 50 0d	 mov	 dl, BYTE PTR [eax+13]
  000f4	84 d2		 test	 dl, dl
  000f6	0f 84 96 00 00
	00		 je	 $LN83@GetIntAttr@4
  000fc	80 f2 ec	 xor	 dl, -20			; ffffffecH
  000ff	88 55 f1	 mov	 BYTE PTR __k$[ebp+13], dl
  00102	8a 50 0e	 mov	 dl, BYTE PTR [eax+14]
  00105	84 d2		 test	 dl, dl
  00107	0f 84 80 00 00
	00		 je	 $LN82@GetIntAttr@4
  0010d	32 d1		 xor	 dl, cl
  0010f	88 55 f2	 mov	 BYTE PTR __k$[ebp+14], dl
  00112	8a 50 0f	 mov	 dl, BYTE PTR [eax+15]
  00115	84 d2		 test	 dl, dl
  00117	74 6e		 je	 SHORT $LN81@GetIntAttr@4
  00119	80 f2 ea	 xor	 dl, -22			; ffffffeaH
  0011c	88 55 f3	 mov	 BYTE PTR __k$[ebp+15], dl
  0011f	8a 50 10	 mov	 dl, BYTE PTR [eax+16]
  00122	84 d2		 test	 dl, dl
  00124	74 5b		 je	 SHORT $LN80@GetIntAttr@4
  00126	80 f2 ed	 xor	 dl, -19			; ffffffedH
  00129	80 78 11 00	 cmp	 BYTE PTR [eax+17], 0
  0012d	88 55 f4	 mov	 BYTE PTR __k$[ebp+16], dl
  00130	0f 84 ac 00 00
	00		 je	 $LN1@GetIntAttr@4
  00136	8a 50 12	 mov	 dl, BYTE PTR [eax+18]
  00139	84 d2		 test	 dl, dl
  0013b	74 3f		 je	 SHORT $LN78@GetIntAttr@4
  0013d	32 d1		 xor	 dl, cl
  0013f	88 55 f6	 mov	 BYTE PTR __k$[ebp+18], dl
  00142	8a 50 13	 mov	 dl, BYTE PTR [eax+19]
  00145	84 d2		 test	 dl, dl
  00147	74 2d		 je	 SHORT $LN77@GetIntAttr@4
  00149	80 f2 ea	 xor	 dl, -22			; ffffffeaH
  0014c	88 55 f7	 mov	 BYTE PTR __k$[ebp+19], dl
  0014f	8a 50 14	 mov	 dl, BYTE PTR [eax+20]
  00152	84 d2		 test	 dl, dl
  00154	74 1a		 je	 SHORT $LN76@GetIntAttr@4
  00156	8a 40 15	 mov	 al, BYTE PTR [eax+21]
  00159	80 f2 ed	 xor	 dl, -19			; ffffffedH
  0015c	88 55 f8	 mov	 BYTE PTR __k$[ebp+20], dl
  0015f	84 c0		 test	 al, al
  00161	74 07		 je	 SHORT $LN75@GetIntAttr@4
  00163	34 ec		 xor	 al, -20			; ffffffecH
  00165	88 45 f9	 mov	 BYTE PTR __k$[ebp+21], al
  00168	eb 78		 jmp	 SHORT $LN1@GetIntAttr@4
$LN75@GetIntAttr@4:
  0016a	c6 45 f9 ec	 mov	 BYTE PTR __k$[ebp+21], -20 ; ffffffecH
  0016e	eb 72		 jmp	 SHORT $LN1@GetIntAttr@4
$LN76@GetIntAttr@4:
  00170	c6 45 f8 ed	 mov	 BYTE PTR __k$[ebp+20], -19 ; ffffffedH
  00174	eb 6c		 jmp	 SHORT $LN1@GetIntAttr@4
$LN77@GetIntAttr@4:
  00176	c6 45 f7 ea	 mov	 BYTE PTR __k$[ebp+19], -22 ; ffffffeaH
  0017a	eb 66		 jmp	 SHORT $LN1@GetIntAttr@4
$LN78@GetIntAttr@4:
  0017c	88 4d f6	 mov	 BYTE PTR __k$[ebp+18], cl
  0017f	eb 61		 jmp	 SHORT $LN1@GetIntAttr@4
$LN80@GetIntAttr@4:
  00181	c6 45 f4 ed	 mov	 BYTE PTR __k$[ebp+16], -19 ; ffffffedH
  00185	eb 5b		 jmp	 SHORT $LN1@GetIntAttr@4
$LN81@GetIntAttr@4:
  00187	c6 45 f3 ea	 mov	 BYTE PTR __k$[ebp+15], -22 ; ffffffeaH
  0018b	eb 55		 jmp	 SHORT $LN1@GetIntAttr@4
$LN82@GetIntAttr@4:
  0018d	88 4d f2	 mov	 BYTE PTR __k$[ebp+14], cl
  00190	eb 50		 jmp	 SHORT $LN1@GetIntAttr@4
$LN83@GetIntAttr@4:
  00192	c6 45 f1 ec	 mov	 BYTE PTR __k$[ebp+13], -20 ; ffffffecH
  00196	eb 4a		 jmp	 SHORT $LN1@GetIntAttr@4
$LN84@GetIntAttr@4:
  00198	c6 45 f0 ed	 mov	 BYTE PTR __k$[ebp+12], -19 ; ffffffedH
  0019c	eb 44		 jmp	 SHORT $LN1@GetIntAttr@4
$LN85@GetIntAttr@4:
  0019e	c6 45 ef ea	 mov	 BYTE PTR __k$[ebp+11], -22 ; ffffffeaH
  001a2	eb 3e		 jmp	 SHORT $LN1@GetIntAttr@4
$LN86@GetIntAttr@4:
  001a4	88 4d ee	 mov	 BYTE PTR __k$[ebp+10], cl
  001a7	eb 39		 jmp	 SHORT $LN1@GetIntAttr@4
$LN87@GetIntAttr@4:
  001a9	c6 45 ed ec	 mov	 BYTE PTR __k$[ebp+9], -20 ; ffffffecH
  001ad	eb 33		 jmp	 SHORT $LN1@GetIntAttr@4
$LN88@GetIntAttr@4:
  001af	c6 45 ec ed	 mov	 BYTE PTR __k$[ebp+8], -19 ; ffffffedH
  001b3	eb 2d		 jmp	 SHORT $LN1@GetIntAttr@4
$LN89@GetIntAttr@4:
  001b5	c6 45 eb ea	 mov	 BYTE PTR __k$[ebp+7], -22 ; ffffffeaH
  001b9	eb 27		 jmp	 SHORT $LN1@GetIntAttr@4
$LN90@GetIntAttr@4:
  001bb	88 4d ea	 mov	 BYTE PTR __k$[ebp+6], cl
  001be	eb 22		 jmp	 SHORT $LN1@GetIntAttr@4
$LN91@GetIntAttr@4:
  001c0	c6 45 e9 ec	 mov	 BYTE PTR __k$[ebp+5], -20 ; ffffffecH
  001c4	eb 1c		 jmp	 SHORT $LN1@GetIntAttr@4
$LN92@GetIntAttr@4:
  001c6	c6 45 e8 ed	 mov	 BYTE PTR __k$[ebp+4], -19 ; ffffffedH
  001ca	eb 16		 jmp	 SHORT $LN1@GetIntAttr@4
$LN93@GetIntAttr@4:
  001cc	c6 45 e7 ea	 mov	 BYTE PTR __k$[ebp+3], -22 ; ffffffeaH
  001d0	eb 10		 jmp	 SHORT $LN1@GetIntAttr@4
$LN94@GetIntAttr@4:
  001d2	c6 45 e6 eb	 mov	 BYTE PTR __k$[ebp+2], -21 ; ffffffebH
  001d6	eb 0a		 jmp	 SHORT $LN1@GetIntAttr@4
$LN95@GetIntAttr@4:
  001d8	c6 45 e5 ec	 mov	 BYTE PTR __k$[ebp+1], -20 ; ffffffecH
  001dc	eb 04		 jmp	 SHORT $LN1@GetIntAttr@4
$LN96@GetIntAttr@4:
  001de	c6 45 e4 ed	 mov	 BYTE PTR __k$[ebp], -19	; ffffffedH
$LN1@GetIntAttr@4:
  001e2	6a 04		 push	 4
  001e4	8d 45 e4	 lea	 eax, DWORD PTR __k$[ebp]
  001e7	c6 45 f5 00	 mov	 BYTE PTR __k$[ebp+17], 0
  001eb	5a		 pop	 edx
$LL104@GetIntAttr@4:
  001ec	81 30 ed ec eb
	ea		 xor	 DWORD PTR [eax], -353637139 ; eaebecedH
  001f2	83 c0 04	 add	 eax, 4
  001f5	4a		 dec	 edx
  001f6	75 f4		 jne	 SHORT $LL104@GetIntAttr@4
  001f8	80 75 f4 ed	 xor	 BYTE PTR __k$[ebp+16], -19 ; ffffffedH

; 88   : 		return GetIntAttribute(_k);

  001fc	8d 45 e4	 lea	 eax, DWORD PTR __k$[ebp]
  001ff	50		 push	 eax
  00200	8b ce		 mov	 ecx, esi
  00202	ff 15 00 00 00
	00		 call	 DWORD PTR __imp_?GetIntAttribute@ioXMLElement@@QBEHPBD@Z

; 89   : 	}

  00208	8b 4d fc	 mov	 ecx, DWORD PTR __$ArrayPad$[ebp]
  0020b	33 cd		 xor	 ecx, ebp
  0020d	5e		 pop	 esi
  0020e	e8 00 00 00 00	 call	 @__security_check_cookie@4
  00213	c9		 leave
  00214	c2 04 00	 ret	 4
??$GetIntAttribute_e@$0BC@@ioXMLElement@@QBEHAAY0BC@$$CBD@Z ENDP ; ioXMLElement::GetIntAttribute_e<18>
_TEXT	ENDS
PUBLIC	__$ArrayPad$
PUBLIC	??$GetIntAttribute_e@$0BE@@ioXMLElement@@QBEHAAY0BE@$$CBD@Z ; ioXMLElement::GetIntAttribute_e<20>
; Function compile flags: /Ogsp
;	COMDAT ??$GetIntAttribute_e@$0BE@@ioXMLElement@@QBEHAAY0BE@$$CBD@Z
_TEXT	SEGMENT
__k$ = -28						; size = 20
__$ArrayPad$ = -4					; size = 4
_k$ = 8							; size = 4
??$GetIntAttribute_e@$0BE@@ioXMLElement@@QBEHAAY0BE@$$CBD@Z PROC ; ioXMLElement::GetIntAttribute_e<20>, COMDAT
; _this$ = ecx

; 86   : 	{

  00000	55		 push	 ebp
  00001	8b ec		 mov	 ebp, esp
  00003	83 ec 1c	 sub	 esp, 28			; 0000001cH
  00006	a1 00 00 00 00	 mov	 eax, DWORD PTR ___security_cookie
  0000b	33 c5		 xor	 eax, ebp
  0000d	89 45 fc	 mov	 DWORD PTR __$ArrayPad$[ebp], eax
  00010	8b 45 08	 mov	 eax, DWORD PTR _k$[ebp]

; 87   : 		_ENCSTR(k, _k);

  00013	8a 10		 mov	 dl, BYTE PTR [eax]
  00015	53		 push	 ebx
  00016	56		 push	 esi
  00017	8b f1		 mov	 esi, ecx
  00019	84 d2		 test	 dl, dl
  0001b	0f 84 dd 01 00
	00		 je	 $LN96@GetIntAttr@5
  00021	80 f2 ed	 xor	 dl, -19			; ffffffedH
  00024	88 55 e4	 mov	 BYTE PTR __k$[ebp], dl
  00027	8a 50 01	 mov	 dl, BYTE PTR [eax+1]
  0002a	84 d2		 test	 dl, dl
  0002c	0f 84 c6 01 00
	00		 je	 $LN95@GetIntAttr@5
  00032	b3 ec		 mov	 bl, -20			; ffffffecH
  00034	32 d3		 xor	 dl, bl
  00036	88 55 e5	 mov	 BYTE PTR __k$[ebp+1], dl
  00039	8a 50 02	 mov	 dl, BYTE PTR [eax+2]
  0003c	84 d2		 test	 dl, dl
  0003e	0f 84 ae 01 00
	00		 je	 $LN94@GetIntAttr@5
  00044	b1 eb		 mov	 cl, -21			; ffffffebH
  00046	32 d1		 xor	 dl, cl
  00048	88 55 e6	 mov	 BYTE PTR __k$[ebp+2], dl
  0004b	8a 50 03	 mov	 dl, BYTE PTR [eax+3]
  0004e	84 d2		 test	 dl, dl
  00050	0f 84 96 01 00
	00		 je	 $LN93@GetIntAttr@5
  00056	80 f2 ea	 xor	 dl, -22			; ffffffeaH
  00059	88 55 e7	 mov	 BYTE PTR __k$[ebp+3], dl
  0005c	8a 50 04	 mov	 dl, BYTE PTR [eax+4]
  0005f	84 d2		 test	 dl, dl
  00061	0f 84 7f 01 00
	00		 je	 $LN92@GetIntAttr@5
  00067	80 f2 ed	 xor	 dl, -19			; ffffffedH
  0006a	88 55 e8	 mov	 BYTE PTR __k$[ebp+4], dl
  0006d	8a 50 05	 mov	 dl, BYTE PTR [eax+5]
  00070	84 d2		 test	 dl, dl
  00072	0f 84 69 01 00
	00		 je	 $LN91@GetIntAttr@5
  00078	32 d3		 xor	 dl, bl
  0007a	88 55 e9	 mov	 BYTE PTR __k$[ebp+5], dl
  0007d	8a 50 06	 mov	 dl, BYTE PTR [eax+6]
  00080	84 d2		 test	 dl, dl
  00082	0f 84 54 01 00
	00		 je	 $LN90@GetIntAttr@5
  00088	32 d1		 xor	 dl, cl
  0008a	88 55 ea	 mov	 BYTE PTR __k$[ebp+6], dl
  0008d	8a 50 07	 mov	 dl, BYTE PTR [eax+7]
  00090	84 d2		 test	 dl, dl
  00092	0f 84 3e 01 00
	00		 je	 $LN89@GetIntAttr@5
  00098	80 f2 ea	 xor	 dl, -22			; ffffffeaH
  0009b	88 55 eb	 mov	 BYTE PTR __k$[ebp+7], dl
  0009e	8a 50 08	 mov	 dl, BYTE PTR [eax+8]
  000a1	84 d2		 test	 dl, dl
  000a3	0f 84 27 01 00
	00		 je	 $LN88@GetIntAttr@5
  000a9	80 f2 ed	 xor	 dl, -19			; ffffffedH
  000ac	88 55 ec	 mov	 BYTE PTR __k$[ebp+8], dl
  000af	8a 50 09	 mov	 dl, BYTE PTR [eax+9]
  000b2	84 d2		 test	 dl, dl
  000b4	0f 84 11 01 00
	00		 je	 $LN87@GetIntAttr@5
  000ba	32 d3		 xor	 dl, bl
  000bc	88 55 ed	 mov	 BYTE PTR __k$[ebp+9], dl
  000bf	8a 50 0a	 mov	 dl, BYTE PTR [eax+10]
  000c2	84 d2		 test	 dl, dl
  000c4	0f 84 fc 00 00
	00		 je	 $LN86@GetIntAttr@5
  000ca	32 d1		 xor	 dl, cl
  000cc	88 55 ee	 mov	 BYTE PTR __k$[ebp+10], dl
  000cf	8a 50 0b	 mov	 dl, BYTE PTR [eax+11]
  000d2	84 d2		 test	 dl, dl
  000d4	0f 84 e6 00 00
	00		 je	 $LN85@GetIntAttr@5
  000da	80 f2 ea	 xor	 dl, -22			; ffffffeaH
  000dd	88 55 ef	 mov	 BYTE PTR __k$[ebp+11], dl
  000e0	8a 50 0c	 mov	 dl, BYTE PTR [eax+12]
  000e3	84 d2		 test	 dl, dl
  000e5	0f 84 cf 00 00
	00		 je	 $LN84@GetIntAttr@5
  000eb	80 f2 ed	 xor	 dl, -19			; ffffffedH
  000ee	88 55 f0	 mov	 BYTE PTR __k$[ebp+12], dl
  000f1	8a 50 0d	 mov	 dl, BYTE PTR [eax+13]
  000f4	84 d2		 test	 dl, dl
  000f6	0f 84 b9 00 00
	00		 je	 $LN83@GetIntAttr@5
  000fc	32 d3		 xor	 dl, bl
  000fe	88 55 f1	 mov	 BYTE PTR __k$[ebp+13], dl
  00101	8a 50 0e	 mov	 dl, BYTE PTR [eax+14]
  00104	84 d2		 test	 dl, dl
  00106	0f 84 a4 00 00
	00		 je	 $LN82@GetIntAttr@5
  0010c	32 d1		 xor	 dl, cl
  0010e	88 55 f2	 mov	 BYTE PTR __k$[ebp+14], dl
  00111	8a 50 0f	 mov	 dl, BYTE PTR [eax+15]
  00114	84 d2		 test	 dl, dl
  00116	0f 84 8e 00 00
	00		 je	 $LN81@GetIntAttr@5
  0011c	80 f2 ea	 xor	 dl, -22			; ffffffeaH
  0011f	88 55 f3	 mov	 BYTE PTR __k$[ebp+15], dl
  00122	8a 50 10	 mov	 dl, BYTE PTR [eax+16]
  00125	84 d2		 test	 dl, dl
  00127	74 7b		 je	 SHORT $LN80@GetIntAttr@5
  00129	80 f2 ed	 xor	 dl, -19			; ffffffedH
  0012c	88 55 f4	 mov	 BYTE PTR __k$[ebp+16], dl
  0012f	8a 50 11	 mov	 dl, BYTE PTR [eax+17]
  00132	84 d2		 test	 dl, dl
  00134	74 69		 je	 SHORT $LN79@GetIntAttr@5
  00136	32 d3		 xor	 dl, bl
  00138	88 55 f5	 mov	 BYTE PTR __k$[ebp+17], dl
  0013b	8a 50 12	 mov	 dl, BYTE PTR [eax+18]
  0013e	84 d2		 test	 dl, dl
  00140	74 58		 je	 SHORT $LN78@GetIntAttr@5
  00142	32 d1		 xor	 dl, cl
  00144	80 78 13 00	 cmp	 BYTE PTR [eax+19], 0
  00148	88 55 f6	 mov	 BYTE PTR __k$[ebp+18], dl
  0014b	0f 84 b1 00 00
	00		 je	 $LN1@GetIntAttr@5
  00151	8a 50 14	 mov	 dl, BYTE PTR [eax+20]
  00154	84 d2		 test	 dl, dl
  00156	74 3c		 je	 SHORT $LN76@GetIntAttr@5
  00158	80 f2 ed	 xor	 dl, -19			; ffffffedH
  0015b	88 55 f8	 mov	 BYTE PTR __k$[ebp+20], dl
  0015e	8a 50 15	 mov	 dl, BYTE PTR [eax+21]
  00161	84 d2		 test	 dl, dl
  00163	74 2a		 je	 SHORT $LN75@GetIntAttr@5
  00165	32 d3		 xor	 dl, bl
  00167	88 55 f9	 mov	 BYTE PTR __k$[ebp+21], dl
  0016a	8a 50 16	 mov	 dl, BYTE PTR [eax+22]
  0016d	84 d2		 test	 dl, dl
  0016f	74 19		 je	 SHORT $LN74@GetIntAttr@5
  00171	8a 40 17	 mov	 al, BYTE PTR [eax+23]
  00174	32 d1		 xor	 dl, cl
  00176	88 55 fa	 mov	 BYTE PTR __k$[ebp+22], dl
  00179	84 c0		 test	 al, al
  0017b	74 07		 je	 SHORT $LN73@GetIntAttr@5
  0017d	34 ea		 xor	 al, -22			; ffffffeaH
  0017f	88 45 fb	 mov	 BYTE PTR __k$[ebp+23], al
  00182	eb 7e		 jmp	 SHORT $LN1@GetIntAttr@5
$LN73@GetIntAttr@5:
  00184	c6 45 fb ea	 mov	 BYTE PTR __k$[ebp+23], -22 ; ffffffeaH
  00188	eb 78		 jmp	 SHORT $LN1@GetIntAttr@5
$LN74@GetIntAttr@5:
  0018a	88 4d fa	 mov	 BYTE PTR __k$[ebp+22], cl
  0018d	eb 73		 jmp	 SHORT $LN1@GetIntAttr@5
$LN75@GetIntAttr@5:
  0018f	88 5d f9	 mov	 BYTE PTR __k$[ebp+21], bl
  00192	eb 6e		 jmp	 SHORT $LN1@GetIntAttr@5
$LN76@GetIntAttr@5:
  00194	c6 45 f8 ed	 mov	 BYTE PTR __k$[ebp+20], -19 ; ffffffedH
  00198	eb 68		 jmp	 SHORT $LN1@GetIntAttr@5
$LN78@GetIntAttr@5:
  0019a	88 4d f6	 mov	 BYTE PTR __k$[ebp+18], cl
  0019d	eb 63		 jmp	 SHORT $LN1@GetIntAttr@5
$LN79@GetIntAttr@5:
  0019f	88 5d f5	 mov	 BYTE PTR __k$[ebp+17], bl
  001a2	eb 5e		 jmp	 SHORT $LN1@GetIntAttr@5
$LN80@GetIntAttr@5:
  001a4	c6 45 f4 ed	 mov	 BYTE PTR __k$[ebp+16], -19 ; ffffffedH
  001a8	eb 58		 jmp	 SHORT $LN1@GetIntAttr@5
$LN81@GetIntAttr@5:
  001aa	c6 45 f3 ea	 mov	 BYTE PTR __k$[ebp+15], -22 ; ffffffeaH
  001ae	eb 52		 jmp	 SHORT $LN1@GetIntAttr@5
$LN82@GetIntAttr@5:
  001b0	88 4d f2	 mov	 BYTE PTR __k$[ebp+14], cl
  001b3	eb 4d		 jmp	 SHORT $LN1@GetIntAttr@5
$LN83@GetIntAttr@5:
  001b5	88 5d f1	 mov	 BYTE PTR __k$[ebp+13], bl
  001b8	eb 48		 jmp	 SHORT $LN1@GetIntAttr@5
$LN84@GetIntAttr@5:
  001ba	c6 45 f0 ed	 mov	 BYTE PTR __k$[ebp+12], -19 ; ffffffedH
  001be	eb 42		 jmp	 SHORT $LN1@GetIntAttr@5
$LN85@GetIntAttr@5:
  001c0	c6 45 ef ea	 mov	 BYTE PTR __k$[ebp+11], -22 ; ffffffeaH
  001c4	eb 3c		 jmp	 SHORT $LN1@GetIntAttr@5
$LN86@GetIntAttr@5:
  001c6	88 4d ee	 mov	 BYTE PTR __k$[ebp+10], cl
  001c9	eb 37		 jmp	 SHORT $LN1@GetIntAttr@5
$LN87@GetIntAttr@5:
  001cb	88 5d ed	 mov	 BYTE PTR __k$[ebp+9], bl
  001ce	eb 32		 jmp	 SHORT $LN1@GetIntAttr@5
$LN88@GetIntAttr@5:
  001d0	c6 45 ec ed	 mov	 BYTE PTR __k$[ebp+8], -19 ; ffffffedH
  001d4	eb 2c		 jmp	 SHORT $LN1@GetIntAttr@5
$LN89@GetIntAttr@5:
  001d6	c6 45 eb ea	 mov	 BYTE PTR __k$[ebp+7], -22 ; ffffffeaH
  001da	eb 26		 jmp	 SHORT $LN1@GetIntAttr@5
$LN90@GetIntAttr@5:
  001dc	88 4d ea	 mov	 BYTE PTR __k$[ebp+6], cl
  001df	eb 21		 jmp	 SHORT $LN1@GetIntAttr@5
$LN91@GetIntAttr@5:
  001e1	88 5d e9	 mov	 BYTE PTR __k$[ebp+5], bl
  001e4	eb 1c		 jmp	 SHORT $LN1@GetIntAttr@5
$LN92@GetIntAttr@5:
  001e6	c6 45 e8 ed	 mov	 BYTE PTR __k$[ebp+4], -19 ; ffffffedH
  001ea	eb 16		 jmp	 SHORT $LN1@GetIntAttr@5
$LN93@GetIntAttr@5:
  001ec	c6 45 e7 ea	 mov	 BYTE PTR __k$[ebp+3], -22 ; ffffffeaH
  001f0	eb 10		 jmp	 SHORT $LN1@GetIntAttr@5
$LN94@GetIntAttr@5:
  001f2	c6 45 e6 eb	 mov	 BYTE PTR __k$[ebp+2], -21 ; ffffffebH
  001f6	eb 0a		 jmp	 SHORT $LN1@GetIntAttr@5
$LN95@GetIntAttr@5:
  001f8	c6 45 e5 ec	 mov	 BYTE PTR __k$[ebp+1], -20 ; ffffffecH
  001fc	eb 04		 jmp	 SHORT $LN1@GetIntAttr@5
$LN96@GetIntAttr@5:
  001fe	c6 45 e4 ed	 mov	 BYTE PTR __k$[ebp], -19	; ffffffedH
$LN1@GetIntAttr@5:
  00202	6a 04		 push	 4
  00204	8d 45 e4	 lea	 eax, DWORD PTR __k$[ebp]
  00207	c6 45 f7 00	 mov	 BYTE PTR __k$[ebp+19], 0
  0020b	5a		 pop	 edx
$LL104@GetIntAttr@5:
  0020c	81 30 ed ec eb
	ea		 xor	 DWORD PTR [eax], -353637139 ; eaebecedH
  00212	83 c0 04	 add	 eax, 4
  00215	4a		 dec	 edx
  00216	75 f4		 jne	 SHORT $LL104@GetIntAttr@5
  00218	6a 10		 push	 16			; 00000010H
  0021a	58		 pop	 eax
$LL101@GetIntAttr@5:
  0021b	8b c8		 mov	 ecx, eax
  0021d	81 e1 03 00 00
	80		 and	 ecx, -2147483645	; 80000003H
  00223	79 05		 jns	 SHORT $LN111@GetIntAttr@5
  00225	49		 dec	 ecx
  00226	83 c9 fc	 or	 ecx, -4			; fffffffcH
  00229	41		 inc	 ecx
$LN111@GetIntAttr@5:
  0022a	b2 ed		 mov	 dl, -19			; ffffffedH
  0022c	2a d1		 sub	 dl, cl
  0022e	30 54 05 e4	 xor	 BYTE PTR __k$[ebp+eax], dl
  00232	40		 inc	 eax
  00233	83 f8 13	 cmp	 eax, 19			; 00000013H
  00236	7c e3		 jl	 SHORT $LL101@GetIntAttr@5

; 88   : 		return GetIntAttribute(_k);

  00238	8d 45 e4	 lea	 eax, DWORD PTR __k$[ebp]
  0023b	50		 push	 eax
  0023c	8b ce		 mov	 ecx, esi
  0023e	ff 15 00 00 00
	00		 call	 DWORD PTR __imp_?GetIntAttribute@ioXMLElement@@QBEHPBD@Z

; 89   : 	}

  00244	8b 4d fc	 mov	 ecx, DWORD PTR __$ArrayPad$[ebp]
  00247	5e		 pop	 esi
  00248	33 cd		 xor	 ecx, ebp
  0024a	5b		 pop	 ebx
  0024b	e8 00 00 00 00	 call	 @__security_check_cookie@4
  00250	c9		 leave
  00251	c2 04 00	 ret	 4
??$GetIntAttribute_e@$0BE@@ioXMLElement@@QBEHAAY0BE@$$CBD@Z ENDP ; ioXMLElement::GetIntAttribute_e<20>
_TEXT	ENDS
PUBLIC	__$ArrayPad$
PUBLIC	??$GetIntAttribute_e@$0BB@@ioXMLElement@@QBEHAAY0BB@$$CBD@Z ; ioXMLElement::GetIntAttribute_e<17>
; Function compile flags: /Ogsp
;	COMDAT ??$GetIntAttribute_e@$0BB@@ioXMLElement@@QBEHAAY0BB@$$CBD@Z
_TEXT	SEGMENT
__k$ = -28						; size = 17
__$ArrayPad$ = -4					; size = 4
_k$ = 8							; size = 4
??$GetIntAttribute_e@$0BB@@ioXMLElement@@QBEHAAY0BB@$$CBD@Z PROC ; ioXMLElement::GetIntAttribute_e<17>, COMDAT
; _this$ = ecx

; 86   : 	{

  00000	55		 push	 ebp
  00001	8b ec		 mov	 ebp, esp
  00003	83 ec 1c	 sub	 esp, 28			; 0000001cH
  00006	a1 00 00 00 00	 mov	 eax, DWORD PTR ___security_cookie
  0000b	33 c5		 xor	 eax, ebp
  0000d	89 45 fc	 mov	 DWORD PTR __$ArrayPad$[ebp], eax
  00010	8b 45 08	 mov	 eax, DWORD PTR _k$[ebp]

; 87   : 		_ENCSTR(k, _k);

  00013	8a 10		 mov	 dl, BYTE PTR [eax]
  00015	56		 push	 esi
  00016	8b f1		 mov	 esi, ecx
  00018	84 d2		 test	 dl, dl
  0001a	0f 84 a7 01 00
	00		 je	 $LN96@GetIntAttr@6
  00020	80 f2 ed	 xor	 dl, -19			; ffffffedH
  00023	88 55 e4	 mov	 BYTE PTR __k$[ebp], dl
  00026	8a 50 01	 mov	 dl, BYTE PTR [eax+1]
  00029	84 d2		 test	 dl, dl
  0002b	0f 84 90 01 00
	00		 je	 $LN95@GetIntAttr@6
  00031	b1 ec		 mov	 cl, -20			; ffffffecH
  00033	32 d1		 xor	 dl, cl
  00035	88 55 e5	 mov	 BYTE PTR __k$[ebp+1], dl
  00038	8a 50 02	 mov	 dl, BYTE PTR [eax+2]
  0003b	84 d2		 test	 dl, dl
  0003d	0f 84 78 01 00
	00		 je	 $LN94@GetIntAttr@6
  00043	80 f2 eb	 xor	 dl, -21			; ffffffebH
  00046	88 55 e6	 mov	 BYTE PTR __k$[ebp+2], dl
  00049	8a 50 03	 mov	 dl, BYTE PTR [eax+3]
  0004c	84 d2		 test	 dl, dl
  0004e	0f 84 61 01 00
	00		 je	 $LN93@GetIntAttr@6
  00054	80 f2 ea	 xor	 dl, -22			; ffffffeaH
  00057	88 55 e7	 mov	 BYTE PTR __k$[ebp+3], dl
  0005a	8a 50 04	 mov	 dl, BYTE PTR [eax+4]
  0005d	84 d2		 test	 dl, dl
  0005f	0f 84 4a 01 00
	00		 je	 $LN92@GetIntAttr@6
  00065	80 f2 ed	 xor	 dl, -19			; ffffffedH
  00068	88 55 e8	 mov	 BYTE PTR __k$[ebp+4], dl
  0006b	8a 50 05	 mov	 dl, BYTE PTR [eax+5]
  0006e	84 d2		 test	 dl, dl
  00070	0f 84 34 01 00
	00		 je	 $LN91@GetIntAttr@6
  00076	32 d1		 xor	 dl, cl
  00078	88 55 e9	 mov	 BYTE PTR __k$[ebp+5], dl
  0007b	8a 50 06	 mov	 dl, BYTE PTR [eax+6]
  0007e	84 d2		 test	 dl, dl
  00080	0f 84 1e 01 00
	00		 je	 $LN90@GetIntAttr@6
  00086	80 f2 eb	 xor	 dl, -21			; ffffffebH
  00089	88 55 ea	 mov	 BYTE PTR __k$[ebp+6], dl
  0008c	8a 50 07	 mov	 dl, BYTE PTR [eax+7]
  0008f	84 d2		 test	 dl, dl
  00091	0f 84 07 01 00
	00		 je	 $LN89@GetIntAttr@6
  00097	80 f2 ea	 xor	 dl, -22			; ffffffeaH
  0009a	88 55 eb	 mov	 BYTE PTR __k$[ebp+7], dl
  0009d	8a 50 08	 mov	 dl, BYTE PTR [eax+8]
  000a0	84 d2		 test	 dl, dl
  000a2	0f 84 f0 00 00
	00		 je	 $LN88@GetIntAttr@6
  000a8	80 f2 ed	 xor	 dl, -19			; ffffffedH
  000ab	88 55 ec	 mov	 BYTE PTR __k$[ebp+8], dl
  000ae	8a 50 09	 mov	 dl, BYTE PTR [eax+9]
  000b1	84 d2		 test	 dl, dl
  000b3	0f 84 da 00 00
	00		 je	 $LN87@GetIntAttr@6
  000b9	32 d1		 xor	 dl, cl
  000bb	88 55 ed	 mov	 BYTE PTR __k$[ebp+9], dl
  000be	8a 50 0a	 mov	 dl, BYTE PTR [eax+10]
  000c1	84 d2		 test	 dl, dl
  000c3	0f 84 c4 00 00
	00		 je	 $LN86@GetIntAttr@6
  000c9	80 f2 eb	 xor	 dl, -21			; ffffffebH
  000cc	88 55 ee	 mov	 BYTE PTR __k$[ebp+10], dl
  000cf	8a 50 0b	 mov	 dl, BYTE PTR [eax+11]
  000d2	84 d2		 test	 dl, dl
  000d4	0f 84 ad 00 00
	00		 je	 $LN85@GetIntAttr@6
  000da	80 f2 ea	 xor	 dl, -22			; ffffffeaH
  000dd	88 55 ef	 mov	 BYTE PTR __k$[ebp+11], dl
  000e0	8a 50 0c	 mov	 dl, BYTE PTR [eax+12]
  000e3	84 d2		 test	 dl, dl
  000e5	0f 84 96 00 00
	00		 je	 $LN84@GetIntAttr@6
  000eb	80 f2 ed	 xor	 dl, -19			; ffffffedH
  000ee	88 55 f0	 mov	 BYTE PTR __k$[ebp+12], dl
  000f1	8a 50 0d	 mov	 dl, BYTE PTR [eax+13]
  000f4	84 d2		 test	 dl, dl
  000f6	0f 84 80 00 00
	00		 je	 $LN83@GetIntAttr@6
  000fc	32 d1		 xor	 dl, cl
  000fe	88 55 f1	 mov	 BYTE PTR __k$[ebp+13], dl
  00101	8a 50 0e	 mov	 dl, BYTE PTR [eax+14]
  00104	84 d2		 test	 dl, dl
  00106	74 6e		 je	 SHORT $LN82@GetIntAttr@6
  00108	80 f2 eb	 xor	 dl, -21			; ffffffebH
  0010b	88 55 f2	 mov	 BYTE PTR __k$[ebp+14], dl
  0010e	8a 50 0f	 mov	 dl, BYTE PTR [eax+15]
  00111	84 d2		 test	 dl, dl
  00113	74 5b		 je	 SHORT $LN81@GetIntAttr@6
  00115	80 f2 ea	 xor	 dl, -22			; ffffffeaH
  00118	80 78 10 00	 cmp	 BYTE PTR [eax+16], 0
  0011c	88 55 f3	 mov	 BYTE PTR __k$[ebp+15], dl
  0011f	0f 84 a6 00 00
	00		 je	 $LN1@GetIntAttr@6
  00125	8a 50 11	 mov	 dl, BYTE PTR [eax+17]
  00128	84 d2		 test	 dl, dl
  0012a	74 3f		 je	 SHORT $LN79@GetIntAttr@6
  0012c	32 d1		 xor	 dl, cl
  0012e	88 55 f5	 mov	 BYTE PTR __k$[ebp+17], dl
  00131	8a 50 12	 mov	 dl, BYTE PTR [eax+18]
  00134	84 d2		 test	 dl, dl
  00136	74 2d		 je	 SHORT $LN78@GetIntAttr@6
  00138	80 f2 eb	 xor	 dl, -21			; ffffffebH
  0013b	88 55 f6	 mov	 BYTE PTR __k$[ebp+18], dl
  0013e	8a 50 13	 mov	 dl, BYTE PTR [eax+19]
  00141	84 d2		 test	 dl, dl
  00143	74 1a		 je	 SHORT $LN77@GetIntAttr@6
  00145	8a 40 14	 mov	 al, BYTE PTR [eax+20]
  00148	80 f2 ea	 xor	 dl, -22			; ffffffeaH
  0014b	88 55 f7	 mov	 BYTE PTR __k$[ebp+19], dl
  0014e	84 c0		 test	 al, al
  00150	74 07		 je	 SHORT $LN76@GetIntAttr@6
  00152	34 ed		 xor	 al, -19			; ffffffedH
  00154	88 45 f8	 mov	 BYTE PTR __k$[ebp+20], al
  00157	eb 72		 jmp	 SHORT $LN1@GetIntAttr@6
$LN76@GetIntAttr@6:
  00159	c6 45 f8 ed	 mov	 BYTE PTR __k$[ebp+20], -19 ; ffffffedH
  0015d	eb 6c		 jmp	 SHORT $LN1@GetIntAttr@6
$LN77@GetIntAttr@6:
  0015f	c6 45 f7 ea	 mov	 BYTE PTR __k$[ebp+19], -22 ; ffffffeaH
  00163	eb 66		 jmp	 SHORT $LN1@GetIntAttr@6
$LN78@GetIntAttr@6:
  00165	c6 45 f6 eb	 mov	 BYTE PTR __k$[ebp+18], -21 ; ffffffebH
  00169	eb 60		 jmp	 SHORT $LN1@GetIntAttr@6
$LN79@GetIntAttr@6:
  0016b	88 4d f5	 mov	 BYTE PTR __k$[ebp+17], cl
  0016e	eb 5b		 jmp	 SHORT $LN1@GetIntAttr@6
$LN81@GetIntAttr@6:
  00170	c6 45 f3 ea	 mov	 BYTE PTR __k$[ebp+15], -22 ; ffffffeaH
  00174	eb 55		 jmp	 SHORT $LN1@GetIntAttr@6
$LN82@GetIntAttr@6:
  00176	c6 45 f2 eb	 mov	 BYTE PTR __k$[ebp+14], -21 ; ffffffebH
  0017a	eb 4f		 jmp	 SHORT $LN1@GetIntAttr@6
$LN83@GetIntAttr@6:
  0017c	88 4d f1	 mov	 BYTE PTR __k$[ebp+13], cl
  0017f	eb 4a		 jmp	 SHORT $LN1@GetIntAttr@6
$LN84@GetIntAttr@6:
  00181	c6 45 f0 ed	 mov	 BYTE PTR __k$[ebp+12], -19 ; ffffffedH
  00185	eb 44		 jmp	 SHORT $LN1@GetIntAttr@6
$LN85@GetIntAttr@6:
  00187	c6 45 ef ea	 mov	 BYTE PTR __k$[ebp+11], -22 ; ffffffeaH
  0018b	eb 3e		 jmp	 SHORT $LN1@GetIntAttr@6
$LN86@GetIntAttr@6:
  0018d	c6 45 ee eb	 mov	 BYTE PTR __k$[ebp+10], -21 ; ffffffebH
  00191	eb 38		 jmp	 SHORT $LN1@GetIntAttr@6
$LN87@GetIntAttr@6:
  00193	88 4d ed	 mov	 BYTE PTR __k$[ebp+9], cl
  00196	eb 33		 jmp	 SHORT $LN1@GetIntAttr@6
$LN88@GetIntAttr@6:
  00198	c6 45 ec ed	 mov	 BYTE PTR __k$[ebp+8], -19 ; ffffffedH
  0019c	eb 2d		 jmp	 SHORT $LN1@GetIntAttr@6
$LN89@GetIntAttr@6:
  0019e	c6 45 eb ea	 mov	 BYTE PTR __k$[ebp+7], -22 ; ffffffeaH
  001a2	eb 27		 jmp	 SHORT $LN1@GetIntAttr@6
$LN90@GetIntAttr@6:
  001a4	c6 45 ea eb	 mov	 BYTE PTR __k$[ebp+6], -21 ; ffffffebH
  001a8	eb 21		 jmp	 SHORT $LN1@GetIntAttr@6
$LN91@GetIntAttr@6:
  001aa	88 4d e9	 mov	 BYTE PTR __k$[ebp+5], cl
  001ad	eb 1c		 jmp	 SHORT $LN1@GetIntAttr@6
$LN92@GetIntAttr@6:
  001af	c6 45 e8 ed	 mov	 BYTE PTR __k$[ebp+4], -19 ; ffffffedH
  001b3	eb 16		 jmp	 SHORT $LN1@GetIntAttr@6
$LN93@GetIntAttr@6:
  001b5	c6 45 e7 ea	 mov	 BYTE PTR __k$[ebp+3], -22 ; ffffffeaH
  001b9	eb 10		 jmp	 SHORT $LN1@GetIntAttr@6
$LN94@GetIntAttr@6:
  001bb	c6 45 e6 eb	 mov	 BYTE PTR __k$[ebp+2], -21 ; ffffffebH
  001bf	eb 0a		 jmp	 SHORT $LN1@GetIntAttr@6
$LN95@GetIntAttr@6:
  001c1	c6 45 e5 ec	 mov	 BYTE PTR __k$[ebp+1], -20 ; ffffffecH
  001c5	eb 04		 jmp	 SHORT $LN1@GetIntAttr@6
$LN96@GetIntAttr@6:
  001c7	c6 45 e4 ed	 mov	 BYTE PTR __k$[ebp], -19	; ffffffedH
$LN1@GetIntAttr@6:
  001cb	6a 04		 push	 4
  001cd	8d 45 e4	 lea	 eax, DWORD PTR __k$[ebp]
  001d0	c6 45 f4 00	 mov	 BYTE PTR __k$[ebp+16], 0
  001d4	5a		 pop	 edx
$LL104@GetIntAttr@6:
  001d5	81 30 ed ec eb
	ea		 xor	 DWORD PTR [eax], -353637139 ; eaebecedH
  001db	83 c0 04	 add	 eax, 4
  001de	4a		 dec	 edx
  001df	75 f4		 jne	 SHORT $LL104@GetIntAttr@6

; 88   : 		return GetIntAttribute(_k);

  001e1	8d 45 e4	 lea	 eax, DWORD PTR __k$[ebp]
  001e4	50		 push	 eax
  001e5	8b ce		 mov	 ecx, esi
  001e7	ff 15 00 00 00
	00		 call	 DWORD PTR __imp_?GetIntAttribute@ioXMLElement@@QBEHPBD@Z

; 89   : 	}

  001ed	8b 4d fc	 mov	 ecx, DWORD PTR __$ArrayPad$[ebp]
  001f0	33 cd		 xor	 ecx, ebp
  001f2	5e		 pop	 esi
  001f3	e8 00 00 00 00	 call	 @__security_check_cookie@4
  001f8	c9		 leave
  001f9	c2 04 00	 ret	 4
??$GetIntAttribute_e@$0BB@@ioXMLElement@@QBEHAAY0BB@$$CBD@Z ENDP ; ioXMLElement::GetIntAttribute_e<17>
_TEXT	ENDS
PUBLIC	__$ArrayPad$
PUBLIC	??$GetIntAttribute_e@$0P@@ioXMLElement@@QBEHAAY0P@$$CBD@Z ; ioXMLElement::GetIntAttribute_e<15>
; Function compile flags: /Ogsp
;	COMDAT ??$GetIntAttribute_e@$0P@@ioXMLElement@@QBEHAAY0P@$$CBD@Z
_TEXT	SEGMENT
__k$ = -24						; size = 15
__$ArrayPad$ = -4					; size = 4
_k$ = 8							; size = 4
??$GetIntAttribute_e@$0P@@ioXMLElement@@QBEHAAY0P@$$CBD@Z PROC ; ioXMLElement::GetIntAttribute_e<15>, COMDAT
; _this$ = ecx

; 86   : 	{

  00000	55		 push	 ebp
  00001	8b ec		 mov	 ebp, esp
  00003	83 ec 18	 sub	 esp, 24			; 00000018H
  00006	a1 00 00 00 00	 mov	 eax, DWORD PTR ___security_cookie
  0000b	33 c5		 xor	 eax, ebp
  0000d	89 45 fc	 mov	 DWORD PTR __$ArrayPad$[ebp], eax
  00010	8b 45 08	 mov	 eax, DWORD PTR _k$[ebp]

; 87   : 		_ENCSTR(k, _k);

  00013	8a 10		 mov	 dl, BYTE PTR [eax]
  00015	56		 push	 esi
  00016	8b f1		 mov	 esi, ecx
  00018	84 d2		 test	 dl, dl
  0001a	0f 84 75 01 00
	00		 je	 $LN96@GetIntAttr@7
  00020	80 f2 ed	 xor	 dl, -19			; ffffffedH
  00023	88 55 e8	 mov	 BYTE PTR __k$[ebp], dl
  00026	8a 50 01	 mov	 dl, BYTE PTR [eax+1]
  00029	84 d2		 test	 dl, dl
  0002b	0f 84 5e 01 00
	00		 je	 $LN95@GetIntAttr@7
  00031	b1 ec		 mov	 cl, -20			; ffffffecH
  00033	32 d1		 xor	 dl, cl
  00035	88 55 e9	 mov	 BYTE PTR __k$[ebp+1], dl
  00038	8a 50 02	 mov	 dl, BYTE PTR [eax+2]
  0003b	84 d2		 test	 dl, dl
  0003d	0f 84 46 01 00
	00		 je	 $LN94@GetIntAttr@7
  00043	80 f2 eb	 xor	 dl, -21			; ffffffebH
  00046	88 55 ea	 mov	 BYTE PTR __k$[ebp+2], dl
  00049	8a 50 03	 mov	 dl, BYTE PTR [eax+3]
  0004c	84 d2		 test	 dl, dl
  0004e	0f 84 2f 01 00
	00		 je	 $LN93@GetIntAttr@7
  00054	80 f2 ea	 xor	 dl, -22			; ffffffeaH
  00057	88 55 eb	 mov	 BYTE PTR __k$[ebp+3], dl
  0005a	8a 50 04	 mov	 dl, BYTE PTR [eax+4]
  0005d	84 d2		 test	 dl, dl
  0005f	0f 84 18 01 00
	00		 je	 $LN92@GetIntAttr@7
  00065	80 f2 ed	 xor	 dl, -19			; ffffffedH
  00068	88 55 ec	 mov	 BYTE PTR __k$[ebp+4], dl
  0006b	8a 50 05	 mov	 dl, BYTE PTR [eax+5]
  0006e	84 d2		 test	 dl, dl
  00070	0f 84 02 01 00
	00		 je	 $LN91@GetIntAttr@7
  00076	32 d1		 xor	 dl, cl
  00078	88 55 ed	 mov	 BYTE PTR __k$[ebp+5], dl
  0007b	8a 50 06	 mov	 dl, BYTE PTR [eax+6]
  0007e	84 d2		 test	 dl, dl
  00080	0f 84 ec 00 00
	00		 je	 $LN90@GetIntAttr@7
  00086	80 f2 eb	 xor	 dl, -21			; ffffffebH
  00089	88 55 ee	 mov	 BYTE PTR __k$[ebp+6], dl
  0008c	8a 50 07	 mov	 dl, BYTE PTR [eax+7]
  0008f	84 d2		 test	 dl, dl
  00091	0f 84 d5 00 00
	00		 je	 $LN89@GetIntAttr@7
  00097	80 f2 ea	 xor	 dl, -22			; ffffffeaH
  0009a	88 55 ef	 mov	 BYTE PTR __k$[ebp+7], dl
  0009d	8a 50 08	 mov	 dl, BYTE PTR [eax+8]
  000a0	84 d2		 test	 dl, dl
  000a2	0f 84 be 00 00
	00		 je	 $LN88@GetIntAttr@7
  000a8	80 f2 ed	 xor	 dl, -19			; ffffffedH
  000ab	88 55 f0	 mov	 BYTE PTR __k$[ebp+8], dl
  000ae	8a 50 09	 mov	 dl, BYTE PTR [eax+9]
  000b1	84 d2		 test	 dl, dl
  000b3	0f 84 a8 00 00
	00		 je	 $LN87@GetIntAttr@7
  000b9	32 d1		 xor	 dl, cl
  000bb	88 55 f1	 mov	 BYTE PTR __k$[ebp+9], dl
  000be	8a 50 0a	 mov	 dl, BYTE PTR [eax+10]
  000c1	84 d2		 test	 dl, dl
  000c3	0f 84 92 00 00
	00		 je	 $LN86@GetIntAttr@7
  000c9	80 f2 eb	 xor	 dl, -21			; ffffffebH
  000cc	88 55 f2	 mov	 BYTE PTR __k$[ebp+10], dl
  000cf	8a 50 0b	 mov	 dl, BYTE PTR [eax+11]
  000d2	84 d2		 test	 dl, dl
  000d4	74 7f		 je	 SHORT $LN85@GetIntAttr@7
  000d6	80 f2 ea	 xor	 dl, -22			; ffffffeaH
  000d9	88 55 f3	 mov	 BYTE PTR __k$[ebp+11], dl
  000dc	8a 50 0c	 mov	 dl, BYTE PTR [eax+12]
  000df	84 d2		 test	 dl, dl
  000e1	74 6c		 je	 SHORT $LN84@GetIntAttr@7
  000e3	80 f2 ed	 xor	 dl, -19			; ffffffedH
  000e6	88 55 f4	 mov	 BYTE PTR __k$[ebp+12], dl
  000e9	8a 50 0d	 mov	 dl, BYTE PTR [eax+13]
  000ec	84 d2		 test	 dl, dl
  000ee	74 5a		 je	 SHORT $LN83@GetIntAttr@7
  000f0	32 d1		 xor	 dl, cl
  000f2	80 78 0e 00	 cmp	 BYTE PTR [eax+14], 0
  000f6	88 55 f5	 mov	 BYTE PTR __k$[ebp+13], dl
  000f9	0f 84 9a 00 00
	00		 je	 $LN1@GetIntAttr@7
  000ff	8a 50 0f	 mov	 dl, BYTE PTR [eax+15]
  00102	84 d2		 test	 dl, dl
  00104	74 3e		 je	 SHORT $LN81@GetIntAttr@7
  00106	80 f2 ea	 xor	 dl, -22			; ffffffeaH
  00109	88 55 f7	 mov	 BYTE PTR __k$[ebp+15], dl
  0010c	8a 50 10	 mov	 dl, BYTE PTR [eax+16]
  0010f	84 d2		 test	 dl, dl
  00111	74 2b		 je	 SHORT $LN80@GetIntAttr@7
  00113	80 f2 ed	 xor	 dl, -19			; ffffffedH
  00116	88 55 f8	 mov	 BYTE PTR __k$[ebp+16], dl
  00119	8a 50 11	 mov	 dl, BYTE PTR [eax+17]
  0011c	84 d2		 test	 dl, dl
  0011e	74 19		 je	 SHORT $LN79@GetIntAttr@7
  00120	8a 40 12	 mov	 al, BYTE PTR [eax+18]
  00123	32 d1		 xor	 dl, cl
  00125	88 55 f9	 mov	 BYTE PTR __k$[ebp+17], dl
  00128	84 c0		 test	 al, al
  0012a	74 07		 je	 SHORT $LN78@GetIntAttr@7
  0012c	34 eb		 xor	 al, -21			; ffffffebH
  0012e	88 45 fa	 mov	 BYTE PTR __k$[ebp+18], al
  00131	eb 66		 jmp	 SHORT $LN1@GetIntAttr@7
$LN78@GetIntAttr@7:
  00133	c6 45 fa eb	 mov	 BYTE PTR __k$[ebp+18], -21 ; ffffffebH
  00137	eb 60		 jmp	 SHORT $LN1@GetIntAttr@7
$LN79@GetIntAttr@7:
  00139	88 4d f9	 mov	 BYTE PTR __k$[ebp+17], cl
  0013c	eb 5b		 jmp	 SHORT $LN1@GetIntAttr@7
$LN80@GetIntAttr@7:
  0013e	c6 45 f8 ed	 mov	 BYTE PTR __k$[ebp+16], -19 ; ffffffedH
  00142	eb 55		 jmp	 SHORT $LN1@GetIntAttr@7
$LN81@GetIntAttr@7:
  00144	c6 45 f7 ea	 mov	 BYTE PTR __k$[ebp+15], -22 ; ffffffeaH
  00148	eb 4f		 jmp	 SHORT $LN1@GetIntAttr@7
$LN83@GetIntAttr@7:
  0014a	88 4d f5	 mov	 BYTE PTR __k$[ebp+13], cl
  0014d	eb 4a		 jmp	 SHORT $LN1@GetIntAttr@7
$LN84@GetIntAttr@7:
  0014f	c6 45 f4 ed	 mov	 BYTE PTR __k$[ebp+12], -19 ; ffffffedH
  00153	eb 44		 jmp	 SHORT $LN1@GetIntAttr@7
$LN85@GetIntAttr@7:
  00155	c6 45 f3 ea	 mov	 BYTE PTR __k$[ebp+11], -22 ; ffffffeaH
  00159	eb 3e		 jmp	 SHORT $LN1@GetIntAttr@7
$LN86@GetIntAttr@7:
  0015b	c6 45 f2 eb	 mov	 BYTE PTR __k$[ebp+10], -21 ; ffffffebH
  0015f	eb 38		 jmp	 SHORT $LN1@GetIntAttr@7
$LN87@GetIntAttr@7:
  00161	88 4d f1	 mov	 BYTE PTR __k$[ebp+9], cl
  00164	eb 33		 jmp	 SHORT $LN1@GetIntAttr@7
$LN88@GetIntAttr@7:
  00166	c6 45 f0 ed	 mov	 BYTE PTR __k$[ebp+8], -19 ; ffffffedH
  0016a	eb 2d		 jmp	 SHORT $LN1@GetIntAttr@7
$LN89@GetIntAttr@7:
  0016c	c6 45 ef ea	 mov	 BYTE PTR __k$[ebp+7], -22 ; ffffffeaH
  00170	eb 27		 jmp	 SHORT $LN1@GetIntAttr@7
$LN90@GetIntAttr@7:
  00172	c6 45 ee eb	 mov	 BYTE PTR __k$[ebp+6], -21 ; ffffffebH
  00176	eb 21		 jmp	 SHORT $LN1@GetIntAttr@7
$LN91@GetIntAttr@7:
  00178	88 4d ed	 mov	 BYTE PTR __k$[ebp+5], cl
  0017b	eb 1c		 jmp	 SHORT $LN1@GetIntAttr@7
$LN92@GetIntAttr@7:
  0017d	c6 45 ec ed	 mov	 BYTE PTR __k$[ebp+4], -19 ; ffffffedH
  00181	eb 16		 jmp	 SHORT $LN1@GetIntAttr@7
$LN93@GetIntAttr@7:
  00183	c6 45 eb ea	 mov	 BYTE PTR __k$[ebp+3], -22 ; ffffffeaH
  00187	eb 10		 jmp	 SHORT $LN1@GetIntAttr@7
$LN94@GetIntAttr@7:
  00189	c6 45 ea eb	 mov	 BYTE PTR __k$[ebp+2], -21 ; ffffffebH
  0018d	eb 0a		 jmp	 SHORT $LN1@GetIntAttr@7
$LN95@GetIntAttr@7:
  0018f	c6 45 e9 ec	 mov	 BYTE PTR __k$[ebp+1], -20 ; ffffffecH
  00193	eb 04		 jmp	 SHORT $LN1@GetIntAttr@7
$LN96@GetIntAttr@7:
  00195	c6 45 e8 ed	 mov	 BYTE PTR __k$[ebp], -19	; ffffffedH
$LN1@GetIntAttr@7:
  00199	6a 03		 push	 3
  0019b	8d 45 e8	 lea	 eax, DWORD PTR __k$[ebp]
  0019e	c6 45 f6 00	 mov	 BYTE PTR __k$[ebp+14], 0
  001a2	5a		 pop	 edx
$LL104@GetIntAttr@7:
  001a3	81 30 ed ec eb
	ea		 xor	 DWORD PTR [eax], -353637139 ; eaebecedH
  001a9	83 c0 04	 add	 eax, 4
  001ac	4a		 dec	 edx
  001ad	75 f4		 jne	 SHORT $LL104@GetIntAttr@7
  001af	6a 0c		 push	 12			; 0000000cH
  001b1	58		 pop	 eax
$LL101@GetIntAttr@7:
  001b2	8b c8		 mov	 ecx, eax
  001b4	81 e1 03 00 00
	80		 and	 ecx, -2147483645	; 80000003H
  001ba	79 05		 jns	 SHORT $LN111@GetIntAttr@7
  001bc	49		 dec	 ecx
  001bd	83 c9 fc	 or	 ecx, -4			; fffffffcH
  001c0	41		 inc	 ecx
$LN111@GetIntAttr@7:
  001c1	b2 ed		 mov	 dl, -19			; ffffffedH
  001c3	2a d1		 sub	 dl, cl
  001c5	30 54 05 e8	 xor	 BYTE PTR __k$[ebp+eax], dl
  001c9	40		 inc	 eax
  001ca	83 f8 0e	 cmp	 eax, 14			; 0000000eH
  001cd	7c e3		 jl	 SHORT $LL101@GetIntAttr@7

; 88   : 		return GetIntAttribute(_k);

  001cf	8d 45 e8	 lea	 eax, DWORD PTR __k$[ebp]
  001d2	50		 push	 eax
  001d3	8b ce		 mov	 ecx, esi
  001d5	ff 15 00 00 00
	00		 call	 DWORD PTR __imp_?GetIntAttribute@ioXMLElement@@QBEHPBD@Z

; 89   : 	}

  001db	8b 4d fc	 mov	 ecx, DWORD PTR __$ArrayPad$[ebp]
  001de	33 cd		 xor	 ecx, ebp
  001e0	5e		 pop	 esi
  001e1	e8 00 00 00 00	 call	 @__security_check_cookie@4
  001e6	c9		 leave
  001e7	c2 04 00	 ret	 4
??$GetIntAttribute_e@$0P@@ioXMLElement@@QBEHAAY0P@$$CBD@Z ENDP ; ioXMLElement::GetIntAttribute_e<15>
_TEXT	ENDS
PUBLIC	__$ArrayPad$
PUBLIC	??$GetIntAttribute_e@$0O@@ioXMLElement@@QBEHAAY0O@$$CBD@Z ; ioXMLElement::GetIntAttribute_e<14>
; Function compile flags: /Ogsp
;	COMDAT ??$GetIntAttribute_e@$0O@@ioXMLElement@@QBEHAAY0O@$$CBD@Z
_TEXT	SEGMENT
__k$ = -24						; size = 14
__$ArrayPad$ = -4					; size = 4
_k$ = 8							; size = 4
??$GetIntAttribute_e@$0O@@ioXMLElement@@QBEHAAY0O@$$CBD@Z PROC ; ioXMLElement::GetIntAttribute_e<14>, COMDAT
; _this$ = ecx

; 86   : 	{

  00000	55		 push	 ebp
  00001	8b ec		 mov	 ebp, esp
  00003	83 ec 18	 sub	 esp, 24			; 00000018H
  00006	a1 00 00 00 00	 mov	 eax, DWORD PTR ___security_cookie
  0000b	33 c5		 xor	 eax, ebp
  0000d	89 45 fc	 mov	 DWORD PTR __$ArrayPad$[ebp], eax
  00010	8b 45 08	 mov	 eax, DWORD PTR _k$[ebp]

; 87   : 		_ENCSTR(k, _k);

  00013	8a 10		 mov	 dl, BYTE PTR [eax]
  00015	56		 push	 esi
  00016	8b f1		 mov	 esi, ecx
  00018	84 d2		 test	 dl, dl
  0001a	0f 84 64 01 00
	00		 je	 $LN96@GetIntAttr@8
  00020	80 f2 ed	 xor	 dl, -19			; ffffffedH
  00023	88 55 e8	 mov	 BYTE PTR __k$[ebp], dl
  00026	8a 50 01	 mov	 dl, BYTE PTR [eax+1]
  00029	84 d2		 test	 dl, dl
  0002b	0f 84 4d 01 00
	00		 je	 $LN95@GetIntAttr@8
  00031	80 f2 ec	 xor	 dl, -20			; ffffffecH
  00034	88 55 e9	 mov	 BYTE PTR __k$[ebp+1], dl
  00037	8a 50 02	 mov	 dl, BYTE PTR [eax+2]
  0003a	84 d2		 test	 dl, dl
  0003c	0f 84 36 01 00
	00		 je	 $LN94@GetIntAttr@8
  00042	b1 eb		 mov	 cl, -21			; ffffffebH
  00044	32 d1		 xor	 dl, cl
  00046	88 55 ea	 mov	 BYTE PTR __k$[ebp+2], dl
  00049	8a 50 03	 mov	 dl, BYTE PTR [eax+3]
  0004c	84 d2		 test	 dl, dl
  0004e	0f 84 1e 01 00
	00		 je	 $LN93@GetIntAttr@8
  00054	80 f2 ea	 xor	 dl, -22			; ffffffeaH
  00057	88 55 eb	 mov	 BYTE PTR __k$[ebp+3], dl
  0005a	8a 50 04	 mov	 dl, BYTE PTR [eax+4]
  0005d	84 d2		 test	 dl, dl
  0005f	0f 84 07 01 00
	00		 je	 $LN92@GetIntAttr@8
  00065	80 f2 ed	 xor	 dl, -19			; ffffffedH
  00068	88 55 ec	 mov	 BYTE PTR __k$[ebp+4], dl
  0006b	8a 50 05	 mov	 dl, BYTE PTR [eax+5]
  0006e	84 d2		 test	 dl, dl
  00070	0f 84 f0 00 00
	00		 je	 $LN91@GetIntAttr@8
  00076	80 f2 ec	 xor	 dl, -20			; ffffffecH
  00079	88 55 ed	 mov	 BYTE PTR __k$[ebp+5], dl
  0007c	8a 50 06	 mov	 dl, BYTE PTR [eax+6]
  0007f	84 d2		 test	 dl, dl
  00081	0f 84 da 00 00
	00		 je	 $LN90@GetIntAttr@8
  00087	32 d1		 xor	 dl, cl
  00089	88 55 ee	 mov	 BYTE PTR __k$[ebp+6], dl
  0008c	8a 50 07	 mov	 dl, BYTE PTR [eax+7]
  0008f	84 d2		 test	 dl, dl
  00091	0f 84 c4 00 00
	00		 je	 $LN89@GetIntAttr@8
  00097	80 f2 ea	 xor	 dl, -22			; ffffffeaH
  0009a	88 55 ef	 mov	 BYTE PTR __k$[ebp+7], dl
  0009d	8a 50 08	 mov	 dl, BYTE PTR [eax+8]
  000a0	84 d2		 test	 dl, dl
  000a2	0f 84 ad 00 00
	00		 je	 $LN88@GetIntAttr@8
  000a8	80 f2 ed	 xor	 dl, -19			; ffffffedH
  000ab	88 55 f0	 mov	 BYTE PTR __k$[ebp+8], dl
  000ae	8a 50 09	 mov	 dl, BYTE PTR [eax+9]
  000b1	84 d2		 test	 dl, dl
  000b3	0f 84 96 00 00
	00		 je	 $LN87@GetIntAttr@8
  000b9	80 f2 ec	 xor	 dl, -20			; ffffffecH
  000bc	88 55 f1	 mov	 BYTE PTR __k$[ebp+9], dl
  000bf	8a 50 0a	 mov	 dl, BYTE PTR [eax+10]
  000c2	84 d2		 test	 dl, dl
  000c4	0f 84 80 00 00
	00		 je	 $LN86@GetIntAttr@8
  000ca	32 d1		 xor	 dl, cl
  000cc	88 55 f2	 mov	 BYTE PTR __k$[ebp+10], dl
  000cf	8a 50 0b	 mov	 dl, BYTE PTR [eax+11]
  000d2	84 d2		 test	 dl, dl
  000d4	74 6e		 je	 SHORT $LN85@GetIntAttr@8
  000d6	80 f2 ea	 xor	 dl, -22			; ffffffeaH
  000d9	88 55 f3	 mov	 BYTE PTR __k$[ebp+11], dl
  000dc	8a 50 0c	 mov	 dl, BYTE PTR [eax+12]
  000df	84 d2		 test	 dl, dl
  000e1	74 5b		 je	 SHORT $LN84@GetIntAttr@8
  000e3	80 f2 ed	 xor	 dl, -19			; ffffffedH
  000e6	80 78 0d 00	 cmp	 BYTE PTR [eax+13], 0
  000ea	88 55 f4	 mov	 BYTE PTR __k$[ebp+12], dl
  000ed	0f 84 95 00 00
	00		 je	 $LN1@GetIntAttr@8
  000f3	8a 50 0e	 mov	 dl, BYTE PTR [eax+14]
  000f6	84 d2		 test	 dl, dl
  000f8	74 3f		 je	 SHORT $LN82@GetIntAttr@8
  000fa	32 d1		 xor	 dl, cl
  000fc	88 55 f6	 mov	 BYTE PTR __k$[ebp+14], dl
  000ff	8a 50 0f	 mov	 dl, BYTE PTR [eax+15]
  00102	84 d2		 test	 dl, dl
  00104	74 2d		 je	 SHORT $LN81@GetIntAttr@8
  00106	80 f2 ea	 xor	 dl, -22			; ffffffeaH
  00109	88 55 f7	 mov	 BYTE PTR __k$[ebp+15], dl
  0010c	8a 50 10	 mov	 dl, BYTE PTR [eax+16]
  0010f	84 d2		 test	 dl, dl
  00111	74 1a		 je	 SHORT $LN80@GetIntAttr@8
  00113	8a 40 11	 mov	 al, BYTE PTR [eax+17]
  00116	80 f2 ed	 xor	 dl, -19			; ffffffedH
  00119	88 55 f8	 mov	 BYTE PTR __k$[ebp+16], dl
  0011c	84 c0		 test	 al, al
  0011e	74 07		 je	 SHORT $LN79@GetIntAttr@8
  00120	34 ec		 xor	 al, -20			; ffffffecH
  00122	88 45 f9	 mov	 BYTE PTR __k$[ebp+17], al
  00125	eb 61		 jmp	 SHORT $LN1@GetIntAttr@8
$LN79@GetIntAttr@8:
  00127	c6 45 f9 ec	 mov	 BYTE PTR __k$[ebp+17], -20 ; ffffffecH
  0012b	eb 5b		 jmp	 SHORT $LN1@GetIntAttr@8
$LN80@GetIntAttr@8:
  0012d	c6 45 f8 ed	 mov	 BYTE PTR __k$[ebp+16], -19 ; ffffffedH
  00131	eb 55		 jmp	 SHORT $LN1@GetIntAttr@8
$LN81@GetIntAttr@8:
  00133	c6 45 f7 ea	 mov	 BYTE PTR __k$[ebp+15], -22 ; ffffffeaH
  00137	eb 4f		 jmp	 SHORT $LN1@GetIntAttr@8
$LN82@GetIntAttr@8:
  00139	88 4d f6	 mov	 BYTE PTR __k$[ebp+14], cl
  0013c	eb 4a		 jmp	 SHORT $LN1@GetIntAttr@8
$LN84@GetIntAttr@8:
  0013e	c6 45 f4 ed	 mov	 BYTE PTR __k$[ebp+12], -19 ; ffffffedH
  00142	eb 44		 jmp	 SHORT $LN1@GetIntAttr@8
$LN85@GetIntAttr@8:
  00144	c6 45 f3 ea	 mov	 BYTE PTR __k$[ebp+11], -22 ; ffffffeaH
  00148	eb 3e		 jmp	 SHORT $LN1@GetIntAttr@8
$LN86@GetIntAttr@8:
  0014a	88 4d f2	 mov	 BYTE PTR __k$[ebp+10], cl
  0014d	eb 39		 jmp	 SHORT $LN1@GetIntAttr@8
$LN87@GetIntAttr@8:
  0014f	c6 45 f1 ec	 mov	 BYTE PTR __k$[ebp+9], -20 ; ffffffecH
  00153	eb 33		 jmp	 SHORT $LN1@GetIntAttr@8
$LN88@GetIntAttr@8:
  00155	c6 45 f0 ed	 mov	 BYTE PTR __k$[ebp+8], -19 ; ffffffedH
  00159	eb 2d		 jmp	 SHORT $LN1@GetIntAttr@8
$LN89@GetIntAttr@8:
  0015b	c6 45 ef ea	 mov	 BYTE PTR __k$[ebp+7], -22 ; ffffffeaH
  0015f	eb 27		 jmp	 SHORT $LN1@GetIntAttr@8
$LN90@GetIntAttr@8:
  00161	88 4d ee	 mov	 BYTE PTR __k$[ebp+6], cl
  00164	eb 22		 jmp	 SHORT $LN1@GetIntAttr@8
$LN91@GetIntAttr@8:
  00166	c6 45 ed ec	 mov	 BYTE PTR __k$[ebp+5], -20 ; ffffffecH
  0016a	eb 1c		 jmp	 SHORT $LN1@GetIntAttr@8
$LN92@GetIntAttr@8:
  0016c	c6 45 ec ed	 mov	 BYTE PTR __k$[ebp+4], -19 ; ffffffedH
  00170	eb 16		 jmp	 SHORT $LN1@GetIntAttr@8
$LN93@GetIntAttr@8:
  00172	c6 45 eb ea	 mov	 BYTE PTR __k$[ebp+3], -22 ; ffffffeaH
  00176	eb 10		 jmp	 SHORT $LN1@GetIntAttr@8
$LN94@GetIntAttr@8:
  00178	c6 45 ea eb	 mov	 BYTE PTR __k$[ebp+2], -21 ; ffffffebH
  0017c	eb 0a		 jmp	 SHORT $LN1@GetIntAttr@8
$LN95@GetIntAttr@8:
  0017e	c6 45 e9 ec	 mov	 BYTE PTR __k$[ebp+1], -20 ; ffffffecH
  00182	eb 04		 jmp	 SHORT $LN1@GetIntAttr@8
$LN96@GetIntAttr@8:
  00184	c6 45 e8 ed	 mov	 BYTE PTR __k$[ebp], -19	; ffffffedH
$LN1@GetIntAttr@8:
  00188	6a 03		 push	 3
  0018a	8d 45 e8	 lea	 eax, DWORD PTR __k$[ebp]
  0018d	c6 45 f5 00	 mov	 BYTE PTR __k$[ebp+13], 0
  00191	5a		 pop	 edx
$LL104@GetIntAttr@8:
  00192	81 30 ed ec eb
	ea		 xor	 DWORD PTR [eax], -353637139 ; eaebecedH
  00198	83 c0 04	 add	 eax, 4
  0019b	4a		 dec	 edx
  0019c	75 f4		 jne	 SHORT $LL104@GetIntAttr@8
  0019e	80 75 f4 ed	 xor	 BYTE PTR __k$[ebp+12], -19 ; ffffffedH

; 88   : 		return GetIntAttribute(_k);

  001a2	8d 45 e8	 lea	 eax, DWORD PTR __k$[ebp]
  001a5	50		 push	 eax
  001a6	8b ce		 mov	 ecx, esi
  001a8	ff 15 00 00 00
	00		 call	 DWORD PTR __imp_?GetIntAttribute@ioXMLElement@@QBEHPBD@Z

; 89   : 	}

  001ae	8b 4d fc	 mov	 ecx, DWORD PTR __$ArrayPad$[ebp]
  001b1	33 cd		 xor	 ecx, ebp
  001b3	5e		 pop	 esi
  001b4	e8 00 00 00 00	 call	 @__security_check_cookie@4
  001b9	c9		 leave
  001ba	c2 04 00	 ret	 4
??$GetIntAttribute_e@$0O@@ioXMLElement@@QBEHAAY0O@$$CBD@Z ENDP ; ioXMLElement::GetIntAttribute_e<14>
_TEXT	ENDS
PUBLIC	__$ArrayPad$
PUBLIC	??$GetIntAttribute_e@$0BH@@ioXMLElement@@QBEHAAY0BH@$$CBD@Z ; ioXMLElement::GetIntAttribute_e<23>
; Function compile flags: /Ogsp
;	COMDAT ??$GetIntAttribute_e@$0BH@@ioXMLElement@@QBEHAAY0BH@$$CBD@Z
_TEXT	SEGMENT
__k$ = -32						; size = 23
__$ArrayPad$ = -4					; size = 4
_k$ = 8							; size = 4
??$GetIntAttribute_e@$0BH@@ioXMLElement@@QBEHAAY0BH@$$CBD@Z PROC ; ioXMLElement::GetIntAttribute_e<23>, COMDAT
; _this$ = ecx

; 86   : 	{

  00000	55		 push	 ebp
  00001	8b ec		 mov	 ebp, esp
  00003	83 ec 20	 sub	 esp, 32			; 00000020H
  00006	a1 00 00 00 00	 mov	 eax, DWORD PTR ___security_cookie
  0000b	33 c5		 xor	 eax, ebp
  0000d	89 45 fc	 mov	 DWORD PTR __$ArrayPad$[ebp], eax
  00010	8b 45 08	 mov	 eax, DWORD PTR _k$[ebp]

; 87   : 		_ENCSTR(k, _k);

  00013	8a 10		 mov	 dl, BYTE PTR [eax]
  00015	53		 push	 ebx
  00016	56		 push	 esi
  00017	8b f1		 mov	 esi, ecx
  00019	84 d2		 test	 dl, dl
  0001b	0f 84 2d 02 00
	00		 je	 $LN96@GetIntAttr@9
  00021	80 f2 ed	 xor	 dl, -19			; ffffffedH
  00024	88 55 e0	 mov	 BYTE PTR __k$[ebp], dl
  00027	8a 50 01	 mov	 dl, BYTE PTR [eax+1]
  0002a	84 d2		 test	 dl, dl
  0002c	0f 84 16 02 00
	00		 je	 $LN95@GetIntAttr@9
  00032	b1 ec		 mov	 cl, -20			; ffffffecH
  00034	32 d1		 xor	 dl, cl
  00036	88 55 e1	 mov	 BYTE PTR __k$[ebp+1], dl
  00039	8a 50 02	 mov	 dl, BYTE PTR [eax+2]
  0003c	84 d2		 test	 dl, dl
  0003e	0f 84 fe 01 00
	00		 je	 $LN94@GetIntAttr@9
  00044	80 f2 eb	 xor	 dl, -21			; ffffffebH
  00047	88 55 e2	 mov	 BYTE PTR __k$[ebp+2], dl
  0004a	8a 50 03	 mov	 dl, BYTE PTR [eax+3]
  0004d	84 d2		 test	 dl, dl
  0004f	0f 84 e7 01 00
	00		 je	 $LN93@GetIntAttr@9
  00055	b3 ea		 mov	 bl, -22			; ffffffeaH
  00057	32 d3		 xor	 dl, bl
  00059	88 55 e3	 mov	 BYTE PTR __k$[ebp+3], dl
  0005c	8a 50 04	 mov	 dl, BYTE PTR [eax+4]
  0005f	84 d2		 test	 dl, dl
  00061	0f 84 cf 01 00
	00		 je	 $LN92@GetIntAttr@9
  00067	80 f2 ed	 xor	 dl, -19			; ffffffedH
  0006a	88 55 e4	 mov	 BYTE PTR __k$[ebp+4], dl
  0006d	8a 50 05	 mov	 dl, BYTE PTR [eax+5]
  00070	84 d2		 test	 dl, dl
  00072	0f 84 b9 01 00
	00		 je	 $LN91@GetIntAttr@9
  00078	32 d1		 xor	 dl, cl
  0007a	88 55 e5	 mov	 BYTE PTR __k$[ebp+5], dl
  0007d	8a 50 06	 mov	 dl, BYTE PTR [eax+6]
  00080	84 d2		 test	 dl, dl
  00082	0f 84 a3 01 00
	00		 je	 $LN90@GetIntAttr@9
  00088	80 f2 eb	 xor	 dl, -21			; ffffffebH
  0008b	88 55 e6	 mov	 BYTE PTR __k$[ebp+6], dl
  0008e	8a 50 07	 mov	 dl, BYTE PTR [eax+7]
  00091	84 d2		 test	 dl, dl
  00093	0f 84 8d 01 00
	00		 je	 $LN89@GetIntAttr@9
  00099	32 d3		 xor	 dl, bl
  0009b	88 55 e7	 mov	 BYTE PTR __k$[ebp+7], dl
  0009e	8a 50 08	 mov	 dl, BYTE PTR [eax+8]
  000a1	84 d2		 test	 dl, dl
  000a3	0f 84 77 01 00
	00		 je	 $LN88@GetIntAttr@9
  000a9	80 f2 ed	 xor	 dl, -19			; ffffffedH
  000ac	88 55 e8	 mov	 BYTE PTR __k$[ebp+8], dl
  000af	8a 50 09	 mov	 dl, BYTE PTR [eax+9]
  000b2	84 d2		 test	 dl, dl
  000b4	0f 84 61 01 00
	00		 je	 $LN87@GetIntAttr@9
  000ba	32 d1		 xor	 dl, cl
  000bc	88 55 e9	 mov	 BYTE PTR __k$[ebp+9], dl
  000bf	8a 50 0a	 mov	 dl, BYTE PTR [eax+10]
  000c2	84 d2		 test	 dl, dl
  000c4	0f 84 4b 01 00
	00		 je	 $LN86@GetIntAttr@9
  000ca	80 f2 eb	 xor	 dl, -21			; ffffffebH
  000cd	88 55 ea	 mov	 BYTE PTR __k$[ebp+10], dl
  000d0	8a 50 0b	 mov	 dl, BYTE PTR [eax+11]
  000d3	84 d2		 test	 dl, dl
  000d5	0f 84 35 01 00
	00		 je	 $LN85@GetIntAttr@9
  000db	32 d3		 xor	 dl, bl
  000dd	88 55 eb	 mov	 BYTE PTR __k$[ebp+11], dl
  000e0	8a 50 0c	 mov	 dl, BYTE PTR [eax+12]
  000e3	84 d2		 test	 dl, dl
  000e5	0f 84 1f 01 00
	00		 je	 $LN84@GetIntAttr@9
  000eb	80 f2 ed	 xor	 dl, -19			; ffffffedH
  000ee	88 55 ec	 mov	 BYTE PTR __k$[ebp+12], dl
  000f1	8a 50 0d	 mov	 dl, BYTE PTR [eax+13]
  000f4	84 d2		 test	 dl, dl
  000f6	0f 84 09 01 00
	00		 je	 $LN83@GetIntAttr@9
  000fc	32 d1		 xor	 dl, cl
  000fe	88 55 ed	 mov	 BYTE PTR __k$[ebp+13], dl
  00101	8a 50 0e	 mov	 dl, BYTE PTR [eax+14]
  00104	84 d2		 test	 dl, dl
  00106	0f 84 f3 00 00
	00		 je	 $LN82@GetIntAttr@9
  0010c	80 f2 eb	 xor	 dl, -21			; ffffffebH
  0010f	88 55 ee	 mov	 BYTE PTR __k$[ebp+14], dl
  00112	8a 50 0f	 mov	 dl, BYTE PTR [eax+15]
  00115	84 d2		 test	 dl, dl
  00117	0f 84 dd 00 00
	00		 je	 $LN81@GetIntAttr@9
  0011d	32 d3		 xor	 dl, bl
  0011f	88 55 ef	 mov	 BYTE PTR __k$[ebp+15], dl
  00122	8a 50 10	 mov	 dl, BYTE PTR [eax+16]
  00125	84 d2		 test	 dl, dl
  00127	0f 84 c7 00 00
	00		 je	 $LN80@GetIntAttr@9
  0012d	80 f2 ed	 xor	 dl, -19			; ffffffedH
  00130	88 55 f0	 mov	 BYTE PTR __k$[ebp+16], dl
  00133	8a 50 11	 mov	 dl, BYTE PTR [eax+17]
  00136	84 d2		 test	 dl, dl
  00138	0f 84 b1 00 00
	00		 je	 $LN79@GetIntAttr@9
  0013e	32 d1		 xor	 dl, cl
  00140	88 55 f1	 mov	 BYTE PTR __k$[ebp+17], dl
  00143	8a 50 12	 mov	 dl, BYTE PTR [eax+18]
  00146	84 d2		 test	 dl, dl
  00148	0f 84 9b 00 00
	00		 je	 $LN78@GetIntAttr@9
  0014e	80 f2 eb	 xor	 dl, -21			; ffffffebH
  00151	88 55 f2	 mov	 BYTE PTR __k$[ebp+18], dl
  00154	8a 50 13	 mov	 dl, BYTE PTR [eax+19]
  00157	84 d2		 test	 dl, dl
  00159	0f 84 85 00 00
	00		 je	 $LN77@GetIntAttr@9
  0015f	32 d3		 xor	 dl, bl
  00161	88 55 f3	 mov	 BYTE PTR __k$[ebp+19], dl
  00164	8a 50 14	 mov	 dl, BYTE PTR [eax+20]
  00167	84 d2		 test	 dl, dl
  00169	74 73		 je	 SHORT $LN76@GetIntAttr@9
  0016b	80 f2 ed	 xor	 dl, -19			; ffffffedH
  0016e	88 55 f4	 mov	 BYTE PTR __k$[ebp+20], dl
  00171	8a 50 15	 mov	 dl, BYTE PTR [eax+21]
  00174	84 d2		 test	 dl, dl
  00176	74 61		 je	 SHORT $LN75@GetIntAttr@9
  00178	32 d1		 xor	 dl, cl
  0017a	80 78 16 00	 cmp	 BYTE PTR [eax+22], 0
  0017e	88 55 f5	 mov	 BYTE PTR __k$[ebp+21], dl
  00181	0f 84 cb 00 00
	00		 je	 $LN1@GetIntAttr@9
  00187	8a 50 17	 mov	 dl, BYTE PTR [eax+23]
  0018a	84 d2		 test	 dl, dl
  0018c	74 46		 je	 SHORT $LN73@GetIntAttr@9
  0018e	32 d3		 xor	 dl, bl
  00190	88 55 f7	 mov	 BYTE PTR __k$[ebp+23], dl
  00193	8a 50 18	 mov	 dl, BYTE PTR [eax+24]
  00196	84 d2		 test	 dl, dl
  00198	74 34		 je	 SHORT $LN72@GetIntAttr@9
  0019a	80 f2 ed	 xor	 dl, -19			; ffffffedH
  0019d	88 55 f8	 mov	 BYTE PTR __k$[ebp+24], dl
  001a0	8a 50 19	 mov	 dl, BYTE PTR [eax+25]
  001a3	84 d2		 test	 dl, dl
  001a5	74 1f		 je	 SHORT $LN71@GetIntAttr@9
  001a7	8a 40 1a	 mov	 al, BYTE PTR [eax+26]
  001aa	32 d1		 xor	 dl, cl
  001ac	88 55 f9	 mov	 BYTE PTR __k$[ebp+25], dl
  001af	84 c0		 test	 al, al
  001b1	74 0a		 je	 SHORT $LN70@GetIntAttr@9
  001b3	34 eb		 xor	 al, -21			; ffffffebH
  001b5	88 45 fa	 mov	 BYTE PTR __k$[ebp+26], al
  001b8	e9 95 00 00 00	 jmp	 $LN1@GetIntAttr@9
$LN70@GetIntAttr@9:
  001bd	c6 45 fa eb	 mov	 BYTE PTR __k$[ebp+26], -21 ; ffffffebH
  001c1	e9 8c 00 00 00	 jmp	 $LN1@GetIntAttr@9
$LN71@GetIntAttr@9:
  001c6	88 4d f9	 mov	 BYTE PTR __k$[ebp+25], cl
  001c9	e9 84 00 00 00	 jmp	 $LN1@GetIntAttr@9
$LN72@GetIntAttr@9:
  001ce	c6 45 f8 ed	 mov	 BYTE PTR __k$[ebp+24], -19 ; ffffffedH
  001d2	eb 7e		 jmp	 SHORT $LN1@GetIntAttr@9
$LN73@GetIntAttr@9:
  001d4	88 5d f7	 mov	 BYTE PTR __k$[ebp+23], bl
  001d7	eb 79		 jmp	 SHORT $LN1@GetIntAttr@9
$LN75@GetIntAttr@9:
  001d9	88 4d f5	 mov	 BYTE PTR __k$[ebp+21], cl
  001dc	eb 74		 jmp	 SHORT $LN1@GetIntAttr@9
$LN76@GetIntAttr@9:
  001de	c6 45 f4 ed	 mov	 BYTE PTR __k$[ebp+20], -19 ; ffffffedH
  001e2	eb 6e		 jmp	 SHORT $LN1@GetIntAttr@9
$LN77@GetIntAttr@9:
  001e4	88 5d f3	 mov	 BYTE PTR __k$[ebp+19], bl
  001e7	eb 69		 jmp	 SHORT $LN1@GetIntAttr@9
$LN78@GetIntAttr@9:
  001e9	c6 45 f2 eb	 mov	 BYTE PTR __k$[ebp+18], -21 ; ffffffebH
  001ed	eb 63		 jmp	 SHORT $LN1@GetIntAttr@9
$LN79@GetIntAttr@9:
  001ef	88 4d f1	 mov	 BYTE PTR __k$[ebp+17], cl
  001f2	eb 5e		 jmp	 SHORT $LN1@GetIntAttr@9
$LN80@GetIntAttr@9:
  001f4	c6 45 f0 ed	 mov	 BYTE PTR __k$[ebp+16], -19 ; ffffffedH
  001f8	eb 58		 jmp	 SHORT $LN1@GetIntAttr@9
$LN81@GetIntAttr@9:
  001fa	88 5d ef	 mov	 BYTE PTR __k$[ebp+15], bl
  001fd	eb 53		 jmp	 SHORT $LN1@GetIntAttr@9
$LN82@GetIntAttr@9:
  001ff	c6 45 ee eb	 mov	 BYTE PTR __k$[ebp+14], -21 ; ffffffebH
  00203	eb 4d		 jmp	 SHORT $LN1@GetIntAttr@9
$LN83@GetIntAttr@9:
  00205	88 4d ed	 mov	 BYTE PTR __k$[ebp+13], cl
  00208	eb 48		 jmp	 SHORT $LN1@GetIntAttr@9
$LN84@GetIntAttr@9:
  0020a	c6 45 ec ed	 mov	 BYTE PTR __k$[ebp+12], -19 ; ffffffedH
  0020e	eb 42		 jmp	 SHORT $LN1@GetIntAttr@9
$LN85@GetIntAttr@9:
  00210	88 5d eb	 mov	 BYTE PTR __k$[ebp+11], bl
  00213	eb 3d		 jmp	 SHORT $LN1@GetIntAttr@9
$LN86@GetIntAttr@9:
  00215	c6 45 ea eb	 mov	 BYTE PTR __k$[ebp+10], -21 ; ffffffebH
  00219	eb 37		 jmp	 SHORT $LN1@GetIntAttr@9
$LN87@GetIntAttr@9:
  0021b	88 4d e9	 mov	 BYTE PTR __k$[ebp+9], cl
  0021e	eb 32		 jmp	 SHORT $LN1@GetIntAttr@9
$LN88@GetIntAttr@9:
  00220	c6 45 e8 ed	 mov	 BYTE PTR __k$[ebp+8], -19 ; ffffffedH
  00224	eb 2c		 jmp	 SHORT $LN1@GetIntAttr@9
$LN89@GetIntAttr@9:
  00226	88 5d e7	 mov	 BYTE PTR __k$[ebp+7], bl
  00229	eb 27		 jmp	 SHORT $LN1@GetIntAttr@9
$LN90@GetIntAttr@9:
  0022b	c6 45 e6 eb	 mov	 BYTE PTR __k$[ebp+6], -21 ; ffffffebH
  0022f	eb 21		 jmp	 SHORT $LN1@GetIntAttr@9
$LN91@GetIntAttr@9:
  00231	88 4d e5	 mov	 BYTE PTR __k$[ebp+5], cl
  00234	eb 1c		 jmp	 SHORT $LN1@GetIntAttr@9
$LN92@GetIntAttr@9:
  00236	c6 45 e4 ed	 mov	 BYTE PTR __k$[ebp+4], -19 ; ffffffedH
  0023a	eb 16		 jmp	 SHORT $LN1@GetIntAttr@9
$LN93@GetIntAttr@9:
  0023c	c6 45 e3 ea	 mov	 BYTE PTR __k$[ebp+3], -22 ; ffffffeaH
  00240	eb 10		 jmp	 SHORT $LN1@GetIntAttr@9
$LN94@GetIntAttr@9:
  00242	c6 45 e2 eb	 mov	 BYTE PTR __k$[ebp+2], -21 ; ffffffebH
  00246	eb 0a		 jmp	 SHORT $LN1@GetIntAttr@9
$LN95@GetIntAttr@9:
  00248	c6 45 e1 ec	 mov	 BYTE PTR __k$[ebp+1], -20 ; ffffffecH
  0024c	eb 04		 jmp	 SHORT $LN1@GetIntAttr@9
$LN96@GetIntAttr@9:
  0024e	c6 45 e0 ed	 mov	 BYTE PTR __k$[ebp], -19	; ffffffedH
$LN1@GetIntAttr@9:
  00252	6a 05		 push	 5
  00254	8d 45 e0	 lea	 eax, DWORD PTR __k$[ebp]
  00257	c6 45 f6 00	 mov	 BYTE PTR __k$[ebp+22], 0
  0025b	5a		 pop	 edx
$LL104@GetIntAttr@9:
  0025c	81 30 ed ec eb
	ea		 xor	 DWORD PTR [eax], -353637139 ; eaebecedH
  00262	83 c0 04	 add	 eax, 4
  00265	4a		 dec	 edx
  00266	75 f4		 jne	 SHORT $LL104@GetIntAttr@9
  00268	6a 14		 push	 20			; 00000014H
  0026a	58		 pop	 eax
$LL101@GetIntAttr@9:
  0026b	8b c8		 mov	 ecx, eax
  0026d	81 e1 03 00 00
	80		 and	 ecx, -2147483645	; 80000003H
  00273	79 05		 jns	 SHORT $LN111@GetIntAttr@9
  00275	49		 dec	 ecx
  00276	83 c9 fc	 or	 ecx, -4			; fffffffcH
  00279	41		 inc	 ecx
$LN111@GetIntAttr@9:
  0027a	b2 ed		 mov	 dl, -19			; ffffffedH
  0027c	2a d1		 sub	 dl, cl
  0027e	30 54 05 e0	 xor	 BYTE PTR __k$[ebp+eax], dl
  00282	40		 inc	 eax
  00283	83 f8 16	 cmp	 eax, 22			; 00000016H
  00286	7c e3		 jl	 SHORT $LL101@GetIntAttr@9

; 88   : 		return GetIntAttribute(_k);

  00288	8d 45 e0	 lea	 eax, DWORD PTR __k$[ebp]
  0028b	50		 push	 eax
  0028c	8b ce		 mov	 ecx, esi
  0028e	ff 15 00 00 00
	00		 call	 DWORD PTR __imp_?GetIntAttribute@ioXMLElement@@QBEHPBD@Z

; 89   : 	}

  00294	8b 4d fc	 mov	 ecx, DWORD PTR __$ArrayPad$[ebp]
  00297	5e		 pop	 esi
  00298	33 cd		 xor	 ecx, ebp
  0029a	5b		 pop	 ebx
  0029b	e8 00 00 00 00	 call	 @__security_check_cookie@4
  002a0	c9		 leave
  002a1	c2 04 00	 ret	 4
??$GetIntAttribute_e@$0BH@@ioXMLElement@@QBEHAAY0BH@$$CBD@Z ENDP ; ioXMLElement::GetIntAttribute_e<23>
_TEXT	ENDS
PUBLIC	?StringCbCopyA@@YGJPADIPBD@Z			; StringCbCopyA
; Function compile flags: /Ogsp
; File c:\program files (x86)\microsoft sdks\windows\v7.0a\include\strsafe.h
;	COMDAT ?StringCbCopyA@@YGJPADIPBD@Z
_TEXT	SEGMENT
_pszDest$ = 8						; size = 4
_cbDest$ = 12						; size = 4
_pszSrc$ = 16						; size = 4
?StringCbCopyA@@YGJPADIPBD@Z PROC			; StringCbCopyA, COMDAT

; 582  : {

  00000	55		 push	 ebp
  00001	8b ec		 mov	 ebp, esp

; 583  :     HRESULT hr;
; 584  :     size_t cchDest = cbDest / sizeof(char);
; 585  : 
; 586  :     hr = StringValidateDestA(pszDest, cchDest, STRSAFE_MAX_CCH);

  00003	8b 4d 0c	 mov	 ecx, DWORD PTR _cbDest$[ebp]
  00006	33 c0		 xor	 eax, eax
  00008	85 c9		 test	 ecx, ecx
  0000a	74 08		 je	 SHORT $LN4@StringCbCo
  0000c	81 f9 ff ff ff
	7f		 cmp	 ecx, 2147483647		; 7fffffffH
  00012	76 05		 jbe	 SHORT $LN5@StringCbCo
$LN4@StringCbCo:
  00014	b8 57 00 07 80	 mov	 eax, -2147024809	; 80070057H
$LN5@StringCbCo:

; 587  : 
; 588  :     if (SUCCEEDED(hr))

  00019	85 c0		 test	 eax, eax
  0001b	78 40		 js	 SHORT $LN1@StringCbCo

; 589  :     {
; 590  :         hr = StringCopyWorkerA(pszDest,
; 591  :                                cchDest,
; 592  :                                NULL,
; 593  :                                pszSrc,
; 594  :                                STRSAFE_MAX_LENGTH);

  0001d	8b 45 08	 mov	 eax, DWORD PTR _pszDest$[ebp]
  00020	53		 push	 ebx
  00021	33 db		 xor	 ebx, ebx
  00023	56		 push	 esi
  00024	8b f1		 mov	 esi, ecx
  00026	85 c9		 test	 ecx, ecx
  00028	74 26		 je	 SHORT $LN16@StringCbCo
  0002a	8b 55 10	 mov	 edx, DWORD PTR _pszSrc$[ebp]
  0002d	57		 push	 edi
  0002e	bf fe ff ff 7f	 mov	 edi, 2147483646		; 7ffffffeH
  00033	2b f9		 sub	 edi, ecx
  00035	2b d0		 sub	 edx, eax
$LL11@StringCbCo:
  00037	8d 0c 37	 lea	 ecx, DWORD PTR [edi+esi]
  0003a	85 c9		 test	 ecx, ecx
  0003c	74 0d		 je	 SHORT $LN10@StringCbCo
  0003e	8a 0c 02	 mov	 cl, BYTE PTR [edx+eax]
  00041	84 c9		 test	 cl, cl
  00043	74 06		 je	 SHORT $LN10@StringCbCo
  00045	88 08		 mov	 BYTE PTR [eax], cl
  00047	40		 inc	 eax
  00048	4e		 dec	 esi
  00049	75 ec		 jne	 SHORT $LL11@StringCbCo
$LN10@StringCbCo:
  0004b	5f		 pop	 edi
  0004c	85 f6		 test	 esi, esi
  0004e	75 06		 jne	 SHORT $LN9@StringCbCo
$LN16@StringCbCo:
  00050	48		 dec	 eax
  00051	bb 7a 00 07 80	 mov	 ebx, -2147024774	; 8007007aH
$LN9@StringCbCo:
  00056	c6 00 00	 mov	 BYTE PTR [eax], 0
  00059	5e		 pop	 esi
  0005a	8b c3		 mov	 eax, ebx
  0005c	5b		 pop	 ebx
$LN1@StringCbCo:

; 595  :     }
; 596  : 
; 597  :     return hr;
; 598  : }

  0005d	5d		 pop	 ebp
  0005e	c2 0c 00	 ret	 12			; 0000000cH
?StringCbCopyA@@YGJPADIPBD@Z ENDP			; StringCbCopyA
_TEXT	ENDS
PUBLIC	__$ArrayPad$
PUBLIC	??$GetIntAttribute_e@$08@ioXMLElement@@QBEHAAY08$$CBD@Z ; ioXMLElement::GetIntAttribute_e<9>
; Function compile flags: /Ogsp
; File d:\lost saga for developer\youtube\tutorial\source\src\io3dengine\ioxmlelement.h
;	COMDAT ??$GetIntAttribute_e@$08@ioXMLElement@@QBEHAAY08$$CBD@Z
_TEXT	SEGMENT
__k$ = -20						; size = 9
__$ArrayPad$ = -4					; size = 4
_k$ = 8							; size = 4
??$GetIntAttribute_e@$08@ioXMLElement@@QBEHAAY08$$CBD@Z PROC ; ioXMLElement::GetIntAttribute_e<9>, COMDAT
; _this$ = ecx

; 86   : 	{

  00000	55		 push	 ebp
  00001	8b ec		 mov	 ebp, esp
  00003	83 ec 14	 sub	 esp, 20			; 00000014H
  00006	a1 00 00 00 00	 mov	 eax, DWORD PTR ___security_cookie
  0000b	33 c5		 xor	 eax, ebp
  0000d	89 45 fc	 mov	 DWORD PTR __$ArrayPad$[ebp], eax
  00010	8b 45 08	 mov	 eax, DWORD PTR _k$[ebp]

; 87   : 		_ENCSTR(k, _k);

  00013	8a 10		 mov	 dl, BYTE PTR [eax]
  00015	84 d2		 test	 dl, dl
  00017	0f 84 ee 00 00
	00		 je	 $LN96@GetIntAttr@10
  0001d	80 f2 ed	 xor	 dl, -19			; ffffffedH
  00020	88 55 ec	 mov	 BYTE PTR __k$[ebp], dl
  00023	8a 50 01	 mov	 dl, BYTE PTR [eax+1]
  00026	84 d2		 test	 dl, dl
  00028	0f 84 d7 00 00
	00		 je	 $LN95@GetIntAttr@10
  0002e	80 f2 ec	 xor	 dl, -20			; ffffffecH
  00031	88 55 ed	 mov	 BYTE PTR __k$[ebp+1], dl
  00034	8a 50 02	 mov	 dl, BYTE PTR [eax+2]
  00037	84 d2		 test	 dl, dl
  00039	0f 84 c0 00 00
	00		 je	 $LN94@GetIntAttr@10
  0003f	80 f2 eb	 xor	 dl, -21			; ffffffebH
  00042	88 55 ee	 mov	 BYTE PTR __k$[ebp+2], dl
  00045	8a 50 03	 mov	 dl, BYTE PTR [eax+3]
  00048	84 d2		 test	 dl, dl
  0004a	0f 84 a9 00 00
	00		 je	 $LN93@GetIntAttr@10
  00050	80 f2 ea	 xor	 dl, -22			; ffffffeaH
  00053	88 55 ef	 mov	 BYTE PTR __k$[ebp+3], dl
  00056	8a 50 04	 mov	 dl, BYTE PTR [eax+4]
  00059	84 d2		 test	 dl, dl
  0005b	0f 84 92 00 00
	00		 je	 $LN92@GetIntAttr@10
  00061	80 f2 ed	 xor	 dl, -19			; ffffffedH
  00064	88 55 f0	 mov	 BYTE PTR __k$[ebp+4], dl
  00067	8a 50 05	 mov	 dl, BYTE PTR [eax+5]
  0006a	84 d2		 test	 dl, dl
  0006c	74 7f		 je	 SHORT $LN91@GetIntAttr@10
  0006e	80 f2 ec	 xor	 dl, -20			; ffffffecH
  00071	88 55 f1	 mov	 BYTE PTR __k$[ebp+5], dl
  00074	8a 50 06	 mov	 dl, BYTE PTR [eax+6]
  00077	84 d2		 test	 dl, dl
  00079	74 6c		 je	 SHORT $LN90@GetIntAttr@10
  0007b	80 f2 eb	 xor	 dl, -21			; ffffffebH
  0007e	88 55 f2	 mov	 BYTE PTR __k$[ebp+6], dl
  00081	8a 50 07	 mov	 dl, BYTE PTR [eax+7]
  00084	84 d2		 test	 dl, dl
  00086	74 59		 je	 SHORT $LN89@GetIntAttr@10
  00088	80 f2 ea	 xor	 dl, -22			; ffffffeaH
  0008b	80 78 08 00	 cmp	 BYTE PTR [eax+8], 0
  0008f	88 55 f3	 mov	 BYTE PTR __k$[ebp+7], dl
  00092	74 7b		 je	 SHORT $LN1@GetIntAttr@10
  00094	8a 50 09	 mov	 dl, BYTE PTR [eax+9]
  00097	84 d2		 test	 dl, dl
  00099	74 40		 je	 SHORT $LN87@GetIntAttr@10
  0009b	80 f2 ec	 xor	 dl, -20			; ffffffecH
  0009e	88 55 f5	 mov	 BYTE PTR __k$[ebp+9], dl
  000a1	8a 50 0a	 mov	 dl, BYTE PTR [eax+10]
  000a4	84 d2		 test	 dl, dl
  000a6	74 2d		 je	 SHORT $LN86@GetIntAttr@10
  000a8	80 f2 eb	 xor	 dl, -21			; ffffffebH
  000ab	88 55 f6	 mov	 BYTE PTR __k$[ebp+10], dl
  000ae	8a 50 0b	 mov	 dl, BYTE PTR [eax+11]
  000b1	84 d2		 test	 dl, dl
  000b3	74 1a		 je	 SHORT $LN85@GetIntAttr@10
  000b5	8a 40 0c	 mov	 al, BYTE PTR [eax+12]
  000b8	80 f2 ea	 xor	 dl, -22			; ffffffeaH
  000bb	88 55 f7	 mov	 BYTE PTR __k$[ebp+11], dl
  000be	84 c0		 test	 al, al
  000c0	74 07		 je	 SHORT $LN84@GetIntAttr@10
  000c2	34 ed		 xor	 al, -19			; ffffffedH
  000c4	88 45 f8	 mov	 BYTE PTR __k$[ebp+12], al
  000c7	eb 46		 jmp	 SHORT $LN1@GetIntAttr@10
$LN84@GetIntAttr@10:
  000c9	c6 45 f8 ed	 mov	 BYTE PTR __k$[ebp+12], -19 ; ffffffedH
  000cd	eb 40		 jmp	 SHORT $LN1@GetIntAttr@10
$LN85@GetIntAttr@10:
  000cf	c6 45 f7 ea	 mov	 BYTE PTR __k$[ebp+11], -22 ; ffffffeaH
  000d3	eb 3a		 jmp	 SHORT $LN1@GetIntAttr@10
$LN86@GetIntAttr@10:
  000d5	c6 45 f6 eb	 mov	 BYTE PTR __k$[ebp+10], -21 ; ffffffebH
  000d9	eb 34		 jmp	 SHORT $LN1@GetIntAttr@10
$LN87@GetIntAttr@10:
  000db	c6 45 f5 ec	 mov	 BYTE PTR __k$[ebp+9], -20 ; ffffffecH
  000df	eb 2e		 jmp	 SHORT $LN1@GetIntAttr@10
$LN89@GetIntAttr@10:
  000e1	c6 45 f3 ea	 mov	 BYTE PTR __k$[ebp+7], -22 ; ffffffeaH
  000e5	eb 28		 jmp	 SHORT $LN1@GetIntAttr@10
$LN90@GetIntAttr@10:
  000e7	c6 45 f2 eb	 mov	 BYTE PTR __k$[ebp+6], -21 ; ffffffebH
  000eb	eb 22		 jmp	 SHORT $LN1@GetIntAttr@10
$LN91@GetIntAttr@10:
  000ed	c6 45 f1 ec	 mov	 BYTE PTR __k$[ebp+5], -20 ; ffffffecH
  000f1	eb 1c		 jmp	 SHORT $LN1@GetIntAttr@10
$LN92@GetIntAttr@10:
  000f3	c6 45 f0 ed	 mov	 BYTE PTR __k$[ebp+4], -19 ; ffffffedH
  000f7	eb 16		 jmp	 SHORT $LN1@GetIntAttr@10
$LN93@GetIntAttr@10:
  000f9	c6 45 ef ea	 mov	 BYTE PTR __k$[ebp+3], -22 ; ffffffeaH
  000fd	eb 10		 jmp	 SHORT $LN1@GetIntAttr@10
$LN94@GetIntAttr@10:
  000ff	c6 45 ee eb	 mov	 BYTE PTR __k$[ebp+2], -21 ; ffffffebH
  00103	eb 0a		 jmp	 SHORT $LN1@GetIntAttr@10
$LN95@GetIntAttr@10:
  00105	c6 45 ed ec	 mov	 BYTE PTR __k$[ebp+1], -20 ; ffffffecH
  00109	eb 04		 jmp	 SHORT $LN1@GetIntAttr@10
$LN96@GetIntAttr@10:
  0010b	c6 45 ec ed	 mov	 BYTE PTR __k$[ebp], -19	; ffffffedH
$LN1@GetIntAttr@10:
  0010f	6a 02		 push	 2
  00111	8d 45 ec	 lea	 eax, DWORD PTR __k$[ebp]
  00114	c6 45 f4 00	 mov	 BYTE PTR __k$[ebp+8], 0
  00118	5a		 pop	 edx
$LL104@GetIntAttr@10:
  00119	81 30 ed ec eb
	ea		 xor	 DWORD PTR [eax], -353637139 ; eaebecedH
  0011f	83 c0 04	 add	 eax, 4
  00122	4a		 dec	 edx
  00123	75 f4		 jne	 SHORT $LL104@GetIntAttr@10

; 88   : 		return GetIntAttribute(_k);

  00125	8d 45 ec	 lea	 eax, DWORD PTR __k$[ebp]
  00128	50		 push	 eax
  00129	ff 15 00 00 00
	00		 call	 DWORD PTR __imp_?GetIntAttribute@ioXMLElement@@QBEHPBD@Z

; 89   : 	}

  0012f	8b 4d fc	 mov	 ecx, DWORD PTR __$ArrayPad$[ebp]
  00132	33 cd		 xor	 ecx, ebp
  00134	e8 00 00 00 00	 call	 @__security_check_cookie@4
  00139	c9		 leave
  0013a	c2 04 00	 ret	 4
??$GetIntAttribute_e@$08@ioXMLElement@@QBEHAAY08$$CBD@Z ENDP ; ioXMLElement::GetIntAttribute_e<9>
_TEXT	ENDS
PUBLIC	?construct@?$allocator@H@std@@QAEXPAHABH@Z	; std::allocator<int>::construct
; Function compile flags: /Ogsp
; File c:\program files (x86)\microsoft visual studio 10.0\vc\include\xmemory
;	COMDAT ?construct@?$allocator@H@std@@QAEXPAHABH@Z
_TEXT	SEGMENT
__Ptr$ = 8						; size = 4
__Val$ = 12						; size = 4
?construct@?$allocator@H@std@@QAEXPAHABH@Z PROC		; std::allocator<int>::construct, COMDAT
; _this$ = ecx

; 196  : 		{	// construct object at _Ptr with value _Val

  00000	55		 push	 ebp
  00001	8b ec		 mov	 ebp, esp

; 197  : 		_Construct(_Ptr, _Val);

  00003	8b 45 08	 mov	 eax, DWORD PTR __Ptr$[ebp]
  00006	85 c0		 test	 eax, eax
  00008	74 07		 je	 SHORT $LN5@construct
  0000a	8b 4d 0c	 mov	 ecx, DWORD PTR __Val$[ebp]
  0000d	8b 09		 mov	 ecx, DWORD PTR [ecx]
  0000f	89 08		 mov	 DWORD PTR [eax], ecx
$LN5@construct:

; 198  : 		}

  00011	5d		 pop	 ebp
  00012	c2 08 00	 ret	 8
?construct@?$allocator@H@std@@QAEXPAHABH@Z ENDP		; std::allocator<int>::construct
_TEXT	ENDS
PUBLIC	?construct@?$allocator@H@std@@QAEXPAH$$QAH@Z	; std::allocator<int>::construct
; Function compile flags: /Ogsp
;	COMDAT ?construct@?$allocator@H@std@@QAEXPAH$$QAH@Z
_TEXT	SEGMENT
__Ptr$ = 8						; size = 4
__Val$ = 12						; size = 4
?construct@?$allocator@H@std@@QAEXPAH$$QAH@Z PROC	; std::allocator<int>::construct, COMDAT
; _this$ = ecx

; 201  : 		{	// construct object at _Ptr with value _Val

  00000	55		 push	 ebp
  00001	8b ec		 mov	 ebp, esp

; 202  : 		::new ((void _FARQ *)_Ptr) _Ty(_STD forward<_Ty>(_Val));

  00003	8b 45 08	 mov	 eax, DWORD PTR __Ptr$[ebp]
  00006	85 c0		 test	 eax, eax
  00008	74 07		 je	 SHORT $LN3@construct@2
  0000a	8b 4d 0c	 mov	 ecx, DWORD PTR __Val$[ebp]
  0000d	8b 09		 mov	 ecx, DWORD PTR [ecx]
  0000f	89 08		 mov	 DWORD PTR [eax], ecx
$LN3@construct@2:

; 203  : 		}

  00011	5d		 pop	 ebp
  00012	c2 08 00	 ret	 8
?construct@?$allocator@H@std@@QAEXPAH$$QAH@Z ENDP	; std::allocator<int>::construct
_TEXT	ENDS
PUBLIC	??G?$_Vector_const_iterator@V?$_Vector_val@HV?$allocator@H@std@@@std@@@std@@QBEHABV01@@Z ; std::_Vector_const_iterator<std::_Vector_val<int,std::allocator<int> > >::operator-
; Function compile flags: /Ogsp
; File c:\program files (x86)\microsoft visual studio 10.0\vc\include\vector
;	COMDAT ??G?$_Vector_const_iterator@V?$_Vector_val@HV?$allocator@H@std@@@std@@@std@@QBEHABV01@@Z
_TEXT	SEGMENT
__Right$ = 8						; size = 4
??G?$_Vector_const_iterator@V?$_Vector_val@HV?$allocator@H@std@@@std@@@std@@QBEHABV01@@Z PROC ; std::_Vector_const_iterator<std::_Vector_val<int,std::allocator<int> > >::operator-, COMDAT
; _this$ = ecx

; 190  : 		{	// return difference of iterators

  00000	55		 push	 ebp
  00001	8b ec		 mov	 ebp, esp

; 191  : 		_Compat(_Right);
; 192  : 		return (this->_Ptr - _Right._Ptr);

  00003	8b 01		 mov	 eax, DWORD PTR [ecx]
  00005	8b 4d 08	 mov	 ecx, DWORD PTR __Right$[ebp]
  00008	2b 01		 sub	 eax, DWORD PTR [ecx]
  0000a	c1 f8 02	 sar	 eax, 2

; 193  : 		}

  0000d	5d		 pop	 ebp
  0000e	c2 04 00	 ret	 4
??G?$_Vector_const_iterator@V?$_Vector_val@HV?$allocator@H@std@@@std@@@std@@QBEHABV01@@Z ENDP ; std::_Vector_const_iterator<std::_Vector_val<int,std::allocator<int> > >::operator-
_TEXT	ENDS
PUBLIC	??$construct@AAH@?$allocator@H@std@@QAEXPAHAAH@Z ; std::allocator<int>::construct<int &>
; Function compile flags: /Ogsp
; File c:\program files (x86)\microsoft visual studio 10.0\vc\include\xmemory
;	COMDAT ??$construct@AAH@?$allocator@H@std@@QAEXPAHAAH@Z
_TEXT	SEGMENT
__Ptr$ = 8						; size = 4
__Val$ = 12						; size = 4
??$construct@AAH@?$allocator@H@std@@QAEXPAHAAH@Z PROC	; std::allocator<int>::construct<int &>, COMDAT
; _this$ = ecx

; 206  : 		void construct(pointer _Ptr, _Other&& _Val)

  00000	55		 push	 ebp
  00001	8b ec		 mov	 ebp, esp

; 207  : 		{	// construct object at _Ptr with value _Val
; 208  : 		::new ((void _FARQ *)_Ptr) _Ty(_STD forward<_Other>(_Val));

  00003	8b 45 08	 mov	 eax, DWORD PTR __Ptr$[ebp]
  00006	85 c0		 test	 eax, eax
  00008	74 07		 je	 SHORT $LN3@construct@3
  0000a	8b 4d 0c	 mov	 ecx, DWORD PTR __Val$[ebp]
  0000d	8b 09		 mov	 ecx, DWORD PTR [ecx]
  0000f	89 08		 mov	 DWORD PTR [eax], ecx
$LN3@construct@3:

; 209  : 		}

  00011	5d		 pop	 ebp
  00012	c2 08 00	 ret	 8
??$construct@AAH@?$allocator@H@std@@QAEXPAHAAH@Z ENDP	; std::allocator<int>::construct<int &>
_TEXT	ENDS
PUBLIC	??$?0AAPAHAAPAH@?$pair@PAHPAH@std@@QAE@AAPAH0@Z	; std::pair<int *,int *>::pair<int *,int *><int * &,int * &>
; Function compile flags: /Ogsp
; File c:\program files (x86)\microsoft visual studio 10.0\vc\include\utility
;	COMDAT ??$?0AAPAHAAPAH@?$pair@PAHPAH@std@@QAE@AAPAH0@Z
_TEXT	SEGMENT
__Val1$ = 8						; size = 4
__Val2$ = 12						; size = 4
??$?0AAPAHAAPAH@?$pair@PAHPAH@std@@QAE@AAPAH0@Z PROC	; std::pair<int *,int *>::pair<int *,int *><int * &,int * &>, COMDAT
; _this$ = ecx

; 247  : 		{	// construct from moved values

  00000	55		 push	 ebp
  00001	8b ec		 mov	 ebp, esp
  00003	8b c1		 mov	 eax, ecx
  00005	8b 4d 08	 mov	 ecx, DWORD PTR __Val1$[ebp]
  00008	8b 09		 mov	 ecx, DWORD PTR [ecx]
  0000a	89 08		 mov	 DWORD PTR [eax], ecx
  0000c	8b 4d 0c	 mov	 ecx, DWORD PTR __Val2$[ebp]
  0000f	8b 09		 mov	 ecx, DWORD PTR [ecx]
  00011	89 48 04	 mov	 DWORD PTR [eax+4], ecx

; 248  : 		}

  00014	5d		 pop	 ebp
  00015	c2 08 00	 ret	 8
??$?0AAPAHAAPAH@?$pair@PAHPAH@std@@QAE@AAPAH0@Z ENDP	; std::pair<int *,int *>::pair<int *,int *><int * &,int * &>
_TEXT	ENDS
PUBLIC	??$_Move_backward@PAHPAH@std@@YAPAHPAH00@Z	; std::_Move_backward<int *,int *>
; Function compile flags: /Ogsp
; File c:\program files (x86)\microsoft visual studio 10.0\vc\include\xutility
;	COMDAT ??$_Move_backward@PAHPAH@std@@YAPAHPAH00@Z
_TEXT	SEGMENT
__Cat$543228 = -4					; size = 1
__First$ = 8						; size = 4
__Last$ = 12						; size = 4
__Dest$ = 16						; size = 4
??$_Move_backward@PAHPAH@std@@YAPAHPAH00@Z PROC		; std::_Move_backward<int *,int *>, COMDAT

; 2638 : 	{	// move [_First, _Last) backwards to [..., _Dest), unchecked

  00000	55		 push	 ebp
  00001	8b ec		 mov	 ebp, esp
  00003	51		 push	 ecx

; 2639 : 	return (_Move_backward(_First, _Last,
; 2640 : 		_Dest, _Ptr_cat(_First, _Dest)));

  00004	ff 75 fc	 push	 DWORD PTR __Cat$543228[ebp]
  00007	ff 75 10	 push	 DWORD PTR __Dest$[ebp]
  0000a	ff 75 0c	 push	 DWORD PTR __Last$[ebp]
  0000d	ff 75 08	 push	 DWORD PTR __First$[ebp]
  00010	e8 00 00 00 00	 call	 ??$_Move_backward@PAHPAH@std@@YAPAHPAH00U_Scalar_ptr_iterator_tag@0@@Z ; std::_Move_backward<int *,int *>
  00015	83 c4 10	 add	 esp, 16			; 00000010H

; 2641 : 	}

  00018	c9		 leave
  00019	c3		 ret	 0
??$_Move_backward@PAHPAH@std@@YAPAHPAH00@Z ENDP		; std::_Move_backward<int *,int *>
_TEXT	ENDS
PUBLIC	??$_Push_heap@PAHHHVDistLevelSort@ExcavationSearchingWnd@@@std@@YAXPAHHH$$QAHVDistLevelSort@ExcavationSearchingWnd@@@Z ; std::_Push_heap<int *,int,int,ExcavationSearchingWnd::DistLevelSort>
; Function compile flags: /Ogsp
; File c:\program files (x86)\microsoft visual studio 10.0\vc\include\algorithm
;	COMDAT ??$_Push_heap@PAHHHVDistLevelSort@ExcavationSearchingWnd@@@std@@YAXPAHHH$$QAHVDistLevelSort@ExcavationSearchingWnd@@@Z
_TEXT	SEGMENT
__First$ = 8						; size = 4
__Hole$ = 12						; size = 4
__Top$ = 16						; size = 4
__Val$ = 20						; size = 4
__Pred$ = 24						; size = 1
??$_Push_heap@PAHHHVDistLevelSort@ExcavationSearchingWnd@@@std@@YAXPAHHH$$QAHVDistLevelSort@ExcavationSearchingWnd@@@Z PROC ; std::_Push_heap<int *,int,int,ExcavationSearchingWnd::DistLevelSort>, COMDAT

; 2455 : 	{	// percolate _Hole to _Top or where _Val belongs, using operator<

  00000	55		 push	 ebp
  00001	8b ec		 mov	 ebp, esp

; 2456 : 	for (_Diff _Idx = (_Hole - 1) / 2;

  00003	8b 4d 0c	 mov	 ecx, DWORD PTR __Hole$[ebp]
  00006	56		 push	 esi

; 2457 : 		_Top < _Hole && _DEBUG_LT_PRED(_Pred, *(_First + _Idx), _Val);
; 2458 : 		_Idx = (_Hole - 1) / 2)

  00007	8b 75 08	 mov	 esi, DWORD PTR __First$[ebp]
  0000a	57		 push	 edi
  0000b	8b 7d 14	 mov	 edi, DWORD PTR __Val$[ebp]
  0000e	8d 41 ff	 lea	 eax, DWORD PTR [ecx-1]
  00011	eb 0d		 jmp	 SHORT $LN17@Push_heap
$LL3@Push_heap:
  00013	8b 14 86	 mov	 edx, DWORD PTR [esi+eax*4]
  00016	3b 17		 cmp	 edx, DWORD PTR [edi]
  00018	7e 10		 jle	 SHORT $LN6@Push_heap

; 2459 : 		{	// move _Hole up to parent
; 2460 : 		*(_First + _Hole) = _Move(*(_First + _Idx));

  0001a	89 14 8e	 mov	 DWORD PTR [esi+ecx*4], edx

; 2461 : 		_Hole = _Idx;

  0001d	8b c8		 mov	 ecx, eax
  0001f	48		 dec	 eax
$LN17@Push_heap:

; 2457 : 		_Top < _Hole && _DEBUG_LT_PRED(_Pred, *(_First + _Idx), _Val);
; 2458 : 		_Idx = (_Hole - 1) / 2)

  00020	99		 cdq
  00021	2b c2		 sub	 eax, edx
  00023	d1 f8		 sar	 eax, 1
  00025	39 4d 10	 cmp	 DWORD PTR __Top$[ebp], ecx
  00028	7c e9		 jl	 SHORT $LL3@Push_heap
$LN6@Push_heap:

; 2462 : 		}
; 2463 : 
; 2464 : 	*(_First + _Hole) = _Move(_Val);	// drop _Val into final hole

  0002a	8b 07		 mov	 eax, DWORD PTR [edi]
  0002c	5f		 pop	 edi
  0002d	89 04 8e	 mov	 DWORD PTR [esi+ecx*4], eax
  00030	5e		 pop	 esi

; 2465 : 	}

  00031	5d		 pop	 ebp
  00032	c3		 ret	 0
??$_Push_heap@PAHHHVDistLevelSort@ExcavationSearchingWnd@@@std@@YAXPAHHH$$QAHVDistLevelSort@ExcavationSearchingWnd@@@Z ENDP ; std::_Push_heap<int *,int,int,ExcavationSearchingWnd::DistLevelSort>
_TEXT	ENDS
PUBLIC	??$_Push_heap@PAHHH@std@@YAXPAHHH$$QAH@Z	; std::_Push_heap<int *,int,int>
; Function compile flags: /Ogsp
;	COMDAT ??$_Push_heap@PAHHH@std@@YAXPAHHH$$QAH@Z
_TEXT	SEGMENT
__First$ = 8						; size = 4
__Hole$ = 12						; size = 4
__Top$ = 16						; size = 4
__Val$ = 20						; size = 4
??$_Push_heap@PAHHH@std@@YAXPAHHH$$QAH@Z PROC		; std::_Push_heap<int *,int,int>, COMDAT

; 2410 : 	{	// percolate _Hole to _Top or where _Val belongs, using operator<

  00000	55		 push	 ebp
  00001	8b ec		 mov	 ebp, esp

; 2411 : 	for (_Diff _Idx = (_Hole - 1) / 2;

  00003	8b 4d 0c	 mov	 ecx, DWORD PTR __Hole$[ebp]
  00006	56		 push	 esi

; 2412 : 		_Top < _Hole && _DEBUG_LT(*(_First + _Idx), _Val);
; 2413 : 		_Idx = (_Hole - 1) / 2)

  00007	8b 75 08	 mov	 esi, DWORD PTR __First$[ebp]
  0000a	57		 push	 edi
  0000b	8b 7d 14	 mov	 edi, DWORD PTR __Val$[ebp]
  0000e	8d 41 ff	 lea	 eax, DWORD PTR [ecx-1]
  00011	eb 0d		 jmp	 SHORT $LN13@Push_heap@2
$LL3@Push_heap@2:
  00013	8b 14 86	 mov	 edx, DWORD PTR [esi+eax*4]
  00016	3b 17		 cmp	 edx, DWORD PTR [edi]
  00018	7d 10		 jge	 SHORT $LN1@Push_heap@2

; 2414 : 		{	// move _Hole up to parent
; 2415 : 		*(_First + _Hole) = _Move(*(_First + _Idx));

  0001a	89 14 8e	 mov	 DWORD PTR [esi+ecx*4], edx

; 2416 : 		_Hole = _Idx;

  0001d	8b c8		 mov	 ecx, eax
  0001f	48		 dec	 eax
$LN13@Push_heap@2:

; 2412 : 		_Top < _Hole && _DEBUG_LT(*(_First + _Idx), _Val);
; 2413 : 		_Idx = (_Hole - 1) / 2)

  00020	99		 cdq
  00021	2b c2		 sub	 eax, edx
  00023	d1 f8		 sar	 eax, 1
  00025	39 4d 10	 cmp	 DWORD PTR __Top$[ebp], ecx
  00028	7c e9		 jl	 SHORT $LL3@Push_heap@2
$LN1@Push_heap@2:

; 2417 : 		}
; 2418 : 
; 2419 : 	*(_First + _Hole) = _Move(_Val);	// drop _Val into final hole

  0002a	8b 07		 mov	 eax, DWORD PTR [edi]
  0002c	5f		 pop	 edi
  0002d	89 04 8e	 mov	 DWORD PTR [esi+ecx*4], eax
  00030	5e		 pop	 esi

; 2420 : 	}

  00031	5d		 pop	 ebp
  00032	c3		 ret	 0
??$_Push_heap@PAHHH@std@@YAXPAHHH$$QAH@Z ENDP		; std::_Push_heap<int *,int,int>
_TEXT	ENDS
PUBLIC	?StringCbPrintfA@@YAJPADIPBDZZ			; StringCbPrintfA
; Function compile flags: /Ogsp
; File c:\program files (x86)\microsoft sdks\windows\v7.0a\include\strsafe.h
;	COMDAT ?StringCbPrintfA@@YAJPADIPBDZZ
_TEXT	SEGMENT
_pszDest$ = 8						; size = 4
_cbDest$ = 12						; size = 4
_pszFormat$ = 16					; size = 4
?StringCbPrintfA@@YAJPADIPBDZZ PROC			; StringCbPrintfA, COMDAT

; 4767 : {

  00000	55		 push	 ebp
  00001	8b ec		 mov	 ebp, esp

; 4768 :     HRESULT hr;
; 4769 :     size_t cchDest = cbDest / sizeof(char);
; 4770 : 
; 4771 :     hr = StringValidateDestA(pszDest, cchDest, STRSAFE_MAX_CCH);

  00003	8b 4d 0c	 mov	 ecx, DWORD PTR _cbDest$[ebp]
  00006	33 c0		 xor	 eax, eax
  00008	85 c9		 test	 ecx, ecx
  0000a	74 08		 je	 SHORT $LN4@StringCbPr
  0000c	81 f9 ff ff ff
	7f		 cmp	 ecx, 2147483647		; 7fffffffH
  00012	76 05		 jbe	 SHORT $LN5@StringCbPr
$LN4@StringCbPr:
  00014	b8 57 00 07 80	 mov	 eax, -2147024809	; 80070057H
$LN5@StringCbPr:

; 4772 :     
; 4773 :     if (SUCCEEDED(hr))

  00019	85 c0		 test	 eax, eax
  0001b	78 39		 js	 SHORT $LN1@StringCbPr

; 4774 :     {
; 4775 :         va_list argList;
; 4776 : 
; 4777 :         va_start(argList, pszFormat);
; 4778 : 
; 4779 :         hr = StringVPrintfWorkerA(pszDest,
; 4780 :                                   cchDest,
; 4781 :                                   NULL,
; 4782 :                                   pszFormat,
; 4783 :                                   argList);

  0001d	53		 push	 ebx
  0001e	56		 push	 esi
  0001f	57		 push	 edi
  00020	8b 7d 08	 mov	 edi, DWORD PTR _pszDest$[ebp]
  00023	8d 45 14	 lea	 eax, DWORD PTR _pszFormat$[ebp+4]
  00026	50		 push	 eax
  00027	ff 75 10	 push	 DWORD PTR _pszFormat$[ebp]
  0002a	8d 71 ff	 lea	 esi, DWORD PTR [ecx-1]
  0002d	56		 push	 esi
  0002e	57		 push	 edi
  0002f	33 db		 xor	 ebx, ebx
  00031	ff 15 00 00 00
	00		 call	 DWORD PTR __imp___vsnprintf
  00037	83 c4 10	 add	 esp, 16			; 00000010H
  0003a	85 c0		 test	 eax, eax
  0003c	78 0b		 js	 SHORT $LN12@StringCbPr
  0003e	3b c6		 cmp	 eax, esi
  00040	77 07		 ja	 SHORT $LN12@StringCbPr
  00042	75 0d		 jne	 SHORT $LN9@StringCbPr
  00044	88 1c 3e	 mov	 BYTE PTR [esi+edi], bl
  00047	eb 08		 jmp	 SHORT $LN9@StringCbPr
$LN12@StringCbPr:
  00049	88 1c 3e	 mov	 BYTE PTR [esi+edi], bl
  0004c	bb 7a 00 07 80	 mov	 ebx, -2147024774	; 8007007aH
$LN9@StringCbPr:
  00051	5f		 pop	 edi
  00052	5e		 pop	 esi
  00053	8b c3		 mov	 eax, ebx
  00055	5b		 pop	 ebx
$LN1@StringCbPr:

; 4784 : 
; 4785 :         va_end(argList);
; 4786 :     }
; 4787 : 
; 4788 :     return hr;
; 4789 : }

  00056	5d		 pop	 ebp
  00057	c3		 ret	 0
?StringCbPrintfA@@YAJPADIPBDZZ ENDP			; StringCbPrintfA
_TEXT	ENDS
PUBLIC	?begin@?$vector@HV?$allocator@H@std@@@std@@QAE?AV?$_Vector_iterator@V?$_Vector_val@HV?$allocator@H@std@@@std@@@2@XZ ; std::vector<int,std::allocator<int> >::begin
; Function compile flags: /Ogsp
; File c:\program files (x86)\microsoft visual studio 10.0\vc\include\vector
;	COMDAT ?begin@?$vector@HV?$allocator@H@std@@@std@@QAE?AV?$_Vector_iterator@V?$_Vector_val@HV?$allocator@H@std@@@std@@@2@XZ
_TEXT	SEGMENT
___$ReturnUdt$ = 8					; size = 4
?begin@?$vector@HV?$allocator@H@std@@@std@@QAE?AV?$_Vector_iterator@V?$_Vector_val@HV?$allocator@H@std@@@std@@@2@XZ PROC ; std::vector<int,std::allocator<int> >::begin, COMDAT
; _this$ = ecx

; 781  : 		{	// return iterator for beginning of mutable sequence

  00000	55		 push	 ebp
  00001	8b ec		 mov	 ebp, esp

; 782  : 		return (iterator(this->_Myfirst, this));

  00003	8b 09		 mov	 ecx, DWORD PTR [ecx]
  00005	8b 45 08	 mov	 eax, DWORD PTR ___$ReturnUdt$[ebp]
  00008	89 08		 mov	 DWORD PTR [eax], ecx

; 783  : 		}

  0000a	5d		 pop	 ebp
  0000b	c2 04 00	 ret	 4
?begin@?$vector@HV?$allocator@H@std@@@std@@QAE?AV?$_Vector_iterator@V?$_Vector_val@HV?$allocator@H@std@@@std@@@2@XZ ENDP ; std::vector<int,std::allocator<int> >::begin
_TEXT	ENDS
PUBLIC	??0?$CEncrypt@H@@QAE@XZ				; CEncrypt<int>::CEncrypt<int>
EXTRN	??0ccddaabb@@QAE@XZ:PROC			; ccddaabb::ccddaabb
;	COMDAT xdata$x
; File d:\lost saga for developer\youtube\tutorial\source\src\lsclient\encryptvalue.h
xdata$x	SEGMENT
__unwindtable$??0?$CEncrypt@H@@QAE@XZ DD 0ffffffffH
	DD	FLAT:__unwindfunclet$??0?$CEncrypt@H@@QAE@XZ$0
__ehfuncinfo$??0?$CEncrypt@H@@QAE@XZ DD 019930522H
	DD	01H
	DD	FLAT:__unwindtable$??0?$CEncrypt@H@@QAE@XZ
	DD	2 DUP(00H)
	DD	2 DUP(00H)
	DD	00H
	DD	01H
; Function compile flags: /Ogsp
xdata$x	ENDS
;	COMDAT ??0?$CEncrypt@H@@QAE@XZ
_TEXT	SEGMENT
_this$ = -16						; size = 4
__$EHRec$ = -12						; size = 12
??0?$CEncrypt@H@@QAE@XZ PROC				; CEncrypt<int>::CEncrypt<int>, COMDAT
; _this$ = ecx

; 109  : 	CEncrypt()

  00000	6a 04		 push	 4
  00002	b8 00 00 00 00	 mov	 eax, __ehhandler$??0?$CEncrypt@H@@QAE@XZ
  00007	e8 00 00 00 00	 call	 __EH_prolog3
  0000c	8b f1		 mov	 esi, ecx
  0000e	89 75 f0	 mov	 DWORD PTR _this$[ebp], esi
  00011	8d 4e 0c	 lea	 ecx, DWORD PTR [esi+12]
  00014	c7 06 00 00 00
	00		 mov	 DWORD PTR [esi], OFFSET ??_7?$CEncrypt@H@@6B@
  0001a	e8 00 00 00 00	 call	 ??0ccddaabb@@QAE@XZ	; ccddaabb::ccddaabb
  0001f	83 65 fc 00	 and	 DWORD PTR __$EHRec$[ebp+8], 0

; 110  : 	{
; 111  : 		Init();

  00023	8b ce		 mov	 ecx, esi
  00025	e8 00 00 00 00	 call	 ?Init@?$CEncrypt@H@@AAEXXZ ; CEncrypt<int>::Init

; 112  : 	}

  0002a	8b c6		 mov	 eax, esi
  0002c	e8 00 00 00 00	 call	 __EH_epilog3
  00031	c3		 ret	 0
_TEXT	ENDS
;	COMDAT text$x
text$x	SEGMENT
__unwindfunclet$??0?$CEncrypt@H@@QAE@XZ$0:
  00000	8b 4d f0	 mov	 ecx, DWORD PTR _this$[ebp]
  00003	83 c1 0c	 add	 ecx, 12			; 0000000cH
  00006	e9 00 00 00 00	 jmp	 ??1ccddaabb@@UAE@XZ	; ccddaabb::~ccddaabb
__ehhandler$??0?$CEncrypt@H@@QAE@XZ:
  0000b	8b 54 24 08	 mov	 edx, DWORD PTR [esp+8]
  0000f	8d 42 0c	 lea	 eax, DWORD PTR [edx+12]
  00012	8b 4a ec	 mov	 ecx, DWORD PTR [edx-20]
  00015	33 c8		 xor	 ecx, eax
  00017	e8 00 00 00 00	 call	 @__security_check_cookie@4
  0001c	b8 00 00 00 00	 mov	 eax, OFFSET __ehfuncinfo$??0?$CEncrypt@H@@QAE@XZ
  00021	e9 00 00 00 00	 jmp	 ___CxxFrameHandler3
text$x	ENDS
??0?$CEncrypt@H@@QAE@XZ ENDP				; CEncrypt<int>::CEncrypt<int>
PUBLIC	??B?$CEncrypt@H@@QAEHXZ				; CEncrypt<int>::operator int
; Function compile flags: /Ogsp
;	COMDAT ??B?$CEncrypt@H@@QAEHXZ
_TEXT	SEGMENT
_value$ = -4						; size = 4
??B?$CEncrypt@H@@QAEHXZ PROC				; CEncrypt<int>::operator int, COMDAT
; _this$ = ecx

; 134  : 	{

  00000	55		 push	 ebp
  00001	8b ec		 mov	 ebp, esp
  00003	51		 push	 ecx

; 135  : 		type value;
; 136  : 		DecryptValueToPool(&value);

  00004	8d 45 fc	 lea	 eax, DWORD PTR _value$[ebp]
  00007	50		 push	 eax
  00008	e8 00 00 00 00	 call	 ?DecryptValueToPool@?$CEncrypt@H@@QAEXPAH@Z ; CEncrypt<int>::DecryptValueToPool

; 137  : 
; 138  : #ifdef _NOTUSE
; 139  : 		Debug();
; 140  : #endif
; 141  : 		return value;

  0000d	8b 45 fc	 mov	 eax, DWORD PTR _value$[ebp]

; 142  : 	}

  00010	c9		 leave
  00011	c3		 ret	 0
??B?$CEncrypt@H@@QAEHXZ ENDP				; CEncrypt<int>::operator int
_TEXT	ENDS
PUBLIC	??4?$CEncrypt@H@@QAEHH@Z			; CEncrypt<int>::operator=
; Function compile flags: /Ogsp
;	COMDAT ??4?$CEncrypt@H@@QAEHH@Z
_TEXT	SEGMENT
_value$ = 8						; size = 4
_inValue$ = 8						; size = 4
??4?$CEncrypt@H@@QAEHH@Z PROC				; CEncrypt<int>::operator=, COMDAT
; _this$ = ecx

; 843  : 	{

  00000	55		 push	 ebp
  00001	8b ec		 mov	 ebp, esp

; 844  : 		type value = inValue;

  00003	8b 45 08	 mov	 eax, DWORD PTR _inValue$[ebp]
  00006	89 45 08	 mov	 DWORD PTR _value$[ebp], eax

; 845  : 		EncryptValueToPool((char*)&value);

  00009	8d 45 08	 lea	 eax, DWORD PTR _value$[ebp]
  0000c	50		 push	 eax
  0000d	e8 00 00 00 00	 call	 ?EncryptValueToPool@?$CEncrypt@H@@AAEXPBD@Z ; CEncrypt<int>::EncryptValueToPool

; 846  : #ifdef _NOTUSE
; 847  : 		m_value = inValue;
; 848  : 		Debug();
; 849  : #endif
; 850  : 		return value;

  00012	8b 45 08	 mov	 eax, DWORD PTR _value$[ebp]

; 851  : 	}

  00015	5d		 pop	 ebp
  00016	c2 04 00	 ret	 4
??4?$CEncrypt@H@@QAEHH@Z ENDP				; CEncrypt<int>::operator=
_TEXT	ENDS
PUBLIC	?end@?$vector@HV?$allocator@H@std@@@std@@QAE?AV?$_Vector_iterator@V?$_Vector_val@HV?$allocator@H@std@@@std@@@2@XZ ; std::vector<int,std::allocator<int> >::end
; Function compile flags: /Ogsp
; File c:\program files (x86)\microsoft visual studio 10.0\vc\include\vector
;	COMDAT ?end@?$vector@HV?$allocator@H@std@@@std@@QAE?AV?$_Vector_iterator@V?$_Vector_val@HV?$allocator@H@std@@@std@@@2@XZ
_TEXT	SEGMENT
___$ReturnUdt$ = 8					; size = 4
?end@?$vector@HV?$allocator@H@std@@@std@@QAE?AV?$_Vector_iterator@V?$_Vector_val@HV?$allocator@H@std@@@std@@@2@XZ PROC ; std::vector<int,std::allocator<int> >::end, COMDAT
; _this$ = ecx

; 791  : 		{	// return iterator for end of mutable sequence

  00000	55		 push	 ebp
  00001	8b ec		 mov	 ebp, esp

; 792  : 		return (iterator(this->_Mylast, this));

  00003	8b 49 04	 mov	 ecx, DWORD PTR [ecx+4]
  00006	8b 45 08	 mov	 eax, DWORD PTR ___$ReturnUdt$[ebp]
  00009	89 08		 mov	 DWORD PTR [eax], ecx

; 793  : 		}

  0000b	5d		 pop	 ebp
  0000c	c2 04 00	 ret	 4
?end@?$vector@HV?$allocator@H@std@@@std@@QAE?AV?$_Vector_iterator@V?$_Vector_val@HV?$allocator@H@std@@@std@@@2@XZ ENDP ; std::vector<int,std::allocator<int> >::end
_TEXT	ENDS
PUBLIC	??0?$_Vector_val@HV?$allocator@H@std@@@std@@QAE@V?$allocator@H@1@@Z ; std::_Vector_val<int,std::allocator<int> >::_Vector_val<int,std::allocator<int> >
; Function compile flags: /Ogsp
;	COMDAT ??0?$_Vector_val@HV?$allocator@H@std@@@std@@QAE@V?$allocator@H@1@@Z
_TEXT	SEGMENT
__Al$ = 8						; size = 1
??0?$_Vector_val@HV?$allocator@H@std@@@std@@QAE@V?$allocator@H@1@@Z PROC ; std::_Vector_val<int,std::allocator<int> >::_Vector_val<int,std::allocator<int> >, COMDAT
; _this$ = ecx

; 426  : 		{	// construct allocator from _Al

  00000	8b c1		 mov	 eax, ecx

; 427  : 		_Myfirst = 0;

  00002	33 c9		 xor	 ecx, ecx
  00004	89 08		 mov	 DWORD PTR [eax], ecx

; 428  : 		_Mylast = 0;

  00006	89 48 04	 mov	 DWORD PTR [eax+4], ecx

; 429  : 		_Myend = 0;

  00009	89 48 08	 mov	 DWORD PTR [eax+8], ecx

; 430  : 		}

  0000c	c2 04 00	 ret	 4
??0?$_Vector_val@HV?$allocator@H@std@@@std@@QAE@V?$allocator@H@1@@Z ENDP ; std::_Vector_val<int,std::allocator<int> >::_Vector_val<int,std::allocator<int> >
_TEXT	ENDS
PUBLIC	?max_size@?$vector@HV?$allocator@H@std@@@std@@QBEIXZ ; std::vector<int,std::allocator<int> >::max_size
; Function compile flags: /Ogsp
;	COMDAT ?max_size@?$vector@HV?$allocator@H@std@@@std@@QBEIXZ
_TEXT	SEGMENT
?max_size@?$vector@HV?$allocator@H@std@@@std@@QBEIXZ PROC ; std::vector<int,std::allocator<int> >::max_size, COMDAT
; _this$ = ecx

; 884  : 		return (this->_Alval.max_size());

  00000	b8 ff ff ff 3f	 mov	 eax, 1073741823		; 3fffffffH

; 885  : 		}

  00005	c3		 ret	 0
?max_size@?$vector@HV?$allocator@H@std@@@std@@QBEIXZ ENDP ; std::vector<int,std::allocator<int> >::max_size
_TEXT	ENDS
PUBLIC	?_Grow_to@?$vector@HV?$allocator@H@std@@@std@@IBEII@Z ; std::vector<int,std::allocator<int> >::_Grow_to
; Function compile flags: /Ogsp
;	COMDAT ?_Grow_to@?$vector@HV?$allocator@H@std@@@std@@IBEII@Z
_TEXT	SEGMENT
__Count$ = 8						; size = 4
?_Grow_to@?$vector@HV?$allocator@H@std@@@std@@IBEII@Z PROC ; std::vector<int,std::allocator<int> >::_Grow_to, COMDAT
; _this$ = ecx

; 1274 : 		{	// grow by 50% or at least to _Count

  00000	55		 push	 ebp
  00001	8b ec		 mov	 ebp, esp

; 1275 : 		size_type _Capacity = capacity();

  00003	8b 41 08	 mov	 eax, DWORD PTR [ecx+8]
  00006	2b 01		 sub	 eax, DWORD PTR [ecx]

; 1276 : 
; 1277 : 		_Capacity = max_size() - _Capacity / 2 < _Capacity
; 1278 : 			? 0 : _Capacity + _Capacity / 2;	// try to grow by 50%

  00008	ba ff ff ff 3f	 mov	 edx, 1073741823		; 3fffffffH
  0000d	c1 f8 02	 sar	 eax, 2
  00010	8b c8		 mov	 ecx, eax
  00012	d1 e9		 shr	 ecx, 1
  00014	2b d1		 sub	 edx, ecx
  00016	3b d0		 cmp	 edx, eax
  00018	73 04		 jae	 SHORT $LN4@Grow_to
  0001a	33 c0		 xor	 eax, eax
  0001c	eb 02		 jmp	 SHORT $LN5@Grow_to
$LN4@Grow_to:
  0001e	03 c1		 add	 eax, ecx
$LN5@Grow_to:

; 1279 : 		if (_Capacity < _Count)

  00020	3b 45 08	 cmp	 eax, DWORD PTR __Count$[ebp]

; 1280 : 			_Capacity = _Count;

  00023	0f 42 45 08	 cmovb	 eax, DWORD PTR __Count$[ebp]

; 1281 : 		return (_Capacity);
; 1282 : 		}

  00027	5d		 pop	 ebp
  00028	c2 04 00	 ret	 4
?_Grow_to@?$vector@HV?$allocator@H@std@@@std@@IBEII@Z ENDP ; std::vector<int,std::allocator<int> >::_Grow_to
_TEXT	ENDS
PUBLIC	?allocate@?$allocator@H@std@@QAEPAHI@Z		; std::allocator<int>::allocate
; Function compile flags: /Ogsp
; File c:\program files (x86)\microsoft visual studio 10.0\vc\include\xmemory
;	COMDAT ?allocate@?$allocator@H@std@@QAEPAHI@Z
_TEXT	SEGMENT
__Count$ = 8						; size = 4
?allocate@?$allocator@H@std@@QAEPAHI@Z PROC		; std::allocator<int>::allocate, COMDAT
; _this$ = ecx

; 186  : 		{	// allocate array of _Count elements

  00000	55		 push	 ebp
  00001	8b ec		 mov	 ebp, esp

; 187  : 		return (_Allocate(_Count, (pointer)0));

  00003	6a 00		 push	 0
  00005	ff 75 08	 push	 DWORD PTR __Count$[ebp]
  00008	e8 00 00 00 00	 call	 ??$_Allocate@H@std@@YAPAHIPAH@Z ; std::_Allocate<int>
  0000d	59		 pop	 ecx
  0000e	59		 pop	 ecx

; 188  : 		}

  0000f	5d		 pop	 ebp
  00010	c2 04 00	 ret	 4
?allocate@?$allocator@H@std@@QAEPAHI@Z ENDP		; std::allocator<int>::allocate
_TEXT	ENDS
PUBLIC	??8?$_Vector_const_iterator@V?$_Vector_val@HV?$allocator@H@std@@@std@@@std@@QBE_NABV01@@Z ; std::_Vector_const_iterator<std::_Vector_val<int,std::allocator<int> > >::operator==
; Function compile flags: /Ogsp
; File c:\program files (x86)\microsoft visual studio 10.0\vc\include\vector
;	COMDAT ??8?$_Vector_const_iterator@V?$_Vector_val@HV?$allocator@H@std@@@std@@@std@@QBE_NABV01@@Z
_TEXT	SEGMENT
__Right$ = 8						; size = 4
??8?$_Vector_const_iterator@V?$_Vector_val@HV?$allocator@H@std@@@std@@@std@@QBE_NABV01@@Z PROC ; std::_Vector_const_iterator<std::_Vector_val<int,std::allocator<int> > >::operator==, COMDAT
; _this$ = ecx

; 201  : 		{	// test for iterator equality

  00000	55		 push	 ebp
  00001	8b ec		 mov	 ebp, esp

; 202  : 		_Compat(_Right);
; 203  : 		return (this->_Ptr == _Right._Ptr);

  00003	8b 01		 mov	 eax, DWORD PTR [ecx]
  00005	8b 4d 08	 mov	 ecx, DWORD PTR __Right$[ebp]
  00008	2b 01		 sub	 eax, DWORD PTR [ecx]
  0000a	f7 d8		 neg	 eax
  0000c	1b c0		 sbb	 eax, eax
  0000e	40		 inc	 eax

; 204  : 		}

  0000f	5d		 pop	 ebp
  00010	c2 04 00	 ret	 4
??8?$_Vector_const_iterator@V?$_Vector_val@HV?$allocator@H@std@@@std@@@std@@QBE_NABV01@@Z ENDP ; std::_Vector_const_iterator<std::_Vector_val<int,std::allocator<int> > >::operator==
_TEXT	ENDS
PUBLIC	??$swap@H@std@@YAXAAH0@Z			; std::swap<int>
; Function compile flags: /Ogsp
; File c:\program files (x86)\microsoft visual studio 10.0\vc\include\utility
;	COMDAT ??$swap@H@std@@YAXAAH0@Z
_TEXT	SEGMENT
__Left$ = 8						; size = 4
__Right$ = 12						; size = 4
??$swap@H@std@@YAXAAH0@Z PROC				; std::swap<int>, COMDAT

; 101  : 	{	// exchange values stored at _Left and _Right

  00000	55		 push	 ebp
  00001	8b ec		 mov	 ebp, esp

; 102  : 	_Ty _Tmp = _Move(_Left);
; 103  : 	_Left = _Move(_Right);

  00003	8b 55 0c	 mov	 edx, DWORD PTR __Right$[ebp]
  00006	8b 45 08	 mov	 eax, DWORD PTR __Left$[ebp]
  00009	8b 08		 mov	 ecx, DWORD PTR [eax]
  0000b	56		 push	 esi
  0000c	8b 32		 mov	 esi, DWORD PTR [edx]
  0000e	89 30		 mov	 DWORD PTR [eax], esi

; 104  : 	_Right = _Move(_Tmp);

  00010	89 0a		 mov	 DWORD PTR [edx], ecx
  00012	5e		 pop	 esi

; 105  : 	}

  00013	5d		 pop	 ebp
  00014	c3		 ret	 0
??$swap@H@std@@YAXAAH0@Z ENDP				; std::swap<int>
_TEXT	ENDS
PUBLIC	??$_Move@PAHPAH@std@@YAPAHPAH00@Z		; std::_Move<int *,int *>
; Function compile flags: /Ogsp
; File c:\program files (x86)\microsoft visual studio 10.0\vc\include\xutility
;	COMDAT ??$_Move@PAHPAH@std@@YAPAHPAH00@Z
_TEXT	SEGMENT
__Cat$543395 = -4					; size = 1
__First$ = 8						; size = 4
__Last$ = 12						; size = 4
__Dest$ = 16						; size = 4
??$_Move@PAHPAH@std@@YAPAHPAH00@Z PROC			; std::_Move<int *,int *>, COMDAT

; 2533 : 	{	// move [_First, _Last) to [_Dest, ...), unchecked

  00000	55		 push	 ebp
  00001	8b ec		 mov	 ebp, esp
  00003	51		 push	 ecx

; 2534 : 	return (_Move(_First, _Last,
; 2535 : 		_Dest, _Ptr_cat(_First, _Dest)));

  00004	ff 75 fc	 push	 DWORD PTR __Cat$543395[ebp]
  00007	ff 75 10	 push	 DWORD PTR __Dest$[ebp]
  0000a	ff 75 0c	 push	 DWORD PTR __Last$[ebp]
  0000d	ff 75 08	 push	 DWORD PTR __First$[ebp]
  00010	e8 00 00 00 00	 call	 ??$_Move@PAHPAH@std@@YAPAHPAH00U_Scalar_ptr_iterator_tag@0@@Z ; std::_Move<int *,int *>
  00015	83 c4 10	 add	 esp, 16			; 00000010H

; 2536 : 	}

  00018	c9		 leave
  00019	c3		 ret	 0
??$_Move@PAHPAH@std@@YAPAHPAH00@Z ENDP			; std::_Move<int *,int *>
_TEXT	ENDS
PUBLIC	??$_Destroy_range@V?$allocator@H@std@@@std@@YAXPAH0AAV?$allocator@H@0@@Z ; std::_Destroy_range<std::allocator<int> >
; Function compile flags: /Ogsp
; File c:\program files (x86)\microsoft visual studio 10.0\vc\include\xmemory
;	COMDAT ??$_Destroy_range@V?$allocator@H@std@@@std@@YAXPAH0AAV?$allocator@H@0@@Z
_TEXT	SEGMENT
__First$ = 8						; size = 4
__Last$ = 12						; size = 4
__Al$ = 16						; size = 4
??$_Destroy_range@V?$allocator@H@std@@@std@@YAXPAH0AAV?$allocator@H@0@@Z PROC ; std::_Destroy_range<std::allocator<int> >, COMDAT

; 88   : 	_Destroy_range(_First, _Last, _Al, _Ptr_cat(_First, _Last));
; 89   : 	}

  00000	c3		 ret	 0
??$_Destroy_range@V?$allocator@H@std@@@std@@YAXPAH0AAV?$allocator@H@0@@Z ENDP ; std::_Destroy_range<std::allocator<int> >
_TEXT	ENDS
PUBLIC	??$_Unchecked@V?$_Vector_val@HV?$allocator@H@std@@@std@@@std@@YAPAHV?$_Vector_iterator@V?$_Vector_val@HV?$allocator@H@std@@@std@@@0@@Z ; std::_Unchecked<std::_Vector_val<int,std::allocator<int> > >
; Function compile flags: /Ogsp
; File c:\program files (x86)\microsoft visual studio 10.0\vc\include\vector
;	COMDAT ??$_Unchecked@V?$_Vector_val@HV?$allocator@H@std@@@std@@@std@@YAPAHV?$_Vector_iterator@V?$_Vector_val@HV?$allocator@H@std@@@std@@@0@@Z
_TEXT	SEGMENT
__Iter$ = 8						; size = 4
??$_Unchecked@V?$_Vector_val@HV?$allocator@H@std@@@std@@@std@@YAPAHV?$_Vector_iterator@V?$_Vector_val@HV?$allocator@H@std@@@std@@@0@@Z PROC ; std::_Unchecked<std::_Vector_val<int,std::allocator<int> > >, COMDAT

; 393  : 	{	// convert to unchecked

  00000	55		 push	 ebp
  00001	8b ec		 mov	 ebp, esp

; 394  : 	return (_Iter._Unchecked());

  00003	8b 45 08	 mov	 eax, DWORD PTR __Iter$[ebp]

; 395  : 	}

  00006	5d		 pop	 ebp
  00007	c3		 ret	 0
??$_Unchecked@V?$_Vector_val@HV?$allocator@H@std@@@std@@@std@@YAPAHV?$_Vector_iterator@V?$_Vector_val@HV?$allocator@H@std@@@std@@@0@@Z ENDP ; std::_Unchecked<std::_Vector_val<int,std::allocator<int> > >
_TEXT	ENDS
PUBLIC	??$_Uninitialized_move@PAHPAHV?$allocator@H@std@@@std@@YAPAHPAH00AAV?$allocator@H@0@@Z ; std::_Uninitialized_move<int *,int *,std::allocator<int> >
; Function compile flags: /Ogsp
; File c:\program files (x86)\microsoft visual studio 10.0\vc\include\memory
;	COMDAT ??$_Uninitialized_move@PAHPAHV?$allocator@H@std@@@std@@YAPAHPAH00AAV?$allocator@H@0@@Z
_TEXT	SEGMENT
__First$ = 8						; size = 4
__Last$ = 12						; size = 4
__Dest$ = 16						; size = 4
__Al$ = 20						; size = 4
??$_Uninitialized_move@PAHPAHV?$allocator@H@std@@@std@@YAPAHPAH00AAV?$allocator@H@0@@Z PROC ; std::_Uninitialized_move<int *,int *,std::allocator<int> >, COMDAT

; 469  : 	{	// move [_First, _Last) to raw _Dest, using _Al

  00000	55		 push	 ebp
  00001	8b ec		 mov	 ebp, esp
  00003	56		 push	 esi

; 470  : 	return (_Uninit_move(_First, _Last, _Dest, _Al,
; 471  : 		_Val_type(_First), _Ptr_cat(_First, _Dest)));

  00004	8b 75 0c	 mov	 esi, DWORD PTR __Last$[ebp]
  00007	2b 75 08	 sub	 esi, DWORD PTR __First$[ebp]
  0000a	c1 fe 02	 sar	 esi, 2
  0000d	c1 e6 02	 shl	 esi, 2
  00010	56		 push	 esi
  00011	ff 75 08	 push	 DWORD PTR __First$[ebp]
  00014	ff 75 10	 push	 DWORD PTR __Dest$[ebp]
  00017	ff 15 00 00 00
	00		 call	 DWORD PTR __imp__memmove
  0001d	83 c4 0c	 add	 esp, 12			; 0000000cH
  00020	03 c6		 add	 eax, esi
  00022	5e		 pop	 esi

; 472  : 	}

  00023	5d		 pop	 ebp
  00024	c3		 ret	 0
??$_Uninitialized_move@PAHPAHV?$allocator@H@std@@@std@@YAPAHPAH00AAV?$allocator@H@0@@Z ENDP ; std::_Uninitialized_move<int *,int *,std::allocator<int> >
_TEXT	ENDS
PUBLIC	_szType$GSCopy$
PUBLIC	_pImage$GSCopy$
PUBLIC	_this$GSCopy$
PUBLIC	__$ArrayPad$
EXTRN	__imp_?AddRenderImage@ioWnd@@UAEXABVioHashString@@PAVioUIRenderImage@@@Z:PROC
; Function compile flags: /Ogsp
; File d:\lost saga for developer\youtube\tutorial\source\src\lsclient\gui\excavationwnd.cpp
;	COMDAT ?AddRenderImage@ExcavationResultWnd@@UAEXABVioHashString@@PAVioUIRenderImage@@@Z
_TEXT	SEGMENT
_szType$GSCopy$ = -40					; size = 4
_pImage$GSCopy$ = -36					; size = 4
_this$GSCopy$ = -32					; size = 4
__t$543585 = -28					; size = 17
__t$543509 = -28					; size = 16
__t$543848 = -24					; size = 11
__t$543710 = -20					; size = 9
__$ArrayPad$ = -4					; size = 4
_szType$ = 8						; size = 4
_pImage$ = 12						; size = 4
?AddRenderImage@ExcavationResultWnd@@UAEXABVioHashString@@PAVioUIRenderImage@@@Z PROC ; ExcavationResultWnd::AddRenderImage, COMDAT
; _this$ = ecx

; 90   : {

  00000	55		 push	 ebp
  00001	8b ec		 mov	 ebp, esp
  00003	83 ec 28	 sub	 esp, 40			; 00000028H
  00006	a1 00 00 00 00	 mov	 eax, DWORD PTR ___security_cookie
  0000b	33 c5		 xor	 eax, ebp
  0000d	89 45 fc	 mov	 DWORD PTR __$ArrayPad$[ebp], eax
  00010	8b 45 0c	 mov	 eax, DWORD PTR _pImage$[ebp]
  00013	53		 push	 ebx
  00014	56		 push	 esi
  00015	57		 push	 edi
  00016	8b 7d 08	 mov	 edi, DWORD PTR _szType$[ebp]

; 91   : 	if( szType == "red_back_effect" )

  00019	6a 03		 push	 3
  0001b	89 4d e0	 mov	 DWORD PTR _this$GSCopy$[ebp], ecx

; 105  : 	}
; 106  : 	else if( szType == "plus_image" )

  0001e	89 45 dc	 mov	 DWORD PTR _pImage$GSCopy$[ebp], eax
  00021	89 7d d8	 mov	 DWORD PTR _szType$GSCopy$[ebp], edi
  00024	c7 45 e4 9f 89
	8f b5		 mov	 DWORD PTR __t$543509[ebp], -1248884321 ; b58f899fH
  0002b	c7 45 e8 8f 8d
	88 81		 mov	 DWORD PTR __t$543509[ebp+4], -2121757297 ; 81888d8fH
  00032	c7 45 ec b2 89
	8d 8c		 mov	 DWORD PTR __t$543509[ebp+8], -1936881230 ; 8c8d89b2H
  00039	8d 45 e4	 lea	 eax, DWORD PTR __t$543509[ebp]
  0003c	33 db		 xor	 ebx, ebx
  0003e	c7 45 f0 88 8f
	9f 00		 mov	 DWORD PTR __t$543509[ebp+12], 10456968 ; 009f8f88H
  00045	59		 pop	 ecx
$LL126@AddRenderI:

; 91   : 	if( szType == "red_back_effect" )

  00046	81 30 ed ec eb
	ea		 xor	 DWORD PTR [eax], -353637139 ; eaebecedH
  0004c	83 c0 04	 add	 eax, 4
  0004f	49		 dec	 ecx
  00050	75 f4		 jne	 SHORT $LL126@AddRenderI
  00052	6a 0c		 push	 12			; 0000000cH
  00054	58		 pop	 eax
$LL123@AddRenderI:
  00055	8b c8		 mov	 ecx, eax
  00057	81 e1 03 00 00
	80		 and	 ecx, -2147483645	; 80000003H
  0005d	79 05		 jns	 SHORT $LN482@AddRenderI
  0005f	49		 dec	 ecx
  00060	83 c9 fc	 or	 ecx, -4			; fffffffcH
  00063	41		 inc	 ecx
$LN482@AddRenderI:
  00064	b2 ed		 mov	 dl, -19			; ffffffedH
  00066	2a d1		 sub	 dl, cl
  00068	30 54 05 e4	 xor	 BYTE PTR __t$543509[ebp+eax], dl
  0006c	40		 inc	 eax
  0006d	83 f8 0f	 cmp	 eax, 15			; 0000000fH
  00070	7c e3		 jl	 SHORT $LL123@AddRenderI
  00072	8b cf		 mov	 ecx, edi
  00074	8d 75 e4	 lea	 esi, DWORD PTR __t$543509[ebp]
  00077	ff 15 00 00 00
	00		 call	 DWORD PTR __imp_?c_str@ioHashString@@QBEPBDXZ
  0007d	6a 02		 push	 2
  0007f	5f		 pop	 edi
$LL466@AddRenderI:
  00080	8a 08		 mov	 cl, BYTE PTR [eax]
  00082	3a 0e		 cmp	 cl, BYTE PTR [esi]
  00084	75 18		 jne	 SHORT $LN467@AddRenderI
  00086	3a cb		 cmp	 cl, bl
  00088	74 10		 je	 SHORT $LN468@AddRenderI
  0008a	8a 48 01	 mov	 cl, BYTE PTR [eax+1]
  0008d	3a 4e 01	 cmp	 cl, BYTE PTR [esi+1]
  00090	75 0c		 jne	 SHORT $LN467@AddRenderI
  00092	03 c7		 add	 eax, edi
  00094	03 f7		 add	 esi, edi
  00096	3a cb		 cmp	 cl, bl
  00098	75 e6		 jne	 SHORT $LL466@AddRenderI
$LN468@AddRenderI:
  0009a	33 c0		 xor	 eax, eax
  0009c	eb 05		 jmp	 SHORT $LN469@AddRenderI
$LN467@AddRenderI:
  0009e	1b c0		 sbb	 eax, eax
  000a0	83 d8 ff	 sbb	 eax, -1
$LN469@AddRenderI:
  000a3	3b c3		 cmp	 eax, ebx
  000a5	75 28		 jne	 SHORT $LN463@AddRenderI

; 92   : 	{
; 93   : 		SAFEDELETE( m_pRedBackEffect );

  000a7	8b 75 e0	 mov	 esi, DWORD PTR _this$GSCopy$[ebp]
  000aa	8b 8e 64 01 00
	00		 mov	 ecx, DWORD PTR [esi+356]
  000b0	3b cb		 cmp	 ecx, ebx
  000b2	74 0d		 je	 SHORT $LN11@AddRenderI
  000b4	8b 01		 mov	 eax, DWORD PTR [ecx]
  000b6	6a 01		 push	 1
  000b8	ff 50 40	 call	 DWORD PTR [eax+64]
  000bb	89 9e 64 01 00
	00		 mov	 DWORD PTR [esi+356], ebx
$LN11@AddRenderI:

; 94   : 		m_pRedBackEffect = pImage;

  000c1	8b 45 dc	 mov	 eax, DWORD PTR _pImage$GSCopy$[ebp]
  000c4	89 86 64 01 00
	00		 mov	 DWORD PTR [esi+356], eax
  000ca	e9 b8 01 00 00	 jmp	 $LN1@AddRenderI
$LN463@AddRenderI:

; 95   : 	}
; 96   : 	else if( szType == "blue_back_effect" )

  000cf	6a 04		 push	 4
  000d1	c7 45 e4 8f 80
	9e 8f		 mov	 DWORD PTR __t$543585[ebp], -1885437809 ; 8f9e808fH
  000d8	c7 45 e8 b2 8e
	8a 89		 mov	 DWORD PTR __t$543585[ebp+4], -1987408206 ; 898a8eb2H
  000df	c7 45 ec 86 b3
	8e 8c		 mov	 DWORD PTR __t$543585[ebp+8], -1936804986 ; 8c8eb386H
  000e6	c7 45 f0 8b 89
	88 9e		 mov	 DWORD PTR __t$543585[ebp+12], -1635219061 ; 9e88898bH
  000ed	8d 45 e4	 lea	 eax, DWORD PTR __t$543585[ebp]
  000f0	88 5d f4	 mov	 BYTE PTR __t$543585[ebp+16], bl
  000f3	59		 pop	 ecx
$LL232@AddRenderI:
  000f4	81 30 ed ec eb
	ea		 xor	 DWORD PTR [eax], -353637139 ; eaebecedH
  000fa	83 c0 04	 add	 eax, 4
  000fd	49		 dec	 ecx
  000fe	75 f4		 jne	 SHORT $LL232@AddRenderI
  00100	8b 4d d8	 mov	 ecx, DWORD PTR _szType$GSCopy$[ebp]
  00103	8d 75 e4	 lea	 esi, DWORD PTR __t$543585[ebp]
  00106	ff 15 00 00 00
	00		 call	 DWORD PTR __imp_?c_str@ioHashString@@QBEPBDXZ
$LL470@AddRenderI:
  0010c	8a 08		 mov	 cl, BYTE PTR [eax]
  0010e	3a 0e		 cmp	 cl, BYTE PTR [esi]
  00110	75 18		 jne	 SHORT $LN471@AddRenderI
  00112	3a cb		 cmp	 cl, bl
  00114	74 10		 je	 SHORT $LN472@AddRenderI
  00116	8a 48 01	 mov	 cl, BYTE PTR [eax+1]
  00119	3a 4e 01	 cmp	 cl, BYTE PTR [esi+1]
  0011c	75 0c		 jne	 SHORT $LN471@AddRenderI
  0011e	03 c7		 add	 eax, edi
  00120	03 f7		 add	 esi, edi
  00122	3a cb		 cmp	 cl, bl
  00124	75 e6		 jne	 SHORT $LL470@AddRenderI
$LN472@AddRenderI:
  00126	33 c0		 xor	 eax, eax
  00128	eb 05		 jmp	 SHORT $LN473@AddRenderI
$LN471@AddRenderI:
  0012a	1b c0		 sbb	 eax, eax
  0012c	83 d8 ff	 sbb	 eax, -1
$LN473@AddRenderI:
  0012f	3b c3		 cmp	 eax, ebx
  00131	75 28		 jne	 SHORT $LN464@AddRenderI

; 97   : 	{
; 98   : 		SAFEDELETE( m_pBlueBackEffect );

  00133	8b 75 e0	 mov	 esi, DWORD PTR _this$GSCopy$[ebp]
  00136	8b 8e 68 01 00
	00		 mov	 ecx, DWORD PTR [esi+360]
  0013c	3b cb		 cmp	 ecx, ebx
  0013e	74 0d		 je	 SHORT $LN8@AddRenderI
  00140	8b 01		 mov	 eax, DWORD PTR [ecx]
  00142	6a 01		 push	 1
  00144	ff 50 40	 call	 DWORD PTR [eax+64]
  00147	89 9e 68 01 00
	00		 mov	 DWORD PTR [esi+360], ebx
$LN8@AddRenderI:

; 99   : 		m_pBlueBackEffect = pImage;

  0014d	8b 45 dc	 mov	 eax, DWORD PTR _pImage$GSCopy$[ebp]
  00150	89 86 68 01 00
	00		 mov	 DWORD PTR [esi+360], eax
  00156	e9 2c 01 00 00	 jmp	 $LN1@AddRenderI
$LN464@AddRenderI:

; 100  : 	}
; 101  : 	else if( szType == "num_text" )

  0015b	c7 45 ec 83 99
	86 b5		 mov	 DWORD PTR __t$543710[ebp], -1249470077 ; b5869983H
  00162	c7 45 f0 99 89
	93 9e		 mov	 DWORD PTR __t$543710[ebp+4], -1634498151 ; 9e938999H
  00169	8d 45 ec	 lea	 eax, DWORD PTR __t$543710[ebp]
  0016c	88 5d f4	 mov	 BYTE PTR __t$543710[ebp+8], bl
  0016f	8b cf		 mov	 ecx, edi
$LL338@AddRenderI:
  00171	81 30 ed ec eb
	ea		 xor	 DWORD PTR [eax], -353637139 ; eaebecedH
  00177	83 c0 04	 add	 eax, 4
  0017a	49		 dec	 ecx
  0017b	75 f4		 jne	 SHORT $LL338@AddRenderI
  0017d	8b 4d d8	 mov	 ecx, DWORD PTR _szType$GSCopy$[ebp]
  00180	8d 75 ec	 lea	 esi, DWORD PTR __t$543710[ebp]
  00183	ff 15 00 00 00
	00		 call	 DWORD PTR __imp_?c_str@ioHashString@@QBEPBDXZ
$LL474@AddRenderI:
  00189	8a 08		 mov	 cl, BYTE PTR [eax]
  0018b	3a 0e		 cmp	 cl, BYTE PTR [esi]
  0018d	75 18		 jne	 SHORT $LN475@AddRenderI
  0018f	3a cb		 cmp	 cl, bl
  00191	74 10		 je	 SHORT $LN476@AddRenderI
  00193	8a 48 01	 mov	 cl, BYTE PTR [eax+1]
  00196	3a 4e 01	 cmp	 cl, BYTE PTR [esi+1]
  00199	75 0c		 jne	 SHORT $LN475@AddRenderI
  0019b	03 c7		 add	 eax, edi
  0019d	03 f7		 add	 esi, edi
  0019f	3a cb		 cmp	 cl, bl
  001a1	75 e6		 jne	 SHORT $LL474@AddRenderI
$LN476@AddRenderI:
  001a3	33 c0		 xor	 eax, eax
  001a5	eb 05		 jmp	 SHORT $LN477@AddRenderI
$LN475@AddRenderI:
  001a7	1b c0		 sbb	 eax, eax
  001a9	83 d8 ff	 sbb	 eax, -1
$LN477@AddRenderI:
  001ac	3b c3		 cmp	 eax, ebx
  001ae	75 28		 jne	 SHORT $LN465@AddRenderI

; 102  : 	{
; 103  : 		SAFEDELETE( m_pNumText );

  001b0	8b 75 e0	 mov	 esi, DWORD PTR _this$GSCopy$[ebp]
  001b3	8b 8e 6c 01 00
	00		 mov	 ecx, DWORD PTR [esi+364]
  001b9	3b cb		 cmp	 ecx, ebx
  001bb	74 0d		 je	 SHORT $LN5@AddRenderI
  001bd	8b 01		 mov	 eax, DWORD PTR [ecx]
  001bf	6a 01		 push	 1
  001c1	ff 50 40	 call	 DWORD PTR [eax+64]
  001c4	89 9e 6c 01 00
	00		 mov	 DWORD PTR [esi+364], ebx
$LN5@AddRenderI:

; 104  : 		m_pNumText = pImage;

  001ca	8b 45 dc	 mov	 eax, DWORD PTR _pImage$GSCopy$[ebp]
  001cd	89 86 6c 01 00
	00		 mov	 DWORD PTR [esi+364], eax
  001d3	e9 af 00 00 00	 jmp	 $LN1@AddRenderI
$LN465@AddRenderI:

; 105  : 	}
; 106  : 	else if( szType == "plus_image" )

  001d8	c7 45 e8 9d 80
	9e 99		 mov	 DWORD PTR __t$543848[ebp], -1717665635 ; 999e809dH
  001df	c7 45 ec b2 85
	86 8b		 mov	 DWORD PTR __t$543848[ebp+4], -1954118222 ; 8b8685b2H
  001e6	66 c7 45 f0 8a
	89		 mov	 WORD PTR __t$543848[ebp+8], 35210 ; 0000898aH
  001ec	8d 45 e8	 lea	 eax, DWORD PTR __t$543848[ebp]
  001ef	88 5d f2	 mov	 BYTE PTR __t$543848[ebp+10], bl
  001f2	8b cf		 mov	 ecx, edi
$LL444@AddRenderI:
  001f4	81 30 ed ec eb
	ea		 xor	 DWORD PTR [eax], -353637139 ; eaebecedH
  001fa	83 c0 04	 add	 eax, 4
  001fd	49		 dec	 ecx
  001fe	75 f4		 jne	 SHORT $LL444@AddRenderI
  00200	6a 08		 push	 8
  00202	58		 pop	 eax
$LL441@AddRenderI:
  00203	8b c8		 mov	 ecx, eax
  00205	81 e1 03 00 00
	80		 and	 ecx, -2147483645	; 80000003H
  0020b	79 05		 jns	 SHORT $LN483@AddRenderI
  0020d	49		 dec	 ecx
  0020e	83 c9 fc	 or	 ecx, -4			; fffffffcH
  00211	41		 inc	 ecx
$LN483@AddRenderI:
  00212	b2 ed		 mov	 dl, -19			; ffffffedH
  00214	2a d1		 sub	 dl, cl
  00216	30 54 05 e8	 xor	 BYTE PTR __t$543848[ebp+eax], dl
  0021a	40		 inc	 eax
  0021b	83 f8 0a	 cmp	 eax, 10			; 0000000aH
  0021e	7c e3		 jl	 SHORT $LL441@AddRenderI
  00220	8b 4d d8	 mov	 ecx, DWORD PTR _szType$GSCopy$[ebp]
  00223	8d 75 e8	 lea	 esi, DWORD PTR __t$543848[ebp]
  00226	ff 15 00 00 00
	00		 call	 DWORD PTR __imp_?c_str@ioHashString@@QBEPBDXZ
$LL478@AddRenderI:
  0022c	8a 08		 mov	 cl, BYTE PTR [eax]
  0022e	3a 0e		 cmp	 cl, BYTE PTR [esi]
  00230	75 18		 jne	 SHORT $LN479@AddRenderI
  00232	3a cb		 cmp	 cl, bl
  00234	74 10		 je	 SHORT $LN480@AddRenderI
  00236	8a 48 01	 mov	 cl, BYTE PTR [eax+1]
  00239	3a 4e 01	 cmp	 cl, BYTE PTR [esi+1]
  0023c	75 0c		 jne	 SHORT $LN479@AddRenderI
  0023e	03 c7		 add	 eax, edi
  00240	03 f7		 add	 esi, edi
  00242	3a cb		 cmp	 cl, bl
  00244	75 e6		 jne	 SHORT $LL478@AddRenderI
$LN480@AddRenderI:
  00246	33 c0		 xor	 eax, eax
  00248	eb 05		 jmp	 SHORT $LN481@AddRenderI
$LN479@AddRenderI:
  0024a	1b c0		 sbb	 eax, eax
  0024c	83 d8 ff	 sbb	 eax, -1
$LN481@AddRenderI:
  0024f	3b c3		 cmp	 eax, ebx
  00251	75 25		 jne	 SHORT $LN3@AddRenderI

; 107  : 	{
; 108  : 		SAFEDELETE( m_pPlusText );

  00253	8b 75 e0	 mov	 esi, DWORD PTR _this$GSCopy$[ebp]
  00256	8b 8e 70 01 00
	00		 mov	 ecx, DWORD PTR [esi+368]
  0025c	3b cb		 cmp	 ecx, ebx
  0025e	74 0d		 je	 SHORT $LN2@AddRenderI
  00260	8b 01		 mov	 eax, DWORD PTR [ecx]
  00262	6a 01		 push	 1
  00264	ff 50 40	 call	 DWORD PTR [eax+64]
  00267	89 9e 70 01 00
	00		 mov	 DWORD PTR [esi+368], ebx
$LN2@AddRenderI:

; 109  : 		m_pPlusText = pImage;

  0026d	8b 45 dc	 mov	 eax, DWORD PTR _pImage$GSCopy$[ebp]
  00270	89 86 70 01 00
	00		 mov	 DWORD PTR [esi+368], eax

; 110  : 	}
; 111  : 	else

  00276	eb 0f		 jmp	 SHORT $LN1@AddRenderI
$LN3@AddRenderI:

; 112  : 		ioWnd::AddRenderImage( szType, pImage );

  00278	ff 75 dc	 push	 DWORD PTR _pImage$GSCopy$[ebp]
  0027b	8b 4d e0	 mov	 ecx, DWORD PTR _this$GSCopy$[ebp]
  0027e	ff 75 d8	 push	 DWORD PTR _szType$GSCopy$[ebp]
  00281	ff 15 00 00 00
	00		 call	 DWORD PTR __imp_?AddRenderImage@ioWnd@@UAEXABVioHashString@@PAVioUIRenderImage@@@Z
$LN1@AddRenderI:

; 113  : }

  00287	8b 4d fc	 mov	 ecx, DWORD PTR __$ArrayPad$[ebp]
  0028a	5f		 pop	 edi
  0028b	5e		 pop	 esi
  0028c	33 cd		 xor	 ecx, ebp
  0028e	5b		 pop	 ebx
  0028f	e8 00 00 00 00	 call	 @__security_check_cookie@4
  00294	c9		 leave
  00295	c2 08 00	 ret	 8
?AddRenderImage@ExcavationResultWnd@@UAEXABVioHashString@@PAVioUIRenderImage@@@Z ENDP ; ExcavationResultWnd::AddRenderImage
_TEXT	ENDS
PUBLIC	_xElement$GSCopy$
PUBLIC	__$ArrayPad$
; Function compile flags: /Ogsp
;	COMDAT ?ParseExtraInfo@ExcavationResultWnd@@UAEXAAVioXMLElement@@@Z
_TEXT	SEGMENT
_xElement$GSCopy$ = -32					; size = 4
__k$544752 = -28					; size = 18
__k$544438 = -28					; size = 16
__k$544140 = -28					; size = 19
__k$544627 = -24					; size = 13
__k$544502 = -24					; size = 14
__k$544015 = -24					; size = 13
__k$544265 = -20					; size = 11
__$ArrayPad$ = -4					; size = 4
_xElement$ = 8						; size = 4
?ParseExtraInfo@ExcavationResultWnd@@UAEXAAVioXMLElement@@@Z PROC ; ExcavationResultWnd::ParseExtraInfo, COMDAT
; _this$ = ecx

; 116  : {

  00000	55		 push	 ebp
  00001	8b ec		 mov	 ebp, esp
  00003	83 ec 20	 sub	 esp, 32			; 00000020H
  00006	a1 00 00 00 00	 mov	 eax, DWORD PTR ___security_cookie
  0000b	33 c5		 xor	 eax, ebp
  0000d	89 45 fc	 mov	 DWORD PTR __$ArrayPad$[ebp], eax
  00010	53		 push	 ebx
  00011	8b 5d 08	 mov	 ebx, DWORD PTR _xElement$[ebp]
  00014	56		 push	 esi
  00015	57		 push	 edi

; 117  : 	m_dwRollingTime      = xElement.GetIntAttribute_e( "Rolling_Time" );

  00016	6a 03		 push	 3
  00018	8b f1		 mov	 esi, ecx

; 125  : 	m_szResultFailSound = xElement.GetStringAttribute_e( "Result_Fail_Sound" );

  0001a	89 5d e0	 mov	 DWORD PTR _xElement$GSCopy$[ebp], ebx
  0001d	c7 45 e8 bf 83
	87 86		 mov	 DWORD PTR __k$544015[ebp], -2037939265 ; 868783bfH
  00024	c7 45 ec 84 82
	8c b5		 mov	 DWORD PTR __k$544015[ebp+4], -1249082748 ; b58c8284H
  0002b	c7 45 f0 b9 85
	86 8f		 mov	 DWORD PTR __k$544015[ebp+8], -1887009351 ; 8f8685b9H
  00032	8d 45 e8	 lea	 eax, DWORD PTR __k$544015[ebp]
  00035	c6 45 f4 00	 mov	 BYTE PTR __k$544015[ebp+12], 0
  00039	59		 pop	 ecx
$LL106@ParseExtra:

; 117  : 	m_dwRollingTime      = xElement.GetIntAttribute_e( "Rolling_Time" );

  0003a	81 30 ed ec eb
	ea		 xor	 DWORD PTR [eax], -353637139 ; eaebecedH
  00040	83 c0 04	 add	 eax, 4
  00043	49		 dec	 ecx
  00044	75 f4		 jne	 SHORT $LL106@ParseExtra
  00046	8b 3d 00 00 00
	00		 mov	 edi, DWORD PTR __imp_?GetIntAttribute@ioXMLElement@@QBEHPBD@Z
  0004c	8d 45 e8	 lea	 eax, DWORD PTR __k$544015[ebp]
  0004f	50		 push	 eax
  00050	8b cb		 mov	 ecx, ebx
  00052	ff d7		 call	 edi
  00054	6a 04		 push	 4
  00056	89 86 94 01 00
	00		 mov	 DWORD PTR [esi+404], eax

; 118  : 	m_dwRollingTotalTime = xElement.GetIntAttribute_e( "Rolling_Total_Time" );

  0005c	c7 45 e4 bf 83
	87 86		 mov	 DWORD PTR __k$544140[ebp], -2037939265 ; 868783bfH
  00063	c7 45 e8 84 82
	8c b5		 mov	 DWORD PTR __k$544140[ebp+4], -1249082748 ; b58c8284H
  0006a	c7 45 ec b9 83
	9f 8b		 mov	 DWORD PTR __k$544140[ebp+8], -1952480327 ; 8b9f83b9H
  00071	c7 45 f0 81 b3
	bf 83		 mov	 DWORD PTR __k$544140[ebp+12], -2084588671 ; 83bfb381H
  00078	66 c7 45 f4 80
	89		 mov	 WORD PTR __k$544140[ebp+16], 35200 ; 00008980H
  0007e	8d 45 e4	 lea	 eax, DWORD PTR __k$544140[ebp]
  00081	c6 45 f6 00	 mov	 BYTE PTR __k$544140[ebp+18], 0
  00085	59		 pop	 ecx
$LL212@ParseExtra:
  00086	81 30 ed ec eb
	ea		 xor	 DWORD PTR [eax], -353637139 ; eaebecedH
  0008c	83 c0 04	 add	 eax, 4
  0008f	49		 dec	 ecx
  00090	75 f4		 jne	 SHORT $LL212@ParseExtra
  00092	6a 10		 push	 16			; 00000010H
  00094	58		 pop	 eax
$LL209@ParseExtra:
  00095	8b c8		 mov	 ecx, eax
  00097	81 e1 03 00 00
	80		 and	 ecx, -2147483645	; 80000003H
  0009d	79 05		 jns	 SHORT $LN773@ParseExtra
  0009f	49		 dec	 ecx
  000a0	83 c9 fc	 or	 ecx, -4			; fffffffcH
  000a3	41		 inc	 ecx
$LN773@ParseExtra:
  000a4	b2 ed		 mov	 dl, -19			; ffffffedH
  000a6	2a d1		 sub	 dl, cl
  000a8	30 54 05 e4	 xor	 BYTE PTR __k$544140[ebp+eax], dl
  000ac	40		 inc	 eax
  000ad	83 f8 12	 cmp	 eax, 18			; 00000012H
  000b0	7c e3		 jl	 SHORT $LL209@ParseExtra
  000b2	8d 45 e4	 lea	 eax, DWORD PTR __k$544140[ebp]
  000b5	50		 push	 eax
  000b6	8b cb		 mov	 ecx, ebx
  000b8	ff d7		 call	 edi
  000ba	6a 02		 push	 2
  000bc	89 86 98 01 00
	00		 mov	 DWORD PTR [esi+408], eax

; 119  : 
; 120  : 	m_fIconScale      = xElement.GetFloatAttribute_e( "Icon_Scale" );

  000c2	c7 45 ec a4 8f
	84 84		 mov	 DWORD PTR __k$544265[ebp], -2071687260 ; 84848fa4H
  000c9	c7 45 f0 b2 bf
	88 8b		 mov	 DWORD PTR __k$544265[ebp+4], -1953972302 ; 8b88bfb2H
  000d0	66 c7 45 f4 81
	89		 mov	 WORD PTR __k$544265[ebp+8], 35201 ; 00008981H
  000d6	8d 45 ec	 lea	 eax, DWORD PTR __k$544265[ebp]
  000d9	c6 45 f6 00	 mov	 BYTE PTR __k$544265[ebp+10], 0
  000dd	59		 pop	 ecx
$LL318@ParseExtra:
  000de	81 30 ed ec eb
	ea		 xor	 DWORD PTR [eax], -353637139 ; eaebecedH
  000e4	83 c0 04	 add	 eax, 4
  000e7	49		 dec	 ecx
  000e8	75 f4		 jne	 SHORT $LL318@ParseExtra
  000ea	6a 08		 push	 8
  000ec	58		 pop	 eax
$LL315@ParseExtra:
  000ed	8b c8		 mov	 ecx, eax
  000ef	81 e1 03 00 00
	80		 and	 ecx, -2147483645	; 80000003H
  000f5	79 05		 jns	 SHORT $LN774@ParseExtra
  000f7	49		 dec	 ecx
  000f8	83 c9 fc	 or	 ecx, -4			; fffffffcH
  000fb	41		 inc	 ecx
$LN774@ParseExtra:
  000fc	b2 ed		 mov	 dl, -19			; ffffffedH
  000fe	2a d1		 sub	 dl, cl
  00100	30 54 05 ec	 xor	 BYTE PTR __k$544265[ebp+eax], dl
  00104	40		 inc	 eax
  00105	83 f8 0a	 cmp	 eax, 10			; 0000000aH
  00108	7c e3		 jl	 SHORT $LL315@ParseExtra
  0010a	8d 45 ec	 lea	 eax, DWORD PTR __k$544265[ebp]
  0010d	50		 push	 eax
  0010e	8b cb		 mov	 ecx, ebx
  00110	ff 15 00 00 00
	00		 call	 DWORD PTR __imp_?GetFloatAttribute@ioXMLElement@@QBEMPBD@Z
  00116	d9 9e 8c 01 00
	00		 fstp	 DWORD PTR [esi+396]
  0011c	6a 03		 push	 3

; 121  : 	m_dwIconScaleTime = xElement.GetIntAttribute_e( "Icon_Scale_Time" );

  0011e	c7 45 e4 a4 8f
	84 84		 mov	 DWORD PTR __k$544438[ebp], -2071687260 ; 84848fa4H
  00125	c7 45 e8 b2 bf
	88 8b		 mov	 DWORD PTR __k$544438[ebp+4], -1953972302 ; 8b88bfb2H
  0012c	c7 45 ec 81 89
	b4 be		 mov	 DWORD PTR __k$544438[ebp+8], -1095464575 ; beb48981H
  00133	8d 45 e4	 lea	 eax, DWORD PTR __k$544438[ebp]
  00136	c7 45 f0 84 81
	8e 00		 mov	 DWORD PTR __k$544438[ebp+12], 9339268 ; 008e8184H
  0013d	59		 pop	 ecx
$LL424@ParseExtra:
  0013e	81 30 ed ec eb
	ea		 xor	 DWORD PTR [eax], -353637139 ; eaebecedH
  00144	83 c0 04	 add	 eax, 4
  00147	49		 dec	 ecx
  00148	75 f4		 jne	 SHORT $LL424@ParseExtra
  0014a	6a 0c		 push	 12			; 0000000cH
  0014c	58		 pop	 eax
$LL421@ParseExtra:
  0014d	8b c8		 mov	 ecx, eax
  0014f	81 e1 03 00 00
	80		 and	 ecx, -2147483645	; 80000003H
  00155	79 05		 jns	 SHORT $LN775@ParseExtra
  00157	49		 dec	 ecx
  00158	83 c9 fc	 or	 ecx, -4			; fffffffcH
  0015b	41		 inc	 ecx
$LN775@ParseExtra:
  0015c	b2 ed		 mov	 dl, -19			; ffffffedH
  0015e	2a d1		 sub	 dl, cl
  00160	30 54 05 e4	 xor	 BYTE PTR __k$544438[ebp+eax], dl
  00164	40		 inc	 eax
  00165	83 f8 0f	 cmp	 eax, 15			; 0000000fH
  00168	7c e3		 jl	 SHORT $LL421@ParseExtra
  0016a	8d 45 e4	 lea	 eax, DWORD PTR __k$544438[ebp]
  0016d	50		 push	 eax
  0016e	8b cb		 mov	 ecx, ebx
  00170	ff d7		 call	 edi
  00172	6a 03		 push	 3
  00174	89 86 90 01 00
	00		 mov	 DWORD PTR [esi+400], eax

; 122  : 
; 123  : 	m_szRollingSound = xElement.GetStringAttribute_e( "Rolling_Sound" );

  0017a	c7 45 e8 bf 83
	87 86		 mov	 DWORD PTR __k$544502[ebp], -2037939265 ; 868783bfH
  00181	c7 45 ec 84 82
	8c b5		 mov	 DWORD PTR __k$544502[ebp+4], -1249082748 ; b58c8284H
  00188	c7 45 f0 be 83
	9e 84		 mov	 DWORD PTR __k$544502[ebp+8], -2069986370 ; 849e83beH
  0018f	8d 45 e8	 lea	 eax, DWORD PTR __k$544502[ebp]
  00192	66 c7 45 f4 89
	00		 mov	 WORD PTR __k$544502[ebp+12], 137 ; 00000089H
  00198	59		 pop	 ecx
$LL530@ParseExtra:
  00199	81 30 ed ec eb
	ea		 xor	 DWORD PTR [eax], -353637139 ; eaebecedH
  0019f	83 c0 04	 add	 eax, 4
  001a2	49		 dec	 ecx
  001a3	75 f4		 jne	 SHORT $LL530@ParseExtra
  001a5	8b 3d 00 00 00
	00		 mov	 edi, DWORD PTR __imp_?GetStringAttribute@ioXMLElement@@QBEPBDPBD@Z
  001ab	80 75 f4 ed	 xor	 BYTE PTR __k$544502[ebp+12], -19 ; ffffffedH
  001af	8d 45 e8	 lea	 eax, DWORD PTR __k$544502[ebp]
  001b2	50		 push	 eax
  001b3	8b cb		 mov	 ecx, ebx
  001b5	ff d7		 call	 edi
  001b7	8b 1d 00 00 00
	00		 mov	 ebx, DWORD PTR __imp_??4ioHashString@@QAEAAV0@PBD@Z
  001bd	50		 push	 eax
  001be	8d 8e b0 01 00
	00		 lea	 ecx, DWORD PTR [esi+432]
  001c4	ff d3		 call	 ebx
  001c6	6a 03		 push	 3

; 124  : 	m_szResultSound  = xElement.GetStringAttribute_e( "Result_Sound" );

  001c8	c7 45 e8 bf 89
	98 9f		 mov	 DWORD PTR __k$544627[ebp], -1617393217 ; 9f9889bfH
  001cf	c7 45 ec 81 98
	b4 b9		 mov	 DWORD PTR __k$544627[ebp+4], -1179346815 ; b9b49881H
  001d6	c7 45 f0 82 99
	85 8e		 mov	 DWORD PTR __k$544627[ebp+8], -1903847038 ; 8e859982H
  001dd	8d 45 e8	 lea	 eax, DWORD PTR __k$544627[ebp]
  001e0	c6 45 f4 00	 mov	 BYTE PTR __k$544627[ebp+12], 0
  001e4	59		 pop	 ecx
$LL636@ParseExtra:
  001e5	81 30 ed ec eb
	ea		 xor	 DWORD PTR [eax], -353637139 ; eaebecedH
  001eb	83 c0 04	 add	 eax, 4
  001ee	49		 dec	 ecx
  001ef	75 f4		 jne	 SHORT $LL636@ParseExtra
  001f1	8b 4d e0	 mov	 ecx, DWORD PTR _xElement$GSCopy$[ebp]
  001f4	8d 45 e8	 lea	 eax, DWORD PTR __k$544627[ebp]
  001f7	50		 push	 eax
  001f8	ff d7		 call	 edi
  001fa	50		 push	 eax
  001fb	8d 8e c0 01 00
	00		 lea	 ecx, DWORD PTR [esi+448]
  00201	ff d3		 call	 ebx
  00203	6a 04		 push	 4

; 125  : 	m_szResultFailSound = xElement.GetStringAttribute_e( "Result_Fail_Sound" );

  00205	c7 45 e4 bf 89
	98 9f		 mov	 DWORD PTR __k$544752[ebp], -1617393217 ; 9f9889bfH
  0020c	c7 45 e8 81 98
	b4 ac		 mov	 DWORD PTR __k$544752[ebp+4], -1397450623 ; acb49881H
  00213	c7 45 ec 8c 85
	87 b5		 mov	 DWORD PTR __k$544752[ebp+8], -1249409652 ; b587858cH
  0021a	c7 45 f0 be 83
	9e 84		 mov	 DWORD PTR __k$544752[ebp+12], -2069986370 ; 849e83beH
  00221	8d 45 e4	 lea	 eax, DWORD PTR __k$544752[ebp]
  00224	66 c7 45 f4 89
	00		 mov	 WORD PTR __k$544752[ebp+16], 137 ; 00000089H
  0022a	59		 pop	 ecx
$LL742@ParseExtra:
  0022b	81 30 ed ec eb
	ea		 xor	 DWORD PTR [eax], -353637139 ; eaebecedH
  00231	83 c0 04	 add	 eax, 4
  00234	49		 dec	 ecx
  00235	75 f4		 jne	 SHORT $LL742@ParseExtra
  00237	8b 4d e0	 mov	 ecx, DWORD PTR _xElement$GSCopy$[ebp]
  0023a	80 75 f4 ed	 xor	 BYTE PTR __k$544752[ebp+16], -19 ; ffffffedH
  0023e	8d 45 e4	 lea	 eax, DWORD PTR __k$544752[ebp]
  00241	50		 push	 eax
  00242	ff d7		 call	 edi
  00244	50		 push	 eax
  00245	8d 8e d0 01 00
	00		 lea	 ecx, DWORD PTR [esi+464]
  0024b	ff d3		 call	 ebx

; 126  : }

  0024d	8b 4d fc	 mov	 ecx, DWORD PTR __$ArrayPad$[ebp]
  00250	5f		 pop	 edi
  00251	5e		 pop	 esi
  00252	33 cd		 xor	 ecx, ebp
  00254	5b		 pop	 ebx
  00255	e8 00 00 00 00	 call	 @__security_check_cookie@4
  0025a	c9		 leave
  0025b	c2 04 00	 ret	 4
?ParseExtraInfo@ExcavationResultWnd@@UAEXAAVioXMLElement@@@Z ENDP ; ExcavationResultWnd::ParseExtraInfo
_TEXT	ENDS
PUBLIC	??_C@_0CF@JEHAODIH@ExcavationResultWnd?3?3SetArtifact@ ; `string'
PUBLIC	?SetArtifactInfo@ExcavationResultWnd@@IAEXXZ	; ExcavationResultWnd::SetArtifactInfo
EXTRN	__imp_?SafeSprintf@@YAXPADHPBDH@Z:PROC
EXTRN	__imp_?SafeSprintf@@YAXPADHPBDH1@Z:PROC
EXTRN	?GetItemConst@ioItemMaker@@QBEPBVioItem@@KABVioHashString@@@Z:PROC ; ioItemMaker::GetItemConst
EXTRN	?GetSingleton@ioItemMaker@@SAAAV1@XZ:PROC	; ioItemMaker::GetSingleton
EXTRN	__imp_??0ioHashString@@QAE@PBD@Z:PROC
EXTRN	__imp_?SafeSprintf@@YAXPADHPBD1@Z:PROC
EXTRN	?ConvertNumToStrComma@Help@@YAXHPADH@Z:PROC	; Help::ConvertNumToStrComma
EXTRN	?GetGradeRate@ioExcavationManager@@QAEMH@Z:PROC	; ioExcavationManager::GetGradeRate
EXTRN	?GetGradeRank@ioExcavationManager@@QAEXHAAVioHashString@@@Z:PROC ; ioExcavationManager::GetGradeRank
EXTRN	?GetGradeArray@ioExcavationManager@@QAEHH@Z:PROC ; ioExcavationManager::GetGradeArray
EXTRN	?GetItemDesc@ioExcavationManager@@QAEXHAAVioHashString@@@Z:PROC ; ioExcavationManager::GetItemDesc
EXTRN	?GetItemName@ioExcavationManager@@QAEXHAAVioHashString@@@Z:PROC ; ioExcavationManager::GetItemName
EXTRN	?SetEmoticon@ioBaseGUISupport@@QAEXABVioHashString@@W4EmoticonType@@K@Z:PROC ; ioBaseGUISupport::SetEmoticon
EXTRN	?GetOwnerChar@ioPlayStage@@QAEPAVioBaseChar@@XZ:PROC ; ioPlayStage::GetOwnerChar
EXTRN	?GetItemIcon@ioExcavationManager@@QAEXHAAVioHashString@@@Z:PROC ; ioExcavationManager::GetItemIcon
EXTRN	?GetItemArray@ioExcavationManager@@QAEHH@Z:PROC	; ioExcavationManager::GetItemArray
EXTRN	_memset:PROC
;	COMDAT ??_C@_0CF@JEHAODIH@ExcavationResultWnd?3?3SetArtifact@
; File d:\lost saga for developer\youtube\tutorial\source\src\lsclient\ioitem.h
CONST	SEGMENT
??_C@_0CF@JEHAODIH@ExcavationResultWnd?3?3SetArtifact@ DB 'ExcavationResu'
	DB	'ltWnd::SetArtifactInfo', 00H		; `string'
CONST	ENDS
;	COMDAT xdata$x
xdata$x	SEGMENT
__unwindtable$?SetArtifactInfo@ExcavationResultWnd@@IAEXXZ DD 0ffffffffH
	DD	FLAT:__unwindfunclet$?SetArtifactInfo@ExcavationResultWnd@@IAEXXZ$0
	DD	0ffffffffH
	DD	FLAT:__unwindfunclet$?SetArtifactInfo@ExcavationResultWnd@@IAEXXZ$1
	DD	01H
	DD	FLAT:__unwindfunclet$?SetArtifactInfo@ExcavationResultWnd@@IAEXXZ$2
	DD	02H
	DD	FLAT:__unwindfunclet$?SetArtifactInfo@ExcavationResultWnd@@IAEXXZ$3
__ehfuncinfo$?SetArtifactInfo@ExcavationResultWnd@@IAEXXZ DD 019930522H
	DD	04H
	DD	FLAT:__unwindtable$?SetArtifactInfo@ExcavationResultWnd@@IAEXXZ
	DD	2 DUP(00H)
	DD	2 DUP(00H)
	DD	00H
	DD	01H
; Function compile flags: /Ogsp
; File d:\lost saga for developer\youtube\tutorial\source\src\lsclient\gui\excavationwnd.cpp
xdata$x	ENDS
;	COMDAT ?SetArtifactInfo@ExcavationResultWnd@@IAEXXZ
_TEXT	SEGMENT
$T544902 = -872						; size = 16
_szName$ = -856						; size = 16
_szIcon$535175 = -840					; size = 16
_szIcon$ = -824						; size = 16
tv397 = -808						; size = 4
tv396 = -804						; size = 4
_iPeso$535181 = -804					; size = 4
_iItemArray$ = -800					; size = 4
_pItem$ = -800						; size = 4
_szComma$535182 = -796					; size = 260
_szTemp$535183 = -536					; size = 260
_szTemp$ = -276						; size = 260
__$EHRec$ = -12						; size = 12
?SetArtifactInfo@ExcavationResultWnd@@IAEXXZ PROC	; ExcavationResultWnd::SetArtifactInfo, COMDAT
; _this$ = ecx

; 431  : {

  00000	68 5c 03 00 00	 push	 860			; 0000035cH
  00005	b8 00 00 00 00	 mov	 eax, __ehhandler$?SetArtifactInfo@ExcavationResultWnd@@IAEXXZ
  0000a	e8 00 00 00 00	 call	 __EH_prolog3_GS
  0000f	8b f1		 mov	 esi, ecx

; 432  : 	SAFEDELETE( m_pIcon );

  00011	8b 8e 60 01 00
	00		 mov	 ecx, DWORD PTR [esi+352]
  00017	85 c9		 test	 ecx, ecx
  00019	74 0e		 je	 SHORT $LN13@SetArtifac
  0001b	8b 01		 mov	 eax, DWORD PTR [ecx]
  0001d	6a 01		 push	 1
  0001f	ff 50 40	 call	 DWORD PTR [eax+64]
  00022	83 a6 60 01 00
	00 00		 and	 DWORD PTR [esi+352], 0
$LN13@SetArtifac:

; 433  : 
; 434  : 	m_szName.Clear();

  00029	8b 1d 00 00 00
	00		 mov	 ebx, DWORD PTR __imp_?Clear@ioHashString@@QAEXXZ
  0002f	8d 8e e0 01 00
	00		 lea	 ecx, DWORD PTR [esi+480]
  00035	ff d3		 call	 ebx

; 435  : 	m_szDesc.Clear();

  00037	8d 8e f0 01 00
	00		 lea	 ecx, DWORD PTR [esi+496]
  0003d	ff d3		 call	 ebx

; 436  : 	m_szGrade.Clear();

  0003f	8d 8e 00 02 00
	00		 lea	 ecx, DWORD PTR [esi+512]
  00045	89 8d dc fc ff
	ff		 mov	 DWORD PTR tv396[ebp], ecx
  0004b	ff d3		 call	 ebx

; 437  : 	m_szResultArtifact.Clear();

  0004d	8d 8e 10 02 00
	00		 lea	 ecx, DWORD PTR [esi+528]
  00053	89 8d d8 fc ff
	ff		 mov	 DWORD PTR tv397[ebp], ecx
  00059	ff d3		 call	 ebx

; 438  : 
; 439  : 	// peso
; 440  : 	if( m_iArtifactType < ioExcavationManager::EXTRAITEM_START_TYPE ) 

  0005b	8b 86 74 01 00
	00		 mov	 eax, DWORD PTR [esi+372]
  00061	bf 10 27 00 00	 mov	 edi, 10000		; 00002710H
  00066	3b c7		 cmp	 eax, edi
  00068	0f 8d a4 01 00
	00		 jge	 $LN12@SetArtifac

; 441  : 	{
; 442  : 		int iItemArray = g_ExcavationMgr.GetItemArray( m_iArtifactType );

  0006e	50		 push	 eax
  0006f	e8 00 00 00 00	 call	 ?GetSingleton@ioExcavationManager@@SAAAV1@XZ ; ioExcavationManager::GetSingleton
  00074	8b c8		 mov	 ecx, eax
  00076	e8 00 00 00 00	 call	 ?GetItemArray@ioExcavationManager@@QAEHH@Z ; ioExcavationManager::GetItemArray

; 443  : 		
; 444  : 		ioHashString szIcon;

  0007b	8d 8d b8 fc ff
	ff		 lea	 ecx, DWORD PTR _szIcon$535175[ebp]
  00081	8b f8		 mov	 edi, eax
  00083	ff 15 00 00 00
	00		 call	 DWORD PTR __imp_??0ioHashString@@QAE@XZ

; 445  : 		g_ExcavationMgr.GetItemIcon( iItemArray, szIcon );

  00089	8d 85 b8 fc ff
	ff		 lea	 eax, DWORD PTR _szIcon$535175[ebp]
  0008f	50		 push	 eax
  00090	33 db		 xor	 ebx, ebx
  00092	57		 push	 edi
  00093	89 5d fc	 mov	 DWORD PTR __$EHRec$[ebp+8], ebx
  00096	e8 00 00 00 00	 call	 ?GetSingleton@ioExcavationManager@@SAAAV1@XZ ; ioExcavationManager::GetSingleton
  0009b	8b c8		 mov	 ecx, eax
  0009d	e8 00 00 00 00	 call	 ?GetItemIcon@ioExcavationManager@@QAEXHAAVioHashString@@@Z ; ioExcavationManager::GetItemIcon

; 446  : 		if( !szIcon.IsEmpty() )

  000a2	8d 8d b8 fc ff
	ff		 lea	 ecx, DWORD PTR _szIcon$535175[ebp]
  000a8	ff 15 00 00 00
	00		 call	 DWORD PTR __imp_?IsEmpty@ioHashString@@QBE_NXZ
  000ae	84 c0		 test	 al, al
  000b0	75 1c		 jne	 SHORT $LN11@SetArtifac

; 447  : 			m_pIcon = g_UIImageSetMgr.CreateImageByFullName( szIcon );

  000b2	8d 85 b8 fc ff
	ff		 lea	 eax, DWORD PTR _szIcon$535175[ebp]
  000b8	53		 push	 ebx
  000b9	50		 push	 eax
  000ba	ff 15 00 00 00
	00		 call	 DWORD PTR __imp_?GetSingleton@ioUIImageSetManager@@SAAAV1@XZ
  000c0	8b c8		 mov	 ecx, eax
  000c2	ff 15 00 00 00
	00		 call	 DWORD PTR __imp_?CreateImageByFullName@ioUIImageSetManager@@QAEPAVioUIRenderImage@@ABVioHashString@@_N@Z
  000c8	89 86 60 01 00
	00		 mov	 DWORD PTR [esi+352], eax
$LN11@SetArtifac:

; 448  : 
; 449  : 		if( m_pPlayStage )

  000ce	8b 8e 20 02 00
	00		 mov	 ecx, DWORD PTR [esi+544]
  000d4	3b cb		 cmp	 ecx, ebx
  000d6	74 1d		 je	 SHORT $LN9@SetArtifac

; 450  : 		{
; 451  : 			ioBaseChar *pOwner = m_pPlayStage->GetOwnerChar();

  000d8	e8 00 00 00 00	 call	 ?GetOwnerChar@ioPlayStage@@QAEPAVioBaseChar@@XZ ; ioPlayStage::GetOwnerChar

; 452  : 			if( pOwner )

  000dd	3b c3		 cmp	 eax, ebx
  000df	74 14		 je	 SHORT $LN9@SetArtifac

; 453  : 				pOwner->SetEmoticon( szIcon );

  000e1	53		 push	 ebx
  000e2	53		 push	 ebx
  000e3	8d 8d b8 fc ff
	ff		 lea	 ecx, DWORD PTR _szIcon$535175[ebp]
  000e9	51		 push	 ecx
  000ea	8d 88 cc 01 00
	00		 lea	 ecx, DWORD PTR [eax+460]
  000f0	e8 00 00 00 00	 call	 ?SetEmoticon@ioBaseGUISupport@@QAEXABVioHashString@@W4EmoticonType@@K@Z ; ioBaseGUISupport::SetEmoticon
$LN9@SetArtifac:

; 454  : 		}
; 455  : 
; 456  : 		g_ExcavationMgr.GetItemName( iItemArray, m_szName );

  000f5	8d 86 e0 01 00
	00		 lea	 eax, DWORD PTR [esi+480]
  000fb	50		 push	 eax
  000fc	57		 push	 edi
  000fd	e8 00 00 00 00	 call	 ?GetSingleton@ioExcavationManager@@SAAAV1@XZ ; ioExcavationManager::GetSingleton
  00102	8b c8		 mov	 ecx, eax
  00104	e8 00 00 00 00	 call	 ?GetItemName@ioExcavationManager@@QAEXHAAVioHashString@@@Z ; ioExcavationManager::GetItemName

; 457  : 		g_ExcavationMgr.GetItemDesc( iItemArray, m_szDesc );

  00109	8d 86 f0 01 00
	00		 lea	 eax, DWORD PTR [esi+496]
  0010f	50		 push	 eax
  00110	57		 push	 edi
  00111	e8 00 00 00 00	 call	 ?GetSingleton@ioExcavationManager@@SAAAV1@XZ ; ioExcavationManager::GetSingleton
  00116	8b c8		 mov	 ecx, eax
  00118	e8 00 00 00 00	 call	 ?GetItemDesc@ioExcavationManager@@QAEXHAAVioHashString@@@Z ; ioExcavationManager::GetItemDesc

; 458  : 
; 459  : 		int iGradeArray = g_ExcavationMgr.GetGradeArray( m_iArtifactValue2 );

  0011d	ff b6 7c 01 00
	00		 push	 DWORD PTR [esi+380]
  00123	e8 00 00 00 00	 call	 ?GetSingleton@ioExcavationManager@@SAAAV1@XZ ; ioExcavationManager::GetSingleton
  00128	8b c8		 mov	 ecx, eax
  0012a	e8 00 00 00 00	 call	 ?GetGradeArray@ioExcavationManager@@QAEHH@Z ; ioExcavationManager::GetGradeArray

; 460  : 		g_ExcavationMgr.GetGradeRank( iGradeArray, m_szGrade );

  0012f	ff b5 dc fc ff
	ff		 push	 DWORD PTR tv396[ebp]
  00135	8b f8		 mov	 edi, eax
  00137	57		 push	 edi
  00138	e8 00 00 00 00	 call	 ?GetSingleton@ioExcavationManager@@SAAAV1@XZ ; ioExcavationManager::GetSingleton
  0013d	8b c8		 mov	 ecx, eax
  0013f	e8 00 00 00 00	 call	 ?GetGradeRank@ioExcavationManager@@QAEXHAAVioHashString@@@Z ; ioExcavationManager::GetGradeRank

; 461  : 
; 462  : 		int iPeso = m_iArtifactValue1;

  00144	8b 86 78 01 00
	00		 mov	 eax, DWORD PTR [esi+376]

; 463  : 		iPeso = ( iPeso * g_ExcavationMgr.GetGradeRate( iGradeArray ) ) * m_fMapRate;

  0014a	57		 push	 edi
  0014b	89 85 dc fc ff
	ff		 mov	 DWORD PTR _iPeso$535181[ebp], eax
  00151	e8 00 00 00 00	 call	 ?GetSingleton@ioExcavationManager@@SAAAV1@XZ ; ioExcavationManager::GetSingleton
  00156	8b c8		 mov	 ecx, eax
  00158	e8 00 00 00 00	 call	 ?GetGradeRate@ioExcavationManager@@QAEMH@Z ; ioExcavationManager::GetGradeRate
  0015d	da 8d dc fc ff
	ff		 fimul	 DWORD PTR _iPeso$535181[ebp]
  00163	d8 8e 84 01 00
	00		 fmul	 DWORD PTR [esi+388]
  00169	e8 00 00 00 00	 call	 __ftol2_sse

; 464  : 
; 465  : 		char szComma[MAX_PATH]="";

  0016e	be 03 01 00 00	 mov	 esi, 259		; 00000103H
  00173	56		 push	 esi
  00174	8b d8		 mov	 ebx, eax
  00176	8d 85 e5 fc ff
	ff		 lea	 eax, DWORD PTR _szComma$535182[ebp+1]
  0017c	6a 00		 push	 0
  0017e	50		 push	 eax
  0017f	c6 85 e4 fc ff
	ff 00		 mov	 BYTE PTR _szComma$535182[ebp], 0
  00186	e8 00 00 00 00	 call	 _memset

; 466  : 		Help::ConvertNumToStrComma( iPeso, szComma, sizeof( szComma ) );

  0018b	8d 7e 01	 lea	 edi, DWORD PTR [esi+1]
  0018e	57		 push	 edi
  0018f	8d 85 e4 fc ff
	ff		 lea	 eax, DWORD PTR _szComma$535182[ebp]
  00195	50		 push	 eax
  00196	53		 push	 ebx
  00197	e8 00 00 00 00	 call	 ?ConvertNumToStrComma@Help@@YAXHPADH@Z ; Help::ConvertNumToStrComma

; 467  : 		char szTemp[MAX_PATH]="";

  0019c	56		 push	 esi
  0019d	8d 85 e9 fd ff
	ff		 lea	 eax, DWORD PTR _szTemp$535183[ebp+1]
  001a3	6a 00		 push	 0
  001a5	50		 push	 eax
  001a6	c6 85 e8 fd ff
	ff 00		 mov	 BYTE PTR _szTemp$535183[ebp], 0
  001ad	e8 00 00 00 00	 call	 _memset
  001b2	83 c4 24	 add	 esp, 36			; 00000024H

; 468  : 		SafeSprintf( szTemp, sizeof( szTemp ), STR(1), szComma );

  001b5	8d 85 e4 fc ff
	ff		 lea	 eax, DWORD PTR _szComma$535182[ebp]
  001bb	50		 push	 eax
  001bc	6a 00		 push	 0
  001be	6a 01		 push	 1
  001c0	68 00 00 00 00	 push	 OFFSET ??_C@_00CNPNBAHC@?$AA@
  001c5	68 00 00 00 00	 push	 OFFSET ??_C@_0CF@JEHAODIH@ExcavationResultWnd?3?3SetArtifact@
  001ca	ff 15 00 00 00
	00		 call	 DWORD PTR __imp_?GetSingleton@ioStringManager@@SAAAV1@XZ
  001d0	8b c8		 mov	 ecx, eax
  001d2	ff 15 00 00 00
	00		 call	 DWORD PTR __imp_?GetString@ioStringManager@@QAEPADPBD0HW4FileNamePrefix@1@@Z
  001d8	50		 push	 eax
  001d9	8d 85 e8 fd ff
	ff		 lea	 eax, DWORD PTR _szTemp$535183[ebp]
  001df	57		 push	 edi
  001e0	50		 push	 eax
  001e1	ff 15 00 00 00
	00		 call	 DWORD PTR __imp_?SafeSprintf@@YAXPADHPBD1@Z

; 469  : 		m_szResultArtifact = szTemp;

  001e7	8b 8d d8 fc ff
	ff		 mov	 ecx, DWORD PTR tv397[ebp]
  001ed	83 c4 10	 add	 esp, 16			; 00000010H
  001f0	8d 85 e8 fd ff
	ff		 lea	 eax, DWORD PTR _szTemp$535183[ebp]
  001f6	50		 push	 eax
  001f7	ff 15 00 00 00
	00		 call	 DWORD PTR __imp_??4ioHashString@@QAEAAV0@PBD@Z

; 470  : 
; 471  : 		return;

  001fd	83 4d fc ff	 or	 DWORD PTR __$EHRec$[ebp+8], -1
  00201	8d 8d b8 fc ff
	ff		 lea	 ecx, DWORD PTR _szIcon$535175[ebp]
  00207	ff 15 00 00 00
	00		 call	 DWORD PTR __imp_??1ioHashString@@QAE@XZ
  0020d	e9 7f 02 00 00	 jmp	 $LN14@SetArtifac
$LN12@SetArtifac:

; 472  : 	}
; 473  : 	
; 474  : 	// extraitem
; 475  : 	ioHashString szIcon;

  00212	8b 1d 00 00 00
	00		 mov	 ebx, DWORD PTR __imp_??0ioHashString@@QAE@XZ
  00218	8d 8d c8 fc ff
	ff		 lea	 ecx, DWORD PTR _szIcon$[ebp]
  0021e	ff d3		 call	 ebx

; 476  : 	ioHashString szName;

  00220	8d 8d a8 fc ff
	ff		 lea	 ecx, DWORD PTR _szName$[ebp]
  00226	c7 45 fc 01 00
	00 00		 mov	 DWORD PTR __$EHRec$[ebp+8], 1
  0022d	ff d3		 call	 ebx

; 477  : 	const ioItem *pItem = g_ItemMaker.GetItemConst( m_iArtifactValue1, __FUNCTION__ );

  0022f	bb 00 00 00 00	 mov	 ebx, OFFSET ??_C@_0CF@JEHAODIH@ExcavationResultWnd?3?3SetArtifact@
  00234	53		 push	 ebx
  00235	8d 8d 98 fc ff
	ff		 lea	 ecx, DWORD PTR $T544902[ebp]
  0023b	c6 45 fc 02	 mov	 BYTE PTR __$EHRec$[ebp+8], 2
  0023f	ff 15 00 00 00
	00		 call	 DWORD PTR __imp_??0ioHashString@@QAE@PBD@Z
  00245	8d 85 98 fc ff
	ff		 lea	 eax, DWORD PTR $T544902[ebp]
  0024b	50		 push	 eax
  0024c	ff b6 78 01 00
	00		 push	 DWORD PTR [esi+376]
  00252	c6 45 fc 03	 mov	 BYTE PTR __$EHRec$[ebp+8], 3
  00256	e8 00 00 00 00	 call	 ?GetSingleton@ioItemMaker@@SAAAV1@XZ ; ioItemMaker::GetSingleton
  0025b	8b c8		 mov	 ecx, eax
  0025d	e8 00 00 00 00	 call	 ?GetItemConst@ioItemMaker@@QBEPBVioItem@@KABVioHashString@@@Z ; ioItemMaker::GetItemConst
  00262	8d 8d 98 fc ff
	ff		 lea	 ecx, DWORD PTR $T544902[ebp]
  00268	89 85 e0 fc ff
	ff		 mov	 DWORD PTR _pItem$[ebp], eax
  0026e	c6 45 fc 02	 mov	 BYTE PTR __$EHRec$[ebp+8], 2
  00272	ff 15 00 00 00
	00		 call	 DWORD PTR __imp_??1ioHashString@@QAE@XZ

; 478  : 	if( pItem )

  00278	8b 85 e0 fc ff
	ff		 mov	 eax, DWORD PTR _pItem$[ebp]
  0027e	85 c0		 test	 eax, eax
  00280	74 2a		 je	 SHORT $LN8@SetArtifac

; 479  : 	{
; 480  : 		szIcon = pItem->GetItemLargeIconName();

  00282	05 14 02 00 00	 add	 eax, 532		; 00000214H
  00287	50		 push	 eax
  00288	8d 8d c8 fc ff
	ff		 lea	 ecx, DWORD PTR _szIcon$[ebp]
  0028e	ff 15 00 00 00
	00		 call	 DWORD PTR __imp_??4ioHashString@@QAEAAV0@ABV0@@Z

; 481  : 		szName = pItem->GetName();

  00294	8b 85 e0 fc ff
	ff		 mov	 eax, DWORD PTR _pItem$[ebp]
  0029a	05 34 01 00 00	 add	 eax, 308		; 00000134H
  0029f	50		 push	 eax
  002a0	8d 8d a8 fc ff
	ff		 lea	 ecx, DWORD PTR _szName$[ebp]
  002a6	ff 15 00 00 00
	00		 call	 DWORD PTR __imp_??4ioHashString@@QAEAAV0@ABV0@@Z
$LN8@SetArtifac:

; 482  : 	}
; 483  : 	if( !szIcon.IsEmpty() )

  002ac	8d 8d c8 fc ff
	ff		 lea	 ecx, DWORD PTR _szIcon$[ebp]
  002b2	ff 15 00 00 00
	00		 call	 DWORD PTR __imp_?IsEmpty@ioHashString@@QBE_NXZ
  002b8	84 c0		 test	 al, al
  002ba	75 1d		 jne	 SHORT $LN7@SetArtifac

; 484  : 		m_pIcon = g_UIImageSetMgr.CreateImageByFullName( szIcon );

  002bc	8d 85 c8 fc ff
	ff		 lea	 eax, DWORD PTR _szIcon$[ebp]
  002c2	6a 00		 push	 0
  002c4	50		 push	 eax
  002c5	ff 15 00 00 00
	00		 call	 DWORD PTR __imp_?GetSingleton@ioUIImageSetManager@@SAAAV1@XZ
  002cb	8b c8		 mov	 ecx, eax
  002cd	ff 15 00 00 00
	00		 call	 DWORD PTR __imp_?CreateImageByFullName@ioUIImageSetManager@@QAEPAVioUIRenderImage@@ABVioHashString@@_N@Z
  002d3	89 86 60 01 00
	00		 mov	 DWORD PTR [esi+352], eax
$LN7@SetArtifac:

; 485  : 
; 486  : 	if( m_pPlayStage )

  002d9	8b 8e 20 02 00
	00		 mov	 ecx, DWORD PTR [esi+544]
  002df	85 c9		 test	 ecx, ecx
  002e1	74 1f		 je	 SHORT $LN5@SetArtifac

; 487  : 	{
; 488  : 		ioBaseChar *pOwner = m_pPlayStage->GetOwnerChar();

  002e3	e8 00 00 00 00	 call	 ?GetOwnerChar@ioPlayStage@@QAEPAVioBaseChar@@XZ ; ioPlayStage::GetOwnerChar

; 489  : 		if( pOwner )

  002e8	85 c0		 test	 eax, eax
  002ea	74 16		 je	 SHORT $LN5@SetArtifac

; 490  : 			pOwner->SetEmoticon( szIcon );

  002ec	6a 00		 push	 0
  002ee	6a 00		 push	 0
  002f0	8d 8d c8 fc ff
	ff		 lea	 ecx, DWORD PTR _szIcon$[ebp]
  002f6	51		 push	 ecx
  002f7	8d 88 cc 01 00
	00		 lea	 ecx, DWORD PTR [eax+460]
  002fd	e8 00 00 00 00	 call	 ?SetEmoticon@ioBaseGUISupport@@QAEXABVioHashString@@W4EmoticonType@@K@Z ; ioBaseGUISupport::SetEmoticon
$LN5@SetArtifac:

; 491  : 	}
; 492  : 
; 493  : 	int iItemArray = g_ExcavationMgr.GetItemArray( m_iArtifactType );

  00302	ff b6 74 01 00
	00		 push	 DWORD PTR [esi+372]
  00308	e8 00 00 00 00	 call	 ?GetSingleton@ioExcavationManager@@SAAAV1@XZ ; ioExcavationManager::GetSingleton
  0030d	8b c8		 mov	 ecx, eax
  0030f	e8 00 00 00 00	 call	 ?GetItemArray@ioExcavationManager@@QAEHH@Z ; ioExcavationManager::GetItemArray
  00314	89 85 e0 fc ff
	ff		 mov	 DWORD PTR _iItemArray$[ebp], eax

; 494  : 	g_ExcavationMgr.GetItemName( iItemArray, m_szName );

  0031a	8d 86 e0 01 00
	00		 lea	 eax, DWORD PTR [esi+480]
  00320	50		 push	 eax
  00321	ff b5 e0 fc ff
	ff		 push	 DWORD PTR _iItemArray$[ebp]
  00327	e8 00 00 00 00	 call	 ?GetSingleton@ioExcavationManager@@SAAAV1@XZ ; ioExcavationManager::GetSingleton
  0032c	8b c8		 mov	 ecx, eax
  0032e	e8 00 00 00 00	 call	 ?GetItemName@ioExcavationManager@@QAEXHAAVioHashString@@@Z ; ioExcavationManager::GetItemName

; 495  : 	g_ExcavationMgr.GetItemDesc( iItemArray, m_szDesc );

  00333	8d 86 f0 01 00
	00		 lea	 eax, DWORD PTR [esi+496]
  00339	50		 push	 eax
  0033a	ff b5 e0 fc ff
	ff		 push	 DWORD PTR _iItemArray$[ebp]
  00340	e8 00 00 00 00	 call	 ?GetSingleton@ioExcavationManager@@SAAAV1@XZ ; ioExcavationManager::GetSingleton
  00345	8b c8		 mov	 ecx, eax
  00347	e8 00 00 00 00	 call	 ?GetItemDesc@ioExcavationManager@@QAEXHAAVioHashString@@@Z ; ioExcavationManager::GetItemDesc

; 496  : 	char szTemp[MAX_PATH]="";

  0034c	68 03 01 00 00	 push	 259			; 00000103H
  00351	8d 85 ed fe ff
	ff		 lea	 eax, DWORD PTR _szTemp$[ebp+1]
  00357	6a 00		 push	 0
  00359	50		 push	 eax
  0035a	c6 85 ec fe ff
	ff 00		 mov	 BYTE PTR _szTemp$[ebp], 0
  00361	e8 00 00 00 00	 call	 _memset

; 497  : 	 // /10000  value2   
; 498  : 	int iReinforce = m_iArtifactValue2 / 10000;  

  00366	8b 86 7c 01 00
	00		 mov	 eax, DWORD PTR [esi+380]
  0036c	99		 cdq
  0036d	f7 ff		 idiv	 edi
  0036f	83 c4 0c	 add	 esp, 12			; 0000000cH

; 499  : 	SafeSprintf( szTemp , sizeof( szTemp ), STR(2), iReinforce, szName.c_str() );

  00372	8d 8d a8 fc ff
	ff		 lea	 ecx, DWORD PTR _szName$[ebp]
  00378	8b f8		 mov	 edi, eax
  0037a	ff 15 00 00 00
	00		 call	 DWORD PTR __imp_?c_str@ioHashString@@QBEPBDXZ
  00380	50		 push	 eax
  00381	57		 push	 edi
  00382	6a 00		 push	 0
  00384	6a 02		 push	 2
  00386	68 00 00 00 00	 push	 OFFSET ??_C@_00CNPNBAHC@?$AA@
  0038b	53		 push	 ebx
  0038c	ff 15 00 00 00
	00		 call	 DWORD PTR __imp_?GetSingleton@ioStringManager@@SAAAV1@XZ
  00392	8b c8		 mov	 ecx, eax
  00394	ff 15 00 00 00
	00		 call	 DWORD PTR __imp_?GetString@ioStringManager@@QAEPADPBD0HW4FileNamePrefix@1@@Z
  0039a	50		 push	 eax
  0039b	bf 04 01 00 00	 mov	 edi, 260		; 00000104H
  003a0	8d 85 ec fe ff
	ff		 lea	 eax, DWORD PTR _szTemp$[ebp]
  003a6	57		 push	 edi
  003a7	50		 push	 eax
  003a8	ff 15 00 00 00
	00		 call	 DWORD PTR __imp_?SafeSprintf@@YAXPADHPBDH1@Z
  003ae	83 c4 14	 add	 esp, 20			; 00000014H

; 500  : 	m_szName = szTemp;

  003b1	8d 85 ec fe ff
	ff		 lea	 eax, DWORD PTR _szTemp$[ebp]
  003b7	50		 push	 eax
  003b8	8d 8e e0 01 00
	00		 lea	 ecx, DWORD PTR [esi+480]
  003be	ff 15 00 00 00
	00		 call	 DWORD PTR __imp_??4ioHashString@@QAEAAV0@PBD@Z

; 501  : 
; 502  : 	// %10000  value2   .
; 503  : 	int iHours  = m_iArtifactValue2 % 10000;

  003c4	8b 86 7c 01 00
	00		 mov	 eax, DWORD PTR [esi+380]
  003ca	99		 cdq
  003cb	b9 10 27 00 00	 mov	 ecx, 10000		; 00002710H
  003d0	f7 f9		 idiv	 ecx
  003d2	8b ca		 mov	 ecx, edx

; 504  : 	if( iHours == 0 )

  003d4	85 c9		 test	 ecx, ecx
  003d6	75 27		 jne	 SHORT $LN4@SetArtifac

; 505  : 		StringCbCopy( szTemp, sizeof( szTemp ), STR(3) );

  003d8	52		 push	 edx
  003d9	6a 03		 push	 3
  003db	68 00 00 00 00	 push	 OFFSET ??_C@_00CNPNBAHC@?$AA@
  003e0	53		 push	 ebx
  003e1	ff 15 00 00 00
	00		 call	 DWORD PTR __imp_?GetSingleton@ioStringManager@@SAAAV1@XZ
  003e7	8b c8		 mov	 ecx, eax
  003e9	ff 15 00 00 00
	00		 call	 DWORD PTR __imp_?GetString@ioStringManager@@QAEPADPBD0HW4FileNamePrefix@1@@Z
  003ef	50		 push	 eax
  003f0	57		 push	 edi
  003f1	8d 85 ec fe ff
	ff		 lea	 eax, DWORD PTR _szTemp$[ebp]
  003f7	50		 push	 eax
  003f8	e8 00 00 00 00	 call	 ?StringCbCopyA@@YGJPADIPBD@Z ; StringCbCopyA
  003fd	eb 3e		 jmp	 SHORT $LN1@SetArtifac
$LN4@SetArtifac:

; 506  : 	else if( ( iHours/24 ) > 0  )

  003ff	8b c1		 mov	 eax, ecx
  00401	6a 18		 push	 24			; 00000018H
  00403	99		 cdq
  00404	5e		 pop	 esi
  00405	f7 fe		 idiv	 esi
  00407	85 c0		 test	 eax, eax
  00409	7e 07		 jle	 SHORT $LN2@SetArtifac

; 507  : 		SafeSprintf( szTemp , sizeof( szTemp ), STR(4), iHours/24 );

  0040b	50		 push	 eax
  0040c	6a 00		 push	 0
  0040e	6a 04		 push	 4

; 508  : 	else

  00410	eb 05		 jmp	 SHORT $LN28@SetArtifac
$LN2@SetArtifac:

; 509  : 		SafeSprintf( szTemp , sizeof( szTemp ), STR(5), iHours ); 

  00412	51		 push	 ecx
  00413	6a 00		 push	 0
  00415	6a 05		 push	 5
$LN28@SetArtifac:
  00417	68 00 00 00 00	 push	 OFFSET ??_C@_00CNPNBAHC@?$AA@
  0041c	53		 push	 ebx
  0041d	ff 15 00 00 00
	00		 call	 DWORD PTR __imp_?GetSingleton@ioStringManager@@SAAAV1@XZ
  00423	8b c8		 mov	 ecx, eax
  00425	ff 15 00 00 00
	00		 call	 DWORD PTR __imp_?GetString@ioStringManager@@QAEPADPBD0HW4FileNamePrefix@1@@Z
  0042b	50		 push	 eax
  0042c	8d 85 ec fe ff
	ff		 lea	 eax, DWORD PTR _szTemp$[ebp]
  00432	57		 push	 edi
  00433	50		 push	 eax
  00434	ff 15 00 00 00
	00		 call	 DWORD PTR __imp_?SafeSprintf@@YAXPADHPBDH@Z
  0043a	83 c4 10	 add	 esp, 16			; 00000010H
$LN1@SetArtifac:

; 510  : 	m_szGrade = szTemp;		

  0043d	8b 8d dc fc ff
	ff		 mov	 ecx, DWORD PTR tv396[ebp]
  00443	8b 3d 00 00 00
	00		 mov	 edi, DWORD PTR __imp_??4ioHashString@@QAEAAV0@PBD@Z
  00449	8d 85 ec fe ff
	ff		 lea	 eax, DWORD PTR _szTemp$[ebp]
  0044f	50		 push	 eax
  00450	ff d7		 call	 edi

; 511  : 	m_szResultArtifact = STR(6);

  00452	6a 00		 push	 0
  00454	6a 06		 push	 6
  00456	68 00 00 00 00	 push	 OFFSET ??_C@_00CNPNBAHC@?$AA@
  0045b	53		 push	 ebx
  0045c	ff 15 00 00 00
	00		 call	 DWORD PTR __imp_?GetSingleton@ioStringManager@@SAAAV1@XZ
  00462	8b c8		 mov	 ecx, eax
  00464	ff 15 00 00 00
	00		 call	 DWORD PTR __imp_?GetString@ioStringManager@@QAEPADPBD0HW4FileNamePrefix@1@@Z
  0046a	8b 8d d8 fc ff
	ff		 mov	 ecx, DWORD PTR tv397[ebp]
  00470	50		 push	 eax
  00471	ff d7		 call	 edi

; 512  : }

  00473	8b 35 00 00 00
	00		 mov	 esi, DWORD PTR __imp_??1ioHashString@@QAE@XZ
  00479	8d 8d a8 fc ff
	ff		 lea	 ecx, DWORD PTR _szName$[ebp]
  0047f	c6 45 fc 01	 mov	 BYTE PTR __$EHRec$[ebp+8], 1
  00483	ff d6		 call	 esi
  00485	83 4d fc ff	 or	 DWORD PTR __$EHRec$[ebp+8], -1
  00489	8d 8d c8 fc ff
	ff		 lea	 ecx, DWORD PTR _szIcon$[ebp]
  0048f	ff d6		 call	 esi
$LN14@SetArtifac:
  00491	e8 00 00 00 00	 call	 __EH_epilog3_GS
  00496	c3		 ret	 0
_TEXT	ENDS
;	COMDAT text$x
text$x	SEGMENT
__unwindfunclet$?SetArtifactInfo@ExcavationResultWnd@@IAEXXZ$0:
  00000	8d 8d b8 fc ff
	ff		 lea	 ecx, DWORD PTR _szIcon$535175[ebp]
  00006	ff 25 00 00 00
	00		 jmp	 DWORD PTR __imp_??1ioHashString@@QAE@XZ
__unwindfunclet$?SetArtifactInfo@ExcavationResultWnd@@IAEXXZ$1:
  0000c	8d 8d c8 fc ff
	ff		 lea	 ecx, DWORD PTR _szIcon$[ebp]
  00012	ff 25 00 00 00
	00		 jmp	 DWORD PTR __imp_??1ioHashString@@QAE@XZ
__unwindfunclet$?SetArtifactInfo@ExcavationResultWnd@@IAEXXZ$2:
  00018	8d 8d a8 fc ff
	ff		 lea	 ecx, DWORD PTR _szName$[ebp]
  0001e	ff 25 00 00 00
	00		 jmp	 DWORD PTR __imp_??1ioHashString@@QAE@XZ
__unwindfunclet$?SetArtifactInfo@ExcavationResultWnd@@IAEXXZ$3:
  00024	8d 8d 98 fc ff
	ff		 lea	 ecx, DWORD PTR $T544902[ebp]
  0002a	ff 25 00 00 00
	00		 jmp	 DWORD PTR __imp_??1ioHashString@@QAE@XZ
__ehhandler$?SetArtifactInfo@ExcavationResultWnd@@IAEXXZ:
  00030	8b 54 24 08	 mov	 edx, DWORD PTR [esp+8]
  00034	8d 42 0c	 lea	 eax, DWORD PTR [edx+12]
  00037	8b 8a 94 fc ff
	ff		 mov	 ecx, DWORD PTR [edx-876]
  0003d	33 c8		 xor	 ecx, eax
  0003f	e8 00 00 00 00	 call	 @__security_check_cookie@4
  00044	8b 4a fc	 mov	 ecx, DWORD PTR [edx-4]
  00047	33 c8		 xor	 ecx, eax
  00049	e8 00 00 00 00	 call	 @__security_check_cookie@4
  0004e	b8 00 00 00 00	 mov	 eax, OFFSET __ehfuncinfo$?SetArtifactInfo@ExcavationResultWnd@@IAEXXZ
  00053	e9 00 00 00 00	 jmp	 ___CxxFrameHandler3
text$x	ENDS
?SetArtifactInfo@ExcavationResultWnd@@IAEXXZ ENDP	; ExcavationResultWnd::SetArtifactInfo
PUBLIC	_this$GSCopy$
PUBLIC	__$ArrayPad$
; Function compile flags: /Ogsp
;	COMDAT ?AddRenderImage@ExcavationExpWnd@@UAEXABVioHashString@@PAVioUIRenderImage@@@Z
_TEXT	SEGMENT
_this$GSCopy$ = -24					; size = 4
__t$544957 = -20					; size = 10
__$ArrayPad$ = -4					; size = 4
_szType$ = 8						; size = 4
_pImage$ = 12						; size = 4
?AddRenderImage@ExcavationExpWnd@@UAEXABVioHashString@@PAVioUIRenderImage@@@Z PROC ; ExcavationExpWnd::AddRenderImage, COMDAT
; _this$ = ecx

; 533  : {

  00000	55		 push	 ebp
  00001	8b ec		 mov	 ebp, esp
  00003	83 ec 18	 sub	 esp, 24			; 00000018H
  00006	a1 00 00 00 00	 mov	 eax, DWORD PTR ___security_cookie
  0000b	33 c5		 xor	 eax, ebp
  0000d	89 45 fc	 mov	 DWORD PTR __$ArrayPad$[ebp], eax
  00010	53		 push	 ebx
  00011	8b 5d 0c	 mov	 ebx, DWORD PTR _pImage$[ebp]
  00014	56		 push	 esi
  00015	57		 push	 edi
  00016	8b 7d 08	 mov	 edi, DWORD PTR _szType$[ebp]

; 534  : 	if( szType == "Exp_Gauge" )

  00019	6a 02		 push	 2
  0001b	89 4d e8	 mov	 DWORD PTR _this$GSCopy$[ebp], ecx
  0001e	c7 45 ec a8 94
	9b b5		 mov	 DWORD PTR __t$544957[ebp], -1248095064 ; b59b94a8H
  00025	c7 45 f0 aa 8d
	9e 8d		 mov	 DWORD PTR __t$544957[ebp+4], -1918988886 ; 8d9e8daaH
  0002c	8d 45 ec	 lea	 eax, DWORD PTR __t$544957[ebp]
  0002f	66 c7 45 f4 88
	00		 mov	 WORD PTR __t$544957[ebp+8], 136 ; 00000088H
  00035	59		 pop	 ecx
$LL111@AddRenderI@2:
  00036	81 30 ed ec eb
	ea		 xor	 DWORD PTR [eax], -353637139 ; eaebecedH
  0003c	83 c0 04	 add	 eax, 4
  0003f	49		 dec	 ecx
  00040	75 f4		 jne	 SHORT $LL111@AddRenderI@2
  00042	80 75 f4 ed	 xor	 BYTE PTR __t$544957[ebp+8], -19 ; ffffffedH
  00046	8b cf		 mov	 ecx, edi
  00048	8d 75 ec	 lea	 esi, DWORD PTR __t$544957[ebp]
  0004b	ff 15 00 00 00
	00		 call	 DWORD PTR __imp_?c_str@ioHashString@@QBEPBDXZ
$LL118@AddRenderI@2:
  00051	8a 08		 mov	 cl, BYTE PTR [eax]
  00053	3a 0e		 cmp	 cl, BYTE PTR [esi]
  00055	75 1a		 jne	 SHORT $LN119@AddRenderI@2
  00057	84 c9		 test	 cl, cl
  00059	74 12		 je	 SHORT $LN120@AddRenderI@2
  0005b	8a 48 01	 mov	 cl, BYTE PTR [eax+1]
  0005e	3a 4e 01	 cmp	 cl, BYTE PTR [esi+1]
  00061	75 0e		 jne	 SHORT $LN119@AddRenderI@2
  00063	83 c0 02	 add	 eax, 2
  00066	83 c6 02	 add	 esi, 2
  00069	84 c9		 test	 cl, cl
  0006b	75 e4		 jne	 SHORT $LL118@AddRenderI@2
$LN120@AddRenderI@2:
  0006d	33 c0		 xor	 eax, eax
  0006f	eb 05		 jmp	 SHORT $LN121@AddRenderI@2
$LN119@AddRenderI@2:
  00071	1b c0		 sbb	 eax, eax
  00073	83 d8 ff	 sbb	 eax, -1
$LN121@AddRenderI@2:
  00076	85 c0		 test	 eax, eax
  00078	75 23		 jne	 SHORT $LN3@AddRenderI@2

; 535  : 	{
; 536  : 		SAFEDELETE(m_pExpGauge);

  0007a	8b 75 e8	 mov	 esi, DWORD PTR _this$GSCopy$[ebp]
  0007d	8b 8e 60 01 00
	00		 mov	 ecx, DWORD PTR [esi+352]
  00083	85 c9		 test	 ecx, ecx
  00085	74 0e		 je	 SHORT $LN2@AddRenderI@2
  00087	8b 01		 mov	 eax, DWORD PTR [ecx]
  00089	6a 01		 push	 1
  0008b	ff 50 40	 call	 DWORD PTR [eax+64]
  0008e	83 a6 60 01 00
	00 00		 and	 DWORD PTR [esi+352], 0
$LN2@AddRenderI@2:

; 537  : 		m_pExpGauge = pImage;

  00095	89 9e 60 01 00
	00		 mov	 DWORD PTR [esi+352], ebx

; 538  : 	}
; 539  : 	else

  0009b	eb 0b		 jmp	 SHORT $LN1@AddRenderI@2
$LN3@AddRenderI@2:

; 540  : 	{
; 541  : 		ioWnd::AddRenderImage( szType, pImage );

  0009d	8b 4d e8	 mov	 ecx, DWORD PTR _this$GSCopy$[ebp]
  000a0	53		 push	 ebx
  000a1	57		 push	 edi
  000a2	ff 15 00 00 00
	00		 call	 DWORD PTR __imp_?AddRenderImage@ioWnd@@UAEXABVioHashString@@PAVioUIRenderImage@@@Z
$LN1@AddRenderI@2:

; 542  : 	}
; 543  : }

  000a8	8b 4d fc	 mov	 ecx, DWORD PTR __$ArrayPad$[ebp]
  000ab	5f		 pop	 edi
  000ac	5e		 pop	 esi
  000ad	33 cd		 xor	 ecx, ebp
  000af	5b		 pop	 ebx
  000b0	e8 00 00 00 00	 call	 @__security_check_cookie@4
  000b5	c9		 leave
  000b6	c2 08 00	 ret	 8
?AddRenderImage@ExcavationExpWnd@@UAEXABVioHashString@@PAVioUIRenderImage@@@Z ENDP ; ExcavationExpWnd::AddRenderImage
_TEXT	ENDS
PUBLIC	??0ExcavatingBtn@@QAE@XZ			; ExcavatingBtn::ExcavatingBtn
EXTRN	__imp_??0ioButton@@QAE@XZ:PROC
;	COMDAT xdata$x
; File d:\lost saga for developer\youtube\tutorial\source\src\lsclient\encryptvalue.h
xdata$x	SEGMENT
__unwindtable$??0ExcavatingBtn@@QAE@XZ DD 0ffffffffH
	DD	FLAT:__unwindfunclet$??0ExcavatingBtn@@QAE@XZ$0
	DD	00H
	DD	FLAT:__unwindfunclet$??0ExcavatingBtn@@QAE@XZ$1
	DD	01H
	DD	FLAT:__unwindfunclet$??0ExcavatingBtn@@QAE@XZ$2
__ehfuncinfo$??0ExcavatingBtn@@QAE@XZ DD 019930522H
	DD	03H
	DD	FLAT:__unwindtable$??0ExcavatingBtn@@QAE@XZ
	DD	2 DUP(00H)
	DD	2 DUP(00H)
	DD	00H
	DD	01H
; Function compile flags: /Ogsp
; File d:\lost saga for developer\youtube\tutorial\source\src\lsclient\gui\excavationwnd.cpp
xdata$x	ENDS
;	COMDAT ??0ExcavatingBtn@@QAE@XZ
_TEXT	SEGMENT
_this$ = -20						; size = 4
_value$545077 = -16					; size = 4
_value$545073 = -16					; size = 4
__$EHRec$ = -12						; size = 12
??0ExcavatingBtn@@QAE@XZ PROC				; ExcavatingBtn::ExcavatingBtn, COMDAT
; _this$ = ecx

; 582  : {

  00000	6a 08		 push	 8
  00002	b8 00 00 00 00	 mov	 eax, __ehhandler$??0ExcavatingBtn@@QAE@XZ
  00007	e8 00 00 00 00	 call	 __EH_prolog3
  0000c	8b f1		 mov	 esi, ecx
  0000e	89 75 ec	 mov	 DWORD PTR _this$[ebp], esi
  00011	ff 15 00 00 00
	00		 call	 DWORD PTR __imp_??0ioButton@@QAE@XZ
  00017	33 ff		 xor	 edi, edi
  00019	8d 8e 1c 02 00
	00		 lea	 ecx, DWORD PTR [esi+540]
  0001f	89 7d fc	 mov	 DWORD PTR __$EHRec$[ebp+8], edi
  00022	c7 06 00 00 00
	00		 mov	 DWORD PTR [esi], OFFSET ??_7ExcavatingBtn@@6B@
  00028	e8 00 00 00 00	 call	 ??0?$CEncrypt@H@@QAE@XZ	; CEncrypt<int>::CEncrypt<int>
  0002d	8d 8e 4c 02 00
	00		 lea	 ecx, DWORD PTR [esi+588]
  00033	c6 45 fc 01	 mov	 BYTE PTR __$EHRec$[ebp+8], 1
  00037	e8 00 00 00 00	 call	 ??0?$CEncrypt@H@@QAE@XZ	; CEncrypt<int>::CEncrypt<int>

; 583  : 	m_pIcon = NULL;
; 584  : 
; 585  : 	m_iMaxCoolTime  = 0;

  0003c	8d 45 f0	 lea	 eax, DWORD PTR _value$545073[ebp]
  0003f	50		 push	 eax
  00040	8d 8e 1c 02 00
	00		 lea	 ecx, DWORD PTR [esi+540]
  00046	c6 45 fc 02	 mov	 BYTE PTR __$EHRec$[ebp+8], 2
  0004a	89 be fc 01 00
	00		 mov	 DWORD PTR [esi+508], edi
  00050	89 7d f0	 mov	 DWORD PTR _value$545073[ebp], edi
  00053	e8 00 00 00 00	 call	 ?EncryptValueToPool@?$CEncrypt@H@@AAEXPBD@Z ; CEncrypt<int>::EncryptValueToPool

; 586  : 	m_iCurCoolTime  = 0;

  00058	8d 45 f0	 lea	 eax, DWORD PTR _value$545077[ebp]
  0005b	50		 push	 eax
  0005c	8d 8e 4c 02 00
	00		 lea	 ecx, DWORD PTR [esi+588]
  00062	89 7d f0	 mov	 DWORD PTR _value$545077[ebp], edi
  00065	e8 00 00 00 00	 call	 ?EncryptValueToPool@?$CEncrypt@H@@AAEXPBD@Z ; CEncrypt<int>::EncryptValueToPool

; 587  : 	m_dwCoolStartTime = 0;
; 588  : 
; 589  : 	m_fCurScaleRate    = 0.0f;

  0006a	0f 57 c0	 xorps	 xmm0, xmm0

; 590  : 	m_dwScaleStartTime = 0;
; 591  : 
; 592  : 	m_pKeyBackNor = NULL;
; 593  : 	m_pKeyBackOn  = NULL;
; 594  : 	m_pKeyBack    = NULL;
; 595  : 
; 596  : 	m_pAttackKeyNor  = NULL;
; 597  : 	m_pAttackKeyOn   = NULL;
; 598  : 
; 599  : 	m_pKeyDashNor = NULL;
; 600  : 	m_pKeyDashOn  = NULL;
; 601  : 
; 602  : 	m_wAttackValue = 0;

  0006d	33 c0		 xor	 eax, eax
  0006f	66 89 86 88 02
	00 00		 mov	 WORD PTR [esi+648], ax
  00076	89 be 7c 02 00
	00		 mov	 DWORD PTR [esi+636], edi
  0007c	f3 0f 11 86 84
	02 00 00	 movss	 DWORD PTR [esi+644], xmm0
  00084	89 be 80 02 00
	00		 mov	 DWORD PTR [esi+640], edi
  0008a	89 be 00 02 00
	00		 mov	 DWORD PTR [esi+512], edi
  00090	89 be 04 02 00
	00		 mov	 DWORD PTR [esi+516], edi
  00096	89 be 08 02 00
	00		 mov	 DWORD PTR [esi+520], edi
  0009c	89 be 0c 02 00
	00		 mov	 DWORD PTR [esi+524], edi
  000a2	89 be 10 02 00
	00		 mov	 DWORD PTR [esi+528], edi
  000a8	89 be 14 02 00
	00		 mov	 DWORD PTR [esi+532], edi
  000ae	89 be 18 02 00
	00		 mov	 DWORD PTR [esi+536], edi

; 603  : }

  000b4	8b c6		 mov	 eax, esi
  000b6	e8 00 00 00 00	 call	 __EH_epilog3
  000bb	c3		 ret	 0
_TEXT	ENDS
;	COMDAT text$x
text$x	SEGMENT
__unwindfunclet$??0ExcavatingBtn@@QAE@XZ$0:
  00000	8b 4d ec	 mov	 ecx, DWORD PTR _this$[ebp]
  00003	ff 25 00 00 00
	00		 jmp	 DWORD PTR __imp_??1ioButton@@UAE@XZ
__unwindfunclet$??0ExcavatingBtn@@QAE@XZ$1:
  00009	8b 4d ec	 mov	 ecx, DWORD PTR _this$[ebp]
  0000c	81 c1 1c 02 00
	00		 add	 ecx, 540		; 0000021cH
  00012	e9 00 00 00 00	 jmp	 ??1?$CEncrypt@H@@UAE@XZ	; CEncrypt<int>::~CEncrypt<int>
__unwindfunclet$??0ExcavatingBtn@@QAE@XZ$2:
  00017	8b 4d ec	 mov	 ecx, DWORD PTR _this$[ebp]
  0001a	81 c1 4c 02 00
	00		 add	 ecx, 588		; 0000024cH
  00020	e9 00 00 00 00	 jmp	 ??1?$CEncrypt@H@@UAE@XZ	; CEncrypt<int>::~CEncrypt<int>
__ehhandler$??0ExcavatingBtn@@QAE@XZ:
  00025	8b 54 24 08	 mov	 edx, DWORD PTR [esp+8]
  00029	8d 42 0c	 lea	 eax, DWORD PTR [edx+12]
  0002c	8b 4a e8	 mov	 ecx, DWORD PTR [edx-24]
  0002f	33 c8		 xor	 ecx, eax
  00031	e8 00 00 00 00	 call	 @__security_check_cookie@4
  00036	b8 00 00 00 00	 mov	 eax, OFFSET __ehfuncinfo$??0ExcavatingBtn@@QAE@XZ
  0003b	e9 00 00 00 00	 jmp	 ___CxxFrameHandler3
text$x	ENDS
??0ExcavatingBtn@@QAE@XZ ENDP				; ExcavatingBtn::ExcavatingBtn
; Function compile flags: /Ogsp
;	COMDAT ??_GExcavatingBtn@@UAEPAXI@Z
_TEXT	SEGMENT
___flags$ = 8						; size = 4
??_GExcavatingBtn@@UAEPAXI@Z PROC			; ExcavatingBtn::`scalar deleting destructor', COMDAT
; _this$ = ecx
  00000	55		 push	 ebp
  00001	8b ec		 mov	 ebp, esp
  00003	56		 push	 esi
  00004	8b f1		 mov	 esi, ecx
  00006	e8 00 00 00 00	 call	 ??1ExcavatingBtn@@UAE@XZ ; ExcavatingBtn::~ExcavatingBtn
  0000b	f6 45 08 01	 test	 BYTE PTR ___flags$[ebp], 1
  0000f	74 07		 je	 SHORT $LN1@scalar@6
  00011	56		 push	 esi
  00012	e8 00 00 00 00	 call	 ??3@YAXPAX@Z		; operator delete
  00017	59		 pop	 ecx
$LN1@scalar@6:
  00018	8b c6		 mov	 eax, esi
  0001a	5e		 pop	 esi
  0001b	5d		 pop	 ebp
  0001c	c2 04 00	 ret	 4
??_GExcavatingBtn@@UAEPAXI@Z ENDP			; ExcavatingBtn::`scalar deleting destructor'
_TEXT	ENDS
PUBLIC	_pImage$GSCopy$
PUBLIC	_szType$GSCopy$
PUBLIC	_this$GSCopy$
PUBLIC	__$ArrayPad$
; Function compile flags: /Ogsp
;	COMDAT ?AddRenderImage@ExcavatingBtn@@UAEXABVioHashString@@PAVioUIRenderImage@@@Z
_TEXT	SEGMENT
_szType$GSCopy$ = -32					; size = 4
_pImage$GSCopy$ = -28					; size = 4
_this$GSCopy$ = -24					; size = 4
__t$545752 = -20					; size = 10
__t$545627 = -20					; size = 11
__t$545515 = -20					; size = 8
__t$545377 = -20					; size = 10
__t$545252 = -20					; size = 11
__t$545140 = -16					; size = 5
__$ArrayPad$ = -4					; size = 4
_szType$ = 8						; size = 4
_pImage$ = 12						; size = 4
?AddRenderImage@ExcavatingBtn@@UAEXABVioHashString@@PAVioUIRenderImage@@@Z PROC ; ExcavatingBtn::AddRenderImage, COMDAT
; _this$ = ecx

; 621  : {

  00000	55		 push	 ebp
  00001	8b ec		 mov	 ebp, esp
  00003	83 ec 20	 sub	 esp, 32			; 00000020H
  00006	a1 00 00 00 00	 mov	 eax, DWORD PTR ___security_cookie
  0000b	33 c5		 xor	 eax, ebp
  0000d	89 45 fc	 mov	 DWORD PTR __$ArrayPad$[ebp], eax
  00010	8b 45 0c	 mov	 eax, DWORD PTR _pImage$[ebp]
  00013	53		 push	 ebx
  00014	56		 push	 esi
  00015	57		 push	 edi
  00016	89 4d e8	 mov	 DWORD PTR _this$GSCopy$[ebp], ecx
  00019	8b 4d 08	 mov	 ecx, DWORD PTR _szType$[ebp]

; 622  : 	if( szType == "Icon" )

  0001c	33 db		 xor	 ebx, ebx
  0001e	bf ed ec eb ea	 mov	 edi, -353637139		; eaebecedH
  00023	c7 45 f0 a4 8f
	84 84		 mov	 DWORD PTR __t$545140[ebp], -2071687260 ; 84848fa4H
  0002a	31 7d f0	 xor	 DWORD PTR __t$545140[ebp], edi

; 646  : 	}
; 647  : 	else if( szType == "KeyDashOn" )

  0002d	89 4d e0	 mov	 DWORD PTR _szType$GSCopy$[ebp], ecx
  00030	89 45 e4	 mov	 DWORD PTR _pImage$GSCopy$[ebp], eax
  00033	88 5d f4	 mov	 BYTE PTR __t$545140[ebp+4], bl
  00036	8d 75 f0	 lea	 esi, DWORD PTR __t$545140[ebp]
  00039	ff 15 00 00 00
	00		 call	 DWORD PTR __imp_?c_str@ioHashString@@QBEPBDXZ
$LL698@AddRenderI@3:

; 622  : 	if( szType == "Icon" )

  0003f	8a 08		 mov	 cl, BYTE PTR [eax]
  00041	3a 0e		 cmp	 cl, BYTE PTR [esi]
  00043	75 1a		 jne	 SHORT $LN699@AddRenderI@3
  00045	3a cb		 cmp	 cl, bl
  00047	74 12		 je	 SHORT $LN700@AddRenderI@3
  00049	8a 48 01	 mov	 cl, BYTE PTR [eax+1]
  0004c	3a 4e 01	 cmp	 cl, BYTE PTR [esi+1]
  0004f	75 0e		 jne	 SHORT $LN699@AddRenderI@3
  00051	83 c0 02	 add	 eax, 2
  00054	83 c6 02	 add	 esi, 2
  00057	3a cb		 cmp	 cl, bl
  00059	75 e4		 jne	 SHORT $LL698@AddRenderI@3
$LN700@AddRenderI@3:
  0005b	33 c0		 xor	 eax, eax
  0005d	eb 05		 jmp	 SHORT $LN701@AddRenderI@3
$LN699@AddRenderI@3:
  0005f	1b c0		 sbb	 eax, eax
  00061	83 d8 ff	 sbb	 eax, -1
$LN701@AddRenderI@3:
  00064	3b c3		 cmp	 eax, ebx
  00066	75 28		 jne	 SHORT $LN693@AddRenderI@3

; 623  : 	{
; 624  : 		SAFEDELETE( m_pIcon );

  00068	8b 75 e8	 mov	 esi, DWORD PTR _this$GSCopy$[ebp]
  0006b	8b 8e fc 01 00
	00		 mov	 ecx, DWORD PTR [esi+508]
  00071	3b cb		 cmp	 ecx, ebx
  00073	74 0d		 je	 SHORT $LN17@AddRenderI@3
  00075	8b 01		 mov	 eax, DWORD PTR [ecx]
  00077	6a 01		 push	 1
  00079	ff 50 40	 call	 DWORD PTR [eax+64]
  0007c	89 9e fc 01 00
	00		 mov	 DWORD PTR [esi+508], ebx
$LN17@AddRenderI@3:

; 625  : 		m_pIcon  = pImage;

  00082	8b 45 e4	 mov	 eax, DWORD PTR _pImage$GSCopy$[ebp]
  00085	89 86 fc 01 00
	00		 mov	 DWORD PTR [esi+508], eax
  0008b	e9 e4 02 00 00	 jmp	 $LN1@AddRenderI@3
$LN693@AddRenderI@3:

; 626  : 	}
; 627  : 	else if( szType == "KeyBackNor" )

  00090	6a 02		 push	 2
  00092	c7 45 ec a6 89
	92 a8		 mov	 DWORD PTR __t$545252[ebp], -1466791514 ; a89289a6H
  00099	c7 45 f0 8c 8f
	80 a4		 mov	 DWORD PTR __t$545252[ebp+4], -1535078516 ; a4808f8cH
  000a0	66 c7 45 f4 82
	9e		 mov	 WORD PTR __t$545252[ebp+8], 40578 ; 00009e82H
  000a6	8d 45 ec	 lea	 eax, DWORD PTR __t$545252[ebp]
  000a9	88 5d f6	 mov	 BYTE PTR __t$545252[ebp+10], bl
  000ac	59		 pop	 ecx
$LL242@AddRenderI@3:
  000ad	31 38		 xor	 DWORD PTR [eax], edi
  000af	83 c0 04	 add	 eax, 4
  000b2	49		 dec	 ecx
  000b3	75 f8		 jne	 SHORT $LL242@AddRenderI@3
  000b5	6a 08		 push	 8
  000b7	58		 pop	 eax
$LL239@AddRenderI@3:
  000b8	8b c8		 mov	 ecx, eax
  000ba	81 e1 03 00 00
	80		 and	 ecx, -2147483645	; 80000003H
  000c0	79 05		 jns	 SHORT $LN725@AddRenderI@3
  000c2	49		 dec	 ecx
  000c3	83 c9 fc	 or	 ecx, -4			; fffffffcH
  000c6	41		 inc	 ecx
$LN725@AddRenderI@3:
  000c7	b2 ed		 mov	 dl, -19			; ffffffedH
  000c9	2a d1		 sub	 dl, cl
  000cb	30 54 05 ec	 xor	 BYTE PTR __t$545252[ebp+eax], dl
  000cf	40		 inc	 eax
  000d0	83 f8 0a	 cmp	 eax, 10			; 0000000aH
  000d3	7c e3		 jl	 SHORT $LL239@AddRenderI@3
  000d5	8b 4d e0	 mov	 ecx, DWORD PTR _szType$GSCopy$[ebp]
  000d8	8d 75 ec	 lea	 esi, DWORD PTR __t$545252[ebp]
  000db	ff 15 00 00 00
	00		 call	 DWORD PTR __imp_?c_str@ioHashString@@QBEPBDXZ
$LL702@AddRenderI@3:
  000e1	8a 08		 mov	 cl, BYTE PTR [eax]
  000e3	3a 0e		 cmp	 cl, BYTE PTR [esi]
  000e5	75 1a		 jne	 SHORT $LN703@AddRenderI@3
  000e7	3a cb		 cmp	 cl, bl
  000e9	74 12		 je	 SHORT $LN722@AddRenderI@3
  000eb	8a 48 01	 mov	 cl, BYTE PTR [eax+1]
  000ee	3a 4e 01	 cmp	 cl, BYTE PTR [esi+1]
  000f1	75 0e		 jne	 SHORT $LN703@AddRenderI@3
  000f3	83 c0 02	 add	 eax, 2
  000f6	83 c6 02	 add	 esi, 2
  000f9	3a cb		 cmp	 cl, bl
  000fb	75 e4		 jne	 SHORT $LL702@AddRenderI@3
$LN722@AddRenderI@3:
  000fd	33 c0		 xor	 eax, eax
  000ff	eb 05		 jmp	 SHORT $LN705@AddRenderI@3
$LN703@AddRenderI@3:
  00101	1b c0		 sbb	 eax, eax
  00103	83 d8 ff	 sbb	 eax, -1
$LN705@AddRenderI@3:
  00106	3b c3		 cmp	 eax, ebx
  00108	75 28		 jne	 SHORT $LN694@AddRenderI@3

; 628  : 	{
; 629  : 		SAFEDELETE( m_pKeyBackNor );

  0010a	8b 75 e8	 mov	 esi, DWORD PTR _this$GSCopy$[ebp]
  0010d	8b 8e 00 02 00
	00		 mov	 ecx, DWORD PTR [esi+512]
  00113	3b cb		 cmp	 ecx, ebx
  00115	74 0d		 je	 SHORT $LN14@AddRenderI@3
  00117	8b 01		 mov	 eax, DWORD PTR [ecx]
  00119	6a 01		 push	 1
  0011b	ff 50 40	 call	 DWORD PTR [eax+64]
  0011e	89 9e 00 02 00
	00		 mov	 DWORD PTR [esi+512], ebx
$LN14@AddRenderI@3:

; 630  : 		m_pKeyBackNor = pImage;

  00124	8b 45 e4	 mov	 eax, DWORD PTR _pImage$GSCopy$[ebp]
  00127	89 86 00 02 00
	00		 mov	 DWORD PTR [esi+512], eax
  0012d	e9 42 02 00 00	 jmp	 $LN1@AddRenderI@3
$LN694@AddRenderI@3:

; 631  : 	}
; 632  : 	else if( szType == "KeyBackOn" )

  00132	6a 02		 push	 2
  00134	c7 45 ec a6 89
	92 a8		 mov	 DWORD PTR __t$545377[ebp], -1466791514 ; a89289a6H
  0013b	c7 45 f0 8c 8f
	80 a5		 mov	 DWORD PTR __t$545377[ebp+4], -1518301300 ; a5808f8cH
  00142	8d 45 ec	 lea	 eax, DWORD PTR __t$545377[ebp]
  00145	66 c7 45 f4 83
	00		 mov	 WORD PTR __t$545377[ebp+8], 131 ; 00000083H
  0014b	59		 pop	 ecx
$LL348@AddRenderI@3:
  0014c	31 38		 xor	 DWORD PTR [eax], edi
  0014e	83 c0 04	 add	 eax, 4
  00151	49		 dec	 ecx
  00152	75 f8		 jne	 SHORT $LL348@AddRenderI@3
  00154	8b 4d e0	 mov	 ecx, DWORD PTR _szType$GSCopy$[ebp]
  00157	80 75 f4 ed	 xor	 BYTE PTR __t$545377[ebp+8], -19 ; ffffffedH
  0015b	8d 75 ec	 lea	 esi, DWORD PTR __t$545377[ebp]
  0015e	ff 15 00 00 00
	00		 call	 DWORD PTR __imp_?c_str@ioHashString@@QBEPBDXZ
$LL706@AddRenderI@3:
  00164	8a 08		 mov	 cl, BYTE PTR [eax]
  00166	3a 0e		 cmp	 cl, BYTE PTR [esi]
  00168	75 1a		 jne	 SHORT $LN707@AddRenderI@3
  0016a	3a cb		 cmp	 cl, bl
  0016c	74 12		 je	 SHORT $LN708@AddRenderI@3
  0016e	8a 48 01	 mov	 cl, BYTE PTR [eax+1]
  00171	3a 4e 01	 cmp	 cl, BYTE PTR [esi+1]
  00174	75 0e		 jne	 SHORT $LN707@AddRenderI@3
  00176	83 c0 02	 add	 eax, 2
  00179	83 c6 02	 add	 esi, 2
  0017c	3a cb		 cmp	 cl, bl
  0017e	75 e4		 jne	 SHORT $LL706@AddRenderI@3
$LN708@AddRenderI@3:
  00180	33 c0		 xor	 eax, eax
  00182	eb 05		 jmp	 SHORT $LN709@AddRenderI@3
$LN707@AddRenderI@3:
  00184	1b c0		 sbb	 eax, eax
  00186	83 d8 ff	 sbb	 eax, -1
$LN709@AddRenderI@3:
  00189	3b c3		 cmp	 eax, ebx
  0018b	75 28		 jne	 SHORT $LN695@AddRenderI@3

; 633  : 	{
; 634  : 		SAFEDELETE( m_pKeyBackOn );

  0018d	8b 75 e8	 mov	 esi, DWORD PTR _this$GSCopy$[ebp]
  00190	8b 8e 04 02 00
	00		 mov	 ecx, DWORD PTR [esi+516]
  00196	3b cb		 cmp	 ecx, ebx
  00198	74 0d		 je	 SHORT $LN11@AddRenderI@3
  0019a	8b 01		 mov	 eax, DWORD PTR [ecx]
  0019c	6a 01		 push	 1
  0019e	ff 50 40	 call	 DWORD PTR [eax+64]
  001a1	89 9e 04 02 00
	00		 mov	 DWORD PTR [esi+516], ebx
$LN11@AddRenderI@3:

; 635  : 		m_pKeyBackOn = pImage;

  001a7	8b 45 e4	 mov	 eax, DWORD PTR _pImage$GSCopy$[ebp]
  001aa	89 86 04 02 00
	00		 mov	 DWORD PTR [esi+516], eax
  001b0	e9 bf 01 00 00	 jmp	 $LN1@AddRenderI@3
$LN695@AddRenderI@3:

; 636  : 	}
; 637  : 	else if( szType == "KeyBack" )

  001b5	6a 04		 push	 4
  001b7	c7 45 ec a6 89
	92 a8		 mov	 DWORD PTR __t$545515[ebp], -1466791514 ; a89289a6H
  001be	31 7d ec	 xor	 DWORD PTR __t$545515[ebp], edi
  001c1	c7 45 f0 8c 8f
	80 00		 mov	 DWORD PTR __t$545515[ebp+4], 8425356 ; 00808f8cH
  001c8	58		 pop	 eax
$LL451@AddRenderI@3:
  001c9	8b c8		 mov	 ecx, eax
  001cb	81 e1 03 00 00
	80		 and	 ecx, -2147483645	; 80000003H
  001d1	79 05		 jns	 SHORT $LN726@AddRenderI@3
  001d3	49		 dec	 ecx
  001d4	83 c9 fc	 or	 ecx, -4			; fffffffcH
  001d7	41		 inc	 ecx
$LN726@AddRenderI@3:
  001d8	b2 ed		 mov	 dl, -19			; ffffffedH
  001da	2a d1		 sub	 dl, cl
  001dc	30 54 05 ec	 xor	 BYTE PTR __t$545515[ebp+eax], dl
  001e0	40		 inc	 eax
  001e1	83 f8 07	 cmp	 eax, 7
  001e4	7c e3		 jl	 SHORT $LL451@AddRenderI@3
  001e6	8b 4d e0	 mov	 ecx, DWORD PTR _szType$GSCopy$[ebp]
  001e9	8d 75 ec	 lea	 esi, DWORD PTR __t$545515[ebp]
  001ec	ff 15 00 00 00
	00		 call	 DWORD PTR __imp_?c_str@ioHashString@@QBEPBDXZ
$LL710@AddRenderI@3:
  001f2	8a 08		 mov	 cl, BYTE PTR [eax]
  001f4	3a 0e		 cmp	 cl, BYTE PTR [esi]
  001f6	75 1a		 jne	 SHORT $LN711@AddRenderI@3
  001f8	3a cb		 cmp	 cl, bl
  001fa	74 12		 je	 SHORT $LN723@AddRenderI@3
  001fc	8a 48 01	 mov	 cl, BYTE PTR [eax+1]
  001ff	3a 4e 01	 cmp	 cl, BYTE PTR [esi+1]
  00202	75 0e		 jne	 SHORT $LN711@AddRenderI@3
  00204	83 c0 02	 add	 eax, 2
  00207	83 c6 02	 add	 esi, 2
  0020a	3a cb		 cmp	 cl, bl
  0020c	75 e4		 jne	 SHORT $LL710@AddRenderI@3
$LN723@AddRenderI@3:
  0020e	33 c0		 xor	 eax, eax
  00210	eb 05		 jmp	 SHORT $LN713@AddRenderI@3
$LN711@AddRenderI@3:
  00212	1b c0		 sbb	 eax, eax
  00214	83 d8 ff	 sbb	 eax, -1
$LN713@AddRenderI@3:
  00217	3b c3		 cmp	 eax, ebx
  00219	75 28		 jne	 SHORT $LN696@AddRenderI@3

; 638  : 	{
; 639  : 		SAFEDELETE( m_pKeyBack );

  0021b	8b 75 e8	 mov	 esi, DWORD PTR _this$GSCopy$[ebp]
  0021e	8b 8e 08 02 00
	00		 mov	 ecx, DWORD PTR [esi+520]
  00224	3b cb		 cmp	 ecx, ebx
  00226	74 0d		 je	 SHORT $LN8@AddRenderI@3
  00228	8b 01		 mov	 eax, DWORD PTR [ecx]
  0022a	6a 01		 push	 1
  0022c	ff 50 40	 call	 DWORD PTR [eax+64]
  0022f	89 9e 08 02 00
	00		 mov	 DWORD PTR [esi+520], ebx
$LN8@AddRenderI@3:

; 640  : 		m_pKeyBack = pImage;

  00235	8b 45 e4	 mov	 eax, DWORD PTR _pImage$GSCopy$[ebp]
  00238	89 86 08 02 00
	00		 mov	 DWORD PTR [esi+520], eax
  0023e	e9 31 01 00 00	 jmp	 $LN1@AddRenderI@3
$LN696@AddRenderI@3:

; 641  : 	}
; 642  : 	else if( szType == "KeyDashNor" )

  00243	6a 02		 push	 2
  00245	c7 45 ec a6 89
	92 ae		 mov	 DWORD PTR __t$545627[ebp], -1366128218 ; ae9289a6H
  0024c	c7 45 f0 8c 9f
	83 a4		 mov	 DWORD PTR __t$545627[ebp+4], -1534877812 ; a4839f8cH
  00253	66 c7 45 f4 82
	9e		 mov	 WORD PTR __t$545627[ebp+8], 40578 ; 00009e82H
  00259	8d 45 ec	 lea	 eax, DWORD PTR __t$545627[ebp]
  0025c	88 5d f6	 mov	 BYTE PTR __t$545627[ebp+10], bl
  0025f	59		 pop	 ecx
$LL560@AddRenderI@3:
  00260	31 38		 xor	 DWORD PTR [eax], edi
  00262	83 c0 04	 add	 eax, 4
  00265	49		 dec	 ecx
  00266	75 f8		 jne	 SHORT $LL560@AddRenderI@3
  00268	6a 08		 push	 8
  0026a	58		 pop	 eax
$LL557@AddRenderI@3:
  0026b	8b c8		 mov	 ecx, eax
  0026d	81 e1 03 00 00
	80		 and	 ecx, -2147483645	; 80000003H
  00273	79 05		 jns	 SHORT $LN727@AddRenderI@3
  00275	49		 dec	 ecx
  00276	83 c9 fc	 or	 ecx, -4			; fffffffcH
  00279	41		 inc	 ecx
$LN727@AddRenderI@3:
  0027a	b2 ed		 mov	 dl, -19			; ffffffedH
  0027c	2a d1		 sub	 dl, cl
  0027e	30 54 05 ec	 xor	 BYTE PTR __t$545627[ebp+eax], dl
  00282	40		 inc	 eax
  00283	83 f8 0a	 cmp	 eax, 10			; 0000000aH
  00286	7c e3		 jl	 SHORT $LL557@AddRenderI@3
  00288	8b 4d e0	 mov	 ecx, DWORD PTR _szType$GSCopy$[ebp]
  0028b	8d 75 ec	 lea	 esi, DWORD PTR __t$545627[ebp]
  0028e	ff 15 00 00 00
	00		 call	 DWORD PTR __imp_?c_str@ioHashString@@QBEPBDXZ
$LL714@AddRenderI@3:
  00294	8a 08		 mov	 cl, BYTE PTR [eax]
  00296	3a 0e		 cmp	 cl, BYTE PTR [esi]
  00298	75 1a		 jne	 SHORT $LN715@AddRenderI@3
  0029a	3a cb		 cmp	 cl, bl
  0029c	74 12		 je	 SHORT $LN724@AddRenderI@3
  0029e	8a 48 01	 mov	 cl, BYTE PTR [eax+1]
  002a1	3a 4e 01	 cmp	 cl, BYTE PTR [esi+1]
  002a4	75 0e		 jne	 SHORT $LN715@AddRenderI@3
  002a6	83 c0 02	 add	 eax, 2
  002a9	83 c6 02	 add	 esi, 2
  002ac	3a cb		 cmp	 cl, bl
  002ae	75 e4		 jne	 SHORT $LL714@AddRenderI@3
$LN724@AddRenderI@3:
  002b0	33 c0		 xor	 eax, eax
  002b2	eb 05		 jmp	 SHORT $LN717@AddRenderI@3
$LN715@AddRenderI@3:
  002b4	1b c0		 sbb	 eax, eax
  002b6	83 d8 ff	 sbb	 eax, -1
$LN717@AddRenderI@3:
  002b9	3b c3		 cmp	 eax, ebx
  002bb	75 28		 jne	 SHORT $LN697@AddRenderI@3

; 643  : 	{
; 644  : 		SAFEDELETE( m_pKeyDashNor );

  002bd	8b 75 e8	 mov	 esi, DWORD PTR _this$GSCopy$[ebp]
  002c0	8b 8e 14 02 00
	00		 mov	 ecx, DWORD PTR [esi+532]
  002c6	3b cb		 cmp	 ecx, ebx
  002c8	74 0d		 je	 SHORT $LN5@AddRenderI@3
  002ca	8b 01		 mov	 eax, DWORD PTR [ecx]
  002cc	6a 01		 push	 1
  002ce	ff 50 40	 call	 DWORD PTR [eax+64]
  002d1	89 9e 14 02 00
	00		 mov	 DWORD PTR [esi+532], ebx
$LN5@AddRenderI@3:

; 645  : 		m_pKeyDashNor = pImage;

  002d7	8b 45 e4	 mov	 eax, DWORD PTR _pImage$GSCopy$[ebp]
  002da	89 86 14 02 00
	00		 mov	 DWORD PTR [esi+532], eax
  002e0	e9 8f 00 00 00	 jmp	 $LN1@AddRenderI@3
$LN697@AddRenderI@3:

; 646  : 	}
; 647  : 	else if( szType == "KeyDashOn" )

  002e5	6a 02		 push	 2
  002e7	c7 45 ec a6 89
	92 ae		 mov	 DWORD PTR __t$545752[ebp], -1366128218 ; ae9289a6H
  002ee	c7 45 f0 8c 9f
	83 a5		 mov	 DWORD PTR __t$545752[ebp+4], -1518100596 ; a5839f8cH
  002f5	8d 45 ec	 lea	 eax, DWORD PTR __t$545752[ebp]
  002f8	66 c7 45 f4 83
	00		 mov	 WORD PTR __t$545752[ebp+8], 131 ; 00000083H
  002fe	59		 pop	 ecx
$LL666@AddRenderI@3:
  002ff	31 38		 xor	 DWORD PTR [eax], edi
  00301	83 c0 04	 add	 eax, 4
  00304	49		 dec	 ecx
  00305	75 f8		 jne	 SHORT $LL666@AddRenderI@3
  00307	8b 4d e0	 mov	 ecx, DWORD PTR _szType$GSCopy$[ebp]
  0030a	80 75 f4 ed	 xor	 BYTE PTR __t$545752[ebp+8], -19 ; ffffffedH
  0030e	8d 75 ec	 lea	 esi, DWORD PTR __t$545752[ebp]
  00311	ff 15 00 00 00
	00		 call	 DWORD PTR __imp_?c_str@ioHashString@@QBEPBDXZ
$LL718@AddRenderI@3:
  00317	8a 08		 mov	 cl, BYTE PTR [eax]
  00319	3a 0e		 cmp	 cl, BYTE PTR [esi]
  0031b	75 1a		 jne	 SHORT $LN719@AddRenderI@3
  0031d	3a cb		 cmp	 cl, bl
  0031f	74 12		 je	 SHORT $LN720@AddRenderI@3
  00321	8a 48 01	 mov	 cl, BYTE PTR [eax+1]
  00324	3a 4e 01	 cmp	 cl, BYTE PTR [esi+1]
  00327	75 0e		 jne	 SHORT $LN719@AddRenderI@3
  00329	83 c0 02	 add	 eax, 2
  0032c	83 c6 02	 add	 esi, 2
  0032f	3a cb		 cmp	 cl, bl
  00331	75 e4		 jne	 SHORT $LL718@AddRenderI@3
$LN720@AddRenderI@3:
  00333	33 c0		 xor	 eax, eax
  00335	eb 05		 jmp	 SHORT $LN721@AddRenderI@3
$LN719@AddRenderI@3:
  00337	1b c0		 sbb	 eax, eax
  00339	83 d8 ff	 sbb	 eax, -1
$LN721@AddRenderI@3:
  0033c	3b c3		 cmp	 eax, ebx
  0033e	75 25		 jne	 SHORT $LN3@AddRenderI@3

; 648  : 	{
; 649  : 		SAFEDELETE( m_pKeyDashOn );

  00340	8b 75 e8	 mov	 esi, DWORD PTR _this$GSCopy$[ebp]
  00343	8b 8e 18 02 00
	00		 mov	 ecx, DWORD PTR [esi+536]
  00349	3b cb		 cmp	 ecx, ebx
  0034b	74 0d		 je	 SHORT $LN2@AddRenderI@3
  0034d	8b 01		 mov	 eax, DWORD PTR [ecx]
  0034f	6a 01		 push	 1
  00351	ff 50 40	 call	 DWORD PTR [eax+64]
  00354	89 9e 18 02 00
	00		 mov	 DWORD PTR [esi+536], ebx
$LN2@AddRenderI@3:

; 650  : 		m_pKeyDashOn  = pImage;

  0035a	8b 45 e4	 mov	 eax, DWORD PTR _pImage$GSCopy$[ebp]
  0035d	89 86 18 02 00
	00		 mov	 DWORD PTR [esi+536], eax

; 651  : 	}
; 652  : 	else

  00363	eb 0f		 jmp	 SHORT $LN1@AddRenderI@3
$LN3@AddRenderI@3:

; 653  : 	{
; 654  : 		ioWnd::AddRenderImage( szType, pImage );

  00365	ff 75 e4	 push	 DWORD PTR _pImage$GSCopy$[ebp]
  00368	8b 4d e8	 mov	 ecx, DWORD PTR _this$GSCopy$[ebp]
  0036b	ff 75 e0	 push	 DWORD PTR _szType$GSCopy$[ebp]
  0036e	ff 15 00 00 00
	00		 call	 DWORD PTR __imp_?AddRenderImage@ioWnd@@UAEXABVioHashString@@PAVioUIRenderImage@@@Z
$LN1@AddRenderI@3:

; 655  : 	}
; 656  : }

  00374	8b 4d fc	 mov	 ecx, DWORD PTR __$ArrayPad$[ebp]
  00377	5f		 pop	 edi
  00378	5e		 pop	 esi
  00379	33 cd		 xor	 ecx, ebp
  0037b	5b		 pop	 ebx
  0037c	e8 00 00 00 00	 call	 @__security_check_cookie@4
  00381	c9		 leave
  00382	c2 08 00	 ret	 8
?AddRenderImage@ExcavatingBtn@@UAEXABVioHashString@@PAVioUIRenderImage@@@Z ENDP ; ExcavatingBtn::AddRenderImage
_TEXT	ENDS
PUBLIC	?IsCanExcavating@ExcavatingBtn@@QAE_NXZ		; ExcavatingBtn::IsCanExcavating
; Function compile flags: /Ogsp
;	COMDAT ?IsCanExcavating@ExcavatingBtn@@QAE_NXZ
_TEXT	SEGMENT
_value$545930 = -8					; size = 4
_value$545934 = -4					; size = 4
?IsCanExcavating@ExcavatingBtn@@QAE_NXZ PROC		; ExcavatingBtn::IsCanExcavating, COMDAT
; _this$ = ecx

; 780  : {

  00000	55		 push	 ebp
  00001	8b ec		 mov	 ebp, esp
  00003	51		 push	 ecx
  00004	51		 push	 ecx
  00005	56		 push	 esi
  00006	8b f1		 mov	 esi, ecx

; 781  : 	if( m_iMaxCoolTime == m_iCurCoolTime )

  00008	8d 45 f8	 lea	 eax, DWORD PTR _value$545930[ebp]
  0000b	50		 push	 eax
  0000c	8d 8e 4c 02 00
	00		 lea	 ecx, DWORD PTR [esi+588]
  00012	e8 00 00 00 00	 call	 ?DecryptValueToPool@?$CEncrypt@H@@QAEXPAH@Z ; CEncrypt<int>::DecryptValueToPool
  00017	8d 45 fc	 lea	 eax, DWORD PTR _value$545934[ebp]
  0001a	50		 push	 eax
  0001b	8d 8e 1c 02 00
	00		 lea	 ecx, DWORD PTR [esi+540]
  00021	e8 00 00 00 00	 call	 ?DecryptValueToPool@?$CEncrypt@H@@QAEXPAH@Z ; CEncrypt<int>::DecryptValueToPool
  00026	8b 45 fc	 mov	 eax, DWORD PTR _value$545934[ebp]
  00029	3b 45 f8	 cmp	 eax, DWORD PTR _value$545930[ebp]
  0002c	5e		 pop	 esi
  0002d	0f 94 c0	 sete	 al

; 782  : 		return true;
; 783  : 
; 784  : 	return false;
; 785  : }

  00030	c9		 leave
  00031	c3		 ret	 0
?IsCanExcavating@ExcavatingBtn@@QAE_NXZ ENDP		; ExcavatingBtn::IsCanExcavating
_TEXT	ENDS
PUBLIC	?InitCoolTime@ExcavatingBtn@@QAEXXZ		; ExcavatingBtn::InitCoolTime
EXTRN	?GetExcavatingCoolTime@ioExcavationManager@@QAEHXZ:PROC ; ioExcavationManager::GetExcavatingCoolTime
; Function compile flags: /Ogsp
;	COMDAT ?InitCoolTime@ExcavatingBtn@@QAEXXZ
_TEXT	SEGMENT
_value$545945 = -4					; size = 4
_value$545940 = -4					; size = 4
?InitCoolTime@ExcavatingBtn@@QAEXXZ PROC		; ExcavatingBtn::InitCoolTime, COMDAT
; _this$ = ecx

; 788  : {

  00000	55		 push	 ebp
  00001	8b ec		 mov	 ebp, esp
  00003	51		 push	 ecx
  00004	56		 push	 esi
  00005	8b f1		 mov	 esi, ecx

; 789  : 	m_iMaxCoolTime = g_ExcavationMgr.GetExcavatingCoolTime();

  00007	e8 00 00 00 00	 call	 ?GetSingleton@ioExcavationManager@@SAAAV1@XZ ; ioExcavationManager::GetSingleton
  0000c	8b c8		 mov	 ecx, eax
  0000e	e8 00 00 00 00	 call	 ?GetExcavatingCoolTime@ioExcavationManager@@QAEHXZ ; ioExcavationManager::GetExcavatingCoolTime
  00013	89 45 fc	 mov	 DWORD PTR _value$545940[ebp], eax
  00016	8d 45 fc	 lea	 eax, DWORD PTR _value$545940[ebp]
  00019	50		 push	 eax
  0001a	8d 8e 1c 02 00
	00		 lea	 ecx, DWORD PTR [esi+540]
  00020	e8 00 00 00 00	 call	 ?EncryptValueToPool@?$CEncrypt@H@@AAEXPBD@Z ; CEncrypt<int>::EncryptValueToPool

; 790  : 	m_iCurCoolTime = 0;

  00025	83 65 fc 00	 and	 DWORD PTR _value$545945[ebp], 0
  00029	8d 45 fc	 lea	 eax, DWORD PTR _value$545945[ebp]
  0002c	50		 push	 eax
  0002d	8d 8e 4c 02 00
	00		 lea	 ecx, DWORD PTR [esi+588]
  00033	e8 00 00 00 00	 call	 ?EncryptValueToPool@?$CEncrypt@H@@AAEXPBD@Z ; CEncrypt<int>::EncryptValueToPool

; 791  : 	m_dwCoolStartTime = FRAMEGETTIME();

  00038	ff 15 00 00 00
	00		 call	 DWORD PTR __imp_?GetSingleton@ioFrameTimer@@SAAAV1@XZ
  0003e	8b c8		 mov	 ecx, eax
  00040	ff 15 00 00 00
	00		 call	 DWORD PTR __imp_?GetLoopSec@ioFrameTimer@@QBEKXZ
  00046	89 86 7c 02 00
	00		 mov	 DWORD PTR [esi+636], eax
  0004c	5e		 pop	 esi

; 792  : }

  0004d	c9		 leave
  0004e	c3		 ret	 0
?InitCoolTime@ExcavatingBtn@@QAEXXZ ENDP		; ExcavatingBtn::InitCoolTime
_TEXT	ENDS
EXTRN	?GetExcavatingFirstCoolTime@ioExcavationManager@@QAEHXZ:PROC ; ioExcavationManager::GetExcavatingFirstCoolTime
; Function compile flags: /Ogsp
;	COMDAT ?iwm_show@ExcavatingBtn@@UAEXXZ
_TEXT	SEGMENT
_value$545956 = -4					; size = 4
_value$545951 = -4					; size = 4
?iwm_show@ExcavatingBtn@@UAEXXZ PROC			; ExcavatingBtn::iwm_show, COMDAT
; _this$ = ecx

; 795  : {

  00000	55		 push	 ebp
  00001	8b ec		 mov	 ebp, esp
  00003	51		 push	 ecx
  00004	56		 push	 esi
  00005	8b f1		 mov	 esi, ecx

; 796  : 	m_iMaxCoolTime    = g_ExcavationMgr.GetExcavatingFirstCoolTime();

  00007	e8 00 00 00 00	 call	 ?GetSingleton@ioExcavationManager@@SAAAV1@XZ ; ioExcavationManager::GetSingleton
  0000c	8b c8		 mov	 ecx, eax
  0000e	e8 00 00 00 00	 call	 ?GetExcavatingFirstCoolTime@ioExcavationManager@@QAEHXZ ; ioExcavationManager::GetExcavatingFirstCoolTime
  00013	89 45 fc	 mov	 DWORD PTR _value$545951[ebp], eax
  00016	8d 45 fc	 lea	 eax, DWORD PTR _value$545951[ebp]
  00019	50		 push	 eax
  0001a	8d 8e 1c 02 00
	00		 lea	 ecx, DWORD PTR [esi+540]
  00020	e8 00 00 00 00	 call	 ?EncryptValueToPool@?$CEncrypt@H@@AAEXPBD@Z ; CEncrypt<int>::EncryptValueToPool

; 797  : 	m_iCurCoolTime    = 0;

  00025	83 65 fc 00	 and	 DWORD PTR _value$545956[ebp], 0
  00029	8d 45 fc	 lea	 eax, DWORD PTR _value$545956[ebp]
  0002c	50		 push	 eax
  0002d	8d 8e 4c 02 00
	00		 lea	 ecx, DWORD PTR [esi+588]
  00033	e8 00 00 00 00	 call	 ?EncryptValueToPool@?$CEncrypt@H@@AAEXPBD@Z ; CEncrypt<int>::EncryptValueToPool

; 798  : 	m_dwCoolStartTime = FRAMEGETTIME();

  00038	ff 15 00 00 00
	00		 call	 DWORD PTR __imp_?GetSingleton@ioFrameTimer@@SAAAV1@XZ
  0003e	8b c8		 mov	 ecx, eax
  00040	ff 15 00 00 00
	00		 call	 DWORD PTR __imp_?GetLoopSec@ioFrameTimer@@QBEKXZ
  00046	89 86 7c 02 00
	00		 mov	 DWORD PTR [esi+636], eax
  0004c	5e		 pop	 esi

; 799  : }

  0004d	c9		 leave
  0004e	c3		 ret	 0
?iwm_show@ExcavatingBtn@@UAEXXZ ENDP			; ExcavatingBtn::iwm_show
_TEXT	ENDS
PUBLIC	?ClearCurCoolTime@ExcavatingBtn@@QAEXXZ		; ExcavatingBtn::ClearCurCoolTime
; Function compile flags: /Ogsp
;	COMDAT ?ClearCurCoolTime@ExcavatingBtn@@QAEXXZ
_TEXT	SEGMENT
_value$545962 = -4					; size = 4
?ClearCurCoolTime@ExcavatingBtn@@QAEXXZ PROC		; ExcavatingBtn::ClearCurCoolTime, COMDAT
; _this$ = ecx

; 802  : {

  00000	55		 push	 ebp
  00001	8b ec		 mov	 ebp, esp
  00003	51		 push	 ecx

; 803  : 	m_iCurCoolTime = 0;

  00004	83 65 fc 00	 and	 DWORD PTR _value$545962[ebp], 0
  00008	56		 push	 esi
  00009	8b f1		 mov	 esi, ecx
  0000b	8d 45 fc	 lea	 eax, DWORD PTR _value$545962[ebp]
  0000e	50		 push	 eax
  0000f	8d 8e 4c 02 00
	00		 lea	 ecx, DWORD PTR [esi+588]
  00015	e8 00 00 00 00	 call	 ?EncryptValueToPool@?$CEncrypt@H@@AAEXPBD@Z ; CEncrypt<int>::EncryptValueToPool

; 804  : 	m_dwCoolStartTime = FRAMEGETTIME();

  0001a	ff 15 00 00 00
	00		 call	 DWORD PTR __imp_?GetSingleton@ioFrameTimer@@SAAAV1@XZ
  00020	8b c8		 mov	 ecx, eax
  00022	ff 15 00 00 00
	00		 call	 DWORD PTR __imp_?GetLoopSec@ioFrameTimer@@QBEKXZ
  00028	89 86 7c 02 00
	00		 mov	 DWORD PTR [esi+636], eax
  0002e	5e		 pop	 esi

; 805  : }

  0002f	c9		 leave
  00030	c3		 ret	 0
?ClearCurCoolTime@ExcavatingBtn@@QAEXXZ ENDP		; ExcavatingBtn::ClearCurCoolTime
_TEXT	ENDS
PUBLIC	?RenderInputKey@ExcavatingBtn@@IAEXHH@Z		; ExcavatingBtn::RenderInputKey
; Function compile flags: /Ogsp
;	COMDAT ?RenderInputKey@ExcavatingBtn@@IAEXHH@Z
_TEXT	SEGMENT
_xPos$ = 8						; size = 4
_yPos$ = 12						; size = 4
?RenderInputKey@ExcavatingBtn@@IAEXHH@Z PROC		; ExcavatingBtn::RenderInputKey, COMDAT
; _this$ = ecx

; 815  : {

  00000	55		 push	 ebp
  00001	8b ec		 mov	 ebp, esp
  00003	56		 push	 esi
  00004	57		 push	 edi
  00005	8b f9		 mov	 edi, ecx

; 816  : 	if( !m_pKeyBackNor || !m_pKeyBackOn ) return;

  00007	33 f6		 xor	 esi, esi
  00009	39 b7 00 02 00
	00		 cmp	 DWORD PTR [edi+512], esi
  0000f	0f 84 a0 01 00
	00		 je	 $LN9@RenderInpu@2
  00015	39 b7 04 02 00
	00		 cmp	 DWORD PTR [edi+516], esi
  0001b	0f 84 94 01 00
	00		 je	 $LN9@RenderInpu@2

; 817  : 
; 818  : 	if( IsCanExcavating() == false )

  00021	53		 push	 ebx
  00022	e8 00 00 00 00	 call	 ?IsCanExcavating@ExcavatingBtn@@QAE_NXZ ; ExcavatingBtn::IsCanExcavating

; 819  : 	{
; 820  : 		m_pKeyBackNor->Render(xPos, yPos);	

  00027	8b 5d 0c	 mov	 ebx, DWORD PTR _yPos$[ebp]
  0002a	56		 push	 esi
  0002b	56		 push	 esi
  0002c	56		 push	 esi
  0002d	0f 57 c0	 xorps	 xmm0, xmm0
  00030	f3 0f 2a c3	 cvtsi2ss xmm0, ebx
  00034	56		 push	 esi
  00035	84 c0		 test	 al, al
  00037	0f 85 aa 00 00
	00		 jne	 $LN8@RenderInpu@2
  0003d	8b 8f 00 02 00
	00		 mov	 ecx, DWORD PTR [edi+512]
  00043	8b 01		 mov	 eax, DWORD PTR [ecx]
  00045	51		 push	 ecx
  00046	51		 push	 ecx
  00047	f3 0f 11 44 24
	04		 movss	 DWORD PTR [esp+4], xmm0
  0004d	66 0f 6e 45 08	 movd	 xmm0, DWORD PTR _xPos$[ebp]
  00052	0f 5b c0	 cvtdq2ps xmm0, xmm0
  00055	f3 0f 11 04 24	 movss	 DWORD PTR [esp], xmm0
  0005a	ff 10		 call	 DWORD PTR [eax]

; 821  : 
; 822  : 		if( m_pKeyDashNor )

  0005c	39 b7 14 02 00
	00		 cmp	 DWORD PTR [edi+532], esi
  00062	74 32		 je	 SHORT $LN7@RenderInpu@2

; 823  : 			m_pKeyDashNor->Render( xPos + 4, yPos + 3 );

  00064	8b 8f 14 02 00
	00		 mov	 ecx, DWORD PTR [edi+532]
  0006a	8b 01		 mov	 eax, DWORD PTR [ecx]
  0006c	56		 push	 esi
  0006d	56		 push	 esi
  0006e	56		 push	 esi
  0006f	56		 push	 esi
  00070	0f 57 c0	 xorps	 xmm0, xmm0
  00073	8d 53 03	 lea	 edx, DWORD PTR [ebx+3]
  00076	f3 0f 2a c2	 cvtsi2ss xmm0, edx
  0007a	8b 55 08	 mov	 edx, DWORD PTR _xPos$[ebp]
  0007d	51		 push	 ecx
  0007e	51		 push	 ecx
  0007f	f3 0f 11 44 24
	04		 movss	 DWORD PTR [esp+4], xmm0
  00085	83 c2 04	 add	 edx, 4
  00088	0f 57 c0	 xorps	 xmm0, xmm0
  0008b	f3 0f 2a c2	 cvtsi2ss xmm0, edx
  0008f	f3 0f 11 04 24	 movss	 DWORD PTR [esp], xmm0
  00094	ff 10		 call	 DWORD PTR [eax]
$LN7@RenderInpu@2:

; 824  : 
; 825  : 		if( m_pAttackKeyNor )

  00096	39 b7 0c 02 00
	00		 cmp	 DWORD PTR [edi+524], esi
  0009c	74 32		 je	 SHORT $LN6@RenderInpu@2

; 826  : 			m_pAttackKeyNor->Render( xPos + 12, yPos + 3 );

  0009e	8b 8f 0c 02 00
	00		 mov	 ecx, DWORD PTR [edi+524]
  000a4	8b 01		 mov	 eax, DWORD PTR [ecx]
  000a6	56		 push	 esi
  000a7	56		 push	 esi
  000a8	56		 push	 esi
  000a9	56		 push	 esi
  000aa	0f 57 c0	 xorps	 xmm0, xmm0
  000ad	8d 53 03	 lea	 edx, DWORD PTR [ebx+3]
  000b0	f3 0f 2a c2	 cvtsi2ss xmm0, edx
  000b4	8b 55 08	 mov	 edx, DWORD PTR _xPos$[ebp]
  000b7	51		 push	 ecx
  000b8	51		 push	 ecx
  000b9	f3 0f 11 44 24
	04		 movss	 DWORD PTR [esp+4], xmm0
  000bf	83 c2 0c	 add	 edx, 12			; 0000000cH
  000c2	0f 57 c0	 xorps	 xmm0, xmm0
  000c5	f3 0f 2a c2	 cvtsi2ss xmm0, edx
  000c9	f3 0f 11 04 24	 movss	 DWORD PTR [esp], xmm0
  000ce	ff 10		 call	 DWORD PTR [eax]
$LN6@RenderInpu@2:

; 827  : 
; 828  : 		if( m_pKeyDashNor )

  000d0	39 b7 14 02 00
	00		 cmp	 DWORD PTR [edi+532], esi
  000d6	0f 84 d8 00 00
	00		 je	 $LN13@RenderInpu@2

; 829  : 			m_pKeyDashNor->Render( xPos + 20, yPos + 3 );

  000dc	8b 8f 14 02 00
	00		 mov	 ecx, DWORD PTR [edi+532]

; 830  : 	}
; 831  : 	else

  000e2	e9 a1 00 00 00	 jmp	 $LN14@RenderInpu@2
$LN8@RenderInpu@2:

; 832  : 	{
; 833  : 		m_pKeyBackOn->Render(xPos, yPos);			

  000e7	8b 8f 04 02 00
	00		 mov	 ecx, DWORD PTR [edi+516]
  000ed	8b 01		 mov	 eax, DWORD PTR [ecx]
  000ef	51		 push	 ecx
  000f0	51		 push	 ecx
  000f1	f3 0f 11 44 24
	04		 movss	 DWORD PTR [esp+4], xmm0
  000f7	66 0f 6e 45 08	 movd	 xmm0, DWORD PTR _xPos$[ebp]
  000fc	0f 5b c0	 cvtdq2ps xmm0, xmm0
  000ff	f3 0f 11 04 24	 movss	 DWORD PTR [esp], xmm0
  00104	ff 10		 call	 DWORD PTR [eax]

; 834  : 
; 835  : 		if( m_pKeyDashOn )

  00106	39 b7 18 02 00
	00		 cmp	 DWORD PTR [edi+536], esi
  0010c	74 32		 je	 SHORT $LN3@RenderInpu@2

; 836  : 			m_pKeyDashOn->Render( xPos + 4, yPos + 3 );

  0010e	8b 8f 18 02 00
	00		 mov	 ecx, DWORD PTR [edi+536]
  00114	8b 01		 mov	 eax, DWORD PTR [ecx]
  00116	56		 push	 esi
  00117	56		 push	 esi
  00118	56		 push	 esi
  00119	56		 push	 esi
  0011a	0f 57 c0	 xorps	 xmm0, xmm0
  0011d	8d 53 03	 lea	 edx, DWORD PTR [ebx+3]
  00120	f3 0f 2a c2	 cvtsi2ss xmm0, edx
  00124	8b 55 08	 mov	 edx, DWORD PTR _xPos$[ebp]
  00127	51		 push	 ecx
  00128	51		 push	 ecx
  00129	f3 0f 11 44 24
	04		 movss	 DWORD PTR [esp+4], xmm0
  0012f	83 c2 04	 add	 edx, 4
  00132	0f 57 c0	 xorps	 xmm0, xmm0
  00135	f3 0f 2a c2	 cvtsi2ss xmm0, edx
  00139	f3 0f 11 04 24	 movss	 DWORD PTR [esp], xmm0
  0013e	ff 10		 call	 DWORD PTR [eax]
$LN3@RenderInpu@2:

; 837  : 
; 838  : 		if( m_pAttackKeyOn )

  00140	39 b7 10 02 00
	00		 cmp	 DWORD PTR [edi+528], esi
  00146	74 32		 je	 SHORT $LN2@RenderInpu@2

; 839  : 			m_pAttackKeyOn->Render( xPos + 12, yPos + 3 );

  00148	8b 8f 10 02 00
	00		 mov	 ecx, DWORD PTR [edi+528]
  0014e	8b 01		 mov	 eax, DWORD PTR [ecx]
  00150	56		 push	 esi
  00151	56		 push	 esi
  00152	56		 push	 esi
  00153	56		 push	 esi
  00154	0f 57 c0	 xorps	 xmm0, xmm0
  00157	8d 53 03	 lea	 edx, DWORD PTR [ebx+3]
  0015a	f3 0f 2a c2	 cvtsi2ss xmm0, edx
  0015e	8b 55 08	 mov	 edx, DWORD PTR _xPos$[ebp]
  00161	51		 push	 ecx
  00162	51		 push	 ecx
  00163	f3 0f 11 44 24
	04		 movss	 DWORD PTR [esp+4], xmm0
  00169	83 c2 0c	 add	 edx, 12			; 0000000cH
  0016c	0f 57 c0	 xorps	 xmm0, xmm0
  0016f	f3 0f 2a c2	 cvtsi2ss xmm0, edx
  00173	f3 0f 11 04 24	 movss	 DWORD PTR [esp], xmm0
  00178	ff 10		 call	 DWORD PTR [eax]
$LN2@RenderInpu@2:

; 840  : 
; 841  : 		if( m_pKeyDashOn )

  0017a	39 b7 18 02 00
	00		 cmp	 DWORD PTR [edi+536], esi
  00180	74 32		 je	 SHORT $LN13@RenderInpu@2

; 842  : 			m_pKeyDashOn->Render( xPos + 20, yPos + 3 );

  00182	8b 8f 18 02 00
	00		 mov	 ecx, DWORD PTR [edi+536]
$LN14@RenderInpu@2:
  00188	8b 55 08	 mov	 edx, DWORD PTR _xPos$[ebp]
  0018b	8b 01		 mov	 eax, DWORD PTR [ecx]
  0018d	56		 push	 esi
  0018e	56		 push	 esi
  0018f	56		 push	 esi
  00190	56		 push	 esi
  00191	51		 push	 ecx
  00192	0f 57 c0	 xorps	 xmm0, xmm0
  00195	83 c3 03	 add	 ebx, 3
  00198	51		 push	 ecx
  00199	f3 0f 2a c3	 cvtsi2ss xmm0, ebx
  0019d	f3 0f 11 44 24
	04		 movss	 DWORD PTR [esp+4], xmm0
  001a3	83 c2 14	 add	 edx, 20			; 00000014H
  001a6	0f 57 c0	 xorps	 xmm0, xmm0
  001a9	f3 0f 2a c2	 cvtsi2ss xmm0, edx
  001ad	f3 0f 11 04 24	 movss	 DWORD PTR [esp], xmm0
  001b2	ff 10		 call	 DWORD PTR [eax]
$LN13@RenderInpu@2:
  001b4	5b		 pop	 ebx
$LN9@RenderInpu@2:
  001b5	5f		 pop	 edi
  001b6	5e		 pop	 esi

; 843  : 	}	
; 844  : }

  001b7	5d		 pop	 ebp
  001b8	c2 08 00	 ret	 8
?RenderInputKey@ExcavatingBtn@@IAEXHH@Z ENDP		; ExcavatingBtn::RenderInputKey
_TEXT	ENDS
PUBLIC	??_C@_0CD@KBJDOOBK@BaseImage010?$CDSkillkey_Nor_Questi@ ; `string'
PUBLIC	??_C@_0BN@EIFIJODA@BaseImage010?$CDSkillkey_Nor_?$CFd?$AA@ ; `string'
PUBLIC	?GetNorKeyImage@ExcavatingBtn@@IAEPAVioUIRenderImage@@G@Z ; ExcavatingBtn::GetNorKeyImage
;	COMDAT ??_C@_0CD@KBJDOOBK@BaseImage010?$CDSkillkey_Nor_Questi@
CONST	SEGMENT
??_C@_0CD@KBJDOOBK@BaseImage010?$CDSkillkey_Nor_Questi@ DB 'BaseImage010#'
	DB	'Skillkey_Nor_Question', 00H			; `string'
CONST	ENDS
;	COMDAT ??_C@_0BN@EIFIJODA@BaseImage010?$CDSkillkey_Nor_?$CFd?$AA@
CONST	SEGMENT
??_C@_0BN@EIFIJODA@BaseImage010?$CDSkillkey_Nor_?$CFd?$AA@ DB 'BaseImage0'
	DB	'10#Skillkey_Nor_%d', 00H			; `string'
CONST	ENDS
;	COMDAT xdata$x
xdata$x	SEGMENT
__unwindtable$?GetNorKeyImage@ExcavatingBtn@@IAEPAVioUIRenderImage@@G@Z DD 0ffffffffH
	DD	FLAT:__unwindfunclet$?GetNorKeyImage@ExcavatingBtn@@IAEPAVioUIRenderImage@@G@Z$0
	DD	0ffffffffH
	DD	FLAT:__unwindfunclet$?GetNorKeyImage@ExcavatingBtn@@IAEPAVioUIRenderImage@@G@Z$1
__ehfuncinfo$?GetNorKeyImage@ExcavatingBtn@@IAEPAVioUIRenderImage@@G@Z DD 019930522H
	DD	02H
	DD	FLAT:__unwindtable$?GetNorKeyImage@ExcavatingBtn@@IAEPAVioUIRenderImage@@G@Z
	DD	2 DUP(00H)
	DD	2 DUP(00H)
	DD	00H
	DD	01H
; Function compile flags: /Ogsp
xdata$x	ENDS
;	COMDAT ?GetNorKeyImage@ExcavatingBtn@@IAEPAVioUIRenderImage@@G@Z
_TEXT	SEGMENT
$T545971 = -312						; size = 16
$T545970 = -296						; size = 16
_pReturnImage$ = -280					; size = 4
_szBuf$ = -276						; size = 260
__$EHRec$ = -12						; size = 12
_wKeySetValue$ = 8					; size = 2
?GetNorKeyImage@ExcavatingBtn@@IAEPAVioUIRenderImage@@G@Z PROC ; ExcavatingBtn::GetNorKeyImage, COMDAT
; _this$ = ecx

; 869  : {

  00000	68 2c 01 00 00	 push	 300			; 0000012cH
  00005	b8 00 00 00 00	 mov	 eax, __ehhandler$?GetNorKeyImage@ExcavatingBtn@@IAEPAVioUIRenderImage@@G@Z
  0000a	e8 00 00 00 00	 call	 __EH_prolog3_GS

; 870  : 	// Off
; 871  : 	char szBuf[MAX_PATH] = "";

  0000f	68 03 01 00 00	 push	 259			; 00000103H
  00014	33 ff		 xor	 edi, edi
  00016	8d 85 ed fe ff
	ff		 lea	 eax, DWORD PTR _szBuf$[ebp+1]
  0001c	57		 push	 edi
  0001d	50		 push	 eax
  0001e	c6 85 ec fe ff
	ff 00		 mov	 BYTE PTR _szBuf$[ebp], 0
  00025	e8 00 00 00 00	 call	 _memset

; 872  : 	StringCbPrintf( szBuf, sizeof( szBuf ), "BaseImage010#Skillkey_Nor_%d", wKeySetValue );

  0002a	0f b7 45 08	 movzx	 eax, WORD PTR _wKeySetValue$[ebp]
  0002e	50		 push	 eax
  0002f	68 00 00 00 00	 push	 OFFSET ??_C@_0BN@EIFIJODA@BaseImage010?$CDSkillkey_Nor_?$CFd?$AA@
  00034	8d 85 ec fe ff
	ff		 lea	 eax, DWORD PTR _szBuf$[ebp]
  0003a	68 04 01 00 00	 push	 260			; 00000104H
  0003f	50		 push	 eax
  00040	e8 00 00 00 00	 call	 ?StringCbPrintfA@@YAJPADIPBDZZ ; StringCbPrintfA

; 873  : 	ioUIRenderImage *pReturnImage = g_UIImageSetMgr.CreateImageByFullName( szBuf );

  00045	8b 35 00 00 00
	00		 mov	 esi, DWORD PTR __imp_??0ioHashString@@QAE@PBD@Z
  0004b	83 c4 1c	 add	 esp, 28			; 0000001cH
  0004e	8d 85 ec fe ff
	ff		 lea	 eax, DWORD PTR _szBuf$[ebp]
  00054	50		 push	 eax
  00055	8d 8d d8 fe ff
	ff		 lea	 ecx, DWORD PTR $T545970[ebp]
  0005b	ff d6		 call	 esi
  0005d	57		 push	 edi
  0005e	8d 85 d8 fe ff
	ff		 lea	 eax, DWORD PTR $T545970[ebp]
  00064	89 7d fc	 mov	 DWORD PTR __$EHRec$[ebp+8], edi
  00067	8b 3d 00 00 00
	00		 mov	 edi, DWORD PTR __imp_?GetSingleton@ioUIImageSetManager@@SAAAV1@XZ
  0006d	50		 push	 eax
  0006e	ff d7		 call	 edi
  00070	8b 1d 00 00 00
	00		 mov	 ebx, DWORD PTR __imp_?CreateImageByFullName@ioUIImageSetManager@@QAEPAVioUIRenderImage@@ABVioHashString@@_N@Z
  00076	8b c8		 mov	 ecx, eax
  00078	ff d3		 call	 ebx
  0007a	83 4d fc ff	 or	 DWORD PTR __$EHRec$[ebp+8], -1
  0007e	8d 8d d8 fe ff
	ff		 lea	 ecx, DWORD PTR $T545970[ebp]
  00084	89 85 e8 fe ff
	ff		 mov	 DWORD PTR _pReturnImage$[ebp], eax
  0008a	ff 15 00 00 00
	00		 call	 DWORD PTR __imp_??1ioHashString@@QAE@XZ

; 874  : 	if( pReturnImage == NULL )

  00090	83 bd e8 fe ff
	ff 00		 cmp	 DWORD PTR _pReturnImage$[ebp], 0
  00097	75 39		 jne	 SHORT $LN1@GetNorKeyI

; 875  : 		pReturnImage = g_UIImageSetMgr.CreateImageByFullName( "BaseImage010#Skillkey_Nor_Question" );

  00099	68 00 00 00 00	 push	 OFFSET ??_C@_0CD@KBJDOOBK@BaseImage010?$CDSkillkey_Nor_Questi@
  0009e	8d 8d c8 fe ff
	ff		 lea	 ecx, DWORD PTR $T545971[ebp]
  000a4	ff d6		 call	 esi
  000a6	8d 85 c8 fe ff
	ff		 lea	 eax, DWORD PTR $T545971[ebp]
  000ac	6a 00		 push	 0
  000ae	50		 push	 eax
  000af	c7 45 fc 01 00
	00 00		 mov	 DWORD PTR __$EHRec$[ebp+8], 1
  000b6	ff d7		 call	 edi
  000b8	8b c8		 mov	 ecx, eax
  000ba	ff d3		 call	 ebx
  000bc	83 4d fc ff	 or	 DWORD PTR __$EHRec$[ebp+8], -1
  000c0	8d 8d c8 fe ff
	ff		 lea	 ecx, DWORD PTR $T545971[ebp]
  000c6	89 85 e8 fe ff
	ff		 mov	 DWORD PTR _pReturnImage$[ebp], eax
  000cc	ff 15 00 00 00
	00		 call	 DWORD PTR __imp_??1ioHashString@@QAE@XZ
$LN1@GetNorKeyI:

; 876  : 	return pReturnImage;

  000d2	8b 85 e8 fe ff
	ff		 mov	 eax, DWORD PTR _pReturnImage$[ebp]

; 877  : }

  000d8	e8 00 00 00 00	 call	 __EH_epilog3_GS
  000dd	c2 04 00	 ret	 4
_TEXT	ENDS
;	COMDAT text$x
text$x	SEGMENT
__unwindfunclet$?GetNorKeyImage@ExcavatingBtn@@IAEPAVioUIRenderImage@@G@Z$0:
  00000	8d 8d d8 fe ff
	ff		 lea	 ecx, DWORD PTR $T545970[ebp]
  00006	ff 25 00 00 00
	00		 jmp	 DWORD PTR __imp_??1ioHashString@@QAE@XZ
__unwindfunclet$?GetNorKeyImage@ExcavatingBtn@@IAEPAVioUIRenderImage@@G@Z$1:
  0000c	8d 8d c8 fe ff
	ff		 lea	 ecx, DWORD PTR $T545971[ebp]
  00012	ff 25 00 00 00
	00		 jmp	 DWORD PTR __imp_??1ioHashString@@QAE@XZ
__ehhandler$?GetNorKeyImage@ExcavatingBtn@@IAEPAVioUIRenderImage@@G@Z:
  00018	8b 54 24 08	 mov	 edx, DWORD PTR [esp+8]
  0001c	8d 42 0c	 lea	 eax, DWORD PTR [edx+12]
  0001f	8b 8a c4 fe ff
	ff		 mov	 ecx, DWORD PTR [edx-316]
  00025	33 c8		 xor	 ecx, eax
  00027	e8 00 00 00 00	 call	 @__security_check_cookie@4
  0002c	8b 4a fc	 mov	 ecx, DWORD PTR [edx-4]
  0002f	33 c8		 xor	 ecx, eax
  00031	e8 00 00 00 00	 call	 @__security_check_cookie@4
  00036	b8 00 00 00 00	 mov	 eax, OFFSET __ehfuncinfo$?GetNorKeyImage@ExcavatingBtn@@IAEPAVioUIRenderImage@@G@Z
  0003b	e9 00 00 00 00	 jmp	 ___CxxFrameHandler3
text$x	ENDS
?GetNorKeyImage@ExcavatingBtn@@IAEPAVioUIRenderImage@@G@Z ENDP ; ExcavatingBtn::GetNorKeyImage
PUBLIC	??_C@_0CD@GLFMLMON@BaseImage010?$CDSkillkey_Act_Questi@ ; `string'
PUBLIC	??_C@_0BN@EGJCNLAC@BaseImage010?$CDSkillkey_Act_?$CFd?$AA@ ; `string'
PUBLIC	?GetOnKeyImage@ExcavatingBtn@@IAEPAVioUIRenderImage@@G@Z ; ExcavatingBtn::GetOnKeyImage
;	COMDAT ??_C@_0CD@GLFMLMON@BaseImage010?$CDSkillkey_Act_Questi@
CONST	SEGMENT
??_C@_0CD@GLFMLMON@BaseImage010?$CDSkillkey_Act_Questi@ DB 'BaseImage010#'
	DB	'Skillkey_Act_Question', 00H			; `string'
CONST	ENDS
;	COMDAT ??_C@_0BN@EGJCNLAC@BaseImage010?$CDSkillkey_Act_?$CFd?$AA@
CONST	SEGMENT
??_C@_0BN@EGJCNLAC@BaseImage010?$CDSkillkey_Act_?$CFd?$AA@ DB 'BaseImage0'
	DB	'10#Skillkey_Act_%d', 00H			; `string'
CONST	ENDS
;	COMDAT xdata$x
xdata$x	SEGMENT
__unwindtable$?GetOnKeyImage@ExcavatingBtn@@IAEPAVioUIRenderImage@@G@Z DD 0ffffffffH
	DD	FLAT:__unwindfunclet$?GetOnKeyImage@ExcavatingBtn@@IAEPAVioUIRenderImage@@G@Z$0
	DD	0ffffffffH
	DD	FLAT:__unwindfunclet$?GetOnKeyImage@ExcavatingBtn@@IAEPAVioUIRenderImage@@G@Z$1
__ehfuncinfo$?GetOnKeyImage@ExcavatingBtn@@IAEPAVioUIRenderImage@@G@Z DD 019930522H
	DD	02H
	DD	FLAT:__unwindtable$?GetOnKeyImage@ExcavatingBtn@@IAEPAVioUIRenderImage@@G@Z
	DD	2 DUP(00H)
	DD	2 DUP(00H)
	DD	00H
	DD	01H
; Function compile flags: /Ogsp
xdata$x	ENDS
;	COMDAT ?GetOnKeyImage@ExcavatingBtn@@IAEPAVioUIRenderImage@@G@Z
_TEXT	SEGMENT
$T545984 = -312						; size = 16
$T545983 = -296						; size = 16
_pReturnImage$ = -280					; size = 4
_szBuf$ = -276						; size = 260
__$EHRec$ = -12						; size = 12
_wKeySetValue$ = 8					; size = 2
?GetOnKeyImage@ExcavatingBtn@@IAEPAVioUIRenderImage@@G@Z PROC ; ExcavatingBtn::GetOnKeyImage, COMDAT
; _this$ = ecx

; 880  : {

  00000	68 2c 01 00 00	 push	 300			; 0000012cH
  00005	b8 00 00 00 00	 mov	 eax, __ehhandler$?GetOnKeyImage@ExcavatingBtn@@IAEPAVioUIRenderImage@@G@Z
  0000a	e8 00 00 00 00	 call	 __EH_prolog3_GS

; 881  : 	// On
; 882  : 	char szBuf[MAX_PATH] = "";

  0000f	68 03 01 00 00	 push	 259			; 00000103H
  00014	33 ff		 xor	 edi, edi
  00016	8d 85 ed fe ff
	ff		 lea	 eax, DWORD PTR _szBuf$[ebp+1]
  0001c	57		 push	 edi
  0001d	50		 push	 eax
  0001e	c6 85 ec fe ff
	ff 00		 mov	 BYTE PTR _szBuf$[ebp], 0
  00025	e8 00 00 00 00	 call	 _memset

; 883  : 	StringCbPrintf( szBuf, sizeof( szBuf ), "BaseImage010#Skillkey_Act_%d", wKeySetValue );

  0002a	0f b7 45 08	 movzx	 eax, WORD PTR _wKeySetValue$[ebp]
  0002e	50		 push	 eax
  0002f	68 00 00 00 00	 push	 OFFSET ??_C@_0BN@EGJCNLAC@BaseImage010?$CDSkillkey_Act_?$CFd?$AA@
  00034	8d 85 ec fe ff
	ff		 lea	 eax, DWORD PTR _szBuf$[ebp]
  0003a	68 04 01 00 00	 push	 260			; 00000104H
  0003f	50		 push	 eax
  00040	e8 00 00 00 00	 call	 ?StringCbPrintfA@@YAJPADIPBDZZ ; StringCbPrintfA

; 884  : 	ioUIRenderImage *pReturnImage = g_UIImageSetMgr.CreateImageByFullName( szBuf );

  00045	8b 35 00 00 00
	00		 mov	 esi, DWORD PTR __imp_??0ioHashString@@QAE@PBD@Z
  0004b	83 c4 1c	 add	 esp, 28			; 0000001cH
  0004e	8d 85 ec fe ff
	ff		 lea	 eax, DWORD PTR _szBuf$[ebp]
  00054	50		 push	 eax
  00055	8d 8d d8 fe ff
	ff		 lea	 ecx, DWORD PTR $T545983[ebp]
  0005b	ff d6		 call	 esi
  0005d	57		 push	 edi
  0005e	8d 85 d8 fe ff
	ff		 lea	 eax, DWORD PTR $T545983[ebp]
  00064	89 7d fc	 mov	 DWORD PTR __$EHRec$[ebp+8], edi
  00067	8b 3d 00 00 00
	00		 mov	 edi, DWORD PTR __imp_?GetSingleton@ioUIImageSetManager@@SAAAV1@XZ
  0006d	50		 push	 eax
  0006e	ff d7		 call	 edi
  00070	8b 1d 00 00 00
	00		 mov	 ebx, DWORD PTR __imp_?CreateImageByFullName@ioUIImageSetManager@@QAEPAVioUIRenderImage@@ABVioHashString@@_N@Z
  00076	8b c8		 mov	 ecx, eax
  00078	ff d3		 call	 ebx
  0007a	83 4d fc ff	 or	 DWORD PTR __$EHRec$[ebp+8], -1
  0007e	8d 8d d8 fe ff
	ff		 lea	 ecx, DWORD PTR $T545983[ebp]
  00084	89 85 e8 fe ff
	ff		 mov	 DWORD PTR _pReturnImage$[ebp], eax
  0008a	ff 15 00 00 00
	00		 call	 DWORD PTR __imp_??1ioHashString@@QAE@XZ

; 885  : 	if( pReturnImage == NULL )

  00090	83 bd e8 fe ff
	ff 00		 cmp	 DWORD PTR _pReturnImage$[ebp], 0
  00097	75 39		 jne	 SHORT $LN1@GetOnKeyIm

; 886  : 		pReturnImage = g_UIImageSetMgr.CreateImageByFullName( "BaseImage010#Skillkey_Act_Question" );

  00099	68 00 00 00 00	 push	 OFFSET ??_C@_0CD@GLFMLMON@BaseImage010?$CDSkillkey_Act_Questi@
  0009e	8d 8d c8 fe ff
	ff		 lea	 ecx, DWORD PTR $T545984[ebp]
  000a4	ff d6		 call	 esi
  000a6	8d 85 c8 fe ff
	ff		 lea	 eax, DWORD PTR $T545984[ebp]
  000ac	6a 00		 push	 0
  000ae	50		 push	 eax
  000af	c7 45 fc 01 00
	00 00		 mov	 DWORD PTR __$EHRec$[ebp+8], 1
  000b6	ff d7		 call	 edi
  000b8	8b c8		 mov	 ecx, eax
  000ba	ff d3		 call	 ebx
  000bc	83 4d fc ff	 or	 DWORD PTR __$EHRec$[ebp+8], -1
  000c0	8d 8d c8 fe ff
	ff		 lea	 ecx, DWORD PTR $T545984[ebp]
  000c6	89 85 e8 fe ff
	ff		 mov	 DWORD PTR _pReturnImage$[ebp], eax
  000cc	ff 15 00 00 00
	00		 call	 DWORD PTR __imp_??1ioHashString@@QAE@XZ
$LN1@GetOnKeyIm:

; 887  : 
; 888  : 	return pReturnImage;

  000d2	8b 85 e8 fe ff
	ff		 mov	 eax, DWORD PTR _pReturnImage$[ebp]

; 889  : }

  000d8	e8 00 00 00 00	 call	 __EH_epilog3_GS
  000dd	c2 04 00	 ret	 4
_TEXT	ENDS
;	COMDAT text$x
text$x	SEGMENT
__unwindfunclet$?GetOnKeyImage@ExcavatingBtn@@IAEPAVioUIRenderImage@@G@Z$0:
  00000	8d 8d d8 fe ff
	ff		 lea	 ecx, DWORD PTR $T545983[ebp]
  00006	ff 25 00 00 00
	00		 jmp	 DWORD PTR __imp_??1ioHashString@@QAE@XZ
__unwindfunclet$?GetOnKeyImage@ExcavatingBtn@@IAEPAVioUIRenderImage@@G@Z$1:
  0000c	8d 8d c8 fe ff
	ff		 lea	 ecx, DWORD PTR $T545984[ebp]
  00012	ff 25 00 00 00
	00		 jmp	 DWORD PTR __imp_??1ioHashString@@QAE@XZ
__ehhandler$?GetOnKeyImage@ExcavatingBtn@@IAEPAVioUIRenderImage@@G@Z:
  00018	8b 54 24 08	 mov	 edx, DWORD PTR [esp+8]
  0001c	8d 42 0c	 lea	 eax, DWORD PTR [edx+12]
  0001f	8b 8a c4 fe ff
	ff		 mov	 ecx, DWORD PTR [edx-316]
  00025	33 c8		 xor	 ecx, eax
  00027	e8 00 00 00 00	 call	 @__security_check_cookie@4
  0002c	8b 4a fc	 mov	 ecx, DWORD PTR [edx-4]
  0002f	33 c8		 xor	 ecx, eax
  00031	e8 00 00 00 00	 call	 @__security_check_cookie@4
  00036	b8 00 00 00 00	 mov	 eax, OFFSET __ehfuncinfo$?GetOnKeyImage@ExcavatingBtn@@IAEPAVioUIRenderImage@@G@Z
  0003b	e9 00 00 00 00	 jmp	 ___CxxFrameHandler3
text$x	ENDS
?GetOnKeyImage@ExcavatingBtn@@IAEPAVioUIRenderImage@@G@Z ENDP ; ExcavatingBtn::GetOnKeyImage
PUBLIC	_pImage$GSCopy$
PUBLIC	_this$GSCopy$
PUBLIC	_szType$GSCopy$
PUBLIC	__$ArrayPad$
PUBLIC	?AddRenderImage@ExcavationSearchingWnd@@UAEXABVioHashString@@PAVioUIRenderImage@@@Z ; ExcavationSearchingWnd::AddRenderImage
; Function compile flags: /Ogsp
;	COMDAT ?AddRenderImage@ExcavationSearchingWnd@@UAEXABVioHashString@@PAVioUIRenderImage@@@Z
_TEXT	SEGMENT
_pImage$GSCopy$ = -36					; size = 4
_this$GSCopy$ = -32					; size = 4
_szType$GSCopy$ = -28					; size = 4
__t$547196 = -24					; size = 11
__t$547071 = -24					; size = 14
__t$546946 = -24					; size = 12
__t$546141 = -24					; size = 13
__t$547433 = -20					; size = 9
__t$547321 = -20					; size = 8
__t$546808 = -16					; size = 6
__t$546683 = -16					; size = 6
__t$546558 = -16					; size = 6
__t$546433 = -16					; size = 6
__t$546308 = -16					; size = 6
__t$546183 = -16					; size = 6
__$ArrayPad$ = -4					; size = 4
_szType$ = 8						; size = 4
_pImage$ = 12						; size = 4
?AddRenderImage@ExcavationSearchingWnd@@UAEXABVioHashString@@PAVioUIRenderImage@@@Z PROC ; ExcavationSearchingWnd::AddRenderImage, COMDAT
; _this$ = ecx

; 1010 : {

  00000	55		 push	 ebp
  00001	8b ec		 mov	 ebp, esp
  00003	83 ec 24	 sub	 esp, 36			; 00000024H
  00006	a1 00 00 00 00	 mov	 eax, DWORD PTR ___security_cookie
  0000b	33 c5		 xor	 eax, ebp
  0000d	89 45 fc	 mov	 DWORD PTR __$ArrayPad$[ebp], eax
  00010	8b 45 08	 mov	 eax, DWORD PTR _szType$[ebp]
  00013	53		 push	 ebx
  00014	56		 push	 esi
  00015	57		 push	 edi

; 1067 : 	{
; 1068 : 		SAFEDELETE( m_pDistNone );

  00016	89 45 e4	 mov	 DWORD PTR _szType$GSCopy$[ebp], eax
  00019	8b 45 0c	 mov	 eax, DWORD PTR _pImage$[ebp]
  0001c	33 db		 xor	 ebx, ebx
  0001e	6a 03		 push	 3
  00020	89 4d e0	 mov	 DWORD PTR _this$GSCopy$[ebp], ecx
  00023	89 45 dc	 mov	 DWORD PTR _pImage$GSCopy$[ebp], eax
  00026	c7 45 e8 af 8d
	9f 9e		 mov	 DWORD PTR __t$546141[ebp], -1633710673 ; 9e9f8dafH
  0002d	c7 45 ec 88 9e
	92 ad		 mov	 DWORD PTR __t$546141[ebp+4], -1382900088 ; ad929e88H
  00034	c7 45 f0 8c 99
	8c 8f		 mov	 DWORD PTR __t$546141[ebp+8], -1886611060 ; 8f8c998cH
  0003b	8d 45 e8	 lea	 eax, DWORD PTR __t$546141[ebp]
  0003e	88 5d f4	 mov	 BYTE PTR __t$546141[ebp+12], bl
  00041	59		 pop	 ecx
  00042	be ed ec eb ea	 mov	 esi, -353637139		; eaebecedH
$LL166@AddRenderI@4:

; 1011 : 	if( szType == "BatteryGauge" )

  00047	31 30		 xor	 DWORD PTR [eax], esi
  00049	83 c0 04	 add	 eax, 4
  0004c	49		 dec	 ecx
  0004d	75 f8		 jne	 SHORT $LL166@AddRenderI@4
  0004f	8b 4d e4	 mov	 ecx, DWORD PTR _szType$GSCopy$[ebp]
  00052	8d 7d e8	 lea	 edi, DWORD PTR __t$546141[ebp]
  00055	ff 15 00 00 00
	00		 call	 DWORD PTR __imp_?c_str@ioHashString@@QBEPBDXZ
$LL1394@AddRenderI@4:
  0005b	8a 08		 mov	 cl, BYTE PTR [eax]
  0005d	3a 0f		 cmp	 cl, BYTE PTR [edi]
  0005f	75 1a		 jne	 SHORT $LN1395@AddRenderI@4
  00061	3a cb		 cmp	 cl, bl
  00063	74 12		 je	 SHORT $LN1396@AddRenderI@4
  00065	8a 48 01	 mov	 cl, BYTE PTR [eax+1]
  00068	3a 4f 01	 cmp	 cl, BYTE PTR [edi+1]
  0006b	75 0e		 jne	 SHORT $LN1395@AddRenderI@4
  0006d	83 c0 02	 add	 eax, 2
  00070	83 c7 02	 add	 edi, 2
  00073	3a cb		 cmp	 cl, bl
  00075	75 e4		 jne	 SHORT $LL1394@AddRenderI@4
$LN1396@AddRenderI@4:
  00077	33 c0		 xor	 eax, eax
  00079	eb 05		 jmp	 SHORT $LN1397@AddRenderI@4
$LN1395@AddRenderI@4:
  0007b	1b c0		 sbb	 eax, eax
  0007d	83 d8 ff	 sbb	 eax, -1
$LN1397@AddRenderI@4:
  00080	3b c3		 cmp	 eax, ebx
  00082	75 28		 jne	 SHORT $LN1383@AddRenderI@4

; 1012 : 	{
; 1013 : 		SAFEDELETE( m_pBatteryGauge );

  00084	8b 75 e0	 mov	 esi, DWORD PTR _this$GSCopy$[ebp]
  00087	8b 8e 94 01 00
	00		 mov	 ecx, DWORD PTR [esi+404]
  0008d	3b cb		 cmp	 ecx, ebx
  0008f	74 0d		 je	 SHORT $LN35@AddRenderI@4
  00091	8b 01		 mov	 eax, DWORD PTR [ecx]
  00093	6a 01		 push	 1
  00095	ff 50 40	 call	 DWORD PTR [eax+64]
  00098	89 9e 94 01 00
	00		 mov	 DWORD PTR [esi+404], ebx
$LN35@AddRenderI@4:

; 1014 : 		m_pBatteryGauge = pImage;

  0009e	8b 45 dc	 mov	 eax, DWORD PTR _pImage$GSCopy$[ebp]
  000a1	89 86 94 01 00
	00		 mov	 DWORD PTR [esi+404], eax
  000a7	e9 70 05 00 00	 jmp	 $LN1@AddRenderI@4
$LN1383@AddRenderI@4:

; 1015 : 	}
; 1016 : 	else if( szType == "Wave1" )

  000ac	8b 4d e4	 mov	 ecx, DWORD PTR _szType$GSCopy$[ebp]
  000af	c7 45 f0 ba 8d
	9d 8f		 mov	 DWORD PTR __t$546183[ebp], -1885499974 ; 8f9d8dbaH
  000b6	31 75 f0	 xor	 DWORD PTR __t$546183[ebp], esi
  000b9	66 c7 45 f4 31
	00		 mov	 WORD PTR __t$546183[ebp+4], 49 ; 00000031H
  000bf	8d 7d f0	 lea	 edi, DWORD PTR __t$546183[ebp]
  000c2	ff 15 00 00 00
	00		 call	 DWORD PTR __imp_?c_str@ioHashString@@QBEPBDXZ
$LL1398@AddRenderI@4:
  000c8	8a 08		 mov	 cl, BYTE PTR [eax]
  000ca	3a 0f		 cmp	 cl, BYTE PTR [edi]
  000cc	75 1a		 jne	 SHORT $LN1399@AddRenderI@4
  000ce	3a cb		 cmp	 cl, bl
  000d0	74 12		 je	 SHORT $LN1400@AddRenderI@4
  000d2	8a 48 01	 mov	 cl, BYTE PTR [eax+1]
  000d5	3a 4f 01	 cmp	 cl, BYTE PTR [edi+1]
  000d8	75 0e		 jne	 SHORT $LN1399@AddRenderI@4
  000da	83 c0 02	 add	 eax, 2
  000dd	83 c7 02	 add	 edi, 2
  000e0	3a cb		 cmp	 cl, bl
  000e2	75 e4		 jne	 SHORT $LL1398@AddRenderI@4
$LN1400@AddRenderI@4:
  000e4	33 c0		 xor	 eax, eax
  000e6	eb 05		 jmp	 SHORT $LN1401@AddRenderI@4
$LN1399@AddRenderI@4:
  000e8	1b c0		 sbb	 eax, eax
  000ea	83 d8 ff	 sbb	 eax, -1
$LN1401@AddRenderI@4:
  000ed	3b c3		 cmp	 eax, ebx
  000ef	75 28		 jne	 SHORT $LN1384@AddRenderI@4

; 1017 : 	{
; 1018 : 		SAFEDELETE( m_pWave[0] );

  000f1	8b 75 e0	 mov	 esi, DWORD PTR _this$GSCopy$[ebp]
  000f4	8b 8e 98 01 00
	00		 mov	 ecx, DWORD PTR [esi+408]
  000fa	3b cb		 cmp	 ecx, ebx
  000fc	74 0d		 je	 SHORT $LN32@AddRenderI@4
  000fe	8b 01		 mov	 eax, DWORD PTR [ecx]
  00100	6a 01		 push	 1
  00102	ff 50 40	 call	 DWORD PTR [eax+64]
  00105	89 9e 98 01 00
	00		 mov	 DWORD PTR [esi+408], ebx
$LN32@AddRenderI@4:

; 1019 : 		m_pWave[0] = pImage;

  0010b	8b 45 dc	 mov	 eax, DWORD PTR _pImage$GSCopy$[ebp]
  0010e	89 86 98 01 00
	00		 mov	 DWORD PTR [esi+408], eax
  00114	e9 03 05 00 00	 jmp	 $LN1@AddRenderI@4
$LN1384@AddRenderI@4:

; 1020 : 	}
; 1021 : 	else if( szType == "Wave2" )

  00119	8b 4d e4	 mov	 ecx, DWORD PTR _szType$GSCopy$[ebp]
  0011c	c7 45 f0 ba 8d
	9d 8f		 mov	 DWORD PTR __t$546308[ebp], -1885499974 ; 8f9d8dbaH
  00123	31 75 f0	 xor	 DWORD PTR __t$546308[ebp], esi
  00126	66 c7 45 f4 32
	00		 mov	 WORD PTR __t$546308[ebp+4], 50 ; 00000032H
  0012c	8d 7d f0	 lea	 edi, DWORD PTR __t$546308[ebp]
  0012f	ff 15 00 00 00
	00		 call	 DWORD PTR __imp_?c_str@ioHashString@@QBEPBDXZ
$LL1402@AddRenderI@4:
  00135	8a 08		 mov	 cl, BYTE PTR [eax]
  00137	3a 0f		 cmp	 cl, BYTE PTR [edi]
  00139	75 1a		 jne	 SHORT $LN1403@AddRenderI@4
  0013b	3a cb		 cmp	 cl, bl
  0013d	74 12		 je	 SHORT $LN1404@AddRenderI@4
  0013f	8a 48 01	 mov	 cl, BYTE PTR [eax+1]
  00142	3a 4f 01	 cmp	 cl, BYTE PTR [edi+1]
  00145	75 0e		 jne	 SHORT $LN1403@AddRenderI@4
  00147	83 c0 02	 add	 eax, 2
  0014a	83 c7 02	 add	 edi, 2
  0014d	3a cb		 cmp	 cl, bl
  0014f	75 e4		 jne	 SHORT $LL1402@AddRenderI@4
$LN1404@AddRenderI@4:
  00151	33 c0		 xor	 eax, eax
  00153	eb 05		 jmp	 SHORT $LN1405@AddRenderI@4
$LN1403@AddRenderI@4:
  00155	1b c0		 sbb	 eax, eax
  00157	83 d8 ff	 sbb	 eax, -1
$LN1405@AddRenderI@4:
  0015a	3b c3		 cmp	 eax, ebx
  0015c	75 28		 jne	 SHORT $LN1385@AddRenderI@4

; 1022 : 	{
; 1023 : 		SAFEDELETE( m_pWave[1] );

  0015e	8b 75 e0	 mov	 esi, DWORD PTR _this$GSCopy$[ebp]
  00161	8b 8e 9c 01 00
	00		 mov	 ecx, DWORD PTR [esi+412]
  00167	3b cb		 cmp	 ecx, ebx
  00169	74 0d		 je	 SHORT $LN29@AddRenderI@4
  0016b	8b 01		 mov	 eax, DWORD PTR [ecx]
  0016d	6a 01		 push	 1
  0016f	ff 50 40	 call	 DWORD PTR [eax+64]
  00172	89 9e 9c 01 00
	00		 mov	 DWORD PTR [esi+412], ebx
$LN29@AddRenderI@4:

; 1024 : 		m_pWave[1] = pImage;

  00178	8b 45 dc	 mov	 eax, DWORD PTR _pImage$GSCopy$[ebp]
  0017b	89 86 9c 01 00
	00		 mov	 DWORD PTR [esi+412], eax
  00181	e9 96 04 00 00	 jmp	 $LN1@AddRenderI@4
$LN1385@AddRenderI@4:

; 1025 : 	}
; 1026 : 	else if( szType == "Wave3" )

  00186	8b 4d e4	 mov	 ecx, DWORD PTR _szType$GSCopy$[ebp]
  00189	c7 45 f0 ba 8d
	9d 8f		 mov	 DWORD PTR __t$546433[ebp], -1885499974 ; 8f9d8dbaH
  00190	31 75 f0	 xor	 DWORD PTR __t$546433[ebp], esi
  00193	66 c7 45 f4 33
	00		 mov	 WORD PTR __t$546433[ebp+4], 51 ; 00000033H
  00199	8d 7d f0	 lea	 edi, DWORD PTR __t$546433[ebp]
  0019c	ff 15 00 00 00
	00		 call	 DWORD PTR __imp_?c_str@ioHashString@@QBEPBDXZ
$LL1406@AddRenderI@4:
  001a2	8a 08		 mov	 cl, BYTE PTR [eax]
  001a4	3a 0f		 cmp	 cl, BYTE PTR [edi]
  001a6	75 1a		 jne	 SHORT $LN1407@AddRenderI@4
  001a8	3a cb		 cmp	 cl, bl
  001aa	74 12		 je	 SHORT $LN1408@AddRenderI@4
  001ac	8a 48 01	 mov	 cl, BYTE PTR [eax+1]
  001af	3a 4f 01	 cmp	 cl, BYTE PTR [edi+1]
  001b2	75 0e		 jne	 SHORT $LN1407@AddRenderI@4
  001b4	83 c0 02	 add	 eax, 2
  001b7	83 c7 02	 add	 edi, 2
  001ba	3a cb		 cmp	 cl, bl
  001bc	75 e4		 jne	 SHORT $LL1406@AddRenderI@4
$LN1408@AddRenderI@4:
  001be	33 c0		 xor	 eax, eax
  001c0	eb 05		 jmp	 SHORT $LN1409@AddRenderI@4
$LN1407@AddRenderI@4:
  001c2	1b c0		 sbb	 eax, eax
  001c4	83 d8 ff	 sbb	 eax, -1
$LN1409@AddRenderI@4:
  001c7	3b c3		 cmp	 eax, ebx
  001c9	75 28		 jne	 SHORT $LN1386@AddRenderI@4

; 1027 : 	{
; 1028 : 		SAFEDELETE( m_pWave[2] );

  001cb	8b 75 e0	 mov	 esi, DWORD PTR _this$GSCopy$[ebp]
  001ce	8b 8e a0 01 00
	00		 mov	 ecx, DWORD PTR [esi+416]
  001d4	3b cb		 cmp	 ecx, ebx
  001d6	74 0d		 je	 SHORT $LN26@AddRenderI@4
  001d8	8b 01		 mov	 eax, DWORD PTR [ecx]
  001da	6a 01		 push	 1
  001dc	ff 50 40	 call	 DWORD PTR [eax+64]
  001df	89 9e a0 01 00
	00		 mov	 DWORD PTR [esi+416], ebx
$LN26@AddRenderI@4:

; 1029 : 		m_pWave[2] = pImage;

  001e5	8b 45 dc	 mov	 eax, DWORD PTR _pImage$GSCopy$[ebp]
  001e8	89 86 a0 01 00
	00		 mov	 DWORD PTR [esi+416], eax
  001ee	e9 29 04 00 00	 jmp	 $LN1@AddRenderI@4
$LN1386@AddRenderI@4:

; 1030 : 	}
; 1031 : 	else if( szType == "Wave4" )

  001f3	8b 4d e4	 mov	 ecx, DWORD PTR _szType$GSCopy$[ebp]
  001f6	c7 45 f0 ba 8d
	9d 8f		 mov	 DWORD PTR __t$546558[ebp], -1885499974 ; 8f9d8dbaH
  001fd	31 75 f0	 xor	 DWORD PTR __t$546558[ebp], esi
  00200	66 c7 45 f4 34
	00		 mov	 WORD PTR __t$546558[ebp+4], 52 ; 00000034H
  00206	8d 7d f0	 lea	 edi, DWORD PTR __t$546558[ebp]
  00209	ff 15 00 00 00
	00		 call	 DWORD PTR __imp_?c_str@ioHashString@@QBEPBDXZ
$LL1410@AddRenderI@4:
  0020f	8a 08		 mov	 cl, BYTE PTR [eax]
  00211	3a 0f		 cmp	 cl, BYTE PTR [edi]
  00213	75 1a		 jne	 SHORT $LN1411@AddRenderI@4
  00215	3a cb		 cmp	 cl, bl
  00217	74 12		 je	 SHORT $LN1412@AddRenderI@4
  00219	8a 48 01	 mov	 cl, BYTE PTR [eax+1]
  0021c	3a 4f 01	 cmp	 cl, BYTE PTR [edi+1]
  0021f	75 0e		 jne	 SHORT $LN1411@AddRenderI@4
  00221	83 c0 02	 add	 eax, 2
  00224	83 c7 02	 add	 edi, 2
  00227	3a cb		 cmp	 cl, bl
  00229	75 e4		 jne	 SHORT $LL1410@AddRenderI@4
$LN1412@AddRenderI@4:
  0022b	33 c0		 xor	 eax, eax
  0022d	eb 05		 jmp	 SHORT $LN1413@AddRenderI@4
$LN1411@AddRenderI@4:
  0022f	1b c0		 sbb	 eax, eax
  00231	83 d8 ff	 sbb	 eax, -1
$LN1413@AddRenderI@4:
  00234	3b c3		 cmp	 eax, ebx
  00236	75 28		 jne	 SHORT $LN1387@AddRenderI@4

; 1032 : 	{
; 1033 : 		SAFEDELETE( m_pWave[3] );

  00238	8b 75 e0	 mov	 esi, DWORD PTR _this$GSCopy$[ebp]
  0023b	8b 8e a4 01 00
	00		 mov	 ecx, DWORD PTR [esi+420]
  00241	3b cb		 cmp	 ecx, ebx
  00243	74 0d		 je	 SHORT $LN23@AddRenderI@4
  00245	8b 01		 mov	 eax, DWORD PTR [ecx]
  00247	6a 01		 push	 1
  00249	ff 50 40	 call	 DWORD PTR [eax+64]
  0024c	89 9e a4 01 00
	00		 mov	 DWORD PTR [esi+420], ebx
$LN23@AddRenderI@4:

; 1034 : 		m_pWave[3] = pImage;

  00252	8b 45 dc	 mov	 eax, DWORD PTR _pImage$GSCopy$[ebp]
  00255	89 86 a4 01 00
	00		 mov	 DWORD PTR [esi+420], eax
  0025b	e9 bc 03 00 00	 jmp	 $LN1@AddRenderI@4
$LN1387@AddRenderI@4:

; 1035 : 	}
; 1036 : 	else if( szType == "Wave5" )

  00260	8b 4d e4	 mov	 ecx, DWORD PTR _szType$GSCopy$[ebp]
  00263	c7 45 f0 ba 8d
	9d 8f		 mov	 DWORD PTR __t$546683[ebp], -1885499974 ; 8f9d8dbaH
  0026a	31 75 f0	 xor	 DWORD PTR __t$546683[ebp], esi
  0026d	66 c7 45 f4 35
	00		 mov	 WORD PTR __t$546683[ebp+4], 53 ; 00000035H
  00273	8d 7d f0	 lea	 edi, DWORD PTR __t$546683[ebp]
  00276	ff 15 00 00 00
	00		 call	 DWORD PTR __imp_?c_str@ioHashString@@QBEPBDXZ
$LL1414@AddRenderI@4:
  0027c	8a 08		 mov	 cl, BYTE PTR [eax]
  0027e	3a 0f		 cmp	 cl, BYTE PTR [edi]
  00280	75 1a		 jne	 SHORT $LN1415@AddRenderI@4
  00282	3a cb		 cmp	 cl, bl
  00284	74 12		 je	 SHORT $LN1416@AddRenderI@4
  00286	8a 48 01	 mov	 cl, BYTE PTR [eax+1]
  00289	3a 4f 01	 cmp	 cl, BYTE PTR [edi+1]
  0028c	75 0e		 jne	 SHORT $LN1415@AddRenderI@4
  0028e	83 c0 02	 add	 eax, 2
  00291	83 c7 02	 add	 edi, 2
  00294	3a cb		 cmp	 cl, bl
  00296	75 e4		 jne	 SHORT $LL1414@AddRenderI@4
$LN1416@AddRenderI@4:
  00298	33 c0		 xor	 eax, eax
  0029a	eb 05		 jmp	 SHORT $LN1417@AddRenderI@4
$LN1415@AddRenderI@4:
  0029c	1b c0		 sbb	 eax, eax
  0029e	83 d8 ff	 sbb	 eax, -1
$LN1417@AddRenderI@4:
  002a1	3b c3		 cmp	 eax, ebx
  002a3	75 28		 jne	 SHORT $LN1388@AddRenderI@4

; 1037 : 	{
; 1038 : 		SAFEDELETE( m_pWave[4] );

  002a5	8b 75 e0	 mov	 esi, DWORD PTR _this$GSCopy$[ebp]
  002a8	8b 8e a8 01 00
	00		 mov	 ecx, DWORD PTR [esi+424]
  002ae	3b cb		 cmp	 ecx, ebx
  002b0	74 0d		 je	 SHORT $LN20@AddRenderI@4
  002b2	8b 01		 mov	 eax, DWORD PTR [ecx]
  002b4	6a 01		 push	 1
  002b6	ff 50 40	 call	 DWORD PTR [eax+64]
  002b9	89 9e a8 01 00
	00		 mov	 DWORD PTR [esi+424], ebx
$LN20@AddRenderI@4:

; 1039 : 		m_pWave[4] = pImage;

  002bf	8b 45 dc	 mov	 eax, DWORD PTR _pImage$GSCopy$[ebp]
  002c2	89 86 a8 01 00
	00		 mov	 DWORD PTR [esi+424], eax
  002c8	e9 4f 03 00 00	 jmp	 $LN1@AddRenderI@4
$LN1388@AddRenderI@4:

; 1040 : 	}
; 1041 : 	else if( szType == "Wave6" )

  002cd	8b 4d e4	 mov	 ecx, DWORD PTR _szType$GSCopy$[ebp]
  002d0	c7 45 f0 ba 8d
	9d 8f		 mov	 DWORD PTR __t$546808[ebp], -1885499974 ; 8f9d8dbaH
  002d7	31 75 f0	 xor	 DWORD PTR __t$546808[ebp], esi
  002da	66 c7 45 f4 36
	00		 mov	 WORD PTR __t$546808[ebp+4], 54 ; 00000036H
  002e0	8d 7d f0	 lea	 edi, DWORD PTR __t$546808[ebp]
  002e3	ff 15 00 00 00
	00		 call	 DWORD PTR __imp_?c_str@ioHashString@@QBEPBDXZ
$LL1418@AddRenderI@4:
  002e9	8a 08		 mov	 cl, BYTE PTR [eax]
  002eb	3a 0f		 cmp	 cl, BYTE PTR [edi]
  002ed	75 1a		 jne	 SHORT $LN1419@AddRenderI@4
  002ef	3a cb		 cmp	 cl, bl
  002f1	74 12		 je	 SHORT $LN1442@AddRenderI@4
  002f3	8a 48 01	 mov	 cl, BYTE PTR [eax+1]
  002f6	3a 4f 01	 cmp	 cl, BYTE PTR [edi+1]
  002f9	75 0e		 jne	 SHORT $LN1419@AddRenderI@4
  002fb	83 c0 02	 add	 eax, 2
  002fe	83 c7 02	 add	 edi, 2
  00301	3a cb		 cmp	 cl, bl
  00303	75 e4		 jne	 SHORT $LL1418@AddRenderI@4
$LN1442@AddRenderI@4:
  00305	33 c0		 xor	 eax, eax
  00307	eb 05		 jmp	 SHORT $LN1421@AddRenderI@4
$LN1419@AddRenderI@4:
  00309	1b c0		 sbb	 eax, eax
  0030b	83 d8 ff	 sbb	 eax, -1
$LN1421@AddRenderI@4:
  0030e	3b c3		 cmp	 eax, ebx
  00310	75 28		 jne	 SHORT $LN1389@AddRenderI@4

; 1042 : 	{
; 1043 : 		SAFEDELETE( m_pWave[5] );

  00312	8b 75 e0	 mov	 esi, DWORD PTR _this$GSCopy$[ebp]
  00315	8b 8e ac 01 00
	00		 mov	 ecx, DWORD PTR [esi+428]
  0031b	3b cb		 cmp	 ecx, ebx
  0031d	74 0d		 je	 SHORT $LN17@AddRenderI@4
  0031f	8b 01		 mov	 eax, DWORD PTR [ecx]
  00321	6a 01		 push	 1
  00323	ff 50 40	 call	 DWORD PTR [eax+64]
  00326	89 9e ac 01 00
	00		 mov	 DWORD PTR [esi+428], ebx
$LN17@AddRenderI@4:

; 1044 : 		m_pWave[5] = pImage;

  0032c	8b 45 dc	 mov	 eax, DWORD PTR _pImage$GSCopy$[ebp]
  0032f	89 86 ac 01 00
	00		 mov	 DWORD PTR [esi+428], eax
  00335	e9 e2 02 00 00	 jmp	 $LN1@AddRenderI@4
$LN1389@AddRenderI@4:

; 1045 : 	}
; 1046 : 	else if( szType == "DistNumBlue" )

  0033a	6a 02		 push	 2
  0033c	c7 45 e8 a9 85
	98 9e		 mov	 DWORD PTR __t$546946[ebp], -1634171479 ; 9e9885a9H
  00343	c7 45 ec a3 99
	86 a8		 mov	 DWORD PTR __t$546946[ebp+4], -1467573853 ; a88699a3H
  0034a	8d 45 e8	 lea	 eax, DWORD PTR __t$546946[ebp]
  0034d	c7 45 f0 81 99
	8e 00		 mov	 DWORD PTR __t$546946[ebp+8], 9345409 ; 008e9981H
  00354	59		 pop	 ecx
$LL908@AddRenderI@4:
  00355	31 30		 xor	 DWORD PTR [eax], esi
  00357	83 c0 04	 add	 eax, 4
  0035a	49		 dec	 ecx
  0035b	75 f8		 jne	 SHORT $LL908@AddRenderI@4
  0035d	6a 08		 push	 8
  0035f	58		 pop	 eax
$LL905@AddRenderI@4:
  00360	8b c8		 mov	 ecx, eax
  00362	81 e1 03 00 00
	80		 and	 ecx, -2147483645	; 80000003H
  00368	79 05		 jns	 SHORT $LN1445@AddRenderI@4
  0036a	49		 dec	 ecx
  0036b	83 c9 fc	 or	 ecx, -4			; fffffffcH
  0036e	41		 inc	 ecx
$LN1445@AddRenderI@4:
  0036f	b2 ed		 mov	 dl, -19			; ffffffedH
  00371	2a d1		 sub	 dl, cl
  00373	30 54 05 e8	 xor	 BYTE PTR __t$546946[ebp+eax], dl
  00377	40		 inc	 eax
  00378	83 f8 0b	 cmp	 eax, 11			; 0000000bH
  0037b	7c e3		 jl	 SHORT $LL905@AddRenderI@4
  0037d	8b 4d e4	 mov	 ecx, DWORD PTR _szType$GSCopy$[ebp]
  00380	8d 7d e8	 lea	 edi, DWORD PTR __t$546946[ebp]
  00383	ff 15 00 00 00
	00		 call	 DWORD PTR __imp_?c_str@ioHashString@@QBEPBDXZ
$LL1422@AddRenderI@4:
  00389	8a 08		 mov	 cl, BYTE PTR [eax]
  0038b	3a 0f		 cmp	 cl, BYTE PTR [edi]
  0038d	75 1a		 jne	 SHORT $LN1423@AddRenderI@4
  0038f	3a cb		 cmp	 cl, bl
  00391	74 12		 je	 SHORT $LN1424@AddRenderI@4
  00393	8a 48 01	 mov	 cl, BYTE PTR [eax+1]
  00396	3a 4f 01	 cmp	 cl, BYTE PTR [edi+1]
  00399	75 0e		 jne	 SHORT $LN1423@AddRenderI@4
  0039b	83 c0 02	 add	 eax, 2
  0039e	83 c7 02	 add	 edi, 2
  003a1	3a cb		 cmp	 cl, bl
  003a3	75 e4		 jne	 SHORT $LL1422@AddRenderI@4
$LN1424@AddRenderI@4:
  003a5	33 c0		 xor	 eax, eax
  003a7	eb 05		 jmp	 SHORT $LN1425@AddRenderI@4
$LN1423@AddRenderI@4:
  003a9	1b c0		 sbb	 eax, eax
  003ab	83 d8 ff	 sbb	 eax, -1
$LN1425@AddRenderI@4:
  003ae	3b c3		 cmp	 eax, ebx
  003b0	75 28		 jne	 SHORT $LN1390@AddRenderI@4

; 1047 : 	{
; 1048 : 		SAFEDELETE( m_pDistNumBlue );

  003b2	8b 75 e0	 mov	 esi, DWORD PTR _this$GSCopy$[ebp]
  003b5	8b 8e b0 01 00
	00		 mov	 ecx, DWORD PTR [esi+432]
  003bb	3b cb		 cmp	 ecx, ebx
  003bd	74 0d		 je	 SHORT $LN14@AddRenderI@4
  003bf	8b 01		 mov	 eax, DWORD PTR [ecx]
  003c1	6a 01		 push	 1
  003c3	ff 50 40	 call	 DWORD PTR [eax+64]
  003c6	89 9e b0 01 00
	00		 mov	 DWORD PTR [esi+432], ebx
$LN14@AddRenderI@4:

; 1049 : 		m_pDistNumBlue = pImage;

  003cc	8b 45 dc	 mov	 eax, DWORD PTR _pImage$GSCopy$[ebp]
  003cf	89 86 b0 01 00
	00		 mov	 DWORD PTR [esi+432], eax
  003d5	e9 42 02 00 00	 jmp	 $LN1@AddRenderI@4
$LN1390@AddRenderI@4:

; 1050 : 	}
; 1051 : 	else if( szType == "DistNumYellow" )

  003da	6a 03		 push	 3
  003dc	c7 45 e8 a9 85
	98 9e		 mov	 DWORD PTR __t$547071[ebp], -1634171479 ; 9e9885a9H
  003e3	c7 45 ec a3 99
	86 b3		 mov	 DWORD PTR __t$547071[ebp+4], -1283024477 ; b38699a3H
  003ea	c7 45 f0 88 80
	87 85		 mov	 DWORD PTR __t$547071[ebp+8], -2054717304 ; 85878088H
  003f1	8d 45 e8	 lea	 eax, DWORD PTR __t$547071[ebp]
  003f4	66 c7 45 f4 9a
	00		 mov	 WORD PTR __t$547071[ebp+12], 154 ; 0000009aH
  003fa	59		 pop	 ecx
$LL1014@AddRenderI@4:
  003fb	31 30		 xor	 DWORD PTR [eax], esi
  003fd	83 c0 04	 add	 eax, 4
  00400	49		 dec	 ecx
  00401	75 f8		 jne	 SHORT $LL1014@AddRenderI@4
  00403	8b 4d e4	 mov	 ecx, DWORD PTR _szType$GSCopy$[ebp]
  00406	80 75 f4 ed	 xor	 BYTE PTR __t$547071[ebp+12], -19 ; ffffffedH
  0040a	8d 7d e8	 lea	 edi, DWORD PTR __t$547071[ebp]
  0040d	ff 15 00 00 00
	00		 call	 DWORD PTR __imp_?c_str@ioHashString@@QBEPBDXZ
$LL1426@AddRenderI@4:
  00413	8a 08		 mov	 cl, BYTE PTR [eax]
  00415	3a 0f		 cmp	 cl, BYTE PTR [edi]
  00417	75 1a		 jne	 SHORT $LN1427@AddRenderI@4
  00419	3a cb		 cmp	 cl, bl
  0041b	74 12		 je	 SHORT $LN1443@AddRenderI@4
  0041d	8a 48 01	 mov	 cl, BYTE PTR [eax+1]
  00420	3a 4f 01	 cmp	 cl, BYTE PTR [edi+1]
  00423	75 0e		 jne	 SHORT $LN1427@AddRenderI@4
  00425	83 c0 02	 add	 eax, 2
  00428	83 c7 02	 add	 edi, 2
  0042b	3a cb		 cmp	 cl, bl
  0042d	75 e4		 jne	 SHORT $LL1426@AddRenderI@4
$LN1443@AddRenderI@4:
  0042f	33 c0		 xor	 eax, eax
  00431	eb 05		 jmp	 SHORT $LN1429@AddRenderI@4
$LN1427@AddRenderI@4:
  00433	1b c0		 sbb	 eax, eax
  00435	83 d8 ff	 sbb	 eax, -1
$LN1429@AddRenderI@4:
  00438	3b c3		 cmp	 eax, ebx
  0043a	75 28		 jne	 SHORT $LN1391@AddRenderI@4

; 1052 : 	{
; 1053 : 		SAFEDELETE( m_pDistNumYellow );

  0043c	8b 75 e0	 mov	 esi, DWORD PTR _this$GSCopy$[ebp]
  0043f	8b 8e b4 01 00
	00		 mov	 ecx, DWORD PTR [esi+436]
  00445	3b cb		 cmp	 ecx, ebx
  00447	74 0d		 je	 SHORT $LN11@AddRenderI@4
  00449	8b 01		 mov	 eax, DWORD PTR [ecx]
  0044b	6a 01		 push	 1
  0044d	ff 50 40	 call	 DWORD PTR [eax+64]
  00450	89 9e b4 01 00
	00		 mov	 DWORD PTR [esi+436], ebx
$LN11@AddRenderI@4:

; 1054 : 		m_pDistNumYellow = pImage;

  00456	8b 45 dc	 mov	 eax, DWORD PTR _pImage$GSCopy$[ebp]
  00459	89 86 b4 01 00
	00		 mov	 DWORD PTR [esi+436], eax
  0045f	e9 b8 01 00 00	 jmp	 $LN1@AddRenderI@4
$LN1391@AddRenderI@4:

; 1055 : 	}
; 1056 : 	else if( szType == "DistNumRed" )

  00464	6a 02		 push	 2
  00466	c7 45 e8 a9 85
	98 9e		 mov	 DWORD PTR __t$547196[ebp], -1634171479 ; 9e9885a9H
  0046d	c7 45 ec a3 99
	86 b8		 mov	 DWORD PTR __t$547196[ebp+4], -1199138397 ; b88699a3H
  00474	66 c7 45 f0 88
	88		 mov	 WORD PTR __t$547196[ebp+8], 34952 ; 00008888H
  0047a	8d 45 e8	 lea	 eax, DWORD PTR __t$547196[ebp]
  0047d	88 5d f2	 mov	 BYTE PTR __t$547196[ebp+10], bl
  00480	59		 pop	 ecx
$LL1120@AddRenderI@4:
  00481	31 30		 xor	 DWORD PTR [eax], esi
  00483	83 c0 04	 add	 eax, 4
  00486	49		 dec	 ecx
  00487	75 f8		 jne	 SHORT $LL1120@AddRenderI@4
  00489	6a 08		 push	 8
  0048b	58		 pop	 eax
$LL1117@AddRenderI@4:
  0048c	8b c8		 mov	 ecx, eax
  0048e	81 e1 03 00 00
	80		 and	 ecx, -2147483645	; 80000003H
  00494	79 05		 jns	 SHORT $LN1446@AddRenderI@4
  00496	49		 dec	 ecx
  00497	83 c9 fc	 or	 ecx, -4			; fffffffcH
  0049a	41		 inc	 ecx
$LN1446@AddRenderI@4:
  0049b	b2 ed		 mov	 dl, -19			; ffffffedH
  0049d	2a d1		 sub	 dl, cl
  0049f	30 54 05 e8	 xor	 BYTE PTR __t$547196[ebp+eax], dl
  004a3	40		 inc	 eax
  004a4	83 f8 0a	 cmp	 eax, 10			; 0000000aH
  004a7	7c e3		 jl	 SHORT $LL1117@AddRenderI@4
  004a9	8b 4d e4	 mov	 ecx, DWORD PTR _szType$GSCopy$[ebp]
  004ac	8d 7d e8	 lea	 edi, DWORD PTR __t$547196[ebp]
  004af	ff 15 00 00 00
	00		 call	 DWORD PTR __imp_?c_str@ioHashString@@QBEPBDXZ
$LL1430@AddRenderI@4:
  004b5	8a 08		 mov	 cl, BYTE PTR [eax]
  004b7	3a 0f		 cmp	 cl, BYTE PTR [edi]
  004b9	75 1a		 jne	 SHORT $LN1431@AddRenderI@4
  004bb	3a cb		 cmp	 cl, bl
  004bd	74 12		 je	 SHORT $LN1432@AddRenderI@4
  004bf	8a 48 01	 mov	 cl, BYTE PTR [eax+1]
  004c2	3a 4f 01	 cmp	 cl, BYTE PTR [edi+1]
  004c5	75 0e		 jne	 SHORT $LN1431@AddRenderI@4
  004c7	83 c0 02	 add	 eax, 2
  004ca	83 c7 02	 add	 edi, 2
  004cd	3a cb		 cmp	 cl, bl
  004cf	75 e4		 jne	 SHORT $LL1430@AddRenderI@4
$LN1432@AddRenderI@4:
  004d1	33 c0		 xor	 eax, eax
  004d3	eb 05		 jmp	 SHORT $LN1433@AddRenderI@4
$LN1431@AddRenderI@4:
  004d5	1b c0		 sbb	 eax, eax
  004d7	83 d8 ff	 sbb	 eax, -1
$LN1433@AddRenderI@4:
  004da	3b c3		 cmp	 eax, ebx
  004dc	75 28		 jne	 SHORT $LN1392@AddRenderI@4

; 1057 : 	{
; 1058 : 		SAFEDELETE( m_pDistNumRed );

  004de	8b 75 e0	 mov	 esi, DWORD PTR _this$GSCopy$[ebp]
  004e1	8b 8e b8 01 00
	00		 mov	 ecx, DWORD PTR [esi+440]
  004e7	3b cb		 cmp	 ecx, ebx
  004e9	74 0d		 je	 SHORT $LN8@AddRenderI@4
  004eb	8b 01		 mov	 eax, DWORD PTR [ecx]
  004ed	6a 01		 push	 1
  004ef	ff 50 40	 call	 DWORD PTR [eax+64]
  004f2	89 9e b8 01 00
	00		 mov	 DWORD PTR [esi+440], ebx
$LN8@AddRenderI@4:

; 1059 : 		m_pDistNumRed = pImage;

  004f8	8b 45 dc	 mov	 eax, DWORD PTR _pImage$GSCopy$[ebp]
  004fb	89 86 b8 01 00
	00		 mov	 DWORD PTR [esi+440], eax
  00501	e9 16 01 00 00	 jmp	 $LN1@AddRenderI@4
$LN1392@AddRenderI@4:

; 1060 : 	}
; 1061 : 	else if( szType == "RateNum" )

  00506	6a 04		 push	 4
  00508	c7 45 ec bf 8d
	9f 8f		 mov	 DWORD PTR __t$547321[ebp], -1885368897 ; 8f9f8dbfH
  0050f	31 75 ec	 xor	 DWORD PTR __t$547321[ebp], esi
  00512	c7 45 f0 a3 99
	86 00		 mov	 DWORD PTR __t$547321[ebp+4], 8821155 ; 008699a3H
  00519	58		 pop	 eax
$LL1223@AddRenderI@4:
  0051a	8b c8		 mov	 ecx, eax
  0051c	81 e1 03 00 00
	80		 and	 ecx, -2147483645	; 80000003H
  00522	79 05		 jns	 SHORT $LN1447@AddRenderI@4
  00524	49		 dec	 ecx
  00525	83 c9 fc	 or	 ecx, -4			; fffffffcH
  00528	41		 inc	 ecx
$LN1447@AddRenderI@4:
  00529	b2 ed		 mov	 dl, -19			; ffffffedH
  0052b	2a d1		 sub	 dl, cl
  0052d	30 54 05 ec	 xor	 BYTE PTR __t$547321[ebp+eax], dl
  00531	40		 inc	 eax
  00532	83 f8 07	 cmp	 eax, 7
  00535	7c e3		 jl	 SHORT $LL1223@AddRenderI@4
  00537	8b 4d e4	 mov	 ecx, DWORD PTR _szType$GSCopy$[ebp]
  0053a	8d 7d ec	 lea	 edi, DWORD PTR __t$547321[ebp]
  0053d	ff 15 00 00 00
	00		 call	 DWORD PTR __imp_?c_str@ioHashString@@QBEPBDXZ
$LL1434@AddRenderI@4:
  00543	8a 08		 mov	 cl, BYTE PTR [eax]
  00545	3a 0f		 cmp	 cl, BYTE PTR [edi]
  00547	75 1a		 jne	 SHORT $LN1435@AddRenderI@4
  00549	3a cb		 cmp	 cl, bl
  0054b	74 12		 je	 SHORT $LN1444@AddRenderI@4
  0054d	8a 48 01	 mov	 cl, BYTE PTR [eax+1]
  00550	3a 4f 01	 cmp	 cl, BYTE PTR [edi+1]
  00553	75 0e		 jne	 SHORT $LN1435@AddRenderI@4
  00555	83 c0 02	 add	 eax, 2
  00558	83 c7 02	 add	 edi, 2
  0055b	3a cb		 cmp	 cl, bl
  0055d	75 e4		 jne	 SHORT $LL1434@AddRenderI@4
$LN1444@AddRenderI@4:
  0055f	33 c0		 xor	 eax, eax
  00561	eb 05		 jmp	 SHORT $LN1437@AddRenderI@4
$LN1435@AddRenderI@4:
  00563	1b c0		 sbb	 eax, eax
  00565	83 d8 ff	 sbb	 eax, -1
$LN1437@AddRenderI@4:
  00568	3b c3		 cmp	 eax, ebx
  0056a	75 28		 jne	 SHORT $LN1393@AddRenderI@4

; 1062 : 	{
; 1063 : 		SAFEDELETE( m_pRateNum );

  0056c	8b 75 e0	 mov	 esi, DWORD PTR _this$GSCopy$[ebp]
  0056f	8b 8e bc 01 00
	00		 mov	 ecx, DWORD PTR [esi+444]
  00575	3b cb		 cmp	 ecx, ebx
  00577	74 0d		 je	 SHORT $LN5@AddRenderI@4
  00579	8b 01		 mov	 eax, DWORD PTR [ecx]
  0057b	6a 01		 push	 1
  0057d	ff 50 40	 call	 DWORD PTR [eax+64]
  00580	89 9e bc 01 00
	00		 mov	 DWORD PTR [esi+444], ebx
$LN5@AddRenderI@4:

; 1064 : 		m_pRateNum = pImage;

  00586	8b 45 dc	 mov	 eax, DWORD PTR _pImage$GSCopy$[ebp]
  00589	89 86 bc 01 00
	00		 mov	 DWORD PTR [esi+444], eax
  0058f	e9 88 00 00 00	 jmp	 $LN1@AddRenderI@4
$LN1393@AddRenderI@4:

; 1065 : 	}
; 1066 : 	else if( szType == "DistNone" )

  00594	6a 02		 push	 2
  00596	c7 45 ec a9 85
	98 9e		 mov	 DWORD PTR __t$547433[ebp], -1634171479 ; 9e9885a9H
  0059d	c7 45 f0 a3 83
	85 8f		 mov	 DWORD PTR __t$547433[ebp+4], -1887075421 ; 8f8583a3H
  005a4	8d 45 ec	 lea	 eax, DWORD PTR __t$547433[ebp]
  005a7	88 5d f4	 mov	 BYTE PTR __t$547433[ebp+8], bl
  005aa	59		 pop	 ecx
$LL1332@AddRenderI@4:
  005ab	31 30		 xor	 DWORD PTR [eax], esi
  005ad	83 c0 04	 add	 eax, 4
  005b0	49		 dec	 ecx
  005b1	75 f8		 jne	 SHORT $LL1332@AddRenderI@4
  005b3	8b 4d e4	 mov	 ecx, DWORD PTR _szType$GSCopy$[ebp]
  005b6	8d 75 ec	 lea	 esi, DWORD PTR __t$547433[ebp]
  005b9	ff 15 00 00 00
	00		 call	 DWORD PTR __imp_?c_str@ioHashString@@QBEPBDXZ
$LL1438@AddRenderI@4:
  005bf	8a 08		 mov	 cl, BYTE PTR [eax]
  005c1	3a 0e		 cmp	 cl, BYTE PTR [esi]
  005c3	75 1a		 jne	 SHORT $LN1439@AddRenderI@4
  005c5	3a cb		 cmp	 cl, bl
  005c7	74 12		 je	 SHORT $LN1440@AddRenderI@4
  005c9	8a 48 01	 mov	 cl, BYTE PTR [eax+1]
  005cc	3a 4e 01	 cmp	 cl, BYTE PTR [esi+1]
  005cf	75 0e		 jne	 SHORT $LN1439@AddRenderI@4
  005d1	83 c0 02	 add	 eax, 2
  005d4	83 c6 02	 add	 esi, 2
  005d7	3a cb		 cmp	 cl, bl
  005d9	75 e4		 jne	 SHORT $LL1438@AddRenderI@4
$LN1440@AddRenderI@4:
  005db	33 c0		 xor	 eax, eax
  005dd	eb 05		 jmp	 SHORT $LN1441@AddRenderI@4
$LN1439@AddRenderI@4:
  005df	1b c0		 sbb	 eax, eax
  005e1	83 d8 ff	 sbb	 eax, -1
$LN1441@AddRenderI@4:
  005e4	3b c3		 cmp	 eax, ebx
  005e6	75 25		 jne	 SHORT $LN3@AddRenderI@4

; 1067 : 	{
; 1068 : 		SAFEDELETE( m_pDistNone );

  005e8	8b 75 e0	 mov	 esi, DWORD PTR _this$GSCopy$[ebp]
  005eb	8b 8e c0 01 00
	00		 mov	 ecx, DWORD PTR [esi+448]
  005f1	3b cb		 cmp	 ecx, ebx
  005f3	74 0d		 je	 SHORT $LN2@AddRenderI@4
  005f5	8b 01		 mov	 eax, DWORD PTR [ecx]
  005f7	6a 01		 push	 1
  005f9	ff 50 40	 call	 DWORD PTR [eax+64]
  005fc	89 9e c0 01 00
	00		 mov	 DWORD PTR [esi+448], ebx
$LN2@AddRenderI@4:

; 1069 : 		m_pDistNone = pImage;

  00602	8b 45 dc	 mov	 eax, DWORD PTR _pImage$GSCopy$[ebp]
  00605	89 86 c0 01 00
	00		 mov	 DWORD PTR [esi+448], eax

; 1070 : 	}
; 1071 : 	else

  0060b	eb 0f		 jmp	 SHORT $LN1@AddRenderI@4
$LN3@AddRenderI@4:

; 1072 : 	{
; 1073 : 		ioMovingWnd::AddRenderImage( szType, pImage );

  0060d	ff 75 dc	 push	 DWORD PTR _pImage$GSCopy$[ebp]
  00610	8b 4d e0	 mov	 ecx, DWORD PTR _this$GSCopy$[ebp]
  00613	ff 75 e4	 push	 DWORD PTR _szType$GSCopy$[ebp]
  00616	ff 15 00 00 00
	00		 call	 DWORD PTR __imp_?AddRenderImage@ioWnd@@UAEXABVioHashString@@PAVioUIRenderImage@@@Z
$LN1@AddRenderI@4:

; 1074 : 	}
; 1075 : }

  0061c	8b 4d fc	 mov	 ecx, DWORD PTR __$ArrayPad$[ebp]
  0061f	5f		 pop	 edi
  00620	5e		 pop	 esi
  00621	33 cd		 xor	 ecx, ebp
  00623	5b		 pop	 ebx
  00624	e8 00 00 00 00	 call	 @__security_check_cookie@4
  00629	c9		 leave
  0062a	c2 08 00	 ret	 8
?AddRenderImage@ExcavationSearchingWnd@@UAEXABVioHashString@@PAVioUIRenderImage@@@Z ENDP ; ExcavationSearchingWnd::AddRenderImage
_TEXT	ENDS
PUBLIC	?ClearExcavatingCurCoolTime@ExcavationSearchingWnd@@QAEXXZ ; ExcavationSearchingWnd::ClearExcavatingCurCoolTime
; Function compile flags: /Ogsp
;	COMDAT ?ClearExcavatingCurCoolTime@ExcavationSearchingWnd@@QAEXXZ
_TEXT	SEGMENT
?ClearExcavatingCurCoolTime@ExcavationSearchingWnd@@QAEXXZ PROC ; ExcavationSearchingWnd::ClearExcavatingCurCoolTime, COMDAT
; _this$ = ecx

; 1474 : 	ExcavatingBtn *pBtn = dynamic_cast<ExcavatingBtn*> ( FindChildWnd( ID_EXCAVATING_BTN ) );

  00000	6a 00		 push	 0
  00002	68 00 00 00 00	 push	 OFFSET ??_R0?AVExcavatingBtn@@@8
  00007	68 00 00 00 00	 push	 OFFSET ??_R0?AVioWnd@@@8
  0000c	6a 00		 push	 0
  0000e	6a 02		 push	 2
  00010	ff 15 00 00 00
	00		 call	 DWORD PTR __imp_?FindChildWnd@ioWnd@@QAEPAV1@K@Z
  00016	50		 push	 eax
  00017	e8 00 00 00 00	 call	 ___RTDynamicCast
  0001c	83 c4 14	 add	 esp, 20			; 00000014H

; 1475 : 	if( pBtn )

  0001f	85 c0		 test	 eax, eax
  00021	74 07		 je	 SHORT $LN1@ClearExcav

; 1476 : 		pBtn->ClearCurCoolTime();

  00023	8b c8		 mov	 ecx, eax
  00025	e9 00 00 00 00	 jmp	 ?ClearCurCoolTime@ExcavatingBtn@@QAEXXZ ; ExcavatingBtn::ClearCurCoolTime
$LN1@ClearExcav:

; 1477 : }

  0002a	c3		 ret	 0
?ClearExcavatingCurCoolTime@ExcavationSearchingWnd@@QAEXXZ ENDP ; ExcavationSearchingWnd::ClearExcavatingCurCoolTime
_TEXT	ENDS
PUBLIC	?OnExcavatingBtnUp@ExcavationSearchingWnd@@QAEXK@Z ; ExcavationSearchingWnd::OnExcavatingBtnUp
EXTRN	?SetExcavating@ioExcavationManager@@QAE_NPAVioBaseChar@@@Z:PROC ; ioExcavationManager::SetExcavating
; Function compile flags: /Ogsp
;	COMDAT ?OnExcavatingBtnUp@ExcavationSearchingWnd@@QAEXK@Z
_TEXT	SEGMENT
_dwID$ = 8						; size = 4
?OnExcavatingBtnUp@ExcavationSearchingWnd@@QAEXK@Z PROC	; ExcavationSearchingWnd::OnExcavatingBtnUp, COMDAT
; _this$ = ecx

; 1480 : {

  00000	55		 push	 ebp
  00001	8b ec		 mov	 ebp, esp
  00003	56		 push	 esi
  00004	57		 push	 edi

; 1481 : 	ExcavatingBtn *pBtn = dynamic_cast<ExcavatingBtn*> ( FindChildWnd( dwID ) );

  00005	6a 00		 push	 0
  00007	68 00 00 00 00	 push	 OFFSET ??_R0?AVExcavatingBtn@@@8
  0000c	68 00 00 00 00	 push	 OFFSET ??_R0?AVioWnd@@@8
  00011	6a 00		 push	 0
  00013	ff 75 08	 push	 DWORD PTR _dwID$[ebp]
  00016	8b f1		 mov	 esi, ecx
  00018	ff 15 00 00 00
	00		 call	 DWORD PTR __imp_?FindChildWnd@ioWnd@@QAEPAV1@K@Z
  0001e	50		 push	 eax
  0001f	e8 00 00 00 00	 call	 ___RTDynamicCast
  00024	8b f8		 mov	 edi, eax
  00026	83 c4 14	 add	 esp, 20			; 00000014H

; 1482 : 	if( pBtn )

  00029	85 ff		 test	 edi, edi
  0002b	74 32		 je	 SHORT $LN1@OnExcavati

; 1483 : 	{
; 1484 : 		if( pBtn->IsCanExcavating() )

  0002d	8b cf		 mov	 ecx, edi
  0002f	e8 00 00 00 00	 call	 ?IsCanExcavating@ExcavatingBtn@@QAE_NXZ ; ExcavatingBtn::IsCanExcavating
  00034	84 c0		 test	 al, al
  00036	74 27		 je	 SHORT $LN1@OnExcavati

; 1485 : 		{
; 1486 : 			if( m_pPlayStage )

  00038	8b 8e 90 01 00
	00		 mov	 ecx, DWORD PTR [esi+400]
  0003e	85 c9		 test	 ecx, ecx
  00040	74 1d		 je	 SHORT $LN1@OnExcavati

; 1487 : 			{
; 1488 : 				ioBaseChar *pOwner = m_pPlayStage->GetOwnerChar();

  00042	e8 00 00 00 00	 call	 ?GetOwnerChar@ioPlayStage@@QAEPAVioBaseChar@@XZ ; ioPlayStage::GetOwnerChar

; 1489 : 				if( g_ExcavationMgr.SetExcavating( pOwner ) )

  00047	50		 push	 eax
  00048	e8 00 00 00 00	 call	 ?GetSingleton@ioExcavationManager@@SAAAV1@XZ ; ioExcavationManager::GetSingleton
  0004d	8b c8		 mov	 ecx, eax
  0004f	e8 00 00 00 00	 call	 ?SetExcavating@ioExcavationManager@@QAE_NPAVioBaseChar@@@Z ; ioExcavationManager::SetExcavating
  00054	84 c0		 test	 al, al
  00056	74 07		 je	 SHORT $LN1@OnExcavati

; 1490 : 					pBtn->InitCoolTime();

  00058	8b cf		 mov	 ecx, edi
  0005a	e8 00 00 00 00	 call	 ?InitCoolTime@ExcavatingBtn@@QAEXXZ ; ExcavatingBtn::InitCoolTime
$LN1@OnExcavati:
  0005f	5f		 pop	 edi
  00060	5e		 pop	 esi

; 1491 : 			}
; 1492 : 		}
; 1493 : 	}
; 1494 : }

  00061	5d		 pop	 ebp
  00062	c2 04 00	 ret	 4
?OnExcavatingBtnUp@ExcavationSearchingWnd@@QAEXK@Z ENDP	; ExcavationSearchingWnd::OnExcavatingBtnUp
_TEXT	ENDS
PUBLIC	_this$GSCopy$
PUBLIC	__$ArrayPad$
; Function compile flags: /Ogsp
;	COMDAT ?AddRenderImage@ExcavationBuyPopup@@UAEXABVioHashString@@PAVioUIRenderImage@@@Z
_TEXT	SEGMENT
_this$GSCopy$ = -24					; size = 4
__t$547686 = -20					; size = 9
__$ArrayPad$ = -4					; size = 4
_szType$ = 8						; size = 4
_pImage$ = 12						; size = 4
?AddRenderImage@ExcavationBuyPopup@@UAEXABVioHashString@@PAVioUIRenderImage@@@Z PROC ; ExcavationBuyPopup::AddRenderImage, COMDAT
; _this$ = ecx

; 1589 : {

  00000	55		 push	 ebp
  00001	8b ec		 mov	 ebp, esp
  00003	83 ec 18	 sub	 esp, 24			; 00000018H
  00006	a1 00 00 00 00	 mov	 eax, DWORD PTR ___security_cookie
  0000b	33 c5		 xor	 eax, ebp
  0000d	89 45 fc	 mov	 DWORD PTR __$ArrayPad$[ebp], eax
  00010	53		 push	 ebx
  00011	8b 5d 0c	 mov	 ebx, DWORD PTR _pImage$[ebp]
  00014	56		 push	 esi
  00015	57		 push	 edi
  00016	8b 7d 08	 mov	 edi, DWORD PTR _szType$[ebp]

; 1590 : 	if( szType == "IconBack" )

  00019	6a 02		 push	 2
  0001b	89 4d e8	 mov	 DWORD PTR _this$GSCopy$[ebp], ecx
  0001e	c7 45 ec a4 8f
	84 84		 mov	 DWORD PTR __t$547686[ebp], -2071687260 ; 84848fa4H
  00025	c7 45 f0 af 8d
	88 81		 mov	 DWORD PTR __t$547686[ebp+4], -2121757265 ; 81888dafH
  0002c	8d 45 ec	 lea	 eax, DWORD PTR __t$547686[ebp]
  0002f	c6 45 f4 00	 mov	 BYTE PTR __t$547686[ebp+8], 0
  00033	59		 pop	 ecx
$LL111@AddRenderI@5:
  00034	81 30 ed ec eb
	ea		 xor	 DWORD PTR [eax], -353637139 ; eaebecedH
  0003a	83 c0 04	 add	 eax, 4
  0003d	49		 dec	 ecx
  0003e	75 f4		 jne	 SHORT $LL111@AddRenderI@5
  00040	8b cf		 mov	 ecx, edi
  00042	8d 75 ec	 lea	 esi, DWORD PTR __t$547686[ebp]
  00045	ff 15 00 00 00
	00		 call	 DWORD PTR __imp_?c_str@ioHashString@@QBEPBDXZ
$LL118@AddRenderI@5:
  0004b	8a 08		 mov	 cl, BYTE PTR [eax]
  0004d	3a 0e		 cmp	 cl, BYTE PTR [esi]
  0004f	75 1a		 jne	 SHORT $LN119@AddRenderI@5
  00051	84 c9		 test	 cl, cl
  00053	74 12		 je	 SHORT $LN120@AddRenderI@5
  00055	8a 48 01	 mov	 cl, BYTE PTR [eax+1]
  00058	3a 4e 01	 cmp	 cl, BYTE PTR [esi+1]
  0005b	75 0e		 jne	 SHORT $LN119@AddRenderI@5
  0005d	83 c0 02	 add	 eax, 2
  00060	83 c6 02	 add	 esi, 2
  00063	84 c9		 test	 cl, cl
  00065	75 e4		 jne	 SHORT $LL118@AddRenderI@5
$LN120@AddRenderI@5:
  00067	33 c0		 xor	 eax, eax
  00069	eb 05		 jmp	 SHORT $LN121@AddRenderI@5
$LN119@AddRenderI@5:
  0006b	1b c0		 sbb	 eax, eax
  0006d	83 d8 ff	 sbb	 eax, -1
$LN121@AddRenderI@5:
  00070	85 c0		 test	 eax, eax
  00072	75 23		 jne	 SHORT $LN3@AddRenderI@5

; 1591 : 	{
; 1592 : 		SAFEDELETE( m_pIconBack );

  00074	8b 75 e8	 mov	 esi, DWORD PTR _this$GSCopy$[ebp]
  00077	8b 8e 60 01 00
	00		 mov	 ecx, DWORD PTR [esi+352]
  0007d	85 c9		 test	 ecx, ecx
  0007f	74 0e		 je	 SHORT $LN2@AddRenderI@5
  00081	8b 01		 mov	 eax, DWORD PTR [ecx]
  00083	6a 01		 push	 1
  00085	ff 50 40	 call	 DWORD PTR [eax+64]
  00088	83 a6 60 01 00
	00 00		 and	 DWORD PTR [esi+352], 0
$LN2@AddRenderI@5:

; 1593 : 		m_pIconBack = pImage;

  0008f	89 9e 60 01 00
	00		 mov	 DWORD PTR [esi+352], ebx

; 1594 : 	}
; 1595 : 	else

  00095	eb 0b		 jmp	 SHORT $LN1@AddRenderI@5
$LN3@AddRenderI@5:

; 1596 : 	{
; 1597 : 		ioWnd::AddRenderImage( szType, pImage );

  00097	8b 4d e8	 mov	 ecx, DWORD PTR _this$GSCopy$[ebp]
  0009a	53		 push	 ebx
  0009b	57		 push	 edi
  0009c	ff 15 00 00 00
	00		 call	 DWORD PTR __imp_?AddRenderImage@ioWnd@@UAEXABVioHashString@@PAVioUIRenderImage@@@Z
$LN1@AddRenderI@5:

; 1598 : 	}
; 1599 : }

  000a2	8b 4d fc	 mov	 ecx, DWORD PTR __$ArrayPad$[ebp]
  000a5	5f		 pop	 edi
  000a6	5e		 pop	 esi
  000a7	33 cd		 xor	 ecx, ebp
  000a9	5b		 pop	 ebx
  000aa	e8 00 00 00 00	 call	 @__security_check_cookie@4
  000af	c9		 leave
  000b0	c2 08 00	 ret	 8
?AddRenderImage@ExcavationBuyPopup@@UAEXABVioHashString@@PAVioUIRenderImage@@@Z ENDP ; ExcavationBuyPopup::AddRenderImage
_TEXT	ENDS
PUBLIC	??4?$CEncrypt@H@@QAE_NAAV0@@Z			; CEncrypt<int>::operator=
; Function compile flags: /Ogsp
; File d:\lost saga for developer\youtube\tutorial\source\src\lsclient\encryptvalue.h
;	COMDAT ??4?$CEncrypt@H@@QAE_NAAV0@@Z
_TEXT	SEGMENT
_value$547811 = -4					; size = 4
_value$ = 8						; size = 4
_inValue$ = 8						; size = 4
??4?$CEncrypt@H@@QAE_NAAV0@@Z PROC			; CEncrypt<int>::operator=, COMDAT
; _this$ = ecx

; 3272 : 	 {

  00000	55		 push	 ebp
  00001	8b ec		 mov	 ebp, esp
  00003	51		 push	 ecx
  00004	56		 push	 esi

; 3273 : 		 type value = inValue;

  00005	8d 45 fc	 lea	 eax, DWORD PTR _value$547811[ebp]
  00008	8b f1		 mov	 esi, ecx
  0000a	8b 4d 08	 mov	 ecx, DWORD PTR _inValue$[ebp]
  0000d	50		 push	 eax
  0000e	e8 00 00 00 00	 call	 ?DecryptValueToPool@?$CEncrypt@H@@QAEXPAH@Z ; CEncrypt<int>::DecryptValueToPool
  00013	8b 45 fc	 mov	 eax, DWORD PTR _value$547811[ebp]
  00016	89 45 08	 mov	 DWORD PTR _value$[ebp], eax

; 3274 : 		 EncryptValueToPool((char*)&value);

  00019	8d 45 08	 lea	 eax, DWORD PTR _value$[ebp]
  0001c	50		 push	 eax
  0001d	8b ce		 mov	 ecx, esi
  0001f	e8 00 00 00 00	 call	 ?EncryptValueToPool@?$CEncrypt@H@@AAEXPBD@Z ; CEncrypt<int>::EncryptValueToPool

; 3275 : #ifdef _NOTUSE
; 3276 : 		 m_value = inValue;
; 3277 : 		 Debug();
; 3278 : #endif
; 3279 : 		 return value;

  00024	83 7d 08 00	 cmp	 DWORD PTR _value$[ebp], 0
  00028	5e		 pop	 esi
  00029	0f 95 c0	 setne	 al

; 3280 : 	 }

  0002c	c9		 leave
  0002d	c2 04 00	 ret	 4
??4?$CEncrypt@H@@QAE_NAAV0@@Z ENDP			; CEncrypt<int>::operator=
_TEXT	ENDS
PUBLIC	??9?$_Vector_const_iterator@V?$_Vector_val@PAVioBaseChar@@V?$allocator@PAVioBaseChar@@@std@@@std@@@std@@QBE_NABV01@@Z ; std::_Vector_const_iterator<std::_Vector_val<ioBaseChar *,std::allocator<ioBaseChar *> > >::operator!=
; Function compile flags: /Ogsp
; File c:\program files (x86)\microsoft visual studio 10.0\vc\include\vector
;	COMDAT ??9?$_Vector_const_iterator@V?$_Vector_val@PAVioBaseChar@@V?$allocator@PAVioBaseChar@@@std@@@std@@@std@@QBE_NABV01@@Z
_TEXT	SEGMENT
__Right$ = 8						; size = 4
??9?$_Vector_const_iterator@V?$_Vector_val@PAVioBaseChar@@V?$allocator@PAVioBaseChar@@@std@@@std@@@std@@QBE_NABV01@@Z PROC ; std::_Vector_const_iterator<std::_Vector_val<ioBaseChar *,std::allocator<ioBaseChar *> > >::operator!=, COMDAT
; _this$ = ecx

; 207  : 		{	// test for iterator inequality

  00000	55		 push	 ebp
  00001	8b ec		 mov	 ebp, esp

; 208  : 		return (!(*this == _Right));

  00003	8b 01		 mov	 eax, DWORD PTR [ecx]
  00005	8b 55 08	 mov	 edx, DWORD PTR __Right$[ebp]
  00008	33 c9		 xor	 ecx, ecx
  0000a	3b 02		 cmp	 eax, DWORD PTR [edx]
  0000c	0f 95 c0	 setne	 al

; 209  : 		}

  0000f	5d		 pop	 ebp
  00010	c2 04 00	 ret	 4
??9?$_Vector_const_iterator@V?$_Vector_val@PAVioBaseChar@@V?$allocator@PAVioBaseChar@@@std@@@std@@@std@@QBE_NABV01@@Z ENDP ; std::_Vector_const_iterator<std::_Vector_val<ioBaseChar *,std::allocator<ioBaseChar *> > >::operator!=
_TEXT	ENDS
PUBLIC	??$_Cons_val@V?$allocator@H@std@@HH@std@@YAXAAV?$allocator@H@0@PAH$$QAH@Z ; std::_Cons_val<std::allocator<int>,int,int>
; Function compile flags: /Ogsp
; File c:\program files (x86)\microsoft visual studio 10.0\vc\include\xmemory
;	COMDAT ??$_Cons_val@V?$allocator@H@std@@HH@std@@YAXAAV?$allocator@H@0@PAH$$QAH@Z
_TEXT	SEGMENT
__Alval$ = 8						; size = 4
__Pdest$ = 12						; size = 4
__Src$ = 16						; size = 4
??$_Cons_val@V?$allocator@H@std@@HH@std@@YAXAAV?$allocator@H@0@PAH$$QAH@Z PROC ; std::_Cons_val<std::allocator<int>,int,int>, COMDAT

; 279  : 	{	// construct using allocator

  00000	55		 push	 ebp
  00001	8b ec		 mov	 ebp, esp

; 280  : 	_Alval.construct(_Pdest, _STD forward<_Ty2>(_Src));

  00003	8b 45 0c	 mov	 eax, DWORD PTR __Pdest$[ebp]
  00006	85 c0		 test	 eax, eax
  00008	74 07		 je	 SHORT $LN7@Cons_val
  0000a	8b 4d 10	 mov	 ecx, DWORD PTR __Src$[ebp]
  0000d	8b 09		 mov	 ecx, DWORD PTR [ecx]
  0000f	89 08		 mov	 DWORD PTR [eax], ecx
$LN7@Cons_val:

; 281  : 	}

  00011	5d		 pop	 ebp
  00012	c3		 ret	 0
??$_Cons_val@V?$allocator@H@std@@HH@std@@YAXAAV?$allocator@H@0@PAH$$QAH@Z ENDP ; std::_Cons_val<std::allocator<int>,int,int>
_TEXT	ENDS
PUBLIC	??$_Cons_val@V?$allocator@H@std@@HAAH@std@@YAXAAV?$allocator@H@0@PAHAAH@Z ; std::_Cons_val<std::allocator<int>,int,int &>
; Function compile flags: /Ogsp
;	COMDAT ??$_Cons_val@V?$allocator@H@std@@HAAH@std@@YAXAAV?$allocator@H@0@PAHAAH@Z
_TEXT	SEGMENT
__Alval$ = 8						; size = 4
__Pdest$ = 12						; size = 4
__Src$ = 16						; size = 4
??$_Cons_val@V?$allocator@H@std@@HAAH@std@@YAXAAV?$allocator@H@0@PAHAAH@Z PROC ; std::_Cons_val<std::allocator<int>,int,int &>, COMDAT

; 279  : 	{	// construct using allocator

  00000	55		 push	 ebp
  00001	8b ec		 mov	 ebp, esp

; 280  : 	_Alval.construct(_Pdest, _STD forward<_Ty2>(_Src));

  00003	8b 45 0c	 mov	 eax, DWORD PTR __Pdest$[ebp]
  00006	85 c0		 test	 eax, eax
  00008	74 07		 je	 SHORT $LN7@Cons_val@2
  0000a	8b 4d 10	 mov	 ecx, DWORD PTR __Src$[ebp]
  0000d	8b 09		 mov	 ecx, DWORD PTR [ecx]
  0000f	89 08		 mov	 DWORD PTR [eax], ecx
$LN7@Cons_val@2:

; 281  : 	}

  00011	5d		 pop	 ebp
  00012	c3		 ret	 0
??$_Cons_val@V?$allocator@H@std@@HAAH@std@@YAXAAV?$allocator@H@0@PAHAAH@Z ENDP ; std::_Cons_val<std::allocator<int>,int,int &>
_TEXT	ENDS
PUBLIC	??$_Cons_val@V?$allocator@H@std@@HABH@std@@YAXAAV?$allocator@H@0@PAHABH@Z ; std::_Cons_val<std::allocator<int>,int,int const &>
; Function compile flags: /Ogsp
;	COMDAT ??$_Cons_val@V?$allocator@H@std@@HABH@std@@YAXAAV?$allocator@H@0@PAHABH@Z
_TEXT	SEGMENT
__Alval$ = 8						; size = 4
__Pdest$ = 12						; size = 4
__Src$ = 16						; size = 4
??$_Cons_val@V?$allocator@H@std@@HABH@std@@YAXAAV?$allocator@H@0@PAHABH@Z PROC ; std::_Cons_val<std::allocator<int>,int,int const &>, COMDAT

; 279  : 	{	// construct using allocator

  00000	55		 push	 ebp
  00001	8b ec		 mov	 ebp, esp

; 280  : 	_Alval.construct(_Pdest, _STD forward<_Ty2>(_Src));

  00003	8b 45 0c	 mov	 eax, DWORD PTR __Pdest$[ebp]
  00006	85 c0		 test	 eax, eax
  00008	74 07		 je	 SHORT $LN9@Cons_val@3
  0000a	8b 4d 10	 mov	 ecx, DWORD PTR __Src$[ebp]
  0000d	8b 09		 mov	 ecx, DWORD PTR [ecx]
  0000f	89 08		 mov	 DWORD PTR [eax], ecx
$LN9@Cons_val@3:

; 281  : 	}

  00011	5d		 pop	 ebp
  00012	c3		 ret	 0
??$_Cons_val@V?$allocator@H@std@@HABH@std@@YAXAAV?$allocator@H@0@PAHABH@Z ENDP ; std::_Cons_val<std::allocator<int>,int,int const &>
_TEXT	ENDS
PUBLIC	??G?$_Vector_iterator@V?$_Vector_val@HV?$allocator@H@std@@@std@@@std@@QBEHABV?$_Vector_const_iterator@V?$_Vector_val@HV?$allocator@H@std@@@std@@@1@@Z ; std::_Vector_iterator<std::_Vector_val<int,std::allocator<int> > >::operator-
; Function compile flags: /Ogsp
; File c:\program files (x86)\microsoft visual studio 10.0\vc\include\vector
;	COMDAT ??G?$_Vector_iterator@V?$_Vector_val@HV?$allocator@H@std@@@std@@@std@@QBEHABV?$_Vector_const_iterator@V?$_Vector_val@HV?$allocator@H@std@@@std@@@1@@Z
_TEXT	SEGMENT
__Right$ = 8						; size = 4
??G?$_Vector_iterator@V?$_Vector_val@HV?$allocator@H@std@@@std@@@std@@QBEHABV?$_Vector_const_iterator@V?$_Vector_val@HV?$allocator@H@std@@@std@@@1@@Z PROC ; std::_Vector_iterator<std::_Vector_val<int,std::allocator<int> > >::operator-, COMDAT
; _this$ = ecx

; 380  : 		{	// return difference of iterators

  00000	55		 push	 ebp
  00001	8b ec		 mov	 ebp, esp

; 381  : 		return (*(_Mybase *)this - _Right);

  00003	8b 01		 mov	 eax, DWORD PTR [ecx]
  00005	8b 4d 08	 mov	 ecx, DWORD PTR __Right$[ebp]
  00008	2b 01		 sub	 eax, DWORD PTR [ecx]
  0000a	c1 f8 02	 sar	 eax, 2

; 382  : 		}

  0000d	5d		 pop	 ebp
  0000e	c2 04 00	 ret	 4
??G?$_Vector_iterator@V?$_Vector_val@HV?$allocator@H@std@@@std@@@std@@QBEHABV?$_Vector_const_iterator@V?$_Vector_val@HV?$allocator@H@std@@@std@@@1@@Z ENDP ; std::_Vector_iterator<std::_Vector_val<int,std::allocator<int> > >::operator-
_TEXT	ENDS
PUBLIC	??$iter_swap@PAHPAH@std@@YAXPAH0@Z		; std::iter_swap<int *,int *>
; Function compile flags: /Ogsp
; File c:\program files (x86)\microsoft visual studio 10.0\vc\include\xutility
;	COMDAT ??$iter_swap@PAHPAH@std@@YAXPAH0@Z
_TEXT	SEGMENT
__Left$ = 8						; size = 4
__Right$ = 12						; size = 4
??$iter_swap@PAHPAH@std@@YAXPAH0@Z PROC			; std::iter_swap<int *,int *>, COMDAT

; 2133 : 	{	// swap *_Left and *_Right

  00000	55		 push	 ebp
  00001	8b ec		 mov	 ebp, esp

; 2134 : 	swap(*_Left, *_Right);

  00003	8b 55 0c	 mov	 edx, DWORD PTR __Right$[ebp]
  00006	8b 45 08	 mov	 eax, DWORD PTR __Left$[ebp]
  00009	8b 08		 mov	 ecx, DWORD PTR [eax]
  0000b	56		 push	 esi
  0000c	8b 32		 mov	 esi, DWORD PTR [edx]
  0000e	89 30		 mov	 DWORD PTR [eax], esi
  00010	89 0a		 mov	 DWORD PTR [edx], ecx
  00012	5e		 pop	 esi

; 2135 : 	}

  00013	5d		 pop	 ebp
  00014	c3		 ret	 0
??$iter_swap@PAHPAH@std@@YAXPAH0@Z ENDP			; std::iter_swap<int *,int *>
_TEXT	ENDS
PUBLIC	??$_Insertion_sort1@PAHVDistLevelSort@ExcavationSearchingWnd@@H@std@@YAXPAH0VDistLevelSort@ExcavationSearchingWnd@@0@Z ; std::_Insertion_sort1<int *,ExcavationSearchingWnd::DistLevelSort,int>
; Function compile flags: /Ogsp
; File c:\program files (x86)\microsoft visual studio 10.0\vc\include\algorithm
;	COMDAT ??$_Insertion_sort1@PAHVDistLevelSort@ExcavationSearchingWnd@@H@std@@YAXPAH0VDistLevelSort@ExcavationSearchingWnd@@0@Z
_TEXT	SEGMENT
__First$ = 8						; size = 4
__Cat$547967 = 12					; size = 1
__Last$ = 12						; size = 4
__Pred$ = 16						; size = 1
___formal$ = 20						; size = 4
??$_Insertion_sort1@PAHVDistLevelSort@ExcavationSearchingWnd@@H@std@@YAXPAH0VDistLevelSort@ExcavationSearchingWnd@@0@Z PROC ; std::_Insertion_sort1<int *,ExcavationSearchingWnd::DistLevelSort,int>, COMDAT

; 3650 : 	{	// insertion sort [_First, _Last), using _Pred

  00000	55		 push	 ebp
  00001	8b ec		 mov	 ebp, esp
  00003	53		 push	 ebx

; 3651 : 	if (_First != _Last)

  00004	8b 5d 08	 mov	 ebx, DWORD PTR __First$[ebp]
  00007	3b 5d 0c	 cmp	 ebx, DWORD PTR __Last$[ebp]
  0000a	74 44		 je	 SHORT $LN6@Insertion_

; 3652 : 		for (_BidIt _Next = _First; ++_Next != _Last; )

  0000c	56		 push	 esi
  0000d	8d 73 04	 lea	 esi, DWORD PTR [ebx+4]
  00010	3b 75 0c	 cmp	 esi, DWORD PTR __Last$[ebp]
  00013	74 3a		 je	 SHORT $LN33@Insertion_
  00015	57		 push	 edi
$LL7@Insertion_:

; 3653 : 			{	// order next element
; 3654 : 			_BidIt _Next1 = _Next;
; 3655 : 			_Ty _Val = _Move(*_Next);

  00016	8b 3e		 mov	 edi, DWORD PTR [esi]
  00018	8b d6		 mov	 edx, esi

; 3656 : 
; 3657 : 			if (_DEBUG_LT_PRED(_Pred, _Val, *_First))

  0001a	3b 3b		 cmp	 edi, DWORD PTR [ebx]
  0001c	7e 15		 jle	 SHORT $LN5@Insertion_

; 3658 : 				{	// found new earliest element, move to front
; 3659 : 				_Move_backward(_First, _Next, ++_Next1);

  0001e	ff 75 0c	 push	 DWORD PTR __Cat$547967[ebp]
  00021	8d 46 04	 lea	 eax, DWORD PTR [esi+4]
  00024	50		 push	 eax
  00025	56		 push	 esi
  00026	53		 push	 ebx
  00027	e8 00 00 00 00	 call	 ??$_Move_backward@PAHPAH@std@@YAPAHPAH00U_Scalar_ptr_iterator_tag@0@@Z ; std::_Move_backward<int *,int *>
  0002c	83 c4 10	 add	 esp, 16			; 00000010H

; 3660 : 				*_First = _Move(_Val);

  0002f	89 3b		 mov	 DWORD PTR [ebx], edi

; 3661 : 				}
; 3662 : 			else

  00031	eb 13		 jmp	 SHORT $LN4@Insertion_
$LN5@Insertion_:

; 3663 : 				{	// look for insertion point after first
; 3664 : 				for (_BidIt _First1 = _Next1;

  00033	8b ce		 mov	 ecx, esi
$LL3@Insertion_:

; 3665 : 					_DEBUG_LT_PRED(_Pred, _Val, *--_First1);
; 3666 : 					_Next1 = _First1)

  00035	83 e9 04	 sub	 ecx, 4
  00038	8b 01		 mov	 eax, DWORD PTR [ecx]
  0003a	3b f8		 cmp	 edi, eax
  0003c	7e 06		 jle	 SHORT $LN22@Insertion_

; 3667 : 					*_Next1 = _Move(*_First1);	// move hole down

  0003e	89 02		 mov	 DWORD PTR [edx], eax
  00040	8b d1		 mov	 edx, ecx
  00042	eb f1		 jmp	 SHORT $LL3@Insertion_

; 3665 : 					_DEBUG_LT_PRED(_Pred, _Val, *--_First1);
; 3666 : 					_Next1 = _First1)

$LN22@Insertion_:

; 3668 : 				*_Next1 = _Move(_Val);	// insert element in hole

  00044	89 3a		 mov	 DWORD PTR [edx], edi
$LN4@Insertion_:

; 3652 : 		for (_BidIt _Next = _First; ++_Next != _Last; )

  00046	83 c6 04	 add	 esi, 4
  00049	3b 75 0c	 cmp	 esi, DWORD PTR __Last$[ebp]
  0004c	75 c8		 jne	 SHORT $LL7@Insertion_
  0004e	5f		 pop	 edi
$LN33@Insertion_:
  0004f	5e		 pop	 esi
$LN6@Insertion_:
  00050	5b		 pop	 ebx

; 3669 : 				}
; 3670 : 			}
; 3671 : 	}

  00051	5d		 pop	 ebp
  00052	c3		 ret	 0
??$_Insertion_sort1@PAHVDistLevelSort@ExcavationSearchingWnd@@H@std@@YAXPAH0VDistLevelSort@ExcavationSearchingWnd@@0@Z ENDP ; std::_Insertion_sort1<int *,ExcavationSearchingWnd::DistLevelSort,int>
_TEXT	ENDS
PUBLIC	??$_Insertion_sort1@PAHH@std@@YAXPAH00@Z	; std::_Insertion_sort1<int *,int>
; Function compile flags: /Ogsp
;	COMDAT ??$_Insertion_sort1@PAHH@std@@YAXPAH00@Z
_TEXT	SEGMENT
__First$ = 8						; size = 4
__Cat$548004 = 12					; size = 1
__Last$ = 12						; size = 4
___formal$ = 16						; size = 4
??$_Insertion_sort1@PAHH@std@@YAXPAH00@Z PROC		; std::_Insertion_sort1<int *,int>, COMDAT

; 3493 : 	{	// insertion sort [_First, _Last), using operator<

  00000	55		 push	 ebp
  00001	8b ec		 mov	 ebp, esp
  00003	53		 push	 ebx

; 3494 : 	if (_First != _Last)

  00004	8b 5d 08	 mov	 ebx, DWORD PTR __First$[ebp]
  00007	3b 5d 0c	 cmp	 ebx, DWORD PTR __Last$[ebp]
  0000a	74 45		 je	 SHORT $LN6@Insertion_@2

; 3495 : 		for (_BidIt _Next = _First; ++_Next != _Last; )

  0000c	56		 push	 esi
  0000d	8d 73 04	 lea	 esi, DWORD PTR [ebx+4]
  00010	3b 75 0c	 cmp	 esi, DWORD PTR __Last$[ebp]
  00013	74 3b		 je	 SHORT $LN26@Insertion_@2
  00015	57		 push	 edi
$LL7@Insertion_@2:

; 3496 : 			{	// order next element
; 3497 : 			_BidIt _Next1 = _Next;
; 3498 : 			_Ty _Val = _Move(*_Next);

  00016	8b 3e		 mov	 edi, DWORD PTR [esi]
  00018	8b d6		 mov	 edx, esi

; 3499 : 
; 3500 : 			if (_DEBUG_LT(_Val, *_First))

  0001a	3b 3b		 cmp	 edi, DWORD PTR [ebx]
  0001c	7d 15		 jge	 SHORT $LN5@Insertion_@2

; 3501 : 				{	// found new earliest element, move to front
; 3502 : 				_Move_backward(_First, _Next, ++_Next1);

  0001e	ff 75 0c	 push	 DWORD PTR __Cat$548004[ebp]
  00021	8d 46 04	 lea	 eax, DWORD PTR [esi+4]
  00024	50		 push	 eax
  00025	56		 push	 esi
  00026	53		 push	 ebx
  00027	e8 00 00 00 00	 call	 ??$_Move_backward@PAHPAH@std@@YAPAHPAH00U_Scalar_ptr_iterator_tag@0@@Z ; std::_Move_backward<int *,int *>
  0002c	83 c4 10	 add	 esp, 16			; 00000010H

; 3503 : 				*_First = _Move(_Val);

  0002f	89 3b		 mov	 DWORD PTR [ebx], edi

; 3504 : 				}
; 3505 : 			else

  00031	eb 14		 jmp	 SHORT $LN4@Insertion_@2
$LN5@Insertion_@2:

; 3495 : 		for (_BidIt _Next = _First; ++_Next != _Last; )

  00033	8d 46 fc	 lea	 eax, DWORD PTR [esi-4]

; 3506 : 				{	// look for insertion point after first
; 3507 : 				for (_BidIt _First1 = _Next1;
; 3508 : 					_DEBUG_LT(_Val, *--_First1);
; 3509 : 					_Next1 = _First1)

  00036	eb 07		 jmp	 SHORT $LN29@Insertion_@2
$LL3@Insertion_@2:

; 3510 : 					*_Next1 = _Move(*_First1);	// move hole down

  00038	89 0a		 mov	 DWORD PTR [edx], ecx
  0003a	8b d0		 mov	 edx, eax
  0003c	83 e8 04	 sub	 eax, 4
$LN29@Insertion_@2:

; 3506 : 				{	// look for insertion point after first
; 3507 : 				for (_BidIt _First1 = _Next1;
; 3508 : 					_DEBUG_LT(_Val, *--_First1);
; 3509 : 					_Next1 = _First1)

  0003f	8b 08		 mov	 ecx, DWORD PTR [eax]
  00041	3b f9		 cmp	 edi, ecx
  00043	7c f3		 jl	 SHORT $LL3@Insertion_@2

; 3511 : 				*_Next1 = _Move(_Val);	// insert element in hole

  00045	89 3a		 mov	 DWORD PTR [edx], edi
$LN4@Insertion_@2:

; 3495 : 		for (_BidIt _Next = _First; ++_Next != _Last; )

  00047	83 c6 04	 add	 esi, 4
  0004a	3b 75 0c	 cmp	 esi, DWORD PTR __Last$[ebp]
  0004d	75 c7		 jne	 SHORT $LL7@Insertion_@2
  0004f	5f		 pop	 edi
$LN26@Insertion_@2:
  00050	5e		 pop	 esi
$LN6@Insertion_@2:
  00051	5b		 pop	 ebx

; 3512 : 				}
; 3513 : 			}
; 3514 : 	}

  00052	5d		 pop	 ebp
  00053	c3		 ret	 0
??$_Insertion_sort1@PAHH@std@@YAXPAH00@Z ENDP		; std::_Insertion_sort1<int *,int>
_TEXT	ENDS
PUBLIC	??$_Med3@PAHVDistLevelSort@ExcavationSearchingWnd@@@std@@YAXPAH00VDistLevelSort@ExcavationSearchingWnd@@@Z ; std::_Med3<int *,ExcavationSearchingWnd::DistLevelSort>
; Function compile flags: /Ogsp
;	COMDAT ??$_Med3@PAHVDistLevelSort@ExcavationSearchingWnd@@@std@@YAXPAH00VDistLevelSort@ExcavationSearchingWnd@@@Z
_TEXT	SEGMENT
__First$ = 8						; size = 4
__Mid$ = 12						; size = 4
__Last$ = 16						; size = 4
__Pred$ = 20						; size = 1
??$_Med3@PAHVDistLevelSort@ExcavationSearchingWnd@@@std@@YAXPAH00VDistLevelSort@ExcavationSearchingWnd@@@Z PROC ; std::_Med3<int *,ExcavationSearchingWnd::DistLevelSort>, COMDAT

; 3683 : 	{	// sort median of three elements to middle

  00000	55		 push	 ebp
  00001	8b ec		 mov	 ebp, esp

; 3684 : 	if (_DEBUG_LT_PRED(_Pred, *_Mid, *_First))

  00003	8b 45 0c	 mov	 eax, DWORD PTR __Mid$[ebp]
  00006	8b 4d 08	 mov	 ecx, DWORD PTR __First$[ebp]
  00009	8b 10		 mov	 edx, DWORD PTR [eax]
  0000b	56		 push	 esi
  0000c	8b 31		 mov	 esi, DWORD PTR [ecx]
  0000e	3b d6		 cmp	 edx, esi
  00010	7e 04		 jle	 SHORT $LN11@Med3

; 3685 : 		_STD iter_swap(_Mid, _First);

  00012	89 30		 mov	 DWORD PTR [eax], esi
  00014	89 11		 mov	 DWORD PTR [ecx], edx
$LN11@Med3:

; 3686 : 	if (_DEBUG_LT_PRED(_Pred, *_Last, *_Mid))

  00016	8b 30		 mov	 esi, DWORD PTR [eax]
  00018	57		 push	 edi
  00019	8b 7d 10	 mov	 edi, DWORD PTR __Last$[ebp]
  0001c	8b 17		 mov	 edx, DWORD PTR [edi]
  0001e	3b d6		 cmp	 edx, esi
  00020	7e 04		 jle	 SHORT $LN24@Med3

; 3687 : 		_STD iter_swap(_Last, _Mid);

  00022	89 37		 mov	 DWORD PTR [edi], esi
  00024	89 10		 mov	 DWORD PTR [eax], edx
$LN24@Med3:

; 3688 : 	if (_DEBUG_LT_PRED(_Pred, *_Mid, *_First))

  00026	8b 10		 mov	 edx, DWORD PTR [eax]
  00028	8b 31		 mov	 esi, DWORD PTR [ecx]
  0002a	5f		 pop	 edi
  0002b	3b d6		 cmp	 edx, esi
  0002d	7e 04		 jle	 SHORT $LN37@Med3

; 3689 : 		_STD iter_swap(_Mid, _First);

  0002f	89 30		 mov	 DWORD PTR [eax], esi
  00031	89 11		 mov	 DWORD PTR [ecx], edx
$LN37@Med3:
  00033	5e		 pop	 esi

; 3690 : 	}

  00034	5d		 pop	 ebp
  00035	c3		 ret	 0
??$_Med3@PAHVDistLevelSort@ExcavationSearchingWnd@@@std@@YAXPAH00VDistLevelSort@ExcavationSearchingWnd@@@Z ENDP ; std::_Med3<int *,ExcavationSearchingWnd::DistLevelSort>
_TEXT	ENDS
PUBLIC	??$_Adjust_heap@PAHHHVDistLevelSort@ExcavationSearchingWnd@@@std@@YAXPAHHH$$QAHVDistLevelSort@ExcavationSearchingWnd@@@Z ; std::_Adjust_heap<int *,int,int,ExcavationSearchingWnd::DistLevelSort>
; Function compile flags: /Ogsp
;	COMDAT ??$_Adjust_heap@PAHHHVDistLevelSort@ExcavationSearchingWnd@@@std@@YAXPAHHH$$QAHVDistLevelSort@ExcavationSearchingWnd@@@Z
_TEXT	SEGMENT
__First$ = 8						; size = 4
__Hole$ = 12						; size = 4
__Bottom$ = 16						; size = 4
__Val$ = 20						; size = 4
__Pred$ = 24						; size = 1
??$_Adjust_heap@PAHHHVDistLevelSort@ExcavationSearchingWnd@@@std@@YAXPAHHH$$QAHVDistLevelSort@ExcavationSearchingWnd@@@Z PROC ; std::_Adjust_heap<int *,int,int,ExcavationSearchingWnd::DistLevelSort>, COMDAT

; 2565 : 	{	// percolate _Hole to _Bottom, then push _Val, using _Pred

  00000	55		 push	 ebp
  00001	8b ec		 mov	 ebp, esp

; 2566 : 	_Diff _Top = _Hole;

  00003	8b 55 0c	 mov	 edx, DWORD PTR __Hole$[ebp]

; 2567 : 	_Diff _Idx = 2 * _Hole + 2;
; 2568 : 
; 2569 : 	for (; _Idx < _Bottom; _Idx = 2 * _Idx + 2)

  00006	8b 4d 08	 mov	 ecx, DWORD PTR __First$[ebp]
  00009	56		 push	 esi
  0000a	8b 75 10	 mov	 esi, DWORD PTR __Bottom$[ebp]
  0000d	8d 44 12 02	 lea	 eax, DWORD PTR [edx+edx+2]
  00011	57		 push	 edi
  00012	8b fa		 mov	 edi, edx
  00014	3b c6		 cmp	 eax, esi
  00016	7d 1c		 jge	 SHORT $LN20@Adjust_hea
  00018	53		 push	 ebx
$LL5@Adjust_hea:

; 2570 : 		{	// move _Hole down to larger child
; 2571 : 		if (_DEBUG_LT_PRED(_Pred, *(_First + _Idx), *(_First + (_Idx - 1))))

  00019	8b 1c 81	 mov	 ebx, DWORD PTR [ecx+eax*4]
  0001c	3b 5c 81 fc	 cmp	 ebx, DWORD PTR [ecx+eax*4-4]
  00020	7e 01		 jle	 SHORT $LN2@Adjust_hea

; 2572 : 			--_Idx;

  00022	48		 dec	 eax
$LN2@Adjust_hea:

; 2573 : 		*(_First + _Hole) = _Move(*(_First + _Idx));

  00023	8b 1c 81	 mov	 ebx, DWORD PTR [ecx+eax*4]
  00026	89 1c 91	 mov	 DWORD PTR [ecx+edx*4], ebx

; 2574 : 		_Hole = _Idx;

  00029	8b d0		 mov	 edx, eax
  0002b	8d 44 00 02	 lea	 eax, DWORD PTR [eax+eax+2]
  0002f	3b c6		 cmp	 eax, esi
  00031	7c e6		 jl	 SHORT $LL5@Adjust_hea
  00033	5b		 pop	 ebx
$LN20@Adjust_hea:

; 2575 : 		}
; 2576 : 
; 2577 : 	if (_Idx == _Bottom)

  00034	75 0a		 jne	 SHORT $LN1@Adjust_hea

; 2578 : 		{	// only child at bottom, move _Hole down to it
; 2579 : 		*(_First + _Hole) = _Move(*(_First + (_Bottom - 1)));

  00036	8b 44 b1 fc	 mov	 eax, DWORD PTR [ecx+esi*4-4]
  0003a	89 04 91	 mov	 DWORD PTR [ecx+edx*4], eax

; 2580 : 		_Hole = _Bottom - 1;

  0003d	8d 56 ff	 lea	 edx, DWORD PTR [esi-1]
$LN1@Adjust_hea:

; 2581 : 		}
; 2582 : 	_Push_heap(_First, _Hole, _Top, _Move(_Val), _Pred);

  00040	ff 75 18	 push	 DWORD PTR __Pred$[ebp]
  00043	ff 75 14	 push	 DWORD PTR __Val$[ebp]
  00046	57		 push	 edi
  00047	52		 push	 edx
  00048	51		 push	 ecx
  00049	e8 00 00 00 00	 call	 ??$_Push_heap@PAHHHVDistLevelSort@ExcavationSearchingWnd@@@std@@YAXPAHHH$$QAHVDistLevelSort@ExcavationSearchingWnd@@@Z ; std::_Push_heap<int *,int,int,ExcavationSearchingWnd::DistLevelSort>
  0004e	83 c4 14	 add	 esp, 20			; 00000014H
  00051	5f		 pop	 edi
  00052	5e		 pop	 esi

; 2583 : 	}

  00053	5d		 pop	 ebp
  00054	c3		 ret	 0
??$_Adjust_heap@PAHHHVDistLevelSort@ExcavationSearchingWnd@@@std@@YAXPAHHH$$QAHVDistLevelSort@ExcavationSearchingWnd@@@Z ENDP ; std::_Adjust_heap<int *,int,int,ExcavationSearchingWnd::DistLevelSort>
_TEXT	ENDS
PUBLIC	??$_Med3@PAH@std@@YAXPAH00@Z			; std::_Med3<int *>
; Function compile flags: /Ogsp
;	COMDAT ??$_Med3@PAH@std@@YAXPAH00@Z
_TEXT	SEGMENT
__First$ = 8						; size = 4
__Mid$ = 12						; size = 4
__Last$ = 16						; size = 4
??$_Med3@PAH@std@@YAXPAH00@Z PROC			; std::_Med3<int *>, COMDAT

; 3524 : 	{	// sort median of three elements to middle

  00000	55		 push	 ebp
  00001	8b ec		 mov	 ebp, esp

; 3525 : 	if (_DEBUG_LT(*_Mid, *_First))

  00003	8b 45 0c	 mov	 eax, DWORD PTR __Mid$[ebp]
  00006	8b 4d 08	 mov	 ecx, DWORD PTR __First$[ebp]
  00009	8b 10		 mov	 edx, DWORD PTR [eax]
  0000b	56		 push	 esi
  0000c	8b 31		 mov	 esi, DWORD PTR [ecx]
  0000e	3b d6		 cmp	 edx, esi
  00010	7d 04		 jge	 SHORT $LN8@Med3@2

; 3526 : 		_STD iter_swap(_Mid, _First);

  00012	89 30		 mov	 DWORD PTR [eax], esi
  00014	89 11		 mov	 DWORD PTR [ecx], edx
$LN8@Med3@2:

; 3527 : 	if (_DEBUG_LT(*_Last, *_Mid))

  00016	8b 30		 mov	 esi, DWORD PTR [eax]
  00018	57		 push	 edi
  00019	8b 7d 10	 mov	 edi, DWORD PTR __Last$[ebp]
  0001c	8b 17		 mov	 edx, DWORD PTR [edi]
  0001e	3b d6		 cmp	 edx, esi
  00020	7d 04		 jge	 SHORT $LN18@Med3@2

; 3528 : 		_STD iter_swap(_Last, _Mid);

  00022	89 37		 mov	 DWORD PTR [edi], esi
  00024	89 10		 mov	 DWORD PTR [eax], edx
$LN18@Med3@2:

; 3529 : 	if (_DEBUG_LT(*_Mid, *_First))

  00026	8b 10		 mov	 edx, DWORD PTR [eax]
  00028	8b 31		 mov	 esi, DWORD PTR [ecx]
  0002a	5f		 pop	 edi
  0002b	3b d6		 cmp	 edx, esi
  0002d	7d 04		 jge	 SHORT $LN28@Med3@2

; 3530 : 		_STD iter_swap(_Mid, _First);

  0002f	89 30		 mov	 DWORD PTR [eax], esi
  00031	89 11		 mov	 DWORD PTR [ecx], edx
$LN28@Med3@2:
  00033	5e		 pop	 esi

; 3531 : 	}

  00034	5d		 pop	 ebp
  00035	c3		 ret	 0
??$_Med3@PAH@std@@YAXPAH00@Z ENDP			; std::_Med3<int *>
_TEXT	ENDS
PUBLIC	??$_Adjust_heap@PAHHH@std@@YAXPAHHH$$QAH@Z	; std::_Adjust_heap<int *,int,int>
; Function compile flags: /Ogsp
;	COMDAT ??$_Adjust_heap@PAHHH@std@@YAXPAHHH$$QAH@Z
_TEXT	SEGMENT
__First$ = 8						; size = 4
__Hole$ = 12						; size = 4
__Bottom$ = 16						; size = 4
__Val$ = 20						; size = 4
??$_Adjust_heap@PAHHH@std@@YAXPAHHH$$QAH@Z PROC		; std::_Adjust_heap<int *,int,int>, COMDAT

; 2502 : 	{	// percolate _Hole to _Bottom, then push _Val, using operator<

  00000	55		 push	 ebp
  00001	8b ec		 mov	 ebp, esp

; 2503 : 	_Diff _Top = _Hole;

  00003	8b 55 0c	 mov	 edx, DWORD PTR __Hole$[ebp]

; 2504 : 	_Diff _Idx = 2 * _Hole + 2;
; 2505 : 
; 2506 : 	for (; _Idx < _Bottom; _Idx = 2 * _Idx + 2)

  00006	8b 4d 08	 mov	 ecx, DWORD PTR __First$[ebp]
  00009	56		 push	 esi
  0000a	8b 75 10	 mov	 esi, DWORD PTR __Bottom$[ebp]
  0000d	8d 44 12 02	 lea	 eax, DWORD PTR [edx+edx+2]
  00011	57		 push	 edi
  00012	8b fa		 mov	 edi, edx
  00014	3b c6		 cmp	 eax, esi
  00016	7d 1c		 jge	 SHORT $LN16@Adjust_hea@2
  00018	53		 push	 ebx
$LL5@Adjust_hea@2:

; 2507 : 		{	// move _Hole down to larger child
; 2508 : 		if (_DEBUG_LT(*(_First + _Idx), *(_First + (_Idx - 1))))

  00019	8b 1c 81	 mov	 ebx, DWORD PTR [ecx+eax*4]
  0001c	3b 5c 81 fc	 cmp	 ebx, DWORD PTR [ecx+eax*4-4]
  00020	7d 01		 jge	 SHORT $LN2@Adjust_hea@2

; 2509 : 			--_Idx;

  00022	48		 dec	 eax
$LN2@Adjust_hea@2:

; 2510 : 		*(_First + _Hole) = _Move(*(_First + _Idx));

  00023	8b 1c 81	 mov	 ebx, DWORD PTR [ecx+eax*4]
  00026	89 1c 91	 mov	 DWORD PTR [ecx+edx*4], ebx

; 2511 : 		_Hole = _Idx;

  00029	8b d0		 mov	 edx, eax
  0002b	8d 44 00 02	 lea	 eax, DWORD PTR [eax+eax+2]
  0002f	3b c6		 cmp	 eax, esi
  00031	7c e6		 jl	 SHORT $LL5@Adjust_hea@2
  00033	5b		 pop	 ebx
$LN16@Adjust_hea@2:

; 2512 : 		}
; 2513 : 
; 2514 : 	if (_Idx == _Bottom)

  00034	75 0a		 jne	 SHORT $LN1@Adjust_hea@2

; 2515 : 		{	// only child at bottom, move _Hole down to it
; 2516 : 		*(_First + _Hole) = _Move(*(_First + (_Bottom - 1)));

  00036	8b 44 b1 fc	 mov	 eax, DWORD PTR [ecx+esi*4-4]
  0003a	89 04 91	 mov	 DWORD PTR [ecx+edx*4], eax

; 2517 : 		_Hole = _Bottom - 1;

  0003d	8d 56 ff	 lea	 edx, DWORD PTR [esi-1]
$LN1@Adjust_hea@2:

; 2518 : 		}
; 2519 : 	_Push_heap(_First, _Hole, _Top, _Move(_Val));

  00040	ff 75 14	 push	 DWORD PTR __Val$[ebp]
  00043	57		 push	 edi
  00044	52		 push	 edx
  00045	51		 push	 ecx
  00046	e8 00 00 00 00	 call	 ??$_Push_heap@PAHHH@std@@YAXPAHHH$$QAH@Z ; std::_Push_heap<int *,int,int>
  0004b	83 c4 10	 add	 esp, 16			; 00000010H
  0004e	5f		 pop	 edi
  0004f	5e		 pop	 esi

; 2520 : 	}

  00050	5d		 pop	 ebp
  00051	c3		 ret	 0
??$_Adjust_heap@PAHHH@std@@YAXPAHHH$$QAH@Z ENDP		; std::_Adjust_heap<int *,int,int>
_TEXT	ENDS
PUBLIC	??$_Pop_heap@PAHHHVDistLevelSort@ExcavationSearchingWnd@@@std@@YAXPAH00$$QAHVDistLevelSort@ExcavationSearchingWnd@@0@Z ; std::_Pop_heap<int *,int,int,ExcavationSearchingWnd::DistLevelSort>
; Function compile flags: /Ogsp
;	COMDAT ??$_Pop_heap@PAHHHVDistLevelSort@ExcavationSearchingWnd@@@std@@YAXPAH00$$QAHVDistLevelSort@ExcavationSearchingWnd@@0@Z
_TEXT	SEGMENT
__First$ = 8						; size = 4
__Last$ = 12						; size = 4
__Dest$ = 16						; size = 4
__Val$ = 20						; size = 4
__Pred$ = 24						; size = 1
___formal$ = 28						; size = 4
??$_Pop_heap@PAHHHVDistLevelSort@ExcavationSearchingWnd@@@std@@YAXPAH00$$QAHVDistLevelSort@ExcavationSearchingWnd@@0@Z PROC ; std::_Pop_heap<int *,int,int,ExcavationSearchingWnd::DistLevelSort>, COMDAT

; 2591 : 	{	// pop *_First to *_Dest and reheap, using _Pred

  00000	55		 push	 ebp
  00001	8b ec		 mov	 ebp, esp

; 2592 : 	*_Dest = _Move(*_First);

  00003	8b 45 08	 mov	 eax, DWORD PTR __First$[ebp]
  00006	8b 08		 mov	 ecx, DWORD PTR [eax]
  00008	8b 55 10	 mov	 edx, DWORD PTR __Dest$[ebp]

; 2593 : 	_Adjust_heap(_First, _Diff(0), _Diff(_Last - _First),
; 2594 : 		_Move(_Val), _Pred);

  0000b	ff 75 18	 push	 DWORD PTR __Pred$[ebp]
  0000e	89 0a		 mov	 DWORD PTR [edx], ecx
  00010	8b 4d 0c	 mov	 ecx, DWORD PTR __Last$[ebp]
  00013	ff 75 14	 push	 DWORD PTR __Val$[ebp]
  00016	2b c8		 sub	 ecx, eax
  00018	c1 f9 02	 sar	 ecx, 2
  0001b	51		 push	 ecx
  0001c	6a 00		 push	 0
  0001e	50		 push	 eax
  0001f	e8 00 00 00 00	 call	 ??$_Adjust_heap@PAHHHVDistLevelSort@ExcavationSearchingWnd@@@std@@YAXPAHHH$$QAHVDistLevelSort@ExcavationSearchingWnd@@@Z ; std::_Adjust_heap<int *,int,int,ExcavationSearchingWnd::DistLevelSort>
  00024	83 c4 14	 add	 esp, 20			; 00000014H

; 2595 : 	}

  00027	5d		 pop	 ebp
  00028	c3		 ret	 0
??$_Pop_heap@PAHHHVDistLevelSort@ExcavationSearchingWnd@@@std@@YAXPAH00$$QAHVDistLevelSort@ExcavationSearchingWnd@@0@Z ENDP ; std::_Pop_heap<int *,int,int,ExcavationSearchingWnd::DistLevelSort>
_TEXT	ENDS
PUBLIC	??$_Pop_heap@PAHHH@std@@YAXPAH00$$QAH0@Z	; std::_Pop_heap<int *,int,int>
; Function compile flags: /Ogsp
;	COMDAT ??$_Pop_heap@PAHHH@std@@YAXPAH00$$QAH0@Z
_TEXT	SEGMENT
__First$ = 8						; size = 4
__Last$ = 12						; size = 4
__Dest$ = 16						; size = 4
__Val$ = 20						; size = 4
___formal$ = 24						; size = 4
??$_Pop_heap@PAHHH@std@@YAXPAH00$$QAH0@Z PROC		; std::_Pop_heap<int *,int,int>, COMDAT

; 2527 : 	{	// pop *_First to *_Dest and reheap, using operator<

  00000	55		 push	 ebp
  00001	8b ec		 mov	 ebp, esp

; 2528 : 	*_Dest = _Move(*_First);

  00003	8b 45 08	 mov	 eax, DWORD PTR __First$[ebp]
  00006	8b 08		 mov	 ecx, DWORD PTR [eax]
  00008	8b 55 10	 mov	 edx, DWORD PTR __Dest$[ebp]

; 2529 : 	_Adjust_heap(_First, _Diff(0), _Diff(_Last - _First),
; 2530 : 		_Move(_Val));

  0000b	ff 75 14	 push	 DWORD PTR __Val$[ebp]
  0000e	89 0a		 mov	 DWORD PTR [edx], ecx
  00010	8b 4d 0c	 mov	 ecx, DWORD PTR __Last$[ebp]
  00013	2b c8		 sub	 ecx, eax
  00015	c1 f9 02	 sar	 ecx, 2
  00018	51		 push	 ecx
  00019	6a 00		 push	 0
  0001b	50		 push	 eax
  0001c	e8 00 00 00 00	 call	 ??$_Adjust_heap@PAHHH@std@@YAXPAHHH$$QAH@Z ; std::_Adjust_heap<int *,int,int>
  00021	83 c4 10	 add	 esp, 16			; 00000010H

; 2531 : 	}

  00024	5d		 pop	 ebp
  00025	c3		 ret	 0
??$_Pop_heap@PAHHH@std@@YAXPAH00$$QAH0@Z ENDP		; std::_Pop_heap<int *,int,int>
_TEXT	ENDS
PUBLIC	??0?$vector@HV?$allocator@H@std@@@std@@QAE@XZ	; std::vector<int,std::allocator<int> >::vector<int,std::allocator<int> >
; Function compile flags: /Ogsp
; File c:\program files (x86)\microsoft visual studio 10.0\vc\include\vector
;	COMDAT ??0?$vector@HV?$allocator@H@std@@@std@@QAE@XZ
_TEXT	SEGMENT
??0?$vector@HV?$allocator@H@std@@@std@@QAE@XZ PROC	; std::vector<int,std::allocator<int> >::vector<int,std::allocator<int> >, COMDAT
; _this$ = ecx

; 507  : 		{	// construct empty vector

  00000	8b c1		 mov	 eax, ecx
  00002	33 c9		 xor	 ecx, ecx
  00004	89 08		 mov	 DWORD PTR [eax], ecx
  00006	89 48 04	 mov	 DWORD PTR [eax+4], ecx
  00009	89 48 08	 mov	 DWORD PTR [eax+8], ecx

; 508  : 		}

  0000c	c3		 ret	 0
??0?$vector@HV?$allocator@H@std@@@std@@QAE@XZ ENDP	; std::vector<int,std::allocator<int> >::vector<int,std::allocator<int> >
_TEXT	ENDS
PUBLIC	?_Destroy@?$vector@HV?$allocator@H@std@@@std@@IAEXPAH0@Z ; std::vector<int,std::allocator<int> >::_Destroy
; Function compile flags: /Ogsp
;	COMDAT ?_Destroy@?$vector@HV?$allocator@H@std@@@std@@IAEXPAH0@Z
_TEXT	SEGMENT
__First$ = 8						; size = 4
__Last$ = 12						; size = 4
?_Destroy@?$vector@HV?$allocator@H@std@@@std@@IAEXPAH0@Z PROC ; std::vector<int,std::allocator<int> >::_Destroy, COMDAT
; _this$ = ecx

; 1270 : 		_Destroy_range(_First, _Last, this->_Alval);
; 1271 : 		}

  00000	c2 08 00	 ret	 8
?_Destroy@?$vector@HV?$allocator@H@std@@@std@@IAEXPAH0@Z ENDP ; std::vector<int,std::allocator<int> >::_Destroy
_TEXT	ENDS
PUBLIC	??9?$_Vector_const_iterator@V?$_Vector_val@HV?$allocator@H@std@@@std@@@std@@QBE_NABV01@@Z ; std::_Vector_const_iterator<std::_Vector_val<int,std::allocator<int> > >::operator!=
; Function compile flags: /Ogsp
;	COMDAT ??9?$_Vector_const_iterator@V?$_Vector_val@HV?$allocator@H@std@@@std@@@std@@QBE_NABV01@@Z
_TEXT	SEGMENT
__Right$ = 8						; size = 4
??9?$_Vector_const_iterator@V?$_Vector_val@HV?$allocator@H@std@@@std@@@std@@QBE_NABV01@@Z PROC ; std::_Vector_const_iterator<std::_Vector_val<int,std::allocator<int> > >::operator!=, COMDAT
; _this$ = ecx

; 207  : 		{	// test for iterator inequality

  00000	55		 push	 ebp
  00001	8b ec		 mov	 ebp, esp

; 208  : 		return (!(*this == _Right));

  00003	8b 01		 mov	 eax, DWORD PTR [ecx]
  00005	8b 55 08	 mov	 edx, DWORD PTR __Right$[ebp]
  00008	33 c9		 xor	 ecx, ecx
  0000a	3b 02		 cmp	 eax, DWORD PTR [edx]
  0000c	0f 95 c0	 setne	 al

; 209  : 		}

  0000f	5d		 pop	 ebp
  00010	c2 04 00	 ret	 4
??9?$_Vector_const_iterator@V?$_Vector_val@HV?$allocator@H@std@@@std@@@std@@QBE_NABV01@@Z ENDP ; std::_Vector_const_iterator<std::_Vector_val<int,std::allocator<int> > >::operator!=
_TEXT	ENDS
PUBLIC	??$_Umove@PAH@?$vector@HV?$allocator@H@std@@@std@@IAEPAHPAH00@Z ; std::vector<int,std::allocator<int> >::_Umove<int *>
; Function compile flags: /Ogsp
;	COMDAT ??$_Umove@PAH@?$vector@HV?$allocator@H@std@@@std@@IAEPAHPAH00@Z
_TEXT	SEGMENT
__First$ = 8						; size = 4
__Last$ = 12						; size = 4
__Ptr$ = 16						; size = 4
??$_Umove@PAH@?$vector@HV?$allocator@H@std@@@std@@IAEPAHPAH00@Z PROC ; std::vector<int,std::allocator<int> >::_Umove<int *>, COMDAT
; _this$ = ecx

; 1322 : 		pointer _Umove(_Iter _First, _Iter _Last, pointer _Ptr)

  00000	55		 push	 ebp
  00001	8b ec		 mov	 ebp, esp

; 1323 : 		{	// move initializing [_First, _Last), using allocator
; 1324 : 		return (_Uninitialized_move(_First, _Last,
; 1325 : 			_Ptr, this->_Alval));

  00003	83 c1 0c	 add	 ecx, 12			; 0000000cH
  00006	51		 push	 ecx
  00007	ff 75 10	 push	 DWORD PTR __Ptr$[ebp]
  0000a	ff 75 0c	 push	 DWORD PTR __Last$[ebp]
  0000d	ff 75 08	 push	 DWORD PTR __First$[ebp]
  00010	e8 00 00 00 00	 call	 ??$_Uninitialized_move@PAHPAHV?$allocator@H@std@@@std@@YAPAHPAH00AAV?$allocator@H@0@@Z ; std::_Uninitialized_move<int *,int *,std::allocator<int> >
  00015	83 c4 10	 add	 esp, 16			; 00000010H

; 1326 : 		}

  00018	5d		 pop	 ebp
  00019	c2 0c 00	 ret	 12			; 0000000cH
??$_Umove@PAH@?$vector@HV?$allocator@H@std@@@std@@IAEPAHPAH00@Z ENDP ; std::vector<int,std::allocator<int> >::_Umove<int *>
_TEXT	ENDS
PUBLIC	__$ArrayPad$
EXTRN	?GetGradeSize@ioExcavationManager@@QAEHXZ:PROC	; ioExcavationManager::GetGradeSize
EXTRN	?GetItemSize@ioExcavationManager@@QAEHXZ:PROC	; ioExcavationManager::GetItemSize
EXTRN	?SetExcavatingSuccessAlarm@ioExcavationManager@@QAEXAAVioHashString@@HHHM_N@Z:PROC ; ioExcavationManager::SetExcavatingSuccessAlarm
EXTRN	__imp_??0ioHashString@@QAE@ABV0@@Z:PROC
EXTRN	??1SP2Packet@@UAE@XZ:PROC			; SP2Packet::~SP2Packet
EXTRN	?SendToServer@TCPNetwork@@YAXAAVSP2Packet@@@Z:PROC ; TCPNetwork::SendToServer
EXTRN	??6SP2Packet@@QAEAAV0@M@Z:PROC			; SP2Packet::operator<<
EXTRN	??6SP2Packet@@QAEAAV0@ABVioHashString@@@Z:PROC	; SP2Packet::operator<<
EXTRN	??6SP2Packet@@QAEAAV0@H@Z:PROC			; SP2Packet::operator<<
EXTRN	??0SP2Packet@@QAE@K@Z:PROC			; SP2Packet::SP2Packet
EXTRN	__imp_?OnProcess@ioWnd@@MAEXM@Z:PROC
EXTRN	__chkstk:PROC
;	COMDAT xdata$x
; File d:\lost saga for developer\youtube\tutorial\source\src\lsclient\gui\excavationwnd.h
xdata$x	SEGMENT
__unwindtable$?OnProcess@ExcavationResultWnd@@MAEXM@Z DD 0ffffffffH
	DD	FLAT:__unwindfunclet$?OnProcess@ExcavationResultWnd@@MAEXM@Z$0
	DD	0ffffffffH
	DD	FLAT:__unwindfunclet$?OnProcess@ExcavationResultWnd@@MAEXM@Z$1
	DD	0ffffffffH
	DD	FLAT:__unwindfunclet$?OnProcess@ExcavationResultWnd@@MAEXM@Z$2
__ehfuncinfo$?OnProcess@ExcavationResultWnd@@MAEXM@Z DD 019930522H
	DD	03H
	DD	FLAT:__unwindtable$?OnProcess@ExcavationResultWnd@@MAEXM@Z
	DD	2 DUP(00H)
	DD	2 DUP(00H)
	DD	00H
	DD	01H
; Function compile flags: /Ogsp
; File d:\lost saga for developer\youtube\tutorial\source\src\lsclient\gui\excavationwnd.cpp
xdata$x	ENDS
;	COMDAT ?OnProcess@ExcavationResultWnd@@MAEXM@Z
_TEXT	SEGMENT
_szPublicID$535049 = -32848				; size = 16
_szCurIcon$535062 = -32832				; size = 16
tv539 = -32816						; size = 4
tv534 = -32816						; size = 4
tv552 = -32812						; size = 4
tv548 = -32812						; size = 4
tv545 = -32812						; size = 4
_fScaleRate$535033 = -32812				; size = 4
_fScale$535029 = -32812					; size = 4
_kPacket$535047 = -32808				; size = 32792
__$ArrayPad$ = -16					; size = 4
__$EHRec$ = -12						; size = 12
_fTimePerSec$ = 8					; size = 4
?OnProcess@ExcavationResultWnd@@MAEXM@Z PROC		; ExcavationResultWnd::OnProcess, COMDAT
; _this$ = ecx

; 148  : {

  00000	55		 push	 ebp
  00001	8b ec		 mov	 ebp, esp
  00003	6a ff		 push	 -1
  00005	68 00 00 00 00	 push	 __ehhandler$?OnProcess@ExcavationResultWnd@@MAEXM@Z
  0000a	64 a1 00 00 00
	00		 mov	 eax, DWORD PTR fs:0
  00010	50		 push	 eax
  00011	b8 44 80 00 00	 mov	 eax, 32836		; 00008044H
  00016	e8 00 00 00 00	 call	 __chkstk
  0001b	a1 00 00 00 00	 mov	 eax, DWORD PTR ___security_cookie
  00020	33 c5		 xor	 eax, ebp
  00022	89 45 f0	 mov	 DWORD PTR __$ArrayPad$[ebp], eax
  00025	53		 push	 ebx
  00026	56		 push	 esi
  00027	57		 push	 edi
  00028	50		 push	 eax
  00029	8d 45 f4	 lea	 eax, DWORD PTR __$EHRec$[ebp]
  0002c	64 a3 00 00 00
	00		 mov	 DWORD PTR fs:0, eax
  00032	8b f1		 mov	 esi, ecx

; 149  : 	if( !IsShow() ) return;

  00034	ff 15 00 00 00
	00		 call	 DWORD PTR __imp_?IsShow@ioWnd@@QBE_NXZ
  0003a	84 c0		 test	 al, al
  0003c	0f 84 2c 04 00
	00		 je	 $LN8@OnProcess

; 150  : 
; 151  : 	ioWnd::OnProcess( fTimePerSec );

  00042	f3 0f 10 45 08	 movss	 xmm0, DWORD PTR _fTimePerSec$[ebp]
  00047	51		 push	 ecx
  00048	8b ce		 mov	 ecx, esi
  0004a	f3 0f 11 04 24	 movss	 DWORD PTR [esp], xmm0
  0004f	ff 15 00 00 00
	00		 call	 DWORD PTR __imp_?OnProcess@ioWnd@@MAEXM@Z

; 152  : 
; 153  : 	DWORD dwCurTime = FRAMEGETTIME();

  00055	ff 15 00 00 00
	00		 call	 DWORD PTR __imp_?GetSingleton@ioFrameTimer@@SAAAV1@XZ
  0005b	8b c8		 mov	 ecx, eax
  0005d	ff 15 00 00 00
	00		 call	 DWORD PTR __imp_?GetLoopSec@ioFrameTimer@@QBEKXZ
  00063	8b f8		 mov	 edi, eax

; 154  : 
; 155  : 	if( m_dwRollingEndTime < dwCurTime  )			// RollingEnd

  00065	39 be a0 01 00
	00		 cmp	 DWORD PTR [esi+416], edi
  0006b	0f 83 b6 02 00
	00		 jae	 $LN23@OnProcess

; 156  : 	{
; 157  : 		// Icon 
; 158  : 		if( !m_bFinalResult )		//    

  00071	80 be 88 01 00
	00 00		 cmp	 BYTE PTR [esi+392], 0
  00078	75 0d		 jne	 SHORT $LN22@OnProcess

; 159  : 		{
; 160  : 			SetArtifactInfo();

  0007a	8b ce		 mov	 ecx, esi
  0007c	e8 00 00 00 00	 call	 ?SetArtifactInfo@ExcavationResultWnd@@IAEXXZ ; ExcavationResultWnd::SetArtifactInfo

; 161  : 			m_dwScaleStartTime = dwCurTime;

  00081	89 be a4 01 00
	00		 mov	 DWORD PTR [esi+420], edi
$LN22@OnProcess:

; 162  : 		}
; 163  : 
; 164  : 		// IconScale 
; 165  : 		float fScale = FLOAT1;

  00087	b8 01 00 00 00	 mov	 eax, 1
  0008c	89 85 d4 7f ff
	ff		 mov	 DWORD PTR tv552[ebp], eax
  00092	db 85 d4 7f ff
	ff		 fild	 DWORD PTR tv552[ebp]
  00098	85 c0		 test	 eax, eax
  0009a	79 06		 jns	 SHORT $LN46@OnProcess
  0009c	d8 05 00 00 00
	00		 fadd	 DWORD PTR __real@4f800000
$LN46@OnProcess:

; 166  : 		DWORD dwGapTime = dwCurTime - m_dwScaleStartTime;

  000a2	2b be a4 01 00
	00		 sub	 edi, DWORD PTR [esi+420]
  000a8	d9 9d d4 7f ff
	ff		 fstp	 DWORD PTR _fScale$535029[ebp]

; 167  : 		if( dwGapTime < m_dwIconScaleTime )

  000ae	8b 86 90 01 00
	00		 mov	 eax, DWORD PTR [esi+400]
  000b4	3b f8		 cmp	 edi, eax
  000b6	0f 83 86 00 00
	00		 jae	 $LN21@OnProcess

; 168  : 		{
; 169  : 			float fScaleRate = (float)dwGapTime / (float)m_dwIconScaleTime;

  000bc	89 bd d4 7f ff
	ff		 mov	 DWORD PTR tv548[ebp], edi
  000c2	db 85 d4 7f ff
	ff		 fild	 DWORD PTR tv548[ebp]
  000c8	85 ff		 test	 edi, edi
  000ca	79 06		 jns	 SHORT $LN47@OnProcess
  000cc	d8 05 00 00 00
	00		 fadd	 DWORD PTR __real@4f800000
$LN47@OnProcess:
  000d2	89 85 d4 7f ff
	ff		 mov	 DWORD PTR tv545[ebp], eax
  000d8	db 85 d4 7f ff
	ff		 fild	 DWORD PTR tv545[ebp]
  000de	85 c0		 test	 eax, eax
  000e0	79 06		 jns	 SHORT $LN48@OnProcess
  000e2	d8 05 00 00 00
	00		 fadd	 DWORD PTR __real@4f800000
$LN48@OnProcess:
  000e8	de f9		 fdivp	 ST(1), ST(0)
  000ea	d9 9d d4 7f ff
	ff		 fstp	 DWORD PTR _fScaleRate$535033[ebp]

; 170  : 			fScale = m_fIconScale * ( FLOAT1 - fScaleRate ) + FLOAT1 * fScaleRate;

  000f0	b8 01 00 00 00	 mov	 eax, 1
  000f5	8b c8		 mov	 ecx, eax
  000f7	b8 01 00 00 00	 mov	 eax, 1
  000fc	89 8d d0 7f ff
	ff		 mov	 DWORD PTR tv539[ebp], ecx
  00102	db 85 d0 7f ff
	ff		 fild	 DWORD PTR tv539[ebp]
  00108	85 c9		 test	 ecx, ecx
  0010a	79 06		 jns	 SHORT $LN49@OnProcess
  0010c	d8 05 00 00 00
	00		 fadd	 DWORD PTR __real@4f800000
$LN49@OnProcess:
  00112	d8 a5 d4 7f ff
	ff		 fsub	 DWORD PTR _fScaleRate$535033[ebp]
  00118	89 85 d0 7f ff
	ff		 mov	 DWORD PTR tv534[ebp], eax
  0011e	d8 8e 8c 01 00
	00		 fmul	 DWORD PTR [esi+396]
  00124	db 85 d0 7f ff
	ff		 fild	 DWORD PTR tv534[ebp]
  0012a	85 c0		 test	 eax, eax
  0012c	79 06		 jns	 SHORT $LN50@OnProcess
  0012e	d8 05 00 00 00
	00		 fadd	 DWORD PTR __real@4f800000
$LN50@OnProcess:
  00134	d8 8d d4 7f ff
	ff		 fmul	 DWORD PTR _fScaleRate$535033[ebp]
  0013a	de c1		 faddp	 ST(1), ST(0)
  0013c	d9 9d d4 7f ff
	ff		 fstp	 DWORD PTR _fScale$535029[ebp]
$LN21@OnProcess:

; 171  : 		}
; 172  : 
; 173  : 		if( m_pIcon )

  00142	8b 8e 60 01 00
	00		 mov	 ecx, DWORD PTR [esi+352]
  00148	85 c9		 test	 ecx, ecx
  0014a	74 13		 je	 SHORT $LN20@OnProcess

; 174  : 			m_pIcon->SetScale( fScale );

  0014c	f3 0f 10 85 d4
	7f ff ff	 movss	 xmm0, DWORD PTR _fScale$535029[ebp]
  00154	8b 01		 mov	 eax, DWORD PTR [ecx]
  00156	51		 push	 ecx
  00157	f3 0f 11 04 24	 movss	 DWORD PTR [esp], xmm0
  0015c	ff 50 1c	 call	 DWORD PTR [eax+28]
$LN20@OnProcess:

; 175  : 
; 176  : 		if( !m_bFinalResult )

  0015f	80 be 88 01 00
	00 00		 cmp	 BYTE PTR [esi+392], 0
  00166	0f 85 02 03 00
	00		 jne	 $LN8@OnProcess

; 177  : 		{
; 178  : 			m_bFinalResult = true;
; 179  : 			ReBatchButton( RESULT_BTN );

  0016c	8b 06		 mov	 eax, DWORD PTR [esi]
  0016e	6a 02		 push	 2
  00170	8b ce		 mov	 ecx, esi
  00172	c6 86 88 01 00
	00 01		 mov	 BYTE PTR [esi+392], 1
  00179	ff 90 30 01 00
	00		 call	 DWORD PTR [eax+304]

; 180  : 
; 181  : 			if( !m_szRollingSound.IsEmpty() )

  0017f	8d 9e b0 01 00
	00		 lea	 ebx, DWORD PTR [esi+432]
  00185	8b cb		 mov	 ecx, ebx
  00187	ff 15 00 00 00
	00		 call	 DWORD PTR __imp_?IsEmpty@ioHashString@@QBE_NXZ
  0018d	8b 3d 00 00 00
	00		 mov	 edi, DWORD PTR __imp_?GetSingleton@ioSoundManager@@SAAAV1@XZ
  00193	84 c0		 test	 al, al
  00195	75 0d		 jne	 SHORT $LN18@OnProcess

; 182  : 				g_SoundMgr.StopSound( m_szRollingSound, 0 );

  00197	6a 00		 push	 0
  00199	53		 push	 ebx
  0019a	ff d7		 call	 edi
  0019c	8b c8		 mov	 ecx, eax
  0019e	ff 15 00 00 00
	00		 call	 DWORD PTR __imp_?StopSound@ioSoundManager@@QAEXABVioHashString@@K@Z
$LN18@OnProcess:

; 183  : 
; 184  : 			if( !COMPARE( m_iArtifactType, ioExcavationManager::FAIL_ARTIFACT_START_TYPE, ioExcavationManager::EXTRAITEM_START_TYPE ) )

  001a4	8b 86 74 01 00
	00		 mov	 eax, DWORD PTR [esi+372]
  001aa	3d e8 03 00 00	 cmp	 eax, 1000		; 000003e8H
  001af	7c 0d		 jl	 SHORT $LN16@OnProcess

; 188  : 			}
; 189  : 			else
; 190  : 			{
; 191  : 				if( !m_szResultFailSound.IsEmpty() )

  001b1	8d 9e d0 01 00
	00		 lea	 ebx, DWORD PTR [esi+464]
  001b7	3d 10 27 00 00	 cmp	 eax, 10000		; 00002710H
  001bc	7c 06		 jl	 SHORT $LN51@OnProcess
$LN16@OnProcess:

; 185  : 			{
; 186  : 				if( !m_szResultSound.IsEmpty() )

  001be	8d 9e c0 01 00
	00		 lea	 ebx, DWORD PTR [esi+448]
$LN51@OnProcess:
  001c4	8b cb		 mov	 ecx, ebx
  001c6	ff 15 00 00 00
	00		 call	 DWORD PTR __imp_?IsEmpty@ioHashString@@QBE_NXZ
  001cc	84 c0		 test	 al, al
  001ce	75 0f		 jne	 SHORT $LN15@OnProcess

; 187  : 					g_SoundMgr.PlaySound( m_szResultSound );

  001d0	6a 04		 push	 4
  001d2	6a 00		 push	 0
  001d4	53		 push	 ebx
  001d5	ff d7		 call	 edi
  001d7	8b c8		 mov	 ecx, eax
  001d9	ff 15 00 00 00
	00		 call	 DWORD PTR __imp_?PlaySoundA@ioSoundManager@@QAEKABVioHashString@@HK@Z
$LN15@OnProcess:

; 192  : 					g_SoundMgr.PlaySound( m_szResultFailSound );
; 193  : 			}
; 194  : 
; 195  : 			if( m_bAlarm )

  001df	80 be 80 01 00
	00 00		 cmp	 BYTE PTR [esi+384], 0
  001e6	0f 84 8b 00 00
	00		 je	 $LN12@OnProcess

; 196  : 			{
; 197  : 				SP2Packet kPacket( CTPK_SERVER_ALARM_MSG );

  001ec	68 82 01 00 00	 push	 386			; 00000182H
  001f1	8d 8d d8 7f ff
	ff		 lea	 ecx, DWORD PTR _kPacket$535047[ebp]
  001f7	e8 00 00 00 00	 call	 ??0SP2Packet@@QAE@K@Z	; SP2Packet::SP2Packet
  001fc	83 65 fc 00	 and	 DWORD PTR __$EHRec$[ebp+8], 0

; 198  : 				kPacket << UDP_SERVER_ALARM_EXCAVATION << g_MyInfo.GetPublicID() << m_iArtifactType << m_iArtifactValue1 << m_iArtifactValue2 << m_fMapRate;

  00200	e8 00 00 00 00	 call	 ?GetSingleton@ioMyInfo@@SAAAV1@XZ ; ioMyInfo::GetSingleton
  00205	f3 0f 10 86 84
	01 00 00	 movss	 xmm0, DWORD PTR [esi+388]
  0020d	51		 push	 ecx
  0020e	f3 0f 11 04 24	 movss	 DWORD PTR [esp], xmm0
  00213	ff b6 7c 01 00
	00		 push	 DWORD PTR [esi+380]
  00219	83 c0 1c	 add	 eax, 28			; 0000001cH
  0021c	ff b6 78 01 00
	00		 push	 DWORD PTR [esi+376]
  00222	8d 8d d8 7f ff
	ff		 lea	 ecx, DWORD PTR _kPacket$535047[ebp]
  00228	ff b6 74 01 00
	00		 push	 DWORD PTR [esi+372]
  0022e	50		 push	 eax
  0022f	6a 0e		 push	 14			; 0000000eH
  00231	e8 00 00 00 00	 call	 ??6SP2Packet@@QAEAAV0@H@Z ; SP2Packet::operator<<
  00236	8b c8		 mov	 ecx, eax
  00238	e8 00 00 00 00	 call	 ??6SP2Packet@@QAEAAV0@ABVioHashString@@@Z ; SP2Packet::operator<<
  0023d	8b c8		 mov	 ecx, eax
  0023f	e8 00 00 00 00	 call	 ??6SP2Packet@@QAEAAV0@H@Z ; SP2Packet::operator<<
  00244	8b c8		 mov	 ecx, eax
  00246	e8 00 00 00 00	 call	 ??6SP2Packet@@QAEAAV0@H@Z ; SP2Packet::operator<<
  0024b	8b c8		 mov	 ecx, eax
  0024d	e8 00 00 00 00	 call	 ??6SP2Packet@@QAEAAV0@H@Z ; SP2Packet::operator<<
  00252	8b c8		 mov	 ecx, eax
  00254	e8 00 00 00 00	 call	 ??6SP2Packet@@QAEAAV0@M@Z ; SP2Packet::operator<<

; 199  : 				TCPNetwork::SendToServer( kPacket );

  00259	8d 85 d8 7f ff
	ff		 lea	 eax, DWORD PTR _kPacket$535047[ebp]
  0025f	50		 push	 eax
  00260	e8 00 00 00 00	 call	 ?SendToServer@TCPNetwork@@YAXAAVSP2Packet@@@Z ; TCPNetwork::SendToServer

; 200  : 			}

  00265	83 4d fc ff	 or	 DWORD PTR __$EHRec$[ebp+8], -1
  00269	59		 pop	 ecx
  0026a	8d 8d d8 7f ff
	ff		 lea	 ecx, DWORD PTR _kPacket$535047[ebp]
  00270	e8 00 00 00 00	 call	 ??1SP2Packet@@UAE@XZ	; SP2Packet::~SP2Packet

; 201  : 			else 

  00275	eb 61		 jmp	 SHORT $LN11@OnProcess
$LN12@OnProcess:

; 202  : 			{
; 203  : 				ioHashString szPublicID = g_MyInfo.GetPublicID();

  00277	e8 00 00 00 00	 call	 ?GetSingleton@ioMyInfo@@SAAAV1@XZ ; ioMyInfo::GetSingleton
  0027c	83 c0 1c	 add	 eax, 28			; 0000001cH
  0027f	50		 push	 eax
  00280	8d 8d b0 7f ff
	ff		 lea	 ecx, DWORD PTR _szPublicID$535049[ebp]
  00286	ff 15 00 00 00
	00		 call	 DWORD PTR __imp_??0ioHashString@@QAE@ABV0@@Z

; 204  : 				g_ExcavationMgr.SetExcavatingSuccessAlarm( szPublicID, m_iArtifactType, m_iArtifactValue1, m_iArtifactValue2, m_fMapRate, false );

  0028c	f3 0f 10 86 84
	01 00 00	 movss	 xmm0, DWORD PTR [esi+388]
  00294	6a 00		 push	 0
  00296	51		 push	 ecx
  00297	f3 0f 11 04 24	 movss	 DWORD PTR [esp], xmm0
  0029c	ff b6 7c 01 00
	00		 push	 DWORD PTR [esi+380]
  002a2	8d 85 b0 7f ff
	ff		 lea	 eax, DWORD PTR _szPublicID$535049[ebp]
  002a8	ff b6 78 01 00
	00		 push	 DWORD PTR [esi+376]
  002ae	c7 45 fc 01 00
	00 00		 mov	 DWORD PTR __$EHRec$[ebp+8], 1
  002b5	ff b6 74 01 00
	00		 push	 DWORD PTR [esi+372]
  002bb	50		 push	 eax
  002bc	e8 00 00 00 00	 call	 ?GetSingleton@ioExcavationManager@@SAAAV1@XZ ; ioExcavationManager::GetSingleton
  002c1	8b c8		 mov	 ecx, eax
  002c3	e8 00 00 00 00	 call	 ?SetExcavatingSuccessAlarm@ioExcavationManager@@QAEXAAVioHashString@@HHHM_N@Z ; ioExcavationManager::SetExcavatingSuccessAlarm

; 205  : 			}

  002c8	83 4d fc ff	 or	 DWORD PTR __$EHRec$[ebp+8], -1
  002cc	8d 8d b0 7f ff
	ff		 lea	 ecx, DWORD PTR _szPublicID$535049[ebp]
  002d2	ff 15 00 00 00
	00		 call	 DWORD PTR __imp_??1ioHashString@@QAE@XZ
$LN11@OnProcess:

; 206  : 
; 207  : 			ExcavationSearchingWnd *pSearchingWnd = dynamic_cast<ExcavationSearchingWnd*> ( g_GUIMgr.FindWnd( EXCAVATION_SEARCHING_WND ) );

  002d8	6a 00		 push	 0
  002da	68 00 00 00 00	 push	 OFFSET ??_R0?AVExcavationSearchingWnd@@@8
  002df	68 00 00 00 00	 push	 OFFSET ??_R0?AVioWnd@@@8
  002e4	6a 00		 push	 0
  002e6	68 cb 13 00 00	 push	 5067			; 000013cbH
  002eb	e8 00 00 00 00	 call	 ?GetSingleton@ioSP2GUIManager@@SAAAV1@XZ ; ioSP2GUIManager::GetSingleton
  002f0	8b c8		 mov	 ecx, eax
  002f2	ff 15 00 00 00
	00		 call	 DWORD PTR __imp_?FindWnd@ioGUIManager@@QAEPAVioWnd@@K@Z
  002f8	50		 push	 eax
  002f9	e8 00 00 00 00	 call	 ___RTDynamicCast
  002fe	8b f0		 mov	 esi, eax
  00300	83 c4 14	 add	 esp, 20			; 00000014H

; 208  : 			if( pSearchingWnd && pSearchingWnd->IsShow() )

  00303	85 f6		 test	 esi, esi
  00305	0f 84 63 01 00
	00		 je	 $LN8@OnProcess
  0030b	8b ce		 mov	 ecx, esi
  0030d	ff 15 00 00 00
	00		 call	 DWORD PTR __imp_?IsShow@ioWnd@@QBE_NXZ
  00313	84 c0		 test	 al, al
  00315	0f 84 53 01 00
	00		 je	 $LN8@OnProcess

; 209  : 			{
; 210  : 				pSearchingWnd->SetProcessRadarPos( true );

  0031b	c6 86 8c 02 00
	00 01		 mov	 BYTE PTR [esi+652], 1

; 211  : 			}
; 212  : 		}
; 213  : 	}
; 214  : 	else // Rolling

  00322	e9 47 01 00 00	 jmp	 $LN8@OnProcess
$LN23@OnProcess:

; 215  : 	{
; 216  : 		if( m_dwRollingCheckTime == 0 || dwCurTime - m_dwRollingCheckTime > m_dwRollingTime )		// 

  00327	8b 86 9c 01 00
	00		 mov	 eax, DWORD PTR [esi+412]
  0032d	33 db		 xor	 ebx, ebx
  0032f	3b c3		 cmp	 eax, ebx
  00331	74 10		 je	 SHORT $LN7@OnProcess
  00333	8b cf		 mov	 ecx, edi
  00335	2b c8		 sub	 ecx, eax
  00337	3b 8e 94 01 00
	00		 cmp	 ecx, DWORD PTR [esi+404]
  0033d	0f 86 2b 01 00
	00		 jbe	 $LN8@OnProcess
$LN7@OnProcess:

; 217  : 		{
; 218  : 			// item icon
; 219  : 			SAFEDELETE( m_pIcon );

  00343	8b 8e 60 01 00
	00		 mov	 ecx, DWORD PTR [esi+352]
  00349	3b cb		 cmp	 ecx, ebx
  0034b	74 0d		 je	 SHORT $LN6@OnProcess
  0034d	8b 01		 mov	 eax, DWORD PTR [ecx]
  0034f	6a 01		 push	 1
  00351	ff 50 40	 call	 DWORD PTR [eax+64]
  00354	89 9e 60 01 00
	00		 mov	 DWORD PTR [esi+352], ebx
$LN6@OnProcess:

; 220  : 			m_iCurIconArray++;

  0035a	ff 86 a8 01 00
	00		 inc	 DWORD PTR [esi+424]

; 221  : 			if( !COMPARE( m_iCurIconArray, 0, g_ExcavationMgr.GetItemSize() ) )

  00360	78 14		 js	 SHORT $LN4@OnProcess
  00362	e8 00 00 00 00	 call	 ?GetSingleton@ioExcavationManager@@SAAAV1@XZ ; ioExcavationManager::GetSingleton
  00367	8b c8		 mov	 ecx, eax
  00369	e8 00 00 00 00	 call	 ?GetItemSize@ioExcavationManager@@QAEHXZ ; ioExcavationManager::GetItemSize
  0036e	39 86 a8 01 00
	00		 cmp	 DWORD PTR [esi+424], eax
  00374	7c 06		 jl	 SHORT $LN5@OnProcess
$LN4@OnProcess:

; 222  : 				m_iCurIconArray = 0;

  00376	89 9e a8 01 00
	00		 mov	 DWORD PTR [esi+424], ebx
$LN5@OnProcess:

; 223  : 
; 224  : 			ioHashString szCurIcon;

  0037c	8d 8d c0 7f ff
	ff		 lea	 ecx, DWORD PTR _szCurIcon$535062[ebp]
  00382	ff 15 00 00 00
	00		 call	 DWORD PTR __imp_??0ioHashString@@QAE@XZ

; 225  : 			g_ExcavationMgr.GetItemIcon( m_iCurIconArray, szCurIcon );

  00388	8d 85 c0 7f ff
	ff		 lea	 eax, DWORD PTR _szCurIcon$535062[ebp]
  0038e	50		 push	 eax
  0038f	ff b6 a8 01 00
	00		 push	 DWORD PTR [esi+424]
  00395	c7 45 fc 02 00
	00 00		 mov	 DWORD PTR __$EHRec$[ebp+8], 2
  0039c	e8 00 00 00 00	 call	 ?GetSingleton@ioExcavationManager@@SAAAV1@XZ ; ioExcavationManager::GetSingleton
  003a1	8b c8		 mov	 ecx, eax
  003a3	e8 00 00 00 00	 call	 ?GetItemIcon@ioExcavationManager@@QAEXHAAVioHashString@@@Z ; ioExcavationManager::GetItemIcon

; 226  : 			if( !szCurIcon.IsEmpty() )

  003a8	8d 8d c0 7f ff
	ff		 lea	 ecx, DWORD PTR _szCurIcon$535062[ebp]
  003ae	ff 15 00 00 00
	00		 call	 DWORD PTR __imp_?IsEmpty@ioHashString@@QBE_NXZ
  003b4	84 c0		 test	 al, al
  003b6	75 1c		 jne	 SHORT $LN3@OnProcess

; 227  : 				m_pIcon = g_UIImageSetMgr.CreateImageByFullName( szCurIcon );

  003b8	8d 85 c0 7f ff
	ff		 lea	 eax, DWORD PTR _szCurIcon$535062[ebp]
  003be	53		 push	 ebx
  003bf	50		 push	 eax
  003c0	ff 15 00 00 00
	00		 call	 DWORD PTR __imp_?GetSingleton@ioUIImageSetManager@@SAAAV1@XZ
  003c6	8b c8		 mov	 ecx, eax
  003c8	ff 15 00 00 00
	00		 call	 DWORD PTR __imp_?CreateImageByFullName@ioUIImageSetManager@@QAEPAVioUIRenderImage@@ABVioHashString@@_N@Z
  003ce	89 86 60 01 00
	00		 mov	 DWORD PTR [esi+352], eax
$LN3@OnProcess:

; 228  : 
; 229  : 			// name
; 230  : 			m_szName.Clear();

  003d4	8b 1d 00 00 00
	00		 mov	 ebx, DWORD PTR __imp_?Clear@ioHashString@@QAEXXZ
  003da	8d 8e e0 01 00
	00		 lea	 ecx, DWORD PTR [esi+480]
  003e0	ff d3		 call	 ebx

; 231  : 			g_ExcavationMgr.GetItemName( m_iCurIconArray, m_szName );

  003e2	8d 86 e0 01 00
	00		 lea	 eax, DWORD PTR [esi+480]
  003e8	50		 push	 eax
  003e9	ff b6 a8 01 00
	00		 push	 DWORD PTR [esi+424]
  003ef	e8 00 00 00 00	 call	 ?GetSingleton@ioExcavationManager@@SAAAV1@XZ ; ioExcavationManager::GetSingleton
  003f4	8b c8		 mov	 ecx, eax
  003f6	e8 00 00 00 00	 call	 ?GetItemName@ioExcavationManager@@QAEXHAAVioHashString@@@Z ; ioExcavationManager::GetItemName

; 232  : 			m_szDesc.Clear();

  003fb	8d 8e f0 01 00
	00		 lea	 ecx, DWORD PTR [esi+496]
  00401	ff d3		 call	 ebx

; 233  : 			g_ExcavationMgr.GetItemDesc( m_iCurIconArray, m_szDesc );

  00403	8d 86 f0 01 00
	00		 lea	 eax, DWORD PTR [esi+496]
  00409	50		 push	 eax
  0040a	ff b6 a8 01 00
	00		 push	 DWORD PTR [esi+424]
  00410	e8 00 00 00 00	 call	 ?GetSingleton@ioExcavationManager@@SAAAV1@XZ ; ioExcavationManager::GetSingleton
  00415	8b c8		 mov	 ecx, eax
  00417	e8 00 00 00 00	 call	 ?GetItemDesc@ioExcavationManager@@QAEXHAAVioHashString@@@Z ; ioExcavationManager::GetItemDesc

; 234  : 
; 235  : 			// grade
; 236  : 			m_iCurGradeArray++;

  0041c	ff 86 ac 01 00
	00		 inc	 DWORD PTR [esi+428]

; 237  : 			if( !COMPARE( m_iCurGradeArray, 0, g_ExcavationMgr.GetGradeSize() ) )

  00422	78 14		 js	 SHORT $LN1@OnProcess
  00424	e8 00 00 00 00	 call	 ?GetSingleton@ioExcavationManager@@SAAAV1@XZ ; ioExcavationManager::GetSingleton
  00429	8b c8		 mov	 ecx, eax
  0042b	e8 00 00 00 00	 call	 ?GetGradeSize@ioExcavationManager@@QAEHXZ ; ioExcavationManager::GetGradeSize
  00430	39 86 ac 01 00
	00		 cmp	 DWORD PTR [esi+428], eax
  00436	7c 07		 jl	 SHORT $LN2@OnProcess
$LN1@OnProcess:

; 238  : 				m_iCurGradeArray = 0;

  00438	83 a6 ac 01 00
	00 00		 and	 DWORD PTR [esi+428], 0
$LN2@OnProcess:

; 239  : 			g_ExcavationMgr.GetGradeRank( m_iCurGradeArray, m_szGrade );

  0043f	8d 86 00 02 00
	00		 lea	 eax, DWORD PTR [esi+512]
  00445	50		 push	 eax
  00446	ff b6 ac 01 00
	00		 push	 DWORD PTR [esi+428]
  0044c	e8 00 00 00 00	 call	 ?GetSingleton@ioExcavationManager@@SAAAV1@XZ ; ioExcavationManager::GetSingleton
  00451	8b c8		 mov	 ecx, eax
  00453	e8 00 00 00 00	 call	 ?GetGradeRank@ioExcavationManager@@QAEXHAAVioHashString@@@Z ; ioExcavationManager::GetGradeRank

; 240  : 			m_dwRollingCheckTime = dwCurTime;
; 241  : 		}

  00458	83 4d fc ff	 or	 DWORD PTR __$EHRec$[ebp+8], -1
  0045c	8d 8d c0 7f ff
	ff		 lea	 ecx, DWORD PTR _szCurIcon$535062[ebp]
  00462	89 be 9c 01 00
	00		 mov	 DWORD PTR [esi+412], edi
  00468	ff 15 00 00 00
	00		 call	 DWORD PTR __imp_??1ioHashString@@QAE@XZ
$LN8@OnProcess:

; 242  : 	}
; 243  : }

  0046e	8b 4d f4	 mov	 ecx, DWORD PTR __$EHRec$[ebp]
  00471	64 89 0d 00 00
	00 00		 mov	 DWORD PTR fs:0, ecx
  00478	59		 pop	 ecx
  00479	5f		 pop	 edi
  0047a	5e		 pop	 esi
  0047b	5b		 pop	 ebx
  0047c	8b 4d f0	 mov	 ecx, DWORD PTR __$ArrayPad$[ebp]
  0047f	33 cd		 xor	 ecx, ebp
  00481	e8 00 00 00 00	 call	 @__security_check_cookie@4
  00486	c9		 leave
  00487	c2 04 00	 ret	 4
_TEXT	ENDS
;	COMDAT text$x
text$x	SEGMENT
__unwindfunclet$?OnProcess@ExcavationResultWnd@@MAEXM@Z$0:
  00000	8d 8d d8 7f ff
	ff		 lea	 ecx, DWORD PTR _kPacket$535047[ebp]
  00006	e9 00 00 00 00	 jmp	 ??1SP2Packet@@UAE@XZ	; SP2Packet::~SP2Packet
__unwindfunclet$?OnProcess@ExcavationResultWnd@@MAEXM@Z$1:
  0000b	8d 8d b0 7f ff
	ff		 lea	 ecx, DWORD PTR _szPublicID$535049[ebp]
  00011	ff 25 00 00 00
	00		 jmp	 DWORD PTR __imp_??1ioHashString@@QAE@XZ
__unwindfunclet$?OnProcess@ExcavationResultWnd@@MAEXM@Z$2:
  00017	8d 8d c0 7f ff
	ff		 lea	 ecx, DWORD PTR _szCurIcon$535062[ebp]
  0001d	ff 25 00 00 00
	00		 jmp	 DWORD PTR __imp_??1ioHashString@@QAE@XZ
__ehhandler$?OnProcess@ExcavationResultWnd@@MAEXM@Z:
  00023	8b 54 24 08	 mov	 edx, DWORD PTR [esp+8]
  00027	8d 42 0c	 lea	 eax, DWORD PTR [edx+12]
  0002a	8b 8a ac 7f ff
	ff		 mov	 ecx, DWORD PTR [edx-32852]
  00030	33 c8		 xor	 ecx, eax
  00032	e8 00 00 00 00	 call	 @__security_check_cookie@4
  00037	8b 4a fc	 mov	 ecx, DWORD PTR [edx-4]
  0003a	33 c8		 xor	 ecx, eax
  0003c	e8 00 00 00 00	 call	 @__security_check_cookie@4
  00041	b8 00 00 00 00	 mov	 eax, OFFSET __ehfuncinfo$?OnProcess@ExcavationResultWnd@@MAEXM@Z
  00046	e9 00 00 00 00	 jmp	 ___CxxFrameHandler3
text$x	ENDS
?OnProcess@ExcavationResultWnd@@MAEXM@Z ENDP		; ExcavationResultWnd::OnProcess
PUBLIC	??_C@_0BI@LDBIFGDM@ExcavatingBtn?3?3OnRender?$AA@ ; `string'
EXTRN	__imp_?SetTextColor@ioFontManager@@QAEXHHH@Z:PROC
;	COMDAT ??_C@_0BI@LDBIFGDM@ExcavatingBtn?3?3OnRender?$AA@
; File d:\lost saga for developer\youtube\tutorial\source\src\lsclient\encryptvalue.h
CONST	SEGMENT
??_C@_0BI@LDBIFGDM@ExcavatingBtn?3?3OnRender?$AA@ DB 'ExcavatingBtn::OnRe'
	DB	'nder', 00H					; `string'
; Function compile flags: /Ogsp
; File d:\lost saga for developer\youtube\tutorial\source\src\lsclient\gui\excavationwnd.cpp
CONST	ENDS
;	COMDAT ?OnRender@ExcavatingBtn@@MAEXXZ
_TEXT	SEGMENT
_value$548387 = -12					; size = 4
_value$548382 = -8					; size = 4
_this$ = -4						; size = 4
?OnRender@ExcavatingBtn@@MAEXXZ PROC			; ExcavatingBtn::OnRender, COMDAT
; _this$ = ecx

; 659  : {

  00000	55		 push	 ebp
  00001	8b ec		 mov	 ebp, esp
  00003	83 ec 0c	 sub	 esp, 12			; 0000000cH
  00006	53		 push	 ebx
  00007	56		 push	 esi
  00008	8b f1		 mov	 esi, ecx
  0000a	57		 push	 edi
  0000b	89 75 fc	 mov	 DWORD PTR _this$[ebp], esi

; 660  : 	ioWnd::OnRender();

  0000e	ff 15 00 00 00
	00		 call	 DWORD PTR __imp_?OnRender@ioWnd@@MAEXXZ

; 661  : 
; 662  : 	int iXPos, iYPos;
; 663  : 	iXPos = GetDerivedPosX();

  00014	8b ce		 mov	 ecx, esi
  00016	ff 15 00 00 00
	00		 call	 DWORD PTR __imp_?GetDerivedPosX@ioWnd@@QBEHXZ

; 664  : 	iYPos = GetDerivedPosY();

  0001c	8b ce		 mov	 ecx, esi
  0001e	8b f8		 mov	 edi, eax
  00020	ff 15 00 00 00
	00		 call	 DWORD PTR __imp_?GetDerivedPosY@ioWnd@@QBEHXZ

; 665  : 
; 666  : 	enum 
; 667  : 	{ 
; 668  : 		ICON_HEIGHT_EX = 54,  
; 669  : 		ICON_X     = 28,
; 670  : 		ICON_Y     = 27,
; 671  : 
; 672  : 		DESC_X     = 30,
; 673  : 		DESC_Y     = -12,
; 674  : 
; 675  : 		INPUTBACK_XOFFSET = 12,
; 676  : 		INPUTBACK_YOFFSET = 53,
; 677  : 		INPUT_XOFFSET = 13, 
; 678  : 		INPUT_YOFFSET = 54,
; 679  : 	};
; 680  : 
; 681  : 	if( IsCanExcavating() )

  00026	8b ce		 mov	 ecx, esi
  00028	8b d8		 mov	 ebx, eax
  0002a	e8 00 00 00 00	 call	 ?IsCanExcavating@ExcavatingBtn@@QAE_NXZ ; ExcavatingBtn::IsCanExcavating
  0002f	84 c0		 test	 al, al
  00031	74 3c		 je	 SHORT $LN5@OnRender@5

; 682  : 	{
; 683  : 		if( m_pIcon )

  00033	33 d2		 xor	 edx, edx
  00035	39 96 fc 01 00
	00		 cmp	 DWORD PTR [esi+508], edx
  0003b	74 6d		 je	 SHORT $LN3@OnRender@5

; 684  : 			m_pIcon->Render( iXPos + ICON_X, iYPos + ICON_Y, UI_RENDER_NORMAL, TFO_BILINEAR );

  0003d	8b 8e fc 01 00
	00		 mov	 ecx, DWORD PTR [esi+508]
  00043	8b 01		 mov	 eax, DWORD PTR [ecx]
  00045	52		 push	 edx
  00046	52		 push	 edx
  00047	6a 01		 push	 1
  00049	52		 push	 edx
  0004a	0f 57 c0	 xorps	 xmm0, xmm0
  0004d	51		 push	 ecx
  0004e	8d 53 1b	 lea	 edx, DWORD PTR [ebx+27]
  00051	f3 0f 2a c2	 cvtsi2ss xmm0, edx
  00055	51		 push	 ecx
  00056	f3 0f 11 44 24
	04		 movss	 DWORD PTR [esp+4], xmm0
  0005c	8d 57 1c	 lea	 edx, DWORD PTR [edi+28]
  0005f	0f 57 c0	 xorps	 xmm0, xmm0
  00062	f3 0f 2a c2	 cvtsi2ss xmm0, edx
  00066	f3 0f 11 04 24	 movss	 DWORD PTR [esp], xmm0
  0006b	ff 10		 call	 DWORD PTR [eax]

; 685  : 	}
; 686  : 	else

  0006d	eb 3b		 jmp	 SHORT $LN3@OnRender@5
$LN5@OnRender@5:

; 687  : 		RenderGaugeIcon( iXPos + ICON_X, iYPos + ICON_Y, m_pIcon, ICON_HEIGHT_EX, m_iCurCoolTime, m_iMaxCoolTime );

  0006f	8d 45 f8	 lea	 eax, DWORD PTR _value$548382[ebp]
  00072	50		 push	 eax
  00073	8d 8e 1c 02 00
	00		 lea	 ecx, DWORD PTR [esi+540]
  00079	e8 00 00 00 00	 call	 ?DecryptValueToPool@?$CEncrypt@H@@QAEXPAH@Z ; CEncrypt<int>::DecryptValueToPool
  0007e	8d 45 f4	 lea	 eax, DWORD PTR _value$548387[ebp]
  00081	50		 push	 eax
  00082	8d 8e 4c 02 00
	00		 lea	 ecx, DWORD PTR [esi+588]
  00088	e8 00 00 00 00	 call	 ?DecryptValueToPool@?$CEncrypt@H@@QAEXPAH@Z ; CEncrypt<int>::DecryptValueToPool
  0008d	ff 75 f8	 push	 DWORD PTR _value$548382[ebp]
  00090	8d 43 1b	 lea	 eax, DWORD PTR [ebx+27]
  00093	ff 75 f4	 push	 DWORD PTR _value$548387[ebp]
  00096	8b ce		 mov	 ecx, esi
  00098	6a 36		 push	 54			; 00000036H
  0009a	ff b6 fc 01 00
	00		 push	 DWORD PTR [esi+508]
  000a0	50		 push	 eax
  000a1	8d 47 1c	 lea	 eax, DWORD PTR [edi+28]
  000a4	50		 push	 eax
  000a5	e8 00 00 00 00	 call	 ?RenderGaugeIcon@ExcavatingBtn@@IAEXHHPAVioUIRenderImage@@HHH@Z ; ExcavatingBtn::RenderGaugeIcon
$LN3@OnRender@5:

; 688  : 
; 689  : 	// text
; 690  : 	g_FontMgr.SetTextStyle( TS_OUTLINE_FULL_2X );

  000aa	8b 35 00 00 00
	00		 mov	 esi, DWORD PTR __imp_?GetSingleton@ioFontManager@@SAAAV1@XZ
  000b0	6a 05		 push	 5
  000b2	ff d6		 call	 esi
  000b4	8b c8		 mov	 ecx, eax
  000b6	ff 15 00 00 00
	00		 call	 DWORD PTR __imp_?SetTextStyle@ioFontManager@@QAEXW4TextStyle@@@Z

; 691  : 	g_FontMgr.SetBkColor( 0, 0, 0 );

  000bc	33 c0		 xor	 eax, eax
  000be	50		 push	 eax
  000bf	50		 push	 eax
  000c0	50		 push	 eax
  000c1	ff d6		 call	 esi
  000c3	8b c8		 mov	 ecx, eax
  000c5	ff 15 00 00 00
	00		 call	 DWORD PTR __imp_?SetBkColor@ioFontManager@@QAEXHHH@Z

; 692  : 	g_FontMgr.SetAlignType( TAT_CENTER );

  000cb	6a 01		 push	 1
  000cd	ff d6		 call	 esi
  000cf	8b c8		 mov	 ecx, eax
  000d1	ff 15 00 00 00
	00		 call	 DWORD PTR __imp_?SetAlignType@ioFontManager@@QAEXW4TextAlignType@@@Z

; 693  : 
; 694  : 	g_FontMgr.SetTextColor( 255, 255, 255 );

  000d7	b8 ff 00 00 00	 mov	 eax, 255		; 000000ffH
  000dc	50		 push	 eax
  000dd	50		 push	 eax
  000de	50		 push	 eax
  000df	ff d6		 call	 esi
  000e1	8b c8		 mov	 ecx, eax
  000e3	ff 15 00 00 00
	00		 call	 DWORD PTR __imp_?SetTextColor@ioFontManager@@QAEXHHH@Z

; 695  : 	if( IsCanExcavating() )

  000e9	8b 4d fc	 mov	 ecx, DWORD PTR _this$[ebp]
  000ec	e8 00 00 00 00	 call	 ?IsCanExcavating@ExcavatingBtn@@QAE_NXZ ; ExcavatingBtn::IsCanExcavating

; 696  : 		g_FontMgr.PrintText( iXPos + DESC_X, iYPos + DESC_Y, FONT_SIZE_13, STR(1) );

  000f1	6a 00		 push	 0
  000f3	84 c0		 test	 al, al
  000f5	74 04		 je	 SHORT $LN2@OnRender@5
  000f7	6a 01		 push	 1

; 697  : 	else

  000f9	eb 02		 jmp	 SHORT $LN12@OnRender@5
$LN2@OnRender@5:

; 698  : 		g_FontMgr.PrintText( iXPos + DESC_X, iYPos + DESC_Y, FONT_SIZE_13, STR(2) );

  000fb	6a 02		 push	 2
$LN12@OnRender@5:
  000fd	68 00 00 00 00	 push	 OFFSET ??_C@_00CNPNBAHC@?$AA@
  00102	68 00 00 00 00	 push	 OFFSET ??_C@_0BI@LDBIFGDM@ExcavatingBtn?3?3OnRender?$AA@
  00107	ff 15 00 00 00
	00		 call	 DWORD PTR __imp_?GetSingleton@ioStringManager@@SAAAV1@XZ
  0010d	8b c8		 mov	 ecx, eax
  0010f	ff 15 00 00 00
	00		 call	 DWORD PTR __imp_?GetString@ioStringManager@@QAEPADPBD0HW4FileNamePrefix@1@@Z
  00115	f3 0f 10 05 00
	00 00 00	 movss	 xmm0, DWORD PTR __real@3f266666
  0011d	50		 push	 eax
  0011e	83 ec 0c	 sub	 esp, 12			; 0000000cH
  00121	f3 0f 11 44 24
	08		 movss	 DWORD PTR [esp+8], xmm0
  00127	0f 57 c0	 xorps	 xmm0, xmm0
  0012a	8d 43 f4	 lea	 eax, DWORD PTR [ebx-12]
  0012d	f3 0f 2a c0	 cvtsi2ss xmm0, eax
  00131	f3 0f 11 44 24
	04		 movss	 DWORD PTR [esp+4], xmm0
  00137	8d 47 1e	 lea	 eax, DWORD PTR [edi+30]
  0013a	0f 57 c0	 xorps	 xmm0, xmm0
  0013d	f3 0f 2a c0	 cvtsi2ss xmm0, eax
  00141	f3 0f 11 04 24	 movss	 DWORD PTR [esp], xmm0
  00146	ff d6		 call	 esi
  00148	50		 push	 eax
  00149	ff 15 00 00 00
	00		 call	 DWORD PTR __imp_?PrintText@ioFontManager@@QAAXMMMPBDZZ

; 699  : 
; 700  : 	RenderInputKeyBack( iXPos + INPUTBACK_XOFFSET, iYPos + INPUTBACK_YOFFSET );

  0014f	8b 4d fc	 mov	 ecx, DWORD PTR _this$[ebp]
  00152	83 c4 14	 add	 esp, 20			; 00000014H
  00155	8d 43 35	 lea	 eax, DWORD PTR [ebx+53]
  00158	50		 push	 eax
  00159	8d 47 0c	 lea	 eax, DWORD PTR [edi+12]
  0015c	50		 push	 eax
  0015d	e8 00 00 00 00	 call	 ?RenderInputKeyBack@ExcavatingBtn@@IAEXHH@Z ; ExcavatingBtn::RenderInputKeyBack

; 701  : 	RenderInputKey( iXPos + INPUT_XOFFSET, iYPos + INPUT_YOFFSET );

  00162	8b 4d fc	 mov	 ecx, DWORD PTR _this$[ebp]
  00165	83 c3 36	 add	 ebx, 54			; 00000036H
  00168	53		 push	 ebx
  00169	83 c7 0d	 add	 edi, 13			; 0000000dH
  0016c	57		 push	 edi
  0016d	e8 00 00 00 00	 call	 ?RenderInputKey@ExcavatingBtn@@IAEXHH@Z ; ExcavatingBtn::RenderInputKey
  00172	5f		 pop	 edi
  00173	5e		 pop	 esi
  00174	5b		 pop	 ebx

; 702  : }

  00175	c9		 leave
  00176	c3		 ret	 0
?OnRender@ExcavatingBtn@@MAEXXZ ENDP			; ExcavatingBtn::OnRender
_TEXT	ENDS
PUBLIC	__real@3fc99999a0000000
PUBLIC	__real@400921fb60000000
PUBLIC	__real@4072c00000000000
PUBLIC	?ProcessScale@ExcavatingBtn@@IAEXXZ		; ExcavatingBtn::ProcessScale
;	COMDAT __real@3fc99999a0000000
; File c:\program files (x86)\microsoft visual studio 10.0\vc\include\math.h
CONST	SEGMENT
__real@3fc99999a0000000 DQ 03fc99999a0000000r	; 0.2
CONST	ENDS
;	COMDAT __real@400921fb60000000
CONST	SEGMENT
__real@400921fb60000000 DQ 0400921fb60000000r	; 3.14159
CONST	ENDS
;	COMDAT __real@4072c00000000000
CONST	SEGMENT
__real@4072c00000000000 DQ 04072c00000000000r	; 300
; Function compile flags: /Ogsp
; File d:\lost saga for developer\youtube\tutorial\source\src\lsclient\gui\excavationwnd.cpp
CONST	ENDS
;	COMDAT ?ProcessScale@ExcavatingBtn@@IAEXXZ
_TEXT	SEGMENT
tv266 = -4						; size = 4
tv257 = -4						; size = 4
tv238 = -4						; size = 4
tv236 = -4						; size = 4
tv233 = -4						; size = 4
tv226 = -4						; size = 4
tv225 = -4						; size = 4
tv162 = -4						; size = 4
?ProcessScale@ExcavatingBtn@@IAEXXZ PROC		; ExcavatingBtn::ProcessScale, COMDAT
; _this$ = ecx

; 714  : {

  00000	55		 push	 ebp
  00001	8b ec		 mov	 ebp, esp
  00003	51		 push	 ecx
  00004	56		 push	 esi
  00005	8b f1		 mov	 esi, ecx

; 715  : 	if( !IsCanExcavating() )

  00007	e8 00 00 00 00	 call	 ?IsCanExcavating@ExcavatingBtn@@QAE_NXZ ; ExcavatingBtn::IsCanExcavating
  0000c	84 c0		 test	 al, al
  0000e	75 3c		 jne	 SHORT $LN5@ProcessSca

; 716  : 	{
; 717  : 		m_fCurScaleRate = FLOAT1;

  00010	b8 01 00 00 00	 mov	 eax, 1
  00015	89 45 fc	 mov	 DWORD PTR tv257[ebp], eax
  00018	db 45 fc	 fild	 DWORD PTR tv257[ebp]
  0001b	85 c0		 test	 eax, eax
  0001d	79 06		 jns	 SHORT $LN14@ProcessSca
  0001f	d8 05 00 00 00
	00		 fadd	 DWORD PTR __real@4f800000
$LN14@ProcessSca:

; 718  : 		if( m_pIcon )

  00025	8b 8e fc 01 00
	00		 mov	 ecx, DWORD PTR [esi+508]
  0002b	d9 5d fc	 fstp	 DWORD PTR tv226[ebp]
  0002e	d9 45 fc	 fld	 DWORD PTR tv226[ebp]
  00031	d9 9e 84 02 00
	00		 fstp	 DWORD PTR [esi+644]
  00037	85 c9		 test	 ecx, ecx
  00039	0f 84 e6 00 00
	00		 je	 $LN1@ProcessSca

; 719  : 			m_pIcon->SetScale( m_fCurScaleRate );

  0003f	8b 01		 mov	 eax, DWORD PTR [ecx]
  00041	f3 0f 10 45 fc	 movss	 xmm0, DWORD PTR tv226[ebp]
  00046	51		 push	 ecx

; 720  : 		return;

  00047	e9 d1 00 00 00	 jmp	 $LN17@ProcessSca
$LN5@ProcessSca:

; 721  : 	}
; 722  : 
; 723  : 	enum { SCALE_TIME = 300, };
; 724  : 	if( m_dwScaleStartTime == 0 )

  0004c	83 be 80 02 00
	00 00		 cmp	 DWORD PTR [esi+640], 0
  00053	53		 push	 ebx
  00054	8b 1d 00 00 00
	00		 mov	 ebx, DWORD PTR __imp_?GetSingleton@ioFrameTimer@@SAAAV1@XZ
  0005a	57		 push	 edi
  0005b	75 10		 jne	 SHORT $LN3@ProcessSca

; 725  : 		m_dwScaleStartTime = FRAMEGETTIME();

  0005d	ff d3		 call	 ebx
  0005f	8b c8		 mov	 ecx, eax
  00061	ff 15 00 00 00
	00		 call	 DWORD PTR __imp_?GetLoopSec@ioFrameTimer@@QBEKXZ
  00067	89 86 80 02 00
	00		 mov	 DWORD PTR [esi+640], eax
$LN3@ProcessSca:

; 726  : 
; 727  : 	DWORD dwGapTime = FRAMEGETTIME() - m_dwScaleStartTime;

  0006d	ff d3		 call	 ebx
  0006f	8b c8		 mov	 ecx, eax
  00071	ff 15 00 00 00
	00		 call	 DWORD PTR __imp_?GetLoopSec@ioFrameTimer@@QBEKXZ
  00077	8b f8		 mov	 edi, eax
  00079	2b be 80 02 00
	00		 sub	 edi, DWORD PTR [esi+640]

; 728  : 	if( dwGapTime > SCALE_TIME )

  0007f	b8 2c 01 00 00	 mov	 eax, 300		; 0000012cH
  00084	3b f8		 cmp	 edi, eax
  00086	76 21		 jbe	 SHORT $LN2@ProcessSca

; 729  : 	{
; 730  : 		dwGapTime -= SCALE_TIME;

  00088	2b f8		 sub	 edi, eax

; 731  : 		m_dwScaleStartTime = FRAMEGETTIME() - ( dwGapTime % SCALE_TIME );

  0008a	ff d3		 call	 ebx
  0008c	8b c8		 mov	 ecx, eax
  0008e	ff 15 00 00 00
	00		 call	 DWORD PTR __imp_?GetLoopSec@ioFrameTimer@@QBEKXZ
  00094	8b c8		 mov	 ecx, eax
  00096	33 d2		 xor	 edx, edx
  00098	8b c7		 mov	 eax, edi
  0009a	bb 2c 01 00 00	 mov	 ebx, 300		; 0000012cH
  0009f	f7 f3		 div	 ebx
  000a1	2b ca		 sub	 ecx, edx
  000a3	89 8e 80 02 00
	00		 mov	 DWORD PTR [esi+640], ecx
$LN2@ProcessSca:

; 735  : 	m_fCurScaleRate = FLOAT1 + 0.2f * sinf( D3DX_PI * fTimeRate );

  000a9	b8 01 00 00 00	 mov	 eax, 1
  000ae	89 7d fc	 mov	 DWORD PTR tv238[ebp], edi
  000b1	db 45 fc	 fild	 DWORD PTR tv238[ebp]
  000b4	8b d8		 mov	 ebx, eax
  000b6	85 ff		 test	 edi, edi
  000b8	79 06		 jns	 SHORT $LN15@ProcessSca
  000ba	d8 05 00 00 00
	00		 fadd	 DWORD PTR __real@4f800000
$LN15@ProcessSca:

; 732  : 	}
; 733  : 
; 734  : 	float fTimeRate = (float)dwGapTime / (float)SCALE_TIME;

  000c0	dc 35 00 00 00
	00		 fdiv	 QWORD PTR __real@4072c00000000000

; 735  : 	m_fCurScaleRate = FLOAT1 + 0.2f * sinf( D3DX_PI * fTimeRate );

  000c6	d9 5d fc	 fstp	 DWORD PTR tv236[ebp]
  000c9	d9 45 fc	 fld	 DWORD PTR tv236[ebp]
  000cc	dc 0d 00 00 00
	00		 fmul	 QWORD PTR __real@400921fb60000000
  000d2	d9 5d fc	 fstp	 DWORD PTR tv233[ebp]
  000d5	d9 45 fc	 fld	 DWORD PTR tv233[ebp]
  000d8	e8 00 00 00 00	 call	 __CIsin
  000dd	d9 5d fc	 fstp	 DWORD PTR tv225[ebp]
  000e0	d9 45 fc	 fld	 DWORD PTR tv225[ebp]
  000e3	89 5d fc	 mov	 DWORD PTR tv162[ebp], ebx
  000e6	dc 0d 00 00 00
	00		 fmul	 QWORD PTR __real@3fc99999a0000000
  000ec	db 45 fc	 fild	 DWORD PTR tv162[ebp]
  000ef	85 db		 test	 ebx, ebx
  000f1	79 06		 jns	 SHORT $LN16@ProcessSca
  000f3	d8 05 00 00 00
	00		 fadd	 DWORD PTR __real@4f800000
$LN16@ProcessSca:
  000f9	de c1		 faddp	 ST(1), ST(0)
  000fb	5f		 pop	 edi
  000fc	5b		 pop	 ebx
  000fd	d9 5d fc	 fstp	 DWORD PTR tv266[ebp]
  00100	d9 45 fc	 fld	 DWORD PTR tv266[ebp]
  00103	d9 9e 84 02 00
	00		 fstp	 DWORD PTR [esi+644]

; 736  : 
; 737  : 	if( m_pIcon )

  00109	8b b6 fc 01 00
	00		 mov	 esi, DWORD PTR [esi+508]
  0010f	85 f6		 test	 esi, esi
  00111	74 12		 je	 SHORT $LN1@ProcessSca

; 738  : 		m_pIcon->SetScale( m_fCurScaleRate );

  00113	8b 06		 mov	 eax, DWORD PTR [esi]
  00115	f3 0f 10 45 fc	 movss	 xmm0, DWORD PTR tv266[ebp]
  0011a	51		 push	 ecx
  0011b	8b ce		 mov	 ecx, esi
$LN17@ProcessSca:
  0011d	f3 0f 11 04 24	 movss	 DWORD PTR [esp], xmm0
  00122	ff 50 1c	 call	 DWORD PTR [eax+28]
$LN1@ProcessSca:
  00125	5e		 pop	 esi

; 739  : }

  00126	c9		 leave
  00127	c3		 ret	 0
?ProcessScale@ExcavatingBtn@@IAEXXZ ENDP		; ExcavatingBtn::ProcessScale
_TEXT	ENDS
PUBLIC	?ProcessGaugeIcon@ExcavatingBtn@@IAEXXZ		; ExcavatingBtn::ProcessGaugeIcon
; Function compile flags: /Ogsp
;	COMDAT ?ProcessGaugeIcon@ExcavatingBtn@@IAEXXZ
_TEXT	SEGMENT
_value$548423 = -8					; size = 4
_value$548427 = -4					; size = 4
_value$548418 = -4					; size = 4
?ProcessGaugeIcon@ExcavatingBtn@@IAEXXZ PROC		; ExcavatingBtn::ProcessGaugeIcon, COMDAT
; _this$ = ecx

; 742  : {

  00000	55		 push	 ebp
  00001	8b ec		 mov	 ebp, esp
  00003	51		 push	 ecx
  00004	51		 push	 ecx
  00005	56		 push	 esi
  00006	57		 push	 edi
  00007	8b f1		 mov	 esi, ecx

; 743  : 	m_iCurCoolTime = FRAMEGETTIME() - m_dwCoolStartTime;

  00009	ff 15 00 00 00
	00		 call	 DWORD PTR __imp_?GetSingleton@ioFrameTimer@@SAAAV1@XZ
  0000f	8b c8		 mov	 ecx, eax
  00011	ff 15 00 00 00
	00		 call	 DWORD PTR __imp_?GetLoopSec@ioFrameTimer@@QBEKXZ
  00017	2b 86 7c 02 00
	00		 sub	 eax, DWORD PTR [esi+636]
  0001d	8d be 4c 02 00
	00		 lea	 edi, DWORD PTR [esi+588]
  00023	89 45 fc	 mov	 DWORD PTR _value$548418[ebp], eax
  00026	8d 45 fc	 lea	 eax, DWORD PTR _value$548418[ebp]
  00029	50		 push	 eax
  0002a	8b cf		 mov	 ecx, edi
  0002c	e8 00 00 00 00	 call	 ?EncryptValueToPool@?$CEncrypt@H@@AAEXPBD@Z ; CEncrypt<int>::EncryptValueToPool

; 744  : 	if( m_iCurCoolTime > m_iMaxCoolTime )

  00031	8d 45 f8	 lea	 eax, DWORD PTR _value$548423[ebp]
  00034	81 c6 1c 02 00
	00		 add	 esi, 540		; 0000021cH
  0003a	50		 push	 eax
  0003b	8b ce		 mov	 ecx, esi
  0003d	e8 00 00 00 00	 call	 ?DecryptValueToPool@?$CEncrypt@H@@QAEXPAH@Z ; CEncrypt<int>::DecryptValueToPool
  00042	8d 45 fc	 lea	 eax, DWORD PTR _value$548427[ebp]
  00045	50		 push	 eax
  00046	8b cf		 mov	 ecx, edi
  00048	e8 00 00 00 00	 call	 ?DecryptValueToPool@?$CEncrypt@H@@QAEXPAH@Z ; CEncrypt<int>::DecryptValueToPool
  0004d	8b 45 fc	 mov	 eax, DWORD PTR _value$548427[ebp]
  00050	3b 45 f8	 cmp	 eax, DWORD PTR _value$548423[ebp]
  00053	7e 08		 jle	 SHORT $LN1@ProcessGau

; 745  : 		m_iCurCoolTime = m_iMaxCoolTime;

  00055	56		 push	 esi
  00056	8b cf		 mov	 ecx, edi
  00058	e8 00 00 00 00	 call	 ??4?$CEncrypt@H@@QAE_NAAV0@@Z ; CEncrypt<int>::operator=
$LN1@ProcessGau:
  0005d	5f		 pop	 edi
  0005e	5e		 pop	 esi

; 746  : }

  0005f	c9		 leave
  00060	c3		 ret	 0
?ProcessGaugeIcon@ExcavatingBtn@@IAEXXZ ENDP		; ExcavatingBtn::ProcessGaugeIcon
_TEXT	ENDS
PUBLIC	?UpdateAttackKeyImage@ExcavatingBtn@@IAEXXZ	; ExcavatingBtn::UpdateAttackKeyImage
EXTRN	?GetGameKey@ioKeyManager@@QAEXAAUtagUseKeyValue@ioUserKeyInput@@@Z:PROC ; ioKeyManager::GetGameKey
EXTRN	?GetSingleton@ioKeyManager@@SAAAV1@XZ:PROC	; ioKeyManager::GetSingleton
EXTRN	?SetDefaultFirstKey@tagUseKeyValue@ioUserKeyInput@@QAEXXZ:PROC ; ioUserKeyInput::tagUseKeyValue::SetDefaultFirstKey
EXTRN	??0tagUseKeyValue@ioUserKeyInput@@QAE@XZ:PROC	; ioUserKeyInput::tagUseKeyValue::tagUseKeyValue
; Function compile flags: /Ogsp
;	COMDAT ?UpdateAttackKeyImage@ExcavatingBtn@@IAEXXZ
_TEXT	SEGMENT
_kKeys$ = -32						; size = 30
?UpdateAttackKeyImage@ExcavatingBtn@@IAEXXZ PROC	; ExcavatingBtn::UpdateAttackKeyImage, COMDAT
; _this$ = ecx

; 847  : {

  00000	55		 push	 ebp
  00001	8b ec		 mov	 ebp, esp
  00003	83 ec 20	 sub	 esp, 32			; 00000020H
  00006	56		 push	 esi
  00007	8b f1		 mov	 esi, ecx

; 848  : 	bool bChangeKey = false;
; 849  : 	ioUserKeyInput::UseKeyValue kKeys;

  00009	8d 4d e0	 lea	 ecx, DWORD PTR _kKeys$[ebp]
  0000c	e8 00 00 00 00	 call	 ??0tagUseKeyValue@ioUserKeyInput@@QAE@XZ ; ioUserKeyInput::tagUseKeyValue::tagUseKeyValue

; 850  : 	kKeys.SetDefaultFirstKey();

  00011	8d 4d e0	 lea	 ecx, DWORD PTR _kKeys$[ebp]
  00014	e8 00 00 00 00	 call	 ?SetDefaultFirstKey@tagUseKeyValue@ioUserKeyInput@@QAEXXZ ; ioUserKeyInput::tagUseKeyValue::SetDefaultFirstKey

; 851  : 	g_KeyManager.GetGameKey( kKeys );

  00019	8d 45 e0	 lea	 eax, DWORD PTR _kKeys$[ebp]
  0001c	50		 push	 eax
  0001d	e8 00 00 00 00	 call	 ?GetSingleton@ioKeyManager@@SAAAV1@XZ ; ioKeyManager::GetSingleton
  00022	8b c8		 mov	 ecx, eax
  00024	e8 00 00 00 00	 call	 ?GetGameKey@ioKeyManager@@QAEXAAUtagUseKeyValue@ioUserKeyInput@@@Z ; ioKeyManager::GetGameKey

; 852  : 
; 853  : 	if( m_wAttackValue != kKeys.m_wAttackKey )

  00029	66 8b 45 f4	 mov	 ax, WORD PTR _kKeys$[ebp+20]
  0002d	66 39 86 88 02
	00 00		 cmp	 WORD PTR [esi+648], ax
  00034	74 61		 je	 SHORT $LN3@UpdateAtta

; 854  : 	{
; 855  : 		m_wAttackValue = kKeys.m_wAttackKey;
; 856  : 		bChangeKey = true;
; 857  : 	}
; 858  : 
; 859  : 	if( bChangeKey )
; 860  : 	{ 
; 861  : 		SAFEDELETE( m_pAttackKeyNor );

  00036	8b 8e 0c 02 00
	00		 mov	 ecx, DWORD PTR [esi+524]
  0003c	66 89 86 88 02
	00 00		 mov	 WORD PTR [esi+648], ax
  00043	85 c9		 test	 ecx, ecx
  00045	74 0e		 je	 SHORT $LN2@UpdateAtta
  00047	8b 01		 mov	 eax, DWORD PTR [ecx]
  00049	6a 01		 push	 1
  0004b	ff 50 40	 call	 DWORD PTR [eax+64]
  0004e	83 a6 0c 02 00
	00 00		 and	 DWORD PTR [esi+524], 0
$LN2@UpdateAtta:

; 862  : 		SAFEDELETE( m_pAttackKeyOn );

  00055	8b 8e 10 02 00
	00		 mov	 ecx, DWORD PTR [esi+528]
  0005b	85 c9		 test	 ecx, ecx
  0005d	74 0e		 je	 SHORT $LN1@UpdateAtta
  0005f	8b 01		 mov	 eax, DWORD PTR [ecx]
  00061	6a 01		 push	 1
  00063	ff 50 40	 call	 DWORD PTR [eax+64]
  00066	83 a6 10 02 00
	00 00		 and	 DWORD PTR [esi+528], 0
$LN1@UpdateAtta:

; 863  : 		m_pAttackKeyNor = GetNorKeyImage( m_wAttackValue );

  0006d	0f b7 86 88 02
	00 00		 movzx	 eax, WORD PTR [esi+648]
  00074	50		 push	 eax
  00075	8b ce		 mov	 ecx, esi
  00077	e8 00 00 00 00	 call	 ?GetNorKeyImage@ExcavatingBtn@@IAEPAVioUIRenderImage@@G@Z ; ExcavatingBtn::GetNorKeyImage
  0007c	89 86 0c 02 00
	00		 mov	 DWORD PTR [esi+524], eax

; 864  : 		m_pAttackKeyOn  = GetOnKeyImage( m_wAttackValue );

  00082	0f b7 86 88 02
	00 00		 movzx	 eax, WORD PTR [esi+648]
  00089	50		 push	 eax
  0008a	8b ce		 mov	 ecx, esi
  0008c	e8 00 00 00 00	 call	 ?GetOnKeyImage@ExcavatingBtn@@IAEPAVioUIRenderImage@@G@Z ; ExcavatingBtn::GetOnKeyImage
  00091	89 86 10 02 00
	00		 mov	 DWORD PTR [esi+528], eax
$LN3@UpdateAtta:
  00097	5e		 pop	 esi

; 865  : 	}
; 866  : }

  00098	c9		 leave
  00099	c3		 ret	 0
?UpdateAttackKeyImage@ExcavatingBtn@@IAEXXZ ENDP	; ExcavatingBtn::UpdateAttackKeyImage
_TEXT	ENDS
PUBLIC	?iwm_command@ExcavationSearchingWnd@@UAEXPAVioWnd@@HK@Z ; ExcavationSearchingWnd::iwm_command
EXTRN	?ShowEtcItemTab@NewShopWnd@@QAEXXZ:PROC		; NewShopWnd::ShowEtcItemTab
EXTRN	?OnExcavationBtnUp@ioExcavationManager@@QAEXPAVioBaseChar@@@Z:PROC ; ioExcavationManager::OnExcavationBtnUp
; Function compile flags: /Ogsp
;	COMDAT ?iwm_command@ExcavationSearchingWnd@@UAEXPAVioWnd@@HK@Z
_TEXT	SEGMENT
_pWnd$ = 8						; size = 4
_cmd$ = 12						; size = 4
_param$ = 16						; size = 4
?iwm_command@ExcavationSearchingWnd@@UAEXPAVioWnd@@HK@Z PROC ; ExcavationSearchingWnd::iwm_command, COMDAT
; _this$ = ecx

; 964  : {

  00000	55		 push	 ebp
  00001	8b ec		 mov	 ebp, esp
  00003	56		 push	 esi
  00004	8b f1		 mov	 esi, ecx

; 965  : 	DWORD dwID = pWnd->GetID();

  00006	8b 4d 08	 mov	 ecx, DWORD PTR _pWnd$[ebp]
  00009	ff 15 00 00 00
	00		 call	 DWORD PTR __imp_?GetID@ioWnd@@QBEKXZ

; 966  : 
; 967  : 	switch( dwID )

  0000f	48		 dec	 eax
  00010	74 30		 je	 SHORT $LN7@iwm_comman@3
  00012	48		 dec	 eax
  00013	74 0c		 je	 SHORT $LN9@iwm_comman@3
  00015	2d 10 27 00 00	 sub	 eax, 10000		; 00002710H
  0001a	74 48		 je	 SHORT $LN5@iwm_comman@3
  0001c	e9 8d 00 00 00	 jmp	 $LN1@iwm_comman@3
$LN9@iwm_comman@3:

; 968  : 	{
; 969  : 	case ID_EXCAVATING_BTN:
; 970  : 		if( cmd == IOBN_BTNUP )

  00021	83 7d 0c 11	 cmp	 DWORD PTR _cmd$[ebp], 17 ; 00000011H
  00025	0f 85 83 00 00
	00		 jne	 $LN1@iwm_comman@3

; 971  : 		{
; 972  : 			OnExcavatingBtnUp( dwID );

  0002b	6a 02		 push	 2
  0002d	8b ce		 mov	 ecx, esi
  0002f	e8 00 00 00 00	 call	 ?OnExcavatingBtnUp@ExcavationSearchingWnd@@QAEXK@Z ; ExcavationSearchingWnd::OnExcavatingBtnUp

; 973  : 			g_ExcavationMgr.SetKeyInputTimer(0);

  00034	e8 00 00 00 00	 call	 ?GetSingleton@ioExcavationManager@@SAAAV1@XZ ; ioExcavationManager::GetSingleton
  00039	83 a0 54 14 00
	00 00		 and	 DWORD PTR [eax+5204], 0

; 974  : 		}
; 975  : 		break;

  00040	eb 6c		 jmp	 SHORT $LN1@iwm_comman@3
$LN7@iwm_comman@3:

; 976  : 	case ID_EXIT_BTN:
; 977  : 		if( cmd == IOBN_BTNUP )

  00042	83 7d 0c 11	 cmp	 DWORD PTR _cmd$[ebp], 17 ; 00000011H
  00046	75 66		 jne	 SHORT $LN1@iwm_comman@3

; 978  : 		{
; 979  : 			//    hide	
; 980  : 			if( m_pPlayStage )

  00048	8b 8e 90 01 00
	00		 mov	 ecx, DWORD PTR [esi+400]
  0004e	85 c9		 test	 ecx, ecx
  00050	74 18		 je	 SHORT $LN16@iwm_comman@3

; 981  : 			{
; 982  : 				ioBaseChar *pOwner = m_pPlayStage->GetOwnerChar();

  00052	e8 00 00 00 00	 call	 ?GetOwnerChar@ioPlayStage@@QAEPAVioBaseChar@@XZ ; ioPlayStage::GetOwnerChar

; 983  : 				g_ExcavationMgr.OnExcavationBtnUp( pOwner );

  00057	50		 push	 eax
  00058	e8 00 00 00 00	 call	 ?GetSingleton@ioExcavationManager@@SAAAV1@XZ ; ioExcavationManager::GetSingleton
  0005d	8b c8		 mov	 ecx, eax
  0005f	e8 00 00 00 00	 call	 ?OnExcavationBtnUp@ioExcavationManager@@QAEXPAVioBaseChar@@@Z ; ioExcavationManager::OnExcavationBtnUp
$LN5@iwm_comman@3:

; 984  : 			}
; 985  : 		}
; 986  : 	case MESSAGE_BOX3: // g_GUIMgr.SetPrevMsgListBox() OR g_GUIMgr.SetPrevMsgListBoxWithTitle()
; 987  : 		if( cmd == IOBN_BTNUP )

  00064	83 7d 0c 11	 cmp	 DWORD PTR _cmd$[ebp], 17 ; 00000011H
  00068	75 44		 jne	 SHORT $LN1@iwm_comman@3
$LN16@iwm_comman@3:

; 988  : 		{
; 989  : 			if( param == IDYES )

  0006a	83 7d 10 06	 cmp	 DWORD PTR _param$[ebp], 6
  0006e	75 3e		 jne	 SHORT $LN1@iwm_comman@3

; 990  : 			{
; 991  : 				//   
; 992  : 				NewShopWnd *pNewShopWnd = dynamic_cast<NewShopWnd*>( g_GUIMgr.FindWnd( NEW_SHOP_WND ) );

  00070	6a 00		 push	 0
  00072	68 00 00 00 00	 push	 OFFSET ??_R0?AVNewShopWnd@@@8
  00077	68 00 00 00 00	 push	 OFFSET ??_R0?AVioWnd@@@8
  0007c	6a 00		 push	 0
  0007e	68 f8 17 00 00	 push	 6136			; 000017f8H
  00083	e8 00 00 00 00	 call	 ?GetSingleton@ioSP2GUIManager@@SAAAV1@XZ ; ioSP2GUIManager::GetSingleton
  00088	8b c8		 mov	 ecx, eax
  0008a	ff 15 00 00 00
	00		 call	 DWORD PTR __imp_?FindWnd@ioGUIManager@@QAEPAVioWnd@@K@Z
  00090	50		 push	 eax
  00091	e8 00 00 00 00	 call	 ___RTDynamicCast
  00096	8b f0		 mov	 esi, eax
  00098	83 c4 14	 add	 esp, 20			; 00000014H

; 993  : 				if( pNewShopWnd )

  0009b	85 f6		 test	 esi, esi
  0009d	74 0f		 je	 SHORT $LN1@iwm_comman@3

; 994  : 				{
; 995  : 					pNewShopWnd->ShowWnd();

  0009f	8b ce		 mov	 ecx, esi
  000a1	ff 15 00 00 00
	00		 call	 DWORD PTR __imp_?ShowWnd@ioWnd@@QAEXXZ

; 996  : 					pNewShopWnd->ShowEtcItemTab();

  000a7	8b ce		 mov	 ecx, esi
  000a9	e8 00 00 00 00	 call	 ?ShowEtcItemTab@NewShopWnd@@QAEXXZ ; NewShopWnd::ShowEtcItemTab
$LN1@iwm_comman@3:
  000ae	5e		 pop	 esi

; 997  : 				}
; 998  : 			}
; 999  : 		}
; 1000 : 		break;
; 1001 : 	}
; 1002 : }

  000af	5d		 pop	 ebp
  000b0	c2 0c 00	 ret	 12			; 0000000cH
?iwm_command@ExcavationSearchingWnd@@UAEXPAVioWnd@@HK@Z ENDP ; ExcavationSearchingWnd::iwm_command
_TEXT	ENDS
PUBLIC	?ProcessSuccessPercent@ExcavationSearchingWnd@@IAEXXZ ; ExcavationSearchingWnd::ProcessSuccessPercent
EXTRN	?GetObjectA@ioBaseChar@@QBEPAVioObjectItem@@XZ:PROC ; ioBaseChar::GetObjectA
EXTRN	__imp_?GetTotalSec@ioFrameTimer@@QAEKXZ:PROC
; Function compile flags: /Ogsp
;	COMDAT ?ProcessSuccessPercent@ExcavationSearchingWnd@@IAEXXZ
_TEXT	SEGMENT
$T548511 = -16						; size = 4
_iter$ = -12						; size = 4
tv234 = -8						; size = 4
_iCnt$ = -4						; size = 4
?ProcessSuccessPercent@ExcavationSearchingWnd@@IAEXXZ PROC ; ExcavationSearchingWnd::ProcessSuccessPercent, COMDAT
; _this$ = ecx

; 1330 : {

  00000	55		 push	 ebp
  00001	8b ec		 mov	 ebp, esp
  00003	83 ec 10	 sub	 esp, 16			; 00000010H
  00006	53		 push	 ebx

; 1331 : 	if( REALGETTIME() - m_dwCurSuccessPerCheckTime < m_dwSuccessPerCheckTime )

  00007	8b 1d 00 00 00
	00		 mov	 ebx, DWORD PTR __imp_?GetSingleton@ioFrameTimer@@SAAAV1@XZ
  0000d	56		 push	 esi
  0000e	57		 push	 edi
  0000f	8b f1		 mov	 esi, ecx
  00011	ff d3		 call	 ebx
  00013	8b 3d 00 00 00
	00		 mov	 edi, DWORD PTR __imp_?GetTotalSec@ioFrameTimer@@QAEKXZ
  00019	8b c8		 mov	 ecx, eax
  0001b	ff d7		 call	 edi
  0001d	2b 86 88 02 00
	00		 sub	 eax, DWORD PTR [esi+648]
  00023	3b 86 84 02 00
	00		 cmp	 eax, DWORD PTR [esi+644]
  00029	0f 82 ae 00 00
	00		 jb	 $LN1@ProcessSuc

; 1332 : 		return;
; 1333 : 	m_dwCurSuccessPerCheckTime = REALGETTIME();

  0002f	ff d3		 call	 ebx
  00031	8b c8		 mov	 ecx, eax
  00033	ff d7		 call	 edi

; 1334 : 
; 1335 : 	if( !m_pPlayStage )

  00035	8b be 90 01 00
	00		 mov	 edi, DWORD PTR [esi+400]
  0003b	89 86 88 02 00
	00		 mov	 DWORD PTR [esi+648], eax
  00041	89 7d f8	 mov	 DWORD PTR tv234[ebp], edi
  00044	85 ff		 test	 edi, edi
  00046	0f 84 91 00 00
	00		 je	 $LN1@ProcessSuc

; 1336 : 		return;
; 1337 : 
; 1338 : 	int iCnt = 0;

  0004c	83 65 fc 00	 and	 DWORD PTR _iCnt$[ebp], 0

; 1339 : 	const BaseCharList &rkTargetList = m_pPlayStage->GetBaseCharList();
; 1340 : 	BaseCharList::const_iterator iter;
; 1341 : 	for( iter = rkTargetList.begin(); iter != rkTargetList.end(); ++iter )

  00050	8b 47 2c	 mov	 eax, DWORD PTR [edi+44]
  00053	eb 47		 jmp	 SHORT $LN53@ProcessSuc
$LL52@ProcessSuc:

; 1342 : 	{
; 1343 : 		ioBaseChar *pChar = *iter;

  00055	8b 08		 mov	 ecx, DWORD PTR [eax]

; 1344 : 		if( !pChar ) 

  00057	85 c9		 test	 ecx, ecx
  00059	74 3b		 je	 SHORT $LN6@ProcessSuc

; 1345 : 			continue;
; 1346 : 
; 1347 : 		ioExcavationItem *pItem = ToExcavationItem( pChar->GetObject() );

  0005b	e8 00 00 00 00	 call	 ?GetObjectA@ioBaseChar@@QBEPAVioObjectItem@@XZ ; ioBaseChar::GetObjectA
  00060	50		 push	 eax
  00061	e8 00 00 00 00	 call	 ?ToExcavationItem@@YAPAVioExcavationItem@@PAVioItem@@@Z ; ToExcavationItem
  00066	59		 pop	 ecx

; 1348 : 		if( !pItem )

  00067	85 c0		 test	 eax, eax
  00069	74 2b		 je	 SHORT $LN6@ProcessSuc

; 1349 : 			continue;
; 1350 : 
; 1351 : 		DWORD dwPassedTime = REALGETTIME() - pItem->GetEquipTime();

  0006b	8b 80 c8 1b 00
	00		 mov	 eax, DWORD PTR [eax+7112]
  00071	89 45 f0	 mov	 DWORD PTR $T548511[ebp], eax
  00074	ff d3		 call	 ebx
  00076	8b c8		 mov	 ecx, eax
  00078	ff 15 00 00 00
	00		 call	 DWORD PTR __imp_?GetTotalSec@ioFrameTimer@@QAEKXZ
  0007e	8b f8		 mov	 edi, eax
  00080	2b 7d f0	 sub	 edi, DWORD PTR $T548511[ebp]

; 1352 : 		if( dwPassedTime >= (DWORD)g_ExcavationMgr.GetRealExcavatingUserTime() )

  00083	e8 00 00 00 00	 call	 ?GetSingleton@ioExcavationManager@@SAAAV1@XZ ; ioExcavationManager::GetSingleton
  00088	3b b8 68 14 00
	00		 cmp	 edi, DWORD PTR [eax+5224]

; 1353 : 			iCnt++;

  0008e	8b 7d f8	 mov	 edi, DWORD PTR tv234[ebp]
  00091	72 03		 jb	 SHORT $LN6@ProcessSuc
  00093	ff 45 fc	 inc	 DWORD PTR _iCnt$[ebp]
$LN6@ProcessSuc:

; 1339 : 	const BaseCharList &rkTargetList = m_pPlayStage->GetBaseCharList();
; 1340 : 	BaseCharList::const_iterator iter;
; 1341 : 	for( iter = rkTargetList.begin(); iter != rkTargetList.end(); ++iter )

  00096	8b 45 f4	 mov	 eax, DWORD PTR _iter$[ebp]
  00099	83 c0 04	 add	 eax, 4
$LN53@ProcessSuc:
  0009c	89 45 f4	 mov	 DWORD PTR _iter$[ebp], eax
  0009f	3b 47 30	 cmp	 eax, DWORD PTR [edi+48]
  000a2	75 b1		 jne	 SHORT $LL52@ProcessSuc

; 1354 : 	}
; 1355 : 
; 1356 : 	m_iCurSuccessPercent = iCnt * g_ExcavationMgr.GetSuccessRatePerOneUser();

  000a4	e8 00 00 00 00	 call	 ?GetSingleton@ioExcavationManager@@SAAAV1@XZ ; ioExcavationManager::GetSingleton
  000a9	8b 80 6c 14 00
	00		 mov	 eax, DWORD PTR [eax+5228]
  000af	0f af 45 fc	 imul	 eax, DWORD PTR _iCnt$[ebp]
  000b3	89 86 80 02 00
	00		 mov	 DWORD PTR [esi+640], eax

; 1357 : 	if( m_iCurSuccessPercent > g_ExcavationMgr.GetMaxSuccessRate() )

  000b9	e8 00 00 00 00	 call	 ?GetSingleton@ioExcavationManager@@SAAAV1@XZ ; ioExcavationManager::GetSingleton
  000be	8b 8e 80 02 00
	00		 mov	 ecx, DWORD PTR [esi+640]
  000c4	3b 88 70 14 00
	00		 cmp	 ecx, DWORD PTR [eax+5232]
  000ca	7e 11		 jle	 SHORT $LN1@ProcessSuc

; 1358 : 		m_iCurSuccessPercent = g_ExcavationMgr.GetMaxSuccessRate();

  000cc	e8 00 00 00 00	 call	 ?GetSingleton@ioExcavationManager@@SAAAV1@XZ ; ioExcavationManager::GetSingleton
  000d1	8b 80 70 14 00
	00		 mov	 eax, DWORD PTR [eax+5232]
  000d7	89 86 80 02 00
	00		 mov	 DWORD PTR [esi+640], eax
$LN1@ProcessSuc:
  000dd	5f		 pop	 edi
  000de	5e		 pop	 esi
  000df	5b		 pop	 ebx

; 1359 : }

  000e0	c9		 leave
  000e1	c3		 ret	 0
?ProcessSuccessPercent@ExcavationSearchingWnd@@IAEXXZ ENDP ; ExcavationSearchingWnd::ProcessSuccessPercent
_TEXT	ENDS
PUBLIC	??$_Insertion_sort@PAHVDistLevelSort@ExcavationSearchingWnd@@@std@@YAXPAH0VDistLevelSort@ExcavationSearchingWnd@@@Z ; std::_Insertion_sort<int *,ExcavationSearchingWnd::DistLevelSort>
; Function compile flags: /Ogsp
; File c:\program files (x86)\microsoft visual studio 10.0\vc\include\algorithm
;	COMDAT ??$_Insertion_sort@PAHVDistLevelSort@ExcavationSearchingWnd@@@std@@YAXPAH0VDistLevelSort@ExcavationSearchingWnd@@@Z
_TEXT	SEGMENT
__First$ = 8						; size = 4
__Last$ = 12						; size = 4
__Pred$ = 16						; size = 1
??$_Insertion_sort@PAHVDistLevelSort@ExcavationSearchingWnd@@@std@@YAXPAH0VDistLevelSort@ExcavationSearchingWnd@@@Z PROC ; std::_Insertion_sort<int *,ExcavationSearchingWnd::DistLevelSort>, COMDAT

; 3676 : 	{	// insertion sort [_First, _Last), using _Pred

  00000	55		 push	 ebp
  00001	8b ec		 mov	 ebp, esp

; 3677 : 	_Insertion_sort1(_First, _Last, _Pred, _Val_type(_First));

  00003	6a 00		 push	 0
  00005	ff 75 10	 push	 DWORD PTR __Pred$[ebp]
  00008	ff 75 0c	 push	 DWORD PTR __Last$[ebp]
  0000b	ff 75 08	 push	 DWORD PTR __First$[ebp]
  0000e	e8 00 00 00 00	 call	 ??$_Insertion_sort1@PAHVDistLevelSort@ExcavationSearchingWnd@@H@std@@YAXPAH0VDistLevelSort@ExcavationSearchingWnd@@0@Z ; std::_Insertion_sort1<int *,ExcavationSearchingWnd::DistLevelSort,int>
  00013	83 c4 10	 add	 esp, 16			; 00000010H

; 3678 : 	}

  00016	5d		 pop	 ebp
  00017	c3		 ret	 0
??$_Insertion_sort@PAHVDistLevelSort@ExcavationSearchingWnd@@@std@@YAXPAH0VDistLevelSort@ExcavationSearchingWnd@@@Z ENDP ; std::_Insertion_sort<int *,ExcavationSearchingWnd::DistLevelSort>
_TEXT	ENDS
PUBLIC	??$_Insertion_sort@PAH@std@@YAXPAH0@Z		; std::_Insertion_sort<int *>
; Function compile flags: /Ogsp
;	COMDAT ??$_Insertion_sort@PAH@std@@YAXPAH0@Z
_TEXT	SEGMENT
__First$ = 8						; size = 4
__Last$ = 12						; size = 4
??$_Insertion_sort@PAH@std@@YAXPAH0@Z PROC		; std::_Insertion_sort<int *>, COMDAT

; 3518 : 	{	// insertion sort [_First, _Last), using operator<

  00000	55		 push	 ebp
  00001	8b ec		 mov	 ebp, esp

; 3519 : 	_Insertion_sort1(_First, _Last, _Val_type(_First));

  00003	6a 00		 push	 0
  00005	ff 75 0c	 push	 DWORD PTR __Last$[ebp]
  00008	ff 75 08	 push	 DWORD PTR __First$[ebp]
  0000b	e8 00 00 00 00	 call	 ??$_Insertion_sort1@PAHH@std@@YAXPAH00@Z ; std::_Insertion_sort1<int *,int>
  00010	83 c4 0c	 add	 esp, 12			; 0000000cH

; 3520 : 	}

  00013	5d		 pop	 ebp
  00014	c3		 ret	 0
??$_Insertion_sort@PAH@std@@YAXPAH0@Z ENDP		; std::_Insertion_sort<int *>
_TEXT	ENDS
PUBLIC	??$_Median@PAHVDistLevelSort@ExcavationSearchingWnd@@@std@@YAXPAH00VDistLevelSort@ExcavationSearchingWnd@@@Z ; std::_Median<int *,ExcavationSearchingWnd::DistLevelSort>
; Function compile flags: /Ogsp
;	COMDAT ??$_Median@PAHVDistLevelSort@ExcavationSearchingWnd@@@std@@YAXPAH00VDistLevelSort@ExcavationSearchingWnd@@@Z
_TEXT	SEGMENT
tv200 = 8						; size = 4
__First$ = 8						; size = 4
__Mid$ = 12						; size = 4
tv203 = 16						; size = 4
__Last$ = 16						; size = 4
__Pred$ = 20						; size = 1
??$_Median@PAHVDistLevelSort@ExcavationSearchingWnd@@@std@@YAXPAH00VDistLevelSort@ExcavationSearchingWnd@@@Z PROC ; std::_Median<int *,ExcavationSearchingWnd::DistLevelSort>, COMDAT

; 3695 : 	{	// sort median element to middle

  00000	55		 push	 ebp
  00001	8b ec		 mov	 ebp, esp

; 3696 : 	if (40 < _Last - _First)

  00003	8b 4d 08	 mov	 ecx, DWORD PTR __First$[ebp]
  00006	57		 push	 edi
  00007	8b 7d 10	 mov	 edi, DWORD PTR __Last$[ebp]
  0000a	8b c7		 mov	 eax, edi
  0000c	2b c1		 sub	 eax, ecx
  0000e	c1 f8 02	 sar	 eax, 2
  00011	83 f8 28	 cmp	 eax, 40			; 00000028H
  00014	7e 6a		 jle	 SHORT $LN2@Median

; 3697 : 		{	// median of nine
; 3698 : 		size_t _Step = (_Last - _First + 1) / 8;

  00016	40		 inc	 eax
  00017	99		 cdq
  00018	83 e2 07	 and	 edx, 7
  0001b	53		 push	 ebx
  0001c	03 c2		 add	 eax, edx
  0001e	c1 f8 03	 sar	 eax, 3
  00021	56		 push	 esi

; 3699 : 		_Med3(_First, _First + _Step, _First + 2 * _Step, _Pred);

  00022	ff 75 14	 push	 DWORD PTR __Pred$[ebp]
  00025	8b d8		 mov	 ebx, eax
  00027	8b f0		 mov	 esi, eax
  00029	c1 e3 03	 shl	 ebx, 3
  0002c	8d 14 0b	 lea	 edx, DWORD PTR [ebx+ecx]
  0002f	c1 e6 02	 shl	 esi, 2
  00032	8d 04 0e	 lea	 eax, DWORD PTR [esi+ecx]
  00035	52		 push	 edx
  00036	50		 push	 eax
  00037	51		 push	 ecx
  00038	89 45 08	 mov	 DWORD PTR tv200[ebp], eax
  0003b	e8 00 00 00 00	 call	 ??$_Med3@PAHVDistLevelSort@ExcavationSearchingWnd@@@std@@YAXPAH00VDistLevelSort@ExcavationSearchingWnd@@@Z ; std::_Med3<int *,ExcavationSearchingWnd::DistLevelSort>

; 3700 : 		_Med3(_Mid - _Step, _Mid, _Mid + _Step, _Pred);

  00040	8b 45 0c	 mov	 eax, DWORD PTR __Mid$[ebp]
  00043	ff 75 14	 push	 DWORD PTR __Pred$[ebp]
  00046	8d 0c 06	 lea	 ecx, DWORD PTR [esi+eax]
  00049	51		 push	 ecx
  0004a	50		 push	 eax
  0004b	2b c6		 sub	 eax, esi
  0004d	50		 push	 eax
  0004e	e8 00 00 00 00	 call	 ??$_Med3@PAHVDistLevelSort@ExcavationSearchingWnd@@@std@@YAXPAH00VDistLevelSort@ExcavationSearchingWnd@@@Z ; std::_Med3<int *,ExcavationSearchingWnd::DistLevelSort>

; 3701 : 		_Med3(_Last - 2 * _Step, _Last - _Step, _Last, _Pred);

  00053	ff 75 14	 push	 DWORD PTR __Pred$[ebp]
  00056	89 7d 10	 mov	 DWORD PTR tv203[ebp], edi
  00059	29 75 10	 sub	 DWORD PTR tv203[ebp], esi
  0005c	57		 push	 edi
  0005d	ff 75 10	 push	 DWORD PTR tv203[ebp]
  00060	2b fb		 sub	 edi, ebx
  00062	57		 push	 edi
  00063	e8 00 00 00 00	 call	 ??$_Med3@PAHVDistLevelSort@ExcavationSearchingWnd@@@std@@YAXPAH00VDistLevelSort@ExcavationSearchingWnd@@@Z ; std::_Med3<int *,ExcavationSearchingWnd::DistLevelSort>

; 3702 : 		_Med3(_First + _Step, _Mid, _Last - _Step, _Pred);

  00068	ff 75 14	 push	 DWORD PTR __Pred$[ebp]
  0006b	ff 75 10	 push	 DWORD PTR tv203[ebp]
  0006e	ff 75 0c	 push	 DWORD PTR __Mid$[ebp]
  00071	ff 75 08	 push	 DWORD PTR tv200[ebp]
  00074	e8 00 00 00 00	 call	 ??$_Med3@PAHVDistLevelSort@ExcavationSearchingWnd@@@std@@YAXPAH00VDistLevelSort@ExcavationSearchingWnd@@@Z ; std::_Med3<int *,ExcavationSearchingWnd::DistLevelSort>
  00079	83 c4 40	 add	 esp, 64			; 00000040H
  0007c	5e		 pop	 esi
  0007d	5b		 pop	 ebx

; 3703 : 		}
; 3704 : 	else

  0007e	eb 10		 jmp	 SHORT $LN1@Median
$LN2@Median:

; 3705 : 		_Med3(_First, _Mid, _Last, _Pred);

  00080	ff 75 14	 push	 DWORD PTR __Pred$[ebp]
  00083	57		 push	 edi
  00084	ff 75 0c	 push	 DWORD PTR __Mid$[ebp]
  00087	51		 push	 ecx
  00088	e8 00 00 00 00	 call	 ??$_Med3@PAHVDistLevelSort@ExcavationSearchingWnd@@@std@@YAXPAH00VDistLevelSort@ExcavationSearchingWnd@@@Z ; std::_Med3<int *,ExcavationSearchingWnd::DistLevelSort>
  0008d	83 c4 10	 add	 esp, 16			; 00000010H
$LN1@Median:
  00090	5f		 pop	 edi

; 3706 : 	}

  00091	5d		 pop	 ebp
  00092	c3		 ret	 0
??$_Median@PAHVDistLevelSort@ExcavationSearchingWnd@@@std@@YAXPAH00VDistLevelSort@ExcavationSearchingWnd@@@Z ENDP ; std::_Median<int *,ExcavationSearchingWnd::DistLevelSort>
_TEXT	ENDS
PUBLIC	??$_Make_heap@PAHHHVDistLevelSort@ExcavationSearchingWnd@@@std@@YAXPAH0VDistLevelSort@ExcavationSearchingWnd@@00@Z ; std::_Make_heap<int *,int,int,ExcavationSearchingWnd::DistLevelSort>
; Function compile flags: /Ogsp
;	COMDAT ??$_Make_heap@PAHHHVDistLevelSort@ExcavationSearchingWnd@@@std@@YAXPAH0VDistLevelSort@ExcavationSearchingWnd@@00@Z
_TEXT	SEGMENT
__First$ = 8						; size = 4
__Val$540781 = 12					; size = 4
__Last$ = 12						; size = 4
__Pred$ = 16						; size = 1
___formal$ = 20						; size = 4
___formal$ = 24						; size = 4
??$_Make_heap@PAHHHVDistLevelSort@ExcavationSearchingWnd@@@std@@YAXPAH0VDistLevelSort@ExcavationSearchingWnd@@00@Z PROC ; std::_Make_heap<int *,int,int,ExcavationSearchingWnd::DistLevelSort>, COMDAT

; 2658 : 	{	// make nontrivial [_First, _Last) into a heap, using _Pred

  00000	55		 push	 ebp
  00001	8b ec		 mov	 ebp, esp
  00003	53		 push	 ebx

; 2659 : 	_Diff _Bottom = _Last - _First;

  00004	8b 5d 08	 mov	 ebx, DWORD PTR __First$[ebp]
  00007	56		 push	 esi
  00008	57		 push	 edi
  00009	8b 7d 0c	 mov	 edi, DWORD PTR __Last$[ebp]
  0000c	2b fb		 sub	 edi, ebx
  0000e	c1 ff 02	 sar	 edi, 2

; 2660 : 	for (_Diff _Hole = _Bottom / 2; 0 < _Hole; )

  00011	8b c7		 mov	 eax, edi
  00013	99		 cdq
  00014	2b c2		 sub	 eax, edx
  00016	8b f0		 mov	 esi, eax
  00018	d1 fe		 sar	 esi, 1
  0001a	eb 19		 jmp	 SHORT $LN11@Make_heap
$LL2@Make_heap:

; 2661 : 		{	// reheap top half, bottom to top
; 2662 : 		--_Hole;
; 2663 : 		_Ty _Val = _Move(*(_First + _Hole));
; 2664 : 		_Adjust_heap(_First, _Hole, _Bottom,
; 2665 : 			_Move(_Val), _Pred);

  0001c	ff 75 10	 push	 DWORD PTR __Pred$[ebp]
  0001f	4e		 dec	 esi
  00020	8b 04 b3	 mov	 eax, DWORD PTR [ebx+esi*4]
  00023	89 45 0c	 mov	 DWORD PTR __Val$540781[ebp], eax
  00026	8d 45 0c	 lea	 eax, DWORD PTR __Val$540781[ebp]
  00029	50		 push	 eax
  0002a	57		 push	 edi
  0002b	56		 push	 esi
  0002c	53		 push	 ebx
  0002d	e8 00 00 00 00	 call	 ??$_Adjust_heap@PAHHHVDistLevelSort@ExcavationSearchingWnd@@@std@@YAXPAHHH$$QAHVDistLevelSort@ExcavationSearchingWnd@@@Z ; std::_Adjust_heap<int *,int,int,ExcavationSearchingWnd::DistLevelSort>
  00032	83 c4 14	 add	 esp, 20			; 00000014H
$LN11@Make_heap:

; 2660 : 	for (_Diff _Hole = _Bottom / 2; 0 < _Hole; )

  00035	85 f6		 test	 esi, esi
  00037	7f e3		 jg	 SHORT $LL2@Make_heap
  00039	5f		 pop	 edi
  0003a	5e		 pop	 esi
  0003b	5b		 pop	 ebx

; 2666 : 		}
; 2667 : 	}

  0003c	5d		 pop	 ebp
  0003d	c3		 ret	 0
??$_Make_heap@PAHHHVDistLevelSort@ExcavationSearchingWnd@@@std@@YAXPAH0VDistLevelSort@ExcavationSearchingWnd@@00@Z ENDP ; std::_Make_heap<int *,int,int,ExcavationSearchingWnd::DistLevelSort>
_TEXT	ENDS
PUBLIC	??$_Median@PAH@std@@YAXPAH00@Z			; std::_Median<int *>
; Function compile flags: /Ogsp
;	COMDAT ??$_Median@PAH@std@@YAXPAH00@Z
_TEXT	SEGMENT
tv200 = 8						; size = 4
__First$ = 8						; size = 4
__Mid$ = 12						; size = 4
tv203 = 16						; size = 4
__Last$ = 16						; size = 4
??$_Median@PAH@std@@YAXPAH00@Z PROC			; std::_Median<int *>, COMDAT

; 3535 : 	{	// sort median element to middle

  00000	55		 push	 ebp
  00001	8b ec		 mov	 ebp, esp

; 3536 : 	if (40 < _Last - _First)

  00003	8b 4d 08	 mov	 ecx, DWORD PTR __First$[ebp]
  00006	57		 push	 edi
  00007	8b 7d 10	 mov	 edi, DWORD PTR __Last$[ebp]
  0000a	8b c7		 mov	 eax, edi
  0000c	2b c1		 sub	 eax, ecx
  0000e	c1 f8 02	 sar	 eax, 2
  00011	83 f8 28	 cmp	 eax, 40			; 00000028H
  00014	7e 5e		 jle	 SHORT $LN2@Median@2

; 3537 : 		{	// median of nine
; 3538 : 		size_t _Step = (_Last - _First + 1) / 8;

  00016	40		 inc	 eax
  00017	99		 cdq
  00018	83 e2 07	 and	 edx, 7
  0001b	03 c2		 add	 eax, edx
  0001d	53		 push	 ebx
  0001e	c1 f8 03	 sar	 eax, 3
  00021	56		 push	 esi

; 3539 : 		_Med3(_First, _First + _Step, _First + 2 * _Step);

  00022	8b d8		 mov	 ebx, eax
  00024	8b f0		 mov	 esi, eax
  00026	c1 e3 03	 shl	 ebx, 3
  00029	8d 14 0b	 lea	 edx, DWORD PTR [ebx+ecx]
  0002c	c1 e6 02	 shl	 esi, 2
  0002f	8d 04 0e	 lea	 eax, DWORD PTR [esi+ecx]
  00032	52		 push	 edx
  00033	50		 push	 eax
  00034	51		 push	 ecx
  00035	89 45 08	 mov	 DWORD PTR tv200[ebp], eax
  00038	e8 00 00 00 00	 call	 ??$_Med3@PAH@std@@YAXPAH00@Z ; std::_Med3<int *>

; 3540 : 		_Med3(_Mid - _Step, _Mid, _Mid + _Step);

  0003d	8b 45 0c	 mov	 eax, DWORD PTR __Mid$[ebp]
  00040	8d 0c 06	 lea	 ecx, DWORD PTR [esi+eax]
  00043	51		 push	 ecx
  00044	50		 push	 eax
  00045	2b c6		 sub	 eax, esi
  00047	50		 push	 eax
  00048	e8 00 00 00 00	 call	 ??$_Med3@PAH@std@@YAXPAH00@Z ; std::_Med3<int *>

; 3541 : 		_Med3(_Last - 2 * _Step, _Last - _Step, _Last);

  0004d	89 7d 10	 mov	 DWORD PTR tv203[ebp], edi
  00050	29 75 10	 sub	 DWORD PTR tv203[ebp], esi
  00053	57		 push	 edi
  00054	ff 75 10	 push	 DWORD PTR tv203[ebp]
  00057	2b fb		 sub	 edi, ebx
  00059	57		 push	 edi
  0005a	e8 00 00 00 00	 call	 ??$_Med3@PAH@std@@YAXPAH00@Z ; std::_Med3<int *>

; 3542 : 		_Med3(_First + _Step, _Mid, _Last - _Step);

  0005f	ff 75 10	 push	 DWORD PTR tv203[ebp]
  00062	ff 75 0c	 push	 DWORD PTR __Mid$[ebp]
  00065	ff 75 08	 push	 DWORD PTR tv200[ebp]
  00068	e8 00 00 00 00	 call	 ??$_Med3@PAH@std@@YAXPAH00@Z ; std::_Med3<int *>
  0006d	83 c4 30	 add	 esp, 48			; 00000030H
  00070	5e		 pop	 esi
  00071	5b		 pop	 ebx

; 3543 : 		}
; 3544 : 	else

  00072	eb 0d		 jmp	 SHORT $LN1@Median@2
$LN2@Median@2:

; 3545 : 		_Med3(_First, _Mid, _Last);

  00074	57		 push	 edi
  00075	ff 75 0c	 push	 DWORD PTR __Mid$[ebp]
  00078	51		 push	 ecx
  00079	e8 00 00 00 00	 call	 ??$_Med3@PAH@std@@YAXPAH00@Z ; std::_Med3<int *>
  0007e	83 c4 0c	 add	 esp, 12			; 0000000cH
$LN1@Median@2:
  00081	5f		 pop	 edi

; 3546 : 	}

  00082	5d		 pop	 ebp
  00083	c3		 ret	 0
??$_Median@PAH@std@@YAXPAH00@Z ENDP			; std::_Median<int *>
_TEXT	ENDS
PUBLIC	??$_Make_heap@PAHHH@std@@YAXPAH000@Z		; std::_Make_heap<int *,int,int>
; Function compile flags: /Ogsp
;	COMDAT ??$_Make_heap@PAHHH@std@@YAXPAH000@Z
_TEXT	SEGMENT
__First$ = 8						; size = 4
__Val$540841 = 12					; size = 4
__Last$ = 12						; size = 4
___formal$ = 16						; size = 4
___formal$ = 20						; size = 4
??$_Make_heap@PAHHH@std@@YAXPAH000@Z PROC		; std::_Make_heap<int *,int,int>, COMDAT

; 2631 : 	{	// make nontrivial [_First, _Last) into a heap, using operator<

  00000	55		 push	 ebp
  00001	8b ec		 mov	 ebp, esp
  00003	53		 push	 ebx

; 2632 : 	_Diff _Bottom = _Last - _First;

  00004	8b 5d 08	 mov	 ebx, DWORD PTR __First$[ebp]
  00007	56		 push	 esi
  00008	57		 push	 edi
  00009	8b 7d 0c	 mov	 edi, DWORD PTR __Last$[ebp]
  0000c	2b fb		 sub	 edi, ebx
  0000e	c1 ff 02	 sar	 edi, 2

; 2633 : 
; 2634 : 	for (_Diff _Hole = _Bottom / 2; 0 < _Hole; )

  00011	8b c7		 mov	 eax, edi
  00013	99		 cdq
  00014	2b c2		 sub	 eax, edx
  00016	8b f0		 mov	 esi, eax
  00018	d1 fe		 sar	 esi, 1
  0001a	eb 16		 jmp	 SHORT $LN11@Make_heap@2
$LL2@Make_heap@2:

; 2635 : 		{	// reheap top half, bottom to top
; 2636 : 		--_Hole;

  0001c	4e		 dec	 esi

; 2637 : 		_Ty _Val = _Move(*(_First + _Hole));

  0001d	8b 04 b3	 mov	 eax, DWORD PTR [ebx+esi*4]
  00020	89 45 0c	 mov	 DWORD PTR __Val$540841[ebp], eax

; 2638 : 		_Adjust_heap(_First, _Hole, _Bottom,
; 2639 : 			_Move(_Val));

  00023	8d 45 0c	 lea	 eax, DWORD PTR __Val$540841[ebp]
  00026	50		 push	 eax
  00027	57		 push	 edi
  00028	56		 push	 esi
  00029	53		 push	 ebx
  0002a	e8 00 00 00 00	 call	 ??$_Adjust_heap@PAHHH@std@@YAXPAHHH$$QAH@Z ; std::_Adjust_heap<int *,int,int>
  0002f	83 c4 10	 add	 esp, 16			; 00000010H
$LN11@Make_heap@2:

; 2633 : 
; 2634 : 	for (_Diff _Hole = _Bottom / 2; 0 < _Hole; )

  00032	85 f6		 test	 esi, esi
  00034	7f e6		 jg	 SHORT $LL2@Make_heap@2
  00036	5f		 pop	 edi
  00037	5e		 pop	 esi
  00038	5b		 pop	 ebx

; 2640 : 		}
; 2641 : 	}

  00039	5d		 pop	 ebp
  0003a	c3		 ret	 0
??$_Make_heap@PAHHH@std@@YAXPAH000@Z ENDP		; std::_Make_heap<int *,int,int>
_TEXT	ENDS
PUBLIC	??$_Pop_heap_0@PAHHVDistLevelSort@ExcavationSearchingWnd@@@std@@YAXPAH0VDistLevelSort@ExcavationSearchingWnd@@0@Z ; std::_Pop_heap_0<int *,int,ExcavationSearchingWnd::DistLevelSort>
; Function compile flags: /Ogsp
;	COMDAT ??$_Pop_heap_0@PAHHVDistLevelSort@ExcavationSearchingWnd@@@std@@YAXPAH0VDistLevelSort@ExcavationSearchingWnd@@0@Z
_TEXT	SEGMENT
__First$ = 8						; size = 4
__Val$ = 12						; size = 4
__Last$ = 12						; size = 4
__Pred$ = 16						; size = 1
___formal$ = 20						; size = 4
??$_Pop_heap_0@PAHHVDistLevelSort@ExcavationSearchingWnd@@@std@@YAXPAH0VDistLevelSort@ExcavationSearchingWnd@@0@Z PROC ; std::_Pop_heap_0<int *,int,ExcavationSearchingWnd::DistLevelSort>, COMDAT

; 2601 : 	{	// pop *_First to *(_Last - 1) and reheap, using _Pred

  00000	55		 push	 ebp
  00001	8b ec		 mov	 ebp, esp

; 2602 : 	_Ty _Val = _Move(*(_Last - 1));

  00003	8b 45 0c	 mov	 eax, DWORD PTR __Last$[ebp]
  00006	83 c0 fc	 add	 eax, -4			; fffffffcH
  00009	8b 08		 mov	 ecx, DWORD PTR [eax]

; 2603 : 	_Pop_heap(_First, _Last - 1, _Last - 1,
; 2604 : 		_Move(_Val), _Pred, _Dist_type(_First));

  0000b	6a 00		 push	 0
  0000d	ff 75 10	 push	 DWORD PTR __Pred$[ebp]
  00010	89 4d 0c	 mov	 DWORD PTR __Val$[ebp], ecx
  00013	8d 4d 0c	 lea	 ecx, DWORD PTR __Val$[ebp]
  00016	51		 push	 ecx
  00017	50		 push	 eax
  00018	50		 push	 eax
  00019	ff 75 08	 push	 DWORD PTR __First$[ebp]
  0001c	e8 00 00 00 00	 call	 ??$_Pop_heap@PAHHHVDistLevelSort@ExcavationSearchingWnd@@@std@@YAXPAH00$$QAHVDistLevelSort@ExcavationSearchingWnd@@0@Z ; std::_Pop_heap<int *,int,int,ExcavationSearchingWnd::DistLevelSort>
  00021	83 c4 18	 add	 esp, 24			; 00000018H

; 2605 : 	}

  00024	5d		 pop	 ebp
  00025	c3		 ret	 0
??$_Pop_heap_0@PAHHVDistLevelSort@ExcavationSearchingWnd@@@std@@YAXPAH0VDistLevelSort@ExcavationSearchingWnd@@0@Z ENDP ; std::_Pop_heap_0<int *,int,ExcavationSearchingWnd::DistLevelSort>
_TEXT	ENDS
PUBLIC	??$_Pop_heap_0@PAHH@std@@YAXPAH00@Z		; std::_Pop_heap_0<int *,int>
; Function compile flags: /Ogsp
;	COMDAT ??$_Pop_heap_0@PAHH@std@@YAXPAH00@Z
_TEXT	SEGMENT
__First$ = 8						; size = 4
__Val$ = 12						; size = 4
__Last$ = 12						; size = 4
___formal$ = 16						; size = 4
??$_Pop_heap_0@PAHH@std@@YAXPAH00@Z PROC		; std::_Pop_heap_0<int *,int>, COMDAT

; 2536 : 	{	// pop *_First to *(_Last - 1) and reheap, using operator<

  00000	55		 push	 ebp
  00001	8b ec		 mov	 ebp, esp

; 2537 : 	_Ty _Val = _Move(*(_Last - 1));

  00003	8b 45 0c	 mov	 eax, DWORD PTR __Last$[ebp]
  00006	83 c0 fc	 add	 eax, -4			; fffffffcH
  00009	8b 08		 mov	 ecx, DWORD PTR [eax]

; 2538 : 	_Pop_heap(_First, _Last - 1, _Last - 1,
; 2539 : 		_Move(_Val), _Dist_type(_First));

  0000b	6a 00		 push	 0
  0000d	89 4d 0c	 mov	 DWORD PTR __Val$[ebp], ecx
  00010	8d 4d 0c	 lea	 ecx, DWORD PTR __Val$[ebp]
  00013	51		 push	 ecx
  00014	50		 push	 eax
  00015	50		 push	 eax
  00016	ff 75 08	 push	 DWORD PTR __First$[ebp]
  00019	e8 00 00 00 00	 call	 ??$_Pop_heap@PAHHH@std@@YAXPAH00$$QAH0@Z ; std::_Pop_heap<int *,int,int>
  0001e	83 c4 14	 add	 esp, 20			; 00000014H

; 2540 : 	}

  00021	5d		 pop	 ebp
  00022	c3		 ret	 0
??$_Pop_heap_0@PAHH@std@@YAXPAH00@Z ENDP		; std::_Pop_heap_0<int *,int>
_TEXT	ENDS
PUBLIC	?erase@?$vector@HV?$allocator@H@std@@@std@@QAE?AV?$_Vector_iterator@V?$_Vector_val@HV?$allocator@H@std@@@std@@@2@V?$_Vector_const_iterator@V?$_Vector_val@HV?$allocator@H@std@@@std@@@2@0@Z ; std::vector<int,std::allocator<int> >::erase
; Function compile flags: /Ogsp
; File c:\program files (x86)\microsoft visual studio 10.0\vc\include\vector
;	COMDAT ?erase@?$vector@HV?$allocator@H@std@@@std@@QAE?AV?$_Vector_iterator@V?$_Vector_val@HV?$allocator@H@std@@@std@@@2@V?$_Vector_const_iterator@V?$_Vector_val@HV?$allocator@H@std@@@std@@@2@0@Z
_TEXT	SEGMENT
___$ReturnUdt$ = 8					; size = 4
__First_arg$ = 12					; size = 4
__Cat$548671 = 16					; size = 1
__Last_arg$ = 16					; size = 4
?erase@?$vector@HV?$allocator@H@std@@@std@@QAE?AV?$_Vector_iterator@V?$_Vector_val@HV?$allocator@H@std@@@std@@@2@V?$_Vector_const_iterator@V?$_Vector_val@HV?$allocator@H@std@@@std@@@2@0@Z PROC ; std::vector<int,std::allocator<int> >::erase, COMDAT
; _this$ = ecx

; 1190 : 		{	// erase [_First, _Last)

  00000	55		 push	 ebp
  00001	8b ec		 mov	 ebp, esp

; 1191 : 		iterator _First = _Make_iter(_First_arg);

  00003	8b 45 0c	 mov	 eax, DWORD PTR __First_arg$[ebp]
  00006	56		 push	 esi
  00007	57		 push	 edi
  00008	8b 7d 08	 mov	 edi, DWORD PTR ___$ReturnUdt$[ebp]
  0000b	8b f1		 mov	 esi, ecx
  0000d	89 07		 mov	 DWORD PTR [edi], eax

; 1192 : 		iterator _Last = _Make_iter(_Last_arg);
; 1193 : 
; 1194 : 		if (_First != _Last)

  0000f	3b 45 10	 cmp	 eax, DWORD PTR __Last_arg$[ebp]
  00012	74 16		 je	 SHORT $LN1@erase

; 1195 : 			{	// worth doing, copy down over hole
; 1196 :  #if _ITERATOR_DEBUG_LEVEL == 2
; 1197 : 			if (_Last < _First || _VICONT(_First) != this
; 1198 : 				|| _VIPTR(_First) < this->_Myfirst
; 1199 : 				|| this->_Mylast < _VIPTR(_Last))
; 1200 : 				_DEBUG_ERROR("vector erase iterator outside range");
; 1201 : 			pointer _Ptr = _Move(_VIPTR(_Last), this->_Mylast,
; 1202 : 				_VIPTR(_First));
; 1203 : 			_Orphan_range(_VIPTR(_First), this->_Mylast);
; 1204 : 
; 1205 :  #else /* _ITERATOR_DEBUG_LEVEL == 2 */
; 1206 : 			pointer _Ptr = _Move(_VIPTR(_Last), this->_Mylast,
; 1207 : 				_VIPTR(_First));

  00014	ff 75 10	 push	 DWORD PTR __Cat$548671[ebp]
  00017	8b 4e 04	 mov	 ecx, DWORD PTR [esi+4]
  0001a	50		 push	 eax
  0001b	51		 push	 ecx
  0001c	ff 75 10	 push	 DWORD PTR __Last_arg$[ebp]
  0001f	e8 00 00 00 00	 call	 ??$_Move@PAHPAH@std@@YAPAHPAH00U_Scalar_ptr_iterator_tag@0@@Z ; std::_Move<int *,int *>
  00024	83 c4 10	 add	 esp, 16			; 00000010H

; 1208 :  #endif /* _ITERATOR_DEBUG_LEVEL == 2 */
; 1209 : 
; 1210 : 			_Destroy(_Ptr, this->_Mylast);
; 1211 : 			this->_Mylast = _Ptr;

  00027	89 46 04	 mov	 DWORD PTR [esi+4], eax
$LN1@erase:

; 1212 : 			}
; 1213 : 		return (_First);

  0002a	8b c7		 mov	 eax, edi
  0002c	5f		 pop	 edi
  0002d	5e		 pop	 esi

; 1214 : 		}

  0002e	5d		 pop	 ebp
  0002f	c2 0c 00	 ret	 12			; 0000000cH
?erase@?$vector@HV?$allocator@H@std@@@std@@QAE?AV?$_Vector_iterator@V?$_Vector_val@HV?$allocator@H@std@@@std@@@2@V?$_Vector_const_iterator@V?$_Vector_val@HV?$allocator@H@std@@@std@@@2@0@Z ENDP ; std::vector<int,std::allocator<int> >::erase
_TEXT	ENDS
PUBLIC	?_Tidy@?$vector@HV?$allocator@H@std@@@std@@IAEXXZ ; std::vector<int,std::allocator<int> >::_Tidy
EXTRN	__imp_?_Orphan_all@_Container_base0@std@@QAEXXZ:PROC
; Function compile flags: /Ogsp
;	COMDAT ?_Tidy@?$vector@HV?$allocator@H@std@@@std@@IAEXXZ
_TEXT	SEGMENT
?_Tidy@?$vector@HV?$allocator@H@std@@@std@@IAEXXZ PROC	; std::vector<int,std::allocator<int> >::_Tidy, COMDAT
; _this$ = ecx

; 1301 : 		{	// free all storage

  00000	56		 push	 esi
  00001	8b f1		 mov	 esi, ecx

; 1302 : 		if (this->_Myfirst != 0)

  00003	83 3e 00	 cmp	 DWORD PTR [esi], 0
  00006	74 0e		 je	 SHORT $LN12@Tidy

; 1303 : 			{	// something to free, destroy and deallocate it
; 1304 : 			this->_Orphan_all();

  00008	ff 15 00 00 00
	00		 call	 DWORD PTR __imp_?_Orphan_all@_Container_base0@std@@QAEXXZ

; 1305 : 			_Destroy(this->_Myfirst, this->_Mylast);
; 1306 : 			this->_Alval.deallocate(this->_Myfirst,
; 1307 : 				this->_Myend - this->_Myfirst);

  0000e	ff 36		 push	 DWORD PTR [esi]
  00010	e8 00 00 00 00	 call	 ??3@YAXPAX@Z		; operator delete
  00015	59		 pop	 ecx
$LN12@Tidy:

; 1308 : 			}
; 1309 : 		this->_Myfirst = 0;

  00016	83 26 00	 and	 DWORD PTR [esi], 0

; 1310 : 		this->_Mylast = 0;

  00019	83 66 04 00	 and	 DWORD PTR [esi+4], 0

; 1311 : 		this->_Myend = 0;

  0001d	83 66 08 00	 and	 DWORD PTR [esi+8], 0
  00021	5e		 pop	 esi

; 1312 : 		}

  00022	c3		 ret	 0
?_Tidy@?$vector@HV?$allocator@H@std@@@std@@IAEXXZ ENDP	; std::vector<int,std::allocator<int> >::_Tidy
_TEXT	ENDS
PUBLIC	?reserve@?$vector@HV?$allocator@H@std@@@std@@QAEXI@Z ; std::vector<int,std::allocator<int> >::reserve
; Function compile flags: /Ogsp
;	COMDAT ?reserve@?$vector@HV?$allocator@H@std@@@std@@QAEXI@Z
_TEXT	SEGMENT
__Count$ = 8						; size = 4
?reserve@?$vector@HV?$allocator@H@std@@@std@@QAEXI@Z PROC ; std::vector<int,std::allocator<int> >::reserve, COMDAT
; _this$ = ecx

; 746  : 		{	// determine new minimum length of allocated storage

  00000	55		 push	 ebp
  00001	8b ec		 mov	 ebp, esp

; 747  : 		if (max_size() < _Count)

  00003	81 7d 08 ff ff
	ff 3f		 cmp	 DWORD PTR __Count$[ebp], 1073741823 ; 3fffffffH
  0000a	56		 push	 esi
  0000b	8b f1		 mov	 esi, ecx
  0000d	76 0b		 jbe	 SHORT $LN5@reserve

; 748  : 			_Xlen();	// result too long

  0000f	68 00 00 00 00	 push	 OFFSET ??_C@_0BD@OLBABOEK@vector?$DMT?$DO?5too?5long?$AA@
  00014	ff 15 00 00 00
	00		 call	 DWORD PTR __imp_?_Xlength_error@std@@YAXPBD@Z
$LN43@reserve:
$LN5@reserve:

; 749  : 		else if (capacity() < _Count)

  0001a	8b 46 08	 mov	 eax, DWORD PTR [esi+8]
  0001d	2b 06		 sub	 eax, DWORD PTR [esi]
  0001f	c1 f8 02	 sar	 eax, 2
  00022	3b 45 08	 cmp	 eax, DWORD PTR __Count$[ebp]
  00025	73 52		 jae	 SHORT $LN3@reserve

; 750  : 			{	// not enough room, reallocate
; 751  : 			pointer _Ptr = this->_Alval.allocate(_Count);

  00027	53		 push	 ebx
  00028	57		 push	 edi
  00029	6a 00		 push	 0
  0002b	ff 75 08	 push	 DWORD PTR __Count$[ebp]
  0002e	e8 00 00 00 00	 call	 ??$_Allocate@H@std@@YAPAHIPAH@Z ; std::_Allocate<int>

; 752  : 
; 753  : 			_TRY_BEGIN
; 754  : 			_Umove(this->_Myfirst, this->_Mylast, _Ptr);

  00033	8b 0e		 mov	 ecx, DWORD PTR [esi]
  00035	8d 56 0c	 lea	 edx, DWORD PTR [esi+12]
  00038	52		 push	 edx
  00039	8b d8		 mov	 ebx, eax
  0003b	8b 46 04	 mov	 eax, DWORD PTR [esi+4]
  0003e	53		 push	 ebx
  0003f	50		 push	 eax
  00040	51		 push	 ecx
  00041	e8 00 00 00 00	 call	 ??$_Uninitialized_move@PAHPAHV?$allocator@H@std@@@std@@YAPAHPAH00AAV?$allocator@H@0@@Z ; std::_Uninitialized_move<int *,int *,std::allocator<int> >

; 755  : 			_CATCH_ALL
; 756  : 			this->_Alval.deallocate(_Ptr, _Count);
; 757  : 			_RERAISE;
; 758  : 			_CATCH_END
; 759  : 
; 760  : 			size_type _Size = size();

  00046	8b 06		 mov	 eax, DWORD PTR [esi]
  00048	8b 7e 04	 mov	 edi, DWORD PTR [esi+4]
  0004b	2b f8		 sub	 edi, eax
  0004d	83 c4 18	 add	 esp, 24			; 00000018H
  00050	c1 ff 02	 sar	 edi, 2

; 761  : 			if (this->_Myfirst != 0)

  00053	85 c0		 test	 eax, eax
  00055	74 07		 je	 SHORT $LN39@reserve

; 762  : 				{	// destroy and deallocate old array
; 763  : 				_Destroy(this->_Myfirst, this->_Mylast);
; 764  : 				this->_Alval.deallocate(this->_Myfirst,
; 765  : 					this->_Myend - this->_Myfirst);

  00057	50		 push	 eax
  00058	e8 00 00 00 00	 call	 ??3@YAXPAX@Z		; operator delete
  0005d	59		 pop	 ecx
$LN39@reserve:

; 766  : 				}
; 767  : 
; 768  : 			this->_Orphan_all();

  0005e	8b ce		 mov	 ecx, esi
  00060	ff 15 00 00 00
	00		 call	 DWORD PTR __imp_?_Orphan_all@_Container_base0@std@@QAEXXZ

; 769  : 			this->_Myend = _Ptr + _Count;

  00066	8b 45 08	 mov	 eax, DWORD PTR __Count$[ebp]
  00069	8d 04 83	 lea	 eax, DWORD PTR [ebx+eax*4]
  0006c	89 46 08	 mov	 DWORD PTR [esi+8], eax

; 770  : 			this->_Mylast = _Ptr + _Size;

  0006f	8d 04 bb	 lea	 eax, DWORD PTR [ebx+edi*4]
  00072	5f		 pop	 edi

; 771  : 			this->_Myfirst = _Ptr;

  00073	89 1e		 mov	 DWORD PTR [esi], ebx
  00075	89 46 04	 mov	 DWORD PTR [esi+4], eax
  00078	5b		 pop	 ebx
$LN3@reserve:
  00079	5e		 pop	 esi

; 772  : 			}
; 773  : 		}

  0007a	5d		 pop	 ebp
  0007b	c2 04 00	 ret	 4
$LN42@reserve:
?reserve@?$vector@HV?$allocator@H@std@@@std@@QAEXI@Z ENDP ; std::vector<int,std::allocator<int> >::reserve
; Function compile flags: /Ogsp
; File d:\lost saga for developer\youtube\tutorial\source\src\lsclient\gui\excavationwnd.cpp
_TEXT	ENDS
;	COMDAT ?OnProcess@ExcavatingBtn@@MAEXM@Z
_TEXT	SEGMENT
_fTimePerSec$ = 8					; size = 4
?OnProcess@ExcavatingBtn@@MAEXM@Z PROC			; ExcavatingBtn::OnProcess, COMDAT
; _this$ = ecx

; 705  : {

  00000	56		 push	 esi
  00001	8b f1		 mov	 esi, ecx

; 706  : 	if( !IsShow() ) return;

  00003	ff 15 00 00 00
	00		 call	 DWORD PTR __imp_?IsShow@ioWnd@@QBE_NXZ
  00009	84 c0		 test	 al, al
  0000b	74 15		 je	 SHORT $LN2@OnProcess@2

; 707  : 
; 708  : 	ProcessScale();

  0000d	8b ce		 mov	 ecx, esi
  0000f	e8 00 00 00 00	 call	 ?ProcessScale@ExcavatingBtn@@IAEXXZ ; ExcavatingBtn::ProcessScale

; 709  : 	ProcessGaugeIcon();

  00014	8b ce		 mov	 ecx, esi
  00016	e8 00 00 00 00	 call	 ?ProcessGaugeIcon@ExcavatingBtn@@IAEXXZ ; ExcavatingBtn::ProcessGaugeIcon

; 710  : 	UpdateAttackKeyImage();

  0001b	8b ce		 mov	 ecx, esi
  0001d	e8 00 00 00 00	 call	 ?UpdateAttackKeyImage@ExcavatingBtn@@IAEXXZ ; ExcavatingBtn::UpdateAttackKeyImage
$LN2@OnProcess@2:
  00022	5e		 pop	 esi

; 711  : }

  00023	c2 04 00	 ret	 4
?OnProcess@ExcavatingBtn@@MAEXM@Z ENDP			; ExcavatingBtn::OnProcess
_TEXT	ENDS
PUBLIC	??$_Unguarded_partition@PAHVDistLevelSort@ExcavationSearchingWnd@@@std@@YA?AU?$pair@PAHPAH@0@PAH0VDistLevelSort@ExcavationSearchingWnd@@@Z ; std::_Unguarded_partition<int *,ExcavationSearchingWnd::DistLevelSort>
; Function compile flags: /Ogsp
; File c:\program files (x86)\microsoft visual studio 10.0\vc\include\algorithm
;	COMDAT ??$_Unguarded_partition@PAHVDistLevelSort@ExcavationSearchingWnd@@@std@@YA?AU?$pair@PAHPAH@0@PAH0VDistLevelSort@ExcavationSearchingWnd@@@Z
_TEXT	SEGMENT
__Tmp$549026 = -8					; size = 4
__Tmp$548879 = -8					; size = 4
__Glast$ = -4						; size = 4
___$ReturnUdt$ = 8					; size = 4
__First$ = 12						; size = 4
__Last$ = 16						; size = 4
__Pred$ = 20						; size = 1
??$_Unguarded_partition@PAHVDistLevelSort@ExcavationSearchingWnd@@@std@@YA?AU?$pair@PAHPAH@0@PAH0VDistLevelSort@ExcavationSearchingWnd@@@Z PROC ; std::_Unguarded_partition<int *,ExcavationSearchingWnd::DistLevelSort>, COMDAT

; 3712 : 	{	// partition [_First, _Last), using _Pred

  00000	55		 push	 ebp
  00001	8b ec		 mov	 ebp, esp
  00003	51		 push	 ecx
  00004	51		 push	 ecx

; 3713 : 	_RanIt _Mid = _First + (_Last - _First) / 2;

  00005	8b 4d 10	 mov	 ecx, DWORD PTR __Last$[ebp]
  00008	53		 push	 ebx
  00009	8b 5d 0c	 mov	 ebx, DWORD PTR __First$[ebp]
  0000c	8b c1		 mov	 eax, ecx
  0000e	2b c3		 sub	 eax, ebx
  00010	56		 push	 esi
  00011	c1 f8 02	 sar	 eax, 2
  00014	99		 cdq
  00015	57		 push	 edi

; 3714 : 	_Median(_First, _Mid, _Last - 1, _Pred);

  00016	ff 75 14	 push	 DWORD PTR __Pred$[ebp]
  00019	2b c2		 sub	 eax, edx
  0001b	d1 f8		 sar	 eax, 1
  0001d	83 c1 fc	 add	 ecx, -4			; fffffffcH
  00020	51		 push	 ecx
  00021	8d 34 83	 lea	 esi, DWORD PTR [ebx+eax*4]
  00024	56		 push	 esi
  00025	53		 push	 ebx
  00026	e8 00 00 00 00	 call	 ??$_Median@PAHVDistLevelSort@ExcavationSearchingWnd@@@std@@YAXPAH00VDistLevelSort@ExcavationSearchingWnd@@@Z ; std::_Median<int *,ExcavationSearchingWnd::DistLevelSort>
  0002b	83 c4 10	 add	 esp, 16			; 00000010H

; 3715 : 	_RanIt _Pfirst = _Mid;

  0002e	8b ce		 mov	 ecx, esi

; 3716 : 	_RanIt _Plast = _Pfirst + 1;

  00030	8d 56 04	 lea	 edx, DWORD PTR [esi+4]

; 3717 : 
; 3718 : 	while (_First < _Pfirst
; 3719 : 		&& !_DEBUG_LT_PRED(_Pred, *(_Pfirst - 1), *_Pfirst)
; 3720 : 		&& !_Pred(*_Pfirst, *(_Pfirst - 1)))

  00033	3b de		 cmp	 ebx, esi
  00035	73 12		 jae	 SHORT $LN160@Unguarded_
$LL27@Unguarded_:
  00037	8b 71 fc	 mov	 esi, DWORD PTR [ecx-4]
  0003a	8b 39		 mov	 edi, DWORD PTR [ecx]
  0003c	3b fe		 cmp	 edi, esi
  0003e	7c 09		 jl	 SHORT $LN160@Unguarded_
  00040	7f 07		 jg	 SHORT $LN160@Unguarded_

; 3721 : 		--_Pfirst;

  00042	83 c1 fc	 add	 ecx, -4			; fffffffcH
  00045	3b d9		 cmp	 ebx, ecx
  00047	72 ee		 jb	 SHORT $LL27@Unguarded_
$LN160@Unguarded_:

; 3722 : 	while (_Plast < _Last
; 3723 : 		&& !_DEBUG_LT_PRED(_Pred, *_Plast, *_Pfirst)
; 3724 : 		&& !_Pred(*_Pfirst, *_Plast))

  00049	3b 55 10	 cmp	 edx, DWORD PTR __Last$[ebp]
  0004c	73 12		 jae	 SHORT $LN152@Unguarded_
  0004e	8b 31		 mov	 esi, DWORD PTR [ecx]
$LL25@Unguarded_:
  00050	8b 02		 mov	 eax, DWORD PTR [edx]
  00052	3b f0		 cmp	 esi, eax
  00054	7c 0a		 jl	 SHORT $LN152@Unguarded_
  00056	7f 08		 jg	 SHORT $LN152@Unguarded_

; 3725 : 		++_Plast;

  00058	83 c2 04	 add	 edx, 4
  0005b	3b 55 10	 cmp	 edx, DWORD PTR __Last$[ebp]
  0005e	72 f0		 jb	 SHORT $LL25@Unguarded_
$LN152@Unguarded_:

; 3726 : 
; 3727 : 	_RanIt _Gfirst = _Plast;
; 3728 : 	_RanIt _Glast = _Pfirst;

  00060	8b f1		 mov	 esi, ecx
  00062	8b c2		 mov	 eax, edx
  00064	89 75 fc	 mov	 DWORD PTR __Glast$[ebp], esi

; 3729 : 
; 3730 : 	for (; ; )
; 3731 : 		{	// partition
; 3732 : 		for (; _Gfirst < _Last; ++_Gfirst)

  00067	eb 20		 jmp	 SHORT $LN161@Unguarded_
$LL21@Unguarded_:

; 3733 : 			if (_DEBUG_LT_PRED(_Pred, *_Pfirst, *_Gfirst))

  00069	8b 39		 mov	 edi, DWORD PTR [ecx]
  0006b	8b 18		 mov	 ebx, DWORD PTR [eax]
  0006d	3b df		 cmp	 ebx, edi
  0006f	7c 15		 jl	 SHORT $LN20@Unguarded_

; 3734 : 				;
; 3735 : 			else if (_Pred(*_Gfirst, *_Pfirst))

  00071	7f 38		 jg	 SHORT $LN162@Unguarded_

; 3736 : 				break;
; 3737 : 			else
; 3738 : 				_STD iter_swap(_Plast++, _Gfirst);

  00073	8b fa		 mov	 edi, edx
  00075	8b 1f		 mov	 ebx, DWORD PTR [edi]
  00077	89 5d f8	 mov	 DWORD PTR __Tmp$548879[ebp], ebx
  0007a	8b 18		 mov	 ebx, DWORD PTR [eax]
  0007c	89 1f		 mov	 DWORD PTR [edi], ebx
  0007e	8b 7d f8	 mov	 edi, DWORD PTR __Tmp$548879[ebp]
  00081	89 38		 mov	 DWORD PTR [eax], edi
$LN163@Unguarded_:
  00083	83 c2 04	 add	 edx, 4
$LN20@Unguarded_:

; 3729 : 
; 3730 : 	for (; ; )
; 3731 : 		{	// partition
; 3732 : 		for (; _Gfirst < _Last; ++_Gfirst)

  00086	83 c0 04	 add	 eax, 4
$LN161@Unguarded_:
  00089	3b 45 10	 cmp	 eax, DWORD PTR __Last$[ebp]
  0008c	72 db		 jb	 SHORT $LL21@Unguarded_

; 3739 : 		for (; _First < _Glast; --_Glast)

  0008e	eb 1b		 jmp	 SHORT $LN162@Unguarded_
$LL14@Unguarded_:

; 3740 : 			if (_DEBUG_LT_PRED(_Pred, *(_Glast - 1), *_Pfirst))

  00090	8b 19		 mov	 ebx, DWORD PTR [ecx]
  00092	83 c6 fc	 add	 esi, -4			; fffffffcH
  00095	8b 3e		 mov	 edi, DWORD PTR [esi]
  00097	3b df		 cmp	 ebx, edi
  00099	7c 0d		 jl	 SHORT $LN13@Unguarded_

; 3741 : 				;
; 3742 : 			else if (_Pred(*_Pfirst, *(_Glast - 1)))

  0009b	7f 15		 jg	 SHORT $LN156@Unguarded_

; 3743 : 				break;
; 3744 : 			else
; 3745 : 				_STD iter_swap(--_Pfirst, _Glast - 1);

  0009d	8b 1e		 mov	 ebx, DWORD PTR [esi]
  0009f	83 e9 04	 sub	 ecx, 4
  000a2	8b 39		 mov	 edi, DWORD PTR [ecx]
  000a4	89 19		 mov	 DWORD PTR [ecx], ebx
  000a6	89 3e		 mov	 DWORD PTR [esi], edi
$LN13@Unguarded_:

; 3739 : 		for (; _First < _Glast; --_Glast)

  000a8	89 75 fc	 mov	 DWORD PTR __Glast$[ebp], esi
$LN162@Unguarded_:
  000ab	39 75 0c	 cmp	 DWORD PTR __First$[ebp], esi
  000ae	72 e0		 jb	 SHORT $LL14@Unguarded_
  000b0	eb 03		 jmp	 SHORT $LN157@Unguarded_
$LN156@Unguarded_:
  000b2	8b 75 fc	 mov	 esi, DWORD PTR __Glast$[ebp]
$LN157@Unguarded_:

; 3746 : 		if (_Glast == _First && _Gfirst == _Last)

  000b5	3b 75 0c	 cmp	 esi, DWORD PTR __First$[ebp]
  000b8	75 2b		 jne	 SHORT $LN6@Unguarded_
  000ba	3b 45 10	 cmp	 eax, DWORD PTR __Last$[ebp]
  000bd	74 5d		 je	 SHORT $LN144@Unguarded_

; 3748 : 
; 3749 : 		if (_Glast == _First)
; 3750 : 			{	// no room at bottom, rotate pivot upward
; 3751 : 			if (_Plast != _Gfirst)

  000bf	3b d0		 cmp	 edx, eax
  000c1	74 08		 je	 SHORT $LN88@Unguarded_

; 3752 : 				_STD iter_swap(_Pfirst, _Plast);

  000c3	8b 3a		 mov	 edi, DWORD PTR [edx]
  000c5	8b 31		 mov	 esi, DWORD PTR [ecx]
  000c7	89 39		 mov	 DWORD PTR [ecx], edi
  000c9	89 32		 mov	 DWORD PTR [edx], esi
$LN88@Unguarded_:

; 3753 : 			++_Plast;
; 3754 : 			_STD iter_swap(_Pfirst++, _Gfirst++);

  000cb	8b f1		 mov	 esi, ecx
  000cd	8b 1e		 mov	 ebx, DWORD PTR [esi]
  000cf	8b f8		 mov	 edi, eax
  000d1	89 5d f8	 mov	 DWORD PTR __Tmp$549026[ebp], ebx
  000d4	8b 1f		 mov	 ebx, DWORD PTR [edi]
  000d6	89 1e		 mov	 DWORD PTR [esi], ebx
  000d8	8b 75 f8	 mov	 esi, DWORD PTR __Tmp$549026[ebp]
  000db	89 37		 mov	 DWORD PTR [edi], esi
  000dd	8b 75 fc	 mov	 esi, DWORD PTR __Glast$[ebp]
  000e0	83 c1 04	 add	 ecx, 4
  000e3	eb 9e		 jmp	 SHORT $LN163@Unguarded_
$LN6@Unguarded_:

; 3755 : 			}
; 3756 : 		else if (_Gfirst == _Last)
; 3757 : 			{	// no room at top, rotate pivot downward
; 3758 : 			if (--_Glast != --_Pfirst)

  000e5	83 ee 04	 sub	 esi, 4
  000e8	89 75 fc	 mov	 DWORD PTR __Glast$[ebp], esi
  000eb	3b 45 10	 cmp	 eax, DWORD PTR __Last$[ebp]
  000ee	75 1f		 jne	 SHORT $LN3@Unguarded_
  000f0	83 e9 04	 sub	 ecx, 4
  000f3	3b f1		 cmp	 esi, ecx
  000f5	74 08		 je	 SHORT $LN108@Unguarded_

; 3759 : 				_STD iter_swap(_Glast, _Pfirst);

  000f7	8b 19		 mov	 ebx, DWORD PTR [ecx]
  000f9	8b 3e		 mov	 edi, DWORD PTR [esi]
  000fb	89 1e		 mov	 DWORD PTR [esi], ebx
  000fd	89 39		 mov	 DWORD PTR [ecx], edi
$LN108@Unguarded_:

; 3760 : 			_STD iter_swap(_Pfirst, --_Plast);

  000ff	8b 39		 mov	 edi, DWORD PTR [ecx]
  00101	83 ea 04	 sub	 edx, 4
  00104	8b 1a		 mov	 ebx, DWORD PTR [edx]
  00106	89 19		 mov	 DWORD PTR [ecx], ebx
  00108	89 3a		 mov	 DWORD PTR [edx], edi

; 3761 : 			}
; 3762 : 		else

  0010a	e9 7a ff ff ff	 jmp	 $LN161@Unguarded_
$LN3@Unguarded_:

; 3763 : 			_STD iter_swap(_Gfirst++, --_Glast);

  0010f	8b 1e		 mov	 ebx, DWORD PTR [esi]
  00111	8b 38		 mov	 edi, DWORD PTR [eax]
  00113	89 18		 mov	 DWORD PTR [eax], ebx
  00115	89 3e		 mov	 DWORD PTR [esi], edi

; 3764 : 		}

  00117	e9 6a ff ff ff	 jmp	 $LN20@Unguarded_
$LN144@Unguarded_:

; 3747 : 			return (_STD pair<_RanIt, _RanIt>(_Pfirst, _Plast));

  0011c	8b 45 08	 mov	 eax, DWORD PTR ___$ReturnUdt$[ebp]
  0011f	5f		 pop	 edi
  00120	5e		 pop	 esi
  00121	89 08		 mov	 DWORD PTR [eax], ecx
  00123	89 50 04	 mov	 DWORD PTR [eax+4], edx
  00126	5b		 pop	 ebx

; 3765 : 	}

  00127	c9		 leave
  00128	c3		 ret	 0
??$_Unguarded_partition@PAHVDistLevelSort@ExcavationSearchingWnd@@@std@@YA?AU?$pair@PAHPAH@0@PAH0VDistLevelSort@ExcavationSearchingWnd@@@Z ENDP ; std::_Unguarded_partition<int *,ExcavationSearchingWnd::DistLevelSort>
_TEXT	ENDS
PUBLIC	??$make_heap@PAHVDistLevelSort@ExcavationSearchingWnd@@@std@@YAXPAH0VDistLevelSort@ExcavationSearchingWnd@@@Z ; std::make_heap<int *,ExcavationSearchingWnd::DistLevelSort>
; Function compile flags: /Ogsp
;	COMDAT ??$make_heap@PAHVDistLevelSort@ExcavationSearchingWnd@@@std@@YAXPAH0VDistLevelSort@ExcavationSearchingWnd@@@Z
_TEXT	SEGMENT
__First$ = 8						; size = 4
__Last$ = 12						; size = 4
__Pred$ = 16						; size = 1
??$make_heap@PAHVDistLevelSort@ExcavationSearchingWnd@@@std@@YAXPAH0VDistLevelSort@ExcavationSearchingWnd@@@Z PROC ; std::make_heap<int *,ExcavationSearchingWnd::DistLevelSort>, COMDAT

; 2672 : 	{	// make [_First, _Last) into a heap, using _Pred

  00000	55		 push	 ebp
  00001	8b ec		 mov	 ebp, esp

; 2673 : 	_DEBUG_RANGE(_First, _Last);
; 2674 : 	_DEBUG_POINTER(_Pred);
; 2675 : 	if (1 < _Last - _First)

  00003	8b 45 0c	 mov	 eax, DWORD PTR __Last$[ebp]
  00006	2b 45 08	 sub	 eax, DWORD PTR __First$[ebp]
  00009	83 e0 fc	 and	 eax, -4			; fffffffcH
  0000c	83 f8 04	 cmp	 eax, 4
  0000f	7e 15		 jle	 SHORT $LN1@make_heap

; 2676 : 		_Make_heap(_Unchecked(_First), _Unchecked(_Last), _Pred,
; 2677 : 			_Dist_type(_First), _Val_type(_First));

  00011	6a 00		 push	 0
  00013	6a 00		 push	 0
  00015	ff 75 10	 push	 DWORD PTR __Pred$[ebp]
  00018	ff 75 0c	 push	 DWORD PTR __Last$[ebp]
  0001b	ff 75 08	 push	 DWORD PTR __First$[ebp]
  0001e	e8 00 00 00 00	 call	 ??$_Make_heap@PAHHHVDistLevelSort@ExcavationSearchingWnd@@@std@@YAXPAH0VDistLevelSort@ExcavationSearchingWnd@@00@Z ; std::_Make_heap<int *,int,int,ExcavationSearchingWnd::DistLevelSort>
  00023	83 c4 14	 add	 esp, 20			; 00000014H
$LN1@make_heap:

; 2678 : 	}

  00026	5d		 pop	 ebp
  00027	c3		 ret	 0
??$make_heap@PAHVDistLevelSort@ExcavationSearchingWnd@@@std@@YAXPAH0VDistLevelSort@ExcavationSearchingWnd@@@Z ENDP ; std::make_heap<int *,ExcavationSearchingWnd::DistLevelSort>
_TEXT	ENDS
PUBLIC	??$_Unguarded_partition@PAH@std@@YA?AU?$pair@PAHPAH@0@PAH0@Z ; std::_Unguarded_partition<int *>
; Function compile flags: /Ogsp
;	COMDAT ??$_Unguarded_partition@PAH@std@@YA?AU?$pair@PAHPAH@0@PAH0@Z
_TEXT	SEGMENT
__Tmp$549330 = -8					; size = 4
__Tmp$549200 = -8					; size = 4
__Glast$ = -4						; size = 4
___$ReturnUdt$ = 8					; size = 4
__First$ = 12						; size = 4
__Last$ = 16						; size = 4
??$_Unguarded_partition@PAH@std@@YA?AU?$pair@PAHPAH@0@PAH0@Z PROC ; std::_Unguarded_partition<int *>, COMDAT

; 3551 : 	{	// partition [_First, _Last), using operator<

  00000	55		 push	 ebp
  00001	8b ec		 mov	 ebp, esp
  00003	51		 push	 ecx
  00004	51		 push	 ecx

; 3552 : 	_RanIt _Mid = _First + (_Last - _First) / 2;	// sort median to _Mid

  00005	8b 4d 10	 mov	 ecx, DWORD PTR __Last$[ebp]
  00008	53		 push	 ebx
  00009	8b 5d 0c	 mov	 ebx, DWORD PTR __First$[ebp]
  0000c	8b c1		 mov	 eax, ecx
  0000e	2b c3		 sub	 eax, ebx
  00010	c1 f8 02	 sar	 eax, 2
  00013	99		 cdq
  00014	56		 push	 esi
  00015	2b c2		 sub	 eax, edx
  00017	57		 push	 edi
  00018	d1 f8		 sar	 eax, 1

; 3553 : 	_Median(_First, _Mid, _Last - 1);

  0001a	83 c1 fc	 add	 ecx, -4			; fffffffcH
  0001d	51		 push	 ecx
  0001e	8d 34 83	 lea	 esi, DWORD PTR [ebx+eax*4]
  00021	56		 push	 esi
  00022	53		 push	 ebx
  00023	e8 00 00 00 00	 call	 ??$_Median@PAH@std@@YAXPAH00@Z ; std::_Median<int *>
  00028	83 c4 0c	 add	 esp, 12			; 0000000cH

; 3554 : 	_RanIt _Pfirst = _Mid;

  0002b	8b ce		 mov	 ecx, esi

; 3555 : 	_RanIt _Plast = _Pfirst + 1;

  0002d	8d 56 04	 lea	 edx, DWORD PTR [esi+4]

; 3556 : 
; 3557 : 	while (_First < _Pfirst
; 3558 : 		&& !_DEBUG_LT(*(_Pfirst - 1), *_Pfirst)
; 3559 : 		&& !(*_Pfirst < *(_Pfirst - 1)))

  00030	3b de		 cmp	 ebx, esi
  00032	73 12		 jae	 SHORT $LN130@Unguarded_@2
$LL27@Unguarded_@2:
  00034	8b 71 fc	 mov	 esi, DWORD PTR [ecx-4]
  00037	8b 39		 mov	 edi, DWORD PTR [ecx]
  00039	3b fe		 cmp	 edi, esi
  0003b	7f 09		 jg	 SHORT $LN130@Unguarded_@2
  0003d	7c 07		 jl	 SHORT $LN130@Unguarded_@2

; 3560 : 		--_Pfirst;

  0003f	83 c1 fc	 add	 ecx, -4			; fffffffcH
  00042	3b d9		 cmp	 ebx, ecx
  00044	72 ee		 jb	 SHORT $LL27@Unguarded_@2
$LN130@Unguarded_@2:

; 3561 : 	while (_Plast < _Last
; 3562 : 		&& !_DEBUG_LT(*_Plast, *_Pfirst)
; 3563 : 		&& !(*_Pfirst < *_Plast))

  00046	3b 55 10	 cmp	 edx, DWORD PTR __Last$[ebp]
  00049	73 12		 jae	 SHORT $LN24@Unguarded_@2
  0004b	8b 31		 mov	 esi, DWORD PTR [ecx]
$LL25@Unguarded_@2:
  0004d	8b 02		 mov	 eax, DWORD PTR [edx]
  0004f	3b f0		 cmp	 esi, eax
  00051	7f 0a		 jg	 SHORT $LN24@Unguarded_@2
  00053	7c 08		 jl	 SHORT $LN24@Unguarded_@2

; 3564 : 		++_Plast;

  00055	83 c2 04	 add	 edx, 4
  00058	3b 55 10	 cmp	 edx, DWORD PTR __Last$[ebp]
  0005b	72 f0		 jb	 SHORT $LL25@Unguarded_@2
$LN24@Unguarded_@2:

; 3565 : 
; 3566 : 	_RanIt _Gfirst = _Plast;
; 3567 : 	_RanIt _Glast = _Pfirst;

  0005d	8b f1		 mov	 esi, ecx
  0005f	8b c2		 mov	 eax, edx
  00061	89 75 fc	 mov	 DWORD PTR __Glast$[ebp], esi

; 3568 : 
; 3569 : 	for (; ; )
; 3570 : 		{	// partition
; 3571 : 		for (; _Gfirst < _Last; ++_Gfirst)

  00064	eb 20		 jmp	 SHORT $LN131@Unguarded_@2
$LL21@Unguarded_@2:

; 3572 : 			if (_DEBUG_LT(*_Pfirst, *_Gfirst))

  00066	8b 39		 mov	 edi, DWORD PTR [ecx]
  00068	8b 18		 mov	 ebx, DWORD PTR [eax]
  0006a	3b df		 cmp	 ebx, edi
  0006c	7f 15		 jg	 SHORT $LN20@Unguarded_@2

; 3573 : 				;
; 3574 : 			else if (*_Gfirst < *_Pfirst)

  0006e	7c 38		 jl	 SHORT $LN132@Unguarded_@2

; 3575 : 				break;
; 3576 : 			else
; 3577 : 				_STD iter_swap(_Plast++, _Gfirst);

  00070	8b fa		 mov	 edi, edx
  00072	8b 1f		 mov	 ebx, DWORD PTR [edi]
  00074	89 5d f8	 mov	 DWORD PTR __Tmp$549200[ebp], ebx
  00077	8b 18		 mov	 ebx, DWORD PTR [eax]
  00079	89 1f		 mov	 DWORD PTR [edi], ebx
  0007b	8b 7d f8	 mov	 edi, DWORD PTR __Tmp$549200[ebp]
  0007e	89 38		 mov	 DWORD PTR [eax], edi
$LN133@Unguarded_@2:
  00080	83 c2 04	 add	 edx, 4
$LN20@Unguarded_@2:

; 3568 : 
; 3569 : 	for (; ; )
; 3570 : 		{	// partition
; 3571 : 		for (; _Gfirst < _Last; ++_Gfirst)

  00083	83 c0 04	 add	 eax, 4
$LN131@Unguarded_@2:
  00086	3b 45 10	 cmp	 eax, DWORD PTR __Last$[ebp]
  00089	72 db		 jb	 SHORT $LL21@Unguarded_@2

; 3578 : 		for (; _First < _Glast; --_Glast)

  0008b	eb 1b		 jmp	 SHORT $LN132@Unguarded_@2
$LL14@Unguarded_@2:

; 3579 : 			if (_DEBUG_LT(*(_Glast - 1), *_Pfirst))

  0008d	8b 19		 mov	 ebx, DWORD PTR [ecx]
  0008f	83 c6 fc	 add	 esi, -4			; fffffffcH
  00092	8b 3e		 mov	 edi, DWORD PTR [esi]
  00094	3b df		 cmp	 ebx, edi
  00096	7f 0d		 jg	 SHORT $LN13@Unguarded_@2

; 3580 : 				;
; 3581 : 			else if (*_Pfirst < *(_Glast - 1))

  00098	7c 15		 jl	 SHORT $LN126@Unguarded_@2

; 3582 : 				break;
; 3583 : 			else
; 3584 : 				_STD iter_swap(--_Pfirst, _Glast - 1);

  0009a	8b 1e		 mov	 ebx, DWORD PTR [esi]
  0009c	83 e9 04	 sub	 ecx, 4
  0009f	8b 39		 mov	 edi, DWORD PTR [ecx]
  000a1	89 19		 mov	 DWORD PTR [ecx], ebx
  000a3	89 3e		 mov	 DWORD PTR [esi], edi
$LN13@Unguarded_@2:

; 3578 : 		for (; _First < _Glast; --_Glast)

  000a5	89 75 fc	 mov	 DWORD PTR __Glast$[ebp], esi
$LN132@Unguarded_@2:
  000a8	39 75 0c	 cmp	 DWORD PTR __First$[ebp], esi
  000ab	72 e0		 jb	 SHORT $LL14@Unguarded_@2
  000ad	eb 03		 jmp	 SHORT $LN127@Unguarded_@2
$LN126@Unguarded_@2:
  000af	8b 75 fc	 mov	 esi, DWORD PTR __Glast$[ebp]
$LN127@Unguarded_@2:

; 3585 : 		if (_Glast == _First && _Gfirst == _Last)

  000b2	3b 75 0c	 cmp	 esi, DWORD PTR __First$[ebp]
  000b5	75 2b		 jne	 SHORT $LN6@Unguarded_@2
  000b7	3b 45 10	 cmp	 eax, DWORD PTR __Last$[ebp]
  000ba	74 5d		 je	 SHORT $LN120@Unguarded_@2

; 3587 : 
; 3588 : 		if (_Glast == _First)
; 3589 : 			{	// no room at bottom, rotate pivot upward
; 3590 : 			if (_Plast != _Gfirst)

  000bc	3b d0		 cmp	 edx, eax
  000be	74 08		 je	 SHORT $LN64@Unguarded_@2

; 3591 : 				_STD iter_swap(_Pfirst, _Plast);

  000c0	8b 3a		 mov	 edi, DWORD PTR [edx]
  000c2	8b 31		 mov	 esi, DWORD PTR [ecx]
  000c4	89 39		 mov	 DWORD PTR [ecx], edi
  000c6	89 32		 mov	 DWORD PTR [edx], esi
$LN64@Unguarded_@2:

; 3592 : 			++_Plast;
; 3593 : 			_STD iter_swap(_Pfirst++, _Gfirst++);

  000c8	8b f1		 mov	 esi, ecx
  000ca	8b 1e		 mov	 ebx, DWORD PTR [esi]
  000cc	8b f8		 mov	 edi, eax
  000ce	89 5d f8	 mov	 DWORD PTR __Tmp$549330[ebp], ebx
  000d1	8b 1f		 mov	 ebx, DWORD PTR [edi]
  000d3	89 1e		 mov	 DWORD PTR [esi], ebx
  000d5	8b 75 f8	 mov	 esi, DWORD PTR __Tmp$549330[ebp]
  000d8	89 37		 mov	 DWORD PTR [edi], esi
  000da	8b 75 fc	 mov	 esi, DWORD PTR __Glast$[ebp]
  000dd	83 c1 04	 add	 ecx, 4
  000e0	eb 9e		 jmp	 SHORT $LN133@Unguarded_@2
$LN6@Unguarded_@2:

; 3594 : 			}
; 3595 : 		else if (_Gfirst == _Last)
; 3596 : 			{	// no room at top, rotate pivot downward
; 3597 : 			if (--_Glast != --_Pfirst)

  000e2	83 ee 04	 sub	 esi, 4
  000e5	89 75 fc	 mov	 DWORD PTR __Glast$[ebp], esi
  000e8	3b 45 10	 cmp	 eax, DWORD PTR __Last$[ebp]
  000eb	75 1f		 jne	 SHORT $LN3@Unguarded_@2
  000ed	83 e9 04	 sub	 ecx, 4
  000f0	3b f1		 cmp	 esi, ecx
  000f2	74 08		 je	 SHORT $LN84@Unguarded_@2

; 3598 : 				_STD iter_swap(_Glast, _Pfirst);

  000f4	8b 19		 mov	 ebx, DWORD PTR [ecx]
  000f6	8b 3e		 mov	 edi, DWORD PTR [esi]
  000f8	89 1e		 mov	 DWORD PTR [esi], ebx
  000fa	89 39		 mov	 DWORD PTR [ecx], edi
$LN84@Unguarded_@2:

; 3599 : 			_STD iter_swap(_Pfirst, --_Plast);

  000fc	8b 39		 mov	 edi, DWORD PTR [ecx]
  000fe	83 ea 04	 sub	 edx, 4
  00101	8b 1a		 mov	 ebx, DWORD PTR [edx]
  00103	89 19		 mov	 DWORD PTR [ecx], ebx
  00105	89 3a		 mov	 DWORD PTR [edx], edi

; 3600 : 			}
; 3601 : 		else

  00107	e9 7a ff ff ff	 jmp	 $LN131@Unguarded_@2
$LN3@Unguarded_@2:

; 3602 : 			_STD iter_swap(_Gfirst++, --_Glast);

  0010c	8b 1e		 mov	 ebx, DWORD PTR [esi]
  0010e	8b 38		 mov	 edi, DWORD PTR [eax]
  00110	89 18		 mov	 DWORD PTR [eax], ebx
  00112	89 3e		 mov	 DWORD PTR [esi], edi

; 3603 : 		}

  00114	e9 6a ff ff ff	 jmp	 $LN20@Unguarded_@2
$LN120@Unguarded_@2:

; 3586 : 			return (_STD pair<_RanIt, _RanIt>(_Pfirst, _Plast));

  00119	8b 45 08	 mov	 eax, DWORD PTR ___$ReturnUdt$[ebp]
  0011c	5f		 pop	 edi
  0011d	5e		 pop	 esi
  0011e	89 08		 mov	 DWORD PTR [eax], ecx
  00120	89 50 04	 mov	 DWORD PTR [eax+4], edx
  00123	5b		 pop	 ebx

; 3604 : 	}

  00124	c9		 leave
  00125	c3		 ret	 0
??$_Unguarded_partition@PAH@std@@YA?AU?$pair@PAHPAH@0@PAH0@Z ENDP ; std::_Unguarded_partition<int *>
_TEXT	ENDS
PUBLIC	??$make_heap@PAH@std@@YAXPAH0@Z			; std::make_heap<int *>
; Function compile flags: /Ogsp
;	COMDAT ??$make_heap@PAH@std@@YAXPAH0@Z
_TEXT	SEGMENT
__First$ = 8						; size = 4
__Last$ = 12						; size = 4
??$make_heap@PAH@std@@YAXPAH0@Z PROC			; std::make_heap<int *>, COMDAT

; 2645 : 	{	// make [_First, _Last) into a heap, using operator<

  00000	55		 push	 ebp
  00001	8b ec		 mov	 ebp, esp

; 2646 : 	_DEBUG_RANGE(_First, _Last);
; 2647 : 	if (1 < _Last - _First)

  00003	8b 45 0c	 mov	 eax, DWORD PTR __Last$[ebp]
  00006	2b 45 08	 sub	 eax, DWORD PTR __First$[ebp]
  00009	83 e0 fc	 and	 eax, -4			; fffffffcH
  0000c	83 f8 04	 cmp	 eax, 4
  0000f	7e 12		 jle	 SHORT $LN1@make_heap@2

; 2648 : 		_Make_heap(_Unchecked(_First), _Unchecked(_Last),
; 2649 : 			_Dist_type(_First), _Val_type(_First));

  00011	6a 00		 push	 0
  00013	6a 00		 push	 0
  00015	ff 75 0c	 push	 DWORD PTR __Last$[ebp]
  00018	ff 75 08	 push	 DWORD PTR __First$[ebp]
  0001b	e8 00 00 00 00	 call	 ??$_Make_heap@PAHHH@std@@YAXPAH000@Z ; std::_Make_heap<int *,int,int>
  00020	83 c4 10	 add	 esp, 16			; 00000010H
$LN1@make_heap@2:

; 2650 : 	}

  00023	5d		 pop	 ebp
  00024	c3		 ret	 0
??$make_heap@PAH@std@@YAXPAH0@Z ENDP			; std::make_heap<int *>
_TEXT	ENDS
PUBLIC	??$_Pop_heap@PAHVDistLevelSort@ExcavationSearchingWnd@@@std@@YAXPAH0VDistLevelSort@ExcavationSearchingWnd@@@Z ; std::_Pop_heap<int *,ExcavationSearchingWnd::DistLevelSort>
; Function compile flags: /Ogsp
;	COMDAT ??$_Pop_heap@PAHVDistLevelSort@ExcavationSearchingWnd@@@std@@YAXPAH0VDistLevelSort@ExcavationSearchingWnd@@@Z
_TEXT	SEGMENT
__First$ = 8						; size = 4
__Last$ = 12						; size = 4
__Pred$ = 16						; size = 1
??$_Pop_heap@PAHVDistLevelSort@ExcavationSearchingWnd@@@std@@YAXPAH0VDistLevelSort@ExcavationSearchingWnd@@@Z PROC ; std::_Pop_heap<int *,ExcavationSearchingWnd::DistLevelSort>, COMDAT

; 2610 : 	{	// pop *_First to *(_Last - 1) and reheap, using _Pred

  00000	55		 push	 ebp
  00001	8b ec		 mov	 ebp, esp

; 2611 : 	_Pop_heap_0(_Unchecked(_First), _Unchecked(_Last), _Pred,
; 2612 : 		_Val_type(_First));

  00003	6a 00		 push	 0
  00005	ff 75 10	 push	 DWORD PTR __Pred$[ebp]
  00008	ff 75 0c	 push	 DWORD PTR __Last$[ebp]
  0000b	ff 75 08	 push	 DWORD PTR __First$[ebp]
  0000e	e8 00 00 00 00	 call	 ??$_Pop_heap_0@PAHHVDistLevelSort@ExcavationSearchingWnd@@@std@@YAXPAH0VDistLevelSort@ExcavationSearchingWnd@@0@Z ; std::_Pop_heap_0<int *,int,ExcavationSearchingWnd::DistLevelSort>
  00013	83 c4 10	 add	 esp, 16			; 00000010H

; 2613 : 	}

  00016	5d		 pop	 ebp
  00017	c3		 ret	 0
??$_Pop_heap@PAHVDistLevelSort@ExcavationSearchingWnd@@@std@@YAXPAH0VDistLevelSort@ExcavationSearchingWnd@@@Z ENDP ; std::_Pop_heap<int *,ExcavationSearchingWnd::DistLevelSort>
_TEXT	ENDS
PUBLIC	??$_Pop_heap@PAH@std@@YAXPAH0@Z			; std::_Pop_heap<int *>
; Function compile flags: /Ogsp
;	COMDAT ??$_Pop_heap@PAH@std@@YAXPAH0@Z
_TEXT	SEGMENT
__First$ = 8						; size = 4
__Last$ = 12						; size = 4
??$_Pop_heap@PAH@std@@YAXPAH0@Z PROC			; std::_Pop_heap<int *>, COMDAT

; 2544 : 	{	// pop *_First to *(_Last - 1) and reheap, using operator<

  00000	55		 push	 ebp
  00001	8b ec		 mov	 ebp, esp

; 2545 : 	_Pop_heap_0(_Unchecked(_First), _Unchecked(_Last),
; 2546 : 		_Val_type(_First));

  00003	6a 00		 push	 0
  00005	ff 75 0c	 push	 DWORD PTR __Last$[ebp]
  00008	ff 75 08	 push	 DWORD PTR __First$[ebp]
  0000b	e8 00 00 00 00	 call	 ??$_Pop_heap_0@PAHH@std@@YAXPAH00@Z ; std::_Pop_heap_0<int *,int>
  00010	83 c4 0c	 add	 esp, 12			; 0000000cH

; 2547 : 	}

  00013	5d		 pop	 ebp
  00014	c3		 ret	 0
??$_Pop_heap@PAH@std@@YAXPAH0@Z ENDP			; std::_Pop_heap<int *>
_TEXT	ENDS
PUBLIC	??1?$vector@HV?$allocator@H@std@@@std@@QAE@XZ	; std::vector<int,std::allocator<int> >::~vector<int,std::allocator<int> >
; Function compile flags: /Ogsp
; File c:\program files (x86)\microsoft visual studio 10.0\vc\include\vector
;	COMDAT ??1?$vector@HV?$allocator@H@std@@@std@@QAE@XZ
_TEXT	SEGMENT
??1?$vector@HV?$allocator@H@std@@@std@@QAE@XZ PROC	; std::vector<int,std::allocator<int> >::~vector<int,std::allocator<int> >, COMDAT
; _this$ = ecx

; 705  : 		_Tidy();

  00000	e9 00 00 00 00	 jmp	 ?_Tidy@?$vector@HV?$allocator@H@std@@@std@@IAEXXZ ; std::vector<int,std::allocator<int> >::_Tidy
??1?$vector@HV?$allocator@H@std@@@std@@QAE@XZ ENDP	; std::vector<int,std::allocator<int> >::~vector<int,std::allocator<int> >
_TEXT	ENDS
PUBLIC	?clear@?$vector@HV?$allocator@H@std@@@std@@QAEXXZ ; std::vector<int,std::allocator<int> >::clear
; Function compile flags: /Ogsp
;	COMDAT ?clear@?$vector@HV?$allocator@H@std@@@std@@QAEXXZ
_TEXT	SEGMENT
$T549501 = -4						; size = 4
?clear@?$vector@HV?$allocator@H@std@@@std@@QAEXXZ PROC	; std::vector<int,std::allocator<int> >::clear, COMDAT
; _this$ = ecx

; 1217 : 		{	// erase all

  00000	55		 push	 ebp
  00001	8b ec		 mov	 ebp, esp
  00003	51		 push	 ecx

; 1218 : 		erase(begin(), end());

  00004	8b 41 04	 mov	 eax, DWORD PTR [ecx+4]
  00007	8b 11		 mov	 edx, DWORD PTR [ecx]
  00009	50		 push	 eax
  0000a	52		 push	 edx
  0000b	8d 45 fc	 lea	 eax, DWORD PTR $T549501[ebp]
  0000e	50		 push	 eax
  0000f	e8 00 00 00 00	 call	 ?erase@?$vector@HV?$allocator@H@std@@@std@@QAE?AV?$_Vector_iterator@V?$_Vector_val@HV?$allocator@H@std@@@std@@@2@V?$_Vector_const_iterator@V?$_Vector_val@HV?$allocator@H@std@@@std@@@2@0@Z ; std::vector<int,std::allocator<int> >::erase

; 1219 : 		}

  00014	c9		 leave
  00015	c3		 ret	 0
?clear@?$vector@HV?$allocator@H@std@@@std@@QAEXXZ ENDP	; std::vector<int,std::allocator<int> >::clear
_TEXT	ENDS
PUBLIC	?_Reserve@?$vector@HV?$allocator@H@std@@@std@@IAEXI@Z ; std::vector<int,std::allocator<int> >::_Reserve
; Function compile flags: /Ogsp
;	COMDAT ?_Reserve@?$vector@HV?$allocator@H@std@@@std@@IAEXI@Z
_TEXT	SEGMENT
__Count$ = 8						; size = 4
?_Reserve@?$vector@HV?$allocator@H@std@@@std@@IAEXI@Z PROC ; std::vector<int,std::allocator<int> >::_Reserve, COMDAT
; _this$ = ecx

; 1290 : 		{	// ensure room for _Count new elements, grow exponentially

  00000	55		 push	 ebp
  00001	8b ec		 mov	 ebp, esp
  00003	56		 push	 esi
  00004	8b f1		 mov	 esi, ecx

; 1291 : 		size_type _Size = size();

  00006	8b 0e		 mov	 ecx, DWORD PTR [esi]
  00008	8b 46 04	 mov	 eax, DWORD PTR [esi+4]
  0000b	2b c1		 sub	 eax, ecx

; 1292 : 		if (max_size() - _Count < _Size)

  0000d	ba ff ff ff 3f	 mov	 edx, 1073741823		; 3fffffffH
  00012	2b 55 08	 sub	 edx, DWORD PTR __Count$[ebp]
  00015	c1 f8 02	 sar	 eax, 2
  00018	3b d0		 cmp	 edx, eax
  0001a	73 0b		 jae	 SHORT $LN4@Reserve

; 1293 : 			_Xlen();

  0001c	68 00 00 00 00	 push	 OFFSET ??_C@_0BD@OLBABOEK@vector?$DMT?$DO?5too?5long?$AA@
  00021	ff 15 00 00 00
	00		 call	 DWORD PTR __imp_?_Xlength_error@std@@YAXPBD@Z
$LN21@Reserve:
$LN4@Reserve:

; 1294 : 		else if ((_Size += _Count) <= capacity())

  00027	8b 56 08	 mov	 edx, DWORD PTR [esi+8]
  0002a	03 45 08	 add	 eax, DWORD PTR __Count$[ebp]
  0002d	2b d1		 sub	 edx, ecx
  0002f	c1 fa 02	 sar	 edx, 2
  00032	3b c2		 cmp	 eax, edx
  00034	76 10		 jbe	 SHORT $LN1@Reserve

; 1295 : 			;
; 1296 : 		else
; 1297 : 			reserve(_Grow_to(_Size));

  00036	50		 push	 eax
  00037	8b ce		 mov	 ecx, esi
  00039	e8 00 00 00 00	 call	 ?_Grow_to@?$vector@HV?$allocator@H@std@@@std@@IBEII@Z ; std::vector<int,std::allocator<int> >::_Grow_to
  0003e	50		 push	 eax
  0003f	8b ce		 mov	 ecx, esi
  00041	e8 00 00 00 00	 call	 ?reserve@?$vector@HV?$allocator@H@std@@@std@@QAEXI@Z ; std::vector<int,std::allocator<int> >::reserve
$LN1@Reserve:
  00046	5e		 pop	 esi

; 1298 : 		}

  00047	5d		 pop	 ebp
  00048	c2 04 00	 ret	 4
$LN20@Reserve:
?_Reserve@?$vector@HV?$allocator@H@std@@@std@@IAEXI@Z ENDP ; std::vector<int,std::allocator<int> >::_Reserve
_TEXT	ENDS
PUBLIC	??_7ExcavationSearchingWnd@@6B@			; ExcavationSearchingWnd::`vftable'
PUBLIC	??0ExcavationSearchingWnd@@QAE@XZ		; ExcavationSearchingWnd::ExcavationSearchingWnd
PUBLIC	??_R4ExcavationSearchingWnd@@6B@		; ExcavationSearchingWnd::`RTTI Complete Object Locator'
PUBLIC	??_R3ExcavationSearchingWnd@@8			; ExcavationSearchingWnd::`RTTI Class Hierarchy Descriptor'
PUBLIC	??_R2ExcavationSearchingWnd@@8			; ExcavationSearchingWnd::`RTTI Base Class Array'
PUBLIC	??_R1A@?0A@EA@ExcavationSearchingWnd@@8		; ExcavationSearchingWnd::`RTTI Base Class Descriptor at (0,-1,0,64)'
PUBLIC	??_R1A@?0A@EA@ioMovingWnd@@8			; ioMovingWnd::`RTTI Base Class Descriptor at (0,-1,0,64)'
PUBLIC	??_R0?AVioMovingWnd@@@8				; ioMovingWnd `RTTI Type Descriptor'
PUBLIC	??_R3ioMovingWnd@@8				; ioMovingWnd::`RTTI Class Hierarchy Descriptor'
PUBLIC	??_R2ioMovingWnd@@8				; ioMovingWnd::`RTTI Base Class Array'
PUBLIC	?ParseExtraInfo@ExcavationSearchingWnd@@UAEXAAVioXMLElement@@@Z ; ExcavationSearchingWnd::ParseExtraInfo
PUBLIC	?OnProcess@ExcavationSearchingWnd@@MAEXM@Z	; ExcavationSearchingWnd::OnProcess
EXTRN	__imp_??1ioMovingWnd@@UAE@XZ:PROC
EXTRN	__imp_??0ioMovingWnd@@QAE@XZ:PROC
EXTRN	?OnMouseProcess@ioMovingWnd@@MAEXABVioMouse@@@Z:PROC ; ioMovingWnd::OnMouseProcess
EXTRN	?iwm_lbuttondown@ioMovingWnd@@UAEXABVioMouse@@@Z:PROC ; ioMovingWnd::iwm_lbuttondown
EXTRN	?iwm_lbuttonup@ioMovingWnd@@UAEXABVioMouse@@@Z:PROC ; ioMovingWnd::iwm_lbuttonup
EXTRN	??_EExcavationSearchingWnd@@UAEPAXI@Z:PROC	; ExcavationSearchingWnd::`vector deleting destructor'
;	COMDAT ??_R2ioMovingWnd@@8
; File c:\program files (x86)\microsoft visual studio 10.0\vc\include\xmemory
rdata$r	SEGMENT
??_R2ioMovingWnd@@8 DD FLAT:??_R1A@?0A@EA@ioMovingWnd@@8 ; ioMovingWnd::`RTTI Base Class Array'
	DD	FLAT:??_R1A@?0A@EA@ioWnd@@8
rdata$r	ENDS
;	COMDAT ??_R3ioMovingWnd@@8
rdata$r	SEGMENT
??_R3ioMovingWnd@@8 DD 00H				; ioMovingWnd::`RTTI Class Hierarchy Descriptor'
	DD	00H
	DD	02H
	DD	FLAT:??_R2ioMovingWnd@@8
rdata$r	ENDS
;	COMDAT ??_R0?AVioMovingWnd@@@8
_DATA	SEGMENT
??_R0?AVioMovingWnd@@@8 DD FLAT:??_7type_info@@6B@	; ioMovingWnd `RTTI Type Descriptor'
	DD	00H
	DB	'.?AVioMovingWnd@@', 00H
_DATA	ENDS
;	COMDAT ??_R1A@?0A@EA@ioMovingWnd@@8
rdata$r	SEGMENT
??_R1A@?0A@EA@ioMovingWnd@@8 DD FLAT:??_R0?AVioMovingWnd@@@8 ; ioMovingWnd::`RTTI Base Class Descriptor at (0,-1,0,64)'
	DD	01H
	DD	00H
	DD	0ffffffffH
	DD	00H
	DD	040H
	DD	FLAT:??_R3ioMovingWnd@@8
rdata$r	ENDS
;	COMDAT ??_R1A@?0A@EA@ExcavationSearchingWnd@@8
rdata$r	SEGMENT
??_R1A@?0A@EA@ExcavationSearchingWnd@@8 DD FLAT:??_R0?AVExcavationSearchingWnd@@@8 ; ExcavationSearchingWnd::`RTTI Base Class Descriptor at (0,-1,0,64)'
	DD	02H
	DD	00H
	DD	0ffffffffH
	DD	00H
	DD	040H
	DD	FLAT:??_R3ExcavationSearchingWnd@@8
rdata$r	ENDS
;	COMDAT ??_R2ExcavationSearchingWnd@@8
rdata$r	SEGMENT
??_R2ExcavationSearchingWnd@@8 DD FLAT:??_R1A@?0A@EA@ExcavationSearchingWnd@@8 ; ExcavationSearchingWnd::`RTTI Base Class Array'
	DD	FLAT:??_R1A@?0A@EA@ioMovingWnd@@8
	DD	FLAT:??_R1A@?0A@EA@ioWnd@@8
rdata$r	ENDS
;	COMDAT ??_R3ExcavationSearchingWnd@@8
rdata$r	SEGMENT
??_R3ExcavationSearchingWnd@@8 DD 00H			; ExcavationSearchingWnd::`RTTI Class Hierarchy Descriptor'
	DD	00H
	DD	03H
	DD	FLAT:??_R2ExcavationSearchingWnd@@8
rdata$r	ENDS
;	COMDAT ??_R4ExcavationSearchingWnd@@6B@
rdata$r	SEGMENT
??_R4ExcavationSearchingWnd@@6B@ DD 00H			; ExcavationSearchingWnd::`RTTI Complete Object Locator'
	DD	00H
	DD	00H
	DD	FLAT:??_R0?AVExcavationSearchingWnd@@@8
	DD	FLAT:??_R3ExcavationSearchingWnd@@8
rdata$r	ENDS
;	COMDAT ??_7ExcavationSearchingWnd@@6B@
CONST	SEGMENT
??_7ExcavationSearchingWnd@@6B@ DD FLAT:??_R4ExcavationSearchingWnd@@6B@ ; ExcavationSearchingWnd::`vftable'
	DD	FLAT:?AddRenderFrame@ioWnd@@UAEXABVioHashString@@PAVioUIRenderFrame@@@Z
	DD	FLAT:?AddRenderImage@ExcavationSearchingWnd@@UAEXABVioHashString@@PAVioUIRenderImage@@@Z
	DD	FLAT:?AddTooltipHelp@ioWnd@@UAEXABVioHashString@@00@Z
	DD	FLAT:?ParseExtraInfo@ExcavationSearchingWnd@@UAEXAAVioXMLElement@@@Z
	DD	FLAT:?AddNamedRenderImage@ioWnd@@UAEXABVioHashString@@PAVioUIRenderImage@@@Z
	DD	FLAT:?RemoveNamedRenderImage@ioWnd@@UAEXABVioHashString@@@Z
	DD	FLAT:?GetNamedRenderImage@ioWnd@@UBEPAVioUIRenderImage@@ABVioHashString@@@Z
	DD	FLAT:?SetWindowAlpha@ioWnd@@UAEXH@Z
	DD	FLAT:?SetActive@ioWnd@@UAEXXZ
	DD	FLAT:?SetInActive@ioWnd@@UAEXXZ
	DD	FLAT:?ClearElementImageList@ioWnd@@UAEXXZ
	DD	FLAT:?SetSize@ioWnd@@UAEXHH@Z
	DD	FLAT:?SetPositionToDefault@ExcavationSearchingWnd@@UAEXHH_N0@Z
	DD	FLAT:?IsNeedProcess@ioWnd@@UBE_NXZ
	DD	FLAT:?IsCanMouseReaction@ioWnd@@UBE_NXZ
	DD	FLAT:?AddChild@ioWnd@@UAEXPAV1@@Z
	DD	FLAT:?DeleteChild@ioWnd@@UAEXK@Z
	DD	FLAT:?DeleteAllChild@ioWnd@@UAEXXZ
	DD	FLAT:?OnRenderShowAndHide@ioWnd@@MAE_NXZ
	DD	FLAT:?OnRenderShowAndHideByDefault@ioWnd@@MAE_NK@Z
	DD	FLAT:?OnRenderShowAndHideByTop@ioWnd@@MAE_NK@Z
	DD	FLAT:?OnRenderShowAndHideByDown@ioWnd@@MAE_NK@Z
	DD	FLAT:?OnRender@ExcavationSearchingWnd@@MAEXXZ
	DD	FLAT:?OnRenderAfterChild@ioWnd@@MAEXXZ
	DD	FLAT:?OnProcess@ExcavationSearchingWnd@@MAEXM@Z
	DD	FLAT:?OnMouseProcess@ioMovingWnd@@MAEXABVioMouse@@@Z
	DD	FLAT:?CheckFrameReSize@ioWnd@@MAEXHHHH@Z
	DD	FLAT:?RenderImageList@ioWnd@@MAEXHHW4UIRenderType@@@Z
	DD	FLAT:?iwm_create@ExcavationSearchingWnd@@UAEXXZ
	DD	FLAT:?iwm_destroy@ioWnd@@UAEXXZ
	DD	FLAT:?iwm_lbuttondown@ioMovingWnd@@UAEXABVioMouse@@@Z
	DD	FLAT:?iwm_lbuttonup@ioMovingWnd@@UAEXABVioMouse@@@Z
	DD	FLAT:?iwm_lbuttonDBLCLK@ioWnd@@UAEXABVioMouse@@@Z
	DD	FLAT:?iwm_rbuttondown@ioWnd@@UAEXABVioMouse@@@Z
	DD	FLAT:?iwm_rbuttonup@ioWnd@@UAEXABVioMouse@@@Z
	DD	FLAT:?iwm_command@ExcavationSearchingWnd@@UAEXPAVioWnd@@HK@Z
	DD	FLAT:?iwm_mouseover@ioWnd@@UAEXABVioMouse@@@Z
	DD	FLAT:?iwm_mousemove@ioWnd@@UAEXABVioMouse@@@Z
	DD	FLAT:?iwm_mouseleave@ioWnd@@UAEXABVioMouse@@@Z
	DD	FLAT:?iwm_vscroll@ioWnd@@UAEXKH@Z
	DD	FLAT:?iwm_wheel@ioWnd@@UAEXH@Z
	DD	FLAT:?iwm_show@ExcavationSearchingWnd@@UAEXXZ
	DD	FLAT:?iwm_hide@ExcavationSearchingWnd@@UAEXXZ
	DD	FLAT:?iwm_esc@ioWnd@@UAE_NXZ
	DD	FLAT:?iwm_spacebar@ioWnd@@UAE_NXZ
	DD	FLAT:?iwm_gototop@ioWnd@@UAEXXZ
	DD	FLAT:?iwm_dragenter@ioWnd@@UAE?AW4IWDropEffect@@PAVioDragItem@@ABVioMouse@@@Z
	DD	FLAT:?iwm_dragover@ioWnd@@UAE?AW4IWDropEffect@@PAVioDragItem@@ABVioMouse@@@Z
	DD	FLAT:?iwm_dragleave@ioWnd@@UAEXXZ
	DD	FLAT:?iwm_dropitem@ioWnd@@UAE_NPAVioDragItem@@ABVioMouse@@PAV1@@Z
	DD	FLAT:?iwm_dropdone@ioWnd@@UAEXPAVioDragItem@@PAV1@_N@Z
	DD	FLAT:?IsEXType@ioWnd@@UBE_NXZ
	DD	FLAT:?GetWndType@ioWnd@@UBEKXZ
	DD	FLAT:?RenderWnd@ioWnd@@UAEXXZ
	DD	FLAT:?SetIDEX@ioWnd@@UAEXAAK_N@Z
	DD	FLAT:?ParseXML@ioWnd@@UAEXAAVioXMLElement@@@Z
	DD	FLAT:?GetHeaderFileName@ioWnd@@UAEPBDXZ
	DD	FLAT:?GetTemplateName@ioWnd@@UAEPBDXZ
	DD	FLAT:?GetDefClassName@ioWnd@@UBEPBDXZ
	DD	FLAT:?_Clone@ioWnd@@UAEPAV1@XZ
	DD	FLAT:?Copy@ioWnd@@UAEXPAV1@@Z
	DD	FLAT:?Save@ioWnd@@UAE_NAAVioXMLElement@@@Z
	DD	FLAT:?SetSaveData@ioWnd@@UAEXAAVioXMLElement@@@Z
	DD	FLAT:?SetPosX@ioWnd@@UAEXH@Z
	DD	FLAT:?SetPosY@ioWnd@@UAEXH@Z
	DD	FLAT:?SetWidth@ioWnd@@UAEXH@Z
	DD	FLAT:?SetHeight@ioWnd@@UAEXH@Z
	DD	FLAT:?GetNumFixedRenderFrame@ioWnd@@UBEHXZ
	DD	FLAT:?GetFixedRenderFrameType@ioWnd@@UAEPBDH@Z
	DD	FLAT:?GetRenderFrame@ioWnd@@UAEPAPAVioUIRenderElement@@PBD@Z
	DD	FLAT:?GetNumFixedRenderImage@ioWnd@@UBEHXZ
	DD	FLAT:?GetFixedRenderImageType@ioWnd@@UAEPBDH@Z
	DD	FLAT:?GetRenderImage@ioWnd@@UAEPAPAVioUIRenderElement@@PBD@Z
	DD	FLAT:?AddEffect@ioWnd@@UAEXABVioHashString@@PAVioUI3DEffectRender@@@Z
	DD	FLAT:?GetEffect@ioWnd@@UAEPAVioUI3DEffectRender@@VioHashString@@@Z
	DD	FLAT:??_EExcavationSearchingWnd@@UAEPAXI@Z
CONST	ENDS
;	COMDAT xdata$x
xdata$x	SEGMENT
__unwindtable$??0ExcavationSearchingWnd@@QAE@XZ DD 0ffffffffH
	DD	FLAT:__unwindfunclet$??0ExcavationSearchingWnd@@QAE@XZ$0
	DD	00H
	DD	FLAT:__unwindfunclet$??0ExcavationSearchingWnd@@QAE@XZ$1
	DD	01H
	DD	FLAT:__unwindfunclet$??0ExcavationSearchingWnd@@QAE@XZ$2
__ehfuncinfo$??0ExcavationSearchingWnd@@QAE@XZ DD 019930522H
	DD	03H
	DD	FLAT:__unwindtable$??0ExcavationSearchingWnd@@QAE@XZ
	DD	2 DUP(00H)
	DD	2 DUP(00H)
	DD	00H
	DD	01H
; Function compile flags: /Ogsp
; File d:\lost saga for developer\youtube\tutorial\source\src\lsclient\gui\excavationwnd.cpp
xdata$x	ENDS
;	COMDAT ??0ExcavationSearchingWnd@@QAE@XZ
_TEXT	SEGMENT
_this$ = -16						; size = 4
__$EHRec$ = -12						; size = 12
??0ExcavationSearchingWnd@@QAE@XZ PROC			; ExcavationSearchingWnd::ExcavationSearchingWnd, COMDAT
; _this$ = ecx

; 893  : {

  00000	6a 04		 push	 4
  00002	b8 00 00 00 00	 mov	 eax, __ehhandler$??0ExcavationSearchingWnd@@QAE@XZ
  00007	e8 00 00 00 00	 call	 __EH_prolog3
  0000c	8b f1		 mov	 esi, ecx
  0000e	89 75 f0	 mov	 DWORD PTR _this$[ebp], esi
  00011	ff 15 00 00 00
	00		 call	 DWORD PTR __imp_??0ioMovingWnd@@QAE@XZ
  00017	33 db		 xor	 ebx, ebx
  00019	c7 06 00 00 00
	00		 mov	 DWORD PTR [esi], OFFSET ??_7ExcavationSearchingWnd@@6B@
  0001f	89 5d fc	 mov	 DWORD PTR __$EHRec$[ebp+8], ebx
  00022	89 9e e0 01 00
	00		 mov	 DWORD PTR [esi+480], ebx
  00028	89 9e e4 01 00
	00		 mov	 DWORD PTR [esi+484], ebx
  0002e	89 9e e8 01 00
	00		 mov	 DWORD PTR [esi+488], ebx
  00034	ff 35 00 00 00
	00		 push	 DWORD PTR __imp_??1ioHashString@@QAE@XZ
  0003a	8b 3d 00 00 00
	00		 mov	 edi, DWORD PTR __imp_??0ioHashString@@QAE@XZ
  00040	57		 push	 edi
  00041	6a 06		 push	 6
  00043	6a 10		 push	 16			; 00000010H
  00045	8d 86 10 02 00
	00		 lea	 eax, DWORD PTR [esi+528]
  0004b	50		 push	 eax
  0004c	c6 45 fc 01	 mov	 BYTE PTR __$EHRec$[ebp+8], 1
  00050	e8 00 00 00 00	 call	 ??_L@YGXPAXIHP6EX0@Z1@Z
  00055	8d 8e 70 02 00
	00		 lea	 ecx, DWORD PTR [esi+624]
  0005b	c6 45 fc 02	 mov	 BYTE PTR __$EHRec$[ebp+8], 2
  0005f	ff d7		 call	 edi

; 894  : 	m_pPlayStage    = NULL;
; 895  : 	
; 896  : 	m_pBatteryGauge = NULL;
; 897  : 	for (int i = 0; i < MAX_SEARCHING_TYPE ; i++)
; 898  : 	{
; 899  : 		m_pWave[i] = NULL;

  00061	6a 06		 push	 6
  00063	33 c0		 xor	 eax, eax
  00065	8d be 98 01 00
	00		 lea	 edi, DWORD PTR [esi+408]
  0006b	59		 pop	 ecx
  0006c	89 9e 90 01 00
	00		 mov	 DWORD PTR [esi+400], ebx
  00072	89 9e 94 01 00
	00		 mov	 DWORD PTR [esi+404], ebx
  00078	f3 ab		 rep stosd

; 900  : 	}
; 901  : 
; 902  : 	m_pDistNumBlue  = NULL;

  0007a	89 9e b0 01 00
	00		 mov	 DWORD PTR [esi+432], ebx

; 903  : 	m_pDistNumYellow= NULL;

  00080	89 9e b4 01 00
	00		 mov	 DWORD PTR [esi+436], ebx

; 904  : 	m_pDistNumRed   = NULL;

  00086	89 9e b8 01 00
	00		 mov	 DWORD PTR [esi+440], ebx

; 905  : 	m_pRateNum      = NULL;

  0008c	89 9e bc 01 00
	00		 mov	 DWORD PTR [esi+444], ebx

; 906  : 	m_pDistNone     = NULL;

  00092	89 9e c0 01 00
	00		 mov	 DWORD PTR [esi+448], ebx

; 907  : 
; 908  : 	m_dwFullBatteryTime   = 0;

  00098	89 9e c4 01 00
	00		 mov	 DWORD PTR [esi+452], ebx

; 909  : 	m_dwMiddleBatteryTime = 0;

  0009e	89 9e c8 01 00
	00		 mov	 DWORD PTR [esi+456], ebx

; 910  : 	m_dwLowBatteryTime    = 0;

  000a4	89 9e cc 01 00
	00		 mov	 DWORD PTR [esi+460], ebx

; 911  : 
; 912  : 	m_iRangeTypeArray         = 0;

  000aa	89 9e d0 01 00
	00		 mov	 DWORD PTR [esi+464], ebx

; 913  : 	m_iCurGrowWaveTypeArray   = 0;

  000b0	89 9e d4 01 00
	00		 mov	 DWORD PTR [esi+468], ebx

; 914  : 	m_iCurExtinctWaveTypeArray= 0;

  000b6	89 9e d8 01 00
	00		 mov	 DWORD PTR [esi+472], ebx

; 915  : 	m_iWaveWidthcut           = 0;

  000bc	89 9e dc 01 00
	00		 mov	 DWORD PTR [esi+476], ebx

; 916  : 
; 917  : 	m_dwArtifactPosCheckTime    = 0;

  000c2	89 9e f0 01 00
	00		 mov	 DWORD PTR [esi+496], ebx

; 918  : 	m_dwCurArtifactPosCheckTime = 0;

  000c8	89 9e f4 01 00
	00		 mov	 DWORD PTR [esi+500], ebx

; 919  : 
; 920  : 	m_dwRadarCheckTime          = 0;

  000ce	89 9e f8 01 00
	00		 mov	 DWORD PTR [esi+504], ebx

; 921  : 	m_dwCurRadarCheckTime       = 0;

  000d4	89 9e fc 01 00
	00		 mov	 DWORD PTR [esi+508], ebx

; 922  : 
; 923  : 	m_iWaveAddSize              = 0;

  000da	89 9e 00 02 00
	00		 mov	 DWORD PTR [esi+512], ebx

; 924  : 
; 925  : 	m_iArtifactDist             = 0;

  000e0	89 9e 04 02 00
	00		 mov	 DWORD PTR [esi+516], ebx

; 926  : 
; 927  : 	m_iDefaultX = 0;

  000e6	89 9e 08 02 00
	00		 mov	 DWORD PTR [esi+520], ebx

; 928  : 	m_iDefaultY = 0;

  000ec	89 9e 0c 02 00
	00		 mov	 DWORD PTR [esi+524], ebx

; 929  : 
; 930  : 	m_iCurSuccessPercent        = 0;

  000f2	89 9e 80 02 00
	00		 mov	 DWORD PTR [esi+640], ebx

; 931  : 
; 932  : 	m_dwSuccessPerCheckTime    = 0;

  000f8	89 9e 84 02 00
	00		 mov	 DWORD PTR [esi+644], ebx

; 933  : 	m_dwCurSuccessPerCheckTime = 0;

  000fe	89 9e 88 02 00
	00		 mov	 DWORD PTR [esi+648], ebx

; 934  : 
; 935  : 	m_bProcessRadarPos = true;

  00104	c6 86 8c 02 00
	00 01		 mov	 BYTE PTR [esi+652], 1

; 936  : }

  0010b	8b c6		 mov	 eax, esi
  0010d	e8 00 00 00 00	 call	 __EH_epilog3
  00112	c3		 ret	 0
_TEXT	ENDS
;	COMDAT text$x
text$x	SEGMENT
__unwindfunclet$??0ExcavationSearchingWnd@@QAE@XZ$0:
  00000	8b 4d f0	 mov	 ecx, DWORD PTR _this$[ebp]
  00003	ff 25 00 00 00
	00		 jmp	 DWORD PTR __imp_??1ioMovingWnd@@UAE@XZ
__unwindfunclet$??0ExcavationSearchingWnd@@QAE@XZ$1:
  00009	8b 4d f0	 mov	 ecx, DWORD PTR _this$[ebp]
  0000c	81 c1 e0 01 00
	00		 add	 ecx, 480		; 000001e0H
  00012	e9 00 00 00 00	 jmp	 ??1?$vector@HV?$allocator@H@std@@@std@@QAE@XZ ; std::vector<int,std::allocator<int> >::~vector<int,std::allocator<int> >
__unwindfunclet$??0ExcavationSearchingWnd@@QAE@XZ$2:
  00017	ff 35 00 00 00
	00		 push	 DWORD PTR __imp_??1ioHashString@@QAE@XZ
  0001d	6a 06		 push	 6
  0001f	6a 10		 push	 16			; 00000010H
  00021	8b 45 f0	 mov	 eax, DWORD PTR _this$[ebp]
  00024	05 10 02 00 00	 add	 eax, 528		; 00000210H
  00029	50		 push	 eax
  0002a	e8 00 00 00 00	 call	 ??_M@YGXPAXIHP6EX0@Z@Z
  0002f	c3		 ret	 0
__ehhandler$??0ExcavationSearchingWnd@@QAE@XZ:
  00030	8b 54 24 08	 mov	 edx, DWORD PTR [esp+8]
  00034	8d 42 0c	 lea	 eax, DWORD PTR [edx+12]
  00037	8b 4a ec	 mov	 ecx, DWORD PTR [edx-20]
  0003a	33 c8		 xor	 ecx, eax
  0003c	e8 00 00 00 00	 call	 @__security_check_cookie@4
  00041	b8 00 00 00 00	 mov	 eax, OFFSET __ehfuncinfo$??0ExcavationSearchingWnd@@QAE@XZ
  00046	e9 00 00 00 00	 jmp	 ___CxxFrameHandler3
text$x	ENDS
??0ExcavationSearchingWnd@@QAE@XZ ENDP			; ExcavationSearchingWnd::ExcavationSearchingWnd
PUBLIC	??1ExcavationSearchingWnd@@UAE@XZ		; ExcavationSearchingWnd::~ExcavationSearchingWnd
EXTRN	?GUIPosSaveInt@ioSP2GUIManager@@QAEHPBD0HH@Z:PROC ; ioSP2GUIManager::GUIPosSaveInt
;	COMDAT xdata$x
; File c:\program files (x86)\microsoft visual studio 10.0\vc\include\vector
xdata$x	SEGMENT
__unwindtable$??1ExcavationSearchingWnd@@UAE@XZ DD 0ffffffffH
	DD	FLAT:__unwindfunclet$??1ExcavationSearchingWnd@@UAE@XZ$0
	DD	00H
	DD	FLAT:__unwindfunclet$??1ExcavationSearchingWnd@@UAE@XZ$1
	DD	01H
	DD	FLAT:__unwindfunclet$??1ExcavationSearchingWnd@@UAE@XZ$2
	DD	02H
	DD	FLAT:__unwindfunclet$??1ExcavationSearchingWnd@@UAE@XZ$3
__ehfuncinfo$??1ExcavationSearchingWnd@@UAE@XZ DD 019930522H
	DD	04H
	DD	FLAT:__unwindtable$??1ExcavationSearchingWnd@@UAE@XZ
	DD	2 DUP(00H)
	DD	2 DUP(00H)
	DD	00H
	DD	01H
; Function compile flags: /Ogsp
; File d:\lost saga for developer\youtube\tutorial\source\src\lsclient\gui\excavationwnd.cpp
xdata$x	ENDS
;	COMDAT ??1ExcavationSearchingWnd@@UAE@XZ
_TEXT	SEGMENT
_this$ = -20						; size = 4
tv192 = -16						; size = 4
$T549717 = -16						; size = 4
__$EHRec$ = -12						; size = 12
??1ExcavationSearchingWnd@@UAE@XZ PROC			; ExcavationSearchingWnd::~ExcavationSearchingWnd, COMDAT
; _this$ = ecx

; 939  : {

  00000	6a 08		 push	 8
  00002	b8 00 00 00 00	 mov	 eax, __ehhandler$??1ExcavationSearchingWnd@@UAE@XZ
  00007	e8 00 00 00 00	 call	 __EH_prolog3
  0000c	8b f1		 mov	 esi, ecx
  0000e	89 75 ec	 mov	 DWORD PTR _this$[ebp], esi
  00011	c7 06 00 00 00
	00		 mov	 DWORD PTR [esi], OFFSET ??_7ExcavationSearchingWnd@@6B@

; 940  : 	SAFEDELETE(m_pBatteryGauge);

  00017	8b 8e 94 01 00
	00		 mov	 ecx, DWORD PTR [esi+404]
  0001d	33 db		 xor	 ebx, ebx
  0001f	c7 45 fc 03 00
	00 00		 mov	 DWORD PTR __$EHRec$[ebp+8], 3
  00026	3b cb		 cmp	 ecx, ebx
  00028	74 0d		 je	 SHORT $LN13@Excavation@4
  0002a	8b 01		 mov	 eax, DWORD PTR [ecx]
  0002c	6a 01		 push	 1
  0002e	ff 50 40	 call	 DWORD PTR [eax+64]
  00031	89 9e 94 01 00
	00		 mov	 DWORD PTR [esi+404], ebx
$LN13@Excavation@4:

; 941  : 
; 942  : 	for (int i = 0; i < MAX_SEARCHING_TYPE ; i++)

  00037	8d be 98 01 00
	00		 lea	 edi, DWORD PTR [esi+408]
  0003d	c7 45 f0 06 00
	00 00		 mov	 DWORD PTR tv192[ebp], 6
$LL12@Excavation@4:

; 943  : 	{
; 944  : 		SAFEDELETE(m_pWave[i]);

  00044	8b 0f		 mov	 ecx, DWORD PTR [edi]
  00046	3b cb		 cmp	 ecx, ebx
  00048	74 09		 je	 SHORT $LN11@Excavation@4
  0004a	8b 01		 mov	 eax, DWORD PTR [ecx]
  0004c	6a 01		 push	 1
  0004e	ff 50 40	 call	 DWORD PTR [eax+64]
  00051	89 1f		 mov	 DWORD PTR [edi], ebx
$LN11@Excavation@4:

; 941  : 
; 942  : 	for (int i = 0; i < MAX_SEARCHING_TYPE ; i++)

  00053	83 c7 04	 add	 edi, 4
  00056	ff 4d f0	 dec	 DWORD PTR tv192[ebp]
  00059	75 e9		 jne	 SHORT $LL12@Excavation@4

; 945  : 	}
; 946  : 
; 947  : 	SAFEDELETE(m_pDistNumBlue);

  0005b	8b 8e b0 01 00
	00		 mov	 ecx, DWORD PTR [esi+432]
  00061	3b cb		 cmp	 ecx, ebx
  00063	74 0d		 je	 SHORT $LN8@Excavation@4
  00065	8b 01		 mov	 eax, DWORD PTR [ecx]
  00067	6a 01		 push	 1
  00069	ff 50 40	 call	 DWORD PTR [eax+64]
  0006c	89 9e b0 01 00
	00		 mov	 DWORD PTR [esi+432], ebx
$LN8@Excavation@4:

; 948  : 	SAFEDELETE(m_pDistNumYellow);

  00072	8b 8e b4 01 00
	00		 mov	 ecx, DWORD PTR [esi+436]
  00078	3b cb		 cmp	 ecx, ebx
  0007a	74 0d		 je	 SHORT $LN7@Excavation@4
  0007c	8b 01		 mov	 eax, DWORD PTR [ecx]
  0007e	6a 01		 push	 1
  00080	ff 50 40	 call	 DWORD PTR [eax+64]
  00083	89 9e b4 01 00
	00		 mov	 DWORD PTR [esi+436], ebx
$LN7@Excavation@4:

; 949  : 	SAFEDELETE(m_pDistNumRed);

  00089	8b 8e b8 01 00
	00		 mov	 ecx, DWORD PTR [esi+440]
  0008f	3b cb		 cmp	 ecx, ebx
  00091	74 0d		 je	 SHORT $LN6@Excavation@4
  00093	8b 01		 mov	 eax, DWORD PTR [ecx]
  00095	6a 01		 push	 1
  00097	ff 50 40	 call	 DWORD PTR [eax+64]
  0009a	89 9e b8 01 00
	00		 mov	 DWORD PTR [esi+440], ebx
$LN6@Excavation@4:

; 950  : 	SAFEDELETE(m_pRateNum);

  000a0	8b 8e bc 01 00
	00		 mov	 ecx, DWORD PTR [esi+444]
  000a6	3b cb		 cmp	 ecx, ebx
  000a8	74 0d		 je	 SHORT $LN5@Excavation@4
  000aa	8b 01		 mov	 eax, DWORD PTR [ecx]
  000ac	6a 01		 push	 1
  000ae	ff 50 40	 call	 DWORD PTR [eax+64]
  000b1	89 9e bc 01 00
	00		 mov	 DWORD PTR [esi+444], ebx
$LN5@Excavation@4:

; 951  : 	SAFEDELETE(m_pDistNone);

  000b7	8b 8e c0 01 00
	00		 mov	 ecx, DWORD PTR [esi+448]
  000bd	3b cb		 cmp	 ecx, ebx
  000bf	74 0d		 je	 SHORT $LN4@Excavation@4
  000c1	8b 01		 mov	 eax, DWORD PTR [ecx]
  000c3	6a 01		 push	 1
  000c5	ff 50 40	 call	 DWORD PTR [eax+64]
  000c8	89 9e c0 01 00
	00		 mov	 DWORD PTR [esi+448], ebx
$LN4@Excavation@4:

; 952  : 
; 953  : 	m_vDistLevelVector.clear();

  000ce	8b 86 e4 01 00
	00		 mov	 eax, DWORD PTR [esi+484]
  000d4	8b 8e e0 01 00
	00		 mov	 ecx, DWORD PTR [esi+480]
  000da	50		 push	 eax
  000db	51		 push	 ecx
  000dc	8d 45 f0	 lea	 eax, DWORD PTR $T549717[ebp]
  000df	50		 push	 eax
  000e0	8d 8e e0 01 00
	00		 lea	 ecx, DWORD PTR [esi+480]
  000e6	e8 00 00 00 00	 call	 ?erase@?$vector@HV?$allocator@H@std@@@std@@QAE?AV?$_Vector_iterator@V?$_Vector_val@HV?$allocator@H@std@@@std@@@2@V?$_Vector_const_iterator@V?$_Vector_val@HV?$allocator@H@std@@@std@@@2@0@Z ; std::vector<int,std::allocator<int> >::erase

; 954  : 
; 955  : 	if( !COMPARE( m_iDefaultX, 0, Setting::Width() ) || 
; 956  : 		!COMPARE( m_iDefaultY, 0, Setting::Height() ) )

  000eb	39 9e 08 02 00
	00		 cmp	 DWORD PTR [esi+520], ebx
  000f1	7c 5b		 jl	 SHORT $LN1@Excavation@4
  000f3	e8 00 00 00 00	 call	 ?Width@Setting@@SAHXZ	; Setting::Width
  000f8	39 86 08 02 00
	00		 cmp	 DWORD PTR [esi+520], eax
  000fe	7d 4e		 jge	 SHORT $LN1@Excavation@4
  00100	39 9e 0c 02 00
	00		 cmp	 DWORD PTR [esi+524], ebx
  00106	7c 46		 jl	 SHORT $LN1@Excavation@4
  00108	e8 00 00 00 00	 call	 ?Height@Setting@@SAHXZ	; Setting::Height
  0010d	39 86 0c 02 00
	00		 cmp	 DWORD PTR [esi+524], eax
  00113	7d 39		 jge	 SHORT $LN1@Excavation@4

; 957  : 		return;
; 958  : 
; 959  : 	g_GUIMgr.GUIPosSaveInt( "ExcavationSearchingWnd", "XPos", m_iDefaultX ,POS_SAVE_VERSION );

  00115	6a 04		 push	 4
  00117	ff b6 08 02 00
	00		 push	 DWORD PTR [esi+520]
  0011d	bb 00 00 00 00	 mov	 ebx, OFFSET ??_C@_0BH@EPABHOPI@ExcavationSearchingWnd?$AA@
  00122	68 00 00 00 00	 push	 OFFSET ??_C@_04LNCKCFGC@XPos?$AA@
  00127	53		 push	 ebx
  00128	e8 00 00 00 00	 call	 ?GetSingleton@ioSP2GUIManager@@SAAAV1@XZ ; ioSP2GUIManager::GetSingleton
  0012d	8b c8		 mov	 ecx, eax
  0012f	e8 00 00 00 00	 call	 ?GUIPosSaveInt@ioSP2GUIManager@@QAEHPBD0HH@Z ; ioSP2GUIManager::GUIPosSaveInt

; 960  : 	g_GUIMgr.GUIPosSaveInt( "ExcavationSearchingWnd", "YPos", m_iDefaultY ,POS_SAVE_VERSION );

  00134	6a 04		 push	 4
  00136	ff b6 0c 02 00
	00		 push	 DWORD PTR [esi+524]
  0013c	68 00 00 00 00	 push	 OFFSET ??_C@_04IAEKAMNC@YPos?$AA@
  00141	53		 push	 ebx
  00142	e8 00 00 00 00	 call	 ?GetSingleton@ioSP2GUIManager@@SAAAV1@XZ ; ioSP2GUIManager::GetSingleton
  00147	8b c8		 mov	 ecx, eax
  00149	e8 00 00 00 00	 call	 ?GUIPosSaveInt@ioSP2GUIManager@@QAEHPBD0HH@Z ; ioSP2GUIManager::GUIPosSaveInt
$LN1@Excavation@4:

; 961  : }

  0014e	8b 1d 00 00 00
	00		 mov	 ebx, DWORD PTR __imp_??1ioHashString@@QAE@XZ
  00154	8d 8e 70 02 00
	00		 lea	 ecx, DWORD PTR [esi+624]
  0015a	c6 45 fc 02	 mov	 BYTE PTR __$EHRec$[ebp+8], 2
  0015e	ff d3		 call	 ebx
  00160	53		 push	 ebx
  00161	6a 06		 push	 6
  00163	6a 10		 push	 16			; 00000010H
  00165	8d 86 10 02 00
	00		 lea	 eax, DWORD PTR [esi+528]
  0016b	50		 push	 eax
  0016c	c6 45 fc 01	 mov	 BYTE PTR __$EHRec$[ebp+8], 1
  00170	e8 00 00 00 00	 call	 ??_M@YGXPAXIHP6EX0@Z@Z
  00175	8d 8e e0 01 00
	00		 lea	 ecx, DWORD PTR [esi+480]
  0017b	c6 45 fc 00	 mov	 BYTE PTR __$EHRec$[ebp+8], 0
  0017f	e8 00 00 00 00	 call	 ?_Tidy@?$vector@HV?$allocator@H@std@@@std@@IAEXXZ ; std::vector<int,std::allocator<int> >::_Tidy
  00184	83 4d fc ff	 or	 DWORD PTR __$EHRec$[ebp+8], -1
  00188	8b ce		 mov	 ecx, esi
  0018a	ff 15 00 00 00
	00		 call	 DWORD PTR __imp_??1ioMovingWnd@@UAE@XZ
  00190	e8 00 00 00 00	 call	 __EH_epilog3
  00195	c3		 ret	 0
_TEXT	ENDS
;	COMDAT text$x
text$x	SEGMENT
__unwindfunclet$??1ExcavationSearchingWnd@@UAE@XZ$0:
  00000	8b 4d ec	 mov	 ecx, DWORD PTR _this$[ebp]
  00003	ff 25 00 00 00
	00		 jmp	 DWORD PTR __imp_??1ioMovingWnd@@UAE@XZ
__unwindfunclet$??1ExcavationSearchingWnd@@UAE@XZ$1:
  00009	8b 4d ec	 mov	 ecx, DWORD PTR _this$[ebp]
  0000c	81 c1 e0 01 00
	00		 add	 ecx, 480		; 000001e0H
  00012	e9 00 00 00 00	 jmp	 ??1?$vector@HV?$allocator@H@std@@@std@@QAE@XZ ; std::vector<int,std::allocator<int> >::~vector<int,std::allocator<int> >
__unwindfunclet$??1ExcavationSearchingWnd@@UAE@XZ$2:
  00017	ff 35 00 00 00
	00		 push	 DWORD PTR __imp_??1ioHashString@@QAE@XZ
  0001d	6a 06		 push	 6
  0001f	6a 10		 push	 16			; 00000010H
  00021	8b 45 ec	 mov	 eax, DWORD PTR _this$[ebp]
  00024	05 10 02 00 00	 add	 eax, 528		; 00000210H
  00029	50		 push	 eax
  0002a	e8 00 00 00 00	 call	 ??_M@YGXPAXIHP6EX0@Z@Z
  0002f	c3		 ret	 0
__unwindfunclet$??1ExcavationSearchingWnd@@UAE@XZ$3:
  00030	8b 4d ec	 mov	 ecx, DWORD PTR _this$[ebp]
  00033	81 c1 70 02 00
	00		 add	 ecx, 624		; 00000270H
  00039	ff 25 00 00 00
	00		 jmp	 DWORD PTR __imp_??1ioHashString@@QAE@XZ
__ehhandler$??1ExcavationSearchingWnd@@UAE@XZ:
  0003f	8b 54 24 08	 mov	 edx, DWORD PTR [esp+8]
  00043	8d 42 0c	 lea	 eax, DWORD PTR [edx+12]
  00046	8b 4a e8	 mov	 ecx, DWORD PTR [edx-24]
  00049	33 c8		 xor	 ecx, eax
  0004b	e8 00 00 00 00	 call	 @__security_check_cookie@4
  00050	b8 00 00 00 00	 mov	 eax, OFFSET __ehfuncinfo$??1ExcavationSearchingWnd@@UAE@XZ
  00055	e9 00 00 00 00	 jmp	 ___CxxFrameHandler3
text$x	ENDS
??1ExcavationSearchingWnd@@UAE@XZ ENDP			; ExcavationSearchingWnd::~ExcavationSearchingWnd
PUBLIC	?push_back@?$vector@HV?$allocator@H@std@@@std@@QAEX$$QAH@Z ; std::vector<int,std::allocator<int> >::push_back
; Function compile flags: /Ogsp
; File c:\program files (x86)\microsoft visual studio 10.0\vc\include\vector
;	COMDAT ?push_back@?$vector@HV?$allocator@H@std@@@std@@QAEX$$QAH@Z
_TEXT	SEGMENT
__Val$ = 8						; size = 4
?push_back@?$vector@HV?$allocator@H@std@@@std@@QAEX$$QAH@Z PROC ; std::vector<int,std::allocator<int> >::push_back, COMDAT
; _this$ = ecx

; 631  : 		{	// insert element at end

  00000	55		 push	 ebp
  00001	8b ec		 mov	 ebp, esp
  00003	56		 push	 esi
  00004	8b f1		 mov	 esi, ecx

; 632  : 		if (_Inside(_STD addressof(_Val)))

  00006	8b 46 04	 mov	 eax, DWORD PTR [esi+4]
  00009	57		 push	 edi
  0000a	8b 7d 08	 mov	 edi, DWORD PTR __Val$[ebp]
  0000d	3b f8		 cmp	 edi, eax
  0000f	73 27		 jae	 SHORT $LN4@push_back
  00011	8b 0e		 mov	 ecx, DWORD PTR [esi]
  00013	3b cf		 cmp	 ecx, edi
  00015	77 21		 ja	 SHORT $LN4@push_back

; 633  : 			{	// push back an element
; 634  : 			size_type _Idx = _STD addressof(_Val) - this->_Myfirst;

  00017	2b f9		 sub	 edi, ecx
  00019	c1 ff 02	 sar	 edi, 2

; 635  : 			if (this->_Mylast == this->_Myend)

  0001c	3b 46 08	 cmp	 eax, DWORD PTR [esi+8]
  0001f	75 09		 jne	 SHORT $LN3@push_back

; 636  : 				_Reserve(1);

  00021	6a 01		 push	 1
  00023	8b ce		 mov	 ecx, esi
  00025	e8 00 00 00 00	 call	 ?_Reserve@?$vector@HV?$allocator@H@std@@@std@@IAEXI@Z ; std::vector<int,std::allocator<int> >::_Reserve
$LN3@push_back:

; 637  : 			_Orphan_range(this->_Mylast, this->_Mylast);
; 638  : 			_Cons_val(this->_Alval,
; 639  : 				this->_Mylast,
; 640  : 				_STD forward<_Ty>(this->_Myfirst[_Idx]));

  0002a	8b 46 04	 mov	 eax, DWORD PTR [esi+4]
  0002d	85 c0		 test	 eax, eax
  0002f	74 20		 je	 SHORT $LN41@push_back
  00031	8b 0e		 mov	 ecx, DWORD PTR [esi]
  00033	8b 0c b9	 mov	 ecx, DWORD PTR [ecx+edi*4]

; 641  : 			++this->_Mylast;
; 642  : 			}
; 643  : 		else

  00036	eb 17		 jmp	 SHORT $LN48@push_back
$LN4@push_back:

; 644  : 			{	// push back a non-element
; 645  : 			if (this->_Mylast == this->_Myend)

  00038	3b 46 08	 cmp	 eax, DWORD PTR [esi+8]
  0003b	75 09		 jne	 SHORT $LN1@push_back

; 646  : 				_Reserve(1);

  0003d	6a 01		 push	 1
  0003f	8b ce		 mov	 ecx, esi
  00041	e8 00 00 00 00	 call	 ?_Reserve@?$vector@HV?$allocator@H@std@@@std@@IAEXI@Z ; std::vector<int,std::allocator<int> >::_Reserve
$LN1@push_back:

; 647  : 			_Orphan_range(this->_Mylast, this->_Mylast);
; 648  : 			_Cons_val(this->_Alval,
; 649  : 				this->_Mylast,
; 650  : 				_STD forward<_Ty>(_Val));

  00046	8b 46 04	 mov	 eax, DWORD PTR [esi+4]
  00049	85 c0		 test	 eax, eax
  0004b	74 04		 je	 SHORT $LN41@push_back
  0004d	8b 0f		 mov	 ecx, DWORD PTR [edi]
$LN48@push_back:
  0004f	89 08		 mov	 DWORD PTR [eax], ecx
$LN41@push_back:

; 651  : 			++this->_Mylast;

  00051	83 46 04 04	 add	 DWORD PTR [esi+4], 4
  00055	5f		 pop	 edi
  00056	5e		 pop	 esi

; 652  : 			}
; 653  : 		}

  00057	5d		 pop	 ebp
  00058	c2 04 00	 ret	 4
?push_back@?$vector@HV?$allocator@H@std@@@std@@QAEX$$QAH@Z ENDP ; std::vector<int,std::allocator<int> >::push_back
_TEXT	ENDS
PUBLIC	?push_back@?$vector@HV?$allocator@H@std@@@std@@QAEXABH@Z ; std::vector<int,std::allocator<int> >::push_back
; Function compile flags: /Ogsp
;	COMDAT ?push_back@?$vector@HV?$allocator@H@std@@@std@@QAEXABH@Z
_TEXT	SEGMENT
__Val$ = 8						; size = 4
?push_back@?$vector@HV?$allocator@H@std@@@std@@QAEXABH@Z PROC ; std::vector<int,std::allocator<int> >::push_back, COMDAT
; _this$ = ecx

; 976  : 		{	// insert element at end

  00000	55		 push	 ebp
  00001	8b ec		 mov	 ebp, esp
  00003	56		 push	 esi
  00004	8b f1		 mov	 esi, ecx

; 977  : 		if (_Inside(_STD addressof(_Val)))

  00006	8b 46 04	 mov	 eax, DWORD PTR [esi+4]
  00009	57		 push	 edi
  0000a	8b 7d 08	 mov	 edi, DWORD PTR __Val$[ebp]
  0000d	3b f8		 cmp	 edi, eax
  0000f	73 27		 jae	 SHORT $LN4@push_back@2
  00011	8b 0e		 mov	 ecx, DWORD PTR [esi]
  00013	3b cf		 cmp	 ecx, edi
  00015	77 21		 ja	 SHORT $LN4@push_back@2

; 978  : 			{	// push back an element
; 979  : 			size_type _Idx = _STD addressof(_Val) - this->_Myfirst;

  00017	2b f9		 sub	 edi, ecx
  00019	c1 ff 02	 sar	 edi, 2

; 980  : 			if (this->_Mylast == this->_Myend)

  0001c	3b 46 08	 cmp	 eax, DWORD PTR [esi+8]
  0001f	75 09		 jne	 SHORT $LN3@push_back@2

; 981  : 				_Reserve(1);

  00021	6a 01		 push	 1
  00023	8b ce		 mov	 ecx, esi
  00025	e8 00 00 00 00	 call	 ?_Reserve@?$vector@HV?$allocator@H@std@@@std@@IAEXI@Z ; std::vector<int,std::allocator<int> >::_Reserve
$LN3@push_back@2:

; 982  : 			_Orphan_range(this->_Mylast, this->_Mylast);
; 983  : 			_Cons_val(this->_Alval,
; 984  : 				this->_Mylast,
; 985  : 				this->_Myfirst[_Idx]);

  0002a	8b 46 04	 mov	 eax, DWORD PTR [esi+4]
  0002d	85 c0		 test	 eax, eax
  0002f	74 20		 je	 SHORT $LN39@push_back@2
  00031	8b 0e		 mov	 ecx, DWORD PTR [esi]
  00033	8b 0c b9	 mov	 ecx, DWORD PTR [ecx+edi*4]

; 986  : 			++this->_Mylast;
; 987  : 			}
; 988  : 		else

  00036	eb 17		 jmp	 SHORT $LN46@push_back@2
$LN4@push_back@2:

; 989  : 			{	// push back a non-element
; 990  : 			if (this->_Mylast == this->_Myend)

  00038	3b 46 08	 cmp	 eax, DWORD PTR [esi+8]
  0003b	75 09		 jne	 SHORT $LN1@push_back@2

; 991  : 				_Reserve(1);

  0003d	6a 01		 push	 1
  0003f	8b ce		 mov	 ecx, esi
  00041	e8 00 00 00 00	 call	 ?_Reserve@?$vector@HV?$allocator@H@std@@@std@@IAEXI@Z ; std::vector<int,std::allocator<int> >::_Reserve
$LN1@push_back@2:

; 992  : 			_Orphan_range(this->_Mylast, this->_Mylast);
; 993  : 			_Cons_val(this->_Alval,
; 994  : 				this->_Mylast,
; 995  : 				_Val);

  00046	8b 46 04	 mov	 eax, DWORD PTR [esi+4]
  00049	85 c0		 test	 eax, eax
  0004b	74 04		 je	 SHORT $LN39@push_back@2
  0004d	8b 0f		 mov	 ecx, DWORD PTR [edi]
$LN46@push_back@2:
  0004f	89 08		 mov	 DWORD PTR [eax], ecx
$LN39@push_back@2:

; 996  : 			++this->_Mylast;

  00051	83 46 04 04	 add	 DWORD PTR [esi+4], 4
  00055	5f		 pop	 edi
  00056	5e		 pop	 esi

; 997  : 			}
; 998  : 		}

  00057	5d		 pop	 ebp
  00058	c2 04 00	 ret	 4
?push_back@?$vector@HV?$allocator@H@std@@@std@@QAEXABH@Z ENDP ; std::vector<int,std::allocator<int> >::push_back
_TEXT	ENDS
PUBLIC	??$_Sort_heap@PAHVDistLevelSort@ExcavationSearchingWnd@@@std@@YAXPAH0VDistLevelSort@ExcavationSearchingWnd@@@Z ; std::_Sort_heap<int *,ExcavationSearchingWnd::DistLevelSort>
; Function compile flags: /Ogsp
; File c:\program files (x86)\microsoft visual studio 10.0\vc\include\algorithm
;	COMDAT ??$_Sort_heap@PAHVDistLevelSort@ExcavationSearchingWnd@@@std@@YAXPAH0VDistLevelSort@ExcavationSearchingWnd@@@Z
_TEXT	SEGMENT
__First$ = 8						; size = 4
__Last$ = 12						; size = 4
__Pred$ = 16						; size = 1
??$_Sort_heap@PAHVDistLevelSort@ExcavationSearchingWnd@@@std@@YAXPAH0VDistLevelSort@ExcavationSearchingWnd@@@Z PROC ; std::_Sort_heap<int *,ExcavationSearchingWnd::DistLevelSort>, COMDAT

; 2700 : 	{	// order heap by repeatedly popping, using _Pred

  00000	55		 push	 ebp
  00001	8b ec		 mov	 ebp, esp

; 2701 : 	for (; 1 < _Last - _First; --_Last)

  00003	8b 45 0c	 mov	 eax, DWORD PTR __Last$[ebp]
  00006	2b 45 08	 sub	 eax, DWORD PTR __First$[ebp]
  00009	8b c8		 mov	 ecx, eax
  0000b	83 e1 fc	 and	 ecx, -4			; fffffffcH
  0000e	83 f9 04	 cmp	 ecx, 4
  00011	7e 28		 jle	 SHORT $LN1@Sort_heap
  00013	57		 push	 edi
  00014	8b f8		 mov	 edi, eax
$LL3@Sort_heap:

; 2702 : 		_Pop_heap(_First, _Last, _Pred);

  00016	6a 00		 push	 0
  00018	ff 75 10	 push	 DWORD PTR __Pred$[ebp]
  0001b	ff 75 0c	 push	 DWORD PTR __Last$[ebp]
  0001e	ff 75 08	 push	 DWORD PTR __First$[ebp]
  00021	e8 00 00 00 00	 call	 ??$_Pop_heap_0@PAHHVDistLevelSort@ExcavationSearchingWnd@@@std@@YAXPAH0VDistLevelSort@ExcavationSearchingWnd@@0@Z ; std::_Pop_heap_0<int *,int,ExcavationSearchingWnd::DistLevelSort>
  00026	83 6d 0c 04	 sub	 DWORD PTR __Last$[ebp], 4
  0002a	83 ef 04	 sub	 edi, 4
  0002d	8b c7		 mov	 eax, edi
  0002f	83 e0 fc	 and	 eax, -4			; fffffffcH
  00032	83 c4 10	 add	 esp, 16			; 00000010H
  00035	83 f8 04	 cmp	 eax, 4
  00038	7f dc		 jg	 SHORT $LL3@Sort_heap
  0003a	5f		 pop	 edi
$LN1@Sort_heap:

; 2703 : 	}

  0003b	5d		 pop	 ebp
  0003c	c3		 ret	 0
??$_Sort_heap@PAHVDistLevelSort@ExcavationSearchingWnd@@@std@@YAXPAH0VDistLevelSort@ExcavationSearchingWnd@@@Z ENDP ; std::_Sort_heap<int *,ExcavationSearchingWnd::DistLevelSort>
_TEXT	ENDS
PUBLIC	??$_Sort_heap@PAH@std@@YAXPAH0@Z		; std::_Sort_heap<int *>
; Function compile flags: /Ogsp
;	COMDAT ??$_Sort_heap@PAH@std@@YAXPAH0@Z
_TEXT	SEGMENT
__First$ = 8						; size = 4
__Last$ = 12						; size = 4
??$_Sort_heap@PAH@std@@YAXPAH0@Z PROC			; std::_Sort_heap<int *>, COMDAT

; 2683 : 	{	// order heap by repeatedly popping, using operator<

  00000	55		 push	 ebp
  00001	8b ec		 mov	 ebp, esp

; 2684 : 	for (; 1 < _Last - _First; --_Last)

  00003	8b 45 0c	 mov	 eax, DWORD PTR __Last$[ebp]
  00006	2b 45 08	 sub	 eax, DWORD PTR __First$[ebp]
  00009	8b c8		 mov	 ecx, eax
  0000b	83 e1 fc	 and	 ecx, -4			; fffffffcH
  0000e	83 f9 04	 cmp	 ecx, 4
  00011	7e 25		 jle	 SHORT $LN1@Sort_heap@2
  00013	57		 push	 edi
  00014	8b f8		 mov	 edi, eax
$LL3@Sort_heap@2:

; 2685 : 		_Pop_heap(_First, _Last);

  00016	6a 00		 push	 0
  00018	ff 75 0c	 push	 DWORD PTR __Last$[ebp]
  0001b	ff 75 08	 push	 DWORD PTR __First$[ebp]
  0001e	e8 00 00 00 00	 call	 ??$_Pop_heap_0@PAHH@std@@YAXPAH00@Z ; std::_Pop_heap_0<int *,int>
  00023	83 6d 0c 04	 sub	 DWORD PTR __Last$[ebp], 4
  00027	83 ef 04	 sub	 edi, 4
  0002a	8b c7		 mov	 eax, edi
  0002c	83 e0 fc	 and	 eax, -4			; fffffffcH
  0002f	83 c4 0c	 add	 esp, 12			; 0000000cH
  00032	83 f8 04	 cmp	 eax, 4
  00035	7f df		 jg	 SHORT $LL3@Sort_heap@2
  00037	5f		 pop	 edi
$LN1@Sort_heap@2:

; 2686 : 	}

  00038	5d		 pop	 ebp
  00039	c3		 ret	 0
??$_Sort_heap@PAH@std@@YAXPAH0@Z ENDP			; std::_Sort_heap<int *>
; Function compile flags: /Ogsp
_TEXT	ENDS
;	COMDAT ??_GExcavationSearchingWnd@@UAEPAXI@Z
_TEXT	SEGMENT
___flags$ = 8						; size = 4
??_GExcavationSearchingWnd@@UAEPAXI@Z PROC		; ExcavationSearchingWnd::`scalar deleting destructor', COMDAT
; _this$ = ecx
  00000	55		 push	 ebp
  00001	8b ec		 mov	 ebp, esp
  00003	56		 push	 esi
  00004	8b f1		 mov	 esi, ecx
  00006	e8 00 00 00 00	 call	 ??1ExcavationSearchingWnd@@UAE@XZ ; ExcavationSearchingWnd::~ExcavationSearchingWnd
  0000b	f6 45 08 01	 test	 BYTE PTR ___flags$[ebp], 1
  0000f	74 07		 je	 SHORT $LN1@scalar@7
  00011	56		 push	 esi
  00012	e8 00 00 00 00	 call	 ??3@YAXPAX@Z		; operator delete
  00017	59		 pop	 ecx
$LN1@scalar@7:
  00018	8b c6		 mov	 eax, esi
  0001a	5e		 pop	 esi
  0001b	5d		 pop	 ebp
  0001c	c2 04 00	 ret	 4
??_GExcavationSearchingWnd@@UAEPAXI@Z ENDP		; ExcavationSearchingWnd::`scalar deleting destructor'
_TEXT	ENDS
PUBLIC	??$sort_heap@PAHVDistLevelSort@ExcavationSearchingWnd@@@std@@YAXPAH0VDistLevelSort@ExcavationSearchingWnd@@@Z ; std::sort_heap<int *,ExcavationSearchingWnd::DistLevelSort>
; Function compile flags: /Ogsp
;	COMDAT ??$sort_heap@PAHVDistLevelSort@ExcavationSearchingWnd@@@std@@YAXPAH0VDistLevelSort@ExcavationSearchingWnd@@@Z
_TEXT	SEGMENT
__First$ = 8						; size = 4
__Last$ = 12						; size = 4
__Pred$ = 16						; size = 1
??$sort_heap@PAHVDistLevelSort@ExcavationSearchingWnd@@@std@@YAXPAH0VDistLevelSort@ExcavationSearchingWnd@@@Z PROC ; std::sort_heap<int *,ExcavationSearchingWnd::DistLevelSort>, COMDAT

; 2708 : 	{	// order heap by repeatedly popping, using _Pred

  00000	55		 push	 ebp
  00001	8b ec		 mov	 ebp, esp

; 2709 : 	_DEBUG_RANGE(_First, _Last);
; 2710 : 	_DEBUG_POINTER(_Pred);
; 2711 : 	_DEBUG_HEAP_PRED(_First, _Last, _Pred);
; 2712 : 	_Sort_heap(_Unchecked(_First), _Unchecked(_Last), _Pred);

  00003	ff 75 10	 push	 DWORD PTR __Pred$[ebp]
  00006	ff 75 0c	 push	 DWORD PTR __Last$[ebp]
  00009	ff 75 08	 push	 DWORD PTR __First$[ebp]
  0000c	e8 00 00 00 00	 call	 ??$_Sort_heap@PAHVDistLevelSort@ExcavationSearchingWnd@@@std@@YAXPAH0VDistLevelSort@ExcavationSearchingWnd@@@Z ; std::_Sort_heap<int *,ExcavationSearchingWnd::DistLevelSort>
  00011	83 c4 0c	 add	 esp, 12			; 0000000cH

; 2713 : 	}

  00014	5d		 pop	 ebp
  00015	c3		 ret	 0
??$sort_heap@PAHVDistLevelSort@ExcavationSearchingWnd@@@std@@YAXPAH0VDistLevelSort@ExcavationSearchingWnd@@@Z ENDP ; std::sort_heap<int *,ExcavationSearchingWnd::DistLevelSort>
_TEXT	ENDS
PUBLIC	??$sort_heap@PAH@std@@YAXPAH0@Z			; std::sort_heap<int *>
; Function compile flags: /Ogsp
;	COMDAT ??$sort_heap@PAH@std@@YAXPAH0@Z
_TEXT	SEGMENT
__First$ = 8						; size = 4
__Last$ = 12						; size = 4
??$sort_heap@PAH@std@@YAXPAH0@Z PROC			; std::sort_heap<int *>, COMDAT

; 2690 : 	{	// order heap by repeatedly popping, using operator<

  00000	55		 push	 ebp
  00001	8b ec		 mov	 ebp, esp

; 2694 : 	}

  00003	5d		 pop	 ebp

; 2691 : 	_DEBUG_RANGE(_First, _Last);
; 2692 : 	_DEBUG_HEAP(_First, _Last);
; 2693 : 	_Sort_heap(_Unchecked(_First), _Unchecked(_Last));

  00004	e9 00 00 00 00	 jmp	 ??$_Sort_heap@PAH@std@@YAXPAH0@Z ; std::_Sort_heap<int *>
??$sort_heap@PAH@std@@YAXPAH0@Z ENDP			; std::sort_heap<int *>
_TEXT	ENDS
PUBLIC	??$_Sort@PAHHVDistLevelSort@ExcavationSearchingWnd@@@std@@YAXPAH0HVDistLevelSort@ExcavationSearchingWnd@@@Z ; std::_Sort<int *,int,ExcavationSearchingWnd::DistLevelSort>
; Function compile flags: /Ogsp
;	COMDAT ??$_Sort@PAHHVDistLevelSort@ExcavationSearchingWnd@@@std@@YAXPAH0HVDistLevelSort@ExcavationSearchingWnd@@@Z
_TEXT	SEGMENT
__Mid$540449 = -8					; size = 8
__First$ = 8						; size = 4
__Last$ = 12						; size = 4
__Ideal$ = 16						; size = 4
__Pred$ = 20						; size = 1
??$_Sort@PAHHVDistLevelSort@ExcavationSearchingWnd@@@std@@YAXPAH0HVDistLevelSort@ExcavationSearchingWnd@@@Z PROC ; std::_Sort<int *,int,ExcavationSearchingWnd::DistLevelSort>, COMDAT

; 3771 : 	{	// order [_First, _Last), using _Pred

  00000	55		 push	 ebp
  00001	8b ec		 mov	 ebp, esp
  00003	51		 push	 ecx
  00004	51		 push	 ecx
  00005	53		 push	 ebx

; 3772 : 	_Diff _Count;
; 3773 : 	for (; _ISORT_MAX < (_Count = _Last - _First) && 0 < _Ideal; )

  00006	8b 5d 08	 mov	 ebx, DWORD PTR __First$[ebp]
  00009	57		 push	 edi
  0000a	8b 7d 0c	 mov	 edi, DWORD PTR __Last$[ebp]
  0000d	8b c7		 mov	 eax, edi
  0000f	2b c3		 sub	 eax, ebx
  00011	c1 f8 02	 sar	 eax, 2
  00014	83 f8 20	 cmp	 eax, 32			; 00000020H
  00017	0f 8e 89 00 00
	00		 jle	 $LN22@Sort
  0001d	56		 push	 esi
  0001e	8b 75 10	 mov	 esi, DWORD PTR __Ideal$[ebp]
$LL7@Sort:
  00021	85 f6		 test	 esi, esi
  00023	7e 62		 jle	 SHORT $LN6@Sort

; 3774 : 		{	// divide and conquer by quicksort
; 3775 : 		_STD pair<_RanIt, _RanIt> _Mid =
; 3776 : 			_Unguarded_partition(_First, _Last, _Pred);

  00025	ff 75 14	 push	 DWORD PTR __Pred$[ebp]
  00028	8d 45 f8	 lea	 eax, DWORD PTR __Mid$540449[ebp]
  0002b	57		 push	 edi
  0002c	53		 push	 ebx
  0002d	50		 push	 eax
  0002e	e8 00 00 00 00	 call	 ??$_Unguarded_partition@PAHVDistLevelSort@ExcavationSearchingWnd@@@std@@YA?AU?$pair@PAHPAH@0@PAH0VDistLevelSort@ExcavationSearchingWnd@@@Z ; std::_Unguarded_partition<int *,ExcavationSearchingWnd::DistLevelSort>

; 3777 : 		_Ideal /= 2, _Ideal += _Ideal / 2;	// allow 1.5 log2(N) divisions
; 3778 : 
; 3779 : 		if (_Mid.first - _First < _Last - _Mid.second)

  00033	8b 4d f8	 mov	 ecx, DWORD PTR __Mid$540449[ebp]
  00036	8b c6		 mov	 eax, esi
  00038	99		 cdq
  00039	2b c2		 sub	 eax, edx
  0003b	d1 f8		 sar	 eax, 1
  0003d	8b f0		 mov	 esi, eax
  0003f	99		 cdq
  00040	2b c2		 sub	 eax, edx
  00042	d1 f8		 sar	 eax, 1
  00044	03 f0		 add	 esi, eax
  00046	8b c7		 mov	 eax, edi
  00048	2b 45 fc	 sub	 eax, DWORD PTR __Mid$540449[ebp+4]
  0004b	83 c4 10	 add	 esp, 16			; 00000010H

; 3780 : 			{	// loop on second half
; 3781 : 			_Sort(_First, _Mid.first, _Ideal, _Pred);

  0004e	ff 75 14	 push	 DWORD PTR __Pred$[ebp]
  00051	2b cb		 sub	 ecx, ebx
  00053	83 e0 fc	 and	 eax, -4			; fffffffcH
  00056	83 e1 fc	 and	 ecx, -4			; fffffffcH
  00059	56		 push	 esi
  0005a	3b c8		 cmp	 ecx, eax
  0005c	7d 0e		 jge	 SHORT $LN5@Sort
  0005e	ff 75 f8	 push	 DWORD PTR __Mid$540449[ebp]
  00061	53		 push	 ebx
  00062	e8 00 00 00 00	 call	 ??$_Sort@PAHHVDistLevelSort@ExcavationSearchingWnd@@@std@@YAXPAH0HVDistLevelSort@ExcavationSearchingWnd@@@Z ; std::_Sort<int *,int,ExcavationSearchingWnd::DistLevelSort>

; 3782 : 			_First = _Mid.second;

  00067	8b 5d fc	 mov	 ebx, DWORD PTR __Mid$540449[ebp+4]

; 3783 : 			}
; 3784 : 		else

  0006a	eb 0c		 jmp	 SHORT $LN23@Sort
$LN5@Sort:

; 3785 : 			{	// loop on first half
; 3786 : 			_Sort(_Mid.second, _Last, _Ideal, _Pred);

  0006c	57		 push	 edi
  0006d	ff 75 fc	 push	 DWORD PTR __Mid$540449[ebp+4]
  00070	e8 00 00 00 00	 call	 ??$_Sort@PAHHVDistLevelSort@ExcavationSearchingWnd@@@std@@YAXPAH0HVDistLevelSort@ExcavationSearchingWnd@@@Z ; std::_Sort<int *,int,ExcavationSearchingWnd::DistLevelSort>

; 3787 : 			_Last = _Mid.first;

  00075	8b 7d f8	 mov	 edi, DWORD PTR __Mid$540449[ebp]
$LN23@Sort:

; 3772 : 	_Diff _Count;
; 3773 : 	for (; _ISORT_MAX < (_Count = _Last - _First) && 0 < _Ideal; )

  00078	8b c7		 mov	 eax, edi
  0007a	2b c3		 sub	 eax, ebx
  0007c	c1 f8 02	 sar	 eax, 2

; 3785 : 			{	// loop on first half
; 3786 : 			_Sort(_Mid.second, _Last, _Ideal, _Pred);

  0007f	83 c4 10	 add	 esp, 16			; 00000010H
  00082	83 f8 20	 cmp	 eax, 32			; 00000020H
  00085	7f 9a		 jg	 SHORT $LL7@Sort
$LN6@Sort:
  00087	5e		 pop	 esi

; 3788 : 			}
; 3789 : 		}
; 3790 : 
; 3791 : 	if (_ISORT_MAX < _Count)

  00088	83 f8 20	 cmp	 eax, 32			; 00000020H
  0008b	7e 19		 jle	 SHORT $LN22@Sort

; 3792 : 		{	// heap sort if too many divisions
; 3793 : 		_STD make_heap(_First, _Last, _Pred);

  0008d	ff 75 14	 push	 DWORD PTR __Pred$[ebp]
  00090	57		 push	 edi
  00091	53		 push	 ebx
  00092	e8 00 00 00 00	 call	 ??$make_heap@PAHVDistLevelSort@ExcavationSearchingWnd@@@std@@YAXPAH0VDistLevelSort@ExcavationSearchingWnd@@@Z ; std::make_heap<int *,ExcavationSearchingWnd::DistLevelSort>

; 3794 : 		_STD sort_heap(_First, _Last, _Pred);

  00097	ff 75 14	 push	 DWORD PTR __Pred$[ebp]
  0009a	57		 push	 edi
  0009b	53		 push	 ebx
  0009c	e8 00 00 00 00	 call	 ??$_Sort_heap@PAHVDistLevelSort@ExcavationSearchingWnd@@@std@@YAXPAH0VDistLevelSort@ExcavationSearchingWnd@@@Z ; std::_Sort_heap<int *,ExcavationSearchingWnd::DistLevelSort>
  000a1	83 c4 18	 add	 esp, 24			; 00000018H
  000a4	eb 14		 jmp	 SHORT $LN16@Sort
$LN22@Sort:

; 3795 : 		}
; 3796 : 	else if (1 < _Count)

  000a6	83 f8 01	 cmp	 eax, 1
  000a9	7e 0f		 jle	 SHORT $LN16@Sort

; 3797 : 		_Insertion_sort(_First, _Last, _Pred);	// small

  000ab	6a 00		 push	 0
  000ad	ff 75 14	 push	 DWORD PTR __Pred$[ebp]
  000b0	57		 push	 edi
  000b1	53		 push	 ebx
  000b2	e8 00 00 00 00	 call	 ??$_Insertion_sort1@PAHVDistLevelSort@ExcavationSearchingWnd@@H@std@@YAXPAH0VDistLevelSort@ExcavationSearchingWnd@@0@Z ; std::_Insertion_sort1<int *,ExcavationSearchingWnd::DistLevelSort,int>
  000b7	83 c4 10	 add	 esp, 16			; 00000010H
$LN16@Sort:
  000ba	5f		 pop	 edi
  000bb	5b		 pop	 ebx

; 3798 : 	}

  000bc	c9		 leave
  000bd	c3		 ret	 0
??$_Sort@PAHHVDistLevelSort@ExcavationSearchingWnd@@@std@@YAXPAH0HVDistLevelSort@ExcavationSearchingWnd@@@Z ENDP ; std::_Sort<int *,int,ExcavationSearchingWnd::DistLevelSort>
_TEXT	ENDS
PUBLIC	??$_Sort@PAHH@std@@YAXPAH0H@Z			; std::_Sort<int *,int>
; Function compile flags: /Ogsp
;	COMDAT ??$_Sort@PAHH@std@@YAXPAH0H@Z
_TEXT	SEGMENT
__Mid$540517 = -8					; size = 8
__First$ = 8						; size = 4
__Last$ = 12						; size = 4
__Ideal$ = 16						; size = 4
??$_Sort@PAHH@std@@YAXPAH0H@Z PROC			; std::_Sort<int *,int>, COMDAT

; 3609 : 	{	// order [_First, _Last), using operator<

  00000	55		 push	 ebp
  00001	8b ec		 mov	 ebp, esp
  00003	51		 push	 ecx
  00004	51		 push	 ecx
  00005	53		 push	 ebx

; 3610 : 	_Diff _Count;
; 3611 : 	for (; _ISORT_MAX < (_Count = _Last - _First) && 0 < _Ideal; )

  00006	8b 5d 08	 mov	 ebx, DWORD PTR __First$[ebp]
  00009	57		 push	 edi
  0000a	8b 7d 0c	 mov	 edi, DWORD PTR __Last$[ebp]
  0000d	8b c7		 mov	 eax, edi
  0000f	2b c3		 sub	 eax, ebx
  00011	c1 f8 02	 sar	 eax, 2
  00014	83 f8 20	 cmp	 eax, 32			; 00000020H
  00017	7e 7d		 jle	 SHORT $LN22@Sort@2
  00019	56		 push	 esi
  0001a	8b 75 10	 mov	 esi, DWORD PTR __Ideal$[ebp]
$LL7@Sort@2:
  0001d	85 f6		 test	 esi, esi
  0001f	7e 5c		 jle	 SHORT $LN6@Sort@2

; 3612 : 		{	// divide and conquer by quicksort
; 3613 : 		_STD pair<_RanIt, _RanIt> _Mid =
; 3614 : 			_Unguarded_partition(_First, _Last);

  00021	57		 push	 edi
  00022	8d 45 f8	 lea	 eax, DWORD PTR __Mid$540517[ebp]
  00025	53		 push	 ebx
  00026	50		 push	 eax
  00027	e8 00 00 00 00	 call	 ??$_Unguarded_partition@PAH@std@@YA?AU?$pair@PAHPAH@0@PAH0@Z ; std::_Unguarded_partition<int *>

; 3615 : 		_Ideal /= 2, _Ideal += _Ideal / 2;	// allow 1.5 log2(N) divisions
; 3616 : 
; 3617 : 		if (_Mid.first - _First < _Last - _Mid.second)

  0002c	8b 4d f8	 mov	 ecx, DWORD PTR __Mid$540517[ebp]
  0002f	8b c6		 mov	 eax, esi
  00031	99		 cdq
  00032	2b c2		 sub	 eax, edx
  00034	d1 f8		 sar	 eax, 1
  00036	8b f0		 mov	 esi, eax
  00038	99		 cdq
  00039	2b c2		 sub	 eax, edx
  0003b	d1 f8		 sar	 eax, 1
  0003d	03 f0		 add	 esi, eax
  0003f	8b c7		 mov	 eax, edi
  00041	2b 45 fc	 sub	 eax, DWORD PTR __Mid$540517[ebp+4]
  00044	2b cb		 sub	 ecx, ebx
  00046	83 c4 0c	 add	 esp, 12			; 0000000cH
  00049	83 e0 fc	 and	 eax, -4			; fffffffcH
  0004c	83 e1 fc	 and	 ecx, -4			; fffffffcH

; 3618 : 			{	// loop on second half
; 3619 : 			_Sort(_First, _Mid.first, _Ideal);

  0004f	56		 push	 esi
  00050	3b c8		 cmp	 ecx, eax
  00052	7d 0e		 jge	 SHORT $LN5@Sort@2
  00054	ff 75 f8	 push	 DWORD PTR __Mid$540517[ebp]
  00057	53		 push	 ebx
  00058	e8 00 00 00 00	 call	 ??$_Sort@PAHH@std@@YAXPAH0H@Z ; std::_Sort<int *,int>

; 3620 : 			_First = _Mid.second;

  0005d	8b 5d fc	 mov	 ebx, DWORD PTR __Mid$540517[ebp+4]

; 3621 : 			}
; 3622 : 		else

  00060	eb 0c		 jmp	 SHORT $LN23@Sort@2
$LN5@Sort@2:

; 3623 : 			{	// loop on first half
; 3624 : 			_Sort(_Mid.second, _Last, _Ideal);

  00062	57		 push	 edi
  00063	ff 75 fc	 push	 DWORD PTR __Mid$540517[ebp+4]
  00066	e8 00 00 00 00	 call	 ??$_Sort@PAHH@std@@YAXPAH0H@Z ; std::_Sort<int *,int>

; 3625 : 			_Last = _Mid.first;

  0006b	8b 7d f8	 mov	 edi, DWORD PTR __Mid$540517[ebp]
$LN23@Sort@2:

; 3610 : 	_Diff _Count;
; 3611 : 	for (; _ISORT_MAX < (_Count = _Last - _First) && 0 < _Ideal; )

  0006e	8b c7		 mov	 eax, edi
  00070	2b c3		 sub	 eax, ebx
  00072	c1 f8 02	 sar	 eax, 2

; 3623 : 			{	// loop on first half
; 3624 : 			_Sort(_Mid.second, _Last, _Ideal);

  00075	83 c4 0c	 add	 esp, 12			; 0000000cH
  00078	83 f8 20	 cmp	 eax, 32			; 00000020H
  0007b	7f a0		 jg	 SHORT $LL7@Sort@2
$LN6@Sort@2:
  0007d	5e		 pop	 esi

; 3626 : 			}
; 3627 : 		}
; 3628 : 
; 3629 : 	if (_ISORT_MAX < _Count)

  0007e	83 f8 20	 cmp	 eax, 32			; 00000020H
  00081	7e 13		 jle	 SHORT $LN22@Sort@2

; 3630 : 		{	// heap sort if too many divisions
; 3631 : 		_STD make_heap(_First, _Last);

  00083	57		 push	 edi
  00084	53		 push	 ebx
  00085	e8 00 00 00 00	 call	 ??$make_heap@PAH@std@@YAXPAH0@Z ; std::make_heap<int *>

; 3632 : 		_STD sort_heap(_First, _Last);

  0008a	57		 push	 edi
  0008b	53		 push	 ebx
  0008c	e8 00 00 00 00	 call	 ??$_Sort_heap@PAH@std@@YAXPAH0@Z ; std::_Sort_heap<int *>
  00091	83 c4 10	 add	 esp, 16			; 00000010H
  00094	eb 11		 jmp	 SHORT $LN16@Sort@2
$LN22@Sort@2:

; 3633 : 		}
; 3634 : 	else if (1 < _Count)

  00096	83 f8 01	 cmp	 eax, 1
  00099	7e 0c		 jle	 SHORT $LN16@Sort@2

; 3635 : 		_Insertion_sort(_First, _Last);	// small

  0009b	6a 00		 push	 0
  0009d	57		 push	 edi
  0009e	53		 push	 ebx
  0009f	e8 00 00 00 00	 call	 ??$_Insertion_sort1@PAHH@std@@YAXPAH00@Z ; std::_Insertion_sort1<int *,int>
  000a4	83 c4 0c	 add	 esp, 12			; 0000000cH
$LN16@Sort@2:
  000a7	5f		 pop	 edi
  000a8	5b		 pop	 ebx

; 3636 : 	}

  000a9	c9		 leave
  000aa	c3		 ret	 0
??$_Sort@PAHH@std@@YAXPAH0H@Z ENDP			; std::_Sort<int *,int>
_TEXT	ENDS
PUBLIC	??$sort@V?$_Vector_iterator@V?$_Vector_val@HV?$allocator@H@std@@@std@@@std@@VDistLevelSort@ExcavationSearchingWnd@@@std@@YAXV?$_Vector_iterator@V?$_Vector_val@HV?$allocator@H@std@@@std@@@0@0VDistLevelSort@ExcavationSearchingWnd@@@Z ; std::sort<std::_Vector_iterator<std::_Vector_val<int,std::allocator<int> > >,ExcavationSearchingWnd::DistLevelSort>
; Function compile flags: /Ogsp
;	COMDAT ??$sort@V?$_Vector_iterator@V?$_Vector_val@HV?$allocator@H@std@@@std@@@std@@VDistLevelSort@ExcavationSearchingWnd@@@std@@YAXV?$_Vector_iterator@V?$_Vector_val@HV?$allocator@H@std@@@std@@@0@0VDistLevelSort@ExcavationSearchingWnd@@@Z
_TEXT	SEGMENT
__First$ = 8						; size = 4
__Last$ = 12						; size = 4
__Pred$ = 16						; size = 1
??$sort@V?$_Vector_iterator@V?$_Vector_val@HV?$allocator@H@std@@@std@@@std@@VDistLevelSort@ExcavationSearchingWnd@@@std@@YAXV?$_Vector_iterator@V?$_Vector_val@HV?$allocator@H@std@@@std@@@0@0VDistLevelSort@ExcavationSearchingWnd@@@Z PROC ; std::sort<std::_Vector_iterator<std::_Vector_val<int,std::allocator<int> > >,ExcavationSearchingWnd::DistLevelSort>, COMDAT

; 3803 : 	{	// order [_First, _Last), using _Pred

  00000	55		 push	 ebp
  00001	8b ec		 mov	 ebp, esp

; 3804 : 	_DEBUG_RANGE(_First, _Last);
; 3805 : 	_DEBUG_POINTER(_Pred);
; 3806 : 	_Sort(_Unchecked(_First), _Unchecked(_Last), _Last - _First, _Pred);

  00003	8b 45 0c	 mov	 eax, DWORD PTR __Last$[ebp]
  00006	ff 75 10	 push	 DWORD PTR __Pred$[ebp]
  00009	2b 45 08	 sub	 eax, DWORD PTR __First$[ebp]
  0000c	c1 f8 02	 sar	 eax, 2
  0000f	50		 push	 eax
  00010	ff 75 0c	 push	 DWORD PTR __Last$[ebp]
  00013	ff 75 08	 push	 DWORD PTR __First$[ebp]
  00016	e8 00 00 00 00	 call	 ??$_Sort@PAHHVDistLevelSort@ExcavationSearchingWnd@@@std@@YAXPAH0HVDistLevelSort@ExcavationSearchingWnd@@@Z ; std::_Sort<int *,int,ExcavationSearchingWnd::DistLevelSort>
  0001b	83 c4 10	 add	 esp, 16			; 00000010H

; 3807 : 	}

  0001e	5d		 pop	 ebp
  0001f	c3		 ret	 0
??$sort@V?$_Vector_iterator@V?$_Vector_val@HV?$allocator@H@std@@@std@@@std@@VDistLevelSort@ExcavationSearchingWnd@@@std@@YAXV?$_Vector_iterator@V?$_Vector_val@HV?$allocator@H@std@@@std@@@0@0VDistLevelSort@ExcavationSearchingWnd@@@Z ENDP ; std::sort<std::_Vector_iterator<std::_Vector_val<int,std::allocator<int> > >,ExcavationSearchingWnd::DistLevelSort>
_TEXT	ENDS
PUBLIC	??$sort@V?$_Vector_iterator@V?$_Vector_val@HV?$allocator@H@std@@@std@@@std@@@std@@YAXV?$_Vector_iterator@V?$_Vector_val@HV?$allocator@H@std@@@std@@@0@0@Z ; std::sort<std::_Vector_iterator<std::_Vector_val<int,std::allocator<int> > > >
; Function compile flags: /Ogsp
;	COMDAT ??$sort@V?$_Vector_iterator@V?$_Vector_val@HV?$allocator@H@std@@@std@@@std@@@std@@YAXV?$_Vector_iterator@V?$_Vector_val@HV?$allocator@H@std@@@std@@@0@0@Z
_TEXT	SEGMENT
__First$ = 8						; size = 4
__Last$ = 12						; size = 4
??$sort@V?$_Vector_iterator@V?$_Vector_val@HV?$allocator@H@std@@@std@@@std@@@std@@YAXV?$_Vector_iterator@V?$_Vector_val@HV?$allocator@H@std@@@std@@@0@0@Z PROC ; std::sort<std::_Vector_iterator<std::_Vector_val<int,std::allocator<int> > > >, COMDAT

; 3640 : 	{	// order [_First, _Last), using operator<

  00000	55		 push	 ebp
  00001	8b ec		 mov	 ebp, esp

; 3641 : 	_DEBUG_RANGE(_First, _Last);
; 3642 : 	_Sort(_Unchecked(_First), _Unchecked(_Last), _Last - _First);

  00003	8b 45 0c	 mov	 eax, DWORD PTR __Last$[ebp]
  00006	2b 45 08	 sub	 eax, DWORD PTR __First$[ebp]
  00009	c1 f8 02	 sar	 eax, 2
  0000c	50		 push	 eax
  0000d	ff 75 0c	 push	 DWORD PTR __Last$[ebp]
  00010	ff 75 08	 push	 DWORD PTR __First$[ebp]
  00013	e8 00 00 00 00	 call	 ??$_Sort@PAHH@std@@YAXPAH0H@Z ; std::_Sort<int *,int>
  00018	83 c4 0c	 add	 esp, 12			; 0000000cH

; 3643 : 	}

  0001b	5d		 pop	 ebp
  0001c	c3		 ret	 0
??$sort@V?$_Vector_iterator@V?$_Vector_val@HV?$allocator@H@std@@@std@@@std@@@std@@YAXV?$_Vector_iterator@V?$_Vector_val@HV?$allocator@H@std@@@std@@@0@0@Z ENDP ; std::sort<std::_Vector_iterator<std::_Vector_val<int,std::allocator<int> > > >
_TEXT	ENDS
PUBLIC	??_C@_0N@NBMHINKG@Wave?$CFd_Sound?$AA@		; `string'
PUBLIC	_xElement$GSCopy$
PUBLIC	__$ArrayPad$
;	COMDAT ??_C@_0N@NBMHINKG@Wave?$CFd_Sound?$AA@
; File c:\program files (x86)\microsoft visual studio 10.0\vc\include\xutility
CONST	SEGMENT
??_C@_0N@NBMHINKG@Wave?$CFd_Sound?$AA@ DB 'Wave%d_Sound', 00H ; `string'
; Function compile flags: /Ogsp
; File d:\lost saga for developer\youtube\tutorial\source\src\lsclient\gui\excavationwnd.cpp
CONST	ENDS
;	COMDAT ?ParseExtraInfo@ExcavationSearchingWnd@@UAEXAAVioXMLElement@@@Z
_TEXT	SEGMENT
tv7109 = -312						; size = 4
$T550175 = -308						; size = 1
$T551114 = -308						; size = 4
_iMax$ = -308						; size = 4
tv8362 = -304						; size = 4
tv7025 = -304						; size = 4
_xElement$GSCopy$ = -300				; size = 4
tv7016 = -296						; size = 4
_iDist$535883 = -296					; size = 4
_i$535725 = -296					; size = 4
_i$535712 = -296					; size = 4
_szName$535729 = -292					; size = 260
_szName$535716 = -292					; size = 260
__k$550956 = -32					; size = 23
__k$550331 = -32					; size = 20
__k$550706 = -28					; size = 17
__k$550456 = -28					; size = 17
__k$550206 = -28					; size = 18
__k$550818 = -24					; size = 14
__k$550674 = -24					; size = 15
___encStr$535733 = -24					; size = 14
__k$551161 = -20					; size = 9
__$ArrayPad$ = -4					; size = 4
_xElement$ = 8						; size = 4
?ParseExtraInfo@ExcavationSearchingWnd@@UAEXAAVioXMLElement@@@Z PROC ; ExcavationSearchingWnd::ParseExtraInfo, COMDAT
; _this$ = ecx

; 1078 : {

  00000	55		 push	 ebp
  00001	8b ec		 mov	 ebp, esp
  00003	81 ec 38 01 00
	00		 sub	 esp, 312		; 00000138H
  00009	a1 00 00 00 00	 mov	 eax, DWORD PTR ___security_cookie
  0000e	33 c5		 xor	 eax, ebp
  00010	89 45 fc	 mov	 DWORD PTR __$ArrayPad$[ebp], eax
  00013	53		 push	 ebx
  00014	56		 push	 esi
  00015	57		 push	 edi
  00016	8b f9		 mov	 edi, ecx
  00018	8b 4d 08	 mov	 ecx, DWORD PTR _xElement$[ebp]

; 1079 : 	m_dwFullBatteryTime   = xElement.GetIntAttribute_e( "Full_Battery_Time" );

  0001b	6a 04		 push	 4

; 1103 : 	int iMax = xElement.GetIntAttribute_e( "Max_Info" );

  0001d	89 8d d4 fe ff
	ff		 mov	 DWORD PTR _xElement$GSCopy$[ebp], ecx
  00023	c7 45 e4 ab 99
	87 86		 mov	 DWORD PTR __k$550206[ebp], -2037933653 ; 868799abH
  0002a	c7 45 e8 b2 ae
	8a 9e		 mov	 DWORD PTR __k$550206[ebp+4], -1635078478 ; 9e8aaeb2H
  00031	c7 45 ec 99 89
	99 93		 mov	 DWORD PTR __k$550206[ebp+8], -1818654311 ; 93998999H
  00038	c7 45 f0 b2 b8
	82 87		 mov	 DWORD PTR __k$550206[ebp+12], -2021476174 ; 8782b8b2H
  0003f	8d 45 e4	 lea	 eax, DWORD PTR __k$550206[ebp]
  00042	33 db		 xor	 ebx, ebx
  00044	66 c7 45 f4 88
	00		 mov	 WORD PTR __k$550206[ebp+16], 136 ; 00000088H
  0004a	5a		 pop	 edx
$LL213@ParseExtra@2:

; 1079 : 	m_dwFullBatteryTime   = xElement.GetIntAttribute_e( "Full_Battery_Time" );

  0004b	81 30 ed ec eb
	ea		 xor	 DWORD PTR [eax], -353637139 ; eaebecedH
  00051	83 c0 04	 add	 eax, 4
  00054	4a		 dec	 edx
  00055	75 f4		 jne	 SHORT $LL213@ParseExtra@2
  00057	8b 35 00 00 00
	00		 mov	 esi, DWORD PTR __imp_?GetIntAttribute@ioXMLElement@@QBEHPBD@Z
  0005d	80 75 f4 ed	 xor	 BYTE PTR __k$550206[ebp+16], -19 ; ffffffedH
  00061	8d 45 e4	 lea	 eax, DWORD PTR __k$550206[ebp]
  00064	50		 push	 eax
  00065	ff d6		 call	 esi
  00067	6a 04		 push	 4
  00069	89 87 c4 01 00
	00		 mov	 DWORD PTR [edi+452], eax

; 1080 : 	m_dwMiddleBatteryTime = xElement.GetIntAttribute_e( "Middle_Battery_Time" );

  0006f	c7 45 e0 a0 85
	8f 8e		 mov	 DWORD PTR __k$550331[ebp], -1903196768 ; 8e8f85a0H
  00076	c7 45 e4 81 89
	b4 a8		 mov	 DWORD PTR __k$550331[ebp+4], -1464563327 ; a8b48981H
  0007d	c7 45 e8 8c 98
	9f 8f		 mov	 DWORD PTR __k$550331[ebp+8], -1885366132 ; 8f9f988cH
  00084	c7 45 ec 9f 95
	b4 be		 mov	 DWORD PTR __k$550331[ebp+12], -1095461473 ; beb4959fH
  0008b	8d 45 e0	 lea	 eax, DWORD PTR __k$550331[ebp]
  0008e	c7 45 f0 84 81
	8e 00		 mov	 DWORD PTR __k$550331[ebp+16], 9339268 ; 008e8184H
  00095	59		 pop	 ecx
$LL319@ParseExtra@2:
  00096	81 30 ed ec eb
	ea		 xor	 DWORD PTR [eax], -353637139 ; eaebecedH
  0009c	83 c0 04	 add	 eax, 4
  0009f	49		 dec	 ecx
  000a0	75 f4		 jne	 SHORT $LL319@ParseExtra@2
  000a2	6a 10		 push	 16			; 00000010H
  000a4	58		 pop	 eax
$LL316@ParseExtra@2:
  000a5	8b c8		 mov	 ecx, eax
  000a7	81 e1 03 00 00
	80		 and	 ecx, -2147483645	; 80000003H
  000ad	79 05		 jns	 SHORT $LN1040@ParseExtra@2
  000af	49		 dec	 ecx
  000b0	83 c9 fc	 or	 ecx, -4			; fffffffcH
  000b3	41		 inc	 ecx
$LN1040@ParseExtra@2:
  000b4	b2 ed		 mov	 dl, -19			; ffffffedH
  000b6	2a d1		 sub	 dl, cl
  000b8	30 54 05 e0	 xor	 BYTE PTR __k$550331[ebp+eax], dl
  000bc	40		 inc	 eax
  000bd	83 f8 13	 cmp	 eax, 19			; 00000013H
  000c0	7c e3		 jl	 SHORT $LL316@ParseExtra@2
  000c2	8b 8d d4 fe ff
	ff		 mov	 ecx, DWORD PTR _xElement$GSCopy$[ebp]
  000c8	8d 45 e0	 lea	 eax, DWORD PTR __k$550331[ebp]
  000cb	50		 push	 eax
  000cc	ff d6		 call	 esi
  000ce	6a 04		 push	 4
  000d0	89 87 c8 01 00
	00		 mov	 DWORD PTR [edi+456], eax

; 1081 : 	m_dwLowBatteryTime    = xElement.GetIntAttribute_e( "Low_Battery_Time" );

  000d6	c7 45 e4 a1 83
	9c b5		 mov	 DWORD PTR __k$550456[ebp], -1248033887 ; b59c83a1H
  000dd	c7 45 e8 af 8d
	9f 9e		 mov	 DWORD PTR __k$550456[ebp+4], -1633710673 ; 9e9f8dafH
  000e4	c7 45 ec 88 9e
	92 b5		 mov	 DWORD PTR __k$550456[ebp+8], -1248682360 ; b5929e88H
  000eb	c7 45 f0 b9 85
	86 8f		 mov	 DWORD PTR __k$550456[ebp+12], -1887009351 ; 8f8685b9H
  000f2	8d 45 e4	 lea	 eax, DWORD PTR __k$550456[ebp]
  000f5	88 5d f4	 mov	 BYTE PTR __k$550456[ebp+16], bl
  000f8	59		 pop	 ecx
$LL425@ParseExtra@2:
  000f9	81 30 ed ec eb
	ea		 xor	 DWORD PTR [eax], -353637139 ; eaebecedH
  000ff	83 c0 04	 add	 eax, 4
  00102	49		 dec	 ecx
  00103	75 f4		 jne	 SHORT $LL425@ParseExtra@2
  00105	8b 8d d4 fe ff
	ff		 mov	 ecx, DWORD PTR _xElement$GSCopy$[ebp]
  0010b	8d 45 e4	 lea	 eax, DWORD PTR __k$550456[ebp]
  0010e	50		 push	 eax
  0010f	ff d6		 call	 esi
  00111	6a 03		 push	 3
  00113	89 87 cc 01 00
	00		 mov	 DWORD PTR [edi+460], eax

; 1082 : 
; 1083 : 	m_dwArtifactPosCheckTime   = xElement.GetIntAttribute_e( "Pos_Check_Time" );

  00119	c7 45 e8 bd 83
	98 b5		 mov	 DWORD PTR __k$550674[ebp], -1248296003 ; b59883bdH
  00120	c7 45 ec ae 84
	8e 89		 mov	 DWORD PTR __k$550674[ebp+4], -1987148626 ; 898e84aeH
  00127	c7 45 f0 86 b3
	bf 83		 mov	 DWORD PTR __k$550674[ebp+8], -2084588666 ; 83bfb386H
  0012e	66 c7 45 f4 80
	89		 mov	 WORD PTR __k$550674[ebp+12], 35200 ; 00008980H
  00134	8d 45 e8	 lea	 eax, DWORD PTR __k$550674[ebp]
  00137	88 5d f6	 mov	 BYTE PTR __k$550674[ebp+14], bl
  0013a	59		 pop	 ecx
$LL531@ParseExtra@2:
  0013b	81 30 ed ec eb
	ea		 xor	 DWORD PTR [eax], -353637139 ; eaebecedH
  00141	83 c0 04	 add	 eax, 4
  00144	49		 dec	 ecx
  00145	75 f4		 jne	 SHORT $LL531@ParseExtra@2
  00147	6a 0c		 push	 12			; 0000000cH
  00149	58		 pop	 eax
$LL528@ParseExtra@2:
  0014a	8b c8		 mov	 ecx, eax
  0014c	81 e1 03 00 00
	80		 and	 ecx, -2147483645	; 80000003H
  00152	79 05		 jns	 SHORT $LN1041@ParseExtra@2
  00154	49		 dec	 ecx
  00155	83 c9 fc	 or	 ecx, -4			; fffffffcH
  00158	41		 inc	 ecx
$LN1041@ParseExtra@2:
  00159	b2 ed		 mov	 dl, -19			; ffffffedH
  0015b	2a d1		 sub	 dl, cl
  0015d	30 54 05 e8	 xor	 BYTE PTR __k$550674[ebp+eax], dl
  00161	40		 inc	 eax
  00162	83 f8 0e	 cmp	 eax, 14			; 0000000eH
  00165	7c e3		 jl	 SHORT $LL528@ParseExtra@2
  00167	8b 8d d4 fe ff
	ff		 mov	 ecx, DWORD PTR _xElement$GSCopy$[ebp]
  0016d	8d 45 e8	 lea	 eax, DWORD PTR __k$550674[ebp]
  00170	50		 push	 eax
  00171	ff d6		 call	 esi
  00173	6a 04		 push	 4
  00175	89 87 f0 01 00
	00		 mov	 DWORD PTR [edi+496], eax

; 1084 : 	m_dwRadarCheckTime         = xElement.GetIntAttribute_e( "Radar_Check_Time" );

  0017b	c7 45 e4 bf 8d
	8f 8b		 mov	 DWORD PTR __k$550706[ebp], -1953526337 ; 8b8f8dbfH
  00182	c7 45 e8 9f b3
	a8 82		 mov	 DWORD PTR __k$550706[ebp+4], -2102873185 ; 82a8b39fH
  00189	c7 45 ec 88 8f
	80 b5		 mov	 DWORD PTR __k$550706[ebp+8], -1249865848 ; b5808f88H
  00190	c7 45 f0 b9 85
	86 8f		 mov	 DWORD PTR __k$550706[ebp+12], -1887009351 ; 8f8685b9H
  00197	8d 45 e4	 lea	 eax, DWORD PTR __k$550706[ebp]
  0019a	88 5d f4	 mov	 BYTE PTR __k$550706[ebp+16], bl
  0019d	59		 pop	 ecx
$LL637@ParseExtra@2:
  0019e	81 30 ed ec eb
	ea		 xor	 DWORD PTR [eax], -353637139 ; eaebecedH
  001a4	83 c0 04	 add	 eax, 4
  001a7	49		 dec	 ecx
  001a8	75 f4		 jne	 SHORT $LL637@ParseExtra@2
  001aa	8b 8d d4 fe ff
	ff		 mov	 ecx, DWORD PTR _xElement$GSCopy$[ebp]
  001b0	8d 45 e4	 lea	 eax, DWORD PTR __k$550706[ebp]
  001b3	50		 push	 eax
  001b4	ff d6		 call	 esi
  001b6	6a 03		 push	 3
  001b8	89 87 f8 01 00
	00		 mov	 DWORD PTR [edi+504], eax

; 1085 : 	m_iWaveAddSize             = xElement.GetIntAttribute_e( "Wave_Add_Size" );

  001be	c7 45 e8 ba 8d
	9d 8f		 mov	 DWORD PTR __k$550818[ebp], -1885499974 ; 8f9d8dbaH
  001c5	c7 45 ec b2 ad
	8f 8e		 mov	 DWORD PTR __k$550818[ebp+4], -1903186510 ; 8e8fadb2H
  001cc	c7 45 f0 b2 bf
	82 90		 mov	 DWORD PTR __k$550818[ebp+8], -1870479438 ; 9082bfb2H
  001d3	8d 45 e8	 lea	 eax, DWORD PTR __k$550818[ebp]
  001d6	66 c7 45 f4 88
	00		 mov	 WORD PTR __k$550818[ebp+12], 136 ; 00000088H
  001dc	59		 pop	 ecx
$LL743@ParseExtra@2:
  001dd	81 30 ed ec eb
	ea		 xor	 DWORD PTR [eax], -353637139 ; eaebecedH
  001e3	83 c0 04	 add	 eax, 4
  001e6	49		 dec	 ecx
  001e7	75 f4		 jne	 SHORT $LL743@ParseExtra@2
  001e9	8b 8d d4 fe ff
	ff		 mov	 ecx, DWORD PTR _xElement$GSCopy$[ebp]
  001ef	80 75 f4 ed	 xor	 BYTE PTR __k$550818[ebp+12], -19 ; ffffffedH
  001f3	8d 45 e8	 lea	 eax, DWORD PTR __k$550818[ebp]
  001f6	50		 push	 eax
  001f7	ff d6		 call	 esi
  001f9	6a 05		 push	 5
  001fb	89 87 00 02 00
	00		 mov	 DWORD PTR [edi+512], eax

; 1086 : 	m_dwSuccessPerCheckTime    = xElement.GetIntAttribute_e( "Success_Per_Check_Time" );

  00201	c7 45 e0 be 99
	88 89		 mov	 DWORD PTR __k$550956[ebp], -1987536450 ; 898899beH
  00208	c7 45 e4 88 9f
	98 b5		 mov	 DWORD PTR __k$550956[ebp+4], -1248288888 ; b5989f88H
  0020f	c7 45 e8 bd 89
	99 b5		 mov	 DWORD PTR __k$550956[ebp+8], -1248228931 ; b59989bdH
  00216	c7 45 ec ae 84
	8e 89		 mov	 DWORD PTR __k$550956[ebp+12], -1987148626 ; 898e84aeH
  0021d	c7 45 f0 86 b3
	bf 83		 mov	 DWORD PTR __k$550956[ebp+16], -2084588666 ; 83bfb386H
  00224	66 c7 45 f4 80
	89		 mov	 WORD PTR __k$550956[ebp+20], 35200 ; 00008980H
  0022a	8d 45 e0	 lea	 eax, DWORD PTR __k$550956[ebp]
  0022d	88 5d f6	 mov	 BYTE PTR __k$550956[ebp+22], bl
  00230	59		 pop	 ecx
$LL849@ParseExtra@2:
  00231	81 30 ed ec eb
	ea		 xor	 DWORD PTR [eax], -353637139 ; eaebecedH
  00237	83 c0 04	 add	 eax, 4
  0023a	49		 dec	 ecx
  0023b	75 f4		 jne	 SHORT $LL849@ParseExtra@2
  0023d	6a 14		 push	 20			; 00000014H
  0023f	58		 pop	 eax
$LL846@ParseExtra@2:
  00240	8b c8		 mov	 ecx, eax
  00242	81 e1 03 00 00
	80		 and	 ecx, -2147483645	; 80000003H
  00248	79 05		 jns	 SHORT $LN1042@ParseExtra@2
  0024a	49		 dec	 ecx
  0024b	83 c9 fc	 or	 ecx, -4			; fffffffcH
  0024e	41		 inc	 ecx
$LN1042@ParseExtra@2:
  0024f	b2 ed		 mov	 dl, -19			; ffffffedH
  00251	2a d1		 sub	 dl, cl
  00253	30 54 05 e0	 xor	 BYTE PTR __k$550956[ebp+eax], dl
  00257	40		 inc	 eax
  00258	83 f8 16	 cmp	 eax, 22			; 00000016H
  0025b	7c e3		 jl	 SHORT $LL846@ParseExtra@2
  0025d	8b 8d d4 fe ff
	ff		 mov	 ecx, DWORD PTR _xElement$GSCopy$[ebp]
  00263	8d 45 e0	 lea	 eax, DWORD PTR __k$550956[ebp]
  00266	50		 push	 eax
  00267	ff d6		 call	 esi
  00269	89 87 84 02 00
	00		 mov	 DWORD PTR [edi+644], eax
  0026f	8d 87 10 02 00
	00		 lea	 eax, DWORD PTR [edi+528]

; 1087 : 
; 1088 : 	for (int i = 0; i < MAX_SEARCHING_TYPE ; i++)

  00275	89 9d d8 fe ff
	ff		 mov	 DWORD PTR _i$535712[ebp], ebx
  0027b	89 85 d0 fe ff
	ff		 mov	 DWORD PTR tv8362[ebp], eax
$LL107@ParseExtra@2:

; 1089 : 	{
; 1090 : 		char szName[MAX_PATH]="";

  00281	68 03 01 00 00	 push	 259			; 00000103H
  00286	8d 85 dd fe ff
	ff		 lea	 eax, DWORD PTR _szName$535716[ebp+1]
  0028c	53		 push	 ebx
  0028d	50		 push	 eax
  0028e	88 9d dc fe ff
	ff		 mov	 BYTE PTR _szName$535716[ebp], bl
  00294	e8 00 00 00 00	 call	 _memset

; 1091 : 		StringCbPrintf( szName, sizeof( szName ), "Wave%d_Sound", i+1 );

  00299	8b 85 d8 fe ff
	ff		 mov	 eax, DWORD PTR _i$535712[ebp]
  0029f	40		 inc	 eax
  002a0	50		 push	 eax
  002a1	68 00 00 00 00	 push	 OFFSET ??_C@_0N@NBMHINKG@Wave?$CFd_Sound?$AA@
  002a6	89 85 d8 fe ff
	ff		 mov	 DWORD PTR tv7016[ebp], eax
  002ac	8d 85 dc fe ff
	ff		 lea	 eax, DWORD PTR _szName$535716[ebp]
  002b2	68 04 01 00 00	 push	 260			; 00000104H
  002b7	50		 push	 eax
  002b8	e8 00 00 00 00	 call	 ?StringCbPrintfA@@YAJPADIPBDZZ ; StringCbPrintfA

; 1092 : 		m_sWaveSoundArray[i] = xElement.GetStringAttribute( szName );

  002bd	8b 8d d4 fe ff
	ff		 mov	 ecx, DWORD PTR _xElement$GSCopy$[ebp]
  002c3	83 c4 1c	 add	 esp, 28			; 0000001cH
  002c6	8d 85 dc fe ff
	ff		 lea	 eax, DWORD PTR _szName$535716[ebp]
  002cc	50		 push	 eax
  002cd	ff 15 00 00 00
	00		 call	 DWORD PTR __imp_?GetStringAttribute@ioXMLElement@@QBEPBDPBD@Z
  002d3	8b 8d d0 fe ff
	ff		 mov	 ecx, DWORD PTR tv8362[ebp]
  002d9	50		 push	 eax
  002da	ff 15 00 00 00
	00		 call	 DWORD PTR __imp_??4ioHashString@@QAEAAV0@PBD@Z
  002e0	8b 85 d8 fe ff
	ff		 mov	 eax, DWORD PTR tv7016[ebp]
  002e6	83 85 d0 fe ff
	ff 10		 add	 DWORD PTR tv8362[ebp], 16 ; 00000010H
  002ed	89 85 d8 fe ff
	ff		 mov	 DWORD PTR _i$535712[ebp], eax
  002f3	83 f8 06	 cmp	 eax, 6
  002f6	7c 89		 jl	 SHORT $LL107@ParseExtra@2

; 1093 : 	}
; 1094 : 
; 1095 : 	//
; 1096 : 	if( m_dwArtifactPosCheckTime > 10000 )

  002f8	b8 10 27 00 00	 mov	 eax, 10000		; 00002710H
  002fd	39 87 f0 01 00
	00		 cmp	 DWORD PTR [edi+496], eax
  00303	76 06		 jbe	 SHORT $LN104@ParseExtra@2

; 1097 : 		m_dwArtifactPosCheckTime = 10000;

  00305	89 87 f0 01 00
	00		 mov	 DWORD PTR [edi+496], eax
$LN104@ParseExtra@2:

; 1098 : 
; 1099 : 	if( m_iWaveAddSize <= 0 )

  0030b	39 9f 00 02 00
	00		 cmp	 DWORD PTR [edi+512], ebx
  00311	7f 0a		 jg	 SHORT $LN103@ParseExtra@2

; 1100 : 		m_iWaveAddSize = 1;

  00313	c7 87 00 02 00
	00 01 00 00 00	 mov	 DWORD PTR [edi+512], 1
$LN103@ParseExtra@2:

; 1101 : 
; 1102 : 	m_vDistLevelVector.clear();

  0031d	8d 8f e0 01 00
	00		 lea	 ecx, DWORD PTR [edi+480]
  00323	8b 41 04	 mov	 eax, DWORD PTR [ecx+4]
  00326	8b 11		 mov	 edx, DWORD PTR [ecx]
  00328	50		 push	 eax
  00329	52		 push	 edx
  0032a	8d 85 cc fe ff
	ff		 lea	 eax, DWORD PTR $T551114[ebp]
  00330	50		 push	 eax
  00331	89 8d d0 fe ff
	ff		 mov	 DWORD PTR tv7025[ebp], ecx
  00337	e8 00 00 00 00	 call	 ?erase@?$vector@HV?$allocator@H@std@@@std@@QAE?AV?$_Vector_iterator@V?$_Vector_val@HV?$allocator@H@std@@@std@@@2@V?$_Vector_const_iterator@V?$_Vector_val@HV?$allocator@H@std@@@std@@@2@0@Z ; std::vector<int,std::allocator<int> >::erase
  0033c	6a 02		 push	 2

; 1103 : 	int iMax = xElement.GetIntAttribute_e( "Max_Info" );

  0033e	c7 45 ec a0 8d
	93 b5		 mov	 DWORD PTR __k$551161[ebp], -1248621152 ; b5938da0H
  00345	c7 45 f0 a4 82
	8d 85		 mov	 DWORD PTR __k$551161[ebp+4], -2054323548 ; 858d82a4H
  0034c	8d 45 ec	 lea	 eax, DWORD PTR __k$551161[ebp]
  0034f	88 5d f4	 mov	 BYTE PTR __k$551161[ebp+8], bl
  00352	59		 pop	 ecx
$LL973@ParseExtra@2:
  00353	81 30 ed ec eb
	ea		 xor	 DWORD PTR [eax], -353637139 ; eaebecedH
  00359	83 c0 04	 add	 eax, 4
  0035c	49		 dec	 ecx
  0035d	75 f4		 jne	 SHORT $LL973@ParseExtra@2
  0035f	8b 8d d4 fe ff
	ff		 mov	 ecx, DWORD PTR _xElement$GSCopy$[ebp]
  00365	8d 45 ec	 lea	 eax, DWORD PTR __k$551161[ebp]
  00368	50		 push	 eax
  00369	ff d6		 call	 esi
  0036b	89 85 cc fe ff
	ff		 mov	 DWORD PTR _iMax$[ebp], eax

; 1104 : 	for (int i = 0; i < iMax ; i++)

  00371	89 9d d8 fe ff
	ff		 mov	 DWORD PTR _i$535725[ebp], ebx
  00377	3b c3		 cmp	 eax, ebx
  00379	0f 8e b1 00 00
	00		 jle	 $LN100@ParseExtra@2
$LL102@ParseExtra@2:

; 1105 : 	{
; 1106 : 		char szName[MAX_PATH]="";

  0037f	68 03 01 00 00	 push	 259			; 00000103H
  00384	8d 85 dd fe ff
	ff		 lea	 eax, DWORD PTR _szName$535729[ebp+1]
  0038a	53		 push	 ebx
  0038b	50		 push	 eax
  0038c	88 9d dc fe ff
	ff		 mov	 BYTE PTR _szName$535729[ebp], bl
  00392	e8 00 00 00 00	 call	 _memset
  00397	83 c4 0c	 add	 esp, 12			; 0000000cH
  0039a	6a 03		 push	 3

; 1107 : 		StringCbPrintf_e( szName, sizeof( szName ), "Dist_Level_%d", i+1 );

  0039c	c7 45 e8 a9 85
	98 9e		 mov	 DWORD PTR ___encStr$535733[ebp], -1634171479 ; 9e9885a9H
  003a3	c7 45 ec b2 a0
	8e 9c		 mov	 DWORD PTR ___encStr$535733[ebp+4], -1668374350 ; 9c8ea0b2H
  003aa	c7 45 f0 88 80
	b4 cf		 mov	 DWORD PTR ___encStr$535733[ebp+8], -810254200 ; cfb48088H
  003b1	8d 45 e8	 lea	 eax, DWORD PTR ___encStr$535733[ebp]
  003b4	66 c7 45 f4 89
	00		 mov	 WORD PTR ___encStr$535733[ebp+12], 137 ; 00000089H
  003ba	59		 pop	 ecx
$LL981@ParseExtra@2:
  003bb	81 30 ed ec eb
	ea		 xor	 DWORD PTR [eax], -353637139 ; eaebecedH
  003c1	83 c0 04	 add	 eax, 4
  003c4	49		 dec	 ecx
  003c5	75 f4		 jne	 SHORT $LL981@ParseExtra@2
  003c7	80 75 f4 ed	 xor	 BYTE PTR ___encStr$535733[ebp+12], -19 ; ffffffedH
  003cb	8b 85 d8 fe ff
	ff		 mov	 eax, DWORD PTR _i$535725[ebp]
  003d1	40		 inc	 eax
  003d2	50		 push	 eax
  003d3	89 85 c8 fe ff
	ff		 mov	 DWORD PTR tv7109[ebp], eax
  003d9	8d 45 e8	 lea	 eax, DWORD PTR ___encStr$535733[ebp]
  003dc	50		 push	 eax
  003dd	8d 85 dc fe ff
	ff		 lea	 eax, DWORD PTR _szName$535729[ebp]
  003e3	68 04 01 00 00	 push	 260			; 00000104H
  003e8	50		 push	 eax
  003e9	e8 00 00 00 00	 call	 ?StringCbPrintfA@@YAJPADIPBDZZ ; StringCbPrintfA

; 1108 : 		int iDist = xElement.GetIntAttribute( szName );

  003ee	8b 8d d4 fe ff
	ff		 mov	 ecx, DWORD PTR _xElement$GSCopy$[ebp]
  003f4	83 c4 10	 add	 esp, 16			; 00000010H
  003f7	8d 85 dc fe ff
	ff		 lea	 eax, DWORD PTR _szName$535729[ebp]
  003fd	50		 push	 eax
  003fe	ff d6		 call	 esi

; 1109 : 		m_vDistLevelVector.push_back( iDist );

  00400	8b 8d d0 fe ff
	ff		 mov	 ecx, DWORD PTR tv7025[ebp]
  00406	89 85 d8 fe ff
	ff		 mov	 DWORD PTR _iDist$535883[ebp], eax
  0040c	8d 85 d8 fe ff
	ff		 lea	 eax, DWORD PTR _iDist$535883[ebp]
  00412	50		 push	 eax
  00413	e8 00 00 00 00	 call	 ?push_back@?$vector@HV?$allocator@H@std@@@std@@QAEXABH@Z ; std::vector<int,std::allocator<int> >::push_back
  00418	8b 85 c8 fe ff
	ff		 mov	 eax, DWORD PTR tv7109[ebp]
  0041e	89 85 d8 fe ff
	ff		 mov	 DWORD PTR _i$535725[ebp], eax
  00424	3b 85 cc fe ff
	ff		 cmp	 eax, DWORD PTR _iMax$[ebp]
  0042a	0f 8c 4f ff ff
	ff		 jl	 $LL102@ParseExtra@2
$LN100@ParseExtra@2:

; 1110 : 	}
; 1111 : 
; 1112 : 	std::sort( m_vDistLevelVector.begin(), m_vDistLevelVector.end(), DistLevelSort() );

  00430	ff b5 cc fe ff
	ff		 push	 DWORD PTR $T550175[ebp]
  00436	8b bf e4 01 00
	00		 mov	 edi, DWORD PTR [edi+484]
  0043c	8b 85 d0 fe ff
	ff		 mov	 eax, DWORD PTR tv7025[ebp]
  00442	8b 00		 mov	 eax, DWORD PTR [eax]
  00444	57		 push	 edi
  00445	50		 push	 eax
  00446	e8 00 00 00 00	 call	 ??$sort@V?$_Vector_iterator@V?$_Vector_val@HV?$allocator@H@std@@@std@@@std@@VDistLevelSort@ExcavationSearchingWnd@@@std@@YAXV?$_Vector_iterator@V?$_Vector_val@HV?$allocator@H@std@@@std@@@0@0VDistLevelSort@ExcavationSearchingWnd@@@Z ; std::sort<std::_Vector_iterator<std::_Vector_val<int,std::allocator<int> > >,ExcavationSearchingWnd::DistLevelSort>

; 1113 : }

  0044b	8b 4d fc	 mov	 ecx, DWORD PTR __$ArrayPad$[ebp]
  0044e	83 c4 0c	 add	 esp, 12			; 0000000cH
  00451	5f		 pop	 edi
  00452	5e		 pop	 esi
  00453	33 cd		 xor	 ecx, ebp
  00455	5b		 pop	 ebx
  00456	e8 00 00 00 00	 call	 @__security_check_cookie@4
  0045b	c9		 leave
  0045c	c2 04 00	 ret	 4
?ParseExtraInfo@ExcavationSearchingWnd@@UAEXAAVioXMLElement@@@Z ENDP ; ExcavationSearchingWnd::ParseExtraInfo
_TEXT	ENDS
PUBLIC	?ProcessArtifactsPos@ExcavationSearchingWnd@@IAEXXZ ; ExcavationSearchingWnd::ProcessArtifactsPos
EXTRN	?GetArtifactPos@ioExcavationManager@@QAEXHAAH00@Z:PROC ; ioExcavationManager::GetArtifactPos
EXTRN	?GetArtifactSize@ioExcavationManager@@QAEHXZ:PROC ; ioExcavationManager::GetArtifactSize
;	COMDAT xdata$x
; File c:\program files (x86)\microsoft visual studio 10.0\vc\include\vector
xdata$x	SEGMENT
__unwindtable$?ProcessArtifactsPos@ExcavationSearchingWnd@@IAEXXZ DD 0ffffffffH
	DD	FLAT:__unwindfunclet$?ProcessArtifactsPos@ExcavationSearchingWnd@@IAEXXZ$0
__ehfuncinfo$?ProcessArtifactsPos@ExcavationSearchingWnd@@IAEXXZ DD 019930522H
	DD	01H
	DD	FLAT:__unwindtable$?ProcessArtifactsPos@ExcavationSearchingWnd@@IAEXXZ
	DD	2 DUP(00H)
	DD	2 DUP(00H)
	DD	00H
	DD	01H
; Function compile flags: /Ogsp
; File d:\lost saga for developer\youtube\tutorial\source\src\lsclient\gui\excavationwnd.cpp
xdata$x	ENDS
;	COMDAT ?ProcessArtifactsPos@ExcavationSearchingWnd@@IAEXXZ
_TEXT	SEGMENT
_vIntVector$ = -72					; size = 16
_vArtifact$535991 = -56					; size = 12
tv621 = -44						; size = 8
tv614 = -36						; size = 4
_iSmallestDist$ = -36					; size = 4
_iSize$ = -36						; size = 4
$T551368 = -32						; size = 4
_iY$535993 = -28					; size = 4
_iZ$535994 = -24					; size = 4
_iX$535992 = -20					; size = 4
_i$535987 = -16						; size = 4
__$EHRec$ = -12						; size = 12
?ProcessArtifactsPos@ExcavationSearchingWnd@@IAEXXZ PROC ; ExcavationSearchingWnd::ProcessArtifactsPos, COMDAT
; _this$ = ecx

; 1264 : {

  00000	6a 3c		 push	 60			; 0000003cH
  00002	b8 00 00 00 00	 mov	 eax, __ehhandler$?ProcessArtifactsPos@ExcavationSearchingWnd@@IAEXXZ
  00007	e8 00 00 00 00	 call	 __EH_prolog3
  0000c	8b f1		 mov	 esi, ecx

; 1265 : 	if( REALGETTIME() - m_dwCurArtifactPosCheckTime < m_dwArtifactPosCheckTime )

  0000e	8b 3d 00 00 00
	00		 mov	 edi, DWORD PTR __imp_?GetSingleton@ioFrameTimer@@SAAAV1@XZ
  00014	ff d7		 call	 edi
  00016	8b 1d 00 00 00
	00		 mov	 ebx, DWORD PTR __imp_?GetTotalSec@ioFrameTimer@@QAEKXZ
  0001c	8b c8		 mov	 ecx, eax
  0001e	ff d3		 call	 ebx
  00020	2b 86 f4 01 00
	00		 sub	 eax, DWORD PTR [esi+500]
  00026	3b 86 f0 01 00
	00		 cmp	 eax, DWORD PTR [esi+496]
  0002c	0f 82 ca 01 00
	00		 jb	 $LN69@ProcessArt

; 1266 : 		return;
; 1267 : 	m_dwCurArtifactPosCheckTime = REALGETTIME();

  00032	ff d7		 call	 edi
  00034	8b c8		 mov	 ecx, eax
  00036	ff d3		 call	 ebx

; 1268 : 
; 1269 : 	if( !m_pPlayStage )

  00038	8b 8e 90 01 00
	00		 mov	 ecx, DWORD PTR [esi+400]
  0003e	33 db		 xor	 ebx, ebx
  00040	89 86 f4 01 00
	00		 mov	 DWORD PTR [esi+500], eax
  00046	3b cb		 cmp	 ecx, ebx
  00048	0f 84 ae 01 00
	00		 je	 $LN69@ProcessArt

; 1270 : 		return;
; 1271 : 
; 1272 : 	if( !m_bProcessRadarPos )

  0004e	38 9e 8c 02 00
	00		 cmp	 BYTE PTR [esi+652], bl
  00054	0f 84 a2 01 00
	00		 je	 $LN69@ProcessArt

; 1273 : 		return;
; 1274 : 
; 1275 : 	ioBaseChar *pOwner = m_pPlayStage->GetOwnerChar();

  0005a	e8 00 00 00 00	 call	 ?GetOwnerChar@ioPlayStage@@QAEPAVioBaseChar@@XZ ; ioPlayStage::GetOwnerChar
  0005f	8b f8		 mov	 edi, eax

; 1276 :     if( !pOwner )

  00061	3b fb		 cmp	 edi, ebx
  00063	0f 84 93 01 00
	00		 je	 $LN69@ProcessArt

; 1277 : 		return;
; 1278 : 
; 1279 : 	IntVec vIntVector;

  00069	89 5d b8	 mov	 DWORD PTR _vIntVector$[ebp], ebx
  0006c	89 5d bc	 mov	 DWORD PTR _vIntVector$[ebp+4], ebx
  0006f	89 5d c0	 mov	 DWORD PTR _vIntVector$[ebp+8], ebx

; 1280 : 	vIntVector.reserve(10);

  00072	6a 0a		 push	 10			; 0000000aH
  00074	8d 4d b8	 lea	 ecx, DWORD PTR _vIntVector$[ebp]
  00077	89 5d fc	 mov	 DWORD PTR __$EHRec$[ebp+8], ebx
  0007a	e8 00 00 00 00	 call	 ?reserve@?$vector@HV?$allocator@H@std@@@std@@QAEXI@Z ; std::vector<int,std::allocator<int> >::reserve

; 1281 : 	int iSize = g_ExcavationMgr.GetArtifactSize();

  0007f	e8 00 00 00 00	 call	 ?GetSingleton@ioExcavationManager@@SAAAV1@XZ ; ioExcavationManager::GetSingleton
  00084	8b c8		 mov	 ecx, eax
  00086	e8 00 00 00 00	 call	 ?GetArtifactSize@ioExcavationManager@@QAEHXZ ; ioExcavationManager::GetArtifactSize
  0008b	89 45 dc	 mov	 DWORD PTR _iSize$[ebp], eax

; 1282 : 	for (int i = 0; i < iSize ; i++)

  0008e	89 5d f0	 mov	 DWORD PTR _i$535987[ebp], ebx
  00091	3b c3		 cmp	 eax, ebx
  00093	0f 8e cb 00 00
	00		 jle	 $LN7@ProcessArt
  00099	0f 57 c0	 xorps	 xmm0, xmm0
  0009c	f2 0f 59 c0	 mulsd	 xmm0, xmm0
  000a0	f2 0f 11 45 d4	 movsd	 QWORD PTR tv621[ebp], xmm0
$LN9@ProcessArt:

; 1283 : 	{
; 1284 : 		D3DXVECTOR3 vArtifact;
; 1285 : 		int iX = 0;
; 1286 : 		int iY = 0;
; 1287 : 		int iZ = 0;
; 1288 : 		g_ExcavationMgr.GetArtifactPos( i, iX, iY, iZ );

  000a5	8d 45 e8	 lea	 eax, DWORD PTR _iZ$535994[ebp]
  000a8	50		 push	 eax
  000a9	8d 45 e4	 lea	 eax, DWORD PTR _iY$535993[ebp]
  000ac	50		 push	 eax
  000ad	8d 45 ec	 lea	 eax, DWORD PTR _iX$535992[ebp]
  000b0	50		 push	 eax
  000b1	ff 75 f0	 push	 DWORD PTR _i$535987[ebp]
  000b4	89 5d ec	 mov	 DWORD PTR _iX$535992[ebp], ebx
  000b7	89 5d e4	 mov	 DWORD PTR _iY$535993[ebp], ebx
  000ba	89 5d e8	 mov	 DWORD PTR _iZ$535994[ebp], ebx
  000bd	e8 00 00 00 00	 call	 ?GetSingleton@ioExcavationManager@@SAAAV1@XZ ; ioExcavationManager::GetSingleton
  000c2	8b c8		 mov	 ecx, eax
  000c4	e8 00 00 00 00	 call	 ?GetArtifactPos@ioExcavationManager@@QAEXHAAH00@Z ; ioExcavationManager::GetArtifactPos

; 1289 : 		vArtifact.x = (float)iX;

  000c9	66 0f 6e 45 ec	 movd	 xmm0, DWORD PTR _iX$535992[ebp]

; 1290 : 		vArtifact.y = (float)iY;
; 1291 : 		vArtifact.z = (float)iZ;
; 1292 : 
; 1293 : 		//   
; 1294 : 		D3DXVECTOR3 vDiff1 = vArtifact - pOwner->GetWorldPosition();

  000ce	8b 07		 mov	 eax, DWORD PTR [edi]
  000d0	0f 5b c0	 cvtdq2ps xmm0, xmm0
  000d3	f3 0f 11 45 c8	 movss	 DWORD PTR _vArtifact$535991[ebp], xmm0
  000d8	66 0f 6e 45 e8	 movd	 xmm0, DWORD PTR _iZ$535994[ebp]
  000dd	0f 5b c0	 cvtdq2ps xmm0, xmm0
  000e0	8b cf		 mov	 ecx, edi
  000e2	f3 0f 11 45 d0	 movss	 DWORD PTR _vArtifact$535991[ebp+8], xmm0
  000e7	ff 50 70	 call	 DWORD PTR [eax+112]
  000ea	f3 0f 10 08	 movss	 xmm1, DWORD PTR [eax]
  000ee	f3 0f 10 45 c8	 movss	 xmm0, DWORD PTR _vArtifact$535991[ebp]
  000f3	f3 0f 10 50 08	 movss	 xmm2, DWORD PTR [eax+8]
  000f8	0f 5a c0	 cvtps2pd xmm0, xmm0
  000fb	0f 5a c9	 cvtps2pd xmm1, xmm1
  000fe	f2 0f 5c c1	 subsd	 xmm0, xmm1
  00102	f3 0f 10 4d d0	 movss	 xmm1, DWORD PTR _vArtifact$535991[ebp+8]
  00107	f2 0f 5a c0	 cvtsd2ss xmm0, xmm0

; 1295 : 		vDiff1.y = 0.0f;
; 1296 : 
; 1297 : 		float fDist = D3DXVec3Length( &vDiff1 );

  0010b	f3 0f 5a c0	 cvtss2sd xmm0, xmm0
  0010f	0f 5a c9	 cvtps2pd xmm1, xmm1
  00112	f2 0f 59 c0	 mulsd	 xmm0, xmm0
  00116	f2 0f 58 45 d4	 addsd	 xmm0, QWORD PTR tv621[ebp]
  0011b	0f 5a d2	 cvtps2pd xmm2, xmm2
  0011e	f2 0f 5c ca	 subsd	 xmm1, xmm2
  00122	f2 0f 5a c9	 cvtsd2ss xmm1, xmm1
  00126	f3 0f 5a c9	 cvtss2sd xmm1, xmm1
  0012a	f2 0f 59 c9	 mulsd	 xmm1, xmm1
  0012e	f2 0f 58 c1	 addsd	 xmm0, xmm1
  00132	f2 0f 5a c0	 cvtsd2ss xmm0, xmm0
  00136	f3 0f 5a c0	 cvtss2sd xmm0, xmm0
  0013a	f2 0f 51 c0	 sqrtsd	 xmm0, xmm0
  0013e	f2 0f 5a c0	 cvtsd2ss xmm0, xmm0

; 1298 : 		vIntVector.push_back( (int) fDist );

  00142	f3 0f 2c c0	 cvttss2si eax, xmm0
  00146	89 45 e0	 mov	 DWORD PTR $T551368[ebp], eax
  00149	8d 45 e0	 lea	 eax, DWORD PTR $T551368[ebp]
  0014c	50		 push	 eax
  0014d	8d 4d b8	 lea	 ecx, DWORD PTR _vIntVector$[ebp]
  00150	e8 00 00 00 00	 call	 ?push_back@?$vector@HV?$allocator@H@std@@@std@@QAEX$$QAH@Z ; std::vector<int,std::allocator<int> >::push_back
  00155	ff 45 f0	 inc	 DWORD PTR _i$535987[ebp]
  00158	8b 45 f0	 mov	 eax, DWORD PTR _i$535987[ebp]
  0015b	3b 45 dc	 cmp	 eax, DWORD PTR _iSize$[ebp]
  0015e	0f 8c 41 ff ff
	ff		 jl	 $LN9@ProcessArt
$LN7@ProcessArt:

; 1299 : 	}
; 1300 : 	
; 1301 : 	//   
; 1302 : 	std::sort( vIntVector.begin(), vIntVector.end() );

  00164	ff 75 bc	 push	 DWORD PTR _vIntVector$[ebp+4]
  00167	ff 75 b8	 push	 DWORD PTR _vIntVector$[ebp]
  0016a	e8 00 00 00 00	 call	 ??$sort@V?$_Vector_iterator@V?$_Vector_val@HV?$allocator@H@std@@@std@@@std@@@std@@YAXV?$_Vector_iterator@V?$_Vector_val@HV?$allocator@H@std@@@std@@@0@0@Z ; std::sort<std::_Vector_iterator<std::_Vector_val<int,std::allocator<int> > > >

; 1303 : 
; 1304 : 	if( vIntVector.empty() )

  0016f	8b 45 b8	 mov	 eax, DWORD PTR _vIntVector$[ebp]
  00172	59		 pop	 ecx
  00173	59		 pop	 ecx
  00174	3b 45 bc	 cmp	 eax, DWORD PTR _vIntVector$[ebp+4]
  00177	75 0f		 jne	 SHORT $LN6@ProcessArt

; 1305 : 	{
; 1306 : 		m_iRangeTypeArray = 0;
; 1307 : 		m_iArtifactDist   = -1;

  00179	83 8e 04 02 00
	00 ff		 or	 DWORD PTR [esi+516], -1
  00180	89 9e d0 01 00
	00		 mov	 DWORD PTR [esi+464], ebx

; 1308 : 		return;

  00186	eb 68		 jmp	 SHORT $LN2@ProcessArt
$LN6@ProcessArt:

; 1309 : 	}
; 1310 : 
; 1311 : 	int iSmallestDist = vIntVector[0];

  00188	8b 38		 mov	 edi, DWORD PTR [eax]
  0018a	89 7d dc	 mov	 DWORD PTR _iSmallestDist$[ebp], edi

; 1312 : 
; 1313 : 	enum { MAX_DIST = 9999, };
; 1314 : 	m_iArtifactDist = iSmallestDist/FLOAT100;

  0018d	b8 64 00 00 00	 mov	 eax, 100		; 00000064H
  00192	db 45 dc	 fild	 DWORD PTR _iSmallestDist$[ebp]
  00195	89 45 dc	 mov	 DWORD PTR tv614[ebp], eax
  00198	db 45 dc	 fild	 DWORD PTR tv614[ebp]
  0019b	85 c0		 test	 eax, eax
  0019d	79 06		 jns	 SHORT $LN80@ProcessArt
  0019f	d8 05 00 00 00
	00		 fadd	 DWORD PTR __real@4f800000
$LN80@ProcessArt:
  001a5	de f9		 fdivp	 ST(1), ST(0)
  001a7	e8 00 00 00 00	 call	 __ftol2_sse

; 1315 : 	if( m_iArtifactDist > MAX_DIST )

  001ac	ba 0f 27 00 00	 mov	 edx, 9999		; 0000270fH
  001b1	89 86 04 02 00
	00		 mov	 DWORD PTR [esi+516], eax
  001b7	3b c2		 cmp	 eax, edx
  001b9	7e 06		 jle	 SHORT $LN5@ProcessArt

; 1316 : 		m_iArtifactDist = MAX_DIST;

  001bb	89 96 04 02 00
	00		 mov	 DWORD PTR [esi+516], edx
$LN5@ProcessArt:

; 1317 : 
; 1318 : 	iSize = m_vDistLevelVector.size();

  001c1	8b 86 e4 01 00
	00		 mov	 eax, DWORD PTR [esi+484]
  001c7	2b 86 e0 01 00
	00		 sub	 eax, DWORD PTR [esi+480]

; 1319 : 	for (int i = 0; i < iSize ; i++)

  001cd	33 d2		 xor	 edx, edx
  001cf	c1 f8 02	 sar	 eax, 2
  001d2	3b c3		 cmp	 eax, ebx
  001d4	7e 1a		 jle	 SHORT $LN2@ProcessArt

; 1317 : 
; 1318 : 	iSize = m_vDistLevelVector.size();

  001d6	8b 8e e0 01 00
	00		 mov	 ecx, DWORD PTR [esi+480]
$LL4@ProcessArt:

; 1320 : 	{
; 1321 : 		if( iSmallestDist > m_vDistLevelVector[i] )

  001dc	3b 39		 cmp	 edi, DWORD PTR [ecx]
  001de	7f 0a		 jg	 SHORT $LN75@ProcessArt

; 1319 : 	for (int i = 0; i < iSize ; i++)

  001e0	42		 inc	 edx
  001e1	83 c1 04	 add	 ecx, 4
  001e4	3b d0		 cmp	 edx, eax
  001e6	7c f4		 jl	 SHORT $LL4@ProcessArt

; 1320 : 	{
; 1321 : 		if( iSmallestDist > m_vDistLevelVector[i] )

  001e8	eb 06		 jmp	 SHORT $LN2@ProcessArt
$LN75@ProcessArt:

; 1322 : 		{
; 1323 : 			m_iRangeTypeArray = i;

  001ea	89 96 d0 01 00
	00		 mov	 DWORD PTR [esi+464], edx
$LN2@ProcessArt:

; 1324 : 			return;
; 1325 : 		}
; 1326 : 	}
; 1327 : }

  001f0	83 4d fc ff	 or	 DWORD PTR __$EHRec$[ebp+8], -1
  001f4	8d 4d b8	 lea	 ecx, DWORD PTR _vIntVector$[ebp]
  001f7	e8 00 00 00 00	 call	 ?_Tidy@?$vector@HV?$allocator@H@std@@@std@@IAEXXZ ; std::vector<int,std::allocator<int> >::_Tidy
$LN69@ProcessArt:
  001fc	e8 00 00 00 00	 call	 __EH_epilog3
  00201	c3		 ret	 0
_TEXT	ENDS
;	COMDAT text$x
text$x	SEGMENT
__unwindfunclet$?ProcessArtifactsPos@ExcavationSearchingWnd@@IAEXXZ$0:
  00000	8d 4d b8	 lea	 ecx, DWORD PTR _vIntVector$[ebp]
  00003	e9 00 00 00 00	 jmp	 ??1?$vector@HV?$allocator@H@std@@@std@@QAE@XZ ; std::vector<int,std::allocator<int> >::~vector<int,std::allocator<int> >
__ehhandler$?ProcessArtifactsPos@ExcavationSearchingWnd@@IAEXXZ:
  00008	8b 54 24 08	 mov	 edx, DWORD PTR [esp+8]
  0000c	8d 42 0c	 lea	 eax, DWORD PTR [edx+12]
  0000f	8b 4a b4	 mov	 ecx, DWORD PTR [edx-76]
  00012	33 c8		 xor	 ecx, eax
  00014	e8 00 00 00 00	 call	 @__security_check_cookie@4
  00019	b8 00 00 00 00	 mov	 eax, OFFSET __ehfuncinfo$?ProcessArtifactsPos@ExcavationSearchingWnd@@IAEXXZ
  0001e	e9 00 00 00 00	 jmp	 ___CxxFrameHandler3
text$x	ENDS
?ProcessArtifactsPos@ExcavationSearchingWnd@@IAEXXZ ENDP ; ExcavationSearchingWnd::ProcessArtifactsPos
; Function compile flags: /Ogsp
;	COMDAT ?OnProcess@ExcavationSearchingWnd@@MAEXM@Z
_TEXT	SEGMENT
_fTimePerSec$ = 8					; size = 4
?OnProcess@ExcavationSearchingWnd@@MAEXM@Z PROC		; ExcavationSearchingWnd::OnProcess, COMDAT
; _this$ = ecx

; 1252 : {

  00000	55		 push	 ebp
  00001	8b ec		 mov	 ebp, esp
  00003	56		 push	 esi
  00004	8b f1		 mov	 esi, ecx

; 1253 : 	if( !IsShow() )

  00006	ff 15 00 00 00
	00		 call	 DWORD PTR __imp_?IsShow@ioWnd@@QBE_NXZ
  0000c	84 c0		 test	 al, al
  0000e	74 36		 je	 SHORT $LN2@OnProcess@3

; 1254 : 		return ;
; 1255 : 	ioMovingWnd::OnProcess( fTimePerSec );

  00010	f3 0f 10 45 08	 movss	 xmm0, DWORD PTR _fTimePerSec$[ebp]
  00015	51		 push	 ecx
  00016	8b ce		 mov	 ecx, esi
  00018	f3 0f 11 04 24	 movss	 DWORD PTR [esp], xmm0
  0001d	ff 15 00 00 00
	00		 call	 DWORD PTR __imp_?OnProcess@ioWnd@@MAEXM@Z

; 1256 : 	ProcessArtifactsPos();

  00023	8b ce		 mov	 ecx, esi
  00025	e8 00 00 00 00	 call	 ?ProcessArtifactsPos@ExcavationSearchingWnd@@IAEXXZ ; ExcavationSearchingWnd::ProcessArtifactsPos

; 1257 : 	ProcessRadar();

  0002a	8b ce		 mov	 ecx, esi
  0002c	e8 00 00 00 00	 call	 ?ProcessRadar@ExcavationSearchingWnd@@IAEXXZ ; ExcavationSearchingWnd::ProcessRadar

; 1258 : 	UpdateDefaultPos();

  00031	8b ce		 mov	 ecx, esi
  00033	e8 00 00 00 00	 call	 ?UpdateDefaultPos@ExcavationSearchingWnd@@IAEXXZ ; ExcavationSearchingWnd::UpdateDefaultPos

; 1259 : 	ProcessSuccessPercent();

  00038	8b ce		 mov	 ecx, esi
  0003a	e8 00 00 00 00	 call	 ?ProcessSuccessPercent@ExcavationSearchingWnd@@IAEXXZ ; ExcavationSearchingWnd::ProcessSuccessPercent

; 1260 : 	ProcessToolTip();

  0003f	8b ce		 mov	 ecx, esi
  00041	e8 00 00 00 00	 call	 ?ProcessToolTip@ExcavationSearchingWnd@@IAEXXZ ; ExcavationSearchingWnd::ProcessToolTip
$LN2@OnProcess@3:
  00046	5e		 pop	 esi

; 1261 : }

  00047	5d		 pop	 ebp
  00048	c2 04 00	 ret	 4
?OnProcess@ExcavationSearchingWnd@@MAEXM@Z ENDP		; ExcavationSearchingWnd::OnProcess
_TEXT	ENDS
END
