; Listing generated by Microsoft (R) Optimizing Compiler Version 16.00.30319.01 

	TITLE	D:\Lost Saga For Developer\Youtube\Tutorial\Source\src\LSClient\GUI\ExPCRoomWnd.cpp
	.686P
	.XMM
	include listing.inc
	.model	flat

INCLUDELIB MSVCRT
INCLUDELIB OLDNAMES

PUBLIC	?_EEM_DS@?$deque@UD3DXVECTOR3@@V?$allocator@UD3DXVECTOR3@@@std@@@std@@2HB ; std::deque<D3DXVECTOR3,std::allocator<D3DXVECTOR3> >::_EEM_DS
;	COMDAT ?_EEM_DS@?$deque@UD3DXVECTOR3@@V?$allocator@UD3DXVECTOR3@@@std@@@std@@2HB
CONST	SEGMENT
?_EEM_DS@?$deque@UD3DXVECTOR3@@V?$allocator@UD3DXVECTOR3@@@std@@@std@@2HB DD 01H ; std::deque<D3DXVECTOR3,std::allocator<D3DXVECTOR3> >::_EEM_DS
CONST	ENDS
PUBLIC	?return1@@YAIXZ					; return1
; Function compile flags: /Ogsp
; File d:\lost saga for developer\youtube\tutorial\source\src\lsclient\stdafx.h
;	COMDAT ?return1@@YAIXZ
_TEXT	SEGMENT
?return1@@YAIXZ PROC					; return1, COMDAT

; 17   : 	__forceinline unsigned int return1() { __asm mov eax, 1 };

  00000	b8 01 00 00 00	 mov	 eax, 1
  00005	c3		 ret	 0
?return1@@YAIXZ ENDP					; return1
_TEXT	ENDS
PUBLIC	?return10@@YAIXZ				; return10
; Function compile flags: /Ogsp
;	COMDAT ?return10@@YAIXZ
_TEXT	SEGMENT
?return10@@YAIXZ PROC					; return10, COMDAT

; 21   : 	__forceinline unsigned int return10() { __asm mov eax, 10 };

  00000	b8 0a 00 00 00	 mov	 eax, 10			; 0000000aH
  00005	c3		 ret	 0
?return10@@YAIXZ ENDP					; return10
_TEXT	ENDS
PUBLIC	?return90@@YAIXZ				; return90
; Function compile flags: /Ogsp
;	COMDAT ?return90@@YAIXZ
_TEXT	SEGMENT
?return90@@YAIXZ PROC					; return90, COMDAT

; 24   : 	__forceinline unsigned int return90() { __asm mov eax, 90 };

  00000	b8 5a 00 00 00	 mov	 eax, 90			; 0000005aH
  00005	c3		 ret	 0
?return90@@YAIXZ ENDP					; return90
_TEXT	ENDS
PUBLIC	?return500@@YAIXZ				; return500
; Function compile flags: /Ogsp
;	COMDAT ?return500@@YAIXZ
_TEXT	SEGMENT
?return500@@YAIXZ PROC					; return500, COMDAT

; 28   : 	__forceinline unsigned int return500() { __asm mov eax, 500 };

  00000	b8 f4 01 00 00	 mov	 eax, 500		; 000001f4H
  00005	c3		 ret	 0
?return500@@YAIXZ ENDP					; return500
_TEXT	ENDS
PUBLIC	??_7bad_alloc@std@@6B@				; std::bad_alloc::`vftable'
PUBLIC	??0bad_alloc@std@@QAE@PBD@Z			; std::bad_alloc::bad_alloc
PUBLIC	??_R4bad_alloc@std@@6B@				; std::bad_alloc::`RTTI Complete Object Locator'
PUBLIC	??_R0?AVbad_alloc@std@@@8			; std::bad_alloc `RTTI Type Descriptor'
PUBLIC	??_R3bad_alloc@std@@8				; std::bad_alloc::`RTTI Class Hierarchy Descriptor'
PUBLIC	??_R2bad_alloc@std@@8				; std::bad_alloc::`RTTI Base Class Array'
PUBLIC	??_R1A@?0A@EA@bad_alloc@std@@8			; std::bad_alloc::`RTTI Base Class Descriptor at (0,-1,0,64)'
PUBLIC	??_R1A@?0A@EA@exception@std@@8			; std::exception::`RTTI Base Class Descriptor at (0,-1,0,64)'
PUBLIC	??_R0?AVexception@std@@@8			; std::exception `RTTI Type Descriptor'
PUBLIC	??_R3exception@std@@8				; std::exception::`RTTI Class Hierarchy Descriptor'
PUBLIC	??_R2exception@std@@8				; std::exception::`RTTI Base Class Array'
EXTRN	__imp_??0exception@std@@QAE@ABQBD@Z:PROC
EXTRN	??_7type_info@@6B@:QWORD			; type_info::`vftable'
EXTRN	??_Ebad_alloc@std@@UAEPAXI@Z:PROC		; std::bad_alloc::`vector deleting destructor'
EXTRN	?what@exception@std@@UBEPBDXZ:PROC		; std::exception::what
;	COMDAT ??_R2exception@std@@8
; File c:\program files (x86)\microsoft visual studio 10.0\vc\include\exception
rdata$r	SEGMENT
??_R2exception@std@@8 DD FLAT:??_R1A@?0A@EA@exception@std@@8 ; std::exception::`RTTI Base Class Array'
rdata$r	ENDS
;	COMDAT ??_R3exception@std@@8
rdata$r	SEGMENT
??_R3exception@std@@8 DD 00H				; std::exception::`RTTI Class Hierarchy Descriptor'
	DD	00H
	DD	01H
	DD	FLAT:??_R2exception@std@@8
rdata$r	ENDS
;	COMDAT ??_R0?AVexception@std@@@8
_DATA	SEGMENT
??_R0?AVexception@std@@@8 DD FLAT:??_7type_info@@6B@	; std::exception `RTTI Type Descriptor'
	DD	00H
	DB	'.?AVexception@std@@', 00H
_DATA	ENDS
;	COMDAT ??_R1A@?0A@EA@exception@std@@8
rdata$r	SEGMENT
??_R1A@?0A@EA@exception@std@@8 DD FLAT:??_R0?AVexception@std@@@8 ; std::exception::`RTTI Base Class Descriptor at (0,-1,0,64)'
	DD	00H
	DD	00H
	DD	0ffffffffH
	DD	00H
	DD	040H
	DD	FLAT:??_R3exception@std@@8
rdata$r	ENDS
;	COMDAT ??_R1A@?0A@EA@bad_alloc@std@@8
rdata$r	SEGMENT
??_R1A@?0A@EA@bad_alloc@std@@8 DD FLAT:??_R0?AVbad_alloc@std@@@8 ; std::bad_alloc::`RTTI Base Class Descriptor at (0,-1,0,64)'
	DD	01H
	DD	00H
	DD	0ffffffffH
	DD	00H
	DD	040H
	DD	FLAT:??_R3bad_alloc@std@@8
rdata$r	ENDS
;	COMDAT ??_R2bad_alloc@std@@8
rdata$r	SEGMENT
??_R2bad_alloc@std@@8 DD FLAT:??_R1A@?0A@EA@bad_alloc@std@@8 ; std::bad_alloc::`RTTI Base Class Array'
	DD	FLAT:??_R1A@?0A@EA@exception@std@@8
rdata$r	ENDS
;	COMDAT ??_R3bad_alloc@std@@8
rdata$r	SEGMENT
??_R3bad_alloc@std@@8 DD 00H				; std::bad_alloc::`RTTI Class Hierarchy Descriptor'
	DD	00H
	DD	02H
	DD	FLAT:??_R2bad_alloc@std@@8
rdata$r	ENDS
;	COMDAT ??_R0?AVbad_alloc@std@@@8
_DATA	SEGMENT
??_R0?AVbad_alloc@std@@@8 DD FLAT:??_7type_info@@6B@	; std::bad_alloc `RTTI Type Descriptor'
	DD	00H
	DB	'.?AVbad_alloc@std@@', 00H
_DATA	ENDS
;	COMDAT ??_R4bad_alloc@std@@6B@
rdata$r	SEGMENT
??_R4bad_alloc@std@@6B@ DD 00H				; std::bad_alloc::`RTTI Complete Object Locator'
	DD	00H
	DD	00H
	DD	FLAT:??_R0?AVbad_alloc@std@@@8
	DD	FLAT:??_R3bad_alloc@std@@8
rdata$r	ENDS
;	COMDAT ??_7bad_alloc@std@@6B@
CONST	SEGMENT
??_7bad_alloc@std@@6B@ DD FLAT:??_R4bad_alloc@std@@6B@	; std::bad_alloc::`vftable'
	DD	FLAT:??_Ebad_alloc@std@@UAEPAXI@Z
	DD	FLAT:?what@exception@std@@UBEPBDXZ
; Function compile flags: /Ogsp
CONST	ENDS
;	COMDAT ??0bad_alloc@std@@QAE@PBD@Z
_TEXT	SEGMENT
__Message$ = 8						; size = 4
??0bad_alloc@std@@QAE@PBD@Z PROC			; std::bad_alloc::bad_alloc, COMDAT
; _this$ = ecx

; 345  : 		{	// construct from message string

  00000	55		 push	 ebp
  00001	8b ec		 mov	 ebp, esp
  00003	56		 push	 esi
  00004	8d 45 08	 lea	 eax, DWORD PTR __Message$[ebp]
  00007	50		 push	 eax
  00008	8b f1		 mov	 esi, ecx
  0000a	ff 15 00 00 00
	00		 call	 DWORD PTR __imp_??0exception@std@@QAE@ABQBD@Z
  00010	c7 06 00 00 00
	00		 mov	 DWORD PTR [esi], OFFSET ??_7bad_alloc@std@@6B@

; 346  : 		}

  00016	8b c6		 mov	 eax, esi
  00018	5e		 pop	 esi
  00019	5d		 pop	 ebp
  0001a	c2 04 00	 ret	 4
??0bad_alloc@std@@QAE@PBD@Z ENDP			; std::bad_alloc::bad_alloc
_TEXT	ENDS
PUBLIC	??1bad_alloc@std@@UAE@XZ			; std::bad_alloc::~bad_alloc
EXTRN	__imp_??1exception@std@@UAE@XZ:PROC
; Function compile flags: /Ogsp
;	COMDAT ??1bad_alloc@std@@UAE@XZ
_TEXT	SEGMENT
??1bad_alloc@std@@UAE@XZ PROC				; std::bad_alloc::~bad_alloc, COMDAT
; _this$ = ecx

; 354  : 		{	// destroy the object

  00000	c7 01 00 00 00
	00		 mov	 DWORD PTR [ecx], OFFSET ??_7bad_alloc@std@@6B@

; 355  : 		}

  00006	ff 25 00 00 00
	00		 jmp	 DWORD PTR __imp_??1exception@std@@UAE@XZ
??1bad_alloc@std@@UAE@XZ ENDP				; std::bad_alloc::~bad_alloc
_TEXT	ENDS
EXTRN	??3@YAXPAX@Z:PROC				; operator delete
; Function compile flags: /Ogsp
;	COMDAT ??_Gbad_alloc@std@@UAEPAXI@Z
_TEXT	SEGMENT
___flags$ = 8						; size = 4
??_Gbad_alloc@std@@UAEPAXI@Z PROC			; std::bad_alloc::`scalar deleting destructor', COMDAT
; _this$ = ecx
  00000	55		 push	 ebp
  00001	8b ec		 mov	 ebp, esp
  00003	56		 push	 esi
  00004	8b f1		 mov	 esi, ecx
  00006	c7 06 00 00 00
	00		 mov	 DWORD PTR [esi], OFFSET ??_7bad_alloc@std@@6B@
  0000c	ff 15 00 00 00
	00		 call	 DWORD PTR __imp_??1exception@std@@UAE@XZ
  00012	f6 45 08 01	 test	 BYTE PTR ___flags$[ebp], 1
  00016	74 07		 je	 SHORT $LN1@scalar
  00018	56		 push	 esi
  00019	e8 00 00 00 00	 call	 ??3@YAXPAX@Z		; operator delete
  0001e	59		 pop	 ecx
$LN1@scalar:
  0001f	8b c6		 mov	 eax, esi
  00021	5e		 pop	 esi
  00022	5d		 pop	 ebp
  00023	c2 04 00	 ret	 4
??_Gbad_alloc@std@@UAEPAXI@Z ENDP			; std::bad_alloc::`scalar deleting destructor'
_TEXT	ENDS
PUBLIC	??2@YAPAXIPAX@Z					; operator new
; Function compile flags: /Ogsp
; File c:\program files (x86)\microsoft visual studio 10.0\vc\include\new
;	COMDAT ??2@YAPAXIPAX@Z
_TEXT	SEGMENT
___formal$ = 8						; size = 4
__Where$ = 12						; size = 4
??2@YAPAXIPAX@Z PROC					; operator new, COMDAT

; 56   : 	{	// construct array with placement at _Where

  00000	55		 push	 ebp
  00001	8b ec		 mov	 ebp, esp

; 57   : 	return (_Where);

  00003	8b 45 0c	 mov	 eax, DWORD PTR __Where$[ebp]

; 58   : 	}

  00006	5d		 pop	 ebp
  00007	c3		 ret	 0
??2@YAPAXIPAX@Z ENDP					; operator new
_TEXT	ENDS
PUBLIC	??3@YAXPAX0@Z					; operator delete
; Function compile flags: /Ogsp
;	COMDAT ??3@YAXPAX0@Z
_TEXT	SEGMENT
___formal$ = 8						; size = 4
___formal$ = 12						; size = 4
??3@YAXPAX0@Z PROC					; operator delete, COMDAT

; 62   : 	}

  00000	c3		 ret	 0
??3@YAXPAX0@Z ENDP					; operator delete
_TEXT	ENDS
PUBLIC	?IsForcedWait@SoldierSelectWnd@@QBE_NXZ		; SoldierSelectWnd::IsForcedWait
; Function compile flags: /Ogsp
; File d:\lost saga for developer\youtube\tutorial\source\src\lsclient\gui\soldierselectwnd.h
;	COMDAT ?IsForcedWait@SoldierSelectWnd@@QBE_NXZ
_TEXT	SEGMENT
?IsForcedWait@SoldierSelectWnd@@QBE_NXZ PROC		; SoldierSelectWnd::IsForcedWait, COMDAT
; _this$ = ecx

; 356  : 	inline bool IsForcedWait() const { return ( m_eSoldierWndStyle == FORCED_STYLE ); }

  00000	33 c0		 xor	 eax, eax
  00002	39 81 bc 01 00
	00		 cmp	 DWORD PTR [ecx+444], eax
  00008	0f 94 c0	 sete	 al
  0000b	c3		 ret	 0
?IsForcedWait@SoldierSelectWnd@@QBE_NXZ ENDP		; SoldierSelectWnd::IsForcedWait
_TEXT	ENDS
PUBLIC	?GetClassType@ExPCRoomSoldierBonusBtn@@QAEHXZ	; ExPCRoomSoldierBonusBtn::GetClassType
; Function compile flags: /Ogsp
; File d:\lost saga for developer\youtube\tutorial\source\src\lsclient\gui\expcroomwnd.h
;	COMDAT ?GetClassType@ExPCRoomSoldierBonusBtn@@QAEHXZ
_TEXT	SEGMENT
?GetClassType@ExPCRoomSoldierBonusBtn@@QAEHXZ PROC	; ExPCRoomSoldierBonusBtn::GetClassType, COMDAT
; _this$ = ecx

; 57   : 	int GetClassType(){ return m_iClassType; }

  00000	8b 81 10 02 00
	00		 mov	 eax, DWORD PTR [ecx+528]
  00006	c3		 ret	 0
?GetClassType@ExPCRoomSoldierBonusBtn@@QAEHXZ ENDP	; ExPCRoomSoldierBonusBtn::GetClassType
_TEXT	ENDS
PUBLIC	?IsChecked@ExPCRoomSoldierBonusBtn@@QAE_NXZ	; ExPCRoomSoldierBonusBtn::IsChecked
; Function compile flags: /Ogsp
;	COMDAT ?IsChecked@ExPCRoomSoldierBonusBtn@@QAE_NXZ
_TEXT	SEGMENT
?IsChecked@ExPCRoomSoldierBonusBtn@@QAE_NXZ PROC	; ExPCRoomSoldierBonusBtn::IsChecked, COMDAT
; _this$ = ecx

; 58   : 	bool IsChecked(){ return m_bChecked; }

  00000	8a 81 18 02 00
	00		 mov	 al, BYTE PTR [ecx+536]
  00006	c3		 ret	 0
?IsChecked@ExPCRoomSoldierBonusBtn@@QAE_NXZ ENDP	; ExPCRoomSoldierBonusBtn::IsChecked
_TEXT	ENDS
PUBLIC	??0PCRoomSoldierSelect@ExPCRoomSoldierBonusWnd@@QAE@XZ ; ExPCRoomSoldierBonusWnd::PCRoomSoldierSelect::PCRoomSoldierSelect
; Function compile flags: /Ogsp
;	COMDAT ??0PCRoomSoldierSelect@ExPCRoomSoldierBonusWnd@@QAE@XZ
_TEXT	SEGMENT
??0PCRoomSoldierSelect@ExPCRoomSoldierBonusWnd@@QAE@XZ PROC ; ExPCRoomSoldierBonusWnd::PCRoomSoldierSelect::PCRoomSoldierSelect, COMDAT
; _this$ = ecx

; 128  : 		PCRoomSoldierSelect()

  00000	8b c1		 mov	 eax, ecx

; 129  : 		{
; 130  : 			m_iClassType = 0;

  00002	83 20 00	 and	 DWORD PTR [eax], 0

; 131  : 			m_bCharDelete = false;

  00005	83 60 04 00	 and	 DWORD PTR [eax+4], 0

; 132  : 		}

  00009	c3		 ret	 0
??0PCRoomSoldierSelect@ExPCRoomSoldierBonusWnd@@QAE@XZ ENDP ; ExPCRoomSoldierBonusWnd::PCRoomSoldierSelect::PCRoomSoldierSelect
_TEXT	ENDS
PUBLIC	??_7ExPCRoomAuthorityWnd@@6B@			; ExPCRoomAuthorityWnd::`vftable'
PUBLIC	??0ExPCRoomAuthorityWnd@@QAE@XZ			; ExPCRoomAuthorityWnd::ExPCRoomAuthorityWnd
PUBLIC	??_R4ExPCRoomAuthorityWnd@@6B@			; ExPCRoomAuthorityWnd::`RTTI Complete Object Locator'
PUBLIC	??_R0?AVExPCRoomAuthorityWnd@@@8		; ExPCRoomAuthorityWnd `RTTI Type Descriptor'
PUBLIC	??_R3ExPCRoomAuthorityWnd@@8			; ExPCRoomAuthorityWnd::`RTTI Class Hierarchy Descriptor'
PUBLIC	??_R2ExPCRoomAuthorityWnd@@8			; ExPCRoomAuthorityWnd::`RTTI Base Class Array'
PUBLIC	??_R1A@?0A@EA@ExPCRoomAuthorityWnd@@8		; ExPCRoomAuthorityWnd::`RTTI Base Class Descriptor at (0,-1,0,64)'
PUBLIC	??_R1A@?0A@EA@ioWnd@@8				; ioWnd::`RTTI Base Class Descriptor at (0,-1,0,64)'
PUBLIC	??_R0?AVioWnd@@@8				; ioWnd `RTTI Type Descriptor'
PUBLIC	??_R3ioWnd@@8					; ioWnd::`RTTI Class Hierarchy Descriptor'
PUBLIC	??_R2ioWnd@@8					; ioWnd::`RTTI Base Class Array'
PUBLIC	?OnRender@ExPCRoomAuthorityWnd@@MAEXXZ		; ExPCRoomAuthorityWnd::OnRender
PUBLIC	?OnProcess@ExPCRoomAuthorityWnd@@MAEXM@Z	; ExPCRoomAuthorityWnd::OnProcess
PUBLIC	?iwm_command@ExPCRoomAuthorityWnd@@UAEXPAVioWnd@@HK@Z ; ExPCRoomAuthorityWnd::iwm_command
PUBLIC	?iwm_spacebar@ExPCRoomAuthorityWnd@@UAE_NXZ	; ExPCRoomAuthorityWnd::iwm_spacebar
EXTRN	__imp_??0ioWnd@@QAE@XZ:PROC
EXTRN	?AddRenderFrame@ioWnd@@UAEXABVioHashString@@PAVioUIRenderFrame@@@Z:PROC ; ioWnd::AddRenderFrame
EXTRN	?AddRenderImage@ioWnd@@UAEXABVioHashString@@PAVioUIRenderImage@@@Z:PROC ; ioWnd::AddRenderImage
EXTRN	?AddTooltipHelp@ioWnd@@UAEXABVioHashString@@00@Z:PROC ; ioWnd::AddTooltipHelp
EXTRN	?ParseExtraInfo@ioWnd@@UAEXAAVioXMLElement@@@Z:PROC ; ioWnd::ParseExtraInfo
EXTRN	?AddNamedRenderImage@ioWnd@@UAEXABVioHashString@@PAVioUIRenderImage@@@Z:PROC ; ioWnd::AddNamedRenderImage
EXTRN	?RemoveNamedRenderImage@ioWnd@@UAEXABVioHashString@@@Z:PROC ; ioWnd::RemoveNamedRenderImage
EXTRN	?GetNamedRenderImage@ioWnd@@UBEPAVioUIRenderImage@@ABVioHashString@@@Z:PROC ; ioWnd::GetNamedRenderImage
EXTRN	?SetWindowAlpha@ioWnd@@UAEXH@Z:PROC		; ioWnd::SetWindowAlpha
EXTRN	?SetActive@ioWnd@@UAEXXZ:PROC			; ioWnd::SetActive
EXTRN	?SetInActive@ioWnd@@UAEXXZ:PROC			; ioWnd::SetInActive
EXTRN	?ClearElementImageList@ioWnd@@UAEXXZ:PROC	; ioWnd::ClearElementImageList
EXTRN	?SetSize@ioWnd@@UAEXHH@Z:PROC			; ioWnd::SetSize
EXTRN	?SetPositionToDefault@ioWnd@@UAEXHH_N0@Z:PROC	; ioWnd::SetPositionToDefault
EXTRN	?IsNeedProcess@ioWnd@@UBE_NXZ:PROC		; ioWnd::IsNeedProcess
EXTRN	?IsCanMouseReaction@ioWnd@@UBE_NXZ:PROC		; ioWnd::IsCanMouseReaction
EXTRN	?AddChild@ioWnd@@UAEXPAV1@@Z:PROC		; ioWnd::AddChild
EXTRN	?DeleteChild@ioWnd@@UAEXK@Z:PROC		; ioWnd::DeleteChild
EXTRN	?DeleteAllChild@ioWnd@@UAEXXZ:PROC		; ioWnd::DeleteAllChild
EXTRN	?OnRenderShowAndHide@ioWnd@@MAE_NXZ:PROC	; ioWnd::OnRenderShowAndHide
EXTRN	?OnRenderShowAndHideByDefault@ioWnd@@MAE_NK@Z:PROC ; ioWnd::OnRenderShowAndHideByDefault
EXTRN	?OnRenderShowAndHideByTop@ioWnd@@MAE_NK@Z:PROC	; ioWnd::OnRenderShowAndHideByTop
EXTRN	?OnRenderShowAndHideByDown@ioWnd@@MAE_NK@Z:PROC	; ioWnd::OnRenderShowAndHideByDown
EXTRN	?OnRenderAfterChild@ioWnd@@MAEXXZ:PROC		; ioWnd::OnRenderAfterChild
EXTRN	?OnMouseProcess@ioWnd@@MAEXABVioMouse@@@Z:PROC	; ioWnd::OnMouseProcess
EXTRN	?CheckFrameReSize@ioWnd@@MAEXHHHH@Z:PROC	; ioWnd::CheckFrameReSize
EXTRN	?RenderImageList@ioWnd@@MAEXHHW4UIRenderType@@@Z:PROC ; ioWnd::RenderImageList
EXTRN	?iwm_create@ioWnd@@UAEXXZ:PROC			; ioWnd::iwm_create
EXTRN	?iwm_destroy@ioWnd@@UAEXXZ:PROC			; ioWnd::iwm_destroy
EXTRN	?iwm_lbuttondown@ioWnd@@UAEXABVioMouse@@@Z:PROC	; ioWnd::iwm_lbuttondown
EXTRN	?iwm_lbuttonup@ioWnd@@UAEXABVioMouse@@@Z:PROC	; ioWnd::iwm_lbuttonup
EXTRN	?iwm_lbuttonDBLCLK@ioWnd@@UAEXABVioMouse@@@Z:PROC ; ioWnd::iwm_lbuttonDBLCLK
EXTRN	?iwm_rbuttondown@ioWnd@@UAEXABVioMouse@@@Z:PROC	; ioWnd::iwm_rbuttondown
EXTRN	?iwm_rbuttonup@ioWnd@@UAEXABVioMouse@@@Z:PROC	; ioWnd::iwm_rbuttonup
EXTRN	?iwm_mouseover@ioWnd@@UAEXABVioMouse@@@Z:PROC	; ioWnd::iwm_mouseover
EXTRN	?iwm_mousemove@ioWnd@@UAEXABVioMouse@@@Z:PROC	; ioWnd::iwm_mousemove
EXTRN	?iwm_mouseleave@ioWnd@@UAEXABVioMouse@@@Z:PROC	; ioWnd::iwm_mouseleave
EXTRN	?iwm_vscroll@ioWnd@@UAEXKH@Z:PROC		; ioWnd::iwm_vscroll
EXTRN	?iwm_wheel@ioWnd@@UAEXH@Z:PROC			; ioWnd::iwm_wheel
EXTRN	?iwm_show@ioWnd@@UAEXXZ:PROC			; ioWnd::iwm_show
EXTRN	?iwm_hide@ioWnd@@UAEXXZ:PROC			; ioWnd::iwm_hide
EXTRN	?iwm_esc@ioWnd@@UAE_NXZ:PROC			; ioWnd::iwm_esc
EXTRN	?iwm_gototop@ioWnd@@UAEXXZ:PROC			; ioWnd::iwm_gototop
EXTRN	?iwm_dragenter@ioWnd@@UAE?AW4IWDropEffect@@PAVioDragItem@@ABVioMouse@@@Z:PROC ; ioWnd::iwm_dragenter
EXTRN	?iwm_dragover@ioWnd@@UAE?AW4IWDropEffect@@PAVioDragItem@@ABVioMouse@@@Z:PROC ; ioWnd::iwm_dragover
EXTRN	?iwm_dragleave@ioWnd@@UAEXXZ:PROC		; ioWnd::iwm_dragleave
EXTRN	?iwm_dropitem@ioWnd@@UAE_NPAVioDragItem@@ABVioMouse@@PAV1@@Z:PROC ; ioWnd::iwm_dropitem
EXTRN	?iwm_dropdone@ioWnd@@UAEXPAVioDragItem@@PAV1@_N@Z:PROC ; ioWnd::iwm_dropdone
EXTRN	?IsEXType@ioWnd@@UBE_NXZ:PROC			; ioWnd::IsEXType
EXTRN	?GetWndType@ioWnd@@UBEKXZ:PROC			; ioWnd::GetWndType
EXTRN	?RenderWnd@ioWnd@@UAEXXZ:PROC			; ioWnd::RenderWnd
EXTRN	?SetIDEX@ioWnd@@UAEXAAK_N@Z:PROC		; ioWnd::SetIDEX
EXTRN	?ParseXML@ioWnd@@UAEXAAVioXMLElement@@@Z:PROC	; ioWnd::ParseXML
EXTRN	?GetHeaderFileName@ioWnd@@UAEPBDXZ:PROC		; ioWnd::GetHeaderFileName
EXTRN	?GetTemplateName@ioWnd@@UAEPBDXZ:PROC		; ioWnd::GetTemplateName
EXTRN	?GetDefClassName@ioWnd@@UBEPBDXZ:PROC		; ioWnd::GetDefClassName
EXTRN	?_Clone@ioWnd@@UAEPAV1@XZ:PROC			; ioWnd::_Clone
EXTRN	?Copy@ioWnd@@UAEXPAV1@@Z:PROC			; ioWnd::Copy
EXTRN	?Save@ioWnd@@UAE_NAAVioXMLElement@@@Z:PROC	; ioWnd::Save
EXTRN	?SetSaveData@ioWnd@@UAEXAAVioXMLElement@@@Z:PROC ; ioWnd::SetSaveData
EXTRN	?SetPosX@ioWnd@@UAEXH@Z:PROC			; ioWnd::SetPosX
EXTRN	?SetPosY@ioWnd@@UAEXH@Z:PROC			; ioWnd::SetPosY
EXTRN	?SetWidth@ioWnd@@UAEXH@Z:PROC			; ioWnd::SetWidth
EXTRN	?SetHeight@ioWnd@@UAEXH@Z:PROC			; ioWnd::SetHeight
EXTRN	?GetNumFixedRenderFrame@ioWnd@@UBEHXZ:PROC	; ioWnd::GetNumFixedRenderFrame
EXTRN	?GetFixedRenderFrameType@ioWnd@@UAEPBDH@Z:PROC	; ioWnd::GetFixedRenderFrameType
EXTRN	?GetRenderFrame@ioWnd@@UAEPAPAVioUIRenderElement@@PBD@Z:PROC ; ioWnd::GetRenderFrame
EXTRN	?GetNumFixedRenderImage@ioWnd@@UBEHXZ:PROC	; ioWnd::GetNumFixedRenderImage
EXTRN	?GetFixedRenderImageType@ioWnd@@UAEPBDH@Z:PROC	; ioWnd::GetFixedRenderImageType
EXTRN	?GetRenderImage@ioWnd@@UAEPAPAVioUIRenderElement@@PBD@Z:PROC ; ioWnd::GetRenderImage
EXTRN	?AddEffect@ioWnd@@UAEXABVioHashString@@PAVioUI3DEffectRender@@@Z:PROC ; ioWnd::AddEffect
EXTRN	?GetEffect@ioWnd@@UAEPAVioUI3DEffectRender@@VioHashString@@@Z:PROC ; ioWnd::GetEffect
EXTRN	??_EExPCRoomAuthorityWnd@@UAEPAXI@Z:PROC	; ExPCRoomAuthorityWnd::`vector deleting destructor'
;	COMDAT ??_R2ioWnd@@8
; File d:\lost saga for developer\youtube\tutorial\source\src\lsclient\gui\expcroomwnd.cpp
rdata$r	SEGMENT
??_R2ioWnd@@8 DD FLAT:??_R1A@?0A@EA@ioWnd@@8		; ioWnd::`RTTI Base Class Array'
rdata$r	ENDS
;	COMDAT ??_R3ioWnd@@8
rdata$r	SEGMENT
??_R3ioWnd@@8 DD 00H					; ioWnd::`RTTI Class Hierarchy Descriptor'
	DD	00H
	DD	01H
	DD	FLAT:??_R2ioWnd@@8
rdata$r	ENDS
;	COMDAT ??_R0?AVioWnd@@@8
_DATA	SEGMENT
??_R0?AVioWnd@@@8 DD FLAT:??_7type_info@@6B@		; ioWnd `RTTI Type Descriptor'
	DD	00H
	DB	'.?AVioWnd@@', 00H
_DATA	ENDS
;	COMDAT ??_R1A@?0A@EA@ioWnd@@8
rdata$r	SEGMENT
??_R1A@?0A@EA@ioWnd@@8 DD FLAT:??_R0?AVioWnd@@@8	; ioWnd::`RTTI Base Class Descriptor at (0,-1,0,64)'
	DD	00H
	DD	00H
	DD	0ffffffffH
	DD	00H
	DD	040H
	DD	FLAT:??_R3ioWnd@@8
rdata$r	ENDS
;	COMDAT ??_R1A@?0A@EA@ExPCRoomAuthorityWnd@@8
rdata$r	SEGMENT
??_R1A@?0A@EA@ExPCRoomAuthorityWnd@@8 DD FLAT:??_R0?AVExPCRoomAuthorityWnd@@@8 ; ExPCRoomAuthorityWnd::`RTTI Base Class Descriptor at (0,-1,0,64)'
	DD	01H
	DD	00H
	DD	0ffffffffH
	DD	00H
	DD	040H
	DD	FLAT:??_R3ExPCRoomAuthorityWnd@@8
rdata$r	ENDS
;	COMDAT ??_R2ExPCRoomAuthorityWnd@@8
rdata$r	SEGMENT
??_R2ExPCRoomAuthorityWnd@@8 DD FLAT:??_R1A@?0A@EA@ExPCRoomAuthorityWnd@@8 ; ExPCRoomAuthorityWnd::`RTTI Base Class Array'
	DD	FLAT:??_R1A@?0A@EA@ioWnd@@8
rdata$r	ENDS
;	COMDAT ??_R3ExPCRoomAuthorityWnd@@8
rdata$r	SEGMENT
??_R3ExPCRoomAuthorityWnd@@8 DD 00H			; ExPCRoomAuthorityWnd::`RTTI Class Hierarchy Descriptor'
	DD	00H
	DD	02H
	DD	FLAT:??_R2ExPCRoomAuthorityWnd@@8
rdata$r	ENDS
;	COMDAT ??_R0?AVExPCRoomAuthorityWnd@@@8
_DATA	SEGMENT
??_R0?AVExPCRoomAuthorityWnd@@@8 DD FLAT:??_7type_info@@6B@ ; ExPCRoomAuthorityWnd `RTTI Type Descriptor'
	DD	00H
	DB	'.?AVExPCRoomAuthorityWnd@@', 00H
_DATA	ENDS
;	COMDAT ??_R4ExPCRoomAuthorityWnd@@6B@
rdata$r	SEGMENT
??_R4ExPCRoomAuthorityWnd@@6B@ DD 00H			; ExPCRoomAuthorityWnd::`RTTI Complete Object Locator'
	DD	00H
	DD	00H
	DD	FLAT:??_R0?AVExPCRoomAuthorityWnd@@@8
	DD	FLAT:??_R3ExPCRoomAuthorityWnd@@8
rdata$r	ENDS
;	COMDAT ??_7ExPCRoomAuthorityWnd@@6B@
CONST	SEGMENT
??_7ExPCRoomAuthorityWnd@@6B@ DD FLAT:??_R4ExPCRoomAuthorityWnd@@6B@ ; ExPCRoomAuthorityWnd::`vftable'
	DD	FLAT:?AddRenderFrame@ioWnd@@UAEXABVioHashString@@PAVioUIRenderFrame@@@Z
	DD	FLAT:?AddRenderImage@ioWnd@@UAEXABVioHashString@@PAVioUIRenderImage@@@Z
	DD	FLAT:?AddTooltipHelp@ioWnd@@UAEXABVioHashString@@00@Z
	DD	FLAT:?ParseExtraInfo@ioWnd@@UAEXAAVioXMLElement@@@Z
	DD	FLAT:?AddNamedRenderImage@ioWnd@@UAEXABVioHashString@@PAVioUIRenderImage@@@Z
	DD	FLAT:?RemoveNamedRenderImage@ioWnd@@UAEXABVioHashString@@@Z
	DD	FLAT:?GetNamedRenderImage@ioWnd@@UBEPAVioUIRenderImage@@ABVioHashString@@@Z
	DD	FLAT:?SetWindowAlpha@ioWnd@@UAEXH@Z
	DD	FLAT:?SetActive@ioWnd@@UAEXXZ
	DD	FLAT:?SetInActive@ioWnd@@UAEXXZ
	DD	FLAT:?ClearElementImageList@ioWnd@@UAEXXZ
	DD	FLAT:?SetSize@ioWnd@@UAEXHH@Z
	DD	FLAT:?SetPositionToDefault@ioWnd@@UAEXHH_N0@Z
	DD	FLAT:?IsNeedProcess@ioWnd@@UBE_NXZ
	DD	FLAT:?IsCanMouseReaction@ioWnd@@UBE_NXZ
	DD	FLAT:?AddChild@ioWnd@@UAEXPAV1@@Z
	DD	FLAT:?DeleteChild@ioWnd@@UAEXK@Z
	DD	FLAT:?DeleteAllChild@ioWnd@@UAEXXZ
	DD	FLAT:?OnRenderShowAndHide@ioWnd@@MAE_NXZ
	DD	FLAT:?OnRenderShowAndHideByDefault@ioWnd@@MAE_NK@Z
	DD	FLAT:?OnRenderShowAndHideByTop@ioWnd@@MAE_NK@Z
	DD	FLAT:?OnRenderShowAndHideByDown@ioWnd@@MAE_NK@Z
	DD	FLAT:?OnRender@ExPCRoomAuthorityWnd@@MAEXXZ
	DD	FLAT:?OnRenderAfterChild@ioWnd@@MAEXXZ
	DD	FLAT:?OnProcess@ExPCRoomAuthorityWnd@@MAEXM@Z
	DD	FLAT:?OnMouseProcess@ioWnd@@MAEXABVioMouse@@@Z
	DD	FLAT:?CheckFrameReSize@ioWnd@@MAEXHHHH@Z
	DD	FLAT:?RenderImageList@ioWnd@@MAEXHHW4UIRenderType@@@Z
	DD	FLAT:?iwm_create@ioWnd@@UAEXXZ
	DD	FLAT:?iwm_destroy@ioWnd@@UAEXXZ
	DD	FLAT:?iwm_lbuttondown@ioWnd@@UAEXABVioMouse@@@Z
	DD	FLAT:?iwm_lbuttonup@ioWnd@@UAEXABVioMouse@@@Z
	DD	FLAT:?iwm_lbuttonDBLCLK@ioWnd@@UAEXABVioMouse@@@Z
	DD	FLAT:?iwm_rbuttondown@ioWnd@@UAEXABVioMouse@@@Z
	DD	FLAT:?iwm_rbuttonup@ioWnd@@UAEXABVioMouse@@@Z
	DD	FLAT:?iwm_command@ExPCRoomAuthorityWnd@@UAEXPAVioWnd@@HK@Z
	DD	FLAT:?iwm_mouseover@ioWnd@@UAEXABVioMouse@@@Z
	DD	FLAT:?iwm_mousemove@ioWnd@@UAEXABVioMouse@@@Z
	DD	FLAT:?iwm_mouseleave@ioWnd@@UAEXABVioMouse@@@Z
	DD	FLAT:?iwm_vscroll@ioWnd@@UAEXKH@Z
	DD	FLAT:?iwm_wheel@ioWnd@@UAEXH@Z
	DD	FLAT:?iwm_show@ioWnd@@UAEXXZ
	DD	FLAT:?iwm_hide@ioWnd@@UAEXXZ
	DD	FLAT:?iwm_esc@ioWnd@@UAE_NXZ
	DD	FLAT:?iwm_spacebar@ExPCRoomAuthorityWnd@@UAE_NXZ
	DD	FLAT:?iwm_gototop@ioWnd@@UAEXXZ
	DD	FLAT:?iwm_dragenter@ioWnd@@UAE?AW4IWDropEffect@@PAVioDragItem@@ABVioMouse@@@Z
	DD	FLAT:?iwm_dragover@ioWnd@@UAE?AW4IWDropEffect@@PAVioDragItem@@ABVioMouse@@@Z
	DD	FLAT:?iwm_dragleave@ioWnd@@UAEXXZ
	DD	FLAT:?iwm_dropitem@ioWnd@@UAE_NPAVioDragItem@@ABVioMouse@@PAV1@@Z
	DD	FLAT:?iwm_dropdone@ioWnd@@UAEXPAVioDragItem@@PAV1@_N@Z
	DD	FLAT:?IsEXType@ioWnd@@UBE_NXZ
	DD	FLAT:?GetWndType@ioWnd@@UBEKXZ
	DD	FLAT:?RenderWnd@ioWnd@@UAEXXZ
	DD	FLAT:?SetIDEX@ioWnd@@UAEXAAK_N@Z
	DD	FLAT:?ParseXML@ioWnd@@UAEXAAVioXMLElement@@@Z
	DD	FLAT:?GetHeaderFileName@ioWnd@@UAEPBDXZ
	DD	FLAT:?GetTemplateName@ioWnd@@UAEPBDXZ
	DD	FLAT:?GetDefClassName@ioWnd@@UBEPBDXZ
	DD	FLAT:?_Clone@ioWnd@@UAEPAV1@XZ
	DD	FLAT:?Copy@ioWnd@@UAEXPAV1@@Z
	DD	FLAT:?Save@ioWnd@@UAE_NAAVioXMLElement@@@Z
	DD	FLAT:?SetSaveData@ioWnd@@UAEXAAVioXMLElement@@@Z
	DD	FLAT:?SetPosX@ioWnd@@UAEXH@Z
	DD	FLAT:?SetPosY@ioWnd@@UAEXH@Z
	DD	FLAT:?SetWidth@ioWnd@@UAEXH@Z
	DD	FLAT:?SetHeight@ioWnd@@UAEXH@Z
	DD	FLAT:?GetNumFixedRenderFrame@ioWnd@@UBEHXZ
	DD	FLAT:?GetFixedRenderFrameType@ioWnd@@UAEPBDH@Z
	DD	FLAT:?GetRenderFrame@ioWnd@@UAEPAPAVioUIRenderElement@@PBD@Z
	DD	FLAT:?GetNumFixedRenderImage@ioWnd@@UBEHXZ
	DD	FLAT:?GetFixedRenderImageType@ioWnd@@UAEPBDH@Z
	DD	FLAT:?GetRenderImage@ioWnd@@UAEPAPAVioUIRenderElement@@PBD@Z
	DD	FLAT:?AddEffect@ioWnd@@UAEXABVioHashString@@PAVioUI3DEffectRender@@@Z
	DD	FLAT:?GetEffect@ioWnd@@UAEPAVioUI3DEffectRender@@VioHashString@@@Z
	DD	FLAT:??_EExPCRoomAuthorityWnd@@UAEPAXI@Z
; Function compile flags: /Ogsp
CONST	ENDS
;	COMDAT ??0ExPCRoomAuthorityWnd@@QAE@XZ
_TEXT	SEGMENT
??0ExPCRoomAuthorityWnd@@QAE@XZ PROC			; ExPCRoomAuthorityWnd::ExPCRoomAuthorityWnd, COMDAT
; _this$ = ecx

; 36   : {

  00000	56		 push	 esi
  00001	8b f1		 mov	 esi, ecx
  00003	ff 15 00 00 00
	00		 call	 DWORD PTR __imp_??0ioWnd@@QAE@XZ
  00009	c7 06 00 00 00
	00		 mov	 DWORD PTR [esi], OFFSET ??_7ExPCRoomAuthorityWnd@@6B@

; 37   : }

  0000f	8b c6		 mov	 eax, esi
  00011	5e		 pop	 esi
  00012	c3		 ret	 0
??0ExPCRoomAuthorityWnd@@QAE@XZ ENDP			; ExPCRoomAuthorityWnd::ExPCRoomAuthorityWnd
_TEXT	ENDS
PUBLIC	??1ExPCRoomAuthorityWnd@@UAE@XZ			; ExPCRoomAuthorityWnd::~ExPCRoomAuthorityWnd
EXTRN	__imp_??1ioWnd@@UAE@XZ:PROC
; Function compile flags: /Ogsp
;	COMDAT ??1ExPCRoomAuthorityWnd@@UAE@XZ
_TEXT	SEGMENT
??1ExPCRoomAuthorityWnd@@UAE@XZ PROC			; ExPCRoomAuthorityWnd::~ExPCRoomAuthorityWnd, COMDAT
; _this$ = ecx

; 40   : {

  00000	c7 01 00 00 00
	00		 mov	 DWORD PTR [ecx], OFFSET ??_7ExPCRoomAuthorityWnd@@6B@

; 41   : }

  00006	ff 25 00 00 00
	00		 jmp	 DWORD PTR __imp_??1ioWnd@@UAE@XZ
??1ExPCRoomAuthorityWnd@@UAE@XZ ENDP			; ExPCRoomAuthorityWnd::~ExPCRoomAuthorityWnd
_TEXT	ENDS
EXTRN	__imp_?FindChildWnd@ioWnd@@QAEPAV1@K@Z:PROC
; Function compile flags: /Ogsp
;	COMDAT ?iwm_spacebar@ExPCRoomAuthorityWnd@@UAE_NXZ
_TEXT	SEGMENT
?iwm_spacebar@ExPCRoomAuthorityWnd@@UAE_NXZ PROC	; ExPCRoomAuthorityWnd::iwm_spacebar, COMDAT
; _this$ = ecx

; 44   : {

  00000	56		 push	 esi
  00001	57		 push	 edi

; 45   : 	iwm_command( FindChildWnd( ID_SOLDIER_BTN ), IOBN_BTNUP, 0 );

  00002	6a 00		 push	 0
  00004	6a 11		 push	 17			; 00000011H
  00006	8b f1		 mov	 esi, ecx
  00008	8b 3e		 mov	 edi, DWORD PTR [esi]
  0000a	6a 01		 push	 1
  0000c	ff 15 00 00 00
	00		 call	 DWORD PTR __imp_?FindChildWnd@ioWnd@@QAEPAV1@K@Z
  00012	50		 push	 eax
  00013	8b ce		 mov	 ecx, esi
  00015	ff 97 8c 00 00
	00		 call	 DWORD PTR [edi+140]
  0001b	5f		 pop	 edi

; 46   : 	return true;

  0001c	b0 01		 mov	 al, 1
  0001e	5e		 pop	 esi

; 47   : }

  0001f	c3		 ret	 0
?iwm_spacebar@ExPCRoomAuthorityWnd@@UAE_NXZ ENDP	; ExPCRoomAuthorityWnd::iwm_spacebar
_TEXT	ENDS
EXTRN	__imp_?IsShow@ioWnd@@QBE_NXZ:PROC
; Function compile flags: /Ogsp
;	COMDAT ?OnProcess@ExPCRoomAuthorityWnd@@MAEXM@Z
_TEXT	SEGMENT
_fTimePerSec$ = 8					; size = 4
?OnProcess@ExPCRoomAuthorityWnd@@MAEXM@Z PROC		; ExPCRoomAuthorityWnd::OnProcess, COMDAT
; _this$ = ecx

; 80   : 	if( !IsShow() ) 

  00000	ff 15 00 00 00
	00		 call	 DWORD PTR __imp_?IsShow@ioWnd@@QBE_NXZ

; 81   : 		return;
; 82   : }

  00006	c2 04 00	 ret	 4
?OnProcess@ExPCRoomAuthorityWnd@@MAEXM@Z ENDP		; ExPCRoomAuthorityWnd::OnProcess
_TEXT	ENDS
EXTRN	__imp_?OnRender@ioWnd@@MAEXXZ:PROC
; Function compile flags: /Ogsp
;	COMDAT ?OnRender@ExPCRoomAuthorityWnd@@MAEXXZ
_TEXT	SEGMENT
?OnRender@ExPCRoomAuthorityWnd@@MAEXXZ PROC		; ExPCRoomAuthorityWnd::OnRender, COMDAT
; _this$ = ecx

; 86   : 	ioWnd::OnRender();

  00000	ff 25 00 00 00
	00		 jmp	 DWORD PTR __imp_?OnRender@ioWnd@@MAEXXZ
?OnRender@ExPCRoomAuthorityWnd@@MAEXXZ ENDP		; ExPCRoomAuthorityWnd::OnRender
_TEXT	ENDS
PUBLIC	??_7ExPCRoomSoldierBonusBtn@@6B@		; ExPCRoomSoldierBonusBtn::`vftable'
PUBLIC	??0ExPCRoomSoldierBonusBtn@@QAE@XZ		; ExPCRoomSoldierBonusBtn::ExPCRoomSoldierBonusBtn
PUBLIC	??_R4ExPCRoomSoldierBonusBtn@@6B@		; ExPCRoomSoldierBonusBtn::`RTTI Complete Object Locator'
PUBLIC	??_R0?AVExPCRoomSoldierBonusBtn@@@8		; ExPCRoomSoldierBonusBtn `RTTI Type Descriptor'
PUBLIC	??_R3ExPCRoomSoldierBonusBtn@@8			; ExPCRoomSoldierBonusBtn::`RTTI Class Hierarchy Descriptor'
PUBLIC	??_R2ExPCRoomSoldierBonusBtn@@8			; ExPCRoomSoldierBonusBtn::`RTTI Base Class Array'
PUBLIC	??_R1A@?0A@EA@ExPCRoomSoldierBonusBtn@@8	; ExPCRoomSoldierBonusBtn::`RTTI Base Class Descriptor at (0,-1,0,64)'
PUBLIC	??_R1A@?0A@EA@ioButton@@8			; ioButton::`RTTI Base Class Descriptor at (0,-1,0,64)'
PUBLIC	??_R0?AVioButton@@@8				; ioButton `RTTI Type Descriptor'
PUBLIC	??_R3ioButton@@8				; ioButton::`RTTI Class Hierarchy Descriptor'
PUBLIC	??_R2ioButton@@8				; ioButton::`RTTI Base Class Array'
PUBLIC	?AddRenderFrame@ExPCRoomSoldierBonusBtn@@MAEXABVioHashString@@PAVioUIRenderFrame@@@Z ; ExPCRoomSoldierBonusBtn::AddRenderFrame
PUBLIC	?AddRenderImage@ExPCRoomSoldierBonusBtn@@MAEXABVioHashString@@PAVioUIRenderImage@@@Z ; ExPCRoomSoldierBonusBtn::AddRenderImage
PUBLIC	?OnRender@ExPCRoomSoldierBonusBtn@@MAEXXZ	; ExPCRoomSoldierBonusBtn::OnRender
EXTRN	__imp_??0ioButton@@QAE@XZ:PROC
EXTRN	?ParseExtraInfo@ioButton@@UAEXAAVioXMLElement@@@Z:PROC ; ioButton::ParseExtraInfo
EXTRN	?SetWindowAlpha@ioButton@@UAEXH@Z:PROC		; ioButton::SetWindowAlpha
EXTRN	?OnProcess@ioWnd@@MAEXM@Z:PROC			; ioWnd::OnProcess
EXTRN	?CheckFrameReSize@ioButton@@MAEXHHHH@Z:PROC	; ioButton::CheckFrameReSize
EXTRN	?iwm_lbuttondown@ioButton@@UAEXABVioMouse@@@Z:PROC ; ioButton::iwm_lbuttondown
EXTRN	?iwm_lbuttonup@ioButton@@UAEXABVioMouse@@@Z:PROC ; ioButton::iwm_lbuttonup
EXTRN	?iwm_lbuttonDBLCLK@ioButton@@UAEXABVioMouse@@@Z:PROC ; ioButton::iwm_lbuttonDBLCLK
EXTRN	?iwm_rbuttondown@ioButton@@UAEXABVioMouse@@@Z:PROC ; ioButton::iwm_rbuttondown
EXTRN	?iwm_rbuttonup@ioButton@@UAEXABVioMouse@@@Z:PROC ; ioButton::iwm_rbuttonup
EXTRN	?iwm_command@ioWnd@@UAEXPAV1@HK@Z:PROC		; ioWnd::iwm_command
EXTRN	?iwm_mouseover@ioButton@@UAEXABVioMouse@@@Z:PROC ; ioButton::iwm_mouseover
EXTRN	?iwm_spacebar@ioWnd@@UAE_NXZ:PROC		; ioWnd::iwm_spacebar
EXTRN	?GetWndType@ioButton@@UBEKXZ:PROC		; ioButton::GetWndType
EXTRN	?GetHeaderFileName@ioButton@@UAEPBDXZ:PROC	; ioButton::GetHeaderFileName
EXTRN	?GetTemplateName@ioButton@@UAEPBDXZ:PROC	; ioButton::GetTemplateName
EXTRN	?GetDefClassName@ioButton@@UBEPBDXZ:PROC	; ioButton::GetDefClassName
EXTRN	?_Clone@ioButton@@UAEPAVioWnd@@XZ:PROC		; ioButton::_Clone
EXTRN	?Copy@ioButton@@UAEXPAVioWnd@@@Z:PROC		; ioButton::Copy
EXTRN	?SetSaveData@ioButton@@UAEXAAVioXMLElement@@@Z:PROC ; ioButton::SetSaveData
EXTRN	?GetNumFixedRenderFrame@ioButton@@UBEHXZ:PROC	; ioButton::GetNumFixedRenderFrame
EXTRN	?GetFixedRenderFrameType@ioButton@@UAEPBDH@Z:PROC ; ioButton::GetFixedRenderFrameType
EXTRN	?GetRenderFrame@ioButton@@UAEPAPAVioUIRenderElement@@PBD@Z:PROC ; ioButton::GetRenderFrame
EXTRN	?GetNumFixedRenderImage@ioButton@@UBEHXZ:PROC	; ioButton::GetNumFixedRenderImage
EXTRN	?GetFixedRenderImageType@ioButton@@UAEPBDH@Z:PROC ; ioButton::GetFixedRenderImageType
EXTRN	?GetRenderImage@ioButton@@UAEPAPAVioUIRenderElement@@PBD@Z:PROC ; ioButton::GetRenderImage
EXTRN	??_EExPCRoomSoldierBonusBtn@@UAEPAXI@Z:PROC	; ExPCRoomSoldierBonusBtn::`vector deleting destructor'
EXTRN	?OnDrawNormal@ioButton@@MAEXHH@Z:PROC		; ioButton::OnDrawNormal
EXTRN	?OnDrawOvered@ioButton@@MAEXHH@Z:PROC		; ioButton::OnDrawOvered
EXTRN	?OnDrawOveredAdd@ioButton@@MAEXHH@Z:PROC	; ioButton::OnDrawOveredAdd
EXTRN	?OnDrawPushed@ioButton@@MAEXHH@Z:PROC		; ioButton::OnDrawPushed
EXTRN	?OnDrawDisabled@ioButton@@MAEXHH@Z:PROC		; ioButton::OnDrawDisabled
EXTRN	?OnDrawExDisabledNormal@ioButton@@MAEXHH@Z:PROC	; ioButton::OnDrawExDisabledNormal
EXTRN	?OnDrawExDisabledOvered@ioButton@@MAEXHH@Z:PROC	; ioButton::OnDrawExDisabledOvered
EXTRN	?OnDrawExDisabledPushed@ioButton@@MAEXHH@Z:PROC	; ioButton::OnDrawExDisabledPushed
EXTRN	?OnDrawBack@ioButton@@MAEXHH@Z:PROC		; ioButton::OnDrawBack
EXTRN	?OnDrawNormalList@ioButton@@MAEXHH@Z:PROC	; ioButton::OnDrawNormalList
EXTRN	?OnDrawDisableList@ioButton@@MAEXHH@Z:PROC	; ioButton::OnDrawDisableList
;	COMDAT ??_R2ioButton@@8
rdata$r	SEGMENT
??_R2ioButton@@8 DD FLAT:??_R1A@?0A@EA@ioButton@@8	; ioButton::`RTTI Base Class Array'
	DD	FLAT:??_R1A@?0A@EA@ioWnd@@8
rdata$r	ENDS
;	COMDAT ??_R3ioButton@@8
rdata$r	SEGMENT
??_R3ioButton@@8 DD 00H					; ioButton::`RTTI Class Hierarchy Descriptor'
	DD	00H
	DD	02H
	DD	FLAT:??_R2ioButton@@8
rdata$r	ENDS
;	COMDAT ??_R0?AVioButton@@@8
_DATA	SEGMENT
??_R0?AVioButton@@@8 DD FLAT:??_7type_info@@6B@		; ioButton `RTTI Type Descriptor'
	DD	00H
	DB	'.?AVioButton@@', 00H
_DATA	ENDS
;	COMDAT ??_R1A@?0A@EA@ioButton@@8
rdata$r	SEGMENT
??_R1A@?0A@EA@ioButton@@8 DD FLAT:??_R0?AVioButton@@@8	; ioButton::`RTTI Base Class Descriptor at (0,-1,0,64)'
	DD	01H
	DD	00H
	DD	0ffffffffH
	DD	00H
	DD	040H
	DD	FLAT:??_R3ioButton@@8
rdata$r	ENDS
;	COMDAT ??_R1A@?0A@EA@ExPCRoomSoldierBonusBtn@@8
rdata$r	SEGMENT
??_R1A@?0A@EA@ExPCRoomSoldierBonusBtn@@8 DD FLAT:??_R0?AVExPCRoomSoldierBonusBtn@@@8 ; ExPCRoomSoldierBonusBtn::`RTTI Base Class Descriptor at (0,-1,0,64)'
	DD	02H
	DD	00H
	DD	0ffffffffH
	DD	00H
	DD	040H
	DD	FLAT:??_R3ExPCRoomSoldierBonusBtn@@8
rdata$r	ENDS
;	COMDAT ??_R2ExPCRoomSoldierBonusBtn@@8
rdata$r	SEGMENT
??_R2ExPCRoomSoldierBonusBtn@@8 DD FLAT:??_R1A@?0A@EA@ExPCRoomSoldierBonusBtn@@8 ; ExPCRoomSoldierBonusBtn::`RTTI Base Class Array'
	DD	FLAT:??_R1A@?0A@EA@ioButton@@8
	DD	FLAT:??_R1A@?0A@EA@ioWnd@@8
rdata$r	ENDS
;	COMDAT ??_R3ExPCRoomSoldierBonusBtn@@8
rdata$r	SEGMENT
??_R3ExPCRoomSoldierBonusBtn@@8 DD 00H			; ExPCRoomSoldierBonusBtn::`RTTI Class Hierarchy Descriptor'
	DD	00H
	DD	03H
	DD	FLAT:??_R2ExPCRoomSoldierBonusBtn@@8
rdata$r	ENDS
;	COMDAT ??_R0?AVExPCRoomSoldierBonusBtn@@@8
_DATA	SEGMENT
??_R0?AVExPCRoomSoldierBonusBtn@@@8 DD FLAT:??_7type_info@@6B@ ; ExPCRoomSoldierBonusBtn `RTTI Type Descriptor'
	DD	00H
	DB	'.?AVExPCRoomSoldierBonusBtn@@', 00H
_DATA	ENDS
;	COMDAT ??_R4ExPCRoomSoldierBonusBtn@@6B@
rdata$r	SEGMENT
??_R4ExPCRoomSoldierBonusBtn@@6B@ DD 00H		; ExPCRoomSoldierBonusBtn::`RTTI Complete Object Locator'
	DD	00H
	DD	00H
	DD	FLAT:??_R0?AVExPCRoomSoldierBonusBtn@@@8
	DD	FLAT:??_R3ExPCRoomSoldierBonusBtn@@8
rdata$r	ENDS
;	COMDAT ??_7ExPCRoomSoldierBonusBtn@@6B@
CONST	SEGMENT
??_7ExPCRoomSoldierBonusBtn@@6B@ DD FLAT:??_R4ExPCRoomSoldierBonusBtn@@6B@ ; ExPCRoomSoldierBonusBtn::`vftable'
	DD	FLAT:?AddRenderFrame@ExPCRoomSoldierBonusBtn@@MAEXABVioHashString@@PAVioUIRenderFrame@@@Z
	DD	FLAT:?AddRenderImage@ExPCRoomSoldierBonusBtn@@MAEXABVioHashString@@PAVioUIRenderImage@@@Z
	DD	FLAT:?AddTooltipHelp@ioWnd@@UAEXABVioHashString@@00@Z
	DD	FLAT:?ParseExtraInfo@ioButton@@UAEXAAVioXMLElement@@@Z
	DD	FLAT:?AddNamedRenderImage@ioWnd@@UAEXABVioHashString@@PAVioUIRenderImage@@@Z
	DD	FLAT:?RemoveNamedRenderImage@ioWnd@@UAEXABVioHashString@@@Z
	DD	FLAT:?GetNamedRenderImage@ioWnd@@UBEPAVioUIRenderImage@@ABVioHashString@@@Z
	DD	FLAT:?SetWindowAlpha@ioButton@@UAEXH@Z
	DD	FLAT:?SetActive@ioWnd@@UAEXXZ
	DD	FLAT:?SetInActive@ioWnd@@UAEXXZ
	DD	FLAT:?ClearElementImageList@ioWnd@@UAEXXZ
	DD	FLAT:?SetSize@ioWnd@@UAEXHH@Z
	DD	FLAT:?SetPositionToDefault@ioWnd@@UAEXHH_N0@Z
	DD	FLAT:?IsNeedProcess@ioWnd@@UBE_NXZ
	DD	FLAT:?IsCanMouseReaction@ioWnd@@UBE_NXZ
	DD	FLAT:?AddChild@ioWnd@@UAEXPAV1@@Z
	DD	FLAT:?DeleteChild@ioWnd@@UAEXK@Z
	DD	FLAT:?DeleteAllChild@ioWnd@@UAEXXZ
	DD	FLAT:?OnRenderShowAndHide@ioWnd@@MAE_NXZ
	DD	FLAT:?OnRenderShowAndHideByDefault@ioWnd@@MAE_NK@Z
	DD	FLAT:?OnRenderShowAndHideByTop@ioWnd@@MAE_NK@Z
	DD	FLAT:?OnRenderShowAndHideByDown@ioWnd@@MAE_NK@Z
	DD	FLAT:?OnRender@ExPCRoomSoldierBonusBtn@@MAEXXZ
	DD	FLAT:?OnRenderAfterChild@ioWnd@@MAEXXZ
	DD	FLAT:?OnProcess@ioWnd@@MAEXM@Z
	DD	FLAT:?OnMouseProcess@ioWnd@@MAEXABVioMouse@@@Z
	DD	FLAT:?CheckFrameReSize@ioButton@@MAEXHHHH@Z
	DD	FLAT:?RenderImageList@ioWnd@@MAEXHHW4UIRenderType@@@Z
	DD	FLAT:?iwm_create@ioWnd@@UAEXXZ
	DD	FLAT:?iwm_destroy@ioWnd@@UAEXXZ
	DD	FLAT:?iwm_lbuttondown@ioButton@@UAEXABVioMouse@@@Z
	DD	FLAT:?iwm_lbuttonup@ioButton@@UAEXABVioMouse@@@Z
	DD	FLAT:?iwm_lbuttonDBLCLK@ioButton@@UAEXABVioMouse@@@Z
	DD	FLAT:?iwm_rbuttondown@ioButton@@UAEXABVioMouse@@@Z
	DD	FLAT:?iwm_rbuttonup@ioButton@@UAEXABVioMouse@@@Z
	DD	FLAT:?iwm_command@ioWnd@@UAEXPAV1@HK@Z
	DD	FLAT:?iwm_mouseover@ioButton@@UAEXABVioMouse@@@Z
	DD	FLAT:?iwm_mousemove@ioWnd@@UAEXABVioMouse@@@Z
	DD	FLAT:?iwm_mouseleave@ioWnd@@UAEXABVioMouse@@@Z
	DD	FLAT:?iwm_vscroll@ioWnd@@UAEXKH@Z
	DD	FLAT:?iwm_wheel@ioWnd@@UAEXH@Z
	DD	FLAT:?iwm_show@ioWnd@@UAEXXZ
	DD	FLAT:?iwm_hide@ioWnd@@UAEXXZ
	DD	FLAT:?iwm_esc@ioWnd@@UAE_NXZ
	DD	FLAT:?iwm_spacebar@ioWnd@@UAE_NXZ
	DD	FLAT:?iwm_gototop@ioWnd@@UAEXXZ
	DD	FLAT:?iwm_dragenter@ioWnd@@UAE?AW4IWDropEffect@@PAVioDragItem@@ABVioMouse@@@Z
	DD	FLAT:?iwm_dragover@ioWnd@@UAE?AW4IWDropEffect@@PAVioDragItem@@ABVioMouse@@@Z
	DD	FLAT:?iwm_dragleave@ioWnd@@UAEXXZ
	DD	FLAT:?iwm_dropitem@ioWnd@@UAE_NPAVioDragItem@@ABVioMouse@@PAV1@@Z
	DD	FLAT:?iwm_dropdone@ioWnd@@UAEXPAVioDragItem@@PAV1@_N@Z
	DD	FLAT:?IsEXType@ioWnd@@UBE_NXZ
	DD	FLAT:?GetWndType@ioButton@@UBEKXZ
	DD	FLAT:?RenderWnd@ioWnd@@UAEXXZ
	DD	FLAT:?SetIDEX@ioWnd@@UAEXAAK_N@Z
	DD	FLAT:?ParseXML@ioWnd@@UAEXAAVioXMLElement@@@Z
	DD	FLAT:?GetHeaderFileName@ioButton@@UAEPBDXZ
	DD	FLAT:?GetTemplateName@ioButton@@UAEPBDXZ
	DD	FLAT:?GetDefClassName@ioButton@@UBEPBDXZ
	DD	FLAT:?_Clone@ioButton@@UAEPAVioWnd@@XZ
	DD	FLAT:?Copy@ioButton@@UAEXPAVioWnd@@@Z
	DD	FLAT:?Save@ioWnd@@UAE_NAAVioXMLElement@@@Z
	DD	FLAT:?SetSaveData@ioButton@@UAEXAAVioXMLElement@@@Z
	DD	FLAT:?SetPosX@ioWnd@@UAEXH@Z
	DD	FLAT:?SetPosY@ioWnd@@UAEXH@Z
	DD	FLAT:?SetWidth@ioWnd@@UAEXH@Z
	DD	FLAT:?SetHeight@ioWnd@@UAEXH@Z
	DD	FLAT:?GetNumFixedRenderFrame@ioButton@@UBEHXZ
	DD	FLAT:?GetFixedRenderFrameType@ioButton@@UAEPBDH@Z
	DD	FLAT:?GetRenderFrame@ioButton@@UAEPAPAVioUIRenderElement@@PBD@Z
	DD	FLAT:?GetNumFixedRenderImage@ioButton@@UBEHXZ
	DD	FLAT:?GetFixedRenderImageType@ioButton@@UAEPBDH@Z
	DD	FLAT:?GetRenderImage@ioButton@@UAEPAPAVioUIRenderElement@@PBD@Z
	DD	FLAT:?AddEffect@ioWnd@@UAEXABVioHashString@@PAVioUI3DEffectRender@@@Z
	DD	FLAT:?GetEffect@ioWnd@@UAEPAVioUI3DEffectRender@@VioHashString@@@Z
	DD	FLAT:??_EExPCRoomSoldierBonusBtn@@UAEPAXI@Z
	DD	FLAT:?OnDrawNormal@ioButton@@MAEXHH@Z
	DD	FLAT:?OnDrawOvered@ioButton@@MAEXHH@Z
	DD	FLAT:?OnDrawOveredAdd@ioButton@@MAEXHH@Z
	DD	FLAT:?OnDrawPushed@ioButton@@MAEXHH@Z
	DD	FLAT:?OnDrawDisabled@ioButton@@MAEXHH@Z
	DD	FLAT:?OnDrawExDisabledNormal@ioButton@@MAEXHH@Z
	DD	FLAT:?OnDrawExDisabledOvered@ioButton@@MAEXHH@Z
	DD	FLAT:?OnDrawExDisabledPushed@ioButton@@MAEXHH@Z
	DD	FLAT:?OnDrawBack@ioButton@@MAEXHH@Z
	DD	FLAT:?OnDrawNormalList@ioButton@@MAEXHH@Z
	DD	FLAT:?OnDrawDisableList@ioButton@@MAEXHH@Z
; Function compile flags: /Ogsp
CONST	ENDS
;	COMDAT ??0ExPCRoomSoldierBonusBtn@@QAE@XZ
_TEXT	SEGMENT
??0ExPCRoomSoldierBonusBtn@@QAE@XZ PROC			; ExPCRoomSoldierBonusBtn::ExPCRoomSoldierBonusBtn, COMDAT
; _this$ = ecx

; 91   : {

  00000	56		 push	 esi
  00001	8b f1		 mov	 esi, ecx
  00003	ff 15 00 00 00
	00		 call	 DWORD PTR __imp_??0ioButton@@QAE@XZ

; 92   : 	m_pIconBack = NULL;
; 93   : 	m_pCharIcon = NULL;
; 94   : 	m_pNumBack  = NULL;
; 95   : 		
; 96   : 	m_pCheckedFrm = NULL;
; 97   : 	
; 98   : 	m_iSelectNum = 0;
; 99   : 	m_iClassType = -1;	

  00009	83 8e 10 02 00
	00 ff		 or	 DWORD PTR [esi+528], -1
  00010	33 c0		 xor	 eax, eax
  00012	89 86 fc 01 00
	00		 mov	 DWORD PTR [esi+508], eax
  00018	89 86 00 02 00
	00		 mov	 DWORD PTR [esi+512], eax
  0001e	89 86 04 02 00
	00		 mov	 DWORD PTR [esi+516], eax
  00024	89 86 08 02 00
	00		 mov	 DWORD PTR [esi+520], eax
  0002a	89 86 14 02 00
	00		 mov	 DWORD PTR [esi+532], eax

; 100  : 
; 101  : 	m_bChecked   = false;

  00030	88 86 18 02 00
	00		 mov	 BYTE PTR [esi+536], al

; 102  : 
; 103  : 	m_nGradeType = 0;

  00036	89 86 0c 02 00
	00		 mov	 DWORD PTR [esi+524], eax
  0003c	c7 06 00 00 00
	00		 mov	 DWORD PTR [esi], OFFSET ??_7ExPCRoomSoldierBonusBtn@@6B@

; 104  : }

  00042	8b c6		 mov	 eax, esi
  00044	5e		 pop	 esi
  00045	c3		 ret	 0
??0ExPCRoomSoldierBonusBtn@@QAE@XZ ENDP			; ExPCRoomSoldierBonusBtn::ExPCRoomSoldierBonusBtn
_TEXT	ENDS
PUBLIC	??1ExPCRoomSoldierBonusBtn@@UAE@XZ		; ExPCRoomSoldierBonusBtn::~ExPCRoomSoldierBonusBtn
EXTRN	__imp_??1ioButton@@UAE@XZ:PROC
EXTRN	___CxxFrameHandler3:PROC
EXTRN	@__security_check_cookie@4:PROC
EXTRN	__EH_epilog3:PROC
EXTRN	__EH_prolog3:PROC
;	COMDAT xdata$x
xdata$x	SEGMENT
__unwindtable$??1ExPCRoomSoldierBonusBtn@@UAE@XZ DD 0ffffffffH
	DD	FLAT:__unwindfunclet$??1ExPCRoomSoldierBonusBtn@@UAE@XZ$0
__ehfuncinfo$??1ExPCRoomSoldierBonusBtn@@UAE@XZ DD 019930522H
	DD	01H
	DD	FLAT:__unwindtable$??1ExPCRoomSoldierBonusBtn@@UAE@XZ
	DD	2 DUP(00H)
	DD	2 DUP(00H)
	DD	00H
	DD	01H
; Function compile flags: /Ogsp
xdata$x	ENDS
;	COMDAT ??1ExPCRoomSoldierBonusBtn@@UAE@XZ
_TEXT	SEGMENT
_this$ = -16						; size = 4
__$EHRec$ = -12						; size = 12
??1ExPCRoomSoldierBonusBtn@@UAE@XZ PROC			; ExPCRoomSoldierBonusBtn::~ExPCRoomSoldierBonusBtn, COMDAT
; _this$ = ecx

; 107  : {

  00000	6a 04		 push	 4
  00002	b8 00 00 00 00	 mov	 eax, __ehhandler$??1ExPCRoomSoldierBonusBtn@@UAE@XZ
  00007	e8 00 00 00 00	 call	 __EH_prolog3
  0000c	8b f1		 mov	 esi, ecx
  0000e	89 75 f0	 mov	 DWORD PTR _this$[ebp], esi
  00011	c7 06 00 00 00
	00		 mov	 DWORD PTR [esi], OFFSET ??_7ExPCRoomSoldierBonusBtn@@6B@

; 108  : 	SAFEDELETE( m_pIconBack );

  00017	8b 8e fc 01 00
	00		 mov	 ecx, DWORD PTR [esi+508]
  0001d	33 db		 xor	 ebx, ebx
  0001f	89 5d fc	 mov	 DWORD PTR __$EHRec$[ebp+8], ebx
  00022	3b cb		 cmp	 ecx, ebx
  00024	74 0d		 je	 SHORT $LN4@ExPCRoomSo
  00026	8b 01		 mov	 eax, DWORD PTR [ecx]
  00028	6a 01		 push	 1
  0002a	ff 50 40	 call	 DWORD PTR [eax+64]
  0002d	89 9e fc 01 00
	00		 mov	 DWORD PTR [esi+508], ebx
$LN4@ExPCRoomSo:

; 109  : 	SAFEDELETE( m_pCharIcon );

  00033	8b 8e 00 02 00
	00		 mov	 ecx, DWORD PTR [esi+512]
  00039	3b cb		 cmp	 ecx, ebx
  0003b	74 0d		 je	 SHORT $LN3@ExPCRoomSo
  0003d	8b 01		 mov	 eax, DWORD PTR [ecx]
  0003f	6a 01		 push	 1
  00041	ff 50 40	 call	 DWORD PTR [eax+64]
  00044	89 9e 00 02 00
	00		 mov	 DWORD PTR [esi+512], ebx
$LN3@ExPCRoomSo:

; 110  : 	SAFEDELETE( m_pNumBack );

  0004a	8b 8e 04 02 00
	00		 mov	 ecx, DWORD PTR [esi+516]
  00050	3b cb		 cmp	 ecx, ebx
  00052	74 0d		 je	 SHORT $LN2@ExPCRoomSo
  00054	8b 01		 mov	 eax, DWORD PTR [ecx]
  00056	6a 01		 push	 1
  00058	ff 50 40	 call	 DWORD PTR [eax+64]
  0005b	89 9e 04 02 00
	00		 mov	 DWORD PTR [esi+516], ebx
$LN2@ExPCRoomSo:

; 111  : 
; 112  : 	SAFEDELETE( m_pCheckedFrm );

  00061	8b 8e 08 02 00
	00		 mov	 ecx, DWORD PTR [esi+520]
  00067	3b cb		 cmp	 ecx, ebx
  00069	74 0d		 je	 SHORT $LN1@ExPCRoomSo
  0006b	8b 01		 mov	 eax, DWORD PTR [ecx]
  0006d	6a 01		 push	 1
  0006f	ff 50 40	 call	 DWORD PTR [eax+64]
  00072	89 9e 08 02 00
	00		 mov	 DWORD PTR [esi+520], ebx
$LN1@ExPCRoomSo:

; 113  : }

  00078	83 4d fc ff	 or	 DWORD PTR __$EHRec$[ebp+8], -1
  0007c	8b ce		 mov	 ecx, esi
  0007e	ff 15 00 00 00
	00		 call	 DWORD PTR __imp_??1ioButton@@UAE@XZ
  00084	e8 00 00 00 00	 call	 __EH_epilog3
  00089	c3		 ret	 0
_TEXT	ENDS
;	COMDAT text$x
text$x	SEGMENT
__unwindfunclet$??1ExPCRoomSoldierBonusBtn@@UAE@XZ$0:
  00000	8b 4d f0	 mov	 ecx, DWORD PTR _this$[ebp]
  00003	ff 25 00 00 00
	00		 jmp	 DWORD PTR __imp_??1ioButton@@UAE@XZ
__ehhandler$??1ExPCRoomSoldierBonusBtn@@UAE@XZ:
  00009	8b 54 24 08	 mov	 edx, DWORD PTR [esp+8]
  0000d	8d 42 0c	 lea	 eax, DWORD PTR [edx+12]
  00010	8b 4a ec	 mov	 ecx, DWORD PTR [edx-20]
  00013	33 c8		 xor	 ecx, eax
  00015	e8 00 00 00 00	 call	 @__security_check_cookie@4
  0001a	b8 00 00 00 00	 mov	 eax, OFFSET __ehfuncinfo$??1ExPCRoomSoldierBonusBtn@@UAE@XZ
  0001f	e9 00 00 00 00	 jmp	 ___CxxFrameHandler3
text$x	ENDS
??1ExPCRoomSoldierBonusBtn@@UAE@XZ ENDP			; ExPCRoomSoldierBonusBtn::~ExPCRoomSoldierBonusBtn
PUBLIC	?SetClassType@ExPCRoomSoldierBonusBtn@@QAEXH_NH@Z ; ExPCRoomSoldierBonusBtn::SetClassType
EXTRN	?GetPowerUpGradeType@ioUIImageRenderManager@@QAEHH@Z:PROC ; ioUIImageRenderManager::GetPowerUpGradeType
EXTRN	?GetSingleton@ioUIImageRenderManager@@SAAAV1@XZ:PROC ; ioUIImageRenderManager::GetSingleton
EXTRN	?GetMySoldierIcon@ioMyInfo@@QAEPAVioUIRenderImage@@H@Z:PROC ; ioMyInfo::GetMySoldierIcon
EXTRN	?GetSingleton@ioMyInfo@@SAAAV1@XZ:PROC		; ioMyInfo::GetSingleton
; Function compile flags: /Ogsp
;	COMDAT ?SetClassType@ExPCRoomSoldierBonusBtn@@QAEXH_NH@Z
_TEXT	SEGMENT
_iClassType$ = 8					; size = 4
_bCheck$ = 12						; size = 1
_iSelectNum$ = 16					; size = 4
?SetClassType@ExPCRoomSoldierBonusBtn@@QAEXH_NH@Z PROC	; ExPCRoomSoldierBonusBtn::SetClassType, COMDAT
; _this$ = ecx

; 147  : {

  00000	55		 push	 ebp
  00001	8b ec		 mov	 ebp, esp

; 148  : 	m_iClassType = iClassType;
; 149  : 	m_bChecked   = bCheck;

  00003	8a 45 0c	 mov	 al, BYTE PTR _bCheck$[ebp]
  00006	56		 push	 esi
  00007	8b f1		 mov	 esi, ecx

; 150  : 	m_iSelectNum = iSelectNum;
; 151  : 	m_nGradeType = 0;

  00009	83 a6 0c 02 00
	00 00		 and	 DWORD PTR [esi+524], 0
  00010	57		 push	 edi
  00011	8b 7d 08	 mov	 edi, DWORD PTR _iClassType$[ebp]
  00014	88 86 18 02 00
	00		 mov	 BYTE PTR [esi+536], al
  0001a	8b 45 10	 mov	 eax, DWORD PTR _iSelectNum$[ebp]
  0001d	89 be 10 02 00
	00		 mov	 DWORD PTR [esi+528], edi
  00023	89 86 14 02 00
	00		 mov	 DWORD PTR [esi+532], eax

; 152  : 
; 153  : 	if( m_iClassType != -1 )

  00029	83 ff ff	 cmp	 edi, -1
  0002c	74 47		 je	 SHORT $LN3@SetClassTy

; 154  : 	{
; 155  : 		SAFEDELETE( m_pCharIcon );

  0002e	8b 8e 00 02 00
	00		 mov	 ecx, DWORD PTR [esi+512]
  00034	85 c9		 test	 ecx, ecx
  00036	74 0e		 je	 SHORT $LN2@SetClassTy
  00038	8b 01		 mov	 eax, DWORD PTR [ecx]
  0003a	6a 01		 push	 1
  0003c	ff 50 40	 call	 DWORD PTR [eax+64]
  0003f	83 a6 00 02 00
	00 00		 and	 DWORD PTR [esi+512], 0
$LN2@SetClassTy:

; 156  : 		m_pCharIcon = g_MyInfo.GetMySoldierIcon( iClassType );

  00046	57		 push	 edi
  00047	e8 00 00 00 00	 call	 ?GetSingleton@ioMyInfo@@SAAAV1@XZ ; ioMyInfo::GetSingleton
  0004c	8b c8		 mov	 ecx, eax
  0004e	e8 00 00 00 00	 call	 ?GetMySoldierIcon@ioMyInfo@@QAEPAVioUIRenderImage@@H@Z ; ioMyInfo::GetMySoldierIcon

; 157  : 		m_nGradeType = g_UIImageRenderMgr.GetPowerUpGradeType( iClassType );

  00053	57		 push	 edi
  00054	89 86 00 02 00
	00		 mov	 DWORD PTR [esi+512], eax
  0005a	e8 00 00 00 00	 call	 ?GetSingleton@ioUIImageRenderManager@@SAAAV1@XZ ; ioUIImageRenderManager::GetSingleton
  0005f	8b c8		 mov	 ecx, eax
  00061	e8 00 00 00 00	 call	 ?GetPowerUpGradeType@ioUIImageRenderManager@@QAEHH@Z ; ioUIImageRenderManager::GetPowerUpGradeType
  00066	89 86 0c 02 00
	00		 mov	 DWORD PTR [esi+524], eax

; 158  : 		SetActive();

  0006c	8b 06		 mov	 eax, DWORD PTR [esi]
  0006e	8b ce		 mov	 ecx, esi
  00070	ff 50 20	 call	 DWORD PTR [eax+32]

; 159  : 	}
; 160  : 	else

  00073	eb 05		 jmp	 SHORT $LN1@SetClassTy
$LN3@SetClassTy:

; 161  : 	{
; 162  : 		SetInActive();

  00075	8b 06		 mov	 eax, DWORD PTR [esi]
  00077	ff 50 24	 call	 DWORD PTR [eax+36]
$LN1@SetClassTy:
  0007a	5f		 pop	 edi
  0007b	5e		 pop	 esi

; 163  : 	}
; 164  : }

  0007c	5d		 pop	 ebp
  0007d	c2 0c 00	 ret	 12			; 0000000cH
?SetClassType@ExPCRoomSoldierBonusBtn@@QAEXH_NH@Z ENDP	; ExPCRoomSoldierBonusBtn::SetClassType
_TEXT	ENDS
PUBLIC	__real@3ee66666
PUBLIC	??_C@_0CC@HCKLHEHA@ExPCRoomSoldierBonusBtn?3?3OnRende@ ; `string'
PUBLIC	??_C@_00CNPNBAHC@?$AA@				; `string'
PUBLIC	__real@3f19999a
EXTRN	__imp_?PrintText@ioFontManager@@QAEXMMMPBDH@Z:PROC
EXTRN	__imp_?GetString@ioStringManager@@QAEPADPBD0HW4FileNamePrefix@1@@Z:PROC
EXTRN	__imp_?GetSingleton@ioStringManager@@SAAAV1@XZ:PROC
EXTRN	__imp_?SetTextColor@ioFontManager@@QAEXK@Z:PROC
EXTRN	__imp_?SetAlignType@ioFontManager@@QAEXW4TextAlignType@@@Z:PROC
EXTRN	__imp_?SetTextStyle@ioFontManager@@QAEXW4TextStyle@@@Z:PROC
EXTRN	__imp_?SetBkColor@ioFontManager@@QAEXHHH@Z:PROC
EXTRN	__imp_?GetSingleton@ioFontManager@@SAAAV1@XZ:PROC
EXTRN	?RenderGradeIconBack@ioUIImageRenderManager@@QAEXHHHMW4UIRenderType@@W4TextureFilterOption@@HHH_N0@Z:PROC ; ioUIImageRenderManager::RenderGradeIconBack
EXTRN	__imp_?IsDisabled@ioButton@@QBE_NXZ:PROC
EXTRN	__imp_?OnDrawNormal@ioButton@@MAEXHH@Z:PROC
EXTRN	__imp_?GetDerivedPosY@ioWnd@@QBEHXZ:PROC
EXTRN	__imp_?GetDerivedPosX@ioWnd@@QBEHXZ:PROC
EXTRN	__fltused:DWORD
;	COMDAT __real@3ee66666
CONST	SEGMENT
__real@3ee66666 DD 03ee66666r			; 0.45
CONST	ENDS
;	COMDAT ??_C@_0CC@HCKLHEHA@ExPCRoomSoldierBonusBtn?3?3OnRende@
CONST	SEGMENT
??_C@_0CC@HCKLHEHA@ExPCRoomSoldierBonusBtn?3?3OnRende@ DB 'ExPCRoomSoldie'
	DB	'rBonusBtn::OnRender', 00H			; `string'
CONST	ENDS
;	COMDAT ??_C@_00CNPNBAHC@?$AA@
CONST	SEGMENT
??_C@_00CNPNBAHC@?$AA@ DB 00H				; `string'
CONST	ENDS
;	COMDAT __real@3f19999a
CONST	SEGMENT
__real@3f19999a DD 03f19999ar			; 0.6
; Function compile flags: /Ogsp
CONST	ENDS
;	COMDAT ?OnRender@ExPCRoomSoldierBonusBtn@@MAEXXZ
_TEXT	SEGMENT
_iXPos$ = -8						; size = 4
_iYPos$ = -4						; size = 4
?OnRender@ExPCRoomSoldierBonusBtn@@MAEXXZ PROC		; ExPCRoomSoldierBonusBtn::OnRender, COMDAT
; _this$ = ecx

; 167  : {

  00000	55		 push	 ebp
  00001	8b ec		 mov	 ebp, esp
  00003	51		 push	 ecx
  00004	51		 push	 ecx
  00005	56		 push	 esi
  00006	57		 push	 edi
  00007	8b f1		 mov	 esi, ecx

; 168  : 	int iXPos = GetDerivedPosX();

  00009	ff 15 00 00 00
	00		 call	 DWORD PTR __imp_?GetDerivedPosX@ioWnd@@QBEHXZ
  0000f	8b f8		 mov	 edi, eax

; 169  : 	int iYPos = GetDerivedPosY();

  00011	8b ce		 mov	 ecx, esi
  00013	89 7d f8	 mov	 DWORD PTR _iXPos$[ebp], edi
  00016	ff 15 00 00 00
	00		 call	 DWORD PTR __imp_?GetDerivedPosY@ioWnd@@QBEHXZ

; 170  : 
; 171  : 	ioButton::OnDrawNormal( iXPos, iYPos );

  0001c	50		 push	 eax
  0001d	57		 push	 edi
  0001e	8b ce		 mov	 ecx, esi
  00020	89 45 fc	 mov	 DWORD PTR _iYPos$[ebp], eax
  00023	ff 15 00 00 00
	00		 call	 DWORD PTR __imp_?OnDrawNormal@ioButton@@MAEXHH@Z

; 172  : 
; 173  : 	if( IsDisabled() ) 

  00029	8b ce		 mov	 ecx, esi
  0002b	ff 15 00 00 00
	00		 call	 DWORD PTR __imp_?IsDisabled@ioButton@@QBE_NXZ
  00031	84 c0		 test	 al, al
  00033	0f 85 0f 02 00
	00		 jne	 $LN1@OnRender

; 174  : 		return;
; 175  : 
; 176  : 	if( m_pIconBack )

  00039	53		 push	 ebx
  0003a	33 db		 xor	 ebx, ebx
  0003c	39 9e fc 01 00
	00		 cmp	 DWORD PTR [esi+508], ebx
  00042	74 4d		 je	 SHORT $LN8@OnRender

; 177  : 	{
; 178  : 		m_pIconBack->SetScale( 0.60f );

  00044	8b 8e fc 01 00
	00		 mov	 ecx, DWORD PTR [esi+508]
  0004a	f3 0f 10 05 00
	00 00 00	 movss	 xmm0, DWORD PTR __real@3f19999a
  00052	8b 01		 mov	 eax, DWORD PTR [ecx]
  00054	51		 push	 ecx
  00055	f3 0f 11 04 24	 movss	 DWORD PTR [esp], xmm0
  0005a	ff 50 1c	 call	 DWORD PTR [eax+28]

; 179  : 		m_pIconBack->Render( iXPos + 29, iYPos + 29, UI_RENDER_MULTIPLY, TFO_BILINEAR );

  0005d	8b 8e fc 01 00
	00		 mov	 ecx, DWORD PTR [esi+508]
  00063	8b 55 fc	 mov	 edx, DWORD PTR _iYPos$[ebp]
  00066	8b 01		 mov	 eax, DWORD PTR [ecx]
  00068	53		 push	 ebx
  00069	53		 push	 ebx
  0006a	6a 01		 push	 1
  0006c	6a 08		 push	 8
  0006e	83 c2 1d	 add	 edx, 29			; 0000001dH
  00071	0f 57 c0	 xorps	 xmm0, xmm0
  00074	f3 0f 2a c2	 cvtsi2ss xmm0, edx
  00078	51		 push	 ecx
  00079	51		 push	 ecx
  0007a	f3 0f 11 44 24
	04		 movss	 DWORD PTR [esp+4], xmm0
  00080	8d 57 1d	 lea	 edx, DWORD PTR [edi+29]
  00083	0f 57 c0	 xorps	 xmm0, xmm0
  00086	f3 0f 2a c2	 cvtsi2ss xmm0, edx
  0008a	f3 0f 11 04 24	 movss	 DWORD PTR [esp], xmm0
  0008f	ff 10		 call	 DWORD PTR [eax]
$LN8@OnRender:

; 180  : 	}
; 181  : 
; 182  : 	g_UIImageRenderMgr.RenderGradeIconBack( m_nGradeType, iXPos + 29, iYPos + 29, 0.60f );

  00091	8b 4d fc	 mov	 ecx, DWORD PTR _iYPos$[ebp]
  00094	f3 0f 10 05 00
	00 00 00	 movss	 xmm0, DWORD PTR __real@3f19999a
  0009c	53		 push	 ebx
  0009d	53		 push	 ebx
  0009e	b8 ff 00 00 00	 mov	 eax, 255		; 000000ffH
  000a3	50		 push	 eax
  000a4	50		 push	 eax
  000a5	50		 push	 eax
  000a6	53		 push	 ebx
  000a7	53		 push	 ebx
  000a8	83 c1 1d	 add	 ecx, 29			; 0000001dH
  000ab	51		 push	 ecx
  000ac	f3 0f 11 04 24	 movss	 DWORD PTR [esp], xmm0
  000b1	51		 push	 ecx
  000b2	8d 57 1d	 lea	 edx, DWORD PTR [edi+29]
  000b5	52		 push	 edx
  000b6	ff b6 0c 02 00
	00		 push	 DWORD PTR [esi+524]
  000bc	e8 00 00 00 00	 call	 ?GetSingleton@ioUIImageRenderManager@@SAAAV1@XZ ; ioUIImageRenderManager::GetSingleton
  000c1	8b c8		 mov	 ecx, eax
  000c3	e8 00 00 00 00	 call	 ?RenderGradeIconBack@ioUIImageRenderManager@@QAEXHHHMW4UIRenderType@@W4TextureFilterOption@@HHH_N0@Z ; ioUIImageRenderManager::RenderGradeIconBack

; 183  : 
; 184  : 	if( m_pCharIcon )

  000c8	39 9e 00 02 00
	00		 cmp	 DWORD PTR [esi+512], ebx
  000ce	74 51		 je	 SHORT $LN3@OnRender

; 185  : 	{
; 186  : 		m_pCharIcon->SetScale( 0.60f );

  000d0	8b 8e 00 02 00
	00		 mov	 ecx, DWORD PTR [esi+512]
  000d6	f3 0f 10 05 00
	00 00 00	 movss	 xmm0, DWORD PTR __real@3f19999a
  000de	8b 01		 mov	 eax, DWORD PTR [ecx]
  000e0	51		 push	 ecx
  000e1	f3 0f 11 04 24	 movss	 DWORD PTR [esp], xmm0
  000e6	ff 50 1c	 call	 DWORD PTR [eax+28]

; 187  : 		m_pCharIcon->Render( iXPos + 29, iYPos + 29, UI_RENDER_NORMAL, TFO_BILINEAR );

  000e9	8b 45 fc	 mov	 eax, DWORD PTR _iYPos$[ebp]
  000ec	8b be 00 02 00
	00		 mov	 edi, DWORD PTR [esi+512]
  000f2	8b 17		 mov	 edx, DWORD PTR [edi]
  000f4	53		 push	 ebx
  000f5	53		 push	 ebx
  000f6	6a 01		 push	 1
  000f8	53		 push	 ebx
  000f9	83 c0 1d	 add	 eax, 29			; 0000001dH
  000fc	0f 57 c0	 xorps	 xmm0, xmm0
  000ff	f3 0f 2a c0	 cvtsi2ss xmm0, eax
  00103	8b 45 f8	 mov	 eax, DWORD PTR _iXPos$[ebp]
  00106	51		 push	 ecx
  00107	51		 push	 ecx
  00108	f3 0f 11 44 24
	04		 movss	 DWORD PTR [esp+4], xmm0
  0010e	83 c0 1d	 add	 eax, 29			; 0000001dH
  00111	0f 57 c0	 xorps	 xmm0, xmm0
  00114	f3 0f 2a c0	 cvtsi2ss xmm0, eax
  00118	8b cf		 mov	 ecx, edi
  0011a	f3 0f 11 04 24	 movss	 DWORD PTR [esp], xmm0
  0011f	ff 12		 call	 DWORD PTR [edx]
$LN3@OnRender:

; 188  : 	}
; 189  : 
; 190  : 	if( m_bChecked && m_pCheckedFrm )

  00121	38 9e 18 02 00
	00		 cmp	 BYTE PTR [esi+536], bl
  00127	0f 84 1a 01 00
	00		 je	 $LN9@OnRender
  0012d	39 9e 08 02 00
	00		 cmp	 DWORD PTR [esi+520], ebx
  00133	0f 84 0e 01 00
	00		 je	 $LN9@OnRender

; 191  : 	{
; 192  : 		m_pCheckedFrm->Render( iXPos, iYPos );

  00139	8b 8e 08 02 00
	00		 mov	 ecx, DWORD PTR [esi+520]
  0013f	66 0f 6e 45 fc	 movd	 xmm0, DWORD PTR _iYPos$[ebp]
  00144	8b 7d f8	 mov	 edi, DWORD PTR _iXPos$[ebp]
  00147	8b 01		 mov	 eax, DWORD PTR [ecx]
  00149	53		 push	 ebx
  0014a	53		 push	 ebx
  0014b	53		 push	 ebx
  0014c	53		 push	 ebx
  0014d	51		 push	 ecx
  0014e	0f 5b c0	 cvtdq2ps xmm0, xmm0
  00151	51		 push	 ecx
  00152	f3 0f 11 44 24
	04		 movss	 DWORD PTR [esp+4], xmm0
  00158	0f 57 c0	 xorps	 xmm0, xmm0
  0015b	f3 0f 2a c7	 cvtsi2ss xmm0, edi
  0015f	f3 0f 11 04 24	 movss	 DWORD PTR [esp], xmm0
  00164	ff 10		 call	 DWORD PTR [eax]

; 193  : 
; 194  : 		if( m_pNumBack )

  00166	39 9e 04 02 00
	00		 cmp	 DWORD PTR [esi+516], ebx
  0016c	0f 84 d5 00 00
	00		 je	 $LN9@OnRender

; 195  : 		{
; 196  : 			m_pNumBack->Render( iXPos + 4, iYPos + 4 );

  00172	8b 4d fc	 mov	 ecx, DWORD PTR _iYPos$[ebp]
  00175	8b 86 04 02 00
	00		 mov	 eax, DWORD PTR [esi+516]
  0017b	8b 10		 mov	 edx, DWORD PTR [eax]
  0017d	53		 push	 ebx
  0017e	53		 push	 ebx
  0017f	53		 push	 ebx
  00180	83 c1 04	 add	 ecx, 4
  00183	53		 push	 ebx
  00184	51		 push	 ecx
  00185	0f 57 c0	 xorps	 xmm0, xmm0
  00188	f3 0f 2a c1	 cvtsi2ss xmm0, ecx
  0018c	51		 push	 ecx
  0018d	f3 0f 11 44 24
	04		 movss	 DWORD PTR [esp+4], xmm0
  00193	83 c7 04	 add	 edi, 4
  00196	0f 57 c0	 xorps	 xmm0, xmm0
  00199	f3 0f 2a c7	 cvtsi2ss xmm0, edi
  0019d	8b c8		 mov	 ecx, eax
  0019f	f3 0f 11 04 24	 movss	 DWORD PTR [esp], xmm0
  001a4	ff 12		 call	 DWORD PTR [edx]

; 197  : 
; 198  : 			g_FontMgr.SetBkColor( 170, 55, 77 );

  001a6	8b 3d 00 00 00
	00		 mov	 edi, DWORD PTR __imp_?GetSingleton@ioFontManager@@SAAAV1@XZ
  001ac	6a 4d		 push	 77			; 0000004dH
  001ae	6a 37		 push	 55			; 00000037H
  001b0	68 aa 00 00 00	 push	 170			; 000000aaH
  001b5	ff d7		 call	 edi
  001b7	8b c8		 mov	 ecx, eax
  001b9	ff 15 00 00 00
	00		 call	 DWORD PTR __imp_?SetBkColor@ioFontManager@@QAEXHHH@Z

; 199  : 			g_FontMgr.SetTextStyle( TS_OUTLINE_FULL_2X );

  001bf	6a 05		 push	 5
  001c1	ff d7		 call	 edi
  001c3	8b c8		 mov	 ecx, eax
  001c5	ff 15 00 00 00
	00		 call	 DWORD PTR __imp_?SetTextStyle@ioFontManager@@QAEXW4TextStyle@@@Z

; 200  : 			g_FontMgr.SetAlignType( TAT_CENTER );

  001cb	6a 01		 push	 1
  001cd	ff d7		 call	 edi
  001cf	8b c8		 mov	 ecx, eax
  001d1	ff 15 00 00 00
	00		 call	 DWORD PTR __imp_?SetAlignType@ioFontManager@@QAEXW4TextAlignType@@@Z

; 201  : 			g_FontMgr.SetTextColor( TCT_DEFAULT_WHITE );

  001d7	6a ff		 push	 -1
  001d9	ff d7		 call	 edi
  001db	8b c8		 mov	 ecx, eax
  001dd	ff 15 00 00 00
	00		 call	 DWORD PTR __imp_?SetTextColor@ioFontManager@@QAEXK@Z

; 202  : 			g_FontMgr.PrintText( iXPos + 12, iYPos + 5, FONT_SIZE_9, STR(1), m_iSelectNum+1 );

  001e3	8b 86 14 02 00
	00		 mov	 eax, DWORD PTR [esi+532]
  001e9	40		 inc	 eax
  001ea	50		 push	 eax
  001eb	53		 push	 ebx
  001ec	6a 01		 push	 1
  001ee	68 00 00 00 00	 push	 OFFSET ??_C@_00CNPNBAHC@?$AA@
  001f3	68 00 00 00 00	 push	 OFFSET ??_C@_0CC@HCKLHEHA@ExPCRoomSoldierBonusBtn?3?3OnRende@
  001f8	ff 15 00 00 00
	00		 call	 DWORD PTR __imp_?GetSingleton@ioStringManager@@SAAAV1@XZ
  001fe	8b c8		 mov	 ecx, eax
  00200	ff 15 00 00 00
	00		 call	 DWORD PTR __imp_?GetString@ioStringManager@@QAEPADPBD0HW4FileNamePrefix@1@@Z
  00206	f3 0f 10 05 00
	00 00 00	 movss	 xmm0, DWORD PTR __real@3ee66666
  0020e	50		 push	 eax
  0020f	8b 45 fc	 mov	 eax, DWORD PTR _iYPos$[ebp]
  00212	83 ec 0c	 sub	 esp, 12			; 0000000cH
  00215	f3 0f 11 44 24
	08		 movss	 DWORD PTR [esp+8], xmm0
  0021b	83 c0 05	 add	 eax, 5
  0021e	0f 57 c0	 xorps	 xmm0, xmm0
  00221	f3 0f 2a c0	 cvtsi2ss xmm0, eax
  00225	8b 45 f8	 mov	 eax, DWORD PTR _iXPos$[ebp]
  00228	f3 0f 11 44 24
	04		 movss	 DWORD PTR [esp+4], xmm0
  0022e	83 c0 0c	 add	 eax, 12			; 0000000cH
  00231	0f 57 c0	 xorps	 xmm0, xmm0
  00234	f3 0f 2a c0	 cvtsi2ss xmm0, eax
  00238	f3 0f 11 04 24	 movss	 DWORD PTR [esp], xmm0
  0023d	ff d7		 call	 edi
  0023f	8b c8		 mov	 ecx, eax
  00241	ff 15 00 00 00
	00		 call	 DWORD PTR __imp_?PrintText@ioFontManager@@QAEXMMMPBDH@Z
$LN9@OnRender:
  00247	5b		 pop	 ebx
$LN1@OnRender:
  00248	5f		 pop	 edi
  00249	5e		 pop	 esi

; 203  : 		}
; 204  : 	}
; 205  : }

  0024a	c9		 leave
  0024b	c3		 ret	 0
?OnRender@ExPCRoomSoldierBonusBtn@@MAEXXZ ENDP		; ExPCRoomSoldierBonusBtn::OnRender
_TEXT	ENDS
PUBLIC	?_Adopt@_Iterator_base0@std@@QAEXPBX@Z		; std::_Iterator_base0::_Adopt
; Function compile flags: /Ogsp
; File c:\program files (x86)\microsoft visual studio 10.0\vc\include\xutility
;	COMDAT ?_Adopt@_Iterator_base0@std@@QAEXPBX@Z
_TEXT	SEGMENT
___formal$ = 8						; size = 4
?_Adopt@_Iterator_base0@std@@QAEXPBX@Z PROC		; std::_Iterator_base0::_Adopt, COMDAT
; _this$ = ecx

; 49   : 		}

  00000	c2 04 00	 ret	 4
?_Adopt@_Iterator_base0@std@@QAEXPBX@Z ENDP		; std::_Iterator_base0::_Adopt
_TEXT	ENDS
PUBLIC	?iwm_create@ExPCRoomSoldierBonusWnd@@UAEXXZ	; ExPCRoomSoldierBonusWnd::iwm_create
; Function compile flags: /Ogsp
; File d:\lost saga for developer\youtube\tutorial\source\src\lsclient\gui\expcroomwnd.cpp
;	COMDAT ?iwm_create@ExPCRoomSoldierBonusWnd@@UAEXXZ
_TEXT	SEGMENT
?iwm_create@ExPCRoomSoldierBonusWnd@@UAEXXZ PROC	; ExPCRoomSoldierBonusWnd::iwm_create, COMDAT
; _this$ = ecx

; 278  : }

  00000	c3		 ret	 0
?iwm_create@ExPCRoomSoldierBonusWnd@@UAEXXZ ENDP	; ExPCRoomSoldierBonusWnd::iwm_create
_TEXT	ENDS
PUBLIC	?IsTimeExpireChar@ExPCRoomSoldierBonusWnd@@IAE_NH@Z ; ExPCRoomSoldierBonusWnd::IsTimeExpireChar
EXTRN	?GetCharacter@ioMyInfo@@QAEABUCHARACTER@@K@Z:PROC ; ioMyInfo::GetCharacter
EXTRN	?GetCharArray@ioMyInfo@@QAEHK@Z:PROC		; ioMyInfo::GetCharArray
EXTRN	?GetCharIndexByClassType@ioMyInfo@@QAEKH@Z:PROC	; ioMyInfo::GetCharIndexByClassType
; Function compile flags: /Ogsp
;	COMDAT ?IsTimeExpireChar@ExPCRoomSoldierBonusWnd@@IAE_NH@Z
_TEXT	SEGMENT
_iClassType$ = 8					; size = 4
?IsTimeExpireChar@ExPCRoomSoldierBonusWnd@@IAE_NH@Z PROC ; ExPCRoomSoldierBonusWnd::IsTimeExpireChar, COMDAT
; _this$ = ecx

; 368  : {

  00000	55		 push	 ebp
  00001	8b ec		 mov	 ebp, esp

; 369  : 	const CHARACTER& rkChar = g_MyInfo.GetCharacter( g_MyInfo.GetCharArray( g_MyInfo.GetCharIndexByClassType( iClassType ) ) );

  00003	ff 75 08	 push	 DWORD PTR _iClassType$[ebp]
  00006	e8 00 00 00 00	 call	 ?GetSingleton@ioMyInfo@@SAAAV1@XZ ; ioMyInfo::GetSingleton
  0000b	8b c8		 mov	 ecx, eax
  0000d	e8 00 00 00 00	 call	 ?GetCharIndexByClassType@ioMyInfo@@QAEKH@Z ; ioMyInfo::GetCharIndexByClassType
  00012	50		 push	 eax
  00013	e8 00 00 00 00	 call	 ?GetSingleton@ioMyInfo@@SAAAV1@XZ ; ioMyInfo::GetSingleton
  00018	8b c8		 mov	 ecx, eax
  0001a	e8 00 00 00 00	 call	 ?GetCharArray@ioMyInfo@@QAEHK@Z ; ioMyInfo::GetCharArray
  0001f	50		 push	 eax
  00020	e8 00 00 00 00	 call	 ?GetSingleton@ioMyInfo@@SAAAV1@XZ ; ioMyInfo::GetSingleton
  00025	8b c8		 mov	 ecx, eax
  00027	e8 00 00 00 00	 call	 ?GetCharacter@ioMyInfo@@QAEABUCHARACTER@@K@Z ; ioMyInfo::GetCharacter

; 370  : 	if( rkChar.m_bActive )

  0002c	80 b8 b4 02 00
	00 00		 cmp	 BYTE PTR [eax+692], 0
  00033	74 04		 je	 SHORT $LN3@IsTimeExpi
$LN6@IsTimeExpi:

; 371  : 		return false;

  00035	32 c0		 xor	 al, al
  00037	eb 15		 jmp	 SHORT $LN1@IsTimeExpi
$LN3@IsTimeExpi:

; 372  : 
; 373  : 	if( rkChar.m_ePeriodType == CPT_MORTMAIN )

  00039	83 b8 b0 02 00
	00 01		 cmp	 DWORD PTR [eax+688], 1

; 374  : 		return false;

  00040	74 f3		 je	 SHORT $LN6@IsTimeExpi

; 375  : 
; 376  : 	if( 0 < rkChar.m_dwRentalMinute )

  00042	33 c9		 xor	 ecx, ecx
  00044	3b 88 ac 02 00
	00		 cmp	 ecx, DWORD PTR [eax+684]
  0004a	1a c0		 sbb	 al, al
  0004c	fe c0		 inc	 al
$LN1@IsTimeExpi:

; 377  : 		return false;
; 378  : 
; 379  : 	return true;
; 380  : }

  0004e	5d		 pop	 ebp
  0004f	c2 04 00	 ret	 4
?IsTimeExpireChar@ExPCRoomSoldierBonusWnd@@IAE_NH@Z ENDP ; ExPCRoomSoldierBonusWnd::IsTimeExpireChar
_TEXT	ENDS
PUBLIC	?SetPlayStage@ExPCRoomSoldierBonusWnd@@QAEXPAVioPlayStage@@@Z ; ExPCRoomSoldierBonusWnd::SetPlayStage
; Function compile flags: /Ogsp
;	COMDAT ?SetPlayStage@ExPCRoomSoldierBonusWnd@@QAEXPAVioPlayStage@@@Z
_TEXT	SEGMENT
_pPlayStage$ = 8					; size = 4
?SetPlayStage@ExPCRoomSoldierBonusWnd@@QAEXPAVioPlayStage@@@Z PROC ; ExPCRoomSoldierBonusWnd::SetPlayStage, COMDAT
; _this$ = ecx

; 383  : {

  00000	55		 push	 ebp
  00001	8b ec		 mov	 ebp, esp

; 384  : 	m_pPlayStage = pPlayStage;

  00003	8b 45 08	 mov	 eax, DWORD PTR _pPlayStage$[ebp]
  00006	89 81 9c 01 00
	00		 mov	 DWORD PTR [ecx+412], eax

; 385  : }

  0000c	5d		 pop	 ebp
  0000d	c2 04 00	 ret	 4
?SetPlayStage@ExPCRoomSoldierBonusWnd@@QAEXPAVioPlayStage@@@Z ENDP ; ExPCRoomSoldierBonusWnd::SetPlayStage
_TEXT	ENDS
PUBLIC	?SetFirstAutoSelect@ExPCRoomSoldierBonusWnd@@QAEXXZ ; ExPCRoomSoldierBonusWnd::SetFirstAutoSelect
; Function compile flags: /Ogsp
;	COMDAT ?SetFirstAutoSelect@ExPCRoomSoldierBonusWnd@@QAEXXZ
_TEXT	SEGMENT
?SetFirstAutoSelect@ExPCRoomSoldierBonusWnd@@QAEXXZ PROC ; ExPCRoomSoldierBonusWnd::SetFirstAutoSelect, COMDAT
; _this$ = ecx

; 389  : 	m_bFirstAutoSelect = true;

  00000	c6 81 98 01 00
	00 01		 mov	 BYTE PTR [ecx+408], 1

; 390  : }

  00007	c3		 ret	 0
?SetFirstAutoSelect@ExPCRoomSoldierBonusWnd@@QAEXXZ ENDP ; ExPCRoomSoldierBonusWnd::SetFirstAutoSelect
_TEXT	ENDS
PUBLIC	?iwm_spacebar@ExPCRoomSoldierBonusWnd@@UAE_NXZ	; ExPCRoomSoldierBonusWnd::iwm_spacebar
; Function compile flags: /Ogsp
;	COMDAT ?iwm_spacebar@ExPCRoomSoldierBonusWnd@@UAE_NXZ
_TEXT	SEGMENT
?iwm_spacebar@ExPCRoomSoldierBonusWnd@@UAE_NXZ PROC	; ExPCRoomSoldierBonusWnd::iwm_spacebar, COMDAT
; _this$ = ecx

; 648  : {

  00000	56		 push	 esi
  00001	57		 push	 edi

; 649  : 	iwm_command( FindChildWnd( ID_OK ), IOBN_BTNUP, 0 );

  00002	6a 00		 push	 0
  00004	6a 11		 push	 17			; 00000011H
  00006	8b f1		 mov	 esi, ecx
  00008	8b 3e		 mov	 edi, DWORD PTR [esi]
  0000a	6a 03		 push	 3
  0000c	ff 15 00 00 00
	00		 call	 DWORD PTR __imp_?FindChildWnd@ioWnd@@QAEPAV1@K@Z
  00012	50		 push	 eax
  00013	8b ce		 mov	 ecx, esi
  00015	ff 97 8c 00 00
	00		 call	 DWORD PTR [edi+140]
  0001b	5f		 pop	 edi

; 650  : 	return true;

  0001c	b0 01		 mov	 al, 1
  0001e	5e		 pop	 esi

; 651  : }

  0001f	c3		 ret	 0
?iwm_spacebar@ExPCRoomSoldierBonusWnd@@UAE_NXZ ENDP	; ExPCRoomSoldierBonusWnd::iwm_spacebar
_TEXT	ENDS
PUBLIC	?OnProcess@ExPCRoomSoldierBonusWnd@@MAEXM@Z	; ExPCRoomSoldierBonusWnd::OnProcess
; Function compile flags: /Ogsp
;	COMDAT ?OnProcess@ExPCRoomSoldierBonusWnd@@MAEXM@Z
_TEXT	SEGMENT
_fTimePerSec$ = 8					; size = 4
?OnProcess@ExPCRoomSoldierBonusWnd@@MAEXM@Z PROC	; ExPCRoomSoldierBonusWnd::OnProcess, COMDAT
; _this$ = ecx

; 823  : 	if( !IsShow() ) 

  00000	ff 15 00 00 00
	00		 call	 DWORD PTR __imp_?IsShow@ioWnd@@QBE_NXZ

; 824  : 		return;
; 825  : }

  00006	c2 04 00	 ret	 4
?OnProcess@ExPCRoomSoldierBonusWnd@@MAEXM@Z ENDP	; ExPCRoomSoldierBonusWnd::OnProcess
_TEXT	ENDS
PUBLIC	?OnRender@ExPCRoomSoldierBonusWnd@@MAEXXZ	; ExPCRoomSoldierBonusWnd::OnRender
; Function compile flags: /Ogsp
;	COMDAT ?OnRender@ExPCRoomSoldierBonusWnd@@MAEXXZ
_TEXT	SEGMENT
?OnRender@ExPCRoomSoldierBonusWnd@@MAEXXZ PROC		; ExPCRoomSoldierBonusWnd::OnRender, COMDAT
; _this$ = ecx

; 828  : {

  00000	56		 push	 esi
  00001	8b f1		 mov	 esi, ecx

; 829  : 	ioWnd::OnRender();

  00003	ff 15 00 00 00
	00		 call	 DWORD PTR __imp_?OnRender@ioWnd@@MAEXXZ

; 830  : 
; 831  : 	int iXPos = GetDerivedPosX();

  00009	8b ce		 mov	 ecx, esi
  0000b	ff 15 00 00 00
	00		 call	 DWORD PTR __imp_?GetDerivedPosX@ioWnd@@QBEHXZ

; 832  : 	int iYPos = GetDerivedPosY();

  00011	8b ce		 mov	 ecx, esi
  00013	5e		 pop	 esi
  00014	ff 25 00 00 00
	00		 jmp	 DWORD PTR __imp_?GetDerivedPosY@ioWnd@@QBEHXZ
?OnRender@ExPCRoomSoldierBonusWnd@@MAEXXZ ENDP		; ExPCRoomSoldierBonusWnd::OnRender
_TEXT	ENDS
PUBLIC	__real@4f800000
PUBLIC	??_C@_0CE@FCMGKOOH@config?1sp2_stage_charselect_map?4@ ; `string'
PUBLIC	??_C@_0L@DJAJAPGF@battle_cam?$AA@		; `string'
PUBLIC	?iwm_create@SelectCharViewWnd@@UAEXXZ		; SelectCharViewWnd::iwm_create
EXTRN	?Initialize@ioUI3DRender@@QAEXPBD0@Z:PROC	; ioUI3DRender::Initialize
EXTRN	??0ioUI3DRender@@QAE@XZ:PROC			; ioUI3DRender::ioUI3DRender
EXTRN	??2@YAPAXI@Z:PROC				; operator new
;	COMDAT __real@4f800000
; File d:\lost saga for developer\youtube\tutorial\source\src\lsclient\stdafx.h
CONST	SEGMENT
__real@4f800000 DD 04f800000r			; 4.29497e+009
CONST	ENDS
;	COMDAT ??_C@_0CE@FCMGKOOH@config?1sp2_stage_charselect_map?4@
CONST	SEGMENT
??_C@_0CE@FCMGKOOH@config?1sp2_stage_charselect_map?4@ DB 'config/sp2_sta'
	DB	'ge_charselect_map.ini', 00H			; `string'
CONST	ENDS
;	COMDAT ??_C@_0L@DJAJAPGF@battle_cam?$AA@
CONST	SEGMENT
??_C@_0L@DJAJAPGF@battle_cam?$AA@ DB 'battle_cam', 00H	; `string'
CONST	ENDS
;	COMDAT xdata$x
xdata$x	SEGMENT
__unwindtable$?iwm_create@SelectCharViewWnd@@UAEXXZ DD 0ffffffffH
	DD	FLAT:__unwindfunclet$?iwm_create@SelectCharViewWnd@@UAEXXZ$0
__ehfuncinfo$?iwm_create@SelectCharViewWnd@@UAEXXZ DD 019930522H
	DD	01H
	DD	FLAT:__unwindtable$?iwm_create@SelectCharViewWnd@@UAEXXZ
	DD	2 DUP(00H)
	DD	2 DUP(00H)
	DD	00H
	DD	01H
; Function compile flags: /Ogsp
; File d:\lost saga for developer\youtube\tutorial\source\src\lsclient\gui\expcroomwnd.cpp
xdata$x	ENDS
;	COMDAT ?iwm_create@SelectCharViewWnd@@UAEXXZ
_TEXT	SEGMENT
tv185 = -16						; size = 4
$T536311 = -16						; size = 4
__$EHRec$ = -12						; size = 12
?iwm_create@SelectCharViewWnd@@UAEXXZ PROC		; SelectCharViewWnd::iwm_create, COMDAT
; _this$ = ecx

; 975  : {

  00000	6a 04		 push	 4
  00002	b8 00 00 00 00	 mov	 eax, __ehhandler$?iwm_create@SelectCharViewWnd@@UAEXXZ
  00007	e8 00 00 00 00	 call	 __EH_prolog3
  0000c	8b f1		 mov	 esi, ecx

; 976  : 	SAFEDELETE( m_pUI3DRender );

  0000e	8b 8e 60 01 00
	00		 mov	 ecx, DWORD PTR [esi+352]
  00014	85 c9		 test	 ecx, ecx
  00016	74 0d		 je	 SHORT $LN1@iwm_create
  00018	8b 01		 mov	 eax, DWORD PTR [ecx]
  0001a	6a 01		 push	 1
  0001c	ff 10		 call	 DWORD PTR [eax]
  0001e	83 a6 60 01 00
	00 00		 and	 DWORD PTR [esi+352], 0
$LN1@iwm_create:

; 977  : 
; 978  : 	m_pUI3DRender = new ioUI3DRender;

  00025	6a 48		 push	 72			; 00000048H
  00027	e8 00 00 00 00	 call	 ??2@YAPAXI@Z		; operator new
  0002c	59		 pop	 ecx
  0002d	8b c8		 mov	 ecx, eax
  0002f	89 4d f0	 mov	 DWORD PTR $T536311[ebp], ecx
  00032	83 65 fc 00	 and	 DWORD PTR __$EHRec$[ebp+8], 0
  00036	85 c9		 test	 ecx, ecx
  00038	74 07		 je	 SHORT $LN6@iwm_create
  0003a	e8 00 00 00 00	 call	 ??0ioUI3DRender@@QAE@XZ	; ioUI3DRender::ioUI3DRender
  0003f	eb 02		 jmp	 SHORT $LN7@iwm_create
$LN6@iwm_create:
  00041	33 c0		 xor	 eax, eax
$LN7@iwm_create:
  00043	83 4d fc ff	 or	 DWORD PTR __$EHRec$[ebp+8], -1

; 979  : 	m_pUI3DRender->Initialize( "config/sp2_stage_charselect_map.ini", "battle_cam" );

  00047	68 00 00 00 00	 push	 OFFSET ??_C@_0L@DJAJAPGF@battle_cam?$AA@
  0004c	68 00 00 00 00	 push	 OFFSET ??_C@_0CE@FCMGKOOH@config?1sp2_stage_charselect_map?4@
  00051	8b c8		 mov	 ecx, eax
  00053	89 86 60 01 00
	00		 mov	 DWORD PTR [esi+352], eax
  00059	e8 00 00 00 00	 call	 ?Initialize@ioUI3DRender@@QAEXPBD0@Z ; ioUI3DRender::Initialize

; 980  : 
; 981  : 	m_fZPosition = FLOAT500;

  0005e	b8 f4 01 00 00	 mov	 eax, 500		; 000001f4H
  00063	89 45 f0	 mov	 DWORD PTR tv185[ebp], eax
  00066	db 45 f0	 fild	 DWORD PTR tv185[ebp]
  00069	85 c0		 test	 eax, eax
  0006b	79 06		 jns	 SHORT $LN12@iwm_create
  0006d	d8 05 00 00 00
	00		 fadd	 DWORD PTR __real@4f800000
$LN12@iwm_create:

; 982  : 	m_fRotateYaw = 0.0f;

  00073	0f 57 c0	 xorps	 xmm0, xmm0
  00076	d9 9e 98 04 00
	00		 fstp	 DWORD PTR [esi+1176]
  0007c	f3 0f 11 86 94
	04 00 00	 movss	 DWORD PTR [esi+1172], xmm0

; 983  : }

  00084	e8 00 00 00 00	 call	 __EH_epilog3
  00089	c3		 ret	 0
_TEXT	ENDS
;	COMDAT text$x
text$x	SEGMENT
__unwindfunclet$?iwm_create@SelectCharViewWnd@@UAEXXZ$0:
  00000	ff 75 f0	 push	 DWORD PTR $T536311[ebp]
  00003	e8 00 00 00 00	 call	 ??3@YAXPAX@Z		; operator delete
  00008	59		 pop	 ecx
  00009	c3		 ret	 0
__ehhandler$?iwm_create@SelectCharViewWnd@@UAEXXZ:
  0000a	8b 54 24 08	 mov	 edx, DWORD PTR [esp+8]
  0000e	8d 42 0c	 lea	 eax, DWORD PTR [edx+12]
  00011	8b 4a ec	 mov	 ecx, DWORD PTR [edx-20]
  00014	33 c8		 xor	 ecx, eax
  00016	e8 00 00 00 00	 call	 @__security_check_cookie@4
  0001b	b8 00 00 00 00	 mov	 eax, OFFSET __ehfuncinfo$?iwm_create@SelectCharViewWnd@@UAEXXZ
  00020	e9 00 00 00 00	 jmp	 ___CxxFrameHandler3
text$x	ENDS
?iwm_create@SelectCharViewWnd@@UAEXXZ ENDP		; SelectCharViewWnd::iwm_create
PUBLIC	?iwm_show@SelectCharViewWnd@@UAEXXZ		; SelectCharViewWnd::iwm_show
; Function compile flags: /Ogsp
;	COMDAT ?iwm_show@SelectCharViewWnd@@UAEXXZ
_TEXT	SEGMENT
?iwm_show@SelectCharViewWnd@@UAEXXZ PROC		; SelectCharViewWnd::iwm_show, COMDAT
; _this$ = ecx

; 987  : }

  00000	c3		 ret	 0
?iwm_show@SelectCharViewWnd@@UAEXXZ ENDP		; SelectCharViewWnd::iwm_show
_TEXT	ENDS
PUBLIC	?iwm_hide@SelectCharViewWnd@@UAEXXZ		; SelectCharViewWnd::iwm_hide
; Function compile flags: /Ogsp
;	COMDAT ?iwm_hide@SelectCharViewWnd@@UAEXXZ
_TEXT	SEGMENT
?iwm_hide@SelectCharViewWnd@@UAEXXZ PROC		; SelectCharViewWnd::iwm_hide, COMDAT
; _this$ = ecx

; 990  : {

  00000	56		 push	 esi

; 991  : 	SAFEDELETE( m_aMyChar );

  00001	8d b1 64 01 00
	00		 lea	 esi, DWORD PTR [ecx+356]
  00007	8b 0e		 mov	 ecx, DWORD PTR [esi]
  00009	85 c9		 test	 ecx, ecx
  0000b	74 0a		 je	 SHORT $LN1@iwm_hide
  0000d	8b 01		 mov	 eax, DWORD PTR [ecx]
  0000f	6a 01		 push	 1
  00011	ff 50 04	 call	 DWORD PTR [eax+4]
  00014	83 26 00	 and	 DWORD PTR [esi], 0
$LN1@iwm_hide:
  00017	5e		 pop	 esi

; 992  : }

  00018	c3		 ret	 0
?iwm_hide@SelectCharViewWnd@@UAEXXZ ENDP		; SelectCharViewWnd::iwm_hide
_TEXT	ENDS
PUBLIC	?SetCharLoopAnimation@SelectCharViewWnd@@IAEXABVioHashString@@M@Z ; SelectCharViewWnd::SetCharLoopAnimation
EXTRN	?SetLoopAni@ioCreateChar@@QAEXABVioHashString@@M@Z:PROC ; ioCreateChar::SetLoopAni
EXTRN	__imp_?IsEmpty@ioHashString@@QBE_NXZ:PROC
; Function compile flags: /Ogsp
;	COMDAT ?SetCharLoopAnimation@SelectCharViewWnd@@IAEXABVioHashString@@M@Z
_TEXT	SEGMENT
_szAniName$ = 8						; size = 4
_fFadeIn$ = 12						; size = 4
?SetCharLoopAnimation@SelectCharViewWnd@@IAEXABVioHashString@@M@Z PROC ; SelectCharViewWnd::SetCharLoopAnimation, COMDAT
; _this$ = ecx

; 1069 : {

  00000	55		 push	 ebp
  00001	8b ec		 mov	 ebp, esp
  00003	56		 push	 esi
  00004	8b f1		 mov	 esi, ecx

; 1070 : 	if( !m_aMyChar )

  00006	83 be 64 01 00
	00 00		 cmp	 DWORD PTR [esi+356], 0
  0000d	74 26		 je	 SHORT $LN3@SetCharLoo

; 1071 : 		return;
; 1072 : 
; 1073 : 	if( szAniName.IsEmpty() )

  0000f	8b 4d 08	 mov	 ecx, DWORD PTR _szAniName$[ebp]
  00012	ff 15 00 00 00
	00		 call	 DWORD PTR __imp_?IsEmpty@ioHashString@@QBE_NXZ
  00018	84 c0		 test	 al, al
  0001a	75 19		 jne	 SHORT $LN3@SetCharLoo

; 1074 : 		return;
; 1075 : 
; 1076 : 	m_aMyChar->SetLoopAni( szAniName, fFadeIn );

  0001c	f3 0f 10 45 0c	 movss	 xmm0, DWORD PTR _fFadeIn$[ebp]
  00021	51		 push	 ecx
  00022	8b 8e 64 01 00
	00		 mov	 ecx, DWORD PTR [esi+356]
  00028	f3 0f 11 04 24	 movss	 DWORD PTR [esp], xmm0
  0002d	ff 75 08	 push	 DWORD PTR _szAniName$[ebp]
  00030	e8 00 00 00 00	 call	 ?SetLoopAni@ioCreateChar@@QAEXABVioHashString@@M@Z ; ioCreateChar::SetLoopAni
$LN3@SetCharLoo:
  00035	5e		 pop	 esi

; 1077 : }

  00036	5d		 pop	 ebp
  00037	c2 08 00	 ret	 8
?SetCharLoopAnimation@SelectCharViewWnd@@IAEXABVioHashString@@M@Z ENDP ; SelectCharViewWnd::SetCharLoopAnimation
_TEXT	ENDS
PUBLIC	?SetCharActionAnimation@SelectCharViewWnd@@IAEXABVioHashString@@MM@Z ; SelectCharViewWnd::SetCharActionAnimation
EXTRN	?SetActionAni@ioCreateChar@@QAEXABVioHashString@@MM@Z:PROC ; ioCreateChar::SetActionAni
; Function compile flags: /Ogsp
;	COMDAT ?SetCharActionAnimation@SelectCharViewWnd@@IAEXABVioHashString@@MM@Z
_TEXT	SEGMENT
_szAniName$ = 8						; size = 4
_fFadeIn$ = 12						; size = 4
_fFadeOut$ = 16						; size = 4
?SetCharActionAnimation@SelectCharViewWnd@@IAEXABVioHashString@@MM@Z PROC ; SelectCharViewWnd::SetCharActionAnimation, COMDAT
; _this$ = ecx

; 1080 : {

  00000	55		 push	 ebp
  00001	8b ec		 mov	 ebp, esp
  00003	56		 push	 esi
  00004	8b f1		 mov	 esi, ecx

; 1081 : 	if( !m_aMyChar )

  00006	83 be 64 01 00
	00 00		 cmp	 DWORD PTR [esi+356], 0
  0000d	74 32		 je	 SHORT $LN3@SetCharAct

; 1082 : 		return;
; 1083 : 
; 1084 : 	if( szAniName.IsEmpty() )

  0000f	8b 4d 08	 mov	 ecx, DWORD PTR _szAniName$[ebp]
  00012	ff 15 00 00 00
	00		 call	 DWORD PTR __imp_?IsEmpty@ioHashString@@QBE_NXZ
  00018	84 c0		 test	 al, al
  0001a	75 25		 jne	 SHORT $LN3@SetCharAct

; 1085 : 		return;
; 1086 : 
; 1087 : 	m_aMyChar->SetActionAni( szAniName, fFadeIn, fFadeOut );

  0001c	f3 0f 10 45 10	 movss	 xmm0, DWORD PTR _fFadeOut$[ebp]
  00021	51		 push	 ecx
  00022	51		 push	 ecx
  00023	8b 8e 64 01 00
	00		 mov	 ecx, DWORD PTR [esi+356]
  00029	f3 0f 11 44 24
	04		 movss	 DWORD PTR [esp+4], xmm0
  0002f	f3 0f 10 45 0c	 movss	 xmm0, DWORD PTR _fFadeIn$[ebp]
  00034	f3 0f 11 04 24	 movss	 DWORD PTR [esp], xmm0
  00039	ff 75 08	 push	 DWORD PTR _szAniName$[ebp]
  0003c	e8 00 00 00 00	 call	 ?SetActionAni@ioCreateChar@@QAEXABVioHashString@@MM@Z ; ioCreateChar::SetActionAni
$LN3@SetCharAct:
  00041	5e		 pop	 esi

; 1088 : }

  00042	5d		 pop	 ebp
  00043	c2 0c 00	 ret	 12			; 0000000cH
?SetCharActionAnimation@SelectCharViewWnd@@IAEXABVioHashString@@MM@Z ENDP ; SelectCharViewWnd::SetCharActionAnimation
_TEXT	ENDS
PUBLIC	?SetCharMotionItemAnimation@SelectCharViewWnd@@IAEXABVioHashString@@@Z ; SelectCharViewWnd::SetCharMotionItemAnimation
EXTRN	?SetMotionItemAni@ioCreateChar@@QAEXABVioHashString@@@Z:PROC ; ioCreateChar::SetMotionItemAni
; Function compile flags: /Ogsp
;	COMDAT ?SetCharMotionItemAnimation@SelectCharViewWnd@@IAEXABVioHashString@@@Z
_TEXT	SEGMENT
_szAniName$ = 8						; size = 4
?SetCharMotionItemAnimation@SelectCharViewWnd@@IAEXABVioHashString@@@Z PROC ; SelectCharViewWnd::SetCharMotionItemAnimation, COMDAT
; _this$ = ecx

; 1091 : {

  00000	55		 push	 ebp
  00001	8b ec		 mov	 ebp, esp
  00003	56		 push	 esi

; 1092 : 	if( !m_aMyChar )

  00004	8d b1 64 01 00
	00		 lea	 esi, DWORD PTR [ecx+356]
  0000a	83 3e 00	 cmp	 DWORD PTR [esi], 0
  0000d	74 17		 je	 SHORT $LN3@SetCharMot

; 1093 : 		return;
; 1094 : 
; 1095 : 	if( szAniName.IsEmpty() )

  0000f	8b 4d 08	 mov	 ecx, DWORD PTR _szAniName$[ebp]
  00012	ff 15 00 00 00
	00		 call	 DWORD PTR __imp_?IsEmpty@ioHashString@@QBE_NXZ
  00018	84 c0		 test	 al, al
  0001a	75 0a		 jne	 SHORT $LN3@SetCharMot

; 1096 : 		return;
; 1097 : 
; 1098 : 	m_aMyChar->SetMotionItemAni( szAniName );

  0001c	ff 75 08	 push	 DWORD PTR _szAniName$[ebp]
  0001f	8b 0e		 mov	 ecx, DWORD PTR [esi]
  00021	e8 00 00 00 00	 call	 ?SetMotionItemAni@ioCreateChar@@QAEXABVioHashString@@@Z ; ioCreateChar::SetMotionItemAni
$LN3@SetCharMot:
  00026	5e		 pop	 esi

; 1099 : }

  00027	5d		 pop	 ebp
  00028	c2 04 00	 ret	 4
?SetCharMotionItemAnimation@SelectCharViewWnd@@IAEXABVioHashString@@@Z ENDP ; SelectCharViewWnd::SetCharMotionItemAnimation
_TEXT	ENDS
PUBLIC	?EquipItem@SelectCharViewWnd@@IAEXKKK@Z		; SelectCharViewWnd::EquipItem
EXTRN	?EquipItem@ioCreateChar@@QAEXKKKHH@Z:PROC	; ioCreateChar::EquipItem
; Function compile flags: /Ogsp
;	COMDAT ?EquipItem@SelectCharViewWnd@@IAEXKKK@Z
_TEXT	SEGMENT
_dwItemCode$ = 8					; size = 4
_dwItemMaleCustom$ = 12					; size = 4
_dwItemFemaleCustom$ = 16				; size = 4
?EquipItem@SelectCharViewWnd@@IAEXKKK@Z PROC		; SelectCharViewWnd::EquipItem, COMDAT
; _this$ = ecx

; 1125 : {

  00000	55		 push	 ebp
  00001	8b ec		 mov	 ebp, esp

; 1126 : 	if( m_aMyChar )

  00003	8b 89 64 01 00
	00		 mov	 ecx, DWORD PTR [ecx+356]
  00009	85 c9		 test	 ecx, ecx
  0000b	74 12		 je	 SHORT $LN1@EquipItem

; 1127 : 	{
; 1128 : 		m_aMyChar->EquipItem( dwItemCode, dwItemMaleCustom, dwItemFemaleCustom );

  0000d	6a 00		 push	 0
  0000f	6a 00		 push	 0
  00011	ff 75 10	 push	 DWORD PTR _dwItemFemaleCustom$[ebp]
  00014	ff 75 0c	 push	 DWORD PTR _dwItemMaleCustom$[ebp]
  00017	ff 75 08	 push	 DWORD PTR _dwItemCode$[ebp]
  0001a	e8 00 00 00 00	 call	 ?EquipItem@ioCreateChar@@QAEXKKKHH@Z ; ioCreateChar::EquipItem
$LN1@EquipItem:

; 1129 : 	}
; 1130 : }

  0001f	5d		 pop	 ebp
  00020	c2 0c 00	 ret	 12			; 0000000cH
?EquipItem@SelectCharViewWnd@@IAEXKKK@Z ENDP		; SelectCharViewWnd::EquipItem
_TEXT	ENDS
PUBLIC	?ReleaseItem@SelectCharViewWnd@@IAEXH@Z		; SelectCharViewWnd::ReleaseItem
EXTRN	?ReleaseItem@ioCreateChar@@QAEXH@Z:PROC		; ioCreateChar::ReleaseItem
; Function compile flags: /Ogsp
;	COMDAT ?ReleaseItem@SelectCharViewWnd@@IAEXH@Z
_TEXT	SEGMENT
_iSlot$ = 8						; size = 4
?ReleaseItem@SelectCharViewWnd@@IAEXH@Z PROC		; SelectCharViewWnd::ReleaseItem, COMDAT
; _this$ = ecx

; 1133 : {

  00000	55		 push	 ebp
  00001	8b ec		 mov	 ebp, esp

; 1134 : 	if( m_aMyChar )

  00003	8b 89 64 01 00
	00		 mov	 ecx, DWORD PTR [ecx+356]
  00009	85 c9		 test	 ecx, ecx
  0000b	74 06		 je	 SHORT $LN1@ReleaseIte

; 1137 : 	}
; 1138 : }

  0000d	5d		 pop	 ebp

; 1135 : 	{
; 1136 : 		m_aMyChar->ReleaseItem( iSlot );

  0000e	e9 00 00 00 00	 jmp	 ?ReleaseItem@ioCreateChar@@QAEXH@Z ; ioCreateChar::ReleaseItem
$LN1@ReleaseIte:

; 1137 : 	}
; 1138 : }

  00013	5d		 pop	 ebp
  00014	c2 04 00	 ret	 4
?ReleaseItem@SelectCharViewWnd@@IAEXH@Z ENDP		; SelectCharViewWnd::ReleaseItem
_TEXT	ENDS
PUBLIC	?RotateY@SelectCharViewWnd@@IAEXM@Z		; SelectCharViewWnd::RotateY
; Function compile flags: /Ogsp
;	COMDAT ?RotateY@SelectCharViewWnd@@IAEXM@Z
_TEXT	SEGMENT
_fYaw$ = 8						; size = 4
?RotateY@SelectCharViewWnd@@IAEXM@Z PROC		; SelectCharViewWnd::RotateY, COMDAT
; _this$ = ecx

; 1148 : {

  00000	55		 push	 ebp
  00001	8b ec		 mov	 ebp, esp

; 1149 : 	m_fRotateYaw = fYaw;

  00003	f3 0f 10 45 08	 movss	 xmm0, DWORD PTR _fYaw$[ebp]
  00008	f3 0f 11 81 94
	04 00 00	 movss	 DWORD PTR [ecx+1172], xmm0

; 1150 : }

  00010	5d		 pop	 ebp
  00011	c2 04 00	 ret	 4
?RotateY@SelectCharViewWnd@@IAEXM@Z ENDP		; SelectCharViewWnd::RotateY
_TEXT	ENDS
PUBLIC	?SetZPosition@SelectCharViewWnd@@QAEXM@Z	; SelectCharViewWnd::SetZPosition
; Function compile flags: /Ogsp
;	COMDAT ?SetZPosition@SelectCharViewWnd@@QAEXM@Z
_TEXT	SEGMENT
_ZPos$ = 8						; size = 4
?SetZPosition@SelectCharViewWnd@@QAEXM@Z PROC		; SelectCharViewWnd::SetZPosition, COMDAT
; _this$ = ecx

; 1153 : {

  00000	55		 push	 ebp
  00001	8b ec		 mov	 ebp, esp

; 1154 : 	m_fZPosition = ZPos;

  00003	f3 0f 10 45 08	 movss	 xmm0, DWORD PTR _ZPos$[ebp]
  00008	f3 0f 11 81 98
	04 00 00	 movss	 DWORD PTR [ecx+1176], xmm0

; 1155 : }

  00010	5d		 pop	 ebp
  00011	c2 04 00	 ret	 4
?SetZPosition@SelectCharViewWnd@@QAEXM@Z ENDP		; SelectCharViewWnd::SetZPosition
_TEXT	ENDS
PUBLIC	?SetCharScale@SelectCharViewWnd@@QAEXM@Z	; SelectCharViewWnd::SetCharScale
EXTRN	?SetScale@ioCreateChar@@QAEXM@Z:PROC		; ioCreateChar::SetScale
; Function compile flags: /Ogsp
;	COMDAT ?SetCharScale@SelectCharViewWnd@@QAEXM@Z
_TEXT	SEGMENT
_fScale$ = 8						; size = 4
?SetCharScale@SelectCharViewWnd@@QAEXM@Z PROC		; SelectCharViewWnd::SetCharScale, COMDAT
; _this$ = ecx

; 1233 : {

  00000	55		 push	 ebp
  00001	8b ec		 mov	 ebp, esp

; 1234 : 	if( m_aMyChar )

  00003	8b 89 64 01 00
	00		 mov	 ecx, DWORD PTR [ecx+356]
  00009	85 c9		 test	 ecx, ecx
  0000b	74 10		 je	 SHORT $LN1@SetCharSca

; 1235 : 		m_aMyChar->SetScale( fScale );

  0000d	f3 0f 10 45 08	 movss	 xmm0, DWORD PTR _fScale$[ebp]
  00012	51		 push	 ecx
  00013	f3 0f 11 04 24	 movss	 DWORD PTR [esp], xmm0
  00018	e8 00 00 00 00	 call	 ?SetScale@ioCreateChar@@QAEXM@Z ; ioCreateChar::SetScale
$LN1@SetCharSca:

; 1236 : }

  0001d	5d		 pop	 ebp
  0001e	c2 04 00	 ret	 4
?SetCharScale@SelectCharViewWnd@@QAEXM@Z ENDP		; SelectCharViewWnd::SetCharScale
_TEXT	ENDS
PUBLIC	__$ArrayPad$
PUBLIC	?OnRender@SelectCharViewWnd@@MAEXXZ		; SelectCharViewWnd::OnRender
EXTRN	?RenderViewPort@ioUI3DRender@@QAEXPBU_D3DRECT@@_N@Z:PROC ; ioUI3DRender::RenderViewPort
EXTRN	___security_cookie:DWORD
; Function compile flags: /Ogsp
;	COMDAT ?OnRender@SelectCharViewWnd@@MAEXXZ
_TEXT	SEGMENT
_rcD3D$ = -20						; size = 16
__$ArrayPad$ = -4					; size = 4
?OnRender@SelectCharViewWnd@@MAEXXZ PROC		; SelectCharViewWnd::OnRender, COMDAT
; _this$ = ecx

; 1318 : {

  00000	55		 push	 ebp
  00001	8b ec		 mov	 ebp, esp
  00003	83 ec 14	 sub	 esp, 20			; 00000014H
  00006	a1 00 00 00 00	 mov	 eax, DWORD PTR ___security_cookie
  0000b	33 c5		 xor	 eax, ebp
  0000d	89 45 fc	 mov	 DWORD PTR __$ArrayPad$[ebp], eax
  00010	56		 push	 esi
  00011	57		 push	 edi
  00012	8b f1		 mov	 esi, ecx

; 1319 : 	ioWnd::OnRender();

  00014	ff 15 00 00 00
	00		 call	 DWORD PTR __imp_?OnRender@ioWnd@@MAEXXZ

; 1320 : 
; 1321 : 	int iXPos = GetDerivedPosX();

  0001a	8b ce		 mov	 ecx, esi
  0001c	ff 15 00 00 00
	00		 call	 DWORD PTR __imp_?GetDerivedPosX@ioWnd@@QBEHXZ

; 1322 : 	int iYPos = GetDerivedPosY();

  00022	8b ce		 mov	 ecx, esi
  00024	8b f8		 mov	 edi, eax
  00026	ff 15 00 00 00
	00		 call	 DWORD PTR __imp_?GetDerivedPosY@ioWnd@@QBEHXZ

; 1323 : 	
; 1324 : 	D3DRECT rcD3D;
; 1325 : 	rcD3D.x1 = iXPos;
; 1326 : 	rcD3D.y1 = iYPos;
; 1327 : 	rcD3D.x2 = rcD3D.x1 + VIEW_WIDTH;
; 1328 : 	rcD3D.y2 = rcD3D.y1 + VIEW_HEIGHT;
; 1329 : 	m_pUI3DRender->RenderViewPort( &rcD3D, true );

  0002c	8b 8e 60 01 00
	00		 mov	 ecx, DWORD PTR [esi+352]
  00032	89 45 f0	 mov	 DWORD PTR _rcD3D$[ebp+4], eax
  00035	05 0b 01 00 00	 add	 eax, 267		; 0000010bH
  0003a	89 45 f8	 mov	 DWORD PTR _rcD3D$[ebp+12], eax
  0003d	89 7d ec	 mov	 DWORD PTR _rcD3D$[ebp], edi
  00040	6a 01		 push	 1
  00042	8d 45 ec	 lea	 eax, DWORD PTR _rcD3D$[ebp]
  00045	81 c7 8f 00 00
	00		 add	 edi, 143		; 0000008fH
  0004b	50		 push	 eax
  0004c	89 7d f4	 mov	 DWORD PTR _rcD3D$[ebp+8], edi
  0004f	e8 00 00 00 00	 call	 ?RenderViewPort@ioUI3DRender@@QAEXPBU_D3DRECT@@_N@Z ; ioUI3DRender::RenderViewPort

; 1330 : }

  00054	8b 4d fc	 mov	 ecx, DWORD PTR __$ArrayPad$[ebp]
  00057	5f		 pop	 edi
  00058	33 cd		 xor	 ecx, ebp
  0005a	5e		 pop	 esi
  0005b	e8 00 00 00 00	 call	 @__security_check_cookie@4
  00060	c9		 leave
  00061	c3		 ret	 0
?OnRender@SelectCharViewWnd@@MAEXXZ ENDP		; SelectCharViewWnd::OnRender
_TEXT	ENDS
PUBLIC	??_7SelectCharControlBtn@@6B@			; SelectCharControlBtn::`vftable'
PUBLIC	??0SelectCharControlBtn@@QAE@XZ			; SelectCharControlBtn::SelectCharControlBtn
PUBLIC	??_R4SelectCharControlBtn@@6B@			; SelectCharControlBtn::`RTTI Complete Object Locator'
PUBLIC	??_R0?AVSelectCharControlBtn@@@8		; SelectCharControlBtn `RTTI Type Descriptor'
PUBLIC	??_R3SelectCharControlBtn@@8			; SelectCharControlBtn::`RTTI Class Hierarchy Descriptor'
PUBLIC	??_R2SelectCharControlBtn@@8			; SelectCharControlBtn::`RTTI Base Class Array'
PUBLIC	??_R1A@?0A@EA@SelectCharControlBtn@@8		; SelectCharControlBtn::`RTTI Base Class Descriptor at (0,-1,0,64)'
PUBLIC	?AddRenderImage@SelectCharControlBtn@@MAEXABVioHashString@@PAVioUIRenderImage@@@Z ; SelectCharControlBtn::AddRenderImage
PUBLIC	?OnDrawNormal@SelectCharControlBtn@@MAEXHH@Z	; SelectCharControlBtn::OnDrawNormal
PUBLIC	?OnDrawOvered@SelectCharControlBtn@@MAEXHH@Z	; SelectCharControlBtn::OnDrawOvered
PUBLIC	?OnDrawPushed@SelectCharControlBtn@@MAEXHH@Z	; SelectCharControlBtn::OnDrawPushed
PUBLIC	?OnDrawDisabled@SelectCharControlBtn@@MAEXHH@Z	; SelectCharControlBtn::OnDrawDisabled
EXTRN	?AddRenderFrame@ioButton@@UAEXABVioHashString@@PAVioUIRenderFrame@@@Z:PROC ; ioButton::AddRenderFrame
EXTRN	?OnRender@ioButton@@MAEXXZ:PROC			; ioButton::OnRender
EXTRN	??_ESelectCharControlBtn@@UAEPAXI@Z:PROC	; SelectCharControlBtn::`vector deleting destructor'
;	COMDAT ??_R1A@?0A@EA@SelectCharControlBtn@@8
rdata$r	SEGMENT
??_R1A@?0A@EA@SelectCharControlBtn@@8 DD FLAT:??_R0?AVSelectCharControlBtn@@@8 ; SelectCharControlBtn::`RTTI Base Class Descriptor at (0,-1,0,64)'
	DD	02H
	DD	00H
	DD	0ffffffffH
	DD	00H
	DD	040H
	DD	FLAT:??_R3SelectCharControlBtn@@8
rdata$r	ENDS
;	COMDAT ??_R2SelectCharControlBtn@@8
rdata$r	SEGMENT
??_R2SelectCharControlBtn@@8 DD FLAT:??_R1A@?0A@EA@SelectCharControlBtn@@8 ; SelectCharControlBtn::`RTTI Base Class Array'
	DD	FLAT:??_R1A@?0A@EA@ioButton@@8
	DD	FLAT:??_R1A@?0A@EA@ioWnd@@8
rdata$r	ENDS
;	COMDAT ??_R3SelectCharControlBtn@@8
rdata$r	SEGMENT
??_R3SelectCharControlBtn@@8 DD 00H			; SelectCharControlBtn::`RTTI Class Hierarchy Descriptor'
	DD	00H
	DD	03H
	DD	FLAT:??_R2SelectCharControlBtn@@8
rdata$r	ENDS
;	COMDAT ??_R0?AVSelectCharControlBtn@@@8
_DATA	SEGMENT
??_R0?AVSelectCharControlBtn@@@8 DD FLAT:??_7type_info@@6B@ ; SelectCharControlBtn `RTTI Type Descriptor'
	DD	00H
	DB	'.?AVSelectCharControlBtn@@', 00H
_DATA	ENDS
;	COMDAT ??_R4SelectCharControlBtn@@6B@
rdata$r	SEGMENT
??_R4SelectCharControlBtn@@6B@ DD 00H			; SelectCharControlBtn::`RTTI Complete Object Locator'
	DD	00H
	DD	00H
	DD	FLAT:??_R0?AVSelectCharControlBtn@@@8
	DD	FLAT:??_R3SelectCharControlBtn@@8
rdata$r	ENDS
;	COMDAT ??_7SelectCharControlBtn@@6B@
CONST	SEGMENT
??_7SelectCharControlBtn@@6B@ DD FLAT:??_R4SelectCharControlBtn@@6B@ ; SelectCharControlBtn::`vftable'
	DD	FLAT:?AddRenderFrame@ioButton@@UAEXABVioHashString@@PAVioUIRenderFrame@@@Z
	DD	FLAT:?AddRenderImage@SelectCharControlBtn@@MAEXABVioHashString@@PAVioUIRenderImage@@@Z
	DD	FLAT:?AddTooltipHelp@ioWnd@@UAEXABVioHashString@@00@Z
	DD	FLAT:?ParseExtraInfo@ioButton@@UAEXAAVioXMLElement@@@Z
	DD	FLAT:?AddNamedRenderImage@ioWnd@@UAEXABVioHashString@@PAVioUIRenderImage@@@Z
	DD	FLAT:?RemoveNamedRenderImage@ioWnd@@UAEXABVioHashString@@@Z
	DD	FLAT:?GetNamedRenderImage@ioWnd@@UBEPAVioUIRenderImage@@ABVioHashString@@@Z
	DD	FLAT:?SetWindowAlpha@ioButton@@UAEXH@Z
	DD	FLAT:?SetActive@ioWnd@@UAEXXZ
	DD	FLAT:?SetInActive@ioWnd@@UAEXXZ
	DD	FLAT:?ClearElementImageList@ioWnd@@UAEXXZ
	DD	FLAT:?SetSize@ioWnd@@UAEXHH@Z
	DD	FLAT:?SetPositionToDefault@ioWnd@@UAEXHH_N0@Z
	DD	FLAT:?IsNeedProcess@ioWnd@@UBE_NXZ
	DD	FLAT:?IsCanMouseReaction@ioWnd@@UBE_NXZ
	DD	FLAT:?AddChild@ioWnd@@UAEXPAV1@@Z
	DD	FLAT:?DeleteChild@ioWnd@@UAEXK@Z
	DD	FLAT:?DeleteAllChild@ioWnd@@UAEXXZ
	DD	FLAT:?OnRenderShowAndHide@ioWnd@@MAE_NXZ
	DD	FLAT:?OnRenderShowAndHideByDefault@ioWnd@@MAE_NK@Z
	DD	FLAT:?OnRenderShowAndHideByTop@ioWnd@@MAE_NK@Z
	DD	FLAT:?OnRenderShowAndHideByDown@ioWnd@@MAE_NK@Z
	DD	FLAT:?OnRender@ioButton@@MAEXXZ
	DD	FLAT:?OnRenderAfterChild@ioWnd@@MAEXXZ
	DD	FLAT:?OnProcess@ioWnd@@MAEXM@Z
	DD	FLAT:?OnMouseProcess@ioWnd@@MAEXABVioMouse@@@Z
	DD	FLAT:?CheckFrameReSize@ioButton@@MAEXHHHH@Z
	DD	FLAT:?RenderImageList@ioWnd@@MAEXHHW4UIRenderType@@@Z
	DD	FLAT:?iwm_create@ioWnd@@UAEXXZ
	DD	FLAT:?iwm_destroy@ioWnd@@UAEXXZ
	DD	FLAT:?iwm_lbuttondown@ioButton@@UAEXABVioMouse@@@Z
	DD	FLAT:?iwm_lbuttonup@ioButton@@UAEXABVioMouse@@@Z
	DD	FLAT:?iwm_lbuttonDBLCLK@ioButton@@UAEXABVioMouse@@@Z
	DD	FLAT:?iwm_rbuttondown@ioButton@@UAEXABVioMouse@@@Z
	DD	FLAT:?iwm_rbuttonup@ioButton@@UAEXABVioMouse@@@Z
	DD	FLAT:?iwm_command@ioWnd@@UAEXPAV1@HK@Z
	DD	FLAT:?iwm_mouseover@ioButton@@UAEXABVioMouse@@@Z
	DD	FLAT:?iwm_mousemove@ioWnd@@UAEXABVioMouse@@@Z
	DD	FLAT:?iwm_mouseleave@ioWnd@@UAEXABVioMouse@@@Z
	DD	FLAT:?iwm_vscroll@ioWnd@@UAEXKH@Z
	DD	FLAT:?iwm_wheel@ioWnd@@UAEXH@Z
	DD	FLAT:?iwm_show@ioWnd@@UAEXXZ
	DD	FLAT:?iwm_hide@ioWnd@@UAEXXZ
	DD	FLAT:?iwm_esc@ioWnd@@UAE_NXZ
	DD	FLAT:?iwm_spacebar@ioWnd@@UAE_NXZ
	DD	FLAT:?iwm_gototop@ioWnd@@UAEXXZ
	DD	FLAT:?iwm_dragenter@ioWnd@@UAE?AW4IWDropEffect@@PAVioDragItem@@ABVioMouse@@@Z
	DD	FLAT:?iwm_dragover@ioWnd@@UAE?AW4IWDropEffect@@PAVioDragItem@@ABVioMouse@@@Z
	DD	FLAT:?iwm_dragleave@ioWnd@@UAEXXZ
	DD	FLAT:?iwm_dropitem@ioWnd@@UAE_NPAVioDragItem@@ABVioMouse@@PAV1@@Z
	DD	FLAT:?iwm_dropdone@ioWnd@@UAEXPAVioDragItem@@PAV1@_N@Z
	DD	FLAT:?IsEXType@ioWnd@@UBE_NXZ
	DD	FLAT:?GetWndType@ioButton@@UBEKXZ
	DD	FLAT:?RenderWnd@ioWnd@@UAEXXZ
	DD	FLAT:?SetIDEX@ioWnd@@UAEXAAK_N@Z
	DD	FLAT:?ParseXML@ioWnd@@UAEXAAVioXMLElement@@@Z
	DD	FLAT:?GetHeaderFileName@ioButton@@UAEPBDXZ
	DD	FLAT:?GetTemplateName@ioButton@@UAEPBDXZ
	DD	FLAT:?GetDefClassName@ioButton@@UBEPBDXZ
	DD	FLAT:?_Clone@ioButton@@UAEPAVioWnd@@XZ
	DD	FLAT:?Copy@ioButton@@UAEXPAVioWnd@@@Z
	DD	FLAT:?Save@ioWnd@@UAE_NAAVioXMLElement@@@Z
	DD	FLAT:?SetSaveData@ioButton@@UAEXAAVioXMLElement@@@Z
	DD	FLAT:?SetPosX@ioWnd@@UAEXH@Z
	DD	FLAT:?SetPosY@ioWnd@@UAEXH@Z
	DD	FLAT:?SetWidth@ioWnd@@UAEXH@Z
	DD	FLAT:?SetHeight@ioWnd@@UAEXH@Z
	DD	FLAT:?GetNumFixedRenderFrame@ioButton@@UBEHXZ
	DD	FLAT:?GetFixedRenderFrameType@ioButton@@UAEPBDH@Z
	DD	FLAT:?GetRenderFrame@ioButton@@UAEPAPAVioUIRenderElement@@PBD@Z
	DD	FLAT:?GetNumFixedRenderImage@ioButton@@UBEHXZ
	DD	FLAT:?GetFixedRenderImageType@ioButton@@UAEPBDH@Z
	DD	FLAT:?GetRenderImage@ioButton@@UAEPAPAVioUIRenderElement@@PBD@Z
	DD	FLAT:?AddEffect@ioWnd@@UAEXABVioHashString@@PAVioUI3DEffectRender@@@Z
	DD	FLAT:?GetEffect@ioWnd@@UAEPAVioUI3DEffectRender@@VioHashString@@@Z
	DD	FLAT:??_ESelectCharControlBtn@@UAEPAXI@Z
	DD	FLAT:?OnDrawNormal@SelectCharControlBtn@@MAEXHH@Z
	DD	FLAT:?OnDrawOvered@SelectCharControlBtn@@MAEXHH@Z
	DD	FLAT:?OnDrawOveredAdd@ioButton@@MAEXHH@Z
	DD	FLAT:?OnDrawPushed@SelectCharControlBtn@@MAEXHH@Z
	DD	FLAT:?OnDrawDisabled@SelectCharControlBtn@@MAEXHH@Z
	DD	FLAT:?OnDrawExDisabledNormal@ioButton@@MAEXHH@Z
	DD	FLAT:?OnDrawExDisabledOvered@ioButton@@MAEXHH@Z
	DD	FLAT:?OnDrawExDisabledPushed@ioButton@@MAEXHH@Z
	DD	FLAT:?OnDrawBack@ioButton@@MAEXHH@Z
	DD	FLAT:?OnDrawNormalList@ioButton@@MAEXHH@Z
	DD	FLAT:?OnDrawDisableList@ioButton@@MAEXHH@Z
; Function compile flags: /Ogsp
CONST	ENDS
;	COMDAT ??0SelectCharControlBtn@@QAE@XZ
_TEXT	SEGMENT
??0SelectCharControlBtn@@QAE@XZ PROC			; SelectCharControlBtn::SelectCharControlBtn, COMDAT
; _this$ = ecx

; 1335 : {

  00000	56		 push	 esi
  00001	8b f1		 mov	 esi, ecx
  00003	ff 15 00 00 00
	00		 call	 DWORD PTR __imp_??0ioButton@@QAE@XZ

; 1336 : 	m_pBtn             = NULL;

  00009	83 a6 fc 01 00
	00 00		 and	 DWORD PTR [esi+508], 0
  00010	c7 06 00 00 00
	00		 mov	 DWORD PTR [esi], OFFSET ??_7SelectCharControlBtn@@6B@

; 1337 : }

  00016	8b c6		 mov	 eax, esi
  00018	5e		 pop	 esi
  00019	c3		 ret	 0
??0SelectCharControlBtn@@QAE@XZ ENDP			; SelectCharControlBtn::SelectCharControlBtn
_TEXT	ENDS
PUBLIC	??1SelectCharControlBtn@@UAE@XZ			; SelectCharControlBtn::~SelectCharControlBtn
;	COMDAT xdata$x
xdata$x	SEGMENT
__unwindtable$??1SelectCharControlBtn@@UAE@XZ DD 0ffffffffH
	DD	FLAT:__unwindfunclet$??1SelectCharControlBtn@@UAE@XZ$0
__ehfuncinfo$??1SelectCharControlBtn@@UAE@XZ DD 019930522H
	DD	01H
	DD	FLAT:__unwindtable$??1SelectCharControlBtn@@UAE@XZ
	DD	2 DUP(00H)
	DD	2 DUP(00H)
	DD	00H
	DD	01H
; Function compile flags: /Ogsp
xdata$x	ENDS
;	COMDAT ??1SelectCharControlBtn@@UAE@XZ
_TEXT	SEGMENT
_this$ = -16						; size = 4
__$EHRec$ = -12						; size = 12
??1SelectCharControlBtn@@UAE@XZ PROC			; SelectCharControlBtn::~SelectCharControlBtn, COMDAT
; _this$ = ecx

; 1340 : {

  00000	6a 04		 push	 4
  00002	b8 00 00 00 00	 mov	 eax, __ehhandler$??1SelectCharControlBtn@@UAE@XZ
  00007	e8 00 00 00 00	 call	 __EH_prolog3
  0000c	8b f9		 mov	 edi, ecx
  0000e	89 7d f0	 mov	 DWORD PTR _this$[ebp], edi
  00011	c7 07 00 00 00
	00		 mov	 DWORD PTR [edi], OFFSET ??_7SelectCharControlBtn@@6B@

; 1341 : 	SAFEDELETE( m_pBtn );

  00017	8b 8f fc 01 00
	00		 mov	 ecx, DWORD PTR [edi+508]
  0001d	83 65 fc 00	 and	 DWORD PTR __$EHRec$[ebp+8], 0
  00021	85 c9		 test	 ecx, ecx
  00023	74 0e		 je	 SHORT $LN1@SelectChar
  00025	8b 01		 mov	 eax, DWORD PTR [ecx]
  00027	6a 01		 push	 1
  00029	ff 50 40	 call	 DWORD PTR [eax+64]
  0002c	83 a7 fc 01 00
	00 00		 and	 DWORD PTR [edi+508], 0
$LN1@SelectChar:

; 1342 : }

  00033	83 4d fc ff	 or	 DWORD PTR __$EHRec$[ebp+8], -1
  00037	8b cf		 mov	 ecx, edi
  00039	ff 15 00 00 00
	00		 call	 DWORD PTR __imp_??1ioButton@@UAE@XZ
  0003f	e8 00 00 00 00	 call	 __EH_epilog3
  00044	c3		 ret	 0
_TEXT	ENDS
;	COMDAT text$x
text$x	SEGMENT
__unwindfunclet$??1SelectCharControlBtn@@UAE@XZ$0:
  00000	8b 4d f0	 mov	 ecx, DWORD PTR _this$[ebp]
  00003	ff 25 00 00 00
	00		 jmp	 DWORD PTR __imp_??1ioButton@@UAE@XZ
__ehhandler$??1SelectCharControlBtn@@UAE@XZ:
  00009	8b 54 24 08	 mov	 edx, DWORD PTR [esp+8]
  0000d	8d 42 0c	 lea	 eax, DWORD PTR [edx+12]
  00010	8b 4a ec	 mov	 ecx, DWORD PTR [edx-20]
  00013	33 c8		 xor	 ecx, eax
  00015	e8 00 00 00 00	 call	 @__security_check_cookie@4
  0001a	b8 00 00 00 00	 mov	 eax, OFFSET __ehfuncinfo$??1SelectCharControlBtn@@UAE@XZ
  0001f	e9 00 00 00 00	 jmp	 ___CxxFrameHandler3
text$x	ENDS
??1SelectCharControlBtn@@UAE@XZ ENDP			; SelectCharControlBtn::~SelectCharControlBtn
PUBLIC	??_C@_03EHCADGPA@Btn?$AA@			; `string'
EXTRN	__imp_?AddRenderImage@ioButton@@UAEXABVioHashString@@PAVioUIRenderImage@@@Z:PROC
EXTRN	__imp_?c_str@ioHashString@@QBEPBDXZ:PROC
;	COMDAT ??_C@_03EHCADGPA@Btn?$AA@
CONST	SEGMENT
??_C@_03EHCADGPA@Btn?$AA@ DB 'Btn', 00H			; `string'
; Function compile flags: /Ogsp
CONST	ENDS
;	COMDAT ?AddRenderImage@SelectCharControlBtn@@MAEXABVioHashString@@PAVioUIRenderImage@@@Z
_TEXT	SEGMENT
_szType$ = 8						; size = 4
_pImage$ = 12						; size = 4
?AddRenderImage@SelectCharControlBtn@@MAEXABVioHashString@@PAVioUIRenderImage@@@Z PROC ; SelectCharControlBtn::AddRenderImage, COMDAT
; _this$ = ecx

; 1346 : {

  00000	55		 push	 ebp
  00001	8b ec		 mov	 ebp, esp
  00003	53		 push	 ebx
  00004	56		 push	 esi
  00005	8b d9		 mov	 ebx, ecx

; 1347 : 	if( strcmp(szType.c_str(), "Btn") == 0 )

  00007	8b 4d 08	 mov	 ecx, DWORD PTR _szType$[ebp]
  0000a	57		 push	 edi
  0000b	bf 00 00 00 00	 mov	 edi, OFFSET ??_C@_03EHCADGPA@Btn?$AA@
  00010	ff 15 00 00 00
	00		 call	 DWORD PTR __imp_?c_str@ioHashString@@QBEPBDXZ
  00016	8b f0		 mov	 esi, eax
  00018	6a 04		 push	 4
  0001a	59		 pop	 ecx
  0001b	33 c0		 xor	 eax, eax
  0001d	f3 a6		 repe cmpsb
  0001f	75 23		 jne	 SHORT $LN3@AddRenderI

; 1348 : 	{
; 1349 : 		SAFEDELETE( m_pBtn );

  00021	8b 8b fc 01 00
	00		 mov	 ecx, DWORD PTR [ebx+508]
  00027	85 c9		 test	 ecx, ecx
  00029	74 0e		 je	 SHORT $LN2@AddRenderI
  0002b	8b 01		 mov	 eax, DWORD PTR [ecx]
  0002d	6a 01		 push	 1
  0002f	ff 50 40	 call	 DWORD PTR [eax+64]
  00032	83 a3 fc 01 00
	00 00		 and	 DWORD PTR [ebx+508], 0
$LN2@AddRenderI:

; 1350 : 		m_pBtn = pImage;

  00039	8b 45 0c	 mov	 eax, DWORD PTR _pImage$[ebp]
  0003c	89 83 fc 01 00
	00		 mov	 DWORD PTR [ebx+508], eax

; 1351 : 	}
; 1352 : 	else

  00042	eb 0e		 jmp	 SHORT $LN1@AddRenderI
$LN3@AddRenderI:

; 1353 : 	{
; 1354 : 		ioButton::AddRenderImage( szType, pImage );	

  00044	ff 75 0c	 push	 DWORD PTR _pImage$[ebp]
  00047	8b cb		 mov	 ecx, ebx
  00049	ff 75 08	 push	 DWORD PTR _szType$[ebp]
  0004c	ff 15 00 00 00
	00		 call	 DWORD PTR __imp_?AddRenderImage@ioButton@@UAEXABVioHashString@@PAVioUIRenderImage@@@Z
$LN1@AddRenderI:
  00052	5f		 pop	 edi
  00053	5e		 pop	 esi
  00054	5b		 pop	 ebx

; 1355 : 	}	
; 1356 : }

  00055	5d		 pop	 ebp
  00056	c2 08 00	 ret	 8
?AddRenderImage@SelectCharControlBtn@@MAEXABVioHashString@@PAVioUIRenderImage@@@Z ENDP ; SelectCharControlBtn::AddRenderImage
_TEXT	ENDS
PUBLIC	?RenderInfo@SelectCharControlBtn@@IAEXHHW4UIRenderType@@@Z ; SelectCharControlBtn::RenderInfo
; Function compile flags: /Ogsp
;	COMDAT ?RenderInfo@SelectCharControlBtn@@IAEXHHW4UIRenderType@@@Z
_TEXT	SEGMENT
_iXPos$ = 8						; size = 4
_iYPos$ = 12						; size = 4
_eType$ = 16						; size = 4
?RenderInfo@SelectCharControlBtn@@IAEXHHW4UIRenderType@@@Z PROC ; SelectCharControlBtn::RenderInfo, COMDAT
; _this$ = ecx

; 1387 : {

  00000	55		 push	 ebp
  00001	8b ec		 mov	 ebp, esp

; 1388 : 	if( m_pBtn )

  00003	8d 81 fc 01 00
	00		 lea	 eax, DWORD PTR [ecx+508]
  00009	33 c9		 xor	 ecx, ecx
  0000b	39 08		 cmp	 DWORD PTR [eax], ecx
  0000d	74 2b		 je	 SHORT $LN1@RenderInfo

; 1389 : 		m_pBtn->Render( iXPos, iYPos, eType );

  0000f	66 0f 6e 45 0c	 movd	 xmm0, DWORD PTR _iYPos$[ebp]
  00014	8b 00		 mov	 eax, DWORD PTR [eax]
  00016	8b 10		 mov	 edx, DWORD PTR [eax]
  00018	51		 push	 ecx
  00019	51		 push	 ecx
  0001a	51		 push	 ecx
  0001b	ff 75 10	 push	 DWORD PTR _eType$[ebp]
  0001e	0f 5b c0	 cvtdq2ps xmm0, xmm0
  00021	51		 push	 ecx
  00022	51		 push	 ecx
  00023	f3 0f 11 44 24
	04		 movss	 DWORD PTR [esp+4], xmm0
  00029	66 0f 6e 45 08	 movd	 xmm0, DWORD PTR _iXPos$[ebp]
  0002e	0f 5b c0	 cvtdq2ps xmm0, xmm0
  00031	8b c8		 mov	 ecx, eax
  00033	f3 0f 11 04 24	 movss	 DWORD PTR [esp], xmm0
  00038	ff 12		 call	 DWORD PTR [edx]
$LN1@RenderInfo:

; 1390 : }

  0003a	5d		 pop	 ebp
  0003b	c2 0c 00	 ret	 12			; 0000000cH
?RenderInfo@SelectCharControlBtn@@IAEXHHW4UIRenderType@@@Z ENDP ; SelectCharControlBtn::RenderInfo
_TEXT	ENDS
PUBLIC	?SetBtnAlphaRate@SelectCharControlBtn@@QAEXH@Z	; SelectCharControlBtn::SetBtnAlphaRate
; Function compile flags: /Ogsp
;	COMDAT ?SetBtnAlphaRate@SelectCharControlBtn@@QAEXH@Z
_TEXT	SEGMENT
_iAlphaRate$ = 8					; size = 4
?SetBtnAlphaRate@SelectCharControlBtn@@QAEXH@Z PROC	; SelectCharControlBtn::SetBtnAlphaRate, COMDAT
; _this$ = ecx

; 1393 : {

  00000	55		 push	 ebp
  00001	8b ec		 mov	 ebp, esp

; 1394 : 	if( m_pBtn )

  00003	83 b9 fc 01 00
	00 00		 cmp	 DWORD PTR [ecx+508], 0
  0000a	74 0e		 je	 SHORT $LN1@SetBtnAlph

; 1395 : 		m_pBtn->SetAlpha( (BYTE) iAlphaRate );

  0000c	8b 81 fc 01 00
	00		 mov	 eax, DWORD PTR [ecx+508]
  00012	8b 10		 mov	 edx, DWORD PTR [eax]
  00014	8b c8		 mov	 ecx, eax

; 1396 : }

  00016	5d		 pop	 ebp

; 1395 : 		m_pBtn->SetAlpha( (BYTE) iAlphaRate );

  00017	ff 62 30	 jmp	 DWORD PTR [edx+48]
$LN1@SetBtnAlph:

; 1396 : }

  0001a	5d		 pop	 ebp
  0001b	c2 04 00	 ret	 4
?SetBtnAlphaRate@SelectCharControlBtn@@QAEXH@Z ENDP	; SelectCharControlBtn::SetBtnAlphaRate
_TEXT	ENDS
PUBLIC	??_7SelectCharControlWnd@@6B@			; SelectCharControlWnd::`vftable'
PUBLIC	??1SelectCharControlWnd@@UAE@XZ			; SelectCharControlWnd::~SelectCharControlWnd
PUBLIC	??_R4SelectCharControlWnd@@6B@			; SelectCharControlWnd::`RTTI Complete Object Locator'
PUBLIC	??_R0?AVSelectCharControlWnd@@@8		; SelectCharControlWnd `RTTI Type Descriptor'
PUBLIC	??_R3SelectCharControlWnd@@8			; SelectCharControlWnd::`RTTI Class Hierarchy Descriptor'
PUBLIC	??_R2SelectCharControlWnd@@8			; SelectCharControlWnd::`RTTI Base Class Array'
PUBLIC	??_R1A@?0A@EA@SelectCharControlWnd@@8		; SelectCharControlWnd::`RTTI Base Class Descriptor at (0,-1,0,64)'
PUBLIC	?OnProcess@SelectCharControlWnd@@MAEXM@Z	; SelectCharControlWnd::OnProcess
PUBLIC	?iwm_command@SelectCharControlWnd@@UAEXPAVioWnd@@HK@Z ; SelectCharControlWnd::iwm_command
PUBLIC	?iwm_show@SelectCharControlWnd@@UAEXXZ		; SelectCharControlWnd::iwm_show
PUBLIC	?iwm_hide@SelectCharControlWnd@@UAEXXZ		; SelectCharControlWnd::iwm_hide
EXTRN	??1FSMStateMgr@@UAE@XZ:PROC			; FSMStateMgr::~FSMStateMgr
EXTRN	?OnRender@ioWnd@@MAEXXZ:PROC			; ioWnd::OnRender
EXTRN	??_ESelectCharControlWnd@@UAEPAXI@Z:PROC	; SelectCharControlWnd::`vector deleting destructor'
;	COMDAT ??_R1A@?0A@EA@SelectCharControlWnd@@8
rdata$r	SEGMENT
??_R1A@?0A@EA@SelectCharControlWnd@@8 DD FLAT:??_R0?AVSelectCharControlWnd@@@8 ; SelectCharControlWnd::`RTTI Base Class Descriptor at (0,-1,0,64)'
	DD	01H
	DD	00H
	DD	0ffffffffH
	DD	00H
	DD	040H
	DD	FLAT:??_R3SelectCharControlWnd@@8
rdata$r	ENDS
;	COMDAT ??_R2SelectCharControlWnd@@8
rdata$r	SEGMENT
??_R2SelectCharControlWnd@@8 DD FLAT:??_R1A@?0A@EA@SelectCharControlWnd@@8 ; SelectCharControlWnd::`RTTI Base Class Array'
	DD	FLAT:??_R1A@?0A@EA@ioWnd@@8
rdata$r	ENDS
;	COMDAT ??_R3SelectCharControlWnd@@8
rdata$r	SEGMENT
??_R3SelectCharControlWnd@@8 DD 00H			; SelectCharControlWnd::`RTTI Class Hierarchy Descriptor'
	DD	00H
	DD	02H
	DD	FLAT:??_R2SelectCharControlWnd@@8
rdata$r	ENDS
;	COMDAT ??_R0?AVSelectCharControlWnd@@@8
_DATA	SEGMENT
??_R0?AVSelectCharControlWnd@@@8 DD FLAT:??_7type_info@@6B@ ; SelectCharControlWnd `RTTI Type Descriptor'
	DD	00H
	DB	'.?AVSelectCharControlWnd@@', 00H
_DATA	ENDS
;	COMDAT ??_R4SelectCharControlWnd@@6B@
rdata$r	SEGMENT
??_R4SelectCharControlWnd@@6B@ DD 00H			; SelectCharControlWnd::`RTTI Complete Object Locator'
	DD	00H
	DD	00H
	DD	FLAT:??_R0?AVSelectCharControlWnd@@@8
	DD	FLAT:??_R3SelectCharControlWnd@@8
rdata$r	ENDS
;	COMDAT ??_7SelectCharControlWnd@@6B@
CONST	SEGMENT
??_7SelectCharControlWnd@@6B@ DD FLAT:??_R4SelectCharControlWnd@@6B@ ; SelectCharControlWnd::`vftable'
	DD	FLAT:?AddRenderFrame@ioWnd@@UAEXABVioHashString@@PAVioUIRenderFrame@@@Z
	DD	FLAT:?AddRenderImage@ioWnd@@UAEXABVioHashString@@PAVioUIRenderImage@@@Z
	DD	FLAT:?AddTooltipHelp@ioWnd@@UAEXABVioHashString@@00@Z
	DD	FLAT:?ParseExtraInfo@ioWnd@@UAEXAAVioXMLElement@@@Z
	DD	FLAT:?AddNamedRenderImage@ioWnd@@UAEXABVioHashString@@PAVioUIRenderImage@@@Z
	DD	FLAT:?RemoveNamedRenderImage@ioWnd@@UAEXABVioHashString@@@Z
	DD	FLAT:?GetNamedRenderImage@ioWnd@@UBEPAVioUIRenderImage@@ABVioHashString@@@Z
	DD	FLAT:?SetWindowAlpha@ioWnd@@UAEXH@Z
	DD	FLAT:?SetActive@ioWnd@@UAEXXZ
	DD	FLAT:?SetInActive@ioWnd@@UAEXXZ
	DD	FLAT:?ClearElementImageList@ioWnd@@UAEXXZ
	DD	FLAT:?SetSize@ioWnd@@UAEXHH@Z
	DD	FLAT:?SetPositionToDefault@ioWnd@@UAEXHH_N0@Z
	DD	FLAT:?IsNeedProcess@ioWnd@@UBE_NXZ
	DD	FLAT:?IsCanMouseReaction@ioWnd@@UBE_NXZ
	DD	FLAT:?AddChild@ioWnd@@UAEXPAV1@@Z
	DD	FLAT:?DeleteChild@ioWnd@@UAEXK@Z
	DD	FLAT:?DeleteAllChild@ioWnd@@UAEXXZ
	DD	FLAT:?OnRenderShowAndHide@ioWnd@@MAE_NXZ
	DD	FLAT:?OnRenderShowAndHideByDefault@ioWnd@@MAE_NK@Z
	DD	FLAT:?OnRenderShowAndHideByTop@ioWnd@@MAE_NK@Z
	DD	FLAT:?OnRenderShowAndHideByDown@ioWnd@@MAE_NK@Z
	DD	FLAT:?OnRender@ioWnd@@MAEXXZ
	DD	FLAT:?OnRenderAfterChild@ioWnd@@MAEXXZ
	DD	FLAT:?OnProcess@SelectCharControlWnd@@MAEXM@Z
	DD	FLAT:?OnMouseProcess@ioWnd@@MAEXABVioMouse@@@Z
	DD	FLAT:?CheckFrameReSize@ioWnd@@MAEXHHHH@Z
	DD	FLAT:?RenderImageList@ioWnd@@MAEXHHW4UIRenderType@@@Z
	DD	FLAT:?iwm_create@ioWnd@@UAEXXZ
	DD	FLAT:?iwm_destroy@ioWnd@@UAEXXZ
	DD	FLAT:?iwm_lbuttondown@ioWnd@@UAEXABVioMouse@@@Z
	DD	FLAT:?iwm_lbuttonup@ioWnd@@UAEXABVioMouse@@@Z
	DD	FLAT:?iwm_lbuttonDBLCLK@ioWnd@@UAEXABVioMouse@@@Z
	DD	FLAT:?iwm_rbuttondown@ioWnd@@UAEXABVioMouse@@@Z
	DD	FLAT:?iwm_rbuttonup@ioWnd@@UAEXABVioMouse@@@Z
	DD	FLAT:?iwm_command@SelectCharControlWnd@@UAEXPAVioWnd@@HK@Z
	DD	FLAT:?iwm_mouseover@ioWnd@@UAEXABVioMouse@@@Z
	DD	FLAT:?iwm_mousemove@ioWnd@@UAEXABVioMouse@@@Z
	DD	FLAT:?iwm_mouseleave@ioWnd@@UAEXABVioMouse@@@Z
	DD	FLAT:?iwm_vscroll@ioWnd@@UAEXKH@Z
	DD	FLAT:?iwm_wheel@ioWnd@@UAEXH@Z
	DD	FLAT:?iwm_show@SelectCharControlWnd@@UAEXXZ
	DD	FLAT:?iwm_hide@SelectCharControlWnd@@UAEXXZ
	DD	FLAT:?iwm_esc@ioWnd@@UAE_NXZ
	DD	FLAT:?iwm_spacebar@ioWnd@@UAE_NXZ
	DD	FLAT:?iwm_gototop@ioWnd@@UAEXXZ
	DD	FLAT:?iwm_dragenter@ioWnd@@UAE?AW4IWDropEffect@@PAVioDragItem@@ABVioMouse@@@Z
	DD	FLAT:?iwm_dragover@ioWnd@@UAE?AW4IWDropEffect@@PAVioDragItem@@ABVioMouse@@@Z
	DD	FLAT:?iwm_dragleave@ioWnd@@UAEXXZ
	DD	FLAT:?iwm_dropitem@ioWnd@@UAE_NPAVioDragItem@@ABVioMouse@@PAV1@@Z
	DD	FLAT:?iwm_dropdone@ioWnd@@UAEXPAVioDragItem@@PAV1@_N@Z
	DD	FLAT:?IsEXType@ioWnd@@UBE_NXZ
	DD	FLAT:?GetWndType@ioWnd@@UBEKXZ
	DD	FLAT:?RenderWnd@ioWnd@@UAEXXZ
	DD	FLAT:?SetIDEX@ioWnd@@UAEXAAK_N@Z
	DD	FLAT:?ParseXML@ioWnd@@UAEXAAVioXMLElement@@@Z
	DD	FLAT:?GetHeaderFileName@ioWnd@@UAEPBDXZ
	DD	FLAT:?GetTemplateName@ioWnd@@UAEPBDXZ
	DD	FLAT:?GetDefClassName@ioWnd@@UBEPBDXZ
	DD	FLAT:?_Clone@ioWnd@@UAEPAV1@XZ
	DD	FLAT:?Copy@ioWnd@@UAEXPAV1@@Z
	DD	FLAT:?Save@ioWnd@@UAE_NAAVioXMLElement@@@Z
	DD	FLAT:?SetSaveData@ioWnd@@UAEXAAVioXMLElement@@@Z
	DD	FLAT:?SetPosX@ioWnd@@UAEXH@Z
	DD	FLAT:?SetPosY@ioWnd@@UAEXH@Z
	DD	FLAT:?SetWidth@ioWnd@@UAEXH@Z
	DD	FLAT:?SetHeight@ioWnd@@UAEXH@Z
	DD	FLAT:?GetNumFixedRenderFrame@ioWnd@@UBEHXZ
	DD	FLAT:?GetFixedRenderFrameType@ioWnd@@UAEPBDH@Z
	DD	FLAT:?GetRenderFrame@ioWnd@@UAEPAPAVioUIRenderElement@@PBD@Z
	DD	FLAT:?GetNumFixedRenderImage@ioWnd@@UBEHXZ
	DD	FLAT:?GetFixedRenderImageType@ioWnd@@UAEPBDH@Z
	DD	FLAT:?GetRenderImage@ioWnd@@UAEPAPAVioUIRenderElement@@PBD@Z
	DD	FLAT:?AddEffect@ioWnd@@UAEXABVioHashString@@PAVioUI3DEffectRender@@@Z
	DD	FLAT:?GetEffect@ioWnd@@UAEPAVioUI3DEffectRender@@VioHashString@@@Z
	DD	FLAT:??_ESelectCharControlWnd@@UAEPAXI@Z
CONST	ENDS
;	COMDAT xdata$x
xdata$x	SEGMENT
__unwindtable$??1SelectCharControlWnd@@UAE@XZ DD 0ffffffffH
	DD	FLAT:__unwindfunclet$??1SelectCharControlWnd@@UAE@XZ$0
__ehfuncinfo$??1SelectCharControlWnd@@UAE@XZ DD 019930522H
	DD	01H
	DD	FLAT:__unwindtable$??1SelectCharControlWnd@@UAE@XZ
	DD	2 DUP(00H)
	DD	2 DUP(00H)
	DD	00H
	DD	01H
; Function compile flags: /Ogsp
xdata$x	ENDS
;	COMDAT ??1SelectCharControlWnd@@UAE@XZ
_TEXT	SEGMENT
_this$ = -16						; size = 4
__$EHRec$ = -12						; size = 12
??1SelectCharControlWnd@@UAE@XZ PROC			; SelectCharControlWnd::~SelectCharControlWnd, COMDAT
; _this$ = ecx

; 1406 : {

  00000	6a 04		 push	 4
  00002	b8 00 00 00 00	 mov	 eax, __ehhandler$??1SelectCharControlWnd@@UAE@XZ
  00007	e8 00 00 00 00	 call	 __EH_prolog3
  0000c	8b f1		 mov	 esi, ecx
  0000e	89 75 f0	 mov	 DWORD PTR _this$[ebp], esi
  00011	c7 06 00 00 00
	00		 mov	 DWORD PTR [esi], OFFSET ??_7SelectCharControlWnd@@6B@
  00017	83 65 fc 00	 and	 DWORD PTR __$EHRec$[ebp+8], 0

; 1407 : }

  0001b	8d 8e 60 01 00
	00		 lea	 ecx, DWORD PTR [esi+352]
  00021	e8 00 00 00 00	 call	 ??1FSMStateMgr@@UAE@XZ	; FSMStateMgr::~FSMStateMgr
  00026	83 4d fc ff	 or	 DWORD PTR __$EHRec$[ebp+8], -1
  0002a	8b ce		 mov	 ecx, esi
  0002c	ff 15 00 00 00
	00		 call	 DWORD PTR __imp_??1ioWnd@@UAE@XZ
  00032	e8 00 00 00 00	 call	 __EH_epilog3
  00037	c3		 ret	 0
_TEXT	ENDS
;	COMDAT text$x
text$x	SEGMENT
__unwindfunclet$??1SelectCharControlWnd@@UAE@XZ$0:
  00000	8b 4d f0	 mov	 ecx, DWORD PTR _this$[ebp]
  00003	ff 25 00 00 00
	00		 jmp	 DWORD PTR __imp_??1ioWnd@@UAE@XZ
__ehhandler$??1SelectCharControlWnd@@UAE@XZ:
  00009	8b 54 24 08	 mov	 edx, DWORD PTR [esp+8]
  0000d	8d 42 0c	 lea	 eax, DWORD PTR [edx+12]
  00010	8b 4a ec	 mov	 ecx, DWORD PTR [edx-20]
  00013	33 c8		 xor	 ecx, eax
  00015	e8 00 00 00 00	 call	 @__security_check_cookie@4
  0001a	b8 00 00 00 00	 mov	 eax, OFFSET __ehfuncinfo$??1SelectCharControlWnd@@UAE@XZ
  0001f	e9 00 00 00 00	 jmp	 ___CxxFrameHandler3
text$x	ENDS
??1SelectCharControlWnd@@UAE@XZ ENDP			; SelectCharControlWnd::~SelectCharControlWnd
EXTRN	__imp_?GetParent@ioWnd@@QAEPAV1@XZ:PROC
EXTRN	__imp_?GetID@ioWnd@@QBEKXZ:PROC
; Function compile flags: /Ogsp
;	COMDAT ?iwm_command@SelectCharControlWnd@@UAEXPAVioWnd@@HK@Z
_TEXT	SEGMENT
_pWnd$ = 8						; size = 4
_cmd$ = 12						; size = 4
_param$ = 16						; size = 4
?iwm_command@SelectCharControlWnd@@UAEXPAVioWnd@@HK@Z PROC ; SelectCharControlWnd::iwm_command, COMDAT
; _this$ = ecx

; 1410 : {

  00000	55		 push	 ebp
  00001	8b ec		 mov	 ebp, esp
  00003	56		 push	 esi
  00004	8b f1		 mov	 esi, ecx

; 1411 : 	DWORD dwID = pWnd->GetID();

  00006	8b 4d 08	 mov	 ecx, DWORD PTR _pWnd$[ebp]
  00009	57		 push	 edi
  0000a	ff 15 00 00 00
	00		 call	 DWORD PTR __imp_?GetID@ioWnd@@QBEKXZ
  00010	8b f8		 mov	 edi, eax

; 1412 : 
; 1413 : 	switch( dwID )

  00012	85 ff		 test	 edi, edi
  00014	74 34		 je	 SHORT $LN1@iwm_comman
  00016	83 ff 03	 cmp	 edi, 3
  00019	77 2f		 ja	 SHORT $LN1@iwm_comman

; 1414 : 	{
; 1415 : 	case ID_LEFT_ROTATE_BTN:
; 1416 : 	case ID_RIGHT_ROTATE_BTN:
; 1417 : 	case ID_DEFAULT_POS_BTN:
; 1418 : 		if( cmd == IOBN_BTNUP || cmd == IOBN_BTNDOWN )

  0001b	83 7d 0c 11	 cmp	 DWORD PTR _cmd$[ebp], 17 ; 00000011H
  0001f	74 06		 je	 SHORT $LN2@iwm_comman
  00021	83 7d 0c 10	 cmp	 DWORD PTR _cmd$[ebp], 16 ; 00000010H
  00025	75 23		 jne	 SHORT $LN1@iwm_comman
$LN2@iwm_comman:

; 1419 : 		{
; 1420 : 			if( ioWnd::GetParent() )

  00027	8b ce		 mov	 ecx, esi
  00029	ff 15 00 00 00
	00		 call	 DWORD PTR __imp_?GetParent@ioWnd@@QAEPAV1@XZ
  0002f	85 c0		 test	 eax, eax
  00031	74 17		 je	 SHORT $LN1@iwm_comman

; 1421 : 				ioWnd::GetParent()->iwm_command( this, cmd, dwID );

  00033	8b ce		 mov	 ecx, esi
  00035	ff 15 00 00 00
	00		 call	 DWORD PTR __imp_?GetParent@ioWnd@@QAEPAV1@XZ
  0003b	8b 10		 mov	 edx, DWORD PTR [eax]
  0003d	57		 push	 edi
  0003e	ff 75 0c	 push	 DWORD PTR _cmd$[ebp]
  00041	8b c8		 mov	 ecx, eax
  00043	56		 push	 esi
  00044	ff 92 8c 00 00
	00		 call	 DWORD PTR [edx+140]
$LN1@iwm_comman:
  0004a	5f		 pop	 edi
  0004b	5e		 pop	 esi

; 1422 : 		}
; 1423 : 		break;
; 1424 : 	}
; 1425 : }

  0004c	5d		 pop	 ebp
  0004d	c2 0c 00	 ret	 12			; 0000000cH
?iwm_command@SelectCharControlWnd@@UAEXPAVioWnd@@HK@Z ENDP ; SelectCharControlWnd::iwm_command
_TEXT	ENDS
PUBLIC	?SetDefaultPosTitle@SelectCharControlWnd@@QAEXPBD@Z ; SelectCharControlWnd::SetDefaultPosTitle
EXTRN	__imp_?SetTitleText@ioWnd@@QAEXPBD0H@Z:PROC
; Function compile flags: /Ogsp
;	COMDAT ?SetDefaultPosTitle@SelectCharControlWnd@@QAEXPBD@Z
_TEXT	SEGMENT
_szTitle$ = 8						; size = 4
?SetDefaultPosTitle@SelectCharControlWnd@@QAEXPBD@Z PROC ; SelectCharControlWnd::SetDefaultPosTitle, COMDAT
; _this$ = ecx

; 1428 : {

  00000	55		 push	 ebp
  00001	8b ec		 mov	 ebp, esp

; 1429 : 	ioWnd *pWnd = FindChildWnd( ID_DEFAULT_POS_BTN );

  00003	6a 03		 push	 3
  00005	ff 15 00 00 00
	00		 call	 DWORD PTR __imp_?FindChildWnd@ioWnd@@QAEPAV1@K@Z

; 1430 : 	if( pWnd )

  0000b	85 c0		 test	 eax, eax
  0000d	74 12		 je	 SHORT $LN1@SetDefault

; 1431 : 		pWnd->SetTitleText( szTitle );

  0000f	6a 00		 push	 0
  00011	68 00 00 00 00	 push	 OFFSET ??_C@_00CNPNBAHC@?$AA@
  00016	ff 75 08	 push	 DWORD PTR _szTitle$[ebp]
  00019	8b c8		 mov	 ecx, eax
  0001b	ff 15 00 00 00
	00		 call	 DWORD PTR __imp_?SetTitleText@ioWnd@@QAEXPBD0H@Z
$LN1@SetDefault:

; 1432 : }

  00021	5d		 pop	 ebp
  00022	c2 04 00	 ret	 4
?SetDefaultPosTitle@SelectCharControlWnd@@QAEXPBD@Z ENDP ; SelectCharControlWnd::SetDefaultPosTitle
_TEXT	ENDS
PUBLIC	?InitAniState@SelectCharControlWnd@@IAEXXZ	; SelectCharControlWnd::InitAniState
EXTRN	?SetCurState@FSMStateMgr@@QAEXH@Z:PROC		; FSMStateMgr::SetCurState
EXTRN	?Add@FSMStateMgr@@QAEXPAVFSMState@@@Z:PROC	; FSMStateMgr::Add
EXTRN	?Add@FSMState@@QAEXHHH@Z:PROC			; FSMState::Add
EXTRN	??0FSMState@@QAE@H@Z:PROC			; FSMState::FSMState
;	COMDAT xdata$x
xdata$x	SEGMENT
__unwindtable$?InitAniState@SelectCharControlWnd@@IAEXXZ DD 0ffffffffH
	DD	FLAT:__unwindfunclet$?InitAniState@SelectCharControlWnd@@IAEXXZ$0
	DD	0ffffffffH
	DD	FLAT:__unwindfunclet$?InitAniState@SelectCharControlWnd@@IAEXXZ$1
	DD	0ffffffffH
	DD	FLAT:__unwindfunclet$?InitAniState@SelectCharControlWnd@@IAEXXZ$2
	DD	0ffffffffH
	DD	FLAT:__unwindfunclet$?InitAniState@SelectCharControlWnd@@IAEXXZ$3
__ehfuncinfo$?InitAniState@SelectCharControlWnd@@IAEXXZ DD 019930522H
	DD	04H
	DD	FLAT:__unwindtable$?InitAniState@SelectCharControlWnd@@IAEXXZ
	DD	2 DUP(00H)
	DD	2 DUP(00H)
	DD	00H
	DD	01H
; Function compile flags: /Ogsp
xdata$x	ENDS
;	COMDAT ?InitAniState@SelectCharControlWnd@@IAEXXZ
_TEXT	SEGMENT
$T536421 = -20						; size = 4
$T536417 = -20						; size = 4
$T536413 = -20						; size = 4
tv194 = -16						; size = 4
$T536409 = -16						; size = 4
__$EHRec$ = -12						; size = 12
?InitAniState@SelectCharControlWnd@@IAEXXZ PROC		; SelectCharControlWnd::InitAniState, COMDAT
; _this$ = ecx

; 1435 : {

  00000	6a 08		 push	 8
  00002	b8 00 00 00 00	 mov	 eax, __ehhandler$?InitAniState@SelectCharControlWnd@@IAEXXZ
  00007	e8 00 00 00 00	 call	 __EH_prolog3
  0000c	8b d9		 mov	 ebx, ecx

; 1436 : 	enum { DELAY_ALPHA = 500, };
; 1437 : 
; 1438 : 	FSMState *pState = new FSMState(AT_NONE);

  0000e	6a 38		 push	 56			; 00000038H
  00010	e8 00 00 00 00	 call	 ??2@YAPAXI@Z		; operator new
  00015	59		 pop	 ecx
  00016	89 45 f0	 mov	 DWORD PTR $T536409[ebp], eax
  00019	33 f6		 xor	 esi, esi
  0001b	89 75 fc	 mov	 DWORD PTR __$EHRec$[ebp+8], esi
  0001e	3b c6		 cmp	 eax, esi
  00020	74 0a		 je	 SHORT $LN7@InitAniSta
  00022	56		 push	 esi
  00023	8b c8		 mov	 ecx, eax
  00025	e8 00 00 00 00	 call	 ??0FSMState@@QAE@H@Z	; FSMState::FSMState
  0002a	8b f0		 mov	 esi, eax
$LN7@InitAniSta:
  0002c	83 4d fc ff	 or	 DWORD PTR __$EHRec$[ebp+8], -1

; 1439 : 	if( pState )

  00030	33 ff		 xor	 edi, edi
  00032	47		 inc	 edi
  00033	85 f6		 test	 esi, esi
  00035	74 0b		 je	 SHORT $LN4@InitAniSta

; 1440 : 		pState->Add( AT_ALPHA_IN,  AT_ALPHA_IN );

  00037	6a ff		 push	 -1
  00039	57		 push	 edi
  0003a	57		 push	 edi
  0003b	8b ce		 mov	 ecx, esi
  0003d	e8 00 00 00 00	 call	 ?Add@FSMState@@QAEXHHH@Z ; FSMState::Add
$LN4@InitAniSta:

; 1441 : 	m_AniState.Add( pState );

  00042	8d 8b 60 01 00
	00		 lea	 ecx, DWORD PTR [ebx+352]
  00048	56		 push	 esi
  00049	89 4d f0	 mov	 DWORD PTR tv194[ebp], ecx
  0004c	e8 00 00 00 00	 call	 ?Add@FSMStateMgr@@QAEXPAVFSMState@@@Z ; FSMStateMgr::Add

; 1442 : 
; 1443 : 	pState = new FSMState(AT_ALPHA_IN);

  00051	6a 38		 push	 56			; 00000038H
  00053	e8 00 00 00 00	 call	 ??2@YAPAXI@Z		; operator new
  00058	59		 pop	 ecx
  00059	89 45 ec	 mov	 DWORD PTR $T536413[ebp], eax
  0005c	89 7d fc	 mov	 DWORD PTR __$EHRec$[ebp+8], edi
  0005f	85 c0		 test	 eax, eax
  00061	74 0c		 je	 SHORT $LN9@InitAniSta
  00063	57		 push	 edi
  00064	8b c8		 mov	 ecx, eax
  00066	e8 00 00 00 00	 call	 ??0FSMState@@QAE@H@Z	; FSMState::FSMState
  0006b	8b f0		 mov	 esi, eax
  0006d	eb 02		 jmp	 SHORT $LN10@InitAniSta
$LN9@InitAniSta:
  0006f	33 f6		 xor	 esi, esi
$LN10@InitAniSta:
  00071	83 4d fc ff	 or	 DWORD PTR __$EHRec$[ebp+8], -1

; 1444 : 	if( pState )

  00075	6a 02		 push	 2
  00077	5b		 pop	 ebx
  00078	85 f6		 test	 esi, esi
  0007a	74 1e		 je	 SHORT $LN19@InitAniSta

; 1445 : 	{
; 1446 : 		pState->Add( AT_ALPHA_IN, AT_NORMAL, DELAY_ALPHA );

  0007c	68 f4 01 00 00	 push	 500			; 000001f4H
  00081	53		 push	 ebx
  00082	57		 push	 edi
  00083	8b ce		 mov	 ecx, esi
  00085	e8 00 00 00 00	 call	 ?Add@FSMState@@QAEXHHH@Z ; FSMState::Add

; 1447 : 		pState->Add( AT_ALPHA_OUT, AT_ALPHA_OUT );

  0008a	6a ff		 push	 -1
  0008c	6a 03		 push	 3
  0008e	5f		 pop	 edi
  0008f	57		 push	 edi
  00090	57		 push	 edi
  00091	8b ce		 mov	 ecx, esi
  00093	e8 00 00 00 00	 call	 ?Add@FSMState@@QAEXHHH@Z ; FSMState::Add
  00098	eb 03		 jmp	 SHORT $LN3@InitAniSta
$LN19@InitAniSta:
  0009a	6a 03		 push	 3
  0009c	5f		 pop	 edi
$LN3@InitAniSta:

; 1448 : 	}
; 1449 : 	m_AniState.Add( pState );	

  0009d	56		 push	 esi
  0009e	8b 75 f0	 mov	 esi, DWORD PTR tv194[ebp]
  000a1	8b ce		 mov	 ecx, esi
  000a3	e8 00 00 00 00	 call	 ?Add@FSMStateMgr@@QAEXPAVFSMState@@@Z ; FSMStateMgr::Add

; 1450 : 
; 1451 : 	pState = new FSMState(AT_NORMAL);

  000a8	6a 38		 push	 56			; 00000038H
  000aa	e8 00 00 00 00	 call	 ??2@YAPAXI@Z		; operator new
  000af	59		 pop	 ecx
  000b0	89 45 ec	 mov	 DWORD PTR $T536417[ebp], eax
  000b3	89 5d fc	 mov	 DWORD PTR __$EHRec$[ebp+8], ebx
  000b6	85 c0		 test	 eax, eax
  000b8	74 0c		 je	 SHORT $LN11@InitAniSta
  000ba	53		 push	 ebx
  000bb	8b c8		 mov	 ecx, eax
  000bd	e8 00 00 00 00	 call	 ??0FSMState@@QAE@H@Z	; FSMState::FSMState
  000c2	8b d8		 mov	 ebx, eax
  000c4	eb 02		 jmp	 SHORT $LN12@InitAniSta
$LN11@InitAniSta:
  000c6	33 db		 xor	 ebx, ebx
$LN12@InitAniSta:
  000c8	83 4d fc ff	 or	 DWORD PTR __$EHRec$[ebp+8], -1

; 1452 : 	if( pState )

  000cc	85 db		 test	 ebx, ebx
  000ce	74 0b		 je	 SHORT $LN2@InitAniSta

; 1453 : 	{
; 1454 : 		pState->Add( AT_ALPHA_OUT, AT_ALPHA_OUT );

  000d0	6a ff		 push	 -1
  000d2	57		 push	 edi
  000d3	57		 push	 edi
  000d4	8b cb		 mov	 ecx, ebx
  000d6	e8 00 00 00 00	 call	 ?Add@FSMState@@QAEXHHH@Z ; FSMState::Add
$LN2@InitAniSta:

; 1455 : 	}
; 1456 : 	m_AniState.Add( pState );	

  000db	53		 push	 ebx
  000dc	8b ce		 mov	 ecx, esi
  000de	e8 00 00 00 00	 call	 ?Add@FSMStateMgr@@QAEXPAVFSMState@@@Z ; FSMStateMgr::Add

; 1457 : 
; 1458 : 	pState = new FSMState(AT_ALPHA_OUT);

  000e3	6a 38		 push	 56			; 00000038H
  000e5	e8 00 00 00 00	 call	 ??2@YAPAXI@Z		; operator new
  000ea	59		 pop	 ecx
  000eb	89 45 ec	 mov	 DWORD PTR $T536421[ebp], eax
  000ee	89 7d fc	 mov	 DWORD PTR __$EHRec$[ebp+8], edi
  000f1	85 c0		 test	 eax, eax
  000f3	74 0c		 je	 SHORT $LN13@InitAniSta
  000f5	57		 push	 edi
  000f6	8b c8		 mov	 ecx, eax
  000f8	e8 00 00 00 00	 call	 ??0FSMState@@QAE@H@Z	; FSMState::FSMState
  000fd	8b d8		 mov	 ebx, eax
  000ff	eb 02		 jmp	 SHORT $LN14@InitAniSta
$LN13@InitAniSta:
  00101	33 db		 xor	 ebx, ebx
$LN14@InitAniSta:
  00103	83 4d fc ff	 or	 DWORD PTR __$EHRec$[ebp+8], -1

; 1459 : 	if( pState )

  00107	85 db		 test	 ebx, ebx
  00109	74 0f		 je	 SHORT $LN1@InitAniSta

; 1460 : 	{
; 1461 : 		pState->Add( AT_ALPHA_OUT, AT_HIDE, DELAY_ALPHA );

  0010b	68 f4 01 00 00	 push	 500			; 000001f4H
  00110	6a 04		 push	 4
  00112	57		 push	 edi
  00113	8b cb		 mov	 ecx, ebx
  00115	e8 00 00 00 00	 call	 ?Add@FSMState@@QAEXHHH@Z ; FSMState::Add
$LN1@InitAniSta:

; 1462 : 	}
; 1463 : 	m_AniState.Add( pState );	

  0011a	53		 push	 ebx
  0011b	8b ce		 mov	 ecx, esi
  0011d	e8 00 00 00 00	 call	 ?Add@FSMStateMgr@@QAEXPAVFSMState@@@Z ; FSMStateMgr::Add

; 1464 : 
; 1465 : 	m_AniState.SetCurState( AT_NONE );

  00122	6a 00		 push	 0
  00124	8b ce		 mov	 ecx, esi
  00126	e8 00 00 00 00	 call	 ?SetCurState@FSMStateMgr@@QAEXH@Z ; FSMStateMgr::SetCurState

; 1466 : }

  0012b	e8 00 00 00 00	 call	 __EH_epilog3
  00130	c3		 ret	 0
_TEXT	ENDS
;	COMDAT text$x
text$x	SEGMENT
__unwindfunclet$?InitAniState@SelectCharControlWnd@@IAEXXZ$0:
  00000	ff 75 f0	 push	 DWORD PTR $T536409[ebp]
  00003	e8 00 00 00 00	 call	 ??3@YAXPAX@Z		; operator delete
  00008	59		 pop	 ecx
  00009	c3		 ret	 0
__unwindfunclet$?InitAniState@SelectCharControlWnd@@IAEXXZ$1:
  0000a	ff 75 ec	 push	 DWORD PTR $T536413[ebp]
  0000d	e8 00 00 00 00	 call	 ??3@YAXPAX@Z		; operator delete
  00012	59		 pop	 ecx
  00013	c3		 ret	 0
__unwindfunclet$?InitAniState@SelectCharControlWnd@@IAEXXZ$2:
  00014	ff 75 ec	 push	 DWORD PTR $T536417[ebp]
  00017	e8 00 00 00 00	 call	 ??3@YAXPAX@Z		; operator delete
  0001c	59		 pop	 ecx
  0001d	c3		 ret	 0
__unwindfunclet$?InitAniState@SelectCharControlWnd@@IAEXXZ$3:
  0001e	ff 75 ec	 push	 DWORD PTR $T536421[ebp]
  00021	e8 00 00 00 00	 call	 ??3@YAXPAX@Z		; operator delete
  00026	59		 pop	 ecx
  00027	c3		 ret	 0
__ehhandler$?InitAniState@SelectCharControlWnd@@IAEXXZ:
  00028	8b 54 24 08	 mov	 edx, DWORD PTR [esp+8]
  0002c	8d 42 0c	 lea	 eax, DWORD PTR [edx+12]
  0002f	8b 4a e8	 mov	 ecx, DWORD PTR [edx-24]
  00032	33 c8		 xor	 ecx, eax
  00034	e8 00 00 00 00	 call	 @__security_check_cookie@4
  00039	b8 00 00 00 00	 mov	 eax, OFFSET __ehfuncinfo$?InitAniState@SelectCharControlWnd@@IAEXXZ
  0003e	e9 00 00 00 00	 jmp	 ___CxxFrameHandler3
text$x	ENDS
?InitAniState@SelectCharControlWnd@@IAEXXZ ENDP		; SelectCharControlWnd::InitAniState
EXTRN	__imp_?HideChildWnd@ioWnd@@QAEXK_N@Z:PROC
; Function compile flags: /Ogsp
;	COMDAT ?iwm_show@SelectCharControlWnd@@UAEXXZ
_TEXT	SEGMENT
?iwm_show@SelectCharControlWnd@@UAEXXZ PROC		; SelectCharControlWnd::iwm_show, COMDAT
; _this$ = ecx

; 1469 : {

  00000	56		 push	 esi
  00001	8b f1		 mov	 esi, ecx

; 1470 : 	m_AniState.SetCurState( AT_ALPHA_IN );

  00003	6a 01		 push	 1
  00005	8d 8e 60 01 00
	00		 lea	 ecx, DWORD PTR [esi+352]
  0000b	e8 00 00 00 00	 call	 ?SetCurState@FSMStateMgr@@QAEXH@Z ; FSMStateMgr::SetCurState

; 1471 : 	HideChildWnd( ID_DEFAULT_POS_BTN );

  00010	6a 00		 push	 0
  00012	6a 03		 push	 3
  00014	8b ce		 mov	 ecx, esi
  00016	ff 15 00 00 00
	00		 call	 DWORD PTR __imp_?HideChildWnd@ioWnd@@QAEXK_N@Z
  0001c	5e		 pop	 esi

; 1472 : }

  0001d	c3		 ret	 0
?iwm_show@SelectCharControlWnd@@UAEXXZ ENDP		; SelectCharControlWnd::iwm_show
; Function compile flags: /Ogsp
_TEXT	ENDS
;	COMDAT ?iwm_hide@SelectCharControlWnd@@UAEXXZ
_TEXT	SEGMENT
?iwm_hide@SelectCharControlWnd@@UAEXXZ PROC		; SelectCharControlWnd::iwm_hide, COMDAT
; _this$ = ecx

; 1476 : 	m_AniState.SetCurState( AT_NONE );

  00000	6a 00		 push	 0
  00002	81 c1 60 01 00
	00		 add	 ecx, 352		; 00000160H
  00008	e8 00 00 00 00	 call	 ?SetCurState@FSMStateMgr@@QAEXH@Z ; FSMStateMgr::SetCurState

; 1477 : }

  0000d	c3		 ret	 0
?iwm_hide@SelectCharControlWnd@@UAEXXZ ENDP		; SelectCharControlWnd::iwm_hide
_TEXT	ENDS
PUBLIC	??_R0?AVNewShopHelpControlBtn@@@8		; NewShopHelpControlBtn `RTTI Type Descriptor'
PUBLIC	?SetChildAlpha@SelectCharControlWnd@@IAEXH@Z	; SelectCharControlWnd::SetChildAlpha
EXTRN	?SetBtnAlphaRate@NewShopHelpControlBtn@@QAEXH@Z:PROC ; NewShopHelpControlBtn::SetBtnAlphaRate
EXTRN	___RTDynamicCast:PROC
;	COMDAT ??_R0?AVNewShopHelpControlBtn@@@8
_DATA	SEGMENT
??_R0?AVNewShopHelpControlBtn@@@8 DD FLAT:??_7type_info@@6B@ ; NewShopHelpControlBtn `RTTI Type Descriptor'
	DD	00H
	DB	'.?AVNewShopHelpControlBtn@@', 00H
; Function compile flags: /Ogsp
_DATA	ENDS
;	COMDAT ?SetChildAlpha@SelectCharControlWnd@@IAEXH@Z
_TEXT	SEGMENT
_iAlphaRate$ = 8					; size = 4
?SetChildAlpha@SelectCharControlWnd@@IAEXH@Z PROC	; SelectCharControlWnd::SetChildAlpha, COMDAT
; _this$ = ecx

; 1510 : {

  00000	55		 push	 ebp
  00001	8b ec		 mov	 ebp, esp
  00003	56		 push	 esi
  00004	57		 push	 edi
  00005	8b f9		 mov	 edi, ecx

; 1511 : 	for (int i = 0; i < MAX_BTN ; i++)

  00007	33 f6		 xor	 esi, esi
$LL4@SetChildAl:

; 1512 : 	{
; 1513 : 		NewShopHelpControlBtn *pBtn = dynamic_cast<NewShopHelpControlBtn*> ( FindChildWnd( ID_LEFT_ROTATE_BTN + i ) );

  00009	6a 00		 push	 0
  0000b	68 00 00 00 00	 push	 OFFSET ??_R0?AVNewShopHelpControlBtn@@@8
  00010	68 00 00 00 00	 push	 OFFSET ??_R0?AVioWnd@@@8
  00015	6a 00		 push	 0
  00017	46		 inc	 esi
  00018	56		 push	 esi
  00019	8b cf		 mov	 ecx, edi
  0001b	ff 15 00 00 00
	00		 call	 DWORD PTR __imp_?FindChildWnd@ioWnd@@QAEPAV1@K@Z
  00021	50		 push	 eax
  00022	e8 00 00 00 00	 call	 ___RTDynamicCast
  00027	83 c4 14	 add	 esp, 20			; 00000014H

; 1514 : 		if( !pBtn )

  0002a	85 c0		 test	 eax, eax
  0002c	74 0a		 je	 SHORT $LN3@SetChildAl

; 1515 : 			continue;
; 1516 : 		pBtn->SetBtnAlphaRate( iAlphaRate );

  0002e	ff 75 08	 push	 DWORD PTR _iAlphaRate$[ebp]
  00031	8b c8		 mov	 ecx, eax
  00033	e8 00 00 00 00	 call	 ?SetBtnAlphaRate@NewShopHelpControlBtn@@QAEXH@Z ; NewShopHelpControlBtn::SetBtnAlphaRate
$LN3@SetChildAl:

; 1511 : 	for (int i = 0; i < MAX_BTN ; i++)

  00038	83 fe 03	 cmp	 esi, 3
  0003b	7c cc		 jl	 SHORT $LL4@SetChildAl
  0003d	5f		 pop	 edi
  0003e	5e		 pop	 esi

; 1517 : 	}
; 1518 : }

  0003f	5d		 pop	 ebp
  00040	c2 04 00	 ret	 4
?SetChildAlpha@SelectCharControlWnd@@IAEXH@Z ENDP	; SelectCharControlWnd::SetChildAlpha
_TEXT	ENDS
PUBLIC	?HideWndAnimation@SelectCharControlWnd@@QAEXXZ	; SelectCharControlWnd::HideWndAnimation
EXTRN	?ChangeState@FSMStateMgr@@QAEHH@Z:PROC		; FSMStateMgr::ChangeState
; Function compile flags: /Ogsp
;	COMDAT ?HideWndAnimation@SelectCharControlWnd@@QAEXXZ
_TEXT	SEGMENT
?HideWndAnimation@SelectCharControlWnd@@QAEXXZ PROC	; SelectCharControlWnd::HideWndAnimation, COMDAT
; _this$ = ecx

; 1521 : {

  00000	56		 push	 esi
  00001	8b f1		 mov	 esi, ecx

; 1522 : 	if( !IsShow() )

  00003	ff 15 00 00 00
	00		 call	 DWORD PTR __imp_?IsShow@ioWnd@@QBE_NXZ
  00009	84 c0		 test	 al, al
  0000b	74 0d		 je	 SHORT $LN2@HideWndAni

; 1523 : 		return;
; 1524 : 	m_AniState.ChangeState( AT_ALPHA_OUT );

  0000d	6a 03		 push	 3
  0000f	8d 8e 60 01 00
	00		 lea	 ecx, DWORD PTR [esi+352]
  00015	e8 00 00 00 00	 call	 ?ChangeState@FSMStateMgr@@QAEHH@Z ; FSMStateMgr::ChangeState
$LN2@HideWndAni:
  0001a	5e		 pop	 esi

; 1525 : }

  0001b	c3		 ret	 0
?HideWndAnimation@SelectCharControlWnd@@QAEXXZ ENDP	; SelectCharControlWnd::HideWndAnimation
_TEXT	ENDS
PUBLIC	?GetSingleton@?$Singleton@VioEtcItemManager@@@@SAAAVioEtcItemManager@@XZ ; Singleton<ioEtcItemManager>::GetSingleton
EXTRN	?ms_Singleton@?$Singleton@VioEtcItemManager@@@@1PAVioEtcItemManager@@A:DWORD ; Singleton<ioEtcItemManager>::ms_Singleton
; Function compile flags: /Ogsp
; File d:\lost saga for developer\youtube\tutorial\source\src\io3dengine\iosingleton.h
;	COMDAT ?GetSingleton@?$Singleton@VioEtcItemManager@@@@SAAAVioEtcItemManager@@XZ
_TEXT	SEGMENT
?GetSingleton@?$Singleton@VioEtcItemManager@@@@SAAAVioEtcItemManager@@XZ PROC ; Singleton<ioEtcItemManager>::GetSingleton, COMDAT

; 42   : 		assert( ms_Singleton );
; 43   : 		return (*ms_Singleton);

  00000	a1 00 00 00 00	 mov	 eax, DWORD PTR ?ms_Singleton@?$Singleton@VioEtcItemManager@@@@1PAVioEtcItemManager@@A ; Singleton<ioEtcItemManager>::ms_Singleton

; 44   : 	}

  00005	c3		 ret	 0
?GetSingleton@?$Singleton@VioEtcItemManager@@@@SAAAVioEtcItemManager@@XZ ENDP ; Singleton<ioEtcItemManager>::GetSingleton
_TEXT	ENDS
PUBLIC	?size@?$vector@UPCRoomSoldierSelect@ExPCRoomSoldierBonusWnd@@V?$allocator@UPCRoomSoldierSelect@ExPCRoomSoldierBonusWnd@@@std@@@std@@QBEIXZ ; std::vector<ExPCRoomSoldierBonusWnd::PCRoomSoldierSelect,std::allocator<ExPCRoomSoldierBonusWnd::PCRoomSoldierSelect> >::size
; Function compile flags: /Ogsp
; File c:\program files (x86)\microsoft visual studio 10.0\vc\include\vector
;	COMDAT ?size@?$vector@UPCRoomSoldierSelect@ExPCRoomSoldierBonusWnd@@V?$allocator@UPCRoomSoldierSelect@ExPCRoomSoldierBonusWnd@@@std@@@std@@QBEIXZ
_TEXT	SEGMENT
?size@?$vector@UPCRoomSoldierSelect@ExPCRoomSoldierBonusWnd@@V?$allocator@UPCRoomSoldierSelect@ExPCRoomSoldierBonusWnd@@@std@@@std@@QBEIXZ PROC ; std::vector<ExPCRoomSoldierBonusWnd::PCRoomSoldierSelect,std::allocator<ExPCRoomSoldierBonusWnd::PCRoomSoldierSelect> >::size, COMDAT
; _this$ = ecx

; 879  : 		return (this->_Mylast - this->_Myfirst);

  00000	8b 41 04	 mov	 eax, DWORD PTR [ecx+4]
  00003	2b 01		 sub	 eax, DWORD PTR [ecx]
  00005	c1 f8 03	 sar	 eax, 3

; 880  : 		}

  00008	c3		 ret	 0
?size@?$vector@UPCRoomSoldierSelect@ExPCRoomSoldierBonusWnd@@V?$allocator@UPCRoomSoldierSelect@ExPCRoomSoldierBonusWnd@@@std@@@std@@QBEIXZ ENDP ; std::vector<ExPCRoomSoldierBonusWnd::PCRoomSoldierSelect,std::allocator<ExPCRoomSoldierBonusWnd::PCRoomSoldierSelect> >::size
_TEXT	ENDS
PUBLIC	??A?$vector@UPCRoomSoldierSelect@ExPCRoomSoldierBonusWnd@@V?$allocator@UPCRoomSoldierSelect@ExPCRoomSoldierBonusWnd@@@std@@@std@@QAEAAUPCRoomSoldierSelect@ExPCRoomSoldierBonusWnd@@I@Z ; std::vector<ExPCRoomSoldierBonusWnd::PCRoomSoldierSelect,std::allocator<ExPCRoomSoldierBonusWnd::PCRoomSoldierSelect> >::operator[]
; Function compile flags: /Ogsp
;	COMDAT ??A?$vector@UPCRoomSoldierSelect@ExPCRoomSoldierBonusWnd@@V?$allocator@UPCRoomSoldierSelect@ExPCRoomSoldierBonusWnd@@@std@@@std@@QAEAAUPCRoomSoldierSelect@ExPCRoomSoldierBonusWnd@@I@Z
_TEXT	SEGMENT
__Pos$ = 8						; size = 4
??A?$vector@UPCRoomSoldierSelect@ExPCRoomSoldierBonusWnd@@V?$allocator@UPCRoomSoldierSelect@ExPCRoomSoldierBonusWnd@@@std@@@std@@QAEAAUPCRoomSoldierSelect@ExPCRoomSoldierBonusWnd@@I@Z PROC ; std::vector<ExPCRoomSoldierBonusWnd::PCRoomSoldierSelect,std::allocator<ExPCRoomSoldierBonusWnd::PCRoomSoldierSelect> >::operator[], COMDAT
; _this$ = ecx

; 928  : 		{	// subscript mutable sequence

  00000	55		 push	 ebp
  00001	8b ec		 mov	 ebp, esp

; 929  :  #if _ITERATOR_DEBUG_LEVEL == 2
; 930  : 		if (size() <= _Pos)
; 931  : 			{	// report error
; 932  : 			_DEBUG_ERROR("vector subscript out of range");
; 933  : 			_SCL_SECURE_OUT_OF_RANGE;
; 934  : 			}
; 935  : 
; 936  :  #elif _ITERATOR_DEBUG_LEVEL == 1
; 937  : 		_SCL_SECURE_VALIDATE_RANGE(_Pos < size());
; 938  :  #endif /* _ITERATOR_DEBUG_LEVEL */
; 939  : 
; 940  : 		return (*(this->_Myfirst + _Pos));

  00003	8b 01		 mov	 eax, DWORD PTR [ecx]
  00005	8b 4d 08	 mov	 ecx, DWORD PTR __Pos$[ebp]
  00008	8d 04 c8	 lea	 eax, DWORD PTR [eax+ecx*8]

; 941  : 		}

  0000b	5d		 pop	 ebp
  0000c	c2 04 00	 ret	 4
??A?$vector@UPCRoomSoldierSelect@ExPCRoomSoldierBonusWnd@@V?$allocator@UPCRoomSoldierSelect@ExPCRoomSoldierBonusWnd@@@std@@@std@@QAEAAUPCRoomSoldierSelect@ExPCRoomSoldierBonusWnd@@I@Z ENDP ; std::vector<ExPCRoomSoldierBonusWnd::PCRoomSoldierSelect,std::allocator<ExPCRoomSoldierBonusWnd::PCRoomSoldierSelect> >::operator[]
_TEXT	ENDS
PUBLIC	?empty@?$vector@UPCRoomSoldierSelect@ExPCRoomSoldierBonusWnd@@V?$allocator@UPCRoomSoldierSelect@ExPCRoomSoldierBonusWnd@@@std@@@std@@QBE_NXZ ; std::vector<ExPCRoomSoldierBonusWnd::PCRoomSoldierSelect,std::allocator<ExPCRoomSoldierBonusWnd::PCRoomSoldierSelect> >::empty
; Function compile flags: /Ogsp
;	COMDAT ?empty@?$vector@UPCRoomSoldierSelect@ExPCRoomSoldierBonusWnd@@V?$allocator@UPCRoomSoldierSelect@ExPCRoomSoldierBonusWnd@@@std@@@std@@QBE_NXZ
_TEXT	SEGMENT
?empty@?$vector@UPCRoomSoldierSelect@ExPCRoomSoldierBonusWnd@@V?$allocator@UPCRoomSoldierSelect@ExPCRoomSoldierBonusWnd@@@std@@@std@@QBE_NXZ PROC ; std::vector<ExPCRoomSoldierBonusWnd::PCRoomSoldierSelect,std::allocator<ExPCRoomSoldierBonusWnd::PCRoomSoldierSelect> >::empty, COMDAT
; _this$ = ecx

; 889  : 		return (this->_Myfirst == this->_Mylast);

  00000	8b 01		 mov	 eax, DWORD PTR [ecx]
  00002	2b 41 04	 sub	 eax, DWORD PTR [ecx+4]
  00005	f7 d8		 neg	 eax
  00007	1b c0		 sbb	 eax, eax
  00009	40		 inc	 eax

; 890  : 		}

  0000a	c3		 ret	 0
?empty@?$vector@UPCRoomSoldierSelect@ExPCRoomSoldierBonusWnd@@V?$allocator@UPCRoomSoldierSelect@ExPCRoomSoldierBonusWnd@@@std@@@std@@QBE_NXZ ENDP ; std::vector<ExPCRoomSoldierBonusWnd::PCRoomSoldierSelect,std::allocator<ExPCRoomSoldierBonusWnd::PCRoomSoldierSelect> >::empty
_TEXT	ENDS
PUBLIC	?_Inside@?$vector@UPCRoomSoldierSelect@ExPCRoomSoldierBonusWnd@@V?$allocator@UPCRoomSoldierSelect@ExPCRoomSoldierBonusWnd@@@std@@@std@@IBE_NPBUPCRoomSoldierSelect@ExPCRoomSoldierBonusWnd@@@Z ; std::vector<ExPCRoomSoldierBonusWnd::PCRoomSoldierSelect,std::allocator<ExPCRoomSoldierBonusWnd::PCRoomSoldierSelect> >::_Inside
; Function compile flags: /Ogsp
;	COMDAT ?_Inside@?$vector@UPCRoomSoldierSelect@ExPCRoomSoldierBonusWnd@@V?$allocator@UPCRoomSoldierSelect@ExPCRoomSoldierBonusWnd@@@std@@@std@@IBE_NPBUPCRoomSoldierSelect@ExPCRoomSoldierBonusWnd@@@Z
_TEXT	SEGMENT
__Ptr$ = 8						; size = 4
?_Inside@?$vector@UPCRoomSoldierSelect@ExPCRoomSoldierBonusWnd@@V?$allocator@UPCRoomSoldierSelect@ExPCRoomSoldierBonusWnd@@@std@@@std@@IBE_NPBUPCRoomSoldierSelect@ExPCRoomSoldierBonusWnd@@@Z PROC ; std::vector<ExPCRoomSoldierBonusWnd::PCRoomSoldierSelect,std::allocator<ExPCRoomSoldierBonusWnd::PCRoomSoldierSelect> >::_Inside, COMDAT
; _this$ = ecx

; 1285 : 		{	// test if _Ptr points inside vector

  00000	55		 push	 ebp
  00001	8b ec		 mov	 ebp, esp

; 1286 : 		return (_Ptr < this->_Mylast && this->_Myfirst <= _Ptr);

  00003	8b 45 08	 mov	 eax, DWORD PTR __Ptr$[ebp]
  00006	3b 41 04	 cmp	 eax, DWORD PTR [ecx+4]
  00009	73 09		 jae	 SHORT $LN3@Inside
  0000b	39 01		 cmp	 DWORD PTR [ecx], eax
  0000d	77 05		 ja	 SHORT $LN3@Inside
  0000f	33 c0		 xor	 eax, eax
  00011	40		 inc	 eax
  00012	eb 02		 jmp	 SHORT $LN4@Inside
$LN3@Inside:
  00014	33 c0		 xor	 eax, eax
$LN4@Inside:

; 1287 : 		}

  00016	5d		 pop	 ebp
  00017	c2 04 00	 ret	 4
?_Inside@?$vector@UPCRoomSoldierSelect@ExPCRoomSoldierBonusWnd@@V?$allocator@UPCRoomSoldierSelect@ExPCRoomSoldierBonusWnd@@@std@@@std@@IBE_NPBUPCRoomSoldierSelect@ExPCRoomSoldierBonusWnd@@@Z ENDP ; std::vector<ExPCRoomSoldierBonusWnd::PCRoomSoldierSelect,std::allocator<ExPCRoomSoldierBonusWnd::PCRoomSoldierSelect> >::_Inside
_TEXT	ENDS
PUBLIC	?_Orphan_range@?$vector@UPCRoomSoldierSelect@ExPCRoomSoldierBonusWnd@@V?$allocator@UPCRoomSoldierSelect@ExPCRoomSoldierBonusWnd@@@std@@@std@@IBEXPAUPCRoomSoldierSelect@ExPCRoomSoldierBonusWnd@@0@Z ; std::vector<ExPCRoomSoldierBonusWnd::PCRoomSoldierSelect,std::allocator<ExPCRoomSoldierBonusWnd::PCRoomSoldierSelect> >::_Orphan_range
; Function compile flags: /Ogsp
;	COMDAT ?_Orphan_range@?$vector@UPCRoomSoldierSelect@ExPCRoomSoldierBonusWnd@@V?$allocator@UPCRoomSoldierSelect@ExPCRoomSoldierBonusWnd@@@std@@@std@@IBEXPAUPCRoomSoldierSelect@ExPCRoomSoldierBonusWnd@@0@Z
_TEXT	SEGMENT
___formal$ = 8						; size = 4
___formal$ = 12						; size = 4
?_Orphan_range@?$vector@UPCRoomSoldierSelect@ExPCRoomSoldierBonusWnd@@V?$allocator@UPCRoomSoldierSelect@ExPCRoomSoldierBonusWnd@@@std@@@std@@IBEXPAUPCRoomSoldierSelect@ExPCRoomSoldierBonusWnd@@0@Z PROC ; std::vector<ExPCRoomSoldierBonusWnd::PCRoomSoldierSelect,std::allocator<ExPCRoomSoldierBonusWnd::PCRoomSoldierSelect> >::_Orphan_range, COMDAT
; _this$ = ecx

; 1454 : 		}

  00000	c2 08 00	 ret	 8
?_Orphan_range@?$vector@UPCRoomSoldierSelect@ExPCRoomSoldierBonusWnd@@V?$allocator@UPCRoomSoldierSelect@ExPCRoomSoldierBonusWnd@@@std@@@std@@IBEXPAUPCRoomSoldierSelect@ExPCRoomSoldierBonusWnd@@0@Z ENDP ; std::vector<ExPCRoomSoldierBonusWnd::PCRoomSoldierSelect,std::allocator<ExPCRoomSoldierBonusWnd::PCRoomSoldierSelect> >::_Orphan_range
_TEXT	ENDS
PUBLIC	??1?$_Vector_val@UPCRoomSoldierSelect@ExPCRoomSoldierBonusWnd@@V?$allocator@UPCRoomSoldierSelect@ExPCRoomSoldierBonusWnd@@@std@@@std@@QAE@XZ ; std::_Vector_val<ExPCRoomSoldierBonusWnd::PCRoomSoldierSelect,std::allocator<ExPCRoomSoldierBonusWnd::PCRoomSoldierSelect> >::~_Vector_val<ExPCRoomSoldierBonusWnd::PCRoomSoldierSelect,std::allocator<ExPCRoomSoldierBonusWnd::PCRoomSoldierSelect> >
; Function compile flags: /Ogsp
;	COMDAT ??1?$_Vector_val@UPCRoomSoldierSelect@ExPCRoomSoldierBonusWnd@@V?$allocator@UPCRoomSoldierSelect@ExPCRoomSoldierBonusWnd@@@std@@@std@@QAE@XZ
_TEXT	SEGMENT
??1?$_Vector_val@UPCRoomSoldierSelect@ExPCRoomSoldierBonusWnd@@V?$allocator@UPCRoomSoldierSelect@ExPCRoomSoldierBonusWnd@@@std@@@std@@QAE@XZ PROC ; std::_Vector_val<ExPCRoomSoldierBonusWnd::PCRoomSoldierSelect,std::allocator<ExPCRoomSoldierBonusWnd::PCRoomSoldierSelect> >::~_Vector_val<ExPCRoomSoldierBonusWnd::PCRoomSoldierSelect,std::allocator<ExPCRoomSoldierBonusWnd::PCRoomSoldierSelect> >, COMDAT
; _this$ = ecx

; 434  : 		}

  00000	c3		 ret	 0
??1?$_Vector_val@UPCRoomSoldierSelect@ExPCRoomSoldierBonusWnd@@V?$allocator@UPCRoomSoldierSelect@ExPCRoomSoldierBonusWnd@@@std@@@std@@QAE@XZ ENDP ; std::_Vector_val<ExPCRoomSoldierBonusWnd::PCRoomSoldierSelect,std::allocator<ExPCRoomSoldierBonusWnd::PCRoomSoldierSelect> >::~_Vector_val<ExPCRoomSoldierBonusWnd::PCRoomSoldierSelect,std::allocator<ExPCRoomSoldierBonusWnd::PCRoomSoldierSelect> >
_TEXT	ENDS
PUBLIC	??0?$allocator@UPCRoomSoldierSelect@ExPCRoomSoldierBonusWnd@@@std@@QAE@XZ ; std::allocator<ExPCRoomSoldierBonusWnd::PCRoomSoldierSelect>::allocator<ExPCRoomSoldierBonusWnd::PCRoomSoldierSelect>
; Function compile flags: /Ogsp
; File c:\program files (x86)\microsoft visual studio 10.0\vc\include\xmemory
;	COMDAT ??0?$allocator@UPCRoomSoldierSelect@ExPCRoomSoldierBonusWnd@@@std@@QAE@XZ
_TEXT	SEGMENT
??0?$allocator@UPCRoomSoldierSelect@ExPCRoomSoldierBonusWnd@@@std@@QAE@XZ PROC ; std::allocator<ExPCRoomSoldierBonusWnd::PCRoomSoldierSelect>::allocator<ExPCRoomSoldierBonusWnd::PCRoomSoldierSelect>, COMDAT
; _this$ = ecx

; 161  : 	_ALLOCATOR() _THROW0()

  00000	8b c1		 mov	 eax, ecx

; 162  : 		{	// construct default allocator (do nothing)
; 163  : 		}

  00002	c3		 ret	 0
??0?$allocator@UPCRoomSoldierSelect@ExPCRoomSoldierBonusWnd@@@std@@QAE@XZ ENDP ; std::allocator<ExPCRoomSoldierBonusWnd::PCRoomSoldierSelect>::allocator<ExPCRoomSoldierBonusWnd::PCRoomSoldierSelect>
_TEXT	ENDS
PUBLIC	??D?$_Vector_const_iterator@V?$_Vector_val@UPCRoomSoldierSelect@ExPCRoomSoldierBonusWnd@@V?$allocator@UPCRoomSoldierSelect@ExPCRoomSoldierBonusWnd@@@std@@@std@@@std@@QBEABUPCRoomSoldierSelect@ExPCRoomSoldierBonusWnd@@XZ ; std::_Vector_const_iterator<std::_Vector_val<ExPCRoomSoldierBonusWnd::PCRoomSoldierSelect,std::allocator<ExPCRoomSoldierBonusWnd::PCRoomSoldierSelect> > >::operator*
; Function compile flags: /Ogsp
; File c:\program files (x86)\microsoft visual studio 10.0\vc\include\vector
;	COMDAT ??D?$_Vector_const_iterator@V?$_Vector_val@UPCRoomSoldierSelect@ExPCRoomSoldierBonusWnd@@V?$allocator@UPCRoomSoldierSelect@ExPCRoomSoldierBonusWnd@@@std@@@std@@@std@@QBEABUPCRoomSoldierSelect@ExPCRoomSoldierBonusWnd@@XZ
_TEXT	SEGMENT
??D?$_Vector_const_iterator@V?$_Vector_val@UPCRoomSoldierSelect@ExPCRoomSoldierBonusWnd@@V?$allocator@UPCRoomSoldierSelect@ExPCRoomSoldierBonusWnd@@@std@@@std@@@std@@QBEABUPCRoomSoldierSelect@ExPCRoomSoldierBonusWnd@@XZ PROC ; std::_Vector_const_iterator<std::_Vector_val<ExPCRoomSoldierBonusWnd::PCRoomSoldierSelect,std::allocator<ExPCRoomSoldierBonusWnd::PCRoomSoldierSelect> > >::operator*, COMDAT
; _this$ = ecx

; 64   :  #if _ITERATOR_DEBUG_LEVEL == 2
; 65   : 		if (this->_Getcont() == 0
; 66   : 			|| this->_Ptr == 0
; 67   : 			|| this->_Ptr < ((_Myvec *)this->_Getcont())->_Myfirst
; 68   : 			|| ((_Myvec *)this->_Getcont())->_Mylast <= this->_Ptr)
; 69   : 			{	// report error
; 70   : 			_DEBUG_ERROR("vector iterator not dereferencable");
; 71   : 			_SCL_SECURE_OUT_OF_RANGE;
; 72   : 			}
; 73   : 
; 74   :  #elif _ITERATOR_DEBUG_LEVEL == 1
; 75   : 		_SCL_SECURE_VALIDATE(this->_Getcont() != 0);
; 76   : 		_SCL_SECURE_VALIDATE_RANGE(
; 77   : 			this->_Ptr != 0
; 78   : 			&& ((_Myvec *)this->_Getcont())->_Myfirst <= this->_Ptr
; 79   : 			&& this->_Ptr < ((_Myvec *)this->_Getcont())->_Mylast);
; 80   :  #endif /* _ITERATOR_DEBUG_LEVEL */
; 81   : 
; 82   : 		__analysis_assume(this->_Ptr != 0);
; 83   : 
; 84   : 		return (*this->_Ptr);

  00000	8b 01		 mov	 eax, DWORD PTR [ecx]

; 85   : 		}

  00002	c3		 ret	 0
??D?$_Vector_const_iterator@V?$_Vector_val@UPCRoomSoldierSelect@ExPCRoomSoldierBonusWnd@@V?$allocator@UPCRoomSoldierSelect@ExPCRoomSoldierBonusWnd@@@std@@@std@@@std@@QBEABUPCRoomSoldierSelect@ExPCRoomSoldierBonusWnd@@XZ ENDP ; std::_Vector_const_iterator<std::_Vector_val<ExPCRoomSoldierBonusWnd::PCRoomSoldierSelect,std::allocator<ExPCRoomSoldierBonusWnd::PCRoomSoldierSelect> > >::operator*
_TEXT	ENDS
PUBLIC	??E?$_Vector_const_iterator@V?$_Vector_val@UPCRoomSoldierSelect@ExPCRoomSoldierBonusWnd@@V?$allocator@UPCRoomSoldierSelect@ExPCRoomSoldierBonusWnd@@@std@@@std@@@std@@QAEAAV01@XZ ; std::_Vector_const_iterator<std::_Vector_val<ExPCRoomSoldierBonusWnd::PCRoomSoldierSelect,std::allocator<ExPCRoomSoldierBonusWnd::PCRoomSoldierSelect> > >::operator++
; Function compile flags: /Ogsp
;	COMDAT ??E?$_Vector_const_iterator@V?$_Vector_val@UPCRoomSoldierSelect@ExPCRoomSoldierBonusWnd@@V?$allocator@UPCRoomSoldierSelect@ExPCRoomSoldierBonusWnd@@@std@@@std@@@std@@QAEAAV01@XZ
_TEXT	SEGMENT
??E?$_Vector_const_iterator@V?$_Vector_val@UPCRoomSoldierSelect@ExPCRoomSoldierBonusWnd@@V?$allocator@UPCRoomSoldierSelect@ExPCRoomSoldierBonusWnd@@@std@@@std@@@std@@QAEAAV01@XZ PROC ; std::_Vector_const_iterator<std::_Vector_val<ExPCRoomSoldierBonusWnd::PCRoomSoldierSelect,std::allocator<ExPCRoomSoldierBonusWnd::PCRoomSoldierSelect> > >::operator++, COMDAT
; _this$ = ecx

; 93   : 		{	// preincrement

  00000	8b c1		 mov	 eax, ecx

; 94   :  #if _ITERATOR_DEBUG_LEVEL == 2
; 95   : 		if (this->_Getcont() == 0
; 96   : 			|| this->_Ptr == 0
; 97   : 			|| ((_Myvec *)this->_Getcont())->_Mylast <= this->_Ptr)
; 98   : 			{	// report error
; 99   : 			_DEBUG_ERROR("vector iterator not incrementable");
; 100  : 			_SCL_SECURE_OUT_OF_RANGE;
; 101  : 			}
; 102  : 
; 103  :  #elif _ITERATOR_DEBUG_LEVEL == 1
; 104  : 		_SCL_SECURE_VALIDATE(this->_Getcont() != 0);
; 105  : 		_SCL_SECURE_VALIDATE_RANGE(
; 106  : 			this->_Ptr != 0
; 107  : 			&& this->_Ptr < ((_Myvec *)this->_Getcont())->_Mylast);
; 108  :  #endif /* _ITERATOR_DEBUG_LEVEL */
; 109  : 
; 110  : 		++this->_Ptr;

  00002	83 00 08	 add	 DWORD PTR [eax], 8

; 111  : 		return (*this);
; 112  : 		}

  00005	c3		 ret	 0
??E?$_Vector_const_iterator@V?$_Vector_val@UPCRoomSoldierSelect@ExPCRoomSoldierBonusWnd@@V?$allocator@UPCRoomSoldierSelect@ExPCRoomSoldierBonusWnd@@@std@@@std@@@std@@QAEAAV01@XZ ENDP ; std::_Vector_const_iterator<std::_Vector_val<ExPCRoomSoldierBonusWnd::PCRoomSoldierSelect,std::allocator<ExPCRoomSoldierBonusWnd::PCRoomSoldierSelect> > >::operator++
_TEXT	ENDS
PUBLIC	?capacity@?$vector@UPCRoomSoldierSelect@ExPCRoomSoldierBonusWnd@@V?$allocator@UPCRoomSoldierSelect@ExPCRoomSoldierBonusWnd@@@std@@@std@@QBEIXZ ; std::vector<ExPCRoomSoldierBonusWnd::PCRoomSoldierSelect,std::allocator<ExPCRoomSoldierBonusWnd::PCRoomSoldierSelect> >::capacity
; Function compile flags: /Ogsp
;	COMDAT ?capacity@?$vector@UPCRoomSoldierSelect@ExPCRoomSoldierBonusWnd@@V?$allocator@UPCRoomSoldierSelect@ExPCRoomSoldierBonusWnd@@@std@@@std@@QBEIXZ
_TEXT	SEGMENT
?capacity@?$vector@UPCRoomSoldierSelect@ExPCRoomSoldierBonusWnd@@V?$allocator@UPCRoomSoldierSelect@ExPCRoomSoldierBonusWnd@@@std@@@std@@QBEIXZ PROC ; std::vector<ExPCRoomSoldierBonusWnd::PCRoomSoldierSelect,std::allocator<ExPCRoomSoldierBonusWnd::PCRoomSoldierSelect> >::capacity, COMDAT
; _this$ = ecx

; 777  : 		return (this->_Myend - this->_Myfirst);

  00000	8b 41 08	 mov	 eax, DWORD PTR [ecx+8]
  00003	2b 01		 sub	 eax, DWORD PTR [ecx]
  00005	c1 f8 03	 sar	 eax, 3

; 778  : 		}

  00008	c3		 ret	 0
?capacity@?$vector@UPCRoomSoldierSelect@ExPCRoomSoldierBonusWnd@@V?$allocator@UPCRoomSoldierSelect@ExPCRoomSoldierBonusWnd@@@std@@@std@@QBEIXZ ENDP ; std::vector<ExPCRoomSoldierBonusWnd::PCRoomSoldierSelect,std::allocator<ExPCRoomSoldierBonusWnd::PCRoomSoldierSelect> >::capacity
_TEXT	ENDS
PUBLIC	??_C@_0BD@OLBABOEK@vector?$DMT?$DO?5too?5long?$AA@ ; `string'
PUBLIC	?_Xlen@?$vector@UPCRoomSoldierSelect@ExPCRoomSoldierBonusWnd@@V?$allocator@UPCRoomSoldierSelect@ExPCRoomSoldierBonusWnd@@@std@@@std@@IBEXXZ ; std::vector<ExPCRoomSoldierBonusWnd::PCRoomSoldierSelect,std::allocator<ExPCRoomSoldierBonusWnd::PCRoomSoldierSelect> >::_Xlen
EXTRN	__imp_?_Xlength_error@std@@YAXPBD@Z:PROC
;	COMDAT ??_C@_0BD@OLBABOEK@vector?$DMT?$DO?5too?5long?$AA@
CONST	SEGMENT
??_C@_0BD@OLBABOEK@vector?$DMT?$DO?5too?5long?$AA@ DB 'vector<T> too long'
	DB	00H						; `string'
; Function compile flags: /Ogsp
CONST	ENDS
;	COMDAT ?_Xlen@?$vector@UPCRoomSoldierSelect@ExPCRoomSoldierBonusWnd@@V?$allocator@UPCRoomSoldierSelect@ExPCRoomSoldierBonusWnd@@@std@@@std@@IBEXXZ
_TEXT	SEGMENT
?_Xlen@?$vector@UPCRoomSoldierSelect@ExPCRoomSoldierBonusWnd@@V?$allocator@UPCRoomSoldierSelect@ExPCRoomSoldierBonusWnd@@@std@@@std@@IBEXXZ PROC ; std::vector<ExPCRoomSoldierBonusWnd::PCRoomSoldierSelect,std::allocator<ExPCRoomSoldierBonusWnd::PCRoomSoldierSelect> >::_Xlen, COMDAT
; _this$ = ecx

; 1427 : 		_Xlength_error("vector<T> too long");

  00000	68 00 00 00 00	 push	 OFFSET ??_C@_0BD@OLBABOEK@vector?$DMT?$DO?5too?5long?$AA@
  00005	ff 15 00 00 00
	00		 call	 DWORD PTR __imp_?_Xlength_error@std@@YAXPBD@Z
$LN4@Xlen:
$LN3@Xlen:
  0000b	cc		 int	 3
?_Xlen@?$vector@UPCRoomSoldierSelect@ExPCRoomSoldierBonusWnd@@V?$allocator@UPCRoomSoldierSelect@ExPCRoomSoldierBonusWnd@@@std@@@std@@IBEXXZ ENDP ; std::vector<ExPCRoomSoldierBonusWnd::PCRoomSoldierSelect,std::allocator<ExPCRoomSoldierBonusWnd::PCRoomSoldierSelect> >::_Xlen
_TEXT	ENDS
PUBLIC	??0?$allocator@UPCRoomSoldierSelect@ExPCRoomSoldierBonusWnd@@@std@@QAE@ABV01@@Z ; std::allocator<ExPCRoomSoldierBonusWnd::PCRoomSoldierSelect>::allocator<ExPCRoomSoldierBonusWnd::PCRoomSoldierSelect>
; Function compile flags: /Ogsp
; File c:\program files (x86)\microsoft visual studio 10.0\vc\include\xmemory
;	COMDAT ??0?$allocator@UPCRoomSoldierSelect@ExPCRoomSoldierBonusWnd@@@std@@QAE@ABV01@@Z
_TEXT	SEGMENT
___formal$ = 8						; size = 4
??0?$allocator@UPCRoomSoldierSelect@ExPCRoomSoldierBonusWnd@@@std@@QAE@ABV01@@Z PROC ; std::allocator<ExPCRoomSoldierBonusWnd::PCRoomSoldierSelect>::allocator<ExPCRoomSoldierBonusWnd::PCRoomSoldierSelect>, COMDAT
; _this$ = ecx

; 165  : 	_ALLOCATOR(const _ALLOCATOR<_Ty>&) _THROW0()

  00000	8b c1		 mov	 eax, ecx

; 166  : 		{	// construct by copying (do nothing)
; 167  : 		}

  00002	c2 04 00	 ret	 4
??0?$allocator@UPCRoomSoldierSelect@ExPCRoomSoldierBonusWnd@@@std@@QAE@ABV01@@Z ENDP ; std::allocator<ExPCRoomSoldierBonusWnd::PCRoomSoldierSelect>::allocator<ExPCRoomSoldierBonusWnd::PCRoomSoldierSelect>
_TEXT	ENDS
PUBLIC	?deallocate@?$allocator@UPCRoomSoldierSelect@ExPCRoomSoldierBonusWnd@@@std@@QAEXPAUPCRoomSoldierSelect@ExPCRoomSoldierBonusWnd@@I@Z ; std::allocator<ExPCRoomSoldierBonusWnd::PCRoomSoldierSelect>::deallocate
; Function compile flags: /Ogsp
;	COMDAT ?deallocate@?$allocator@UPCRoomSoldierSelect@ExPCRoomSoldierBonusWnd@@@std@@QAEXPAUPCRoomSoldierSelect@ExPCRoomSoldierBonusWnd@@I@Z
_TEXT	SEGMENT
__Ptr$ = 8						; size = 4
___formal$ = 12						; size = 4
?deallocate@?$allocator@UPCRoomSoldierSelect@ExPCRoomSoldierBonusWnd@@@std@@QAEXPAUPCRoomSoldierSelect@ExPCRoomSoldierBonusWnd@@I@Z PROC ; std::allocator<ExPCRoomSoldierBonusWnd::PCRoomSoldierSelect>::deallocate, COMDAT
; _this$ = ecx

; 181  : 		{	// deallocate object at _Ptr, ignore size

  00000	55		 push	 ebp
  00001	8b ec		 mov	 ebp, esp

; 182  : 		::operator delete(_Ptr);

  00003	ff 75 08	 push	 DWORD PTR __Ptr$[ebp]
  00006	e8 00 00 00 00	 call	 ??3@YAXPAX@Z		; operator delete
  0000b	59		 pop	 ecx

; 183  : 		}

  0000c	5d		 pop	 ebp
  0000d	c2 08 00	 ret	 8
?deallocate@?$allocator@UPCRoomSoldierSelect@ExPCRoomSoldierBonusWnd@@@std@@QAEXPAUPCRoomSoldierSelect@ExPCRoomSoldierBonusWnd@@I@Z ENDP ; std::allocator<ExPCRoomSoldierBonusWnd::PCRoomSoldierSelect>::deallocate
_TEXT	ENDS
PUBLIC	??0?$_Vector_const_iterator@V?$_Vector_val@UPCRoomSoldierSelect@ExPCRoomSoldierBonusWnd@@V?$allocator@UPCRoomSoldierSelect@ExPCRoomSoldierBonusWnd@@@std@@@std@@@std@@QAE@PAUPCRoomSoldierSelect@ExPCRoomSoldierBonusWnd@@PBU_Container_base0@1@@Z ; std::_Vector_const_iterator<std::_Vector_val<ExPCRoomSoldierBonusWnd::PCRoomSoldierSelect,std::allocator<ExPCRoomSoldierBonusWnd::PCRoomSoldierSelect> > >::_Vector_const_iterator<std::_Vector_val<ExPCRoomSoldierBonusWnd::PCRoomSoldierSelect,std::allocator<ExPCRoomSoldierBonusWnd::PCRoomSoldierSelect> > >
; Function compile flags: /Ogsp
; File c:\program files (x86)\microsoft visual studio 10.0\vc\include\vector
;	COMDAT ??0?$_Vector_const_iterator@V?$_Vector_val@UPCRoomSoldierSelect@ExPCRoomSoldierBonusWnd@@V?$allocator@UPCRoomSoldierSelect@ExPCRoomSoldierBonusWnd@@@std@@@std@@@std@@QAE@PAUPCRoomSoldierSelect@ExPCRoomSoldierBonusWnd@@PBU_Container_base0@1@@Z
_TEXT	SEGMENT
__Parg$ = 8						; size = 4
__Pvector$ = 12						; size = 4
??0?$_Vector_const_iterator@V?$_Vector_val@UPCRoomSoldierSelect@ExPCRoomSoldierBonusWnd@@V?$allocator@UPCRoomSoldierSelect@ExPCRoomSoldierBonusWnd@@@std@@@std@@@std@@QAE@PAUPCRoomSoldierSelect@ExPCRoomSoldierBonusWnd@@PBU_Container_base0@1@@Z PROC ; std::_Vector_const_iterator<std::_Vector_val<ExPCRoomSoldierBonusWnd::PCRoomSoldierSelect,std::allocator<ExPCRoomSoldierBonusWnd::PCRoomSoldierSelect> > >::_Vector_const_iterator<std::_Vector_val<ExPCRoomSoldierBonusWnd::PCRoomSoldierSelect,std::allocator<ExPCRoomSoldierBonusWnd::PCRoomSoldierSelect> > >, COMDAT
; _this$ = ecx

; 45   : 		{	// construct with pointer _Parg

  00000	55		 push	 ebp
  00001	8b ec		 mov	 ebp, esp
  00003	8b c1		 mov	 eax, ecx
  00005	8b 4d 08	 mov	 ecx, DWORD PTR __Parg$[ebp]
  00008	89 08		 mov	 DWORD PTR [eax], ecx

; 46   : 		this->_Adopt(_Pvector);
; 47   : 		}

  0000a	5d		 pop	 ebp
  0000b	c2 08 00	 ret	 8
??0?$_Vector_const_iterator@V?$_Vector_val@UPCRoomSoldierSelect@ExPCRoomSoldierBonusWnd@@V?$allocator@UPCRoomSoldierSelect@ExPCRoomSoldierBonusWnd@@@std@@@std@@@std@@QAE@PAUPCRoomSoldierSelect@ExPCRoomSoldierBonusWnd@@PBU_Container_base0@1@@Z ENDP ; std::_Vector_const_iterator<std::_Vector_val<ExPCRoomSoldierBonusWnd::PCRoomSoldierSelect,std::allocator<ExPCRoomSoldierBonusWnd::PCRoomSoldierSelect> > >::_Vector_const_iterator<std::_Vector_val<ExPCRoomSoldierBonusWnd::PCRoomSoldierSelect,std::allocator<ExPCRoomSoldierBonusWnd::PCRoomSoldierSelect> > >
_TEXT	ENDS
PUBLIC	?_Compat@?$_Vector_const_iterator@V?$_Vector_val@UPCRoomSoldierSelect@ExPCRoomSoldierBonusWnd@@V?$allocator@UPCRoomSoldierSelect@ExPCRoomSoldierBonusWnd@@@std@@@std@@@std@@QBEXABV12@@Z ; std::_Vector_const_iterator<std::_Vector_val<ExPCRoomSoldierBonusWnd::PCRoomSoldierSelect,std::allocator<ExPCRoomSoldierBonusWnd::PCRoomSoldierSelect> > >::_Compat
; Function compile flags: /Ogsp
;	COMDAT ?_Compat@?$_Vector_const_iterator@V?$_Vector_val@UPCRoomSoldierSelect@ExPCRoomSoldierBonusWnd@@V?$allocator@UPCRoomSoldierSelect@ExPCRoomSoldierBonusWnd@@@std@@@std@@@std@@QBEXABV12@@Z
_TEXT	SEGMENT
___formal$ = 8						; size = 4
?_Compat@?$_Vector_const_iterator@V?$_Vector_val@UPCRoomSoldierSelect@ExPCRoomSoldierBonusWnd@@V?$allocator@UPCRoomSoldierSelect@ExPCRoomSoldierBonusWnd@@@std@@@std@@@std@@QBEXABV12@@Z PROC ; std::_Vector_const_iterator<std::_Vector_val<ExPCRoomSoldierBonusWnd::PCRoomSoldierSelect,std::allocator<ExPCRoomSoldierBonusWnd::PCRoomSoldierSelect> > >::_Compat, COMDAT
; _this$ = ecx

; 253  : 		}

  00000	c2 04 00	 ret	 4
?_Compat@?$_Vector_const_iterator@V?$_Vector_val@UPCRoomSoldierSelect@ExPCRoomSoldierBonusWnd@@V?$allocator@UPCRoomSoldierSelect@ExPCRoomSoldierBonusWnd@@@std@@@std@@@std@@QBEXABV12@@Z ENDP ; std::_Vector_const_iterator<std::_Vector_val<ExPCRoomSoldierBonusWnd::PCRoomSoldierSelect,std::allocator<ExPCRoomSoldierBonusWnd::PCRoomSoldierSelect> > >::_Compat
_TEXT	ENDS
PUBLIC	?max_size@?$allocator@UPCRoomSoldierSelect@ExPCRoomSoldierBonusWnd@@@std@@QBEIXZ ; std::allocator<ExPCRoomSoldierBonusWnd::PCRoomSoldierSelect>::max_size
; Function compile flags: /Ogsp
; File c:\program files (x86)\microsoft visual studio 10.0\vc\include\xmemory
;	COMDAT ?max_size@?$allocator@UPCRoomSoldierSelect@ExPCRoomSoldierBonusWnd@@@std@@QBEIXZ
_TEXT	SEGMENT
?max_size@?$allocator@UPCRoomSoldierSelect@ExPCRoomSoldierBonusWnd@@@std@@QBEIXZ PROC ; std::allocator<ExPCRoomSoldierBonusWnd::PCRoomSoldierSelect>::max_size, COMDAT
; _this$ = ecx

; 218  : 		_SIZT _Count = (_SIZT)(-1) / sizeof (_Ty);
; 219  : 		return (0 < _Count ? _Count : 1);

  00000	b8 ff ff ff 1f	 mov	 eax, 536870911		; 1fffffffH

; 220  : 		}

  00005	c3		 ret	 0
?max_size@?$allocator@UPCRoomSoldierSelect@ExPCRoomSoldierBonusWnd@@@std@@QBEIXZ ENDP ; std::allocator<ExPCRoomSoldierBonusWnd::PCRoomSoldierSelect>::max_size
_TEXT	ENDS
PUBLIC	??$addressof@$$CBUPCRoomSoldierSelect@ExPCRoomSoldierBonusWnd@@@std@@YAPBUPCRoomSoldierSelect@ExPCRoomSoldierBonusWnd@@ABU12@@Z ; std::addressof<ExPCRoomSoldierBonusWnd::PCRoomSoldierSelect const >
; Function compile flags: /Ogsp
;	COMDAT ??$addressof@$$CBUPCRoomSoldierSelect@ExPCRoomSoldierBonusWnd@@@std@@YAPBUPCRoomSoldierSelect@ExPCRoomSoldierBonusWnd@@ABU12@@Z
_TEXT	SEGMENT
__Val$ = 8						; size = 4
??$addressof@$$CBUPCRoomSoldierSelect@ExPCRoomSoldierBonusWnd@@@std@@YAPBUPCRoomSoldierSelect@ExPCRoomSoldierBonusWnd@@ABU12@@Z PROC ; std::addressof<ExPCRoomSoldierBonusWnd::PCRoomSoldierSelect const >, COMDAT

; 110  : 	{	// return address of _Val

  00000	55		 push	 ebp
  00001	8b ec		 mov	 ebp, esp

; 111  : 	return ((_Ty *) &(char&)_Val);

  00003	8b 45 08	 mov	 eax, DWORD PTR __Val$[ebp]

; 112  : 	}

  00006	5d		 pop	 ebp
  00007	c3		 ret	 0
??$addressof@$$CBUPCRoomSoldierSelect@ExPCRoomSoldierBonusWnd@@@std@@YAPBUPCRoomSoldierSelect@ExPCRoomSoldierBonusWnd@@ABU12@@Z ENDP ; std::addressof<ExPCRoomSoldierBonusWnd::PCRoomSoldierSelect const >
_TEXT	ENDS
PUBLIC	__TI2?AVbad_alloc@std@@
PUBLIC	??$_Allocate@UPCRoomSoldierSelect@ExPCRoomSoldierBonusWnd@@@std@@YAPAUPCRoomSoldierSelect@ExPCRoomSoldierBonusWnd@@IPAU12@@Z ; std::_Allocate<ExPCRoomSoldierBonusWnd::PCRoomSoldierSelect>
PUBLIC	__CTA2?AVbad_alloc@std@@
PUBLIC	__CT??_R0?AVbad_alloc@std@@@8??0bad_alloc@std@@QAE@ABV01@@Z12
PUBLIC	??0bad_alloc@std@@QAE@ABV01@@Z			; std::bad_alloc::bad_alloc
PUBLIC	__CT??_R0?AVexception@std@@@8??0exception@std@@QAE@ABV01@@Z12
EXTRN	__CxxThrowException@8:PROC
EXTRN	??0exception@std@@QAE@ABV01@@Z:PROC		; std::exception::exception
;	COMDAT __CT??_R0?AVexception@std@@@8??0exception@std@@QAE@ABV01@@Z12
; File c:\program files (x86)\microsoft visual studio 10.0\vc\include\exception
xdata$x	SEGMENT
__CT??_R0?AVexception@std@@@8??0exception@std@@QAE@ABV01@@Z12 DD 00H
	DD	FLAT:??_R0?AVexception@std@@@8
	DD	00H
	DD	0ffffffffH
	ORG $+4
	DD	0cH
	DD	FLAT:??0exception@std@@QAE@ABV01@@Z
xdata$x	ENDS
;	COMDAT __CT??_R0?AVbad_alloc@std@@@8??0bad_alloc@std@@QAE@ABV01@@Z12
xdata$x	SEGMENT
__CT??_R0?AVbad_alloc@std@@@8??0bad_alloc@std@@QAE@ABV01@@Z12 DD 00H
	DD	FLAT:??_R0?AVbad_alloc@std@@@8
	DD	00H
	DD	0ffffffffH
	ORG $+4
	DD	0cH
	DD	FLAT:??0bad_alloc@std@@QAE@ABV01@@Z
xdata$x	ENDS
;	COMDAT __CTA2?AVbad_alloc@std@@
xdata$x	SEGMENT
__CTA2?AVbad_alloc@std@@ DD 02H
	DD	FLAT:__CT??_R0?AVbad_alloc@std@@@8??0bad_alloc@std@@QAE@ABV01@@Z12
	DD	FLAT:__CT??_R0?AVexception@std@@@8??0exception@std@@QAE@ABV01@@Z12
xdata$x	ENDS
;	COMDAT __TI2?AVbad_alloc@std@@
xdata$x	SEGMENT
__TI2?AVbad_alloc@std@@ DD 00H
	DD	FLAT:??1bad_alloc@std@@UAE@XZ
	DD	00H
	DD	FLAT:__CTA2?AVbad_alloc@std@@
; Function compile flags: /Ogsp
; File c:\program files (x86)\microsoft visual studio 10.0\vc\include\xmemory
xdata$x	ENDS
;	COMDAT ??$_Allocate@UPCRoomSoldierSelect@ExPCRoomSoldierBonusWnd@@@std@@YAPAUPCRoomSoldierSelect@ExPCRoomSoldierBonusWnd@@IPAU12@@Z
_TEXT	SEGMENT
$T536509 = -12						; size = 12
$T536514 = 8						; size = 4
__Count$ = 8						; size = 4
___formal$ = 12						; size = 4
??$_Allocate@UPCRoomSoldierSelect@ExPCRoomSoldierBonusWnd@@@std@@YAPAUPCRoomSoldierSelect@ExPCRoomSoldierBonusWnd@@IPAU12@@Z PROC ; std::_Allocate<ExPCRoomSoldierBonusWnd::PCRoomSoldierSelect>, COMDAT

; 30   : 	{	// allocate storage for _Count elements of type _Ty

  00000	55		 push	 ebp
  00001	8b ec		 mov	 ebp, esp

; 31   : 	void *_Ptr = 0;
; 32   : 
; 33   : 	if (_Count <= 0)

  00003	8b 4d 08	 mov	 ecx, DWORD PTR __Count$[ebp]
  00006	83 ec 0c	 sub	 esp, 12			; 0000000cH
  00009	33 c0		 xor	 eax, eax
  0000b	85 c9		 test	 ecx, ecx

; 34   : 		_Count = 0;
; 35   : 	else if (((_SIZT)(-1) / sizeof (_Ty) < _Count)

  0000d	74 3e		 je	 SHORT $LN5@Allocate

; 36   : 		|| (_Ptr = ::operator new(_Count * sizeof (_Ty))) == 0)

  0000f	81 f9 ff ff ff
	1f		 cmp	 ecx, 536870911		; 1fffffffH
  00015	77 10		 ja	 SHORT $LN1@Allocate
  00017	8b c1		 mov	 eax, ecx
  00019	c1 e0 03	 shl	 eax, 3
  0001c	50		 push	 eax
  0001d	e8 00 00 00 00	 call	 ??2@YAPAXI@Z		; operator new
  00022	59		 pop	 ecx
  00023	85 c0		 test	 eax, eax

; 38   : 
; 39   : 	return ((_Ty _FARQ *)_Ptr);

  00025	75 26		 jne	 SHORT $LN5@Allocate
$LN1@Allocate:

; 37   : 		_THROW_NCEE(bad_alloc, 0);

  00027	83 65 08 00	 and	 DWORD PTR $T536514[ebp], 0
  0002b	8d 45 08	 lea	 eax, DWORD PTR $T536514[ebp]
  0002e	50		 push	 eax
  0002f	8d 4d f4	 lea	 ecx, DWORD PTR $T536509[ebp]
  00032	ff 15 00 00 00
	00		 call	 DWORD PTR __imp_??0exception@std@@QAE@ABQBD@Z
  00038	68 00 00 00 00	 push	 OFFSET __TI2?AVbad_alloc@std@@
  0003d	8d 45 f4	 lea	 eax, DWORD PTR $T536509[ebp]
  00040	50		 push	 eax
  00041	c7 45 f4 00 00
	00 00		 mov	 DWORD PTR $T536509[ebp], OFFSET ??_7bad_alloc@std@@6B@
  00048	e8 00 00 00 00	 call	 __CxxThrowException@8
$LN10@Allocate:
$LN5@Allocate:

; 40   : 	}

  0004d	c9		 leave
  0004e	c3		 ret	 0
$LN9@Allocate:
??$_Allocate@UPCRoomSoldierSelect@ExPCRoomSoldierBonusWnd@@@std@@YAPAUPCRoomSoldierSelect@ExPCRoomSoldierBonusWnd@@IPAU12@@Z ENDP ; std::_Allocate<ExPCRoomSoldierBonusWnd::PCRoomSoldierSelect>
_TEXT	ENDS
PUBLIC	??$forward@AAUPCRoomSoldierSelect@ExPCRoomSoldierBonusWnd@@@std@@YAAAUPCRoomSoldierSelect@ExPCRoomSoldierBonusWnd@@AAU12@@Z ; std::forward<ExPCRoomSoldierBonusWnd::PCRoomSoldierSelect &>
; Function compile flags: /Ogsp
; File c:\program files (x86)\microsoft visual studio 10.0\vc\include\utility
;	COMDAT ??$forward@AAUPCRoomSoldierSelect@ExPCRoomSoldierBonusWnd@@@std@@YAAAUPCRoomSoldierSelect@ExPCRoomSoldierBonusWnd@@AAU12@@Z
_TEXT	SEGMENT
__Arg$ = 8						; size = 4
??$forward@AAUPCRoomSoldierSelect@ExPCRoomSoldierBonusWnd@@@std@@YAAAUPCRoomSoldierSelect@ExPCRoomSoldierBonusWnd@@AAU12@@Z PROC ; std::forward<ExPCRoomSoldierBonusWnd::PCRoomSoldierSelect &>, COMDAT

; 78   : 	{	// forward _Arg, given explicitly specified type parameter

  00000	55		 push	 ebp
  00001	8b ec		 mov	 ebp, esp

; 79   : 	return ((_Ty&&)_Arg);

  00003	8b 45 08	 mov	 eax, DWORD PTR __Arg$[ebp]

; 80   : 	}

  00006	5d		 pop	 ebp
  00007	c3		 ret	 0
??$forward@AAUPCRoomSoldierSelect@ExPCRoomSoldierBonusWnd@@@std@@YAAAUPCRoomSoldierSelect@ExPCRoomSoldierBonusWnd@@AAU12@@Z ENDP ; std::forward<ExPCRoomSoldierBonusWnd::PCRoomSoldierSelect &>
_TEXT	ENDS
PUBLIC	??$construct@AAUPCRoomSoldierSelect@ExPCRoomSoldierBonusWnd@@@?$allocator@UPCRoomSoldierSelect@ExPCRoomSoldierBonusWnd@@@std@@QAEXPAUPCRoomSoldierSelect@ExPCRoomSoldierBonusWnd@@AAU23@@Z ; std::allocator<ExPCRoomSoldierBonusWnd::PCRoomSoldierSelect>::construct<ExPCRoomSoldierBonusWnd::PCRoomSoldierSelect &>
; Function compile flags: /Ogsp
; File c:\program files (x86)\microsoft visual studio 10.0\vc\include\xmemory
;	COMDAT ??$construct@AAUPCRoomSoldierSelect@ExPCRoomSoldierBonusWnd@@@?$allocator@UPCRoomSoldierSelect@ExPCRoomSoldierBonusWnd@@@std@@QAEXPAUPCRoomSoldierSelect@ExPCRoomSoldierBonusWnd@@AAU23@@Z
_TEXT	SEGMENT
__Ptr$ = 8						; size = 4
__Val$ = 12						; size = 4
??$construct@AAUPCRoomSoldierSelect@ExPCRoomSoldierBonusWnd@@@?$allocator@UPCRoomSoldierSelect@ExPCRoomSoldierBonusWnd@@@std@@QAEXPAUPCRoomSoldierSelect@ExPCRoomSoldierBonusWnd@@AAU23@@Z PROC ; std::allocator<ExPCRoomSoldierBonusWnd::PCRoomSoldierSelect>::construct<ExPCRoomSoldierBonusWnd::PCRoomSoldierSelect &>, COMDAT
; _this$ = ecx

; 206  : 		void construct(pointer _Ptr, _Other&& _Val)

  00000	55		 push	 ebp
  00001	8b ec		 mov	 ebp, esp

; 207  : 		{	// construct object at _Ptr with value _Val
; 208  : 		::new ((void _FARQ *)_Ptr) _Ty(_STD forward<_Other>(_Val));

  00003	8b 45 08	 mov	 eax, DWORD PTR __Ptr$[ebp]
  00006	85 c0		 test	 eax, eax
  00008	74 0d		 je	 SHORT $LN3@construct
  0000a	8b 4d 0c	 mov	 ecx, DWORD PTR __Val$[ebp]
  0000d	8b 11		 mov	 edx, DWORD PTR [ecx]
  0000f	89 10		 mov	 DWORD PTR [eax], edx
  00011	8b 49 04	 mov	 ecx, DWORD PTR [ecx+4]
  00014	89 48 04	 mov	 DWORD PTR [eax+4], ecx
$LN3@construct:

; 209  : 		}

  00017	5d		 pop	 ebp
  00018	c2 08 00	 ret	 8
??$construct@AAUPCRoomSoldierSelect@ExPCRoomSoldierBonusWnd@@@?$allocator@UPCRoomSoldierSelect@ExPCRoomSoldierBonusWnd@@@std@@QAEXPAUPCRoomSoldierSelect@ExPCRoomSoldierBonusWnd@@AAU23@@Z ENDP ; std::allocator<ExPCRoomSoldierBonusWnd::PCRoomSoldierSelect>::construct<ExPCRoomSoldierBonusWnd::PCRoomSoldierSelect &>
_TEXT	ENDS
PUBLIC	??$forward@ABUPCRoomSoldierSelect@ExPCRoomSoldierBonusWnd@@@std@@YAABUPCRoomSoldierSelect@ExPCRoomSoldierBonusWnd@@ABU12@@Z ; std::forward<ExPCRoomSoldierBonusWnd::PCRoomSoldierSelect const &>
; Function compile flags: /Ogsp
; File c:\program files (x86)\microsoft visual studio 10.0\vc\include\utility
;	COMDAT ??$forward@ABUPCRoomSoldierSelect@ExPCRoomSoldierBonusWnd@@@std@@YAABUPCRoomSoldierSelect@ExPCRoomSoldierBonusWnd@@ABU12@@Z
_TEXT	SEGMENT
__Arg$ = 8						; size = 4
??$forward@ABUPCRoomSoldierSelect@ExPCRoomSoldierBonusWnd@@@std@@YAABUPCRoomSoldierSelect@ExPCRoomSoldierBonusWnd@@ABU12@@Z PROC ; std::forward<ExPCRoomSoldierBonusWnd::PCRoomSoldierSelect const &>, COMDAT

; 78   : 	{	// forward _Arg, given explicitly specified type parameter

  00000	55		 push	 ebp
  00001	8b ec		 mov	 ebp, esp

; 79   : 	return ((_Ty&&)_Arg);

  00003	8b 45 08	 mov	 eax, DWORD PTR __Arg$[ebp]

; 80   : 	}

  00006	5d		 pop	 ebp
  00007	c3		 ret	 0
??$forward@ABUPCRoomSoldierSelect@ExPCRoomSoldierBonusWnd@@@std@@YAABUPCRoomSoldierSelect@ExPCRoomSoldierBonusWnd@@ABU12@@Z ENDP ; std::forward<ExPCRoomSoldierBonusWnd::PCRoomSoldierSelect const &>
_TEXT	ENDS
PUBLIC	??$_Ptr_cat@UPCRoomSoldierSelect@ExPCRoomSoldierBonusWnd@@U12@@std@@YA?AU_Nonscalar_ptr_iterator_tag@0@PAUPCRoomSoldierSelect@ExPCRoomSoldierBonusWnd@@0@Z ; std::_Ptr_cat<ExPCRoomSoldierBonusWnd::PCRoomSoldierSelect,ExPCRoomSoldierBonusWnd::PCRoomSoldierSelect>
; Function compile flags: /Ogsp
; File c:\program files (x86)\microsoft visual studio 10.0\vc\include\xutility
;	COMDAT ??$_Ptr_cat@UPCRoomSoldierSelect@ExPCRoomSoldierBonusWnd@@U12@@std@@YA?AU_Nonscalar_ptr_iterator_tag@0@PAUPCRoomSoldierSelect@ExPCRoomSoldierBonusWnd@@0@Z
_TEXT	SEGMENT
__Cat$ = -1						; size = 1
___formal$ = 8						; size = 4
___formal$ = 12						; size = 4
??$_Ptr_cat@UPCRoomSoldierSelect@ExPCRoomSoldierBonusWnd@@U12@@std@@YA?AU_Nonscalar_ptr_iterator_tag@0@PAUPCRoomSoldierSelect@ExPCRoomSoldierBonusWnd@@0@Z PROC ; std::_Ptr_cat<ExPCRoomSoldierBonusWnd::PCRoomSoldierSelect,ExPCRoomSoldierBonusWnd::PCRoomSoldierSelect>, COMDAT

; 516  : 	{	// return pointer category from pointers

  00000	55		 push	 ebp
  00001	8b ec		 mov	 ebp, esp
  00003	51		 push	 ecx

; 517  : 	typename _Ptr_cat_helper<_Elem1, _Elem2>::_Type _Cat;
; 518  : 	return (_Cat);

  00004	8a 45 ff	 mov	 al, BYTE PTR __Cat$[ebp]

; 519  : 	}

  00007	c9		 leave
  00008	c3		 ret	 0
??$_Ptr_cat@UPCRoomSoldierSelect@ExPCRoomSoldierBonusWnd@@U12@@std@@YA?AU_Nonscalar_ptr_iterator_tag@0@PAUPCRoomSoldierSelect@ExPCRoomSoldierBonusWnd@@0@Z ENDP ; std::_Ptr_cat<ExPCRoomSoldierBonusWnd::PCRoomSoldierSelect,ExPCRoomSoldierBonusWnd::PCRoomSoldierSelect>
_TEXT	ENDS
PUBLIC	??$_Construct@UPCRoomSoldierSelect@ExPCRoomSoldierBonusWnd@@ABU12@@std@@YAXPAUPCRoomSoldierSelect@ExPCRoomSoldierBonusWnd@@ABU12@@Z ; std::_Construct<ExPCRoomSoldierBonusWnd::PCRoomSoldierSelect,ExPCRoomSoldierBonusWnd::PCRoomSoldierSelect const &>
; Function compile flags: /Ogsp
; File c:\program files (x86)\microsoft visual studio 10.0\vc\include\xmemory
;	COMDAT ??$_Construct@UPCRoomSoldierSelect@ExPCRoomSoldierBonusWnd@@ABU12@@std@@YAXPAUPCRoomSoldierSelect@ExPCRoomSoldierBonusWnd@@ABU12@@Z
_TEXT	SEGMENT
__Ptr$ = 8						; size = 4
__Val$ = 12						; size = 4
??$_Construct@UPCRoomSoldierSelect@ExPCRoomSoldierBonusWnd@@ABU12@@std@@YAXPAUPCRoomSoldierSelect@ExPCRoomSoldierBonusWnd@@ABU12@@Z PROC ; std::_Construct<ExPCRoomSoldierBonusWnd::PCRoomSoldierSelect,ExPCRoomSoldierBonusWnd::PCRoomSoldierSelect const &>, COMDAT

; 46   : 	{	// construct object at _Ptr with value _Val

  00000	55		 push	 ebp
  00001	8b ec		 mov	 ebp, esp

; 47   : 	void _FARQ *_Vptr = _Ptr;
; 48   : 	::new (_Vptr) _Ty1(_STD forward<_Ty2>(_Val));

  00003	8b 45 08	 mov	 eax, DWORD PTR __Ptr$[ebp]
  00006	85 c0		 test	 eax, eax
  00008	74 0d		 je	 SHORT $LN3@Construct
  0000a	8b 4d 0c	 mov	 ecx, DWORD PTR __Val$[ebp]
  0000d	8b 11		 mov	 edx, DWORD PTR [ecx]
  0000f	89 10		 mov	 DWORD PTR [eax], edx
  00011	8b 49 04	 mov	 ecx, DWORD PTR [ecx+4]
  00014	89 48 04	 mov	 DWORD PTR [eax+4], ecx
$LN3@Construct:

; 49   : 	}

  00017	5d		 pop	 ebp
  00018	c3		 ret	 0
??$_Construct@UPCRoomSoldierSelect@ExPCRoomSoldierBonusWnd@@ABU12@@std@@YAXPAUPCRoomSoldierSelect@ExPCRoomSoldierBonusWnd@@ABU12@@Z ENDP ; std::_Construct<ExPCRoomSoldierBonusWnd::PCRoomSoldierSelect,ExPCRoomSoldierBonusWnd::PCRoomSoldierSelect const &>
_TEXT	ENDS
PUBLIC	??$_Destroy@UPCRoomSoldierSelect@ExPCRoomSoldierBonusWnd@@@std@@YAXPAUPCRoomSoldierSelect@ExPCRoomSoldierBonusWnd@@@Z ; std::_Destroy<ExPCRoomSoldierBonusWnd::PCRoomSoldierSelect>
; Function compile flags: /Ogsp
;	COMDAT ??$_Destroy@UPCRoomSoldierSelect@ExPCRoomSoldierBonusWnd@@@std@@YAXPAUPCRoomSoldierSelect@ExPCRoomSoldierBonusWnd@@@Z
_TEXT	SEGMENT
__Ptr$ = 8						; size = 4
??$_Destroy@UPCRoomSoldierSelect@ExPCRoomSoldierBonusWnd@@@std@@YAXPAUPCRoomSoldierSelect@ExPCRoomSoldierBonusWnd@@@Z PROC ; std::_Destroy<ExPCRoomSoldierBonusWnd::PCRoomSoldierSelect>, COMDAT

; 63   : 	_Ptr->~_Ty();
; 64   : 	}

  00000	c3		 ret	 0
??$_Destroy@UPCRoomSoldierSelect@ExPCRoomSoldierBonusWnd@@@std@@YAXPAUPCRoomSoldierSelect@ExPCRoomSoldierBonusWnd@@@Z ENDP ; std::_Destroy<ExPCRoomSoldierBonusWnd::PCRoomSoldierSelect>
_TEXT	ENDS
PUBLIC	??Y?$_Vector_const_iterator@V?$_Vector_val@UPCRoomSoldierSelect@ExPCRoomSoldierBonusWnd@@V?$allocator@UPCRoomSoldierSelect@ExPCRoomSoldierBonusWnd@@@std@@@std@@@std@@QAEAAV01@H@Z ; std::_Vector_const_iterator<std::_Vector_val<ExPCRoomSoldierBonusWnd::PCRoomSoldierSelect,std::allocator<ExPCRoomSoldierBonusWnd::PCRoomSoldierSelect> > >::operator+=
; Function compile flags: /Ogsp
; File c:\program files (x86)\microsoft visual studio 10.0\vc\include\vector
;	COMDAT ??Y?$_Vector_const_iterator@V?$_Vector_val@UPCRoomSoldierSelect@ExPCRoomSoldierBonusWnd@@V?$allocator@UPCRoomSoldierSelect@ExPCRoomSoldierBonusWnd@@@std@@@std@@@std@@QAEAAV01@H@Z
_TEXT	SEGMENT
__Off$ = 8						; size = 4
??Y?$_Vector_const_iterator@V?$_Vector_val@UPCRoomSoldierSelect@ExPCRoomSoldierBonusWnd@@V?$allocator@UPCRoomSoldierSelect@ExPCRoomSoldierBonusWnd@@@std@@@std@@@std@@QAEAAV01@H@Z PROC ; std::_Vector_const_iterator<std::_Vector_val<ExPCRoomSoldierBonusWnd::PCRoomSoldierSelect,std::allocator<ExPCRoomSoldierBonusWnd::PCRoomSoldierSelect> > >::operator+=, COMDAT
; _this$ = ecx

; 151  : 		{	// increment by integer

  00000	55		 push	 ebp
  00001	8b ec		 mov	 ebp, esp
  00003	8b c1		 mov	 eax, ecx

; 152  :  #if _ITERATOR_DEBUG_LEVEL == 2
; 153  : 		if (this->_Getcont() == 0
; 154  : 			|| this->_Ptr + _Off < ((_Myvec *)this->_Getcont())->_Myfirst
; 155  : 			|| ((_Myvec *)this->_Getcont())->_Mylast < this->_Ptr + _Off)
; 156  : 			{	// report error
; 157  : 			_DEBUG_ERROR("vector iterator + offset out of range");
; 158  : 			_SCL_SECURE_OUT_OF_RANGE;
; 159  : 			}
; 160  : 
; 161  :  #elif _ITERATOR_DEBUG_LEVEL == 1
; 162  : 		_SCL_SECURE_VALIDATE(this->_Getcont() != 0);
; 163  : 		_SCL_SECURE_VALIDATE_RANGE(
; 164  : 			((_Myvec *)this->_Getcont())->_Myfirst <= this->_Ptr + _Off
; 165  : 			&& this->_Ptr + _Off <= ((_Myvec *)this->_Getcont())->_Mylast);
; 166  :  #endif /* _ITERATOR_DEBUG_LEVEL */
; 167  : 
; 168  : 		_Ptr += _Off;

  00005	8b 4d 08	 mov	 ecx, DWORD PTR __Off$[ebp]
  00008	c1 e1 03	 shl	 ecx, 3
  0000b	01 08		 add	 DWORD PTR [eax], ecx

; 169  : 		return (*this);
; 170  : 		}

  0000d	5d		 pop	 ebp
  0000e	c2 04 00	 ret	 4
??Y?$_Vector_const_iterator@V?$_Vector_val@UPCRoomSoldierSelect@ExPCRoomSoldierBonusWnd@@V?$allocator@UPCRoomSoldierSelect@ExPCRoomSoldierBonusWnd@@@std@@@std@@@std@@QAEAAV01@H@Z ENDP ; std::_Vector_const_iterator<std::_Vector_val<ExPCRoomSoldierBonusWnd::PCRoomSoldierSelect,std::allocator<ExPCRoomSoldierBonusWnd::PCRoomSoldierSelect> > >::operator+=
_TEXT	ENDS
PUBLIC	??$move@AAUPCRoomSoldierSelect@ExPCRoomSoldierBonusWnd@@@std@@YA$$QAUPCRoomSoldierSelect@ExPCRoomSoldierBonusWnd@@AAU12@@Z ; std::move<ExPCRoomSoldierBonusWnd::PCRoomSoldierSelect &>
; Function compile flags: /Ogsp
; File c:\program files (x86)\microsoft visual studio 10.0\vc\include\utility
;	COMDAT ??$move@AAUPCRoomSoldierSelect@ExPCRoomSoldierBonusWnd@@@std@@YA$$QAUPCRoomSoldierSelect@ExPCRoomSoldierBonusWnd@@AAU12@@Z
_TEXT	SEGMENT
__Arg$ = 8						; size = 4
??$move@AAUPCRoomSoldierSelect@ExPCRoomSoldierBonusWnd@@@std@@YA$$QAUPCRoomSoldierSelect@ExPCRoomSoldierBonusWnd@@AAU12@@Z PROC ; std::move<ExPCRoomSoldierBonusWnd::PCRoomSoldierSelect &>, COMDAT

; 86   : 	{	// forward _Arg as movable

  00000	55		 push	 ebp
  00001	8b ec		 mov	 ebp, esp

; 87   : 	return ((typename tr1::_Remove_reference<_Ty>::_Type&&)_Arg);

  00003	8b 45 08	 mov	 eax, DWORD PTR __Arg$[ebp]

; 88   : 	}

  00006	5d		 pop	 ebp
  00007	c3		 ret	 0
??$move@AAUPCRoomSoldierSelect@ExPCRoomSoldierBonusWnd@@@std@@YA$$QAUPCRoomSoldierSelect@ExPCRoomSoldierBonusWnd@@AAU12@@Z ENDP ; std::move<ExPCRoomSoldierBonusWnd::PCRoomSoldierSelect &>
_TEXT	ENDS
PUBLIC	??$_Val_type@PAUPCRoomSoldierSelect@ExPCRoomSoldierBonusWnd@@@std@@YAPAUPCRoomSoldierSelect@ExPCRoomSoldierBonusWnd@@PAU12@@Z ; std::_Val_type<ExPCRoomSoldierBonusWnd::PCRoomSoldierSelect *>
; Function compile flags: /Ogsp
; File c:\program files (x86)\microsoft visual studio 10.0\vc\include\xutility
;	COMDAT ??$_Val_type@PAUPCRoomSoldierSelect@ExPCRoomSoldierBonusWnd@@@std@@YAPAUPCRoomSoldierSelect@ExPCRoomSoldierBonusWnd@@PAU12@@Z
_TEXT	SEGMENT
___formal$ = 8						; size = 4
??$_Val_type@PAUPCRoomSoldierSelect@ExPCRoomSoldierBonusWnd@@@std@@YAPAUPCRoomSoldierSelect@ExPCRoomSoldierBonusWnd@@PAU12@@Z PROC ; std::_Val_type<ExPCRoomSoldierBonusWnd::PCRoomSoldierSelect *>, COMDAT

; 790  : 	return (0);

  00000	33 c0		 xor	 eax, eax

; 791  : 	}

  00002	c3		 ret	 0
??$_Val_type@PAUPCRoomSoldierSelect@ExPCRoomSoldierBonusWnd@@@std@@YAPAUPCRoomSoldierSelect@ExPCRoomSoldierBonusWnd@@PAU12@@Z ENDP ; std::_Val_type<ExPCRoomSoldierBonusWnd::PCRoomSoldierSelect *>
_TEXT	ENDS
PUBLIC	?_Orphan_range@?$vector@HV?$allocator@H@std@@@std@@IBEXPAH0@Z ; std::vector<int,std::allocator<int> >::_Orphan_range
; Function compile flags: /Ogsp
; File c:\program files (x86)\microsoft visual studio 10.0\vc\include\vector
;	COMDAT ?_Orphan_range@?$vector@HV?$allocator@H@std@@@std@@IBEXPAH0@Z
_TEXT	SEGMENT
___formal$ = 8						; size = 4
___formal$ = 12						; size = 4
?_Orphan_range@?$vector@HV?$allocator@H@std@@@std@@IBEXPAH0@Z PROC ; std::vector<int,std::allocator<int> >::_Orphan_range, COMDAT
; _this$ = ecx

; 1454 : 		}

  00000	c2 08 00	 ret	 8
?_Orphan_range@?$vector@HV?$allocator@H@std@@@std@@IBEXPAH0@Z ENDP ; std::vector<int,std::allocator<int> >::_Orphan_range
_TEXT	ENDS
PUBLIC	??$_Iter_cat@V?$_Vector_iterator@V?$_Vector_val@HV?$allocator@H@std@@@std@@@std@@@std@@YA?AUrandom_access_iterator_tag@0@ABV?$_Vector_iterator@V?$_Vector_val@HV?$allocator@H@std@@@std@@@0@@Z ; std::_Iter_cat<std::_Vector_iterator<std::_Vector_val<int,std::allocator<int> > > >
; Function compile flags: /Ogsp
; File c:\program files (x86)\microsoft visual studio 10.0\vc\include\xutility
;	COMDAT ??$_Iter_cat@V?$_Vector_iterator@V?$_Vector_val@HV?$allocator@H@std@@@std@@@std@@@std@@YA?AUrandom_access_iterator_tag@0@ABV?$_Vector_iterator@V?$_Vector_val@HV?$allocator@H@std@@@std@@@0@@Z
_TEXT	SEGMENT
___$ReturnUdt$ = 8					; size = 4
___formal$ = 12						; size = 4
??$_Iter_cat@V?$_Vector_iterator@V?$_Vector_val@HV?$allocator@H@std@@@std@@@std@@@std@@YA?AUrandom_access_iterator_tag@0@ABV?$_Vector_iterator@V?$_Vector_val@HV?$allocator@H@std@@@std@@@0@@Z PROC ; std::_Iter_cat<std::_Vector_iterator<std::_Vector_val<int,std::allocator<int> > > >, COMDAT

; 476  : 	{	// return category from iterator argument

  00000	55		 push	 ebp
  00001	8b ec		 mov	 ebp, esp

; 477  : 	typename iterator_traits<_Iter>::iterator_category _Cat;
; 478  : 	return (_Cat);

  00003	8b 45 08	 mov	 eax, DWORD PTR ___$ReturnUdt$[ebp]

; 479  : 	}

  00006	5d		 pop	 ebp
  00007	c3		 ret	 0
??$_Iter_cat@V?$_Vector_iterator@V?$_Vector_val@HV?$allocator@H@std@@@std@@@std@@@std@@YA?AUrandom_access_iterator_tag@0@ABV?$_Vector_iterator@V?$_Vector_val@HV?$allocator@H@std@@@std@@@0@@Z ENDP ; std::_Iter_cat<std::_Vector_iterator<std::_Vector_val<int,std::allocator<int> > > >
_TEXT	ENDS
PUBLIC	??$_Iter_cat@V?$_Vector_iterator@V?$_Vector_val@UPCRoomSoldierSelect@ExPCRoomSoldierBonusWnd@@V?$allocator@UPCRoomSoldierSelect@ExPCRoomSoldierBonusWnd@@@std@@@std@@@std@@@std@@YA?AUrandom_access_iterator_tag@0@ABV?$_Vector_iterator@V?$_Vector_val@UPCRoomSoldierSelect@ExPCRoomSoldierBonusWnd@@V?$allocator@UPCRoomSoldierSelect@ExPCRoomSoldierBonusWnd@@@std@@@std@@@0@@Z ; std::_Iter_cat<std::_Vector_iterator<std::_Vector_val<ExPCRoomSoldierBonusWnd::PCRoomSoldierSelect,std::allocator<ExPCRoomSoldierBonusWnd::PCRoomSoldierSelect> > > >
; Function compile flags: /Ogsp
;	COMDAT ??$_Iter_cat@V?$_Vector_iterator@V?$_Vector_val@UPCRoomSoldierSelect@ExPCRoomSoldierBonusWnd@@V?$allocator@UPCRoomSoldierSelect@ExPCRoomSoldierBonusWnd@@@std@@@std@@@std@@@std@@YA?AUrandom_access_iterator_tag@0@ABV?$_Vector_iterator@V?$_Vector_val@UPCRoomSoldierSelect@ExPCRoomSoldierBonusWnd@@V?$allocator@UPCRoomSoldierSelect@ExPCRoomSoldierBonusWnd@@@std@@@std@@@0@@Z
_TEXT	SEGMENT
___$ReturnUdt$ = 8					; size = 4
___formal$ = 12						; size = 4
??$_Iter_cat@V?$_Vector_iterator@V?$_Vector_val@UPCRoomSoldierSelect@ExPCRoomSoldierBonusWnd@@V?$allocator@UPCRoomSoldierSelect@ExPCRoomSoldierBonusWnd@@@std@@@std@@@std@@@std@@YA?AUrandom_access_iterator_tag@0@ABV?$_Vector_iterator@V?$_Vector_val@UPCRoomSoldierSelect@ExPCRoomSoldierBonusWnd@@V?$allocator@UPCRoomSoldierSelect@ExPCRoomSoldierBonusWnd@@@std@@@std@@@0@@Z PROC ; std::_Iter_cat<std::_Vector_iterator<std::_Vector_val<ExPCRoomSoldierBonusWnd::PCRoomSoldierSelect,std::allocator<ExPCRoomSoldierBonusWnd::PCRoomSoldierSelect> > > >, COMDAT

; 476  : 	{	// return category from iterator argument

  00000	55		 push	 ebp
  00001	8b ec		 mov	 ebp, esp

; 477  : 	typename iterator_traits<_Iter>::iterator_category _Cat;
; 478  : 	return (_Cat);

  00003	8b 45 08	 mov	 eax, DWORD PTR ___$ReturnUdt$[ebp]

; 479  : 	}

  00006	5d		 pop	 ebp
  00007	c3		 ret	 0
??$_Iter_cat@V?$_Vector_iterator@V?$_Vector_val@UPCRoomSoldierSelect@ExPCRoomSoldierBonusWnd@@V?$allocator@UPCRoomSoldierSelect@ExPCRoomSoldierBonusWnd@@@std@@@std@@@std@@@std@@YA?AUrandom_access_iterator_tag@0@ABV?$_Vector_iterator@V?$_Vector_val@UPCRoomSoldierSelect@ExPCRoomSoldierBonusWnd@@V?$allocator@UPCRoomSoldierSelect@ExPCRoomSoldierBonusWnd@@@std@@@std@@@0@@Z ENDP ; std::_Iter_cat<std::_Vector_iterator<std::_Vector_val<ExPCRoomSoldierBonusWnd::PCRoomSoldierSelect,std::allocator<ExPCRoomSoldierBonusWnd::PCRoomSoldierSelect> > > >
_TEXT	ENDS
PUBLIC	?_Unchecked@?$_Vector_iterator@V?$_Vector_val@UPCRoomSoldierSelect@ExPCRoomSoldierBonusWnd@@V?$allocator@UPCRoomSoldierSelect@ExPCRoomSoldierBonusWnd@@@std@@@std@@@std@@QBEPAUPCRoomSoldierSelect@ExPCRoomSoldierBonusWnd@@XZ ; std::_Vector_iterator<std::_Vector_val<ExPCRoomSoldierBonusWnd::PCRoomSoldierSelect,std::allocator<ExPCRoomSoldierBonusWnd::PCRoomSoldierSelect> > >::_Unchecked
; Function compile flags: /Ogsp
; File c:\program files (x86)\microsoft visual studio 10.0\vc\include\vector
;	COMDAT ?_Unchecked@?$_Vector_iterator@V?$_Vector_val@UPCRoomSoldierSelect@ExPCRoomSoldierBonusWnd@@V?$allocator@UPCRoomSoldierSelect@ExPCRoomSoldierBonusWnd@@@std@@@std@@@std@@QBEPAUPCRoomSoldierSelect@ExPCRoomSoldierBonusWnd@@XZ
_TEXT	SEGMENT
?_Unchecked@?$_Vector_iterator@V?$_Vector_val@UPCRoomSoldierSelect@ExPCRoomSoldierBonusWnd@@V?$allocator@UPCRoomSoldierSelect@ExPCRoomSoldierBonusWnd@@@std@@@std@@@std@@QBEPAUPCRoomSoldierSelect@ExPCRoomSoldierBonusWnd@@XZ PROC ; std::_Vector_iterator<std::_Vector_val<ExPCRoomSoldierBonusWnd::PCRoomSoldierSelect,std::allocator<ExPCRoomSoldierBonusWnd::PCRoomSoldierSelect> > >::_Unchecked, COMDAT
; _this$ = ecx

; 317  : 		return (_Unchecked_type(this->_Ptr));

  00000	8b 01		 mov	 eax, DWORD PTR [ecx]

; 318  : 		}

  00002	c3		 ret	 0
?_Unchecked@?$_Vector_iterator@V?$_Vector_val@UPCRoomSoldierSelect@ExPCRoomSoldierBonusWnd@@V?$allocator@UPCRoomSoldierSelect@ExPCRoomSoldierBonusWnd@@@std@@@std@@@std@@QBEPAUPCRoomSoldierSelect@ExPCRoomSoldierBonusWnd@@XZ ENDP ; std::_Vector_iterator<std::_Vector_val<ExPCRoomSoldierBonusWnd::PCRoomSoldierSelect,std::allocator<ExPCRoomSoldierBonusWnd::PCRoomSoldierSelect> > >::_Unchecked
_TEXT	ENDS
PUBLIC	??$_Dist_type@PAH@std@@YAPAHPAH@Z		; std::_Dist_type<int *>
; Function compile flags: /Ogsp
; File c:\program files (x86)\microsoft visual studio 10.0\vc\include\xutility
;	COMDAT ??$_Dist_type@PAH@std@@YAPAHPAH@Z
_TEXT	SEGMENT
___formal$ = 8						; size = 4
??$_Dist_type@PAH@std@@YAPAHPAH@Z PROC			; std::_Dist_type<int *>, COMDAT

; 850  : 	return (0);

  00000	33 c0		 xor	 eax, eax

; 851  : 	}

  00002	c3		 ret	 0
??$_Dist_type@PAH@std@@YAPAHPAH@Z ENDP			; std::_Dist_type<int *>
_TEXT	ENDS
PUBLIC	??$_Dist_type@PAUPCRoomSoldierSelect@ExPCRoomSoldierBonusWnd@@@std@@YAPAHPAUPCRoomSoldierSelect@ExPCRoomSoldierBonusWnd@@@Z ; std::_Dist_type<ExPCRoomSoldierBonusWnd::PCRoomSoldierSelect *>
; Function compile flags: /Ogsp
;	COMDAT ??$_Dist_type@PAUPCRoomSoldierSelect@ExPCRoomSoldierBonusWnd@@@std@@YAPAHPAUPCRoomSoldierSelect@ExPCRoomSoldierBonusWnd@@@Z
_TEXT	SEGMENT
___formal$ = 8						; size = 4
??$_Dist_type@PAUPCRoomSoldierSelect@ExPCRoomSoldierBonusWnd@@@std@@YAPAHPAUPCRoomSoldierSelect@ExPCRoomSoldierBonusWnd@@@Z PROC ; std::_Dist_type<ExPCRoomSoldierBonusWnd::PCRoomSoldierSelect *>, COMDAT

; 850  : 	return (0);

  00000	33 c0		 xor	 eax, eax

; 851  : 	}

  00002	c3		 ret	 0
??$_Dist_type@PAUPCRoomSoldierSelect@ExPCRoomSoldierBonusWnd@@@std@@YAPAHPAUPCRoomSoldierSelect@ExPCRoomSoldierBonusWnd@@@Z ENDP ; std::_Dist_type<ExPCRoomSoldierBonusWnd::PCRoomSoldierSelect *>
_TEXT	ENDS
PUBLIC	??$forward@UPCRoomSoldierSelect@ExPCRoomSoldierBonusWnd@@@std@@YA$$QAUPCRoomSoldierSelect@ExPCRoomSoldierBonusWnd@@AAU12@@Z ; std::forward<ExPCRoomSoldierBonusWnd::PCRoomSoldierSelect>
; Function compile flags: /Ogsp
; File c:\program files (x86)\microsoft visual studio 10.0\vc\include\utility
;	COMDAT ??$forward@UPCRoomSoldierSelect@ExPCRoomSoldierBonusWnd@@@std@@YA$$QAUPCRoomSoldierSelect@ExPCRoomSoldierBonusWnd@@AAU12@@Z
_TEXT	SEGMENT
__Arg$ = 8						; size = 4
??$forward@UPCRoomSoldierSelect@ExPCRoomSoldierBonusWnd@@@std@@YA$$QAUPCRoomSoldierSelect@ExPCRoomSoldierBonusWnd@@AAU12@@Z PROC ; std::forward<ExPCRoomSoldierBonusWnd::PCRoomSoldierSelect>, COMDAT

; 78   : 	{	// forward _Arg, given explicitly specified type parameter

  00000	55		 push	 ebp
  00001	8b ec		 mov	 ebp, esp

; 79   : 	return ((_Ty&&)_Arg);

  00003	8b 45 08	 mov	 eax, DWORD PTR __Arg$[ebp]

; 80   : 	}

  00006	5d		 pop	 ebp
  00007	c3		 ret	 0
??$forward@UPCRoomSoldierSelect@ExPCRoomSoldierBonusWnd@@@std@@YA$$QAUPCRoomSoldierSelect@ExPCRoomSoldierBonusWnd@@AAU12@@Z ENDP ; std::forward<ExPCRoomSoldierBonusWnd::PCRoomSoldierSelect>
_TEXT	ENDS
PUBLIC	??G?$_Vector_const_iterator@V?$_Vector_val@UPCRoomSoldierSelect@ExPCRoomSoldierBonusWnd@@V?$allocator@UPCRoomSoldierSelect@ExPCRoomSoldierBonusWnd@@@std@@@std@@@std@@QBEHABV01@@Z ; std::_Vector_const_iterator<std::_Vector_val<ExPCRoomSoldierBonusWnd::PCRoomSoldierSelect,std::allocator<ExPCRoomSoldierBonusWnd::PCRoomSoldierSelect> > >::operator-
; Function compile flags: /Ogsp
; File c:\program files (x86)\microsoft visual studio 10.0\vc\include\vector
;	COMDAT ??G?$_Vector_const_iterator@V?$_Vector_val@UPCRoomSoldierSelect@ExPCRoomSoldierBonusWnd@@V?$allocator@UPCRoomSoldierSelect@ExPCRoomSoldierBonusWnd@@@std@@@std@@@std@@QBEHABV01@@Z
_TEXT	SEGMENT
__Right$ = 8						; size = 4
??G?$_Vector_const_iterator@V?$_Vector_val@UPCRoomSoldierSelect@ExPCRoomSoldierBonusWnd@@V?$allocator@UPCRoomSoldierSelect@ExPCRoomSoldierBonusWnd@@@std@@@std@@@std@@QBEHABV01@@Z PROC ; std::_Vector_const_iterator<std::_Vector_val<ExPCRoomSoldierBonusWnd::PCRoomSoldierSelect,std::allocator<ExPCRoomSoldierBonusWnd::PCRoomSoldierSelect> > >::operator-, COMDAT
; _this$ = ecx

; 190  : 		{	// return difference of iterators

  00000	55		 push	 ebp
  00001	8b ec		 mov	 ebp, esp

; 191  : 		_Compat(_Right);
; 192  : 		return (this->_Ptr - _Right._Ptr);

  00003	8b 01		 mov	 eax, DWORD PTR [ecx]
  00005	8b 4d 08	 mov	 ecx, DWORD PTR __Right$[ebp]
  00008	2b 01		 sub	 eax, DWORD PTR [ecx]
  0000a	c1 f8 03	 sar	 eax, 3

; 193  : 		}

  0000d	5d		 pop	 ebp
  0000e	c2 04 00	 ret	 4
??G?$_Vector_const_iterator@V?$_Vector_val@UPCRoomSoldierSelect@ExPCRoomSoldierBonusWnd@@V?$allocator@UPCRoomSoldierSelect@ExPCRoomSoldierBonusWnd@@@std@@@std@@@std@@QBEHABV01@@Z ENDP ; std::_Vector_const_iterator<std::_Vector_val<ExPCRoomSoldierBonusWnd::PCRoomSoldierSelect,std::allocator<ExPCRoomSoldierBonusWnd::PCRoomSoldierSelect> > >::operator-
_TEXT	ENDS
PUBLIC	??$_Move@AAUPCRoomSoldierSelect@ExPCRoomSoldierBonusWnd@@@std@@YA$$QAUPCRoomSoldierSelect@ExPCRoomSoldierBonusWnd@@AAU12@@Z ; std::_Move<ExPCRoomSoldierBonusWnd::PCRoomSoldierSelect &>
; Function compile flags: /Ogsp
; File c:\program files (x86)\microsoft visual studio 10.0\vc\include\utility
;	COMDAT ??$_Move@AAUPCRoomSoldierSelect@ExPCRoomSoldierBonusWnd@@@std@@YA$$QAUPCRoomSoldierSelect@ExPCRoomSoldierBonusWnd@@AAU12@@Z
_TEXT	SEGMENT
__Arg$ = 8						; size = 4
??$_Move@AAUPCRoomSoldierSelect@ExPCRoomSoldierBonusWnd@@@std@@YA$$QAUPCRoomSoldierSelect@ExPCRoomSoldierBonusWnd@@AAU12@@Z PROC ; std::_Move<ExPCRoomSoldierBonusWnd::PCRoomSoldierSelect &>, COMDAT

; 94   : 	{	// forward _Arg as movable

  00000	55		 push	 ebp
  00001	8b ec		 mov	 ebp, esp

; 95   : 	return ((typename tr1::_Remove_reference<_Ty>::_Type&&)_Arg);

  00003	8b 45 08	 mov	 eax, DWORD PTR __Arg$[ebp]

; 96   : 	}

  00006	5d		 pop	 ebp
  00007	c3		 ret	 0
??$_Move@AAUPCRoomSoldierSelect@ExPCRoomSoldierBonusWnd@@@std@@YA$$QAUPCRoomSoldierSelect@ExPCRoomSoldierBonusWnd@@AAU12@@Z ENDP ; std::_Move<ExPCRoomSoldierBonusWnd::PCRoomSoldierSelect &>
_TEXT	ENDS
PUBLIC	??_H@YGXPAXIHP6EPAX0@Z@Z			; `vector constructor iterator'
; Function compile flags: /Ogsp
;	COMDAT ??_H@YGXPAXIHP6EPAX0@Z@Z
_TEXT	SEGMENT
___t$ = 8						; size = 4
___s$ = 12						; size = 4
___n$ = 16						; size = 4
___f$ = 20						; size = 4
??_H@YGXPAXIHP6EPAX0@Z@Z PROC				; `vector constructor iterator', COMDAT
  00000	55		 push	 ebp
  00001	8b ec		 mov	 ebp, esp
  00003	ff 4d 10	 dec	 DWORD PTR ___n$[ebp]
  00006	78 12		 js	 SHORT $LN1@vector
  00008	56		 push	 esi
  00009	8b 75 08	 mov	 esi, DWORD PTR ___t$[ebp]
$LL2@vector:
  0000c	8b ce		 mov	 ecx, esi
  0000e	ff 55 14	 call	 DWORD PTR ___f$[ebp]
  00011	03 75 0c	 add	 esi, DWORD PTR ___s$[ebp]
  00014	ff 4d 10	 dec	 DWORD PTR ___n$[ebp]
  00017	79 f3		 jns	 SHORT $LL2@vector
  00019	5e		 pop	 esi
$LN1@vector:
  0001a	5d		 pop	 ebp
  0001b	c2 10 00	 ret	 16			; 00000010H
??_H@YGXPAXIHP6EPAX0@Z@Z ENDP				; `vector constructor iterator'
_TEXT	ENDS
PUBLIC	?_DECSTR@@YAXPADH@Z				; _DECSTR
; Function compile flags: /Ogsp
; File d:\lost saga for developer\youtube\tutorial\source\src\lsclient\stringprotect.h
;	COMDAT ?_DECSTR@@YAXPADH@Z
_TEXT	SEGMENT
_s$ = 8							; size = 4
_l$ = 12						; size = 4
?_DECSTR@@YAXPADH@Z PROC				; _DECSTR, COMDAT

; 40   : __forceinline void _DECSTR(char* s, int l){int i=0,l4=(l-1)/4,*p=(int*)s;s[l-1]=0;for(;i<l4;++i)*(p++)^=0xEAEBECED;for(i=l4*4;i<l-1;++i)s[i]^=0xED-i%4;}

  00000	55		 push	 ebp
  00001	8b ec		 mov	 ebp, esp
  00003	8b 4d 0c	 mov	 ecx, DWORD PTR _l$[ebp]
  00006	56		 push	 esi
  00007	8b 75 08	 mov	 esi, DWORD PTR _s$[ebp]
  0000a	57		 push	 edi
  0000b	8d 79 ff	 lea	 edi, DWORD PTR [ecx-1]
  0000e	8b c7		 mov	 eax, edi
  00010	99		 cdq
  00011	83 e2 03	 and	 edx, 3
  00014	03 c2		 add	 eax, edx
  00016	c1 f8 02	 sar	 eax, 2
  00019	8b d6		 mov	 edx, esi
  0001b	c6 44 0e ff 00	 mov	 BYTE PTR [esi+ecx-1], 0
  00020	85 c0		 test	 eax, eax
  00022	7e 0e		 jle	 SHORT $LN4@DECSTR
  00024	8b c8		 mov	 ecx, eax
$LL6@DECSTR:
  00026	81 32 ed ec eb
	ea		 xor	 DWORD PTR [edx], -353637139 ; eaebecedH
  0002c	83 c2 04	 add	 edx, 4
  0002f	49		 dec	 ecx
  00030	75 f4		 jne	 SHORT $LL6@DECSTR
$LN4@DECSTR:
  00032	c1 e0 02	 shl	 eax, 2
  00035	eb 17		 jmp	 SHORT $LN14@DECSTR
$LL3@DECSTR:
  00037	8b c8		 mov	 ecx, eax
  00039	81 e1 03 00 00
	80		 and	 ecx, -2147483645	; 80000003H
  0003f	79 05		 jns	 SHORT $LN13@DECSTR
  00041	49		 dec	 ecx
  00042	83 c9 fc	 or	 ecx, -4			; fffffffcH
  00045	41		 inc	 ecx
$LN13@DECSTR:
  00046	b2 ed		 mov	 dl, -19			; ffffffedH
  00048	2a d1		 sub	 dl, cl
  0004a	30 14 30	 xor	 BYTE PTR [eax+esi], dl
  0004d	40		 inc	 eax
$LN14@DECSTR:
  0004e	3b c7		 cmp	 eax, edi
  00050	7c e5		 jl	 SHORT $LL3@DECSTR
  00052	5f		 pop	 edi
  00053	5e		 pop	 esi
  00054	5d		 pop	 ebp
  00055	c3		 ret	 0
?_DECSTR@@YAXPADH@Z ENDP				; _DECSTR
_TEXT	ENDS
PUBLIC	?Init@tagCostumeEquipInfo@@QAEXXZ		; tagCostumeEquipInfo::Init
; Function compile flags: /Ogsp
; File d:\lost saga for developer\youtube\tutorial\source\src\lsclient\costumeenumtype.h
;	COMDAT ?Init@tagCostumeEquipInfo@@QAEXXZ
_TEXT	SEGMENT
?Init@tagCostumeEquipInfo@@QAEXXZ PROC			; tagCostumeEquipInfo::Init, COMDAT
; _this$ = ecx

; 31   : 		m_CostumeIdx = 0;

  00000	33 c0		 xor	 eax, eax
  00002	89 01		 mov	 DWORD PTR [ecx], eax

; 32   : 		m_CostumeCode = 0;

  00004	89 41 04	 mov	 DWORD PTR [ecx+4], eax

; 33   : 		m_Costume_Male_Custom = 0;  

  00007	89 41 08	 mov	 DWORD PTR [ecx+8], eax

; 34   : 		m_Costume_Female_Custom = 0;

  0000a	89 41 0c	 mov	 DWORD PTR [ecx+12], eax

; 35   : 	}

  0000d	c3		 ret	 0
?Init@tagCostumeEquipInfo@@QAEXXZ ENDP			; tagCostumeEquipInfo::Init
_TEXT	ENDS
PUBLIC	??0tagCostumeEquipInfo@@QAE@XZ			; tagCostumeEquipInfo::tagCostumeEquipInfo
; Function compile flags: /Ogsp
;	COMDAT ??0tagCostumeEquipInfo@@QAE@XZ
_TEXT	SEGMENT
??0tagCostumeEquipInfo@@QAE@XZ PROC			; tagCostumeEquipInfo::tagCostumeEquipInfo, COMDAT
; _this$ = ecx

; 37   : 	tagCostumeEquipInfo()

  00000	8b c1		 mov	 eax, ecx

; 38   : 	{
; 39   : 		Init();

  00002	33 c9		 xor	 ecx, ecx
  00004	89 08		 mov	 DWORD PTR [eax], ecx
  00006	89 48 04	 mov	 DWORD PTR [eax+4], ecx
  00009	89 48 08	 mov	 DWORD PTR [eax+8], ecx
  0000c	89 48 0c	 mov	 DWORD PTR [eax+12], ecx

; 40   : 	}

  0000f	c3		 ret	 0
??0tagCostumeEquipInfo@@QAE@XZ ENDP			; tagCostumeEquipInfo::tagCostumeEquipInfo
_TEXT	ENDS
PUBLIC	?Init@tagAccessoryEquipInfo@@QAEXXZ		; tagAccessoryEquipInfo::Init
; Function compile flags: /Ogsp
; File d:\lost saga for developer\youtube\tutorial\source\src\lsclient\accessoryenumtype.h
;	COMDAT ?Init@tagAccessoryEquipInfo@@QAEXXZ
_TEXT	SEGMENT
?Init@tagAccessoryEquipInfo@@QAEXXZ PROC		; tagAccessoryEquipInfo::Init, COMDAT
; _this$ = ecx

; 23   : 		m_iAccessoryIdx = 0;

  00000	33 c0		 xor	 eax, eax
  00002	89 01		 mov	 DWORD PTR [ecx], eax

; 24   : 		m_iAccessoryCode = 0;

  00004	89 41 04	 mov	 DWORD PTR [ecx+4], eax

; 25   : 		m_iRandomNumber = 0;

  00007	89 41 08	 mov	 DWORD PTR [ecx+8], eax

; 26   : 	}

  0000a	c3		 ret	 0
?Init@tagAccessoryEquipInfo@@QAEXXZ ENDP		; tagAccessoryEquipInfo::Init
_TEXT	ENDS
PUBLIC	??0tagAccessoryEquipInfo@@QAE@XZ		; tagAccessoryEquipInfo::tagAccessoryEquipInfo
; Function compile flags: /Ogsp
;	COMDAT ??0tagAccessoryEquipInfo@@QAE@XZ
_TEXT	SEGMENT
??0tagAccessoryEquipInfo@@QAE@XZ PROC			; tagAccessoryEquipInfo::tagAccessoryEquipInfo, COMDAT
; _this$ = ecx

; 28   : 	tagAccessoryEquipInfo()

  00000	8b c1		 mov	 eax, ecx

; 29   : 	{
; 30   : 		Init();

  00002	33 c9		 xor	 ecx, ecx
  00004	89 08		 mov	 DWORD PTR [eax], ecx
  00006	89 48 04	 mov	 DWORD PTR [eax+4], ecx
  00009	89 48 08	 mov	 DWORD PTR [eax+8], ecx

; 31   : 	}

  0000c	c3		 ret	 0
??0tagAccessoryEquipInfo@@QAE@XZ ENDP			; tagAccessoryEquipInfo::tagAccessoryEquipInfo
_TEXT	ENDS
PUBLIC	?GetItemCode@ioItem@@QBEKXZ			; ioItem::GetItemCode
; Function compile flags: /Ogsp
; File d:\lost saga for developer\youtube\tutorial\source\src\lsclient\ioitem.h
;	COMDAT ?GetItemCode@ioItem@@QBEKXZ
_TEXT	SEGMENT
?GetItemCode@ioItem@@QBEKXZ PROC			; ioItem::GetItemCode, COMDAT
; _this$ = ecx

; 264  : 	inline DWORD GetItemCode() const { return m_dwItemCode; }

  00000	8b 41 38	 mov	 eax, DWORD PTR [ecx+56]
  00003	c3		 ret	 0
?GetItemCode@ioItem@@QBEKXZ ENDP			; ioItem::GetItemCode
_TEXT	ENDS
PUBLIC	?GetGradeType@ioItem@@QBEHXZ			; ioItem::GetGradeType
; Function compile flags: /Ogsp
;	COMDAT ?GetGradeType@ioItem@@QBEHXZ
_TEXT	SEGMENT
?GetGradeType@ioItem@@QBEHXZ PROC			; ioItem::GetGradeType, COMDAT
; _this$ = ecx

; 445  : 	inline int GetGradeType() const { return m_nGradeType; }

  00000	8b 81 20 06 00
	00		 mov	 eax, DWORD PTR [ecx+1568]
  00006	c3		 ret	 0
?GetGradeType@ioItem@@QBEHXZ ENDP			; ioItem::GetGradeType
_TEXT	ENDS
PUBLIC	?GetMouse@ioApplication@@QAEPAVioLSMouse@@XZ	; ioApplication::GetMouse
; Function compile flags: /Ogsp
; File d:\lost saga for developer\youtube\tutorial\source\src\lsclient\ioapplication.h
;	COMDAT ?GetMouse@ioApplication@@QAEPAVioLSMouse@@XZ
_TEXT	SEGMENT
?GetMouse@ioApplication@@QAEPAVioLSMouse@@XZ PROC	; ioApplication::GetMouse, COMDAT
; _this$ = ecx

; 796  : 	inline ioLSMouse* GetMouse(){ return &m_Mouse;	}

  00000	8d 81 90 00 00
	00		 lea	 eax, DWORD PTR [ecx+144]
  00006	c3		 ret	 0
?GetMouse@ioApplication@@QAEPAVioLSMouse@@XZ ENDP	; ioApplication::GetMouse
_TEXT	ENDS
PUBLIC	?IsMale@ioCreateChar@@QBE_NXZ			; ioCreateChar::IsMale
; Function compile flags: /Ogsp
; File d:\lost saga for developer\youtube\tutorial\source\src\lsclient\iocreatechar.h
;	COMDAT ?IsMale@ioCreateChar@@QBE_NXZ
_TEXT	SEGMENT
?IsMale@ioCreateChar@@QBE_NXZ PROC			; ioCreateChar::IsMale, COMDAT
; _this$ = ecx

; 209  : 	inline bool IsMale() const { return m_bMale; }

  00000	8a 41 1c	 mov	 al, BYTE PTR [ecx+28]
  00003	c3		 ret	 0
?IsMale@ioCreateChar@@QBE_NXZ ENDP			; ioCreateChar::IsMale
_TEXT	ENDS
PUBLIC	?GetHumanManMotion@ioEtcItemMotion@@QAEABVioHashString@@XZ ; ioEtcItemMotion::GetHumanManMotion
; Function compile flags: /Ogsp
; File d:\lost saga for developer\youtube\tutorial\source\src\lsclient\ioetcitem.h
;	COMDAT ?GetHumanManMotion@ioEtcItemMotion@@QAEABVioHashString@@XZ
_TEXT	SEGMENT
?GetHumanManMotion@ioEtcItemMotion@@QAEABVioHashString@@XZ PROC ; ioEtcItemMotion::GetHumanManMotion, COMDAT
; _this$ = ecx

; 1193 : 	const ioHashString &GetHumanManMotion(){ return m_szHumanManMotion; }

  00000	8d 81 88 01 00
	00		 lea	 eax, DWORD PTR [ecx+392]
  00006	c3		 ret	 0
?GetHumanManMotion@ioEtcItemMotion@@QAEABVioHashString@@XZ ENDP ; ioEtcItemMotion::GetHumanManMotion
_TEXT	ENDS
PUBLIC	?GetHumanWomanMotion@ioEtcItemMotion@@QAEABVioHashString@@XZ ; ioEtcItemMotion::GetHumanWomanMotion
; Function compile flags: /Ogsp
;	COMDAT ?GetHumanWomanMotion@ioEtcItemMotion@@QAEABVioHashString@@XZ
_TEXT	SEGMENT
?GetHumanWomanMotion@ioEtcItemMotion@@QAEABVioHashString@@XZ PROC ; ioEtcItemMotion::GetHumanWomanMotion, COMDAT
; _this$ = ecx

; 1194 : 	const ioHashString &GetHumanWomanMotion(){ return m_szHumanWomanMotion; }

  00000	8d 81 98 01 00
	00		 lea	 eax, DWORD PTR [ecx+408]
  00006	c3		 ret	 0
?GetHumanWomanMotion@ioEtcItemMotion@@QAEABVioHashString@@XZ ENDP ; ioEtcItemMotion::GetHumanWomanMotion
_TEXT	ENDS
PUBLIC	?GetCurState@FSMStateMgr@@QBEHXZ		; FSMStateMgr::GetCurState
; Function compile flags: /Ogsp
; File d:\lost saga for developer\youtube\tutorial\source\src\lsclient\gui\fsmstatemgr.h
;	COMDAT ?GetCurState@FSMStateMgr@@QBEHXZ
_TEXT	SEGMENT
?GetCurState@FSMStateMgr@@QBEHXZ PROC			; FSMStateMgr::GetCurState, COMDAT
; _this$ = ecx

; 52   : 	inline int GetCurState() const { return m_iCurState; }

  00000	8b 41 04	 mov	 eax, DWORD PTR [ecx+4]
  00003	c3		 ret	 0
?GetCurState@FSMStateMgr@@QBEHXZ ENDP			; FSMStateMgr::GetCurState
_TEXT	ENDS
PUBLIC	?GetCurTime@FSMStateMgr@@QBEKXZ			; FSMStateMgr::GetCurTime
; Function compile flags: /Ogsp
;	COMDAT ?GetCurTime@FSMStateMgr@@QBEKXZ
_TEXT	SEGMENT
?GetCurTime@FSMStateMgr@@QBEKXZ PROC			; FSMStateMgr::GetCurTime, COMDAT
; _this$ = ecx

; 55   : 	inline DWORD GetCurTime() const { return m_dwCurTime; }

  00000	8b 41 0c	 mov	 eax, DWORD PTR [ecx+12]
  00003	c3		 ret	 0
?GetCurTime@FSMStateMgr@@QBEKXZ ENDP			; FSMStateMgr::GetCurTime
_TEXT	ENDS
PUBLIC	?GetDelay@FSMStateMgr@@QBEHXZ			; FSMStateMgr::GetDelay
; Function compile flags: /Ogsp
;	COMDAT ?GetDelay@FSMStateMgr@@QBEHXZ
_TEXT	SEGMENT
?GetDelay@FSMStateMgr@@QBEHXZ PROC			; FSMStateMgr::GetDelay, COMDAT
; _this$ = ecx

; 61   : 	inline int GetDelay() const { return m_iCurDelay; }

  00000	8b 41 10	 mov	 eax, DWORD PTR [ecx+16]
  00003	c3		 ret	 0
?GetDelay@FSMStateMgr@@QBEHXZ ENDP			; FSMStateMgr::GetDelay
_TEXT	ENDS
PUBLIC	?GetPrivateID@ioMyInfo@@QBEABVioHashString@@XZ	; ioMyInfo::GetPrivateID
; Function compile flags: /Ogsp
; File d:\lost saga for developer\youtube\tutorial\source\src\lsclient\iomyinfo.h
;	COMDAT ?GetPrivateID@ioMyInfo@@QBEABVioHashString@@XZ
_TEXT	SEGMENT
?GetPrivateID@ioMyInfo@@QBEABVioHashString@@XZ PROC	; ioMyInfo::GetPrivateID, COMDAT
; _this$ = ecx

; 516  : 	const ioHashString& GetPrivateID() const { return m_user_data.m_private_id; }  

  00000	8d 41 0c	 lea	 eax, DWORD PTR [ecx+12]
  00003	c3		 ret	 0
?GetPrivateID@ioMyInfo@@QBEABVioHashString@@XZ ENDP	; ioMyInfo::GetPrivateID
_TEXT	ENDS
PUBLIC	?GetPublicID@ioMyInfo@@QBEABVioHashString@@XZ	; ioMyInfo::GetPublicID
; Function compile flags: /Ogsp
;	COMDAT ?GetPublicID@ioMyInfo@@QBEABVioHashString@@XZ
_TEXT	SEGMENT
?GetPublicID@ioMyInfo@@QBEABVioHashString@@XZ PROC	; ioMyInfo::GetPublicID, COMDAT
; _this$ = ecx

; 517  : 	const ioHashString& GetPublicID() const { return m_user_data.m_public_id; }    

  00000	8d 41 1c	 lea	 eax, DWORD PTR [ecx+28]
  00003	c3		 ret	 0
?GetPublicID@ioMyInfo@@QBEABVioHashString@@XZ ENDP	; ioMyInfo::GetPublicID
_TEXT	ENDS
PUBLIC	?GetPCRoomAuthority@ioMyInfo@@QAEKXZ		; ioMyInfo::GetPCRoomAuthority
; Function compile flags: /Ogsp
;	COMDAT ?GetPCRoomAuthority@ioMyInfo@@QAEKXZ
_TEXT	SEGMENT
?GetPCRoomAuthority@ioMyInfo@@QAEKXZ PROC		; ioMyInfo::GetPCRoomAuthority, COMDAT
; _this$ = ecx

; 836  : 	DWORD GetPCRoomAuthority(){ return m_dwPCRoomAuthority; }

  00000	8b 81 34 08 00
	00		 mov	 eax, DWORD PTR [ecx+2100]
  00006	c3		 ret	 0
?GetPCRoomAuthority@ioMyInfo@@QAEKXZ ENDP		; ioMyInfo::GetPCRoomAuthority
_TEXT	ENDS
PUBLIC	?IsUserEvent@ioMyInfo@@QAE_NXZ			; ioMyInfo::IsUserEvent
; Function compile flags: /Ogsp
;	COMDAT ?IsUserEvent@ioMyInfo@@QAE_NXZ
_TEXT	SEGMENT
?IsUserEvent@ioMyInfo@@QAE_NXZ PROC			; ioMyInfo::IsUserEvent, COMDAT
; _this$ = ecx

; 838  : 	bool IsUserEvent() { return m_bUserHeroEvent; }

  00000	8a 81 39 08 00
	00		 mov	 al, BYTE PTR [ecx+2105]
  00006	c3		 ret	 0
?IsUserEvent@ioMyInfo@@QAE_NXZ ENDP			; ioMyInfo::IsUserEvent
_TEXT	ENDS
PUBLIC	?GetCurMaxCharSlot@ioMyInfo@@QBEHXZ		; ioMyInfo::GetCurMaxCharSlot
; Function compile flags: /Ogsp
;	COMDAT ?GetCurMaxCharSlot@ioMyInfo@@QBEHXZ
_TEXT	SEGMENT
?GetCurMaxCharSlot@ioMyInfo@@QBEHXZ PROC		; ioMyInfo::GetCurMaxCharSlot, COMDAT
; _this$ = ecx

; 862  : 	inline int GetCurMaxCharSlot() const { return m_iCurMaxCharSlot; }

  00000	8b 81 80 08 00
	00		 mov	 eax, DWORD PTR [ecx+2176]
  00006	c3		 ret	 0
?GetCurMaxCharSlot@ioMyInfo@@QBEHXZ ENDP		; ioMyInfo::GetCurMaxCharSlot
_TEXT	ENDS
PUBLIC	?GetSetCode@ioSetItemInfo@@QBEKXZ		; ioSetItemInfo::GetSetCode
; Function compile flags: /Ogsp
; File d:\lost saga for developer\youtube\tutorial\source\src\lsclient\iosetiteminfo.h
;	COMDAT ?GetSetCode@ioSetItemInfo@@QBEKXZ
_TEXT	SEGMENT
?GetSetCode@ioSetItemInfo@@QBEKXZ PROC			; ioSetItemInfo::GetSetCode, COMDAT
; _this$ = ecx

; 116  : 	inline DWORD GetSetCode() const { return m_dwSetCode; }

  00000	8b 41 1c	 mov	 eax, DWORD PTR [ecx+28]
  00003	c3		 ret	 0
?GetSetCode@ioSetItemInfo@@QBEKXZ ENDP			; ioSetItemInfo::GetSetCode
_TEXT	ENDS
PUBLIC	?GetName@ioSetItemInfo@@QBEABVioHashString@@XZ	; ioSetItemInfo::GetName
; Function compile flags: /Ogsp
;	COMDAT ?GetName@ioSetItemInfo@@QBEABVioHashString@@XZ
_TEXT	SEGMENT
?GetName@ioSetItemInfo@@QBEABVioHashString@@XZ PROC	; ioSetItemInfo::GetName, COMDAT
; _this$ = ecx

; 117  : 	inline const ioHashString& GetName() const { return m_SetName; }

  00000	8d 41 08	 lea	 eax, DWORD PTR [ecx+8]
  00003	c3		 ret	 0
?GetName@ioSetItemInfo@@QBEABVioHashString@@XZ ENDP	; ioSetItemInfo::GetName
_TEXT	ENDS
PUBLIC	?GetPackageType@ioSetItemInfo@@QBE?AW4PackageType@1@XZ ; ioSetItemInfo::GetPackageType
; Function compile flags: /Ogsp
;	COMDAT ?GetPackageType@ioSetItemInfo@@QBE?AW4PackageType@1@XZ
_TEXT	SEGMENT
?GetPackageType@ioSetItemInfo@@QBE?AW4PackageType@1@XZ PROC ; ioSetItemInfo::GetPackageType, COMDAT
; _this$ = ecx

; 120  : 	inline PackageType  GetPackageType() const { return m_ePackageType; }

  00000	8b 41 24	 mov	 eax, DWORD PTR [ecx+36]
  00003	c3		 ret	 0
?GetPackageType@ioSetItemInfo@@QBE?AW4PackageType@1@XZ ENDP ; ioSetItemInfo::GetPackageType
_TEXT	ENDS
PUBLIC	?GetPreOverWnd@ioSP2GUIManager@@QAEPAVioWnd@@XZ	; ioSP2GUIManager::GetPreOverWnd
; Function compile flags: /Ogsp
; File d:\lost saga for developer\youtube\tutorial\source\src\lsclient\gui\iosp2guimanager.h
;	COMDAT ?GetPreOverWnd@ioSP2GUIManager@@QAEPAVioWnd@@XZ
_TEXT	SEGMENT
?GetPreOverWnd@ioSP2GUIManager@@QAEPAVioWnd@@XZ PROC	; ioSP2GUIManager::GetPreOverWnd, COMDAT
; _this$ = ecx

; 220  : 	ioWnd *GetPreOverWnd(){ return m_pPreOverWnd; }

  00000	8b 41 10	 mov	 eax, DWORD PTR [ecx+16]
  00003	c3		 ret	 0
?GetPreOverWnd@ioSP2GUIManager@@QAEPAVioWnd@@XZ ENDP	; ioSP2GUIManager::GetPreOverWnd
_TEXT	ENDS
PUBLIC	?size@?$vector@HV?$allocator@H@std@@@std@@QBEIXZ ; std::vector<int,std::allocator<int> >::size
; Function compile flags: /Ogsp
; File c:\program files (x86)\microsoft visual studio 10.0\vc\include\vector
;	COMDAT ?size@?$vector@HV?$allocator@H@std@@@std@@QBEIXZ
_TEXT	SEGMENT
?size@?$vector@HV?$allocator@H@std@@@std@@QBEIXZ PROC	; std::vector<int,std::allocator<int> >::size, COMDAT
; _this$ = ecx

; 879  : 		return (this->_Mylast - this->_Myfirst);

  00000	8b 41 04	 mov	 eax, DWORD PTR [ecx+4]
  00003	2b 01		 sub	 eax, DWORD PTR [ecx]
  00005	c1 f8 02	 sar	 eax, 2

; 880  : 		}

  00008	c3		 ret	 0
?size@?$vector@HV?$allocator@H@std@@@std@@QBEIXZ ENDP	; std::vector<int,std::allocator<int> >::size
_TEXT	ENDS
PUBLIC	?empty@?$vector@HV?$allocator@H@std@@@std@@QBE_NXZ ; std::vector<int,std::allocator<int> >::empty
; Function compile flags: /Ogsp
;	COMDAT ?empty@?$vector@HV?$allocator@H@std@@@std@@QBE_NXZ
_TEXT	SEGMENT
?empty@?$vector@HV?$allocator@H@std@@@std@@QBE_NXZ PROC	; std::vector<int,std::allocator<int> >::empty, COMDAT
; _this$ = ecx

; 889  : 		return (this->_Myfirst == this->_Mylast);

  00000	8b 01		 mov	 eax, DWORD PTR [ecx]
  00002	2b 41 04	 sub	 eax, DWORD PTR [ecx+4]
  00005	f7 d8		 neg	 eax
  00007	1b c0		 sbb	 eax, eax
  00009	40		 inc	 eax

; 890  : 		}

  0000a	c3		 ret	 0
?empty@?$vector@HV?$allocator@H@std@@@std@@QBE_NXZ ENDP	; std::vector<int,std::allocator<int> >::empty
_TEXT	ENDS
PUBLIC	??A?$vector@HV?$allocator@H@std@@@std@@QAEAAHI@Z ; std::vector<int,std::allocator<int> >::operator[]
; Function compile flags: /Ogsp
;	COMDAT ??A?$vector@HV?$allocator@H@std@@@std@@QAEAAHI@Z
_TEXT	SEGMENT
__Pos$ = 8						; size = 4
??A?$vector@HV?$allocator@H@std@@@std@@QAEAAHI@Z PROC	; std::vector<int,std::allocator<int> >::operator[], COMDAT
; _this$ = ecx

; 928  : 		{	// subscript mutable sequence

  00000	55		 push	 ebp
  00001	8b ec		 mov	 ebp, esp

; 929  :  #if _ITERATOR_DEBUG_LEVEL == 2
; 930  : 		if (size() <= _Pos)
; 931  : 			{	// report error
; 932  : 			_DEBUG_ERROR("vector subscript out of range");
; 933  : 			_SCL_SECURE_OUT_OF_RANGE;
; 934  : 			}
; 935  : 
; 936  :  #elif _ITERATOR_DEBUG_LEVEL == 1
; 937  : 		_SCL_SECURE_VALIDATE_RANGE(_Pos < size());
; 938  :  #endif /* _ITERATOR_DEBUG_LEVEL */
; 939  : 
; 940  : 		return (*(this->_Myfirst + _Pos));

  00003	8b 01		 mov	 eax, DWORD PTR [ecx]
  00005	8b 4d 08	 mov	 ecx, DWORD PTR __Pos$[ebp]
  00008	8d 04 88	 lea	 eax, DWORD PTR [eax+ecx*4]

; 941  : 		}

  0000b	5d		 pop	 ebp
  0000c	c2 04 00	 ret	 4
??A?$vector@HV?$allocator@H@std@@@std@@QAEAAHI@Z ENDP	; std::vector<int,std::allocator<int> >::operator[]
_TEXT	ENDS
PUBLIC	??_7?$CEncrypt@H@@6B@				; CEncrypt<int>::`vftable'
PUBLIC	??1?$CEncrypt@H@@UAE@XZ				; CEncrypt<int>::~CEncrypt<int>
PUBLIC	??_R4?$CEncrypt@H@@6B@				; CEncrypt<int>::`RTTI Complete Object Locator'
PUBLIC	??_R0?AV?$CEncrypt@H@@@8			; CEncrypt<int> `RTTI Type Descriptor'
PUBLIC	??_R3?$CEncrypt@H@@8				; CEncrypt<int>::`RTTI Class Hierarchy Descriptor'
PUBLIC	??_R2?$CEncrypt@H@@8				; CEncrypt<int>::`RTTI Base Class Array'
PUBLIC	??_R1A@?0A@EA@?$CEncrypt@H@@8			; CEncrypt<int>::`RTTI Base Class Descriptor at (0,-1,0,64)'
EXTRN	??1ccddaabb@@UAE@XZ:PROC			; ccddaabb::~ccddaabb
EXTRN	??_E?$CEncrypt@H@@UAEPAXI@Z:PROC		; CEncrypt<int>::`vector deleting destructor'
;	COMDAT ??_R1A@?0A@EA@?$CEncrypt@H@@8
; File d:\lost saga for developer\youtube\tutorial\source\src\lsclient\encryptvalue.h
rdata$r	SEGMENT
??_R1A@?0A@EA@?$CEncrypt@H@@8 DD FLAT:??_R0?AV?$CEncrypt@H@@@8 ; CEncrypt<int>::`RTTI Base Class Descriptor at (0,-1,0,64)'
	DD	00H
	DD	00H
	DD	0ffffffffH
	DD	00H
	DD	040H
	DD	FLAT:??_R3?$CEncrypt@H@@8
rdata$r	ENDS
;	COMDAT ??_R2?$CEncrypt@H@@8
rdata$r	SEGMENT
??_R2?$CEncrypt@H@@8 DD FLAT:??_R1A@?0A@EA@?$CEncrypt@H@@8 ; CEncrypt<int>::`RTTI Base Class Array'
rdata$r	ENDS
;	COMDAT ??_R3?$CEncrypt@H@@8
rdata$r	SEGMENT
??_R3?$CEncrypt@H@@8 DD 00H				; CEncrypt<int>::`RTTI Class Hierarchy Descriptor'
	DD	00H
	DD	01H
	DD	FLAT:??_R2?$CEncrypt@H@@8
rdata$r	ENDS
;	COMDAT ??_R0?AV?$CEncrypt@H@@@8
_DATA	SEGMENT
??_R0?AV?$CEncrypt@H@@@8 DD FLAT:??_7type_info@@6B@	; CEncrypt<int> `RTTI Type Descriptor'
	DD	00H
	DB	'.?AV?$CEncrypt@H@@', 00H
_DATA	ENDS
;	COMDAT ??_R4?$CEncrypt@H@@6B@
rdata$r	SEGMENT
??_R4?$CEncrypt@H@@6B@ DD 00H				; CEncrypt<int>::`RTTI Complete Object Locator'
	DD	00H
	DD	00H
	DD	FLAT:??_R0?AV?$CEncrypt@H@@@8
	DD	FLAT:??_R3?$CEncrypt@H@@8
rdata$r	ENDS
;	COMDAT ??_7?$CEncrypt@H@@6B@
CONST	SEGMENT
??_7?$CEncrypt@H@@6B@ DD FLAT:??_R4?$CEncrypt@H@@6B@	; CEncrypt<int>::`vftable'
	DD	FLAT:??_E?$CEncrypt@H@@UAEPAXI@Z
; Function compile flags: /Ogsp
CONST	ENDS
;	COMDAT ??1?$CEncrypt@H@@UAE@XZ
_TEXT	SEGMENT
??1?$CEncrypt@H@@UAE@XZ PROC				; CEncrypt<int>::~CEncrypt<int>, COMDAT
; _this$ = ecx

; 127  : 	{

  00000	c7 01 00 00 00
	00		 mov	 DWORD PTR [ecx], OFFSET ??_7?$CEncrypt@H@@6B@

; 128  : 	}

  00006	83 c1 0c	 add	 ecx, 12			; 0000000cH
  00009	e9 00 00 00 00	 jmp	 ??1ccddaabb@@UAE@XZ	; ccddaabb::~ccddaabb
??1?$CEncrypt@H@@UAE@XZ ENDP				; CEncrypt<int>::~CEncrypt<int>
_TEXT	ENDS
PUBLIC	?size@?$vector@PAUPriceData@ioClassPrice@@V?$allocator@PAUPriceData@ioClassPrice@@@std@@@std@@QBEIXZ ; std::vector<ioClassPrice::PriceData *,std::allocator<ioClassPrice::PriceData *> >::size
; Function compile flags: /Ogsp
; File c:\program files (x86)\microsoft visual studio 10.0\vc\include\vector
;	COMDAT ?size@?$vector@PAUPriceData@ioClassPrice@@V?$allocator@PAUPriceData@ioClassPrice@@@std@@@std@@QBEIXZ
_TEXT	SEGMENT
?size@?$vector@PAUPriceData@ioClassPrice@@V?$allocator@PAUPriceData@ioClassPrice@@@std@@@std@@QBEIXZ PROC ; std::vector<ioClassPrice::PriceData *,std::allocator<ioClassPrice::PriceData *> >::size, COMDAT
; _this$ = ecx

; 879  : 		return (this->_Mylast - this->_Myfirst);

  00000	8b 41 04	 mov	 eax, DWORD PTR [ecx+4]
  00003	2b 01		 sub	 eax, DWORD PTR [ecx]
  00005	c1 f8 02	 sar	 eax, 2

; 880  : 		}

  00008	c3		 ret	 0
?size@?$vector@PAUPriceData@ioClassPrice@@V?$allocator@PAUPriceData@ioClassPrice@@@std@@@std@@QBEIXZ ENDP ; std::vector<ioClassPrice::PriceData *,std::allocator<ioClassPrice::PriceData *> >::size
; Function compile flags: /Ogsp
_TEXT	ENDS
;	COMDAT ??_G?$CEncrypt@H@@UAEPAXI@Z
_TEXT	SEGMENT
___flags$ = 8						; size = 4
??_G?$CEncrypt@H@@UAEPAXI@Z PROC			; CEncrypt<int>::`scalar deleting destructor', COMDAT
; _this$ = ecx
  00000	55		 push	 ebp
  00001	8b ec		 mov	 ebp, esp
  00003	56		 push	 esi
  00004	8b f1		 mov	 esi, ecx
  00006	8d 4e 0c	 lea	 ecx, DWORD PTR [esi+12]
  00009	c7 06 00 00 00
	00		 mov	 DWORD PTR [esi], OFFSET ??_7?$CEncrypt@H@@6B@
  0000f	e8 00 00 00 00	 call	 ??1ccddaabb@@UAE@XZ	; ccddaabb::~ccddaabb
  00014	f6 45 08 01	 test	 BYTE PTR ___flags$[ebp], 1
  00018	74 07		 je	 SHORT $LN1@scalar@2
  0001a	56		 push	 esi
  0001b	e8 00 00 00 00	 call	 ??3@YAXPAX@Z		; operator delete
  00020	59		 pop	 ecx
$LN1@scalar@2:
  00021	8b c6		 mov	 eax, esi
  00023	5e		 pop	 esi
  00024	5d		 pop	 ebp
  00025	c2 04 00	 ret	 4
??_G?$CEncrypt@H@@UAEPAXI@Z ENDP			; CEncrypt<int>::`scalar deleting destructor'
_TEXT	ENDS
PUBLIC	??0?$allocator@H@std@@QAE@XZ			; std::allocator<int>::allocator<int>
; Function compile flags: /Ogsp
; File c:\program files (x86)\microsoft visual studio 10.0\vc\include\xmemory
;	COMDAT ??0?$allocator@H@std@@QAE@XZ
_TEXT	SEGMENT
??0?$allocator@H@std@@QAE@XZ PROC			; std::allocator<int>::allocator<int>, COMDAT
; _this$ = ecx

; 161  : 	_ALLOCATOR() _THROW0()

  00000	8b c1		 mov	 eax, ecx

; 162  : 		{	// construct default allocator (do nothing)
; 163  : 		}

  00002	c3		 ret	 0
??0?$allocator@H@std@@QAE@XZ ENDP			; std::allocator<int>::allocator<int>
_TEXT	ENDS
PUBLIC	??1?$_Vector_val@HV?$allocator@H@std@@@std@@QAE@XZ ; std::_Vector_val<int,std::allocator<int> >::~_Vector_val<int,std::allocator<int> >
; Function compile flags: /Ogsp
; File c:\program files (x86)\microsoft visual studio 10.0\vc\include\vector
;	COMDAT ??1?$_Vector_val@HV?$allocator@H@std@@@std@@QAE@XZ
_TEXT	SEGMENT
??1?$_Vector_val@HV?$allocator@H@std@@@std@@QAE@XZ PROC	; std::_Vector_val<int,std::allocator<int> >::~_Vector_val<int,std::allocator<int> >, COMDAT
; _this$ = ecx

; 434  : 		}

  00000	c3		 ret	 0
??1?$_Vector_val@HV?$allocator@H@std@@@std@@QAE@XZ ENDP	; std::_Vector_val<int,std::allocator<int> >::~_Vector_val<int,std::allocator<int> >
_TEXT	ENDS
PUBLIC	?DecryptValueToPool@?$CEncrypt@K@@QAEXPAK@Z	; CEncrypt<unsigned long>::DecryptValueToPool
EXTRN	?DecryptByte@ccddaabb@@QBEXPBDPADH@Z:PROC	; ccddaabb::DecryptByte
; Function compile flags: /Ogsp
; File d:\lost saga for developer\youtube\tutorial\source\src\lsclient\encryptvalue.h
;	COMDAT ?DecryptValueToPool@?$CEncrypt@K@@QAEXPAK@Z
_TEXT	SEGMENT
_value$ = 8						; size = 4
?DecryptValueToPool@?$CEncrypt@K@@QAEXPAK@Z PROC	; CEncrypt<unsigned long>::DecryptValueToPool, COMDAT
; _this$ = ecx

; 1256 : 	{

  00000	55		 push	 ebp
  00001	8b ec		 mov	 ebp, esp
  00003	56		 push	 esi

; 1257 : 		m_RC5.DecryptByte( m_MemPool, m_TempMem, 4 );

  00004	8d 71 28	 lea	 esi, DWORD PTR [ecx+40]
  00007	6a 04		 push	 4
  00009	8d 41 1c	 lea	 eax, DWORD PTR [ecx+28]
  0000c	56		 push	 esi
  0000d	50		 push	 eax
  0000e	83 c1 0c	 add	 ecx, 12			; 0000000cH
  00011	e8 00 00 00 00	 call	 ?DecryptByte@ccddaabb@@QBEXPBDPADH@Z ; ccddaabb::DecryptByte

; 1258 : 		*value = *((DWORD*)m_TempMem);

  00016	8b 06		 mov	 eax, DWORD PTR [esi]
  00018	8b 4d 08	 mov	 ecx, DWORD PTR _value$[ebp]
  0001b	89 01		 mov	 DWORD PTR [ecx], eax
  0001d	5e		 pop	 esi

; 1259 : 	}

  0001e	5d		 pop	 ebp
  0001f	c2 04 00	 ret	 4
?DecryptValueToPool@?$CEncrypt@K@@QAEXPAK@Z ENDP	; CEncrypt<unsigned long>::DecryptValueToPool
_TEXT	ENDS
PUBLIC	?EncryptValueToPool@?$CEncrypt@H@@AAEXPBD@Z	; CEncrypt<int>::EncryptValueToPool
EXTRN	?EncryptByte@ccddaabb@@QAEXPBDPADH@Z:PROC	; ccddaabb::EncryptByte
; Function compile flags: /Ogsp
;	COMDAT ?EncryptValueToPool@?$CEncrypt@H@@AAEXPBD@Z
_TEXT	SEGMENT
_value$ = 8						; size = 4
?EncryptValueToPool@?$CEncrypt@H@@AAEXPBD@Z PROC	; CEncrypt<int>::EncryptValueToPool, COMDAT
; _this$ = ecx

; 67   : 	{

  00000	55		 push	 ebp
  00001	8b ec		 mov	 ebp, esp

; 68   : 		m_RC5.EncryptByte( value, m_MemPool, max(m_ValueSize, DEFAULT_ENCRYPT) );

  00003	0f b7 41 06	 movzx	 eax, WORD PTR [ecx+6]
  00007	83 f8 04	 cmp	 eax, 4
  0000a	77 03		 ja	 SHORT $LN4@EncryptVal
  0000c	6a 04		 push	 4
  0000e	58		 pop	 eax
$LN4@EncryptVal:
  0000f	50		 push	 eax
  00010	8d 41 1c	 lea	 eax, DWORD PTR [ecx+28]
  00013	50		 push	 eax
  00014	ff 75 08	 push	 DWORD PTR _value$[ebp]
  00017	83 c1 0c	 add	 ecx, 12			; 0000000cH
  0001a	e8 00 00 00 00	 call	 ?EncryptByte@ccddaabb@@QAEXPBDPADH@Z ; ccddaabb::EncryptByte

; 69   : 		
; 70   : 	}

  0001f	5d		 pop	 ebp
  00020	c2 04 00	 ret	 4
?EncryptValueToPool@?$CEncrypt@H@@AAEXPBD@Z ENDP	; CEncrypt<int>::EncryptValueToPool
_TEXT	ENDS
PUBLIC	?Init@?$CEncrypt@H@@AAEXXZ			; CEncrypt<int>::Init
EXTRN	?Setup@ccddaabb@@QAEXPBDHH@Z:PROC		; ccddaabb::Setup
EXTRN	__imp__rand:PROC
EXTRN	__imp__timeGetTime@0:PROC
EXTRN	__imp__GetCurrentProcessId@0:PROC
; Function compile flags: /Ogsp
;	COMDAT ?Init@?$CEncrypt@H@@AAEXXZ
_TEXT	SEGMENT
_pid$ = -8						; size = 4
_tick$ = -4						; size = 4
?Init@?$CEncrypt@H@@AAEXXZ PROC				; CEncrypt<int>::Init, COMDAT
; _this$ = ecx

; 73   : 	{

  00000	55		 push	 ebp
  00001	8b ec		 mov	 ebp, esp
  00003	51		 push	 ecx
  00004	51		 push	 ecx
  00005	53		 push	 ebx
  00006	56		 push	 esi
  00007	57		 push	 edi
  00008	8b f1		 mov	 esi, ecx

; 74   : 		DWORD pid = GetCurrentProcessId();

  0000a	ff 15 00 00 00
	00		 call	 DWORD PTR __imp__GetCurrentProcessId@0
  00010	89 45 f8	 mov	 DWORD PTR _pid$[ebp], eax

; 75   : 		DWORD tick = timeGetTime();

  00013	ff 15 00 00 00
	00		 call	 DWORD PTR __imp__timeGetTime@0

; 76   : 		m_ValueSize    = sizeof(type);
; 77   : 		m_MemPoolPos   = (unsigned short)( rand()+pid+tick )%(MAX_MEM_POOL-m_ValueSize);

  00019	8b 3d 00 00 00
	00		 mov	 edi, DWORD PTR __imp__rand
  0001f	89 45 fc	 mov	 DWORD PTR _tick$[ebp], eax
  00022	6a 04		 push	 4
  00024	58		 pop	 eax
  00025	66 89 46 06	 mov	 WORD PTR [esi+6], ax
  00029	ff d7		 call	 edi
  0002b	03 45 f8	 add	 eax, DWORD PTR _pid$[ebp]
  0002e	0f b7 4e 06	 movzx	 ecx, WORD PTR [esi+6]
  00032	03 45 fc	 add	 eax, DWORD PTR _tick$[ebp]
  00035	6a 0c		 push	 12			; 0000000cH
  00037	0f b7 c0	 movzx	 eax, ax
  0003a	5b		 pop	 ebx
  0003b	99		 cdq
  0003c	2b d9		 sub	 ebx, ecx
  0003e	f7 fb		 idiv	 ebx
  00040	66 89 56 04	 mov	 WORD PTR [esi+4], dx

; 78   : 		m_EncryptSeed  = (char)( rand()+pid+tick )%256;

  00044	ff d7		 call	 edi
  00046	02 45 f8	 add	 al, BYTE PTR _pid$[ebp]
  00049	02 45 fc	 add	 al, BYTE PTR _tick$[ebp]
  0004c	0f be c0	 movsx	 eax, al
  0004f	25 ff 00 00 80	 and	 eax, -2147483393	; 800000ffH
  00054	79 07		 jns	 SHORT $LN8@Init
  00056	48		 dec	 eax
  00057	0d 00 ff ff ff	 or	 eax, -256		; ffffff00H
  0005c	40		 inc	 eax
$LN8@Init:
  0005d	88 46 08	 mov	 BYTE PTR [esi+8], al

; 79   : 
; 80   : 		for (int i = 0; i < MAX_MEM_POOL ; i++)

  00060	33 db		 xor	 ebx, ebx
$LL3@Init:

; 81   : 			m_MemPool[i] = (char)( rand()+pid+tick )%256; // 

  00062	ff d7		 call	 edi
  00064	02 45 f8	 add	 al, BYTE PTR _pid$[ebp]
  00067	02 45 fc	 add	 al, BYTE PTR _tick$[ebp]
  0006a	0f be c0	 movsx	 eax, al
  0006d	25 ff 00 00 80	 and	 eax, -2147483393	; 800000ffH
  00072	79 07		 jns	 SHORT $LN9@Init
  00074	48		 dec	 eax
  00075	0d 00 ff ff ff	 or	 eax, -256		; ffffff00H
  0007a	40		 inc	 eax
$LN9@Init:
  0007b	88 44 1e 1c	 mov	 BYTE PTR [esi+ebx+28], al
  0007f	43		 inc	 ebx
  00080	83 fb 0c	 cmp	 ebx, 12			; 0000000cH
  00083	7c dd		 jl	 SHORT $LL3@Init

; 82   : 
; 83   : 		//UJ 130913, : szKey  
; 84   : 		//char szKey[ccddaabb::KEY_SIZE];//="";
; 85   : 		//for (int i = 0; i < ccddaabb::KEY_SIZE  ; i++)
; 86   : 		//	szKey[i] = (char)( rand()+pid+tick )%256; // 
; 87   : 		m_RC5.Setup( NULL, pid, tick );

  00085	ff 75 fc	 push	 DWORD PTR _tick$[ebp]
  00088	8d 4e 0c	 lea	 ecx, DWORD PTR [esi+12]
  0008b	ff 75 f8	 push	 DWORD PTR _pid$[ebp]
  0008e	6a 00		 push	 0
  00090	e8 00 00 00 00	 call	 ?Setup@ccddaabb@@QAEXPBDHH@Z ; ccddaabb::Setup
  00095	5f		 pop	 edi
  00096	5e		 pop	 esi
  00097	5b		 pop	 ebx

; 88   : 
; 89   : #ifdef _NOTUSE
; 90   : 		m_value        = 0;
; 91   : 		EncryptValueToPool((char*)&m_value);
; 92   : 		Debug();
; 93   : #endif
; 94   : 	}

  00098	c9		 leave
  00099	c3		 ret	 0
?Init@?$CEncrypt@H@@AAEXXZ ENDP				; CEncrypt<int>::Init
_TEXT	ENDS
PUBLIC	?DecryptValueToPool@?$CEncrypt@H@@QAEXPAH@Z	; CEncrypt<int>::DecryptValueToPool
; Function compile flags: /Ogsp
;	COMDAT ?DecryptValueToPool@?$CEncrypt@H@@QAEXPAH@Z
_TEXT	SEGMENT
_value$ = 8						; size = 4
?DecryptValueToPool@?$CEncrypt@H@@QAEXPAH@Z PROC	; CEncrypt<int>::DecryptValueToPool, COMDAT
; _this$ = ecx

; 837  : 	{

  00000	55		 push	 ebp
  00001	8b ec		 mov	 ebp, esp
  00003	56		 push	 esi

; 838  : 		m_RC5.DecryptByte( m_MemPool, m_TempMem, 4 );

  00004	8d 71 28	 lea	 esi, DWORD PTR [ecx+40]
  00007	6a 04		 push	 4
  00009	8d 41 1c	 lea	 eax, DWORD PTR [ecx+28]
  0000c	56		 push	 esi
  0000d	50		 push	 eax
  0000e	83 c1 0c	 add	 ecx, 12			; 0000000cH
  00011	e8 00 00 00 00	 call	 ?DecryptByte@ccddaabb@@QBEXPBDPADH@Z ; ccddaabb::DecryptByte

; 839  : 		*value = *((int*)m_TempMem);

  00016	8b 06		 mov	 eax, DWORD PTR [esi]
  00018	8b 4d 08	 mov	 ecx, DWORD PTR _value$[ebp]
  0001b	89 01		 mov	 DWORD PTR [ecx], eax
  0001d	5e		 pop	 esi

; 840  : 	}

  0001e	5d		 pop	 ebp
  0001f	c2 04 00	 ret	 4
?DecryptValueToPool@?$CEncrypt@H@@QAEXPAH@Z ENDP	; CEncrypt<int>::DecryptValueToPool
_TEXT	ENDS
PUBLIC	??0?$_Vector_const_iterator@V?$_Vector_val@HV?$allocator@H@std@@@std@@@std@@QAE@PAHPBU_Container_base0@1@@Z ; std::_Vector_const_iterator<std::_Vector_val<int,std::allocator<int> > >::_Vector_const_iterator<std::_Vector_val<int,std::allocator<int> > >
; Function compile flags: /Ogsp
; File c:\program files (x86)\microsoft visual studio 10.0\vc\include\vector
;	COMDAT ??0?$_Vector_const_iterator@V?$_Vector_val@HV?$allocator@H@std@@@std@@@std@@QAE@PAHPBU_Container_base0@1@@Z
_TEXT	SEGMENT
__Parg$ = 8						; size = 4
__Pvector$ = 12						; size = 4
??0?$_Vector_const_iterator@V?$_Vector_val@HV?$allocator@H@std@@@std@@@std@@QAE@PAHPBU_Container_base0@1@@Z PROC ; std::_Vector_const_iterator<std::_Vector_val<int,std::allocator<int> > >::_Vector_const_iterator<std::_Vector_val<int,std::allocator<int> > >, COMDAT
; _this$ = ecx

; 45   : 		{	// construct with pointer _Parg

  00000	55		 push	 ebp
  00001	8b ec		 mov	 ebp, esp
  00003	8b c1		 mov	 eax, ecx
  00005	8b 4d 08	 mov	 ecx, DWORD PTR __Parg$[ebp]
  00008	89 08		 mov	 DWORD PTR [eax], ecx

; 46   : 		this->_Adopt(_Pvector);
; 47   : 		}

  0000a	5d		 pop	 ebp
  0000b	c2 08 00	 ret	 8
??0?$_Vector_const_iterator@V?$_Vector_val@HV?$allocator@H@std@@@std@@@std@@QAE@PAHPBU_Container_base0@1@@Z ENDP ; std::_Vector_const_iterator<std::_Vector_val<int,std::allocator<int> > >::_Vector_const_iterator<std::_Vector_val<int,std::allocator<int> > >
_TEXT	ENDS
PUBLIC	??0?$_Vector_iterator@V?$_Vector_val@HV?$allocator@H@std@@@std@@@std@@QAE@PAHPBU_Container_base0@1@@Z ; std::_Vector_iterator<std::_Vector_val<int,std::allocator<int> > >::_Vector_iterator<std::_Vector_val<int,std::allocator<int> > >
; Function compile flags: /Ogsp
;	COMDAT ??0?$_Vector_iterator@V?$_Vector_val@HV?$allocator@H@std@@@std@@@std@@QAE@PAHPBU_Container_base0@1@@Z
_TEXT	SEGMENT
__Parg$ = 8						; size = 4
__Pvector$ = 12						; size = 4
??0?$_Vector_iterator@V?$_Vector_val@HV?$allocator@H@std@@@std@@@std@@QAE@PAHPBU_Container_base0@1@@Z PROC ; std::_Vector_iterator<std::_Vector_val<int,std::allocator<int> > >::_Vector_iterator<std::_Vector_val<int,std::allocator<int> > >, COMDAT
; _this$ = ecx

; 304  : 		{	// construct with pointer _Parg

  00000	55		 push	 ebp
  00001	8b ec		 mov	 ebp, esp
  00003	8b c1		 mov	 eax, ecx
  00005	8b 4d 08	 mov	 ecx, DWORD PTR __Parg$[ebp]
  00008	89 08		 mov	 DWORD PTR [eax], ecx

; 305  : 		}

  0000a	5d		 pop	 ebp
  0000b	c2 08 00	 ret	 8
??0?$_Vector_iterator@V?$_Vector_val@HV?$allocator@H@std@@@std@@@std@@QAE@PAHPBU_Container_base0@1@@Z ENDP ; std::_Vector_iterator<std::_Vector_val<int,std::allocator<int> > >::_Vector_iterator<std::_Vector_val<int,std::allocator<int> > >
_TEXT	ENDS
PUBLIC	??0?$allocator@H@std@@QAE@ABV01@@Z		; std::allocator<int>::allocator<int>
; Function compile flags: /Ogsp
; File c:\program files (x86)\microsoft visual studio 10.0\vc\include\xmemory
;	COMDAT ??0?$allocator@H@std@@QAE@ABV01@@Z
_TEXT	SEGMENT
___formal$ = 8						; size = 4
??0?$allocator@H@std@@QAE@ABV01@@Z PROC			; std::allocator<int>::allocator<int>, COMDAT
; _this$ = ecx

; 165  : 	_ALLOCATOR(const _ALLOCATOR<_Ty>&) _THROW0()

  00000	8b c1		 mov	 eax, ecx

; 166  : 		{	// construct by copying (do nothing)
; 167  : 		}

  00002	c2 04 00	 ret	 4
??0?$allocator@H@std@@QAE@ABV01@@Z ENDP			; std::allocator<int>::allocator<int>
_TEXT	ENDS
PUBLIC	?deallocate@?$allocator@H@std@@QAEXPAHI@Z	; std::allocator<int>::deallocate
; Function compile flags: /Ogsp
;	COMDAT ?deallocate@?$allocator@H@std@@QAEXPAHI@Z
_TEXT	SEGMENT
__Ptr$ = 8						; size = 4
___formal$ = 12						; size = 4
?deallocate@?$allocator@H@std@@QAEXPAHI@Z PROC		; std::allocator<int>::deallocate, COMDAT
; _this$ = ecx

; 181  : 		{	// deallocate object at _Ptr, ignore size

  00000	55		 push	 ebp
  00001	8b ec		 mov	 ebp, esp

; 182  : 		::operator delete(_Ptr);

  00003	ff 75 08	 push	 DWORD PTR __Ptr$[ebp]
  00006	e8 00 00 00 00	 call	 ??3@YAXPAX@Z		; operator delete
  0000b	59		 pop	 ecx

; 183  : 		}

  0000c	5d		 pop	 ebp
  0000d	c2 08 00	 ret	 8
?deallocate@?$allocator@H@std@@QAEXPAHI@Z ENDP		; std::allocator<int>::deallocate
_TEXT	ENDS
PUBLIC	?capacity@?$vector@HV?$allocator@H@std@@@std@@QBEIXZ ; std::vector<int,std::allocator<int> >::capacity
; Function compile flags: /Ogsp
; File c:\program files (x86)\microsoft visual studio 10.0\vc\include\vector
;	COMDAT ?capacity@?$vector@HV?$allocator@H@std@@@std@@QBEIXZ
_TEXT	SEGMENT
?capacity@?$vector@HV?$allocator@H@std@@@std@@QBEIXZ PROC ; std::vector<int,std::allocator<int> >::capacity, COMDAT
; _this$ = ecx

; 777  : 		return (this->_Myend - this->_Myfirst);

  00000	8b 41 08	 mov	 eax, DWORD PTR [ecx+8]
  00003	2b 01		 sub	 eax, DWORD PTR [ecx]
  00005	c1 f8 02	 sar	 eax, 2

; 778  : 		}

  00008	c3		 ret	 0
?capacity@?$vector@HV?$allocator@H@std@@@std@@QBEIXZ ENDP ; std::vector<int,std::allocator<int> >::capacity
_TEXT	ENDS
PUBLIC	?_Make_iter@?$vector@HV?$allocator@H@std@@@std@@QBE?AV?$_Vector_iterator@V?$_Vector_val@HV?$allocator@H@std@@@std@@@2@V?$_Vector_const_iterator@V?$_Vector_val@HV?$allocator@H@std@@@std@@@2@@Z ; std::vector<int,std::allocator<int> >::_Make_iter
; Function compile flags: /Ogsp
;	COMDAT ?_Make_iter@?$vector@HV?$allocator@H@std@@@std@@QBE?AV?$_Vector_iterator@V?$_Vector_val@HV?$allocator@H@std@@@std@@@2@V?$_Vector_const_iterator@V?$_Vector_val@HV?$allocator@H@std@@@std@@@2@@Z
_TEXT	SEGMENT
___$ReturnUdt$ = 8					; size = 4
__Where$ = 12						; size = 4
?_Make_iter@?$vector@HV?$allocator@H@std@@@std@@QBE?AV?$_Vector_iterator@V?$_Vector_val@HV?$allocator@H@std@@@std@@@2@V?$_Vector_const_iterator@V?$_Vector_val@HV?$allocator@H@std@@@std@@@2@@Z PROC ; std::vector<int,std::allocator<int> >::_Make_iter, COMDAT
; _this$ = ecx

; 801  : 		{	// make iterator from const_iterator

  00000	55		 push	 ebp
  00001	8b ec		 mov	 ebp, esp

; 802  : 		return (iterator(_Where._Ptr, this));

  00003	8b 45 08	 mov	 eax, DWORD PTR ___$ReturnUdt$[ebp]
  00006	8b 4d 0c	 mov	 ecx, DWORD PTR __Where$[ebp]
  00009	89 08		 mov	 DWORD PTR [eax], ecx

; 803  : 		}

  0000b	5d		 pop	 ebp
  0000c	c2 08 00	 ret	 8
?_Make_iter@?$vector@HV?$allocator@H@std@@@std@@QBE?AV?$_Vector_iterator@V?$_Vector_val@HV?$allocator@H@std@@@std@@@2@V?$_Vector_const_iterator@V?$_Vector_val@HV?$allocator@H@std@@@std@@@2@@Z ENDP ; std::vector<int,std::allocator<int> >::_Make_iter
_TEXT	ENDS
PUBLIC	?_Xlen@?$vector@HV?$allocator@H@std@@@std@@IBEXXZ ; std::vector<int,std::allocator<int> >::_Xlen
; Function compile flags: /Ogsp
;	COMDAT ?_Xlen@?$vector@HV?$allocator@H@std@@@std@@IBEXXZ
_TEXT	SEGMENT
?_Xlen@?$vector@HV?$allocator@H@std@@@std@@IBEXXZ PROC	; std::vector<int,std::allocator<int> >::_Xlen, COMDAT
; _this$ = ecx

; 1427 : 		_Xlength_error("vector<T> too long");

  00000	68 00 00 00 00	 push	 OFFSET ??_C@_0BD@OLBABOEK@vector?$DMT?$DO?5too?5long?$AA@
  00005	ff 15 00 00 00
	00		 call	 DWORD PTR __imp_?_Xlength_error@std@@YAXPBD@Z
$LN4@Xlen@2:
$LN3@Xlen@2:
  0000b	cc		 int	 3
?_Xlen@?$vector@HV?$allocator@H@std@@@std@@IBEXXZ ENDP	; std::vector<int,std::allocator<int> >::_Xlen
_TEXT	ENDS
PUBLIC	?max_size@?$allocator@H@std@@QBEIXZ		; std::allocator<int>::max_size
; Function compile flags: /Ogsp
; File c:\program files (x86)\microsoft visual studio 10.0\vc\include\xmemory
;	COMDAT ?max_size@?$allocator@H@std@@QBEIXZ
_TEXT	SEGMENT
?max_size@?$allocator@H@std@@QBEIXZ PROC		; std::allocator<int>::max_size, COMDAT
; _this$ = ecx

; 218  : 		_SIZT _Count = (_SIZT)(-1) / sizeof (_Ty);
; 219  : 		return (0 < _Count ? _Count : 1);

  00000	b8 ff ff ff 3f	 mov	 eax, 1073741823		; 3fffffffH

; 220  : 		}

  00005	c3		 ret	 0
?max_size@?$allocator@H@std@@QBEIXZ ENDP		; std::allocator<int>::max_size
_TEXT	ENDS
PUBLIC	??Y?$_Vector_const_iterator@V?$_Vector_val@HV?$allocator@H@std@@@std@@@std@@QAEAAV01@H@Z ; std::_Vector_const_iterator<std::_Vector_val<int,std::allocator<int> > >::operator+=
; Function compile flags: /Ogsp
; File c:\program files (x86)\microsoft visual studio 10.0\vc\include\vector
;	COMDAT ??Y?$_Vector_const_iterator@V?$_Vector_val@HV?$allocator@H@std@@@std@@@std@@QAEAAV01@H@Z
_TEXT	SEGMENT
__Off$ = 8						; size = 4
??Y?$_Vector_const_iterator@V?$_Vector_val@HV?$allocator@H@std@@@std@@@std@@QAEAAV01@H@Z PROC ; std::_Vector_const_iterator<std::_Vector_val<int,std::allocator<int> > >::operator+=, COMDAT
; _this$ = ecx

; 151  : 		{	// increment by integer

  00000	55		 push	 ebp
  00001	8b ec		 mov	 ebp, esp
  00003	8b c1		 mov	 eax, ecx

; 152  :  #if _ITERATOR_DEBUG_LEVEL == 2
; 153  : 		if (this->_Getcont() == 0
; 154  : 			|| this->_Ptr + _Off < ((_Myvec *)this->_Getcont())->_Myfirst
; 155  : 			|| ((_Myvec *)this->_Getcont())->_Mylast < this->_Ptr + _Off)
; 156  : 			{	// report error
; 157  : 			_DEBUG_ERROR("vector iterator + offset out of range");
; 158  : 			_SCL_SECURE_OUT_OF_RANGE;
; 159  : 			}
; 160  : 
; 161  :  #elif _ITERATOR_DEBUG_LEVEL == 1
; 162  : 		_SCL_SECURE_VALIDATE(this->_Getcont() != 0);
; 163  : 		_SCL_SECURE_VALIDATE_RANGE(
; 164  : 			((_Myvec *)this->_Getcont())->_Myfirst <= this->_Ptr + _Off
; 165  : 			&& this->_Ptr + _Off <= ((_Myvec *)this->_Getcont())->_Mylast);
; 166  :  #endif /* _ITERATOR_DEBUG_LEVEL */
; 167  : 
; 168  : 		_Ptr += _Off;

  00005	8b 4d 08	 mov	 ecx, DWORD PTR __Off$[ebp]
  00008	c1 e1 02	 shl	 ecx, 2
  0000b	01 08		 add	 DWORD PTR [eax], ecx

; 169  : 		return (*this);
; 170  : 		}

  0000d	5d		 pop	 ebp
  0000e	c2 04 00	 ret	 4
??Y?$_Vector_const_iterator@V?$_Vector_val@HV?$allocator@H@std@@@std@@@std@@QAEAAV01@H@Z ENDP ; std::_Vector_const_iterator<std::_Vector_val<int,std::allocator<int> > >::operator+=
_TEXT	ENDS
PUBLIC	?_Compat@?$_Vector_const_iterator@V?$_Vector_val@HV?$allocator@H@std@@@std@@@std@@QBEXABV12@@Z ; std::_Vector_const_iterator<std::_Vector_val<int,std::allocator<int> > >::_Compat
; Function compile flags: /Ogsp
;	COMDAT ?_Compat@?$_Vector_const_iterator@V?$_Vector_val@HV?$allocator@H@std@@@std@@@std@@QBEXABV12@@Z
_TEXT	SEGMENT
___formal$ = 8						; size = 4
?_Compat@?$_Vector_const_iterator@V?$_Vector_val@HV?$allocator@H@std@@@std@@@std@@QBEXABV12@@Z PROC ; std::_Vector_const_iterator<std::_Vector_val<int,std::allocator<int> > >::_Compat, COMDAT
; _this$ = ecx

; 253  : 		}

  00000	c2 04 00	 ret	 4
?_Compat@?$_Vector_const_iterator@V?$_Vector_val@HV?$allocator@H@std@@@std@@@std@@QBEXABV12@@Z ENDP ; std::_Vector_const_iterator<std::_Vector_val<int,std::allocator<int> > >::_Compat
_TEXT	ENDS
PUBLIC	??$_Allocate@H@std@@YAPAHIPAH@Z			; std::_Allocate<int>
; Function compile flags: /Ogsp
; File c:\program files (x86)\microsoft visual studio 10.0\vc\include\xmemory
;	COMDAT ??$_Allocate@H@std@@YAPAHIPAH@Z
_TEXT	SEGMENT
$T536767 = -12						; size = 12
$T536771 = 8						; size = 4
__Count$ = 8						; size = 4
___formal$ = 12						; size = 4
??$_Allocate@H@std@@YAPAHIPAH@Z PROC			; std::_Allocate<int>, COMDAT

; 30   : 	{	// allocate storage for _Count elements of type _Ty

  00000	55		 push	 ebp
  00001	8b ec		 mov	 ebp, esp

; 31   : 	void *_Ptr = 0;
; 32   : 
; 33   : 	if (_Count <= 0)

  00003	8b 4d 08	 mov	 ecx, DWORD PTR __Count$[ebp]
  00006	83 ec 0c	 sub	 esp, 12			; 0000000cH
  00009	33 c0		 xor	 eax, eax
  0000b	85 c9		 test	 ecx, ecx

; 34   : 		_Count = 0;
; 35   : 	else if (((_SIZT)(-1) / sizeof (_Ty) < _Count)

  0000d	74 3e		 je	 SHORT $LN5@Allocate@2

; 36   : 		|| (_Ptr = ::operator new(_Count * sizeof (_Ty))) == 0)

  0000f	81 f9 ff ff ff
	3f		 cmp	 ecx, 1073741823		; 3fffffffH
  00015	77 10		 ja	 SHORT $LN1@Allocate@2
  00017	8b c1		 mov	 eax, ecx
  00019	c1 e0 02	 shl	 eax, 2
  0001c	50		 push	 eax
  0001d	e8 00 00 00 00	 call	 ??2@YAPAXI@Z		; operator new
  00022	59		 pop	 ecx
  00023	85 c0		 test	 eax, eax

; 38   : 
; 39   : 	return ((_Ty _FARQ *)_Ptr);

  00025	75 26		 jne	 SHORT $LN5@Allocate@2
$LN1@Allocate@2:

; 37   : 		_THROW_NCEE(bad_alloc, 0);

  00027	83 65 08 00	 and	 DWORD PTR $T536771[ebp], 0
  0002b	8d 45 08	 lea	 eax, DWORD PTR $T536771[ebp]
  0002e	50		 push	 eax
  0002f	8d 4d f4	 lea	 ecx, DWORD PTR $T536767[ebp]
  00032	ff 15 00 00 00
	00		 call	 DWORD PTR __imp_??0exception@std@@QAE@ABQBD@Z
  00038	68 00 00 00 00	 push	 OFFSET __TI2?AVbad_alloc@std@@
  0003d	8d 45 f4	 lea	 eax, DWORD PTR $T536767[ebp]
  00040	50		 push	 eax
  00041	c7 45 f4 00 00
	00 00		 mov	 DWORD PTR $T536767[ebp], OFFSET ??_7bad_alloc@std@@6B@
  00048	e8 00 00 00 00	 call	 __CxxThrowException@8
$LN10@Allocate@2:
$LN5@Allocate@2:

; 40   : 	}

  0004d	c9		 leave
  0004e	c3		 ret	 0
$LN9@Allocate@2:
??$_Allocate@H@std@@YAPAHIPAH@Z ENDP			; std::_Allocate<int>
_TEXT	ENDS
EXTRN	__imp_??0exception@std@@QAE@ABV01@@Z:PROC
; Function compile flags: /Ogsp
;	COMDAT ??0bad_alloc@std@@QAE@ABV01@@Z
_TEXT	SEGMENT
___that$ = 8						; size = 4
??0bad_alloc@std@@QAE@ABV01@@Z PROC			; std::bad_alloc::bad_alloc, COMDAT
; _this$ = ecx
  00000	55		 push	 ebp
  00001	8b ec		 mov	 ebp, esp
  00003	56		 push	 esi
  00004	ff 75 08	 push	 DWORD PTR ___that$[ebp]
  00007	8b f1		 mov	 esi, ecx
  00009	ff 15 00 00 00
	00		 call	 DWORD PTR __imp_??0exception@std@@QAE@ABV01@@Z
  0000f	c7 06 00 00 00
	00		 mov	 DWORD PTR [esi], OFFSET ??_7bad_alloc@std@@6B@
  00015	8b c6		 mov	 eax, esi
  00017	5e		 pop	 esi
  00018	5d		 pop	 ebp
  00019	c2 04 00	 ret	 4
??0bad_alloc@std@@QAE@ABV01@@Z ENDP			; std::bad_alloc::bad_alloc
_TEXT	ENDS
PUBLIC	??$_Move@AAH@std@@YA$$QAHAAH@Z			; std::_Move<int &>
; Function compile flags: /Ogsp
; File c:\program files (x86)\microsoft visual studio 10.0\vc\include\utility
;	COMDAT ??$_Move@AAH@std@@YA$$QAHAAH@Z
_TEXT	SEGMENT
__Arg$ = 8						; size = 4
??$_Move@AAH@std@@YA$$QAHAAH@Z PROC			; std::_Move<int &>, COMDAT

; 94   : 	{	// forward _Arg as movable

  00000	55		 push	 ebp
  00001	8b ec		 mov	 ebp, esp

; 95   : 	return ((typename tr1::_Remove_reference<_Ty>::_Type&&)_Arg);

  00003	8b 45 08	 mov	 eax, DWORD PTR __Arg$[ebp]

; 96   : 	}

  00006	5d		 pop	 ebp
  00007	c3		 ret	 0
??$_Move@AAH@std@@YA$$QAHAAH@Z ENDP			; std::_Move<int &>
_TEXT	ENDS
PUBLIC	??$forward@AAH@std@@YAAAHAAH@Z			; std::forward<int &>
; Function compile flags: /Ogsp
;	COMDAT ??$forward@AAH@std@@YAAAHAAH@Z
_TEXT	SEGMENT
__Arg$ = 8						; size = 4
??$forward@AAH@std@@YAAAHAAH@Z PROC			; std::forward<int &>, COMDAT

; 78   : 	{	// forward _Arg, given explicitly specified type parameter

  00000	55		 push	 ebp
  00001	8b ec		 mov	 ebp, esp

; 79   : 	return ((_Ty&&)_Arg);

  00003	8b 45 08	 mov	 eax, DWORD PTR __Arg$[ebp]

; 80   : 	}

  00006	5d		 pop	 ebp
  00007	c3		 ret	 0
??$forward@AAH@std@@YAAAHAAH@Z ENDP			; std::forward<int &>
_TEXT	ENDS
PUBLIC	??$_Val_type@PAH@std@@YAPAHPAH@Z		; std::_Val_type<int *>
; Function compile flags: /Ogsp
; File c:\program files (x86)\microsoft visual studio 10.0\vc\include\xutility
;	COMDAT ??$_Val_type@PAH@std@@YAPAHPAH@Z
_TEXT	SEGMENT
___formal$ = 8						; size = 4
??$_Val_type@PAH@std@@YAPAHPAH@Z PROC			; std::_Val_type<int *>, COMDAT

; 790  : 	return (0);

  00000	33 c0		 xor	 eax, eax

; 791  : 	}

  00002	c3		 ret	 0
??$_Val_type@PAH@std@@YAPAHPAH@Z ENDP			; std::_Val_type<int *>
_TEXT	ENDS
PUBLIC	??$_Ptr_cat@HH@std@@YA?AU_Scalar_ptr_iterator_tag@0@PAH0@Z ; std::_Ptr_cat<int,int>
; Function compile flags: /Ogsp
;	COMDAT ??$_Ptr_cat@HH@std@@YA?AU_Scalar_ptr_iterator_tag@0@PAH0@Z
_TEXT	SEGMENT
__Cat$ = -1						; size = 1
___formal$ = 8						; size = 4
___formal$ = 12						; size = 4
??$_Ptr_cat@HH@std@@YA?AU_Scalar_ptr_iterator_tag@0@PAH0@Z PROC ; std::_Ptr_cat<int,int>, COMDAT

; 516  : 	{	// return pointer category from pointers

  00000	55		 push	 ebp
  00001	8b ec		 mov	 ebp, esp
  00003	51		 push	 ecx

; 517  : 	typename _Ptr_cat_helper<_Elem1, _Elem2>::_Type _Cat;
; 518  : 	return (_Cat);

  00004	8a 45 ff	 mov	 al, BYTE PTR __Cat$[ebp]

; 519  : 	}

  00007	c9		 leave
  00008	c3		 ret	 0
??$_Ptr_cat@HH@std@@YA?AU_Scalar_ptr_iterator_tag@0@PAH0@Z ENDP ; std::_Ptr_cat<int,int>
_TEXT	ENDS
PUBLIC	??$_Move@PAHPAH@std@@YAPAHPAH00U_Scalar_ptr_iterator_tag@0@@Z ; std::_Move<int *,int *>
EXTRN	__imp__memmove:PROC
; Function compile flags: /Ogsp
;	COMDAT ??$_Move@PAHPAH@std@@YAPAHPAH00U_Scalar_ptr_iterator_tag@0@@Z
_TEXT	SEGMENT
__First$ = 8						; size = 4
__Last$ = 12						; size = 4
__Dest$ = 16						; size = 4
___formal$ = 20						; size = 1
??$_Move@PAHPAH@std@@YAPAHPAH00U_Scalar_ptr_iterator_tag@0@@Z PROC ; std::_Move<int *,int *>, COMDAT

; 2522 : 	{	// move [_First, _Last) to [_Dest, ...), pointers to scalars

  00000	55		 push	 ebp
  00001	8b ec		 mov	 ebp, esp
  00003	56		 push	 esi

; 2523 : 	ptrdiff_t _Count = _Last - _First;

  00004	8b 75 0c	 mov	 esi, DWORD PTR __Last$[ebp]
  00007	2b 75 08	 sub	 esi, DWORD PTR __First$[ebp]
  0000a	57		 push	 edi

; 2524 : 	_CSTD memmove(&*_Dest, &*_First,
; 2525 : 		_Count * sizeof (*_First));

  0000b	8b 7d 10	 mov	 edi, DWORD PTR __Dest$[ebp]
  0000e	c1 fe 02	 sar	 esi, 2
  00011	c1 e6 02	 shl	 esi, 2
  00014	56		 push	 esi
  00015	ff 75 08	 push	 DWORD PTR __First$[ebp]
  00018	57		 push	 edi
  00019	ff 15 00 00 00
	00		 call	 DWORD PTR __imp__memmove
  0001f	83 c4 0c	 add	 esp, 12			; 0000000cH

; 2526 : 	return (_Dest + _Count);

  00022	8d 04 3e	 lea	 eax, DWORD PTR [esi+edi]
  00025	5f		 pop	 edi
  00026	5e		 pop	 esi

; 2527 : 	}

  00027	5d		 pop	 ebp
  00028	c3		 ret	 0
??$_Move@PAHPAH@std@@YAPAHPAH00U_Scalar_ptr_iterator_tag@0@@Z ENDP ; std::_Move<int *,int *>
_TEXT	ENDS
PUBLIC	??$_Destroy_range@V?$allocator@H@std@@@std@@YAXPAH0AAV?$allocator@H@0@U_Scalar_ptr_iterator_tag@0@@Z ; std::_Destroy_range<std::allocator<int> >
; Function compile flags: /Ogsp
; File c:\program files (x86)\microsoft visual studio 10.0\vc\include\xmemory
;	COMDAT ??$_Destroy_range@V?$allocator@H@std@@@std@@YAXPAH0AAV?$allocator@H@0@U_Scalar_ptr_iterator_tag@0@@Z
_TEXT	SEGMENT
__First$ = 8						; size = 4
__Last$ = 12						; size = 4
__Al$ = 16						; size = 4
___formal$ = 20						; size = 1
??$_Destroy_range@V?$allocator@H@std@@@std@@YAXPAH0AAV?$allocator@H@0@U_Scalar_ptr_iterator_tag@0@@Z PROC ; std::_Destroy_range<std::allocator<int> >, COMDAT

; 105  : 	}

  00000	c3		 ret	 0
??$_Destroy_range@V?$allocator@H@std@@@std@@YAXPAH0AAV?$allocator@H@0@U_Scalar_ptr_iterator_tag@0@@Z ENDP ; std::_Destroy_range<std::allocator<int> >
_TEXT	ENDS
PUBLIC	?_Unchecked@?$_Vector_iterator@V?$_Vector_val@HV?$allocator@H@std@@@std@@@std@@QBEPAHXZ ; std::_Vector_iterator<std::_Vector_val<int,std::allocator<int> > >::_Unchecked
; Function compile flags: /Ogsp
; File c:\program files (x86)\microsoft visual studio 10.0\vc\include\vector
;	COMDAT ?_Unchecked@?$_Vector_iterator@V?$_Vector_val@HV?$allocator@H@std@@@std@@@std@@QBEPAHXZ
_TEXT	SEGMENT
?_Unchecked@?$_Vector_iterator@V?$_Vector_val@HV?$allocator@H@std@@@std@@@std@@QBEPAHXZ PROC ; std::_Vector_iterator<std::_Vector_val<int,std::allocator<int> > >::_Unchecked, COMDAT
; _this$ = ecx

; 317  : 		return (_Unchecked_type(this->_Ptr));

  00000	8b 01		 mov	 eax, DWORD PTR [ecx]

; 318  : 		}

  00002	c3		 ret	 0
?_Unchecked@?$_Vector_iterator@V?$_Vector_val@HV?$allocator@H@std@@@std@@@std@@QBEPAHXZ ENDP ; std::_Vector_iterator<std::_Vector_val<int,std::allocator<int> > >::_Unchecked
_TEXT	ENDS
PUBLIC	??$_Uninit_move@HHH@std@@YAPAHPAH00AAV?$allocator@H@0@0U_Scalar_ptr_iterator_tag@0@@Z ; std::_Uninit_move<int,int,int>
; Function compile flags: /Ogsp
; File c:\program files (x86)\microsoft visual studio 10.0\vc\include\memory
;	COMDAT ??$_Uninit_move@HHH@std@@YAPAHPAH00AAV?$allocator@H@0@0U_Scalar_ptr_iterator_tag@0@@Z
_TEXT	SEGMENT
__First$ = 8						; size = 4
__Last$ = 12						; size = 4
__Dest$ = 16						; size = 4
___formal$ = 20						; size = 4
___formal$ = 24						; size = 4
___formal$ = 28						; size = 1
??$_Uninit_move@HHH@std@@YAPAHPAH00AAV?$allocator@H@0@0U_Scalar_ptr_iterator_tag@0@@Z PROC ; std::_Uninit_move<int,int,int>, COMDAT

; 456  : 	{	// move [_First, _Last) to raw _Dest, scalar type

  00000	55		 push	 ebp
  00001	8b ec		 mov	 ebp, esp
  00003	56		 push	 esi

; 457  : 	_DEBUG_RANGE(_First, _Last);
; 458  : 	_DEBUG_POINTER(_Dest);
; 459  : 	size_t _Count = (size_t)(_Last - _First);

  00004	8b 75 0c	 mov	 esi, DWORD PTR __Last$[ebp]
  00007	2b 75 08	 sub	 esi, DWORD PTR __First$[ebp]
  0000a	c1 fe 02	 sar	 esi, 2

; 460  : 	return ((_Ty2 *)_CSTD memmove(&*_Dest, &*_First,
; 461  : 		_Count * sizeof (*_First)) + _Count);	// NB: non-overlapping move

  0000d	c1 e6 02	 shl	 esi, 2
  00010	56		 push	 esi
  00011	ff 75 08	 push	 DWORD PTR __First$[ebp]
  00014	ff 75 10	 push	 DWORD PTR __Dest$[ebp]
  00017	ff 15 00 00 00
	00		 call	 DWORD PTR __imp__memmove
  0001d	83 c4 0c	 add	 esp, 12			; 0000000cH
  00020	03 c6		 add	 eax, esi
  00022	5e		 pop	 esi

; 462  : 	}

  00023	5d		 pop	 ebp
  00024	c3		 ret	 0
??$_Uninit_move@HHH@std@@YAPAHPAH00AAV?$allocator@H@0@0U_Scalar_ptr_iterator_tag@0@@Z ENDP ; std::_Uninit_move<int,int,int>
; Function compile flags: /Ogsp
_TEXT	ENDS
;	COMDAT ??_GExPCRoomAuthorityWnd@@UAEPAXI@Z
_TEXT	SEGMENT
___flags$ = 8						; size = 4
??_GExPCRoomAuthorityWnd@@UAEPAXI@Z PROC		; ExPCRoomAuthorityWnd::`scalar deleting destructor', COMDAT
; _this$ = ecx
  00000	55		 push	 ebp
  00001	8b ec		 mov	 ebp, esp
  00003	56		 push	 esi
  00004	8b f1		 mov	 esi, ecx
  00006	e8 00 00 00 00	 call	 ??1ExPCRoomAuthorityWnd@@UAE@XZ ; ExPCRoomAuthorityWnd::~ExPCRoomAuthorityWnd
  0000b	f6 45 08 01	 test	 BYTE PTR ___flags$[ebp], 1
  0000f	74 07		 je	 SHORT $LN1@scalar@3
  00011	56		 push	 esi
  00012	e8 00 00 00 00	 call	 ??3@YAXPAX@Z		; operator delete
  00017	59		 pop	 ecx
$LN1@scalar@3:
  00018	8b c6		 mov	 eax, esi
  0001a	5e		 pop	 esi
  0001b	5d		 pop	 ebp
  0001c	c2 04 00	 ret	 4
??_GExPCRoomAuthorityWnd@@UAEPAXI@Z ENDP		; ExPCRoomAuthorityWnd::`scalar deleting destructor'
_TEXT	ENDS
PUBLIC	??_R0?AVExPCRoomSoldierBonusWnd@@@8		; ExPCRoomSoldierBonusWnd `RTTI Type Descriptor'
EXTRN	__imp_?HideWnd@ioWnd@@QAEXXZ:PROC
EXTRN	__imp_?ShowWnd@ioWnd@@QAEXXZ:PROC
EXTRN	__imp_?FindWnd@ioGUIManager@@QAEPAVioWnd@@K@Z:PROC
EXTRN	?GetSingleton@ioSP2GUIManager@@SAAAV1@XZ:PROC	; ioSP2GUIManager::GetSingleton
EXTRN	?GetLocal@ioLocalManager@@QAEPAVioLocalParent@@W4LocalType@ioLocalManagerParent@@@Z:PROC ; ioLocalManager::GetLocal
EXTRN	?GetSingleton@ioLocalManager@@SAAAV1@XZ:PROC	; ioLocalManager::GetSingleton
EXTRN	__imp_?GetLocalType@ioLocalManagerParent@@SA?AW4LocalType@1@XZ:PROC
;	COMDAT ??_R0?AVExPCRoomSoldierBonusWnd@@@8
; File d:\lost saga for developer\youtube\tutorial\source\src\lsclient\gui\expcroomwnd.cpp
_DATA	SEGMENT
??_R0?AVExPCRoomSoldierBonusWnd@@@8 DD FLAT:??_7type_info@@6B@ ; ExPCRoomSoldierBonusWnd `RTTI Type Descriptor'
	DD	00H
	DB	'.?AVExPCRoomSoldierBonusWnd@@', 00H
; Function compile flags: /Ogsp
_DATA	ENDS
;	COMDAT ?iwm_command@ExPCRoomAuthorityWnd@@UAEXPAVioWnd@@HK@Z
_TEXT	SEGMENT
_pBonusWnd$532175 = 8					; size = 4
_pWnd$ = 8						; size = 4
_cmd$ = 12						; size = 4
_param$ = 16						; size = 4
?iwm_command@ExPCRoomAuthorityWnd@@UAEXPAVioWnd@@HK@Z PROC ; ExPCRoomAuthorityWnd::iwm_command, COMDAT
; _this$ = ecx

; 50   : {

  00000	55		 push	 ebp
  00001	8b ec		 mov	 ebp, esp
  00003	57		 push	 edi
  00004	8b f9		 mov	 edi, ecx

; 51   : 	DWORD dwID = pWnd->GetID();

  00006	8b 4d 08	 mov	 ecx, DWORD PTR _pWnd$[ebp]
  00009	ff 15 00 00 00
	00		 call	 DWORD PTR __imp_?GetID@ioWnd@@QBEKXZ

; 52   : 
; 53   : 	switch( dwID )

  0000f	48		 dec	 eax
  00010	0f 85 ab 00 00
	00		 jne	 $LN6@iwm_comman@2

; 54   : 	{
; 55   : 	case ID_SOLDIER_BTN:
; 56   : 		if( cmd == IOBN_BTNUP )

  00016	83 7d 0c 11	 cmp	 DWORD PTR _cmd$[ebp], 17 ; 00000011H
  0001a	0f 85 a1 00 00
	00		 jne	 $LN6@iwm_comman@2

; 57   : 		{
; 58   : 			ioLocalParent *pLocal = g_LocalMgr.GetLocal( ioLocalManager::GetLocalType() );

  00020	56		 push	 esi
  00021	ff 15 00 00 00
	00		 call	 DWORD PTR __imp_?GetLocalType@ioLocalManagerParent@@SA?AW4LocalType@1@XZ
  00027	50		 push	 eax
  00028	e8 00 00 00 00	 call	 ?GetSingleton@ioLocalManager@@SAAAV1@XZ ; ioLocalManager::GetSingleton
  0002d	8b c8		 mov	 ecx, eax
  0002f	e8 00 00 00 00	 call	 ?GetLocal@ioLocalManager@@QAEPAVioLocalParent@@W4LocalType@ioLocalManagerParent@@@Z ; ioLocalManager::GetLocal

; 59   : 			if( pLocal && pLocal->IsPCRoomBonusSoldier() )

  00034	33 f6		 xor	 esi, esi
  00036	3b c6		 cmp	 eax, esi
  00038	74 7e		 je	 SHORT $LN1@iwm_comman@2
  0003a	8b 10		 mov	 edx, DWORD PTR [eax]
  0003c	8b c8		 mov	 ecx, eax
  0003e	ff 92 ec 00 00
	00		 call	 DWORD PTR [edx+236]
  00044	84 c0		 test	 al, al
  00046	74 70		 je	 SHORT $LN1@iwm_comman@2

; 60   : 			{
; 61   : 				ExPCRoomSoldierBonusWnd* pBonusWnd; 
; 62   : 				if( g_MyInfo.GetPCRoomAuthority() ==  FREEDAY_EVENT_CODE )

  00048	e8 00 00 00 00	 call	 ?GetSingleton@ioMyInfo@@SAAAV1@XZ ; ioMyInfo::GetSingleton
  0004d	81 b8 34 08 00
	00 00 00 00 01	 cmp	 DWORD PTR [eax+2100], 16777216 ; 01000000H
  00057	75 29		 jne	 SHORT $LN4@iwm_comman@2

; 63   : 					pBonusWnd = dynamic_cast<ExPCRoomSoldierBonusWnd*>( g_GUIMgr.FindWnd(USER_SELECT_HERO_BONUS_WND  ) );

  00059	56		 push	 esi
  0005a	68 00 00 00 00	 push	 OFFSET ??_R0?AVExPCRoomSoldierBonusWnd@@@8
  0005f	68 00 00 00 00	 push	 OFFSET ??_R0?AVioWnd@@@8
  00064	56		 push	 esi
  00065	68 02 19 00 00	 push	 6402			; 00001902H
$LN19@iwm_comman@2:
  0006a	e8 00 00 00 00	 call	 ?GetSingleton@ioSP2GUIManager@@SAAAV1@XZ ; ioSP2GUIManager::GetSingleton
  0006f	8b c8		 mov	 ecx, eax
  00071	ff 15 00 00 00
	00		 call	 DWORD PTR __imp_?FindWnd@ioGUIManager@@QAEPAVioWnd@@K@Z
  00077	50		 push	 eax
  00078	e8 00 00 00 00	 call	 ___RTDynamicCast
  0007d	83 c4 14	 add	 esp, 20			; 00000014H
  00080	eb 23		 jmp	 SHORT $LN2@iwm_comman@2
$LN4@iwm_comman@2:

; 64   : 				else if( g_MyInfo.GetPCRoomAuthority() != 0 )

  00082	e8 00 00 00 00	 call	 ?GetSingleton@ioMyInfo@@SAAAV1@XZ ; ioMyInfo::GetSingleton
  00087	39 b0 34 08 00
	00		 cmp	 DWORD PTR [eax+2100], esi
  0008d	74 13		 je	 SHORT $LN18@iwm_comman@2

; 65   : 					pBonusWnd = dynamic_cast<ExPCRoomSoldierBonusWnd*>( g_GUIMgr.FindWnd( EX_PCROOM_SOLDIER_BONUS_WND ) );

  0008f	56		 push	 esi
  00090	68 00 00 00 00	 push	 OFFSET ??_R0?AVExPCRoomSoldierBonusWnd@@@8
  00095	68 00 00 00 00	 push	 OFFSET ??_R0?AVioWnd@@@8
  0009a	56		 push	 esi
  0009b	68 5e 18 00 00	 push	 6238			; 0000185eH
  000a0	eb c8		 jmp	 SHORT $LN19@iwm_comman@2
$LN18@iwm_comman@2:
  000a2	8b 45 08	 mov	 eax, DWORD PTR _pBonusWnd$532175[ebp]
$LN2@iwm_comman@2:

; 66   : 				if( pBonusWnd )

  000a5	3b c6		 cmp	 eax, esi
  000a7	74 0f		 je	 SHORT $LN1@iwm_comman@2

; 67   : 				{
; 68   : 					pBonusWnd->SetFirstAutoSelect();
; 69   : 					pBonusWnd->ShowWnd();

  000a9	8b c8		 mov	 ecx, eax
  000ab	c6 80 98 01 00
	00 01		 mov	 BYTE PTR [eax+408], 1
  000b2	ff 15 00 00 00
	00		 call	 DWORD PTR __imp_?ShowWnd@ioWnd@@QAEXXZ
$LN1@iwm_comman@2:

; 70   : 				}
; 71   : 			}
; 72   : 			HideWnd();

  000b8	8b cf		 mov	 ecx, edi
  000ba	ff 15 00 00 00
	00		 call	 DWORD PTR __imp_?HideWnd@ioWnd@@QAEXXZ
  000c0	5e		 pop	 esi
$LN6@iwm_comman@2:
  000c1	5f		 pop	 edi

; 73   : 		}
; 74   : 		break;
; 75   : 	}
; 76   : }

  000c2	5d		 pop	 ebp
  000c3	c2 0c 00	 ret	 12			; 0000000cH
?iwm_command@ExPCRoomAuthorityWnd@@UAEXPAVioWnd@@HK@Z ENDP ; ExPCRoomAuthorityWnd::iwm_command
; Function compile flags: /Ogsp
_TEXT	ENDS
;	COMDAT ??_GExPCRoomSoldierBonusBtn@@UAEPAXI@Z
_TEXT	SEGMENT
___flags$ = 8						; size = 4
??_GExPCRoomSoldierBonusBtn@@UAEPAXI@Z PROC		; ExPCRoomSoldierBonusBtn::`scalar deleting destructor', COMDAT
; _this$ = ecx
  00000	55		 push	 ebp
  00001	8b ec		 mov	 ebp, esp
  00003	56		 push	 esi
  00004	8b f1		 mov	 esi, ecx
  00006	e8 00 00 00 00	 call	 ??1ExPCRoomSoldierBonusBtn@@UAE@XZ ; ExPCRoomSoldierBonusBtn::~ExPCRoomSoldierBonusBtn
  0000b	f6 45 08 01	 test	 BYTE PTR ___flags$[ebp], 1
  0000f	74 07		 je	 SHORT $LN1@scalar@4
  00011	56		 push	 esi
  00012	e8 00 00 00 00	 call	 ??3@YAXPAX@Z		; operator delete
  00017	59		 pop	 ecx
$LN1@scalar@4:
  00018	8b c6		 mov	 eax, esi
  0001a	5e		 pop	 esi
  0001b	5d		 pop	 ebp
  0001c	c2 04 00	 ret	 4
??_GExPCRoomSoldierBonusBtn@@UAEPAXI@Z ENDP		; ExPCRoomSoldierBonusBtn::`scalar deleting destructor'
_TEXT	ENDS
PUBLIC	??_C@_0CI@KIHEEKKB@ExPCRoomSoldierBonusWnd?3?3GetPack@ ; `string'
PUBLIC	___$ReturnUdt$GSCopy$
PUBLIC	?GetPackageType@ExPCRoomSoldierBonusWnd@@IAE?AVioHashString@@H@Z ; ExPCRoomSoldierBonusWnd::GetPackageType
EXTRN	__imp_??1ioHashString@@QAE@XZ:PROC
EXTRN	__imp_??4ioHashString@@QAEAAV0@PBD@Z:PROC
EXTRN	__imp_?SafeSprintf@@YAXPADHPBDZZ:PROC
EXTRN	__imp_??0ioHashString@@QAE@ABV0@@Z:PROC
EXTRN	_atexit:PROC
EXTRN	__imp_??0ioHashString@@QAE@XZ:PROC
EXTRN	__EH_epilog3_GS:PROC
EXTRN	__EH_prolog3_GS:PROC
;	COMDAT ?$S1@?1??GetPackageType@ExPCRoomSoldierBonusWnd@@IAE?AVioHashString@@H@Z@4IA
_BSS	SEGMENT
?$S1@?1??GetPackageType@ExPCRoomSoldierBonusWnd@@IAE?AVioHashString@@H@Z@4IA DD 01H DUP (?) ; `ExPCRoomSoldierBonusWnd::GetPackageType'::`2'::$S1
_BSS	ENDS
;	COMDAT ?szNone@?1??GetPackageType@ExPCRoomSoldierBonusWnd@@IAE?AVioHashString@@H@Z@4V3@A
_BSS	SEGMENT
?szNone@?1??GetPackageType@ExPCRoomSoldierBonusWnd@@IAE?AVioHashString@@H@Z@4V3@A DB 010H DUP (?) ; `ExPCRoomSoldierBonusWnd::GetPackageType'::`2'::szNone
_BSS	ENDS
;	COMDAT ??_C@_0CI@KIHEEKKB@ExPCRoomSoldierBonusWnd?3?3GetPack@
CONST	SEGMENT
??_C@_0CI@KIHEEKKB@ExPCRoomSoldierBonusWnd?3?3GetPack@ DB 'ExPCRoomSoldie'
	DB	'rBonusWnd::GetPackageType', 00H		; `string'
CONST	ENDS
;	COMDAT xdata$x
xdata$x	SEGMENT
__unwindtable$?GetPackageType@ExPCRoomSoldierBonusWnd@@IAE?AVioHashString@@H@Z DD 0ffffffffH
	DD	FLAT:__unwindfunclet$?GetPackageType@ExPCRoomSoldierBonusWnd@@IAE?AVioHashString@@H@Z$1
	DD	00H
	DD	FLAT:__unwindfunclet$?GetPackageType@ExPCRoomSoldierBonusWnd@@IAE?AVioHashString@@H@Z$0
	DD	00H
	DD	FLAT:__unwindfunclet$?GetPackageType@ExPCRoomSoldierBonusWnd@@IAE?AVioHashString@@H@Z$2
__ehfuncinfo$?GetPackageType@ExPCRoomSoldierBonusWnd@@IAE?AVioHashString@@H@Z DD 019930522H
	DD	03H
	DD	FLAT:__unwindtable$?GetPackageType@ExPCRoomSoldierBonusWnd@@IAE?AVioHashString@@H@Z
	DD	2 DUP(00H)
	DD	2 DUP(00H)
	DD	00H
	DD	01H
; Function compile flags: /Ogsp
xdata$x	ENDS
;	COMDAT ?GetPackageType@ExPCRoomSoldierBonusWnd@@IAE?AVioHashString@@H@Z
_TEXT	SEGMENT
_szCharType$ = -300					; size = 16
$T536822 = -284						; size = 4
___$ReturnUdt$GSCopy$ = -280				; size = 4
_szTemp$ = -276						; size = 260
__$EHRec$ = -12						; size = 12
___$ReturnUdt$ = 8					; size = 4
_iType$ = 12						; size = 4
?GetPackageType@ExPCRoomSoldierBonusWnd@@IAE?AVioHashString@@H@Z PROC ; ExPCRoomSoldierBonusWnd::GetPackageType, COMDAT
; _this$ = ecx

; 777  : {

  00000	68 20 01 00 00	 push	 288			; 00000120H
  00005	b8 00 00 00 00	 mov	 eax, __ehhandler$?GetPackageType@ExPCRoomSoldierBonusWnd@@IAE?AVioHashString@@H@Z
  0000a	e8 00 00 00 00	 call	 __EH_prolog3_GS
  0000f	83 a5 e4 fe ff
	ff 00		 and	 DWORD PTR $T536822[ebp], 0

; 778  : 	static ioHashString szNone;

  00016	8b 45 08	 mov	 eax, DWORD PTR ___$ReturnUdt$[ebp]
  00019	8b 35 00 00 00
	00		 mov	 esi, DWORD PTR __imp_??0ioHashString@@QAE@XZ
  0001f	33 db		 xor	 ebx, ebx
  00021	43		 inc	 ebx
  00022	89 85 e8 fe ff
	ff		 mov	 DWORD PTR ___$ReturnUdt$GSCopy$[ebp], eax
  00028	bf 00 00 00 00	 mov	 edi, OFFSET ?szNone@?1??GetPackageType@ExPCRoomSoldierBonusWnd@@IAE?AVioHashString@@H@Z@4V3@A
  0002d	84 1d 00 00 00
	00		 test	 BYTE PTR ?$S1@?1??GetPackageType@ExPCRoomSoldierBonusWnd@@IAE?AVioHashString@@H@Z@4IA, bl
  00033	75 1c		 jne	 SHORT $LN7@GetPackage
  00035	09 1d 00 00 00
	00		 or	 DWORD PTR ?$S1@?1??GetPackageType@ExPCRoomSoldierBonusWnd@@IAE?AVioHashString@@H@Z@4IA, ebx
  0003b	8b cf		 mov	 ecx, edi
  0003d	89 5d fc	 mov	 DWORD PTR __$EHRec$[ebp+8], ebx
  00040	ff d6		 call	 esi
  00042	68 00 00 00 00	 push	 OFFSET ??__FszNone@?1??GetPackageType@ExPCRoomSoldierBonusWnd@@IAE?AVioHashString@@H@Z@YAXXZ ; `ExPCRoomSoldierBonusWnd::GetPackageType'::`2'::`dynamic atexit destructor for 'szNone''
  00047	e8 00 00 00 00	 call	 _atexit
  0004c	59		 pop	 ecx
  0004d	c6 45 fc 00	 mov	 BYTE PTR __$EHRec$[ebp+8], 0
$LN7@GetPackage:

; 779  : 	if( iType == -1 )

  00051	83 7d 0c ff	 cmp	 DWORD PTR _iType$[ebp], -1
  00055	75 12		 jne	 SHORT $LN6@GetPackage

; 780  : 		return szNone;

  00057	8b 8d e8 fe ff
	ff		 mov	 ecx, DWORD PTR ___$ReturnUdt$GSCopy$[ebp]
  0005d	57		 push	 edi
  0005e	ff 15 00 00 00
	00		 call	 DWORD PTR __imp_??0ioHashString@@QAE@ABV0@@Z
  00064	e9 8e 00 00 00	 jmp	 $LN15@GetPackage
$LN6@GetPackage:

; 781  : 
; 782  : 	char szTemp[MAX_PATH];
; 783  : 	ioHashString	szCharType;

  00069	8d 8d d4 fe ff
	ff		 lea	 ecx, DWORD PTR _szCharType$[ebp]
  0006f	ff d6		 call	 esi

; 784  : 
; 785  : 	switch( iType )

  00071	8b 4d 0c	 mov	 ecx, DWORD PTR _iType$[ebp]
  00074	6a 02		 push	 2
  00076	33 d2		 xor	 edx, edx
  00078	2b ca		 sub	 ecx, edx
  0007a	58		 pop	 eax
  0007b	89 45 fc	 mov	 DWORD PTR __$EHRec$[ebp+8], eax

; 793  : 	default:
; 794  : 		SafeSprintf(szTemp, sizeof(szTemp), STR(3) );

  0007e	52		 push	 edx
  0007f	74 0b		 je	 SHORT $LN3@GetPackage

; 784  : 
; 785  : 	switch( iType )

  00081	2b c8		 sub	 ecx, eax
  00083	74 04		 je	 SHORT $LN2@GetPackage

; 793  : 	default:
; 794  : 		SafeSprintf(szTemp, sizeof(szTemp), STR(3) );

  00085	6a 03		 push	 3

; 795  : 		break;

  00087	eb 04		 jmp	 SHORT $LN16@GetPackage
$LN2@GetPackage:

; 789  : 		break;
; 790  : 	case ioSetItemInfo::PT_RARE:
; 791  : 		SafeSprintf(szTemp, sizeof(szTemp), STR(2) );

  00089	50		 push	 eax

; 792  : 		break;

  0008a	eb 01		 jmp	 SHORT $LN16@GetPackage
$LN3@GetPackage:

; 786  : 	{
; 787  : 	case ioSetItemInfo::PT_PREMIUM:
; 788  : 		SafeSprintf(szTemp, sizeof(szTemp), STR(1) );

  0008c	53		 push	 ebx
$LN16@GetPackage:
  0008d	68 00 00 00 00	 push	 OFFSET ??_C@_00CNPNBAHC@?$AA@
  00092	68 00 00 00 00	 push	 OFFSET ??_C@_0CI@KIHEEKKB@ExPCRoomSoldierBonusWnd?3?3GetPack@
  00097	ff 15 00 00 00
	00		 call	 DWORD PTR __imp_?GetSingleton@ioStringManager@@SAAAV1@XZ
  0009d	8b c8		 mov	 ecx, eax
  0009f	ff 15 00 00 00
	00		 call	 DWORD PTR __imp_?GetString@ioStringManager@@QAEPADPBD0HW4FileNamePrefix@1@@Z
  000a5	50		 push	 eax
  000a6	8d 85 ec fe ff
	ff		 lea	 eax, DWORD PTR _szTemp$[ebp]
  000ac	68 04 01 00 00	 push	 260			; 00000104H
  000b1	50		 push	 eax
  000b2	ff 15 00 00 00
	00		 call	 DWORD PTR __imp_?SafeSprintf@@YAXPADHPBDZZ
  000b8	83 c4 0c	 add	 esp, 12			; 0000000cH

; 796  : 	}
; 797  : 
; 798  : 	szCharType = szTemp;

  000bb	8d 85 ec fe ff
	ff		 lea	 eax, DWORD PTR _szTemp$[ebp]
  000c1	50		 push	 eax
  000c2	8d 8d d4 fe ff
	ff		 lea	 ecx, DWORD PTR _szCharType$[ebp]
  000c8	ff 15 00 00 00
	00		 call	 DWORD PTR __imp_??4ioHashString@@QAEAAV0@PBD@Z

; 799  : 	return szCharType;

  000ce	8b 8d e8 fe ff
	ff		 mov	 ecx, DWORD PTR ___$ReturnUdt$GSCopy$[ebp]
  000d4	8d 85 d4 fe ff
	ff		 lea	 eax, DWORD PTR _szCharType$[ebp]
  000da	50		 push	 eax
  000db	ff 15 00 00 00
	00		 call	 DWORD PTR __imp_??0ioHashString@@QAE@ABV0@@Z
  000e1	8d 8d d4 fe ff
	ff		 lea	 ecx, DWORD PTR _szCharType$[ebp]
  000e7	89 9d e4 fe ff
	ff		 mov	 DWORD PTR $T536822[ebp], ebx
  000ed	c6 45 fc 00	 mov	 BYTE PTR __$EHRec$[ebp+8], 0
  000f1	ff 15 00 00 00
	00		 call	 DWORD PTR __imp_??1ioHashString@@QAE@XZ
$LN15@GetPackage:
  000f7	8b 85 e8 fe ff
	ff		 mov	 eax, DWORD PTR ___$ReturnUdt$GSCopy$[ebp]

; 800  : }

  000fd	e8 00 00 00 00	 call	 __EH_epilog3_GS
  00102	c2 08 00	 ret	 8
_TEXT	ENDS
;	COMDAT text$x
text$x	SEGMENT
__unwindfunclet$?GetPackageType@ExPCRoomSoldierBonusWnd@@IAE?AVioHashString@@H@Z$0:
  00000	a1 00 00 00 00	 mov	 eax, DWORD PTR ?$S1@?1??GetPackageType@ExPCRoomSoldierBonusWnd@@IAE?AVioHashString@@H@Z@4IA
  00005	83 e0 fe	 and	 eax, -2			; fffffffeH
  00008	a3 00 00 00 00	 mov	 DWORD PTR ?$S1@?1??GetPackageType@ExPCRoomSoldierBonusWnd@@IAE?AVioHashString@@H@Z@4IA, eax
  0000d	c3		 ret	 0
__unwindfunclet$?GetPackageType@ExPCRoomSoldierBonusWnd@@IAE?AVioHashString@@H@Z$1:
  0000e	8b 85 e4 fe ff
	ff		 mov	 eax, DWORD PTR $T536822[ebp]
  00014	83 e0 01	 and	 eax, 1
  00017	0f 84 13 00 00
	00		 je	 $LN12@GetPackage
  0001d	83 a5 e4 fe ff
	ff fe		 and	 DWORD PTR $T536822[ebp], -2 ; fffffffeH
  00024	8b 8d e8 fe ff
	ff		 mov	 ecx, DWORD PTR ___$ReturnUdt$GSCopy$[ebp]
  0002a	ff 25 00 00 00
	00		 jmp	 DWORD PTR __imp_??1ioHashString@@QAE@XZ
$LN12@GetPackage:
  00030	c3		 ret	 0
__unwindfunclet$?GetPackageType@ExPCRoomSoldierBonusWnd@@IAE?AVioHashString@@H@Z$2:
  00031	8d 8d d4 fe ff
	ff		 lea	 ecx, DWORD PTR _szCharType$[ebp]
  00037	ff 25 00 00 00
	00		 jmp	 DWORD PTR __imp_??1ioHashString@@QAE@XZ
__ehhandler$?GetPackageType@ExPCRoomSoldierBonusWnd@@IAE?AVioHashString@@H@Z:
  0003d	8b 54 24 08	 mov	 edx, DWORD PTR [esp+8]
  00041	8d 42 0c	 lea	 eax, DWORD PTR [edx+12]
  00044	8b 8a d0 fe ff
	ff		 mov	 ecx, DWORD PTR [edx-304]
  0004a	33 c8		 xor	 ecx, eax
  0004c	e8 00 00 00 00	 call	 @__security_check_cookie@4
  00051	8b 4a fc	 mov	 ecx, DWORD PTR [edx-4]
  00054	33 c8		 xor	 ecx, eax
  00056	e8 00 00 00 00	 call	 @__security_check_cookie@4
  0005b	b8 00 00 00 00	 mov	 eax, OFFSET __ehfuncinfo$?GetPackageType@ExPCRoomSoldierBonusWnd@@IAE?AVioHashString@@H@Z
  00060	e9 00 00 00 00	 jmp	 ___CxxFrameHandler3
text$x	ENDS
?GetPackageType@ExPCRoomSoldierBonusWnd@@IAE?AVioHashString@@H@Z ENDP ; ExPCRoomSoldierBonusWnd::GetPackageType
PUBLIC	??_C@_0CG@PDNHMCPG@ExPCRoomSoldierBonusWnd?3?3GetGrad@ ; `string'
PUBLIC	?GetGradeType@ExPCRoomSoldierBonusWnd@@IAE?AVioHashString@@H@Z ; ExPCRoomSoldierBonusWnd::GetGradeType
EXTRN	__imp_??0ioHashString@@QAE@PBD@Z:PROC
;	COMDAT ?szNone@?1??GetGradeType@ExPCRoomSoldierBonusWnd@@IAE?AVioHashString@@H@Z@4V3@A
_BSS	SEGMENT
?szNone@?1??GetGradeType@ExPCRoomSoldierBonusWnd@@IAE?AVioHashString@@H@Z@4V3@A DB 010H DUP (?) ; `ExPCRoomSoldierBonusWnd::GetGradeType'::`2'::szNone
_BSS	ENDS
;	COMDAT ?$S2@?1??GetGradeType@ExPCRoomSoldierBonusWnd@@IAE?AVioHashString@@H@Z@4IA
_BSS	SEGMENT
?$S2@?1??GetGradeType@ExPCRoomSoldierBonusWnd@@IAE?AVioHashString@@H@Z@4IA DD 01H DUP (?) ; `ExPCRoomSoldierBonusWnd::GetGradeType'::`2'::$S2
_BSS	ENDS
;	COMDAT ??_C@_0CG@PDNHMCPG@ExPCRoomSoldierBonusWnd?3?3GetGrad@
CONST	SEGMENT
??_C@_0CG@PDNHMCPG@ExPCRoomSoldierBonusWnd?3?3GetGrad@ DB 'ExPCRoomSoldie'
	DB	'rBonusWnd::GetGradeType', 00H		; `string'
CONST	ENDS
;	COMDAT xdata$x
xdata$x	SEGMENT
__unwindtable$?GetGradeType@ExPCRoomSoldierBonusWnd@@IAE?AVioHashString@@H@Z DD 0ffffffffH
	DD	FLAT:__unwindfunclet$?GetGradeType@ExPCRoomSoldierBonusWnd@@IAE?AVioHashString@@H@Z$0
__ehfuncinfo$?GetGradeType@ExPCRoomSoldierBonusWnd@@IAE?AVioHashString@@H@Z DD 019930522H
	DD	01H
	DD	FLAT:__unwindtable$?GetGradeType@ExPCRoomSoldierBonusWnd@@IAE?AVioHashString@@H@Z
	DD	2 DUP(00H)
	DD	2 DUP(00H)
	DD	00H
	DD	01H
; Function compile flags: /Ogsp
xdata$x	ENDS
;	COMDAT ?GetGradeType@ExPCRoomSoldierBonusWnd@@IAE?AVioHashString@@H@Z
_TEXT	SEGMENT
$T536840 = -16						; size = 4
__$EHRec$ = -12						; size = 12
___$ReturnUdt$ = 8					; size = 4
_iType$ = 12						; size = 4
?GetGradeType@ExPCRoomSoldierBonusWnd@@IAE?AVioHashString@@H@Z PROC ; ExPCRoomSoldierBonusWnd::GetGradeType, COMDAT
; _this$ = ecx

; 803  : {

  00000	6a 04		 push	 4
  00002	b8 00 00 00 00	 mov	 eax, __ehhandler$?GetGradeType@ExPCRoomSoldierBonusWnd@@IAE?AVioHashString@@H@Z
  00007	e8 00 00 00 00	 call	 __EH_prolog3

; 804  : 	static ioHashString szNone;

  0000c	33 ff		 xor	 edi, edi
  0000e	f6 05 00 00 00
	00 01		 test	 BYTE PTR ?$S2@?1??GetGradeType@ExPCRoomSoldierBonusWnd@@IAE?AVioHashString@@H@Z@4IA, 1
  00015	89 7d f0	 mov	 DWORD PTR $T536840[ebp], edi
  00018	be 00 00 00 00	 mov	 esi, OFFSET ?szNone@?1??GetGradeType@ExPCRoomSoldierBonusWnd@@IAE?AVioHashString@@H@Z@4V3@A
  0001d	75 21		 jne	 SHORT $LN7@GetGradeTy
  0001f	83 0d 00 00 00
	00 01		 or	 DWORD PTR ?$S2@?1??GetGradeType@ExPCRoomSoldierBonusWnd@@IAE?AVioHashString@@H@Z@4IA, 1
  00026	8b ce		 mov	 ecx, esi
  00028	89 7d fc	 mov	 DWORD PTR __$EHRec$[ebp+8], edi
  0002b	ff 15 00 00 00
	00		 call	 DWORD PTR __imp_??0ioHashString@@QAE@XZ
  00031	68 00 00 00 00	 push	 OFFSET ??__FszNone@?1??GetGradeType@ExPCRoomSoldierBonusWnd@@IAE?AVioHashString@@H@Z@YAXXZ ; `ExPCRoomSoldierBonusWnd::GetGradeType'::`2'::`dynamic atexit destructor for 'szNone''
  00036	e8 00 00 00 00	 call	 _atexit
  0003b	83 4d fc ff	 or	 DWORD PTR __$EHRec$[ebp+8], -1
  0003f	59		 pop	 ecx
$LN7@GetGradeTy:

; 805  : 	if( iType == -1 )

  00040	8b 45 0c	 mov	 eax, DWORD PTR _iType$[ebp]
  00043	83 f8 ff	 cmp	 eax, -1
  00046	75 0c		 jne	 SHORT $LN6@GetGradeTy

; 806  : 		return szNone;

  00048	8b 4d 08	 mov	 ecx, DWORD PTR ___$ReturnUdt$[ebp]
  0004b	56		 push	 esi
  0004c	ff 15 00 00 00
	00		 call	 DWORD PTR __imp_??0ioHashString@@QAE@ABV0@@Z
  00052	eb 3b		 jmp	 SHORT $LN14@GetGradeTy
$LN6@GetGradeTy:

; 807  : 
; 808  : 	switch( iType )

  00054	48		 dec	 eax
  00055	48		 dec	 eax

; 816  : 	}
; 817  : 
; 818  : 	return STR(4);

  00056	57		 push	 edi
  00057	74 12		 je	 SHORT $LN3@GetGradeTy

; 807  : 
; 808  : 	switch( iType )

  00059	48		 dec	 eax
  0005a	74 0b		 je	 SHORT $LN2@GetGradeTy
  0005c	48		 dec	 eax
  0005d	74 04		 je	 SHORT $LN1@GetGradeTy

; 816  : 	}
; 817  : 
; 818  : 	return STR(4);

  0005f	6a 04		 push	 4
  00061	eb 0a		 jmp	 SHORT $LN15@GetGradeTy
$LN1@GetGradeTy:

; 814  : 	case 4:
; 815  : 		return STR(3);

  00063	6a 03		 push	 3
  00065	eb 06		 jmp	 SHORT $LN15@GetGradeTy
$LN2@GetGradeTy:

; 812  : 	case 3:
; 813  : 		return STR(2);

  00067	6a 02		 push	 2
  00069	eb 02		 jmp	 SHORT $LN15@GetGradeTy
$LN3@GetGradeTy:

; 809  : 	{
; 810  : 	case 2:
; 811  : 		return STR(1);

  0006b	6a 01		 push	 1
$LN15@GetGradeTy:
  0006d	68 00 00 00 00	 push	 OFFSET ??_C@_00CNPNBAHC@?$AA@
  00072	68 00 00 00 00	 push	 OFFSET ??_C@_0CG@PDNHMCPG@ExPCRoomSoldierBonusWnd?3?3GetGrad@
  00077	ff 15 00 00 00
	00		 call	 DWORD PTR __imp_?GetSingleton@ioStringManager@@SAAAV1@XZ
  0007d	8b c8		 mov	 ecx, eax
  0007f	ff 15 00 00 00
	00		 call	 DWORD PTR __imp_?GetString@ioStringManager@@QAEPADPBD0HW4FileNamePrefix@1@@Z
  00085	8b 4d 08	 mov	 ecx, DWORD PTR ___$ReturnUdt$[ebp]
  00088	50		 push	 eax
  00089	ff 15 00 00 00
	00		 call	 DWORD PTR __imp_??0ioHashString@@QAE@PBD@Z
$LN14@GetGradeTy:
  0008f	8b 45 08	 mov	 eax, DWORD PTR ___$ReturnUdt$[ebp]

; 819  : }

  00092	e8 00 00 00 00	 call	 __EH_epilog3
  00097	c2 08 00	 ret	 8
_TEXT	ENDS
;	COMDAT text$x
text$x	SEGMENT
__unwindfunclet$?GetGradeType@ExPCRoomSoldierBonusWnd@@IAE?AVioHashString@@H@Z$0:
  00000	a1 00 00 00 00	 mov	 eax, DWORD PTR ?$S2@?1??GetGradeType@ExPCRoomSoldierBonusWnd@@IAE?AVioHashString@@H@Z@4IA
  00005	83 e0 fe	 and	 eax, -2			; fffffffeH
  00008	a3 00 00 00 00	 mov	 DWORD PTR ?$S2@?1??GetGradeType@ExPCRoomSoldierBonusWnd@@IAE?AVioHashString@@H@Z@4IA, eax
  0000d	c3		 ret	 0
__ehhandler$?GetGradeType@ExPCRoomSoldierBonusWnd@@IAE?AVioHashString@@H@Z:
  0000e	8b 54 24 08	 mov	 edx, DWORD PTR [esp+8]
  00012	8d 42 0c	 lea	 eax, DWORD PTR [edx+12]
  00015	8b 4a ec	 mov	 ecx, DWORD PTR [edx-20]
  00018	33 c8		 xor	 ecx, eax
  0001a	e8 00 00 00 00	 call	 @__security_check_cookie@4
  0001f	b8 00 00 00 00	 mov	 eax, OFFSET __ehfuncinfo$?GetGradeType@ExPCRoomSoldierBonusWnd@@IAE?AVioHashString@@H@Z
  00024	e9 00 00 00 00	 jmp	 ___CxxFrameHandler3
text$x	ENDS
?GetGradeType@ExPCRoomSoldierBonusWnd@@IAE?AVioHashString@@H@Z ENDP ; ExPCRoomSoldierBonusWnd::GetGradeType
PUBLIC	__real@3f333333
PUBLIC	__real@3f59999a
PUBLIC	??_C@_0CM@IBPKBFHH@ExPCRoomSoldierBonusWnd?3?3On3DCha@ ; `string'
PUBLIC	?On3DCharInfoRender@ExPCRoomSoldierBonusWnd@@IAEXHH@Z ; ExPCRoomSoldierBonusWnd::On3DCharInfoRender
EXTRN	__imp_??4ioHashString@@QAEAAV0@ABV0@@Z:PROC
EXTRN	__imp_?PrintText@ioFontManager@@QAEXMMMPBD0@Z:PROC
EXTRN	__imp_?Length@ioHashString@@QBEHXZ:PROC
EXTRN	__imp_?PrintText@ioFontManager@@QAAXMMMPBDZZ:PROC
;	COMDAT __real@3f333333
CONST	SEGMENT
__real@3f333333 DD 03f333333r			; 0.7
CONST	ENDS
;	COMDAT __real@3f59999a
CONST	SEGMENT
__real@3f59999a DD 03f59999ar			; 0.85
CONST	ENDS
;	COMDAT ??_C@_0CM@IBPKBFHH@ExPCRoomSoldierBonusWnd?3?3On3DCha@
CONST	SEGMENT
??_C@_0CM@IBPKBFHH@ExPCRoomSoldierBonusWnd?3?3On3DCha@ DB 'ExPCRoomSoldie'
	DB	'rBonusWnd::On3DCharInfoRender', 00H		; `string'
CONST	ENDS
;	COMDAT xdata$x
xdata$x	SEGMENT
__ehfuncinfo$?On3DCharInfoRender@ExPCRoomSoldierBonusWnd@@IAEXHH@Z DD 019930522H
	DD	05H
	DD	FLAT:__unwindtable$?On3DCharInfoRender@ExPCRoomSoldierBonusWnd@@IAEXHH@Z
	DD	2 DUP(00H)
	DD	2 DUP(00H)
	DD	00H
	DD	01H
__unwindtable$?On3DCharInfoRender@ExPCRoomSoldierBonusWnd@@IAEXHH@Z DD 0ffffffffH
	DD	FLAT:__unwindfunclet$?On3DCharInfoRender@ExPCRoomSoldierBonusWnd@@IAEXHH@Z$0
	DD	0ffffffffH
	DD	FLAT:__unwindfunclet$?On3DCharInfoRender@ExPCRoomSoldierBonusWnd@@IAEXHH@Z$1
	DD	01H
	DD	FLAT:__unwindfunclet$?On3DCharInfoRender@ExPCRoomSoldierBonusWnd@@IAEXHH@Z$2
	DD	01H
	DD	FLAT:__unwindfunclet$?On3DCharInfoRender@ExPCRoomSoldierBonusWnd@@IAEXHH@Z$3
	DD	01H
	DD	FLAT:__unwindfunclet$?On3DCharInfoRender@ExPCRoomSoldierBonusWnd@@IAEXHH@Z$4
; Function compile flags: /Ogsp
xdata$x	ENDS
;	COMDAT ?On3DCharInfoRender@ExPCRoomSoldierBonusWnd@@IAEXHH@Z
_TEXT	SEGMENT
$T536855 = -72						; size = 16
$T536854 = -56						; size = 16
$T536853 = -56						; size = 16
$T536852 = -56						; size = 16
_szHashTemp$ = -40					; size = 16
tv630 = -24						; size = 4
tv610 = -24						; size = 4
tv596 = -24						; size = 4
tv582 = -24						; size = 4
tv628 = -20						; size = 4
_this$ = -16						; size = 4
__$EHRec$ = -12						; size = 12
tv641 = 8						; size = 4
_iXPos$ = 8						; size = 4
_iYPos$ = 12						; size = 4
?On3DCharInfoRender@ExPCRoomSoldierBonusWnd@@IAEXHH@Z PROC ; ExPCRoomSoldierBonusWnd::On3DCharInfoRender, COMDAT
; _this$ = ecx

; 845  : {

  00000	6a 3c		 push	 60			; 0000003cH
  00002	b8 00 00 00 00	 mov	 eax, __ehhandler$?On3DCharInfoRender@ExPCRoomSoldierBonusWnd@@IAEXHH@Z
  00007	e8 00 00 00 00	 call	 __EH_prolog3
  0000c	8b d9		 mov	 ebx, ecx
  0000e	89 5d f0	 mov	 DWORD PTR _this$[ebp], ebx

; 846  : 	if( m_pCharFrameOne )
; 847  : 		m_pCharFrameOne->Render( iXPos, iYPos );

  00011	8b 75 08	 mov	 esi, DWORD PTR _iXPos$[ebp]
  00014	33 ff		 xor	 edi, edi
  00016	39 bb 60 01 00
	00		 cmp	 DWORD PTR [ebx+352], edi
  0001c	74 2c		 je	 SHORT $LN8@On3DCharIn
  0001e	66 0f 6e 45 0c	 movd	 xmm0, DWORD PTR _iYPos$[ebp]
  00023	8b 83 60 01 00
	00		 mov	 eax, DWORD PTR [ebx+352]
  00029	8b 10		 mov	 edx, DWORD PTR [eax]
  0002b	57		 push	 edi
  0002c	57		 push	 edi
  0002d	57		 push	 edi
  0002e	57		 push	 edi
  0002f	51		 push	 ecx
  00030	51		 push	 ecx
  00031	0f 5b c0	 cvtdq2ps xmm0, xmm0
  00034	f3 0f 11 44 24
	04		 movss	 DWORD PTR [esp+4], xmm0
  0003a	0f 57 c0	 xorps	 xmm0, xmm0
  0003d	f3 0f 2a c6	 cvtsi2ss xmm0, esi
  00041	8b c8		 mov	 ecx, eax
  00043	f3 0f 11 04 24	 movss	 DWORD PTR [esp], xmm0
  00048	ff 12		 call	 DWORD PTR [edx]
$LN8@On3DCharIn:

; 848  : 
; 849  : 	if( m_pCharFrameTwo )

  0004a	39 bb 64 01 00
	00		 cmp	 DWORD PTR [ebx+356], edi
  00050	74 2a		 je	 SHORT $LN7@On3DCharIn

; 850  : 		m_pCharFrameTwo->Render( iXPos, iYPos );

  00052	8b 8b 64 01 00
	00		 mov	 ecx, DWORD PTR [ebx+356]
  00058	66 0f 6e 45 0c	 movd	 xmm0, DWORD PTR _iYPos$[ebp]
  0005d	8b 01		 mov	 eax, DWORD PTR [ecx]
  0005f	57		 push	 edi
  00060	57		 push	 edi
  00061	57		 push	 edi
  00062	57		 push	 edi
  00063	51		 push	 ecx
  00064	0f 5b c0	 cvtdq2ps xmm0, xmm0
  00067	51		 push	 ecx
  00068	f3 0f 11 44 24
	04		 movss	 DWORD PTR [esp+4], xmm0
  0006e	0f 57 c0	 xorps	 xmm0, xmm0
  00071	f3 0f 2a c6	 cvtsi2ss xmm0, esi
  00075	f3 0f 11 04 24	 movss	 DWORD PTR [esp], xmm0
  0007a	ff 10		 call	 DWORD PTR [eax]
$LN7@On3DCharIn:

; 851  : 
; 852  : 	if( m_pCharFrameNum )

  0007c	39 bb 68 01 00
	00		 cmp	 DWORD PTR [ebx+360], edi
  00082	8b 1d 00 00 00
	00		 mov	 ebx, DWORD PTR __imp_?GetSingleton@ioFontManager@@SAAAV1@XZ
  00088	0f 84 6e 01 00
	00		 je	 $LN6@On3DCharIn

; 853  : 	{
; 854  : 		m_pCharFrameNum->SetSize( 25, 25 );

  0008e	8b 45 f0	 mov	 eax, DWORD PTR _this$[ebp]
  00091	8b 88 68 01 00
	00		 mov	 ecx, DWORD PTR [eax+360]
  00097	8b 01		 mov	 eax, DWORD PTR [ecx]
  00099	6a 19		 push	 25			; 00000019H
  0009b	6a 19		 push	 25			; 00000019H
  0009d	ff 50 10	 call	 DWORD PTR [eax+16]

; 855  : 		m_pCharFrameNum->Render( iXPos + 25,  iYPos + 62 );

  000a0	8b 45 f0	 mov	 eax, DWORD PTR _this$[ebp]
  000a3	8b 88 68 01 00
	00		 mov	 ecx, DWORD PTR [eax+360]
  000a9	8b 45 0c	 mov	 eax, DWORD PTR _iYPos$[ebp]
  000ac	57		 push	 edi
  000ad	57		 push	 edi
  000ae	57		 push	 edi
  000af	57		 push	 edi
  000b0	83 c0 3e	 add	 eax, 62			; 0000003eH
  000b3	0f 57 c0	 xorps	 xmm0, xmm0
  000b6	f3 0f 2a c0	 cvtsi2ss xmm0, eax
  000ba	8b 01		 mov	 eax, DWORD PTR [ecx]
  000bc	51		 push	 ecx
  000bd	51		 push	 ecx
  000be	f3 0f 11 44 24
	04		 movss	 DWORD PTR [esp+4], xmm0
  000c4	f3 0f 11 45 e8	 movss	 DWORD PTR tv582[ebp], xmm0
  000c9	8d 56 19	 lea	 edx, DWORD PTR [esi+25]
  000cc	0f 57 c0	 xorps	 xmm0, xmm0
  000cf	f3 0f 2a c2	 cvtsi2ss xmm0, edx
  000d3	f3 0f 11 04 24	 movss	 DWORD PTR [esp], xmm0
  000d8	ff 10		 call	 DWORD PTR [eax]

; 856  : 		m_pCharFrameNum->Render( iXPos + 179, iYPos + 62 );

  000da	8b 45 f0	 mov	 eax, DWORD PTR _this$[ebp]
  000dd	8b 88 68 01 00
	00		 mov	 ecx, DWORD PTR [eax+360]
  000e3	f3 0f 10 45 e8	 movss	 xmm0, DWORD PTR tv582[ebp]
  000e8	8b 01		 mov	 eax, DWORD PTR [ecx]
  000ea	57		 push	 edi
  000eb	57		 push	 edi
  000ec	57		 push	 edi
  000ed	57		 push	 edi
  000ee	51		 push	 ecx
  000ef	51		 push	 ecx
  000f0	f3 0f 11 44 24
	04		 movss	 DWORD PTR [esp+4], xmm0
  000f6	8d 96 b3 00 00
	00		 lea	 edx, DWORD PTR [esi+179]
  000fc	0f 57 c0	 xorps	 xmm0, xmm0
  000ff	f3 0f 2a c2	 cvtsi2ss xmm0, edx
  00103	f3 0f 11 04 24	 movss	 DWORD PTR [esp], xmm0
  00108	ff 10		 call	 DWORD PTR [eax]

; 857  : 
; 858  : 		g_FontMgr.SetBkColor( 170, 55, 77 );

  0010a	6a 4d		 push	 77			; 0000004dH
  0010c	6a 37		 push	 55			; 00000037H
  0010e	68 aa 00 00 00	 push	 170			; 000000aaH
  00113	ff d3		 call	 ebx
  00115	8b c8		 mov	 ecx, eax
  00117	ff 15 00 00 00
	00		 call	 DWORD PTR __imp_?SetBkColor@ioFontManager@@QAEXHHH@Z

; 859  : 		g_FontMgr.SetTextStyle( TS_OUTLINE_FULL_2X );

  0011d	6a 05		 push	 5
  0011f	ff d3		 call	 ebx
  00121	8b c8		 mov	 ecx, eax
  00123	ff 15 00 00 00
	00		 call	 DWORD PTR __imp_?SetTextStyle@ioFontManager@@QAEXW4TextStyle@@@Z

; 860  : 		g_FontMgr.SetAlignType( TAT_CENTER );

  00129	6a 01		 push	 1
  0012b	ff d3		 call	 ebx
  0012d	8b c8		 mov	 ecx, eax
  0012f	ff 15 00 00 00
	00		 call	 DWORD PTR __imp_?SetAlignType@ioFontManager@@QAEXW4TextAlignType@@@Z

; 861  : 		g_FontMgr.SetTextColor( TCT_DEFAULT_WHITE );

  00135	6a ff		 push	 -1
  00137	ff d3		 call	 ebx
  00139	8b c8		 mov	 ecx, eax
  0013b	ff 15 00 00 00
	00		 call	 DWORD PTR __imp_?SetTextColor@ioFontManager@@QAEXK@Z

; 862  : 		g_FontMgr.PrintText( iXPos + 37,  iYPos + 63, FONT_SIZE_17, STR(1), 1 );

  00141	8b 45 0c	 mov	 eax, DWORD PTR _iYPos$[ebp]
  00144	6a 01		 push	 1
  00146	57		 push	 edi
  00147	6a 01		 push	 1
  00149	83 c0 3f	 add	 eax, 63			; 0000003fH
  0014c	0f 57 c0	 xorps	 xmm0, xmm0
  0014f	68 00 00 00 00	 push	 OFFSET ??_C@_00CNPNBAHC@?$AA@
  00154	f3 0f 2a c0	 cvtsi2ss xmm0, eax
  00158	68 00 00 00 00	 push	 OFFSET ??_C@_0CM@IBPKBFHH@ExPCRoomSoldierBonusWnd?3?3On3DCha@
  0015d	f3 0f 11 45 e8	 movss	 DWORD PTR tv596[ebp], xmm0
  00162	ff 15 00 00 00
	00		 call	 DWORD PTR __imp_?GetSingleton@ioStringManager@@SAAAV1@XZ
  00168	8b c8		 mov	 ecx, eax
  0016a	ff 15 00 00 00
	00		 call	 DWORD PTR __imp_?GetString@ioStringManager@@QAEPADPBD0HW4FileNamePrefix@1@@Z
  00170	f3 0f 10 05 00
	00 00 00	 movss	 xmm0, DWORD PTR __real@3f59999a
  00178	50		 push	 eax
  00179	83 ec 0c	 sub	 esp, 12			; 0000000cH
  0017c	f3 0f 11 44 24
	08		 movss	 DWORD PTR [esp+8], xmm0
  00182	f3 0f 10 45 e8	 movss	 xmm0, DWORD PTR tv596[ebp]
  00187	f3 0f 11 44 24
	04		 movss	 DWORD PTR [esp+4], xmm0
  0018d	8d 46 25	 lea	 eax, DWORD PTR [esi+37]
  00190	0f 57 c0	 xorps	 xmm0, xmm0
  00193	f3 0f 2a c0	 cvtsi2ss xmm0, eax
  00197	f3 0f 11 04 24	 movss	 DWORD PTR [esp], xmm0
  0019c	ff d3		 call	 ebx
  0019e	8b c8		 mov	 ecx, eax
  001a0	ff 15 00 00 00
	00		 call	 DWORD PTR __imp_?PrintText@ioFontManager@@QAEXMMMPBDH@Z

; 863  : 		g_FontMgr.PrintText( iXPos + 191, iYPos + 63, FONT_SIZE_17, STR(1), 2 );

  001a6	6a 02		 push	 2
  001a8	57		 push	 edi
  001a9	6a 01		 push	 1
  001ab	68 00 00 00 00	 push	 OFFSET ??_C@_00CNPNBAHC@?$AA@
  001b0	68 00 00 00 00	 push	 OFFSET ??_C@_0CM@IBPKBFHH@ExPCRoomSoldierBonusWnd?3?3On3DCha@
  001b5	ff 15 00 00 00
	00		 call	 DWORD PTR __imp_?GetSingleton@ioStringManager@@SAAAV1@XZ
  001bb	8b c8		 mov	 ecx, eax
  001bd	ff 15 00 00 00
	00		 call	 DWORD PTR __imp_?GetString@ioStringManager@@QAEPADPBD0HW4FileNamePrefix@1@@Z
  001c3	f3 0f 10 05 00
	00 00 00	 movss	 xmm0, DWORD PTR __real@3f59999a
  001cb	50		 push	 eax
  001cc	83 ec 0c	 sub	 esp, 12			; 0000000cH
  001cf	f3 0f 11 44 24
	08		 movss	 DWORD PTR [esp+8], xmm0
  001d5	f3 0f 10 45 e8	 movss	 xmm0, DWORD PTR tv596[ebp]
  001da	f3 0f 11 44 24
	04		 movss	 DWORD PTR [esp+4], xmm0
  001e0	8d 86 bf 00 00
	00		 lea	 eax, DWORD PTR [esi+191]
  001e6	0f 57 c0	 xorps	 xmm0, xmm0
  001e9	f3 0f 2a c0	 cvtsi2ss xmm0, eax
  001ed	f3 0f 11 04 24	 movss	 DWORD PTR [esp], xmm0
  001f2	ff d3		 call	 ebx
  001f4	8b c8		 mov	 ecx, eax
  001f6	ff 15 00 00 00
	00		 call	 DWORD PTR __imp_?PrintText@ioFontManager@@QAEXMMMPBDH@Z
$LN6@On3DCharIn:

; 864  : 	}
; 865  : 
; 866  : 	if( m_pCharBottomFrame )

  001fc	8b 45 f0	 mov	 eax, DWORD PTR _this$[ebp]
  001ff	39 b8 6c 01 00
	00		 cmp	 DWORD PTR [eax+364], edi
  00205	74 6b		 je	 SHORT $LN5@On3DCharIn

; 867  : 	{		
; 868  : 		m_pCharBottomFrame->Render( iXPos + 21,  iYPos + 324, UI_RENDER_MULTIPLY );		

  00207	8b 88 6c 01 00
	00		 mov	 ecx, DWORD PTR [eax+364]
  0020d	8b 45 0c	 mov	 eax, DWORD PTR _iYPos$[ebp]
  00210	57		 push	 edi
  00211	57		 push	 edi
  00212	57		 push	 edi
  00213	6a 08		 push	 8
  00215	05 44 01 00 00	 add	 eax, 324		; 00000144H
  0021a	0f 57 c0	 xorps	 xmm0, xmm0
  0021d	f3 0f 2a c0	 cvtsi2ss xmm0, eax
  00221	8b 01		 mov	 eax, DWORD PTR [ecx]
  00223	51		 push	 ecx
  00224	51		 push	 ecx
  00225	f3 0f 11 44 24
	04		 movss	 DWORD PTR [esp+4], xmm0
  0022b	f3 0f 11 45 e8	 movss	 DWORD PTR tv610[ebp], xmm0
  00230	8d 56 15	 lea	 edx, DWORD PTR [esi+21]
  00233	0f 57 c0	 xorps	 xmm0, xmm0
  00236	f3 0f 2a c2	 cvtsi2ss xmm0, edx
  0023a	f3 0f 11 04 24	 movss	 DWORD PTR [esp], xmm0
  0023f	ff 10		 call	 DWORD PTR [eax]

; 869  : 		m_pCharBottomFrame->Render( iXPos + 175, iYPos + 324, UI_RENDER_MULTIPLY );

  00241	8b 45 f0	 mov	 eax, DWORD PTR _this$[ebp]
  00244	8b 88 6c 01 00
	00		 mov	 ecx, DWORD PTR [eax+364]
  0024a	f3 0f 10 45 e8	 movss	 xmm0, DWORD PTR tv610[ebp]
  0024f	8b 01		 mov	 eax, DWORD PTR [ecx]
  00251	57		 push	 edi
  00252	57		 push	 edi
  00253	57		 push	 edi
  00254	6a 08		 push	 8
  00256	51		 push	 ecx
  00257	51		 push	 ecx
  00258	f3 0f 11 44 24
	04		 movss	 DWORD PTR [esp+4], xmm0
  0025e	8d 96 af 00 00
	00		 lea	 edx, DWORD PTR [esi+175]
  00264	0f 57 c0	 xorps	 xmm0, xmm0
  00267	f3 0f 2a c2	 cvtsi2ss xmm0, edx
  0026b	f3 0f 11 04 24	 movss	 DWORD PTR [esp], xmm0
  00270	ff 10		 call	 DWORD PTR [eax]
$LN5@On3DCharIn:

; 870  : 	}
; 871  : 
; 872  : 	g_FontMgr.SetBkColor( 0, 0, 0 );

  00272	57		 push	 edi
  00273	57		 push	 edi
  00274	57		 push	 edi
  00275	ff d3		 call	 ebx
  00277	8b c8		 mov	 ecx, eax
  00279	ff 15 00 00 00
	00		 call	 DWORD PTR __imp_?SetBkColor@ioFontManager@@QAEXHHH@Z

; 873  : 	g_FontMgr.SetTextStyle( TS_NORMAL );

  0027f	57		 push	 edi
  00280	ff d3		 call	 ebx
  00282	8b c8		 mov	 ecx, eax
  00284	ff 15 00 00 00
	00		 call	 DWORD PTR __imp_?SetTextStyle@ioFontManager@@QAEXW4TextStyle@@@Z

; 874  : 	g_FontMgr.SetAlignType( TAT_CENTER );

  0028a	6a 01		 push	 1
  0028c	ff d3		 call	 ebx
  0028e	8b c8		 mov	 ecx, eax
  00290	ff 15 00 00 00
	00		 call	 DWORD PTR __imp_?SetAlignType@ioFontManager@@QAEXW4TextAlignType@@@Z

; 875  : 	g_FontMgr.SetTextColor( TCT_DEFAULT_DARKGRAY );

  00296	68 3a 3a 3a ff	 push	 -12961222		; ff3a3a3aH
  0029b	ff d3		 call	 ebx
  0029d	8b c8		 mov	 ecx, eax
  0029f	ff 15 00 00 00
	00		 call	 DWORD PTR __imp_?SetTextColor@ioFontManager@@QAEXK@Z

; 876  : 	g_FontMgr.SetTextColor( TCT_DEFAULT_GRAY );

  002a5	68 6e 6e 6e ff	 push	 -9539986		; ff6e6e6eH
  002aa	ff d3		 call	 ebx
  002ac	8b c8		 mov	 ecx, eax
  002ae	ff 15 00 00 00
	00		 call	 DWORD PTR __imp_?SetTextColor@ioFontManager@@QAEXK@Z

; 877  : 
; 878  : 	g_FontMgr.PrintText( iXPos + 91,  iYPos + 351, FONT_SIZE_12, STR(2), GetGradeType( m_iOneCharType ) );

  002b4	8b 4d f0	 mov	 ecx, DWORD PTR _this$[ebp]
  002b7	ff b1 80 01 00
	00		 push	 DWORD PTR [ecx+384]
  002bd	8d 45 c8	 lea	 eax, DWORD PTR $T536852[ebp]
  002c0	50		 push	 eax
  002c1	e8 00 00 00 00	 call	 ?GetGradeType@ExPCRoomSoldierBonusWnd@@IAE?AVioHashString@@H@Z ; ExPCRoomSoldierBonusWnd::GetGradeType
  002c6	8b 4d 0c	 mov	 ecx, DWORD PTR _iYPos$[ebp]
  002c9	0f 57 c0	 xorps	 xmm0, xmm0
  002cc	83 c6 5b	 add	 esi, 91			; 0000005bH
  002cf	89 7d fc	 mov	 DWORD PTR __$EHRec$[ebp+8], edi
  002d2	81 c1 5f 01 00
	00		 add	 ecx, 351		; 0000015fH
  002d8	f3 0f 2a c1	 cvtsi2ss xmm0, ecx
  002dc	83 ec 10	 sub	 esp, 16			; 00000010H
  002df	f3 0f 11 45 ec	 movss	 DWORD PTR tv628[ebp], xmm0
  002e4	8b fc		 mov	 edi, esp
  002e6	0f 57 c0	 xorps	 xmm0, xmm0
  002e9	f3 0f 2a c6	 cvtsi2ss xmm0, esi
  002ed	8b f0		 mov	 esi, eax
  002ef	a5		 movsd
  002f0	a5		 movsd
  002f1	a5		 movsd
  002f2	6a 00		 push	 0
  002f4	6a 02		 push	 2
  002f6	a5		 movsd
  002f7	8b 3d 00 00 00
	00		 mov	 edi, DWORD PTR __imp_?GetSingleton@ioStringManager@@SAAAV1@XZ
  002fd	68 00 00 00 00	 push	 OFFSET ??_C@_00CNPNBAHC@?$AA@
  00302	68 00 00 00 00	 push	 OFFSET ??_C@_0CM@IBPKBFHH@ExPCRoomSoldierBonusWnd?3?3On3DCha@
  00307	f3 0f 11 45 e8	 movss	 DWORD PTR tv630[ebp], xmm0
  0030c	ff d7		 call	 edi
  0030e	8b 35 00 00 00
	00		 mov	 esi, DWORD PTR __imp_?GetString@ioStringManager@@QAEPADPBD0HW4FileNamePrefix@1@@Z
  00314	8b c8		 mov	 ecx, eax
  00316	ff d6		 call	 esi
  00318	f3 0f 10 05 00
	00 00 00	 movss	 xmm0, DWORD PTR __real@3f19999a
  00320	50		 push	 eax
  00321	83 ec 0c	 sub	 esp, 12			; 0000000cH
  00324	f3 0f 11 44 24
	08		 movss	 DWORD PTR [esp+8], xmm0
  0032a	f3 0f 10 45 ec	 movss	 xmm0, DWORD PTR tv628[ebp]
  0032f	f3 0f 11 44 24
	04		 movss	 DWORD PTR [esp+4], xmm0
  00335	f3 0f 10 45 e8	 movss	 xmm0, DWORD PTR tv630[ebp]
  0033a	f3 0f 11 04 24	 movss	 DWORD PTR [esp], xmm0
  0033f	ff d3		 call	 ebx
  00341	50		 push	 eax
  00342	ff 15 00 00 00
	00		 call	 DWORD PTR __imp_?PrintText@ioFontManager@@QAAXMMMPBDZZ
  00348	83 4d fc ff	 or	 DWORD PTR __$EHRec$[ebp+8], -1
  0034c	83 c4 24	 add	 esp, 36			; 00000024H
  0034f	8d 4d c8	 lea	 ecx, DWORD PTR $T536852[ebp]
  00352	ff 15 00 00 00
	00		 call	 DWORD PTR __imp_??1ioHashString@@QAE@XZ

; 879  : 	//g_FontMgr.PrintText( iXPos + 91,  iYPos + 351, FONT_SIZE_12, STR(2), GetPackageType(( m_iOneCharType ) );
; 880  : 
; 881  : 	if( m_szOneCharName.Length() > 0 )

  00358	8b 4d f0	 mov	 ecx, DWORD PTR _this$[ebp]
  0035b	81 c1 70 01 00
	00		 add	 ecx, 368		; 00000170H
  00361	ff 15 00 00 00
	00		 call	 DWORD PTR __imp_?Length@ioHashString@@QBEHXZ
  00367	85 c0		 test	 eax, eax
  00369	7e 5f		 jle	 SHORT $LN4@On3DCharIn

; 882  : 		g_FontMgr.PrintText( iXPos + 91,  iYPos + 332, FONT_SIZE_14, STR(2), m_szOneCharName.c_str() );

  0036b	8b 4d f0	 mov	 ecx, DWORD PTR _this$[ebp]
  0036e	81 c1 70 01 00
	00		 add	 ecx, 368		; 00000170H
  00374	ff 15 00 00 00
	00		 call	 DWORD PTR __imp_?c_str@ioHashString@@QBEPBDXZ
  0037a	50		 push	 eax
  0037b	6a 00		 push	 0
  0037d	6a 02		 push	 2
  0037f	68 00 00 00 00	 push	 OFFSET ??_C@_00CNPNBAHC@?$AA@
  00384	68 00 00 00 00	 push	 OFFSET ??_C@_0CM@IBPKBFHH@ExPCRoomSoldierBonusWnd?3?3On3DCha@
  00389	ff d7		 call	 edi
  0038b	8b c8		 mov	 ecx, eax
  0038d	ff d6		 call	 esi
  0038f	f3 0f 10 05 00
	00 00 00	 movss	 xmm0, DWORD PTR __real@3f333333
  00397	50		 push	 eax
  00398	8b 45 0c	 mov	 eax, DWORD PTR _iYPos$[ebp]
  0039b	83 ec 0c	 sub	 esp, 12			; 0000000cH
  0039e	f3 0f 11 44 24
	08		 movss	 DWORD PTR [esp+8], xmm0
  003a4	05 4c 01 00 00	 add	 eax, 332		; 0000014cH
  003a9	0f 57 c0	 xorps	 xmm0, xmm0
  003ac	f3 0f 2a c0	 cvtsi2ss xmm0, eax
  003b0	f3 0f 11 44 24
	04		 movss	 DWORD PTR [esp+4], xmm0
  003b6	f3 0f 10 45 e8	 movss	 xmm0, DWORD PTR tv630[ebp]
  003bb	f3 0f 11 04 24	 movss	 DWORD PTR [esp], xmm0
  003c0	ff d3		 call	 ebx
  003c2	8b c8		 mov	 ecx, eax
  003c4	ff 15 00 00 00
	00		 call	 DWORD PTR __imp_?PrintText@ioFontManager@@QAEXMMMPBD0@Z
$LN4@On3DCharIn:

; 883  : 
; 884  : 	ioHashString	szHashTemp;

  003ca	8d 4d d8	 lea	 ecx, DWORD PTR _szHashTemp$[ebp]
  003cd	ff 15 00 00 00
	00		 call	 DWORD PTR __imp_??0ioHashString@@QAE@XZ

; 885  : 	szHashTemp = GetPackageType( m_iOneCharType );

  003d3	8b 4d f0	 mov	 ecx, DWORD PTR _this$[ebp]
  003d6	ff b1 80 01 00
	00		 push	 DWORD PTR [ecx+384]
  003dc	8d 45 c8	 lea	 eax, DWORD PTR $T536853[ebp]
  003df	50		 push	 eax
  003e0	c7 45 fc 01 00
	00 00		 mov	 DWORD PTR __$EHRec$[ebp+8], 1
  003e7	e8 00 00 00 00	 call	 ?GetPackageType@ExPCRoomSoldierBonusWnd@@IAE?AVioHashString@@H@Z ; ExPCRoomSoldierBonusWnd::GetPackageType
  003ec	50		 push	 eax
  003ed	8d 4d d8	 lea	 ecx, DWORD PTR _szHashTemp$[ebp]
  003f0	c6 45 fc 02	 mov	 BYTE PTR __$EHRec$[ebp+8], 2
  003f4	ff 15 00 00 00
	00		 call	 DWORD PTR __imp_??4ioHashString@@QAEAAV0@ABV0@@Z
  003fa	8d 4d c8	 lea	 ecx, DWORD PTR $T536853[ebp]
  003fd	c6 45 fc 01	 mov	 BYTE PTR __$EHRec$[ebp+8], 1
  00401	ff 15 00 00 00
	00		 call	 DWORD PTR __imp_??1ioHashString@@QAE@XZ

; 886  : 	if( szHashTemp.Length() > 0 )

  00407	8d 4d d8	 lea	 ecx, DWORD PTR _szHashTemp$[ebp]
  0040a	ff 15 00 00 00
	00		 call	 DWORD PTR __imp_?Length@ioHashString@@QBEHXZ
  00410	85 c0		 test	 eax, eax
  00412	7e 4f		 jle	 SHORT $LN3@On3DCharIn

; 887  : 		g_FontMgr.PrintText( iXPos + 91,  iYPos + 351, FONT_SIZE_12, STR(2), szHashTemp.c_str() );

  00414	8d 4d d8	 lea	 ecx, DWORD PTR _szHashTemp$[ebp]
  00417	ff 15 00 00 00
	00		 call	 DWORD PTR __imp_?c_str@ioHashString@@QBEPBDXZ
  0041d	50		 push	 eax
  0041e	6a 00		 push	 0
  00420	6a 02		 push	 2
  00422	68 00 00 00 00	 push	 OFFSET ??_C@_00CNPNBAHC@?$AA@
  00427	68 00 00 00 00	 push	 OFFSET ??_C@_0CM@IBPKBFHH@ExPCRoomSoldierBonusWnd?3?3On3DCha@
  0042c	ff d7		 call	 edi
  0042e	8b c8		 mov	 ecx, eax
  00430	ff d6		 call	 esi
  00432	f3 0f 10 05 00
	00 00 00	 movss	 xmm0, DWORD PTR __real@3f19999a
  0043a	50		 push	 eax
  0043b	83 ec 0c	 sub	 esp, 12			; 0000000cH
  0043e	f3 0f 11 44 24
	08		 movss	 DWORD PTR [esp+8], xmm0
  00444	f3 0f 10 45 ec	 movss	 xmm0, DWORD PTR tv628[ebp]
  00449	f3 0f 11 44 24
	04		 movss	 DWORD PTR [esp+4], xmm0
  0044f	f3 0f 10 45 e8	 movss	 xmm0, DWORD PTR tv630[ebp]
  00454	f3 0f 11 04 24	 movss	 DWORD PTR [esp], xmm0
  00459	ff d3		 call	 ebx
  0045b	8b c8		 mov	 ecx, eax
  0045d	ff 15 00 00 00
	00		 call	 DWORD PTR __imp_?PrintText@ioFontManager@@QAEXMMMPBD0@Z
$LN3@On3DCharIn:

; 888  : 
; 889  : 	g_FontMgr.SetBkColor( 0, 0, 0 );

  00463	33 f6		 xor	 esi, esi
  00465	56		 push	 esi
  00466	56		 push	 esi
  00467	56		 push	 esi
  00468	ff d3		 call	 ebx
  0046a	8b c8		 mov	 ecx, eax
  0046c	ff 15 00 00 00
	00		 call	 DWORD PTR __imp_?SetBkColor@ioFontManager@@QAEXHHH@Z

; 890  : 	g_FontMgr.SetTextStyle( TS_NORMAL );

  00472	56		 push	 esi
  00473	ff d3		 call	 ebx
  00475	8b c8		 mov	 ecx, eax
  00477	ff 15 00 00 00
	00		 call	 DWORD PTR __imp_?SetTextStyle@ioFontManager@@QAEXW4TextStyle@@@Z

; 891  : 	g_FontMgr.SetAlignType( TAT_CENTER );

  0047d	6a 01		 push	 1
  0047f	ff d3		 call	 ebx
  00481	8b c8		 mov	 ecx, eax
  00483	ff 15 00 00 00
	00		 call	 DWORD PTR __imp_?SetAlignType@ioFontManager@@QAEXW4TextAlignType@@@Z

; 892  : 	g_FontMgr.SetTextColor( TCT_DEFAULT_DARKGRAY );

  00489	68 3a 3a 3a ff	 push	 -12961222		; ff3a3a3aH
  0048e	ff d3		 call	 ebx
  00490	8b 35 00 00 00
	00		 mov	 esi, DWORD PTR __imp_?SetTextColor@ioFontManager@@QAEXK@Z
  00496	8b c8		 mov	 ecx, eax
  00498	ff d6		 call	 esi

; 893  : 	g_FontMgr.SetTextColor( TCT_DEFAULT_GRAY );

  0049a	68 6e 6e 6e ff	 push	 -9539986		; ff6e6e6eH
  0049f	ff d3		 call	 ebx
  004a1	8b c8		 mov	 ecx, eax
  004a3	ff d6		 call	 esi

; 894  : 	g_FontMgr.PrintText( iXPos + 245,  iYPos + 351, FONT_SIZE_12, STR(2), GetPackageType( m_iTwoCharType ) );

  004a5	8b 4d f0	 mov	 ecx, DWORD PTR _this$[ebp]
  004a8	ff b1 94 01 00
	00		 push	 DWORD PTR [ecx+404]
  004ae	8d 45 c8	 lea	 eax, DWORD PTR $T536854[ebp]
  004b1	50		 push	 eax
  004b2	e8 00 00 00 00	 call	 ?GetPackageType@ExPCRoomSoldierBonusWnd@@IAE?AVioHashString@@H@Z ; ExPCRoomSoldierBonusWnd::GetPackageType
  004b7	8b 4d 08	 mov	 ecx, DWORD PTR _iXPos$[ebp]
  004ba	83 ec 10	 sub	 esp, 16			; 00000010H
  004bd	8b fc		 mov	 edi, esp
  004bf	8b f0		 mov	 esi, eax
  004c1	a5		 movsd
  004c2	a5		 movsd
  004c3	a5		 movsd
  004c4	6a 00		 push	 0
  004c6	6a 02		 push	 2
  004c8	81 c1 f5 00 00
	00		 add	 ecx, 245		; 000000f5H
  004ce	0f 57 c0	 xorps	 xmm0, xmm0
  004d1	a5		 movsd
  004d2	8b 3d 00 00 00
	00		 mov	 edi, DWORD PTR __imp_?GetSingleton@ioStringManager@@SAAAV1@XZ
  004d8	68 00 00 00 00	 push	 OFFSET ??_C@_00CNPNBAHC@?$AA@
  004dd	f3 0f 2a c1	 cvtsi2ss xmm0, ecx
  004e1	68 00 00 00 00	 push	 OFFSET ??_C@_0CM@IBPKBFHH@ExPCRoomSoldierBonusWnd?3?3On3DCha@
  004e6	c6 45 fc 03	 mov	 BYTE PTR __$EHRec$[ebp+8], 3
  004ea	f3 0f 11 45 08	 movss	 DWORD PTR tv641[ebp], xmm0
  004ef	ff d7		 call	 edi
  004f1	8b 35 00 00 00
	00		 mov	 esi, DWORD PTR __imp_?GetString@ioStringManager@@QAEPADPBD0HW4FileNamePrefix@1@@Z
  004f7	8b c8		 mov	 ecx, eax
  004f9	ff d6		 call	 esi
  004fb	f3 0f 10 05 00
	00 00 00	 movss	 xmm0, DWORD PTR __real@3f19999a
  00503	50		 push	 eax
  00504	83 ec 0c	 sub	 esp, 12			; 0000000cH
  00507	f3 0f 11 44 24
	08		 movss	 DWORD PTR [esp+8], xmm0
  0050d	f3 0f 10 45 ec	 movss	 xmm0, DWORD PTR tv628[ebp]
  00512	f3 0f 11 44 24
	04		 movss	 DWORD PTR [esp+4], xmm0
  00518	f3 0f 10 45 08	 movss	 xmm0, DWORD PTR tv641[ebp]
  0051d	f3 0f 11 04 24	 movss	 DWORD PTR [esp], xmm0
  00522	ff d3		 call	 ebx
  00524	50		 push	 eax
  00525	ff 15 00 00 00
	00		 call	 DWORD PTR __imp_?PrintText@ioFontManager@@QAAXMMMPBDZZ
  0052b	83 c4 24	 add	 esp, 36			; 00000024H
  0052e	8d 4d c8	 lea	 ecx, DWORD PTR $T536854[ebp]
  00531	c6 45 fc 01	 mov	 BYTE PTR __$EHRec$[ebp+8], 1
  00535	ff 15 00 00 00
	00		 call	 DWORD PTR __imp_??1ioHashString@@QAE@XZ

; 895  : 
; 896  : 	if( m_szTwoCharName.Length() > 0 )

  0053b	8b 4d f0	 mov	 ecx, DWORD PTR _this$[ebp]
  0053e	81 c1 84 01 00
	00		 add	 ecx, 388		; 00000184H
  00544	ff 15 00 00 00
	00		 call	 DWORD PTR __imp_?Length@ioHashString@@QBEHXZ
  0054a	85 c0		 test	 eax, eax
  0054c	7e 5f		 jle	 SHORT $LN2@On3DCharIn

; 897  : 		g_FontMgr.PrintText( iXPos + 245,  iYPos + 332, FONT_SIZE_14, STR(2), m_szTwoCharName.c_str() );

  0054e	8b 4d f0	 mov	 ecx, DWORD PTR _this$[ebp]
  00551	81 c1 84 01 00
	00		 add	 ecx, 388		; 00000184H
  00557	ff 15 00 00 00
	00		 call	 DWORD PTR __imp_?c_str@ioHashString@@QBEPBDXZ
  0055d	50		 push	 eax
  0055e	6a 00		 push	 0
  00560	6a 02		 push	 2
  00562	68 00 00 00 00	 push	 OFFSET ??_C@_00CNPNBAHC@?$AA@
  00567	68 00 00 00 00	 push	 OFFSET ??_C@_0CM@IBPKBFHH@ExPCRoomSoldierBonusWnd?3?3On3DCha@
  0056c	ff d7		 call	 edi
  0056e	8b c8		 mov	 ecx, eax
  00570	ff d6		 call	 esi
  00572	f3 0f 10 05 00
	00 00 00	 movss	 xmm0, DWORD PTR __real@3f333333
  0057a	50		 push	 eax
  0057b	8b 45 0c	 mov	 eax, DWORD PTR _iYPos$[ebp]
  0057e	83 ec 0c	 sub	 esp, 12			; 0000000cH
  00581	f3 0f 11 44 24
	08		 movss	 DWORD PTR [esp+8], xmm0
  00587	05 4c 01 00 00	 add	 eax, 332		; 0000014cH
  0058c	0f 57 c0	 xorps	 xmm0, xmm0
  0058f	f3 0f 2a c0	 cvtsi2ss xmm0, eax
  00593	f3 0f 11 44 24
	04		 movss	 DWORD PTR [esp+4], xmm0
  00599	f3 0f 10 45 08	 movss	 xmm0, DWORD PTR tv641[ebp]
  0059e	f3 0f 11 04 24	 movss	 DWORD PTR [esp], xmm0
  005a3	ff d3		 call	 ebx
  005a5	8b c8		 mov	 ecx, eax
  005a7	ff 15 00 00 00
	00		 call	 DWORD PTR __imp_?PrintText@ioFontManager@@QAEXMMMPBD0@Z
$LN2@On3DCharIn:

; 898  : 	
; 899  : 	szHashTemp = GetPackageType( m_iTwoCharType );

  005ad	8b 4d f0	 mov	 ecx, DWORD PTR _this$[ebp]
  005b0	ff b1 94 01 00
	00		 push	 DWORD PTR [ecx+404]
  005b6	8d 45 b8	 lea	 eax, DWORD PTR $T536855[ebp]
  005b9	50		 push	 eax
  005ba	e8 00 00 00 00	 call	 ?GetPackageType@ExPCRoomSoldierBonusWnd@@IAE?AVioHashString@@H@Z ; ExPCRoomSoldierBonusWnd::GetPackageType
  005bf	50		 push	 eax
  005c0	8d 4d d8	 lea	 ecx, DWORD PTR _szHashTemp$[ebp]
  005c3	c6 45 fc 04	 mov	 BYTE PTR __$EHRec$[ebp+8], 4
  005c7	ff 15 00 00 00
	00		 call	 DWORD PTR __imp_??4ioHashString@@QAEAAV0@ABV0@@Z
  005cd	8d 4d b8	 lea	 ecx, DWORD PTR $T536855[ebp]
  005d0	c6 45 fc 01	 mov	 BYTE PTR __$EHRec$[ebp+8], 1
  005d4	ff 15 00 00 00
	00		 call	 DWORD PTR __imp_??1ioHashString@@QAE@XZ

; 900  : 	if( szHashTemp.Length() > 0 )

  005da	8d 4d d8	 lea	 ecx, DWORD PTR _szHashTemp$[ebp]
  005dd	ff 15 00 00 00
	00		 call	 DWORD PTR __imp_?Length@ioHashString@@QBEHXZ
  005e3	85 c0		 test	 eax, eax
  005e5	7e 4f		 jle	 SHORT $LN1@On3DCharIn

; 901  : 		g_FontMgr.PrintText( iXPos + 245,  iYPos + 351, FONT_SIZE_12, STR(2), szHashTemp.c_str() );

  005e7	8d 4d d8	 lea	 ecx, DWORD PTR _szHashTemp$[ebp]
  005ea	ff 15 00 00 00
	00		 call	 DWORD PTR __imp_?c_str@ioHashString@@QBEPBDXZ
  005f0	50		 push	 eax
  005f1	6a 00		 push	 0
  005f3	6a 02		 push	 2
  005f5	68 00 00 00 00	 push	 OFFSET ??_C@_00CNPNBAHC@?$AA@
  005fa	68 00 00 00 00	 push	 OFFSET ??_C@_0CM@IBPKBFHH@ExPCRoomSoldierBonusWnd?3?3On3DCha@
  005ff	ff d7		 call	 edi
  00601	8b c8		 mov	 ecx, eax
  00603	ff d6		 call	 esi
  00605	f3 0f 10 05 00
	00 00 00	 movss	 xmm0, DWORD PTR __real@3f19999a
  0060d	50		 push	 eax
  0060e	83 ec 0c	 sub	 esp, 12			; 0000000cH
  00611	f3 0f 11 44 24
	08		 movss	 DWORD PTR [esp+8], xmm0
  00617	f3 0f 10 45 ec	 movss	 xmm0, DWORD PTR tv628[ebp]
  0061c	f3 0f 11 44 24
	04		 movss	 DWORD PTR [esp+4], xmm0
  00622	f3 0f 10 45 08	 movss	 xmm0, DWORD PTR tv641[ebp]
  00627	f3 0f 11 04 24	 movss	 DWORD PTR [esp], xmm0
  0062c	ff d3		 call	 ebx
  0062e	8b c8		 mov	 ecx, eax
  00630	ff 15 00 00 00
	00		 call	 DWORD PTR __imp_?PrintText@ioFontManager@@QAEXMMMPBD0@Z
$LN1@On3DCharIn:

; 902  : }

  00636	83 4d fc ff	 or	 DWORD PTR __$EHRec$[ebp+8], -1
  0063a	8d 4d d8	 lea	 ecx, DWORD PTR _szHashTemp$[ebp]
  0063d	ff 15 00 00 00
	00		 call	 DWORD PTR __imp_??1ioHashString@@QAE@XZ
  00643	e8 00 00 00 00	 call	 __EH_epilog3
  00648	c2 08 00	 ret	 8
_TEXT	ENDS
;	COMDAT text$x
text$x	SEGMENT
__unwindfunclet$?On3DCharInfoRender@ExPCRoomSoldierBonusWnd@@IAEXHH@Z$0:
  00000	8d 4d c8	 lea	 ecx, DWORD PTR $T536852[ebp]
  00003	ff 25 00 00 00
	00		 jmp	 DWORD PTR __imp_??1ioHashString@@QAE@XZ
__unwindfunclet$?On3DCharInfoRender@ExPCRoomSoldierBonusWnd@@IAEXHH@Z$1:
  00009	8d 4d d8	 lea	 ecx, DWORD PTR _szHashTemp$[ebp]
  0000c	ff 25 00 00 00
	00		 jmp	 DWORD PTR __imp_??1ioHashString@@QAE@XZ
__unwindfunclet$?On3DCharInfoRender@ExPCRoomSoldierBonusWnd@@IAEXHH@Z$2:
  00012	8d 4d c8	 lea	 ecx, DWORD PTR $T536853[ebp]
  00015	ff 25 00 00 00
	00		 jmp	 DWORD PTR __imp_??1ioHashString@@QAE@XZ
__unwindfunclet$?On3DCharInfoRender@ExPCRoomSoldierBonusWnd@@IAEXHH@Z$3:
  0001b	8d 4d c8	 lea	 ecx, DWORD PTR $T536854[ebp]
  0001e	ff 25 00 00 00
	00		 jmp	 DWORD PTR __imp_??1ioHashString@@QAE@XZ
__unwindfunclet$?On3DCharInfoRender@ExPCRoomSoldierBonusWnd@@IAEXHH@Z$4:
  00024	8d 4d b8	 lea	 ecx, DWORD PTR $T536855[ebp]
  00027	ff 25 00 00 00
	00		 jmp	 DWORD PTR __imp_??1ioHashString@@QAE@XZ
__ehhandler$?On3DCharInfoRender@ExPCRoomSoldierBonusWnd@@IAEXHH@Z:
  0002d	8b 54 24 08	 mov	 edx, DWORD PTR [esp+8]
  00031	8d 42 0c	 lea	 eax, DWORD PTR [edx+12]
  00034	8b 4a b4	 mov	 ecx, DWORD PTR [edx-76]
  00037	33 c8		 xor	 ecx, eax
  00039	e8 00 00 00 00	 call	 @__security_check_cookie@4
  0003e	b8 00 00 00 00	 mov	 eax, OFFSET __ehfuncinfo$?On3DCharInfoRender@ExPCRoomSoldierBonusWnd@@IAEXHH@Z
  00043	e9 00 00 00 00	 jmp	 ___CxxFrameHandler3
text$x	ENDS
?On3DCharInfoRender@ExPCRoomSoldierBonusWnd@@IAEXHH@Z ENDP ; ExPCRoomSoldierBonusWnd::On3DCharInfoRender
PUBLIC	??_C@_0CG@CDFJMHML@ExPCRoomSoldierBonusWnd?3?3OnMentR@ ; `string'
PUBLIC	?OnMentRender@ExPCRoomSoldierBonusWnd@@IAEXHH@Z	; ExPCRoomSoldierBonusWnd::OnMentRender
EXTRN	??1ioComplexStringPrinter@@QAE@XZ:PROC		; ioComplexStringPrinter::~ioComplexStringPrinter
EXTRN	?AddTextPiece@ioComplexStringPrinter@@QAEXMPBDH@Z:PROC ; ioComplexStringPrinter::AddTextPiece
EXTRN	?ClearList@ioComplexStringPrinter@@QAEXXZ:PROC	; ioComplexStringPrinter::ClearList
EXTRN	?PrintFullText@ioComplexStringPrinter@@QAEXMMW4TextAlignType@@E@Z:PROC ; ioComplexStringPrinter::PrintFullText
EXTRN	?AddTextPiece@ioComplexStringPrinter@@QAAXMPBDZZ:PROC ; ioComplexStringPrinter::AddTextPiece
EXTRN	?SetTextColor@ioComplexStringPrinter@@QAEXK@Z:PROC ; ioComplexStringPrinter::SetTextColor
EXTRN	?SetBkColor@ioComplexStringPrinter@@QAEXHHH@Z:PROC ; ioComplexStringPrinter::SetBkColor
EXTRN	?SetTextStyle@ioComplexStringPrinter@@QAEXW4TextStyle@@@Z:PROC ; ioComplexStringPrinter::SetTextStyle
EXTRN	??0ioComplexStringPrinter@@QAE@XZ:PROC		; ioComplexStringPrinter::ioComplexStringPrinter
;	COMDAT ??_C@_0CG@CDFJMHML@ExPCRoomSoldierBonusWnd?3?3OnMentR@
; File d:\lost saga for developer\youtube\tutorial\source\src\lsclient\iomyinfo.h
CONST	SEGMENT
??_C@_0CG@CDFJMHML@ExPCRoomSoldierBonusWnd?3?3OnMentR@ DB 'ExPCRoomSoldie'
	DB	'rBonusWnd::OnMentRender', 00H		; `string'
CONST	ENDS
;	COMDAT xdata$x
xdata$x	SEGMENT
__unwindtable$?OnMentRender@ExPCRoomSoldierBonusWnd@@IAEXHH@Z DD 0ffffffffH
	DD	FLAT:__unwindfunclet$?OnMentRender@ExPCRoomSoldierBonusWnd@@IAEXHH@Z$0
__ehfuncinfo$?OnMentRender@ExPCRoomSoldierBonusWnd@@IAEXHH@Z DD 019930522H
	DD	01H
	DD	FLAT:__unwindtable$?OnMentRender@ExPCRoomSoldierBonusWnd@@IAEXHH@Z
	DD	2 DUP(00H)
	DD	2 DUP(00H)
	DD	00H
	DD	01H
; Function compile flags: /Ogsp
; File d:\lost saga for developer\youtube\tutorial\source\src\lsclient\gui\expcroomwnd.cpp
xdata$x	ENDS
;	COMDAT ?OnMentRender@ExPCRoomSoldierBonusWnd@@IAEXHH@Z
_TEXT	SEGMENT
_kPrinter$ = -48					; size = 32
_this$ = -16						; size = 4
__$EHRec$ = -12						; size = 12
tv323 = 8						; size = 4
_iXPos$ = 8						; size = 4
_iYPos$ = 12						; size = 4
?OnMentRender@ExPCRoomSoldierBonusWnd@@IAEXHH@Z PROC	; ExPCRoomSoldierBonusWnd::OnMentRender, COMDAT
; _this$ = ecx

; 905  : {

  00000	6a 24		 push	 36			; 00000024H
  00002	b8 00 00 00 00	 mov	 eax, __ehhandler$?OnMentRender@ExPCRoomSoldierBonusWnd@@IAEXHH@Z
  00007	e8 00 00 00 00	 call	 __EH_prolog3
  0000c	89 4d f0	 mov	 DWORD PTR _this$[ebp], ecx

; 906  : 	ioComplexStringPrinter kPrinter;

  0000f	8d 4d d0	 lea	 ecx, DWORD PTR _kPrinter$[ebp]
  00012	e8 00 00 00 00	 call	 ??0ioComplexStringPrinter@@QAE@XZ ; ioComplexStringPrinter::ioComplexStringPrinter
  00017	33 db		 xor	 ebx, ebx

; 907  : 	kPrinter.SetTextStyle( TS_NORMAL );

  00019	53		 push	 ebx
  0001a	8d 4d d0	 lea	 ecx, DWORD PTR _kPrinter$[ebp]
  0001d	89 5d fc	 mov	 DWORD PTR __$EHRec$[ebp+8], ebx
  00020	e8 00 00 00 00	 call	 ?SetTextStyle@ioComplexStringPrinter@@QAEXW4TextStyle@@@Z ; ioComplexStringPrinter::SetTextStyle

; 908  : 	kPrinter.SetBkColor( 0, 0, 0 );

  00025	53		 push	 ebx
  00026	53		 push	 ebx
  00027	53		 push	 ebx
  00028	8d 4d d0	 lea	 ecx, DWORD PTR _kPrinter$[ebp]
  0002b	e8 00 00 00 00	 call	 ?SetBkColor@ioComplexStringPrinter@@QAEXHHH@Z ; ioComplexStringPrinter::SetBkColor

; 909  : 	kPrinter.SetTextColor( TCT_DEFAULT_DARKGRAY );

  00030	68 3a 3a 3a ff	 push	 -12961222		; ff3a3a3aH
  00035	8d 4d d0	 lea	 ecx, DWORD PTR _kPrinter$[ebp]
  00038	e8 00 00 00 00	 call	 ?SetTextColor@ioComplexStringPrinter@@QAEXK@Z ; ioComplexStringPrinter::SetTextColor

; 910  : 	kPrinter.AddTextPiece( FONT_SIZE_12, STR(1) );

  0003d	8b 35 00 00 00
	00		 mov	 esi, DWORD PTR __imp_?GetSingleton@ioStringManager@@SAAAV1@XZ
  00043	53		 push	 ebx
  00044	6a 01		 push	 1
  00046	68 00 00 00 00	 push	 OFFSET ??_C@_00CNPNBAHC@?$AA@
  0004b	68 00 00 00 00	 push	 OFFSET ??_C@_0CG@CDFJMHML@ExPCRoomSoldierBonusWnd?3?3OnMentR@
  00050	ff d6		 call	 esi
  00052	8b 3d 00 00 00
	00		 mov	 edi, DWORD PTR __imp_?GetString@ioStringManager@@QAEPADPBD0HW4FileNamePrefix@1@@Z
  00058	8b c8		 mov	 ecx, eax
  0005a	ff d7		 call	 edi
  0005c	f3 0f 10 05 00
	00 00 00	 movss	 xmm0, DWORD PTR __real@3f19999a
  00064	50		 push	 eax
  00065	51		 push	 ecx
  00066	8d 45 d0	 lea	 eax, DWORD PTR _kPrinter$[ebp]
  00069	f3 0f 11 04 24	 movss	 DWORD PTR [esp], xmm0
  0006e	50		 push	 eax
  0006f	e8 00 00 00 00	 call	 ?AddTextPiece@ioComplexStringPrinter@@QAAXMPBDZZ ; ioComplexStringPrinter::AddTextPiece

; 911  : 	kPrinter.PrintFullText( iXPos + 502, iYPos + 53, TAT_CENTER );

  00074	8b 45 08	 mov	 eax, DWORD PTR _iXPos$[ebp]
  00077	83 c4 0c	 add	 esp, 12			; 0000000cH
  0007a	05 f6 01 00 00	 add	 eax, 502		; 000001f6H
  0007f	68 ff 00 00 00	 push	 255			; 000000ffH
  00084	0f 57 c0	 xorps	 xmm0, xmm0
  00087	f3 0f 2a c0	 cvtsi2ss xmm0, eax
  0008b	8b 45 0c	 mov	 eax, DWORD PTR _iYPos$[ebp]
  0008e	6a 01		 push	 1
  00090	51		 push	 ecx
  00091	51		 push	 ecx
  00092	83 c0 35	 add	 eax, 53			; 00000035H
  00095	0f 57 c9	 xorps	 xmm1, xmm1
  00098	f3 0f 2a c8	 cvtsi2ss xmm1, eax
  0009c	f3 0f 11 4c 24
	04		 movss	 DWORD PTR [esp+4], xmm1
  000a2	8d 4d d0	 lea	 ecx, DWORD PTR _kPrinter$[ebp]
  000a5	f3 0f 11 45 08	 movss	 DWORD PTR tv323[ebp], xmm0
  000aa	f3 0f 11 04 24	 movss	 DWORD PTR [esp], xmm0
  000af	e8 00 00 00 00	 call	 ?PrintFullText@ioComplexStringPrinter@@QAEXMMW4TextAlignType@@E@Z ; ioComplexStringPrinter::PrintFullText

; 912  : 	kPrinter.ClearList();

  000b4	8d 4d d0	 lea	 ecx, DWORD PTR _kPrinter$[ebp]
  000b7	e8 00 00 00 00	 call	 ?ClearList@ioComplexStringPrinter@@QAEXXZ ; ioComplexStringPrinter::ClearList

; 913  : 
; 914  : 	kPrinter.SetTextStyle( TS_NORMAL );

  000bc	53		 push	 ebx
  000bd	8d 4d d0	 lea	 ecx, DWORD PTR _kPrinter$[ebp]
  000c0	e8 00 00 00 00	 call	 ?SetTextStyle@ioComplexStringPrinter@@QAEXW4TextStyle@@@Z ; ioComplexStringPrinter::SetTextStyle

; 915  : 	kPrinter.SetBkColor( 0, 0, 0 );

  000c5	53		 push	 ebx
  000c6	53		 push	 ebx
  000c7	53		 push	 ebx
  000c8	8d 4d d0	 lea	 ecx, DWORD PTR _kPrinter$[ebp]
  000cb	e8 00 00 00 00	 call	 ?SetBkColor@ioComplexStringPrinter@@QAEXHHH@Z ; ioComplexStringPrinter::SetBkColor

; 916  : 	kPrinter.SetTextColor( TCT_DEFAULT_DARKGRAY );

  000d0	68 3a 3a 3a ff	 push	 -12961222		; ff3a3a3aH
  000d5	8d 4d d0	 lea	 ecx, DWORD PTR _kPrinter$[ebp]
  000d8	e8 00 00 00 00	 call	 ?SetTextColor@ioComplexStringPrinter@@QAEXK@Z ; ioComplexStringPrinter::SetTextColor

; 917  : 
; 918  : 	if( g_MyInfo.IsUserEvent() )

  000dd	e8 00 00 00 00	 call	 ?GetSingleton@ioMyInfo@@SAAAV1@XZ ; ioMyInfo::GetSingleton
  000e2	8a 80 39 08 00
	00		 mov	 al, BYTE PTR [eax+2105]
  000e8	3a c3		 cmp	 al, bl
  000ea	74 05		 je	 SHORT $LN3@OnMentRend

; 919  : 		kPrinter.AddTextPiece( FONT_SIZE_12, STR(8) );

  000ec	53		 push	 ebx
  000ed	6a 08		 push	 8
  000ef	eb 1d		 jmp	 SHORT $LN14@OnMentRend
$LN3@OnMentRend:

; 920  : 	else if( g_MyInfo.GetPCRoomAuthority() > 0 && !g_MyInfo.IsUserEvent() )

  000f1	e8 00 00 00 00	 call	 ?GetSingleton@ioMyInfo@@SAAAV1@XZ ; ioMyInfo::GetSingleton
  000f6	39 98 34 08 00
	00		 cmp	 DWORD PTR [eax+2100], ebx
  000fc	76 3b		 jbe	 SHORT $LN1@OnMentRend
  000fe	e8 00 00 00 00	 call	 ?GetSingleton@ioMyInfo@@SAAAV1@XZ ; ioMyInfo::GetSingleton
  00103	38 98 39 08 00
	00		 cmp	 BYTE PTR [eax+2105], bl
  00109	75 2e		 jne	 SHORT $LN1@OnMentRend

; 921  : 		kPrinter.AddTextPiece( FONT_SIZE_12, STR(2) );

  0010b	53		 push	 ebx
  0010c	6a 02		 push	 2
$LN14@OnMentRend:
  0010e	68 00 00 00 00	 push	 OFFSET ??_C@_00CNPNBAHC@?$AA@
  00113	68 00 00 00 00	 push	 OFFSET ??_C@_0CG@CDFJMHML@ExPCRoomSoldierBonusWnd?3?3OnMentR@
  00118	ff d6		 call	 esi
  0011a	8b c8		 mov	 ecx, eax
  0011c	ff d7		 call	 edi
  0011e	f3 0f 10 05 00
	00 00 00	 movss	 xmm0, DWORD PTR __real@3f19999a
  00126	50		 push	 eax
  00127	51		 push	 ecx
  00128	8d 45 d0	 lea	 eax, DWORD PTR _kPrinter$[ebp]
  0012b	f3 0f 11 04 24	 movss	 DWORD PTR [esp], xmm0
  00130	50		 push	 eax
  00131	e8 00 00 00 00	 call	 ?AddTextPiece@ioComplexStringPrinter@@QAAXMPBDZZ ; ioComplexStringPrinter::AddTextPiece
  00136	83 c4 0c	 add	 esp, 12			; 0000000cH
$LN1@OnMentRend:

; 922  : 
; 923  : 	kPrinter.SetTextColor( TCT_DEFAULT_RED );

  00139	68 00 16 b9 ff	 push	 -4647424		; ffb91600H
  0013e	8d 4d d0	 lea	 ecx, DWORD PTR _kPrinter$[ebp]
  00141	e8 00 00 00 00	 call	 ?SetTextColor@ioComplexStringPrinter@@QAEXK@Z ; ioComplexStringPrinter::SetTextColor

; 924  : 	kPrinter.AddTextPiece( FONT_SIZE_12, STR(3), 2 );

  00146	6a 02		 push	 2
  00148	53		 push	 ebx
  00149	6a 03		 push	 3
  0014b	68 00 00 00 00	 push	 OFFSET ??_C@_00CNPNBAHC@?$AA@
  00150	68 00 00 00 00	 push	 OFFSET ??_C@_0CG@CDFJMHML@ExPCRoomSoldierBonusWnd?3?3OnMentR@
  00155	ff d6		 call	 esi
  00157	8b c8		 mov	 ecx, eax
  00159	ff d7		 call	 edi
  0015b	f3 0f 10 05 00
	00 00 00	 movss	 xmm0, DWORD PTR __real@3f19999a
  00163	50		 push	 eax
  00164	51		 push	 ecx
  00165	8d 4d d0	 lea	 ecx, DWORD PTR _kPrinter$[ebp]
  00168	f3 0f 11 04 24	 movss	 DWORD PTR [esp], xmm0
  0016d	e8 00 00 00 00	 call	 ?AddTextPiece@ioComplexStringPrinter@@QAEXMPBDH@Z ; ioComplexStringPrinter::AddTextPiece

; 925  : 
; 926  : 	kPrinter.SetTextColor( TCT_DEFAULT_DARKGRAY );

  00172	68 3a 3a 3a ff	 push	 -12961222		; ff3a3a3aH
  00177	8d 4d d0	 lea	 ecx, DWORD PTR _kPrinter$[ebp]
  0017a	e8 00 00 00 00	 call	 ?SetTextColor@ioComplexStringPrinter@@QAEXK@Z ; ioComplexStringPrinter::SetTextColor

; 927  : 	kPrinter.AddTextPiece( FONT_SIZE_12, STR(4) );

  0017f	53		 push	 ebx
  00180	6a 04		 push	 4
  00182	68 00 00 00 00	 push	 OFFSET ??_C@_00CNPNBAHC@?$AA@
  00187	68 00 00 00 00	 push	 OFFSET ??_C@_0CG@CDFJMHML@ExPCRoomSoldierBonusWnd?3?3OnMentR@
  0018c	ff d6		 call	 esi
  0018e	8b c8		 mov	 ecx, eax
  00190	ff d7		 call	 edi
  00192	f3 0f 10 05 00
	00 00 00	 movss	 xmm0, DWORD PTR __real@3f19999a
  0019a	50		 push	 eax
  0019b	51		 push	 ecx
  0019c	8d 45 d0	 lea	 eax, DWORD PTR _kPrinter$[ebp]
  0019f	f3 0f 11 04 24	 movss	 DWORD PTR [esp], xmm0
  001a4	50		 push	 eax
  001a5	e8 00 00 00 00	 call	 ?AddTextPiece@ioComplexStringPrinter@@QAAXMPBDZZ ; ioComplexStringPrinter::AddTextPiece

; 928  : 	kPrinter.PrintFullText( iXPos + 502, iYPos + 71, TAT_CENTER );

  001aa	8b 45 0c	 mov	 eax, DWORD PTR _iYPos$[ebp]
  001ad	83 c4 0c	 add	 esp, 12			; 0000000cH
  001b0	68 ff 00 00 00	 push	 255			; 000000ffH
  001b5	6a 01		 push	 1
  001b7	51		 push	 ecx
  001b8	51		 push	 ecx
  001b9	83 c0 47	 add	 eax, 71			; 00000047H
  001bc	0f 57 c0	 xorps	 xmm0, xmm0
  001bf	f3 0f 2a c0	 cvtsi2ss xmm0, eax
  001c3	f3 0f 11 44 24
	04		 movss	 DWORD PTR [esp+4], xmm0
  001c9	f3 0f 10 45 08	 movss	 xmm0, DWORD PTR tv323[ebp]
  001ce	8d 4d d0	 lea	 ecx, DWORD PTR _kPrinter$[ebp]
  001d1	f3 0f 11 04 24	 movss	 DWORD PTR [esp], xmm0
  001d6	e8 00 00 00 00	 call	 ?PrintFullText@ioComplexStringPrinter@@QAEXMMW4TextAlignType@@E@Z ; ioComplexStringPrinter::PrintFullText

; 929  : 	kPrinter.ClearList();

  001db	8d 4d d0	 lea	 ecx, DWORD PTR _kPrinter$[ebp]
  001de	e8 00 00 00 00	 call	 ?ClearList@ioComplexStringPrinter@@QAEXXZ ; ioComplexStringPrinter::ClearList

; 930  : 
; 931  : 	kPrinter.SetTextStyle( TS_NORMAL );

  001e3	53		 push	 ebx
  001e4	8d 4d d0	 lea	 ecx, DWORD PTR _kPrinter$[ebp]
  001e7	e8 00 00 00 00	 call	 ?SetTextStyle@ioComplexStringPrinter@@QAEXW4TextStyle@@@Z ; ioComplexStringPrinter::SetTextStyle

; 932  : 	kPrinter.SetBkColor( 0, 0, 0 );

  001ec	53		 push	 ebx
  001ed	53		 push	 ebx
  001ee	53		 push	 ebx
  001ef	8d 4d d0	 lea	 ecx, DWORD PTR _kPrinter$[ebp]
  001f2	e8 00 00 00 00	 call	 ?SetBkColor@ioComplexStringPrinter@@QAEXHHH@Z ; ioComplexStringPrinter::SetBkColor

; 933  : 	kPrinter.SetTextColor( TCT_DEFAULT_DARKGRAY );

  001f7	68 3a 3a 3a ff	 push	 -12961222		; ff3a3a3aH
  001fc	8d 4d d0	 lea	 ecx, DWORD PTR _kPrinter$[ebp]
  001ff	e8 00 00 00 00	 call	 ?SetTextColor@ioComplexStringPrinter@@QAEXK@Z ; ioComplexStringPrinter::SetTextColor

; 934  : 	kPrinter.AddTextPiece( FONT_SIZE_12, STR(5) );

  00204	53		 push	 ebx
  00205	6a 05		 push	 5
  00207	68 00 00 00 00	 push	 OFFSET ??_C@_00CNPNBAHC@?$AA@
  0020c	68 00 00 00 00	 push	 OFFSET ??_C@_0CG@CDFJMHML@ExPCRoomSoldierBonusWnd?3?3OnMentR@
  00211	ff d6		 call	 esi
  00213	8b c8		 mov	 ecx, eax
  00215	ff d7		 call	 edi
  00217	f3 0f 10 05 00
	00 00 00	 movss	 xmm0, DWORD PTR __real@3f19999a
  0021f	50		 push	 eax
  00220	51		 push	 ecx
  00221	8d 45 d0	 lea	 eax, DWORD PTR _kPrinter$[ebp]
  00224	f3 0f 11 04 24	 movss	 DWORD PTR [esp], xmm0
  00229	50		 push	 eax
  0022a	e8 00 00 00 00	 call	 ?AddTextPiece@ioComplexStringPrinter@@QAAXMPBDZZ ; ioComplexStringPrinter::AddTextPiece

; 935  : 	kPrinter.PrintFullText( iXPos + 502, iYPos + 89, TAT_CENTER );

  0022f	8b 45 0c	 mov	 eax, DWORD PTR _iYPos$[ebp]
  00232	83 c4 0c	 add	 esp, 12			; 0000000cH
  00235	68 ff 00 00 00	 push	 255			; 000000ffH
  0023a	6a 01		 push	 1
  0023c	83 c0 59	 add	 eax, 89			; 00000059H
  0023f	0f 57 c0	 xorps	 xmm0, xmm0
  00242	51		 push	 ecx
  00243	51		 push	 ecx
  00244	f3 0f 2a c0	 cvtsi2ss xmm0, eax
  00248	f3 0f 11 44 24
	04		 movss	 DWORD PTR [esp+4], xmm0
  0024e	f3 0f 10 45 08	 movss	 xmm0, DWORD PTR tv323[ebp]
  00253	8d 4d d0	 lea	 ecx, DWORD PTR _kPrinter$[ebp]
  00256	f3 0f 11 04 24	 movss	 DWORD PTR [esp], xmm0
  0025b	e8 00 00 00 00	 call	 ?PrintFullText@ioComplexStringPrinter@@QAEXMMW4TextAlignType@@E@Z ; ioComplexStringPrinter::PrintFullText

; 936  : 	kPrinter.ClearList();

  00260	8d 4d d0	 lea	 ecx, DWORD PTR _kPrinter$[ebp]
  00263	e8 00 00 00 00	 call	 ?ClearList@ioComplexStringPrinter@@QAEXXZ ; ioComplexStringPrinter::ClearList

; 937  : 
; 938  : 	kPrinter.SetTextStyle( TS_NORMAL );

  00268	53		 push	 ebx
  00269	8d 4d d0	 lea	 ecx, DWORD PTR _kPrinter$[ebp]
  0026c	e8 00 00 00 00	 call	 ?SetTextStyle@ioComplexStringPrinter@@QAEXW4TextStyle@@@Z ; ioComplexStringPrinter::SetTextStyle

; 939  : 	kPrinter.SetBkColor( 0, 0, 0 );

  00271	53		 push	 ebx
  00272	53		 push	 ebx
  00273	53		 push	 ebx
  00274	8d 4d d0	 lea	 ecx, DWORD PTR _kPrinter$[ebp]
  00277	e8 00 00 00 00	 call	 ?SetBkColor@ioComplexStringPrinter@@QAEXHHH@Z ; ioComplexStringPrinter::SetBkColor

; 940  : 	kPrinter.SetTextColor( TCT_DEFAULT_DARKGRAY );

  0027c	68 3a 3a 3a ff	 push	 -12961222		; ff3a3a3aH
  00281	8d 4d d0	 lea	 ecx, DWORD PTR _kPrinter$[ebp]
  00284	e8 00 00 00 00	 call	 ?SetTextColor@ioComplexStringPrinter@@QAEXK@Z ; ioComplexStringPrinter::SetTextColor

; 941  : 	kPrinter.AddTextPiece( FONT_SIZE_12, STR(6), m_iCurPage + 1 );

  00289	8b 45 f0	 mov	 eax, DWORD PTR _this$[ebp]
  0028c	8b 80 a0 01 00
	00		 mov	 eax, DWORD PTR [eax+416]
  00292	40		 inc	 eax
  00293	50		 push	 eax
  00294	53		 push	 ebx
  00295	6a 06		 push	 6
  00297	68 00 00 00 00	 push	 OFFSET ??_C@_00CNPNBAHC@?$AA@
  0029c	68 00 00 00 00	 push	 OFFSET ??_C@_0CG@CDFJMHML@ExPCRoomSoldierBonusWnd?3?3OnMentR@
  002a1	ff d6		 call	 esi
  002a3	8b c8		 mov	 ecx, eax
  002a5	ff d7		 call	 edi
  002a7	f3 0f 10 05 00
	00 00 00	 movss	 xmm0, DWORD PTR __real@3f19999a
  002af	50		 push	 eax
  002b0	51		 push	 ecx
  002b1	8d 4d d0	 lea	 ecx, DWORD PTR _kPrinter$[ebp]
  002b4	f3 0f 11 04 24	 movss	 DWORD PTR [esp], xmm0
  002b9	e8 00 00 00 00	 call	 ?AddTextPiece@ioComplexStringPrinter@@QAEXMPBDH@Z ; ioComplexStringPrinter::AddTextPiece

; 942  : 
; 943  : 	kPrinter.SetTextStyle( TS_NORMAL );

  002be	53		 push	 ebx
  002bf	8d 4d d0	 lea	 ecx, DWORD PTR _kPrinter$[ebp]
  002c2	e8 00 00 00 00	 call	 ?SetTextStyle@ioComplexStringPrinter@@QAEXW4TextStyle@@@Z ; ioComplexStringPrinter::SetTextStyle

; 944  : 	kPrinter.SetBkColor( 0, 0, 0 );

  002c7	53		 push	 ebx
  002c8	53		 push	 ebx
  002c9	53		 push	 ebx
  002ca	8d 4d d0	 lea	 ecx, DWORD PTR _kPrinter$[ebp]
  002cd	e8 00 00 00 00	 call	 ?SetBkColor@ioComplexStringPrinter@@QAEXHHH@Z ; ioComplexStringPrinter::SetBkColor

; 945  : 	kPrinter.SetTextColor( TCT_DEFAULT_GRAY );

  002d2	68 6e 6e 6e ff	 push	 -9539986		; ff6e6e6eH
  002d7	8d 4d d0	 lea	 ecx, DWORD PTR _kPrinter$[ebp]
  002da	e8 00 00 00 00	 call	 ?SetTextColor@ioComplexStringPrinter@@QAEXK@Z ; ioComplexStringPrinter::SetTextColor

; 946  : 	kPrinter.AddTextPiece( FONT_SIZE_12, STR(7), m_iMaxPage + 1 );

  002df	8b 45 f0	 mov	 eax, DWORD PTR _this$[ebp]
  002e2	8b 80 a4 01 00
	00		 mov	 eax, DWORD PTR [eax+420]
  002e8	40		 inc	 eax
  002e9	50		 push	 eax
  002ea	53		 push	 ebx
  002eb	6a 07		 push	 7
  002ed	68 00 00 00 00	 push	 OFFSET ??_C@_00CNPNBAHC@?$AA@
  002f2	68 00 00 00 00	 push	 OFFSET ??_C@_0CG@CDFJMHML@ExPCRoomSoldierBonusWnd?3?3OnMentR@
  002f7	ff d6		 call	 esi
  002f9	8b c8		 mov	 ecx, eax
  002fb	ff d7		 call	 edi
  002fd	f3 0f 10 05 00
	00 00 00	 movss	 xmm0, DWORD PTR __real@3f19999a
  00305	50		 push	 eax
  00306	51		 push	 ecx
  00307	8d 4d d0	 lea	 ecx, DWORD PTR _kPrinter$[ebp]
  0030a	f3 0f 11 04 24	 movss	 DWORD PTR [esp], xmm0
  0030f	e8 00 00 00 00	 call	 ?AddTextPiece@ioComplexStringPrinter@@QAEXMPBDH@Z ; ioComplexStringPrinter::AddTextPiece

; 947  : 	kPrinter.PrintFullText( iXPos + 502, iYPos + 314, TAT_CENTER );

  00314	8b 45 0c	 mov	 eax, DWORD PTR _iYPos$[ebp]
  00317	68 ff 00 00 00	 push	 255			; 000000ffH
  0031c	6a 01		 push	 1
  0031e	51		 push	 ecx
  0031f	51		 push	 ecx
  00320	05 3a 01 00 00	 add	 eax, 314		; 0000013aH
  00325	0f 57 c0	 xorps	 xmm0, xmm0
  00328	f3 0f 2a c0	 cvtsi2ss xmm0, eax
  0032c	f3 0f 11 44 24
	04		 movss	 DWORD PTR [esp+4], xmm0
  00332	f3 0f 10 45 08	 movss	 xmm0, DWORD PTR tv323[ebp]
  00337	8d 4d d0	 lea	 ecx, DWORD PTR _kPrinter$[ebp]
  0033a	f3 0f 11 04 24	 movss	 DWORD PTR [esp], xmm0
  0033f	e8 00 00 00 00	 call	 ?PrintFullText@ioComplexStringPrinter@@QAEXMMW4TextAlignType@@E@Z ; ioComplexStringPrinter::PrintFullText

; 948  : }

  00344	83 4d fc ff	 or	 DWORD PTR __$EHRec$[ebp+8], -1
  00348	8d 4d d0	 lea	 ecx, DWORD PTR _kPrinter$[ebp]
  0034b	e8 00 00 00 00	 call	 ??1ioComplexStringPrinter@@QAE@XZ ; ioComplexStringPrinter::~ioComplexStringPrinter
  00350	e8 00 00 00 00	 call	 __EH_epilog3
  00355	c2 08 00	 ret	 8
_TEXT	ENDS
;	COMDAT text$x
text$x	SEGMENT
__unwindfunclet$?OnMentRender@ExPCRoomSoldierBonusWnd@@IAEXHH@Z$0:
  00000	8d 4d d0	 lea	 ecx, DWORD PTR _kPrinter$[ebp]
  00003	e9 00 00 00 00	 jmp	 ??1ioComplexStringPrinter@@QAE@XZ ; ioComplexStringPrinter::~ioComplexStringPrinter
__ehhandler$?OnMentRender@ExPCRoomSoldierBonusWnd@@IAEXHH@Z:
  00008	8b 54 24 08	 mov	 edx, DWORD PTR [esp+8]
  0000c	8d 42 0c	 lea	 eax, DWORD PTR [edx+12]
  0000f	8b 4a cc	 mov	 ecx, DWORD PTR [edx-52]
  00012	33 c8		 xor	 ecx, eax
  00014	e8 00 00 00 00	 call	 @__security_check_cookie@4
  00019	b8 00 00 00 00	 mov	 eax, OFFSET __ehfuncinfo$?OnMentRender@ExPCRoomSoldierBonusWnd@@IAEXHH@Z
  0001e	e9 00 00 00 00	 jmp	 ___CxxFrameHandler3
text$x	ENDS
?OnMentRender@ExPCRoomSoldierBonusWnd@@IAEXHH@Z ENDP	; ExPCRoomSoldierBonusWnd::OnMentRender
PUBLIC	?SetCharAnimation@SelectCharViewWnd@@IAEX_N@Z	; SelectCharViewWnd::SetCharAnimation
EXTRN	?GetModelAnimation@ioUI3DRender@@QBE?AVioHashString@@H_N@Z:PROC ; ioUI3DRender::GetModelAnimation
;	COMDAT xdata$x
; File d:\lost saga for developer\youtube\tutorial\source\src\lsclient\iocreatechar.h
xdata$x	SEGMENT
__unwindtable$?SetCharAnimation@SelectCharViewWnd@@IAEX_N@Z DD 0ffffffffH
	DD	FLAT:__unwindfunclet$?SetCharAnimation@SelectCharViewWnd@@IAEX_N@Z$0
__ehfuncinfo$?SetCharAnimation@SelectCharViewWnd@@IAEX_N@Z DD 019930522H
	DD	01H
	DD	FLAT:__unwindtable$?SetCharAnimation@SelectCharViewWnd@@IAEX_N@Z
	DD	2 DUP(00H)
	DD	2 DUP(00H)
	DD	00H
	DD	01H
; Function compile flags: /Ogsp
; File d:\lost saga for developer\youtube\tutorial\source\src\lsclient\gui\expcroomwnd.cpp
xdata$x	ENDS
;	COMDAT ?SetCharAnimation@SelectCharViewWnd@@IAEX_N@Z
_TEXT	SEGMENT
_szUIAnimation$ = -32					; size = 16
$T536906 = -16						; size = 1
__$EHRec$ = -12						; size = 12
_bShopMotion$ = 8					; size = 1
?SetCharAnimation@SelectCharViewWnd@@IAEX_N@Z PROC	; SelectCharViewWnd::SetCharAnimation, COMDAT
; _this$ = ecx

; 1035 : {

  00000	6a 14		 push	 20			; 00000014H
  00002	b8 00 00 00 00	 mov	 eax, __ehhandler$?SetCharAnimation@SelectCharViewWnd@@IAEX_N@Z
  00007	e8 00 00 00 00	 call	 __EH_prolog3
  0000c	8b f1		 mov	 esi, ecx

; 1036 : 	if( !m_aMyChar )

  0000e	8b 86 64 01 00
	00		 mov	 eax, DWORD PTR [esi+356]
  00014	85 c0		 test	 eax, eax
  00016	74 50		 je	 SHORT $LN3@SetCharAni

; 1037 : 		return;
; 1038 : 
; 1039 : 	ioHashString szUIAnimation = m_pUI3DRender->GetModelAnimation( 0, m_aMyChar->IsMale() );

  00018	8a 40 1c	 mov	 al, BYTE PTR [eax+28]
  0001b	8b 8e 60 01 00
	00		 mov	 ecx, DWORD PTR [esi+352]
  00021	88 45 f0	 mov	 BYTE PTR $T536906[ebp], al
  00024	ff 75 f0	 push	 DWORD PTR $T536906[ebp]
  00027	8d 45 e0	 lea	 eax, DWORD PTR _szUIAnimation$[ebp]
  0002a	6a 00		 push	 0
  0002c	50		 push	 eax
  0002d	e8 00 00 00 00	 call	 ?GetModelAnimation@ioUI3DRender@@QBE?AVioHashString@@H_N@Z ; ioUI3DRender::GetModelAnimation
  00032	83 65 fc 00	 and	 DWORD PTR __$EHRec$[ebp+8], 0

; 1040 : 	if( !szUIAnimation.IsEmpty() )

  00036	8d 4d e0	 lea	 ecx, DWORD PTR _szUIAnimation$[ebp]
  00039	ff 15 00 00 00
	00		 call	 DWORD PTR __imp_?IsEmpty@ioHashString@@QBE_NXZ
  0003f	84 c0		 test	 al, al
  00041	75 18		 jne	 SHORT $LN1@SetCharAni

; 1041 : 	{
; 1042 : 		m_aMyChar->SetLoopAni( szUIAnimation );

  00043	0f 57 c0	 xorps	 xmm0, xmm0
  00046	51		 push	 ecx
  00047	8b 8e 64 01 00
	00		 mov	 ecx, DWORD PTR [esi+356]
  0004d	8d 45 e0	 lea	 eax, DWORD PTR _szUIAnimation$[ebp]
  00050	f3 0f 11 04 24	 movss	 DWORD PTR [esp], xmm0
  00055	50		 push	 eax
  00056	e8 00 00 00 00	 call	 ?SetLoopAni@ioCreateChar@@QAEXABVioHashString@@M@Z ; ioCreateChar::SetLoopAni
$LN1@SetCharAni:

; 1043 : 	}
; 1044 : }

  0005b	83 4d fc ff	 or	 DWORD PTR __$EHRec$[ebp+8], -1
  0005f	8d 4d e0	 lea	 ecx, DWORD PTR _szUIAnimation$[ebp]
  00062	ff 15 00 00 00
	00		 call	 DWORD PTR __imp_??1ioHashString@@QAE@XZ
$LN3@SetCharAni:
  00068	e8 00 00 00 00	 call	 __EH_epilog3
  0006d	c2 04 00	 ret	 4
_TEXT	ENDS
;	COMDAT text$x
text$x	SEGMENT
__unwindfunclet$?SetCharAnimation@SelectCharViewWnd@@IAEX_N@Z$0:
  00000	8d 4d e0	 lea	 ecx, DWORD PTR _szUIAnimation$[ebp]
  00003	ff 25 00 00 00
	00		 jmp	 DWORD PTR __imp_??1ioHashString@@QAE@XZ
__ehhandler$?SetCharAnimation@SelectCharViewWnd@@IAEX_N@Z:
  00009	8b 54 24 08	 mov	 edx, DWORD PTR [esp+8]
  0000d	8d 42 0c	 lea	 eax, DWORD PTR [edx+12]
  00010	8b 4a dc	 mov	 ecx, DWORD PTR [edx-36]
  00013	33 c8		 xor	 ecx, eax
  00015	e8 00 00 00 00	 call	 @__security_check_cookie@4
  0001a	b8 00 00 00 00	 mov	 eax, OFFSET __ehfuncinfo$?SetCharAnimation@SelectCharViewWnd@@IAEX_N@Z
  0001f	e9 00 00 00 00	 jmp	 ___CxxFrameHandler3
text$x	ENDS
?SetCharAnimation@SelectCharViewWnd@@IAEX_N@Z ENDP	; SelectCharViewWnd::SetCharAnimation
PUBLIC	??_R0?AVioEtcItem@@@8				; ioEtcItem `RTTI Type Descriptor'
PUBLIC	??_R0?AVioEtcItemMotion@@@8			; ioEtcItemMotion `RTTI Type Descriptor'
PUBLIC	?SetCharAnimation@SelectCharViewWnd@@IAEXK_N@Z	; SelectCharViewWnd::SetCharAnimation
EXTRN	?FindEtcItem@ioEtcItemManager@@QAEPAVioEtcItem@@K@Z:PROC ; ioEtcItemManager::FindEtcItem
;	COMDAT ??_R0?AVioEtcItem@@@8
; File d:\lost saga for developer\youtube\tutorial\source\src\lsclient\ioetcitem.h
_DATA	SEGMENT
??_R0?AVioEtcItem@@@8 DD FLAT:??_7type_info@@6B@	; ioEtcItem `RTTI Type Descriptor'
	DD	00H
	DB	'.?AVioEtcItem@@', 00H
_DATA	ENDS
;	COMDAT ??_R0?AVioEtcItemMotion@@@8
_DATA	SEGMENT
??_R0?AVioEtcItemMotion@@@8 DD FLAT:??_7type_info@@6B@	; ioEtcItemMotion `RTTI Type Descriptor'
	DD	00H
	DB	'.?AVioEtcItemMotion@@', 00H
; Function compile flags: /Ogsp
; File d:\lost saga for developer\youtube\tutorial\source\src\lsclient\gui\expcroomwnd.cpp
_DATA	ENDS
;	COMDAT ?SetCharAnimation@SelectCharViewWnd@@IAEXK_N@Z
_TEXT	SEGMENT
_dwEtcItem$ = 8						; size = 4
_bMale$ = 12						; size = 1
?SetCharAnimation@SelectCharViewWnd@@IAEXK_N@Z PROC	; SelectCharViewWnd::SetCharAnimation, COMDAT
; _this$ = ecx

; 1047 : {

  00000	55		 push	 ebp
  00001	8b ec		 mov	 ebp, esp
  00003	56		 push	 esi
  00004	8b f1		 mov	 esi, ecx

; 1048 : 	if( !m_aMyChar ) 

  00006	83 be 64 01 00
	00 00		 cmp	 DWORD PTR [esi+356], 0
  0000d	74 64		 je	 SHORT $LN4@SetCharAni@2

; 1049 : 		return;
; 1050 : 
; 1051 : 	if( !COMPARE( dwEtcItem, ioEtcItem::EIT_ETC_MOTION1, ioEtcItem::EIT_ETC_MOTION100 + 1 ) && !COMPARE( dwEtcItem, ioEtcItem::EIT_ETC_MOTION101, ioEtcItem::EIT_ETC_MOTION400 + 1 ) ) 

  0000f	8b 45 08	 mov	 eax, DWORD PTR _dwEtcItem$[ebp]
  00012	3d 66 09 3d 00	 cmp	 eax, 4000102		; 003d0966H
  00017	72 07		 jb	 SHORT $LN5@SetCharAni@2
  00019	3d ca 09 3d 00	 cmp	 eax, 4000202		; 003d09caH
  0001e	72 0e		 jb	 SHORT $LN6@SetCharAni@2
$LN5@SetCharAni@2:
  00020	8d 88 c2 f2 c2
	ff		 lea	 ecx, DWORD PTR [eax-4001086]
  00026	81 f9 2b 01 00
	00		 cmp	 ecx, 299		; 0000012bH
  0002c	77 45		 ja	 SHORT $LN4@SetCharAni@2
$LN6@SetCharAni@2:

; 1052 : 		return;
; 1053 : 
; 1054 : 	ioEtcItemMotion *pEtcItemMotion = dynamic_cast< ioEtcItemMotion * >( g_EtcItemMgr.FindEtcItem( dwEtcItem ) );

  0002e	8b 0d 00 00 00
	00		 mov	 ecx, DWORD PTR ?ms_Singleton@?$Singleton@VioEtcItemManager@@@@1PAVioEtcItemManager@@A ; Singleton<ioEtcItemManager>::ms_Singleton
  00034	6a 00		 push	 0
  00036	68 00 00 00 00	 push	 OFFSET ??_R0?AVioEtcItemMotion@@@8
  0003b	68 00 00 00 00	 push	 OFFSET ??_R0?AVioEtcItem@@@8
  00040	6a 00		 push	 0
  00042	50		 push	 eax
  00043	e8 00 00 00 00	 call	 ?FindEtcItem@ioEtcItemManager@@QAEPAVioEtcItem@@K@Z ; ioEtcItemManager::FindEtcItem
  00048	50		 push	 eax
  00049	e8 00 00 00 00	 call	 ___RTDynamicCast
  0004e	83 c4 14	 add	 esp, 20			; 00000014H

; 1055 : 	if( pEtcItemMotion )

  00051	85 c0		 test	 eax, eax
  00053	74 1e		 je	 SHORT $LN4@SetCharAni@2

; 1056 : 	{
; 1057 : 		if( bMale )

  00055	80 7d 0c 00	 cmp	 BYTE PTR _bMale$[ebp], 0

; 1058 : 		{
; 1059 : 			m_aMyChar->SetMotionItemAni( pEtcItemMotion->GetHumanManMotion() );

  00059	8b 8e 64 01 00
	00		 mov	 ecx, DWORD PTR [esi+356]
  0005f	74 07		 je	 SHORT $LN2@SetCharAni@2
  00061	05 88 01 00 00	 add	 eax, 392		; 00000188H

; 1060 : 		}
; 1061 : 		else

  00066	eb 05		 jmp	 SHORT $LN16@SetCharAni@2
$LN2@SetCharAni@2:

; 1062 : 		{
; 1063 : 			m_aMyChar->SetMotionItemAni( pEtcItemMotion->GetHumanWomanMotion() );

  00068	05 98 01 00 00	 add	 eax, 408		; 00000198H
$LN16@SetCharAni@2:
  0006d	50		 push	 eax
  0006e	e8 00 00 00 00	 call	 ?SetMotionItemAni@ioCreateChar@@QAEXABVioHashString@@@Z ; ioCreateChar::SetMotionItemAni
$LN4@SetCharAni@2:
  00073	5e		 pop	 esi

; 1064 : 		}
; 1065 : 	}
; 1066 : }

  00074	5d		 pop	 ebp
  00075	c2 08 00	 ret	 8
?SetCharAnimation@SelectCharViewWnd@@IAEXK_N@Z ENDP	; SelectCharViewWnd::SetCharAnimation
_TEXT	ENDS
PUBLIC	??_R0?AVioEtcItemSkeleton@@@8			; ioEtcItemSkeleton `RTTI Type Descriptor'
PUBLIC	?SetChangeSkeleton@SelectCharViewWnd@@QAEXK_N@Z	; SelectCharViewWnd::SetChangeSkeleton
EXTRN	?ChangeSkeleton@ioCreateChar@@QAEXABVioHashString@@@Z:PROC ; ioCreateChar::ChangeSkeleton
;	COMDAT ??_R0?AVioEtcItemSkeleton@@@8
; File d:\lost saga for developer\youtube\tutorial\source\src\io3dengine\iosingleton.h
_DATA	SEGMENT
??_R0?AVioEtcItemSkeleton@@@8 DD FLAT:??_7type_info@@6B@ ; ioEtcItemSkeleton `RTTI Type Descriptor'
	DD	00H
	DB	'.?AVioEtcItemSkeleton@@', 00H
_DATA	ENDS
;	COMDAT xdata$x
xdata$x	SEGMENT
__unwindtable$?SetChangeSkeleton@SelectCharViewWnd@@QAEXK_N@Z DD 0ffffffffH
	DD	FLAT:__unwindfunclet$?SetChangeSkeleton@SelectCharViewWnd@@QAEXK_N@Z$0
__ehfuncinfo$?SetChangeSkeleton@SelectCharViewWnd@@QAEXK_N@Z DD 019930522H
	DD	01H
	DD	FLAT:__unwindtable$?SetChangeSkeleton@SelectCharViewWnd@@QAEXK_N@Z
	DD	2 DUP(00H)
	DD	2 DUP(00H)
	DD	00H
	DD	01H
; Function compile flags: /Ogsp
; File d:\lost saga for developer\youtube\tutorial\source\src\lsclient\gui\expcroomwnd.cpp
xdata$x	ENDS
;	COMDAT ?SetChangeSkeleton@SelectCharViewWnd@@QAEXK_N@Z
_TEXT	SEGMENT
_kEtcItemSkeleton$ = -28				; size = 16
__$EHRec$ = -12						; size = 12
_dwEtcItem$ = 8						; size = 4
_bMale$ = 12						; size = 1
?SetChangeSkeleton@SelectCharViewWnd@@QAEXK_N@Z PROC	; SelectCharViewWnd::SetChangeSkeleton, COMDAT
; _this$ = ecx

; 1102 : {

  00000	6a 10		 push	 16			; 00000010H
  00002	b8 00 00 00 00	 mov	 eax, __ehhandler$?SetChangeSkeleton@SelectCharViewWnd@@QAEXK_N@Z
  00007	e8 00 00 00 00	 call	 __EH_prolog3
  0000c	8b f9		 mov	 edi, ecx

; 1103 : 	if( !m_aMyChar ) return;

  0000e	33 db		 xor	 ebx, ebx
  00010	39 9f 64 01 00
	00		 cmp	 DWORD PTR [edi+356], ebx
  00016	0f 84 87 00 00
	00		 je	 $LN6@SetChangeS

; 1104 : 	if( !COMPARE( dwEtcItem, ioEtcItem::EIT_ETC_SKELETON_BIG, ioEtcItem::EIT_ETC_SKELETON_SMALL + 1 ) )

  0001c	8b 75 08	 mov	 esi, DWORD PTR _dwEtcItem$[ebp]
  0001f	8d 86 23 7b e1
	ff		 lea	 eax, DWORD PTR [esi-2000093]
  00025	83 f8 02	 cmp	 eax, 2
  00028	77 79		 ja	 SHORT $LN6@SetChangeS

; 1105 : 		return;
; 1106 : 
; 1107 : 	ioHashString kEtcItemSkeleton;

  0002a	8d 4d e4	 lea	 ecx, DWORD PTR _kEtcItemSkeleton$[ebp]
  0002d	ff 15 00 00 00
	00		 call	 DWORD PTR __imp_??0ioHashString@@QAE@XZ
  00033	89 5d fc	 mov	 DWORD PTR __$EHRec$[ebp+8], ebx

; 1108 : 	if( dwEtcItem > 0 )

  00036	3b f3		 cmp	 esi, ebx
  00038	76 40		 jbe	 SHORT $LN2@SetChangeS

; 1109 : 	{
; 1110 : 		ioEtcItemSkeleton *pEtcItemSkeleton = dynamic_cast< ioEtcItemSkeleton * >( g_EtcItemMgr.FindEtcItem( dwEtcItem ) );

  0003a	8b 0d 00 00 00
	00		 mov	 ecx, DWORD PTR ?ms_Singleton@?$Singleton@VioEtcItemManager@@@@1PAVioEtcItemManager@@A ; Singleton<ioEtcItemManager>::ms_Singleton
  00040	53		 push	 ebx
  00041	68 00 00 00 00	 push	 OFFSET ??_R0?AVioEtcItemSkeleton@@@8
  00046	68 00 00 00 00	 push	 OFFSET ??_R0?AVioEtcItem@@@8
  0004b	53		 push	 ebx
  0004c	56		 push	 esi
  0004d	e8 00 00 00 00	 call	 ?FindEtcItem@ioEtcItemManager@@QAEPAVioEtcItem@@K@Z ; ioEtcItemManager::FindEtcItem
  00052	50		 push	 eax
  00053	e8 00 00 00 00	 call	 ___RTDynamicCast
  00058	8b c8		 mov	 ecx, eax
  0005a	83 c4 14	 add	 esp, 20			; 00000014H

; 1111 : 		if( pEtcItemSkeleton )

  0005d	3b cb		 cmp	 ecx, ebx
  0005f	74 19		 je	 SHORT $LN2@SetChangeS

; 1112 : 		{
; 1113 : 			if( bMale )
; 1114 : 				kEtcItemSkeleton = pEtcItemSkeleton->GetHumanManSkl();

  00061	8b 01		 mov	 eax, DWORD PTR [ecx]
  00063	38 5d 0c	 cmp	 BYTE PTR _bMale$[ebp], bl
  00066	74 05		 je	 SHORT $LN3@SetChangeS
  00068	ff 50 44	 call	 DWORD PTR [eax+68]

; 1115 : 			else

  0006b	eb 03		 jmp	 SHORT $LN15@SetChangeS
$LN3@SetChangeS:

; 1116 : 				kEtcItemSkeleton = pEtcItemSkeleton->GetHumanWomanSkl();

  0006d	ff 50 48	 call	 DWORD PTR [eax+72]
$LN15@SetChangeS:
  00070	50		 push	 eax
  00071	8d 4d e4	 lea	 ecx, DWORD PTR _kEtcItemSkeleton$[ebp]
  00074	ff 15 00 00 00
	00		 call	 DWORD PTR __imp_??4ioHashString@@QAEAAV0@ABV0@@Z
$LN2@SetChangeS:

; 1117 : 		}
; 1118 : 	}
; 1119 : 
; 1120 : 	if( !kEtcItemSkeleton.IsEmpty() )

  0007a	8d 4d e4	 lea	 ecx, DWORD PTR _kEtcItemSkeleton$[ebp]
  0007d	ff 15 00 00 00
	00		 call	 DWORD PTR __imp_?IsEmpty@ioHashString@@QBE_NXZ
  00083	84 c0		 test	 al, al
  00085	75 0f		 jne	 SHORT $LN1@SetChangeS

; 1121 : 		m_aMyChar->ChangeSkeleton( kEtcItemSkeleton );

  00087	8b 8f 64 01 00
	00		 mov	 ecx, DWORD PTR [edi+356]
  0008d	8d 45 e4	 lea	 eax, DWORD PTR _kEtcItemSkeleton$[ebp]
  00090	50		 push	 eax
  00091	e8 00 00 00 00	 call	 ?ChangeSkeleton@ioCreateChar@@QAEXABVioHashString@@@Z ; ioCreateChar::ChangeSkeleton
$LN1@SetChangeS:

; 1122 : }

  00096	83 4d fc ff	 or	 DWORD PTR __$EHRec$[ebp+8], -1
  0009a	8d 4d e4	 lea	 ecx, DWORD PTR _kEtcItemSkeleton$[ebp]
  0009d	ff 15 00 00 00
	00		 call	 DWORD PTR __imp_??1ioHashString@@QAE@XZ
$LN6@SetChangeS:
  000a3	e8 00 00 00 00	 call	 __EH_epilog3
  000a8	c2 08 00	 ret	 8
_TEXT	ENDS
;	COMDAT text$x
text$x	SEGMENT
__unwindfunclet$?SetChangeSkeleton@SelectCharViewWnd@@QAEXK_N@Z$0:
  00000	8d 4d e4	 lea	 ecx, DWORD PTR _kEtcItemSkeleton$[ebp]
  00003	ff 25 00 00 00
	00		 jmp	 DWORD PTR __imp_??1ioHashString@@QAE@XZ
__ehhandler$?SetChangeSkeleton@SelectCharViewWnd@@QAEXK_N@Z:
  00009	8b 54 24 08	 mov	 edx, DWORD PTR [esp+8]
  0000d	8d 42 0c	 lea	 eax, DWORD PTR [edx+12]
  00010	8b 4a e0	 mov	 ecx, DWORD PTR [edx-32]
  00013	33 c8		 xor	 ecx, eax
  00015	e8 00 00 00 00	 call	 @__security_check_cookie@4
  0001a	b8 00 00 00 00	 mov	 eax, OFFSET __ehfuncinfo$?SetChangeSkeleton@SelectCharViewWnd@@QAEXK_N@Z
  0001f	e9 00 00 00 00	 jmp	 ___CxxFrameHandler3
text$x	ENDS
?SetChangeSkeleton@SelectCharViewWnd@@QAEXK_N@Z ENDP	; SelectCharViewWnd::SetChangeSkeleton
PUBLIC	?InitRotate@SelectCharViewWnd@@IAEXXZ		; SelectCharViewWnd::InitRotate
EXTRN	?SetYaw@ioCreateChar@@QAEXM@Z:PROC		; ioCreateChar::SetYaw
; Function compile flags: /Ogsp
;	COMDAT ?InitRotate@SelectCharViewWnd@@IAEXXZ
_TEXT	SEGMENT
tv133 = -4						; size = 4
?InitRotate@SelectCharViewWnd@@IAEXXZ PROC		; SelectCharViewWnd::InitRotate, COMDAT
; _this$ = ecx

; 1141 : {

  00000	55		 push	 ebp
  00001	8b ec		 mov	 ebp, esp
  00003	51		 push	 ecx

; 1142 : 	RotateY( 0.0f );

  00004	0f 57 c0	 xorps	 xmm0, xmm0
  00007	f3 0f 11 81 94
	04 00 00	 movss	 DWORD PTR [ecx+1172], xmm0

; 1143 : 	if( m_aMyChar )

  0000f	81 c1 64 01 00
	00		 add	 ecx, 356		; 00000164H
  00015	83 39 00	 cmp	 DWORD PTR [ecx], 0
  00018	74 20		 je	 SHORT $LN1@InitRotate

; 1144 : 		m_aMyChar->SetYaw( FLOAT10 );

  0001a	b8 0a 00 00 00	 mov	 eax, 10			; 0000000aH
  0001f	89 45 fc	 mov	 DWORD PTR tv133[ebp], eax
  00022	db 45 fc	 fild	 DWORD PTR tv133[ebp]
  00025	85 c0		 test	 eax, eax
  00027	79 06		 jns	 SHORT $LN8@InitRotate
  00029	d8 05 00 00 00
	00		 fadd	 DWORD PTR __real@4f800000
$LN8@InitRotate:
  0002f	51		 push	 ecx
  00030	8b 09		 mov	 ecx, DWORD PTR [ecx]
  00032	d9 1c 24	 fstp	 DWORD PTR [esp]
  00035	e8 00 00 00 00	 call	 ?SetYaw@ioCreateChar@@QAEXM@Z ; ioCreateChar::SetYaw
$LN1@InitRotate:

; 1145 : }

  0003a	c9		 leave
  0003b	c3		 ret	 0
?InitRotate@SelectCharViewWnd@@IAEXXZ ENDP		; SelectCharViewWnd::InitRotate
_TEXT	ENDS
PUBLIC	__mask@@NegFloat@
PUBLIC	?iwm_command@SelectCharViewWnd@@UAEXPAVioWnd@@HK@Z ; SelectCharViewWnd::iwm_command
;	COMDAT __mask@@NegFloat@
CONST	SEGMENT
__mask@@NegFloat@ DB 00H, 00H, 00H, 080H, 00H, 00H, 00H, 080H, 00H, 00H, 00H
	DB	080H, 00H, 00H, 00H, 080H
; Function compile flags: /Ogsp
CONST	ENDS
;	COMDAT ?iwm_command@SelectCharViewWnd@@UAEXPAVioWnd@@HK@Z
_TEXT	SEGMENT
_pWnd$ = 8						; size = 4
_cmd$ = 12						; size = 4
tv153 = 16						; size = 4
_param$ = 16						; size = 4
?iwm_command@SelectCharViewWnd@@UAEXPAVioWnd@@HK@Z PROC	; SelectCharViewWnd::iwm_command, COMDAT
; _this$ = ecx

; 1240 : {

  00000	55		 push	 ebp
  00001	8b ec		 mov	 ebp, esp
  00003	56		 push	 esi
  00004	8b f1		 mov	 esi, ecx

; 1241 : 	DWORD dwID = pWnd->GetID();

  00006	8b 4d 08	 mov	 ecx, DWORD PTR _pWnd$[ebp]
  00009	ff 15 00 00 00
	00		 call	 DWORD PTR __imp_?GetID@ioWnd@@QBEKXZ

; 1242 : 
; 1243 : 	switch( dwID )

  0000f	48		 dec	 eax
  00010	0f 85 88 00 00
	00		 jne	 $LN26@iwm_comman@3

; 1244 : 	{
; 1245 : 	case ID_CHAR_CONTROL_WND:
; 1246 : 		if( cmd == IOBN_BTNDOWN)

  00016	83 7d 0c 10	 cmp	 DWORD PTR _cmd$[ebp], 16 ; 00000010H
  0001a	75 2b		 jne	 SHORT $LN12@iwm_comman@3

; 1247 : 		{
; 1248 : 			if( param == SelectCharControlWnd::ID_LEFT_ROTATE_BTN )

  0001c	83 7d 10 01	 cmp	 DWORD PTR _param$[ebp], 1
  00020	75 0e		 jne	 SHORT $LN11@iwm_comman@3

; 1249 : 			{
; 1250 : 				RotateY( m_fXMLRotateYaw );				

  00022	d9 86 9c 04 00
	00		 fld	 DWORD PTR [esi+1180]
  00028	d9 9e 94 04 00
	00		 fstp	 DWORD PTR [esi+1172]
  0002e	eb 6e		 jmp	 SHORT $LN26@iwm_comman@3
$LN11@iwm_comman@3:

; 1251 : 			}
; 1252 : 			else if( param == SelectCharControlWnd::ID_RIGHT_ROTATE_BTN )

  00030	83 7d 10 02	 cmp	 DWORD PTR _param$[ebp], 2
  00034	75 68		 jne	 SHORT $LN26@iwm_comman@3

; 1253 : 			{
; 1254 : 				RotateY( -m_fXMLRotateYaw );			

  00036	f3 0f 10 86 9c
	04 00 00	 movss	 xmm0, DWORD PTR [esi+1180]
  0003e	0f 57 05 00 00
	00 00		 xorps	 xmm0, DWORD PTR __mask@@NegFloat@

; 1255 : 			}
; 1256 : 		}

  00045	eb 4f		 jmp	 SHORT $LN29@iwm_comman@3
$LN12@iwm_comman@3:

; 1257 : 		else if( cmd == IOBN_BTNUP )

  00047	83 7d 0c 11	 cmp	 DWORD PTR _cmd$[ebp], 17 ; 00000011H
  0004b	75 51		 jne	 SHORT $LN26@iwm_comman@3

; 1258 : 		{
; 1259 : 			if( param == SelectCharControlWnd::ID_DEFAULT_POS_BTN )

  0004d	83 7d 10 03	 cmp	 DWORD PTR _param$[ebp], 3
  00051	75 34		 jne	 SHORT $LN6@iwm_comman@3

; 1260 : 			{
; 1261 : 				if( m_aMyChar )

  00053	8d 8e 64 01 00
	00		 lea	 ecx, DWORD PTR [esi+356]
  00059	83 39 00	 cmp	 DWORD PTR [ecx], 0
  0005c	74 20		 je	 SHORT $LN5@iwm_comman@3

; 1262 : 					m_aMyChar->SetYaw( FLOAT10 );				

  0005e	b8 0a 00 00 00	 mov	 eax, 10			; 0000000aH
  00063	89 45 10	 mov	 DWORD PTR tv153[ebp], eax
  00066	db 45 10	 fild	 DWORD PTR tv153[ebp]
  00069	85 c0		 test	 eax, eax
  0006b	79 06		 jns	 SHORT $LN28@iwm_comman@3
  0006d	d8 05 00 00 00
	00		 fadd	 DWORD PTR __real@4f800000
$LN28@iwm_comman@3:
  00073	51		 push	 ecx
  00074	8b 09		 mov	 ecx, DWORD PTR [ecx]
  00076	d9 1c 24	 fstp	 DWORD PTR [esp]
  00079	e8 00 00 00 00	 call	 ?SetYaw@ioCreateChar@@QAEXM@Z ; ioCreateChar::SetYaw
$LN5@iwm_comman@3:

; 1263 : 				InitRotate();

  0007e	8b ce		 mov	 ecx, esi
  00080	e8 00 00 00 00	 call	 ?InitRotate@SelectCharViewWnd@@IAEXXZ ; SelectCharViewWnd::InitRotate
  00085	eb 17		 jmp	 SHORT $LN26@iwm_comman@3
$LN6@iwm_comman@3:

; 1264 : 			}
; 1265 : 			else if( param == SelectCharControlWnd::ID_LEFT_ROTATE_BTN )

  00087	83 7d 10 01	 cmp	 DWORD PTR _param$[ebp], 1

; 1266 : 			{
; 1267 : 				RotateY( 0.0f );

  0008b	74 06		 je	 SHORT $LN30@iwm_comman@3

; 1268 : 			}
; 1269 : 			else if( param == SelectCharControlWnd::ID_RIGHT_ROTATE_BTN )

  0008d	83 7d 10 02	 cmp	 DWORD PTR _param$[ebp], 2
  00091	75 0b		 jne	 SHORT $LN26@iwm_comman@3
$LN30@iwm_comman@3:

; 1270 : 			{
; 1271 : 				RotateY( 0.0f );

  00093	0f 57 c0	 xorps	 xmm0, xmm0
$LN29@iwm_comman@3:
  00096	f3 0f 11 86 94
	04 00 00	 movss	 DWORD PTR [esi+1172], xmm0
$LN26@iwm_comman@3:
  0009e	5e		 pop	 esi

; 1272 : 			}
; 1273 : 		}
; 1274 : 		break;
; 1275 : 	}
; 1276 : }

  0009f	5d		 pop	 ebp
  000a0	c2 0c 00	 ret	 12			; 0000000cH
?iwm_command@SelectCharViewWnd@@UAEXPAVioWnd@@HK@Z ENDP	; SelectCharViewWnd::iwm_command
; Function compile flags: /Ogsp
_TEXT	ENDS
;	COMDAT ??_GSelectCharControlBtn@@UAEPAXI@Z
_TEXT	SEGMENT
___flags$ = 8						; size = 4
??_GSelectCharControlBtn@@UAEPAXI@Z PROC		; SelectCharControlBtn::`scalar deleting destructor', COMDAT
; _this$ = ecx
  00000	55		 push	 ebp
  00001	8b ec		 mov	 ebp, esp
  00003	56		 push	 esi
  00004	8b f1		 mov	 esi, ecx
  00006	e8 00 00 00 00	 call	 ??1SelectCharControlBtn@@UAE@XZ ; SelectCharControlBtn::~SelectCharControlBtn
  0000b	f6 45 08 01	 test	 BYTE PTR ___flags$[ebp], 1
  0000f	74 07		 je	 SHORT $LN1@scalar@5
  00011	56		 push	 esi
  00012	e8 00 00 00 00	 call	 ??3@YAXPAX@Z		; operator delete
  00017	59		 pop	 ecx
$LN1@scalar@5:
  00018	8b c6		 mov	 eax, esi
  0001a	5e		 pop	 esi
  0001b	5d		 pop	 ebp
  0001c	c2 04 00	 ret	 4
??_GSelectCharControlBtn@@UAEPAXI@Z ENDP		; SelectCharControlBtn::`scalar deleting destructor'
; Function compile flags: /Ogsp
_TEXT	ENDS
;	COMDAT ?OnDrawNormal@SelectCharControlBtn@@MAEXHH@Z
_TEXT	SEGMENT
_iXPos$ = 8						; size = 4
_iYPos$ = 12						; size = 4
?OnDrawNormal@SelectCharControlBtn@@MAEXHH@Z PROC	; SelectCharControlBtn::OnDrawNormal, COMDAT
; _this$ = ecx

; 1360 : {

  00000	55		 push	 ebp
  00001	8b ec		 mov	 ebp, esp
  00003	56		 push	 esi

; 1361 : 	ioButton::OnDrawNormal( iXPos, iYPos );

  00004	ff 75 0c	 push	 DWORD PTR _iYPos$[ebp]
  00007	8b f1		 mov	 esi, ecx
  00009	ff 75 08	 push	 DWORD PTR _iXPos$[ebp]
  0000c	ff 15 00 00 00
	00		 call	 DWORD PTR __imp_?OnDrawNormal@ioButton@@MAEXHH@Z

; 1362 : 	RenderInfo( iXPos, iYPos , UI_RENDER_NORMAL );

  00012	6a 00		 push	 0
  00014	ff 75 0c	 push	 DWORD PTR _iYPos$[ebp]
  00017	8b ce		 mov	 ecx, esi
  00019	ff 75 08	 push	 DWORD PTR _iXPos$[ebp]
  0001c	e8 00 00 00 00	 call	 ?RenderInfo@SelectCharControlBtn@@IAEXHHW4UIRenderType@@@Z ; SelectCharControlBtn::RenderInfo
  00021	5e		 pop	 esi

; 1363 : }

  00022	5d		 pop	 ebp
  00023	c2 08 00	 ret	 8
?OnDrawNormal@SelectCharControlBtn@@MAEXHH@Z ENDP	; SelectCharControlBtn::OnDrawNormal
_TEXT	ENDS
EXTRN	__imp_?OnDrawOvered@ioButton@@MAEXHH@Z:PROC
; Function compile flags: /Ogsp
;	COMDAT ?OnDrawOvered@SelectCharControlBtn@@MAEXHH@Z
_TEXT	SEGMENT
_iXPos$ = 8						; size = 4
_iYPos$ = 12						; size = 4
?OnDrawOvered@SelectCharControlBtn@@MAEXHH@Z PROC	; SelectCharControlBtn::OnDrawOvered, COMDAT
; _this$ = ecx

; 1366 : {

  00000	55		 push	 ebp
  00001	8b ec		 mov	 ebp, esp
  00003	56		 push	 esi

; 1367 : 	ioButton::OnDrawOvered( iXPos, iYPos );

  00004	ff 75 0c	 push	 DWORD PTR _iYPos$[ebp]
  00007	8b f1		 mov	 esi, ecx
  00009	ff 75 08	 push	 DWORD PTR _iXPos$[ebp]
  0000c	ff 15 00 00 00
	00		 call	 DWORD PTR __imp_?OnDrawOvered@ioButton@@MAEXHH@Z

; 1368 : 	RenderInfo( iXPos, iYPos , UI_RENDER_NORMAL );

  00012	6a 00		 push	 0
  00014	ff 75 0c	 push	 DWORD PTR _iYPos$[ebp]
  00017	8b ce		 mov	 ecx, esi
  00019	ff 75 08	 push	 DWORD PTR _iXPos$[ebp]
  0001c	e8 00 00 00 00	 call	 ?RenderInfo@SelectCharControlBtn@@IAEXHHW4UIRenderType@@@Z ; SelectCharControlBtn::RenderInfo

; 1369 : 	RenderInfo( iXPos, iYPos , UI_RENDER_SCREEN );

  00021	6a 01		 push	 1
  00023	ff 75 0c	 push	 DWORD PTR _iYPos$[ebp]
  00026	8b ce		 mov	 ecx, esi
  00028	ff 75 08	 push	 DWORD PTR _iXPos$[ebp]
  0002b	e8 00 00 00 00	 call	 ?RenderInfo@SelectCharControlBtn@@IAEXHHW4UIRenderType@@@Z ; SelectCharControlBtn::RenderInfo
  00030	5e		 pop	 esi

; 1370 : }

  00031	5d		 pop	 ebp
  00032	c2 08 00	 ret	 8
?OnDrawOvered@SelectCharControlBtn@@MAEXHH@Z ENDP	; SelectCharControlBtn::OnDrawOvered
_TEXT	ENDS
EXTRN	__imp_?OnDrawPushed@ioButton@@MAEXHH@Z:PROC
; Function compile flags: /Ogsp
;	COMDAT ?OnDrawPushed@SelectCharControlBtn@@MAEXHH@Z
_TEXT	SEGMENT
_iXPos$ = 8						; size = 4
_iYPos$ = 12						; size = 4
?OnDrawPushed@SelectCharControlBtn@@MAEXHH@Z PROC	; SelectCharControlBtn::OnDrawPushed, COMDAT
; _this$ = ecx

; 1373 : {

  00000	55		 push	 ebp
  00001	8b ec		 mov	 ebp, esp
  00003	56		 push	 esi

; 1374 : 	ioButton::OnDrawPushed( iXPos, iYPos );

  00004	8b 75 0c	 mov	 esi, DWORD PTR _iYPos$[ebp]
  00007	57		 push	 edi
  00008	56		 push	 esi
  00009	ff 75 08	 push	 DWORD PTR _iXPos$[ebp]
  0000c	8b f9		 mov	 edi, ecx
  0000e	ff 15 00 00 00
	00		 call	 DWORD PTR __imp_?OnDrawPushed@ioButton@@MAEXHH@Z

; 1375 : 	RenderInfo( iXPos, iYPos+2 , UI_RENDER_NORMAL );

  00014	6a 00		 push	 0
  00016	83 c6 02	 add	 esi, 2
  00019	56		 push	 esi
  0001a	ff 75 08	 push	 DWORD PTR _iXPos$[ebp]
  0001d	8b cf		 mov	 ecx, edi
  0001f	e8 00 00 00 00	 call	 ?RenderInfo@SelectCharControlBtn@@IAEXHHW4UIRenderType@@@Z ; SelectCharControlBtn::RenderInfo

; 1376 : 	RenderInfo( iXPos, iYPos+2 , UI_RENDER_SCREEN );

  00024	6a 01		 push	 1
  00026	56		 push	 esi
  00027	ff 75 08	 push	 DWORD PTR _iXPos$[ebp]
  0002a	8b cf		 mov	 ecx, edi
  0002c	e8 00 00 00 00	 call	 ?RenderInfo@SelectCharControlBtn@@IAEXHHW4UIRenderType@@@Z ; SelectCharControlBtn::RenderInfo
  00031	5f		 pop	 edi
  00032	5e		 pop	 esi

; 1377 : }

  00033	5d		 pop	 ebp
  00034	c2 08 00	 ret	 8
?OnDrawPushed@SelectCharControlBtn@@MAEXHH@Z ENDP	; SelectCharControlBtn::OnDrawPushed
_TEXT	ENDS
EXTRN	__imp_?OnDrawDisabled@ioButton@@MAEXHH@Z:PROC
; Function compile flags: /Ogsp
;	COMDAT ?OnDrawDisabled@SelectCharControlBtn@@MAEXHH@Z
_TEXT	SEGMENT
_iXPos$ = 8						; size = 4
_iYPos$ = 12						; size = 4
?OnDrawDisabled@SelectCharControlBtn@@MAEXHH@Z PROC	; SelectCharControlBtn::OnDrawDisabled, COMDAT
; _this$ = ecx

; 1380 : {

  00000	55		 push	 ebp
  00001	8b ec		 mov	 ebp, esp
  00003	56		 push	 esi

; 1381 : 	ioButton::OnDrawDisabled( iXPos, iYPos );

  00004	ff 75 0c	 push	 DWORD PTR _iYPos$[ebp]
  00007	8b f1		 mov	 esi, ecx
  00009	ff 75 08	 push	 DWORD PTR _iXPos$[ebp]
  0000c	ff 15 00 00 00
	00		 call	 DWORD PTR __imp_?OnDrawDisabled@ioButton@@MAEXHH@Z

; 1382 : 	RenderInfo( iXPos, iYPos , UI_RENDER_GRAY );

  00012	6a 02		 push	 2
  00014	ff 75 0c	 push	 DWORD PTR _iYPos$[ebp]
  00017	8b ce		 mov	 ecx, esi
  00019	ff 75 08	 push	 DWORD PTR _iXPos$[ebp]
  0001c	e8 00 00 00 00	 call	 ?RenderInfo@SelectCharControlBtn@@IAEXHHW4UIRenderType@@@Z ; SelectCharControlBtn::RenderInfo
  00021	5e		 pop	 esi

; 1383 : }

  00022	5d		 pop	 ebp
  00023	c2 08 00	 ret	 8
?OnDrawDisabled@SelectCharControlBtn@@MAEXHH@Z ENDP	; SelectCharControlBtn::OnDrawDisabled
_TEXT	ENDS
PUBLIC	??0SelectCharControlWnd@@QAE@XZ			; SelectCharControlWnd::SelectCharControlWnd
EXTRN	??0FSMStateMgr@@QAE@XZ:PROC			; FSMStateMgr::FSMStateMgr
;	COMDAT xdata$x
xdata$x	SEGMENT
__unwindtable$??0SelectCharControlWnd@@QAE@XZ DD 0ffffffffH
	DD	FLAT:__unwindfunclet$??0SelectCharControlWnd@@QAE@XZ$0
	DD	00H
	DD	FLAT:__unwindfunclet$??0SelectCharControlWnd@@QAE@XZ$1
__ehfuncinfo$??0SelectCharControlWnd@@QAE@XZ DD 019930522H
	DD	02H
	DD	FLAT:__unwindtable$??0SelectCharControlWnd@@QAE@XZ
	DD	2 DUP(00H)
	DD	2 DUP(00H)
	DD	00H
	DD	01H
; Function compile flags: /Ogsp
xdata$x	ENDS
;	COMDAT ??0SelectCharControlWnd@@QAE@XZ
_TEXT	SEGMENT
_this$ = -16						; size = 4
__$EHRec$ = -12						; size = 12
??0SelectCharControlWnd@@QAE@XZ PROC			; SelectCharControlWnd::SelectCharControlWnd, COMDAT
; _this$ = ecx

; 1401 : {

  00000	6a 04		 push	 4
  00002	b8 00 00 00 00	 mov	 eax, __ehhandler$??0SelectCharControlWnd@@QAE@XZ
  00007	e8 00 00 00 00	 call	 __EH_prolog3
  0000c	8b f1		 mov	 esi, ecx
  0000e	89 75 f0	 mov	 DWORD PTR _this$[ebp], esi
  00011	ff 15 00 00 00
	00		 call	 DWORD PTR __imp_??0ioWnd@@QAE@XZ
  00017	83 65 fc 00	 and	 DWORD PTR __$EHRec$[ebp+8], 0
  0001b	8d 8e 60 01 00
	00		 lea	 ecx, DWORD PTR [esi+352]
  00021	c7 06 00 00 00
	00		 mov	 DWORD PTR [esi], OFFSET ??_7SelectCharControlWnd@@6B@
  00027	e8 00 00 00 00	 call	 ??0FSMStateMgr@@QAE@XZ	; FSMStateMgr::FSMStateMgr

; 1402 : 	InitAniState();

  0002c	8b ce		 mov	 ecx, esi
  0002e	c6 45 fc 01	 mov	 BYTE PTR __$EHRec$[ebp+8], 1
  00032	e8 00 00 00 00	 call	 ?InitAniState@SelectCharControlWnd@@IAEXXZ ; SelectCharControlWnd::InitAniState

; 1403 : }

  00037	8b c6		 mov	 eax, esi
  00039	e8 00 00 00 00	 call	 __EH_epilog3
  0003e	c3		 ret	 0
_TEXT	ENDS
;	COMDAT text$x
text$x	SEGMENT
__unwindfunclet$??0SelectCharControlWnd@@QAE@XZ$0:
  00000	8b 4d f0	 mov	 ecx, DWORD PTR _this$[ebp]
  00003	ff 25 00 00 00
	00		 jmp	 DWORD PTR __imp_??1ioWnd@@UAE@XZ
__unwindfunclet$??0SelectCharControlWnd@@QAE@XZ$1:
  00009	8b 4d f0	 mov	 ecx, DWORD PTR _this$[ebp]
  0000c	81 c1 60 01 00
	00		 add	 ecx, 352		; 00000160H
  00012	e9 00 00 00 00	 jmp	 ??1FSMStateMgr@@UAE@XZ	; FSMStateMgr::~FSMStateMgr
__ehhandler$??0SelectCharControlWnd@@QAE@XZ:
  00017	8b 54 24 08	 mov	 edx, DWORD PTR [esp+8]
  0001b	8d 42 0c	 lea	 eax, DWORD PTR [edx+12]
  0001e	8b 4a ec	 mov	 ecx, DWORD PTR [edx-20]
  00021	33 c8		 xor	 ecx, eax
  00023	e8 00 00 00 00	 call	 @__security_check_cookie@4
  00028	b8 00 00 00 00	 mov	 eax, OFFSET __ehfuncinfo$??0SelectCharControlWnd@@QAE@XZ
  0002d	e9 00 00 00 00	 jmp	 ___CxxFrameHandler3
text$x	ENDS
??0SelectCharControlWnd@@QAE@XZ ENDP			; SelectCharControlWnd::SelectCharControlWnd
; Function compile flags: /Ogsp
;	COMDAT ??_GSelectCharControlWnd@@UAEPAXI@Z
_TEXT	SEGMENT
___flags$ = 8						; size = 4
??_GSelectCharControlWnd@@UAEPAXI@Z PROC		; SelectCharControlWnd::`scalar deleting destructor', COMDAT
; _this$ = ecx
  00000	55		 push	 ebp
  00001	8b ec		 mov	 ebp, esp
  00003	56		 push	 esi
  00004	8b f1		 mov	 esi, ecx
  00006	e8 00 00 00 00	 call	 ??1SelectCharControlWnd@@UAE@XZ ; SelectCharControlWnd::~SelectCharControlWnd
  0000b	f6 45 08 01	 test	 BYTE PTR ___flags$[ebp], 1
  0000f	74 07		 je	 SHORT $LN1@scalar@6
  00011	56		 push	 esi
  00012	e8 00 00 00 00	 call	 ??3@YAXPAX@Z		; operator delete
  00017	59		 pop	 ecx
$LN1@scalar@6:
  00018	8b c6		 mov	 eax, esi
  0001a	5e		 pop	 esi
  0001b	5d		 pop	 ebp
  0001c	c2 04 00	 ret	 4
??_GSelectCharControlWnd@@UAEPAXI@Z ENDP		; SelectCharControlWnd::`scalar deleting destructor'
_TEXT	ENDS
PUBLIC	__real@406fe00000000000
EXTRN	?UpdateTime@FSMStateMgr@@QAEXXZ:PROC		; FSMStateMgr::UpdateTime
EXTRN	__ftol2_sse:PROC
;	COMDAT __real@406fe00000000000
; File d:\lost saga for developer\youtube\tutorial\source\src\lsclient\gui\fsmstatemgr.h
CONST	SEGMENT
__real@406fe00000000000 DQ 0406fe00000000000r	; 255
; Function compile flags: /Ogsp
; File d:\lost saga for developer\youtube\tutorial\source\src\lsclient\gui\expcroomwnd.cpp
CONST	ENDS
;	COMDAT ?OnProcess@SelectCharControlWnd@@MAEXM@Z
_TEXT	SEGMENT
tv211 = -8						; size = 4
tv207 = -8						; size = 4
tv235 = -4						; size = 4
tv223 = -4						; size = 4
tv203 = -4						; size = 4
$T537023 = -4						; size = 4
_fTimePerSec$ = 8					; size = 4
?OnProcess@SelectCharControlWnd@@MAEXM@Z PROC		; SelectCharControlWnd::OnProcess, COMDAT
; _this$ = ecx

; 1480 : {

  00000	55		 push	 ebp
  00001	8b ec		 mov	 ebp, esp
  00003	51		 push	 ecx
  00004	51		 push	 ecx
  00005	56		 push	 esi
  00006	8b f1		 mov	 esi, ecx

; 1481 : 	if( !IsShow() ) return ;

  00008	ff 15 00 00 00
	00		 call	 DWORD PTR __imp_?IsShow@ioWnd@@QBE_NXZ
  0000e	84 c0		 test	 al, al
  00010	0f 84 a5 00 00
	00		 je	 $LN1@OnProcess

; 1482 : 
; 1483 : 	m_AniState.UpdateTime();

  00016	8d 8e 60 01 00
	00		 lea	 ecx, DWORD PTR [esi+352]
  0001c	e8 00 00 00 00	 call	 ?UpdateTime@FSMStateMgr@@QAEXXZ ; FSMStateMgr::UpdateTime

; 1484 : 
; 1485 : 	if( m_AniState.GetCurState() == AT_ALPHA_IN )

  00021	8b 86 64 01 00
	00		 mov	 eax, DWORD PTR [esi+356]
  00027	83 f8 01	 cmp	 eax, 1
  0002a	75 30		 jne	 SHORT $LN6@OnProcess

; 1486 : 	{
; 1487 : 		float fRate = ( (float) m_AniState.GetCurTime() / (float) m_AniState.GetDelay() );
; 1488 : 		int iAlpha = 255.0f * fRate;
; 1489 : 
; 1490 : 		SetChildAlpha( iAlpha );

  0002c	8b 86 6c 01 00
	00		 mov	 eax, DWORD PTR [esi+364]
  00032	db 86 6c 01 00
	00		 fild	 DWORD PTR [esi+364]
  00038	85 c0		 test	 eax, eax
  0003a	79 06		 jns	 SHORT $LN26@OnProcess
  0003c	d8 05 00 00 00
	00		 fadd	 DWORD PTR __real@4f800000
$LN26@OnProcess:
  00042	da b6 70 01 00
	00		 fidiv	 DWORD PTR [esi+368]
  00048	d9 5d fc	 fstp	 DWORD PTR tv223[ebp]
  0004b	d9 45 fc	 fld	 DWORD PTR tv223[ebp]
$LN30@OnProcess:
  0004e	dc 0d 00 00 00
	00		 fmul	 QWORD PTR __real@406fe00000000000
  00054	e8 00 00 00 00	 call	 __ftol2_sse
  00059	50		 push	 eax
  0005a	eb 58		 jmp	 SHORT $LN29@OnProcess
$LN6@OnProcess:

; 1491 : 	}
; 1492 : 	else if( m_AniState.GetCurState() == AT_ALPHA_OUT )

  0005c	83 f8 03	 cmp	 eax, 3
  0005f	75 3f		 jne	 SHORT $LN4@OnProcess

; 1493 : 	{
; 1494 : 		float fRate = ( (float) m_AniState.GetCurTime() / (float) m_AniState.GetDelay() );

  00061	8b 86 70 01 00
	00		 mov	 eax, DWORD PTR [esi+368]
  00067	8b 8e 6c 01 00
	00		 mov	 ecx, DWORD PTR [esi+364]
  0006d	89 45 fc	 mov	 DWORD PTR $T537023[ebp], eax

; 1495 : 		int iAlpha = 255.0f * ( FLOAT1 - fRate );

  00070	b8 01 00 00 00	 mov	 eax, 1

; 1496 : 
; 1497 : 		SetChildAlpha( iAlpha );

  00075	89 45 f8	 mov	 DWORD PTR tv211[ebp], eax
  00078	db 45 f8	 fild	 DWORD PTR tv211[ebp]
  0007b	85 c0		 test	 eax, eax
  0007d	79 06		 jns	 SHORT $LN27@OnProcess
  0007f	d8 05 00 00 00
	00		 fadd	 DWORD PTR __real@4f800000
$LN27@OnProcess:
  00085	89 4d f8	 mov	 DWORD PTR tv207[ebp], ecx
  00088	db 45 f8	 fild	 DWORD PTR tv207[ebp]
  0008b	85 c9		 test	 ecx, ecx
  0008d	79 06		 jns	 SHORT $LN28@OnProcess
  0008f	d8 05 00 00 00
	00		 fadd	 DWORD PTR __real@4f800000
$LN28@OnProcess:
  00095	da 75 fc	 fidiv	 DWORD PTR $T537023[ebp]
  00098	d9 5d fc	 fstp	 DWORD PTR tv203[ebp]
  0009b	d8 65 fc	 fsub	 DWORD PTR tv203[ebp]
  0009e	eb ae		 jmp	 SHORT $LN30@OnProcess
$LN4@OnProcess:

; 1498 : 	}
; 1499 : 	else if( m_AniState.GetCurState() == AT_HIDE )

  000a0	83 f8 04	 cmp	 eax, 4
  000a3	75 0a		 jne	 SHORT $LN2@OnProcess

; 1500 : 	{
; 1501 : 		HideWnd();

  000a5	8b ce		 mov	 ecx, esi
  000a7	ff 15 00 00 00
	00		 call	 DWORD PTR __imp_?HideWnd@ioWnd@@QAEXXZ

; 1502 : 	}
; 1503 : 	else

  000ad	eb 0c		 jmp	 SHORT $LN1@OnProcess
$LN2@OnProcess:

; 1504 : 	{
; 1505 : 		SetChildAlpha( 255 );

  000af	68 ff 00 00 00	 push	 255			; 000000ffH
$LN29@OnProcess:
  000b4	8b ce		 mov	 ecx, esi
  000b6	e8 00 00 00 00	 call	 ?SetChildAlpha@SelectCharControlWnd@@IAEXH@Z ; SelectCharControlWnd::SetChildAlpha
$LN1@OnProcess:
  000bb	5e		 pop	 esi

; 1506 : 	}
; 1507 : }

  000bc	c9		 leave
  000bd	c2 04 00	 ret	 4
?OnProcess@SelectCharControlWnd@@MAEXM@Z ENDP		; SelectCharControlWnd::OnProcess
_TEXT	ENDS
PUBLIC	??G?$CEncrypt@H@@QAEHABH@Z			; CEncrypt<int>::operator-
; Function compile flags: /Ogsp
; File d:\lost saga for developer\youtube\tutorial\source\src\lsclient\encryptvalue.h
;	COMDAT ??G?$CEncrypt@H@@QAEHABH@Z
_TEXT	SEGMENT
_value$ = -4						; size = 4
_inValue$ = 8						; size = 4
??G?$CEncrypt@H@@QAEHABH@Z PROC				; CEncrypt<int>::operator-, COMDAT
; _this$ = ecx

; 854  : 	{

  00000	55		 push	 ebp
  00001	8b ec		 mov	 ebp, esp
  00003	51		 push	 ecx

; 855  : 		type value;
; 856  : 		DecryptValueToPool(&value);

  00004	8d 45 fc	 lea	 eax, DWORD PTR _value$[ebp]
  00007	50		 push	 eax
  00008	e8 00 00 00 00	 call	 ?DecryptValueToPool@?$CEncrypt@H@@QAEXPAH@Z ; CEncrypt<int>::DecryptValueToPool

; 857  : #ifdef _NOTUSE
; 858  : 		Debug();
; 859  : #endif
; 860  : 		return value - inValue;

  0000d	8b 45 fc	 mov	 eax, DWORD PTR _value$[ebp]
  00010	8b 4d 08	 mov	 ecx, DWORD PTR _inValue$[ebp]
  00013	2b 01		 sub	 eax, DWORD PTR [ecx]

; 861  : 	}

  00015	c9		 leave
  00016	c2 04 00	 ret	 4
??G?$CEncrypt@H@@QAEHABH@Z ENDP				; CEncrypt<int>::operator-
_TEXT	ENDS
PUBLIC	??8?$CEncrypt@H@@QAE_NABH@Z			; CEncrypt<int>::operator==
; Function compile flags: /Ogsp
;	COMDAT ??8?$CEncrypt@H@@QAE_NABH@Z
_TEXT	SEGMENT
_value$ = -4						; size = 4
_inValue$ = 8						; size = 4
??8?$CEncrypt@H@@QAE_NABH@Z PROC			; CEncrypt<int>::operator==, COMDAT
; _this$ = ecx

; 976  : 	{

  00000	55		 push	 ebp
  00001	8b ec		 mov	 ebp, esp
  00003	51		 push	 ecx

; 977  : 		
; 978  : 		type value;
; 979  : 		DecryptValueToPool(&value);

  00004	8d 45 fc	 lea	 eax, DWORD PTR _value$[ebp]
  00007	50		 push	 eax
  00008	e8 00 00 00 00	 call	 ?DecryptValueToPool@?$CEncrypt@H@@QAEXPAH@Z ; CEncrypt<int>::DecryptValueToPool

; 980  : #ifdef _NOTUSE
; 981  : 		Debug();
; 982  : #endif
; 983  : 		return (value == inValue);

  0000d	8b 4d 08	 mov	 ecx, DWORD PTR _inValue$[ebp]
  00010	8b 55 fc	 mov	 edx, DWORD PTR _value$[ebp]
  00013	33 c0		 xor	 eax, eax
  00015	3b 11		 cmp	 edx, DWORD PTR [ecx]
  00017	0f 94 c0	 sete	 al

; 984  : 	} 

  0001a	c9		 leave
  0001b	c2 04 00	 ret	 4
??8?$CEncrypt@H@@QAE_NABH@Z ENDP			; CEncrypt<int>::operator==
_TEXT	ENDS
PUBLIC	??9?$CEncrypt@H@@QAE_NABH@Z			; CEncrypt<int>::operator!=
; Function compile flags: /Ogsp
;	COMDAT ??9?$CEncrypt@H@@QAE_NABH@Z
_TEXT	SEGMENT
_value$ = -4						; size = 4
_inValue$ = 8						; size = 4
??9?$CEncrypt@H@@QAE_NABH@Z PROC			; CEncrypt<int>::operator!=, COMDAT
; _this$ = ecx

; 998  : 	{

  00000	55		 push	 ebp
  00001	8b ec		 mov	 ebp, esp
  00003	51		 push	 ecx

; 999  : 		
; 1000 : 		type value;
; 1001 : 		DecryptValueToPool(&value);

  00004	8d 45 fc	 lea	 eax, DWORD PTR _value$[ebp]
  00007	50		 push	 eax
  00008	e8 00 00 00 00	 call	 ?DecryptValueToPool@?$CEncrypt@H@@QAEXPAH@Z ; CEncrypt<int>::DecryptValueToPool

; 1002 : #ifdef _NOTUSE
; 1003 : 		Debug();
; 1004 : #endif
; 1005 : 		return (value != inValue);

  0000d	8b 4d 08	 mov	 ecx, DWORD PTR _inValue$[ebp]
  00010	8b 55 fc	 mov	 edx, DWORD PTR _value$[ebp]
  00013	33 c0		 xor	 eax, eax
  00015	3b 11		 cmp	 edx, DWORD PTR [ecx]
  00017	0f 95 c0	 setne	 al

; 1006 : 	} 		

  0001a	c9		 leave
  0001b	c2 04 00	 ret	 4
??9?$CEncrypt@H@@QAE_NABH@Z ENDP			; CEncrypt<int>::operator!=
_TEXT	ENDS
PUBLIC	??D?$_Vector_iterator@V?$_Vector_val@UPCRoomSoldierSelect@ExPCRoomSoldierBonusWnd@@V?$allocator@UPCRoomSoldierSelect@ExPCRoomSoldierBonusWnd@@@std@@@std@@@std@@QBEAAUPCRoomSoldierSelect@ExPCRoomSoldierBonusWnd@@XZ ; std::_Vector_iterator<std::_Vector_val<ExPCRoomSoldierBonusWnd::PCRoomSoldierSelect,std::allocator<ExPCRoomSoldierBonusWnd::PCRoomSoldierSelect> > >::operator*
; Function compile flags: /Ogsp
; File c:\program files (x86)\microsoft visual studio 10.0\vc\include\vector
;	COMDAT ??D?$_Vector_iterator@V?$_Vector_val@UPCRoomSoldierSelect@ExPCRoomSoldierBonusWnd@@V?$allocator@UPCRoomSoldierSelect@ExPCRoomSoldierBonusWnd@@@std@@@std@@@std@@QBEAAUPCRoomSoldierSelect@ExPCRoomSoldierBonusWnd@@XZ
_TEXT	SEGMENT
??D?$_Vector_iterator@V?$_Vector_val@UPCRoomSoldierSelect@ExPCRoomSoldierBonusWnd@@V?$allocator@UPCRoomSoldierSelect@ExPCRoomSoldierBonusWnd@@@std@@@std@@@std@@QBEAAUPCRoomSoldierSelect@ExPCRoomSoldierBonusWnd@@XZ PROC ; std::_Vector_iterator<std::_Vector_val<ExPCRoomSoldierBonusWnd::PCRoomSoldierSelect,std::allocator<ExPCRoomSoldierBonusWnd::PCRoomSoldierSelect> > >::operator*, COMDAT
; _this$ = ecx

; 322  : 		return ((reference)**(_Mybase *)this);

  00000	8b 01		 mov	 eax, DWORD PTR [ecx]

; 323  : 		}

  00002	c3		 ret	 0
??D?$_Vector_iterator@V?$_Vector_val@UPCRoomSoldierSelect@ExPCRoomSoldierBonusWnd@@V?$allocator@UPCRoomSoldierSelect@ExPCRoomSoldierBonusWnd@@@std@@@std@@@std@@QBEAAUPCRoomSoldierSelect@ExPCRoomSoldierBonusWnd@@XZ ENDP ; std::_Vector_iterator<std::_Vector_val<ExPCRoomSoldierBonusWnd::PCRoomSoldierSelect,std::allocator<ExPCRoomSoldierBonusWnd::PCRoomSoldierSelect> > >::operator*
_TEXT	ENDS
PUBLIC	??E?$_Vector_iterator@V?$_Vector_val@UPCRoomSoldierSelect@ExPCRoomSoldierBonusWnd@@V?$allocator@UPCRoomSoldierSelect@ExPCRoomSoldierBonusWnd@@@std@@@std@@@std@@QAEAAV01@XZ ; std::_Vector_iterator<std::_Vector_val<ExPCRoomSoldierBonusWnd::PCRoomSoldierSelect,std::allocator<ExPCRoomSoldierBonusWnd::PCRoomSoldierSelect> > >::operator++
; Function compile flags: /Ogsp
;	COMDAT ??E?$_Vector_iterator@V?$_Vector_val@UPCRoomSoldierSelect@ExPCRoomSoldierBonusWnd@@V?$allocator@UPCRoomSoldierSelect@ExPCRoomSoldierBonusWnd@@@std@@@std@@@std@@QAEAAV01@XZ
_TEXT	SEGMENT
??E?$_Vector_iterator@V?$_Vector_val@UPCRoomSoldierSelect@ExPCRoomSoldierBonusWnd@@V?$allocator@UPCRoomSoldierSelect@ExPCRoomSoldierBonusWnd@@@std@@@std@@@std@@QAEAAV01@XZ PROC ; std::_Vector_iterator<std::_Vector_val<ExPCRoomSoldierBonusWnd::PCRoomSoldierSelect,std::allocator<ExPCRoomSoldierBonusWnd::PCRoomSoldierSelect> > >::operator++, COMDAT
; _this$ = ecx

; 331  : 		{	// preincrement

  00000	8b c1		 mov	 eax, ecx

; 332  : 		++*(_Mybase *)this;

  00002	83 00 08	 add	 DWORD PTR [eax], 8

; 333  : 		return (*this);
; 334  : 		}

  00005	c3		 ret	 0
??E?$_Vector_iterator@V?$_Vector_val@UPCRoomSoldierSelect@ExPCRoomSoldierBonusWnd@@V?$allocator@UPCRoomSoldierSelect@ExPCRoomSoldierBonusWnd@@@std@@@std@@@std@@QAEAAV01@XZ ENDP ; std::_Vector_iterator<std::_Vector_val<ExPCRoomSoldierBonusWnd::PCRoomSoldierSelect,std::allocator<ExPCRoomSoldierBonusWnd::PCRoomSoldierSelect> > >::operator++
_TEXT	ENDS
PUBLIC	??0?$_Vector_val@UPCRoomSoldierSelect@ExPCRoomSoldierBonusWnd@@V?$allocator@UPCRoomSoldierSelect@ExPCRoomSoldierBonusWnd@@@std@@@std@@QAE@V?$allocator@UPCRoomSoldierSelect@ExPCRoomSoldierBonusWnd@@@1@@Z ; std::_Vector_val<ExPCRoomSoldierBonusWnd::PCRoomSoldierSelect,std::allocator<ExPCRoomSoldierBonusWnd::PCRoomSoldierSelect> >::_Vector_val<ExPCRoomSoldierBonusWnd::PCRoomSoldierSelect,std::allocator<ExPCRoomSoldierBonusWnd::PCRoomSoldierSelect> >
; Function compile flags: /Ogsp
;	COMDAT ??0?$_Vector_val@UPCRoomSoldierSelect@ExPCRoomSoldierBonusWnd@@V?$allocator@UPCRoomSoldierSelect@ExPCRoomSoldierBonusWnd@@@std@@@std@@QAE@V?$allocator@UPCRoomSoldierSelect@ExPCRoomSoldierBonusWnd@@@1@@Z
_TEXT	SEGMENT
__Al$ = 8						; size = 1
??0?$_Vector_val@UPCRoomSoldierSelect@ExPCRoomSoldierBonusWnd@@V?$allocator@UPCRoomSoldierSelect@ExPCRoomSoldierBonusWnd@@@std@@@std@@QAE@V?$allocator@UPCRoomSoldierSelect@ExPCRoomSoldierBonusWnd@@@1@@Z PROC ; std::_Vector_val<ExPCRoomSoldierBonusWnd::PCRoomSoldierSelect,std::allocator<ExPCRoomSoldierBonusWnd::PCRoomSoldierSelect> >::_Vector_val<ExPCRoomSoldierBonusWnd::PCRoomSoldierSelect,std::allocator<ExPCRoomSoldierBonusWnd::PCRoomSoldierSelect> >, COMDAT
; _this$ = ecx

; 426  : 		{	// construct allocator from _Al

  00000	8b c1		 mov	 eax, ecx

; 427  : 		_Myfirst = 0;

  00002	33 c9		 xor	 ecx, ecx
  00004	89 08		 mov	 DWORD PTR [eax], ecx

; 428  : 		_Mylast = 0;

  00006	89 48 04	 mov	 DWORD PTR [eax+4], ecx

; 429  : 		_Myend = 0;

  00009	89 48 08	 mov	 DWORD PTR [eax+8], ecx

; 430  : 		}

  0000c	c2 04 00	 ret	 4
??0?$_Vector_val@UPCRoomSoldierSelect@ExPCRoomSoldierBonusWnd@@V?$allocator@UPCRoomSoldierSelect@ExPCRoomSoldierBonusWnd@@@std@@@std@@QAE@V?$allocator@UPCRoomSoldierSelect@ExPCRoomSoldierBonusWnd@@@1@@Z ENDP ; std::_Vector_val<ExPCRoomSoldierBonusWnd::PCRoomSoldierSelect,std::allocator<ExPCRoomSoldierBonusWnd::PCRoomSoldierSelect> >::_Vector_val<ExPCRoomSoldierBonusWnd::PCRoomSoldierSelect,std::allocator<ExPCRoomSoldierBonusWnd::PCRoomSoldierSelect> >
_TEXT	ENDS
PUBLIC	??0?$_Vector_iterator@V?$_Vector_val@UPCRoomSoldierSelect@ExPCRoomSoldierBonusWnd@@V?$allocator@UPCRoomSoldierSelect@ExPCRoomSoldierBonusWnd@@@std@@@std@@@std@@QAE@PAUPCRoomSoldierSelect@ExPCRoomSoldierBonusWnd@@PBU_Container_base0@1@@Z ; std::_Vector_iterator<std::_Vector_val<ExPCRoomSoldierBonusWnd::PCRoomSoldierSelect,std::allocator<ExPCRoomSoldierBonusWnd::PCRoomSoldierSelect> > >::_Vector_iterator<std::_Vector_val<ExPCRoomSoldierBonusWnd::PCRoomSoldierSelect,std::allocator<ExPCRoomSoldierBonusWnd::PCRoomSoldierSelect> > >
; Function compile flags: /Ogsp
;	COMDAT ??0?$_Vector_iterator@V?$_Vector_val@UPCRoomSoldierSelect@ExPCRoomSoldierBonusWnd@@V?$allocator@UPCRoomSoldierSelect@ExPCRoomSoldierBonusWnd@@@std@@@std@@@std@@QAE@PAUPCRoomSoldierSelect@ExPCRoomSoldierBonusWnd@@PBU_Container_base0@1@@Z
_TEXT	SEGMENT
__Parg$ = 8						; size = 4
__Pvector$ = 12						; size = 4
??0?$_Vector_iterator@V?$_Vector_val@UPCRoomSoldierSelect@ExPCRoomSoldierBonusWnd@@V?$allocator@UPCRoomSoldierSelect@ExPCRoomSoldierBonusWnd@@@std@@@std@@@std@@QAE@PAUPCRoomSoldierSelect@ExPCRoomSoldierBonusWnd@@PBU_Container_base0@1@@Z PROC ; std::_Vector_iterator<std::_Vector_val<ExPCRoomSoldierBonusWnd::PCRoomSoldierSelect,std::allocator<ExPCRoomSoldierBonusWnd::PCRoomSoldierSelect> > >::_Vector_iterator<std::_Vector_val<ExPCRoomSoldierBonusWnd::PCRoomSoldierSelect,std::allocator<ExPCRoomSoldierBonusWnd::PCRoomSoldierSelect> > >, COMDAT
; _this$ = ecx

; 304  : 		{	// construct with pointer _Parg

  00000	55		 push	 ebp
  00001	8b ec		 mov	 ebp, esp
  00003	8b c1		 mov	 eax, ecx
  00005	8b 4d 08	 mov	 ecx, DWORD PTR __Parg$[ebp]
  00008	89 08		 mov	 DWORD PTR [eax], ecx

; 305  : 		}

  0000a	5d		 pop	 ebp
  0000b	c2 08 00	 ret	 8
??0?$_Vector_iterator@V?$_Vector_val@UPCRoomSoldierSelect@ExPCRoomSoldierBonusWnd@@V?$allocator@UPCRoomSoldierSelect@ExPCRoomSoldierBonusWnd@@@std@@@std@@@std@@QAE@PAUPCRoomSoldierSelect@ExPCRoomSoldierBonusWnd@@PBU_Container_base0@1@@Z ENDP ; std::_Vector_iterator<std::_Vector_val<ExPCRoomSoldierBonusWnd::PCRoomSoldierSelect,std::allocator<ExPCRoomSoldierBonusWnd::PCRoomSoldierSelect> > >::_Vector_iterator<std::_Vector_val<ExPCRoomSoldierBonusWnd::PCRoomSoldierSelect,std::allocator<ExPCRoomSoldierBonusWnd::PCRoomSoldierSelect> > >
_TEXT	ENDS
PUBLIC	??8?$_Vector_const_iterator@V?$_Vector_val@UPCRoomSoldierSelect@ExPCRoomSoldierBonusWnd@@V?$allocator@UPCRoomSoldierSelect@ExPCRoomSoldierBonusWnd@@@std@@@std@@@std@@QBE_NABV01@@Z ; std::_Vector_const_iterator<std::_Vector_val<ExPCRoomSoldierBonusWnd::PCRoomSoldierSelect,std::allocator<ExPCRoomSoldierBonusWnd::PCRoomSoldierSelect> > >::operator==
; Function compile flags: /Ogsp
;	COMDAT ??8?$_Vector_const_iterator@V?$_Vector_val@UPCRoomSoldierSelect@ExPCRoomSoldierBonusWnd@@V?$allocator@UPCRoomSoldierSelect@ExPCRoomSoldierBonusWnd@@@std@@@std@@@std@@QBE_NABV01@@Z
_TEXT	SEGMENT
__Right$ = 8						; size = 4
??8?$_Vector_const_iterator@V?$_Vector_val@UPCRoomSoldierSelect@ExPCRoomSoldierBonusWnd@@V?$allocator@UPCRoomSoldierSelect@ExPCRoomSoldierBonusWnd@@@std@@@std@@@std@@QBE_NABV01@@Z PROC ; std::_Vector_const_iterator<std::_Vector_val<ExPCRoomSoldierBonusWnd::PCRoomSoldierSelect,std::allocator<ExPCRoomSoldierBonusWnd::PCRoomSoldierSelect> > >::operator==, COMDAT
; _this$ = ecx

; 201  : 		{	// test for iterator equality

  00000	55		 push	 ebp
  00001	8b ec		 mov	 ebp, esp

; 202  : 		_Compat(_Right);
; 203  : 		return (this->_Ptr == _Right._Ptr);

  00003	8b 01		 mov	 eax, DWORD PTR [ecx]
  00005	8b 4d 08	 mov	 ecx, DWORD PTR __Right$[ebp]
  00008	2b 01		 sub	 eax, DWORD PTR [ecx]
  0000a	f7 d8		 neg	 eax
  0000c	1b c0		 sbb	 eax, eax
  0000e	40		 inc	 eax

; 204  : 		}

  0000f	5d		 pop	 ebp
  00010	c2 04 00	 ret	 4
??8?$_Vector_const_iterator@V?$_Vector_val@UPCRoomSoldierSelect@ExPCRoomSoldierBonusWnd@@V?$allocator@UPCRoomSoldierSelect@ExPCRoomSoldierBonusWnd@@@std@@@std@@@std@@QBE_NABV01@@Z ENDP ; std::_Vector_const_iterator<std::_Vector_val<ExPCRoomSoldierBonusWnd::PCRoomSoldierSelect,std::allocator<ExPCRoomSoldierBonusWnd::PCRoomSoldierSelect> > >::operator==
_TEXT	ENDS
PUBLIC	?max_size@?$vector@UPCRoomSoldierSelect@ExPCRoomSoldierBonusWnd@@V?$allocator@UPCRoomSoldierSelect@ExPCRoomSoldierBonusWnd@@@std@@@std@@QBEIXZ ; std::vector<ExPCRoomSoldierBonusWnd::PCRoomSoldierSelect,std::allocator<ExPCRoomSoldierBonusWnd::PCRoomSoldierSelect> >::max_size
; Function compile flags: /Ogsp
;	COMDAT ?max_size@?$vector@UPCRoomSoldierSelect@ExPCRoomSoldierBonusWnd@@V?$allocator@UPCRoomSoldierSelect@ExPCRoomSoldierBonusWnd@@@std@@@std@@QBEIXZ
_TEXT	SEGMENT
?max_size@?$vector@UPCRoomSoldierSelect@ExPCRoomSoldierBonusWnd@@V?$allocator@UPCRoomSoldierSelect@ExPCRoomSoldierBonusWnd@@@std@@@std@@QBEIXZ PROC ; std::vector<ExPCRoomSoldierBonusWnd::PCRoomSoldierSelect,std::allocator<ExPCRoomSoldierBonusWnd::PCRoomSoldierSelect> >::max_size, COMDAT
; _this$ = ecx

; 884  : 		return (this->_Alval.max_size());

  00000	b8 ff ff ff 1f	 mov	 eax, 536870911		; 1fffffffH

; 885  : 		}

  00005	c3		 ret	 0
?max_size@?$vector@UPCRoomSoldierSelect@ExPCRoomSoldierBonusWnd@@V?$allocator@UPCRoomSoldierSelect@ExPCRoomSoldierBonusWnd@@@std@@@std@@QBEIXZ ENDP ; std::vector<ExPCRoomSoldierBonusWnd::PCRoomSoldierSelect,std::allocator<ExPCRoomSoldierBonusWnd::PCRoomSoldierSelect> >::max_size
_TEXT	ENDS
PUBLIC	?_Grow_to@?$vector@UPCRoomSoldierSelect@ExPCRoomSoldierBonusWnd@@V?$allocator@UPCRoomSoldierSelect@ExPCRoomSoldierBonusWnd@@@std@@@std@@IBEII@Z ; std::vector<ExPCRoomSoldierBonusWnd::PCRoomSoldierSelect,std::allocator<ExPCRoomSoldierBonusWnd::PCRoomSoldierSelect> >::_Grow_to
; Function compile flags: /Ogsp
;	COMDAT ?_Grow_to@?$vector@UPCRoomSoldierSelect@ExPCRoomSoldierBonusWnd@@V?$allocator@UPCRoomSoldierSelect@ExPCRoomSoldierBonusWnd@@@std@@@std@@IBEII@Z
_TEXT	SEGMENT
__Count$ = 8						; size = 4
?_Grow_to@?$vector@UPCRoomSoldierSelect@ExPCRoomSoldierBonusWnd@@V?$allocator@UPCRoomSoldierSelect@ExPCRoomSoldierBonusWnd@@@std@@@std@@IBEII@Z PROC ; std::vector<ExPCRoomSoldierBonusWnd::PCRoomSoldierSelect,std::allocator<ExPCRoomSoldierBonusWnd::PCRoomSoldierSelect> >::_Grow_to, COMDAT
; _this$ = ecx

; 1274 : 		{	// grow by 50% or at least to _Count

  00000	55		 push	 ebp
  00001	8b ec		 mov	 ebp, esp

; 1275 : 		size_type _Capacity = capacity();

  00003	8b 41 08	 mov	 eax, DWORD PTR [ecx+8]
  00006	2b 01		 sub	 eax, DWORD PTR [ecx]

; 1276 : 
; 1277 : 		_Capacity = max_size() - _Capacity / 2 < _Capacity
; 1278 : 			? 0 : _Capacity + _Capacity / 2;	// try to grow by 50%

  00008	ba ff ff ff 1f	 mov	 edx, 536870911		; 1fffffffH
  0000d	c1 f8 03	 sar	 eax, 3
  00010	8b c8		 mov	 ecx, eax
  00012	d1 e9		 shr	 ecx, 1
  00014	2b d1		 sub	 edx, ecx
  00016	3b d0		 cmp	 edx, eax
  00018	73 04		 jae	 SHORT $LN4@Grow_to
  0001a	33 c0		 xor	 eax, eax
  0001c	eb 02		 jmp	 SHORT $LN5@Grow_to
$LN4@Grow_to:
  0001e	03 c1		 add	 eax, ecx
$LN5@Grow_to:

; 1279 : 		if (_Capacity < _Count)

  00020	3b 45 08	 cmp	 eax, DWORD PTR __Count$[ebp]

; 1280 : 			_Capacity = _Count;

  00023	0f 42 45 08	 cmovb	 eax, DWORD PTR __Count$[ebp]

; 1281 : 		return (_Capacity);
; 1282 : 		}

  00027	5d		 pop	 ebp
  00028	c2 04 00	 ret	 4
?_Grow_to@?$vector@UPCRoomSoldierSelect@ExPCRoomSoldierBonusWnd@@V?$allocator@UPCRoomSoldierSelect@ExPCRoomSoldierBonusWnd@@@std@@@std@@IBEII@Z ENDP ; std::vector<ExPCRoomSoldierBonusWnd::PCRoomSoldierSelect,std::allocator<ExPCRoomSoldierBonusWnd::PCRoomSoldierSelect> >::_Grow_to
_TEXT	ENDS
PUBLIC	?allocate@?$allocator@UPCRoomSoldierSelect@ExPCRoomSoldierBonusWnd@@@std@@QAEPAUPCRoomSoldierSelect@ExPCRoomSoldierBonusWnd@@I@Z ; std::allocator<ExPCRoomSoldierBonusWnd::PCRoomSoldierSelect>::allocate
; Function compile flags: /Ogsp
; File c:\program files (x86)\microsoft visual studio 10.0\vc\include\xmemory
;	COMDAT ?allocate@?$allocator@UPCRoomSoldierSelect@ExPCRoomSoldierBonusWnd@@@std@@QAEPAUPCRoomSoldierSelect@ExPCRoomSoldierBonusWnd@@I@Z
_TEXT	SEGMENT
__Count$ = 8						; size = 4
?allocate@?$allocator@UPCRoomSoldierSelect@ExPCRoomSoldierBonusWnd@@@std@@QAEPAUPCRoomSoldierSelect@ExPCRoomSoldierBonusWnd@@I@Z PROC ; std::allocator<ExPCRoomSoldierBonusWnd::PCRoomSoldierSelect>::allocate, COMDAT
; _this$ = ecx

; 186  : 		{	// allocate array of _Count elements

  00000	55		 push	 ebp
  00001	8b ec		 mov	 ebp, esp

; 187  : 		return (_Allocate(_Count, (pointer)0));

  00003	6a 00		 push	 0
  00005	ff 75 08	 push	 DWORD PTR __Count$[ebp]
  00008	e8 00 00 00 00	 call	 ??$_Allocate@UPCRoomSoldierSelect@ExPCRoomSoldierBonusWnd@@@std@@YAPAUPCRoomSoldierSelect@ExPCRoomSoldierBonusWnd@@IPAU12@@Z ; std::_Allocate<ExPCRoomSoldierBonusWnd::PCRoomSoldierSelect>
  0000d	59		 pop	 ecx
  0000e	59		 pop	 ecx

; 188  : 		}

  0000f	5d		 pop	 ebp
  00010	c2 04 00	 ret	 4
?allocate@?$allocator@UPCRoomSoldierSelect@ExPCRoomSoldierBonusWnd@@@std@@QAEPAUPCRoomSoldierSelect@ExPCRoomSoldierBonusWnd@@I@Z ENDP ; std::allocator<ExPCRoomSoldierBonusWnd::PCRoomSoldierSelect>::allocate
_TEXT	ENDS
PUBLIC	__$ArrayPad$
PUBLIC	??$?8$08@@YA_NABVioHashString@@AAY08$$CBD@Z	; operator==<9>
; Function compile flags: /Ogsp
; File d:\lost saga for developer\youtube\tutorial\source\src\io3dengine\iohashstring.h
;	COMDAT ??$?8$08@@YA_NABVioHashString@@AAY08$$CBD@Z
_TEXT	SEGMENT
__t$ = -20						; size = 9
__$ArrayPad$ = -4					; size = 4
_lhs$ = 8						; size = 4
_t$ = 12						; size = 4
??$?8$08@@YA_NABVioHashString@@AAY08$$CBD@Z PROC	; operator==<9>, COMDAT

; 146  : {

  00000	55		 push	 ebp
  00001	8b ec		 mov	 ebp, esp
  00003	83 ec 14	 sub	 esp, 20			; 00000014H
  00006	a1 00 00 00 00	 mov	 eax, DWORD PTR ___security_cookie
  0000b	33 c5		 xor	 eax, ebp
  0000d	89 45 fc	 mov	 DWORD PTR __$ArrayPad$[ebp], eax
  00010	8b 45 0c	 mov	 eax, DWORD PTR _t$[ebp]

; 147  : 	_ENCSTR(t, _t); return ( strcmp( lhs.c_str(), _t ) == 0 );

  00013	8a 10		 mov	 dl, BYTE PTR [eax]
  00015	8b 4d 08	 mov	 ecx, DWORD PTR _lhs$[ebp]
  00018	84 d2		 test	 dl, dl
  0001a	0f 84 ee 00 00
	00		 je	 $LN96@operator
  00020	80 f2 ed	 xor	 dl, -19			; ffffffedH
  00023	88 55 ec	 mov	 BYTE PTR __t$[ebp], dl
  00026	8a 50 01	 mov	 dl, BYTE PTR [eax+1]
  00029	84 d2		 test	 dl, dl
  0002b	0f 84 d7 00 00
	00		 je	 $LN95@operator
  00031	80 f2 ec	 xor	 dl, -20			; ffffffecH
  00034	88 55 ed	 mov	 BYTE PTR __t$[ebp+1], dl
  00037	8a 50 02	 mov	 dl, BYTE PTR [eax+2]
  0003a	84 d2		 test	 dl, dl
  0003c	0f 84 c0 00 00
	00		 je	 $LN94@operator
  00042	80 f2 eb	 xor	 dl, -21			; ffffffebH
  00045	88 55 ee	 mov	 BYTE PTR __t$[ebp+2], dl
  00048	8a 50 03	 mov	 dl, BYTE PTR [eax+3]
  0004b	84 d2		 test	 dl, dl
  0004d	0f 84 a9 00 00
	00		 je	 $LN93@operator
  00053	80 f2 ea	 xor	 dl, -22			; ffffffeaH
  00056	88 55 ef	 mov	 BYTE PTR __t$[ebp+3], dl
  00059	8a 50 04	 mov	 dl, BYTE PTR [eax+4]
  0005c	84 d2		 test	 dl, dl
  0005e	0f 84 92 00 00
	00		 je	 $LN92@operator
  00064	80 f2 ed	 xor	 dl, -19			; ffffffedH
  00067	88 55 f0	 mov	 BYTE PTR __t$[ebp+4], dl
  0006a	8a 50 05	 mov	 dl, BYTE PTR [eax+5]
  0006d	84 d2		 test	 dl, dl
  0006f	74 7f		 je	 SHORT $LN91@operator
  00071	80 f2 ec	 xor	 dl, -20			; ffffffecH
  00074	88 55 f1	 mov	 BYTE PTR __t$[ebp+5], dl
  00077	8a 50 06	 mov	 dl, BYTE PTR [eax+6]
  0007a	84 d2		 test	 dl, dl
  0007c	74 6c		 je	 SHORT $LN90@operator
  0007e	80 f2 eb	 xor	 dl, -21			; ffffffebH
  00081	88 55 f2	 mov	 BYTE PTR __t$[ebp+6], dl
  00084	8a 50 07	 mov	 dl, BYTE PTR [eax+7]
  00087	84 d2		 test	 dl, dl
  00089	74 59		 je	 SHORT $LN89@operator
  0008b	80 f2 ea	 xor	 dl, -22			; ffffffeaH
  0008e	80 78 08 00	 cmp	 BYTE PTR [eax+8], 0
  00092	88 55 f3	 mov	 BYTE PTR __t$[ebp+7], dl
  00095	74 7b		 je	 SHORT $LN1@operator
  00097	8a 50 09	 mov	 dl, BYTE PTR [eax+9]
  0009a	84 d2		 test	 dl, dl
  0009c	74 40		 je	 SHORT $LN87@operator
  0009e	80 f2 ec	 xor	 dl, -20			; ffffffecH
  000a1	88 55 f5	 mov	 BYTE PTR __t$[ebp+9], dl
  000a4	8a 50 0a	 mov	 dl, BYTE PTR [eax+10]
  000a7	84 d2		 test	 dl, dl
  000a9	74 2d		 je	 SHORT $LN86@operator
  000ab	80 f2 eb	 xor	 dl, -21			; ffffffebH
  000ae	88 55 f6	 mov	 BYTE PTR __t$[ebp+10], dl
  000b1	8a 50 0b	 mov	 dl, BYTE PTR [eax+11]
  000b4	84 d2		 test	 dl, dl
  000b6	74 1a		 je	 SHORT $LN85@operator
  000b8	8a 40 0c	 mov	 al, BYTE PTR [eax+12]
  000bb	80 f2 ea	 xor	 dl, -22			; ffffffeaH
  000be	88 55 f7	 mov	 BYTE PTR __t$[ebp+11], dl
  000c1	84 c0		 test	 al, al
  000c3	74 07		 je	 SHORT $LN84@operator
  000c5	34 ed		 xor	 al, -19			; ffffffedH
  000c7	88 45 f8	 mov	 BYTE PTR __t$[ebp+12], al
  000ca	eb 46		 jmp	 SHORT $LN1@operator
$LN84@operator:
  000cc	c6 45 f8 ed	 mov	 BYTE PTR __t$[ebp+12], -19 ; ffffffedH
  000d0	eb 40		 jmp	 SHORT $LN1@operator
$LN85@operator:
  000d2	c6 45 f7 ea	 mov	 BYTE PTR __t$[ebp+11], -22 ; ffffffeaH
  000d6	eb 3a		 jmp	 SHORT $LN1@operator
$LN86@operator:
  000d8	c6 45 f6 eb	 mov	 BYTE PTR __t$[ebp+10], -21 ; ffffffebH
  000dc	eb 34		 jmp	 SHORT $LN1@operator
$LN87@operator:
  000de	c6 45 f5 ec	 mov	 BYTE PTR __t$[ebp+9], -20 ; ffffffecH
  000e2	eb 2e		 jmp	 SHORT $LN1@operator
$LN89@operator:
  000e4	c6 45 f3 ea	 mov	 BYTE PTR __t$[ebp+7], -22 ; ffffffeaH
  000e8	eb 28		 jmp	 SHORT $LN1@operator
$LN90@operator:
  000ea	c6 45 f2 eb	 mov	 BYTE PTR __t$[ebp+6], -21 ; ffffffebH
  000ee	eb 22		 jmp	 SHORT $LN1@operator
$LN91@operator:
  000f0	c6 45 f1 ec	 mov	 BYTE PTR __t$[ebp+5], -20 ; ffffffecH
  000f4	eb 1c		 jmp	 SHORT $LN1@operator
$LN92@operator:
  000f6	c6 45 f0 ed	 mov	 BYTE PTR __t$[ebp+4], -19 ; ffffffedH
  000fa	eb 16		 jmp	 SHORT $LN1@operator
$LN93@operator:
  000fc	c6 45 ef ea	 mov	 BYTE PTR __t$[ebp+3], -22 ; ffffffeaH
  00100	eb 10		 jmp	 SHORT $LN1@operator
$LN94@operator:
  00102	c6 45 ee eb	 mov	 BYTE PTR __t$[ebp+2], -21 ; ffffffebH
  00106	eb 0a		 jmp	 SHORT $LN1@operator
$LN95@operator:
  00108	c6 45 ed ec	 mov	 BYTE PTR __t$[ebp+1], -20 ; ffffffecH
  0010c	eb 04		 jmp	 SHORT $LN1@operator
$LN96@operator:
  0010e	c6 45 ec ed	 mov	 BYTE PTR __t$[ebp], -19	; ffffffedH
$LN1@operator:
  00112	6a 02		 push	 2
  00114	8d 45 ec	 lea	 eax, DWORD PTR __t$[ebp]
  00117	c6 45 f4 00	 mov	 BYTE PTR __t$[ebp+8], 0
  0011b	5a		 pop	 edx
$LL104@operator:
  0011c	81 30 ed ec eb
	ea		 xor	 DWORD PTR [eax], -353637139 ; eaebecedH
  00122	83 c0 04	 add	 eax, 4
  00125	4a		 dec	 edx
  00126	75 f4		 jne	 SHORT $LL104@operator
  00128	56		 push	 esi
  00129	8d 75 ec	 lea	 esi, DWORD PTR __t$[ebp]
  0012c	ff 15 00 00 00
	00		 call	 DWORD PTR __imp_?c_str@ioHashString@@QBEPBDXZ
$LL111@operator:
  00132	8a 08		 mov	 cl, BYTE PTR [eax]
  00134	3a 0e		 cmp	 cl, BYTE PTR [esi]
  00136	75 1a		 jne	 SHORT $LN112@operator
  00138	84 c9		 test	 cl, cl
  0013a	74 12		 je	 SHORT $LN113@operator
  0013c	8a 48 01	 mov	 cl, BYTE PTR [eax+1]
  0013f	3a 4e 01	 cmp	 cl, BYTE PTR [esi+1]
  00142	75 0e		 jne	 SHORT $LN112@operator
  00144	83 c0 02	 add	 eax, 2
  00147	83 c6 02	 add	 esi, 2
  0014a	84 c9		 test	 cl, cl
  0014c	75 e4		 jne	 SHORT $LL111@operator
$LN113@operator:
  0014e	33 c0		 xor	 eax, eax
  00150	eb 05		 jmp	 SHORT $LN114@operator
$LN112@operator:
  00152	1b c0		 sbb	 eax, eax
  00154	83 d8 ff	 sbb	 eax, -1
$LN114@operator:
  00157	33 c9		 xor	 ecx, ecx
  00159	85 c0		 test	 eax, eax
  0015b	0f 94 c0	 sete	 al

; 148  : }

  0015e	8b 4d fc	 mov	 ecx, DWORD PTR __$ArrayPad$[ebp]
  00161	33 cd		 xor	 ecx, ebp
  00163	5e		 pop	 esi
  00164	e8 00 00 00 00	 call	 @__security_check_cookie@4
  00169	c9		 leave
  0016a	c3		 ret	 0
??$?8$08@@YA_NABVioHashString@@AAY08$$CBD@Z ENDP	; operator==<9>
_TEXT	ENDS
PUBLIC	__$ArrayPad$
PUBLIC	??$?8$07@@YA_NABVioHashString@@AAY07$$CBD@Z	; operator==<8>
; Function compile flags: /Ogsp
;	COMDAT ??$?8$07@@YA_NABVioHashString@@AAY07$$CBD@Z
_TEXT	SEGMENT
__t$ = -16						; size = 8
__$ArrayPad$ = -4					; size = 4
_lhs$ = 8						; size = 4
_t$ = 12						; size = 4
??$?8$07@@YA_NABVioHashString@@AAY07$$CBD@Z PROC	; operator==<8>, COMDAT

; 146  : {

  00000	55		 push	 ebp
  00001	8b ec		 mov	 ebp, esp
  00003	83 ec 10	 sub	 esp, 16			; 00000010H
  00006	a1 00 00 00 00	 mov	 eax, DWORD PTR ___security_cookie
  0000b	33 c5		 xor	 eax, ebp
  0000d	89 45 fc	 mov	 DWORD PTR __$ArrayPad$[ebp], eax
  00010	8b 45 0c	 mov	 eax, DWORD PTR _t$[ebp]

; 147  : 	_ENCSTR(t, _t); return ( strcmp( lhs.c_str(), _t ) == 0 );

  00013	8a 10		 mov	 dl, BYTE PTR [eax]
  00015	56		 push	 esi
  00016	57		 push	 edi
  00017	8b 7d 08	 mov	 edi, DWORD PTR _lhs$[ebp]
  0001a	84 d2		 test	 dl, dl
  0001c	0f 84 d7 00 00
	00		 je	 $LN96@operator@2
  00022	80 f2 ed	 xor	 dl, -19			; ffffffedH
  00025	88 55 f0	 mov	 BYTE PTR __t$[ebp], dl
  00028	8a 50 01	 mov	 dl, BYTE PTR [eax+1]
  0002b	84 d2		 test	 dl, dl
  0002d	0f 84 c0 00 00
	00		 je	 $LN95@operator@2
  00033	80 f2 ec	 xor	 dl, -20			; ffffffecH
  00036	88 55 f1	 mov	 BYTE PTR __t$[ebp+1], dl
  00039	8a 50 02	 mov	 dl, BYTE PTR [eax+2]
  0003c	84 d2		 test	 dl, dl
  0003e	0f 84 a9 00 00
	00		 je	 $LN94@operator@2
  00044	80 f2 eb	 xor	 dl, -21			; ffffffebH
  00047	88 55 f2	 mov	 BYTE PTR __t$[ebp+2], dl
  0004a	8a 50 03	 mov	 dl, BYTE PTR [eax+3]
  0004d	84 d2		 test	 dl, dl
  0004f	0f 84 92 00 00
	00		 je	 $LN93@operator@2
  00055	80 f2 ea	 xor	 dl, -22			; ffffffeaH
  00058	88 55 f3	 mov	 BYTE PTR __t$[ebp+3], dl
  0005b	8a 50 04	 mov	 dl, BYTE PTR [eax+4]
  0005e	84 d2		 test	 dl, dl
  00060	74 7f		 je	 SHORT $LN92@operator@2
  00062	80 f2 ed	 xor	 dl, -19			; ffffffedH
  00065	88 55 f4	 mov	 BYTE PTR __t$[ebp+4], dl
  00068	8a 50 05	 mov	 dl, BYTE PTR [eax+5]
  0006b	84 d2		 test	 dl, dl
  0006d	74 6c		 je	 SHORT $LN91@operator@2
  0006f	80 f2 ec	 xor	 dl, -20			; ffffffecH
  00072	88 55 f5	 mov	 BYTE PTR __t$[ebp+5], dl
  00075	8a 50 06	 mov	 dl, BYTE PTR [eax+6]
  00078	84 d2		 test	 dl, dl
  0007a	74 59		 je	 SHORT $LN90@operator@2
  0007c	80 f2 eb	 xor	 dl, -21			; ffffffebH
  0007f	80 78 07 00	 cmp	 BYTE PTR [eax+7], 0
  00083	88 55 f6	 mov	 BYTE PTR __t$[ebp+6], dl
  00086	74 75		 je	 SHORT $LN1@operator@2
  00088	8a 50 08	 mov	 dl, BYTE PTR [eax+8]
  0008b	84 d2		 test	 dl, dl
  0008d	74 40		 je	 SHORT $LN88@operator@2
  0008f	80 f2 ed	 xor	 dl, -19			; ffffffedH
  00092	88 55 f8	 mov	 BYTE PTR __t$[ebp+8], dl
  00095	8a 50 09	 mov	 dl, BYTE PTR [eax+9]
  00098	84 d2		 test	 dl, dl
  0009a	74 2d		 je	 SHORT $LN87@operator@2
  0009c	80 f2 ec	 xor	 dl, -20			; ffffffecH
  0009f	88 55 f9	 mov	 BYTE PTR __t$[ebp+9], dl
  000a2	8a 50 0a	 mov	 dl, BYTE PTR [eax+10]
  000a5	84 d2		 test	 dl, dl
  000a7	74 1a		 je	 SHORT $LN86@operator@2
  000a9	8a 40 0b	 mov	 al, BYTE PTR [eax+11]
  000ac	80 f2 eb	 xor	 dl, -21			; ffffffebH
  000af	88 55 fa	 mov	 BYTE PTR __t$[ebp+10], dl
  000b2	84 c0		 test	 al, al
  000b4	74 07		 je	 SHORT $LN85@operator@2
  000b6	34 ea		 xor	 al, -22			; ffffffeaH
  000b8	88 45 fb	 mov	 BYTE PTR __t$[ebp+11], al
  000bb	eb 40		 jmp	 SHORT $LN1@operator@2
$LN85@operator@2:
  000bd	c6 45 fb ea	 mov	 BYTE PTR __t$[ebp+11], -22 ; ffffffeaH
  000c1	eb 3a		 jmp	 SHORT $LN1@operator@2
$LN86@operator@2:
  000c3	c6 45 fa eb	 mov	 BYTE PTR __t$[ebp+10], -21 ; ffffffebH
  000c7	eb 34		 jmp	 SHORT $LN1@operator@2
$LN87@operator@2:
  000c9	c6 45 f9 ec	 mov	 BYTE PTR __t$[ebp+9], -20 ; ffffffecH
  000cd	eb 2e		 jmp	 SHORT $LN1@operator@2
$LN88@operator@2:
  000cf	c6 45 f8 ed	 mov	 BYTE PTR __t$[ebp+8], -19 ; ffffffedH
  000d3	eb 28		 jmp	 SHORT $LN1@operator@2
$LN90@operator@2:
  000d5	c6 45 f6 eb	 mov	 BYTE PTR __t$[ebp+6], -21 ; ffffffebH
  000d9	eb 22		 jmp	 SHORT $LN1@operator@2
$LN91@operator@2:
  000db	c6 45 f5 ec	 mov	 BYTE PTR __t$[ebp+5], -20 ; ffffffecH
  000df	eb 1c		 jmp	 SHORT $LN1@operator@2
$LN92@operator@2:
  000e1	c6 45 f4 ed	 mov	 BYTE PTR __t$[ebp+4], -19 ; ffffffedH
  000e5	eb 16		 jmp	 SHORT $LN1@operator@2
$LN93@operator@2:
  000e7	c6 45 f3 ea	 mov	 BYTE PTR __t$[ebp+3], -22 ; ffffffeaH
  000eb	eb 10		 jmp	 SHORT $LN1@operator@2
$LN94@operator@2:
  000ed	c6 45 f2 eb	 mov	 BYTE PTR __t$[ebp+2], -21 ; ffffffebH
  000f1	eb 0a		 jmp	 SHORT $LN1@operator@2
$LN95@operator@2:
  000f3	c6 45 f1 ec	 mov	 BYTE PTR __t$[ebp+1], -20 ; ffffffecH
  000f7	eb 04		 jmp	 SHORT $LN1@operator@2
$LN96@operator@2:
  000f9	c6 45 f0 ed	 mov	 BYTE PTR __t$[ebp], -19	; ffffffedH
$LN1@operator@2:
  000fd	81 75 f0 ed ec
	eb ea		 xor	 DWORD PTR __t$[ebp], -353637139 ; eaebecedH
  00104	6a 04		 push	 4
  00106	c6 45 f7 00	 mov	 BYTE PTR __t$[ebp+7], 0
  0010a	58		 pop	 eax
$LL101@operator@2:
  0010b	8b c8		 mov	 ecx, eax
  0010d	81 e1 03 00 00
	80		 and	 ecx, -2147483645	; 80000003H
  00113	79 05		 jns	 SHORT $LN115@operator@2
  00115	49		 dec	 ecx
  00116	83 c9 fc	 or	 ecx, -4			; fffffffcH
  00119	41		 inc	 ecx
$LN115@operator@2:
  0011a	b2 ed		 mov	 dl, -19			; ffffffedH
  0011c	2a d1		 sub	 dl, cl
  0011e	30 54 05 f0	 xor	 BYTE PTR __t$[ebp+eax], dl
  00122	40		 inc	 eax
  00123	83 f8 07	 cmp	 eax, 7
  00126	7c e3		 jl	 SHORT $LL101@operator@2
  00128	8b cf		 mov	 ecx, edi
  0012a	8d 75 f0	 lea	 esi, DWORD PTR __t$[ebp]
  0012d	ff 15 00 00 00
	00		 call	 DWORD PTR __imp_?c_str@ioHashString@@QBEPBDXZ
$LL111@operator@2:
  00133	8a 08		 mov	 cl, BYTE PTR [eax]
  00135	3a 0e		 cmp	 cl, BYTE PTR [esi]
  00137	75 1a		 jne	 SHORT $LN112@operator@2
  00139	84 c9		 test	 cl, cl
  0013b	74 12		 je	 SHORT $LN113@operator@2
  0013d	8a 48 01	 mov	 cl, BYTE PTR [eax+1]
  00140	3a 4e 01	 cmp	 cl, BYTE PTR [esi+1]
  00143	75 0e		 jne	 SHORT $LN112@operator@2
  00145	83 c0 02	 add	 eax, 2
  00148	83 c6 02	 add	 esi, 2
  0014b	84 c9		 test	 cl, cl
  0014d	75 e4		 jne	 SHORT $LL111@operator@2
$LN113@operator@2:
  0014f	33 c0		 xor	 eax, eax
  00151	eb 05		 jmp	 SHORT $LN114@operator@2
$LN112@operator@2:
  00153	1b c0		 sbb	 eax, eax
  00155	83 d8 ff	 sbb	 eax, -1
$LN114@operator@2:
  00158	33 c9		 xor	 ecx, ecx
  0015a	85 c0		 test	 eax, eax
  0015c	0f 94 c0	 sete	 al

; 148  : }

  0015f	8b 4d fc	 mov	 ecx, DWORD PTR __$ArrayPad$[ebp]
  00162	5f		 pop	 edi
  00163	33 cd		 xor	 ecx, ebp
  00165	5e		 pop	 esi
  00166	e8 00 00 00 00	 call	 @__security_check_cookie@4
  0016b	c9		 leave
  0016c	c3		 ret	 0
??$?8$07@@YA_NABVioHashString@@AAY07$$CBD@Z ENDP	; operator==<8>
_TEXT	ENDS
PUBLIC	__$ArrayPad$
PUBLIC	??$?8$0N@@@YA_NABVioHashString@@AAY0N@$$CBD@Z	; operator==<13>
; Function compile flags: /Ogsp
;	COMDAT ??$?8$0N@@@YA_NABVioHashString@@AAY0N@$$CBD@Z
_TEXT	SEGMENT
__t$ = -24						; size = 13
__$ArrayPad$ = -4					; size = 4
_lhs$ = 8						; size = 4
_t$ = 12						; size = 4
??$?8$0N@@@YA_NABVioHashString@@AAY0N@$$CBD@Z PROC	; operator==<13>, COMDAT

; 146  : {

  00000	55		 push	 ebp
  00001	8b ec		 mov	 ebp, esp
  00003	83 ec 18	 sub	 esp, 24			; 00000018H
  00006	a1 00 00 00 00	 mov	 eax, DWORD PTR ___security_cookie
  0000b	33 c5		 xor	 eax, ebp
  0000d	89 45 fc	 mov	 DWORD PTR __$ArrayPad$[ebp], eax
  00010	8b 45 0c	 mov	 eax, DWORD PTR _t$[ebp]

; 147  : 	_ENCSTR(t, _t); return ( strcmp( lhs.c_str(), _t ) == 0 );

  00013	8a 10		 mov	 dl, BYTE PTR [eax]
  00015	56		 push	 esi
  00016	57		 push	 edi
  00017	8b 7d 08	 mov	 edi, DWORD PTR _lhs$[ebp]
  0001a	84 d2		 test	 dl, dl
  0001c	0f 84 4d 01 00
	00		 je	 $LN96@operator@3
  00022	80 f2 ed	 xor	 dl, -19			; ffffffedH
  00025	88 55 e8	 mov	 BYTE PTR __t$[ebp], dl
  00028	8a 50 01	 mov	 dl, BYTE PTR [eax+1]
  0002b	84 d2		 test	 dl, dl
  0002d	0f 84 36 01 00
	00		 je	 $LN95@operator@3
  00033	b1 ec		 mov	 cl, -20			; ffffffecH
  00035	32 d1		 xor	 dl, cl
  00037	88 55 e9	 mov	 BYTE PTR __t$[ebp+1], dl
  0003a	8a 50 02	 mov	 dl, BYTE PTR [eax+2]
  0003d	84 d2		 test	 dl, dl
  0003f	0f 84 1e 01 00
	00		 je	 $LN94@operator@3
  00045	80 f2 eb	 xor	 dl, -21			; ffffffebH
  00048	88 55 ea	 mov	 BYTE PTR __t$[ebp+2], dl
  0004b	8a 50 03	 mov	 dl, BYTE PTR [eax+3]
  0004e	84 d2		 test	 dl, dl
  00050	0f 84 07 01 00
	00		 je	 $LN93@operator@3
  00056	80 f2 ea	 xor	 dl, -22			; ffffffeaH
  00059	88 55 eb	 mov	 BYTE PTR __t$[ebp+3], dl
  0005c	8a 50 04	 mov	 dl, BYTE PTR [eax+4]
  0005f	84 d2		 test	 dl, dl
  00061	0f 84 f0 00 00
	00		 je	 $LN92@operator@3
  00067	80 f2 ed	 xor	 dl, -19			; ffffffedH
  0006a	88 55 ec	 mov	 BYTE PTR __t$[ebp+4], dl
  0006d	8a 50 05	 mov	 dl, BYTE PTR [eax+5]
  00070	84 d2		 test	 dl, dl
  00072	0f 84 da 00 00
	00		 je	 $LN91@operator@3
  00078	32 d1		 xor	 dl, cl
  0007a	88 55 ed	 mov	 BYTE PTR __t$[ebp+5], dl
  0007d	8a 50 06	 mov	 dl, BYTE PTR [eax+6]
  00080	84 d2		 test	 dl, dl
  00082	0f 84 c4 00 00
	00		 je	 $LN90@operator@3
  00088	80 f2 eb	 xor	 dl, -21			; ffffffebH
  0008b	88 55 ee	 mov	 BYTE PTR __t$[ebp+6], dl
  0008e	8a 50 07	 mov	 dl, BYTE PTR [eax+7]
  00091	84 d2		 test	 dl, dl
  00093	0f 84 ad 00 00
	00		 je	 $LN89@operator@3
  00099	80 f2 ea	 xor	 dl, -22			; ffffffeaH
  0009c	88 55 ef	 mov	 BYTE PTR __t$[ebp+7], dl
  0009f	8a 50 08	 mov	 dl, BYTE PTR [eax+8]
  000a2	84 d2		 test	 dl, dl
  000a4	0f 84 96 00 00
	00		 je	 $LN88@operator@3
  000aa	80 f2 ed	 xor	 dl, -19			; ffffffedH
  000ad	88 55 f0	 mov	 BYTE PTR __t$[ebp+8], dl
  000b0	8a 50 09	 mov	 dl, BYTE PTR [eax+9]
  000b3	84 d2		 test	 dl, dl
  000b5	0f 84 80 00 00
	00		 je	 $LN87@operator@3
  000bb	32 d1		 xor	 dl, cl
  000bd	88 55 f1	 mov	 BYTE PTR __t$[ebp+9], dl
  000c0	8a 50 0a	 mov	 dl, BYTE PTR [eax+10]
  000c3	84 d2		 test	 dl, dl
  000c5	74 6e		 je	 SHORT $LN86@operator@3
  000c7	80 f2 eb	 xor	 dl, -21			; ffffffebH
  000ca	88 55 f2	 mov	 BYTE PTR __t$[ebp+10], dl
  000cd	8a 50 0b	 mov	 dl, BYTE PTR [eax+11]
  000d0	84 d2		 test	 dl, dl
  000d2	74 5b		 je	 SHORT $LN85@operator@3
  000d4	80 f2 ea	 xor	 dl, -22			; ffffffeaH
  000d7	80 78 0c 00	 cmp	 BYTE PTR [eax+12], 0
  000db	88 55 f3	 mov	 BYTE PTR __t$[ebp+11], dl
  000de	0f 84 8f 00 00
	00		 je	 $LN1@operator@3
  000e4	8a 50 0d	 mov	 dl, BYTE PTR [eax+13]
  000e7	84 d2		 test	 dl, dl
  000e9	74 3f		 je	 SHORT $LN83@operator@3
  000eb	32 d1		 xor	 dl, cl
  000ed	88 55 f5	 mov	 BYTE PTR __t$[ebp+13], dl
  000f0	8a 50 0e	 mov	 dl, BYTE PTR [eax+14]
  000f3	84 d2		 test	 dl, dl
  000f5	74 2d		 je	 SHORT $LN82@operator@3
  000f7	80 f2 eb	 xor	 dl, -21			; ffffffebH
  000fa	88 55 f6	 mov	 BYTE PTR __t$[ebp+14], dl
  000fd	8a 50 0f	 mov	 dl, BYTE PTR [eax+15]
  00100	84 d2		 test	 dl, dl
  00102	74 1a		 je	 SHORT $LN81@operator@3
  00104	8a 40 10	 mov	 al, BYTE PTR [eax+16]
  00107	80 f2 ea	 xor	 dl, -22			; ffffffeaH
  0010a	88 55 f7	 mov	 BYTE PTR __t$[ebp+15], dl
  0010d	84 c0		 test	 al, al
  0010f	74 07		 je	 SHORT $LN80@operator@3
  00111	34 ed		 xor	 al, -19			; ffffffedH
  00113	88 45 f8	 mov	 BYTE PTR __t$[ebp+16], al
  00116	eb 5b		 jmp	 SHORT $LN1@operator@3
$LN80@operator@3:
  00118	c6 45 f8 ed	 mov	 BYTE PTR __t$[ebp+16], -19 ; ffffffedH
  0011c	eb 55		 jmp	 SHORT $LN1@operator@3
$LN81@operator@3:
  0011e	c6 45 f7 ea	 mov	 BYTE PTR __t$[ebp+15], -22 ; ffffffeaH
  00122	eb 4f		 jmp	 SHORT $LN1@operator@3
$LN82@operator@3:
  00124	c6 45 f6 eb	 mov	 BYTE PTR __t$[ebp+14], -21 ; ffffffebH
  00128	eb 49		 jmp	 SHORT $LN1@operator@3
$LN83@operator@3:
  0012a	88 4d f5	 mov	 BYTE PTR __t$[ebp+13], cl
  0012d	eb 44		 jmp	 SHORT $LN1@operator@3
$LN85@operator@3:
  0012f	c6 45 f3 ea	 mov	 BYTE PTR __t$[ebp+11], -22 ; ffffffeaH
  00133	eb 3e		 jmp	 SHORT $LN1@operator@3
$LN86@operator@3:
  00135	c6 45 f2 eb	 mov	 BYTE PTR __t$[ebp+10], -21 ; ffffffebH
  00139	eb 38		 jmp	 SHORT $LN1@operator@3
$LN87@operator@3:
  0013b	88 4d f1	 mov	 BYTE PTR __t$[ebp+9], cl
  0013e	eb 33		 jmp	 SHORT $LN1@operator@3
$LN88@operator@3:
  00140	c6 45 f0 ed	 mov	 BYTE PTR __t$[ebp+8], -19 ; ffffffedH
  00144	eb 2d		 jmp	 SHORT $LN1@operator@3
$LN89@operator@3:
  00146	c6 45 ef ea	 mov	 BYTE PTR __t$[ebp+7], -22 ; ffffffeaH
  0014a	eb 27		 jmp	 SHORT $LN1@operator@3
$LN90@operator@3:
  0014c	c6 45 ee eb	 mov	 BYTE PTR __t$[ebp+6], -21 ; ffffffebH
  00150	eb 21		 jmp	 SHORT $LN1@operator@3
$LN91@operator@3:
  00152	88 4d ed	 mov	 BYTE PTR __t$[ebp+5], cl
  00155	eb 1c		 jmp	 SHORT $LN1@operator@3
$LN92@operator@3:
  00157	c6 45 ec ed	 mov	 BYTE PTR __t$[ebp+4], -19 ; ffffffedH
  0015b	eb 16		 jmp	 SHORT $LN1@operator@3
$LN93@operator@3:
  0015d	c6 45 eb ea	 mov	 BYTE PTR __t$[ebp+3], -22 ; ffffffeaH
  00161	eb 10		 jmp	 SHORT $LN1@operator@3
$LN94@operator@3:
  00163	c6 45 ea eb	 mov	 BYTE PTR __t$[ebp+2], -21 ; ffffffebH
  00167	eb 0a		 jmp	 SHORT $LN1@operator@3
$LN95@operator@3:
  00169	c6 45 e9 ec	 mov	 BYTE PTR __t$[ebp+1], -20 ; ffffffecH
  0016d	eb 04		 jmp	 SHORT $LN1@operator@3
$LN96@operator@3:
  0016f	c6 45 e8 ed	 mov	 BYTE PTR __t$[ebp], -19	; ffffffedH
$LN1@operator@3:
  00173	6a 03		 push	 3
  00175	8d 45 e8	 lea	 eax, DWORD PTR __t$[ebp]
  00178	c6 45 f4 00	 mov	 BYTE PTR __t$[ebp+12], 0
  0017c	5a		 pop	 edx
$LL104@operator@3:
  0017d	81 30 ed ec eb
	ea		 xor	 DWORD PTR [eax], -353637139 ; eaebecedH
  00183	83 c0 04	 add	 eax, 4
  00186	4a		 dec	 edx
  00187	75 f4		 jne	 SHORT $LL104@operator@3
  00189	8b cf		 mov	 ecx, edi
  0018b	8d 75 e8	 lea	 esi, DWORD PTR __t$[ebp]
  0018e	ff 15 00 00 00
	00		 call	 DWORD PTR __imp_?c_str@ioHashString@@QBEPBDXZ
$LL111@operator@3:
  00194	8a 08		 mov	 cl, BYTE PTR [eax]
  00196	3a 0e		 cmp	 cl, BYTE PTR [esi]
  00198	75 1a		 jne	 SHORT $LN112@operator@3
  0019a	84 c9		 test	 cl, cl
  0019c	74 12		 je	 SHORT $LN113@operator@3
  0019e	8a 48 01	 mov	 cl, BYTE PTR [eax+1]
  001a1	3a 4e 01	 cmp	 cl, BYTE PTR [esi+1]
  001a4	75 0e		 jne	 SHORT $LN112@operator@3
  001a6	83 c0 02	 add	 eax, 2
  001a9	83 c6 02	 add	 esi, 2
  001ac	84 c9		 test	 cl, cl
  001ae	75 e4		 jne	 SHORT $LL111@operator@3
$LN113@operator@3:
  001b0	33 c0		 xor	 eax, eax
  001b2	eb 05		 jmp	 SHORT $LN114@operator@3
$LN112@operator@3:
  001b4	1b c0		 sbb	 eax, eax
  001b6	83 d8 ff	 sbb	 eax, -1
$LN114@operator@3:
  001b9	33 c9		 xor	 ecx, ecx
  001bb	85 c0		 test	 eax, eax
  001bd	0f 94 c0	 sete	 al

; 148  : }

  001c0	8b 4d fc	 mov	 ecx, DWORD PTR __$ArrayPad$[ebp]
  001c3	5f		 pop	 edi
  001c4	33 cd		 xor	 ecx, ebp
  001c6	5e		 pop	 esi
  001c7	e8 00 00 00 00	 call	 @__security_check_cookie@4
  001cc	c9		 leave
  001cd	c3		 ret	 0
??$?8$0N@@@YA_NABVioHashString@@AAY0N@$$CBD@Z ENDP	; operator==<13>
_TEXT	ENDS
PUBLIC	__$ArrayPad$
PUBLIC	??$?8$0BA@@@YA_NABVioHashString@@AAY0BA@$$CBD@Z	; operator==<16>
; Function compile flags: /Ogsp
;	COMDAT ??$?8$0BA@@@YA_NABVioHashString@@AAY0BA@$$CBD@Z
_TEXT	SEGMENT
__t$ = -24						; size = 16
__$ArrayPad$ = -4					; size = 4
_lhs$ = 8						; size = 4
_t$ = 12						; size = 4
??$?8$0BA@@@YA_NABVioHashString@@AAY0BA@$$CBD@Z PROC	; operator==<16>, COMDAT

; 146  : {

  00000	55		 push	 ebp
  00001	8b ec		 mov	 ebp, esp
  00003	83 ec 18	 sub	 esp, 24			; 00000018H
  00006	a1 00 00 00 00	 mov	 eax, DWORD PTR ___security_cookie
  0000b	33 c5		 xor	 eax, ebp
  0000d	89 45 fc	 mov	 DWORD PTR __$ArrayPad$[ebp], eax
  00010	8b 45 0c	 mov	 eax, DWORD PTR _t$[ebp]

; 147  : 	_ENCSTR(t, _t); return ( strcmp( lhs.c_str(), _t ) == 0 );

  00013	8a 10		 mov	 dl, BYTE PTR [eax]
  00015	56		 push	 esi
  00016	57		 push	 edi
  00017	8b 7d 08	 mov	 edi, DWORD PTR _lhs$[ebp]
  0001a	84 d2		 test	 dl, dl
  0001c	0f 84 8c 01 00
	00		 je	 $LN96@operator@4
  00022	80 f2 ed	 xor	 dl, -19			; ffffffedH
  00025	88 55 e8	 mov	 BYTE PTR __t$[ebp], dl
  00028	8a 50 01	 mov	 dl, BYTE PTR [eax+1]
  0002b	84 d2		 test	 dl, dl
  0002d	0f 84 75 01 00
	00		 je	 $LN95@operator@4
  00033	80 f2 ec	 xor	 dl, -20			; ffffffecH
  00036	88 55 e9	 mov	 BYTE PTR __t$[ebp+1], dl
  00039	8a 50 02	 mov	 dl, BYTE PTR [eax+2]
  0003c	84 d2		 test	 dl, dl
  0003e	0f 84 5e 01 00
	00		 je	 $LN94@operator@4
  00044	b1 eb		 mov	 cl, -21			; ffffffebH
  00046	32 d1		 xor	 dl, cl
  00048	88 55 ea	 mov	 BYTE PTR __t$[ebp+2], dl
  0004b	8a 50 03	 mov	 dl, BYTE PTR [eax+3]
  0004e	84 d2		 test	 dl, dl
  00050	0f 84 46 01 00
	00		 je	 $LN93@operator@4
  00056	80 f2 ea	 xor	 dl, -22			; ffffffeaH
  00059	88 55 eb	 mov	 BYTE PTR __t$[ebp+3], dl
  0005c	8a 50 04	 mov	 dl, BYTE PTR [eax+4]
  0005f	84 d2		 test	 dl, dl
  00061	0f 84 2f 01 00
	00		 je	 $LN92@operator@4
  00067	80 f2 ed	 xor	 dl, -19			; ffffffedH
  0006a	88 55 ec	 mov	 BYTE PTR __t$[ebp+4], dl
  0006d	8a 50 05	 mov	 dl, BYTE PTR [eax+5]
  00070	84 d2		 test	 dl, dl
  00072	0f 84 18 01 00
	00		 je	 $LN91@operator@4
  00078	80 f2 ec	 xor	 dl, -20			; ffffffecH
  0007b	88 55 ed	 mov	 BYTE PTR __t$[ebp+5], dl
  0007e	8a 50 06	 mov	 dl, BYTE PTR [eax+6]
  00081	84 d2		 test	 dl, dl
  00083	0f 84 02 01 00
	00		 je	 $LN90@operator@4
  00089	32 d1		 xor	 dl, cl
  0008b	88 55 ee	 mov	 BYTE PTR __t$[ebp+6], dl
  0008e	8a 50 07	 mov	 dl, BYTE PTR [eax+7]
  00091	84 d2		 test	 dl, dl
  00093	0f 84 ec 00 00
	00		 je	 $LN89@operator@4
  00099	80 f2 ea	 xor	 dl, -22			; ffffffeaH
  0009c	88 55 ef	 mov	 BYTE PTR __t$[ebp+7], dl
  0009f	8a 50 08	 mov	 dl, BYTE PTR [eax+8]
  000a2	84 d2		 test	 dl, dl
  000a4	0f 84 d5 00 00
	00		 je	 $LN88@operator@4
  000aa	80 f2 ed	 xor	 dl, -19			; ffffffedH
  000ad	88 55 f0	 mov	 BYTE PTR __t$[ebp+8], dl
  000b0	8a 50 09	 mov	 dl, BYTE PTR [eax+9]
  000b3	84 d2		 test	 dl, dl
  000b5	0f 84 be 00 00
	00		 je	 $LN87@operator@4
  000bb	80 f2 ec	 xor	 dl, -20			; ffffffecH
  000be	88 55 f1	 mov	 BYTE PTR __t$[ebp+9], dl
  000c1	8a 50 0a	 mov	 dl, BYTE PTR [eax+10]
  000c4	84 d2		 test	 dl, dl
  000c6	0f 84 a8 00 00
	00		 je	 $LN86@operator@4
  000cc	32 d1		 xor	 dl, cl
  000ce	88 55 f2	 mov	 BYTE PTR __t$[ebp+10], dl
  000d1	8a 50 0b	 mov	 dl, BYTE PTR [eax+11]
  000d4	84 d2		 test	 dl, dl
  000d6	0f 84 92 00 00
	00		 je	 $LN85@operator@4
  000dc	80 f2 ea	 xor	 dl, -22			; ffffffeaH
  000df	88 55 f3	 mov	 BYTE PTR __t$[ebp+11], dl
  000e2	8a 50 0c	 mov	 dl, BYTE PTR [eax+12]
  000e5	84 d2		 test	 dl, dl
  000e7	74 7f		 je	 SHORT $LN84@operator@4
  000e9	80 f2 ed	 xor	 dl, -19			; ffffffedH
  000ec	88 55 f4	 mov	 BYTE PTR __t$[ebp+12], dl
  000ef	8a 50 0d	 mov	 dl, BYTE PTR [eax+13]
  000f2	84 d2		 test	 dl, dl
  000f4	74 6c		 je	 SHORT $LN83@operator@4
  000f6	80 f2 ec	 xor	 dl, -20			; ffffffecH
  000f9	88 55 f5	 mov	 BYTE PTR __t$[ebp+13], dl
  000fc	8a 50 0e	 mov	 dl, BYTE PTR [eax+14]
  000ff	84 d2		 test	 dl, dl
  00101	74 5a		 je	 SHORT $LN82@operator@4
  00103	32 d1		 xor	 dl, cl
  00105	80 78 0f 00	 cmp	 BYTE PTR [eax+15], 0
  00109	88 55 f6	 mov	 BYTE PTR __t$[ebp+14], dl
  0010c	0f 84 a0 00 00
	00		 je	 $LN1@operator@4
  00112	8a 50 10	 mov	 dl, BYTE PTR [eax+16]
  00115	84 d2		 test	 dl, dl
  00117	74 3e		 je	 SHORT $LN80@operator@4
  00119	80 f2 ed	 xor	 dl, -19			; ffffffedH
  0011c	88 55 f8	 mov	 BYTE PTR __t$[ebp+16], dl
  0011f	8a 50 11	 mov	 dl, BYTE PTR [eax+17]
  00122	84 d2		 test	 dl, dl
  00124	74 2b		 je	 SHORT $LN79@operator@4
  00126	80 f2 ec	 xor	 dl, -20			; ffffffecH
  00129	88 55 f9	 mov	 BYTE PTR __t$[ebp+17], dl
  0012c	8a 50 12	 mov	 dl, BYTE PTR [eax+18]
  0012f	84 d2		 test	 dl, dl
  00131	74 19		 je	 SHORT $LN78@operator@4
  00133	8a 40 13	 mov	 al, BYTE PTR [eax+19]
  00136	32 d1		 xor	 dl, cl
  00138	88 55 fa	 mov	 BYTE PTR __t$[ebp+18], dl
  0013b	84 c0		 test	 al, al
  0013d	74 07		 je	 SHORT $LN77@operator@4
  0013f	34 ea		 xor	 al, -22			; ffffffeaH
  00141	88 45 fb	 mov	 BYTE PTR __t$[ebp+19], al
  00144	eb 6c		 jmp	 SHORT $LN1@operator@4
$LN77@operator@4:
  00146	c6 45 fb ea	 mov	 BYTE PTR __t$[ebp+19], -22 ; ffffffeaH
  0014a	eb 66		 jmp	 SHORT $LN1@operator@4
$LN78@operator@4:
  0014c	88 4d fa	 mov	 BYTE PTR __t$[ebp+18], cl
  0014f	eb 61		 jmp	 SHORT $LN1@operator@4
$LN79@operator@4:
  00151	c6 45 f9 ec	 mov	 BYTE PTR __t$[ebp+17], -20 ; ffffffecH
  00155	eb 5b		 jmp	 SHORT $LN1@operator@4
$LN80@operator@4:
  00157	c6 45 f8 ed	 mov	 BYTE PTR __t$[ebp+16], -19 ; ffffffedH
  0015b	eb 55		 jmp	 SHORT $LN1@operator@4
$LN82@operator@4:
  0015d	88 4d f6	 mov	 BYTE PTR __t$[ebp+14], cl
  00160	eb 50		 jmp	 SHORT $LN1@operator@4
$LN83@operator@4:
  00162	c6 45 f5 ec	 mov	 BYTE PTR __t$[ebp+13], -20 ; ffffffecH
  00166	eb 4a		 jmp	 SHORT $LN1@operator@4
$LN84@operator@4:
  00168	c6 45 f4 ed	 mov	 BYTE PTR __t$[ebp+12], -19 ; ffffffedH
  0016c	eb 44		 jmp	 SHORT $LN1@operator@4
$LN85@operator@4:
  0016e	c6 45 f3 ea	 mov	 BYTE PTR __t$[ebp+11], -22 ; ffffffeaH
  00172	eb 3e		 jmp	 SHORT $LN1@operator@4
$LN86@operator@4:
  00174	88 4d f2	 mov	 BYTE PTR __t$[ebp+10], cl
  00177	eb 39		 jmp	 SHORT $LN1@operator@4
$LN87@operator@4:
  00179	c6 45 f1 ec	 mov	 BYTE PTR __t$[ebp+9], -20 ; ffffffecH
  0017d	eb 33		 jmp	 SHORT $LN1@operator@4
$LN88@operator@4:
  0017f	c6 45 f0 ed	 mov	 BYTE PTR __t$[ebp+8], -19 ; ffffffedH
  00183	eb 2d		 jmp	 SHORT $LN1@operator@4
$LN89@operator@4:
  00185	c6 45 ef ea	 mov	 BYTE PTR __t$[ebp+7], -22 ; ffffffeaH
  00189	eb 27		 jmp	 SHORT $LN1@operator@4
$LN90@operator@4:
  0018b	88 4d ee	 mov	 BYTE PTR __t$[ebp+6], cl
  0018e	eb 22		 jmp	 SHORT $LN1@operator@4
$LN91@operator@4:
  00190	c6 45 ed ec	 mov	 BYTE PTR __t$[ebp+5], -20 ; ffffffecH
  00194	eb 1c		 jmp	 SHORT $LN1@operator@4
$LN92@operator@4:
  00196	c6 45 ec ed	 mov	 BYTE PTR __t$[ebp+4], -19 ; ffffffedH
  0019a	eb 16		 jmp	 SHORT $LN1@operator@4
$LN93@operator@4:
  0019c	c6 45 eb ea	 mov	 BYTE PTR __t$[ebp+3], -22 ; ffffffeaH
  001a0	eb 10		 jmp	 SHORT $LN1@operator@4
$LN94@operator@4:
  001a2	c6 45 ea eb	 mov	 BYTE PTR __t$[ebp+2], -21 ; ffffffebH
  001a6	eb 0a		 jmp	 SHORT $LN1@operator@4
$LN95@operator@4:
  001a8	c6 45 e9 ec	 mov	 BYTE PTR __t$[ebp+1], -20 ; ffffffecH
  001ac	eb 04		 jmp	 SHORT $LN1@operator@4
$LN96@operator@4:
  001ae	c6 45 e8 ed	 mov	 BYTE PTR __t$[ebp], -19	; ffffffedH
$LN1@operator@4:
  001b2	6a 03		 push	 3
  001b4	8d 45 e8	 lea	 eax, DWORD PTR __t$[ebp]
  001b7	c6 45 f7 00	 mov	 BYTE PTR __t$[ebp+15], 0
  001bb	5a		 pop	 edx
$LL104@operator@4:
  001bc	81 30 ed ec eb
	ea		 xor	 DWORD PTR [eax], -353637139 ; eaebecedH
  001c2	83 c0 04	 add	 eax, 4
  001c5	4a		 dec	 edx
  001c6	75 f4		 jne	 SHORT $LL104@operator@4
  001c8	6a 0c		 push	 12			; 0000000cH
  001ca	58		 pop	 eax
$LL101@operator@4:
  001cb	8b c8		 mov	 ecx, eax
  001cd	81 e1 03 00 00
	80		 and	 ecx, -2147483645	; 80000003H
  001d3	79 05		 jns	 SHORT $LN115@operator@4
  001d5	49		 dec	 ecx
  001d6	83 c9 fc	 or	 ecx, -4			; fffffffcH
  001d9	41		 inc	 ecx
$LN115@operator@4:
  001da	b2 ed		 mov	 dl, -19			; ffffffedH
  001dc	2a d1		 sub	 dl, cl
  001de	30 54 05 e8	 xor	 BYTE PTR __t$[ebp+eax], dl
  001e2	40		 inc	 eax
  001e3	83 f8 0f	 cmp	 eax, 15			; 0000000fH
  001e6	7c e3		 jl	 SHORT $LL101@operator@4
  001e8	8b cf		 mov	 ecx, edi
  001ea	8d 75 e8	 lea	 esi, DWORD PTR __t$[ebp]
  001ed	ff 15 00 00 00
	00		 call	 DWORD PTR __imp_?c_str@ioHashString@@QBEPBDXZ
$LL111@operator@4:
  001f3	8a 08		 mov	 cl, BYTE PTR [eax]
  001f5	3a 0e		 cmp	 cl, BYTE PTR [esi]
  001f7	75 1a		 jne	 SHORT $LN112@operator@4
  001f9	84 c9		 test	 cl, cl
  001fb	74 12		 je	 SHORT $LN113@operator@4
  001fd	8a 48 01	 mov	 cl, BYTE PTR [eax+1]
  00200	3a 4e 01	 cmp	 cl, BYTE PTR [esi+1]
  00203	75 0e		 jne	 SHORT $LN112@operator@4
  00205	83 c0 02	 add	 eax, 2
  00208	83 c6 02	 add	 esi, 2
  0020b	84 c9		 test	 cl, cl
  0020d	75 e4		 jne	 SHORT $LL111@operator@4
$LN113@operator@4:
  0020f	33 c0		 xor	 eax, eax
  00211	eb 05		 jmp	 SHORT $LN114@operator@4
$LN112@operator@4:
  00213	1b c0		 sbb	 eax, eax
  00215	83 d8 ff	 sbb	 eax, -1
$LN114@operator@4:
  00218	33 c9		 xor	 ecx, ecx
  0021a	85 c0		 test	 eax, eax
  0021c	0f 94 c0	 sete	 al

; 148  : }

  0021f	8b 4d fc	 mov	 ecx, DWORD PTR __$ArrayPad$[ebp]
  00222	5f		 pop	 edi
  00223	33 cd		 xor	 ecx, ebp
  00225	5e		 pop	 esi
  00226	e8 00 00 00 00	 call	 @__security_check_cookie@4
  0022b	c9		 leave
  0022c	c3		 ret	 0
??$?8$0BA@@@YA_NABVioHashString@@AAY0BA@$$CBD@Z ENDP	; operator==<16>
_TEXT	ENDS
PUBLIC	__$ArrayPad$
PUBLIC	??$GetFloatAttribute_e@$09@ioXMLElement@@QBEMAAY09$$CBD@Z ; ioXMLElement::GetFloatAttribute_e<10>
EXTRN	__imp_?GetFloatAttribute@ioXMLElement@@QBEMPBD@Z:PROC
; Function compile flags: /Ogsp
; File d:\lost saga for developer\youtube\tutorial\source\src\io3dengine\ioxmlelement.h
;	COMDAT ??$GetFloatAttribute_e@$09@ioXMLElement@@QBEMAAY09$$CBD@Z
_TEXT	SEGMENT
__k$ = -20						; size = 10
__$ArrayPad$ = -4					; size = 4
_k$ = 8							; size = 4
??$GetFloatAttribute_e@$09@ioXMLElement@@QBEMAAY09$$CBD@Z PROC ; ioXMLElement::GetFloatAttribute_e<10>, COMDAT
; _this$ = ecx

; 100  : 	{

  00000	55		 push	 ebp
  00001	8b ec		 mov	 ebp, esp
  00003	83 ec 14	 sub	 esp, 20			; 00000014H
  00006	a1 00 00 00 00	 mov	 eax, DWORD PTR ___security_cookie
  0000b	33 c5		 xor	 eax, ebp
  0000d	89 45 fc	 mov	 DWORD PTR __$ArrayPad$[ebp], eax
  00010	8b 45 08	 mov	 eax, DWORD PTR _k$[ebp]

; 101  : 		_ENCSTR(k, _k);

  00013	8a 10		 mov	 dl, BYTE PTR [eax]
  00015	84 d2		 test	 dl, dl
  00017	0f 84 0d 01 00
	00		 je	 $LN96@GetFloatAt
  0001d	80 f2 ed	 xor	 dl, -19			; ffffffedH
  00020	88 55 ec	 mov	 BYTE PTR __k$[ebp], dl
  00023	8a 50 01	 mov	 dl, BYTE PTR [eax+1]
  00026	84 d2		 test	 dl, dl
  00028	0f 84 f6 00 00
	00		 je	 $LN95@GetFloatAt
  0002e	80 f2 ec	 xor	 dl, -20			; ffffffecH
  00031	88 55 ed	 mov	 BYTE PTR __k$[ebp+1], dl
  00034	8a 50 02	 mov	 dl, BYTE PTR [eax+2]
  00037	84 d2		 test	 dl, dl
  00039	0f 84 df 00 00
	00		 je	 $LN94@GetFloatAt
  0003f	80 f2 eb	 xor	 dl, -21			; ffffffebH
  00042	88 55 ee	 mov	 BYTE PTR __k$[ebp+2], dl
  00045	8a 50 03	 mov	 dl, BYTE PTR [eax+3]
  00048	84 d2		 test	 dl, dl
  0004a	0f 84 c8 00 00
	00		 je	 $LN93@GetFloatAt
  00050	80 f2 ea	 xor	 dl, -22			; ffffffeaH
  00053	88 55 ef	 mov	 BYTE PTR __k$[ebp+3], dl
  00056	8a 50 04	 mov	 dl, BYTE PTR [eax+4]
  00059	84 d2		 test	 dl, dl
  0005b	0f 84 b1 00 00
	00		 je	 $LN92@GetFloatAt
  00061	80 f2 ed	 xor	 dl, -19			; ffffffedH
  00064	88 55 f0	 mov	 BYTE PTR __k$[ebp+4], dl
  00067	8a 50 05	 mov	 dl, BYTE PTR [eax+5]
  0006a	84 d2		 test	 dl, dl
  0006c	0f 84 9a 00 00
	00		 je	 $LN91@GetFloatAt
  00072	80 f2 ec	 xor	 dl, -20			; ffffffecH
  00075	88 55 f1	 mov	 BYTE PTR __k$[ebp+5], dl
  00078	8a 50 06	 mov	 dl, BYTE PTR [eax+6]
  0007b	84 d2		 test	 dl, dl
  0007d	0f 84 83 00 00
	00		 je	 $LN90@GetFloatAt
  00083	80 f2 eb	 xor	 dl, -21			; ffffffebH
  00086	88 55 f2	 mov	 BYTE PTR __k$[ebp+6], dl
  00089	8a 50 07	 mov	 dl, BYTE PTR [eax+7]
  0008c	84 d2		 test	 dl, dl
  0008e	74 70		 je	 SHORT $LN89@GetFloatAt
  00090	80 f2 ea	 xor	 dl, -22			; ffffffeaH
  00093	88 55 f3	 mov	 BYTE PTR __k$[ebp+7], dl
  00096	8a 50 08	 mov	 dl, BYTE PTR [eax+8]
  00099	84 d2		 test	 dl, dl
  0009b	74 5d		 je	 SHORT $LN88@GetFloatAt
  0009d	80 f2 ed	 xor	 dl, -19			; ffffffedH
  000a0	80 78 09 00	 cmp	 BYTE PTR [eax+9], 0
  000a4	88 55 f4	 mov	 BYTE PTR __k$[ebp+8], dl
  000a7	0f 84 81 00 00
	00		 je	 $LN1@GetFloatAt
  000ad	8a 50 0a	 mov	 dl, BYTE PTR [eax+10]
  000b0	84 d2		 test	 dl, dl
  000b2	74 40		 je	 SHORT $LN86@GetFloatAt
  000b4	80 f2 eb	 xor	 dl, -21			; ffffffebH
  000b7	88 55 f6	 mov	 BYTE PTR __k$[ebp+10], dl
  000ba	8a 50 0b	 mov	 dl, BYTE PTR [eax+11]
  000bd	84 d2		 test	 dl, dl
  000bf	74 2d		 je	 SHORT $LN85@GetFloatAt
  000c1	80 f2 ea	 xor	 dl, -22			; ffffffeaH
  000c4	88 55 f7	 mov	 BYTE PTR __k$[ebp+11], dl
  000c7	8a 50 0c	 mov	 dl, BYTE PTR [eax+12]
  000ca	84 d2		 test	 dl, dl
  000cc	74 1a		 je	 SHORT $LN84@GetFloatAt
  000ce	8a 40 0d	 mov	 al, BYTE PTR [eax+13]
  000d1	80 f2 ed	 xor	 dl, -19			; ffffffedH
  000d4	88 55 f8	 mov	 BYTE PTR __k$[ebp+12], dl
  000d7	84 c0		 test	 al, al
  000d9	74 07		 je	 SHORT $LN83@GetFloatAt
  000db	34 ec		 xor	 al, -20			; ffffffecH
  000dd	88 45 f9	 mov	 BYTE PTR __k$[ebp+13], al
  000e0	eb 4c		 jmp	 SHORT $LN1@GetFloatAt
$LN83@GetFloatAt:
  000e2	c6 45 f9 ec	 mov	 BYTE PTR __k$[ebp+13], -20 ; ffffffecH
  000e6	eb 46		 jmp	 SHORT $LN1@GetFloatAt
$LN84@GetFloatAt:
  000e8	c6 45 f8 ed	 mov	 BYTE PTR __k$[ebp+12], -19 ; ffffffedH
  000ec	eb 40		 jmp	 SHORT $LN1@GetFloatAt
$LN85@GetFloatAt:
  000ee	c6 45 f7 ea	 mov	 BYTE PTR __k$[ebp+11], -22 ; ffffffeaH
  000f2	eb 3a		 jmp	 SHORT $LN1@GetFloatAt
$LN86@GetFloatAt:
  000f4	c6 45 f6 eb	 mov	 BYTE PTR __k$[ebp+10], -21 ; ffffffebH
  000f8	eb 34		 jmp	 SHORT $LN1@GetFloatAt
$LN88@GetFloatAt:
  000fa	c6 45 f4 ed	 mov	 BYTE PTR __k$[ebp+8], -19 ; ffffffedH
  000fe	eb 2e		 jmp	 SHORT $LN1@GetFloatAt
$LN89@GetFloatAt:
  00100	c6 45 f3 ea	 mov	 BYTE PTR __k$[ebp+7], -22 ; ffffffeaH
  00104	eb 28		 jmp	 SHORT $LN1@GetFloatAt
$LN90@GetFloatAt:
  00106	c6 45 f2 eb	 mov	 BYTE PTR __k$[ebp+6], -21 ; ffffffebH
  0010a	eb 22		 jmp	 SHORT $LN1@GetFloatAt
$LN91@GetFloatAt:
  0010c	c6 45 f1 ec	 mov	 BYTE PTR __k$[ebp+5], -20 ; ffffffecH
  00110	eb 1c		 jmp	 SHORT $LN1@GetFloatAt
$LN92@GetFloatAt:
  00112	c6 45 f0 ed	 mov	 BYTE PTR __k$[ebp+4], -19 ; ffffffedH
  00116	eb 16		 jmp	 SHORT $LN1@GetFloatAt
$LN93@GetFloatAt:
  00118	c6 45 ef ea	 mov	 BYTE PTR __k$[ebp+3], -22 ; ffffffeaH
  0011c	eb 10		 jmp	 SHORT $LN1@GetFloatAt
$LN94@GetFloatAt:
  0011e	c6 45 ee eb	 mov	 BYTE PTR __k$[ebp+2], -21 ; ffffffebH
  00122	eb 0a		 jmp	 SHORT $LN1@GetFloatAt
$LN95@GetFloatAt:
  00124	c6 45 ed ec	 mov	 BYTE PTR __k$[ebp+1], -20 ; ffffffecH
  00128	eb 04		 jmp	 SHORT $LN1@GetFloatAt
$LN96@GetFloatAt:
  0012a	c6 45 ec ed	 mov	 BYTE PTR __k$[ebp], -19	; ffffffedH
$LN1@GetFloatAt:
  0012e	6a 02		 push	 2
  00130	8d 45 ec	 lea	 eax, DWORD PTR __k$[ebp]
  00133	c6 45 f5 00	 mov	 BYTE PTR __k$[ebp+9], 0
  00137	5a		 pop	 edx
$LL104@GetFloatAt:
  00138	81 30 ed ec eb
	ea		 xor	 DWORD PTR [eax], -353637139 ; eaebecedH
  0013e	83 c0 04	 add	 eax, 4
  00141	4a		 dec	 edx
  00142	75 f4		 jne	 SHORT $LL104@GetFloatAt
  00144	80 75 f4 ed	 xor	 BYTE PTR __k$[ebp+8], -19 ; ffffffedH

; 102  : 		return GetFloatAttribute(_k);

  00148	8d 45 ec	 lea	 eax, DWORD PTR __k$[ebp]
  0014b	50		 push	 eax
  0014c	ff 15 00 00 00
	00		 call	 DWORD PTR __imp_?GetFloatAttribute@ioXMLElement@@QBEMPBD@Z

; 103  : 	}

  00152	8b 4d fc	 mov	 ecx, DWORD PTR __$ArrayPad$[ebp]
  00155	33 cd		 xor	 ecx, ebp
  00157	e8 00 00 00 00	 call	 @__security_check_cookie@4
  0015c	c9		 leave
  0015d	c2 04 00	 ret	 4
??$GetFloatAttribute_e@$09@ioXMLElement@@QBEMAAY09$$CBD@Z ENDP ; ioXMLElement::GetFloatAttribute_e<10>
_TEXT	ENDS
PUBLIC	??$_Cons_val@V?$allocator@UPCRoomSoldierSelect@ExPCRoomSoldierBonusWnd@@@std@@UPCRoomSoldierSelect@ExPCRoomSoldierBonusWnd@@AAU34@@std@@YAXAAV?$allocator@UPCRoomSoldierSelect@ExPCRoomSoldierBonusWnd@@@0@PAUPCRoomSoldierSelect@ExPCRoomSoldierBonusWnd@@AAU23@@Z ; std::_Cons_val<std::allocator<ExPCRoomSoldierBonusWnd::PCRoomSoldierSelect>,ExPCRoomSoldierBonusWnd::PCRoomSoldierSelect,ExPCRoomSoldierBonusWnd::PCRoomSoldierSelect &>
; Function compile flags: /Ogsp
; File c:\program files (x86)\microsoft visual studio 10.0\vc\include\xmemory
;	COMDAT ??$_Cons_val@V?$allocator@UPCRoomSoldierSelect@ExPCRoomSoldierBonusWnd@@@std@@UPCRoomSoldierSelect@ExPCRoomSoldierBonusWnd@@AAU34@@std@@YAXAAV?$allocator@UPCRoomSoldierSelect@ExPCRoomSoldierBonusWnd@@@0@PAUPCRoomSoldierSelect@ExPCRoomSoldierBonusWnd@@AAU23@@Z
_TEXT	SEGMENT
__Alval$ = 8						; size = 4
__Pdest$ = 12						; size = 4
__Src$ = 16						; size = 4
??$_Cons_val@V?$allocator@UPCRoomSoldierSelect@ExPCRoomSoldierBonusWnd@@@std@@UPCRoomSoldierSelect@ExPCRoomSoldierBonusWnd@@AAU34@@std@@YAXAAV?$allocator@UPCRoomSoldierSelect@ExPCRoomSoldierBonusWnd@@@0@PAUPCRoomSoldierSelect@ExPCRoomSoldierBonusWnd@@AAU23@@Z PROC ; std::_Cons_val<std::allocator<ExPCRoomSoldierBonusWnd::PCRoomSoldierSelect>,ExPCRoomSoldierBonusWnd::PCRoomSoldierSelect,ExPCRoomSoldierBonusWnd::PCRoomSoldierSelect &>, COMDAT

; 279  : 	{	// construct using allocator

  00000	55		 push	 ebp
  00001	8b ec		 mov	 ebp, esp

; 280  : 	_Alval.construct(_Pdest, _STD forward<_Ty2>(_Src));

  00003	8b 45 0c	 mov	 eax, DWORD PTR __Pdest$[ebp]
  00006	85 c0		 test	 eax, eax
  00008	74 0d		 je	 SHORT $LN7@Cons_val
  0000a	8b 4d 10	 mov	 ecx, DWORD PTR __Src$[ebp]
  0000d	8b 11		 mov	 edx, DWORD PTR [ecx]
  0000f	89 10		 mov	 DWORD PTR [eax], edx
  00011	8b 49 04	 mov	 ecx, DWORD PTR [ecx+4]
  00014	89 48 04	 mov	 DWORD PTR [eax+4], ecx
$LN7@Cons_val:

; 281  : 	}

  00017	5d		 pop	 ebp
  00018	c3		 ret	 0
??$_Cons_val@V?$allocator@UPCRoomSoldierSelect@ExPCRoomSoldierBonusWnd@@@std@@UPCRoomSoldierSelect@ExPCRoomSoldierBonusWnd@@AAU34@@std@@YAXAAV?$allocator@UPCRoomSoldierSelect@ExPCRoomSoldierBonusWnd@@@0@PAUPCRoomSoldierSelect@ExPCRoomSoldierBonusWnd@@AAU23@@Z ENDP ; std::_Cons_val<std::allocator<ExPCRoomSoldierBonusWnd::PCRoomSoldierSelect>,ExPCRoomSoldierBonusWnd::PCRoomSoldierSelect,ExPCRoomSoldierBonusWnd::PCRoomSoldierSelect &>
_TEXT	ENDS
PUBLIC	?construct@?$allocator@UPCRoomSoldierSelect@ExPCRoomSoldierBonusWnd@@@std@@QAEXPAUPCRoomSoldierSelect@ExPCRoomSoldierBonusWnd@@ABU34@@Z ; std::allocator<ExPCRoomSoldierBonusWnd::PCRoomSoldierSelect>::construct
; Function compile flags: /Ogsp
;	COMDAT ?construct@?$allocator@UPCRoomSoldierSelect@ExPCRoomSoldierBonusWnd@@@std@@QAEXPAUPCRoomSoldierSelect@ExPCRoomSoldierBonusWnd@@ABU34@@Z
_TEXT	SEGMENT
__Ptr$ = 8						; size = 4
__Val$ = 12						; size = 4
?construct@?$allocator@UPCRoomSoldierSelect@ExPCRoomSoldierBonusWnd@@@std@@QAEXPAUPCRoomSoldierSelect@ExPCRoomSoldierBonusWnd@@ABU34@@Z PROC ; std::allocator<ExPCRoomSoldierBonusWnd::PCRoomSoldierSelect>::construct, COMDAT
; _this$ = ecx

; 196  : 		{	// construct object at _Ptr with value _Val

  00000	55		 push	 ebp
  00001	8b ec		 mov	 ebp, esp

; 197  : 		_Construct(_Ptr, _Val);

  00003	8b 45 08	 mov	 eax, DWORD PTR __Ptr$[ebp]
  00006	85 c0		 test	 eax, eax
  00008	74 0d		 je	 SHORT $LN5@construct@2
  0000a	8b 4d 0c	 mov	 ecx, DWORD PTR __Val$[ebp]
  0000d	8b 11		 mov	 edx, DWORD PTR [ecx]
  0000f	89 10		 mov	 DWORD PTR [eax], edx
  00011	8b 49 04	 mov	 ecx, DWORD PTR [ecx+4]
  00014	89 48 04	 mov	 DWORD PTR [eax+4], ecx
$LN5@construct@2:

; 198  : 		}

  00017	5d		 pop	 ebp
  00018	c2 08 00	 ret	 8
?construct@?$allocator@UPCRoomSoldierSelect@ExPCRoomSoldierBonusWnd@@@std@@QAEXPAUPCRoomSoldierSelect@ExPCRoomSoldierBonusWnd@@ABU34@@Z ENDP ; std::allocator<ExPCRoomSoldierBonusWnd::PCRoomSoldierSelect>::construct
_TEXT	ENDS
PUBLIC	?destroy@?$allocator@UPCRoomSoldierSelect@ExPCRoomSoldierBonusWnd@@@std@@QAEXPAUPCRoomSoldierSelect@ExPCRoomSoldierBonusWnd@@@Z ; std::allocator<ExPCRoomSoldierBonusWnd::PCRoomSoldierSelect>::destroy
; Function compile flags: /Ogsp
;	COMDAT ?destroy@?$allocator@UPCRoomSoldierSelect@ExPCRoomSoldierBonusWnd@@@std@@QAEXPAUPCRoomSoldierSelect@ExPCRoomSoldierBonusWnd@@@Z
_TEXT	SEGMENT
__Ptr$ = 8						; size = 4
?destroy@?$allocator@UPCRoomSoldierSelect@ExPCRoomSoldierBonusWnd@@@std@@QAEXPAUPCRoomSoldierSelect@ExPCRoomSoldierBonusWnd@@@Z PROC ; std::allocator<ExPCRoomSoldierBonusWnd::PCRoomSoldierSelect>::destroy, COMDAT
; _this$ = ecx

; 213  : 		_Destroy(_Ptr);
; 214  : 		}

  00000	c2 04 00	 ret	 4
?destroy@?$allocator@UPCRoomSoldierSelect@ExPCRoomSoldierBonusWnd@@@std@@QAEXPAUPCRoomSoldierSelect@ExPCRoomSoldierBonusWnd@@@Z ENDP ; std::allocator<ExPCRoomSoldierBonusWnd::PCRoomSoldierSelect>::destroy
_TEXT	ENDS
PUBLIC	??$_Move@PAUPCRoomSoldierSelect@ExPCRoomSoldierBonusWnd@@PAU12@@std@@YAPAUPCRoomSoldierSelect@ExPCRoomSoldierBonusWnd@@PAU12@00U_Nonscalar_ptr_iterator_tag@0@@Z ; std::_Move<ExPCRoomSoldierBonusWnd::PCRoomSoldierSelect *,ExPCRoomSoldierBonusWnd::PCRoomSoldierSelect *>
; Function compile flags: /Ogsp
; File c:\program files (x86)\microsoft visual studio 10.0\vc\include\xutility
;	COMDAT ??$_Move@PAUPCRoomSoldierSelect@ExPCRoomSoldierBonusWnd@@PAU12@@std@@YAPAUPCRoomSoldierSelect@ExPCRoomSoldierBonusWnd@@PAU12@00U_Nonscalar_ptr_iterator_tag@0@@Z
_TEXT	SEGMENT
__First$ = 8						; size = 4
__Last$ = 12						; size = 4
__Dest$ = 16						; size = 4
___formal$ = 20						; size = 1
??$_Move@PAUPCRoomSoldierSelect@ExPCRoomSoldierBonusWnd@@PAU12@@std@@YAPAUPCRoomSoldierSelect@ExPCRoomSoldierBonusWnd@@PAU12@00U_Nonscalar_ptr_iterator_tag@0@@Z PROC ; std::_Move<ExPCRoomSoldierBonusWnd::PCRoomSoldierSelect *,ExPCRoomSoldierBonusWnd::PCRoomSoldierSelect *>, COMDAT

; 2512 : 	{	// move [_First, _Last) to [_Dest, ...), arbitrary iterators

  00000	55		 push	 ebp
  00001	8b ec		 mov	 ebp, esp

; 2513 : 	for (; _First != _Last; ++_Dest, ++_First)

  00003	8b 4d 08	 mov	 ecx, DWORD PTR __First$[ebp]
  00006	8b 45 10	 mov	 eax, DWORD PTR __Dest$[ebp]
$LN11@Move:
  00009	3b 4d 0c	 cmp	 ecx, DWORD PTR __Last$[ebp]
  0000c	74 12		 je	 SHORT $LN1@Move

; 2514 : 		*_Dest = _STD move(*_First);

  0000e	8b 11		 mov	 edx, DWORD PTR [ecx]
  00010	89 10		 mov	 DWORD PTR [eax], edx
  00012	8b 51 04	 mov	 edx, DWORD PTR [ecx+4]
  00015	89 50 04	 mov	 DWORD PTR [eax+4], edx
  00018	83 c0 08	 add	 eax, 8
  0001b	83 c1 08	 add	 ecx, 8
  0001e	eb e9		 jmp	 SHORT $LN11@Move
$LN1@Move:

; 2515 : 	return (_Dest);
; 2516 : 	}

  00020	5d		 pop	 ebp
  00021	c3		 ret	 0
??$_Move@PAUPCRoomSoldierSelect@ExPCRoomSoldierBonusWnd@@PAU12@@std@@YAPAUPCRoomSoldierSelect@ExPCRoomSoldierBonusWnd@@PAU12@00U_Nonscalar_ptr_iterator_tag@0@@Z ENDP ; std::_Move<ExPCRoomSoldierBonusWnd::PCRoomSoldierSelect *,ExPCRoomSoldierBonusWnd::PCRoomSoldierSelect *>
_TEXT	ENDS
PUBLIC	??Y?$_Vector_iterator@V?$_Vector_val@UPCRoomSoldierSelect@ExPCRoomSoldierBonusWnd@@V?$allocator@UPCRoomSoldierSelect@ExPCRoomSoldierBonusWnd@@@std@@@std@@@std@@QAEAAV01@H@Z ; std::_Vector_iterator<std::_Vector_val<ExPCRoomSoldierBonusWnd::PCRoomSoldierSelect,std::allocator<ExPCRoomSoldierBonusWnd::PCRoomSoldierSelect> > >::operator+=
; Function compile flags: /Ogsp
; File c:\program files (x86)\microsoft visual studio 10.0\vc\include\vector
;	COMDAT ??Y?$_Vector_iterator@V?$_Vector_val@UPCRoomSoldierSelect@ExPCRoomSoldierBonusWnd@@V?$allocator@UPCRoomSoldierSelect@ExPCRoomSoldierBonusWnd@@@std@@@std@@@std@@QAEAAV01@H@Z
_TEXT	SEGMENT
__Off$ = 8						; size = 4
??Y?$_Vector_iterator@V?$_Vector_val@UPCRoomSoldierSelect@ExPCRoomSoldierBonusWnd@@V?$allocator@UPCRoomSoldierSelect@ExPCRoomSoldierBonusWnd@@@std@@@std@@@std@@QAEAAV01@H@Z PROC ; std::_Vector_iterator<std::_Vector_val<ExPCRoomSoldierBonusWnd::PCRoomSoldierSelect,std::allocator<ExPCRoomSoldierBonusWnd::PCRoomSoldierSelect> > >::operator+=, COMDAT
; _this$ = ecx

; 357  : 		{	// increment by integer

  00000	55		 push	 ebp
  00001	8b ec		 mov	 ebp, esp
  00003	8b c1		 mov	 eax, ecx

; 358  : 		*(_Mybase *)this += _Off;

  00005	8b 4d 08	 mov	 ecx, DWORD PTR __Off$[ebp]
  00008	c1 e1 03	 shl	 ecx, 3
  0000b	01 08		 add	 DWORD PTR [eax], ecx

; 359  : 		return (*this);
; 360  : 		}

  0000d	5d		 pop	 ebp
  0000e	c2 04 00	 ret	 4
??Y?$_Vector_iterator@V?$_Vector_val@UPCRoomSoldierSelect@ExPCRoomSoldierBonusWnd@@V?$allocator@UPCRoomSoldierSelect@ExPCRoomSoldierBonusWnd@@@std@@@std@@@std@@QAEAAV01@H@Z ENDP ; std::_Vector_iterator<std::_Vector_val<ExPCRoomSoldierBonusWnd::PCRoomSoldierSelect,std::allocator<ExPCRoomSoldierBonusWnd::PCRoomSoldierSelect> > >::operator+=
_TEXT	ENDS
PUBLIC	??Z?$_Vector_iterator@V?$_Vector_val@UPCRoomSoldierSelect@ExPCRoomSoldierBonusWnd@@V?$allocator@UPCRoomSoldierSelect@ExPCRoomSoldierBonusWnd@@@std@@@std@@@std@@QAEAAV01@H@Z ; std::_Vector_iterator<std::_Vector_val<ExPCRoomSoldierBonusWnd::PCRoomSoldierSelect,std::allocator<ExPCRoomSoldierBonusWnd::PCRoomSoldierSelect> > >::operator-=
; Function compile flags: /Ogsp
;	COMDAT ??Z?$_Vector_iterator@V?$_Vector_val@UPCRoomSoldierSelect@ExPCRoomSoldierBonusWnd@@V?$allocator@UPCRoomSoldierSelect@ExPCRoomSoldierBonusWnd@@@std@@@std@@@std@@QAEAAV01@H@Z
_TEXT	SEGMENT
__Off$ = 8						; size = 4
??Z?$_Vector_iterator@V?$_Vector_val@UPCRoomSoldierSelect@ExPCRoomSoldierBonusWnd@@V?$allocator@UPCRoomSoldierSelect@ExPCRoomSoldierBonusWnd@@@std@@@std@@@std@@QAEAAV01@H@Z PROC ; std::_Vector_iterator<std::_Vector_val<ExPCRoomSoldierBonusWnd::PCRoomSoldierSelect,std::allocator<ExPCRoomSoldierBonusWnd::PCRoomSoldierSelect> > >::operator-=, COMDAT
; _this$ = ecx

; 369  : 		{	// decrement by integer

  00000	55		 push	 ebp
  00001	8b ec		 mov	 ebp, esp
  00003	8b c1		 mov	 eax, ecx

; 370  : 		return (*this += -_Off);

  00005	8b 4d 08	 mov	 ecx, DWORD PTR __Off$[ebp]
  00008	6b c9 f8	 imul	 ecx, -8			; fffffff8H
  0000b	01 08		 add	 DWORD PTR [eax], ecx

; 371  : 		}

  0000d	5d		 pop	 ebp
  0000e	c2 04 00	 ret	 4
??Z?$_Vector_iterator@V?$_Vector_val@UPCRoomSoldierSelect@ExPCRoomSoldierBonusWnd@@V?$allocator@UPCRoomSoldierSelect@ExPCRoomSoldierBonusWnd@@@std@@@std@@@std@@QAEAAV01@H@Z ENDP ; std::_Vector_iterator<std::_Vector_val<ExPCRoomSoldierBonusWnd::PCRoomSoldierSelect,std::allocator<ExPCRoomSoldierBonusWnd::PCRoomSoldierSelect> > >::operator-=
_TEXT	ENDS
PUBLIC	??$_Unchecked@V?$_Vector_val@UPCRoomSoldierSelect@ExPCRoomSoldierBonusWnd@@V?$allocator@UPCRoomSoldierSelect@ExPCRoomSoldierBonusWnd@@@std@@@std@@@std@@YAPAUPCRoomSoldierSelect@ExPCRoomSoldierBonusWnd@@V?$_Vector_iterator@V?$_Vector_val@UPCRoomSoldierSelect@ExPCRoomSoldierBonusWnd@@V?$allocator@UPCRoomSoldierSelect@ExPCRoomSoldierBonusWnd@@@std@@@std@@@0@@Z ; std::_Unchecked<std::_Vector_val<ExPCRoomSoldierBonusWnd::PCRoomSoldierSelect,std::allocator<ExPCRoomSoldierBonusWnd::PCRoomSoldierSelect> > >
; Function compile flags: /Ogsp
;	COMDAT ??$_Unchecked@V?$_Vector_val@UPCRoomSoldierSelect@ExPCRoomSoldierBonusWnd@@V?$allocator@UPCRoomSoldierSelect@ExPCRoomSoldierBonusWnd@@@std@@@std@@@std@@YAPAUPCRoomSoldierSelect@ExPCRoomSoldierBonusWnd@@V?$_Vector_iterator@V?$_Vector_val@UPCRoomSoldierSelect@ExPCRoomSoldierBonusWnd@@V?$allocator@UPCRoomSoldierSelect@ExPCRoomSoldierBonusWnd@@@std@@@std@@@0@@Z
_TEXT	SEGMENT
__Iter$ = 8						; size = 4
??$_Unchecked@V?$_Vector_val@UPCRoomSoldierSelect@ExPCRoomSoldierBonusWnd@@V?$allocator@UPCRoomSoldierSelect@ExPCRoomSoldierBonusWnd@@@std@@@std@@@std@@YAPAUPCRoomSoldierSelect@ExPCRoomSoldierBonusWnd@@V?$_Vector_iterator@V?$_Vector_val@UPCRoomSoldierSelect@ExPCRoomSoldierBonusWnd@@V?$allocator@UPCRoomSoldierSelect@ExPCRoomSoldierBonusWnd@@@std@@@std@@@0@@Z PROC ; std::_Unchecked<std::_Vector_val<ExPCRoomSoldierBonusWnd::PCRoomSoldierSelect,std::allocator<ExPCRoomSoldierBonusWnd::PCRoomSoldierSelect> > >, COMDAT

; 393  : 	{	// convert to unchecked

  00000	55		 push	 ebp
  00001	8b ec		 mov	 ebp, esp

; 394  : 	return (_Iter._Unchecked());

  00003	8b 45 08	 mov	 eax, DWORD PTR __Iter$[ebp]

; 395  : 	}

  00006	5d		 pop	 ebp
  00007	c3		 ret	 0
??$_Unchecked@V?$_Vector_val@UPCRoomSoldierSelect@ExPCRoomSoldierBonusWnd@@V?$allocator@UPCRoomSoldierSelect@ExPCRoomSoldierBonusWnd@@@std@@@std@@@std@@YAPAUPCRoomSoldierSelect@ExPCRoomSoldierBonusWnd@@V?$_Vector_iterator@V?$_Vector_val@UPCRoomSoldierSelect@ExPCRoomSoldierBonusWnd@@V?$allocator@UPCRoomSoldierSelect@ExPCRoomSoldierBonusWnd@@@std@@@std@@@0@@Z ENDP ; std::_Unchecked<std::_Vector_val<ExPCRoomSoldierBonusWnd::PCRoomSoldierSelect,std::allocator<ExPCRoomSoldierBonusWnd::PCRoomSoldierSelect> > >
_TEXT	ENDS
PUBLIC	?construct@?$allocator@UPCRoomSoldierSelect@ExPCRoomSoldierBonusWnd@@@std@@QAEXPAUPCRoomSoldierSelect@ExPCRoomSoldierBonusWnd@@$$QAU34@@Z ; std::allocator<ExPCRoomSoldierBonusWnd::PCRoomSoldierSelect>::construct
; Function compile flags: /Ogsp
; File c:\program files (x86)\microsoft visual studio 10.0\vc\include\xmemory
;	COMDAT ?construct@?$allocator@UPCRoomSoldierSelect@ExPCRoomSoldierBonusWnd@@@std@@QAEXPAUPCRoomSoldierSelect@ExPCRoomSoldierBonusWnd@@$$QAU34@@Z
_TEXT	SEGMENT
__Ptr$ = 8						; size = 4
__Val$ = 12						; size = 4
?construct@?$allocator@UPCRoomSoldierSelect@ExPCRoomSoldierBonusWnd@@@std@@QAEXPAUPCRoomSoldierSelect@ExPCRoomSoldierBonusWnd@@$$QAU34@@Z PROC ; std::allocator<ExPCRoomSoldierBonusWnd::PCRoomSoldierSelect>::construct, COMDAT
; _this$ = ecx

; 201  : 		{	// construct object at _Ptr with value _Val

  00000	55		 push	 ebp
  00001	8b ec		 mov	 ebp, esp

; 202  : 		::new ((void _FARQ *)_Ptr) _Ty(_STD forward<_Ty>(_Val));

  00003	8b 45 08	 mov	 eax, DWORD PTR __Ptr$[ebp]
  00006	85 c0		 test	 eax, eax
  00008	74 0d		 je	 SHORT $LN3@construct@3
  0000a	8b 4d 0c	 mov	 ecx, DWORD PTR __Val$[ebp]
  0000d	8b 11		 mov	 edx, DWORD PTR [ecx]
  0000f	89 10		 mov	 DWORD PTR [eax], edx
  00011	8b 49 04	 mov	 ecx, DWORD PTR [ecx+4]
  00014	89 48 04	 mov	 DWORD PTR [eax+4], ecx
$LN3@construct@3:

; 203  : 		}

  00017	5d		 pop	 ebp
  00018	c2 08 00	 ret	 8
?construct@?$allocator@UPCRoomSoldierSelect@ExPCRoomSoldierBonusWnd@@@std@@QAEXPAUPCRoomSoldierSelect@ExPCRoomSoldierBonusWnd@@$$QAU34@@Z ENDP ; std::allocator<ExPCRoomSoldierBonusWnd::PCRoomSoldierSelect>::construct
_TEXT	ENDS
PUBLIC	??$construct@AAH@?$allocator@H@std@@QAEXPAHAAH@Z ; std::allocator<int>::construct<int &>
; Function compile flags: /Ogsp
;	COMDAT ??$construct@AAH@?$allocator@H@std@@QAEXPAHAAH@Z
_TEXT	SEGMENT
__Ptr$ = 8						; size = 4
__Val$ = 12						; size = 4
??$construct@AAH@?$allocator@H@std@@QAEXPAHAAH@Z PROC	; std::allocator<int>::construct<int &>, COMDAT
; _this$ = ecx

; 206  : 		void construct(pointer _Ptr, _Other&& _Val)

  00000	55		 push	 ebp
  00001	8b ec		 mov	 ebp, esp

; 207  : 		{	// construct object at _Ptr with value _Val
; 208  : 		::new ((void _FARQ *)_Ptr) _Ty(_STD forward<_Other>(_Val));

  00003	8b 45 08	 mov	 eax, DWORD PTR __Ptr$[ebp]
  00006	85 c0		 test	 eax, eax
  00008	74 07		 je	 SHORT $LN3@construct@4
  0000a	8b 4d 0c	 mov	 ecx, DWORD PTR __Val$[ebp]
  0000d	8b 09		 mov	 ecx, DWORD PTR [ecx]
  0000f	89 08		 mov	 DWORD PTR [eax], ecx
$LN3@construct@4:

; 209  : 		}

  00011	5d		 pop	 ebp
  00012	c2 08 00	 ret	 8
??$construct@AAH@?$allocator@H@std@@QAEXPAHAAH@Z ENDP	; std::allocator<int>::construct<int &>
_TEXT	ENDS
PUBLIC	??$_Advance@V?$_Vector_iterator@V?$_Vector_val@UPCRoomSoldierSelect@ExPCRoomSoldierBonusWnd@@V?$allocator@UPCRoomSoldierSelect@ExPCRoomSoldierBonusWnd@@@std@@@std@@@std@@H@std@@YAXAAV?$_Vector_iterator@V?$_Vector_val@UPCRoomSoldierSelect@ExPCRoomSoldierBonusWnd@@V?$allocator@UPCRoomSoldierSelect@ExPCRoomSoldierBonusWnd@@@std@@@std@@@0@HUrandom_access_iterator_tag@0@@Z ; std::_Advance<std::_Vector_iterator<std::_Vector_val<ExPCRoomSoldierBonusWnd::PCRoomSoldierSelect,std::allocator<ExPCRoomSoldierBonusWnd::PCRoomSoldierSelect> > >,int>
; Function compile flags: /Ogsp
; File c:\program files (x86)\microsoft visual studio 10.0\vc\include\xutility
;	COMDAT ??$_Advance@V?$_Vector_iterator@V?$_Vector_val@UPCRoomSoldierSelect@ExPCRoomSoldierBonusWnd@@V?$allocator@UPCRoomSoldierSelect@ExPCRoomSoldierBonusWnd@@@std@@@std@@@std@@H@std@@YAXAAV?$_Vector_iterator@V?$_Vector_val@UPCRoomSoldierSelect@ExPCRoomSoldierBonusWnd@@V?$allocator@UPCRoomSoldierSelect@ExPCRoomSoldierBonusWnd@@@std@@@std@@@0@HUrandom_access_iterator_tag@0@@Z
_TEXT	SEGMENT
__Where$ = 8						; size = 4
__Off$ = 12						; size = 4
___formal$ = 16						; size = 1
??$_Advance@V?$_Vector_iterator@V?$_Vector_val@UPCRoomSoldierSelect@ExPCRoomSoldierBonusWnd@@V?$allocator@UPCRoomSoldierSelect@ExPCRoomSoldierBonusWnd@@@std@@@std@@@std@@H@std@@YAXAAV?$_Vector_iterator@V?$_Vector_val@UPCRoomSoldierSelect@ExPCRoomSoldierBonusWnd@@V?$allocator@UPCRoomSoldierSelect@ExPCRoomSoldierBonusWnd@@@std@@@std@@@0@HUrandom_access_iterator_tag@0@@Z PROC ; std::_Advance<std::_Vector_iterator<std::_Vector_val<ExPCRoomSoldierBonusWnd::PCRoomSoldierSelect,std::allocator<ExPCRoomSoldierBonusWnd::PCRoomSoldierSelect> > >,int>, COMDAT

; 840  : 	{	// increment iterator by offset, random-access iterators

  00000	55		 push	 ebp
  00001	8b ec		 mov	 ebp, esp

; 841  : 	_Where += _Off;

  00003	8b 4d 0c	 mov	 ecx, DWORD PTR __Off$[ebp]
  00006	8b 45 08	 mov	 eax, DWORD PTR __Where$[ebp]
  00009	c1 e1 03	 shl	 ecx, 3
  0000c	01 08		 add	 DWORD PTR [eax], ecx

; 842  : 	}

  0000e	5d		 pop	 ebp
  0000f	c3		 ret	 0
??$_Advance@V?$_Vector_iterator@V?$_Vector_val@UPCRoomSoldierSelect@ExPCRoomSoldierBonusWnd@@V?$allocator@UPCRoomSoldierSelect@ExPCRoomSoldierBonusWnd@@@std@@@std@@@std@@H@std@@YAXAAV?$_Vector_iterator@V?$_Vector_val@UPCRoomSoldierSelect@ExPCRoomSoldierBonusWnd@@V?$allocator@UPCRoomSoldierSelect@ExPCRoomSoldierBonusWnd@@@std@@@std@@@0@HUrandom_access_iterator_tag@0@@Z ENDP ; std::_Advance<std::_Vector_iterator<std::_Vector_val<ExPCRoomSoldierBonusWnd::PCRoomSoldierSelect,std::allocator<ExPCRoomSoldierBonusWnd::PCRoomSoldierSelect> > >,int>
_TEXT	ENDS
PUBLIC	??G?$_Vector_iterator@V?$_Vector_val@UPCRoomSoldierSelect@ExPCRoomSoldierBonusWnd@@V?$allocator@UPCRoomSoldierSelect@ExPCRoomSoldierBonusWnd@@@std@@@std@@@std@@QBEHABV?$_Vector_const_iterator@V?$_Vector_val@UPCRoomSoldierSelect@ExPCRoomSoldierBonusWnd@@V?$allocator@UPCRoomSoldierSelect@ExPCRoomSoldierBonusWnd@@@std@@@std@@@1@@Z ; std::_Vector_iterator<std::_Vector_val<ExPCRoomSoldierBonusWnd::PCRoomSoldierSelect,std::allocator<ExPCRoomSoldierBonusWnd::PCRoomSoldierSelect> > >::operator-
; Function compile flags: /Ogsp
; File c:\program files (x86)\microsoft visual studio 10.0\vc\include\vector
;	COMDAT ??G?$_Vector_iterator@V?$_Vector_val@UPCRoomSoldierSelect@ExPCRoomSoldierBonusWnd@@V?$allocator@UPCRoomSoldierSelect@ExPCRoomSoldierBonusWnd@@@std@@@std@@@std@@QBEHABV?$_Vector_const_iterator@V?$_Vector_val@UPCRoomSoldierSelect@ExPCRoomSoldierBonusWnd@@V?$allocator@UPCRoomSoldierSelect@ExPCRoomSoldierBonusWnd@@@std@@@std@@@1@@Z
_TEXT	SEGMENT
__Right$ = 8						; size = 4
??G?$_Vector_iterator@V?$_Vector_val@UPCRoomSoldierSelect@ExPCRoomSoldierBonusWnd@@V?$allocator@UPCRoomSoldierSelect@ExPCRoomSoldierBonusWnd@@@std@@@std@@@std@@QBEHABV?$_Vector_const_iterator@V?$_Vector_val@UPCRoomSoldierSelect@ExPCRoomSoldierBonusWnd@@V?$allocator@UPCRoomSoldierSelect@ExPCRoomSoldierBonusWnd@@@std@@@std@@@1@@Z PROC ; std::_Vector_iterator<std::_Vector_val<ExPCRoomSoldierBonusWnd::PCRoomSoldierSelect,std::allocator<ExPCRoomSoldierBonusWnd::PCRoomSoldierSelect> > >::operator-, COMDAT
; _this$ = ecx

; 380  : 		{	// return difference of iterators

  00000	55		 push	 ebp
  00001	8b ec		 mov	 ebp, esp

; 381  : 		return (*(_Mybase *)this - _Right);

  00003	8b 01		 mov	 eax, DWORD PTR [ecx]
  00005	8b 4d 08	 mov	 ecx, DWORD PTR __Right$[ebp]
  00008	2b 01		 sub	 eax, DWORD PTR [ecx]
  0000a	c1 f8 03	 sar	 eax, 3

; 382  : 		}

  0000d	5d		 pop	 ebp
  0000e	c2 04 00	 ret	 4
??G?$_Vector_iterator@V?$_Vector_val@UPCRoomSoldierSelect@ExPCRoomSoldierBonusWnd@@V?$allocator@UPCRoomSoldierSelect@ExPCRoomSoldierBonusWnd@@@std@@@std@@@std@@QBEHABV?$_Vector_const_iterator@V?$_Vector_val@UPCRoomSoldierSelect@ExPCRoomSoldierBonusWnd@@V?$allocator@UPCRoomSoldierSelect@ExPCRoomSoldierBonusWnd@@@std@@@std@@@1@@Z ENDP ; std::_Vector_iterator<std::_Vector_val<ExPCRoomSoldierBonusWnd::PCRoomSoldierSelect,std::allocator<ExPCRoomSoldierBonusWnd::PCRoomSoldierSelect> > >::operator-
_TEXT	ENDS
PUBLIC	??G?$_Vector_const_iterator@V?$_Vector_val@HV?$allocator@H@std@@@std@@@std@@QBEHABV01@@Z ; std::_Vector_const_iterator<std::_Vector_val<int,std::allocator<int> > >::operator-
; Function compile flags: /Ogsp
;	COMDAT ??G?$_Vector_const_iterator@V?$_Vector_val@HV?$allocator@H@std@@@std@@@std@@QBEHABV01@@Z
_TEXT	SEGMENT
__Right$ = 8						; size = 4
??G?$_Vector_const_iterator@V?$_Vector_val@HV?$allocator@H@std@@@std@@@std@@QBEHABV01@@Z PROC ; std::_Vector_const_iterator<std::_Vector_val<int,std::allocator<int> > >::operator-, COMDAT
; _this$ = ecx

; 190  : 		{	// return difference of iterators

  00000	55		 push	 ebp
  00001	8b ec		 mov	 ebp, esp

; 191  : 		_Compat(_Right);
; 192  : 		return (this->_Ptr - _Right._Ptr);

  00003	8b 01		 mov	 eax, DWORD PTR [ecx]
  00005	8b 4d 08	 mov	 ecx, DWORD PTR __Right$[ebp]
  00008	2b 01		 sub	 eax, DWORD PTR [ecx]
  0000a	c1 f8 02	 sar	 eax, 2

; 193  : 		}

  0000d	5d		 pop	 ebp
  0000e	c2 04 00	 ret	 4
??G?$_Vector_const_iterator@V?$_Vector_val@HV?$allocator@H@std@@@std@@@std@@QBEHABV01@@Z ENDP ; std::_Vector_const_iterator<std::_Vector_val<int,std::allocator<int> > >::operator-
_TEXT	ENDS
PUBLIC	??$swap@UPCRoomSoldierSelect@ExPCRoomSoldierBonusWnd@@@std@@YAXAAUPCRoomSoldierSelect@ExPCRoomSoldierBonusWnd@@0@Z ; std::swap<ExPCRoomSoldierBonusWnd::PCRoomSoldierSelect>
; Function compile flags: /Ogsp
; File c:\program files (x86)\microsoft visual studio 10.0\vc\include\utility
;	COMDAT ??$swap@UPCRoomSoldierSelect@ExPCRoomSoldierBonusWnd@@@std@@YAXAAUPCRoomSoldierSelect@ExPCRoomSoldierBonusWnd@@0@Z
_TEXT	SEGMENT
__Left$ = 8						; size = 4
__Right$ = 12						; size = 4
??$swap@UPCRoomSoldierSelect@ExPCRoomSoldierBonusWnd@@@std@@YAXAAUPCRoomSoldierSelect@ExPCRoomSoldierBonusWnd@@0@Z PROC ; std::swap<ExPCRoomSoldierBonusWnd::PCRoomSoldierSelect>, COMDAT

; 101  : 	{	// exchange values stored at _Left and _Right

  00000	55		 push	 ebp
  00001	8b ec		 mov	 ebp, esp

; 102  : 	_Ty _Tmp = _Move(_Left);
; 103  : 	_Left = _Move(_Right);

  00003	8b 4d 0c	 mov	 ecx, DWORD PTR __Right$[ebp]
  00006	8b 45 08	 mov	 eax, DWORD PTR __Left$[ebp]
  00009	8b 10		 mov	 edx, DWORD PTR [eax]
  0000b	56		 push	 esi
  0000c	8b 70 04	 mov	 esi, DWORD PTR [eax+4]
  0000f	57		 push	 edi
  00010	8b 39		 mov	 edi, DWORD PTR [ecx]
  00012	89 38		 mov	 DWORD PTR [eax], edi
  00014	8b 79 04	 mov	 edi, DWORD PTR [ecx+4]
  00017	89 78 04	 mov	 DWORD PTR [eax+4], edi
  0001a	5f		 pop	 edi

; 104  : 	_Right = _Move(_Tmp);

  0001b	89 71 04	 mov	 DWORD PTR [ecx+4], esi
  0001e	89 11		 mov	 DWORD PTR [ecx], edx
  00020	5e		 pop	 esi

; 105  : 	}

  00021	5d		 pop	 ebp
  00022	c3		 ret	 0
??$swap@UPCRoomSoldierSelect@ExPCRoomSoldierBonusWnd@@@std@@YAXAAUPCRoomSoldierSelect@ExPCRoomSoldierBonusWnd@@0@Z ENDP ; std::swap<ExPCRoomSoldierBonusWnd::PCRoomSoldierSelect>
_TEXT	ENDS
PUBLIC	??1CHARACTER@@QAE@XZ				; CHARACTER::~CHARACTER
EXTRN	??_M@YGXPAXIHP6EX0@Z@Z:PROC			; `eh vector destructor iterator'
;	COMDAT xdata$x
xdata$x	SEGMENT
__ehfuncinfo$??1CHARACTER@@QAE@XZ DD 019930522H
	DD	0aH
	DD	FLAT:__unwindtable$??1CHARACTER@@QAE@XZ
	DD	2 DUP(00H)
	DD	2 DUP(00H)
	DD	00H
	DD	01H
__unwindtable$??1CHARACTER@@QAE@XZ DD 0ffffffffH
	DD	FLAT:__unwindfunclet$??1CHARACTER@@QAE@XZ$0
	DD	00H
	DD	FLAT:__unwindfunclet$??1CHARACTER@@QAE@XZ$1
	DD	01H
	DD	FLAT:__unwindfunclet$??1CHARACTER@@QAE@XZ$2
	DD	02H
	DD	FLAT:__unwindfunclet$??1CHARACTER@@QAE@XZ$3
	DD	03H
	DD	FLAT:__unwindfunclet$??1CHARACTER@@QAE@XZ$4
	DD	04H
	DD	FLAT:__unwindfunclet$??1CHARACTER@@QAE@XZ$5
	DD	05H
	DD	FLAT:__unwindfunclet$??1CHARACTER@@QAE@XZ$6
	DD	06H
	DD	FLAT:__unwindfunclet$??1CHARACTER@@QAE@XZ$7
	DD	07H
	DD	FLAT:__unwindfunclet$??1CHARACTER@@QAE@XZ$8
	DD	08H
	DD	FLAT:__unwindfunclet$??1CHARACTER@@QAE@XZ$9
; Function compile flags: /Ogsp
xdata$x	ENDS
;	COMDAT ??1CHARACTER@@QAE@XZ
_TEXT	SEGMENT
_this$ = -16						; size = 4
__$EHRec$ = -12						; size = 12
??1CHARACTER@@QAE@XZ PROC				; CHARACTER::~CHARACTER, COMDAT
; _this$ = ecx
  00000	6a 04		 push	 4
  00002	b8 00 00 00 00	 mov	 eax, __ehhandler$??1CHARACTER@@QAE@XZ
  00007	e8 00 00 00 00	 call	 __EH_prolog3
  0000c	8b f1		 mov	 esi, ecx
  0000e	89 75 f0	 mov	 DWORD PTR _this$[ebp], esi
  00011	68 00 00 00 00	 push	 OFFSET ??1?$CEncrypt@H@@UAE@XZ ; CEncrypt<int>::~CEncrypt<int>
  00016	6a 04		 push	 4
  00018	6a 30		 push	 48			; 00000030H
  0001a	8d 86 e0 01 00
	00		 lea	 eax, DWORD PTR [esi+480]
  00020	50		 push	 eax
  00021	c7 45 fc 09 00
	00 00		 mov	 DWORD PTR __$EHRec$[ebp+8], 9
  00028	e8 00 00 00 00	 call	 ??_M@YGXPAXIHP6EX0@Z@Z
  0002d	bf 00 00 00 00	 mov	 edi, OFFSET ??_7?$CEncrypt@H@@6B@
  00032	8d 8e bc 01 00
	00		 lea	 ecx, DWORD PTR [esi+444]
  00038	c6 45 fc 08	 mov	 BYTE PTR __$EHRec$[ebp+8], 8
  0003c	89 be b0 01 00
	00		 mov	 DWORD PTR [esi+432], edi
  00042	e8 00 00 00 00	 call	 ??1ccddaabb@@UAE@XZ	; ccddaabb::~ccddaabb
  00047	8d 8e 8c 01 00
	00		 lea	 ecx, DWORD PTR [esi+396]
  0004d	c6 45 fc 07	 mov	 BYTE PTR __$EHRec$[ebp+8], 7
  00051	89 be 80 01 00
	00		 mov	 DWORD PTR [esi+384], edi
  00057	e8 00 00 00 00	 call	 ??1ccddaabb@@UAE@XZ	; ccddaabb::~ccddaabb
  0005c	8d 8e 5c 01 00
	00		 lea	 ecx, DWORD PTR [esi+348]
  00062	c6 45 fc 06	 mov	 BYTE PTR __$EHRec$[ebp+8], 6
  00066	89 be 50 01 00
	00		 mov	 DWORD PTR [esi+336], edi
  0006c	e8 00 00 00 00	 call	 ??1ccddaabb@@UAE@XZ	; ccddaabb::~ccddaabb
  00071	8d 8e 2c 01 00
	00		 lea	 ecx, DWORD PTR [esi+300]
  00077	c6 45 fc 05	 mov	 BYTE PTR __$EHRec$[ebp+8], 5
  0007b	89 be 20 01 00
	00		 mov	 DWORD PTR [esi+288], edi
  00081	e8 00 00 00 00	 call	 ??1ccddaabb@@UAE@XZ	; ccddaabb::~ccddaabb
  00086	8d 8e fc 00 00
	00		 lea	 ecx, DWORD PTR [esi+252]
  0008c	c6 45 fc 04	 mov	 BYTE PTR __$EHRec$[ebp+8], 4
  00090	89 be f0 00 00
	00		 mov	 DWORD PTR [esi+240], edi
  00096	e8 00 00 00 00	 call	 ??1ccddaabb@@UAE@XZ	; ccddaabb::~ccddaabb
  0009b	8d 8e cc 00 00
	00		 lea	 ecx, DWORD PTR [esi+204]
  000a1	c6 45 fc 03	 mov	 BYTE PTR __$EHRec$[ebp+8], 3
  000a5	89 be c0 00 00
	00		 mov	 DWORD PTR [esi+192], edi
  000ab	e8 00 00 00 00	 call	 ??1ccddaabb@@UAE@XZ	; ccddaabb::~ccddaabb
  000b0	8d 8e 9c 00 00
	00		 lea	 ecx, DWORD PTR [esi+156]
  000b6	c6 45 fc 02	 mov	 BYTE PTR __$EHRec$[ebp+8], 2
  000ba	89 be 90 00 00
	00		 mov	 DWORD PTR [esi+144], edi
  000c0	e8 00 00 00 00	 call	 ??1ccddaabb@@UAE@XZ	; ccddaabb::~ccddaabb
  000c5	8d 4e 6c	 lea	 ecx, DWORD PTR [esi+108]
  000c8	c6 45 fc 01	 mov	 BYTE PTR __$EHRec$[ebp+8], 1
  000cc	89 7e 60	 mov	 DWORD PTR [esi+96], edi
  000cf	e8 00 00 00 00	 call	 ??1ccddaabb@@UAE@XZ	; ccddaabb::~ccddaabb
  000d4	8d 4e 3c	 lea	 ecx, DWORD PTR [esi+60]
  000d7	c6 45 fc 00	 mov	 BYTE PTR __$EHRec$[ebp+8], 0
  000db	89 7e 30	 mov	 DWORD PTR [esi+48], edi
  000de	e8 00 00 00 00	 call	 ??1ccddaabb@@UAE@XZ	; ccddaabb::~ccddaabb
  000e3	83 4d fc ff	 or	 DWORD PTR __$EHRec$[ebp+8], -1
  000e7	8d 4e 0c	 lea	 ecx, DWORD PTR [esi+12]
  000ea	89 3e		 mov	 DWORD PTR [esi], edi
  000ec	e8 00 00 00 00	 call	 ??1ccddaabb@@UAE@XZ	; ccddaabb::~ccddaabb
  000f1	e8 00 00 00 00	 call	 __EH_epilog3
  000f6	c3		 ret	 0
_TEXT	ENDS
;	COMDAT text$x
text$x	SEGMENT
__unwindfunclet$??1CHARACTER@@QAE@XZ$0:
  00000	8b 4d f0	 mov	 ecx, DWORD PTR _this$[ebp]
  00003	e9 00 00 00 00	 jmp	 ??1?$CEncrypt@H@@UAE@XZ	; CEncrypt<int>::~CEncrypt<int>
__unwindfunclet$??1CHARACTER@@QAE@XZ$1:
  00008	8b 4d f0	 mov	 ecx, DWORD PTR _this$[ebp]
  0000b	83 c1 30	 add	 ecx, 48			; 00000030H
  0000e	e9 00 00 00 00	 jmp	 ??1?$CEncrypt@H@@UAE@XZ	; CEncrypt<int>::~CEncrypt<int>
__unwindfunclet$??1CHARACTER@@QAE@XZ$2:
  00013	8b 4d f0	 mov	 ecx, DWORD PTR _this$[ebp]
  00016	83 c1 60	 add	 ecx, 96			; 00000060H
  00019	e9 00 00 00 00	 jmp	 ??1?$CEncrypt@H@@UAE@XZ	; CEncrypt<int>::~CEncrypt<int>
__unwindfunclet$??1CHARACTER@@QAE@XZ$3:
  0001e	8b 4d f0	 mov	 ecx, DWORD PTR _this$[ebp]
  00021	81 c1 90 00 00
	00		 add	 ecx, 144		; 00000090H
  00027	e9 00 00 00 00	 jmp	 ??1?$CEncrypt@H@@UAE@XZ	; CEncrypt<int>::~CEncrypt<int>
__unwindfunclet$??1CHARACTER@@QAE@XZ$4:
  0002c	8b 4d f0	 mov	 ecx, DWORD PTR _this$[ebp]
  0002f	81 c1 c0 00 00
	00		 add	 ecx, 192		; 000000c0H
  00035	e9 00 00 00 00	 jmp	 ??1?$CEncrypt@H@@UAE@XZ	; CEncrypt<int>::~CEncrypt<int>
__unwindfunclet$??1CHARACTER@@QAE@XZ$5:
  0003a	8b 4d f0	 mov	 ecx, DWORD PTR _this$[ebp]
  0003d	81 c1 f0 00 00
	00		 add	 ecx, 240		; 000000f0H
  00043	e9 00 00 00 00	 jmp	 ??1?$CEncrypt@H@@UAE@XZ	; CEncrypt<int>::~CEncrypt<int>
__unwindfunclet$??1CHARACTER@@QAE@XZ$6:
  00048	8b 4d f0	 mov	 ecx, DWORD PTR _this$[ebp]
  0004b	81 c1 20 01 00
	00		 add	 ecx, 288		; 00000120H
  00051	e9 00 00 00 00	 jmp	 ??1?$CEncrypt@H@@UAE@XZ	; CEncrypt<int>::~CEncrypt<int>
__unwindfunclet$??1CHARACTER@@QAE@XZ$7:
  00056	8b 4d f0	 mov	 ecx, DWORD PTR _this$[ebp]
  00059	81 c1 50 01 00
	00		 add	 ecx, 336		; 00000150H
  0005f	e9 00 00 00 00	 jmp	 ??1?$CEncrypt@H@@UAE@XZ	; CEncrypt<int>::~CEncrypt<int>
__unwindfunclet$??1CHARACTER@@QAE@XZ$8:
  00064	8b 4d f0	 mov	 ecx, DWORD PTR _this$[ebp]
  00067	81 c1 80 01 00
	00		 add	 ecx, 384		; 00000180H
  0006d	e9 00 00 00 00	 jmp	 ??1?$CEncrypt@H@@UAE@XZ	; CEncrypt<int>::~CEncrypt<int>
__unwindfunclet$??1CHARACTER@@QAE@XZ$9:
  00072	8b 4d f0	 mov	 ecx, DWORD PTR _this$[ebp]
  00075	81 c1 b0 01 00
	00		 add	 ecx, 432		; 000001b0H
  0007b	e9 00 00 00 00	 jmp	 ??1?$CEncrypt@H@@UAE@XZ	; CEncrypt<int>::~CEncrypt<int>
__ehhandler$??1CHARACTER@@QAE@XZ:
  00080	8b 54 24 08	 mov	 edx, DWORD PTR [esp+8]
  00084	8d 42 0c	 lea	 eax, DWORD PTR [edx+12]
  00087	8b 4a ec	 mov	 ecx, DWORD PTR [edx-20]
  0008a	33 c8		 xor	 ecx, eax
  0008c	e8 00 00 00 00	 call	 @__security_check_cookie@4
  00091	b8 00 00 00 00	 mov	 eax, OFFSET __ehfuncinfo$??1CHARACTER@@QAE@XZ
  00096	e9 00 00 00 00	 jmp	 ___CxxFrameHandler3
text$x	ENDS
??1CHARACTER@@QAE@XZ ENDP				; CHARACTER::~CHARACTER
PUBLIC	?MaxClassPrice@ioClassPrice@@QAEHXZ		; ioClassPrice::MaxClassPrice
; Function compile flags: /Ogsp
; File d:\lost saga for developer\youtube\tutorial\source\src\lsclient\ioclassprice.h
;	COMDAT ?MaxClassPrice@ioClassPrice@@QAEHXZ
_TEXT	SEGMENT
?MaxClassPrice@ioClassPrice@@QAEHXZ PROC		; ioClassPrice::MaxClassPrice, COMDAT
; _this$ = ecx

; 114  : 	int MaxClassPrice(){ return m_vPriceData.size(); }

  00000	8b 41 08	 mov	 eax, DWORD PTR [ecx+8]
  00003	2b 41 04	 sub	 eax, DWORD PTR [ecx+4]
  00006	c1 f8 02	 sar	 eax, 2
  00009	c3		 ret	 0
?MaxClassPrice@ioClassPrice@@QAEHXZ ENDP		; ioClassPrice::MaxClassPrice
_TEXT	ENDS
PUBLIC	?begin@?$vector@HV?$allocator@H@std@@@std@@QAE?AV?$_Vector_iterator@V?$_Vector_val@HV?$allocator@H@std@@@std@@@2@XZ ; std::vector<int,std::allocator<int> >::begin
; Function compile flags: /Ogsp
; File c:\program files (x86)\microsoft visual studio 10.0\vc\include\vector
;	COMDAT ?begin@?$vector@HV?$allocator@H@std@@@std@@QAE?AV?$_Vector_iterator@V?$_Vector_val@HV?$allocator@H@std@@@std@@@2@XZ
_TEXT	SEGMENT
___$ReturnUdt$ = 8					; size = 4
?begin@?$vector@HV?$allocator@H@std@@@std@@QAE?AV?$_Vector_iterator@V?$_Vector_val@HV?$allocator@H@std@@@std@@@2@XZ PROC ; std::vector<int,std::allocator<int> >::begin, COMDAT
; _this$ = ecx

; 781  : 		{	// return iterator for beginning of mutable sequence

  00000	55		 push	 ebp
  00001	8b ec		 mov	 ebp, esp

; 782  : 		return (iterator(this->_Myfirst, this));

  00003	8b 09		 mov	 ecx, DWORD PTR [ecx]
  00005	8b 45 08	 mov	 eax, DWORD PTR ___$ReturnUdt$[ebp]
  00008	89 08		 mov	 DWORD PTR [eax], ecx

; 783  : 		}

  0000a	5d		 pop	 ebp
  0000b	c2 04 00	 ret	 4
?begin@?$vector@HV?$allocator@H@std@@@std@@QAE?AV?$_Vector_iterator@V?$_Vector_val@HV?$allocator@H@std@@@std@@@2@XZ ENDP ; std::vector<int,std::allocator<int> >::begin
_TEXT	ENDS
PUBLIC	??B?$CEncrypt@K@@QBEKXZ				; CEncrypt<unsigned long>::operator unsigned long
; Function compile flags: /Ogsp
; File d:\lost saga for developer\youtube\tutorial\source\src\lsclient\encryptvalue.h
;	COMDAT ??B?$CEncrypt@K@@QBEKXZ
_TEXT	SEGMENT
_value$ = -4						; size = 4
??B?$CEncrypt@K@@QBEKXZ PROC				; CEncrypt<unsigned long>::operator unsigned long, COMDAT
; _this$ = ecx

; 145  : 	{

  00000	55		 push	 ebp
  00001	8b ec		 mov	 ebp, esp
  00003	51		 push	 ecx

; 146  : 		//UJ 130829, const    --start
; 147  : 		type value;
; 148  : 		CEncrypt<type>* pThis = const_cast<CEncrypt<type>*>(this);
; 149  : 		pThis->DecryptValueToPool(&value);

  00004	8d 45 fc	 lea	 eax, DWORD PTR _value$[ebp]
  00007	50		 push	 eax
  00008	e8 00 00 00 00	 call	 ?DecryptValueToPool@?$CEncrypt@K@@QAEXPAK@Z ; CEncrypt<unsigned long>::DecryptValueToPool

; 150  : 		//// const DecryptValueToPool     .
; 151  :  		//type value;
; 152  : 		//char szTempMem[MAX_ENCRYPT];
; 153  : 		//m_RC5.DecryptByte( m_MemPool, szTempMem, max(m_ValueSize, DEFAULT_ENCRYPT) );
; 154  : 		//memcpy( &value, szTempMem, m_ValueSize );
; 155  : 		//UJ --end
; 156  : 
; 157  : #ifdef _NOTUSE
; 158  : 		Debug();
; 159  : #endif
; 160  : 		return value;

  0000d	8b 45 fc	 mov	 eax, DWORD PTR _value$[ebp]

; 161  : 	}

  00010	c9		 leave
  00011	c3		 ret	 0
??B?$CEncrypt@K@@QBEKXZ ENDP				; CEncrypt<unsigned long>::operator unsigned long
_TEXT	ENDS
PUBLIC	??0?$CEncrypt@H@@QAE@XZ				; CEncrypt<int>::CEncrypt<int>
EXTRN	??0ccddaabb@@QAE@XZ:PROC			; ccddaabb::ccddaabb
;	COMDAT xdata$x
xdata$x	SEGMENT
__unwindtable$??0?$CEncrypt@H@@QAE@XZ DD 0ffffffffH
	DD	FLAT:__unwindfunclet$??0?$CEncrypt@H@@QAE@XZ$0
__ehfuncinfo$??0?$CEncrypt@H@@QAE@XZ DD 019930522H
	DD	01H
	DD	FLAT:__unwindtable$??0?$CEncrypt@H@@QAE@XZ
	DD	2 DUP(00H)
	DD	2 DUP(00H)
	DD	00H
	DD	01H
; Function compile flags: /Ogsp
xdata$x	ENDS
;	COMDAT ??0?$CEncrypt@H@@QAE@XZ
_TEXT	SEGMENT
_this$ = -16						; size = 4
__$EHRec$ = -12						; size = 12
??0?$CEncrypt@H@@QAE@XZ PROC				; CEncrypt<int>::CEncrypt<int>, COMDAT
; _this$ = ecx

; 109  : 	CEncrypt()

  00000	6a 04		 push	 4
  00002	b8 00 00 00 00	 mov	 eax, __ehhandler$??0?$CEncrypt@H@@QAE@XZ
  00007	e8 00 00 00 00	 call	 __EH_prolog3
  0000c	8b f1		 mov	 esi, ecx
  0000e	89 75 f0	 mov	 DWORD PTR _this$[ebp], esi
  00011	8d 4e 0c	 lea	 ecx, DWORD PTR [esi+12]
  00014	c7 06 00 00 00
	00		 mov	 DWORD PTR [esi], OFFSET ??_7?$CEncrypt@H@@6B@
  0001a	e8 00 00 00 00	 call	 ??0ccddaabb@@QAE@XZ	; ccddaabb::ccddaabb
  0001f	83 65 fc 00	 and	 DWORD PTR __$EHRec$[ebp+8], 0

; 110  : 	{
; 111  : 		Init();

  00023	8b ce		 mov	 ecx, esi
  00025	e8 00 00 00 00	 call	 ?Init@?$CEncrypt@H@@AAEXXZ ; CEncrypt<int>::Init

; 112  : 	}

  0002a	8b c6		 mov	 eax, esi
  0002c	e8 00 00 00 00	 call	 __EH_epilog3
  00031	c3		 ret	 0
_TEXT	ENDS
;	COMDAT text$x
text$x	SEGMENT
__unwindfunclet$??0?$CEncrypt@H@@QAE@XZ$0:
  00000	8b 4d f0	 mov	 ecx, DWORD PTR _this$[ebp]
  00003	83 c1 0c	 add	 ecx, 12			; 0000000cH
  00006	e9 00 00 00 00	 jmp	 ??1ccddaabb@@UAE@XZ	; ccddaabb::~ccddaabb
__ehhandler$??0?$CEncrypt@H@@QAE@XZ:
  0000b	8b 54 24 08	 mov	 edx, DWORD PTR [esp+8]
  0000f	8d 42 0c	 lea	 eax, DWORD PTR [edx+12]
  00012	8b 4a ec	 mov	 ecx, DWORD PTR [edx-20]
  00015	33 c8		 xor	 ecx, eax
  00017	e8 00 00 00 00	 call	 @__security_check_cookie@4
  0001c	b8 00 00 00 00	 mov	 eax, OFFSET __ehfuncinfo$??0?$CEncrypt@H@@QAE@XZ
  00021	e9 00 00 00 00	 jmp	 ___CxxFrameHandler3
text$x	ENDS
??0?$CEncrypt@H@@QAE@XZ ENDP				; CEncrypt<int>::CEncrypt<int>
PUBLIC	??B?$CEncrypt@H@@QAEHXZ				; CEncrypt<int>::operator int
; Function compile flags: /Ogsp
;	COMDAT ??B?$CEncrypt@H@@QAEHXZ
_TEXT	SEGMENT
_value$ = -4						; size = 4
??B?$CEncrypt@H@@QAEHXZ PROC				; CEncrypt<int>::operator int, COMDAT
; _this$ = ecx

; 134  : 	{

  00000	55		 push	 ebp
  00001	8b ec		 mov	 ebp, esp
  00003	51		 push	 ecx

; 135  : 		type value;
; 136  : 		DecryptValueToPool(&value);

  00004	8d 45 fc	 lea	 eax, DWORD PTR _value$[ebp]
  00007	50		 push	 eax
  00008	e8 00 00 00 00	 call	 ?DecryptValueToPool@?$CEncrypt@H@@QAEXPAH@Z ; CEncrypt<int>::DecryptValueToPool

; 137  : 
; 138  : #ifdef _NOTUSE
; 139  : 		Debug();
; 140  : #endif
; 141  : 		return value;

  0000d	8b 45 fc	 mov	 eax, DWORD PTR _value$[ebp]

; 142  : 	}

  00010	c9		 leave
  00011	c3		 ret	 0
??B?$CEncrypt@H@@QAEHXZ ENDP				; CEncrypt<int>::operator int
_TEXT	ENDS
PUBLIC	??B?$CEncrypt@H@@QBEHXZ				; CEncrypt<int>::operator int
; Function compile flags: /Ogsp
;	COMDAT ??B?$CEncrypt@H@@QBEHXZ
_TEXT	SEGMENT
_value$ = -4						; size = 4
??B?$CEncrypt@H@@QBEHXZ PROC				; CEncrypt<int>::operator int, COMDAT
; _this$ = ecx

; 145  : 	{

  00000	55		 push	 ebp
  00001	8b ec		 mov	 ebp, esp
  00003	51		 push	 ecx

; 146  : 		//UJ 130829, const    --start
; 147  : 		type value;
; 148  : 		CEncrypt<type>* pThis = const_cast<CEncrypt<type>*>(this);
; 149  : 		pThis->DecryptValueToPool(&value);

  00004	8d 45 fc	 lea	 eax, DWORD PTR _value$[ebp]
  00007	50		 push	 eax
  00008	e8 00 00 00 00	 call	 ?DecryptValueToPool@?$CEncrypt@H@@QAEXPAH@Z ; CEncrypt<int>::DecryptValueToPool

; 150  : 		//// const DecryptValueToPool     .
; 151  :  		//type value;
; 152  : 		//char szTempMem[MAX_ENCRYPT];
; 153  : 		//m_RC5.DecryptByte( m_MemPool, szTempMem, max(m_ValueSize, DEFAULT_ENCRYPT) );
; 154  : 		//memcpy( &value, szTempMem, m_ValueSize );
; 155  : 		//UJ --end
; 156  : 
; 157  : #ifdef _NOTUSE
; 158  : 		Debug();
; 159  : #endif
; 160  : 		return value;

  0000d	8b 45 fc	 mov	 eax, DWORD PTR _value$[ebp]

; 161  : 	}

  00010	c9		 leave
  00011	c3		 ret	 0
??B?$CEncrypt@H@@QBEHXZ ENDP				; CEncrypt<int>::operator int
_TEXT	ENDS
PUBLIC	??4?$CEncrypt@H@@QAEHH@Z			; CEncrypt<int>::operator=
; Function compile flags: /Ogsp
;	COMDAT ??4?$CEncrypt@H@@QAEHH@Z
_TEXT	SEGMENT
_value$ = 8						; size = 4
_inValue$ = 8						; size = 4
??4?$CEncrypt@H@@QAEHH@Z PROC				; CEncrypt<int>::operator=, COMDAT
; _this$ = ecx

; 843  : 	{

  00000	55		 push	 ebp
  00001	8b ec		 mov	 ebp, esp

; 844  : 		type value = inValue;

  00003	8b 45 08	 mov	 eax, DWORD PTR _inValue$[ebp]
  00006	89 45 08	 mov	 DWORD PTR _value$[ebp], eax

; 845  : 		EncryptValueToPool((char*)&value);

  00009	8d 45 08	 lea	 eax, DWORD PTR _value$[ebp]
  0000c	50		 push	 eax
  0000d	e8 00 00 00 00	 call	 ?EncryptValueToPool@?$CEncrypt@H@@AAEXPBD@Z ; CEncrypt<int>::EncryptValueToPool

; 846  : #ifdef _NOTUSE
; 847  : 		m_value = inValue;
; 848  : 		Debug();
; 849  : #endif
; 850  : 		return value;

  00012	8b 45 08	 mov	 eax, DWORD PTR _value$[ebp]

; 851  : 	}

  00015	5d		 pop	 ebp
  00016	c2 04 00	 ret	 4
??4?$CEncrypt@H@@QAEHH@Z ENDP				; CEncrypt<int>::operator=
_TEXT	ENDS
PUBLIC	?end@?$vector@HV?$allocator@H@std@@@std@@QAE?AV?$_Vector_iterator@V?$_Vector_val@HV?$allocator@H@std@@@std@@@2@XZ ; std::vector<int,std::allocator<int> >::end
; Function compile flags: /Ogsp
; File c:\program files (x86)\microsoft visual studio 10.0\vc\include\vector
;	COMDAT ?end@?$vector@HV?$allocator@H@std@@@std@@QAE?AV?$_Vector_iterator@V?$_Vector_val@HV?$allocator@H@std@@@std@@@2@XZ
_TEXT	SEGMENT
___$ReturnUdt$ = 8					; size = 4
?end@?$vector@HV?$allocator@H@std@@@std@@QAE?AV?$_Vector_iterator@V?$_Vector_val@HV?$allocator@H@std@@@std@@@2@XZ PROC ; std::vector<int,std::allocator<int> >::end, COMDAT
; _this$ = ecx

; 791  : 		{	// return iterator for end of mutable sequence

  00000	55		 push	 ebp
  00001	8b ec		 mov	 ebp, esp

; 792  : 		return (iterator(this->_Mylast, this));

  00003	8b 49 04	 mov	 ecx, DWORD PTR [ecx+4]
  00006	8b 45 08	 mov	 eax, DWORD PTR ___$ReturnUdt$[ebp]
  00009	89 08		 mov	 DWORD PTR [eax], ecx

; 793  : 		}

  0000b	5d		 pop	 ebp
  0000c	c2 04 00	 ret	 4
?end@?$vector@HV?$allocator@H@std@@@std@@QAE?AV?$_Vector_iterator@V?$_Vector_val@HV?$allocator@H@std@@@std@@@2@XZ ENDP ; std::vector<int,std::allocator<int> >::end
_TEXT	ENDS
PUBLIC	??0?$_Vector_val@HV?$allocator@H@std@@@std@@QAE@V?$allocator@H@1@@Z ; std::_Vector_val<int,std::allocator<int> >::_Vector_val<int,std::allocator<int> >
; Function compile flags: /Ogsp
;	COMDAT ??0?$_Vector_val@HV?$allocator@H@std@@@std@@QAE@V?$allocator@H@1@@Z
_TEXT	SEGMENT
__Al$ = 8						; size = 1
??0?$_Vector_val@HV?$allocator@H@std@@@std@@QAE@V?$allocator@H@1@@Z PROC ; std::_Vector_val<int,std::allocator<int> >::_Vector_val<int,std::allocator<int> >, COMDAT
; _this$ = ecx

; 426  : 		{	// construct allocator from _Al

  00000	8b c1		 mov	 eax, ecx

; 427  : 		_Myfirst = 0;

  00002	33 c9		 xor	 ecx, ecx
  00004	89 08		 mov	 DWORD PTR [eax], ecx

; 428  : 		_Mylast = 0;

  00006	89 48 04	 mov	 DWORD PTR [eax+4], ecx

; 429  : 		_Myend = 0;

  00009	89 48 08	 mov	 DWORD PTR [eax+8], ecx

; 430  : 		}

  0000c	c2 04 00	 ret	 4
??0?$_Vector_val@HV?$allocator@H@std@@@std@@QAE@V?$allocator@H@1@@Z ENDP ; std::_Vector_val<int,std::allocator<int> >::_Vector_val<int,std::allocator<int> >
_TEXT	ENDS
PUBLIC	?max_size@?$vector@HV?$allocator@H@std@@@std@@QBEIXZ ; std::vector<int,std::allocator<int> >::max_size
; Function compile flags: /Ogsp
;	COMDAT ?max_size@?$vector@HV?$allocator@H@std@@@std@@QBEIXZ
_TEXT	SEGMENT
?max_size@?$vector@HV?$allocator@H@std@@@std@@QBEIXZ PROC ; std::vector<int,std::allocator<int> >::max_size, COMDAT
; _this$ = ecx

; 884  : 		return (this->_Alval.max_size());

  00000	b8 ff ff ff 3f	 mov	 eax, 1073741823		; 3fffffffH

; 885  : 		}

  00005	c3		 ret	 0
?max_size@?$vector@HV?$allocator@H@std@@@std@@QBEIXZ ENDP ; std::vector<int,std::allocator<int> >::max_size
_TEXT	ENDS
PUBLIC	?_Grow_to@?$vector@HV?$allocator@H@std@@@std@@IBEII@Z ; std::vector<int,std::allocator<int> >::_Grow_to
; Function compile flags: /Ogsp
;	COMDAT ?_Grow_to@?$vector@HV?$allocator@H@std@@@std@@IBEII@Z
_TEXT	SEGMENT
__Count$ = 8						; size = 4
?_Grow_to@?$vector@HV?$allocator@H@std@@@std@@IBEII@Z PROC ; std::vector<int,std::allocator<int> >::_Grow_to, COMDAT
; _this$ = ecx

; 1274 : 		{	// grow by 50% or at least to _Count

  00000	55		 push	 ebp
  00001	8b ec		 mov	 ebp, esp

; 1275 : 		size_type _Capacity = capacity();

  00003	8b 41 08	 mov	 eax, DWORD PTR [ecx+8]
  00006	2b 01		 sub	 eax, DWORD PTR [ecx]

; 1276 : 
; 1277 : 		_Capacity = max_size() - _Capacity / 2 < _Capacity
; 1278 : 			? 0 : _Capacity + _Capacity / 2;	// try to grow by 50%

  00008	ba ff ff ff 3f	 mov	 edx, 1073741823		; 3fffffffH
  0000d	c1 f8 02	 sar	 eax, 2
  00010	8b c8		 mov	 ecx, eax
  00012	d1 e9		 shr	 ecx, 1
  00014	2b d1		 sub	 edx, ecx
  00016	3b d0		 cmp	 edx, eax
  00018	73 04		 jae	 SHORT $LN4@Grow_to@2
  0001a	33 c0		 xor	 eax, eax
  0001c	eb 02		 jmp	 SHORT $LN5@Grow_to@2
$LN4@Grow_to@2:
  0001e	03 c1		 add	 eax, ecx
$LN5@Grow_to@2:

; 1279 : 		if (_Capacity < _Count)

  00020	3b 45 08	 cmp	 eax, DWORD PTR __Count$[ebp]

; 1280 : 			_Capacity = _Count;

  00023	0f 42 45 08	 cmovb	 eax, DWORD PTR __Count$[ebp]

; 1281 : 		return (_Capacity);
; 1282 : 		}

  00027	5d		 pop	 ebp
  00028	c2 04 00	 ret	 4
?_Grow_to@?$vector@HV?$allocator@H@std@@@std@@IBEII@Z ENDP ; std::vector<int,std::allocator<int> >::_Grow_to
_TEXT	ENDS
PUBLIC	??Y?$_Vector_iterator@V?$_Vector_val@HV?$allocator@H@std@@@std@@@std@@QAEAAV01@H@Z ; std::_Vector_iterator<std::_Vector_val<int,std::allocator<int> > >::operator+=
; Function compile flags: /Ogsp
;	COMDAT ??Y?$_Vector_iterator@V?$_Vector_val@HV?$allocator@H@std@@@std@@@std@@QAEAAV01@H@Z
_TEXT	SEGMENT
__Off$ = 8						; size = 4
??Y?$_Vector_iterator@V?$_Vector_val@HV?$allocator@H@std@@@std@@@std@@QAEAAV01@H@Z PROC ; std::_Vector_iterator<std::_Vector_val<int,std::allocator<int> > >::operator+=, COMDAT
; _this$ = ecx

; 357  : 		{	// increment by integer

  00000	55		 push	 ebp
  00001	8b ec		 mov	 ebp, esp
  00003	8b c1		 mov	 eax, ecx

; 358  : 		*(_Mybase *)this += _Off;

  00005	8b 4d 08	 mov	 ecx, DWORD PTR __Off$[ebp]
  00008	c1 e1 02	 shl	 ecx, 2
  0000b	01 08		 add	 DWORD PTR [eax], ecx

; 359  : 		return (*this);
; 360  : 		}

  0000d	5d		 pop	 ebp
  0000e	c2 04 00	 ret	 4
??Y?$_Vector_iterator@V?$_Vector_val@HV?$allocator@H@std@@@std@@@std@@QAEAAV01@H@Z ENDP ; std::_Vector_iterator<std::_Vector_val<int,std::allocator<int> > >::operator+=
_TEXT	ENDS
PUBLIC	?allocate@?$allocator@H@std@@QAEPAHI@Z		; std::allocator<int>::allocate
; Function compile flags: /Ogsp
; File c:\program files (x86)\microsoft visual studio 10.0\vc\include\xmemory
;	COMDAT ?allocate@?$allocator@H@std@@QAEPAHI@Z
_TEXT	SEGMENT
__Count$ = 8						; size = 4
?allocate@?$allocator@H@std@@QAEPAHI@Z PROC		; std::allocator<int>::allocate, COMDAT
; _this$ = ecx

; 186  : 		{	// allocate array of _Count elements

  00000	55		 push	 ebp
  00001	8b ec		 mov	 ebp, esp

; 187  : 		return (_Allocate(_Count, (pointer)0));

  00003	6a 00		 push	 0
  00005	ff 75 08	 push	 DWORD PTR __Count$[ebp]
  00008	e8 00 00 00 00	 call	 ??$_Allocate@H@std@@YAPAHIPAH@Z ; std::_Allocate<int>
  0000d	59		 pop	 ecx
  0000e	59		 pop	 ecx

; 188  : 		}

  0000f	5d		 pop	 ebp
  00010	c2 04 00	 ret	 4
?allocate@?$allocator@H@std@@QAEPAHI@Z ENDP		; std::allocator<int>::allocate
_TEXT	ENDS
PUBLIC	??8?$_Vector_const_iterator@V?$_Vector_val@HV?$allocator@H@std@@@std@@@std@@QBE_NABV01@@Z ; std::_Vector_const_iterator<std::_Vector_val<int,std::allocator<int> > >::operator==
; Function compile flags: /Ogsp
; File c:\program files (x86)\microsoft visual studio 10.0\vc\include\vector
;	COMDAT ??8?$_Vector_const_iterator@V?$_Vector_val@HV?$allocator@H@std@@@std@@@std@@QBE_NABV01@@Z
_TEXT	SEGMENT
__Right$ = 8						; size = 4
??8?$_Vector_const_iterator@V?$_Vector_val@HV?$allocator@H@std@@@std@@@std@@QBE_NABV01@@Z PROC ; std::_Vector_const_iterator<std::_Vector_val<int,std::allocator<int> > >::operator==, COMDAT
; _this$ = ecx

; 201  : 		{	// test for iterator equality

  00000	55		 push	 ebp
  00001	8b ec		 mov	 ebp, esp

; 202  : 		_Compat(_Right);
; 203  : 		return (this->_Ptr == _Right._Ptr);

  00003	8b 01		 mov	 eax, DWORD PTR [ecx]
  00005	8b 4d 08	 mov	 ecx, DWORD PTR __Right$[ebp]
  00008	2b 01		 sub	 eax, DWORD PTR [ecx]
  0000a	f7 d8		 neg	 eax
  0000c	1b c0		 sbb	 eax, eax
  0000e	40		 inc	 eax

; 204  : 		}

  0000f	5d		 pop	 ebp
  00010	c2 04 00	 ret	 4
??8?$_Vector_const_iterator@V?$_Vector_val@HV?$allocator@H@std@@@std@@@std@@QBE_NABV01@@Z ENDP ; std::_Vector_const_iterator<std::_Vector_val<int,std::allocator<int> > >::operator==
_TEXT	ENDS
PUBLIC	??$swap@H@std@@YAXAAH0@Z			; std::swap<int>
; Function compile flags: /Ogsp
; File c:\program files (x86)\microsoft visual studio 10.0\vc\include\utility
;	COMDAT ??$swap@H@std@@YAXAAH0@Z
_TEXT	SEGMENT
__Left$ = 8						; size = 4
__Right$ = 12						; size = 4
??$swap@H@std@@YAXAAH0@Z PROC				; std::swap<int>, COMDAT

; 101  : 	{	// exchange values stored at _Left and _Right

  00000	55		 push	 ebp
  00001	8b ec		 mov	 ebp, esp

; 102  : 	_Ty _Tmp = _Move(_Left);
; 103  : 	_Left = _Move(_Right);

  00003	8b 55 0c	 mov	 edx, DWORD PTR __Right$[ebp]
  00006	8b 45 08	 mov	 eax, DWORD PTR __Left$[ebp]
  00009	8b 08		 mov	 ecx, DWORD PTR [eax]
  0000b	56		 push	 esi
  0000c	8b 32		 mov	 esi, DWORD PTR [edx]
  0000e	89 30		 mov	 DWORD PTR [eax], esi

; 104  : 	_Right = _Move(_Tmp);

  00010	89 0a		 mov	 DWORD PTR [edx], ecx
  00012	5e		 pop	 esi

; 105  : 	}

  00013	5d		 pop	 ebp
  00014	c3		 ret	 0
??$swap@H@std@@YAXAAH0@Z ENDP				; std::swap<int>
_TEXT	ENDS
PUBLIC	??$_Move@PAHPAH@std@@YAPAHPAH00@Z		; std::_Move<int *,int *>
; Function compile flags: /Ogsp
; File c:\program files (x86)\microsoft visual studio 10.0\vc\include\xutility
;	COMDAT ??$_Move@PAHPAH@std@@YAPAHPAH00@Z
_TEXT	SEGMENT
__Cat$537582 = -4					; size = 1
__First$ = 8						; size = 4
__Last$ = 12						; size = 4
__Dest$ = 16						; size = 4
??$_Move@PAHPAH@std@@YAPAHPAH00@Z PROC			; std::_Move<int *,int *>, COMDAT

; 2533 : 	{	// move [_First, _Last) to [_Dest, ...), unchecked

  00000	55		 push	 ebp
  00001	8b ec		 mov	 ebp, esp
  00003	51		 push	 ecx

; 2534 : 	return (_Move(_First, _Last,
; 2535 : 		_Dest, _Ptr_cat(_First, _Dest)));

  00004	ff 75 fc	 push	 DWORD PTR __Cat$537582[ebp]
  00007	ff 75 10	 push	 DWORD PTR __Dest$[ebp]
  0000a	ff 75 0c	 push	 DWORD PTR __Last$[ebp]
  0000d	ff 75 08	 push	 DWORD PTR __First$[ebp]
  00010	e8 00 00 00 00	 call	 ??$_Move@PAHPAH@std@@YAPAHPAH00U_Scalar_ptr_iterator_tag@0@@Z ; std::_Move<int *,int *>
  00015	83 c4 10	 add	 esp, 16			; 00000010H

; 2536 : 	}

  00018	c9		 leave
  00019	c3		 ret	 0
??$_Move@PAHPAH@std@@YAPAHPAH00@Z ENDP			; std::_Move<int *,int *>
_TEXT	ENDS
PUBLIC	??$_Destroy_range@V?$allocator@H@std@@@std@@YAXPAH0AAV?$allocator@H@0@@Z ; std::_Destroy_range<std::allocator<int> >
; Function compile flags: /Ogsp
; File c:\program files (x86)\microsoft visual studio 10.0\vc\include\xmemory
;	COMDAT ??$_Destroy_range@V?$allocator@H@std@@@std@@YAXPAH0AAV?$allocator@H@0@@Z
_TEXT	SEGMENT
__First$ = 8						; size = 4
__Last$ = 12						; size = 4
__Al$ = 16						; size = 4
??$_Destroy_range@V?$allocator@H@std@@@std@@YAXPAH0AAV?$allocator@H@0@@Z PROC ; std::_Destroy_range<std::allocator<int> >, COMDAT

; 88   : 	_Destroy_range(_First, _Last, _Al, _Ptr_cat(_First, _Last));
; 89   : 	}

  00000	c3		 ret	 0
??$_Destroy_range@V?$allocator@H@std@@@std@@YAXPAH0AAV?$allocator@H@0@@Z ENDP ; std::_Destroy_range<std::allocator<int> >
_TEXT	ENDS
PUBLIC	??$_Unchecked@V?$_Vector_val@HV?$allocator@H@std@@@std@@@std@@YAPAHV?$_Vector_iterator@V?$_Vector_val@HV?$allocator@H@std@@@std@@@0@@Z ; std::_Unchecked<std::_Vector_val<int,std::allocator<int> > >
; Function compile flags: /Ogsp
; File c:\program files (x86)\microsoft visual studio 10.0\vc\include\vector
;	COMDAT ??$_Unchecked@V?$_Vector_val@HV?$allocator@H@std@@@std@@@std@@YAPAHV?$_Vector_iterator@V?$_Vector_val@HV?$allocator@H@std@@@std@@@0@@Z
_TEXT	SEGMENT
__Iter$ = 8						; size = 4
??$_Unchecked@V?$_Vector_val@HV?$allocator@H@std@@@std@@@std@@YAPAHV?$_Vector_iterator@V?$_Vector_val@HV?$allocator@H@std@@@std@@@0@@Z PROC ; std::_Unchecked<std::_Vector_val<int,std::allocator<int> > >, COMDAT

; 393  : 	{	// convert to unchecked

  00000	55		 push	 ebp
  00001	8b ec		 mov	 ebp, esp

; 394  : 	return (_Iter._Unchecked());

  00003	8b 45 08	 mov	 eax, DWORD PTR __Iter$[ebp]

; 395  : 	}

  00006	5d		 pop	 ebp
  00007	c3		 ret	 0
??$_Unchecked@V?$_Vector_val@HV?$allocator@H@std@@@std@@@std@@YAPAHV?$_Vector_iterator@V?$_Vector_val@HV?$allocator@H@std@@@std@@@0@@Z ENDP ; std::_Unchecked<std::_Vector_val<int,std::allocator<int> > >
_TEXT	ENDS
PUBLIC	??$_Uninitialized_move@PAHPAHV?$allocator@H@std@@@std@@YAPAHPAH00AAV?$allocator@H@0@@Z ; std::_Uninitialized_move<int *,int *,std::allocator<int> >
; Function compile flags: /Ogsp
; File c:\program files (x86)\microsoft visual studio 10.0\vc\include\memory
;	COMDAT ??$_Uninitialized_move@PAHPAHV?$allocator@H@std@@@std@@YAPAHPAH00AAV?$allocator@H@0@@Z
_TEXT	SEGMENT
__First$ = 8						; size = 4
__Last$ = 12						; size = 4
__Dest$ = 16						; size = 4
__Al$ = 20						; size = 4
??$_Uninitialized_move@PAHPAHV?$allocator@H@std@@@std@@YAPAHPAH00AAV?$allocator@H@0@@Z PROC ; std::_Uninitialized_move<int *,int *,std::allocator<int> >, COMDAT

; 469  : 	{	// move [_First, _Last) to raw _Dest, using _Al

  00000	55		 push	 ebp
  00001	8b ec		 mov	 ebp, esp
  00003	56		 push	 esi

; 470  : 	return (_Uninit_move(_First, _Last, _Dest, _Al,
; 471  : 		_Val_type(_First), _Ptr_cat(_First, _Dest)));

  00004	8b 75 0c	 mov	 esi, DWORD PTR __Last$[ebp]
  00007	2b 75 08	 sub	 esi, DWORD PTR __First$[ebp]
  0000a	c1 fe 02	 sar	 esi, 2
  0000d	c1 e6 02	 shl	 esi, 2
  00010	56		 push	 esi
  00011	ff 75 08	 push	 DWORD PTR __First$[ebp]
  00014	ff 75 10	 push	 DWORD PTR __Dest$[ebp]
  00017	ff 15 00 00 00
	00		 call	 DWORD PTR __imp__memmove
  0001d	83 c4 0c	 add	 esp, 12			; 0000000cH
  00020	03 c6		 add	 eax, esi
  00022	5e		 pop	 esi

; 472  : 	}

  00023	5d		 pop	 ebp
  00024	c3		 ret	 0
??$_Uninitialized_move@PAHPAHV?$allocator@H@std@@@std@@YAPAHPAH00AAV?$allocator@H@0@@Z ENDP ; std::_Uninitialized_move<int *,int *,std::allocator<int> >
_TEXT	ENDS
PUBLIC	?GetExperienceMode@ioBaseChar@@QBE?BKXZ		; ioBaseChar::GetExperienceMode
; Function compile flags: /Ogsp
; File d:\lost saga for developer\youtube\tutorial\source\src\lsclient\iobasechar.h
;	COMDAT ?GetExperienceMode@ioBaseChar@@QBE?BKXZ
_TEXT	SEGMENT
_value$537619 = -4					; size = 4
?GetExperienceMode@ioBaseChar@@QBE?BKXZ PROC		; ioBaseChar::GetExperienceMode, COMDAT
; _this$ = ecx

; 3193 : 	inline const DWORD GetExperienceMode() const { return m_ExperienceMode; }

  00000	55		 push	 ebp
  00001	8b ec		 mov	 ebp, esp
  00003	51		 push	 ecx
  00004	8d 45 fc	 lea	 eax, DWORD PTR _value$537619[ebp]
  00007	50		 push	 eax
  00008	81 c1 94 1d 00
	00		 add	 ecx, 7572		; 00001d94H
  0000e	e8 00 00 00 00	 call	 ?DecryptValueToPool@?$CEncrypt@K@@QAEXPAK@Z ; CEncrypt<unsigned long>::DecryptValueToPool
  00013	8b 45 fc	 mov	 eax, DWORD PTR _value$537619[ebp]
  00016	c9		 leave
  00017	c3		 ret	 0
?GetExperienceMode@ioBaseChar@@QBE?BKXZ ENDP		; ioBaseChar::GetExperienceMode
_TEXT	ENDS
PUBLIC	_szType$GSCopy$
PUBLIC	_pImage$GSCopy$
PUBLIC	_this$GSCopy$
PUBLIC	__$ArrayPad$
; Function compile flags: /Ogsp
; File d:\lost saga for developer\youtube\tutorial\source\src\lsclient\gui\expcroomwnd.cpp
;	COMDAT ?AddRenderImage@ExPCRoomSoldierBonusBtn@@MAEXABVioHashString@@PAVioUIRenderImage@@@Z
_TEXT	SEGMENT
_szType$GSCopy$ = -32					; size = 4
_pImage$GSCopy$ = -28					; size = 4
_this$GSCopy$ = -24					; size = 4
__t$537784 = -20					; size = 8
__t$537659 = -20					; size = 9
__$ArrayPad$ = -4					; size = 4
_szType$ = 8						; size = 4
_pImage$ = 12						; size = 4
?AddRenderImage@ExPCRoomSoldierBonusBtn@@MAEXABVioHashString@@PAVioUIRenderImage@@@Z PROC ; ExPCRoomSoldierBonusBtn::AddRenderImage, COMDAT
; _this$ = ecx

; 116  : {

  00000	55		 push	 ebp
  00001	8b ec		 mov	 ebp, esp
  00003	83 ec 20	 sub	 esp, 32			; 00000020H
  00006	a1 00 00 00 00	 mov	 eax, DWORD PTR ___security_cookie
  0000b	33 c5		 xor	 eax, ebp
  0000d	89 45 fc	 mov	 DWORD PTR __$ArrayPad$[ebp], eax
  00010	8b 45 0c	 mov	 eax, DWORD PTR _pImage$[ebp]
  00013	8b 55 08	 mov	 edx, DWORD PTR _szType$[ebp]
  00016	56		 push	 esi
  00017	57		 push	 edi

; 117  : 	if( szType == "IconBack" )

  00018	6a 02		 push	 2
  0001a	89 4d e8	 mov	 DWORD PTR _this$GSCopy$[ebp], ecx

; 123  : 	{
; 124  : 		SAFEDELETE( m_pNumBack );

  0001d	89 45 e4	 mov	 DWORD PTR _pImage$GSCopy$[ebp], eax
  00020	89 55 e0	 mov	 DWORD PTR _szType$GSCopy$[ebp], edx
  00023	c7 45 ec a4 8f
	84 84		 mov	 DWORD PTR __t$537659[ebp], -2071687260 ; 84848fa4H
  0002a	c7 45 f0 af 8d
	88 81		 mov	 DWORD PTR __t$537659[ebp+4], -2121757265 ; 81888dafH
  00031	8d 45 ec	 lea	 eax, DWORD PTR __t$537659[ebp]
  00034	c6 45 f4 00	 mov	 BYTE PTR __t$537659[ebp+8], 0
  00038	59		 pop	 ecx
  00039	bf ed ec eb ea	 mov	 edi, -353637139		; eaebecedH
$LL116@AddRenderI@2:

; 117  : 	if( szType == "IconBack" )

  0003e	31 38		 xor	 DWORD PTR [eax], edi
  00040	83 c0 04	 add	 eax, 4
  00043	49		 dec	 ecx
  00044	75 f8		 jne	 SHORT $LL116@AddRenderI@2
  00046	8b ca		 mov	 ecx, edx
  00048	8d 75 ec	 lea	 esi, DWORD PTR __t$537659[ebp]
  0004b	ff 15 00 00 00
	00		 call	 DWORD PTR __imp_?c_str@ioHashString@@QBEPBDXZ
$LL234@AddRenderI@2:
  00051	8a 08		 mov	 cl, BYTE PTR [eax]
  00053	3a 0e		 cmp	 cl, BYTE PTR [esi]
  00055	75 1a		 jne	 SHORT $LN235@AddRenderI@2
  00057	84 c9		 test	 cl, cl
  00059	74 12		 je	 SHORT $LN236@AddRenderI@2
  0005b	8a 48 01	 mov	 cl, BYTE PTR [eax+1]
  0005e	3a 4e 01	 cmp	 cl, BYTE PTR [esi+1]
  00061	75 0e		 jne	 SHORT $LN235@AddRenderI@2
  00063	83 c0 02	 add	 eax, 2
  00066	83 c6 02	 add	 esi, 2
  00069	84 c9		 test	 cl, cl
  0006b	75 e4		 jne	 SHORT $LL234@AddRenderI@2
$LN236@AddRenderI@2:
  0006d	33 c0		 xor	 eax, eax
  0006f	eb 05		 jmp	 SHORT $LN237@AddRenderI@2
$LN235@AddRenderI@2:
  00071	1b c0		 sbb	 eax, eax
  00073	83 d8 ff	 sbb	 eax, -1
$LN237@AddRenderI@2:
  00076	85 c0		 test	 eax, eax
  00078	75 29		 jne	 SHORT $LN233@AddRenderI@2

; 118  : 	{
; 119  : 		SAFEDELETE( m_pIconBack );

  0007a	8b 75 e8	 mov	 esi, DWORD PTR _this$GSCopy$[ebp]
  0007d	8b 8e fc 01 00
	00		 mov	 ecx, DWORD PTR [esi+508]
  00083	85 c9		 test	 ecx, ecx
  00085	74 0e		 je	 SHORT $LN5@AddRenderI@2
  00087	8b 01		 mov	 eax, DWORD PTR [ecx]
  00089	6a 01		 push	 1
  0008b	ff 50 40	 call	 DWORD PTR [eax+64]
  0008e	83 a6 fc 01 00
	00 00		 and	 DWORD PTR [esi+508], 0
$LN5@AddRenderI@2:

; 120  : 		m_pIconBack = pImage;

  00095	8b 45 e4	 mov	 eax, DWORD PTR _pImage$GSCopy$[ebp]
  00098	89 86 fc 01 00
	00		 mov	 DWORD PTR [esi+508], eax
  0009e	e9 9b 00 00 00	 jmp	 $LN1@AddRenderI@2
$LN233@AddRenderI@2:

; 121  : 	}
; 122  : 	else if( szType == "NumBack" )

  000a3	6a 04		 push	 4
  000a5	c7 45 ec a3 99
	86 a8		 mov	 DWORD PTR __t$537784[ebp], -1467573853 ; a88699a3H
  000ac	31 7d ec	 xor	 DWORD PTR __t$537784[ebp], edi
  000af	c7 45 f0 8c 8f
	80 00		 mov	 DWORD PTR __t$537784[ebp+4], 8425356 ; 00808f8cH
  000b6	58		 pop	 eax
$LL219@AddRenderI@2:
  000b7	8b c8		 mov	 ecx, eax
  000b9	81 e1 03 00 00
	80		 and	 ecx, -2147483645	; 80000003H
  000bf	79 05		 jns	 SHORT $LN242@AddRenderI@2
  000c1	49		 dec	 ecx
  000c2	83 c9 fc	 or	 ecx, -4			; fffffffcH
  000c5	41		 inc	 ecx
$LN242@AddRenderI@2:
  000c6	b2 ed		 mov	 dl, -19			; ffffffedH
  000c8	2a d1		 sub	 dl, cl
  000ca	30 54 05 ec	 xor	 BYTE PTR __t$537784[ebp+eax], dl
  000ce	40		 inc	 eax
  000cf	83 f8 07	 cmp	 eax, 7
  000d2	7c e3		 jl	 SHORT $LL219@AddRenderI@2
  000d4	8b 4d e0	 mov	 ecx, DWORD PTR _szType$GSCopy$[ebp]
  000d7	8d 75 ec	 lea	 esi, DWORD PTR __t$537784[ebp]
  000da	ff 15 00 00 00
	00		 call	 DWORD PTR __imp_?c_str@ioHashString@@QBEPBDXZ
$LL238@AddRenderI@2:
  000e0	8a 08		 mov	 cl, BYTE PTR [eax]
  000e2	3a 0e		 cmp	 cl, BYTE PTR [esi]
  000e4	75 1a		 jne	 SHORT $LN239@AddRenderI@2
  000e6	84 c9		 test	 cl, cl
  000e8	74 12		 je	 SHORT $LN240@AddRenderI@2
  000ea	8a 48 01	 mov	 cl, BYTE PTR [eax+1]
  000ed	3a 4e 01	 cmp	 cl, BYTE PTR [esi+1]
  000f0	75 0e		 jne	 SHORT $LN239@AddRenderI@2
  000f2	83 c0 02	 add	 eax, 2
  000f5	83 c6 02	 add	 esi, 2
  000f8	84 c9		 test	 cl, cl
  000fa	75 e4		 jne	 SHORT $LL238@AddRenderI@2
$LN240@AddRenderI@2:
  000fc	33 c0		 xor	 eax, eax
  000fe	eb 05		 jmp	 SHORT $LN241@AddRenderI@2
$LN239@AddRenderI@2:
  00100	1b c0		 sbb	 eax, eax
  00102	83 d8 ff	 sbb	 eax, -1
$LN241@AddRenderI@2:
  00105	85 c0		 test	 eax, eax
  00107	75 26		 jne	 SHORT $LN3@AddRenderI@2

; 123  : 	{
; 124  : 		SAFEDELETE( m_pNumBack );

  00109	8b 75 e8	 mov	 esi, DWORD PTR _this$GSCopy$[ebp]
  0010c	8b 8e 04 02 00
	00		 mov	 ecx, DWORD PTR [esi+516]
  00112	85 c9		 test	 ecx, ecx
  00114	74 0e		 je	 SHORT $LN2@AddRenderI@2
  00116	8b 01		 mov	 eax, DWORD PTR [ecx]
  00118	6a 01		 push	 1
  0011a	ff 50 40	 call	 DWORD PTR [eax+64]
  0011d	83 a6 04 02 00
	00 00		 and	 DWORD PTR [esi+516], 0
$LN2@AddRenderI@2:

; 125  : 		m_pNumBack = pImage;

  00124	8b 45 e4	 mov	 eax, DWORD PTR _pImage$GSCopy$[ebp]
  00127	89 86 04 02 00
	00		 mov	 DWORD PTR [esi+516], eax

; 126  : 	}
; 127  : 	else

  0012d	eb 0f		 jmp	 SHORT $LN1@AddRenderI@2
$LN3@AddRenderI@2:

; 128  : 	{
; 129  : 		ioButton::AddRenderImage( szType, pImage );

  0012f	ff 75 e4	 push	 DWORD PTR _pImage$GSCopy$[ebp]
  00132	8b 4d e8	 mov	 ecx, DWORD PTR _this$GSCopy$[ebp]
  00135	ff 75 e0	 push	 DWORD PTR _szType$GSCopy$[ebp]
  00138	ff 15 00 00 00
	00		 call	 DWORD PTR __imp_?AddRenderImage@ioButton@@UAEXABVioHashString@@PAVioUIRenderImage@@@Z
$LN1@AddRenderI@2:

; 130  : 	}
; 131  : }

  0013e	8b 4d fc	 mov	 ecx, DWORD PTR __$ArrayPad$[ebp]
  00141	5f		 pop	 edi
  00142	33 cd		 xor	 ecx, ebp
  00144	5e		 pop	 esi
  00145	e8 00 00 00 00	 call	 @__security_check_cookie@4
  0014a	c9		 leave
  0014b	c2 08 00	 ret	 8
?AddRenderImage@ExPCRoomSoldierBonusBtn@@MAEXABVioHashString@@PAVioUIRenderImage@@@Z ENDP ; ExPCRoomSoldierBonusBtn::AddRenderImage
_TEXT	ENDS
PUBLIC	_this$GSCopy$
PUBLIC	__$ArrayPad$
EXTRN	__imp_?AddRenderFrame@ioButton@@UAEXABVioHashString@@PAVioUIRenderFrame@@@Z:PROC
; Function compile flags: /Ogsp
;	COMDAT ?AddRenderFrame@ExPCRoomSoldierBonusBtn@@MAEXABVioHashString@@PAVioUIRenderFrame@@@Z
_TEXT	SEGMENT
_this$GSCopy$ = -20					; size = 4
__t$537923 = -16					; size = 8
__$ArrayPad$ = -4					; size = 4
_szType$ = 8						; size = 4
_pFrame$ = 12						; size = 4
?AddRenderFrame@ExPCRoomSoldierBonusBtn@@MAEXABVioHashString@@PAVioUIRenderFrame@@@Z PROC ; ExPCRoomSoldierBonusBtn::AddRenderFrame, COMDAT
; _this$ = ecx

; 134  : {

  00000	55		 push	 ebp
  00001	8b ec		 mov	 ebp, esp
  00003	83 ec 14	 sub	 esp, 20			; 00000014H
  00006	a1 00 00 00 00	 mov	 eax, DWORD PTR ___security_cookie
  0000b	33 c5		 xor	 eax, ebp
  0000d	89 45 fc	 mov	 DWORD PTR __$ArrayPad$[ebp], eax
  00010	53		 push	 ebx
  00011	8b 5d 0c	 mov	 ebx, DWORD PTR _pFrame$[ebp]
  00014	56		 push	 esi
  00015	57		 push	 edi
  00016	8b 7d 08	 mov	 edi, DWORD PTR _szType$[ebp]

; 135  : 	if( szType == "Checked" )

  00019	6a 04		 push	 4
  0001b	c7 45 f0 ae 84
	8e 89		 mov	 DWORD PTR __t$537923[ebp], -1987148626 ; 898e84aeH
  00022	81 75 f0 ed ec
	eb ea		 xor	 DWORD PTR __t$537923[ebp], -353637139 ; eaebecedH
  00029	89 4d ec	 mov	 DWORD PTR _this$GSCopy$[ebp], ecx
  0002c	c7 45 f4 86 89
	8f 00		 mov	 DWORD PTR __t$537923[ebp+4], 9406854 ; 008f8986H
  00033	58		 pop	 eax
$LL108@AddRenderF:
  00034	8b c8		 mov	 ecx, eax
  00036	81 e1 03 00 00
	80		 and	 ecx, -2147483645	; 80000003H
  0003c	79 05		 jns	 SHORT $LN122@AddRenderF
  0003e	49		 dec	 ecx
  0003f	83 c9 fc	 or	 ecx, -4			; fffffffcH
  00042	41		 inc	 ecx
$LN122@AddRenderF:
  00043	b2 ed		 mov	 dl, -19			; ffffffedH
  00045	2a d1		 sub	 dl, cl
  00047	30 54 05 f0	 xor	 BYTE PTR __t$537923[ebp+eax], dl
  0004b	40		 inc	 eax
  0004c	83 f8 07	 cmp	 eax, 7
  0004f	7c e3		 jl	 SHORT $LL108@AddRenderF
  00051	8b cf		 mov	 ecx, edi
  00053	8d 75 f0	 lea	 esi, DWORD PTR __t$537923[ebp]
  00056	ff 15 00 00 00
	00		 call	 DWORD PTR __imp_?c_str@ioHashString@@QBEPBDXZ
$LL118@AddRenderF:
  0005c	8a 08		 mov	 cl, BYTE PTR [eax]
  0005e	3a 0e		 cmp	 cl, BYTE PTR [esi]
  00060	75 1a		 jne	 SHORT $LN119@AddRenderF
  00062	84 c9		 test	 cl, cl
  00064	74 12		 je	 SHORT $LN120@AddRenderF
  00066	8a 48 01	 mov	 cl, BYTE PTR [eax+1]
  00069	3a 4e 01	 cmp	 cl, BYTE PTR [esi+1]
  0006c	75 0e		 jne	 SHORT $LN119@AddRenderF
  0006e	83 c0 02	 add	 eax, 2
  00071	83 c6 02	 add	 esi, 2
  00074	84 c9		 test	 cl, cl
  00076	75 e4		 jne	 SHORT $LL118@AddRenderF
$LN120@AddRenderF:
  00078	33 c0		 xor	 eax, eax
  0007a	eb 05		 jmp	 SHORT $LN121@AddRenderF
$LN119@AddRenderF:
  0007c	1b c0		 sbb	 eax, eax
  0007e	83 d8 ff	 sbb	 eax, -1
$LN121@AddRenderF:
  00081	85 c0		 test	 eax, eax
  00083	75 23		 jne	 SHORT $LN3@AddRenderF

; 136  : 	{		
; 137  : 		SAFEDELETE( m_pCheckedFrm );

  00085	8b 75 ec	 mov	 esi, DWORD PTR _this$GSCopy$[ebp]
  00088	8b 8e 08 02 00
	00		 mov	 ecx, DWORD PTR [esi+520]
  0008e	85 c9		 test	 ecx, ecx
  00090	74 0e		 je	 SHORT $LN2@AddRenderF
  00092	8b 01		 mov	 eax, DWORD PTR [ecx]
  00094	6a 01		 push	 1
  00096	ff 50 40	 call	 DWORD PTR [eax+64]
  00099	83 a6 08 02 00
	00 00		 and	 DWORD PTR [esi+520], 0
$LN2@AddRenderF:

; 138  : 		m_pCheckedFrm = pFrame;

  000a0	89 9e 08 02 00
	00		 mov	 DWORD PTR [esi+520], ebx

; 139  : 	}
; 140  : 	else

  000a6	eb 0b		 jmp	 SHORT $LN1@AddRenderF
$LN3@AddRenderF:

; 141  : 	{
; 142  : 		ioButton::AddRenderFrame( szType, pFrame );

  000a8	8b 4d ec	 mov	 ecx, DWORD PTR _this$GSCopy$[ebp]
  000ab	53		 push	 ebx
  000ac	57		 push	 edi
  000ad	ff 15 00 00 00
	00		 call	 DWORD PTR __imp_?AddRenderFrame@ioButton@@UAEXABVioHashString@@PAVioUIRenderFrame@@@Z
$LN1@AddRenderF:

; 143  : 	}
; 144  : }

  000b3	8b 4d fc	 mov	 ecx, DWORD PTR __$ArrayPad$[ebp]
  000b6	5f		 pop	 edi
  000b7	5e		 pop	 esi
  000b8	33 cd		 xor	 ecx, ebp
  000ba	5b		 pop	 ebx
  000bb	e8 00 00 00 00	 call	 @__security_check_cookie@4
  000c0	c9		 leave
  000c1	c2 08 00	 ret	 8
?AddRenderFrame@ExPCRoomSoldierBonusBtn@@MAEXABVioHashString@@PAVioUIRenderFrame@@@Z ENDP ; ExPCRoomSoldierBonusBtn::AddRenderFrame
_TEXT	ENDS
PUBLIC	_szType$GSCopy$
PUBLIC	_pFrame$GSCopy$
PUBLIC	_this$GSCopy$
PUBLIC	__$ArrayPad$
PUBLIC	?AddRenderFrame@ExPCRoomSoldierBonusWnd@@UAEXABVioHashString@@PAVioUIRenderFrame@@@Z ; ExPCRoomSoldierBonusWnd::AddRenderFrame
EXTRN	__imp_?AddRenderFrame@ioWnd@@UAEXABVioHashString@@PAVioUIRenderFrame@@@Z:PROC
; Function compile flags: /Ogsp
;	COMDAT ?AddRenderFrame@ExPCRoomSoldierBonusWnd@@UAEXABVioHashString@@PAVioUIRenderFrame@@@Z
_TEXT	SEGMENT
_szType$GSCopy$ = -36					; size = 4
_pFrame$GSCopy$ = -32					; size = 4
_this$GSCopy$ = -28					; size = 4
__t$538324 = -24					; size = 13
__t$538199 = -24					; size = 13
__t$538074 = -24					; size = 13
__$ArrayPad$ = -4					; size = 4
_szType$ = 8						; size = 4
_pFrame$ = 12						; size = 4
?AddRenderFrame@ExPCRoomSoldierBonusWnd@@UAEXABVioHashString@@PAVioUIRenderFrame@@@Z PROC ; ExPCRoomSoldierBonusWnd::AddRenderFrame, COMDAT
; _this$ = ecx

; 234  : {

  00000	55		 push	 ebp
  00001	8b ec		 mov	 ebp, esp
  00003	83 ec 24	 sub	 esp, 36			; 00000024H
  00006	a1 00 00 00 00	 mov	 eax, DWORD PTR ___security_cookie
  0000b	33 c5		 xor	 eax, ebp
  0000d	89 45 fc	 mov	 DWORD PTR __$ArrayPad$[ebp], eax
  00010	8b 45 0c	 mov	 eax, DWORD PTR _pFrame$[ebp]
  00013	8b 55 08	 mov	 edx, DWORD PTR _szType$[ebp]
  00016	53		 push	 ebx
  00017	56		 push	 esi
  00018	57		 push	 edi

; 235  : 	if( szType == "CharFrameOne" )

  00019	33 db		 xor	 ebx, ebx
  0001b	6a 03		 push	 3
  0001d	89 4d e4	 mov	 DWORD PTR _this$GSCopy$[ebp], ecx

; 244  : 	}
; 245  : 	else if( szType == "CharFrameNum" )

  00020	89 45 e0	 mov	 DWORD PTR _pFrame$GSCopy$[ebp], eax
  00023	89 55 dc	 mov	 DWORD PTR _szType$GSCopy$[ebp], edx
  00026	c7 45 e8 ae 84
	8a 98		 mov	 DWORD PTR __t$538074[ebp], -1735752530 ; 988a84aeH
  0002d	c7 45 ec ab 9e
	8a 87		 mov	 DWORD PTR __t$538074[ebp+4], -2020958549 ; 878a9eabH
  00034	c7 45 f0 88 a3
	85 8f		 mov	 DWORD PTR __t$538074[ebp+8], -1887067256 ; 8f85a388H
  0003b	8d 45 e8	 lea	 eax, DWORD PTR __t$538074[ebp]
  0003e	88 5d f4	 mov	 BYTE PTR __t$538074[ebp+12], bl
  00041	59		 pop	 ecx
  00042	bf ed ec eb ea	 mov	 edi, -353637139		; eaebecedH
$LL121@AddRenderF@2:

; 235  : 	if( szType == "CharFrameOne" )

  00047	31 38		 xor	 DWORD PTR [eax], edi
  00049	83 c0 04	 add	 eax, 4
  0004c	49		 dec	 ecx
  0004d	75 f8		 jne	 SHORT $LL121@AddRenderF@2
  0004f	8b ca		 mov	 ecx, edx
  00051	8d 75 e8	 lea	 esi, DWORD PTR __t$538074[ebp]
  00054	ff 15 00 00 00
	00		 call	 DWORD PTR __imp_?c_str@ioHashString@@QBEPBDXZ
$LL350@AddRenderF@2:
  0005a	8a 08		 mov	 cl, BYTE PTR [eax]
  0005c	3a 0e		 cmp	 cl, BYTE PTR [esi]
  0005e	75 1a		 jne	 SHORT $LN351@AddRenderF@2
  00060	3a cb		 cmp	 cl, bl
  00062	74 12		 je	 SHORT $LN352@AddRenderF@2
  00064	8a 48 01	 mov	 cl, BYTE PTR [eax+1]
  00067	3a 4e 01	 cmp	 cl, BYTE PTR [esi+1]
  0006a	75 0e		 jne	 SHORT $LN351@AddRenderF@2
  0006c	83 c0 02	 add	 eax, 2
  0006f	83 c6 02	 add	 esi, 2
  00072	3a cb		 cmp	 cl, bl
  00074	75 e4		 jne	 SHORT $LL350@AddRenderF@2
$LN352@AddRenderF@2:
  00076	33 c0		 xor	 eax, eax
  00078	eb 05		 jmp	 SHORT $LN353@AddRenderF@2
$LN351@AddRenderF@2:
  0007a	1b c0		 sbb	 eax, eax
  0007c	83 d8 ff	 sbb	 eax, -1
$LN353@AddRenderF@2:
  0007f	3b c3		 cmp	 eax, ebx
  00081	75 28		 jne	 SHORT $LN348@AddRenderF@2

; 236  : 	{
; 237  : 		SAFEDELETE( m_pCharFrameOne );

  00083	8b 75 e4	 mov	 esi, DWORD PTR _this$GSCopy$[ebp]
  00086	8b 8e 60 01 00
	00		 mov	 ecx, DWORD PTR [esi+352]
  0008c	3b cb		 cmp	 ecx, ebx
  0008e	74 0d		 je	 SHORT $LN8@AddRenderF@2
  00090	8b 01		 mov	 eax, DWORD PTR [ecx]
  00092	6a 01		 push	 1
  00094	ff 50 40	 call	 DWORD PTR [eax+64]
  00097	89 9e 60 01 00
	00		 mov	 DWORD PTR [esi+352], ebx
$LN8@AddRenderF@2:

; 238  : 		m_pCharFrameOne = pFrame;

  0009d	8b 45 e0	 mov	 eax, DWORD PTR _pFrame$GSCopy$[ebp]
  000a0	89 86 60 01 00
	00		 mov	 DWORD PTR [esi+352], eax
  000a6	e9 12 01 00 00	 jmp	 $LN1@AddRenderF@2
$LN348@AddRenderF@2:

; 239  : 	}
; 240  : 	else if( szType == "CharFrameTwo" )

  000ab	6a 03		 push	 3
  000ad	c7 45 e8 ae 84
	8a 98		 mov	 DWORD PTR __t$538199[ebp], -1735752530 ; 988a84aeH
  000b4	c7 45 ec ab 9e
	8a 87		 mov	 DWORD PTR __t$538199[ebp+4], -2020958549 ; 878a9eabH
  000bb	c7 45 f0 88 b8
	9c 85		 mov	 DWORD PTR __t$538199[ebp+8], -2053326712 ; 859cb888H
  000c2	8d 45 e8	 lea	 eax, DWORD PTR __t$538199[ebp]
  000c5	88 5d f4	 mov	 BYTE PTR __t$538199[ebp+12], bl
  000c8	59		 pop	 ecx
$LL227@AddRenderF@2:
  000c9	31 38		 xor	 DWORD PTR [eax], edi
  000cb	83 c0 04	 add	 eax, 4
  000ce	49		 dec	 ecx
  000cf	75 f8		 jne	 SHORT $LL227@AddRenderF@2
  000d1	8b 4d dc	 mov	 ecx, DWORD PTR _szType$GSCopy$[ebp]
  000d4	8d 75 e8	 lea	 esi, DWORD PTR __t$538199[ebp]
  000d7	ff 15 00 00 00
	00		 call	 DWORD PTR __imp_?c_str@ioHashString@@QBEPBDXZ
$LL354@AddRenderF@2:
  000dd	8a 08		 mov	 cl, BYTE PTR [eax]
  000df	3a 0e		 cmp	 cl, BYTE PTR [esi]
  000e1	75 1a		 jne	 SHORT $LN355@AddRenderF@2
  000e3	3a cb		 cmp	 cl, bl
  000e5	74 12		 je	 SHORT $LN356@AddRenderF@2
  000e7	8a 48 01	 mov	 cl, BYTE PTR [eax+1]
  000ea	3a 4e 01	 cmp	 cl, BYTE PTR [esi+1]
  000ed	75 0e		 jne	 SHORT $LN355@AddRenderF@2
  000ef	83 c0 02	 add	 eax, 2
  000f2	83 c6 02	 add	 esi, 2
  000f5	3a cb		 cmp	 cl, bl
  000f7	75 e4		 jne	 SHORT $LL354@AddRenderF@2
$LN356@AddRenderF@2:
  000f9	33 c0		 xor	 eax, eax
  000fb	eb 05		 jmp	 SHORT $LN357@AddRenderF@2
$LN355@AddRenderF@2:
  000fd	1b c0		 sbb	 eax, eax
  000ff	83 d8 ff	 sbb	 eax, -1
$LN357@AddRenderF@2:
  00102	3b c3		 cmp	 eax, ebx
  00104	75 28		 jne	 SHORT $LN349@AddRenderF@2

; 241  : 	{
; 242  : 		SAFEDELETE( m_pCharFrameTwo );

  00106	8b 75 e4	 mov	 esi, DWORD PTR _this$GSCopy$[ebp]
  00109	8b 8e 64 01 00
	00		 mov	 ecx, DWORD PTR [esi+356]
  0010f	3b cb		 cmp	 ecx, ebx
  00111	74 0d		 je	 SHORT $LN5@AddRenderF@2
  00113	8b 01		 mov	 eax, DWORD PTR [ecx]
  00115	6a 01		 push	 1
  00117	ff 50 40	 call	 DWORD PTR [eax+64]
  0011a	89 9e 64 01 00
	00		 mov	 DWORD PTR [esi+356], ebx
$LN5@AddRenderF@2:

; 243  : 		m_pCharFrameTwo = pFrame;

  00120	8b 45 e0	 mov	 eax, DWORD PTR _pFrame$GSCopy$[ebp]
  00123	89 86 64 01 00
	00		 mov	 DWORD PTR [esi+356], eax
  00129	e9 8f 00 00 00	 jmp	 $LN1@AddRenderF@2
$LN349@AddRenderF@2:

; 244  : 	}
; 245  : 	else if( szType == "CharFrameNum" )

  0012e	6a 03		 push	 3
  00130	c7 45 e8 ae 84
	8a 98		 mov	 DWORD PTR __t$538324[ebp], -1735752530 ; 988a84aeH
  00137	c7 45 ec ab 9e
	8a 87		 mov	 DWORD PTR __t$538324[ebp+4], -2020958549 ; 878a9eabH
  0013e	c7 45 f0 88 a2
	9e 87		 mov	 DWORD PTR __t$538324[ebp+8], -2019646840 ; 879ea288H
  00145	8d 45 e8	 lea	 eax, DWORD PTR __t$538324[ebp]
  00148	88 5d f4	 mov	 BYTE PTR __t$538324[ebp+12], bl
  0014b	59		 pop	 ecx
$LL333@AddRenderF@2:
  0014c	31 38		 xor	 DWORD PTR [eax], edi
  0014e	83 c0 04	 add	 eax, 4
  00151	49		 dec	 ecx
  00152	75 f8		 jne	 SHORT $LL333@AddRenderF@2
  00154	8b 4d dc	 mov	 ecx, DWORD PTR _szType$GSCopy$[ebp]
  00157	8d 75 e8	 lea	 esi, DWORD PTR __t$538324[ebp]
  0015a	ff 15 00 00 00
	00		 call	 DWORD PTR __imp_?c_str@ioHashString@@QBEPBDXZ
$LL358@AddRenderF@2:
  00160	8a 08		 mov	 cl, BYTE PTR [eax]
  00162	3a 0e		 cmp	 cl, BYTE PTR [esi]
  00164	75 1a		 jne	 SHORT $LN359@AddRenderF@2
  00166	3a cb		 cmp	 cl, bl
  00168	74 12		 je	 SHORT $LN360@AddRenderF@2
  0016a	8a 48 01	 mov	 cl, BYTE PTR [eax+1]
  0016d	3a 4e 01	 cmp	 cl, BYTE PTR [esi+1]
  00170	75 0e		 jne	 SHORT $LN359@AddRenderF@2
  00172	83 c0 02	 add	 eax, 2
  00175	83 c6 02	 add	 esi, 2
  00178	3a cb		 cmp	 cl, bl
  0017a	75 e4		 jne	 SHORT $LL358@AddRenderF@2
$LN360@AddRenderF@2:
  0017c	33 c0		 xor	 eax, eax
  0017e	eb 05		 jmp	 SHORT $LN361@AddRenderF@2
$LN359@AddRenderF@2:
  00180	1b c0		 sbb	 eax, eax
  00182	83 d8 ff	 sbb	 eax, -1
$LN361@AddRenderF@2:
  00185	3b c3		 cmp	 eax, ebx
  00187	75 25		 jne	 SHORT $LN3@AddRenderF@2

; 246  : 	{
; 247  : 		SAFEDELETE( m_pCharFrameNum );

  00189	8b 75 e4	 mov	 esi, DWORD PTR _this$GSCopy$[ebp]
  0018c	8b 8e 68 01 00
	00		 mov	 ecx, DWORD PTR [esi+360]
  00192	3b cb		 cmp	 ecx, ebx
  00194	74 0d		 je	 SHORT $LN2@AddRenderF@2
  00196	8b 01		 mov	 eax, DWORD PTR [ecx]
  00198	6a 01		 push	 1
  0019a	ff 50 40	 call	 DWORD PTR [eax+64]
  0019d	89 9e 68 01 00
	00		 mov	 DWORD PTR [esi+360], ebx
$LN2@AddRenderF@2:

; 248  : 		m_pCharFrameNum = pFrame;

  001a3	8b 45 e0	 mov	 eax, DWORD PTR _pFrame$GSCopy$[ebp]
  001a6	89 86 68 01 00
	00		 mov	 DWORD PTR [esi+360], eax

; 249  : 	}
; 250  : 	else

  001ac	eb 0f		 jmp	 SHORT $LN1@AddRenderF@2
$LN3@AddRenderF@2:

; 251  : 	{
; 252  : 		ioWnd::AddRenderFrame( szType, pFrame );

  001ae	ff 75 e0	 push	 DWORD PTR _pFrame$GSCopy$[ebp]
  001b1	8b 4d e4	 mov	 ecx, DWORD PTR _this$GSCopy$[ebp]
  001b4	ff 75 dc	 push	 DWORD PTR _szType$GSCopy$[ebp]
  001b7	ff 15 00 00 00
	00		 call	 DWORD PTR __imp_?AddRenderFrame@ioWnd@@UAEXABVioHashString@@PAVioUIRenderFrame@@@Z
$LN1@AddRenderF@2:

; 253  : 	}
; 254  : }

  001bd	8b 4d fc	 mov	 ecx, DWORD PTR __$ArrayPad$[ebp]
  001c0	5f		 pop	 edi
  001c1	5e		 pop	 esi
  001c2	33 cd		 xor	 ecx, ebp
  001c4	5b		 pop	 ebx
  001c5	e8 00 00 00 00	 call	 @__security_check_cookie@4
  001ca	c9		 leave
  001cb	c2 08 00	 ret	 8
?AddRenderFrame@ExPCRoomSoldierBonusWnd@@UAEXABVioHashString@@PAVioUIRenderFrame@@@Z ENDP ; ExPCRoomSoldierBonusWnd::AddRenderFrame
_TEXT	ENDS
PUBLIC	_szType$GSCopy$
PUBLIC	__$ArrayPad$
PUBLIC	?AddRenderImage@ExPCRoomSoldierBonusWnd@@UAEXABVioHashString@@PAVioUIRenderImage@@@Z ; ExPCRoomSoldierBonusWnd::AddRenderImage
EXTRN	__imp_?AddRenderImage@ioWnd@@UAEXABVioHashString@@PAVioUIRenderImage@@@Z:PROC
EXTRN	__imp_?SetVertFormatting@ioUIRenderImage@@QAEXW4VertFormatting@1@@Z:PROC
EXTRN	__imp_?SetHorzFormatting@ioUIRenderImage@@QAEXW4HorzFormatting@1@@Z:PROC
; Function compile flags: /Ogsp
;	COMDAT ?AddRenderImage@ExPCRoomSoldierBonusWnd@@UAEXABVioHashString@@PAVioUIRenderImage@@@Z
_TEXT	SEGMENT
_szType$GSCopy$ = -28					; size = 4
__t$538484 = -24					; size = 16
__$ArrayPad$ = -4					; size = 4
_szType$ = 8						; size = 4
_pImage$ = 12						; size = 4
?AddRenderImage@ExPCRoomSoldierBonusWnd@@UAEXABVioHashString@@PAVioUIRenderImage@@@Z PROC ; ExPCRoomSoldierBonusWnd::AddRenderImage, COMDAT
; _this$ = ecx

; 257  : {

  00000	55		 push	 ebp
  00001	8b ec		 mov	 ebp, esp
  00003	83 ec 1c	 sub	 esp, 28			; 0000001cH
  00006	a1 00 00 00 00	 mov	 eax, DWORD PTR ___security_cookie
  0000b	33 c5		 xor	 eax, ebp
  0000d	89 45 fc	 mov	 DWORD PTR __$ArrayPad$[ebp], eax
  00010	56		 push	 esi
  00011	57		 push	 edi
  00012	8b 7d 0c	 mov	 edi, DWORD PTR _pImage$[ebp]
  00015	8b f1		 mov	 esi, ecx
  00017	8b 4d 08	 mov	 ecx, DWORD PTR _szType$[ebp]

; 258  : 	if( szType == "CharBottomFrame" )

  0001a	6a 03		 push	 3
  0001c	89 4d e4	 mov	 DWORD PTR _szType$GSCopy$[ebp], ecx
  0001f	c7 45 e8 ae 84
	8a 98		 mov	 DWORD PTR __t$538484[ebp], -1735752530 ; 988a84aeH
  00026	c7 45 ec af 83
	9f 9e		 mov	 DWORD PTR __t$538484[ebp+4], -1633713233 ; 9e9f83afH
  0002d	c7 45 f0 82 81
	ad 98		 mov	 DWORD PTR __t$538484[ebp+8], -1733459582 ; 98ad8182H
  00034	8d 45 e8	 lea	 eax, DWORD PTR __t$538484[ebp]
  00037	c7 45 f4 8c 81
	8e 00		 mov	 DWORD PTR __t$538484[ebp+12], 9339276 ; 008e818cH
  0003e	5a		 pop	 edx
$LL112@AddRenderI@3:
  0003f	81 30 ed ec eb
	ea		 xor	 DWORD PTR [eax], -353637139 ; eaebecedH
  00045	83 c0 04	 add	 eax, 4
  00048	4a		 dec	 edx
  00049	75 f4		 jne	 SHORT $LL112@AddRenderI@3
  0004b	6a 0c		 push	 12			; 0000000cH
  0004d	58		 pop	 eax
  0004e	53		 push	 ebx
$LL109@AddRenderI@3:
  0004f	8b d0		 mov	 edx, eax
  00051	81 e2 03 00 00
	80		 and	 edx, -2147483645	; 80000003H
  00057	79 05		 jns	 SHORT $LN123@AddRenderI@3
  00059	4a		 dec	 edx
  0005a	83 ca fc	 or	 edx, -4			; fffffffcH
  0005d	42		 inc	 edx
$LN123@AddRenderI@3:
  0005e	b3 ed		 mov	 bl, -19			; ffffffedH
  00060	2a da		 sub	 bl, dl
  00062	30 5c 05 e8	 xor	 BYTE PTR __t$538484[ebp+eax], bl
  00066	40		 inc	 eax
  00067	83 f8 0f	 cmp	 eax, 15			; 0000000fH
  0006a	7c e3		 jl	 SHORT $LL109@AddRenderI@3
  0006c	8d 5d e8	 lea	 ebx, DWORD PTR __t$538484[ebp]
  0006f	ff 15 00 00 00
	00		 call	 DWORD PTR __imp_?c_str@ioHashString@@QBEPBDXZ
$LL119@AddRenderI@3:
  00075	8a 08		 mov	 cl, BYTE PTR [eax]
  00077	3a 0b		 cmp	 cl, BYTE PTR [ebx]
  00079	75 1a		 jne	 SHORT $LN120@AddRenderI@3
  0007b	84 c9		 test	 cl, cl
  0007d	74 12		 je	 SHORT $LN121@AddRenderI@3
  0007f	8a 48 01	 mov	 cl, BYTE PTR [eax+1]
  00082	3a 4b 01	 cmp	 cl, BYTE PTR [ebx+1]
  00085	75 0e		 jne	 SHORT $LN120@AddRenderI@3
  00087	83 c0 02	 add	 eax, 2
  0008a	83 c3 02	 add	 ebx, 2
  0008d	84 c9		 test	 cl, cl
  0008f	75 e4		 jne	 SHORT $LL119@AddRenderI@3
$LN121@AddRenderI@3:
  00091	33 c0		 xor	 eax, eax
  00093	eb 05		 jmp	 SHORT $LN122@AddRenderI@3
$LN120@AddRenderI@3:
  00095	1b c0		 sbb	 eax, eax
  00097	83 d8 ff	 sbb	 eax, -1
$LN122@AddRenderI@3:
  0009a	5b		 pop	 ebx
  0009b	85 c0		 test	 eax, eax
  0009d	75 4e		 jne	 SHORT $LN4@AddRenderI@3

; 259  : 	{
; 260  : 		SAFEDELETE( m_pCharBottomFrame );

  0009f	8b 8e 6c 01 00
	00		 mov	 ecx, DWORD PTR [esi+364]
  000a5	85 c9		 test	 ecx, ecx
  000a7	74 0e		 je	 SHORT $LN3@AddRenderI@3
  000a9	8b 01		 mov	 eax, DWORD PTR [ecx]
  000ab	6a 01		 push	 1
  000ad	ff 50 40	 call	 DWORD PTR [eax+64]
  000b0	83 a6 6c 01 00
	00 00		 and	 DWORD PTR [esi+364], 0
$LN3@AddRenderI@3:

; 261  : 		m_pCharBottomFrame = pImage;

  000b7	89 be 6c 01 00
	00		 mov	 DWORD PTR [esi+364], edi

; 262  : 
; 263  : 		if( m_pCharBottomFrame )

  000bd	85 ff		 test	 edi, edi
  000bf	74 38		 je	 SHORT $LN1@AddRenderI@3

; 264  : 		{
; 265  : 			m_pCharBottomFrame->SetSize( 141, 46 );

  000c1	8b 07		 mov	 eax, DWORD PTR [edi]
  000c3	6a 2e		 push	 46			; 0000002eH
  000c5	68 8d 00 00 00	 push	 141			; 0000008dH
  000ca	8b cf		 mov	 ecx, edi
  000cc	ff 50 10	 call	 DWORD PTR [eax+16]

; 266  : 			m_pCharBottomFrame->SetHorzFormatting( ioUIRenderImage::HF_STRETCH );

  000cf	8b 8e 6c 01 00
	00		 mov	 ecx, DWORD PTR [esi+364]
  000d5	6a 03		 push	 3
  000d7	ff 15 00 00 00
	00		 call	 DWORD PTR __imp_?SetHorzFormatting@ioUIRenderImage@@QAEXW4HorzFormatting@1@@Z

; 267  : 			m_pCharBottomFrame->SetVertFormatting( ioUIRenderImage::VF_STRETCH );

  000dd	8b 8e 6c 01 00
	00		 mov	 ecx, DWORD PTR [esi+364]
  000e3	6a 03		 push	 3
  000e5	ff 15 00 00 00
	00		 call	 DWORD PTR __imp_?SetVertFormatting@ioUIRenderImage@@QAEXW4VertFormatting@1@@Z

; 268  : 		}
; 269  : 	}
; 270  : 	else

  000eb	eb 0c		 jmp	 SHORT $LN1@AddRenderI@3
$LN4@AddRenderI@3:

; 271  : 	{
; 272  : 		ioWnd::AddRenderImage( szType, pImage );

  000ed	57		 push	 edi
  000ee	ff 75 e4	 push	 DWORD PTR _szType$GSCopy$[ebp]
  000f1	8b ce		 mov	 ecx, esi
  000f3	ff 15 00 00 00
	00		 call	 DWORD PTR __imp_?AddRenderImage@ioWnd@@UAEXABVioHashString@@PAVioUIRenderImage@@@Z
$LN1@AddRenderI@3:

; 273  : 	}
; 274  : }

  000f9	8b 4d fc	 mov	 ecx, DWORD PTR __$ArrayPad$[ebp]
  000fc	5f		 pop	 edi
  000fd	33 cd		 xor	 ecx, ebp
  000ff	5e		 pop	 esi
  00100	e8 00 00 00 00	 call	 @__security_check_cookie@4
  00105	c9		 leave
  00106	c2 08 00	 ret	 8
?AddRenderImage@ExPCRoomSoldierBonusWnd@@UAEXABVioHashString@@PAVioUIRenderImage@@@Z ENDP ; ExPCRoomSoldierBonusWnd::AddRenderImage
_TEXT	ENDS
PUBLIC	?IsCanExerciseChar@ExPCRoomSoldierBonusWnd@@IAE_N_N@Z ; ExPCRoomSoldierBonusWnd::IsCanExerciseChar
EXTRN	?IsCanChangeCharState@ioBaseChar@@QAE_N_N00@Z:PROC ; ioBaseChar::IsCanChangeCharState
EXTRN	?GetOwnerChar@ioPlayStage@@QAEPAVioBaseChar@@XZ:PROC ; ioPlayStage::GetOwnerChar
EXTRN	?GetCharCount@ioMyInfo@@QBEHXZ:PROC		; ioMyInfo::GetCharCount
; Function compile flags: /Ogsp
;	COMDAT ?IsCanExerciseChar@ExPCRoomSoldierBonusWnd@@IAE_N_N@Z
_TEXT	SEGMENT
_value$538617 = 8					; size = 4
_bSelectWait$ = 8					; size = 1
?IsCanExerciseChar@ExPCRoomSoldierBonusWnd@@IAE_N_N@Z PROC ; ExPCRoomSoldierBonusWnd::IsCanExerciseChar, COMDAT
; _this$ = ecx

; 571  : {

  00000	55		 push	 ebp
  00001	8b ec		 mov	 ebp, esp
  00003	56		 push	 esi
  00004	8b f1		 mov	 esi, ecx

; 572  : 	if( !m_pPlayStage )

  00006	83 be 9c 01 00
	00 00		 cmp	 DWORD PTR [esi+412], 0
  0000d	75 04		 jne	 SHORT $LN5@IsCanExerc
$LN12@IsCanExerc:

; 573  : 		return true;

  0000f	b0 01		 mov	 al, 1
  00011	eb 4e		 jmp	 SHORT $LN1@IsCanExerc
$LN5@IsCanExerc:

; 574  : 
; 575  : 	if( g_MyInfo.GetCharCount() == 0 )

  00013	e8 00 00 00 00	 call	 ?GetSingleton@ioMyInfo@@SAAAV1@XZ ; ioMyInfo::GetSingleton
  00018	8b c8		 mov	 ecx, eax
  0001a	e8 00 00 00 00	 call	 ?GetCharCount@ioMyInfo@@QBEHXZ ; ioMyInfo::GetCharCount
  0001f	85 c0		 test	 eax, eax

; 576  : 		return true;

  00021	74 ec		 je	 SHORT $LN12@IsCanExerc

; 577  : 
; 578  : 	ioBaseChar *pOwner = m_pPlayStage->GetOwnerChar();

  00023	8b 8e 9c 01 00
	00		 mov	 ecx, DWORD PTR [esi+412]
  00029	e8 00 00 00 00	 call	 ?GetOwnerChar@ioPlayStage@@QAEPAVioBaseChar@@XZ ; ioPlayStage::GetOwnerChar
  0002e	8b f0		 mov	 esi, eax

; 579  : 	if( !pOwner )

  00030	85 f6		 test	 esi, esi

; 580  : 		return true;

  00032	74 db		 je	 SHORT $LN12@IsCanExerc

; 581  : 
; 582  : 	if( bSelectWait && !pOwner->IsCanChangeCharState( true, false, true ) )

  00034	80 7d 08 00	 cmp	 BYTE PTR _bSelectWait$[ebp], 0
  00038	74 11		 je	 SHORT $LN2@IsCanExerc
  0003a	6a 01		 push	 1
  0003c	6a 00		 push	 0
  0003e	6a 01		 push	 1
  00040	8b ce		 mov	 ecx, esi
  00042	e8 00 00 00 00	 call	 ?IsCanChangeCharState@ioBaseChar@@QAE_N_N00@Z ; ioBaseChar::IsCanChangeCharState
  00047	84 c0		 test	 al, al
  00049	74 16		 je	 SHORT $LN1@IsCanExerc
$LN2@IsCanExerc:

; 583  : 		return false;
; 584  : 
; 585  : 	if( pOwner->GetExperienceMode() == EMS_CHANGE_EXPERIENCE )

  0004b	8d 45 08	 lea	 eax, DWORD PTR _value$538617[ebp]
  0004e	50		 push	 eax
  0004f	8d 8e 94 1d 00
	00		 lea	 ecx, DWORD PTR [esi+7572]
  00055	e8 00 00 00 00	 call	 ?DecryptValueToPool@?$CEncrypt@K@@QAEXPAK@Z ; CEncrypt<unsigned long>::DecryptValueToPool
  0005a	83 7d 08 01	 cmp	 DWORD PTR _value$538617[ebp], 1
  0005e	0f 95 c0	 setne	 al
$LN1@IsCanExerc:
  00061	5e		 pop	 esi

; 586  : 		return false;
; 587  : 
; 588  : 	return true;
; 589  : }

  00062	5d		 pop	 ebp
  00063	c2 04 00	 ret	 4
?IsCanExerciseChar@ExPCRoomSoldierBonusWnd@@IAE_N_N@Z ENDP ; ExPCRoomSoldierBonusWnd::IsCanExerciseChar
_TEXT	ENDS
PUBLIC	?GetDefaultCharInfo@ExPCRoomSoldierBonusWnd@@IAEXAAUCHARACTER@@HH@Z ; ExPCRoomSoldierBonusWnd::GetDefaultCharInfo
EXTRN	?GetDefaultDecoCode@ioDecorationPrice@@QAEHHHK@Z:PROC ; ioDecorationPrice::GetDefaultDecoCode
EXTRN	?GetSingleton@ioDecorationPrice@@SAAAV1@XZ:PROC	; ioDecorationPrice::GetSingleton
EXTRN	__imp_?GetHashCode@ioHashString@@QBEKXZ:PROC
EXTRN	?GetEquipItemCode@ioMyInfo@@QAEXAAUCHARACTER@@@Z:PROC ; ioMyInfo::GetEquipItemCode
; Function compile flags: /Ogsp
;	COMDAT ?GetDefaultCharInfo@ExPCRoomSoldierBonusWnd@@IAEXAAUCHARACTER@@HH@Z
_TEXT	SEGMENT
_value$538637 = -4					; size = 4
_value$538782 = 8					; size = 4
_value$538759 = 8					; size = 4
_value$538736 = 8					; size = 4
_value$538713 = 8					; size = 4
_value$538690 = 8					; size = 4
_value$538649 = 8					; size = 4
_value$538645 = 8					; size = 4
_value$538641 = 8					; size = 4
_rkCharInfo$ = 8					; size = 4
_iClassType$ = 12					; size = 4
_value$538787 = 16					; size = 4
_value$538777 = 16					; size = 4
_value$538769 = 16					; size = 4
_value$538764 = 16					; size = 4
_value$538754 = 16					; size = 4
_value$538746 = 16					; size = 4
_value$538741 = 16					; size = 4
_value$538731 = 16					; size = 4
_value$538723 = 16					; size = 4
_value$538718 = 16					; size = 4
_value$538708 = 16					; size = 4
_value$538700 = 16					; size = 4
_value$538695 = 16					; size = 4
_value$538685 = 16					; size = 4
_value$538677 = 16					; size = 4
_value$538673 = 16					; size = 4
_value$538669 = 16					; size = 4
_value$538665 = 16					; size = 4
_value$538661 = 16					; size = 4
_value$538657 = 16					; size = 4
_value$538653 = 16					; size = 4
_iSexType$ = 16						; size = 4
?GetDefaultCharInfo@ExPCRoomSoldierBonusWnd@@IAEXAAUCHARACTER@@HH@Z PROC ; ExPCRoomSoldierBonusWnd::GetDefaultCharInfo, COMDAT
; _this$ = ecx

; 604  : {

  00000	55		 push	 ebp
  00001	8b ec		 mov	 ebp, esp
  00003	51		 push	 ecx
  00004	53		 push	 ebx
  00005	56		 push	 esi

; 605  : 	//    .
; 606  : 	rkCharInfo.m_beard		 = 1;

  00006	8b 75 08	 mov	 esi, DWORD PTR _rkCharInfo$[ebp]
  00009	57		 push	 edi
  0000a	33 db		 xor	 ebx, ebx
  0000c	8d 45 fc	 lea	 eax, DWORD PTR _value$538637[ebp]
  0000f	43		 inc	 ebx
  00010	50		 push	 eax
  00011	8d 8e 90 00 00
	00		 lea	 ecx, DWORD PTR [esi+144]
  00017	89 5d fc	 mov	 DWORD PTR _value$538637[ebp], ebx
  0001a	e8 00 00 00 00	 call	 ?EncryptValueToPool@?$CEncrypt@H@@AAEXPBD@Z ; CEncrypt<int>::EncryptValueToPool

; 607  : 	rkCharInfo.m_accessories = 1;

  0001f	8d 45 08	 lea	 eax, DWORD PTR _value$538641[ebp]
  00022	50		 push	 eax
  00023	8d 8e 80 01 00
	00		 lea	 ecx, DWORD PTR [esi+384]
  00029	89 5d 08	 mov	 DWORD PTR _value$538641[ebp], ebx
  0002c	e8 00 00 00 00	 call	 ?EncryptValueToPool@?$CEncrypt@H@@AAEXPBD@Z ; CEncrypt<int>::EncryptValueToPool

; 608  : 
; 609  : 	rkCharInfo.m_class_type = iClassType;

  00031	8b 45 0c	 mov	 eax, DWORD PTR _iClassType$[ebp]
  00034	89 45 08	 mov	 DWORD PTR _value$538645[ebp], eax
  00037	8d 45 08	 lea	 eax, DWORD PTR _value$538645[ebp]
  0003a	50		 push	 eax
  0003b	8b ce		 mov	 ecx, esi
  0003d	e8 00 00 00 00	 call	 ?EncryptValueToPool@?$CEncrypt@H@@AAEXPBD@Z ; CEncrypt<int>::EncryptValueToPool

; 610  : 
; 611  : 	//    
; 612  : 	g_MyInfo.GetEquipItemCode( rkCharInfo );

  00042	56		 push	 esi
  00043	e8 00 00 00 00	 call	 ?GetSingleton@ioMyInfo@@SAAAV1@XZ ; ioMyInfo::GetSingleton
  00048	8b c8		 mov	 ecx, eax
  0004a	e8 00 00 00 00	 call	 ?GetEquipItemCode@ioMyInfo@@QAEXAAUCHARACTER@@@Z ; ioMyInfo::GetEquipItemCode

; 613  : 
; 614  : 	// -1  .
; 615  : 	if( iSexType != -1 )

  0004f	83 7d 10 ff	 cmp	 DWORD PTR _iSexType$[ebp], -1
  00053	0f 84 81 00 00
	00		 je	 $LN80@GetDefault

; 616  : 	{
; 617  : 		//      
; 618  : 		if( rkCharInfo.m_sex != iSexType + 1 )

  00059	8d 45 08	 lea	 eax, DWORD PTR _value$538649[ebp]
  0005c	50		 push	 eax
  0005d	8d 4e 60	 lea	 ecx, DWORD PTR [esi+96]
  00060	e8 00 00 00 00	 call	 ?DecryptValueToPool@?$CEncrypt@H@@QAEXPAH@Z ; CEncrypt<int>::DecryptValueToPool
  00065	8b 45 10	 mov	 eax, DWORD PTR _iSexType$[ebp]
  00068	40		 inc	 eax
  00069	39 45 08	 cmp	 DWORD PTR _value$538649[ebp], eax
  0006c	74 6c		 je	 SHORT $LN80@GetDefault

; 619  : 		{
; 620  : 			rkCharInfo.m_sex  = iSexType + 1;

  0006e	89 45 10	 mov	 DWORD PTR _value$538653[ebp], eax
  00071	8d 45 10	 lea	 eax, DWORD PTR _value$538653[ebp]
  00074	50		 push	 eax
  00075	8d 4e 60	 lea	 ecx, DWORD PTR [esi+96]
  00078	e8 00 00 00 00	 call	 ?EncryptValueToPool@?$CEncrypt@H@@AAEXPBD@Z ; CEncrypt<int>::EncryptValueToPool

; 621  : 			rkCharInfo.m_face = -1;

  0007d	8d 45 10	 lea	 eax, DWORD PTR _value$538657[ebp]
  00080	83 cf ff	 or	 edi, -1
  00083	50		 push	 eax
  00084	8d 8e c0 00 00
	00		 lea	 ecx, DWORD PTR [esi+192]
  0008a	89 7d 10	 mov	 DWORD PTR _value$538657[ebp], edi
  0008d	e8 00 00 00 00	 call	 ?EncryptValueToPool@?$CEncrypt@H@@AAEXPBD@Z ; CEncrypt<int>::EncryptValueToPool

; 622  : 			rkCharInfo.m_hair = -1;

  00092	8d 45 10	 lea	 eax, DWORD PTR _value$538661[ebp]
  00095	50		 push	 eax
  00096	8d 8e f0 00 00
	00		 lea	 ecx, DWORD PTR [esi+240]
  0009c	89 7d 10	 mov	 DWORD PTR _value$538661[ebp], edi
  0009f	e8 00 00 00 00	 call	 ?EncryptValueToPool@?$CEncrypt@H@@AAEXPBD@Z ; CEncrypt<int>::EncryptValueToPool

; 623  : 			rkCharInfo.m_skin_color = -1;

  000a4	8d 45 10	 lea	 eax, DWORD PTR _value$538665[ebp]
  000a7	50		 push	 eax
  000a8	8d 8e 20 01 00
	00		 lea	 ecx, DWORD PTR [esi+288]
  000ae	89 7d 10	 mov	 DWORD PTR _value$538665[ebp], edi
  000b1	e8 00 00 00 00	 call	 ?EncryptValueToPool@?$CEncrypt@H@@AAEXPBD@Z ; CEncrypt<int>::EncryptValueToPool

; 624  : 			rkCharInfo.m_hair_color = -1;

  000b6	8d 45 10	 lea	 eax, DWORD PTR _value$538669[ebp]
  000b9	50		 push	 eax
  000ba	8d 8e 50 01 00
	00		 lea	 ecx, DWORD PTR [esi+336]
  000c0	89 7d 10	 mov	 DWORD PTR _value$538669[ebp], edi
  000c3	e8 00 00 00 00	 call	 ?EncryptValueToPool@?$CEncrypt@H@@AAEXPBD@Z ; CEncrypt<int>::EncryptValueToPool

; 625  : 			rkCharInfo.m_underwear  = -1;

  000c8	8d 45 10	 lea	 eax, DWORD PTR _value$538673[ebp]
  000cb	50		 push	 eax
  000cc	8d 8e b0 01 00
	00		 lea	 ecx, DWORD PTR [esi+432]
  000d2	89 7d 10	 mov	 DWORD PTR _value$538673[ebp], edi
  000d5	e8 00 00 00 00	 call	 ?EncryptValueToPool@?$CEncrypt@H@@AAEXPBD@Z ; CEncrypt<int>::EncryptValueToPool
$LN80@GetDefault:

; 626  : 		}
; 627  : 	}
; 628  : 
; 629  : 	//  UID_FACE
; 630  : 	if( rkCharInfo.m_face == -1 )

  000da	8d 45 10	 lea	 eax, DWORD PTR _value$538677[ebp]
  000dd	8d 8e c0 00 00
	00		 lea	 ecx, DWORD PTR [esi+192]
  000e3	50		 push	 eax
  000e4	e8 00 00 00 00	 call	 ?DecryptValueToPool@?$CEncrypt@H@@QAEXPAH@Z ; CEncrypt<int>::DecryptValueToPool
  000e9	83 7d 10 ff	 cmp	 DWORD PTR _value$538677[ebp], -1
  000ed	75 53		 jne	 SHORT $LN38@GetDefault

; 631  : 		rkCharInfo.m_face = g_DecorationPrice.GetDefaultDecoCode( rkCharInfo.m_sex - 1, UID_FACE, g_MyInfo.GetPrivateID().GetHashCode() + rkCharInfo.m_class_type + UID_FACE );

  000ef	e8 00 00 00 00	 call	 ?GetSingleton@ioMyInfo@@SAAAV1@XZ ; ioMyInfo::GetSingleton
  000f4	8b f8		 mov	 edi, eax
  000f6	8d 45 10	 lea	 eax, DWORD PTR _value$538685[ebp]
  000f9	50		 push	 eax
  000fa	8b ce		 mov	 ecx, esi
  000fc	e8 00 00 00 00	 call	 ?DecryptValueToPool@?$CEncrypt@H@@QAEXPAH@Z ; CEncrypt<int>::DecryptValueToPool
  00101	8d 45 08	 lea	 eax, DWORD PTR _value$538690[ebp]
  00104	50		 push	 eax
  00105	8d 4e 60	 lea	 ecx, DWORD PTR [esi+96]
  00108	e8 00 00 00 00	 call	 ?DecryptValueToPool@?$CEncrypt@H@@QAEXPAH@Z ; CEncrypt<int>::DecryptValueToPool
  0010d	8d 4f 0c	 lea	 ecx, DWORD PTR [edi+12]
  00110	ff 15 00 00 00
	00		 call	 DWORD PTR __imp_?GetHashCode@ioHashString@@QBEKXZ
  00116	8b 4d 10	 mov	 ecx, DWORD PTR _value$538685[ebp]
  00119	8d 44 08 01	 lea	 eax, DWORD PTR [eax+ecx+1]
  0011d	50		 push	 eax
  0011e	8b 45 08	 mov	 eax, DWORD PTR _value$538690[ebp]
  00121	48		 dec	 eax
  00122	53		 push	 ebx
  00123	50		 push	 eax
  00124	e8 00 00 00 00	 call	 ?GetSingleton@ioDecorationPrice@@SAAAV1@XZ ; ioDecorationPrice::GetSingleton
  00129	8b c8		 mov	 ecx, eax
  0012b	e8 00 00 00 00	 call	 ?GetDefaultDecoCode@ioDecorationPrice@@QAEHHHK@Z ; ioDecorationPrice::GetDefaultDecoCode
  00130	89 45 10	 mov	 DWORD PTR _value$538695[ebp], eax
  00133	8d 45 10	 lea	 eax, DWORD PTR _value$538695[ebp]
  00136	50		 push	 eax
  00137	8d 8e c0 00 00
	00		 lea	 ecx, DWORD PTR [esi+192]
  0013d	e8 00 00 00 00	 call	 ?EncryptValueToPool@?$CEncrypt@H@@AAEXPBD@Z ; CEncrypt<int>::EncryptValueToPool
$LN38@GetDefault:

; 632  : 	//  UID_HAIR  
; 633  : 	if( rkCharInfo.m_hair == -1 )

  00142	8d 45 10	 lea	 eax, DWORD PTR _value$538700[ebp]
  00145	50		 push	 eax
  00146	8d 8e f0 00 00
	00		 lea	 ecx, DWORD PTR [esi+240]
  0014c	e8 00 00 00 00	 call	 ?DecryptValueToPool@?$CEncrypt@H@@QAEXPAH@Z ; CEncrypt<int>::DecryptValueToPool
  00151	83 7d 10 ff	 cmp	 DWORD PTR _value$538700[ebp], -1
  00155	75 54		 jne	 SHORT $LN48@GetDefault

; 634  : 		rkCharInfo.m_hair = g_DecorationPrice.GetDefaultDecoCode( rkCharInfo.m_sex - 1, UID_HAIR, g_MyInfo.GetPrivateID().GetHashCode() + rkCharInfo.m_class_type + UID_HAIR );

  00157	e8 00 00 00 00	 call	 ?GetSingleton@ioMyInfo@@SAAAV1@XZ ; ioMyInfo::GetSingleton
  0015c	8b f8		 mov	 edi, eax
  0015e	8d 45 10	 lea	 eax, DWORD PTR _value$538708[ebp]
  00161	50		 push	 eax
  00162	8b ce		 mov	 ecx, esi
  00164	e8 00 00 00 00	 call	 ?DecryptValueToPool@?$CEncrypt@H@@QAEXPAH@Z ; CEncrypt<int>::DecryptValueToPool
  00169	8d 45 08	 lea	 eax, DWORD PTR _value$538713[ebp]
  0016c	50		 push	 eax
  0016d	8d 4e 60	 lea	 ecx, DWORD PTR [esi+96]
  00170	e8 00 00 00 00	 call	 ?DecryptValueToPool@?$CEncrypt@H@@QAEXPAH@Z ; CEncrypt<int>::DecryptValueToPool
  00175	8d 4f 0c	 lea	 ecx, DWORD PTR [edi+12]
  00178	ff 15 00 00 00
	00		 call	 DWORD PTR __imp_?GetHashCode@ioHashString@@QBEKXZ
  0017e	8b 4d 10	 mov	 ecx, DWORD PTR _value$538708[ebp]
  00181	8d 44 08 02	 lea	 eax, DWORD PTR [eax+ecx+2]
  00185	50		 push	 eax
  00186	8b 45 08	 mov	 eax, DWORD PTR _value$538713[ebp]
  00189	48		 dec	 eax
  0018a	6a 02		 push	 2
  0018c	50		 push	 eax
  0018d	e8 00 00 00 00	 call	 ?GetSingleton@ioDecorationPrice@@SAAAV1@XZ ; ioDecorationPrice::GetSingleton
  00192	8b c8		 mov	 ecx, eax
  00194	e8 00 00 00 00	 call	 ?GetDefaultDecoCode@ioDecorationPrice@@QAEHHHK@Z ; ioDecorationPrice::GetDefaultDecoCode
  00199	89 45 10	 mov	 DWORD PTR _value$538718[ebp], eax
  0019c	8d 45 10	 lea	 eax, DWORD PTR _value$538718[ebp]
  0019f	50		 push	 eax
  001a0	8d 8e f0 00 00
	00		 lea	 ecx, DWORD PTR [esi+240]
  001a6	e8 00 00 00 00	 call	 ?EncryptValueToPool@?$CEncrypt@H@@AAEXPBD@Z ; CEncrypt<int>::EncryptValueToPool
$LN48@GetDefault:

; 635  : 	//  UID_SKIN_COLOR
; 636  : 	if( rkCharInfo.m_skin_color == -1 )

  001ab	8d 45 10	 lea	 eax, DWORD PTR _value$538723[ebp]
  001ae	50		 push	 eax
  001af	8d 8e 20 01 00
	00		 lea	 ecx, DWORD PTR [esi+288]
  001b5	e8 00 00 00 00	 call	 ?DecryptValueToPool@?$CEncrypt@H@@QAEXPAH@Z ; CEncrypt<int>::DecryptValueToPool
  001ba	83 7d 10 ff	 cmp	 DWORD PTR _value$538723[ebp], -1
  001be	75 54		 jne	 SHORT $LN58@GetDefault

; 637  : 		rkCharInfo.m_skin_color = g_DecorationPrice.GetDefaultDecoCode( rkCharInfo.m_sex - 1, UID_SKIN_COLOR, g_MyInfo.GetPrivateID().GetHashCode() + rkCharInfo.m_class_type + UID_SKIN_COLOR );

  001c0	e8 00 00 00 00	 call	 ?GetSingleton@ioMyInfo@@SAAAV1@XZ ; ioMyInfo::GetSingleton
  001c5	8b f8		 mov	 edi, eax
  001c7	8d 45 10	 lea	 eax, DWORD PTR _value$538731[ebp]
  001ca	50		 push	 eax
  001cb	8b ce		 mov	 ecx, esi
  001cd	e8 00 00 00 00	 call	 ?DecryptValueToPool@?$CEncrypt@H@@QAEXPAH@Z ; CEncrypt<int>::DecryptValueToPool
  001d2	8d 45 08	 lea	 eax, DWORD PTR _value$538736[ebp]
  001d5	50		 push	 eax
  001d6	8d 4e 60	 lea	 ecx, DWORD PTR [esi+96]
  001d9	e8 00 00 00 00	 call	 ?DecryptValueToPool@?$CEncrypt@H@@QAEXPAH@Z ; CEncrypt<int>::DecryptValueToPool
  001de	8d 4f 0c	 lea	 ecx, DWORD PTR [edi+12]
  001e1	ff 15 00 00 00
	00		 call	 DWORD PTR __imp_?GetHashCode@ioHashString@@QBEKXZ
  001e7	8b 4d 10	 mov	 ecx, DWORD PTR _value$538731[ebp]
  001ea	8d 44 08 03	 lea	 eax, DWORD PTR [eax+ecx+3]
  001ee	50		 push	 eax
  001ef	8b 45 08	 mov	 eax, DWORD PTR _value$538736[ebp]
  001f2	48		 dec	 eax
  001f3	6a 03		 push	 3
  001f5	50		 push	 eax
  001f6	e8 00 00 00 00	 call	 ?GetSingleton@ioDecorationPrice@@SAAAV1@XZ ; ioDecorationPrice::GetSingleton
  001fb	8b c8		 mov	 ecx, eax
  001fd	e8 00 00 00 00	 call	 ?GetDefaultDecoCode@ioDecorationPrice@@QAEHHHK@Z ; ioDecorationPrice::GetDefaultDecoCode
  00202	89 45 10	 mov	 DWORD PTR _value$538741[ebp], eax
  00205	8d 45 10	 lea	 eax, DWORD PTR _value$538741[ebp]
  00208	50		 push	 eax
  00209	8d 8e 20 01 00
	00		 lea	 ecx, DWORD PTR [esi+288]
  0020f	e8 00 00 00 00	 call	 ?EncryptValueToPool@?$CEncrypt@H@@AAEXPBD@Z ; CEncrypt<int>::EncryptValueToPool
$LN58@GetDefault:

; 638  : 	//  UID_HAIR_COLOR
; 639  : 	if( rkCharInfo.m_hair_color == -1 )

  00214	8d 45 10	 lea	 eax, DWORD PTR _value$538746[ebp]
  00217	50		 push	 eax
  00218	8d 8e 50 01 00
	00		 lea	 ecx, DWORD PTR [esi+336]
  0021e	e8 00 00 00 00	 call	 ?DecryptValueToPool@?$CEncrypt@H@@QAEXPAH@Z ; CEncrypt<int>::DecryptValueToPool
  00223	83 7d 10 ff	 cmp	 DWORD PTR _value$538746[ebp], -1
  00227	75 54		 jne	 SHORT $LN68@GetDefault

; 640  : 		rkCharInfo.m_hair_color = g_DecorationPrice.GetDefaultDecoCode( rkCharInfo.m_sex - 1, UID_HAIR_COLOR, g_MyInfo.GetPrivateID().GetHashCode() + rkCharInfo.m_class_type + UID_HAIR_COLOR );

  00229	e8 00 00 00 00	 call	 ?GetSingleton@ioMyInfo@@SAAAV1@XZ ; ioMyInfo::GetSingleton
  0022e	8b f8		 mov	 edi, eax
  00230	8d 45 10	 lea	 eax, DWORD PTR _value$538754[ebp]
  00233	50		 push	 eax
  00234	8b ce		 mov	 ecx, esi
  00236	e8 00 00 00 00	 call	 ?DecryptValueToPool@?$CEncrypt@H@@QAEXPAH@Z ; CEncrypt<int>::DecryptValueToPool
  0023b	8d 45 08	 lea	 eax, DWORD PTR _value$538759[ebp]
  0023e	50		 push	 eax
  0023f	8d 4e 60	 lea	 ecx, DWORD PTR [esi+96]
  00242	e8 00 00 00 00	 call	 ?DecryptValueToPool@?$CEncrypt@H@@QAEXPAH@Z ; CEncrypt<int>::DecryptValueToPool
  00247	8d 4f 0c	 lea	 ecx, DWORD PTR [edi+12]
  0024a	ff 15 00 00 00
	00		 call	 DWORD PTR __imp_?GetHashCode@ioHashString@@QBEKXZ
  00250	8b 4d 10	 mov	 ecx, DWORD PTR _value$538754[ebp]
  00253	8d 44 08 04	 lea	 eax, DWORD PTR [eax+ecx+4]
  00257	50		 push	 eax
  00258	8b 45 08	 mov	 eax, DWORD PTR _value$538759[ebp]
  0025b	48		 dec	 eax
  0025c	6a 04		 push	 4
  0025e	50		 push	 eax
  0025f	e8 00 00 00 00	 call	 ?GetSingleton@ioDecorationPrice@@SAAAV1@XZ ; ioDecorationPrice::GetSingleton
  00264	8b c8		 mov	 ecx, eax
  00266	e8 00 00 00 00	 call	 ?GetDefaultDecoCode@ioDecorationPrice@@QAEHHHK@Z ; ioDecorationPrice::GetDefaultDecoCode
  0026b	89 45 10	 mov	 DWORD PTR _value$538764[ebp], eax
  0026e	8d 45 10	 lea	 eax, DWORD PTR _value$538764[ebp]
  00271	50		 push	 eax
  00272	8d 8e 50 01 00
	00		 lea	 ecx, DWORD PTR [esi+336]
  00278	e8 00 00 00 00	 call	 ?EncryptValueToPool@?$CEncrypt@H@@AAEXPBD@Z ; CEncrypt<int>::EncryptValueToPool
$LN68@GetDefault:

; 641  : 	//  UID_UNDERWEAR
; 642  : 	if( rkCharInfo.m_underwear == -1 )

  0027d	8d 45 10	 lea	 eax, DWORD PTR _value$538769[ebp]
  00280	50		 push	 eax
  00281	8d 8e b0 01 00
	00		 lea	 ecx, DWORD PTR [esi+432]
  00287	e8 00 00 00 00	 call	 ?DecryptValueToPool@?$CEncrypt@H@@QAEXPAH@Z ; CEncrypt<int>::DecryptValueToPool
  0028c	83 7d 10 ff	 cmp	 DWORD PTR _value$538769[ebp], -1
  00290	75 54		 jne	 SHORT $LN78@GetDefault

; 643  : 		rkCharInfo.m_underwear = g_DecorationPrice.GetDefaultDecoCode( rkCharInfo.m_sex - 1, UID_UNDERWEAR, g_MyInfo.GetPrivateID().GetHashCode() + rkCharInfo.m_class_type + UID_UNDERWEAR );	

  00292	e8 00 00 00 00	 call	 ?GetSingleton@ioMyInfo@@SAAAV1@XZ ; ioMyInfo::GetSingleton
  00297	8b f8		 mov	 edi, eax
  00299	8d 45 10	 lea	 eax, DWORD PTR _value$538777[ebp]
  0029c	50		 push	 eax
  0029d	8b ce		 mov	 ecx, esi
  0029f	e8 00 00 00 00	 call	 ?DecryptValueToPool@?$CEncrypt@H@@QAEXPAH@Z ; CEncrypt<int>::DecryptValueToPool
  002a4	8d 45 08	 lea	 eax, DWORD PTR _value$538782[ebp]
  002a7	50		 push	 eax
  002a8	8d 4e 60	 lea	 ecx, DWORD PTR [esi+96]
  002ab	e8 00 00 00 00	 call	 ?DecryptValueToPool@?$CEncrypt@H@@QAEXPAH@Z ; CEncrypt<int>::DecryptValueToPool
  002b0	8d 4f 0c	 lea	 ecx, DWORD PTR [edi+12]
  002b3	ff 15 00 00 00
	00		 call	 DWORD PTR __imp_?GetHashCode@ioHashString@@QBEKXZ
  002b9	8b 4d 10	 mov	 ecx, DWORD PTR _value$538777[ebp]
  002bc	8d 44 08 07	 lea	 eax, DWORD PTR [eax+ecx+7]
  002c0	50		 push	 eax
  002c1	8b 45 08	 mov	 eax, DWORD PTR _value$538782[ebp]
  002c4	48		 dec	 eax
  002c5	6a 07		 push	 7
  002c7	50		 push	 eax
  002c8	e8 00 00 00 00	 call	 ?GetSingleton@ioDecorationPrice@@SAAAV1@XZ ; ioDecorationPrice::GetSingleton
  002cd	8b c8		 mov	 ecx, eax
  002cf	e8 00 00 00 00	 call	 ?GetDefaultDecoCode@ioDecorationPrice@@QAEHHHK@Z ; ioDecorationPrice::GetDefaultDecoCode
  002d4	89 45 10	 mov	 DWORD PTR _value$538787[ebp], eax
  002d7	8d 45 10	 lea	 eax, DWORD PTR _value$538787[ebp]
  002da	50		 push	 eax
  002db	8d 8e b0 01 00
	00		 lea	 ecx, DWORD PTR [esi+432]
  002e1	e8 00 00 00 00	 call	 ?EncryptValueToPool@?$CEncrypt@H@@AAEXPBD@Z ; CEncrypt<int>::EncryptValueToPool
$LN78@GetDefault:
  002e6	5f		 pop	 edi
  002e7	5e		 pop	 esi
  002e8	5b		 pop	 ebx

; 644  : }

  002e9	c9		 leave
  002ea	c2 0c 00	 ret	 12			; 0000000cH
?GetDefaultCharInfo@ExPCRoomSoldierBonusWnd@@IAEXAAUCHARACTER@@HH@Z ENDP ; ExPCRoomSoldierBonusWnd::GetDefaultCharInfo
_TEXT	ENDS
PUBLIC	?OnRenderAfterChild@ExPCRoomSoldierBonusWnd@@MAEXXZ ; ExPCRoomSoldierBonusWnd::OnRenderAfterChild
; Function compile flags: /Ogsp
;	COMDAT ?OnRenderAfterChild@ExPCRoomSoldierBonusWnd@@MAEXXZ
_TEXT	SEGMENT
?OnRenderAfterChild@ExPCRoomSoldierBonusWnd@@MAEXXZ PROC ; ExPCRoomSoldierBonusWnd::OnRenderAfterChild, COMDAT
; _this$ = ecx

; 836  : {

  00000	53		 push	 ebx
  00001	56		 push	 esi
  00002	57		 push	 edi
  00003	8b f1		 mov	 esi, ecx

; 837  : 	int iXPos = GetDerivedPosX();

  00005	ff 15 00 00 00
	00		 call	 DWORD PTR __imp_?GetDerivedPosX@ioWnd@@QBEHXZ

; 838  : 	int iYPos = GetDerivedPosY();

  0000b	8b ce		 mov	 ecx, esi
  0000d	8b f8		 mov	 edi, eax
  0000f	ff 15 00 00 00
	00		 call	 DWORD PTR __imp_?GetDerivedPosY@ioWnd@@QBEHXZ
  00015	8b d8		 mov	 ebx, eax

; 839  : 
; 840  : 	On3DCharInfoRender( iXPos, iYPos );

  00017	53		 push	 ebx
  00018	57		 push	 edi
  00019	8b ce		 mov	 ecx, esi
  0001b	e8 00 00 00 00	 call	 ?On3DCharInfoRender@ExPCRoomSoldierBonusWnd@@IAEXHH@Z ; ExPCRoomSoldierBonusWnd::On3DCharInfoRender

; 841  : 	OnMentRender( iXPos, iYPos );

  00020	53		 push	 ebx
  00021	57		 push	 edi
  00022	8b ce		 mov	 ecx, esi
  00024	e8 00 00 00 00	 call	 ?OnMentRender@ExPCRoomSoldierBonusWnd@@IAEXHH@Z ; ExPCRoomSoldierBonusWnd::OnMentRender
  00029	5f		 pop	 edi
  0002a	5e		 pop	 esi
  0002b	5b		 pop	 ebx

; 842  : }

  0002c	c3		 ret	 0
?OnRenderAfterChild@ExPCRoomSoldierBonusWnd@@MAEXXZ ENDP ; ExPCRoomSoldierBonusWnd::OnRenderAfterChild
_TEXT	ENDS
PUBLIC	??_7SelectCharViewWnd@@6B@			; SelectCharViewWnd::`vftable'
PUBLIC	??1SelectCharViewWnd@@UAE@XZ			; SelectCharViewWnd::~SelectCharViewWnd
PUBLIC	??_R4SelectCharViewWnd@@6B@			; SelectCharViewWnd::`RTTI Complete Object Locator'
PUBLIC	??_R0?AVSelectCharViewWnd@@@8			; SelectCharViewWnd `RTTI Type Descriptor'
PUBLIC	??_R3SelectCharViewWnd@@8			; SelectCharViewWnd::`RTTI Class Hierarchy Descriptor'
PUBLIC	??_R2SelectCharViewWnd@@8			; SelectCharViewWnd::`RTTI Base Class Array'
PUBLIC	??_R1A@?0A@EA@SelectCharViewWnd@@8		; SelectCharViewWnd::`RTTI Base Class Descriptor at (0,-1,0,64)'
PUBLIC	?AddRenderImage@SelectCharViewWnd@@UAEXABVioHashString@@PAVioUIRenderImage@@@Z ; SelectCharViewWnd::AddRenderImage
PUBLIC	?ParseExtraInfo@SelectCharViewWnd@@UAEXAAVioXMLElement@@@Z ; SelectCharViewWnd::ParseExtraInfo
PUBLIC	?OnProcess@SelectCharViewWnd@@UAEXM@Z		; SelectCharViewWnd::OnProcess
EXTRN	??_ESelectCharViewWnd@@UAEPAXI@Z:PROC		; SelectCharViewWnd::`vector deleting destructor'
;	COMDAT ??_R1A@?0A@EA@SelectCharViewWnd@@8
rdata$r	SEGMENT
??_R1A@?0A@EA@SelectCharViewWnd@@8 DD FLAT:??_R0?AVSelectCharViewWnd@@@8 ; SelectCharViewWnd::`RTTI Base Class Descriptor at (0,-1,0,64)'
	DD	01H
	DD	00H
	DD	0ffffffffH
	DD	00H
	DD	040H
	DD	FLAT:??_R3SelectCharViewWnd@@8
rdata$r	ENDS
;	COMDAT ??_R2SelectCharViewWnd@@8
rdata$r	SEGMENT
??_R2SelectCharViewWnd@@8 DD FLAT:??_R1A@?0A@EA@SelectCharViewWnd@@8 ; SelectCharViewWnd::`RTTI Base Class Array'
	DD	FLAT:??_R1A@?0A@EA@ioWnd@@8
rdata$r	ENDS
;	COMDAT ??_R3SelectCharViewWnd@@8
rdata$r	SEGMENT
??_R3SelectCharViewWnd@@8 DD 00H			; SelectCharViewWnd::`RTTI Class Hierarchy Descriptor'
	DD	00H
	DD	02H
	DD	FLAT:??_R2SelectCharViewWnd@@8
rdata$r	ENDS
;	COMDAT ??_R0?AVSelectCharViewWnd@@@8
_DATA	SEGMENT
??_R0?AVSelectCharViewWnd@@@8 DD FLAT:??_7type_info@@6B@ ; SelectCharViewWnd `RTTI Type Descriptor'
	DD	00H
	DB	'.?AVSelectCharViewWnd@@', 00H
_DATA	ENDS
;	COMDAT ??_R4SelectCharViewWnd@@6B@
rdata$r	SEGMENT
??_R4SelectCharViewWnd@@6B@ DD 00H			; SelectCharViewWnd::`RTTI Complete Object Locator'
	DD	00H
	DD	00H
	DD	FLAT:??_R0?AVSelectCharViewWnd@@@8
	DD	FLAT:??_R3SelectCharViewWnd@@8
rdata$r	ENDS
;	COMDAT ??_7SelectCharViewWnd@@6B@
CONST	SEGMENT
??_7SelectCharViewWnd@@6B@ DD FLAT:??_R4SelectCharViewWnd@@6B@ ; SelectCharViewWnd::`vftable'
	DD	FLAT:?AddRenderFrame@ioWnd@@UAEXABVioHashString@@PAVioUIRenderFrame@@@Z
	DD	FLAT:?AddRenderImage@SelectCharViewWnd@@UAEXABVioHashString@@PAVioUIRenderImage@@@Z
	DD	FLAT:?AddTooltipHelp@ioWnd@@UAEXABVioHashString@@00@Z
	DD	FLAT:?ParseExtraInfo@SelectCharViewWnd@@UAEXAAVioXMLElement@@@Z
	DD	FLAT:?AddNamedRenderImage@ioWnd@@UAEXABVioHashString@@PAVioUIRenderImage@@@Z
	DD	FLAT:?RemoveNamedRenderImage@ioWnd@@UAEXABVioHashString@@@Z
	DD	FLAT:?GetNamedRenderImage@ioWnd@@UBEPAVioUIRenderImage@@ABVioHashString@@@Z
	DD	FLAT:?SetWindowAlpha@ioWnd@@UAEXH@Z
	DD	FLAT:?SetActive@ioWnd@@UAEXXZ
	DD	FLAT:?SetInActive@ioWnd@@UAEXXZ
	DD	FLAT:?ClearElementImageList@ioWnd@@UAEXXZ
	DD	FLAT:?SetSize@ioWnd@@UAEXHH@Z
	DD	FLAT:?SetPositionToDefault@ioWnd@@UAEXHH_N0@Z
	DD	FLAT:?IsNeedProcess@ioWnd@@UBE_NXZ
	DD	FLAT:?IsCanMouseReaction@ioWnd@@UBE_NXZ
	DD	FLAT:?AddChild@ioWnd@@UAEXPAV1@@Z
	DD	FLAT:?DeleteChild@ioWnd@@UAEXK@Z
	DD	FLAT:?DeleteAllChild@ioWnd@@UAEXXZ
	DD	FLAT:?OnRenderShowAndHide@ioWnd@@MAE_NXZ
	DD	FLAT:?OnRenderShowAndHideByDefault@ioWnd@@MAE_NK@Z
	DD	FLAT:?OnRenderShowAndHideByTop@ioWnd@@MAE_NK@Z
	DD	FLAT:?OnRenderShowAndHideByDown@ioWnd@@MAE_NK@Z
	DD	FLAT:?OnRender@SelectCharViewWnd@@MAEXXZ
	DD	FLAT:?OnRenderAfterChild@ioWnd@@MAEXXZ
	DD	FLAT:?OnProcess@SelectCharViewWnd@@UAEXM@Z
	DD	FLAT:?OnMouseProcess@ioWnd@@MAEXABVioMouse@@@Z
	DD	FLAT:?CheckFrameReSize@ioWnd@@MAEXHHHH@Z
	DD	FLAT:?RenderImageList@ioWnd@@MAEXHHW4UIRenderType@@@Z
	DD	FLAT:?iwm_create@SelectCharViewWnd@@UAEXXZ
	DD	FLAT:?iwm_destroy@ioWnd@@UAEXXZ
	DD	FLAT:?iwm_lbuttondown@ioWnd@@UAEXABVioMouse@@@Z
	DD	FLAT:?iwm_lbuttonup@ioWnd@@UAEXABVioMouse@@@Z
	DD	FLAT:?iwm_lbuttonDBLCLK@ioWnd@@UAEXABVioMouse@@@Z
	DD	FLAT:?iwm_rbuttondown@ioWnd@@UAEXABVioMouse@@@Z
	DD	FLAT:?iwm_rbuttonup@ioWnd@@UAEXABVioMouse@@@Z
	DD	FLAT:?iwm_command@SelectCharViewWnd@@UAEXPAVioWnd@@HK@Z
	DD	FLAT:?iwm_mouseover@ioWnd@@UAEXABVioMouse@@@Z
	DD	FLAT:?iwm_mousemove@ioWnd@@UAEXABVioMouse@@@Z
	DD	FLAT:?iwm_mouseleave@ioWnd@@UAEXABVioMouse@@@Z
	DD	FLAT:?iwm_vscroll@ioWnd@@UAEXKH@Z
	DD	FLAT:?iwm_wheel@ioWnd@@UAEXH@Z
	DD	FLAT:?iwm_show@SelectCharViewWnd@@UAEXXZ
	DD	FLAT:?iwm_hide@SelectCharViewWnd@@UAEXXZ
	DD	FLAT:?iwm_esc@ioWnd@@UAE_NXZ
	DD	FLAT:?iwm_spacebar@ioWnd@@UAE_NXZ
	DD	FLAT:?iwm_gototop@ioWnd@@UAEXXZ
	DD	FLAT:?iwm_dragenter@ioWnd@@UAE?AW4IWDropEffect@@PAVioDragItem@@ABVioMouse@@@Z
	DD	FLAT:?iwm_dragover@ioWnd@@UAE?AW4IWDropEffect@@PAVioDragItem@@ABVioMouse@@@Z
	DD	FLAT:?iwm_dragleave@ioWnd@@UAEXXZ
	DD	FLAT:?iwm_dropitem@ioWnd@@UAE_NPAVioDragItem@@ABVioMouse@@PAV1@@Z
	DD	FLAT:?iwm_dropdone@ioWnd@@UAEXPAVioDragItem@@PAV1@_N@Z
	DD	FLAT:?IsEXType@ioWnd@@UBE_NXZ
	DD	FLAT:?GetWndType@ioWnd@@UBEKXZ
	DD	FLAT:?RenderWnd@ioWnd@@UAEXXZ
	DD	FLAT:?SetIDEX@ioWnd@@UAEXAAK_N@Z
	DD	FLAT:?ParseXML@ioWnd@@UAEXAAVioXMLElement@@@Z
	DD	FLAT:?GetHeaderFileName@ioWnd@@UAEPBDXZ
	DD	FLAT:?GetTemplateName@ioWnd@@UAEPBDXZ
	DD	FLAT:?GetDefClassName@ioWnd@@UBEPBDXZ
	DD	FLAT:?_Clone@ioWnd@@UAEPAV1@XZ
	DD	FLAT:?Copy@ioWnd@@UAEXPAV1@@Z
	DD	FLAT:?Save@ioWnd@@UAE_NAAVioXMLElement@@@Z
	DD	FLAT:?SetSaveData@ioWnd@@UAEXAAVioXMLElement@@@Z
	DD	FLAT:?SetPosX@ioWnd@@UAEXH@Z
	DD	FLAT:?SetPosY@ioWnd@@UAEXH@Z
	DD	FLAT:?SetWidth@ioWnd@@UAEXH@Z
	DD	FLAT:?SetHeight@ioWnd@@UAEXH@Z
	DD	FLAT:?GetNumFixedRenderFrame@ioWnd@@UBEHXZ
	DD	FLAT:?GetFixedRenderFrameType@ioWnd@@UAEPBDH@Z
	DD	FLAT:?GetRenderFrame@ioWnd@@UAEPAPAVioUIRenderElement@@PBD@Z
	DD	FLAT:?GetNumFixedRenderImage@ioWnd@@UBEHXZ
	DD	FLAT:?GetFixedRenderImageType@ioWnd@@UAEPBDH@Z
	DD	FLAT:?GetRenderImage@ioWnd@@UAEPAPAVioUIRenderElement@@PBD@Z
	DD	FLAT:?AddEffect@ioWnd@@UAEXABVioHashString@@PAVioUI3DEffectRender@@@Z
	DD	FLAT:?GetEffect@ioWnd@@UAEPAVioUI3DEffectRender@@VioHashString@@@Z
	DD	FLAT:??_ESelectCharViewWnd@@UAEPAXI@Z
CONST	ENDS
;	COMDAT xdata$x
xdata$x	SEGMENT
__unwindtable$??1SelectCharViewWnd@@UAE@XZ DD 0ffffffffH
	DD	FLAT:__unwindfunclet$??1SelectCharViewWnd@@UAE@XZ$0
	DD	00H
	DD	FLAT:__unwindfunclet$??1SelectCharViewWnd@@UAE@XZ$1
__ehfuncinfo$??1SelectCharViewWnd@@UAE@XZ DD 019930522H
	DD	02H
	DD	FLAT:__unwindtable$??1SelectCharViewWnd@@UAE@XZ
	DD	2 DUP(00H)
	DD	2 DUP(00H)
	DD	00H
	DD	01H
; Function compile flags: /Ogsp
xdata$x	ENDS
;	COMDAT ??1SelectCharViewWnd@@UAE@XZ
_TEXT	SEGMENT
_this$ = -16						; size = 4
__$EHRec$ = -12						; size = 12
??1SelectCharViewWnd@@UAE@XZ PROC			; SelectCharViewWnd::~SelectCharViewWnd, COMDAT
; _this$ = ecx

; 968  : {

  00000	6a 04		 push	 4
  00002	b8 00 00 00 00	 mov	 eax, __ehhandler$??1SelectCharViewWnd@@UAE@XZ
  00007	e8 00 00 00 00	 call	 __EH_prolog3
  0000c	8b f1		 mov	 esi, ecx
  0000e	89 75 f0	 mov	 DWORD PTR _this$[ebp], esi
  00011	c7 06 00 00 00
	00		 mov	 DWORD PTR [esi], OFFSET ??_7SelectCharViewWnd@@6B@

; 969  : 	SAFEDELETE( m_aMyChar );

  00017	8b 8e 64 01 00
	00		 mov	 ecx, DWORD PTR [esi+356]
  0001d	33 db		 xor	 ebx, ebx
  0001f	43		 inc	 ebx
  00020	89 5d fc	 mov	 DWORD PTR __$EHRec$[ebp+8], ebx
  00023	85 c9		 test	 ecx, ecx
  00025	74 0d		 je	 SHORT $LN3@SelectChar@2
  00027	8b 01		 mov	 eax, DWORD PTR [ecx]
  00029	53		 push	 ebx
  0002a	ff 50 04	 call	 DWORD PTR [eax+4]
  0002d	83 a6 64 01 00
	00 00		 and	 DWORD PTR [esi+356], 0
$LN3@SelectChar@2:

; 970  : 	SAFEDELETE( m_pUI3DRender );

  00034	8b 8e 60 01 00
	00		 mov	 ecx, DWORD PTR [esi+352]
  0003a	85 c9		 test	 ecx, ecx
  0003c	74 0c		 je	 SHORT $LN2@SelectChar@2
  0003e	8b 01		 mov	 eax, DWORD PTR [ecx]
  00040	53		 push	 ebx
  00041	ff 10		 call	 DWORD PTR [eax]
  00043	83 a6 60 01 00
	00 00		 and	 DWORD PTR [esi+352], 0
$LN2@SelectChar@2:

; 971  : 	SAFEDELETE( m_p3DBack );

  0004a	8b 8e 8c 04 00
	00		 mov	 ecx, DWORD PTR [esi+1164]
  00050	85 c9		 test	 ecx, ecx
  00052	74 0d		 je	 SHORT $LN1@SelectChar@2
  00054	8b 01		 mov	 eax, DWORD PTR [ecx]
  00056	53		 push	 ebx
  00057	ff 50 40	 call	 DWORD PTR [eax+64]
  0005a	83 a6 8c 04 00
	00 00		 and	 DWORD PTR [esi+1164], 0
$LN1@SelectChar@2:

; 972  : }

  00061	8d 8e 68 01 00
	00		 lea	 ecx, DWORD PTR [esi+360]
  00067	c6 45 fc 00	 mov	 BYTE PTR __$EHRec$[ebp+8], 0
  0006b	e8 00 00 00 00	 call	 ??1CHARACTER@@QAE@XZ
  00070	83 4d fc ff	 or	 DWORD PTR __$EHRec$[ebp+8], -1
  00074	8b ce		 mov	 ecx, esi
  00076	ff 15 00 00 00
	00		 call	 DWORD PTR __imp_??1ioWnd@@UAE@XZ
  0007c	e8 00 00 00 00	 call	 __EH_epilog3
  00081	c3		 ret	 0
_TEXT	ENDS
;	COMDAT text$x
text$x	SEGMENT
__unwindfunclet$??1SelectCharViewWnd@@UAE@XZ$0:
  00000	8b 4d f0	 mov	 ecx, DWORD PTR _this$[ebp]
  00003	ff 25 00 00 00
	00		 jmp	 DWORD PTR __imp_??1ioWnd@@UAE@XZ
__unwindfunclet$??1SelectCharViewWnd@@UAE@XZ$1:
  00009	8b 4d f0	 mov	 ecx, DWORD PTR _this$[ebp]
  0000c	81 c1 68 01 00
	00		 add	 ecx, 360		; 00000168H
  00012	e9 00 00 00 00	 jmp	 ??1CHARACTER@@QAE@XZ
__ehhandler$??1SelectCharViewWnd@@UAE@XZ:
  00017	8b 54 24 08	 mov	 edx, DWORD PTR [esp+8]
  0001b	8d 42 0c	 lea	 eax, DWORD PTR [edx+12]
  0001e	8b 4a ec	 mov	 ecx, DWORD PTR [edx-20]
  00021	33 c8		 xor	 ecx, eax
  00023	e8 00 00 00 00	 call	 @__security_check_cookie@4
  00028	b8 00 00 00 00	 mov	 eax, OFFSET __ehfuncinfo$??1SelectCharViewWnd@@UAE@XZ
  0002d	e9 00 00 00 00	 jmp	 ___CxxFrameHandler3
text$x	ENDS
??1SelectCharViewWnd@@UAE@XZ ENDP			; SelectCharViewWnd::~SelectCharViewWnd
PUBLIC	_this$GSCopy$
PUBLIC	__$ArrayPad$
; Function compile flags: /Ogsp
;	COMDAT ?AddRenderImage@SelectCharViewWnd@@UAEXABVioHashString@@PAVioUIRenderImage@@@Z
_TEXT	SEGMENT
_this$GSCopy$ = -20					; size = 4
__t$538849 = -16					; size = 8
__$ArrayPad$ = -4					; size = 4
_szType$ = 8						; size = 4
_pImage$ = 12						; size = 4
?AddRenderImage@SelectCharViewWnd@@UAEXABVioHashString@@PAVioUIRenderImage@@@Z PROC ; SelectCharViewWnd::AddRenderImage, COMDAT
; _this$ = ecx

; 995  : {

  00000	55		 push	 ebp
  00001	8b ec		 mov	 ebp, esp
  00003	83 ec 14	 sub	 esp, 20			; 00000014H
  00006	a1 00 00 00 00	 mov	 eax, DWORD PTR ___security_cookie
  0000b	33 c5		 xor	 eax, ebp
  0000d	89 45 fc	 mov	 DWORD PTR __$ArrayPad$[ebp], eax
  00010	53		 push	 ebx
  00011	8b 5d 0c	 mov	 ebx, DWORD PTR _pImage$[ebp]
  00014	56		 push	 esi
  00015	57		 push	 edi
  00016	8b 7d 08	 mov	 edi, DWORD PTR _szType$[ebp]

; 996  : 	if( szType == "3D_Back" )

  00019	6a 04		 push	 4
  0001b	c7 45 f0 de a8
	b4 a8		 mov	 DWORD PTR __t$538849[ebp], -1464555298 ; a8b4a8deH
  00022	81 75 f0 ed ec
	eb ea		 xor	 DWORD PTR __t$538849[ebp], -353637139 ; eaebecedH
  00029	89 4d ec	 mov	 DWORD PTR _this$GSCopy$[ebp], ecx
  0002c	c7 45 f4 8c 8f
	80 00		 mov	 DWORD PTR __t$538849[ebp+4], 8425356 ; 00808f8cH
  00033	58		 pop	 eax
$LL108@AddRenderI@4:
  00034	8b c8		 mov	 ecx, eax
  00036	81 e1 03 00 00
	80		 and	 ecx, -2147483645	; 80000003H
  0003c	79 05		 jns	 SHORT $LN122@AddRenderI@4
  0003e	49		 dec	 ecx
  0003f	83 c9 fc	 or	 ecx, -4			; fffffffcH
  00042	41		 inc	 ecx
$LN122@AddRenderI@4:
  00043	b2 ed		 mov	 dl, -19			; ffffffedH
  00045	2a d1		 sub	 dl, cl
  00047	30 54 05 f0	 xor	 BYTE PTR __t$538849[ebp+eax], dl
  0004b	40		 inc	 eax
  0004c	83 f8 07	 cmp	 eax, 7
  0004f	7c e3		 jl	 SHORT $LL108@AddRenderI@4
  00051	8b cf		 mov	 ecx, edi
  00053	8d 75 f0	 lea	 esi, DWORD PTR __t$538849[ebp]
  00056	ff 15 00 00 00
	00		 call	 DWORD PTR __imp_?c_str@ioHashString@@QBEPBDXZ
$LL118@AddRenderI@4:
  0005c	8a 08		 mov	 cl, BYTE PTR [eax]
  0005e	3a 0e		 cmp	 cl, BYTE PTR [esi]
  00060	75 1a		 jne	 SHORT $LN119@AddRenderI@4
  00062	84 c9		 test	 cl, cl
  00064	74 12		 je	 SHORT $LN120@AddRenderI@4
  00066	8a 48 01	 mov	 cl, BYTE PTR [eax+1]
  00069	3a 4e 01	 cmp	 cl, BYTE PTR [esi+1]
  0006c	75 0e		 jne	 SHORT $LN119@AddRenderI@4
  0006e	83 c0 02	 add	 eax, 2
  00071	83 c6 02	 add	 esi, 2
  00074	84 c9		 test	 cl, cl
  00076	75 e4		 jne	 SHORT $LL118@AddRenderI@4
$LN120@AddRenderI@4:
  00078	33 c0		 xor	 eax, eax
  0007a	eb 05		 jmp	 SHORT $LN121@AddRenderI@4
$LN119@AddRenderI@4:
  0007c	1b c0		 sbb	 eax, eax
  0007e	83 d8 ff	 sbb	 eax, -1
$LN121@AddRenderI@4:
  00081	85 c0		 test	 eax, eax
  00083	75 23		 jne	 SHORT $LN3@AddRenderI@4

; 997  : 	{
; 998  : 		SAFEDELETE(m_p3DBack);

  00085	8b 75 ec	 mov	 esi, DWORD PTR _this$GSCopy$[ebp]
  00088	8b 8e 8c 04 00
	00		 mov	 ecx, DWORD PTR [esi+1164]
  0008e	85 c9		 test	 ecx, ecx
  00090	74 0e		 je	 SHORT $LN2@AddRenderI@4
  00092	8b 01		 mov	 eax, DWORD PTR [ecx]
  00094	6a 01		 push	 1
  00096	ff 50 40	 call	 DWORD PTR [eax+64]
  00099	83 a6 8c 04 00
	00 00		 and	 DWORD PTR [esi+1164], 0
$LN2@AddRenderI@4:

; 999  : 		m_p3DBack = pImage;

  000a0	89 9e 8c 04 00
	00		 mov	 DWORD PTR [esi+1164], ebx

; 1000 : 	}
; 1001 : 	else

  000a6	eb 0b		 jmp	 SHORT $LN1@AddRenderI@4
$LN3@AddRenderI@4:

; 1002 : 	{
; 1003 : 		ioWnd::AddRenderImage( szType, pImage );

  000a8	8b 4d ec	 mov	 ecx, DWORD PTR _this$GSCopy$[ebp]
  000ab	53		 push	 ebx
  000ac	57		 push	 edi
  000ad	ff 15 00 00 00
	00		 call	 DWORD PTR __imp_?AddRenderImage@ioWnd@@UAEXABVioHashString@@PAVioUIRenderImage@@@Z
$LN1@AddRenderI@4:

; 1004 : 	}
; 1005 : }

  000b3	8b 4d fc	 mov	 ecx, DWORD PTR __$ArrayPad$[ebp]
  000b6	5f		 pop	 edi
  000b7	5e		 pop	 esi
  000b8	33 cd		 xor	 ecx, ebp
  000ba	5b		 pop	 ebx
  000bb	e8 00 00 00 00	 call	 @__security_check_cookie@4
  000c0	c9		 leave
  000c1	c2 08 00	 ret	 8
?AddRenderImage@SelectCharViewWnd@@UAEXABVioHashString@@PAVioUIRenderImage@@@Z ENDP ; SelectCharViewWnd::AddRenderImage
_TEXT	ENDS
PUBLIC	__$ArrayPad$
; Function compile flags: /Ogsp
;	COMDAT ?ParseExtraInfo@SelectCharViewWnd@@UAEXAAVioXMLElement@@@Z
_TEXT	SEGMENT
__k$538988 = -20					; size = 10
__$ArrayPad$ = -4					; size = 4
_xElement$ = 8						; size = 4
?ParseExtraInfo@SelectCharViewWnd@@UAEXAAVioXMLElement@@@Z PROC ; SelectCharViewWnd::ParseExtraInfo, COMDAT
; _this$ = ecx

; 1008 : {

  00000	55		 push	 ebp
  00001	8b ec		 mov	 ebp, esp
  00003	83 ec 14	 sub	 esp, 20			; 00000014H
  00006	a1 00 00 00 00	 mov	 eax, DWORD PTR ___security_cookie
  0000b	33 c5		 xor	 eax, ebp
  0000d	89 45 fc	 mov	 DWORD PTR __$ArrayPad$[ebp], eax
  00010	56		 push	 esi

; 1009 : 	m_fXMLRotateYaw = xElement.GetFloatAttribute_e( "RotateYaw" );

  00011	6a 02		 push	 2
  00013	8b f1		 mov	 esi, ecx
  00015	8b 4d 08	 mov	 ecx, DWORD PTR _xElement$[ebp]
  00018	c7 45 ec bf 83
	9f 8b		 mov	 DWORD PTR __k$538988[ebp], -1952480321 ; 8b9f83bfH
  0001f	c7 45 f0 99 89
	b2 8b		 mov	 DWORD PTR __k$538988[ebp+4], -1951233639 ; 8bb28999H
  00026	8d 45 ec	 lea	 eax, DWORD PTR __k$538988[ebp]
  00029	66 c7 45 f4 9a
	00		 mov	 WORD PTR __k$538988[ebp+8], 154 ; 0000009aH
  0002f	5a		 pop	 edx
$LL106@ParseExtra:
  00030	81 30 ed ec eb
	ea		 xor	 DWORD PTR [eax], -353637139 ; eaebecedH
  00036	83 c0 04	 add	 eax, 4
  00039	4a		 dec	 edx
  0003a	75 f4		 jne	 SHORT $LL106@ParseExtra
  0003c	80 75 f4 ed	 xor	 BYTE PTR __k$538988[ebp+8], -19 ; ffffffedH
  00040	8d 45 ec	 lea	 eax, DWORD PTR __k$538988[ebp]
  00043	50		 push	 eax
  00044	ff 15 00 00 00
	00		 call	 DWORD PTR __imp_?GetFloatAttribute@ioXMLElement@@QBEMPBD@Z
  0004a	d9 9e 9c 04 00
	00		 fstp	 DWORD PTR [esi+1180]

; 1010 : }

  00050	8b 4d fc	 mov	 ecx, DWORD PTR __$ArrayPad$[ebp]
  00053	33 cd		 xor	 ecx, ebp
  00055	5e		 pop	 esi
  00056	e8 00 00 00 00	 call	 @__security_check_cookie@4
  0005b	c9		 leave
  0005c	c2 04 00	 ret	 4
?ParseExtraInfo@SelectCharViewWnd@@UAEXAAVioXMLElement@@@Z ENDP ; SelectCharViewWnd::ParseExtraInfo
_TEXT	ENDS
PUBLIC	__real@44160000
PUBLIC	__real@42340000
PUBLIC	__real@3f091bce
PUBLIC	__real@44610000
PUBLIC	__real@41f00000
PUBLIC	__real@44834000
PUBLIC	??_C@_0L@MHICKLHG@ResultChar?$AA@		; `string'
PUBLIC	?CreateCharacter@SelectCharViewWnd@@IAEXABUCHARACTER@@@Z ; SelectCharViewWnd::CreateCharacter
EXTRN	?SetProjection@ioUI3DRender@@QAEXMMMM@Z:PROC	; ioUI3DRender::SetProjection
EXTRN	?SetLookAt@ioUI3DRender@@QAEXMMM@Z:PROC		; ioUI3DRender::SetLookAt
EXTRN	?SetPosition@ioCreateChar@@QAEXMMM@Z:PROC	; ioCreateChar::SetPosition
EXTRN	?CreateChar@ioUI3DRender@@QAEPAVioCreateChar@@ABUCHARACTER@@ABVioHashString@@_N@Z:PROC ; ioUI3DRender::CreateChar
;	COMDAT __real@44160000
; File d:\lost saga for developer\youtube\tutorial\source\src\lsclient\encryptvalue.h
CONST	SEGMENT
__real@44160000 DD 044160000r			; 600
CONST	ENDS
;	COMDAT __real@42340000
CONST	SEGMENT
__real@42340000 DD 042340000r			; 45
CONST	ENDS
;	COMDAT __real@3f091bce
CONST	SEGMENT
__real@3f091bce DD 03f091bcer			; 0.535581
CONST	ENDS
;	COMDAT __real@44610000
CONST	SEGMENT
__real@44610000 DD 044610000r			; 900
CONST	ENDS
;	COMDAT __real@41f00000
CONST	SEGMENT
__real@41f00000 DD 041f00000r			; 30
CONST	ENDS
;	COMDAT __real@44834000
CONST	SEGMENT
__real@44834000 DD 044834000r			; 1050
CONST	ENDS
;	COMDAT ??_C@_0L@MHICKLHG@ResultChar?$AA@
CONST	SEGMENT
??_C@_0L@MHICKLHG@ResultChar?$AA@ DB 'ResultChar', 00H	; `string'
CONST	ENDS
;	COMDAT xdata$x
xdata$x	SEGMENT
__unwindtable$?CreateCharacter@SelectCharViewWnd@@IAEXABUCHARACTER@@@Z DD 0ffffffffH
	DD	FLAT:__unwindfunclet$?CreateCharacter@SelectCharViewWnd@@IAEXABUCHARACTER@@@Z$0
__ehfuncinfo$?CreateCharacter@SelectCharViewWnd@@IAEXABUCHARACTER@@@Z DD 019930522H
	DD	01H
	DD	FLAT:__unwindtable$?CreateCharacter@SelectCharViewWnd@@IAEXABUCHARACTER@@@Z
	DD	2 DUP(00H)
	DD	2 DUP(00H)
	DD	00H
	DD	01H
; Function compile flags: /Ogsp
; File d:\lost saga for developer\youtube\tutorial\source\src\lsclient\gui\expcroomwnd.cpp
xdata$x	ENDS
;	COMDAT ?CreateCharacter@SelectCharViewWnd@@IAEXABUCHARACTER@@@Z
_TEXT	SEGMENT
$T539093 = -32						; size = 16
tv217 = -16						; size = 4
tv196 = -16						; size = 4
_value$539110 = -16					; size = 4
__$EHRec$ = -12						; size = 12
_value$539115 = 8					; size = 4
_rkInfo$ = 8						; size = 4
?CreateCharacter@SelectCharViewWnd@@IAEXABUCHARACTER@@@Z PROC ; SelectCharViewWnd::CreateCharacter, COMDAT
; _this$ = ecx

; 1013 : {

  00000	6a 14		 push	 20			; 00000014H
  00002	b8 00 00 00 00	 mov	 eax, __ehhandler$?CreateCharacter@SelectCharViewWnd@@IAEXABUCHARACTER@@@Z
  00007	e8 00 00 00 00	 call	 __EH_prolog3
  0000c	8b f1		 mov	 esi, ecx

; 1014 : 	ioCreateChar *pChar = m_pUI3DRender->CreateChar( rkInfo, "ResultChar" );

  0000e	68 00 00 00 00	 push	 OFFSET ??_C@_0L@MHICKLHG@ResultChar?$AA@
  00013	8d 4d e0	 lea	 ecx, DWORD PTR $T539093[ebp]
  00016	ff 15 00 00 00
	00		 call	 DWORD PTR __imp_??0ioHashString@@QAE@PBD@Z
  0001c	8b 8e 60 01 00
	00		 mov	 ecx, DWORD PTR [esi+352]
  00022	83 65 fc 00	 and	 DWORD PTR __$EHRec$[ebp+8], 0
  00026	6a 01		 push	 1
  00028	8d 45 e0	 lea	 eax, DWORD PTR $T539093[ebp]
  0002b	50		 push	 eax
  0002c	ff 75 08	 push	 DWORD PTR _rkInfo$[ebp]
  0002f	e8 00 00 00 00	 call	 ?CreateChar@ioUI3DRender@@QAEPAVioCreateChar@@ABUCHARACTER@@ABVioHashString@@_N@Z ; ioUI3DRender::CreateChar
  00034	83 4d fc ff	 or	 DWORD PTR __$EHRec$[ebp+8], -1
  00038	8d 4d e0	 lea	 ecx, DWORD PTR $T539093[ebp]
  0003b	8b d8		 mov	 ebx, eax
  0003d	ff 15 00 00 00
	00		 call	 DWORD PTR __imp_??1ioHashString@@QAE@XZ

; 1015 : 	if( !pChar )

  00043	85 db		 test	 ebx, ebx
  00045	0f 84 14 01 00
	00		 je	 $LN1@CreateChar

; 1016 : 		return;
; 1017 : 	
; 1018 : 	pChar->SetPosition( 0.0f, -FLOAT90, 1050.0f );	

  0004b	b8 5a 00 00 00	 mov	 eax, 90			; 0000005aH
  00050	f3 0f 10 05 00
	00 00 00	 movss	 xmm0, DWORD PTR __real@44834000
  00058	83 ec 0c	 sub	 esp, 12			; 0000000cH
  0005b	89 45 f0	 mov	 DWORD PTR tv217[ebp], eax
  0005e	db 45 f0	 fild	 DWORD PTR tv217[ebp]
  00061	f3 0f 11 44 24
	08		 movss	 DWORD PTR [esp+8], xmm0
  00067	85 c0		 test	 eax, eax
  00069	79 06		 jns	 SHORT $LN18@CreateChar
  0006b	d8 05 00 00 00
	00		 fadd	 DWORD PTR __real@4f800000
$LN18@CreateChar:
  00071	0f 57 c0	 xorps	 xmm0, xmm0
  00074	d9 e0		 fchs
  00076	d9 5c 24 04	 fstp	 DWORD PTR [esp+4]
  0007a	8b cb		 mov	 ecx, ebx
  0007c	f3 0f 11 04 24	 movss	 DWORD PTR [esp], xmm0
  00081	e8 00 00 00 00	 call	 ?SetPosition@ioCreateChar@@QAEXMMM@Z ; ioCreateChar::SetPosition

; 1019 : 	pChar->SetYaw( 30.0f );

  00086	f3 0f 10 05 00
	00 00 00	 movss	 xmm0, DWORD PTR __real@41f00000
  0008e	51		 push	 ecx
  0008f	8b cb		 mov	 ecx, ebx
  00091	f3 0f 11 04 24	 movss	 DWORD PTR [esp], xmm0
  00096	e8 00 00 00 00	 call	 ?SetYaw@ioCreateChar@@QAEXM@Z ; ioCreateChar::SetYaw

; 1020 : 	m_pUI3DRender->SetLookAt( 0.0f, 0.0f, 900.0f );

  0009b	f3 0f 10 05 00
	00 00 00	 movss	 xmm0, DWORD PTR __real@44610000
  000a3	8b 8e 60 01 00
	00		 mov	 ecx, DWORD PTR [esi+352]
  000a9	83 ec 0c	 sub	 esp, 12			; 0000000cH
  000ac	f3 0f 11 44 24
	08		 movss	 DWORD PTR [esp+8], xmm0
  000b2	0f 57 c0	 xorps	 xmm0, xmm0
  000b5	f3 0f 11 44 24
	04		 movss	 DWORD PTR [esp+4], xmm0
  000bb	f3 0f 11 04 24	 movss	 DWORD PTR [esp], xmm0
  000c0	e8 00 00 00 00	 call	 ?SetLookAt@ioUI3DRender@@QAEXMMM@Z ; ioUI3DRender::SetLookAt

; 1021 : 
; 1022 : 	float fAspect = (float)VIEW_WIDTH/(float)VIEW_HEIGHT;
; 1023 : 	m_pUI3DRender->SetProjection( FLOAT1, 600.0f, 45.0f, fAspect );

  000c5	b8 01 00 00 00	 mov	 eax, 1
  000ca	f3 0f 10 05 00
	00 00 00	 movss	 xmm0, DWORD PTR __real@3f091bce
  000d2	83 ec 10	 sub	 esp, 16			; 00000010H
  000d5	f3 0f 11 44 24
	0c		 movss	 DWORD PTR [esp+12], xmm0
  000db	f3 0f 10 05 00
	00 00 00	 movss	 xmm0, DWORD PTR __real@42340000
  000e3	f3 0f 11 44 24
	08		 movss	 DWORD PTR [esp+8], xmm0
  000e9	f3 0f 10 05 00
	00 00 00	 movss	 xmm0, DWORD PTR __real@44160000
  000f1	89 45 f0	 mov	 DWORD PTR tv196[ebp], eax
  000f4	db 45 f0	 fild	 DWORD PTR tv196[ebp]
  000f7	f3 0f 11 44 24
	04		 movss	 DWORD PTR [esp+4], xmm0
  000fd	85 c0		 test	 eax, eax
  000ff	79 06		 jns	 SHORT $LN19@CreateChar
  00101	d8 05 00 00 00
	00		 fadd	 DWORD PTR __real@4f800000
$LN19@CreateChar:
  00107	8b 8e 60 01 00
	00		 mov	 ecx, DWORD PTR [esi+352]
  0010d	d9 1c 24	 fstp	 DWORD PTR [esp]
  00110	e8 00 00 00 00	 call	 ?SetProjection@ioUI3DRender@@QAEXMMMM@Z ; ioUI3DRender::SetProjection

; 1024 : 
; 1025 : 	SAFEDELETE( m_aMyChar );

  00115	8b 8e 64 01 00
	00		 mov	 ecx, DWORD PTR [esi+356]
  0011b	85 c9		 test	 ecx, ecx
  0011d	74 0e		 je	 SHORT $LN2@CreateChar
  0011f	8b 01		 mov	 eax, DWORD PTR [ecx]
  00121	6a 01		 push	 1
  00123	ff 50 04	 call	 DWORD PTR [eax+4]
  00126	83 a6 64 01 00
	00 00		 and	 DWORD PTR [esi+356], 0
$LN2@CreateChar:

; 1026 : 	m_aMyChar = pChar;
; 1027 : 
; 1028 : 	if( m_iClassType != rkInfo.m_class_type )

  0012d	8b 4d 08	 mov	 ecx, DWORD PTR _rkInfo$[ebp]
  00130	8d 45 f0	 lea	 eax, DWORD PTR _value$539110[ebp]
  00133	50		 push	 eax
  00134	89 9e 64 01 00
	00		 mov	 DWORD PTR [esi+356], ebx
  0013a	e8 00 00 00 00	 call	 ?DecryptValueToPool@?$CEncrypt@H@@QAEXPAH@Z ; CEncrypt<int>::DecryptValueToPool
  0013f	8b 86 90 04 00
	00		 mov	 eax, DWORD PTR [esi+1168]
  00145	3b 45 f0	 cmp	 eax, DWORD PTR _value$539110[ebp]
  00148	74 15		 je	 SHORT $LN1@CreateChar

; 1029 : 	{
; 1030 : 		m_iClassType = rkInfo.m_class_type;

  0014a	8b 4d 08	 mov	 ecx, DWORD PTR _rkInfo$[ebp]
  0014d	8d 45 08	 lea	 eax, DWORD PTR _value$539115[ebp]
  00150	50		 push	 eax
  00151	e8 00 00 00 00	 call	 ?DecryptValueToPool@?$CEncrypt@H@@QAEXPAH@Z ; CEncrypt<int>::DecryptValueToPool
  00156	8b 45 08	 mov	 eax, DWORD PTR _value$539115[ebp]
  00159	89 86 90 04 00
	00		 mov	 DWORD PTR [esi+1168], eax
$LN1@CreateChar:

; 1031 : 	}
; 1032 : }

  0015f	e8 00 00 00 00	 call	 __EH_epilog3
  00164	c2 04 00	 ret	 4
_TEXT	ENDS
;	COMDAT text$x
text$x	SEGMENT
__unwindfunclet$?CreateCharacter@SelectCharViewWnd@@IAEXABUCHARACTER@@@Z$0:
  00000	8d 4d e0	 lea	 ecx, DWORD PTR $T539093[ebp]
  00003	ff 25 00 00 00
	00		 jmp	 DWORD PTR __imp_??1ioHashString@@QAE@XZ
__ehhandler$?CreateCharacter@SelectCharViewWnd@@IAEXABUCHARACTER@@@Z:
  00009	8b 54 24 08	 mov	 edx, DWORD PTR [esp+8]
  0000d	8d 42 0c	 lea	 eax, DWORD PTR [edx+12]
  00010	8b 4a dc	 mov	 ecx, DWORD PTR [edx-36]
  00013	33 c8		 xor	 ecx, eax
  00015	e8 00 00 00 00	 call	 @__security_check_cookie@4
  0001a	b8 00 00 00 00	 mov	 eax, OFFSET __ehfuncinfo$?CreateCharacter@SelectCharViewWnd@@IAEXABUCHARACTER@@@Z
  0001f	e9 00 00 00 00	 jmp	 ___CxxFrameHandler3
text$x	ENDS
?CreateCharacter@SelectCharViewWnd@@IAEXABUCHARACTER@@@Z ENDP ; SelectCharViewWnd::CreateCharacter
PUBLIC	??_C@_0BM@BEELGAEJ@SelectCharViewWnd?3?3SetEquip?$AA@ ; `string'
PUBLIC	?SetEquip@SelectCharViewWnd@@QAEX_N00@Z		; SelectCharViewWnd::SetEquip
EXTRN	?GetItemConst@ioItemMaker@@QBEPBVioItem@@KABVioHashString@@@Z:PROC ; ioItemMaker::GetItemConst
EXTRN	?GetSingleton@ioItemMaker@@SAAAV1@XZ:PROC	; ioItemMaker::GetSingleton
EXTRN	?GetCharItem@ioMyInfo@@QAEABUITEM_DATA@@HH@Z:PROC ; ioMyInfo::GetCharItem
EXTRN	?IsCharExerciseStyle@ioMyInfo@@QAE_NHH@Z:PROC	; ioMyInfo::IsCharExerciseStyle
EXTRN	?GetClassArray@ioMyInfo@@QAEHH@Z:PROC		; ioMyInfo::GetClassArray
EXTRN	__imp_?IsShow@ioGUIManager@@QAE_NK@Z:PROC
;	COMDAT ??_C@_0BM@BEELGAEJ@SelectCharViewWnd?3?3SetEquip?$AA@
CONST	SEGMENT
??_C@_0BM@BEELGAEJ@SelectCharViewWnd?3?3SetEquip?$AA@ DB 'SelectCharViewW'
	DB	'nd::SetEquip', 00H				; `string'
CONST	ENDS
;	COMDAT xdata$x
xdata$x	SEGMENT
__unwindtable$?SetEquip@SelectCharViewWnd@@QAEX_N00@Z DD 0ffffffffH
	DD	FLAT:__unwindfunclet$?SetEquip@SelectCharViewWnd@@QAEX_N00@Z$0
__ehfuncinfo$?SetEquip@SelectCharViewWnd@@QAEX_N00@Z DD 019930522H
	DD	01H
	DD	FLAT:__unwindtable$?SetEquip@SelectCharViewWnd@@QAEX_N00@Z
	DD	2 DUP(00H)
	DD	2 DUP(00H)
	DD	00H
	DD	01H
; Function compile flags: /Ogsp
xdata$x	ENDS
;	COMDAT ?SetEquip@SelectCharViewWnd@@QAEX_N00@Z
_TEXT	SEGMENT
$T539139 = -52						; size = 16
_value$539161 = -36					; size = 4
_pItem$533074 = -32					; size = 4
_value$539153 = -28					; size = 4
_value$539148 = -24					; size = 4
_value$539144 = -24					; size = 4
_i$533061 = -24						; size = 4
_iArray$533060 = -20					; size = 4
tv353 = -16						; size = 4
tv341 = -16						; size = 4
tv328 = -16						; size = 4
_rkItemData$533073 = -16				; size = 4
__$EHRec$ = -12						; size = 12
_bReleaseHelm$ = 8					; size = 1
_bReleaseAll$ = 12					; size = 1
_bShopMotion$ = 16					; size = 1
?SetEquip@SelectCharViewWnd@@QAEX_N00@Z PROC		; SelectCharViewWnd::SetEquip, COMDAT
; _this$ = ecx

; 1173 : {	

  00000	6a 28		 push	 40			; 00000028H
  00002	b8 00 00 00 00	 mov	 eax, __ehhandler$?SetEquip@SelectCharViewWnd@@QAEX_N00@Z
  00007	e8 00 00 00 00	 call	 __EH_prolog3
  0000c	8b f1		 mov	 esi, ecx

; 1174 : 	for( int i = 0; i < MAX_INVENTORY; ++i )

  0000e	83 65 f0 00	 and	 DWORD PTR tv328[ebp], 0
  00012	bb a0 86 01 00	 mov	 ebx, 100000		; 000186a0H
  00017	bf 80 1a 06 00	 mov	 edi, 400000		; 00061a80H
$LL22@SetEquip:

; 1175 : 	{
; 1176 : 		int iItemCode = (DEFAULT_BASIC_ITEM_CODE * i) + m_CharInfo.m_class_type;

  0001c	8d 45 e8	 lea	 eax, DWORD PTR _value$539144[ebp]
  0001f	50		 push	 eax
  00020	8d 8e 68 01 00
	00		 lea	 ecx, DWORD PTR [esi+360]
  00026	e8 00 00 00 00	 call	 ?DecryptValueToPool@?$CEncrypt@H@@QAEXPAH@Z ; CEncrypt<int>::DecryptValueToPool
  0002b	8b 45 e8	 mov	 eax, DWORD PTR _value$539144[ebp]
  0002e	03 45 f0	 add	 eax, DWORD PTR tv328[ebp]

; 1177 : 		EquipItem( iItemCode, 0, 0 );

  00031	6a 00		 push	 0
  00033	6a 00		 push	 0
  00035	50		 push	 eax
  00036	8b ce		 mov	 ecx, esi
  00038	e8 00 00 00 00	 call	 ?EquipItem@SelectCharViewWnd@@IAEXKKK@Z ; SelectCharViewWnd::EquipItem
  0003d	01 5d f0	 add	 DWORD PTR tv328[ebp], ebx
  00040	39 7d f0	 cmp	 DWORD PTR tv328[ebp], edi
  00043	7c d7		 jl	 SHORT $LL22@SetEquip

; 1178 : 	}
; 1179 : 
; 1180 : 	if( g_GUIMgr.IsShow( MY_INVENTORY_WND ) || g_GUIMgr.IsShow( NEW_SHOP_WND ) )

  00045	68 96 17 00 00	 push	 6038			; 00001796H
  0004a	e8 00 00 00 00	 call	 ?GetSingleton@ioSP2GUIManager@@SAAAV1@XZ ; ioSP2GUIManager::GetSingleton
  0004f	8b c8		 mov	 ecx, eax
  00051	ff 15 00 00 00
	00		 call	 DWORD PTR __imp_?IsShow@ioGUIManager@@QAE_NK@Z
  00057	84 c0		 test	 al, al
  00059	75 1a		 jne	 SHORT $LN18@SetEquip
  0005b	68 f8 17 00 00	 push	 6136			; 000017f8H
  00060	e8 00 00 00 00	 call	 ?GetSingleton@ioSP2GUIManager@@SAAAV1@XZ ; ioSP2GUIManager::GetSingleton
  00065	8b c8		 mov	 ecx, eax
  00067	ff 15 00 00 00
	00		 call	 DWORD PTR __imp_?IsShow@ioGUIManager@@QAE_NK@Z
  0006d	84 c0		 test	 al, al
  0006f	0f 84 3b 01 00
	00		 je	 $LN15@SetEquip
$LN18@SetEquip:

; 1181 : 	{
; 1182 : 		int iArray = g_MyInfo.GetClassArray( m_CharInfo.m_class_type );

  00075	8d 45 e8	 lea	 eax, DWORD PTR _value$539148[ebp]
  00078	50		 push	 eax
  00079	8d 8e 68 01 00
	00		 lea	 ecx, DWORD PTR [esi+360]
  0007f	e8 00 00 00 00	 call	 ?DecryptValueToPool@?$CEncrypt@H@@QAEXPAH@Z ; CEncrypt<int>::DecryptValueToPool
  00084	ff 75 e8	 push	 DWORD PTR _value$539148[ebp]
  00087	e8 00 00 00 00	 call	 ?GetSingleton@ioMyInfo@@SAAAV1@XZ ; ioMyInfo::GetSingleton
  0008c	8b c8		 mov	 ecx, eax
  0008e	e8 00 00 00 00	 call	 ?GetClassArray@ioMyInfo@@QAEHH@Z ; ioMyInfo::GetClassArray

; 1183 : 		for( int i=0; i < MAX_INVENTORY; ++i )

  00093	83 65 e8 00	 and	 DWORD PTR _i$533061[ebp], 0
  00097	89 45 ec	 mov	 DWORD PTR _iArray$533060[ebp], eax
$LL17@SetEquip:

; 1184 : 		{
; 1185 : 			if( g_GUIMgr.IsShow( NEW_SHOP_WND ) && g_MyInfo.IsCharExerciseStyle( iArray, EXERCISE_RENTAL ) )

  0009a	68 f8 17 00 00	 push	 6136			; 000017f8H
  0009f	e8 00 00 00 00	 call	 ?GetSingleton@ioSP2GUIManager@@SAAAV1@XZ ; ioSP2GUIManager::GetSingleton
  000a4	8b c8		 mov	 ecx, eax
  000a6	ff 15 00 00 00
	00		 call	 DWORD PTR __imp_?IsShow@ioGUIManager@@QAE_NK@Z
  000ac	84 c0		 test	 al, al
  000ae	74 47		 je	 SHORT $LN14@SetEquip
  000b0	6a 04		 push	 4
  000b2	ff 75 ec	 push	 DWORD PTR _iArray$533060[ebp]
  000b5	e8 00 00 00 00	 call	 ?GetSingleton@ioMyInfo@@SAAAV1@XZ ; ioMyInfo::GetSingleton
  000ba	8b c8		 mov	 ecx, eax
  000bc	e8 00 00 00 00	 call	 ?IsCharExerciseStyle@ioMyInfo@@QAE_NHH@Z ; ioMyInfo::IsCharExerciseStyle
  000c1	84 c0		 test	 al, al
  000c3	74 32		 je	 SHORT $LN14@SetEquip

; 1186 : 			{				
; 1187 : 				for(int i = 0;i < MAX_INVENTORY;i++)

  000c5	83 65 f0 00	 and	 DWORD PTR tv341[ebp], 0
$LL13@SetEquip:

; 1188 : 				{
; 1189 : 					int iItemCode = (DEFAULT_BASIC_ITEM_CODE * i) + m_CharInfo.m_class_type;

  000c9	8d 45 e4	 lea	 eax, DWORD PTR _value$539153[ebp]
  000cc	50		 push	 eax
  000cd	8d 8e 68 01 00
	00		 lea	 ecx, DWORD PTR [esi+360]
  000d3	e8 00 00 00 00	 call	 ?DecryptValueToPool@?$CEncrypt@H@@QAEXPAH@Z ; CEncrypt<int>::DecryptValueToPool
  000d8	8b 4d f0	 mov	 ecx, DWORD PTR tv341[ebp]
  000db	03 4d e4	 add	 ecx, DWORD PTR _value$539153[ebp]

; 1190 : 					EquipItem( iItemCode, 0, 0 );

  000de	6a 00		 push	 0
  000e0	6a 00		 push	 0
  000e2	51		 push	 ecx
  000e3	8b ce		 mov	 ecx, esi
  000e5	e8 00 00 00 00	 call	 ?EquipItem@SelectCharViewWnd@@IAEXKKK@Z ; SelectCharViewWnd::EquipItem
  000ea	01 5d f0	 add	 DWORD PTR tv341[ebp], ebx
  000ed	39 7d f0	 cmp	 DWORD PTR tv341[ebp], edi
  000f0	7c d7		 jl	 SHORT $LL13@SetEquip

; 1191 : 				}
; 1192 : 			}
; 1193 : 			else if( COMPARE( iArray, 0, g_MyInfo.GetCharCount() ) )

  000f2	e9 ac 00 00 00	 jmp	 $LN16@SetEquip
$LN14@SetEquip:
  000f7	83 7d ec 00	 cmp	 DWORD PTR _iArray$533060[ebp], 0
  000fb	7c 79		 jl	 SHORT $LN9@SetEquip
  000fd	e8 00 00 00 00	 call	 ?GetSingleton@ioMyInfo@@SAAAV1@XZ ; ioMyInfo::GetSingleton
  00102	8b c8		 mov	 ecx, eax
  00104	e8 00 00 00 00	 call	 ?GetCharCount@ioMyInfo@@QBEHXZ ; ioMyInfo::GetCharCount
  00109	39 45 ec	 cmp	 DWORD PTR _iArray$533060[ebp], eax
  0010c	7d 68		 jge	 SHORT $LN9@SetEquip

; 1194 : 			{
; 1195 : 				const ITEM_DATA &rkItemData = g_MyInfo.GetCharItem( iArray, i );

  0010e	ff 75 e8	 push	 DWORD PTR _i$533061[ebp]
  00111	ff 75 ec	 push	 DWORD PTR _iArray$533060[ebp]
  00114	e8 00 00 00 00	 call	 ?GetSingleton@ioMyInfo@@SAAAV1@XZ ; ioMyInfo::GetSingleton
  00119	8b c8		 mov	 ecx, eax
  0011b	e8 00 00 00 00	 call	 ?GetCharItem@ioMyInfo@@QAEABUITEM_DATA@@HH@Z ; ioMyInfo::GetCharItem

; 1196 : 				const ioItem *pItem = g_ItemMaker.GetItemConst( rkItemData.m_item_code, __FUNCTION__ );

  00120	68 00 00 00 00	 push	 OFFSET ??_C@_0BM@BEELGAEJ@SelectCharViewWnd?3?3SetEquip?$AA@
  00125	8d 4d cc	 lea	 ecx, DWORD PTR $T539139[ebp]
  00128	89 45 f0	 mov	 DWORD PTR _rkItemData$533073[ebp], eax
  0012b	ff 15 00 00 00
	00		 call	 DWORD PTR __imp_??0ioHashString@@QAE@PBD@Z
  00131	83 65 fc 00	 and	 DWORD PTR __$EHRec$[ebp+8], 0
  00135	8d 45 cc	 lea	 eax, DWORD PTR $T539139[ebp]
  00138	50		 push	 eax
  00139	8b 45 f0	 mov	 eax, DWORD PTR _rkItemData$533073[ebp]
  0013c	ff 30		 push	 DWORD PTR [eax]
  0013e	e8 00 00 00 00	 call	 ?GetSingleton@ioItemMaker@@SAAAV1@XZ ; ioItemMaker::GetSingleton
  00143	8b c8		 mov	 ecx, eax
  00145	e8 00 00 00 00	 call	 ?GetItemConst@ioItemMaker@@QBEPBVioItem@@KABVioHashString@@@Z ; ioItemMaker::GetItemConst
  0014a	83 4d fc ff	 or	 DWORD PTR __$EHRec$[ebp+8], -1
  0014e	8d 4d cc	 lea	 ecx, DWORD PTR $T539139[ebp]
  00151	89 45 e0	 mov	 DWORD PTR _pItem$533074[ebp], eax
  00154	ff 15 00 00 00
	00		 call	 DWORD PTR __imp_??1ioHashString@@QAE@XZ

; 1197 : 				if( pItem )

  0015a	8b 4d e0	 mov	 ecx, DWORD PTR _pItem$533074[ebp]
  0015d	85 c9		 test	 ecx, ecx
  0015f	74 42		 je	 SHORT $LN16@SetEquip

; 1198 : 				{
; 1199 : 					EquipItem( pItem->GetItemCode(), rkItemData.m_item_male_custom, rkItemData.m_item_female_custom );

  00161	8b 45 f0	 mov	 eax, DWORD PTR _rkItemData$533073[ebp]
  00164	ff 70 10	 push	 DWORD PTR [eax+16]
  00167	ff 70 0c	 push	 DWORD PTR [eax+12]
  0016a	ff 71 38	 push	 DWORD PTR [ecx+56]
  0016d	8b ce		 mov	 ecx, esi
  0016f	e8 00 00 00 00	 call	 ?EquipItem@SelectCharViewWnd@@IAEXKKK@Z ; SelectCharViewWnd::EquipItem

; 1200 : 				}
; 1201 : 			}
; 1202 : 			else

  00174	eb 2d		 jmp	 SHORT $LN16@SetEquip
$LN9@SetEquip:

; 1203 : 			{				
; 1204 : 				for(int i = 0;i < MAX_INVENTORY;i++)

  00176	83 65 f0 00	 and	 DWORD PTR tv353[ebp], 0
$LL6@SetEquip:

; 1205 : 				{
; 1206 : 					int iItemCode = (DEFAULT_BASIC_ITEM_CODE * i) + m_CharInfo.m_class_type;

  0017a	8d 45 dc	 lea	 eax, DWORD PTR _value$539161[ebp]
  0017d	50		 push	 eax
  0017e	8d 8e 68 01 00
	00		 lea	 ecx, DWORD PTR [esi+360]
  00184	e8 00 00 00 00	 call	 ?DecryptValueToPool@?$CEncrypt@H@@QAEXPAH@Z ; CEncrypt<int>::DecryptValueToPool
  00189	8b 4d f0	 mov	 ecx, DWORD PTR tv353[ebp]
  0018c	03 4d dc	 add	 ecx, DWORD PTR _value$539161[ebp]

; 1207 : 					EquipItem( iItemCode, 0, 0 );

  0018f	6a 00		 push	 0
  00191	6a 00		 push	 0
  00193	51		 push	 ecx
  00194	8b ce		 mov	 ecx, esi
  00196	e8 00 00 00 00	 call	 ?EquipItem@SelectCharViewWnd@@IAEXKKK@Z ; SelectCharViewWnd::EquipItem
  0019b	01 5d f0	 add	 DWORD PTR tv353[ebp], ebx
  0019e	39 7d f0	 cmp	 DWORD PTR tv353[ebp], edi
  001a1	7c d7		 jl	 SHORT $LL6@SetEquip
$LN16@SetEquip:

; 1183 : 		for( int i=0; i < MAX_INVENTORY; ++i )

  001a3	ff 45 e8	 inc	 DWORD PTR _i$533061[ebp]
  001a6	83 7d e8 04	 cmp	 DWORD PTR _i$533061[ebp], 4
  001aa	0f 8c ea fe ff
	ff		 jl	 $LL17@SetEquip
$LN15@SetEquip:

; 1208 : 				}
; 1209 : 			}
; 1210 : 		}
; 1211 : 	}
; 1212 : 
; 1213 : 	SetCharAnimation( bShopMotion );

  001b0	8b 5d 10	 mov	 ebx, DWORD PTR _bShopMotion$[ebp]
  001b3	53		 push	 ebx
  001b4	8b ce		 mov	 ecx, esi
  001b6	e8 00 00 00 00	 call	 ?SetCharAnimation@SelectCharViewWnd@@IAEX_N@Z ; SelectCharViewWnd::SetCharAnimation

; 1214 : 
; 1215 : 	if( bReleaseAll )

  001bb	80 7d 0c 00	 cmp	 BYTE PTR _bReleaseAll$[ebp], 0
  001bf	74 41		 je	 SHORT $LN3@SetEquip

; 1216 : 	{
; 1217 : 		ReleaseItem( ioCreateChar::CCS_HELMET );

  001c1	8b 8e 64 01 00
	00		 mov	 ecx, DWORD PTR [esi+356]
  001c7	85 c9		 test	 ecx, ecx
  001c9	74 07		 je	 SHORT $LN36@SetEquip
  001cb	6a 02		 push	 2
  001cd	e8 00 00 00 00	 call	 ?ReleaseItem@ioCreateChar@@QAEXH@Z ; ioCreateChar::ReleaseItem
$LN36@SetEquip:

; 1218 : 		ReleaseItem( ioCreateChar::CCS_ARMOR );

  001d2	8b 8e 64 01 00
	00		 mov	 ecx, DWORD PTR [esi+356]
  001d8	85 c9		 test	 ecx, ecx
  001da	74 07		 je	 SHORT $LN39@SetEquip
  001dc	6a 01		 push	 1
  001de	e8 00 00 00 00	 call	 ?ReleaseItem@ioCreateChar@@QAEXH@Z ; ioCreateChar::ReleaseItem
$LN39@SetEquip:

; 1219 : 		ReleaseItem( ioCreateChar::CCS_CLOAK );

  001e3	8b 8e 64 01 00
	00		 mov	 ecx, DWORD PTR [esi+356]
  001e9	85 c9		 test	 ecx, ecx
  001eb	74 07		 je	 SHORT $LN42@SetEquip
  001ed	6a 03		 push	 3
  001ef	e8 00 00 00 00	 call	 ?ReleaseItem@ioCreateChar@@QAEXH@Z ; ioCreateChar::ReleaseItem
$LN42@SetEquip:

; 1220 : 		ReleaseItem( ioCreateChar::CCS_WEAPON );

  001f4	8b 8e 64 01 00
	00		 mov	 ecx, DWORD PTR [esi+356]
  001fa	85 c9		 test	 ecx, ecx
  001fc	74 1b		 je	 SHORT $LN48@SetEquip
  001fe	6a 00		 push	 0
  00200	eb 12		 jmp	 SHORT $LN62@SetEquip
$LN3@SetEquip:

; 1221 : 	}
; 1222 : 	else if( bReleaseHelm )

  00202	80 7d 08 00	 cmp	 BYTE PTR _bReleaseHelm$[ebp], 0
  00206	74 11		 je	 SHORT $LN48@SetEquip

; 1223 : 	{
; 1224 : 		ReleaseItem( ioCreateChar::CCS_HELMET );

  00208	8b 8e 64 01 00
	00		 mov	 ecx, DWORD PTR [esi+356]
  0020e	85 c9		 test	 ecx, ecx
  00210	74 07		 je	 SHORT $LN48@SetEquip
  00212	6a 02		 push	 2
$LN62@SetEquip:
  00214	e8 00 00 00 00	 call	 ?ReleaseItem@ioCreateChar@@QAEXH@Z ; ioCreateChar::ReleaseItem
$LN48@SetEquip:

; 1225 : 	}
; 1226 : 
; 1227 : 	m_bReleaseHelm    = bReleaseHelm;

  00219	8a 45 08	 mov	 al, BYTE PTR _bReleaseHelm$[ebp]
  0021c	88 86 a0 04 00
	00		 mov	 BYTE PTR [esi+1184], al

; 1228 : 	m_bReleaseAllItem = bReleaseAll;

  00222	8a 45 0c	 mov	 al, BYTE PTR _bReleaseAll$[ebp]
  00225	88 86 a1 04 00
	00		 mov	 BYTE PTR [esi+1185], al

; 1229 : 	m_bShopMotion     = bShopMotion;

  0022b	88 9e a2 04 00
	00		 mov	 BYTE PTR [esi+1186], bl

; 1230 : }

  00231	e8 00 00 00 00	 call	 __EH_epilog3
  00236	c2 0c 00	 ret	 12			; 0000000cH
_TEXT	ENDS
;	COMDAT text$x
text$x	SEGMENT
__unwindfunclet$?SetEquip@SelectCharViewWnd@@QAEX_N00@Z$0:
  00000	8d 4d cc	 lea	 ecx, DWORD PTR $T539139[ebp]
  00003	ff 25 00 00 00
	00		 jmp	 DWORD PTR __imp_??1ioHashString@@QAE@XZ
__ehhandler$?SetEquip@SelectCharViewWnd@@QAEX_N00@Z:
  00009	8b 54 24 08	 mov	 edx, DWORD PTR [esp+8]
  0000d	8d 42 0c	 lea	 eax, DWORD PTR [edx+12]
  00010	8b 4a c8	 mov	 ecx, DWORD PTR [edx-56]
  00013	33 c8		 xor	 ecx, eax
  00015	e8 00 00 00 00	 call	 @__security_check_cookie@4
  0001a	b8 00 00 00 00	 mov	 eax, OFFSET __ehfuncinfo$?SetEquip@SelectCharViewWnd@@QAEX_N00@Z
  0001f	e9 00 00 00 00	 jmp	 ___CxxFrameHandler3
text$x	ENDS
?SetEquip@SelectCharViewWnd@@QAEX_N00@Z ENDP		; SelectCharViewWnd::SetEquip
PUBLIC	__$ArrayPad$
EXTRN	?SetToolTipID@ioLSMouse@@QAEXABVioHashString@@H@Z:PROC ; ioLSMouse::SetToolTipID
EXTRN	__imp_?ShowChildWnd@ioWnd@@QAEXK_N@Z:PROC
EXTRN	__imp__PtInRect@12:PROC
EXTRN	__imp_?GetMousePos@ioMouse@@QBEABUtagPOINT@@XZ:PROC
EXTRN	__imp_?GetHeight@ioWnd@@QBEHXZ:PROC
EXTRN	__imp_?GetWidth@ioWnd@@QBEHXZ:PROC
EXTRN	?GetSingleton@ioApplication@@SAAAV1@XZ:PROC	; ioApplication::GetSingleton
EXTRN	?Update@ioCreateChar@@QAEXM@Z:PROC		; ioCreateChar::Update
EXTRN	?RotateY@ioCreateChar@@QAEXM@Z:PROC		; ioCreateChar::RotateY
; Function compile flags: /Ogsp
;	COMDAT ?OnProcess@SelectCharViewWnd@@UAEXM@Z
_TEXT	SEGMENT
_value$539219 = -24					; size = 4
_pMouse$ = -24						; size = 4
_rcNameRect$ = -20					; size = 16
__$ArrayPad$ = -4					; size = 4
_fTimePerSec$ = 8					; size = 4
?OnProcess@SelectCharViewWnd@@UAEXM@Z PROC		; SelectCharViewWnd::OnProcess, COMDAT
; _this$ = ecx

; 1279 : {

  00000	55		 push	 ebp
  00001	8b ec		 mov	 ebp, esp
  00003	83 ec 18	 sub	 esp, 24			; 00000018H
  00006	a1 00 00 00 00	 mov	 eax, DWORD PTR ___security_cookie
  0000b	33 c5		 xor	 eax, ebp
  0000d	89 45 fc	 mov	 DWORD PTR __$ArrayPad$[ebp], eax
  00010	56		 push	 esi
  00011	8b f1		 mov	 esi, ecx

; 1280 : 	if( !IsShow() )

  00013	ff 15 00 00 00
	00		 call	 DWORD PTR __imp_?IsShow@ioWnd@@QBE_NXZ
  00019	84 c0		 test	 al, al
  0001b	0f 84 1c 01 00
	00		 je	 $LN1@OnProcess@2

; 1281 : 		return;
; 1282 : 
; 1283 : 	if( m_aMyChar )

  00021	8b 8e 64 01 00
	00		 mov	 ecx, DWORD PTR [esi+356]
  00027	85 c9		 test	 ecx, ecx
  00029	74 29		 je	 SHORT $LN8@OnProcess@2

; 1284 : 	{
; 1285 : 		m_aMyChar->RotateY( m_fRotateYaw );

  0002b	f3 0f 10 86 94
	04 00 00	 movss	 xmm0, DWORD PTR [esi+1172]
  00033	51		 push	 ecx
  00034	f3 0f 11 04 24	 movss	 DWORD PTR [esp], xmm0
  00039	e8 00 00 00 00	 call	 ?RotateY@ioCreateChar@@QAEXM@Z ; ioCreateChar::RotateY

; 1286 : 		m_aMyChar->Update( fTimePerSec );

  0003e	f3 0f 10 45 08	 movss	 xmm0, DWORD PTR _fTimePerSec$[ebp]
  00043	51		 push	 ecx
  00044	8b 8e 64 01 00
	00		 mov	 ecx, DWORD PTR [esi+356]
  0004a	f3 0f 11 04 24	 movss	 DWORD PTR [esp], xmm0
  0004f	e8 00 00 00 00	 call	 ?Update@ioCreateChar@@QAEXM@Z ; ioCreateChar::Update
$LN8@OnProcess@2:

; 1287 : 	}
; 1288 : 
; 1289 : 	ioLSMouse *pMouse = g_App.GetMouse();

  00054	57		 push	 edi
  00055	e8 00 00 00 00	 call	 ?GetSingleton@ioApplication@@SAAAV1@XZ ; ioApplication::GetSingleton
  0005a	8b f8		 mov	 edi, eax
  0005c	81 c7 90 00 00
	00		 add	 edi, 144		; 00000090H
  00062	89 7d e8	 mov	 DWORD PTR _pMouse$[ebp], edi

; 1290 : 	if( !pMouse )

  00065	0f 84 d1 00 00
	00		 je	 $LN22@OnProcess@2

; 1291 : 		return;
; 1292 : 
; 1293 : 	RECT rcNameRect;
; 1294 : 	rcNameRect.left = GetDerivedPosX();

  0006b	8b ce		 mov	 ecx, esi
  0006d	ff 15 00 00 00
	00		 call	 DWORD PTR __imp_?GetDerivedPosX@ioWnd@@QBEHXZ

; 1295 : 	rcNameRect.top  = GetDerivedPosY();

  00073	8b ce		 mov	 ecx, esi
  00075	89 45 ec	 mov	 DWORD PTR _rcNameRect$[ebp], eax
  00078	ff 15 00 00 00
	00		 call	 DWORD PTR __imp_?GetDerivedPosY@ioWnd@@QBEHXZ

; 1296 : 	rcNameRect.right  = rcNameRect.left + GetWidth();

  0007e	8b ce		 mov	 ecx, esi
  00080	89 45 f0	 mov	 DWORD PTR _rcNameRect$[ebp+4], eax
  00083	ff 15 00 00 00
	00		 call	 DWORD PTR __imp_?GetWidth@ioWnd@@QBEHXZ
  00089	03 45 ec	 add	 eax, DWORD PTR _rcNameRect$[ebp]

; 1297 : 	rcNameRect.bottom = rcNameRect.top + GetHeight();

  0008c	8b ce		 mov	 ecx, esi
  0008e	89 45 f4	 mov	 DWORD PTR _rcNameRect$[ebp+8], eax
  00091	ff 15 00 00 00
	00		 call	 DWORD PTR __imp_?GetHeight@ioWnd@@QBEHXZ
  00097	03 45 f0	 add	 eax, DWORD PTR _rcNameRect$[ebp+4]

; 1298 : 
; 1299 : 	if( ::PtInRect( &rcNameRect, pMouse->GetMousePos() ) )

  0009a	8b cf		 mov	 ecx, edi
  0009c	89 45 f8	 mov	 DWORD PTR _rcNameRect$[ebp+12], eax
  0009f	ff 15 00 00 00
	00		 call	 DWORD PTR __imp_?GetMousePos@ioMouse@@QBEABUtagPOINT@@XZ
  000a5	ff 70 04	 push	 DWORD PTR [eax+4]
  000a8	ff 30		 push	 DWORD PTR [eax]
  000aa	8d 45 ec	 lea	 eax, DWORD PTR _rcNameRect$[ebp]
  000ad	50		 push	 eax
  000ae	ff 15 00 00 00
	00		 call	 DWORD PTR __imp__PtInRect@12

; 1300 : 	{
; 1301 : 		ShowChildWnd( ID_CHAR_CONTROL_WND );

  000b4	6a 00		 push	 0
  000b6	8b ce		 mov	 ecx, esi
  000b8	85 c0		 test	 eax, eax
  000ba	74 58		 je	 SHORT $LN6@OnProcess@2
  000bc	6a 01		 push	 1
  000be	ff 15 00 00 00
	00		 call	 DWORD PTR __imp_?ShowChildWnd@ioWnd@@QAEXK_N@Z

; 1302 : 
; 1303 : 		if( m_bUserInfoToolTip )

  000c4	80 be a3 04 00
	00 00		 cmp	 BYTE PTR [esi+1187], 0
  000cb	74 6f		 je	 SHORT $LN22@OnProcess@2

; 1304 : 		{
; 1305 : 			if( g_GUIMgr.GetPreOverWnd() == this || g_GUIMgr.GetPreOverWnd() == FindChildWnd( ID_CHAR_CONTROL_WND ) )

  000cd	e8 00 00 00 00	 call	 ?GetSingleton@ioSP2GUIManager@@SAAAV1@XZ ; ioSP2GUIManager::GetSingleton
  000d2	39 70 10	 cmp	 DWORD PTR [eax+16], esi
  000d5	74 19		 je	 SHORT $LN3@OnProcess@2
  000d7	e8 00 00 00 00	 call	 ?GetSingleton@ioSP2GUIManager@@SAAAV1@XZ ; ioSP2GUIManager::GetSingleton
  000dc	8b 78 10	 mov	 edi, DWORD PTR [eax+16]
  000df	6a 01		 push	 1
  000e1	8b ce		 mov	 ecx, esi
  000e3	ff 15 00 00 00
	00		 call	 DWORD PTR __imp_?FindChildWnd@ioWnd@@QAEPAV1@K@Z
  000e9	3b f8		 cmp	 edi, eax
  000eb	75 4f		 jne	 SHORT $LN22@OnProcess@2
  000ed	8b 7d e8	 mov	 edi, DWORD PTR _pMouse$[ebp]
$LN3@OnProcess@2:

; 1306 : 				pMouse->SetToolTipID( g_MyInfo.GetPublicID(), m_CharInfo.m_class_type );

  000f0	8d 45 e8	 lea	 eax, DWORD PTR _value$539219[ebp]
  000f3	50		 push	 eax
  000f4	8d 8e 68 01 00
	00		 lea	 ecx, DWORD PTR [esi+360]
  000fa	e8 00 00 00 00	 call	 ?DecryptValueToPool@?$CEncrypt@H@@QAEXPAH@Z ; CEncrypt<int>::DecryptValueToPool
  000ff	e8 00 00 00 00	 call	 ?GetSingleton@ioMyInfo@@SAAAV1@XZ ; ioMyInfo::GetSingleton
  00104	ff 75 e8	 push	 DWORD PTR _value$539219[ebp]
  00107	83 c0 1c	 add	 eax, 28			; 0000001cH
  0010a	50		 push	 eax
  0010b	8b cf		 mov	 ecx, edi
  0010d	e8 00 00 00 00	 call	 ?SetToolTipID@ioLSMouse@@QAEXABVioHashString@@H@Z ; ioLSMouse::SetToolTipID

; 1307 : 		}
; 1308 : 	}
; 1309 : 	else

  00112	eb 28		 jmp	 SHORT $LN22@OnProcess@2
$LN6@OnProcess@2:

; 1310 : 	{
; 1311 : 		SelectCharControlWnd *pControlWnd = dynamic_cast<SelectCharControlWnd*> (FindChildWnd( ID_CHAR_CONTROL_WND ) );

  00114	68 00 00 00 00	 push	 OFFSET ??_R0?AVSelectCharControlWnd@@@8
  00119	68 00 00 00 00	 push	 OFFSET ??_R0?AVioWnd@@@8
  0011e	6a 00		 push	 0
  00120	6a 01		 push	 1
  00122	ff 15 00 00 00
	00		 call	 DWORD PTR __imp_?FindChildWnd@ioWnd@@QAEPAV1@K@Z
  00128	50		 push	 eax
  00129	e8 00 00 00 00	 call	 ___RTDynamicCast
  0012e	83 c4 14	 add	 esp, 20			; 00000014H

; 1312 : 		if( pControlWnd )

  00131	85 c0		 test	 eax, eax
  00133	74 07		 je	 SHORT $LN22@OnProcess@2

; 1313 : 			pControlWnd->HideWndAnimation();

  00135	8b c8		 mov	 ecx, eax
  00137	e8 00 00 00 00	 call	 ?HideWndAnimation@SelectCharControlWnd@@QAEXXZ ; SelectCharControlWnd::HideWndAnimation
$LN22@OnProcess@2:
  0013c	5f		 pop	 edi
$LN1@OnProcess@2:

; 1314 : 	}
; 1315 : }

  0013d	8b 4d fc	 mov	 ecx, DWORD PTR __$ArrayPad$[ebp]
  00140	33 cd		 xor	 ecx, ebp
  00142	5e		 pop	 esi
  00143	e8 00 00 00 00	 call	 @__security_check_cookie@4
  00148	c9		 leave
  00149	c2 04 00	 ret	 4
?OnProcess@SelectCharViewWnd@@UAEXM@Z ENDP		; SelectCharViewWnd::OnProcess
_TEXT	ENDS
PUBLIC	??0?$vector@UPCRoomSoldierSelect@ExPCRoomSoldierBonusWnd@@V?$allocator@UPCRoomSoldierSelect@ExPCRoomSoldierBonusWnd@@@std@@@std@@QAE@XZ ; std::vector<ExPCRoomSoldierBonusWnd::PCRoomSoldierSelect,std::allocator<ExPCRoomSoldierBonusWnd::PCRoomSoldierSelect> >::vector<ExPCRoomSoldierBonusWnd::PCRoomSoldierSelect,std::allocator<ExPCRoomSoldierBonusWnd::PCRoomSoldierSelect> >
; Function compile flags: /Ogsp
; File c:\program files (x86)\microsoft visual studio 10.0\vc\include\vector
;	COMDAT ??0?$vector@UPCRoomSoldierSelect@ExPCRoomSoldierBonusWnd@@V?$allocator@UPCRoomSoldierSelect@ExPCRoomSoldierBonusWnd@@@std@@@std@@QAE@XZ
_TEXT	SEGMENT
??0?$vector@UPCRoomSoldierSelect@ExPCRoomSoldierBonusWnd@@V?$allocator@UPCRoomSoldierSelect@ExPCRoomSoldierBonusWnd@@@std@@@std@@QAE@XZ PROC ; std::vector<ExPCRoomSoldierBonusWnd::PCRoomSoldierSelect,std::allocator<ExPCRoomSoldierBonusWnd::PCRoomSoldierSelect> >::vector<ExPCRoomSoldierBonusWnd::PCRoomSoldierSelect,std::allocator<ExPCRoomSoldierBonusWnd::PCRoomSoldierSelect> >, COMDAT
; _this$ = ecx

; 507  : 		{	// construct empty vector

  00000	8b c1		 mov	 eax, ecx
  00002	33 c9		 xor	 ecx, ecx
  00004	89 08		 mov	 DWORD PTR [eax], ecx
  00006	89 48 04	 mov	 DWORD PTR [eax+4], ecx
  00009	89 48 08	 mov	 DWORD PTR [eax+8], ecx

; 508  : 		}

  0000c	c3		 ret	 0
??0?$vector@UPCRoomSoldierSelect@ExPCRoomSoldierBonusWnd@@V?$allocator@UPCRoomSoldierSelect@ExPCRoomSoldierBonusWnd@@@std@@@std@@QAE@XZ ENDP ; std::vector<ExPCRoomSoldierBonusWnd::PCRoomSoldierSelect,std::allocator<ExPCRoomSoldierBonusWnd::PCRoomSoldierSelect> >::vector<ExPCRoomSoldierBonusWnd::PCRoomSoldierSelect,std::allocator<ExPCRoomSoldierBonusWnd::PCRoomSoldierSelect> >
_TEXT	ENDS
PUBLIC	?begin@?$vector@UPCRoomSoldierSelect@ExPCRoomSoldierBonusWnd@@V?$allocator@UPCRoomSoldierSelect@ExPCRoomSoldierBonusWnd@@@std@@@std@@QAE?AV?$_Vector_iterator@V?$_Vector_val@UPCRoomSoldierSelect@ExPCRoomSoldierBonusWnd@@V?$allocator@UPCRoomSoldierSelect@ExPCRoomSoldierBonusWnd@@@std@@@std@@@2@XZ ; std::vector<ExPCRoomSoldierBonusWnd::PCRoomSoldierSelect,std::allocator<ExPCRoomSoldierBonusWnd::PCRoomSoldierSelect> >::begin
; Function compile flags: /Ogsp
;	COMDAT ?begin@?$vector@UPCRoomSoldierSelect@ExPCRoomSoldierBonusWnd@@V?$allocator@UPCRoomSoldierSelect@ExPCRoomSoldierBonusWnd@@@std@@@std@@QAE?AV?$_Vector_iterator@V?$_Vector_val@UPCRoomSoldierSelect@ExPCRoomSoldierBonusWnd@@V?$allocator@UPCRoomSoldierSelect@ExPCRoomSoldierBonusWnd@@@std@@@std@@@2@XZ
_TEXT	SEGMENT
___$ReturnUdt$ = 8					; size = 4
?begin@?$vector@UPCRoomSoldierSelect@ExPCRoomSoldierBonusWnd@@V?$allocator@UPCRoomSoldierSelect@ExPCRoomSoldierBonusWnd@@@std@@@std@@QAE?AV?$_Vector_iterator@V?$_Vector_val@UPCRoomSoldierSelect@ExPCRoomSoldierBonusWnd@@V?$allocator@UPCRoomSoldierSelect@ExPCRoomSoldierBonusWnd@@@std@@@std@@@2@XZ PROC ; std::vector<ExPCRoomSoldierBonusWnd::PCRoomSoldierSelect,std::allocator<ExPCRoomSoldierBonusWnd::PCRoomSoldierSelect> >::begin, COMDAT
; _this$ = ecx

; 781  : 		{	// return iterator for beginning of mutable sequence

  00000	55		 push	 ebp
  00001	8b ec		 mov	 ebp, esp

; 782  : 		return (iterator(this->_Myfirst, this));

  00003	8b 09		 mov	 ecx, DWORD PTR [ecx]
  00005	8b 45 08	 mov	 eax, DWORD PTR ___$ReturnUdt$[ebp]
  00008	89 08		 mov	 DWORD PTR [eax], ecx

; 783  : 		}

  0000a	5d		 pop	 ebp
  0000b	c2 04 00	 ret	 4
?begin@?$vector@UPCRoomSoldierSelect@ExPCRoomSoldierBonusWnd@@V?$allocator@UPCRoomSoldierSelect@ExPCRoomSoldierBonusWnd@@@std@@@std@@QAE?AV?$_Vector_iterator@V?$_Vector_val@UPCRoomSoldierSelect@ExPCRoomSoldierBonusWnd@@V?$allocator@UPCRoomSoldierSelect@ExPCRoomSoldierBonusWnd@@@std@@@std@@@2@XZ ENDP ; std::vector<ExPCRoomSoldierBonusWnd::PCRoomSoldierSelect,std::allocator<ExPCRoomSoldierBonusWnd::PCRoomSoldierSelect> >::begin
_TEXT	ENDS
PUBLIC	?end@?$vector@UPCRoomSoldierSelect@ExPCRoomSoldierBonusWnd@@V?$allocator@UPCRoomSoldierSelect@ExPCRoomSoldierBonusWnd@@@std@@@std@@QAE?AV?$_Vector_iterator@V?$_Vector_val@UPCRoomSoldierSelect@ExPCRoomSoldierBonusWnd@@V?$allocator@UPCRoomSoldierSelect@ExPCRoomSoldierBonusWnd@@@std@@@std@@@2@XZ ; std::vector<ExPCRoomSoldierBonusWnd::PCRoomSoldierSelect,std::allocator<ExPCRoomSoldierBonusWnd::PCRoomSoldierSelect> >::end
; Function compile flags: /Ogsp
;	COMDAT ?end@?$vector@UPCRoomSoldierSelect@ExPCRoomSoldierBonusWnd@@V?$allocator@UPCRoomSoldierSelect@ExPCRoomSoldierBonusWnd@@@std@@@std@@QAE?AV?$_Vector_iterator@V?$_Vector_val@UPCRoomSoldierSelect@ExPCRoomSoldierBonusWnd@@V?$allocator@UPCRoomSoldierSelect@ExPCRoomSoldierBonusWnd@@@std@@@std@@@2@XZ
_TEXT	SEGMENT
___$ReturnUdt$ = 8					; size = 4
?end@?$vector@UPCRoomSoldierSelect@ExPCRoomSoldierBonusWnd@@V?$allocator@UPCRoomSoldierSelect@ExPCRoomSoldierBonusWnd@@@std@@@std@@QAE?AV?$_Vector_iterator@V?$_Vector_val@UPCRoomSoldierSelect@ExPCRoomSoldierBonusWnd@@V?$allocator@UPCRoomSoldierSelect@ExPCRoomSoldierBonusWnd@@@std@@@std@@@2@XZ PROC ; std::vector<ExPCRoomSoldierBonusWnd::PCRoomSoldierSelect,std::allocator<ExPCRoomSoldierBonusWnd::PCRoomSoldierSelect> >::end, COMDAT
; _this$ = ecx

; 791  : 		{	// return iterator for end of mutable sequence

  00000	55		 push	 ebp
  00001	8b ec		 mov	 ebp, esp

; 792  : 		return (iterator(this->_Mylast, this));

  00003	8b 49 04	 mov	 ecx, DWORD PTR [ecx+4]
  00006	8b 45 08	 mov	 eax, DWORD PTR ___$ReturnUdt$[ebp]
  00009	89 08		 mov	 DWORD PTR [eax], ecx

; 793  : 		}

  0000b	5d		 pop	 ebp
  0000c	c2 04 00	 ret	 4
?end@?$vector@UPCRoomSoldierSelect@ExPCRoomSoldierBonusWnd@@V?$allocator@UPCRoomSoldierSelect@ExPCRoomSoldierBonusWnd@@@std@@@std@@QAE?AV?$_Vector_iterator@V?$_Vector_val@UPCRoomSoldierSelect@ExPCRoomSoldierBonusWnd@@V?$allocator@UPCRoomSoldierSelect@ExPCRoomSoldierBonusWnd@@@std@@@std@@@2@XZ ENDP ; std::vector<ExPCRoomSoldierBonusWnd::PCRoomSoldierSelect,std::allocator<ExPCRoomSoldierBonusWnd::PCRoomSoldierSelect> >::end
_TEXT	ENDS
PUBLIC	??9?$_Vector_const_iterator@V?$_Vector_val@UPCRoomSoldierSelect@ExPCRoomSoldierBonusWnd@@V?$allocator@UPCRoomSoldierSelect@ExPCRoomSoldierBonusWnd@@@std@@@std@@@std@@QBE_NABV01@@Z ; std::_Vector_const_iterator<std::_Vector_val<ExPCRoomSoldierBonusWnd::PCRoomSoldierSelect,std::allocator<ExPCRoomSoldierBonusWnd::PCRoomSoldierSelect> > >::operator!=
; Function compile flags: /Ogsp
;	COMDAT ??9?$_Vector_const_iterator@V?$_Vector_val@UPCRoomSoldierSelect@ExPCRoomSoldierBonusWnd@@V?$allocator@UPCRoomSoldierSelect@ExPCRoomSoldierBonusWnd@@@std@@@std@@@std@@QBE_NABV01@@Z
_TEXT	SEGMENT
__Right$ = 8						; size = 4
??9?$_Vector_const_iterator@V?$_Vector_val@UPCRoomSoldierSelect@ExPCRoomSoldierBonusWnd@@V?$allocator@UPCRoomSoldierSelect@ExPCRoomSoldierBonusWnd@@@std@@@std@@@std@@QBE_NABV01@@Z PROC ; std::_Vector_const_iterator<std::_Vector_val<ExPCRoomSoldierBonusWnd::PCRoomSoldierSelect,std::allocator<ExPCRoomSoldierBonusWnd::PCRoomSoldierSelect> > >::operator!=, COMDAT
; _this$ = ecx

; 207  : 		{	// test for iterator inequality

  00000	55		 push	 ebp
  00001	8b ec		 mov	 ebp, esp

; 208  : 		return (!(*this == _Right));

  00003	8b 01		 mov	 eax, DWORD PTR [ecx]
  00005	8b 55 08	 mov	 edx, DWORD PTR __Right$[ebp]
  00008	33 c9		 xor	 ecx, ecx
  0000a	3b 02		 cmp	 eax, DWORD PTR [edx]
  0000c	0f 95 c0	 setne	 al

; 209  : 		}

  0000f	5d		 pop	 ebp
  00010	c2 04 00	 ret	 4
??9?$_Vector_const_iterator@V?$_Vector_val@UPCRoomSoldierSelect@ExPCRoomSoldierBonusWnd@@V?$allocator@UPCRoomSoldierSelect@ExPCRoomSoldierBonusWnd@@@std@@@std@@@std@@QBE_NABV01@@Z ENDP ; std::_Vector_const_iterator<std::_Vector_val<ExPCRoomSoldierBonusWnd::PCRoomSoldierSelect,std::allocator<ExPCRoomSoldierBonusWnd::PCRoomSoldierSelect> > >::operator!=
_TEXT	ENDS
PUBLIC	?_Make_iter@?$vector@UPCRoomSoldierSelect@ExPCRoomSoldierBonusWnd@@V?$allocator@UPCRoomSoldierSelect@ExPCRoomSoldierBonusWnd@@@std@@@std@@QBE?AV?$_Vector_iterator@V?$_Vector_val@UPCRoomSoldierSelect@ExPCRoomSoldierBonusWnd@@V?$allocator@UPCRoomSoldierSelect@ExPCRoomSoldierBonusWnd@@@std@@@std@@@2@V?$_Vector_const_iterator@V?$_Vector_val@UPCRoomSoldierSelect@ExPCRoomSoldierBonusWnd@@V?$allocator@UPCRoomSoldierSelect@ExPCRoomSoldierBonusWnd@@@std@@@std@@@2@@Z ; std::vector<ExPCRoomSoldierBonusWnd::PCRoomSoldierSelect,std::allocator<ExPCRoomSoldierBonusWnd::PCRoomSoldierSelect> >::_Make_iter
; Function compile flags: /Ogsp
;	COMDAT ?_Make_iter@?$vector@UPCRoomSoldierSelect@ExPCRoomSoldierBonusWnd@@V?$allocator@UPCRoomSoldierSelect@ExPCRoomSoldierBonusWnd@@@std@@@std@@QBE?AV?$_Vector_iterator@V?$_Vector_val@UPCRoomSoldierSelect@ExPCRoomSoldierBonusWnd@@V?$allocator@UPCRoomSoldierSelect@ExPCRoomSoldierBonusWnd@@@std@@@std@@@2@V?$_Vector_const_iterator@V?$_Vector_val@UPCRoomSoldierSelect@ExPCRoomSoldierBonusWnd@@V?$allocator@UPCRoomSoldierSelect@ExPCRoomSoldierBonusWnd@@@std@@@std@@@2@@Z
_TEXT	SEGMENT
___$ReturnUdt$ = 8					; size = 4
__Where$ = 12						; size = 4
?_Make_iter@?$vector@UPCRoomSoldierSelect@ExPCRoomSoldierBonusWnd@@V?$allocator@UPCRoomSoldierSelect@ExPCRoomSoldierBonusWnd@@@std@@@std@@QBE?AV?$_Vector_iterator@V?$_Vector_val@UPCRoomSoldierSelect@ExPCRoomSoldierBonusWnd@@V?$allocator@UPCRoomSoldierSelect@ExPCRoomSoldierBonusWnd@@@std@@@std@@@2@V?$_Vector_const_iterator@V?$_Vector_val@UPCRoomSoldierSelect@ExPCRoomSoldierBonusWnd@@V?$allocator@UPCRoomSoldierSelect@ExPCRoomSoldierBonusWnd@@@std@@@std@@@2@@Z PROC ; std::vector<ExPCRoomSoldierBonusWnd::PCRoomSoldierSelect,std::allocator<ExPCRoomSoldierBonusWnd::PCRoomSoldierSelect> >::_Make_iter, COMDAT
; _this$ = ecx

; 801  : 		{	// make iterator from const_iterator

  00000	55		 push	 ebp
  00001	8b ec		 mov	 ebp, esp

; 802  : 		return (iterator(_Where._Ptr, this));

  00003	8b 45 08	 mov	 eax, DWORD PTR ___$ReturnUdt$[ebp]
  00006	8b 4d 0c	 mov	 ecx, DWORD PTR __Where$[ebp]
  00009	89 08		 mov	 DWORD PTR [eax], ecx

; 803  : 		}

  0000b	5d		 pop	 ebp
  0000c	c2 08 00	 ret	 8
?_Make_iter@?$vector@UPCRoomSoldierSelect@ExPCRoomSoldierBonusWnd@@V?$allocator@UPCRoomSoldierSelect@ExPCRoomSoldierBonusWnd@@@std@@@std@@QBE?AV?$_Vector_iterator@V?$_Vector_val@UPCRoomSoldierSelect@ExPCRoomSoldierBonusWnd@@V?$allocator@UPCRoomSoldierSelect@ExPCRoomSoldierBonusWnd@@@std@@@std@@@2@V?$_Vector_const_iterator@V?$_Vector_val@UPCRoomSoldierSelect@ExPCRoomSoldierBonusWnd@@V?$allocator@UPCRoomSoldierSelect@ExPCRoomSoldierBonusWnd@@@std@@@std@@@2@@Z ENDP ; std::vector<ExPCRoomSoldierBonusWnd::PCRoomSoldierSelect,std::allocator<ExPCRoomSoldierBonusWnd::PCRoomSoldierSelect> >::_Make_iter
_TEXT	ENDS
PUBLIC	??$_Cons_val@V?$allocator@UPCRoomSoldierSelect@ExPCRoomSoldierBonusWnd@@@std@@UPCRoomSoldierSelect@ExPCRoomSoldierBonusWnd@@ABU34@@std@@YAXAAV?$allocator@UPCRoomSoldierSelect@ExPCRoomSoldierBonusWnd@@@0@PAUPCRoomSoldierSelect@ExPCRoomSoldierBonusWnd@@ABU23@@Z ; std::_Cons_val<std::allocator<ExPCRoomSoldierBonusWnd::PCRoomSoldierSelect>,ExPCRoomSoldierBonusWnd::PCRoomSoldierSelect,ExPCRoomSoldierBonusWnd::PCRoomSoldierSelect const &>
; Function compile flags: /Ogsp
; File c:\program files (x86)\microsoft visual studio 10.0\vc\include\xmemory
;	COMDAT ??$_Cons_val@V?$allocator@UPCRoomSoldierSelect@ExPCRoomSoldierBonusWnd@@@std@@UPCRoomSoldierSelect@ExPCRoomSoldierBonusWnd@@ABU34@@std@@YAXAAV?$allocator@UPCRoomSoldierSelect@ExPCRoomSoldierBonusWnd@@@0@PAUPCRoomSoldierSelect@ExPCRoomSoldierBonusWnd@@ABU23@@Z
_TEXT	SEGMENT
__Alval$ = 8						; size = 4
__Pdest$ = 12						; size = 4
__Src$ = 16						; size = 4
??$_Cons_val@V?$allocator@UPCRoomSoldierSelect@ExPCRoomSoldierBonusWnd@@@std@@UPCRoomSoldierSelect@ExPCRoomSoldierBonusWnd@@ABU34@@std@@YAXAAV?$allocator@UPCRoomSoldierSelect@ExPCRoomSoldierBonusWnd@@@0@PAUPCRoomSoldierSelect@ExPCRoomSoldierBonusWnd@@ABU23@@Z PROC ; std::_Cons_val<std::allocator<ExPCRoomSoldierBonusWnd::PCRoomSoldierSelect>,ExPCRoomSoldierBonusWnd::PCRoomSoldierSelect,ExPCRoomSoldierBonusWnd::PCRoomSoldierSelect const &>, COMDAT

; 279  : 	{	// construct using allocator

  00000	55		 push	 ebp
  00001	8b ec		 mov	 ebp, esp

; 280  : 	_Alval.construct(_Pdest, _STD forward<_Ty2>(_Src));

  00003	8b 45 0c	 mov	 eax, DWORD PTR __Pdest$[ebp]
  00006	85 c0		 test	 eax, eax
  00008	74 0d		 je	 SHORT $LN9@Cons_val@2
  0000a	8b 4d 10	 mov	 ecx, DWORD PTR __Src$[ebp]
  0000d	8b 11		 mov	 edx, DWORD PTR [ecx]
  0000f	89 10		 mov	 DWORD PTR [eax], edx
  00011	8b 49 04	 mov	 ecx, DWORD PTR [ecx+4]
  00014	89 48 04	 mov	 DWORD PTR [eax+4], ecx
$LN9@Cons_val@2:

; 281  : 	}

  00017	5d		 pop	 ebp
  00018	c3		 ret	 0
??$_Cons_val@V?$allocator@UPCRoomSoldierSelect@ExPCRoomSoldierBonusWnd@@@std@@UPCRoomSoldierSelect@ExPCRoomSoldierBonusWnd@@ABU34@@std@@YAXAAV?$allocator@UPCRoomSoldierSelect@ExPCRoomSoldierBonusWnd@@@0@PAUPCRoomSoldierSelect@ExPCRoomSoldierBonusWnd@@ABU23@@Z ENDP ; std::_Cons_val<std::allocator<ExPCRoomSoldierBonusWnd::PCRoomSoldierSelect>,ExPCRoomSoldierBonusWnd::PCRoomSoldierSelect,ExPCRoomSoldierBonusWnd::PCRoomSoldierSelect const &>
_TEXT	ENDS
PUBLIC	??$_Dest_val@V?$allocator@UPCRoomSoldierSelect@ExPCRoomSoldierBonusWnd@@@std@@UPCRoomSoldierSelect@ExPCRoomSoldierBonusWnd@@@std@@YAXAAV?$allocator@UPCRoomSoldierSelect@ExPCRoomSoldierBonusWnd@@@0@PAUPCRoomSoldierSelect@ExPCRoomSoldierBonusWnd@@@Z ; std::_Dest_val<std::allocator<ExPCRoomSoldierBonusWnd::PCRoomSoldierSelect>,ExPCRoomSoldierBonusWnd::PCRoomSoldierSelect>
; Function compile flags: /Ogsp
;	COMDAT ??$_Dest_val@V?$allocator@UPCRoomSoldierSelect@ExPCRoomSoldierBonusWnd@@@std@@UPCRoomSoldierSelect@ExPCRoomSoldierBonusWnd@@@std@@YAXAAV?$allocator@UPCRoomSoldierSelect@ExPCRoomSoldierBonusWnd@@@0@PAUPCRoomSoldierSelect@ExPCRoomSoldierBonusWnd@@@Z
_TEXT	SEGMENT
__Alval$ = 8						; size = 4
__Pdest$ = 12						; size = 4
??$_Dest_val@V?$allocator@UPCRoomSoldierSelect@ExPCRoomSoldierBonusWnd@@@std@@UPCRoomSoldierSelect@ExPCRoomSoldierBonusWnd@@@std@@YAXAAV?$allocator@UPCRoomSoldierSelect@ExPCRoomSoldierBonusWnd@@@0@PAUPCRoomSoldierSelect@ExPCRoomSoldierBonusWnd@@@Z PROC ; std::_Dest_val<std::allocator<ExPCRoomSoldierBonusWnd::PCRoomSoldierSelect>,ExPCRoomSoldierBonusWnd::PCRoomSoldierSelect>, COMDAT

; 287  : 	_Alval.destroy(_Pdest);
; 288  : 	}

  00000	c3		 ret	 0
??$_Dest_val@V?$allocator@UPCRoomSoldierSelect@ExPCRoomSoldierBonusWnd@@@std@@UPCRoomSoldierSelect@ExPCRoomSoldierBonusWnd@@@std@@YAXAAV?$allocator@UPCRoomSoldierSelect@ExPCRoomSoldierBonusWnd@@@0@PAUPCRoomSoldierSelect@ExPCRoomSoldierBonusWnd@@@Z ENDP ; std::_Dest_val<std::allocator<ExPCRoomSoldierBonusWnd::PCRoomSoldierSelect>,ExPCRoomSoldierBonusWnd::PCRoomSoldierSelect>
_TEXT	ENDS
PUBLIC	??$_Move@PAUPCRoomSoldierSelect@ExPCRoomSoldierBonusWnd@@PAU12@@std@@YAPAUPCRoomSoldierSelect@ExPCRoomSoldierBonusWnd@@PAU12@00@Z ; std::_Move<ExPCRoomSoldierBonusWnd::PCRoomSoldierSelect *,ExPCRoomSoldierBonusWnd::PCRoomSoldierSelect *>
; Function compile flags: /Ogsp
; File c:\program files (x86)\microsoft visual studio 10.0\vc\include\xutility
;	COMDAT ??$_Move@PAUPCRoomSoldierSelect@ExPCRoomSoldierBonusWnd@@PAU12@@std@@YAPAUPCRoomSoldierSelect@ExPCRoomSoldierBonusWnd@@PAU12@00@Z
_TEXT	SEGMENT
__Cat$539364 = -4					; size = 1
__First$ = 8						; size = 4
__Last$ = 12						; size = 4
__Dest$ = 16						; size = 4
??$_Move@PAUPCRoomSoldierSelect@ExPCRoomSoldierBonusWnd@@PAU12@@std@@YAPAUPCRoomSoldierSelect@ExPCRoomSoldierBonusWnd@@PAU12@00@Z PROC ; std::_Move<ExPCRoomSoldierBonusWnd::PCRoomSoldierSelect *,ExPCRoomSoldierBonusWnd::PCRoomSoldierSelect *>, COMDAT

; 2533 : 	{	// move [_First, _Last) to [_Dest, ...), unchecked

  00000	55		 push	 ebp
  00001	8b ec		 mov	 ebp, esp
  00003	51		 push	 ecx

; 2534 : 	return (_Move(_First, _Last,
; 2535 : 		_Dest, _Ptr_cat(_First, _Dest)));

  00004	ff 75 fc	 push	 DWORD PTR __Cat$539364[ebp]
  00007	ff 75 10	 push	 DWORD PTR __Dest$[ebp]
  0000a	ff 75 0c	 push	 DWORD PTR __Last$[ebp]
  0000d	ff 75 08	 push	 DWORD PTR __First$[ebp]
  00010	e8 00 00 00 00	 call	 ??$_Move@PAUPCRoomSoldierSelect@ExPCRoomSoldierBonusWnd@@PAU12@@std@@YAPAUPCRoomSoldierSelect@ExPCRoomSoldierBonusWnd@@PAU12@00U_Nonscalar_ptr_iterator_tag@0@@Z ; std::_Move<ExPCRoomSoldierBonusWnd::PCRoomSoldierSelect *,ExPCRoomSoldierBonusWnd::PCRoomSoldierSelect *>
  00015	83 c4 10	 add	 esp, 16			; 00000010H

; 2536 : 	}

  00018	c9		 leave
  00019	c3		 ret	 0
??$_Move@PAUPCRoomSoldierSelect@ExPCRoomSoldierBonusWnd@@PAU12@@std@@YAPAUPCRoomSoldierSelect@ExPCRoomSoldierBonusWnd@@PAU12@00@Z ENDP ; std::_Move<ExPCRoomSoldierBonusWnd::PCRoomSoldierSelect *,ExPCRoomSoldierBonusWnd::PCRoomSoldierSelect *>
_TEXT	ENDS
PUBLIC	??$_Destroy_range@V?$allocator@UPCRoomSoldierSelect@ExPCRoomSoldierBonusWnd@@@std@@@std@@YAXPAUPCRoomSoldierSelect@ExPCRoomSoldierBonusWnd@@0AAV?$allocator@UPCRoomSoldierSelect@ExPCRoomSoldierBonusWnd@@@0@U_Nonscalar_ptr_iterator_tag@0@@Z ; std::_Destroy_range<std::allocator<ExPCRoomSoldierBonusWnd::PCRoomSoldierSelect> >
; Function compile flags: /Ogsp
; File c:\program files (x86)\microsoft visual studio 10.0\vc\include\xmemory
;	COMDAT ??$_Destroy_range@V?$allocator@UPCRoomSoldierSelect@ExPCRoomSoldierBonusWnd@@@std@@@std@@YAXPAUPCRoomSoldierSelect@ExPCRoomSoldierBonusWnd@@0AAV?$allocator@UPCRoomSoldierSelect@ExPCRoomSoldierBonusWnd@@@0@U_Nonscalar_ptr_iterator_tag@0@@Z
_TEXT	SEGMENT
__First$ = 8						; size = 4
__Last$ = 12						; size = 4
__Al$ = 16						; size = 4
___formal$ = 20						; size = 1
??$_Destroy_range@V?$allocator@UPCRoomSoldierSelect@ExPCRoomSoldierBonusWnd@@@std@@@std@@YAXPAUPCRoomSoldierSelect@ExPCRoomSoldierBonusWnd@@0AAV?$allocator@UPCRoomSoldierSelect@ExPCRoomSoldierBonusWnd@@@0@U_Nonscalar_ptr_iterator_tag@0@@Z PROC ; std::_Destroy_range<std::allocator<ExPCRoomSoldierBonusWnd::PCRoomSoldierSelect> >, COMDAT

; 96   : 	for (; _First != _Last; ++_First)
; 97   : 		_Dest_val(_Al, _First);
; 98   : 	}

  00000	c3		 ret	 0
??$_Destroy_range@V?$allocator@UPCRoomSoldierSelect@ExPCRoomSoldierBonusWnd@@@std@@@std@@YAXPAUPCRoomSoldierSelect@ExPCRoomSoldierBonusWnd@@0AAV?$allocator@UPCRoomSoldierSelect@ExPCRoomSoldierBonusWnd@@@0@U_Nonscalar_ptr_iterator_tag@0@@Z ENDP ; std::_Destroy_range<std::allocator<ExPCRoomSoldierBonusWnd::PCRoomSoldierSelect> >
_TEXT	ENDS
PUBLIC	??H?$_Vector_iterator@V?$_Vector_val@UPCRoomSoldierSelect@ExPCRoomSoldierBonusWnd@@V?$allocator@UPCRoomSoldierSelect@ExPCRoomSoldierBonusWnd@@@std@@@std@@@std@@QBE?AV01@H@Z ; std::_Vector_iterator<std::_Vector_val<ExPCRoomSoldierBonusWnd::PCRoomSoldierSelect,std::allocator<ExPCRoomSoldierBonusWnd::PCRoomSoldierSelect> > >::operator+
; Function compile flags: /Ogsp
; File c:\program files (x86)\microsoft visual studio 10.0\vc\include\vector
;	COMDAT ??H?$_Vector_iterator@V?$_Vector_val@UPCRoomSoldierSelect@ExPCRoomSoldierBonusWnd@@V?$allocator@UPCRoomSoldierSelect@ExPCRoomSoldierBonusWnd@@@std@@@std@@@std@@QBE?AV01@H@Z
_TEXT	SEGMENT
___$ReturnUdt$ = 8					; size = 4
__Off$ = 12						; size = 4
??H?$_Vector_iterator@V?$_Vector_val@UPCRoomSoldierSelect@ExPCRoomSoldierBonusWnd@@V?$allocator@UPCRoomSoldierSelect@ExPCRoomSoldierBonusWnd@@@std@@@std@@@std@@QBE?AV01@H@Z PROC ; std::_Vector_iterator<std::_Vector_val<ExPCRoomSoldierBonusWnd::PCRoomSoldierSelect,std::allocator<ExPCRoomSoldierBonusWnd::PCRoomSoldierSelect> > >::operator+, COMDAT
; _this$ = ecx

; 363  : 		{	// return this + integer

  00000	55		 push	 ebp
  00001	8b ec		 mov	 ebp, esp

; 364  : 		_Myiter _Tmp = *this;
; 365  : 		return (_Tmp += _Off);

  00003	8b 01		 mov	 eax, DWORD PTR [ecx]
  00005	8b 4d 0c	 mov	 ecx, DWORD PTR __Off$[ebp]
  00008	8d 0c c8	 lea	 ecx, DWORD PTR [eax+ecx*8]
  0000b	8b 45 08	 mov	 eax, DWORD PTR ___$ReturnUdt$[ebp]
  0000e	89 08		 mov	 DWORD PTR [eax], ecx

; 366  : 		}

  00010	5d		 pop	 ebp
  00011	c2 08 00	 ret	 8
??H?$_Vector_iterator@V?$_Vector_val@UPCRoomSoldierSelect@ExPCRoomSoldierBonusWnd@@V?$allocator@UPCRoomSoldierSelect@ExPCRoomSoldierBonusWnd@@@std@@@std@@@std@@QBE?AV01@H@Z ENDP ; std::_Vector_iterator<std::_Vector_val<ExPCRoomSoldierBonusWnd::PCRoomSoldierSelect,std::allocator<ExPCRoomSoldierBonusWnd::PCRoomSoldierSelect> > >::operator+
_TEXT	ENDS
PUBLIC	??G?$_Vector_iterator@V?$_Vector_val@UPCRoomSoldierSelect@ExPCRoomSoldierBonusWnd@@V?$allocator@UPCRoomSoldierSelect@ExPCRoomSoldierBonusWnd@@@std@@@std@@@std@@QBE?AV01@H@Z ; std::_Vector_iterator<std::_Vector_val<ExPCRoomSoldierBonusWnd::PCRoomSoldierSelect,std::allocator<ExPCRoomSoldierBonusWnd::PCRoomSoldierSelect> > >::operator-
; Function compile flags: /Ogsp
;	COMDAT ??G?$_Vector_iterator@V?$_Vector_val@UPCRoomSoldierSelect@ExPCRoomSoldierBonusWnd@@V?$allocator@UPCRoomSoldierSelect@ExPCRoomSoldierBonusWnd@@@std@@@std@@@std@@QBE?AV01@H@Z
_TEXT	SEGMENT
___$ReturnUdt$ = 8					; size = 4
__Off$ = 12						; size = 4
??G?$_Vector_iterator@V?$_Vector_val@UPCRoomSoldierSelect@ExPCRoomSoldierBonusWnd@@V?$allocator@UPCRoomSoldierSelect@ExPCRoomSoldierBonusWnd@@@std@@@std@@@std@@QBE?AV01@H@Z PROC ; std::_Vector_iterator<std::_Vector_val<ExPCRoomSoldierBonusWnd::PCRoomSoldierSelect,std::allocator<ExPCRoomSoldierBonusWnd::PCRoomSoldierSelect> > >::operator-, COMDAT
; _this$ = ecx

; 374  : 		{	// return this - integer

  00000	55		 push	 ebp
  00001	8b ec		 mov	 ebp, esp

; 375  : 		_Myiter _Tmp = *this;
; 376  : 		return (_Tmp -= _Off);

  00003	8b 45 0c	 mov	 eax, DWORD PTR __Off$[ebp]
  00006	8b 09		 mov	 ecx, DWORD PTR [ecx]
  00008	c1 e0 03	 shl	 eax, 3
  0000b	2b c8		 sub	 ecx, eax
  0000d	8b 45 08	 mov	 eax, DWORD PTR ___$ReturnUdt$[ebp]
  00010	89 08		 mov	 DWORD PTR [eax], ecx

; 377  : 		}

  00012	5d		 pop	 ebp
  00013	c2 08 00	 ret	 8
??G?$_Vector_iterator@V?$_Vector_val@UPCRoomSoldierSelect@ExPCRoomSoldierBonusWnd@@V?$allocator@UPCRoomSoldierSelect@ExPCRoomSoldierBonusWnd@@@std@@@std@@@std@@QBE?AV01@H@Z ENDP ; std::_Vector_iterator<std::_Vector_val<ExPCRoomSoldierBonusWnd::PCRoomSoldierSelect,std::allocator<ExPCRoomSoldierBonusWnd::PCRoomSoldierSelect> > >::operator-
_TEXT	ENDS
PUBLIC	??Z?$_Vector_iterator@V?$_Vector_val@HV?$allocator@H@std@@@std@@@std@@QAEAAV01@H@Z ; std::_Vector_iterator<std::_Vector_val<int,std::allocator<int> > >::operator-=
; Function compile flags: /Ogsp
;	COMDAT ??Z?$_Vector_iterator@V?$_Vector_val@HV?$allocator@H@std@@@std@@@std@@QAEAAV01@H@Z
_TEXT	SEGMENT
__Off$ = 8						; size = 4
??Z?$_Vector_iterator@V?$_Vector_val@HV?$allocator@H@std@@@std@@@std@@QAEAAV01@H@Z PROC ; std::_Vector_iterator<std::_Vector_val<int,std::allocator<int> > >::operator-=, COMDAT
; _this$ = ecx

; 369  : 		{	// decrement by integer

  00000	55		 push	 ebp
  00001	8b ec		 mov	 ebp, esp
  00003	8b c1		 mov	 eax, ecx

; 370  : 		return (*this += -_Off);

  00005	8b 4d 08	 mov	 ecx, DWORD PTR __Off$[ebp]
  00008	6b c9 fc	 imul	 ecx, -4			; fffffffcH
  0000b	01 08		 add	 DWORD PTR [eax], ecx

; 371  : 		}

  0000d	5d		 pop	 ebp
  0000e	c2 04 00	 ret	 4
??Z?$_Vector_iterator@V?$_Vector_val@HV?$allocator@H@std@@@std@@@std@@QAEAAV01@H@Z ENDP ; std::_Vector_iterator<std::_Vector_val<int,std::allocator<int> > >::operator-=
_TEXT	ENDS
PUBLIC	??$_Cons_val@V?$allocator@H@std@@HAAH@std@@YAXAAV?$allocator@H@0@PAHAAH@Z ; std::_Cons_val<std::allocator<int>,int,int &>
; Function compile flags: /Ogsp
; File c:\program files (x86)\microsoft visual studio 10.0\vc\include\xmemory
;	COMDAT ??$_Cons_val@V?$allocator@H@std@@HAAH@std@@YAXAAV?$allocator@H@0@PAHAAH@Z
_TEXT	SEGMENT
__Alval$ = 8						; size = 4
__Pdest$ = 12						; size = 4
__Src$ = 16						; size = 4
??$_Cons_val@V?$allocator@H@std@@HAAH@std@@YAXAAV?$allocator@H@0@PAHAAH@Z PROC ; std::_Cons_val<std::allocator<int>,int,int &>, COMDAT

; 279  : 	{	// construct using allocator

  00000	55		 push	 ebp
  00001	8b ec		 mov	 ebp, esp

; 280  : 	_Alval.construct(_Pdest, _STD forward<_Ty2>(_Src));

  00003	8b 45 0c	 mov	 eax, DWORD PTR __Pdest$[ebp]
  00006	85 c0		 test	 eax, eax
  00008	74 07		 je	 SHORT $LN7@Cons_val@3
  0000a	8b 4d 10	 mov	 ecx, DWORD PTR __Src$[ebp]
  0000d	8b 09		 mov	 ecx, DWORD PTR [ecx]
  0000f	89 08		 mov	 DWORD PTR [eax], ecx
$LN7@Cons_val@3:

; 281  : 	}

  00011	5d		 pop	 ebp
  00012	c3		 ret	 0
??$_Cons_val@V?$allocator@H@std@@HAAH@std@@YAXAAV?$allocator@H@0@PAHAAH@Z ENDP ; std::_Cons_val<std::allocator<int>,int,int &>
_TEXT	ENDS
PUBLIC	??$advance@V?$_Vector_iterator@V?$_Vector_val@UPCRoomSoldierSelect@ExPCRoomSoldierBonusWnd@@V?$allocator@UPCRoomSoldierSelect@ExPCRoomSoldierBonusWnd@@@std@@@std@@@std@@H@std@@YAXAAV?$_Vector_iterator@V?$_Vector_val@UPCRoomSoldierSelect@ExPCRoomSoldierBonusWnd@@V?$allocator@UPCRoomSoldierSelect@ExPCRoomSoldierBonusWnd@@@std@@@std@@@0@H@Z ; std::advance<std::_Vector_iterator<std::_Vector_val<ExPCRoomSoldierBonusWnd::PCRoomSoldierSelect,std::allocator<ExPCRoomSoldierBonusWnd::PCRoomSoldierSelect> > >,int>
; Function compile flags: /Ogsp
; File c:\program files (x86)\microsoft visual studio 10.0\vc\include\xutility
;	COMDAT ??$advance@V?$_Vector_iterator@V?$_Vector_val@UPCRoomSoldierSelect@ExPCRoomSoldierBonusWnd@@V?$allocator@UPCRoomSoldierSelect@ExPCRoomSoldierBonusWnd@@@std@@@std@@@std@@H@std@@YAXAAV?$_Vector_iterator@V?$_Vector_val@UPCRoomSoldierSelect@ExPCRoomSoldierBonusWnd@@V?$allocator@UPCRoomSoldierSelect@ExPCRoomSoldierBonusWnd@@@std@@@std@@@0@H@Z
_TEXT	SEGMENT
__Where$ = 8						; size = 4
__Off$ = 12						; size = 4
??$advance@V?$_Vector_iterator@V?$_Vector_val@UPCRoomSoldierSelect@ExPCRoomSoldierBonusWnd@@V?$allocator@UPCRoomSoldierSelect@ExPCRoomSoldierBonusWnd@@@std@@@std@@@std@@H@std@@YAXAAV?$_Vector_iterator@V?$_Vector_val@UPCRoomSoldierSelect@ExPCRoomSoldierBonusWnd@@V?$allocator@UPCRoomSoldierSelect@ExPCRoomSoldierBonusWnd@@@std@@@std@@@0@H@Z PROC ; std::advance<std::_Vector_iterator<std::_Vector_val<ExPCRoomSoldierBonusWnd::PCRoomSoldierSelect,std::allocator<ExPCRoomSoldierBonusWnd::PCRoomSoldierSelect> > >,int>, COMDAT

; 797  : 	{	// increment iterator by offset, arbitrary iterators

  00000	55		 push	 ebp
  00001	8b ec		 mov	 ebp, esp

; 798  : 	_Advance(_Where, _Off, _Iter_cat(_Where));

  00003	8b 4d 0c	 mov	 ecx, DWORD PTR __Off$[ebp]
  00006	8b 45 08	 mov	 eax, DWORD PTR __Where$[ebp]
  00009	c1 e1 03	 shl	 ecx, 3
  0000c	01 08		 add	 DWORD PTR [eax], ecx

; 799  : 	}

  0000e	5d		 pop	 ebp
  0000f	c3		 ret	 0
??$advance@V?$_Vector_iterator@V?$_Vector_val@UPCRoomSoldierSelect@ExPCRoomSoldierBonusWnd@@V?$allocator@UPCRoomSoldierSelect@ExPCRoomSoldierBonusWnd@@@std@@@std@@@std@@H@std@@YAXAAV?$_Vector_iterator@V?$_Vector_val@UPCRoomSoldierSelect@ExPCRoomSoldierBonusWnd@@V?$allocator@UPCRoomSoldierSelect@ExPCRoomSoldierBonusWnd@@@std@@@std@@@0@H@Z ENDP ; std::advance<std::_Vector_iterator<std::_Vector_val<ExPCRoomSoldierBonusWnd::PCRoomSoldierSelect,std::allocator<ExPCRoomSoldierBonusWnd::PCRoomSoldierSelect> > >,int>
_TEXT	ENDS
PUBLIC	??$_Cons_val@V?$allocator@UPCRoomSoldierSelect@ExPCRoomSoldierBonusWnd@@@std@@UPCRoomSoldierSelect@ExPCRoomSoldierBonusWnd@@U34@@std@@YAXAAV?$allocator@UPCRoomSoldierSelect@ExPCRoomSoldierBonusWnd@@@0@PAUPCRoomSoldierSelect@ExPCRoomSoldierBonusWnd@@$$QAU23@@Z ; std::_Cons_val<std::allocator<ExPCRoomSoldierBonusWnd::PCRoomSoldierSelect>,ExPCRoomSoldierBonusWnd::PCRoomSoldierSelect,ExPCRoomSoldierBonusWnd::PCRoomSoldierSelect>
; Function compile flags: /Ogsp
; File c:\program files (x86)\microsoft visual studio 10.0\vc\include\xmemory
;	COMDAT ??$_Cons_val@V?$allocator@UPCRoomSoldierSelect@ExPCRoomSoldierBonusWnd@@@std@@UPCRoomSoldierSelect@ExPCRoomSoldierBonusWnd@@U34@@std@@YAXAAV?$allocator@UPCRoomSoldierSelect@ExPCRoomSoldierBonusWnd@@@0@PAUPCRoomSoldierSelect@ExPCRoomSoldierBonusWnd@@$$QAU23@@Z
_TEXT	SEGMENT
__Alval$ = 8						; size = 4
__Pdest$ = 12						; size = 4
__Src$ = 16						; size = 4
??$_Cons_val@V?$allocator@UPCRoomSoldierSelect@ExPCRoomSoldierBonusWnd@@@std@@UPCRoomSoldierSelect@ExPCRoomSoldierBonusWnd@@U34@@std@@YAXAAV?$allocator@UPCRoomSoldierSelect@ExPCRoomSoldierBonusWnd@@@0@PAUPCRoomSoldierSelect@ExPCRoomSoldierBonusWnd@@$$QAU23@@Z PROC ; std::_Cons_val<std::allocator<ExPCRoomSoldierBonusWnd::PCRoomSoldierSelect>,ExPCRoomSoldierBonusWnd::PCRoomSoldierSelect,ExPCRoomSoldierBonusWnd::PCRoomSoldierSelect>, COMDAT

; 279  : 	{	// construct using allocator

  00000	55		 push	 ebp
  00001	8b ec		 mov	 ebp, esp

; 280  : 	_Alval.construct(_Pdest, _STD forward<_Ty2>(_Src));

  00003	8b 45 0c	 mov	 eax, DWORD PTR __Pdest$[ebp]
  00006	85 c0		 test	 eax, eax
  00008	74 0d		 je	 SHORT $LN7@Cons_val@4
  0000a	8b 4d 10	 mov	 ecx, DWORD PTR __Src$[ebp]
  0000d	8b 11		 mov	 edx, DWORD PTR [ecx]
  0000f	89 10		 mov	 DWORD PTR [eax], edx
  00011	8b 49 04	 mov	 ecx, DWORD PTR [ecx+4]
  00014	89 48 04	 mov	 DWORD PTR [eax+4], ecx
$LN7@Cons_val@4:

; 281  : 	}

  00017	5d		 pop	 ebp
  00018	c3		 ret	 0
??$_Cons_val@V?$allocator@UPCRoomSoldierSelect@ExPCRoomSoldierBonusWnd@@@std@@UPCRoomSoldierSelect@ExPCRoomSoldierBonusWnd@@U34@@std@@YAXAAV?$allocator@UPCRoomSoldierSelect@ExPCRoomSoldierBonusWnd@@@0@PAUPCRoomSoldierSelect@ExPCRoomSoldierBonusWnd@@$$QAU23@@Z ENDP ; std::_Cons_val<std::allocator<ExPCRoomSoldierBonusWnd::PCRoomSoldierSelect>,ExPCRoomSoldierBonusWnd::PCRoomSoldierSelect,ExPCRoomSoldierBonusWnd::PCRoomSoldierSelect>
_TEXT	ENDS
PUBLIC	??$_Advance@V?$_Vector_iterator@V?$_Vector_val@HV?$allocator@H@std@@@std@@@std@@H@std@@YAXAAV?$_Vector_iterator@V?$_Vector_val@HV?$allocator@H@std@@@std@@@0@HUrandom_access_iterator_tag@0@@Z ; std::_Advance<std::_Vector_iterator<std::_Vector_val<int,std::allocator<int> > >,int>
; Function compile flags: /Ogsp
; File c:\program files (x86)\microsoft visual studio 10.0\vc\include\xutility
;	COMDAT ??$_Advance@V?$_Vector_iterator@V?$_Vector_val@HV?$allocator@H@std@@@std@@@std@@H@std@@YAXAAV?$_Vector_iterator@V?$_Vector_val@HV?$allocator@H@std@@@std@@@0@HUrandom_access_iterator_tag@0@@Z
_TEXT	SEGMENT
__Where$ = 8						; size = 4
__Off$ = 12						; size = 4
___formal$ = 16						; size = 1
??$_Advance@V?$_Vector_iterator@V?$_Vector_val@HV?$allocator@H@std@@@std@@@std@@H@std@@YAXAAV?$_Vector_iterator@V?$_Vector_val@HV?$allocator@H@std@@@std@@@0@HUrandom_access_iterator_tag@0@@Z PROC ; std::_Advance<std::_Vector_iterator<std::_Vector_val<int,std::allocator<int> > >,int>, COMDAT

; 840  : 	{	// increment iterator by offset, random-access iterators

  00000	55		 push	 ebp
  00001	8b ec		 mov	 ebp, esp

; 841  : 	_Where += _Off;

  00003	8b 4d 0c	 mov	 ecx, DWORD PTR __Off$[ebp]
  00006	8b 45 08	 mov	 eax, DWORD PTR __Where$[ebp]
  00009	c1 e1 02	 shl	 ecx, 2
  0000c	01 08		 add	 DWORD PTR [eax], ecx

; 842  : 	}

  0000e	5d		 pop	 ebp
  0000f	c3		 ret	 0
??$_Advance@V?$_Vector_iterator@V?$_Vector_val@HV?$allocator@H@std@@@std@@@std@@H@std@@YAXAAV?$_Vector_iterator@V?$_Vector_val@HV?$allocator@H@std@@@std@@@0@HUrandom_access_iterator_tag@0@@Z ENDP ; std::_Advance<std::_Vector_iterator<std::_Vector_val<int,std::allocator<int> > >,int>
_TEXT	ENDS
PUBLIC	??$_Distance2@V?$_Vector_iterator@V?$_Vector_val@UPCRoomSoldierSelect@ExPCRoomSoldierBonusWnd@@V?$allocator@UPCRoomSoldierSelect@ExPCRoomSoldierBonusWnd@@@std@@@std@@@std@@H@std@@YAXV?$_Vector_iterator@V?$_Vector_val@UPCRoomSoldierSelect@ExPCRoomSoldierBonusWnd@@V?$allocator@UPCRoomSoldierSelect@ExPCRoomSoldierBonusWnd@@@std@@@std@@@0@0AAHUrandom_access_iterator_tag@0@@Z ; std::_Distance2<std::_Vector_iterator<std::_Vector_val<ExPCRoomSoldierBonusWnd::PCRoomSoldierSelect,std::allocator<ExPCRoomSoldierBonusWnd::PCRoomSoldierSelect> > >,int>
; Function compile flags: /Ogsp
;	COMDAT ??$_Distance2@V?$_Vector_iterator@V?$_Vector_val@UPCRoomSoldierSelect@ExPCRoomSoldierBonusWnd@@V?$allocator@UPCRoomSoldierSelect@ExPCRoomSoldierBonusWnd@@@std@@@std@@@std@@H@std@@YAXV?$_Vector_iterator@V?$_Vector_val@UPCRoomSoldierSelect@ExPCRoomSoldierBonusWnd@@V?$allocator@UPCRoomSoldierSelect@ExPCRoomSoldierBonusWnd@@@std@@@std@@@0@0AAHUrandom_access_iterator_tag@0@@Z
_TEXT	SEGMENT
__First$ = 8						; size = 4
__Last$ = 12						; size = 4
__Off$ = 16						; size = 4
___formal$ = 20						; size = 1
??$_Distance2@V?$_Vector_iterator@V?$_Vector_val@UPCRoomSoldierSelect@ExPCRoomSoldierBonusWnd@@V?$allocator@UPCRoomSoldierSelect@ExPCRoomSoldierBonusWnd@@@std@@@std@@@std@@H@std@@YAXV?$_Vector_iterator@V?$_Vector_val@UPCRoomSoldierSelect@ExPCRoomSoldierBonusWnd@@V?$allocator@UPCRoomSoldierSelect@ExPCRoomSoldierBonusWnd@@@std@@@std@@@0@0AAHUrandom_access_iterator_tag@0@@Z PROC ; std::_Distance2<std::_Vector_iterator<std::_Vector_val<ExPCRoomSoldierBonusWnd::PCRoomSoldierSelect,std::allocator<ExPCRoomSoldierBonusWnd::PCRoomSoldierSelect> > >,int>, COMDAT

; 885  : 	{	// add to _Off distance between random-access iterators

  00000	55		 push	 ebp
  00001	8b ec		 mov	 ebp, esp

; 886  :  #if _ITERATOR_DEBUG_LEVEL == 2
; 887  : 	if (_First != _Last)
; 888  : 		{	// check for null pointers
; 889  : 		_DEBUG_POINTER(_First);
; 890  : 		_DEBUG_POINTER(_Last);
; 891  : 		}
; 892  :  #endif /* _ITERATOR_DEBUG_LEVEL == 2 */
; 893  : 
; 894  : 	_Off += _Last - _First;

  00003	8b 4d 0c	 mov	 ecx, DWORD PTR __Last$[ebp]
  00006	2b 4d 08	 sub	 ecx, DWORD PTR __First$[ebp]
  00009	8b 45 10	 mov	 eax, DWORD PTR __Off$[ebp]
  0000c	c1 f9 03	 sar	 ecx, 3
  0000f	01 08		 add	 DWORD PTR [eax], ecx

; 895  : 	}

  00011	5d		 pop	 ebp
  00012	c3		 ret	 0
??$_Distance2@V?$_Vector_iterator@V?$_Vector_val@UPCRoomSoldierSelect@ExPCRoomSoldierBonusWnd@@V?$allocator@UPCRoomSoldierSelect@ExPCRoomSoldierBonusWnd@@@std@@@std@@@std@@H@std@@YAXV?$_Vector_iterator@V?$_Vector_val@UPCRoomSoldierSelect@ExPCRoomSoldierBonusWnd@@V?$allocator@UPCRoomSoldierSelect@ExPCRoomSoldierBonusWnd@@@std@@@std@@@0@0AAHUrandom_access_iterator_tag@0@@Z ENDP ; std::_Distance2<std::_Vector_iterator<std::_Vector_val<ExPCRoomSoldierBonusWnd::PCRoomSoldierSelect,std::allocator<ExPCRoomSoldierBonusWnd::PCRoomSoldierSelect> > >,int>
_TEXT	ENDS
PUBLIC	??G?$_Vector_iterator@V?$_Vector_val@HV?$allocator@H@std@@@std@@@std@@QBEHABV?$_Vector_const_iterator@V?$_Vector_val@HV?$allocator@H@std@@@std@@@1@@Z ; std::_Vector_iterator<std::_Vector_val<int,std::allocator<int> > >::operator-
; Function compile flags: /Ogsp
; File c:\program files (x86)\microsoft visual studio 10.0\vc\include\vector
;	COMDAT ??G?$_Vector_iterator@V?$_Vector_val@HV?$allocator@H@std@@@std@@@std@@QBEHABV?$_Vector_const_iterator@V?$_Vector_val@HV?$allocator@H@std@@@std@@@1@@Z
_TEXT	SEGMENT
__Right$ = 8						; size = 4
??G?$_Vector_iterator@V?$_Vector_val@HV?$allocator@H@std@@@std@@@std@@QBEHABV?$_Vector_const_iterator@V?$_Vector_val@HV?$allocator@H@std@@@std@@@1@@Z PROC ; std::_Vector_iterator<std::_Vector_val<int,std::allocator<int> > >::operator-, COMDAT
; _this$ = ecx

; 380  : 		{	// return difference of iterators

  00000	55		 push	 ebp
  00001	8b ec		 mov	 ebp, esp

; 381  : 		return (*(_Mybase *)this - _Right);

  00003	8b 01		 mov	 eax, DWORD PTR [ecx]
  00005	8b 4d 08	 mov	 ecx, DWORD PTR __Right$[ebp]
  00008	2b 01		 sub	 eax, DWORD PTR [ecx]
  0000a	c1 f8 02	 sar	 eax, 2

; 382  : 		}

  0000d	5d		 pop	 ebp
  0000e	c2 04 00	 ret	 4
??G?$_Vector_iterator@V?$_Vector_val@HV?$allocator@H@std@@@std@@@std@@QBEHABV?$_Vector_const_iterator@V?$_Vector_val@HV?$allocator@H@std@@@std@@@1@@Z ENDP ; std::_Vector_iterator<std::_Vector_val<int,std::allocator<int> > >::operator-
_TEXT	ENDS
PUBLIC	??$iter_swap@PAHPAH@std@@YAXPAH0@Z		; std::iter_swap<int *,int *>
; Function compile flags: /Ogsp
; File c:\program files (x86)\microsoft visual studio 10.0\vc\include\xutility
;	COMDAT ??$iter_swap@PAHPAH@std@@YAXPAH0@Z
_TEXT	SEGMENT
__Left$ = 8						; size = 4
__Right$ = 12						; size = 4
??$iter_swap@PAHPAH@std@@YAXPAH0@Z PROC			; std::iter_swap<int *,int *>, COMDAT

; 2133 : 	{	// swap *_Left and *_Right

  00000	55		 push	 ebp
  00001	8b ec		 mov	 ebp, esp

; 2134 : 	swap(*_Left, *_Right);

  00003	8b 55 0c	 mov	 edx, DWORD PTR __Right$[ebp]
  00006	8b 45 08	 mov	 eax, DWORD PTR __Left$[ebp]
  00009	8b 08		 mov	 ecx, DWORD PTR [eax]
  0000b	56		 push	 esi
  0000c	8b 32		 mov	 esi, DWORD PTR [edx]
  0000e	89 30		 mov	 DWORD PTR [eax], esi
  00010	89 0a		 mov	 DWORD PTR [edx], ecx
  00012	5e		 pop	 esi

; 2135 : 	}

  00013	5d		 pop	 ebp
  00014	c3		 ret	 0
??$iter_swap@PAHPAH@std@@YAXPAH0@Z ENDP			; std::iter_swap<int *,int *>
_TEXT	ENDS
PUBLIC	??$iter_swap@PAUPCRoomSoldierSelect@ExPCRoomSoldierBonusWnd@@PAU12@@std@@YAXPAUPCRoomSoldierSelect@ExPCRoomSoldierBonusWnd@@0@Z ; std::iter_swap<ExPCRoomSoldierBonusWnd::PCRoomSoldierSelect *,ExPCRoomSoldierBonusWnd::PCRoomSoldierSelect *>
; Function compile flags: /Ogsp
;	COMDAT ??$iter_swap@PAUPCRoomSoldierSelect@ExPCRoomSoldierBonusWnd@@PAU12@@std@@YAXPAUPCRoomSoldierSelect@ExPCRoomSoldierBonusWnd@@0@Z
_TEXT	SEGMENT
__Left$ = 8						; size = 4
__Right$ = 12						; size = 4
??$iter_swap@PAUPCRoomSoldierSelect@ExPCRoomSoldierBonusWnd@@PAU12@@std@@YAXPAUPCRoomSoldierSelect@ExPCRoomSoldierBonusWnd@@0@Z PROC ; std::iter_swap<ExPCRoomSoldierBonusWnd::PCRoomSoldierSelect *,ExPCRoomSoldierBonusWnd::PCRoomSoldierSelect *>, COMDAT

; 2133 : 	{	// swap *_Left and *_Right

  00000	55		 push	 ebp
  00001	8b ec		 mov	 ebp, esp

; 2134 : 	swap(*_Left, *_Right);

  00003	8b 4d 0c	 mov	 ecx, DWORD PTR __Right$[ebp]
  00006	8b 45 08	 mov	 eax, DWORD PTR __Left$[ebp]
  00009	8b 10		 mov	 edx, DWORD PTR [eax]
  0000b	56		 push	 esi
  0000c	8b 70 04	 mov	 esi, DWORD PTR [eax+4]
  0000f	57		 push	 edi
  00010	8b 39		 mov	 edi, DWORD PTR [ecx]
  00012	89 38		 mov	 DWORD PTR [eax], edi
  00014	8b 79 04	 mov	 edi, DWORD PTR [ecx+4]
  00017	89 78 04	 mov	 DWORD PTR [eax+4], edi
  0001a	5f		 pop	 edi
  0001b	89 71 04	 mov	 DWORD PTR [ecx+4], esi
  0001e	89 11		 mov	 DWORD PTR [ecx], edx
  00020	5e		 pop	 esi

; 2135 : 	}

  00021	5d		 pop	 ebp
  00022	c3		 ret	 0
??$iter_swap@PAUPCRoomSoldierSelect@ExPCRoomSoldierBonusWnd@@PAU12@@std@@YAXPAUPCRoomSoldierSelect@ExPCRoomSoldierBonusWnd@@0@Z ENDP ; std::iter_swap<ExPCRoomSoldierBonusWnd::PCRoomSoldierSelect *,ExPCRoomSoldierBonusWnd::PCRoomSoldierSelect *>
_TEXT	ENDS
PUBLIC	?Init@CHARACTER@@QAEXXZ				; CHARACTER::Init
; Function compile flags: /Ogsp
; File d:\lost saga for developer\youtube\tutorial\source\src\lsclient\characterinfo.h
;	COMDAT ?Init@CHARACTER@@QAEXXZ
_TEXT	SEGMENT
_value$539621 = -12					; size = 4
tv151 = -8						; size = 4
_value$539617 = -8					; size = 4
_value$539613 = -8					; size = 4
_value$539609 = -8					; size = 4
_value$539605 = -8					; size = 4
_value$539601 = -8					; size = 4
_value$539597 = -8					; size = 4
_value$539593 = -8					; size = 4
_value$539589 = -8					; size = 4
_value$539585 = -8					; size = 4
_value$539581 = -8					; size = 4
tv307 = -4						; size = 4
?Init@CHARACTER@@QAEXXZ PROC				; CHARACTER::Init, COMDAT
; _this$ = ecx

; 350  : 	{

  00000	55		 push	 ebp
  00001	8b ec		 mov	 ebp, esp
  00003	83 ec 0c	 sub	 esp, 12			; 0000000cH
  00006	53		 push	 ebx
  00007	56		 push	 esi
  00008	57		 push	 edi

; 351  : 		m_class_type	    = 0;

  00009	8d 45 f8	 lea	 eax, DWORD PTR _value$539581[ebp]
  0000c	33 ff		 xor	 edi, edi
  0000e	50		 push	 eax
  0000f	8b f1		 mov	 esi, ecx
  00011	89 7d f8	 mov	 DWORD PTR _value$539581[ebp], edi
  00014	e8 00 00 00 00	 call	 ?EncryptValueToPool@?$CEncrypt@H@@AAEXPBD@Z ; CEncrypt<int>::EncryptValueToPool

; 352  : 		m_kindred			= 1;

  00019	33 db		 xor	 ebx, ebx
  0001b	8d 45 f8	 lea	 eax, DWORD PTR _value$539585[ebp]
  0001e	43		 inc	 ebx
  0001f	50		 push	 eax
  00020	8d 4e 30	 lea	 ecx, DWORD PTR [esi+48]
  00023	89 5d f8	 mov	 DWORD PTR _value$539585[ebp], ebx
  00026	e8 00 00 00 00	 call	 ?EncryptValueToPool@?$CEncrypt@H@@AAEXPBD@Z ; CEncrypt<int>::EncryptValueToPool

; 353  : 		m_sex				= 1;

  0002b	8d 45 f8	 lea	 eax, DWORD PTR _value$539589[ebp]
  0002e	50		 push	 eax
  0002f	8d 4e 60	 lea	 ecx, DWORD PTR [esi+96]
  00032	89 5d f8	 mov	 DWORD PTR _value$539589[ebp], ebx
  00035	e8 00 00 00 00	 call	 ?EncryptValueToPool@?$CEncrypt@H@@AAEXPBD@Z ; CEncrypt<int>::EncryptValueToPool

; 354  : 		m_beard				= 1;

  0003a	8d 45 f8	 lea	 eax, DWORD PTR _value$539593[ebp]
  0003d	50		 push	 eax
  0003e	8d 8e 90 00 00
	00		 lea	 ecx, DWORD PTR [esi+144]
  00044	89 5d f8	 mov	 DWORD PTR _value$539593[ebp], ebx
  00047	e8 00 00 00 00	 call	 ?EncryptValueToPool@?$CEncrypt@H@@AAEXPBD@Z ; CEncrypt<int>::EncryptValueToPool

; 355  : 		m_face				= 1;

  0004c	8d 45 f8	 lea	 eax, DWORD PTR _value$539597[ebp]
  0004f	50		 push	 eax
  00050	8d 8e c0 00 00
	00		 lea	 ecx, DWORD PTR [esi+192]
  00056	89 5d f8	 mov	 DWORD PTR _value$539597[ebp], ebx
  00059	e8 00 00 00 00	 call	 ?EncryptValueToPool@?$CEncrypt@H@@AAEXPBD@Z ; CEncrypt<int>::EncryptValueToPool

; 356  : 		m_hair				= 1;

  0005e	8d 45 f8	 lea	 eax, DWORD PTR _value$539601[ebp]
  00061	50		 push	 eax
  00062	8d 8e f0 00 00
	00		 lea	 ecx, DWORD PTR [esi+240]
  00068	89 5d f8	 mov	 DWORD PTR _value$539601[ebp], ebx
  0006b	e8 00 00 00 00	 call	 ?EncryptValueToPool@?$CEncrypt@H@@AAEXPBD@Z ; CEncrypt<int>::EncryptValueToPool

; 357  : 		m_skin_color		= 1;

  00070	8d 45 f8	 lea	 eax, DWORD PTR _value$539605[ebp]
  00073	50		 push	 eax
  00074	8d 8e 20 01 00
	00		 lea	 ecx, DWORD PTR [esi+288]
  0007a	89 5d f8	 mov	 DWORD PTR _value$539605[ebp], ebx
  0007d	e8 00 00 00 00	 call	 ?EncryptValueToPool@?$CEncrypt@H@@AAEXPBD@Z ; CEncrypt<int>::EncryptValueToPool

; 358  : 		m_hair_color		= 1;

  00082	8d 45 f8	 lea	 eax, DWORD PTR _value$539609[ebp]
  00085	50		 push	 eax
  00086	8d 8e 50 01 00
	00		 lea	 ecx, DWORD PTR [esi+336]
  0008c	89 5d f8	 mov	 DWORD PTR _value$539609[ebp], ebx
  0008f	e8 00 00 00 00	 call	 ?EncryptValueToPool@?$CEncrypt@H@@AAEXPBD@Z ; CEncrypt<int>::EncryptValueToPool

; 359  : 		m_accessories		= 1;

  00094	8d 45 f8	 lea	 eax, DWORD PTR _value$539613[ebp]
  00097	50		 push	 eax
  00098	8d 8e 80 01 00
	00		 lea	 ecx, DWORD PTR [esi+384]
  0009e	89 5d f8	 mov	 DWORD PTR _value$539613[ebp], ebx
  000a1	e8 00 00 00 00	 call	 ?EncryptValueToPool@?$CEncrypt@H@@AAEXPBD@Z ; CEncrypt<int>::EncryptValueToPool

; 360  : 		m_underwear			= 1;

  000a6	8d 45 f8	 lea	 eax, DWORD PTR _value$539617[ebp]
  000a9	50		 push	 eax
  000aa	8d 8e b0 01 00
	00		 lea	 ecx, DWORD PTR [esi+432]
  000b0	89 5d f8	 mov	 DWORD PTR _value$539617[ebp], ebx
  000b3	e8 00 00 00 00	 call	 ?EncryptValueToPool@?$CEncrypt@H@@AAEXPBD@Z ; CEncrypt<int>::EncryptValueToPool
  000b8	8d 86 e0 01 00
	00		 lea	 eax, DWORD PTR [esi+480]
  000be	89 45 fc	 mov	 DWORD PTR tv307[ebp], eax
  000c1	c7 45 f8 04 00
	00 00		 mov	 DWORD PTR tv151[ebp], 4
$LL44@Init@2:

; 361  : 
; 362  : 		for(int i = 0; i < MAX_INVENTORY ; i++ )
; 363  : 			m_extra_item[i]	= 0;

  000c8	8b 4d fc	 mov	 ecx, DWORD PTR tv307[ebp]
  000cb	8d 45 f4	 lea	 eax, DWORD PTR _value$539621[ebp]
  000ce	50		 push	 eax
  000cf	89 7d f4	 mov	 DWORD PTR _value$539621[ebp], edi
  000d2	e8 00 00 00 00	 call	 ?EncryptValueToPool@?$CEncrypt@H@@AAEXPBD@Z ; CEncrypt<int>::EncryptValueToPool
  000d7	83 45 fc 30	 add	 DWORD PTR tv307[ebp], 48 ; 00000030H
  000db	ff 4d f8	 dec	 DWORD PTR tv151[ebp]
  000de	75 e8		 jne	 SHORT $LL44@Init@2

; 364  : 
; 365  : 		m_iSlotIndex		= -1;

  000e0	83 8e a0 02 00
	00 ff		 or	 DWORD PTR [esi+672], -1

; 366  : 		m_iLimitSecond		= 0;
; 367  : 
; 368  : 		m_sLeaderType		= CLT_GENERAL;

  000e7	33 c0		 xor	 eax, eax
  000e9	6a 04		 push	 4
  000eb	66 89 86 a8 02
	00 00		 mov	 WORD PTR [esi+680], ax

; 369  : 		m_sRentalType		= CRT_GENERAL;

  000f2	66 89 86 aa 02
	00 00		 mov	 WORD PTR [esi+682], ax

; 370  : 		m_dwRentalMinute	= 0;
; 371  : 		m_ePeriodType		= CPT_TIME;
; 372  : 
; 373  : 		m_bActive			= true;
; 374  : 		m_chExerciseStyle	= 0x00;

  000f9	66 89 86 b5 02
	00 00		 mov	 WORD PTR [esi+693], ax

; 375  : 
; 376  : 		m_iAwakeType		= AWAKE_NONE;
; 377  : 		m_iAwakeLimitTime	= 0;
; 378  : 
; 379  : 		m_eCharPowerUpType = PUGT_NONE;

  00100	88 86 bc 02 00
	00		 mov	 BYTE PTR [esi+700], al
  00106	89 be a4 02 00
	00		 mov	 DWORD PTR [esi+676], edi
  0010c	89 be ac 02 00
	00		 mov	 DWORD PTR [esi+684], edi
  00112	89 be b0 02 00
	00		 mov	 DWORD PTR [esi+688], edi
  00118	88 9e b4 02 00
	00		 mov	 BYTE PTR [esi+692], bl
  0011e	89 be b8 02 00
	00		 mov	 DWORD PTR [esi+696], edi
  00124	8d 86 c8 02 00
	00		 lea	 eax, DWORD PTR [esi+712]
  0012a	59		 pop	 ecx
$LL6@Init@2:

; 380  : 
; 381  : 		for(int i = 0; i < MAX_INVENTORY ; i++ )
; 382  : 			m_EquipCostume[i].Init();

  0012b	89 78 f8	 mov	 DWORD PTR [eax-8], edi
  0012e	89 78 fc	 mov	 DWORD PTR [eax-4], edi
  00131	89 38		 mov	 DWORD PTR [eax], edi
  00133	89 78 04	 mov	 DWORD PTR [eax+4], edi
  00136	83 c0 10	 add	 eax, 16			; 00000010H
  00139	49		 dec	 ecx
  0013a	75 ef		 jne	 SHORT $LL6@Init@2

; 383  : 		for(int i = 0; i < MAX_ACC_INVENTORY ; i++ )

  0013c	6a 03		 push	 3
  0013e	81 c6 08 03 00
	00		 add	 esi, 776		; 00000308H
  00144	58		 pop	 eax
$LL3@Init@2:

; 384  : 			m_EquipAccessory[i].Init();

  00145	89 7e f8	 mov	 DWORD PTR [esi-8], edi
  00148	89 7e fc	 mov	 DWORD PTR [esi-4], edi
  0014b	89 3e		 mov	 DWORD PTR [esi], edi
  0014d	83 c6 0c	 add	 esi, 12			; 0000000cH
  00150	48		 dec	 eax
  00151	75 f2		 jne	 SHORT $LL3@Init@2
  00153	5f		 pop	 edi
  00154	5e		 pop	 esi
  00155	5b		 pop	 ebx

; 385  : 	}

  00156	c9		 leave
  00157	c3		 ret	 0
?Init@CHARACTER@@QAEXXZ ENDP				; CHARACTER::Init
_TEXT	ENDS
PUBLIC	??4CHARACTER@@QAEAAU0@ABU0@@Z			; CHARACTER::operator=
; Function compile flags: /Ogsp
;	COMDAT ??4CHARACTER@@QAEAAU0@ABU0@@Z
_TEXT	SEGMENT
_value$539748 = -12					; size = 4
_value$539743 = -8					; size = 4
tv153 = -4						; size = 4
tv447 = 8						; size = 4
_value$539738 = 8					; size = 4
_value$539733 = 8					; size = 4
_value$539728 = 8					; size = 4
_value$539723 = 8					; size = 4
_value$539718 = 8					; size = 4
_value$539713 = 8					; size = 4
_value$539708 = 8					; size = 4
_value$539703 = 8					; size = 4
_value$539698 = 8					; size = 4
_value$539693 = 8					; size = 4
_value$539688 = 8					; size = 4
_value$539683 = 8					; size = 4
_value$539678 = 8					; size = 4
_value$539673 = 8					; size = 4
_value$539668 = 8					; size = 4
_value$539663 = 8					; size = 4
_value$539658 = 8					; size = 4
_value$539653 = 8					; size = 4
_value$539647 = 8					; size = 4
_value$539642 = 8					; size = 4
_rhs$ = 8						; size = 4
??4CHARACTER@@QAEAAU0@ABU0@@Z PROC			; CHARACTER::operator=, COMDAT
; _this$ = ecx

; 388  : 	{

  00000	55		 push	 ebp
  00001	8b ec		 mov	 ebp, esp
  00003	83 ec 0c	 sub	 esp, 12			; 0000000cH
  00006	53		 push	 ebx
  00007	56		 push	 esi

; 389  : 		m_class_type		= rhs.m_class_type;

  00008	8b 75 08	 mov	 esi, DWORD PTR _rhs$[ebp]
  0000b	57		 push	 edi
  0000c	8d 45 08	 lea	 eax, DWORD PTR _value$539642[ebp]
  0000f	8b d9		 mov	 ebx, ecx
  00011	50		 push	 eax
  00012	8b ce		 mov	 ecx, esi
  00014	e8 00 00 00 00	 call	 ?DecryptValueToPool@?$CEncrypt@H@@QAEXPAH@Z ; CEncrypt<int>::DecryptValueToPool
  00019	8b 45 08	 mov	 eax, DWORD PTR _value$539642[ebp]
  0001c	89 45 08	 mov	 DWORD PTR _value$539647[ebp], eax
  0001f	8d 45 08	 lea	 eax, DWORD PTR _value$539647[ebp]
  00022	50		 push	 eax
  00023	8b cb		 mov	 ecx, ebx
  00025	e8 00 00 00 00	 call	 ?EncryptValueToPool@?$CEncrypt@H@@AAEXPBD@Z ; CEncrypt<int>::EncryptValueToPool

; 390  : 		m_kindred			= rhs.m_kindred;

  0002a	8d 45 08	 lea	 eax, DWORD PTR _value$539653[ebp]
  0002d	50		 push	 eax
  0002e	8d 4e 30	 lea	 ecx, DWORD PTR [esi+48]
  00031	e8 00 00 00 00	 call	 ?DecryptValueToPool@?$CEncrypt@H@@QAEXPAH@Z ; CEncrypt<int>::DecryptValueToPool
  00036	8b 45 08	 mov	 eax, DWORD PTR _value$539653[ebp]
  00039	89 45 08	 mov	 DWORD PTR _value$539658[ebp], eax
  0003c	8d 45 08	 lea	 eax, DWORD PTR _value$539658[ebp]
  0003f	50		 push	 eax
  00040	8d 4b 30	 lea	 ecx, DWORD PTR [ebx+48]
  00043	e8 00 00 00 00	 call	 ?EncryptValueToPool@?$CEncrypt@H@@AAEXPBD@Z ; CEncrypt<int>::EncryptValueToPool

; 391  : 		m_sex				= rhs.m_sex;

  00048	8d 45 08	 lea	 eax, DWORD PTR _value$539663[ebp]
  0004b	50		 push	 eax
  0004c	8d 4e 60	 lea	 ecx, DWORD PTR [esi+96]
  0004f	e8 00 00 00 00	 call	 ?DecryptValueToPool@?$CEncrypt@H@@QAEXPAH@Z ; CEncrypt<int>::DecryptValueToPool
  00054	8b 45 08	 mov	 eax, DWORD PTR _value$539663[ebp]
  00057	89 45 08	 mov	 DWORD PTR _value$539668[ebp], eax
  0005a	8d 45 08	 lea	 eax, DWORD PTR _value$539668[ebp]
  0005d	50		 push	 eax
  0005e	8d 4b 60	 lea	 ecx, DWORD PTR [ebx+96]
  00061	e8 00 00 00 00	 call	 ?EncryptValueToPool@?$CEncrypt@H@@AAEXPBD@Z ; CEncrypt<int>::EncryptValueToPool

; 392  : 		m_beard				= rhs.m_beard;

  00066	8d 45 08	 lea	 eax, DWORD PTR _value$539673[ebp]
  00069	50		 push	 eax
  0006a	8d 8e 90 00 00
	00		 lea	 ecx, DWORD PTR [esi+144]
  00070	e8 00 00 00 00	 call	 ?DecryptValueToPool@?$CEncrypt@H@@QAEXPAH@Z ; CEncrypt<int>::DecryptValueToPool
  00075	8b 45 08	 mov	 eax, DWORD PTR _value$539673[ebp]
  00078	89 45 08	 mov	 DWORD PTR _value$539678[ebp], eax
  0007b	8d 45 08	 lea	 eax, DWORD PTR _value$539678[ebp]
  0007e	50		 push	 eax
  0007f	8d 8b 90 00 00
	00		 lea	 ecx, DWORD PTR [ebx+144]
  00085	e8 00 00 00 00	 call	 ?EncryptValueToPool@?$CEncrypt@H@@AAEXPBD@Z ; CEncrypt<int>::EncryptValueToPool

; 393  : 		m_face				= rhs.m_face;

  0008a	8d 45 08	 lea	 eax, DWORD PTR _value$539683[ebp]
  0008d	50		 push	 eax
  0008e	8d 8e c0 00 00
	00		 lea	 ecx, DWORD PTR [esi+192]
  00094	e8 00 00 00 00	 call	 ?DecryptValueToPool@?$CEncrypt@H@@QAEXPAH@Z ; CEncrypt<int>::DecryptValueToPool
  00099	8b 45 08	 mov	 eax, DWORD PTR _value$539683[ebp]
  0009c	89 45 08	 mov	 DWORD PTR _value$539688[ebp], eax
  0009f	8d 45 08	 lea	 eax, DWORD PTR _value$539688[ebp]
  000a2	50		 push	 eax
  000a3	8d 8b c0 00 00
	00		 lea	 ecx, DWORD PTR [ebx+192]
  000a9	e8 00 00 00 00	 call	 ?EncryptValueToPool@?$CEncrypt@H@@AAEXPBD@Z ; CEncrypt<int>::EncryptValueToPool

; 394  : 		m_hair				= rhs.m_hair;

  000ae	8d 45 08	 lea	 eax, DWORD PTR _value$539693[ebp]
  000b1	50		 push	 eax
  000b2	8d 8e f0 00 00
	00		 lea	 ecx, DWORD PTR [esi+240]
  000b8	e8 00 00 00 00	 call	 ?DecryptValueToPool@?$CEncrypt@H@@QAEXPAH@Z ; CEncrypt<int>::DecryptValueToPool
  000bd	8b 45 08	 mov	 eax, DWORD PTR _value$539693[ebp]
  000c0	89 45 08	 mov	 DWORD PTR _value$539698[ebp], eax
  000c3	8d 45 08	 lea	 eax, DWORD PTR _value$539698[ebp]
  000c6	50		 push	 eax
  000c7	8d 8b f0 00 00
	00		 lea	 ecx, DWORD PTR [ebx+240]
  000cd	e8 00 00 00 00	 call	 ?EncryptValueToPool@?$CEncrypt@H@@AAEXPBD@Z ; CEncrypt<int>::EncryptValueToPool

; 395  : 		m_skin_color		= rhs.m_skin_color;

  000d2	8d 45 08	 lea	 eax, DWORD PTR _value$539703[ebp]
  000d5	50		 push	 eax
  000d6	8d 8e 20 01 00
	00		 lea	 ecx, DWORD PTR [esi+288]
  000dc	e8 00 00 00 00	 call	 ?DecryptValueToPool@?$CEncrypt@H@@QAEXPAH@Z ; CEncrypt<int>::DecryptValueToPool
  000e1	8b 45 08	 mov	 eax, DWORD PTR _value$539703[ebp]
  000e4	89 45 08	 mov	 DWORD PTR _value$539708[ebp], eax
  000e7	8d 45 08	 lea	 eax, DWORD PTR _value$539708[ebp]
  000ea	50		 push	 eax
  000eb	8d 8b 20 01 00
	00		 lea	 ecx, DWORD PTR [ebx+288]
  000f1	e8 00 00 00 00	 call	 ?EncryptValueToPool@?$CEncrypt@H@@AAEXPBD@Z ; CEncrypt<int>::EncryptValueToPool

; 396  : 		m_hair_color		= rhs.m_hair_color;

  000f6	8d 45 08	 lea	 eax, DWORD PTR _value$539713[ebp]
  000f9	50		 push	 eax
  000fa	8d 8e 50 01 00
	00		 lea	 ecx, DWORD PTR [esi+336]
  00100	e8 00 00 00 00	 call	 ?DecryptValueToPool@?$CEncrypt@H@@QAEXPAH@Z ; CEncrypt<int>::DecryptValueToPool
  00105	8b 45 08	 mov	 eax, DWORD PTR _value$539713[ebp]
  00108	89 45 08	 mov	 DWORD PTR _value$539718[ebp], eax
  0010b	8d 45 08	 lea	 eax, DWORD PTR _value$539718[ebp]
  0010e	50		 push	 eax
  0010f	8d 8b 50 01 00
	00		 lea	 ecx, DWORD PTR [ebx+336]
  00115	e8 00 00 00 00	 call	 ?EncryptValueToPool@?$CEncrypt@H@@AAEXPBD@Z ; CEncrypt<int>::EncryptValueToPool

; 397  : 		m_accessories		= rhs.m_accessories;

  0011a	8d 45 08	 lea	 eax, DWORD PTR _value$539723[ebp]
  0011d	50		 push	 eax
  0011e	8d 8e 80 01 00
	00		 lea	 ecx, DWORD PTR [esi+384]
  00124	e8 00 00 00 00	 call	 ?DecryptValueToPool@?$CEncrypt@H@@QAEXPAH@Z ; CEncrypt<int>::DecryptValueToPool
  00129	8b 45 08	 mov	 eax, DWORD PTR _value$539723[ebp]
  0012c	89 45 08	 mov	 DWORD PTR _value$539728[ebp], eax
  0012f	8d 45 08	 lea	 eax, DWORD PTR _value$539728[ebp]
  00132	50		 push	 eax
  00133	8d 8b 80 01 00
	00		 lea	 ecx, DWORD PTR [ebx+384]
  00139	e8 00 00 00 00	 call	 ?EncryptValueToPool@?$CEncrypt@H@@AAEXPBD@Z ; CEncrypt<int>::EncryptValueToPool

; 398  : 		m_underwear			= rhs.m_underwear;

  0013e	8d 45 08	 lea	 eax, DWORD PTR _value$539733[ebp]
  00141	50		 push	 eax
  00142	8d 8e b0 01 00
	00		 lea	 ecx, DWORD PTR [esi+432]
  00148	e8 00 00 00 00	 call	 ?DecryptValueToPool@?$CEncrypt@H@@QAEXPAH@Z ; CEncrypt<int>::DecryptValueToPool
  0014d	8b 45 08	 mov	 eax, DWORD PTR _value$539733[ebp]
  00150	89 45 08	 mov	 DWORD PTR _value$539738[ebp], eax
  00153	8d 45 08	 lea	 eax, DWORD PTR _value$539738[ebp]
  00156	50		 push	 eax
  00157	8d 8b b0 01 00
	00		 lea	 ecx, DWORD PTR [ebx+432]
  0015d	e8 00 00 00 00	 call	 ?EncryptValueToPool@?$CEncrypt@H@@AAEXPBD@Z ; CEncrypt<int>::EncryptValueToPool

; 399  : 
; 400  : 		for( int i = 0; i < MAX_INVENTORY ; i++ )

  00162	89 75 08	 mov	 DWORD PTR tv447[ebp], esi
  00165	29 5d 08	 sub	 DWORD PTR tv447[ebp], ebx
  00168	8d bb e0 01 00
	00		 lea	 edi, DWORD PTR [ebx+480]
  0016e	c7 45 fc 04 00
	00 00		 mov	 DWORD PTR tv153[ebp], 4
$LL63@operator@5:

; 401  : 			m_extra_item[i]	= rhs.m_extra_item[i];

  00175	8b 4d 08	 mov	 ecx, DWORD PTR tv447[ebp]
  00178	8d 45 f8	 lea	 eax, DWORD PTR _value$539743[ebp]
  0017b	50		 push	 eax
  0017c	8d 0c 39	 lea	 ecx, DWORD PTR [ecx+edi]
  0017f	e8 00 00 00 00	 call	 ?DecryptValueToPool@?$CEncrypt@H@@QAEXPAH@Z ; CEncrypt<int>::DecryptValueToPool
  00184	8b 45 f8	 mov	 eax, DWORD PTR _value$539743[ebp]
  00187	89 45 f4	 mov	 DWORD PTR _value$539748[ebp], eax
  0018a	8d 45 f4	 lea	 eax, DWORD PTR _value$539748[ebp]
  0018d	50		 push	 eax
  0018e	8b cf		 mov	 ecx, edi
  00190	e8 00 00 00 00	 call	 ?EncryptValueToPool@?$CEncrypt@H@@AAEXPBD@Z ; CEncrypt<int>::EncryptValueToPool
  00195	83 c7 30	 add	 edi, 48			; 00000030H
  00198	ff 4d fc	 dec	 DWORD PTR tv153[ebp]
  0019b	75 d8		 jne	 SHORT $LL63@operator@5

; 402  : 
; 403  : 		m_iSlotIndex		= rhs.m_iSlotIndex;

  0019d	8b 86 a0 02 00
	00		 mov	 eax, DWORD PTR [esi+672]
  001a3	89 83 a0 02 00
	00		 mov	 DWORD PTR [ebx+672], eax

; 404  : 		m_iLimitSecond		= rhs.m_iLimitSecond;

  001a9	8b 86 a4 02 00
	00		 mov	 eax, DWORD PTR [esi+676]
  001af	89 83 a4 02 00
	00		 mov	 DWORD PTR [ebx+676], eax

; 405  : 
; 406  : 		m_sLeaderType		= rhs.m_sLeaderType;

  001b5	66 8b 86 a8 02
	00 00		 mov	 ax, WORD PTR [esi+680]
  001bc	66 89 83 a8 02
	00 00		 mov	 WORD PTR [ebx+680], ax

; 407  : 		m_sRentalType		= rhs.m_sRentalType;

  001c3	66 8b 86 aa 02
	00 00		 mov	 ax, WORD PTR [esi+682]
  001ca	66 89 83 aa 02
	00 00		 mov	 WORD PTR [ebx+682], ax

; 408  : 		m_dwRentalMinute	= rhs.m_dwRentalMinute;

  001d1	8b 86 ac 02 00
	00		 mov	 eax, DWORD PTR [esi+684]
  001d7	89 83 ac 02 00
	00		 mov	 DWORD PTR [ebx+684], eax

; 409  : 		m_ePeriodType		= rhs.m_ePeriodType;

  001dd	8b 86 b0 02 00
	00		 mov	 eax, DWORD PTR [esi+688]
  001e3	89 83 b0 02 00
	00		 mov	 DWORD PTR [ebx+688], eax

; 410  : 
; 411  : 		m_bActive			= rhs.m_bActive;

  001e9	8a 86 b4 02 00
	00		 mov	 al, BYTE PTR [esi+692]
  001ef	88 83 b4 02 00
	00		 mov	 BYTE PTR [ebx+692], al

; 412  : 		m_chExerciseStyle	= rhs.m_chExerciseStyle;

  001f5	8a 86 b5 02 00
	00		 mov	 al, BYTE PTR [esi+693]
  001fb	88 83 b5 02 00
	00		 mov	 BYTE PTR [ebx+693], al

; 413  : 
; 414  : 		m_iAwakeType		= rhs.m_iAwakeType;

  00201	8a 86 b6 02 00
	00		 mov	 al, BYTE PTR [esi+694]
  00207	88 83 b6 02 00
	00		 mov	 BYTE PTR [ebx+694], al

; 415  : 		m_iAwakeLimitTime	= rhs.m_iAwakeLimitTime;

  0020d	8b 86 b8 02 00
	00		 mov	 eax, DWORD PTR [esi+696]
  00213	89 83 b8 02 00
	00		 mov	 DWORD PTR [ebx+696], eax

; 416  : 
; 417  : 		m_eCharPowerUpType = rhs.m_eCharPowerUpType;

  00219	8a 86 bc 02 00
	00		 mov	 al, BYTE PTR [esi+700]
  0021f	6a 04		 push	 4
  00221	88 83 bc 02 00
	00		 mov	 BYTE PTR [ebx+700], al
  00227	8d 83 c0 02 00
	00		 lea	 eax, DWORD PTR [ebx+704]
  0022d	59		 pop	 ecx
$LL62@operator@5:

; 418  : 
; 419  : 		for(int i = 0; i < MAX_INVENTORY ; i++ )
; 420  : 			m_EquipCostume[i] = rhs.m_EquipCostume[i];

  0022e	8b 55 08	 mov	 edx, DWORD PTR tv447[ebp]
  00231	8d 34 10	 lea	 esi, DWORD PTR [eax+edx]
  00234	8b f8		 mov	 edi, eax
  00236	a5		 movsd
  00237	a5		 movsd
  00238	a5		 movsd
  00239	83 c0 10	 add	 eax, 16			; 00000010H
  0023c	49		 dec	 ecx
  0023d	a5		 movsd
  0023e	75 ee		 jne	 SHORT $LL62@operator@5

; 421  : 		for(int i = 0; i < MAX_ACC_INVENTORY ; i++ )

  00240	6a 03		 push	 3
  00242	8d 83 00 03 00
	00		 lea	 eax, DWORD PTR [ebx+768]
  00248	59		 pop	 ecx
$LL3@operator@5:

; 422  : 			m_EquipAccessory[i] = rhs.m_EquipAccessory[i];

  00249	8b 55 08	 mov	 edx, DWORD PTR tv447[ebp]
  0024c	8d 34 10	 lea	 esi, DWORD PTR [eax+edx]
  0024f	8b f8		 mov	 edi, eax
  00251	a5		 movsd
  00252	a5		 movsd
  00253	83 c0 0c	 add	 eax, 12			; 0000000cH
  00256	49		 dec	 ecx
  00257	a5		 movsd
  00258	75 ef		 jne	 SHORT $LL3@operator@5

; 423  : 
; 424  : 		return *this;

  0025a	5f		 pop	 edi
  0025b	5e		 pop	 esi
  0025c	8b c3		 mov	 eax, ebx
  0025e	5b		 pop	 ebx

; 425  : 	}

  0025f	c9		 leave
  00260	c2 04 00	 ret	 4
??4CHARACTER@@QAEAAU0@ABU0@@Z ENDP			; CHARACTER::operator=
_TEXT	ENDS
PUBLIC	?GetPcRoomCharMax@ioMyInfo@@QAEHXZ		; ioMyInfo::GetPcRoomCharMax
; Function compile flags: /Ogsp
; File d:\lost saga for developer\youtube\tutorial\source\src\lsclient\iomyinfo.h
;	COMDAT ?GetPcRoomCharMax@ioMyInfo@@QAEHXZ
_TEXT	SEGMENT
_value$539763 = -4					; size = 4
?GetPcRoomCharMax@ioMyInfo@@QAEHXZ PROC			; ioMyInfo::GetPcRoomCharMax, COMDAT
; _this$ = ecx

; 1071 : 	inline int GetPcRoomCharMax(){	return m_iExcercisePCRoomCharMax; }

  00000	55		 push	 ebp
  00001	8b ec		 mov	 ebp, esp
  00003	51		 push	 ecx
  00004	8d 45 fc	 lea	 eax, DWORD PTR _value$539763[ebp]
  00007	50		 push	 eax
  00008	81 c1 cc 0b 00
	00		 add	 ecx, 3020		; 00000bccH
  0000e	e8 00 00 00 00	 call	 ?DecryptValueToPool@?$CEncrypt@H@@QAEXPAH@Z ; CEncrypt<int>::DecryptValueToPool
  00013	8b 45 fc	 mov	 eax, DWORD PTR _value$539763[ebp]
  00016	c9		 leave
  00017	c3		 ret	 0
?GetPcRoomCharMax@ioMyInfo@@QAEHXZ ENDP			; ioMyInfo::GetPcRoomCharMax
_TEXT	ENDS
PUBLIC	??0?$vector@HV?$allocator@H@std@@@std@@QAE@XZ	; std::vector<int,std::allocator<int> >::vector<int,std::allocator<int> >
; Function compile flags: /Ogsp
; File c:\program files (x86)\microsoft visual studio 10.0\vc\include\vector
;	COMDAT ??0?$vector@HV?$allocator@H@std@@@std@@QAE@XZ
_TEXT	SEGMENT
??0?$vector@HV?$allocator@H@std@@@std@@QAE@XZ PROC	; std::vector<int,std::allocator<int> >::vector<int,std::allocator<int> >, COMDAT
; _this$ = ecx

; 507  : 		{	// construct empty vector

  00000	8b c1		 mov	 eax, ecx
  00002	33 c9		 xor	 ecx, ecx
  00004	89 08		 mov	 DWORD PTR [eax], ecx
  00006	89 48 04	 mov	 DWORD PTR [eax+4], ecx
  00009	89 48 08	 mov	 DWORD PTR [eax+8], ecx

; 508  : 		}

  0000c	c3		 ret	 0
??0?$vector@HV?$allocator@H@std@@@std@@QAE@XZ ENDP	; std::vector<int,std::allocator<int> >::vector<int,std::allocator<int> >
_TEXT	ENDS
PUBLIC	??H?$_Vector_iterator@V?$_Vector_val@HV?$allocator@H@std@@@std@@@std@@QBE?AV01@H@Z ; std::_Vector_iterator<std::_Vector_val<int,std::allocator<int> > >::operator+
; Function compile flags: /Ogsp
;	COMDAT ??H?$_Vector_iterator@V?$_Vector_val@HV?$allocator@H@std@@@std@@@std@@QBE?AV01@H@Z
_TEXT	SEGMENT
___$ReturnUdt$ = 8					; size = 4
__Off$ = 12						; size = 4
??H?$_Vector_iterator@V?$_Vector_val@HV?$allocator@H@std@@@std@@@std@@QBE?AV01@H@Z PROC ; std::_Vector_iterator<std::_Vector_val<int,std::allocator<int> > >::operator+, COMDAT
; _this$ = ecx

; 363  : 		{	// return this + integer

  00000	55		 push	 ebp
  00001	8b ec		 mov	 ebp, esp

; 364  : 		_Myiter _Tmp = *this;
; 365  : 		return (_Tmp += _Off);

  00003	8b 01		 mov	 eax, DWORD PTR [ecx]
  00005	8b 4d 0c	 mov	 ecx, DWORD PTR __Off$[ebp]
  00008	8d 0c 88	 lea	 ecx, DWORD PTR [eax+ecx*4]
  0000b	8b 45 08	 mov	 eax, DWORD PTR ___$ReturnUdt$[ebp]
  0000e	89 08		 mov	 DWORD PTR [eax], ecx

; 366  : 		}

  00010	5d		 pop	 ebp
  00011	c2 08 00	 ret	 8
??H?$_Vector_iterator@V?$_Vector_val@HV?$allocator@H@std@@@std@@@std@@QBE?AV01@H@Z ENDP ; std::_Vector_iterator<std::_Vector_val<int,std::allocator<int> > >::operator+
_TEXT	ENDS
PUBLIC	?_Destroy@?$vector@HV?$allocator@H@std@@@std@@IAEXPAH0@Z ; std::vector<int,std::allocator<int> >::_Destroy
; Function compile flags: /Ogsp
;	COMDAT ?_Destroy@?$vector@HV?$allocator@H@std@@@std@@IAEXPAH0@Z
_TEXT	SEGMENT
__First$ = 8						; size = 4
__Last$ = 12						; size = 4
?_Destroy@?$vector@HV?$allocator@H@std@@@std@@IAEXPAH0@Z PROC ; std::vector<int,std::allocator<int> >::_Destroy, COMDAT
; _this$ = ecx

; 1270 : 		_Destroy_range(_First, _Last, this->_Alval);
; 1271 : 		}

  00000	c2 08 00	 ret	 8
?_Destroy@?$vector@HV?$allocator@H@std@@@std@@IAEXPAH0@Z ENDP ; std::vector<int,std::allocator<int> >::_Destroy
_TEXT	ENDS
PUBLIC	??9?$_Vector_const_iterator@V?$_Vector_val@HV?$allocator@H@std@@@std@@@std@@QBE_NABV01@@Z ; std::_Vector_const_iterator<std::_Vector_val<int,std::allocator<int> > >::operator!=
; Function compile flags: /Ogsp
;	COMDAT ??9?$_Vector_const_iterator@V?$_Vector_val@HV?$allocator@H@std@@@std@@@std@@QBE_NABV01@@Z
_TEXT	SEGMENT
__Right$ = 8						; size = 4
??9?$_Vector_const_iterator@V?$_Vector_val@HV?$allocator@H@std@@@std@@@std@@QBE_NABV01@@Z PROC ; std::_Vector_const_iterator<std::_Vector_val<int,std::allocator<int> > >::operator!=, COMDAT
; _this$ = ecx

; 207  : 		{	// test for iterator inequality

  00000	55		 push	 ebp
  00001	8b ec		 mov	 ebp, esp

; 208  : 		return (!(*this == _Right));

  00003	8b 01		 mov	 eax, DWORD PTR [ecx]
  00005	8b 55 08	 mov	 edx, DWORD PTR __Right$[ebp]
  00008	33 c9		 xor	 ecx, ecx
  0000a	3b 02		 cmp	 eax, DWORD PTR [edx]
  0000c	0f 95 c0	 setne	 al

; 209  : 		}

  0000f	5d		 pop	 ebp
  00010	c2 04 00	 ret	 4
??9?$_Vector_const_iterator@V?$_Vector_val@HV?$allocator@H@std@@@std@@@std@@QBE_NABV01@@Z ENDP ; std::_Vector_const_iterator<std::_Vector_val<int,std::allocator<int> > >::operator!=
_TEXT	ENDS
PUBLIC	??$_Umove@PAH@?$vector@HV?$allocator@H@std@@@std@@IAEPAHPAH00@Z ; std::vector<int,std::allocator<int> >::_Umove<int *>
; Function compile flags: /Ogsp
;	COMDAT ??$_Umove@PAH@?$vector@HV?$allocator@H@std@@@std@@IAEPAHPAH00@Z
_TEXT	SEGMENT
__First$ = 8						; size = 4
__Last$ = 12						; size = 4
__Ptr$ = 16						; size = 4
??$_Umove@PAH@?$vector@HV?$allocator@H@std@@@std@@IAEPAHPAH00@Z PROC ; std::vector<int,std::allocator<int> >::_Umove<int *>, COMDAT
; _this$ = ecx

; 1322 : 		pointer _Umove(_Iter _First, _Iter _Last, pointer _Ptr)

  00000	55		 push	 ebp
  00001	8b ec		 mov	 ebp, esp

; 1323 : 		{	// move initializing [_First, _Last), using allocator
; 1324 : 		return (_Uninitialized_move(_First, _Last,
; 1325 : 			_Ptr, this->_Alval));

  00003	83 c1 0c	 add	 ecx, 12			; 0000000cH
  00006	51		 push	 ecx
  00007	ff 75 10	 push	 DWORD PTR __Ptr$[ebp]
  0000a	ff 75 0c	 push	 DWORD PTR __Last$[ebp]
  0000d	ff 75 08	 push	 DWORD PTR __First$[ebp]
  00010	e8 00 00 00 00	 call	 ??$_Uninitialized_move@PAHPAHV?$allocator@H@std@@@std@@YAPAHPAH00AAV?$allocator@H@0@@Z ; std::_Uninitialized_move<int *,int *,std::allocator<int> >
  00015	83 c4 10	 add	 esp, 16			; 00000010H

; 1326 : 		}

  00018	5d		 pop	 ebp
  00019	c2 0c 00	 ret	 12			; 0000000cH
??$_Umove@PAH@?$vector@HV?$allocator@H@std@@@std@@IAEPAHPAH00@Z ENDP ; std::vector<int,std::allocator<int> >::_Umove<int *>
_TEXT	ENDS
PUBLIC	?GetSelectInfo@ExPCRoomSoldierBonusWnd@@IAEXHAA_NAAH@Z ; ExPCRoomSoldierBonusWnd::GetSelectInfo
; Function compile flags: /Ogsp
; File d:\lost saga for developer\youtube\tutorial\source\src\lsclient\gui\expcroomwnd.cpp
;	COMDAT ?GetSelectInfo@ExPCRoomSoldierBonusWnd@@IAEXHAA_NAAH@Z
_TEXT	SEGMENT
_iClassType$ = 8					; size = 4
_bHas$ = 12						; size = 4
_iSelectNum$ = 16					; size = 4
?GetSelectInfo@ExPCRoomSoldierBonusWnd@@IAEXHAA_NAAH@Z PROC ; ExPCRoomSoldierBonusWnd::GetSelectInfo, COMDAT
; _this$ = ecx

; 448  : {

  00000	55		 push	 ebp
  00001	8b ec		 mov	 ebp, esp

; 449  : 	PCRoomSoldierSelectVec::iterator iter = m_PCRoomSoldierSelectVec.begin();

  00003	8b 81 b8 01 00
	00		 mov	 eax, DWORD PTR [ecx+440]

; 450  : 	for( int i = 0; iter != m_PCRoomSoldierSelectVec.end(); ++iter, ++i )

  00009	8b 89 bc 01 00
	00		 mov	 ecx, DWORD PTR [ecx+444]
  0000f	33 d2		 xor	 edx, edx
  00011	3b c1		 cmp	 eax, ecx
  00013	74 1e		 je	 SHORT $LN2@GetSelectI
  00015	56		 push	 esi
$LL4@GetSelectI:

; 451  : 	{
; 452  : 		PCRoomSoldierSelect& rkInfo = *iter;
; 453  : 		if( rkInfo.m_iClassType == iClassType )

  00016	8b 30		 mov	 esi, DWORD PTR [eax]
  00018	3b 75 08	 cmp	 esi, DWORD PTR _iClassType$[ebp]
  0001b	74 0a		 je	 SHORT $LN38@GetSelectI

; 450  : 	for( int i = 0; iter != m_PCRoomSoldierSelectVec.end(); ++iter, ++i )

  0001d	83 c0 08	 add	 eax, 8
  00020	42		 inc	 edx
  00021	3b c1		 cmp	 eax, ecx
  00023	75 f1		 jne	 SHORT $LL4@GetSelectI

; 451  : 	{
; 452  : 		PCRoomSoldierSelect& rkInfo = *iter;
; 453  : 		if( rkInfo.m_iClassType == iClassType )

  00025	eb 0b		 jmp	 SHORT $LN40@GetSelectI
$LN38@GetSelectI:

; 454  : 		{
; 455  : 			bHas = true;

  00027	8b 45 0c	 mov	 eax, DWORD PTR _bHas$[ebp]
  0002a	c6 00 01	 mov	 BYTE PTR [eax], 1

; 456  : 			iSelectNum = i;

  0002d	8b 45 10	 mov	 eax, DWORD PTR _iSelectNum$[ebp]
  00030	89 10		 mov	 DWORD PTR [eax], edx
$LN40@GetSelectI:
  00032	5e		 pop	 esi
$LN2@GetSelectI:

; 457  : 			return;
; 458  : 		}
; 459  : 	}
; 460  : }

  00033	5d		 pop	 ebp
  00034	c2 0c 00	 ret	 12			; 0000000cH
?GetSelectInfo@ExPCRoomSoldierBonusWnd@@IAEXHAA_NAAH@Z ENDP ; ExPCRoomSoldierBonusWnd::GetSelectInfo
_TEXT	ENDS
PUBLIC	?UpdateSetPage@ExPCRoomSoldierBonusWnd@@IAEXH@Z	; ExPCRoomSoldierBonusWnd::UpdateSetPage
; Function compile flags: /Ogsp
;	COMDAT ?UpdateSetPage@ExPCRoomSoldierBonusWnd@@IAEXH@Z
_TEXT	SEGMENT
_pBtn$532670 = -16					; size = 4
tv211 = -12						; size = 4
_bHas$532675 = -8					; size = 1
_iSelectNum$532676 = -4					; size = 4
_iStartPos$ = 8						; size = 4
_iCurPage$ = 8						; size = 4
?UpdateSetPage@ExPCRoomSoldierBonusWnd@@IAEXH@Z PROC	; ExPCRoomSoldierBonusWnd::UpdateSetPage, COMDAT
; _this$ = ecx

; 544  : {

  00000	55		 push	 ebp
  00001	8b ec		 mov	 ebp, esp
  00003	83 ec 10	 sub	 esp, 16			; 00000010H

; 545  : 	int iPrevPage = m_iCurPage;
; 546  : 	m_iCurPage = iCurPage;

  00006	8b 45 08	 mov	 eax, DWORD PTR _iCurPage$[ebp]
  00009	53		 push	 ebx
  0000a	56		 push	 esi
  0000b	8b f1		 mov	 esi, ecx
  0000d	89 86 a0 01 00
	00		 mov	 DWORD PTR [esi+416], eax

; 547  : 
; 548  : 	int iListSIze = m_ClassTypeList.size();
; 549  : 	int iStartPos = iCurPage * MAX_PAGE_LIST;

  00013	6b c0 0f	 imul	 eax, 15			; 0000000fH
  00016	57		 push	 edi
  00017	8b be ac 01 00
	00		 mov	 edi, DWORD PTR [esi+428]
  0001d	2b be a8 01 00
	00		 sub	 edi, DWORD PTR [esi+424]
  00023	8b d8		 mov	 ebx, eax
  00025	89 5d 08	 mov	 DWORD PTR _iStartPos$[ebp], ebx
  00028	2b d8		 sub	 ebx, eax
  0002a	c1 ff 02	 sar	 edi, 2
  0002d	83 c3 0a	 add	 ebx, 10			; 0000000aH
$LL6@UpdateSetP:

; 551  : 	{
; 552  : 		ExPCRoomSoldierBonusBtn *pBtn = dynamic_cast<ExPCRoomSoldierBonusBtn*>( FindChildWnd( i ) );

  00030	6a 00		 push	 0
  00032	68 00 00 00 00	 push	 OFFSET ??_R0?AVExPCRoomSoldierBonusBtn@@@8
  00037	68 00 00 00 00	 push	 OFFSET ??_R0?AVioWnd@@@8
  0003c	6a 00		 push	 0
  0003e	53		 push	 ebx
  0003f	8b ce		 mov	 ecx, esi
  00041	ff 15 00 00 00
	00		 call	 DWORD PTR __imp_?FindChildWnd@ioWnd@@QAEPAV1@K@Z
  00047	50		 push	 eax
  00048	e8 00 00 00 00	 call	 ___RTDynamicCast
  0004d	8b c8		 mov	 ecx, eax

; 553  : 		if( pBtn )

  0004f	33 d2		 xor	 edx, edx
  00051	83 c4 14	 add	 esp, 20			; 00000014H
  00054	89 4d f0	 mov	 DWORD PTR _pBtn$532670[ebp], ecx
  00057	3b ca		 cmp	 ecx, edx
  00059	74 40		 je	 SHORT $LN5@UpdateSetP

; 554  : 		{
; 555  : 			if( iStartPos < iListSIze )

  0005b	8b 45 08	 mov	 eax, DWORD PTR _iStartPos$[ebp]
  0005e	3b c7		 cmp	 eax, edi
  00060	7d 30		 jge	 SHORT $LN2@UpdateSetP

; 556  : 			{
; 557  : 				bool bHas = false;
; 558  : 				int iSelectNum = 0;
; 559  : 				GetSelectInfo( m_ClassTypeList[iStartPos], bHas, iSelectNum );

  00062	8b 8e a8 01 00
	00		 mov	 ecx, DWORD PTR [esi+424]
  00068	8b 04 81	 mov	 eax, DWORD PTR [ecx+eax*4]
  0006b	8d 4d fc	 lea	 ecx, DWORD PTR _iSelectNum$532676[ebp]
  0006e	51		 push	 ecx
  0006f	8d 4d f8	 lea	 ecx, DWORD PTR _bHas$532675[ebp]
  00072	51		 push	 ecx
  00073	50		 push	 eax
  00074	8b ce		 mov	 ecx, esi
  00076	88 55 f8	 mov	 BYTE PTR _bHas$532675[ebp], dl
  00079	89 55 fc	 mov	 DWORD PTR _iSelectNum$532676[ebp], edx
  0007c	89 45 f4	 mov	 DWORD PTR tv211[ebp], eax
  0007f	e8 00 00 00 00	 call	 ?GetSelectInfo@ExPCRoomSoldierBonusWnd@@IAEXHAA_NAAH@Z ; ExPCRoomSoldierBonusWnd::GetSelectInfo

; 560  : 				pBtn->SetClassType( m_ClassTypeList[iStartPos], bHas, iSelectNum );

  00084	ff 75 fc	 push	 DWORD PTR _iSelectNum$532676[ebp]
  00087	8b 4d f0	 mov	 ecx, DWORD PTR _pBtn$532670[ebp]
  0008a	ff 75 f8	 push	 DWORD PTR _bHas$532675[ebp]
  0008d	ff 75 f4	 push	 DWORD PTR tv211[ebp]

; 561  : 			}
; 562  : 			else

  00090	eb 04		 jmp	 SHORT $LN17@UpdateSetP
$LN2@UpdateSetP:

; 563  : 			{
; 564  : 				pBtn->SetClassType( -1, false, 0 );

  00092	52		 push	 edx
  00093	52		 push	 edx
  00094	6a ff		 push	 -1
$LN17@UpdateSetP:
  00096	e8 00 00 00 00	 call	 ?SetClassType@ExPCRoomSoldierBonusBtn@@QAEXH_NH@Z ; ExPCRoomSoldierBonusBtn::SetClassType
$LN5@UpdateSetP:

; 550  : 	for(int i = ID_BONUS_CHAR_BTN01; i <= ID_BONUS_CHAR_BTN15; ++i, ++iStartPos )

  0009b	ff 45 08	 inc	 DWORD PTR _iStartPos$[ebp]
  0009e	43		 inc	 ebx
  0009f	83 fb 18	 cmp	 ebx, 24			; 00000018H
  000a2	7e 8c		 jle	 SHORT $LL6@UpdateSetP
  000a4	5f		 pop	 edi
  000a5	5e		 pop	 esi
  000a6	5b		 pop	 ebx

; 565  : 			}
; 566  : 		}
; 567  : 	}	
; 568  : }

  000a7	c9		 leave
  000a8	c2 04 00	 ret	 4
?UpdateSetPage@ExPCRoomSoldierBonusWnd@@IAEXH@Z ENDP	; ExPCRoomSoldierBonusWnd::UpdateSetPage
; Function compile flags: /Ogsp
_TEXT	ENDS
;	COMDAT ??_GSelectCharViewWnd@@UAEPAXI@Z
_TEXT	SEGMENT
___flags$ = 8						; size = 4
??_GSelectCharViewWnd@@UAEPAXI@Z PROC			; SelectCharViewWnd::`scalar deleting destructor', COMDAT
; _this$ = ecx
  00000	55		 push	 ebp
  00001	8b ec		 mov	 ebp, esp
  00003	56		 push	 esi
  00004	8b f1		 mov	 esi, ecx
  00006	e8 00 00 00 00	 call	 ??1SelectCharViewWnd@@UAE@XZ ; SelectCharViewWnd::~SelectCharViewWnd
  0000b	f6 45 08 01	 test	 BYTE PTR ___flags$[ebp], 1
  0000f	74 07		 je	 SHORT $LN1@scalar@7
  00011	56		 push	 esi
  00012	e8 00 00 00 00	 call	 ??3@YAXPAX@Z		; operator delete
  00017	59		 pop	 ecx
$LN1@scalar@7:
  00018	8b c6		 mov	 eax, esi
  0001a	5e		 pop	 esi
  0001b	5d		 pop	 ebp
  0001c	c2 04 00	 ret	 4
??_GSelectCharViewWnd@@UAEPAXI@Z ENDP			; SelectCharViewWnd::`scalar deleting destructor'
_TEXT	ENDS
PUBLIC	?SetChar@SelectCharViewWnd@@QAEXABUCHARACTER@@@Z ; SelectCharViewWnd::SetChar
; Function compile flags: /Ogsp
;	COMDAT ?SetChar@SelectCharViewWnd@@QAEXABUCHARACTER@@@Z
_TEXT	SEGMENT
_value$539942 = -8					; size = 4
_value$539938 = -4					; size = 4
_value$539933 = -4					; size = 4
_value$539950 = 8					; size = 4
_value$539946 = 8					; size = 4
_rkInfo$ = 8						; size = 4
?SetChar@SelectCharViewWnd@@QAEXABUCHARACTER@@@Z PROC	; SelectCharViewWnd::SetChar, COMDAT
; _this$ = ecx

; 1158 : {

  00000	55		 push	 ebp
  00001	8b ec		 mov	 ebp, esp
  00003	51		 push	 ecx
  00004	51		 push	 ecx
  00005	56		 push	 esi

; 1159 : 	if( rkInfo.m_class_type <= 0 )

  00006	8d 45 fc	 lea	 eax, DWORD PTR _value$539933[ebp]
  00009	8b f1		 mov	 esi, ecx
  0000b	8b 4d 08	 mov	 ecx, DWORD PTR _rkInfo$[ebp]
  0000e	50		 push	 eax
  0000f	e8 00 00 00 00	 call	 ?DecryptValueToPool@?$CEncrypt@H@@QAEXPAH@Z ; CEncrypt<int>::DecryptValueToPool
  00014	83 7d fc 00	 cmp	 DWORD PTR _value$539933[ebp], 0
  00018	7e 67		 jle	 SHORT $LN2@SetChar

; 1160 : 		return;
; 1161 : 
; 1162 : 	int iPreClassType = m_CharInfo.m_class_type;

  0001a	53		 push	 ebx
  0001b	57		 push	 edi
  0001c	8d 45 fc	 lea	 eax, DWORD PTR _value$539938[ebp]
  0001f	8d be 68 01 00
	00		 lea	 edi, DWORD PTR [esi+360]
  00025	50		 push	 eax
  00026	8b cf		 mov	 ecx, edi
  00028	e8 00 00 00 00	 call	 ?DecryptValueToPool@?$CEncrypt@H@@QAEXPAH@Z ; CEncrypt<int>::DecryptValueToPool

; 1163 : 	int iPreSexType   = m_CharInfo.m_sex;

  0002d	8d 45 f8	 lea	 eax, DWORD PTR _value$539942[ebp]
  00030	50		 push	 eax
  00031	8d 8e c8 01 00
	00		 lea	 ecx, DWORD PTR [esi+456]
  00037	e8 00 00 00 00	 call	 ?DecryptValueToPool@?$CEncrypt@H@@QAEXPAH@Z ; CEncrypt<int>::DecryptValueToPool

; 1164 : 
; 1165 : 	m_CharInfo = rkInfo;

  0003c	ff 75 08	 push	 DWORD PTR _rkInfo$[ebp]
  0003f	8b cf		 mov	 ecx, edi
  00041	e8 00 00 00 00	 call	 ??4CHARACTER@@QAEAAU0@ABU0@@Z ; CHARACTER::operator=

; 1166 : 	CreateCharacter( m_CharInfo );

  00046	57		 push	 edi
  00047	8b ce		 mov	 ecx, esi
  00049	e8 00 00 00 00	 call	 ?CreateCharacter@SelectCharViewWnd@@IAEXABUCHARACTER@@@Z ; SelectCharViewWnd::CreateCharacter

; 1167 : 
; 1168 : 	if( iPreClassType != m_CharInfo.m_class_type || iPreSexType != m_CharInfo.m_sex )

  0004e	8d 45 08	 lea	 eax, DWORD PTR _value$539946[ebp]
  00051	50		 push	 eax
  00052	8b cf		 mov	 ecx, edi
  00054	e8 00 00 00 00	 call	 ?DecryptValueToPool@?$CEncrypt@H@@QAEXPAH@Z ; CEncrypt<int>::DecryptValueToPool
  00059	8b 45 fc	 mov	 eax, DWORD PTR _value$539938[ebp]
  0005c	3b 45 08	 cmp	 eax, DWORD PTR _value$539946[ebp]
  0005f	75 17		 jne	 SHORT $LN1@SetChar
  00061	8d 45 08	 lea	 eax, DWORD PTR _value$539950[ebp]
  00064	50		 push	 eax
  00065	8d 8e c8 01 00
	00		 lea	 ecx, DWORD PTR [esi+456]
  0006b	e8 00 00 00 00	 call	 ?DecryptValueToPool@?$CEncrypt@H@@QAEXPAH@Z ; CEncrypt<int>::DecryptValueToPool
  00070	8b 45 f8	 mov	 eax, DWORD PTR _value$539942[ebp]
  00073	3b 45 08	 cmp	 eax, DWORD PTR _value$539950[ebp]
  00076	74 07		 je	 SHORT $LN16@SetChar
$LN1@SetChar:

; 1169 : 		InitRotate();

  00078	8b ce		 mov	 ecx, esi
  0007a	e8 00 00 00 00	 call	 ?InitRotate@SelectCharViewWnd@@IAEXXZ ; SelectCharViewWnd::InitRotate
$LN16@SetChar:
  0007f	5f		 pop	 edi
  00080	5b		 pop	 ebx
$LN2@SetChar:
  00081	5e		 pop	 esi

; 1170 : }

  00082	c9		 leave
  00083	c2 04 00	 ret	 4
?SetChar@SelectCharViewWnd@@QAEXABUCHARACTER@@@Z ENDP	; SelectCharViewWnd::SetChar
_TEXT	ENDS
PUBLIC	?pop_back@?$vector@UPCRoomSoldierSelect@ExPCRoomSoldierBonusWnd@@V?$allocator@UPCRoomSoldierSelect@ExPCRoomSoldierBonusWnd@@@std@@@std@@QAEXXZ ; std::vector<ExPCRoomSoldierBonusWnd::PCRoomSoldierSelect,std::allocator<ExPCRoomSoldierBonusWnd::PCRoomSoldierSelect> >::pop_back
; Function compile flags: /Ogsp
; File c:\program files (x86)\microsoft visual studio 10.0\vc\include\vector
;	COMDAT ?pop_back@?$vector@UPCRoomSoldierSelect@ExPCRoomSoldierBonusWnd@@V?$allocator@UPCRoomSoldierSelect@ExPCRoomSoldierBonusWnd@@@std@@@std@@QAEXXZ
_TEXT	SEGMENT
?pop_back@?$vector@UPCRoomSoldierSelect@ExPCRoomSoldierBonusWnd@@V?$allocator@UPCRoomSoldierSelect@ExPCRoomSoldierBonusWnd@@@std@@@std@@QAEXXZ PROC ; std::vector<ExPCRoomSoldierBonusWnd::PCRoomSoldierSelect,std::allocator<ExPCRoomSoldierBonusWnd::PCRoomSoldierSelect> >::pop_back, COMDAT
; _this$ = ecx

; 1017 : 		if (!empty())

  00000	8b 41 04	 mov	 eax, DWORD PTR [ecx+4]
  00003	39 01		 cmp	 DWORD PTR [ecx], eax
  00005	74 06		 je	 SHORT $LN1@pop_back

; 1018 : 			{	// erase last element
; 1019 : 			_Dest_val(this->_Alval,
; 1020 : 				this->_Mylast - 1);
; 1021 : 			--this->_Mylast;

  00007	83 c0 f8	 add	 eax, -8			; fffffff8H
  0000a	89 41 04	 mov	 DWORD PTR [ecx+4], eax
$LN1@pop_back:

; 1022 : 			}
; 1023 : 		}

  0000d	c3		 ret	 0
?pop_back@?$vector@UPCRoomSoldierSelect@ExPCRoomSoldierBonusWnd@@V?$allocator@UPCRoomSoldierSelect@ExPCRoomSoldierBonusWnd@@@std@@@std@@QAEXXZ ENDP ; std::vector<ExPCRoomSoldierBonusWnd::PCRoomSoldierSelect,std::allocator<ExPCRoomSoldierBonusWnd::PCRoomSoldierSelect> >::pop_back
_TEXT	ENDS
PUBLIC	??$_Destroy_range@V?$allocator@UPCRoomSoldierSelect@ExPCRoomSoldierBonusWnd@@@std@@@std@@YAXPAUPCRoomSoldierSelect@ExPCRoomSoldierBonusWnd@@0AAV?$allocator@UPCRoomSoldierSelect@ExPCRoomSoldierBonusWnd@@@0@@Z ; std::_Destroy_range<std::allocator<ExPCRoomSoldierBonusWnd::PCRoomSoldierSelect> >
; Function compile flags: /Ogsp
; File c:\program files (x86)\microsoft visual studio 10.0\vc\include\xmemory
;	COMDAT ??$_Destroy_range@V?$allocator@UPCRoomSoldierSelect@ExPCRoomSoldierBonusWnd@@@std@@@std@@YAXPAUPCRoomSoldierSelect@ExPCRoomSoldierBonusWnd@@0AAV?$allocator@UPCRoomSoldierSelect@ExPCRoomSoldierBonusWnd@@@0@@Z
_TEXT	SEGMENT
__First$ = 8						; size = 4
__Last$ = 12						; size = 4
__Al$ = 16						; size = 4
??$_Destroy_range@V?$allocator@UPCRoomSoldierSelect@ExPCRoomSoldierBonusWnd@@@std@@@std@@YAXPAUPCRoomSoldierSelect@ExPCRoomSoldierBonusWnd@@0AAV?$allocator@UPCRoomSoldierSelect@ExPCRoomSoldierBonusWnd@@@0@@Z PROC ; std::_Destroy_range<std::allocator<ExPCRoomSoldierBonusWnd::PCRoomSoldierSelect> >, COMDAT

; 88   : 	_Destroy_range(_First, _Last, _Al, _Ptr_cat(_First, _Last));
; 89   : 	}

  00000	c3		 ret	 0
??$_Destroy_range@V?$allocator@UPCRoomSoldierSelect@ExPCRoomSoldierBonusWnd@@@std@@@std@@YAXPAUPCRoomSoldierSelect@ExPCRoomSoldierBonusWnd@@0AAV?$allocator@UPCRoomSoldierSelect@ExPCRoomSoldierBonusWnd@@@0@@Z ENDP ; std::_Destroy_range<std::allocator<ExPCRoomSoldierBonusWnd::PCRoomSoldierSelect> >
_TEXT	ENDS
PUBLIC	??G?$_Vector_iterator@V?$_Vector_val@HV?$allocator@H@std@@@std@@@std@@QBE?AV01@H@Z ; std::_Vector_iterator<std::_Vector_val<int,std::allocator<int> > >::operator-
; Function compile flags: /Ogsp
; File c:\program files (x86)\microsoft visual studio 10.0\vc\include\vector
;	COMDAT ??G?$_Vector_iterator@V?$_Vector_val@HV?$allocator@H@std@@@std@@@std@@QBE?AV01@H@Z
_TEXT	SEGMENT
___$ReturnUdt$ = 8					; size = 4
__Off$ = 12						; size = 4
??G?$_Vector_iterator@V?$_Vector_val@HV?$allocator@H@std@@@std@@@std@@QBE?AV01@H@Z PROC ; std::_Vector_iterator<std::_Vector_val<int,std::allocator<int> > >::operator-, COMDAT
; _this$ = ecx

; 374  : 		{	// return this - integer

  00000	55		 push	 ebp
  00001	8b ec		 mov	 ebp, esp

; 375  : 		_Myiter _Tmp = *this;
; 376  : 		return (_Tmp -= _Off);

  00003	8b 45 0c	 mov	 eax, DWORD PTR __Off$[ebp]
  00006	8b 09		 mov	 ecx, DWORD PTR [ecx]
  00008	c1 e0 02	 shl	 eax, 2
  0000b	2b c8		 sub	 ecx, eax
  0000d	8b 45 08	 mov	 eax, DWORD PTR ___$ReturnUdt$[ebp]
  00010	89 08		 mov	 DWORD PTR [eax], ecx

; 377  : 		}

  00012	5d		 pop	 ebp
  00013	c2 08 00	 ret	 8
??G?$_Vector_iterator@V?$_Vector_val@HV?$allocator@H@std@@@std@@@std@@QBE?AV01@H@Z ENDP ; std::_Vector_iterator<std::_Vector_val<int,std::allocator<int> > >::operator-
_TEXT	ENDS
PUBLIC	??$_Uninit_move@PAUPCRoomSoldierSelect@ExPCRoomSoldierBonusWnd@@PAU12@V?$allocator@UPCRoomSoldierSelect@ExPCRoomSoldierBonusWnd@@@std@@U12@@std@@YAPAUPCRoomSoldierSelect@ExPCRoomSoldierBonusWnd@@PAU12@00AAV?$allocator@UPCRoomSoldierSelect@ExPCRoomSoldierBonusWnd@@@0@0U_Nonscalar_ptr_iterator_tag@0@@Z ; std::_Uninit_move<ExPCRoomSoldierBonusWnd::PCRoomSoldierSelect *,ExPCRoomSoldierBonusWnd::PCRoomSoldierSelect *,std::allocator<ExPCRoomSoldierBonusWnd::PCRoomSoldierSelect>,ExPCRoomSoldierBonusWnd::PCRoomSoldierSelect>
; Function compile flags: /Ogsp
; File c:\program files (x86)\microsoft visual studio 10.0\vc\include\memory
;	COMDAT ??$_Uninit_move@PAUPCRoomSoldierSelect@ExPCRoomSoldierBonusWnd@@PAU12@V?$allocator@UPCRoomSoldierSelect@ExPCRoomSoldierBonusWnd@@@std@@U12@@std@@YAPAUPCRoomSoldierSelect@ExPCRoomSoldierBonusWnd@@PAU12@00AAV?$allocator@UPCRoomSoldierSelect@ExPCRoomSoldierBonusWnd@@@0@0U_Nonscalar_ptr_iterator_tag@0@@Z
_TEXT	SEGMENT
__First$ = 8						; size = 4
__Last$ = 12						; size = 4
__Dest$ = 16						; size = 4
__Al$ = 20						; size = 4
___formal$ = 24						; size = 4
___formal$ = 28						; size = 1
??$_Uninit_move@PAUPCRoomSoldierSelect@ExPCRoomSoldierBonusWnd@@PAU12@V?$allocator@UPCRoomSoldierSelect@ExPCRoomSoldierBonusWnd@@@std@@U12@@std@@YAPAUPCRoomSoldierSelect@ExPCRoomSoldierBonusWnd@@PAU12@00AAV?$allocator@UPCRoomSoldierSelect@ExPCRoomSoldierBonusWnd@@@0@0U_Nonscalar_ptr_iterator_tag@0@@Z PROC ; std::_Uninit_move<ExPCRoomSoldierBonusWnd::PCRoomSoldierSelect *,ExPCRoomSoldierBonusWnd::PCRoomSoldierSelect *,std::allocator<ExPCRoomSoldierBonusWnd::PCRoomSoldierSelect>,ExPCRoomSoldierBonusWnd::PCRoomSoldierSelect>, COMDAT

; 424  : 	{	// move [_First, _Last) to raw _Dest, using _Al, arbitrary type

  00000	55		 push	 ebp
  00001	8b ec		 mov	 ebp, esp
  00003	56		 push	 esi

; 425  : 	_DEBUG_RANGE(_First, _Last);
; 426  : 	_DEBUG_POINTER(_Dest);
; 427  : 	_FwdIt _Next = _Dest;
; 428  : 
; 429  : 	_TRY_BEGIN
; 430  : 	for (; _First != _Last; ++_Dest, ++_First)

  00004	8b 75 08	 mov	 esi, DWORD PTR __First$[ebp]
  00007	eb 16		 jmp	 SHORT $LN24@Uninit_mov
$LL6@Uninit_mov:

; 431  : 		_Cons_val(_Al, _Dest, (_Valty &&)*_First);

  00009	56		 push	 esi
  0000a	ff 75 10	 push	 DWORD PTR __Dest$[ebp]
  0000d	ff 75 14	 push	 DWORD PTR __Al$[ebp]
  00010	e8 00 00 00 00	 call	 ??$_Cons_val@V?$allocator@UPCRoomSoldierSelect@ExPCRoomSoldierBonusWnd@@@std@@UPCRoomSoldierSelect@ExPCRoomSoldierBonusWnd@@U34@@std@@YAXAAV?$allocator@UPCRoomSoldierSelect@ExPCRoomSoldierBonusWnd@@@0@PAUPCRoomSoldierSelect@ExPCRoomSoldierBonusWnd@@$$QAU23@@Z ; std::_Cons_val<std::allocator<ExPCRoomSoldierBonusWnd::PCRoomSoldierSelect>,ExPCRoomSoldierBonusWnd::PCRoomSoldierSelect,ExPCRoomSoldierBonusWnd::PCRoomSoldierSelect>
  00015	83 45 10 08	 add	 DWORD PTR __Dest$[ebp], 8
  00019	83 c4 0c	 add	 esp, 12			; 0000000cH
  0001c	83 c6 08	 add	 esi, 8
$LN24@Uninit_mov:

; 425  : 	_DEBUG_RANGE(_First, _Last);
; 426  : 	_DEBUG_POINTER(_Dest);
; 427  : 	_FwdIt _Next = _Dest;
; 428  : 
; 429  : 	_TRY_BEGIN
; 430  : 	for (; _First != _Last; ++_Dest, ++_First)

  0001f	3b 75 0c	 cmp	 esi, DWORD PTR __Last$[ebp]
  00022	75 e5		 jne	 SHORT $LL6@Uninit_mov

; 432  : 	_CATCH_ALL
; 433  : 	for (; _Next != _Dest; ++_Next)
; 434  : 		_Dest_val(_Al, _Next);
; 435  : 	_RERAISE;
; 436  : 	_CATCH_END
; 437  : 	return (_Dest);

  00024	8b 45 10	 mov	 eax, DWORD PTR __Dest$[ebp]
  00027	5e		 pop	 esi

; 438  : 	}

  00028	5d		 pop	 ebp
  00029	c3		 ret	 0
??$_Uninit_move@PAUPCRoomSoldierSelect@ExPCRoomSoldierBonusWnd@@PAU12@V?$allocator@UPCRoomSoldierSelect@ExPCRoomSoldierBonusWnd@@@std@@U12@@std@@YAPAUPCRoomSoldierSelect@ExPCRoomSoldierBonusWnd@@PAU12@00AAV?$allocator@UPCRoomSoldierSelect@ExPCRoomSoldierBonusWnd@@@0@0U_Nonscalar_ptr_iterator_tag@0@@Z ENDP ; std::_Uninit_move<ExPCRoomSoldierBonusWnd::PCRoomSoldierSelect *,ExPCRoomSoldierBonusWnd::PCRoomSoldierSelect *,std::allocator<ExPCRoomSoldierBonusWnd::PCRoomSoldierSelect>,ExPCRoomSoldierBonusWnd::PCRoomSoldierSelect>
_TEXT	ENDS
PUBLIC	??$advance@V?$_Vector_iterator@V?$_Vector_val@HV?$allocator@H@std@@@std@@@std@@H@std@@YAXAAV?$_Vector_iterator@V?$_Vector_val@HV?$allocator@H@std@@@std@@@0@H@Z ; std::advance<std::_Vector_iterator<std::_Vector_val<int,std::allocator<int> > >,int>
; Function compile flags: /Ogsp
; File c:\program files (x86)\microsoft visual studio 10.0\vc\include\xutility
;	COMDAT ??$advance@V?$_Vector_iterator@V?$_Vector_val@HV?$allocator@H@std@@@std@@@std@@H@std@@YAXAAV?$_Vector_iterator@V?$_Vector_val@HV?$allocator@H@std@@@std@@@0@H@Z
_TEXT	SEGMENT
__Where$ = 8						; size = 4
__Off$ = 12						; size = 4
??$advance@V?$_Vector_iterator@V?$_Vector_val@HV?$allocator@H@std@@@std@@@std@@H@std@@YAXAAV?$_Vector_iterator@V?$_Vector_val@HV?$allocator@H@std@@@std@@@0@H@Z PROC ; std::advance<std::_Vector_iterator<std::_Vector_val<int,std::allocator<int> > >,int>, COMDAT

; 797  : 	{	// increment iterator by offset, arbitrary iterators

  00000	55		 push	 ebp
  00001	8b ec		 mov	 ebp, esp

; 798  : 	_Advance(_Where, _Off, _Iter_cat(_Where));

  00003	8b 4d 0c	 mov	 ecx, DWORD PTR __Off$[ebp]
  00006	8b 45 08	 mov	 eax, DWORD PTR __Where$[ebp]
  00009	c1 e1 02	 shl	 ecx, 2
  0000c	01 08		 add	 DWORD PTR [eax], ecx

; 799  : 	}

  0000e	5d		 pop	 ebp
  0000f	c3		 ret	 0
??$advance@V?$_Vector_iterator@V?$_Vector_val@HV?$allocator@H@std@@@std@@@std@@H@std@@YAXAAV?$_Vector_iterator@V?$_Vector_val@HV?$allocator@H@std@@@std@@@0@H@Z ENDP ; std::advance<std::_Vector_iterator<std::_Vector_val<int,std::allocator<int> > >,int>
_TEXT	ENDS
PUBLIC	??$distance@V?$_Vector_iterator@V?$_Vector_val@UPCRoomSoldierSelect@ExPCRoomSoldierBonusWnd@@V?$allocator@UPCRoomSoldierSelect@ExPCRoomSoldierBonusWnd@@@std@@@std@@@std@@@std@@YAHV?$_Vector_iterator@V?$_Vector_val@UPCRoomSoldierSelect@ExPCRoomSoldierBonusWnd@@V?$allocator@UPCRoomSoldierSelect@ExPCRoomSoldierBonusWnd@@@std@@@std@@@0@0@Z ; std::distance<std::_Vector_iterator<std::_Vector_val<ExPCRoomSoldierBonusWnd::PCRoomSoldierSelect,std::allocator<ExPCRoomSoldierBonusWnd::PCRoomSoldierSelect> > > >
; Function compile flags: /Ogsp
;	COMDAT ??$distance@V?$_Vector_iterator@V?$_Vector_val@UPCRoomSoldierSelect@ExPCRoomSoldierBonusWnd@@V?$allocator@UPCRoomSoldierSelect@ExPCRoomSoldierBonusWnd@@@std@@@std@@@std@@@std@@YAHV?$_Vector_iterator@V?$_Vector_val@UPCRoomSoldierSelect@ExPCRoomSoldierBonusWnd@@V?$allocator@UPCRoomSoldierSelect@ExPCRoomSoldierBonusWnd@@@std@@@std@@@0@0@Z
_TEXT	SEGMENT
__First$ = 8						; size = 4
__Last$ = 12						; size = 4
??$distance@V?$_Vector_iterator@V?$_Vector_val@UPCRoomSoldierSelect@ExPCRoomSoldierBonusWnd@@V?$allocator@UPCRoomSoldierSelect@ExPCRoomSoldierBonusWnd@@@std@@@std@@@std@@@std@@YAHV?$_Vector_iterator@V?$_Vector_val@UPCRoomSoldierSelect@ExPCRoomSoldierBonusWnd@@V?$allocator@UPCRoomSoldierSelect@ExPCRoomSoldierBonusWnd@@@std@@@std@@@0@0@Z PROC ; std::distance<std::_Vector_iterator<std::_Vector_val<ExPCRoomSoldierBonusWnd::PCRoomSoldierSelect,std::allocator<ExPCRoomSoldierBonusWnd::PCRoomSoldierSelect> > > >, COMDAT

; 900  : 	{	// return distance between iterators

  00000	55		 push	 ebp
  00001	8b ec		 mov	 ebp, esp

; 901  : 	typename iterator_traits<_InIt>::difference_type _Off = 0;
; 902  : 	_Distance2(_First, _Last, _Off, _Iter_cat(_First));

  00003	8b 45 0c	 mov	 eax, DWORD PTR __Last$[ebp]
  00006	2b 45 08	 sub	 eax, DWORD PTR __First$[ebp]
  00009	c1 f8 03	 sar	 eax, 3

; 903  : 	return (_Off);
; 904  : 	}

  0000c	5d		 pop	 ebp
  0000d	c3		 ret	 0
??$distance@V?$_Vector_iterator@V?$_Vector_val@UPCRoomSoldierSelect@ExPCRoomSoldierBonusWnd@@V?$allocator@UPCRoomSoldierSelect@ExPCRoomSoldierBonusWnd@@@std@@@std@@@std@@@std@@YAHV?$_Vector_iterator@V?$_Vector_val@UPCRoomSoldierSelect@ExPCRoomSoldierBonusWnd@@V?$allocator@UPCRoomSoldierSelect@ExPCRoomSoldierBonusWnd@@@std@@@std@@@0@0@Z ENDP ; std::distance<std::_Vector_iterator<std::_Vector_val<ExPCRoomSoldierBonusWnd::PCRoomSoldierSelect,std::allocator<ExPCRoomSoldierBonusWnd::PCRoomSoldierSelect> > > >
_TEXT	ENDS
PUBLIC	??$_Rotate@PAHHH@std@@YAXPAH0000@Z		; std::_Rotate<int *,int,int>
; Function compile flags: /Ogsp
;	COMDAT ??$_Rotate@PAHHH@std@@YAXPAH0000@Z
_TEXT	SEGMENT
__First$ = 8						; size = 4
__Count$ = 12						; size = 4
__Mid$ = 12						; size = 4
__Last$ = 16						; size = 4
___formal$ = 20						; size = 4
___formal$ = 24						; size = 4
??$_Rotate@PAHHH@std@@YAXPAH0000@Z PROC			; std::_Rotate<int *,int,int>, COMDAT

; 3256 : 	{	// rotate [_First, _Last), random-access iterators

  00000	55		 push	 ebp
  00001	8b ec		 mov	 ebp, esp

; 3257 : 	_Diff _Shift = _Mid - _First;

  00003	8b 4d 0c	 mov	 ecx, DWORD PTR __Mid$[ebp]
  00006	53		 push	 ebx
  00007	8b 5d 08	 mov	 ebx, DWORD PTR __First$[ebp]
  0000a	56		 push	 esi

; 3258 : 	_Diff _Count = _Last - _First;

  0000b	8b 75 10	 mov	 esi, DWORD PTR __Last$[ebp]
  0000e	2b cb		 sub	 ecx, ebx
  00010	2b f3		 sub	 esi, ebx
  00012	c1 f9 02	 sar	 ecx, 2
  00015	c1 fe 02	 sar	 esi, 2
  00018	57		 push	 edi
  00019	8b c6		 mov	 eax, esi
  0001b	89 75 0c	 mov	 DWORD PTR __Count$[ebp], esi

; 3259 : 
; 3260 : 	for (_Diff _Factor = _Shift; _Factor != 0; )

  0001e	8b f9		 mov	 edi, ecx
  00020	85 c9		 test	 ecx, ecx
  00022	74 0e		 je	 SHORT $LN8@Rotate
$LL9@Rotate:

; 3261 : 		{	// find subcycle count as GCD of shift count and length
; 3262 : 		_Diff _Tmp = _Count % _Factor;

  00024	99		 cdq
  00025	f7 ff		 idiv	 edi

; 3263 : 		_Count = _Factor;

  00027	8b c7		 mov	 eax, edi

; 3264 : 		_Factor = _Tmp;

  00029	8b fa		 mov	 edi, edx
  0002b	85 d2		 test	 edx, edx
  0002d	75 f5		 jne	 SHORT $LL9@Rotate

; 3263 : 		_Count = _Factor;

  0002f	89 45 0c	 mov	 DWORD PTR __Count$[ebp], eax
$LN8@Rotate:

; 3265 : 		}
; 3266 : 
; 3267 : 	if (_Count < _Last - _First)

  00032	3b c6		 cmp	 eax, esi
  00034	7d 4d		 jge	 SHORT $LN4@Rotate

; 3268 : 		for (; 0 < _Count; --_Count)

  00036	85 c0		 test	 eax, eax
  00038	7e 49		 jle	 SHORT $LN4@Rotate
  0003a	8d 04 83	 lea	 eax, DWORD PTR [ebx+eax*4]
$LL34@Rotate:

; 3269 : 			{	// rotate each subcycle
; 3270 : 			_RanIt _Hole = _First + _Count;
; 3271 : 			_RanIt _Next = _Hole;
; 3272 : 			_RanIt _Next1 = _Next + _Shift == _Last ? _First : _Next + _Shift;

  0003d	8d 14 88	 lea	 edx, DWORD PTR [eax+ecx*4]
  00040	8b f8		 mov	 edi, eax
  00042	3b 55 10	 cmp	 edx, DWORD PTR __Last$[ebp]
  00045	75 03		 jne	 SHORT $LL12@Rotate
  00047	8b 55 08	 mov	 edx, DWORD PTR __First$[ebp]
$LL12@Rotate:

; 3273 : 			for (; ; )
; 3274 : 				{	// percolate elements back around subcycle
; 3275 : 				iter_swap(_Next, _Next1);

  0004a	8b 37		 mov	 esi, DWORD PTR [edi]
  0004c	8b 1a		 mov	 ebx, DWORD PTR [edx]
  0004e	89 1f		 mov	 DWORD PTR [edi], ebx
  00050	89 32		 mov	 DWORD PTR [edx], esi

; 3276 : 				_Next = _Next1;
; 3277 : 				_Next1 = _Shift < _Last - _Next1 ? _Next1 + _Shift
; 3278 : 					: _First + (_Shift - (_Last - _Next1));

  00052	8b 75 10	 mov	 esi, DWORD PTR __Last$[ebp]
  00055	2b f2		 sub	 esi, edx
  00057	c1 fe 02	 sar	 esi, 2
  0005a	8b fa		 mov	 edi, edx
  0005c	3b ce		 cmp	 ecx, esi
  0005e	7d 09		 jge	 SHORT $LN14@Rotate
  00060	8b f1		 mov	 esi, ecx
  00062	c1 e6 02	 shl	 esi, 2
  00065	03 d6		 add	 edx, esi
  00067	eb 0a		 jmp	 SHORT $LN15@Rotate
$LN14@Rotate:
  00069	8b d1		 mov	 edx, ecx
  0006b	2b d6		 sub	 edx, esi
  0006d	8b 75 08	 mov	 esi, DWORD PTR __First$[ebp]
  00070	8d 14 96	 lea	 edx, DWORD PTR [esi+edx*4]
$LN15@Rotate:

; 3279 : 				if (_Next1 == _Hole)

  00073	3b d0		 cmp	 edx, eax
  00075	75 d3		 jne	 SHORT $LL12@Rotate

; 3268 : 		for (; 0 < _Count; --_Count)

  00077	ff 4d 0c	 dec	 DWORD PTR __Count$[ebp]
  0007a	83 e8 04	 sub	 eax, 4
  0007d	83 7d 0c 00	 cmp	 DWORD PTR __Count$[ebp], 0
  00081	7f ba		 jg	 SHORT $LL34@Rotate
$LN4@Rotate:
  00083	5f		 pop	 edi
  00084	5e		 pop	 esi
  00085	5b		 pop	 ebx

; 3280 : 					break;
; 3281 : 				}
; 3282 : 			}
; 3283 : 	}

  00086	5d		 pop	 ebp
  00087	c3		 ret	 0
??$_Rotate@PAHHH@std@@YAXPAH0000@Z ENDP			; std::_Rotate<int *,int,int>
_TEXT	ENDS
PUBLIC	??$_Distance2@V?$_Vector_iterator@V?$_Vector_val@HV?$allocator@H@std@@@std@@@std@@H@std@@YAXV?$_Vector_iterator@V?$_Vector_val@HV?$allocator@H@std@@@std@@@0@0AAHUrandom_access_iterator_tag@0@@Z ; std::_Distance2<std::_Vector_iterator<std::_Vector_val<int,std::allocator<int> > >,int>
; Function compile flags: /Ogsp
;	COMDAT ??$_Distance2@V?$_Vector_iterator@V?$_Vector_val@HV?$allocator@H@std@@@std@@@std@@H@std@@YAXV?$_Vector_iterator@V?$_Vector_val@HV?$allocator@H@std@@@std@@@0@0AAHUrandom_access_iterator_tag@0@@Z
_TEXT	SEGMENT
__First$ = 8						; size = 4
__Last$ = 12						; size = 4
__Off$ = 16						; size = 4
___formal$ = 20						; size = 1
??$_Distance2@V?$_Vector_iterator@V?$_Vector_val@HV?$allocator@H@std@@@std@@@std@@H@std@@YAXV?$_Vector_iterator@V?$_Vector_val@HV?$allocator@H@std@@@std@@@0@0AAHUrandom_access_iterator_tag@0@@Z PROC ; std::_Distance2<std::_Vector_iterator<std::_Vector_val<int,std::allocator<int> > >,int>, COMDAT

; 885  : 	{	// add to _Off distance between random-access iterators

  00000	55		 push	 ebp
  00001	8b ec		 mov	 ebp, esp

; 886  :  #if _ITERATOR_DEBUG_LEVEL == 2
; 887  : 	if (_First != _Last)
; 888  : 		{	// check for null pointers
; 889  : 		_DEBUG_POINTER(_First);
; 890  : 		_DEBUG_POINTER(_Last);
; 891  : 		}
; 892  :  #endif /* _ITERATOR_DEBUG_LEVEL == 2 */
; 893  : 
; 894  : 	_Off += _Last - _First;

  00003	8b 4d 0c	 mov	 ecx, DWORD PTR __Last$[ebp]
  00006	2b 4d 08	 sub	 ecx, DWORD PTR __First$[ebp]
  00009	8b 45 10	 mov	 eax, DWORD PTR __Off$[ebp]
  0000c	c1 f9 02	 sar	 ecx, 2
  0000f	01 08		 add	 DWORD PTR [eax], ecx

; 895  : 	}

  00011	5d		 pop	 ebp
  00012	c3		 ret	 0
??$_Distance2@V?$_Vector_iterator@V?$_Vector_val@HV?$allocator@H@std@@@std@@@std@@H@std@@YAXV?$_Vector_iterator@V?$_Vector_val@HV?$allocator@H@std@@@std@@@0@0AAHUrandom_access_iterator_tag@0@@Z ENDP ; std::_Distance2<std::_Vector_iterator<std::_Vector_val<int,std::allocator<int> > >,int>
_TEXT	ENDS
PUBLIC	??$_Rotate@PAUPCRoomSoldierSelect@ExPCRoomSoldierBonusWnd@@HU12@@std@@YAXPAUPCRoomSoldierSelect@ExPCRoomSoldierBonusWnd@@00PAH0@Z ; std::_Rotate<ExPCRoomSoldierBonusWnd::PCRoomSoldierSelect *,int,ExPCRoomSoldierBonusWnd::PCRoomSoldierSelect>
; Function compile flags: /Ogsp
;	COMDAT ??$_Rotate@PAUPCRoomSoldierSelect@ExPCRoomSoldierBonusWnd@@HU12@@std@@YAXPAUPCRoomSoldierSelect@ExPCRoomSoldierBonusWnd@@00PAH0@Z
_TEXT	SEGMENT
__Count$ = -4						; size = 4
__First$ = 8						; size = 4
tv258 = 12						; size = 4
__Mid$ = 12						; size = 4
__Last$ = 16						; size = 4
___formal$ = 20						; size = 4
___formal$ = 24						; size = 4
??$_Rotate@PAUPCRoomSoldierSelect@ExPCRoomSoldierBonusWnd@@HU12@@std@@YAXPAUPCRoomSoldierSelect@ExPCRoomSoldierBonusWnd@@00PAH0@Z PROC ; std::_Rotate<ExPCRoomSoldierBonusWnd::PCRoomSoldierSelect *,int,ExPCRoomSoldierBonusWnd::PCRoomSoldierSelect>, COMDAT

; 3256 : 	{	// rotate [_First, _Last), random-access iterators

  00000	55		 push	 ebp
  00001	8b ec		 mov	 ebp, esp
  00003	51		 push	 ecx

; 3257 : 	_Diff _Shift = _Mid - _First;
; 3258 : 	_Diff _Count = _Last - _First;

  00004	8b 4d 10	 mov	 ecx, DWORD PTR __Last$[ebp]
  00007	53		 push	 ebx
  00008	8b 5d 08	 mov	 ebx, DWORD PTR __First$[ebp]
  0000b	56		 push	 esi
  0000c	8b 75 0c	 mov	 esi, DWORD PTR __Mid$[ebp]
  0000f	2b f3		 sub	 esi, ebx
  00011	2b cb		 sub	 ecx, ebx
  00013	c1 fe 03	 sar	 esi, 3
  00016	c1 f9 03	 sar	 ecx, 3
  00019	57		 push	 edi
  0001a	8b c1		 mov	 eax, ecx
  0001c	89 4d fc	 mov	 DWORD PTR __Count$[ebp], ecx

; 3259 : 
; 3260 : 	for (_Diff _Factor = _Shift; _Factor != 0; )

  0001f	8b fe		 mov	 edi, esi
  00021	85 f6		 test	 esi, esi
  00023	74 0e		 je	 SHORT $LN8@Rotate@2
$LL9@Rotate@2:

; 3261 : 		{	// find subcycle count as GCD of shift count and length
; 3262 : 		_Diff _Tmp = _Count % _Factor;

  00025	99		 cdq
  00026	f7 ff		 idiv	 edi

; 3263 : 		_Count = _Factor;

  00028	8b c7		 mov	 eax, edi

; 3264 : 		_Factor = _Tmp;

  0002a	8b fa		 mov	 edi, edx
  0002c	85 d2		 test	 edx, edx
  0002e	75 f5		 jne	 SHORT $LL9@Rotate@2

; 3263 : 		_Count = _Factor;

  00030	89 45 fc	 mov	 DWORD PTR __Count$[ebp], eax
$LN8@Rotate@2:

; 3265 : 		}
; 3266 : 
; 3267 : 	if (_Count < _Last - _First)

  00033	3b c1		 cmp	 eax, ecx
  00035	7d 5f		 jge	 SHORT $LN4@Rotate@2

; 3268 : 		for (; 0 < _Count; --_Count)

  00037	85 c0		 test	 eax, eax
  00039	7e 5b		 jle	 SHORT $LN4@Rotate@2
  0003b	8d 04 c3	 lea	 eax, DWORD PTR [ebx+eax*8]
  0003e	89 45 0c	 mov	 DWORD PTR tv258[ebp], eax
$LL34@Rotate@2:

; 3269 : 			{	// rotate each subcycle
; 3270 : 			_RanIt _Hole = _First + _Count;
; 3271 : 			_RanIt _Next = _Hole;

  00041	8b 4d 0c	 mov	 ecx, DWORD PTR tv258[ebp]
  00044	8b d1		 mov	 edx, ecx

; 3272 : 			_RanIt _Next1 = _Next + _Shift == _Last ? _First : _Next + _Shift;

  00046	8d 0c f1	 lea	 ecx, DWORD PTR [ecx+esi*8]
  00049	3b 4d 10	 cmp	 ecx, DWORD PTR __Last$[ebp]
  0004c	75 03		 jne	 SHORT $LL12@Rotate@2
  0004e	8b 4d 08	 mov	 ecx, DWORD PTR __First$[ebp]
$LL12@Rotate@2:

; 3273 : 			for (; ; )
; 3274 : 				{	// percolate elements back around subcycle
; 3275 : 				iter_swap(_Next, _Next1);

  00051	8b 3a		 mov	 edi, DWORD PTR [edx]
  00053	8b 19		 mov	 ebx, DWORD PTR [ecx]
  00055	8b 42 04	 mov	 eax, DWORD PTR [edx+4]
  00058	89 1a		 mov	 DWORD PTR [edx], ebx
  0005a	8b 59 04	 mov	 ebx, DWORD PTR [ecx+4]
  0005d	89 5a 04	 mov	 DWORD PTR [edx+4], ebx
  00060	89 39		 mov	 DWORD PTR [ecx], edi

; 3276 : 				_Next = _Next1;
; 3277 : 				_Next1 = _Shift < _Last - _Next1 ? _Next1 + _Shift
; 3278 : 					: _First + (_Shift - (_Last - _Next1));

  00062	8b 7d 10	 mov	 edi, DWORD PTR __Last$[ebp]
  00065	2b f9		 sub	 edi, ecx
  00067	c1 ff 03	 sar	 edi, 3
  0006a	89 41 04	 mov	 DWORD PTR [ecx+4], eax
  0006d	8b d1		 mov	 edx, ecx
  0006f	8b c6		 mov	 eax, esi
  00071	3b f7		 cmp	 esi, edi
  00073	7d 07		 jge	 SHORT $LN14@Rotate@2
  00075	c1 e0 03	 shl	 eax, 3
  00078	03 c8		 add	 ecx, eax
  0007a	eb 08		 jmp	 SHORT $LN15@Rotate@2
$LN14@Rotate@2:
  0007c	8b 4d 08	 mov	 ecx, DWORD PTR __First$[ebp]
  0007f	2b c7		 sub	 eax, edi
  00081	8d 0c c1	 lea	 ecx, DWORD PTR [ecx+eax*8]
$LN15@Rotate@2:

; 3279 : 				if (_Next1 == _Hole)

  00084	3b 4d 0c	 cmp	 ecx, DWORD PTR tv258[ebp]
  00087	75 c8		 jne	 SHORT $LL12@Rotate@2

; 3268 : 		for (; 0 < _Count; --_Count)

  00089	ff 4d fc	 dec	 DWORD PTR __Count$[ebp]
  0008c	83 6d 0c 08	 sub	 DWORD PTR tv258[ebp], 8
  00090	83 7d fc 00	 cmp	 DWORD PTR __Count$[ebp], 0
  00094	7f ab		 jg	 SHORT $LL34@Rotate@2
$LN4@Rotate@2:
  00096	5f		 pop	 edi
  00097	5e		 pop	 esi
  00098	5b		 pop	 ebx

; 3280 : 					break;
; 3281 : 				}
; 3282 : 			}
; 3283 : 	}

  00099	c9		 leave
  0009a	c3		 ret	 0
??$_Rotate@PAUPCRoomSoldierSelect@ExPCRoomSoldierBonusWnd@@HU12@@std@@YAXPAUPCRoomSoldierSelect@ExPCRoomSoldierBonusWnd@@00PAH0@Z ENDP ; std::_Rotate<ExPCRoomSoldierBonusWnd::PCRoomSoldierSelect *,int,ExPCRoomSoldierBonusWnd::PCRoomSoldierSelect>
_TEXT	ENDS
PUBLIC	??0CHARACTER@@QAE@XZ				; CHARACTER::CHARACTER
EXTRN	??_L@YGXPAXIHP6EX0@Z1@Z:PROC			; `eh vector constructor iterator'
;	COMDAT xdata$x
; File d:\lost saga for developer\youtube\tutorial\source\src\lsclient\accessoryenumtype.h
xdata$x	SEGMENT
__ehfuncinfo$??0CHARACTER@@QAE@XZ DD 019930522H
	DD	0bH
	DD	FLAT:__unwindtable$??0CHARACTER@@QAE@XZ
	DD	2 DUP(00H)
	DD	2 DUP(00H)
	DD	00H
	DD	01H
__unwindtable$??0CHARACTER@@QAE@XZ DD 0ffffffffH
	DD	FLAT:__unwindfunclet$??0CHARACTER@@QAE@XZ$0
	DD	00H
	DD	FLAT:__unwindfunclet$??0CHARACTER@@QAE@XZ$1
	DD	01H
	DD	FLAT:__unwindfunclet$??0CHARACTER@@QAE@XZ$2
	DD	02H
	DD	FLAT:__unwindfunclet$??0CHARACTER@@QAE@XZ$3
	DD	03H
	DD	FLAT:__unwindfunclet$??0CHARACTER@@QAE@XZ$4
	DD	04H
	DD	FLAT:__unwindfunclet$??0CHARACTER@@QAE@XZ$5
	DD	05H
	DD	FLAT:__unwindfunclet$??0CHARACTER@@QAE@XZ$6
	DD	06H
	DD	FLAT:__unwindfunclet$??0CHARACTER@@QAE@XZ$7
	DD	07H
	DD	FLAT:__unwindfunclet$??0CHARACTER@@QAE@XZ$8
	DD	08H
	DD	FLAT:__unwindfunclet$??0CHARACTER@@QAE@XZ$9
	DD	09H
	DD	FLAT:__unwindfunclet$??0CHARACTER@@QAE@XZ$10
; Function compile flags: /Ogsp
; File d:\lost saga for developer\youtube\tutorial\source\src\lsclient\characterinfo.h
xdata$x	ENDS
;	COMDAT ??0CHARACTER@@QAE@XZ
_TEXT	SEGMENT
_this$ = -16						; size = 4
__$EHRec$ = -12						; size = 12
??0CHARACTER@@QAE@XZ PROC				; CHARACTER::CHARACTER, COMDAT
; _this$ = ecx

; 344  : 	CHARACTER()

  00000	6a 04		 push	 4
  00002	b8 00 00 00 00	 mov	 eax, __ehhandler$??0CHARACTER@@QAE@XZ
  00007	e8 00 00 00 00	 call	 __EH_prolog3
  0000c	8b f1		 mov	 esi, ecx
  0000e	89 75 f0	 mov	 DWORD PTR _this$[ebp], esi
  00011	e8 00 00 00 00	 call	 ??0?$CEncrypt@H@@QAE@XZ	; CEncrypt<int>::CEncrypt<int>
  00016	33 ff		 xor	 edi, edi
  00018	8d 4e 30	 lea	 ecx, DWORD PTR [esi+48]
  0001b	89 7d fc	 mov	 DWORD PTR __$EHRec$[ebp+8], edi
  0001e	e8 00 00 00 00	 call	 ??0?$CEncrypt@H@@QAE@XZ	; CEncrypt<int>::CEncrypt<int>
  00023	8d 4e 60	 lea	 ecx, DWORD PTR [esi+96]
  00026	c6 45 fc 01	 mov	 BYTE PTR __$EHRec$[ebp+8], 1
  0002a	e8 00 00 00 00	 call	 ??0?$CEncrypt@H@@QAE@XZ	; CEncrypt<int>::CEncrypt<int>
  0002f	8d 8e 90 00 00
	00		 lea	 ecx, DWORD PTR [esi+144]
  00035	c6 45 fc 02	 mov	 BYTE PTR __$EHRec$[ebp+8], 2
  00039	e8 00 00 00 00	 call	 ??0?$CEncrypt@H@@QAE@XZ	; CEncrypt<int>::CEncrypt<int>
  0003e	8d 8e c0 00 00
	00		 lea	 ecx, DWORD PTR [esi+192]
  00044	c6 45 fc 03	 mov	 BYTE PTR __$EHRec$[ebp+8], 3
  00048	e8 00 00 00 00	 call	 ??0?$CEncrypt@H@@QAE@XZ	; CEncrypt<int>::CEncrypt<int>
  0004d	8d 8e f0 00 00
	00		 lea	 ecx, DWORD PTR [esi+240]
  00053	c6 45 fc 04	 mov	 BYTE PTR __$EHRec$[ebp+8], 4
  00057	e8 00 00 00 00	 call	 ??0?$CEncrypt@H@@QAE@XZ	; CEncrypt<int>::CEncrypt<int>
  0005c	8d 8e 20 01 00
	00		 lea	 ecx, DWORD PTR [esi+288]
  00062	c6 45 fc 05	 mov	 BYTE PTR __$EHRec$[ebp+8], 5
  00066	e8 00 00 00 00	 call	 ??0?$CEncrypt@H@@QAE@XZ	; CEncrypt<int>::CEncrypt<int>
  0006b	8d 8e 50 01 00
	00		 lea	 ecx, DWORD PTR [esi+336]
  00071	c6 45 fc 06	 mov	 BYTE PTR __$EHRec$[ebp+8], 6
  00075	e8 00 00 00 00	 call	 ??0?$CEncrypt@H@@QAE@XZ	; CEncrypt<int>::CEncrypt<int>
  0007a	8d 8e 80 01 00
	00		 lea	 ecx, DWORD PTR [esi+384]
  00080	c6 45 fc 07	 mov	 BYTE PTR __$EHRec$[ebp+8], 7
  00084	e8 00 00 00 00	 call	 ??0?$CEncrypt@H@@QAE@XZ	; CEncrypt<int>::CEncrypt<int>
  00089	8d 8e b0 01 00
	00		 lea	 ecx, DWORD PTR [esi+432]
  0008f	c6 45 fc 08	 mov	 BYTE PTR __$EHRec$[ebp+8], 8
  00093	e8 00 00 00 00	 call	 ??0?$CEncrypt@H@@QAE@XZ	; CEncrypt<int>::CEncrypt<int>
  00098	68 00 00 00 00	 push	 OFFSET ??1?$CEncrypt@H@@UAE@XZ ; CEncrypt<int>::~CEncrypt<int>
  0009d	68 00 00 00 00	 push	 OFFSET ??0?$CEncrypt@H@@QAE@XZ ; CEncrypt<int>::CEncrypt<int>
  000a2	6a 04		 push	 4
  000a4	6a 30		 push	 48			; 00000030H
  000a6	8d 86 e0 01 00
	00		 lea	 eax, DWORD PTR [esi+480]
  000ac	50		 push	 eax
  000ad	c6 45 fc 09	 mov	 BYTE PTR __$EHRec$[ebp+8], 9
  000b1	e8 00 00 00 00	 call	 ??_L@YGXPAXIHP6EX0@Z1@Z
  000b6	6a 03		 push	 3
  000b8	c6 45 fc 0a	 mov	 BYTE PTR __$EHRec$[ebp+8], 10 ; 0000000aH
  000bc	8d 86 c0 02 00
	00		 lea	 eax, DWORD PTR [esi+704]
  000c2	59		 pop	 ecx
$LL15@CHARACTER:
  000c3	89 38		 mov	 DWORD PTR [eax], edi
  000c5	89 78 04	 mov	 DWORD PTR [eax+4], edi
  000c8	89 78 08	 mov	 DWORD PTR [eax+8], edi
  000cb	89 78 0c	 mov	 DWORD PTR [eax+12], edi
  000ce	83 c0 10	 add	 eax, 16			; 00000010H
  000d1	49		 dec	 ecx
  000d2	79 ef		 jns	 SHORT $LL15@CHARACTER
  000d4	6a 02		 push	 2
  000d6	8d 86 00 03 00
	00		 lea	 eax, DWORD PTR [esi+768]
  000dc	59		 pop	 ecx
$LL23@CHARACTER:
  000dd	89 38		 mov	 DWORD PTR [eax], edi
  000df	89 78 04	 mov	 DWORD PTR [eax+4], edi
  000e2	89 78 08	 mov	 DWORD PTR [eax+8], edi
  000e5	83 c0 0c	 add	 eax, 12			; 0000000cH
  000e8	49		 dec	 ecx
  000e9	79 f2		 jns	 SHORT $LL23@CHARACTER

; 345  : 	{
; 346  : 		Init();

  000eb	8b ce		 mov	 ecx, esi
  000ed	e8 00 00 00 00	 call	 ?Init@CHARACTER@@QAEXXZ	; CHARACTER::Init

; 347  : 	}

  000f2	8b c6		 mov	 eax, esi
  000f4	e8 00 00 00 00	 call	 __EH_epilog3
  000f9	c3		 ret	 0
_TEXT	ENDS
;	COMDAT text$x
text$x	SEGMENT
__unwindfunclet$??0CHARACTER@@QAE@XZ$0:
  00000	8b 4d f0	 mov	 ecx, DWORD PTR _this$[ebp]
  00003	e9 00 00 00 00	 jmp	 ??1?$CEncrypt@H@@UAE@XZ	; CEncrypt<int>::~CEncrypt<int>
__unwindfunclet$??0CHARACTER@@QAE@XZ$1:
  00008	8b 4d f0	 mov	 ecx, DWORD PTR _this$[ebp]
  0000b	83 c1 30	 add	 ecx, 48			; 00000030H
  0000e	e9 00 00 00 00	 jmp	 ??1?$CEncrypt@H@@UAE@XZ	; CEncrypt<int>::~CEncrypt<int>
__unwindfunclet$??0CHARACTER@@QAE@XZ$2:
  00013	8b 4d f0	 mov	 ecx, DWORD PTR _this$[ebp]
  00016	83 c1 60	 add	 ecx, 96			; 00000060H
  00019	e9 00 00 00 00	 jmp	 ??1?$CEncrypt@H@@UAE@XZ	; CEncrypt<int>::~CEncrypt<int>
__unwindfunclet$??0CHARACTER@@QAE@XZ$3:
  0001e	8b 4d f0	 mov	 ecx, DWORD PTR _this$[ebp]
  00021	81 c1 90 00 00
	00		 add	 ecx, 144		; 00000090H
  00027	e9 00 00 00 00	 jmp	 ??1?$CEncrypt@H@@UAE@XZ	; CEncrypt<int>::~CEncrypt<int>
__unwindfunclet$??0CHARACTER@@QAE@XZ$4:
  0002c	8b 4d f0	 mov	 ecx, DWORD PTR _this$[ebp]
  0002f	81 c1 c0 00 00
	00		 add	 ecx, 192		; 000000c0H
  00035	e9 00 00 00 00	 jmp	 ??1?$CEncrypt@H@@UAE@XZ	; CEncrypt<int>::~CEncrypt<int>
__unwindfunclet$??0CHARACTER@@QAE@XZ$5:
  0003a	8b 4d f0	 mov	 ecx, DWORD PTR _this$[ebp]
  0003d	81 c1 f0 00 00
	00		 add	 ecx, 240		; 000000f0H
  00043	e9 00 00 00 00	 jmp	 ??1?$CEncrypt@H@@UAE@XZ	; CEncrypt<int>::~CEncrypt<int>
__unwindfunclet$??0CHARACTER@@QAE@XZ$6:
  00048	8b 4d f0	 mov	 ecx, DWORD PTR _this$[ebp]
  0004b	81 c1 20 01 00
	00		 add	 ecx, 288		; 00000120H
  00051	e9 00 00 00 00	 jmp	 ??1?$CEncrypt@H@@UAE@XZ	; CEncrypt<int>::~CEncrypt<int>
__unwindfunclet$??0CHARACTER@@QAE@XZ$7:
  00056	8b 4d f0	 mov	 ecx, DWORD PTR _this$[ebp]
  00059	81 c1 50 01 00
	00		 add	 ecx, 336		; 00000150H
  0005f	e9 00 00 00 00	 jmp	 ??1?$CEncrypt@H@@UAE@XZ	; CEncrypt<int>::~CEncrypt<int>
__unwindfunclet$??0CHARACTER@@QAE@XZ$8:
  00064	8b 4d f0	 mov	 ecx, DWORD PTR _this$[ebp]
  00067	81 c1 80 01 00
	00		 add	 ecx, 384		; 00000180H
  0006d	e9 00 00 00 00	 jmp	 ??1?$CEncrypt@H@@UAE@XZ	; CEncrypt<int>::~CEncrypt<int>
__unwindfunclet$??0CHARACTER@@QAE@XZ$9:
  00072	8b 4d f0	 mov	 ecx, DWORD PTR _this$[ebp]
  00075	81 c1 b0 01 00
	00		 add	 ecx, 432		; 000001b0H
  0007b	e9 00 00 00 00	 jmp	 ??1?$CEncrypt@H@@UAE@XZ	; CEncrypt<int>::~CEncrypt<int>
__unwindfunclet$??0CHARACTER@@QAE@XZ$10:
  00080	68 00 00 00 00	 push	 OFFSET ??1?$CEncrypt@H@@UAE@XZ ; CEncrypt<int>::~CEncrypt<int>
  00085	6a 04		 push	 4
  00087	6a 30		 push	 48			; 00000030H
  00089	8b 45 f0	 mov	 eax, DWORD PTR _this$[ebp]
  0008c	05 e0 01 00 00	 add	 eax, 480		; 000001e0H
  00091	50		 push	 eax
  00092	e8 00 00 00 00	 call	 ??_M@YGXPAXIHP6EX0@Z@Z
  00097	c3		 ret	 0
__ehhandler$??0CHARACTER@@QAE@XZ:
  00098	8b 54 24 08	 mov	 edx, DWORD PTR [esp+8]
  0009c	8d 42 0c	 lea	 eax, DWORD PTR [edx+12]
  0009f	8b 4a ec	 mov	 ecx, DWORD PTR [edx-20]
  000a2	33 c8		 xor	 ecx, eax
  000a4	e8 00 00 00 00	 call	 @__security_check_cookie@4
  000a9	b8 00 00 00 00	 mov	 eax, OFFSET __ehfuncinfo$??0CHARACTER@@QAE@XZ
  000ae	e9 00 00 00 00	 jmp	 ___CxxFrameHandler3
text$x	ENDS
??0CHARACTER@@QAE@XZ ENDP				; CHARACTER::CHARACTER
PUBLIC	?erase@?$vector@HV?$allocator@H@std@@@std@@QAE?AV?$_Vector_iterator@V?$_Vector_val@HV?$allocator@H@std@@@std@@@2@V?$_Vector_const_iterator@V?$_Vector_val@HV?$allocator@H@std@@@std@@@2@0@Z ; std::vector<int,std::allocator<int> >::erase
; Function compile flags: /Ogsp
; File c:\program files (x86)\microsoft visual studio 10.0\vc\include\vector
;	COMDAT ?erase@?$vector@HV?$allocator@H@std@@@std@@QAE?AV?$_Vector_iterator@V?$_Vector_val@HV?$allocator@H@std@@@std@@@2@V?$_Vector_const_iterator@V?$_Vector_val@HV?$allocator@H@std@@@std@@@2@0@Z
_TEXT	SEGMENT
___$ReturnUdt$ = 8					; size = 4
__First_arg$ = 12					; size = 4
__Cat$540359 = 16					; size = 1
__Last_arg$ = 16					; size = 4
?erase@?$vector@HV?$allocator@H@std@@@std@@QAE?AV?$_Vector_iterator@V?$_Vector_val@HV?$allocator@H@std@@@std@@@2@V?$_Vector_const_iterator@V?$_Vector_val@HV?$allocator@H@std@@@std@@@2@0@Z PROC ; std::vector<int,std::allocator<int> >::erase, COMDAT
; _this$ = ecx

; 1190 : 		{	// erase [_First, _Last)

  00000	55		 push	 ebp
  00001	8b ec		 mov	 ebp, esp

; 1191 : 		iterator _First = _Make_iter(_First_arg);

  00003	8b 45 0c	 mov	 eax, DWORD PTR __First_arg$[ebp]
  00006	56		 push	 esi
  00007	57		 push	 edi
  00008	8b 7d 08	 mov	 edi, DWORD PTR ___$ReturnUdt$[ebp]
  0000b	8b f1		 mov	 esi, ecx
  0000d	89 07		 mov	 DWORD PTR [edi], eax

; 1192 : 		iterator _Last = _Make_iter(_Last_arg);
; 1193 : 
; 1194 : 		if (_First != _Last)

  0000f	3b 45 10	 cmp	 eax, DWORD PTR __Last_arg$[ebp]
  00012	74 16		 je	 SHORT $LN1@erase

; 1195 : 			{	// worth doing, copy down over hole
; 1196 :  #if _ITERATOR_DEBUG_LEVEL == 2
; 1197 : 			if (_Last < _First || _VICONT(_First) != this
; 1198 : 				|| _VIPTR(_First) < this->_Myfirst
; 1199 : 				|| this->_Mylast < _VIPTR(_Last))
; 1200 : 				_DEBUG_ERROR("vector erase iterator outside range");
; 1201 : 			pointer _Ptr = _Move(_VIPTR(_Last), this->_Mylast,
; 1202 : 				_VIPTR(_First));
; 1203 : 			_Orphan_range(_VIPTR(_First), this->_Mylast);
; 1204 : 
; 1205 :  #else /* _ITERATOR_DEBUG_LEVEL == 2 */
; 1206 : 			pointer _Ptr = _Move(_VIPTR(_Last), this->_Mylast,
; 1207 : 				_VIPTR(_First));

  00014	ff 75 10	 push	 DWORD PTR __Cat$540359[ebp]
  00017	8b 4e 04	 mov	 ecx, DWORD PTR [esi+4]
  0001a	50		 push	 eax
  0001b	51		 push	 ecx
  0001c	ff 75 10	 push	 DWORD PTR __Last_arg$[ebp]
  0001f	e8 00 00 00 00	 call	 ??$_Move@PAHPAH@std@@YAPAHPAH00U_Scalar_ptr_iterator_tag@0@@Z ; std::_Move<int *,int *>
  00024	83 c4 10	 add	 esp, 16			; 00000010H

; 1208 :  #endif /* _ITERATOR_DEBUG_LEVEL == 2 */
; 1209 : 
; 1210 : 			_Destroy(_Ptr, this->_Mylast);
; 1211 : 			this->_Mylast = _Ptr;

  00027	89 46 04	 mov	 DWORD PTR [esi+4], eax
$LN1@erase:

; 1212 : 			}
; 1213 : 		return (_First);

  0002a	8b c7		 mov	 eax, edi
  0002c	5f		 pop	 edi
  0002d	5e		 pop	 esi

; 1214 : 		}

  0002e	5d		 pop	 ebp
  0002f	c2 0c 00	 ret	 12			; 0000000cH
?erase@?$vector@HV?$allocator@H@std@@@std@@QAE?AV?$_Vector_iterator@V?$_Vector_val@HV?$allocator@H@std@@@std@@@2@V?$_Vector_const_iterator@V?$_Vector_val@HV?$allocator@H@std@@@std@@@2@0@Z ENDP ; std::vector<int,std::allocator<int> >::erase
_TEXT	ENDS
PUBLIC	?_Tidy@?$vector@HV?$allocator@H@std@@@std@@IAEXXZ ; std::vector<int,std::allocator<int> >::_Tidy
EXTRN	__imp_?_Orphan_all@_Container_base0@std@@QAEXXZ:PROC
; Function compile flags: /Ogsp
;	COMDAT ?_Tidy@?$vector@HV?$allocator@H@std@@@std@@IAEXXZ
_TEXT	SEGMENT
?_Tidy@?$vector@HV?$allocator@H@std@@@std@@IAEXXZ PROC	; std::vector<int,std::allocator<int> >::_Tidy, COMDAT
; _this$ = ecx

; 1301 : 		{	// free all storage

  00000	56		 push	 esi
  00001	8b f1		 mov	 esi, ecx

; 1302 : 		if (this->_Myfirst != 0)

  00003	83 3e 00	 cmp	 DWORD PTR [esi], 0
  00006	74 0e		 je	 SHORT $LN12@Tidy

; 1303 : 			{	// something to free, destroy and deallocate it
; 1304 : 			this->_Orphan_all();

  00008	ff 15 00 00 00
	00		 call	 DWORD PTR __imp_?_Orphan_all@_Container_base0@std@@QAEXXZ

; 1305 : 			_Destroy(this->_Myfirst, this->_Mylast);
; 1306 : 			this->_Alval.deallocate(this->_Myfirst,
; 1307 : 				this->_Myend - this->_Myfirst);

  0000e	ff 36		 push	 DWORD PTR [esi]
  00010	e8 00 00 00 00	 call	 ??3@YAXPAX@Z		; operator delete
  00015	59		 pop	 ecx
$LN12@Tidy:

; 1308 : 			}
; 1309 : 		this->_Myfirst = 0;

  00016	83 26 00	 and	 DWORD PTR [esi], 0

; 1310 : 		this->_Mylast = 0;

  00019	83 66 04 00	 and	 DWORD PTR [esi+4], 0

; 1311 : 		this->_Myend = 0;

  0001d	83 66 08 00	 and	 DWORD PTR [esi+8], 0
  00021	5e		 pop	 esi

; 1312 : 		}

  00022	c3		 ret	 0
?_Tidy@?$vector@HV?$allocator@H@std@@@std@@IAEXXZ ENDP	; std::vector<int,std::allocator<int> >::_Tidy
_TEXT	ENDS
PUBLIC	?reserve@?$vector@HV?$allocator@H@std@@@std@@QAEXI@Z ; std::vector<int,std::allocator<int> >::reserve
; Function compile flags: /Ogsp
;	COMDAT ?reserve@?$vector@HV?$allocator@H@std@@@std@@QAEXI@Z
_TEXT	SEGMENT
__Count$ = 8						; size = 4
?reserve@?$vector@HV?$allocator@H@std@@@std@@QAEXI@Z PROC ; std::vector<int,std::allocator<int> >::reserve, COMDAT
; _this$ = ecx

; 746  : 		{	// determine new minimum length of allocated storage

  00000	55		 push	 ebp
  00001	8b ec		 mov	 ebp, esp

; 747  : 		if (max_size() < _Count)

  00003	81 7d 08 ff ff
	ff 3f		 cmp	 DWORD PTR __Count$[ebp], 1073741823 ; 3fffffffH
  0000a	56		 push	 esi
  0000b	8b f1		 mov	 esi, ecx
  0000d	76 0b		 jbe	 SHORT $LN5@reserve

; 748  : 			_Xlen();	// result too long

  0000f	68 00 00 00 00	 push	 OFFSET ??_C@_0BD@OLBABOEK@vector?$DMT?$DO?5too?5long?$AA@
  00014	ff 15 00 00 00
	00		 call	 DWORD PTR __imp_?_Xlength_error@std@@YAXPBD@Z
$LN43@reserve:
$LN5@reserve:

; 749  : 		else if (capacity() < _Count)

  0001a	8b 46 08	 mov	 eax, DWORD PTR [esi+8]
  0001d	2b 06		 sub	 eax, DWORD PTR [esi]
  0001f	c1 f8 02	 sar	 eax, 2
  00022	3b 45 08	 cmp	 eax, DWORD PTR __Count$[ebp]
  00025	73 52		 jae	 SHORT $LN3@reserve

; 750  : 			{	// not enough room, reallocate
; 751  : 			pointer _Ptr = this->_Alval.allocate(_Count);

  00027	53		 push	 ebx
  00028	57		 push	 edi
  00029	6a 00		 push	 0
  0002b	ff 75 08	 push	 DWORD PTR __Count$[ebp]
  0002e	e8 00 00 00 00	 call	 ??$_Allocate@H@std@@YAPAHIPAH@Z ; std::_Allocate<int>

; 752  : 
; 753  : 			_TRY_BEGIN
; 754  : 			_Umove(this->_Myfirst, this->_Mylast, _Ptr);

  00033	8b 0e		 mov	 ecx, DWORD PTR [esi]
  00035	8d 56 0c	 lea	 edx, DWORD PTR [esi+12]
  00038	52		 push	 edx
  00039	8b d8		 mov	 ebx, eax
  0003b	8b 46 04	 mov	 eax, DWORD PTR [esi+4]
  0003e	53		 push	 ebx
  0003f	50		 push	 eax
  00040	51		 push	 ecx
  00041	e8 00 00 00 00	 call	 ??$_Uninitialized_move@PAHPAHV?$allocator@H@std@@@std@@YAPAHPAH00AAV?$allocator@H@0@@Z ; std::_Uninitialized_move<int *,int *,std::allocator<int> >

; 755  : 			_CATCH_ALL
; 756  : 			this->_Alval.deallocate(_Ptr, _Count);
; 757  : 			_RERAISE;
; 758  : 			_CATCH_END
; 759  : 
; 760  : 			size_type _Size = size();

  00046	8b 06		 mov	 eax, DWORD PTR [esi]
  00048	8b 7e 04	 mov	 edi, DWORD PTR [esi+4]
  0004b	2b f8		 sub	 edi, eax
  0004d	83 c4 18	 add	 esp, 24			; 00000018H
  00050	c1 ff 02	 sar	 edi, 2

; 761  : 			if (this->_Myfirst != 0)

  00053	85 c0		 test	 eax, eax
  00055	74 07		 je	 SHORT $LN39@reserve

; 762  : 				{	// destroy and deallocate old array
; 763  : 				_Destroy(this->_Myfirst, this->_Mylast);
; 764  : 				this->_Alval.deallocate(this->_Myfirst,
; 765  : 					this->_Myend - this->_Myfirst);

  00057	50		 push	 eax
  00058	e8 00 00 00 00	 call	 ??3@YAXPAX@Z		; operator delete
  0005d	59		 pop	 ecx
$LN39@reserve:

; 766  : 				}
; 767  : 
; 768  : 			this->_Orphan_all();

  0005e	8b ce		 mov	 ecx, esi
  00060	ff 15 00 00 00
	00		 call	 DWORD PTR __imp_?_Orphan_all@_Container_base0@std@@QAEXXZ

; 769  : 			this->_Myend = _Ptr + _Count;

  00066	8b 45 08	 mov	 eax, DWORD PTR __Count$[ebp]
  00069	8d 04 83	 lea	 eax, DWORD PTR [ebx+eax*4]
  0006c	89 46 08	 mov	 DWORD PTR [esi+8], eax

; 770  : 			this->_Mylast = _Ptr + _Size;

  0006f	8d 04 bb	 lea	 eax, DWORD PTR [ebx+edi*4]
  00072	5f		 pop	 edi

; 771  : 			this->_Myfirst = _Ptr;

  00073	89 1e		 mov	 DWORD PTR [esi], ebx
  00075	89 46 04	 mov	 DWORD PTR [esi+4], eax
  00078	5b		 pop	 ebx
$LN3@reserve:
  00079	5e		 pop	 esi

; 772  : 			}
; 773  : 		}

  0007a	5d		 pop	 ebp
  0007b	c2 04 00	 ret	 4
$LN42@reserve:
?reserve@?$vector@HV?$allocator@H@std@@@std@@QAEXI@Z ENDP ; std::vector<int,std::allocator<int> >::reserve
_TEXT	ENDS
PUBLIC	?SelectNewChar@ExPCRoomSoldierBonusWnd@@IAEXABUCHARACTER@@H@Z ; ExPCRoomSoldierBonusWnd::SelectNewChar
; Function compile flags: /Ogsp
; File d:\lost saga for developer\youtube\tutorial\source\src\lsclient\gui\expcroomwnd.cpp
;	COMDAT ?SelectNewChar@ExPCRoomSoldierBonusWnd@@IAEXABUCHARACTER@@H@Z
_TEXT	SEGMENT
_CharInfo$ = 8						; size = 4
tv92 = 12						; size = 4
_iWND$ = 12						; size = 4
?SelectNewChar@ExPCRoomSoldierBonusWnd@@IAEXABUCHARACTER@@H@Z PROC ; ExPCRoomSoldierBonusWnd::SelectNewChar, COMDAT
; _this$ = ecx

; 592  : {

  00000	55		 push	 ebp
  00001	8b ec		 mov	 ebp, esp
  00003	56		 push	 esi
  00004	57		 push	 edi

; 593  : 	SelectCharViewWnd *pCharWnd = dynamic_cast<SelectCharViewWnd *>( FindChildWnd( iWND ));

  00005	33 ff		 xor	 edi, edi
  00007	57		 push	 edi
  00008	68 00 00 00 00	 push	 OFFSET ??_R0?AVSelectCharViewWnd@@@8
  0000d	68 00 00 00 00	 push	 OFFSET ??_R0?AVioWnd@@@8
  00012	57		 push	 edi
  00013	ff 75 0c	 push	 DWORD PTR _iWND$[ebp]
  00016	ff 15 00 00 00
	00		 call	 DWORD PTR __imp_?FindChildWnd@ioWnd@@QAEPAV1@K@Z
  0001c	50		 push	 eax
  0001d	e8 00 00 00 00	 call	 ___RTDynamicCast
  00022	8b f0		 mov	 esi, eax
  00024	83 c4 14	 add	 esp, 20			; 00000014H

; 594  : 	if( pCharWnd )

  00027	3b f7		 cmp	 esi, edi
  00029	74 3c		 je	 SHORT $LN1@SelectNewC

; 595  : 	{
; 596  : 		pCharWnd->SetChar( CharInfo );

  0002b	ff 75 08	 push	 DWORD PTR _CharInfo$[ebp]
  0002e	8b ce		 mov	 ecx, esi
  00030	e8 00 00 00 00	 call	 ?SetChar@SelectCharViewWnd@@QAEXABUCHARACTER@@@Z ; SelectCharViewWnd::SetChar

; 597  : 		pCharWnd->SetCharScale( FLOAT1 );

  00035	b8 01 00 00 00	 mov	 eax, 1
  0003a	89 45 0c	 mov	 DWORD PTR tv92[ebp], eax
  0003d	db 45 0c	 fild	 DWORD PTR tv92[ebp]
  00040	85 c0		 test	 eax, eax
  00042	79 06		 jns	 SHORT $LN6@SelectNewC
  00044	d8 05 00 00 00
	00		 fadd	 DWORD PTR __real@4f800000
$LN6@SelectNewC:
  0004a	51		 push	 ecx
  0004b	8b ce		 mov	 ecx, esi
  0004d	d9 1c 24	 fstp	 DWORD PTR [esp]
  00050	e8 00 00 00 00	 call	 ?SetCharScale@SelectCharViewWnd@@QAEXM@Z ; SelectCharViewWnd::SetCharScale

; 598  : 		pCharWnd->SetEquip( false, false, false );

  00055	57		 push	 edi
  00056	57		 push	 edi
  00057	57		 push	 edi
  00058	8b ce		 mov	 ecx, esi
  0005a	e8 00 00 00 00	 call	 ?SetEquip@SelectCharViewWnd@@QAEX_N00@Z ; SelectCharViewWnd::SetEquip

; 599  : 		pCharWnd->ShowWnd();

  0005f	8b ce		 mov	 ecx, esi
  00061	ff 15 00 00 00
	00		 call	 DWORD PTR __imp_?ShowWnd@ioWnd@@QAEXXZ
$LN1@SelectNewC:
  00067	5f		 pop	 edi
  00068	5e		 pop	 esi

; 600  : 	}
; 601  : }

  00069	5d		 pop	 ebp
  0006a	c2 08 00	 ret	 8
?SelectNewChar@ExPCRoomSoldierBonusWnd@@IAEXABUCHARACTER@@H@Z ENDP ; ExPCRoomSoldierBonusWnd::SelectNewChar
_TEXT	ENDS
PUBLIC	??0SelectCharViewWnd@@QAE@XZ			; SelectCharViewWnd::SelectCharViewWnd
;	COMDAT xdata$x
; File d:\lost saga for developer\youtube\tutorial\source\src\lsclient\stdafx.h
xdata$x	SEGMENT
__unwindtable$??0SelectCharViewWnd@@QAE@XZ DD 0ffffffffH
	DD	FLAT:__unwindfunclet$??0SelectCharViewWnd@@QAE@XZ$0
__ehfuncinfo$??0SelectCharViewWnd@@QAE@XZ DD 019930522H
	DD	01H
	DD	FLAT:__unwindtable$??0SelectCharViewWnd@@QAE@XZ
	DD	2 DUP(00H)
	DD	2 DUP(00H)
	DD	00H
	DD	01H
; Function compile flags: /Ogsp
; File d:\lost saga for developer\youtube\tutorial\source\src\lsclient\gui\expcroomwnd.cpp
xdata$x	ENDS
;	COMDAT ??0SelectCharViewWnd@@QAE@XZ
_TEXT	SEGMENT
tv192 = -16						; size = 4
_this$ = -16						; size = 4
__$EHRec$ = -12						; size = 12
??0SelectCharViewWnd@@QAE@XZ PROC			; SelectCharViewWnd::SelectCharViewWnd, COMDAT
; _this$ = ecx

; 952  : {

  00000	6a 04		 push	 4
  00002	b8 00 00 00 00	 mov	 eax, __ehhandler$??0SelectCharViewWnd@@QAE@XZ
  00007	e8 00 00 00 00	 call	 __EH_prolog3
  0000c	8b f1		 mov	 esi, ecx
  0000e	89 75 f0	 mov	 DWORD PTR _this$[ebp], esi
  00011	ff 15 00 00 00
	00		 call	 DWORD PTR __imp_??0ioWnd@@QAE@XZ
  00017	33 db		 xor	 ebx, ebx
  00019	8d 8e 68 01 00
	00		 lea	 ecx, DWORD PTR [esi+360]
  0001f	89 5d fc	 mov	 DWORD PTR __$EHRec$[ebp+8], ebx
  00022	c7 06 00 00 00
	00		 mov	 DWORD PTR [esi], OFFSET ??_7SelectCharViewWnd@@6B@
  00028	e8 00 00 00 00	 call	 ??0CHARACTER@@QAE@XZ	; CHARACTER::CHARACTER

; 953  : 	m_pUI3DRender = NULL;

  0002d	89 9e 60 01 00
	00		 mov	 DWORD PTR [esi+352], ebx

; 954  : 	m_aMyChar	  = NULL;

  00033	89 9e 64 01 00
	00		 mov	 DWORD PTR [esi+356], ebx

; 955  : 	m_p3DBack	  = NULL;

  00039	89 9e 8c 04 00
	00		 mov	 DWORD PTR [esi+1164], ebx

; 956  : 
; 957  : 	m_iClassType  = 0;

  0003f	89 9e 90 04 00
	00		 mov	 DWORD PTR [esi+1168], ebx

; 958  : 	m_fZPosition  = FLOAT500;

  00045	b8 f4 01 00 00	 mov	 eax, 500		; 000001f4H
  0004a	89 45 f0	 mov	 DWORD PTR tv192[ebp], eax
  0004d	db 45 f0	 fild	 DWORD PTR tv192[ebp]
  00050	85 c0		 test	 eax, eax
  00052	79 06		 jns	 SHORT $LN8@SelectChar@3
  00054	d8 05 00 00 00
	00		 fadd	 DWORD PTR __real@4f800000
$LN8@SelectChar@3:

; 959  : 	m_fRotateYaw  = 0.0f;

  0005a	0f 57 c0	 xorps	 xmm0, xmm0
  0005d	d9 9e 98 04 00
	00		 fstp	 DWORD PTR [esi+1176]
  00063	f3 0f 11 86 94
	04 00 00	 movss	 DWORD PTR [esi+1172], xmm0

; 960  : 
; 961  : 	m_bReleaseHelm	 = false;

  0006b	89 9e a0 04 00
	00		 mov	 DWORD PTR [esi+1184], ebx

; 962  : 	m_bReleaseAllItem= false;
; 963  : 	m_bShopMotion    = false;
; 964  : 	m_bUserInfoToolTip = false;
; 965  : }

  00071	8b c6		 mov	 eax, esi
  00073	e8 00 00 00 00	 call	 __EH_epilog3
  00078	c3		 ret	 0
_TEXT	ENDS
;	COMDAT text$x
text$x	SEGMENT
__unwindfunclet$??0SelectCharViewWnd@@QAE@XZ$0:
  00000	8b 4d f0	 mov	 ecx, DWORD PTR _this$[ebp]
  00003	ff 25 00 00 00
	00		 jmp	 DWORD PTR __imp_??1ioWnd@@UAE@XZ
__ehhandler$??0SelectCharViewWnd@@QAE@XZ:
  00009	8b 54 24 08	 mov	 edx, DWORD PTR [esp+8]
  0000d	8d 42 0c	 lea	 eax, DWORD PTR [edx+12]
  00010	8b 4a ec	 mov	 ecx, DWORD PTR [edx-20]
  00013	33 c8		 xor	 ecx, eax
  00015	e8 00 00 00 00	 call	 @__security_check_cookie@4
  0001a	b8 00 00 00 00	 mov	 eax, OFFSET __ehfuncinfo$??0SelectCharViewWnd@@QAE@XZ
  0001f	e9 00 00 00 00	 jmp	 ___CxxFrameHandler3
text$x	ENDS
??0SelectCharViewWnd@@QAE@XZ ENDP			; SelectCharViewWnd::SelectCharViewWnd
PUBLIC	?_Destroy@?$vector@UPCRoomSoldierSelect@ExPCRoomSoldierBonusWnd@@V?$allocator@UPCRoomSoldierSelect@ExPCRoomSoldierBonusWnd@@@std@@@std@@IAEXPAUPCRoomSoldierSelect@ExPCRoomSoldierBonusWnd@@0@Z ; std::vector<ExPCRoomSoldierBonusWnd::PCRoomSoldierSelect,std::allocator<ExPCRoomSoldierBonusWnd::PCRoomSoldierSelect> >::_Destroy
; Function compile flags: /Ogsp
; File c:\program files (x86)\microsoft visual studio 10.0\vc\include\vector
;	COMDAT ?_Destroy@?$vector@UPCRoomSoldierSelect@ExPCRoomSoldierBonusWnd@@V?$allocator@UPCRoomSoldierSelect@ExPCRoomSoldierBonusWnd@@@std@@@std@@IAEXPAUPCRoomSoldierSelect@ExPCRoomSoldierBonusWnd@@0@Z
_TEXT	SEGMENT
__First$ = 8						; size = 4
__Last$ = 12						; size = 4
?_Destroy@?$vector@UPCRoomSoldierSelect@ExPCRoomSoldierBonusWnd@@V?$allocator@UPCRoomSoldierSelect@ExPCRoomSoldierBonusWnd@@@std@@@std@@IAEXPAUPCRoomSoldierSelect@ExPCRoomSoldierBonusWnd@@0@Z PROC ; std::vector<ExPCRoomSoldierBonusWnd::PCRoomSoldierSelect,std::allocator<ExPCRoomSoldierBonusWnd::PCRoomSoldierSelect> >::_Destroy, COMDAT
; _this$ = ecx

; 1270 : 		_Destroy_range(_First, _Last, this->_Alval);
; 1271 : 		}

  00000	c2 08 00	 ret	 8
?_Destroy@?$vector@UPCRoomSoldierSelect@ExPCRoomSoldierBonusWnd@@V?$allocator@UPCRoomSoldierSelect@ExPCRoomSoldierBonusWnd@@@std@@@std@@IAEXPAUPCRoomSoldierSelect@ExPCRoomSoldierBonusWnd@@0@Z ENDP ; std::vector<ExPCRoomSoldierBonusWnd::PCRoomSoldierSelect,std::allocator<ExPCRoomSoldierBonusWnd::PCRoomSoldierSelect> >::_Destroy
_TEXT	ENDS
PUBLIC	?_Tidy@?$vector@UPCRoomSoldierSelect@ExPCRoomSoldierBonusWnd@@V?$allocator@UPCRoomSoldierSelect@ExPCRoomSoldierBonusWnd@@@std@@@std@@IAEXXZ ; std::vector<ExPCRoomSoldierBonusWnd::PCRoomSoldierSelect,std::allocator<ExPCRoomSoldierBonusWnd::PCRoomSoldierSelect> >::_Tidy
; Function compile flags: /Ogsp
;	COMDAT ?_Tidy@?$vector@UPCRoomSoldierSelect@ExPCRoomSoldierBonusWnd@@V?$allocator@UPCRoomSoldierSelect@ExPCRoomSoldierBonusWnd@@@std@@@std@@IAEXXZ
_TEXT	SEGMENT
?_Tidy@?$vector@UPCRoomSoldierSelect@ExPCRoomSoldierBonusWnd@@V?$allocator@UPCRoomSoldierSelect@ExPCRoomSoldierBonusWnd@@@std@@@std@@IAEXXZ PROC ; std::vector<ExPCRoomSoldierBonusWnd::PCRoomSoldierSelect,std::allocator<ExPCRoomSoldierBonusWnd::PCRoomSoldierSelect> >::_Tidy, COMDAT
; _this$ = ecx

; 1301 : 		{	// free all storage

  00000	56		 push	 esi
  00001	8b f1		 mov	 esi, ecx

; 1302 : 		if (this->_Myfirst != 0)

  00003	83 3e 00	 cmp	 DWORD PTR [esi], 0
  00006	74 0e		 je	 SHORT $LN21@Tidy@2

; 1303 : 			{	// something to free, destroy and deallocate it
; 1304 : 			this->_Orphan_all();

  00008	ff 15 00 00 00
	00		 call	 DWORD PTR __imp_?_Orphan_all@_Container_base0@std@@QAEXXZ

; 1305 : 			_Destroy(this->_Myfirst, this->_Mylast);
; 1306 : 			this->_Alval.deallocate(this->_Myfirst,
; 1307 : 				this->_Myend - this->_Myfirst);

  0000e	ff 36		 push	 DWORD PTR [esi]
  00010	e8 00 00 00 00	 call	 ??3@YAXPAX@Z		; operator delete
  00015	59		 pop	 ecx
$LN21@Tidy@2:

; 1308 : 			}
; 1309 : 		this->_Myfirst = 0;

  00016	83 26 00	 and	 DWORD PTR [esi], 0

; 1310 : 		this->_Mylast = 0;

  00019	83 66 04 00	 and	 DWORD PTR [esi+4], 0

; 1311 : 		this->_Myend = 0;

  0001d	83 66 08 00	 and	 DWORD PTR [esi+8], 0
  00021	5e		 pop	 esi

; 1312 : 		}

  00022	c3		 ret	 0
?_Tidy@?$vector@UPCRoomSoldierSelect@ExPCRoomSoldierBonusWnd@@V?$allocator@UPCRoomSoldierSelect@ExPCRoomSoldierBonusWnd@@@std@@@std@@IAEXXZ ENDP ; std::vector<ExPCRoomSoldierBonusWnd::PCRoomSoldierSelect,std::allocator<ExPCRoomSoldierBonusWnd::PCRoomSoldierSelect> >::_Tidy
_TEXT	ENDS
PUBLIC	??$_Uninitialized_move@PAUPCRoomSoldierSelect@ExPCRoomSoldierBonusWnd@@PAU12@V?$allocator@UPCRoomSoldierSelect@ExPCRoomSoldierBonusWnd@@@std@@@std@@YAPAUPCRoomSoldierSelect@ExPCRoomSoldierBonusWnd@@PAU12@00AAV?$allocator@UPCRoomSoldierSelect@ExPCRoomSoldierBonusWnd@@@0@@Z ; std::_Uninitialized_move<ExPCRoomSoldierBonusWnd::PCRoomSoldierSelect *,ExPCRoomSoldierBonusWnd::PCRoomSoldierSelect *,std::allocator<ExPCRoomSoldierBonusWnd::PCRoomSoldierSelect> >
; Function compile flags: /Ogsp
; File c:\program files (x86)\microsoft visual studio 10.0\vc\include\memory
;	COMDAT ??$_Uninitialized_move@PAUPCRoomSoldierSelect@ExPCRoomSoldierBonusWnd@@PAU12@V?$allocator@UPCRoomSoldierSelect@ExPCRoomSoldierBonusWnd@@@std@@@std@@YAPAUPCRoomSoldierSelect@ExPCRoomSoldierBonusWnd@@PAU12@00AAV?$allocator@UPCRoomSoldierSelect@ExPCRoomSoldierBonusWnd@@@0@@Z
_TEXT	SEGMENT
__Cat$540673 = -4					; size = 1
__First$ = 8						; size = 4
__Last$ = 12						; size = 4
__Dest$ = 16						; size = 4
__Al$ = 20						; size = 4
??$_Uninitialized_move@PAUPCRoomSoldierSelect@ExPCRoomSoldierBonusWnd@@PAU12@V?$allocator@UPCRoomSoldierSelect@ExPCRoomSoldierBonusWnd@@@std@@@std@@YAPAUPCRoomSoldierSelect@ExPCRoomSoldierBonusWnd@@PAU12@00AAV?$allocator@UPCRoomSoldierSelect@ExPCRoomSoldierBonusWnd@@@0@@Z PROC ; std::_Uninitialized_move<ExPCRoomSoldierBonusWnd::PCRoomSoldierSelect *,ExPCRoomSoldierBonusWnd::PCRoomSoldierSelect *,std::allocator<ExPCRoomSoldierBonusWnd::PCRoomSoldierSelect> >, COMDAT

; 469  : 	{	// move [_First, _Last) to raw _Dest, using _Al

  00000	55		 push	 ebp
  00001	8b ec		 mov	 ebp, esp
  00003	51		 push	 ecx

; 470  : 	return (_Uninit_move(_First, _Last, _Dest, _Al,
; 471  : 		_Val_type(_First), _Ptr_cat(_First, _Dest)));

  00004	ff 75 fc	 push	 DWORD PTR __Cat$540673[ebp]
  00007	6a 00		 push	 0
  00009	ff 75 14	 push	 DWORD PTR __Al$[ebp]
  0000c	ff 75 10	 push	 DWORD PTR __Dest$[ebp]
  0000f	ff 75 0c	 push	 DWORD PTR __Last$[ebp]
  00012	ff 75 08	 push	 DWORD PTR __First$[ebp]
  00015	e8 00 00 00 00	 call	 ??$_Uninit_move@PAUPCRoomSoldierSelect@ExPCRoomSoldierBonusWnd@@PAU12@V?$allocator@UPCRoomSoldierSelect@ExPCRoomSoldierBonusWnd@@@std@@U12@@std@@YAPAUPCRoomSoldierSelect@ExPCRoomSoldierBonusWnd@@PAU12@00AAV?$allocator@UPCRoomSoldierSelect@ExPCRoomSoldierBonusWnd@@@0@0U_Nonscalar_ptr_iterator_tag@0@@Z ; std::_Uninit_move<ExPCRoomSoldierBonusWnd::PCRoomSoldierSelect *,ExPCRoomSoldierBonusWnd::PCRoomSoldierSelect *,std::allocator<ExPCRoomSoldierBonusWnd::PCRoomSoldierSelect>,ExPCRoomSoldierBonusWnd::PCRoomSoldierSelect>
  0001a	83 c4 18	 add	 esp, 24			; 00000018H

; 472  : 	}

  0001d	c9		 leave
  0001e	c3		 ret	 0
??$_Uninitialized_move@PAUPCRoomSoldierSelect@ExPCRoomSoldierBonusWnd@@PAU12@V?$allocator@UPCRoomSoldierSelect@ExPCRoomSoldierBonusWnd@@@std@@@std@@YAPAUPCRoomSoldierSelect@ExPCRoomSoldierBonusWnd@@PAU12@00AAV?$allocator@UPCRoomSoldierSelect@ExPCRoomSoldierBonusWnd@@@0@@Z ENDP ; std::_Uninitialized_move<ExPCRoomSoldierBonusWnd::PCRoomSoldierSelect *,ExPCRoomSoldierBonusWnd::PCRoomSoldierSelect *,std::allocator<ExPCRoomSoldierBonusWnd::PCRoomSoldierSelect> >
_TEXT	ENDS
PUBLIC	??$_Rotate@PAH@std@@YAXPAH00Urandom_access_iterator_tag@0@@Z ; std::_Rotate<int *>
; Function compile flags: /Ogsp
; File c:\program files (x86)\microsoft visual studio 10.0\vc\include\xutility
;	COMDAT ??$_Rotate@PAH@std@@YAXPAH00Urandom_access_iterator_tag@0@@Z
_TEXT	SEGMENT
__First$ = 8						; size = 4
__Mid$ = 12						; size = 4
__Last$ = 16						; size = 4
___formal$ = 20						; size = 1
??$_Rotate@PAH@std@@YAXPAH00Urandom_access_iterator_tag@0@@Z PROC ; std::_Rotate<int *>, COMDAT

; 3288 : 	{	// rotate [_First, _Last), random-access iterators

  00000	55		 push	 ebp
  00001	8b ec		 mov	 ebp, esp

; 3289 : 	_Rotate(_First, _Mid, _Last, _Dist_type(_First), _Val_type(_First));

  00003	6a 00		 push	 0
  00005	6a 00		 push	 0
  00007	ff 75 10	 push	 DWORD PTR __Last$[ebp]
  0000a	ff 75 0c	 push	 DWORD PTR __Mid$[ebp]
  0000d	ff 75 08	 push	 DWORD PTR __First$[ebp]
  00010	e8 00 00 00 00	 call	 ??$_Rotate@PAHHH@std@@YAXPAH0000@Z ; std::_Rotate<int *,int,int>
  00015	83 c4 14	 add	 esp, 20			; 00000014H

; 3290 : 	}

  00018	5d		 pop	 ebp
  00019	c3		 ret	 0
??$_Rotate@PAH@std@@YAXPAH00Urandom_access_iterator_tag@0@@Z ENDP ; std::_Rotate<int *>
_TEXT	ENDS
PUBLIC	??$distance@V?$_Vector_iterator@V?$_Vector_val@HV?$allocator@H@std@@@std@@@std@@@std@@YAHV?$_Vector_iterator@V?$_Vector_val@HV?$allocator@H@std@@@std@@@0@0@Z ; std::distance<std::_Vector_iterator<std::_Vector_val<int,std::allocator<int> > > >
; Function compile flags: /Ogsp
;	COMDAT ??$distance@V?$_Vector_iterator@V?$_Vector_val@HV?$allocator@H@std@@@std@@@std@@@std@@YAHV?$_Vector_iterator@V?$_Vector_val@HV?$allocator@H@std@@@std@@@0@0@Z
_TEXT	SEGMENT
__First$ = 8						; size = 4
__Last$ = 12						; size = 4
??$distance@V?$_Vector_iterator@V?$_Vector_val@HV?$allocator@H@std@@@std@@@std@@@std@@YAHV?$_Vector_iterator@V?$_Vector_val@HV?$allocator@H@std@@@std@@@0@0@Z PROC ; std::distance<std::_Vector_iterator<std::_Vector_val<int,std::allocator<int> > > >, COMDAT

; 900  : 	{	// return distance between iterators

  00000	55		 push	 ebp
  00001	8b ec		 mov	 ebp, esp

; 901  : 	typename iterator_traits<_InIt>::difference_type _Off = 0;
; 902  : 	_Distance2(_First, _Last, _Off, _Iter_cat(_First));

  00003	8b 45 0c	 mov	 eax, DWORD PTR __Last$[ebp]
  00006	2b 45 08	 sub	 eax, DWORD PTR __First$[ebp]
  00009	c1 f8 02	 sar	 eax, 2

; 903  : 	return (_Off);
; 904  : 	}

  0000c	5d		 pop	 ebp
  0000d	c3		 ret	 0
??$distance@V?$_Vector_iterator@V?$_Vector_val@HV?$allocator@H@std@@@std@@@std@@@std@@YAHV?$_Vector_iterator@V?$_Vector_val@HV?$allocator@H@std@@@std@@@0@0@Z ENDP ; std::distance<std::_Vector_iterator<std::_Vector_val<int,std::allocator<int> > > >
_TEXT	ENDS
PUBLIC	??$_Rotate@PAUPCRoomSoldierSelect@ExPCRoomSoldierBonusWnd@@@std@@YAXPAUPCRoomSoldierSelect@ExPCRoomSoldierBonusWnd@@00Urandom_access_iterator_tag@0@@Z ; std::_Rotate<ExPCRoomSoldierBonusWnd::PCRoomSoldierSelect *>
; Function compile flags: /Ogsp
;	COMDAT ??$_Rotate@PAUPCRoomSoldierSelect@ExPCRoomSoldierBonusWnd@@@std@@YAXPAUPCRoomSoldierSelect@ExPCRoomSoldierBonusWnd@@00Urandom_access_iterator_tag@0@@Z
_TEXT	SEGMENT
__First$ = 8						; size = 4
__Mid$ = 12						; size = 4
__Last$ = 16						; size = 4
___formal$ = 20						; size = 1
??$_Rotate@PAUPCRoomSoldierSelect@ExPCRoomSoldierBonusWnd@@@std@@YAXPAUPCRoomSoldierSelect@ExPCRoomSoldierBonusWnd@@00Urandom_access_iterator_tag@0@@Z PROC ; std::_Rotate<ExPCRoomSoldierBonusWnd::PCRoomSoldierSelect *>, COMDAT

; 3288 : 	{	// rotate [_First, _Last), random-access iterators

  00000	55		 push	 ebp
  00001	8b ec		 mov	 ebp, esp

; 3289 : 	_Rotate(_First, _Mid, _Last, _Dist_type(_First), _Val_type(_First));

  00003	6a 00		 push	 0
  00005	6a 00		 push	 0
  00007	ff 75 10	 push	 DWORD PTR __Last$[ebp]
  0000a	ff 75 0c	 push	 DWORD PTR __Mid$[ebp]
  0000d	ff 75 08	 push	 DWORD PTR __First$[ebp]
  00010	e8 00 00 00 00	 call	 ??$_Rotate@PAUPCRoomSoldierSelect@ExPCRoomSoldierBonusWnd@@HU12@@std@@YAXPAUPCRoomSoldierSelect@ExPCRoomSoldierBonusWnd@@00PAH0@Z ; std::_Rotate<ExPCRoomSoldierBonusWnd::PCRoomSoldierSelect *,int,ExPCRoomSoldierBonusWnd::PCRoomSoldierSelect>
  00015	83 c4 14	 add	 esp, 20			; 00000014H

; 3290 : 	}

  00018	5d		 pop	 ebp
  00019	c3		 ret	 0
??$_Rotate@PAUPCRoomSoldierSelect@ExPCRoomSoldierBonusWnd@@@std@@YAXPAUPCRoomSoldierSelect@ExPCRoomSoldierBonusWnd@@00Urandom_access_iterator_tag@0@@Z ENDP ; std::_Rotate<ExPCRoomSoldierBonusWnd::PCRoomSoldierSelect *>
_TEXT	ENDS
PUBLIC	??1?$vector@HV?$allocator@H@std@@@std@@QAE@XZ	; std::vector<int,std::allocator<int> >::~vector<int,std::allocator<int> >
; Function compile flags: /Ogsp
; File c:\program files (x86)\microsoft visual studio 10.0\vc\include\vector
;	COMDAT ??1?$vector@HV?$allocator@H@std@@@std@@QAE@XZ
_TEXT	SEGMENT
??1?$vector@HV?$allocator@H@std@@@std@@QAE@XZ PROC	; std::vector<int,std::allocator<int> >::~vector<int,std::allocator<int> >, COMDAT
; _this$ = ecx

; 705  : 		_Tidy();

  00000	e9 00 00 00 00	 jmp	 ?_Tidy@?$vector@HV?$allocator@H@std@@@std@@IAEXXZ ; std::vector<int,std::allocator<int> >::_Tidy
??1?$vector@HV?$allocator@H@std@@@std@@QAE@XZ ENDP	; std::vector<int,std::allocator<int> >::~vector<int,std::allocator<int> >
_TEXT	ENDS
PUBLIC	?clear@?$vector@HV?$allocator@H@std@@@std@@QAEXXZ ; std::vector<int,std::allocator<int> >::clear
; Function compile flags: /Ogsp
;	COMDAT ?clear@?$vector@HV?$allocator@H@std@@@std@@QAEXXZ
_TEXT	SEGMENT
$T540740 = -4						; size = 4
?clear@?$vector@HV?$allocator@H@std@@@std@@QAEXXZ PROC	; std::vector<int,std::allocator<int> >::clear, COMDAT
; _this$ = ecx

; 1217 : 		{	// erase all

  00000	55		 push	 ebp
  00001	8b ec		 mov	 ebp, esp
  00003	51		 push	 ecx

; 1218 : 		erase(begin(), end());

  00004	8b 41 04	 mov	 eax, DWORD PTR [ecx+4]
  00007	8b 11		 mov	 edx, DWORD PTR [ecx]
  00009	50		 push	 eax
  0000a	52		 push	 edx
  0000b	8d 45 fc	 lea	 eax, DWORD PTR $T540740[ebp]
  0000e	50		 push	 eax
  0000f	e8 00 00 00 00	 call	 ?erase@?$vector@HV?$allocator@H@std@@@std@@QAE?AV?$_Vector_iterator@V?$_Vector_val@HV?$allocator@H@std@@@std@@@2@V?$_Vector_const_iterator@V?$_Vector_val@HV?$allocator@H@std@@@std@@@2@0@Z ; std::vector<int,std::allocator<int> >::erase

; 1219 : 		}

  00014	c9		 leave
  00015	c3		 ret	 0
?clear@?$vector@HV?$allocator@H@std@@@std@@QAEXXZ ENDP	; std::vector<int,std::allocator<int> >::clear
_TEXT	ENDS
PUBLIC	?_Reserve@?$vector@HV?$allocator@H@std@@@std@@IAEXI@Z ; std::vector<int,std::allocator<int> >::_Reserve
; Function compile flags: /Ogsp
;	COMDAT ?_Reserve@?$vector@HV?$allocator@H@std@@@std@@IAEXI@Z
_TEXT	SEGMENT
__Count$ = 8						; size = 4
?_Reserve@?$vector@HV?$allocator@H@std@@@std@@IAEXI@Z PROC ; std::vector<int,std::allocator<int> >::_Reserve, COMDAT
; _this$ = ecx

; 1290 : 		{	// ensure room for _Count new elements, grow exponentially

  00000	55		 push	 ebp
  00001	8b ec		 mov	 ebp, esp
  00003	56		 push	 esi
  00004	8b f1		 mov	 esi, ecx

; 1291 : 		size_type _Size = size();

  00006	8b 0e		 mov	 ecx, DWORD PTR [esi]
  00008	8b 46 04	 mov	 eax, DWORD PTR [esi+4]
  0000b	2b c1		 sub	 eax, ecx

; 1292 : 		if (max_size() - _Count < _Size)

  0000d	ba ff ff ff 3f	 mov	 edx, 1073741823		; 3fffffffH
  00012	2b 55 08	 sub	 edx, DWORD PTR __Count$[ebp]
  00015	c1 f8 02	 sar	 eax, 2
  00018	3b d0		 cmp	 edx, eax
  0001a	73 0b		 jae	 SHORT $LN4@Reserve

; 1293 : 			_Xlen();

  0001c	68 00 00 00 00	 push	 OFFSET ??_C@_0BD@OLBABOEK@vector?$DMT?$DO?5too?5long?$AA@
  00021	ff 15 00 00 00
	00		 call	 DWORD PTR __imp_?_Xlength_error@std@@YAXPBD@Z
$LN21@Reserve:
$LN4@Reserve:

; 1294 : 		else if ((_Size += _Count) <= capacity())

  00027	8b 56 08	 mov	 edx, DWORD PTR [esi+8]
  0002a	03 45 08	 add	 eax, DWORD PTR __Count$[ebp]
  0002d	2b d1		 sub	 edx, ecx
  0002f	c1 fa 02	 sar	 edx, 2
  00032	3b c2		 cmp	 eax, edx
  00034	76 10		 jbe	 SHORT $LN1@Reserve

; 1295 : 			;
; 1296 : 		else
; 1297 : 			reserve(_Grow_to(_Size));

  00036	50		 push	 eax
  00037	8b ce		 mov	 ecx, esi
  00039	e8 00 00 00 00	 call	 ?_Grow_to@?$vector@HV?$allocator@H@std@@@std@@IBEII@Z ; std::vector<int,std::allocator<int> >::_Grow_to
  0003e	50		 push	 eax
  0003f	8b ce		 mov	 ecx, esi
  00041	e8 00 00 00 00	 call	 ?reserve@?$vector@HV?$allocator@H@std@@@std@@QAEXI@Z ; std::vector<int,std::allocator<int> >::reserve
$LN1@Reserve:
  00046	5e		 pop	 esi

; 1298 : 		}

  00047	5d		 pop	 ebp
  00048	c2 04 00	 ret	 4
$LN20@Reserve:
?_Reserve@?$vector@HV?$allocator@H@std@@@std@@IAEXI@Z ENDP ; std::vector<int,std::allocator<int> >::_Reserve
_TEXT	ENDS
PUBLIC	??_C@_0CI@IGHPBJHK@ExPCRoomSoldierBonusWnd?3?3Refresh@ ; `string'
PUBLIC	?RefreshCharWnd@ExPCRoomSoldierBonusWnd@@IAEXXZ	; ExPCRoomSoldierBonusWnd::RefreshCharWnd
EXTRN	?GetSetInfoByIdx@ioSetItemInfoManager@@QBEPBVioSetItemInfo@@H@Z:PROC ; ioSetItemInfoManager::GetSetInfoByIdx
EXTRN	?GetSingeton@ioSetItemInfoManager@@SAAAV1@XZ:PROC ; ioSetItemInfoManager::GetSingeton
EXTRN	__imp_?Clear@ioHashString@@QAEXXZ:PROC
;	COMDAT ??_C@_0CI@IGHPBJHK@ExPCRoomSoldierBonusWnd?3?3Refresh@
; File d:\lost saga for developer\youtube\tutorial\source\src\lsclient\ioitem.h
CONST	SEGMENT
??_C@_0CI@IGHPBJHK@ExPCRoomSoldierBonusWnd?3?3Refresh@ DB 'ExPCRoomSoldie'
	DB	'rBonusWnd::RefreshCharWnd', 00H		; `string'
CONST	ENDS
;	COMDAT xdata$x
xdata$x	SEGMENT
__ehfuncinfo$?RefreshCharWnd@ExPCRoomSoldierBonusWnd@@IAEXXZ DD 019930522H
	DD	05H
	DD	FLAT:__unwindtable$?RefreshCharWnd@ExPCRoomSoldierBonusWnd@@IAEXXZ
	DD	2 DUP(00H)
	DD	2 DUP(00H)
	DD	00H
	DD	01H
__unwindtable$?RefreshCharWnd@ExPCRoomSoldierBonusWnd@@IAEXXZ DD 0ffffffffH
	DD	FLAT:__unwindfunclet$?RefreshCharWnd@ExPCRoomSoldierBonusWnd@@IAEXXZ$0
	DD	00H
	DD	FLAT:__unwindfunclet$?RefreshCharWnd@ExPCRoomSoldierBonusWnd@@IAEXXZ$1
	DD	00H
	DD	FLAT:__unwindfunclet$?RefreshCharWnd@ExPCRoomSoldierBonusWnd@@IAEXXZ$2
	DD	0ffffffffH
	DD	FLAT:__unwindfunclet$?RefreshCharWnd@ExPCRoomSoldierBonusWnd@@IAEXXZ$3
	DD	0ffffffffH
	DD	FLAT:__unwindfunclet$?RefreshCharWnd@ExPCRoomSoldierBonusWnd@@IAEXXZ$4
; Function compile flags: /Ogsp
; File d:\lost saga for developer\youtube\tutorial\source\src\lsclient\gui\expcroomwnd.cpp
xdata$x	ENDS
;	COMDAT ?RefreshCharWnd@ExPCRoomSoldierBonusWnd@@IAEXXZ
_TEXT	SEGMENT
$T540827 = -920						; size = 16
$T540828 = -904						; size = 16
$T540829 = -888						; size = 16
$T540825 = -872						; size = 16
_value$540861 = -856					; size = 4
_value$540923 = -852					; size = 4
_value$540951 = -848					; size = 4
_value$540942 = -844					; size = 4
_value$540932 = -840					; size = 4
_value$540843 = -836					; size = 4
_rkCharInfo$532628 = -832				; size = 4
_i$532622 = -828					; size = 4
$T540857 = -824						; size = 4
_pItem$532656 = -824					; size = 4
_pItem$532650 = -824					; size = 4
_pItem$532643 = -824					; size = 4
_pItem$532635 = -824					; size = 4
_NewCharInfo$532630 = -820				; size = 804
__$EHRec$ = -12						; size = 12
?RefreshCharWnd@ExPCRoomSoldierBonusWnd@@IAEXXZ PROC	; ExPCRoomSoldierBonusWnd::RefreshCharWnd, COMDAT
; _this$ = ecx

; 463  : {	

  00000	68 8c 03 00 00	 push	 908			; 0000038cH
  00005	b8 00 00 00 00	 mov	 eax, __ehhandler$?RefreshCharWnd@ExPCRoomSoldierBonusWnd@@IAEXXZ
  0000a	e8 00 00 00 00	 call	 __EH_prolog3_GS

; 464  : 	HideChildWnd( ID_SELECT_CHAR_VIEW1 );

  0000f	8b 3d 00 00 00
	00		 mov	 edi, DWORD PTR __imp_?HideChildWnd@ioWnd@@QAEXK_N@Z
  00015	33 db		 xor	 ebx, ebx
  00017	53		 push	 ebx
  00018	6a 64		 push	 100			; 00000064H
  0001a	8b f1		 mov	 esi, ecx
  0001c	ff d7		 call	 edi

; 465  : 	HideChildWnd( ID_SELECT_CHAR_VIEW2 );

  0001e	53		 push	 ebx
  0001f	6a 65		 push	 101			; 00000065H
  00021	8b ce		 mov	 ecx, esi
  00023	ff d7		 call	 edi

; 466  : 
; 467  : 	m_szOneCharName.Clear();	

  00025	8b 3d 00 00 00
	00		 mov	 edi, DWORD PTR __imp_?Clear@ioHashString@@QAEXXZ
  0002b	8d 8e 70 01 00
	00		 lea	 ecx, DWORD PTR [esi+368]
  00031	ff d7		 call	 edi

; 468  : 	m_szTwoCharName.Clear();

  00033	8d 8e 84 01 00
	00		 lea	 ecx, DWORD PTR [esi+388]
  00039	ff d7		 call	 edi

; 469  : 	m_iOneCharType = -1;

  0003b	83 8e 80 01 00
	00 ff		 or	 DWORD PTR [esi+384], -1

; 470  : 	m_iTwoCharType = -1;

  00042	83 8e 94 01 00
	00 ff		 or	 DWORD PTR [esi+404], -1

; 471  : 
; 472  : 	for( int i = 0; i < g_MyInfo.GetPcRoomCharMax(); ++i )

  00049	89 9d c4 fc ff
	ff		 mov	 DWORD PTR _i$532622[ebp], ebx
  0004f	e8 00 00 00 00	 call	 ?GetSingleton@ioMyInfo@@SAAAV1@XZ ; ioMyInfo::GetSingleton
  00054	8d 8d bc fc ff
	ff		 lea	 ecx, DWORD PTR _value$540843[ebp]
  0005a	51		 push	 ecx
  0005b	8d 88 cc 0b 00
	00		 lea	 ecx, DWORD PTR [eax+3020]
  00061	e8 00 00 00 00	 call	 ?DecryptValueToPool@?$CEncrypt@H@@QAEXPAH@Z ; CEncrypt<int>::DecryptValueToPool
  00066	39 9d bc fc ff
	ff		 cmp	 DWORD PTR _value$540843[ebp], ebx
  0006c	0f 8e 16 04 00
	00		 jle	 $LN16@RefreshCha
  00072	8b 3d 00 00 00
	00		 mov	 edi, DWORD PTR __imp_??4ioHashString@@QAEAAV0@ABV0@@Z
  00078	8b 1d 00 00 00
	00		 mov	 ebx, DWORD PTR __imp_??0ioHashString@@QAE@PBD@Z
$LL18@RefreshCha:

; 473  : 	{
; 474  : 		if( i < (int)m_PCRoomSoldierSelectVec.size() )

  0007e	8b 8e bc 01 00
	00		 mov	 ecx, DWORD PTR [esi+444]
  00084	2b 8e b8 01 00
	00		 sub	 ecx, DWORD PTR [esi+440]
  0008a	8b 85 c4 fc ff
	ff		 mov	 eax, DWORD PTR _i$532622[ebp]
  00090	c1 f9 03	 sar	 ecx, 3
  00093	3b c1		 cmp	 eax, ecx
  00095	0f 8d be 03 00
	00		 jge	 $LN17@RefreshCha

; 475  : 		{
; 476  : 			const CHARACTER& rkCharInfo = g_MyInfo.GetCharacter( g_MyInfo.GetClassArray( m_PCRoomSoldierSelectVec[i].m_iClassType ) );

  0009b	8b c8		 mov	 ecx, eax
  0009d	8b 86 b8 01 00
	00		 mov	 eax, DWORD PTR [esi+440]
  000a3	ff 34 c8	 push	 DWORD PTR [eax+ecx*8]
  000a6	e8 00 00 00 00	 call	 ?GetSingleton@ioMyInfo@@SAAAV1@XZ ; ioMyInfo::GetSingleton
  000ab	8b c8		 mov	 ecx, eax
  000ad	e8 00 00 00 00	 call	 ?GetClassArray@ioMyInfo@@QAEHH@Z ; ioMyInfo::GetClassArray
  000b2	50		 push	 eax
  000b3	e8 00 00 00 00	 call	 ?GetSingleton@ioMyInfo@@SAAAV1@XZ ; ioMyInfo::GetSingleton
  000b8	8b c8		 mov	 ecx, eax
  000ba	e8 00 00 00 00	 call	 ?GetCharacter@ioMyInfo@@QAEABUCHARACTER@@K@Z ; ioMyInfo::GetCharacter

; 477  : 			if( m_PCRoomSoldierSelectVec[i].m_iClassType != rkCharInfo.m_class_type )

  000bf	8b 8d c4 fc ff
	ff		 mov	 ecx, DWORD PTR _i$532622[ebp]
  000c5	89 85 c0 fc ff
	ff		 mov	 DWORD PTR _rkCharInfo$532628[ebp], eax
  000cb	8b 86 b8 01 00
	00		 mov	 eax, DWORD PTR [esi+440]
  000d1	c1 e1 03	 shl	 ecx, 3
  000d4	03 c1		 add	 eax, ecx
  000d6	8b 8d c0 fc ff
	ff		 mov	 ecx, DWORD PTR _rkCharInfo$532628[ebp]
  000dc	89 85 c8 fc ff
	ff		 mov	 DWORD PTR $T540857[ebp], eax
  000e2	8d 85 a8 fc ff
	ff		 lea	 eax, DWORD PTR _value$540861[ebp]
  000e8	50		 push	 eax
  000e9	e8 00 00 00 00	 call	 ?DecryptValueToPool@?$CEncrypt@H@@QAEXPAH@Z ; CEncrypt<int>::DecryptValueToPool
  000ee	8b 85 c8 fc ff
	ff		 mov	 eax, DWORD PTR $T540857[ebp]
  000f4	8b 00		 mov	 eax, DWORD PTR [eax]
  000f6	3b 85 a8 fc ff
	ff		 cmp	 eax, DWORD PTR _value$540861[ebp]
  000fc	0f 84 df 01 00
	00		 je	 $LN14@RefreshCha

; 478  : 			{
; 479  : 				CHARACTER NewCharInfo;

  00102	8d 8d cc fc ff
	ff		 lea	 ecx, DWORD PTR _NewCharInfo$532630[ebp]
  00108	e8 00 00 00 00	 call	 ??0CHARACTER@@QAE@XZ	; CHARACTER::CHARACTER
  0010d	83 65 fc 00	 and	 DWORD PTR __$EHRec$[ebp+8], 0

; 480  : 				NewCharInfo.Init();

  00111	8d 8d cc fc ff
	ff		 lea	 ecx, DWORD PTR _NewCharInfo$532630[ebp]
  00117	e8 00 00 00 00	 call	 ?Init@CHARACTER@@QAEXXZ	; CHARACTER::Init

; 481  : 				GetDefaultCharInfo( NewCharInfo, m_PCRoomSoldierSelectVec[i].m_iClassType );

  0011c	8b 8e b8 01 00
	00		 mov	 ecx, DWORD PTR [esi+440]
  00122	8b 85 c4 fc ff
	ff		 mov	 eax, DWORD PTR _i$532622[ebp]
  00128	6a ff		 push	 -1
  0012a	ff 34 c1	 push	 DWORD PTR [ecx+eax*8]
  0012d	8d 85 cc fc ff
	ff		 lea	 eax, DWORD PTR _NewCharInfo$532630[ebp]
  00133	50		 push	 eax
  00134	8b ce		 mov	 ecx, esi
  00136	e8 00 00 00 00	 call	 ?GetDefaultCharInfo@ExPCRoomSoldierBonusWnd@@IAEXAAUCHARACTER@@HH@Z ; ExPCRoomSoldierBonusWnd::GetDefaultCharInfo

; 482  : 
; 483  : 				if( i == 0 )

  0013b	83 bd c4 fc ff
	ff 00		 cmp	 DWORD PTR _i$532622[ebp], 0

; 484  : 				{
; 485  : 					SelectNewChar( NewCharInfo, ID_SELECT_CHAR_VIEW1 );

  00142	8d 85 cc fc ff
	ff		 lea	 eax, DWORD PTR _NewCharInfo$532630[ebp]
  00148	8b ce		 mov	 ecx, esi
  0014a	0f 85 c5 00 00
	00		 jne	 $LN13@RefreshCha
  00150	6a 64		 push	 100			; 00000064H
  00152	50		 push	 eax
  00153	e8 00 00 00 00	 call	 ?SelectNewChar@ExPCRoomSoldierBonusWnd@@IAEXABUCHARACTER@@H@Z ; ExPCRoomSoldierBonusWnd::SelectNewChar

; 486  : 					const ioSetItemInfo *pSetInfo = g_SetItemInfoMgr.GetSetInfoByIdx( NewCharInfo.m_class_type - 1 );

  00158	6a 04		 push	 4
  0015a	8d 85 f4 fc ff
	ff		 lea	 eax, DWORD PTR _NewCharInfo$532630[ebp+40]
  00160	50		 push	 eax
  00161	8d 85 e8 fc ff
	ff		 lea	 eax, DWORD PTR _NewCharInfo$532630[ebp+28]
  00167	50		 push	 eax
  00168	8d 8d d8 fc ff
	ff		 lea	 ecx, DWORD PTR _NewCharInfo$532630[ebp+12]
  0016e	e8 00 00 00 00	 call	 ?DecryptByte@ccddaabb@@QBEXPBDPADH@Z ; ccddaabb::DecryptByte
  00173	8b 85 f4 fc ff
	ff		 mov	 eax, DWORD PTR _NewCharInfo$532630[ebp+40]
  00179	48		 dec	 eax
  0017a	50		 push	 eax
  0017b	e8 00 00 00 00	 call	 ?GetSingeton@ioSetItemInfoManager@@SAAAV1@XZ ; ioSetItemInfoManager::GetSingeton
  00180	8b c8		 mov	 ecx, eax
  00182	e8 00 00 00 00	 call	 ?GetSetInfoByIdx@ioSetItemInfoManager@@QBEPBVioSetItemInfo@@H@Z ; ioSetItemInfoManager::GetSetInfoByIdx

; 487  : 					if( pSetInfo )

  00187	85 c0		 test	 eax, eax
  00189	0f 84 3e 01 00
	00		 je	 $LN8@RefreshCha

; 488  : 					{
; 489  : 						m_szOneCharName = pSetInfo->GetName();

  0018f	83 c0 08	 add	 eax, 8
  00192	50		 push	 eax
  00193	8d 8e 70 01 00
	00		 lea	 ecx, DWORD PTR [esi+368]
  00199	ff d7		 call	 edi

; 490  : 
; 491  : 						const ioItem *pItem = g_ItemMaker.GetItemConst( NewCharInfo.m_class_type, __FUNCTION__ );

  0019b	68 00 00 00 00	 push	 OFFSET ??_C@_0CI@IGHPBJHK@ExPCRoomSoldierBonusWnd?3?3Refresh@
  001a0	8d 8d 98 fc ff
	ff		 lea	 ecx, DWORD PTR $T540825[ebp]
  001a6	ff d3		 call	 ebx
  001a8	6a 04		 push	 4
  001aa	8d 85 f4 fc ff
	ff		 lea	 eax, DWORD PTR _NewCharInfo$532630[ebp+40]
  001b0	50		 push	 eax
  001b1	8d 85 e8 fc ff
	ff		 lea	 eax, DWORD PTR _NewCharInfo$532630[ebp+28]
  001b7	50		 push	 eax
  001b8	8d 8d d8 fc ff
	ff		 lea	 ecx, DWORD PTR _NewCharInfo$532630[ebp+12]
  001be	c6 45 fc 01	 mov	 BYTE PTR __$EHRec$[ebp+8], 1
  001c2	e8 00 00 00 00	 call	 ?DecryptByte@ccddaabb@@QBEXPBDPADH@Z ; ccddaabb::DecryptByte
  001c7	8d 85 98 fc ff
	ff		 lea	 eax, DWORD PTR $T540825[ebp]
  001cd	50		 push	 eax
  001ce	ff b5 f4 fc ff
	ff		 push	 DWORD PTR _NewCharInfo$532630[ebp+40]
  001d4	e8 00 00 00 00	 call	 ?GetSingleton@ioItemMaker@@SAAAV1@XZ ; ioItemMaker::GetSingleton
  001d9	8b c8		 mov	 ecx, eax
  001db	e8 00 00 00 00	 call	 ?GetItemConst@ioItemMaker@@QBEPBVioItem@@KABVioHashString@@@Z ; ioItemMaker::GetItemConst
  001e0	8d 8d 98 fc ff
	ff		 lea	 ecx, DWORD PTR $T540825[ebp]
  001e6	89 85 c8 fc ff
	ff		 mov	 DWORD PTR _pItem$532635[ebp], eax
  001ec	c6 45 fc 00	 mov	 BYTE PTR __$EHRec$[ebp+8], 0
  001f0	ff 15 00 00 00
	00		 call	 DWORD PTR __imp_??1ioHashString@@QAE@XZ

; 492  : 						if( pItem )

  001f6	8b 85 c8 fc ff
	ff		 mov	 eax, DWORD PTR _pItem$532635[ebp]
  001fc	85 c0		 test	 eax, eax
  001fe	0f 84 c9 00 00
	00		 je	 $LN8@RefreshCha

; 493  : 							m_iOneCharType = pItem->GetGradeType(); //pSetInfo->GetPackageType();			

  00204	8b 80 20 06 00
	00		 mov	 eax, DWORD PTR [eax+1568]
  0020a	89 86 80 01 00
	00		 mov	 DWORD PTR [esi+384], eax

; 494  : 					}
; 495  : 				}
; 496  : 				else

  00210	e9 b8 00 00 00	 jmp	 $LN8@RefreshCha
$LN13@RefreshCha:

; 497  : 				{
; 498  : 					SelectNewChar( NewCharInfo, ID_SELECT_CHAR_VIEW2 );

  00215	6a 65		 push	 101			; 00000065H
  00217	50		 push	 eax
  00218	e8 00 00 00 00	 call	 ?SelectNewChar@ExPCRoomSoldierBonusWnd@@IAEXABUCHARACTER@@H@Z ; ExPCRoomSoldierBonusWnd::SelectNewChar

; 499  : 					const ioSetItemInfo *pSetInfo = g_SetItemInfoMgr.GetSetInfoByIdx( NewCharInfo.m_class_type - 1 );					

  0021d	6a 04		 push	 4
  0021f	8d 85 f4 fc ff
	ff		 lea	 eax, DWORD PTR _NewCharInfo$532630[ebp+40]
  00225	50		 push	 eax
  00226	8d 85 e8 fc ff
	ff		 lea	 eax, DWORD PTR _NewCharInfo$532630[ebp+28]
  0022c	50		 push	 eax
  0022d	8d 8d d8 fc ff
	ff		 lea	 ecx, DWORD PTR _NewCharInfo$532630[ebp+12]
  00233	e8 00 00 00 00	 call	 ?DecryptByte@ccddaabb@@QBEXPBDPADH@Z ; ccddaabb::DecryptByte
  00238	8b 85 f4 fc ff
	ff		 mov	 eax, DWORD PTR _NewCharInfo$532630[ebp+40]
  0023e	48		 dec	 eax
  0023f	50		 push	 eax
  00240	e8 00 00 00 00	 call	 ?GetSingeton@ioSetItemInfoManager@@SAAAV1@XZ ; ioSetItemInfoManager::GetSingeton
  00245	8b c8		 mov	 ecx, eax
  00247	e8 00 00 00 00	 call	 ?GetSetInfoByIdx@ioSetItemInfoManager@@QBEPBVioSetItemInfo@@H@Z ; ioSetItemInfoManager::GetSetInfoByIdx

; 500  : 					if( pSetInfo )

  0024c	85 c0		 test	 eax, eax
  0024e	74 7d		 je	 SHORT $LN8@RefreshCha

; 501  : 					{
; 502  : 						m_szTwoCharName = pSetInfo->GetName();

  00250	83 c0 08	 add	 eax, 8
  00253	50		 push	 eax
  00254	8d 8e 84 01 00
	00		 lea	 ecx, DWORD PTR [esi+388]
  0025a	ff d7		 call	 edi

; 503  : 
; 504  : 						const ioItem *pItem = g_ItemMaker.GetItemConst( NewCharInfo.m_class_type, __FUNCTION__ );

  0025c	68 00 00 00 00	 push	 OFFSET ??_C@_0CI@IGHPBJHK@ExPCRoomSoldierBonusWnd?3?3Refresh@
  00261	8d 8d 68 fc ff
	ff		 lea	 ecx, DWORD PTR $T540827[ebp]
  00267	ff d3		 call	 ebx
  00269	6a 04		 push	 4
  0026b	8d 85 f4 fc ff
	ff		 lea	 eax, DWORD PTR _NewCharInfo$532630[ebp+40]
  00271	50		 push	 eax
  00272	8d 85 e8 fc ff
	ff		 lea	 eax, DWORD PTR _NewCharInfo$532630[ebp+28]
  00278	50		 push	 eax
  00279	8d 8d d8 fc ff
	ff		 lea	 ecx, DWORD PTR _NewCharInfo$532630[ebp+12]
  0027f	c6 45 fc 02	 mov	 BYTE PTR __$EHRec$[ebp+8], 2
  00283	e8 00 00 00 00	 call	 ?DecryptByte@ccddaabb@@QBEXPBDPADH@Z ; ccddaabb::DecryptByte
  00288	8d 85 68 fc ff
	ff		 lea	 eax, DWORD PTR $T540827[ebp]
  0028e	50		 push	 eax
  0028f	ff b5 f4 fc ff
	ff		 push	 DWORD PTR _NewCharInfo$532630[ebp+40]
  00295	e8 00 00 00 00	 call	 ?GetSingleton@ioItemMaker@@SAAAV1@XZ ; ioItemMaker::GetSingleton
  0029a	8b c8		 mov	 ecx, eax
  0029c	e8 00 00 00 00	 call	 ?GetItemConst@ioItemMaker@@QBEPBVioItem@@KABVioHashString@@@Z ; ioItemMaker::GetItemConst
  002a1	8d 8d 68 fc ff
	ff		 lea	 ecx, DWORD PTR $T540827[ebp]
  002a7	89 85 c8 fc ff
	ff		 mov	 DWORD PTR _pItem$532643[ebp], eax
  002ad	c6 45 fc 00	 mov	 BYTE PTR __$EHRec$[ebp+8], 0
  002b1	ff 15 00 00 00
	00		 call	 DWORD PTR __imp_??1ioHashString@@QAE@XZ

; 505  : 						if( pItem )

  002b7	8b 85 c8 fc ff
	ff		 mov	 eax, DWORD PTR _pItem$532643[ebp]
  002bd	85 c0		 test	 eax, eax
  002bf	74 0c		 je	 SHORT $LN8@RefreshCha

; 506  : 							m_iTwoCharType = pItem->GetGradeType(); //pSetInfo->GetPackageType();				

  002c1	8b 80 20 06 00
	00		 mov	 eax, DWORD PTR [eax+1568]
  002c7	89 86 94 01 00
	00		 mov	 DWORD PTR [esi+404], eax
$LN8@RefreshCha:

; 507  : 					}
; 508  : 				}
; 509  : 			}

  002cd	83 4d fc ff	 or	 DWORD PTR __$EHRec$[ebp+8], -1
  002d1	8d 8d cc fc ff
	ff		 lea	 ecx, DWORD PTR _NewCharInfo$532630[ebp]
  002d7	e8 00 00 00 00	 call	 ??1CHARACTER@@QAE@XZ

; 510  : 			else

  002dc	e9 78 01 00 00	 jmp	 $LN17@RefreshCha
$LN14@RefreshCha:

; 511  : 			{
; 512  : 				if( i == 0 )

  002e1	83 bd c4 fc ff
	ff 00		 cmp	 DWORD PTR _i$532622[ebp], 0

; 513  : 				{
; 514  : 					SelectNewChar( rkCharInfo, ID_SELECT_CHAR_VIEW1 );

  002e8	8b ce		 mov	 ecx, esi
  002ea	0f 85 bb 00 00
	00		 jne	 $LN6@RefreshCha
  002f0	6a 64		 push	 100			; 00000064H
  002f2	ff b5 c0 fc ff
	ff		 push	 DWORD PTR _rkCharInfo$532628[ebp]
  002f8	e8 00 00 00 00	 call	 ?SelectNewChar@ExPCRoomSoldierBonusWnd@@IAEXABUCHARACTER@@H@Z ; ExPCRoomSoldierBonusWnd::SelectNewChar

; 515  : 					const ioSetItemInfo *pSetInfo = g_SetItemInfoMgr.GetSetInfoByIdx( rkCharInfo.m_class_type - 1 );

  002fd	8b 8d c0 fc ff
	ff		 mov	 ecx, DWORD PTR _rkCharInfo$532628[ebp]
  00303	8d 85 ac fc ff
	ff		 lea	 eax, DWORD PTR _value$540923[ebp]
  00309	50		 push	 eax
  0030a	e8 00 00 00 00	 call	 ?DecryptValueToPool@?$CEncrypt@H@@QAEXPAH@Z ; CEncrypt<int>::DecryptValueToPool
  0030f	8b 85 ac fc ff
	ff		 mov	 eax, DWORD PTR _value$540923[ebp]
  00315	48		 dec	 eax
  00316	50		 push	 eax
  00317	e8 00 00 00 00	 call	 ?GetSingeton@ioSetItemInfoManager@@SAAAV1@XZ ; ioSetItemInfoManager::GetSingeton
  0031c	8b c8		 mov	 ecx, eax
  0031e	e8 00 00 00 00	 call	 ?GetSetInfoByIdx@ioSetItemInfoManager@@QBEPBVioSetItemInfo@@H@Z ; ioSetItemInfoManager::GetSetInfoByIdx

; 516  : 					if( pSetInfo )

  00323	85 c0		 test	 eax, eax
  00325	0f 84 2e 01 00
	00		 je	 $LN17@RefreshCha

; 517  : 					{
; 518  : 						m_szOneCharName = pSetInfo->GetName();

  0032b	83 c0 08	 add	 eax, 8
  0032e	50		 push	 eax
  0032f	8d 8e 70 01 00
	00		 lea	 ecx, DWORD PTR [esi+368]
  00335	ff d7		 call	 edi

; 519  : 
; 520  : 						const ioItem *pItem = g_ItemMaker.GetItemConst( rkCharInfo.m_class_type, __FUNCTION__ );

  00337	68 00 00 00 00	 push	 OFFSET ??_C@_0CI@IGHPBJHK@ExPCRoomSoldierBonusWnd?3?3Refresh@
  0033c	8d 8d 78 fc ff
	ff		 lea	 ecx, DWORD PTR $T540828[ebp]
  00342	ff d3		 call	 ebx
  00344	8b 8d c0 fc ff
	ff		 mov	 ecx, DWORD PTR _rkCharInfo$532628[ebp]
  0034a	8d 85 b8 fc ff
	ff		 lea	 eax, DWORD PTR _value$540932[ebp]
  00350	50		 push	 eax
  00351	c7 45 fc 03 00
	00 00		 mov	 DWORD PTR __$EHRec$[ebp+8], 3
  00358	e8 00 00 00 00	 call	 ?DecryptValueToPool@?$CEncrypt@H@@QAEXPAH@Z ; CEncrypt<int>::DecryptValueToPool
  0035d	8d 85 78 fc ff
	ff		 lea	 eax, DWORD PTR $T540828[ebp]
  00363	50		 push	 eax
  00364	ff b5 b8 fc ff
	ff		 push	 DWORD PTR _value$540932[ebp]
  0036a	e8 00 00 00 00	 call	 ?GetSingleton@ioItemMaker@@SAAAV1@XZ ; ioItemMaker::GetSingleton
  0036f	8b c8		 mov	 ecx, eax
  00371	e8 00 00 00 00	 call	 ?GetItemConst@ioItemMaker@@QBEPBVioItem@@KABVioHashString@@@Z ; ioItemMaker::GetItemConst
  00376	83 4d fc ff	 or	 DWORD PTR __$EHRec$[ebp+8], -1
  0037a	8d 8d 78 fc ff
	ff		 lea	 ecx, DWORD PTR $T540828[ebp]
  00380	89 85 c8 fc ff
	ff		 mov	 DWORD PTR _pItem$532650[ebp], eax
  00386	ff 15 00 00 00
	00		 call	 DWORD PTR __imp_??1ioHashString@@QAE@XZ

; 521  : 						if( pItem )

  0038c	8b 85 c8 fc ff
	ff		 mov	 eax, DWORD PTR _pItem$532650[ebp]
  00392	85 c0		 test	 eax, eax
  00394	0f 84 bf 00 00
	00		 je	 $LN17@RefreshCha

; 522  : 							m_iOneCharType = pItem->GetGradeType(); //pSetInfo->GetPackageType();

  0039a	8b 80 20 06 00
	00		 mov	 eax, DWORD PTR [eax+1568]
  003a0	89 86 80 01 00
	00		 mov	 DWORD PTR [esi+384], eax

; 523  : 					}
; 524  : 				}
; 525  : 				else

  003a6	e9 ae 00 00 00	 jmp	 $LN17@RefreshCha
$LN6@RefreshCha:

; 526  : 				{
; 527  : 					SelectNewChar( rkCharInfo, ID_SELECT_CHAR_VIEW2 );

  003ab	6a 65		 push	 101			; 00000065H
  003ad	ff b5 c0 fc ff
	ff		 push	 DWORD PTR _rkCharInfo$532628[ebp]
  003b3	e8 00 00 00 00	 call	 ?SelectNewChar@ExPCRoomSoldierBonusWnd@@IAEXABUCHARACTER@@H@Z ; ExPCRoomSoldierBonusWnd::SelectNewChar

; 528  : 					const ioSetItemInfo *pSetInfo = g_SetItemInfoMgr.GetSetInfoByIdx( rkCharInfo.m_class_type - 1 );

  003b8	8b 8d c0 fc ff
	ff		 mov	 ecx, DWORD PTR _rkCharInfo$532628[ebp]
  003be	8d 85 b4 fc ff
	ff		 lea	 eax, DWORD PTR _value$540942[ebp]
  003c4	50		 push	 eax
  003c5	e8 00 00 00 00	 call	 ?DecryptValueToPool@?$CEncrypt@H@@QAEXPAH@Z ; CEncrypt<int>::DecryptValueToPool
  003ca	8b 85 b4 fc ff
	ff		 mov	 eax, DWORD PTR _value$540942[ebp]
  003d0	48		 dec	 eax
  003d1	50		 push	 eax
  003d2	e8 00 00 00 00	 call	 ?GetSingeton@ioSetItemInfoManager@@SAAAV1@XZ ; ioSetItemInfoManager::GetSingeton
  003d7	8b c8		 mov	 ecx, eax
  003d9	e8 00 00 00 00	 call	 ?GetSetInfoByIdx@ioSetItemInfoManager@@QBEPBVioSetItemInfo@@H@Z ; ioSetItemInfoManager::GetSetInfoByIdx

; 529  : 					if( pSetInfo )

  003de	85 c0		 test	 eax, eax
  003e0	74 77		 je	 SHORT $LN17@RefreshCha

; 530  : 					{
; 531  : 						m_szTwoCharName = pSetInfo->GetName();

  003e2	83 c0 08	 add	 eax, 8
  003e5	50		 push	 eax
  003e6	8d 8e 84 01 00
	00		 lea	 ecx, DWORD PTR [esi+388]
  003ec	ff d7		 call	 edi

; 532  : 
; 533  : 						const ioItem *pItem = g_ItemMaker.GetItemConst( rkCharInfo.m_class_type, __FUNCTION__ );

  003ee	68 00 00 00 00	 push	 OFFSET ??_C@_0CI@IGHPBJHK@ExPCRoomSoldierBonusWnd?3?3Refresh@
  003f3	8d 8d 88 fc ff
	ff		 lea	 ecx, DWORD PTR $T540829[ebp]
  003f9	ff d3		 call	 ebx
  003fb	8b 8d c0 fc ff
	ff		 mov	 ecx, DWORD PTR _rkCharInfo$532628[ebp]
  00401	8d 85 b0 fc ff
	ff		 lea	 eax, DWORD PTR _value$540951[ebp]
  00407	50		 push	 eax
  00408	c7 45 fc 04 00
	00 00		 mov	 DWORD PTR __$EHRec$[ebp+8], 4
  0040f	e8 00 00 00 00	 call	 ?DecryptValueToPool@?$CEncrypt@H@@QAEXPAH@Z ; CEncrypt<int>::DecryptValueToPool
  00414	8d 85 88 fc ff
	ff		 lea	 eax, DWORD PTR $T540829[ebp]
  0041a	50		 push	 eax
  0041b	ff b5 b0 fc ff
	ff		 push	 DWORD PTR _value$540951[ebp]
  00421	e8 00 00 00 00	 call	 ?GetSingleton@ioItemMaker@@SAAAV1@XZ ; ioItemMaker::GetSingleton
  00426	8b c8		 mov	 ecx, eax
  00428	e8 00 00 00 00	 call	 ?GetItemConst@ioItemMaker@@QBEPBVioItem@@KABVioHashString@@@Z ; ioItemMaker::GetItemConst
  0042d	83 4d fc ff	 or	 DWORD PTR __$EHRec$[ebp+8], -1
  00431	8d 8d 88 fc ff
	ff		 lea	 ecx, DWORD PTR $T540829[ebp]
  00437	89 85 c8 fc ff
	ff		 mov	 DWORD PTR _pItem$532656[ebp], eax
  0043d	ff 15 00 00 00
	00		 call	 DWORD PTR __imp_??1ioHashString@@QAE@XZ

; 534  : 						if( pItem )

  00443	8b 85 c8 fc ff
	ff		 mov	 eax, DWORD PTR _pItem$532656[ebp]
  00449	85 c0		 test	 eax, eax
  0044b	74 0c		 je	 SHORT $LN17@RefreshCha

; 535  : 							m_iTwoCharType = pItem->GetGradeType(); //pSetInfo->GetPackageType();

  0044d	8b 80 20 06 00
	00		 mov	 eax, DWORD PTR [eax+1568]
  00453	89 86 94 01 00
	00		 mov	 DWORD PTR [esi+404], eax
$LN17@RefreshCha:

; 471  : 
; 472  : 	for( int i = 0; i < g_MyInfo.GetPcRoomCharMax(); ++i )

  00459	ff 85 c4 fc ff
	ff		 inc	 DWORD PTR _i$532622[ebp]
  0045f	e8 00 00 00 00	 call	 ?GetSingleton@ioMyInfo@@SAAAV1@XZ ; ioMyInfo::GetSingleton
  00464	8d 8d bc fc ff
	ff		 lea	 ecx, DWORD PTR _value$540843[ebp]
  0046a	51		 push	 ecx
  0046b	8d 88 cc 0b 00
	00		 lea	 ecx, DWORD PTR [eax+3020]
  00471	e8 00 00 00 00	 call	 ?DecryptValueToPool@?$CEncrypt@H@@QAEXPAH@Z ; CEncrypt<int>::DecryptValueToPool
  00476	8b 85 c4 fc ff
	ff		 mov	 eax, DWORD PTR _i$532622[ebp]
  0047c	3b 85 bc fc ff
	ff		 cmp	 eax, DWORD PTR _value$540843[ebp]
  00482	0f 8c f6 fb ff
	ff		 jl	 $LL18@RefreshCha
$LN16@RefreshCha:

; 536  : 					}
; 537  : 				}
; 538  : 			}
; 539  : 		}
; 540  : 	}
; 541  : }

  00488	e8 00 00 00 00	 call	 __EH_epilog3_GS
  0048d	c3		 ret	 0
_TEXT	ENDS
;	COMDAT text$x
text$x	SEGMENT
__unwindfunclet$?RefreshCharWnd@ExPCRoomSoldierBonusWnd@@IAEXXZ$0:
  00000	8d 8d cc fc ff
	ff		 lea	 ecx, DWORD PTR _NewCharInfo$532630[ebp]
  00006	e9 00 00 00 00	 jmp	 ??1CHARACTER@@QAE@XZ
__unwindfunclet$?RefreshCharWnd@ExPCRoomSoldierBonusWnd@@IAEXXZ$1:
  0000b	8d 8d 98 fc ff
	ff		 lea	 ecx, DWORD PTR $T540825[ebp]
  00011	ff 25 00 00 00
	00		 jmp	 DWORD PTR __imp_??1ioHashString@@QAE@XZ
__unwindfunclet$?RefreshCharWnd@ExPCRoomSoldierBonusWnd@@IAEXXZ$2:
  00017	8d 8d 68 fc ff
	ff		 lea	 ecx, DWORD PTR $T540827[ebp]
  0001d	ff 25 00 00 00
	00		 jmp	 DWORD PTR __imp_??1ioHashString@@QAE@XZ
__unwindfunclet$?RefreshCharWnd@ExPCRoomSoldierBonusWnd@@IAEXXZ$3:
  00023	8d 8d 78 fc ff
	ff		 lea	 ecx, DWORD PTR $T540828[ebp]
  00029	ff 25 00 00 00
	00		 jmp	 DWORD PTR __imp_??1ioHashString@@QAE@XZ
__unwindfunclet$?RefreshCharWnd@ExPCRoomSoldierBonusWnd@@IAEXXZ$4:
  0002f	8d 8d 88 fc ff
	ff		 lea	 ecx, DWORD PTR $T540829[ebp]
  00035	ff 25 00 00 00
	00		 jmp	 DWORD PTR __imp_??1ioHashString@@QAE@XZ
__ehhandler$?RefreshCharWnd@ExPCRoomSoldierBonusWnd@@IAEXXZ:
  0003b	8b 54 24 08	 mov	 edx, DWORD PTR [esp+8]
  0003f	8d 42 0c	 lea	 eax, DWORD PTR [edx+12]
  00042	8b 8a 64 fc ff
	ff		 mov	 ecx, DWORD PTR [edx-924]
  00048	33 c8		 xor	 ecx, eax
  0004a	e8 00 00 00 00	 call	 @__security_check_cookie@4
  0004f	8b 4a fc	 mov	 ecx, DWORD PTR [edx-4]
  00052	33 c8		 xor	 ecx, eax
  00054	e8 00 00 00 00	 call	 @__security_check_cookie@4
  00059	b8 00 00 00 00	 mov	 eax, OFFSET __ehfuncinfo$?RefreshCharWnd@ExPCRoomSoldierBonusWnd@@IAEXXZ
  0005e	e9 00 00 00 00	 jmp	 ___CxxFrameHandler3
text$x	ENDS
?RefreshCharWnd@ExPCRoomSoldierBonusWnd@@IAEXXZ ENDP	; ExPCRoomSoldierBonusWnd::RefreshCharWnd
PUBLIC	??1?$vector@UPCRoomSoldierSelect@ExPCRoomSoldierBonusWnd@@V?$allocator@UPCRoomSoldierSelect@ExPCRoomSoldierBonusWnd@@@std@@@std@@QAE@XZ ; std::vector<ExPCRoomSoldierBonusWnd::PCRoomSoldierSelect,std::allocator<ExPCRoomSoldierBonusWnd::PCRoomSoldierSelect> >::~vector<ExPCRoomSoldierBonusWnd::PCRoomSoldierSelect,std::allocator<ExPCRoomSoldierBonusWnd::PCRoomSoldierSelect> >
; Function compile flags: /Ogsp
; File c:\program files (x86)\microsoft visual studio 10.0\vc\include\vector
;	COMDAT ??1?$vector@UPCRoomSoldierSelect@ExPCRoomSoldierBonusWnd@@V?$allocator@UPCRoomSoldierSelect@ExPCRoomSoldierBonusWnd@@@std@@@std@@QAE@XZ
_TEXT	SEGMENT
??1?$vector@UPCRoomSoldierSelect@ExPCRoomSoldierBonusWnd@@V?$allocator@UPCRoomSoldierSelect@ExPCRoomSoldierBonusWnd@@@std@@@std@@QAE@XZ PROC ; std::vector<ExPCRoomSoldierBonusWnd::PCRoomSoldierSelect,std::allocator<ExPCRoomSoldierBonusWnd::PCRoomSoldierSelect> >::~vector<ExPCRoomSoldierBonusWnd::PCRoomSoldierSelect,std::allocator<ExPCRoomSoldierBonusWnd::PCRoomSoldierSelect> >, COMDAT
; _this$ = ecx

; 705  : 		_Tidy();

  00000	e9 00 00 00 00	 jmp	 ?_Tidy@?$vector@UPCRoomSoldierSelect@ExPCRoomSoldierBonusWnd@@V?$allocator@UPCRoomSoldierSelect@ExPCRoomSoldierBonusWnd@@@std@@@std@@IAEXXZ ; std::vector<ExPCRoomSoldierBonusWnd::PCRoomSoldierSelect,std::allocator<ExPCRoomSoldierBonusWnd::PCRoomSoldierSelect> >::_Tidy
??1?$vector@UPCRoomSoldierSelect@ExPCRoomSoldierBonusWnd@@V?$allocator@UPCRoomSoldierSelect@ExPCRoomSoldierBonusWnd@@@std@@@std@@QAE@XZ ENDP ; std::vector<ExPCRoomSoldierBonusWnd::PCRoomSoldierSelect,std::allocator<ExPCRoomSoldierBonusWnd::PCRoomSoldierSelect> >::~vector<ExPCRoomSoldierBonusWnd::PCRoomSoldierSelect,std::allocator<ExPCRoomSoldierBonusWnd::PCRoomSoldierSelect> >
_TEXT	ENDS
PUBLIC	?erase@?$vector@UPCRoomSoldierSelect@ExPCRoomSoldierBonusWnd@@V?$allocator@UPCRoomSoldierSelect@ExPCRoomSoldierBonusWnd@@@std@@@std@@QAE?AV?$_Vector_iterator@V?$_Vector_val@UPCRoomSoldierSelect@ExPCRoomSoldierBonusWnd@@V?$allocator@UPCRoomSoldierSelect@ExPCRoomSoldierBonusWnd@@@std@@@std@@@2@V?$_Vector_const_iterator@V?$_Vector_val@UPCRoomSoldierSelect@ExPCRoomSoldierBonusWnd@@V?$allocator@UPCRoomSoldierSelect@ExPCRoomSoldierBonusWnd@@@std@@@std@@@2@@Z ; std::vector<ExPCRoomSoldierBonusWnd::PCRoomSoldierSelect,std::allocator<ExPCRoomSoldierBonusWnd::PCRoomSoldierSelect> >::erase
; Function compile flags: /Ogsp
;	COMDAT ?erase@?$vector@UPCRoomSoldierSelect@ExPCRoomSoldierBonusWnd@@V?$allocator@UPCRoomSoldierSelect@ExPCRoomSoldierBonusWnd@@@std@@@std@@QAE?AV?$_Vector_iterator@V?$_Vector_val@UPCRoomSoldierSelect@ExPCRoomSoldierBonusWnd@@V?$allocator@UPCRoomSoldierSelect@ExPCRoomSoldierBonusWnd@@@std@@@std@@@2@V?$_Vector_const_iterator@V?$_Vector_val@UPCRoomSoldierSelect@ExPCRoomSoldierBonusWnd@@V?$allocator@UPCRoomSoldierSelect@ExPCRoomSoldierBonusWnd@@@std@@@std@@@2@@Z
_TEXT	SEGMENT
___$ReturnUdt$ = 8					; size = 4
__Cat$540986 = 12					; size = 1
__Where$ = 12						; size = 4
?erase@?$vector@UPCRoomSoldierSelect@ExPCRoomSoldierBonusWnd@@V?$allocator@UPCRoomSoldierSelect@ExPCRoomSoldierBonusWnd@@@std@@@std@@QAE?AV?$_Vector_iterator@V?$_Vector_val@UPCRoomSoldierSelect@ExPCRoomSoldierBonusWnd@@V?$allocator@UPCRoomSoldierSelect@ExPCRoomSoldierBonusWnd@@@std@@@std@@@2@V?$_Vector_const_iterator@V?$_Vector_val@UPCRoomSoldierSelect@ExPCRoomSoldierBonusWnd@@V?$allocator@UPCRoomSoldierSelect@ExPCRoomSoldierBonusWnd@@@std@@@std@@@2@@Z PROC ; std::vector<ExPCRoomSoldierBonusWnd::PCRoomSoldierSelect,std::allocator<ExPCRoomSoldierBonusWnd::PCRoomSoldierSelect> >::erase, COMDAT
; _this$ = ecx

; 1179 : 		{	// erase element at where

  00000	55		 push	 ebp
  00001	8b ec		 mov	 ebp, esp

; 1180 : 		_Move(_VIPTR(_Where) + 1, this->_Mylast,
; 1181 : 			_VIPTR(_Where));

  00003	8b 45 0c	 mov	 eax, DWORD PTR __Where$[ebp]
  00006	56		 push	 esi
  00007	ff 75 0c	 push	 DWORD PTR __Cat$540986[ebp]
  0000a	8b f1		 mov	 esi, ecx
  0000c	50		 push	 eax
  0000d	ff 76 04	 push	 DWORD PTR [esi+4]
  00010	83 c0 08	 add	 eax, 8
  00013	50		 push	 eax
  00014	e8 00 00 00 00	 call	 ??$_Move@PAUPCRoomSoldierSelect@ExPCRoomSoldierBonusWnd@@PAU12@@std@@YAPAUPCRoomSoldierSelect@ExPCRoomSoldierBonusWnd@@PAU12@00U_Nonscalar_ptr_iterator_tag@0@@Z ; std::_Move<ExPCRoomSoldierBonusWnd::PCRoomSoldierSelect *,ExPCRoomSoldierBonusWnd::PCRoomSoldierSelect *>

; 1182 : 		_Destroy(this->_Mylast - 1, this->_Mylast);
; 1183 : 		--this->_Mylast;
; 1184 : 		return (_Make_iter(_Where));

  00019	8b 45 08	 mov	 eax, DWORD PTR ___$ReturnUdt$[ebp]
  0001c	8b 4d 0c	 mov	 ecx, DWORD PTR __Where$[ebp]
  0001f	83 c4 10	 add	 esp, 16			; 00000010H
  00022	83 46 04 f8	 add	 DWORD PTR [esi+4], -8	; fffffff8H
  00026	89 08		 mov	 DWORD PTR [eax], ecx
  00028	5e		 pop	 esi

; 1185 : 		}

  00029	5d		 pop	 ebp
  0002a	c2 08 00	 ret	 8
?erase@?$vector@UPCRoomSoldierSelect@ExPCRoomSoldierBonusWnd@@V?$allocator@UPCRoomSoldierSelect@ExPCRoomSoldierBonusWnd@@@std@@@std@@QAE?AV?$_Vector_iterator@V?$_Vector_val@UPCRoomSoldierSelect@ExPCRoomSoldierBonusWnd@@V?$allocator@UPCRoomSoldierSelect@ExPCRoomSoldierBonusWnd@@@std@@@std@@@2@V?$_Vector_const_iterator@V?$_Vector_val@UPCRoomSoldierSelect@ExPCRoomSoldierBonusWnd@@V?$allocator@UPCRoomSoldierSelect@ExPCRoomSoldierBonusWnd@@@std@@@std@@@2@@Z ENDP ; std::vector<ExPCRoomSoldierBonusWnd::PCRoomSoldierSelect,std::allocator<ExPCRoomSoldierBonusWnd::PCRoomSoldierSelect> >::erase
_TEXT	ENDS
PUBLIC	?erase@?$vector@UPCRoomSoldierSelect@ExPCRoomSoldierBonusWnd@@V?$allocator@UPCRoomSoldierSelect@ExPCRoomSoldierBonusWnd@@@std@@@std@@QAE?AV?$_Vector_iterator@V?$_Vector_val@UPCRoomSoldierSelect@ExPCRoomSoldierBonusWnd@@V?$allocator@UPCRoomSoldierSelect@ExPCRoomSoldierBonusWnd@@@std@@@std@@@2@V?$_Vector_const_iterator@V?$_Vector_val@UPCRoomSoldierSelect@ExPCRoomSoldierBonusWnd@@V?$allocator@UPCRoomSoldierSelect@ExPCRoomSoldierBonusWnd@@@std@@@std@@@2@0@Z ; std::vector<ExPCRoomSoldierBonusWnd::PCRoomSoldierSelect,std::allocator<ExPCRoomSoldierBonusWnd::PCRoomSoldierSelect> >::erase
; Function compile flags: /Ogsp
;	COMDAT ?erase@?$vector@UPCRoomSoldierSelect@ExPCRoomSoldierBonusWnd@@V?$allocator@UPCRoomSoldierSelect@ExPCRoomSoldierBonusWnd@@@std@@@std@@QAE?AV?$_Vector_iterator@V?$_Vector_val@UPCRoomSoldierSelect@ExPCRoomSoldierBonusWnd@@V?$allocator@UPCRoomSoldierSelect@ExPCRoomSoldierBonusWnd@@@std@@@std@@@2@V?$_Vector_const_iterator@V?$_Vector_val@UPCRoomSoldierSelect@ExPCRoomSoldierBonusWnd@@V?$allocator@UPCRoomSoldierSelect@ExPCRoomSoldierBonusWnd@@@std@@@std@@@2@0@Z
_TEXT	SEGMENT
___$ReturnUdt$ = 8					; size = 4
__First_arg$ = 12					; size = 4
__Cat$541161 = 16					; size = 1
__Last_arg$ = 16					; size = 4
?erase@?$vector@UPCRoomSoldierSelect@ExPCRoomSoldierBonusWnd@@V?$allocator@UPCRoomSoldierSelect@ExPCRoomSoldierBonusWnd@@@std@@@std@@QAE?AV?$_Vector_iterator@V?$_Vector_val@UPCRoomSoldierSelect@ExPCRoomSoldierBonusWnd@@V?$allocator@UPCRoomSoldierSelect@ExPCRoomSoldierBonusWnd@@@std@@@std@@@2@V?$_Vector_const_iterator@V?$_Vector_val@UPCRoomSoldierSelect@ExPCRoomSoldierBonusWnd@@V?$allocator@UPCRoomSoldierSelect@ExPCRoomSoldierBonusWnd@@@std@@@std@@@2@0@Z PROC ; std::vector<ExPCRoomSoldierBonusWnd::PCRoomSoldierSelect,std::allocator<ExPCRoomSoldierBonusWnd::PCRoomSoldierSelect> >::erase, COMDAT
; _this$ = ecx

; 1190 : 		{	// erase [_First, _Last)

  00000	55		 push	 ebp
  00001	8b ec		 mov	 ebp, esp

; 1191 : 		iterator _First = _Make_iter(_First_arg);

  00003	8b 45 0c	 mov	 eax, DWORD PTR __First_arg$[ebp]
  00006	56		 push	 esi
  00007	57		 push	 edi
  00008	8b 7d 08	 mov	 edi, DWORD PTR ___$ReturnUdt$[ebp]
  0000b	8b f1		 mov	 esi, ecx
  0000d	89 07		 mov	 DWORD PTR [edi], eax

; 1192 : 		iterator _Last = _Make_iter(_Last_arg);
; 1193 : 
; 1194 : 		if (_First != _Last)

  0000f	3b 45 10	 cmp	 eax, DWORD PTR __Last_arg$[ebp]
  00012	74 16		 je	 SHORT $LN1@erase@2

; 1195 : 			{	// worth doing, copy down over hole
; 1196 :  #if _ITERATOR_DEBUG_LEVEL == 2
; 1197 : 			if (_Last < _First || _VICONT(_First) != this
; 1198 : 				|| _VIPTR(_First) < this->_Myfirst
; 1199 : 				|| this->_Mylast < _VIPTR(_Last))
; 1200 : 				_DEBUG_ERROR("vector erase iterator outside range");
; 1201 : 			pointer _Ptr = _Move(_VIPTR(_Last), this->_Mylast,
; 1202 : 				_VIPTR(_First));
; 1203 : 			_Orphan_range(_VIPTR(_First), this->_Mylast);
; 1204 : 
; 1205 :  #else /* _ITERATOR_DEBUG_LEVEL == 2 */
; 1206 : 			pointer _Ptr = _Move(_VIPTR(_Last), this->_Mylast,
; 1207 : 				_VIPTR(_First));

  00014	ff 75 10	 push	 DWORD PTR __Cat$541161[ebp]
  00017	8b 4e 04	 mov	 ecx, DWORD PTR [esi+4]
  0001a	50		 push	 eax
  0001b	51		 push	 ecx
  0001c	ff 75 10	 push	 DWORD PTR __Last_arg$[ebp]
  0001f	e8 00 00 00 00	 call	 ??$_Move@PAUPCRoomSoldierSelect@ExPCRoomSoldierBonusWnd@@PAU12@@std@@YAPAUPCRoomSoldierSelect@ExPCRoomSoldierBonusWnd@@PAU12@00U_Nonscalar_ptr_iterator_tag@0@@Z ; std::_Move<ExPCRoomSoldierBonusWnd::PCRoomSoldierSelect *,ExPCRoomSoldierBonusWnd::PCRoomSoldierSelect *>
  00024	83 c4 10	 add	 esp, 16			; 00000010H

; 1208 :  #endif /* _ITERATOR_DEBUG_LEVEL == 2 */
; 1209 : 
; 1210 : 			_Destroy(_Ptr, this->_Mylast);
; 1211 : 			this->_Mylast = _Ptr;

  00027	89 46 04	 mov	 DWORD PTR [esi+4], eax
$LN1@erase@2:

; 1212 : 			}
; 1213 : 		return (_First);

  0002a	8b c7		 mov	 eax, edi
  0002c	5f		 pop	 edi
  0002d	5e		 pop	 esi

; 1214 : 		}

  0002e	5d		 pop	 ebp
  0002f	c2 0c 00	 ret	 12			; 0000000cH
?erase@?$vector@UPCRoomSoldierSelect@ExPCRoomSoldierBonusWnd@@V?$allocator@UPCRoomSoldierSelect@ExPCRoomSoldierBonusWnd@@@std@@@std@@QAE?AV?$_Vector_iterator@V?$_Vector_val@UPCRoomSoldierSelect@ExPCRoomSoldierBonusWnd@@V?$allocator@UPCRoomSoldierSelect@ExPCRoomSoldierBonusWnd@@@std@@@std@@@2@V?$_Vector_const_iterator@V?$_Vector_val@UPCRoomSoldierSelect@ExPCRoomSoldierBonusWnd@@V?$allocator@UPCRoomSoldierSelect@ExPCRoomSoldierBonusWnd@@@std@@@std@@@2@0@Z ENDP ; std::vector<ExPCRoomSoldierBonusWnd::PCRoomSoldierSelect,std::allocator<ExPCRoomSoldierBonusWnd::PCRoomSoldierSelect> >::erase
_TEXT	ENDS
PUBLIC	??$_Umove@PAUPCRoomSoldierSelect@ExPCRoomSoldierBonusWnd@@@?$vector@UPCRoomSoldierSelect@ExPCRoomSoldierBonusWnd@@V?$allocator@UPCRoomSoldierSelect@ExPCRoomSoldierBonusWnd@@@std@@@std@@IAEPAUPCRoomSoldierSelect@ExPCRoomSoldierBonusWnd@@PAU23@00@Z ; std::vector<ExPCRoomSoldierBonusWnd::PCRoomSoldierSelect,std::allocator<ExPCRoomSoldierBonusWnd::PCRoomSoldierSelect> >::_Umove<ExPCRoomSoldierBonusWnd::PCRoomSoldierSelect *>
; Function compile flags: /Ogsp
;	COMDAT ??$_Umove@PAUPCRoomSoldierSelect@ExPCRoomSoldierBonusWnd@@@?$vector@UPCRoomSoldierSelect@ExPCRoomSoldierBonusWnd@@V?$allocator@UPCRoomSoldierSelect@ExPCRoomSoldierBonusWnd@@@std@@@std@@IAEPAUPCRoomSoldierSelect@ExPCRoomSoldierBonusWnd@@PAU23@00@Z
_TEXT	SEGMENT
__First$ = 8						; size = 4
__Last$ = 12						; size = 4
__Ptr$ = 16						; size = 4
??$_Umove@PAUPCRoomSoldierSelect@ExPCRoomSoldierBonusWnd@@@?$vector@UPCRoomSoldierSelect@ExPCRoomSoldierBonusWnd@@V?$allocator@UPCRoomSoldierSelect@ExPCRoomSoldierBonusWnd@@@std@@@std@@IAEPAUPCRoomSoldierSelect@ExPCRoomSoldierBonusWnd@@PAU23@00@Z PROC ; std::vector<ExPCRoomSoldierBonusWnd::PCRoomSoldierSelect,std::allocator<ExPCRoomSoldierBonusWnd::PCRoomSoldierSelect> >::_Umove<ExPCRoomSoldierBonusWnd::PCRoomSoldierSelect *>, COMDAT
; _this$ = ecx

; 1322 : 		pointer _Umove(_Iter _First, _Iter _Last, pointer _Ptr)

  00000	55		 push	 ebp
  00001	8b ec		 mov	 ebp, esp

; 1323 : 		{	// move initializing [_First, _Last), using allocator
; 1324 : 		return (_Uninitialized_move(_First, _Last,
; 1325 : 			_Ptr, this->_Alval));

  00003	83 c1 0c	 add	 ecx, 12			; 0000000cH
  00006	51		 push	 ecx
  00007	ff 75 10	 push	 DWORD PTR __Ptr$[ebp]
  0000a	ff 75 0c	 push	 DWORD PTR __Last$[ebp]
  0000d	ff 75 08	 push	 DWORD PTR __First$[ebp]
  00010	e8 00 00 00 00	 call	 ??$_Uninitialized_move@PAUPCRoomSoldierSelect@ExPCRoomSoldierBonusWnd@@PAU12@V?$allocator@UPCRoomSoldierSelect@ExPCRoomSoldierBonusWnd@@@std@@@std@@YAPAUPCRoomSoldierSelect@ExPCRoomSoldierBonusWnd@@PAU12@00AAV?$allocator@UPCRoomSoldierSelect@ExPCRoomSoldierBonusWnd@@@0@@Z ; std::_Uninitialized_move<ExPCRoomSoldierBonusWnd::PCRoomSoldierSelect *,ExPCRoomSoldierBonusWnd::PCRoomSoldierSelect *,std::allocator<ExPCRoomSoldierBonusWnd::PCRoomSoldierSelect> >
  00015	83 c4 10	 add	 esp, 16			; 00000010H

; 1326 : 		}

  00018	5d		 pop	 ebp
  00019	c2 0c 00	 ret	 12			; 0000000cH
??$_Umove@PAUPCRoomSoldierSelect@ExPCRoomSoldierBonusWnd@@@?$vector@UPCRoomSoldierSelect@ExPCRoomSoldierBonusWnd@@V?$allocator@UPCRoomSoldierSelect@ExPCRoomSoldierBonusWnd@@@std@@@std@@IAEPAUPCRoomSoldierSelect@ExPCRoomSoldierBonusWnd@@PAU23@00@Z ENDP ; std::vector<ExPCRoomSoldierBonusWnd::PCRoomSoldierSelect,std::allocator<ExPCRoomSoldierBonusWnd::PCRoomSoldierSelect> >::_Umove<ExPCRoomSoldierBonusWnd::PCRoomSoldierSelect *>
_TEXT	ENDS
PUBLIC	??$emplace_back@AAH@?$vector@HV?$allocator@H@std@@@std@@QAEXAAH@Z ; std::vector<int,std::allocator<int> >::emplace_back<int &>
; Function compile flags: /Ogsp
;	COMDAT ??$emplace_back@AAH@?$vector@HV?$allocator@H@std@@@std@@QAEXAAH@Z
_TEXT	SEGMENT
__Val$ = 8						; size = 4
??$emplace_back@AAH@?$vector@HV?$allocator@H@std@@@std@@QAEXAAH@Z PROC ; std::vector<int,std::allocator<int> >::emplace_back<int &>, COMDAT
; _this$ = ecx

; 661  : 		void emplace_back(_Valty&& _Val)

  00000	55		 push	 ebp
  00001	8b ec		 mov	 ebp, esp
  00003	56		 push	 esi
  00004	8b f1		 mov	 esi, ecx

; 662  : 		{	// insert element at end
; 663  : 		if (this->_Mylast == this->_Myend)

  00006	8b 46 04	 mov	 eax, DWORD PTR [esi+4]
  00009	3b 46 08	 cmp	 eax, DWORD PTR [esi+8]
  0000c	75 07		 jne	 SHORT $LN1@emplace_ba

; 664  : 			_Reserve(1);

  0000e	6a 01		 push	 1
  00010	e8 00 00 00 00	 call	 ?_Reserve@?$vector@HV?$allocator@H@std@@@std@@IAEXI@Z ; std::vector<int,std::allocator<int> >::_Reserve
$LN1@emplace_ba:

; 665  : 		_Orphan_range(this->_Mylast, this->_Mylast);
; 666  : 		_Cons_val(this->_Alval,
; 667  : 			this->_Mylast,
; 668  : 			_STD forward<_Valty>(_Val));

  00015	8b 46 04	 mov	 eax, DWORD PTR [esi+4]
  00018	85 c0		 test	 eax, eax
  0001a	74 07		 je	 SHORT $LN14@emplace_ba
  0001c	8b 4d 08	 mov	 ecx, DWORD PTR __Val$[ebp]
  0001f	8b 09		 mov	 ecx, DWORD PTR [ecx]
  00021	89 08		 mov	 DWORD PTR [eax], ecx
$LN14@emplace_ba:

; 669  : 		++this->_Mylast;

  00023	83 46 04 04	 add	 DWORD PTR [esi+4], 4
  00027	5e		 pop	 esi

; 670  : 		}

  00028	5d		 pop	 ebp
  00029	c2 04 00	 ret	 4
??$emplace_back@AAH@?$vector@HV?$allocator@H@std@@@std@@QAEXAAH@Z ENDP ; std::vector<int,std::allocator<int> >::emplace_back<int &>
_TEXT	ENDS
PUBLIC	??$rotate@V?$_Vector_iterator@V?$_Vector_val@HV?$allocator@H@std@@@std@@@std@@@std@@YA?AV?$_Vector_iterator@V?$_Vector_val@HV?$allocator@H@std@@@std@@@0@V10@00@Z ; std::rotate<std::_Vector_iterator<std::_Vector_val<int,std::allocator<int> > > >
; Function compile flags: /Ogsp
; File c:\program files (x86)\microsoft visual studio 10.0\vc\include\xutility
;	COMDAT ??$rotate@V?$_Vector_iterator@V?$_Vector_val@HV?$allocator@H@std@@@std@@@std@@@std@@YA?AV?$_Vector_iterator@V?$_Vector_val@HV?$allocator@H@std@@@std@@@0@V10@00@Z
_TEXT	SEGMENT
___$ReturnUdt$ = 8					; size = 4
__First$ = 12						; size = 4
__Mid$ = 16						; size = 4
__Last$ = 20						; size = 4
??$rotate@V?$_Vector_iterator@V?$_Vector_val@HV?$allocator@H@std@@@std@@@std@@@std@@YA?AV?$_Vector_iterator@V?$_Vector_val@HV?$allocator@H@std@@@std@@@0@V10@00@Z PROC ; std::rotate<std::_Vector_iterator<std::_Vector_val<int,std::allocator<int> > > >, COMDAT

; 3294 : 	{	// rotate [_First, _Last)

  00000	55		 push	 ebp
  00001	8b ec		 mov	 ebp, esp

; 3295 : 	_DEBUG_RANGE(_First, _Mid);
; 3296 : 	_DEBUG_RANGE(_Mid, _Last);
; 3297 : 	if (_First != _Mid && _Mid != _Last)

  00003	8b 4d 0c	 mov	 ecx, DWORD PTR __First$[ebp]
  00006	8b 45 10	 mov	 eax, DWORD PTR __Mid$[ebp]
  00009	3b c8		 cmp	 ecx, eax
  0000b	74 25		 je	 SHORT $LN56@rotate
  0000d	3b 45 14	 cmp	 eax, DWORD PTR __Last$[ebp]
  00010	74 20		 je	 SHORT $LN56@rotate

; 3298 : 		{	// rotate and compute new first iterator
; 3299 : 		_Rotate(_Unchecked(_First), _Unchecked(_Mid), _Unchecked(_Last),
; 3300 : 			_Iter_cat(_First));

  00012	6a 00		 push	 0
  00014	6a 00		 push	 0
  00016	ff 75 14	 push	 DWORD PTR __Last$[ebp]
  00019	50		 push	 eax
  0001a	51		 push	 ecx
  0001b	e8 00 00 00 00	 call	 ??$_Rotate@PAHHH@std@@YAXPAH0000@Z ; std::_Rotate<int *,int,int>

; 3301 : 		_STD advance(_First, _STD distance(_Mid, _Last));

  00020	8b 45 14	 mov	 eax, DWORD PTR __Last$[ebp]
  00023	2b 45 10	 sub	 eax, DWORD PTR __Mid$[ebp]
  00026	8b 4d 0c	 mov	 ecx, DWORD PTR __First$[ebp]
  00029	83 c4 14	 add	 esp, 20			; 00000014H
  0002c	c1 f8 02	 sar	 eax, 2
  0002f	8d 0c 81	 lea	 ecx, DWORD PTR [ecx+eax*4]
$LN56@rotate:

; 3302 : 		}
; 3303 : 	return (_First);

  00032	8b 45 08	 mov	 eax, DWORD PTR ___$ReturnUdt$[ebp]
  00035	89 08		 mov	 DWORD PTR [eax], ecx

; 3304 : 	}

  00037	5d		 pop	 ebp
  00038	c3		 ret	 0
??$rotate@V?$_Vector_iterator@V?$_Vector_val@HV?$allocator@H@std@@@std@@@std@@@std@@YA?AV?$_Vector_iterator@V?$_Vector_val@HV?$allocator@H@std@@@std@@@0@V10@00@Z ENDP ; std::rotate<std::_Vector_iterator<std::_Vector_val<int,std::allocator<int> > > >
_TEXT	ENDS
PUBLIC	??$rotate@V?$_Vector_iterator@V?$_Vector_val@UPCRoomSoldierSelect@ExPCRoomSoldierBonusWnd@@V?$allocator@UPCRoomSoldierSelect@ExPCRoomSoldierBonusWnd@@@std@@@std@@@std@@@std@@YA?AV?$_Vector_iterator@V?$_Vector_val@UPCRoomSoldierSelect@ExPCRoomSoldierBonusWnd@@V?$allocator@UPCRoomSoldierSelect@ExPCRoomSoldierBonusWnd@@@std@@@std@@@0@V10@00@Z ; std::rotate<std::_Vector_iterator<std::_Vector_val<ExPCRoomSoldierBonusWnd::PCRoomSoldierSelect,std::allocator<ExPCRoomSoldierBonusWnd::PCRoomSoldierSelect> > > >
; Function compile flags: /Ogsp
;	COMDAT ??$rotate@V?$_Vector_iterator@V?$_Vector_val@UPCRoomSoldierSelect@ExPCRoomSoldierBonusWnd@@V?$allocator@UPCRoomSoldierSelect@ExPCRoomSoldierBonusWnd@@@std@@@std@@@std@@@std@@YA?AV?$_Vector_iterator@V?$_Vector_val@UPCRoomSoldierSelect@ExPCRoomSoldierBonusWnd@@V?$allocator@UPCRoomSoldierSelect@ExPCRoomSoldierBonusWnd@@@std@@@std@@@0@V10@00@Z
_TEXT	SEGMENT
___$ReturnUdt$ = 8					; size = 4
__First$ = 12						; size = 4
__Mid$ = 16						; size = 4
__Last$ = 20						; size = 4
??$rotate@V?$_Vector_iterator@V?$_Vector_val@UPCRoomSoldierSelect@ExPCRoomSoldierBonusWnd@@V?$allocator@UPCRoomSoldierSelect@ExPCRoomSoldierBonusWnd@@@std@@@std@@@std@@@std@@YA?AV?$_Vector_iterator@V?$_Vector_val@UPCRoomSoldierSelect@ExPCRoomSoldierBonusWnd@@V?$allocator@UPCRoomSoldierSelect@ExPCRoomSoldierBonusWnd@@@std@@@std@@@0@V10@00@Z PROC ; std::rotate<std::_Vector_iterator<std::_Vector_val<ExPCRoomSoldierBonusWnd::PCRoomSoldierSelect,std::allocator<ExPCRoomSoldierBonusWnd::PCRoomSoldierSelect> > > >, COMDAT

; 3294 : 	{	// rotate [_First, _Last)

  00000	55		 push	 ebp
  00001	8b ec		 mov	 ebp, esp

; 3295 : 	_DEBUG_RANGE(_First, _Mid);
; 3296 : 	_DEBUG_RANGE(_Mid, _Last);
; 3297 : 	if (_First != _Mid && _Mid != _Last)

  00003	8b 4d 0c	 mov	 ecx, DWORD PTR __First$[ebp]
  00006	8b 45 10	 mov	 eax, DWORD PTR __Mid$[ebp]
  00009	3b c8		 cmp	 ecx, eax
  0000b	74 25		 je	 SHORT $LN56@rotate@2
  0000d	3b 45 14	 cmp	 eax, DWORD PTR __Last$[ebp]
  00010	74 20		 je	 SHORT $LN56@rotate@2

; 3298 : 		{	// rotate and compute new first iterator
; 3299 : 		_Rotate(_Unchecked(_First), _Unchecked(_Mid), _Unchecked(_Last),
; 3300 : 			_Iter_cat(_First));

  00012	6a 00		 push	 0
  00014	6a 00		 push	 0
  00016	ff 75 14	 push	 DWORD PTR __Last$[ebp]
  00019	50		 push	 eax
  0001a	51		 push	 ecx
  0001b	e8 00 00 00 00	 call	 ??$_Rotate@PAUPCRoomSoldierSelect@ExPCRoomSoldierBonusWnd@@HU12@@std@@YAXPAUPCRoomSoldierSelect@ExPCRoomSoldierBonusWnd@@00PAH0@Z ; std::_Rotate<ExPCRoomSoldierBonusWnd::PCRoomSoldierSelect *,int,ExPCRoomSoldierBonusWnd::PCRoomSoldierSelect>

; 3301 : 		_STD advance(_First, _STD distance(_Mid, _Last));

  00020	8b 45 14	 mov	 eax, DWORD PTR __Last$[ebp]
  00023	2b 45 10	 sub	 eax, DWORD PTR __Mid$[ebp]
  00026	8b 4d 0c	 mov	 ecx, DWORD PTR __First$[ebp]
  00029	83 c4 14	 add	 esp, 20			; 00000014H
  0002c	c1 f8 03	 sar	 eax, 3
  0002f	8d 0c c1	 lea	 ecx, DWORD PTR [ecx+eax*8]
$LN56@rotate@2:

; 3302 : 		}
; 3303 : 	return (_First);

  00032	8b 45 08	 mov	 eax, DWORD PTR ___$ReturnUdt$[ebp]
  00035	89 08		 mov	 DWORD PTR [eax], ecx

; 3304 : 	}

  00037	5d		 pop	 ebp
  00038	c3		 ret	 0
??$rotate@V?$_Vector_iterator@V?$_Vector_val@UPCRoomSoldierSelect@ExPCRoomSoldierBonusWnd@@V?$allocator@UPCRoomSoldierSelect@ExPCRoomSoldierBonusWnd@@@std@@@std@@@std@@@std@@YA?AV?$_Vector_iterator@V?$_Vector_val@UPCRoomSoldierSelect@ExPCRoomSoldierBonusWnd@@V?$allocator@UPCRoomSoldierSelect@ExPCRoomSoldierBonusWnd@@@std@@@std@@@0@V10@00@Z ENDP ; std::rotate<std::_Vector_iterator<std::_Vector_val<ExPCRoomSoldierBonusWnd::PCRoomSoldierSelect,std::allocator<ExPCRoomSoldierBonusWnd::PCRoomSoldierSelect> > > >
_TEXT	ENDS
PUBLIC	??_7ExPCRoomSoldierBonusWnd@@6B@		; ExPCRoomSoldierBonusWnd::`vftable'
PUBLIC	??0ExPCRoomSoldierBonusWnd@@QAE@XZ		; ExPCRoomSoldierBonusWnd::ExPCRoomSoldierBonusWnd
PUBLIC	??_R4ExPCRoomSoldierBonusWnd@@6B@		; ExPCRoomSoldierBonusWnd::`RTTI Complete Object Locator'
PUBLIC	??_R3ExPCRoomSoldierBonusWnd@@8			; ExPCRoomSoldierBonusWnd::`RTTI Class Hierarchy Descriptor'
PUBLIC	??_R2ExPCRoomSoldierBonusWnd@@8			; ExPCRoomSoldierBonusWnd::`RTTI Base Class Array'
PUBLIC	??_R1A@?0A@EA@ExPCRoomSoldierBonusWnd@@8	; ExPCRoomSoldierBonusWnd::`RTTI Base Class Descriptor at (0,-1,0,64)'
PUBLIC	?iwm_command@ExPCRoomSoldierBonusWnd@@UAEXPAVioWnd@@HK@Z ; ExPCRoomSoldierBonusWnd::iwm_command
PUBLIC	?iwm_show@ExPCRoomSoldierBonusWnd@@UAEXXZ	; ExPCRoomSoldierBonusWnd::iwm_show
EXTRN	??_EExPCRoomSoldierBonusWnd@@UAEPAXI@Z:PROC	; ExPCRoomSoldierBonusWnd::`vector deleting destructor'
;	COMDAT ??_R1A@?0A@EA@ExPCRoomSoldierBonusWnd@@8
; File c:\program files (x86)\microsoft visual studio 10.0\vc\include\xmemory
rdata$r	SEGMENT
??_R1A@?0A@EA@ExPCRoomSoldierBonusWnd@@8 DD FLAT:??_R0?AVExPCRoomSoldierBonusWnd@@@8 ; ExPCRoomSoldierBonusWnd::`RTTI Base Class Descriptor at (0,-1,0,64)'
	DD	01H
	DD	00H
	DD	0ffffffffH
	DD	00H
	DD	040H
	DD	FLAT:??_R3ExPCRoomSoldierBonusWnd@@8
rdata$r	ENDS
;	COMDAT ??_R2ExPCRoomSoldierBonusWnd@@8
rdata$r	SEGMENT
??_R2ExPCRoomSoldierBonusWnd@@8 DD FLAT:??_R1A@?0A@EA@ExPCRoomSoldierBonusWnd@@8 ; ExPCRoomSoldierBonusWnd::`RTTI Base Class Array'
	DD	FLAT:??_R1A@?0A@EA@ioWnd@@8
rdata$r	ENDS
;	COMDAT ??_R3ExPCRoomSoldierBonusWnd@@8
rdata$r	SEGMENT
??_R3ExPCRoomSoldierBonusWnd@@8 DD 00H			; ExPCRoomSoldierBonusWnd::`RTTI Class Hierarchy Descriptor'
	DD	00H
	DD	02H
	DD	FLAT:??_R2ExPCRoomSoldierBonusWnd@@8
rdata$r	ENDS
;	COMDAT ??_R4ExPCRoomSoldierBonusWnd@@6B@
rdata$r	SEGMENT
??_R4ExPCRoomSoldierBonusWnd@@6B@ DD 00H		; ExPCRoomSoldierBonusWnd::`RTTI Complete Object Locator'
	DD	00H
	DD	00H
	DD	FLAT:??_R0?AVExPCRoomSoldierBonusWnd@@@8
	DD	FLAT:??_R3ExPCRoomSoldierBonusWnd@@8
rdata$r	ENDS
;	COMDAT ??_7ExPCRoomSoldierBonusWnd@@6B@
CONST	SEGMENT
??_7ExPCRoomSoldierBonusWnd@@6B@ DD FLAT:??_R4ExPCRoomSoldierBonusWnd@@6B@ ; ExPCRoomSoldierBonusWnd::`vftable'
	DD	FLAT:?AddRenderFrame@ExPCRoomSoldierBonusWnd@@UAEXABVioHashString@@PAVioUIRenderFrame@@@Z
	DD	FLAT:?AddRenderImage@ExPCRoomSoldierBonusWnd@@UAEXABVioHashString@@PAVioUIRenderImage@@@Z
	DD	FLAT:?AddTooltipHelp@ioWnd@@UAEXABVioHashString@@00@Z
	DD	FLAT:?ParseExtraInfo@ioWnd@@UAEXAAVioXMLElement@@@Z
	DD	FLAT:?AddNamedRenderImage@ioWnd@@UAEXABVioHashString@@PAVioUIRenderImage@@@Z
	DD	FLAT:?RemoveNamedRenderImage@ioWnd@@UAEXABVioHashString@@@Z
	DD	FLAT:?GetNamedRenderImage@ioWnd@@UBEPAVioUIRenderImage@@ABVioHashString@@@Z
	DD	FLAT:?SetWindowAlpha@ioWnd@@UAEXH@Z
	DD	FLAT:?SetActive@ioWnd@@UAEXXZ
	DD	FLAT:?SetInActive@ioWnd@@UAEXXZ
	DD	FLAT:?ClearElementImageList@ioWnd@@UAEXXZ
	DD	FLAT:?SetSize@ioWnd@@UAEXHH@Z
	DD	FLAT:?SetPositionToDefault@ioWnd@@UAEXHH_N0@Z
	DD	FLAT:?IsNeedProcess@ioWnd@@UBE_NXZ
	DD	FLAT:?IsCanMouseReaction@ioWnd@@UBE_NXZ
	DD	FLAT:?AddChild@ioWnd@@UAEXPAV1@@Z
	DD	FLAT:?DeleteChild@ioWnd@@UAEXK@Z
	DD	FLAT:?DeleteAllChild@ioWnd@@UAEXXZ
	DD	FLAT:?OnRenderShowAndHide@ioWnd@@MAE_NXZ
	DD	FLAT:?OnRenderShowAndHideByDefault@ioWnd@@MAE_NK@Z
	DD	FLAT:?OnRenderShowAndHideByTop@ioWnd@@MAE_NK@Z
	DD	FLAT:?OnRenderShowAndHideByDown@ioWnd@@MAE_NK@Z
	DD	FLAT:?OnRender@ExPCRoomSoldierBonusWnd@@MAEXXZ
	DD	FLAT:?OnRenderAfterChild@ExPCRoomSoldierBonusWnd@@MAEXXZ
	DD	FLAT:?OnProcess@ExPCRoomSoldierBonusWnd@@MAEXM@Z
	DD	FLAT:?OnMouseProcess@ioWnd@@MAEXABVioMouse@@@Z
	DD	FLAT:?CheckFrameReSize@ioWnd@@MAEXHHHH@Z
	DD	FLAT:?RenderImageList@ioWnd@@MAEXHHW4UIRenderType@@@Z
	DD	FLAT:?iwm_create@ExPCRoomSoldierBonusWnd@@UAEXXZ
	DD	FLAT:?iwm_destroy@ioWnd@@UAEXXZ
	DD	FLAT:?iwm_lbuttondown@ioWnd@@UAEXABVioMouse@@@Z
	DD	FLAT:?iwm_lbuttonup@ioWnd@@UAEXABVioMouse@@@Z
	DD	FLAT:?iwm_lbuttonDBLCLK@ioWnd@@UAEXABVioMouse@@@Z
	DD	FLAT:?iwm_rbuttondown@ioWnd@@UAEXABVioMouse@@@Z
	DD	FLAT:?iwm_rbuttonup@ioWnd@@UAEXABVioMouse@@@Z
	DD	FLAT:?iwm_command@ExPCRoomSoldierBonusWnd@@UAEXPAVioWnd@@HK@Z
	DD	FLAT:?iwm_mouseover@ioWnd@@UAEXABVioMouse@@@Z
	DD	FLAT:?iwm_mousemove@ioWnd@@UAEXABVioMouse@@@Z
	DD	FLAT:?iwm_mouseleave@ioWnd@@UAEXABVioMouse@@@Z
	DD	FLAT:?iwm_vscroll@ioWnd@@UAEXKH@Z
	DD	FLAT:?iwm_wheel@ioWnd@@UAEXH@Z
	DD	FLAT:?iwm_show@ExPCRoomSoldierBonusWnd@@UAEXXZ
	DD	FLAT:?iwm_hide@ioWnd@@UAEXXZ
	DD	FLAT:?iwm_esc@ioWnd@@UAE_NXZ
	DD	FLAT:?iwm_spacebar@ExPCRoomSoldierBonusWnd@@UAE_NXZ
	DD	FLAT:?iwm_gototop@ioWnd@@UAEXXZ
	DD	FLAT:?iwm_dragenter@ioWnd@@UAE?AW4IWDropEffect@@PAVioDragItem@@ABVioMouse@@@Z
	DD	FLAT:?iwm_dragover@ioWnd@@UAE?AW4IWDropEffect@@PAVioDragItem@@ABVioMouse@@@Z
	DD	FLAT:?iwm_dragleave@ioWnd@@UAEXXZ
	DD	FLAT:?iwm_dropitem@ioWnd@@UAE_NPAVioDragItem@@ABVioMouse@@PAV1@@Z
	DD	FLAT:?iwm_dropdone@ioWnd@@UAEXPAVioDragItem@@PAV1@_N@Z
	DD	FLAT:?IsEXType@ioWnd@@UBE_NXZ
	DD	FLAT:?GetWndType@ioWnd@@UBEKXZ
	DD	FLAT:?RenderWnd@ioWnd@@UAEXXZ
	DD	FLAT:?SetIDEX@ioWnd@@UAEXAAK_N@Z
	DD	FLAT:?ParseXML@ioWnd@@UAEXAAVioXMLElement@@@Z
	DD	FLAT:?GetHeaderFileName@ioWnd@@UAEPBDXZ
	DD	FLAT:?GetTemplateName@ioWnd@@UAEPBDXZ
	DD	FLAT:?GetDefClassName@ioWnd@@UBEPBDXZ
	DD	FLAT:?_Clone@ioWnd@@UAEPAV1@XZ
	DD	FLAT:?Copy@ioWnd@@UAEXPAV1@@Z
	DD	FLAT:?Save@ioWnd@@UAE_NAAVioXMLElement@@@Z
	DD	FLAT:?SetSaveData@ioWnd@@UAEXAAVioXMLElement@@@Z
	DD	FLAT:?SetPosX@ioWnd@@UAEXH@Z
	DD	FLAT:?SetPosY@ioWnd@@UAEXH@Z
	DD	FLAT:?SetWidth@ioWnd@@UAEXH@Z
	DD	FLAT:?SetHeight@ioWnd@@UAEXH@Z
	DD	FLAT:?GetNumFixedRenderFrame@ioWnd@@UBEHXZ
	DD	FLAT:?GetFixedRenderFrameType@ioWnd@@UAEPBDH@Z
	DD	FLAT:?GetRenderFrame@ioWnd@@UAEPAPAVioUIRenderElement@@PBD@Z
	DD	FLAT:?GetNumFixedRenderImage@ioWnd@@UBEHXZ
	DD	FLAT:?GetFixedRenderImageType@ioWnd@@UAEPBDH@Z
	DD	FLAT:?GetRenderImage@ioWnd@@UAEPAPAVioUIRenderElement@@PBD@Z
	DD	FLAT:?AddEffect@ioWnd@@UAEXABVioHashString@@PAVioUI3DEffectRender@@@Z
	DD	FLAT:?GetEffect@ioWnd@@UAEPAVioUI3DEffectRender@@VioHashString@@@Z
	DD	FLAT:??_EExPCRoomSoldierBonusWnd@@UAEPAXI@Z
CONST	ENDS
;	COMDAT xdata$x
xdata$x	SEGMENT
__unwindtable$??0ExPCRoomSoldierBonusWnd@@QAE@XZ DD 0ffffffffH
	DD	FLAT:__unwindfunclet$??0ExPCRoomSoldierBonusWnd@@QAE@XZ$0
	DD	00H
	DD	FLAT:__unwindfunclet$??0ExPCRoomSoldierBonusWnd@@QAE@XZ$1
__ehfuncinfo$??0ExPCRoomSoldierBonusWnd@@QAE@XZ DD 019930522H
	DD	02H
	DD	FLAT:__unwindtable$??0ExPCRoomSoldierBonusWnd@@QAE@XZ
	DD	2 DUP(00H)
	DD	2 DUP(00H)
	DD	00H
	DD	01H
; Function compile flags: /Ogsp
; File d:\lost saga for developer\youtube\tutorial\source\src\lsclient\gui\expcroomwnd.cpp
xdata$x	ENDS
;	COMDAT ??0ExPCRoomSoldierBonusWnd@@QAE@XZ
_TEXT	SEGMENT
_this$ = -16						; size = 4
__$EHRec$ = -12						; size = 12
??0ExPCRoomSoldierBonusWnd@@QAE@XZ PROC			; ExPCRoomSoldierBonusWnd::ExPCRoomSoldierBonusWnd, COMDAT
; _this$ = ecx

; 209  : {

  00000	6a 04		 push	 4
  00002	b8 00 00 00 00	 mov	 eax, __ehhandler$??0ExPCRoomSoldierBonusWnd@@QAE@XZ
  00007	e8 00 00 00 00	 call	 __EH_prolog3
  0000c	8b f1		 mov	 esi, ecx
  0000e	89 75 f0	 mov	 DWORD PTR _this$[ebp], esi
  00011	ff 15 00 00 00
	00		 call	 DWORD PTR __imp_??0ioWnd@@QAE@XZ
  00017	8b 3d 00 00 00
	00		 mov	 edi, DWORD PTR __imp_??0ioHashString@@QAE@XZ
  0001d	33 db		 xor	 ebx, ebx
  0001f	8d 8e 70 01 00
	00		 lea	 ecx, DWORD PTR [esi+368]
  00025	89 5d fc	 mov	 DWORD PTR __$EHRec$[ebp+8], ebx
  00028	c7 06 00 00 00
	00		 mov	 DWORD PTR [esi], OFFSET ??_7ExPCRoomSoldierBonusWnd@@6B@
  0002e	ff d7		 call	 edi
  00030	8d 8e 84 01 00
	00		 lea	 ecx, DWORD PTR [esi+388]
  00036	c6 45 fc 01	 mov	 BYTE PTR __$EHRec$[ebp+8], 1
  0003a	ff d7		 call	 edi
  0003c	89 9e a8 01 00
	00		 mov	 DWORD PTR [esi+424], ebx
  00042	89 9e ac 01 00
	00		 mov	 DWORD PTR [esi+428], ebx
  00048	89 9e b0 01 00
	00		 mov	 DWORD PTR [esi+432], ebx
  0004e	89 9e b8 01 00
	00		 mov	 DWORD PTR [esi+440], ebx
  00054	89 9e bc 01 00
	00		 mov	 DWORD PTR [esi+444], ebx
  0005a	89 9e c0 01 00
	00		 mov	 DWORD PTR [esi+448], ebx

; 210  : 	m_iCurPage = m_iMaxPage = 0;

  00060	89 9e a4 01 00
	00		 mov	 DWORD PTR [esi+420], ebx
  00066	89 9e a0 01 00
	00		 mov	 DWORD PTR [esi+416], ebx

; 211  : 
; 212  : 	m_pPlayStage  = NULL;

  0006c	89 9e 9c 01 00
	00		 mov	 DWORD PTR [esi+412], ebx

; 213  : 
; 214  : 	m_pCharFrameOne	   = NULL;

  00072	89 9e 60 01 00
	00		 mov	 DWORD PTR [esi+352], ebx

; 215  : 	m_pCharFrameTwo    = NULL;

  00078	89 9e 64 01 00
	00		 mov	 DWORD PTR [esi+356], ebx

; 216  : 
; 217  : 	m_pCharBottomFrame = NULL;

  0007e	89 9e 6c 01 00
	00		 mov	 DWORD PTR [esi+364], ebx

; 218  : 	m_pCharFrameNum    = NULL;

  00084	89 9e 68 01 00
	00		 mov	 DWORD PTR [esi+360], ebx

; 219  : 
; 220  : 	m_bFirstAutoSelect = false;

  0008a	66 89 9e 98 01
	00 00		 mov	 WORD PTR [esi+408], bx

; 221  : 	m_bEraseBegin      = false;
; 222  : }

  00091	8b c6		 mov	 eax, esi
  00093	e8 00 00 00 00	 call	 __EH_epilog3
  00098	c3		 ret	 0
_TEXT	ENDS
;	COMDAT text$x
text$x	SEGMENT
__unwindfunclet$??0ExPCRoomSoldierBonusWnd@@QAE@XZ$0:
  00000	8b 4d f0	 mov	 ecx, DWORD PTR _this$[ebp]
  00003	ff 25 00 00 00
	00		 jmp	 DWORD PTR __imp_??1ioWnd@@UAE@XZ
__unwindfunclet$??0ExPCRoomSoldierBonusWnd@@QAE@XZ$1:
  00009	8b 4d f0	 mov	 ecx, DWORD PTR _this$[ebp]
  0000c	81 c1 70 01 00
	00		 add	 ecx, 368		; 00000170H
  00012	ff 25 00 00 00
	00		 jmp	 DWORD PTR __imp_??1ioHashString@@QAE@XZ
__ehhandler$??0ExPCRoomSoldierBonusWnd@@QAE@XZ:
  00018	8b 54 24 08	 mov	 edx, DWORD PTR [esp+8]
  0001c	8d 42 0c	 lea	 eax, DWORD PTR [edx+12]
  0001f	8b 4a ec	 mov	 ecx, DWORD PTR [edx-20]
  00022	33 c8		 xor	 ecx, eax
  00024	e8 00 00 00 00	 call	 @__security_check_cookie@4
  00029	b8 00 00 00 00	 mov	 eax, OFFSET __ehfuncinfo$??0ExPCRoomSoldierBonusWnd@@QAE@XZ
  0002e	e9 00 00 00 00	 jmp	 ___CxxFrameHandler3
text$x	ENDS
??0ExPCRoomSoldierBonusWnd@@QAE@XZ ENDP			; ExPCRoomSoldierBonusWnd::ExPCRoomSoldierBonusWnd
PUBLIC	??1ExPCRoomSoldierBonusWnd@@UAE@XZ		; ExPCRoomSoldierBonusWnd::~ExPCRoomSoldierBonusWnd
;	COMDAT xdata$x
; File c:\program files (x86)\microsoft visual studio 10.0\vc\include\vector
xdata$x	SEGMENT
__ehfuncinfo$??1ExPCRoomSoldierBonusWnd@@UAE@XZ DD 019930522H
	DD	05H
	DD	FLAT:__unwindtable$??1ExPCRoomSoldierBonusWnd@@UAE@XZ
	DD	2 DUP(00H)
	DD	2 DUP(00H)
	DD	00H
	DD	01H
__unwindtable$??1ExPCRoomSoldierBonusWnd@@UAE@XZ DD 0ffffffffH
	DD	FLAT:__unwindfunclet$??1ExPCRoomSoldierBonusWnd@@UAE@XZ$0
	DD	00H
	DD	FLAT:__unwindfunclet$??1ExPCRoomSoldierBonusWnd@@UAE@XZ$1
	DD	01H
	DD	FLAT:__unwindfunclet$??1ExPCRoomSoldierBonusWnd@@UAE@XZ$2
	DD	02H
	DD	FLAT:__unwindfunclet$??1ExPCRoomSoldierBonusWnd@@UAE@XZ$3
	DD	03H
	DD	FLAT:__unwindfunclet$??1ExPCRoomSoldierBonusWnd@@UAE@XZ$4
; Function compile flags: /Ogsp
; File d:\lost saga for developer\youtube\tutorial\source\src\lsclient\gui\expcroomwnd.cpp
xdata$x	ENDS
;	COMDAT ??1ExPCRoomSoldierBonusWnd@@UAE@XZ
_TEXT	SEGMENT
_this$ = -16						; size = 4
__$EHRec$ = -12						; size = 12
??1ExPCRoomSoldierBonusWnd@@UAE@XZ PROC			; ExPCRoomSoldierBonusWnd::~ExPCRoomSoldierBonusWnd, COMDAT
; _this$ = ecx

; 225  : {

  00000	6a 04		 push	 4
  00002	b8 00 00 00 00	 mov	 eax, __ehhandler$??1ExPCRoomSoldierBonusWnd@@UAE@XZ
  00007	e8 00 00 00 00	 call	 __EH_prolog3
  0000c	8b f1		 mov	 esi, ecx
  0000e	89 75 f0	 mov	 DWORD PTR _this$[ebp], esi
  00011	c7 06 00 00 00
	00		 mov	 DWORD PTR [esi], OFFSET ??_7ExPCRoomSoldierBonusWnd@@6B@

; 226  : 	SAFEDELETE( m_pCharFrameOne );	

  00017	8b 8e 60 01 00
	00		 mov	 ecx, DWORD PTR [esi+352]
  0001d	33 db		 xor	 ebx, ebx
  0001f	c7 45 fc 04 00
	00 00		 mov	 DWORD PTR __$EHRec$[ebp+8], 4
  00026	3b cb		 cmp	 ecx, ebx
  00028	74 0d		 je	 SHORT $LN4@ExPCRoomSo@2
  0002a	8b 01		 mov	 eax, DWORD PTR [ecx]
  0002c	6a 01		 push	 1
  0002e	ff 50 40	 call	 DWORD PTR [eax+64]
  00031	89 9e 60 01 00
	00		 mov	 DWORD PTR [esi+352], ebx
$LN4@ExPCRoomSo@2:

; 227  : 	SAFEDELETE( m_pCharFrameTwo );

  00037	8b 8e 64 01 00
	00		 mov	 ecx, DWORD PTR [esi+356]
  0003d	3b cb		 cmp	 ecx, ebx
  0003f	74 0d		 je	 SHORT $LN3@ExPCRoomSo@2
  00041	8b 01		 mov	 eax, DWORD PTR [ecx]
  00043	6a 01		 push	 1
  00045	ff 50 40	 call	 DWORD PTR [eax+64]
  00048	89 9e 64 01 00
	00		 mov	 DWORD PTR [esi+356], ebx
$LN3@ExPCRoomSo@2:

; 228  : 
; 229  : 	SAFEDELETE( m_pCharBottomFrame );

  0004e	8b 8e 6c 01 00
	00		 mov	 ecx, DWORD PTR [esi+364]
  00054	3b cb		 cmp	 ecx, ebx
  00056	74 0d		 je	 SHORT $LN2@ExPCRoomSo@2
  00058	8b 01		 mov	 eax, DWORD PTR [ecx]
  0005a	6a 01		 push	 1
  0005c	ff 50 40	 call	 DWORD PTR [eax+64]
  0005f	89 9e 6c 01 00
	00		 mov	 DWORD PTR [esi+364], ebx
$LN2@ExPCRoomSo@2:

; 230  : 	SAFEDELETE( m_pCharFrameNum );

  00065	8b 8e 68 01 00
	00		 mov	 ecx, DWORD PTR [esi+360]
  0006b	3b cb		 cmp	 ecx, ebx
  0006d	74 0d		 je	 SHORT $LN1@ExPCRoomSo@2
  0006f	8b 01		 mov	 eax, DWORD PTR [ecx]
  00071	6a 01		 push	 1
  00073	ff 50 40	 call	 DWORD PTR [eax+64]
  00076	89 9e 68 01 00
	00		 mov	 DWORD PTR [esi+360], ebx
$LN1@ExPCRoomSo@2:

; 231  : }

  0007c	8d 8e b8 01 00
	00		 lea	 ecx, DWORD PTR [esi+440]
  00082	c6 45 fc 03	 mov	 BYTE PTR __$EHRec$[ebp+8], 3
  00086	e8 00 00 00 00	 call	 ?_Tidy@?$vector@UPCRoomSoldierSelect@ExPCRoomSoldierBonusWnd@@V?$allocator@UPCRoomSoldierSelect@ExPCRoomSoldierBonusWnd@@@std@@@std@@IAEXXZ ; std::vector<ExPCRoomSoldierBonusWnd::PCRoomSoldierSelect,std::allocator<ExPCRoomSoldierBonusWnd::PCRoomSoldierSelect> >::_Tidy
  0008b	8d 8e a8 01 00
	00		 lea	 ecx, DWORD PTR [esi+424]
  00091	c6 45 fc 02	 mov	 BYTE PTR __$EHRec$[ebp+8], 2
  00095	e8 00 00 00 00	 call	 ?_Tidy@?$vector@HV?$allocator@H@std@@@std@@IAEXXZ ; std::vector<int,std::allocator<int> >::_Tidy
  0009a	8b 3d 00 00 00
	00		 mov	 edi, DWORD PTR __imp_??1ioHashString@@QAE@XZ
  000a0	8d 8e 84 01 00
	00		 lea	 ecx, DWORD PTR [esi+388]
  000a6	c6 45 fc 01	 mov	 BYTE PTR __$EHRec$[ebp+8], 1
  000aa	ff d7		 call	 edi
  000ac	8d 8e 70 01 00
	00		 lea	 ecx, DWORD PTR [esi+368]
  000b2	88 5d fc	 mov	 BYTE PTR __$EHRec$[ebp+8], bl
  000b5	ff d7		 call	 edi
  000b7	83 4d fc ff	 or	 DWORD PTR __$EHRec$[ebp+8], -1
  000bb	8b ce		 mov	 ecx, esi
  000bd	ff 15 00 00 00
	00		 call	 DWORD PTR __imp_??1ioWnd@@UAE@XZ
  000c3	e8 00 00 00 00	 call	 __EH_epilog3
  000c8	c3		 ret	 0
_TEXT	ENDS
;	COMDAT text$x
text$x	SEGMENT
__unwindfunclet$??1ExPCRoomSoldierBonusWnd@@UAE@XZ$0:
  00000	8b 4d f0	 mov	 ecx, DWORD PTR _this$[ebp]
  00003	ff 25 00 00 00
	00		 jmp	 DWORD PTR __imp_??1ioWnd@@UAE@XZ
__unwindfunclet$??1ExPCRoomSoldierBonusWnd@@UAE@XZ$1:
  00009	8b 4d f0	 mov	 ecx, DWORD PTR _this$[ebp]
  0000c	81 c1 70 01 00
	00		 add	 ecx, 368		; 00000170H
  00012	ff 25 00 00 00
	00		 jmp	 DWORD PTR __imp_??1ioHashString@@QAE@XZ
__unwindfunclet$??1ExPCRoomSoldierBonusWnd@@UAE@XZ$2:
  00018	8b 4d f0	 mov	 ecx, DWORD PTR _this$[ebp]
  0001b	81 c1 84 01 00
	00		 add	 ecx, 388		; 00000184H
  00021	ff 25 00 00 00
	00		 jmp	 DWORD PTR __imp_??1ioHashString@@QAE@XZ
__unwindfunclet$??1ExPCRoomSoldierBonusWnd@@UAE@XZ$3:
  00027	8b 4d f0	 mov	 ecx, DWORD PTR _this$[ebp]
  0002a	81 c1 a8 01 00
	00		 add	 ecx, 424		; 000001a8H
  00030	e9 00 00 00 00	 jmp	 ??1?$vector@HV?$allocator@H@std@@@std@@QAE@XZ ; std::vector<int,std::allocator<int> >::~vector<int,std::allocator<int> >
__unwindfunclet$??1ExPCRoomSoldierBonusWnd@@UAE@XZ$4:
  00035	8b 4d f0	 mov	 ecx, DWORD PTR _this$[ebp]
  00038	81 c1 b8 01 00
	00		 add	 ecx, 440		; 000001b8H
  0003e	e9 00 00 00 00	 jmp	 ??1?$vector@UPCRoomSoldierSelect@ExPCRoomSoldierBonusWnd@@V?$allocator@UPCRoomSoldierSelect@ExPCRoomSoldierBonusWnd@@@std@@@std@@QAE@XZ ; std::vector<ExPCRoomSoldierBonusWnd::PCRoomSoldierSelect,std::allocator<ExPCRoomSoldierBonusWnd::PCRoomSoldierSelect> >::~vector<ExPCRoomSoldierBonusWnd::PCRoomSoldierSelect,std::allocator<ExPCRoomSoldierBonusWnd::PCRoomSoldierSelect> >
__ehhandler$??1ExPCRoomSoldierBonusWnd@@UAE@XZ:
  00043	8b 54 24 08	 mov	 edx, DWORD PTR [esp+8]
  00047	8d 42 0c	 lea	 eax, DWORD PTR [edx+12]
  0004a	8b 4a ec	 mov	 ecx, DWORD PTR [edx-20]
  0004d	33 c8		 xor	 ecx, eax
  0004f	e8 00 00 00 00	 call	 @__security_check_cookie@4
  00054	b8 00 00 00 00	 mov	 eax, OFFSET __ehfuncinfo$??1ExPCRoomSoldierBonusWnd@@UAE@XZ
  00059	e9 00 00 00 00	 jmp	 ___CxxFrameHandler3
text$x	ENDS
??1ExPCRoomSoldierBonusWnd@@UAE@XZ ENDP			; ExPCRoomSoldierBonusWnd::~ExPCRoomSoldierBonusWnd
PUBLIC	?RemoveSelectInfo@ExPCRoomSoldierBonusWnd@@IAEXH@Z ; ExPCRoomSoldierBonusWnd::RemoveSelectInfo
; Function compile flags: /Ogsp
;	COMDAT ?RemoveSelectInfo@ExPCRoomSoldierBonusWnd@@IAEXH@Z
_TEXT	SEGMENT
$T541726 = 8						; size = 4
_iClassType$ = 8					; size = 4
?RemoveSelectInfo@ExPCRoomSoldierBonusWnd@@IAEXH@Z PROC	; ExPCRoomSoldierBonusWnd::RemoveSelectInfo, COMDAT
; _this$ = ecx

; 432  : {	

  00000	55		 push	 ebp
  00001	8b ec		 mov	 ebp, esp
  00003	56		 push	 esi
  00004	8b f1		 mov	 esi, ecx

; 433  : 	PCRoomSoldierSelectVec::iterator iter = m_PCRoomSoldierSelectVec.begin();
; 434  : 	for( ; iter != m_PCRoomSoldierSelectVec.end(); ++iter )

  00006	8b 96 bc 01 00
	00		 mov	 edx, DWORD PTR [esi+444]
  0000c	8d 8e b8 01 00
	00		 lea	 ecx, DWORD PTR [esi+440]
  00012	8b 01		 mov	 eax, DWORD PTR [ecx]
  00014	3b c2		 cmp	 eax, edx
  00016	74 1c		 je	 SHORT $LN2@RemoveSele
  00018	57		 push	 edi
$LL17@RemoveSele:

; 435  : 	{
; 436  : 		PCRoomSoldierSelect& rkInfo = *iter;
; 437  : 		if( rkInfo.m_iClassType == iClassType )

  00019	8b 38		 mov	 edi, DWORD PTR [eax]
  0001b	3b 7d 08	 cmp	 edi, DWORD PTR _iClassType$[ebp]
  0001e	74 09		 je	 SHORT $LN38@RemoveSele

; 433  : 	PCRoomSoldierSelectVec::iterator iter = m_PCRoomSoldierSelectVec.begin();
; 434  : 	for( ; iter != m_PCRoomSoldierSelectVec.end(); ++iter )

  00020	83 c0 08	 add	 eax, 8
  00023	3b c2		 cmp	 eax, edx
  00025	75 f2		 jne	 SHORT $LL17@RemoveSele

; 435  : 	{
; 436  : 		PCRoomSoldierSelect& rkInfo = *iter;
; 437  : 		if( rkInfo.m_iClassType == iClassType )

  00027	eb 0a		 jmp	 SHORT $LN40@RemoveSele
$LN38@RemoveSele:

; 438  : 		{
; 439  : 			m_PCRoomSoldierSelectVec.erase( iter );

  00029	50		 push	 eax
  0002a	8d 45 08	 lea	 eax, DWORD PTR $T541726[ebp]
  0002d	50		 push	 eax
  0002e	e8 00 00 00 00	 call	 ?erase@?$vector@UPCRoomSoldierSelect@ExPCRoomSoldierBonusWnd@@V?$allocator@UPCRoomSoldierSelect@ExPCRoomSoldierBonusWnd@@@std@@@std@@QAE?AV?$_Vector_iterator@V?$_Vector_val@UPCRoomSoldierSelect@ExPCRoomSoldierBonusWnd@@V?$allocator@UPCRoomSoldierSelect@ExPCRoomSoldierBonusWnd@@@std@@@std@@@2@V?$_Vector_const_iterator@V?$_Vector_val@UPCRoomSoldierSelect@ExPCRoomSoldierBonusWnd@@V?$allocator@UPCRoomSoldierSelect@ExPCRoomSoldierBonusWnd@@@std@@@std@@@2@@Z ; std::vector<ExPCRoomSoldierBonusWnd::PCRoomSoldierSelect,std::allocator<ExPCRoomSoldierBonusWnd::PCRoomSoldierSelect> >::erase
$LN40@RemoveSele:
  00033	5f		 pop	 edi
$LN2@RemoveSele:

; 440  : 			break;
; 441  : 		}
; 442  : 	}
; 443  : 
; 444  : 	RefreshCharWnd();

  00034	8b ce		 mov	 ecx, esi
  00036	e8 00 00 00 00	 call	 ?RefreshCharWnd@ExPCRoomSoldierBonusWnd@@IAEXXZ ; ExPCRoomSoldierBonusWnd::RefreshCharWnd
  0003b	5e		 pop	 esi

; 445  : }

  0003c	5d		 pop	 ebp
  0003d	c2 04 00	 ret	 4
?RemoveSelectInfo@ExPCRoomSoldierBonusWnd@@IAEXH@Z ENDP	; ExPCRoomSoldierBonusWnd::RemoveSelectInfo
_TEXT	ENDS
PUBLIC	?clear@?$vector@UPCRoomSoldierSelect@ExPCRoomSoldierBonusWnd@@V?$allocator@UPCRoomSoldierSelect@ExPCRoomSoldierBonusWnd@@@std@@@std@@QAEXXZ ; std::vector<ExPCRoomSoldierBonusWnd::PCRoomSoldierSelect,std::allocator<ExPCRoomSoldierBonusWnd::PCRoomSoldierSelect> >::clear
; Function compile flags: /Ogsp
; File c:\program files (x86)\microsoft visual studio 10.0\vc\include\vector
;	COMDAT ?clear@?$vector@UPCRoomSoldierSelect@ExPCRoomSoldierBonusWnd@@V?$allocator@UPCRoomSoldierSelect@ExPCRoomSoldierBonusWnd@@@std@@@std@@QAEXXZ
_TEXT	SEGMENT
$T541818 = -4						; size = 4
?clear@?$vector@UPCRoomSoldierSelect@ExPCRoomSoldierBonusWnd@@V?$allocator@UPCRoomSoldierSelect@ExPCRoomSoldierBonusWnd@@@std@@@std@@QAEXXZ PROC ; std::vector<ExPCRoomSoldierBonusWnd::PCRoomSoldierSelect,std::allocator<ExPCRoomSoldierBonusWnd::PCRoomSoldierSelect> >::clear, COMDAT
; _this$ = ecx

; 1217 : 		{	// erase all

  00000	55		 push	 ebp
  00001	8b ec		 mov	 ebp, esp
  00003	51		 push	 ecx

; 1218 : 		erase(begin(), end());

  00004	8b 41 04	 mov	 eax, DWORD PTR [ecx+4]
  00007	8b 11		 mov	 edx, DWORD PTR [ecx]
  00009	50		 push	 eax
  0000a	52		 push	 edx
  0000b	8d 45 fc	 lea	 eax, DWORD PTR $T541818[ebp]
  0000e	50		 push	 eax
  0000f	e8 00 00 00 00	 call	 ?erase@?$vector@UPCRoomSoldierSelect@ExPCRoomSoldierBonusWnd@@V?$allocator@UPCRoomSoldierSelect@ExPCRoomSoldierBonusWnd@@@std@@@std@@QAE?AV?$_Vector_iterator@V?$_Vector_val@UPCRoomSoldierSelect@ExPCRoomSoldierBonusWnd@@V?$allocator@UPCRoomSoldierSelect@ExPCRoomSoldierBonusWnd@@@std@@@std@@@2@V?$_Vector_const_iterator@V?$_Vector_val@UPCRoomSoldierSelect@ExPCRoomSoldierBonusWnd@@V?$allocator@UPCRoomSoldierSelect@ExPCRoomSoldierBonusWnd@@@std@@@std@@@2@0@Z ; std::vector<ExPCRoomSoldierBonusWnd::PCRoomSoldierSelect,std::allocator<ExPCRoomSoldierBonusWnd::PCRoomSoldierSelect> >::erase

; 1219 : 		}

  00014	c9		 leave
  00015	c3		 ret	 0
?clear@?$vector@UPCRoomSoldierSelect@ExPCRoomSoldierBonusWnd@@V?$allocator@UPCRoomSoldierSelect@ExPCRoomSoldierBonusWnd@@@std@@@std@@QAEXXZ ENDP ; std::vector<ExPCRoomSoldierBonusWnd::PCRoomSoldierSelect,std::allocator<ExPCRoomSoldierBonusWnd::PCRoomSoldierSelect> >::clear
_TEXT	ENDS
PUBLIC	?reserve@?$vector@UPCRoomSoldierSelect@ExPCRoomSoldierBonusWnd@@V?$allocator@UPCRoomSoldierSelect@ExPCRoomSoldierBonusWnd@@@std@@@std@@QAEXI@Z ; std::vector<ExPCRoomSoldierBonusWnd::PCRoomSoldierSelect,std::allocator<ExPCRoomSoldierBonusWnd::PCRoomSoldierSelect> >::reserve
EXTRN	__EH_prolog3_catch:PROC
;	COMDAT xdata$x
; File c:\program files (x86)\microsoft visual studio 10.0\vc\include\xmemory
xdata$x	SEGMENT
__catchsym$?reserve@?$vector@UPCRoomSoldierSelect@ExPCRoomSoldierBonusWnd@@V?$allocator@UPCRoomSoldierSelect@ExPCRoomSoldierBonusWnd@@@std@@@std@@QAEXI@Z$2 DD 040H
	DD	00H
	DD	00H
	DD	FLAT:__catch$?reserve@?$vector@UPCRoomSoldierSelect@ExPCRoomSoldierBonusWnd@@V?$allocator@UPCRoomSoldierSelect@ExPCRoomSoldierBonusWnd@@@std@@@std@@QAEXI@Z$0
__unwindtable$?reserve@?$vector@UPCRoomSoldierSelect@ExPCRoomSoldierBonusWnd@@V?$allocator@UPCRoomSoldierSelect@ExPCRoomSoldierBonusWnd@@@std@@@std@@QAEXI@Z DD 0ffffffffH
	DD	00H
	DD	0ffffffffH
	DD	00H
__tryblocktable$?reserve@?$vector@UPCRoomSoldierSelect@ExPCRoomSoldierBonusWnd@@V?$allocator@UPCRoomSoldierSelect@ExPCRoomSoldierBonusWnd@@@std@@@std@@QAEXI@Z DD 00H
	DD	00H
	DD	01H
	DD	01H
	DD	FLAT:__catchsym$?reserve@?$vector@UPCRoomSoldierSelect@ExPCRoomSoldierBonusWnd@@V?$allocator@UPCRoomSoldierSelect@ExPCRoomSoldierBonusWnd@@@std@@@std@@QAEXI@Z$2
__ehfuncinfo$?reserve@?$vector@UPCRoomSoldierSelect@ExPCRoomSoldierBonusWnd@@V?$allocator@UPCRoomSoldierSelect@ExPCRoomSoldierBonusWnd@@@std@@@std@@QAEXI@Z DD 019930522H
	DD	02H
	DD	FLAT:__unwindtable$?reserve@?$vector@UPCRoomSoldierSelect@ExPCRoomSoldierBonusWnd@@V?$allocator@UPCRoomSoldierSelect@ExPCRoomSoldierBonusWnd@@@std@@@std@@QAEXI@Z
	DD	01H
	DD	FLAT:__tryblocktable$?reserve@?$vector@UPCRoomSoldierSelect@ExPCRoomSoldierBonusWnd@@V?$allocator@UPCRoomSoldierSelect@ExPCRoomSoldierBonusWnd@@@std@@@std@@QAEXI@Z
	DD	2 DUP(00H)
	DD	00H
	DD	01H
; Function compile flags: /Ogsp
; File c:\program files (x86)\microsoft visual studio 10.0\vc\include\vector
xdata$x	ENDS
;	COMDAT ?reserve@?$vector@UPCRoomSoldierSelect@ExPCRoomSoldierBonusWnd@@V?$allocator@UPCRoomSoldierSelect@ExPCRoomSoldierBonusWnd@@@std@@@std@@QAEXI@Z
_TEXT	SEGMENT
__Ptr$533581 = -20					; size = 4
__$EHRec$ = -16						; size = 16
__Count$ = 8						; size = 4
?reserve@?$vector@UPCRoomSoldierSelect@ExPCRoomSoldierBonusWnd@@V?$allocator@UPCRoomSoldierSelect@ExPCRoomSoldierBonusWnd@@@std@@@std@@QAEXI@Z PROC ; std::vector<ExPCRoomSoldierBonusWnd::PCRoomSoldierSelect,std::allocator<ExPCRoomSoldierBonusWnd::PCRoomSoldierSelect> >::reserve, COMDAT
; _this$ = ecx

; 746  : 		{	// determine new minimum length of allocated storage

  00000	6a 08		 push	 8
  00002	b8 00 00 00 00	 mov	 eax, __ehhandler$?reserve@?$vector@UPCRoomSoldierSelect@ExPCRoomSoldierBonusWnd@@V?$allocator@UPCRoomSoldierSelect@ExPCRoomSoldierBonusWnd@@@std@@@std@@QAEXI@Z
  00007	e8 00 00 00 00	 call	 __EH_prolog3_catch
  0000c	8b f1		 mov	 esi, ecx

; 747  : 		if (max_size() < _Count)

  0000e	81 7d 08 ff ff
	ff 1f		 cmp	 DWORD PTR __Count$[ebp], 536870911 ; 1fffffffH
  00015	76 0b		 jbe	 SHORT $LN5@reserve@2

; 748  : 			_Xlen();	// result too long

  00017	68 00 00 00 00	 push	 OFFSET ??_C@_0BD@OLBABOEK@vector?$DMT?$DO?5too?5long?$AA@
  0001c	ff 15 00 00 00
	00		 call	 DWORD PTR __imp_?_Xlength_error@std@@YAXPBD@Z
$LN56@reserve@2:
$LN5@reserve@2:

; 749  : 		else if (capacity() < _Count)

  00022	8b 46 08	 mov	 eax, DWORD PTR [esi+8]
  00025	2b 06		 sub	 eax, DWORD PTR [esi]
  00027	c1 f8 03	 sar	 eax, 3
  0002a	3b 45 08	 cmp	 eax, DWORD PTR __Count$[ebp]
  0002d	73 65		 jae	 SHORT $LN3@reserve@2

; 750  : 			{	// not enough room, reallocate
; 751  : 			pointer _Ptr = this->_Alval.allocate(_Count);

  0002f	6a 00		 push	 0
  00031	ff 75 08	 push	 DWORD PTR __Count$[ebp]
  00034	e8 00 00 00 00	 call	 ??$_Allocate@UPCRoomSoldierSelect@ExPCRoomSoldierBonusWnd@@@std@@YAPAUPCRoomSoldierSelect@ExPCRoomSoldierBonusWnd@@IPAU12@@Z ; std::_Allocate<ExPCRoomSoldierBonusWnd::PCRoomSoldierSelect>

; 752  : 
; 753  : 			_TRY_BEGIN
; 754  : 			_Umove(this->_Myfirst, this->_Mylast, _Ptr);

  00039	8b 0e		 mov	 ecx, DWORD PTR [esi]
  0003b	83 65 fc 00	 and	 DWORD PTR __$EHRec$[ebp+12], 0
  0003f	8b d8		 mov	 ebx, eax
  00041	8b 46 04	 mov	 eax, DWORD PTR [esi+4]
  00044	8d 56 0c	 lea	 edx, DWORD PTR [esi+12]
  00047	52		 push	 edx
  00048	53		 push	 ebx
  00049	50		 push	 eax
  0004a	51		 push	 ecx
  0004b	89 5d ec	 mov	 DWORD PTR __Ptr$533581[ebp], ebx
  0004e	e8 00 00 00 00	 call	 ??$_Uninitialized_move@PAUPCRoomSoldierSelect@ExPCRoomSoldierBonusWnd@@PAU12@V?$allocator@UPCRoomSoldierSelect@ExPCRoomSoldierBonusWnd@@@std@@@std@@YAPAUPCRoomSoldierSelect@ExPCRoomSoldierBonusWnd@@PAU12@00AAV?$allocator@UPCRoomSoldierSelect@ExPCRoomSoldierBonusWnd@@@0@@Z ; std::_Uninitialized_move<ExPCRoomSoldierBonusWnd::PCRoomSoldierSelect *,ExPCRoomSoldierBonusWnd::PCRoomSoldierSelect *,std::allocator<ExPCRoomSoldierBonusWnd::PCRoomSoldierSelect> >

; 758  : 			_CATCH_END
; 759  : 
; 760  : 			size_type _Size = size();

  00053	8b 4e 04	 mov	 ecx, DWORD PTR [esi+4]
  00056	8b 06		 mov	 eax, DWORD PTR [esi]
  00058	83 4d fc ff	 or	 DWORD PTR __$EHRec$[ebp+12], -1
  0005c	8b f9		 mov	 edi, ecx
  0005e	2b f8		 sub	 edi, eax
  00060	83 c4 18	 add	 esp, 24			; 00000018H
  00063	c1 ff 03	 sar	 edi, 3
  00066	85 c0		 test	 eax, eax
  00068	74 11		 je	 SHORT $LN48@reserve@2

; 761  : 			if (this->_Myfirst != 0)

  0006a	eb 03		 jmp	 SHORT $LN55@reserve@2

; 762  : 				{	// destroy and deallocate old array
; 763  : 				_Destroy(this->_Myfirst, this->_Mylast);

$LL39@reserve@2:
  0006c	83 c0 08	 add	 eax, 8
$LN55@reserve@2:
  0006f	3b c1		 cmp	 eax, ecx
  00071	75 f9		 jne	 SHORT $LL39@reserve@2

; 764  : 				this->_Alval.deallocate(this->_Myfirst,
; 765  : 					this->_Myend - this->_Myfirst);

  00073	ff 36		 push	 DWORD PTR [esi]
  00075	e8 00 00 00 00	 call	 ??3@YAXPAX@Z		; operator delete
  0007a	59		 pop	 ecx
$LN48@reserve@2:

; 766  : 				}
; 767  : 
; 768  : 			this->_Orphan_all();

  0007b	8b ce		 mov	 ecx, esi
  0007d	ff 15 00 00 00
	00		 call	 DWORD PTR __imp_?_Orphan_all@_Container_base0@std@@QAEXXZ

; 769  : 			this->_Myend = _Ptr + _Count;

  00083	8b 45 08	 mov	 eax, DWORD PTR __Count$[ebp]
  00086	8d 04 c3	 lea	 eax, DWORD PTR [ebx+eax*8]
  00089	89 46 08	 mov	 DWORD PTR [esi+8], eax

; 770  : 			this->_Mylast = _Ptr + _Size;

  0008c	8d 04 fb	 lea	 eax, DWORD PTR [ebx+edi*8]
  0008f	89 46 04	 mov	 DWORD PTR [esi+4], eax

; 771  : 			this->_Myfirst = _Ptr;

  00092	89 1e		 mov	 DWORD PTR [esi], ebx
$LN3@reserve@2:

; 772  : 			}
; 773  : 		}

  00094	e8 00 00 00 00	 call	 __EH_epilog3
  00099	c2 04 00	 ret	 4
__catch$?reserve@?$vector@UPCRoomSoldierSelect@ExPCRoomSoldierBonusWnd@@V?$allocator@UPCRoomSoldierSelect@ExPCRoomSoldierBonusWnd@@@std@@@std@@QAEXI@Z$0:

; 755  : 			_CATCH_ALL
; 756  : 			this->_Alval.deallocate(_Ptr, _Count);

  0009c	ff 75 ec	 push	 DWORD PTR __Ptr$533581[ebp]
  0009f	e8 00 00 00 00	 call	 ??3@YAXPAX@Z		; operator delete
  000a4	59		 pop	 ecx

; 757  : 			_RERAISE;

  000a5	6a 00		 push	 0
  000a7	6a 00		 push	 0
  000a9	e8 00 00 00 00	 call	 __CxxThrowException@8
$LN57@reserve@2:
$LN54@reserve@2:
  000ae	cc		 int	 3
_TEXT	ENDS
;	COMDAT text$x
text$x	SEGMENT
__ehhandler$?reserve@?$vector@UPCRoomSoldierSelect@ExPCRoomSoldierBonusWnd@@V?$allocator@UPCRoomSoldierSelect@ExPCRoomSoldierBonusWnd@@@std@@@std@@QAEXI@Z:
  00000	8b 54 24 08	 mov	 edx, DWORD PTR [esp+8]
  00004	8d 42 0c	 lea	 eax, DWORD PTR [edx+12]
  00007	8b 4a e8	 mov	 ecx, DWORD PTR [edx-24]
  0000a	33 c8		 xor	 ecx, eax
  0000c	e8 00 00 00 00	 call	 @__security_check_cookie@4
  00011	b8 00 00 00 00	 mov	 eax, OFFSET __ehfuncinfo$?reserve@?$vector@UPCRoomSoldierSelect@ExPCRoomSoldierBonusWnd@@V?$allocator@UPCRoomSoldierSelect@ExPCRoomSoldierBonusWnd@@@std@@@std@@QAEXI@Z
  00016	e9 00 00 00 00	 jmp	 ___CxxFrameHandler3
text$x	ENDS
?reserve@?$vector@UPCRoomSoldierSelect@ExPCRoomSoldierBonusWnd@@V?$allocator@UPCRoomSoldierSelect@ExPCRoomSoldierBonusWnd@@@std@@@std@@QAEXI@Z ENDP ; std::vector<ExPCRoomSoldierBonusWnd::PCRoomSoldierSelect,std::allocator<ExPCRoomSoldierBonusWnd::PCRoomSoldierSelect> >::reserve
PUBLIC	??$emplace@AAH@?$vector@HV?$allocator@H@std@@@std@@QAE?AV?$_Vector_iterator@V?$_Vector_val@HV?$allocator@H@std@@@std@@@1@V?$_Vector_const_iterator@V?$_Vector_val@HV?$allocator@H@std@@@std@@@1@AAH@Z ; std::vector<int,std::allocator<int> >::emplace<int &>
; Function compile flags: /Ogsp
;	COMDAT ??$emplace@AAH@?$vector@HV?$allocator@H@std@@@std@@QAE?AV?$_Vector_iterator@V?$_Vector_val@HV?$allocator@H@std@@@std@@@1@V?$_Vector_const_iterator@V?$_Vector_val@HV?$allocator@H@std@@@std@@@1@AAH@Z
_TEXT	SEGMENT
___$ReturnUdt$ = 8					; size = 4
__Where$ = 12						; size = 4
$T542011 = 16						; size = 4
__Val$ = 16						; size = 4
??$emplace@AAH@?$vector@HV?$allocator@H@std@@@std@@QAE?AV?$_Vector_iterator@V?$_Vector_val@HV?$allocator@H@std@@@std@@@1@V?$_Vector_const_iterator@V?$_Vector_val@HV?$allocator@H@std@@@std@@@1@AAH@Z PROC ; std::vector<int,std::allocator<int> >::emplace<int &>, COMDAT
; _this$ = ecx

; 679  : 		iterator emplace(const_iterator _Where, _Valty&& _Val)

  00000	55		 push	 ebp
  00001	8b ec		 mov	 ebp, esp
  00003	56		 push	 esi

; 680  : 		{	// insert _Val at _Where
; 681  : 		size_type _Off = _VIPTR(_Where) - this->_Myfirst;

  00004	8b 75 0c	 mov	 esi, DWORD PTR __Where$[ebp]
  00007	57		 push	 edi

; 682  : 
; 683  :  #if _ITERATOR_DEBUG_LEVEL == 2
; 684  : 		if (size() < _Off)
; 685  : 			_DEBUG_ERROR("vector emplace iterator outside range");
; 686  :  #endif /* _ITERATOR_DEBUG_LEVEL == 2 */
; 687  : 
; 688  : 		emplace_back(_STD forward<_Valty>(_Val));

  00008	ff 75 10	 push	 DWORD PTR __Val$[ebp]
  0000b	8b f9		 mov	 edi, ecx
  0000d	2b 37		 sub	 esi, DWORD PTR [edi]
  0000f	e8 00 00 00 00	 call	 ??$emplace_back@AAH@?$vector@HV?$allocator@H@std@@@std@@QAEXAAH@Z ; std::vector<int,std::allocator<int> >::emplace_back<int &>

; 689  : 		_STD rotate(begin() + _Off, end() - 1, end());

  00014	8b 4f 04	 mov	 ecx, DWORD PTR [edi+4]
  00017	8b 07		 mov	 eax, DWORD PTR [edi]
  00019	51		 push	 ecx
  0001a	8d 51 fc	 lea	 edx, DWORD PTR [ecx-4]
  0001d	83 e6 fc	 and	 esi, -4			; fffffffcH
  00020	03 c6		 add	 eax, esi
  00022	52		 push	 edx
  00023	50		 push	 eax
  00024	8d 45 10	 lea	 eax, DWORD PTR $T542011[ebp]
  00027	50		 push	 eax
  00028	e8 00 00 00 00	 call	 ??$rotate@V?$_Vector_iterator@V?$_Vector_val@HV?$allocator@H@std@@@std@@@std@@@std@@YA?AV?$_Vector_iterator@V?$_Vector_val@HV?$allocator@H@std@@@std@@@0@V10@00@Z ; std::rotate<std::_Vector_iterator<std::_Vector_val<int,std::allocator<int> > > >

; 690  : 		return (begin() + _Off);

  0002d	8b 0f		 mov	 ecx, DWORD PTR [edi]
  0002f	8b 45 08	 mov	 eax, DWORD PTR ___$ReturnUdt$[ebp]
  00032	83 c4 10	 add	 esp, 16			; 00000010H
  00035	03 ce		 add	 ecx, esi
  00037	5f		 pop	 edi
  00038	89 08		 mov	 DWORD PTR [eax], ecx
  0003a	5e		 pop	 esi

; 691  : 		}

  0003b	5d		 pop	 ebp
  0003c	c2 0c 00	 ret	 12			; 0000000cH
??$emplace@AAH@?$vector@HV?$allocator@H@std@@@std@@QAE?AV?$_Vector_iterator@V?$_Vector_val@HV?$allocator@H@std@@@std@@@1@V?$_Vector_const_iterator@V?$_Vector_val@HV?$allocator@H@std@@@std@@@1@AAH@Z ENDP ; std::vector<int,std::allocator<int> >::emplace<int &>
; Function compile flags: /Ogsp
_TEXT	ENDS
;	COMDAT ??_GExPCRoomSoldierBonusWnd@@UAEPAXI@Z
_TEXT	SEGMENT
___flags$ = 8						; size = 4
??_GExPCRoomSoldierBonusWnd@@UAEPAXI@Z PROC		; ExPCRoomSoldierBonusWnd::`scalar deleting destructor', COMDAT
; _this$ = ecx
  00000	55		 push	 ebp
  00001	8b ec		 mov	 ebp, esp
  00003	56		 push	 esi
  00004	8b f1		 mov	 esi, ecx
  00006	e8 00 00 00 00	 call	 ??1ExPCRoomSoldierBonusWnd@@UAE@XZ ; ExPCRoomSoldierBonusWnd::~ExPCRoomSoldierBonusWnd
  0000b	f6 45 08 01	 test	 BYTE PTR ___flags$[ebp], 1
  0000f	74 07		 je	 SHORT $LN1@scalar@8
  00011	56		 push	 esi
  00012	e8 00 00 00 00	 call	 ??3@YAXPAX@Z		; operator delete
  00017	59		 pop	 ecx
$LN1@scalar@8:
  00018	8b c6		 mov	 eax, esi
  0001a	5e		 pop	 esi
  0001b	5d		 pop	 ebp
  0001c	c2 04 00	 ret	 4
??_GExPCRoomSoldierBonusWnd@@UAEPAXI@Z ENDP		; ExPCRoomSoldierBonusWnd::`scalar deleting destructor'
_TEXT	ENDS
PUBLIC	?_Reserve@?$vector@UPCRoomSoldierSelect@ExPCRoomSoldierBonusWnd@@V?$allocator@UPCRoomSoldierSelect@ExPCRoomSoldierBonusWnd@@@std@@@std@@IAEXI@Z ; std::vector<ExPCRoomSoldierBonusWnd::PCRoomSoldierSelect,std::allocator<ExPCRoomSoldierBonusWnd::PCRoomSoldierSelect> >::_Reserve
; Function compile flags: /Ogsp
;	COMDAT ?_Reserve@?$vector@UPCRoomSoldierSelect@ExPCRoomSoldierBonusWnd@@V?$allocator@UPCRoomSoldierSelect@ExPCRoomSoldierBonusWnd@@@std@@@std@@IAEXI@Z
_TEXT	SEGMENT
__Count$ = 8						; size = 4
?_Reserve@?$vector@UPCRoomSoldierSelect@ExPCRoomSoldierBonusWnd@@V?$allocator@UPCRoomSoldierSelect@ExPCRoomSoldierBonusWnd@@@std@@@std@@IAEXI@Z PROC ; std::vector<ExPCRoomSoldierBonusWnd::PCRoomSoldierSelect,std::allocator<ExPCRoomSoldierBonusWnd::PCRoomSoldierSelect> >::_Reserve, COMDAT
; _this$ = ecx

; 1290 : 		{	// ensure room for _Count new elements, grow exponentially

  00000	55		 push	 ebp
  00001	8b ec		 mov	 ebp, esp
  00003	56		 push	 esi
  00004	8b f1		 mov	 esi, ecx

; 1291 : 		size_type _Size = size();

  00006	8b 0e		 mov	 ecx, DWORD PTR [esi]
  00008	8b 46 04	 mov	 eax, DWORD PTR [esi+4]
  0000b	2b c1		 sub	 eax, ecx

; 1292 : 		if (max_size() - _Count < _Size)

  0000d	ba ff ff ff 1f	 mov	 edx, 536870911		; 1fffffffH
  00012	2b 55 08	 sub	 edx, DWORD PTR __Count$[ebp]
  00015	c1 f8 03	 sar	 eax, 3
  00018	3b d0		 cmp	 edx, eax
  0001a	73 0b		 jae	 SHORT $LN4@Reserve@2

; 1293 : 			_Xlen();

  0001c	68 00 00 00 00	 push	 OFFSET ??_C@_0BD@OLBABOEK@vector?$DMT?$DO?5too?5long?$AA@
  00021	ff 15 00 00 00
	00		 call	 DWORD PTR __imp_?_Xlength_error@std@@YAXPBD@Z
$LN21@Reserve@2:
$LN4@Reserve@2:

; 1294 : 		else if ((_Size += _Count) <= capacity())

  00027	8b 56 08	 mov	 edx, DWORD PTR [esi+8]
  0002a	03 45 08	 add	 eax, DWORD PTR __Count$[ebp]
  0002d	2b d1		 sub	 edx, ecx
  0002f	c1 fa 03	 sar	 edx, 3
  00032	3b c2		 cmp	 eax, edx
  00034	76 10		 jbe	 SHORT $LN1@Reserve@2

; 1295 : 			;
; 1296 : 		else
; 1297 : 			reserve(_Grow_to(_Size));

  00036	50		 push	 eax
  00037	8b ce		 mov	 ecx, esi
  00039	e8 00 00 00 00	 call	 ?_Grow_to@?$vector@UPCRoomSoldierSelect@ExPCRoomSoldierBonusWnd@@V?$allocator@UPCRoomSoldierSelect@ExPCRoomSoldierBonusWnd@@@std@@@std@@IBEII@Z ; std::vector<ExPCRoomSoldierBonusWnd::PCRoomSoldierSelect,std::allocator<ExPCRoomSoldierBonusWnd::PCRoomSoldierSelect> >::_Grow_to
  0003e	50		 push	 eax
  0003f	8b ce		 mov	 ecx, esi
  00041	e8 00 00 00 00	 call	 ?reserve@?$vector@UPCRoomSoldierSelect@ExPCRoomSoldierBonusWnd@@V?$allocator@UPCRoomSoldierSelect@ExPCRoomSoldierBonusWnd@@@std@@@std@@QAEXI@Z ; std::vector<ExPCRoomSoldierBonusWnd::PCRoomSoldierSelect,std::allocator<ExPCRoomSoldierBonusWnd::PCRoomSoldierSelect> >::reserve
$LN1@Reserve@2:
  00046	5e		 pop	 esi

; 1298 : 		}

  00047	5d		 pop	 ebp
  00048	c2 04 00	 ret	 4
$LN20@Reserve@2:
?_Reserve@?$vector@UPCRoomSoldierSelect@ExPCRoomSoldierBonusWnd@@V?$allocator@UPCRoomSoldierSelect@ExPCRoomSoldierBonusWnd@@@std@@@std@@IAEXI@Z ENDP ; std::vector<ExPCRoomSoldierBonusWnd::PCRoomSoldierSelect,std::allocator<ExPCRoomSoldierBonusWnd::PCRoomSoldierSelect> >::_Reserve
_TEXT	ENDS
PUBLIC	??$insert@AAH@?$vector@HV?$allocator@H@std@@@std@@QAE?AV?$_Vector_iterator@V?$_Vector_val@HV?$allocator@H@std@@@std@@@1@V?$_Vector_const_iterator@V?$_Vector_val@HV?$allocator@H@std@@@std@@@1@AAH@Z ; std::vector<int,std::allocator<int> >::insert<int &>
; Function compile flags: /Ogsp
;	COMDAT ??$insert@AAH@?$vector@HV?$allocator@H@std@@@std@@QAE?AV?$_Vector_iterator@V?$_Vector_val@HV?$allocator@H@std@@@std@@@1@V?$_Vector_const_iterator@V?$_Vector_val@HV?$allocator@H@std@@@std@@@1@AAH@Z
_TEXT	SEGMENT
___$ReturnUdt$ = 8					; size = 4
__Where$ = 12						; size = 4
__Val$ = 16						; size = 4
??$insert@AAH@?$vector@HV?$allocator@H@std@@@std@@QAE?AV?$_Vector_iterator@V?$_Vector_val@HV?$allocator@H@std@@@std@@@1@V?$_Vector_const_iterator@V?$_Vector_val@HV?$allocator@H@std@@@std@@@1@AAH@Z PROC ; std::vector<int,std::allocator<int> >::insert<int &>, COMDAT
; _this$ = ecx

; 673  : 		iterator insert(const_iterator _Where, _Valty&& _Val)

  00000	55		 push	 ebp
  00001	8b ec		 mov	 ebp, esp

; 674  : 		{	// insert _Val at _Where
; 675  : 		return (emplace(_Where, _STD forward<_Valty>(_Val)));

  00003	ff 75 10	 push	 DWORD PTR __Val$[ebp]
  00006	ff 75 0c	 push	 DWORD PTR __Where$[ebp]
  00009	ff 75 08	 push	 DWORD PTR ___$ReturnUdt$[ebp]
  0000c	e8 00 00 00 00	 call	 ??$emplace@AAH@?$vector@HV?$allocator@H@std@@@std@@QAE?AV?$_Vector_iterator@V?$_Vector_val@HV?$allocator@H@std@@@std@@@1@V?$_Vector_const_iterator@V?$_Vector_val@HV?$allocator@H@std@@@std@@@1@AAH@Z ; std::vector<int,std::allocator<int> >::emplace<int &>
  00011	8b 45 08	 mov	 eax, DWORD PTR ___$ReturnUdt$[ebp]

; 676  : 		}

  00014	5d		 pop	 ebp
  00015	c2 0c 00	 ret	 12			; 0000000cH
??$insert@AAH@?$vector@HV?$allocator@H@std@@@std@@QAE?AV?$_Vector_iterator@V?$_Vector_val@HV?$allocator@H@std@@@std@@@1@V?$_Vector_const_iterator@V?$_Vector_val@HV?$allocator@H@std@@@std@@@1@AAH@Z ENDP ; std::vector<int,std::allocator<int> >::insert<int &>
_TEXT	ENDS
PUBLIC	??$emplace_back@AAUPCRoomSoldierSelect@ExPCRoomSoldierBonusWnd@@@?$vector@UPCRoomSoldierSelect@ExPCRoomSoldierBonusWnd@@V?$allocator@UPCRoomSoldierSelect@ExPCRoomSoldierBonusWnd@@@std@@@std@@QAEXAAUPCRoomSoldierSelect@ExPCRoomSoldierBonusWnd@@@Z ; std::vector<ExPCRoomSoldierBonusWnd::PCRoomSoldierSelect,std::allocator<ExPCRoomSoldierBonusWnd::PCRoomSoldierSelect> >::emplace_back<ExPCRoomSoldierBonusWnd::PCRoomSoldierSelect &>
; Function compile flags: /Ogsp
;	COMDAT ??$emplace_back@AAUPCRoomSoldierSelect@ExPCRoomSoldierBonusWnd@@@?$vector@UPCRoomSoldierSelect@ExPCRoomSoldierBonusWnd@@V?$allocator@UPCRoomSoldierSelect@ExPCRoomSoldierBonusWnd@@@std@@@std@@QAEXAAUPCRoomSoldierSelect@ExPCRoomSoldierBonusWnd@@@Z
_TEXT	SEGMENT
__Val$ = 8						; size = 4
??$emplace_back@AAUPCRoomSoldierSelect@ExPCRoomSoldierBonusWnd@@@?$vector@UPCRoomSoldierSelect@ExPCRoomSoldierBonusWnd@@V?$allocator@UPCRoomSoldierSelect@ExPCRoomSoldierBonusWnd@@@std@@@std@@QAEXAAUPCRoomSoldierSelect@ExPCRoomSoldierBonusWnd@@@Z PROC ; std::vector<ExPCRoomSoldierBonusWnd::PCRoomSoldierSelect,std::allocator<ExPCRoomSoldierBonusWnd::PCRoomSoldierSelect> >::emplace_back<ExPCRoomSoldierBonusWnd::PCRoomSoldierSelect &>, COMDAT
; _this$ = ecx

; 661  : 		void emplace_back(_Valty&& _Val)

  00000	55		 push	 ebp
  00001	8b ec		 mov	 ebp, esp
  00003	56		 push	 esi
  00004	8b f1		 mov	 esi, ecx

; 662  : 		{	// insert element at end
; 663  : 		if (this->_Mylast == this->_Myend)

  00006	8b 46 04	 mov	 eax, DWORD PTR [esi+4]
  00009	3b 46 08	 cmp	 eax, DWORD PTR [esi+8]
  0000c	75 07		 jne	 SHORT $LN1@emplace_ba@2

; 664  : 			_Reserve(1);

  0000e	6a 01		 push	 1
  00010	e8 00 00 00 00	 call	 ?_Reserve@?$vector@UPCRoomSoldierSelect@ExPCRoomSoldierBonusWnd@@V?$allocator@UPCRoomSoldierSelect@ExPCRoomSoldierBonusWnd@@@std@@@std@@IAEXI@Z ; std::vector<ExPCRoomSoldierBonusWnd::PCRoomSoldierSelect,std::allocator<ExPCRoomSoldierBonusWnd::PCRoomSoldierSelect> >::_Reserve
$LN1@emplace_ba@2:

; 665  : 		_Orphan_range(this->_Mylast, this->_Mylast);
; 666  : 		_Cons_val(this->_Alval,
; 667  : 			this->_Mylast,
; 668  : 			_STD forward<_Valty>(_Val));

  00015	ff 75 08	 push	 DWORD PTR __Val$[ebp]
  00018	8d 46 0c	 lea	 eax, DWORD PTR [esi+12]
  0001b	ff 76 04	 push	 DWORD PTR [esi+4]
  0001e	50		 push	 eax
  0001f	e8 00 00 00 00	 call	 ??$_Cons_val@V?$allocator@UPCRoomSoldierSelect@ExPCRoomSoldierBonusWnd@@@std@@UPCRoomSoldierSelect@ExPCRoomSoldierBonusWnd@@AAU34@@std@@YAXAAV?$allocator@UPCRoomSoldierSelect@ExPCRoomSoldierBonusWnd@@@0@PAUPCRoomSoldierSelect@ExPCRoomSoldierBonusWnd@@AAU23@@Z ; std::_Cons_val<std::allocator<ExPCRoomSoldierBonusWnd::PCRoomSoldierSelect>,ExPCRoomSoldierBonusWnd::PCRoomSoldierSelect,ExPCRoomSoldierBonusWnd::PCRoomSoldierSelect &>
  00024	83 c4 0c	 add	 esp, 12			; 0000000cH

; 669  : 		++this->_Mylast;

  00027	83 46 04 08	 add	 DWORD PTR [esi+4], 8
  0002b	5e		 pop	 esi

; 670  : 		}

  0002c	5d		 pop	 ebp
  0002d	c2 04 00	 ret	 4
??$emplace_back@AAUPCRoomSoldierSelect@ExPCRoomSoldierBonusWnd@@@?$vector@UPCRoomSoldierSelect@ExPCRoomSoldierBonusWnd@@V?$allocator@UPCRoomSoldierSelect@ExPCRoomSoldierBonusWnd@@@std@@@std@@QAEXAAUPCRoomSoldierSelect@ExPCRoomSoldierBonusWnd@@@Z ENDP ; std::vector<ExPCRoomSoldierBonusWnd::PCRoomSoldierSelect,std::allocator<ExPCRoomSoldierBonusWnd::PCRoomSoldierSelect> >::emplace_back<ExPCRoomSoldierBonusWnd::PCRoomSoldierSelect &>
_TEXT	ENDS
PUBLIC	?push_back@?$vector@UPCRoomSoldierSelect@ExPCRoomSoldierBonusWnd@@V?$allocator@UPCRoomSoldierSelect@ExPCRoomSoldierBonusWnd@@@std@@@std@@QAEXABUPCRoomSoldierSelect@ExPCRoomSoldierBonusWnd@@@Z ; std::vector<ExPCRoomSoldierBonusWnd::PCRoomSoldierSelect,std::allocator<ExPCRoomSoldierBonusWnd::PCRoomSoldierSelect> >::push_back
; Function compile flags: /Ogsp
;	COMDAT ?push_back@?$vector@UPCRoomSoldierSelect@ExPCRoomSoldierBonusWnd@@V?$allocator@UPCRoomSoldierSelect@ExPCRoomSoldierBonusWnd@@@std@@@std@@QAEXABUPCRoomSoldierSelect@ExPCRoomSoldierBonusWnd@@@Z
_TEXT	SEGMENT
__Val$ = 8						; size = 4
?push_back@?$vector@UPCRoomSoldierSelect@ExPCRoomSoldierBonusWnd@@V?$allocator@UPCRoomSoldierSelect@ExPCRoomSoldierBonusWnd@@@std@@@std@@QAEXABUPCRoomSoldierSelect@ExPCRoomSoldierBonusWnd@@@Z PROC ; std::vector<ExPCRoomSoldierBonusWnd::PCRoomSoldierSelect,std::allocator<ExPCRoomSoldierBonusWnd::PCRoomSoldierSelect> >::push_back, COMDAT
; _this$ = ecx

; 976  : 		{	// insert element at end

  00000	55		 push	 ebp
  00001	8b ec		 mov	 ebp, esp
  00003	56		 push	 esi
  00004	8b f1		 mov	 esi, ecx

; 977  : 		if (_Inside(_STD addressof(_Val)))

  00006	8b 46 04	 mov	 eax, DWORD PTR [esi+4]
  00009	57		 push	 edi
  0000a	8b 7d 08	 mov	 edi, DWORD PTR __Val$[ebp]
  0000d	3b f8		 cmp	 edi, eax
  0000f	73 2d		 jae	 SHORT $LN4@push_back
  00011	8b 0e		 mov	 ecx, DWORD PTR [esi]
  00013	3b cf		 cmp	 ecx, edi
  00015	77 27		 ja	 SHORT $LN4@push_back

; 978  : 			{	// push back an element
; 979  : 			size_type _Idx = _STD addressof(_Val) - this->_Myfirst;

  00017	2b f9		 sub	 edi, ecx
  00019	c1 ff 03	 sar	 edi, 3

; 980  : 			if (this->_Mylast == this->_Myend)

  0001c	3b 46 08	 cmp	 eax, DWORD PTR [esi+8]
  0001f	75 09		 jne	 SHORT $LN3@push_back

; 981  : 				_Reserve(1);

  00021	6a 01		 push	 1
  00023	8b ce		 mov	 ecx, esi
  00025	e8 00 00 00 00	 call	 ?_Reserve@?$vector@UPCRoomSoldierSelect@ExPCRoomSoldierBonusWnd@@V?$allocator@UPCRoomSoldierSelect@ExPCRoomSoldierBonusWnd@@@std@@@std@@IAEXI@Z ; std::vector<ExPCRoomSoldierBonusWnd::PCRoomSoldierSelect,std::allocator<ExPCRoomSoldierBonusWnd::PCRoomSoldierSelect> >::_Reserve
$LN3@push_back:

; 982  : 			_Orphan_range(this->_Mylast, this->_Mylast);
; 983  : 			_Cons_val(this->_Alval,
; 984  : 				this->_Mylast,
; 985  : 				this->_Myfirst[_Idx]);

  0002a	8b 06		 mov	 eax, DWORD PTR [esi]
  0002c	8d 04 f8	 lea	 eax, DWORD PTR [eax+edi*8]
  0002f	50		 push	 eax
  00030	ff 76 04	 push	 DWORD PTR [esi+4]
  00033	8d 46 0c	 lea	 eax, DWORD PTR [esi+12]
  00036	50		 push	 eax
  00037	e8 00 00 00 00	 call	 ??$_Cons_val@V?$allocator@UPCRoomSoldierSelect@ExPCRoomSoldierBonusWnd@@@std@@UPCRoomSoldierSelect@ExPCRoomSoldierBonusWnd@@AAU34@@std@@YAXAAV?$allocator@UPCRoomSoldierSelect@ExPCRoomSoldierBonusWnd@@@0@PAUPCRoomSoldierSelect@ExPCRoomSoldierBonusWnd@@AAU23@@Z ; std::_Cons_val<std::allocator<ExPCRoomSoldierBonusWnd::PCRoomSoldierSelect>,ExPCRoomSoldierBonusWnd::PCRoomSoldierSelect,ExPCRoomSoldierBonusWnd::PCRoomSoldierSelect &>

; 986  : 			++this->_Mylast;
; 987  : 			}
; 988  : 		else

  0003c	eb 1b		 jmp	 SHORT $LN20@push_back
$LN4@push_back:

; 989  : 			{	// push back a non-element
; 990  : 			if (this->_Mylast == this->_Myend)

  0003e	3b 46 08	 cmp	 eax, DWORD PTR [esi+8]
  00041	75 09		 jne	 SHORT $LN1@push_back

; 991  : 				_Reserve(1);

  00043	6a 01		 push	 1
  00045	8b ce		 mov	 ecx, esi
  00047	e8 00 00 00 00	 call	 ?_Reserve@?$vector@UPCRoomSoldierSelect@ExPCRoomSoldierBonusWnd@@V?$allocator@UPCRoomSoldierSelect@ExPCRoomSoldierBonusWnd@@@std@@@std@@IAEXI@Z ; std::vector<ExPCRoomSoldierBonusWnd::PCRoomSoldierSelect,std::allocator<ExPCRoomSoldierBonusWnd::PCRoomSoldierSelect> >::_Reserve
$LN1@push_back:

; 992  : 			_Orphan_range(this->_Mylast, this->_Mylast);
; 993  : 			_Cons_val(this->_Alval,
; 994  : 				this->_Mylast,
; 995  : 				_Val);

  0004c	57		 push	 edi
  0004d	ff 76 04	 push	 DWORD PTR [esi+4]
  00050	8d 46 0c	 lea	 eax, DWORD PTR [esi+12]
  00053	50		 push	 eax
  00054	e8 00 00 00 00	 call	 ??$_Cons_val@V?$allocator@UPCRoomSoldierSelect@ExPCRoomSoldierBonusWnd@@@std@@UPCRoomSoldierSelect@ExPCRoomSoldierBonusWnd@@ABU34@@std@@YAXAAV?$allocator@UPCRoomSoldierSelect@ExPCRoomSoldierBonusWnd@@@0@PAUPCRoomSoldierSelect@ExPCRoomSoldierBonusWnd@@ABU23@@Z ; std::_Cons_val<std::allocator<ExPCRoomSoldierBonusWnd::PCRoomSoldierSelect>,ExPCRoomSoldierBonusWnd::PCRoomSoldierSelect,ExPCRoomSoldierBonusWnd::PCRoomSoldierSelect const &>
$LN20@push_back:
  00059	83 c4 0c	 add	 esp, 12			; 0000000cH

; 996  : 			++this->_Mylast;

  0005c	83 46 04 08	 add	 DWORD PTR [esi+4], 8
  00060	5f		 pop	 edi
  00061	5e		 pop	 esi

; 997  : 			}
; 998  : 		}

  00062	5d		 pop	 ebp
  00063	c2 04 00	 ret	 4
?push_back@?$vector@UPCRoomSoldierSelect@ExPCRoomSoldierBonusWnd@@V?$allocator@UPCRoomSoldierSelect@ExPCRoomSoldierBonusWnd@@@std@@@std@@QAEXABUPCRoomSoldierSelect@ExPCRoomSoldierBonusWnd@@@Z ENDP ; std::vector<ExPCRoomSoldierBonusWnd::PCRoomSoldierSelect,std::allocator<ExPCRoomSoldierBonusWnd::PCRoomSoldierSelect> >::push_back
_TEXT	ENDS
PUBLIC	??$emplace@AAUPCRoomSoldierSelect@ExPCRoomSoldierBonusWnd@@@?$vector@UPCRoomSoldierSelect@ExPCRoomSoldierBonusWnd@@V?$allocator@UPCRoomSoldierSelect@ExPCRoomSoldierBonusWnd@@@std@@@std@@QAE?AV?$_Vector_iterator@V?$_Vector_val@UPCRoomSoldierSelect@ExPCRoomSoldierBonusWnd@@V?$allocator@UPCRoomSoldierSelect@ExPCRoomSoldierBonusWnd@@@std@@@std@@@1@V?$_Vector_const_iterator@V?$_Vector_val@UPCRoomSoldierSelect@ExPCRoomSoldierBonusWnd@@V?$allocator@UPCRoomSoldierSelect@ExPCRoomSoldierBonusWnd@@@std@@@std@@@1@AAUPCRoomSoldierSelect@ExPCRoomSoldierBonusWnd@@@Z ; std::vector<ExPCRoomSoldierBonusWnd::PCRoomSoldierSelect,std::allocator<ExPCRoomSoldierBonusWnd::PCRoomSoldierSelect> >::emplace<ExPCRoomSoldierBonusWnd::PCRoomSoldierSelect &>
; Function compile flags: /Ogsp
;	COMDAT ??$emplace@AAUPCRoomSoldierSelect@ExPCRoomSoldierBonusWnd@@@?$vector@UPCRoomSoldierSelect@ExPCRoomSoldierBonusWnd@@V?$allocator@UPCRoomSoldierSelect@ExPCRoomSoldierBonusWnd@@@std@@@std@@QAE?AV?$_Vector_iterator@V?$_Vector_val@UPCRoomSoldierSelect@ExPCRoomSoldierBonusWnd@@V?$allocator@UPCRoomSoldierSelect@ExPCRoomSoldierBonusWnd@@@std@@@std@@@1@V?$_Vector_const_iterator@V?$_Vector_val@UPCRoomSoldierSelect@ExPCRoomSoldierBonusWnd@@V?$allocator@UPCRoomSoldierSelect@ExPCRoomSoldierBonusWnd@@@std@@@std@@@1@AAUPCRoomSoldierSelect@ExPCRoomSoldierBonusWnd@@@Z
_TEXT	SEGMENT
___$ReturnUdt$ = 8					; size = 4
__Where$ = 12						; size = 4
$T542248 = 16						; size = 4
__Val$ = 16						; size = 4
??$emplace@AAUPCRoomSoldierSelect@ExPCRoomSoldierBonusWnd@@@?$vector@UPCRoomSoldierSelect@ExPCRoomSoldierBonusWnd@@V?$allocator@UPCRoomSoldierSelect@ExPCRoomSoldierBonusWnd@@@std@@@std@@QAE?AV?$_Vector_iterator@V?$_Vector_val@UPCRoomSoldierSelect@ExPCRoomSoldierBonusWnd@@V?$allocator@UPCRoomSoldierSelect@ExPCRoomSoldierBonusWnd@@@std@@@std@@@1@V?$_Vector_const_iterator@V?$_Vector_val@UPCRoomSoldierSelect@ExPCRoomSoldierBonusWnd@@V?$allocator@UPCRoomSoldierSelect@ExPCRoomSoldierBonusWnd@@@std@@@std@@@1@AAUPCRoomSoldierSelect@ExPCRoomSoldierBonusWnd@@@Z PROC ; std::vector<ExPCRoomSoldierBonusWnd::PCRoomSoldierSelect,std::allocator<ExPCRoomSoldierBonusWnd::PCRoomSoldierSelect> >::emplace<ExPCRoomSoldierBonusWnd::PCRoomSoldierSelect &>, COMDAT
; _this$ = ecx

; 679  : 		iterator emplace(const_iterator _Where, _Valty&& _Val)

  00000	55		 push	 ebp
  00001	8b ec		 mov	 ebp, esp
  00003	56		 push	 esi

; 680  : 		{	// insert _Val at _Where
; 681  : 		size_type _Off = _VIPTR(_Where) - this->_Myfirst;

  00004	8b 75 0c	 mov	 esi, DWORD PTR __Where$[ebp]
  00007	57		 push	 edi

; 682  : 
; 683  :  #if _ITERATOR_DEBUG_LEVEL == 2
; 684  : 		if (size() < _Off)
; 685  : 			_DEBUG_ERROR("vector emplace iterator outside range");
; 686  :  #endif /* _ITERATOR_DEBUG_LEVEL == 2 */
; 687  : 
; 688  : 		emplace_back(_STD forward<_Valty>(_Val));

  00008	ff 75 10	 push	 DWORD PTR __Val$[ebp]
  0000b	8b f9		 mov	 edi, ecx
  0000d	2b 37		 sub	 esi, DWORD PTR [edi]
  0000f	e8 00 00 00 00	 call	 ??$emplace_back@AAUPCRoomSoldierSelect@ExPCRoomSoldierBonusWnd@@@?$vector@UPCRoomSoldierSelect@ExPCRoomSoldierBonusWnd@@V?$allocator@UPCRoomSoldierSelect@ExPCRoomSoldierBonusWnd@@@std@@@std@@QAEXAAUPCRoomSoldierSelect@ExPCRoomSoldierBonusWnd@@@Z ; std::vector<ExPCRoomSoldierBonusWnd::PCRoomSoldierSelect,std::allocator<ExPCRoomSoldierBonusWnd::PCRoomSoldierSelect> >::emplace_back<ExPCRoomSoldierBonusWnd::PCRoomSoldierSelect &>

; 689  : 		_STD rotate(begin() + _Off, end() - 1, end());

  00014	8b 4f 04	 mov	 ecx, DWORD PTR [edi+4]
  00017	8b 07		 mov	 eax, DWORD PTR [edi]
  00019	51		 push	 ecx
  0001a	8d 51 f8	 lea	 edx, DWORD PTR [ecx-8]
  0001d	83 e6 f8	 and	 esi, -8			; fffffff8H
  00020	03 c6		 add	 eax, esi
  00022	52		 push	 edx
  00023	50		 push	 eax
  00024	8d 45 10	 lea	 eax, DWORD PTR $T542248[ebp]
  00027	50		 push	 eax
  00028	e8 00 00 00 00	 call	 ??$rotate@V?$_Vector_iterator@V?$_Vector_val@UPCRoomSoldierSelect@ExPCRoomSoldierBonusWnd@@V?$allocator@UPCRoomSoldierSelect@ExPCRoomSoldierBonusWnd@@@std@@@std@@@std@@@std@@YA?AV?$_Vector_iterator@V?$_Vector_val@UPCRoomSoldierSelect@ExPCRoomSoldierBonusWnd@@V?$allocator@UPCRoomSoldierSelect@ExPCRoomSoldierBonusWnd@@@std@@@std@@@0@V10@00@Z ; std::rotate<std::_Vector_iterator<std::_Vector_val<ExPCRoomSoldierBonusWnd::PCRoomSoldierSelect,std::allocator<ExPCRoomSoldierBonusWnd::PCRoomSoldierSelect> > > >

; 690  : 		return (begin() + _Off);

  0002d	8b 0f		 mov	 ecx, DWORD PTR [edi]
  0002f	8b 45 08	 mov	 eax, DWORD PTR ___$ReturnUdt$[ebp]
  00032	83 c4 10	 add	 esp, 16			; 00000010H
  00035	03 ce		 add	 ecx, esi
  00037	5f		 pop	 edi
  00038	89 08		 mov	 DWORD PTR [eax], ecx
  0003a	5e		 pop	 esi

; 691  : 		}

  0003b	5d		 pop	 ebp
  0003c	c2 0c 00	 ret	 12			; 0000000cH
??$emplace@AAUPCRoomSoldierSelect@ExPCRoomSoldierBonusWnd@@@?$vector@UPCRoomSoldierSelect@ExPCRoomSoldierBonusWnd@@V?$allocator@UPCRoomSoldierSelect@ExPCRoomSoldierBonusWnd@@@std@@@std@@QAE?AV?$_Vector_iterator@V?$_Vector_val@UPCRoomSoldierSelect@ExPCRoomSoldierBonusWnd@@V?$allocator@UPCRoomSoldierSelect@ExPCRoomSoldierBonusWnd@@@std@@@std@@@1@V?$_Vector_const_iterator@V?$_Vector_val@UPCRoomSoldierSelect@ExPCRoomSoldierBonusWnd@@V?$allocator@UPCRoomSoldierSelect@ExPCRoomSoldierBonusWnd@@@std@@@std@@@1@AAUPCRoomSoldierSelect@ExPCRoomSoldierBonusWnd@@@Z ENDP ; std::vector<ExPCRoomSoldierBonusWnd::PCRoomSoldierSelect,std::allocator<ExPCRoomSoldierBonusWnd::PCRoomSoldierSelect> >::emplace<ExPCRoomSoldierBonusWnd::PCRoomSoldierSelect &>
_TEXT	ENDS
PUBLIC	??$insert@AAUPCRoomSoldierSelect@ExPCRoomSoldierBonusWnd@@@?$vector@UPCRoomSoldierSelect@ExPCRoomSoldierBonusWnd@@V?$allocator@UPCRoomSoldierSelect@ExPCRoomSoldierBonusWnd@@@std@@@std@@QAE?AV?$_Vector_iterator@V?$_Vector_val@UPCRoomSoldierSelect@ExPCRoomSoldierBonusWnd@@V?$allocator@UPCRoomSoldierSelect@ExPCRoomSoldierBonusWnd@@@std@@@std@@@1@V?$_Vector_const_iterator@V?$_Vector_val@UPCRoomSoldierSelect@ExPCRoomSoldierBonusWnd@@V?$allocator@UPCRoomSoldierSelect@ExPCRoomSoldierBonusWnd@@@std@@@std@@@1@AAUPCRoomSoldierSelect@ExPCRoomSoldierBonusWnd@@@Z ; std::vector<ExPCRoomSoldierBonusWnd::PCRoomSoldierSelect,std::allocator<ExPCRoomSoldierBonusWnd::PCRoomSoldierSelect> >::insert<ExPCRoomSoldierBonusWnd::PCRoomSoldierSelect &>
; Function compile flags: /Ogsp
;	COMDAT ??$insert@AAUPCRoomSoldierSelect@ExPCRoomSoldierBonusWnd@@@?$vector@UPCRoomSoldierSelect@ExPCRoomSoldierBonusWnd@@V?$allocator@UPCRoomSoldierSelect@ExPCRoomSoldierBonusWnd@@@std@@@std@@QAE?AV?$_Vector_iterator@V?$_Vector_val@UPCRoomSoldierSelect@ExPCRoomSoldierBonusWnd@@V?$allocator@UPCRoomSoldierSelect@ExPCRoomSoldierBonusWnd@@@std@@@std@@@1@V?$_Vector_const_iterator@V?$_Vector_val@UPCRoomSoldierSelect@ExPCRoomSoldierBonusWnd@@V?$allocator@UPCRoomSoldierSelect@ExPCRoomSoldierBonusWnd@@@std@@@std@@@1@AAUPCRoomSoldierSelect@ExPCRoomSoldierBonusWnd@@@Z
_TEXT	SEGMENT
___$ReturnUdt$ = 8					; size = 4
__Where$ = 12						; size = 4
__Val$ = 16						; size = 4
??$insert@AAUPCRoomSoldierSelect@ExPCRoomSoldierBonusWnd@@@?$vector@UPCRoomSoldierSelect@ExPCRoomSoldierBonusWnd@@V?$allocator@UPCRoomSoldierSelect@ExPCRoomSoldierBonusWnd@@@std@@@std@@QAE?AV?$_Vector_iterator@V?$_Vector_val@UPCRoomSoldierSelect@ExPCRoomSoldierBonusWnd@@V?$allocator@UPCRoomSoldierSelect@ExPCRoomSoldierBonusWnd@@@std@@@std@@@1@V?$_Vector_const_iterator@V?$_Vector_val@UPCRoomSoldierSelect@ExPCRoomSoldierBonusWnd@@V?$allocator@UPCRoomSoldierSelect@ExPCRoomSoldierBonusWnd@@@std@@@std@@@1@AAUPCRoomSoldierSelect@ExPCRoomSoldierBonusWnd@@@Z PROC ; std::vector<ExPCRoomSoldierBonusWnd::PCRoomSoldierSelect,std::allocator<ExPCRoomSoldierBonusWnd::PCRoomSoldierSelect> >::insert<ExPCRoomSoldierBonusWnd::PCRoomSoldierSelect &>, COMDAT
; _this$ = ecx

; 673  : 		iterator insert(const_iterator _Where, _Valty&& _Val)

  00000	55		 push	 ebp
  00001	8b ec		 mov	 ebp, esp

; 674  : 		{	// insert _Val at _Where
; 675  : 		return (emplace(_Where, _STD forward<_Valty>(_Val)));

  00003	ff 75 10	 push	 DWORD PTR __Val$[ebp]
  00006	ff 75 0c	 push	 DWORD PTR __Where$[ebp]
  00009	ff 75 08	 push	 DWORD PTR ___$ReturnUdt$[ebp]
  0000c	e8 00 00 00 00	 call	 ??$emplace@AAUPCRoomSoldierSelect@ExPCRoomSoldierBonusWnd@@@?$vector@UPCRoomSoldierSelect@ExPCRoomSoldierBonusWnd@@V?$allocator@UPCRoomSoldierSelect@ExPCRoomSoldierBonusWnd@@@std@@@std@@QAE?AV?$_Vector_iterator@V?$_Vector_val@UPCRoomSoldierSelect@ExPCRoomSoldierBonusWnd@@V?$allocator@UPCRoomSoldierSelect@ExPCRoomSoldierBonusWnd@@@std@@@std@@@1@V?$_Vector_const_iterator@V?$_Vector_val@UPCRoomSoldierSelect@ExPCRoomSoldierBonusWnd@@V?$allocator@UPCRoomSoldierSelect@ExPCRoomSoldierBonusWnd@@@std@@@std@@@1@AAUPCRoomSoldierSelect@ExPCRoomSoldierBonusWnd@@@Z ; std::vector<ExPCRoomSoldierBonusWnd::PCRoomSoldierSelect,std::allocator<ExPCRoomSoldierBonusWnd::PCRoomSoldierSelect> >::emplace<ExPCRoomSoldierBonusWnd::PCRoomSoldierSelect &>
  00011	8b 45 08	 mov	 eax, DWORD PTR ___$ReturnUdt$[ebp]

; 676  : 		}

  00014	5d		 pop	 ebp
  00015	c2 0c 00	 ret	 12			; 0000000cH
??$insert@AAUPCRoomSoldierSelect@ExPCRoomSoldierBonusWnd@@@?$vector@UPCRoomSoldierSelect@ExPCRoomSoldierBonusWnd@@V?$allocator@UPCRoomSoldierSelect@ExPCRoomSoldierBonusWnd@@@std@@@std@@QAE?AV?$_Vector_iterator@V?$_Vector_val@UPCRoomSoldierSelect@ExPCRoomSoldierBonusWnd@@V?$allocator@UPCRoomSoldierSelect@ExPCRoomSoldierBonusWnd@@@std@@@std@@@1@V?$_Vector_const_iterator@V?$_Vector_val@UPCRoomSoldierSelect@ExPCRoomSoldierBonusWnd@@V?$allocator@UPCRoomSoldierSelect@ExPCRoomSoldierBonusWnd@@@std@@@std@@@1@AAUPCRoomSoldierSelect@ExPCRoomSoldierBonusWnd@@@Z ENDP ; std::vector<ExPCRoomSoldierBonusWnd::PCRoomSoldierSelect,std::allocator<ExPCRoomSoldierBonusWnd::PCRoomSoldierSelect> >::insert<ExPCRoomSoldierBonusWnd::PCRoomSoldierSelect &>
_TEXT	ENDS
PUBLIC	?AddPCRoomSoldierList@ExPCRoomSoldierBonusWnd@@IAEXW4PackageType@ioSetItemInfo@@@Z ; ExPCRoomSoldierBonusWnd::AddPCRoomSoldierList
EXTRN	?IsPcRoomActive@ioClassPrice@@QAE_NH@Z:PROC	; ioClassPrice::IsPcRoomActive
EXTRN	?ArrayToSetItemIdx@ioClassPrice@@QAEHH@Z:PROC	; ioClassPrice::ArrayToSetItemIdx
EXTRN	?GetSingleton@ioClassPrice@@SAAAV1@XZ:PROC	; ioClassPrice::GetSingleton
; Function compile flags: /Ogsp
; File d:\lost saga for developer\youtube\tutorial\source\src\lsclient\gui\expcroomwnd.cpp
;	COMDAT ?AddPCRoomSoldierList@ExPCRoomSoldierBonusWnd@@IAEXW4PackageType@ioSetItemInfo@@@Z
_TEXT	SEGMENT
_PcRoomSelect$532402 = -32				; size = 8
$T542422 = -24						; size = 4
$T542419 = -20						; size = 4
_iClassType$532386 = -16				; size = 4
_dwCharIndex$532387 = -12				; size = 4
_i$532376 = -8						; size = 4
_bDelete$532385 = -2					; size = 1
_bChecked$532384 = -1					; size = 1
_eType$ = 8						; size = 4
?AddPCRoomSoldierList@ExPCRoomSoldierBonusWnd@@IAEXW4PackageType@ioSetItemInfo@@@Z PROC ; ExPCRoomSoldierBonusWnd::AddPCRoomSoldierList, COMDAT
; _this$ = ecx

; 318  : {

  00000	55		 push	 ebp
  00001	8b ec		 mov	 ebp, esp
  00003	83 ec 20	 sub	 esp, 32			; 00000020H
  00006	53		 push	 ebx
  00007	57		 push	 edi
  00008	8b d9		 mov	 ebx, ecx

; 319  : 	int iMax = g_ClassPrice.MaxClassPrice();

  0000a	e8 00 00 00 00	 call	 ?GetSingleton@ioClassPrice@@SAAAV1@XZ ; ioClassPrice::GetSingleton
  0000f	8b 78 08	 mov	 edi, DWORD PTR [eax+8]
  00012	2b 78 04	 sub	 edi, DWORD PTR [eax+4]

; 320  : 	for ( int i = 0; i <  iMax; i++ )

  00015	83 65 f8 00	 and	 DWORD PTR _i$532376[ebp], 0
  00019	c1 ff 02	 sar	 edi, 2
  0001c	85 ff		 test	 edi, edi
  0001e	0f 8e ed 00 00
	00		 jle	 $LN10@AddPCRoomS
  00024	56		 push	 esi
$LL52@AddPCRoomS:

; 321  : 	{
; 322  : 		int iSetIdx = g_ClassPrice.ArrayToSetItemIdx( i );

  00025	ff 75 f8	 push	 DWORD PTR _i$532376[ebp]
  00028	e8 00 00 00 00	 call	 ?GetSingleton@ioClassPrice@@SAAAV1@XZ ; ioClassPrice::GetSingleton
  0002d	8b c8		 mov	 ecx, eax
  0002f	e8 00 00 00 00	 call	 ?ArrayToSetItemIdx@ioClassPrice@@QAEHH@Z ; ioClassPrice::ArrayToSetItemIdx

; 323  : 		const ioSetItemInfo *pInfo = g_SetItemInfoMgr.GetSetInfoByIdx( iSetIdx );

  00034	50		 push	 eax
  00035	e8 00 00 00 00	 call	 ?GetSingeton@ioSetItemInfoManager@@SAAAV1@XZ ; ioSetItemInfoManager::GetSingeton
  0003a	8b c8		 mov	 ecx, eax
  0003c	e8 00 00 00 00	 call	 ?GetSetInfoByIdx@ioSetItemInfoManager@@QBEPBVioSetItemInfo@@H@Z ; ioSetItemInfoManager::GetSetInfoByIdx

; 324  : 		if( !pInfo )

  00041	85 c0		 test	 eax, eax
  00043	0f 84 bb 00 00
	00		 je	 $LN11@AddPCRoomS

; 325  : 			continue;
; 326  : 
; 327  : 		if( pInfo->GetPackageType() != eType )

  00049	8b 48 24	 mov	 ecx, DWORD PTR [eax+36]
  0004c	3b 4d 08	 cmp	 ecx, DWORD PTR _eType$[ebp]
  0004f	0f 85 af 00 00
	00		 jne	 $LN11@AddPCRoomS

; 328  : 			continue;
; 329  : 
; 330  : 		bool bChecked = false;
; 331  : 		bool bDelete = false;
; 332  : 		int iClassType = pInfo->GetSetCode() - SET_ITEM_CODE;

  00055	8b 70 1c	 mov	 esi, DWORD PTR [eax+28]
  00058	81 ee 60 ae 0a
	00		 sub	 esi, 700000		; 000aae60H

; 333  : 		DWORD dwCharIndex = g_MyInfo.GetCharIndexByClassType( iClassType );

  0005e	56		 push	 esi
  0005f	c6 45 ff 00	 mov	 BYTE PTR _bChecked$532384[ebp], 0
  00063	c6 45 fe 00	 mov	 BYTE PTR _bDelete$532385[ebp], 0
  00067	89 75 f0	 mov	 DWORD PTR _iClassType$532386[ebp], esi
  0006a	e8 00 00 00 00	 call	 ?GetSingleton@ioMyInfo@@SAAAV1@XZ ; ioMyInfo::GetSingleton
  0006f	8b c8		 mov	 ecx, eax
  00071	e8 00 00 00 00	 call	 ?GetCharIndexByClassType@ioMyInfo@@QAEKH@Z ; ioMyInfo::GetCharIndexByClassType

; 334  : 		if( !g_ClassPrice.IsPcRoomActive( iClassType ) )

  00076	56		 push	 esi
  00077	89 45 f4	 mov	 DWORD PTR _dwCharIndex$532387[ebp], eax
  0007a	e8 00 00 00 00	 call	 ?GetSingleton@ioClassPrice@@SAAAV1@XZ ; ioClassPrice::GetSingleton
  0007f	8b c8		 mov	 ecx, eax
  00081	e8 00 00 00 00	 call	 ?IsPcRoomActive@ioClassPrice@@QAE_NH@Z ; ioClassPrice::IsPcRoomActive
  00086	84 c0		 test	 al, al
  00088	74 7a		 je	 SHORT $LN11@AddPCRoomS

; 335  : 		{
; 336  : 			continue;
; 337  : 		}
; 338  : 
; 339  : 		if( dwCharIndex != 0 )

  0008a	83 7d f4 00	 cmp	 DWORD PTR _dwCharIndex$532387[ebp], 0
  0008e	74 38		 je	 SHORT $LN2@AddPCRoomS

; 340  : 		{
; 341  : 			if( g_MyInfo.IsCharExerciseStyle( g_MyInfo.GetCharArray( dwCharIndex ), EXERCISE_PCROOM ) )

  00090	6a 02		 push	 2
  00092	ff 75 f4	 push	 DWORD PTR _dwCharIndex$532387[ebp]
  00095	e8 00 00 00 00	 call	 ?GetSingleton@ioMyInfo@@SAAAV1@XZ ; ioMyInfo::GetSingleton
  0009a	8b c8		 mov	 ecx, eax
  0009c	e8 00 00 00 00	 call	 ?GetCharArray@ioMyInfo@@QAEHK@Z ; ioMyInfo::GetCharArray
  000a1	50		 push	 eax
  000a2	e8 00 00 00 00	 call	 ?GetSingleton@ioMyInfo@@SAAAV1@XZ ; ioMyInfo::GetSingleton
  000a7	8b c8		 mov	 ecx, eax
  000a9	e8 00 00 00 00	 call	 ?IsCharExerciseStyle@ioMyInfo@@QAE_NHH@Z ; ioMyInfo::IsCharExerciseStyle
  000ae	84 c0		 test	 al, al
  000b0	74 06		 je	 SHORT $LN5@AddPCRoomS

; 342  : 			{				
; 343  : 				bChecked = true;

  000b2	c6 45 ff 01	 mov	 BYTE PTR _bChecked$532384[ebp], 1
  000b6	eb 10		 jmp	 SHORT $LN2@AddPCRoomS
$LN5@AddPCRoomS:

; 344  : 			}
; 345  : 			else if( IsTimeExpireChar( iClassType ) )

  000b8	56		 push	 esi
  000b9	8b cb		 mov	 ecx, ebx
  000bb	e8 00 00 00 00	 call	 ?IsTimeExpireChar@ExPCRoomSoldierBonusWnd@@IAE_NH@Z ; ExPCRoomSoldierBonusWnd::IsTimeExpireChar
  000c0	84 c0		 test	 al, al
  000c2	74 40		 je	 SHORT $LN11@AddPCRoomS

; 346  : 			{
; 347  : 				bDelete = true;

  000c4	c6 45 fe 01	 mov	 BYTE PTR _bDelete$532385[ebp], 1
$LN2@AddPCRoomS:

; 348  : 			}
; 349  : 			else
; 350  : 			{
; 351  : 				continue;
; 352  : 			}
; 353  : 		}
; 354  : 
; 355  : 		m_ClassTypeList.insert( m_ClassTypeList.begin(), iClassType );

  000c8	8d 8b a8 01 00
	00		 lea	 ecx, DWORD PTR [ebx+424]
  000ce	8b 01		 mov	 eax, DWORD PTR [ecx]
  000d0	8d 55 f0	 lea	 edx, DWORD PTR _iClassType$532386[ebp]
  000d3	52		 push	 edx
  000d4	50		 push	 eax
  000d5	8d 45 ec	 lea	 eax, DWORD PTR $T542419[ebp]
  000d8	50		 push	 eax
  000d9	e8 00 00 00 00	 call	 ??$emplace@AAH@?$vector@HV?$allocator@H@std@@@std@@QAE?AV?$_Vector_iterator@V?$_Vector_val@HV?$allocator@H@std@@@std@@@1@V?$_Vector_const_iterator@V?$_Vector_val@HV?$allocator@H@std@@@std@@@1@AAH@Z ; std::vector<int,std::allocator<int> >::emplace<int &>

; 356  : 
; 357  : 		if( bChecked )

  000de	80 7d ff 00	 cmp	 BYTE PTR _bChecked$532384[ebp], 0
  000e2	74 20		 je	 SHORT $LN11@AddPCRoomS

; 358  : 		{
; 359  : 			PCRoomSoldierSelect PcRoomSelect;
; 360  : 			PcRoomSelect.m_iClassType  = iClassType;
; 361  : 			PcRoomSelect.m_bCharDelete = bDelete;

  000e4	0f b6 45 fe	 movzx	 eax, BYTE PTR _bDelete$532385[ebp]
  000e8	89 45 e4	 mov	 DWORD PTR _PcRoomSelect$532402[ebp+4], eax

; 362  : 			m_PCRoomSoldierSelectVec.insert( m_PCRoomSoldierSelectVec.begin(), PcRoomSelect );

  000eb	8d 8b b8 01 00
	00		 lea	 ecx, DWORD PTR [ebx+440]
  000f1	8b 01		 mov	 eax, DWORD PTR [ecx]
  000f3	8d 55 e0	 lea	 edx, DWORD PTR _PcRoomSelect$532402[ebp]
  000f6	52		 push	 edx
  000f7	50		 push	 eax
  000f8	8d 45 e8	 lea	 eax, DWORD PTR $T542422[ebp]
  000fb	50		 push	 eax
  000fc	89 75 e0	 mov	 DWORD PTR _PcRoomSelect$532402[ebp], esi
  000ff	e8 00 00 00 00	 call	 ??$emplace@AAUPCRoomSoldierSelect@ExPCRoomSoldierBonusWnd@@@?$vector@UPCRoomSoldierSelect@ExPCRoomSoldierBonusWnd@@V?$allocator@UPCRoomSoldierSelect@ExPCRoomSoldierBonusWnd@@@std@@@std@@QAE?AV?$_Vector_iterator@V?$_Vector_val@UPCRoomSoldierSelect@ExPCRoomSoldierBonusWnd@@V?$allocator@UPCRoomSoldierSelect@ExPCRoomSoldierBonusWnd@@@std@@@std@@@1@V?$_Vector_const_iterator@V?$_Vector_val@UPCRoomSoldierSelect@ExPCRoomSoldierBonusWnd@@V?$allocator@UPCRoomSoldierSelect@ExPCRoomSoldierBonusWnd@@@std@@@std@@@1@AAUPCRoomSoldierSelect@ExPCRoomSoldierBonusWnd@@@Z ; std::vector<ExPCRoomSoldierBonusWnd::PCRoomSoldierSelect,std::allocator<ExPCRoomSoldierBonusWnd::PCRoomSoldierSelect> >::emplace<ExPCRoomSoldierBonusWnd::PCRoomSoldierSelect &>
$LN11@AddPCRoomS:

; 320  : 	for ( int i = 0; i <  iMax; i++ )

  00104	ff 45 f8	 inc	 DWORD PTR _i$532376[ebp]
  00107	39 7d f8	 cmp	 DWORD PTR _i$532376[ebp], edi
  0010a	0f 8c 15 ff ff
	ff		 jl	 $LL52@AddPCRoomS
  00110	5e		 pop	 esi
$LN10@AddPCRoomS:
  00111	5f		 pop	 edi
  00112	5b		 pop	 ebx

; 363  : 		}
; 364  : 	}
; 365  : }

  00113	c9		 leave
  00114	c2 04 00	 ret	 4
?AddPCRoomSoldierList@ExPCRoomSoldierBonusWnd@@IAEXW4PackageType@ioSetItemInfo@@@Z ENDP ; ExPCRoomSoldierBonusWnd::AddPCRoomSoldierList
_TEXT	ENDS
PUBLIC	??_C@_0CK@OCJBDECN@ExPCRoomSoldierBonusWnd?3?3InsertS@ ; `string'
PUBLIC	?InsertSelectInfo@ExPCRoomSoldierBonusWnd@@IAEXH_N@Z ; ExPCRoomSoldierBonusWnd::InsertSelectInfo
EXTRN	?SetMsgBox@ioSP2GUIManager@@QAAXHPAVioWnd@@PBDZZ:PROC ; ioSP2GUIManager::SetMsgBox
EXTRN	?GetClassType@ioMyInfo@@QAEHXZ:PROC		; ioMyInfo::GetClassType
;	COMDAT ??_C@_0CK@OCJBDECN@ExPCRoomSoldierBonusWnd?3?3InsertS@
; File c:\program files (x86)\microsoft visual studio 10.0\vc\include\xmemory
CONST	SEGMENT
??_C@_0CK@OCJBDECN@ExPCRoomSoldierBonusWnd?3?3InsertS@ DB 'ExPCRoomSoldie'
	DB	'rBonusWnd::InsertSelectInfo', 00H		; `string'
; Function compile flags: /Ogsp
; File d:\lost saga for developer\youtube\tutorial\source\src\lsclient\gui\expcroomwnd.cpp
CONST	ENDS
;	COMDAT ?InsertSelectInfo@ExPCRoomSoldierBonusWnd@@IAEXH_N@Z
_TEXT	SEGMENT
_PcRoomSelect$ = -8					; size = 8
_iClassType$ = 8					; size = 4
_value$542538 = 12					; size = 4
$T542521 = 12						; size = 4
$T542518 = 12						; size = 4
_i$532558 = 12						; size = 4
_bCharDelete$ = 12					; size = 1
?InsertSelectInfo@ExPCRoomSoldierBonusWnd@@IAEXH_N@Z PROC ; ExPCRoomSoldierBonusWnd::InsertSelectInfo, COMDAT
; _this$ = ecx

; 393  : {

  00000	55		 push	 ebp
  00001	8b ec		 mov	 ebp, esp
  00003	51		 push	 ecx
  00004	51		 push	 ecx

; 394  : 	PCRoomSoldierSelect PcRoomSelect;
; 395  : 	PcRoomSelect.m_iClassType  = iClassType;

  00005	8b 45 08	 mov	 eax, DWORD PTR _iClassType$[ebp]
  00008	53		 push	 ebx
  00009	8b d9		 mov	 ebx, ecx
  0000b	56		 push	 esi
  0000c	57		 push	 edi

; 396  : 	PcRoomSelect.m_bCharDelete = bCharDelete;
; 397  : 		
; 398  : 	if( m_PCRoomSoldierSelectVec.size() == g_MyInfo.GetPcRoomCharMax() )

  0000d	8b bb bc 01 00
	00		 mov	 edi, DWORD PTR [ebx+444]
  00013	2b bb b8 01 00
	00		 sub	 edi, DWORD PTR [ebx+440]
  00019	89 45 f8	 mov	 DWORD PTR _PcRoomSelect$[ebp], eax
  0001c	0f b6 45 0c	 movzx	 eax, BYTE PTR _bCharDelete$[ebp]
  00020	89 45 fc	 mov	 DWORD PTR _PcRoomSelect$[ebp+4], eax
  00023	c1 ff 03	 sar	 edi, 3
  00026	e8 00 00 00 00	 call	 ?GetSingleton@ioMyInfo@@SAAAV1@XZ ; ioMyInfo::GetSingleton
  0002b	8d 4d 0c	 lea	 ecx, DWORD PTR _value$542538[ebp]
  0002e	51		 push	 ecx
  0002f	8d 88 cc 0b 00
	00		 lea	 ecx, DWORD PTR [eax+3020]
  00035	e8 00 00 00 00	 call	 ?DecryptValueToPool@?$CEncrypt@H@@QAEXPAH@Z ; CEncrypt<int>::DecryptValueToPool
  0003a	3b 7d 0c	 cmp	 edi, DWORD PTR _value$542538[ebp]
  0003d	0f 85 db 00 00
	00		 jne	 $LN8@InsertSele

; 399  : 	{	
; 400  : 		for( int i = 0; i < (int)m_PCRoomSoldierSelectVec.size(); ++i )

  00043	8b 83 bc 01 00
	00		 mov	 eax, DWORD PTR [ebx+444]
  00049	2b 83 b8 01 00
	00		 sub	 eax, DWORD PTR [ebx+440]
  0004f	83 65 0c 00	 and	 DWORD PTR _i$532558[ebp], 0
  00053	a9 f8 ff ff ff	 test	 eax, -8			; fffffff8H
  00058	7e 33		 jle	 SHORT $LN5@InsertSele
$LL57@InsertSele:
  0005a	8b 83 b8 01 00
	00		 mov	 eax, DWORD PTR [ebx+440]
  00060	8b 4d 0c	 mov	 ecx, DWORD PTR _i$532558[ebp]
  00063	8d 3c c8	 lea	 edi, DWORD PTR [eax+ecx*8]

; 401  : 		{
; 402  : 			//      
; 403  : 			if( g_MyInfo.GetClassType() == m_PCRoomSoldierSelectVec[i].m_iClassType )

  00066	e8 00 00 00 00	 call	 ?GetSingleton@ioMyInfo@@SAAAV1@XZ ; ioMyInfo::GetSingleton
  0006b	8b c8		 mov	 ecx, eax
  0006d	e8 00 00 00 00	 call	 ?GetClassType@ioMyInfo@@QAEHXZ ; ioMyInfo::GetClassType
  00072	3b 07		 cmp	 eax, DWORD PTR [edi]
  00074	74 58		 je	 SHORT $LN55@InsertSele

; 399  : 	{	
; 400  : 		for( int i = 0; i < (int)m_PCRoomSoldierSelectVec.size(); ++i )

  00076	8b 83 bc 01 00
	00		 mov	 eax, DWORD PTR [ebx+444]
  0007c	2b 83 b8 01 00
	00		 sub	 eax, DWORD PTR [ebx+440]
  00082	ff 45 0c	 inc	 DWORD PTR _i$532558[ebp]
  00085	c1 f8 03	 sar	 eax, 3
  00088	39 45 0c	 cmp	 DWORD PTR _i$532558[ebp], eax
  0008b	7c cd		 jl	 SHORT $LL57@InsertSele
$LN5@InsertSele:

; 407  : 			}
; 408  : 		}
; 409  : 
; 410  : 		if( m_bEraseBegin )

  0008d	80 bb 99 01 00
	00 00		 cmp	 BYTE PTR [ebx+409], 0
  00094	74 68		 je	 SHORT $LN3@InsertSele

; 411  : 		{
; 412  : 			m_PCRoomSoldierSelectVec.erase( m_PCRoomSoldierSelectVec.begin() );

  00096	ff b3 b8 01 00
	00		 push	 DWORD PTR [ebx+440]
  0009c	8d 45 0c	 lea	 eax, DWORD PTR $T542518[ebp]
  0009f	50		 push	 eax
  000a0	8d 8b b8 01 00
	00		 lea	 ecx, DWORD PTR [ebx+440]
  000a6	e8 00 00 00 00	 call	 ?erase@?$vector@UPCRoomSoldierSelect@ExPCRoomSoldierBonusWnd@@V?$allocator@UPCRoomSoldierSelect@ExPCRoomSoldierBonusWnd@@@std@@@std@@QAE?AV?$_Vector_iterator@V?$_Vector_val@UPCRoomSoldierSelect@ExPCRoomSoldierBonusWnd@@V?$allocator@UPCRoomSoldierSelect@ExPCRoomSoldierBonusWnd@@@std@@@std@@@2@V?$_Vector_const_iterator@V?$_Vector_val@UPCRoomSoldierSelect@ExPCRoomSoldierBonusWnd@@V?$allocator@UPCRoomSoldierSelect@ExPCRoomSoldierBonusWnd@@@std@@@std@@@2@@Z ; std::vector<ExPCRoomSoldierBonusWnd::PCRoomSoldierSelect,std::allocator<ExPCRoomSoldierBonusWnd::PCRoomSoldierSelect> >::erase

; 413  : 			m_bEraseBegin = false;
; 414  : 			m_PCRoomSoldierSelectVec.insert( m_PCRoomSoldierSelectVec.begin(), PcRoomSelect );

  000ab	8b 83 b8 01 00
	00		 mov	 eax, DWORD PTR [ebx+440]
  000b1	8d 4d f8	 lea	 ecx, DWORD PTR _PcRoomSelect$[ebp]
  000b4	51		 push	 ecx
  000b5	50		 push	 eax
  000b6	8d 45 0c	 lea	 eax, DWORD PTR $T542521[ebp]
  000b9	50		 push	 eax
  000ba	8d 8b b8 01 00
	00		 lea	 ecx, DWORD PTR [ebx+440]
  000c0	c6 83 99 01 00
	00 00		 mov	 BYTE PTR [ebx+409], 0
  000c7	e8 00 00 00 00	 call	 ??$emplace@AAUPCRoomSoldierSelect@ExPCRoomSoldierBonusWnd@@@?$vector@UPCRoomSoldierSelect@ExPCRoomSoldierBonusWnd@@V?$allocator@UPCRoomSoldierSelect@ExPCRoomSoldierBonusWnd@@@std@@@std@@QAE?AV?$_Vector_iterator@V?$_Vector_val@UPCRoomSoldierSelect@ExPCRoomSoldierBonusWnd@@V?$allocator@UPCRoomSoldierSelect@ExPCRoomSoldierBonusWnd@@@std@@@std@@@1@V?$_Vector_const_iterator@V?$_Vector_val@UPCRoomSoldierSelect@ExPCRoomSoldierBonusWnd@@V?$allocator@UPCRoomSoldierSelect@ExPCRoomSoldierBonusWnd@@@std@@@std@@@1@AAUPCRoomSoldierSelect@ExPCRoomSoldierBonusWnd@@@Z ; std::vector<ExPCRoomSoldierBonusWnd::PCRoomSoldierSelect,std::allocator<ExPCRoomSoldierBonusWnd::PCRoomSoldierSelect> >::emplace<ExPCRoomSoldierBonusWnd::PCRoomSoldierSelect &>

; 415  : 		}
; 416  : 		else

  000cc	eb 66		 jmp	 SHORT $LN1@InsertSele
$LN55@InsertSele:

; 404  : 			{
; 405  : 				g_GUIMgr.SetMsgBox( MB_OK, NULL, STR(1) );

  000ce	33 f6		 xor	 esi, esi
  000d0	56		 push	 esi
  000d1	6a 01		 push	 1
  000d3	68 00 00 00 00	 push	 OFFSET ??_C@_00CNPNBAHC@?$AA@
  000d8	68 00 00 00 00	 push	 OFFSET ??_C@_0CK@OCJBDECN@ExPCRoomSoldierBonusWnd?3?3InsertS@
  000dd	ff 15 00 00 00
	00		 call	 DWORD PTR __imp_?GetSingleton@ioStringManager@@SAAAV1@XZ
  000e3	8b c8		 mov	 ecx, eax
  000e5	ff 15 00 00 00
	00		 call	 DWORD PTR __imp_?GetString@ioStringManager@@QAEPADPBD0HW4FileNamePrefix@1@@Z
  000eb	50		 push	 eax
  000ec	56		 push	 esi
  000ed	56		 push	 esi
  000ee	e8 00 00 00 00	 call	 ?GetSingleton@ioSP2GUIManager@@SAAAV1@XZ ; ioSP2GUIManager::GetSingleton
  000f3	50		 push	 eax
  000f4	e8 00 00 00 00	 call	 ?SetMsgBox@ioSP2GUIManager@@QAAXHPAVioWnd@@PBDZZ ; ioSP2GUIManager::SetMsgBox
  000f9	83 c4 10	 add	 esp, 16			; 00000010H

; 406  : 				return;

  000fc	eb 3d		 jmp	 SHORT $LN9@InsertSele
$LN3@InsertSele:

; 417  : 		{	
; 418  : 			m_PCRoomSoldierSelectVec.pop_back();

  000fe	8b 83 bc 01 00
	00		 mov	 eax, DWORD PTR [ebx+444]
  00104	39 83 b8 01 00
	00		 cmp	 DWORD PTR [ebx+440], eax
  0010a	74 09		 je	 SHORT $LN43@InsertSele
  0010c	83 c0 f8	 add	 eax, -8			; fffffff8H
  0010f	89 83 bc 01 00
	00		 mov	 DWORD PTR [ebx+444], eax
$LN43@InsertSele:

; 419  : 			m_bEraseBegin = true;

  00115	c6 83 99 01 00
	00 01		 mov	 BYTE PTR [ebx+409], 1

; 420  : 			m_PCRoomSoldierSelectVec.push_back( PcRoomSelect );
; 421  : 		}
; 422  : 	}
; 423  : 	else

  0011c	eb 07		 jmp	 SHORT $LN58@InsertSele
$LN8@InsertSele:

; 424  : 	{
; 425  : 		m_bEraseBegin = false;

  0011e	c6 83 99 01 00
	00 00		 mov	 BYTE PTR [ebx+409], 0
$LN58@InsertSele:

; 426  : 		m_PCRoomSoldierSelectVec.push_back( PcRoomSelect );

  00125	8d 45 f8	 lea	 eax, DWORD PTR _PcRoomSelect$[ebp]
  00128	50		 push	 eax
  00129	8d 8b b8 01 00
	00		 lea	 ecx, DWORD PTR [ebx+440]
  0012f	e8 00 00 00 00	 call	 ?push_back@?$vector@UPCRoomSoldierSelect@ExPCRoomSoldierBonusWnd@@V?$allocator@UPCRoomSoldierSelect@ExPCRoomSoldierBonusWnd@@@std@@@std@@QAEXABUPCRoomSoldierSelect@ExPCRoomSoldierBonusWnd@@@Z ; std::vector<ExPCRoomSoldierBonusWnd::PCRoomSoldierSelect,std::allocator<ExPCRoomSoldierBonusWnd::PCRoomSoldierSelect> >::push_back
$LN1@InsertSele:

; 427  : 	}
; 428  : 	RefreshCharWnd();

  00134	8b cb		 mov	 ecx, ebx
  00136	e8 00 00 00 00	 call	 ?RefreshCharWnd@ExPCRoomSoldierBonusWnd@@IAEXXZ ; ExPCRoomSoldierBonusWnd::RefreshCharWnd
$LN9@InsertSele:
  0013b	5f		 pop	 edi
  0013c	5e		 pop	 esi
  0013d	5b		 pop	 ebx

; 429  : }

  0013e	c9		 leave
  0013f	c2 08 00	 ret	 8
?InsertSelectInfo@ExPCRoomSoldierBonusWnd@@IAEXH_N@Z ENDP ; ExPCRoomSoldierBonusWnd::InsertSelectInfo
_TEXT	ENDS
PUBLIC	??_R0?AVSoldierSelectWnd@@@8			; SoldierSelectWnd `RTTI Type Descriptor'
PUBLIC	??_C@_0CF@JPDBCOLA@ExPCRoomSoldierBonusWnd?3?3iwm_com@ ; `string'
PUBLIC	__$ArrayPad$
EXTRN	??1SP2Packet@@UAE@XZ:PROC			; SP2Packet::~SP2Packet
EXTRN	?SetMouseBusy@ioApplication@@QAEX_N@Z:PROC	; ioApplication::SetMouseBusy
EXTRN	?SendToServer@TCPNetwork@@YAXAAVSP2Packet@@@Z:PROC ; TCPNetwork::SendToServer
EXTRN	?GetExerciseCharCount@ioMyInfo@@QAEHXZ:PROC	; ioMyInfo::GetExerciseCharCount
EXTRN	??6SP2Packet@@QAEAAV0@H@Z:PROC			; SP2Packet::operator<<
EXTRN	??6SP2Packet@@QAEAAV0@_N@Z:PROC			; SP2Packet::operator<<
EXTRN	??0SP2Packet@@QAE@K@Z:PROC			; SP2Packet::SP2Packet
EXTRN	?IsOneMyChar@ioPlayStage@@QAE_NXZ:PROC		; ioPlayStage::IsOneMyChar
EXTRN	__chkstk:PROC
;	COMDAT ??_R0?AVSoldierSelectWnd@@@8
; File d:\lost saga for developer\youtube\tutorial\source\src\lsclient\iomyinfo.h
_DATA	SEGMENT
??_R0?AVSoldierSelectWnd@@@8 DD FLAT:??_7type_info@@6B@	; SoldierSelectWnd `RTTI Type Descriptor'
	DD	00H
	DB	'.?AVSoldierSelectWnd@@', 00H
_DATA	ENDS
;	COMDAT ??_C@_0CF@JPDBCOLA@ExPCRoomSoldierBonusWnd?3?3iwm_com@
CONST	SEGMENT
??_C@_0CF@JPDBCOLA@ExPCRoomSoldierBonusWnd?3?3iwm_com@ DB 'ExPCRoomSoldie'
	DB	'rBonusWnd::iwm_command', 00H		; `string'
CONST	ENDS
;	COMDAT xdata$x
xdata$x	SEGMENT
__unwindtable$?iwm_command@ExPCRoomSoldierBonusWnd@@UAEXPAVioWnd@@HK@Z DD 0ffffffffH
	DD	FLAT:__unwindfunclet$?iwm_command@ExPCRoomSoldierBonusWnd@@UAEXPAVioWnd@@HK@Z$0
__ehfuncinfo$?iwm_command@ExPCRoomSoldierBonusWnd@@UAEXPAVioWnd@@HK@Z DD 019930522H
	DD	01H
	DD	FLAT:__unwindtable$?iwm_command@ExPCRoomSoldierBonusWnd@@UAEXPAVioWnd@@HK@Z
	DD	2 DUP(00H)
	DD	2 DUP(00H)
	DD	00H
	DD	01H
; Function compile flags: /Ogsp
; File d:\lost saga for developer\youtube\tutorial\source\src\lsclient\gui\expcroomwnd.cpp
xdata$x	ENDS
;	COMDAT ?iwm_command@ExPCRoomSoldierBonusWnd@@UAEXPAVioWnd@@HK@Z
_TEXT	SEGMENT
_PcRoomSelect$532770 = -32824				; size = 8
_bOneChar$532755 = -32816				; size = 1
$T542702 = -32816					; size = 4
_value$542677 = -32816					; size = 4
_bWait$532757 = -32812					; size = 1
_value$542688 = -32812					; size = 4
_kPacket$532763 = -32808				; size = 32792
__$ArrayPad$ = -16					; size = 4
__$EHRec$ = -12						; size = 12
_pWnd$ = 8						; size = 4
_cmd$ = 12						; size = 4
_param$ = 16						; size = 4
?iwm_command@ExPCRoomSoldierBonusWnd@@UAEXPAVioWnd@@HK@Z PROC ; ExPCRoomSoldierBonusWnd::iwm_command, COMDAT
; _this$ = ecx

; 654  : {

  00000	55		 push	 ebp
  00001	8b ec		 mov	 ebp, esp
  00003	6a ff		 push	 -1
  00005	68 00 00 00 00	 push	 __ehhandler$?iwm_command@ExPCRoomSoldierBonusWnd@@UAEXPAVioWnd@@HK@Z
  0000a	64 a1 00 00 00
	00		 mov	 eax, DWORD PTR fs:0
  00010	50		 push	 eax
  00011	b8 2c 80 00 00	 mov	 eax, 32812		; 0000802cH
  00016	e8 00 00 00 00	 call	 __chkstk
  0001b	a1 00 00 00 00	 mov	 eax, DWORD PTR ___security_cookie
  00020	33 c5		 xor	 eax, ebp
  00022	89 45 f0	 mov	 DWORD PTR __$ArrayPad$[ebp], eax
  00025	53		 push	 ebx
  00026	56		 push	 esi
  00027	57		 push	 edi
  00028	50		 push	 eax
  00029	8d 45 f4	 lea	 eax, DWORD PTR __$EHRec$[ebp]
  0002c	64 a3 00 00 00
	00		 mov	 DWORD PTR fs:0, eax
  00032	8b 7d 08	 mov	 edi, DWORD PTR _pWnd$[ebp]
  00035	8b f1		 mov	 esi, ecx

; 655  : 	DWORD dwID = pWnd->GetID();

  00037	8b cf		 mov	 ecx, edi
  00039	ff 15 00 00 00
	00		 call	 DWORD PTR __imp_?GetID@ioWnd@@QBEKXZ

; 656  : 	switch( dwID )

  0003f	83 f8 01	 cmp	 eax, 1
  00042	0f 84 37 03 00
	00		 je	 $LN23@iwm_comman@4
  00048	83 f8 02	 cmp	 eax, 2
  0004b	0f 84 14 03 00
	00		 je	 $LN21@iwm_comman@4
  00051	83 f8 03	 cmp	 eax, 3
  00054	0f 84 d4 00 00
	00		 je	 $LN12@iwm_comman@4
  0005a	83 f8 04	 cmp	 eax, 4
  0005d	0f 84 b4 00 00
	00		 je	 $LN25@iwm_comman@4
  00063	83 c0 f6	 add	 eax, -10		; fffffff6H
  00066	83 f8 0e	 cmp	 eax, 14			; 0000000eH
  00069	0f 87 2c 03 00
	00		 ja	 $LN22@iwm_comman@4

; 676  : 	case ID_BONUS_CHAR_BTN01:
; 677  : 	case ID_BONUS_CHAR_BTN02:
; 678  : 	case ID_BONUS_CHAR_BTN03:
; 679  : 	case ID_BONUS_CHAR_BTN04:
; 680  : 	case ID_BONUS_CHAR_BTN05:
; 681  : 	case ID_BONUS_CHAR_BTN06:
; 682  : 	case ID_BONUS_CHAR_BTN07:
; 683  : 	case ID_BONUS_CHAR_BTN08:
; 684  : 	case ID_BONUS_CHAR_BTN09:
; 685  : 	case ID_BONUS_CHAR_BTN10:
; 686  : 	case ID_BONUS_CHAR_BTN11:
; 687  : 	case ID_BONUS_CHAR_BTN12:
; 688  : 	case ID_BONUS_CHAR_BTN13:
; 689  : 	case ID_BONUS_CHAR_BTN14:
; 690  : 	case ID_BONUS_CHAR_BTN15:
; 691  : 		if( cmd == IOBN_BTNUP )

  0006f	83 7d 0c 11	 cmp	 DWORD PTR _cmd$[ebp], 17 ; 00000011H
  00073	0f 85 22 03 00
	00		 jne	 $LN22@iwm_comman@4

; 692  : 		{
; 693  : 			ExPCRoomSoldierBonusBtn *pBtn = dynamic_cast<ExPCRoomSoldierBonusBtn*>( pWnd );

  00079	33 db		 xor	 ebx, ebx
  0007b	53		 push	 ebx
  0007c	68 00 00 00 00	 push	 OFFSET ??_R0?AVExPCRoomSoldierBonusBtn@@@8
  00081	68 00 00 00 00	 push	 OFFSET ??_R0?AVioWnd@@@8
  00086	53		 push	 ebx
  00087	57		 push	 edi
  00088	e8 00 00 00 00	 call	 ___RTDynamicCast

; 694  : 			if( pBtn->GetClassType() == -1 )

  0008d	8b b8 10 02 00
	00		 mov	 edi, DWORD PTR [eax+528]
  00093	83 c4 14	 add	 esp, 20			; 00000014H
  00096	83 ff ff	 cmp	 edi, -1
  00099	75 0a		 jne	 SHORT $LN17@iwm_comman@4

; 695  : 			{
; 696  : 				HideWnd();

  0009b	8b ce		 mov	 ecx, esi
  0009d	ff 15 00 00 00
	00		 call	 DWORD PTR __imp_?HideWnd@ioWnd@@QAEXXZ

; 697  : 				g_GUIMgr.SetMsgBox( MB_OK, NULL, STR(1) );
; 698  : 			}
; 699  : 			else

  000a3	eb 18		 jmp	 SHORT $LN68@iwm_comman@4
$LN17@iwm_comman@4:

; 700  : 			{
; 701  : 				int iSelectClass = pBtn->GetClassType();
; 702  : 				if( pBtn->IsChecked() )

  000a5	38 98 18 02 00
	00		 cmp	 BYTE PTR [eax+536], bl
  000ab	74 54		 je	 SHORT $LN15@iwm_comman@4

; 703  : 				{
; 704  : 					if( iSelectClass == g_MyInfo.GetClassType() )

  000ad	e8 00 00 00 00	 call	 ?GetSingleton@ioMyInfo@@SAAAV1@XZ ; ioMyInfo::GetSingleton
  000b2	8b c8		 mov	 ecx, eax
  000b4	e8 00 00 00 00	 call	 ?GetClassType@ioMyInfo@@QAEHXZ ; ioMyInfo::GetClassType
  000b9	3b f8		 cmp	 edi, eax
  000bb	75 31		 jne	 SHORT $LN14@iwm_comman@4
$LN68@iwm_comman@4:

; 705  : 					{
; 706  : 						g_GUIMgr.SetMsgBox( MB_OK, NULL, STR(1) );

  000bd	53		 push	 ebx
  000be	6a 01		 push	 1
  000c0	68 00 00 00 00	 push	 OFFSET ??_C@_00CNPNBAHC@?$AA@
  000c5	68 00 00 00 00	 push	 OFFSET ??_C@_0CF@JPDBCOLA@ExPCRoomSoldierBonusWnd?3?3iwm_com@
  000ca	ff 15 00 00 00
	00		 call	 DWORD PTR __imp_?GetSingleton@ioStringManager@@SAAAV1@XZ
  000d0	8b c8		 mov	 ecx, eax
  000d2	ff 15 00 00 00
	00		 call	 DWORD PTR __imp_?GetString@ioStringManager@@QAEPADPBD0HW4FileNamePrefix@1@@Z
  000d8	50		 push	 eax
  000d9	53		 push	 ebx
  000da	53		 push	 ebx
  000db	e8 00 00 00 00	 call	 ?GetSingleton@ioSP2GUIManager@@SAAAV1@XZ ; ioSP2GUIManager::GetSingleton
  000e0	50		 push	 eax
  000e1	e8 00 00 00 00	 call	 ?SetMsgBox@ioSP2GUIManager@@QAAXHPAVioWnd@@PBDZZ ; ioSP2GUIManager::SetMsgBox
  000e6	83 c4 10	 add	 esp, 16			; 00000010H

; 707  : 						return;

  000e9	e9 ad 02 00 00	 jmp	 $LN22@iwm_comman@4
$LN14@iwm_comman@4:

; 708  : 					}
; 709  : 
; 710  : 					RemoveSelectInfo( iSelectClass );

  000ee	57		 push	 edi
  000ef	8b ce		 mov	 ecx, esi
  000f1	e8 00 00 00 00	 call	 ?RemoveSelectInfo@ExPCRoomSoldierBonusWnd@@IAEXH@Z ; ExPCRoomSoldierBonusWnd::RemoveSelectInfo
$LN65@iwm_comman@4:

; 711  : 					UpdateSetPage( m_iCurPage );

  000f6	ff b6 a0 01 00
	00		 push	 DWORD PTR [esi+416]

; 712  : 				}
; 713  : 				else

  000fc	e9 93 02 00 00	 jmp	 $LN63@iwm_comman@4
$LN15@iwm_comman@4:

; 714  : 				{
; 715  : 					InsertSelectInfo( iSelectClass, IsTimeExpireChar( pBtn->GetClassType() ) );

  00101	57		 push	 edi
  00102	8b ce		 mov	 ecx, esi
  00104	e8 00 00 00 00	 call	 ?IsTimeExpireChar@ExPCRoomSoldierBonusWnd@@IAE_NH@Z ; ExPCRoomSoldierBonusWnd::IsTimeExpireChar
  00109	0f b6 c0	 movzx	 eax, al
  0010c	50		 push	 eax
  0010d	57		 push	 edi
  0010e	8b ce		 mov	 ecx, esi
  00110	e8 00 00 00 00	 call	 ?InsertSelectInfo@ExPCRoomSoldierBonusWnd@@IAEXH_N@Z ; ExPCRoomSoldierBonusWnd::InsertSelectInfo

; 716  : 					UpdateSetPage( m_iCurPage );
; 717  : 				}
; 718  : 			}
; 719  : 		}
; 720  : 		break;

  00115	eb df		 jmp	 SHORT $LN65@iwm_comman@4
$LN25@iwm_comman@4:

; 657  : 	{
; 658  : 	case ID_EXIT:
; 659  : 		if( cmd == IOBN_BTNUP )

  00117	83 7d 0c 11	 cmp	 DWORD PTR _cmd$[ebp], 17 ; 00000011H
  0011b	0f 85 7a 02 00
	00		 jne	 $LN22@iwm_comman@4
$LN66@iwm_comman@4:

; 660  : 		{
; 661  : 			HideWnd();

  00121	8b ce		 mov	 ecx, esi
  00123	ff 15 00 00 00
	00		 call	 DWORD PTR __imp_?HideWnd@ioWnd@@QAEXXZ

; 662  : 		}
; 663  : 		break;

  00129	e9 6d 02 00 00	 jmp	 $LN22@iwm_comman@4
$LN12@iwm_comman@4:

; 721  : 	case ID_OK:
; 722  : 		if( cmd == IOBN_BTNUP )

  0012e	83 7d 0c 11	 cmp	 DWORD PTR _cmd$[ebp], 17 ; 00000011H
  00132	0f 85 63 02 00
	00		 jne	 $LN22@iwm_comman@4

; 723  : 		{
; 724  : 			bool bOneChar = true;
; 725  : 			if( m_pPlayStage && !m_pPlayStage->IsOneMyChar() )

  00138	8b 8e 9c 01 00
	00		 mov	 ecx, DWORD PTR [esi+412]
  0013e	33 db		 xor	 ebx, ebx
  00140	c6 85 d0 7f ff
	ff 01		 mov	 BYTE PTR _bOneChar$532755[ebp], 1
  00147	3b cb		 cmp	 ecx, ebx
  00149	74 0f		 je	 SHORT $LN10@iwm_comman@4
  0014b	e8 00 00 00 00	 call	 ?IsOneMyChar@ioPlayStage@@QAE_NXZ ; ioPlayStage::IsOneMyChar
  00150	84 c0		 test	 al, al
  00152	75 06		 jne	 SHORT $LN10@iwm_comman@4

; 726  : 				bOneChar = false;

  00154	88 9d d0 7f ff
	ff		 mov	 BYTE PTR _bOneChar$532755[ebp], bl
$LN10@iwm_comman@4:

; 727  : 
; 728  : 			bool bWait = true;
; 729  : 			SoldierSelectWnd *pSelectWnd = dynamic_cast<SoldierSelectWnd*>(g_GUIMgr.FindWnd( SOLDIER_SELECT_WND ));

  0015a	53		 push	 ebx
  0015b	68 00 00 00 00	 push	 OFFSET ??_R0?AVSoldierSelectWnd@@@8
  00160	68 00 00 00 00	 push	 OFFSET ??_R0?AVioWnd@@@8
  00165	53		 push	 ebx
  00166	68 9f 13 00 00	 push	 5023			; 0000139fH
  0016b	c6 85 d4 7f ff
	ff 01		 mov	 BYTE PTR _bWait$532757[ebp], 1
  00172	e8 00 00 00 00	 call	 ?GetSingleton@ioSP2GUIManager@@SAAAV1@XZ ; ioSP2GUIManager::GetSingleton
  00177	8b c8		 mov	 ecx, eax
  00179	ff 15 00 00 00
	00		 call	 DWORD PTR __imp_?FindWnd@ioGUIManager@@QAEPAVioWnd@@K@Z
  0017f	50		 push	 eax
  00180	e8 00 00 00 00	 call	 ___RTDynamicCast
  00185	8b f8		 mov	 edi, eax
  00187	83 c4 14	 add	 esp, 20			; 00000014H

; 730  : 			if( pSelectWnd && pSelectWnd->IsShow() && pSelectWnd->IsForcedWait() ) // hide  forcewait  IsShow 

  0018a	3b fb		 cmp	 edi, ebx
  0018c	74 1a		 je	 SHORT $LN9@iwm_comman@4
  0018e	8b cf		 mov	 ecx, edi
  00190	ff 15 00 00 00
	00		 call	 DWORD PTR __imp_?IsShow@ioWnd@@QBE_NXZ
  00196	84 c0		 test	 al, al
  00198	74 0e		 je	 SHORT $LN9@iwm_comman@4
  0019a	39 9f bc 01 00
	00		 cmp	 DWORD PTR [edi+444], ebx
  001a0	75 06		 jne	 SHORT $LN9@iwm_comman@4

; 731  : 				bWait = false;

  001a2	88 9d d4 7f ff
	ff		 mov	 BYTE PTR _bWait$532757[ebp], bl
$LN9@iwm_comman@4:

; 732  : 
; 733  : 			if( !IsCanExerciseChar( bWait ) )

  001a8	ff b5 d4 7f ff
	ff		 push	 DWORD PTR _bWait$532757[ebp]
  001ae	8b ce		 mov	 ecx, esi
  001b0	e8 00 00 00 00	 call	 ?IsCanExerciseChar@ExPCRoomSoldierBonusWnd@@IAE_N_N@Z ; ExPCRoomSoldierBonusWnd::IsCanExerciseChar
  001b5	84 c0		 test	 al, al

; 734  : 			{
; 735  : 				HideWnd();
; 736  : 				return;

  001b7	0f 84 64 ff ff
	ff		 je	 $LN66@iwm_comman@4

; 737  : 			}
; 738  : 
; 739  : 			SP2Packet kPacket( CTPK_EXERCISE_PCROOM_CHAR_CREATE );

  001bd	68 22 03 00 00	 push	 802			; 00000322H
  001c2	8d 8d d8 7f ff
	ff		 lea	 ecx, DWORD PTR _kPacket$532763[ebp]
  001c8	e8 00 00 00 00	 call	 ??0SP2Packet@@QAE@K@Z	; SP2Packet::SP2Packet

; 740  : 			kPacket << bWait;

  001cd	ff b5 d4 7f ff
	ff		 push	 DWORD PTR _bWait$532757[ebp]
  001d3	8d 8d d8 7f ff
	ff		 lea	 ecx, DWORD PTR _kPacket$532763[ebp]
  001d9	89 5d fc	 mov	 DWORD PTR __$EHRec$[ebp+8], ebx
  001dc	e8 00 00 00 00	 call	 ??6SP2Packet@@QAEAAV0@_N@Z ; SP2Packet::operator<<

; 741  : 			kPacket << bOneChar;

  001e1	ff b5 d0 7f ff
	ff		 push	 DWORD PTR _bOneChar$532755[ebp]
  001e7	8d 8d d8 7f ff
	ff		 lea	 ecx, DWORD PTR _kPacket$532763[ebp]
  001ed	e8 00 00 00 00	 call	 ??6SP2Packet@@QAEAAV0@_N@Z ; SP2Packet::operator<<

; 742  : 			kPacket << g_MyInfo.GetPcRoomCharMax();

  001f2	e8 00 00 00 00	 call	 ?GetSingleton@ioMyInfo@@SAAAV1@XZ ; ioMyInfo::GetSingleton
  001f7	8d 8d d0 7f ff
	ff		 lea	 ecx, DWORD PTR _value$542677[ebp]
  001fd	51		 push	 ecx
  001fe	8d 88 cc 0b 00
	00		 lea	 ecx, DWORD PTR [eax+3020]
  00204	e8 00 00 00 00	 call	 ?DecryptValueToPool@?$CEncrypt@H@@QAEXPAH@Z ; CEncrypt<int>::DecryptValueToPool
  00209	ff b5 d0 7f ff
	ff		 push	 DWORD PTR _value$542677[ebp]
  0020f	8d 8d d8 7f ff
	ff		 lea	 ecx, DWORD PTR _kPacket$532763[ebp]
  00215	e8 00 00 00 00	 call	 ??6SP2Packet@@QAEAAV0@H@Z ; SP2Packet::operator<<

; 743  : 			for( int i = 0; i < g_MyInfo.GetPcRoomCharMax(); ++i )

  0021a	33 ff		 xor	 edi, edi
  0021c	e8 00 00 00 00	 call	 ?GetSingleton@ioMyInfo@@SAAAV1@XZ ; ioMyInfo::GetSingleton
  00221	8d 8d d4 7f ff
	ff		 lea	 ecx, DWORD PTR _value$542688[ebp]
  00227	51		 push	 ecx
  00228	8d 88 cc 0b 00
	00		 lea	 ecx, DWORD PTR [eax+3020]
  0022e	e8 00 00 00 00	 call	 ?DecryptValueToPool@?$CEncrypt@H@@QAEXPAH@Z ; CEncrypt<int>::DecryptValueToPool
  00233	39 9d d4 7f ff
	ff		 cmp	 DWORD PTR _value$542688[ebp], ebx
  00239	0f 8e f2 00 00
	00		 jle	 $LN5@iwm_comman@4
$LL7@iwm_comman@4:

; 744  : 			{
; 745  : 				if( i < (int)m_PCRoomSoldierSelectVec.size() )

  0023f	8b 86 b8 01 00
	00		 mov	 eax, DWORD PTR [esi+440]
  00245	8b 8e bc 01 00
	00		 mov	 ecx, DWORD PTR [esi+444]
  0024b	2b c8		 sub	 ecx, eax
  0024d	c1 f9 03	 sar	 ecx, 3
  00250	3b f9		 cmp	 edi, ecx
  00252	0f 8d 9d 00 00
	00		 jge	 $LN4@iwm_comman@4

; 746  : 				{
; 747  : 					PCRoomSoldierSelect PcRoomSelect = m_PCRoomSoldierSelectVec[i];

  00258	8b 0c f8	 mov	 ecx, DWORD PTR [eax+edi*8]
  0025b	8b 44 f8 04	 mov	 eax, DWORD PTR [eax+edi*8+4]

; 748  : 					kPacket << PcRoomSelect.m_iClassType;

  0025f	51		 push	 ecx
  00260	8d 8d d8 7f ff
	ff		 lea	 ecx, DWORD PTR _kPacket$532763[ebp]
  00266	89 85 cc 7f ff
	ff		 mov	 DWORD PTR _PcRoomSelect$532770[ebp+4], eax
  0026c	e8 00 00 00 00	 call	 ??6SP2Packet@@QAEAAV0@H@Z ; SP2Packet::operator<<

; 749  : 					kPacket << PcRoomSelect.m_bCharDelete;

  00271	ff b5 cc 7f ff
	ff		 push	 DWORD PTR _PcRoomSelect$532770[ebp+4]
  00277	8d 8d d8 7f ff
	ff		 lea	 ecx, DWORD PTR _kPacket$532763[ebp]
  0027d	e8 00 00 00 00	 call	 ??6SP2Packet@@QAEAAV0@H@Z ; SP2Packet::operator<<

; 750  : 
; 751  : 					if( g_MyInfo.GetCharCount() >= g_MyInfo.GetCurMaxCharSlot() && g_MyInfo.GetExerciseCharCount() == 0 )

  00282	e8 00 00 00 00	 call	 ?GetSingleton@ioMyInfo@@SAAAV1@XZ ; ioMyInfo::GetSingleton
  00287	8b 80 80 08 00
	00		 mov	 eax, DWORD PTR [eax+2176]
  0028d	89 85 d0 7f ff
	ff		 mov	 DWORD PTR $T542702[ebp], eax
  00293	e8 00 00 00 00	 call	 ?GetSingleton@ioMyInfo@@SAAAV1@XZ ; ioMyInfo::GetSingleton
  00298	8b c8		 mov	 ecx, eax
  0029a	e8 00 00 00 00	 call	 ?GetCharCount@ioMyInfo@@QBEHXZ ; ioMyInfo::GetCharCount
  0029f	3b 85 d0 7f ff
	ff		 cmp	 eax, DWORD PTR $T542702[ebp]
  002a5	7c 66		 jl	 SHORT $LN6@iwm_comman@4
  002a7	e8 00 00 00 00	 call	 ?GetSingleton@ioMyInfo@@SAAAV1@XZ ; ioMyInfo::GetSingleton
  002ac	8b c8		 mov	 ecx, eax
  002ae	e8 00 00 00 00	 call	 ?GetExerciseCharCount@ioMyInfo@@QAEHXZ ; ioMyInfo::GetExerciseCharCount
  002b3	85 c0		 test	 eax, eax
  002b5	75 56		 jne	 SHORT $LN6@iwm_comman@4

; 752  : 					{
; 753  : 						if( !PcRoomSelect.m_bCharDelete )

  002b7	39 9d cc 7f ff
	ff		 cmp	 DWORD PTR _PcRoomSelect$532770[ebp+4], ebx
  002bd	75 4e		 jne	 SHORT $LN6@iwm_comman@4

; 754  : 						{
; 755  : 							HideWnd();

  002bf	8b ce		 mov	 ecx, esi
  002c1	ff 15 00 00 00
	00		 call	 DWORD PTR __imp_?HideWnd@ioWnd@@QAEXXZ

; 756  : 							g_GUIMgr.SetMsgBox( MB_OK, NULL, STR(3) );

  002c7	53		 push	 ebx
  002c8	6a 03		 push	 3
  002ca	68 00 00 00 00	 push	 OFFSET ??_C@_00CNPNBAHC@?$AA@
  002cf	68 00 00 00 00	 push	 OFFSET ??_C@_0CF@JPDBCOLA@ExPCRoomSoldierBonusWnd?3?3iwm_com@
  002d4	ff 15 00 00 00
	00		 call	 DWORD PTR __imp_?GetSingleton@ioStringManager@@SAAAV1@XZ
  002da	8b c8		 mov	 ecx, eax
  002dc	ff 15 00 00 00
	00		 call	 DWORD PTR __imp_?GetString@ioStringManager@@QAEPADPBD0HW4FileNamePrefix@1@@Z
  002e2	50		 push	 eax
  002e3	53		 push	 ebx
  002e4	53		 push	 ebx
  002e5	e8 00 00 00 00	 call	 ?GetSingleton@ioSP2GUIManager@@SAAAV1@XZ ; ioSP2GUIManager::GetSingleton
  002ea	50		 push	 eax
  002eb	e8 00 00 00 00	 call	 ?SetMsgBox@ioSP2GUIManager@@QAAXHPAVioWnd@@PBDZZ ; ioSP2GUIManager::SetMsgBox
  002f0	83 c4 10	 add	 esp, 16			; 00000010H

; 757  : 							return;

  002f3	eb 5f		 jmp	 SHORT $LN67@iwm_comman@4
$LN4@iwm_comman@4:

; 758  : 						}
; 759  : 					}
; 760  : 				}
; 761  : 				else
; 762  : 				{
; 763  : 					kPacket << 0;

  002f5	53		 push	 ebx
  002f6	8d 8d d8 7f ff
	ff		 lea	 ecx, DWORD PTR _kPacket$532763[ebp]
  002fc	e8 00 00 00 00	 call	 ??6SP2Packet@@QAEAAV0@H@Z ; SP2Packet::operator<<

; 764  : 					kPacket << false;

  00301	53		 push	 ebx
  00302	8d 8d d8 7f ff
	ff		 lea	 ecx, DWORD PTR _kPacket$532763[ebp]
  00308	e8 00 00 00 00	 call	 ??6SP2Packet@@QAEAAV0@_N@Z ; SP2Packet::operator<<
$LN6@iwm_comman@4:

; 743  : 			for( int i = 0; i < g_MyInfo.GetPcRoomCharMax(); ++i )

  0030d	47		 inc	 edi
  0030e	e8 00 00 00 00	 call	 ?GetSingleton@ioMyInfo@@SAAAV1@XZ ; ioMyInfo::GetSingleton
  00313	8d 8d d4 7f ff
	ff		 lea	 ecx, DWORD PTR _value$542688[ebp]
  00319	51		 push	 ecx
  0031a	8d 88 cc 0b 00
	00		 lea	 ecx, DWORD PTR [eax+3020]
  00320	e8 00 00 00 00	 call	 ?DecryptValueToPool@?$CEncrypt@H@@QAEXPAH@Z ; CEncrypt<int>::DecryptValueToPool
  00325	3b bd d4 7f ff
	ff		 cmp	 edi, DWORD PTR _value$542688[ebp]
  0032b	0f 8c 0e ff ff
	ff		 jl	 $LL7@iwm_comman@4
$LN5@iwm_comman@4:

; 765  : 				}
; 766  : 			}
; 767  : 
; 768  : 			TCPNetwork::SendToServer( kPacket );

  00331	8d 85 d8 7f ff
	ff		 lea	 eax, DWORD PTR _kPacket$532763[ebp]
  00337	50		 push	 eax
  00338	e8 00 00 00 00	 call	 ?SendToServer@TCPNetwork@@YAXAAVSP2Packet@@@Z ; TCPNetwork::SendToServer
  0033d	59		 pop	 ecx

; 769  : 			g_App.SetMouseBusy( true );

  0033e	6a 01		 push	 1
  00340	e8 00 00 00 00	 call	 ?GetSingleton@ioApplication@@SAAAV1@XZ ; ioApplication::GetSingleton
  00345	8b c8		 mov	 ecx, eax
  00347	e8 00 00 00 00	 call	 ?SetMouseBusy@ioApplication@@QAEX_N@Z ; ioApplication::SetMouseBusy

; 770  : 			HideWnd();

  0034c	8b ce		 mov	 ecx, esi
  0034e	ff 15 00 00 00
	00		 call	 DWORD PTR __imp_?HideWnd@ioWnd@@QAEXXZ
$LN67@iwm_comman@4:

; 771  : 		}

  00354	83 4d fc ff	 or	 DWORD PTR __$EHRec$[ebp+8], -1
  00358	8d 8d d8 7f ff
	ff		 lea	 ecx, DWORD PTR _kPacket$532763[ebp]
  0035e	e8 00 00 00 00	 call	 ??1SP2Packet@@UAE@XZ	; SP2Packet::~SP2Packet

; 772  : 		break;

  00363	eb 36		 jmp	 SHORT $LN22@iwm_comman@4
$LN21@iwm_comman@4:

; 668  : 		}
; 669  : 		break;
; 670  : 	case ID_RIGHT_PAGE:
; 671  : 		if( cmd == IOBN_BTNUP )

  00365	83 7d 0c 11	 cmp	 DWORD PTR _cmd$[ebp], 17 ; 00000011H
  00369	75 30		 jne	 SHORT $LN22@iwm_comman@4

; 672  : 		{
; 673  : 			UpdateSetPage( min( m_iMaxPage, m_iCurPage + 1 ) );

  0036b	8b 86 a0 01 00
	00		 mov	 eax, DWORD PTR [esi+416]
  00371	8b 8e a4 01 00
	00		 mov	 ecx, DWORD PTR [esi+420]
  00377	40		 inc	 eax
  00378	3b c8		 cmp	 ecx, eax
  0037a	0f 4c c1	 cmovl	 eax, ecx

; 674  : 		}
; 675  : 		break;

  0037d	eb 14		 jmp	 SHORT $LN64@iwm_comman@4
$LN23@iwm_comman@4:

; 664  : 	case ID_LEFT_PAGE:
; 665  : 		if( cmd == IOBN_BTNUP )

  0037f	83 7d 0c 11	 cmp	 DWORD PTR _cmd$[ebp], 17 ; 00000011H
  00383	75 16		 jne	 SHORT $LN22@iwm_comman@4

; 666  : 		{
; 667  : 			UpdateSetPage( max( 0, m_iCurPage - 1 ) );

  00385	8b 86 a0 01 00
	00		 mov	 eax, DWORD PTR [esi+416]
  0038b	48		 dec	 eax
  0038c	33 db		 xor	 ebx, ebx
  0038e	3b c3		 cmp	 eax, ebx
  00390	0f 4c c3	 cmovl	 eax, ebx
$LN64@iwm_comman@4:
  00393	50		 push	 eax
$LN63@iwm_comman@4:
  00394	8b ce		 mov	 ecx, esi
  00396	e8 00 00 00 00	 call	 ?UpdateSetPage@ExPCRoomSoldierBonusWnd@@IAEXH@Z ; ExPCRoomSoldierBonusWnd::UpdateSetPage
$LN22@iwm_comman@4:

; 773  : 	}
; 774  : }

  0039b	8b 4d f4	 mov	 ecx, DWORD PTR __$EHRec$[ebp]
  0039e	64 89 0d 00 00
	00 00		 mov	 DWORD PTR fs:0, ecx
  003a5	59		 pop	 ecx
  003a6	5f		 pop	 edi
  003a7	5e		 pop	 esi
  003a8	5b		 pop	 ebx
  003a9	8b 4d f0	 mov	 ecx, DWORD PTR __$ArrayPad$[ebp]
  003ac	33 cd		 xor	 ecx, ebp
  003ae	e8 00 00 00 00	 call	 @__security_check_cookie@4
  003b3	c9		 leave
  003b4	c2 0c 00	 ret	 12			; 0000000cH
_TEXT	ENDS
;	COMDAT text$x
text$x	SEGMENT
__unwindfunclet$?iwm_command@ExPCRoomSoldierBonusWnd@@UAEXPAVioWnd@@HK@Z$0:
  00000	8d 8d d8 7f ff
	ff		 lea	 ecx, DWORD PTR _kPacket$532763[ebp]
  00006	e9 00 00 00 00	 jmp	 ??1SP2Packet@@UAE@XZ	; SP2Packet::~SP2Packet
__ehhandler$?iwm_command@ExPCRoomSoldierBonusWnd@@UAEXPAVioWnd@@HK@Z:
  0000b	8b 54 24 08	 mov	 edx, DWORD PTR [esp+8]
  0000f	8d 42 0c	 lea	 eax, DWORD PTR [edx+12]
  00012	8b 8a c4 7f ff
	ff		 mov	 ecx, DWORD PTR [edx-32828]
  00018	33 c8		 xor	 ecx, eax
  0001a	e8 00 00 00 00	 call	 @__security_check_cookie@4
  0001f	8b 4a fc	 mov	 ecx, DWORD PTR [edx-4]
  00022	33 c8		 xor	 ecx, eax
  00024	e8 00 00 00 00	 call	 @__security_check_cookie@4
  00029	b8 00 00 00 00	 mov	 eax, OFFSET __ehfuncinfo$?iwm_command@ExPCRoomSoldierBonusWnd@@UAEXPAVioWnd@@HK@Z
  0002e	e9 00 00 00 00	 jmp	 ___CxxFrameHandler3
text$x	ENDS
?iwm_command@ExPCRoomSoldierBonusWnd@@UAEXPAVioWnd@@HK@Z ENDP ; ExPCRoomSoldierBonusWnd::iwm_command
PUBLIC	??_C@_0CC@DPEGLDKN@ExPCRoomSoldierBonusWnd?3?3iwm_sho@ ; `string'
EXTRN	?GetExerciseCharCount@ioMyInfo@@QAEHH@Z:PROC	; ioMyInfo::GetExerciseCharCount
;	COMDAT ??_C@_0CC@DPEGLDKN@ExPCRoomSoldierBonusWnd?3?3iwm_sho@
; File c:\program files (x86)\microsoft visual studio 10.0\vc\include\vector
CONST	SEGMENT
??_C@_0CC@DPEGLDKN@ExPCRoomSoldierBonusWnd?3?3iwm_sho@ DB 'ExPCRoomSoldie'
	DB	'rBonusWnd::iwm_show', 00H			; `string'
; Function compile flags: /Ogsp
; File d:\lost saga for developer\youtube\tutorial\source\src\lsclient\gui\expcroomwnd.cpp
CONST	ENDS
;	COMDAT ?iwm_show@ExPCRoomSoldierBonusWnd@@UAEXXZ
_TEXT	SEGMENT
$T542866 = -8						; size = 4
$T542786 = -8						; size = 4
_iClassType$532366 = -8					; size = 4
_value$542893 = -4					; size = 4
?iwm_show@ExPCRoomSoldierBonusWnd@@UAEXXZ PROC		; ExPCRoomSoldierBonusWnd::iwm_show, COMDAT
; _this$ = ecx

; 281  : {

  00000	55		 push	 ebp
  00001	8b ec		 mov	 ebp, esp
  00003	51		 push	 ecx
  00004	51		 push	 ecx
  00005	53		 push	 ebx
  00006	56		 push	 esi
  00007	57		 push	 edi
  00008	8b f9		 mov	 edi, ecx

; 282  : 	m_PCRoomSoldierSelectVec.clear();

  0000a	8d 8f b8 01 00
	00		 lea	 ecx, DWORD PTR [edi+440]
  00010	8b 41 04	 mov	 eax, DWORD PTR [ecx+4]
  00013	8b 11		 mov	 edx, DWORD PTR [ecx]
  00015	50		 push	 eax
  00016	52		 push	 edx
  00017	8d 45 f8	 lea	 eax, DWORD PTR $T542786[ebp]
  0001a	50		 push	 eax
  0001b	e8 00 00 00 00	 call	 ?erase@?$vector@UPCRoomSoldierSelect@ExPCRoomSoldierBonusWnd@@V?$allocator@UPCRoomSoldierSelect@ExPCRoomSoldierBonusWnd@@@std@@@std@@QAE?AV?$_Vector_iterator@V?$_Vector_val@UPCRoomSoldierSelect@ExPCRoomSoldierBonusWnd@@V?$allocator@UPCRoomSoldierSelect@ExPCRoomSoldierBonusWnd@@@std@@@std@@@2@V?$_Vector_const_iterator@V?$_Vector_val@UPCRoomSoldierSelect@ExPCRoomSoldierBonusWnd@@V?$allocator@UPCRoomSoldierSelect@ExPCRoomSoldierBonusWnd@@@std@@@std@@@2@0@Z ; std::vector<ExPCRoomSoldierBonusWnd::PCRoomSoldierSelect,std::allocator<ExPCRoomSoldierBonusWnd::PCRoomSoldierSelect> >::erase

; 283  : 	m_ClassTypeList.clear();

  00020	8b 87 ac 01 00
	00		 mov	 eax, DWORD PTR [edi+428]
  00026	8b 8f a8 01 00
	00		 mov	 ecx, DWORD PTR [edi+424]
  0002c	50		 push	 eax
  0002d	51		 push	 ecx
  0002e	8d 45 f8	 lea	 eax, DWORD PTR $T542866[ebp]
  00031	50		 push	 eax
  00032	8d 8f a8 01 00
	00		 lea	 ecx, DWORD PTR [edi+424]
  00038	e8 00 00 00 00	 call	 ?erase@?$vector@HV?$allocator@H@std@@@std@@QAE?AV?$_Vector_iterator@V?$_Vector_val@HV?$allocator@H@std@@@std@@@2@V?$_Vector_const_iterator@V?$_Vector_val@HV?$allocator@H@std@@@std@@@2@0@Z ; std::vector<int,std::allocator<int> >::erase

; 284  : 			
; 285  : 	AddPCRoomSoldierList( ioSetItemInfo::PT_NORMAL );

  0003d	6a 01		 push	 1
  0003f	8b cf		 mov	 ecx, edi
  00041	e8 00 00 00 00	 call	 ?AddPCRoomSoldierList@ExPCRoomSoldierBonusWnd@@IAEXW4PackageType@ioSetItemInfo@@@Z ; ExPCRoomSoldierBonusWnd::AddPCRoomSoldierList

; 286  : 	AddPCRoomSoldierList( ioSetItemInfo::PT_PREMIUM );

  00046	33 db		 xor	 ebx, ebx
  00048	53		 push	 ebx
  00049	8b cf		 mov	 ecx, edi
  0004b	e8 00 00 00 00	 call	 ?AddPCRoomSoldierList@ExPCRoomSoldierBonusWnd@@IAEXW4PackageType@ioSetItemInfo@@@Z ; ExPCRoomSoldierBonusWnd::AddPCRoomSoldierList

; 287  : 	AddPCRoomSoldierList( ioSetItemInfo::PT_RARE );

  00050	6a 02		 push	 2
  00052	8b cf		 mov	 ecx, edi
  00054	e8 00 00 00 00	 call	 ?AddPCRoomSoldierList@ExPCRoomSoldierBonusWnd@@IAEXW4PackageType@ioSetItemInfo@@@Z ; ExPCRoomSoldierBonusWnd::AddPCRoomSoldierList

; 288  : 
; 289  : 	// PC      1, 2    
; 290  : 	if( g_MyInfo.GetExerciseCharCount( EXERCISE_PCROOM ) == 0 )

  00059	6a 02		 push	 2
  0005b	e8 00 00 00 00	 call	 ?GetSingleton@ioMyInfo@@SAAAV1@XZ ; ioMyInfo::GetSingleton
  00060	8b c8		 mov	 ecx, eax
  00062	e8 00 00 00 00	 call	 ?GetExerciseCharCount@ioMyInfo@@QAEHH@Z ; ioMyInfo::GetExerciseCharCount
  00067	85 c0		 test	 eax, eax
  00069	75 68		 jne	 SHORT $LN63@iwm_show

; 291  : 	{
; 292  : 		for( int i = 0; i < g_MyInfo.GetPcRoomCharMax(); ++i )

  0006b	e8 00 00 00 00	 call	 ?GetSingleton@ioMyInfo@@SAAAV1@XZ ; ioMyInfo::GetSingleton
  00070	8d 4d fc	 lea	 ecx, DWORD PTR _value$542893[ebp]
  00073	51		 push	 ecx
  00074	8d 88 cc 0b 00
	00		 lea	 ecx, DWORD PTR [eax+3020]
  0007a	e8 00 00 00 00	 call	 ?DecryptValueToPool@?$CEncrypt@H@@QAEXPAH@Z ; CEncrypt<int>::DecryptValueToPool
  0007f	39 5d fc	 cmp	 DWORD PTR _value$542893[ebp], ebx
  00082	7e 4f		 jle	 SHORT $LN63@iwm_show
$LL5@iwm_show:

; 293  : 		{
; 294  : 			if( i < (int)m_ClassTypeList.size() )

  00084	8b 87 ac 01 00
	00		 mov	 eax, DWORD PTR [edi+428]
  0008a	2b 87 a8 01 00
	00		 sub	 eax, DWORD PTR [edi+424]
  00090	c1 f8 02	 sar	 eax, 2
  00093	3b d8		 cmp	 ebx, eax
  00095	7d 22		 jge	 SHORT $LN4@iwm_show

; 295  : 			{
; 296  : 				int iClassType = m_ClassTypeList[i];

  00097	8b 87 a8 01 00
	00		 mov	 eax, DWORD PTR [edi+424]
  0009d	8b 04 98	 mov	 eax, DWORD PTR [eax+ebx*4]

; 297  : 				InsertSelectInfo( iClassType, IsTimeExpireChar( iClassType ) );

  000a0	50		 push	 eax
  000a1	8b cf		 mov	 ecx, edi
  000a3	89 45 f8	 mov	 DWORD PTR _iClassType$532366[ebp], eax
  000a6	e8 00 00 00 00	 call	 ?IsTimeExpireChar@ExPCRoomSoldierBonusWnd@@IAE_NH@Z ; ExPCRoomSoldierBonusWnd::IsTimeExpireChar
  000ab	0f b6 c0	 movzx	 eax, al
  000ae	50		 push	 eax
  000af	ff 75 f8	 push	 DWORD PTR _iClassType$532366[ebp]
  000b2	8b cf		 mov	 ecx, edi
  000b4	e8 00 00 00 00	 call	 ?InsertSelectInfo@ExPCRoomSoldierBonusWnd@@IAEXH_N@Z ; ExPCRoomSoldierBonusWnd::InsertSelectInfo
$LN4@iwm_show:

; 291  : 	{
; 292  : 		for( int i = 0; i < g_MyInfo.GetPcRoomCharMax(); ++i )

  000b9	43		 inc	 ebx
  000ba	e8 00 00 00 00	 call	 ?GetSingleton@ioMyInfo@@SAAAV1@XZ ; ioMyInfo::GetSingleton
  000bf	8d 4d fc	 lea	 ecx, DWORD PTR _value$542893[ebp]
  000c2	51		 push	 ecx
  000c3	8d 88 cc 0b 00
	00		 lea	 ecx, DWORD PTR [eax+3020]
  000c9	e8 00 00 00 00	 call	 ?DecryptValueToPool@?$CEncrypt@H@@QAEXPAH@Z ; CEncrypt<int>::DecryptValueToPool
  000ce	3b 5d fc	 cmp	 ebx, DWORD PTR _value$542893[ebp]
  000d1	7c b1		 jl	 SHORT $LL5@iwm_show
$LN63@iwm_show:

; 298  : 			}
; 299  : 		}
; 300  : 	}
; 301  : 	
; 302  : 
; 303  : 	m_iMaxPage = max( 0, (int)m_ClassTypeList.size() - 1 ) / MAX_PAGE_LIST;

  000d3	8b 87 ac 01 00
	00		 mov	 eax, DWORD PTR [edi+428]
  000d9	2b 87 a8 01 00
	00		 sub	 eax, DWORD PTR [edi+424]
  000df	33 db		 xor	 ebx, ebx
  000e1	c1 f8 02	 sar	 eax, 2
  000e4	48		 dec	 eax
  000e5	3b c3		 cmp	 eax, ebx
  000e7	0f 4c c3	 cmovl	 eax, ebx
  000ea	6a 0f		 push	 15			; 0000000fH
  000ec	59		 pop	 ecx
  000ed	99		 cdq
  000ee	f7 f9		 idiv	 ecx

; 304  : 	UpdateSetPage( 0 );

  000f0	53		 push	 ebx
  000f1	8b cf		 mov	 ecx, edi
  000f3	89 87 a4 01 00
	00		 mov	 DWORD PTR [edi+420], eax
  000f9	e8 00 00 00 00	 call	 ?UpdateSetPage@ExPCRoomSoldierBonusWnd@@IAEXH@Z ; ExPCRoomSoldierBonusWnd::UpdateSetPage

; 305  : 
; 306  : 	RefreshCharWnd();

  000fe	8b cf		 mov	 ecx, edi
  00100	e8 00 00 00 00	 call	 ?RefreshCharWnd@ExPCRoomSoldierBonusWnd@@IAEXXZ ; ExPCRoomSoldierBonusWnd::RefreshCharWnd

; 307  : 	m_bFirstAutoSelect = false;

  00105	66 89 9f 98 01
	00 00		 mov	 WORD PTR [edi+408], bx

; 308  : 	m_bEraseBegin      = false;
; 309  : 
; 310  : 	if( m_ClassTypeList.empty() )

  0010c	8b 87 a8 01 00
	00		 mov	 eax, DWORD PTR [edi+424]
  00112	3b 87 ac 01 00
	00		 cmp	 eax, DWORD PTR [edi+428]
  00118	75 34		 jne	 SHORT $LN1@iwm_show

; 311  : 	{
; 312  : 		HideWnd();

  0011a	8b cf		 mov	 ecx, edi
  0011c	ff 15 00 00 00
	00		 call	 DWORD PTR __imp_?HideWnd@ioWnd@@QAEXXZ

; 313  : 		g_GUIMgr.SetMsgBox( MB_OK, NULL, STR(1) );

  00122	53		 push	 ebx
  00123	6a 01		 push	 1
  00125	68 00 00 00 00	 push	 OFFSET ??_C@_00CNPNBAHC@?$AA@
  0012a	68 00 00 00 00	 push	 OFFSET ??_C@_0CC@DPEGLDKN@ExPCRoomSoldierBonusWnd?3?3iwm_sho@
  0012f	ff 15 00 00 00
	00		 call	 DWORD PTR __imp_?GetSingleton@ioStringManager@@SAAAV1@XZ
  00135	8b c8		 mov	 ecx, eax
  00137	ff 15 00 00 00
	00		 call	 DWORD PTR __imp_?GetString@ioStringManager@@QAEPADPBD0HW4FileNamePrefix@1@@Z
  0013d	50		 push	 eax
  0013e	53		 push	 ebx
  0013f	53		 push	 ebx
  00140	e8 00 00 00 00	 call	 ?GetSingleton@ioSP2GUIManager@@SAAAV1@XZ ; ioSP2GUIManager::GetSingleton
  00145	50		 push	 eax
  00146	e8 00 00 00 00	 call	 ?SetMsgBox@ioSP2GUIManager@@QAAXHPAVioWnd@@PBDZZ ; ioSP2GUIManager::SetMsgBox
  0014b	83 c4 10	 add	 esp, 16			; 00000010H
$LN1@iwm_show:
  0014e	5f		 pop	 edi
  0014f	5e		 pop	 esi
  00150	5b		 pop	 ebx

; 314  : 	}
; 315  : }

  00151	c9		 leave
  00152	c3		 ret	 0
?iwm_show@ExPCRoomSoldierBonusWnd@@UAEXXZ ENDP		; ExPCRoomSoldierBonusWnd::iwm_show
; Function compile flags: /Ogsp
_TEXT	ENDS
;	COMDAT ??__FszNone@?1??GetPackageType@ExPCRoomSoldierBonusWnd@@IAE?AVioHashString@@H@Z@YAXXZ
text$yd	SEGMENT
??__FszNone@?1??GetPackageType@ExPCRoomSoldierBonusWnd@@IAE?AVioHashString@@H@Z@YAXXZ PROC ; `ExPCRoomSoldierBonusWnd::GetPackageType'::`2'::`dynamic atexit destructor for 'szNone'', COMDAT
  00000	b9 00 00 00 00	 mov	 ecx, OFFSET ?szNone@?1??GetPackageType@ExPCRoomSoldierBonusWnd@@IAE?AVioHashString@@H@Z@4V3@A
  00005	ff 25 00 00 00
	00		 jmp	 DWORD PTR __imp_??1ioHashString@@QAE@XZ
??__FszNone@?1??GetPackageType@ExPCRoomSoldierBonusWnd@@IAE?AVioHashString@@H@Z@YAXXZ ENDP ; `ExPCRoomSoldierBonusWnd::GetPackageType'::`2'::`dynamic atexit destructor for 'szNone''
; Function compile flags: /Ogsp
text$yd	ENDS
;	COMDAT ??__FszNone@?1??GetGradeType@ExPCRoomSoldierBonusWnd@@IAE?AVioHashString@@H@Z@YAXXZ
text$yd	SEGMENT
??__FszNone@?1??GetGradeType@ExPCRoomSoldierBonusWnd@@IAE?AVioHashString@@H@Z@YAXXZ PROC ; `ExPCRoomSoldierBonusWnd::GetGradeType'::`2'::`dynamic atexit destructor for 'szNone'', COMDAT
  00000	b9 00 00 00 00	 mov	 ecx, OFFSET ?szNone@?1??GetGradeType@ExPCRoomSoldierBonusWnd@@IAE?AVioHashString@@H@Z@4V3@A
  00005	ff 25 00 00 00
	00		 jmp	 DWORD PTR __imp_??1ioHashString@@QAE@XZ
??__FszNone@?1??GetGradeType@ExPCRoomSoldierBonusWnd@@IAE?AVioHashString@@H@Z@YAXXZ ENDP ; `ExPCRoomSoldierBonusWnd::GetGradeType'::`2'::`dynamic atexit destructor for 'szNone''
text$yd	ENDS
END
