; Listing generated by Microsoft (R) Optimizing Compiler Version 16.00.30319.01 

	TITLE	D:\Lost Saga For Developer\Youtube\Tutorial\Source\src\LSClient\GUI\FileListWnd.cpp
	.686P
	.XMM
	include listing.inc
	.model	flat

INCLUDELIB MSVCRT
INCLUDELIB OLDNAMES

PUBLIC	?return5@@YAIXZ					; return5
; Function compile flags: /Ogsp
; File d:\lost saga for developer\youtube\tutorial\source\src\lsclient\stdafx.h
;	COMDAT ?return5@@YAIXZ
_TEXT	SEGMENT
?return5@@YAIXZ PROC					; return5, COMDAT

; 18   : 	__forceinline unsigned int return5() { __asm mov eax, 5 };

  00000	b8 05 00 00 00	 mov	 eax, 5
  00005	c3		 ret	 0
?return5@@YAIXZ ENDP					; return5
_TEXT	ENDS
PUBLIC	??0FileDriveItem@@QAE@XZ			; FileDriveItem::FileDriveItem
EXTRN	__imp_??0ioHashString@@QAE@XZ:PROC
; Function compile flags: /Ogsp
; File d:\lost saga for developer\youtube\tutorial\source\src\lsclient\gui\filelistwnd.h
;	COMDAT ??0FileDriveItem@@QAE@XZ
_TEXT	SEGMENT
??0FileDriveItem@@QAE@XZ PROC				; FileDriveItem::FileDriveItem, COMDAT
; _this$ = ecx

; 10   : 	FileDriveItem()

  00000	56		 push	 esi
  00001	8b f1		 mov	 esi, ecx
  00003	ff 15 00 00 00
	00		 call	 DWORD PTR __imp_??0ioHashString@@QAE@XZ

; 11   : 	{
; 12   : 		m_iMagicCode = 0;

  00009	83 66 10 00	 and	 DWORD PTR [esi+16], 0

; 13   : 	}

  0000d	8b c6		 mov	 eax, esi
  0000f	5e		 pop	 esi
  00010	c3		 ret	 0
??0FileDriveItem@@QAE@XZ ENDP				; FileDriveItem::FileDriveItem
_TEXT	ENDS
PUBLIC	?return10@@YAIXZ				; return10
; Function compile flags: /Ogsp
; File d:\lost saga for developer\youtube\tutorial\source\src\lsclient\stdafx.h
;	COMDAT ?return10@@YAIXZ
_TEXT	SEGMENT
?return10@@YAIXZ PROC					; return10, COMDAT

; 21   : 	__forceinline unsigned int return10() { __asm mov eax, 10 };

  00000	b8 0a 00 00 00	 mov	 eax, 10			; 0000000aH
  00005	c3		 ret	 0
?return10@@YAIXZ ENDP					; return10
_TEXT	ENDS
PUBLIC	?IsFolder@FileListItem@@QBE_NXZ			; FileListItem::IsFolder
; Function compile flags: /Ogsp
; File d:\lost saga for developer\youtube\tutorial\source\src\lsclient\gui\filelistwnd.h
;	COMDAT ?IsFolder@FileListItem@@QBE_NXZ
_TEXT	SEGMENT
?IsFolder@FileListItem@@QBE_NXZ PROC			; FileListItem::IsFolder, COMDAT
; _this$ = ecx

; 41   : 	bool IsFolder() const { return m_bFolder; }

  00000	8a 81 60 01 00
	00		 mov	 al, BYTE PTR [ecx+352]
  00006	c3		 ret	 0
?IsFolder@FileListItem@@QBE_NXZ ENDP			; FileListItem::IsFolder
_TEXT	ENDS
PUBLIC	?GetOverDriveItem@FileDriveListWnd@@QAEAAUFileDriveItem@@XZ ; FileDriveListWnd::GetOverDriveItem
; Function compile flags: /Ogsp
;	COMDAT ?GetOverDriveItem@FileDriveListWnd@@QAEAAUFileDriveItem@@XZ
_TEXT	SEGMENT
?GetOverDriveItem@FileDriveListWnd@@QAEAAUFileDriveItem@@XZ PROC ; FileDriveListWnd::GetOverDriveItem, COMDAT
; _this$ = ecx

; 99   : 	FileDriveItem &GetOverDriveItem(){ return m_OverDriveItem; }

  00000	8d 81 9c 01 00
	00		 lea	 eax, DWORD PTR [ecx+412]
  00006	c3		 ret	 0
?GetOverDriveItem@FileDriveListWnd@@QAEAAUFileDriveItem@@XZ ENDP ; FileDriveListWnd::GetOverDriveItem
_TEXT	ENDS
PUBLIC	??0FileInfo@FileListWnd@@QAE@XZ			; FileListWnd::FileInfo::FileInfo
; Function compile flags: /Ogsp
;	COMDAT ??0FileInfo@FileListWnd@@QAE@XZ
_TEXT	SEGMENT
??0FileInfo@FileListWnd@@QAE@XZ PROC			; FileListWnd::FileInfo::FileInfo, COMDAT
; _this$ = ecx

; 164  : 		FileInfo()

  00000	56		 push	 esi
  00001	8b f1		 mov	 esi, ecx
  00003	ff 15 00 00 00
	00		 call	 DWORD PTR __imp_??0ioHashString@@QAE@XZ

; 165  : 		{
; 166  : 			m_bFolder = false;

  00009	c6 46 10 00	 mov	 BYTE PTR [esi+16], 0

; 167  : 		}

  0000d	8b c6		 mov	 eax, esi
  0000f	5e		 pop	 esi
  00010	c3		 ret	 0
??0FileInfo@FileListWnd@@QAE@XZ ENDP			; FileListWnd::FileInfo::FileInfo
_TEXT	ENDS
PUBLIC	??RFileListInfoSort@@QBE_NABUFileInfo@FileListWnd@@0@Z ; FileListInfoSort::operator()
EXTRN	__imp__stricmp:PROC
EXTRN	__imp_?c_str@ioHashString@@QBEPBDXZ:PROC
; Function compile flags: /Ogsp
;	COMDAT ??RFileListInfoSort@@QBE_NABUFileInfo@FileListWnd@@0@Z
_TEXT	SEGMENT
_lhs$ = 8						; size = 4
_rhs$ = 12						; size = 4
??RFileListInfoSort@@QBE_NABUFileInfo@FileListWnd@@0@Z PROC ; FileListInfoSort::operator(), COMDAT
; _this$ = ecx

; 227  : 	{

  00000	55		 push	 ebp
  00001	8b ec		 mov	 ebp, esp

; 228  : 		if( lhs.m_bFolder && !rhs.m_bFolder )

  00003	8b 4d 0c	 mov	 ecx, DWORD PTR _rhs$[ebp]
  00006	56		 push	 esi
  00007	8b 75 08	 mov	 esi, DWORD PTR _lhs$[ebp]
  0000a	8a 46 10	 mov	 al, BYTE PTR [esi+16]
  0000d	84 c0		 test	 al, al
  0000f	74 0a		 je	 SHORT $LN4@operator
  00011	80 79 10 00	 cmp	 BYTE PTR [ecx+16], 0
  00015	75 04		 jne	 SHORT $LN4@operator
$LN7@operator:

; 229  : 			return true;

  00017	b0 01		 mov	 al, 1
  00019	eb 23		 jmp	 SHORT $LN5@operator
$LN4@operator:

; 230  :         else if( lhs.m_bFolder == rhs.m_bFolder )

  0001b	3a 41 10	 cmp	 al, BYTE PTR [ecx+16]
  0001e	75 1c		 jne	 SHORT $LN1@operator

; 231  : 		{
; 232  : 			int iCmpValue = stricmp( lhs.m_szFileName.c_str(), rhs.m_szFileName.c_str() );     

  00020	ff 15 00 00 00
	00		 call	 DWORD PTR __imp_?c_str@ioHashString@@QBEPBDXZ
  00026	50		 push	 eax
  00027	8b ce		 mov	 ecx, esi
  00029	ff 15 00 00 00
	00		 call	 DWORD PTR __imp_?c_str@ioHashString@@QBEPBDXZ
  0002f	50		 push	 eax
  00030	ff 15 00 00 00
	00		 call	 DWORD PTR __imp__stricmp
  00036	59		 pop	 ecx
  00037	59		 pop	 ecx

; 233  : 			if( iCmpValue < 0 )

  00038	85 c0		 test	 eax, eax

; 234  : 				return true;

  0003a	78 db		 js	 SHORT $LN7@operator
$LN1@operator:

; 235  : 		}
; 236  : 		return false;

  0003c	32 c0		 xor	 al, al
$LN5@operator:
  0003e	5e		 pop	 esi

; 237  : 	}

  0003f	5d		 pop	 ebp
  00040	c2 08 00	 ret	 8
??RFileListInfoSort@@QBE_NABUFileInfo@FileListWnd@@0@Z ENDP ; FileListInfoSort::operator()
_TEXT	ENDS
PUBLIC	??_7FileBtn@@6B@				; FileBtn::`vftable'
PUBLIC	??0FileBtn@@QAE@XZ				; FileBtn::FileBtn
PUBLIC	??_R4FileBtn@@6B@				; FileBtn::`RTTI Complete Object Locator'
PUBLIC	??_R0?AVFileBtn@@@8				; FileBtn `RTTI Type Descriptor'
PUBLIC	??_R3FileBtn@@8					; FileBtn::`RTTI Class Hierarchy Descriptor'
PUBLIC	??_R2FileBtn@@8					; FileBtn::`RTTI Base Class Array'
PUBLIC	??_R1A@?0A@EA@FileBtn@@8			; FileBtn::`RTTI Base Class Descriptor at (0,-1,0,64)'
PUBLIC	??_R1A@?0A@EA@ioButton@@8			; ioButton::`RTTI Base Class Descriptor at (0,-1,0,64)'
PUBLIC	??_R0?AVioButton@@@8				; ioButton `RTTI Type Descriptor'
PUBLIC	??_R3ioButton@@8				; ioButton::`RTTI Class Hierarchy Descriptor'
PUBLIC	??_R2ioButton@@8				; ioButton::`RTTI Base Class Array'
PUBLIC	??_R1A@?0A@EA@ioWnd@@8				; ioWnd::`RTTI Base Class Descriptor at (0,-1,0,64)'
PUBLIC	??_R0?AVioWnd@@@8				; ioWnd `RTTI Type Descriptor'
PUBLIC	??_R3ioWnd@@8					; ioWnd::`RTTI Class Hierarchy Descriptor'
PUBLIC	??_R2ioWnd@@8					; ioWnd::`RTTI Base Class Array'
PUBLIC	?iwm_create@FileBtn@@UAEXXZ			; FileBtn::iwm_create
EXTRN	__imp_??0ioButton@@QAE@XZ:PROC
EXTRN	??_7type_info@@6B@:QWORD			; type_info::`vftable'
EXTRN	?AddRenderFrame@ioButton@@UAEXABVioHashString@@PAVioUIRenderFrame@@@Z:PROC ; ioButton::AddRenderFrame
EXTRN	?AddRenderImage@ioButton@@UAEXABVioHashString@@PAVioUIRenderImage@@@Z:PROC ; ioButton::AddRenderImage
EXTRN	?AddTooltipHelp@ioWnd@@UAEXABVioHashString@@00@Z:PROC ; ioWnd::AddTooltipHelp
EXTRN	?ParseExtraInfo@ioButton@@UAEXAAVioXMLElement@@@Z:PROC ; ioButton::ParseExtraInfo
EXTRN	?AddNamedRenderImage@ioWnd@@UAEXABVioHashString@@PAVioUIRenderImage@@@Z:PROC ; ioWnd::AddNamedRenderImage
EXTRN	?RemoveNamedRenderImage@ioWnd@@UAEXABVioHashString@@@Z:PROC ; ioWnd::RemoveNamedRenderImage
EXTRN	?GetNamedRenderImage@ioWnd@@UBEPAVioUIRenderImage@@ABVioHashString@@@Z:PROC ; ioWnd::GetNamedRenderImage
EXTRN	?SetWindowAlpha@ioButton@@UAEXH@Z:PROC		; ioButton::SetWindowAlpha
EXTRN	?SetActive@ioWnd@@UAEXXZ:PROC			; ioWnd::SetActive
EXTRN	?SetInActive@ioWnd@@UAEXXZ:PROC			; ioWnd::SetInActive
EXTRN	?ClearElementImageList@ioWnd@@UAEXXZ:PROC	; ioWnd::ClearElementImageList
EXTRN	?SetSize@ioWnd@@UAEXHH@Z:PROC			; ioWnd::SetSize
EXTRN	?SetPositionToDefault@ioWnd@@UAEXHH_N0@Z:PROC	; ioWnd::SetPositionToDefault
EXTRN	?IsNeedProcess@ioWnd@@UBE_NXZ:PROC		; ioWnd::IsNeedProcess
EXTRN	?IsCanMouseReaction@ioWnd@@UBE_NXZ:PROC		; ioWnd::IsCanMouseReaction
EXTRN	?AddChild@ioWnd@@UAEXPAV1@@Z:PROC		; ioWnd::AddChild
EXTRN	?DeleteChild@ioWnd@@UAEXK@Z:PROC		; ioWnd::DeleteChild
EXTRN	?DeleteAllChild@ioWnd@@UAEXXZ:PROC		; ioWnd::DeleteAllChild
EXTRN	?OnRenderShowAndHide@ioWnd@@MAE_NXZ:PROC	; ioWnd::OnRenderShowAndHide
EXTRN	?OnRenderShowAndHideByDefault@ioWnd@@MAE_NK@Z:PROC ; ioWnd::OnRenderShowAndHideByDefault
EXTRN	?OnRenderShowAndHideByTop@ioWnd@@MAE_NK@Z:PROC	; ioWnd::OnRenderShowAndHideByTop
EXTRN	?OnRenderShowAndHideByDown@ioWnd@@MAE_NK@Z:PROC	; ioWnd::OnRenderShowAndHideByDown
EXTRN	?OnRender@ioButton@@MAEXXZ:PROC			; ioButton::OnRender
EXTRN	?OnRenderAfterChild@ioWnd@@MAEXXZ:PROC		; ioWnd::OnRenderAfterChild
EXTRN	?OnProcess@ioWnd@@MAEXM@Z:PROC			; ioWnd::OnProcess
EXTRN	?OnMouseProcess@ioWnd@@MAEXABVioMouse@@@Z:PROC	; ioWnd::OnMouseProcess
EXTRN	?CheckFrameReSize@ioButton@@MAEXHHHH@Z:PROC	; ioButton::CheckFrameReSize
EXTRN	?RenderImageList@ioWnd@@MAEXHHW4UIRenderType@@@Z:PROC ; ioWnd::RenderImageList
EXTRN	?iwm_destroy@ioWnd@@UAEXXZ:PROC			; ioWnd::iwm_destroy
EXTRN	?iwm_lbuttondown@ioButton@@UAEXABVioMouse@@@Z:PROC ; ioButton::iwm_lbuttondown
EXTRN	?iwm_lbuttonup@ioButton@@UAEXABVioMouse@@@Z:PROC ; ioButton::iwm_lbuttonup
EXTRN	?iwm_lbuttonDBLCLK@ioButton@@UAEXABVioMouse@@@Z:PROC ; ioButton::iwm_lbuttonDBLCLK
EXTRN	?iwm_rbuttondown@ioButton@@UAEXABVioMouse@@@Z:PROC ; ioButton::iwm_rbuttondown
EXTRN	?iwm_rbuttonup@ioButton@@UAEXABVioMouse@@@Z:PROC ; ioButton::iwm_rbuttonup
EXTRN	?iwm_command@ioWnd@@UAEXPAV1@HK@Z:PROC		; ioWnd::iwm_command
EXTRN	?iwm_mouseover@ioButton@@UAEXABVioMouse@@@Z:PROC ; ioButton::iwm_mouseover
EXTRN	?iwm_mousemove@ioWnd@@UAEXABVioMouse@@@Z:PROC	; ioWnd::iwm_mousemove
EXTRN	?iwm_mouseleave@ioWnd@@UAEXABVioMouse@@@Z:PROC	; ioWnd::iwm_mouseleave
EXTRN	?iwm_vscroll@ioWnd@@UAEXKH@Z:PROC		; ioWnd::iwm_vscroll
EXTRN	?iwm_wheel@ioWnd@@UAEXH@Z:PROC			; ioWnd::iwm_wheel
EXTRN	?iwm_show@ioWnd@@UAEXXZ:PROC			; ioWnd::iwm_show
EXTRN	?iwm_hide@ioWnd@@UAEXXZ:PROC			; ioWnd::iwm_hide
EXTRN	?iwm_esc@ioWnd@@UAE_NXZ:PROC			; ioWnd::iwm_esc
EXTRN	?iwm_spacebar@ioWnd@@UAE_NXZ:PROC		; ioWnd::iwm_spacebar
EXTRN	?iwm_gototop@ioWnd@@UAEXXZ:PROC			; ioWnd::iwm_gototop
EXTRN	?iwm_dragenter@ioWnd@@UAE?AW4IWDropEffect@@PAVioDragItem@@ABVioMouse@@@Z:PROC ; ioWnd::iwm_dragenter
EXTRN	?iwm_dragover@ioWnd@@UAE?AW4IWDropEffect@@PAVioDragItem@@ABVioMouse@@@Z:PROC ; ioWnd::iwm_dragover
EXTRN	?iwm_dragleave@ioWnd@@UAEXXZ:PROC		; ioWnd::iwm_dragleave
EXTRN	?iwm_dropitem@ioWnd@@UAE_NPAVioDragItem@@ABVioMouse@@PAV1@@Z:PROC ; ioWnd::iwm_dropitem
EXTRN	?iwm_dropdone@ioWnd@@UAEXPAVioDragItem@@PAV1@_N@Z:PROC ; ioWnd::iwm_dropdone
EXTRN	?IsEXType@ioWnd@@UBE_NXZ:PROC			; ioWnd::IsEXType
EXTRN	?GetWndType@ioButton@@UBEKXZ:PROC		; ioButton::GetWndType
EXTRN	?RenderWnd@ioWnd@@UAEXXZ:PROC			; ioWnd::RenderWnd
EXTRN	?SetIDEX@ioWnd@@UAEXAAK_N@Z:PROC		; ioWnd::SetIDEX
EXTRN	?ParseXML@ioWnd@@UAEXAAVioXMLElement@@@Z:PROC	; ioWnd::ParseXML
EXTRN	?GetHeaderFileName@ioButton@@UAEPBDXZ:PROC	; ioButton::GetHeaderFileName
EXTRN	?GetTemplateName@ioButton@@UAEPBDXZ:PROC	; ioButton::GetTemplateName
EXTRN	?GetDefClassName@ioButton@@UBEPBDXZ:PROC	; ioButton::GetDefClassName
EXTRN	?_Clone@ioButton@@UAEPAVioWnd@@XZ:PROC		; ioButton::_Clone
EXTRN	?Copy@ioButton@@UAEXPAVioWnd@@@Z:PROC		; ioButton::Copy
EXTRN	?Save@ioWnd@@UAE_NAAVioXMLElement@@@Z:PROC	; ioWnd::Save
EXTRN	?SetSaveData@ioButton@@UAEXAAVioXMLElement@@@Z:PROC ; ioButton::SetSaveData
EXTRN	?SetPosX@ioWnd@@UAEXH@Z:PROC			; ioWnd::SetPosX
EXTRN	?SetPosY@ioWnd@@UAEXH@Z:PROC			; ioWnd::SetPosY
EXTRN	?SetWidth@ioWnd@@UAEXH@Z:PROC			; ioWnd::SetWidth
EXTRN	?SetHeight@ioWnd@@UAEXH@Z:PROC			; ioWnd::SetHeight
EXTRN	?GetNumFixedRenderFrame@ioButton@@UBEHXZ:PROC	; ioButton::GetNumFixedRenderFrame
EXTRN	?GetFixedRenderFrameType@ioButton@@UAEPBDH@Z:PROC ; ioButton::GetFixedRenderFrameType
EXTRN	?GetRenderFrame@ioButton@@UAEPAPAVioUIRenderElement@@PBD@Z:PROC ; ioButton::GetRenderFrame
EXTRN	?GetNumFixedRenderImage@ioButton@@UBEHXZ:PROC	; ioButton::GetNumFixedRenderImage
EXTRN	?GetFixedRenderImageType@ioButton@@UAEPBDH@Z:PROC ; ioButton::GetFixedRenderImageType
EXTRN	?GetRenderImage@ioButton@@UAEPAPAVioUIRenderElement@@PBD@Z:PROC ; ioButton::GetRenderImage
EXTRN	?AddEffect@ioWnd@@UAEXABVioHashString@@PAVioUI3DEffectRender@@@Z:PROC ; ioWnd::AddEffect
EXTRN	?GetEffect@ioWnd@@UAEPAVioUI3DEffectRender@@VioHashString@@@Z:PROC ; ioWnd::GetEffect
EXTRN	??_EFileBtn@@UAEPAXI@Z:PROC			; FileBtn::`vector deleting destructor'
EXTRN	?OnDrawNormal@ioButton@@MAEXHH@Z:PROC		; ioButton::OnDrawNormal
EXTRN	?OnDrawOvered@ioButton@@MAEXHH@Z:PROC		; ioButton::OnDrawOvered
EXTRN	?OnDrawOveredAdd@ioButton@@MAEXHH@Z:PROC	; ioButton::OnDrawOveredAdd
EXTRN	?OnDrawPushed@ioButton@@MAEXHH@Z:PROC		; ioButton::OnDrawPushed
EXTRN	?OnDrawDisabled@ioButton@@MAEXHH@Z:PROC		; ioButton::OnDrawDisabled
EXTRN	?OnDrawExDisabledNormal@ioButton@@MAEXHH@Z:PROC	; ioButton::OnDrawExDisabledNormal
EXTRN	?OnDrawExDisabledOvered@ioButton@@MAEXHH@Z:PROC	; ioButton::OnDrawExDisabledOvered
EXTRN	?OnDrawExDisabledPushed@ioButton@@MAEXHH@Z:PROC	; ioButton::OnDrawExDisabledPushed
EXTRN	?OnDrawBack@ioButton@@MAEXHH@Z:PROC		; ioButton::OnDrawBack
EXTRN	?OnDrawNormalList@ioButton@@MAEXHH@Z:PROC	; ioButton::OnDrawNormalList
EXTRN	?OnDrawDisableList@ioButton@@MAEXHH@Z:PROC	; ioButton::OnDrawDisableList
;	COMDAT ??_R2ioWnd@@8
; File d:\lost saga for developer\youtube\tutorial\source\src\lsclient\gui\filelistwnd.cpp
rdata$r	SEGMENT
??_R2ioWnd@@8 DD FLAT:??_R1A@?0A@EA@ioWnd@@8		; ioWnd::`RTTI Base Class Array'
rdata$r	ENDS
;	COMDAT ??_R3ioWnd@@8
rdata$r	SEGMENT
??_R3ioWnd@@8 DD 00H					; ioWnd::`RTTI Class Hierarchy Descriptor'
	DD	00H
	DD	01H
	DD	FLAT:??_R2ioWnd@@8
rdata$r	ENDS
;	COMDAT ??_R0?AVioWnd@@@8
_DATA	SEGMENT
??_R0?AVioWnd@@@8 DD FLAT:??_7type_info@@6B@		; ioWnd `RTTI Type Descriptor'
	DD	00H
	DB	'.?AVioWnd@@', 00H
_DATA	ENDS
;	COMDAT ??_R1A@?0A@EA@ioWnd@@8
rdata$r	SEGMENT
??_R1A@?0A@EA@ioWnd@@8 DD FLAT:??_R0?AVioWnd@@@8	; ioWnd::`RTTI Base Class Descriptor at (0,-1,0,64)'
	DD	00H
	DD	00H
	DD	0ffffffffH
	DD	00H
	DD	040H
	DD	FLAT:??_R3ioWnd@@8
rdata$r	ENDS
;	COMDAT ??_R2ioButton@@8
rdata$r	SEGMENT
??_R2ioButton@@8 DD FLAT:??_R1A@?0A@EA@ioButton@@8	; ioButton::`RTTI Base Class Array'
	DD	FLAT:??_R1A@?0A@EA@ioWnd@@8
rdata$r	ENDS
;	COMDAT ??_R3ioButton@@8
rdata$r	SEGMENT
??_R3ioButton@@8 DD 00H					; ioButton::`RTTI Class Hierarchy Descriptor'
	DD	00H
	DD	02H
	DD	FLAT:??_R2ioButton@@8
rdata$r	ENDS
;	COMDAT ??_R0?AVioButton@@@8
_DATA	SEGMENT
??_R0?AVioButton@@@8 DD FLAT:??_7type_info@@6B@		; ioButton `RTTI Type Descriptor'
	DD	00H
	DB	'.?AVioButton@@', 00H
_DATA	ENDS
;	COMDAT ??_R1A@?0A@EA@ioButton@@8
rdata$r	SEGMENT
??_R1A@?0A@EA@ioButton@@8 DD FLAT:??_R0?AVioButton@@@8	; ioButton::`RTTI Base Class Descriptor at (0,-1,0,64)'
	DD	01H
	DD	00H
	DD	0ffffffffH
	DD	00H
	DD	040H
	DD	FLAT:??_R3ioButton@@8
rdata$r	ENDS
;	COMDAT ??_R1A@?0A@EA@FileBtn@@8
rdata$r	SEGMENT
??_R1A@?0A@EA@FileBtn@@8 DD FLAT:??_R0?AVFileBtn@@@8	; FileBtn::`RTTI Base Class Descriptor at (0,-1,0,64)'
	DD	02H
	DD	00H
	DD	0ffffffffH
	DD	00H
	DD	040H
	DD	FLAT:??_R3FileBtn@@8
rdata$r	ENDS
;	COMDAT ??_R2FileBtn@@8
rdata$r	SEGMENT
??_R2FileBtn@@8 DD FLAT:??_R1A@?0A@EA@FileBtn@@8	; FileBtn::`RTTI Base Class Array'
	DD	FLAT:??_R1A@?0A@EA@ioButton@@8
	DD	FLAT:??_R1A@?0A@EA@ioWnd@@8
rdata$r	ENDS
;	COMDAT ??_R3FileBtn@@8
rdata$r	SEGMENT
??_R3FileBtn@@8 DD 00H					; FileBtn::`RTTI Class Hierarchy Descriptor'
	DD	00H
	DD	03H
	DD	FLAT:??_R2FileBtn@@8
rdata$r	ENDS
;	COMDAT ??_R0?AVFileBtn@@@8
_DATA	SEGMENT
??_R0?AVFileBtn@@@8 DD FLAT:??_7type_info@@6B@		; FileBtn `RTTI Type Descriptor'
	DD	00H
	DB	'.?AVFileBtn@@', 00H
_DATA	ENDS
;	COMDAT ??_R4FileBtn@@6B@
rdata$r	SEGMENT
??_R4FileBtn@@6B@ DD 00H				; FileBtn::`RTTI Complete Object Locator'
	DD	00H
	DD	00H
	DD	FLAT:??_R0?AVFileBtn@@@8
	DD	FLAT:??_R3FileBtn@@8
rdata$r	ENDS
;	COMDAT ??_7FileBtn@@6B@
CONST	SEGMENT
??_7FileBtn@@6B@ DD FLAT:??_R4FileBtn@@6B@		; FileBtn::`vftable'
	DD	FLAT:?AddRenderFrame@ioButton@@UAEXABVioHashString@@PAVioUIRenderFrame@@@Z
	DD	FLAT:?AddRenderImage@ioButton@@UAEXABVioHashString@@PAVioUIRenderImage@@@Z
	DD	FLAT:?AddTooltipHelp@ioWnd@@UAEXABVioHashString@@00@Z
	DD	FLAT:?ParseExtraInfo@ioButton@@UAEXAAVioXMLElement@@@Z
	DD	FLAT:?AddNamedRenderImage@ioWnd@@UAEXABVioHashString@@PAVioUIRenderImage@@@Z
	DD	FLAT:?RemoveNamedRenderImage@ioWnd@@UAEXABVioHashString@@@Z
	DD	FLAT:?GetNamedRenderImage@ioWnd@@UBEPAVioUIRenderImage@@ABVioHashString@@@Z
	DD	FLAT:?SetWindowAlpha@ioButton@@UAEXH@Z
	DD	FLAT:?SetActive@ioWnd@@UAEXXZ
	DD	FLAT:?SetInActive@ioWnd@@UAEXXZ
	DD	FLAT:?ClearElementImageList@ioWnd@@UAEXXZ
	DD	FLAT:?SetSize@ioWnd@@UAEXHH@Z
	DD	FLAT:?SetPositionToDefault@ioWnd@@UAEXHH_N0@Z
	DD	FLAT:?IsNeedProcess@ioWnd@@UBE_NXZ
	DD	FLAT:?IsCanMouseReaction@ioWnd@@UBE_NXZ
	DD	FLAT:?AddChild@ioWnd@@UAEXPAV1@@Z
	DD	FLAT:?DeleteChild@ioWnd@@UAEXK@Z
	DD	FLAT:?DeleteAllChild@ioWnd@@UAEXXZ
	DD	FLAT:?OnRenderShowAndHide@ioWnd@@MAE_NXZ
	DD	FLAT:?OnRenderShowAndHideByDefault@ioWnd@@MAE_NK@Z
	DD	FLAT:?OnRenderShowAndHideByTop@ioWnd@@MAE_NK@Z
	DD	FLAT:?OnRenderShowAndHideByDown@ioWnd@@MAE_NK@Z
	DD	FLAT:?OnRender@ioButton@@MAEXXZ
	DD	FLAT:?OnRenderAfterChild@ioWnd@@MAEXXZ
	DD	FLAT:?OnProcess@ioWnd@@MAEXM@Z
	DD	FLAT:?OnMouseProcess@ioWnd@@MAEXABVioMouse@@@Z
	DD	FLAT:?CheckFrameReSize@ioButton@@MAEXHHHH@Z
	DD	FLAT:?RenderImageList@ioWnd@@MAEXHHW4UIRenderType@@@Z
	DD	FLAT:?iwm_create@FileBtn@@UAEXXZ
	DD	FLAT:?iwm_destroy@ioWnd@@UAEXXZ
	DD	FLAT:?iwm_lbuttondown@ioButton@@UAEXABVioMouse@@@Z
	DD	FLAT:?iwm_lbuttonup@ioButton@@UAEXABVioMouse@@@Z
	DD	FLAT:?iwm_lbuttonDBLCLK@ioButton@@UAEXABVioMouse@@@Z
	DD	FLAT:?iwm_rbuttondown@ioButton@@UAEXABVioMouse@@@Z
	DD	FLAT:?iwm_rbuttonup@ioButton@@UAEXABVioMouse@@@Z
	DD	FLAT:?iwm_command@ioWnd@@UAEXPAV1@HK@Z
	DD	FLAT:?iwm_mouseover@ioButton@@UAEXABVioMouse@@@Z
	DD	FLAT:?iwm_mousemove@ioWnd@@UAEXABVioMouse@@@Z
	DD	FLAT:?iwm_mouseleave@ioWnd@@UAEXABVioMouse@@@Z
	DD	FLAT:?iwm_vscroll@ioWnd@@UAEXKH@Z
	DD	FLAT:?iwm_wheel@ioWnd@@UAEXH@Z
	DD	FLAT:?iwm_show@ioWnd@@UAEXXZ
	DD	FLAT:?iwm_hide@ioWnd@@UAEXXZ
	DD	FLAT:?iwm_esc@ioWnd@@UAE_NXZ
	DD	FLAT:?iwm_spacebar@ioWnd@@UAE_NXZ
	DD	FLAT:?iwm_gototop@ioWnd@@UAEXXZ
	DD	FLAT:?iwm_dragenter@ioWnd@@UAE?AW4IWDropEffect@@PAVioDragItem@@ABVioMouse@@@Z
	DD	FLAT:?iwm_dragover@ioWnd@@UAE?AW4IWDropEffect@@PAVioDragItem@@ABVioMouse@@@Z
	DD	FLAT:?iwm_dragleave@ioWnd@@UAEXXZ
	DD	FLAT:?iwm_dropitem@ioWnd@@UAE_NPAVioDragItem@@ABVioMouse@@PAV1@@Z
	DD	FLAT:?iwm_dropdone@ioWnd@@UAEXPAVioDragItem@@PAV1@_N@Z
	DD	FLAT:?IsEXType@ioWnd@@UBE_NXZ
	DD	FLAT:?GetWndType@ioButton@@UBEKXZ
	DD	FLAT:?RenderWnd@ioWnd@@UAEXXZ
	DD	FLAT:?SetIDEX@ioWnd@@UAEXAAK_N@Z
	DD	FLAT:?ParseXML@ioWnd@@UAEXAAVioXMLElement@@@Z
	DD	FLAT:?GetHeaderFileName@ioButton@@UAEPBDXZ
	DD	FLAT:?GetTemplateName@ioButton@@UAEPBDXZ
	DD	FLAT:?GetDefClassName@ioButton@@UBEPBDXZ
	DD	FLAT:?_Clone@ioButton@@UAEPAVioWnd@@XZ
	DD	FLAT:?Copy@ioButton@@UAEXPAVioWnd@@@Z
	DD	FLAT:?Save@ioWnd@@UAE_NAAVioXMLElement@@@Z
	DD	FLAT:?SetSaveData@ioButton@@UAEXAAVioXMLElement@@@Z
	DD	FLAT:?SetPosX@ioWnd@@UAEXH@Z
	DD	FLAT:?SetPosY@ioWnd@@UAEXH@Z
	DD	FLAT:?SetWidth@ioWnd@@UAEXH@Z
	DD	FLAT:?SetHeight@ioWnd@@UAEXH@Z
	DD	FLAT:?GetNumFixedRenderFrame@ioButton@@UBEHXZ
	DD	FLAT:?GetFixedRenderFrameType@ioButton@@UAEPBDH@Z
	DD	FLAT:?GetRenderFrame@ioButton@@UAEPAPAVioUIRenderElement@@PBD@Z
	DD	FLAT:?GetNumFixedRenderImage@ioButton@@UBEHXZ
	DD	FLAT:?GetFixedRenderImageType@ioButton@@UAEPBDH@Z
	DD	FLAT:?GetRenderImage@ioButton@@UAEPAPAVioUIRenderElement@@PBD@Z
	DD	FLAT:?AddEffect@ioWnd@@UAEXABVioHashString@@PAVioUI3DEffectRender@@@Z
	DD	FLAT:?GetEffect@ioWnd@@UAEPAVioUI3DEffectRender@@VioHashString@@@Z
	DD	FLAT:??_EFileBtn@@UAEPAXI@Z
	DD	FLAT:?OnDrawNormal@ioButton@@MAEXHH@Z
	DD	FLAT:?OnDrawOvered@ioButton@@MAEXHH@Z
	DD	FLAT:?OnDrawOveredAdd@ioButton@@MAEXHH@Z
	DD	FLAT:?OnDrawPushed@ioButton@@MAEXHH@Z
	DD	FLAT:?OnDrawDisabled@ioButton@@MAEXHH@Z
	DD	FLAT:?OnDrawExDisabledNormal@ioButton@@MAEXHH@Z
	DD	FLAT:?OnDrawExDisabledOvered@ioButton@@MAEXHH@Z
	DD	FLAT:?OnDrawExDisabledPushed@ioButton@@MAEXHH@Z
	DD	FLAT:?OnDrawBack@ioButton@@MAEXHH@Z
	DD	FLAT:?OnDrawNormalList@ioButton@@MAEXHH@Z
	DD	FLAT:?OnDrawDisableList@ioButton@@MAEXHH@Z
; Function compile flags: /Ogsp
CONST	ENDS
;	COMDAT ??0FileBtn@@QAE@XZ
_TEXT	SEGMENT
??0FileBtn@@QAE@XZ PROC					; FileBtn::FileBtn, COMDAT
; _this$ = ecx

; 34   : {

  00000	56		 push	 esi
  00001	8b f1		 mov	 esi, ecx
  00003	ff 15 00 00 00
	00		 call	 DWORD PTR __imp_??0ioButton@@QAE@XZ
  00009	c7 06 00 00 00
	00		 mov	 DWORD PTR [esi], OFFSET ??_7FileBtn@@6B@

; 35   : }

  0000f	8b c6		 mov	 eax, esi
  00011	5e		 pop	 esi
  00012	c3		 ret	 0
??0FileBtn@@QAE@XZ ENDP					; FileBtn::FileBtn
_TEXT	ENDS
PUBLIC	??1FileBtn@@UAE@XZ				; FileBtn::~FileBtn
EXTRN	__imp_??1ioButton@@UAE@XZ:PROC
; Function compile flags: /Ogsp
;	COMDAT ??1FileBtn@@UAE@XZ
_TEXT	SEGMENT
??1FileBtn@@UAE@XZ PROC					; FileBtn::~FileBtn, COMDAT
; _this$ = ecx

; 38   : {

  00000	c7 01 00 00 00
	00		 mov	 DWORD PTR [ecx], OFFSET ??_7FileBtn@@6B@

; 39   : }

  00006	ff 25 00 00 00
	00		 jmp	 DWORD PTR __imp_??1ioButton@@UAE@XZ
??1FileBtn@@UAE@XZ ENDP					; FileBtn::~FileBtn
_TEXT	ENDS
PUBLIC	__real@43900000
EXTRN	__imp_?SetPrintTextStyle@ioUITitle@@QAEXW4PrintTextStyle@1@@Z:PROC
EXTRN	__imp_?SetWidthCutSize@ioUITitle@@QAEXM@Z:PROC
EXTRN	__fltused:DWORD
;	COMDAT __real@43900000
CONST	SEGMENT
__real@43900000 DD 043900000r			; 288
; Function compile flags: /Ogsp
CONST	ENDS
;	COMDAT ?iwm_create@FileBtn@@UAEXXZ
_TEXT	SEGMENT
?iwm_create@FileBtn@@UAEXXZ PROC			; FileBtn::iwm_create, COMDAT
; _this$ = ecx

; 42   : {

  00000	56		 push	 esi
  00001	8b f1		 mov	 esi, ecx

; 43   : 	if( m_pUITitle )

  00003	8b 4e 3c	 mov	 ecx, DWORD PTR [esi+60]
  00006	85 c9		 test	 ecx, ecx
  00008	74 1f		 je	 SHORT $LN1@iwm_create

; 44   : 	{
; 45   : 		m_pUITitle->SetWidthCutSize( 288.0f );

  0000a	f3 0f 10 05 00
	00 00 00	 movss	 xmm0, DWORD PTR __real@43900000
  00012	51		 push	 ecx
  00013	f3 0f 11 04 24	 movss	 DWORD PTR [esp], xmm0
  00018	ff 15 00 00 00
	00		 call	 DWORD PTR __imp_?SetWidthCutSize@ioUITitle@@QAEXM@Z

; 46   : 		m_pUITitle->SetPrintTextStyle( ioUITitle::PTS_WIDTHCUT );

  0001e	8b 4e 3c	 mov	 ecx, DWORD PTR [esi+60]
  00021	6a 02		 push	 2
  00023	ff 15 00 00 00
	00		 call	 DWORD PTR __imp_?SetPrintTextStyle@ioUITitle@@QAEXW4PrintTextStyle@1@@Z
$LN1@iwm_create:
  00029	5e		 pop	 esi

; 47   : 	}
; 48   : }

  0002a	c3		 ret	 0
?iwm_create@FileBtn@@UAEXXZ ENDP			; FileBtn::iwm_create
_TEXT	ENDS
PUBLIC	??_7FileListItem@@6B@				; FileListItem::`vftable'
PUBLIC	??0FileListItem@@QAE@XZ				; FileListItem::FileListItem
PUBLIC	??_R4FileListItem@@6B@				; FileListItem::`RTTI Complete Object Locator'
PUBLIC	??_R0?AVFileListItem@@@8			; FileListItem `RTTI Type Descriptor'
PUBLIC	??_R3FileListItem@@8				; FileListItem::`RTTI Class Hierarchy Descriptor'
PUBLIC	??_R2FileListItem@@8				; FileListItem::`RTTI Base Class Array'
PUBLIC	??_R1A@?0A@EA@FileListItem@@8			; FileListItem::`RTTI Base Class Descriptor at (0,-1,0,64)'
PUBLIC	?iwm_command@FileListItem@@UAEXPAVioWnd@@HK@Z	; FileListItem::iwm_command
EXTRN	__imp_??0ioWnd@@QAE@XZ:PROC
EXTRN	?AddRenderFrame@ioWnd@@UAEXABVioHashString@@PAVioUIRenderFrame@@@Z:PROC ; ioWnd::AddRenderFrame
EXTRN	?AddRenderImage@ioWnd@@UAEXABVioHashString@@PAVioUIRenderImage@@@Z:PROC ; ioWnd::AddRenderImage
EXTRN	?ParseExtraInfo@ioWnd@@UAEXAAVioXMLElement@@@Z:PROC ; ioWnd::ParseExtraInfo
EXTRN	?SetWindowAlpha@ioWnd@@UAEXH@Z:PROC		; ioWnd::SetWindowAlpha
EXTRN	?OnRender@ioWnd@@MAEXXZ:PROC			; ioWnd::OnRender
EXTRN	?CheckFrameReSize@ioWnd@@MAEXHHHH@Z:PROC	; ioWnd::CheckFrameReSize
EXTRN	?iwm_create@ioWnd@@UAEXXZ:PROC			; ioWnd::iwm_create
EXTRN	?iwm_lbuttondown@ioWnd@@UAEXABVioMouse@@@Z:PROC	; ioWnd::iwm_lbuttondown
EXTRN	?iwm_lbuttonup@ioWnd@@UAEXABVioMouse@@@Z:PROC	; ioWnd::iwm_lbuttonup
EXTRN	?iwm_lbuttonDBLCLK@ioWnd@@UAEXABVioMouse@@@Z:PROC ; ioWnd::iwm_lbuttonDBLCLK
EXTRN	?iwm_rbuttondown@ioWnd@@UAEXABVioMouse@@@Z:PROC	; ioWnd::iwm_rbuttondown
EXTRN	?iwm_rbuttonup@ioWnd@@UAEXABVioMouse@@@Z:PROC	; ioWnd::iwm_rbuttonup
EXTRN	?iwm_mouseover@ioWnd@@UAEXABVioMouse@@@Z:PROC	; ioWnd::iwm_mouseover
EXTRN	?GetWndType@ioWnd@@UBEKXZ:PROC			; ioWnd::GetWndType
EXTRN	?GetHeaderFileName@ioWnd@@UAEPBDXZ:PROC		; ioWnd::GetHeaderFileName
EXTRN	?GetTemplateName@ioWnd@@UAEPBDXZ:PROC		; ioWnd::GetTemplateName
EXTRN	?GetDefClassName@ioWnd@@UBEPBDXZ:PROC		; ioWnd::GetDefClassName
EXTRN	?_Clone@ioWnd@@UAEPAV1@XZ:PROC			; ioWnd::_Clone
EXTRN	?Copy@ioWnd@@UAEXPAV1@@Z:PROC			; ioWnd::Copy
EXTRN	?SetSaveData@ioWnd@@UAEXAAVioXMLElement@@@Z:PROC ; ioWnd::SetSaveData
EXTRN	?GetNumFixedRenderFrame@ioWnd@@UBEHXZ:PROC	; ioWnd::GetNumFixedRenderFrame
EXTRN	?GetFixedRenderFrameType@ioWnd@@UAEPBDH@Z:PROC	; ioWnd::GetFixedRenderFrameType
EXTRN	?GetRenderFrame@ioWnd@@UAEPAPAVioUIRenderElement@@PBD@Z:PROC ; ioWnd::GetRenderFrame
EXTRN	?GetNumFixedRenderImage@ioWnd@@UBEHXZ:PROC	; ioWnd::GetNumFixedRenderImage
EXTRN	?GetFixedRenderImageType@ioWnd@@UAEPBDH@Z:PROC	; ioWnd::GetFixedRenderImageType
EXTRN	?GetRenderImage@ioWnd@@UAEPAPAVioUIRenderElement@@PBD@Z:PROC ; ioWnd::GetRenderImage
EXTRN	??_EFileListItem@@UAEPAXI@Z:PROC		; FileListItem::`vector deleting destructor'
;	COMDAT ??_R1A@?0A@EA@FileListItem@@8
rdata$r	SEGMENT
??_R1A@?0A@EA@FileListItem@@8 DD FLAT:??_R0?AVFileListItem@@@8 ; FileListItem::`RTTI Base Class Descriptor at (0,-1,0,64)'
	DD	01H
	DD	00H
	DD	0ffffffffH
	DD	00H
	DD	040H
	DD	FLAT:??_R3FileListItem@@8
rdata$r	ENDS
;	COMDAT ??_R2FileListItem@@8
rdata$r	SEGMENT
??_R2FileListItem@@8 DD FLAT:??_R1A@?0A@EA@FileListItem@@8 ; FileListItem::`RTTI Base Class Array'
	DD	FLAT:??_R1A@?0A@EA@ioWnd@@8
rdata$r	ENDS
;	COMDAT ??_R3FileListItem@@8
rdata$r	SEGMENT
??_R3FileListItem@@8 DD 00H				; FileListItem::`RTTI Class Hierarchy Descriptor'
	DD	00H
	DD	02H
	DD	FLAT:??_R2FileListItem@@8
rdata$r	ENDS
;	COMDAT ??_R0?AVFileListItem@@@8
_DATA	SEGMENT
??_R0?AVFileListItem@@@8 DD FLAT:??_7type_info@@6B@	; FileListItem `RTTI Type Descriptor'
	DD	00H
	DB	'.?AVFileListItem@@', 00H
_DATA	ENDS
;	COMDAT ??_R4FileListItem@@6B@
rdata$r	SEGMENT
??_R4FileListItem@@6B@ DD 00H				; FileListItem::`RTTI Complete Object Locator'
	DD	00H
	DD	00H
	DD	FLAT:??_R0?AVFileListItem@@@8
	DD	FLAT:??_R3FileListItem@@8
rdata$r	ENDS
;	COMDAT ??_7FileListItem@@6B@
CONST	SEGMENT
??_7FileListItem@@6B@ DD FLAT:??_R4FileListItem@@6B@	; FileListItem::`vftable'
	DD	FLAT:?AddRenderFrame@ioWnd@@UAEXABVioHashString@@PAVioUIRenderFrame@@@Z
	DD	FLAT:?AddRenderImage@ioWnd@@UAEXABVioHashString@@PAVioUIRenderImage@@@Z
	DD	FLAT:?AddTooltipHelp@ioWnd@@UAEXABVioHashString@@00@Z
	DD	FLAT:?ParseExtraInfo@ioWnd@@UAEXAAVioXMLElement@@@Z
	DD	FLAT:?AddNamedRenderImage@ioWnd@@UAEXABVioHashString@@PAVioUIRenderImage@@@Z
	DD	FLAT:?RemoveNamedRenderImage@ioWnd@@UAEXABVioHashString@@@Z
	DD	FLAT:?GetNamedRenderImage@ioWnd@@UBEPAVioUIRenderImage@@ABVioHashString@@@Z
	DD	FLAT:?SetWindowAlpha@ioWnd@@UAEXH@Z
	DD	FLAT:?SetActive@ioWnd@@UAEXXZ
	DD	FLAT:?SetInActive@ioWnd@@UAEXXZ
	DD	FLAT:?ClearElementImageList@ioWnd@@UAEXXZ
	DD	FLAT:?SetSize@ioWnd@@UAEXHH@Z
	DD	FLAT:?SetPositionToDefault@ioWnd@@UAEXHH_N0@Z
	DD	FLAT:?IsNeedProcess@ioWnd@@UBE_NXZ
	DD	FLAT:?IsCanMouseReaction@ioWnd@@UBE_NXZ
	DD	FLAT:?AddChild@ioWnd@@UAEXPAV1@@Z
	DD	FLAT:?DeleteChild@ioWnd@@UAEXK@Z
	DD	FLAT:?DeleteAllChild@ioWnd@@UAEXXZ
	DD	FLAT:?OnRenderShowAndHide@ioWnd@@MAE_NXZ
	DD	FLAT:?OnRenderShowAndHideByDefault@ioWnd@@MAE_NK@Z
	DD	FLAT:?OnRenderShowAndHideByTop@ioWnd@@MAE_NK@Z
	DD	FLAT:?OnRenderShowAndHideByDown@ioWnd@@MAE_NK@Z
	DD	FLAT:?OnRender@ioWnd@@MAEXXZ
	DD	FLAT:?OnRenderAfterChild@ioWnd@@MAEXXZ
	DD	FLAT:?OnProcess@ioWnd@@MAEXM@Z
	DD	FLAT:?OnMouseProcess@ioWnd@@MAEXABVioMouse@@@Z
	DD	FLAT:?CheckFrameReSize@ioWnd@@MAEXHHHH@Z
	DD	FLAT:?RenderImageList@ioWnd@@MAEXHHW4UIRenderType@@@Z
	DD	FLAT:?iwm_create@ioWnd@@UAEXXZ
	DD	FLAT:?iwm_destroy@ioWnd@@UAEXXZ
	DD	FLAT:?iwm_lbuttondown@ioWnd@@UAEXABVioMouse@@@Z
	DD	FLAT:?iwm_lbuttonup@ioWnd@@UAEXABVioMouse@@@Z
	DD	FLAT:?iwm_lbuttonDBLCLK@ioWnd@@UAEXABVioMouse@@@Z
	DD	FLAT:?iwm_rbuttondown@ioWnd@@UAEXABVioMouse@@@Z
	DD	FLAT:?iwm_rbuttonup@ioWnd@@UAEXABVioMouse@@@Z
	DD	FLAT:?iwm_command@FileListItem@@UAEXPAVioWnd@@HK@Z
	DD	FLAT:?iwm_mouseover@ioWnd@@UAEXABVioMouse@@@Z
	DD	FLAT:?iwm_mousemove@ioWnd@@UAEXABVioMouse@@@Z
	DD	FLAT:?iwm_mouseleave@ioWnd@@UAEXABVioMouse@@@Z
	DD	FLAT:?iwm_vscroll@ioWnd@@UAEXKH@Z
	DD	FLAT:?iwm_wheel@ioWnd@@UAEXH@Z
	DD	FLAT:?iwm_show@ioWnd@@UAEXXZ
	DD	FLAT:?iwm_hide@ioWnd@@UAEXXZ
	DD	FLAT:?iwm_esc@ioWnd@@UAE_NXZ
	DD	FLAT:?iwm_spacebar@ioWnd@@UAE_NXZ
	DD	FLAT:?iwm_gototop@ioWnd@@UAEXXZ
	DD	FLAT:?iwm_dragenter@ioWnd@@UAE?AW4IWDropEffect@@PAVioDragItem@@ABVioMouse@@@Z
	DD	FLAT:?iwm_dragover@ioWnd@@UAE?AW4IWDropEffect@@PAVioDragItem@@ABVioMouse@@@Z
	DD	FLAT:?iwm_dragleave@ioWnd@@UAEXXZ
	DD	FLAT:?iwm_dropitem@ioWnd@@UAE_NPAVioDragItem@@ABVioMouse@@PAV1@@Z
	DD	FLAT:?iwm_dropdone@ioWnd@@UAEXPAVioDragItem@@PAV1@_N@Z
	DD	FLAT:?IsEXType@ioWnd@@UBE_NXZ
	DD	FLAT:?GetWndType@ioWnd@@UBEKXZ
	DD	FLAT:?RenderWnd@ioWnd@@UAEXXZ
	DD	FLAT:?SetIDEX@ioWnd@@UAEXAAK_N@Z
	DD	FLAT:?ParseXML@ioWnd@@UAEXAAVioXMLElement@@@Z
	DD	FLAT:?GetHeaderFileName@ioWnd@@UAEPBDXZ
	DD	FLAT:?GetTemplateName@ioWnd@@UAEPBDXZ
	DD	FLAT:?GetDefClassName@ioWnd@@UBEPBDXZ
	DD	FLAT:?_Clone@ioWnd@@UAEPAV1@XZ
	DD	FLAT:?Copy@ioWnd@@UAEXPAV1@@Z
	DD	FLAT:?Save@ioWnd@@UAE_NAAVioXMLElement@@@Z
	DD	FLAT:?SetSaveData@ioWnd@@UAEXAAVioXMLElement@@@Z
	DD	FLAT:?SetPosX@ioWnd@@UAEXH@Z
	DD	FLAT:?SetPosY@ioWnd@@UAEXH@Z
	DD	FLAT:?SetWidth@ioWnd@@UAEXH@Z
	DD	FLAT:?SetHeight@ioWnd@@UAEXH@Z
	DD	FLAT:?GetNumFixedRenderFrame@ioWnd@@UBEHXZ
	DD	FLAT:?GetFixedRenderFrameType@ioWnd@@UAEPBDH@Z
	DD	FLAT:?GetRenderFrame@ioWnd@@UAEPAPAVioUIRenderElement@@PBD@Z
	DD	FLAT:?GetNumFixedRenderImage@ioWnd@@UBEHXZ
	DD	FLAT:?GetFixedRenderImageType@ioWnd@@UAEPBDH@Z
	DD	FLAT:?GetRenderImage@ioWnd@@UAEPAPAVioUIRenderElement@@PBD@Z
	DD	FLAT:?AddEffect@ioWnd@@UAEXABVioHashString@@PAVioUI3DEffectRender@@@Z
	DD	FLAT:?GetEffect@ioWnd@@UAEPAVioUI3DEffectRender@@VioHashString@@@Z
	DD	FLAT:??_EFileListItem@@UAEPAXI@Z
; Function compile flags: /Ogsp
CONST	ENDS
;	COMDAT ??0FileListItem@@QAE@XZ
_TEXT	SEGMENT
??0FileListItem@@QAE@XZ PROC				; FileListItem::FileListItem, COMDAT
; _this$ = ecx

; 51   : {

  00000	56		 push	 esi
  00001	8b f1		 mov	 esi, ecx
  00003	ff 15 00 00 00
	00		 call	 DWORD PTR __imp_??0ioWnd@@QAE@XZ
  00009	c7 06 00 00 00
	00		 mov	 DWORD PTR [esi], OFFSET ??_7FileListItem@@6B@

; 52   : 	m_bFolder = false;

  0000f	c6 86 60 01 00
	00 00		 mov	 BYTE PTR [esi+352], 0

; 53   : }

  00016	8b c6		 mov	 eax, esi
  00018	5e		 pop	 esi
  00019	c3		 ret	 0
??0FileListItem@@QAE@XZ ENDP				; FileListItem::FileListItem
_TEXT	ENDS
PUBLIC	??1FileListItem@@UAE@XZ				; FileListItem::~FileListItem
EXTRN	__imp_??1ioWnd@@UAE@XZ:PROC
; Function compile flags: /Ogsp
;	COMDAT ??1FileListItem@@UAE@XZ
_TEXT	SEGMENT
??1FileListItem@@UAE@XZ PROC				; FileListItem::~FileListItem, COMDAT
; _this$ = ecx

; 56   : {

  00000	c7 01 00 00 00
	00		 mov	 DWORD PTR [ecx], OFFSET ??_7FileListItem@@6B@

; 57   : 
; 58   : }

  00006	ff 25 00 00 00
	00		 jmp	 DWORD PTR __imp_??1ioWnd@@UAE@XZ
??1FileListItem@@UAE@XZ ENDP				; FileListItem::~FileListItem
_TEXT	ENDS
EXTRN	__imp_?GetParent@ioWnd@@QAEPAV1@XZ:PROC
EXTRN	__imp_?GetID@ioWnd@@QBEKXZ:PROC
; Function compile flags: /Ogsp
;	COMDAT ?iwm_command@FileListItem@@UAEXPAVioWnd@@HK@Z
_TEXT	SEGMENT
_pWnd$ = 8						; size = 4
_cmd$ = 12						; size = 4
_param$ = 16						; size = 4
?iwm_command@FileListItem@@UAEXPAVioWnd@@HK@Z PROC	; FileListItem::iwm_command, COMDAT
; _this$ = ecx

; 61   : {

  00000	55		 push	 ebp
  00001	8b ec		 mov	 ebp, esp
  00003	56		 push	 esi
  00004	8b f1		 mov	 esi, ecx

; 62   : 	DWORD dwID = pWnd->GetID();

  00006	8b 4d 08	 mov	 ecx, DWORD PTR _pWnd$[ebp]
  00009	ff 15 00 00 00
	00		 call	 DWORD PTR __imp_?GetID@ioWnd@@QBEKXZ

; 63   : 
; 64   : 	switch( dwID )

  0000f	48		 dec	 eax
  00010	75 2c		 jne	 SHORT $LN1@iwm_comman

; 65   : 	{
; 66   : 	case ID_FILENAME_BTN:
; 67   : 		if( cmd == IOBN_BTNUP )

  00012	83 7d 0c 11	 cmp	 DWORD PTR _cmd$[ebp], 17 ; 00000011H
  00016	75 26		 jne	 SHORT $LN1@iwm_comman

; 68   : 		{
; 69   : 			if( GetParent() )

  00018	8b ce		 mov	 ecx, esi
  0001a	ff 15 00 00 00
	00		 call	 DWORD PTR __imp_?GetParent@ioWnd@@QAEPAV1@XZ
  00020	85 c0		 test	 eax, eax
  00022	74 1a		 je	 SHORT $LN1@iwm_comman

; 70   : 				GetParent()->iwm_command( this, cmd, ID_PARAM_FILENAME_BTNUP );

  00024	8b ce		 mov	 ecx, esi
  00026	ff 15 00 00 00
	00		 call	 DWORD PTR __imp_?GetParent@ioWnd@@QAEPAV1@XZ
  0002c	8b 10		 mov	 edx, DWORD PTR [eax]
  0002e	68 e9 03 00 00	 push	 1001			; 000003e9H
  00033	6a 11		 push	 17			; 00000011H
  00035	56		 push	 esi
  00036	8b c8		 mov	 ecx, eax
  00038	ff 92 8c 00 00
	00		 call	 DWORD PTR [edx+140]
$LN1@iwm_comman:
  0003e	5e		 pop	 esi

; 71   : 		}
; 72   : 		break;
; 73   : 	}
; 74   : }

  0003f	5d		 pop	 ebp
  00040	c2 0c 00	 ret	 12			; 0000000cH
?iwm_command@FileListItem@@UAEXPAVioWnd@@HK@Z ENDP	; FileListItem::iwm_command
_TEXT	ENDS
PUBLIC	?GetFileName@FileListItem@@QAEXAAVioHashString@@@Z ; FileListItem::GetFileName
EXTRN	__imp_?GetFirstText@ioUITitle@@QAEXAAVioHashString@@@Z:PROC
EXTRN	__imp_?GetTitle@ioWnd@@QBEPAVioUITitle@@XZ:PROC
EXTRN	__imp_?FindChildWnd@ioWnd@@QAEPAV1@K@Z:PROC
; Function compile flags: /Ogsp
;	COMDAT ?GetFileName@FileListItem@@QAEXAAVioHashString@@@Z
_TEXT	SEGMENT
_rszFileName$ = 8					; size = 4
?GetFileName@FileListItem@@QAEXAAVioHashString@@@Z PROC	; FileListItem::GetFileName, COMDAT
; _this$ = ecx

; 118  : {

  00000	55		 push	 ebp
  00001	8b ec		 mov	 ebp, esp

; 119  : 	ioWnd *pWnd = FindChildWnd( ID_FILENAME_BTN );

  00003	6a 01		 push	 1
  00005	ff 15 00 00 00
	00		 call	 DWORD PTR __imp_?FindChildWnd@ioWnd@@QAEPAV1@K@Z

; 120  : 	if( !pWnd )

  0000b	85 c0		 test	 eax, eax
  0000d	74 15		 je	 SHORT $LN3@GetFileNam

; 121  : 		return;
; 122  : 	ioUITitle *pTitle = pWnd->GetTitle();

  0000f	8b c8		 mov	 ecx, eax
  00011	ff 15 00 00 00
	00		 call	 DWORD PTR __imp_?GetTitle@ioWnd@@QBEPAVioUITitle@@XZ

; 123  : 	if( !pTitle )

  00017	85 c0		 test	 eax, eax
  00019	74 09		 je	 SHORT $LN3@GetFileNam

; 124  : 		return;
; 125  : 
; 126  : 	pTitle->GetFirstText( rszFileName );

  0001b	8b c8		 mov	 ecx, eax

; 127  : }

  0001d	5d		 pop	 ebp

; 124  : 		return;
; 125  : 
; 126  : 	pTitle->GetFirstText( rszFileName );

  0001e	ff 25 00 00 00
	00		 jmp	 DWORD PTR __imp_?GetFirstText@ioUITitle@@QAEXAAVioHashString@@@Z
$LN3@GetFileNam:

; 127  : }

  00024	5d		 pop	 ebp
  00025	c2 04 00	 ret	 4
?GetFileName@FileListItem@@QAEXAAVioHashString@@@Z ENDP	; FileListItem::GetFileName
_TEXT	ENDS
PUBLIC	??1FileDriveItem@@QAE@XZ			; FileDriveItem::~FileDriveItem
EXTRN	__imp_??1ioHashString@@QAE@XZ:PROC
; Function compile flags: /Ogsp
;	COMDAT ??1FileDriveItem@@QAE@XZ
_TEXT	SEGMENT
??1FileDriveItem@@QAE@XZ PROC				; FileDriveItem::~FileDriveItem, COMDAT
; _this$ = ecx
  00000	ff 25 00 00 00
	00		 jmp	 DWORD PTR __imp_??1ioHashString@@QAE@XZ
??1FileDriveItem@@QAE@XZ ENDP				; FileDriveItem::~FileDriveItem
_TEXT	ENDS
PUBLIC	?iwm_hide@FileDriveListWnd@@UAEXXZ		; FileDriveListWnd::iwm_hide
EXTRN	__imp_?SetCheckParentOutSide@ioWnd@@QAEX_N@Z:PROC
; Function compile flags: /Ogsp
;	COMDAT ?iwm_hide@FileDriveListWnd@@UAEXXZ
_TEXT	SEGMENT
?iwm_hide@FileDriveListWnd@@UAEXXZ PROC			; FileDriveListWnd::iwm_hide, COMDAT
; _this$ = ecx

; 232  : 	SetCheckParentOutSide( false );

  00000	6a 00		 push	 0
  00002	ff 15 00 00 00
	00		 call	 DWORD PTR __imp_?SetCheckParentOutSide@ioWnd@@QAEX_N@Z

; 233  : }

  00008	c3		 ret	 0
?iwm_hide@FileDriveListWnd@@UAEXXZ ENDP			; FileDriveListWnd::iwm_hide
_TEXT	ENDS
PUBLIC	?iwm_wheel@FileDriveListWnd@@UAEXH@Z		; FileDriveListWnd::iwm_wheel
EXTRN	?IsMouseBusy@ioApplication@@QAE_NXZ:PROC	; ioApplication::IsMouseBusy
EXTRN	?GetSingleton@ioApplication@@SAAAV1@XZ:PROC	; ioApplication::GetSingleton
EXTRN	__imp_?iwm_wheel@ioWnd@@UAEXH@Z:PROC
EXTRN	__imp_?IsShow@ioWnd@@QBE_NXZ:PROC
; Function compile flags: /Ogsp
;	COMDAT ?iwm_wheel@FileDriveListWnd@@UAEXH@Z
_TEXT	SEGMENT
_zDelta$ = 8						; size = 4
?iwm_wheel@FileDriveListWnd@@UAEXH@Z PROC		; FileDriveListWnd::iwm_wheel, COMDAT
; _this$ = ecx

; 236  : {

  00000	55		 push	 ebp
  00001	8b ec		 mov	 ebp, esp
  00003	57		 push	 edi
  00004	8b f9		 mov	 edi, ecx

; 237  : 	if( !IsShow() )

  00006	ff 15 00 00 00
	00		 call	 DWORD PTR __imp_?IsShow@ioWnd@@QBE_NXZ
  0000c	84 c0		 test	 al, al
  0000e	75 0d		 jne	 SHORT $LN8@iwm_wheel

; 238  : 		ioWnd::iwm_wheel( zDelta );

  00010	ff 75 08	 push	 DWORD PTR _zDelta$[ebp]
  00013	8b cf		 mov	 ecx, edi
  00015	ff 15 00 00 00
	00		 call	 DWORD PTR __imp_?iwm_wheel@ioWnd@@UAEXH@Z

; 239  : 	else

  0001b	eb 58		 jmp	 SHORT $LN1@iwm_wheel
$LN8@iwm_wheel:

; 240  : 	{
; 241  : 		if( g_App.IsMouseBusy() ) return;

  0001d	e8 00 00 00 00	 call	 ?GetSingleton@ioApplication@@SAAAV1@XZ ; ioApplication::GetSingleton
  00022	8b c8		 mov	 ecx, eax
  00024	e8 00 00 00 00	 call	 ?IsMouseBusy@ioApplication@@QAE_NXZ ; ioApplication::IsMouseBusy
  00029	84 c0		 test	 al, al
  0002b	75 48		 jne	 SHORT $LN1@iwm_wheel

; 242  : 
; 243  : 		ioScroll *pScroll = (ioScroll*)FindChildWnd( ID_VERT_SCROLL );

  0002d	56		 push	 esi
  0002e	68 e8 03 00 00	 push	 1000			; 000003e8H
  00033	8b cf		 mov	 ecx, edi
  00035	ff 15 00 00 00
	00		 call	 DWORD PTR __imp_?FindChildWnd@ioWnd@@QAEPAV1@K@Z
  0003b	8b f0		 mov	 esi, eax

; 244  : 		if( pScroll == NULL ) return;

  0003d	85 f6		 test	 esi, esi
  0003f	74 33		 je	 SHORT $LN11@iwm_wheel

; 245  : 		if( !pScroll->IsShow() ) return;

  00041	8b ce		 mov	 ecx, esi
  00043	ff 15 00 00 00
	00		 call	 DWORD PTR __imp_?IsShow@ioWnd@@QBE_NXZ
  00049	84 c0		 test	 al, al
  0004b	74 27		 je	 SHORT $LN11@iwm_wheel

; 246  : 
; 247  : 		if( zDelta == WHEEL_DELTA )

  0004d	83 7d 08 78	 cmp	 DWORD PTR _zDelta$[ebp], 120 ; 00000078H
  00051	75 09		 jne	 SHORT $LN3@iwm_wheel

; 248  : 			pScroll->SetScrollPos( m_iCurPos - 1 );

  00053	8b 8f b0 01 00
	00		 mov	 ecx, DWORD PTR [edi+432]
  00059	49		 dec	 ecx
  0005a	eb 0d		 jmp	 SHORT $LN12@iwm_wheel
$LN3@iwm_wheel:

; 249  : 		else if( zDelta == -WHEEL_DELTA )

  0005c	83 7d 08 88	 cmp	 DWORD PTR _zDelta$[ebp], -120 ; ffffff88H
  00060	75 12		 jne	 SHORT $LN11@iwm_wheel

; 250  : 			pScroll->SetScrollPos( m_iCurPos + 1 );

  00062	8b 8f b0 01 00
	00		 mov	 ecx, DWORD PTR [edi+432]
  00068	41		 inc	 ecx
$LN12@iwm_wheel:
  00069	8b 06		 mov	 eax, DWORD PTR [esi]
  0006b	51		 push	 ecx
  0006c	8b ce		 mov	 ecx, esi
  0006e	ff 90 38 01 00
	00		 call	 DWORD PTR [eax+312]
$LN11@iwm_wheel:
  00074	5e		 pop	 esi
$LN1@iwm_wheel:
  00075	5f		 pop	 edi

; 251  : 	}
; 252  : }

  00076	5d		 pop	 ebp
  00077	c2 04 00	 ret	 4
?iwm_wheel@FileDriveListWnd@@UAEXH@Z ENDP		; FileDriveListWnd::iwm_wheel
_TEXT	ENDS
PUBLIC	?iwm_vscroll@FileDriveListWnd@@UAEXKH@Z		; FileDriveListWnd::iwm_vscroll
; Function compile flags: /Ogsp
;	COMDAT ?iwm_vscroll@FileDriveListWnd@@UAEXKH@Z
_TEXT	SEGMENT
_dwID$ = 8						; size = 4
_curPos$ = 12						; size = 4
?iwm_vscroll@FileDriveListWnd@@UAEXKH@Z PROC		; FileDriveListWnd::iwm_vscroll, COMDAT
; _this$ = ecx

; 255  : {

  00000	55		 push	 ebp
  00001	8b ec		 mov	 ebp, esp
  00003	56		 push	 esi

; 256  : 	ioScroll *pScroll = (ioScroll*)FindChildWnd( ID_VERT_SCROLL );

  00004	68 e8 03 00 00	 push	 1000			; 000003e8H
  00009	8b f1		 mov	 esi, ecx
  0000b	ff 15 00 00 00
	00		 call	 DWORD PTR __imp_?FindChildWnd@ioWnd@@QAEPAV1@K@Z

; 257  : 	if( pScroll == NULL ) return;

  00011	85 c0		 test	 eax, eax
  00013	74 15		 je	 SHORT $LN3@iwm_vscrol

; 258  : 	if( !pScroll->IsShow() ) return;

  00015	8b c8		 mov	 ecx, eax
  00017	ff 15 00 00 00
	00		 call	 DWORD PTR __imp_?IsShow@ioWnd@@QBE_NXZ
  0001d	84 c0		 test	 al, al
  0001f	74 09		 je	 SHORT $LN3@iwm_vscrol

; 259  : 
; 260  : 	m_iCurPos = curPos;

  00021	8b 45 0c	 mov	 eax, DWORD PTR _curPos$[ebp]
  00024	89 86 b0 01 00
	00		 mov	 DWORD PTR [esi+432], eax
$LN3@iwm_vscrol:
  0002a	5e		 pop	 esi

; 261  : }

  0002b	5d		 pop	 ebp
  0002c	c2 08 00	 ret	 8
?iwm_vscroll@FileDriveListWnd@@UAEXKH@Z ENDP		; FileDriveListWnd::iwm_vscroll
_TEXT	ENDS
PUBLIC	??4FileDriveItem@@QAEAAU0@ABU0@@Z		; FileDriveItem::operator=
EXTRN	__imp_??4ioHashString@@QAEAAV0@ABV0@@Z:PROC
; Function compile flags: /Ogsp
;	COMDAT ??4FileDriveItem@@QAEAAU0@ABU0@@Z
_TEXT	SEGMENT
___that$ = 8						; size = 4
??4FileDriveItem@@QAEAAU0@ABU0@@Z PROC			; FileDriveItem::operator=, COMDAT
; _this$ = ecx
  00000	55		 push	 ebp
  00001	8b ec		 mov	 ebp, esp
  00003	56		 push	 esi
  00004	57		 push	 edi
  00005	8b 7d 08	 mov	 edi, DWORD PTR ___that$[ebp]
  00008	57		 push	 edi
  00009	8b f1		 mov	 esi, ecx
  0000b	ff 15 00 00 00
	00		 call	 DWORD PTR __imp_??4ioHashString@@QAEAAV0@ABV0@@Z
  00011	8b 47 10	 mov	 eax, DWORD PTR [edi+16]
  00014	89 46 10	 mov	 DWORD PTR [esi+16], eax
  00017	5f		 pop	 edi
  00018	8b c6		 mov	 eax, esi
  0001a	5e		 pop	 esi
  0001b	5d		 pop	 ebp
  0001c	c2 04 00	 ret	 4
??4FileDriveItem@@QAEAAU0@ABU0@@Z ENDP			; FileDriveItem::operator=
_TEXT	ENDS
PUBLIC	??_7bad_alloc@std@@6B@				; std::bad_alloc::`vftable'
PUBLIC	??0bad_alloc@std@@QAE@PBD@Z			; std::bad_alloc::bad_alloc
PUBLIC	??_R4bad_alloc@std@@6B@				; std::bad_alloc::`RTTI Complete Object Locator'
PUBLIC	??_R0?AVbad_alloc@std@@@8			; std::bad_alloc `RTTI Type Descriptor'
PUBLIC	??_R3bad_alloc@std@@8				; std::bad_alloc::`RTTI Class Hierarchy Descriptor'
PUBLIC	??_R2bad_alloc@std@@8				; std::bad_alloc::`RTTI Base Class Array'
PUBLIC	??_R1A@?0A@EA@bad_alloc@std@@8			; std::bad_alloc::`RTTI Base Class Descriptor at (0,-1,0,64)'
PUBLIC	??_R1A@?0A@EA@exception@std@@8			; std::exception::`RTTI Base Class Descriptor at (0,-1,0,64)'
PUBLIC	??_R0?AVexception@std@@@8			; std::exception `RTTI Type Descriptor'
PUBLIC	??_R3exception@std@@8				; std::exception::`RTTI Class Hierarchy Descriptor'
PUBLIC	??_R2exception@std@@8				; std::exception::`RTTI Base Class Array'
EXTRN	__imp_??0exception@std@@QAE@ABQBD@Z:PROC
EXTRN	??_Ebad_alloc@std@@UAEPAXI@Z:PROC		; std::bad_alloc::`vector deleting destructor'
EXTRN	?what@exception@std@@UBEPBDXZ:PROC		; std::exception::what
;	COMDAT ??_R2exception@std@@8
; File c:\program files (x86)\microsoft visual studio 10.0\vc\include\exception
rdata$r	SEGMENT
??_R2exception@std@@8 DD FLAT:??_R1A@?0A@EA@exception@std@@8 ; std::exception::`RTTI Base Class Array'
rdata$r	ENDS
;	COMDAT ??_R3exception@std@@8
rdata$r	SEGMENT
??_R3exception@std@@8 DD 00H				; std::exception::`RTTI Class Hierarchy Descriptor'
	DD	00H
	DD	01H
	DD	FLAT:??_R2exception@std@@8
rdata$r	ENDS
;	COMDAT ??_R0?AVexception@std@@@8
_DATA	SEGMENT
??_R0?AVexception@std@@@8 DD FLAT:??_7type_info@@6B@	; std::exception `RTTI Type Descriptor'
	DD	00H
	DB	'.?AVexception@std@@', 00H
_DATA	ENDS
;	COMDAT ??_R1A@?0A@EA@exception@std@@8
rdata$r	SEGMENT
??_R1A@?0A@EA@exception@std@@8 DD FLAT:??_R0?AVexception@std@@@8 ; std::exception::`RTTI Base Class Descriptor at (0,-1,0,64)'
	DD	00H
	DD	00H
	DD	0ffffffffH
	DD	00H
	DD	040H
	DD	FLAT:??_R3exception@std@@8
rdata$r	ENDS
;	COMDAT ??_R1A@?0A@EA@bad_alloc@std@@8
rdata$r	SEGMENT
??_R1A@?0A@EA@bad_alloc@std@@8 DD FLAT:??_R0?AVbad_alloc@std@@@8 ; std::bad_alloc::`RTTI Base Class Descriptor at (0,-1,0,64)'
	DD	01H
	DD	00H
	DD	0ffffffffH
	DD	00H
	DD	040H
	DD	FLAT:??_R3bad_alloc@std@@8
rdata$r	ENDS
;	COMDAT ??_R2bad_alloc@std@@8
rdata$r	SEGMENT
??_R2bad_alloc@std@@8 DD FLAT:??_R1A@?0A@EA@bad_alloc@std@@8 ; std::bad_alloc::`RTTI Base Class Array'
	DD	FLAT:??_R1A@?0A@EA@exception@std@@8
rdata$r	ENDS
;	COMDAT ??_R3bad_alloc@std@@8
rdata$r	SEGMENT
??_R3bad_alloc@std@@8 DD 00H				; std::bad_alloc::`RTTI Class Hierarchy Descriptor'
	DD	00H
	DD	02H
	DD	FLAT:??_R2bad_alloc@std@@8
rdata$r	ENDS
;	COMDAT ??_R0?AVbad_alloc@std@@@8
_DATA	SEGMENT
??_R0?AVbad_alloc@std@@@8 DD FLAT:??_7type_info@@6B@	; std::bad_alloc `RTTI Type Descriptor'
	DD	00H
	DB	'.?AVbad_alloc@std@@', 00H
_DATA	ENDS
;	COMDAT ??_R4bad_alloc@std@@6B@
rdata$r	SEGMENT
??_R4bad_alloc@std@@6B@ DD 00H				; std::bad_alloc::`RTTI Complete Object Locator'
	DD	00H
	DD	00H
	DD	FLAT:??_R0?AVbad_alloc@std@@@8
	DD	FLAT:??_R3bad_alloc@std@@8
rdata$r	ENDS
;	COMDAT ??_7bad_alloc@std@@6B@
CONST	SEGMENT
??_7bad_alloc@std@@6B@ DD FLAT:??_R4bad_alloc@std@@6B@	; std::bad_alloc::`vftable'
	DD	FLAT:??_Ebad_alloc@std@@UAEPAXI@Z
	DD	FLAT:?what@exception@std@@UBEPBDXZ
; Function compile flags: /Ogsp
CONST	ENDS
;	COMDAT ??0bad_alloc@std@@QAE@PBD@Z
_TEXT	SEGMENT
__Message$ = 8						; size = 4
??0bad_alloc@std@@QAE@PBD@Z PROC			; std::bad_alloc::bad_alloc, COMDAT
; _this$ = ecx

; 345  : 		{	// construct from message string

  00000	55		 push	 ebp
  00001	8b ec		 mov	 ebp, esp
  00003	56		 push	 esi
  00004	8d 45 08	 lea	 eax, DWORD PTR __Message$[ebp]
  00007	50		 push	 eax
  00008	8b f1		 mov	 esi, ecx
  0000a	ff 15 00 00 00
	00		 call	 DWORD PTR __imp_??0exception@std@@QAE@ABQBD@Z
  00010	c7 06 00 00 00
	00		 mov	 DWORD PTR [esi], OFFSET ??_7bad_alloc@std@@6B@

; 346  : 		}

  00016	8b c6		 mov	 eax, esi
  00018	5e		 pop	 esi
  00019	5d		 pop	 ebp
  0001a	c2 04 00	 ret	 4
??0bad_alloc@std@@QAE@PBD@Z ENDP			; std::bad_alloc::bad_alloc
_TEXT	ENDS
PUBLIC	??1bad_alloc@std@@UAE@XZ			; std::bad_alloc::~bad_alloc
EXTRN	__imp_??1exception@std@@UAE@XZ:PROC
; Function compile flags: /Ogsp
;	COMDAT ??1bad_alloc@std@@UAE@XZ
_TEXT	SEGMENT
??1bad_alloc@std@@UAE@XZ PROC				; std::bad_alloc::~bad_alloc, COMDAT
; _this$ = ecx

; 354  : 		{	// destroy the object

  00000	c7 01 00 00 00
	00		 mov	 DWORD PTR [ecx], OFFSET ??_7bad_alloc@std@@6B@

; 355  : 		}

  00006	ff 25 00 00 00
	00		 jmp	 DWORD PTR __imp_??1exception@std@@UAE@XZ
??1bad_alloc@std@@UAE@XZ ENDP				; std::bad_alloc::~bad_alloc
_TEXT	ENDS
EXTRN	??3@YAXPAX@Z:PROC				; operator delete
; Function compile flags: /Ogsp
;	COMDAT ??_Gbad_alloc@std@@UAEPAXI@Z
_TEXT	SEGMENT
___flags$ = 8						; size = 4
??_Gbad_alloc@std@@UAEPAXI@Z PROC			; std::bad_alloc::`scalar deleting destructor', COMDAT
; _this$ = ecx
  00000	55		 push	 ebp
  00001	8b ec		 mov	 ebp, esp
  00003	56		 push	 esi
  00004	8b f1		 mov	 esi, ecx
  00006	c7 06 00 00 00
	00		 mov	 DWORD PTR [esi], OFFSET ??_7bad_alloc@std@@6B@
  0000c	ff 15 00 00 00
	00		 call	 DWORD PTR __imp_??1exception@std@@UAE@XZ
  00012	f6 45 08 01	 test	 BYTE PTR ___flags$[ebp], 1
  00016	74 07		 je	 SHORT $LN1@scalar
  00018	56		 push	 esi
  00019	e8 00 00 00 00	 call	 ??3@YAXPAX@Z		; operator delete
  0001e	59		 pop	 ecx
$LN1@scalar:
  0001f	8b c6		 mov	 eax, esi
  00021	5e		 pop	 esi
  00022	5d		 pop	 ebp
  00023	c2 04 00	 ret	 4
??_Gbad_alloc@std@@UAEPAXI@Z ENDP			; std::bad_alloc::`scalar deleting destructor'
_TEXT	ENDS
PUBLIC	?iwm_create@FileListWnd@@UAEXXZ			; FileListWnd::iwm_create
; Function compile flags: /Ogsp
; File d:\lost saga for developer\youtube\tutorial\source\src\lsclient\gui\filelistwnd.cpp
;	COMDAT ?iwm_create@FileListWnd@@UAEXXZ
_TEXT	SEGMENT
?iwm_create@FileListWnd@@UAEXXZ PROC			; FileListWnd::iwm_create, COMDAT
; _this$ = ecx

; 400  : }

  00000	c3		 ret	 0
?iwm_create@FileListWnd@@UAEXXZ ENDP			; FileListWnd::iwm_create
_TEXT	ENDS
PUBLIC	?iwm_esc@FileListWnd@@UAE_NXZ			; FileListWnd::iwm_esc
EXTRN	__imp_?iwm_esc@ioWnd@@UAE_NXZ:PROC
EXTRN	__imp_?HideWnd@ioWnd@@QAEXXZ:PROC
; Function compile flags: /Ogsp
;	COMDAT ?iwm_esc@FileListWnd@@UAE_NXZ
_TEXT	SEGMENT
?iwm_esc@FileListWnd@@UAE_NXZ PROC			; FileListWnd::iwm_esc, COMDAT
; _this$ = ecx

; 403  : {

  00000	56		 push	 esi
  00001	57		 push	 edi

; 404  : 	ioWnd *pWnd = FindChildWnd( ID_PULLDOWN_WND );

  00002	68 e9 03 00 00	 push	 1001			; 000003e9H
  00007	8b f9		 mov	 edi, ecx
  00009	ff 15 00 00 00
	00		 call	 DWORD PTR __imp_?FindChildWnd@ioWnd@@QAEPAV1@K@Z
  0000f	8b f0		 mov	 esi, eax

; 405  : 	if( pWnd && pWnd->IsShow() )

  00011	85 f6		 test	 esi, esi
  00013	74 19		 je	 SHORT $LN1@iwm_esc
  00015	8b ce		 mov	 ecx, esi
  00017	ff 15 00 00 00
	00		 call	 DWORD PTR __imp_?IsShow@ioWnd@@QBE_NXZ
  0001d	84 c0		 test	 al, al
  0001f	74 0d		 je	 SHORT $LN1@iwm_esc

; 406  : 	{
; 407  : 		pWnd->HideWnd();

  00021	8b ce		 mov	 ecx, esi
  00023	ff 15 00 00 00
	00		 call	 DWORD PTR __imp_?HideWnd@ioWnd@@QAEXXZ
  00029	5f		 pop	 edi

; 408  : 		return true;

  0002a	b0 01		 mov	 al, 1
  0002c	5e		 pop	 esi

; 412  : }

  0002d	c3		 ret	 0
$LN1@iwm_esc:

; 409  : 	}
; 410  : 
; 411  : 	return ioWnd::iwm_esc();

  0002e	8b cf		 mov	 ecx, edi
  00030	5f		 pop	 edi
  00031	5e		 pop	 esi
  00032	ff 25 00 00 00
	00		 jmp	 DWORD PTR __imp_?iwm_esc@ioWnd@@UAE_NXZ
?iwm_esc@FileListWnd@@UAE_NXZ ENDP			; FileListWnd::iwm_esc
_TEXT	ENDS
PUBLIC	??2@YAPAXIPAX@Z					; operator new
; Function compile flags: /Ogsp
; File c:\program files (x86)\microsoft visual studio 10.0\vc\include\new
;	COMDAT ??2@YAPAXIPAX@Z
_TEXT	SEGMENT
___formal$ = 8						; size = 4
__Where$ = 12						; size = 4
??2@YAPAXIPAX@Z PROC					; operator new, COMDAT

; 56   : 	{	// construct array with placement at _Where

  00000	55		 push	 ebp
  00001	8b ec		 mov	 ebp, esp

; 57   : 	return (_Where);

  00003	8b 45 0c	 mov	 eax, DWORD PTR __Where$[ebp]

; 58   : 	}

  00006	5d		 pop	 ebp
  00007	c3		 ret	 0
??2@YAPAXIPAX@Z ENDP					; operator new
_TEXT	ENDS
PUBLIC	??3@YAXPAX0@Z					; operator delete
; Function compile flags: /Ogsp
;	COMDAT ??3@YAXPAX0@Z
_TEXT	SEGMENT
___formal$ = 8						; size = 4
___formal$ = 12						; size = 4
??3@YAXPAX0@Z PROC					; operator delete, COMDAT

; 62   : 	}

  00000	c3		 ret	 0
??3@YAXPAX0@Z ENDP					; operator delete
_TEXT	ENDS
PUBLIC	??1FileInfo@FileListWnd@@QAE@XZ			; FileListWnd::FileInfo::~FileInfo
; Function compile flags: /Ogsp
;	COMDAT ??1FileInfo@FileListWnd@@QAE@XZ
_TEXT	SEGMENT
??1FileInfo@FileListWnd@@QAE@XZ PROC			; FileListWnd::FileInfo::~FileInfo, COMDAT
; _this$ = ecx
  00000	ff 25 00 00 00
	00		 jmp	 DWORD PTR __imp_??1ioHashString@@QAE@XZ
??1FileInfo@FileListWnd@@QAE@XZ ENDP			; FileListWnd::FileInfo::~FileInfo
_TEXT	ENDS
PUBLIC	?SetReturnInfo@FileListWnd@@QAEXPAVioWnd@@W4ReturnWndType@1@@Z ; FileListWnd::SetReturnInfo
; Function compile flags: /Ogsp
; File d:\lost saga for developer\youtube\tutorial\source\src\lsclient\gui\filelistwnd.cpp
;	COMDAT ?SetReturnInfo@FileListWnd@@QAEXPAVioWnd@@W4ReturnWndType@1@@Z
_TEXT	SEGMENT
_pReturnWnd$ = 8					; size = 4
_eType$ = 12						; size = 4
?SetReturnInfo@FileListWnd@@QAEXPAVioWnd@@W4ReturnWndType@1@@Z PROC ; FileListWnd::SetReturnInfo, COMDAT
; _this$ = ecx

; 889  : {

  00000	55		 push	 ebp
  00001	8b ec		 mov	 ebp, esp

; 890  : 	m_pReturnWnd = pReturnWnd;

  00003	8b 45 08	 mov	 eax, DWORD PTR _pReturnWnd$[ebp]
  00006	89 81 78 01 00
	00		 mov	 DWORD PTR [ecx+376], eax

; 891  : 	m_eReturnType= eType;

  0000c	8b 45 0c	 mov	 eax, DWORD PTR _eType$[ebp]
  0000f	89 81 7c 01 00
	00		 mov	 DWORD PTR [ecx+380], eax

; 892  : }

  00015	5d		 pop	 ebp
  00016	c2 08 00	 ret	 8
?SetReturnInfo@FileListWnd@@QAEXPAVioWnd@@W4ReturnWndType@1@@Z ENDP ; FileListWnd::SetReturnInfo
_TEXT	ENDS
PUBLIC	??_R0?AVGameOptionSettingCustomSoundTab@@@8	; GameOptionSettingCustomSoundTab `RTTI Type Descriptor'
PUBLIC	??_R0?AVSettingCustomSoundItemWnd@@@8		; SettingCustomSoundItemWnd `RTTI Type Descriptor'
PUBLIC	?PlayByCaller@FileListWnd@@IAEXK@Z		; FileListWnd::PlayByCaller
EXTRN	?PlayWaveFile@GameOptionSettingCustomSoundTab@@QAEXPBD@Z:PROC ; GameOptionSettingCustomSoundTab::PlayWaveFile
EXTRN	?CheckWaveFile@GameOptionSettingCustomSoundTab@@QAE_NPBD@Z:PROC ; GameOptionSettingCustomSoundTab::CheckWaveFile
EXTRN	__imp_?IsEmpty@ioHashString@@QBE_NXZ:PROC
EXTRN	___CxxFrameHandler3:PROC
EXTRN	@__security_check_cookie@4:PROC
EXTRN	__EH_epilog3:PROC
EXTRN	__EH_prolog3:PROC
EXTRN	___RTDynamicCast:PROC
;	COMDAT ??_R0?AVGameOptionSettingCustomSoundTab@@@8
_DATA	SEGMENT
??_R0?AVGameOptionSettingCustomSoundTab@@@8 DD FLAT:??_7type_info@@6B@ ; GameOptionSettingCustomSoundTab `RTTI Type Descriptor'
	DD	00H
	DB	'.?AVGameOptionSettingCustomSoundTab@@', 00H
_DATA	ENDS
;	COMDAT ??_R0?AVSettingCustomSoundItemWnd@@@8
_DATA	SEGMENT
??_R0?AVSettingCustomSoundItemWnd@@@8 DD FLAT:??_7type_info@@6B@ ; SettingCustomSoundItemWnd `RTTI Type Descriptor'
	DD	00H
	DB	'.?AVSettingCustomSoundItemWnd@@', 00H
_DATA	ENDS
;	COMDAT xdata$x
xdata$x	SEGMENT
__unwindtable$?PlayByCaller@FileListWnd@@IAEXK@Z DD 0ffffffffH
	DD	FLAT:__unwindfunclet$?PlayByCaller@FileListWnd@@IAEXK@Z$0
__ehfuncinfo$?PlayByCaller@FileListWnd@@IAEXK@Z DD 019930522H
	DD	01H
	DD	FLAT:__unwindtable$?PlayByCaller@FileListWnd@@IAEXK@Z
	DD	2 DUP(00H)
	DD	2 DUP(00H)
	DD	00H
	DD	01H
; Function compile flags: /Ogsp
xdata$x	ENDS
;	COMDAT ?PlayByCaller@FileListWnd@@IAEXK@Z
_TEXT	SEGMENT
_szFileName$ = -28					; size = 16
__$EHRec$ = -12						; size = 12
_pItem$ = 8						; size = 4
_dwID$ = 8						; size = 4
?PlayByCaller@FileListWnd@@IAEXK@Z PROC			; FileListWnd::PlayByCaller, COMDAT
; _this$ = ecx

; 895  : {

  00000	6a 10		 push	 16			; 00000010H
  00002	b8 00 00 00 00	 mov	 eax, __ehhandler$?PlayByCaller@FileListWnd@@IAEXK@Z
  00007	e8 00 00 00 00	 call	 __EH_prolog3
  0000c	8b d9		 mov	 ebx, ecx

; 896  : 	if( !m_pReturnWnd )

  0000e	33 ff		 xor	 edi, edi
  00010	39 bb 78 01 00
	00		 cmp	 DWORD PTR [ebx+376], edi
  00016	0f 84 c4 00 00
	00		 je	 $LN8@PlayByCall

; 897  : 		return;
; 898  : 
; 899  : 	FileListItem *pItem = dynamic_cast<FileListItem*> (FindChildWnd( dwID ) );

  0001c	57		 push	 edi
  0001d	68 00 00 00 00	 push	 OFFSET ??_R0?AVFileListItem@@@8
  00022	be 00 00 00 00	 mov	 esi, OFFSET ??_R0?AVioWnd@@@8
  00027	56		 push	 esi
  00028	57		 push	 edi
  00029	ff 75 08	 push	 DWORD PTR _dwID$[ebp]
  0002c	ff 15 00 00 00
	00		 call	 DWORD PTR __imp_?FindChildWnd@ioWnd@@QAEPAV1@K@Z
  00032	50		 push	 eax
  00033	e8 00 00 00 00	 call	 ___RTDynamicCast
  00038	83 c4 14	 add	 esp, 20			; 00000014H
  0003b	89 45 08	 mov	 DWORD PTR _pItem$[ebp], eax

; 900  : 	if( !pItem )

  0003e	3b c7		 cmp	 eax, edi
  00040	0f 84 9a 00 00
	00		 je	 $LN8@PlayByCall

; 901  : 		return;
; 902  : 
; 903  : 	ioHashString szFileName;

  00046	8d 4d e4	 lea	 ecx, DWORD PTR _szFileName$[ebp]
  00049	ff 15 00 00 00
	00		 call	 DWORD PTR __imp_??0ioHashString@@QAE@XZ

; 904  : 	pItem->GetFileName( szFileName );

  0004f	8b 4d 08	 mov	 ecx, DWORD PTR _pItem$[ebp]
  00052	8d 45 e4	 lea	 eax, DWORD PTR _szFileName$[ebp]
  00055	50		 push	 eax
  00056	89 7d fc	 mov	 DWORD PTR __$EHRec$[ebp+8], edi
  00059	e8 00 00 00 00	 call	 ?GetFileName@FileListItem@@QAEXAAVioHashString@@@Z ; FileListItem::GetFileName

; 905  : 
; 906  : 	if( szFileName.IsEmpty() )

  0005e	8d 4d e4	 lea	 ecx, DWORD PTR _szFileName$[ebp]
  00061	ff 15 00 00 00
	00		 call	 DWORD PTR __imp_?IsEmpty@ioHashString@@QBE_NXZ
  00067	84 c0		 test	 al, al

; 907  : 		return;

  00069	75 68		 jne	 SHORT $LN1@PlayByCall

; 908  : 
; 909  : 	if( m_eReturnType == RWT_COUSTOMSOUND_SETTING_ITEM_WND )

  0006b	83 bb 7c 01 00
	00 01		 cmp	 DWORD PTR [ebx+380], 1
  00072	75 5f		 jne	 SHORT $LN1@PlayByCall

; 910  : 	{
; 911  : 		SettingCustomSoundItemWnd *pItem = dynamic_cast<SettingCustomSoundItemWnd*> (m_pReturnWnd);

  00074	57		 push	 edi
  00075	68 00 00 00 00	 push	 OFFSET ??_R0?AVSettingCustomSoundItemWnd@@@8
  0007a	56		 push	 esi
  0007b	57		 push	 edi
  0007c	ff b3 78 01 00
	00		 push	 DWORD PTR [ebx+376]
  00082	e8 00 00 00 00	 call	 ___RTDynamicCast
  00087	83 c4 14	 add	 esp, 20			; 00000014H

; 912  : 		if( !pItem )

  0008a	3b c7		 cmp	 eax, edi

; 913  : 			return;

  0008c	74 45		 je	 SHORT $LN1@PlayByCall

; 914  : 		GameOptionSettingCustomSoundTab *pParent = dynamic_cast<GameOptionSettingCustomSoundTab*> ( pItem->GetParent() );

  0008e	57		 push	 edi
  0008f	68 00 00 00 00	 push	 OFFSET ??_R0?AVGameOptionSettingCustomSoundTab@@@8
  00094	56		 push	 esi
  00095	57		 push	 edi
  00096	8b c8		 mov	 ecx, eax
  00098	ff 15 00 00 00
	00		 call	 DWORD PTR __imp_?GetParent@ioWnd@@QAEPAV1@XZ
  0009e	50		 push	 eax
  0009f	e8 00 00 00 00	 call	 ___RTDynamicCast
  000a4	8b f0		 mov	 esi, eax
  000a6	83 c4 14	 add	 esp, 20			; 00000014H

; 915  : 		if( !pParent )
; 916  : 			return;

  000a9	8d 4d e4	 lea	 ecx, DWORD PTR _szFileName$[ebp]
  000ac	3b f7		 cmp	 esi, edi
  000ae	74 26		 je	 SHORT $LN12@PlayByCall

; 917  : 		if( pParent->CheckWaveFile( szFileName.c_str() ) )

  000b0	ff 15 00 00 00
	00		 call	 DWORD PTR __imp_?c_str@ioHashString@@QBEPBDXZ
  000b6	50		 push	 eax
  000b7	8b ce		 mov	 ecx, esi
  000b9	e8 00 00 00 00	 call	 ?CheckWaveFile@GameOptionSettingCustomSoundTab@@QAE_NPBD@Z ; GameOptionSettingCustomSoundTab::CheckWaveFile
  000be	84 c0		 test	 al, al
  000c0	74 11		 je	 SHORT $LN1@PlayByCall

; 918  : 			pParent->PlayWaveFile( szFileName.c_str() );

  000c2	8d 4d e4	 lea	 ecx, DWORD PTR _szFileName$[ebp]
  000c5	ff 15 00 00 00
	00		 call	 DWORD PTR __imp_?c_str@ioHashString@@QBEPBDXZ
  000cb	50		 push	 eax
  000cc	8b ce		 mov	 ecx, esi
  000ce	e8 00 00 00 00	 call	 ?PlayWaveFile@GameOptionSettingCustomSoundTab@@QAEXPBD@Z ; GameOptionSettingCustomSoundTab::PlayWaveFile
$LN1@PlayByCall:

; 919  : 	}	
; 920  : }

  000d3	8d 4d e4	 lea	 ecx, DWORD PTR _szFileName$[ebp]
$LN12@PlayByCall:
  000d6	83 4d fc ff	 or	 DWORD PTR __$EHRec$[ebp+8], -1
  000da	ff 15 00 00 00
	00		 call	 DWORD PTR __imp_??1ioHashString@@QAE@XZ
$LN8@PlayByCall:
  000e0	e8 00 00 00 00	 call	 __EH_epilog3
  000e5	c2 04 00	 ret	 4
_TEXT	ENDS
;	COMDAT text$x
text$x	SEGMENT
__unwindfunclet$?PlayByCaller@FileListWnd@@IAEXK@Z$0:
  00000	8d 4d e4	 lea	 ecx, DWORD PTR _szFileName$[ebp]
  00003	ff 25 00 00 00
	00		 jmp	 DWORD PTR __imp_??1ioHashString@@QAE@XZ
__ehhandler$?PlayByCaller@FileListWnd@@IAEXK@Z:
  00009	8b 54 24 08	 mov	 edx, DWORD PTR [esp+8]
  0000d	8d 42 0c	 lea	 eax, DWORD PTR [edx+12]
  00010	8b 4a e0	 mov	 ecx, DWORD PTR [edx-32]
  00013	33 c8		 xor	 ecx, eax
  00015	e8 00 00 00 00	 call	 @__security_check_cookie@4
  0001a	b8 00 00 00 00	 mov	 eax, OFFSET __ehfuncinfo$?PlayByCaller@FileListWnd@@IAEXK@Z
  0001f	e9 00 00 00 00	 jmp	 ___CxxFrameHandler3
text$x	ENDS
?PlayByCaller@FileListWnd@@IAEXK@Z ENDP			; FileListWnd::PlayByCaller
PUBLIC	__real@4f800000
PUBLIC	??_C@_0BG@JAAMCPDG@FileListWnd?3?3OnRender?$AA@	; `string'
PUBLIC	??_C@_00CNPNBAHC@?$AA@				; `string'
PUBLIC	??_C@_0BB@MDBGKLAA@LostSaga?1Usersou?$AA@	; `string'
PUBLIC	??_C@_0BC@HKLFABAO@C?3?1Program?5Files?1?$AA@	; `string'
PUBLIC	__real@3f266666
PUBLIC	?OnRender@FileListWnd@@MAEXXZ			; FileListWnd::OnRender
EXTRN	__imp_?GetString@ioStringManager@@QAEPADPBD0HW4FileNamePrefix@1@@Z:PROC
EXTRN	__imp_?GetSingleton@ioStringManager@@SAAAV1@XZ:PROC
EXTRN	__imp_?PrintText@ioFontManager@@QAAXMMMPBDZZ:PROC
EXTRN	__imp_?SetTextColor@ioFontManager@@QAEXK@Z:PROC
EXTRN	__imp_?SetAlignType@ioFontManager@@QAEXW4TextAlignType@@@Z:PROC
EXTRN	__imp_?SetBkColor@ioFontManager@@QAEXHHH@Z:PROC
EXTRN	__imp_?SetTextStyle@ioFontManager@@QAEXW4TextStyle@@@Z:PROC
EXTRN	__imp_?GetSingleton@ioFontManager@@SAAAV1@XZ:PROC
EXTRN	__imp_?GetDerivedPosY@ioWnd@@QBEHXZ:PROC
EXTRN	__imp_?GetDerivedPosX@ioWnd@@QBEHXZ:PROC
EXTRN	__imp_?OnRender@ioWnd@@MAEXXZ:PROC
;	COMDAT __real@4f800000
; File d:\lost saga for developer\youtube\tutorial\source\src\lsclient\stdafx.h
CONST	SEGMENT
__real@4f800000 DD 04f800000r			; 4.29497e+009
CONST	ENDS
;	COMDAT ??_C@_0BG@JAAMCPDG@FileListWnd?3?3OnRender?$AA@
CONST	SEGMENT
??_C@_0BG@JAAMCPDG@FileListWnd?3?3OnRender?$AA@ DB 'FileListWnd::OnRender'
	DB	00H						; `string'
CONST	ENDS
;	COMDAT ??_C@_00CNPNBAHC@?$AA@
CONST	SEGMENT
??_C@_00CNPNBAHC@?$AA@ DB 00H				; `string'
CONST	ENDS
;	COMDAT ??_C@_0BB@MDBGKLAA@LostSaga?1Usersou?$AA@
CONST	SEGMENT
??_C@_0BB@MDBGKLAA@LostSaga?1Usersou?$AA@ DB 'LostSaga/Usersou', 00H ; `string'
CONST	ENDS
;	COMDAT ??_C@_0BC@HKLFABAO@C?3?1Program?5Files?1?$AA@
CONST	SEGMENT
??_C@_0BC@HKLFABAO@C?3?1Program?5Files?1?$AA@ DB 'C:/Program Files/', 00H ; `string'
CONST	ENDS
;	COMDAT __real@3f266666
CONST	SEGMENT
__real@3f266666 DD 03f266666r			; 0.65
; Function compile flags: /Ogsp
; File d:\lost saga for developer\youtube\tutorial\source\src\lsclient\gui\filelistwnd.cpp
CONST	ENDS
;	COMDAT ?OnRender@FileListWnd@@MAEXXZ
_TEXT	SEGMENT
tv197 = -12						; size = 4
tv180 = -12						; size = 4
$T514005 = -12						; size = 4
_this$ = -12						; size = 4
_iXPos$ = -8						; size = 4
tv333 = -4						; size = 4
tv327 = -4						; size = 4
tv205 = -4						; size = 4
?OnRender@FileListWnd@@MAEXXZ PROC			; FileListWnd::OnRender, COMDAT
; _this$ = ecx

; 923  : {

  00000	55		 push	 ebp
  00001	8b ec		 mov	 ebp, esp
  00003	83 ec 0c	 sub	 esp, 12			; 0000000cH
  00006	53		 push	 ebx
  00007	56		 push	 esi
  00008	8b f1		 mov	 esi, ecx
  0000a	57		 push	 edi
  0000b	89 75 f4	 mov	 DWORD PTR _this$[ebp], esi

; 924  : 	ioWnd::OnRender();

  0000e	ff 15 00 00 00
	00		 call	 DWORD PTR __imp_?OnRender@ioWnd@@MAEXXZ

; 925  : 	int iXPos = GetDerivedPosX();

  00014	8b ce		 mov	 ecx, esi
  00016	ff 15 00 00 00
	00		 call	 DWORD PTR __imp_?GetDerivedPosX@ioWnd@@QBEHXZ
  0001c	8b f8		 mov	 edi, eax

; 926  : 	int iYPos = GetDerivedPosY();

  0001e	8b ce		 mov	 ecx, esi
  00020	89 7d f8	 mov	 DWORD PTR _iXPos$[ebp], edi
  00023	ff 15 00 00 00
	00		 call	 DWORD PTR __imp_?GetDerivedPosY@ioWnd@@QBEHXZ

; 927  : 
; 928  : 	if( m_eReturnType == RWT_COUSTOMSOUND_SETTING_ITEM_WND )

  00029	8b b6 7c 01 00
	00		 mov	 esi, DWORD PTR [esi+380]
  0002f	8b d8		 mov	 ebx, eax
  00031	83 fe 01	 cmp	 esi, 1
  00034	0f 85 4d 02 00
	00		 jne	 $LN5@OnRender

; 929  : 	{
; 930  : 		g_FontMgr.SetTextStyle( TS_OUTLINE_FULL_2X );

  0003a	8b 35 00 00 00
	00		 mov	 esi, DWORD PTR __imp_?GetSingleton@ioFontManager@@SAAAV1@XZ
  00040	6a 05		 push	 5
  00042	ff d6		 call	 esi
  00044	8b c8		 mov	 ecx, eax
  00046	ff 15 00 00 00
	00		 call	 DWORD PTR __imp_?SetTextStyle@ioFontManager@@QAEXW4TextStyle@@@Z

; 931  : 		g_FontMgr.SetBkColor( 0, 0, 0 );

  0004c	33 c0		 xor	 eax, eax
  0004e	50		 push	 eax
  0004f	50		 push	 eax
  00050	50		 push	 eax
  00051	ff d6		 call	 esi
  00053	8b c8		 mov	 ecx, eax
  00055	ff 15 00 00 00
	00		 call	 DWORD PTR __imp_?SetBkColor@ioFontManager@@QAEXHHH@Z

; 932  : 		g_FontMgr.SetAlignType( TAT_LEFT );

  0005b	6a 00		 push	 0
  0005d	ff d6		 call	 esi
  0005f	8b c8		 mov	 ecx, eax
  00061	ff 15 00 00 00
	00		 call	 DWORD PTR __imp_?SetAlignType@ioFontManager@@QAEXW4TextAlignType@@@Z

; 933  : 
; 934  : 		g_FontMgr.SetTextColor( TCT_DEFAULT_DARKGRAY );

  00067	68 3a 3a 3a ff	 push	 -12961222		; ff3a3a3aH
  0006c	ff d6		 call	 esi
  0006e	8b c8		 mov	 ecx, eax
  00070	ff 15 00 00 00
	00		 call	 DWORD PTR __imp_?SetTextColor@ioFontManager@@QAEXK@Z

; 935  : 		g_FontMgr.PrintText( iXPos + 55, iYPos + 42, FONT_SIZE_13, "C:/Program Files/");

  00076	f3 0f 10 0d 00
	00 00 00	 movss	 xmm1, DWORD PTR __real@3f266666
  0007e	68 00 00 00 00	 push	 OFFSET ??_C@_0BC@HKLFABAO@C?3?1Program?5Files?1?$AA@
  00083	83 ec 0c	 sub	 esp, 12			; 0000000cH
  00086	f3 0f 11 4c 24
	08		 movss	 DWORD PTR [esp+8], xmm1
  0008c	8d 43 2a	 lea	 eax, DWORD PTR [ebx+42]
  0008f	0f 57 c9	 xorps	 xmm1, xmm1
  00092	83 c7 37	 add	 edi, 55			; 00000037H
  00095	0f 57 c0	 xorps	 xmm0, xmm0
  00098	f3 0f 2a c7	 cvtsi2ss xmm0, edi
  0009c	f3 0f 2a c8	 cvtsi2ss xmm1, eax
  000a0	f3 0f 11 4c 24
	04		 movss	 DWORD PTR [esp+4], xmm1
  000a6	f3 0f 11 45 fc	 movss	 DWORD PTR tv327[ebp], xmm0
  000ab	f3 0f 11 04 24	 movss	 DWORD PTR [esp], xmm0
  000b0	ff d6		 call	 esi
  000b2	8b 3d 00 00 00
	00		 mov	 edi, DWORD PTR __imp_?PrintText@ioFontManager@@QAAXMMMPBDZZ
  000b8	50		 push	 eax
  000b9	ff d7		 call	 edi

; 936  : 		g_FontMgr.PrintText( iXPos + 55, iYPos + 62, FONT_SIZE_13, "LostSaga/Usersou");

  000bb	f3 0f 10 05 00
	00 00 00	 movss	 xmm0, DWORD PTR __real@3f266666
  000c3	83 c4 14	 add	 esp, 20			; 00000014H
  000c6	68 00 00 00 00	 push	 OFFSET ??_C@_0BB@MDBGKLAA@LostSaga?1Usersou?$AA@
  000cb	83 ec 0c	 sub	 esp, 12			; 0000000cH
  000ce	f3 0f 11 44 24
	08		 movss	 DWORD PTR [esp+8], xmm0
  000d4	8d 43 3e	 lea	 eax, DWORD PTR [ebx+62]
  000d7	0f 57 c0	 xorps	 xmm0, xmm0
  000da	f3 0f 2a c0	 cvtsi2ss xmm0, eax
  000de	f3 0f 11 44 24
	04		 movss	 DWORD PTR [esp+4], xmm0
  000e4	f3 0f 10 45 fc	 movss	 xmm0, DWORD PTR tv327[ebp]
  000e9	f3 0f 11 04 24	 movss	 DWORD PTR [esp], xmm0
  000ee	ff d6		 call	 esi
  000f0	50		 push	 eax
  000f1	ff d7		 call	 edi

; 937  : 		g_FontMgr.PrintText( iXPos + 17, iYPos + 82, FONT_SIZE_13, STR(1));

  000f3	8b 45 f8	 mov	 eax, DWORD PTR _iXPos$[ebp]
  000f6	83 c4 14	 add	 esp, 20			; 00000014H
  000f9	6a 00		 push	 0
  000fb	6a 01		 push	 1
  000fd	83 c0 11	 add	 eax, 17			; 00000011H
  00100	0f 57 c0	 xorps	 xmm0, xmm0
  00103	68 00 00 00 00	 push	 OFFSET ??_C@_00CNPNBAHC@?$AA@
  00108	f3 0f 2a c0	 cvtsi2ss xmm0, eax
  0010c	68 00 00 00 00	 push	 OFFSET ??_C@_0BG@JAAMCPDG@FileListWnd?3?3OnRender?$AA@
  00111	f3 0f 11 45 fc	 movss	 DWORD PTR tv333[ebp], xmm0
  00116	ff 15 00 00 00
	00		 call	 DWORD PTR __imp_?GetSingleton@ioStringManager@@SAAAV1@XZ
  0011c	8b c8		 mov	 ecx, eax
  0011e	ff 15 00 00 00
	00		 call	 DWORD PTR __imp_?GetString@ioStringManager@@QAEPADPBD0HW4FileNamePrefix@1@@Z
  00124	f3 0f 10 05 00
	00 00 00	 movss	 xmm0, DWORD PTR __real@3f266666
  0012c	50		 push	 eax
  0012d	83 ec 0c	 sub	 esp, 12			; 0000000cH
  00130	f3 0f 11 44 24
	08		 movss	 DWORD PTR [esp+8], xmm0
  00136	8d 43 52	 lea	 eax, DWORD PTR [ebx+82]
  00139	0f 57 c0	 xorps	 xmm0, xmm0
  0013c	f3 0f 2a c0	 cvtsi2ss xmm0, eax
  00140	f3 0f 11 44 24
	04		 movss	 DWORD PTR [esp+4], xmm0
  00146	f3 0f 10 45 fc	 movss	 xmm0, DWORD PTR tv333[ebp]
  0014b	f3 0f 11 04 24	 movss	 DWORD PTR [esp], xmm0
  00150	ff d6		 call	 esi
  00152	50		 push	 eax
  00153	ff d7		 call	 edi
  00155	83 c4 14	 add	 esp, 20			; 00000014H

; 938  : 		g_FontMgr.PrintText( iXPos + 17, iYPos + 102, FONT_SIZE_13,STR(2));

  00158	6a 00		 push	 0
  0015a	6a 02		 push	 2
  0015c	68 00 00 00 00	 push	 OFFSET ??_C@_00CNPNBAHC@?$AA@
  00161	68 00 00 00 00	 push	 OFFSET ??_C@_0BG@JAAMCPDG@FileListWnd?3?3OnRender?$AA@
  00166	ff 15 00 00 00
	00		 call	 DWORD PTR __imp_?GetSingleton@ioStringManager@@SAAAV1@XZ
  0016c	8b c8		 mov	 ecx, eax
  0016e	ff 15 00 00 00
	00		 call	 DWORD PTR __imp_?GetString@ioStringManager@@QAEPADPBD0HW4FileNamePrefix@1@@Z
  00174	f3 0f 10 05 00
	00 00 00	 movss	 xmm0, DWORD PTR __real@3f266666
  0017c	50		 push	 eax
  0017d	83 ec 0c	 sub	 esp, 12			; 0000000cH
  00180	f3 0f 11 44 24
	08		 movss	 DWORD PTR [esp+8], xmm0
  00186	8d 43 66	 lea	 eax, DWORD PTR [ebx+102]
  00189	0f 57 c0	 xorps	 xmm0, xmm0
  0018c	f3 0f 2a c0	 cvtsi2ss xmm0, eax
  00190	f3 0f 11 44 24
	04		 movss	 DWORD PTR [esp+4], xmm0
  00196	f3 0f 10 45 fc	 movss	 xmm0, DWORD PTR tv333[ebp]
  0019b	f3 0f 11 04 24	 movss	 DWORD PTR [esp], xmm0
  001a0	ff d6		 call	 esi
  001a2	50		 push	 eax
  001a3	ff d7		 call	 edi
  001a5	83 c4 14	 add	 esp, 20			; 00000014H

; 939  : 		g_FontMgr.PrintText( iXPos + 17, iYPos + 122, FONT_SIZE_13,STR(3));

  001a8	6a 00		 push	 0
  001aa	6a 03		 push	 3
  001ac	68 00 00 00 00	 push	 OFFSET ??_C@_00CNPNBAHC@?$AA@
  001b1	68 00 00 00 00	 push	 OFFSET ??_C@_0BG@JAAMCPDG@FileListWnd?3?3OnRender?$AA@
  001b6	ff 15 00 00 00
	00		 call	 DWORD PTR __imp_?GetSingleton@ioStringManager@@SAAAV1@XZ
  001bc	8b c8		 mov	 ecx, eax
  001be	ff 15 00 00 00
	00		 call	 DWORD PTR __imp_?GetString@ioStringManager@@QAEPADPBD0HW4FileNamePrefix@1@@Z
  001c4	f3 0f 10 05 00
	00 00 00	 movss	 xmm0, DWORD PTR __real@3f266666
  001cc	50		 push	 eax
  001cd	83 ec 0c	 sub	 esp, 12			; 0000000cH
  001d0	f3 0f 11 44 24
	08		 movss	 DWORD PTR [esp+8], xmm0
  001d6	8d 43 7a	 lea	 eax, DWORD PTR [ebx+122]
  001d9	0f 57 c0	 xorps	 xmm0, xmm0
  001dc	f3 0f 2a c0	 cvtsi2ss xmm0, eax
  001e0	f3 0f 11 44 24
	04		 movss	 DWORD PTR [esp+4], xmm0
  001e6	f3 0f 10 45 fc	 movss	 xmm0, DWORD PTR tv333[ebp]
  001eb	f3 0f 11 04 24	 movss	 DWORD PTR [esp], xmm0
  001f0	ff d6		 call	 esi
  001f2	50		 push	 eax
  001f3	ff d7		 call	 edi

; 940  : 
; 941  : 		if( m_pDescIcon )

  001f5	8b 75 f4	 mov	 esi, DWORD PTR _this$[ebp]
  001f8	33 ff		 xor	 edi, edi
  001fa	83 c4 14	 add	 esp, 20			; 00000014H
  001fd	39 be 80 01 00
	00		 cmp	 DWORD PTR [esi+384], edi
  00203	0f 84 36 01 00
	00		 je	 $LN2@OnRender

; 942  : 		{
; 943  : 			m_pDescIcon->SetScale( FLOAT05 );

  00209	b8 05 00 00 00	 mov	 eax, 5
  0020e	8b d0		 mov	 edx, eax
  00210	b8 0a 00 00 00	 mov	 eax, 10			; 0000000aH
  00215	8b 8e 80 01 00
	00		 mov	 ecx, DWORD PTR [esi+384]
  0021b	89 55 fc	 mov	 DWORD PTR tv205[ebp], edx
  0021e	db 45 fc	 fild	 DWORD PTR tv205[ebp]
  00221	89 45 f4	 mov	 DWORD PTR $T514005[ebp], eax
  00224	8b 01		 mov	 eax, DWORD PTR [ecx]
  00226	85 d2		 test	 edx, edx
  00228	79 06		 jns	 SHORT $LN12@OnRender
  0022a	d8 05 00 00 00
	00		 fadd	 DWORD PTR __real@4f800000
$LN12@OnRender:
  00230	8b 55 f4	 mov	 edx, DWORD PTR $T514005[ebp]
  00233	db 45 f4	 fild	 DWORD PTR $T514005[ebp]
  00236	85 d2		 test	 edx, edx
  00238	79 06		 jns	 SHORT $LN13@OnRender
  0023a	d8 05 00 00 00
	00		 fadd	 DWORD PTR __real@4f800000
$LN13@OnRender:
  00240	de f9		 fdivp	 ST(1), ST(0)
  00242	51		 push	 ecx
  00243	d9 5d f4	 fstp	 DWORD PTR tv180[ebp]
  00246	d9 45 f4	 fld	 DWORD PTR tv180[ebp]
  00249	d9 1c 24	 fstp	 DWORD PTR [esp]
  0024c	ff 50 1c	 call	 DWORD PTR [eax+28]

; 944  : 			m_pDescIcon->Render( iXPos + 33, iYPos + 64, UI_RENDER_NORMAL, TFO_BILINEAR );

  0024f	8b 8e 80 01 00
	00		 mov	 ecx, DWORD PTR [esi+384]
  00255	8b 55 f8	 mov	 edx, DWORD PTR _iXPos$[ebp]
  00258	8b 01		 mov	 eax, DWORD PTR [ecx]
  0025a	57		 push	 edi
  0025b	57		 push	 edi
  0025c	6a 01		 push	 1
  0025e	57		 push	 edi
  0025f	0f 57 c0	 xorps	 xmm0, xmm0
  00262	51		 push	 ecx
  00263	83 c3 40	 add	 ebx, 64			; 00000040H
  00266	f3 0f 2a c3	 cvtsi2ss xmm0, ebx
  0026a	51		 push	 ecx
  0026b	f3 0f 11 44 24
	04		 movss	 DWORD PTR [esp+4], xmm0
  00271	83 c2 21	 add	 edx, 33			; 00000021H
  00274	0f 57 c0	 xorps	 xmm0, xmm0
  00277	f3 0f 2a c2	 cvtsi2ss xmm0, edx
  0027b	f3 0f 11 04 24	 movss	 DWORD PTR [esp], xmm0
  00280	ff 10		 call	 DWORD PTR [eax]

; 945  : 		}
; 946  : 	}
; 947  : 	else if( m_eReturnType == RWT_LOBBY_BACK_CHANGE_WND   ||

  00282	e9 b8 00 00 00	 jmp	 $LN2@OnRender
$LN5@OnRender:

; 948  : 		     m_eReturnType == RWT_LOADING_BACK_CHANGE_WND ||
; 949  : 			 m_eReturnType == RWT_BATTLE_BACK_CHANGE_WND  ||
; 950  : 			 m_eReturnType == RWT_LADDER_BACK_CHANGE_WND  ||
; 951  : 			 m_eReturnType == RWT_MODE_FIND_BACK_CHANGE_WND )

  00287	83 fe 03	 cmp	 esi, 3
  0028a	74 18		 je	 SHORT $LN1@OnRender
  0028c	83 fe 04	 cmp	 esi, 4
  0028f	74 13		 je	 SHORT $LN1@OnRender
  00291	83 fe 05	 cmp	 esi, 5
  00294	74 0e		 je	 SHORT $LN1@OnRender
  00296	83 fe 06	 cmp	 esi, 6
  00299	74 09		 je	 SHORT $LN1@OnRender
  0029b	83 fe 08	 cmp	 esi, 8
  0029e	0f 85 9b 00 00
	00		 jne	 $LN2@OnRender
$LN1@OnRender:

; 952  : 	{
; 953  : 		g_FontMgr.SetTextStyle( TS_NORMAL );

  002a4	8b 35 00 00 00
	00		 mov	 esi, DWORD PTR __imp_?GetSingleton@ioFontManager@@SAAAV1@XZ
  002aa	6a 00		 push	 0
  002ac	ff d6		 call	 esi
  002ae	8b c8		 mov	 ecx, eax
  002b0	ff 15 00 00 00
	00		 call	 DWORD PTR __imp_?SetTextStyle@ioFontManager@@QAEXW4TextStyle@@@Z

; 954  : 		g_FontMgr.SetBkColor( 0, 0, 0 );

  002b6	33 c0		 xor	 eax, eax
  002b8	50		 push	 eax
  002b9	50		 push	 eax
  002ba	50		 push	 eax
  002bb	ff d6		 call	 esi
  002bd	8b c8		 mov	 ecx, eax
  002bf	ff 15 00 00 00
	00		 call	 DWORD PTR __imp_?SetBkColor@ioFontManager@@QAEXHHH@Z

; 955  : 		g_FontMgr.SetAlignType( TAT_CENTER );

  002c5	6a 01		 push	 1
  002c7	ff d6		 call	 esi
  002c9	8b c8		 mov	 ecx, eax
  002cb	ff 15 00 00 00
	00		 call	 DWORD PTR __imp_?SetAlignType@ioFontManager@@QAEXW4TextAlignType@@@Z

; 956  : 		g_FontMgr.SetTextColor( TCT_DEFAULT_GRAY );

  002d1	68 6e 6e 6e ff	 push	 -9539986		; ff6e6e6eH
  002d6	ff d6		 call	 esi
  002d8	8b c8		 mov	 ecx, eax
  002da	ff 15 00 00 00
	00		 call	 DWORD PTR __imp_?SetTextColor@ioFontManager@@QAEXK@Z

; 957  : 		g_FontMgr.PrintText( iXPos + 177, iYPos + 402, FONT_SIZE_13, STR(4));

  002e0	6a 00		 push	 0
  002e2	6a 04		 push	 4
  002e4	68 00 00 00 00	 push	 OFFSET ??_C@_00CNPNBAHC@?$AA@
  002e9	68 00 00 00 00	 push	 OFFSET ??_C@_0BG@JAAMCPDG@FileListWnd?3?3OnRender?$AA@
  002ee	ff 15 00 00 00
	00		 call	 DWORD PTR __imp_?GetSingleton@ioStringManager@@SAAAV1@XZ
  002f4	8b c8		 mov	 ecx, eax
  002f6	ff 15 00 00 00
	00		 call	 DWORD PTR __imp_?GetString@ioStringManager@@QAEPADPBD0HW4FileNamePrefix@1@@Z
  002fc	f3 0f 10 05 00
	00 00 00	 movss	 xmm0, DWORD PTR __real@3f266666
  00304	50		 push	 eax
  00305	83 ec 0c	 sub	 esp, 12			; 0000000cH
  00308	f3 0f 11 44 24
	08		 movss	 DWORD PTR [esp+8], xmm0
  0030e	0f 57 c0	 xorps	 xmm0, xmm0
  00311	81 c3 92 01 00
	00		 add	 ebx, 402		; 00000192H
  00317	f3 0f 2a c3	 cvtsi2ss xmm0, ebx
  0031b	f3 0f 11 44 24
	04		 movss	 DWORD PTR [esp+4], xmm0
  00321	81 c7 b1 00 00
	00		 add	 edi, 177		; 000000b1H
  00327	0f 57 c0	 xorps	 xmm0, xmm0
  0032a	f3 0f 2a c7	 cvtsi2ss xmm0, edi
  0032e	f3 0f 11 04 24	 movss	 DWORD PTR [esp], xmm0
  00333	ff d6		 call	 esi
  00335	50		 push	 eax
  00336	ff 15 00 00 00
	00		 call	 DWORD PTR __imp_?PrintText@ioFontManager@@QAAXMMMPBDZZ
  0033c	83 c4 14	 add	 esp, 20			; 00000014H
$LN2@OnRender:
  0033f	5f		 pop	 edi
  00340	5e		 pop	 esi
  00341	5b		 pop	 ebx

; 958  : 	}
; 959  : }

  00342	c9		 leave
  00343	c3		 ret	 0
?OnRender@FileListWnd@@MAEXXZ ENDP			; FileListWnd::OnRender
_TEXT	ENDS
PUBLIC	?SetShowWndPos@FileListWnd@@IAEXXZ		; FileListWnd::SetShowWndPos
EXTRN	__imp_?SetWndPos@ioWnd@@QAEXHH@Z:PROC
EXTRN	__imp_?GetYPos@ioWnd@@QBEHXZ:PROC
EXTRN	?Width@Setting@@SAHXZ:PROC			; Setting::Width
EXTRN	__imp_?GetXPos@ioWnd@@QBEHXZ:PROC
EXTRN	__imp_?GetWidth@ioWnd@@QBEHXZ:PROC
EXTRN	__imp_?FindWnd@ioGUIManager@@QAEPAVioWnd@@K@Z:PROC
EXTRN	?GetSingleton@ioSP2GUIManager@@SAAAV1@XZ:PROC	; ioSP2GUIManager::GetSingleton
; Function compile flags: /Ogsp
;	COMDAT ?SetShowWndPos@FileListWnd@@IAEXXZ
_TEXT	SEGMENT
_this$ = -4						; size = 4
?SetShowWndPos@FileListWnd@@IAEXXZ PROC			; FileListWnd::SetShowWndPos, COMDAT
; _this$ = ecx

; 973  : {

  00000	55		 push	 ebp
  00001	8b ec		 mov	 ebp, esp
  00003	51		 push	 ecx

; 974  : 	if( !m_pReturnWnd )

  00004	83 b9 78 01 00
	00 00		 cmp	 DWORD PTR [ecx+376], 0
  0000b	89 4d fc	 mov	 DWORD PTR _this$[ebp], ecx
  0000e	0f 84 84 00 00
	00		 je	 $LN1@SetShowWnd

; 975  : 		return;
; 976  : 	if( m_eReturnType != RWT_COUSTOMSOUND_SETTING_ITEM_WND )

  00014	83 b9 7c 01 00
	00 01		 cmp	 DWORD PTR [ecx+380], 1
  0001b	75 7b		 jne	 SHORT $LN1@SetShowWnd

; 977  : 		return;
; 978  : 	
; 979  : 	ioWnd *pOptionWnd = g_GUIMgr.FindWnd( GAME_OPTION_WND );

  0001d	53		 push	 ebx
  0001e	68 7b 17 00 00	 push	 6011			; 0000177bH
  00023	e8 00 00 00 00	 call	 ?GetSingleton@ioSP2GUIManager@@SAAAV1@XZ ; ioSP2GUIManager::GetSingleton
  00028	8b c8		 mov	 ecx, eax
  0002a	ff 15 00 00 00
	00		 call	 DWORD PTR __imp_?FindWnd@ioGUIManager@@QAEPAVioWnd@@K@Z
  00030	8b d8		 mov	 ebx, eax

; 980  : 	if( !pOptionWnd )

  00032	85 db		 test	 ebx, ebx
  00034	74 61		 je	 SHORT $LN8@SetShowWnd

; 981  : 		return;
; 982  : 
; 983  : 	int iWndWidthCenter = pOptionWnd->GetWidth()/2;

  00036	56		 push	 esi
  00037	57		 push	 edi
  00038	8b cb		 mov	 ecx, ebx
  0003a	ff 15 00 00 00
	00		 call	 DWORD PTR __imp_?GetWidth@ioWnd@@QBEHXZ
  00040	99		 cdq
  00041	2b c2		 sub	 eax, edx
  00043	8b f8		 mov	 edi, eax

; 984  : 	int iCenterXPos = pOptionWnd->GetXPos() + iWndWidthCenter;

  00045	8b cb		 mov	 ecx, ebx
  00047	d1 ff		 sar	 edi, 1
  00049	ff 15 00 00 00
	00		 call	 DWORD PTR __imp_?GetXPos@ioWnd@@QBEHXZ
  0004f	03 f8		 add	 edi, eax

; 985  : 
; 986  : 	int iScreenWidthCenter = Setting::Width()/2;

  00051	e8 00 00 00 00	 call	 ?Width@Setting@@SAHXZ	; Setting::Width
  00056	99		 cdq
  00057	2b c2		 sub	 eax, edx
  00059	d1 f8		 sar	 eax, 1

; 987  : 
; 988  : 	if( iScreenWidthCenter >= iCenterXPos )

  0005b	3b c7		 cmp	 eax, edi
  0005d	5f		 pop	 edi
  0005e	5e		 pop	 esi

; 989  : 		SetWndPos( pOptionWnd->GetXPos() + 272, pOptionWnd->GetYPos() );

  0005f	8b cb		 mov	 ecx, ebx
  00061	7c 16		 jl	 SHORT $LN2@SetShowWnd
  00063	ff 15 00 00 00
	00		 call	 DWORD PTR __imp_?GetYPos@ioWnd@@QBEHXZ
  00069	50		 push	 eax
  0006a	8b cb		 mov	 ecx, ebx
  0006c	ff 15 00 00 00
	00		 call	 DWORD PTR __imp_?GetXPos@ioWnd@@QBEHXZ
  00072	05 10 01 00 00	 add	 eax, 272		; 00000110H

; 990  : 	else

  00077	eb 14		 jmp	 SHORT $LN9@SetShowWnd
$LN2@SetShowWnd:

; 991  : 		SetWndPos( pOptionWnd->GetXPos() - 202, pOptionWnd->GetYPos() );

  00079	ff 15 00 00 00
	00		 call	 DWORD PTR __imp_?GetYPos@ioWnd@@QBEHXZ
  0007f	50		 push	 eax
  00080	8b cb		 mov	 ecx, ebx
  00082	ff 15 00 00 00
	00		 call	 DWORD PTR __imp_?GetXPos@ioWnd@@QBEHXZ
  00088	2d ca 00 00 00	 sub	 eax, 202		; 000000caH
$LN9@SetShowWnd:
  0008d	8b 4d fc	 mov	 ecx, DWORD PTR _this$[ebp]
  00090	50		 push	 eax
  00091	ff 15 00 00 00
	00		 call	 DWORD PTR __imp_?SetWndPos@ioWnd@@QAEXHH@Z
$LN8@SetShowWnd:
  00097	5b		 pop	 ebx
$LN1@SetShowWnd:

; 992  : }

  00098	c9		 leave
  00099	c3		 ret	 0
?SetShowWndPos@FileListWnd@@IAEXXZ ENDP			; FileListWnd::SetShowWndPos
_TEXT	ENDS
PUBLIC	?_Adopt@_Iterator_base0@std@@QAEXPBX@Z		; std::_Iterator_base0::_Adopt
; Function compile flags: /Ogsp
; File c:\program files (x86)\microsoft visual studio 10.0\vc\include\xutility
;	COMDAT ?_Adopt@_Iterator_base0@std@@QAEXPBX@Z
_TEXT	SEGMENT
___formal$ = 8						; size = 4
?_Adopt@_Iterator_base0@std@@QAEXPBX@Z PROC		; std::_Iterator_base0::_Adopt, COMDAT
; _this$ = ecx

; 49   : 		}

  00000	c2 04 00	 ret	 4
?_Adopt@_Iterator_base0@std@@QAEXPBX@Z ENDP		; std::_Iterator_base0::_Adopt
_TEXT	ENDS
PUBLIC	??0FileDriveItem@@QAE@ABU0@@Z			; FileDriveItem::FileDriveItem
EXTRN	__imp_??0ioHashString@@QAE@ABV0@@Z:PROC
; Function compile flags: /Ogsp
;	COMDAT ??0FileDriveItem@@QAE@ABU0@@Z
_TEXT	SEGMENT
___that$ = 8						; size = 4
??0FileDriveItem@@QAE@ABU0@@Z PROC			; FileDriveItem::FileDriveItem, COMDAT
; _this$ = ecx
  00000	55		 push	 ebp
  00001	8b ec		 mov	 ebp, esp
  00003	56		 push	 esi
  00004	57		 push	 edi
  00005	8b 7d 08	 mov	 edi, DWORD PTR ___that$[ebp]
  00008	57		 push	 edi
  00009	8b f1		 mov	 esi, ecx
  0000b	ff 15 00 00 00
	00		 call	 DWORD PTR __imp_??0ioHashString@@QAE@ABV0@@Z
  00011	8b 47 10	 mov	 eax, DWORD PTR [edi+16]
  00014	89 46 10	 mov	 DWORD PTR [esi+16], eax
  00017	5f		 pop	 edi
  00018	8b c6		 mov	 eax, esi
  0001a	5e		 pop	 esi
  0001b	5d		 pop	 ebp
  0001c	c2 04 00	 ret	 4
??0FileDriveItem@@QAE@ABU0@@Z ENDP			; FileDriveItem::FileDriveItem
_TEXT	ENDS
PUBLIC	??A?$vector@VioHashString@@V?$allocator@VioHashString@@@std@@@std@@QAEAAVioHashString@@I@Z ; std::vector<ioHashString,std::allocator<ioHashString> >::operator[]
; Function compile flags: /Ogsp
; File c:\program files (x86)\microsoft visual studio 10.0\vc\include\vector
;	COMDAT ??A?$vector@VioHashString@@V?$allocator@VioHashString@@@std@@@std@@QAEAAVioHashString@@I@Z
_TEXT	SEGMENT
__Pos$ = 8						; size = 4
??A?$vector@VioHashString@@V?$allocator@VioHashString@@@std@@@std@@QAEAAVioHashString@@I@Z PROC ; std::vector<ioHashString,std::allocator<ioHashString> >::operator[], COMDAT
; _this$ = ecx

; 928  : 		{	// subscript mutable sequence

  00000	55		 push	 ebp
  00001	8b ec		 mov	 ebp, esp

; 929  :  #if _ITERATOR_DEBUG_LEVEL == 2
; 930  : 		if (size() <= _Pos)
; 931  : 			{	// report error
; 932  : 			_DEBUG_ERROR("vector subscript out of range");
; 933  : 			_SCL_SECURE_OUT_OF_RANGE;
; 934  : 			}
; 935  : 
; 936  :  #elif _ITERATOR_DEBUG_LEVEL == 1
; 937  : 		_SCL_SECURE_VALIDATE_RANGE(_Pos < size());
; 938  :  #endif /* _ITERATOR_DEBUG_LEVEL */
; 939  : 
; 940  : 		return (*(this->_Myfirst + _Pos));

  00003	8b 45 08	 mov	 eax, DWORD PTR __Pos$[ebp]
  00006	c1 e0 04	 shl	 eax, 4
  00009	03 01		 add	 eax, DWORD PTR [ecx]

; 941  : 		}

  0000b	5d		 pop	 ebp
  0000c	c2 04 00	 ret	 4
??A?$vector@VioHashString@@V?$allocator@VioHashString@@@std@@@std@@QAEAAVioHashString@@I@Z ENDP ; std::vector<ioHashString,std::allocator<ioHashString> >::operator[]
_TEXT	ENDS
PUBLIC	?size@?$vector@UFileDriveItem@@V?$allocator@UFileDriveItem@@@std@@@std@@QBEIXZ ; std::vector<FileDriveItem,std::allocator<FileDriveItem> >::size
; Function compile flags: /Ogsp
;	COMDAT ?size@?$vector@UFileDriveItem@@V?$allocator@UFileDriveItem@@@std@@@std@@QBEIXZ
_TEXT	SEGMENT
?size@?$vector@UFileDriveItem@@V?$allocator@UFileDriveItem@@@std@@@std@@QBEIXZ PROC ; std::vector<FileDriveItem,std::allocator<FileDriveItem> >::size, COMDAT
; _this$ = ecx

; 879  : 		return (this->_Mylast - this->_Myfirst);

  00000	8b 41 04	 mov	 eax, DWORD PTR [ecx+4]
  00003	2b 01		 sub	 eax, DWORD PTR [ecx]
  00005	6a 14		 push	 20			; 00000014H
  00007	99		 cdq
  00008	59		 pop	 ecx
  00009	f7 f9		 idiv	 ecx

; 880  : 		}

  0000b	c3		 ret	 0
?size@?$vector@UFileDriveItem@@V?$allocator@UFileDriveItem@@@std@@@std@@QBEIXZ ENDP ; std::vector<FileDriveItem,std::allocator<FileDriveItem> >::size
_TEXT	ENDS
PUBLIC	?empty@?$vector@UFileDriveItem@@V?$allocator@UFileDriveItem@@@std@@@std@@QBE_NXZ ; std::vector<FileDriveItem,std::allocator<FileDriveItem> >::empty
; Function compile flags: /Ogsp
;	COMDAT ?empty@?$vector@UFileDriveItem@@V?$allocator@UFileDriveItem@@@std@@@std@@QBE_NXZ
_TEXT	SEGMENT
?empty@?$vector@UFileDriveItem@@V?$allocator@UFileDriveItem@@@std@@@std@@QBE_NXZ PROC ; std::vector<FileDriveItem,std::allocator<FileDriveItem> >::empty, COMDAT
; _this$ = ecx

; 889  : 		return (this->_Myfirst == this->_Mylast);

  00000	8b 01		 mov	 eax, DWORD PTR [ecx]
  00002	2b 41 04	 sub	 eax, DWORD PTR [ecx+4]
  00005	f7 d8		 neg	 eax
  00007	1b c0		 sbb	 eax, eax
  00009	40		 inc	 eax

; 890  : 		}

  0000a	c3		 ret	 0
?empty@?$vector@UFileDriveItem@@V?$allocator@UFileDriveItem@@@std@@@std@@QBE_NXZ ENDP ; std::vector<FileDriveItem,std::allocator<FileDriveItem> >::empty
_TEXT	ENDS
PUBLIC	??A?$vector@UFileDriveItem@@V?$allocator@UFileDriveItem@@@std@@@std@@QAEAAUFileDriveItem@@I@Z ; std::vector<FileDriveItem,std::allocator<FileDriveItem> >::operator[]
; Function compile flags: /Ogsp
;	COMDAT ??A?$vector@UFileDriveItem@@V?$allocator@UFileDriveItem@@@std@@@std@@QAEAAUFileDriveItem@@I@Z
_TEXT	SEGMENT
__Pos$ = 8						; size = 4
??A?$vector@UFileDriveItem@@V?$allocator@UFileDriveItem@@@std@@@std@@QAEAAUFileDriveItem@@I@Z PROC ; std::vector<FileDriveItem,std::allocator<FileDriveItem> >::operator[], COMDAT
; _this$ = ecx

; 928  : 		{	// subscript mutable sequence

  00000	55		 push	 ebp
  00001	8b ec		 mov	 ebp, esp

; 929  :  #if _ITERATOR_DEBUG_LEVEL == 2
; 930  : 		if (size() <= _Pos)
; 931  : 			{	// report error
; 932  : 			_DEBUG_ERROR("vector subscript out of range");
; 933  : 			_SCL_SECURE_OUT_OF_RANGE;
; 934  : 			}
; 935  : 
; 936  :  #elif _ITERATOR_DEBUG_LEVEL == 1
; 937  : 		_SCL_SECURE_VALIDATE_RANGE(_Pos < size());
; 938  :  #endif /* _ITERATOR_DEBUG_LEVEL */
; 939  : 
; 940  : 		return (*(this->_Myfirst + _Pos));

  00003	8b 45 08	 mov	 eax, DWORD PTR __Pos$[ebp]
  00006	6b c0 14	 imul	 eax, 20			; 00000014H
  00009	03 01		 add	 eax, DWORD PTR [ecx]

; 941  : 		}

  0000b	5d		 pop	 ebp
  0000c	c2 04 00	 ret	 4
??A?$vector@UFileDriveItem@@V?$allocator@UFileDriveItem@@@std@@@std@@QAEAAUFileDriveItem@@I@Z ENDP ; std::vector<FileDriveItem,std::allocator<FileDriveItem> >::operator[]
_TEXT	ENDS
PUBLIC	?size@?$vector@UFileInfo@FileListWnd@@V?$allocator@UFileInfo@FileListWnd@@@std@@@std@@QBEIXZ ; std::vector<FileListWnd::FileInfo,std::allocator<FileListWnd::FileInfo> >::size
; Function compile flags: /Ogsp
;	COMDAT ?size@?$vector@UFileInfo@FileListWnd@@V?$allocator@UFileInfo@FileListWnd@@@std@@@std@@QBEIXZ
_TEXT	SEGMENT
?size@?$vector@UFileInfo@FileListWnd@@V?$allocator@UFileInfo@FileListWnd@@@std@@@std@@QBEIXZ PROC ; std::vector<FileListWnd::FileInfo,std::allocator<FileListWnd::FileInfo> >::size, COMDAT
; _this$ = ecx

; 879  : 		return (this->_Mylast - this->_Myfirst);

  00000	8b 41 04	 mov	 eax, DWORD PTR [ecx+4]
  00003	2b 01		 sub	 eax, DWORD PTR [ecx]
  00005	6a 14		 push	 20			; 00000014H
  00007	99		 cdq
  00008	59		 pop	 ecx
  00009	f7 f9		 idiv	 ecx

; 880  : 		}

  0000b	c3		 ret	 0
?size@?$vector@UFileInfo@FileListWnd@@V?$allocator@UFileInfo@FileListWnd@@@std@@@std@@QBEIXZ ENDP ; std::vector<FileListWnd::FileInfo,std::allocator<FileListWnd::FileInfo> >::size
_TEXT	ENDS
PUBLIC	?empty@?$vector@UFileInfo@FileListWnd@@V?$allocator@UFileInfo@FileListWnd@@@std@@@std@@QBE_NXZ ; std::vector<FileListWnd::FileInfo,std::allocator<FileListWnd::FileInfo> >::empty
; Function compile flags: /Ogsp
;	COMDAT ?empty@?$vector@UFileInfo@FileListWnd@@V?$allocator@UFileInfo@FileListWnd@@@std@@@std@@QBE_NXZ
_TEXT	SEGMENT
?empty@?$vector@UFileInfo@FileListWnd@@V?$allocator@UFileInfo@FileListWnd@@@std@@@std@@QBE_NXZ PROC ; std::vector<FileListWnd::FileInfo,std::allocator<FileListWnd::FileInfo> >::empty, COMDAT
; _this$ = ecx

; 889  : 		return (this->_Myfirst == this->_Mylast);

  00000	8b 01		 mov	 eax, DWORD PTR [ecx]
  00002	2b 41 04	 sub	 eax, DWORD PTR [ecx+4]
  00005	f7 d8		 neg	 eax
  00007	1b c0		 sbb	 eax, eax
  00009	40		 inc	 eax

; 890  : 		}

  0000a	c3		 ret	 0
?empty@?$vector@UFileInfo@FileListWnd@@V?$allocator@UFileInfo@FileListWnd@@@std@@@std@@QBE_NXZ ENDP ; std::vector<FileListWnd::FileInfo,std::allocator<FileListWnd::FileInfo> >::empty
_TEXT	ENDS
PUBLIC	??A?$vector@UFileInfo@FileListWnd@@V?$allocator@UFileInfo@FileListWnd@@@std@@@std@@QAEAAUFileInfo@FileListWnd@@I@Z ; std::vector<FileListWnd::FileInfo,std::allocator<FileListWnd::FileInfo> >::operator[]
; Function compile flags: /Ogsp
;	COMDAT ??A?$vector@UFileInfo@FileListWnd@@V?$allocator@UFileInfo@FileListWnd@@@std@@@std@@QAEAAUFileInfo@FileListWnd@@I@Z
_TEXT	SEGMENT
__Pos$ = 8						; size = 4
??A?$vector@UFileInfo@FileListWnd@@V?$allocator@UFileInfo@FileListWnd@@@std@@@std@@QAEAAUFileInfo@FileListWnd@@I@Z PROC ; std::vector<FileListWnd::FileInfo,std::allocator<FileListWnd::FileInfo> >::operator[], COMDAT
; _this$ = ecx

; 928  : 		{	// subscript mutable sequence

  00000	55		 push	 ebp
  00001	8b ec		 mov	 ebp, esp

; 929  :  #if _ITERATOR_DEBUG_LEVEL == 2
; 930  : 		if (size() <= _Pos)
; 931  : 			{	// report error
; 932  : 			_DEBUG_ERROR("vector subscript out of range");
; 933  : 			_SCL_SECURE_OUT_OF_RANGE;
; 934  : 			}
; 935  : 
; 936  :  #elif _ITERATOR_DEBUG_LEVEL == 1
; 937  : 		_SCL_SECURE_VALIDATE_RANGE(_Pos < size());
; 938  :  #endif /* _ITERATOR_DEBUG_LEVEL */
; 939  : 
; 940  : 		return (*(this->_Myfirst + _Pos));

  00003	8b 45 08	 mov	 eax, DWORD PTR __Pos$[ebp]
  00006	6b c0 14	 imul	 eax, 20			; 00000014H
  00009	03 01		 add	 eax, DWORD PTR [ecx]

; 941  : 		}

  0000b	5d		 pop	 ebp
  0000c	c2 04 00	 ret	 4
??A?$vector@UFileInfo@FileListWnd@@V?$allocator@UFileInfo@FileListWnd@@@std@@@std@@QAEAAUFileInfo@FileListWnd@@I@Z ENDP ; std::vector<FileListWnd::FileInfo,std::allocator<FileListWnd::FileInfo> >::operator[]
_TEXT	ENDS
PUBLIC	?_Inside@?$vector@VioHashString@@V?$allocator@VioHashString@@@std@@@std@@IBE_NPBVioHashString@@@Z ; std::vector<ioHashString,std::allocator<ioHashString> >::_Inside
; Function compile flags: /Ogsp
;	COMDAT ?_Inside@?$vector@VioHashString@@V?$allocator@VioHashString@@@std@@@std@@IBE_NPBVioHashString@@@Z
_TEXT	SEGMENT
__Ptr$ = 8						; size = 4
?_Inside@?$vector@VioHashString@@V?$allocator@VioHashString@@@std@@@std@@IBE_NPBVioHashString@@@Z PROC ; std::vector<ioHashString,std::allocator<ioHashString> >::_Inside, COMDAT
; _this$ = ecx

; 1285 : 		{	// test if _Ptr points inside vector

  00000	55		 push	 ebp
  00001	8b ec		 mov	 ebp, esp

; 1286 : 		return (_Ptr < this->_Mylast && this->_Myfirst <= _Ptr);

  00003	8b 45 08	 mov	 eax, DWORD PTR __Ptr$[ebp]
  00006	3b 41 04	 cmp	 eax, DWORD PTR [ecx+4]
  00009	73 09		 jae	 SHORT $LN3@Inside
  0000b	39 01		 cmp	 DWORD PTR [ecx], eax
  0000d	77 05		 ja	 SHORT $LN3@Inside
  0000f	33 c0		 xor	 eax, eax
  00011	40		 inc	 eax
  00012	eb 02		 jmp	 SHORT $LN4@Inside
$LN3@Inside:
  00014	33 c0		 xor	 eax, eax
$LN4@Inside:

; 1287 : 		}

  00016	5d		 pop	 ebp
  00017	c2 04 00	 ret	 4
?_Inside@?$vector@VioHashString@@V?$allocator@VioHashString@@@std@@@std@@IBE_NPBVioHashString@@@Z ENDP ; std::vector<ioHashString,std::allocator<ioHashString> >::_Inside
_TEXT	ENDS
PUBLIC	?_Orphan_range@?$vector@VioHashString@@V?$allocator@VioHashString@@@std@@@std@@IBEXPAVioHashString@@0@Z ; std::vector<ioHashString,std::allocator<ioHashString> >::_Orphan_range
; Function compile flags: /Ogsp
;	COMDAT ?_Orphan_range@?$vector@VioHashString@@V?$allocator@VioHashString@@@std@@@std@@IBEXPAVioHashString@@0@Z
_TEXT	SEGMENT
___formal$ = 8						; size = 4
___formal$ = 12						; size = 4
?_Orphan_range@?$vector@VioHashString@@V?$allocator@VioHashString@@@std@@@std@@IBEXPAVioHashString@@0@Z PROC ; std::vector<ioHashString,std::allocator<ioHashString> >::_Orphan_range, COMDAT
; _this$ = ecx

; 1454 : 		}

  00000	c2 08 00	 ret	 8
?_Orphan_range@?$vector@VioHashString@@V?$allocator@VioHashString@@@std@@@std@@IBEXPAVioHashString@@0@Z ENDP ; std::vector<ioHashString,std::allocator<ioHashString> >::_Orphan_range
_TEXT	ENDS
PUBLIC	?capacity@?$vector@UFileDriveItem@@V?$allocator@UFileDriveItem@@@std@@@std@@QBEIXZ ; std::vector<FileDriveItem,std::allocator<FileDriveItem> >::capacity
; Function compile flags: /Ogsp
;	COMDAT ?capacity@?$vector@UFileDriveItem@@V?$allocator@UFileDriveItem@@@std@@@std@@QBEIXZ
_TEXT	SEGMENT
?capacity@?$vector@UFileDriveItem@@V?$allocator@UFileDriveItem@@@std@@@std@@QBEIXZ PROC ; std::vector<FileDriveItem,std::allocator<FileDriveItem> >::capacity, COMDAT
; _this$ = ecx

; 777  : 		return (this->_Myend - this->_Myfirst);

  00000	8b 41 08	 mov	 eax, DWORD PTR [ecx+8]
  00003	2b 01		 sub	 eax, DWORD PTR [ecx]
  00005	6a 14		 push	 20			; 00000014H
  00007	99		 cdq
  00008	59		 pop	 ecx
  00009	f7 f9		 idiv	 ecx

; 778  : 		}

  0000b	c3		 ret	 0
?capacity@?$vector@UFileDriveItem@@V?$allocator@UFileDriveItem@@@std@@@std@@QBEIXZ ENDP ; std::vector<FileDriveItem,std::allocator<FileDriveItem> >::capacity
_TEXT	ENDS
PUBLIC	?_Inside@?$vector@UFileDriveItem@@V?$allocator@UFileDriveItem@@@std@@@std@@IBE_NPBUFileDriveItem@@@Z ; std::vector<FileDriveItem,std::allocator<FileDriveItem> >::_Inside
; Function compile flags: /Ogsp
;	COMDAT ?_Inside@?$vector@UFileDriveItem@@V?$allocator@UFileDriveItem@@@std@@@std@@IBE_NPBUFileDriveItem@@@Z
_TEXT	SEGMENT
__Ptr$ = 8						; size = 4
?_Inside@?$vector@UFileDriveItem@@V?$allocator@UFileDriveItem@@@std@@@std@@IBE_NPBUFileDriveItem@@@Z PROC ; std::vector<FileDriveItem,std::allocator<FileDriveItem> >::_Inside, COMDAT
; _this$ = ecx

; 1285 : 		{	// test if _Ptr points inside vector

  00000	55		 push	 ebp
  00001	8b ec		 mov	 ebp, esp

; 1286 : 		return (_Ptr < this->_Mylast && this->_Myfirst <= _Ptr);

  00003	8b 45 08	 mov	 eax, DWORD PTR __Ptr$[ebp]
  00006	3b 41 04	 cmp	 eax, DWORD PTR [ecx+4]
  00009	73 09		 jae	 SHORT $LN3@Inside@2
  0000b	39 01		 cmp	 DWORD PTR [ecx], eax
  0000d	77 05		 ja	 SHORT $LN3@Inside@2
  0000f	33 c0		 xor	 eax, eax
  00011	40		 inc	 eax
  00012	eb 02		 jmp	 SHORT $LN4@Inside@2
$LN3@Inside@2:
  00014	33 c0		 xor	 eax, eax
$LN4@Inside@2:

; 1287 : 		}

  00016	5d		 pop	 ebp
  00017	c2 04 00	 ret	 4
?_Inside@?$vector@UFileDriveItem@@V?$allocator@UFileDriveItem@@@std@@@std@@IBE_NPBUFileDriveItem@@@Z ENDP ; std::vector<FileDriveItem,std::allocator<FileDriveItem> >::_Inside
_TEXT	ENDS
PUBLIC	??_C@_0BD@OLBABOEK@vector?$DMT?$DO?5too?5long?$AA@ ; `string'
PUBLIC	?_Xlen@?$vector@UFileDriveItem@@V?$allocator@UFileDriveItem@@@std@@@std@@IBEXXZ ; std::vector<FileDriveItem,std::allocator<FileDriveItem> >::_Xlen
EXTRN	__imp_?_Xlength_error@std@@YAXPBD@Z:PROC
;	COMDAT ??_C@_0BD@OLBABOEK@vector?$DMT?$DO?5too?5long?$AA@
CONST	SEGMENT
??_C@_0BD@OLBABOEK@vector?$DMT?$DO?5too?5long?$AA@ DB 'vector<T> too long'
	DB	00H						; `string'
; Function compile flags: /Ogsp
CONST	ENDS
;	COMDAT ?_Xlen@?$vector@UFileDriveItem@@V?$allocator@UFileDriveItem@@@std@@@std@@IBEXXZ
_TEXT	SEGMENT
?_Xlen@?$vector@UFileDriveItem@@V?$allocator@UFileDriveItem@@@std@@@std@@IBEXXZ PROC ; std::vector<FileDriveItem,std::allocator<FileDriveItem> >::_Xlen, COMDAT
; _this$ = ecx

; 1427 : 		_Xlength_error("vector<T> too long");

  00000	68 00 00 00 00	 push	 OFFSET ??_C@_0BD@OLBABOEK@vector?$DMT?$DO?5too?5long?$AA@
  00005	ff 15 00 00 00
	00		 call	 DWORD PTR __imp_?_Xlength_error@std@@YAXPBD@Z
$LN4@Xlen:
$LN3@Xlen:
  0000b	cc		 int	 3
?_Xlen@?$vector@UFileDriveItem@@V?$allocator@UFileDriveItem@@@std@@@std@@IBEXXZ ENDP ; std::vector<FileDriveItem,std::allocator<FileDriveItem> >::_Xlen
_TEXT	ENDS
PUBLIC	?_Orphan_range@?$vector@UFileDriveItem@@V?$allocator@UFileDriveItem@@@std@@@std@@IBEXPAUFileDriveItem@@0@Z ; std::vector<FileDriveItem,std::allocator<FileDriveItem> >::_Orphan_range
; Function compile flags: /Ogsp
;	COMDAT ?_Orphan_range@?$vector@UFileDriveItem@@V?$allocator@UFileDriveItem@@@std@@@std@@IBEXPAUFileDriveItem@@0@Z
_TEXT	SEGMENT
___formal$ = 8						; size = 4
___formal$ = 12						; size = 4
?_Orphan_range@?$vector@UFileDriveItem@@V?$allocator@UFileDriveItem@@@std@@@std@@IBEXPAUFileDriveItem@@0@Z PROC ; std::vector<FileDriveItem,std::allocator<FileDriveItem> >::_Orphan_range, COMDAT
; _this$ = ecx

; 1454 : 		}

  00000	c2 08 00	 ret	 8
?_Orphan_range@?$vector@UFileDriveItem@@V?$allocator@UFileDriveItem@@@std@@@std@@IBEXPAUFileDriveItem@@0@Z ENDP ; std::vector<FileDriveItem,std::allocator<FileDriveItem> >::_Orphan_range
_TEXT	ENDS
PUBLIC	??1?$_Vector_val@UFileDriveItem@@V?$allocator@UFileDriveItem@@@std@@@std@@QAE@XZ ; std::_Vector_val<FileDriveItem,std::allocator<FileDriveItem> >::~_Vector_val<FileDriveItem,std::allocator<FileDriveItem> >
; Function compile flags: /Ogsp
;	COMDAT ??1?$_Vector_val@UFileDriveItem@@V?$allocator@UFileDriveItem@@@std@@@std@@QAE@XZ
_TEXT	SEGMENT
??1?$_Vector_val@UFileDriveItem@@V?$allocator@UFileDriveItem@@@std@@@std@@QAE@XZ PROC ; std::_Vector_val<FileDriveItem,std::allocator<FileDriveItem> >::~_Vector_val<FileDriveItem,std::allocator<FileDriveItem> >, COMDAT
; _this$ = ecx

; 434  : 		}

  00000	c3		 ret	 0
??1?$_Vector_val@UFileDriveItem@@V?$allocator@UFileDriveItem@@@std@@@std@@QAE@XZ ENDP ; std::_Vector_val<FileDriveItem,std::allocator<FileDriveItem> >::~_Vector_val<FileDriveItem,std::allocator<FileDriveItem> >
_TEXT	ENDS
PUBLIC	??0?$allocator@UFileDriveItem@@@std@@QAE@XZ	; std::allocator<FileDriveItem>::allocator<FileDriveItem>
; Function compile flags: /Ogsp
; File c:\program files (x86)\microsoft visual studio 10.0\vc\include\xmemory
;	COMDAT ??0?$allocator@UFileDriveItem@@@std@@QAE@XZ
_TEXT	SEGMENT
??0?$allocator@UFileDriveItem@@@std@@QAE@XZ PROC	; std::allocator<FileDriveItem>::allocator<FileDriveItem>, COMDAT
; _this$ = ecx

; 161  : 	_ALLOCATOR() _THROW0()

  00000	8b c1		 mov	 eax, ecx

; 162  : 		{	// construct default allocator (do nothing)
; 163  : 		}

  00002	c3		 ret	 0
??0?$allocator@UFileDriveItem@@@std@@QAE@XZ ENDP	; std::allocator<FileDriveItem>::allocator<FileDriveItem>
_TEXT	ENDS
PUBLIC	?deallocate@?$allocator@UFileDriveItem@@@std@@QAEXPAUFileDriveItem@@I@Z ; std::allocator<FileDriveItem>::deallocate
; Function compile flags: /Ogsp
;	COMDAT ?deallocate@?$allocator@UFileDriveItem@@@std@@QAEXPAUFileDriveItem@@I@Z
_TEXT	SEGMENT
__Ptr$ = 8						; size = 4
___formal$ = 12						; size = 4
?deallocate@?$allocator@UFileDriveItem@@@std@@QAEXPAUFileDriveItem@@I@Z PROC ; std::allocator<FileDriveItem>::deallocate, COMDAT
; _this$ = ecx

; 181  : 		{	// deallocate object at _Ptr, ignore size

  00000	55		 push	 ebp
  00001	8b ec		 mov	 ebp, esp

; 182  : 		::operator delete(_Ptr);

  00003	ff 75 08	 push	 DWORD PTR __Ptr$[ebp]
  00006	e8 00 00 00 00	 call	 ??3@YAXPAX@Z		; operator delete
  0000b	59		 pop	 ecx

; 183  : 		}

  0000c	5d		 pop	 ebp
  0000d	c2 08 00	 ret	 8
?deallocate@?$allocator@UFileDriveItem@@@std@@QAEXPAUFileDriveItem@@I@Z ENDP ; std::allocator<FileDriveItem>::deallocate
_TEXT	ENDS
PUBLIC	?_Inside@?$vector@UFileInfo@FileListWnd@@V?$allocator@UFileInfo@FileListWnd@@@std@@@std@@IBE_NPBUFileInfo@FileListWnd@@@Z ; std::vector<FileListWnd::FileInfo,std::allocator<FileListWnd::FileInfo> >::_Inside
; Function compile flags: /Ogsp
; File c:\program files (x86)\microsoft visual studio 10.0\vc\include\vector
;	COMDAT ?_Inside@?$vector@UFileInfo@FileListWnd@@V?$allocator@UFileInfo@FileListWnd@@@std@@@std@@IBE_NPBUFileInfo@FileListWnd@@@Z
_TEXT	SEGMENT
__Ptr$ = 8						; size = 4
?_Inside@?$vector@UFileInfo@FileListWnd@@V?$allocator@UFileInfo@FileListWnd@@@std@@@std@@IBE_NPBUFileInfo@FileListWnd@@@Z PROC ; std::vector<FileListWnd::FileInfo,std::allocator<FileListWnd::FileInfo> >::_Inside, COMDAT
; _this$ = ecx

; 1285 : 		{	// test if _Ptr points inside vector

  00000	55		 push	 ebp
  00001	8b ec		 mov	 ebp, esp

; 1286 : 		return (_Ptr < this->_Mylast && this->_Myfirst <= _Ptr);

  00003	8b 45 08	 mov	 eax, DWORD PTR __Ptr$[ebp]
  00006	3b 41 04	 cmp	 eax, DWORD PTR [ecx+4]
  00009	73 09		 jae	 SHORT $LN3@Inside@3
  0000b	39 01		 cmp	 DWORD PTR [ecx], eax
  0000d	77 05		 ja	 SHORT $LN3@Inside@3
  0000f	33 c0		 xor	 eax, eax
  00011	40		 inc	 eax
  00012	eb 02		 jmp	 SHORT $LN4@Inside@3
$LN3@Inside@3:
  00014	33 c0		 xor	 eax, eax
$LN4@Inside@3:

; 1287 : 		}

  00016	5d		 pop	 ebp
  00017	c2 04 00	 ret	 4
?_Inside@?$vector@UFileInfo@FileListWnd@@V?$allocator@UFileInfo@FileListWnd@@@std@@@std@@IBE_NPBUFileInfo@FileListWnd@@@Z ENDP ; std::vector<FileListWnd::FileInfo,std::allocator<FileListWnd::FileInfo> >::_Inside
_TEXT	ENDS
PUBLIC	?_Orphan_range@?$vector@UFileInfo@FileListWnd@@V?$allocator@UFileInfo@FileListWnd@@@std@@@std@@IBEXPAUFileInfo@FileListWnd@@0@Z ; std::vector<FileListWnd::FileInfo,std::allocator<FileListWnd::FileInfo> >::_Orphan_range
; Function compile flags: /Ogsp
;	COMDAT ?_Orphan_range@?$vector@UFileInfo@FileListWnd@@V?$allocator@UFileInfo@FileListWnd@@@std@@@std@@IBEXPAUFileInfo@FileListWnd@@0@Z
_TEXT	SEGMENT
___formal$ = 8						; size = 4
___formal$ = 12						; size = 4
?_Orphan_range@?$vector@UFileInfo@FileListWnd@@V?$allocator@UFileInfo@FileListWnd@@@std@@@std@@IBEXPAUFileInfo@FileListWnd@@0@Z PROC ; std::vector<FileListWnd::FileInfo,std::allocator<FileListWnd::FileInfo> >::_Orphan_range, COMDAT
; _this$ = ecx

; 1454 : 		}

  00000	c2 08 00	 ret	 8
?_Orphan_range@?$vector@UFileInfo@FileListWnd@@V?$allocator@UFileInfo@FileListWnd@@@std@@@std@@IBEXPAUFileInfo@FileListWnd@@0@Z ENDP ; std::vector<FileListWnd::FileInfo,std::allocator<FileListWnd::FileInfo> >::_Orphan_range
_TEXT	ENDS
PUBLIC	??1?$_Vector_val@UFileInfo@FileListWnd@@V?$allocator@UFileInfo@FileListWnd@@@std@@@std@@QAE@XZ ; std::_Vector_val<FileListWnd::FileInfo,std::allocator<FileListWnd::FileInfo> >::~_Vector_val<FileListWnd::FileInfo,std::allocator<FileListWnd::FileInfo> >
; Function compile flags: /Ogsp
;	COMDAT ??1?$_Vector_val@UFileInfo@FileListWnd@@V?$allocator@UFileInfo@FileListWnd@@@std@@@std@@QAE@XZ
_TEXT	SEGMENT
??1?$_Vector_val@UFileInfo@FileListWnd@@V?$allocator@UFileInfo@FileListWnd@@@std@@@std@@QAE@XZ PROC ; std::_Vector_val<FileListWnd::FileInfo,std::allocator<FileListWnd::FileInfo> >::~_Vector_val<FileListWnd::FileInfo,std::allocator<FileListWnd::FileInfo> >, COMDAT
; _this$ = ecx

; 434  : 		}

  00000	c3		 ret	 0
??1?$_Vector_val@UFileInfo@FileListWnd@@V?$allocator@UFileInfo@FileListWnd@@@std@@@std@@QAE@XZ ENDP ; std::_Vector_val<FileListWnd::FileInfo,std::allocator<FileListWnd::FileInfo> >::~_Vector_val<FileListWnd::FileInfo,std::allocator<FileListWnd::FileInfo> >
_TEXT	ENDS
PUBLIC	??0?$allocator@UFileInfo@FileListWnd@@@std@@QAE@XZ ; std::allocator<FileListWnd::FileInfo>::allocator<FileListWnd::FileInfo>
; Function compile flags: /Ogsp
; File c:\program files (x86)\microsoft visual studio 10.0\vc\include\xmemory
;	COMDAT ??0?$allocator@UFileInfo@FileListWnd@@@std@@QAE@XZ
_TEXT	SEGMENT
??0?$allocator@UFileInfo@FileListWnd@@@std@@QAE@XZ PROC	; std::allocator<FileListWnd::FileInfo>::allocator<FileListWnd::FileInfo>, COMDAT
; _this$ = ecx

; 161  : 	_ALLOCATOR() _THROW0()

  00000	8b c1		 mov	 eax, ecx

; 162  : 		{	// construct default allocator (do nothing)
; 163  : 		}

  00002	c3		 ret	 0
??0?$allocator@UFileInfo@FileListWnd@@@std@@QAE@XZ ENDP	; std::allocator<FileListWnd::FileInfo>::allocator<FileListWnd::FileInfo>
_TEXT	ENDS
PUBLIC	??D?$_Vector_const_iterator@V?$_Vector_val@UFileInfo@FileListWnd@@V?$allocator@UFileInfo@FileListWnd@@@std@@@std@@@std@@QBEABUFileInfo@FileListWnd@@XZ ; std::_Vector_const_iterator<std::_Vector_val<FileListWnd::FileInfo,std::allocator<FileListWnd::FileInfo> > >::operator*
; Function compile flags: /Ogsp
; File c:\program files (x86)\microsoft visual studio 10.0\vc\include\vector
;	COMDAT ??D?$_Vector_const_iterator@V?$_Vector_val@UFileInfo@FileListWnd@@V?$allocator@UFileInfo@FileListWnd@@@std@@@std@@@std@@QBEABUFileInfo@FileListWnd@@XZ
_TEXT	SEGMENT
??D?$_Vector_const_iterator@V?$_Vector_val@UFileInfo@FileListWnd@@V?$allocator@UFileInfo@FileListWnd@@@std@@@std@@@std@@QBEABUFileInfo@FileListWnd@@XZ PROC ; std::_Vector_const_iterator<std::_Vector_val<FileListWnd::FileInfo,std::allocator<FileListWnd::FileInfo> > >::operator*, COMDAT
; _this$ = ecx

; 64   :  #if _ITERATOR_DEBUG_LEVEL == 2
; 65   : 		if (this->_Getcont() == 0
; 66   : 			|| this->_Ptr == 0
; 67   : 			|| this->_Ptr < ((_Myvec *)this->_Getcont())->_Myfirst
; 68   : 			|| ((_Myvec *)this->_Getcont())->_Mylast <= this->_Ptr)
; 69   : 			{	// report error
; 70   : 			_DEBUG_ERROR("vector iterator not dereferencable");
; 71   : 			_SCL_SECURE_OUT_OF_RANGE;
; 72   : 			}
; 73   : 
; 74   :  #elif _ITERATOR_DEBUG_LEVEL == 1
; 75   : 		_SCL_SECURE_VALIDATE(this->_Getcont() != 0);
; 76   : 		_SCL_SECURE_VALIDATE_RANGE(
; 77   : 			this->_Ptr != 0
; 78   : 			&& ((_Myvec *)this->_Getcont())->_Myfirst <= this->_Ptr
; 79   : 			&& this->_Ptr < ((_Myvec *)this->_Getcont())->_Mylast);
; 80   :  #endif /* _ITERATOR_DEBUG_LEVEL */
; 81   : 
; 82   : 		__analysis_assume(this->_Ptr != 0);
; 83   : 
; 84   : 		return (*this->_Ptr);

  00000	8b 01		 mov	 eax, DWORD PTR [ecx]

; 85   : 		}

  00002	c3		 ret	 0
??D?$_Vector_const_iterator@V?$_Vector_val@UFileInfo@FileListWnd@@V?$allocator@UFileInfo@FileListWnd@@@std@@@std@@@std@@QBEABUFileInfo@FileListWnd@@XZ ENDP ; std::_Vector_const_iterator<std::_Vector_val<FileListWnd::FileInfo,std::allocator<FileListWnd::FileInfo> > >::operator*
_TEXT	ENDS
PUBLIC	??E?$_Vector_const_iterator@V?$_Vector_val@UFileInfo@FileListWnd@@V?$allocator@UFileInfo@FileListWnd@@@std@@@std@@@std@@QAEAAV01@XZ ; std::_Vector_const_iterator<std::_Vector_val<FileListWnd::FileInfo,std::allocator<FileListWnd::FileInfo> > >::operator++
; Function compile flags: /Ogsp
;	COMDAT ??E?$_Vector_const_iterator@V?$_Vector_val@UFileInfo@FileListWnd@@V?$allocator@UFileInfo@FileListWnd@@@std@@@std@@@std@@QAEAAV01@XZ
_TEXT	SEGMENT
??E?$_Vector_const_iterator@V?$_Vector_val@UFileInfo@FileListWnd@@V?$allocator@UFileInfo@FileListWnd@@@std@@@std@@@std@@QAEAAV01@XZ PROC ; std::_Vector_const_iterator<std::_Vector_val<FileListWnd::FileInfo,std::allocator<FileListWnd::FileInfo> > >::operator++, COMDAT
; _this$ = ecx

; 93   : 		{	// preincrement

  00000	8b c1		 mov	 eax, ecx

; 94   :  #if _ITERATOR_DEBUG_LEVEL == 2
; 95   : 		if (this->_Getcont() == 0
; 96   : 			|| this->_Ptr == 0
; 97   : 			|| ((_Myvec *)this->_Getcont())->_Mylast <= this->_Ptr)
; 98   : 			{	// report error
; 99   : 			_DEBUG_ERROR("vector iterator not incrementable");
; 100  : 			_SCL_SECURE_OUT_OF_RANGE;
; 101  : 			}
; 102  : 
; 103  :  #elif _ITERATOR_DEBUG_LEVEL == 1
; 104  : 		_SCL_SECURE_VALIDATE(this->_Getcont() != 0);
; 105  : 		_SCL_SECURE_VALIDATE_RANGE(
; 106  : 			this->_Ptr != 0
; 107  : 			&& this->_Ptr < ((_Myvec *)this->_Getcont())->_Mylast);
; 108  :  #endif /* _ITERATOR_DEBUG_LEVEL */
; 109  : 
; 110  : 		++this->_Ptr;

  00002	83 00 14	 add	 DWORD PTR [eax], 20	; 00000014H

; 111  : 		return (*this);
; 112  : 		}

  00005	c3		 ret	 0
??E?$_Vector_const_iterator@V?$_Vector_val@UFileInfo@FileListWnd@@V?$allocator@UFileInfo@FileListWnd@@@std@@@std@@@std@@QAEAAV01@XZ ENDP ; std::_Vector_const_iterator<std::_Vector_val<FileListWnd::FileInfo,std::allocator<FileListWnd::FileInfo> > >::operator++
_TEXT	ENDS
PUBLIC	?capacity@?$vector@VioHashString@@V?$allocator@VioHashString@@@std@@@std@@QBEIXZ ; std::vector<ioHashString,std::allocator<ioHashString> >::capacity
; Function compile flags: /Ogsp
;	COMDAT ?capacity@?$vector@VioHashString@@V?$allocator@VioHashString@@@std@@@std@@QBEIXZ
_TEXT	SEGMENT
?capacity@?$vector@VioHashString@@V?$allocator@VioHashString@@@std@@@std@@QBEIXZ PROC ; std::vector<ioHashString,std::allocator<ioHashString> >::capacity, COMDAT
; _this$ = ecx

; 777  : 		return (this->_Myend - this->_Myfirst);

  00000	8b 41 08	 mov	 eax, DWORD PTR [ecx+8]
  00003	2b 01		 sub	 eax, DWORD PTR [ecx]
  00005	c1 f8 04	 sar	 eax, 4

; 778  : 		}

  00008	c3		 ret	 0
?capacity@?$vector@VioHashString@@V?$allocator@VioHashString@@@std@@@std@@QBEIXZ ENDP ; std::vector<ioHashString,std::allocator<ioHashString> >::capacity
_TEXT	ENDS
PUBLIC	??0?$allocator@UFileDriveItem@@@std@@QAE@ABV01@@Z ; std::allocator<FileDriveItem>::allocator<FileDriveItem>
; Function compile flags: /Ogsp
; File c:\program files (x86)\microsoft visual studio 10.0\vc\include\xmemory
;	COMDAT ??0?$allocator@UFileDriveItem@@@std@@QAE@ABV01@@Z
_TEXT	SEGMENT
___formal$ = 8						; size = 4
??0?$allocator@UFileDriveItem@@@std@@QAE@ABV01@@Z PROC	; std::allocator<FileDriveItem>::allocator<FileDriveItem>, COMDAT
; _this$ = ecx

; 165  : 	_ALLOCATOR(const _ALLOCATOR<_Ty>&) _THROW0()

  00000	8b c1		 mov	 eax, ecx

; 166  : 		{	// construct by copying (do nothing)
; 167  : 		}

  00002	c2 04 00	 ret	 4
??0?$allocator@UFileDriveItem@@@std@@QAE@ABV01@@Z ENDP	; std::allocator<FileDriveItem>::allocator<FileDriveItem>
_TEXT	ENDS
PUBLIC	?max_size@?$allocator@UFileDriveItem@@@std@@QBEIXZ ; std::allocator<FileDriveItem>::max_size
; Function compile flags: /Ogsp
;	COMDAT ?max_size@?$allocator@UFileDriveItem@@@std@@QBEIXZ
_TEXT	SEGMENT
?max_size@?$allocator@UFileDriveItem@@@std@@QBEIXZ PROC	; std::allocator<FileDriveItem>::max_size, COMDAT
; _this$ = ecx

; 218  : 		_SIZT _Count = (_SIZT)(-1) / sizeof (_Ty);
; 219  : 		return (0 < _Count ? _Count : 1);

  00000	b8 cc cc cc 0c	 mov	 eax, 214748364		; 0cccccccH

; 220  : 		}

  00005	c3		 ret	 0
?max_size@?$allocator@UFileDriveItem@@@std@@QBEIXZ ENDP	; std::allocator<FileDriveItem>::max_size
_TEXT	ENDS
PUBLIC	?capacity@?$vector@UFileInfo@FileListWnd@@V?$allocator@UFileInfo@FileListWnd@@@std@@@std@@QBEIXZ ; std::vector<FileListWnd::FileInfo,std::allocator<FileListWnd::FileInfo> >::capacity
; Function compile flags: /Ogsp
; File c:\program files (x86)\microsoft visual studio 10.0\vc\include\vector
;	COMDAT ?capacity@?$vector@UFileInfo@FileListWnd@@V?$allocator@UFileInfo@FileListWnd@@@std@@@std@@QBEIXZ
_TEXT	SEGMENT
?capacity@?$vector@UFileInfo@FileListWnd@@V?$allocator@UFileInfo@FileListWnd@@@std@@@std@@QBEIXZ PROC ; std::vector<FileListWnd::FileInfo,std::allocator<FileListWnd::FileInfo> >::capacity, COMDAT
; _this$ = ecx

; 777  : 		return (this->_Myend - this->_Myfirst);

  00000	8b 41 08	 mov	 eax, DWORD PTR [ecx+8]
  00003	2b 01		 sub	 eax, DWORD PTR [ecx]
  00005	6a 14		 push	 20			; 00000014H
  00007	99		 cdq
  00008	59		 pop	 ecx
  00009	f7 f9		 idiv	 ecx

; 778  : 		}

  0000b	c3		 ret	 0
?capacity@?$vector@UFileInfo@FileListWnd@@V?$allocator@UFileInfo@FileListWnd@@@std@@@std@@QBEIXZ ENDP ; std::vector<FileListWnd::FileInfo,std::allocator<FileListWnd::FileInfo> >::capacity
_TEXT	ENDS
PUBLIC	?_Xlen@?$vector@UFileInfo@FileListWnd@@V?$allocator@UFileInfo@FileListWnd@@@std@@@std@@IBEXXZ ; std::vector<FileListWnd::FileInfo,std::allocator<FileListWnd::FileInfo> >::_Xlen
; Function compile flags: /Ogsp
;	COMDAT ?_Xlen@?$vector@UFileInfo@FileListWnd@@V?$allocator@UFileInfo@FileListWnd@@@std@@@std@@IBEXXZ
_TEXT	SEGMENT
?_Xlen@?$vector@UFileInfo@FileListWnd@@V?$allocator@UFileInfo@FileListWnd@@@std@@@std@@IBEXXZ PROC ; std::vector<FileListWnd::FileInfo,std::allocator<FileListWnd::FileInfo> >::_Xlen, COMDAT
; _this$ = ecx

; 1427 : 		_Xlength_error("vector<T> too long");

  00000	68 00 00 00 00	 push	 OFFSET ??_C@_0BD@OLBABOEK@vector?$DMT?$DO?5too?5long?$AA@
  00005	ff 15 00 00 00
	00		 call	 DWORD PTR __imp_?_Xlength_error@std@@YAXPBD@Z
$LN4@Xlen@2:
$LN3@Xlen@2:
  0000b	cc		 int	 3
?_Xlen@?$vector@UFileInfo@FileListWnd@@V?$allocator@UFileInfo@FileListWnd@@@std@@@std@@IBEXXZ ENDP ; std::vector<FileListWnd::FileInfo,std::allocator<FileListWnd::FileInfo> >::_Xlen
_TEXT	ENDS
PUBLIC	??0?$allocator@UFileInfo@FileListWnd@@@std@@QAE@ABV01@@Z ; std::allocator<FileListWnd::FileInfo>::allocator<FileListWnd::FileInfo>
; Function compile flags: /Ogsp
; File c:\program files (x86)\microsoft visual studio 10.0\vc\include\xmemory
;	COMDAT ??0?$allocator@UFileInfo@FileListWnd@@@std@@QAE@ABV01@@Z
_TEXT	SEGMENT
___formal$ = 8						; size = 4
??0?$allocator@UFileInfo@FileListWnd@@@std@@QAE@ABV01@@Z PROC ; std::allocator<FileListWnd::FileInfo>::allocator<FileListWnd::FileInfo>, COMDAT
; _this$ = ecx

; 165  : 	_ALLOCATOR(const _ALLOCATOR<_Ty>&) _THROW0()

  00000	8b c1		 mov	 eax, ecx

; 166  : 		{	// construct by copying (do nothing)
; 167  : 		}

  00002	c2 04 00	 ret	 4
??0?$allocator@UFileInfo@FileListWnd@@@std@@QAE@ABV01@@Z ENDP ; std::allocator<FileListWnd::FileInfo>::allocator<FileListWnd::FileInfo>
_TEXT	ENDS
PUBLIC	?deallocate@?$allocator@UFileInfo@FileListWnd@@@std@@QAEXPAUFileInfo@FileListWnd@@I@Z ; std::allocator<FileListWnd::FileInfo>::deallocate
; Function compile flags: /Ogsp
;	COMDAT ?deallocate@?$allocator@UFileInfo@FileListWnd@@@std@@QAEXPAUFileInfo@FileListWnd@@I@Z
_TEXT	SEGMENT
__Ptr$ = 8						; size = 4
___formal$ = 12						; size = 4
?deallocate@?$allocator@UFileInfo@FileListWnd@@@std@@QAEXPAUFileInfo@FileListWnd@@I@Z PROC ; std::allocator<FileListWnd::FileInfo>::deallocate, COMDAT
; _this$ = ecx

; 181  : 		{	// deallocate object at _Ptr, ignore size

  00000	55		 push	 ebp
  00001	8b ec		 mov	 ebp, esp

; 182  : 		::operator delete(_Ptr);

  00003	ff 75 08	 push	 DWORD PTR __Ptr$[ebp]
  00006	e8 00 00 00 00	 call	 ??3@YAXPAX@Z		; operator delete
  0000b	59		 pop	 ecx

; 183  : 		}

  0000c	5d		 pop	 ebp
  0000d	c2 08 00	 ret	 8
?deallocate@?$allocator@UFileInfo@FileListWnd@@@std@@QAEXPAUFileInfo@FileListWnd@@I@Z ENDP ; std::allocator<FileListWnd::FileInfo>::deallocate
_TEXT	ENDS
PUBLIC	??0?$_Vector_const_iterator@V?$_Vector_val@UFileDriveItem@@V?$allocator@UFileDriveItem@@@std@@@std@@@std@@QAE@PAUFileDriveItem@@PBU_Container_base0@1@@Z ; std::_Vector_const_iterator<std::_Vector_val<FileDriveItem,std::allocator<FileDriveItem> > >::_Vector_const_iterator<std::_Vector_val<FileDriveItem,std::allocator<FileDriveItem> > >
; Function compile flags: /Ogsp
; File c:\program files (x86)\microsoft visual studio 10.0\vc\include\vector
;	COMDAT ??0?$_Vector_const_iterator@V?$_Vector_val@UFileDriveItem@@V?$allocator@UFileDriveItem@@@std@@@std@@@std@@QAE@PAUFileDriveItem@@PBU_Container_base0@1@@Z
_TEXT	SEGMENT
__Parg$ = 8						; size = 4
__Pvector$ = 12						; size = 4
??0?$_Vector_const_iterator@V?$_Vector_val@UFileDriveItem@@V?$allocator@UFileDriveItem@@@std@@@std@@@std@@QAE@PAUFileDriveItem@@PBU_Container_base0@1@@Z PROC ; std::_Vector_const_iterator<std::_Vector_val<FileDriveItem,std::allocator<FileDriveItem> > >::_Vector_const_iterator<std::_Vector_val<FileDriveItem,std::allocator<FileDriveItem> > >, COMDAT
; _this$ = ecx

; 45   : 		{	// construct with pointer _Parg

  00000	55		 push	 ebp
  00001	8b ec		 mov	 ebp, esp
  00003	8b c1		 mov	 eax, ecx
  00005	8b 4d 08	 mov	 ecx, DWORD PTR __Parg$[ebp]
  00008	89 08		 mov	 DWORD PTR [eax], ecx

; 46   : 		this->_Adopt(_Pvector);
; 47   : 		}

  0000a	5d		 pop	 ebp
  0000b	c2 08 00	 ret	 8
??0?$_Vector_const_iterator@V?$_Vector_val@UFileDriveItem@@V?$allocator@UFileDriveItem@@@std@@@std@@@std@@QAE@PAUFileDriveItem@@PBU_Container_base0@1@@Z ENDP ; std::_Vector_const_iterator<std::_Vector_val<FileDriveItem,std::allocator<FileDriveItem> > >::_Vector_const_iterator<std::_Vector_val<FileDriveItem,std::allocator<FileDriveItem> > >
_TEXT	ENDS
PUBLIC	??0?$_Vector_const_iterator@V?$_Vector_val@UFileInfo@FileListWnd@@V?$allocator@UFileInfo@FileListWnd@@@std@@@std@@@std@@QAE@PAUFileInfo@FileListWnd@@PBU_Container_base0@1@@Z ; std::_Vector_const_iterator<std::_Vector_val<FileListWnd::FileInfo,std::allocator<FileListWnd::FileInfo> > >::_Vector_const_iterator<std::_Vector_val<FileListWnd::FileInfo,std::allocator<FileListWnd::FileInfo> > >
; Function compile flags: /Ogsp
;	COMDAT ??0?$_Vector_const_iterator@V?$_Vector_val@UFileInfo@FileListWnd@@V?$allocator@UFileInfo@FileListWnd@@@std@@@std@@@std@@QAE@PAUFileInfo@FileListWnd@@PBU_Container_base0@1@@Z
_TEXT	SEGMENT
__Parg$ = 8						; size = 4
__Pvector$ = 12						; size = 4
??0?$_Vector_const_iterator@V?$_Vector_val@UFileInfo@FileListWnd@@V?$allocator@UFileInfo@FileListWnd@@@std@@@std@@@std@@QAE@PAUFileInfo@FileListWnd@@PBU_Container_base0@1@@Z PROC ; std::_Vector_const_iterator<std::_Vector_val<FileListWnd::FileInfo,std::allocator<FileListWnd::FileInfo> > >::_Vector_const_iterator<std::_Vector_val<FileListWnd::FileInfo,std::allocator<FileListWnd::FileInfo> > >, COMDAT
; _this$ = ecx

; 45   : 		{	// construct with pointer _Parg

  00000	55		 push	 ebp
  00001	8b ec		 mov	 ebp, esp
  00003	8b c1		 mov	 eax, ecx
  00005	8b 4d 08	 mov	 ecx, DWORD PTR __Parg$[ebp]
  00008	89 08		 mov	 DWORD PTR [eax], ecx

; 46   : 		this->_Adopt(_Pvector);
; 47   : 		}

  0000a	5d		 pop	 ebp
  0000b	c2 08 00	 ret	 8
??0?$_Vector_const_iterator@V?$_Vector_val@UFileInfo@FileListWnd@@V?$allocator@UFileInfo@FileListWnd@@@std@@@std@@@std@@QAE@PAUFileInfo@FileListWnd@@PBU_Container_base0@1@@Z ENDP ; std::_Vector_const_iterator<std::_Vector_val<FileListWnd::FileInfo,std::allocator<FileListWnd::FileInfo> > >::_Vector_const_iterator<std::_Vector_val<FileListWnd::FileInfo,std::allocator<FileListWnd::FileInfo> > >
_TEXT	ENDS
PUBLIC	?_Compat@?$_Vector_const_iterator@V?$_Vector_val@UFileInfo@FileListWnd@@V?$allocator@UFileInfo@FileListWnd@@@std@@@std@@@std@@QBEXABV12@@Z ; std::_Vector_const_iterator<std::_Vector_val<FileListWnd::FileInfo,std::allocator<FileListWnd::FileInfo> > >::_Compat
; Function compile flags: /Ogsp
;	COMDAT ?_Compat@?$_Vector_const_iterator@V?$_Vector_val@UFileInfo@FileListWnd@@V?$allocator@UFileInfo@FileListWnd@@@std@@@std@@@std@@QBEXABV12@@Z
_TEXT	SEGMENT
___formal$ = 8						; size = 4
?_Compat@?$_Vector_const_iterator@V?$_Vector_val@UFileInfo@FileListWnd@@V?$allocator@UFileInfo@FileListWnd@@@std@@@std@@@std@@QBEXABV12@@Z PROC ; std::_Vector_const_iterator<std::_Vector_val<FileListWnd::FileInfo,std::allocator<FileListWnd::FileInfo> > >::_Compat, COMDAT
; _this$ = ecx

; 253  : 		}

  00000	c2 04 00	 ret	 4
?_Compat@?$_Vector_const_iterator@V?$_Vector_val@UFileInfo@FileListWnd@@V?$allocator@UFileInfo@FileListWnd@@@std@@@std@@@std@@QBEXABV12@@Z ENDP ; std::_Vector_const_iterator<std::_Vector_val<FileListWnd::FileInfo,std::allocator<FileListWnd::FileInfo> > >::_Compat
_TEXT	ENDS
PUBLIC	?max_size@?$allocator@UFileInfo@FileListWnd@@@std@@QBEIXZ ; std::allocator<FileListWnd::FileInfo>::max_size
; Function compile flags: /Ogsp
; File c:\program files (x86)\microsoft visual studio 10.0\vc\include\xmemory
;	COMDAT ?max_size@?$allocator@UFileInfo@FileListWnd@@@std@@QBEIXZ
_TEXT	SEGMENT
?max_size@?$allocator@UFileInfo@FileListWnd@@@std@@QBEIXZ PROC ; std::allocator<FileListWnd::FileInfo>::max_size, COMDAT
; _this$ = ecx

; 218  : 		_SIZT _Count = (_SIZT)(-1) / sizeof (_Ty);
; 219  : 		return (0 < _Count ? _Count : 1);

  00000	b8 cc cc cc 0c	 mov	 eax, 214748364		; 0cccccccH

; 220  : 		}

  00005	c3		 ret	 0
?max_size@?$allocator@UFileInfo@FileListWnd@@@std@@QBEIXZ ENDP ; std::allocator<FileListWnd::FileInfo>::max_size
_TEXT	ENDS
PUBLIC	??Y?$_Vector_const_iterator@V?$_Vector_val@UFileDriveItem@@V?$allocator@UFileDriveItem@@@std@@@std@@@std@@QAEAAV01@H@Z ; std::_Vector_const_iterator<std::_Vector_val<FileDriveItem,std::allocator<FileDriveItem> > >::operator+=
; Function compile flags: /Ogsp
; File c:\program files (x86)\microsoft visual studio 10.0\vc\include\vector
;	COMDAT ??Y?$_Vector_const_iterator@V?$_Vector_val@UFileDriveItem@@V?$allocator@UFileDriveItem@@@std@@@std@@@std@@QAEAAV01@H@Z
_TEXT	SEGMENT
__Off$ = 8						; size = 4
??Y?$_Vector_const_iterator@V?$_Vector_val@UFileDriveItem@@V?$allocator@UFileDriveItem@@@std@@@std@@@std@@QAEAAV01@H@Z PROC ; std::_Vector_const_iterator<std::_Vector_val<FileDriveItem,std::allocator<FileDriveItem> > >::operator+=, COMDAT
; _this$ = ecx

; 151  : 		{	// increment by integer

  00000	55		 push	 ebp
  00001	8b ec		 mov	 ebp, esp
  00003	8b c1		 mov	 eax, ecx

; 152  :  #if _ITERATOR_DEBUG_LEVEL == 2
; 153  : 		if (this->_Getcont() == 0
; 154  : 			|| this->_Ptr + _Off < ((_Myvec *)this->_Getcont())->_Myfirst
; 155  : 			|| ((_Myvec *)this->_Getcont())->_Mylast < this->_Ptr + _Off)
; 156  : 			{	// report error
; 157  : 			_DEBUG_ERROR("vector iterator + offset out of range");
; 158  : 			_SCL_SECURE_OUT_OF_RANGE;
; 159  : 			}
; 160  : 
; 161  :  #elif _ITERATOR_DEBUG_LEVEL == 1
; 162  : 		_SCL_SECURE_VALIDATE(this->_Getcont() != 0);
; 163  : 		_SCL_SECURE_VALIDATE_RANGE(
; 164  : 			((_Myvec *)this->_Getcont())->_Myfirst <= this->_Ptr + _Off
; 165  : 			&& this->_Ptr + _Off <= ((_Myvec *)this->_Getcont())->_Mylast);
; 166  :  #endif /* _ITERATOR_DEBUG_LEVEL */
; 167  : 
; 168  : 		_Ptr += _Off;

  00005	8b 4d 08	 mov	 ecx, DWORD PTR __Off$[ebp]
  00008	6b c9 14	 imul	 ecx, 20			; 00000014H
  0000b	01 08		 add	 DWORD PTR [eax], ecx

; 169  : 		return (*this);
; 170  : 		}

  0000d	5d		 pop	 ebp
  0000e	c2 04 00	 ret	 4
??Y?$_Vector_const_iterator@V?$_Vector_val@UFileDriveItem@@V?$allocator@UFileDriveItem@@@std@@@std@@@std@@QAEAAV01@H@Z ENDP ; std::_Vector_const_iterator<std::_Vector_val<FileDriveItem,std::allocator<FileDriveItem> > >::operator+=
_TEXT	ENDS
PUBLIC	?_Compat@?$_Vector_const_iterator@V?$_Vector_val@UFileDriveItem@@V?$allocator@UFileDriveItem@@@std@@@std@@@std@@QBEXABV12@@Z ; std::_Vector_const_iterator<std::_Vector_val<FileDriveItem,std::allocator<FileDriveItem> > >::_Compat
; Function compile flags: /Ogsp
;	COMDAT ?_Compat@?$_Vector_const_iterator@V?$_Vector_val@UFileDriveItem@@V?$allocator@UFileDriveItem@@@std@@@std@@@std@@QBEXABV12@@Z
_TEXT	SEGMENT
___formal$ = 8						; size = 4
?_Compat@?$_Vector_const_iterator@V?$_Vector_val@UFileDriveItem@@V?$allocator@UFileDriveItem@@@std@@@std@@@std@@QBEXABV12@@Z PROC ; std::_Vector_const_iterator<std::_Vector_val<FileDriveItem,std::allocator<FileDriveItem> > >::_Compat, COMDAT
; _this$ = ecx

; 253  : 		}

  00000	c2 04 00	 ret	 4
?_Compat@?$_Vector_const_iterator@V?$_Vector_val@UFileDriveItem@@V?$allocator@UFileDriveItem@@@std@@@std@@@std@@QBEXABV12@@Z ENDP ; std::_Vector_const_iterator<std::_Vector_val<FileDriveItem,std::allocator<FileDriveItem> > >::_Compat
_TEXT	ENDS
PUBLIC	??$addressof@VioHashString@@@std@@YAPAVioHashString@@AAV1@@Z ; std::addressof<ioHashString>
; Function compile flags: /Ogsp
; File c:\program files (x86)\microsoft visual studio 10.0\vc\include\xmemory
;	COMDAT ??$addressof@VioHashString@@@std@@YAPAVioHashString@@AAV1@@Z
_TEXT	SEGMENT
__Val$ = 8						; size = 4
??$addressof@VioHashString@@@std@@YAPAVioHashString@@AAV1@@Z PROC ; std::addressof<ioHashString>, COMDAT

; 110  : 	{	// return address of _Val

  00000	55		 push	 ebp
  00001	8b ec		 mov	 ebp, esp

; 111  : 	return ((_Ty *) &(char&)_Val);

  00003	8b 45 08	 mov	 eax, DWORD PTR __Val$[ebp]

; 112  : 	}

  00006	5d		 pop	 ebp
  00007	c3		 ret	 0
??$addressof@VioHashString@@@std@@YAPAVioHashString@@AAV1@@Z ENDP ; std::addressof<ioHashString>
_TEXT	ENDS
PUBLIC	??$forward@VioHashString@@@std@@YA$$QAVioHashString@@AAV1@@Z ; std::forward<ioHashString>
; Function compile flags: /Ogsp
; File c:\program files (x86)\microsoft visual studio 10.0\vc\include\utility
;	COMDAT ??$forward@VioHashString@@@std@@YA$$QAVioHashString@@AAV1@@Z
_TEXT	SEGMENT
__Arg$ = 8						; size = 4
??$forward@VioHashString@@@std@@YA$$QAVioHashString@@AAV1@@Z PROC ; std::forward<ioHashString>, COMDAT

; 78   : 	{	// forward _Arg, given explicitly specified type parameter

  00000	55		 push	 ebp
  00001	8b ec		 mov	 ebp, esp

; 79   : 	return ((_Ty&&)_Arg);

  00003	8b 45 08	 mov	 eax, DWORD PTR __Arg$[ebp]

; 80   : 	}

  00006	5d		 pop	 ebp
  00007	c3		 ret	 0
??$forward@VioHashString@@@std@@YA$$QAVioHashString@@AAV1@@Z ENDP ; std::forward<ioHashString>
_TEXT	ENDS
PUBLIC	??$addressof@$$CBUFileDriveItem@@@std@@YAPBUFileDriveItem@@ABU1@@Z ; std::addressof<FileDriveItem const >
; Function compile flags: /Ogsp
; File c:\program files (x86)\microsoft visual studio 10.0\vc\include\xmemory
;	COMDAT ??$addressof@$$CBUFileDriveItem@@@std@@YAPBUFileDriveItem@@ABU1@@Z
_TEXT	SEGMENT
__Val$ = 8						; size = 4
??$addressof@$$CBUFileDriveItem@@@std@@YAPBUFileDriveItem@@ABU1@@Z PROC ; std::addressof<FileDriveItem const >, COMDAT

; 110  : 	{	// return address of _Val

  00000	55		 push	 ebp
  00001	8b ec		 mov	 ebp, esp

; 111  : 	return ((_Ty *) &(char&)_Val);

  00003	8b 45 08	 mov	 eax, DWORD PTR __Val$[ebp]

; 112  : 	}

  00006	5d		 pop	 ebp
  00007	c3		 ret	 0
??$addressof@$$CBUFileDriveItem@@@std@@YAPBUFileDriveItem@@ABU1@@Z ENDP ; std::addressof<FileDriveItem const >
_TEXT	ENDS
PUBLIC	??$addressof@$$CBUFileInfo@FileListWnd@@@std@@YAPBUFileInfo@FileListWnd@@ABU12@@Z ; std::addressof<FileListWnd::FileInfo const >
; Function compile flags: /Ogsp
;	COMDAT ??$addressof@$$CBUFileInfo@FileListWnd@@@std@@YAPBUFileInfo@FileListWnd@@ABU12@@Z
_TEXT	SEGMENT
__Val$ = 8						; size = 4
??$addressof@$$CBUFileInfo@FileListWnd@@@std@@YAPBUFileInfo@FileListWnd@@ABU12@@Z PROC ; std::addressof<FileListWnd::FileInfo const >, COMDAT

; 110  : 	{	// return address of _Val

  00000	55		 push	 ebp
  00001	8b ec		 mov	 ebp, esp

; 111  : 	return ((_Ty *) &(char&)_Val);

  00003	8b 45 08	 mov	 eax, DWORD PTR __Val$[ebp]

; 112  : 	}

  00006	5d		 pop	 ebp
  00007	c3		 ret	 0
??$addressof@$$CBUFileInfo@FileListWnd@@@std@@YAPBUFileInfo@FileListWnd@@ABU12@@Z ENDP ; std::addressof<FileListWnd::FileInfo const >
_TEXT	ENDS
PUBLIC	__TI2?AVbad_alloc@std@@
PUBLIC	??$_Allocate@UFileDriveItem@@@std@@YAPAUFileDriveItem@@IPAU1@@Z ; std::_Allocate<FileDriveItem>
PUBLIC	__CTA2?AVbad_alloc@std@@
PUBLIC	__CT??_R0?AVbad_alloc@std@@@8??0bad_alloc@std@@QAE@ABV01@@Z12
PUBLIC	??0bad_alloc@std@@QAE@ABV01@@Z			; std::bad_alloc::bad_alloc
PUBLIC	__CT??_R0?AVexception@std@@@8??0exception@std@@QAE@ABV01@@Z12
EXTRN	??2@YAPAXI@Z:PROC				; operator new
EXTRN	__CxxThrowException@8:PROC
EXTRN	??0exception@std@@QAE@ABV01@@Z:PROC		; std::exception::exception
;	COMDAT __CT??_R0?AVexception@std@@@8??0exception@std@@QAE@ABV01@@Z12
; File c:\program files (x86)\microsoft visual studio 10.0\vc\include\exception
xdata$x	SEGMENT
__CT??_R0?AVexception@std@@@8??0exception@std@@QAE@ABV01@@Z12 DD 00H
	DD	FLAT:??_R0?AVexception@std@@@8
	DD	00H
	DD	0ffffffffH
	ORG $+4
	DD	0cH
	DD	FLAT:??0exception@std@@QAE@ABV01@@Z
xdata$x	ENDS
;	COMDAT __CT??_R0?AVbad_alloc@std@@@8??0bad_alloc@std@@QAE@ABV01@@Z12
xdata$x	SEGMENT
__CT??_R0?AVbad_alloc@std@@@8??0bad_alloc@std@@QAE@ABV01@@Z12 DD 00H
	DD	FLAT:??_R0?AVbad_alloc@std@@@8
	DD	00H
	DD	0ffffffffH
	ORG $+4
	DD	0cH
	DD	FLAT:??0bad_alloc@std@@QAE@ABV01@@Z
xdata$x	ENDS
;	COMDAT __CTA2?AVbad_alloc@std@@
xdata$x	SEGMENT
__CTA2?AVbad_alloc@std@@ DD 02H
	DD	FLAT:__CT??_R0?AVbad_alloc@std@@@8??0bad_alloc@std@@QAE@ABV01@@Z12
	DD	FLAT:__CT??_R0?AVexception@std@@@8??0exception@std@@QAE@ABV01@@Z12
xdata$x	ENDS
;	COMDAT __TI2?AVbad_alloc@std@@
xdata$x	SEGMENT
__TI2?AVbad_alloc@std@@ DD 00H
	DD	FLAT:??1bad_alloc@std@@UAE@XZ
	DD	00H
	DD	FLAT:__CTA2?AVbad_alloc@std@@
; Function compile flags: /Ogsp
; File c:\program files (x86)\microsoft visual studio 10.0\vc\include\xmemory
xdata$x	ENDS
;	COMDAT ??$_Allocate@UFileDriveItem@@@std@@YAPAUFileDriveItem@@IPAU1@@Z
_TEXT	SEGMENT
$T514146 = -12						; size = 12
$T514151 = 8						; size = 4
__Count$ = 8						; size = 4
___formal$ = 12						; size = 4
??$_Allocate@UFileDriveItem@@@std@@YAPAUFileDriveItem@@IPAU1@@Z PROC ; std::_Allocate<FileDriveItem>, COMDAT

; 30   : 	{	// allocate storage for _Count elements of type _Ty

  00000	55		 push	 ebp
  00001	8b ec		 mov	 ebp, esp

; 31   : 	void *_Ptr = 0;
; 32   : 
; 33   : 	if (_Count <= 0)

  00003	8b 4d 08	 mov	 ecx, DWORD PTR __Count$[ebp]
  00006	83 ec 0c	 sub	 esp, 12			; 0000000cH
  00009	33 c0		 xor	 eax, eax
  0000b	85 c9		 test	 ecx, ecx

; 34   : 		_Count = 0;
; 35   : 	else if (((_SIZT)(-1) / sizeof (_Ty) < _Count)

  0000d	74 3c		 je	 SHORT $LN5@Allocate

; 36   : 		|| (_Ptr = ::operator new(_Count * sizeof (_Ty))) == 0)

  0000f	81 f9 cc cc cc
	0c		 cmp	 ecx, 214748364		; 0cccccccH
  00015	77 0e		 ja	 SHORT $LN1@Allocate
  00017	6b c9 14	 imul	 ecx, 20			; 00000014H
  0001a	51		 push	 ecx
  0001b	e8 00 00 00 00	 call	 ??2@YAPAXI@Z		; operator new
  00020	59		 pop	 ecx
  00021	85 c0		 test	 eax, eax

; 38   : 
; 39   : 	return ((_Ty _FARQ *)_Ptr);

  00023	75 26		 jne	 SHORT $LN5@Allocate
$LN1@Allocate:

; 37   : 		_THROW_NCEE(bad_alloc, 0);

  00025	83 65 08 00	 and	 DWORD PTR $T514151[ebp], 0
  00029	8d 45 08	 lea	 eax, DWORD PTR $T514151[ebp]
  0002c	50		 push	 eax
  0002d	8d 4d f4	 lea	 ecx, DWORD PTR $T514146[ebp]
  00030	ff 15 00 00 00
	00		 call	 DWORD PTR __imp_??0exception@std@@QAE@ABQBD@Z
  00036	68 00 00 00 00	 push	 OFFSET __TI2?AVbad_alloc@std@@
  0003b	8d 45 f4	 lea	 eax, DWORD PTR $T514146[ebp]
  0003e	50		 push	 eax
  0003f	c7 45 f4 00 00
	00 00		 mov	 DWORD PTR $T514146[ebp], OFFSET ??_7bad_alloc@std@@6B@
  00046	e8 00 00 00 00	 call	 __CxxThrowException@8
$LN10@Allocate:
$LN5@Allocate:

; 40   : 	}

  0004b	c9		 leave
  0004c	c3		 ret	 0
$LN9@Allocate:
??$_Allocate@UFileDriveItem@@@std@@YAPAUFileDriveItem@@IPAU1@@Z ENDP ; std::_Allocate<FileDriveItem>
_TEXT	ENDS
PUBLIC	??$_Allocate@UFileInfo@FileListWnd@@@std@@YAPAUFileInfo@FileListWnd@@IPAU12@@Z ; std::_Allocate<FileListWnd::FileInfo>
; Function compile flags: /Ogsp
;	COMDAT ??$_Allocate@UFileInfo@FileListWnd@@@std@@YAPAUFileInfo@FileListWnd@@IPAU12@@Z
_TEXT	SEGMENT
$T514156 = -12						; size = 12
$T514160 = 8						; size = 4
__Count$ = 8						; size = 4
___formal$ = 12						; size = 4
??$_Allocate@UFileInfo@FileListWnd@@@std@@YAPAUFileInfo@FileListWnd@@IPAU12@@Z PROC ; std::_Allocate<FileListWnd::FileInfo>, COMDAT

; 30   : 	{	// allocate storage for _Count elements of type _Ty

  00000	55		 push	 ebp
  00001	8b ec		 mov	 ebp, esp

; 31   : 	void *_Ptr = 0;
; 32   : 
; 33   : 	if (_Count <= 0)

  00003	8b 4d 08	 mov	 ecx, DWORD PTR __Count$[ebp]
  00006	83 ec 0c	 sub	 esp, 12			; 0000000cH
  00009	33 c0		 xor	 eax, eax
  0000b	85 c9		 test	 ecx, ecx

; 34   : 		_Count = 0;
; 35   : 	else if (((_SIZT)(-1) / sizeof (_Ty) < _Count)

  0000d	74 3c		 je	 SHORT $LN5@Allocate@2

; 36   : 		|| (_Ptr = ::operator new(_Count * sizeof (_Ty))) == 0)

  0000f	81 f9 cc cc cc
	0c		 cmp	 ecx, 214748364		; 0cccccccH
  00015	77 0e		 ja	 SHORT $LN1@Allocate@2
  00017	6b c9 14	 imul	 ecx, 20			; 00000014H
  0001a	51		 push	 ecx
  0001b	e8 00 00 00 00	 call	 ??2@YAPAXI@Z		; operator new
  00020	59		 pop	 ecx
  00021	85 c0		 test	 eax, eax

; 38   : 
; 39   : 	return ((_Ty _FARQ *)_Ptr);

  00023	75 26		 jne	 SHORT $LN5@Allocate@2
$LN1@Allocate@2:

; 37   : 		_THROW_NCEE(bad_alloc, 0);

  00025	83 65 08 00	 and	 DWORD PTR $T514160[ebp], 0
  00029	8d 45 08	 lea	 eax, DWORD PTR $T514160[ebp]
  0002c	50		 push	 eax
  0002d	8d 4d f4	 lea	 ecx, DWORD PTR $T514156[ebp]
  00030	ff 15 00 00 00
	00		 call	 DWORD PTR __imp_??0exception@std@@QAE@ABQBD@Z
  00036	68 00 00 00 00	 push	 OFFSET __TI2?AVbad_alloc@std@@
  0003b	8d 45 f4	 lea	 eax, DWORD PTR $T514156[ebp]
  0003e	50		 push	 eax
  0003f	c7 45 f4 00 00
	00 00		 mov	 DWORD PTR $T514156[ebp], OFFSET ??_7bad_alloc@std@@6B@
  00046	e8 00 00 00 00	 call	 __CxxThrowException@8
$LN10@Allocate@2:
$LN5@Allocate@2:

; 40   : 	}

  0004b	c9		 leave
  0004c	c3		 ret	 0
$LN9@Allocate@2:
??$_Allocate@UFileInfo@FileListWnd@@@std@@YAPAUFileInfo@FileListWnd@@IPAU12@@Z ENDP ; std::_Allocate<FileListWnd::FileInfo>
_TEXT	ENDS
PUBLIC	?construct@?$allocator@VioHashString@@@std@@QAEXPAVioHashString@@$$QAV3@@Z ; std::allocator<ioHashString>::construct
;	COMDAT xdata$x
; File c:\program files (x86)\microsoft visual studio 10.0\vc\include\utility
xdata$x	SEGMENT
__unwindtable$?construct@?$allocator@VioHashString@@@std@@QAEXPAVioHashString@@$$QAV3@@Z DD 0ffffffffH
	DD	FLAT:__unwindfunclet$?construct@?$allocator@VioHashString@@@std@@QAEXPAVioHashString@@$$QAV3@@Z$0
__ehfuncinfo$?construct@?$allocator@VioHashString@@@std@@QAEXPAVioHashString@@$$QAV3@@Z DD 019930522H
	DD	01H
	DD	FLAT:__unwindtable$?construct@?$allocator@VioHashString@@@std@@QAEXPAVioHashString@@$$QAV3@@Z
	DD	2 DUP(00H)
	DD	2 DUP(00H)
	DD	00H
	DD	01H
; Function compile flags: /Ogsp
; File c:\program files (x86)\microsoft visual studio 10.0\vc\include\xmemory
xdata$x	ENDS
;	COMDAT ?construct@?$allocator@VioHashString@@@std@@QAEXPAVioHashString@@$$QAV3@@Z
_TEXT	SEGMENT
$T514166 = -16						; size = 4
__$EHRec$ = -12						; size = 12
__Ptr$ = 8						; size = 4
__Val$ = 12						; size = 4
?construct@?$allocator@VioHashString@@@std@@QAEXPAVioHashString@@$$QAV3@@Z PROC ; std::allocator<ioHashString>::construct, COMDAT
; _this$ = ecx

; 201  : 		{	// construct object at _Ptr with value _Val

  00000	6a 04		 push	 4
  00002	b8 00 00 00 00	 mov	 eax, __ehhandler$?construct@?$allocator@VioHashString@@@std@@QAEXPAVioHashString@@$$QAV3@@Z
  00007	e8 00 00 00 00	 call	 __EH_prolog3

; 202  : 		::new ((void _FARQ *)_Ptr) _Ty(_STD forward<_Ty>(_Val));

  0000c	8b 4d 08	 mov	 ecx, DWORD PTR __Ptr$[ebp]
  0000f	89 4d f0	 mov	 DWORD PTR $T514166[ebp], ecx
  00012	83 65 fc 00	 and	 DWORD PTR __$EHRec$[ebp+8], 0
  00016	85 c9		 test	 ecx, ecx
  00018	74 09		 je	 SHORT $LN3@construct
  0001a	ff 75 0c	 push	 DWORD PTR __Val$[ebp]
  0001d	ff 15 00 00 00
	00		 call	 DWORD PTR __imp_??0ioHashString@@QAE@ABV0@@Z
$LN3@construct:

; 203  : 		}

  00023	e8 00 00 00 00	 call	 __EH_epilog3
  00028	c2 08 00	 ret	 8
_TEXT	ENDS
;	COMDAT text$x
text$x	SEGMENT
__unwindfunclet$?construct@?$allocator@VioHashString@@@std@@QAEXPAVioHashString@@$$QAV3@@Z$0:
  00000	ff 75 08	 push	 DWORD PTR __Ptr$[ebp]
  00003	ff 75 f0	 push	 DWORD PTR $T514166[ebp]
  00006	e8 00 00 00 00	 call	 ??3@YAXPAX0@Z		; operator delete
  0000b	59		 pop	 ecx
  0000c	59		 pop	 ecx
  0000d	c3		 ret	 0
__ehhandler$?construct@?$allocator@VioHashString@@@std@@QAEXPAVioHashString@@$$QAV3@@Z:
  0000e	8b 54 24 08	 mov	 edx, DWORD PTR [esp+8]
  00012	8d 42 0c	 lea	 eax, DWORD PTR [edx+12]
  00015	8b 4a ec	 mov	 ecx, DWORD PTR [edx-20]
  00018	33 c8		 xor	 ecx, eax
  0001a	e8 00 00 00 00	 call	 @__security_check_cookie@4
  0001f	b8 00 00 00 00	 mov	 eax, OFFSET __ehfuncinfo$?construct@?$allocator@VioHashString@@@std@@QAEXPAVioHashString@@$$QAV3@@Z
  00024	e9 00 00 00 00	 jmp	 ___CxxFrameHandler3
text$x	ENDS
?construct@?$allocator@VioHashString@@@std@@QAEXPAVioHashString@@$$QAV3@@Z ENDP ; std::allocator<ioHashString>::construct
PUBLIC	??G?$_Vector_const_iterator@V?$_Vector_val@UFileInfo@FileListWnd@@V?$allocator@UFileInfo@FileListWnd@@@std@@@std@@@std@@QBEHABV01@@Z ; std::_Vector_const_iterator<std::_Vector_val<FileListWnd::FileInfo,std::allocator<FileListWnd::FileInfo> > >::operator-
; Function compile flags: /Ogsp
; File c:\program files (x86)\microsoft visual studio 10.0\vc\include\vector
;	COMDAT ??G?$_Vector_const_iterator@V?$_Vector_val@UFileInfo@FileListWnd@@V?$allocator@UFileInfo@FileListWnd@@@std@@@std@@@std@@QBEHABV01@@Z
_TEXT	SEGMENT
__Right$ = 8						; size = 4
??G?$_Vector_const_iterator@V?$_Vector_val@UFileInfo@FileListWnd@@V?$allocator@UFileInfo@FileListWnd@@@std@@@std@@@std@@QBEHABV01@@Z PROC ; std::_Vector_const_iterator<std::_Vector_val<FileListWnd::FileInfo,std::allocator<FileListWnd::FileInfo> > >::operator-, COMDAT
; _this$ = ecx

; 190  : 		{	// return difference of iterators

  00000	55		 push	 ebp
  00001	8b ec		 mov	 ebp, esp

; 191  : 		_Compat(_Right);
; 192  : 		return (this->_Ptr - _Right._Ptr);

  00003	8b 01		 mov	 eax, DWORD PTR [ecx]
  00005	8b 4d 08	 mov	 ecx, DWORD PTR __Right$[ebp]
  00008	2b 01		 sub	 eax, DWORD PTR [ecx]
  0000a	6a 14		 push	 20			; 00000014H
  0000c	99		 cdq
  0000d	59		 pop	 ecx
  0000e	f7 f9		 idiv	 ecx

; 193  : 		}

  00010	5d		 pop	 ebp
  00011	c2 04 00	 ret	 4
??G?$_Vector_const_iterator@V?$_Vector_val@UFileInfo@FileListWnd@@V?$allocator@UFileInfo@FileListWnd@@@std@@@std@@@std@@QBEHABV01@@Z ENDP ; std::_Vector_const_iterator<std::_Vector_val<FileListWnd::FileInfo,std::allocator<FileListWnd::FileInfo> > >::operator-
_TEXT	ENDS
PUBLIC	??$_Val_type@PAUFileDriveItem@@@std@@YAPAUFileDriveItem@@PAU1@@Z ; std::_Val_type<FileDriveItem *>
; Function compile flags: /Ogsp
; File c:\program files (x86)\microsoft visual studio 10.0\vc\include\xutility
;	COMDAT ??$_Val_type@PAUFileDriveItem@@@std@@YAPAUFileDriveItem@@PAU1@@Z
_TEXT	SEGMENT
___formal$ = 8						; size = 4
??$_Val_type@PAUFileDriveItem@@@std@@YAPAUFileDriveItem@@PAU1@@Z PROC ; std::_Val_type<FileDriveItem *>, COMDAT

; 790  : 	return (0);

  00000	33 c0		 xor	 eax, eax

; 791  : 	}

  00002	c3		 ret	 0
??$_Val_type@PAUFileDriveItem@@@std@@YAPAUFileDriveItem@@PAU1@@Z ENDP ; std::_Val_type<FileDriveItem *>
_TEXT	ENDS
PUBLIC	??$_Ptr_cat@UFileDriveItem@@U1@@std@@YA?AU_Nonscalar_ptr_iterator_tag@0@PAUFileDriveItem@@0@Z ; std::_Ptr_cat<FileDriveItem,FileDriveItem>
; Function compile flags: /Ogsp
;	COMDAT ??$_Ptr_cat@UFileDriveItem@@U1@@std@@YA?AU_Nonscalar_ptr_iterator_tag@0@PAUFileDriveItem@@0@Z
_TEXT	SEGMENT
__Cat$ = -1						; size = 1
___formal$ = 8						; size = 4
___formal$ = 12						; size = 4
??$_Ptr_cat@UFileDriveItem@@U1@@std@@YA?AU_Nonscalar_ptr_iterator_tag@0@PAUFileDriveItem@@0@Z PROC ; std::_Ptr_cat<FileDriveItem,FileDriveItem>, COMDAT

; 516  : 	{	// return pointer category from pointers

  00000	55		 push	 ebp
  00001	8b ec		 mov	 ebp, esp
  00003	51		 push	 ecx

; 517  : 	typename _Ptr_cat_helper<_Elem1, _Elem2>::_Type _Cat;
; 518  : 	return (_Cat);

  00004	8a 45 ff	 mov	 al, BYTE PTR __Cat$[ebp]

; 519  : 	}

  00007	c9		 leave
  00008	c3		 ret	 0
??$_Ptr_cat@UFileDriveItem@@U1@@std@@YA?AU_Nonscalar_ptr_iterator_tag@0@PAUFileDriveItem@@0@Z ENDP ; std::_Ptr_cat<FileDriveItem,FileDriveItem>
_TEXT	ENDS
PUBLIC	??$forward@AAUFileDriveItem@@@std@@YAAAUFileDriveItem@@AAU1@@Z ; std::forward<FileDriveItem &>
; Function compile flags: /Ogsp
; File c:\program files (x86)\microsoft visual studio 10.0\vc\include\utility
;	COMDAT ??$forward@AAUFileDriveItem@@@std@@YAAAUFileDriveItem@@AAU1@@Z
_TEXT	SEGMENT
__Arg$ = 8						; size = 4
??$forward@AAUFileDriveItem@@@std@@YAAAUFileDriveItem@@AAU1@@Z PROC ; std::forward<FileDriveItem &>, COMDAT

; 78   : 	{	// forward _Arg, given explicitly specified type parameter

  00000	55		 push	 ebp
  00001	8b ec		 mov	 ebp, esp

; 79   : 	return ((_Ty&&)_Arg);

  00003	8b 45 08	 mov	 eax, DWORD PTR __Arg$[ebp]

; 80   : 	}

  00006	5d		 pop	 ebp
  00007	c3		 ret	 0
??$forward@AAUFileDriveItem@@@std@@YAAAUFileDriveItem@@AAU1@@Z ENDP ; std::forward<FileDriveItem &>
_TEXT	ENDS
PUBLIC	??$construct@AAUFileDriveItem@@@?$allocator@UFileDriveItem@@@std@@QAEXPAUFileDriveItem@@AAU2@@Z ; std::allocator<FileDriveItem>::construct<FileDriveItem &>
;	COMDAT xdata$x
; File d:\lost saga for developer\youtube\tutorial\source\src\lsclient\gui\filelistwnd.cpp
xdata$x	SEGMENT
__unwindtable$??$construct@AAUFileDriveItem@@@?$allocator@UFileDriveItem@@@std@@QAEXPAUFileDriveItem@@AAU2@@Z DD 0ffffffffH
	DD	FLAT:__unwindfunclet$??$construct@AAUFileDriveItem@@@?$allocator@UFileDriveItem@@@std@@QAEXPAUFileDriveItem@@AAU2@@Z$0
__ehfuncinfo$??$construct@AAUFileDriveItem@@@?$allocator@UFileDriveItem@@@std@@QAEXPAUFileDriveItem@@AAU2@@Z DD 019930522H
	DD	01H
	DD	FLAT:__unwindtable$??$construct@AAUFileDriveItem@@@?$allocator@UFileDriveItem@@@std@@QAEXPAUFileDriveItem@@AAU2@@Z
	DD	2 DUP(00H)
	DD	2 DUP(00H)
	DD	00H
	DD	01H
; Function compile flags: /Ogsp
; File c:\program files (x86)\microsoft visual studio 10.0\vc\include\xmemory
xdata$x	ENDS
;	COMDAT ??$construct@AAUFileDriveItem@@@?$allocator@UFileDriveItem@@@std@@QAEXPAUFileDriveItem@@AAU2@@Z
_TEXT	SEGMENT
$T514197 = -16						; size = 4
__$EHRec$ = -12						; size = 12
__Ptr$ = 8						; size = 4
__Val$ = 12						; size = 4
??$construct@AAUFileDriveItem@@@?$allocator@UFileDriveItem@@@std@@QAEXPAUFileDriveItem@@AAU2@@Z PROC ; std::allocator<FileDriveItem>::construct<FileDriveItem &>, COMDAT
; _this$ = ecx

; 206  : 		void construct(pointer _Ptr, _Other&& _Val)

  00000	6a 04		 push	 4
  00002	b8 00 00 00 00	 mov	 eax, __ehhandler$??$construct@AAUFileDriveItem@@@?$allocator@UFileDriveItem@@@std@@QAEXPAUFileDriveItem@@AAU2@@Z
  00007	e8 00 00 00 00	 call	 __EH_prolog3

; 207  : 		{	// construct object at _Ptr with value _Val
; 208  : 		::new ((void _FARQ *)_Ptr) _Ty(_STD forward<_Other>(_Val));

  0000c	8b 75 08	 mov	 esi, DWORD PTR __Ptr$[ebp]
  0000f	89 75 f0	 mov	 DWORD PTR $T514197[ebp], esi
  00012	83 65 fc 00	 and	 DWORD PTR __$EHRec$[ebp+8], 0
  00016	85 f6		 test	 esi, esi
  00018	74 12		 je	 SHORT $LN3@construct@2
  0001a	8b 7d 0c	 mov	 edi, DWORD PTR __Val$[ebp]
  0001d	57		 push	 edi
  0001e	8b ce		 mov	 ecx, esi
  00020	ff 15 00 00 00
	00		 call	 DWORD PTR __imp_??0ioHashString@@QAE@ABV0@@Z
  00026	8b 47 10	 mov	 eax, DWORD PTR [edi+16]
  00029	89 46 10	 mov	 DWORD PTR [esi+16], eax
$LN3@construct@2:

; 209  : 		}

  0002c	e8 00 00 00 00	 call	 __EH_epilog3
  00031	c2 08 00	 ret	 8
_TEXT	ENDS
;	COMDAT text$x
text$x	SEGMENT
__unwindfunclet$??$construct@AAUFileDriveItem@@@?$allocator@UFileDriveItem@@@std@@QAEXPAUFileDriveItem@@AAU2@@Z$0:
  00000	ff 75 08	 push	 DWORD PTR __Ptr$[ebp]
  00003	ff 75 f0	 push	 DWORD PTR $T514197[ebp]
  00006	e8 00 00 00 00	 call	 ??3@YAXPAX0@Z		; operator delete
  0000b	59		 pop	 ecx
  0000c	59		 pop	 ecx
  0000d	c3		 ret	 0
__ehhandler$??$construct@AAUFileDriveItem@@@?$allocator@UFileDriveItem@@@std@@QAEXPAUFileDriveItem@@AAU2@@Z:
  0000e	8b 54 24 08	 mov	 edx, DWORD PTR [esp+8]
  00012	8d 42 0c	 lea	 eax, DWORD PTR [edx+12]
  00015	8b 4a ec	 mov	 ecx, DWORD PTR [edx-20]
  00018	33 c8		 xor	 ecx, eax
  0001a	e8 00 00 00 00	 call	 @__security_check_cookie@4
  0001f	b8 00 00 00 00	 mov	 eax, OFFSET __ehfuncinfo$??$construct@AAUFileDriveItem@@@?$allocator@UFileDriveItem@@@std@@QAEXPAUFileDriveItem@@AAU2@@Z
  00024	e9 00 00 00 00	 jmp	 ___CxxFrameHandler3
text$x	ENDS
??$construct@AAUFileDriveItem@@@?$allocator@UFileDriveItem@@@std@@QAEXPAUFileDriveItem@@AAU2@@Z ENDP ; std::allocator<FileDriveItem>::construct<FileDriveItem &>
PUBLIC	??$forward@ABUFileDriveItem@@@std@@YAABUFileDriveItem@@ABU1@@Z ; std::forward<FileDriveItem const &>
; Function compile flags: /Ogsp
; File c:\program files (x86)\microsoft visual studio 10.0\vc\include\utility
;	COMDAT ??$forward@ABUFileDriveItem@@@std@@YAABUFileDriveItem@@ABU1@@Z
_TEXT	SEGMENT
__Arg$ = 8						; size = 4
??$forward@ABUFileDriveItem@@@std@@YAABUFileDriveItem@@ABU1@@Z PROC ; std::forward<FileDriveItem const &>, COMDAT

; 78   : 	{	// forward _Arg, given explicitly specified type parameter

  00000	55		 push	 ebp
  00001	8b ec		 mov	 ebp, esp

; 79   : 	return ((_Ty&&)_Arg);

  00003	8b 45 08	 mov	 eax, DWORD PTR __Arg$[ebp]

; 80   : 	}

  00006	5d		 pop	 ebp
  00007	c3		 ret	 0
??$forward@ABUFileDriveItem@@@std@@YAABUFileDriveItem@@ABU1@@Z ENDP ; std::forward<FileDriveItem const &>
_TEXT	ENDS
PUBLIC	??$forward@AAUFileInfo@FileListWnd@@@std@@YAAAUFileInfo@FileListWnd@@AAU12@@Z ; std::forward<FileListWnd::FileInfo &>
; Function compile flags: /Ogsp
;	COMDAT ??$forward@AAUFileInfo@FileListWnd@@@std@@YAAAUFileInfo@FileListWnd@@AAU12@@Z
_TEXT	SEGMENT
__Arg$ = 8						; size = 4
??$forward@AAUFileInfo@FileListWnd@@@std@@YAAAUFileInfo@FileListWnd@@AAU12@@Z PROC ; std::forward<FileListWnd::FileInfo &>, COMDAT

; 78   : 	{	// forward _Arg, given explicitly specified type parameter

  00000	55		 push	 ebp
  00001	8b ec		 mov	 ebp, esp

; 79   : 	return ((_Ty&&)_Arg);

  00003	8b 45 08	 mov	 eax, DWORD PTR __Arg$[ebp]

; 80   : 	}

  00006	5d		 pop	 ebp
  00007	c3		 ret	 0
??$forward@AAUFileInfo@FileListWnd@@@std@@YAAAUFileInfo@FileListWnd@@AAU12@@Z ENDP ; std::forward<FileListWnd::FileInfo &>
_TEXT	ENDS
PUBLIC	??$forward@ABUFileInfo@FileListWnd@@@std@@YAABUFileInfo@FileListWnd@@ABU12@@Z ; std::forward<FileListWnd::FileInfo const &>
; Function compile flags: /Ogsp
;	COMDAT ??$forward@ABUFileInfo@FileListWnd@@@std@@YAABUFileInfo@FileListWnd@@ABU12@@Z
_TEXT	SEGMENT
__Arg$ = 8						; size = 4
??$forward@ABUFileInfo@FileListWnd@@@std@@YAABUFileInfo@FileListWnd@@ABU12@@Z PROC ; std::forward<FileListWnd::FileInfo const &>, COMDAT

; 78   : 	{	// forward _Arg, given explicitly specified type parameter

  00000	55		 push	 ebp
  00001	8b ec		 mov	 ebp, esp

; 79   : 	return ((_Ty&&)_Arg);

  00003	8b 45 08	 mov	 eax, DWORD PTR __Arg$[ebp]

; 80   : 	}

  00006	5d		 pop	 ebp
  00007	c3		 ret	 0
??$forward@ABUFileInfo@FileListWnd@@@std@@YAABUFileInfo@FileListWnd@@ABU12@@Z ENDP ; std::forward<FileListWnd::FileInfo const &>
_TEXT	ENDS
PUBLIC	??$_Ptr_cat@UFileInfo@FileListWnd@@U12@@std@@YA?AU_Nonscalar_ptr_iterator_tag@0@PAUFileInfo@FileListWnd@@0@Z ; std::_Ptr_cat<FileListWnd::FileInfo,FileListWnd::FileInfo>
; Function compile flags: /Ogsp
; File c:\program files (x86)\microsoft visual studio 10.0\vc\include\xutility
;	COMDAT ??$_Ptr_cat@UFileInfo@FileListWnd@@U12@@std@@YA?AU_Nonscalar_ptr_iterator_tag@0@PAUFileInfo@FileListWnd@@0@Z
_TEXT	SEGMENT
__Cat$ = -1						; size = 1
___formal$ = 8						; size = 4
___formal$ = 12						; size = 4
??$_Ptr_cat@UFileInfo@FileListWnd@@U12@@std@@YA?AU_Nonscalar_ptr_iterator_tag@0@PAUFileInfo@FileListWnd@@0@Z PROC ; std::_Ptr_cat<FileListWnd::FileInfo,FileListWnd::FileInfo>, COMDAT

; 516  : 	{	// return pointer category from pointers

  00000	55		 push	 ebp
  00001	8b ec		 mov	 ebp, esp
  00003	51		 push	 ecx

; 517  : 	typename _Ptr_cat_helper<_Elem1, _Elem2>::_Type _Cat;
; 518  : 	return (_Cat);

  00004	8a 45 ff	 mov	 al, BYTE PTR __Cat$[ebp]

; 519  : 	}

  00007	c9		 leave
  00008	c3		 ret	 0
??$_Ptr_cat@UFileInfo@FileListWnd@@U12@@std@@YA?AU_Nonscalar_ptr_iterator_tag@0@PAUFileInfo@FileListWnd@@0@Z ENDP ; std::_Ptr_cat<FileListWnd::FileInfo,FileListWnd::FileInfo>
_TEXT	ENDS
PUBLIC	??$_Construct@UFileDriveItem@@ABU1@@std@@YAXPAUFileDriveItem@@ABU1@@Z ; std::_Construct<FileDriveItem,FileDriveItem const &>
;	COMDAT xdata$x
; File d:\lost saga for developer\youtube\tutorial\source\src\lsclient\gui\filelistwnd.cpp
xdata$x	SEGMENT
__unwindtable$??$_Construct@UFileDriveItem@@ABU1@@std@@YAXPAUFileDriveItem@@ABU1@@Z DD 0ffffffffH
	DD	FLAT:__unwindfunclet$??$_Construct@UFileDriveItem@@ABU1@@std@@YAXPAUFileDriveItem@@ABU1@@Z$0
__ehfuncinfo$??$_Construct@UFileDriveItem@@ABU1@@std@@YAXPAUFileDriveItem@@ABU1@@Z DD 019930522H
	DD	01H
	DD	FLAT:__unwindtable$??$_Construct@UFileDriveItem@@ABU1@@std@@YAXPAUFileDriveItem@@ABU1@@Z
	DD	2 DUP(00H)
	DD	2 DUP(00H)
	DD	00H
	DD	01H
; Function compile flags: /Ogsp
; File c:\program files (x86)\microsoft visual studio 10.0\vc\include\xmemory
xdata$x	ENDS
;	COMDAT ??$_Construct@UFileDriveItem@@ABU1@@std@@YAXPAUFileDriveItem@@ABU1@@Z
_TEXT	SEGMENT
$T514228 = -16						; size = 4
__$EHRec$ = -12						; size = 12
__Vptr$ = 8						; size = 4
__Ptr$ = 8						; size = 4
__Val$ = 12						; size = 4
??$_Construct@UFileDriveItem@@ABU1@@std@@YAXPAUFileDriveItem@@ABU1@@Z PROC ; std::_Construct<FileDriveItem,FileDriveItem const &>, COMDAT

; 46   : 	{	// construct object at _Ptr with value _Val

  00000	6a 04		 push	 4
  00002	b8 00 00 00 00	 mov	 eax, __ehhandler$??$_Construct@UFileDriveItem@@ABU1@@std@@YAXPAUFileDriveItem@@ABU1@@Z
  00007	e8 00 00 00 00	 call	 __EH_prolog3

; 47   : 	void _FARQ *_Vptr = _Ptr;

  0000c	8b 75 08	 mov	 esi, DWORD PTR __Ptr$[ebp]
  0000f	89 75 08	 mov	 DWORD PTR __Vptr$[ebp], esi

; 48   : 	::new (_Vptr) _Ty1(_STD forward<_Ty2>(_Val));

  00012	89 75 f0	 mov	 DWORD PTR $T514228[ebp], esi
  00015	83 65 fc 00	 and	 DWORD PTR __$EHRec$[ebp+8], 0
  00019	85 f6		 test	 esi, esi
  0001b	74 12		 je	 SHORT $LN3@Construct
  0001d	8b 7d 0c	 mov	 edi, DWORD PTR __Val$[ebp]
  00020	57		 push	 edi
  00021	8b ce		 mov	 ecx, esi
  00023	ff 15 00 00 00
	00		 call	 DWORD PTR __imp_??0ioHashString@@QAE@ABV0@@Z
  00029	8b 47 10	 mov	 eax, DWORD PTR [edi+16]
  0002c	89 46 10	 mov	 DWORD PTR [esi+16], eax
$LN3@Construct:

; 49   : 	}

  0002f	e8 00 00 00 00	 call	 __EH_epilog3
  00034	c3		 ret	 0
_TEXT	ENDS
;	COMDAT text$x
text$x	SEGMENT
__unwindfunclet$??$_Construct@UFileDriveItem@@ABU1@@std@@YAXPAUFileDriveItem@@ABU1@@Z$0:
  00000	ff 75 08	 push	 DWORD PTR __Vptr$[ebp]
  00003	ff 75 f0	 push	 DWORD PTR $T514228[ebp]
  00006	e8 00 00 00 00	 call	 ??3@YAXPAX0@Z		; operator delete
  0000b	59		 pop	 ecx
  0000c	59		 pop	 ecx
  0000d	c3		 ret	 0
__ehhandler$??$_Construct@UFileDriveItem@@ABU1@@std@@YAXPAUFileDriveItem@@ABU1@@Z:
  0000e	8b 54 24 08	 mov	 edx, DWORD PTR [esp+8]
  00012	8d 42 0c	 lea	 eax, DWORD PTR [edx+12]
  00015	8b 4a ec	 mov	 ecx, DWORD PTR [edx-20]
  00018	33 c8		 xor	 ecx, eax
  0001a	e8 00 00 00 00	 call	 @__security_check_cookie@4
  0001f	b8 00 00 00 00	 mov	 eax, OFFSET __ehfuncinfo$??$_Construct@UFileDriveItem@@ABU1@@std@@YAXPAUFileDriveItem@@ABU1@@Z
  00024	e9 00 00 00 00	 jmp	 ___CxxFrameHandler3
text$x	ENDS
??$_Construct@UFileDriveItem@@ABU1@@std@@YAXPAUFileDriveItem@@ABU1@@Z ENDP ; std::_Construct<FileDriveItem,FileDriveItem const &>
PUBLIC	??0FileInfo@FileListWnd@@QAE@ABU01@@Z		; FileListWnd::FileInfo::FileInfo
; Function compile flags: /Ogsp
;	COMDAT ??0FileInfo@FileListWnd@@QAE@ABU01@@Z
_TEXT	SEGMENT
___that$ = 8						; size = 4
??0FileInfo@FileListWnd@@QAE@ABU01@@Z PROC		; FileListWnd::FileInfo::FileInfo, COMDAT
; _this$ = ecx
  00000	55		 push	 ebp
  00001	8b ec		 mov	 ebp, esp
  00003	56		 push	 esi
  00004	57		 push	 edi
  00005	8b 7d 08	 mov	 edi, DWORD PTR ___that$[ebp]
  00008	57		 push	 edi
  00009	8b f1		 mov	 esi, ecx
  0000b	ff 15 00 00 00
	00		 call	 DWORD PTR __imp_??0ioHashString@@QAE@ABV0@@Z
  00011	8a 47 10	 mov	 al, BYTE PTR [edi+16]
  00014	88 46 10	 mov	 BYTE PTR [esi+16], al
  00017	5f		 pop	 edi
  00018	8b c6		 mov	 eax, esi
  0001a	5e		 pop	 esi
  0001b	5d		 pop	 ebp
  0001c	c2 04 00	 ret	 4
??0FileInfo@FileListWnd@@QAE@ABU01@@Z ENDP		; FileListWnd::FileInfo::FileInfo
_TEXT	ENDS
PUBLIC	??4FileInfo@FileListWnd@@QAEAAU01@ABU01@@Z	; FileListWnd::FileInfo::operator=
; Function compile flags: /Ogsp
;	COMDAT ??4FileInfo@FileListWnd@@QAEAAU01@ABU01@@Z
_TEXT	SEGMENT
___that$ = 8						; size = 4
??4FileInfo@FileListWnd@@QAEAAU01@ABU01@@Z PROC		; FileListWnd::FileInfo::operator=, COMDAT
; _this$ = ecx
  00000	55		 push	 ebp
  00001	8b ec		 mov	 ebp, esp
  00003	56		 push	 esi
  00004	57		 push	 edi
  00005	8b 7d 08	 mov	 edi, DWORD PTR ___that$[ebp]
  00008	57		 push	 edi
  00009	8b f1		 mov	 esi, ecx
  0000b	ff 15 00 00 00
	00		 call	 DWORD PTR __imp_??4ioHashString@@QAEAAV0@ABV0@@Z
  00011	8a 47 10	 mov	 al, BYTE PTR [edi+16]
  00014	88 46 10	 mov	 BYTE PTR [esi+16], al
  00017	5f		 pop	 edi
  00018	8b c6		 mov	 eax, esi
  0001a	5e		 pop	 esi
  0001b	5d		 pop	 ebp
  0001c	c2 04 00	 ret	 4
??4FileInfo@FileListWnd@@QAEAAU01@ABU01@@Z ENDP		; FileListWnd::FileInfo::operator=
_TEXT	ENDS
PUBLIC	?_Rechecked@?$_Vector_iterator@V?$_Vector_val@UFileDriveItem@@V?$allocator@UFileDriveItem@@@std@@@std@@@std@@QAEAAV12@PAUFileDriveItem@@@Z ; std::_Vector_iterator<std::_Vector_val<FileDriveItem,std::allocator<FileDriveItem> > >::_Rechecked
; Function compile flags: /Ogsp
; File c:\program files (x86)\microsoft visual studio 10.0\vc\include\vector
;	COMDAT ?_Rechecked@?$_Vector_iterator@V?$_Vector_val@UFileDriveItem@@V?$allocator@UFileDriveItem@@@std@@@std@@@std@@QAEAAV12@PAUFileDriveItem@@@Z
_TEXT	SEGMENT
__Right$ = 8						; size = 4
?_Rechecked@?$_Vector_iterator@V?$_Vector_val@UFileDriveItem@@V?$allocator@UFileDriveItem@@@std@@@std@@@std@@QAEAAV12@PAUFileDriveItem@@@Z PROC ; std::_Vector_iterator<std::_Vector_val<FileDriveItem,std::allocator<FileDriveItem> > >::_Rechecked, COMDAT
; _this$ = ecx

; 310  : 		{	// reset from unchecked iterator

  00000	55		 push	 ebp
  00001	8b ec		 mov	 ebp, esp
  00003	8b c1		 mov	 eax, ecx

; 311  : 		this->_Ptr = _Right;

  00005	8b 4d 08	 mov	 ecx, DWORD PTR __Right$[ebp]
  00008	89 08		 mov	 DWORD PTR [eax], ecx

; 312  : 		return (*this);
; 313  : 		}

  0000a	5d		 pop	 ebp
  0000b	c2 04 00	 ret	 4
?_Rechecked@?$_Vector_iterator@V?$_Vector_val@UFileDriveItem@@V?$allocator@UFileDriveItem@@@std@@@std@@@std@@QAEAAV12@PAUFileDriveItem@@@Z ENDP ; std::_Vector_iterator<std::_Vector_val<FileDriveItem,std::allocator<FileDriveItem> > >::_Rechecked
_TEXT	ENDS
PUBLIC	?_Unchecked@?$_Vector_iterator@V?$_Vector_val@UFileDriveItem@@V?$allocator@UFileDriveItem@@@std@@@std@@@std@@QBEPAUFileDriveItem@@XZ ; std::_Vector_iterator<std::_Vector_val<FileDriveItem,std::allocator<FileDriveItem> > >::_Unchecked
; Function compile flags: /Ogsp
;	COMDAT ?_Unchecked@?$_Vector_iterator@V?$_Vector_val@UFileDriveItem@@V?$allocator@UFileDriveItem@@@std@@@std@@@std@@QBEPAUFileDriveItem@@XZ
_TEXT	SEGMENT
?_Unchecked@?$_Vector_iterator@V?$_Vector_val@UFileDriveItem@@V?$allocator@UFileDriveItem@@@std@@@std@@@std@@QBEPAUFileDriveItem@@XZ PROC ; std::_Vector_iterator<std::_Vector_val<FileDriveItem,std::allocator<FileDriveItem> > >::_Unchecked, COMDAT
; _this$ = ecx

; 317  : 		return (_Unchecked_type(this->_Ptr));

  00000	8b 01		 mov	 eax, DWORD PTR [ecx]

; 318  : 		}

  00002	c3		 ret	 0
?_Unchecked@?$_Vector_iterator@V?$_Vector_val@UFileDriveItem@@V?$allocator@UFileDriveItem@@@std@@@std@@@std@@QBEPAUFileDriveItem@@XZ ENDP ; std::_Vector_iterator<std::_Vector_val<FileDriveItem,std::allocator<FileDriveItem> > >::_Unchecked
_TEXT	ENDS
PUBLIC	?_Unchecked@?$_Vector_iterator@V?$_Vector_val@UFileInfo@FileListWnd@@V?$allocator@UFileInfo@FileListWnd@@@std@@@std@@@std@@QBEPAUFileInfo@FileListWnd@@XZ ; std::_Vector_iterator<std::_Vector_val<FileListWnd::FileInfo,std::allocator<FileListWnd::FileInfo> > >::_Unchecked
; Function compile flags: /Ogsp
;	COMDAT ?_Unchecked@?$_Vector_iterator@V?$_Vector_val@UFileInfo@FileListWnd@@V?$allocator@UFileInfo@FileListWnd@@@std@@@std@@@std@@QBEPAUFileInfo@FileListWnd@@XZ
_TEXT	SEGMENT
?_Unchecked@?$_Vector_iterator@V?$_Vector_val@UFileInfo@FileListWnd@@V?$allocator@UFileInfo@FileListWnd@@@std@@@std@@@std@@QBEPAUFileInfo@FileListWnd@@XZ PROC ; std::_Vector_iterator<std::_Vector_val<FileListWnd::FileInfo,std::allocator<FileListWnd::FileInfo> > >::_Unchecked, COMDAT
; _this$ = ecx

; 317  : 		return (_Unchecked_type(this->_Ptr));

  00000	8b 01		 mov	 eax, DWORD PTR [ecx]

; 318  : 		}

  00002	c3		 ret	 0
?_Unchecked@?$_Vector_iterator@V?$_Vector_val@UFileInfo@FileListWnd@@V?$allocator@UFileInfo@FileListWnd@@@std@@@std@@@std@@QBEPAUFileInfo@FileListWnd@@XZ ENDP ; std::_Vector_iterator<std::_Vector_val<FileListWnd::FileInfo,std::allocator<FileListWnd::FileInfo> > >::_Unchecked
_TEXT	ENDS
PUBLIC	??$_Copy_impl@PAUFileDriveItem@@PAU1@@std@@YAPAUFileDriveItem@@PAU1@00U_Nonscalar_ptr_iterator_tag@0@@Z ; std::_Copy_impl<FileDriveItem *,FileDriveItem *>
; Function compile flags: /Ogsp
; File c:\program files (x86)\microsoft visual studio 10.0\vc\include\xutility
;	COMDAT ??$_Copy_impl@PAUFileDriveItem@@PAU1@@std@@YAPAUFileDriveItem@@PAU1@00U_Nonscalar_ptr_iterator_tag@0@@Z
_TEXT	SEGMENT
__First$ = 8						; size = 4
__Last$ = 12						; size = 4
__Dest$ = 16						; size = 4
___formal$ = 20						; size = 1
??$_Copy_impl@PAUFileDriveItem@@PAU1@@std@@YAPAUFileDriveItem@@PAU1@00U_Nonscalar_ptr_iterator_tag@0@@Z PROC ; std::_Copy_impl<FileDriveItem *,FileDriveItem *>, COMDAT

; 2142 : 	{	// copy [_First, _Last) to [_Dest, ...), arbitrary iterators

  00000	55		 push	 ebp
  00001	8b ec		 mov	 ebp, esp
  00003	56		 push	 esi

; 2143 : 	for (; _First != _Last; ++_Dest, ++_First)

  00004	8b 75 08	 mov	 esi, DWORD PTR __First$[ebp]
  00007	eb 1a		 jmp	 SHORT $LN11@Copy_impl
$LL3@Copy_impl:

; 2144 : 		*_Dest = *_First;

  00009	8b 4d 10	 mov	 ecx, DWORD PTR __Dest$[ebp]
  0000c	56		 push	 esi
  0000d	ff 15 00 00 00
	00		 call	 DWORD PTR __imp_??4ioHashString@@QAEAAV0@ABV0@@Z
  00013	8b 46 10	 mov	 eax, DWORD PTR [esi+16]
  00016	8b 4d 10	 mov	 ecx, DWORD PTR __Dest$[ebp]
  00019	83 45 10 14	 add	 DWORD PTR __Dest$[ebp], 20 ; 00000014H
  0001d	89 41 10	 mov	 DWORD PTR [ecx+16], eax
  00020	83 c6 14	 add	 esi, 20			; 00000014H
$LN11@Copy_impl:

; 2143 : 	for (; _First != _Last; ++_Dest, ++_First)

  00023	3b 75 0c	 cmp	 esi, DWORD PTR __Last$[ebp]
  00026	75 e1		 jne	 SHORT $LL3@Copy_impl

; 2145 : 	return (_Dest);

  00028	8b 45 10	 mov	 eax, DWORD PTR __Dest$[ebp]
  0002b	5e		 pop	 esi

; 2146 : 	}

  0002c	5d		 pop	 ebp
  0002d	c3		 ret	 0
??$_Copy_impl@PAUFileDriveItem@@PAU1@@std@@YAPAUFileDriveItem@@PAU1@00U_Nonscalar_ptr_iterator_tag@0@@Z ENDP ; std::_Copy_impl<FileDriveItem *,FileDriveItem *>
_TEXT	ENDS
PUBLIC	??$move@AAUFileDriveItem@@@std@@YA$$QAUFileDriveItem@@AAU1@@Z ; std::move<FileDriveItem &>
; Function compile flags: /Ogsp
; File c:\program files (x86)\microsoft visual studio 10.0\vc\include\utility
;	COMDAT ??$move@AAUFileDriveItem@@@std@@YA$$QAUFileDriveItem@@AAU1@@Z
_TEXT	SEGMENT
__Arg$ = 8						; size = 4
??$move@AAUFileDriveItem@@@std@@YA$$QAUFileDriveItem@@AAU1@@Z PROC ; std::move<FileDriveItem &>, COMDAT

; 86   : 	{	// forward _Arg as movable

  00000	55		 push	 ebp
  00001	8b ec		 mov	 ebp, esp

; 87   : 	return ((typename tr1::_Remove_reference<_Ty>::_Type&&)_Arg);

  00003	8b 45 08	 mov	 eax, DWORD PTR __Arg$[ebp]

; 88   : 	}

  00006	5d		 pop	 ebp
  00007	c3		 ret	 0
??$move@AAUFileDriveItem@@@std@@YA$$QAUFileDriveItem@@AAU1@@Z ENDP ; std::move<FileDriveItem &>
_TEXT	ENDS
PUBLIC	??$move@AAUFileInfo@FileListWnd@@@std@@YA$$QAUFileInfo@FileListWnd@@AAU12@@Z ; std::move<FileListWnd::FileInfo &>
; Function compile flags: /Ogsp
;	COMDAT ??$move@AAUFileInfo@FileListWnd@@@std@@YA$$QAUFileInfo@FileListWnd@@AAU12@@Z
_TEXT	SEGMENT
__Arg$ = 8						; size = 4
??$move@AAUFileInfo@FileListWnd@@@std@@YA$$QAUFileInfo@FileListWnd@@AAU12@@Z PROC ; std::move<FileListWnd::FileInfo &>, COMDAT

; 86   : 	{	// forward _Arg as movable

  00000	55		 push	 ebp
  00001	8b ec		 mov	 ebp, esp

; 87   : 	return ((typename tr1::_Remove_reference<_Ty>::_Type&&)_Arg);

  00003	8b 45 08	 mov	 eax, DWORD PTR __Arg$[ebp]

; 88   : 	}

  00006	5d		 pop	 ebp
  00007	c3		 ret	 0
??$move@AAUFileInfo@FileListWnd@@@std@@YA$$QAUFileInfo@FileListWnd@@AAU12@@Z ENDP ; std::move<FileListWnd::FileInfo &>
_TEXT	ENDS
PUBLIC	??$_Val_type@PAVioHashString@@@std@@YAPAVioHashString@@PAV1@@Z ; std::_Val_type<ioHashString *>
; Function compile flags: /Ogsp
; File c:\program files (x86)\microsoft visual studio 10.0\vc\include\xutility
;	COMDAT ??$_Val_type@PAVioHashString@@@std@@YAPAVioHashString@@PAV1@@Z
_TEXT	SEGMENT
___formal$ = 8						; size = 4
??$_Val_type@PAVioHashString@@@std@@YAPAVioHashString@@PAV1@@Z PROC ; std::_Val_type<ioHashString *>, COMDAT

; 790  : 	return (0);

  00000	33 c0		 xor	 eax, eax

; 791  : 	}

  00002	c3		 ret	 0
??$_Val_type@PAVioHashString@@@std@@YAPAVioHashString@@PAV1@@Z ENDP ; std::_Val_type<ioHashString *>
_TEXT	ENDS
PUBLIC	??$_Val_type@PAUFileInfo@FileListWnd@@@std@@YAPAUFileInfo@FileListWnd@@PAU12@@Z ; std::_Val_type<FileListWnd::FileInfo *>
; Function compile flags: /Ogsp
;	COMDAT ??$_Val_type@PAUFileInfo@FileListWnd@@@std@@YAPAUFileInfo@FileListWnd@@PAU12@@Z
_TEXT	SEGMENT
___formal$ = 8						; size = 4
??$_Val_type@PAUFileInfo@FileListWnd@@@std@@YAPAUFileInfo@FileListWnd@@PAU12@@Z PROC ; std::_Val_type<FileListWnd::FileInfo *>, COMDAT

; 790  : 	return (0);

  00000	33 c0		 xor	 eax, eax

; 791  : 	}

  00002	c3		 ret	 0
??$_Val_type@PAUFileInfo@FileListWnd@@@std@@YAPAUFileInfo@FileListWnd@@PAU12@@Z ENDP ; std::_Val_type<FileListWnd::FileInfo *>
_TEXT	ENDS
PUBLIC	??$_Unchecked@PAUFileInfo@FileListWnd@@@std@@YAPAUFileInfo@FileListWnd@@PAU12@@Z ; std::_Unchecked<FileListWnd::FileInfo *>
; Function compile flags: /Ogsp
;	COMDAT ??$_Unchecked@PAUFileInfo@FileListWnd@@@std@@YAPAUFileInfo@FileListWnd@@PAU12@@Z
_TEXT	SEGMENT
__Src$ = 8						; size = 4
??$_Unchecked@PAUFileInfo@FileListWnd@@@std@@YAPAUFileInfo@FileListWnd@@PAU12@@Z PROC ; std::_Unchecked<FileListWnd::FileInfo *>, COMDAT

; 266  : 	{	// construct unchecked from checked, generic

  00000	55		 push	 ebp
  00001	8b ec		 mov	 ebp, esp

; 267  : 	return (_Src);

  00003	8b 45 08	 mov	 eax, DWORD PTR __Src$[ebp]

; 268  : 	}

  00006	5d		 pop	 ebp
  00007	c3		 ret	 0
??$_Unchecked@PAUFileInfo@FileListWnd@@@std@@YAPAUFileInfo@FileListWnd@@PAU12@@Z ENDP ; std::_Unchecked<FileListWnd::FileInfo *>
_TEXT	ENDS
PUBLIC	??$_Dist_type@PAUFileInfo@FileListWnd@@@std@@YAPAHPAUFileInfo@FileListWnd@@@Z ; std::_Dist_type<FileListWnd::FileInfo *>
; Function compile flags: /Ogsp
;	COMDAT ??$_Dist_type@PAUFileInfo@FileListWnd@@@std@@YAPAHPAUFileInfo@FileListWnd@@@Z
_TEXT	SEGMENT
___formal$ = 8						; size = 4
??$_Dist_type@PAUFileInfo@FileListWnd@@@std@@YAPAHPAUFileInfo@FileListWnd@@@Z PROC ; std::_Dist_type<FileListWnd::FileInfo *>, COMDAT

; 850  : 	return (0);

  00000	33 c0		 xor	 eax, eax

; 851  : 	}

  00002	c3		 ret	 0
??$_Dist_type@PAUFileInfo@FileListWnd@@@std@@YAPAHPAUFileInfo@FileListWnd@@@Z ENDP ; std::_Dist_type<FileListWnd::FileInfo *>
_TEXT	ENDS
PUBLIC	??$forward@UFileDriveItem@@@std@@YA$$QAUFileDriveItem@@AAU1@@Z ; std::forward<FileDriveItem>
; Function compile flags: /Ogsp
; File c:\program files (x86)\microsoft visual studio 10.0\vc\include\utility
;	COMDAT ??$forward@UFileDriveItem@@@std@@YA$$QAUFileDriveItem@@AAU1@@Z
_TEXT	SEGMENT
__Arg$ = 8						; size = 4
??$forward@UFileDriveItem@@@std@@YA$$QAUFileDriveItem@@AAU1@@Z PROC ; std::forward<FileDriveItem>, COMDAT

; 78   : 	{	// forward _Arg, given explicitly specified type parameter

  00000	55		 push	 ebp
  00001	8b ec		 mov	 ebp, esp

; 79   : 	return ((_Ty&&)_Arg);

  00003	8b 45 08	 mov	 eax, DWORD PTR __Arg$[ebp]

; 80   : 	}

  00006	5d		 pop	 ebp
  00007	c3		 ret	 0
??$forward@UFileDriveItem@@@std@@YA$$QAUFileDriveItem@@AAU1@@Z ENDP ; std::forward<FileDriveItem>
_TEXT	ENDS
PUBLIC	??_GFileDriveItem@@QAEPAXI@Z			; FileDriveItem::`scalar deleting destructor'
; Function compile flags: /Ogsp
;	COMDAT ??_GFileDriveItem@@QAEPAXI@Z
_TEXT	SEGMENT
___flags$ = 8						; size = 4
??_GFileDriveItem@@QAEPAXI@Z PROC			; FileDriveItem::`scalar deleting destructor', COMDAT
; _this$ = ecx
  00000	55		 push	 ebp
  00001	8b ec		 mov	 ebp, esp
  00003	56		 push	 esi
  00004	8b f1		 mov	 esi, ecx
  00006	ff 15 00 00 00
	00		 call	 DWORD PTR __imp_??1ioHashString@@QAE@XZ
  0000c	f6 45 08 01	 test	 BYTE PTR ___flags$[ebp], 1
  00010	74 07		 je	 SHORT $LN1@scalar@2
  00012	56		 push	 esi
  00013	e8 00 00 00 00	 call	 ??3@YAXPAX@Z		; operator delete
  00018	59		 pop	 ecx
$LN1@scalar@2:
  00019	8b c6		 mov	 eax, esi
  0001b	5e		 pop	 esi
  0001c	5d		 pop	 ebp
  0001d	c2 04 00	 ret	 4
??_GFileDriveItem@@QAEPAXI@Z ENDP			; FileDriveItem::`scalar deleting destructor'
_TEXT	ENDS
PUBLIC	??_GFileInfo@FileListWnd@@QAEPAXI@Z		; FileListWnd::FileInfo::`scalar deleting destructor'
; Function compile flags: /Ogsp
;	COMDAT ??_GFileInfo@FileListWnd@@QAEPAXI@Z
_TEXT	SEGMENT
___flags$ = 8						; size = 4
??_GFileInfo@FileListWnd@@QAEPAXI@Z PROC		; FileListWnd::FileInfo::`scalar deleting destructor', COMDAT
; _this$ = ecx
  00000	55		 push	 ebp
  00001	8b ec		 mov	 ebp, esp
  00003	56		 push	 esi
  00004	8b f1		 mov	 esi, ecx
  00006	ff 15 00 00 00
	00		 call	 DWORD PTR __imp_??1ioHashString@@QAE@XZ
  0000c	f6 45 08 01	 test	 BYTE PTR ___flags$[ebp], 1
  00010	74 07		 je	 SHORT $LN1@scalar@3
  00012	56		 push	 esi
  00013	e8 00 00 00 00	 call	 ??3@YAXPAX@Z		; operator delete
  00018	59		 pop	 ecx
$LN1@scalar@3:
  00019	8b c6		 mov	 eax, esi
  0001b	5e		 pop	 esi
  0001c	5d		 pop	 ebp
  0001d	c2 04 00	 ret	 4
??_GFileInfo@FileListWnd@@QAEPAXI@Z ENDP		; FileListWnd::FileInfo::`scalar deleting destructor'
_TEXT	ENDS
PUBLIC	??$forward@AAPAUFileInfo@FileListWnd@@@std@@YAAAPAUFileInfo@FileListWnd@@AAPAU12@@Z ; std::forward<FileListWnd::FileInfo * &>
; Function compile flags: /Ogsp
;	COMDAT ??$forward@AAPAUFileInfo@FileListWnd@@@std@@YAAAPAUFileInfo@FileListWnd@@AAPAU12@@Z
_TEXT	SEGMENT
__Arg$ = 8						; size = 4
??$forward@AAPAUFileInfo@FileListWnd@@@std@@YAAAPAUFileInfo@FileListWnd@@AAPAU12@@Z PROC ; std::forward<FileListWnd::FileInfo * &>, COMDAT

; 78   : 	{	// forward _Arg, given explicitly specified type parameter

  00000	55		 push	 ebp
  00001	8b ec		 mov	 ebp, esp

; 79   : 	return ((_Ty&&)_Arg);

  00003	8b 45 08	 mov	 eax, DWORD PTR __Arg$[ebp]

; 80   : 	}

  00006	5d		 pop	 ebp
  00007	c3		 ret	 0
??$forward@AAPAUFileInfo@FileListWnd@@@std@@YAAAPAUFileInfo@FileListWnd@@AAPAU12@@Z ENDP ; std::forward<FileListWnd::FileInfo * &>
_TEXT	ENDS
PUBLIC	??$?0AAPAUFileInfo@FileListWnd@@AAPAU01@@?$_Pair_base@PAUFileInfo@FileListWnd@@PAU12@@std@@QAE@AAPAUFileInfo@FileListWnd@@0@Z ; std::_Pair_base<FileListWnd::FileInfo *,FileListWnd::FileInfo *>::_Pair_base<FileListWnd::FileInfo *,FileListWnd::FileInfo *><FileListWnd::FileInfo * &,FileListWnd::FileInfo * &>
; Function compile flags: /Ogsp
;	COMDAT ??$?0AAPAUFileInfo@FileListWnd@@AAPAU01@@?$_Pair_base@PAUFileInfo@FileListWnd@@PAU12@@std@@QAE@AAPAUFileInfo@FileListWnd@@0@Z
_TEXT	SEGMENT
__Val1$ = 8						; size = 4
__Val2$ = 12						; size = 4
??$?0AAPAUFileInfo@FileListWnd@@AAPAU01@@?$_Pair_base@PAUFileInfo@FileListWnd@@PAU12@@std@@QAE@AAPAUFileInfo@FileListWnd@@0@Z PROC ; std::_Pair_base<FileListWnd::FileInfo *,FileListWnd::FileInfo *>::_Pair_base<FileListWnd::FileInfo *,FileListWnd::FileInfo *><FileListWnd::FileInfo * &,FileListWnd::FileInfo * &>, COMDAT
; _this$ = ecx

; 163  : 		{	// construct from moved values

  00000	55		 push	 ebp
  00001	8b ec		 mov	 ebp, esp
  00003	8b c1		 mov	 eax, ecx
  00005	8b 4d 08	 mov	 ecx, DWORD PTR __Val1$[ebp]
  00008	8b 09		 mov	 ecx, DWORD PTR [ecx]
  0000a	89 08		 mov	 DWORD PTR [eax], ecx
  0000c	8b 4d 0c	 mov	 ecx, DWORD PTR __Val2$[ebp]
  0000f	8b 09		 mov	 ecx, DWORD PTR [ecx]
  00011	89 48 04	 mov	 DWORD PTR [eax+4], ecx

; 164  : 		}

  00014	5d		 pop	 ebp
  00015	c2 08 00	 ret	 8
??$?0AAPAUFileInfo@FileListWnd@@AAPAU01@@?$_Pair_base@PAUFileInfo@FileListWnd@@PAU12@@std@@QAE@AAPAUFileInfo@FileListWnd@@0@Z ENDP ; std::_Pair_base<FileListWnd::FileInfo *,FileListWnd::FileInfo *>::_Pair_base<FileListWnd::FileInfo *,FileListWnd::FileInfo *><FileListWnd::FileInfo * &,FileListWnd::FileInfo * &>
_TEXT	ENDS
PUBLIC	??$_Move@AAUFileInfo@FileListWnd@@@std@@YA$$QAUFileInfo@FileListWnd@@AAU12@@Z ; std::_Move<FileListWnd::FileInfo &>
; Function compile flags: /Ogsp
;	COMDAT ??$_Move@AAUFileInfo@FileListWnd@@@std@@YA$$QAUFileInfo@FileListWnd@@AAU12@@Z
_TEXT	SEGMENT
__Arg$ = 8						; size = 4
??$_Move@AAUFileInfo@FileListWnd@@@std@@YA$$QAUFileInfo@FileListWnd@@AAU12@@Z PROC ; std::_Move<FileListWnd::FileInfo &>, COMDAT

; 94   : 	{	// forward _Arg as movable

  00000	55		 push	 ebp
  00001	8b ec		 mov	 ebp, esp

; 95   : 	return ((typename tr1::_Remove_reference<_Ty>::_Type&&)_Arg);

  00003	8b 45 08	 mov	 eax, DWORD PTR __Arg$[ebp]

; 96   : 	}

  00006	5d		 pop	 ebp
  00007	c3		 ret	 0
??$_Move@AAUFileInfo@FileListWnd@@@std@@YA$$QAUFileInfo@FileListWnd@@AAU12@@Z ENDP ; std::_Move<FileListWnd::FileInfo &>
_TEXT	ENDS
PUBLIC	??$forward@UFileInfo@FileListWnd@@@std@@YA$$QAUFileInfo@FileListWnd@@AAU12@@Z ; std::forward<FileListWnd::FileInfo>
; Function compile flags: /Ogsp
;	COMDAT ??$forward@UFileInfo@FileListWnd@@@std@@YA$$QAUFileInfo@FileListWnd@@AAU12@@Z
_TEXT	SEGMENT
__Arg$ = 8						; size = 4
??$forward@UFileInfo@FileListWnd@@@std@@YA$$QAUFileInfo@FileListWnd@@AAU12@@Z PROC ; std::forward<FileListWnd::FileInfo>, COMDAT

; 78   : 	{	// forward _Arg, given explicitly specified type parameter

  00000	55		 push	 ebp
  00001	8b ec		 mov	 ebp, esp

; 79   : 	return ((_Ty&&)_Arg);

  00003	8b 45 08	 mov	 eax, DWORD PTR __Arg$[ebp]

; 80   : 	}

  00006	5d		 pop	 ebp
  00007	c3		 ret	 0
??$forward@UFileInfo@FileListWnd@@@std@@YA$$QAUFileInfo@FileListWnd@@AAU12@@Z ENDP ; std::forward<FileListWnd::FileInfo>
_TEXT	ENDS
PUBLIC	??$_Push_heap@PAUFileInfo@FileListWnd@@HU12@VFileListInfoSort@@@std@@YAXPAUFileInfo@FileListWnd@@HH$$QAU12@VFileListInfoSort@@@Z ; std::_Push_heap<FileListWnd::FileInfo *,int,FileListWnd::FileInfo,FileListInfoSort>
; Function compile flags: /Ogsp
; File c:\program files (x86)\microsoft visual studio 10.0\vc\include\algorithm
;	COMDAT ??$_Push_heap@PAUFileInfo@FileListWnd@@HU12@VFileListInfoSort@@@std@@YAXPAUFileInfo@FileListWnd@@HH$$QAU12@VFileListInfoSort@@@Z
_TEXT	SEGMENT
__First$ = 8						; size = 4
tv164 = 12						; size = 4
__Hole$ = 12						; size = 4
__Top$ = 16						; size = 4
__Val$ = 20						; size = 4
__Pred$ = 24						; size = 1
??$_Push_heap@PAUFileInfo@FileListWnd@@HU12@VFileListInfoSort@@@std@@YAXPAUFileInfo@FileListWnd@@HH$$QAU12@VFileListInfoSort@@@Z PROC ; std::_Push_heap<FileListWnd::FileInfo *,int,FileListWnd::FileInfo,FileListInfoSort>, COMDAT

; 2455 : 	{	// percolate _Hole to _Top or where _Val belongs, using operator<

  00000	55		 push	 ebp
  00001	8b ec		 mov	 ebp, esp
  00003	53		 push	 ebx

; 2456 : 	for (_Diff _Idx = (_Hole - 1) / 2;
; 2457 : 		_Top < _Hole && _DEBUG_LT_PRED(_Pred, *(_First + _Idx), _Val);
; 2458 : 		_Idx = (_Hole - 1) / 2)

  00004	8b 5d 08	 mov	 ebx, DWORD PTR __First$[ebp]
  00007	56		 push	 esi
  00008	8b 75 0c	 mov	 esi, DWORD PTR __Hole$[ebp]
  0000b	8d 46 ff	 lea	 eax, DWORD PTR [esi-1]
  0000e	99		 cdq
  0000f	2b c2		 sub	 eax, edx
  00011	57		 push	 edi
  00012	8b f8		 mov	 edi, eax
  00014	d1 ff		 sar	 edi, 1
  00016	eb 3f		 jmp	 SHORT $LN16@Push_heap
$LL3@Push_heap:
  00018	ff 75 14	 push	 DWORD PTR __Val$[ebp]
  0001b	8b c7		 mov	 eax, edi
  0001d	6b c0 14	 imul	 eax, 20			; 00000014H
  00020	03 c3		 add	 eax, ebx
  00022	50		 push	 eax
  00023	8d 4d 18	 lea	 ecx, DWORD PTR __Pred$[ebp]
  00026	89 45 0c	 mov	 DWORD PTR tv164[ebp], eax
  00029	e8 00 00 00 00	 call	 ??RFileListInfoSort@@QBE_NABUFileInfo@FileListWnd@@0@Z ; FileListInfoSort::operator()
  0002e	84 c0		 test	 al, al
  00030	74 2a		 je	 SHORT $LN1@Push_heap

; 2459 : 		{	// move _Hole up to parent
; 2460 : 		*(_First + _Hole) = _Move(*(_First + _Idx));

  00032	ff 75 0c	 push	 DWORD PTR tv164[ebp]
  00035	6b f6 14	 imul	 esi, 20			; 00000014H
  00038	03 f3		 add	 esi, ebx
  0003a	8b ce		 mov	 ecx, esi
  0003c	ff 15 00 00 00
	00		 call	 DWORD PTR __imp_??4ioHashString@@QAEAAV0@ABV0@@Z
  00042	8b 45 0c	 mov	 eax, DWORD PTR tv164[ebp]
  00045	8a 40 10	 mov	 al, BYTE PTR [eax+16]
  00048	88 46 10	 mov	 BYTE PTR [esi+16], al
  0004b	8d 47 ff	 lea	 eax, DWORD PTR [edi-1]
  0004e	99		 cdq
  0004f	2b c2		 sub	 eax, edx
  00051	d1 f8		 sar	 eax, 1

; 2461 : 		_Hole = _Idx;

  00053	8b f7		 mov	 esi, edi
  00055	8b f8		 mov	 edi, eax
$LN16@Push_heap:

; 2456 : 	for (_Diff _Idx = (_Hole - 1) / 2;
; 2457 : 		_Top < _Hole && _DEBUG_LT_PRED(_Pred, *(_First + _Idx), _Val);
; 2458 : 		_Idx = (_Hole - 1) / 2)

  00057	39 75 10	 cmp	 DWORD PTR __Top$[ebp], esi
  0005a	7c bc		 jl	 SHORT $LL3@Push_heap
$LN1@Push_heap:

; 2462 : 		}
; 2463 : 
; 2464 : 	*(_First + _Hole) = _Move(_Val);	// drop _Val into final hole

  0005c	8b 7d 14	 mov	 edi, DWORD PTR __Val$[ebp]
  0005f	6b f6 14	 imul	 esi, 20			; 00000014H
  00062	03 f3		 add	 esi, ebx
  00064	57		 push	 edi
  00065	8b ce		 mov	 ecx, esi
  00067	ff 15 00 00 00
	00		 call	 DWORD PTR __imp_??4ioHashString@@QAEAAV0@ABV0@@Z
  0006d	8a 47 10	 mov	 al, BYTE PTR [edi+16]
  00070	5f		 pop	 edi
  00071	88 46 10	 mov	 BYTE PTR [esi+16], al
  00074	5e		 pop	 esi
  00075	5b		 pop	 ebx

; 2465 : 	}

  00076	5d		 pop	 ebp
  00077	c3		 ret	 0
??$_Push_heap@PAUFileInfo@FileListWnd@@HU12@VFileListInfoSort@@@std@@YAXPAUFileInfo@FileListWnd@@HH$$QAU12@VFileListInfoSort@@@Z ENDP ; std::_Push_heap<FileListWnd::FileInfo *,int,FileListWnd::FileInfo,FileListInfoSort>
_TEXT	ENDS
PUBLIC	??$_Move_backward@PAUFileInfo@FileListWnd@@PAU12@@std@@YAPAUFileInfo@FileListWnd@@PAU12@00U_Nonscalar_ptr_iterator_tag@0@@Z ; std::_Move_backward<FileListWnd::FileInfo *,FileListWnd::FileInfo *>
; Function compile flags: /Ogsp
; File c:\program files (x86)\microsoft visual studio 10.0\vc\include\xutility
;	COMDAT ??$_Move_backward@PAUFileInfo@FileListWnd@@PAU12@@std@@YAPAUFileInfo@FileListWnd@@PAU12@00U_Nonscalar_ptr_iterator_tag@0@@Z
_TEXT	SEGMENT
__First$ = 8						; size = 4
__Last$ = 12						; size = 4
__Dest$ = 16						; size = 4
___formal$ = 20						; size = 1
??$_Move_backward@PAUFileInfo@FileListWnd@@PAU12@@std@@YAPAUFileInfo@FileListWnd@@PAU12@00U_Nonscalar_ptr_iterator_tag@0@@Z PROC ; std::_Move_backward<FileListWnd::FileInfo *,FileListWnd::FileInfo *>, COMDAT

; 2617 : 	{	// move [_First, _Last) backwards to [..., _Dest), arbitrary iterators

  00000	55		 push	 ebp
  00001	8b ec		 mov	 ebp, esp
  00003	56		 push	 esi

; 2618 : 	while (_First != _Last)

  00004	8b 75 0c	 mov	 esi, DWORD PTR __Last$[ebp]
  00007	39 75 08	 cmp	 DWORD PTR __First$[ebp], esi
  0000a	74 1f		 je	 SHORT $LN11@Move_backw
$LL2@Move_backw:

; 2619 : 		*--_Dest = _STD move(*--_Last);

  0000c	83 6d 10 14	 sub	 DWORD PTR __Dest$[ebp], 20 ; 00000014H
  00010	8b 4d 10	 mov	 ecx, DWORD PTR __Dest$[ebp]
  00013	83 ee 14	 sub	 esi, 20			; 00000014H
  00016	56		 push	 esi
  00017	ff 15 00 00 00
	00		 call	 DWORD PTR __imp_??4ioHashString@@QAEAAV0@ABV0@@Z
  0001d	8a 46 10	 mov	 al, BYTE PTR [esi+16]
  00020	8b 4d 10	 mov	 ecx, DWORD PTR __Dest$[ebp]
  00023	88 41 10	 mov	 BYTE PTR [ecx+16], al
  00026	3b 75 08	 cmp	 esi, DWORD PTR __First$[ebp]
  00029	75 e1		 jne	 SHORT $LL2@Move_backw
$LN11@Move_backw:

; 2620 : 	return (_Dest);

  0002b	8b 45 10	 mov	 eax, DWORD PTR __Dest$[ebp]
  0002e	5e		 pop	 esi

; 2621 : 	}

  0002f	5d		 pop	 ebp
  00030	c3		 ret	 0
??$_Move_backward@PAUFileInfo@FileListWnd@@PAU12@@std@@YAPAUFileInfo@FileListWnd@@PAU12@00U_Nonscalar_ptr_iterator_tag@0@@Z ENDP ; std::_Move_backward<FileListWnd::FileInfo *,FileListWnd::FileInfo *>
; Function compile flags: /Ogsp
; File c:\program files (x86)\microsoft sdks\windows\v7.0a\include\strsafe.h
_TEXT	ENDS
;	COMDAT ?StringValidateDestA@@YGJPBDII@Z
_TEXT	SEGMENT
_cchMax$ = 8						; size = 4
?StringValidateDestA@@YGJPBDII@Z PROC			; StringValidateDestA, COMDAT
; _cchDest$ = ecx

; 8721 : {

  00000	55		 push	 ebp
  00001	8b ec		 mov	 ebp, esp

; 8722 :     HRESULT hr = S_OK;

  00003	33 c0		 xor	 eax, eax

; 8723 : 
; 8724 :     if ((cchDest == 0) || (cchDest > cchMax))

  00005	85 c9		 test	 ecx, ecx
  00007	74 05		 je	 SHORT $LN1@StringVali
  00009	3b 4d 08	 cmp	 ecx, DWORD PTR _cchMax$[ebp]
  0000c	76 05		 jbe	 SHORT $LN2@StringVali
$LN1@StringVali:

; 8725 :     {
; 8726 :         hr = STRSAFE_E_INVALID_PARAMETER;

  0000e	b8 57 00 07 80	 mov	 eax, -2147024809	; 80070057H
$LN2@StringVali:

; 8727 :     }
; 8728 : 
; 8729 :     return hr;
; 8730 : }

  00013	5d		 pop	 ebp
  00014	c2 04 00	 ret	 4
?StringValidateDestA@@YGJPBDII@Z ENDP			; StringValidateDestA
; Function compile flags: /Ogsp
_TEXT	ENDS
;	COMDAT ?StringCopyWorkerA@@YGJPADIPAIPBDI@Z
_TEXT	SEGMENT
_hr$ = -4						; size = 4
_pcchNewDestLength$ = 8					; size = 4
_pszSrc$ = 12						; size = 4
_cchToCopy$ = 16					; size = 4
?StringCopyWorkerA@@YGJPADIPAIPBDI@Z PROC		; StringCopyWorkerA, COMDAT
; _pszDest$ = ecx
; _cchDest$ = eax

; 8947 : {

  00000	55		 push	 ebp
  00001	8b ec		 mov	 ebp, esp
  00003	51		 push	 ecx

; 8948 :     HRESULT hr = S_OK;

  00004	83 65 fc 00	 and	 DWORD PTR _hr$[ebp], 0
  00008	57		 push	 edi
  00009	8b f8		 mov	 edi, eax

; 8949 :     size_t cchNewDestLength = 0;

  0000b	33 c0		 xor	 eax, eax

; 8950 :     
; 8951 :     // ASSERT(cchDest != 0);
; 8952 : 
; 8953 :     while (cchDest && cchToCopy && (*pszSrc != '\0'))

  0000d	85 ff		 test	 edi, edi
  0000f	74 23		 je	 SHORT $LN9@StringCopy

; 8948 :     HRESULT hr = S_OK;

  00011	53		 push	 ebx
  00012	8b 5d 10	 mov	 ebx, DWORD PTR _cchToCopy$[ebp]
  00015	56		 push	 esi

; 8950 :     
; 8951 :     // ASSERT(cchDest != 0);
; 8952 : 
; 8953 :     while (cchDest && cchToCopy && (*pszSrc != '\0'))

  00016	8b 75 0c	 mov	 esi, DWORD PTR _pszSrc$[ebp]
  00019	2b f1		 sub	 esi, ecx
$LL4@StringCopy:
  0001b	85 db		 test	 ebx, ebx
  0001d	74 0f		 je	 SHORT $LN11@StringCopy
  0001f	8a 14 0e	 mov	 dl, BYTE PTR [esi+ecx]
  00022	84 d2		 test	 dl, dl
  00024	74 08		 je	 SHORT $LN11@StringCopy

; 8954 :     {
; 8955 :         *pszDest++ = *pszSrc++;

  00026	88 11		 mov	 BYTE PTR [ecx], dl
  00028	41		 inc	 ecx

; 8956 :         cchDest--;

  00029	4b		 dec	 ebx

; 8957 :         cchToCopy--;
; 8958 : 
; 8959 :         cchNewDestLength++;

  0002a	40		 inc	 eax
  0002b	4f		 dec	 edi
  0002c	75 ed		 jne	 SHORT $LL4@StringCopy
$LN11@StringCopy:
  0002e	5e		 pop	 esi
  0002f	5b		 pop	 ebx

; 8960 :     }
; 8961 : 
; 8962 :     if (cchDest == 0)

  00030	85 ff		 test	 edi, edi
  00032	75 09		 jne	 SHORT $LN2@StringCopy
$LN9@StringCopy:

; 8963 :     {
; 8964 :         // we are going to truncate pszDest
; 8965 :         pszDest--;

  00034	49		 dec	 ecx

; 8966 :         cchNewDestLength--;

  00035	48		 dec	 eax

; 8967 : 
; 8968 :         hr = STRSAFE_E_INSUFFICIENT_BUFFER;

  00036	c7 45 fc 7a 00
	07 80		 mov	 DWORD PTR _hr$[ebp], -2147024774 ; 8007007aH
$LN2@StringCopy:

; 8969 :     }
; 8970 : 
; 8971 :     *pszDest = '\0';

  0003d	c6 01 00	 mov	 BYTE PTR [ecx], 0

; 8972 : 
; 8973 :     if (pcchNewDestLength)

  00040	8b 4d 08	 mov	 ecx, DWORD PTR _pcchNewDestLength$[ebp]
  00043	5f		 pop	 edi
  00044	85 c9		 test	 ecx, ecx
  00046	74 02		 je	 SHORT $LN1@StringCopy

; 8974 :     {
; 8975 :         *pcchNewDestLength = cchNewDestLength;

  00048	89 01		 mov	 DWORD PTR [ecx], eax
$LN1@StringCopy:

; 8976 :     }
; 8977 : 
; 8978 :     return hr;

  0004a	8b 45 fc	 mov	 eax, DWORD PTR _hr$[ebp]

; 8979 : }

  0004d	c9		 leave
  0004e	c2 0c 00	 ret	 12			; 0000000cH
?StringCopyWorkerA@@YGJPADIPAIPBDI@Z ENDP		; StringCopyWorkerA
_TEXT	ENDS
EXTRN	__imp___vsnprintf:PROC
; Function compile flags: /Ogsp
;	COMDAT ?StringVPrintfWorkerA@@YGJPADIPAIPBD0@Z
_TEXT	SEGMENT
_pcchNewDestLength$ = 8					; size = 4
_pszFormat$ = 12					; size = 4
_argList$ = 16						; size = 4
?StringVPrintfWorkerA@@YGJPADIPAIPBD0@Z PROC		; StringVPrintfWorkerA, COMDAT
; _pszDest$ = edi
; _cchDest$ = eax

; 9029 : {

  00000	55		 push	 ebp
  00001	8b ec		 mov	 ebp, esp
  00003	53		 push	 ebx
  00004	56		 push	 esi

; 9030 :     HRESULT hr = S_OK;
; 9031 :     int iRet;
; 9032 :     size_t cchMax;
; 9033 :     size_t cchNewDestLength = 0;
; 9034 : 
; 9035 :     // leave the last space for the null terminator
; 9036 :     cchMax = cchDest - 1;
; 9037 : 
; 9038 : #if (STRSAFE_USE_SECURE_CRT == 1) && !defined(STRSAFE_LIB_IMPL)
; 9039 :     iRet = _vsnprintf_s(pszDest, cchDest, cchMax, pszFormat, argList);
; 9040 : #else
; 9041 :     #pragma warning(push)
; 9042 :     #pragma warning(disable: __WARNING_BANNED_API_USAGE)// "STRSAFE not included"
; 9043 :     iRet = _vsnprintf(pszDest, cchMax, pszFormat, argList);

  00005	ff 75 10	 push	 DWORD PTR _argList$[ebp]
  00008	8d 70 ff	 lea	 esi, DWORD PTR [eax-1]
  0000b	ff 75 0c	 push	 DWORD PTR _pszFormat$[ebp]
  0000e	33 db		 xor	 ebx, ebx
  00010	56		 push	 esi
  00011	57		 push	 edi
  00012	ff 15 00 00 00
	00		 call	 DWORD PTR __imp___vsnprintf
  00018	83 c4 10	 add	 esp, 16			; 00000010H

; 9044 :     #pragma warning(pop)
; 9045 : #endif
; 9046 :     // ASSERT((iRet < 0) || (((size_t)iRet) <= cchMax));
; 9047 : 
; 9048 :     if ((iRet < 0) || (((size_t)iRet) > cchMax))

  0001b	85 c0		 test	 eax, eax
  0001d	78 0b		 js	 SHORT $LN5@StringVPri
  0001f	3b c6		 cmp	 eax, esi
  00021	77 07		 ja	 SHORT $LN5@StringVPri

; 9058 :     }
; 9059 :     else if (((size_t)iRet) == cchMax)

  00023	75 0f		 jne	 SHORT $LN2@StringVPri

; 9060 :     {
; 9061 :         // need to null terminate the string
; 9062 :         pszDest += cchMax;
; 9063 :         *pszDest = '\0';

  00025	88 1c 3e	 mov	 BYTE PTR [esi+edi], bl

; 9064 : 
; 9065 :         cchNewDestLength = cchMax;
; 9066 :     }
; 9067 :     else

  00028	eb 08		 jmp	 SHORT $LN9@StringVPri
$LN5@StringVPri:

; 9049 :     {
; 9050 :         // need to null terminate the string
; 9051 :         pszDest += cchMax;
; 9052 :         *pszDest = '\0';

  0002a	88 1c 3e	 mov	 BYTE PTR [esi+edi], bl

; 9055 : 
; 9056 :         // we have truncated pszDest
; 9057 :         hr = STRSAFE_E_INSUFFICIENT_BUFFER;

  0002d	bb 7a 00 07 80	 mov	 ebx, -2147024774	; 8007007aH
$LN9@StringVPri:

; 9053 : 
; 9054 :         cchNewDestLength = cchMax;

  00032	8b c6		 mov	 eax, esi
$LN2@StringVPri:

; 9068 :     {
; 9069 :         cchNewDestLength = (size_t)iRet;
; 9070 :     }
; 9071 : 
; 9072 :     if (pcchNewDestLength)

  00034	8b 4d 08	 mov	 ecx, DWORD PTR _pcchNewDestLength$[ebp]
  00037	85 c9		 test	 ecx, ecx
  00039	74 02		 je	 SHORT $LN1@StringVPri

; 9073 :     {
; 9074 :         *pcchNewDestLength = cchNewDestLength;

  0003b	89 01		 mov	 DWORD PTR [ecx], eax
$LN1@StringVPri:
  0003d	5e		 pop	 esi

; 9075 :     }
; 9076 : 
; 9077 :     return hr;

  0003e	8b c3		 mov	 eax, ebx
  00040	5b		 pop	 ebx

; 9078 : }

  00041	5d		 pop	 ebp
  00042	c2 0c 00	 ret	 12			; 0000000cH
?StringVPrintfWorkerA@@YGJPADIPAIPBD0@Z ENDP		; StringVPrintfWorkerA
_TEXT	ENDS
PUBLIC	?_DECSTR@@YAXPADH@Z				; _DECSTR
; Function compile flags: /Ogsp
; File d:\lost saga for developer\youtube\tutorial\source\src\lsclient\stringprotect.h
;	COMDAT ?_DECSTR@@YAXPADH@Z
_TEXT	SEGMENT
_s$ = 8							; size = 4
_l$ = 12						; size = 4
?_DECSTR@@YAXPADH@Z PROC				; _DECSTR, COMDAT

; 40   : __forceinline void _DECSTR(char* s, int l){int i=0,l4=(l-1)/4,*p=(int*)s;s[l-1]=0;for(;i<l4;++i)*(p++)^=0xEAEBECED;for(i=l4*4;i<l-1;++i)s[i]^=0xED-i%4;}

  00000	55		 push	 ebp
  00001	8b ec		 mov	 ebp, esp
  00003	8b 4d 0c	 mov	 ecx, DWORD PTR _l$[ebp]
  00006	56		 push	 esi
  00007	8b 75 08	 mov	 esi, DWORD PTR _s$[ebp]
  0000a	57		 push	 edi
  0000b	8d 79 ff	 lea	 edi, DWORD PTR [ecx-1]
  0000e	8b c7		 mov	 eax, edi
  00010	99		 cdq
  00011	83 e2 03	 and	 edx, 3
  00014	03 c2		 add	 eax, edx
  00016	c1 f8 02	 sar	 eax, 2
  00019	8b d6		 mov	 edx, esi
  0001b	c6 44 0e ff 00	 mov	 BYTE PTR [esi+ecx-1], 0
  00020	85 c0		 test	 eax, eax
  00022	7e 0e		 jle	 SHORT $LN4@DECSTR
  00024	8b c8		 mov	 ecx, eax
$LL6@DECSTR:
  00026	81 32 ed ec eb
	ea		 xor	 DWORD PTR [edx], -353637139 ; eaebecedH
  0002c	83 c2 04	 add	 edx, 4
  0002f	49		 dec	 ecx
  00030	75 f4		 jne	 SHORT $LL6@DECSTR
$LN4@DECSTR:
  00032	c1 e0 02	 shl	 eax, 2
  00035	eb 17		 jmp	 SHORT $LN14@DECSTR
$LL3@DECSTR:
  00037	8b c8		 mov	 ecx, eax
  00039	81 e1 03 00 00
	80		 and	 ecx, -2147483645	; 80000003H
  0003f	79 05		 jns	 SHORT $LN13@DECSTR
  00041	49		 dec	 ecx
  00042	83 c9 fc	 or	 ecx, -4			; fffffffcH
  00045	41		 inc	 ecx
$LN13@DECSTR:
  00046	b2 ed		 mov	 dl, -19			; ffffffedH
  00048	2a d1		 sub	 dl, cl
  0004a	30 14 30	 xor	 BYTE PTR [eax+esi], dl
  0004d	40		 inc	 eax
$LN14@DECSTR:
  0004e	3b c7		 cmp	 eax, edi
  00050	7c e5		 jl	 SHORT $LL3@DECSTR
  00052	5f		 pop	 edi
  00053	5e		 pop	 esi
  00054	5d		 pop	 ebp
  00055	c3		 ret	 0
?_DECSTR@@YAXPADH@Z ENDP				; _DECSTR
_TEXT	ENDS
PUBLIC	?GetMouse@ioApplication@@QAEPAVioLSMouse@@XZ	; ioApplication::GetMouse
; Function compile flags: /Ogsp
; File d:\lost saga for developer\youtube\tutorial\source\src\lsclient\ioapplication.h
;	COMDAT ?GetMouse@ioApplication@@QAEPAVioLSMouse@@XZ
_TEXT	SEGMENT
?GetMouse@ioApplication@@QAEPAVioLSMouse@@XZ PROC	; ioApplication::GetMouse, COMDAT
; _this$ = ecx

; 796  : 	inline ioLSMouse* GetMouse(){ return &m_Mouse;	}

  00000	8d 81 90 00 00
	00		 lea	 eax, DWORD PTR [ecx+144]
  00006	c3		 ret	 0
?GetMouse@ioApplication@@QAEPAVioLSMouse@@XZ ENDP	; ioApplication::GetMouse
_TEXT	ENDS
PUBLIC	?GetMyRoomType@ioMyRoomMode@@SA?AW4MyRoomType@@XZ ; ioMyRoomMode::GetMyRoomType
EXTRN	?m_eMyRoomType@ioMyRoomMode@@1W4MyRoomType@@A:DWORD ; ioMyRoomMode::m_eMyRoomType
; Function compile flags: /Ogsp
; File d:\lost saga for developer\youtube\tutorial\source\src\lsclient\iomyroommode.h
;	COMDAT ?GetMyRoomType@ioMyRoomMode@@SA?AW4MyRoomType@@XZ
_TEXT	SEGMENT
?GetMyRoomType@ioMyRoomMode@@SA?AW4MyRoomType@@XZ PROC	; ioMyRoomMode::GetMyRoomType, COMDAT

; 194  : 	static MyRoomType GetMyRoomType(){ return m_eMyRoomType; }

  00000	a1 00 00 00 00	 mov	 eax, DWORD PTR ?m_eMyRoomType@ioMyRoomMode@@1W4MyRoomType@@A ; ioMyRoomMode::m_eMyRoomType
  00005	c3		 ret	 0
?GetMyRoomType@ioMyRoomMode@@SA?AW4MyRoomType@@XZ ENDP	; ioMyRoomMode::GetMyRoomType
_TEXT	ENDS
PUBLIC	?GetPreOverWnd@ioSP2GUIManager@@QAEPAVioWnd@@XZ	; ioSP2GUIManager::GetPreOverWnd
; Function compile flags: /Ogsp
; File d:\lost saga for developer\youtube\tutorial\source\src\lsclient\gui\iosp2guimanager.h
;	COMDAT ?GetPreOverWnd@ioSP2GUIManager@@QAEPAVioWnd@@XZ
_TEXT	SEGMENT
?GetPreOverWnd@ioSP2GUIManager@@QAEPAVioWnd@@XZ PROC	; ioSP2GUIManager::GetPreOverWnd, COMDAT
; _this$ = ecx

; 220  : 	ioWnd *GetPreOverWnd(){ return m_pPreOverWnd; }

  00000	8b 41 10	 mov	 eax, DWORD PTR [ecx+16]
  00003	c3		 ret	 0
?GetPreOverWnd@ioSP2GUIManager@@QAEPAVioWnd@@XZ ENDP	; ioSP2GUIManager::GetPreOverWnd
_TEXT	ENDS
PUBLIC	?GetPreClickWnd@ioSP2GUIManager@@QAEPAVioWnd@@XZ ; ioSP2GUIManager::GetPreClickWnd
; Function compile flags: /Ogsp
;	COMDAT ?GetPreClickWnd@ioSP2GUIManager@@QAEPAVioWnd@@XZ
_TEXT	SEGMENT
?GetPreClickWnd@ioSP2GUIManager@@QAEPAVioWnd@@XZ PROC	; ioSP2GUIManager::GetPreClickWnd, COMDAT
; _this$ = ecx

; 221  : 	ioWnd *GetPreClickWnd(){ return m_pPreClickWnd; }

  00000	8b 41 14	 mov	 eax, DWORD PTR [ecx+20]
  00003	c3		 ret	 0
?GetPreClickWnd@ioSP2GUIManager@@QAEPAVioWnd@@XZ ENDP	; ioSP2GUIManager::GetPreClickWnd
_TEXT	ENDS
PUBLIC	?size@?$vector@VioHashString@@V?$allocator@VioHashString@@@std@@@std@@QBEIXZ ; std::vector<ioHashString,std::allocator<ioHashString> >::size
; Function compile flags: /Ogsp
; File c:\program files (x86)\microsoft visual studio 10.0\vc\include\vector
;	COMDAT ?size@?$vector@VioHashString@@V?$allocator@VioHashString@@@std@@@std@@QBEIXZ
_TEXT	SEGMENT
?size@?$vector@VioHashString@@V?$allocator@VioHashString@@@std@@@std@@QBEIXZ PROC ; std::vector<ioHashString,std::allocator<ioHashString> >::size, COMDAT
; _this$ = ecx

; 879  : 		return (this->_Mylast - this->_Myfirst);

  00000	8b 41 04	 mov	 eax, DWORD PTR [ecx+4]
  00003	2b 01		 sub	 eax, DWORD PTR [ecx]
  00005	c1 f8 04	 sar	 eax, 4

; 880  : 		}

  00008	c3		 ret	 0
?size@?$vector@VioHashString@@V?$allocator@VioHashString@@@std@@@std@@QBEIXZ ENDP ; std::vector<ioHashString,std::allocator<ioHashString> >::size
_TEXT	ENDS
PUBLIC	??1?$_Vector_val@VioHashString@@V?$allocator@VioHashString@@@std@@@std@@QAE@XZ ; std::_Vector_val<ioHashString,std::allocator<ioHashString> >::~_Vector_val<ioHashString,std::allocator<ioHashString> >
; Function compile flags: /Ogsp
;	COMDAT ??1?$_Vector_val@VioHashString@@V?$allocator@VioHashString@@@std@@@std@@QAE@XZ
_TEXT	SEGMENT
??1?$_Vector_val@VioHashString@@V?$allocator@VioHashString@@@std@@@std@@QAE@XZ PROC ; std::_Vector_val<ioHashString,std::allocator<ioHashString> >::~_Vector_val<ioHashString,std::allocator<ioHashString> >, COMDAT
; _this$ = ecx

; 434  : 		}

  00000	c3		 ret	 0
??1?$_Vector_val@VioHashString@@V?$allocator@VioHashString@@@std@@@std@@QAE@XZ ENDP ; std::_Vector_val<ioHashString,std::allocator<ioHashString> >::~_Vector_val<ioHashString,std::allocator<ioHashString> >
_TEXT	ENDS
PUBLIC	??0?$allocator@VioHashString@@@std@@QAE@XZ	; std::allocator<ioHashString>::allocator<ioHashString>
; Function compile flags: /Ogsp
; File c:\program files (x86)\microsoft visual studio 10.0\vc\include\xmemory
;	COMDAT ??0?$allocator@VioHashString@@@std@@QAE@XZ
_TEXT	SEGMENT
??0?$allocator@VioHashString@@@std@@QAE@XZ PROC		; std::allocator<ioHashString>::allocator<ioHashString>, COMDAT
; _this$ = ecx

; 161  : 	_ALLOCATOR() _THROW0()

  00000	8b c1		 mov	 eax, ecx

; 162  : 		{	// construct default allocator (do nothing)
; 163  : 		}

  00002	c3		 ret	 0
??0?$allocator@VioHashString@@@std@@QAE@XZ ENDP		; std::allocator<ioHashString>::allocator<ioHashString>
_TEXT	ENDS
PUBLIC	??0?$allocator@VioHashString@@@std@@QAE@ABV01@@Z ; std::allocator<ioHashString>::allocator<ioHashString>
; Function compile flags: /Ogsp
;	COMDAT ??0?$allocator@VioHashString@@@std@@QAE@ABV01@@Z
_TEXT	SEGMENT
___formal$ = 8						; size = 4
??0?$allocator@VioHashString@@@std@@QAE@ABV01@@Z PROC	; std::allocator<ioHashString>::allocator<ioHashString>, COMDAT
; _this$ = ecx

; 165  : 	_ALLOCATOR(const _ALLOCATOR<_Ty>&) _THROW0()

  00000	8b c1		 mov	 eax, ecx

; 166  : 		{	// construct by copying (do nothing)
; 167  : 		}

  00002	c2 04 00	 ret	 4
??0?$allocator@VioHashString@@@std@@QAE@ABV01@@Z ENDP	; std::allocator<ioHashString>::allocator<ioHashString>
_TEXT	ENDS
PUBLIC	?_Xlen@?$vector@VioHashString@@V?$allocator@VioHashString@@@std@@@std@@IBEXXZ ; std::vector<ioHashString,std::allocator<ioHashString> >::_Xlen
; Function compile flags: /Ogsp
; File c:\program files (x86)\microsoft visual studio 10.0\vc\include\vector
;	COMDAT ?_Xlen@?$vector@VioHashString@@V?$allocator@VioHashString@@@std@@@std@@IBEXXZ
_TEXT	SEGMENT
?_Xlen@?$vector@VioHashString@@V?$allocator@VioHashString@@@std@@@std@@IBEXXZ PROC ; std::vector<ioHashString,std::allocator<ioHashString> >::_Xlen, COMDAT
; _this$ = ecx

; 1427 : 		_Xlength_error("vector<T> too long");

  00000	68 00 00 00 00	 push	 OFFSET ??_C@_0BD@OLBABOEK@vector?$DMT?$DO?5too?5long?$AA@
  00005	ff 15 00 00 00
	00		 call	 DWORD PTR __imp_?_Xlength_error@std@@YAXPBD@Z
$LN4@Xlen@3:
$LN3@Xlen@3:
  0000b	cc		 int	 3
?_Xlen@?$vector@VioHashString@@V?$allocator@VioHashString@@@std@@@std@@IBEXXZ ENDP ; std::vector<ioHashString,std::allocator<ioHashString> >::_Xlen
_TEXT	ENDS
PUBLIC	?deallocate@?$allocator@VioHashString@@@std@@QAEXPAVioHashString@@I@Z ; std::allocator<ioHashString>::deallocate
; Function compile flags: /Ogsp
; File c:\program files (x86)\microsoft visual studio 10.0\vc\include\xmemory
;	COMDAT ?deallocate@?$allocator@VioHashString@@@std@@QAEXPAVioHashString@@I@Z
_TEXT	SEGMENT
__Ptr$ = 8						; size = 4
___formal$ = 12						; size = 4
?deallocate@?$allocator@VioHashString@@@std@@QAEXPAVioHashString@@I@Z PROC ; std::allocator<ioHashString>::deallocate, COMDAT
; _this$ = ecx

; 181  : 		{	// deallocate object at _Ptr, ignore size

  00000	55		 push	 ebp
  00001	8b ec		 mov	 ebp, esp

; 182  : 		::operator delete(_Ptr);

  00003	ff 75 08	 push	 DWORD PTR __Ptr$[ebp]
  00006	e8 00 00 00 00	 call	 ??3@YAXPAX@Z		; operator delete
  0000b	59		 pop	 ecx

; 183  : 		}

  0000c	5d		 pop	 ebp
  0000d	c2 08 00	 ret	 8
?deallocate@?$allocator@VioHashString@@@std@@QAEXPAVioHashString@@I@Z ENDP ; std::allocator<ioHashString>::deallocate
_TEXT	ENDS
PUBLIC	?max_size@?$allocator@VioHashString@@@std@@QBEIXZ ; std::allocator<ioHashString>::max_size
; Function compile flags: /Ogsp
;	COMDAT ?max_size@?$allocator@VioHashString@@@std@@QBEIXZ
_TEXT	SEGMENT
?max_size@?$allocator@VioHashString@@@std@@QBEIXZ PROC	; std::allocator<ioHashString>::max_size, COMDAT
; _this$ = ecx

; 218  : 		_SIZT _Count = (_SIZT)(-1) / sizeof (_Ty);
; 219  : 		return (0 < _Count ? _Count : 1);

  00000	b8 ff ff ff 0f	 mov	 eax, 268435455		; 0fffffffH

; 220  : 		}

  00005	c3		 ret	 0
?max_size@?$allocator@VioHashString@@@std@@QBEIXZ ENDP	; std::allocator<ioHashString>::max_size
_TEXT	ENDS
PUBLIC	??$_Allocate@VioHashString@@@std@@YAPAVioHashString@@IPAV1@@Z ; std::_Allocate<ioHashString>
; Function compile flags: /Ogsp
;	COMDAT ??$_Allocate@VioHashString@@@std@@YAPAVioHashString@@IPAV1@@Z
_TEXT	SEGMENT
$T514402 = -12						; size = 12
$T514406 = 8						; size = 4
__Count$ = 8						; size = 4
___formal$ = 12						; size = 4
??$_Allocate@VioHashString@@@std@@YAPAVioHashString@@IPAV1@@Z PROC ; std::_Allocate<ioHashString>, COMDAT

; 30   : 	{	// allocate storage for _Count elements of type _Ty

  00000	55		 push	 ebp
  00001	8b ec		 mov	 ebp, esp

; 31   : 	void *_Ptr = 0;
; 32   : 
; 33   : 	if (_Count <= 0)

  00003	8b 4d 08	 mov	 ecx, DWORD PTR __Count$[ebp]
  00006	83 ec 0c	 sub	 esp, 12			; 0000000cH
  00009	33 c0		 xor	 eax, eax
  0000b	85 c9		 test	 ecx, ecx

; 34   : 		_Count = 0;
; 35   : 	else if (((_SIZT)(-1) / sizeof (_Ty) < _Count)

  0000d	74 3c		 je	 SHORT $LN5@Allocate@3

; 36   : 		|| (_Ptr = ::operator new(_Count * sizeof (_Ty))) == 0)

  0000f	81 f9 ff ff ff
	0f		 cmp	 ecx, 268435455		; 0fffffffH
  00015	77 0e		 ja	 SHORT $LN1@Allocate@3
  00017	c1 e1 04	 shl	 ecx, 4
  0001a	51		 push	 ecx
  0001b	e8 00 00 00 00	 call	 ??2@YAPAXI@Z		; operator new
  00020	59		 pop	 ecx
  00021	85 c0		 test	 eax, eax

; 38   : 
; 39   : 	return ((_Ty _FARQ *)_Ptr);

  00023	75 26		 jne	 SHORT $LN5@Allocate@3
$LN1@Allocate@3:

; 37   : 		_THROW_NCEE(bad_alloc, 0);

  00025	83 65 08 00	 and	 DWORD PTR $T514406[ebp], 0
  00029	8d 45 08	 lea	 eax, DWORD PTR $T514406[ebp]
  0002c	50		 push	 eax
  0002d	8d 4d f4	 lea	 ecx, DWORD PTR $T514402[ebp]
  00030	ff 15 00 00 00
	00		 call	 DWORD PTR __imp_??0exception@std@@QAE@ABQBD@Z
  00036	68 00 00 00 00	 push	 OFFSET __TI2?AVbad_alloc@std@@
  0003b	8d 45 f4	 lea	 eax, DWORD PTR $T514402[ebp]
  0003e	50		 push	 eax
  0003f	c7 45 f4 00 00
	00 00		 mov	 DWORD PTR $T514402[ebp], OFFSET ??_7bad_alloc@std@@6B@
  00046	e8 00 00 00 00	 call	 __CxxThrowException@8
$LN10@Allocate@3:
$LN5@Allocate@3:

; 40   : 	}

  0004b	c9		 leave
  0004c	c3		 ret	 0
$LN9@Allocate@3:
??$_Allocate@VioHashString@@@std@@YAPAVioHashString@@IPAV1@@Z ENDP ; std::_Allocate<ioHashString>
_TEXT	ENDS
EXTRN	__imp_??0exception@std@@QAE@ABV01@@Z:PROC
; Function compile flags: /Ogsp
;	COMDAT ??0bad_alloc@std@@QAE@ABV01@@Z
_TEXT	SEGMENT
___that$ = 8						; size = 4
??0bad_alloc@std@@QAE@ABV01@@Z PROC			; std::bad_alloc::bad_alloc, COMDAT
; _this$ = ecx
  00000	55		 push	 ebp
  00001	8b ec		 mov	 ebp, esp
  00003	56		 push	 esi
  00004	ff 75 08	 push	 DWORD PTR ___that$[ebp]
  00007	8b f1		 mov	 esi, ecx
  00009	ff 15 00 00 00
	00		 call	 DWORD PTR __imp_??0exception@std@@QAE@ABV01@@Z
  0000f	c7 06 00 00 00
	00		 mov	 DWORD PTR [esi], OFFSET ??_7bad_alloc@std@@6B@
  00015	8b c6		 mov	 eax, esi
  00017	5e		 pop	 esi
  00018	5d		 pop	 ebp
  00019	c2 04 00	 ret	 4
??0bad_alloc@std@@QAE@ABV01@@Z ENDP			; std::bad_alloc::bad_alloc
_TEXT	ENDS
PUBLIC	??$_Ptr_cat@VioHashString@@V1@@std@@YA?AU_Nonscalar_ptr_iterator_tag@0@PAVioHashString@@0@Z ; std::_Ptr_cat<ioHashString,ioHashString>
; Function compile flags: /Ogsp
; File c:\program files (x86)\microsoft visual studio 10.0\vc\include\xutility
;	COMDAT ??$_Ptr_cat@VioHashString@@V1@@std@@YA?AU_Nonscalar_ptr_iterator_tag@0@PAVioHashString@@0@Z
_TEXT	SEGMENT
__Cat$ = -1						; size = 1
___formal$ = 8						; size = 4
___formal$ = 12						; size = 4
??$_Ptr_cat@VioHashString@@V1@@std@@YA?AU_Nonscalar_ptr_iterator_tag@0@PAVioHashString@@0@Z PROC ; std::_Ptr_cat<ioHashString,ioHashString>, COMDAT

; 516  : 	{	// return pointer category from pointers

  00000	55		 push	 ebp
  00001	8b ec		 mov	 ebp, esp
  00003	51		 push	 ecx

; 517  : 	typename _Ptr_cat_helper<_Elem1, _Elem2>::_Type _Cat;
; 518  : 	return (_Cat);

  00004	8a 45 ff	 mov	 al, BYTE PTR __Cat$[ebp]

; 519  : 	}

  00007	c9		 leave
  00008	c3		 ret	 0
??$_Ptr_cat@VioHashString@@V1@@std@@YA?AU_Nonscalar_ptr_iterator_tag@0@PAVioHashString@@0@Z ENDP ; std::_Ptr_cat<ioHashString,ioHashString>
_TEXT	ENDS
PUBLIC	??_GioHashString@@QAEPAXI@Z			; ioHashString::`scalar deleting destructor'
; Function compile flags: /Ogsp
;	COMDAT ??_GioHashString@@QAEPAXI@Z
_TEXT	SEGMENT
___flags$ = 8						; size = 4
??_GioHashString@@QAEPAXI@Z PROC			; ioHashString::`scalar deleting destructor', COMDAT
; _this$ = ecx
  00000	55		 push	 ebp
  00001	8b ec		 mov	 ebp, esp
  00003	56		 push	 esi
  00004	8b f1		 mov	 esi, ecx
  00006	ff 15 00 00 00
	00		 call	 DWORD PTR __imp_??1ioHashString@@QAE@XZ
  0000c	f6 45 08 01	 test	 BYTE PTR ___flags$[ebp], 1
  00010	74 07		 je	 SHORT $LN1@scalar@4
  00012	56		 push	 esi
  00013	e8 00 00 00 00	 call	 ??3@YAXPAX@Z		; operator delete
  00018	59		 pop	 ecx
$LN1@scalar@4:
  00019	8b c6		 mov	 eax, esi
  0001b	5e		 pop	 esi
  0001c	5d		 pop	 ebp
  0001d	c2 04 00	 ret	 4
??_GioHashString@@QAEPAXI@Z ENDP			; ioHashString::`scalar deleting destructor'
; Function compile flags: /Ogsp
_TEXT	ENDS
;	COMDAT ??_GFileBtn@@UAEPAXI@Z
_TEXT	SEGMENT
___flags$ = 8						; size = 4
??_GFileBtn@@UAEPAXI@Z PROC				; FileBtn::`scalar deleting destructor', COMDAT
; _this$ = ecx
  00000	55		 push	 ebp
  00001	8b ec		 mov	 ebp, esp
  00003	56		 push	 esi
  00004	8b f1		 mov	 esi, ecx
  00006	e8 00 00 00 00	 call	 ??1FileBtn@@UAE@XZ	; FileBtn::~FileBtn
  0000b	f6 45 08 01	 test	 BYTE PTR ___flags$[ebp], 1
  0000f	74 07		 je	 SHORT $LN1@scalar@5
  00011	56		 push	 esi
  00012	e8 00 00 00 00	 call	 ??3@YAXPAX@Z		; operator delete
  00017	59		 pop	 ecx
$LN1@scalar@5:
  00018	8b c6		 mov	 eax, esi
  0001a	5e		 pop	 esi
  0001b	5d		 pop	 ebp
  0001c	c2 04 00	 ret	 4
??_GFileBtn@@UAEPAXI@Z ENDP				; FileBtn::`scalar deleting destructor'
; Function compile flags: /Ogsp
_TEXT	ENDS
;	COMDAT ??_GFileListItem@@UAEPAXI@Z
_TEXT	SEGMENT
___flags$ = 8						; size = 4
??_GFileListItem@@UAEPAXI@Z PROC			; FileListItem::`scalar deleting destructor', COMDAT
; _this$ = ecx
  00000	55		 push	 ebp
  00001	8b ec		 mov	 ebp, esp
  00003	56		 push	 esi
  00004	8b f1		 mov	 esi, ecx
  00006	e8 00 00 00 00	 call	 ??1FileListItem@@UAE@XZ	; FileListItem::~FileListItem
  0000b	f6 45 08 01	 test	 BYTE PTR ___flags$[ebp], 1
  0000f	74 07		 je	 SHORT $LN1@scalar@6
  00011	56		 push	 esi
  00012	e8 00 00 00 00	 call	 ??3@YAXPAX@Z		; operator delete
  00017	59		 pop	 ecx
$LN1@scalar@6:
  00018	8b c6		 mov	 eax, esi
  0001a	5e		 pop	 esi
  0001b	5d		 pop	 ebp
  0001c	c2 04 00	 ret	 4
??_GFileListItem@@UAEPAXI@Z ENDP			; FileListItem::`scalar deleting destructor'
_TEXT	ENDS
PUBLIC	?iwm_show@FileDriveListWnd@@UAEXXZ		; FileDriveListWnd::iwm_show
EXTRN	__imp_?ShowWnd@ioWnd@@QAEXXZ:PROC
EXTRN	__imp_?HideChildWnd@ioWnd@@QAEXK_N@Z:PROC
EXTRN	__imp_?Clear@ioHashString@@QAEXXZ:PROC
; Function compile flags: /Ogsp
; File d:\lost saga for developer\youtube\tutorial\source\src\lsclient\gui\filelistwnd.cpp
;	COMDAT ?iwm_show@FileDriveListWnd@@UAEXXZ
_TEXT	SEGMENT
?iwm_show@FileDriveListWnd@@UAEXXZ PROC			; FileDriveListWnd::iwm_show, COMDAT
; _this$ = ecx

; 201  : {	

  00000	56		 push	 esi
  00001	8b f1		 mov	 esi, ecx

; 202  : 	if( m_FileDriveItemList.empty() )

  00003	8b 86 8c 01 00
	00		 mov	 eax, DWORD PTR [esi+396]
  00009	3b 86 90 01 00
	00		 cmp	 eax, DWORD PTR [esi+400]
  0000f	75 07		 jne	 SHORT $LN5@iwm_show
  00011	5e		 pop	 esi

; 203  : 		HideWnd();

  00012	ff 25 00 00 00
	00		 jmp	 DWORD PTR __imp_?HideWnd@ioWnd@@QAEXXZ
$LN5@iwm_show:
  00018	57		 push	 edi

; 204  : 	else
; 205  : 	{
; 206  : 		m_OverDriveItem.m_szName.Clear();

  00019	8d 8e 9c 01 00
	00		 lea	 ecx, DWORD PTR [esi+412]
  0001f	ff 15 00 00 00
	00		 call	 DWORD PTR __imp_?Clear@ioHashString@@QAEXXZ

; 207  : 
; 208  : 		m_iCurPos = 0;

  00025	83 a6 b0 01 00
	00 00		 and	 DWORD PTR [esi+432], 0

; 209  : 		if( (int)m_FileDriveItemList.size() <= MAX_PAGE_LIST )

  0002c	8b 86 90 01 00
	00		 mov	 eax, DWORD PTR [esi+400]
  00032	2b 86 8c 01 00
	00		 sub	 eax, DWORD PTR [esi+396]
  00038	6a 14		 push	 20			; 00000014H
  0003a	99		 cdq
  0003b	59		 pop	 ecx
  0003c	f7 f9		 idiv	 ecx

; 210  : 		{
; 211  : 			HideChildWnd( ID_VERT_SCROLL );

  0003e	8b ce		 mov	 ecx, esi
  00040	83 f8 0a	 cmp	 eax, 10			; 0000000aH
  00043	7f 0f		 jg	 SHORT $LN3@iwm_show
  00045	6a 00		 push	 0
  00047	68 e8 03 00 00	 push	 1000			; 000003e8H
  0004c	ff 15 00 00 00
	00		 call	 DWORD PTR __imp_?HideChildWnd@ioWnd@@QAEXK_N@Z

; 212  : 		}
; 213  : 		else

  00052	eb 4a		 jmp	 SHORT $LN1@iwm_show
$LN3@iwm_show:

; 214  : 		{
; 215  : 			ioScroll *pScroll = (ioScroll*)FindChildWnd( ID_VERT_SCROLL );

  00054	68 e8 03 00 00	 push	 1000			; 000003e8H
  00059	ff 15 00 00 00
	00		 call	 DWORD PTR __imp_?FindChildWnd@ioWnd@@QAEPAV1@K@Z
  0005f	8b f8		 mov	 edi, eax

; 216  : 			if( pScroll )

  00061	85 ff		 test	 edi, edi
  00063	74 39		 je	 SHORT $LN1@iwm_show

; 217  : 			{
; 218  : 				pScroll->SetScrollRange( 0, m_FileDriveItemList.size() );

  00065	8b 86 90 01 00
	00		 mov	 eax, DWORD PTR [esi+400]
  0006b	2b 86 8c 01 00
	00		 sub	 eax, DWORD PTR [esi+396]
  00071	53		 push	 ebx
  00072	6a 14		 push	 20			; 00000014H
  00074	59		 pop	 ecx
  00075	99		 cdq
  00076	f7 f9		 idiv	 ecx
  00078	8b 1f		 mov	 ebx, DWORD PTR [edi]
  0007a	8b cf		 mov	 ecx, edi
  0007c	50		 push	 eax
  0007d	6a 00		 push	 0
  0007f	ff 93 30 01 00
	00		 call	 DWORD PTR [ebx+304]

; 219  : 				pScroll->SetScrollPos( m_iCurPos );

  00085	ff b6 b0 01 00
	00		 push	 DWORD PTR [esi+432]
  0008b	8b 07		 mov	 eax, DWORD PTR [edi]
  0008d	8b cf		 mov	 ecx, edi
  0008f	ff 90 38 01 00
	00		 call	 DWORD PTR [eax+312]

; 220  : 				pScroll->ShowWnd();

  00095	8b cf		 mov	 ecx, edi
  00097	ff 15 00 00 00
	00		 call	 DWORD PTR __imp_?ShowWnd@ioWnd@@QAEXXZ
  0009d	5b		 pop	 ebx
$LN1@iwm_show:

; 221  : 			}
; 222  : 		}
; 223  : 
; 224  : 		//   	
; 225  : 		SetSize( GetWidth(), ( min( MAX_PAGE_LIST, m_FileDriveItemList.size() ) * m_iHeightGap ) + m_iAddHeight );

  0009e	8b 86 90 01 00
	00		 mov	 eax, DWORD PTR [esi+400]
  000a4	2b 86 8c 01 00
	00		 sub	 eax, DWORD PTR [esi+396]
  000aa	6a 14		 push	 20			; 00000014H
  000ac	99		 cdq
  000ad	59		 pop	 ecx
  000ae	f7 f9		 idiv	 ecx
  000b0	83 f8 0a	 cmp	 eax, 10			; 0000000aH
  000b3	76 03		 jbe	 SHORT $LN8@iwm_show
  000b5	6a 0a		 push	 10			; 0000000aH
  000b7	58		 pop	 eax
$LN8@iwm_show:
  000b8	8b 8e 7c 01 00
	00		 mov	 ecx, DWORD PTR [esi+380]
  000be	8b 3e		 mov	 edi, DWORD PTR [esi]
  000c0	0f af c8	 imul	 ecx, eax
  000c3	03 8e 70 01 00
	00		 add	 ecx, DWORD PTR [esi+368]
  000c9	51		 push	 ecx
  000ca	8b ce		 mov	 ecx, esi
  000cc	ff 15 00 00 00
	00		 call	 DWORD PTR __imp_?GetWidth@ioWnd@@QBEHXZ
  000d2	50		 push	 eax
  000d3	8b ce		 mov	 ecx, esi
  000d5	ff 57 2c	 call	 DWORD PTR [edi+44]

; 226  : 		SetCheckParentOutSide( true );

  000d8	6a 01		 push	 1
  000da	8b ce		 mov	 ecx, esi
  000dc	ff 15 00 00 00
	00		 call	 DWORD PTR __imp_?SetCheckParentOutSide@ioWnd@@QAEX_N@Z
  000e2	5f		 pop	 edi
  000e3	5e		 pop	 esi

; 227  : 	}
; 228  : }

  000e4	c3		 ret	 0
?iwm_show@FileDriveListWnd@@UAEXXZ ENDP			; FileDriveListWnd::iwm_show
_TEXT	ENDS
PUBLIC	__$ArrayPad$
PUBLIC	?OnProcess@FileDriveListWnd@@MAEXM@Z		; FileDriveListWnd::OnProcess
EXTRN	__imp_?IsLBtnUp@ioMouse@@QBE_NXZ:PROC
EXTRN	__imp__PtInRect@12:PROC
EXTRN	__imp_?GetMousePos@ioMouse@@QBEABUtagPOINT@@XZ:PROC
EXTRN	___security_cookie:DWORD
; Function compile flags: /Ogsp
;	COMDAT ?OnProcess@FileDriveListWnd@@MAEXM@Z
_TEXT	SEGMENT
_iXPos$ = -40						; size = 4
_iCutWidth$ = -36					; size = 4
_iListSize$ = -32					; size = 4
$T514472 = -28						; size = 4
_iYPos$ = -28						; size = 4
_iIndex$509680 = -24					; size = 4
_rcNameRect$509687 = -20				; size = 16
__$ArrayPad$ = -4					; size = 4
_fTimePerSec$ = 8					; size = 4
?OnProcess@FileDriveListWnd@@MAEXM@Z PROC		; FileDriveListWnd::OnProcess, COMDAT
; _this$ = ecx

; 264  : {

  00000	55		 push	 ebp
  00001	8b ec		 mov	 ebp, esp
  00003	83 ec 28	 sub	 esp, 40			; 00000028H
  00006	a1 00 00 00 00	 mov	 eax, DWORD PTR ___security_cookie
  0000b	33 c5		 xor	 eax, ebp
  0000d	89 45 fc	 mov	 DWORD PTR __$ArrayPad$[ebp], eax
  00010	56		 push	 esi
  00011	8b f1		 mov	 esi, ecx

; 265  : 	if( !IsShow() )	return;

  00013	ff 15 00 00 00
	00		 call	 DWORD PTR __imp_?IsShow@ioWnd@@QBE_NXZ
  00019	84 c0		 test	 al, al
  0001b	0f 84 c0 01 00
	00		 je	 $LN2@OnProcess

; 266  : 
; 267  : 	m_OverDriveItem.m_szName.Clear();

  00021	53		 push	 ebx
  00022	57		 push	 edi
  00023	8d 8e 9c 01 00
	00		 lea	 ecx, DWORD PTR [esi+412]
  00029	ff 15 00 00 00
	00		 call	 DWORD PTR __imp_?Clear@ioHashString@@QAEXXZ

; 268  : 
; 269  : 	//     
; 270  : 	ioWnd *pPreClick = g_GUIMgr.GetPreClickWnd();

  0002f	e8 00 00 00 00	 call	 ?GetSingleton@ioSP2GUIManager@@SAAAV1@XZ ; ioSP2GUIManager::GetSingleton
  00034	8b 58 14	 mov	 ebx, DWORD PTR [eax+20]

; 271  : 	if( pPreClick && GetParent() )

  00037	85 db		 test	 ebx, ebx
  00039	74 50		 je	 SHORT $LN33@OnProcess
  0003b	8b ce		 mov	 ecx, esi
  0003d	ff 15 00 00 00
	00		 call	 DWORD PTR __imp_?GetParent@ioWnd@@QAEPAV1@XZ
  00043	85 c0		 test	 eax, eax
  00045	74 44		 je	 SHORT $LN33@OnProcess

; 272  : 	{
; 273  : 		if( pPreClick != this && 
; 274  : 			pPreClick != GetParent()->FindChildWnd( FileListWnd::ID_SELECT_DISK ) &&
; 275  : 			pPreClick != FindChildWnd( ID_VERT_SCROLL ) &&
; 276  : 			pPreClick->GetParent() != FindChildWnd( ID_VERT_SCROLL ) )

  00047	3b de		 cmp	 ebx, esi
  00049	74 40		 je	 SHORT $LN33@OnProcess
  0004b	6a 03		 push	 3
  0004d	8b ce		 mov	 ecx, esi
  0004f	ff 15 00 00 00
	00		 call	 DWORD PTR __imp_?GetParent@ioWnd@@QAEPAV1@XZ
  00055	8b 3d 00 00 00
	00		 mov	 edi, DWORD PTR __imp_?FindChildWnd@ioWnd@@QAEPAV1@K@Z
  0005b	8b c8		 mov	 ecx, eax
  0005d	ff d7		 call	 edi
  0005f	3b d8		 cmp	 ebx, eax
  00061	74 28		 je	 SHORT $LN33@OnProcess
  00063	68 e8 03 00 00	 push	 1000			; 000003e8H
  00068	8b ce		 mov	 ecx, esi
  0006a	ff d7		 call	 edi
  0006c	3b d8		 cmp	 ebx, eax
  0006e	74 1b		 je	 SHORT $LN33@OnProcess
  00070	68 e8 03 00 00	 push	 1000			; 000003e8H
  00075	8b ce		 mov	 ecx, esi
  00077	ff d7		 call	 edi
  00079	8b cb		 mov	 ecx, ebx
  0007b	8b f8		 mov	 edi, eax
  0007d	ff 15 00 00 00
	00		 call	 DWORD PTR __imp_?GetParent@ioWnd@@QAEPAV1@XZ
  00083	3b c7		 cmp	 eax, edi

; 277  : 		{
; 278  : 			HideWnd();
; 279  : 			return;

  00085	0f 85 4c 01 00
	00		 jne	 $LN1@OnProcess
$LN33@OnProcess:

; 280  : 		}
; 281  : 	}
; 282  : 
; 283  : 	int iXPos, iYPos;
; 284  : 	iXPos = GetDerivedPosX();

  0008b	8b ce		 mov	 ecx, esi
  0008d	ff 15 00 00 00
	00		 call	 DWORD PTR __imp_?GetDerivedPosX@ioWnd@@QBEHXZ

; 285  : 	iYPos = GetDerivedPosY();

  00093	8b ce		 mov	 ecx, esi
  00095	89 45 d8	 mov	 DWORD PTR _iXPos$[ebp], eax
  00098	ff 15 00 00 00
	00		 call	 DWORD PTR __imp_?GetDerivedPosY@ioWnd@@QBEHXZ
  0009e	89 45 e4	 mov	 DWORD PTR _iYPos$[ebp], eax

; 286  : 
; 287  : 	int iCutWidth = 0;
; 288  : 	if( (int)m_FileDriveItemList.size() > MAX_PAGE_LIST )

  000a1	8b 86 90 01 00
	00		 mov	 eax, DWORD PTR [esi+400]
  000a7	2b 86 8c 01 00
	00		 sub	 eax, DWORD PTR [esi+396]
  000ad	6a 14		 push	 20			; 00000014H
  000af	99		 cdq
  000b0	59		 pop	 ecx
  000b1	f7 f9		 idiv	 ecx
  000b3	83 65 dc 00	 and	 DWORD PTR _iCutWidth$[ebp], 0
  000b7	83 f8 0a	 cmp	 eax, 10			; 0000000aH
  000ba	7e 09		 jle	 SHORT $LN9@OnProcess

; 289  : 		iCutWidth = m_iCutWidth;

  000bc	8b 86 80 01 00
	00		 mov	 eax, DWORD PTR [esi+384]
  000c2	89 45 dc	 mov	 DWORD PTR _iCutWidth$[ebp], eax
$LN9@OnProcess:

; 290  : 
; 291  : 	ioLSMouse *pMouse = g_App.GetMouse();

  000c5	e8 00 00 00 00	 call	 ?GetSingleton@ioApplication@@SAAAV1@XZ ; ioApplication::GetSingleton
  000ca	8b d8		 mov	 ebx, eax

; 292  : 	int iListSize = m_FileDriveItemList.size();

  000cc	8b 86 90 01 00
	00		 mov	 eax, DWORD PTR [esi+400]
  000d2	2b 86 8c 01 00
	00		 sub	 eax, DWORD PTR [esi+396]
  000d8	6a 14		 push	 20			; 00000014H
  000da	99		 cdq
  000db	59		 pop	 ecx
  000dc	f7 f9		 idiv	 ecx

; 293  : 	for(int iIndex = 0 ; iIndex < iListSize ; ++iIndex )

  000de	83 65 e8 00	 and	 DWORD PTR _iIndex$509680[ebp], 0
  000e2	89 45 e0	 mov	 DWORD PTR _iListSize$[ebp], eax
  000e5	85 c0		 test	 eax, eax
  000e7	0f 8e f2 00 00
	00		 jle	 $LN34@OnProcess
$LL32@OnProcess:

; 294  : 	{
; 295  : 		if( iIndex >= MAX_PAGE_LIST )

  000ed	83 7d e8 0a	 cmp	 DWORD PTR _iIndex$509680[ebp], 10 ; 0000000aH
  000f1	0f 8d e8 00 00
	00		 jge	 $LN34@OnProcess

; 296  : 			break;
; 297  : 
; 298  : 		int iListPos = m_iCurPos + iIndex;

  000f7	8b be b0 01 00
	00		 mov	 edi, DWORD PTR [esi+432]
  000fd	03 7d e8	 add	 edi, DWORD PTR _iIndex$509680[ebp]

; 299  : 		if( iListPos >= iListSize )

  00100	3b 7d e0	 cmp	 edi, DWORD PTR _iListSize$[ebp]
  00103	0f 8d d6 00 00
	00		 jge	 $LN34@OnProcess

; 300  : 			break;
; 301  : 
; 302  : 		RECT rcNameRect;
; 303  : 		rcNameRect.left = iXPos + m_iListXPos;

  00109	8b 86 74 01 00
	00		 mov	 eax, DWORD PTR [esi+372]
  0010f	03 45 d8	 add	 eax, DWORD PTR _iXPos$[ebp]

; 304  : 		rcNameRect.top  = iYPos + m_iListYPos + iIndex * m_iHeightGap;
; 305  : 		rcNameRect.right  = rcNameRect.left + ( ( GetWidth() - m_iAddWidth ) - iCutWidth );

  00112	8b ce		 mov	 ecx, esi
  00114	89 45 ec	 mov	 DWORD PTR _rcNameRect$509687[ebp], eax
  00117	8b 86 7c 01 00
	00		 mov	 eax, DWORD PTR [esi+380]
  0011d	0f af 45 e8	 imul	 eax, DWORD PTR _iIndex$509680[ebp]
  00121	03 86 78 01 00
	00		 add	 eax, DWORD PTR [esi+376]
  00127	03 45 e4	 add	 eax, DWORD PTR _iYPos$[ebp]
  0012a	89 45 f0	 mov	 DWORD PTR _rcNameRect$509687[ebp+4], eax
  0012d	ff 15 00 00 00
	00		 call	 DWORD PTR __imp_?GetWidth@ioWnd@@QBEHXZ
  00133	8b 4d ec	 mov	 ecx, DWORD PTR _rcNameRect$509687[ebp]
  00136	2b 8e 6c 01 00
	00		 sub	 ecx, DWORD PTR [esi+364]
  0013c	2b 4d dc	 sub	 ecx, DWORD PTR _iCutWidth$[ebp]
  0013f	03 c1		 add	 eax, ecx
  00141	89 45 f4	 mov	 DWORD PTR _rcNameRect$509687[ebp+8], eax

; 306  : 		rcNameRect.bottom = rcNameRect.top + m_iHeightGap;

  00144	8b 86 7c 01 00
	00		 mov	 eax, DWORD PTR [esi+380]
  0014a	03 45 f0	 add	 eax, DWORD PTR _rcNameRect$509687[ebp+4]

; 307  : 
; 308  : 		if( ::PtInRect( &rcNameRect, pMouse->GetMousePos() ) )

  0014d	8d 8b 90 00 00
	00		 lea	 ecx, DWORD PTR [ebx+144]
  00153	89 45 f8	 mov	 DWORD PTR _rcNameRect$509687[ebp+12], eax
  00156	ff 15 00 00 00
	00		 call	 DWORD PTR __imp_?GetMousePos@ioMouse@@QBEABUtagPOINT@@XZ
  0015c	ff 70 04	 push	 DWORD PTR [eax+4]
  0015f	ff 30		 push	 DWORD PTR [eax]
  00161	8d 45 ec	 lea	 eax, DWORD PTR _rcNameRect$509687[ebp]
  00164	50		 push	 eax
  00165	ff 15 00 00 00
	00		 call	 DWORD PTR __imp__PtInRect@12
  0016b	85 c0		 test	 eax, eax
  0016d	75 11		 jne	 SHORT $LN30@OnProcess

; 293  : 	for(int iIndex = 0 ; iIndex < iListSize ; ++iIndex )

  0016f	ff 45 e8	 inc	 DWORD PTR _iIndex$509680[ebp]
  00172	8b 45 e8	 mov	 eax, DWORD PTR _iIndex$509680[ebp]
  00175	3b 45 e0	 cmp	 eax, DWORD PTR _iListSize$[ebp]
  00178	0f 8c 6f ff ff
	ff		 jl	 $LL32@OnProcess

; 307  : 
; 308  : 		if( ::PtInRect( &rcNameRect, pMouse->GetMousePos() ) )

  0017e	eb 5f		 jmp	 SHORT $LN34@OnProcess
$LN30@OnProcess:

; 309  : 		{
; 310  : 			m_OverDriveItem  = m_FileDriveItemList[iListPos];

  00180	6b ff 14	 imul	 edi, 20			; 00000014H
  00183	03 be 8c 01 00
	00		 add	 edi, DWORD PTR [esi+396]
  00189	8d 8e 9c 01 00
	00		 lea	 ecx, DWORD PTR [esi+412]
  0018f	57		 push	 edi
  00190	89 7d e4	 mov	 DWORD PTR $T514472[ebp], edi
  00193	ff 15 00 00 00
	00		 call	 DWORD PTR __imp_??4ioHashString@@QAEAAV0@ABV0@@Z
  00199	8b c7		 mov	 eax, edi
  0019b	8b 40 10	 mov	 eax, DWORD PTR [eax+16]

; 311  : 			if( pMouse->IsLBtnUp() )

  0019e	8d 8b 90 00 00
	00		 lea	 ecx, DWORD PTR [ebx+144]
  001a4	89 86 ac 01 00
	00		 mov	 DWORD PTR [esi+428], eax
  001aa	ff 15 00 00 00
	00		 call	 DWORD PTR __imp_?IsLBtnUp@ioMouse@@QBE_NXZ
  001b0	84 c0		 test	 al, al
  001b2	74 2b		 je	 SHORT $LN34@OnProcess

; 312  : 			{
; 313  : 				if( GetParent() )

  001b4	8b ce		 mov	 ecx, esi
  001b6	ff 15 00 00 00
	00		 call	 DWORD PTR __imp_?GetParent@ioWnd@@QAEPAV1@XZ
  001bc	85 c0		 test	 eax, eax
  001be	74 17		 je	 SHORT $LN1@OnProcess

; 314  : 					GetParent()->iwm_command( this, IOBN_BTNUP, 0 );

  001c0	8b ce		 mov	 ecx, esi
  001c2	ff 15 00 00 00
	00		 call	 DWORD PTR __imp_?GetParent@ioWnd@@QAEPAV1@XZ
  001c8	8b 10		 mov	 edx, DWORD PTR [eax]
  001ca	6a 00		 push	 0
  001cc	6a 11		 push	 17			; 00000011H
  001ce	56		 push	 esi
  001cf	8b c8		 mov	 ecx, eax
  001d1	ff 92 8c 00 00
	00		 call	 DWORD PTR [edx+140]
$LN1@OnProcess:

; 315  : 				HideWnd();

  001d7	8b ce		 mov	 ecx, esi
  001d9	ff 15 00 00 00
	00		 call	 DWORD PTR __imp_?HideWnd@ioWnd@@QAEXXZ
$LN34@OnProcess:
  001df	5f		 pop	 edi
  001e0	5b		 pop	 ebx
$LN2@OnProcess:

; 316  : 			}
; 317  : 			break;
; 318  : 		}
; 319  : 	}
; 320  : }

  001e1	8b 4d fc	 mov	 ecx, DWORD PTR __$ArrayPad$[ebp]
  001e4	33 cd		 xor	 ecx, ebp
  001e6	5e		 pop	 esi
  001e7	e8 00 00 00 00	 call	 @__security_check_cookie@4
  001ec	c9		 leave
  001ed	c2 04 00	 ret	 4
?OnProcess@FileDriveListWnd@@MAEXM@Z ENDP		; FileDriveListWnd::OnProcess
_TEXT	ENDS
PUBLIC	__real@3f19999a
PUBLIC	__real@4066a00000000000
PUBLIC	?OnRender@FileDriveListWnd@@MAEXXZ		; FileDriveListWnd::OnRender
EXTRN	__imp_?PrintTextWidthCut@ioFontManager@@QAAXMMMMPBDZZ:PROC
EXTRN	__imp_?SetTextColor@ioFontManager@@QAEXHHH@Z:PROC
EXTRN	__imp_?SetVertFormatting@ioUIRenderImage@@QAEXW4VertFormatting@1@@Z:PROC
EXTRN	__imp_?SetHorzFormatting@ioUIRenderImage@@QAEXW4HorzFormatting@1@@Z:PROC
;	COMDAT __real@3f19999a
; File c:\program files (x86)\microsoft visual studio 10.0\vc\include\vector
CONST	SEGMENT
__real@3f19999a DD 03f19999ar			; 0.6
CONST	ENDS
;	COMDAT __real@4066a00000000000
CONST	SEGMENT
__real@4066a00000000000 DQ 04066a00000000000r	; 181
; Function compile flags: /Ogsp
; File d:\lost saga for developer\youtube\tutorial\source\src\lsclient\gui\filelistwnd.cpp
CONST	ENDS
;	COMDAT ?OnRender@FileDriveListWnd@@MAEXXZ
_TEXT	SEGMENT
tv487 = -32						; size = 4
tv307 = -28						; size = 4
tv265 = -28						; size = 4
tv222 = -28						; size = 4
tv606 = -24						; size = 4
_iXPos$ = -20						; size = 4
_iYPos$ = -16						; size = 4
_iCutWidth$ = -12					; size = 4
_iIndex$509706 = -8					; size = 4
_bDarkRender$ = -1					; size = 1
?OnRender@FileDriveListWnd@@MAEXXZ PROC			; FileDriveListWnd::OnRender, COMDAT
; _this$ = ecx

; 323  : {

  00000	55		 push	 ebp
  00001	8b ec		 mov	 ebp, esp
  00003	83 ec 20	 sub	 esp, 32			; 00000020H
  00006	53		 push	 ebx
  00007	56		 push	 esi
  00008	8b f1		 mov	 esi, ecx

; 324  : 	ioWnd::OnRender();

  0000a	ff 15 00 00 00
	00		 call	 DWORD PTR __imp_?OnRender@ioWnd@@MAEXXZ

; 325  : 
; 326  : 	if( !m_pDarkLine || !m_pLightLine || !m_pOverLine ) 

  00010	33 db		 xor	 ebx, ebx
  00012	39 9e 60 01 00
	00		 cmp	 DWORD PTR [esi+352], ebx
  00018	0f 84 40 03 00
	00		 je	 $LN24@OnRender@2
  0001e	39 9e 64 01 00
	00		 cmp	 DWORD PTR [esi+356], ebx
  00024	0f 84 34 03 00
	00		 je	 $LN24@OnRender@2
  0002a	39 9e 68 01 00
	00		 cmp	 DWORD PTR [esi+360], ebx
  00030	0f 84 28 03 00
	00		 je	 $LN24@OnRender@2

; 327  : 		return;
; 328  : 
; 329  : 	g_FontMgr.SetAlignType( TAT_LEFT );

  00036	57		 push	 edi
  00037	8b 3d 00 00 00
	00		 mov	 edi, DWORD PTR __imp_?GetSingleton@ioFontManager@@SAAAV1@XZ
  0003d	53		 push	 ebx
  0003e	ff d7		 call	 edi
  00040	8b c8		 mov	 ecx, eax
  00042	ff 15 00 00 00
	00		 call	 DWORD PTR __imp_?SetAlignType@ioFontManager@@QAEXW4TextAlignType@@@Z

; 330  : 	g_FontMgr.SetTextStyle( TS_NORMAL );

  00048	53		 push	 ebx
  00049	ff d7		 call	 edi
  0004b	8b c8		 mov	 ecx, eax
  0004d	ff 15 00 00 00
	00		 call	 DWORD PTR __imp_?SetTextStyle@ioFontManager@@QAEXW4TextStyle@@@Z

; 331  : 	g_FontMgr.SetBkColor( 0, 0, 0 );

  00053	53		 push	 ebx
  00054	53		 push	 ebx
  00055	53		 push	 ebx
  00056	ff d7		 call	 edi
  00058	8b c8		 mov	 ecx, eax
  0005a	ff 15 00 00 00
	00		 call	 DWORD PTR __imp_?SetBkColor@ioFontManager@@QAEXHHH@Z

; 332  : 
; 333  : 	int iXPos = GetDerivedPosX();

  00060	8b ce		 mov	 ecx, esi
  00062	ff 15 00 00 00
	00		 call	 DWORD PTR __imp_?GetDerivedPosX@ioWnd@@QBEHXZ

; 334  : 	int iYPos = GetDerivedPosY();

  00068	8b ce		 mov	 ecx, esi
  0006a	89 45 ec	 mov	 DWORD PTR _iXPos$[ebp], eax
  0006d	ff 15 00 00 00
	00		 call	 DWORD PTR __imp_?GetDerivedPosY@ioWnd@@QBEHXZ
  00073	89 45 f0	 mov	 DWORD PTR _iYPos$[ebp], eax

; 335  : 
; 336  : 	int iCutWidth = 0;
; 337  : 	if( (int)m_FileDriveItemList.size() > MAX_PAGE_LIST )

  00076	8b 86 90 01 00
	00		 mov	 eax, DWORD PTR [esi+400]
  0007c	2b 86 8c 01 00
	00		 sub	 eax, DWORD PTR [esi+396]
  00082	6a 14		 push	 20			; 00000014H
  00084	99		 cdq
  00085	59		 pop	 ecx
  00086	f7 f9		 idiv	 ecx
  00088	89 5d f4	 mov	 DWORD PTR _iCutWidth$[ebp], ebx
  0008b	89 45 e8	 mov	 DWORD PTR tv606[ebp], eax
  0008e	83 f8 0a	 cmp	 eax, 10			; 0000000aH
  00091	7e 09		 jle	 SHORT $LN10@OnRender@2

; 338  : 		iCutWidth = m_iCutWidth;

  00093	8b 8e 80 01 00
	00		 mov	 ecx, DWORD PTR [esi+384]
  00099	89 4d f4	 mov	 DWORD PTR _iCutWidth$[ebp], ecx
$LN10@OnRender@2:

; 339  : 
; 340  : 	bool bDarkRender = false;

  0009c	88 5d ff	 mov	 BYTE PTR _bDarkRender$[ebp], bl

; 341  : 	int iListSize = m_FileDriveItemList.size();
; 342  : 	for(int iIndex = 0 ; iIndex < iListSize ; ++iIndex )

  0009f	89 5d f8	 mov	 DWORD PTR _iIndex$509706[ebp], ebx
  000a2	3b c3		 cmp	 eax, ebx
  000a4	0f 8e b3 02 00
	00		 jle	 $LN28@OnRender@2
$LL27@OnRender@2:

; 343  : 	{
; 344  : 		if( iIndex >= MAX_PAGE_LIST )

  000aa	83 7d f8 0a	 cmp	 DWORD PTR _iIndex$509706[ebp], 10 ; 0000000aH
  000ae	0f 8d a9 02 00
	00		 jge	 $LN28@OnRender@2

; 345  : 			break;
; 346  : 
; 347  : 		int iListPos = m_iCurPos + iIndex;

  000b4	8b 86 b0 01 00
	00		 mov	 eax, DWORD PTR [esi+432]
  000ba	03 45 f8	 add	 eax, DWORD PTR _iIndex$509706[ebp]

; 348  : 		if( iListPos >= iListSize )

  000bd	3b 45 e8	 cmp	 eax, DWORD PTR tv606[ebp]
  000c0	0f 8d 97 02 00
	00		 jge	 $LN28@OnRender@2

; 349  : 			break;
; 350  : 
; 351  : 		bDarkRender = !bDarkRender;

  000c6	38 5d ff	 cmp	 BYTE PTR _bDarkRender$[ebp], bl

; 352  : 		if( m_OverDriveItem.m_iMagicCode == m_FileDriveItemList[iListPos].m_iMagicCode )

  000c9	8b 96 ac 01 00
	00		 mov	 edx, DWORD PTR [esi+428]
  000cf	0f 94 c1	 sete	 cl
  000d2	6b c0 14	 imul	 eax, 20			; 00000014H
  000d5	88 4d ff	 mov	 BYTE PTR _bDarkRender$[ebp], cl
  000d8	8b 8e 8c 01 00
	00		 mov	 ecx, DWORD PTR [esi+396]
  000de	3b 54 08 10	 cmp	 edx, DWORD PTR [eax+ecx+16]
  000e2	89 45 e0	 mov	 DWORD PTR tv487[ebp], eax

; 353  : 		{
; 354  : 			m_pOverLine->SetSize( ( GetWidth() - m_iAddWidth ) - iCutWidth, 21 );

  000e5	6a 15		 push	 21			; 00000015H
  000e7	8b ce		 mov	 ecx, esi
  000e9	0f 85 a7 00 00
	00		 jne	 $LN4@OnRender@2
  000ef	8b 86 68 01 00
	00		 mov	 eax, DWORD PTR [esi+360]
  000f5	8b 00		 mov	 eax, DWORD PTR [eax]
  000f7	83 c0 10	 add	 eax, 16			; 00000010H
  000fa	89 45 e4	 mov	 DWORD PTR tv222[ebp], eax
  000fd	ff 15 00 00 00
	00		 call	 DWORD PTR __imp_?GetWidth@ioWnd@@QBEHXZ
  00103	2b 86 6c 01 00
	00		 sub	 eax, DWORD PTR [esi+364]
  00109	8b 8e 68 01 00
	00		 mov	 ecx, DWORD PTR [esi+360]
  0010f	2b 45 f4	 sub	 eax, DWORD PTR _iCutWidth$[ebp]
  00112	50		 push	 eax
  00113	8b 45 e4	 mov	 eax, DWORD PTR tv222[ebp]
  00116	ff 10		 call	 DWORD PTR [eax]

; 355  : 			m_pOverLine->SetHorzFormatting( ioUIRenderImage::HF_STRETCH );

  00118	8b 8e 68 01 00
	00		 mov	 ecx, DWORD PTR [esi+360]
  0011e	6a 03		 push	 3
  00120	ff 15 00 00 00
	00		 call	 DWORD PTR __imp_?SetHorzFormatting@ioUIRenderImage@@QAEXW4HorzFormatting@1@@Z

; 356  : 			m_pOverLine->SetVertFormatting( ioUIRenderImage::VF_STRETCH );

  00126	8b 8e 68 01 00
	00		 mov	 ecx, DWORD PTR [esi+360]
  0012c	6a 03		 push	 3
  0012e	ff 15 00 00 00
	00		 call	 DWORD PTR __imp_?SetVertFormatting@ioUIRenderImage@@QAEXW4VertFormatting@1@@Z

; 357  : 			m_pOverLine->Render( iXPos + m_iListXPos, iYPos + m_iListYPos + ( iIndex * m_iHeightGap ) );

  00134	8b 8e 7c 01 00
	00		 mov	 ecx, DWORD PTR [esi+380]
  0013a	0f af 4d f8	 imul	 ecx, DWORD PTR _iIndex$509706[ebp]
  0013e	03 8e 78 01 00
	00		 add	 ecx, DWORD PTR [esi+376]
  00144	8b 86 68 01 00
	00		 mov	 eax, DWORD PTR [esi+360]
  0014a	03 4d f0	 add	 ecx, DWORD PTR _iYPos$[ebp]
  0014d	8b 00		 mov	 eax, DWORD PTR [eax]
  0014f	53		 push	 ebx
  00150	53		 push	 ebx
  00151	53		 push	 ebx
  00152	53		 push	 ebx
  00153	51		 push	 ecx
  00154	51		 push	 ecx
  00155	0f 57 c0	 xorps	 xmm0, xmm0
  00158	f3 0f 2a c1	 cvtsi2ss xmm0, ecx
  0015c	8b 8e 74 01 00
	00		 mov	 ecx, DWORD PTR [esi+372]
  00162	03 4d ec	 add	 ecx, DWORD PTR _iXPos$[ebp]
  00165	f3 0f 11 44 24
	04		 movss	 DWORD PTR [esp+4], xmm0
  0016b	0f 57 c0	 xorps	 xmm0, xmm0
  0016e	f3 0f 2a c1	 cvtsi2ss xmm0, ecx
  00172	8b 8e 68 01 00
	00		 mov	 ecx, DWORD PTR [esi+360]
  00178	f3 0f 11 04 24	 movss	 DWORD PTR [esp], xmm0
  0017d	ff 10		 call	 DWORD PTR [eax]

; 358  : 			g_FontMgr.SetTextColor( 255, 255, 255 );

  0017f	b8 ff 00 00 00	 mov	 eax, 255		; 000000ffH
  00184	50		 push	 eax
  00185	50		 push	 eax
  00186	50		 push	 eax
  00187	ff d7		 call	 edi
  00189	8b c8		 mov	 ecx, eax
  0018b	ff 15 00 00 00
	00		 call	 DWORD PTR __imp_?SetTextColor@ioFontManager@@QAEXHHH@Z
  00191	e9 2c 01 00 00	 jmp	 $LN1@OnRender@2
$LN4@OnRender@2:

; 359  : 		}
; 360  : 		else if( bDarkRender )

  00196	38 5d ff	 cmp	 BYTE PTR _bDarkRender$[ebp], bl
  00199	0f 84 88 00 00
	00		 je	 $LN2@OnRender@2

; 361  : 		{
; 362  : 			m_pDarkLine->SetSize( ( GetWidth() - m_iAddWidth ) - iCutWidth, 21 );

  0019f	8b 86 60 01 00
	00		 mov	 eax, DWORD PTR [esi+352]
  001a5	8b 00		 mov	 eax, DWORD PTR [eax]
  001a7	83 c0 10	 add	 eax, 16			; 00000010H
  001aa	89 45 e4	 mov	 DWORD PTR tv265[ebp], eax
  001ad	ff 15 00 00 00
	00		 call	 DWORD PTR __imp_?GetWidth@ioWnd@@QBEHXZ
  001b3	2b 86 6c 01 00
	00		 sub	 eax, DWORD PTR [esi+364]
  001b9	8b 8e 60 01 00
	00		 mov	 ecx, DWORD PTR [esi+352]
  001bf	2b 45 f4	 sub	 eax, DWORD PTR _iCutWidth$[ebp]
  001c2	50		 push	 eax
  001c3	8b 45 e4	 mov	 eax, DWORD PTR tv265[ebp]
  001c6	ff 10		 call	 DWORD PTR [eax]

; 363  : 			m_pDarkLine->SetHorzFormatting( ioUIRenderImage::HF_STRETCH );

  001c8	8b 8e 60 01 00
	00		 mov	 ecx, DWORD PTR [esi+352]
  001ce	6a 03		 push	 3
  001d0	ff 15 00 00 00
	00		 call	 DWORD PTR __imp_?SetHorzFormatting@ioUIRenderImage@@QAEXW4HorzFormatting@1@@Z

; 364  : 			m_pDarkLine->SetVertFormatting( ioUIRenderImage::VF_STRETCH );

  001d6	8b 8e 60 01 00
	00		 mov	 ecx, DWORD PTR [esi+352]
  001dc	6a 03		 push	 3
  001de	ff 15 00 00 00
	00		 call	 DWORD PTR __imp_?SetVertFormatting@ioUIRenderImage@@QAEXW4VertFormatting@1@@Z

; 365  : 			m_pDarkLine->Render( iXPos + m_iListXPos, iYPos + m_iListYPos + ( iIndex * m_iHeightGap ) );

  001e4	8b 8e 7c 01 00
	00		 mov	 ecx, DWORD PTR [esi+380]
  001ea	0f af 4d f8	 imul	 ecx, DWORD PTR _iIndex$509706[ebp]
  001ee	03 8e 78 01 00
	00		 add	 ecx, DWORD PTR [esi+376]
  001f4	8b 86 60 01 00
	00		 mov	 eax, DWORD PTR [esi+352]
  001fa	03 4d f0	 add	 ecx, DWORD PTR _iYPos$[ebp]
  001fd	53		 push	 ebx
  001fe	53		 push	 ebx
  001ff	53		 push	 ebx
  00200	53		 push	 ebx
  00201	51		 push	 ecx
  00202	0f 57 c0	 xorps	 xmm0, xmm0
  00205	f3 0f 2a c1	 cvtsi2ss xmm0, ecx
  00209	51		 push	 ecx
  0020a	8b 8e 74 01 00
	00		 mov	 ecx, DWORD PTR [esi+372]
  00210	03 4d ec	 add	 ecx, DWORD PTR _iXPos$[ebp]
  00213	f3 0f 11 44 24
	04		 movss	 DWORD PTR [esp+4], xmm0
  00219	0f 57 c0	 xorps	 xmm0, xmm0
  0021c	f3 0f 2a c1	 cvtsi2ss xmm0, ecx
  00220	8b c8		 mov	 ecx, eax

; 366  : 			g_FontMgr.SetTextColor( TCT_DEFAULT_DARKGRAY );
; 367  : 		}
; 368  : 		else

  00222	e9 83 00 00 00	 jmp	 $LN29@OnRender@2
$LN2@OnRender@2:

; 369  : 		{
; 370  : 			m_pLightLine->SetSize( ( GetWidth() - m_iAddWidth ) - iCutWidth, 21 );

  00227	8b 86 64 01 00
	00		 mov	 eax, DWORD PTR [esi+356]
  0022d	8b 00		 mov	 eax, DWORD PTR [eax]
  0022f	83 c0 10	 add	 eax, 16			; 00000010H
  00232	89 45 e4	 mov	 DWORD PTR tv307[ebp], eax
  00235	ff 15 00 00 00
	00		 call	 DWORD PTR __imp_?GetWidth@ioWnd@@QBEHXZ
  0023b	2b 86 6c 01 00
	00		 sub	 eax, DWORD PTR [esi+364]
  00241	8b 8e 64 01 00
	00		 mov	 ecx, DWORD PTR [esi+356]
  00247	2b 45 f4	 sub	 eax, DWORD PTR _iCutWidth$[ebp]
  0024a	50		 push	 eax
  0024b	8b 45 e4	 mov	 eax, DWORD PTR tv307[ebp]
  0024e	ff 10		 call	 DWORD PTR [eax]

; 371  : 			m_pLightLine->SetHorzFormatting( ioUIRenderImage::HF_STRETCH );

  00250	8b 8e 64 01 00
	00		 mov	 ecx, DWORD PTR [esi+356]
  00256	6a 03		 push	 3
  00258	ff 15 00 00 00
	00		 call	 DWORD PTR __imp_?SetHorzFormatting@ioUIRenderImage@@QAEXW4HorzFormatting@1@@Z

; 372  : 			m_pLightLine->SetVertFormatting( ioUIRenderImage::VF_STRETCH );

  0025e	8b 8e 64 01 00
	00		 mov	 ecx, DWORD PTR [esi+356]
  00264	6a 03		 push	 3
  00266	ff 15 00 00 00
	00		 call	 DWORD PTR __imp_?SetVertFormatting@ioUIRenderImage@@QAEXW4VertFormatting@1@@Z

; 373  : 			m_pLightLine->Render( iXPos + m_iListXPos, iYPos + m_iListYPos + ( iIndex * m_iHeightGap ) );

  0026c	8b 8e 7c 01 00
	00		 mov	 ecx, DWORD PTR [esi+380]
  00272	0f af 4d f8	 imul	 ecx, DWORD PTR _iIndex$509706[ebp]
  00276	03 8e 78 01 00
	00		 add	 ecx, DWORD PTR [esi+376]
  0027c	8b 86 64 01 00
	00		 mov	 eax, DWORD PTR [esi+356]
  00282	03 4d f0	 add	 ecx, DWORD PTR _iYPos$[ebp]
  00285	53		 push	 ebx
  00286	53		 push	 ebx
  00287	53		 push	 ebx
  00288	53		 push	 ebx
  00289	51		 push	 ecx
  0028a	0f 57 c0	 xorps	 xmm0, xmm0
  0028d	f3 0f 2a c1	 cvtsi2ss xmm0, ecx
  00291	51		 push	 ecx
  00292	8b 8e 74 01 00
	00		 mov	 ecx, DWORD PTR [esi+372]
  00298	03 4d ec	 add	 ecx, DWORD PTR _iXPos$[ebp]
  0029b	f3 0f 11 44 24
	04		 movss	 DWORD PTR [esp+4], xmm0
  002a1	0f 57 c0	 xorps	 xmm0, xmm0
  002a4	f3 0f 2a c1	 cvtsi2ss xmm0, ecx
  002a8	8b c8		 mov	 ecx, eax
$LN29@OnRender@2:
  002aa	8b 00		 mov	 eax, DWORD PTR [eax]
  002ac	f3 0f 11 04 24	 movss	 DWORD PTR [esp], xmm0
  002b1	ff 10		 call	 DWORD PTR [eax]

; 374  : 			g_FontMgr.SetTextColor( TCT_DEFAULT_DARKGRAY );

  002b3	68 3a 3a 3a ff	 push	 -12961222		; ff3a3a3aH
  002b8	ff d7		 call	 edi
  002ba	8b c8		 mov	 ecx, eax
  002bc	ff 15 00 00 00
	00		 call	 DWORD PTR __imp_?SetTextColor@ioFontManager@@QAEXK@Z
$LN1@OnRender@2:

; 375  : 		}
; 376  : 
; 377  : 		g_FontMgr.PrintTextWidthCut( iXPos + m_iListXPos + 5, iYPos + m_iListYPos + ( iIndex * m_iHeightGap ) + 3, FONT_SIZE_12, 181.0f - iCutWidth, 
; 378  : 									 m_FileDriveItemList[iListPos].m_szName.c_str() );

  002c2	8b 8e 8c 01 00
	00		 mov	 ecx, DWORD PTR [esi+396]
  002c8	03 4d e0	 add	 ecx, DWORD PTR tv487[ebp]
  002cb	ff 15 00 00 00
	00		 call	 DWORD PTR __imp_?c_str@ioHashString@@QBEPBDXZ
  002d1	66 0f 6e 45 f4	 movd	 xmm0, DWORD PTR _iCutWidth$[ebp]
  002d6	f2 0f 10 0d 00
	00 00 00	 movsd	 xmm1, QWORD PTR __real@4066a00000000000
  002de	8b 4d f0	 mov	 ecx, DWORD PTR _iYPos$[ebp]
  002e1	50		 push	 eax
  002e2	8b 86 7c 01 00
	00		 mov	 eax, DWORD PTR [esi+380]
  002e8	0f af 45 f8	 imul	 eax, DWORD PTR _iIndex$509706[ebp]
  002ec	03 86 78 01 00
	00		 add	 eax, DWORD PTR [esi+376]
  002f2	0f 5b c0	 cvtdq2ps xmm0, xmm0
  002f5	f3 0f 5a c0	 cvtss2sd xmm0, xmm0
  002f9	f2 0f 5c c8	 subsd	 xmm1, xmm0
  002fd	83 ec 10	 sub	 esp, 16			; 00000010H
  00300	8d 44 08 03	 lea	 eax, DWORD PTR [eax+ecx+3]
  00304	8b 4d ec	 mov	 ecx, DWORD PTR _iXPos$[ebp]
  00307	66 0f 5a c1	 cvtpd2ps xmm0, xmm1
  0030b	f3 0f 11 44 24
	0c		 movss	 DWORD PTR [esp+12], xmm0
  00311	f3 0f 10 05 00
	00 00 00	 movss	 xmm0, DWORD PTR __real@3f19999a
  00319	f3 0f 11 44 24
	08		 movss	 DWORD PTR [esp+8], xmm0
  0031f	0f 57 c0	 xorps	 xmm0, xmm0
  00322	f3 0f 2a c0	 cvtsi2ss xmm0, eax
  00326	8b 86 74 01 00
	00		 mov	 eax, DWORD PTR [esi+372]
  0032c	f3 0f 11 44 24
	04		 movss	 DWORD PTR [esp+4], xmm0
  00332	8d 44 01 05	 lea	 eax, DWORD PTR [ecx+eax+5]
  00336	0f 57 c0	 xorps	 xmm0, xmm0
  00339	f3 0f 2a c0	 cvtsi2ss xmm0, eax
  0033d	f3 0f 11 04 24	 movss	 DWORD PTR [esp], xmm0
  00342	ff d7		 call	 edi
  00344	50		 push	 eax
  00345	ff 15 00 00 00
	00		 call	 DWORD PTR __imp_?PrintTextWidthCut@ioFontManager@@QAAXMMMMPBDZZ
  0034b	83 c4 18	 add	 esp, 24			; 00000018H
  0034e	ff 45 f8	 inc	 DWORD PTR _iIndex$509706[ebp]
  00351	8b 45 f8	 mov	 eax, DWORD PTR _iIndex$509706[ebp]
  00354	3b 45 e8	 cmp	 eax, DWORD PTR tv606[ebp]
  00357	0f 8c 4d fd ff
	ff		 jl	 $LL27@OnRender@2
$LN28@OnRender@2:
  0035d	5f		 pop	 edi
$LN24@OnRender@2:
  0035e	5e		 pop	 esi
  0035f	5b		 pop	 ebx

; 379  : 	}
; 380  : }

  00360	c9		 leave
  00361	c3		 ret	 0
?OnRender@FileDriveListWnd@@MAEXXZ ENDP			; FileDriveListWnd::OnRender
_TEXT	ENDS
PUBLIC	?iwm_wheel@FileListWnd@@UAEXH@Z			; FileListWnd::iwm_wheel
EXTRN	__imp_??1ioMouse@@UAE@XZ:PROC
EXTRN	__imp_??0ioMouse@@QAE@XZ:PROC
;	COMDAT xdata$x
; File d:\lost saga for developer\youtube\tutorial\source\src\lsclient\gui\iosp2guimanager.h
xdata$x	SEGMENT
__unwindtable$?iwm_wheel@FileListWnd@@UAEXH@Z DD 0ffffffffH
	DD	FLAT:__unwindfunclet$?iwm_wheel@FileListWnd@@UAEXH@Z$0
	DD	0ffffffffH
	DD	FLAT:__unwindfunclet$?iwm_wheel@FileListWnd@@UAEXH@Z$1
__ehfuncinfo$?iwm_wheel@FileListWnd@@UAEXH@Z DD 019930522H
	DD	02H
	DD	FLAT:__unwindtable$?iwm_wheel@FileListWnd@@UAEXH@Z
	DD	2 DUP(00H)
	DD	2 DUP(00H)
	DD	00H
	DD	01H
; Function compile flags: /Ogsp
; File d:\lost saga for developer\youtube\tutorial\source\src\lsclient\gui\filelistwnd.cpp
xdata$x	ENDS
;	COMDAT ?iwm_wheel@FileListWnd@@UAEXH@Z
_TEXT	SEGMENT
_NullMouse$510034 = -148				; size = 68
_NullMouse$510030 = -80					; size = 68
__$EHRec$ = -12						; size = 12
_zDelta$ = 8						; size = 4
?iwm_wheel@FileListWnd@@UAEXH@Z PROC			; FileListWnd::iwm_wheel, COMDAT
; _this$ = ecx

; 663  : {

  00000	68 88 00 00 00	 push	 136			; 00000088H
  00005	b8 00 00 00 00	 mov	 eax, __ehhandler$?iwm_wheel@FileListWnd@@UAEXH@Z
  0000a	e8 00 00 00 00	 call	 __EH_prolog3
  0000f	8b f1		 mov	 esi, ecx

; 664  : 	if( !IsShow() )

  00011	ff 15 00 00 00
	00		 call	 DWORD PTR __imp_?IsShow@ioWnd@@QBE_NXZ

; 665  : 		ioWnd::iwm_wheel( zDelta );

  00017	8b ce		 mov	 ecx, esi
  00019	84 c0		 test	 al, al
  0001b	75 0e		 jne	 SHORT $LN8@iwm_wheel@2
  0001d	ff 75 08	 push	 DWORD PTR _zDelta$[ebp]
  00020	ff 15 00 00 00
	00		 call	 DWORD PTR __imp_?iwm_wheel@ioWnd@@UAEXH@Z

; 666  : 	else

  00026	e9 bb 00 00 00	 jmp	 $LN1@iwm_wheel@2
$LN8@iwm_wheel@2:

; 667  : 	{ 
; 668  : 		ioScroll *pScroll = (ioScroll*)FindChildWnd( ID_VERT_SCROLL );

  0002b	68 ea 03 00 00	 push	 1002			; 000003eaH
  00030	ff 15 00 00 00
	00		 call	 DWORD PTR __imp_?FindChildWnd@ioWnd@@QAEPAV1@K@Z
  00036	8b c8		 mov	 ecx, eax

; 669  : 		if( !pScroll )

  00038	85 c9		 test	 ecx, ecx
  0003a	0f 84 a6 00 00
	00		 je	 $LN1@iwm_wheel@2

; 670  : 			return;
; 671  : 
; 672  : 		if( zDelta == WHEEL_DELTA )

  00040	83 7d 08 78	 cmp	 DWORD PTR _zDelta$[ebp], 120 ; 00000078H
  00044	75 45		 jne	 SHORT $LN5@iwm_wheel@2

; 673  : 		{
; 674  : 			pScroll->SetScrollPos( m_iCurPage - 1 );

  00046	8b 96 70 01 00
	00		 mov	 edx, DWORD PTR [esi+368]
  0004c	8b 01		 mov	 eax, DWORD PTR [ecx]
  0004e	4a		 dec	 edx
  0004f	52		 push	 edx
  00050	ff 90 38 01 00
	00		 call	 DWORD PTR [eax+312]

; 675  : 			if( g_GUIMgr.GetPreOverWnd() )

  00056	e8 00 00 00 00	 call	 ?GetSingleton@ioSP2GUIManager@@SAAAV1@XZ ; ioSP2GUIManager::GetSingleton
  0005b	83 78 10 00	 cmp	 DWORD PTR [eax+16], 0
  0005f	0f 84 81 00 00
	00		 je	 $LN1@iwm_wheel@2

; 676  : 			{
; 677  : 				ioMouse NullMouse;

  00065	8d 4d b0	 lea	 ecx, DWORD PTR _NullMouse$510030[ebp]
  00068	ff 15 00 00 00
	00		 call	 DWORD PTR __imp_??0ioMouse@@QAE@XZ
  0006e	83 65 fc 00	 and	 DWORD PTR __$EHRec$[ebp+8], 0

; 678  : 				g_GUIMgr.GetPreOverWnd()->iwm_mouseover( NullMouse );

  00072	e8 00 00 00 00	 call	 ?GetSingleton@ioSP2GUIManager@@SAAAV1@XZ ; ioSP2GUIManager::GetSingleton
  00077	8b 48 10	 mov	 ecx, DWORD PTR [eax+16]
  0007a	8b 01		 mov	 eax, DWORD PTR [ecx]
  0007c	8d 55 b0	 lea	 edx, DWORD PTR _NullMouse$510030[ebp]
  0007f	52		 push	 edx
  00080	ff 90 90 00 00
	00		 call	 DWORD PTR [eax+144]

; 679  : 			}

  00086	8d 4d b0	 lea	 ecx, DWORD PTR _NullMouse$510030[ebp]

; 680  : 		}

  00089	eb 51		 jmp	 SHORT $LN22@iwm_wheel@2
$LN5@iwm_wheel@2:

; 681  : 		else if( zDelta == -WHEEL_DELTA )

  0008b	83 7d 08 88	 cmp	 DWORD PTR _zDelta$[ebp], -120 ; ffffff88H
  0008f	75 55		 jne	 SHORT $LN1@iwm_wheel@2

; 682  : 		{
; 683  : 			pScroll->SetScrollPos( m_iCurPage + 1 );

  00091	8b 96 70 01 00
	00		 mov	 edx, DWORD PTR [esi+368]
  00097	8b 01		 mov	 eax, DWORD PTR [ecx]
  00099	42		 inc	 edx
  0009a	52		 push	 edx
  0009b	ff 90 38 01 00
	00		 call	 DWORD PTR [eax+312]

; 684  : 			if( g_GUIMgr.GetPreOverWnd() )

  000a1	e8 00 00 00 00	 call	 ?GetSingleton@ioSP2GUIManager@@SAAAV1@XZ ; ioSP2GUIManager::GetSingleton
  000a6	83 78 10 00	 cmp	 DWORD PTR [eax+16], 0
  000aa	74 3a		 je	 SHORT $LN1@iwm_wheel@2

; 685  : 			{
; 686  : 				ioMouse NullMouse;

  000ac	8d 8d 6c ff ff
	ff		 lea	 ecx, DWORD PTR _NullMouse$510034[ebp]
  000b2	ff 15 00 00 00
	00		 call	 DWORD PTR __imp_??0ioMouse@@QAE@XZ
  000b8	c7 45 fc 01 00
	00 00		 mov	 DWORD PTR __$EHRec$[ebp+8], 1

; 687  : 				g_GUIMgr.GetPreOverWnd()->iwm_mouseover( NullMouse );

  000bf	e8 00 00 00 00	 call	 ?GetSingleton@ioSP2GUIManager@@SAAAV1@XZ ; ioSP2GUIManager::GetSingleton
  000c4	8b 48 10	 mov	 ecx, DWORD PTR [eax+16]
  000c7	8b 01		 mov	 eax, DWORD PTR [ecx]
  000c9	8d 95 6c ff ff
	ff		 lea	 edx, DWORD PTR _NullMouse$510034[ebp]
  000cf	52		 push	 edx
  000d0	ff 90 90 00 00
	00		 call	 DWORD PTR [eax+144]

; 688  : 			}

  000d6	8d 8d 6c ff ff
	ff		 lea	 ecx, DWORD PTR _NullMouse$510034[ebp]
$LN22@iwm_wheel@2:
  000dc	83 4d fc ff	 or	 DWORD PTR __$EHRec$[ebp+8], -1
  000e0	ff 15 00 00 00
	00		 call	 DWORD PTR __imp_??1ioMouse@@UAE@XZ
$LN1@iwm_wheel@2:

; 689  : 		}
; 690  : 	}
; 691  : }

  000e6	e8 00 00 00 00	 call	 __EH_epilog3
  000eb	c2 04 00	 ret	 4
_TEXT	ENDS
;	COMDAT text$x
text$x	SEGMENT
__unwindfunclet$?iwm_wheel@FileListWnd@@UAEXH@Z$0:
  00000	8d 4d b0	 lea	 ecx, DWORD PTR _NullMouse$510030[ebp]
  00003	ff 25 00 00 00
	00		 jmp	 DWORD PTR __imp_??1ioMouse@@UAE@XZ
__unwindfunclet$?iwm_wheel@FileListWnd@@UAEXH@Z$1:
  00009	8d 8d 6c ff ff
	ff		 lea	 ecx, DWORD PTR _NullMouse$510034[ebp]
  0000f	ff 25 00 00 00
	00		 jmp	 DWORD PTR __imp_??1ioMouse@@UAE@XZ
__ehhandler$?iwm_wheel@FileListWnd@@UAEXH@Z:
  00015	8b 54 24 08	 mov	 edx, DWORD PTR [esp+8]
  00019	8d 42 0c	 lea	 eax, DWORD PTR [edx+12]
  0001c	8b 8a 68 ff ff
	ff		 mov	 ecx, DWORD PTR [edx-152]
  00022	33 c8		 xor	 ecx, eax
  00024	e8 00 00 00 00	 call	 @__security_check_cookie@4
  00029	b8 00 00 00 00	 mov	 eax, OFFSET __ehfuncinfo$?iwm_wheel@FileListWnd@@UAEXH@Z
  0002e	e9 00 00 00 00	 jmp	 ___CxxFrameHandler3
text$x	ENDS
?iwm_wheel@FileListWnd@@UAEXH@Z ENDP			; FileListWnd::iwm_wheel
PUBLIC	?IsFileListEmpty@FileListWnd@@QAE_NXZ		; FileListWnd::IsFileListEmpty
; Function compile flags: /Ogsp
;	COMDAT ?IsFileListEmpty@FileListWnd@@QAE_NXZ
_TEXT	SEGMENT
?IsFileListEmpty@FileListWnd@@QAE_NXZ PROC		; FileListWnd::IsFileListEmpty, COMDAT
; _this$ = ecx

; 885  : 	return m_vFileList.empty();

  00000	8b 81 60 01 00
	00		 mov	 eax, DWORD PTR [ecx+352]
  00006	2b 81 64 01 00
	00		 sub	 eax, DWORD PTR [ecx+356]
  0000c	f7 d8		 neg	 eax
  0000e	1b c0		 sbb	 eax, eax
  00010	40		 inc	 eax

; 886  : }

  00011	c3		 ret	 0
?IsFileListEmpty@FileListWnd@@QAE_NXZ ENDP		; FileListWnd::IsFileListEmpty
_TEXT	ENDS
PUBLIC	?SetScrollRange@FileListWnd@@IAEXXZ		; FileListWnd::SetScrollRange
; Function compile flags: /Ogsp
;	COMDAT ?SetScrollRange@FileListWnd@@IAEXXZ
_TEXT	SEGMENT
?SetScrollRange@FileListWnd@@IAEXXZ PROC		; FileListWnd::SetScrollRange, COMDAT
; _this$ = ecx

; 1118 : {

  00000	56		 push	 esi
  00001	8b f1		 mov	 esi, ecx

; 1119 : 	m_iCurPage = 0;

  00003	83 a6 70 01 00
	00 00		 and	 DWORD PTR [esi+368], 0

; 1120 : 	int iSize = m_vFileList.size();

  0000a	8b 86 64 01 00
	00		 mov	 eax, DWORD PTR [esi+356]
  00010	2b 86 60 01 00
	00		 sub	 eax, DWORD PTR [esi+352]
  00016	57		 push	 edi
  00017	6a 14		 push	 20			; 00000014H
  00019	99		 cdq
  0001a	59		 pop	 ecx
  0001b	f7 f9		 idiv	 ecx

; 1121 : 	m_iMaxPage = iSize/MAX_LIST;

  0001d	6a 0d		 push	 13			; 0000000dH
  0001f	59		 pop	 ecx
  00020	99		 cdq
  00021	f7 f9		 idiv	 ecx
  00023	89 86 74 01 00
	00		 mov	 DWORD PTR [esi+372], eax

; 1122 : 	if( iSize%MAX_LIST )

  00029	85 d2		 test	 edx, edx
  0002b	74 07		 je	 SHORT $LN2@SetScrollR

; 1123 : 		m_iMaxPage++;

  0002d	40		 inc	 eax
  0002e	89 86 74 01 00
	00		 mov	 DWORD PTR [esi+372], eax
$LN2@SetScrollR:

; 1124 : 
; 1125 : 	ioScroll *pScroll = (ioScroll*)FindChildWnd( ID_VERT_SCROLL );

  00034	68 ea 03 00 00	 push	 1002			; 000003eaH
  00039	8b ce		 mov	 ecx, esi
  0003b	ff 15 00 00 00
	00		 call	 DWORD PTR __imp_?FindChildWnd@ioWnd@@QAEPAV1@K@Z
  00041	8b f8		 mov	 edi, eax

; 1126 : 	if( pScroll )

  00043	85 ff		 test	 edi, edi
  00045	74 22		 je	 SHORT $LN1@SetScrollR

; 1127 : 	{
; 1128 : 		pScroll->SetScrollRange( 0, m_iMaxPage );

  00047	ff b6 74 01 00
	00		 push	 DWORD PTR [esi+372]
  0004d	8b 07		 mov	 eax, DWORD PTR [edi]
  0004f	6a 00		 push	 0
  00051	8b cf		 mov	 ecx, edi
  00053	ff 90 30 01 00
	00		 call	 DWORD PTR [eax+304]

; 1129 : 		pScroll->SetScrollPos( m_iCurPage );

  00059	ff b6 70 01 00
	00		 push	 DWORD PTR [esi+368]
  0005f	8b 07		 mov	 eax, DWORD PTR [edi]
  00061	8b cf		 mov	 ecx, edi
  00063	ff 90 38 01 00
	00		 call	 DWORD PTR [eax+312]
$LN1@SetScrollR:

; 1130 : 	}
; 1131 : }

  00069	5f		 pop	 edi
  0006a	5e		 pop	 esi
  0006b	c3		 ret	 0
?SetScrollRange@FileListWnd@@IAEXXZ ENDP		; FileListWnd::SetScrollRange
_TEXT	ENDS
PUBLIC	??D?$_Vector_iterator@V?$_Vector_val@UFileInfo@FileListWnd@@V?$allocator@UFileInfo@FileListWnd@@@std@@@std@@@std@@QBEAAUFileInfo@FileListWnd@@XZ ; std::_Vector_iterator<std::_Vector_val<FileListWnd::FileInfo,std::allocator<FileListWnd::FileInfo> > >::operator*
; Function compile flags: /Ogsp
; File c:\program files (x86)\microsoft visual studio 10.0\vc\include\vector
;	COMDAT ??D?$_Vector_iterator@V?$_Vector_val@UFileInfo@FileListWnd@@V?$allocator@UFileInfo@FileListWnd@@@std@@@std@@@std@@QBEAAUFileInfo@FileListWnd@@XZ
_TEXT	SEGMENT
??D?$_Vector_iterator@V?$_Vector_val@UFileInfo@FileListWnd@@V?$allocator@UFileInfo@FileListWnd@@@std@@@std@@@std@@QBEAAUFileInfo@FileListWnd@@XZ PROC ; std::_Vector_iterator<std::_Vector_val<FileListWnd::FileInfo,std::allocator<FileListWnd::FileInfo> > >::operator*, COMDAT
; _this$ = ecx

; 322  : 		return ((reference)**(_Mybase *)this);

  00000	8b 01		 mov	 eax, DWORD PTR [ecx]

; 323  : 		}

  00002	c3		 ret	 0
??D?$_Vector_iterator@V?$_Vector_val@UFileInfo@FileListWnd@@V?$allocator@UFileInfo@FileListWnd@@@std@@@std@@@std@@QBEAAUFileInfo@FileListWnd@@XZ ENDP ; std::_Vector_iterator<std::_Vector_val<FileListWnd::FileInfo,std::allocator<FileListWnd::FileInfo> > >::operator*
_TEXT	ENDS
PUBLIC	??E?$_Vector_iterator@V?$_Vector_val@UFileInfo@FileListWnd@@V?$allocator@UFileInfo@FileListWnd@@@std@@@std@@@std@@QAEAAV01@XZ ; std::_Vector_iterator<std::_Vector_val<FileListWnd::FileInfo,std::allocator<FileListWnd::FileInfo> > >::operator++
; Function compile flags: /Ogsp
;	COMDAT ??E?$_Vector_iterator@V?$_Vector_val@UFileInfo@FileListWnd@@V?$allocator@UFileInfo@FileListWnd@@@std@@@std@@@std@@QAEAAV01@XZ
_TEXT	SEGMENT
??E?$_Vector_iterator@V?$_Vector_val@UFileInfo@FileListWnd@@V?$allocator@UFileInfo@FileListWnd@@@std@@@std@@@std@@QAEAAV01@XZ PROC ; std::_Vector_iterator<std::_Vector_val<FileListWnd::FileInfo,std::allocator<FileListWnd::FileInfo> > >::operator++, COMDAT
; _this$ = ecx

; 331  : 		{	// preincrement

  00000	8b c1		 mov	 eax, ecx

; 332  : 		++*(_Mybase *)this;

  00002	83 00 14	 add	 DWORD PTR [eax], 20	; 00000014H

; 333  : 		return (*this);
; 334  : 		}

  00005	c3		 ret	 0
??E?$_Vector_iterator@V?$_Vector_val@UFileInfo@FileListWnd@@V?$allocator@UFileInfo@FileListWnd@@@std@@@std@@@std@@QAEAAV01@XZ ENDP ; std::_Vector_iterator<std::_Vector_val<FileListWnd::FileInfo,std::allocator<FileListWnd::FileInfo> > >::operator++
_TEXT	ENDS
PUBLIC	?max_size@?$vector@UFileDriveItem@@V?$allocator@UFileDriveItem@@@std@@@std@@QBEIXZ ; std::vector<FileDriveItem,std::allocator<FileDriveItem> >::max_size
; Function compile flags: /Ogsp
;	COMDAT ?max_size@?$vector@UFileDriveItem@@V?$allocator@UFileDriveItem@@@std@@@std@@QBEIXZ
_TEXT	SEGMENT
?max_size@?$vector@UFileDriveItem@@V?$allocator@UFileDriveItem@@@std@@@std@@QBEIXZ PROC ; std::vector<FileDriveItem,std::allocator<FileDriveItem> >::max_size, COMDAT
; _this$ = ecx

; 884  : 		return (this->_Alval.max_size());

  00000	b8 cc cc cc 0c	 mov	 eax, 214748364		; 0cccccccH

; 885  : 		}

  00005	c3		 ret	 0
?max_size@?$vector@UFileDriveItem@@V?$allocator@UFileDriveItem@@@std@@@std@@QBEIXZ ENDP ; std::vector<FileDriveItem,std::allocator<FileDriveItem> >::max_size
_TEXT	ENDS
PUBLIC	??0?$_Vector_val@UFileDriveItem@@V?$allocator@UFileDriveItem@@@std@@@std@@QAE@V?$allocator@UFileDriveItem@@@1@@Z ; std::_Vector_val<FileDriveItem,std::allocator<FileDriveItem> >::_Vector_val<FileDriveItem,std::allocator<FileDriveItem> >
; Function compile flags: /Ogsp
;	COMDAT ??0?$_Vector_val@UFileDriveItem@@V?$allocator@UFileDriveItem@@@std@@@std@@QAE@V?$allocator@UFileDriveItem@@@1@@Z
_TEXT	SEGMENT
__Al$ = 8						; size = 1
??0?$_Vector_val@UFileDriveItem@@V?$allocator@UFileDriveItem@@@std@@@std@@QAE@V?$allocator@UFileDriveItem@@@1@@Z PROC ; std::_Vector_val<FileDriveItem,std::allocator<FileDriveItem> >::_Vector_val<FileDriveItem,std::allocator<FileDriveItem> >, COMDAT
; _this$ = ecx

; 426  : 		{	// construct allocator from _Al

  00000	8b c1		 mov	 eax, ecx

; 427  : 		_Myfirst = 0;

  00002	33 c9		 xor	 ecx, ecx
  00004	89 08		 mov	 DWORD PTR [eax], ecx

; 428  : 		_Mylast = 0;

  00006	89 48 04	 mov	 DWORD PTR [eax+4], ecx

; 429  : 		_Myend = 0;

  00009	89 48 08	 mov	 DWORD PTR [eax+8], ecx

; 430  : 		}

  0000c	c2 04 00	 ret	 4
??0?$_Vector_val@UFileDriveItem@@V?$allocator@UFileDriveItem@@@std@@@std@@QAE@V?$allocator@UFileDriveItem@@@1@@Z ENDP ; std::_Vector_val<FileDriveItem,std::allocator<FileDriveItem> >::_Vector_val<FileDriveItem,std::allocator<FileDriveItem> >
_TEXT	ENDS
PUBLIC	?allocate@?$allocator@UFileDriveItem@@@std@@QAEPAUFileDriveItem@@I@Z ; std::allocator<FileDriveItem>::allocate
; Function compile flags: /Ogsp
; File c:\program files (x86)\microsoft visual studio 10.0\vc\include\xmemory
;	COMDAT ?allocate@?$allocator@UFileDriveItem@@@std@@QAEPAUFileDriveItem@@I@Z
_TEXT	SEGMENT
__Count$ = 8						; size = 4
?allocate@?$allocator@UFileDriveItem@@@std@@QAEPAUFileDriveItem@@I@Z PROC ; std::allocator<FileDriveItem>::allocate, COMDAT
; _this$ = ecx

; 186  : 		{	// allocate array of _Count elements

  00000	55		 push	 ebp
  00001	8b ec		 mov	 ebp, esp

; 187  : 		return (_Allocate(_Count, (pointer)0));

  00003	6a 00		 push	 0
  00005	ff 75 08	 push	 DWORD PTR __Count$[ebp]
  00008	e8 00 00 00 00	 call	 ??$_Allocate@UFileDriveItem@@@std@@YAPAUFileDriveItem@@IPAU1@@Z ; std::_Allocate<FileDriveItem>
  0000d	59		 pop	 ecx
  0000e	59		 pop	 ecx

; 188  : 		}

  0000f	5d		 pop	 ebp
  00010	c2 04 00	 ret	 4
?allocate@?$allocator@UFileDriveItem@@@std@@QAEPAUFileDriveItem@@I@Z ENDP ; std::allocator<FileDriveItem>::allocate
_TEXT	ENDS
PUBLIC	??0?$_Vector_val@UFileInfo@FileListWnd@@V?$allocator@UFileInfo@FileListWnd@@@std@@@std@@QAE@V?$allocator@UFileInfo@FileListWnd@@@1@@Z ; std::_Vector_val<FileListWnd::FileInfo,std::allocator<FileListWnd::FileInfo> >::_Vector_val<FileListWnd::FileInfo,std::allocator<FileListWnd::FileInfo> >
; Function compile flags: /Ogsp
; File c:\program files (x86)\microsoft visual studio 10.0\vc\include\vector
;	COMDAT ??0?$_Vector_val@UFileInfo@FileListWnd@@V?$allocator@UFileInfo@FileListWnd@@@std@@@std@@QAE@V?$allocator@UFileInfo@FileListWnd@@@1@@Z
_TEXT	SEGMENT
__Al$ = 8						; size = 1
??0?$_Vector_val@UFileInfo@FileListWnd@@V?$allocator@UFileInfo@FileListWnd@@@std@@@std@@QAE@V?$allocator@UFileInfo@FileListWnd@@@1@@Z PROC ; std::_Vector_val<FileListWnd::FileInfo,std::allocator<FileListWnd::FileInfo> >::_Vector_val<FileListWnd::FileInfo,std::allocator<FileListWnd::FileInfo> >, COMDAT
; _this$ = ecx

; 426  : 		{	// construct allocator from _Al

  00000	8b c1		 mov	 eax, ecx

; 427  : 		_Myfirst = 0;

  00002	33 c9		 xor	 ecx, ecx
  00004	89 08		 mov	 DWORD PTR [eax], ecx

; 428  : 		_Mylast = 0;

  00006	89 48 04	 mov	 DWORD PTR [eax+4], ecx

; 429  : 		_Myend = 0;

  00009	89 48 08	 mov	 DWORD PTR [eax+8], ecx

; 430  : 		}

  0000c	c2 04 00	 ret	 4
??0?$_Vector_val@UFileInfo@FileListWnd@@V?$allocator@UFileInfo@FileListWnd@@@std@@@std@@QAE@V?$allocator@UFileInfo@FileListWnd@@@1@@Z ENDP ; std::_Vector_val<FileListWnd::FileInfo,std::allocator<FileListWnd::FileInfo> >::_Vector_val<FileListWnd::FileInfo,std::allocator<FileListWnd::FileInfo> >
_TEXT	ENDS
PUBLIC	??0?$_Vector_iterator@V?$_Vector_val@UFileDriveItem@@V?$allocator@UFileDriveItem@@@std@@@std@@@std@@QAE@PAUFileDriveItem@@PBU_Container_base0@1@@Z ; std::_Vector_iterator<std::_Vector_val<FileDriveItem,std::allocator<FileDriveItem> > >::_Vector_iterator<std::_Vector_val<FileDriveItem,std::allocator<FileDriveItem> > >
; Function compile flags: /Ogsp
;	COMDAT ??0?$_Vector_iterator@V?$_Vector_val@UFileDriveItem@@V?$allocator@UFileDriveItem@@@std@@@std@@@std@@QAE@PAUFileDriveItem@@PBU_Container_base0@1@@Z
_TEXT	SEGMENT
__Parg$ = 8						; size = 4
__Pvector$ = 12						; size = 4
??0?$_Vector_iterator@V?$_Vector_val@UFileDriveItem@@V?$allocator@UFileDriveItem@@@std@@@std@@@std@@QAE@PAUFileDriveItem@@PBU_Container_base0@1@@Z PROC ; std::_Vector_iterator<std::_Vector_val<FileDriveItem,std::allocator<FileDriveItem> > >::_Vector_iterator<std::_Vector_val<FileDriveItem,std::allocator<FileDriveItem> > >, COMDAT
; _this$ = ecx

; 304  : 		{	// construct with pointer _Parg

  00000	55		 push	 ebp
  00001	8b ec		 mov	 ebp, esp
  00003	8b c1		 mov	 eax, ecx
  00005	8b 4d 08	 mov	 ecx, DWORD PTR __Parg$[ebp]
  00008	89 08		 mov	 DWORD PTR [eax], ecx

; 305  : 		}

  0000a	5d		 pop	 ebp
  0000b	c2 08 00	 ret	 8
??0?$_Vector_iterator@V?$_Vector_val@UFileDriveItem@@V?$allocator@UFileDriveItem@@@std@@@std@@@std@@QAE@PAUFileDriveItem@@PBU_Container_base0@1@@Z ENDP ; std::_Vector_iterator<std::_Vector_val<FileDriveItem,std::allocator<FileDriveItem> > >::_Vector_iterator<std::_Vector_val<FileDriveItem,std::allocator<FileDriveItem> > >
_TEXT	ENDS
PUBLIC	??0?$_Vector_iterator@V?$_Vector_val@UFileInfo@FileListWnd@@V?$allocator@UFileInfo@FileListWnd@@@std@@@std@@@std@@QAE@PAUFileInfo@FileListWnd@@PBU_Container_base0@1@@Z ; std::_Vector_iterator<std::_Vector_val<FileListWnd::FileInfo,std::allocator<FileListWnd::FileInfo> > >::_Vector_iterator<std::_Vector_val<FileListWnd::FileInfo,std::allocator<FileListWnd::FileInfo> > >
; Function compile flags: /Ogsp
;	COMDAT ??0?$_Vector_iterator@V?$_Vector_val@UFileInfo@FileListWnd@@V?$allocator@UFileInfo@FileListWnd@@@std@@@std@@@std@@QAE@PAUFileInfo@FileListWnd@@PBU_Container_base0@1@@Z
_TEXT	SEGMENT
__Parg$ = 8						; size = 4
__Pvector$ = 12						; size = 4
??0?$_Vector_iterator@V?$_Vector_val@UFileInfo@FileListWnd@@V?$allocator@UFileInfo@FileListWnd@@@std@@@std@@@std@@QAE@PAUFileInfo@FileListWnd@@PBU_Container_base0@1@@Z PROC ; std::_Vector_iterator<std::_Vector_val<FileListWnd::FileInfo,std::allocator<FileListWnd::FileInfo> > >::_Vector_iterator<std::_Vector_val<FileListWnd::FileInfo,std::allocator<FileListWnd::FileInfo> > >, COMDAT
; _this$ = ecx

; 304  : 		{	// construct with pointer _Parg

  00000	55		 push	 ebp
  00001	8b ec		 mov	 ebp, esp
  00003	8b c1		 mov	 eax, ecx
  00005	8b 4d 08	 mov	 ecx, DWORD PTR __Parg$[ebp]
  00008	89 08		 mov	 DWORD PTR [eax], ecx

; 305  : 		}

  0000a	5d		 pop	 ebp
  0000b	c2 08 00	 ret	 8
??0?$_Vector_iterator@V?$_Vector_val@UFileInfo@FileListWnd@@V?$allocator@UFileInfo@FileListWnd@@@std@@@std@@@std@@QAE@PAUFileInfo@FileListWnd@@PBU_Container_base0@1@@Z ENDP ; std::_Vector_iterator<std::_Vector_val<FileListWnd::FileInfo,std::allocator<FileListWnd::FileInfo> > >::_Vector_iterator<std::_Vector_val<FileListWnd::FileInfo,std::allocator<FileListWnd::FileInfo> > >
_TEXT	ENDS
PUBLIC	??8?$_Vector_const_iterator@V?$_Vector_val@UFileInfo@FileListWnd@@V?$allocator@UFileInfo@FileListWnd@@@std@@@std@@@std@@QBE_NABV01@@Z ; std::_Vector_const_iterator<std::_Vector_val<FileListWnd::FileInfo,std::allocator<FileListWnd::FileInfo> > >::operator==
; Function compile flags: /Ogsp
;	COMDAT ??8?$_Vector_const_iterator@V?$_Vector_val@UFileInfo@FileListWnd@@V?$allocator@UFileInfo@FileListWnd@@@std@@@std@@@std@@QBE_NABV01@@Z
_TEXT	SEGMENT
__Right$ = 8						; size = 4
??8?$_Vector_const_iterator@V?$_Vector_val@UFileInfo@FileListWnd@@V?$allocator@UFileInfo@FileListWnd@@@std@@@std@@@std@@QBE_NABV01@@Z PROC ; std::_Vector_const_iterator<std::_Vector_val<FileListWnd::FileInfo,std::allocator<FileListWnd::FileInfo> > >::operator==, COMDAT
; _this$ = ecx

; 201  : 		{	// test for iterator equality

  00000	55		 push	 ebp
  00001	8b ec		 mov	 ebp, esp

; 202  : 		_Compat(_Right);
; 203  : 		return (this->_Ptr == _Right._Ptr);

  00003	8b 01		 mov	 eax, DWORD PTR [ecx]
  00005	8b 4d 08	 mov	 ecx, DWORD PTR __Right$[ebp]
  00008	2b 01		 sub	 eax, DWORD PTR [ecx]
  0000a	f7 d8		 neg	 eax
  0000c	1b c0		 sbb	 eax, eax
  0000e	40		 inc	 eax

; 204  : 		}

  0000f	5d		 pop	 ebp
  00010	c2 04 00	 ret	 4
??8?$_Vector_const_iterator@V?$_Vector_val@UFileInfo@FileListWnd@@V?$allocator@UFileInfo@FileListWnd@@@std@@@std@@@std@@QBE_NABV01@@Z ENDP ; std::_Vector_const_iterator<std::_Vector_val<FileListWnd::FileInfo,std::allocator<FileListWnd::FileInfo> > >::operator==
_TEXT	ENDS
PUBLIC	?_Make_iter@?$vector@UFileDriveItem@@V?$allocator@UFileDriveItem@@@std@@@std@@QBE?AV?$_Vector_iterator@V?$_Vector_val@UFileDriveItem@@V?$allocator@UFileDriveItem@@@std@@@std@@@2@V?$_Vector_const_iterator@V?$_Vector_val@UFileDriveItem@@V?$allocator@UFileDriveItem@@@std@@@std@@@2@@Z ; std::vector<FileDriveItem,std::allocator<FileDriveItem> >::_Make_iter
; Function compile flags: /Ogsp
;	COMDAT ?_Make_iter@?$vector@UFileDriveItem@@V?$allocator@UFileDriveItem@@@std@@@std@@QBE?AV?$_Vector_iterator@V?$_Vector_val@UFileDriveItem@@V?$allocator@UFileDriveItem@@@std@@@std@@@2@V?$_Vector_const_iterator@V?$_Vector_val@UFileDriveItem@@V?$allocator@UFileDriveItem@@@std@@@std@@@2@@Z
_TEXT	SEGMENT
___$ReturnUdt$ = 8					; size = 4
__Where$ = 12						; size = 4
?_Make_iter@?$vector@UFileDriveItem@@V?$allocator@UFileDriveItem@@@std@@@std@@QBE?AV?$_Vector_iterator@V?$_Vector_val@UFileDriveItem@@V?$allocator@UFileDriveItem@@@std@@@std@@@2@V?$_Vector_const_iterator@V?$_Vector_val@UFileDriveItem@@V?$allocator@UFileDriveItem@@@std@@@std@@@2@@Z PROC ; std::vector<FileDriveItem,std::allocator<FileDriveItem> >::_Make_iter, COMDAT
; _this$ = ecx

; 801  : 		{	// make iterator from const_iterator

  00000	55		 push	 ebp
  00001	8b ec		 mov	 ebp, esp

; 802  : 		return (iterator(_Where._Ptr, this));

  00003	8b 45 08	 mov	 eax, DWORD PTR ___$ReturnUdt$[ebp]
  00006	8b 4d 0c	 mov	 ecx, DWORD PTR __Where$[ebp]
  00009	89 08		 mov	 DWORD PTR [eax], ecx

; 803  : 		}

  0000b	5d		 pop	 ebp
  0000c	c2 08 00	 ret	 8
?_Make_iter@?$vector@UFileDriveItem@@V?$allocator@UFileDriveItem@@@std@@@std@@QBE?AV?$_Vector_iterator@V?$_Vector_val@UFileDriveItem@@V?$allocator@UFileDriveItem@@@std@@@std@@@2@V?$_Vector_const_iterator@V?$_Vector_val@UFileDriveItem@@V?$allocator@UFileDriveItem@@@std@@@std@@@2@@Z ENDP ; std::vector<FileDriveItem,std::allocator<FileDriveItem> >::_Make_iter
_TEXT	ENDS
PUBLIC	?_Grow_to@?$vector@UFileDriveItem@@V?$allocator@UFileDriveItem@@@std@@@std@@IBEII@Z ; std::vector<FileDriveItem,std::allocator<FileDriveItem> >::_Grow_to
; Function compile flags: /Ogsp
;	COMDAT ?_Grow_to@?$vector@UFileDriveItem@@V?$allocator@UFileDriveItem@@@std@@@std@@IBEII@Z
_TEXT	SEGMENT
__Count$ = 8						; size = 4
?_Grow_to@?$vector@UFileDriveItem@@V?$allocator@UFileDriveItem@@@std@@@std@@IBEII@Z PROC ; std::vector<FileDriveItem,std::allocator<FileDriveItem> >::_Grow_to, COMDAT
; _this$ = ecx

; 1274 : 		{	// grow by 50% or at least to _Count

  00000	55		 push	 ebp
  00001	8b ec		 mov	 ebp, esp

; 1275 : 		size_type _Capacity = capacity();

  00003	8b 41 08	 mov	 eax, DWORD PTR [ecx+8]
  00006	2b 01		 sub	 eax, DWORD PTR [ecx]
  00008	6a 14		 push	 20			; 00000014H
  0000a	99		 cdq
  0000b	59		 pop	 ecx
  0000c	f7 f9		 idiv	 ecx

; 1276 : 
; 1277 : 		_Capacity = max_size() - _Capacity / 2 < _Capacity
; 1278 : 			? 0 : _Capacity + _Capacity / 2;	// try to grow by 50%

  0000e	ba cc cc cc 0c	 mov	 edx, 214748364		; 0cccccccH
  00013	8b c8		 mov	 ecx, eax
  00015	d1 e9		 shr	 ecx, 1
  00017	2b d1		 sub	 edx, ecx
  00019	3b d0		 cmp	 edx, eax
  0001b	73 04		 jae	 SHORT $LN4@Grow_to
  0001d	33 c0		 xor	 eax, eax
  0001f	eb 02		 jmp	 SHORT $LN5@Grow_to
$LN4@Grow_to:
  00021	03 c1		 add	 eax, ecx
$LN5@Grow_to:

; 1279 : 		if (_Capacity < _Count)

  00023	3b 45 08	 cmp	 eax, DWORD PTR __Count$[ebp]

; 1280 : 			_Capacity = _Count;

  00026	0f 42 45 08	 cmovb	 eax, DWORD PTR __Count$[ebp]

; 1281 : 		return (_Capacity);
; 1282 : 		}

  0002a	5d		 pop	 ebp
  0002b	c2 04 00	 ret	 4
?_Grow_to@?$vector@UFileDriveItem@@V?$allocator@UFileDriveItem@@@std@@@std@@IBEII@Z ENDP ; std::vector<FileDriveItem,std::allocator<FileDriveItem> >::_Grow_to
_TEXT	ENDS
PUBLIC	?_Make_iter@?$vector@UFileInfo@FileListWnd@@V?$allocator@UFileInfo@FileListWnd@@@std@@@std@@QBE?AV?$_Vector_iterator@V?$_Vector_val@UFileInfo@FileListWnd@@V?$allocator@UFileInfo@FileListWnd@@@std@@@std@@@2@V?$_Vector_const_iterator@V?$_Vector_val@UFileInfo@FileListWnd@@V?$allocator@UFileInfo@FileListWnd@@@std@@@std@@@2@@Z ; std::vector<FileListWnd::FileInfo,std::allocator<FileListWnd::FileInfo> >::_Make_iter
; Function compile flags: /Ogsp
;	COMDAT ?_Make_iter@?$vector@UFileInfo@FileListWnd@@V?$allocator@UFileInfo@FileListWnd@@@std@@@std@@QBE?AV?$_Vector_iterator@V?$_Vector_val@UFileInfo@FileListWnd@@V?$allocator@UFileInfo@FileListWnd@@@std@@@std@@@2@V?$_Vector_const_iterator@V?$_Vector_val@UFileInfo@FileListWnd@@V?$allocator@UFileInfo@FileListWnd@@@std@@@std@@@2@@Z
_TEXT	SEGMENT
___$ReturnUdt$ = 8					; size = 4
__Where$ = 12						; size = 4
?_Make_iter@?$vector@UFileInfo@FileListWnd@@V?$allocator@UFileInfo@FileListWnd@@@std@@@std@@QBE?AV?$_Vector_iterator@V?$_Vector_val@UFileInfo@FileListWnd@@V?$allocator@UFileInfo@FileListWnd@@@std@@@std@@@2@V?$_Vector_const_iterator@V?$_Vector_val@UFileInfo@FileListWnd@@V?$allocator@UFileInfo@FileListWnd@@@std@@@std@@@2@@Z PROC ; std::vector<FileListWnd::FileInfo,std::allocator<FileListWnd::FileInfo> >::_Make_iter, COMDAT
; _this$ = ecx

; 801  : 		{	// make iterator from const_iterator

  00000	55		 push	 ebp
  00001	8b ec		 mov	 ebp, esp

; 802  : 		return (iterator(_Where._Ptr, this));

  00003	8b 45 08	 mov	 eax, DWORD PTR ___$ReturnUdt$[ebp]
  00006	8b 4d 0c	 mov	 ecx, DWORD PTR __Where$[ebp]
  00009	89 08		 mov	 DWORD PTR [eax], ecx

; 803  : 		}

  0000b	5d		 pop	 ebp
  0000c	c2 08 00	 ret	 8
?_Make_iter@?$vector@UFileInfo@FileListWnd@@V?$allocator@UFileInfo@FileListWnd@@@std@@@std@@QBE?AV?$_Vector_iterator@V?$_Vector_val@UFileInfo@FileListWnd@@V?$allocator@UFileInfo@FileListWnd@@@std@@@std@@@2@V?$_Vector_const_iterator@V?$_Vector_val@UFileInfo@FileListWnd@@V?$allocator@UFileInfo@FileListWnd@@@std@@@std@@@2@@Z ENDP ; std::vector<FileListWnd::FileInfo,std::allocator<FileListWnd::FileInfo> >::_Make_iter
_TEXT	ENDS
PUBLIC	?max_size@?$vector@UFileInfo@FileListWnd@@V?$allocator@UFileInfo@FileListWnd@@@std@@@std@@QBEIXZ ; std::vector<FileListWnd::FileInfo,std::allocator<FileListWnd::FileInfo> >::max_size
; Function compile flags: /Ogsp
;	COMDAT ?max_size@?$vector@UFileInfo@FileListWnd@@V?$allocator@UFileInfo@FileListWnd@@@std@@@std@@QBEIXZ
_TEXT	SEGMENT
?max_size@?$vector@UFileInfo@FileListWnd@@V?$allocator@UFileInfo@FileListWnd@@@std@@@std@@QBEIXZ PROC ; std::vector<FileListWnd::FileInfo,std::allocator<FileListWnd::FileInfo> >::max_size, COMDAT
; _this$ = ecx

; 884  : 		return (this->_Alval.max_size());

  00000	b8 cc cc cc 0c	 mov	 eax, 214748364		; 0cccccccH

; 885  : 		}

  00005	c3		 ret	 0
?max_size@?$vector@UFileInfo@FileListWnd@@V?$allocator@UFileInfo@FileListWnd@@@std@@@std@@QBEIXZ ENDP ; std::vector<FileListWnd::FileInfo,std::allocator<FileListWnd::FileInfo> >::max_size
_TEXT	ENDS
PUBLIC	?_Grow_to@?$vector@UFileInfo@FileListWnd@@V?$allocator@UFileInfo@FileListWnd@@@std@@@std@@IBEII@Z ; std::vector<FileListWnd::FileInfo,std::allocator<FileListWnd::FileInfo> >::_Grow_to
; Function compile flags: /Ogsp
;	COMDAT ?_Grow_to@?$vector@UFileInfo@FileListWnd@@V?$allocator@UFileInfo@FileListWnd@@@std@@@std@@IBEII@Z
_TEXT	SEGMENT
__Count$ = 8						; size = 4
?_Grow_to@?$vector@UFileInfo@FileListWnd@@V?$allocator@UFileInfo@FileListWnd@@@std@@@std@@IBEII@Z PROC ; std::vector<FileListWnd::FileInfo,std::allocator<FileListWnd::FileInfo> >::_Grow_to, COMDAT
; _this$ = ecx

; 1274 : 		{	// grow by 50% or at least to _Count

  00000	55		 push	 ebp
  00001	8b ec		 mov	 ebp, esp

; 1275 : 		size_type _Capacity = capacity();

  00003	8b 41 08	 mov	 eax, DWORD PTR [ecx+8]
  00006	2b 01		 sub	 eax, DWORD PTR [ecx]
  00008	6a 14		 push	 20			; 00000014H
  0000a	99		 cdq
  0000b	59		 pop	 ecx
  0000c	f7 f9		 idiv	 ecx

; 1276 : 
; 1277 : 		_Capacity = max_size() - _Capacity / 2 < _Capacity
; 1278 : 			? 0 : _Capacity + _Capacity / 2;	// try to grow by 50%

  0000e	ba cc cc cc 0c	 mov	 edx, 214748364		; 0cccccccH
  00013	8b c8		 mov	 ecx, eax
  00015	d1 e9		 shr	 ecx, 1
  00017	2b d1		 sub	 edx, ecx
  00019	3b d0		 cmp	 edx, eax
  0001b	73 04		 jae	 SHORT $LN4@Grow_to@2
  0001d	33 c0		 xor	 eax, eax
  0001f	eb 02		 jmp	 SHORT $LN5@Grow_to@2
$LN4@Grow_to@2:
  00021	03 c1		 add	 eax, ecx
$LN5@Grow_to@2:

; 1279 : 		if (_Capacity < _Count)

  00023	3b 45 08	 cmp	 eax, DWORD PTR __Count$[ebp]

; 1280 : 			_Capacity = _Count;

  00026	0f 42 45 08	 cmovb	 eax, DWORD PTR __Count$[ebp]

; 1281 : 		return (_Capacity);
; 1282 : 		}

  0002a	5d		 pop	 ebp
  0002b	c2 04 00	 ret	 4
?_Grow_to@?$vector@UFileInfo@FileListWnd@@V?$allocator@UFileInfo@FileListWnd@@@std@@@std@@IBEII@Z ENDP ; std::vector<FileListWnd::FileInfo,std::allocator<FileListWnd::FileInfo> >::_Grow_to
_TEXT	ENDS
PUBLIC	??Y?$_Vector_iterator@V?$_Vector_val@UFileDriveItem@@V?$allocator@UFileDriveItem@@@std@@@std@@@std@@QAEAAV01@H@Z ; std::_Vector_iterator<std::_Vector_val<FileDriveItem,std::allocator<FileDriveItem> > >::operator+=
; Function compile flags: /Ogsp
;	COMDAT ??Y?$_Vector_iterator@V?$_Vector_val@UFileDriveItem@@V?$allocator@UFileDriveItem@@@std@@@std@@@std@@QAEAAV01@H@Z
_TEXT	SEGMENT
__Off$ = 8						; size = 4
??Y?$_Vector_iterator@V?$_Vector_val@UFileDriveItem@@V?$allocator@UFileDriveItem@@@std@@@std@@@std@@QAEAAV01@H@Z PROC ; std::_Vector_iterator<std::_Vector_val<FileDriveItem,std::allocator<FileDriveItem> > >::operator+=, COMDAT
; _this$ = ecx

; 357  : 		{	// increment by integer

  00000	55		 push	 ebp
  00001	8b ec		 mov	 ebp, esp
  00003	8b c1		 mov	 eax, ecx

; 358  : 		*(_Mybase *)this += _Off;

  00005	8b 4d 08	 mov	 ecx, DWORD PTR __Off$[ebp]
  00008	6b c9 14	 imul	 ecx, 20			; 00000014H
  0000b	01 08		 add	 DWORD PTR [eax], ecx

; 359  : 		return (*this);
; 360  : 		}

  0000d	5d		 pop	 ebp
  0000e	c2 04 00	 ret	 4
??Y?$_Vector_iterator@V?$_Vector_val@UFileDriveItem@@V?$allocator@UFileDriveItem@@@std@@@std@@@std@@QAEAAV01@H@Z ENDP ; std::_Vector_iterator<std::_Vector_val<FileDriveItem,std::allocator<FileDriveItem> > >::operator+=
_TEXT	ENDS
PUBLIC	?allocate@?$allocator@UFileInfo@FileListWnd@@@std@@QAEPAUFileInfo@FileListWnd@@I@Z ; std::allocator<FileListWnd::FileInfo>::allocate
; Function compile flags: /Ogsp
; File c:\program files (x86)\microsoft visual studio 10.0\vc\include\xmemory
;	COMDAT ?allocate@?$allocator@UFileInfo@FileListWnd@@@std@@QAEPAUFileInfo@FileListWnd@@I@Z
_TEXT	SEGMENT
__Count$ = 8						; size = 4
?allocate@?$allocator@UFileInfo@FileListWnd@@@std@@QAEPAUFileInfo@FileListWnd@@I@Z PROC ; std::allocator<FileListWnd::FileInfo>::allocate, COMDAT
; _this$ = ecx

; 186  : 		{	// allocate array of _Count elements

  00000	55		 push	 ebp
  00001	8b ec		 mov	 ebp, esp

; 187  : 		return (_Allocate(_Count, (pointer)0));

  00003	6a 00		 push	 0
  00005	ff 75 08	 push	 DWORD PTR __Count$[ebp]
  00008	e8 00 00 00 00	 call	 ??$_Allocate@UFileInfo@FileListWnd@@@std@@YAPAUFileInfo@FileListWnd@@IPAU12@@Z ; std::_Allocate<FileListWnd::FileInfo>
  0000d	59		 pop	 ecx
  0000e	59		 pop	 ecx

; 188  : 		}

  0000f	5d		 pop	 ebp
  00010	c2 04 00	 ret	 4
?allocate@?$allocator@UFileInfo@FileListWnd@@@std@@QAEPAUFileInfo@FileListWnd@@I@Z ENDP ; std::allocator<FileListWnd::FileInfo>::allocate
_TEXT	ENDS
PUBLIC	??8?$_Vector_const_iterator@V?$_Vector_val@UFileDriveItem@@V?$allocator@UFileDriveItem@@@std@@@std@@@std@@QBE_NABV01@@Z ; std::_Vector_const_iterator<std::_Vector_val<FileDriveItem,std::allocator<FileDriveItem> > >::operator==
; Function compile flags: /Ogsp
; File c:\program files (x86)\microsoft visual studio 10.0\vc\include\vector
;	COMDAT ??8?$_Vector_const_iterator@V?$_Vector_val@UFileDriveItem@@V?$allocator@UFileDriveItem@@@std@@@std@@@std@@QBE_NABV01@@Z
_TEXT	SEGMENT
__Right$ = 8						; size = 4
??8?$_Vector_const_iterator@V?$_Vector_val@UFileDriveItem@@V?$allocator@UFileDriveItem@@@std@@@std@@@std@@QBE_NABV01@@Z PROC ; std::_Vector_const_iterator<std::_Vector_val<FileDriveItem,std::allocator<FileDriveItem> > >::operator==, COMDAT
; _this$ = ecx

; 201  : 		{	// test for iterator equality

  00000	55		 push	 ebp
  00001	8b ec		 mov	 ebp, esp

; 202  : 		_Compat(_Right);
; 203  : 		return (this->_Ptr == _Right._Ptr);

  00003	8b 01		 mov	 eax, DWORD PTR [ecx]
  00005	8b 4d 08	 mov	 ecx, DWORD PTR __Right$[ebp]
  00008	2b 01		 sub	 eax, DWORD PTR [ecx]
  0000a	f7 d8		 neg	 eax
  0000c	1b c0		 sbb	 eax, eax
  0000e	40		 inc	 eax

; 204  : 		}

  0000f	5d		 pop	 ebp
  00010	c2 04 00	 ret	 4
??8?$_Vector_const_iterator@V?$_Vector_val@UFileDriveItem@@V?$allocator@UFileDriveItem@@@std@@@std@@@std@@QBE_NABV01@@Z ENDP ; std::_Vector_const_iterator<std::_Vector_val<FileDriveItem,std::allocator<FileDriveItem> > >::operator==
_TEXT	ENDS
PUBLIC	__$ArrayPad$
PUBLIC	??$GetIntAttribute_e@$08@ioXMLElement@@QBEHAAY08$$CBD@Z ; ioXMLElement::GetIntAttribute_e<9>
EXTRN	__imp_?GetIntAttribute@ioXMLElement@@QBEHPBD@Z:PROC
; Function compile flags: /Ogsp
; File d:\lost saga for developer\youtube\tutorial\source\src\io3dengine\ioxmlelement.h
;	COMDAT ??$GetIntAttribute_e@$08@ioXMLElement@@QBEHAAY08$$CBD@Z
_TEXT	SEGMENT
__k$ = -20						; size = 9
__$ArrayPad$ = -4					; size = 4
_k$ = 8							; size = 4
??$GetIntAttribute_e@$08@ioXMLElement@@QBEHAAY08$$CBD@Z PROC ; ioXMLElement::GetIntAttribute_e<9>, COMDAT
; _this$ = ecx

; 86   : 	{

  00000	55		 push	 ebp
  00001	8b ec		 mov	 ebp, esp
  00003	83 ec 14	 sub	 esp, 20			; 00000014H
  00006	a1 00 00 00 00	 mov	 eax, DWORD PTR ___security_cookie
  0000b	33 c5		 xor	 eax, ebp
  0000d	89 45 fc	 mov	 DWORD PTR __$ArrayPad$[ebp], eax
  00010	8b 45 08	 mov	 eax, DWORD PTR _k$[ebp]

; 87   : 		_ENCSTR(k, _k);

  00013	8a 10		 mov	 dl, BYTE PTR [eax]
  00015	84 d2		 test	 dl, dl
  00017	0f 84 ee 00 00
	00		 je	 $LN96@GetIntAttr
  0001d	80 f2 ed	 xor	 dl, -19			; ffffffedH
  00020	88 55 ec	 mov	 BYTE PTR __k$[ebp], dl
  00023	8a 50 01	 mov	 dl, BYTE PTR [eax+1]
  00026	84 d2		 test	 dl, dl
  00028	0f 84 d7 00 00
	00		 je	 $LN95@GetIntAttr
  0002e	80 f2 ec	 xor	 dl, -20			; ffffffecH
  00031	88 55 ed	 mov	 BYTE PTR __k$[ebp+1], dl
  00034	8a 50 02	 mov	 dl, BYTE PTR [eax+2]
  00037	84 d2		 test	 dl, dl
  00039	0f 84 c0 00 00
	00		 je	 $LN94@GetIntAttr
  0003f	80 f2 eb	 xor	 dl, -21			; ffffffebH
  00042	88 55 ee	 mov	 BYTE PTR __k$[ebp+2], dl
  00045	8a 50 03	 mov	 dl, BYTE PTR [eax+3]
  00048	84 d2		 test	 dl, dl
  0004a	0f 84 a9 00 00
	00		 je	 $LN93@GetIntAttr
  00050	80 f2 ea	 xor	 dl, -22			; ffffffeaH
  00053	88 55 ef	 mov	 BYTE PTR __k$[ebp+3], dl
  00056	8a 50 04	 mov	 dl, BYTE PTR [eax+4]
  00059	84 d2		 test	 dl, dl
  0005b	0f 84 92 00 00
	00		 je	 $LN92@GetIntAttr
  00061	80 f2 ed	 xor	 dl, -19			; ffffffedH
  00064	88 55 f0	 mov	 BYTE PTR __k$[ebp+4], dl
  00067	8a 50 05	 mov	 dl, BYTE PTR [eax+5]
  0006a	84 d2		 test	 dl, dl
  0006c	74 7f		 je	 SHORT $LN91@GetIntAttr
  0006e	80 f2 ec	 xor	 dl, -20			; ffffffecH
  00071	88 55 f1	 mov	 BYTE PTR __k$[ebp+5], dl
  00074	8a 50 06	 mov	 dl, BYTE PTR [eax+6]
  00077	84 d2		 test	 dl, dl
  00079	74 6c		 je	 SHORT $LN90@GetIntAttr
  0007b	80 f2 eb	 xor	 dl, -21			; ffffffebH
  0007e	88 55 f2	 mov	 BYTE PTR __k$[ebp+6], dl
  00081	8a 50 07	 mov	 dl, BYTE PTR [eax+7]
  00084	84 d2		 test	 dl, dl
  00086	74 59		 je	 SHORT $LN89@GetIntAttr
  00088	80 f2 ea	 xor	 dl, -22			; ffffffeaH
  0008b	80 78 08 00	 cmp	 BYTE PTR [eax+8], 0
  0008f	88 55 f3	 mov	 BYTE PTR __k$[ebp+7], dl
  00092	74 7b		 je	 SHORT $LN1@GetIntAttr
  00094	8a 50 09	 mov	 dl, BYTE PTR [eax+9]
  00097	84 d2		 test	 dl, dl
  00099	74 40		 je	 SHORT $LN87@GetIntAttr
  0009b	80 f2 ec	 xor	 dl, -20			; ffffffecH
  0009e	88 55 f5	 mov	 BYTE PTR __k$[ebp+9], dl
  000a1	8a 50 0a	 mov	 dl, BYTE PTR [eax+10]
  000a4	84 d2		 test	 dl, dl
  000a6	74 2d		 je	 SHORT $LN86@GetIntAttr
  000a8	80 f2 eb	 xor	 dl, -21			; ffffffebH
  000ab	88 55 f6	 mov	 BYTE PTR __k$[ebp+10], dl
  000ae	8a 50 0b	 mov	 dl, BYTE PTR [eax+11]
  000b1	84 d2		 test	 dl, dl
  000b3	74 1a		 je	 SHORT $LN85@GetIntAttr
  000b5	8a 40 0c	 mov	 al, BYTE PTR [eax+12]
  000b8	80 f2 ea	 xor	 dl, -22			; ffffffeaH
  000bb	88 55 f7	 mov	 BYTE PTR __k$[ebp+11], dl
  000be	84 c0		 test	 al, al
  000c0	74 07		 je	 SHORT $LN84@GetIntAttr
  000c2	34 ed		 xor	 al, -19			; ffffffedH
  000c4	88 45 f8	 mov	 BYTE PTR __k$[ebp+12], al
  000c7	eb 46		 jmp	 SHORT $LN1@GetIntAttr
$LN84@GetIntAttr:
  000c9	c6 45 f8 ed	 mov	 BYTE PTR __k$[ebp+12], -19 ; ffffffedH
  000cd	eb 40		 jmp	 SHORT $LN1@GetIntAttr
$LN85@GetIntAttr:
  000cf	c6 45 f7 ea	 mov	 BYTE PTR __k$[ebp+11], -22 ; ffffffeaH
  000d3	eb 3a		 jmp	 SHORT $LN1@GetIntAttr
$LN86@GetIntAttr:
  000d5	c6 45 f6 eb	 mov	 BYTE PTR __k$[ebp+10], -21 ; ffffffebH
  000d9	eb 34		 jmp	 SHORT $LN1@GetIntAttr
$LN87@GetIntAttr:
  000db	c6 45 f5 ec	 mov	 BYTE PTR __k$[ebp+9], -20 ; ffffffecH
  000df	eb 2e		 jmp	 SHORT $LN1@GetIntAttr
$LN89@GetIntAttr:
  000e1	c6 45 f3 ea	 mov	 BYTE PTR __k$[ebp+7], -22 ; ffffffeaH
  000e5	eb 28		 jmp	 SHORT $LN1@GetIntAttr
$LN90@GetIntAttr:
  000e7	c6 45 f2 eb	 mov	 BYTE PTR __k$[ebp+6], -21 ; ffffffebH
  000eb	eb 22		 jmp	 SHORT $LN1@GetIntAttr
$LN91@GetIntAttr:
  000ed	c6 45 f1 ec	 mov	 BYTE PTR __k$[ebp+5], -20 ; ffffffecH
  000f1	eb 1c		 jmp	 SHORT $LN1@GetIntAttr
$LN92@GetIntAttr:
  000f3	c6 45 f0 ed	 mov	 BYTE PTR __k$[ebp+4], -19 ; ffffffedH
  000f7	eb 16		 jmp	 SHORT $LN1@GetIntAttr
$LN93@GetIntAttr:
  000f9	c6 45 ef ea	 mov	 BYTE PTR __k$[ebp+3], -22 ; ffffffeaH
  000fd	eb 10		 jmp	 SHORT $LN1@GetIntAttr
$LN94@GetIntAttr:
  000ff	c6 45 ee eb	 mov	 BYTE PTR __k$[ebp+2], -21 ; ffffffebH
  00103	eb 0a		 jmp	 SHORT $LN1@GetIntAttr
$LN95@GetIntAttr:
  00105	c6 45 ed ec	 mov	 BYTE PTR __k$[ebp+1], -20 ; ffffffecH
  00109	eb 04		 jmp	 SHORT $LN1@GetIntAttr
$LN96@GetIntAttr:
  0010b	c6 45 ec ed	 mov	 BYTE PTR __k$[ebp], -19	; ffffffedH
$LN1@GetIntAttr:
  0010f	6a 02		 push	 2
  00111	8d 45 ec	 lea	 eax, DWORD PTR __k$[ebp]
  00114	c6 45 f4 00	 mov	 BYTE PTR __k$[ebp+8], 0
  00118	5a		 pop	 edx
$LL104@GetIntAttr:
  00119	81 30 ed ec eb
	ea		 xor	 DWORD PTR [eax], -353637139 ; eaebecedH
  0011f	83 c0 04	 add	 eax, 4
  00122	4a		 dec	 edx
  00123	75 f4		 jne	 SHORT $LL104@GetIntAttr

; 88   : 		return GetIntAttribute(_k);

  00125	8d 45 ec	 lea	 eax, DWORD PTR __k$[ebp]
  00128	50		 push	 eax
  00129	ff 15 00 00 00
	00		 call	 DWORD PTR __imp_?GetIntAttribute@ioXMLElement@@QBEHPBD@Z

; 89   : 	}

  0012f	8b 4d fc	 mov	 ecx, DWORD PTR __$ArrayPad$[ebp]
  00132	33 cd		 xor	 ecx, ebp
  00134	e8 00 00 00 00	 call	 @__security_check_cookie@4
  00139	c9		 leave
  0013a	c2 04 00	 ret	 4
??$GetIntAttribute_e@$08@ioXMLElement@@QBEHAAY08$$CBD@Z ENDP ; ioXMLElement::GetIntAttribute_e<9>
_TEXT	ENDS
PUBLIC	__$ArrayPad$
PUBLIC	??$GetIntAttribute_e@$09@ioXMLElement@@QBEHAAY09$$CBD@Z ; ioXMLElement::GetIntAttribute_e<10>
; Function compile flags: /Ogsp
;	COMDAT ??$GetIntAttribute_e@$09@ioXMLElement@@QBEHAAY09$$CBD@Z
_TEXT	SEGMENT
__k$ = -20						; size = 10
__$ArrayPad$ = -4					; size = 4
_k$ = 8							; size = 4
??$GetIntAttribute_e@$09@ioXMLElement@@QBEHAAY09$$CBD@Z PROC ; ioXMLElement::GetIntAttribute_e<10>, COMDAT
; _this$ = ecx

; 86   : 	{

  00000	55		 push	 ebp
  00001	8b ec		 mov	 ebp, esp
  00003	83 ec 14	 sub	 esp, 20			; 00000014H
  00006	a1 00 00 00 00	 mov	 eax, DWORD PTR ___security_cookie
  0000b	33 c5		 xor	 eax, ebp
  0000d	89 45 fc	 mov	 DWORD PTR __$ArrayPad$[ebp], eax
  00010	8b 45 08	 mov	 eax, DWORD PTR _k$[ebp]

; 87   : 		_ENCSTR(k, _k);

  00013	8a 10		 mov	 dl, BYTE PTR [eax]
  00015	84 d2		 test	 dl, dl
  00017	0f 84 0d 01 00
	00		 je	 $LN96@GetIntAttr@2
  0001d	80 f2 ed	 xor	 dl, -19			; ffffffedH
  00020	88 55 ec	 mov	 BYTE PTR __k$[ebp], dl
  00023	8a 50 01	 mov	 dl, BYTE PTR [eax+1]
  00026	84 d2		 test	 dl, dl
  00028	0f 84 f6 00 00
	00		 je	 $LN95@GetIntAttr@2
  0002e	80 f2 ec	 xor	 dl, -20			; ffffffecH
  00031	88 55 ed	 mov	 BYTE PTR __k$[ebp+1], dl
  00034	8a 50 02	 mov	 dl, BYTE PTR [eax+2]
  00037	84 d2		 test	 dl, dl
  00039	0f 84 df 00 00
	00		 je	 $LN94@GetIntAttr@2
  0003f	80 f2 eb	 xor	 dl, -21			; ffffffebH
  00042	88 55 ee	 mov	 BYTE PTR __k$[ebp+2], dl
  00045	8a 50 03	 mov	 dl, BYTE PTR [eax+3]
  00048	84 d2		 test	 dl, dl
  0004a	0f 84 c8 00 00
	00		 je	 $LN93@GetIntAttr@2
  00050	80 f2 ea	 xor	 dl, -22			; ffffffeaH
  00053	88 55 ef	 mov	 BYTE PTR __k$[ebp+3], dl
  00056	8a 50 04	 mov	 dl, BYTE PTR [eax+4]
  00059	84 d2		 test	 dl, dl
  0005b	0f 84 b1 00 00
	00		 je	 $LN92@GetIntAttr@2
  00061	80 f2 ed	 xor	 dl, -19			; ffffffedH
  00064	88 55 f0	 mov	 BYTE PTR __k$[ebp+4], dl
  00067	8a 50 05	 mov	 dl, BYTE PTR [eax+5]
  0006a	84 d2		 test	 dl, dl
  0006c	0f 84 9a 00 00
	00		 je	 $LN91@GetIntAttr@2
  00072	80 f2 ec	 xor	 dl, -20			; ffffffecH
  00075	88 55 f1	 mov	 BYTE PTR __k$[ebp+5], dl
  00078	8a 50 06	 mov	 dl, BYTE PTR [eax+6]
  0007b	84 d2		 test	 dl, dl
  0007d	0f 84 83 00 00
	00		 je	 $LN90@GetIntAttr@2
  00083	80 f2 eb	 xor	 dl, -21			; ffffffebH
  00086	88 55 f2	 mov	 BYTE PTR __k$[ebp+6], dl
  00089	8a 50 07	 mov	 dl, BYTE PTR [eax+7]
  0008c	84 d2		 test	 dl, dl
  0008e	74 70		 je	 SHORT $LN89@GetIntAttr@2
  00090	80 f2 ea	 xor	 dl, -22			; ffffffeaH
  00093	88 55 f3	 mov	 BYTE PTR __k$[ebp+7], dl
  00096	8a 50 08	 mov	 dl, BYTE PTR [eax+8]
  00099	84 d2		 test	 dl, dl
  0009b	74 5d		 je	 SHORT $LN88@GetIntAttr@2
  0009d	80 f2 ed	 xor	 dl, -19			; ffffffedH
  000a0	80 78 09 00	 cmp	 BYTE PTR [eax+9], 0
  000a4	88 55 f4	 mov	 BYTE PTR __k$[ebp+8], dl
  000a7	0f 84 81 00 00
	00		 je	 $LN1@GetIntAttr@2
  000ad	8a 50 0a	 mov	 dl, BYTE PTR [eax+10]
  000b0	84 d2		 test	 dl, dl
  000b2	74 40		 je	 SHORT $LN86@GetIntAttr@2
  000b4	80 f2 eb	 xor	 dl, -21			; ffffffebH
  000b7	88 55 f6	 mov	 BYTE PTR __k$[ebp+10], dl
  000ba	8a 50 0b	 mov	 dl, BYTE PTR [eax+11]
  000bd	84 d2		 test	 dl, dl
  000bf	74 2d		 je	 SHORT $LN85@GetIntAttr@2
  000c1	80 f2 ea	 xor	 dl, -22			; ffffffeaH
  000c4	88 55 f7	 mov	 BYTE PTR __k$[ebp+11], dl
  000c7	8a 50 0c	 mov	 dl, BYTE PTR [eax+12]
  000ca	84 d2		 test	 dl, dl
  000cc	74 1a		 je	 SHORT $LN84@GetIntAttr@2
  000ce	8a 40 0d	 mov	 al, BYTE PTR [eax+13]
  000d1	80 f2 ed	 xor	 dl, -19			; ffffffedH
  000d4	88 55 f8	 mov	 BYTE PTR __k$[ebp+12], dl
  000d7	84 c0		 test	 al, al
  000d9	74 07		 je	 SHORT $LN83@GetIntAttr@2
  000db	34 ec		 xor	 al, -20			; ffffffecH
  000dd	88 45 f9	 mov	 BYTE PTR __k$[ebp+13], al
  000e0	eb 4c		 jmp	 SHORT $LN1@GetIntAttr@2
$LN83@GetIntAttr@2:
  000e2	c6 45 f9 ec	 mov	 BYTE PTR __k$[ebp+13], -20 ; ffffffecH
  000e6	eb 46		 jmp	 SHORT $LN1@GetIntAttr@2
$LN84@GetIntAttr@2:
  000e8	c6 45 f8 ed	 mov	 BYTE PTR __k$[ebp+12], -19 ; ffffffedH
  000ec	eb 40		 jmp	 SHORT $LN1@GetIntAttr@2
$LN85@GetIntAttr@2:
  000ee	c6 45 f7 ea	 mov	 BYTE PTR __k$[ebp+11], -22 ; ffffffeaH
  000f2	eb 3a		 jmp	 SHORT $LN1@GetIntAttr@2
$LN86@GetIntAttr@2:
  000f4	c6 45 f6 eb	 mov	 BYTE PTR __k$[ebp+10], -21 ; ffffffebH
  000f8	eb 34		 jmp	 SHORT $LN1@GetIntAttr@2
$LN88@GetIntAttr@2:
  000fa	c6 45 f4 ed	 mov	 BYTE PTR __k$[ebp+8], -19 ; ffffffedH
  000fe	eb 2e		 jmp	 SHORT $LN1@GetIntAttr@2
$LN89@GetIntAttr@2:
  00100	c6 45 f3 ea	 mov	 BYTE PTR __k$[ebp+7], -22 ; ffffffeaH
  00104	eb 28		 jmp	 SHORT $LN1@GetIntAttr@2
$LN90@GetIntAttr@2:
  00106	c6 45 f2 eb	 mov	 BYTE PTR __k$[ebp+6], -21 ; ffffffebH
  0010a	eb 22		 jmp	 SHORT $LN1@GetIntAttr@2
$LN91@GetIntAttr@2:
  0010c	c6 45 f1 ec	 mov	 BYTE PTR __k$[ebp+5], -20 ; ffffffecH
  00110	eb 1c		 jmp	 SHORT $LN1@GetIntAttr@2
$LN92@GetIntAttr@2:
  00112	c6 45 f0 ed	 mov	 BYTE PTR __k$[ebp+4], -19 ; ffffffedH
  00116	eb 16		 jmp	 SHORT $LN1@GetIntAttr@2
$LN93@GetIntAttr@2:
  00118	c6 45 ef ea	 mov	 BYTE PTR __k$[ebp+3], -22 ; ffffffeaH
  0011c	eb 10		 jmp	 SHORT $LN1@GetIntAttr@2
$LN94@GetIntAttr@2:
  0011e	c6 45 ee eb	 mov	 BYTE PTR __k$[ebp+2], -21 ; ffffffebH
  00122	eb 0a		 jmp	 SHORT $LN1@GetIntAttr@2
$LN95@GetIntAttr@2:
  00124	c6 45 ed ec	 mov	 BYTE PTR __k$[ebp+1], -20 ; ffffffecH
  00128	eb 04		 jmp	 SHORT $LN1@GetIntAttr@2
$LN96@GetIntAttr@2:
  0012a	c6 45 ec ed	 mov	 BYTE PTR __k$[ebp], -19	; ffffffedH
$LN1@GetIntAttr@2:
  0012e	6a 02		 push	 2
  00130	8d 45 ec	 lea	 eax, DWORD PTR __k$[ebp]
  00133	c6 45 f5 00	 mov	 BYTE PTR __k$[ebp+9], 0
  00137	5a		 pop	 edx
$LL104@GetIntAttr@2:
  00138	81 30 ed ec eb
	ea		 xor	 DWORD PTR [eax], -353637139 ; eaebecedH
  0013e	83 c0 04	 add	 eax, 4
  00141	4a		 dec	 edx
  00142	75 f4		 jne	 SHORT $LL104@GetIntAttr@2
  00144	80 75 f4 ed	 xor	 BYTE PTR __k$[ebp+8], -19 ; ffffffedH

; 88   : 		return GetIntAttribute(_k);

  00148	8d 45 ec	 lea	 eax, DWORD PTR __k$[ebp]
  0014b	50		 push	 eax
  0014c	ff 15 00 00 00
	00		 call	 DWORD PTR __imp_?GetIntAttribute@ioXMLElement@@QBEHPBD@Z

; 89   : 	}

  00152	8b 4d fc	 mov	 ecx, DWORD PTR __$ArrayPad$[ebp]
  00155	33 cd		 xor	 ecx, ebp
  00157	e8 00 00 00 00	 call	 @__security_check_cookie@4
  0015c	c9		 leave
  0015d	c2 04 00	 ret	 4
??$GetIntAttribute_e@$09@ioXMLElement@@QBEHAAY09$$CBD@Z ENDP ; ioXMLElement::GetIntAttribute_e<10>
_TEXT	ENDS
PUBLIC	__$ArrayPad$
PUBLIC	??$GetIntAttribute_e@$05@ioXMLElement@@QBEHAAY05$$CBD@Z ; ioXMLElement::GetIntAttribute_e<6>
; Function compile flags: /Ogsp
;	COMDAT ??$GetIntAttribute_e@$05@ioXMLElement@@QBEHAAY05$$CBD@Z
_TEXT	SEGMENT
__k$ = -16						; size = 6
__$ArrayPad$ = -4					; size = 4
_k$ = 8							; size = 4
??$GetIntAttribute_e@$05@ioXMLElement@@QBEHAAY05$$CBD@Z PROC ; ioXMLElement::GetIntAttribute_e<6>, COMDAT
; _this$ = ecx

; 86   : 	{

  00000	55		 push	 ebp
  00001	8b ec		 mov	 ebp, esp
  00003	83 ec 10	 sub	 esp, 16			; 00000010H
  00006	a1 00 00 00 00	 mov	 eax, DWORD PTR ___security_cookie
  0000b	33 c5		 xor	 eax, ebp
  0000d	89 45 fc	 mov	 DWORD PTR __$ArrayPad$[ebp], eax
  00010	8b 45 08	 mov	 eax, DWORD PTR _k$[ebp]

; 87   : 		_ENCSTR(k, _k);

  00013	8a 10		 mov	 dl, BYTE PTR [eax]
  00015	84 d2		 test	 dl, dl
  00017	0f 84 a9 00 00
	00		 je	 $LN96@GetIntAttr@3
  0001d	80 f2 ed	 xor	 dl, -19			; ffffffedH
  00020	88 55 f0	 mov	 BYTE PTR __k$[ebp], dl
  00023	8a 50 01	 mov	 dl, BYTE PTR [eax+1]
  00026	84 d2		 test	 dl, dl
  00028	0f 84 92 00 00
	00		 je	 $LN95@GetIntAttr@3
  0002e	80 f2 ec	 xor	 dl, -20			; ffffffecH
  00031	88 55 f1	 mov	 BYTE PTR __k$[ebp+1], dl
  00034	8a 50 02	 mov	 dl, BYTE PTR [eax+2]
  00037	84 d2		 test	 dl, dl
  00039	74 7f		 je	 SHORT $LN94@GetIntAttr@3
  0003b	80 f2 eb	 xor	 dl, -21			; ffffffebH
  0003e	88 55 f2	 mov	 BYTE PTR __k$[ebp+2], dl
  00041	8a 50 03	 mov	 dl, BYTE PTR [eax+3]
  00044	84 d2		 test	 dl, dl
  00046	74 6c		 je	 SHORT $LN93@GetIntAttr@3
  00048	80 f2 ea	 xor	 dl, -22			; ffffffeaH
  0004b	88 55 f3	 mov	 BYTE PTR __k$[ebp+3], dl
  0004e	8a 50 04	 mov	 dl, BYTE PTR [eax+4]
  00051	84 d2		 test	 dl, dl
  00053	74 59		 je	 SHORT $LN92@GetIntAttr@3
  00055	80 f2 ed	 xor	 dl, -19			; ffffffedH
  00058	80 78 05 00	 cmp	 BYTE PTR [eax+5], 0
  0005c	88 55 f4	 mov	 BYTE PTR __k$[ebp+4], dl
  0005f	74 69		 je	 SHORT $LN1@GetIntAttr@3
  00061	8a 50 06	 mov	 dl, BYTE PTR [eax+6]
  00064	84 d2		 test	 dl, dl
  00066	74 40		 je	 SHORT $LN90@GetIntAttr@3
  00068	80 f2 eb	 xor	 dl, -21			; ffffffebH
  0006b	88 55 f6	 mov	 BYTE PTR __k$[ebp+6], dl
  0006e	8a 50 07	 mov	 dl, BYTE PTR [eax+7]
  00071	84 d2		 test	 dl, dl
  00073	74 2d		 je	 SHORT $LN89@GetIntAttr@3
  00075	80 f2 ea	 xor	 dl, -22			; ffffffeaH
  00078	88 55 f7	 mov	 BYTE PTR __k$[ebp+7], dl
  0007b	8a 50 08	 mov	 dl, BYTE PTR [eax+8]
  0007e	84 d2		 test	 dl, dl
  00080	74 1a		 je	 SHORT $LN88@GetIntAttr@3
  00082	8a 40 09	 mov	 al, BYTE PTR [eax+9]
  00085	80 f2 ed	 xor	 dl, -19			; ffffffedH
  00088	88 55 f8	 mov	 BYTE PTR __k$[ebp+8], dl
  0008b	84 c0		 test	 al, al
  0008d	74 07		 je	 SHORT $LN87@GetIntAttr@3
  0008f	34 ec		 xor	 al, -20			; ffffffecH
  00091	88 45 f9	 mov	 BYTE PTR __k$[ebp+9], al
  00094	eb 34		 jmp	 SHORT $LN1@GetIntAttr@3
$LN87@GetIntAttr@3:
  00096	c6 45 f9 ec	 mov	 BYTE PTR __k$[ebp+9], -20 ; ffffffecH
  0009a	eb 2e		 jmp	 SHORT $LN1@GetIntAttr@3
$LN88@GetIntAttr@3:
  0009c	c6 45 f8 ed	 mov	 BYTE PTR __k$[ebp+8], -19 ; ffffffedH
  000a0	eb 28		 jmp	 SHORT $LN1@GetIntAttr@3
$LN89@GetIntAttr@3:
  000a2	c6 45 f7 ea	 mov	 BYTE PTR __k$[ebp+7], -22 ; ffffffeaH
  000a6	eb 22		 jmp	 SHORT $LN1@GetIntAttr@3
$LN90@GetIntAttr@3:
  000a8	c6 45 f6 eb	 mov	 BYTE PTR __k$[ebp+6], -21 ; ffffffebH
  000ac	eb 1c		 jmp	 SHORT $LN1@GetIntAttr@3
$LN92@GetIntAttr@3:
  000ae	c6 45 f4 ed	 mov	 BYTE PTR __k$[ebp+4], -19 ; ffffffedH
  000b2	eb 16		 jmp	 SHORT $LN1@GetIntAttr@3
$LN93@GetIntAttr@3:
  000b4	c6 45 f3 ea	 mov	 BYTE PTR __k$[ebp+3], -22 ; ffffffeaH
  000b8	eb 10		 jmp	 SHORT $LN1@GetIntAttr@3
$LN94@GetIntAttr@3:
  000ba	c6 45 f2 eb	 mov	 BYTE PTR __k$[ebp+2], -21 ; ffffffebH
  000be	eb 0a		 jmp	 SHORT $LN1@GetIntAttr@3
$LN95@GetIntAttr@3:
  000c0	c6 45 f1 ec	 mov	 BYTE PTR __k$[ebp+1], -20 ; ffffffecH
  000c4	eb 04		 jmp	 SHORT $LN1@GetIntAttr@3
$LN96@GetIntAttr@3:
  000c6	c6 45 f0 ed	 mov	 BYTE PTR __k$[ebp], -19	; ffffffedH
$LN1@GetIntAttr@3:
  000ca	81 75 f0 ed ec
	eb ea		 xor	 DWORD PTR __k$[ebp], -353637139 ; eaebecedH
  000d1	80 75 f4 ed	 xor	 BYTE PTR __k$[ebp+4], -19 ; ffffffedH

; 88   : 		return GetIntAttribute(_k);

  000d5	8d 45 f0	 lea	 eax, DWORD PTR __k$[ebp]
  000d8	50		 push	 eax
  000d9	c6 45 f5 00	 mov	 BYTE PTR __k$[ebp+5], 0
  000dd	ff 15 00 00 00
	00		 call	 DWORD PTR __imp_?GetIntAttribute@ioXMLElement@@QBEHPBD@Z

; 89   : 	}

  000e3	8b 4d fc	 mov	 ecx, DWORD PTR __$ArrayPad$[ebp]
  000e6	33 cd		 xor	 ecx, ebp
  000e8	e8 00 00 00 00	 call	 @__security_check_cookie@4
  000ed	c9		 leave
  000ee	c2 04 00	 ret	 4
??$GetIntAttribute_e@$05@ioXMLElement@@QBEHAAY05$$CBD@Z ENDP ; ioXMLElement::GetIntAttribute_e<6>
_TEXT	ENDS
PUBLIC	__$ArrayPad$
PUBLIC	??$?8$08@@YA_NABVioHashString@@AAY08$$CBD@Z	; operator==<9>
; Function compile flags: /Ogsp
; File d:\lost saga for developer\youtube\tutorial\source\src\io3dengine\iohashstring.h
;	COMDAT ??$?8$08@@YA_NABVioHashString@@AAY08$$CBD@Z
_TEXT	SEGMENT
__t$ = -20						; size = 9
__$ArrayPad$ = -4					; size = 4
_lhs$ = 8						; size = 4
_t$ = 12						; size = 4
??$?8$08@@YA_NABVioHashString@@AAY08$$CBD@Z PROC	; operator==<9>, COMDAT

; 146  : {

  00000	55		 push	 ebp
  00001	8b ec		 mov	 ebp, esp
  00003	83 ec 14	 sub	 esp, 20			; 00000014H
  00006	a1 00 00 00 00	 mov	 eax, DWORD PTR ___security_cookie
  0000b	33 c5		 xor	 eax, ebp
  0000d	89 45 fc	 mov	 DWORD PTR __$ArrayPad$[ebp], eax
  00010	8b 45 0c	 mov	 eax, DWORD PTR _t$[ebp]

; 147  : 	_ENCSTR(t, _t); return ( strcmp( lhs.c_str(), _t ) == 0 );

  00013	8a 10		 mov	 dl, BYTE PTR [eax]
  00015	8b 4d 08	 mov	 ecx, DWORD PTR _lhs$[ebp]
  00018	84 d2		 test	 dl, dl
  0001a	0f 84 ee 00 00
	00		 je	 $LN96@operator@2
  00020	80 f2 ed	 xor	 dl, -19			; ffffffedH
  00023	88 55 ec	 mov	 BYTE PTR __t$[ebp], dl
  00026	8a 50 01	 mov	 dl, BYTE PTR [eax+1]
  00029	84 d2		 test	 dl, dl
  0002b	0f 84 d7 00 00
	00		 je	 $LN95@operator@2
  00031	80 f2 ec	 xor	 dl, -20			; ffffffecH
  00034	88 55 ed	 mov	 BYTE PTR __t$[ebp+1], dl
  00037	8a 50 02	 mov	 dl, BYTE PTR [eax+2]
  0003a	84 d2		 test	 dl, dl
  0003c	0f 84 c0 00 00
	00		 je	 $LN94@operator@2
  00042	80 f2 eb	 xor	 dl, -21			; ffffffebH
  00045	88 55 ee	 mov	 BYTE PTR __t$[ebp+2], dl
  00048	8a 50 03	 mov	 dl, BYTE PTR [eax+3]
  0004b	84 d2		 test	 dl, dl
  0004d	0f 84 a9 00 00
	00		 je	 $LN93@operator@2
  00053	80 f2 ea	 xor	 dl, -22			; ffffffeaH
  00056	88 55 ef	 mov	 BYTE PTR __t$[ebp+3], dl
  00059	8a 50 04	 mov	 dl, BYTE PTR [eax+4]
  0005c	84 d2		 test	 dl, dl
  0005e	0f 84 92 00 00
	00		 je	 $LN92@operator@2
  00064	80 f2 ed	 xor	 dl, -19			; ffffffedH
  00067	88 55 f0	 mov	 BYTE PTR __t$[ebp+4], dl
  0006a	8a 50 05	 mov	 dl, BYTE PTR [eax+5]
  0006d	84 d2		 test	 dl, dl
  0006f	74 7f		 je	 SHORT $LN91@operator@2
  00071	80 f2 ec	 xor	 dl, -20			; ffffffecH
  00074	88 55 f1	 mov	 BYTE PTR __t$[ebp+5], dl
  00077	8a 50 06	 mov	 dl, BYTE PTR [eax+6]
  0007a	84 d2		 test	 dl, dl
  0007c	74 6c		 je	 SHORT $LN90@operator@2
  0007e	80 f2 eb	 xor	 dl, -21			; ffffffebH
  00081	88 55 f2	 mov	 BYTE PTR __t$[ebp+6], dl
  00084	8a 50 07	 mov	 dl, BYTE PTR [eax+7]
  00087	84 d2		 test	 dl, dl
  00089	74 59		 je	 SHORT $LN89@operator@2
  0008b	80 f2 ea	 xor	 dl, -22			; ffffffeaH
  0008e	80 78 08 00	 cmp	 BYTE PTR [eax+8], 0
  00092	88 55 f3	 mov	 BYTE PTR __t$[ebp+7], dl
  00095	74 7b		 je	 SHORT $LN1@operator@2
  00097	8a 50 09	 mov	 dl, BYTE PTR [eax+9]
  0009a	84 d2		 test	 dl, dl
  0009c	74 40		 je	 SHORT $LN87@operator@2
  0009e	80 f2 ec	 xor	 dl, -20			; ffffffecH
  000a1	88 55 f5	 mov	 BYTE PTR __t$[ebp+9], dl
  000a4	8a 50 0a	 mov	 dl, BYTE PTR [eax+10]
  000a7	84 d2		 test	 dl, dl
  000a9	74 2d		 je	 SHORT $LN86@operator@2
  000ab	80 f2 eb	 xor	 dl, -21			; ffffffebH
  000ae	88 55 f6	 mov	 BYTE PTR __t$[ebp+10], dl
  000b1	8a 50 0b	 mov	 dl, BYTE PTR [eax+11]
  000b4	84 d2		 test	 dl, dl
  000b6	74 1a		 je	 SHORT $LN85@operator@2
  000b8	8a 40 0c	 mov	 al, BYTE PTR [eax+12]
  000bb	80 f2 ea	 xor	 dl, -22			; ffffffeaH
  000be	88 55 f7	 mov	 BYTE PTR __t$[ebp+11], dl
  000c1	84 c0		 test	 al, al
  000c3	74 07		 je	 SHORT $LN84@operator@2
  000c5	34 ed		 xor	 al, -19			; ffffffedH
  000c7	88 45 f8	 mov	 BYTE PTR __t$[ebp+12], al
  000ca	eb 46		 jmp	 SHORT $LN1@operator@2
$LN84@operator@2:
  000cc	c6 45 f8 ed	 mov	 BYTE PTR __t$[ebp+12], -19 ; ffffffedH
  000d0	eb 40		 jmp	 SHORT $LN1@operator@2
$LN85@operator@2:
  000d2	c6 45 f7 ea	 mov	 BYTE PTR __t$[ebp+11], -22 ; ffffffeaH
  000d6	eb 3a		 jmp	 SHORT $LN1@operator@2
$LN86@operator@2:
  000d8	c6 45 f6 eb	 mov	 BYTE PTR __t$[ebp+10], -21 ; ffffffebH
  000dc	eb 34		 jmp	 SHORT $LN1@operator@2
$LN87@operator@2:
  000de	c6 45 f5 ec	 mov	 BYTE PTR __t$[ebp+9], -20 ; ffffffecH
  000e2	eb 2e		 jmp	 SHORT $LN1@operator@2
$LN89@operator@2:
  000e4	c6 45 f3 ea	 mov	 BYTE PTR __t$[ebp+7], -22 ; ffffffeaH
  000e8	eb 28		 jmp	 SHORT $LN1@operator@2
$LN90@operator@2:
  000ea	c6 45 f2 eb	 mov	 BYTE PTR __t$[ebp+6], -21 ; ffffffebH
  000ee	eb 22		 jmp	 SHORT $LN1@operator@2
$LN91@operator@2:
  000f0	c6 45 f1 ec	 mov	 BYTE PTR __t$[ebp+5], -20 ; ffffffecH
  000f4	eb 1c		 jmp	 SHORT $LN1@operator@2
$LN92@operator@2:
  000f6	c6 45 f0 ed	 mov	 BYTE PTR __t$[ebp+4], -19 ; ffffffedH
  000fa	eb 16		 jmp	 SHORT $LN1@operator@2
$LN93@operator@2:
  000fc	c6 45 ef ea	 mov	 BYTE PTR __t$[ebp+3], -22 ; ffffffeaH
  00100	eb 10		 jmp	 SHORT $LN1@operator@2
$LN94@operator@2:
  00102	c6 45 ee eb	 mov	 BYTE PTR __t$[ebp+2], -21 ; ffffffebH
  00106	eb 0a		 jmp	 SHORT $LN1@operator@2
$LN95@operator@2:
  00108	c6 45 ed ec	 mov	 BYTE PTR __t$[ebp+1], -20 ; ffffffecH
  0010c	eb 04		 jmp	 SHORT $LN1@operator@2
$LN96@operator@2:
  0010e	c6 45 ec ed	 mov	 BYTE PTR __t$[ebp], -19	; ffffffedH
$LN1@operator@2:
  00112	6a 02		 push	 2
  00114	8d 45 ec	 lea	 eax, DWORD PTR __t$[ebp]
  00117	c6 45 f4 00	 mov	 BYTE PTR __t$[ebp+8], 0
  0011b	5a		 pop	 edx
$LL104@operator@2:
  0011c	81 30 ed ec eb
	ea		 xor	 DWORD PTR [eax], -353637139 ; eaebecedH
  00122	83 c0 04	 add	 eax, 4
  00125	4a		 dec	 edx
  00126	75 f4		 jne	 SHORT $LL104@operator@2
  00128	56		 push	 esi
  00129	8d 75 ec	 lea	 esi, DWORD PTR __t$[ebp]
  0012c	ff 15 00 00 00
	00		 call	 DWORD PTR __imp_?c_str@ioHashString@@QBEPBDXZ
$LL111@operator@2:
  00132	8a 08		 mov	 cl, BYTE PTR [eax]
  00134	3a 0e		 cmp	 cl, BYTE PTR [esi]
  00136	75 1a		 jne	 SHORT $LN112@operator@2
  00138	84 c9		 test	 cl, cl
  0013a	74 12		 je	 SHORT $LN113@operator@2
  0013c	8a 48 01	 mov	 cl, BYTE PTR [eax+1]
  0013f	3a 4e 01	 cmp	 cl, BYTE PTR [esi+1]
  00142	75 0e		 jne	 SHORT $LN112@operator@2
  00144	83 c0 02	 add	 eax, 2
  00147	83 c6 02	 add	 esi, 2
  0014a	84 c9		 test	 cl, cl
  0014c	75 e4		 jne	 SHORT $LL111@operator@2
$LN113@operator@2:
  0014e	33 c0		 xor	 eax, eax
  00150	eb 05		 jmp	 SHORT $LN114@operator@2
$LN112@operator@2:
  00152	1b c0		 sbb	 eax, eax
  00154	83 d8 ff	 sbb	 eax, -1
$LN114@operator@2:
  00157	33 c9		 xor	 ecx, ecx
  00159	85 c0		 test	 eax, eax
  0015b	0f 94 c0	 sete	 al

; 148  : }

  0015e	8b 4d fc	 mov	 ecx, DWORD PTR __$ArrayPad$[ebp]
  00161	33 cd		 xor	 ecx, ebp
  00163	5e		 pop	 esi
  00164	e8 00 00 00 00	 call	 @__security_check_cookie@4
  00169	c9		 leave
  0016a	c3		 ret	 0
??$?8$08@@YA_NABVioHashString@@AAY08$$CBD@Z ENDP	; operator==<9>
_TEXT	ENDS
PUBLIC	__$ArrayPad$
PUBLIC	??$?8$09@@YA_NABVioHashString@@AAY09$$CBD@Z	; operator==<10>
; Function compile flags: /Ogsp
;	COMDAT ??$?8$09@@YA_NABVioHashString@@AAY09$$CBD@Z
_TEXT	SEGMENT
__t$ = -20						; size = 10
__$ArrayPad$ = -4					; size = 4
_lhs$ = 8						; size = 4
_t$ = 12						; size = 4
??$?8$09@@YA_NABVioHashString@@AAY09$$CBD@Z PROC	; operator==<10>, COMDAT

; 146  : {

  00000	55		 push	 ebp
  00001	8b ec		 mov	 ebp, esp
  00003	83 ec 14	 sub	 esp, 20			; 00000014H
  00006	a1 00 00 00 00	 mov	 eax, DWORD PTR ___security_cookie
  0000b	33 c5		 xor	 eax, ebp
  0000d	89 45 fc	 mov	 DWORD PTR __$ArrayPad$[ebp], eax
  00010	8b 45 0c	 mov	 eax, DWORD PTR _t$[ebp]

; 147  : 	_ENCSTR(t, _t); return ( strcmp( lhs.c_str(), _t ) == 0 );

  00013	8a 10		 mov	 dl, BYTE PTR [eax]
  00015	8b 4d 08	 mov	 ecx, DWORD PTR _lhs$[ebp]
  00018	84 d2		 test	 dl, dl
  0001a	0f 84 0d 01 00
	00		 je	 $LN96@operator@3
  00020	80 f2 ed	 xor	 dl, -19			; ffffffedH
  00023	88 55 ec	 mov	 BYTE PTR __t$[ebp], dl
  00026	8a 50 01	 mov	 dl, BYTE PTR [eax+1]
  00029	84 d2		 test	 dl, dl
  0002b	0f 84 f6 00 00
	00		 je	 $LN95@operator@3
  00031	80 f2 ec	 xor	 dl, -20			; ffffffecH
  00034	88 55 ed	 mov	 BYTE PTR __t$[ebp+1], dl
  00037	8a 50 02	 mov	 dl, BYTE PTR [eax+2]
  0003a	84 d2		 test	 dl, dl
  0003c	0f 84 df 00 00
	00		 je	 $LN94@operator@3
  00042	80 f2 eb	 xor	 dl, -21			; ffffffebH
  00045	88 55 ee	 mov	 BYTE PTR __t$[ebp+2], dl
  00048	8a 50 03	 mov	 dl, BYTE PTR [eax+3]
  0004b	84 d2		 test	 dl, dl
  0004d	0f 84 c8 00 00
	00		 je	 $LN93@operator@3
  00053	80 f2 ea	 xor	 dl, -22			; ffffffeaH
  00056	88 55 ef	 mov	 BYTE PTR __t$[ebp+3], dl
  00059	8a 50 04	 mov	 dl, BYTE PTR [eax+4]
  0005c	84 d2		 test	 dl, dl
  0005e	0f 84 b1 00 00
	00		 je	 $LN92@operator@3
  00064	80 f2 ed	 xor	 dl, -19			; ffffffedH
  00067	88 55 f0	 mov	 BYTE PTR __t$[ebp+4], dl
  0006a	8a 50 05	 mov	 dl, BYTE PTR [eax+5]
  0006d	84 d2		 test	 dl, dl
  0006f	0f 84 9a 00 00
	00		 je	 $LN91@operator@3
  00075	80 f2 ec	 xor	 dl, -20			; ffffffecH
  00078	88 55 f1	 mov	 BYTE PTR __t$[ebp+5], dl
  0007b	8a 50 06	 mov	 dl, BYTE PTR [eax+6]
  0007e	84 d2		 test	 dl, dl
  00080	0f 84 83 00 00
	00		 je	 $LN90@operator@3
  00086	80 f2 eb	 xor	 dl, -21			; ffffffebH
  00089	88 55 f2	 mov	 BYTE PTR __t$[ebp+6], dl
  0008c	8a 50 07	 mov	 dl, BYTE PTR [eax+7]
  0008f	84 d2		 test	 dl, dl
  00091	74 70		 je	 SHORT $LN89@operator@3
  00093	80 f2 ea	 xor	 dl, -22			; ffffffeaH
  00096	88 55 f3	 mov	 BYTE PTR __t$[ebp+7], dl
  00099	8a 50 08	 mov	 dl, BYTE PTR [eax+8]
  0009c	84 d2		 test	 dl, dl
  0009e	74 5d		 je	 SHORT $LN88@operator@3
  000a0	80 f2 ed	 xor	 dl, -19			; ffffffedH
  000a3	80 78 09 00	 cmp	 BYTE PTR [eax+9], 0
  000a7	88 55 f4	 mov	 BYTE PTR __t$[ebp+8], dl
  000aa	0f 84 81 00 00
	00		 je	 $LN1@operator@3
  000b0	8a 50 0a	 mov	 dl, BYTE PTR [eax+10]
  000b3	84 d2		 test	 dl, dl
  000b5	74 40		 je	 SHORT $LN86@operator@3
  000b7	80 f2 eb	 xor	 dl, -21			; ffffffebH
  000ba	88 55 f6	 mov	 BYTE PTR __t$[ebp+10], dl
  000bd	8a 50 0b	 mov	 dl, BYTE PTR [eax+11]
  000c0	84 d2		 test	 dl, dl
  000c2	74 2d		 je	 SHORT $LN85@operator@3
  000c4	80 f2 ea	 xor	 dl, -22			; ffffffeaH
  000c7	88 55 f7	 mov	 BYTE PTR __t$[ebp+11], dl
  000ca	8a 50 0c	 mov	 dl, BYTE PTR [eax+12]
  000cd	84 d2		 test	 dl, dl
  000cf	74 1a		 je	 SHORT $LN84@operator@3
  000d1	8a 40 0d	 mov	 al, BYTE PTR [eax+13]
  000d4	80 f2 ed	 xor	 dl, -19			; ffffffedH
  000d7	88 55 f8	 mov	 BYTE PTR __t$[ebp+12], dl
  000da	84 c0		 test	 al, al
  000dc	74 07		 je	 SHORT $LN83@operator@3
  000de	34 ec		 xor	 al, -20			; ffffffecH
  000e0	88 45 f9	 mov	 BYTE PTR __t$[ebp+13], al
  000e3	eb 4c		 jmp	 SHORT $LN1@operator@3
$LN83@operator@3:
  000e5	c6 45 f9 ec	 mov	 BYTE PTR __t$[ebp+13], -20 ; ffffffecH
  000e9	eb 46		 jmp	 SHORT $LN1@operator@3
$LN84@operator@3:
  000eb	c6 45 f8 ed	 mov	 BYTE PTR __t$[ebp+12], -19 ; ffffffedH
  000ef	eb 40		 jmp	 SHORT $LN1@operator@3
$LN85@operator@3:
  000f1	c6 45 f7 ea	 mov	 BYTE PTR __t$[ebp+11], -22 ; ffffffeaH
  000f5	eb 3a		 jmp	 SHORT $LN1@operator@3
$LN86@operator@3:
  000f7	c6 45 f6 eb	 mov	 BYTE PTR __t$[ebp+10], -21 ; ffffffebH
  000fb	eb 34		 jmp	 SHORT $LN1@operator@3
$LN88@operator@3:
  000fd	c6 45 f4 ed	 mov	 BYTE PTR __t$[ebp+8], -19 ; ffffffedH
  00101	eb 2e		 jmp	 SHORT $LN1@operator@3
$LN89@operator@3:
  00103	c6 45 f3 ea	 mov	 BYTE PTR __t$[ebp+7], -22 ; ffffffeaH
  00107	eb 28		 jmp	 SHORT $LN1@operator@3
$LN90@operator@3:
  00109	c6 45 f2 eb	 mov	 BYTE PTR __t$[ebp+6], -21 ; ffffffebH
  0010d	eb 22		 jmp	 SHORT $LN1@operator@3
$LN91@operator@3:
  0010f	c6 45 f1 ec	 mov	 BYTE PTR __t$[ebp+5], -20 ; ffffffecH
  00113	eb 1c		 jmp	 SHORT $LN1@operator@3
$LN92@operator@3:
  00115	c6 45 f0 ed	 mov	 BYTE PTR __t$[ebp+4], -19 ; ffffffedH
  00119	eb 16		 jmp	 SHORT $LN1@operator@3
$LN93@operator@3:
  0011b	c6 45 ef ea	 mov	 BYTE PTR __t$[ebp+3], -22 ; ffffffeaH
  0011f	eb 10		 jmp	 SHORT $LN1@operator@3
$LN94@operator@3:
  00121	c6 45 ee eb	 mov	 BYTE PTR __t$[ebp+2], -21 ; ffffffebH
  00125	eb 0a		 jmp	 SHORT $LN1@operator@3
$LN95@operator@3:
  00127	c6 45 ed ec	 mov	 BYTE PTR __t$[ebp+1], -20 ; ffffffecH
  0012b	eb 04		 jmp	 SHORT $LN1@operator@3
$LN96@operator@3:
  0012d	c6 45 ec ed	 mov	 BYTE PTR __t$[ebp], -19	; ffffffedH
$LN1@operator@3:
  00131	6a 02		 push	 2
  00133	8d 45 ec	 lea	 eax, DWORD PTR __t$[ebp]
  00136	c6 45 f5 00	 mov	 BYTE PTR __t$[ebp+9], 0
  0013a	5a		 pop	 edx
$LL104@operator@3:
  0013b	81 30 ed ec eb
	ea		 xor	 DWORD PTR [eax], -353637139 ; eaebecedH
  00141	83 c0 04	 add	 eax, 4
  00144	4a		 dec	 edx
  00145	75 f4		 jne	 SHORT $LL104@operator@3
  00147	80 75 f4 ed	 xor	 BYTE PTR __t$[ebp+8], -19 ; ffffffedH
  0014b	56		 push	 esi
  0014c	8d 75 ec	 lea	 esi, DWORD PTR __t$[ebp]
  0014f	ff 15 00 00 00
	00		 call	 DWORD PTR __imp_?c_str@ioHashString@@QBEPBDXZ
$LL111@operator@3:
  00155	8a 08		 mov	 cl, BYTE PTR [eax]
  00157	3a 0e		 cmp	 cl, BYTE PTR [esi]
  00159	75 1a		 jne	 SHORT $LN112@operator@3
  0015b	84 c9		 test	 cl, cl
  0015d	74 12		 je	 SHORT $LN113@operator@3
  0015f	8a 48 01	 mov	 cl, BYTE PTR [eax+1]
  00162	3a 4e 01	 cmp	 cl, BYTE PTR [esi+1]
  00165	75 0e		 jne	 SHORT $LN112@operator@3
  00167	83 c0 02	 add	 eax, 2
  0016a	83 c6 02	 add	 esi, 2
  0016d	84 c9		 test	 cl, cl
  0016f	75 e4		 jne	 SHORT $LL111@operator@3
$LN113@operator@3:
  00171	33 c0		 xor	 eax, eax
  00173	eb 05		 jmp	 SHORT $LN114@operator@3
$LN112@operator@3:
  00175	1b c0		 sbb	 eax, eax
  00177	83 d8 ff	 sbb	 eax, -1
$LN114@operator@3:
  0017a	33 c9		 xor	 ecx, ecx
  0017c	85 c0		 test	 eax, eax
  0017e	0f 94 c0	 sete	 al

; 148  : }

  00181	8b 4d fc	 mov	 ecx, DWORD PTR __$ArrayPad$[ebp]
  00184	33 cd		 xor	 ecx, ebp
  00186	5e		 pop	 esi
  00187	e8 00 00 00 00	 call	 @__security_check_cookie@4
  0018c	c9		 leave
  0018d	c3		 ret	 0
??$?8$09@@YA_NABVioHashString@@AAY09$$CBD@Z ENDP	; operator==<10>
_TEXT	ENDS
PUBLIC	??$_Cons_val@V?$allocator@VioHashString@@@std@@VioHashString@@V3@@std@@YAXAAV?$allocator@VioHashString@@@0@PAVioHashString@@$$QAV2@@Z ; std::_Cons_val<std::allocator<ioHashString>,ioHashString,ioHashString>
; Function compile flags: /Ogsp
; File c:\program files (x86)\microsoft visual studio 10.0\vc\include\xmemory
;	COMDAT ??$_Cons_val@V?$allocator@VioHashString@@@std@@VioHashString@@V3@@std@@YAXAAV?$allocator@VioHashString@@@0@PAVioHashString@@$$QAV2@@Z
_TEXT	SEGMENT
__Alval$ = 8						; size = 4
__Pdest$ = 12						; size = 4
__Src$ = 16						; size = 4
??$_Cons_val@V?$allocator@VioHashString@@@std@@VioHashString@@V3@@std@@YAXAAV?$allocator@VioHashString@@@0@PAVioHashString@@$$QAV2@@Z PROC ; std::_Cons_val<std::allocator<ioHashString>,ioHashString,ioHashString>, COMDAT

; 279  : 	{	// construct using allocator

  00000	55		 push	 ebp
  00001	8b ec		 mov	 ebp, esp

; 280  : 	_Alval.construct(_Pdest, _STD forward<_Ty2>(_Src));

  00003	ff 75 10	 push	 DWORD PTR __Src$[ebp]
  00006	8b 4d 08	 mov	 ecx, DWORD PTR __Alval$[ebp]
  00009	ff 75 0c	 push	 DWORD PTR __Pdest$[ebp]
  0000c	e8 00 00 00 00	 call	 ?construct@?$allocator@VioHashString@@@std@@QAEXPAVioHashString@@$$QAV3@@Z ; std::allocator<ioHashString>::construct

; 281  : 	}

  00011	5d		 pop	 ebp
  00012	c3		 ret	 0
??$_Cons_val@V?$allocator@VioHashString@@@std@@VioHashString@@V3@@std@@YAXAAV?$allocator@VioHashString@@@0@PAVioHashString@@$$QAV2@@Z ENDP ; std::_Cons_val<std::allocator<ioHashString>,ioHashString,ioHashString>
_TEXT	ENDS
PUBLIC	??$_Cons_val@V?$allocator@UFileDriveItem@@@std@@UFileDriveItem@@AAU3@@std@@YAXAAV?$allocator@UFileDriveItem@@@0@PAUFileDriveItem@@AAU2@@Z ; std::_Cons_val<std::allocator<FileDriveItem>,FileDriveItem,FileDriveItem &>
; Function compile flags: /Ogsp
;	COMDAT ??$_Cons_val@V?$allocator@UFileDriveItem@@@std@@UFileDriveItem@@AAU3@@std@@YAXAAV?$allocator@UFileDriveItem@@@0@PAUFileDriveItem@@AAU2@@Z
_TEXT	SEGMENT
__Alval$ = 8						; size = 4
__Pdest$ = 12						; size = 4
__Src$ = 16						; size = 4
??$_Cons_val@V?$allocator@UFileDriveItem@@@std@@UFileDriveItem@@AAU3@@std@@YAXAAV?$allocator@UFileDriveItem@@@0@PAUFileDriveItem@@AAU2@@Z PROC ; std::_Cons_val<std::allocator<FileDriveItem>,FileDriveItem,FileDriveItem &>, COMDAT

; 279  : 	{	// construct using allocator

  00000	55		 push	 ebp
  00001	8b ec		 mov	 ebp, esp

; 280  : 	_Alval.construct(_Pdest, _STD forward<_Ty2>(_Src));

  00003	ff 75 10	 push	 DWORD PTR __Src$[ebp]
  00006	8b 4d 08	 mov	 ecx, DWORD PTR __Alval$[ebp]
  00009	ff 75 0c	 push	 DWORD PTR __Pdest$[ebp]
  0000c	e8 00 00 00 00	 call	 ??$construct@AAUFileDriveItem@@@?$allocator@UFileDriveItem@@@std@@QAEXPAUFileDriveItem@@AAU2@@Z ; std::allocator<FileDriveItem>::construct<FileDriveItem &>

; 281  : 	}

  00011	5d		 pop	 ebp
  00012	c3		 ret	 0
??$_Cons_val@V?$allocator@UFileDriveItem@@@std@@UFileDriveItem@@AAU3@@std@@YAXAAV?$allocator@UFileDriveItem@@@0@PAUFileDriveItem@@AAU2@@Z ENDP ; std::_Cons_val<std::allocator<FileDriveItem>,FileDriveItem,FileDriveItem &>
_TEXT	ENDS
PUBLIC	?construct@?$allocator@UFileDriveItem@@@std@@QAEXPAUFileDriveItem@@ABU3@@Z ; std::allocator<FileDriveItem>::construct
; Function compile flags: /Ogsp
;	COMDAT ?construct@?$allocator@UFileDriveItem@@@std@@QAEXPAUFileDriveItem@@ABU3@@Z
_TEXT	SEGMENT
__Ptr$ = 8						; size = 4
__Val$ = 12						; size = 4
?construct@?$allocator@UFileDriveItem@@@std@@QAEXPAUFileDriveItem@@ABU3@@Z PROC ; std::allocator<FileDriveItem>::construct, COMDAT
; _this$ = ecx

; 196  : 		{	// construct object at _Ptr with value _Val

  00000	55		 push	 ebp
  00001	8b ec		 mov	 ebp, esp

; 197  : 		_Construct(_Ptr, _Val);

  00003	ff 75 0c	 push	 DWORD PTR __Val$[ebp]
  00006	ff 75 08	 push	 DWORD PTR __Ptr$[ebp]
  00009	e8 00 00 00 00	 call	 ??$_Construct@UFileDriveItem@@ABU1@@std@@YAXPAUFileDriveItem@@ABU1@@Z ; std::_Construct<FileDriveItem,FileDriveItem const &>
  0000e	59		 pop	 ecx
  0000f	59		 pop	 ecx

; 198  : 		}

  00010	5d		 pop	 ebp
  00011	c2 08 00	 ret	 8
?construct@?$allocator@UFileDriveItem@@@std@@QAEXPAUFileDriveItem@@ABU3@@Z ENDP ; std::allocator<FileDriveItem>::construct
_TEXT	ENDS
PUBLIC	??G?$_Vector_iterator@V?$_Vector_val@UFileInfo@FileListWnd@@V?$allocator@UFileInfo@FileListWnd@@@std@@@std@@@std@@QBEHABV?$_Vector_const_iterator@V?$_Vector_val@UFileInfo@FileListWnd@@V?$allocator@UFileInfo@FileListWnd@@@std@@@std@@@1@@Z ; std::_Vector_iterator<std::_Vector_val<FileListWnd::FileInfo,std::allocator<FileListWnd::FileInfo> > >::operator-
; Function compile flags: /Ogsp
; File c:\program files (x86)\microsoft visual studio 10.0\vc\include\vector
;	COMDAT ??G?$_Vector_iterator@V?$_Vector_val@UFileInfo@FileListWnd@@V?$allocator@UFileInfo@FileListWnd@@@std@@@std@@@std@@QBEHABV?$_Vector_const_iterator@V?$_Vector_val@UFileInfo@FileListWnd@@V?$allocator@UFileInfo@FileListWnd@@@std@@@std@@@1@@Z
_TEXT	SEGMENT
__Right$ = 8						; size = 4
??G?$_Vector_iterator@V?$_Vector_val@UFileInfo@FileListWnd@@V?$allocator@UFileInfo@FileListWnd@@@std@@@std@@@std@@QBEHABV?$_Vector_const_iterator@V?$_Vector_val@UFileInfo@FileListWnd@@V?$allocator@UFileInfo@FileListWnd@@@std@@@std@@@1@@Z PROC ; std::_Vector_iterator<std::_Vector_val<FileListWnd::FileInfo,std::allocator<FileListWnd::FileInfo> > >::operator-, COMDAT
; _this$ = ecx

; 380  : 		{	// return difference of iterators

  00000	55		 push	 ebp
  00001	8b ec		 mov	 ebp, esp

; 381  : 		return (*(_Mybase *)this - _Right);

  00003	8b 01		 mov	 eax, DWORD PTR [ecx]
  00005	8b 4d 08	 mov	 ecx, DWORD PTR __Right$[ebp]
  00008	2b 01		 sub	 eax, DWORD PTR [ecx]
  0000a	6a 14		 push	 20			; 00000014H
  0000c	99		 cdq
  0000d	59		 pop	 ecx
  0000e	f7 f9		 idiv	 ecx

; 382  : 		}

  00010	5d		 pop	 ebp
  00011	c2 04 00	 ret	 4
??G?$_Vector_iterator@V?$_Vector_val@UFileInfo@FileListWnd@@V?$allocator@UFileInfo@FileListWnd@@@std@@@std@@@std@@QBEHABV?$_Vector_const_iterator@V?$_Vector_val@UFileInfo@FileListWnd@@V?$allocator@UFileInfo@FileListWnd@@@std@@@std@@@1@@Z ENDP ; std::_Vector_iterator<std::_Vector_val<FileListWnd::FileInfo,std::allocator<FileListWnd::FileInfo> > >::operator-
_TEXT	ENDS
PUBLIC	??$_Unchecked@V?$_Vector_val@UFileDriveItem@@V?$allocator@UFileDriveItem@@@std@@@std@@@std@@YAPAUFileDriveItem@@V?$_Vector_iterator@V?$_Vector_val@UFileDriveItem@@V?$allocator@UFileDriveItem@@@std@@@std@@@0@@Z ; std::_Unchecked<std::_Vector_val<FileDriveItem,std::allocator<FileDriveItem> > >
; Function compile flags: /Ogsp
;	COMDAT ??$_Unchecked@V?$_Vector_val@UFileDriveItem@@V?$allocator@UFileDriveItem@@@std@@@std@@@std@@YAPAUFileDriveItem@@V?$_Vector_iterator@V?$_Vector_val@UFileDriveItem@@V?$allocator@UFileDriveItem@@@std@@@std@@@0@@Z
_TEXT	SEGMENT
__Iter$ = 8						; size = 4
??$_Unchecked@V?$_Vector_val@UFileDriveItem@@V?$allocator@UFileDriveItem@@@std@@@std@@@std@@YAPAUFileDriveItem@@V?$_Vector_iterator@V?$_Vector_val@UFileDriveItem@@V?$allocator@UFileDriveItem@@@std@@@std@@@0@@Z PROC ; std::_Unchecked<std::_Vector_val<FileDriveItem,std::allocator<FileDriveItem> > >, COMDAT

; 393  : 	{	// convert to unchecked

  00000	55		 push	 ebp
  00001	8b ec		 mov	 ebp, esp

; 394  : 	return (_Iter._Unchecked());

  00003	8b 45 08	 mov	 eax, DWORD PTR __Iter$[ebp]

; 395  : 	}

  00006	5d		 pop	 ebp
  00007	c3		 ret	 0
??$_Unchecked@V?$_Vector_val@UFileDriveItem@@V?$allocator@UFileDriveItem@@@std@@@std@@@std@@YAPAUFileDriveItem@@V?$_Vector_iterator@V?$_Vector_val@UFileDriveItem@@V?$allocator@UFileDriveItem@@@std@@@std@@@0@@Z ENDP ; std::_Unchecked<std::_Vector_val<FileDriveItem,std::allocator<FileDriveItem> > >
_TEXT	ENDS
PUBLIC	??$_Copy_impl@PAUFileDriveItem@@PAU1@@std@@YAPAUFileDriveItem@@PAU1@00@Z ; std::_Copy_impl<FileDriveItem *,FileDriveItem *>
; Function compile flags: /Ogsp
; File c:\program files (x86)\microsoft visual studio 10.0\vc\include\xutility
;	COMDAT ??$_Copy_impl@PAUFileDriveItem@@PAU1@@std@@YAPAUFileDriveItem@@PAU1@00@Z
_TEXT	SEGMENT
__Cat$514868 = -4					; size = 1
__First$ = 8						; size = 4
__Last$ = 12						; size = 4
__Dest$ = 16						; size = 4
??$_Copy_impl@PAUFileDriveItem@@PAU1@@std@@YAPAUFileDriveItem@@PAU1@00@Z PROC ; std::_Copy_impl<FileDriveItem *,FileDriveItem *>, COMDAT

; 2163 : 	{	// copy [_First, _Last) to [_Dest, ...)

  00000	55		 push	 ebp
  00001	8b ec		 mov	 ebp, esp
  00003	51		 push	 ecx

; 2164 : 	return (_Copy_impl(_First, _Last,
; 2165 : 		_Dest, _Ptr_cat(_First, _Dest)));

  00004	ff 75 fc	 push	 DWORD PTR __Cat$514868[ebp]
  00007	ff 75 10	 push	 DWORD PTR __Dest$[ebp]
  0000a	ff 75 0c	 push	 DWORD PTR __Last$[ebp]
  0000d	ff 75 08	 push	 DWORD PTR __First$[ebp]
  00010	e8 00 00 00 00	 call	 ??$_Copy_impl@PAUFileDriveItem@@PAU1@@std@@YAPAUFileDriveItem@@PAU1@00U_Nonscalar_ptr_iterator_tag@0@@Z ; std::_Copy_impl<FileDriveItem *,FileDriveItem *>
  00015	83 c4 10	 add	 esp, 16			; 00000010H

; 2166 : 	}

  00018	c9		 leave
  00019	c3		 ret	 0
??$_Copy_impl@PAUFileDriveItem@@PAU1@@std@@YAPAUFileDriveItem@@PAU1@00@Z ENDP ; std::_Copy_impl<FileDriveItem *,FileDriveItem *>
_TEXT	ENDS
PUBLIC	??$_Rechecked@V?$_Vector_val@UFileDriveItem@@V?$allocator@UFileDriveItem@@@std@@@std@@@std@@YAAAV?$_Vector_iterator@V?$_Vector_val@UFileDriveItem@@V?$allocator@UFileDriveItem@@@std@@@std@@@0@AAV10@PAUFileDriveItem@@@Z ; std::_Rechecked<std::_Vector_val<FileDriveItem,std::allocator<FileDriveItem> > >
; Function compile flags: /Ogsp
; File c:\program files (x86)\microsoft visual studio 10.0\vc\include\vector
;	COMDAT ??$_Rechecked@V?$_Vector_val@UFileDriveItem@@V?$allocator@UFileDriveItem@@@std@@@std@@@std@@YAAAV?$_Vector_iterator@V?$_Vector_val@UFileDriveItem@@V?$allocator@UFileDriveItem@@@std@@@std@@@0@AAV10@PAUFileDriveItem@@@Z
_TEXT	SEGMENT
__Iter$ = 8						; size = 4
__Right$ = 12						; size = 4
??$_Rechecked@V?$_Vector_val@UFileDriveItem@@V?$allocator@UFileDriveItem@@@std@@@std@@@std@@YAAAV?$_Vector_iterator@V?$_Vector_val@UFileDriveItem@@V?$allocator@UFileDriveItem@@@std@@@std@@@0@AAV10@PAUFileDriveItem@@@Z PROC ; std::_Rechecked<std::_Vector_val<FileDriveItem,std::allocator<FileDriveItem> > >, COMDAT

; 402  : 	{	// convert to checked

  00000	55		 push	 ebp
  00001	8b ec		 mov	 ebp, esp

; 403  : 	return (_Iter._Rechecked(_Right));

  00003	8b 45 08	 mov	 eax, DWORD PTR __Iter$[ebp]
  00006	8b 4d 0c	 mov	 ecx, DWORD PTR __Right$[ebp]
  00009	89 08		 mov	 DWORD PTR [eax], ecx

; 404  : 	}

  0000b	5d		 pop	 ebp
  0000c	c3		 ret	 0
??$_Rechecked@V?$_Vector_val@UFileDriveItem@@V?$allocator@UFileDriveItem@@@std@@@std@@@std@@YAAAV?$_Vector_iterator@V?$_Vector_val@UFileDriveItem@@V?$allocator@UFileDriveItem@@@std@@@std@@@0@AAV10@PAUFileDriveItem@@@Z ENDP ; std::_Rechecked<std::_Vector_val<FileDriveItem,std::allocator<FileDriveItem> > >
_TEXT	ENDS
PUBLIC	??$_Unchecked@V?$_Vector_val@UFileInfo@FileListWnd@@V?$allocator@UFileInfo@FileListWnd@@@std@@@std@@@std@@YAPAUFileInfo@FileListWnd@@V?$_Vector_iterator@V?$_Vector_val@UFileInfo@FileListWnd@@V?$allocator@UFileInfo@FileListWnd@@@std@@@std@@@0@@Z ; std::_Unchecked<std::_Vector_val<FileListWnd::FileInfo,std::allocator<FileListWnd::FileInfo> > >
; Function compile flags: /Ogsp
;	COMDAT ??$_Unchecked@V?$_Vector_val@UFileInfo@FileListWnd@@V?$allocator@UFileInfo@FileListWnd@@@std@@@std@@@std@@YAPAUFileInfo@FileListWnd@@V?$_Vector_iterator@V?$_Vector_val@UFileInfo@FileListWnd@@V?$allocator@UFileInfo@FileListWnd@@@std@@@std@@@0@@Z
_TEXT	SEGMENT
__Iter$ = 8						; size = 4
??$_Unchecked@V?$_Vector_val@UFileInfo@FileListWnd@@V?$allocator@UFileInfo@FileListWnd@@@std@@@std@@@std@@YAPAUFileInfo@FileListWnd@@V?$_Vector_iterator@V?$_Vector_val@UFileInfo@FileListWnd@@V?$allocator@UFileInfo@FileListWnd@@@std@@@std@@@0@@Z PROC ; std::_Unchecked<std::_Vector_val<FileListWnd::FileInfo,std::allocator<FileListWnd::FileInfo> > >, COMDAT

; 393  : 	{	// convert to unchecked

  00000	55		 push	 ebp
  00001	8b ec		 mov	 ebp, esp

; 394  : 	return (_Iter._Unchecked());

  00003	8b 45 08	 mov	 eax, DWORD PTR __Iter$[ebp]

; 395  : 	}

  00006	5d		 pop	 ebp
  00007	c3		 ret	 0
??$_Unchecked@V?$_Vector_val@UFileInfo@FileListWnd@@V?$allocator@UFileInfo@FileListWnd@@@std@@@std@@@std@@YAPAUFileInfo@FileListWnd@@V?$_Vector_iterator@V?$_Vector_val@UFileInfo@FileListWnd@@V?$allocator@UFileInfo@FileListWnd@@@std@@@std@@@0@@Z ENDP ; std::_Unchecked<std::_Vector_val<FileListWnd::FileInfo,std::allocator<FileListWnd::FileInfo> > >
_TEXT	ENDS
PUBLIC	??$construct@AAUFileInfo@FileListWnd@@@?$allocator@UFileInfo@FileListWnd@@@std@@QAEXPAUFileInfo@FileListWnd@@AAU23@@Z ; std::allocator<FileListWnd::FileInfo>::construct<FileListWnd::FileInfo &>
;	COMDAT xdata$x
xdata$x	SEGMENT
__unwindtable$??$construct@AAUFileInfo@FileListWnd@@@?$allocator@UFileInfo@FileListWnd@@@std@@QAEXPAUFileInfo@FileListWnd@@AAU23@@Z DD 0ffffffffH
	DD	FLAT:__unwindfunclet$??$construct@AAUFileInfo@FileListWnd@@@?$allocator@UFileInfo@FileListWnd@@@std@@QAEXPAUFileInfo@FileListWnd@@AAU23@@Z$0
__ehfuncinfo$??$construct@AAUFileInfo@FileListWnd@@@?$allocator@UFileInfo@FileListWnd@@@std@@QAEXPAUFileInfo@FileListWnd@@AAU23@@Z DD 019930522H
	DD	01H
	DD	FLAT:__unwindtable$??$construct@AAUFileInfo@FileListWnd@@@?$allocator@UFileInfo@FileListWnd@@@std@@QAEXPAUFileInfo@FileListWnd@@AAU23@@Z
	DD	2 DUP(00H)
	DD	2 DUP(00H)
	DD	00H
	DD	01H
; Function compile flags: /Ogsp
; File c:\program files (x86)\microsoft visual studio 10.0\vc\include\xmemory
xdata$x	ENDS
;	COMDAT ??$construct@AAUFileInfo@FileListWnd@@@?$allocator@UFileInfo@FileListWnd@@@std@@QAEXPAUFileInfo@FileListWnd@@AAU23@@Z
_TEXT	SEGMENT
$T514883 = -16						; size = 4
__$EHRec$ = -12						; size = 12
__Ptr$ = 8						; size = 4
__Val$ = 12						; size = 4
??$construct@AAUFileInfo@FileListWnd@@@?$allocator@UFileInfo@FileListWnd@@@std@@QAEXPAUFileInfo@FileListWnd@@AAU23@@Z PROC ; std::allocator<FileListWnd::FileInfo>::construct<FileListWnd::FileInfo &>, COMDAT
; _this$ = ecx

; 206  : 		void construct(pointer _Ptr, _Other&& _Val)

  00000	6a 04		 push	 4
  00002	b8 00 00 00 00	 mov	 eax, __ehhandler$??$construct@AAUFileInfo@FileListWnd@@@?$allocator@UFileInfo@FileListWnd@@@std@@QAEXPAUFileInfo@FileListWnd@@AAU23@@Z
  00007	e8 00 00 00 00	 call	 __EH_prolog3

; 207  : 		{	// construct object at _Ptr with value _Val
; 208  : 		::new ((void _FARQ *)_Ptr) _Ty(_STD forward<_Other>(_Val));

  0000c	8b 75 08	 mov	 esi, DWORD PTR __Ptr$[ebp]
  0000f	89 75 f0	 mov	 DWORD PTR $T514883[ebp], esi
  00012	83 65 fc 00	 and	 DWORD PTR __$EHRec$[ebp+8], 0
  00016	85 f6		 test	 esi, esi
  00018	74 12		 je	 SHORT $LN3@construct@3
  0001a	8b 7d 0c	 mov	 edi, DWORD PTR __Val$[ebp]
  0001d	57		 push	 edi
  0001e	8b ce		 mov	 ecx, esi
  00020	ff 15 00 00 00
	00		 call	 DWORD PTR __imp_??0ioHashString@@QAE@ABV0@@Z
  00026	8a 47 10	 mov	 al, BYTE PTR [edi+16]
  00029	88 46 10	 mov	 BYTE PTR [esi+16], al
$LN3@construct@3:

; 209  : 		}

  0002c	e8 00 00 00 00	 call	 __EH_epilog3
  00031	c2 08 00	 ret	 8
_TEXT	ENDS
;	COMDAT text$x
text$x	SEGMENT
__unwindfunclet$??$construct@AAUFileInfo@FileListWnd@@@?$allocator@UFileInfo@FileListWnd@@@std@@QAEXPAUFileInfo@FileListWnd@@AAU23@@Z$0:
  00000	ff 75 08	 push	 DWORD PTR __Ptr$[ebp]
  00003	ff 75 f0	 push	 DWORD PTR $T514883[ebp]
  00006	e8 00 00 00 00	 call	 ??3@YAXPAX0@Z		; operator delete
  0000b	59		 pop	 ecx
  0000c	59		 pop	 ecx
  0000d	c3		 ret	 0
__ehhandler$??$construct@AAUFileInfo@FileListWnd@@@?$allocator@UFileInfo@FileListWnd@@@std@@QAEXPAUFileInfo@FileListWnd@@AAU23@@Z:
  0000e	8b 54 24 08	 mov	 edx, DWORD PTR [esp+8]
  00012	8d 42 0c	 lea	 eax, DWORD PTR [edx+12]
  00015	8b 4a ec	 mov	 ecx, DWORD PTR [edx-20]
  00018	33 c8		 xor	 ecx, eax
  0001a	e8 00 00 00 00	 call	 @__security_check_cookie@4
  0001f	b8 00 00 00 00	 mov	 eax, OFFSET __ehfuncinfo$??$construct@AAUFileInfo@FileListWnd@@@?$allocator@UFileInfo@FileListWnd@@@std@@QAEXPAUFileInfo@FileListWnd@@AAU23@@Z
  00024	e9 00 00 00 00	 jmp	 ___CxxFrameHandler3
text$x	ENDS
??$construct@AAUFileInfo@FileListWnd@@@?$allocator@UFileInfo@FileListWnd@@@std@@QAEXPAUFileInfo@FileListWnd@@AAU23@@Z ENDP ; std::allocator<FileListWnd::FileInfo>::construct<FileListWnd::FileInfo &>
PUBLIC	??$_Move@PAUFileDriveItem@@PAU1@@std@@YAPAUFileDriveItem@@PAU1@00U_Nonscalar_ptr_iterator_tag@0@@Z ; std::_Move<FileDriveItem *,FileDriveItem *>
; Function compile flags: /Ogsp
; File c:\program files (x86)\microsoft visual studio 10.0\vc\include\xutility
;	COMDAT ??$_Move@PAUFileDriveItem@@PAU1@@std@@YAPAUFileDriveItem@@PAU1@00U_Nonscalar_ptr_iterator_tag@0@@Z
_TEXT	SEGMENT
__First$ = 8						; size = 4
__Last$ = 12						; size = 4
__Dest$ = 16						; size = 4
___formal$ = 20						; size = 1
??$_Move@PAUFileDriveItem@@PAU1@@std@@YAPAUFileDriveItem@@PAU1@00U_Nonscalar_ptr_iterator_tag@0@@Z PROC ; std::_Move<FileDriveItem *,FileDriveItem *>, COMDAT

; 2512 : 	{	// move [_First, _Last) to [_Dest, ...), arbitrary iterators

  00000	55		 push	 ebp
  00001	8b ec		 mov	 ebp, esp
  00003	56		 push	 esi

; 2513 : 	for (; _First != _Last; ++_Dest, ++_First)

  00004	8b 75 08	 mov	 esi, DWORD PTR __First$[ebp]
  00007	eb 1a		 jmp	 SHORT $LN13@Move
$LL3@Move:

; 2514 : 		*_Dest = _STD move(*_First);

  00009	8b 4d 10	 mov	 ecx, DWORD PTR __Dest$[ebp]
  0000c	56		 push	 esi
  0000d	ff 15 00 00 00
	00		 call	 DWORD PTR __imp_??4ioHashString@@QAEAAV0@ABV0@@Z
  00013	8b 46 10	 mov	 eax, DWORD PTR [esi+16]
  00016	8b 4d 10	 mov	 ecx, DWORD PTR __Dest$[ebp]
  00019	83 45 10 14	 add	 DWORD PTR __Dest$[ebp], 20 ; 00000014H
  0001d	89 41 10	 mov	 DWORD PTR [ecx+16], eax
  00020	83 c6 14	 add	 esi, 20			; 00000014H
$LN13@Move:

; 2513 : 	for (; _First != _Last; ++_Dest, ++_First)

  00023	3b 75 0c	 cmp	 esi, DWORD PTR __Last$[ebp]
  00026	75 e1		 jne	 SHORT $LL3@Move

; 2515 : 	return (_Dest);

  00028	8b 45 10	 mov	 eax, DWORD PTR __Dest$[ebp]
  0002b	5e		 pop	 esi

; 2516 : 	}

  0002c	5d		 pop	 ebp
  0002d	c3		 ret	 0
??$_Move@PAUFileDriveItem@@PAU1@@std@@YAPAUFileDriveItem@@PAU1@00U_Nonscalar_ptr_iterator_tag@0@@Z ENDP ; std::_Move<FileDriveItem *,FileDriveItem *>
_TEXT	ENDS
PUBLIC	??$_Move@PAUFileInfo@FileListWnd@@PAU12@@std@@YAPAUFileInfo@FileListWnd@@PAU12@00U_Nonscalar_ptr_iterator_tag@0@@Z ; std::_Move<FileListWnd::FileInfo *,FileListWnd::FileInfo *>
; Function compile flags: /Ogsp
;	COMDAT ??$_Move@PAUFileInfo@FileListWnd@@PAU12@@std@@YAPAUFileInfo@FileListWnd@@PAU12@00U_Nonscalar_ptr_iterator_tag@0@@Z
_TEXT	SEGMENT
__First$ = 8						; size = 4
__Last$ = 12						; size = 4
__Dest$ = 16						; size = 4
___formal$ = 20						; size = 1
??$_Move@PAUFileInfo@FileListWnd@@PAU12@@std@@YAPAUFileInfo@FileListWnd@@PAU12@00U_Nonscalar_ptr_iterator_tag@0@@Z PROC ; std::_Move<FileListWnd::FileInfo *,FileListWnd::FileInfo *>, COMDAT

; 2512 : 	{	// move [_First, _Last) to [_Dest, ...), arbitrary iterators

  00000	55		 push	 ebp
  00001	8b ec		 mov	 ebp, esp
  00003	56		 push	 esi

; 2513 : 	for (; _First != _Last; ++_Dest, ++_First)

  00004	8b 75 08	 mov	 esi, DWORD PTR __First$[ebp]
  00007	eb 1a		 jmp	 SHORT $LN13@Move@2
$LL3@Move@2:

; 2514 : 		*_Dest = _STD move(*_First);

  00009	8b 4d 10	 mov	 ecx, DWORD PTR __Dest$[ebp]
  0000c	56		 push	 esi
  0000d	ff 15 00 00 00
	00		 call	 DWORD PTR __imp_??4ioHashString@@QAEAAV0@ABV0@@Z
  00013	8a 46 10	 mov	 al, BYTE PTR [esi+16]
  00016	8b 4d 10	 mov	 ecx, DWORD PTR __Dest$[ebp]
  00019	83 45 10 14	 add	 DWORD PTR __Dest$[ebp], 20 ; 00000014H
  0001d	88 41 10	 mov	 BYTE PTR [ecx+16], al
  00020	83 c6 14	 add	 esi, 20			; 00000014H
$LN13@Move@2:

; 2513 : 	for (; _First != _Last; ++_Dest, ++_First)

  00023	3b 75 0c	 cmp	 esi, DWORD PTR __Last$[ebp]
  00026	75 e1		 jne	 SHORT $LL3@Move@2

; 2515 : 	return (_Dest);

  00028	8b 45 10	 mov	 eax, DWORD PTR __Dest$[ebp]
  0002b	5e		 pop	 esi

; 2516 : 	}

  0002c	5d		 pop	 ebp
  0002d	c3		 ret	 0
??$_Move@PAUFileInfo@FileListWnd@@PAU12@@std@@YAPAUFileInfo@FileListWnd@@PAU12@00U_Nonscalar_ptr_iterator_tag@0@@Z ENDP ; std::_Move<FileListWnd::FileInfo *,FileListWnd::FileInfo *>
_TEXT	ENDS
PUBLIC	??$_Construct@UFileInfo@FileListWnd@@ABU12@@std@@YAXPAUFileInfo@FileListWnd@@ABU12@@Z ; std::_Construct<FileListWnd::FileInfo,FileListWnd::FileInfo const &>
;	COMDAT xdata$x
; File c:\program files (x86)\microsoft visual studio 10.0\vc\include\vector
xdata$x	SEGMENT
__unwindtable$??$_Construct@UFileInfo@FileListWnd@@ABU12@@std@@YAXPAUFileInfo@FileListWnd@@ABU12@@Z DD 0ffffffffH
	DD	FLAT:__unwindfunclet$??$_Construct@UFileInfo@FileListWnd@@ABU12@@std@@YAXPAUFileInfo@FileListWnd@@ABU12@@Z$0
__ehfuncinfo$??$_Construct@UFileInfo@FileListWnd@@ABU12@@std@@YAXPAUFileInfo@FileListWnd@@ABU12@@Z DD 019930522H
	DD	01H
	DD	FLAT:__unwindtable$??$_Construct@UFileInfo@FileListWnd@@ABU12@@std@@YAXPAUFileInfo@FileListWnd@@ABU12@@Z
	DD	2 DUP(00H)
	DD	2 DUP(00H)
	DD	00H
	DD	01H
; Function compile flags: /Ogsp
; File c:\program files (x86)\microsoft visual studio 10.0\vc\include\xmemory
xdata$x	ENDS
;	COMDAT ??$_Construct@UFileInfo@FileListWnd@@ABU12@@std@@YAXPAUFileInfo@FileListWnd@@ABU12@@Z
_TEXT	SEGMENT
$T514930 = -16						; size = 4
__$EHRec$ = -12						; size = 12
__Vptr$ = 8						; size = 4
__Ptr$ = 8						; size = 4
__Val$ = 12						; size = 4
??$_Construct@UFileInfo@FileListWnd@@ABU12@@std@@YAXPAUFileInfo@FileListWnd@@ABU12@@Z PROC ; std::_Construct<FileListWnd::FileInfo,FileListWnd::FileInfo const &>, COMDAT

; 46   : 	{	// construct object at _Ptr with value _Val

  00000	6a 04		 push	 4
  00002	b8 00 00 00 00	 mov	 eax, __ehhandler$??$_Construct@UFileInfo@FileListWnd@@ABU12@@std@@YAXPAUFileInfo@FileListWnd@@ABU12@@Z
  00007	e8 00 00 00 00	 call	 __EH_prolog3

; 47   : 	void _FARQ *_Vptr = _Ptr;

  0000c	8b 75 08	 mov	 esi, DWORD PTR __Ptr$[ebp]
  0000f	89 75 08	 mov	 DWORD PTR __Vptr$[ebp], esi

; 48   : 	::new (_Vptr) _Ty1(_STD forward<_Ty2>(_Val));

  00012	89 75 f0	 mov	 DWORD PTR $T514930[ebp], esi
  00015	83 65 fc 00	 and	 DWORD PTR __$EHRec$[ebp+8], 0
  00019	85 f6		 test	 esi, esi
  0001b	74 12		 je	 SHORT $LN3@Construct@2
  0001d	8b 7d 0c	 mov	 edi, DWORD PTR __Val$[ebp]
  00020	57		 push	 edi
  00021	8b ce		 mov	 ecx, esi
  00023	ff 15 00 00 00
	00		 call	 DWORD PTR __imp_??0ioHashString@@QAE@ABV0@@Z
  00029	8a 47 10	 mov	 al, BYTE PTR [edi+16]
  0002c	88 46 10	 mov	 BYTE PTR [esi+16], al
$LN3@Construct@2:

; 49   : 	}

  0002f	e8 00 00 00 00	 call	 __EH_epilog3
  00034	c3		 ret	 0
_TEXT	ENDS
;	COMDAT text$x
text$x	SEGMENT
__unwindfunclet$??$_Construct@UFileInfo@FileListWnd@@ABU12@@std@@YAXPAUFileInfo@FileListWnd@@ABU12@@Z$0:
  00000	ff 75 08	 push	 DWORD PTR __Vptr$[ebp]
  00003	ff 75 f0	 push	 DWORD PTR $T514930[ebp]
  00006	e8 00 00 00 00	 call	 ??3@YAXPAX0@Z		; operator delete
  0000b	59		 pop	 ecx
  0000c	59		 pop	 ecx
  0000d	c3		 ret	 0
__ehhandler$??$_Construct@UFileInfo@FileListWnd@@ABU12@@std@@YAXPAUFileInfo@FileListWnd@@ABU12@@Z:
  0000e	8b 54 24 08	 mov	 edx, DWORD PTR [esp+8]
  00012	8d 42 0c	 lea	 eax, DWORD PTR [edx+12]
  00015	8b 4a ec	 mov	 ecx, DWORD PTR [edx-20]
  00018	33 c8		 xor	 ecx, eax
  0001a	e8 00 00 00 00	 call	 @__security_check_cookie@4
  0001f	b8 00 00 00 00	 mov	 eax, OFFSET __ehfuncinfo$??$_Construct@UFileInfo@FileListWnd@@ABU12@@std@@YAXPAUFileInfo@FileListWnd@@ABU12@@Z
  00024	e9 00 00 00 00	 jmp	 ___CxxFrameHandler3
text$x	ENDS
??$_Construct@UFileInfo@FileListWnd@@ABU12@@std@@YAXPAUFileInfo@FileListWnd@@ABU12@@Z ENDP ; std::_Construct<FileListWnd::FileInfo,FileListWnd::FileInfo const &>
PUBLIC	?construct@?$allocator@UFileDriveItem@@@std@@QAEXPAUFileDriveItem@@$$QAU3@@Z ; std::allocator<FileDriveItem>::construct
;	COMDAT xdata$x
; File d:\lost saga for developer\youtube\tutorial\source\src\lsclient\gui\filelistwnd.cpp
xdata$x	SEGMENT
__unwindtable$?construct@?$allocator@UFileDriveItem@@@std@@QAEXPAUFileDriveItem@@$$QAU3@@Z DD 0ffffffffH
	DD	FLAT:__unwindfunclet$?construct@?$allocator@UFileDriveItem@@@std@@QAEXPAUFileDriveItem@@$$QAU3@@Z$0
__ehfuncinfo$?construct@?$allocator@UFileDriveItem@@@std@@QAEXPAUFileDriveItem@@$$QAU3@@Z DD 019930522H
	DD	01H
	DD	FLAT:__unwindtable$?construct@?$allocator@UFileDriveItem@@@std@@QAEXPAUFileDriveItem@@$$QAU3@@Z
	DD	2 DUP(00H)
	DD	2 DUP(00H)
	DD	00H
	DD	01H
; Function compile flags: /Ogsp
; File c:\program files (x86)\microsoft visual studio 10.0\vc\include\xmemory
xdata$x	ENDS
;	COMDAT ?construct@?$allocator@UFileDriveItem@@@std@@QAEXPAUFileDriveItem@@$$QAU3@@Z
_TEXT	SEGMENT
$T514953 = -16						; size = 4
__$EHRec$ = -12						; size = 12
__Ptr$ = 8						; size = 4
__Val$ = 12						; size = 4
?construct@?$allocator@UFileDriveItem@@@std@@QAEXPAUFileDriveItem@@$$QAU3@@Z PROC ; std::allocator<FileDriveItem>::construct, COMDAT
; _this$ = ecx

; 201  : 		{	// construct object at _Ptr with value _Val

  00000	6a 04		 push	 4
  00002	b8 00 00 00 00	 mov	 eax, __ehhandler$?construct@?$allocator@UFileDriveItem@@@std@@QAEXPAUFileDriveItem@@$$QAU3@@Z
  00007	e8 00 00 00 00	 call	 __EH_prolog3

; 202  : 		::new ((void _FARQ *)_Ptr) _Ty(_STD forward<_Ty>(_Val));

  0000c	8b 75 08	 mov	 esi, DWORD PTR __Ptr$[ebp]
  0000f	89 75 f0	 mov	 DWORD PTR $T514953[ebp], esi
  00012	83 65 fc 00	 and	 DWORD PTR __$EHRec$[ebp+8], 0
  00016	85 f6		 test	 esi, esi
  00018	74 12		 je	 SHORT $LN3@construct@4
  0001a	8b 7d 0c	 mov	 edi, DWORD PTR __Val$[ebp]
  0001d	57		 push	 edi
  0001e	8b ce		 mov	 ecx, esi
  00020	ff 15 00 00 00
	00		 call	 DWORD PTR __imp_??0ioHashString@@QAE@ABV0@@Z
  00026	8b 47 10	 mov	 eax, DWORD PTR [edi+16]
  00029	89 46 10	 mov	 DWORD PTR [esi+16], eax
$LN3@construct@4:

; 203  : 		}

  0002c	e8 00 00 00 00	 call	 __EH_epilog3
  00031	c2 08 00	 ret	 8
_TEXT	ENDS
;	COMDAT text$x
text$x	SEGMENT
__unwindfunclet$?construct@?$allocator@UFileDriveItem@@@std@@QAEXPAUFileDriveItem@@$$QAU3@@Z$0:
  00000	ff 75 08	 push	 DWORD PTR __Ptr$[ebp]
  00003	ff 75 f0	 push	 DWORD PTR $T514953[ebp]
  00006	e8 00 00 00 00	 call	 ??3@YAXPAX0@Z		; operator delete
  0000b	59		 pop	 ecx
  0000c	59		 pop	 ecx
  0000d	c3		 ret	 0
__ehhandler$?construct@?$allocator@UFileDriveItem@@@std@@QAEXPAUFileDriveItem@@$$QAU3@@Z:
  0000e	8b 54 24 08	 mov	 edx, DWORD PTR [esp+8]
  00012	8d 42 0c	 lea	 eax, DWORD PTR [edx+12]
  00015	8b 4a ec	 mov	 ecx, DWORD PTR [edx-20]
  00018	33 c8		 xor	 ecx, eax
  0001a	e8 00 00 00 00	 call	 @__security_check_cookie@4
  0001f	b8 00 00 00 00	 mov	 eax, OFFSET __ehfuncinfo$?construct@?$allocator@UFileDriveItem@@@std@@QAEXPAUFileDriveItem@@$$QAU3@@Z
  00024	e9 00 00 00 00	 jmp	 ___CxxFrameHandler3
text$x	ENDS
?construct@?$allocator@UFileDriveItem@@@std@@QAEXPAUFileDriveItem@@$$QAU3@@Z ENDP ; std::allocator<FileDriveItem>::construct
PUBLIC	??$?0AAPAUFileInfo@FileListWnd@@AAPAU01@@?$pair@PAUFileInfo@FileListWnd@@PAU12@@std@@QAE@AAPAUFileInfo@FileListWnd@@0@Z ; std::pair<FileListWnd::FileInfo *,FileListWnd::FileInfo *>::pair<FileListWnd::FileInfo *,FileListWnd::FileInfo *><FileListWnd::FileInfo * &,FileListWnd::FileInfo * &>
; Function compile flags: /Ogsp
; File c:\program files (x86)\microsoft visual studio 10.0\vc\include\utility
;	COMDAT ??$?0AAPAUFileInfo@FileListWnd@@AAPAU01@@?$pair@PAUFileInfo@FileListWnd@@PAU12@@std@@QAE@AAPAUFileInfo@FileListWnd@@0@Z
_TEXT	SEGMENT
__Val1$ = 8						; size = 4
__Val2$ = 12						; size = 4
??$?0AAPAUFileInfo@FileListWnd@@AAPAU01@@?$pair@PAUFileInfo@FileListWnd@@PAU12@@std@@QAE@AAPAUFileInfo@FileListWnd@@0@Z PROC ; std::pair<FileListWnd::FileInfo *,FileListWnd::FileInfo *>::pair<FileListWnd::FileInfo *,FileListWnd::FileInfo *><FileListWnd::FileInfo * &,FileListWnd::FileInfo * &>, COMDAT
; _this$ = ecx

; 247  : 		{	// construct from moved values

  00000	55		 push	 ebp
  00001	8b ec		 mov	 ebp, esp
  00003	8b c1		 mov	 eax, ecx
  00005	8b 4d 08	 mov	 ecx, DWORD PTR __Val1$[ebp]
  00008	8b 09		 mov	 ecx, DWORD PTR [ecx]
  0000a	89 08		 mov	 DWORD PTR [eax], ecx
  0000c	8b 4d 0c	 mov	 ecx, DWORD PTR __Val2$[ebp]
  0000f	8b 09		 mov	 ecx, DWORD PTR [ecx]
  00011	89 48 04	 mov	 DWORD PTR [eax+4], ecx

; 248  : 		}

  00014	5d		 pop	 ebp
  00015	c2 08 00	 ret	 8
??$?0AAPAUFileInfo@FileListWnd@@AAPAU01@@?$pair@PAUFileInfo@FileListWnd@@PAU12@@std@@QAE@AAPAUFileInfo@FileListWnd@@0@Z ENDP ; std::pair<FileListWnd::FileInfo *,FileListWnd::FileInfo *>::pair<FileListWnd::FileInfo *,FileListWnd::FileInfo *><FileListWnd::FileInfo * &,FileListWnd::FileInfo * &>
_TEXT	ENDS
PUBLIC	??$_Destroy@UFileDriveItem@@@std@@YAXPAUFileDriveItem@@@Z ; std::_Destroy<FileDriveItem>
; Function compile flags: /Ogsp
; File c:\program files (x86)\microsoft visual studio 10.0\vc\include\xmemory
;	COMDAT ??$_Destroy@UFileDriveItem@@@std@@YAXPAUFileDriveItem@@@Z
_TEXT	SEGMENT
__Ptr$ = 8						; size = 4
??$_Destroy@UFileDriveItem@@@std@@YAXPAUFileDriveItem@@@Z PROC ; std::_Destroy<FileDriveItem>, COMDAT

; 62   : 	{	// destroy object at _Ptr

  00000	55		 push	 ebp
  00001	8b ec		 mov	 ebp, esp

; 63   : 	_Ptr->~_Ty();

  00003	8b 4d 08	 mov	 ecx, DWORD PTR __Ptr$[ebp]

; 64   : 	}

  00006	5d		 pop	 ebp

; 63   : 	_Ptr->~_Ty();

  00007	ff 25 00 00 00
	00		 jmp	 DWORD PTR __imp_??1ioHashString@@QAE@XZ
??$_Destroy@UFileDriveItem@@@std@@YAXPAUFileDriveItem@@@Z ENDP ; std::_Destroy<FileDriveItem>
_TEXT	ENDS
PUBLIC	??$_Destroy@UFileInfo@FileListWnd@@@std@@YAXPAUFileInfo@FileListWnd@@@Z ; std::_Destroy<FileListWnd::FileInfo>
; Function compile flags: /Ogsp
;	COMDAT ??$_Destroy@UFileInfo@FileListWnd@@@std@@YAXPAUFileInfo@FileListWnd@@@Z
_TEXT	SEGMENT
__Ptr$ = 8						; size = 4
??$_Destroy@UFileInfo@FileListWnd@@@std@@YAXPAUFileInfo@FileListWnd@@@Z PROC ; std::_Destroy<FileListWnd::FileInfo>, COMDAT

; 62   : 	{	// destroy object at _Ptr

  00000	55		 push	 ebp
  00001	8b ec		 mov	 ebp, esp

; 63   : 	_Ptr->~_Ty();

  00003	8b 4d 08	 mov	 ecx, DWORD PTR __Ptr$[ebp]

; 64   : 	}

  00006	5d		 pop	 ebp

; 63   : 	_Ptr->~_Ty();

  00007	ff 25 00 00 00
	00		 jmp	 DWORD PTR __imp_??1ioHashString@@QAE@XZ
??$_Destroy@UFileInfo@FileListWnd@@@std@@YAXPAUFileInfo@FileListWnd@@@Z ENDP ; std::_Destroy<FileListWnd::FileInfo>
_TEXT	ENDS
PUBLIC	?construct@?$allocator@UFileInfo@FileListWnd@@@std@@QAEXPAUFileInfo@FileListWnd@@$$QAU34@@Z ; std::allocator<FileListWnd::FileInfo>::construct
;	COMDAT xdata$x
; File c:\program files (x86)\microsoft visual studio 10.0\vc\include\vector
xdata$x	SEGMENT
__unwindtable$?construct@?$allocator@UFileInfo@FileListWnd@@@std@@QAEXPAUFileInfo@FileListWnd@@$$QAU34@@Z DD 0ffffffffH
	DD	FLAT:__unwindfunclet$?construct@?$allocator@UFileInfo@FileListWnd@@@std@@QAEXPAUFileInfo@FileListWnd@@$$QAU34@@Z$0
__ehfuncinfo$?construct@?$allocator@UFileInfo@FileListWnd@@@std@@QAEXPAUFileInfo@FileListWnd@@$$QAU34@@Z DD 019930522H
	DD	01H
	DD	FLAT:__unwindtable$?construct@?$allocator@UFileInfo@FileListWnd@@@std@@QAEXPAUFileInfo@FileListWnd@@$$QAU34@@Z
	DD	2 DUP(00H)
	DD	2 DUP(00H)
	DD	00H
	DD	01H
; Function compile flags: /Ogsp
; File c:\program files (x86)\microsoft visual studio 10.0\vc\include\xmemory
xdata$x	ENDS
;	COMDAT ?construct@?$allocator@UFileInfo@FileListWnd@@@std@@QAEXPAUFileInfo@FileListWnd@@$$QAU34@@Z
_TEXT	SEGMENT
$T515023 = -16						; size = 4
__$EHRec$ = -12						; size = 12
__Ptr$ = 8						; size = 4
__Val$ = 12						; size = 4
?construct@?$allocator@UFileInfo@FileListWnd@@@std@@QAEXPAUFileInfo@FileListWnd@@$$QAU34@@Z PROC ; std::allocator<FileListWnd::FileInfo>::construct, COMDAT
; _this$ = ecx

; 201  : 		{	// construct object at _Ptr with value _Val

  00000	6a 04		 push	 4
  00002	b8 00 00 00 00	 mov	 eax, __ehhandler$?construct@?$allocator@UFileInfo@FileListWnd@@@std@@QAEXPAUFileInfo@FileListWnd@@$$QAU34@@Z
  00007	e8 00 00 00 00	 call	 __EH_prolog3

; 202  : 		::new ((void _FARQ *)_Ptr) _Ty(_STD forward<_Ty>(_Val));

  0000c	8b 75 08	 mov	 esi, DWORD PTR __Ptr$[ebp]
  0000f	89 75 f0	 mov	 DWORD PTR $T515023[ebp], esi
  00012	83 65 fc 00	 and	 DWORD PTR __$EHRec$[ebp+8], 0
  00016	85 f6		 test	 esi, esi
  00018	74 12		 je	 SHORT $LN3@construct@5
  0001a	8b 7d 0c	 mov	 edi, DWORD PTR __Val$[ebp]
  0001d	57		 push	 edi
  0001e	8b ce		 mov	 ecx, esi
  00020	ff 15 00 00 00
	00		 call	 DWORD PTR __imp_??0ioHashString@@QAE@ABV0@@Z
  00026	8a 47 10	 mov	 al, BYTE PTR [edi+16]
  00029	88 46 10	 mov	 BYTE PTR [esi+16], al
$LN3@construct@5:

; 203  : 		}

  0002c	e8 00 00 00 00	 call	 __EH_epilog3
  00031	c2 08 00	 ret	 8
_TEXT	ENDS
;	COMDAT text$x
text$x	SEGMENT
__unwindfunclet$?construct@?$allocator@UFileInfo@FileListWnd@@@std@@QAEXPAUFileInfo@FileListWnd@@$$QAU34@@Z$0:
  00000	ff 75 08	 push	 DWORD PTR __Ptr$[ebp]
  00003	ff 75 f0	 push	 DWORD PTR $T515023[ebp]
  00006	e8 00 00 00 00	 call	 ??3@YAXPAX0@Z		; operator delete
  0000b	59		 pop	 ecx
  0000c	59		 pop	 ecx
  0000d	c3		 ret	 0
__ehhandler$?construct@?$allocator@UFileInfo@FileListWnd@@@std@@QAEXPAUFileInfo@FileListWnd@@$$QAU34@@Z:
  0000e	8b 54 24 08	 mov	 edx, DWORD PTR [esp+8]
  00012	8d 42 0c	 lea	 eax, DWORD PTR [edx+12]
  00015	8b 4a ec	 mov	 ecx, DWORD PTR [edx-20]
  00018	33 c8		 xor	 ecx, eax
  0001a	e8 00 00 00 00	 call	 @__security_check_cookie@4
  0001f	b8 00 00 00 00	 mov	 eax, OFFSET __ehfuncinfo$?construct@?$allocator@UFileInfo@FileListWnd@@@std@@QAEXPAUFileInfo@FileListWnd@@$$QAU34@@Z
  00024	e9 00 00 00 00	 jmp	 ___CxxFrameHandler3
text$x	ENDS
?construct@?$allocator@UFileInfo@FileListWnd@@@std@@QAEXPAUFileInfo@FileListWnd@@$$QAU34@@Z ENDP ; std::allocator<FileListWnd::FileInfo>::construct
PUBLIC	??$swap@UFileInfo@FileListWnd@@@std@@YAXAAUFileInfo@FileListWnd@@0@Z ; std::swap<FileListWnd::FileInfo>
;	COMDAT xdata$x
; File d:\lost saga for developer\youtube\tutorial\source\src\lsclient\gui\filelistwnd.cpp
xdata$x	SEGMENT
__unwindtable$??$swap@UFileInfo@FileListWnd@@@std@@YAXAAUFileInfo@FileListWnd@@0@Z DD 0ffffffffH
	DD	FLAT:__unwindfunclet$??$swap@UFileInfo@FileListWnd@@@std@@YAXAAUFileInfo@FileListWnd@@0@Z$0
__ehfuncinfo$??$swap@UFileInfo@FileListWnd@@@std@@YAXAAUFileInfo@FileListWnd@@0@Z DD 019930522H
	DD	01H
	DD	FLAT:__unwindtable$??$swap@UFileInfo@FileListWnd@@@std@@YAXAAUFileInfo@FileListWnd@@0@Z
	DD	2 DUP(00H)
	DD	2 DUP(00H)
	DD	00H
	DD	01H
; Function compile flags: /Ogsp
; File c:\program files (x86)\microsoft visual studio 10.0\vc\include\utility
xdata$x	ENDS
;	COMDAT ??$swap@UFileInfo@FileListWnd@@@std@@YAXAAUFileInfo@FileListWnd@@0@Z
_TEXT	SEGMENT
__Tmp$ = -32						; size = 20
__$EHRec$ = -12						; size = 12
__Left$ = 8						; size = 4
__Right$ = 12						; size = 4
??$swap@UFileInfo@FileListWnd@@@std@@YAXAAUFileInfo@FileListWnd@@0@Z PROC ; std::swap<FileListWnd::FileInfo>, COMDAT

; 101  : 	{	// exchange values stored at _Left and _Right

  00000	6a 14		 push	 20			; 00000014H
  00002	b8 00 00 00 00	 mov	 eax, __ehhandler$??$swap@UFileInfo@FileListWnd@@@std@@YAXAAUFileInfo@FileListWnd@@0@Z
  00007	e8 00 00 00 00	 call	 __EH_prolog3

; 102  : 	_Ty _Tmp = _Move(_Left);

  0000c	8b 75 08	 mov	 esi, DWORD PTR __Left$[ebp]
  0000f	56		 push	 esi
  00010	8d 4d e0	 lea	 ecx, DWORD PTR __Tmp$[ebp]
  00013	ff 15 00 00 00
	00		 call	 DWORD PTR __imp_??0ioHashString@@QAE@ABV0@@Z
  00019	8a 46 10	 mov	 al, BYTE PTR [esi+16]
  0001c	88 45 f0	 mov	 BYTE PTR __Tmp$[ebp+16], al

; 103  : 	_Left = _Move(_Right);

  0001f	8b 7d 0c	 mov	 edi, DWORD PTR __Right$[ebp]
  00022	8b 1d 00 00 00
	00		 mov	 ebx, DWORD PTR __imp_??4ioHashString@@QAEAAV0@ABV0@@Z
  00028	83 65 fc 00	 and	 DWORD PTR __$EHRec$[ebp+8], 0
  0002c	57		 push	 edi
  0002d	8b ce		 mov	 ecx, esi
  0002f	ff d3		 call	 ebx
  00031	8a 47 10	 mov	 al, BYTE PTR [edi+16]
  00034	88 46 10	 mov	 BYTE PTR [esi+16], al

; 104  : 	_Right = _Move(_Tmp);

  00037	8d 45 e0	 lea	 eax, DWORD PTR __Tmp$[ebp]
  0003a	50		 push	 eax
  0003b	8b cf		 mov	 ecx, edi
  0003d	ff d3		 call	 ebx
  0003f	8a 45 f0	 mov	 al, BYTE PTR __Tmp$[ebp+16]

; 105  : 	}

  00042	83 4d fc ff	 or	 DWORD PTR __$EHRec$[ebp+8], -1
  00046	8d 4d e0	 lea	 ecx, DWORD PTR __Tmp$[ebp]
  00049	88 47 10	 mov	 BYTE PTR [edi+16], al
  0004c	ff 15 00 00 00
	00		 call	 DWORD PTR __imp_??1ioHashString@@QAE@XZ
  00052	e8 00 00 00 00	 call	 __EH_epilog3
  00057	c3		 ret	 0
_TEXT	ENDS
;	COMDAT text$x
text$x	SEGMENT
__unwindfunclet$??$swap@UFileInfo@FileListWnd@@@std@@YAXAAUFileInfo@FileListWnd@@0@Z$0:
  00000	8d 4d e0	 lea	 ecx, DWORD PTR __Tmp$[ebp]
  00003	e9 00 00 00 00	 jmp	 ??1FileInfo@FileListWnd@@QAE@XZ
__ehhandler$??$swap@UFileInfo@FileListWnd@@@std@@YAXAAUFileInfo@FileListWnd@@0@Z:
  00008	8b 54 24 08	 mov	 edx, DWORD PTR [esp+8]
  0000c	8d 42 0c	 lea	 eax, DWORD PTR [edx+12]
  0000f	8b 4a dc	 mov	 ecx, DWORD PTR [edx-36]
  00012	33 c8		 xor	 ecx, eax
  00014	e8 00 00 00 00	 call	 @__security_check_cookie@4
  00019	b8 00 00 00 00	 mov	 eax, OFFSET __ehfuncinfo$??$swap@UFileInfo@FileListWnd@@@std@@YAXAAUFileInfo@FileListWnd@@0@Z
  0001e	e9 00 00 00 00	 jmp	 ___CxxFrameHandler3
text$x	ENDS
??$swap@UFileInfo@FileListWnd@@@std@@YAXAAUFileInfo@FileListWnd@@0@Z ENDP ; std::swap<FileListWnd::FileInfo>
PUBLIC	??$_Adjust_heap@PAUFileInfo@FileListWnd@@HU12@VFileListInfoSort@@@std@@YAXPAUFileInfo@FileListWnd@@HH$$QAU12@VFileListInfoSort@@@Z ; std::_Adjust_heap<FileListWnd::FileInfo *,int,FileListWnd::FileInfo,FileListInfoSort>
; Function compile flags: /Ogsp
; File c:\program files (x86)\microsoft visual studio 10.0\vc\include\algorithm
;	COMDAT ??$_Adjust_heap@PAUFileInfo@FileListWnd@@HU12@VFileListInfoSort@@@std@@YAXPAUFileInfo@FileListWnd@@HH$$QAU12@VFileListInfoSort@@@Z
_TEXT	SEGMENT
__Top$ = -4						; size = 4
__First$ = 8						; size = 4
tv169 = 12						; size = 4
__Hole$ = 12						; size = 4
__Bottom$ = 16						; size = 4
__Val$ = 20						; size = 4
__Pred$ = 24						; size = 1
??$_Adjust_heap@PAUFileInfo@FileListWnd@@HU12@VFileListInfoSort@@@std@@YAXPAUFileInfo@FileListWnd@@HH$$QAU12@VFileListInfoSort@@@Z PROC ; std::_Adjust_heap<FileListWnd::FileInfo *,int,FileListWnd::FileInfo,FileListInfoSort>, COMDAT

; 2565 : 	{	// percolate _Hole to _Bottom, then push _Val, using _Pred

  00000	55		 push	 ebp
  00001	8b ec		 mov	 ebp, esp
  00003	51		 push	 ecx

; 2566 : 	_Diff _Top = _Hole;

  00004	8b 45 0c	 mov	 eax, DWORD PTR __Hole$[ebp]
  00007	53		 push	 ebx
  00008	56		 push	 esi

; 2567 : 	_Diff _Idx = 2 * _Hole + 2;
; 2568 : 
; 2569 : 	for (; _Idx < _Bottom; _Idx = 2 * _Idx + 2)

  00009	8b 75 08	 mov	 esi, DWORD PTR __First$[ebp]
  0000c	57		 push	 edi
  0000d	89 45 fc	 mov	 DWORD PTR __Top$[ebp], eax
  00010	8d 7c 00 02	 lea	 edi, DWORD PTR [eax+eax+2]
  00014	eb 42		 jmp	 SHORT $LN20@Adjust_hea
$LL5@Adjust_hea:

; 2570 : 		{	// move _Hole down to larger child
; 2571 : 		if (_DEBUG_LT_PRED(_Pred, *(_First + _Idx), *(_First + (_Idx - 1))))

  00016	8b c7		 mov	 eax, edi
  00018	6b c0 14	 imul	 eax, 20			; 00000014H
  0001b	03 c6		 add	 eax, esi
  0001d	8d 48 ec	 lea	 ecx, DWORD PTR [eax-20]
  00020	51		 push	 ecx
  00021	50		 push	 eax
  00022	8d 4d 18	 lea	 ecx, DWORD PTR __Pred$[ebp]
  00025	e8 00 00 00 00	 call	 ??RFileListInfoSort@@QBE_NABUFileInfo@FileListWnd@@0@Z ; FileListInfoSort::operator()
  0002a	84 c0		 test	 al, al
  0002c	74 01		 je	 SHORT $LN2@Adjust_hea

; 2572 : 			--_Idx;

  0002e	4f		 dec	 edi
$LN2@Adjust_hea:

; 2573 : 		*(_First + _Hole) = _Move(*(_First + _Idx));

  0002f	8b 4d 0c	 mov	 ecx, DWORD PTR __Hole$[ebp]
  00032	8b df		 mov	 ebx, edi
  00034	6b c9 14	 imul	 ecx, 20			; 00000014H
  00037	6b db 14	 imul	 ebx, 20			; 00000014H
  0003a	03 de		 add	 ebx, esi
  0003c	03 ce		 add	 ecx, esi
  0003e	53		 push	 ebx
  0003f	89 4d 0c	 mov	 DWORD PTR tv169[ebp], ecx
  00042	ff 15 00 00 00
	00		 call	 DWORD PTR __imp_??4ioHashString@@QAEAAV0@ABV0@@Z
  00048	8b 4d 0c	 mov	 ecx, DWORD PTR tv169[ebp]
  0004b	8a 43 10	 mov	 al, BYTE PTR [ebx+16]

; 2574 : 		_Hole = _Idx;

  0004e	89 7d 0c	 mov	 DWORD PTR __Hole$[ebp], edi
  00051	88 41 10	 mov	 BYTE PTR [ecx+16], al
  00054	8d 7c 3f 02	 lea	 edi, DWORD PTR [edi+edi+2]
$LN20@Adjust_hea:

; 2567 : 	_Diff _Idx = 2 * _Hole + 2;
; 2568 : 
; 2569 : 	for (; _Idx < _Bottom; _Idx = 2 * _Idx + 2)

  00058	3b 7d 10	 cmp	 edi, DWORD PTR __Bottom$[ebp]
  0005b	7c b9		 jl	 SHORT $LL5@Adjust_hea

; 2575 : 		}
; 2576 : 
; 2577 : 	if (_Idx == _Bottom)

  0005d	75 28		 jne	 SHORT $LN1@Adjust_hea

; 2578 : 		{	// only child at bottom, move _Hole down to it
; 2579 : 		*(_First + _Hole) = _Move(*(_First + (_Bottom - 1)));

  0005f	8b 45 10	 mov	 eax, DWORD PTR __Bottom$[ebp]
  00062	8b 5d 0c	 mov	 ebx, DWORD PTR __Hole$[ebp]
  00065	6b c0 14	 imul	 eax, 20			; 00000014H
  00068	6b db 14	 imul	 ebx, 20			; 00000014H
  0006b	8d 7c 30 ec	 lea	 edi, DWORD PTR [eax+esi-20]
  0006f	03 de		 add	 ebx, esi
  00071	57		 push	 edi
  00072	8b cb		 mov	 ecx, ebx
  00074	ff 15 00 00 00
	00		 call	 DWORD PTR __imp_??4ioHashString@@QAEAAV0@ABV0@@Z
  0007a	8a 47 10	 mov	 al, BYTE PTR [edi+16]
  0007d	88 43 10	 mov	 BYTE PTR [ebx+16], al

; 2580 : 		_Hole = _Bottom - 1;

  00080	8b 45 10	 mov	 eax, DWORD PTR __Bottom$[ebp]
  00083	48		 dec	 eax
  00084	89 45 0c	 mov	 DWORD PTR __Hole$[ebp], eax
$LN1@Adjust_hea:

; 2581 : 		}
; 2582 : 	_Push_heap(_First, _Hole, _Top, _Move(_Val), _Pred);

  00087	ff 75 18	 push	 DWORD PTR __Pred$[ebp]
  0008a	ff 75 14	 push	 DWORD PTR __Val$[ebp]
  0008d	ff 75 fc	 push	 DWORD PTR __Top$[ebp]
  00090	ff 75 0c	 push	 DWORD PTR __Hole$[ebp]
  00093	56		 push	 esi
  00094	e8 00 00 00 00	 call	 ??$_Push_heap@PAUFileInfo@FileListWnd@@HU12@VFileListInfoSort@@@std@@YAXPAUFileInfo@FileListWnd@@HH$$QAU12@VFileListInfoSort@@@Z ; std::_Push_heap<FileListWnd::FileInfo *,int,FileListWnd::FileInfo,FileListInfoSort>
  00099	83 c4 14	 add	 esp, 20			; 00000014H
  0009c	5f		 pop	 edi
  0009d	5e		 pop	 esi
  0009e	5b		 pop	 ebx

; 2583 : 	}

  0009f	c9		 leave
  000a0	c3		 ret	 0
??$_Adjust_heap@PAUFileInfo@FileListWnd@@HU12@VFileListInfoSort@@@std@@YAXPAUFileInfo@FileListWnd@@HH$$QAU12@VFileListInfoSort@@@Z ENDP ; std::_Adjust_heap<FileListWnd::FileInfo *,int,FileListWnd::FileInfo,FileListInfoSort>
_TEXT	ENDS
PUBLIC	??$_Move_backward@PAUFileInfo@FileListWnd@@PAU12@@std@@YAPAUFileInfo@FileListWnd@@PAU12@00@Z ; std::_Move_backward<FileListWnd::FileInfo *,FileListWnd::FileInfo *>
; Function compile flags: /Ogsp
; File c:\program files (x86)\microsoft visual studio 10.0\vc\include\xutility
;	COMDAT ??$_Move_backward@PAUFileInfo@FileListWnd@@PAU12@@std@@YAPAUFileInfo@FileListWnd@@PAU12@00@Z
_TEXT	SEGMENT
__Cat$515105 = -4					; size = 1
__First$ = 8						; size = 4
__Last$ = 12						; size = 4
__Dest$ = 16						; size = 4
??$_Move_backward@PAUFileInfo@FileListWnd@@PAU12@@std@@YAPAUFileInfo@FileListWnd@@PAU12@00@Z PROC ; std::_Move_backward<FileListWnd::FileInfo *,FileListWnd::FileInfo *>, COMDAT

; 2638 : 	{	// move [_First, _Last) backwards to [..., _Dest), unchecked

  00000	55		 push	 ebp
  00001	8b ec		 mov	 ebp, esp
  00003	51		 push	 ecx

; 2639 : 	return (_Move_backward(_First, _Last,
; 2640 : 		_Dest, _Ptr_cat(_First, _Dest)));

  00004	ff 75 fc	 push	 DWORD PTR __Cat$515105[ebp]
  00007	ff 75 10	 push	 DWORD PTR __Dest$[ebp]
  0000a	ff 75 0c	 push	 DWORD PTR __Last$[ebp]
  0000d	ff 75 08	 push	 DWORD PTR __First$[ebp]
  00010	e8 00 00 00 00	 call	 ??$_Move_backward@PAUFileInfo@FileListWnd@@PAU12@@std@@YAPAUFileInfo@FileListWnd@@PAU12@00U_Nonscalar_ptr_iterator_tag@0@@Z ; std::_Move_backward<FileListWnd::FileInfo *,FileListWnd::FileInfo *>
  00015	83 c4 10	 add	 esp, 16			; 00000010H

; 2641 : 	}

  00018	c9		 leave
  00019	c3		 ret	 0
??$_Move_backward@PAUFileInfo@FileListWnd@@PAU12@@std@@YAPAUFileInfo@FileListWnd@@PAU12@00@Z ENDP ; std::_Move_backward<FileListWnd::FileInfo *,FileListWnd::FileInfo *>
_TEXT	ENDS
PUBLIC	??$_Pop_heap@PAUFileInfo@FileListWnd@@HU12@VFileListInfoSort@@@std@@YAXPAUFileInfo@FileListWnd@@00$$QAU12@VFileListInfoSort@@PAH@Z ; std::_Pop_heap<FileListWnd::FileInfo *,int,FileListWnd::FileInfo,FileListInfoSort>
; Function compile flags: /Ogsp
; File c:\program files (x86)\microsoft visual studio 10.0\vc\include\algorithm
;	COMDAT ??$_Pop_heap@PAUFileInfo@FileListWnd@@HU12@VFileListInfoSort@@@std@@YAXPAUFileInfo@FileListWnd@@00$$QAU12@VFileListInfoSort@@PAH@Z
_TEXT	SEGMENT
__First$ = 8						; size = 4
__Last$ = 12						; size = 4
__Dest$ = 16						; size = 4
__Val$ = 20						; size = 4
__Pred$ = 24						; size = 1
___formal$ = 28						; size = 4
??$_Pop_heap@PAUFileInfo@FileListWnd@@HU12@VFileListInfoSort@@@std@@YAXPAUFileInfo@FileListWnd@@00$$QAU12@VFileListInfoSort@@PAH@Z PROC ; std::_Pop_heap<FileListWnd::FileInfo *,int,FileListWnd::FileInfo,FileListInfoSort>, COMDAT

; 2591 : 	{	// pop *_First to *_Dest and reheap, using _Pred

  00000	55		 push	 ebp
  00001	8b ec		 mov	 ebp, esp
  00003	56		 push	 esi

; 2592 : 	*_Dest = _Move(*_First);

  00004	8b 75 08	 mov	 esi, DWORD PTR __First$[ebp]
  00007	57		 push	 edi
  00008	8b 7d 10	 mov	 edi, DWORD PTR __Dest$[ebp]
  0000b	56		 push	 esi
  0000c	8b cf		 mov	 ecx, edi
  0000e	ff 15 00 00 00
	00		 call	 DWORD PTR __imp_??4ioHashString@@QAEAAV0@ABV0@@Z

; 2593 : 	_Adjust_heap(_First, _Diff(0), _Diff(_Last - _First),
; 2594 : 		_Move(_Val), _Pred);

  00014	ff 75 18	 push	 DWORD PTR __Pred$[ebp]
  00017	8a 46 10	 mov	 al, BYTE PTR [esi+16]
  0001a	ff 75 14	 push	 DWORD PTR __Val$[ebp]
  0001d	88 47 10	 mov	 BYTE PTR [edi+16], al
  00020	8b 45 0c	 mov	 eax, DWORD PTR __Last$[ebp]
  00023	2b c6		 sub	 eax, esi
  00025	6a 14		 push	 20			; 00000014H
  00027	59		 pop	 ecx
  00028	99		 cdq
  00029	f7 f9		 idiv	 ecx
  0002b	50		 push	 eax
  0002c	6a 00		 push	 0
  0002e	56		 push	 esi
  0002f	e8 00 00 00 00	 call	 ??$_Adjust_heap@PAUFileInfo@FileListWnd@@HU12@VFileListInfoSort@@@std@@YAXPAUFileInfo@FileListWnd@@HH$$QAU12@VFileListInfoSort@@@Z ; std::_Adjust_heap<FileListWnd::FileInfo *,int,FileListWnd::FileInfo,FileListInfoSort>
  00034	83 c4 14	 add	 esp, 20			; 00000014H
  00037	5f		 pop	 edi
  00038	5e		 pop	 esi

; 2595 : 	}

  00039	5d		 pop	 ebp
  0003a	c3		 ret	 0
??$_Pop_heap@PAUFileInfo@FileListWnd@@HU12@VFileListInfoSort@@@std@@YAXPAUFileInfo@FileListWnd@@00$$QAU12@VFileListInfoSort@@PAH@Z ENDP ; std::_Pop_heap<FileListWnd::FileInfo *,int,FileListWnd::FileInfo,FileListInfoSort>
_TEXT	ENDS
PUBLIC	?StringCbCopyNA@@YGJPADIPBDI@Z			; StringCbCopyNA
; Function compile flags: /Ogsp
; File c:\program files (x86)\microsoft sdks\windows\v7.0a\include\strsafe.h
;	COMDAT ?StringCbCopyNA@@YGJPADIPBDI@Z
_TEXT	SEGMENT
_pszDest$ = 8						; size = 4
_cbDest$ = 12						; size = 4
_pszSrc$ = 16						; size = 4
_cbToCopy$ = 20						; size = 4
?StringCbCopyNA@@YGJPADIPBDI@Z PROC			; StringCbCopyNA, COMDAT

; 1505 : {

  00000	55		 push	 ebp
  00001	8b ec		 mov	 ebp, esp

; 1506 :     HRESULT hr;
; 1507 :     size_t cchDest = cbDest / sizeof(char);
; 1508 : 
; 1509 :     hr = StringValidateDestA(pszDest, cchDest, STRSAFE_MAX_CCH);

  00003	8b 4d 0c	 mov	 ecx, DWORD PTR _cbDest$[ebp]
  00006	33 c0		 xor	 eax, eax
  00008	ba 57 00 07 80	 mov	 edx, -2147024809	; 80070057H
  0000d	85 c9		 test	 ecx, ecx
  0000f	74 08		 je	 SHORT $LN6@StringCbCo
  00011	81 f9 ff ff ff
	7f		 cmp	 ecx, 2147483647		; 7fffffffH
  00017	76 02		 jbe	 SHORT $LN7@StringCbCo
$LN6@StringCbCo:
  00019	8b c2		 mov	 eax, edx
$LN7@StringCbCo:

; 1510 :     
; 1511 :     if (SUCCEEDED(hr))

  0001b	85 c0		 test	 eax, eax
  0001d	78 50		 js	 SHORT $LN1@StringCbCo

; 1512 :     {
; 1513 :         size_t cchToCopy = cbToCopy / sizeof(char);
; 1514 : 
; 1515 :         if (cchToCopy > STRSAFE_MAX_LENGTH)

  0001f	56		 push	 esi
  00020	8b 75 14	 mov	 esi, DWORD PTR _cbToCopy$[ebp]
  00023	81 fe fe ff ff
	7f		 cmp	 esi, 2147483646		; 7ffffffeH
  00029	76 0a		 jbe	 SHORT $LN2@StringCbCo

; 1516 :         {
; 1517 :             hr = STRSAFE_E_INVALID_PARAMETER;
; 1518 :             
; 1519 :             *pszDest = '\0';

  0002b	8b 4d 08	 mov	 ecx, DWORD PTR _pszDest$[ebp]
  0002e	8b c2		 mov	 eax, edx
  00030	c6 01 00	 mov	 BYTE PTR [ecx], 0

; 1520 :         }
; 1521 :         else

  00033	eb 39		 jmp	 SHORT $LN19@StringCbCo
$LN2@StringCbCo:

; 1522 :         {
; 1523 :             hr = StringCopyWorkerA(pszDest,
; 1524 :                                    cchDest,
; 1525 :                                    NULL,
; 1526 :                                    pszSrc,
; 1527 :                                    cchToCopy);

  00035	8b 45 08	 mov	 eax, DWORD PTR _pszDest$[ebp]
  00038	53		 push	 ebx
  00039	33 db		 xor	 ebx, ebx
  0003b	57		 push	 edi
  0003c	8b f9		 mov	 edi, ecx
  0003e	85 c9		 test	 ecx, ecx
  00040	74 1f		 je	 SHORT $LN18@StringCbCo
  00042	2b f1		 sub	 esi, ecx
  00044	8b 4d 10	 mov	 ecx, DWORD PTR _pszSrc$[ebp]
  00047	2b c8		 sub	 ecx, eax
$LL13@StringCbCo:
  00049	8d 14 3e	 lea	 edx, DWORD PTR [esi+edi]
  0004c	85 d2		 test	 edx, edx
  0004e	74 0d		 je	 SHORT $LN12@StringCbCo
  00050	8a 14 01	 mov	 dl, BYTE PTR [ecx+eax]
  00053	84 d2		 test	 dl, dl
  00055	74 06		 je	 SHORT $LN12@StringCbCo
  00057	88 10		 mov	 BYTE PTR [eax], dl
  00059	40		 inc	 eax
  0005a	4f		 dec	 edi
  0005b	75 ec		 jne	 SHORT $LL13@StringCbCo
$LN12@StringCbCo:
  0005d	85 ff		 test	 edi, edi
  0005f	75 06		 jne	 SHORT $LN11@StringCbCo
$LN18@StringCbCo:
  00061	48		 dec	 eax
  00062	bb 7a 00 07 80	 mov	 ebx, -2147024774	; 8007007aH
$LN11@StringCbCo:
  00067	c6 00 00	 mov	 BYTE PTR [eax], 0
  0006a	5f		 pop	 edi
  0006b	8b c3		 mov	 eax, ebx
  0006d	5b		 pop	 ebx
$LN19@StringCbCo:
  0006e	5e		 pop	 esi
$LN1@StringCbCo:

; 1528 :         }
; 1529 :     }
; 1530 : 
; 1531 :     return hr;
; 1532 : }

  0006f	5d		 pop	 ebp
  00070	c2 10 00	 ret	 16			; 00000010H
?StringCbCopyNA@@YGJPADIPBDI@Z ENDP			; StringCbCopyNA
_TEXT	ENDS
PUBLIC	?StringCbPrintfA@@YAJPADIPBDZZ			; StringCbPrintfA
; Function compile flags: /Ogsp
;	COMDAT ?StringCbPrintfA@@YAJPADIPBDZZ
_TEXT	SEGMENT
_pszDest$ = 8						; size = 4
_cbDest$ = 12						; size = 4
_pszFormat$ = 16					; size = 4
?StringCbPrintfA@@YAJPADIPBDZZ PROC			; StringCbPrintfA, COMDAT

; 4767 : {

  00000	55		 push	 ebp
  00001	8b ec		 mov	 ebp, esp

; 4768 :     HRESULT hr;
; 4769 :     size_t cchDest = cbDest / sizeof(char);
; 4770 : 
; 4771 :     hr = StringValidateDestA(pszDest, cchDest, STRSAFE_MAX_CCH);

  00003	8b 4d 0c	 mov	 ecx, DWORD PTR _cbDest$[ebp]
  00006	33 c0		 xor	 eax, eax
  00008	85 c9		 test	 ecx, ecx
  0000a	74 08		 je	 SHORT $LN4@StringCbPr
  0000c	81 f9 ff ff ff
	7f		 cmp	 ecx, 2147483647		; 7fffffffH
  00012	76 05		 jbe	 SHORT $LN5@StringCbPr
$LN4@StringCbPr:
  00014	b8 57 00 07 80	 mov	 eax, -2147024809	; 80070057H
$LN5@StringCbPr:

; 4772 :     
; 4773 :     if (SUCCEEDED(hr))

  00019	85 c0		 test	 eax, eax
  0001b	78 39		 js	 SHORT $LN1@StringCbPr

; 4774 :     {
; 4775 :         va_list argList;
; 4776 : 
; 4777 :         va_start(argList, pszFormat);
; 4778 : 
; 4779 :         hr = StringVPrintfWorkerA(pszDest,
; 4780 :                                   cchDest,
; 4781 :                                   NULL,
; 4782 :                                   pszFormat,
; 4783 :                                   argList);

  0001d	53		 push	 ebx
  0001e	56		 push	 esi
  0001f	57		 push	 edi
  00020	8b 7d 08	 mov	 edi, DWORD PTR _pszDest$[ebp]
  00023	8d 45 14	 lea	 eax, DWORD PTR _pszFormat$[ebp+4]
  00026	50		 push	 eax
  00027	ff 75 10	 push	 DWORD PTR _pszFormat$[ebp]
  0002a	8d 71 ff	 lea	 esi, DWORD PTR [ecx-1]
  0002d	56		 push	 esi
  0002e	57		 push	 edi
  0002f	33 db		 xor	 ebx, ebx
  00031	ff 15 00 00 00
	00		 call	 DWORD PTR __imp___vsnprintf
  00037	83 c4 10	 add	 esp, 16			; 00000010H
  0003a	85 c0		 test	 eax, eax
  0003c	78 0b		 js	 SHORT $LN12@StringCbPr
  0003e	3b c6		 cmp	 eax, esi
  00040	77 07		 ja	 SHORT $LN12@StringCbPr
  00042	75 0d		 jne	 SHORT $LN9@StringCbPr
  00044	88 1c 3e	 mov	 BYTE PTR [esi+edi], bl
  00047	eb 08		 jmp	 SHORT $LN9@StringCbPr
$LN12@StringCbPr:
  00049	88 1c 3e	 mov	 BYTE PTR [esi+edi], bl
  0004c	bb 7a 00 07 80	 mov	 ebx, -2147024774	; 8007007aH
$LN9@StringCbPr:
  00051	5f		 pop	 edi
  00052	5e		 pop	 esi
  00053	8b c3		 mov	 eax, ebx
  00055	5b		 pop	 ebx
$LN1@StringCbPr:

; 4784 : 
; 4785 :         va_end(argList);
; 4786 :     }
; 4787 : 
; 4788 :     return hr;
; 4789 : }

  00056	5d		 pop	 ebp
  00057	c3		 ret	 0
?StringCbPrintfA@@YAJPADIPBDZZ ENDP			; StringCbPrintfA
_TEXT	ENDS
PUBLIC	??0?$_Vector_val@VioHashString@@V?$allocator@VioHashString@@@std@@@std@@QAE@V?$allocator@VioHashString@@@1@@Z ; std::_Vector_val<ioHashString,std::allocator<ioHashString> >::_Vector_val<ioHashString,std::allocator<ioHashString> >
; Function compile flags: /Ogsp
; File c:\program files (x86)\microsoft visual studio 10.0\vc\include\vector
;	COMDAT ??0?$_Vector_val@VioHashString@@V?$allocator@VioHashString@@@std@@@std@@QAE@V?$allocator@VioHashString@@@1@@Z
_TEXT	SEGMENT
__Al$ = 8						; size = 1
??0?$_Vector_val@VioHashString@@V?$allocator@VioHashString@@@std@@@std@@QAE@V?$allocator@VioHashString@@@1@@Z PROC ; std::_Vector_val<ioHashString,std::allocator<ioHashString> >::_Vector_val<ioHashString,std::allocator<ioHashString> >, COMDAT
; _this$ = ecx

; 426  : 		{	// construct allocator from _Al

  00000	8b c1		 mov	 eax, ecx

; 427  : 		_Myfirst = 0;

  00002	33 c9		 xor	 ecx, ecx
  00004	89 08		 mov	 DWORD PTR [eax], ecx

; 428  : 		_Mylast = 0;

  00006	89 48 04	 mov	 DWORD PTR [eax+4], ecx

; 429  : 		_Myend = 0;

  00009	89 48 08	 mov	 DWORD PTR [eax+8], ecx

; 430  : 		}

  0000c	c2 04 00	 ret	 4
??0?$_Vector_val@VioHashString@@V?$allocator@VioHashString@@@std@@@std@@QAE@V?$allocator@VioHashString@@@1@@Z ENDP ; std::_Vector_val<ioHashString,std::allocator<ioHashString> >::_Vector_val<ioHashString,std::allocator<ioHashString> >
_TEXT	ENDS
PUBLIC	?max_size@?$vector@VioHashString@@V?$allocator@VioHashString@@@std@@@std@@QBEIXZ ; std::vector<ioHashString,std::allocator<ioHashString> >::max_size
; Function compile flags: /Ogsp
;	COMDAT ?max_size@?$vector@VioHashString@@V?$allocator@VioHashString@@@std@@@std@@QBEIXZ
_TEXT	SEGMENT
?max_size@?$vector@VioHashString@@V?$allocator@VioHashString@@@std@@@std@@QBEIXZ PROC ; std::vector<ioHashString,std::allocator<ioHashString> >::max_size, COMDAT
; _this$ = ecx

; 884  : 		return (this->_Alval.max_size());

  00000	b8 ff ff ff 0f	 mov	 eax, 268435455		; 0fffffffH

; 885  : 		}

  00005	c3		 ret	 0
?max_size@?$vector@VioHashString@@V?$allocator@VioHashString@@@std@@@std@@QBEIXZ ENDP ; std::vector<ioHashString,std::allocator<ioHashString> >::max_size
_TEXT	ENDS
PUBLIC	?allocate@?$allocator@VioHashString@@@std@@QAEPAVioHashString@@I@Z ; std::allocator<ioHashString>::allocate
; Function compile flags: /Ogsp
; File c:\program files (x86)\microsoft visual studio 10.0\vc\include\xmemory
;	COMDAT ?allocate@?$allocator@VioHashString@@@std@@QAEPAVioHashString@@I@Z
_TEXT	SEGMENT
__Count$ = 8						; size = 4
?allocate@?$allocator@VioHashString@@@std@@QAEPAVioHashString@@I@Z PROC ; std::allocator<ioHashString>::allocate, COMDAT
; _this$ = ecx

; 186  : 		{	// allocate array of _Count elements

  00000	55		 push	 ebp
  00001	8b ec		 mov	 ebp, esp

; 187  : 		return (_Allocate(_Count, (pointer)0));

  00003	6a 00		 push	 0
  00005	ff 75 08	 push	 DWORD PTR __Count$[ebp]
  00008	e8 00 00 00 00	 call	 ??$_Allocate@VioHashString@@@std@@YAPAVioHashString@@IPAV1@@Z ; std::_Allocate<ioHashString>
  0000d	59		 pop	 ecx
  0000e	59		 pop	 ecx

; 188  : 		}

  0000f	5d		 pop	 ebp
  00010	c2 04 00	 ret	 4
?allocate@?$allocator@VioHashString@@@std@@QAEPAVioHashString@@I@Z ENDP ; std::allocator<ioHashString>::allocate
_TEXT	ENDS
PUBLIC	??$_Destroy@VioHashString@@@std@@YAXPAVioHashString@@@Z ; std::_Destroy<ioHashString>
; Function compile flags: /Ogsp
;	COMDAT ??$_Destroy@VioHashString@@@std@@YAXPAVioHashString@@@Z
_TEXT	SEGMENT
__Ptr$ = 8						; size = 4
??$_Destroy@VioHashString@@@std@@YAXPAVioHashString@@@Z PROC ; std::_Destroy<ioHashString>, COMDAT

; 62   : 	{	// destroy object at _Ptr

  00000	55		 push	 ebp
  00001	8b ec		 mov	 ebp, esp

; 63   : 	_Ptr->~_Ty();

  00003	8b 4d 08	 mov	 ecx, DWORD PTR __Ptr$[ebp]

; 64   : 	}

  00006	5d		 pop	 ebp

; 63   : 	_Ptr->~_Ty();

  00007	ff 25 00 00 00
	00		 jmp	 DWORD PTR __imp_??1ioHashString@@QAE@XZ
??$_Destroy@VioHashString@@@std@@YAXPAVioHashString@@@Z ENDP ; std::_Destroy<ioHashString>
_TEXT	ENDS
PUBLIC	??_C@_04KGLMKACB@Push?$AA@			; `string'
PUBLIC	??_C@_04PODPCKIF@Over?$AA@			; `string'
PUBLIC	??_C@_06EFAGIKOH@Normal?$AA@			; `string'
PUBLIC	??_C@_04LIFAFMCE@?$FL?$CFs?$FN?$AA@		; `string'
PUBLIC	_szFileName$GSCopy$
PUBLIC	?SetInfo@FileListItem@@QAEXPBD_N1@Z		; FileListItem::SetInfo
EXTRN	__imp_?SetText@ioUITitle@@QAEXPBD0@Z:PROC
EXTRN	__imp_?SetColor@ioUITitle@@QAEXABVioHashString@@KK@Z:PROC
EXTRN	__imp_??0ioHashString@@QAE@PBD@Z:PROC
EXTRN	__EH_epilog3_GS:PROC
EXTRN	__EH_prolog3_GS:PROC
EXTRN	_memset:PROC
;	COMDAT ??_C@_04KGLMKACB@Push?$AA@
; File d:\lost saga for developer\youtube\tutorial\source\src\lsclient\gui\filelistwnd.cpp
CONST	SEGMENT
??_C@_04KGLMKACB@Push?$AA@ DB 'Push', 00H		; `string'
CONST	ENDS
;	COMDAT ??_C@_04PODPCKIF@Over?$AA@
CONST	SEGMENT
??_C@_04PODPCKIF@Over?$AA@ DB 'Over', 00H		; `string'
CONST	ENDS
;	COMDAT ??_C@_06EFAGIKOH@Normal?$AA@
CONST	SEGMENT
??_C@_06EFAGIKOH@Normal?$AA@ DB 'Normal', 00H		; `string'
CONST	ENDS
;	COMDAT ??_C@_04LIFAFMCE@?$FL?$CFs?$FN?$AA@
CONST	SEGMENT
??_C@_04LIFAFMCE@?$FL?$CFs?$FN?$AA@ DB '[%s]', 00H	; `string'
CONST	ENDS
;	COMDAT xdata$x
xdata$x	SEGMENT
__ehfuncinfo$?SetInfo@FileListItem@@QAEXPBD_N1@Z DD 019930522H
	DD	06H
	DD	FLAT:__unwindtable$?SetInfo@FileListItem@@QAEXPBD_N1@Z
	DD	2 DUP(00H)
	DD	2 DUP(00H)
	DD	00H
	DD	01H
__unwindtable$?SetInfo@FileListItem@@QAEXPBD_N1@Z DD 0ffffffffH
	DD	FLAT:__unwindfunclet$?SetInfo@FileListItem@@QAEXPBD_N1@Z$0
	DD	0ffffffffH
	DD	FLAT:__unwindfunclet$?SetInfo@FileListItem@@QAEXPBD_N1@Z$1
	DD	0ffffffffH
	DD	FLAT:__unwindfunclet$?SetInfo@FileListItem@@QAEXPBD_N1@Z$2
	DD	0ffffffffH
	DD	FLAT:__unwindfunclet$?SetInfo@FileListItem@@QAEXPBD_N1@Z$3
	DD	0ffffffffH
	DD	FLAT:__unwindfunclet$?SetInfo@FileListItem@@QAEXPBD_N1@Z$4
	DD	0ffffffffH
	DD	FLAT:__unwindfunclet$?SetInfo@FileListItem@@QAEXPBD_N1@Z$5
; Function compile flags: /Ogsp
xdata$x	ENDS
;	COMDAT ?SetInfo@FileListItem@@QAEXPBD_N1@Z
_TEXT	SEGMENT
$T515199 = -320						; size = 16
_pWnd$ = -304						; size = 4
_szFileName$GSCopy$ = -300				; size = 4
$T515198 = -296						; size = 16
$T515197 = -296						; size = 16
$T515196 = -296						; size = 16
$T515195 = -296						; size = 16
$T515194 = -296						; size = 16
_pTitle$509391 = -280					; size = 4
_pTitle$509382 = -280					; size = 4
_szFolderName$509380 = -276				; size = 260
__$EHRec$ = -12						; size = 12
_szFileName$ = 8					; size = 4
_bFolder$ = 12						; size = 1
_bShowPlayBtn$ = 16					; size = 1
?SetInfo@FileListItem@@QAEXPBD_N1@Z PROC		; FileListItem::SetInfo, COMDAT
; _this$ = ecx

; 77   : {

  00000	68 34 01 00 00	 push	 308			; 00000134H
  00005	b8 00 00 00 00	 mov	 eax, __ehhandler$?SetInfo@FileListItem@@QAEXPBD_N1@Z
  0000a	e8 00 00 00 00	 call	 __EH_prolog3_GS

; 78   : 	m_bFolder = bFolder;

  0000f	8a 45 0c	 mov	 al, BYTE PTR _bFolder$[ebp]
  00012	8b 7d 08	 mov	 edi, DWORD PTR _szFileName$[ebp]
  00015	8b f1		 mov	 esi, ecx

; 79   : 
; 80   : 	ioWnd *pWnd = FindChildWnd( ID_FILENAME_BTN );

  00017	6a 01		 push	 1
  00019	89 bd d4 fe ff
	ff		 mov	 DWORD PTR _szFileName$GSCopy$[ebp], edi
  0001f	88 86 60 01 00
	00		 mov	 BYTE PTR [esi+352], al
  00025	ff 15 00 00 00
	00		 call	 DWORD PTR __imp_?FindChildWnd@ioWnd@@QAEPAV1@K@Z
  0002b	8b d8		 mov	 ebx, eax
  0002d	89 9d d0 fe ff
	ff		 mov	 DWORD PTR _pWnd$[ebp], ebx

; 81   : 	if( !pWnd )

  00033	85 db		 test	 ebx, ebx
  00035	0f 84 24 02 00
	00		 je	 $LN1@SetInfo

; 82   : 		return;
; 83   : 	
; 84   : 	if( m_bFolder )

  0003b	80 be 60 01 00
	00 00		 cmp	 BYTE PTR [esi+352], 0
  00042	0f 84 0e 01 00
	00		 je	 $LN6@SetInfo

; 85   : 	{
; 86   : 		char szFolderName[MAX_PATH]="";

  00048	68 03 01 00 00	 push	 259			; 00000103H
  0004d	8d 85 ed fe ff
	ff		 lea	 eax, DWORD PTR _szFolderName$509380[ebp+1]
  00053	6a 00		 push	 0
  00055	50		 push	 eax
  00056	c6 85 ec fe ff
	ff 00		 mov	 BYTE PTR _szFolderName$509380[ebp], 0
  0005d	e8 00 00 00 00	 call	 _memset

; 87   : 		StringCbPrintf( szFolderName, sizeof( szFolderName ), "[%s]", szFileName );

  00062	57		 push	 edi
  00063	68 00 00 00 00	 push	 OFFSET ??_C@_04LIFAFMCE@?$FL?$CFs?$FN?$AA@
  00068	8d 85 ec fe ff
	ff		 lea	 eax, DWORD PTR _szFolderName$509380[ebp]
  0006e	68 04 01 00 00	 push	 260			; 00000104H
  00073	50		 push	 eax
  00074	e8 00 00 00 00	 call	 ?StringCbPrintfA@@YAJPADIPBDZZ ; StringCbPrintfA
  00079	83 c4 1c	 add	 esp, 28			; 0000001cH

; 88   : 
; 89   : 		ioUITitle *pTitle = pWnd->GetTitle();

  0007c	8b cb		 mov	 ecx, ebx
  0007e	ff 15 00 00 00
	00		 call	 DWORD PTR __imp_?GetTitle@ioWnd@@QBEPAVioUITitle@@XZ
  00084	89 85 e8 fe ff
	ff		 mov	 DWORD PTR _pTitle$509382[ebp], eax

; 90   : 		if( pTitle )

  0008a	85 c0		 test	 eax, eax
  0008c	0f 84 ad 01 00
	00		 je	 $LN3@SetInfo

; 91   : 		{
; 92   : 			pTitle->SetColor( "Normal", 0xFF3A3A3A, 0xFF000000 );

  00092	8b 3d 00 00 00
	00		 mov	 edi, DWORD PTR __imp_??0ioHashString@@QAE@PBD@Z
  00098	68 00 00 00 00	 push	 OFFSET ??_C@_06EFAGIKOH@Normal?$AA@
  0009d	8d 8d d8 fe ff
	ff		 lea	 ecx, DWORD PTR $T515194[ebp]
  000a3	ff d7		 call	 edi
  000a5	8b 8d e8 fe ff
	ff		 mov	 ecx, DWORD PTR _pTitle$509382[ebp]
  000ab	8b 1d 00 00 00
	00		 mov	 ebx, DWORD PTR __imp_?SetColor@ioUITitle@@QAEXABVioHashString@@KK@Z
  000b1	83 65 fc 00	 and	 DWORD PTR __$EHRec$[ebp+8], 0
  000b5	be 00 00 00 ff	 mov	 esi, -16777216		; ff000000H
  000ba	56		 push	 esi
  000bb	68 3a 3a 3a ff	 push	 -12961222		; ff3a3a3aH
  000c0	8d 85 d8 fe ff
	ff		 lea	 eax, DWORD PTR $T515194[ebp]
  000c6	50		 push	 eax
  000c7	ff d3		 call	 ebx
  000c9	83 4d fc ff	 or	 DWORD PTR __$EHRec$[ebp+8], -1
  000cd	8d 8d d8 fe ff
	ff		 lea	 ecx, DWORD PTR $T515194[ebp]
  000d3	ff 15 00 00 00
	00		 call	 DWORD PTR __imp_??1ioHashString@@QAE@XZ

; 93   : 			pTitle->SetColor( "Over", 0xFFFFFFFF, 0xFF000000 );

  000d9	68 00 00 00 00	 push	 OFFSET ??_C@_04PODPCKIF@Over?$AA@
  000de	8d 8d d8 fe ff
	ff		 lea	 ecx, DWORD PTR $T515195[ebp]
  000e4	ff d7		 call	 edi
  000e6	8b 8d e8 fe ff
	ff		 mov	 ecx, DWORD PTR _pTitle$509382[ebp]
  000ec	56		 push	 esi
  000ed	6a ff		 push	 -1
  000ef	8d 85 d8 fe ff
	ff		 lea	 eax, DWORD PTR $T515195[ebp]
  000f5	50		 push	 eax
  000f6	c7 45 fc 01 00
	00 00		 mov	 DWORD PTR __$EHRec$[ebp+8], 1
  000fd	ff d3		 call	 ebx
  000ff	83 4d fc ff	 or	 DWORD PTR __$EHRec$[ebp+8], -1
  00103	8d 8d d8 fe ff
	ff		 lea	 ecx, DWORD PTR $T515195[ebp]
  00109	ff 15 00 00 00
	00		 call	 DWORD PTR __imp_??1ioHashString@@QAE@XZ

; 94   : 			pTitle->SetColor( "Push", 0xFFFFFFFF, 0xFF000000 );

  0010f	68 00 00 00 00	 push	 OFFSET ??_C@_04KGLMKACB@Push?$AA@
  00114	8d 8d d8 fe ff
	ff		 lea	 ecx, DWORD PTR $T515196[ebp]
  0011a	ff d7		 call	 edi
  0011c	8b 8d e8 fe ff
	ff		 mov	 ecx, DWORD PTR _pTitle$509382[ebp]
  00122	56		 push	 esi
  00123	6a ff		 push	 -1
  00125	8d 85 d8 fe ff
	ff		 lea	 eax, DWORD PTR $T515196[ebp]
  0012b	50		 push	 eax
  0012c	c7 45 fc 02 00
	00 00		 mov	 DWORD PTR __$EHRec$[ebp+8], 2
  00133	ff d3		 call	 ebx
  00135	83 4d fc ff	 or	 DWORD PTR __$EHRec$[ebp+8], -1
  00139	8d 8d d8 fe ff
	ff		 lea	 ecx, DWORD PTR $T515196[ebp]
  0013f	ff 15 00 00 00
	00		 call	 DWORD PTR __imp_??1ioHashString@@QAE@XZ

; 95   : 			pTitle->SetText( szFolderName, "" );

  00145	68 00 00 00 00	 push	 OFFSET ??_C@_00CNPNBAHC@?$AA@
  0014a	8d 85 ec fe ff
	ff		 lea	 eax, DWORD PTR _szFolderName$509380[ebp]
  00150	50		 push	 eax

; 96   : 		}
; 97   : 		
; 98   : 	}
; 99   : 	else

  00151	e9 d7 00 00 00	 jmp	 $LN19@SetInfo
$LN6@SetInfo:

; 100  : 	{
; 101  : 		ioUITitle *pTitle = pWnd->GetTitle();

  00156	8b cb		 mov	 ecx, ebx
  00158	ff 15 00 00 00
	00		 call	 DWORD PTR __imp_?GetTitle@ioWnd@@QBEPAVioUITitle@@XZ
  0015e	89 85 e8 fe ff
	ff		 mov	 DWORD PTR _pTitle$509391[ebp], eax

; 102  : 		if( pTitle )

  00164	85 c0		 test	 eax, eax
  00166	0f 84 d3 00 00
	00		 je	 $LN3@SetInfo

; 103  : 		{
; 104  : 			pTitle->SetColor( "Normal", 0xFFCE4E00, 0xFF000000 );

  0016c	8b 3d 00 00 00
	00		 mov	 edi, DWORD PTR __imp_??0ioHashString@@QAE@PBD@Z
  00172	68 00 00 00 00	 push	 OFFSET ??_C@_06EFAGIKOH@Normal?$AA@
  00177	8d 8d d8 fe ff
	ff		 lea	 ecx, DWORD PTR $T515197[ebp]
  0017d	ff d7		 call	 edi
  0017f	8b 8d e8 fe ff
	ff		 mov	 ecx, DWORD PTR _pTitle$509391[ebp]
  00185	8b 1d 00 00 00
	00		 mov	 ebx, DWORD PTR __imp_?SetColor@ioUITitle@@QAEXABVioHashString@@KK@Z
  0018b	be 00 00 00 ff	 mov	 esi, -16777216		; ff000000H
  00190	56		 push	 esi
  00191	68 00 4e ce ff	 push	 -3256832		; ffce4e00H
  00196	8d 85 d8 fe ff
	ff		 lea	 eax, DWORD PTR $T515197[ebp]
  0019c	50		 push	 eax
  0019d	c7 45 fc 03 00
	00 00		 mov	 DWORD PTR __$EHRec$[ebp+8], 3
  001a4	ff d3		 call	 ebx
  001a6	83 4d fc ff	 or	 DWORD PTR __$EHRec$[ebp+8], -1
  001aa	8d 8d d8 fe ff
	ff		 lea	 ecx, DWORD PTR $T515197[ebp]
  001b0	ff 15 00 00 00
	00		 call	 DWORD PTR __imp_??1ioHashString@@QAE@XZ

; 105  : 			pTitle->SetColor( "Over", 0xFFFFFFFF, 0xFF000000 );

  001b6	68 00 00 00 00	 push	 OFFSET ??_C@_04PODPCKIF@Over?$AA@
  001bb	8d 8d d8 fe ff
	ff		 lea	 ecx, DWORD PTR $T515198[ebp]
  001c1	ff d7		 call	 edi
  001c3	8b 8d e8 fe ff
	ff		 mov	 ecx, DWORD PTR _pTitle$509391[ebp]
  001c9	56		 push	 esi
  001ca	6a ff		 push	 -1
  001cc	8d 85 d8 fe ff
	ff		 lea	 eax, DWORD PTR $T515198[ebp]
  001d2	50		 push	 eax
  001d3	c7 45 fc 04 00
	00 00		 mov	 DWORD PTR __$EHRec$[ebp+8], 4
  001da	ff d3		 call	 ebx
  001dc	83 4d fc ff	 or	 DWORD PTR __$EHRec$[ebp+8], -1
  001e0	8d 8d d8 fe ff
	ff		 lea	 ecx, DWORD PTR $T515198[ebp]
  001e6	ff 15 00 00 00
	00		 call	 DWORD PTR __imp_??1ioHashString@@QAE@XZ

; 106  : 			pTitle->SetColor( "Push", 0xFFFFFFFF, 0xFF000000 );

  001ec	68 00 00 00 00	 push	 OFFSET ??_C@_04KGLMKACB@Push?$AA@
  001f1	8d 8d c0 fe ff
	ff		 lea	 ecx, DWORD PTR $T515199[ebp]
  001f7	ff d7		 call	 edi
  001f9	8b 8d e8 fe ff
	ff		 mov	 ecx, DWORD PTR _pTitle$509391[ebp]
  001ff	56		 push	 esi
  00200	6a ff		 push	 -1
  00202	8d 85 c0 fe ff
	ff		 lea	 eax, DWORD PTR $T515199[ebp]
  00208	50		 push	 eax
  00209	c7 45 fc 05 00
	00 00		 mov	 DWORD PTR __$EHRec$[ebp+8], 5
  00210	ff d3		 call	 ebx
  00212	83 4d fc ff	 or	 DWORD PTR __$EHRec$[ebp+8], -1
  00216	8d 8d c0 fe ff
	ff		 lea	 ecx, DWORD PTR $T515199[ebp]
  0021c	ff 15 00 00 00
	00		 call	 DWORD PTR __imp_??1ioHashString@@QAE@XZ

; 107  : 			pTitle->SetText( szFileName, "" );

  00222	68 00 00 00 00	 push	 OFFSET ??_C@_00CNPNBAHC@?$AA@
  00227	ff b5 d4 fe ff
	ff		 push	 DWORD PTR _szFileName$GSCopy$[ebp]
$LN19@SetInfo:
  0022d	8b 8d e8 fe ff
	ff		 mov	 ecx, DWORD PTR _pTitle$509391[ebp]
  00233	ff 15 00 00 00
	00		 call	 DWORD PTR __imp_?SetText@ioUITitle@@QAEXPBD0@Z
  00239	8b 9d d0 fe ff
	ff		 mov	 ebx, DWORD PTR _pWnd$[ebp]
$LN3@SetInfo:

; 108  : 		}
; 109  : 	}
; 110  : 
; 111  : 	if( strcmp( szFileName, "") == 0 )

  0023f	8b b5 d4 fe ff
	ff		 mov	 esi, DWORD PTR _szFileName$GSCopy$[ebp]
  00245	33 c9		 xor	 ecx, ecx
  00247	41		 inc	 ecx
  00248	33 c0		 xor	 eax, eax

; 112  : 		pWnd->SetInActive();

  0024a	8b 03		 mov	 eax, DWORD PTR [ebx]
  0024c	bf 00 00 00 00	 mov	 edi, OFFSET ??_C@_00CNPNBAHC@?$AA@
  00251	f3 a6		 repe cmpsb
  00253	8b cb		 mov	 ecx, ebx
  00255	75 05		 jne	 SHORT $LN2@SetInfo
  00257	ff 50 24	 call	 DWORD PTR [eax+36]

; 113  : 	else

  0025a	eb 03		 jmp	 SHORT $LN1@SetInfo
$LN2@SetInfo:

; 114  : 		pWnd->SetActive();

  0025c	ff 50 20	 call	 DWORD PTR [eax+32]
$LN1@SetInfo:

; 115  : }

  0025f	e8 00 00 00 00	 call	 __EH_epilog3_GS
  00264	c2 0c 00	 ret	 12			; 0000000cH
_TEXT	ENDS
;	COMDAT text$x
text$x	SEGMENT
__unwindfunclet$?SetInfo@FileListItem@@QAEXPBD_N1@Z$0:
  00000	8d 8d d8 fe ff
	ff		 lea	 ecx, DWORD PTR $T515194[ebp]
  00006	ff 25 00 00 00
	00		 jmp	 DWORD PTR __imp_??1ioHashString@@QAE@XZ
__unwindfunclet$?SetInfo@FileListItem@@QAEXPBD_N1@Z$1:
  0000c	8d 8d d8 fe ff
	ff		 lea	 ecx, DWORD PTR $T515195[ebp]
  00012	ff 25 00 00 00
	00		 jmp	 DWORD PTR __imp_??1ioHashString@@QAE@XZ
__unwindfunclet$?SetInfo@FileListItem@@QAEXPBD_N1@Z$2:
  00018	8d 8d d8 fe ff
	ff		 lea	 ecx, DWORD PTR $T515196[ebp]
  0001e	ff 25 00 00 00
	00		 jmp	 DWORD PTR __imp_??1ioHashString@@QAE@XZ
__unwindfunclet$?SetInfo@FileListItem@@QAEXPBD_N1@Z$3:
  00024	8d 8d d8 fe ff
	ff		 lea	 ecx, DWORD PTR $T515197[ebp]
  0002a	ff 25 00 00 00
	00		 jmp	 DWORD PTR __imp_??1ioHashString@@QAE@XZ
__unwindfunclet$?SetInfo@FileListItem@@QAEXPBD_N1@Z$4:
  00030	8d 8d d8 fe ff
	ff		 lea	 ecx, DWORD PTR $T515198[ebp]
  00036	ff 25 00 00 00
	00		 jmp	 DWORD PTR __imp_??1ioHashString@@QAE@XZ
__unwindfunclet$?SetInfo@FileListItem@@QAEXPBD_N1@Z$5:
  0003c	8d 8d c0 fe ff
	ff		 lea	 ecx, DWORD PTR $T515199[ebp]
  00042	ff 25 00 00 00
	00		 jmp	 DWORD PTR __imp_??1ioHashString@@QAE@XZ
__ehhandler$?SetInfo@FileListItem@@QAEXPBD_N1@Z:
  00048	8b 54 24 08	 mov	 edx, DWORD PTR [esp+8]
  0004c	8d 42 0c	 lea	 eax, DWORD PTR [edx+12]
  0004f	8b 8a bc fe ff
	ff		 mov	 ecx, DWORD PTR [edx-324]
  00055	33 c8		 xor	 ecx, eax
  00057	e8 00 00 00 00	 call	 @__security_check_cookie@4
  0005c	8b 4a fc	 mov	 ecx, DWORD PTR [edx-4]
  0005f	33 c8		 xor	 ecx, eax
  00061	e8 00 00 00 00	 call	 @__security_check_cookie@4
  00066	b8 00 00 00 00	 mov	 eax, OFFSET __ehfuncinfo$?SetInfo@FileListItem@@QAEXPBD_N1@Z
  0006b	e9 00 00 00 00	 jmp	 ___CxxFrameHandler3
text$x	ENDS
?SetInfo@FileListItem@@QAEXPBD_N1@Z ENDP		; FileListItem::SetInfo
PUBLIC	_xElement$GSCopy$
PUBLIC	__$ArrayPad$
PUBLIC	?ParseExtraInfo@FileDriveListWnd@@UAEXAAVioXMLElement@@@Z ; FileDriveListWnd::ParseExtraInfo
; Function compile flags: /Ogsp
;	COMDAT ?ParseExtraInfo@FileDriveListWnd@@UAEXAAVioXMLElement@@@Z
_TEXT	SEGMENT
_xElement$GSCopy$ = -24					; size = 4
__k$515875 = -20					; size = 9
__k$515821 = -20					; size = 10
__k$515446 = -20					; size = 10
__k$515250 = -20					; size = 9
__k$515612 = -16					; size = 6
__k$515487 = -16					; size = 6
__$ArrayPad$ = -4					; size = 4
_xElement$ = 8						; size = 4
?ParseExtraInfo@FileDriveListWnd@@UAEXAAVioXMLElement@@@Z PROC ; FileDriveListWnd::ParseExtraInfo, COMDAT
; _this$ = ecx

; 154  : {

  00000	55		 push	 ebp
  00001	8b ec		 mov	 ebp, esp
  00003	83 ec 18	 sub	 esp, 24			; 00000018H
  00006	a1 00 00 00 00	 mov	 eax, DWORD PTR ___security_cookie
  0000b	33 c5		 xor	 eax, ebp
  0000d	89 45 fc	 mov	 DWORD PTR __$ArrayPad$[ebp], eax
  00010	53		 push	 ebx
  00011	56		 push	 esi
  00012	57		 push	 edi
  00013	8b f9		 mov	 edi, ecx
  00015	8b 4d 08	 mov	 ecx, DWORD PTR _xElement$[ebp]

; 155  : 	m_iAddWidth	= xElement.GetIntAttribute_e( "AddWidth" );

  00018	6a 02		 push	 2

; 160  : 	m_iCutWidth = xElement.GetIntAttribute_e( "CutWidth" );

  0001a	89 4d e8	 mov	 DWORD PTR _xElement$GSCopy$[ebp], ecx
  0001d	c7 45 ec ac 88
	8f bd		 mov	 DWORD PTR __k$515250[ebp], -1114666836 ; bd8f88acH
  00024	c7 45 f0 84 88
	9f 82		 mov	 DWORD PTR __k$515250[ebp+4], -2103474044 ; 829f8884H
  0002b	8d 45 ec	 lea	 eax, DWORD PTR __k$515250[ebp]
  0002e	c6 45 f4 00	 mov	 BYTE PTR __k$515250[ebp+8], 0
  00032	5a		 pop	 edx
  00033	bb ed ec eb ea	 mov	 ebx, -353637139		; eaebecedH
$LL106@ParseExtra:

; 155  : 	m_iAddWidth	= xElement.GetIntAttribute_e( "AddWidth" );

  00038	31 18		 xor	 DWORD PTR [eax], ebx
  0003a	83 c0 04	 add	 eax, 4
  0003d	4a		 dec	 edx
  0003e	75 f8		 jne	 SHORT $LL106@ParseExtra
  00040	8b 35 00 00 00
	00		 mov	 esi, DWORD PTR __imp_?GetIntAttribute@ioXMLElement@@QBEHPBD@Z
  00046	8d 45 ec	 lea	 eax, DWORD PTR __k$515250[ebp]
  00049	50		 push	 eax
  0004a	ff d6		 call	 esi
  0004c	6a 02		 push	 2
  0004e	89 87 6c 01 00
	00		 mov	 DWORD PTR [edi+364], eax

; 156  : 	m_iAddHeight= xElement.GetIntAttribute_e( "AddHeight" );

  00054	c7 45 ec ac 88
	8f a2		 mov	 DWORD PTR __k$515446[ebp], -1567651668 ; a28f88acH
  0005b	c7 45 f0 88 85
	8c 82		 mov	 DWORD PTR __k$515446[ebp+4], -2104719992 ; 828c8588H
  00062	8d 45 ec	 lea	 eax, DWORD PTR __k$515446[ebp]
  00065	66 c7 45 f4 99
	00		 mov	 WORD PTR __k$515446[ebp+8], 153 ; 00000099H
  0006b	59		 pop	 ecx
$LL212@ParseExtra:
  0006c	31 18		 xor	 DWORD PTR [eax], ebx
  0006e	83 c0 04	 add	 eax, 4
  00071	49		 dec	 ecx
  00072	75 f8		 jne	 SHORT $LL212@ParseExtra
  00074	8b 4d e8	 mov	 ecx, DWORD PTR _xElement$GSCopy$[ebp]
  00077	80 75 f4 ed	 xor	 BYTE PTR __k$515446[ebp+8], -19 ; ffffffedH
  0007b	8d 45 ec	 lea	 eax, DWORD PTR __k$515446[ebp]
  0007e	50		 push	 eax
  0007f	ff d6		 call	 esi

; 157  : 	m_iListXPos = xElement.GetIntAttribute_e( "ListX" );

  00081	8b 4d e8	 mov	 ecx, DWORD PTR _xElement$GSCopy$[ebp]
  00084	89 87 70 01 00
	00		 mov	 DWORD PTR [edi+368], eax
  0008a	8d 45 f0	 lea	 eax, DWORD PTR __k$515487[ebp]
  0008d	c7 45 f0 a1 85
	98 9e		 mov	 DWORD PTR __k$515487[ebp], -1634171487 ; 9e9885a1H
  00094	31 5d f0	 xor	 DWORD PTR __k$515487[ebp], ebx
  00097	50		 push	 eax
  00098	66 c7 45 f4 58
	00		 mov	 WORD PTR __k$515487[ebp+4], 88 ; 00000058H
  0009e	ff d6		 call	 esi

; 158  : 	m_iListYPos = xElement.GetIntAttribute_e( "ListY" );

  000a0	8b 4d e8	 mov	 ecx, DWORD PTR _xElement$GSCopy$[ebp]
  000a3	89 87 74 01 00
	00		 mov	 DWORD PTR [edi+372], eax
  000a9	8d 45 f0	 lea	 eax, DWORD PTR __k$515612[ebp]
  000ac	c7 45 f0 a1 85
	98 9e		 mov	 DWORD PTR __k$515612[ebp], -1634171487 ; 9e9885a1H
  000b3	31 5d f0	 xor	 DWORD PTR __k$515612[ebp], ebx
  000b6	50		 push	 eax
  000b7	66 c7 45 f4 59
	00		 mov	 WORD PTR __k$515612[ebp+4], 89 ; 00000059H
  000bd	ff d6		 call	 esi
  000bf	6a 02		 push	 2
  000c1	89 87 78 01 00
	00		 mov	 DWORD PTR [edi+376], eax

; 159  : 	m_iHeightGap= xElement.GetIntAttribute_e( "HeightGap" );

  000c7	c7 45 ec a5 89
	82 8d		 mov	 DWORD PTR __k$515821[ebp], -1920824923 ; 8d8289a5H
  000ce	c7 45 f0 85 98
	ac 8b		 mov	 DWORD PTR __k$515821[ebp+4], -1951623035 ; 8bac9885H
  000d5	8d 45 ec	 lea	 eax, DWORD PTR __k$515821[ebp]
  000d8	66 c7 45 f4 9d
	00		 mov	 WORD PTR __k$515821[ebp+8], 157 ; 0000009dH
  000de	59		 pop	 ecx
$LL530@ParseExtra:
  000df	31 18		 xor	 DWORD PTR [eax], ebx
  000e1	83 c0 04	 add	 eax, 4
  000e4	49		 dec	 ecx
  000e5	75 f8		 jne	 SHORT $LL530@ParseExtra
  000e7	8b 4d e8	 mov	 ecx, DWORD PTR _xElement$GSCopy$[ebp]
  000ea	80 75 f4 ed	 xor	 BYTE PTR __k$515821[ebp+8], -19 ; ffffffedH
  000ee	8d 45 ec	 lea	 eax, DWORD PTR __k$515821[ebp]
  000f1	50		 push	 eax
  000f2	ff d6		 call	 esi
  000f4	6a 02		 push	 2
  000f6	89 87 7c 01 00
	00		 mov	 DWORD PTR [edi+380], eax

; 160  : 	m_iCutWidth = xElement.GetIntAttribute_e( "CutWidth" );

  000fc	c7 45 ec ae 99
	9f bd		 mov	 DWORD PTR __k$515875[ebp], -1113613906 ; bd9f99aeH
  00103	c7 45 f0 84 88
	9f 82		 mov	 DWORD PTR __k$515875[ebp+4], -2103474044 ; 829f8884H
  0010a	8d 45 ec	 lea	 eax, DWORD PTR __k$515875[ebp]
  0010d	c6 45 f4 00	 mov	 BYTE PTR __k$515875[ebp+8], 0
  00111	59		 pop	 ecx
$LL636@ParseExtra:
  00112	31 18		 xor	 DWORD PTR [eax], ebx
  00114	83 c0 04	 add	 eax, 4
  00117	49		 dec	 ecx
  00118	75 f8		 jne	 SHORT $LL636@ParseExtra
  0011a	8b 4d e8	 mov	 ecx, DWORD PTR _xElement$GSCopy$[ebp]
  0011d	8d 45 ec	 lea	 eax, DWORD PTR __k$515875[ebp]
  00120	50		 push	 eax
  00121	ff d6		 call	 esi

; 161  : }

  00123	8b 4d fc	 mov	 ecx, DWORD PTR __$ArrayPad$[ebp]
  00126	89 87 80 01 00
	00		 mov	 DWORD PTR [edi+384], eax
  0012c	5f		 pop	 edi
  0012d	5e		 pop	 esi
  0012e	33 cd		 xor	 ecx, ebp
  00130	5b		 pop	 ebx
  00131	e8 00 00 00 00	 call	 @__security_check_cookie@4
  00136	c9		 leave
  00137	c2 04 00	 ret	 4
?ParseExtraInfo@FileDriveListWnd@@UAEXAAVioXMLElement@@@Z ENDP ; FileDriveListWnd::ParseExtraInfo
_TEXT	ENDS
PUBLIC	_szType$GSCopy$
PUBLIC	_pImage$GSCopy$
PUBLIC	_this$GSCopy$
PUBLIC	__$ArrayPad$
PUBLIC	?AddRenderImage@FileDriveListWnd@@UAEXABVioHashString@@PAVioUIRenderImage@@@Z ; FileDriveListWnd::AddRenderImage
EXTRN	__imp_?AddRenderImage@ioWnd@@UAEXABVioHashString@@PAVioUIRenderImage@@@Z:PROC
; Function compile flags: /Ogsp
;	COMDAT ?AddRenderImage@FileDriveListWnd@@UAEXABVioHashString@@PAVioUIRenderImage@@@Z
_TEXT	SEGMENT
_szType$GSCopy$ = -32					; size = 4
_pImage$GSCopy$ = -28					; size = 4
_this$GSCopy$ = -24					; size = 4
__t$516290 = -20					; size = 9
__t$516165 = -20					; size = 10
__t$516027 = -20					; size = 9
__$ArrayPad$ = -4					; size = 4
_szType$ = 8						; size = 4
_pImage$ = 12						; size = 4
?AddRenderImage@FileDriveListWnd@@UAEXABVioHashString@@PAVioUIRenderImage@@@Z PROC ; FileDriveListWnd::AddRenderImage, COMDAT
; _this$ = ecx

; 164  : {

  00000	55		 push	 ebp
  00001	8b ec		 mov	 ebp, esp
  00003	83 ec 20	 sub	 esp, 32			; 00000020H
  00006	a1 00 00 00 00	 mov	 eax, DWORD PTR ___security_cookie
  0000b	33 c5		 xor	 eax, ebp
  0000d	89 45 fc	 mov	 DWORD PTR __$ArrayPad$[ebp], eax
  00010	8b 45 0c	 mov	 eax, DWORD PTR _pImage$[ebp]
  00013	8b 55 08	 mov	 edx, DWORD PTR _szType$[ebp]
  00016	53		 push	 ebx
  00017	56		 push	 esi
  00018	57		 push	 edi

; 165  : 	if( szType == "DarkLine" )

  00019	6a 02		 push	 2
  0001b	5f		 pop	 edi
  0001c	89 4d e8	 mov	 DWORD PTR _this$GSCopy$[ebp], ecx

; 174  : 	}
; 175  : 	else if( szType == "OverLine" )

  0001f	89 45 e4	 mov	 DWORD PTR _pImage$GSCopy$[ebp], eax
  00022	89 55 e0	 mov	 DWORD PTR _szType$GSCopy$[ebp], edx
  00025	c7 45 ec a9 8d
	99 81		 mov	 DWORD PTR __t$516027[ebp], -2120643159 ; 81998da9H
  0002c	c7 45 f0 a1 85
	85 8f		 mov	 DWORD PTR __t$516027[ebp+4], -1887074911 ; 8f8585a1H
  00033	8d 45 ec	 lea	 eax, DWORD PTR __t$516027[ebp]
  00036	c6 45 f4 00	 mov	 BYTE PTR __t$516027[ebp+8], 0
  0003a	8b cf		 mov	 ecx, edi
  0003c	bb ed ec eb ea	 mov	 ebx, -353637139		; eaebecedH
$LL121@AddRenderI:

; 165  : 	if( szType == "DarkLine" )

  00041	31 18		 xor	 DWORD PTR [eax], ebx
  00043	83 c0 04	 add	 eax, 4
  00046	49		 dec	 ecx
  00047	75 f8		 jne	 SHORT $LL121@AddRenderI
  00049	8b ca		 mov	 ecx, edx
  0004b	8d 75 ec	 lea	 esi, DWORD PTR __t$516027[ebp]
  0004e	ff 15 00 00 00
	00		 call	 DWORD PTR __imp_?c_str@ioHashString@@QBEPBDXZ
$LL350@AddRenderI:
  00054	8a 08		 mov	 cl, BYTE PTR [eax]
  00056	3a 0e		 cmp	 cl, BYTE PTR [esi]
  00058	75 18		 jne	 SHORT $LN351@AddRenderI
  0005a	84 c9		 test	 cl, cl
  0005c	74 10		 je	 SHORT $LN352@AddRenderI
  0005e	8a 48 01	 mov	 cl, BYTE PTR [eax+1]
  00061	3a 4e 01	 cmp	 cl, BYTE PTR [esi+1]
  00064	75 0c		 jne	 SHORT $LN351@AddRenderI
  00066	03 c7		 add	 eax, edi
  00068	03 f7		 add	 esi, edi
  0006a	84 c9		 test	 cl, cl
  0006c	75 e6		 jne	 SHORT $LL350@AddRenderI
$LN352@AddRenderI:
  0006e	33 c0		 xor	 eax, eax
  00070	eb 05		 jmp	 SHORT $LN353@AddRenderI
$LN351@AddRenderI:
  00072	1b c0		 sbb	 eax, eax
  00074	83 d8 ff	 sbb	 eax, -1
$LN353@AddRenderI:
  00077	85 c0		 test	 eax, eax
  00079	75 29		 jne	 SHORT $LN348@AddRenderI

; 166  : 	{
; 167  : 		SAFEDELETE( m_pDarkLine );

  0007b	8b 75 e8	 mov	 esi, DWORD PTR _this$GSCopy$[ebp]
  0007e	8b 8e 60 01 00
	00		 mov	 ecx, DWORD PTR [esi+352]
  00084	85 c9		 test	 ecx, ecx
  00086	74 0e		 je	 SHORT $LN8@AddRenderI
  00088	8b 01		 mov	 eax, DWORD PTR [ecx]
  0008a	6a 01		 push	 1
  0008c	ff 50 40	 call	 DWORD PTR [eax+64]
  0008f	83 a6 60 01 00
	00 00		 and	 DWORD PTR [esi+352], 0
$LN8@AddRenderI:

; 168  : 		m_pDarkLine = pImage;

  00096	8b 45 e4	 mov	 eax, DWORD PTR _pImage$GSCopy$[ebp]
  00099	89 86 60 01 00
	00		 mov	 DWORD PTR [esi+352], eax
  0009f	e9 08 01 00 00	 jmp	 $LN1@AddRenderI
$LN348@AddRenderI:

; 169  : 	}
; 170  : 	else if( szType == "LightLine" )

  000a4	c7 45 ec a1 85
	8c 82		 mov	 DWORD PTR __t$516165[ebp], -2104719967 ; 828c85a1H
  000ab	c7 45 f0 99 a0
	82 84		 mov	 DWORD PTR __t$516165[ebp+4], -2071813991 ; 8482a099H
  000b2	8d 45 ec	 lea	 eax, DWORD PTR __t$516165[ebp]
  000b5	66 c7 45 f4 88
	00		 mov	 WORD PTR __t$516165[ebp+8], 136 ; 00000088H
  000bb	8b cf		 mov	 ecx, edi
$LL227@AddRenderI:
  000bd	31 18		 xor	 DWORD PTR [eax], ebx
  000bf	83 c0 04	 add	 eax, 4
  000c2	49		 dec	 ecx
  000c3	75 f8		 jne	 SHORT $LL227@AddRenderI
  000c5	8b 4d e0	 mov	 ecx, DWORD PTR _szType$GSCopy$[ebp]
  000c8	80 75 f4 ed	 xor	 BYTE PTR __t$516165[ebp+8], -19 ; ffffffedH
  000cc	8d 75 ec	 lea	 esi, DWORD PTR __t$516165[ebp]
  000cf	ff 15 00 00 00
	00		 call	 DWORD PTR __imp_?c_str@ioHashString@@QBEPBDXZ
$LL354@AddRenderI:
  000d5	8a 08		 mov	 cl, BYTE PTR [eax]
  000d7	3a 0e		 cmp	 cl, BYTE PTR [esi]
  000d9	75 18		 jne	 SHORT $LN355@AddRenderI
  000db	84 c9		 test	 cl, cl
  000dd	74 10		 je	 SHORT $LN356@AddRenderI
  000df	8a 48 01	 mov	 cl, BYTE PTR [eax+1]
  000e2	3a 4e 01	 cmp	 cl, BYTE PTR [esi+1]
  000e5	75 0c		 jne	 SHORT $LN355@AddRenderI
  000e7	03 c7		 add	 eax, edi
  000e9	03 f7		 add	 esi, edi
  000eb	84 c9		 test	 cl, cl
  000ed	75 e6		 jne	 SHORT $LL354@AddRenderI
$LN356@AddRenderI:
  000ef	33 c0		 xor	 eax, eax
  000f1	eb 05		 jmp	 SHORT $LN357@AddRenderI
$LN355@AddRenderI:
  000f3	1b c0		 sbb	 eax, eax
  000f5	83 d8 ff	 sbb	 eax, -1
$LN357@AddRenderI:
  000f8	85 c0		 test	 eax, eax
  000fa	75 29		 jne	 SHORT $LN349@AddRenderI

; 171  : 	{
; 172  : 		SAFEDELETE( m_pLightLine );

  000fc	8b 75 e8	 mov	 esi, DWORD PTR _this$GSCopy$[ebp]
  000ff	8b 8e 64 01 00
	00		 mov	 ecx, DWORD PTR [esi+356]
  00105	85 c9		 test	 ecx, ecx
  00107	74 0e		 je	 SHORT $LN5@AddRenderI
  00109	8b 01		 mov	 eax, DWORD PTR [ecx]
  0010b	6a 01		 push	 1
  0010d	ff 50 40	 call	 DWORD PTR [eax+64]
  00110	83 a6 64 01 00
	00 00		 and	 DWORD PTR [esi+356], 0
$LN5@AddRenderI:

; 173  : 		m_pLightLine = pImage;

  00117	8b 45 e4	 mov	 eax, DWORD PTR _pImage$GSCopy$[ebp]
  0011a	89 86 64 01 00
	00		 mov	 DWORD PTR [esi+356], eax
  00120	e9 87 00 00 00	 jmp	 $LN1@AddRenderI
$LN349@AddRenderI:

; 174  : 	}
; 175  : 	else if( szType == "OverLine" )

  00125	c7 45 ec a2 9a
	8e 98		 mov	 DWORD PTR __t$516290[ebp], -1735484766 ; 988e9aa2H
  0012c	c7 45 f0 a1 85
	85 8f		 mov	 DWORD PTR __t$516290[ebp+4], -1887074911 ; 8f8585a1H
  00133	8d 45 ec	 lea	 eax, DWORD PTR __t$516290[ebp]
  00136	c6 45 f4 00	 mov	 BYTE PTR __t$516290[ebp+8], 0
  0013a	8b cf		 mov	 ecx, edi
$LL333@AddRenderI:
  0013c	31 18		 xor	 DWORD PTR [eax], ebx
  0013e	83 c0 04	 add	 eax, 4
  00141	49		 dec	 ecx
  00142	75 f8		 jne	 SHORT $LL333@AddRenderI
  00144	8b 4d e0	 mov	 ecx, DWORD PTR _szType$GSCopy$[ebp]
  00147	8d 75 ec	 lea	 esi, DWORD PTR __t$516290[ebp]
  0014a	ff 15 00 00 00
	00		 call	 DWORD PTR __imp_?c_str@ioHashString@@QBEPBDXZ
$LL358@AddRenderI:
  00150	8a 08		 mov	 cl, BYTE PTR [eax]
  00152	3a 0e		 cmp	 cl, BYTE PTR [esi]
  00154	75 18		 jne	 SHORT $LN359@AddRenderI
  00156	84 c9		 test	 cl, cl
  00158	74 10		 je	 SHORT $LN360@AddRenderI
  0015a	8a 48 01	 mov	 cl, BYTE PTR [eax+1]
  0015d	3a 4e 01	 cmp	 cl, BYTE PTR [esi+1]
  00160	75 0c		 jne	 SHORT $LN359@AddRenderI
  00162	03 c7		 add	 eax, edi
  00164	03 f7		 add	 esi, edi
  00166	84 c9		 test	 cl, cl
  00168	75 e6		 jne	 SHORT $LL358@AddRenderI
$LN360@AddRenderI:
  0016a	33 c0		 xor	 eax, eax
  0016c	eb 05		 jmp	 SHORT $LN361@AddRenderI
$LN359@AddRenderI:
  0016e	1b c0		 sbb	 eax, eax
  00170	83 d8 ff	 sbb	 eax, -1
$LN361@AddRenderI:
  00173	85 c0		 test	 eax, eax
  00175	75 26		 jne	 SHORT $LN3@AddRenderI

; 176  : 	{
; 177  : 		SAFEDELETE( m_pOverLine );

  00177	8b 75 e8	 mov	 esi, DWORD PTR _this$GSCopy$[ebp]
  0017a	8b 8e 68 01 00
	00		 mov	 ecx, DWORD PTR [esi+360]
  00180	85 c9		 test	 ecx, ecx
  00182	74 0e		 je	 SHORT $LN2@AddRenderI
  00184	8b 01		 mov	 eax, DWORD PTR [ecx]
  00186	6a 01		 push	 1
  00188	ff 50 40	 call	 DWORD PTR [eax+64]
  0018b	83 a6 68 01 00
	00 00		 and	 DWORD PTR [esi+360], 0
$LN2@AddRenderI:

; 178  : 		m_pOverLine = pImage;

  00192	8b 45 e4	 mov	 eax, DWORD PTR _pImage$GSCopy$[ebp]
  00195	89 86 68 01 00
	00		 mov	 DWORD PTR [esi+360], eax

; 179  : 	}
; 180  : 	else

  0019b	eb 0f		 jmp	 SHORT $LN1@AddRenderI
$LN3@AddRenderI:

; 181  : 	{
; 182  : 		ioWnd::AddRenderImage( szType, pImage );

  0019d	ff 75 e4	 push	 DWORD PTR _pImage$GSCopy$[ebp]
  001a0	8b 4d e8	 mov	 ecx, DWORD PTR _this$GSCopy$[ebp]
  001a3	ff 75 e0	 push	 DWORD PTR _szType$GSCopy$[ebp]
  001a6	ff 15 00 00 00
	00		 call	 DWORD PTR __imp_?AddRenderImage@ioWnd@@UAEXABVioHashString@@PAVioUIRenderImage@@@Z
$LN1@AddRenderI:

; 183  : 	}
; 184  : }

  001ac	8b 4d fc	 mov	 ecx, DWORD PTR __$ArrayPad$[ebp]
  001af	5f		 pop	 edi
  001b0	5e		 pop	 esi
  001b1	33 cd		 xor	 ecx, ebp
  001b3	5b		 pop	 ebx
  001b4	e8 00 00 00 00	 call	 @__security_check_cookie@4
  001b9	c9		 leave
  001ba	c2 08 00	 ret	 8
?AddRenderImage@FileDriveListWnd@@UAEXABVioHashString@@PAVioUIRenderImage@@@Z ENDP ; FileDriveListWnd::AddRenderImage
_TEXT	ENDS
PUBLIC	?UpdateShowFileList@FileListWnd@@IAEXXZ		; FileListWnd::UpdateShowFileList
; Function compile flags: /Ogsp
;	COMDAT ?UpdateShowFileList@FileListWnd@@IAEXXZ
_TEXT	SEGMENT
_iMaxArray$ = -20					; size = 4
tv66 = -16						; size = 4
_bShowPlayBtn$509955 = -12				; size = 1
tv298 = -8						; size = 4
tv314 = -4						; size = 4
?UpdateShowFileList@FileListWnd@@IAEXXZ PROC		; FileListWnd::UpdateShowFileList, COMDAT
; _this$ = ecx

; 481  : {

  00000	55		 push	 ebp
  00001	8b ec		 mov	 ebp, esp
  00003	83 ec 14	 sub	 esp, 20			; 00000014H
  00006	53		 push	 ebx
  00007	56		 push	 esi
  00008	8b f1		 mov	 esi, ecx

; 482  : 	int iCurStartArray = m_iCurPage * MAX_LIST;
; 483  : 	int iMaxArray      = m_vFileList.size();

  0000a	8b 86 64 01 00
	00		 mov	 eax, DWORD PTR [esi+356]
  00010	2b 86 60 01 00
	00		 sub	 eax, DWORD PTR [esi+352]
  00016	57		 push	 edi
  00017	99		 cdq
  00018	6a 14		 push	 20			; 00000014H
  0001a	59		 pop	 ecx
  0001b	f7 f9		 idiv	 ecx
  0001d	8b 9e 70 01 00
	00		 mov	 ebx, DWORD PTR [esi+368]
  00023	6b db 0d	 imul	 ebx, 13			; 0000000dH
  00026	c7 45 f8 65 00
	00 00		 mov	 DWORD PTR tv298[ebp], 101 ; 00000065H
  0002d	c7 45 f0 0d 00
	00 00		 mov	 DWORD PTR tv66[ebp], 13	; 0000000dH
  00034	89 45 ec	 mov	 DWORD PTR _iMaxArray$[ebp], eax
  00037	8b c3		 mov	 eax, ebx
  00039	6b c0 14	 imul	 eax, 20			; 00000014H
  0003c	89 45 fc	 mov	 DWORD PTR tv314[ebp], eax
$LL20@UpdateShow:

; 486  : 	{
; 487  : 		int iCurArray = iCurStartArray + i;
; 488  : 		FileListItem *pItem = dynamic_cast<FileListItem*> ( FindChildWnd( ID_LIST_1 + i ) );

  0003f	6a 00		 push	 0
  00041	68 00 00 00 00	 push	 OFFSET ??_R0?AVFileListItem@@@8
  00046	68 00 00 00 00	 push	 OFFSET ??_R0?AVioWnd@@@8
  0004b	6a 00		 push	 0
  0004d	ff 75 f8	 push	 DWORD PTR tv298[ebp]
  00050	8b ce		 mov	 ecx, esi
  00052	ff 15 00 00 00
	00		 call	 DWORD PTR __imp_?FindChildWnd@ioWnd@@QAEPAV1@K@Z
  00058	50		 push	 eax
  00059	e8 00 00 00 00	 call	 ___RTDynamicCast
  0005e	8b f8		 mov	 edi, eax
  00060	83 c4 14	 add	 esp, 20			; 00000014H

; 489  : 		if( !pItem )

  00063	85 ff		 test	 edi, edi
  00065	74 6e		 je	 SHORT $LN6@UpdateShow

; 490  : 			continue;
; 491  : 		if( iCurArray >= iMaxArray )

  00067	8b 45 f8	 mov	 eax, DWORD PTR tv298[ebp]
  0006a	8d 44 03 9b	 lea	 eax, DWORD PTR [ebx+eax-101]
  0006e	3b 45 ec	 cmp	 eax, DWORD PTR _iMaxArray$[ebp]
  00071	7c 19		 jl	 SHORT $LN3@UpdateShow
$LN21@UpdateShow:

; 492  : 		{  
; 493  : 			pItem->SetInfo( "", false, false );

  00073	6a 00		 push	 0
  00075	6a 00		 push	 0
  00077	68 00 00 00 00	 push	 OFFSET ??_C@_00CNPNBAHC@?$AA@
  0007c	8b cf		 mov	 ecx, edi
  0007e	e8 00 00 00 00	 call	 ?SetInfo@FileListItem@@QAEXPBD_N1@Z ; FileListItem::SetInfo

; 494  : 			pItem->SetInActive();

  00083	8b 07		 mov	 eax, DWORD PTR [edi]
  00085	8b cf		 mov	 ecx, edi
  00087	ff 50 24	 call	 DWORD PTR [eax+36]

; 495  : 			continue;

  0008a	eb 49		 jmp	 SHORT $LN6@UpdateShow
$LN3@UpdateShow:

; 496  : 		}
; 497  : 
; 498  : 		if( m_vFileList[iCurArray].m_szFileName.IsEmpty() )

  0008c	8b 8e 60 01 00
	00		 mov	 ecx, DWORD PTR [esi+352]
  00092	03 4d fc	 add	 ecx, DWORD PTR tv314[ebp]
  00095	ff 15 00 00 00
	00		 call	 DWORD PTR __imp_?IsEmpty@ioHashString@@QBE_NXZ
  0009b	84 c0		 test	 al, al

; 499  : 		{
; 500  : 			pItem->SetInfo( "", false, false );
; 501  : 			pItem->SetInActive();
; 502  : 			continue;

  0009d	75 d4		 jne	 SHORT $LN21@UpdateShow

; 503  : 		}
; 504  : 
; 505  : 		bool bShowPlayBtn = false;
; 506  : 		if( m_eReturnType == RWT_COUSTOMSOUND_SETTING_ITEM_WND )

  0009f	83 be 7c 01 00
	00 01		 cmp	 DWORD PTR [esi+380], 1
  000a6	88 45 f4	 mov	 BYTE PTR _bShowPlayBtn$509955[ebp], al
  000a9	75 04		 jne	 SHORT $LN1@UpdateShow

; 507  : 			bShowPlayBtn  = true;

  000ab	c6 45 f4 01	 mov	 BYTE PTR _bShowPlayBtn$509955[ebp], 1
$LN1@UpdateShow:

; 508  : 		pItem->SetInfo( m_vFileList[iCurArray].m_szFileName.c_str(), m_vFileList[iCurArray].m_bFolder, bShowPlayBtn );

  000af	8b 4d fc	 mov	 ecx, DWORD PTR tv314[ebp]
  000b2	03 8e 60 01 00
	00		 add	 ecx, DWORD PTR [esi+352]
  000b8	ff 75 f4	 push	 DWORD PTR _bShowPlayBtn$509955[ebp]
  000bb	0f b6 41 10	 movzx	 eax, BYTE PTR [ecx+16]
  000bf	50		 push	 eax
  000c0	ff 15 00 00 00
	00		 call	 DWORD PTR __imp_?c_str@ioHashString@@QBEPBDXZ
  000c6	50		 push	 eax
  000c7	8b cf		 mov	 ecx, edi
  000c9	e8 00 00 00 00	 call	 ?SetInfo@FileListItem@@QAEXPBD_N1@Z ; FileListItem::SetInfo

; 509  : 		pItem->SetActive();

  000ce	8b 07		 mov	 eax, DWORD PTR [edi]
  000d0	8b cf		 mov	 ecx, edi
  000d2	ff 50 20	 call	 DWORD PTR [eax+32]
$LN6@UpdateShow:

; 484  : 
; 485  : 	for (int i = 0; i < MAX_LIST ; i++)

  000d5	83 45 fc 14	 add	 DWORD PTR tv314[ebp], 20 ; 00000014H
  000d9	ff 45 f8	 inc	 DWORD PTR tv298[ebp]
  000dc	ff 4d f0	 dec	 DWORD PTR tv66[ebp]
  000df	0f 85 5a ff ff
	ff		 jne	 $LL20@UpdateShow
  000e5	5f		 pop	 edi
  000e6	5e		 pop	 esi
  000e7	5b		 pop	 ebx

; 510  : 	}
; 511  : }

  000e8	c9		 leave
  000e9	c3		 ret	 0
?UpdateShowFileList@FileListWnd@@IAEXXZ ENDP		; FileListWnd::UpdateShowFileList
_TEXT	ENDS
PUBLIC	?iwm_vscroll@FileListWnd@@UAEXKH@Z		; FileListWnd::iwm_vscroll
; Function compile flags: /Ogsp
;	COMDAT ?iwm_vscroll@FileListWnd@@UAEXKH@Z
_TEXT	SEGMENT
_dwID$ = 8						; size = 4
_curPos$ = 12						; size = 4
?iwm_vscroll@FileListWnd@@UAEXKH@Z PROC			; FileListWnd::iwm_vscroll, COMDAT
; _this$ = ecx

; 694  : {

  00000	55		 push	 ebp
  00001	8b ec		 mov	 ebp, esp

; 695  : 	m_iCurPage = curPos;

  00003	8b 45 0c	 mov	 eax, DWORD PTR _curPos$[ebp]
  00006	89 81 70 01 00
	00		 mov	 DWORD PTR [ecx+368], eax

; 696  : 	UpdateShowFileList();

  0000c	e8 00 00 00 00	 call	 ?UpdateShowFileList@FileListWnd@@IAEXXZ ; FileListWnd::UpdateShowFileList

; 697  : }

  00011	5d		 pop	 ebp
  00012	c2 08 00	 ret	 8
?iwm_vscroll@FileListWnd@@UAEXKH@Z ENDP			; FileListWnd::iwm_vscroll
_TEXT	ENDS
PUBLIC	_this$GSCopy$
PUBLIC	__$ArrayPad$
PUBLIC	?AddRenderImage@FileListWnd@@MAEXABVioHashString@@PAVioUIRenderImage@@@Z ; FileListWnd::AddRenderImage
; Function compile flags: /Ogsp
;	COMDAT ?AddRenderImage@FileListWnd@@MAEXABVioHashString@@PAVioUIRenderImage@@@Z
_TEXT	SEGMENT
_this$GSCopy$ = -24					; size = 4
__t$516461 = -20					; size = 9
__$ArrayPad$ = -4					; size = 4
_szType$ = 8						; size = 4
_pImage$ = 12						; size = 4
?AddRenderImage@FileListWnd@@MAEXABVioHashString@@PAVioUIRenderImage@@@Z PROC ; FileListWnd::AddRenderImage, COMDAT
; _this$ = ecx

; 962  : {

  00000	55		 push	 ebp
  00001	8b ec		 mov	 ebp, esp
  00003	83 ec 18	 sub	 esp, 24			; 00000018H
  00006	a1 00 00 00 00	 mov	 eax, DWORD PTR ___security_cookie
  0000b	33 c5		 xor	 eax, ebp
  0000d	89 45 fc	 mov	 DWORD PTR __$ArrayPad$[ebp], eax
  00010	53		 push	 ebx
  00011	8b 5d 0c	 mov	 ebx, DWORD PTR _pImage$[ebp]
  00014	56		 push	 esi
  00015	57		 push	 edi
  00016	8b 7d 08	 mov	 edi, DWORD PTR _szType$[ebp]

; 963  : 	if( szType == "DescIcon" )

  00019	6a 02		 push	 2
  0001b	89 4d e8	 mov	 DWORD PTR _this$GSCopy$[ebp], ecx
  0001e	c7 45 ec a9 89
	98 89		 mov	 DWORD PTR __t$516461[ebp], -1986491991 ; 899889a9H
  00025	c7 45 f0 a4 8f
	84 84		 mov	 DWORD PTR __t$516461[ebp+4], -2071687260 ; 84848fa4H
  0002c	8d 45 ec	 lea	 eax, DWORD PTR __t$516461[ebp]
  0002f	c6 45 f4 00	 mov	 BYTE PTR __t$516461[ebp+8], 0
  00033	59		 pop	 ecx
$LL111@AddRenderI@2:
  00034	81 30 ed ec eb
	ea		 xor	 DWORD PTR [eax], -353637139 ; eaebecedH
  0003a	83 c0 04	 add	 eax, 4
  0003d	49		 dec	 ecx
  0003e	75 f4		 jne	 SHORT $LL111@AddRenderI@2
  00040	8b cf		 mov	 ecx, edi
  00042	8d 75 ec	 lea	 esi, DWORD PTR __t$516461[ebp]
  00045	ff 15 00 00 00
	00		 call	 DWORD PTR __imp_?c_str@ioHashString@@QBEPBDXZ
$LL118@AddRenderI@2:
  0004b	8a 08		 mov	 cl, BYTE PTR [eax]
  0004d	3a 0e		 cmp	 cl, BYTE PTR [esi]
  0004f	75 1a		 jne	 SHORT $LN119@AddRenderI@2
  00051	84 c9		 test	 cl, cl
  00053	74 12		 je	 SHORT $LN120@AddRenderI@2
  00055	8a 48 01	 mov	 cl, BYTE PTR [eax+1]
  00058	3a 4e 01	 cmp	 cl, BYTE PTR [esi+1]
  0005b	75 0e		 jne	 SHORT $LN119@AddRenderI@2
  0005d	83 c0 02	 add	 eax, 2
  00060	83 c6 02	 add	 esi, 2
  00063	84 c9		 test	 cl, cl
  00065	75 e4		 jne	 SHORT $LL118@AddRenderI@2
$LN120@AddRenderI@2:
  00067	33 c0		 xor	 eax, eax
  00069	eb 05		 jmp	 SHORT $LN121@AddRenderI@2
$LN119@AddRenderI@2:
  0006b	1b c0		 sbb	 eax, eax
  0006d	83 d8 ff	 sbb	 eax, -1
$LN121@AddRenderI@2:
  00070	85 c0		 test	 eax, eax
  00072	75 23		 jne	 SHORT $LN3@AddRenderI@2

; 964  : 	{
; 965  : 		SAFEDELETE( m_pDescIcon );

  00074	8b 75 e8	 mov	 esi, DWORD PTR _this$GSCopy$[ebp]
  00077	8b 8e 80 01 00
	00		 mov	 ecx, DWORD PTR [esi+384]
  0007d	85 c9		 test	 ecx, ecx
  0007f	74 0e		 je	 SHORT $LN2@AddRenderI@2
  00081	8b 01		 mov	 eax, DWORD PTR [ecx]
  00083	6a 01		 push	 1
  00085	ff 50 40	 call	 DWORD PTR [eax+64]
  00088	83 a6 80 01 00
	00 00		 and	 DWORD PTR [esi+384], 0
$LN2@AddRenderI@2:

; 966  : 		m_pDescIcon = pImage;

  0008f	89 9e 80 01 00
	00		 mov	 DWORD PTR [esi+384], ebx

; 967  : 	}
; 968  : 	else

  00095	eb 0b		 jmp	 SHORT $LN1@AddRenderI@2
$LN3@AddRenderI@2:

; 969  : 		ioWnd::AddRenderImage( szType, pImage );

  00097	8b 4d e8	 mov	 ecx, DWORD PTR _this$GSCopy$[ebp]
  0009a	53		 push	 ebx
  0009b	57		 push	 edi
  0009c	ff 15 00 00 00
	00		 call	 DWORD PTR __imp_?AddRenderImage@ioWnd@@UAEXABVioHashString@@PAVioUIRenderImage@@@Z
$LN1@AddRenderI@2:

; 970  : }

  000a2	8b 4d fc	 mov	 ecx, DWORD PTR __$ArrayPad$[ebp]
  000a5	5f		 pop	 edi
  000a6	5e		 pop	 esi
  000a7	33 cd		 xor	 ecx, ebp
  000a9	5b		 pop	 ebx
  000aa	e8 00 00 00 00	 call	 @__security_check_cookie@4
  000af	c9		 leave
  000b0	c2 08 00	 ret	 8
?AddRenderImage@FileListWnd@@MAEXABVioHashString@@PAVioUIRenderImage@@@Z ENDP ; FileListWnd::AddRenderImage
_TEXT	ENDS
PUBLIC	??0?$vector@UFileDriveItem@@V?$allocator@UFileDriveItem@@@std@@@std@@QAE@XZ ; std::vector<FileDriveItem,std::allocator<FileDriveItem> >::vector<FileDriveItem,std::allocator<FileDriveItem> >
; Function compile flags: /Ogsp
; File c:\program files (x86)\microsoft visual studio 10.0\vc\include\vector
;	COMDAT ??0?$vector@UFileDriveItem@@V?$allocator@UFileDriveItem@@@std@@@std@@QAE@XZ
_TEXT	SEGMENT
??0?$vector@UFileDriveItem@@V?$allocator@UFileDriveItem@@@std@@@std@@QAE@XZ PROC ; std::vector<FileDriveItem,std::allocator<FileDriveItem> >::vector<FileDriveItem,std::allocator<FileDriveItem> >, COMDAT
; _this$ = ecx

; 507  : 		{	// construct empty vector

  00000	8b c1		 mov	 eax, ecx
  00002	33 c9		 xor	 ecx, ecx
  00004	89 08		 mov	 DWORD PTR [eax], ecx
  00006	89 48 04	 mov	 DWORD PTR [eax+4], ecx
  00009	89 48 08	 mov	 DWORD PTR [eax+8], ecx

; 508  : 		}

  0000c	c3		 ret	 0
??0?$vector@UFileDriveItem@@V?$allocator@UFileDriveItem@@@std@@@std@@QAE@XZ ENDP ; std::vector<FileDriveItem,std::allocator<FileDriveItem> >::vector<FileDriveItem,std::allocator<FileDriveItem> >
_TEXT	ENDS
PUBLIC	?begin@?$vector@UFileDriveItem@@V?$allocator@UFileDriveItem@@@std@@@std@@QAE?AV?$_Vector_iterator@V?$_Vector_val@UFileDriveItem@@V?$allocator@UFileDriveItem@@@std@@@std@@@2@XZ ; std::vector<FileDriveItem,std::allocator<FileDriveItem> >::begin
; Function compile flags: /Ogsp
;	COMDAT ?begin@?$vector@UFileDriveItem@@V?$allocator@UFileDriveItem@@@std@@@std@@QAE?AV?$_Vector_iterator@V?$_Vector_val@UFileDriveItem@@V?$allocator@UFileDriveItem@@@std@@@std@@@2@XZ
_TEXT	SEGMENT
___$ReturnUdt$ = 8					; size = 4
?begin@?$vector@UFileDriveItem@@V?$allocator@UFileDriveItem@@@std@@@std@@QAE?AV?$_Vector_iterator@V?$_Vector_val@UFileDriveItem@@V?$allocator@UFileDriveItem@@@std@@@std@@@2@XZ PROC ; std::vector<FileDriveItem,std::allocator<FileDriveItem> >::begin, COMDAT
; _this$ = ecx

; 781  : 		{	// return iterator for beginning of mutable sequence

  00000	55		 push	 ebp
  00001	8b ec		 mov	 ebp, esp

; 782  : 		return (iterator(this->_Myfirst, this));

  00003	8b 09		 mov	 ecx, DWORD PTR [ecx]
  00005	8b 45 08	 mov	 eax, DWORD PTR ___$ReturnUdt$[ebp]
  00008	89 08		 mov	 DWORD PTR [eax], ecx

; 783  : 		}

  0000a	5d		 pop	 ebp
  0000b	c2 04 00	 ret	 4
?begin@?$vector@UFileDriveItem@@V?$allocator@UFileDriveItem@@@std@@@std@@QAE?AV?$_Vector_iterator@V?$_Vector_val@UFileDriveItem@@V?$allocator@UFileDriveItem@@@std@@@std@@@2@XZ ENDP ; std::vector<FileDriveItem,std::allocator<FileDriveItem> >::begin
_TEXT	ENDS
PUBLIC	?end@?$vector@UFileDriveItem@@V?$allocator@UFileDriveItem@@@std@@@std@@QAE?AV?$_Vector_iterator@V?$_Vector_val@UFileDriveItem@@V?$allocator@UFileDriveItem@@@std@@@std@@@2@XZ ; std::vector<FileDriveItem,std::allocator<FileDriveItem> >::end
; Function compile flags: /Ogsp
;	COMDAT ?end@?$vector@UFileDriveItem@@V?$allocator@UFileDriveItem@@@std@@@std@@QAE?AV?$_Vector_iterator@V?$_Vector_val@UFileDriveItem@@V?$allocator@UFileDriveItem@@@std@@@std@@@2@XZ
_TEXT	SEGMENT
___$ReturnUdt$ = 8					; size = 4
?end@?$vector@UFileDriveItem@@V?$allocator@UFileDriveItem@@@std@@@std@@QAE?AV?$_Vector_iterator@V?$_Vector_val@UFileDriveItem@@V?$allocator@UFileDriveItem@@@std@@@std@@@2@XZ PROC ; std::vector<FileDriveItem,std::allocator<FileDriveItem> >::end, COMDAT
; _this$ = ecx

; 791  : 		{	// return iterator for end of mutable sequence

  00000	55		 push	 ebp
  00001	8b ec		 mov	 ebp, esp

; 792  : 		return (iterator(this->_Mylast, this));

  00003	8b 49 04	 mov	 ecx, DWORD PTR [ecx+4]
  00006	8b 45 08	 mov	 eax, DWORD PTR ___$ReturnUdt$[ebp]
  00009	89 08		 mov	 DWORD PTR [eax], ecx

; 793  : 		}

  0000b	5d		 pop	 ebp
  0000c	c2 04 00	 ret	 4
?end@?$vector@UFileDriveItem@@V?$allocator@UFileDriveItem@@@std@@@std@@QAE?AV?$_Vector_iterator@V?$_Vector_val@UFileDriveItem@@V?$allocator@UFileDriveItem@@@std@@@std@@@2@XZ ENDP ; std::vector<FileDriveItem,std::allocator<FileDriveItem> >::end
_TEXT	ENDS
PUBLIC	??0?$vector@UFileInfo@FileListWnd@@V?$allocator@UFileInfo@FileListWnd@@@std@@@std@@QAE@XZ ; std::vector<FileListWnd::FileInfo,std::allocator<FileListWnd::FileInfo> >::vector<FileListWnd::FileInfo,std::allocator<FileListWnd::FileInfo> >
; Function compile flags: /Ogsp
;	COMDAT ??0?$vector@UFileInfo@FileListWnd@@V?$allocator@UFileInfo@FileListWnd@@@std@@@std@@QAE@XZ
_TEXT	SEGMENT
??0?$vector@UFileInfo@FileListWnd@@V?$allocator@UFileInfo@FileListWnd@@@std@@@std@@QAE@XZ PROC ; std::vector<FileListWnd::FileInfo,std::allocator<FileListWnd::FileInfo> >::vector<FileListWnd::FileInfo,std::allocator<FileListWnd::FileInfo> >, COMDAT
; _this$ = ecx

; 507  : 		{	// construct empty vector

  00000	8b c1		 mov	 eax, ecx
  00002	33 c9		 xor	 ecx, ecx
  00004	89 08		 mov	 DWORD PTR [eax], ecx
  00006	89 48 04	 mov	 DWORD PTR [eax+4], ecx
  00009	89 48 08	 mov	 DWORD PTR [eax+8], ecx

; 508  : 		}

  0000c	c3		 ret	 0
??0?$vector@UFileInfo@FileListWnd@@V?$allocator@UFileInfo@FileListWnd@@@std@@@std@@QAE@XZ ENDP ; std::vector<FileListWnd::FileInfo,std::allocator<FileListWnd::FileInfo> >::vector<FileListWnd::FileInfo,std::allocator<FileListWnd::FileInfo> >
_TEXT	ENDS
PUBLIC	?begin@?$vector@UFileInfo@FileListWnd@@V?$allocator@UFileInfo@FileListWnd@@@std@@@std@@QAE?AV?$_Vector_iterator@V?$_Vector_val@UFileInfo@FileListWnd@@V?$allocator@UFileInfo@FileListWnd@@@std@@@std@@@2@XZ ; std::vector<FileListWnd::FileInfo,std::allocator<FileListWnd::FileInfo> >::begin
; Function compile flags: /Ogsp
;	COMDAT ?begin@?$vector@UFileInfo@FileListWnd@@V?$allocator@UFileInfo@FileListWnd@@@std@@@std@@QAE?AV?$_Vector_iterator@V?$_Vector_val@UFileInfo@FileListWnd@@V?$allocator@UFileInfo@FileListWnd@@@std@@@std@@@2@XZ
_TEXT	SEGMENT
___$ReturnUdt$ = 8					; size = 4
?begin@?$vector@UFileInfo@FileListWnd@@V?$allocator@UFileInfo@FileListWnd@@@std@@@std@@QAE?AV?$_Vector_iterator@V?$_Vector_val@UFileInfo@FileListWnd@@V?$allocator@UFileInfo@FileListWnd@@@std@@@std@@@2@XZ PROC ; std::vector<FileListWnd::FileInfo,std::allocator<FileListWnd::FileInfo> >::begin, COMDAT
; _this$ = ecx

; 781  : 		{	// return iterator for beginning of mutable sequence

  00000	55		 push	 ebp
  00001	8b ec		 mov	 ebp, esp

; 782  : 		return (iterator(this->_Myfirst, this));

  00003	8b 09		 mov	 ecx, DWORD PTR [ecx]
  00005	8b 45 08	 mov	 eax, DWORD PTR ___$ReturnUdt$[ebp]
  00008	89 08		 mov	 DWORD PTR [eax], ecx

; 783  : 		}

  0000a	5d		 pop	 ebp
  0000b	c2 04 00	 ret	 4
?begin@?$vector@UFileInfo@FileListWnd@@V?$allocator@UFileInfo@FileListWnd@@@std@@@std@@QAE?AV?$_Vector_iterator@V?$_Vector_val@UFileInfo@FileListWnd@@V?$allocator@UFileInfo@FileListWnd@@@std@@@std@@@2@XZ ENDP ; std::vector<FileListWnd::FileInfo,std::allocator<FileListWnd::FileInfo> >::begin
_TEXT	ENDS
PUBLIC	?end@?$vector@UFileInfo@FileListWnd@@V?$allocator@UFileInfo@FileListWnd@@@std@@@std@@QAE?AV?$_Vector_iterator@V?$_Vector_val@UFileInfo@FileListWnd@@V?$allocator@UFileInfo@FileListWnd@@@std@@@std@@@2@XZ ; std::vector<FileListWnd::FileInfo,std::allocator<FileListWnd::FileInfo> >::end
; Function compile flags: /Ogsp
;	COMDAT ?end@?$vector@UFileInfo@FileListWnd@@V?$allocator@UFileInfo@FileListWnd@@@std@@@std@@QAE?AV?$_Vector_iterator@V?$_Vector_val@UFileInfo@FileListWnd@@V?$allocator@UFileInfo@FileListWnd@@@std@@@std@@@2@XZ
_TEXT	SEGMENT
___$ReturnUdt$ = 8					; size = 4
?end@?$vector@UFileInfo@FileListWnd@@V?$allocator@UFileInfo@FileListWnd@@@std@@@std@@QAE?AV?$_Vector_iterator@V?$_Vector_val@UFileInfo@FileListWnd@@V?$allocator@UFileInfo@FileListWnd@@@std@@@std@@@2@XZ PROC ; std::vector<FileListWnd::FileInfo,std::allocator<FileListWnd::FileInfo> >::end, COMDAT
; _this$ = ecx

; 791  : 		{	// return iterator for end of mutable sequence

  00000	55		 push	 ebp
  00001	8b ec		 mov	 ebp, esp

; 792  : 		return (iterator(this->_Mylast, this));

  00003	8b 49 04	 mov	 ecx, DWORD PTR [ecx+4]
  00006	8b 45 08	 mov	 eax, DWORD PTR ___$ReturnUdt$[ebp]
  00009	89 08		 mov	 DWORD PTR [eax], ecx

; 793  : 		}

  0000b	5d		 pop	 ebp
  0000c	c2 04 00	 ret	 4
?end@?$vector@UFileInfo@FileListWnd@@V?$allocator@UFileInfo@FileListWnd@@@std@@@std@@QAE?AV?$_Vector_iterator@V?$_Vector_val@UFileInfo@FileListWnd@@V?$allocator@UFileInfo@FileListWnd@@@std@@@std@@@2@XZ ENDP ; std::vector<FileListWnd::FileInfo,std::allocator<FileListWnd::FileInfo> >::end
_TEXT	ENDS
PUBLIC	??9?$_Vector_const_iterator@V?$_Vector_val@UFileInfo@FileListWnd@@V?$allocator@UFileInfo@FileListWnd@@@std@@@std@@@std@@QBE_NABV01@@Z ; std::_Vector_const_iterator<std::_Vector_val<FileListWnd::FileInfo,std::allocator<FileListWnd::FileInfo> > >::operator!=
; Function compile flags: /Ogsp
;	COMDAT ??9?$_Vector_const_iterator@V?$_Vector_val@UFileInfo@FileListWnd@@V?$allocator@UFileInfo@FileListWnd@@@std@@@std@@@std@@QBE_NABV01@@Z
_TEXT	SEGMENT
__Right$ = 8						; size = 4
??9?$_Vector_const_iterator@V?$_Vector_val@UFileInfo@FileListWnd@@V?$allocator@UFileInfo@FileListWnd@@@std@@@std@@@std@@QBE_NABV01@@Z PROC ; std::_Vector_const_iterator<std::_Vector_val<FileListWnd::FileInfo,std::allocator<FileListWnd::FileInfo> > >::operator!=, COMDAT
; _this$ = ecx

; 207  : 		{	// test for iterator inequality

  00000	55		 push	 ebp
  00001	8b ec		 mov	 ebp, esp

; 208  : 		return (!(*this == _Right));

  00003	8b 01		 mov	 eax, DWORD PTR [ecx]
  00005	8b 55 08	 mov	 edx, DWORD PTR __Right$[ebp]
  00008	33 c9		 xor	 ecx, ecx
  0000a	3b 02		 cmp	 eax, DWORD PTR [edx]
  0000c	0f 95 c0	 setne	 al

; 209  : 		}

  0000f	5d		 pop	 ebp
  00010	c2 04 00	 ret	 4
??9?$_Vector_const_iterator@V?$_Vector_val@UFileInfo@FileListWnd@@V?$allocator@UFileInfo@FileListWnd@@@std@@@std@@@std@@QBE_NABV01@@Z ENDP ; std::_Vector_const_iterator<std::_Vector_val<FileListWnd::FileInfo,std::allocator<FileListWnd::FileInfo> > >::operator!=
_TEXT	ENDS
PUBLIC	??H?$_Vector_iterator@V?$_Vector_val@UFileDriveItem@@V?$allocator@UFileDriveItem@@@std@@@std@@@std@@QBE?AV01@H@Z ; std::_Vector_iterator<std::_Vector_val<FileDriveItem,std::allocator<FileDriveItem> > >::operator+
; Function compile flags: /Ogsp
;	COMDAT ??H?$_Vector_iterator@V?$_Vector_val@UFileDriveItem@@V?$allocator@UFileDriveItem@@@std@@@std@@@std@@QBE?AV01@H@Z
_TEXT	SEGMENT
___$ReturnUdt$ = 8					; size = 4
__Off$ = 12						; size = 4
??H?$_Vector_iterator@V?$_Vector_val@UFileDriveItem@@V?$allocator@UFileDriveItem@@@std@@@std@@@std@@QBE?AV01@H@Z PROC ; std::_Vector_iterator<std::_Vector_val<FileDriveItem,std::allocator<FileDriveItem> > >::operator+, COMDAT
; _this$ = ecx

; 363  : 		{	// return this + integer

  00000	55		 push	 ebp
  00001	8b ec		 mov	 ebp, esp

; 364  : 		_Myiter _Tmp = *this;
; 365  : 		return (_Tmp += _Off);

  00003	8b 55 0c	 mov	 edx, DWORD PTR __Off$[ebp]
  00006	8b 45 08	 mov	 eax, DWORD PTR ___$ReturnUdt$[ebp]
  00009	6b d2 14	 imul	 edx, 20			; 00000014H
  0000c	03 11		 add	 edx, DWORD PTR [ecx]
  0000e	89 10		 mov	 DWORD PTR [eax], edx

; 366  : 		}

  00010	5d		 pop	 ebp
  00011	c2 08 00	 ret	 8
??H?$_Vector_iterator@V?$_Vector_val@UFileDriveItem@@V?$allocator@UFileDriveItem@@@std@@@std@@@std@@QBE?AV01@H@Z ENDP ; std::_Vector_iterator<std::_Vector_val<FileDriveItem,std::allocator<FileDriveItem> > >::operator+
_TEXT	ENDS
PUBLIC	?_Grow_to@?$vector@VioHashString@@V?$allocator@VioHashString@@@std@@@std@@IBEII@Z ; std::vector<ioHashString,std::allocator<ioHashString> >::_Grow_to
; Function compile flags: /Ogsp
;	COMDAT ?_Grow_to@?$vector@VioHashString@@V?$allocator@VioHashString@@@std@@@std@@IBEII@Z
_TEXT	SEGMENT
__Count$ = 8						; size = 4
?_Grow_to@?$vector@VioHashString@@V?$allocator@VioHashString@@@std@@@std@@IBEII@Z PROC ; std::vector<ioHashString,std::allocator<ioHashString> >::_Grow_to, COMDAT
; _this$ = ecx

; 1274 : 		{	// grow by 50% or at least to _Count

  00000	55		 push	 ebp
  00001	8b ec		 mov	 ebp, esp

; 1275 : 		size_type _Capacity = capacity();

  00003	8b 41 08	 mov	 eax, DWORD PTR [ecx+8]
  00006	2b 01		 sub	 eax, DWORD PTR [ecx]

; 1276 : 
; 1277 : 		_Capacity = max_size() - _Capacity / 2 < _Capacity
; 1278 : 			? 0 : _Capacity + _Capacity / 2;	// try to grow by 50%

  00008	ba ff ff ff 0f	 mov	 edx, 268435455		; 0fffffffH
  0000d	c1 f8 04	 sar	 eax, 4
  00010	8b c8		 mov	 ecx, eax
  00012	d1 e9		 shr	 ecx, 1
  00014	2b d1		 sub	 edx, ecx
  00016	3b d0		 cmp	 edx, eax
  00018	73 04		 jae	 SHORT $LN4@Grow_to@3
  0001a	33 c0		 xor	 eax, eax
  0001c	eb 02		 jmp	 SHORT $LN5@Grow_to@3
$LN4@Grow_to@3:
  0001e	03 c1		 add	 eax, ecx
$LN5@Grow_to@3:

; 1279 : 		if (_Capacity < _Count)

  00020	3b 45 08	 cmp	 eax, DWORD PTR __Count$[ebp]

; 1280 : 			_Capacity = _Count;

  00023	0f 42 45 08	 cmovb	 eax, DWORD PTR __Count$[ebp]

; 1281 : 		return (_Capacity);
; 1282 : 		}

  00027	5d		 pop	 ebp
  00028	c2 04 00	 ret	 4
?_Grow_to@?$vector@VioHashString@@V?$allocator@VioHashString@@@std@@@std@@IBEII@Z ENDP ; std::vector<ioHashString,std::allocator<ioHashString> >::_Grow_to
_TEXT	ENDS
PUBLIC	??9?$_Vector_const_iterator@V?$_Vector_val@UFileDriveItem@@V?$allocator@UFileDriveItem@@@std@@@std@@@std@@QBE_NABV01@@Z ; std::_Vector_const_iterator<std::_Vector_val<FileDriveItem,std::allocator<FileDriveItem> > >::operator!=
; Function compile flags: /Ogsp
;	COMDAT ??9?$_Vector_const_iterator@V?$_Vector_val@UFileDriveItem@@V?$allocator@UFileDriveItem@@@std@@@std@@@std@@QBE_NABV01@@Z
_TEXT	SEGMENT
__Right$ = 8						; size = 4
??9?$_Vector_const_iterator@V?$_Vector_val@UFileDriveItem@@V?$allocator@UFileDriveItem@@@std@@@std@@@std@@QBE_NABV01@@Z PROC ; std::_Vector_const_iterator<std::_Vector_val<FileDriveItem,std::allocator<FileDriveItem> > >::operator!=, COMDAT
; _this$ = ecx

; 207  : 		{	// test for iterator inequality

  00000	55		 push	 ebp
  00001	8b ec		 mov	 ebp, esp

; 208  : 		return (!(*this == _Right));

  00003	8b 01		 mov	 eax, DWORD PTR [ecx]
  00005	8b 55 08	 mov	 edx, DWORD PTR __Right$[ebp]
  00008	33 c9		 xor	 ecx, ecx
  0000a	3b 02		 cmp	 eax, DWORD PTR [edx]
  0000c	0f 95 c0	 setne	 al

; 209  : 		}

  0000f	5d		 pop	 ebp
  00010	c2 04 00	 ret	 4
??9?$_Vector_const_iterator@V?$_Vector_val@UFileDriveItem@@V?$allocator@UFileDriveItem@@@std@@@std@@@std@@QBE_NABV01@@Z ENDP ; std::_Vector_const_iterator<std::_Vector_val<FileDriveItem,std::allocator<FileDriveItem> > >::operator!=
_TEXT	ENDS
PUBLIC	??$copy@V?$_Vector_iterator@V?$_Vector_val@UFileDriveItem@@V?$allocator@UFileDriveItem@@@std@@@std@@@std@@V12@@std@@YA?AV?$_Vector_iterator@V?$_Vector_val@UFileDriveItem@@V?$allocator@UFileDriveItem@@@std@@@std@@@0@V10@00@Z ; std::copy<std::_Vector_iterator<std::_Vector_val<FileDriveItem,std::allocator<FileDriveItem> > >,std::_Vector_iterator<std::_Vector_val<FileDriveItem,std::allocator<FileDriveItem> > > >
; Function compile flags: /Ogsp
; File c:\program files (x86)\microsoft visual studio 10.0\vc\include\xutility
;	COMDAT ??$copy@V?$_Vector_iterator@V?$_Vector_val@UFileDriveItem@@V?$allocator@UFileDriveItem@@@std@@@std@@@std@@V12@@std@@YA?AV?$_Vector_iterator@V?$_Vector_val@UFileDriveItem@@V?$allocator@UFileDriveItem@@@std@@@std@@@0@V10@00@Z
_TEXT	SEGMENT
___$ReturnUdt$ = 8					; size = 4
__First$ = 12						; size = 4
__Last$ = 16						; size = 4
__Cat$516783 = 20					; size = 1
__Dest$ = 20						; size = 4
??$copy@V?$_Vector_iterator@V?$_Vector_val@UFileDriveItem@@V?$allocator@UFileDriveItem@@@std@@@std@@@std@@V12@@std@@YA?AV?$_Vector_iterator@V?$_Vector_val@UFileDriveItem@@V?$allocator@UFileDriveItem@@@std@@@std@@@0@V10@00@Z PROC ; std::copy<std::_Vector_iterator<std::_Vector_val<FileDriveItem,std::allocator<FileDriveItem> > >,std::_Vector_iterator<std::_Vector_val<FileDriveItem,std::allocator<FileDriveItem> > > >, COMDAT

; 2173 : 	{	// copy [_First, _Last) to [_Dest, ...)

  00000	55		 push	 ebp
  00001	8b ec		 mov	 ebp, esp

; 2174 : 	return (_Rechecked(_Dest,
; 2175 : 		_Copy_impl(_Unchecked(_First), _Unchecked(_Last),
; 2176 : 			_Unchecked(_Dest))));

  00003	ff 75 14	 push	 DWORD PTR __Cat$516783[ebp]
  00006	ff 75 14	 push	 DWORD PTR __Dest$[ebp]
  00009	ff 75 10	 push	 DWORD PTR __Last$[ebp]
  0000c	ff 75 0c	 push	 DWORD PTR __First$[ebp]
  0000f	e8 00 00 00 00	 call	 ??$_Copy_impl@PAUFileDriveItem@@PAU1@@std@@YAPAUFileDriveItem@@PAU1@00U_Nonscalar_ptr_iterator_tag@0@@Z ; std::_Copy_impl<FileDriveItem *,FileDriveItem *>
  00014	8b 4d 08	 mov	 ecx, DWORD PTR ___$ReturnUdt$[ebp]
  00017	89 01		 mov	 DWORD PTR [ecx], eax
  00019	83 c4 10	 add	 esp, 16			; 00000010H
  0001c	8b c1		 mov	 eax, ecx

; 2177 : 	}

  0001e	5d		 pop	 ebp
  0001f	c3		 ret	 0
??$copy@V?$_Vector_iterator@V?$_Vector_val@UFileDriveItem@@V?$allocator@UFileDriveItem@@@std@@@std@@@std@@V12@@std@@YA?AV?$_Vector_iterator@V?$_Vector_val@UFileDriveItem@@V?$allocator@UFileDriveItem@@@std@@@std@@@0@V10@00@Z ENDP ; std::copy<std::_Vector_iterator<std::_Vector_val<FileDriveItem,std::allocator<FileDriveItem> > >,std::_Vector_iterator<std::_Vector_val<FileDriveItem,std::allocator<FileDriveItem> > > >
_TEXT	ENDS
PUBLIC	??$_Cons_val@V?$allocator@UFileDriveItem@@@std@@UFileDriveItem@@ABU3@@std@@YAXAAV?$allocator@UFileDriveItem@@@0@PAUFileDriveItem@@ABU2@@Z ; std::_Cons_val<std::allocator<FileDriveItem>,FileDriveItem,FileDriveItem const &>
; Function compile flags: /Ogsp
; File c:\program files (x86)\microsoft visual studio 10.0\vc\include\xmemory
;	COMDAT ??$_Cons_val@V?$allocator@UFileDriveItem@@@std@@UFileDriveItem@@ABU3@@std@@YAXAAV?$allocator@UFileDriveItem@@@0@PAUFileDriveItem@@ABU2@@Z
_TEXT	SEGMENT
__Alval$ = 8						; size = 4
__Pdest$ = 12						; size = 4
__Src$ = 16						; size = 4
??$_Cons_val@V?$allocator@UFileDriveItem@@@std@@UFileDriveItem@@ABU3@@std@@YAXAAV?$allocator@UFileDriveItem@@@0@PAUFileDriveItem@@ABU2@@Z PROC ; std::_Cons_val<std::allocator<FileDriveItem>,FileDriveItem,FileDriveItem const &>, COMDAT

; 279  : 	{	// construct using allocator

  00000	55		 push	 ebp
  00001	8b ec		 mov	 ebp, esp

; 280  : 	_Alval.construct(_Pdest, _STD forward<_Ty2>(_Src));

  00003	ff 75 10	 push	 DWORD PTR __Src$[ebp]
  00006	ff 75 0c	 push	 DWORD PTR __Pdest$[ebp]
  00009	e8 00 00 00 00	 call	 ??$_Construct@UFileDriveItem@@ABU1@@std@@YAXPAUFileDriveItem@@ABU1@@Z ; std::_Construct<FileDriveItem,FileDriveItem const &>
  0000e	59		 pop	 ecx
  0000f	59		 pop	 ecx

; 281  : 	}

  00010	5d		 pop	 ebp
  00011	c3		 ret	 0
??$_Cons_val@V?$allocator@UFileDriveItem@@@std@@UFileDriveItem@@ABU3@@std@@YAXAAV?$allocator@UFileDriveItem@@@0@PAUFileDriveItem@@ABU2@@Z ENDP ; std::_Cons_val<std::allocator<FileDriveItem>,FileDriveItem,FileDriveItem const &>
_TEXT	ENDS
PUBLIC	??$_Cons_val@V?$allocator@UFileInfo@FileListWnd@@@std@@UFileInfo@FileListWnd@@AAU34@@std@@YAXAAV?$allocator@UFileInfo@FileListWnd@@@0@PAUFileInfo@FileListWnd@@AAU23@@Z ; std::_Cons_val<std::allocator<FileListWnd::FileInfo>,FileListWnd::FileInfo,FileListWnd::FileInfo &>
; Function compile flags: /Ogsp
;	COMDAT ??$_Cons_val@V?$allocator@UFileInfo@FileListWnd@@@std@@UFileInfo@FileListWnd@@AAU34@@std@@YAXAAV?$allocator@UFileInfo@FileListWnd@@@0@PAUFileInfo@FileListWnd@@AAU23@@Z
_TEXT	SEGMENT
__Alval$ = 8						; size = 4
__Pdest$ = 12						; size = 4
__Src$ = 16						; size = 4
??$_Cons_val@V?$allocator@UFileInfo@FileListWnd@@@std@@UFileInfo@FileListWnd@@AAU34@@std@@YAXAAV?$allocator@UFileInfo@FileListWnd@@@0@PAUFileInfo@FileListWnd@@AAU23@@Z PROC ; std::_Cons_val<std::allocator<FileListWnd::FileInfo>,FileListWnd::FileInfo,FileListWnd::FileInfo &>, COMDAT

; 279  : 	{	// construct using allocator

  00000	55		 push	 ebp
  00001	8b ec		 mov	 ebp, esp

; 280  : 	_Alval.construct(_Pdest, _STD forward<_Ty2>(_Src));

  00003	ff 75 10	 push	 DWORD PTR __Src$[ebp]
  00006	8b 4d 08	 mov	 ecx, DWORD PTR __Alval$[ebp]
  00009	ff 75 0c	 push	 DWORD PTR __Pdest$[ebp]
  0000c	e8 00 00 00 00	 call	 ??$construct@AAUFileInfo@FileListWnd@@@?$allocator@UFileInfo@FileListWnd@@@std@@QAEXPAUFileInfo@FileListWnd@@AAU23@@Z ; std::allocator<FileListWnd::FileInfo>::construct<FileListWnd::FileInfo &>

; 281  : 	}

  00011	5d		 pop	 ebp
  00012	c3		 ret	 0
??$_Cons_val@V?$allocator@UFileInfo@FileListWnd@@@std@@UFileInfo@FileListWnd@@AAU34@@std@@YAXAAV?$allocator@UFileInfo@FileListWnd@@@0@PAUFileInfo@FileListWnd@@AAU23@@Z ENDP ; std::_Cons_val<std::allocator<FileListWnd::FileInfo>,FileListWnd::FileInfo,FileListWnd::FileInfo &>
_TEXT	ENDS
PUBLIC	??$_Move@PAUFileDriveItem@@PAU1@@std@@YAPAUFileDriveItem@@PAU1@00@Z ; std::_Move<FileDriveItem *,FileDriveItem *>
; Function compile flags: /Ogsp
; File c:\program files (x86)\microsoft visual studio 10.0\vc\include\xutility
;	COMDAT ??$_Move@PAUFileDriveItem@@PAU1@@std@@YAPAUFileDriveItem@@PAU1@00@Z
_TEXT	SEGMENT
__Cat$516812 = -4					; size = 1
__First$ = 8						; size = 4
__Last$ = 12						; size = 4
__Dest$ = 16						; size = 4
??$_Move@PAUFileDriveItem@@PAU1@@std@@YAPAUFileDriveItem@@PAU1@00@Z PROC ; std::_Move<FileDriveItem *,FileDriveItem *>, COMDAT

; 2533 : 	{	// move [_First, _Last) to [_Dest, ...), unchecked

  00000	55		 push	 ebp
  00001	8b ec		 mov	 ebp, esp
  00003	51		 push	 ecx

; 2534 : 	return (_Move(_First, _Last,
; 2535 : 		_Dest, _Ptr_cat(_First, _Dest)));

  00004	ff 75 fc	 push	 DWORD PTR __Cat$516812[ebp]
  00007	ff 75 10	 push	 DWORD PTR __Dest$[ebp]
  0000a	ff 75 0c	 push	 DWORD PTR __Last$[ebp]
  0000d	ff 75 08	 push	 DWORD PTR __First$[ebp]
  00010	e8 00 00 00 00	 call	 ??$_Move@PAUFileDriveItem@@PAU1@@std@@YAPAUFileDriveItem@@PAU1@00U_Nonscalar_ptr_iterator_tag@0@@Z ; std::_Move<FileDriveItem *,FileDriveItem *>
  00015	83 c4 10	 add	 esp, 16			; 00000010H

; 2536 : 	}

  00018	c9		 leave
  00019	c3		 ret	 0
??$_Move@PAUFileDriveItem@@PAU1@@std@@YAPAUFileDriveItem@@PAU1@00@Z ENDP ; std::_Move<FileDriveItem *,FileDriveItem *>
_TEXT	ENDS
PUBLIC	??$_Move@PAUFileInfo@FileListWnd@@PAU12@@std@@YAPAUFileInfo@FileListWnd@@PAU12@00@Z ; std::_Move<FileListWnd::FileInfo *,FileListWnd::FileInfo *>
; Function compile flags: /Ogsp
;	COMDAT ??$_Move@PAUFileInfo@FileListWnd@@PAU12@@std@@YAPAUFileInfo@FileListWnd@@PAU12@00@Z
_TEXT	SEGMENT
__Cat$516819 = -4					; size = 1
__First$ = 8						; size = 4
__Last$ = 12						; size = 4
__Dest$ = 16						; size = 4
??$_Move@PAUFileInfo@FileListWnd@@PAU12@@std@@YAPAUFileInfo@FileListWnd@@PAU12@00@Z PROC ; std::_Move<FileListWnd::FileInfo *,FileListWnd::FileInfo *>, COMDAT

; 2533 : 	{	// move [_First, _Last) to [_Dest, ...), unchecked

  00000	55		 push	 ebp
  00001	8b ec		 mov	 ebp, esp
  00003	51		 push	 ecx

; 2534 : 	return (_Move(_First, _Last,
; 2535 : 		_Dest, _Ptr_cat(_First, _Dest)));

  00004	ff 75 fc	 push	 DWORD PTR __Cat$516819[ebp]
  00007	ff 75 10	 push	 DWORD PTR __Dest$[ebp]
  0000a	ff 75 0c	 push	 DWORD PTR __Last$[ebp]
  0000d	ff 75 08	 push	 DWORD PTR __First$[ebp]
  00010	e8 00 00 00 00	 call	 ??$_Move@PAUFileInfo@FileListWnd@@PAU12@@std@@YAPAUFileInfo@FileListWnd@@PAU12@00U_Nonscalar_ptr_iterator_tag@0@@Z ; std::_Move<FileListWnd::FileInfo *,FileListWnd::FileInfo *>
  00015	83 c4 10	 add	 esp, 16			; 00000010H

; 2536 : 	}

  00018	c9		 leave
  00019	c3		 ret	 0
??$_Move@PAUFileInfo@FileListWnd@@PAU12@@std@@YAPAUFileInfo@FileListWnd@@PAU12@00@Z ENDP ; std::_Move<FileListWnd::FileInfo *,FileListWnd::FileInfo *>
_TEXT	ENDS
PUBLIC	?construct@?$allocator@UFileInfo@FileListWnd@@@std@@QAEXPAUFileInfo@FileListWnd@@ABU34@@Z ; std::allocator<FileListWnd::FileInfo>::construct
; Function compile flags: /Ogsp
; File c:\program files (x86)\microsoft visual studio 10.0\vc\include\xmemory
;	COMDAT ?construct@?$allocator@UFileInfo@FileListWnd@@@std@@QAEXPAUFileInfo@FileListWnd@@ABU34@@Z
_TEXT	SEGMENT
__Ptr$ = 8						; size = 4
__Val$ = 12						; size = 4
?construct@?$allocator@UFileInfo@FileListWnd@@@std@@QAEXPAUFileInfo@FileListWnd@@ABU34@@Z PROC ; std::allocator<FileListWnd::FileInfo>::construct, COMDAT
; _this$ = ecx

; 196  : 		{	// construct object at _Ptr with value _Val

  00000	55		 push	 ebp
  00001	8b ec		 mov	 ebp, esp

; 197  : 		_Construct(_Ptr, _Val);

  00003	ff 75 0c	 push	 DWORD PTR __Val$[ebp]
  00006	ff 75 08	 push	 DWORD PTR __Ptr$[ebp]
  00009	e8 00 00 00 00	 call	 ??$_Construct@UFileInfo@FileListWnd@@ABU12@@std@@YAXPAUFileInfo@FileListWnd@@ABU12@@Z ; std::_Construct<FileListWnd::FileInfo,FileListWnd::FileInfo const &>
  0000e	59		 pop	 ecx
  0000f	59		 pop	 ecx

; 198  : 		}

  00010	5d		 pop	 ebp
  00011	c2 08 00	 ret	 8
?construct@?$allocator@UFileInfo@FileListWnd@@@std@@QAEXPAUFileInfo@FileListWnd@@ABU34@@Z ENDP ; std::allocator<FileListWnd::FileInfo>::construct
_TEXT	ENDS
PUBLIC	??$_Cons_val@V?$allocator@UFileDriveItem@@@std@@UFileDriveItem@@U3@@std@@YAXAAV?$allocator@UFileDriveItem@@@0@PAUFileDriveItem@@$$QAU2@@Z ; std::_Cons_val<std::allocator<FileDriveItem>,FileDriveItem,FileDriveItem>
; Function compile flags: /Ogsp
;	COMDAT ??$_Cons_val@V?$allocator@UFileDriveItem@@@std@@UFileDriveItem@@U3@@std@@YAXAAV?$allocator@UFileDriveItem@@@0@PAUFileDriveItem@@$$QAU2@@Z
_TEXT	SEGMENT
__Alval$ = 8						; size = 4
__Pdest$ = 12						; size = 4
__Src$ = 16						; size = 4
??$_Cons_val@V?$allocator@UFileDriveItem@@@std@@UFileDriveItem@@U3@@std@@YAXAAV?$allocator@UFileDriveItem@@@0@PAUFileDriveItem@@$$QAU2@@Z PROC ; std::_Cons_val<std::allocator<FileDriveItem>,FileDriveItem,FileDriveItem>, COMDAT

; 279  : 	{	// construct using allocator

  00000	55		 push	 ebp
  00001	8b ec		 mov	 ebp, esp

; 280  : 	_Alval.construct(_Pdest, _STD forward<_Ty2>(_Src));

  00003	ff 75 10	 push	 DWORD PTR __Src$[ebp]
  00006	8b 4d 08	 mov	 ecx, DWORD PTR __Alval$[ebp]
  00009	ff 75 0c	 push	 DWORD PTR __Pdest$[ebp]
  0000c	e8 00 00 00 00	 call	 ?construct@?$allocator@UFileDriveItem@@@std@@QAEXPAUFileDriveItem@@$$QAU3@@Z ; std::allocator<FileDriveItem>::construct

; 281  : 	}

  00011	5d		 pop	 ebp
  00012	c3		 ret	 0
??$_Cons_val@V?$allocator@UFileDriveItem@@@std@@UFileDriveItem@@U3@@std@@YAXAAV?$allocator@UFileDriveItem@@@0@PAUFileDriveItem@@$$QAU2@@Z ENDP ; std::_Cons_val<std::allocator<FileDriveItem>,FileDriveItem,FileDriveItem>
_TEXT	ENDS
PUBLIC	?destroy@?$allocator@UFileDriveItem@@@std@@QAEXPAUFileDriveItem@@@Z ; std::allocator<FileDriveItem>::destroy
; Function compile flags: /Ogsp
;	COMDAT ?destroy@?$allocator@UFileDriveItem@@@std@@QAEXPAUFileDriveItem@@@Z
_TEXT	SEGMENT
__Ptr$ = 8						; size = 4
?destroy@?$allocator@UFileDriveItem@@@std@@QAEXPAUFileDriveItem@@@Z PROC ; std::allocator<FileDriveItem>::destroy, COMDAT
; _this$ = ecx

; 212  : 		{	// destroy object at _Ptr

  00000	55		 push	 ebp
  00001	8b ec		 mov	 ebp, esp

; 213  : 		_Destroy(_Ptr);

  00003	8b 4d 08	 mov	 ecx, DWORD PTR __Ptr$[ebp]
  00006	ff 15 00 00 00
	00		 call	 DWORD PTR __imp_??1ioHashString@@QAE@XZ

; 214  : 		}

  0000c	5d		 pop	 ebp
  0000d	c2 04 00	 ret	 4
?destroy@?$allocator@UFileDriveItem@@@std@@QAEXPAUFileDriveItem@@@Z ENDP ; std::allocator<FileDriveItem>::destroy
_TEXT	ENDS
PUBLIC	?destroy@?$allocator@UFileInfo@FileListWnd@@@std@@QAEXPAUFileInfo@FileListWnd@@@Z ; std::allocator<FileListWnd::FileInfo>::destroy
; Function compile flags: /Ogsp
;	COMDAT ?destroy@?$allocator@UFileInfo@FileListWnd@@@std@@QAEXPAUFileInfo@FileListWnd@@@Z
_TEXT	SEGMENT
__Ptr$ = 8						; size = 4
?destroy@?$allocator@UFileInfo@FileListWnd@@@std@@QAEXPAUFileInfo@FileListWnd@@@Z PROC ; std::allocator<FileListWnd::FileInfo>::destroy, COMDAT
; _this$ = ecx

; 212  : 		{	// destroy object at _Ptr

  00000	55		 push	 ebp
  00001	8b ec		 mov	 ebp, esp

; 213  : 		_Destroy(_Ptr);

  00003	8b 4d 08	 mov	 ecx, DWORD PTR __Ptr$[ebp]
  00006	ff 15 00 00 00
	00		 call	 DWORD PTR __imp_??1ioHashString@@QAE@XZ

; 214  : 		}

  0000c	5d		 pop	 ebp
  0000d	c2 04 00	 ret	 4
?destroy@?$allocator@UFileInfo@FileListWnd@@@std@@QAEXPAUFileInfo@FileListWnd@@@Z ENDP ; std::allocator<FileListWnd::FileInfo>::destroy
_TEXT	ENDS
PUBLIC	??$iter_swap@PAUFileInfo@FileListWnd@@PAU12@@std@@YAXPAUFileInfo@FileListWnd@@0@Z ; std::iter_swap<FileListWnd::FileInfo *,FileListWnd::FileInfo *>
; Function compile flags: /Ogsp
; File c:\program files (x86)\microsoft visual studio 10.0\vc\include\xutility
;	COMDAT ??$iter_swap@PAUFileInfo@FileListWnd@@PAU12@@std@@YAXPAUFileInfo@FileListWnd@@0@Z
_TEXT	SEGMENT
__Left$ = 8						; size = 4
__Right$ = 12						; size = 4
??$iter_swap@PAUFileInfo@FileListWnd@@PAU12@@std@@YAXPAUFileInfo@FileListWnd@@0@Z PROC ; std::iter_swap<FileListWnd::FileInfo *,FileListWnd::FileInfo *>, COMDAT

; 2133 : 	{	// swap *_Left and *_Right

  00000	55		 push	 ebp
  00001	8b ec		 mov	 ebp, esp

; 2135 : 	}

  00003	5d		 pop	 ebp

; 2134 : 	swap(*_Left, *_Right);

  00004	e9 00 00 00 00	 jmp	 ??$swap@UFileInfo@FileListWnd@@@std@@YAXAAUFileInfo@FileListWnd@@0@Z ; std::swap<FileListWnd::FileInfo>
??$iter_swap@PAUFileInfo@FileListWnd@@PAU12@@std@@YAXPAUFileInfo@FileListWnd@@0@Z ENDP ; std::iter_swap<FileListWnd::FileInfo *,FileListWnd::FileInfo *>
_TEXT	ENDS
PUBLIC	??$_Make_heap@PAUFileInfo@FileListWnd@@HU12@VFileListInfoSort@@@std@@YAXPAUFileInfo@FileListWnd@@0VFileListInfoSort@@PAH0@Z ; std::_Make_heap<FileListWnd::FileInfo *,int,FileListWnd::FileInfo,FileListInfoSort>
;	COMDAT xdata$x
; File d:\lost saga for developer\youtube\tutorial\source\src\lsclient\gui\filelistwnd.cpp
xdata$x	SEGMENT
__unwindtable$??$_Make_heap@PAUFileInfo@FileListWnd@@HU12@VFileListInfoSort@@@std@@YAXPAUFileInfo@FileListWnd@@0VFileListInfoSort@@PAH0@Z DD 0ffffffffH
	DD	FLAT:__unwindfunclet$??$_Make_heap@PAUFileInfo@FileListWnd@@HU12@VFileListInfoSort@@@std@@YAXPAUFileInfo@FileListWnd@@0VFileListInfoSort@@PAH0@Z$0
__ehfuncinfo$??$_Make_heap@PAUFileInfo@FileListWnd@@HU12@VFileListInfoSort@@@std@@YAXPAUFileInfo@FileListWnd@@0VFileListInfoSort@@PAH0@Z DD 019930522H
	DD	01H
	DD	FLAT:__unwindtable$??$_Make_heap@PAUFileInfo@FileListWnd@@HU12@VFileListInfoSort@@@std@@YAXPAUFileInfo@FileListWnd@@0VFileListInfoSort@@PAH0@Z
	DD	2 DUP(00H)
	DD	2 DUP(00H)
	DD	00H
	DD	01H
; Function compile flags: /Ogsp
; File c:\program files (x86)\microsoft visual studio 10.0\vc\include\algorithm
xdata$x	ENDS
;	COMDAT ??$_Make_heap@PAUFileInfo@FileListWnd@@HU12@VFileListInfoSort@@@std@@YAXPAUFileInfo@FileListWnd@@0VFileListInfoSort@@PAH0@Z
_TEXT	SEGMENT
__Val$513068 = -32					; size = 20
__$EHRec$ = -12						; size = 12
__First$ = 8						; size = 4
__Last$ = 12						; size = 4
__Pred$ = 16						; size = 1
___formal$ = 20						; size = 4
___formal$ = 24						; size = 4
??$_Make_heap@PAUFileInfo@FileListWnd@@HU12@VFileListInfoSort@@@std@@YAXPAUFileInfo@FileListWnd@@0VFileListInfoSort@@PAH0@Z PROC ; std::_Make_heap<FileListWnd::FileInfo *,int,FileListWnd::FileInfo,FileListInfoSort>, COMDAT

; 2658 : 	{	// make nontrivial [_First, _Last) into a heap, using _Pred

  00000	6a 14		 push	 20			; 00000014H
  00002	b8 00 00 00 00	 mov	 eax, __ehhandler$??$_Make_heap@PAUFileInfo@FileListWnd@@HU12@VFileListInfoSort@@@std@@YAXPAUFileInfo@FileListWnd@@0VFileListInfoSort@@PAH0@Z
  00007	e8 00 00 00 00	 call	 __EH_prolog3

; 2659 : 	_Diff _Bottom = _Last - _First;

  0000c	8b 45 0c	 mov	 eax, DWORD PTR __Last$[ebp]
  0000f	2b 45 08	 sub	 eax, DWORD PTR __First$[ebp]
  00012	6a 14		 push	 20			; 00000014H
  00014	99		 cdq
  00015	59		 pop	 ecx
  00016	f7 f9		 idiv	 ecx
  00018	8b d8		 mov	 ebx, eax

; 2660 : 	for (_Diff _Hole = _Bottom / 2; 0 < _Hole; )

  0001a	99		 cdq
  0001b	2b c2		 sub	 eax, edx
  0001d	8b f8		 mov	 edi, eax
  0001f	d1 ff		 sar	 edi, 1
  00021	85 ff		 test	 edi, edi
  00023	7e 45		 jle	 SHORT $LN1@Make_heap

; 2659 : 	_Diff _Bottom = _Last - _First;

  00025	8b f7		 mov	 esi, edi
  00027	6b f6 14	 imul	 esi, 20			; 00000014H
  0002a	03 75 08	 add	 esi, DWORD PTR __First$[ebp]
$LN2@Make_heap:

; 2661 : 		{	// reheap top half, bottom to top
; 2662 : 		--_Hole;

  0002d	83 ee 14	 sub	 esi, 20			; 00000014H

; 2663 : 		_Ty _Val = _Move(*(_First + _Hole));

  00030	56		 push	 esi
  00031	8d 4d e0	 lea	 ecx, DWORD PTR __Val$513068[ebp]
  00034	4f		 dec	 edi
  00035	ff 15 00 00 00
	00		 call	 DWORD PTR __imp_??0ioHashString@@QAE@ABV0@@Z
  0003b	8a 46 10	 mov	 al, BYTE PTR [esi+16]
  0003e	88 45 f0	 mov	 BYTE PTR __Val$513068[ebp+16], al

; 2664 : 		_Adjust_heap(_First, _Hole, _Bottom,
; 2665 : 			_Move(_Val), _Pred);

  00041	ff 75 10	 push	 DWORD PTR __Pred$[ebp]
  00044	83 65 fc 00	 and	 DWORD PTR __$EHRec$[ebp+8], 0
  00048	8d 45 e0	 lea	 eax, DWORD PTR __Val$513068[ebp]
  0004b	50		 push	 eax
  0004c	53		 push	 ebx
  0004d	57		 push	 edi
  0004e	ff 75 08	 push	 DWORD PTR __First$[ebp]
  00051	e8 00 00 00 00	 call	 ??$_Adjust_heap@PAUFileInfo@FileListWnd@@HU12@VFileListInfoSort@@@std@@YAXPAUFileInfo@FileListWnd@@HH$$QAU12@VFileListInfoSort@@@Z ; std::_Adjust_heap<FileListWnd::FileInfo *,int,FileListWnd::FileInfo,FileListInfoSort>

; 2666 : 		}

  00056	83 4d fc ff	 or	 DWORD PTR __$EHRec$[ebp+8], -1
  0005a	83 c4 14	 add	 esp, 20			; 00000014H
  0005d	8d 4d e0	 lea	 ecx, DWORD PTR __Val$513068[ebp]
  00060	ff 15 00 00 00
	00		 call	 DWORD PTR __imp_??1ioHashString@@QAE@XZ
  00066	85 ff		 test	 edi, edi
  00068	7f c3		 jg	 SHORT $LN2@Make_heap
$LN1@Make_heap:

; 2667 : 	}

  0006a	e8 00 00 00 00	 call	 __EH_epilog3
  0006f	c3		 ret	 0
_TEXT	ENDS
;	COMDAT text$x
text$x	SEGMENT
__unwindfunclet$??$_Make_heap@PAUFileInfo@FileListWnd@@HU12@VFileListInfoSort@@@std@@YAXPAUFileInfo@FileListWnd@@0VFileListInfoSort@@PAH0@Z$0:
  00000	8d 4d e0	 lea	 ecx, DWORD PTR __Val$513068[ebp]
  00003	e9 00 00 00 00	 jmp	 ??1FileInfo@FileListWnd@@QAE@XZ
__ehhandler$??$_Make_heap@PAUFileInfo@FileListWnd@@HU12@VFileListInfoSort@@@std@@YAXPAUFileInfo@FileListWnd@@0VFileListInfoSort@@PAH0@Z:
  00008	8b 54 24 08	 mov	 edx, DWORD PTR [esp+8]
  0000c	8d 42 0c	 lea	 eax, DWORD PTR [edx+12]
  0000f	8b 4a dc	 mov	 ecx, DWORD PTR [edx-36]
  00012	33 c8		 xor	 ecx, eax
  00014	e8 00 00 00 00	 call	 @__security_check_cookie@4
  00019	b8 00 00 00 00	 mov	 eax, OFFSET __ehfuncinfo$??$_Make_heap@PAUFileInfo@FileListWnd@@HU12@VFileListInfoSort@@@std@@YAXPAUFileInfo@FileListWnd@@0VFileListInfoSort@@PAH0@Z
  0001e	e9 00 00 00 00	 jmp	 ___CxxFrameHandler3
text$x	ENDS
??$_Make_heap@PAUFileInfo@FileListWnd@@HU12@VFileListInfoSort@@@std@@YAXPAUFileInfo@FileListWnd@@0VFileListInfoSort@@PAH0@Z ENDP ; std::_Make_heap<FileListWnd::FileInfo *,int,FileListWnd::FileInfo,FileListInfoSort>
PUBLIC	??$_Insertion_sort1@PAUFileInfo@FileListWnd@@VFileListInfoSort@@U12@@std@@YAXPAUFileInfo@FileListWnd@@0VFileListInfoSort@@0@Z ; std::_Insertion_sort1<FileListWnd::FileInfo *,FileListInfoSort,FileListWnd::FileInfo>
;	COMDAT xdata$x
; File d:\lost saga for developer\youtube\tutorial\source\src\lsclient\gui\filelistwnd.cpp
xdata$x	SEGMENT
__unwindtable$??$_Insertion_sort1@PAUFileInfo@FileListWnd@@VFileListInfoSort@@U12@@std@@YAXPAUFileInfo@FileListWnd@@0VFileListInfoSort@@0@Z DD 0ffffffffH
	DD	FLAT:__unwindfunclet$??$_Insertion_sort1@PAUFileInfo@FileListWnd@@VFileListInfoSort@@U12@@std@@YAXPAUFileInfo@FileListWnd@@0VFileListInfoSort@@0@Z$0
__ehfuncinfo$??$_Insertion_sort1@PAUFileInfo@FileListWnd@@VFileListInfoSort@@U12@@std@@YAXPAUFileInfo@FileListWnd@@0VFileListInfoSort@@0@Z DD 019930522H
	DD	01H
	DD	FLAT:__unwindtable$??$_Insertion_sort1@PAUFileInfo@FileListWnd@@VFileListInfoSort@@U12@@std@@YAXPAUFileInfo@FileListWnd@@0VFileListInfoSort@@0@Z
	DD	2 DUP(00H)
	DD	2 DUP(00H)
	DD	00H
	DD	01H
; Function compile flags: /Ogsp
; File c:\program files (x86)\microsoft visual studio 10.0\vc\include\algorithm
xdata$x	ENDS
;	COMDAT ??$_Insertion_sort1@PAUFileInfo@FileListWnd@@VFileListInfoSort@@U12@@std@@YAXPAUFileInfo@FileListWnd@@0VFileListInfoSort@@0@Z
_TEXT	SEGMENT
__Val$513103 = -36					; size = 20
tv215 = -16						; size = 4
__$EHRec$ = -12						; size = 12
__Cat$516919 = 8					; size = 1
__First$ = 8						; size = 4
__Last$ = 12						; size = 4
__Pred$ = 16						; size = 1
___formal$ = 20						; size = 4
??$_Insertion_sort1@PAUFileInfo@FileListWnd@@VFileListInfoSort@@U12@@std@@YAXPAUFileInfo@FileListWnd@@0VFileListInfoSort@@0@Z PROC ; std::_Insertion_sort1<FileListWnd::FileInfo *,FileListInfoSort,FileListWnd::FileInfo>, COMDAT

; 3650 : 	{	// insertion sort [_First, _Last), using _Pred

  00000	6a 18		 push	 24			; 00000018H
  00002	b8 00 00 00 00	 mov	 eax, __ehhandler$??$_Insertion_sort1@PAUFileInfo@FileListWnd@@VFileListInfoSort@@U12@@std@@YAXPAUFileInfo@FileListWnd@@0VFileListInfoSort@@0@Z
  00007	e8 00 00 00 00	 call	 __EH_prolog3

; 3651 : 	if (_First != _Last)

  0000c	8b 7d 08	 mov	 edi, DWORD PTR __First$[ebp]
  0000f	3b 7d 0c	 cmp	 edi, DWORD PTR __Last$[ebp]
  00012	0f 84 bd 00 00
	00		 je	 $LN6@Insertion_

; 3652 : 		for (_BidIt _Next = _First; ++_Next != _Last; )

  00018	83 c7 14	 add	 edi, 20			; 00000014H
  0001b	3b 7d 0c	 cmp	 edi, DWORD PTR __Last$[ebp]
  0001e	0f 84 b1 00 00
	00		 je	 $LN6@Insertion_
  00024	8d 47 ec	 lea	 eax, DWORD PTR [edi-20]
  00027	89 45 f0	 mov	 DWORD PTR tv215[ebp], eax
$LN7@Insertion_:

; 3653 : 			{	// order next element
; 3654 : 			_BidIt _Next1 = _Next;
; 3655 : 			_Ty _Val = _Move(*_Next);

  0002a	57		 push	 edi
  0002b	8d 4d dc	 lea	 ecx, DWORD PTR __Val$513103[ebp]
  0002e	8b df		 mov	 ebx, edi
  00030	ff 15 00 00 00
	00		 call	 DWORD PTR __imp_??0ioHashString@@QAE@ABV0@@Z
  00036	8b 75 f0	 mov	 esi, DWORD PTR tv215[ebp]
  00039	8a 46 24	 mov	 al, BYTE PTR [esi+36]
  0003c	83 c6 28	 add	 esi, 40			; 00000028H
  0003f	88 45 ec	 mov	 BYTE PTR __Val$513103[ebp+16], al

; 3656 : 
; 3657 : 			if (_DEBUG_LT_PRED(_Pred, _Val, *_First))

  00042	ff 75 08	 push	 DWORD PTR __First$[ebp]
  00045	83 65 fc 00	 and	 DWORD PTR __$EHRec$[ebp+8], 0
  00049	8d 45 dc	 lea	 eax, DWORD PTR __Val$513103[ebp]
  0004c	50		 push	 eax
  0004d	8d 4d 10	 lea	 ecx, DWORD PTR __Pred$[ebp]
  00050	e8 00 00 00 00	 call	 ??RFileListInfoSort@@QBE_NABUFileInfo@FileListWnd@@0@Z ; FileListInfoSort::operator()
  00055	84 c0		 test	 al, al
  00057	74 25		 je	 SHORT $LN5@Insertion_

; 3658 : 				{	// found new earliest element, move to front
; 3659 : 				_Move_backward(_First, _Next, ++_Next1);

  00059	ff 75 08	 push	 DWORD PTR __Cat$516919[ebp]
  0005c	56		 push	 esi
  0005d	8b 75 08	 mov	 esi, DWORD PTR __First$[ebp]
  00060	57		 push	 edi
  00061	56		 push	 esi
  00062	e8 00 00 00 00	 call	 ??$_Move_backward@PAUFileInfo@FileListWnd@@PAU12@@std@@YAPAUFileInfo@FileListWnd@@PAU12@00U_Nonscalar_ptr_iterator_tag@0@@Z ; std::_Move_backward<FileListWnd::FileInfo *,FileListWnd::FileInfo *>
  00067	83 c4 10	 add	 esp, 16			; 00000010H

; 3660 : 				*_First = _Move(_Val);

  0006a	8d 45 dc	 lea	 eax, DWORD PTR __Val$513103[ebp]
  0006d	50		 push	 eax
  0006e	8b ce		 mov	 ecx, esi
  00070	ff 15 00 00 00
	00		 call	 DWORD PTR __imp_??4ioHashString@@QAEAAV0@ABV0@@Z
  00076	8a 45 ec	 mov	 al, BYTE PTR __Val$513103[ebp+16]
  00079	88 46 10	 mov	 BYTE PTR [esi+16], al

; 3661 : 				}
; 3662 : 			else

  0007c	eb 3a		 jmp	 SHORT $LN31@Insertion_
$LN5@Insertion_:

; 3663 : 				{	// look for insertion point after first
; 3664 : 				for (_BidIt _First1 = _Next1;
; 3665 : 					_DEBUG_LT_PRED(_Pred, _Val, *--_First1);
; 3666 : 					_Next1 = _First1)

  0007e	8b 75 f0	 mov	 esi, DWORD PTR tv215[ebp]
  00081	eb 12		 jmp	 SHORT $LN43@Insertion_
$LL3@Insertion_:

; 3667 : 					*_Next1 = _Move(*_First1);	// move hole down

  00083	56		 push	 esi
  00084	ff 15 00 00 00
	00		 call	 DWORD PTR __imp_??4ioHashString@@QAEAAV0@ABV0@@Z
  0008a	8a 46 10	 mov	 al, BYTE PTR [esi+16]
  0008d	88 43 10	 mov	 BYTE PTR [ebx+16], al
  00090	8b de		 mov	 ebx, esi
  00092	83 ee 14	 sub	 esi, 20			; 00000014H
$LN43@Insertion_:

; 3663 : 				{	// look for insertion point after first
; 3664 : 				for (_BidIt _First1 = _Next1;
; 3665 : 					_DEBUG_LT_PRED(_Pred, _Val, *--_First1);
; 3666 : 					_Next1 = _First1)

  00095	56		 push	 esi
  00096	8d 45 dc	 lea	 eax, DWORD PTR __Val$513103[ebp]
  00099	50		 push	 eax
  0009a	8d 4d 10	 lea	 ecx, DWORD PTR __Pred$[ebp]
  0009d	e8 00 00 00 00	 call	 ??RFileListInfoSort@@QBE_NABUFileInfo@FileListWnd@@0@Z ; FileListInfoSort::operator()

; 3668 : 				*_Next1 = _Move(_Val);	// insert element in hole

  000a2	8b cb		 mov	 ecx, ebx
  000a4	84 c0		 test	 al, al
  000a6	75 db		 jne	 SHORT $LL3@Insertion_
  000a8	8d 45 dc	 lea	 eax, DWORD PTR __Val$513103[ebp]
  000ab	50		 push	 eax
  000ac	ff 15 00 00 00
	00		 call	 DWORD PTR __imp_??4ioHashString@@QAEAAV0@ABV0@@Z
  000b2	8a 45 ec	 mov	 al, BYTE PTR __Val$513103[ebp+16]
  000b5	88 43 10	 mov	 BYTE PTR [ebx+16], al
$LN31@Insertion_:

; 3669 : 				}
; 3670 : 			}

  000b8	83 4d fc ff	 or	 DWORD PTR __$EHRec$[ebp+8], -1
  000bc	8d 4d dc	 lea	 ecx, DWORD PTR __Val$513103[ebp]
  000bf	ff 15 00 00 00
	00		 call	 DWORD PTR __imp_??1ioHashString@@QAE@XZ
  000c5	83 45 f0 14	 add	 DWORD PTR tv215[ebp], 20 ; 00000014H
  000c9	83 c7 14	 add	 edi, 20			; 00000014H
  000cc	3b 7d 0c	 cmp	 edi, DWORD PTR __Last$[ebp]
  000cf	0f 85 55 ff ff
	ff		 jne	 $LN7@Insertion_
$LN6@Insertion_:

; 3671 : 	}

  000d5	e8 00 00 00 00	 call	 __EH_epilog3
  000da	c3		 ret	 0
_TEXT	ENDS
;	COMDAT text$x
text$x	SEGMENT
__unwindfunclet$??$_Insertion_sort1@PAUFileInfo@FileListWnd@@VFileListInfoSort@@U12@@std@@YAXPAUFileInfo@FileListWnd@@0VFileListInfoSort@@0@Z$0:
  00000	8d 4d dc	 lea	 ecx, DWORD PTR __Val$513103[ebp]
  00003	e9 00 00 00 00	 jmp	 ??1FileInfo@FileListWnd@@QAE@XZ
__ehhandler$??$_Insertion_sort1@PAUFileInfo@FileListWnd@@VFileListInfoSort@@U12@@std@@YAXPAUFileInfo@FileListWnd@@0VFileListInfoSort@@0@Z:
  00008	8b 54 24 08	 mov	 edx, DWORD PTR [esp+8]
  0000c	8d 42 0c	 lea	 eax, DWORD PTR [edx+12]
  0000f	8b 4a d8	 mov	 ecx, DWORD PTR [edx-40]
  00012	33 c8		 xor	 ecx, eax
  00014	e8 00 00 00 00	 call	 @__security_check_cookie@4
  00019	b8 00 00 00 00	 mov	 eax, OFFSET __ehfuncinfo$??$_Insertion_sort1@PAUFileInfo@FileListWnd@@VFileListInfoSort@@U12@@std@@YAXPAUFileInfo@FileListWnd@@0VFileListInfoSort@@0@Z
  0001e	e9 00 00 00 00	 jmp	 ___CxxFrameHandler3
text$x	ENDS
??$_Insertion_sort1@PAUFileInfo@FileListWnd@@VFileListInfoSort@@U12@@std@@YAXPAUFileInfo@FileListWnd@@0VFileListInfoSort@@0@Z ENDP ; std::_Insertion_sort1<FileListWnd::FileInfo *,FileListInfoSort,FileListWnd::FileInfo>
PUBLIC	??$_Cons_val@V?$allocator@UFileInfo@FileListWnd@@@std@@UFileInfo@FileListWnd@@U34@@std@@YAXAAV?$allocator@UFileInfo@FileListWnd@@@0@PAUFileInfo@FileListWnd@@$$QAU23@@Z ; std::_Cons_val<std::allocator<FileListWnd::FileInfo>,FileListWnd::FileInfo,FileListWnd::FileInfo>
; Function compile flags: /Ogsp
; File c:\program files (x86)\microsoft visual studio 10.0\vc\include\xmemory
;	COMDAT ??$_Cons_val@V?$allocator@UFileInfo@FileListWnd@@@std@@UFileInfo@FileListWnd@@U34@@std@@YAXAAV?$allocator@UFileInfo@FileListWnd@@@0@PAUFileInfo@FileListWnd@@$$QAU23@@Z
_TEXT	SEGMENT
__Alval$ = 8						; size = 4
__Pdest$ = 12						; size = 4
__Src$ = 16						; size = 4
??$_Cons_val@V?$allocator@UFileInfo@FileListWnd@@@std@@UFileInfo@FileListWnd@@U34@@std@@YAXAAV?$allocator@UFileInfo@FileListWnd@@@0@PAUFileInfo@FileListWnd@@$$QAU23@@Z PROC ; std::_Cons_val<std::allocator<FileListWnd::FileInfo>,FileListWnd::FileInfo,FileListWnd::FileInfo>, COMDAT

; 279  : 	{	// construct using allocator

  00000	55		 push	 ebp
  00001	8b ec		 mov	 ebp, esp

; 280  : 	_Alval.construct(_Pdest, _STD forward<_Ty2>(_Src));

  00003	ff 75 10	 push	 DWORD PTR __Src$[ebp]
  00006	8b 4d 08	 mov	 ecx, DWORD PTR __Alval$[ebp]
  00009	ff 75 0c	 push	 DWORD PTR __Pdest$[ebp]
  0000c	e8 00 00 00 00	 call	 ?construct@?$allocator@UFileInfo@FileListWnd@@@std@@QAEXPAUFileInfo@FileListWnd@@$$QAU34@@Z ; std::allocator<FileListWnd::FileInfo>::construct

; 281  : 	}

  00011	5d		 pop	 ebp
  00012	c3		 ret	 0
??$_Cons_val@V?$allocator@UFileInfo@FileListWnd@@@std@@UFileInfo@FileListWnd@@U34@@std@@YAXAAV?$allocator@UFileInfo@FileListWnd@@@0@PAUFileInfo@FileListWnd@@$$QAU23@@Z ENDP ; std::_Cons_val<std::allocator<FileListWnd::FileInfo>,FileListWnd::FileInfo,FileListWnd::FileInfo>
_TEXT	ENDS
PUBLIC	??$_Med3@PAUFileInfo@FileListWnd@@VFileListInfoSort@@@std@@YAXPAUFileInfo@FileListWnd@@00VFileListInfoSort@@@Z ; std::_Med3<FileListWnd::FileInfo *,FileListInfoSort>
; Function compile flags: /Ogsp
; File c:\program files (x86)\microsoft visual studio 10.0\vc\include\algorithm
;	COMDAT ??$_Med3@PAUFileInfo@FileListWnd@@VFileListInfoSort@@@std@@YAXPAUFileInfo@FileListWnd@@00VFileListInfoSort@@@Z
_TEXT	SEGMENT
__First$ = 8						; size = 4
__Mid$ = 12						; size = 4
__Last$ = 16						; size = 4
__Pred$ = 20						; size = 1
??$_Med3@PAUFileInfo@FileListWnd@@VFileListInfoSort@@@std@@YAXPAUFileInfo@FileListWnd@@00VFileListInfoSort@@@Z PROC ; std::_Med3<FileListWnd::FileInfo *,FileListInfoSort>, COMDAT

; 3683 : 	{	// sort median of three elements to middle

  00000	55		 push	 ebp
  00001	8b ec		 mov	 ebp, esp
  00003	56		 push	 esi

; 3684 : 	if (_DEBUG_LT_PRED(_Pred, *_Mid, *_First))

  00004	8b 75 0c	 mov	 esi, DWORD PTR __Mid$[ebp]
  00007	57		 push	 edi
  00008	8b 7d 08	 mov	 edi, DWORD PTR __First$[ebp]
  0000b	57		 push	 edi
  0000c	56		 push	 esi
  0000d	8d 4d 14	 lea	 ecx, DWORD PTR __Pred$[ebp]
  00010	e8 00 00 00 00	 call	 ??RFileListInfoSort@@QBE_NABUFileInfo@FileListWnd@@0@Z ; FileListInfoSort::operator()
  00015	84 c0		 test	 al, al
  00017	74 09		 je	 SHORT $LN6@Med3

; 3685 : 		_STD iter_swap(_Mid, _First);

  00019	57		 push	 edi
  0001a	56		 push	 esi
  0001b	e8 00 00 00 00	 call	 ??$swap@UFileInfo@FileListWnd@@@std@@YAXAAUFileInfo@FileListWnd@@0@Z ; std::swap<FileListWnd::FileInfo>
  00020	59		 pop	 ecx
  00021	59		 pop	 ecx
$LN6@Med3:

; 3686 : 	if (_DEBUG_LT_PRED(_Pred, *_Last, *_Mid))

  00022	56		 push	 esi
  00023	ff 75 10	 push	 DWORD PTR __Last$[ebp]
  00026	8d 4d 14	 lea	 ecx, DWORD PTR __Pred$[ebp]
  00029	e8 00 00 00 00	 call	 ??RFileListInfoSort@@QBE_NABUFileInfo@FileListWnd@@0@Z ; FileListInfoSort::operator()
  0002e	84 c0		 test	 al, al
  00030	74 0b		 je	 SHORT $LN8@Med3

; 3687 : 		_STD iter_swap(_Last, _Mid);

  00032	56		 push	 esi
  00033	ff 75 10	 push	 DWORD PTR __Last$[ebp]
  00036	e8 00 00 00 00	 call	 ??$swap@UFileInfo@FileListWnd@@@std@@YAXAAUFileInfo@FileListWnd@@0@Z ; std::swap<FileListWnd::FileInfo>
  0003b	59		 pop	 ecx
  0003c	59		 pop	 ecx
$LN8@Med3:

; 3688 : 	if (_DEBUG_LT_PRED(_Pred, *_Mid, *_First))

  0003d	57		 push	 edi
  0003e	56		 push	 esi
  0003f	8d 4d 14	 lea	 ecx, DWORD PTR __Pred$[ebp]
  00042	e8 00 00 00 00	 call	 ??RFileListInfoSort@@QBE_NABUFileInfo@FileListWnd@@0@Z ; FileListInfoSort::operator()
  00047	84 c0		 test	 al, al
  00049	74 09		 je	 SHORT $LN10@Med3

; 3689 : 		_STD iter_swap(_Mid, _First);

  0004b	57		 push	 edi
  0004c	56		 push	 esi
  0004d	e8 00 00 00 00	 call	 ??$swap@UFileInfo@FileListWnd@@@std@@YAXAAUFileInfo@FileListWnd@@0@Z ; std::swap<FileListWnd::FileInfo>
  00052	59		 pop	 ecx
  00053	59		 pop	 ecx
$LN10@Med3:
  00054	5f		 pop	 edi
  00055	5e		 pop	 esi

; 3690 : 	}

  00056	5d		 pop	 ebp
  00057	c3		 ret	 0
??$_Med3@PAUFileInfo@FileListWnd@@VFileListInfoSort@@@std@@YAXPAUFileInfo@FileListWnd@@00VFileListInfoSort@@@Z ENDP ; std::_Med3<FileListWnd::FileInfo *,FileListInfoSort>
_TEXT	ENDS
PUBLIC	??$_Pop_heap_0@PAUFileInfo@FileListWnd@@U12@VFileListInfoSort@@@std@@YAXPAUFileInfo@FileListWnd@@0VFileListInfoSort@@0@Z ; std::_Pop_heap_0<FileListWnd::FileInfo *,FileListWnd::FileInfo,FileListInfoSort>
;	COMDAT xdata$x
; File d:\lost saga for developer\youtube\tutorial\source\src\lsclient\gui\filelistwnd.cpp
xdata$x	SEGMENT
__unwindtable$??$_Pop_heap_0@PAUFileInfo@FileListWnd@@U12@VFileListInfoSort@@@std@@YAXPAUFileInfo@FileListWnd@@0VFileListInfoSort@@0@Z DD 0ffffffffH
	DD	FLAT:__unwindfunclet$??$_Pop_heap_0@PAUFileInfo@FileListWnd@@U12@VFileListInfoSort@@@std@@YAXPAUFileInfo@FileListWnd@@0VFileListInfoSort@@0@Z$0
__ehfuncinfo$??$_Pop_heap_0@PAUFileInfo@FileListWnd@@U12@VFileListInfoSort@@@std@@YAXPAUFileInfo@FileListWnd@@0VFileListInfoSort@@0@Z DD 019930522H
	DD	01H
	DD	FLAT:__unwindtable$??$_Pop_heap_0@PAUFileInfo@FileListWnd@@U12@VFileListInfoSort@@@std@@YAXPAUFileInfo@FileListWnd@@0VFileListInfoSort@@0@Z
	DD	2 DUP(00H)
	DD	2 DUP(00H)
	DD	00H
	DD	01H
; Function compile flags: /Ogsp
; File c:\program files (x86)\microsoft visual studio 10.0\vc\include\algorithm
xdata$x	ENDS
;	COMDAT ??$_Pop_heap_0@PAUFileInfo@FileListWnd@@U12@VFileListInfoSort@@@std@@YAXPAUFileInfo@FileListWnd@@0VFileListInfoSort@@0@Z
_TEXT	SEGMENT
__Val$ = -32						; size = 20
__$EHRec$ = -12						; size = 12
__First$ = 8						; size = 4
__Last$ = 12						; size = 4
__Pred$ = 16						; size = 1
___formal$ = 20						; size = 4
??$_Pop_heap_0@PAUFileInfo@FileListWnd@@U12@VFileListInfoSort@@@std@@YAXPAUFileInfo@FileListWnd@@0VFileListInfoSort@@0@Z PROC ; std::_Pop_heap_0<FileListWnd::FileInfo *,FileListWnd::FileInfo,FileListInfoSort>, COMDAT

; 2601 : 	{	// pop *_First to *(_Last - 1) and reheap, using _Pred

  00000	6a 14		 push	 20			; 00000014H
  00002	b8 00 00 00 00	 mov	 eax, __ehhandler$??$_Pop_heap_0@PAUFileInfo@FileListWnd@@U12@VFileListInfoSort@@@std@@YAXPAUFileInfo@FileListWnd@@0VFileListInfoSort@@0@Z
  00007	e8 00 00 00 00	 call	 __EH_prolog3

; 2602 : 	_Ty _Val = _Move(*(_Last - 1));

  0000c	8b 75 0c	 mov	 esi, DWORD PTR __Last$[ebp]
  0000f	83 c6 ec	 add	 esi, -20		; ffffffecH
  00012	56		 push	 esi
  00013	8d 4d e0	 lea	 ecx, DWORD PTR __Val$[ebp]
  00016	ff 15 00 00 00
	00		 call	 DWORD PTR __imp_??0ioHashString@@QAE@ABV0@@Z
  0001c	8a 46 10	 mov	 al, BYTE PTR [esi+16]
  0001f	88 45 f0	 mov	 BYTE PTR __Val$[ebp+16], al
  00022	83 65 fc 00	 and	 DWORD PTR __$EHRec$[ebp+8], 0

; 2603 : 	_Pop_heap(_First, _Last - 1, _Last - 1,
; 2604 : 		_Move(_Val), _Pred, _Dist_type(_First));

  00026	6a 00		 push	 0
  00028	ff 75 10	 push	 DWORD PTR __Pred$[ebp]
  0002b	8d 45 e0	 lea	 eax, DWORD PTR __Val$[ebp]
  0002e	50		 push	 eax
  0002f	56		 push	 esi
  00030	56		 push	 esi
  00031	ff 75 08	 push	 DWORD PTR __First$[ebp]
  00034	e8 00 00 00 00	 call	 ??$_Pop_heap@PAUFileInfo@FileListWnd@@HU12@VFileListInfoSort@@@std@@YAXPAUFileInfo@FileListWnd@@00$$QAU12@VFileListInfoSort@@PAH@Z ; std::_Pop_heap<FileListWnd::FileInfo *,int,FileListWnd::FileInfo,FileListInfoSort>

; 2605 : 	}

  00039	83 4d fc ff	 or	 DWORD PTR __$EHRec$[ebp+8], -1
  0003d	83 c4 18	 add	 esp, 24			; 00000018H
  00040	8d 4d e0	 lea	 ecx, DWORD PTR __Val$[ebp]
  00043	ff 15 00 00 00
	00		 call	 DWORD PTR __imp_??1ioHashString@@QAE@XZ
  00049	e8 00 00 00 00	 call	 __EH_epilog3
  0004e	c3		 ret	 0
_TEXT	ENDS
;	COMDAT text$x
text$x	SEGMENT
__unwindfunclet$??$_Pop_heap_0@PAUFileInfo@FileListWnd@@U12@VFileListInfoSort@@@std@@YAXPAUFileInfo@FileListWnd@@0VFileListInfoSort@@0@Z$0:
  00000	8d 4d e0	 lea	 ecx, DWORD PTR __Val$[ebp]
  00003	e9 00 00 00 00	 jmp	 ??1FileInfo@FileListWnd@@QAE@XZ
__ehhandler$??$_Pop_heap_0@PAUFileInfo@FileListWnd@@U12@VFileListInfoSort@@@std@@YAXPAUFileInfo@FileListWnd@@0VFileListInfoSort@@0@Z:
  00008	8b 54 24 08	 mov	 edx, DWORD PTR [esp+8]
  0000c	8d 42 0c	 lea	 eax, DWORD PTR [edx+12]
  0000f	8b 4a dc	 mov	 ecx, DWORD PTR [edx-36]
  00012	33 c8		 xor	 ecx, eax
  00014	e8 00 00 00 00	 call	 @__security_check_cookie@4
  00019	b8 00 00 00 00	 mov	 eax, OFFSET __ehfuncinfo$??$_Pop_heap_0@PAUFileInfo@FileListWnd@@U12@VFileListInfoSort@@@std@@YAXPAUFileInfo@FileListWnd@@0VFileListInfoSort@@0@Z
  0001e	e9 00 00 00 00	 jmp	 ___CxxFrameHandler3
text$x	ENDS
??$_Pop_heap_0@PAUFileInfo@FileListWnd@@U12@VFileListInfoSort@@@std@@YAXPAUFileInfo@FileListWnd@@0VFileListInfoSort@@0@Z ENDP ; std::_Pop_heap_0<FileListWnd::FileInfo *,FileListWnd::FileInfo,FileListInfoSort>
PUBLIC	??0?$vector@VioHashString@@V?$allocator@VioHashString@@@std@@@std@@QAE@XZ ; std::vector<ioHashString,std::allocator<ioHashString> >::vector<ioHashString,std::allocator<ioHashString> >
; Function compile flags: /Ogsp
; File c:\program files (x86)\microsoft visual studio 10.0\vc\include\vector
;	COMDAT ??0?$vector@VioHashString@@V?$allocator@VioHashString@@@std@@@std@@QAE@XZ
_TEXT	SEGMENT
??0?$vector@VioHashString@@V?$allocator@VioHashString@@@std@@@std@@QAE@XZ PROC ; std::vector<ioHashString,std::allocator<ioHashString> >::vector<ioHashString,std::allocator<ioHashString> >, COMDAT
; _this$ = ecx

; 507  : 		{	// construct empty vector

  00000	8b c1		 mov	 eax, ecx
  00002	33 c9		 xor	 ecx, ecx
  00004	89 08		 mov	 DWORD PTR [eax], ecx
  00006	89 48 04	 mov	 DWORD PTR [eax+4], ecx
  00009	89 48 08	 mov	 DWORD PTR [eax+8], ecx

; 508  : 		}

  0000c	c3		 ret	 0
??0?$vector@VioHashString@@V?$allocator@VioHashString@@@std@@@std@@QAE@XZ ENDP ; std::vector<ioHashString,std::allocator<ioHashString> >::vector<ioHashString,std::allocator<ioHashString> >
_TEXT	ENDS
PUBLIC	?destroy@?$allocator@VioHashString@@@std@@QAEXPAVioHashString@@@Z ; std::allocator<ioHashString>::destroy
; Function compile flags: /Ogsp
; File c:\program files (x86)\microsoft visual studio 10.0\vc\include\xmemory
;	COMDAT ?destroy@?$allocator@VioHashString@@@std@@QAEXPAVioHashString@@@Z
_TEXT	SEGMENT
__Ptr$ = 8						; size = 4
?destroy@?$allocator@VioHashString@@@std@@QAEXPAVioHashString@@@Z PROC ; std::allocator<ioHashString>::destroy, COMDAT
; _this$ = ecx

; 212  : 		{	// destroy object at _Ptr

  00000	55		 push	 ebp
  00001	8b ec		 mov	 ebp, esp

; 213  : 		_Destroy(_Ptr);

  00003	8b 4d 08	 mov	 ecx, DWORD PTR __Ptr$[ebp]
  00006	ff 15 00 00 00
	00		 call	 DWORD PTR __imp_??1ioHashString@@QAE@XZ

; 214  : 		}

  0000c	5d		 pop	 ebp
  0000d	c2 04 00	 ret	 4
?destroy@?$allocator@VioHashString@@@std@@QAEXPAVioHashString@@@Z ENDP ; std::allocator<ioHashString>::destroy
_TEXT	ENDS
PUBLIC	??$_Cons_val@V?$allocator@UFileInfo@FileListWnd@@@std@@UFileInfo@FileListWnd@@ABU34@@std@@YAXAAV?$allocator@UFileInfo@FileListWnd@@@0@PAUFileInfo@FileListWnd@@ABU23@@Z ; std::_Cons_val<std::allocator<FileListWnd::FileInfo>,FileListWnd::FileInfo,FileListWnd::FileInfo const &>
; Function compile flags: /Ogsp
;	COMDAT ??$_Cons_val@V?$allocator@UFileInfo@FileListWnd@@@std@@UFileInfo@FileListWnd@@ABU34@@std@@YAXAAV?$allocator@UFileInfo@FileListWnd@@@0@PAUFileInfo@FileListWnd@@ABU23@@Z
_TEXT	SEGMENT
__Alval$ = 8						; size = 4
__Pdest$ = 12						; size = 4
__Src$ = 16						; size = 4
??$_Cons_val@V?$allocator@UFileInfo@FileListWnd@@@std@@UFileInfo@FileListWnd@@ABU34@@std@@YAXAAV?$allocator@UFileInfo@FileListWnd@@@0@PAUFileInfo@FileListWnd@@ABU23@@Z PROC ; std::_Cons_val<std::allocator<FileListWnd::FileInfo>,FileListWnd::FileInfo,FileListWnd::FileInfo const &>, COMDAT

; 279  : 	{	// construct using allocator

  00000	55		 push	 ebp
  00001	8b ec		 mov	 ebp, esp

; 280  : 	_Alval.construct(_Pdest, _STD forward<_Ty2>(_Src));

  00003	ff 75 10	 push	 DWORD PTR __Src$[ebp]
  00006	ff 75 0c	 push	 DWORD PTR __Pdest$[ebp]
  00009	e8 00 00 00 00	 call	 ??$_Construct@UFileInfo@FileListWnd@@ABU12@@std@@YAXPAUFileInfo@FileListWnd@@ABU12@@Z ; std::_Construct<FileListWnd::FileInfo,FileListWnd::FileInfo const &>
  0000e	59		 pop	 ecx
  0000f	59		 pop	 ecx

; 281  : 	}

  00010	5d		 pop	 ebp
  00011	c3		 ret	 0
??$_Cons_val@V?$allocator@UFileInfo@FileListWnd@@@std@@UFileInfo@FileListWnd@@ABU34@@std@@YAXAAV?$allocator@UFileInfo@FileListWnd@@@0@PAUFileInfo@FileListWnd@@ABU23@@Z ENDP ; std::_Cons_val<std::allocator<FileListWnd::FileInfo>,FileListWnd::FileInfo,FileListWnd::FileInfo const &>
_TEXT	ENDS
PUBLIC	??$make_heap@PAUFileInfo@FileListWnd@@VFileListInfoSort@@@std@@YAXPAUFileInfo@FileListWnd@@0VFileListInfoSort@@@Z ; std::make_heap<FileListWnd::FileInfo *,FileListInfoSort>
; Function compile flags: /Ogsp
; File c:\program files (x86)\microsoft visual studio 10.0\vc\include\algorithm
;	COMDAT ??$make_heap@PAUFileInfo@FileListWnd@@VFileListInfoSort@@@std@@YAXPAUFileInfo@FileListWnd@@0VFileListInfoSort@@@Z
_TEXT	SEGMENT
__First$ = 8						; size = 4
__Last$ = 12						; size = 4
__Pred$ = 16						; size = 1
??$make_heap@PAUFileInfo@FileListWnd@@VFileListInfoSort@@@std@@YAXPAUFileInfo@FileListWnd@@0VFileListInfoSort@@@Z PROC ; std::make_heap<FileListWnd::FileInfo *,FileListInfoSort>, COMDAT

; 2672 : 	{	// make [_First, _Last) into a heap, using _Pred

  00000	55		 push	 ebp
  00001	8b ec		 mov	 ebp, esp

; 2673 : 	_DEBUG_RANGE(_First, _Last);
; 2674 : 	_DEBUG_POINTER(_Pred);
; 2675 : 	if (1 < _Last - _First)

  00003	8b 45 0c	 mov	 eax, DWORD PTR __Last$[ebp]
  00006	2b 45 08	 sub	 eax, DWORD PTR __First$[ebp]
  00009	6a 14		 push	 20			; 00000014H
  0000b	99		 cdq
  0000c	59		 pop	 ecx
  0000d	f7 f9		 idiv	 ecx
  0000f	83 f8 01	 cmp	 eax, 1
  00012	7e 15		 jle	 SHORT $LN1@make_heap

; 2676 : 		_Make_heap(_Unchecked(_First), _Unchecked(_Last), _Pred,
; 2677 : 			_Dist_type(_First), _Val_type(_First));

  00014	6a 00		 push	 0
  00016	6a 00		 push	 0
  00018	ff 75 10	 push	 DWORD PTR __Pred$[ebp]
  0001b	ff 75 0c	 push	 DWORD PTR __Last$[ebp]
  0001e	ff 75 08	 push	 DWORD PTR __First$[ebp]
  00021	e8 00 00 00 00	 call	 ??$_Make_heap@PAUFileInfo@FileListWnd@@HU12@VFileListInfoSort@@@std@@YAXPAUFileInfo@FileListWnd@@0VFileListInfoSort@@PAH0@Z ; std::_Make_heap<FileListWnd::FileInfo *,int,FileListWnd::FileInfo,FileListInfoSort>
  00026	83 c4 14	 add	 esp, 20			; 00000014H
$LN1@make_heap:

; 2678 : 	}

  00029	5d		 pop	 ebp
  0002a	c3		 ret	 0
??$make_heap@PAUFileInfo@FileListWnd@@VFileListInfoSort@@@std@@YAXPAUFileInfo@FileListWnd@@0VFileListInfoSort@@@Z ENDP ; std::make_heap<FileListWnd::FileInfo *,FileListInfoSort>
_TEXT	ENDS
PUBLIC	??$_Insertion_sort@PAUFileInfo@FileListWnd@@VFileListInfoSort@@@std@@YAXPAUFileInfo@FileListWnd@@0VFileListInfoSort@@@Z ; std::_Insertion_sort<FileListWnd::FileInfo *,FileListInfoSort>
; Function compile flags: /Ogsp
;	COMDAT ??$_Insertion_sort@PAUFileInfo@FileListWnd@@VFileListInfoSort@@@std@@YAXPAUFileInfo@FileListWnd@@0VFileListInfoSort@@@Z
_TEXT	SEGMENT
__First$ = 8						; size = 4
__Last$ = 12						; size = 4
__Pred$ = 16						; size = 1
??$_Insertion_sort@PAUFileInfo@FileListWnd@@VFileListInfoSort@@@std@@YAXPAUFileInfo@FileListWnd@@0VFileListInfoSort@@@Z PROC ; std::_Insertion_sort<FileListWnd::FileInfo *,FileListInfoSort>, COMDAT

; 3676 : 	{	// insertion sort [_First, _Last), using _Pred

  00000	55		 push	 ebp
  00001	8b ec		 mov	 ebp, esp

; 3677 : 	_Insertion_sort1(_First, _Last, _Pred, _Val_type(_First));

  00003	6a 00		 push	 0
  00005	ff 75 10	 push	 DWORD PTR __Pred$[ebp]
  00008	ff 75 0c	 push	 DWORD PTR __Last$[ebp]
  0000b	ff 75 08	 push	 DWORD PTR __First$[ebp]
  0000e	e8 00 00 00 00	 call	 ??$_Insertion_sort1@PAUFileInfo@FileListWnd@@VFileListInfoSort@@U12@@std@@YAXPAUFileInfo@FileListWnd@@0VFileListInfoSort@@0@Z ; std::_Insertion_sort1<FileListWnd::FileInfo *,FileListInfoSort,FileListWnd::FileInfo>
  00013	83 c4 10	 add	 esp, 16			; 00000010H

; 3678 : 	}

  00016	5d		 pop	 ebp
  00017	c3		 ret	 0
??$_Insertion_sort@PAUFileInfo@FileListWnd@@VFileListInfoSort@@@std@@YAXPAUFileInfo@FileListWnd@@0VFileListInfoSort@@@Z ENDP ; std::_Insertion_sort<FileListWnd::FileInfo *,FileListInfoSort>
_TEXT	ENDS
PUBLIC	??$_Dest_val@V?$allocator@UFileDriveItem@@@std@@UFileDriveItem@@@std@@YAXAAV?$allocator@UFileDriveItem@@@0@PAUFileDriveItem@@@Z ; std::_Dest_val<std::allocator<FileDriveItem>,FileDriveItem>
; Function compile flags: /Ogsp
; File c:\program files (x86)\microsoft visual studio 10.0\vc\include\xmemory
;	COMDAT ??$_Dest_val@V?$allocator@UFileDriveItem@@@std@@UFileDriveItem@@@std@@YAXAAV?$allocator@UFileDriveItem@@@0@PAUFileDriveItem@@@Z
_TEXT	SEGMENT
__Alval$ = 8						; size = 4
__Pdest$ = 12						; size = 4
??$_Dest_val@V?$allocator@UFileDriveItem@@@std@@UFileDriveItem@@@std@@YAXAAV?$allocator@UFileDriveItem@@@0@PAUFileDriveItem@@@Z PROC ; std::_Dest_val<std::allocator<FileDriveItem>,FileDriveItem>, COMDAT

; 286  : 	{	// destroy using allocator

  00000	55		 push	 ebp
  00001	8b ec		 mov	 ebp, esp

; 287  : 	_Alval.destroy(_Pdest);

  00003	8b 4d 0c	 mov	 ecx, DWORD PTR __Pdest$[ebp]

; 288  : 	}

  00006	5d		 pop	 ebp

; 287  : 	_Alval.destroy(_Pdest);

  00007	ff 25 00 00 00
	00		 jmp	 DWORD PTR __imp_??1ioHashString@@QAE@XZ
??$_Dest_val@V?$allocator@UFileDriveItem@@@std@@UFileDriveItem@@@std@@YAXAAV?$allocator@UFileDriveItem@@@0@PAUFileDriveItem@@@Z ENDP ; std::_Dest_val<std::allocator<FileDriveItem>,FileDriveItem>
_TEXT	ENDS
PUBLIC	??$_Dest_val@V?$allocator@UFileInfo@FileListWnd@@@std@@UFileInfo@FileListWnd@@@std@@YAXAAV?$allocator@UFileInfo@FileListWnd@@@0@PAUFileInfo@FileListWnd@@@Z ; std::_Dest_val<std::allocator<FileListWnd::FileInfo>,FileListWnd::FileInfo>
; Function compile flags: /Ogsp
;	COMDAT ??$_Dest_val@V?$allocator@UFileInfo@FileListWnd@@@std@@UFileInfo@FileListWnd@@@std@@YAXAAV?$allocator@UFileInfo@FileListWnd@@@0@PAUFileInfo@FileListWnd@@@Z
_TEXT	SEGMENT
__Alval$ = 8						; size = 4
__Pdest$ = 12						; size = 4
??$_Dest_val@V?$allocator@UFileInfo@FileListWnd@@@std@@UFileInfo@FileListWnd@@@std@@YAXAAV?$allocator@UFileInfo@FileListWnd@@@0@PAUFileInfo@FileListWnd@@@Z PROC ; std::_Dest_val<std::allocator<FileListWnd::FileInfo>,FileListWnd::FileInfo>, COMDAT

; 286  : 	{	// destroy using allocator

  00000	55		 push	 ebp
  00001	8b ec		 mov	 ebp, esp

; 287  : 	_Alval.destroy(_Pdest);

  00003	8b 4d 0c	 mov	 ecx, DWORD PTR __Pdest$[ebp]

; 288  : 	}

  00006	5d		 pop	 ebp

; 287  : 	_Alval.destroy(_Pdest);

  00007	ff 25 00 00 00
	00		 jmp	 DWORD PTR __imp_??1ioHashString@@QAE@XZ
??$_Dest_val@V?$allocator@UFileInfo@FileListWnd@@@std@@UFileInfo@FileListWnd@@@std@@YAXAAV?$allocator@UFileInfo@FileListWnd@@@0@PAUFileInfo@FileListWnd@@@Z ENDP ; std::_Dest_val<std::allocator<FileListWnd::FileInfo>,FileListWnd::FileInfo>
_TEXT	ENDS
PUBLIC	??$_Median@PAUFileInfo@FileListWnd@@VFileListInfoSort@@@std@@YAXPAUFileInfo@FileListWnd@@00VFileListInfoSort@@@Z ; std::_Median<FileListWnd::FileInfo *,FileListInfoSort>
; Function compile flags: /Ogsp
; File c:\program files (x86)\microsoft visual studio 10.0\vc\include\algorithm
;	COMDAT ??$_Median@PAUFileInfo@FileListWnd@@VFileListInfoSort@@@std@@YAXPAUFileInfo@FileListWnd@@00VFileListInfoSort@@@Z
_TEXT	SEGMENT
tv200 = 8						; size = 4
__First$ = 8						; size = 4
__Mid$ = 12						; size = 4
tv203 = 16						; size = 4
__Last$ = 16						; size = 4
__Pred$ = 20						; size = 1
??$_Median@PAUFileInfo@FileListWnd@@VFileListInfoSort@@@std@@YAXPAUFileInfo@FileListWnd@@00VFileListInfoSort@@@Z PROC ; std::_Median<FileListWnd::FileInfo *,FileListInfoSort>, COMDAT

; 3695 : 	{	// sort median element to middle

  00000	55		 push	 ebp
  00001	8b ec		 mov	 ebp, esp

; 3696 : 	if (40 < _Last - _First)

  00003	8b 4d 08	 mov	 ecx, DWORD PTR __First$[ebp]
  00006	53		 push	 ebx
  00007	8b 5d 10	 mov	 ebx, DWORD PTR __Last$[ebp]
  0000a	56		 push	 esi
  0000b	8b c3		 mov	 eax, ebx
  0000d	2b c1		 sub	 eax, ecx
  0000f	6a 14		 push	 20			; 00000014H
  00011	99		 cdq
  00012	5e		 pop	 esi
  00013	f7 fe		 idiv	 esi
  00015	83 f8 28	 cmp	 eax, 40			; 00000028H
  00018	7e 68		 jle	 SHORT $LN2@Median

; 3697 : 		{	// median of nine
; 3698 : 		size_t _Step = (_Last - _First + 1) / 8;

  0001a	40		 inc	 eax
  0001b	99		 cdq
  0001c	83 e2 07	 and	 edx, 7
  0001f	03 c2		 add	 eax, edx
  00021	57		 push	 edi

; 3699 : 		_Med3(_First, _First + _Step, _First + 2 * _Step, _Pred);

  00022	ff 75 14	 push	 DWORD PTR __Pred$[ebp]
  00025	c1 f8 03	 sar	 eax, 3
  00028	8b f8		 mov	 edi, eax
  0002a	8b f0		 mov	 esi, eax
  0002c	6b ff 28	 imul	 edi, 40			; 00000028H
  0002f	6b f6 14	 imul	 esi, 20			; 00000014H
  00032	8d 14 0f	 lea	 edx, DWORD PTR [edi+ecx]
  00035	8d 04 0e	 lea	 eax, DWORD PTR [esi+ecx]
  00038	52		 push	 edx
  00039	50		 push	 eax
  0003a	51		 push	 ecx
  0003b	89 45 08	 mov	 DWORD PTR tv200[ebp], eax
  0003e	e8 00 00 00 00	 call	 ??$_Med3@PAUFileInfo@FileListWnd@@VFileListInfoSort@@@std@@YAXPAUFileInfo@FileListWnd@@00VFileListInfoSort@@@Z ; std::_Med3<FileListWnd::FileInfo *,FileListInfoSort>

; 3700 : 		_Med3(_Mid - _Step, _Mid, _Mid + _Step, _Pred);

  00043	ff 75 14	 push	 DWORD PTR __Pred$[ebp]
  00046	8b 45 0c	 mov	 eax, DWORD PTR __Mid$[ebp]
  00049	8d 0c 06	 lea	 ecx, DWORD PTR [esi+eax]
  0004c	51		 push	 ecx
  0004d	50		 push	 eax
  0004e	2b c6		 sub	 eax, esi
  00050	50		 push	 eax
  00051	e8 00 00 00 00	 call	 ??$_Med3@PAUFileInfo@FileListWnd@@VFileListInfoSort@@@std@@YAXPAUFileInfo@FileListWnd@@00VFileListInfoSort@@@Z ; std::_Med3<FileListWnd::FileInfo *,FileListInfoSort>

; 3701 : 		_Med3(_Last - 2 * _Step, _Last - _Step, _Last, _Pred);

  00056	ff 75 14	 push	 DWORD PTR __Pred$[ebp]
  00059	89 5d 10	 mov	 DWORD PTR tv203[ebp], ebx
  0005c	29 75 10	 sub	 DWORD PTR tv203[ebp], esi
  0005f	53		 push	 ebx
  00060	ff 75 10	 push	 DWORD PTR tv203[ebp]
  00063	2b df		 sub	 ebx, edi
  00065	53		 push	 ebx
  00066	e8 00 00 00 00	 call	 ??$_Med3@PAUFileInfo@FileListWnd@@VFileListInfoSort@@@std@@YAXPAUFileInfo@FileListWnd@@00VFileListInfoSort@@@Z ; std::_Med3<FileListWnd::FileInfo *,FileListInfoSort>

; 3702 : 		_Med3(_First + _Step, _Mid, _Last - _Step, _Pred);

  0006b	ff 75 14	 push	 DWORD PTR __Pred$[ebp]
  0006e	ff 75 10	 push	 DWORD PTR tv203[ebp]
  00071	ff 75 0c	 push	 DWORD PTR __Mid$[ebp]
  00074	ff 75 08	 push	 DWORD PTR tv200[ebp]
  00077	e8 00 00 00 00	 call	 ??$_Med3@PAUFileInfo@FileListWnd@@VFileListInfoSort@@@std@@YAXPAUFileInfo@FileListWnd@@00VFileListInfoSort@@@Z ; std::_Med3<FileListWnd::FileInfo *,FileListInfoSort>
  0007c	83 c4 40	 add	 esp, 64			; 00000040H
  0007f	5f		 pop	 edi

; 3703 : 		}
; 3704 : 	else

  00080	eb 10		 jmp	 SHORT $LN1@Median
$LN2@Median:

; 3705 : 		_Med3(_First, _Mid, _Last, _Pred);

  00082	ff 75 14	 push	 DWORD PTR __Pred$[ebp]
  00085	53		 push	 ebx
  00086	ff 75 0c	 push	 DWORD PTR __Mid$[ebp]
  00089	51		 push	 ecx
  0008a	e8 00 00 00 00	 call	 ??$_Med3@PAUFileInfo@FileListWnd@@VFileListInfoSort@@@std@@YAXPAUFileInfo@FileListWnd@@00VFileListInfoSort@@@Z ; std::_Med3<FileListWnd::FileInfo *,FileListInfoSort>
  0008f	83 c4 10	 add	 esp, 16			; 00000010H
$LN1@Median:
  00092	5e		 pop	 esi
  00093	5b		 pop	 ebx

; 3706 : 	}

  00094	5d		 pop	 ebp
  00095	c3		 ret	 0
??$_Median@PAUFileInfo@FileListWnd@@VFileListInfoSort@@@std@@YAXPAUFileInfo@FileListWnd@@00VFileListInfoSort@@@Z ENDP ; std::_Median<FileListWnd::FileInfo *,FileListInfoSort>
_TEXT	ENDS
PUBLIC	??$_Pop_heap@PAUFileInfo@FileListWnd@@VFileListInfoSort@@@std@@YAXPAUFileInfo@FileListWnd@@0VFileListInfoSort@@@Z ; std::_Pop_heap<FileListWnd::FileInfo *,FileListInfoSort>
; Function compile flags: /Ogsp
;	COMDAT ??$_Pop_heap@PAUFileInfo@FileListWnd@@VFileListInfoSort@@@std@@YAXPAUFileInfo@FileListWnd@@0VFileListInfoSort@@@Z
_TEXT	SEGMENT
__First$ = 8						; size = 4
__Last$ = 12						; size = 4
__Pred$ = 16						; size = 1
??$_Pop_heap@PAUFileInfo@FileListWnd@@VFileListInfoSort@@@std@@YAXPAUFileInfo@FileListWnd@@0VFileListInfoSort@@@Z PROC ; std::_Pop_heap<FileListWnd::FileInfo *,FileListInfoSort>, COMDAT

; 2610 : 	{	// pop *_First to *(_Last - 1) and reheap, using _Pred

  00000	55		 push	 ebp
  00001	8b ec		 mov	 ebp, esp

; 2611 : 	_Pop_heap_0(_Unchecked(_First), _Unchecked(_Last), _Pred,
; 2612 : 		_Val_type(_First));

  00003	6a 00		 push	 0
  00005	ff 75 10	 push	 DWORD PTR __Pred$[ebp]
  00008	ff 75 0c	 push	 DWORD PTR __Last$[ebp]
  0000b	ff 75 08	 push	 DWORD PTR __First$[ebp]
  0000e	e8 00 00 00 00	 call	 ??$_Pop_heap_0@PAUFileInfo@FileListWnd@@U12@VFileListInfoSort@@@std@@YAXPAUFileInfo@FileListWnd@@0VFileListInfoSort@@0@Z ; std::_Pop_heap_0<FileListWnd::FileInfo *,FileListWnd::FileInfo,FileListInfoSort>
  00013	83 c4 10	 add	 esp, 16			; 00000010H

; 2613 : 	}

  00016	5d		 pop	 ebp
  00017	c3		 ret	 0
??$_Pop_heap@PAUFileInfo@FileListWnd@@VFileListInfoSort@@@std@@YAXPAUFileInfo@FileListWnd@@0VFileListInfoSort@@@Z ENDP ; std::_Pop_heap<FileListWnd::FileInfo *,FileListInfoSort>
_TEXT	ENDS
PUBLIC	??$_Dest_val@V?$allocator@VioHashString@@@std@@VioHashString@@@std@@YAXAAV?$allocator@VioHashString@@@0@PAVioHashString@@@Z ; std::_Dest_val<std::allocator<ioHashString>,ioHashString>
; Function compile flags: /Ogsp
; File c:\program files (x86)\microsoft visual studio 10.0\vc\include\xmemory
;	COMDAT ??$_Dest_val@V?$allocator@VioHashString@@@std@@VioHashString@@@std@@YAXAAV?$allocator@VioHashString@@@0@PAVioHashString@@@Z
_TEXT	SEGMENT
__Alval$ = 8						; size = 4
__Pdest$ = 12						; size = 4
??$_Dest_val@V?$allocator@VioHashString@@@std@@VioHashString@@@std@@YAXAAV?$allocator@VioHashString@@@0@PAVioHashString@@@Z PROC ; std::_Dest_val<std::allocator<ioHashString>,ioHashString>, COMDAT

; 286  : 	{	// destroy using allocator

  00000	55		 push	 ebp
  00001	8b ec		 mov	 ebp, esp

; 287  : 	_Alval.destroy(_Pdest);

  00003	8b 4d 0c	 mov	 ecx, DWORD PTR __Pdest$[ebp]

; 288  : 	}

  00006	5d		 pop	 ebp

; 287  : 	_Alval.destroy(_Pdest);

  00007	ff 25 00 00 00
	00		 jmp	 DWORD PTR __imp_??1ioHashString@@QAE@XZ
??$_Dest_val@V?$allocator@VioHashString@@@std@@VioHashString@@@std@@YAXAAV?$allocator@VioHashString@@@0@PAVioHashString@@@Z ENDP ; std::_Dest_val<std::allocator<ioHashString>,ioHashString>
_TEXT	ENDS
PUBLIC	??$_Uninit_def_fill_n@PAUFileDriveItem@@IU1@V?$allocator@UFileDriveItem@@@std@@U1@@std@@YAXPAUFileDriveItem@@IPBU1@AAV?$allocator@UFileDriveItem@@@0@0U_Nonscalar_ptr_iterator_tag@0@@Z ; std::_Uninit_def_fill_n<FileDriveItem *,unsigned int,FileDriveItem,std::allocator<FileDriveItem>,FileDriveItem>
EXTRN	__EH_prolog3_catch:PROC
;	COMDAT xdata$x
; File d:\lost saga for developer\youtube\tutorial\source\src\lsclient\gui\filelistwnd.cpp
xdata$x	SEGMENT
__catchsym$??$_Uninit_def_fill_n@PAUFileDriveItem@@IU1@V?$allocator@UFileDriveItem@@@std@@U1@@std@@YAXPAUFileDriveItem@@IPBU1@AAV?$allocator@UFileDriveItem@@@0@0U_Nonscalar_ptr_iterator_tag@0@@Z$6 DD 040H
	DD	00H
	DD	00H
	DD	FLAT:__catch$??$_Uninit_def_fill_n@PAUFileDriveItem@@IU1@V?$allocator@UFileDriveItem@@@std@@U1@@std@@YAXPAUFileDriveItem@@IPBU1@AAV?$allocator@UFileDriveItem@@@0@0U_Nonscalar_ptr_iterator_tag@0@@Z$0
__tryblocktable$??$_Uninit_def_fill_n@PAUFileDriveItem@@IU1@V?$allocator@UFileDriveItem@@@std@@U1@@std@@YAXPAUFileDriveItem@@IPBU1@AAV?$allocator@UFileDriveItem@@@0@0U_Nonscalar_ptr_iterator_tag@0@@Z DD 00H
	DD	01H
	DD	02H
	DD	01H
	DD	FLAT:__catchsym$??$_Uninit_def_fill_n@PAUFileDriveItem@@IU1@V?$allocator@UFileDriveItem@@@std@@U1@@std@@YAXPAUFileDriveItem@@IPBU1@AAV?$allocator@UFileDriveItem@@@0@0U_Nonscalar_ptr_iterator_tag@0@@Z$6
__unwindtable$??$_Uninit_def_fill_n@PAUFileDriveItem@@IU1@V?$allocator@UFileDriveItem@@@std@@U1@@std@@YAXPAUFileDriveItem@@IPBU1@AAV?$allocator@UFileDriveItem@@@0@0U_Nonscalar_ptr_iterator_tag@0@@Z DD 0ffffffffH
	DD	00H
	DD	00H
	DD	FLAT:__unwindfunclet$??$_Uninit_def_fill_n@PAUFileDriveItem@@IU1@V?$allocator@UFileDriveItem@@@std@@U1@@std@@YAXPAUFileDriveItem@@IPBU1@AAV?$allocator@UFileDriveItem@@@0@0U_Nonscalar_ptr_iterator_tag@0@@Z$2
	DD	0ffffffffH
	DD	00H
__ehfuncinfo$??$_Uninit_def_fill_n@PAUFileDriveItem@@IU1@V?$allocator@UFileDriveItem@@@std@@U1@@std@@YAXPAUFileDriveItem@@IPBU1@AAV?$allocator@UFileDriveItem@@@0@0U_Nonscalar_ptr_iterator_tag@0@@Z DD 019930522H
	DD	03H
	DD	FLAT:__unwindtable$??$_Uninit_def_fill_n@PAUFileDriveItem@@IU1@V?$allocator@UFileDriveItem@@@std@@U1@@std@@YAXPAUFileDriveItem@@IPBU1@AAV?$allocator@UFileDriveItem@@@0@0U_Nonscalar_ptr_iterator_tag@0@@Z
	DD	01H
	DD	FLAT:__tryblocktable$??$_Uninit_def_fill_n@PAUFileDriveItem@@IU1@V?$allocator@UFileDriveItem@@@std@@U1@@std@@YAXPAUFileDriveItem@@IPBU1@AAV?$allocator@UFileDriveItem@@@0@0U_Nonscalar_ptr_iterator_tag@0@@Z
	DD	2 DUP(00H)
	DD	00H
	DD	01H
; Function compile flags: /Ogsp
; File c:\program files (x86)\microsoft visual studio 10.0\vc\include\memory
xdata$x	ENDS
;	COMDAT ??$_Uninit_def_fill_n@PAUFileDriveItem@@IU1@V?$allocator@UFileDriveItem@@@std@@U1@@std@@YAXPAUFileDriveItem@@IPBU1@AAV?$allocator@UFileDriveItem@@@0@0U_Nonscalar_ptr_iterator_tag@0@@Z
_TEXT	SEGMENT
$T517153 = -40						; size = 20
__Next$ = -20						; size = 4
__$EHRec$ = -16						; size = 16
__First$ = 8						; size = 4
__Count$ = 12						; size = 4
___formal$ = 16						; size = 4
__Al$ = 20						; size = 4
___formal$ = 24						; size = 4
___formal$ = 28						; size = 1
??$_Uninit_def_fill_n@PAUFileDriveItem@@IU1@V?$allocator@UFileDriveItem@@@std@@U1@@std@@YAXPAUFileDriveItem@@IPBU1@AAV?$allocator@UFileDriveItem@@@0@0U_Nonscalar_ptr_iterator_tag@0@@Z PROC ; std::_Uninit_def_fill_n<FileDriveItem *,unsigned int,FileDriveItem,std::allocator<FileDriveItem>,FileDriveItem>, COMDAT

; 620  : 	{	// copy _Count * _Valty() to raw _First, using _Al, arbitrary type

  00000	6a 1c		 push	 28			; 0000001cH
  00002	b8 00 00 00 00	 mov	 eax, __ehhandler$??$_Uninit_def_fill_n@PAUFileDriveItem@@IU1@V?$allocator@UFileDriveItem@@@std@@U1@@std@@YAXPAUFileDriveItem@@IPBU1@AAV?$allocator@UFileDriveItem@@@0@0U_Nonscalar_ptr_iterator_tag@0@@Z
  00007	e8 00 00 00 00	 call	 __EH_prolog3_catch

; 621  :  #if _ITERATOR_DEBUG_LEVEL == 2
; 622  : //	if (_Count < 0)
; 623  : //		_DEBUG_ERROR("negative count in uninitialized fill");
; 624  :  #endif /* _ITERATOR_DEBUG_LEVEL == 2 */
; 625  : 
; 626  : 	_FwdIt _Next = _First;

  0000c	8b 45 08	 mov	 eax, DWORD PTR __First$[ebp]

; 627  : 
; 628  : 	_TRY_BEGIN

  0000f	33 db		 xor	 ebx, ebx
  00011	89 45 ec	 mov	 DWORD PTR __Next$[ebp], eax
  00014	89 5d fc	 mov	 DWORD PTR __$EHRec$[ebp+12], ebx
$LL6@Uninit_def:

; 629  : 	for (; 0 < _Count; --_Count, ++_First)

  00017	39 5d 0c	 cmp	 DWORD PTR __Count$[ebp], ebx
  0001a	76 52		 jbe	 SHORT $LN4@Uninit_def

; 630  : 
; 631  : 		_Cons_val(_Al, _First, _Valty());

  0001c	8d 4d d8	 lea	 ecx, DWORD PTR $T517153[ebp]
  0001f	ff 15 00 00 00
	00		 call	 DWORD PTR __imp_??0ioHashString@@QAE@XZ
  00025	89 5d e8	 mov	 DWORD PTR $T517153[ebp+16], ebx
  00028	8b 4d 14	 mov	 ecx, DWORD PTR __Al$[ebp]
  0002b	8d 45 d8	 lea	 eax, DWORD PTR $T517153[ebp]
  0002e	50		 push	 eax
  0002f	ff 75 08	 push	 DWORD PTR __First$[ebp]
  00032	c6 45 fc 01	 mov	 BYTE PTR __$EHRec$[ebp+12], 1
  00036	e8 00 00 00 00	 call	 ?construct@?$allocator@UFileDriveItem@@@std@@QAEXPAUFileDriveItem@@$$QAU3@@Z ; std::allocator<FileDriveItem>::construct
  0003b	8d 4d d8	 lea	 ecx, DWORD PTR $T517153[ebp]
  0003e	88 5d fc	 mov	 BYTE PTR __$EHRec$[ebp+12], bl
  00041	ff 15 00 00 00
	00		 call	 DWORD PTR __imp_??1ioHashString@@QAE@XZ
  00047	ff 4d 0c	 dec	 DWORD PTR __Count$[ebp]
  0004a	83 45 08 14	 add	 DWORD PTR __First$[ebp], 20 ; 00000014H
  0004e	eb c7		 jmp	 SHORT $LL6@Uninit_def
__catch$??$_Uninit_def_fill_n@PAUFileDriveItem@@IU1@V?$allocator@UFileDriveItem@@@std@@U1@@std@@YAXPAUFileDriveItem@@IPBU1@AAV?$allocator@UFileDriveItem@@@0@0U_Nonscalar_ptr_iterator_tag@0@@Z$0:

; 632  : 
; 633  : 	_CATCH_ALL
; 634  : 	for (; _Next != _First; ++_Next)

  00050	8b 75 ec	 mov	 esi, DWORD PTR __Next$[ebp]
  00053	eb 0b		 jmp	 SHORT $LN43@Uninit_def
$LL3@Uninit_def:

; 635  : 		_Dest_val(_Al, _Next);

  00055	8b ce		 mov	 ecx, esi
  00057	ff 15 00 00 00
	00		 call	 DWORD PTR __imp_??1ioHashString@@QAE@XZ
  0005d	83 c6 14	 add	 esi, 20			; 00000014H
$LN43@Uninit_def:

; 632  : 
; 633  : 	_CATCH_ALL
; 634  : 	for (; _Next != _First; ++_Next)

  00060	3b 75 08	 cmp	 esi, DWORD PTR __First$[ebp]
  00063	75 f0		 jne	 SHORT $LL3@Uninit_def

; 636  : 	_RERAISE;

  00065	33 db		 xor	 ebx, ebx
  00067	53		 push	 ebx
  00068	53		 push	 ebx
  00069	e8 00 00 00 00	 call	 __CxxThrowException@8
$LN44@Uninit_def:
$LN4@Uninit_def:

; 637  : 	_CATCH_END
; 638  : 	}

  0006e	e8 00 00 00 00	 call	 __EH_epilog3
  00073	c3		 ret	 0
$LN42@Uninit_def:
_TEXT	ENDS
;	COMDAT text$x
text$x	SEGMENT
__unwindfunclet$??$_Uninit_def_fill_n@PAUFileDriveItem@@IU1@V?$allocator@UFileDriveItem@@@std@@U1@@std@@YAXPAUFileDriveItem@@IPBU1@AAV?$allocator@UFileDriveItem@@@0@0U_Nonscalar_ptr_iterator_tag@0@@Z$2:
  00000	8d 4d d8	 lea	 ecx, DWORD PTR $T517153[ebp]
  00003	e9 00 00 00 00	 jmp	 ??1FileDriveItem@@QAE@XZ
__ehhandler$??$_Uninit_def_fill_n@PAUFileDriveItem@@IU1@V?$allocator@UFileDriveItem@@@std@@U1@@std@@YAXPAUFileDriveItem@@IPBU1@AAV?$allocator@UFileDriveItem@@@0@0U_Nonscalar_ptr_iterator_tag@0@@Z:
  00008	8b 54 24 08	 mov	 edx, DWORD PTR [esp+8]
  0000c	8d 42 0c	 lea	 eax, DWORD PTR [edx+12]
  0000f	8b 4a d4	 mov	 ecx, DWORD PTR [edx-44]
  00012	33 c8		 xor	 ecx, eax
  00014	e8 00 00 00 00	 call	 @__security_check_cookie@4
  00019	b8 00 00 00 00	 mov	 eax, OFFSET __ehfuncinfo$??$_Uninit_def_fill_n@PAUFileDriveItem@@IU1@V?$allocator@UFileDriveItem@@@std@@U1@@std@@YAXPAUFileDriveItem@@IPBU1@AAV?$allocator@UFileDriveItem@@@0@0U_Nonscalar_ptr_iterator_tag@0@@Z
  0001e	e9 00 00 00 00	 jmp	 ___CxxFrameHandler3
text$x	ENDS
??$_Uninit_def_fill_n@PAUFileDriveItem@@IU1@V?$allocator@UFileDriveItem@@@std@@U1@@std@@YAXPAUFileDriveItem@@IPBU1@AAV?$allocator@UFileDriveItem@@@0@0U_Nonscalar_ptr_iterator_tag@0@@Z ENDP ; std::_Uninit_def_fill_n<FileDriveItem *,unsigned int,FileDriveItem,std::allocator<FileDriveItem>,FileDriveItem>
PUBLIC	??$_Destroy_range@V?$allocator@UFileDriveItem@@@std@@@std@@YAXPAUFileDriveItem@@0AAV?$allocator@UFileDriveItem@@@0@U_Nonscalar_ptr_iterator_tag@0@@Z ; std::_Destroy_range<std::allocator<FileDriveItem> >
; Function compile flags: /Ogsp
; File c:\program files (x86)\microsoft visual studio 10.0\vc\include\xmemory
;	COMDAT ??$_Destroy_range@V?$allocator@UFileDriveItem@@@std@@@std@@YAXPAUFileDriveItem@@0AAV?$allocator@UFileDriveItem@@@0@U_Nonscalar_ptr_iterator_tag@0@@Z
_TEXT	SEGMENT
__First$ = 8						; size = 4
__Last$ = 12						; size = 4
__Al$ = 16						; size = 4
___formal$ = 20						; size = 1
??$_Destroy_range@V?$allocator@UFileDriveItem@@@std@@@std@@YAXPAUFileDriveItem@@0AAV?$allocator@UFileDriveItem@@@0@U_Nonscalar_ptr_iterator_tag@0@@Z PROC ; std::_Destroy_range<std::allocator<FileDriveItem> >, COMDAT

; 95   : 	{	// destroy [_First, _Last), arbitrary type

  00000	55		 push	 ebp
  00001	8b ec		 mov	 ebp, esp
  00003	56		 push	 esi

; 96   : 	for (; _First != _Last; ++_First)

  00004	8b 75 08	 mov	 esi, DWORD PTR __First$[ebp]
  00007	eb 0b		 jmp	 SHORT $LN20@Destroy_ra
$LL3@Destroy_ra:

; 97   : 		_Dest_val(_Al, _First);

  00009	8b ce		 mov	 ecx, esi
  0000b	ff 15 00 00 00
	00		 call	 DWORD PTR __imp_??1ioHashString@@QAE@XZ
  00011	83 c6 14	 add	 esi, 20			; 00000014H
$LN20@Destroy_ra:

; 96   : 	for (; _First != _Last; ++_First)

  00014	3b 75 0c	 cmp	 esi, DWORD PTR __Last$[ebp]
  00017	75 f0		 jne	 SHORT $LL3@Destroy_ra
  00019	5e		 pop	 esi

; 98   : 	}

  0001a	5d		 pop	 ebp
  0001b	c3		 ret	 0
??$_Destroy_range@V?$allocator@UFileDriveItem@@@std@@@std@@YAXPAUFileDriveItem@@0AAV?$allocator@UFileDriveItem@@@0@U_Nonscalar_ptr_iterator_tag@0@@Z ENDP ; std::_Destroy_range<std::allocator<FileDriveItem> >
_TEXT	ENDS
PUBLIC	??$_Destroy_range@V?$allocator@UFileInfo@FileListWnd@@@std@@@std@@YAXPAUFileInfo@FileListWnd@@0AAV?$allocator@UFileInfo@FileListWnd@@@0@U_Nonscalar_ptr_iterator_tag@0@@Z ; std::_Destroy_range<std::allocator<FileListWnd::FileInfo> >
; Function compile flags: /Ogsp
;	COMDAT ??$_Destroy_range@V?$allocator@UFileInfo@FileListWnd@@@std@@@std@@YAXPAUFileInfo@FileListWnd@@0AAV?$allocator@UFileInfo@FileListWnd@@@0@U_Nonscalar_ptr_iterator_tag@0@@Z
_TEXT	SEGMENT
__First$ = 8						; size = 4
__Last$ = 12						; size = 4
__Al$ = 16						; size = 4
___formal$ = 20						; size = 1
??$_Destroy_range@V?$allocator@UFileInfo@FileListWnd@@@std@@@std@@YAXPAUFileInfo@FileListWnd@@0AAV?$allocator@UFileInfo@FileListWnd@@@0@U_Nonscalar_ptr_iterator_tag@0@@Z PROC ; std::_Destroy_range<std::allocator<FileListWnd::FileInfo> >, COMDAT

; 95   : 	{	// destroy [_First, _Last), arbitrary type

  00000	55		 push	 ebp
  00001	8b ec		 mov	 ebp, esp
  00003	56		 push	 esi

; 96   : 	for (; _First != _Last; ++_First)

  00004	8b 75 08	 mov	 esi, DWORD PTR __First$[ebp]
  00007	eb 0b		 jmp	 SHORT $LN20@Destroy_ra@2
$LL3@Destroy_ra@2:

; 97   : 		_Dest_val(_Al, _First);

  00009	8b ce		 mov	 ecx, esi
  0000b	ff 15 00 00 00
	00		 call	 DWORD PTR __imp_??1ioHashString@@QAE@XZ
  00011	83 c6 14	 add	 esi, 20			; 00000014H
$LN20@Destroy_ra@2:

; 96   : 	for (; _First != _Last; ++_First)

  00014	3b 75 0c	 cmp	 esi, DWORD PTR __Last$[ebp]
  00017	75 f0		 jne	 SHORT $LL3@Destroy_ra@2
  00019	5e		 pop	 esi

; 98   : 	}

  0001a	5d		 pop	 ebp
  0001b	c3		 ret	 0
??$_Destroy_range@V?$allocator@UFileInfo@FileListWnd@@@std@@@std@@YAXPAUFileInfo@FileListWnd@@0AAV?$allocator@UFileInfo@FileListWnd@@@0@U_Nonscalar_ptr_iterator_tag@0@@Z ENDP ; std::_Destroy_range<std::allocator<FileListWnd::FileInfo> >
_TEXT	ENDS
PUBLIC	??$_Unguarded_partition@PAUFileInfo@FileListWnd@@VFileListInfoSort@@@std@@YA?AU?$pair@PAUFileInfo@FileListWnd@@PAU12@@0@PAUFileInfo@FileListWnd@@0VFileListInfoSort@@@Z ; std::_Unguarded_partition<FileListWnd::FileInfo *,FileListInfoSort>
; Function compile flags: /Ogsp
; File c:\program files (x86)\microsoft visual studio 10.0\vc\include\algorithm
;	COMDAT ??$_Unguarded_partition@PAUFileInfo@FileListWnd@@VFileListInfoSort@@@std@@YA?AU?$pair@PAUFileInfo@FileListWnd@@PAU12@@0@PAUFileInfo@FileListWnd@@0VFileListInfoSort@@@Z
_TEXT	SEGMENT
tv320 = -8						; size = 4
tv264 = -8						; size = 4
__Glast$ = -4						; size = 4
___$ReturnUdt$ = 8					; size = 4
__First$ = 12						; size = 4
__Last$ = 16						; size = 4
__Pred$ = 20						; size = 1
??$_Unguarded_partition@PAUFileInfo@FileListWnd@@VFileListInfoSort@@@std@@YA?AU?$pair@PAUFileInfo@FileListWnd@@PAU12@@0@PAUFileInfo@FileListWnd@@0VFileListInfoSort@@@Z PROC ; std::_Unguarded_partition<FileListWnd::FileInfo *,FileListInfoSort>, COMDAT

; 3712 : 	{	// partition [_First, _Last), using _Pred

  00000	55		 push	 ebp
  00001	8b ec		 mov	 ebp, esp
  00003	51		 push	 ecx
  00004	51		 push	 ecx

; 3713 : 	_RanIt _Mid = _First + (_Last - _First) / 2;

  00005	8b 4d 10	 mov	 ecx, DWORD PTR __Last$[ebp]
  00008	53		 push	 ebx
  00009	8b 5d 0c	 mov	 ebx, DWORD PTR __First$[ebp]
  0000c	56		 push	 esi
  0000d	57		 push	 edi
  0000e	8b c1		 mov	 eax, ecx
  00010	2b c3		 sub	 eax, ebx
  00012	6a 14		 push	 20			; 00000014H
  00014	5e		 pop	 esi
  00015	99		 cdq
  00016	f7 fe		 idiv	 esi

; 3714 : 	_Median(_First, _Mid, _Last - 1, _Pred);

  00018	ff 75 14	 push	 DWORD PTR __Pred$[ebp]
  0001b	83 c1 ec	 add	 ecx, -20		; ffffffecH
  0001e	51		 push	 ecx
  0001f	99		 cdq
  00020	2b c2		 sub	 eax, edx
  00022	8b f0		 mov	 esi, eax
  00024	d1 fe		 sar	 esi, 1
  00026	6b f6 14	 imul	 esi, 20			; 00000014H
  00029	03 f3		 add	 esi, ebx
  0002b	56		 push	 esi
  0002c	53		 push	 ebx
  0002d	e8 00 00 00 00	 call	 ??$_Median@PAUFileInfo@FileListWnd@@VFileListInfoSort@@@std@@YAXPAUFileInfo@FileListWnd@@00VFileListInfoSort@@@Z ; std::_Median<FileListWnd::FileInfo *,FileListInfoSort>
  00032	83 c4 10	 add	 esp, 16			; 00000010H

; 3715 : 	_RanIt _Pfirst = _Mid;
; 3716 : 	_RanIt _Plast = _Pfirst + 1;

  00035	8d 7e 14	 lea	 edi, DWORD PTR [esi+20]
  00038	eb 27		 jmp	 SHORT $LN72@Unguarded_
$LL27@Unguarded_:

; 3717 : 
; 3718 : 	while (_First < _Pfirst
; 3719 : 		&& !_DEBUG_LT_PRED(_Pred, *(_Pfirst - 1), *_Pfirst)
; 3720 : 		&& !_Pred(*_Pfirst, *(_Pfirst - 1)))

  0003a	8d 46 ec	 lea	 eax, DWORD PTR [esi-20]
  0003d	56		 push	 esi
  0003e	50		 push	 eax
  0003f	8d 4d 14	 lea	 ecx, DWORD PTR __Pred$[ebp]
  00042	89 45 f8	 mov	 DWORD PTR tv264[ebp], eax
  00045	e8 00 00 00 00	 call	 ??RFileListInfoSort@@QBE_NABUFileInfo@FileListWnd@@0@Z ; FileListInfoSort::operator()
  0004a	84 c0		 test	 al, al
  0004c	75 38		 jne	 SHORT $LN73@Unguarded_
  0004e	ff 75 f8	 push	 DWORD PTR tv264[ebp]
  00051	8d 4d 14	 lea	 ecx, DWORD PTR __Pred$[ebp]
  00054	56		 push	 esi
  00055	e8 00 00 00 00	 call	 ??RFileListInfoSort@@QBE_NABUFileInfo@FileListWnd@@0@Z ; FileListInfoSort::operator()
  0005a	84 c0		 test	 al, al
  0005c	75 28		 jne	 SHORT $LN73@Unguarded_

; 3721 : 		--_Pfirst;

  0005e	8b 75 f8	 mov	 esi, DWORD PTR tv264[ebp]
$LN72@Unguarded_:

; 3717 : 
; 3718 : 	while (_First < _Pfirst
; 3719 : 		&& !_DEBUG_LT_PRED(_Pred, *(_Pfirst - 1), *_Pfirst)
; 3720 : 		&& !_Pred(*_Pfirst, *(_Pfirst - 1)))

  00061	3b de		 cmp	 ebx, esi
  00063	72 d5		 jb	 SHORT $LL27@Unguarded_

; 3725 : 		++_Plast;

  00065	eb 1f		 jmp	 SHORT $LN73@Unguarded_
$LL25@Unguarded_:

; 3722 : 	while (_Plast < _Last
; 3723 : 		&& !_DEBUG_LT_PRED(_Pred, *_Plast, *_Pfirst)
; 3724 : 		&& !_Pred(*_Pfirst, *_Plast))

  00067	56		 push	 esi
  00068	57		 push	 edi
  00069	8d 4d 14	 lea	 ecx, DWORD PTR __Pred$[ebp]
  0006c	e8 00 00 00 00	 call	 ??RFileListInfoSort@@QBE_NABUFileInfo@FileListWnd@@0@Z ; FileListInfoSort::operator()
  00071	84 c0		 test	 al, al
  00073	75 16		 jne	 SHORT $LN24@Unguarded_
  00075	57		 push	 edi
  00076	56		 push	 esi
  00077	8d 4d 14	 lea	 ecx, DWORD PTR __Pred$[ebp]
  0007a	e8 00 00 00 00	 call	 ??RFileListInfoSort@@QBE_NABUFileInfo@FileListWnd@@0@Z ; FileListInfoSort::operator()
  0007f	84 c0		 test	 al, al
  00081	75 08		 jne	 SHORT $LN24@Unguarded_

; 3725 : 		++_Plast;

  00083	83 c7 14	 add	 edi, 20			; 00000014H
$LN73@Unguarded_:

; 3722 : 	while (_Plast < _Last
; 3723 : 		&& !_DEBUG_LT_PRED(_Pred, *_Plast, *_Pfirst)
; 3724 : 		&& !_Pred(*_Pfirst, *_Plast))

  00086	3b 7d 10	 cmp	 edi, DWORD PTR __Last$[ebp]
  00089	72 dc		 jb	 SHORT $LL25@Unguarded_
$LN24@Unguarded_:

; 3726 : 
; 3727 : 	_RanIt _Gfirst = _Plast;

  0008b	8b df		 mov	 ebx, edi

; 3728 : 	_RanIt _Glast = _Pfirst;

  0008d	89 75 fc	 mov	 DWORD PTR __Glast$[ebp], esi

; 3729 : 
; 3730 : 	for (; ; )
; 3731 : 		{	// partition
; 3732 : 		for (; _Gfirst < _Last; ++_Gfirst)

  00090	eb 2d		 jmp	 SHORT $LN75@Unguarded_
$LL21@Unguarded_:

; 3733 : 			if (_DEBUG_LT_PRED(_Pred, *_Pfirst, *_Gfirst))

  00092	53		 push	 ebx
  00093	56		 push	 esi
  00094	8d 4d 14	 lea	 ecx, DWORD PTR __Pred$[ebp]
  00097	e8 00 00 00 00	 call	 ??RFileListInfoSort@@QBE_NABUFileInfo@FileListWnd@@0@Z ; FileListInfoSort::operator()
  0009c	84 c0		 test	 al, al
  0009e	75 1c		 jne	 SHORT $LN20@Unguarded_

; 3734 : 				;
; 3735 : 			else if (_Pred(*_Gfirst, *_Pfirst))

  000a0	56		 push	 esi
  000a1	53		 push	 ebx
  000a2	8d 4d 14	 lea	 ecx, DWORD PTR __Pred$[ebp]
  000a5	e8 00 00 00 00	 call	 ??RFileListInfoSort@@QBE_NABUFileInfo@FileListWnd@@0@Z ; FileListInfoSort::operator()
  000aa	84 c0		 test	 al, al
  000ac	75 16		 jne	 SHORT $LN69@Unguarded_

; 3736 : 				break;
; 3737 : 			else
; 3738 : 				_STD iter_swap(_Plast++, _Gfirst);

  000ae	8b c7		 mov	 eax, edi
  000b0	53		 push	 ebx
  000b1	83 c7 14	 add	 edi, 20			; 00000014H
  000b4	50		 push	 eax
$LN76@Unguarded_:
  000b5	e8 00 00 00 00	 call	 ??$swap@UFileInfo@FileListWnd@@@std@@YAXAAUFileInfo@FileListWnd@@0@Z ; std::swap<FileListWnd::FileInfo>
  000ba	59		 pop	 ecx
  000bb	59		 pop	 ecx
$LN20@Unguarded_:

; 3729 : 
; 3730 : 	for (; ; )
; 3731 : 		{	// partition
; 3732 : 		for (; _Gfirst < _Last; ++_Gfirst)

  000bc	83 c3 14	 add	 ebx, 20			; 00000014H
$LN75@Unguarded_:
  000bf	3b 5d 10	 cmp	 ebx, DWORD PTR __Last$[ebp]
  000c2	72 ce		 jb	 SHORT $LL21@Unguarded_
$LN69@Unguarded_:

; 3739 : 		for (; _First < _Glast; --_Glast)

  000c4	8b 45 fc	 mov	 eax, DWORD PTR __Glast$[ebp]
  000c7	39 45 0c	 cmp	 DWORD PTR __First$[ebp], eax
  000ca	73 44		 jae	 SHORT $LN71@Unguarded_
  000cc	83 c0 ec	 add	 eax, -20		; ffffffecH
  000cf	89 45 f8	 mov	 DWORD PTR tv320[ebp], eax
$LL70@Unguarded_:

; 3740 : 			if (_DEBUG_LT_PRED(_Pred, *(_Glast - 1), *_Pfirst))

  000d2	56		 push	 esi
  000d3	ff 75 f8	 push	 DWORD PTR tv320[ebp]
  000d6	8d 4d 14	 lea	 ecx, DWORD PTR __Pred$[ebp]
  000d9	e8 00 00 00 00	 call	 ??RFileListInfoSort@@QBE_NABUFileInfo@FileListWnd@@0@Z ; FileListInfoSort::operator()
  000de	84 c0		 test	 al, al
  000e0	75 1e		 jne	 SHORT $LN13@Unguarded_

; 3741 : 				;
; 3742 : 			else if (_Pred(*_Pfirst, *(_Glast - 1)))

  000e2	ff 75 f8	 push	 DWORD PTR tv320[ebp]
  000e5	8d 4d 14	 lea	 ecx, DWORD PTR __Pred$[ebp]
  000e8	56		 push	 esi
  000e9	e8 00 00 00 00	 call	 ??RFileListInfoSort@@QBE_NABUFileInfo@FileListWnd@@0@Z ; FileListInfoSort::operator()
  000ee	84 c0		 test	 al, al
  000f0	75 1e		 jne	 SHORT $LN71@Unguarded_

; 3743 : 				break;
; 3744 : 			else
; 3745 : 				_STD iter_swap(--_Pfirst, _Glast - 1);

  000f2	ff 75 f8	 push	 DWORD PTR tv320[ebp]
  000f5	83 ee 14	 sub	 esi, 20			; 00000014H
  000f8	56		 push	 esi
  000f9	e8 00 00 00 00	 call	 ??$swap@UFileInfo@FileListWnd@@@std@@YAXAAUFileInfo@FileListWnd@@0@Z ; std::swap<FileListWnd::FileInfo>
  000fe	59		 pop	 ecx
  000ff	59		 pop	 ecx
$LN13@Unguarded_:

; 3739 : 		for (; _First < _Glast; --_Glast)

  00100	83 6d fc 14	 sub	 DWORD PTR __Glast$[ebp], 20 ; 00000014H
  00104	8b 45 0c	 mov	 eax, DWORD PTR __First$[ebp]
  00107	83 6d f8 14	 sub	 DWORD PTR tv320[ebp], 20 ; 00000014H
  0010b	3b 45 fc	 cmp	 eax, DWORD PTR __Glast$[ebp]
  0010e	72 c2		 jb	 SHORT $LL70@Unguarded_
$LN71@Unguarded_:

; 3746 : 		if (_Glast == _First && _Gfirst == _Last)

  00110	8b 45 fc	 mov	 eax, DWORD PTR __Glast$[ebp]
  00113	3b 45 0c	 cmp	 eax, DWORD PTR __First$[ebp]
  00116	75 1f		 jne	 SHORT $LN6@Unguarded_
  00118	3b 5d 10	 cmp	 ebx, DWORD PTR __Last$[ebp]
  0011b	74 4d		 je	 SHORT $LN64@Unguarded_

; 3748 : 
; 3749 : 		if (_Glast == _First)
; 3750 : 			{	// no room at bottom, rotate pivot upward
; 3751 : 			if (_Plast != _Gfirst)

  0011d	3b fb		 cmp	 edi, ebx
  0011f	74 09		 je	 SHORT $LN46@Unguarded_

; 3752 : 				_STD iter_swap(_Pfirst, _Plast);

  00121	57		 push	 edi
  00122	56		 push	 esi
  00123	e8 00 00 00 00	 call	 ??$swap@UFileInfo@FileListWnd@@@std@@YAXAAUFileInfo@FileListWnd@@0@Z ; std::swap<FileListWnd::FileInfo>
  00128	59		 pop	 ecx
  00129	59		 pop	 ecx
$LN46@Unguarded_:

; 3753 : 			++_Plast;
; 3754 : 			_STD iter_swap(_Pfirst++, _Gfirst++);

  0012a	53		 push	 ebx
  0012b	56		 push	 esi
  0012c	83 c7 14	 add	 edi, 20			; 00000014H
  0012f	83 c6 14	 add	 esi, 20			; 00000014H
  00132	83 c3 14	 add	 ebx, 20			; 00000014H
  00135	eb 20		 jmp	 SHORT $LN74@Unguarded_
$LN6@Unguarded_:

; 3755 : 			}
; 3756 : 		else if (_Gfirst == _Last)
; 3757 : 			{	// no room at top, rotate pivot downward
; 3758 : 			if (--_Glast != --_Pfirst)

  00137	83 e8 14	 sub	 eax, 20			; 00000014H
  0013a	89 45 fc	 mov	 DWORD PTR __Glast$[ebp], eax
  0013d	3b 5d 10	 cmp	 ebx, DWORD PTR __Last$[ebp]
  00140	75 21		 jne	 SHORT $LN3@Unguarded_
  00142	83 ee 14	 sub	 esi, 20			; 00000014H
  00145	3b c6		 cmp	 eax, esi
  00147	74 09		 je	 SHORT $LN50@Unguarded_

; 3759 : 				_STD iter_swap(_Glast, _Pfirst);

  00149	56		 push	 esi
  0014a	50		 push	 eax
  0014b	e8 00 00 00 00	 call	 ??$swap@UFileInfo@FileListWnd@@@std@@YAXAAUFileInfo@FileListWnd@@0@Z ; std::swap<FileListWnd::FileInfo>
  00150	59		 pop	 ecx
  00151	59		 pop	 ecx
$LN50@Unguarded_:

; 3760 : 			_STD iter_swap(_Pfirst, --_Plast);

  00152	83 ef 14	 sub	 edi, 20			; 00000014H
  00155	57		 push	 edi
  00156	56		 push	 esi
$LN74@Unguarded_:
  00157	e8 00 00 00 00	 call	 ??$swap@UFileInfo@FileListWnd@@@std@@YAXAAUFileInfo@FileListWnd@@0@Z ; std::swap<FileListWnd::FileInfo>
  0015c	59		 pop	 ecx
  0015d	59		 pop	 ecx

; 3761 : 			}
; 3762 : 		else

  0015e	e9 5c ff ff ff	 jmp	 $LN75@Unguarded_
$LN3@Unguarded_:

; 3763 : 			_STD iter_swap(_Gfirst++, --_Glast);

  00163	50		 push	 eax
  00164	53		 push	 ebx

; 3764 : 		}

  00165	e9 4b ff ff ff	 jmp	 $LN76@Unguarded_
$LN64@Unguarded_:

; 3747 : 			return (_STD pair<_RanIt, _RanIt>(_Pfirst, _Plast));

  0016a	8b 45 08	 mov	 eax, DWORD PTR ___$ReturnUdt$[ebp]
  0016d	89 78 04	 mov	 DWORD PTR [eax+4], edi
  00170	5f		 pop	 edi
  00171	89 30		 mov	 DWORD PTR [eax], esi
  00173	5e		 pop	 esi
  00174	5b		 pop	 ebx

; 3765 : 	}

  00175	c9		 leave
  00176	c3		 ret	 0
??$_Unguarded_partition@PAUFileInfo@FileListWnd@@VFileListInfoSort@@@std@@YA?AU?$pair@PAUFileInfo@FileListWnd@@PAU12@@0@PAUFileInfo@FileListWnd@@0VFileListInfoSort@@@Z ENDP ; std::_Unguarded_partition<FileListWnd::FileInfo *,FileListInfoSort>
_TEXT	ENDS
PUBLIC	??$_Uninit_move@PAUFileDriveItem@@PAU1@V?$allocator@UFileDriveItem@@@std@@U1@@std@@YAPAUFileDriveItem@@PAU1@00AAV?$allocator@UFileDriveItem@@@0@0U_Nonscalar_ptr_iterator_tag@0@@Z ; std::_Uninit_move<FileDriveItem *,FileDriveItem *,std::allocator<FileDriveItem>,FileDriveItem>
;	COMDAT xdata$x
; File d:\lost saga for developer\youtube\tutorial\source\src\lsclient\gui\filelistwnd.cpp
xdata$x	SEGMENT
__catchsym$??$_Uninit_move@PAUFileDriveItem@@PAU1@V?$allocator@UFileDriveItem@@@std@@U1@@std@@YAPAUFileDriveItem@@PAU1@00AAV?$allocator@UFileDriveItem@@@0@0U_Nonscalar_ptr_iterator_tag@0@@Z$3 DD 040H
	DD	00H
	DD	00H
	DD	FLAT:__catch$??$_Uninit_move@PAUFileDriveItem@@PAU1@V?$allocator@UFileDriveItem@@@std@@U1@@std@@YAPAUFileDriveItem@@PAU1@00AAV?$allocator@UFileDriveItem@@@0@0U_Nonscalar_ptr_iterator_tag@0@@Z$0
__unwindtable$??$_Uninit_move@PAUFileDriveItem@@PAU1@V?$allocator@UFileDriveItem@@@std@@U1@@std@@YAPAUFileDriveItem@@PAU1@00AAV?$allocator@UFileDriveItem@@@0@0U_Nonscalar_ptr_iterator_tag@0@@Z DD 0ffffffffH
	DD	00H
	DD	0ffffffffH
	DD	00H
__tryblocktable$??$_Uninit_move@PAUFileDriveItem@@PAU1@V?$allocator@UFileDriveItem@@@std@@U1@@std@@YAPAUFileDriveItem@@PAU1@00AAV?$allocator@UFileDriveItem@@@0@0U_Nonscalar_ptr_iterator_tag@0@@Z DD 00H
	DD	00H
	DD	01H
	DD	01H
	DD	FLAT:__catchsym$??$_Uninit_move@PAUFileDriveItem@@PAU1@V?$allocator@UFileDriveItem@@@std@@U1@@std@@YAPAUFileDriveItem@@PAU1@00AAV?$allocator@UFileDriveItem@@@0@0U_Nonscalar_ptr_iterator_tag@0@@Z$3
__ehfuncinfo$??$_Uninit_move@PAUFileDriveItem@@PAU1@V?$allocator@UFileDriveItem@@@std@@U1@@std@@YAPAUFileDriveItem@@PAU1@00AAV?$allocator@UFileDriveItem@@@0@0U_Nonscalar_ptr_iterator_tag@0@@Z DD 019930522H
	DD	02H
	DD	FLAT:__unwindtable$??$_Uninit_move@PAUFileDriveItem@@PAU1@V?$allocator@UFileDriveItem@@@std@@U1@@std@@YAPAUFileDriveItem@@PAU1@00AAV?$allocator@UFileDriveItem@@@0@0U_Nonscalar_ptr_iterator_tag@0@@Z
	DD	01H
	DD	FLAT:__tryblocktable$??$_Uninit_move@PAUFileDriveItem@@PAU1@V?$allocator@UFileDriveItem@@@std@@U1@@std@@YAPAUFileDriveItem@@PAU1@00AAV?$allocator@UFileDriveItem@@@0@0U_Nonscalar_ptr_iterator_tag@0@@Z
	DD	2 DUP(00H)
	DD	00H
	DD	01H
; Function compile flags: /Ogsp
; File c:\program files (x86)\microsoft visual studio 10.0\vc\include\memory
xdata$x	ENDS
;	COMDAT ??$_Uninit_move@PAUFileDriveItem@@PAU1@V?$allocator@UFileDriveItem@@@std@@U1@@std@@YAPAUFileDriveItem@@PAU1@00AAV?$allocator@UFileDriveItem@@@0@0U_Nonscalar_ptr_iterator_tag@0@@Z
_TEXT	SEGMENT
__Next$ = -20						; size = 4
__$EHRec$ = -16						; size = 16
__First$ = 8						; size = 4
__Last$ = 12						; size = 4
__Dest$ = 16						; size = 4
__Al$ = 20						; size = 4
___formal$ = 24						; size = 4
___formal$ = 28						; size = 1
??$_Uninit_move@PAUFileDriveItem@@PAU1@V?$allocator@UFileDriveItem@@@std@@U1@@std@@YAPAUFileDriveItem@@PAU1@00AAV?$allocator@UFileDriveItem@@@0@0U_Nonscalar_ptr_iterator_tag@0@@Z PROC ; std::_Uninit_move<FileDriveItem *,FileDriveItem *,std::allocator<FileDriveItem>,FileDriveItem>, COMDAT

; 424  : 	{	// move [_First, _Last) to raw _Dest, using _Al, arbitrary type

  00000	6a 08		 push	 8
  00002	b8 00 00 00 00	 mov	 eax, __ehhandler$??$_Uninit_move@PAUFileDriveItem@@PAU1@V?$allocator@UFileDriveItem@@@std@@U1@@std@@YAPAUFileDriveItem@@PAU1@00AAV?$allocator@UFileDriveItem@@@0@0U_Nonscalar_ptr_iterator_tag@0@@Z
  00007	e8 00 00 00 00	 call	 __EH_prolog3_catch

; 425  : 	_DEBUG_RANGE(_First, _Last);
; 426  : 	_DEBUG_POINTER(_Dest);
; 427  : 	_FwdIt _Next = _Dest;

  0000c	8b 45 10	 mov	 eax, DWORD PTR __Dest$[ebp]

; 428  : 
; 429  : 	_TRY_BEGIN

  0000f	83 65 fc 00	 and	 DWORD PTR __$EHRec$[ebp+12], 0
  00013	8b 75 08	 mov	 esi, DWORD PTR __First$[ebp]
  00016	89 45 ec	 mov	 DWORD PTR __Next$[ebp], eax
$LL6@Uninit_mov:

; 430  : 	for (; _First != _Last; ++_Dest, ++_First)

  00019	3b 75 0c	 cmp	 esi, DWORD PTR __Last$[ebp]
  0001c	74 33		 je	 SHORT $LN4@Uninit_mov

; 431  : 		_Cons_val(_Al, _Dest, (_Valty &&)*_First);

  0001e	8b 4d 14	 mov	 ecx, DWORD PTR __Al$[ebp]
  00021	56		 push	 esi
  00022	ff 75 10	 push	 DWORD PTR __Dest$[ebp]
  00025	e8 00 00 00 00	 call	 ?construct@?$allocator@UFileDriveItem@@@std@@QAEXPAUFileDriveItem@@$$QAU3@@Z ; std::allocator<FileDriveItem>::construct
  0002a	83 45 10 14	 add	 DWORD PTR __Dest$[ebp], 20 ; 00000014H
  0002e	83 c6 14	 add	 esi, 20			; 00000014H
  00031	eb e6		 jmp	 SHORT $LL6@Uninit_mov
__catch$??$_Uninit_move@PAUFileDriveItem@@PAU1@V?$allocator@UFileDriveItem@@@std@@U1@@std@@YAPAUFileDriveItem@@PAU1@00AAV?$allocator@UFileDriveItem@@@0@0U_Nonscalar_ptr_iterator_tag@0@@Z$0:

; 432  : 	_CATCH_ALL
; 433  : 	for (; _Next != _Dest; ++_Next)

  00033	8b 75 ec	 mov	 esi, DWORD PTR __Next$[ebp]
  00036	eb 0b		 jmp	 SHORT $LN36@Uninit_mov
$LL3@Uninit_mov:

; 434  : 		_Dest_val(_Al, _Next);

  00038	8b ce		 mov	 ecx, esi
  0003a	ff 15 00 00 00
	00		 call	 DWORD PTR __imp_??1ioHashString@@QAE@XZ
  00040	83 c6 14	 add	 esi, 20			; 00000014H
$LN36@Uninit_mov:

; 432  : 	_CATCH_ALL
; 433  : 	for (; _Next != _Dest; ++_Next)

  00043	3b 75 10	 cmp	 esi, DWORD PTR __Dest$[ebp]
  00046	75 f0		 jne	 SHORT $LL3@Uninit_mov

; 435  : 	_RERAISE;

  00048	6a 00		 push	 0
  0004a	6a 00		 push	 0
  0004c	e8 00 00 00 00	 call	 __CxxThrowException@8
$LN37@Uninit_mov:
$LN4@Uninit_mov:

; 436  : 	_CATCH_END
; 437  : 	return (_Dest);

  00051	8b 45 10	 mov	 eax, DWORD PTR __Dest$[ebp]

; 438  : 	}

  00054	e8 00 00 00 00	 call	 __EH_epilog3
  00059	c3		 ret	 0
$LN35@Uninit_mov:
_TEXT	ENDS
;	COMDAT text$x
text$x	SEGMENT
__ehhandler$??$_Uninit_move@PAUFileDriveItem@@PAU1@V?$allocator@UFileDriveItem@@@std@@U1@@std@@YAPAUFileDriveItem@@PAU1@00AAV?$allocator@UFileDriveItem@@@0@0U_Nonscalar_ptr_iterator_tag@0@@Z:
  00000	8b 54 24 08	 mov	 edx, DWORD PTR [esp+8]
  00004	8d 42 0c	 lea	 eax, DWORD PTR [edx+12]
  00007	8b 4a e8	 mov	 ecx, DWORD PTR [edx-24]
  0000a	33 c8		 xor	 ecx, eax
  0000c	e8 00 00 00 00	 call	 @__security_check_cookie@4
  00011	b8 00 00 00 00	 mov	 eax, OFFSET __ehfuncinfo$??$_Uninit_move@PAUFileDriveItem@@PAU1@V?$allocator@UFileDriveItem@@@std@@U1@@std@@YAPAUFileDriveItem@@PAU1@00AAV?$allocator@UFileDriveItem@@@0@0U_Nonscalar_ptr_iterator_tag@0@@Z
  00016	e9 00 00 00 00	 jmp	 ___CxxFrameHandler3
text$x	ENDS
??$_Uninit_move@PAUFileDriveItem@@PAU1@V?$allocator@UFileDriveItem@@@std@@U1@@std@@YAPAUFileDriveItem@@PAU1@00AAV?$allocator@UFileDriveItem@@@0@0U_Nonscalar_ptr_iterator_tag@0@@Z ENDP ; std::_Uninit_move<FileDriveItem *,FileDriveItem *,std::allocator<FileDriveItem>,FileDriveItem>
PUBLIC	??$_Uninit_move@PAVioHashString@@PAV1@V?$allocator@VioHashString@@@std@@V1@@std@@YAPAVioHashString@@PAV1@00AAV?$allocator@VioHashString@@@0@0U_Nonscalar_ptr_iterator_tag@0@@Z ; std::_Uninit_move<ioHashString *,ioHashString *,std::allocator<ioHashString>,ioHashString>
;	COMDAT xdata$x
; File c:\program files (x86)\microsoft visual studio 10.0\vc\include\vector
xdata$x	SEGMENT
__catchsym$??$_Uninit_move@PAVioHashString@@PAV1@V?$allocator@VioHashString@@@std@@V1@@std@@YAPAVioHashString@@PAV1@00AAV?$allocator@VioHashString@@@0@0U_Nonscalar_ptr_iterator_tag@0@@Z$2 DD 040H
	DD	00H
	DD	00H
	DD	FLAT:__catch$??$_Uninit_move@PAVioHashString@@PAV1@V?$allocator@VioHashString@@@std@@V1@@std@@YAPAVioHashString@@PAV1@00AAV?$allocator@VioHashString@@@0@0U_Nonscalar_ptr_iterator_tag@0@@Z$0
__unwindtable$??$_Uninit_move@PAVioHashString@@PAV1@V?$allocator@VioHashString@@@std@@V1@@std@@YAPAVioHashString@@PAV1@00AAV?$allocator@VioHashString@@@0@0U_Nonscalar_ptr_iterator_tag@0@@Z DD 0ffffffffH
	DD	00H
	DD	0ffffffffH
	DD	00H
__tryblocktable$??$_Uninit_move@PAVioHashString@@PAV1@V?$allocator@VioHashString@@@std@@V1@@std@@YAPAVioHashString@@PAV1@00AAV?$allocator@VioHashString@@@0@0U_Nonscalar_ptr_iterator_tag@0@@Z DD 00H
	DD	00H
	DD	01H
	DD	01H
	DD	FLAT:__catchsym$??$_Uninit_move@PAVioHashString@@PAV1@V?$allocator@VioHashString@@@std@@V1@@std@@YAPAVioHashString@@PAV1@00AAV?$allocator@VioHashString@@@0@0U_Nonscalar_ptr_iterator_tag@0@@Z$2
__ehfuncinfo$??$_Uninit_move@PAVioHashString@@PAV1@V?$allocator@VioHashString@@@std@@V1@@std@@YAPAVioHashString@@PAV1@00AAV?$allocator@VioHashString@@@0@0U_Nonscalar_ptr_iterator_tag@0@@Z DD 019930522H
	DD	02H
	DD	FLAT:__unwindtable$??$_Uninit_move@PAVioHashString@@PAV1@V?$allocator@VioHashString@@@std@@V1@@std@@YAPAVioHashString@@PAV1@00AAV?$allocator@VioHashString@@@0@0U_Nonscalar_ptr_iterator_tag@0@@Z
	DD	01H
	DD	FLAT:__tryblocktable$??$_Uninit_move@PAVioHashString@@PAV1@V?$allocator@VioHashString@@@std@@V1@@std@@YAPAVioHashString@@PAV1@00AAV?$allocator@VioHashString@@@0@0U_Nonscalar_ptr_iterator_tag@0@@Z
	DD	2 DUP(00H)
	DD	00H
	DD	01H
; Function compile flags: /Ogsp
; File c:\program files (x86)\microsoft visual studio 10.0\vc\include\memory
xdata$x	ENDS
;	COMDAT ??$_Uninit_move@PAVioHashString@@PAV1@V?$allocator@VioHashString@@@std@@V1@@std@@YAPAVioHashString@@PAV1@00AAV?$allocator@VioHashString@@@0@0U_Nonscalar_ptr_iterator_tag@0@@Z
_TEXT	SEGMENT
__Next$ = -20						; size = 4
__$EHRec$ = -16						; size = 16
__First$ = 8						; size = 4
__Last$ = 12						; size = 4
__Dest$ = 16						; size = 4
__Al$ = 20						; size = 4
___formal$ = 24						; size = 4
___formal$ = 28						; size = 1
??$_Uninit_move@PAVioHashString@@PAV1@V?$allocator@VioHashString@@@std@@V1@@std@@YAPAVioHashString@@PAV1@00AAV?$allocator@VioHashString@@@0@0U_Nonscalar_ptr_iterator_tag@0@@Z PROC ; std::_Uninit_move<ioHashString *,ioHashString *,std::allocator<ioHashString>,ioHashString>, COMDAT

; 424  : 	{	// move [_First, _Last) to raw _Dest, using _Al, arbitrary type

  00000	6a 08		 push	 8
  00002	b8 00 00 00 00	 mov	 eax, __ehhandler$??$_Uninit_move@PAVioHashString@@PAV1@V?$allocator@VioHashString@@@std@@V1@@std@@YAPAVioHashString@@PAV1@00AAV?$allocator@VioHashString@@@0@0U_Nonscalar_ptr_iterator_tag@0@@Z
  00007	e8 00 00 00 00	 call	 __EH_prolog3_catch

; 425  : 	_DEBUG_RANGE(_First, _Last);
; 426  : 	_DEBUG_POINTER(_Dest);
; 427  : 	_FwdIt _Next = _Dest;

  0000c	8b 45 10	 mov	 eax, DWORD PTR __Dest$[ebp]

; 428  : 
; 429  : 	_TRY_BEGIN

  0000f	83 65 fc 00	 and	 DWORD PTR __$EHRec$[ebp+12], 0
  00013	8b 75 08	 mov	 esi, DWORD PTR __First$[ebp]
  00016	89 45 ec	 mov	 DWORD PTR __Next$[ebp], eax
$LL6@Uninit_mov@2:

; 430  : 	for (; _First != _Last; ++_Dest, ++_First)

  00019	3b 75 0c	 cmp	 esi, DWORD PTR __Last$[ebp]
  0001c	74 33		 je	 SHORT $LN4@Uninit_mov@2

; 431  : 		_Cons_val(_Al, _Dest, (_Valty &&)*_First);

  0001e	8b 4d 14	 mov	 ecx, DWORD PTR __Al$[ebp]
  00021	56		 push	 esi
  00022	ff 75 10	 push	 DWORD PTR __Dest$[ebp]
  00025	e8 00 00 00 00	 call	 ?construct@?$allocator@VioHashString@@@std@@QAEXPAVioHashString@@$$QAV3@@Z ; std::allocator<ioHashString>::construct
  0002a	83 45 10 10	 add	 DWORD PTR __Dest$[ebp], 16 ; 00000010H
  0002e	83 c6 10	 add	 esi, 16			; 00000010H
  00031	eb e6		 jmp	 SHORT $LL6@Uninit_mov@2
__catch$??$_Uninit_move@PAVioHashString@@PAV1@V?$allocator@VioHashString@@@std@@V1@@std@@YAPAVioHashString@@PAV1@00AAV?$allocator@VioHashString@@@0@0U_Nonscalar_ptr_iterator_tag@0@@Z$0:

; 432  : 	_CATCH_ALL
; 433  : 	for (; _Next != _Dest; ++_Next)

  00033	8b 75 ec	 mov	 esi, DWORD PTR __Next$[ebp]
  00036	eb 0b		 jmp	 SHORT $LN33@Uninit_mov@2
$LL3@Uninit_mov@2:

; 434  : 		_Dest_val(_Al, _Next);

  00038	8b ce		 mov	 ecx, esi
  0003a	ff 15 00 00 00
	00		 call	 DWORD PTR __imp_??1ioHashString@@QAE@XZ
  00040	83 c6 10	 add	 esi, 16			; 00000010H
$LN33@Uninit_mov@2:

; 432  : 	_CATCH_ALL
; 433  : 	for (; _Next != _Dest; ++_Next)

  00043	3b 75 10	 cmp	 esi, DWORD PTR __Dest$[ebp]
  00046	75 f0		 jne	 SHORT $LL3@Uninit_mov@2

; 435  : 	_RERAISE;

  00048	6a 00		 push	 0
  0004a	6a 00		 push	 0
  0004c	e8 00 00 00 00	 call	 __CxxThrowException@8
$LN34@Uninit_mov@2:
$LN4@Uninit_mov@2:

; 436  : 	_CATCH_END
; 437  : 	return (_Dest);

  00051	8b 45 10	 mov	 eax, DWORD PTR __Dest$[ebp]

; 438  : 	}

  00054	e8 00 00 00 00	 call	 __EH_epilog3
  00059	c3		 ret	 0
$LN32@Uninit_mov@2:
_TEXT	ENDS
;	COMDAT text$x
text$x	SEGMENT
__ehhandler$??$_Uninit_move@PAVioHashString@@PAV1@V?$allocator@VioHashString@@@std@@V1@@std@@YAPAVioHashString@@PAV1@00AAV?$allocator@VioHashString@@@0@0U_Nonscalar_ptr_iterator_tag@0@@Z:
  00000	8b 54 24 08	 mov	 edx, DWORD PTR [esp+8]
  00004	8d 42 0c	 lea	 eax, DWORD PTR [edx+12]
  00007	8b 4a e8	 mov	 ecx, DWORD PTR [edx-24]
  0000a	33 c8		 xor	 ecx, eax
  0000c	e8 00 00 00 00	 call	 @__security_check_cookie@4
  00011	b8 00 00 00 00	 mov	 eax, OFFSET __ehfuncinfo$??$_Uninit_move@PAVioHashString@@PAV1@V?$allocator@VioHashString@@@std@@V1@@std@@YAPAVioHashString@@PAV1@00AAV?$allocator@VioHashString@@@0@0U_Nonscalar_ptr_iterator_tag@0@@Z
  00016	e9 00 00 00 00	 jmp	 ___CxxFrameHandler3
text$x	ENDS
??$_Uninit_move@PAVioHashString@@PAV1@V?$allocator@VioHashString@@@std@@V1@@std@@YAPAVioHashString@@PAV1@00AAV?$allocator@VioHashString@@@0@0U_Nonscalar_ptr_iterator_tag@0@@Z ENDP ; std::_Uninit_move<ioHashString *,ioHashString *,std::allocator<ioHashString>,ioHashString>
PUBLIC	??$_Uninit_move@PAUFileInfo@FileListWnd@@PAU12@V?$allocator@UFileInfo@FileListWnd@@@std@@U12@@std@@YAPAUFileInfo@FileListWnd@@PAU12@00AAV?$allocator@UFileInfo@FileListWnd@@@0@0U_Nonscalar_ptr_iterator_tag@0@@Z ; std::_Uninit_move<FileListWnd::FileInfo *,FileListWnd::FileInfo *,std::allocator<FileListWnd::FileInfo>,FileListWnd::FileInfo>
;	COMDAT xdata$x
; File d:\lost saga for developer\youtube\tutorial\source\src\lsclient\gui\filelistwnd.cpp
xdata$x	SEGMENT
__catchsym$??$_Uninit_move@PAUFileInfo@FileListWnd@@PAU12@V?$allocator@UFileInfo@FileListWnd@@@std@@U12@@std@@YAPAUFileInfo@FileListWnd@@PAU12@00AAV?$allocator@UFileInfo@FileListWnd@@@0@0U_Nonscalar_ptr_iterator_tag@0@@Z$3 DD 040H
	DD	00H
	DD	00H
	DD	FLAT:__catch$??$_Uninit_move@PAUFileInfo@FileListWnd@@PAU12@V?$allocator@UFileInfo@FileListWnd@@@std@@U12@@std@@YAPAUFileInfo@FileListWnd@@PAU12@00AAV?$allocator@UFileInfo@FileListWnd@@@0@0U_Nonscalar_ptr_iterator_tag@0@@Z$0
__unwindtable$??$_Uninit_move@PAUFileInfo@FileListWnd@@PAU12@V?$allocator@UFileInfo@FileListWnd@@@std@@U12@@std@@YAPAUFileInfo@FileListWnd@@PAU12@00AAV?$allocator@UFileInfo@FileListWnd@@@0@0U_Nonscalar_ptr_iterator_tag@0@@Z DD 0ffffffffH
	DD	00H
	DD	0ffffffffH
	DD	00H
__tryblocktable$??$_Uninit_move@PAUFileInfo@FileListWnd@@PAU12@V?$allocator@UFileInfo@FileListWnd@@@std@@U12@@std@@YAPAUFileInfo@FileListWnd@@PAU12@00AAV?$allocator@UFileInfo@FileListWnd@@@0@0U_Nonscalar_ptr_iterator_tag@0@@Z DD 00H
	DD	00H
	DD	01H
	DD	01H
	DD	FLAT:__catchsym$??$_Uninit_move@PAUFileInfo@FileListWnd@@PAU12@V?$allocator@UFileInfo@FileListWnd@@@std@@U12@@std@@YAPAUFileInfo@FileListWnd@@PAU12@00AAV?$allocator@UFileInfo@FileListWnd@@@0@0U_Nonscalar_ptr_iterator_tag@0@@Z$3
__ehfuncinfo$??$_Uninit_move@PAUFileInfo@FileListWnd@@PAU12@V?$allocator@UFileInfo@FileListWnd@@@std@@U12@@std@@YAPAUFileInfo@FileListWnd@@PAU12@00AAV?$allocator@UFileInfo@FileListWnd@@@0@0U_Nonscalar_ptr_iterator_tag@0@@Z DD 019930522H
	DD	02H
	DD	FLAT:__unwindtable$??$_Uninit_move@PAUFileInfo@FileListWnd@@PAU12@V?$allocator@UFileInfo@FileListWnd@@@std@@U12@@std@@YAPAUFileInfo@FileListWnd@@PAU12@00AAV?$allocator@UFileInfo@FileListWnd@@@0@0U_Nonscalar_ptr_iterator_tag@0@@Z
	DD	01H
	DD	FLAT:__tryblocktable$??$_Uninit_move@PAUFileInfo@FileListWnd@@PAU12@V?$allocator@UFileInfo@FileListWnd@@@std@@U12@@std@@YAPAUFileInfo@FileListWnd@@PAU12@00AAV?$allocator@UFileInfo@FileListWnd@@@0@0U_Nonscalar_ptr_iterator_tag@0@@Z
	DD	2 DUP(00H)
	DD	00H
	DD	01H
; Function compile flags: /Ogsp
; File c:\program files (x86)\microsoft visual studio 10.0\vc\include\memory
xdata$x	ENDS
;	COMDAT ??$_Uninit_move@PAUFileInfo@FileListWnd@@PAU12@V?$allocator@UFileInfo@FileListWnd@@@std@@U12@@std@@YAPAUFileInfo@FileListWnd@@PAU12@00AAV?$allocator@UFileInfo@FileListWnd@@@0@0U_Nonscalar_ptr_iterator_tag@0@@Z
_TEXT	SEGMENT
__Next$ = -20						; size = 4
__$EHRec$ = -16						; size = 16
__First$ = 8						; size = 4
__Last$ = 12						; size = 4
__Dest$ = 16						; size = 4
__Al$ = 20						; size = 4
___formal$ = 24						; size = 4
___formal$ = 28						; size = 1
??$_Uninit_move@PAUFileInfo@FileListWnd@@PAU12@V?$allocator@UFileInfo@FileListWnd@@@std@@U12@@std@@YAPAUFileInfo@FileListWnd@@PAU12@00AAV?$allocator@UFileInfo@FileListWnd@@@0@0U_Nonscalar_ptr_iterator_tag@0@@Z PROC ; std::_Uninit_move<FileListWnd::FileInfo *,FileListWnd::FileInfo *,std::allocator<FileListWnd::FileInfo>,FileListWnd::FileInfo>, COMDAT

; 424  : 	{	// move [_First, _Last) to raw _Dest, using _Al, arbitrary type

  00000	6a 08		 push	 8
  00002	b8 00 00 00 00	 mov	 eax, __ehhandler$??$_Uninit_move@PAUFileInfo@FileListWnd@@PAU12@V?$allocator@UFileInfo@FileListWnd@@@std@@U12@@std@@YAPAUFileInfo@FileListWnd@@PAU12@00AAV?$allocator@UFileInfo@FileListWnd@@@0@0U_Nonscalar_ptr_iterator_tag@0@@Z
  00007	e8 00 00 00 00	 call	 __EH_prolog3_catch

; 425  : 	_DEBUG_RANGE(_First, _Last);
; 426  : 	_DEBUG_POINTER(_Dest);
; 427  : 	_FwdIt _Next = _Dest;

  0000c	8b 45 10	 mov	 eax, DWORD PTR __Dest$[ebp]

; 428  : 
; 429  : 	_TRY_BEGIN

  0000f	83 65 fc 00	 and	 DWORD PTR __$EHRec$[ebp+12], 0
  00013	8b 75 08	 mov	 esi, DWORD PTR __First$[ebp]
  00016	89 45 ec	 mov	 DWORD PTR __Next$[ebp], eax
$LL6@Uninit_mov@3:

; 430  : 	for (; _First != _Last; ++_Dest, ++_First)

  00019	3b 75 0c	 cmp	 esi, DWORD PTR __Last$[ebp]
  0001c	74 33		 je	 SHORT $LN4@Uninit_mov@3

; 431  : 		_Cons_val(_Al, _Dest, (_Valty &&)*_First);

  0001e	8b 4d 14	 mov	 ecx, DWORD PTR __Al$[ebp]
  00021	56		 push	 esi
  00022	ff 75 10	 push	 DWORD PTR __Dest$[ebp]
  00025	e8 00 00 00 00	 call	 ?construct@?$allocator@UFileInfo@FileListWnd@@@std@@QAEXPAUFileInfo@FileListWnd@@$$QAU34@@Z ; std::allocator<FileListWnd::FileInfo>::construct
  0002a	83 45 10 14	 add	 DWORD PTR __Dest$[ebp], 20 ; 00000014H
  0002e	83 c6 14	 add	 esi, 20			; 00000014H
  00031	eb e6		 jmp	 SHORT $LL6@Uninit_mov@3
__catch$??$_Uninit_move@PAUFileInfo@FileListWnd@@PAU12@V?$allocator@UFileInfo@FileListWnd@@@std@@U12@@std@@YAPAUFileInfo@FileListWnd@@PAU12@00AAV?$allocator@UFileInfo@FileListWnd@@@0@0U_Nonscalar_ptr_iterator_tag@0@@Z$0:

; 432  : 	_CATCH_ALL
; 433  : 	for (; _Next != _Dest; ++_Next)

  00033	8b 75 ec	 mov	 esi, DWORD PTR __Next$[ebp]
  00036	eb 0b		 jmp	 SHORT $LN36@Uninit_mov@3
$LL3@Uninit_mov@3:

; 434  : 		_Dest_val(_Al, _Next);

  00038	8b ce		 mov	 ecx, esi
  0003a	ff 15 00 00 00
	00		 call	 DWORD PTR __imp_??1ioHashString@@QAE@XZ
  00040	83 c6 14	 add	 esi, 20			; 00000014H
$LN36@Uninit_mov@3:

; 432  : 	_CATCH_ALL
; 433  : 	for (; _Next != _Dest; ++_Next)

  00043	3b 75 10	 cmp	 esi, DWORD PTR __Dest$[ebp]
  00046	75 f0		 jne	 SHORT $LL3@Uninit_mov@3

; 435  : 	_RERAISE;

  00048	6a 00		 push	 0
  0004a	6a 00		 push	 0
  0004c	e8 00 00 00 00	 call	 __CxxThrowException@8
$LN37@Uninit_mov@3:
$LN4@Uninit_mov@3:

; 436  : 	_CATCH_END
; 437  : 	return (_Dest);

  00051	8b 45 10	 mov	 eax, DWORD PTR __Dest$[ebp]

; 438  : 	}

  00054	e8 00 00 00 00	 call	 __EH_epilog3
  00059	c3		 ret	 0
$LN35@Uninit_mov@3:
_TEXT	ENDS
;	COMDAT text$x
text$x	SEGMENT
__ehhandler$??$_Uninit_move@PAUFileInfo@FileListWnd@@PAU12@V?$allocator@UFileInfo@FileListWnd@@@std@@U12@@std@@YAPAUFileInfo@FileListWnd@@PAU12@00AAV?$allocator@UFileInfo@FileListWnd@@@0@0U_Nonscalar_ptr_iterator_tag@0@@Z:
  00000	8b 54 24 08	 mov	 edx, DWORD PTR [esp+8]
  00004	8d 42 0c	 lea	 eax, DWORD PTR [edx+12]
  00007	8b 4a e8	 mov	 ecx, DWORD PTR [edx-24]
  0000a	33 c8		 xor	 ecx, eax
  0000c	e8 00 00 00 00	 call	 @__security_check_cookie@4
  00011	b8 00 00 00 00	 mov	 eax, OFFSET __ehfuncinfo$??$_Uninit_move@PAUFileInfo@FileListWnd@@PAU12@V?$allocator@UFileInfo@FileListWnd@@@std@@U12@@std@@YAPAUFileInfo@FileListWnd@@PAU12@00AAV?$allocator@UFileInfo@FileListWnd@@@0@0U_Nonscalar_ptr_iterator_tag@0@@Z
  00016	e9 00 00 00 00	 jmp	 ___CxxFrameHandler3
text$x	ENDS
??$_Uninit_move@PAUFileInfo@FileListWnd@@PAU12@V?$allocator@UFileInfo@FileListWnd@@@std@@U12@@std@@YAPAUFileInfo@FileListWnd@@PAU12@00AAV?$allocator@UFileInfo@FileListWnd@@@0@0U_Nonscalar_ptr_iterator_tag@0@@Z ENDP ; std::_Uninit_move<FileListWnd::FileInfo *,FileListWnd::FileInfo *,std::allocator<FileListWnd::FileInfo>,FileListWnd::FileInfo>
PUBLIC	??$_Sort_heap@PAUFileInfo@FileListWnd@@VFileListInfoSort@@@std@@YAXPAUFileInfo@FileListWnd@@0VFileListInfoSort@@@Z ; std::_Sort_heap<FileListWnd::FileInfo *,FileListInfoSort>
; Function compile flags: /Ogsp
; File c:\program files (x86)\microsoft visual studio 10.0\vc\include\algorithm
;	COMDAT ??$_Sort_heap@PAUFileInfo@FileListWnd@@VFileListInfoSort@@@std@@YAXPAUFileInfo@FileListWnd@@0VFileListInfoSort@@@Z
_TEXT	SEGMENT
__First$ = 8						; size = 4
__Last$ = 12						; size = 4
__Pred$ = 16						; size = 1
??$_Sort_heap@PAUFileInfo@FileListWnd@@VFileListInfoSort@@@std@@YAXPAUFileInfo@FileListWnd@@0VFileListInfoSort@@@Z PROC ; std::_Sort_heap<FileListWnd::FileInfo *,FileListInfoSort>, COMDAT

; 2700 : 	{	// order heap by repeatedly popping, using _Pred

  00000	55		 push	 ebp
  00001	8b ec		 mov	 ebp, esp

; 2701 : 	for (; 1 < _Last - _First; --_Last)

  00003	8b 4d 0c	 mov	 ecx, DWORD PTR __Last$[ebp]
  00006	2b 4d 08	 sub	 ecx, DWORD PTR __First$[ebp]
  00009	57		 push	 edi
  0000a	8b c1		 mov	 eax, ecx
  0000c	6a 14		 push	 20			; 00000014H
  0000e	99		 cdq
  0000f	5f		 pop	 edi
  00010	f7 ff		 idiv	 edi
  00012	83 f8 01	 cmp	 eax, 1
  00015	7e 29		 jle	 SHORT $LN1@Sort_heap
  00017	8b f9		 mov	 edi, ecx
$LL3@Sort_heap:

; 2702 : 		_Pop_heap(_First, _Last, _Pred);

  00019	6a 00		 push	 0
  0001b	ff 75 10	 push	 DWORD PTR __Pred$[ebp]
  0001e	ff 75 0c	 push	 DWORD PTR __Last$[ebp]
  00021	ff 75 08	 push	 DWORD PTR __First$[ebp]
  00024	e8 00 00 00 00	 call	 ??$_Pop_heap_0@PAUFileInfo@FileListWnd@@U12@VFileListInfoSort@@@std@@YAXPAUFileInfo@FileListWnd@@0VFileListInfoSort@@0@Z ; std::_Pop_heap_0<FileListWnd::FileInfo *,FileListWnd::FileInfo,FileListInfoSort>
  00029	83 c4 10	 add	 esp, 16			; 00000010H
  0002c	83 ef 14	 sub	 edi, 20			; 00000014H
  0002f	8b c7		 mov	 eax, edi
  00031	6a 14		 push	 20			; 00000014H
  00033	99		 cdq
  00034	59		 pop	 ecx
  00035	f7 f9		 idiv	 ecx
  00037	83 6d 0c 14	 sub	 DWORD PTR __Last$[ebp], 20 ; 00000014H
  0003b	83 f8 01	 cmp	 eax, 1
  0003e	7f d9		 jg	 SHORT $LL3@Sort_heap
$LN1@Sort_heap:
  00040	5f		 pop	 edi

; 2703 : 	}

  00041	5d		 pop	 ebp
  00042	c3		 ret	 0
??$_Sort_heap@PAUFileInfo@FileListWnd@@VFileListInfoSort@@@std@@YAXPAUFileInfo@FileListWnd@@0VFileListInfoSort@@@Z ENDP ; std::_Sort_heap<FileListWnd::FileInfo *,FileListInfoSort>
_TEXT	ENDS
PUBLIC	??$_Destroy_range@V?$allocator@VioHashString@@@std@@@std@@YAXPAVioHashString@@0AAV?$allocator@VioHashString@@@0@U_Nonscalar_ptr_iterator_tag@0@@Z ; std::_Destroy_range<std::allocator<ioHashString> >
; Function compile flags: /Ogsp
; File c:\program files (x86)\microsoft visual studio 10.0\vc\include\xmemory
;	COMDAT ??$_Destroy_range@V?$allocator@VioHashString@@@std@@@std@@YAXPAVioHashString@@0AAV?$allocator@VioHashString@@@0@U_Nonscalar_ptr_iterator_tag@0@@Z
_TEXT	SEGMENT
__First$ = 8						; size = 4
__Last$ = 12						; size = 4
__Al$ = 16						; size = 4
___formal$ = 20						; size = 1
??$_Destroy_range@V?$allocator@VioHashString@@@std@@@std@@YAXPAVioHashString@@0AAV?$allocator@VioHashString@@@0@U_Nonscalar_ptr_iterator_tag@0@@Z PROC ; std::_Destroy_range<std::allocator<ioHashString> >, COMDAT

; 95   : 	{	// destroy [_First, _Last), arbitrary type

  00000	55		 push	 ebp
  00001	8b ec		 mov	 ebp, esp
  00003	56		 push	 esi

; 96   : 	for (; _First != _Last; ++_First)

  00004	8b 75 08	 mov	 esi, DWORD PTR __First$[ebp]
  00007	eb 0b		 jmp	 SHORT $LN17@Destroy_ra@3
$LL3@Destroy_ra@3:

; 97   : 		_Dest_val(_Al, _First);

  00009	8b ce		 mov	 ecx, esi
  0000b	ff 15 00 00 00
	00		 call	 DWORD PTR __imp_??1ioHashString@@QAE@XZ
  00011	83 c6 10	 add	 esi, 16			; 00000010H
$LN17@Destroy_ra@3:

; 96   : 	for (; _First != _Last; ++_First)

  00014	3b 75 0c	 cmp	 esi, DWORD PTR __Last$[ebp]
  00017	75 f0		 jne	 SHORT $LL3@Destroy_ra@3
  00019	5e		 pop	 esi

; 98   : 	}

  0001a	5d		 pop	 ebp
  0001b	c3		 ret	 0
??$_Destroy_range@V?$allocator@VioHashString@@@std@@@std@@YAXPAVioHashString@@0AAV?$allocator@VioHashString@@@0@U_Nonscalar_ptr_iterator_tag@0@@Z ENDP ; std::_Destroy_range<std::allocator<ioHashString> >
_TEXT	ENDS
PUBLIC	??$_Uninitialized_default_fill_n@PAUFileDriveItem@@IU1@V?$allocator@UFileDriveItem@@@std@@@std@@YAXPAUFileDriveItem@@IPBU1@AAV?$allocator@UFileDriveItem@@@0@@Z ; std::_Uninitialized_default_fill_n<FileDriveItem *,unsigned int,FileDriveItem,std::allocator<FileDriveItem> >
; Function compile flags: /Ogsp
; File c:\program files (x86)\microsoft visual studio 10.0\vc\include\memory
;	COMDAT ??$_Uninitialized_default_fill_n@PAUFileDriveItem@@IU1@V?$allocator@UFileDriveItem@@@std@@@std@@YAXPAUFileDriveItem@@IPBU1@AAV?$allocator@UFileDriveItem@@@0@@Z
_TEXT	SEGMENT
__Cat$517664 = -4					; size = 1
__First$ = 8						; size = 4
__Count$ = 12						; size = 4
__Pval$ = 16						; size = 4
__Al$ = 20						; size = 4
??$_Uninitialized_default_fill_n@PAUFileDriveItem@@IU1@V?$allocator@UFileDriveItem@@@std@@@std@@YAXPAUFileDriveItem@@IPBU1@AAV?$allocator@UFileDriveItem@@@0@@Z PROC ; std::_Uninitialized_default_fill_n<FileDriveItem *,unsigned int,FileDriveItem,std::allocator<FileDriveItem> >, COMDAT

; 670  : 	{	// copy _Count * _Val_type(_First)() to raw _First, using _Al

  00000	55		 push	 ebp
  00001	8b ec		 mov	 ebp, esp
  00003	51		 push	 ecx

; 671  : 	_Uninit_def_fill_n(_First, _Count, _Pval, _Al,
; 672  : 		_Val_type(_First), _Ptr_cat(_First, _First));

  00004	ff 75 fc	 push	 DWORD PTR __Cat$517664[ebp]
  00007	6a 00		 push	 0
  00009	ff 75 14	 push	 DWORD PTR __Al$[ebp]
  0000c	ff 75 10	 push	 DWORD PTR __Pval$[ebp]
  0000f	ff 75 0c	 push	 DWORD PTR __Count$[ebp]
  00012	ff 75 08	 push	 DWORD PTR __First$[ebp]
  00015	e8 00 00 00 00	 call	 ??$_Uninit_def_fill_n@PAUFileDriveItem@@IU1@V?$allocator@UFileDriveItem@@@std@@U1@@std@@YAXPAUFileDriveItem@@IPBU1@AAV?$allocator@UFileDriveItem@@@0@0U_Nonscalar_ptr_iterator_tag@0@@Z ; std::_Uninit_def_fill_n<FileDriveItem *,unsigned int,FileDriveItem,std::allocator<FileDriveItem>,FileDriveItem>
  0001a	83 c4 18	 add	 esp, 24			; 00000018H

; 673  : 	}

  0001d	c9		 leave
  0001e	c3		 ret	 0
??$_Uninitialized_default_fill_n@PAUFileDriveItem@@IU1@V?$allocator@UFileDriveItem@@@std@@@std@@YAXPAUFileDriveItem@@IPBU1@AAV?$allocator@UFileDriveItem@@@0@@Z ENDP ; std::_Uninitialized_default_fill_n<FileDriveItem *,unsigned int,FileDriveItem,std::allocator<FileDriveItem> >
_TEXT	ENDS
PUBLIC	??$_Destroy_range@V?$allocator@UFileDriveItem@@@std@@@std@@YAXPAUFileDriveItem@@0AAV?$allocator@UFileDriveItem@@@0@@Z ; std::_Destroy_range<std::allocator<FileDriveItem> >
; Function compile flags: /Ogsp
; File c:\program files (x86)\microsoft visual studio 10.0\vc\include\xmemory
;	COMDAT ??$_Destroy_range@V?$allocator@UFileDriveItem@@@std@@@std@@YAXPAUFileDriveItem@@0AAV?$allocator@UFileDriveItem@@@0@@Z
_TEXT	SEGMENT
__First$ = 8						; size = 4
__Last$ = 12						; size = 4
__Al$ = 16						; size = 4
??$_Destroy_range@V?$allocator@UFileDriveItem@@@std@@@std@@YAXPAUFileDriveItem@@0AAV?$allocator@UFileDriveItem@@@0@@Z PROC ; std::_Destroy_range<std::allocator<FileDriveItem> >, COMDAT

; 87   : 	{	// destroy [_First, _Last)

  00000	55		 push	 ebp
  00001	8b ec		 mov	 ebp, esp
  00003	56		 push	 esi

; 88   : 	_Destroy_range(_First, _Last, _Al, _Ptr_cat(_First, _Last));

  00004	8b 75 08	 mov	 esi, DWORD PTR __First$[ebp]
  00007	eb 0b		 jmp	 SHORT $LN24@Destroy_ra@4
$LL7@Destroy_ra@4:
  00009	8b ce		 mov	 ecx, esi
  0000b	ff 15 00 00 00
	00		 call	 DWORD PTR __imp_??1ioHashString@@QAE@XZ
  00011	83 c6 14	 add	 esi, 20			; 00000014H
$LN24@Destroy_ra@4:
  00014	3b 75 0c	 cmp	 esi, DWORD PTR __Last$[ebp]
  00017	75 f0		 jne	 SHORT $LL7@Destroy_ra@4
  00019	5e		 pop	 esi

; 89   : 	}

  0001a	5d		 pop	 ebp
  0001b	c3		 ret	 0
??$_Destroy_range@V?$allocator@UFileDriveItem@@@std@@@std@@YAXPAUFileDriveItem@@0AAV?$allocator@UFileDriveItem@@@0@@Z ENDP ; std::_Destroy_range<std::allocator<FileDriveItem> >
_TEXT	ENDS
PUBLIC	??$_Destroy_range@V?$allocator@UFileInfo@FileListWnd@@@std@@@std@@YAXPAUFileInfo@FileListWnd@@0AAV?$allocator@UFileInfo@FileListWnd@@@0@@Z ; std::_Destroy_range<std::allocator<FileListWnd::FileInfo> >
; Function compile flags: /Ogsp
;	COMDAT ??$_Destroy_range@V?$allocator@UFileInfo@FileListWnd@@@std@@@std@@YAXPAUFileInfo@FileListWnd@@0AAV?$allocator@UFileInfo@FileListWnd@@@0@@Z
_TEXT	SEGMENT
__First$ = 8						; size = 4
__Last$ = 12						; size = 4
__Al$ = 16						; size = 4
??$_Destroy_range@V?$allocator@UFileInfo@FileListWnd@@@std@@@std@@YAXPAUFileInfo@FileListWnd@@0AAV?$allocator@UFileInfo@FileListWnd@@@0@@Z PROC ; std::_Destroy_range<std::allocator<FileListWnd::FileInfo> >, COMDAT

; 87   : 	{	// destroy [_First, _Last)

  00000	55		 push	 ebp
  00001	8b ec		 mov	 ebp, esp
  00003	56		 push	 esi

; 88   : 	_Destroy_range(_First, _Last, _Al, _Ptr_cat(_First, _Last));

  00004	8b 75 08	 mov	 esi, DWORD PTR __First$[ebp]
  00007	eb 0b		 jmp	 SHORT $LN24@Destroy_ra@5
$LL7@Destroy_ra@5:
  00009	8b ce		 mov	 ecx, esi
  0000b	ff 15 00 00 00
	00		 call	 DWORD PTR __imp_??1ioHashString@@QAE@XZ
  00011	83 c6 14	 add	 esi, 20			; 00000014H
$LN24@Destroy_ra@5:
  00014	3b 75 0c	 cmp	 esi, DWORD PTR __Last$[ebp]
  00017	75 f0		 jne	 SHORT $LL7@Destroy_ra@5
  00019	5e		 pop	 esi

; 89   : 	}

  0001a	5d		 pop	 ebp
  0001b	c3		 ret	 0
??$_Destroy_range@V?$allocator@UFileInfo@FileListWnd@@@std@@@std@@YAXPAUFileInfo@FileListWnd@@0AAV?$allocator@UFileInfo@FileListWnd@@@0@@Z ENDP ; std::_Destroy_range<std::allocator<FileListWnd::FileInfo> >
_TEXT	ENDS
PUBLIC	??$_Uninitialized_move@PAUFileDriveItem@@PAU1@V?$allocator@UFileDriveItem@@@std@@@std@@YAPAUFileDriveItem@@PAU1@00AAV?$allocator@UFileDriveItem@@@0@@Z ; std::_Uninitialized_move<FileDriveItem *,FileDriveItem *,std::allocator<FileDriveItem> >
; Function compile flags: /Ogsp
; File c:\program files (x86)\microsoft visual studio 10.0\vc\include\memory
;	COMDAT ??$_Uninitialized_move@PAUFileDriveItem@@PAU1@V?$allocator@UFileDriveItem@@@std@@@std@@YAPAUFileDriveItem@@PAU1@00AAV?$allocator@UFileDriveItem@@@0@@Z
_TEXT	SEGMENT
__Cat$517809 = -4					; size = 1
__First$ = 8						; size = 4
__Last$ = 12						; size = 4
__Dest$ = 16						; size = 4
__Al$ = 20						; size = 4
??$_Uninitialized_move@PAUFileDriveItem@@PAU1@V?$allocator@UFileDriveItem@@@std@@@std@@YAPAUFileDriveItem@@PAU1@00AAV?$allocator@UFileDriveItem@@@0@@Z PROC ; std::_Uninitialized_move<FileDriveItem *,FileDriveItem *,std::allocator<FileDriveItem> >, COMDAT

; 469  : 	{	// move [_First, _Last) to raw _Dest, using _Al

  00000	55		 push	 ebp
  00001	8b ec		 mov	 ebp, esp
  00003	51		 push	 ecx

; 470  : 	return (_Uninit_move(_First, _Last, _Dest, _Al,
; 471  : 		_Val_type(_First), _Ptr_cat(_First, _Dest)));

  00004	ff 75 fc	 push	 DWORD PTR __Cat$517809[ebp]
  00007	6a 00		 push	 0
  00009	ff 75 14	 push	 DWORD PTR __Al$[ebp]
  0000c	ff 75 10	 push	 DWORD PTR __Dest$[ebp]
  0000f	ff 75 0c	 push	 DWORD PTR __Last$[ebp]
  00012	ff 75 08	 push	 DWORD PTR __First$[ebp]
  00015	e8 00 00 00 00	 call	 ??$_Uninit_move@PAUFileDriveItem@@PAU1@V?$allocator@UFileDriveItem@@@std@@U1@@std@@YAPAUFileDriveItem@@PAU1@00AAV?$allocator@UFileDriveItem@@@0@0U_Nonscalar_ptr_iterator_tag@0@@Z ; std::_Uninit_move<FileDriveItem *,FileDriveItem *,std::allocator<FileDriveItem>,FileDriveItem>
  0001a	83 c4 18	 add	 esp, 24			; 00000018H

; 472  : 	}

  0001d	c9		 leave
  0001e	c3		 ret	 0
??$_Uninitialized_move@PAUFileDriveItem@@PAU1@V?$allocator@UFileDriveItem@@@std@@@std@@YAPAUFileDriveItem@@PAU1@00AAV?$allocator@UFileDriveItem@@@0@@Z ENDP ; std::_Uninitialized_move<FileDriveItem *,FileDriveItem *,std::allocator<FileDriveItem> >
_TEXT	ENDS
PUBLIC	??$_Uninitialized_move@PAVioHashString@@PAV1@V?$allocator@VioHashString@@@std@@@std@@YAPAVioHashString@@PAV1@00AAV?$allocator@VioHashString@@@0@@Z ; std::_Uninitialized_move<ioHashString *,ioHashString *,std::allocator<ioHashString> >
; Function compile flags: /Ogsp
;	COMDAT ??$_Uninitialized_move@PAVioHashString@@PAV1@V?$allocator@VioHashString@@@std@@@std@@YAPAVioHashString@@PAV1@00AAV?$allocator@VioHashString@@@0@@Z
_TEXT	SEGMENT
__Cat$517819 = -4					; size = 1
__First$ = 8						; size = 4
__Last$ = 12						; size = 4
__Dest$ = 16						; size = 4
__Al$ = 20						; size = 4
??$_Uninitialized_move@PAVioHashString@@PAV1@V?$allocator@VioHashString@@@std@@@std@@YAPAVioHashString@@PAV1@00AAV?$allocator@VioHashString@@@0@@Z PROC ; std::_Uninitialized_move<ioHashString *,ioHashString *,std::allocator<ioHashString> >, COMDAT

; 469  : 	{	// move [_First, _Last) to raw _Dest, using _Al

  00000	55		 push	 ebp
  00001	8b ec		 mov	 ebp, esp
  00003	51		 push	 ecx

; 470  : 	return (_Uninit_move(_First, _Last, _Dest, _Al,
; 471  : 		_Val_type(_First), _Ptr_cat(_First, _Dest)));

  00004	ff 75 fc	 push	 DWORD PTR __Cat$517819[ebp]
  00007	6a 00		 push	 0
  00009	ff 75 14	 push	 DWORD PTR __Al$[ebp]
  0000c	ff 75 10	 push	 DWORD PTR __Dest$[ebp]
  0000f	ff 75 0c	 push	 DWORD PTR __Last$[ebp]
  00012	ff 75 08	 push	 DWORD PTR __First$[ebp]
  00015	e8 00 00 00 00	 call	 ??$_Uninit_move@PAVioHashString@@PAV1@V?$allocator@VioHashString@@@std@@V1@@std@@YAPAVioHashString@@PAV1@00AAV?$allocator@VioHashString@@@0@0U_Nonscalar_ptr_iterator_tag@0@@Z ; std::_Uninit_move<ioHashString *,ioHashString *,std::allocator<ioHashString>,ioHashString>
  0001a	83 c4 18	 add	 esp, 24			; 00000018H

; 472  : 	}

  0001d	c9		 leave
  0001e	c3		 ret	 0
??$_Uninitialized_move@PAVioHashString@@PAV1@V?$allocator@VioHashString@@@std@@@std@@YAPAVioHashString@@PAV1@00AAV?$allocator@VioHashString@@@0@@Z ENDP ; std::_Uninitialized_move<ioHashString *,ioHashString *,std::allocator<ioHashString> >
_TEXT	ENDS
PUBLIC	??$_Uninitialized_move@PAUFileInfo@FileListWnd@@PAU12@V?$allocator@UFileInfo@FileListWnd@@@std@@@std@@YAPAUFileInfo@FileListWnd@@PAU12@00AAV?$allocator@UFileInfo@FileListWnd@@@0@@Z ; std::_Uninitialized_move<FileListWnd::FileInfo *,FileListWnd::FileInfo *,std::allocator<FileListWnd::FileInfo> >
; Function compile flags: /Ogsp
;	COMDAT ??$_Uninitialized_move@PAUFileInfo@FileListWnd@@PAU12@V?$allocator@UFileInfo@FileListWnd@@@std@@@std@@YAPAUFileInfo@FileListWnd@@PAU12@00AAV?$allocator@UFileInfo@FileListWnd@@@0@@Z
_TEXT	SEGMENT
__Cat$517829 = -4					; size = 1
__First$ = 8						; size = 4
__Last$ = 12						; size = 4
__Dest$ = 16						; size = 4
__Al$ = 20						; size = 4
??$_Uninitialized_move@PAUFileInfo@FileListWnd@@PAU12@V?$allocator@UFileInfo@FileListWnd@@@std@@@std@@YAPAUFileInfo@FileListWnd@@PAU12@00AAV?$allocator@UFileInfo@FileListWnd@@@0@@Z PROC ; std::_Uninitialized_move<FileListWnd::FileInfo *,FileListWnd::FileInfo *,std::allocator<FileListWnd::FileInfo> >, COMDAT

; 469  : 	{	// move [_First, _Last) to raw _Dest, using _Al

  00000	55		 push	 ebp
  00001	8b ec		 mov	 ebp, esp
  00003	51		 push	 ecx

; 470  : 	return (_Uninit_move(_First, _Last, _Dest, _Al,
; 471  : 		_Val_type(_First), _Ptr_cat(_First, _Dest)));

  00004	ff 75 fc	 push	 DWORD PTR __Cat$517829[ebp]
  00007	6a 00		 push	 0
  00009	ff 75 14	 push	 DWORD PTR __Al$[ebp]
  0000c	ff 75 10	 push	 DWORD PTR __Dest$[ebp]
  0000f	ff 75 0c	 push	 DWORD PTR __Last$[ebp]
  00012	ff 75 08	 push	 DWORD PTR __First$[ebp]
  00015	e8 00 00 00 00	 call	 ??$_Uninit_move@PAUFileInfo@FileListWnd@@PAU12@V?$allocator@UFileInfo@FileListWnd@@@std@@U12@@std@@YAPAUFileInfo@FileListWnd@@PAU12@00AAV?$allocator@UFileInfo@FileListWnd@@@0@0U_Nonscalar_ptr_iterator_tag@0@@Z ; std::_Uninit_move<FileListWnd::FileInfo *,FileListWnd::FileInfo *,std::allocator<FileListWnd::FileInfo>,FileListWnd::FileInfo>
  0001a	83 c4 18	 add	 esp, 24			; 00000018H

; 472  : 	}

  0001d	c9		 leave
  0001e	c3		 ret	 0
??$_Uninitialized_move@PAUFileInfo@FileListWnd@@PAU12@V?$allocator@UFileInfo@FileListWnd@@@std@@@std@@YAPAUFileInfo@FileListWnd@@PAU12@00AAV?$allocator@UFileInfo@FileListWnd@@@0@@Z ENDP ; std::_Uninitialized_move<FileListWnd::FileInfo *,FileListWnd::FileInfo *,std::allocator<FileListWnd::FileInfo> >
_TEXT	ENDS
PUBLIC	??$sort_heap@PAUFileInfo@FileListWnd@@VFileListInfoSort@@@std@@YAXPAUFileInfo@FileListWnd@@0VFileListInfoSort@@@Z ; std::sort_heap<FileListWnd::FileInfo *,FileListInfoSort>
; Function compile flags: /Ogsp
; File c:\program files (x86)\microsoft visual studio 10.0\vc\include\algorithm
;	COMDAT ??$sort_heap@PAUFileInfo@FileListWnd@@VFileListInfoSort@@@std@@YAXPAUFileInfo@FileListWnd@@0VFileListInfoSort@@@Z
_TEXT	SEGMENT
__First$ = 8						; size = 4
__Last$ = 12						; size = 4
__Pred$ = 16						; size = 1
??$sort_heap@PAUFileInfo@FileListWnd@@VFileListInfoSort@@@std@@YAXPAUFileInfo@FileListWnd@@0VFileListInfoSort@@@Z PROC ; std::sort_heap<FileListWnd::FileInfo *,FileListInfoSort>, COMDAT

; 2708 : 	{	// order heap by repeatedly popping, using _Pred

  00000	55		 push	 ebp
  00001	8b ec		 mov	 ebp, esp

; 2709 : 	_DEBUG_RANGE(_First, _Last);
; 2710 : 	_DEBUG_POINTER(_Pred);
; 2711 : 	_DEBUG_HEAP_PRED(_First, _Last, _Pred);
; 2712 : 	_Sort_heap(_Unchecked(_First), _Unchecked(_Last), _Pred);

  00003	ff 75 10	 push	 DWORD PTR __Pred$[ebp]
  00006	ff 75 0c	 push	 DWORD PTR __Last$[ebp]
  00009	ff 75 08	 push	 DWORD PTR __First$[ebp]
  0000c	e8 00 00 00 00	 call	 ??$_Sort_heap@PAUFileInfo@FileListWnd@@VFileListInfoSort@@@std@@YAXPAUFileInfo@FileListWnd@@0VFileListInfoSort@@@Z ; std::_Sort_heap<FileListWnd::FileInfo *,FileListInfoSort>
  00011	83 c4 0c	 add	 esp, 12			; 0000000cH

; 2713 : 	}

  00014	5d		 pop	 ebp
  00015	c3		 ret	 0
??$sort_heap@PAUFileInfo@FileListWnd@@VFileListInfoSort@@@std@@YAXPAUFileInfo@FileListWnd@@0VFileListInfoSort@@@Z ENDP ; std::sort_heap<FileListWnd::FileInfo *,FileListInfoSort>
_TEXT	ENDS
PUBLIC	??$_Destroy_range@V?$allocator@VioHashString@@@std@@@std@@YAXPAVioHashString@@0AAV?$allocator@VioHashString@@@0@@Z ; std::_Destroy_range<std::allocator<ioHashString> >
; Function compile flags: /Ogsp
; File c:\program files (x86)\microsoft visual studio 10.0\vc\include\xmemory
;	COMDAT ??$_Destroy_range@V?$allocator@VioHashString@@@std@@@std@@YAXPAVioHashString@@0AAV?$allocator@VioHashString@@@0@@Z
_TEXT	SEGMENT
__First$ = 8						; size = 4
__Last$ = 12						; size = 4
__Al$ = 16						; size = 4
??$_Destroy_range@V?$allocator@VioHashString@@@std@@@std@@YAXPAVioHashString@@0AAV?$allocator@VioHashString@@@0@@Z PROC ; std::_Destroy_range<std::allocator<ioHashString> >, COMDAT

; 87   : 	{	// destroy [_First, _Last)

  00000	55		 push	 ebp
  00001	8b ec		 mov	 ebp, esp
  00003	56		 push	 esi

; 88   : 	_Destroy_range(_First, _Last, _Al, _Ptr_cat(_First, _Last));

  00004	8b 75 08	 mov	 esi, DWORD PTR __First$[ebp]
  00007	eb 0b		 jmp	 SHORT $LN21@Destroy_ra@6
$LL7@Destroy_ra@6:
  00009	8b ce		 mov	 ecx, esi
  0000b	ff 15 00 00 00
	00		 call	 DWORD PTR __imp_??1ioHashString@@QAE@XZ
  00011	83 c6 10	 add	 esi, 16			; 00000010H
$LN21@Destroy_ra@6:
  00014	3b 75 0c	 cmp	 esi, DWORD PTR __Last$[ebp]
  00017	75 f0		 jne	 SHORT $LL7@Destroy_ra@6
  00019	5e		 pop	 esi

; 89   : 	}

  0001a	5d		 pop	 ebp
  0001b	c3		 ret	 0
??$_Destroy_range@V?$allocator@VioHashString@@@std@@@std@@YAXPAVioHashString@@0AAV?$allocator@VioHashString@@@0@@Z ENDP ; std::_Destroy_range<std::allocator<ioHashString> >
_TEXT	ENDS
PUBLIC	?_Destroy@?$vector@UFileDriveItem@@V?$allocator@UFileDriveItem@@@std@@@std@@IAEXPAUFileDriveItem@@0@Z ; std::vector<FileDriveItem,std::allocator<FileDriveItem> >::_Destroy
; Function compile flags: /Ogsp
; File c:\program files (x86)\microsoft visual studio 10.0\vc\include\vector
;	COMDAT ?_Destroy@?$vector@UFileDriveItem@@V?$allocator@UFileDriveItem@@@std@@@std@@IAEXPAUFileDriveItem@@0@Z
_TEXT	SEGMENT
__First$ = 8						; size = 4
__Last$ = 12						; size = 4
?_Destroy@?$vector@UFileDriveItem@@V?$allocator@UFileDriveItem@@@std@@@std@@IAEXPAUFileDriveItem@@0@Z PROC ; std::vector<FileDriveItem,std::allocator<FileDriveItem> >::_Destroy, COMDAT
; _this$ = ecx

; 1269 : 		{	// destroy [_First, _Last) using allocator

  00000	55		 push	 ebp
  00001	8b ec		 mov	 ebp, esp
  00003	56		 push	 esi

; 1270 : 		_Destroy_range(_First, _Last, this->_Alval);

  00004	8b 75 08	 mov	 esi, DWORD PTR __First$[ebp]
  00007	eb 0b		 jmp	 SHORT $LN26@Destroy
$LL9@Destroy:
  00009	8b ce		 mov	 ecx, esi
  0000b	ff 15 00 00 00
	00		 call	 DWORD PTR __imp_??1ioHashString@@QAE@XZ
  00011	83 c6 14	 add	 esi, 20			; 00000014H
$LN26@Destroy:
  00014	3b 75 0c	 cmp	 esi, DWORD PTR __Last$[ebp]
  00017	75 f0		 jne	 SHORT $LL9@Destroy
  00019	5e		 pop	 esi

; 1271 : 		}

  0001a	5d		 pop	 ebp
  0001b	c2 08 00	 ret	 8
?_Destroy@?$vector@UFileDriveItem@@V?$allocator@UFileDriveItem@@@std@@@std@@IAEXPAUFileDriveItem@@0@Z ENDP ; std::vector<FileDriveItem,std::allocator<FileDriveItem> >::_Destroy
_TEXT	ENDS
PUBLIC	?_Tidy@?$vector@UFileDriveItem@@V?$allocator@UFileDriveItem@@@std@@@std@@IAEXXZ ; std::vector<FileDriveItem,std::allocator<FileDriveItem> >::_Tidy
EXTRN	__imp_?_Orphan_all@_Container_base0@std@@QAEXXZ:PROC
; Function compile flags: /Ogsp
;	COMDAT ?_Tidy@?$vector@UFileDriveItem@@V?$allocator@UFileDriveItem@@@std@@@std@@IAEXXZ
_TEXT	SEGMENT
?_Tidy@?$vector@UFileDriveItem@@V?$allocator@UFileDriveItem@@@std@@@std@@IAEXXZ PROC ; std::vector<FileDriveItem,std::allocator<FileDriveItem> >::_Tidy, COMDAT
; _this$ = ecx

; 1301 : 		{	// free all storage

  00000	56		 push	 esi
  00001	8b f1		 mov	 esi, ecx

; 1302 : 		if (this->_Myfirst != 0)

  00003	83 3e 00	 cmp	 DWORD PTR [esi], 0
  00006	74 28		 je	 SHORT $LN27@Tidy

; 1303 : 			{	// something to free, destroy and deallocate it
; 1304 : 			this->_Orphan_all();

  00008	53		 push	 ebx
  00009	57		 push	 edi
  0000a	ff 15 00 00 00
	00		 call	 DWORD PTR __imp_?_Orphan_all@_Container_base0@std@@QAEXXZ

; 1305 : 			_Destroy(this->_Myfirst, this->_Mylast);

  00010	8b 5e 04	 mov	 ebx, DWORD PTR [esi+4]
  00013	8b 3e		 mov	 edi, DWORD PTR [esi]
  00015	eb 0b		 jmp	 SHORT $LN31@Tidy
$LL12@Tidy:
  00017	8b cf		 mov	 ecx, edi
  00019	ff 15 00 00 00
	00		 call	 DWORD PTR __imp_??1ioHashString@@QAE@XZ
  0001f	83 c7 14	 add	 edi, 20			; 00000014H
$LN31@Tidy:
  00022	3b fb		 cmp	 edi, ebx
  00024	75 f1		 jne	 SHORT $LL12@Tidy

; 1306 : 			this->_Alval.deallocate(this->_Myfirst,
; 1307 : 				this->_Myend - this->_Myfirst);

  00026	ff 36		 push	 DWORD PTR [esi]
  00028	e8 00 00 00 00	 call	 ??3@YAXPAX@Z		; operator delete
  0002d	59		 pop	 ecx
  0002e	5f		 pop	 edi
  0002f	5b		 pop	 ebx
$LN27@Tidy:

; 1308 : 			}
; 1309 : 		this->_Myfirst = 0;

  00030	33 c0		 xor	 eax, eax
  00032	89 06		 mov	 DWORD PTR [esi], eax

; 1310 : 		this->_Mylast = 0;

  00034	89 46 04	 mov	 DWORD PTR [esi+4], eax

; 1311 : 		this->_Myend = 0;

  00037	89 46 08	 mov	 DWORD PTR [esi+8], eax
  0003a	5e		 pop	 esi

; 1312 : 		}

  0003b	c3		 ret	 0
?_Tidy@?$vector@UFileDriveItem@@V?$allocator@UFileDriveItem@@@std@@@std@@IAEXXZ ENDP ; std::vector<FileDriveItem,std::allocator<FileDriveItem> >::_Tidy
_TEXT	ENDS
PUBLIC	?_Destroy@?$vector@UFileInfo@FileListWnd@@V?$allocator@UFileInfo@FileListWnd@@@std@@@std@@IAEXPAUFileInfo@FileListWnd@@0@Z ; std::vector<FileListWnd::FileInfo,std::allocator<FileListWnd::FileInfo> >::_Destroy
; Function compile flags: /Ogsp
;	COMDAT ?_Destroy@?$vector@UFileInfo@FileListWnd@@V?$allocator@UFileInfo@FileListWnd@@@std@@@std@@IAEXPAUFileInfo@FileListWnd@@0@Z
_TEXT	SEGMENT
__First$ = 8						; size = 4
__Last$ = 12						; size = 4
?_Destroy@?$vector@UFileInfo@FileListWnd@@V?$allocator@UFileInfo@FileListWnd@@@std@@@std@@IAEXPAUFileInfo@FileListWnd@@0@Z PROC ; std::vector<FileListWnd::FileInfo,std::allocator<FileListWnd::FileInfo> >::_Destroy, COMDAT
; _this$ = ecx

; 1269 : 		{	// destroy [_First, _Last) using allocator

  00000	55		 push	 ebp
  00001	8b ec		 mov	 ebp, esp
  00003	56		 push	 esi

; 1270 : 		_Destroy_range(_First, _Last, this->_Alval);

  00004	8b 75 08	 mov	 esi, DWORD PTR __First$[ebp]
  00007	eb 0b		 jmp	 SHORT $LN26@Destroy@2
$LL9@Destroy@2:
  00009	8b ce		 mov	 ecx, esi
  0000b	ff 15 00 00 00
	00		 call	 DWORD PTR __imp_??1ioHashString@@QAE@XZ
  00011	83 c6 14	 add	 esi, 20			; 00000014H
$LN26@Destroy@2:
  00014	3b 75 0c	 cmp	 esi, DWORD PTR __Last$[ebp]
  00017	75 f0		 jne	 SHORT $LL9@Destroy@2
  00019	5e		 pop	 esi

; 1271 : 		}

  0001a	5d		 pop	 ebp
  0001b	c2 08 00	 ret	 8
?_Destroy@?$vector@UFileInfo@FileListWnd@@V?$allocator@UFileInfo@FileListWnd@@@std@@@std@@IAEXPAUFileInfo@FileListWnd@@0@Z ENDP ; std::vector<FileListWnd::FileInfo,std::allocator<FileListWnd::FileInfo> >::_Destroy
_TEXT	ENDS
PUBLIC	??$_Umove@PAUFileDriveItem@@@?$vector@UFileDriveItem@@V?$allocator@UFileDriveItem@@@std@@@std@@IAEPAUFileDriveItem@@PAU2@00@Z ; std::vector<FileDriveItem,std::allocator<FileDriveItem> >::_Umove<FileDriveItem *>
; Function compile flags: /Ogsp
;	COMDAT ??$_Umove@PAUFileDriveItem@@@?$vector@UFileDriveItem@@V?$allocator@UFileDriveItem@@@std@@@std@@IAEPAUFileDriveItem@@PAU2@00@Z
_TEXT	SEGMENT
__First$ = 8						; size = 4
__Last$ = 12						; size = 4
__Ptr$ = 16						; size = 4
??$_Umove@PAUFileDriveItem@@@?$vector@UFileDriveItem@@V?$allocator@UFileDriveItem@@@std@@@std@@IAEPAUFileDriveItem@@PAU2@00@Z PROC ; std::vector<FileDriveItem,std::allocator<FileDriveItem> >::_Umove<FileDriveItem *>, COMDAT
; _this$ = ecx

; 1322 : 		pointer _Umove(_Iter _First, _Iter _Last, pointer _Ptr)

  00000	55		 push	 ebp
  00001	8b ec		 mov	 ebp, esp

; 1323 : 		{	// move initializing [_First, _Last), using allocator
; 1324 : 		return (_Uninitialized_move(_First, _Last,
; 1325 : 			_Ptr, this->_Alval));

  00003	83 c1 0c	 add	 ecx, 12			; 0000000cH
  00006	51		 push	 ecx
  00007	ff 75 10	 push	 DWORD PTR __Ptr$[ebp]
  0000a	ff 75 0c	 push	 DWORD PTR __Last$[ebp]
  0000d	ff 75 08	 push	 DWORD PTR __First$[ebp]
  00010	e8 00 00 00 00	 call	 ??$_Uninitialized_move@PAUFileDriveItem@@PAU1@V?$allocator@UFileDriveItem@@@std@@@std@@YAPAUFileDriveItem@@PAU1@00AAV?$allocator@UFileDriveItem@@@0@@Z ; std::_Uninitialized_move<FileDriveItem *,FileDriveItem *,std::allocator<FileDriveItem> >
  00015	83 c4 10	 add	 esp, 16			; 00000010H

; 1326 : 		}

  00018	5d		 pop	 ebp
  00019	c2 0c 00	 ret	 12			; 0000000cH
??$_Umove@PAUFileDriveItem@@@?$vector@UFileDriveItem@@V?$allocator@UFileDriveItem@@@std@@@std@@IAEPAUFileDriveItem@@PAU2@00@Z ENDP ; std::vector<FileDriveItem,std::allocator<FileDriveItem> >::_Umove<FileDriveItem *>
_TEXT	ENDS
PUBLIC	??$_Umove@PAVioHashString@@@?$vector@VioHashString@@V?$allocator@VioHashString@@@std@@@std@@IAEPAVioHashString@@PAV2@00@Z ; std::vector<ioHashString,std::allocator<ioHashString> >::_Umove<ioHashString *>
; Function compile flags: /Ogsp
;	COMDAT ??$_Umove@PAVioHashString@@@?$vector@VioHashString@@V?$allocator@VioHashString@@@std@@@std@@IAEPAVioHashString@@PAV2@00@Z
_TEXT	SEGMENT
__First$ = 8						; size = 4
__Last$ = 12						; size = 4
__Ptr$ = 16						; size = 4
??$_Umove@PAVioHashString@@@?$vector@VioHashString@@V?$allocator@VioHashString@@@std@@@std@@IAEPAVioHashString@@PAV2@00@Z PROC ; std::vector<ioHashString,std::allocator<ioHashString> >::_Umove<ioHashString *>, COMDAT
; _this$ = ecx

; 1322 : 		pointer _Umove(_Iter _First, _Iter _Last, pointer _Ptr)

  00000	55		 push	 ebp
  00001	8b ec		 mov	 ebp, esp

; 1323 : 		{	// move initializing [_First, _Last), using allocator
; 1324 : 		return (_Uninitialized_move(_First, _Last,
; 1325 : 			_Ptr, this->_Alval));

  00003	83 c1 0c	 add	 ecx, 12			; 0000000cH
  00006	51		 push	 ecx
  00007	ff 75 10	 push	 DWORD PTR __Ptr$[ebp]
  0000a	ff 75 0c	 push	 DWORD PTR __Last$[ebp]
  0000d	ff 75 08	 push	 DWORD PTR __First$[ebp]
  00010	e8 00 00 00 00	 call	 ??$_Uninitialized_move@PAVioHashString@@PAV1@V?$allocator@VioHashString@@@std@@@std@@YAPAVioHashString@@PAV1@00AAV?$allocator@VioHashString@@@0@@Z ; std::_Uninitialized_move<ioHashString *,ioHashString *,std::allocator<ioHashString> >
  00015	83 c4 10	 add	 esp, 16			; 00000010H

; 1326 : 		}

  00018	5d		 pop	 ebp
  00019	c2 0c 00	 ret	 12			; 0000000cH
??$_Umove@PAVioHashString@@@?$vector@VioHashString@@V?$allocator@VioHashString@@@std@@@std@@IAEPAVioHashString@@PAV2@00@Z ENDP ; std::vector<ioHashString,std::allocator<ioHashString> >::_Umove<ioHashString *>
_TEXT	ENDS
PUBLIC	??$_Umove@PAUFileInfo@FileListWnd@@@?$vector@UFileInfo@FileListWnd@@V?$allocator@UFileInfo@FileListWnd@@@std@@@std@@IAEPAUFileInfo@FileListWnd@@PAU23@00@Z ; std::vector<FileListWnd::FileInfo,std::allocator<FileListWnd::FileInfo> >::_Umove<FileListWnd::FileInfo *>
; Function compile flags: /Ogsp
;	COMDAT ??$_Umove@PAUFileInfo@FileListWnd@@@?$vector@UFileInfo@FileListWnd@@V?$allocator@UFileInfo@FileListWnd@@@std@@@std@@IAEPAUFileInfo@FileListWnd@@PAU23@00@Z
_TEXT	SEGMENT
__First$ = 8						; size = 4
__Last$ = 12						; size = 4
__Ptr$ = 16						; size = 4
??$_Umove@PAUFileInfo@FileListWnd@@@?$vector@UFileInfo@FileListWnd@@V?$allocator@UFileInfo@FileListWnd@@@std@@@std@@IAEPAUFileInfo@FileListWnd@@PAU23@00@Z PROC ; std::vector<FileListWnd::FileInfo,std::allocator<FileListWnd::FileInfo> >::_Umove<FileListWnd::FileInfo *>, COMDAT
; _this$ = ecx

; 1322 : 		pointer _Umove(_Iter _First, _Iter _Last, pointer _Ptr)

  00000	55		 push	 ebp
  00001	8b ec		 mov	 ebp, esp

; 1323 : 		{	// move initializing [_First, _Last), using allocator
; 1324 : 		return (_Uninitialized_move(_First, _Last,
; 1325 : 			_Ptr, this->_Alval));

  00003	83 c1 0c	 add	 ecx, 12			; 0000000cH
  00006	51		 push	 ecx
  00007	ff 75 10	 push	 DWORD PTR __Ptr$[ebp]
  0000a	ff 75 0c	 push	 DWORD PTR __Last$[ebp]
  0000d	ff 75 08	 push	 DWORD PTR __First$[ebp]
  00010	e8 00 00 00 00	 call	 ??$_Uninitialized_move@PAUFileInfo@FileListWnd@@PAU12@V?$allocator@UFileInfo@FileListWnd@@@std@@@std@@YAPAUFileInfo@FileListWnd@@PAU12@00AAV?$allocator@UFileInfo@FileListWnd@@@0@@Z ; std::_Uninitialized_move<FileListWnd::FileInfo *,FileListWnd::FileInfo *,std::allocator<FileListWnd::FileInfo> >
  00015	83 c4 10	 add	 esp, 16			; 00000010H

; 1326 : 		}

  00018	5d		 pop	 ebp
  00019	c2 0c 00	 ret	 12			; 0000000cH
??$_Umove@PAUFileInfo@FileListWnd@@@?$vector@UFileInfo@FileListWnd@@V?$allocator@UFileInfo@FileListWnd@@@std@@@std@@IAEPAUFileInfo@FileListWnd@@PAU23@00@Z ENDP ; std::vector<FileListWnd::FileInfo,std::allocator<FileListWnd::FileInfo> >::_Umove<FileListWnd::FileInfo *>
_TEXT	ENDS
PUBLIC	??$_Sort@PAUFileInfo@FileListWnd@@HVFileListInfoSort@@@std@@YAXPAUFileInfo@FileListWnd@@0HVFileListInfoSort@@@Z ; std::_Sort<FileListWnd::FileInfo *,int,FileListInfoSort>
; Function compile flags: /Ogsp
; File c:\program files (x86)\microsoft visual studio 10.0\vc\include\algorithm
;	COMDAT ??$_Sort@PAUFileInfo@FileListWnd@@HVFileListInfoSort@@@std@@YAXPAUFileInfo@FileListWnd@@0HVFileListInfoSort@@@Z
_TEXT	SEGMENT
__Mid$512473 = -8					; size = 8
__First$ = 8						; size = 4
__Last$ = 12						; size = 4
__Ideal$ = 16						; size = 4
__Pred$ = 20						; size = 1
??$_Sort@PAUFileInfo@FileListWnd@@HVFileListInfoSort@@@std@@YAXPAUFileInfo@FileListWnd@@0HVFileListInfoSort@@@Z PROC ; std::_Sort<FileListWnd::FileInfo *,int,FileListInfoSort>, COMDAT

; 3771 : 	{	// order [_First, _Last), using _Pred

  00000	55		 push	 ebp
  00001	8b ec		 mov	 ebp, esp
  00003	51		 push	 ecx
  00004	51		 push	 ecx
  00005	53		 push	 ebx

; 3772 : 	_Diff _Count;
; 3773 : 	for (; _ISORT_MAX < (_Count = _Last - _First) && 0 < _Ideal; )

  00006	8b 5d 08	 mov	 ebx, DWORD PTR __First$[ebp]
  00009	57		 push	 edi
  0000a	8b 7d 0c	 mov	 edi, DWORD PTR __Last$[ebp]
  0000d	8b c7		 mov	 eax, edi
  0000f	2b c3		 sub	 eax, ebx
  00011	6a 14		 push	 20			; 00000014H
  00013	99		 cdq
  00014	59		 pop	 ecx
  00015	f7 f9		 idiv	 ecx
  00017	83 f8 20	 cmp	 eax, 32			; 00000020H
  0001a	0f 8e 9c 00 00
	00		 jle	 $LN22@Sort
  00020	56		 push	 esi
  00021	8b 75 10	 mov	 esi, DWORD PTR __Ideal$[ebp]
$LL7@Sort:
  00024	85 f6		 test	 esi, esi
  00026	7e 75		 jle	 SHORT $LN6@Sort

; 3774 : 		{	// divide and conquer by quicksort
; 3775 : 		_STD pair<_RanIt, _RanIt> _Mid =
; 3776 : 			_Unguarded_partition(_First, _Last, _Pred);

  00028	ff 75 14	 push	 DWORD PTR __Pred$[ebp]
  0002b	8d 45 f8	 lea	 eax, DWORD PTR __Mid$512473[ebp]
  0002e	57		 push	 edi
  0002f	53		 push	 ebx
  00030	50		 push	 eax
  00031	e8 00 00 00 00	 call	 ??$_Unguarded_partition@PAUFileInfo@FileListWnd@@VFileListInfoSort@@@std@@YA?AU?$pair@PAUFileInfo@FileListWnd@@PAU12@@0@PAUFileInfo@FileListWnd@@0VFileListInfoSort@@@Z ; std::_Unguarded_partition<FileListWnd::FileInfo *,FileListInfoSort>

; 3777 : 		_Ideal /= 2, _Ideal += _Ideal / 2;	// allow 1.5 log2(N) divisions

  00036	8b c6		 mov	 eax, esi
  00038	99		 cdq
  00039	2b c2		 sub	 eax, edx
  0003b	d1 f8		 sar	 eax, 1
  0003d	8b f0		 mov	 esi, eax
  0003f	99		 cdq
  00040	2b c2		 sub	 eax, edx
  00042	d1 f8		 sar	 eax, 1
  00044	03 f0		 add	 esi, eax
  00046	83 c4 10	 add	 esp, 16			; 00000010H

; 3778 : 
; 3779 : 		if (_Mid.first - _First < _Last - _Mid.second)

  00049	8b c7		 mov	 eax, edi
  0004b	2b 45 fc	 sub	 eax, DWORD PTR __Mid$512473[ebp+4]
  0004e	6a 14		 push	 20			; 00000014H
  00050	99		 cdq
  00051	59		 pop	 ecx
  00052	f7 f9		 idiv	 ecx
  00054	6a 14		 push	 20			; 00000014H
  00056	8b c8		 mov	 ecx, eax
  00058	8b 45 f8	 mov	 eax, DWORD PTR __Mid$512473[ebp]
  0005b	2b c3		 sub	 eax, ebx
  0005d	5b		 pop	 ebx
  0005e	99		 cdq
  0005f	f7 fb		 idiv	 ebx

; 3780 : 			{	// loop on second half
; 3781 : 			_Sort(_First, _Mid.first, _Ideal, _Pred);

  00061	ff 75 14	 push	 DWORD PTR __Pred$[ebp]
  00064	56		 push	 esi
  00065	3b c1		 cmp	 eax, ecx
  00067	7d 13		 jge	 SHORT $LN5@Sort
  00069	ff 75 f8	 push	 DWORD PTR __Mid$512473[ebp]
  0006c	ff 75 08	 push	 DWORD PTR __First$[ebp]
  0006f	e8 00 00 00 00	 call	 ??$_Sort@PAUFileInfo@FileListWnd@@HVFileListInfoSort@@@std@@YAXPAUFileInfo@FileListWnd@@0HVFileListInfoSort@@@Z ; std::_Sort<FileListWnd::FileInfo *,int,FileListInfoSort>

; 3782 : 			_First = _Mid.second;

  00074	8b 5d fc	 mov	 ebx, DWORD PTR __Mid$512473[ebp+4]
  00077	89 5d 08	 mov	 DWORD PTR __First$[ebp], ebx

; 3783 : 			}
; 3784 : 		else

  0007a	eb 0f		 jmp	 SHORT $LN23@Sort
$LN5@Sort:

; 3785 : 			{	// loop on first half
; 3786 : 			_Sort(_Mid.second, _Last, _Ideal, _Pred);

  0007c	57		 push	 edi
  0007d	ff 75 fc	 push	 DWORD PTR __Mid$512473[ebp+4]
  00080	e8 00 00 00 00	 call	 ??$_Sort@PAUFileInfo@FileListWnd@@HVFileListInfoSort@@@std@@YAXPAUFileInfo@FileListWnd@@0HVFileListInfoSort@@@Z ; std::_Sort<FileListWnd::FileInfo *,int,FileListInfoSort>

; 3787 : 			_Last = _Mid.first;

  00085	8b 7d f8	 mov	 edi, DWORD PTR __Mid$512473[ebp]
  00088	8b 5d 08	 mov	 ebx, DWORD PTR __First$[ebp]
$LN23@Sort:

; 3772 : 	_Diff _Count;
; 3773 : 	for (; _ISORT_MAX < (_Count = _Last - _First) && 0 < _Ideal; )

  0008b	83 c4 10	 add	 esp, 16			; 00000010H
  0008e	8b c7		 mov	 eax, edi
  00090	2b c3		 sub	 eax, ebx
  00092	6a 14		 push	 20			; 00000014H
  00094	99		 cdq
  00095	59		 pop	 ecx
  00096	f7 f9		 idiv	 ecx
  00098	83 f8 20	 cmp	 eax, 32			; 00000020H
  0009b	7f 87		 jg	 SHORT $LL7@Sort
$LN6@Sort:
  0009d	5e		 pop	 esi

; 3788 : 			}
; 3789 : 		}
; 3790 : 
; 3791 : 	if (_ISORT_MAX < _Count)

  0009e	83 f8 20	 cmp	 eax, 32			; 00000020H
  000a1	7e 19		 jle	 SHORT $LN22@Sort

; 3792 : 		{	// heap sort if too many divisions
; 3793 : 		_STD make_heap(_First, _Last, _Pred);

  000a3	ff 75 14	 push	 DWORD PTR __Pred$[ebp]
  000a6	57		 push	 edi
  000a7	53		 push	 ebx
  000a8	e8 00 00 00 00	 call	 ??$make_heap@PAUFileInfo@FileListWnd@@VFileListInfoSort@@@std@@YAXPAUFileInfo@FileListWnd@@0VFileListInfoSort@@@Z ; std::make_heap<FileListWnd::FileInfo *,FileListInfoSort>

; 3794 : 		_STD sort_heap(_First, _Last, _Pred);

  000ad	ff 75 14	 push	 DWORD PTR __Pred$[ebp]
  000b0	57		 push	 edi
  000b1	53		 push	 ebx
  000b2	e8 00 00 00 00	 call	 ??$_Sort_heap@PAUFileInfo@FileListWnd@@VFileListInfoSort@@@std@@YAXPAUFileInfo@FileListWnd@@0VFileListInfoSort@@@Z ; std::_Sort_heap<FileListWnd::FileInfo *,FileListInfoSort>
  000b7	83 c4 18	 add	 esp, 24			; 00000018H
  000ba	eb 14		 jmp	 SHORT $LN16@Sort
$LN22@Sort:

; 3795 : 		}
; 3796 : 	else if (1 < _Count)

  000bc	83 f8 01	 cmp	 eax, 1
  000bf	7e 0f		 jle	 SHORT $LN16@Sort

; 3797 : 		_Insertion_sort(_First, _Last, _Pred);	// small

  000c1	6a 00		 push	 0
  000c3	ff 75 14	 push	 DWORD PTR __Pred$[ebp]
  000c6	57		 push	 edi
  000c7	53		 push	 ebx
  000c8	e8 00 00 00 00	 call	 ??$_Insertion_sort1@PAUFileInfo@FileListWnd@@VFileListInfoSort@@U12@@std@@YAXPAUFileInfo@FileListWnd@@0VFileListInfoSort@@0@Z ; std::_Insertion_sort1<FileListWnd::FileInfo *,FileListInfoSort,FileListWnd::FileInfo>
  000cd	83 c4 10	 add	 esp, 16			; 00000010H
$LN16@Sort:
  000d0	5f		 pop	 edi
  000d1	5b		 pop	 ebx

; 3798 : 	}

  000d2	c9		 leave
  000d3	c3		 ret	 0
??$_Sort@PAUFileInfo@FileListWnd@@HVFileListInfoSort@@@std@@YAXPAUFileInfo@FileListWnd@@0HVFileListInfoSort@@@Z ENDP ; std::_Sort<FileListWnd::FileInfo *,int,FileListInfoSort>
_TEXT	ENDS
PUBLIC	?_Destroy@?$vector@VioHashString@@V?$allocator@VioHashString@@@std@@@std@@IAEXPAVioHashString@@0@Z ; std::vector<ioHashString,std::allocator<ioHashString> >::_Destroy
; Function compile flags: /Ogsp
; File c:\program files (x86)\microsoft visual studio 10.0\vc\include\vector
;	COMDAT ?_Destroy@?$vector@VioHashString@@V?$allocator@VioHashString@@@std@@@std@@IAEXPAVioHashString@@0@Z
_TEXT	SEGMENT
__First$ = 8						; size = 4
__Last$ = 12						; size = 4
?_Destroy@?$vector@VioHashString@@V?$allocator@VioHashString@@@std@@@std@@IAEXPAVioHashString@@0@Z PROC ; std::vector<ioHashString,std::allocator<ioHashString> >::_Destroy, COMDAT
; _this$ = ecx

; 1269 : 		{	// destroy [_First, _Last) using allocator

  00000	55		 push	 ebp
  00001	8b ec		 mov	 ebp, esp
  00003	56		 push	 esi

; 1270 : 		_Destroy_range(_First, _Last, this->_Alval);

  00004	8b 75 08	 mov	 esi, DWORD PTR __First$[ebp]
  00007	eb 0b		 jmp	 SHORT $LN23@Destroy@3
$LL9@Destroy@3:
  00009	8b ce		 mov	 ecx, esi
  0000b	ff 15 00 00 00
	00		 call	 DWORD PTR __imp_??1ioHashString@@QAE@XZ
  00011	83 c6 10	 add	 esi, 16			; 00000010H
$LN23@Destroy@3:
  00014	3b 75 0c	 cmp	 esi, DWORD PTR __Last$[ebp]
  00017	75 f0		 jne	 SHORT $LL9@Destroy@3
  00019	5e		 pop	 esi

; 1271 : 		}

  0001a	5d		 pop	 ebp
  0001b	c2 08 00	 ret	 8
?_Destroy@?$vector@VioHashString@@V?$allocator@VioHashString@@@std@@@std@@IAEXPAVioHashString@@0@Z ENDP ; std::vector<ioHashString,std::allocator<ioHashString> >::_Destroy
_TEXT	ENDS
PUBLIC	??1?$vector@UFileDriveItem@@V?$allocator@UFileDriveItem@@@std@@@std@@QAE@XZ ; std::vector<FileDriveItem,std::allocator<FileDriveItem> >::~vector<FileDriveItem,std::allocator<FileDriveItem> >
; Function compile flags: /Ogsp
;	COMDAT ??1?$vector@UFileDriveItem@@V?$allocator@UFileDriveItem@@@std@@@std@@QAE@XZ
_TEXT	SEGMENT
??1?$vector@UFileDriveItem@@V?$allocator@UFileDriveItem@@@std@@@std@@QAE@XZ PROC ; std::vector<FileDriveItem,std::allocator<FileDriveItem> >::~vector<FileDriveItem,std::allocator<FileDriveItem> >, COMDAT
; _this$ = ecx

; 705  : 		_Tidy();

  00000	e9 00 00 00 00	 jmp	 ?_Tidy@?$vector@UFileDriveItem@@V?$allocator@UFileDriveItem@@@std@@@std@@IAEXXZ ; std::vector<FileDriveItem,std::allocator<FileDriveItem> >::_Tidy
??1?$vector@UFileDriveItem@@V?$allocator@UFileDriveItem@@@std@@@std@@QAE@XZ ENDP ; std::vector<FileDriveItem,std::allocator<FileDriveItem> >::~vector<FileDriveItem,std::allocator<FileDriveItem> >
_TEXT	ENDS
PUBLIC	?reserve@?$vector@UFileDriveItem@@V?$allocator@UFileDriveItem@@@std@@@std@@QAEXI@Z ; std::vector<FileDriveItem,std::allocator<FileDriveItem> >::reserve
;	COMDAT xdata$x
; File c:\program files (x86)\microsoft visual studio 10.0\vc\include\xmemory
xdata$x	SEGMENT
__catchsym$?reserve@?$vector@UFileDriveItem@@V?$allocator@UFileDriveItem@@@std@@@std@@QAEXI@Z$3 DD 040H
	DD	00H
	DD	00H
	DD	FLAT:__catch$?reserve@?$vector@UFileDriveItem@@V?$allocator@UFileDriveItem@@@std@@@std@@QAEXI@Z$0
__unwindtable$?reserve@?$vector@UFileDriveItem@@V?$allocator@UFileDriveItem@@@std@@@std@@QAEXI@Z DD 0ffffffffH
	DD	00H
	DD	0ffffffffH
	DD	00H
__tryblocktable$?reserve@?$vector@UFileDriveItem@@V?$allocator@UFileDriveItem@@@std@@@std@@QAEXI@Z DD 00H
	DD	00H
	DD	01H
	DD	01H
	DD	FLAT:__catchsym$?reserve@?$vector@UFileDriveItem@@V?$allocator@UFileDriveItem@@@std@@@std@@QAEXI@Z$3
__ehfuncinfo$?reserve@?$vector@UFileDriveItem@@V?$allocator@UFileDriveItem@@@std@@@std@@QAEXI@Z DD 019930522H
	DD	02H
	DD	FLAT:__unwindtable$?reserve@?$vector@UFileDriveItem@@V?$allocator@UFileDriveItem@@@std@@@std@@QAEXI@Z
	DD	01H
	DD	FLAT:__tryblocktable$?reserve@?$vector@UFileDriveItem@@V?$allocator@UFileDriveItem@@@std@@@std@@QAEXI@Z
	DD	2 DUP(00H)
	DD	00H
	DD	01H
; Function compile flags: /Ogsp
; File c:\program files (x86)\microsoft visual studio 10.0\vc\include\vector
xdata$x	ENDS
;	COMDAT ?reserve@?$vector@UFileDriveItem@@V?$allocator@UFileDriveItem@@@std@@@std@@QAEXI@Z
_TEXT	SEGMENT
__Ptr$510372 = -24					; size = 4
$T518424 = -20						; size = 4
__$EHRec$ = -16						; size = 16
__Count$ = 8						; size = 4
?reserve@?$vector@UFileDriveItem@@V?$allocator@UFileDriveItem@@@std@@@std@@QAEXI@Z PROC ; std::vector<FileDriveItem,std::allocator<FileDriveItem> >::reserve, COMDAT
; _this$ = ecx

; 746  : 		{	// determine new minimum length of allocated storage

  00000	6a 0c		 push	 12			; 0000000cH
  00002	b8 00 00 00 00	 mov	 eax, __ehhandler$?reserve@?$vector@UFileDriveItem@@V?$allocator@UFileDriveItem@@@std@@@std@@QAEXI@Z
  00007	e8 00 00 00 00	 call	 __EH_prolog3_catch
  0000c	8b f1		 mov	 esi, ecx

; 747  : 		if (max_size() < _Count)

  0000e	81 7d 08 cc cc
	cc 0c		 cmp	 DWORD PTR __Count$[ebp], 214748364 ; 0cccccccH
  00015	76 0b		 jbe	 SHORT $LN5@reserve

; 748  : 			_Xlen();	// result too long

  00017	68 00 00 00 00	 push	 OFFSET ??_C@_0BD@OLBABOEK@vector?$DMT?$DO?5too?5long?$AA@
  0001c	ff 15 00 00 00
	00		 call	 DWORD PTR __imp_?_Xlength_error@std@@YAXPBD@Z
$LN62@reserve:
$LN5@reserve:

; 749  : 		else if (capacity() < _Count)

  00022	8b 46 08	 mov	 eax, DWORD PTR [esi+8]
  00025	2b 06		 sub	 eax, DWORD PTR [esi]
  00027	6a 14		 push	 20			; 00000014H
  00029	99		 cdq
  0002a	59		 pop	 ecx
  0002b	f7 f9		 idiv	 ecx
  0002d	3b 45 08	 cmp	 eax, DWORD PTR __Count$[ebp]
  00030	0f 83 81 00 00
	00		 jae	 $LN3@reserve

; 750  : 			{	// not enough room, reallocate
; 751  : 			pointer _Ptr = this->_Alval.allocate(_Count);

  00036	6a 00		 push	 0
  00038	ff 75 08	 push	 DWORD PTR __Count$[ebp]
  0003b	e8 00 00 00 00	 call	 ??$_Allocate@UFileDriveItem@@@std@@YAPAUFileDriveItem@@IPAU1@@Z ; std::_Allocate<FileDriveItem>

; 752  : 
; 753  : 			_TRY_BEGIN
; 754  : 			_Umove(this->_Myfirst, this->_Mylast, _Ptr);

  00040	8b 0e		 mov	 ecx, DWORD PTR [esi]
  00042	83 65 fc 00	 and	 DWORD PTR __$EHRec$[ebp+12], 0
  00046	8d 56 0c	 lea	 edx, DWORD PTR [esi+12]
  00049	52		 push	 edx
  0004a	89 45 e8	 mov	 DWORD PTR __Ptr$510372[ebp], eax
  0004d	ff 75 e8	 push	 DWORD PTR __Ptr$510372[ebp]
  00050	8b 46 04	 mov	 eax, DWORD PTR [esi+4]
  00053	50		 push	 eax
  00054	51		 push	 ecx
  00055	e8 00 00 00 00	 call	 ??$_Uninitialized_move@PAUFileDriveItem@@PAU1@V?$allocator@UFileDriveItem@@@std@@@std@@YAPAUFileDriveItem@@PAU1@00AAV?$allocator@UFileDriveItem@@@0@@Z ; std::_Uninitialized_move<FileDriveItem *,FileDriveItem *,std::allocator<FileDriveItem> >

; 758  : 			_CATCH_END
; 759  : 
; 760  : 			size_type _Size = size();

  0005a	8b 5e 04	 mov	 ebx, DWORD PTR [esi+4]
  0005d	8b 0e		 mov	 ecx, DWORD PTR [esi]
  0005f	83 c4 18	 add	 esp, 24			; 00000018H
  00062	8b c3		 mov	 eax, ebx
  00064	2b c1		 sub	 eax, ecx
  00066	6a 14		 push	 20			; 00000014H
  00068	99		 cdq
  00069	5f		 pop	 edi
  0006a	f7 ff		 idiv	 edi
  0006c	83 4d fc ff	 or	 DWORD PTR __$EHRec$[ebp+12], -1
  00070	8b f8		 mov	 edi, eax
  00072	85 c9		 test	 ecx, ecx
  00074	74 21		 je	 SHORT $LN54@reserve

; 761  : 			if (this->_Myfirst != 0)
; 762  : 				{	// destroy and deallocate old array
; 763  : 				_Destroy(this->_Myfirst, this->_Mylast);

  00076	89 4d ec	 mov	 DWORD PTR $T518424[ebp], ecx
  00079	3b cb		 cmp	 ecx, ebx
  0007b	74 12		 je	 SHORT $LN37@reserve
$LN39@reserve:
  0007d	8b 4d ec	 mov	 ecx, DWORD PTR $T518424[ebp]
  00080	ff 15 00 00 00
	00		 call	 DWORD PTR __imp_??1ioHashString@@QAE@XZ
  00086	83 45 ec 14	 add	 DWORD PTR $T518424[ebp], 20 ; 00000014H
  0008a	39 5d ec	 cmp	 DWORD PTR $T518424[ebp], ebx
  0008d	75 ee		 jne	 SHORT $LN39@reserve
$LN37@reserve:

; 764  : 				this->_Alval.deallocate(this->_Myfirst,
; 765  : 					this->_Myend - this->_Myfirst);

  0008f	ff 36		 push	 DWORD PTR [esi]
  00091	e8 00 00 00 00	 call	 ??3@YAXPAX@Z		; operator delete
  00096	59		 pop	 ecx
$LN54@reserve:

; 766  : 				}
; 767  : 
; 768  : 			this->_Orphan_all();

  00097	8b ce		 mov	 ecx, esi
  00099	ff 15 00 00 00
	00		 call	 DWORD PTR __imp_?_Orphan_all@_Container_base0@std@@QAEXXZ

; 769  : 			this->_Myend = _Ptr + _Count;
; 770  : 			this->_Mylast = _Ptr + _Size;

  0009f	6b ff 14	 imul	 edi, 20			; 00000014H
  000a2	8b 45 08	 mov	 eax, DWORD PTR __Count$[ebp]
  000a5	8b 4d e8	 mov	 ecx, DWORD PTR __Ptr$510372[ebp]
  000a8	6b c0 14	 imul	 eax, 20			; 00000014H
  000ab	03 c1		 add	 eax, ecx
  000ad	03 f9		 add	 edi, ecx
  000af	89 46 08	 mov	 DWORD PTR [esi+8], eax
  000b2	89 7e 04	 mov	 DWORD PTR [esi+4], edi

; 771  : 			this->_Myfirst = _Ptr;

  000b5	89 0e		 mov	 DWORD PTR [esi], ecx
$LN3@reserve:

; 772  : 			}
; 773  : 		}

  000b7	e8 00 00 00 00	 call	 __EH_epilog3
  000bc	c2 04 00	 ret	 4
__catch$?reserve@?$vector@UFileDriveItem@@V?$allocator@UFileDriveItem@@@std@@@std@@QAEXI@Z$0:

; 755  : 			_CATCH_ALL
; 756  : 			this->_Alval.deallocate(_Ptr, _Count);

  000bf	ff 75 e8	 push	 DWORD PTR __Ptr$510372[ebp]
  000c2	e8 00 00 00 00	 call	 ??3@YAXPAX@Z		; operator delete
  000c7	59		 pop	 ecx

; 757  : 			_RERAISE;

  000c8	6a 00		 push	 0
  000ca	6a 00		 push	 0
  000cc	e8 00 00 00 00	 call	 __CxxThrowException@8
$LN63@reserve:
$LN61@reserve:
  000d1	cc		 int	 3
_TEXT	ENDS
;	COMDAT text$x
text$x	SEGMENT
__ehhandler$?reserve@?$vector@UFileDriveItem@@V?$allocator@UFileDriveItem@@@std@@@std@@QAEXI@Z:
  00000	8b 54 24 08	 mov	 edx, DWORD PTR [esp+8]
  00004	8d 42 0c	 lea	 eax, DWORD PTR [edx+12]
  00007	8b 4a e4	 mov	 ecx, DWORD PTR [edx-28]
  0000a	33 c8		 xor	 ecx, eax
  0000c	e8 00 00 00 00	 call	 @__security_check_cookie@4
  00011	b8 00 00 00 00	 mov	 eax, OFFSET __ehfuncinfo$?reserve@?$vector@UFileDriveItem@@V?$allocator@UFileDriveItem@@@std@@@std@@QAEXI@Z
  00016	e9 00 00 00 00	 jmp	 ___CxxFrameHandler3
text$x	ENDS
?reserve@?$vector@UFileDriveItem@@V?$allocator@UFileDriveItem@@@std@@@std@@QAEXI@Z ENDP ; std::vector<FileDriveItem,std::allocator<FileDriveItem> >::reserve
PUBLIC	?erase@?$vector@UFileDriveItem@@V?$allocator@UFileDriveItem@@@std@@@std@@QAE?AV?$_Vector_iterator@V?$_Vector_val@UFileDriveItem@@V?$allocator@UFileDriveItem@@@std@@@std@@@2@V?$_Vector_const_iterator@V?$_Vector_val@UFileDriveItem@@V?$allocator@UFileDriveItem@@@std@@@std@@@2@0@Z ; std::vector<FileDriveItem,std::allocator<FileDriveItem> >::erase
; Function compile flags: /Ogsp
;	COMDAT ?erase@?$vector@UFileDriveItem@@V?$allocator@UFileDriveItem@@@std@@@std@@QAE?AV?$_Vector_iterator@V?$_Vector_val@UFileDriveItem@@V?$allocator@UFileDriveItem@@@std@@@std@@@2@V?$_Vector_const_iterator@V?$_Vector_val@UFileDriveItem@@V?$allocator@UFileDriveItem@@@std@@@std@@@2@0@Z
_TEXT	SEGMENT
$T518637 = -4						; size = 4
___$ReturnUdt$ = 8					; size = 4
__First_arg$ = 12					; size = 4
__Cat$518568 = 16					; size = 1
__Last_arg$ = 16					; size = 4
?erase@?$vector@UFileDriveItem@@V?$allocator@UFileDriveItem@@@std@@@std@@QAE?AV?$_Vector_iterator@V?$_Vector_val@UFileDriveItem@@V?$allocator@UFileDriveItem@@@std@@@std@@@2@V?$_Vector_const_iterator@V?$_Vector_val@UFileDriveItem@@V?$allocator@UFileDriveItem@@@std@@@std@@@2@0@Z PROC ; std::vector<FileDriveItem,std::allocator<FileDriveItem> >::erase, COMDAT
; _this$ = ecx

; 1190 : 		{	// erase [_First, _Last)

  00000	55		 push	 ebp
  00001	8b ec		 mov	 ebp, esp
  00003	51		 push	 ecx

; 1191 : 		iterator _First = _Make_iter(_First_arg);

  00004	8b 45 08	 mov	 eax, DWORD PTR ___$ReturnUdt$[ebp]
  00007	56		 push	 esi
  00008	8b f1		 mov	 esi, ecx
  0000a	8b 4d 0c	 mov	 ecx, DWORD PTR __First_arg$[ebp]
  0000d	89 08		 mov	 DWORD PTR [eax], ecx

; 1192 : 		iterator _Last = _Make_iter(_Last_arg);
; 1193 : 
; 1194 : 		if (_First != _Last)

  0000f	3b 4d 10	 cmp	 ecx, DWORD PTR __Last_arg$[ebp]
  00012	74 38		 je	 SHORT $LN1@erase

; 1195 : 			{	// worth doing, copy down over hole
; 1196 :  #if _ITERATOR_DEBUG_LEVEL == 2
; 1197 : 			if (_Last < _First || _VICONT(_First) != this
; 1198 : 				|| _VIPTR(_First) < this->_Myfirst
; 1199 : 				|| this->_Mylast < _VIPTR(_Last))
; 1200 : 				_DEBUG_ERROR("vector erase iterator outside range");
; 1201 : 			pointer _Ptr = _Move(_VIPTR(_Last), this->_Mylast,
; 1202 : 				_VIPTR(_First));
; 1203 : 			_Orphan_range(_VIPTR(_First), this->_Mylast);
; 1204 : 
; 1205 :  #else /* _ITERATOR_DEBUG_LEVEL == 2 */
; 1206 : 			pointer _Ptr = _Move(_VIPTR(_Last), this->_Mylast,
; 1207 : 				_VIPTR(_First));

  00014	8b 46 04	 mov	 eax, DWORD PTR [esi+4]
  00017	53		 push	 ebx
  00018	57		 push	 edi
  00019	ff 75 10	 push	 DWORD PTR __Cat$518568[ebp]
  0001c	51		 push	 ecx
  0001d	50		 push	 eax
  0001e	ff 75 10	 push	 DWORD PTR __Last_arg$[ebp]
  00021	e8 00 00 00 00	 call	 ??$_Move@PAUFileDriveItem@@PAU1@@std@@YAPAUFileDriveItem@@PAU1@00U_Nonscalar_ptr_iterator_tag@0@@Z ; std::_Move<FileDriveItem *,FileDriveItem *>

; 1208 :  #endif /* _ITERATOR_DEBUG_LEVEL == 2 */
; 1209 : 
; 1210 : 			_Destroy(_Ptr, this->_Mylast);

  00026	8b 7e 04	 mov	 edi, DWORD PTR [esi+4]
  00029	8b d8		 mov	 ebx, eax
  0002b	83 c4 10	 add	 esp, 16			; 00000010H
  0002e	89 5d fc	 mov	 DWORD PTR $T518637[ebp], ebx
  00031	3b df		 cmp	 ebx, edi
  00033	74 12		 je	 SHORT $LN36@erase
$LL55@erase:
  00035	8b 4d fc	 mov	 ecx, DWORD PTR $T518637[ebp]
  00038	ff 15 00 00 00
	00		 call	 DWORD PTR __imp_??1ioHashString@@QAE@XZ
  0003e	83 45 fc 14	 add	 DWORD PTR $T518637[ebp], 20 ; 00000014H
  00042	39 7d fc	 cmp	 DWORD PTR $T518637[ebp], edi
  00045	75 ee		 jne	 SHORT $LL55@erase
$LN36@erase:

; 1211 : 			this->_Mylast = _Ptr;

  00047	5f		 pop	 edi
  00048	89 5e 04	 mov	 DWORD PTR [esi+4], ebx
  0004b	5b		 pop	 ebx
$LN1@erase:

; 1212 : 			}
; 1213 : 		return (_First);

  0004c	8b 45 08	 mov	 eax, DWORD PTR ___$ReturnUdt$[ebp]
  0004f	5e		 pop	 esi

; 1214 : 		}

  00050	c9		 leave
  00051	c2 0c 00	 ret	 12			; 0000000cH
?erase@?$vector@UFileDriveItem@@V?$allocator@UFileDriveItem@@@std@@@std@@QAE?AV?$_Vector_iterator@V?$_Vector_val@UFileDriveItem@@V?$allocator@UFileDriveItem@@@std@@@std@@@2@V?$_Vector_const_iterator@V?$_Vector_val@UFileDriveItem@@V?$allocator@UFileDriveItem@@@std@@@std@@@2@0@Z ENDP ; std::vector<FileDriveItem,std::allocator<FileDriveItem> >::erase
_TEXT	ENDS
PUBLIC	?_Reserve@?$vector@UFileDriveItem@@V?$allocator@UFileDriveItem@@@std@@@std@@IAEXI@Z ; std::vector<FileDriveItem,std::allocator<FileDriveItem> >::_Reserve
; Function compile flags: /Ogsp
;	COMDAT ?_Reserve@?$vector@UFileDriveItem@@V?$allocator@UFileDriveItem@@@std@@@std@@IAEXI@Z
_TEXT	SEGMENT
__Count$ = 8						; size = 4
?_Reserve@?$vector@UFileDriveItem@@V?$allocator@UFileDriveItem@@@std@@@std@@IAEXI@Z PROC ; std::vector<FileDriveItem,std::allocator<FileDriveItem> >::_Reserve, COMDAT
; _this$ = ecx

; 1290 : 		{	// ensure room for _Count new elements, grow exponentially

  00000	55		 push	 ebp
  00001	8b ec		 mov	 ebp, esp
  00003	56		 push	 esi
  00004	8b f1		 mov	 esi, ecx

; 1291 : 		size_type _Size = size();

  00006	8b 0e		 mov	 ecx, DWORD PTR [esi]
  00008	8b 46 04	 mov	 eax, DWORD PTR [esi+4]
  0000b	2b c1		 sub	 eax, ecx
  0000d	57		 push	 edi
  0000e	99		 cdq
  0000f	6a 14		 push	 20			; 00000014H
  00011	5f		 pop	 edi
  00012	f7 ff		 idiv	 edi
  00014	8b f8		 mov	 edi, eax

; 1292 : 		if (max_size() - _Count < _Size)

  00016	b8 cc cc cc 0c	 mov	 eax, 214748364		; 0cccccccH
  0001b	2b 45 08	 sub	 eax, DWORD PTR __Count$[ebp]
  0001e	3b c7		 cmp	 eax, edi
  00020	73 0b		 jae	 SHORT $LN4@Reserve

; 1293 : 			_Xlen();

  00022	68 00 00 00 00	 push	 OFFSET ??_C@_0BD@OLBABOEK@vector?$DMT?$DO?5too?5long?$AA@
  00027	ff 15 00 00 00
	00		 call	 DWORD PTR __imp_?_Xlength_error@std@@YAXPBD@Z
$LN21@Reserve:
$LN4@Reserve:

; 1294 : 		else if ((_Size += _Count) <= capacity())

  0002d	8b 46 08	 mov	 eax, DWORD PTR [esi+8]
  00030	2b c1		 sub	 eax, ecx
  00032	6a 14		 push	 20			; 00000014H
  00034	99		 cdq
  00035	59		 pop	 ecx
  00036	f7 f9		 idiv	 ecx
  00038	03 7d 08	 add	 edi, DWORD PTR __Count$[ebp]
  0003b	3b f8		 cmp	 edi, eax
  0003d	76 10		 jbe	 SHORT $LN1@Reserve

; 1295 : 			;
; 1296 : 		else
; 1297 : 			reserve(_Grow_to(_Size));

  0003f	57		 push	 edi
  00040	8b ce		 mov	 ecx, esi
  00042	e8 00 00 00 00	 call	 ?_Grow_to@?$vector@UFileDriveItem@@V?$allocator@UFileDriveItem@@@std@@@std@@IBEII@Z ; std::vector<FileDriveItem,std::allocator<FileDriveItem> >::_Grow_to
  00047	50		 push	 eax
  00048	8b ce		 mov	 ecx, esi
  0004a	e8 00 00 00 00	 call	 ?reserve@?$vector@UFileDriveItem@@V?$allocator@UFileDriveItem@@@std@@@std@@QAEXI@Z ; std::vector<FileDriveItem,std::allocator<FileDriveItem> >::reserve
$LN1@Reserve:
  0004f	5f		 pop	 edi
  00050	5e		 pop	 esi

; 1298 : 		}

  00051	5d		 pop	 ebp
  00052	c2 04 00	 ret	 4
$LN20@Reserve:
?_Reserve@?$vector@UFileDriveItem@@V?$allocator@UFileDriveItem@@@std@@@std@@IAEXI@Z ENDP ; std::vector<FileDriveItem,std::allocator<FileDriveItem> >::_Reserve
_TEXT	ENDS
PUBLIC	?erase@?$vector@UFileInfo@FileListWnd@@V?$allocator@UFileInfo@FileListWnd@@@std@@@std@@QAE?AV?$_Vector_iterator@V?$_Vector_val@UFileInfo@FileListWnd@@V?$allocator@UFileInfo@FileListWnd@@@std@@@std@@@2@V?$_Vector_const_iterator@V?$_Vector_val@UFileInfo@FileListWnd@@V?$allocator@UFileInfo@FileListWnd@@@std@@@std@@@2@0@Z ; std::vector<FileListWnd::FileInfo,std::allocator<FileListWnd::FileInfo> >::erase
; Function compile flags: /Ogsp
;	COMDAT ?erase@?$vector@UFileInfo@FileListWnd@@V?$allocator@UFileInfo@FileListWnd@@@std@@@std@@QAE?AV?$_Vector_iterator@V?$_Vector_val@UFileInfo@FileListWnd@@V?$allocator@UFileInfo@FileListWnd@@@std@@@std@@@2@V?$_Vector_const_iterator@V?$_Vector_val@UFileInfo@FileListWnd@@V?$allocator@UFileInfo@FileListWnd@@@std@@@std@@@2@0@Z
_TEXT	SEGMENT
$T518862 = -4						; size = 4
___$ReturnUdt$ = 8					; size = 4
__First_arg$ = 12					; size = 4
__Cat$518794 = 16					; size = 1
__Last_arg$ = 16					; size = 4
?erase@?$vector@UFileInfo@FileListWnd@@V?$allocator@UFileInfo@FileListWnd@@@std@@@std@@QAE?AV?$_Vector_iterator@V?$_Vector_val@UFileInfo@FileListWnd@@V?$allocator@UFileInfo@FileListWnd@@@std@@@std@@@2@V?$_Vector_const_iterator@V?$_Vector_val@UFileInfo@FileListWnd@@V?$allocator@UFileInfo@FileListWnd@@@std@@@std@@@2@0@Z PROC ; std::vector<FileListWnd::FileInfo,std::allocator<FileListWnd::FileInfo> >::erase, COMDAT
; _this$ = ecx

; 1190 : 		{	// erase [_First, _Last)

  00000	55		 push	 ebp
  00001	8b ec		 mov	 ebp, esp
  00003	51		 push	 ecx

; 1191 : 		iterator _First = _Make_iter(_First_arg);

  00004	8b 45 08	 mov	 eax, DWORD PTR ___$ReturnUdt$[ebp]
  00007	56		 push	 esi
  00008	8b f1		 mov	 esi, ecx
  0000a	8b 4d 0c	 mov	 ecx, DWORD PTR __First_arg$[ebp]
  0000d	89 08		 mov	 DWORD PTR [eax], ecx

; 1192 : 		iterator _Last = _Make_iter(_Last_arg);
; 1193 : 
; 1194 : 		if (_First != _Last)

  0000f	3b 4d 10	 cmp	 ecx, DWORD PTR __Last_arg$[ebp]
  00012	74 38		 je	 SHORT $LN1@erase@2

; 1195 : 			{	// worth doing, copy down over hole
; 1196 :  #if _ITERATOR_DEBUG_LEVEL == 2
; 1197 : 			if (_Last < _First || _VICONT(_First) != this
; 1198 : 				|| _VIPTR(_First) < this->_Myfirst
; 1199 : 				|| this->_Mylast < _VIPTR(_Last))
; 1200 : 				_DEBUG_ERROR("vector erase iterator outside range");
; 1201 : 			pointer _Ptr = _Move(_VIPTR(_Last), this->_Mylast,
; 1202 : 				_VIPTR(_First));
; 1203 : 			_Orphan_range(_VIPTR(_First), this->_Mylast);
; 1204 : 
; 1205 :  #else /* _ITERATOR_DEBUG_LEVEL == 2 */
; 1206 : 			pointer _Ptr = _Move(_VIPTR(_Last), this->_Mylast,
; 1207 : 				_VIPTR(_First));

  00014	8b 46 04	 mov	 eax, DWORD PTR [esi+4]
  00017	53		 push	 ebx
  00018	57		 push	 edi
  00019	ff 75 10	 push	 DWORD PTR __Cat$518794[ebp]
  0001c	51		 push	 ecx
  0001d	50		 push	 eax
  0001e	ff 75 10	 push	 DWORD PTR __Last_arg$[ebp]
  00021	e8 00 00 00 00	 call	 ??$_Move@PAUFileInfo@FileListWnd@@PAU12@@std@@YAPAUFileInfo@FileListWnd@@PAU12@00U_Nonscalar_ptr_iterator_tag@0@@Z ; std::_Move<FileListWnd::FileInfo *,FileListWnd::FileInfo *>

; 1208 :  #endif /* _ITERATOR_DEBUG_LEVEL == 2 */
; 1209 : 
; 1210 : 			_Destroy(_Ptr, this->_Mylast);

  00026	8b 7e 04	 mov	 edi, DWORD PTR [esi+4]
  00029	8b d8		 mov	 ebx, eax
  0002b	83 c4 10	 add	 esp, 16			; 00000010H
  0002e	89 5d fc	 mov	 DWORD PTR $T518862[ebp], ebx
  00031	3b df		 cmp	 ebx, edi
  00033	74 12		 je	 SHORT $LN36@erase@2
$LL55@erase@2:
  00035	8b 4d fc	 mov	 ecx, DWORD PTR $T518862[ebp]
  00038	ff 15 00 00 00
	00		 call	 DWORD PTR __imp_??1ioHashString@@QAE@XZ
  0003e	83 45 fc 14	 add	 DWORD PTR $T518862[ebp], 20 ; 00000014H
  00042	39 7d fc	 cmp	 DWORD PTR $T518862[ebp], edi
  00045	75 ee		 jne	 SHORT $LL55@erase@2
$LN36@erase@2:

; 1211 : 			this->_Mylast = _Ptr;

  00047	5f		 pop	 edi
  00048	89 5e 04	 mov	 DWORD PTR [esi+4], ebx
  0004b	5b		 pop	 ebx
$LN1@erase@2:

; 1212 : 			}
; 1213 : 		return (_First);

  0004c	8b 45 08	 mov	 eax, DWORD PTR ___$ReturnUdt$[ebp]
  0004f	5e		 pop	 esi

; 1214 : 		}

  00050	c9		 leave
  00051	c2 0c 00	 ret	 12			; 0000000cH
?erase@?$vector@UFileInfo@FileListWnd@@V?$allocator@UFileInfo@FileListWnd@@@std@@@std@@QAE?AV?$_Vector_iterator@V?$_Vector_val@UFileInfo@FileListWnd@@V?$allocator@UFileInfo@FileListWnd@@@std@@@std@@@2@V?$_Vector_const_iterator@V?$_Vector_val@UFileInfo@FileListWnd@@V?$allocator@UFileInfo@FileListWnd@@@std@@@std@@@2@0@Z ENDP ; std::vector<FileListWnd::FileInfo,std::allocator<FileListWnd::FileInfo> >::erase
_TEXT	ENDS
PUBLIC	?_Tidy@?$vector@UFileInfo@FileListWnd@@V?$allocator@UFileInfo@FileListWnd@@@std@@@std@@IAEXXZ ; std::vector<FileListWnd::FileInfo,std::allocator<FileListWnd::FileInfo> >::_Tidy
; Function compile flags: /Ogsp
;	COMDAT ?_Tidy@?$vector@UFileInfo@FileListWnd@@V?$allocator@UFileInfo@FileListWnd@@@std@@@std@@IAEXXZ
_TEXT	SEGMENT
?_Tidy@?$vector@UFileInfo@FileListWnd@@V?$allocator@UFileInfo@FileListWnd@@@std@@@std@@IAEXXZ PROC ; std::vector<FileListWnd::FileInfo,std::allocator<FileListWnd::FileInfo> >::_Tidy, COMDAT
; _this$ = ecx

; 1301 : 		{	// free all storage

  00000	56		 push	 esi
  00001	8b f1		 mov	 esi, ecx

; 1302 : 		if (this->_Myfirst != 0)

  00003	83 3e 00	 cmp	 DWORD PTR [esi], 0
  00006	74 28		 je	 SHORT $LN27@Tidy@2

; 1303 : 			{	// something to free, destroy and deallocate it
; 1304 : 			this->_Orphan_all();

  00008	53		 push	 ebx
  00009	57		 push	 edi
  0000a	ff 15 00 00 00
	00		 call	 DWORD PTR __imp_?_Orphan_all@_Container_base0@std@@QAEXXZ

; 1305 : 			_Destroy(this->_Myfirst, this->_Mylast);

  00010	8b 5e 04	 mov	 ebx, DWORD PTR [esi+4]
  00013	8b 3e		 mov	 edi, DWORD PTR [esi]
  00015	eb 0b		 jmp	 SHORT $LN31@Tidy@2
$LL12@Tidy@2:
  00017	8b cf		 mov	 ecx, edi
  00019	ff 15 00 00 00
	00		 call	 DWORD PTR __imp_??1ioHashString@@QAE@XZ
  0001f	83 c7 14	 add	 edi, 20			; 00000014H
$LN31@Tidy@2:
  00022	3b fb		 cmp	 edi, ebx
  00024	75 f1		 jne	 SHORT $LL12@Tidy@2

; 1306 : 			this->_Alval.deallocate(this->_Myfirst,
; 1307 : 				this->_Myend - this->_Myfirst);

  00026	ff 36		 push	 DWORD PTR [esi]
  00028	e8 00 00 00 00	 call	 ??3@YAXPAX@Z		; operator delete
  0002d	59		 pop	 ecx
  0002e	5f		 pop	 edi
  0002f	5b		 pop	 ebx
$LN27@Tidy@2:

; 1308 : 			}
; 1309 : 		this->_Myfirst = 0;

  00030	33 c0		 xor	 eax, eax
  00032	89 06		 mov	 DWORD PTR [esi], eax

; 1310 : 		this->_Mylast = 0;

  00034	89 46 04	 mov	 DWORD PTR [esi+4], eax

; 1311 : 		this->_Myend = 0;

  00037	89 46 08	 mov	 DWORD PTR [esi+8], eax
  0003a	5e		 pop	 esi

; 1312 : 		}

  0003b	c3		 ret	 0
?_Tidy@?$vector@UFileInfo@FileListWnd@@V?$allocator@UFileInfo@FileListWnd@@@std@@@std@@IAEXXZ ENDP ; std::vector<FileListWnd::FileInfo,std::allocator<FileListWnd::FileInfo> >::_Tidy
_TEXT	ENDS
PUBLIC	?reserve@?$vector@VioHashString@@V?$allocator@VioHashString@@@std@@@std@@QAEXI@Z ; std::vector<ioHashString,std::allocator<ioHashString> >::reserve
;	COMDAT xdata$x
; File c:\program files (x86)\microsoft visual studio 10.0\vc\include\xmemory
xdata$x	SEGMENT
__catchsym$?reserve@?$vector@VioHashString@@V?$allocator@VioHashString@@@std@@@std@@QAEXI@Z$2 DD 040H
	DD	00H
	DD	00H
	DD	FLAT:__catch$?reserve@?$vector@VioHashString@@V?$allocator@VioHashString@@@std@@@std@@QAEXI@Z$0
__unwindtable$?reserve@?$vector@VioHashString@@V?$allocator@VioHashString@@@std@@@std@@QAEXI@Z DD 0ffffffffH
	DD	00H
	DD	0ffffffffH
	DD	00H
__tryblocktable$?reserve@?$vector@VioHashString@@V?$allocator@VioHashString@@@std@@@std@@QAEXI@Z DD 00H
	DD	00H
	DD	01H
	DD	01H
	DD	FLAT:__catchsym$?reserve@?$vector@VioHashString@@V?$allocator@VioHashString@@@std@@@std@@QAEXI@Z$2
__ehfuncinfo$?reserve@?$vector@VioHashString@@V?$allocator@VioHashString@@@std@@@std@@QAEXI@Z DD 019930522H
	DD	02H
	DD	FLAT:__unwindtable$?reserve@?$vector@VioHashString@@V?$allocator@VioHashString@@@std@@@std@@QAEXI@Z
	DD	01H
	DD	FLAT:__tryblocktable$?reserve@?$vector@VioHashString@@V?$allocator@VioHashString@@@std@@@std@@QAEXI@Z
	DD	2 DUP(00H)
	DD	00H
	DD	01H
; Function compile flags: /Ogsp
; File c:\program files (x86)\microsoft visual studio 10.0\vc\include\vector
xdata$x	ENDS
;	COMDAT ?reserve@?$vector@VioHashString@@V?$allocator@VioHashString@@@std@@@std@@QAEXI@Z
_TEXT	SEGMENT
tv300 = -24						; size = 4
__Ptr$510678 = -20					; size = 4
__$EHRec$ = -16						; size = 16
$T519130 = 8						; size = 4
__Count$ = 8						; size = 4
?reserve@?$vector@VioHashString@@V?$allocator@VioHashString@@@std@@@std@@QAEXI@Z PROC ; std::vector<ioHashString,std::allocator<ioHashString> >::reserve, COMDAT
; _this$ = ecx

; 746  : 		{	// determine new minimum length of allocated storage

  00000	6a 0c		 push	 12			; 0000000cH
  00002	b8 00 00 00 00	 mov	 eax, __ehhandler$?reserve@?$vector@VioHashString@@V?$allocator@VioHashString@@@std@@@std@@QAEXI@Z
  00007	e8 00 00 00 00	 call	 __EH_prolog3_catch
  0000c	8b f1		 mov	 esi, ecx

; 747  : 		if (max_size() < _Count)

  0000e	8b 5d 08	 mov	 ebx, DWORD PTR __Count$[ebp]
  00011	81 fb ff ff ff
	0f		 cmp	 ebx, 268435455		; 0fffffffH
  00017	76 0b		 jbe	 SHORT $LN5@reserve@2

; 748  : 			_Xlen();	// result too long

  00019	68 00 00 00 00	 push	 OFFSET ??_C@_0BD@OLBABOEK@vector?$DMT?$DO?5too?5long?$AA@
  0001e	ff 15 00 00 00
	00		 call	 DWORD PTR __imp_?_Xlength_error@std@@YAXPBD@Z
$LN59@reserve@2:
$LN5@reserve@2:

; 749  : 		else if (capacity() < _Count)

  00024	8b 46 08	 mov	 eax, DWORD PTR [esi+8]
  00027	2b 06		 sub	 eax, DWORD PTR [esi]
  00029	c1 f8 04	 sar	 eax, 4
  0002c	3b c3		 cmp	 eax, ebx
  0002e	73 7a		 jae	 SHORT $LN3@reserve@2

; 750  : 			{	// not enough room, reallocate
; 751  : 			pointer _Ptr = this->_Alval.allocate(_Count);

  00030	6a 00		 push	 0
  00032	53		 push	 ebx
  00033	e8 00 00 00 00	 call	 ??$_Allocate@VioHashString@@@std@@YAPAVioHashString@@IPAV1@@Z ; std::_Allocate<ioHashString>

; 752  : 
; 753  : 			_TRY_BEGIN
; 754  : 			_Umove(this->_Myfirst, this->_Mylast, _Ptr);

  00038	8b 0e		 mov	 ecx, DWORD PTR [esi]
  0003a	83 65 fc 00	 and	 DWORD PTR __$EHRec$[ebp+12], 0
  0003e	8d 56 0c	 lea	 edx, DWORD PTR [esi+12]
  00041	52		 push	 edx
  00042	89 45 ec	 mov	 DWORD PTR __Ptr$510678[ebp], eax
  00045	ff 75 ec	 push	 DWORD PTR __Ptr$510678[ebp]
  00048	8b 46 04	 mov	 eax, DWORD PTR [esi+4]
  0004b	50		 push	 eax
  0004c	51		 push	 ecx
  0004d	e8 00 00 00 00	 call	 ??$_Uninitialized_move@PAVioHashString@@PAV1@V?$allocator@VioHashString@@@std@@@std@@YAPAVioHashString@@PAV1@00AAV?$allocator@VioHashString@@@0@@Z ; std::_Uninitialized_move<ioHashString *,ioHashString *,std::allocator<ioHashString> >

; 758  : 			_CATCH_END
; 759  : 
; 760  : 			size_type _Size = size();

  00052	8b 4e 04	 mov	 ecx, DWORD PTR [esi+4]
  00055	8b 06		 mov	 eax, DWORD PTR [esi]
  00057	83 4d fc ff	 or	 DWORD PTR __$EHRec$[ebp+12], -1
  0005b	8b f9		 mov	 edi, ecx
  0005d	83 c4 18	 add	 esp, 24			; 00000018H
  00060	2b f8		 sub	 edi, eax
  00062	89 4d e8	 mov	 DWORD PTR tv300[ebp], ecx
  00065	85 c0		 test	 eax, eax
  00067	74 24		 je	 SHORT $LN51@reserve@2

; 761  : 			if (this->_Myfirst != 0)
; 762  : 				{	// destroy and deallocate old array
; 763  : 				_Destroy(this->_Myfirst, this->_Mylast);

  00069	89 45 08	 mov	 DWORD PTR $T519130[ebp], eax
  0006c	3b c1		 cmp	 eax, ecx
  0006e	74 15		 je	 SHORT $LN37@reserve@2
$LN39@reserve@2:
  00070	8b 4d 08	 mov	 ecx, DWORD PTR $T519130[ebp]
  00073	ff 15 00 00 00
	00		 call	 DWORD PTR __imp_??1ioHashString@@QAE@XZ
  00079	83 45 08 10	 add	 DWORD PTR $T519130[ebp], 16 ; 00000010H
  0007d	8b 45 08	 mov	 eax, DWORD PTR $T519130[ebp]
  00080	3b 45 e8	 cmp	 eax, DWORD PTR tv300[ebp]
  00083	75 eb		 jne	 SHORT $LN39@reserve@2
$LN37@reserve@2:

; 764  : 				this->_Alval.deallocate(this->_Myfirst,
; 765  : 					this->_Myend - this->_Myfirst);

  00085	ff 36		 push	 DWORD PTR [esi]
  00087	e8 00 00 00 00	 call	 ??3@YAXPAX@Z		; operator delete
  0008c	59		 pop	 ecx
$LN51@reserve@2:

; 766  : 				}
; 767  : 
; 768  : 			this->_Orphan_all();

  0008d	8b ce		 mov	 ecx, esi
  0008f	ff 15 00 00 00
	00		 call	 DWORD PTR __imp_?_Orphan_all@_Container_base0@std@@QAEXXZ

; 769  : 			this->_Myend = _Ptr + _Count;

  00095	8b 45 ec	 mov	 eax, DWORD PTR __Ptr$510678[ebp]
  00098	c1 e3 04	 shl	 ebx, 4
  0009b	03 d8		 add	 ebx, eax

; 770  : 			this->_Mylast = _Ptr + _Size;

  0009d	83 e7 f0	 and	 edi, -16		; fffffff0H
  000a0	03 f8		 add	 edi, eax
  000a2	89 5e 08	 mov	 DWORD PTR [esi+8], ebx
  000a5	89 7e 04	 mov	 DWORD PTR [esi+4], edi

; 771  : 			this->_Myfirst = _Ptr;

  000a8	89 06		 mov	 DWORD PTR [esi], eax
$LN3@reserve@2:

; 772  : 			}
; 773  : 		}

  000aa	e8 00 00 00 00	 call	 __EH_epilog3
  000af	c2 04 00	 ret	 4
__catch$?reserve@?$vector@VioHashString@@V?$allocator@VioHashString@@@std@@@std@@QAEXI@Z$0:

; 755  : 			_CATCH_ALL
; 756  : 			this->_Alval.deallocate(_Ptr, _Count);

  000b2	ff 75 ec	 push	 DWORD PTR __Ptr$510678[ebp]
  000b5	e8 00 00 00 00	 call	 ??3@YAXPAX@Z		; operator delete
  000ba	59		 pop	 ecx

; 757  : 			_RERAISE;

  000bb	6a 00		 push	 0
  000bd	6a 00		 push	 0
  000bf	e8 00 00 00 00	 call	 __CxxThrowException@8
$LN60@reserve@2:
$LN58@reserve@2:
  000c4	cc		 int	 3
_TEXT	ENDS
;	COMDAT text$x
text$x	SEGMENT
__ehhandler$?reserve@?$vector@VioHashString@@V?$allocator@VioHashString@@@std@@@std@@QAEXI@Z:
  00000	8b 54 24 08	 mov	 edx, DWORD PTR [esp+8]
  00004	8d 42 0c	 lea	 eax, DWORD PTR [edx+12]
  00007	8b 4a e4	 mov	 ecx, DWORD PTR [edx-28]
  0000a	33 c8		 xor	 ecx, eax
  0000c	e8 00 00 00 00	 call	 @__security_check_cookie@4
  00011	b8 00 00 00 00	 mov	 eax, OFFSET __ehfuncinfo$?reserve@?$vector@VioHashString@@V?$allocator@VioHashString@@@std@@@std@@QAEXI@Z
  00016	e9 00 00 00 00	 jmp	 ___CxxFrameHandler3
text$x	ENDS
?reserve@?$vector@VioHashString@@V?$allocator@VioHashString@@@std@@@std@@QAEXI@Z ENDP ; std::vector<ioHashString,std::allocator<ioHashString> >::reserve
PUBLIC	?reserve@?$vector@UFileInfo@FileListWnd@@V?$allocator@UFileInfo@FileListWnd@@@std@@@std@@QAEXI@Z ; std::vector<FileListWnd::FileInfo,std::allocator<FileListWnd::FileInfo> >::reserve
;	COMDAT xdata$x
; File c:\program files (x86)\microsoft visual studio 10.0\vc\include\xmemory
xdata$x	SEGMENT
__catchsym$?reserve@?$vector@UFileInfo@FileListWnd@@V?$allocator@UFileInfo@FileListWnd@@@std@@@std@@QAEXI@Z$3 DD 040H
	DD	00H
	DD	00H
	DD	FLAT:__catch$?reserve@?$vector@UFileInfo@FileListWnd@@V?$allocator@UFileInfo@FileListWnd@@@std@@@std@@QAEXI@Z$0
__unwindtable$?reserve@?$vector@UFileInfo@FileListWnd@@V?$allocator@UFileInfo@FileListWnd@@@std@@@std@@QAEXI@Z DD 0ffffffffH
	DD	00H
	DD	0ffffffffH
	DD	00H
__tryblocktable$?reserve@?$vector@UFileInfo@FileListWnd@@V?$allocator@UFileInfo@FileListWnd@@@std@@@std@@QAEXI@Z DD 00H
	DD	00H
	DD	01H
	DD	01H
	DD	FLAT:__catchsym$?reserve@?$vector@UFileInfo@FileListWnd@@V?$allocator@UFileInfo@FileListWnd@@@std@@@std@@QAEXI@Z$3
__ehfuncinfo$?reserve@?$vector@UFileInfo@FileListWnd@@V?$allocator@UFileInfo@FileListWnd@@@std@@@std@@QAEXI@Z DD 019930522H
	DD	02H
	DD	FLAT:__unwindtable$?reserve@?$vector@UFileInfo@FileListWnd@@V?$allocator@UFileInfo@FileListWnd@@@std@@@std@@QAEXI@Z
	DD	01H
	DD	FLAT:__tryblocktable$?reserve@?$vector@UFileInfo@FileListWnd@@V?$allocator@UFileInfo@FileListWnd@@@std@@@std@@QAEXI@Z
	DD	2 DUP(00H)
	DD	00H
	DD	01H
; Function compile flags: /Ogsp
; File c:\program files (x86)\microsoft visual studio 10.0\vc\include\vector
xdata$x	ENDS
;	COMDAT ?reserve@?$vector@UFileInfo@FileListWnd@@V?$allocator@UFileInfo@FileListWnd@@@std@@@std@@QAEXI@Z
_TEXT	SEGMENT
__Ptr$510713 = -24					; size = 4
$T519302 = -20						; size = 4
__$EHRec$ = -16						; size = 16
__Count$ = 8						; size = 4
?reserve@?$vector@UFileInfo@FileListWnd@@V?$allocator@UFileInfo@FileListWnd@@@std@@@std@@QAEXI@Z PROC ; std::vector<FileListWnd::FileInfo,std::allocator<FileListWnd::FileInfo> >::reserve, COMDAT
; _this$ = ecx

; 746  : 		{	// determine new minimum length of allocated storage

  00000	6a 0c		 push	 12			; 0000000cH
  00002	b8 00 00 00 00	 mov	 eax, __ehhandler$?reserve@?$vector@UFileInfo@FileListWnd@@V?$allocator@UFileInfo@FileListWnd@@@std@@@std@@QAEXI@Z
  00007	e8 00 00 00 00	 call	 __EH_prolog3_catch
  0000c	8b f1		 mov	 esi, ecx

; 747  : 		if (max_size() < _Count)

  0000e	81 7d 08 cc cc
	cc 0c		 cmp	 DWORD PTR __Count$[ebp], 214748364 ; 0cccccccH
  00015	76 0b		 jbe	 SHORT $LN5@reserve@3

; 748  : 			_Xlen();	// result too long

  00017	68 00 00 00 00	 push	 OFFSET ??_C@_0BD@OLBABOEK@vector?$DMT?$DO?5too?5long?$AA@
  0001c	ff 15 00 00 00
	00		 call	 DWORD PTR __imp_?_Xlength_error@std@@YAXPBD@Z
$LN62@reserve@3:
$LN5@reserve@3:

; 749  : 		else if (capacity() < _Count)

  00022	8b 46 08	 mov	 eax, DWORD PTR [esi+8]
  00025	2b 06		 sub	 eax, DWORD PTR [esi]
  00027	6a 14		 push	 20			; 00000014H
  00029	99		 cdq
  0002a	59		 pop	 ecx
  0002b	f7 f9		 idiv	 ecx
  0002d	3b 45 08	 cmp	 eax, DWORD PTR __Count$[ebp]
  00030	0f 83 81 00 00
	00		 jae	 $LN3@reserve@3

; 750  : 			{	// not enough room, reallocate
; 751  : 			pointer _Ptr = this->_Alval.allocate(_Count);

  00036	6a 00		 push	 0
  00038	ff 75 08	 push	 DWORD PTR __Count$[ebp]
  0003b	e8 00 00 00 00	 call	 ??$_Allocate@UFileInfo@FileListWnd@@@std@@YAPAUFileInfo@FileListWnd@@IPAU12@@Z ; std::_Allocate<FileListWnd::FileInfo>

; 752  : 
; 753  : 			_TRY_BEGIN
; 754  : 			_Umove(this->_Myfirst, this->_Mylast, _Ptr);

  00040	8b 0e		 mov	 ecx, DWORD PTR [esi]
  00042	83 65 fc 00	 and	 DWORD PTR __$EHRec$[ebp+12], 0
  00046	8d 56 0c	 lea	 edx, DWORD PTR [esi+12]
  00049	52		 push	 edx
  0004a	89 45 e8	 mov	 DWORD PTR __Ptr$510713[ebp], eax
  0004d	ff 75 e8	 push	 DWORD PTR __Ptr$510713[ebp]
  00050	8b 46 04	 mov	 eax, DWORD PTR [esi+4]
  00053	50		 push	 eax
  00054	51		 push	 ecx
  00055	e8 00 00 00 00	 call	 ??$_Uninitialized_move@PAUFileInfo@FileListWnd@@PAU12@V?$allocator@UFileInfo@FileListWnd@@@std@@@std@@YAPAUFileInfo@FileListWnd@@PAU12@00AAV?$allocator@UFileInfo@FileListWnd@@@0@@Z ; std::_Uninitialized_move<FileListWnd::FileInfo *,FileListWnd::FileInfo *,std::allocator<FileListWnd::FileInfo> >

; 758  : 			_CATCH_END
; 759  : 
; 760  : 			size_type _Size = size();

  0005a	8b 5e 04	 mov	 ebx, DWORD PTR [esi+4]
  0005d	8b 0e		 mov	 ecx, DWORD PTR [esi]
  0005f	83 c4 18	 add	 esp, 24			; 00000018H
  00062	8b c3		 mov	 eax, ebx
  00064	2b c1		 sub	 eax, ecx
  00066	6a 14		 push	 20			; 00000014H
  00068	99		 cdq
  00069	5f		 pop	 edi
  0006a	f7 ff		 idiv	 edi
  0006c	83 4d fc ff	 or	 DWORD PTR __$EHRec$[ebp+12], -1
  00070	8b f8		 mov	 edi, eax
  00072	85 c9		 test	 ecx, ecx
  00074	74 21		 je	 SHORT $LN54@reserve@3

; 761  : 			if (this->_Myfirst != 0)
; 762  : 				{	// destroy and deallocate old array
; 763  : 				_Destroy(this->_Myfirst, this->_Mylast);

  00076	89 4d ec	 mov	 DWORD PTR $T519302[ebp], ecx
  00079	3b cb		 cmp	 ecx, ebx
  0007b	74 12		 je	 SHORT $LN37@reserve@3
$LN39@reserve@3:
  0007d	8b 4d ec	 mov	 ecx, DWORD PTR $T519302[ebp]
  00080	ff 15 00 00 00
	00		 call	 DWORD PTR __imp_??1ioHashString@@QAE@XZ
  00086	83 45 ec 14	 add	 DWORD PTR $T519302[ebp], 20 ; 00000014H
  0008a	39 5d ec	 cmp	 DWORD PTR $T519302[ebp], ebx
  0008d	75 ee		 jne	 SHORT $LN39@reserve@3
$LN37@reserve@3:

; 764  : 				this->_Alval.deallocate(this->_Myfirst,
; 765  : 					this->_Myend - this->_Myfirst);

  0008f	ff 36		 push	 DWORD PTR [esi]
  00091	e8 00 00 00 00	 call	 ??3@YAXPAX@Z		; operator delete
  00096	59		 pop	 ecx
$LN54@reserve@3:

; 766  : 				}
; 767  : 
; 768  : 			this->_Orphan_all();

  00097	8b ce		 mov	 ecx, esi
  00099	ff 15 00 00 00
	00		 call	 DWORD PTR __imp_?_Orphan_all@_Container_base0@std@@QAEXXZ

; 769  : 			this->_Myend = _Ptr + _Count;
; 770  : 			this->_Mylast = _Ptr + _Size;

  0009f	6b ff 14	 imul	 edi, 20			; 00000014H
  000a2	8b 45 08	 mov	 eax, DWORD PTR __Count$[ebp]
  000a5	8b 4d e8	 mov	 ecx, DWORD PTR __Ptr$510713[ebp]
  000a8	6b c0 14	 imul	 eax, 20			; 00000014H
  000ab	03 c1		 add	 eax, ecx
  000ad	03 f9		 add	 edi, ecx
  000af	89 46 08	 mov	 DWORD PTR [esi+8], eax
  000b2	89 7e 04	 mov	 DWORD PTR [esi+4], edi

; 771  : 			this->_Myfirst = _Ptr;

  000b5	89 0e		 mov	 DWORD PTR [esi], ecx
$LN3@reserve@3:

; 772  : 			}
; 773  : 		}

  000b7	e8 00 00 00 00	 call	 __EH_epilog3
  000bc	c2 04 00	 ret	 4
__catch$?reserve@?$vector@UFileInfo@FileListWnd@@V?$allocator@UFileInfo@FileListWnd@@@std@@@std@@QAEXI@Z$0:

; 755  : 			_CATCH_ALL
; 756  : 			this->_Alval.deallocate(_Ptr, _Count);

  000bf	ff 75 e8	 push	 DWORD PTR __Ptr$510713[ebp]
  000c2	e8 00 00 00 00	 call	 ??3@YAXPAX@Z		; operator delete
  000c7	59		 pop	 ecx

; 757  : 			_RERAISE;

  000c8	6a 00		 push	 0
  000ca	6a 00		 push	 0
  000cc	e8 00 00 00 00	 call	 __CxxThrowException@8
$LN63@reserve@3:
$LN61@reserve@3:
  000d1	cc		 int	 3
_TEXT	ENDS
;	COMDAT text$x
text$x	SEGMENT
__ehhandler$?reserve@?$vector@UFileInfo@FileListWnd@@V?$allocator@UFileInfo@FileListWnd@@@std@@@std@@QAEXI@Z:
  00000	8b 54 24 08	 mov	 edx, DWORD PTR [esp+8]
  00004	8d 42 0c	 lea	 eax, DWORD PTR [edx+12]
  00007	8b 4a e4	 mov	 ecx, DWORD PTR [edx-28]
  0000a	33 c8		 xor	 ecx, eax
  0000c	e8 00 00 00 00	 call	 @__security_check_cookie@4
  00011	b8 00 00 00 00	 mov	 eax, OFFSET __ehfuncinfo$?reserve@?$vector@UFileInfo@FileListWnd@@V?$allocator@UFileInfo@FileListWnd@@@std@@@std@@QAEXI@Z
  00016	e9 00 00 00 00	 jmp	 ___CxxFrameHandler3
text$x	ENDS
?reserve@?$vector@UFileInfo@FileListWnd@@V?$allocator@UFileInfo@FileListWnd@@@std@@@std@@QAEXI@Z ENDP ; std::vector<FileListWnd::FileInfo,std::allocator<FileListWnd::FileInfo> >::reserve
PUBLIC	??$sort@V?$_Vector_iterator@V?$_Vector_val@UFileInfo@FileListWnd@@V?$allocator@UFileInfo@FileListWnd@@@std@@@std@@@std@@VFileListInfoSort@@@std@@YAXV?$_Vector_iterator@V?$_Vector_val@UFileInfo@FileListWnd@@V?$allocator@UFileInfo@FileListWnd@@@std@@@std@@@0@0VFileListInfoSort@@@Z ; std::sort<std::_Vector_iterator<std::_Vector_val<FileListWnd::FileInfo,std::allocator<FileListWnd::FileInfo> > >,FileListInfoSort>
; Function compile flags: /Ogsp
; File c:\program files (x86)\microsoft visual studio 10.0\vc\include\algorithm
;	COMDAT ??$sort@V?$_Vector_iterator@V?$_Vector_val@UFileInfo@FileListWnd@@V?$allocator@UFileInfo@FileListWnd@@@std@@@std@@@std@@VFileListInfoSort@@@std@@YAXV?$_Vector_iterator@V?$_Vector_val@UFileInfo@FileListWnd@@V?$allocator@UFileInfo@FileListWnd@@@std@@@std@@@0@0VFileListInfoSort@@@Z
_TEXT	SEGMENT
__First$ = 8						; size = 4
__Last$ = 12						; size = 4
__Pred$ = 16						; size = 1
??$sort@V?$_Vector_iterator@V?$_Vector_val@UFileInfo@FileListWnd@@V?$allocator@UFileInfo@FileListWnd@@@std@@@std@@@std@@VFileListInfoSort@@@std@@YAXV?$_Vector_iterator@V?$_Vector_val@UFileInfo@FileListWnd@@V?$allocator@UFileInfo@FileListWnd@@@std@@@std@@@0@0VFileListInfoSort@@@Z PROC ; std::sort<std::_Vector_iterator<std::_Vector_val<FileListWnd::FileInfo,std::allocator<FileListWnd::FileInfo> > >,FileListInfoSort>, COMDAT

; 3803 : 	{	// order [_First, _Last), using _Pred

  00000	55		 push	 ebp
  00001	8b ec		 mov	 ebp, esp

; 3804 : 	_DEBUG_RANGE(_First, _Last);
; 3805 : 	_DEBUG_POINTER(_Pred);
; 3806 : 	_Sort(_Unchecked(_First), _Unchecked(_Last), _Last - _First, _Pred);

  00003	ff 75 10	 push	 DWORD PTR __Pred$[ebp]
  00006	8b 45 0c	 mov	 eax, DWORD PTR __Last$[ebp]
  00009	2b 45 08	 sub	 eax, DWORD PTR __First$[ebp]
  0000c	6a 14		 push	 20			; 00000014H
  0000e	59		 pop	 ecx
  0000f	99		 cdq
  00010	f7 f9		 idiv	 ecx
  00012	50		 push	 eax
  00013	ff 75 0c	 push	 DWORD PTR __Last$[ebp]
  00016	ff 75 08	 push	 DWORD PTR __First$[ebp]
  00019	e8 00 00 00 00	 call	 ??$_Sort@PAUFileInfo@FileListWnd@@HVFileListInfoSort@@@std@@YAXPAUFileInfo@FileListWnd@@0HVFileListInfoSort@@@Z ; std::_Sort<FileListWnd::FileInfo *,int,FileListInfoSort>
  0001e	83 c4 10	 add	 esp, 16			; 00000010H

; 3807 : 	}

  00021	5d		 pop	 ebp
  00022	c3		 ret	 0
??$sort@V?$_Vector_iterator@V?$_Vector_val@UFileInfo@FileListWnd@@V?$allocator@UFileInfo@FileListWnd@@@std@@@std@@@std@@VFileListInfoSort@@@std@@YAXV?$_Vector_iterator@V?$_Vector_val@UFileInfo@FileListWnd@@V?$allocator@UFileInfo@FileListWnd@@@std@@@std@@@0@0VFileListInfoSort@@@Z ENDP ; std::sort<std::_Vector_iterator<std::_Vector_val<FileListWnd::FileInfo,std::allocator<FileListWnd::FileInfo> > >,FileListInfoSort>
_TEXT	ENDS
PUBLIC	?_Tidy@?$vector@VioHashString@@V?$allocator@VioHashString@@@std@@@std@@IAEXXZ ; std::vector<ioHashString,std::allocator<ioHashString> >::_Tidy
; Function compile flags: /Ogsp
; File c:\program files (x86)\microsoft visual studio 10.0\vc\include\vector
;	COMDAT ?_Tidy@?$vector@VioHashString@@V?$allocator@VioHashString@@@std@@@std@@IAEXXZ
_TEXT	SEGMENT
?_Tidy@?$vector@VioHashString@@V?$allocator@VioHashString@@@std@@@std@@IAEXXZ PROC ; std::vector<ioHashString,std::allocator<ioHashString> >::_Tidy, COMDAT
; _this$ = ecx

; 1301 : 		{	// free all storage

  00000	56		 push	 esi
  00001	8b f1		 mov	 esi, ecx

; 1302 : 		if (this->_Myfirst != 0)

  00003	83 3e 00	 cmp	 DWORD PTR [esi], 0
  00006	74 28		 je	 SHORT $LN24@Tidy@3

; 1303 : 			{	// something to free, destroy and deallocate it
; 1304 : 			this->_Orphan_all();

  00008	53		 push	 ebx
  00009	57		 push	 edi
  0000a	ff 15 00 00 00
	00		 call	 DWORD PTR __imp_?_Orphan_all@_Container_base0@std@@QAEXXZ

; 1305 : 			_Destroy(this->_Myfirst, this->_Mylast);

  00010	8b 5e 04	 mov	 ebx, DWORD PTR [esi+4]
  00013	8b 3e		 mov	 edi, DWORD PTR [esi]
  00015	eb 0b		 jmp	 SHORT $LN28@Tidy@3
$LL12@Tidy@3:
  00017	8b cf		 mov	 ecx, edi
  00019	ff 15 00 00 00
	00		 call	 DWORD PTR __imp_??1ioHashString@@QAE@XZ
  0001f	83 c7 10	 add	 edi, 16			; 00000010H
$LN28@Tidy@3:
  00022	3b fb		 cmp	 edi, ebx
  00024	75 f1		 jne	 SHORT $LL12@Tidy@3

; 1306 : 			this->_Alval.deallocate(this->_Myfirst,
; 1307 : 				this->_Myend - this->_Myfirst);

  00026	ff 36		 push	 DWORD PTR [esi]
  00028	e8 00 00 00 00	 call	 ??3@YAXPAX@Z		; operator delete
  0002d	59		 pop	 ecx
  0002e	5f		 pop	 edi
  0002f	5b		 pop	 ebx
$LN24@Tidy@3:

; 1308 : 			}
; 1309 : 		this->_Myfirst = 0;

  00030	33 c0		 xor	 eax, eax
  00032	89 06		 mov	 DWORD PTR [esi], eax

; 1310 : 		this->_Mylast = 0;

  00034	89 46 04	 mov	 DWORD PTR [esi+4], eax

; 1311 : 		this->_Myend = 0;

  00037	89 46 08	 mov	 DWORD PTR [esi+8], eax
  0003a	5e		 pop	 esi

; 1312 : 		}

  0003b	c3		 ret	 0
?_Tidy@?$vector@VioHashString@@V?$allocator@VioHashString@@@std@@@std@@IAEXXZ ENDP ; std::vector<ioHashString,std::allocator<ioHashString> >::_Tidy
_TEXT	ENDS
PUBLIC	??_7FileDriveListWnd@@6B@			; FileDriveListWnd::`vftable'
PUBLIC	??0FileDriveListWnd@@QAE@XZ			; FileDriveListWnd::FileDriveListWnd
PUBLIC	??_R4FileDriveListWnd@@6B@			; FileDriveListWnd::`RTTI Complete Object Locator'
PUBLIC	??_R0?AVFileDriveListWnd@@@8			; FileDriveListWnd `RTTI Type Descriptor'
PUBLIC	??_R3FileDriveListWnd@@8			; FileDriveListWnd::`RTTI Class Hierarchy Descriptor'
PUBLIC	??_R2FileDriveListWnd@@8			; FileDriveListWnd::`RTTI Base Class Array'
PUBLIC	??_R1A@?0A@EA@FileDriveListWnd@@8		; FileDriveListWnd::`RTTI Base Class Descriptor at (0,-1,0,64)'
EXTRN	??_EFileDriveListWnd@@UAEPAXI@Z:PROC		; FileDriveListWnd::`vector deleting destructor'
;	COMDAT ??_R1A@?0A@EA@FileDriveListWnd@@8
; File d:\lost saga for developer\youtube\tutorial\source\src\lsclient\gui\filelistwnd.h
rdata$r	SEGMENT
??_R1A@?0A@EA@FileDriveListWnd@@8 DD FLAT:??_R0?AVFileDriveListWnd@@@8 ; FileDriveListWnd::`RTTI Base Class Descriptor at (0,-1,0,64)'
	DD	01H
	DD	00H
	DD	0ffffffffH
	DD	00H
	DD	040H
	DD	FLAT:??_R3FileDriveListWnd@@8
rdata$r	ENDS
;	COMDAT ??_R2FileDriveListWnd@@8
rdata$r	SEGMENT
??_R2FileDriveListWnd@@8 DD FLAT:??_R1A@?0A@EA@FileDriveListWnd@@8 ; FileDriveListWnd::`RTTI Base Class Array'
	DD	FLAT:??_R1A@?0A@EA@ioWnd@@8
rdata$r	ENDS
;	COMDAT ??_R3FileDriveListWnd@@8
rdata$r	SEGMENT
??_R3FileDriveListWnd@@8 DD 00H				; FileDriveListWnd::`RTTI Class Hierarchy Descriptor'
	DD	00H
	DD	02H
	DD	FLAT:??_R2FileDriveListWnd@@8
rdata$r	ENDS
;	COMDAT ??_R0?AVFileDriveListWnd@@@8
_DATA	SEGMENT
??_R0?AVFileDriveListWnd@@@8 DD FLAT:??_7type_info@@6B@	; FileDriveListWnd `RTTI Type Descriptor'
	DD	00H
	DB	'.?AVFileDriveListWnd@@', 00H
_DATA	ENDS
;	COMDAT ??_R4FileDriveListWnd@@6B@
rdata$r	SEGMENT
??_R4FileDriveListWnd@@6B@ DD 00H			; FileDriveListWnd::`RTTI Complete Object Locator'
	DD	00H
	DD	00H
	DD	FLAT:??_R0?AVFileDriveListWnd@@@8
	DD	FLAT:??_R3FileDriveListWnd@@8
rdata$r	ENDS
;	COMDAT ??_7FileDriveListWnd@@6B@
CONST	SEGMENT
??_7FileDriveListWnd@@6B@ DD FLAT:??_R4FileDriveListWnd@@6B@ ; FileDriveListWnd::`vftable'
	DD	FLAT:?AddRenderFrame@ioWnd@@UAEXABVioHashString@@PAVioUIRenderFrame@@@Z
	DD	FLAT:?AddRenderImage@FileDriveListWnd@@UAEXABVioHashString@@PAVioUIRenderImage@@@Z
	DD	FLAT:?AddTooltipHelp@ioWnd@@UAEXABVioHashString@@00@Z
	DD	FLAT:?ParseExtraInfo@FileDriveListWnd@@UAEXAAVioXMLElement@@@Z
	DD	FLAT:?AddNamedRenderImage@ioWnd@@UAEXABVioHashString@@PAVioUIRenderImage@@@Z
	DD	FLAT:?RemoveNamedRenderImage@ioWnd@@UAEXABVioHashString@@@Z
	DD	FLAT:?GetNamedRenderImage@ioWnd@@UBEPAVioUIRenderImage@@ABVioHashString@@@Z
	DD	FLAT:?SetWindowAlpha@ioWnd@@UAEXH@Z
	DD	FLAT:?SetActive@ioWnd@@UAEXXZ
	DD	FLAT:?SetInActive@ioWnd@@UAEXXZ
	DD	FLAT:?ClearElementImageList@ioWnd@@UAEXXZ
	DD	FLAT:?SetSize@ioWnd@@UAEXHH@Z
	DD	FLAT:?SetPositionToDefault@ioWnd@@UAEXHH_N0@Z
	DD	FLAT:?IsNeedProcess@ioWnd@@UBE_NXZ
	DD	FLAT:?IsCanMouseReaction@ioWnd@@UBE_NXZ
	DD	FLAT:?AddChild@ioWnd@@UAEXPAV1@@Z
	DD	FLAT:?DeleteChild@ioWnd@@UAEXK@Z
	DD	FLAT:?DeleteAllChild@ioWnd@@UAEXXZ
	DD	FLAT:?OnRenderShowAndHide@ioWnd@@MAE_NXZ
	DD	FLAT:?OnRenderShowAndHideByDefault@ioWnd@@MAE_NK@Z
	DD	FLAT:?OnRenderShowAndHideByTop@ioWnd@@MAE_NK@Z
	DD	FLAT:?OnRenderShowAndHideByDown@ioWnd@@MAE_NK@Z
	DD	FLAT:?OnRender@FileDriveListWnd@@MAEXXZ
	DD	FLAT:?OnRenderAfterChild@ioWnd@@MAEXXZ
	DD	FLAT:?OnProcess@FileDriveListWnd@@MAEXM@Z
	DD	FLAT:?OnMouseProcess@ioWnd@@MAEXABVioMouse@@@Z
	DD	FLAT:?CheckFrameReSize@ioWnd@@MAEXHHHH@Z
	DD	FLAT:?RenderImageList@ioWnd@@MAEXHHW4UIRenderType@@@Z
	DD	FLAT:?iwm_create@ioWnd@@UAEXXZ
	DD	FLAT:?iwm_destroy@ioWnd@@UAEXXZ
	DD	FLAT:?iwm_lbuttondown@ioWnd@@UAEXABVioMouse@@@Z
	DD	FLAT:?iwm_lbuttonup@ioWnd@@UAEXABVioMouse@@@Z
	DD	FLAT:?iwm_lbuttonDBLCLK@ioWnd@@UAEXABVioMouse@@@Z
	DD	FLAT:?iwm_rbuttondown@ioWnd@@UAEXABVioMouse@@@Z
	DD	FLAT:?iwm_rbuttonup@ioWnd@@UAEXABVioMouse@@@Z
	DD	FLAT:?iwm_command@ioWnd@@UAEXPAV1@HK@Z
	DD	FLAT:?iwm_mouseover@ioWnd@@UAEXABVioMouse@@@Z
	DD	FLAT:?iwm_mousemove@ioWnd@@UAEXABVioMouse@@@Z
	DD	FLAT:?iwm_mouseleave@ioWnd@@UAEXABVioMouse@@@Z
	DD	FLAT:?iwm_vscroll@FileDriveListWnd@@UAEXKH@Z
	DD	FLAT:?iwm_wheel@FileDriveListWnd@@UAEXH@Z
	DD	FLAT:?iwm_show@FileDriveListWnd@@UAEXXZ
	DD	FLAT:?iwm_hide@FileDriveListWnd@@UAEXXZ
	DD	FLAT:?iwm_esc@ioWnd@@UAE_NXZ
	DD	FLAT:?iwm_spacebar@ioWnd@@UAE_NXZ
	DD	FLAT:?iwm_gototop@ioWnd@@UAEXXZ
	DD	FLAT:?iwm_dragenter@ioWnd@@UAE?AW4IWDropEffect@@PAVioDragItem@@ABVioMouse@@@Z
	DD	FLAT:?iwm_dragover@ioWnd@@UAE?AW4IWDropEffect@@PAVioDragItem@@ABVioMouse@@@Z
	DD	FLAT:?iwm_dragleave@ioWnd@@UAEXXZ
	DD	FLAT:?iwm_dropitem@ioWnd@@UAE_NPAVioDragItem@@ABVioMouse@@PAV1@@Z
	DD	FLAT:?iwm_dropdone@ioWnd@@UAEXPAVioDragItem@@PAV1@_N@Z
	DD	FLAT:?IsEXType@ioWnd@@UBE_NXZ
	DD	FLAT:?GetWndType@ioWnd@@UBEKXZ
	DD	FLAT:?RenderWnd@ioWnd@@UAEXXZ
	DD	FLAT:?SetIDEX@ioWnd@@UAEXAAK_N@Z
	DD	FLAT:?ParseXML@ioWnd@@UAEXAAVioXMLElement@@@Z
	DD	FLAT:?GetHeaderFileName@ioWnd@@UAEPBDXZ
	DD	FLAT:?GetTemplateName@ioWnd@@UAEPBDXZ
	DD	FLAT:?GetDefClassName@ioWnd@@UBEPBDXZ
	DD	FLAT:?_Clone@ioWnd@@UAEPAV1@XZ
	DD	FLAT:?Copy@ioWnd@@UAEXPAV1@@Z
	DD	FLAT:?Save@ioWnd@@UAE_NAAVioXMLElement@@@Z
	DD	FLAT:?SetSaveData@ioWnd@@UAEXAAVioXMLElement@@@Z
	DD	FLAT:?SetPosX@ioWnd@@UAEXH@Z
	DD	FLAT:?SetPosY@ioWnd@@UAEXH@Z
	DD	FLAT:?SetWidth@ioWnd@@UAEXH@Z
	DD	FLAT:?SetHeight@ioWnd@@UAEXH@Z
	DD	FLAT:?GetNumFixedRenderFrame@ioWnd@@UBEHXZ
	DD	FLAT:?GetFixedRenderFrameType@ioWnd@@UAEPBDH@Z
	DD	FLAT:?GetRenderFrame@ioWnd@@UAEPAPAVioUIRenderElement@@PBD@Z
	DD	FLAT:?GetNumFixedRenderImage@ioWnd@@UBEHXZ
	DD	FLAT:?GetFixedRenderImageType@ioWnd@@UAEPBDH@Z
	DD	FLAT:?GetRenderImage@ioWnd@@UAEPAPAVioUIRenderElement@@PBD@Z
	DD	FLAT:?AddEffect@ioWnd@@UAEXABVioHashString@@PAVioUI3DEffectRender@@@Z
	DD	FLAT:?GetEffect@ioWnd@@UAEPAVioUI3DEffectRender@@VioHashString@@@Z
	DD	FLAT:??_EFileDriveListWnd@@UAEPAXI@Z
CONST	ENDS
;	COMDAT xdata$x
xdata$x	SEGMENT
__unwindtable$??0FileDriveListWnd@@QAE@XZ DD 0ffffffffH
	DD	FLAT:__unwindfunclet$??0FileDriveListWnd@@QAE@XZ$0
	DD	00H
	DD	FLAT:__unwindfunclet$??0FileDriveListWnd@@QAE@XZ$1
__ehfuncinfo$??0FileDriveListWnd@@QAE@XZ DD 019930522H
	DD	02H
	DD	FLAT:__unwindtable$??0FileDriveListWnd@@QAE@XZ
	DD	2 DUP(00H)
	DD	2 DUP(00H)
	DD	00H
	DD	01H
; Function compile flags: /Ogsp
; File d:\lost saga for developer\youtube\tutorial\source\src\lsclient\gui\filelistwnd.cpp
xdata$x	ENDS
;	COMDAT ??0FileDriveListWnd@@QAE@XZ
_TEXT	SEGMENT
_this$ = -16						; size = 4
__$EHRec$ = -12						; size = 12
??0FileDriveListWnd@@QAE@XZ PROC			; FileDriveListWnd::FileDriveListWnd, COMDAT
; _this$ = ecx

; 130  : {

  00000	6a 04		 push	 4
  00002	b8 00 00 00 00	 mov	 eax, __ehhandler$??0FileDriveListWnd@@QAE@XZ
  00007	e8 00 00 00 00	 call	 __EH_prolog3
  0000c	8b f1		 mov	 esi, ecx
  0000e	89 75 f0	 mov	 DWORD PTR _this$[ebp], esi
  00011	ff 15 00 00 00
	00		 call	 DWORD PTR __imp_??0ioWnd@@QAE@XZ
  00017	33 ff		 xor	 edi, edi
  00019	c7 06 00 00 00
	00		 mov	 DWORD PTR [esi], OFFSET ??_7FileDriveListWnd@@6B@
  0001f	89 7d fc	 mov	 DWORD PTR __$EHRec$[ebp+8], edi
  00022	89 be 8c 01 00
	00		 mov	 DWORD PTR [esi+396], edi
  00028	89 be 90 01 00
	00		 mov	 DWORD PTR [esi+400], edi
  0002e	89 be 94 01 00
	00		 mov	 DWORD PTR [esi+404], edi
  00034	8d 8e 9c 01 00
	00		 lea	 ecx, DWORD PTR [esi+412]
  0003a	c6 45 fc 01	 mov	 BYTE PTR __$EHRec$[ebp+8], 1
  0003e	ff 15 00 00 00
	00		 call	 DWORD PTR __imp_??0ioHashString@@QAE@XZ
  00044	89 be ac 01 00
	00		 mov	 DWORD PTR [esi+428], edi

; 131  : 	m_pDarkLine	= NULL;

  0004a	89 be 60 01 00
	00		 mov	 DWORD PTR [esi+352], edi

; 132  : 	m_pLightLine= NULL;

  00050	89 be 64 01 00
	00		 mov	 DWORD PTR [esi+356], edi

; 133  : 	m_pOverLine	= NULL;

  00056	89 be 68 01 00
	00		 mov	 DWORD PTR [esi+360], edi

; 134  : 
; 135  : 	m_iAddWidth	= 0;

  0005c	89 be 6c 01 00
	00		 mov	 DWORD PTR [esi+364], edi

; 136  : 	m_iAddHeight= 0;

  00062	89 be 70 01 00
	00		 mov	 DWORD PTR [esi+368], edi

; 137  : 	m_iListXPos = 0;

  00068	89 be 74 01 00
	00		 mov	 DWORD PTR [esi+372], edi

; 138  : 	m_iListYPos = 0;

  0006e	89 be 78 01 00
	00		 mov	 DWORD PTR [esi+376], edi

; 139  : 	m_iStartXPos= 0;

  00074	89 be 84 01 00
	00		 mov	 DWORD PTR [esi+388], edi

; 140  : 	m_iStartYPos= 0;

  0007a	89 be 88 01 00
	00		 mov	 DWORD PTR [esi+392], edi

; 141  : 	m_iHeightGap= 0;

  00080	89 be 7c 01 00
	00		 mov	 DWORD PTR [esi+380], edi

; 142  : 	m_iCutWidth = 0;

  00086	89 be 80 01 00
	00		 mov	 DWORD PTR [esi+384], edi

; 143  : 	m_iCurPos   = 0;

  0008c	89 be b0 01 00
	00		 mov	 DWORD PTR [esi+432], edi

; 144  : }

  00092	8b c6		 mov	 eax, esi
  00094	e8 00 00 00 00	 call	 __EH_epilog3
  00099	c3		 ret	 0
_TEXT	ENDS
;	COMDAT text$x
text$x	SEGMENT
__unwindfunclet$??0FileDriveListWnd@@QAE@XZ$0:
  00000	8b 4d f0	 mov	 ecx, DWORD PTR _this$[ebp]
  00003	ff 25 00 00 00
	00		 jmp	 DWORD PTR __imp_??1ioWnd@@UAE@XZ
__unwindfunclet$??0FileDriveListWnd@@QAE@XZ$1:
  00009	8b 4d f0	 mov	 ecx, DWORD PTR _this$[ebp]
  0000c	81 c1 8c 01 00
	00		 add	 ecx, 396		; 0000018cH
  00012	e9 00 00 00 00	 jmp	 ??1?$vector@UFileDriveItem@@V?$allocator@UFileDriveItem@@@std@@@std@@QAE@XZ ; std::vector<FileDriveItem,std::allocator<FileDriveItem> >::~vector<FileDriveItem,std::allocator<FileDriveItem> >
__ehhandler$??0FileDriveListWnd@@QAE@XZ:
  00017	8b 54 24 08	 mov	 edx, DWORD PTR [esp+8]
  0001b	8d 42 0c	 lea	 eax, DWORD PTR [edx+12]
  0001e	8b 4a ec	 mov	 ecx, DWORD PTR [edx-20]
  00021	33 c8		 xor	 ecx, eax
  00023	e8 00 00 00 00	 call	 @__security_check_cookie@4
  00028	b8 00 00 00 00	 mov	 eax, OFFSET __ehfuncinfo$??0FileDriveListWnd@@QAE@XZ
  0002d	e9 00 00 00 00	 jmp	 ___CxxFrameHandler3
text$x	ENDS
??0FileDriveListWnd@@QAE@XZ ENDP			; FileDriveListWnd::FileDriveListWnd
PUBLIC	??1FileDriveListWnd@@UAE@XZ			; FileDriveListWnd::~FileDriveListWnd
;	COMDAT xdata$x
; File c:\program files (x86)\microsoft visual studio 10.0\vc\include\vector
xdata$x	SEGMENT
__unwindtable$??1FileDriveListWnd@@UAE@XZ DD 0ffffffffH
	DD	FLAT:__unwindfunclet$??1FileDriveListWnd@@UAE@XZ$0
	DD	00H
	DD	FLAT:__unwindfunclet$??1FileDriveListWnd@@UAE@XZ$1
	DD	01H
	DD	FLAT:__unwindfunclet$??1FileDriveListWnd@@UAE@XZ$2
__ehfuncinfo$??1FileDriveListWnd@@UAE@XZ DD 019930522H
	DD	03H
	DD	FLAT:__unwindtable$??1FileDriveListWnd@@UAE@XZ
	DD	2 DUP(00H)
	DD	2 DUP(00H)
	DD	00H
	DD	01H
; Function compile flags: /Ogsp
; File d:\lost saga for developer\youtube\tutorial\source\src\lsclient\gui\filelistwnd.cpp
xdata$x	ENDS
;	COMDAT ??1FileDriveListWnd@@UAE@XZ
_TEXT	SEGMENT
_this$ = -16						; size = 4
__$EHRec$ = -12						; size = 12
??1FileDriveListWnd@@UAE@XZ PROC			; FileDriveListWnd::~FileDriveListWnd, COMDAT
; _this$ = ecx

; 147  : {

  00000	6a 04		 push	 4
  00002	b8 00 00 00 00	 mov	 eax, __ehhandler$??1FileDriveListWnd@@UAE@XZ
  00007	e8 00 00 00 00	 call	 __EH_prolog3
  0000c	8b f1		 mov	 esi, ecx
  0000e	89 75 f0	 mov	 DWORD PTR _this$[ebp], esi
  00011	c7 06 00 00 00
	00		 mov	 DWORD PTR [esi], OFFSET ??_7FileDriveListWnd@@6B@

; 148  : 	SAFEDELETE( m_pDarkLine	);

  00017	8b 8e 60 01 00
	00		 mov	 ecx, DWORD PTR [esi+352]
  0001d	c7 45 fc 02 00
	00 00		 mov	 DWORD PTR __$EHRec$[ebp+8], 2
  00024	85 c9		 test	 ecx, ecx
  00026	74 0e		 je	 SHORT $LN3@FileDriveL
  00028	8b 01		 mov	 eax, DWORD PTR [ecx]
  0002a	6a 01		 push	 1
  0002c	ff 50 40	 call	 DWORD PTR [eax+64]
  0002f	83 a6 60 01 00
	00 00		 and	 DWORD PTR [esi+352], 0
$LN3@FileDriveL:

; 149  : 	SAFEDELETE( m_pLightLine );

  00036	8b 8e 64 01 00
	00		 mov	 ecx, DWORD PTR [esi+356]
  0003c	85 c9		 test	 ecx, ecx
  0003e	74 0e		 je	 SHORT $LN2@FileDriveL
  00040	8b 01		 mov	 eax, DWORD PTR [ecx]
  00042	6a 01		 push	 1
  00044	ff 50 40	 call	 DWORD PTR [eax+64]
  00047	83 a6 64 01 00
	00 00		 and	 DWORD PTR [esi+356], 0
$LN2@FileDriveL:

; 150  : 	SAFEDELETE( m_pOverLine	);

  0004e	8b 8e 68 01 00
	00		 mov	 ecx, DWORD PTR [esi+360]
  00054	85 c9		 test	 ecx, ecx
  00056	74 0e		 je	 SHORT $LN1@FileDriveL
  00058	8b 01		 mov	 eax, DWORD PTR [ecx]
  0005a	6a 01		 push	 1
  0005c	ff 50 40	 call	 DWORD PTR [eax+64]
  0005f	83 a6 68 01 00
	00 00		 and	 DWORD PTR [esi+360], 0
$LN1@FileDriveL:

; 151  : }

  00066	8d 8e 9c 01 00
	00		 lea	 ecx, DWORD PTR [esi+412]
  0006c	c6 45 fc 01	 mov	 BYTE PTR __$EHRec$[ebp+8], 1
  00070	ff 15 00 00 00
	00		 call	 DWORD PTR __imp_??1ioHashString@@QAE@XZ
  00076	8d 8e 8c 01 00
	00		 lea	 ecx, DWORD PTR [esi+396]
  0007c	c6 45 fc 00	 mov	 BYTE PTR __$EHRec$[ebp+8], 0
  00080	e8 00 00 00 00	 call	 ?_Tidy@?$vector@UFileDriveItem@@V?$allocator@UFileDriveItem@@@std@@@std@@IAEXXZ ; std::vector<FileDriveItem,std::allocator<FileDriveItem> >::_Tidy
  00085	83 4d fc ff	 or	 DWORD PTR __$EHRec$[ebp+8], -1
  00089	8b ce		 mov	 ecx, esi
  0008b	ff 15 00 00 00
	00		 call	 DWORD PTR __imp_??1ioWnd@@UAE@XZ
  00091	e8 00 00 00 00	 call	 __EH_epilog3
  00096	c3		 ret	 0
_TEXT	ENDS
;	COMDAT text$x
text$x	SEGMENT
__unwindfunclet$??1FileDriveListWnd@@UAE@XZ$0:
  00000	8b 4d f0	 mov	 ecx, DWORD PTR _this$[ebp]
  00003	ff 25 00 00 00
	00		 jmp	 DWORD PTR __imp_??1ioWnd@@UAE@XZ
__unwindfunclet$??1FileDriveListWnd@@UAE@XZ$1:
  00009	8b 4d f0	 mov	 ecx, DWORD PTR _this$[ebp]
  0000c	81 c1 8c 01 00
	00		 add	 ecx, 396		; 0000018cH
  00012	e9 00 00 00 00	 jmp	 ??1?$vector@UFileDriveItem@@V?$allocator@UFileDriveItem@@@std@@@std@@QAE@XZ ; std::vector<FileDriveItem,std::allocator<FileDriveItem> >::~vector<FileDriveItem,std::allocator<FileDriveItem> >
__unwindfunclet$??1FileDriveListWnd@@UAE@XZ$2:
  00017	8b 4d f0	 mov	 ecx, DWORD PTR _this$[ebp]
  0001a	81 c1 9c 01 00
	00		 add	 ecx, 412		; 0000019cH
  00020	e9 00 00 00 00	 jmp	 ??1FileDriveItem@@QAE@XZ
__ehhandler$??1FileDriveListWnd@@UAE@XZ:
  00025	8b 54 24 08	 mov	 edx, DWORD PTR [esp+8]
  00029	8d 42 0c	 lea	 eax, DWORD PTR [edx+12]
  0002c	8b 4a ec	 mov	 ecx, DWORD PTR [edx-20]
  0002f	33 c8		 xor	 ecx, eax
  00031	e8 00 00 00 00	 call	 @__security_check_cookie@4
  00036	b8 00 00 00 00	 mov	 eax, OFFSET __ehfuncinfo$??1FileDriveListWnd@@UAE@XZ
  0003b	e9 00 00 00 00	 jmp	 ___CxxFrameHandler3
text$x	ENDS
??1FileDriveListWnd@@UAE@XZ ENDP			; FileDriveListWnd::~FileDriveListWnd
PUBLIC	?resize@?$vector@UFileDriveItem@@V?$allocator@UFileDriveItem@@@std@@@std@@QAEXI@Z ; std::vector<FileDriveItem,std::allocator<FileDriveItem> >::resize
; Function compile flags: /Ogsp
; File c:\program files (x86)\microsoft visual studio 10.0\vc\include\vector
;	COMDAT ?resize@?$vector@UFileDriveItem@@V?$allocator@UFileDriveItem@@@std@@@std@@QAEXI@Z
_TEXT	SEGMENT
__Cat$519688 = 8					; size = 1
$T519596 = 8						; size = 4
__Newsize$ = 8						; size = 4
?resize@?$vector@UFileDriveItem@@V?$allocator@UFileDriveItem@@@std@@@std@@QAEXI@Z PROC ; std::vector<FileDriveItem,std::allocator<FileDriveItem> >::resize, COMDAT
; _this$ = ecx

; 857  : 		{	// determine new length, padding with _Ty() elements as needed

  00000	55		 push	 ebp
  00001	8b ec		 mov	 ebp, esp
  00003	53		 push	 ebx
  00004	56		 push	 esi
  00005	8b f1		 mov	 esi, ecx

; 858  : 		if (_Newsize < size())

  00007	8b 4e 04	 mov	 ecx, DWORD PTR [esi+4]
  0000a	8b 1e		 mov	 ebx, DWORD PTR [esi]
  0000c	57		 push	 edi
  0000d	8b c1		 mov	 eax, ecx
  0000f	2b c3		 sub	 eax, ebx
  00011	6a 14		 push	 20			; 00000014H
  00013	99		 cdq
  00014	5f		 pop	 edi
  00015	f7 ff		 idiv	 edi
  00017	8b 7d 08	 mov	 edi, DWORD PTR __Newsize$[ebp]
  0001a	3b c7		 cmp	 eax, edi
  0001c	76 14		 jbe	 SHORT $LN44@resize

; 859  : 			erase(begin() + _Newsize, end());

  0001e	6b ff 14	 imul	 edi, 20			; 00000014H
  00021	51		 push	 ecx
  00022	03 fb		 add	 edi, ebx
  00024	57		 push	 edi
  00025	8d 45 08	 lea	 eax, DWORD PTR $T519596[ebp]
  00028	50		 push	 eax
  00029	8b ce		 mov	 ecx, esi
  0002b	e8 00 00 00 00	 call	 ?erase@?$vector@UFileDriveItem@@V?$allocator@UFileDriveItem@@@std@@@std@@QAE?AV?$_Vector_iterator@V?$_Vector_val@UFileDriveItem@@V?$allocator@UFileDriveItem@@@std@@@std@@@2@V?$_Vector_const_iterator@V?$_Vector_val@UFileDriveItem@@V?$allocator@UFileDriveItem@@@std@@@std@@@2@0@Z ; std::vector<FileDriveItem,std::allocator<FileDriveItem> >::erase

; 860  : 		else if (size() < _Newsize)

  00030	eb 48		 jmp	 SHORT $LN1@resize
$LN44@resize:
  00032	73 46		 jae	 SHORT $LN1@resize

; 861  : 			{	// pad as needed
; 862  : 			_Reserve(_Newsize - size());

  00034	8b cf		 mov	 ecx, edi
  00036	2b c8		 sub	 ecx, eax
  00038	51		 push	 ecx
  00039	8b ce		 mov	 ecx, esi
  0003b	e8 00 00 00 00	 call	 ?_Reserve@?$vector@UFileDriveItem@@V?$allocator@UFileDriveItem@@@std@@@std@@IAEXI@Z ; std::vector<FileDriveItem,std::allocator<FileDriveItem> >::_Reserve

; 863  : 			_Uninitialized_default_fill_n(this->_Mylast, _Newsize - size(),
; 864  : 				(_Ty *)0, this->_Alval);

  00040	ff 75 08	 push	 DWORD PTR __Cat$519688[ebp]
  00043	8b 4e 04	 mov	 ecx, DWORD PTR [esi+4]
  00046	6a 00		 push	 0
  00048	8d 46 0c	 lea	 eax, DWORD PTR [esi+12]
  0004b	50		 push	 eax
  0004c	6a 00		 push	 0
  0004e	8b c1		 mov	 eax, ecx
  00050	2b 06		 sub	 eax, DWORD PTR [esi]
  00052	6a 14		 push	 20			; 00000014H
  00054	99		 cdq
  00055	5b		 pop	 ebx
  00056	f7 fb		 idiv	 ebx
  00058	8b d7		 mov	 edx, edi
  0005a	2b d0		 sub	 edx, eax
  0005c	52		 push	 edx
  0005d	51		 push	 ecx
  0005e	e8 00 00 00 00	 call	 ??$_Uninit_def_fill_n@PAUFileDriveItem@@IU1@V?$allocator@UFileDriveItem@@@std@@U1@@std@@YAXPAUFileDriveItem@@IPBU1@AAV?$allocator@UFileDriveItem@@@0@0U_Nonscalar_ptr_iterator_tag@0@@Z ; std::_Uninit_def_fill_n<FileDriveItem *,unsigned int,FileDriveItem,std::allocator<FileDriveItem>,FileDriveItem>

; 865  : 			this->_Mylast += _Newsize - size();

  00063	8b 4e 04	 mov	 ecx, DWORD PTR [esi+4]
  00066	8b c1		 mov	 eax, ecx
  00068	2b 06		 sub	 eax, DWORD PTR [esi]
  0006a	83 c4 18	 add	 esp, 24			; 00000018H
  0006d	99		 cdq
  0006e	f7 fb		 idiv	 ebx
  00070	2b f8		 sub	 edi, eax
  00072	6b ff 14	 imul	 edi, 20			; 00000014H
  00075	03 f9		 add	 edi, ecx
  00077	89 7e 04	 mov	 DWORD PTR [esi+4], edi
$LN1@resize:
  0007a	5f		 pop	 edi
  0007b	5e		 pop	 esi
  0007c	5b		 pop	 ebx

; 866  : 			}
; 867  : 		}

  0007d	5d		 pop	 ebp
  0007e	c2 04 00	 ret	 4
?resize@?$vector@UFileDriveItem@@V?$allocator@UFileDriveItem@@@std@@@std@@QAEXI@Z ENDP ; std::vector<FileDriveItem,std::allocator<FileDriveItem> >::resize
_TEXT	ENDS
PUBLIC	?push_back@?$vector@UFileDriveItem@@V?$allocator@UFileDriveItem@@@std@@@std@@QAEXABUFileDriveItem@@@Z ; std::vector<FileDriveItem,std::allocator<FileDriveItem> >::push_back
; Function compile flags: /Ogsp
;	COMDAT ?push_back@?$vector@UFileDriveItem@@V?$allocator@UFileDriveItem@@@std@@@std@@QAEXABUFileDriveItem@@@Z
_TEXT	SEGMENT
__Val$ = 8						; size = 4
?push_back@?$vector@UFileDriveItem@@V?$allocator@UFileDriveItem@@@std@@@std@@QAEXABUFileDriveItem@@@Z PROC ; std::vector<FileDriveItem,std::allocator<FileDriveItem> >::push_back, COMDAT
; _this$ = ecx

; 976  : 		{	// insert element at end

  00000	55		 push	 ebp
  00001	8b ec		 mov	 ebp, esp
  00003	56		 push	 esi
  00004	8b f1		 mov	 esi, ecx

; 977  : 		if (_Inside(_STD addressof(_Val)))

  00006	8b 4e 04	 mov	 ecx, DWORD PTR [esi+4]
  00009	57		 push	 edi
  0000a	8b 7d 08	 mov	 edi, DWORD PTR __Val$[ebp]
  0000d	3b f9		 cmp	 edi, ecx
  0000f	73 33		 jae	 SHORT $LN4@push_back
  00011	8b 16		 mov	 edx, DWORD PTR [esi]
  00013	3b d7		 cmp	 edx, edi
  00015	77 2d		 ja	 SHORT $LN4@push_back

; 978  : 			{	// push back an element
; 979  : 			size_type _Idx = _STD addressof(_Val) - this->_Myfirst;

  00017	8b c7		 mov	 eax, edi
  00019	2b c2		 sub	 eax, edx
  0001b	6a 14		 push	 20			; 00000014H
  0001d	99		 cdq
  0001e	5f		 pop	 edi
  0001f	f7 ff		 idiv	 edi
  00021	8b f8		 mov	 edi, eax

; 980  : 			if (this->_Mylast == this->_Myend)

  00023	3b 4e 08	 cmp	 ecx, DWORD PTR [esi+8]
  00026	75 09		 jne	 SHORT $LN3@push_back

; 981  : 				_Reserve(1);

  00028	6a 01		 push	 1
  0002a	8b ce		 mov	 ecx, esi
  0002c	e8 00 00 00 00	 call	 ?_Reserve@?$vector@UFileDriveItem@@V?$allocator@UFileDriveItem@@@std@@@std@@IAEXI@Z ; std::vector<FileDriveItem,std::allocator<FileDriveItem> >::_Reserve
$LN3@push_back:

; 982  : 			_Orphan_range(this->_Mylast, this->_Mylast);
; 983  : 			_Cons_val(this->_Alval,
; 984  : 				this->_Mylast,
; 985  : 				this->_Myfirst[_Idx]);

  00031	6b ff 14	 imul	 edi, 20			; 00000014H
  00034	03 3e		 add	 edi, DWORD PTR [esi]
  00036	8d 4e 0c	 lea	 ecx, DWORD PTR [esi+12]
  00039	57		 push	 edi
  0003a	ff 76 04	 push	 DWORD PTR [esi+4]
  0003d	e8 00 00 00 00	 call	 ??$construct@AAUFileDriveItem@@@?$allocator@UFileDriveItem@@@std@@QAEXPAUFileDriveItem@@AAU2@@Z ; std::allocator<FileDriveItem>::construct<FileDriveItem &>

; 986  : 			++this->_Mylast;
; 987  : 			}
; 988  : 		else

  00042	eb 19		 jmp	 SHORT $LN30@push_back
$LN4@push_back:

; 989  : 			{	// push back a non-element
; 990  : 			if (this->_Mylast == this->_Myend)

  00044	3b 4e 08	 cmp	 ecx, DWORD PTR [esi+8]
  00047	75 09		 jne	 SHORT $LN1@push_back

; 991  : 				_Reserve(1);

  00049	6a 01		 push	 1
  0004b	8b ce		 mov	 ecx, esi
  0004d	e8 00 00 00 00	 call	 ?_Reserve@?$vector@UFileDriveItem@@V?$allocator@UFileDriveItem@@@std@@@std@@IAEXI@Z ; std::vector<FileDriveItem,std::allocator<FileDriveItem> >::_Reserve
$LN1@push_back:

; 992  : 			_Orphan_range(this->_Mylast, this->_Mylast);
; 993  : 			_Cons_val(this->_Alval,
; 994  : 				this->_Mylast,
; 995  : 				_Val);

  00052	57		 push	 edi
  00053	ff 76 04	 push	 DWORD PTR [esi+4]
  00056	e8 00 00 00 00	 call	 ??$_Construct@UFileDriveItem@@ABU1@@std@@YAXPAUFileDriveItem@@ABU1@@Z ; std::_Construct<FileDriveItem,FileDriveItem const &>
  0005b	59		 pop	 ecx
  0005c	59		 pop	 ecx
$LN30@push_back:

; 996  : 			++this->_Mylast;

  0005d	83 46 04 14	 add	 DWORD PTR [esi+4], 20	; 00000014H
  00061	5f		 pop	 edi
  00062	5e		 pop	 esi

; 997  : 			}
; 998  : 		}

  00063	5d		 pop	 ebp
  00064	c2 04 00	 ret	 4
?push_back@?$vector@UFileDriveItem@@V?$allocator@UFileDriveItem@@@std@@@std@@QAEXABUFileDriveItem@@@Z ENDP ; std::vector<FileDriveItem,std::allocator<FileDriveItem> >::push_back
_TEXT	ENDS
PUBLIC	?clear@?$vector@UFileDriveItem@@V?$allocator@UFileDriveItem@@@std@@@std@@QAEXXZ ; std::vector<FileDriveItem,std::allocator<FileDriveItem> >::clear
; Function compile flags: /Ogsp
;	COMDAT ?clear@?$vector@UFileDriveItem@@V?$allocator@UFileDriveItem@@@std@@@std@@QAEXXZ
_TEXT	SEGMENT
$T519751 = -4						; size = 4
?clear@?$vector@UFileDriveItem@@V?$allocator@UFileDriveItem@@@std@@@std@@QAEXXZ PROC ; std::vector<FileDriveItem,std::allocator<FileDriveItem> >::clear, COMDAT
; _this$ = ecx

; 1217 : 		{	// erase all

  00000	55		 push	 ebp
  00001	8b ec		 mov	 ebp, esp
  00003	51		 push	 ecx

; 1218 : 		erase(begin(), end());

  00004	8b 41 04	 mov	 eax, DWORD PTR [ecx+4]
  00007	8b 11		 mov	 edx, DWORD PTR [ecx]
  00009	50		 push	 eax
  0000a	52		 push	 edx
  0000b	8d 45 fc	 lea	 eax, DWORD PTR $T519751[ebp]
  0000e	50		 push	 eax
  0000f	e8 00 00 00 00	 call	 ?erase@?$vector@UFileDriveItem@@V?$allocator@UFileDriveItem@@@std@@@std@@QAE?AV?$_Vector_iterator@V?$_Vector_val@UFileDriveItem@@V?$allocator@UFileDriveItem@@@std@@@std@@@2@V?$_Vector_const_iterator@V?$_Vector_val@UFileDriveItem@@V?$allocator@UFileDriveItem@@@std@@@std@@@2@0@Z ; std::vector<FileDriveItem,std::allocator<FileDriveItem> >::erase

; 1219 : 		}

  00014	c9		 leave
  00015	c3		 ret	 0
?clear@?$vector@UFileDriveItem@@V?$allocator@UFileDriveItem@@@std@@@std@@QAEXXZ ENDP ; std::vector<FileDriveItem,std::allocator<FileDriveItem> >::clear
_TEXT	ENDS
PUBLIC	??1?$vector@UFileInfo@FileListWnd@@V?$allocator@UFileInfo@FileListWnd@@@std@@@std@@QAE@XZ ; std::vector<FileListWnd::FileInfo,std::allocator<FileListWnd::FileInfo> >::~vector<FileListWnd::FileInfo,std::allocator<FileListWnd::FileInfo> >
; Function compile flags: /Ogsp
;	COMDAT ??1?$vector@UFileInfo@FileListWnd@@V?$allocator@UFileInfo@FileListWnd@@@std@@@std@@QAE@XZ
_TEXT	SEGMENT
??1?$vector@UFileInfo@FileListWnd@@V?$allocator@UFileInfo@FileListWnd@@@std@@@std@@QAE@XZ PROC ; std::vector<FileListWnd::FileInfo,std::allocator<FileListWnd::FileInfo> >::~vector<FileListWnd::FileInfo,std::allocator<FileListWnd::FileInfo> >, COMDAT
; _this$ = ecx

; 705  : 		_Tidy();

  00000	e9 00 00 00 00	 jmp	 ?_Tidy@?$vector@UFileInfo@FileListWnd@@V?$allocator@UFileInfo@FileListWnd@@@std@@@std@@IAEXXZ ; std::vector<FileListWnd::FileInfo,std::allocator<FileListWnd::FileInfo> >::_Tidy
??1?$vector@UFileInfo@FileListWnd@@V?$allocator@UFileInfo@FileListWnd@@@std@@@std@@QAE@XZ ENDP ; std::vector<FileListWnd::FileInfo,std::allocator<FileListWnd::FileInfo> >::~vector<FileListWnd::FileInfo,std::allocator<FileListWnd::FileInfo> >
_TEXT	ENDS
PUBLIC	?clear@?$vector@UFileInfo@FileListWnd@@V?$allocator@UFileInfo@FileListWnd@@@std@@@std@@QAEXXZ ; std::vector<FileListWnd::FileInfo,std::allocator<FileListWnd::FileInfo> >::clear
; Function compile flags: /Ogsp
;	COMDAT ?clear@?$vector@UFileInfo@FileListWnd@@V?$allocator@UFileInfo@FileListWnd@@@std@@@std@@QAEXXZ
_TEXT	SEGMENT
$T519815 = -4						; size = 4
?clear@?$vector@UFileInfo@FileListWnd@@V?$allocator@UFileInfo@FileListWnd@@@std@@@std@@QAEXXZ PROC ; std::vector<FileListWnd::FileInfo,std::allocator<FileListWnd::FileInfo> >::clear, COMDAT
; _this$ = ecx

; 1217 : 		{	// erase all

  00000	55		 push	 ebp
  00001	8b ec		 mov	 ebp, esp
  00003	51		 push	 ecx

; 1218 : 		erase(begin(), end());

  00004	8b 41 04	 mov	 eax, DWORD PTR [ecx+4]
  00007	8b 11		 mov	 edx, DWORD PTR [ecx]
  00009	50		 push	 eax
  0000a	52		 push	 edx
  0000b	8d 45 fc	 lea	 eax, DWORD PTR $T519815[ebp]
  0000e	50		 push	 eax
  0000f	e8 00 00 00 00	 call	 ?erase@?$vector@UFileInfo@FileListWnd@@V?$allocator@UFileInfo@FileListWnd@@@std@@@std@@QAE?AV?$_Vector_iterator@V?$_Vector_val@UFileInfo@FileListWnd@@V?$allocator@UFileInfo@FileListWnd@@@std@@@std@@@2@V?$_Vector_const_iterator@V?$_Vector_val@UFileInfo@FileListWnd@@V?$allocator@UFileInfo@FileListWnd@@@std@@@std@@@2@0@Z ; std::vector<FileListWnd::FileInfo,std::allocator<FileListWnd::FileInfo> >::erase

; 1219 : 		}

  00014	c9		 leave
  00015	c3		 ret	 0
?clear@?$vector@UFileInfo@FileListWnd@@V?$allocator@UFileInfo@FileListWnd@@@std@@@std@@QAEXXZ ENDP ; std::vector<FileListWnd::FileInfo,std::allocator<FileListWnd::FileInfo> >::clear
_TEXT	ENDS
PUBLIC	?_Reserve@?$vector@VioHashString@@V?$allocator@VioHashString@@@std@@@std@@IAEXI@Z ; std::vector<ioHashString,std::allocator<ioHashString> >::_Reserve
; Function compile flags: /Ogsp
;	COMDAT ?_Reserve@?$vector@VioHashString@@V?$allocator@VioHashString@@@std@@@std@@IAEXI@Z
_TEXT	SEGMENT
__Count$ = 8						; size = 4
?_Reserve@?$vector@VioHashString@@V?$allocator@VioHashString@@@std@@@std@@IAEXI@Z PROC ; std::vector<ioHashString,std::allocator<ioHashString> >::_Reserve, COMDAT
; _this$ = ecx

; 1290 : 		{	// ensure room for _Count new elements, grow exponentially

  00000	55		 push	 ebp
  00001	8b ec		 mov	 ebp, esp
  00003	56		 push	 esi
  00004	8b f1		 mov	 esi, ecx

; 1291 : 		size_type _Size = size();

  00006	8b 0e		 mov	 ecx, DWORD PTR [esi]
  00008	8b 46 04	 mov	 eax, DWORD PTR [esi+4]
  0000b	2b c1		 sub	 eax, ecx

; 1292 : 		if (max_size() - _Count < _Size)

  0000d	ba ff ff ff 0f	 mov	 edx, 268435455		; 0fffffffH
  00012	2b 55 08	 sub	 edx, DWORD PTR __Count$[ebp]
  00015	c1 f8 04	 sar	 eax, 4
  00018	3b d0		 cmp	 edx, eax
  0001a	73 0b		 jae	 SHORT $LN4@Reserve@2

; 1293 : 			_Xlen();

  0001c	68 00 00 00 00	 push	 OFFSET ??_C@_0BD@OLBABOEK@vector?$DMT?$DO?5too?5long?$AA@
  00021	ff 15 00 00 00
	00		 call	 DWORD PTR __imp_?_Xlength_error@std@@YAXPBD@Z
$LN21@Reserve@2:
$LN4@Reserve@2:

; 1294 : 		else if ((_Size += _Count) <= capacity())

  00027	8b 56 08	 mov	 edx, DWORD PTR [esi+8]
  0002a	03 45 08	 add	 eax, DWORD PTR __Count$[ebp]
  0002d	2b d1		 sub	 edx, ecx
  0002f	c1 fa 04	 sar	 edx, 4
  00032	3b c2		 cmp	 eax, edx
  00034	76 10		 jbe	 SHORT $LN1@Reserve@2

; 1295 : 			;
; 1296 : 		else
; 1297 : 			reserve(_Grow_to(_Size));

  00036	50		 push	 eax
  00037	8b ce		 mov	 ecx, esi
  00039	e8 00 00 00 00	 call	 ?_Grow_to@?$vector@VioHashString@@V?$allocator@VioHashString@@@std@@@std@@IBEII@Z ; std::vector<ioHashString,std::allocator<ioHashString> >::_Grow_to
  0003e	50		 push	 eax
  0003f	8b ce		 mov	 ecx, esi
  00041	e8 00 00 00 00	 call	 ?reserve@?$vector@VioHashString@@V?$allocator@VioHashString@@@std@@@std@@QAEXI@Z ; std::vector<ioHashString,std::allocator<ioHashString> >::reserve
$LN1@Reserve@2:
  00046	5e		 pop	 esi

; 1298 : 		}

  00047	5d		 pop	 ebp
  00048	c2 04 00	 ret	 4
$LN20@Reserve@2:
?_Reserve@?$vector@VioHashString@@V?$allocator@VioHashString@@@std@@@std@@IAEXI@Z ENDP ; std::vector<ioHashString,std::allocator<ioHashString> >::_Reserve
_TEXT	ENDS
PUBLIC	?_Reserve@?$vector@UFileInfo@FileListWnd@@V?$allocator@UFileInfo@FileListWnd@@@std@@@std@@IAEXI@Z ; std::vector<FileListWnd::FileInfo,std::allocator<FileListWnd::FileInfo> >::_Reserve
; Function compile flags: /Ogsp
;	COMDAT ?_Reserve@?$vector@UFileInfo@FileListWnd@@V?$allocator@UFileInfo@FileListWnd@@@std@@@std@@IAEXI@Z
_TEXT	SEGMENT
__Count$ = 8						; size = 4
?_Reserve@?$vector@UFileInfo@FileListWnd@@V?$allocator@UFileInfo@FileListWnd@@@std@@@std@@IAEXI@Z PROC ; std::vector<FileListWnd::FileInfo,std::allocator<FileListWnd::FileInfo> >::_Reserve, COMDAT
; _this$ = ecx

; 1290 : 		{	// ensure room for _Count new elements, grow exponentially

  00000	55		 push	 ebp
  00001	8b ec		 mov	 ebp, esp
  00003	56		 push	 esi
  00004	8b f1		 mov	 esi, ecx

; 1291 : 		size_type _Size = size();

  00006	8b 0e		 mov	 ecx, DWORD PTR [esi]
  00008	8b 46 04	 mov	 eax, DWORD PTR [esi+4]
  0000b	2b c1		 sub	 eax, ecx
  0000d	57		 push	 edi
  0000e	99		 cdq
  0000f	6a 14		 push	 20			; 00000014H
  00011	5f		 pop	 edi
  00012	f7 ff		 idiv	 edi
  00014	8b f8		 mov	 edi, eax

; 1292 : 		if (max_size() - _Count < _Size)

  00016	b8 cc cc cc 0c	 mov	 eax, 214748364		; 0cccccccH
  0001b	2b 45 08	 sub	 eax, DWORD PTR __Count$[ebp]
  0001e	3b c7		 cmp	 eax, edi
  00020	73 0b		 jae	 SHORT $LN4@Reserve@3

; 1293 : 			_Xlen();

  00022	68 00 00 00 00	 push	 OFFSET ??_C@_0BD@OLBABOEK@vector?$DMT?$DO?5too?5long?$AA@
  00027	ff 15 00 00 00
	00		 call	 DWORD PTR __imp_?_Xlength_error@std@@YAXPBD@Z
$LN21@Reserve@3:
$LN4@Reserve@3:

; 1294 : 		else if ((_Size += _Count) <= capacity())

  0002d	8b 46 08	 mov	 eax, DWORD PTR [esi+8]
  00030	2b c1		 sub	 eax, ecx
  00032	6a 14		 push	 20			; 00000014H
  00034	99		 cdq
  00035	59		 pop	 ecx
  00036	f7 f9		 idiv	 ecx
  00038	03 7d 08	 add	 edi, DWORD PTR __Count$[ebp]
  0003b	3b f8		 cmp	 edi, eax
  0003d	76 10		 jbe	 SHORT $LN1@Reserve@3

; 1295 : 			;
; 1296 : 		else
; 1297 : 			reserve(_Grow_to(_Size));

  0003f	57		 push	 edi
  00040	8b ce		 mov	 ecx, esi
  00042	e8 00 00 00 00	 call	 ?_Grow_to@?$vector@UFileInfo@FileListWnd@@V?$allocator@UFileInfo@FileListWnd@@@std@@@std@@IBEII@Z ; std::vector<FileListWnd::FileInfo,std::allocator<FileListWnd::FileInfo> >::_Grow_to
  00047	50		 push	 eax
  00048	8b ce		 mov	 ecx, esi
  0004a	e8 00 00 00 00	 call	 ?reserve@?$vector@UFileInfo@FileListWnd@@V?$allocator@UFileInfo@FileListWnd@@@std@@@std@@QAEXI@Z ; std::vector<FileListWnd::FileInfo,std::allocator<FileListWnd::FileInfo> >::reserve
$LN1@Reserve@3:
  0004f	5f		 pop	 edi
  00050	5e		 pop	 esi

; 1298 : 		}

  00051	5d		 pop	 ebp
  00052	c2 04 00	 ret	 4
$LN20@Reserve@3:
?_Reserve@?$vector@UFileInfo@FileListWnd@@V?$allocator@UFileInfo@FileListWnd@@@std@@@std@@IAEXI@Z ENDP ; std::vector<FileListWnd::FileInfo,std::allocator<FileListWnd::FileInfo> >::_Reserve
_TEXT	ENDS
PUBLIC	??1?$vector@VioHashString@@V?$allocator@VioHashString@@@std@@@std@@QAE@XZ ; std::vector<ioHashString,std::allocator<ioHashString> >::~vector<ioHashString,std::allocator<ioHashString> >
; Function compile flags: /Ogsp
;	COMDAT ??1?$vector@VioHashString@@V?$allocator@VioHashString@@@std@@@std@@QAE@XZ
_TEXT	SEGMENT
??1?$vector@VioHashString@@V?$allocator@VioHashString@@@std@@@std@@QAE@XZ PROC ; std::vector<ioHashString,std::allocator<ioHashString> >::~vector<ioHashString,std::allocator<ioHashString> >, COMDAT
; _this$ = ecx

; 705  : 		_Tidy();

  00000	e9 00 00 00 00	 jmp	 ?_Tidy@?$vector@VioHashString@@V?$allocator@VioHashString@@@std@@@std@@IAEXXZ ; std::vector<ioHashString,std::allocator<ioHashString> >::_Tidy
??1?$vector@VioHashString@@V?$allocator@VioHashString@@@std@@@std@@QAE@XZ ENDP ; std::vector<ioHashString,std::allocator<ioHashString> >::~vector<ioHashString,std::allocator<ioHashString> >
; Function compile flags: /Ogsp
_TEXT	ENDS
;	COMDAT ??_GFileDriveListWnd@@UAEPAXI@Z
_TEXT	SEGMENT
___flags$ = 8						; size = 4
??_GFileDriveListWnd@@UAEPAXI@Z PROC			; FileDriveListWnd::`scalar deleting destructor', COMDAT
; _this$ = ecx
  00000	55		 push	 ebp
  00001	8b ec		 mov	 ebp, esp
  00003	56		 push	 esi
  00004	8b f1		 mov	 esi, ecx
  00006	e8 00 00 00 00	 call	 ??1FileDriveListWnd@@UAE@XZ ; FileDriveListWnd::~FileDriveListWnd
  0000b	f6 45 08 01	 test	 BYTE PTR ___flags$[ebp], 1
  0000f	74 07		 je	 SHORT $LN1@scalar@7
  00011	56		 push	 esi
  00012	e8 00 00 00 00	 call	 ??3@YAXPAX@Z		; operator delete
  00017	59		 pop	 ecx
$LN1@scalar@7:
  00018	8b c6		 mov	 eax, esi
  0001a	5e		 pop	 esi
  0001b	5d		 pop	 ebp
  0001c	c2 04 00	 ret	 4
??_GFileDriveListWnd@@UAEPAXI@Z ENDP			; FileDriveListWnd::`scalar deleting destructor'
_TEXT	ENDS
PUBLIC	??_C@_0BL@OKCFGOPH@FileDriveListWnd?3?3ShowList?$AA@ ; `string'
PUBLIC	?ShowList@FileDriveListWnd@@QAEXAAV?$vector@UFileDriveItem@@V?$allocator@UFileDriveItem@@@std@@@std@@@Z ; FileDriveListWnd::ShowList
EXTRN	?SetMsgBox@ioSP2GUIManager@@QAAXHPAVioWnd@@PBDZZ:PROC ; ioSP2GUIManager::SetMsgBox
;	COMDAT ??_C@_0BL@OKCFGOPH@FileDriveListWnd?3?3ShowList?$AA@
CONST	SEGMENT
??_C@_0BL@OKCFGOPH@FileDriveListWnd?3?3ShowList?$AA@ DB 'FileDriveListWnd'
	DB	'::ShowList', 00H				; `string'
; Function compile flags: /Ogsp
; File d:\lost saga for developer\youtube\tutorial\source\src\lsclient\gui\filelistwnd.cpp
CONST	ENDS
;	COMDAT ?ShowList@FileDriveListWnd@@QAEXAAV?$vector@UFileDriveItem@@V?$allocator@UFileDriveItem@@@std@@@std@@@Z
_TEXT	SEGMENT
__Cat$520172 = 8					; size = 1
$T520006 = 8						; size = 4
_rList$ = 8						; size = 4
?ShowList@FileDriveListWnd@@QAEXAAV?$vector@UFileDriveItem@@V?$allocator@UFileDriveItem@@@std@@@std@@@Z PROC ; FileDriveListWnd::ShowList, COMDAT
; _this$ = ecx

; 187  : {

  00000	55		 push	 ebp
  00001	8b ec		 mov	 ebp, esp
  00003	53		 push	 ebx
  00004	56		 push	 esi
  00005	57		 push	 edi

; 188  : 	if( rList.empty() )

  00006	8b 7d 08	 mov	 edi, DWORD PTR _rList$[ebp]
  00009	8b 07		 mov	 eax, DWORD PTR [edi]
  0000b	8b d9		 mov	 ebx, ecx
  0000d	3b 47 04	 cmp	 eax, DWORD PTR [edi+4]
  00010	75 30		 jne	 SHORT $LN1@ShowList

; 189  : 	{
; 190  : 		g_GUIMgr.SetMsgBox( MB_OK, NULL, STR(1) );

  00012	33 f6		 xor	 esi, esi
  00014	56		 push	 esi
  00015	6a 01		 push	 1
  00017	68 00 00 00 00	 push	 OFFSET ??_C@_00CNPNBAHC@?$AA@
  0001c	68 00 00 00 00	 push	 OFFSET ??_C@_0BL@OKCFGOPH@FileDriveListWnd?3?3ShowList?$AA@
  00021	ff 15 00 00 00
	00		 call	 DWORD PTR __imp_?GetSingleton@ioStringManager@@SAAAV1@XZ
  00027	8b c8		 mov	 ecx, eax
  00029	ff 15 00 00 00
	00		 call	 DWORD PTR __imp_?GetString@ioStringManager@@QAEPADPBD0HW4FileNamePrefix@1@@Z
  0002f	50		 push	 eax
  00030	56		 push	 esi
  00031	56		 push	 esi
  00032	e8 00 00 00 00	 call	 ?GetSingleton@ioSP2GUIManager@@SAAAV1@XZ ; ioSP2GUIManager::GetSingleton
  00037	50		 push	 eax
  00038	e8 00 00 00 00	 call	 ?SetMsgBox@ioSP2GUIManager@@QAAXHPAVioWnd@@PBDZZ ; ioSP2GUIManager::SetMsgBox
  0003d	83 c4 10	 add	 esp, 16			; 00000010H

; 191  : 		return;

  00040	eb 54		 jmp	 SHORT $LN2@ShowList
$LN1@ShowList:

; 192  : 	}
; 193  : 
; 194  : 	m_FileDriveItemList.clear();

  00042	8b 83 90 01 00
	00		 mov	 eax, DWORD PTR [ebx+400]
  00048	8b 8b 8c 01 00
	00		 mov	 ecx, DWORD PTR [ebx+396]
  0004e	50		 push	 eax
  0004f	51		 push	 ecx
  00050	8d 45 08	 lea	 eax, DWORD PTR $T520006[ebp]
  00053	50		 push	 eax
  00054	8d 8b 8c 01 00
	00		 lea	 ecx, DWORD PTR [ebx+396]
  0005a	e8 00 00 00 00	 call	 ?erase@?$vector@UFileDriveItem@@V?$allocator@UFileDriveItem@@@std@@@std@@QAE?AV?$_Vector_iterator@V?$_Vector_val@UFileDriveItem@@V?$allocator@UFileDriveItem@@@std@@@std@@@2@V?$_Vector_const_iterator@V?$_Vector_val@UFileDriveItem@@V?$allocator@UFileDriveItem@@@std@@@std@@@2@0@Z ; std::vector<FileDriveItem,std::allocator<FileDriveItem> >::erase

; 195  : 	m_FileDriveItemList.resize( rList.size() );

  0005f	8b 47 04	 mov	 eax, DWORD PTR [edi+4]
  00062	2b 07		 sub	 eax, DWORD PTR [edi]
  00064	6a 14		 push	 20			; 00000014H
  00066	59		 pop	 ecx
  00067	99		 cdq
  00068	f7 f9		 idiv	 ecx
  0006a	8d 8b 8c 01 00
	00		 lea	 ecx, DWORD PTR [ebx+396]
  00070	50		 push	 eax
  00071	e8 00 00 00 00	 call	 ?resize@?$vector@UFileDriveItem@@V?$allocator@UFileDriveItem@@@std@@@std@@QAEXI@Z ; std::vector<FileDriveItem,std::allocator<FileDriveItem> >::resize

; 196  : 	std::copy( rList.begin(), rList.end(), m_FileDriveItemList.begin() );

  00076	ff 75 08	 push	 DWORD PTR __Cat$520172[ebp]
  00079	8b 47 04	 mov	 eax, DWORD PTR [edi+4]
  0007c	ff b3 8c 01 00
	00		 push	 DWORD PTR [ebx+396]
  00082	8b 3f		 mov	 edi, DWORD PTR [edi]
  00084	50		 push	 eax
  00085	57		 push	 edi
  00086	e8 00 00 00 00	 call	 ??$_Copy_impl@PAUFileDriveItem@@PAU1@@std@@YAPAUFileDriveItem@@PAU1@00U_Nonscalar_ptr_iterator_tag@0@@Z ; std::_Copy_impl<FileDriveItem *,FileDriveItem *>
  0008b	83 c4 10	 add	 esp, 16			; 00000010H

; 197  : 	ShowWnd();

  0008e	8b cb		 mov	 ecx, ebx
  00090	ff 15 00 00 00
	00		 call	 DWORD PTR __imp_?ShowWnd@ioWnd@@QAEXXZ
$LN2@ShowList:
  00096	5f		 pop	 edi
  00097	5e		 pop	 esi
  00098	5b		 pop	 ebx

; 198  : }

  00099	5d		 pop	 ebp
  0009a	c2 04 00	 ret	 4
?ShowList@FileDriveListWnd@@QAEXAAV?$vector@UFileDriveItem@@V?$allocator@UFileDriveItem@@@std@@@std@@@Z ENDP ; FileDriveListWnd::ShowList
_TEXT	ENDS
PUBLIC	??_7FileListWnd@@6B@				; FileListWnd::`vftable'
PUBLIC	??0FileListWnd@@QAE@XZ				; FileListWnd::FileListWnd
PUBLIC	??_R4FileListWnd@@6B@				; FileListWnd::`RTTI Complete Object Locator'
PUBLIC	??_R0?AVFileListWnd@@@8				; FileListWnd `RTTI Type Descriptor'
PUBLIC	??_R3FileListWnd@@8				; FileListWnd::`RTTI Class Hierarchy Descriptor'
PUBLIC	??_R2FileListWnd@@8				; FileListWnd::`RTTI Base Class Array'
PUBLIC	??_R1A@?0A@EA@FileListWnd@@8			; FileListWnd::`RTTI Base Class Descriptor at (0,-1,0,64)'
PUBLIC	?iwm_command@FileListWnd@@UAEXPAVioWnd@@HK@Z	; FileListWnd::iwm_command
PUBLIC	?iwm_show@FileListWnd@@UAEXXZ			; FileListWnd::iwm_show
PUBLIC	?iwm_hide@FileListWnd@@UAEXXZ			; FileListWnd::iwm_hide
EXTRN	??_EFileListWnd@@UAEPAXI@Z:PROC			; FileListWnd::`vector deleting destructor'
;	COMDAT ??_R1A@?0A@EA@FileListWnd@@8
; File c:\program files (x86)\microsoft visual studio 10.0\vc\include\xmemory
rdata$r	SEGMENT
??_R1A@?0A@EA@FileListWnd@@8 DD FLAT:??_R0?AVFileListWnd@@@8 ; FileListWnd::`RTTI Base Class Descriptor at (0,-1,0,64)'
	DD	01H
	DD	00H
	DD	0ffffffffH
	DD	00H
	DD	040H
	DD	FLAT:??_R3FileListWnd@@8
rdata$r	ENDS
;	COMDAT ??_R2FileListWnd@@8
rdata$r	SEGMENT
??_R2FileListWnd@@8 DD FLAT:??_R1A@?0A@EA@FileListWnd@@8 ; FileListWnd::`RTTI Base Class Array'
	DD	FLAT:??_R1A@?0A@EA@ioWnd@@8
rdata$r	ENDS
;	COMDAT ??_R3FileListWnd@@8
rdata$r	SEGMENT
??_R3FileListWnd@@8 DD 00H				; FileListWnd::`RTTI Class Hierarchy Descriptor'
	DD	00H
	DD	02H
	DD	FLAT:??_R2FileListWnd@@8
rdata$r	ENDS
;	COMDAT ??_R0?AVFileListWnd@@@8
_DATA	SEGMENT
??_R0?AVFileListWnd@@@8 DD FLAT:??_7type_info@@6B@	; FileListWnd `RTTI Type Descriptor'
	DD	00H
	DB	'.?AVFileListWnd@@', 00H
_DATA	ENDS
;	COMDAT ??_R4FileListWnd@@6B@
rdata$r	SEGMENT
??_R4FileListWnd@@6B@ DD 00H				; FileListWnd::`RTTI Complete Object Locator'
	DD	00H
	DD	00H
	DD	FLAT:??_R0?AVFileListWnd@@@8
	DD	FLAT:??_R3FileListWnd@@8
rdata$r	ENDS
;	COMDAT ??_7FileListWnd@@6B@
CONST	SEGMENT
??_7FileListWnd@@6B@ DD FLAT:??_R4FileListWnd@@6B@	; FileListWnd::`vftable'
	DD	FLAT:?AddRenderFrame@ioWnd@@UAEXABVioHashString@@PAVioUIRenderFrame@@@Z
	DD	FLAT:?AddRenderImage@FileListWnd@@MAEXABVioHashString@@PAVioUIRenderImage@@@Z
	DD	FLAT:?AddTooltipHelp@ioWnd@@UAEXABVioHashString@@00@Z
	DD	FLAT:?ParseExtraInfo@ioWnd@@UAEXAAVioXMLElement@@@Z
	DD	FLAT:?AddNamedRenderImage@ioWnd@@UAEXABVioHashString@@PAVioUIRenderImage@@@Z
	DD	FLAT:?RemoveNamedRenderImage@ioWnd@@UAEXABVioHashString@@@Z
	DD	FLAT:?GetNamedRenderImage@ioWnd@@UBEPAVioUIRenderImage@@ABVioHashString@@@Z
	DD	FLAT:?SetWindowAlpha@ioWnd@@UAEXH@Z
	DD	FLAT:?SetActive@ioWnd@@UAEXXZ
	DD	FLAT:?SetInActive@ioWnd@@UAEXXZ
	DD	FLAT:?ClearElementImageList@ioWnd@@UAEXXZ
	DD	FLAT:?SetSize@ioWnd@@UAEXHH@Z
	DD	FLAT:?SetPositionToDefault@ioWnd@@UAEXHH_N0@Z
	DD	FLAT:?IsNeedProcess@ioWnd@@UBE_NXZ
	DD	FLAT:?IsCanMouseReaction@ioWnd@@UBE_NXZ
	DD	FLAT:?AddChild@ioWnd@@UAEXPAV1@@Z
	DD	FLAT:?DeleteChild@ioWnd@@UAEXK@Z
	DD	FLAT:?DeleteAllChild@ioWnd@@UAEXXZ
	DD	FLAT:?OnRenderShowAndHide@ioWnd@@MAE_NXZ
	DD	FLAT:?OnRenderShowAndHideByDefault@ioWnd@@MAE_NK@Z
	DD	FLAT:?OnRenderShowAndHideByTop@ioWnd@@MAE_NK@Z
	DD	FLAT:?OnRenderShowAndHideByDown@ioWnd@@MAE_NK@Z
	DD	FLAT:?OnRender@FileListWnd@@MAEXXZ
	DD	FLAT:?OnRenderAfterChild@ioWnd@@MAEXXZ
	DD	FLAT:?OnProcess@ioWnd@@MAEXM@Z
	DD	FLAT:?OnMouseProcess@ioWnd@@MAEXABVioMouse@@@Z
	DD	FLAT:?CheckFrameReSize@ioWnd@@MAEXHHHH@Z
	DD	FLAT:?RenderImageList@ioWnd@@MAEXHHW4UIRenderType@@@Z
	DD	FLAT:?iwm_create@FileListWnd@@UAEXXZ
	DD	FLAT:?iwm_destroy@ioWnd@@UAEXXZ
	DD	FLAT:?iwm_lbuttondown@ioWnd@@UAEXABVioMouse@@@Z
	DD	FLAT:?iwm_lbuttonup@ioWnd@@UAEXABVioMouse@@@Z
	DD	FLAT:?iwm_lbuttonDBLCLK@ioWnd@@UAEXABVioMouse@@@Z
	DD	FLAT:?iwm_rbuttondown@ioWnd@@UAEXABVioMouse@@@Z
	DD	FLAT:?iwm_rbuttonup@ioWnd@@UAEXABVioMouse@@@Z
	DD	FLAT:?iwm_command@FileListWnd@@UAEXPAVioWnd@@HK@Z
	DD	FLAT:?iwm_mouseover@ioWnd@@UAEXABVioMouse@@@Z
	DD	FLAT:?iwm_mousemove@ioWnd@@UAEXABVioMouse@@@Z
	DD	FLAT:?iwm_mouseleave@ioWnd@@UAEXABVioMouse@@@Z
	DD	FLAT:?iwm_vscroll@FileListWnd@@UAEXKH@Z
	DD	FLAT:?iwm_wheel@FileListWnd@@UAEXH@Z
	DD	FLAT:?iwm_show@FileListWnd@@UAEXXZ
	DD	FLAT:?iwm_hide@FileListWnd@@UAEXXZ
	DD	FLAT:?iwm_esc@FileListWnd@@UAE_NXZ
	DD	FLAT:?iwm_spacebar@ioWnd@@UAE_NXZ
	DD	FLAT:?iwm_gototop@ioWnd@@UAEXXZ
	DD	FLAT:?iwm_dragenter@ioWnd@@UAE?AW4IWDropEffect@@PAVioDragItem@@ABVioMouse@@@Z
	DD	FLAT:?iwm_dragover@ioWnd@@UAE?AW4IWDropEffect@@PAVioDragItem@@ABVioMouse@@@Z
	DD	FLAT:?iwm_dragleave@ioWnd@@UAEXXZ
	DD	FLAT:?iwm_dropitem@ioWnd@@UAE_NPAVioDragItem@@ABVioMouse@@PAV1@@Z
	DD	FLAT:?iwm_dropdone@ioWnd@@UAEXPAVioDragItem@@PAV1@_N@Z
	DD	FLAT:?IsEXType@ioWnd@@UBE_NXZ
	DD	FLAT:?GetWndType@ioWnd@@UBEKXZ
	DD	FLAT:?RenderWnd@ioWnd@@UAEXXZ
	DD	FLAT:?SetIDEX@ioWnd@@UAEXAAK_N@Z
	DD	FLAT:?ParseXML@ioWnd@@UAEXAAVioXMLElement@@@Z
	DD	FLAT:?GetHeaderFileName@ioWnd@@UAEPBDXZ
	DD	FLAT:?GetTemplateName@ioWnd@@UAEPBDXZ
	DD	FLAT:?GetDefClassName@ioWnd@@UBEPBDXZ
	DD	FLAT:?_Clone@ioWnd@@UAEPAV1@XZ
	DD	FLAT:?Copy@ioWnd@@UAEXPAV1@@Z
	DD	FLAT:?Save@ioWnd@@UAE_NAAVioXMLElement@@@Z
	DD	FLAT:?SetSaveData@ioWnd@@UAEXAAVioXMLElement@@@Z
	DD	FLAT:?SetPosX@ioWnd@@UAEXH@Z
	DD	FLAT:?SetPosY@ioWnd@@UAEXH@Z
	DD	FLAT:?SetWidth@ioWnd@@UAEXH@Z
	DD	FLAT:?SetHeight@ioWnd@@UAEXH@Z
	DD	FLAT:?GetNumFixedRenderFrame@ioWnd@@UBEHXZ
	DD	FLAT:?GetFixedRenderFrameType@ioWnd@@UAEPBDH@Z
	DD	FLAT:?GetRenderFrame@ioWnd@@UAEPAPAVioUIRenderElement@@PBD@Z
	DD	FLAT:?GetNumFixedRenderImage@ioWnd@@UBEHXZ
	DD	FLAT:?GetFixedRenderImageType@ioWnd@@UAEPBDH@Z
	DD	FLAT:?GetRenderImage@ioWnd@@UAEPAPAVioUIRenderElement@@PBD@Z
	DD	FLAT:?AddEffect@ioWnd@@UAEXABVioHashString@@PAVioUI3DEffectRender@@@Z
	DD	FLAT:?GetEffect@ioWnd@@UAEPAVioUI3DEffectRender@@VioHashString@@@Z
	DD	FLAT:??_EFileListWnd@@UAEPAXI@Z
CONST	ENDS
;	COMDAT xdata$x
xdata$x	SEGMENT
__unwindtable$??0FileListWnd@@QAE@XZ DD 0ffffffffH
	DD	FLAT:__unwindfunclet$??0FileListWnd@@QAE@XZ$0
	DD	00H
	DD	FLAT:__unwindfunclet$??0FileListWnd@@QAE@XZ$1
	DD	01H
	DD	FLAT:__unwindfunclet$??0FileListWnd@@QAE@XZ$2
__ehfuncinfo$??0FileListWnd@@QAE@XZ DD 019930522H
	DD	03H
	DD	FLAT:__unwindtable$??0FileListWnd@@QAE@XZ
	DD	2 DUP(00H)
	DD	2 DUP(00H)
	DD	00H
	DD	01H
; Function compile flags: /Ogsp
; File d:\lost saga for developer\youtube\tutorial\source\src\lsclient\gui\filelistwnd.cpp
xdata$x	ENDS
;	COMDAT ??0FileListWnd@@QAE@XZ
_TEXT	SEGMENT
_this$ = -16						; size = 4
__$EHRec$ = -12						; size = 12
??0FileListWnd@@QAE@XZ PROC				; FileListWnd::FileListWnd, COMDAT
; _this$ = ecx

; 383  : {

  00000	6a 04		 push	 4
  00002	b8 00 00 00 00	 mov	 eax, __ehhandler$??0FileListWnd@@QAE@XZ
  00007	e8 00 00 00 00	 call	 __EH_prolog3
  0000c	8b f1		 mov	 esi, ecx
  0000e	89 75 f0	 mov	 DWORD PTR _this$[ebp], esi
  00011	ff 15 00 00 00
	00		 call	 DWORD PTR __imp_??0ioWnd@@QAE@XZ
  00017	33 ff		 xor	 edi, edi
  00019	c7 06 00 00 00
	00		 mov	 DWORD PTR [esi], OFFSET ??_7FileListWnd@@6B@
  0001f	89 7d fc	 mov	 DWORD PTR __$EHRec$[ebp+8], edi
  00022	89 be 60 01 00
	00		 mov	 DWORD PTR [esi+352], edi
  00028	89 be 64 01 00
	00		 mov	 DWORD PTR [esi+356], edi
  0002e	89 be 68 01 00
	00		 mov	 DWORD PTR [esi+360], edi
  00034	8b 1d 00 00 00
	00		 mov	 ebx, DWORD PTR __imp_??0ioHashString@@QAE@XZ
  0003a	8d 8e 84 01 00
	00		 lea	 ecx, DWORD PTR [esi+388]
  00040	c6 45 fc 01	 mov	 BYTE PTR __$EHRec$[ebp+8], 1
  00044	ff d3		 call	 ebx
  00046	8d 8e 94 01 00
	00		 lea	 ecx, DWORD PTR [esi+404]
  0004c	c6 45 fc 02	 mov	 BYTE PTR __$EHRec$[ebp+8], 2
  00050	ff d3		 call	 ebx

; 384  : 	m_iCurPage = 0;

  00052	89 be 70 01 00
	00		 mov	 DWORD PTR [esi+368], edi

; 385  : 	m_iMaxPage = 0;

  00058	89 be 74 01 00
	00		 mov	 DWORD PTR [esi+372], edi

; 386  : 	m_pReturnWnd  = NULL;

  0005e	89 be 78 01 00
	00		 mov	 DWORD PTR [esi+376], edi

; 387  : 	m_eReturnType = RWT_NONE;

  00064	89 be 7c 01 00
	00		 mov	 DWORD PTR [esi+380], edi

; 388  : 	m_pDescIcon   = NULL;

  0006a	89 be 80 01 00
	00		 mov	 DWORD PTR [esi+384], edi

; 389  : }

  00070	8b c6		 mov	 eax, esi
  00072	e8 00 00 00 00	 call	 __EH_epilog3
  00077	c3		 ret	 0
_TEXT	ENDS
;	COMDAT text$x
text$x	SEGMENT
__unwindfunclet$??0FileListWnd@@QAE@XZ$0:
  00000	8b 4d f0	 mov	 ecx, DWORD PTR _this$[ebp]
  00003	ff 25 00 00 00
	00		 jmp	 DWORD PTR __imp_??1ioWnd@@UAE@XZ
__unwindfunclet$??0FileListWnd@@QAE@XZ$1:
  00009	8b 4d f0	 mov	 ecx, DWORD PTR _this$[ebp]
  0000c	81 c1 60 01 00
	00		 add	 ecx, 352		; 00000160H
  00012	e9 00 00 00 00	 jmp	 ??1?$vector@UFileInfo@FileListWnd@@V?$allocator@UFileInfo@FileListWnd@@@std@@@std@@QAE@XZ ; std::vector<FileListWnd::FileInfo,std::allocator<FileListWnd::FileInfo> >::~vector<FileListWnd::FileInfo,std::allocator<FileListWnd::FileInfo> >
__unwindfunclet$??0FileListWnd@@QAE@XZ$2:
  00017	8b 4d f0	 mov	 ecx, DWORD PTR _this$[ebp]
  0001a	81 c1 84 01 00
	00		 add	 ecx, 388		; 00000184H
  00020	ff 25 00 00 00
	00		 jmp	 DWORD PTR __imp_??1ioHashString@@QAE@XZ
__ehhandler$??0FileListWnd@@QAE@XZ:
  00026	8b 54 24 08	 mov	 edx, DWORD PTR [esp+8]
  0002a	8d 42 0c	 lea	 eax, DWORD PTR [edx+12]
  0002d	8b 4a ec	 mov	 ecx, DWORD PTR [edx-20]
  00030	33 c8		 xor	 ecx, eax
  00032	e8 00 00 00 00	 call	 @__security_check_cookie@4
  00037	b8 00 00 00 00	 mov	 eax, OFFSET __ehfuncinfo$??0FileListWnd@@QAE@XZ
  0003c	e9 00 00 00 00	 jmp	 ___CxxFrameHandler3
text$x	ENDS
??0FileListWnd@@QAE@XZ ENDP				; FileListWnd::FileListWnd
PUBLIC	?ClearFileList@FileListWnd@@IAEXXZ		; FileListWnd::ClearFileList
; Function compile flags: /Ogsp
;	COMDAT ?ClearFileList@FileListWnd@@IAEXXZ
_TEXT	SEGMENT
$T520363 = -4						; size = 4
?ClearFileList@FileListWnd@@IAEXXZ PROC			; FileListWnd::ClearFileList, COMDAT
; _this$ = ecx

; 471  : {

  00000	55		 push	 ebp
  00001	8b ec		 mov	 ebp, esp
  00003	51		 push	 ecx
  00004	53		 push	 ebx
  00005	56		 push	 esi

; 472  : 	for(FileInfoVector::iterator iter = m_vFileList.begin(); iter != m_vFileList.end(); ++iter)

  00006	8d b1 60 01 00
	00		 lea	 esi, DWORD PTR [ecx+352]
  0000c	57		 push	 edi
  0000d	8b 3e		 mov	 edi, DWORD PTR [esi]
  0000f	8d 99 64 01 00
	00		 lea	 ebx, DWORD PTR [ecx+356]
  00015	eb 0b		 jmp	 SHORT $LN56@ClearFileL
$LL16@ClearFileL:

; 473  : 	{
; 474  : 	    FileInfo &rFileInfo = *iter;
; 475  : 		rFileInfo.m_szFileName.Clear();

  00017	8b cf		 mov	 ecx, edi
  00019	ff 15 00 00 00
	00		 call	 DWORD PTR __imp_?Clear@ioHashString@@QAEXXZ
  0001f	83 c7 14	 add	 edi, 20			; 00000014H
$LN56@ClearFileL:

; 472  : 	for(FileInfoVector::iterator iter = m_vFileList.begin(); iter != m_vFileList.end(); ++iter)

  00022	3b 3b		 cmp	 edi, DWORD PTR [ebx]
  00024	75 f1		 jne	 SHORT $LL16@ClearFileL

; 476  : 	}
; 477  : 	m_vFileList.clear();

  00026	8b 46 04	 mov	 eax, DWORD PTR [esi+4]
  00029	8b 0e		 mov	 ecx, DWORD PTR [esi]
  0002b	50		 push	 eax
  0002c	51		 push	 ecx
  0002d	8d 45 fc	 lea	 eax, DWORD PTR $T520363[ebp]
  00030	50		 push	 eax
  00031	8b ce		 mov	 ecx, esi
  00033	e8 00 00 00 00	 call	 ?erase@?$vector@UFileInfo@FileListWnd@@V?$allocator@UFileInfo@FileListWnd@@@std@@@std@@QAE?AV?$_Vector_iterator@V?$_Vector_val@UFileInfo@FileListWnd@@V?$allocator@UFileInfo@FileListWnd@@@std@@@std@@@2@V?$_Vector_const_iterator@V?$_Vector_val@UFileInfo@FileListWnd@@V?$allocator@UFileInfo@FileListWnd@@@std@@@std@@@2@0@Z ; std::vector<FileListWnd::FileInfo,std::allocator<FileListWnd::FileInfo> >::erase
  00038	5f		 pop	 edi
  00039	5e		 pop	 esi
  0003a	5b		 pop	 ebx

; 478  : }

  0003b	c9		 leave
  0003c	c3		 ret	 0
?ClearFileList@FileListWnd@@IAEXXZ ENDP			; FileListWnd::ClearFileList
; Function compile flags: /Ogsp
_TEXT	ENDS
;	COMDAT ?iwm_hide@FileListWnd@@UAEXXZ
_TEXT	SEGMENT
?iwm_hide@FileListWnd@@UAEXXZ PROC			; FileListWnd::iwm_hide, COMDAT
; _this$ = ecx

; 573  : {

  00000	56		 push	 esi
  00001	57		 push	 edi
  00002	8b f1		 mov	 esi, ecx

; 574  : 	ClearFileList();

  00004	e8 00 00 00 00	 call	 ?ClearFileList@FileListWnd@@IAEXXZ ; FileListWnd::ClearFileList

; 575  : 	m_pReturnWnd = NULL;
; 576  : 	m_szRootFolder.Clear();

  00009	8b 3d 00 00 00
	00		 mov	 edi, DWORD PTR __imp_?Clear@ioHashString@@QAEXXZ
  0000f	83 a6 78 01 00
	00 00		 and	 DWORD PTR [esi+376], 0
  00016	8d 8e 84 01 00
	00		 lea	 ecx, DWORD PTR [esi+388]
  0001c	ff d7		 call	 edi

; 577  : 	m_szFileExt.Clear();

  0001e	8d 8e 94 01 00
	00		 lea	 ecx, DWORD PTR [esi+404]
  00024	ff d7		 call	 edi
  00026	5f		 pop	 edi
  00027	5e		 pop	 esi

; 578  : }

  00028	c3		 ret	 0
?iwm_hide@FileListWnd@@UAEXXZ ENDP			; FileListWnd::iwm_hide
_TEXT	ENDS
PUBLIC	?push_back@?$vector@VioHashString@@V?$allocator@VioHashString@@@std@@@std@@QAEX$$QAVioHashString@@@Z ; std::vector<ioHashString,std::allocator<ioHashString> >::push_back
; Function compile flags: /Ogsp
; File c:\program files (x86)\microsoft visual studio 10.0\vc\include\vector
;	COMDAT ?push_back@?$vector@VioHashString@@V?$allocator@VioHashString@@@std@@@std@@QAEX$$QAVioHashString@@@Z
_TEXT	SEGMENT
__Val$ = 8						; size = 4
?push_back@?$vector@VioHashString@@V?$allocator@VioHashString@@@std@@@std@@QAEX$$QAVioHashString@@@Z PROC ; std::vector<ioHashString,std::allocator<ioHashString> >::push_back, COMDAT
; _this$ = ecx

; 631  : 		{	// insert element at end

  00000	55		 push	 ebp
  00001	8b ec		 mov	 ebp, esp
  00003	56		 push	 esi
  00004	8b f1		 mov	 esi, ecx

; 632  : 		if (_Inside(_STD addressof(_Val)))

  00006	8b 46 04	 mov	 eax, DWORD PTR [esi+4]
  00009	57		 push	 edi
  0000a	8b 7d 08	 mov	 edi, DWORD PTR __Val$[ebp]
  0000d	3b f8		 cmp	 edi, eax
  0000f	73 1d		 jae	 SHORT $LN4@push_back@2
  00011	8b 0e		 mov	 ecx, DWORD PTR [esi]
  00013	3b cf		 cmp	 ecx, edi
  00015	77 17		 ja	 SHORT $LN4@push_back@2

; 633  : 			{	// push back an element
; 634  : 			size_type _Idx = _STD addressof(_Val) - this->_Myfirst;

  00017	2b f9		 sub	 edi, ecx

; 635  : 			if (this->_Mylast == this->_Myend)

  00019	3b 46 08	 cmp	 eax, DWORD PTR [esi+8]
  0001c	75 09		 jne	 SHORT $LN3@push_back@2

; 636  : 				_Reserve(1);

  0001e	6a 01		 push	 1
  00020	8b ce		 mov	 ecx, esi
  00022	e8 00 00 00 00	 call	 ?_Reserve@?$vector@VioHashString@@V?$allocator@VioHashString@@@std@@@std@@IAEXI@Z ; std::vector<ioHashString,std::allocator<ioHashString> >::_Reserve
$LN3@push_back@2:

; 637  : 			_Orphan_range(this->_Mylast, this->_Mylast);
; 638  : 			_Cons_val(this->_Alval,
; 639  : 				this->_Mylast,
; 640  : 				_STD forward<_Ty>(this->_Myfirst[_Idx]));

  00027	83 e7 f0	 and	 edi, -16		; fffffff0H
  0002a	03 3e		 add	 edi, DWORD PTR [esi]

; 641  : 			++this->_Mylast;
; 642  : 			}
; 643  : 		else

  0002c	eb 0e		 jmp	 SHORT $LN1@push_back@2
$LN4@push_back@2:

; 644  : 			{	// push back a non-element
; 645  : 			if (this->_Mylast == this->_Myend)

  0002e	3b 46 08	 cmp	 eax, DWORD PTR [esi+8]
  00031	75 09		 jne	 SHORT $LN1@push_back@2

; 646  : 				_Reserve(1);

  00033	6a 01		 push	 1
  00035	8b ce		 mov	 ecx, esi
  00037	e8 00 00 00 00	 call	 ?_Reserve@?$vector@VioHashString@@V?$allocator@VioHashString@@@std@@@std@@IAEXI@Z ; std::vector<ioHashString,std::allocator<ioHashString> >::_Reserve
$LN1@push_back@2:

; 647  : 			_Orphan_range(this->_Mylast, this->_Mylast);
; 648  : 			_Cons_val(this->_Alval,
; 649  : 				this->_Mylast,
; 650  : 				_STD forward<_Ty>(_Val));

  0003c	57		 push	 edi
  0003d	ff 76 04	 push	 DWORD PTR [esi+4]
  00040	8d 4e 0c	 lea	 ecx, DWORD PTR [esi+12]
  00043	e8 00 00 00 00	 call	 ?construct@?$allocator@VioHashString@@@std@@QAEXPAVioHashString@@$$QAV3@@Z ; std::allocator<ioHashString>::construct

; 651  : 			++this->_Mylast;

  00048	83 46 04 10	 add	 DWORD PTR [esi+4], 16	; 00000010H
  0004c	5f		 pop	 edi
  0004d	5e		 pop	 esi

; 652  : 			}
; 653  : 		}

  0004e	5d		 pop	 ebp
  0004f	c2 04 00	 ret	 4
?push_back@?$vector@VioHashString@@V?$allocator@VioHashString@@@std@@@std@@QAEX$$QAVioHashString@@@Z ENDP ; std::vector<ioHashString,std::allocator<ioHashString> >::push_back
_TEXT	ENDS
PUBLIC	?push_back@?$vector@UFileInfo@FileListWnd@@V?$allocator@UFileInfo@FileListWnd@@@std@@@std@@QAEXABUFileInfo@FileListWnd@@@Z ; std::vector<FileListWnd::FileInfo,std::allocator<FileListWnd::FileInfo> >::push_back
; Function compile flags: /Ogsp
;	COMDAT ?push_back@?$vector@UFileInfo@FileListWnd@@V?$allocator@UFileInfo@FileListWnd@@@std@@@std@@QAEXABUFileInfo@FileListWnd@@@Z
_TEXT	SEGMENT
__Val$ = 8						; size = 4
?push_back@?$vector@UFileInfo@FileListWnd@@V?$allocator@UFileInfo@FileListWnd@@@std@@@std@@QAEXABUFileInfo@FileListWnd@@@Z PROC ; std::vector<FileListWnd::FileInfo,std::allocator<FileListWnd::FileInfo> >::push_back, COMDAT
; _this$ = ecx

; 976  : 		{	// insert element at end

  00000	55		 push	 ebp
  00001	8b ec		 mov	 ebp, esp
  00003	56		 push	 esi
  00004	8b f1		 mov	 esi, ecx

; 977  : 		if (_Inside(_STD addressof(_Val)))

  00006	8b 4e 04	 mov	 ecx, DWORD PTR [esi+4]
  00009	57		 push	 edi
  0000a	8b 7d 08	 mov	 edi, DWORD PTR __Val$[ebp]
  0000d	3b f9		 cmp	 edi, ecx
  0000f	73 33		 jae	 SHORT $LN4@push_back@3
  00011	8b 16		 mov	 edx, DWORD PTR [esi]
  00013	3b d7		 cmp	 edx, edi
  00015	77 2d		 ja	 SHORT $LN4@push_back@3

; 978  : 			{	// push back an element
; 979  : 			size_type _Idx = _STD addressof(_Val) - this->_Myfirst;

  00017	8b c7		 mov	 eax, edi
  00019	2b c2		 sub	 eax, edx
  0001b	6a 14		 push	 20			; 00000014H
  0001d	99		 cdq
  0001e	5f		 pop	 edi
  0001f	f7 ff		 idiv	 edi
  00021	8b f8		 mov	 edi, eax

; 980  : 			if (this->_Mylast == this->_Myend)

  00023	3b 4e 08	 cmp	 ecx, DWORD PTR [esi+8]
  00026	75 09		 jne	 SHORT $LN3@push_back@3

; 981  : 				_Reserve(1);

  00028	6a 01		 push	 1
  0002a	8b ce		 mov	 ecx, esi
  0002c	e8 00 00 00 00	 call	 ?_Reserve@?$vector@UFileInfo@FileListWnd@@V?$allocator@UFileInfo@FileListWnd@@@std@@@std@@IAEXI@Z ; std::vector<FileListWnd::FileInfo,std::allocator<FileListWnd::FileInfo> >::_Reserve
$LN3@push_back@3:

; 982  : 			_Orphan_range(this->_Mylast, this->_Mylast);
; 983  : 			_Cons_val(this->_Alval,
; 984  : 				this->_Mylast,
; 985  : 				this->_Myfirst[_Idx]);

  00031	6b ff 14	 imul	 edi, 20			; 00000014H
  00034	03 3e		 add	 edi, DWORD PTR [esi]
  00036	8d 4e 0c	 lea	 ecx, DWORD PTR [esi+12]
  00039	57		 push	 edi
  0003a	ff 76 04	 push	 DWORD PTR [esi+4]
  0003d	e8 00 00 00 00	 call	 ??$construct@AAUFileInfo@FileListWnd@@@?$allocator@UFileInfo@FileListWnd@@@std@@QAEXPAUFileInfo@FileListWnd@@AAU23@@Z ; std::allocator<FileListWnd::FileInfo>::construct<FileListWnd::FileInfo &>

; 986  : 			++this->_Mylast;
; 987  : 			}
; 988  : 		else

  00042	eb 19		 jmp	 SHORT $LN30@push_back@3
$LN4@push_back@3:

; 989  : 			{	// push back a non-element
; 990  : 			if (this->_Mylast == this->_Myend)

  00044	3b 4e 08	 cmp	 ecx, DWORD PTR [esi+8]
  00047	75 09		 jne	 SHORT $LN1@push_back@3

; 991  : 				_Reserve(1);

  00049	6a 01		 push	 1
  0004b	8b ce		 mov	 ecx, esi
  0004d	e8 00 00 00 00	 call	 ?_Reserve@?$vector@UFileInfo@FileListWnd@@V?$allocator@UFileInfo@FileListWnd@@@std@@@std@@IAEXI@Z ; std::vector<FileListWnd::FileInfo,std::allocator<FileListWnd::FileInfo> >::_Reserve
$LN1@push_back@3:

; 992  : 			_Orphan_range(this->_Mylast, this->_Mylast);
; 993  : 			_Cons_val(this->_Alval,
; 994  : 				this->_Mylast,
; 995  : 				_Val);

  00052	57		 push	 edi
  00053	ff 76 04	 push	 DWORD PTR [esi+4]
  00056	e8 00 00 00 00	 call	 ??$_Construct@UFileInfo@FileListWnd@@ABU12@@std@@YAXPAUFileInfo@FileListWnd@@ABU12@@Z ; std::_Construct<FileListWnd::FileInfo,FileListWnd::FileInfo const &>
  0005b	59		 pop	 ecx
  0005c	59		 pop	 ecx
$LN30@push_back@3:

; 996  : 			++this->_Mylast;

  0005d	83 46 04 14	 add	 DWORD PTR [esi+4], 20	; 00000014H
  00061	5f		 pop	 edi
  00062	5e		 pop	 esi

; 997  : 			}
; 998  : 		}

  00063	5d		 pop	 ebp
  00064	c2 04 00	 ret	 4
?push_back@?$vector@UFileInfo@FileListWnd@@V?$allocator@UFileInfo@FileListWnd@@@std@@@std@@QAEXABUFileInfo@FileListWnd@@@Z ENDP ; std::vector<FileListWnd::FileInfo,std::allocator<FileListWnd::FileInfo> >::push_back
_TEXT	ENDS
PUBLIC	??1FileListWnd@@UAE@XZ				; FileListWnd::~FileListWnd
;	COMDAT xdata$x
xdata$x	SEGMENT
__unwindtable$??1FileListWnd@@UAE@XZ DD 0ffffffffH
	DD	FLAT:__unwindfunclet$??1FileListWnd@@UAE@XZ$0
	DD	00H
	DD	FLAT:__unwindfunclet$??1FileListWnd@@UAE@XZ$1
	DD	01H
	DD	FLAT:__unwindfunclet$??1FileListWnd@@UAE@XZ$2
	DD	02H
	DD	FLAT:__unwindfunclet$??1FileListWnd@@UAE@XZ$3
__ehfuncinfo$??1FileListWnd@@UAE@XZ DD 019930522H
	DD	04H
	DD	FLAT:__unwindtable$??1FileListWnd@@UAE@XZ
	DD	2 DUP(00H)
	DD	2 DUP(00H)
	DD	00H
	DD	01H
; Function compile flags: /Ogsp
; File d:\lost saga for developer\youtube\tutorial\source\src\lsclient\gui\filelistwnd.cpp
xdata$x	ENDS
;	COMDAT ??1FileListWnd@@UAE@XZ
_TEXT	SEGMENT
_this$ = -16						; size = 4
__$EHRec$ = -12						; size = 12
??1FileListWnd@@UAE@XZ PROC				; FileListWnd::~FileListWnd, COMDAT
; _this$ = ecx

; 392  : {

  00000	6a 04		 push	 4
  00002	b8 00 00 00 00	 mov	 eax, __ehhandler$??1FileListWnd@@UAE@XZ
  00007	e8 00 00 00 00	 call	 __EH_prolog3
  0000c	8b f1		 mov	 esi, ecx
  0000e	89 75 f0	 mov	 DWORD PTR _this$[ebp], esi
  00011	c7 06 00 00 00
	00		 mov	 DWORD PTR [esi], OFFSET ??_7FileListWnd@@6B@
  00017	c7 45 fc 03 00
	00 00		 mov	 DWORD PTR __$EHRec$[ebp+8], 3

; 393  : 	ClearFileList();

  0001e	e8 00 00 00 00	 call	 ?ClearFileList@FileListWnd@@IAEXXZ ; FileListWnd::ClearFileList

; 394  : 	m_pReturnWnd = NULL;
; 395  : 	SAFEDELETE( m_pDescIcon );

  00023	8b 8e 80 01 00
	00		 mov	 ecx, DWORD PTR [esi+384]
  00029	83 a6 78 01 00
	00 00		 and	 DWORD PTR [esi+376], 0
  00030	85 c9		 test	 ecx, ecx
  00032	74 0e		 je	 SHORT $LN1@FileListWn
  00034	8b 01		 mov	 eax, DWORD PTR [ecx]
  00036	6a 01		 push	 1
  00038	ff 50 40	 call	 DWORD PTR [eax+64]
  0003b	83 a6 80 01 00
	00 00		 and	 DWORD PTR [esi+384], 0
$LN1@FileListWn:

; 396  : }

  00042	8b 3d 00 00 00
	00		 mov	 edi, DWORD PTR __imp_??1ioHashString@@QAE@XZ
  00048	8d 8e 94 01 00
	00		 lea	 ecx, DWORD PTR [esi+404]
  0004e	c6 45 fc 02	 mov	 BYTE PTR __$EHRec$[ebp+8], 2
  00052	ff d7		 call	 edi
  00054	8d 8e 84 01 00
	00		 lea	 ecx, DWORD PTR [esi+388]
  0005a	c6 45 fc 01	 mov	 BYTE PTR __$EHRec$[ebp+8], 1
  0005e	ff d7		 call	 edi
  00060	8d 8e 60 01 00
	00		 lea	 ecx, DWORD PTR [esi+352]
  00066	c6 45 fc 00	 mov	 BYTE PTR __$EHRec$[ebp+8], 0
  0006a	e8 00 00 00 00	 call	 ?_Tidy@?$vector@UFileInfo@FileListWnd@@V?$allocator@UFileInfo@FileListWnd@@@std@@@std@@IAEXXZ ; std::vector<FileListWnd::FileInfo,std::allocator<FileListWnd::FileInfo> >::_Tidy
  0006f	83 4d fc ff	 or	 DWORD PTR __$EHRec$[ebp+8], -1
  00073	8b ce		 mov	 ecx, esi
  00075	ff 15 00 00 00
	00		 call	 DWORD PTR __imp_??1ioWnd@@UAE@XZ
  0007b	e8 00 00 00 00	 call	 __EH_epilog3
  00080	c3		 ret	 0
_TEXT	ENDS
;	COMDAT text$x
text$x	SEGMENT
__unwindfunclet$??1FileListWnd@@UAE@XZ$0:
  00000	8b 4d f0	 mov	 ecx, DWORD PTR _this$[ebp]
  00003	ff 25 00 00 00
	00		 jmp	 DWORD PTR __imp_??1ioWnd@@UAE@XZ
__unwindfunclet$??1FileListWnd@@UAE@XZ$1:
  00009	8b 4d f0	 mov	 ecx, DWORD PTR _this$[ebp]
  0000c	81 c1 60 01 00
	00		 add	 ecx, 352		; 00000160H
  00012	e9 00 00 00 00	 jmp	 ??1?$vector@UFileInfo@FileListWnd@@V?$allocator@UFileInfo@FileListWnd@@@std@@@std@@QAE@XZ ; std::vector<FileListWnd::FileInfo,std::allocator<FileListWnd::FileInfo> >::~vector<FileListWnd::FileInfo,std::allocator<FileListWnd::FileInfo> >
__unwindfunclet$??1FileListWnd@@UAE@XZ$2:
  00017	8b 4d f0	 mov	 ecx, DWORD PTR _this$[ebp]
  0001a	81 c1 84 01 00
	00		 add	 ecx, 388		; 00000184H
  00020	ff 25 00 00 00
	00		 jmp	 DWORD PTR __imp_??1ioHashString@@QAE@XZ
__unwindfunclet$??1FileListWnd@@UAE@XZ$3:
  00026	8b 4d f0	 mov	 ecx, DWORD PTR _this$[ebp]
  00029	81 c1 94 01 00
	00		 add	 ecx, 404		; 00000194H
  0002f	ff 25 00 00 00
	00		 jmp	 DWORD PTR __imp_??1ioHashString@@QAE@XZ
__ehhandler$??1FileListWnd@@UAE@XZ:
  00035	8b 54 24 08	 mov	 edx, DWORD PTR [esp+8]
  00039	8d 42 0c	 lea	 eax, DWORD PTR [edx+12]
  0003c	8b 4a ec	 mov	 ecx, DWORD PTR [edx-20]
  0003f	33 c8		 xor	 ecx, eax
  00041	e8 00 00 00 00	 call	 @__security_check_cookie@4
  00046	b8 00 00 00 00	 mov	 eax, OFFSET __ehfuncinfo$??1FileListWnd@@UAE@XZ
  0004b	e9 00 00 00 00	 jmp	 ___CxxFrameHandler3
text$x	ENDS
??1FileListWnd@@UAE@XZ ENDP				; FileListWnd::~FileListWnd
PUBLIC	??_C@_02DJGKEECL@?4?4?$AA@			; `string'
PUBLIC	??_C@_01LFCBOECM@?4?$AA@			; `string'
PUBLIC	??_C@_06BNHEIDIH@?$CFs?2?$CK?4?$CK?$AA@		; `string'
PUBLIC	_szFileExt$GSCopy$
PUBLIC	?SetFileList@FileListWnd@@QAEXPBD0@Z		; FileListWnd::SetFileList
EXTRN	__imp__FindClose@4:PROC
EXTRN	__imp__FindNextFileA@8:PROC
EXTRN	__imp___splitpath:PROC
EXTRN	__imp__FindFirstFileA@8:PROC
EXTRN	__imp_?SetChildActive@ioWnd@@QAEXK@Z:PROC
EXTRN	__imp_?SetChildInActive@ioWnd@@QAEXK@Z:PROC
EXTRN	__imp_??4ioHashString@@QAEAAV0@PBD@Z:PROC
;	COMDAT ??_C@_02DJGKEECL@?4?4?$AA@
; File c:\program files (x86)\microsoft visual studio 10.0\vc\include\xutility
CONST	SEGMENT
??_C@_02DJGKEECL@?4?4?$AA@ DB '..', 00H			; `string'
CONST	ENDS
;	COMDAT ??_C@_01LFCBOECM@?4?$AA@
CONST	SEGMENT
??_C@_01LFCBOECM@?4?$AA@ DB '.', 00H			; `string'
CONST	ENDS
;	COMDAT ??_C@_06BNHEIDIH@?$CFs?2?$CK?4?$CK?$AA@
CONST	SEGMENT
??_C@_06BNHEIDIH@?$CFs?2?$CK?4?$CK?$AA@ DB '%s\*.*', 00H ; `string'
CONST	ENDS
;	COMDAT xdata$x
xdata$x	SEGMENT
__unwindtable$?SetFileList@FileListWnd@@QAEXPBD0@Z DD 0ffffffffH
	DD	FLAT:__unwindfunclet$?SetFileList@FileListWnd@@QAEXPBD0@Z$0
__ehfuncinfo$?SetFileList@FileListWnd@@QAEXPBD0@Z DD 019930522H
	DD	01H
	DD	FLAT:__unwindtable$?SetFileList@FileListWnd@@QAEXPBD0@Z
	DD	2 DUP(00H)
	DD	2 DUP(00H)
	DD	00H
	DD	01H
; Function compile flags: /Ogsp
; File d:\lost saga for developer\youtube\tutorial\source\src\lsclient\gui\filelistwnd.cpp
xdata$x	ENDS
;	COMDAT ?SetFileList@FileListWnd@@QAEXPBD0@Z
_TEXT	SEGMENT
_kInfo$509760 = -1140					; size = 20
$T520509 = -1120					; size = 1
_szFileExt$GSCopy$ = -1120				; size = 4
_hSrch$ = -1120						; size = 4
_wfd$ = -1116						; size = 320
_szFindPath$ = -796					; size = 520
_szCurExt$509763 = -276					; size = 260
__$EHRec$ = -12						; size = 12
_szRootFolder$ = 8					; size = 4
_szFileExt$ = 12					; size = 4
?SetFileList@FileListWnd@@QAEXPBD0@Z PROC		; FileListWnd::SetFileList, COMDAT
; _this$ = ecx

; 415  : {

  00000	68 68 04 00 00	 push	 1128			; 00000468H
  00005	b8 00 00 00 00	 mov	 eax, __ehhandler$?SetFileList@FileListWnd@@QAEXPBD0@Z
  0000a	e8 00 00 00 00	 call	 __EH_prolog3_GS
  0000f	8b 45 0c	 mov	 eax, DWORD PTR _szFileExt$[ebp]
  00012	8b 7d 08	 mov	 edi, DWORD PTR _szRootFolder$[ebp]
  00015	8b d9		 mov	 ebx, ecx

; 424  : 
; 425  : 	HANDLE			hSrch;
; 426  : 	WIN32_FIND_DATA wfd;
; 427  : 	BOOL			bResult = TRUE;
; 428  : 
; 429  : 	char szFindPath[MAX_PATH*2]="";

  00017	89 85 a0 fb ff
	ff		 mov	 DWORD PTR _szFileExt$GSCopy$[ebp], eax
  0001d	e8 00 00 00 00	 call	 ?ClearFileList@FileListWnd@@IAEXXZ ; FileListWnd::ClearFileList
  00022	8b 35 00 00 00
	00		 mov	 esi, DWORD PTR __imp_??4ioHashString@@QAEAAV0@PBD@Z
  00028	57		 push	 edi
  00029	8d 8b 84 01 00
	00		 lea	 ecx, DWORD PTR [ebx+388]
  0002f	ff d6		 call	 esi
  00031	ff b5 a0 fb ff
	ff		 push	 DWORD PTR _szFileExt$GSCopy$[ebp]
  00037	8d 8b 94 01 00
	00		 lea	 ecx, DWORD PTR [ebx+404]
  0003d	ff d6		 call	 esi
  0003f	8b c7		 mov	 eax, edi
  00041	8d 70 01	 lea	 esi, DWORD PTR [eax+1]
$LL44@SetFileLis:

; 416  : 	ClearFileList();
; 417  : 	m_szRootFolder = szRootFolder;
; 418  : 	m_szFileExt    = szFileExt;
; 419  : 
; 420  : 	if( strlen( szRootFolder ) == 2 ) // c:

  00044	8a 08		 mov	 cl, BYTE PTR [eax]
  00046	40		 inc	 eax
  00047	84 c9		 test	 cl, cl
  00049	75 f9		 jne	 SHORT $LL44@SetFileLis
  0004b	2b c6		 sub	 eax, esi

; 421  : 		SetChildInActive( ID_PARENT_FOLDER );

  0004d	6a 02		 push	 2
  0004f	8b cb		 mov	 ecx, ebx
  00051	83 f8 02	 cmp	 eax, 2
  00054	75 08		 jne	 SHORT $LN15@SetFileLis
  00056	ff 15 00 00 00
	00		 call	 DWORD PTR __imp_?SetChildInActive@ioWnd@@QAEXK@Z

; 422  : 	else

  0005c	eb 06		 jmp	 SHORT $LN14@SetFileLis
$LN15@SetFileLis:

; 423  : 		SetChildActive( ID_PARENT_FOLDER );

  0005e	ff 15 00 00 00
	00		 call	 DWORD PTR __imp_?SetChildActive@ioWnd@@QAEXK@Z
$LN14@SetFileLis:

; 424  : 
; 425  : 	HANDLE			hSrch;
; 426  : 	WIN32_FIND_DATA wfd;
; 427  : 	BOOL			bResult = TRUE;
; 428  : 
; 429  : 	char szFindPath[MAX_PATH*2]="";

  00064	68 07 02 00 00	 push	 519			; 00000207H
  00069	33 f6		 xor	 esi, esi
  0006b	8d 85 e5 fc ff
	ff		 lea	 eax, DWORD PTR _szFindPath$[ebp+1]
  00071	56		 push	 esi
  00072	50		 push	 eax
  00073	c6 85 e4 fc ff
	ff 00		 mov	 BYTE PTR _szFindPath$[ebp], 0
  0007a	e8 00 00 00 00	 call	 _memset

; 430  : 	StringCbPrintf( szFindPath, sizeof(szFindPath), "%s\\*.*", szRootFolder );

  0007f	57		 push	 edi
  00080	68 00 00 00 00	 push	 OFFSET ??_C@_06BNHEIDIH@?$CFs?2?$CK?4?$CK?$AA@
  00085	8d 85 e4 fc ff
	ff		 lea	 eax, DWORD PTR _szFindPath$[ebp]
  0008b	68 08 02 00 00	 push	 520			; 00000208H
  00090	50		 push	 eax
  00091	e8 00 00 00 00	 call	 ?StringCbPrintfA@@YAJPADIPBDZZ ; StringCbPrintfA
  00096	83 c4 1c	 add	 esp, 28			; 0000001cH

; 431  : 	hSrch = FindFirstFile(szFindPath, &wfd);

  00099	8d 85 a4 fb ff
	ff		 lea	 eax, DWORD PTR _wfd$[ebp]
  0009f	50		 push	 eax
  000a0	8d 85 e4 fc ff
	ff		 lea	 eax, DWORD PTR _szFindPath$[ebp]
  000a6	50		 push	 eax
  000a7	ff 15 00 00 00
	00		 call	 DWORD PTR __imp__FindFirstFileA@8
  000ad	89 85 a0 fb ff
	ff		 mov	 DWORD PTR _hSrch$[ebp], eax

; 432  : 
; 433  : 	if(hSrch == INVALID_HANDLE_VALUE)

  000b3	83 f8 ff	 cmp	 eax, -1
  000b6	0f 84 35 01 00
	00		 je	 $LN16@SetFileLis
  000bc	eb 02		 jmp	 SHORT $LN12@SetFileLis
$LL48@SetFileLis:
  000be	33 f6		 xor	 esi, esi
$LN12@SetFileLis:

; 434  : 		return;
; 435  : 
; 436  : 	while(bResult)
; 437  : 	{
; 438  : 		FileInfo kInfo;

  000c0	8d 8d 8c fb ff
	ff		 lea	 ecx, DWORD PTR _kInfo$509760[ebp]
  000c6	ff 15 00 00 00
	00		 call	 DWORD PTR __imp_??0ioHashString@@QAE@XZ

; 439  : 		if( (wfd.dwFileAttributes & FILE_ATTRIBUTE_DIRECTORY) )

  000cc	8a 85 a4 fb ff
	ff		 mov	 al, BYTE PTR _wfd$[ebp]
  000d2	c0 e8 04	 shr	 al, 4
  000d5	24 01		 and	 al, 1

; 440  : 			kInfo.m_bFolder = true;
; 441  : 		else
; 442  : 			kInfo.m_bFolder = false;
; 443  : 
; 444  : 		char szCurExt[MAX_PATH]="";

  000d7	68 03 01 00 00	 push	 259			; 00000103H
  000dc	88 85 9c fb ff
	ff		 mov	 BYTE PTR _kInfo$509760[ebp+16], al
  000e2	8d 85 ed fe ff
	ff		 lea	 eax, DWORD PTR _szCurExt$509763[ebp+1]
  000e8	56		 push	 esi
  000e9	50		 push	 eax
  000ea	89 75 fc	 mov	 DWORD PTR __$EHRec$[ebp+8], esi
  000ed	c6 85 ec fe ff
	ff 00		 mov	 BYTE PTR _szCurExt$509763[ebp], 0
  000f4	e8 00 00 00 00	 call	 _memset

; 445  : 		_splitpath( wfd.cFileName, NULL, NULL, NULL, szCurExt );

  000f9	8d 85 ec fe ff
	ff		 lea	 eax, DWORD PTR _szCurExt$509763[ebp]
  000ff	50		 push	 eax
  00100	56		 push	 esi
  00101	56		 push	 esi
  00102	8d 85 d0 fb ff
	ff		 lea	 eax, DWORD PTR _wfd$[ebp+44]
  00108	56		 push	 esi
  00109	50		 push	 eax
  0010a	ff 15 00 00 00
	00		 call	 DWORD PTR __imp___splitpath

; 446  : 
; 447  : 		bool bRight = true;
; 448  : 		if( strcmp( wfd.cFileName, "") == 0 )

  00110	33 c9		 xor	 ecx, ecx
  00112	83 c4 20	 add	 esp, 32			; 00000020H
  00115	41		 inc	 ecx
  00116	bf 00 00 00 00	 mov	 edi, OFFSET ??_C@_00CNPNBAHC@?$AA@
  0011b	8d b5 d0 fb ff
	ff		 lea	 esi, DWORD PTR _wfd$[ebp+44]
  00121	33 c0		 xor	 eax, eax
  00123	f3 a6		 repe cmpsb

; 449  : 			bRight = false;

  00125	74 75		 je	 SHORT $LN1@SetFileLis

; 450  : 		else if( strcmp( wfd.cFileName, ".") == 0 )

  00127	6a 02		 push	 2
  00129	bf 00 00 00 00	 mov	 edi, OFFSET ??_C@_01LFCBOECM@?4?$AA@
  0012e	8d b5 d0 fb ff
	ff		 lea	 esi, DWORD PTR _wfd$[ebp+44]
  00134	59		 pop	 ecx
  00135	33 c0		 xor	 eax, eax
  00137	f3 a6		 repe cmpsb

; 451  : 			bRight = false;

  00139	74 61		 je	 SHORT $LN1@SetFileLis

; 452  : 		else if( strcmp( wfd.cFileName, "..") == 0 )

  0013b	6a 03		 push	 3
  0013d	bf 00 00 00 00	 mov	 edi, OFFSET ??_C@_02DJGKEECL@?4?4?$AA@
  00142	8d b5 d0 fb ff
	ff		 lea	 esi, DWORD PTR _wfd$[ebp+44]
  00148	59		 pop	 ecx
  00149	33 c0		 xor	 eax, eax
  0014b	f3 a6		 repe cmpsb

; 453  : 			bRight = false;

  0014d	74 4d		 je	 SHORT $LN1@SetFileLis

; 454  : 		else if( kInfo.m_bFolder == false && stricmp( m_szFileExt.c_str(), &szCurExt[1] ) != 0 ) // szCurExt .Wav   . 

  0014f	38 85 9c fb ff
	ff		 cmp	 BYTE PTR _kInfo$509760[ebp+16], al
  00155	75 20		 jne	 SHORT $LN43@SetFileLis
  00157	8d 85 ed fe ff
	ff		 lea	 eax, DWORD PTR _szCurExt$509763[ebp+1]
  0015d	50		 push	 eax
  0015e	8d 8b 94 01 00
	00		 lea	 ecx, DWORD PTR [ebx+404]
  00164	ff 15 00 00 00
	00		 call	 DWORD PTR __imp_?c_str@ioHashString@@QBEPBDXZ
  0016a	50		 push	 eax
  0016b	ff 15 00 00 00
	00		 call	 DWORD PTR __imp__stricmp
  00171	59		 pop	 ecx
  00172	59		 pop	 ecx
  00173	85 c0		 test	 eax, eax

; 455  : 			bRight = false;
; 456  : 
; 457  : 		if( bRight )

  00175	75 25		 jne	 SHORT $LN1@SetFileLis
$LN43@SetFileLis:

; 458  : 		{
; 459  : 			kInfo.m_szFileName = wfd.cFileName;

  00177	8d 85 d0 fb ff
	ff		 lea	 eax, DWORD PTR _wfd$[ebp+44]
  0017d	50		 push	 eax
  0017e	8d 8d 8c fb ff
	ff		 lea	 ecx, DWORD PTR _kInfo$509760[ebp]
  00184	ff 15 00 00 00
	00		 call	 DWORD PTR __imp_??4ioHashString@@QAEAAV0@PBD@Z

; 460  : 			m_vFileList.push_back( kInfo );	

  0018a	8d 85 8c fb ff
	ff		 lea	 eax, DWORD PTR _kInfo$509760[ebp]
  00190	50		 push	 eax
  00191	8d 8b 60 01 00
	00		 lea	 ecx, DWORD PTR [ebx+352]
  00197	e8 00 00 00 00	 call	 ?push_back@?$vector@UFileInfo@FileListWnd@@V?$allocator@UFileInfo@FileListWnd@@@std@@@std@@QAEXABUFileInfo@FileListWnd@@@Z ; std::vector<FileListWnd::FileInfo,std::allocator<FileListWnd::FileInfo> >::push_back
$LN1@SetFileLis:

; 461  : 		}
; 462  : 
; 463  : 		bResult = FindNextFile(hSrch, &wfd);

  0019c	8d 85 a4 fb ff
	ff		 lea	 eax, DWORD PTR _wfd$[ebp]
  001a2	50		 push	 eax
  001a3	ff b5 a0 fb ff
	ff		 push	 DWORD PTR _hSrch$[ebp]
  001a9	ff 15 00 00 00
	00		 call	 DWORD PTR __imp__FindNextFileA@8

; 464  : 	}

  001af	83 4d fc ff	 or	 DWORD PTR __$EHRec$[ebp+8], -1
  001b3	8d 8d 8c fb ff
	ff		 lea	 ecx, DWORD PTR _kInfo$509760[ebp]
  001b9	8b f0		 mov	 esi, eax
  001bb	ff 15 00 00 00
	00		 call	 DWORD PTR __imp_??1ioHashString@@QAE@XZ
  001c1	85 f6		 test	 esi, esi
  001c3	0f 85 f5 fe ff
	ff		 jne	 $LL48@SetFileLis

; 465  : 	FindClose(hSrch);

  001c9	ff b5 a0 fb ff
	ff		 push	 DWORD PTR _hSrch$[ebp]
  001cf	ff 15 00 00 00
	00		 call	 DWORD PTR __imp__FindClose@4

; 466  : 
; 467  : 	std::sort( m_vFileList.begin(), m_vFileList.end(), FileListInfoSort() );

  001d5	8b 83 64 01 00
	00		 mov	 eax, DWORD PTR [ebx+356]
  001db	ff b5 a0 fb ff
	ff		 push	 DWORD PTR $T520509[ebp]
  001e1	8b 9b 60 01 00
	00		 mov	 ebx, DWORD PTR [ebx+352]
  001e7	50		 push	 eax
  001e8	53		 push	 ebx
  001e9	e8 00 00 00 00	 call	 ??$sort@V?$_Vector_iterator@V?$_Vector_val@UFileInfo@FileListWnd@@V?$allocator@UFileInfo@FileListWnd@@@std@@@std@@@std@@VFileListInfoSort@@@std@@YAXV?$_Vector_iterator@V?$_Vector_val@UFileInfo@FileListWnd@@V?$allocator@UFileInfo@FileListWnd@@@std@@@std@@@0@0VFileListInfoSort@@@Z ; std::sort<std::_Vector_iterator<std::_Vector_val<FileListWnd::FileInfo,std::allocator<FileListWnd::FileInfo> > >,FileListInfoSort>
  001ee	83 c4 0c	 add	 esp, 12			; 0000000cH
$LN16@SetFileLis:

; 468  : }

  001f1	e8 00 00 00 00	 call	 __EH_epilog3_GS
  001f6	c2 08 00	 ret	 8
_TEXT	ENDS
;	COMDAT text$x
text$x	SEGMENT
__unwindfunclet$?SetFileList@FileListWnd@@QAEXPBD0@Z$0:
  00000	8d 8d 8c fb ff
	ff		 lea	 ecx, DWORD PTR _kInfo$509760[ebp]
  00006	e9 00 00 00 00	 jmp	 ??1FileInfo@FileListWnd@@QAE@XZ
__ehhandler$?SetFileList@FileListWnd@@QAEXPBD0@Z:
  0000b	8b 54 24 08	 mov	 edx, DWORD PTR [esp+8]
  0000f	8d 42 0c	 lea	 eax, DWORD PTR [edx+12]
  00012	8b 8a 88 fb ff
	ff		 mov	 ecx, DWORD PTR [edx-1144]
  00018	33 c8		 xor	 ecx, eax
  0001a	e8 00 00 00 00	 call	 @__security_check_cookie@4
  0001f	8b 4a fc	 mov	 ecx, DWORD PTR [edx-4]
  00022	33 c8		 xor	 ecx, eax
  00024	e8 00 00 00 00	 call	 @__security_check_cookie@4
  00029	b8 00 00 00 00	 mov	 eax, OFFSET __ehfuncinfo$?SetFileList@FileListWnd@@QAEXPBD0@Z
  0002e	e9 00 00 00 00	 jmp	 ___CxxFrameHandler3
text$x	ENDS
?SetFileList@FileListWnd@@QAEXPBD0@Z ENDP		; FileListWnd::SetFileList
PUBLIC	??_C@_0BK@HEKPJLED@FileListWnd?3?3SetDriveList?$AA@ ; `string'
PUBLIC	?SetDriveList@FileListWnd@@IAEXAAV?$vector@UFileDriveItem@@V?$allocator@UFileDriveItem@@@std@@@std@@@Z ; FileListWnd::SetDriveList
EXTRN	__imp__GetLogicalDrives@0:PROC
;	COMDAT ??_C@_0BK@HEKPJLED@FileListWnd?3?3SetDriveList?$AA@
; File c:\program files (x86)\microsoft visual studio 10.0\vc\include\vector
CONST	SEGMENT
??_C@_0BK@HEKPJLED@FileListWnd?3?3SetDriveList?$AA@ DB 'FileListWnd::SetD'
	DB	'riveList', 00H				; `string'
CONST	ENDS
;	COMDAT xdata$x
xdata$x	SEGMENT
__ehfuncinfo$?SetDriveList@FileListWnd@@IAEXAAV?$vector@UFileDriveItem@@V?$allocator@UFileDriveItem@@@std@@@std@@@Z DD 019930522H
	DD	01cH
	DD	FLAT:__unwindtable$?SetDriveList@FileListWnd@@IAEXAAV?$vector@UFileDriveItem@@V?$allocator@UFileDriveItem@@@std@@@std@@@Z
	DD	2 DUP(00H)
	DD	2 DUP(00H)
	DD	00H
	DD	01H
__unwindtable$?SetDriveList@FileListWnd@@IAEXAAV?$vector@UFileDriveItem@@V?$allocator@UFileDriveItem@@@std@@@std@@@Z DD 0ffffffffH
	DD	FLAT:__unwindfunclet$?SetDriveList@FileListWnd@@IAEXAAV?$vector@UFileDriveItem@@V?$allocator@UFileDriveItem@@@std@@@std@@@Z$0
	DD	00H
	DD	FLAT:__unwindfunclet$?SetDriveList@FileListWnd@@IAEXAAV?$vector@UFileDriveItem@@V?$allocator@UFileDriveItem@@@std@@@std@@@Z$1
	DD	00H
	DD	FLAT:__unwindfunclet$?SetDriveList@FileListWnd@@IAEXAAV?$vector@UFileDriveItem@@V?$allocator@UFileDriveItem@@@std@@@std@@@Z$2
	DD	00H
	DD	FLAT:__unwindfunclet$?SetDriveList@FileListWnd@@IAEXAAV?$vector@UFileDriveItem@@V?$allocator@UFileDriveItem@@@std@@@std@@@Z$3
	DD	00H
	DD	FLAT:__unwindfunclet$?SetDriveList@FileListWnd@@IAEXAAV?$vector@UFileDriveItem@@V?$allocator@UFileDriveItem@@@std@@@std@@@Z$4
	DD	00H
	DD	FLAT:__unwindfunclet$?SetDriveList@FileListWnd@@IAEXAAV?$vector@UFileDriveItem@@V?$allocator@UFileDriveItem@@@std@@@std@@@Z$5
	DD	00H
	DD	FLAT:__unwindfunclet$?SetDriveList@FileListWnd@@IAEXAAV?$vector@UFileDriveItem@@V?$allocator@UFileDriveItem@@@std@@@std@@@Z$6
	DD	00H
	DD	FLAT:__unwindfunclet$?SetDriveList@FileListWnd@@IAEXAAV?$vector@UFileDriveItem@@V?$allocator@UFileDriveItem@@@std@@@std@@@Z$7
	DD	00H
	DD	FLAT:__unwindfunclet$?SetDriveList@FileListWnd@@IAEXAAV?$vector@UFileDriveItem@@V?$allocator@UFileDriveItem@@@std@@@std@@@Z$8
	DD	00H
	DD	FLAT:__unwindfunclet$?SetDriveList@FileListWnd@@IAEXAAV?$vector@UFileDriveItem@@V?$allocator@UFileDriveItem@@@std@@@std@@@Z$9
	DD	00H
	DD	FLAT:__unwindfunclet$?SetDriveList@FileListWnd@@IAEXAAV?$vector@UFileDriveItem@@V?$allocator@UFileDriveItem@@@std@@@std@@@Z$10
	DD	00H
	DD	FLAT:__unwindfunclet$?SetDriveList@FileListWnd@@IAEXAAV?$vector@UFileDriveItem@@V?$allocator@UFileDriveItem@@@std@@@std@@@Z$11
	DD	00H
	DD	FLAT:__unwindfunclet$?SetDriveList@FileListWnd@@IAEXAAV?$vector@UFileDriveItem@@V?$allocator@UFileDriveItem@@@std@@@std@@@Z$12
	DD	00H
	DD	FLAT:__unwindfunclet$?SetDriveList@FileListWnd@@IAEXAAV?$vector@UFileDriveItem@@V?$allocator@UFileDriveItem@@@std@@@std@@@Z$13
	DD	00H
	DD	FLAT:__unwindfunclet$?SetDriveList@FileListWnd@@IAEXAAV?$vector@UFileDriveItem@@V?$allocator@UFileDriveItem@@@std@@@std@@@Z$14
	DD	00H
	DD	FLAT:__unwindfunclet$?SetDriveList@FileListWnd@@IAEXAAV?$vector@UFileDriveItem@@V?$allocator@UFileDriveItem@@@std@@@std@@@Z$15
	DD	00H
	DD	FLAT:__unwindfunclet$?SetDriveList@FileListWnd@@IAEXAAV?$vector@UFileDriveItem@@V?$allocator@UFileDriveItem@@@std@@@std@@@Z$16
	DD	00H
	DD	FLAT:__unwindfunclet$?SetDriveList@FileListWnd@@IAEXAAV?$vector@UFileDriveItem@@V?$allocator@UFileDriveItem@@@std@@@std@@@Z$17
	DD	00H
	DD	FLAT:__unwindfunclet$?SetDriveList@FileListWnd@@IAEXAAV?$vector@UFileDriveItem@@V?$allocator@UFileDriveItem@@@std@@@std@@@Z$18
	DD	00H
	DD	FLAT:__unwindfunclet$?SetDriveList@FileListWnd@@IAEXAAV?$vector@UFileDriveItem@@V?$allocator@UFileDriveItem@@@std@@@std@@@Z$19
	DD	00H
	DD	FLAT:__unwindfunclet$?SetDriveList@FileListWnd@@IAEXAAV?$vector@UFileDriveItem@@V?$allocator@UFileDriveItem@@@std@@@std@@@Z$20
	DD	00H
	DD	FLAT:__unwindfunclet$?SetDriveList@FileListWnd@@IAEXAAV?$vector@UFileDriveItem@@V?$allocator@UFileDriveItem@@@std@@@std@@@Z$21
	DD	00H
	DD	FLAT:__unwindfunclet$?SetDriveList@FileListWnd@@IAEXAAV?$vector@UFileDriveItem@@V?$allocator@UFileDriveItem@@@std@@@std@@@Z$22
	DD	00H
	DD	FLAT:__unwindfunclet$?SetDriveList@FileListWnd@@IAEXAAV?$vector@UFileDriveItem@@V?$allocator@UFileDriveItem@@@std@@@std@@@Z$23
	DD	00H
	DD	FLAT:__unwindfunclet$?SetDriveList@FileListWnd@@IAEXAAV?$vector@UFileDriveItem@@V?$allocator@UFileDriveItem@@@std@@@std@@@Z$24
	DD	00H
	DD	FLAT:__unwindfunclet$?SetDriveList@FileListWnd@@IAEXAAV?$vector@UFileDriveItem@@V?$allocator@UFileDriveItem@@@std@@@std@@@Z$25
	DD	00H
	DD	FLAT:__unwindfunclet$?SetDriveList@FileListWnd@@IAEXAAV?$vector@UFileDriveItem@@V?$allocator@UFileDriveItem@@@std@@@std@@@Z$26
	DD	00H
	DD	FLAT:__unwindfunclet$?SetDriveList@FileListWnd@@IAEXAAV?$vector@UFileDriveItem@@V?$allocator@UFileDriveItem@@@std@@@std@@@Z$27
; Function compile flags: /Ogsp
; File d:\lost saga for developer\youtube\tutorial\source\src\lsclient\gui\filelistwnd.cpp
xdata$x	ENDS
;	COMDAT ?SetDriveList@FileListWnd@@IAEXAAV?$vector@UFileDriveItem@@V?$allocator@UFileDriveItem@@@std@@@std@@@Z
_TEXT	SEGMENT
_kItem$510265 = -52					; size = 20
$T520615 = -48						; size = 16
$T520614 = -48						; size = 16
$T520613 = -48						; size = 16
$T520612 = -48						; size = 16
$T520611 = -48						; size = 16
$T520610 = -48						; size = 16
$T520609 = -48						; size = 16
$T520608 = -48						; size = 16
$T520607 = -48						; size = 16
$T520606 = -48						; size = 16
$T520605 = -48						; size = 16
$T520604 = -48						; size = 16
$T520603 = -48						; size = 16
$T520602 = -48						; size = 16
$T520601 = -48						; size = 16
$T520600 = -48						; size = 16
$T520599 = -48						; size = 16
$T520598 = -48						; size = 16
$T520597 = -48						; size = 16
$T520596 = -48						; size = 16
$T520595 = -48						; size = 16
$T520594 = -48						; size = 16
$T520593 = -48						; size = 16
$T520592 = -48						; size = 16
$T520591 = -48						; size = 16
$T520590 = -48						; size = 16
_szDirveTextVec$ = -32					; size = 16
$T520705 = -16						; size = 4
_dwDrives$ = -16					; size = 4
__$EHRec$ = -12						; size = 12
_rList$ = 8						; size = 4
?SetDriveList@FileListWnd@@IAEXAAV?$vector@UFileDriveItem@@V?$allocator@UFileDriveItem@@@std@@@std@@@Z PROC ; FileListWnd::SetDriveList, COMDAT
; _this$ = ecx

; 1041 : {

  00000	6a 28		 push	 40			; 00000028H
  00002	b8 00 00 00 00	 mov	 eax, __ehhandler$?SetDriveList@FileListWnd@@IAEXAAV?$vector@UFileDriveItem@@V?$allocator@UFileDriveItem@@@std@@@std@@@Z
  00007	e8 00 00 00 00	 call	 __EH_prolog3

; 1042 : 	rList.clear();

  0000c	8b 4d 08	 mov	 ecx, DWORD PTR _rList$[ebp]
  0000f	8b 41 04	 mov	 eax, DWORD PTR [ecx+4]
  00012	8b 11		 mov	 edx, DWORD PTR [ecx]
  00014	50		 push	 eax
  00015	52		 push	 edx
  00016	8d 45 f0	 lea	 eax, DWORD PTR $T520705[ebp]
  00019	50		 push	 eax
  0001a	e8 00 00 00 00	 call	 ?erase@?$vector@UFileDriveItem@@V?$allocator@UFileDriveItem@@@std@@@std@@QAE?AV?$_Vector_iterator@V?$_Vector_val@UFileDriveItem@@V?$allocator@UFileDriveItem@@@std@@@std@@@2@V?$_Vector_const_iterator@V?$_Vector_val@UFileDriveItem@@V?$allocator@UFileDriveItem@@@std@@@std@@@2@0@Z ; std::vector<FileDriveItem,std::allocator<FileDriveItem> >::erase

; 1043 : 
; 1044 : 	enum { MAX_DRIVE = 26, };
; 1045 : 	ioHashStringVec szDirveTextVec;

  0001f	33 c0		 xor	 eax, eax
  00021	89 45 e0	 mov	 DWORD PTR _szDirveTextVec$[ebp], eax
  00024	89 45 e4	 mov	 DWORD PTR _szDirveTextVec$[ebp+4], eax
  00027	89 45 e8	 mov	 DWORD PTR _szDirveTextVec$[ebp+8], eax

; 1046 : 	//    loop  .
; 1047 : 	szDirveTextVec.push_back( ioHashString( STR(1) ) ); 

  0002a	8b 35 00 00 00
	00		 mov	 esi, DWORD PTR __imp_?GetSingleton@ioStringManager@@SAAAV1@XZ
  00030	50		 push	 eax
  00031	6a 01		 push	 1
  00033	68 00 00 00 00	 push	 OFFSET ??_C@_00CNPNBAHC@?$AA@
  00038	68 00 00 00 00	 push	 OFFSET ??_C@_0BK@HEKPJLED@FileListWnd?3?3SetDriveList?$AA@
  0003d	89 45 fc	 mov	 DWORD PTR __$EHRec$[ebp+8], eax
  00040	ff d6		 call	 esi
  00042	8b 3d 00 00 00
	00		 mov	 edi, DWORD PTR __imp_?GetString@ioStringManager@@QAEPADPBD0HW4FileNamePrefix@1@@Z
  00048	8b c8		 mov	 ecx, eax
  0004a	ff d7		 call	 edi
  0004c	8b 1d 00 00 00
	00		 mov	 ebx, DWORD PTR __imp_??0ioHashString@@QAE@PBD@Z
  00052	50		 push	 eax
  00053	8d 4d d0	 lea	 ecx, DWORD PTR $T520590[ebp]
  00056	ff d3		 call	 ebx
  00058	50		 push	 eax
  00059	8d 4d e0	 lea	 ecx, DWORD PTR _szDirveTextVec$[ebp]
  0005c	c6 45 fc 01	 mov	 BYTE PTR __$EHRec$[ebp+8], 1
  00060	e8 00 00 00 00	 call	 ?push_back@?$vector@VioHashString@@V?$allocator@VioHashString@@@std@@@std@@QAEX$$QAVioHashString@@@Z ; std::vector<ioHashString,std::allocator<ioHashString> >::push_back
  00065	8d 4d d0	 lea	 ecx, DWORD PTR $T520590[ebp]
  00068	c6 45 fc 00	 mov	 BYTE PTR __$EHRec$[ebp+8], 0
  0006c	ff 15 00 00 00
	00		 call	 DWORD PTR __imp_??1ioHashString@@QAE@XZ

; 1048 : 	szDirveTextVec.push_back( ioHashString( STR(2) ) ); 

  00072	6a 00		 push	 0
  00074	6a 02		 push	 2
  00076	68 00 00 00 00	 push	 OFFSET ??_C@_00CNPNBAHC@?$AA@
  0007b	68 00 00 00 00	 push	 OFFSET ??_C@_0BK@HEKPJLED@FileListWnd?3?3SetDriveList?$AA@
  00080	ff d6		 call	 esi
  00082	8b c8		 mov	 ecx, eax
  00084	ff d7		 call	 edi
  00086	50		 push	 eax
  00087	8d 4d d0	 lea	 ecx, DWORD PTR $T520591[ebp]
  0008a	ff d3		 call	 ebx
  0008c	50		 push	 eax
  0008d	8d 4d e0	 lea	 ecx, DWORD PTR _szDirveTextVec$[ebp]
  00090	c6 45 fc 02	 mov	 BYTE PTR __$EHRec$[ebp+8], 2
  00094	e8 00 00 00 00	 call	 ?push_back@?$vector@VioHashString@@V?$allocator@VioHashString@@@std@@@std@@QAEX$$QAVioHashString@@@Z ; std::vector<ioHashString,std::allocator<ioHashString> >::push_back
  00099	8d 4d d0	 lea	 ecx, DWORD PTR $T520591[ebp]
  0009c	c6 45 fc 00	 mov	 BYTE PTR __$EHRec$[ebp+8], 0
  000a0	ff 15 00 00 00
	00		 call	 DWORD PTR __imp_??1ioHashString@@QAE@XZ

; 1049 : 	szDirveTextVec.push_back( ioHashString( STR(3) ) ); 

  000a6	6a 00		 push	 0
  000a8	6a 03		 push	 3
  000aa	68 00 00 00 00	 push	 OFFSET ??_C@_00CNPNBAHC@?$AA@
  000af	68 00 00 00 00	 push	 OFFSET ??_C@_0BK@HEKPJLED@FileListWnd?3?3SetDriveList?$AA@
  000b4	ff d6		 call	 esi
  000b6	8b c8		 mov	 ecx, eax
  000b8	ff d7		 call	 edi
  000ba	50		 push	 eax
  000bb	8d 4d d0	 lea	 ecx, DWORD PTR $T520592[ebp]
  000be	ff d3		 call	 ebx
  000c0	50		 push	 eax
  000c1	8d 4d e0	 lea	 ecx, DWORD PTR _szDirveTextVec$[ebp]
  000c4	c6 45 fc 03	 mov	 BYTE PTR __$EHRec$[ebp+8], 3
  000c8	e8 00 00 00 00	 call	 ?push_back@?$vector@VioHashString@@V?$allocator@VioHashString@@@std@@@std@@QAEX$$QAVioHashString@@@Z ; std::vector<ioHashString,std::allocator<ioHashString> >::push_back
  000cd	8d 4d d0	 lea	 ecx, DWORD PTR $T520592[ebp]
  000d0	c6 45 fc 00	 mov	 BYTE PTR __$EHRec$[ebp+8], 0
  000d4	ff 15 00 00 00
	00		 call	 DWORD PTR __imp_??1ioHashString@@QAE@XZ

; 1050 : 	szDirveTextVec.push_back( ioHashString( STR(4) ) ); 

  000da	6a 00		 push	 0
  000dc	6a 04		 push	 4
  000de	68 00 00 00 00	 push	 OFFSET ??_C@_00CNPNBAHC@?$AA@
  000e3	68 00 00 00 00	 push	 OFFSET ??_C@_0BK@HEKPJLED@FileListWnd?3?3SetDriveList?$AA@
  000e8	ff d6		 call	 esi
  000ea	8b c8		 mov	 ecx, eax
  000ec	ff d7		 call	 edi
  000ee	50		 push	 eax
  000ef	8d 4d d0	 lea	 ecx, DWORD PTR $T520593[ebp]
  000f2	ff d3		 call	 ebx
  000f4	50		 push	 eax
  000f5	8d 4d e0	 lea	 ecx, DWORD PTR _szDirveTextVec$[ebp]
  000f8	c6 45 fc 04	 mov	 BYTE PTR __$EHRec$[ebp+8], 4
  000fc	e8 00 00 00 00	 call	 ?push_back@?$vector@VioHashString@@V?$allocator@VioHashString@@@std@@@std@@QAEX$$QAVioHashString@@@Z ; std::vector<ioHashString,std::allocator<ioHashString> >::push_back
  00101	8d 4d d0	 lea	 ecx, DWORD PTR $T520593[ebp]
  00104	c6 45 fc 00	 mov	 BYTE PTR __$EHRec$[ebp+8], 0
  00108	ff 15 00 00 00
	00		 call	 DWORD PTR __imp_??1ioHashString@@QAE@XZ

; 1051 : 	szDirveTextVec.push_back( ioHashString( STR(5) ) ); 

  0010e	6a 00		 push	 0
  00110	6a 05		 push	 5
  00112	68 00 00 00 00	 push	 OFFSET ??_C@_00CNPNBAHC@?$AA@
  00117	68 00 00 00 00	 push	 OFFSET ??_C@_0BK@HEKPJLED@FileListWnd?3?3SetDriveList?$AA@
  0011c	ff d6		 call	 esi
  0011e	8b c8		 mov	 ecx, eax
  00120	ff d7		 call	 edi
  00122	50		 push	 eax
  00123	8d 4d d0	 lea	 ecx, DWORD PTR $T520594[ebp]
  00126	ff d3		 call	 ebx
  00128	50		 push	 eax
  00129	8d 4d e0	 lea	 ecx, DWORD PTR _szDirveTextVec$[ebp]
  0012c	c6 45 fc 05	 mov	 BYTE PTR __$EHRec$[ebp+8], 5
  00130	e8 00 00 00 00	 call	 ?push_back@?$vector@VioHashString@@V?$allocator@VioHashString@@@std@@@std@@QAEX$$QAVioHashString@@@Z ; std::vector<ioHashString,std::allocator<ioHashString> >::push_back
  00135	8d 4d d0	 lea	 ecx, DWORD PTR $T520594[ebp]
  00138	c6 45 fc 00	 mov	 BYTE PTR __$EHRec$[ebp+8], 0
  0013c	ff 15 00 00 00
	00		 call	 DWORD PTR __imp_??1ioHashString@@QAE@XZ

; 1052 : 	szDirveTextVec.push_back( ioHashString( STR(6) ) ); 

  00142	6a 00		 push	 0
  00144	6a 06		 push	 6
  00146	68 00 00 00 00	 push	 OFFSET ??_C@_00CNPNBAHC@?$AA@
  0014b	68 00 00 00 00	 push	 OFFSET ??_C@_0BK@HEKPJLED@FileListWnd?3?3SetDriveList?$AA@
  00150	ff d6		 call	 esi
  00152	8b c8		 mov	 ecx, eax
  00154	ff d7		 call	 edi
  00156	50		 push	 eax
  00157	8d 4d d0	 lea	 ecx, DWORD PTR $T520595[ebp]
  0015a	ff d3		 call	 ebx
  0015c	50		 push	 eax
  0015d	8d 4d e0	 lea	 ecx, DWORD PTR _szDirveTextVec$[ebp]
  00160	c6 45 fc 06	 mov	 BYTE PTR __$EHRec$[ebp+8], 6
  00164	e8 00 00 00 00	 call	 ?push_back@?$vector@VioHashString@@V?$allocator@VioHashString@@@std@@@std@@QAEX$$QAVioHashString@@@Z ; std::vector<ioHashString,std::allocator<ioHashString> >::push_back
  00169	8d 4d d0	 lea	 ecx, DWORD PTR $T520595[ebp]
  0016c	c6 45 fc 00	 mov	 BYTE PTR __$EHRec$[ebp+8], 0
  00170	ff 15 00 00 00
	00		 call	 DWORD PTR __imp_??1ioHashString@@QAE@XZ

; 1053 : 	szDirveTextVec.push_back( ioHashString( STR(7) ) ); 

  00176	6a 00		 push	 0
  00178	6a 07		 push	 7
  0017a	68 00 00 00 00	 push	 OFFSET ??_C@_00CNPNBAHC@?$AA@
  0017f	68 00 00 00 00	 push	 OFFSET ??_C@_0BK@HEKPJLED@FileListWnd?3?3SetDriveList?$AA@
  00184	ff d6		 call	 esi
  00186	8b c8		 mov	 ecx, eax
  00188	ff d7		 call	 edi
  0018a	50		 push	 eax
  0018b	8d 4d d0	 lea	 ecx, DWORD PTR $T520596[ebp]
  0018e	ff d3		 call	 ebx
  00190	50		 push	 eax
  00191	8d 4d e0	 lea	 ecx, DWORD PTR _szDirveTextVec$[ebp]
  00194	c6 45 fc 07	 mov	 BYTE PTR __$EHRec$[ebp+8], 7
  00198	e8 00 00 00 00	 call	 ?push_back@?$vector@VioHashString@@V?$allocator@VioHashString@@@std@@@std@@QAEX$$QAVioHashString@@@Z ; std::vector<ioHashString,std::allocator<ioHashString> >::push_back
  0019d	8d 4d d0	 lea	 ecx, DWORD PTR $T520596[ebp]
  001a0	c6 45 fc 00	 mov	 BYTE PTR __$EHRec$[ebp+8], 0
  001a4	ff 15 00 00 00
	00		 call	 DWORD PTR __imp_??1ioHashString@@QAE@XZ

; 1054 : 	szDirveTextVec.push_back( ioHashString( STR(8) ) ); 

  001aa	6a 00		 push	 0
  001ac	6a 08		 push	 8
  001ae	68 00 00 00 00	 push	 OFFSET ??_C@_00CNPNBAHC@?$AA@
  001b3	68 00 00 00 00	 push	 OFFSET ??_C@_0BK@HEKPJLED@FileListWnd?3?3SetDriveList?$AA@
  001b8	ff d6		 call	 esi
  001ba	8b c8		 mov	 ecx, eax
  001bc	ff d7		 call	 edi
  001be	50		 push	 eax
  001bf	8d 4d d0	 lea	 ecx, DWORD PTR $T520597[ebp]
  001c2	ff d3		 call	 ebx
  001c4	50		 push	 eax
  001c5	8d 4d e0	 lea	 ecx, DWORD PTR _szDirveTextVec$[ebp]
  001c8	c6 45 fc 08	 mov	 BYTE PTR __$EHRec$[ebp+8], 8
  001cc	e8 00 00 00 00	 call	 ?push_back@?$vector@VioHashString@@V?$allocator@VioHashString@@@std@@@std@@QAEX$$QAVioHashString@@@Z ; std::vector<ioHashString,std::allocator<ioHashString> >::push_back
  001d1	8d 4d d0	 lea	 ecx, DWORD PTR $T520597[ebp]
  001d4	c6 45 fc 00	 mov	 BYTE PTR __$EHRec$[ebp+8], 0
  001d8	ff 15 00 00 00
	00		 call	 DWORD PTR __imp_??1ioHashString@@QAE@XZ

; 1055 : 	szDirveTextVec.push_back( ioHashString( STR(9) ) ); 

  001de	6a 00		 push	 0
  001e0	6a 09		 push	 9
  001e2	68 00 00 00 00	 push	 OFFSET ??_C@_00CNPNBAHC@?$AA@
  001e7	68 00 00 00 00	 push	 OFFSET ??_C@_0BK@HEKPJLED@FileListWnd?3?3SetDriveList?$AA@
  001ec	ff d6		 call	 esi
  001ee	8b c8		 mov	 ecx, eax
  001f0	ff d7		 call	 edi
  001f2	50		 push	 eax
  001f3	8d 4d d0	 lea	 ecx, DWORD PTR $T520598[ebp]
  001f6	ff d3		 call	 ebx
  001f8	50		 push	 eax
  001f9	8d 4d e0	 lea	 ecx, DWORD PTR _szDirveTextVec$[ebp]
  001fc	c6 45 fc 09	 mov	 BYTE PTR __$EHRec$[ebp+8], 9
  00200	e8 00 00 00 00	 call	 ?push_back@?$vector@VioHashString@@V?$allocator@VioHashString@@@std@@@std@@QAEX$$QAVioHashString@@@Z ; std::vector<ioHashString,std::allocator<ioHashString> >::push_back
  00205	8d 4d d0	 lea	 ecx, DWORD PTR $T520598[ebp]
  00208	c6 45 fc 00	 mov	 BYTE PTR __$EHRec$[ebp+8], 0
  0020c	ff 15 00 00 00
	00		 call	 DWORD PTR __imp_??1ioHashString@@QAE@XZ

; 1056 : 	szDirveTextVec.push_back( ioHashString( STR(10) ) ); 

  00212	6a 00		 push	 0
  00214	6a 0a		 push	 10			; 0000000aH
  00216	68 00 00 00 00	 push	 OFFSET ??_C@_00CNPNBAHC@?$AA@
  0021b	68 00 00 00 00	 push	 OFFSET ??_C@_0BK@HEKPJLED@FileListWnd?3?3SetDriveList?$AA@
  00220	ff d6		 call	 esi
  00222	8b c8		 mov	 ecx, eax
  00224	ff d7		 call	 edi
  00226	50		 push	 eax
  00227	8d 4d d0	 lea	 ecx, DWORD PTR $T520599[ebp]
  0022a	ff d3		 call	 ebx
  0022c	50		 push	 eax
  0022d	8d 4d e0	 lea	 ecx, DWORD PTR _szDirveTextVec$[ebp]
  00230	c6 45 fc 0a	 mov	 BYTE PTR __$EHRec$[ebp+8], 10 ; 0000000aH
  00234	e8 00 00 00 00	 call	 ?push_back@?$vector@VioHashString@@V?$allocator@VioHashString@@@std@@@std@@QAEX$$QAVioHashString@@@Z ; std::vector<ioHashString,std::allocator<ioHashString> >::push_back
  00239	8d 4d d0	 lea	 ecx, DWORD PTR $T520599[ebp]
  0023c	c6 45 fc 00	 mov	 BYTE PTR __$EHRec$[ebp+8], 0
  00240	ff 15 00 00 00
	00		 call	 DWORD PTR __imp_??1ioHashString@@QAE@XZ

; 1057 : 	szDirveTextVec.push_back( ioHashString( STR(11) ) ); 

  00246	6a 00		 push	 0
  00248	6a 0b		 push	 11			; 0000000bH
  0024a	68 00 00 00 00	 push	 OFFSET ??_C@_00CNPNBAHC@?$AA@
  0024f	68 00 00 00 00	 push	 OFFSET ??_C@_0BK@HEKPJLED@FileListWnd?3?3SetDriveList?$AA@
  00254	ff d6		 call	 esi
  00256	8b c8		 mov	 ecx, eax
  00258	ff d7		 call	 edi
  0025a	50		 push	 eax
  0025b	8d 4d d0	 lea	 ecx, DWORD PTR $T520600[ebp]
  0025e	ff d3		 call	 ebx
  00260	50		 push	 eax
  00261	8d 4d e0	 lea	 ecx, DWORD PTR _szDirveTextVec$[ebp]
  00264	c6 45 fc 0b	 mov	 BYTE PTR __$EHRec$[ebp+8], 11 ; 0000000bH
  00268	e8 00 00 00 00	 call	 ?push_back@?$vector@VioHashString@@V?$allocator@VioHashString@@@std@@@std@@QAEX$$QAVioHashString@@@Z ; std::vector<ioHashString,std::allocator<ioHashString> >::push_back
  0026d	8d 4d d0	 lea	 ecx, DWORD PTR $T520600[ebp]
  00270	c6 45 fc 00	 mov	 BYTE PTR __$EHRec$[ebp+8], 0
  00274	ff 15 00 00 00
	00		 call	 DWORD PTR __imp_??1ioHashString@@QAE@XZ

; 1058 : 	szDirveTextVec.push_back( ioHashString( STR(12) ) ); 

  0027a	6a 00		 push	 0
  0027c	6a 0c		 push	 12			; 0000000cH
  0027e	68 00 00 00 00	 push	 OFFSET ??_C@_00CNPNBAHC@?$AA@
  00283	68 00 00 00 00	 push	 OFFSET ??_C@_0BK@HEKPJLED@FileListWnd?3?3SetDriveList?$AA@
  00288	ff d6		 call	 esi
  0028a	8b c8		 mov	 ecx, eax
  0028c	ff d7		 call	 edi
  0028e	50		 push	 eax
  0028f	8d 4d d0	 lea	 ecx, DWORD PTR $T520601[ebp]
  00292	ff d3		 call	 ebx
  00294	50		 push	 eax
  00295	8d 4d e0	 lea	 ecx, DWORD PTR _szDirveTextVec$[ebp]
  00298	c6 45 fc 0c	 mov	 BYTE PTR __$EHRec$[ebp+8], 12 ; 0000000cH
  0029c	e8 00 00 00 00	 call	 ?push_back@?$vector@VioHashString@@V?$allocator@VioHashString@@@std@@@std@@QAEX$$QAVioHashString@@@Z ; std::vector<ioHashString,std::allocator<ioHashString> >::push_back
  002a1	8d 4d d0	 lea	 ecx, DWORD PTR $T520601[ebp]
  002a4	c6 45 fc 00	 mov	 BYTE PTR __$EHRec$[ebp+8], 0
  002a8	ff 15 00 00 00
	00		 call	 DWORD PTR __imp_??1ioHashString@@QAE@XZ

; 1059 : 	szDirveTextVec.push_back( ioHashString( STR(13) ) ); 

  002ae	6a 00		 push	 0
  002b0	6a 0d		 push	 13			; 0000000dH
  002b2	68 00 00 00 00	 push	 OFFSET ??_C@_00CNPNBAHC@?$AA@
  002b7	68 00 00 00 00	 push	 OFFSET ??_C@_0BK@HEKPJLED@FileListWnd?3?3SetDriveList?$AA@
  002bc	ff d6		 call	 esi
  002be	8b c8		 mov	 ecx, eax
  002c0	ff d7		 call	 edi
  002c2	50		 push	 eax
  002c3	8d 4d d0	 lea	 ecx, DWORD PTR $T520602[ebp]
  002c6	ff d3		 call	 ebx
  002c8	50		 push	 eax
  002c9	8d 4d e0	 lea	 ecx, DWORD PTR _szDirveTextVec$[ebp]
  002cc	c6 45 fc 0d	 mov	 BYTE PTR __$EHRec$[ebp+8], 13 ; 0000000dH
  002d0	e8 00 00 00 00	 call	 ?push_back@?$vector@VioHashString@@V?$allocator@VioHashString@@@std@@@std@@QAEX$$QAVioHashString@@@Z ; std::vector<ioHashString,std::allocator<ioHashString> >::push_back
  002d5	8d 4d d0	 lea	 ecx, DWORD PTR $T520602[ebp]
  002d8	c6 45 fc 00	 mov	 BYTE PTR __$EHRec$[ebp+8], 0
  002dc	ff 15 00 00 00
	00		 call	 DWORD PTR __imp_??1ioHashString@@QAE@XZ

; 1060 : 	szDirveTextVec.push_back( ioHashString( STR(14) ) ); 

  002e2	6a 00		 push	 0
  002e4	6a 0e		 push	 14			; 0000000eH
  002e6	68 00 00 00 00	 push	 OFFSET ??_C@_00CNPNBAHC@?$AA@
  002eb	68 00 00 00 00	 push	 OFFSET ??_C@_0BK@HEKPJLED@FileListWnd?3?3SetDriveList?$AA@
  002f0	ff d6		 call	 esi
  002f2	8b c8		 mov	 ecx, eax
  002f4	ff d7		 call	 edi
  002f6	50		 push	 eax
  002f7	8d 4d d0	 lea	 ecx, DWORD PTR $T520603[ebp]
  002fa	ff d3		 call	 ebx
  002fc	50		 push	 eax
  002fd	8d 4d e0	 lea	 ecx, DWORD PTR _szDirveTextVec$[ebp]
  00300	c6 45 fc 0e	 mov	 BYTE PTR __$EHRec$[ebp+8], 14 ; 0000000eH
  00304	e8 00 00 00 00	 call	 ?push_back@?$vector@VioHashString@@V?$allocator@VioHashString@@@std@@@std@@QAEX$$QAVioHashString@@@Z ; std::vector<ioHashString,std::allocator<ioHashString> >::push_back
  00309	8d 4d d0	 lea	 ecx, DWORD PTR $T520603[ebp]
  0030c	c6 45 fc 00	 mov	 BYTE PTR __$EHRec$[ebp+8], 0
  00310	ff 15 00 00 00
	00		 call	 DWORD PTR __imp_??1ioHashString@@QAE@XZ

; 1061 : 	szDirveTextVec.push_back( ioHashString( STR(15) ) ); 

  00316	6a 00		 push	 0
  00318	6a 0f		 push	 15			; 0000000fH
  0031a	68 00 00 00 00	 push	 OFFSET ??_C@_00CNPNBAHC@?$AA@
  0031f	68 00 00 00 00	 push	 OFFSET ??_C@_0BK@HEKPJLED@FileListWnd?3?3SetDriveList?$AA@
  00324	ff d6		 call	 esi
  00326	8b c8		 mov	 ecx, eax
  00328	ff d7		 call	 edi
  0032a	50		 push	 eax
  0032b	8d 4d d0	 lea	 ecx, DWORD PTR $T520604[ebp]
  0032e	ff d3		 call	 ebx
  00330	50		 push	 eax
  00331	8d 4d e0	 lea	 ecx, DWORD PTR _szDirveTextVec$[ebp]
  00334	c6 45 fc 0f	 mov	 BYTE PTR __$EHRec$[ebp+8], 15 ; 0000000fH
  00338	e8 00 00 00 00	 call	 ?push_back@?$vector@VioHashString@@V?$allocator@VioHashString@@@std@@@std@@QAEX$$QAVioHashString@@@Z ; std::vector<ioHashString,std::allocator<ioHashString> >::push_back
  0033d	8d 4d d0	 lea	 ecx, DWORD PTR $T520604[ebp]
  00340	c6 45 fc 00	 mov	 BYTE PTR __$EHRec$[ebp+8], 0
  00344	ff 15 00 00 00
	00		 call	 DWORD PTR __imp_??1ioHashString@@QAE@XZ

; 1062 : 	szDirveTextVec.push_back( ioHashString( STR(16) ) ); 

  0034a	6a 00		 push	 0
  0034c	6a 10		 push	 16			; 00000010H
  0034e	68 00 00 00 00	 push	 OFFSET ??_C@_00CNPNBAHC@?$AA@
  00353	68 00 00 00 00	 push	 OFFSET ??_C@_0BK@HEKPJLED@FileListWnd?3?3SetDriveList?$AA@
  00358	ff d6		 call	 esi
  0035a	8b c8		 mov	 ecx, eax
  0035c	ff d7		 call	 edi
  0035e	50		 push	 eax
  0035f	8d 4d d0	 lea	 ecx, DWORD PTR $T520605[ebp]
  00362	ff d3		 call	 ebx
  00364	50		 push	 eax
  00365	8d 4d e0	 lea	 ecx, DWORD PTR _szDirveTextVec$[ebp]
  00368	c6 45 fc 10	 mov	 BYTE PTR __$EHRec$[ebp+8], 16 ; 00000010H
  0036c	e8 00 00 00 00	 call	 ?push_back@?$vector@VioHashString@@V?$allocator@VioHashString@@@std@@@std@@QAEX$$QAVioHashString@@@Z ; std::vector<ioHashString,std::allocator<ioHashString> >::push_back
  00371	8d 4d d0	 lea	 ecx, DWORD PTR $T520605[ebp]
  00374	c6 45 fc 00	 mov	 BYTE PTR __$EHRec$[ebp+8], 0
  00378	ff 15 00 00 00
	00		 call	 DWORD PTR __imp_??1ioHashString@@QAE@XZ

; 1063 : 	szDirveTextVec.push_back( ioHashString( STR(17) ) ); 

  0037e	6a 00		 push	 0
  00380	6a 11		 push	 17			; 00000011H
  00382	68 00 00 00 00	 push	 OFFSET ??_C@_00CNPNBAHC@?$AA@
  00387	68 00 00 00 00	 push	 OFFSET ??_C@_0BK@HEKPJLED@FileListWnd?3?3SetDriveList?$AA@
  0038c	ff d6		 call	 esi
  0038e	8b c8		 mov	 ecx, eax
  00390	ff d7		 call	 edi
  00392	50		 push	 eax
  00393	8d 4d d0	 lea	 ecx, DWORD PTR $T520606[ebp]
  00396	ff d3		 call	 ebx
  00398	50		 push	 eax
  00399	8d 4d e0	 lea	 ecx, DWORD PTR _szDirveTextVec$[ebp]
  0039c	c6 45 fc 11	 mov	 BYTE PTR __$EHRec$[ebp+8], 17 ; 00000011H
  003a0	e8 00 00 00 00	 call	 ?push_back@?$vector@VioHashString@@V?$allocator@VioHashString@@@std@@@std@@QAEX$$QAVioHashString@@@Z ; std::vector<ioHashString,std::allocator<ioHashString> >::push_back
  003a5	8d 4d d0	 lea	 ecx, DWORD PTR $T520606[ebp]
  003a8	c6 45 fc 00	 mov	 BYTE PTR __$EHRec$[ebp+8], 0
  003ac	ff 15 00 00 00
	00		 call	 DWORD PTR __imp_??1ioHashString@@QAE@XZ

; 1064 : 	szDirveTextVec.push_back( ioHashString( STR(18) ) ); 

  003b2	6a 00		 push	 0
  003b4	6a 12		 push	 18			; 00000012H
  003b6	68 00 00 00 00	 push	 OFFSET ??_C@_00CNPNBAHC@?$AA@
  003bb	68 00 00 00 00	 push	 OFFSET ??_C@_0BK@HEKPJLED@FileListWnd?3?3SetDriveList?$AA@
  003c0	ff d6		 call	 esi
  003c2	8b c8		 mov	 ecx, eax
  003c4	ff d7		 call	 edi
  003c6	50		 push	 eax
  003c7	8d 4d d0	 lea	 ecx, DWORD PTR $T520607[ebp]
  003ca	ff d3		 call	 ebx
  003cc	50		 push	 eax
  003cd	8d 4d e0	 lea	 ecx, DWORD PTR _szDirveTextVec$[ebp]
  003d0	c6 45 fc 12	 mov	 BYTE PTR __$EHRec$[ebp+8], 18 ; 00000012H
  003d4	e8 00 00 00 00	 call	 ?push_back@?$vector@VioHashString@@V?$allocator@VioHashString@@@std@@@std@@QAEX$$QAVioHashString@@@Z ; std::vector<ioHashString,std::allocator<ioHashString> >::push_back
  003d9	8d 4d d0	 lea	 ecx, DWORD PTR $T520607[ebp]
  003dc	c6 45 fc 00	 mov	 BYTE PTR __$EHRec$[ebp+8], 0
  003e0	ff 15 00 00 00
	00		 call	 DWORD PTR __imp_??1ioHashString@@QAE@XZ

; 1065 : 	szDirveTextVec.push_back( ioHashString( STR(19) ) ); 

  003e6	6a 00		 push	 0
  003e8	6a 13		 push	 19			; 00000013H
  003ea	68 00 00 00 00	 push	 OFFSET ??_C@_00CNPNBAHC@?$AA@
  003ef	68 00 00 00 00	 push	 OFFSET ??_C@_0BK@HEKPJLED@FileListWnd?3?3SetDriveList?$AA@
  003f4	ff d6		 call	 esi
  003f6	8b c8		 mov	 ecx, eax
  003f8	ff d7		 call	 edi
  003fa	50		 push	 eax
  003fb	8d 4d d0	 lea	 ecx, DWORD PTR $T520608[ebp]
  003fe	ff d3		 call	 ebx
  00400	50		 push	 eax
  00401	8d 4d e0	 lea	 ecx, DWORD PTR _szDirveTextVec$[ebp]
  00404	c6 45 fc 13	 mov	 BYTE PTR __$EHRec$[ebp+8], 19 ; 00000013H
  00408	e8 00 00 00 00	 call	 ?push_back@?$vector@VioHashString@@V?$allocator@VioHashString@@@std@@@std@@QAEX$$QAVioHashString@@@Z ; std::vector<ioHashString,std::allocator<ioHashString> >::push_back
  0040d	8d 4d d0	 lea	 ecx, DWORD PTR $T520608[ebp]
  00410	c6 45 fc 00	 mov	 BYTE PTR __$EHRec$[ebp+8], 0
  00414	ff 15 00 00 00
	00		 call	 DWORD PTR __imp_??1ioHashString@@QAE@XZ

; 1066 : 	szDirveTextVec.push_back( ioHashString( STR(20) ) ); 

  0041a	6a 00		 push	 0
  0041c	6a 14		 push	 20			; 00000014H
  0041e	68 00 00 00 00	 push	 OFFSET ??_C@_00CNPNBAHC@?$AA@
  00423	68 00 00 00 00	 push	 OFFSET ??_C@_0BK@HEKPJLED@FileListWnd?3?3SetDriveList?$AA@
  00428	ff d6		 call	 esi
  0042a	8b c8		 mov	 ecx, eax
  0042c	ff d7		 call	 edi
  0042e	50		 push	 eax
  0042f	8d 4d d0	 lea	 ecx, DWORD PTR $T520609[ebp]
  00432	ff d3		 call	 ebx
  00434	50		 push	 eax
  00435	8d 4d e0	 lea	 ecx, DWORD PTR _szDirveTextVec$[ebp]
  00438	c6 45 fc 14	 mov	 BYTE PTR __$EHRec$[ebp+8], 20 ; 00000014H
  0043c	e8 00 00 00 00	 call	 ?push_back@?$vector@VioHashString@@V?$allocator@VioHashString@@@std@@@std@@QAEX$$QAVioHashString@@@Z ; std::vector<ioHashString,std::allocator<ioHashString> >::push_back
  00441	8d 4d d0	 lea	 ecx, DWORD PTR $T520609[ebp]
  00444	c6 45 fc 00	 mov	 BYTE PTR __$EHRec$[ebp+8], 0
  00448	ff 15 00 00 00
	00		 call	 DWORD PTR __imp_??1ioHashString@@QAE@XZ

; 1067 : 	szDirveTextVec.push_back( ioHashString( STR(21) ) ); 

  0044e	6a 00		 push	 0
  00450	6a 15		 push	 21			; 00000015H
  00452	68 00 00 00 00	 push	 OFFSET ??_C@_00CNPNBAHC@?$AA@
  00457	68 00 00 00 00	 push	 OFFSET ??_C@_0BK@HEKPJLED@FileListWnd?3?3SetDriveList?$AA@
  0045c	ff d6		 call	 esi
  0045e	8b c8		 mov	 ecx, eax
  00460	ff d7		 call	 edi
  00462	50		 push	 eax
  00463	8d 4d d0	 lea	 ecx, DWORD PTR $T520610[ebp]
  00466	ff d3		 call	 ebx
  00468	50		 push	 eax
  00469	8d 4d e0	 lea	 ecx, DWORD PTR _szDirveTextVec$[ebp]
  0046c	c6 45 fc 15	 mov	 BYTE PTR __$EHRec$[ebp+8], 21 ; 00000015H
  00470	e8 00 00 00 00	 call	 ?push_back@?$vector@VioHashString@@V?$allocator@VioHashString@@@std@@@std@@QAEX$$QAVioHashString@@@Z ; std::vector<ioHashString,std::allocator<ioHashString> >::push_back
  00475	8d 4d d0	 lea	 ecx, DWORD PTR $T520610[ebp]
  00478	c6 45 fc 00	 mov	 BYTE PTR __$EHRec$[ebp+8], 0
  0047c	ff 15 00 00 00
	00		 call	 DWORD PTR __imp_??1ioHashString@@QAE@XZ

; 1068 : 	szDirveTextVec.push_back( ioHashString( STR(22) ) ); 

  00482	6a 00		 push	 0
  00484	6a 16		 push	 22			; 00000016H
  00486	68 00 00 00 00	 push	 OFFSET ??_C@_00CNPNBAHC@?$AA@
  0048b	68 00 00 00 00	 push	 OFFSET ??_C@_0BK@HEKPJLED@FileListWnd?3?3SetDriveList?$AA@
  00490	ff d6		 call	 esi
  00492	8b c8		 mov	 ecx, eax
  00494	ff d7		 call	 edi
  00496	50		 push	 eax
  00497	8d 4d d0	 lea	 ecx, DWORD PTR $T520611[ebp]
  0049a	ff d3		 call	 ebx
  0049c	50		 push	 eax
  0049d	8d 4d e0	 lea	 ecx, DWORD PTR _szDirveTextVec$[ebp]
  004a0	c6 45 fc 16	 mov	 BYTE PTR __$EHRec$[ebp+8], 22 ; 00000016H
  004a4	e8 00 00 00 00	 call	 ?push_back@?$vector@VioHashString@@V?$allocator@VioHashString@@@std@@@std@@QAEX$$QAVioHashString@@@Z ; std::vector<ioHashString,std::allocator<ioHashString> >::push_back
  004a9	8d 4d d0	 lea	 ecx, DWORD PTR $T520611[ebp]
  004ac	c6 45 fc 00	 mov	 BYTE PTR __$EHRec$[ebp+8], 0
  004b0	ff 15 00 00 00
	00		 call	 DWORD PTR __imp_??1ioHashString@@QAE@XZ

; 1069 : 	szDirveTextVec.push_back( ioHashString( STR(23) ) ); 

  004b6	6a 00		 push	 0
  004b8	6a 17		 push	 23			; 00000017H
  004ba	68 00 00 00 00	 push	 OFFSET ??_C@_00CNPNBAHC@?$AA@
  004bf	68 00 00 00 00	 push	 OFFSET ??_C@_0BK@HEKPJLED@FileListWnd?3?3SetDriveList?$AA@
  004c4	ff d6		 call	 esi
  004c6	8b c8		 mov	 ecx, eax
  004c8	ff d7		 call	 edi
  004ca	50		 push	 eax
  004cb	8d 4d d0	 lea	 ecx, DWORD PTR $T520612[ebp]
  004ce	ff d3		 call	 ebx
  004d0	50		 push	 eax
  004d1	8d 4d e0	 lea	 ecx, DWORD PTR _szDirveTextVec$[ebp]
  004d4	c6 45 fc 17	 mov	 BYTE PTR __$EHRec$[ebp+8], 23 ; 00000017H
  004d8	e8 00 00 00 00	 call	 ?push_back@?$vector@VioHashString@@V?$allocator@VioHashString@@@std@@@std@@QAEX$$QAVioHashString@@@Z ; std::vector<ioHashString,std::allocator<ioHashString> >::push_back
  004dd	8d 4d d0	 lea	 ecx, DWORD PTR $T520612[ebp]
  004e0	c6 45 fc 00	 mov	 BYTE PTR __$EHRec$[ebp+8], 0
  004e4	ff 15 00 00 00
	00		 call	 DWORD PTR __imp_??1ioHashString@@QAE@XZ

; 1070 : 	szDirveTextVec.push_back( ioHashString( STR(24) ) ); 

  004ea	6a 00		 push	 0
  004ec	6a 18		 push	 24			; 00000018H
  004ee	68 00 00 00 00	 push	 OFFSET ??_C@_00CNPNBAHC@?$AA@
  004f3	68 00 00 00 00	 push	 OFFSET ??_C@_0BK@HEKPJLED@FileListWnd?3?3SetDriveList?$AA@
  004f8	ff d6		 call	 esi
  004fa	8b c8		 mov	 ecx, eax
  004fc	ff d7		 call	 edi
  004fe	50		 push	 eax
  004ff	8d 4d d0	 lea	 ecx, DWORD PTR $T520613[ebp]
  00502	ff d3		 call	 ebx
  00504	50		 push	 eax
  00505	8d 4d e0	 lea	 ecx, DWORD PTR _szDirveTextVec$[ebp]
  00508	c6 45 fc 18	 mov	 BYTE PTR __$EHRec$[ebp+8], 24 ; 00000018H
  0050c	e8 00 00 00 00	 call	 ?push_back@?$vector@VioHashString@@V?$allocator@VioHashString@@@std@@@std@@QAEX$$QAVioHashString@@@Z ; std::vector<ioHashString,std::allocator<ioHashString> >::push_back
  00511	8d 4d d0	 lea	 ecx, DWORD PTR $T520613[ebp]
  00514	c6 45 fc 00	 mov	 BYTE PTR __$EHRec$[ebp+8], 0
  00518	ff 15 00 00 00
	00		 call	 DWORD PTR __imp_??1ioHashString@@QAE@XZ

; 1071 : 	szDirveTextVec.push_back( ioHashString( STR(25) ) ); 

  0051e	6a 00		 push	 0
  00520	6a 19		 push	 25			; 00000019H
  00522	68 00 00 00 00	 push	 OFFSET ??_C@_00CNPNBAHC@?$AA@
  00527	68 00 00 00 00	 push	 OFFSET ??_C@_0BK@HEKPJLED@FileListWnd?3?3SetDriveList?$AA@
  0052c	ff d6		 call	 esi
  0052e	8b c8		 mov	 ecx, eax
  00530	ff d7		 call	 edi
  00532	50		 push	 eax
  00533	8d 4d d0	 lea	 ecx, DWORD PTR $T520614[ebp]
  00536	ff d3		 call	 ebx
  00538	50		 push	 eax
  00539	8d 4d e0	 lea	 ecx, DWORD PTR _szDirveTextVec$[ebp]
  0053c	c6 45 fc 19	 mov	 BYTE PTR __$EHRec$[ebp+8], 25 ; 00000019H
  00540	e8 00 00 00 00	 call	 ?push_back@?$vector@VioHashString@@V?$allocator@VioHashString@@@std@@@std@@QAEX$$QAVioHashString@@@Z ; std::vector<ioHashString,std::allocator<ioHashString> >::push_back
  00545	8d 4d d0	 lea	 ecx, DWORD PTR $T520614[ebp]
  00548	c6 45 fc 00	 mov	 BYTE PTR __$EHRec$[ebp+8], 0
  0054c	ff 15 00 00 00
	00		 call	 DWORD PTR __imp_??1ioHashString@@QAE@XZ

; 1072 : 	szDirveTextVec.push_back( ioHashString( STR(26) ) ); 

  00552	6a 00		 push	 0
  00554	6a 1a		 push	 26			; 0000001aH
  00556	68 00 00 00 00	 push	 OFFSET ??_C@_00CNPNBAHC@?$AA@
  0055b	68 00 00 00 00	 push	 OFFSET ??_C@_0BK@HEKPJLED@FileListWnd?3?3SetDriveList?$AA@
  00560	ff d6		 call	 esi
  00562	8b c8		 mov	 ecx, eax
  00564	ff d7		 call	 edi
  00566	50		 push	 eax
  00567	8d 4d d0	 lea	 ecx, DWORD PTR $T520615[ebp]
  0056a	ff d3		 call	 ebx
  0056c	50		 push	 eax
  0056d	8d 4d e0	 lea	 ecx, DWORD PTR _szDirveTextVec$[ebp]
  00570	c6 45 fc 1a	 mov	 BYTE PTR __$EHRec$[ebp+8], 26 ; 0000001aH
  00574	e8 00 00 00 00	 call	 ?push_back@?$vector@VioHashString@@V?$allocator@VioHashString@@@std@@@std@@QAEX$$QAVioHashString@@@Z ; std::vector<ioHashString,std::allocator<ioHashString> >::push_back
  00579	8b 35 00 00 00
	00		 mov	 esi, DWORD PTR __imp_??1ioHashString@@QAE@XZ
  0057f	8d 4d d0	 lea	 ecx, DWORD PTR $T520615[ebp]
  00582	c6 45 fc 00	 mov	 BYTE PTR __$EHRec$[ebp+8], 0
  00586	ff d6		 call	 esi

; 1073 : 
; 1074 : 	DWORD dwDrives = GetLogicalDrives();

  00588	ff 15 00 00 00
	00		 call	 DWORD PTR __imp__GetLogicalDrives@0

; 1075 : 	for (int i = 0; i < MAX_DRIVE ; i++)

  0058e	33 ff		 xor	 edi, edi
  00590	89 45 f0	 mov	 DWORD PTR _dwDrives$[ebp], eax
  00593	33 db		 xor	 ebx, ebx
$LL6@SetDriveLi:

; 1076 : 	{
; 1077 : 		// dwDrives : 1100 : DCBA : A,B   C, D   (  )
; 1078 : 		if( dwDrives & 0x1 )

  00595	f6 45 f0 01	 test	 BYTE PTR _dwDrives$[ebp], 1
  00599	74 51		 je	 SHORT $LN3@SetDriveLi

; 1079 : 		{
; 1080 : 			FileDriveItem kItem;

  0059b	8d 4d cc	 lea	 ecx, DWORD PTR _kItem$510265[ebp]
  0059e	ff 15 00 00 00
	00		 call	 DWORD PTR __imp_??0ioHashString@@QAE@XZ
  005a4	c6 45 fc 1b	 mov	 BYTE PTR __$EHRec$[ebp+8], 27 ; 0000001bH

; 1081 : 			kItem.m_iMagicCode = i;

  005a8	89 7d dc	 mov	 DWORD PTR _kItem$510265[ebp+16], edi

; 1082 : 			if( COMPARE( i, 0, (int)szDirveTextVec.size() ) )

  005ab	85 ff		 test	 edi, edi
  005ad	78 1b		 js	 SHORT $LN2@SetDriveLi
  005af	8b 4d e4	 mov	 ecx, DWORD PTR _szDirveTextVec$[ebp+4]
  005b2	8b 45 e0	 mov	 eax, DWORD PTR _szDirveTextVec$[ebp]
  005b5	2b c8		 sub	 ecx, eax
  005b7	c1 f9 04	 sar	 ecx, 4
  005ba	3b f9		 cmp	 edi, ecx
  005bc	7d 0c		 jge	 SHORT $LN2@SetDriveLi

; 1083 : 				kItem.m_szName = szDirveTextVec[i];

  005be	03 c3		 add	 eax, ebx
  005c0	50		 push	 eax
  005c1	8d 4d cc	 lea	 ecx, DWORD PTR _kItem$510265[ebp]
  005c4	ff 15 00 00 00
	00		 call	 DWORD PTR __imp_??4ioHashString@@QAEAAV0@ABV0@@Z
$LN2@SetDriveLi:

; 1084 : 
; 1085 : 			if( !kItem.m_szName.IsEmpty() )

  005ca	8d 4d cc	 lea	 ecx, DWORD PTR _kItem$510265[ebp]
  005cd	ff 15 00 00 00
	00		 call	 DWORD PTR __imp_?IsEmpty@ioHashString@@QBE_NXZ
  005d3	84 c0		 test	 al, al
  005d5	75 0c		 jne	 SHORT $LN1@SetDriveLi

; 1086 : 				rList.push_back( kItem );

  005d7	8b 4d 08	 mov	 ecx, DWORD PTR _rList$[ebp]
  005da	8d 45 cc	 lea	 eax, DWORD PTR _kItem$510265[ebp]
  005dd	50		 push	 eax
  005de	e8 00 00 00 00	 call	 ?push_back@?$vector@UFileDriveItem@@V?$allocator@UFileDriveItem@@@std@@@std@@QAEXABUFileDriveItem@@@Z ; std::vector<FileDriveItem,std::allocator<FileDriveItem> >::push_back
$LN1@SetDriveLi:

; 1087 : 		}

  005e3	8d 4d cc	 lea	 ecx, DWORD PTR _kItem$510265[ebp]
  005e6	c6 45 fc 00	 mov	 BYTE PTR __$EHRec$[ebp+8], 0
  005ea	ff d6		 call	 esi
$LN3@SetDriveLi:

; 1088 : 		dwDrives >>= 0x1;

  005ec	d1 6d f0	 shr	 DWORD PTR _dwDrives$[ebp], 1
  005ef	83 c3 10	 add	 ebx, 16			; 00000010H
  005f2	47		 inc	 edi
  005f3	81 fb a0 01 00
	00		 cmp	 ebx, 416		; 000001a0H
  005f9	7c 9a		 jl	 SHORT $LL6@SetDriveLi

; 1089 : 	}
; 1090 : }

  005fb	83 4d fc ff	 or	 DWORD PTR __$EHRec$[ebp+8], -1
  005ff	8d 4d e0	 lea	 ecx, DWORD PTR _szDirveTextVec$[ebp]
  00602	e8 00 00 00 00	 call	 ?_Tidy@?$vector@VioHashString@@V?$allocator@VioHashString@@@std@@@std@@IAEXXZ ; std::vector<ioHashString,std::allocator<ioHashString> >::_Tidy
  00607	e8 00 00 00 00	 call	 __EH_epilog3
  0060c	c2 04 00	 ret	 4
_TEXT	ENDS
;	COMDAT text$x
text$x	SEGMENT
__unwindfunclet$?SetDriveList@FileListWnd@@IAEXAAV?$vector@UFileDriveItem@@V?$allocator@UFileDriveItem@@@std@@@std@@@Z$0:
  00000	8d 4d e0	 lea	 ecx, DWORD PTR _szDirveTextVec$[ebp]
  00003	e9 00 00 00 00	 jmp	 ??1?$vector@VioHashString@@V?$allocator@VioHashString@@@std@@@std@@QAE@XZ ; std::vector<ioHashString,std::allocator<ioHashString> >::~vector<ioHashString,std::allocator<ioHashString> >
__unwindfunclet$?SetDriveList@FileListWnd@@IAEXAAV?$vector@UFileDriveItem@@V?$allocator@UFileDriveItem@@@std@@@std@@@Z$1:
  00008	8d 4d d0	 lea	 ecx, DWORD PTR $T520590[ebp]
  0000b	ff 25 00 00 00
	00		 jmp	 DWORD PTR __imp_??1ioHashString@@QAE@XZ
__unwindfunclet$?SetDriveList@FileListWnd@@IAEXAAV?$vector@UFileDriveItem@@V?$allocator@UFileDriveItem@@@std@@@std@@@Z$2:
  00011	8d 4d d0	 lea	 ecx, DWORD PTR $T520591[ebp]
  00014	ff 25 00 00 00
	00		 jmp	 DWORD PTR __imp_??1ioHashString@@QAE@XZ
__unwindfunclet$?SetDriveList@FileListWnd@@IAEXAAV?$vector@UFileDriveItem@@V?$allocator@UFileDriveItem@@@std@@@std@@@Z$3:
  0001a	8d 4d d0	 lea	 ecx, DWORD PTR $T520592[ebp]
  0001d	ff 25 00 00 00
	00		 jmp	 DWORD PTR __imp_??1ioHashString@@QAE@XZ
__unwindfunclet$?SetDriveList@FileListWnd@@IAEXAAV?$vector@UFileDriveItem@@V?$allocator@UFileDriveItem@@@std@@@std@@@Z$4:
  00023	8d 4d d0	 lea	 ecx, DWORD PTR $T520593[ebp]
  00026	ff 25 00 00 00
	00		 jmp	 DWORD PTR __imp_??1ioHashString@@QAE@XZ
__unwindfunclet$?SetDriveList@FileListWnd@@IAEXAAV?$vector@UFileDriveItem@@V?$allocator@UFileDriveItem@@@std@@@std@@@Z$5:
  0002c	8d 4d d0	 lea	 ecx, DWORD PTR $T520594[ebp]
  0002f	ff 25 00 00 00
	00		 jmp	 DWORD PTR __imp_??1ioHashString@@QAE@XZ
__unwindfunclet$?SetDriveList@FileListWnd@@IAEXAAV?$vector@UFileDriveItem@@V?$allocator@UFileDriveItem@@@std@@@std@@@Z$6:
  00035	8d 4d d0	 lea	 ecx, DWORD PTR $T520595[ebp]
  00038	ff 25 00 00 00
	00		 jmp	 DWORD PTR __imp_??1ioHashString@@QAE@XZ
__unwindfunclet$?SetDriveList@FileListWnd@@IAEXAAV?$vector@UFileDriveItem@@V?$allocator@UFileDriveItem@@@std@@@std@@@Z$7:
  0003e	8d 4d d0	 lea	 ecx, DWORD PTR $T520596[ebp]
  00041	ff 25 00 00 00
	00		 jmp	 DWORD PTR __imp_??1ioHashString@@QAE@XZ
__unwindfunclet$?SetDriveList@FileListWnd@@IAEXAAV?$vector@UFileDriveItem@@V?$allocator@UFileDriveItem@@@std@@@std@@@Z$8:
  00047	8d 4d d0	 lea	 ecx, DWORD PTR $T520597[ebp]
  0004a	ff 25 00 00 00
	00		 jmp	 DWORD PTR __imp_??1ioHashString@@QAE@XZ
__unwindfunclet$?SetDriveList@FileListWnd@@IAEXAAV?$vector@UFileDriveItem@@V?$allocator@UFileDriveItem@@@std@@@std@@@Z$9:
  00050	8d 4d d0	 lea	 ecx, DWORD PTR $T520598[ebp]
  00053	ff 25 00 00 00
	00		 jmp	 DWORD PTR __imp_??1ioHashString@@QAE@XZ
__unwindfunclet$?SetDriveList@FileListWnd@@IAEXAAV?$vector@UFileDriveItem@@V?$allocator@UFileDriveItem@@@std@@@std@@@Z$10:
  00059	8d 4d d0	 lea	 ecx, DWORD PTR $T520599[ebp]
  0005c	ff 25 00 00 00
	00		 jmp	 DWORD PTR __imp_??1ioHashString@@QAE@XZ
__unwindfunclet$?SetDriveList@FileListWnd@@IAEXAAV?$vector@UFileDriveItem@@V?$allocator@UFileDriveItem@@@std@@@std@@@Z$11:
  00062	8d 4d d0	 lea	 ecx, DWORD PTR $T520600[ebp]
  00065	ff 25 00 00 00
	00		 jmp	 DWORD PTR __imp_??1ioHashString@@QAE@XZ
__unwindfunclet$?SetDriveList@FileListWnd@@IAEXAAV?$vector@UFileDriveItem@@V?$allocator@UFileDriveItem@@@std@@@std@@@Z$12:
  0006b	8d 4d d0	 lea	 ecx, DWORD PTR $T520601[ebp]
  0006e	ff 25 00 00 00
	00		 jmp	 DWORD PTR __imp_??1ioHashString@@QAE@XZ
__unwindfunclet$?SetDriveList@FileListWnd@@IAEXAAV?$vector@UFileDriveItem@@V?$allocator@UFileDriveItem@@@std@@@std@@@Z$13:
  00074	8d 4d d0	 lea	 ecx, DWORD PTR $T520602[ebp]
  00077	ff 25 00 00 00
	00		 jmp	 DWORD PTR __imp_??1ioHashString@@QAE@XZ
__unwindfunclet$?SetDriveList@FileListWnd@@IAEXAAV?$vector@UFileDriveItem@@V?$allocator@UFileDriveItem@@@std@@@std@@@Z$14:
  0007d	8d 4d d0	 lea	 ecx, DWORD PTR $T520603[ebp]
  00080	ff 25 00 00 00
	00		 jmp	 DWORD PTR __imp_??1ioHashString@@QAE@XZ
__unwindfunclet$?SetDriveList@FileListWnd@@IAEXAAV?$vector@UFileDriveItem@@V?$allocator@UFileDriveItem@@@std@@@std@@@Z$15:
  00086	8d 4d d0	 lea	 ecx, DWORD PTR $T520604[ebp]
  00089	ff 25 00 00 00
	00		 jmp	 DWORD PTR __imp_??1ioHashString@@QAE@XZ
__unwindfunclet$?SetDriveList@FileListWnd@@IAEXAAV?$vector@UFileDriveItem@@V?$allocator@UFileDriveItem@@@std@@@std@@@Z$16:
  0008f	8d 4d d0	 lea	 ecx, DWORD PTR $T520605[ebp]
  00092	ff 25 00 00 00
	00		 jmp	 DWORD PTR __imp_??1ioHashString@@QAE@XZ
__unwindfunclet$?SetDriveList@FileListWnd@@IAEXAAV?$vector@UFileDriveItem@@V?$allocator@UFileDriveItem@@@std@@@std@@@Z$17:
  00098	8d 4d d0	 lea	 ecx, DWORD PTR $T520606[ebp]
  0009b	ff 25 00 00 00
	00		 jmp	 DWORD PTR __imp_??1ioHashString@@QAE@XZ
__unwindfunclet$?SetDriveList@FileListWnd@@IAEXAAV?$vector@UFileDriveItem@@V?$allocator@UFileDriveItem@@@std@@@std@@@Z$18:
  000a1	8d 4d d0	 lea	 ecx, DWORD PTR $T520607[ebp]
  000a4	ff 25 00 00 00
	00		 jmp	 DWORD PTR __imp_??1ioHashString@@QAE@XZ
__unwindfunclet$?SetDriveList@FileListWnd@@IAEXAAV?$vector@UFileDriveItem@@V?$allocator@UFileDriveItem@@@std@@@std@@@Z$19:
  000aa	8d 4d d0	 lea	 ecx, DWORD PTR $T520608[ebp]
  000ad	ff 25 00 00 00
	00		 jmp	 DWORD PTR __imp_??1ioHashString@@QAE@XZ
__unwindfunclet$?SetDriveList@FileListWnd@@IAEXAAV?$vector@UFileDriveItem@@V?$allocator@UFileDriveItem@@@std@@@std@@@Z$20:
  000b3	8d 4d d0	 lea	 ecx, DWORD PTR $T520609[ebp]
  000b6	ff 25 00 00 00
	00		 jmp	 DWORD PTR __imp_??1ioHashString@@QAE@XZ
__unwindfunclet$?SetDriveList@FileListWnd@@IAEXAAV?$vector@UFileDriveItem@@V?$allocator@UFileDriveItem@@@std@@@std@@@Z$21:
  000bc	8d 4d d0	 lea	 ecx, DWORD PTR $T520610[ebp]
  000bf	ff 25 00 00 00
	00		 jmp	 DWORD PTR __imp_??1ioHashString@@QAE@XZ
__unwindfunclet$?SetDriveList@FileListWnd@@IAEXAAV?$vector@UFileDriveItem@@V?$allocator@UFileDriveItem@@@std@@@std@@@Z$22:
  000c5	8d 4d d0	 lea	 ecx, DWORD PTR $T520611[ebp]
  000c8	ff 25 00 00 00
	00		 jmp	 DWORD PTR __imp_??1ioHashString@@QAE@XZ
__unwindfunclet$?SetDriveList@FileListWnd@@IAEXAAV?$vector@UFileDriveItem@@V?$allocator@UFileDriveItem@@@std@@@std@@@Z$23:
  000ce	8d 4d d0	 lea	 ecx, DWORD PTR $T520612[ebp]
  000d1	ff 25 00 00 00
	00		 jmp	 DWORD PTR __imp_??1ioHashString@@QAE@XZ
__unwindfunclet$?SetDriveList@FileListWnd@@IAEXAAV?$vector@UFileDriveItem@@V?$allocator@UFileDriveItem@@@std@@@std@@@Z$24:
  000d7	8d 4d d0	 lea	 ecx, DWORD PTR $T520613[ebp]
  000da	ff 25 00 00 00
	00		 jmp	 DWORD PTR __imp_??1ioHashString@@QAE@XZ
__unwindfunclet$?SetDriveList@FileListWnd@@IAEXAAV?$vector@UFileDriveItem@@V?$allocator@UFileDriveItem@@@std@@@std@@@Z$25:
  000e0	8d 4d d0	 lea	 ecx, DWORD PTR $T520614[ebp]
  000e3	ff 25 00 00 00
	00		 jmp	 DWORD PTR __imp_??1ioHashString@@QAE@XZ
__unwindfunclet$?SetDriveList@FileListWnd@@IAEXAAV?$vector@UFileDriveItem@@V?$allocator@UFileDriveItem@@@std@@@std@@@Z$26:
  000e9	8d 4d d0	 lea	 ecx, DWORD PTR $T520615[ebp]
  000ec	ff 25 00 00 00
	00		 jmp	 DWORD PTR __imp_??1ioHashString@@QAE@XZ
__unwindfunclet$?SetDriveList@FileListWnd@@IAEXAAV?$vector@UFileDriveItem@@V?$allocator@UFileDriveItem@@@std@@@std@@@Z$27:
  000f2	8d 4d cc	 lea	 ecx, DWORD PTR _kItem$510265[ebp]
  000f5	e9 00 00 00 00	 jmp	 ??1FileDriveItem@@QAE@XZ
__ehhandler$?SetDriveList@FileListWnd@@IAEXAAV?$vector@UFileDriveItem@@V?$allocator@UFileDriveItem@@@std@@@std@@@Z:
  000fa	8b 54 24 08	 mov	 edx, DWORD PTR [esp+8]
  000fe	8d 42 0c	 lea	 eax, DWORD PTR [edx+12]
  00101	8b 4a c8	 mov	 ecx, DWORD PTR [edx-56]
  00104	33 c8		 xor	 ecx, eax
  00106	e8 00 00 00 00	 call	 @__security_check_cookie@4
  0010b	b8 00 00 00 00	 mov	 eax, OFFSET __ehfuncinfo$?SetDriveList@FileListWnd@@IAEXAAV?$vector@UFileDriveItem@@V?$allocator@UFileDriveItem@@@std@@@std@@@Z
  00110	e9 00 00 00 00	 jmp	 ___CxxFrameHandler3
text$x	ENDS
?SetDriveList@FileListWnd@@IAEXAAV?$vector@UFileDriveItem@@V?$allocator@UFileDriveItem@@@std@@@std@@@Z ENDP ; FileListWnd::SetDriveList
PUBLIC	_this$GSCopy$
PUBLIC	?SetDefaultDriveName@FileListWnd@@IAEXXZ	; FileListWnd::SetDefaultDriveName
EXTRN	__imp_?SetTitleText@ioWnd@@QAEXPBD0H@Z:PROC
EXTRN	__imp__strupr:PROC
EXTRN	__imp_?At@ioHashString@@QBEDH@Z:PROC
;	COMDAT xdata$x
; File c:\program files (x86)\microsoft visual studio 10.0\vc\include\vector
xdata$x	SEGMENT
__unwindtable$?SetDefaultDriveName@FileListWnd@@IAEXXZ DD 0ffffffffH
	DD	FLAT:__unwindfunclet$?SetDefaultDriveName@FileListWnd@@IAEXXZ$0
__ehfuncinfo$?SetDefaultDriveName@FileListWnd@@IAEXXZ DD 019930522H
	DD	01H
	DD	FLAT:__unwindtable$?SetDefaultDriveName@FileListWnd@@IAEXXZ
	DD	2 DUP(00H)
	DD	2 DUP(00H)
	DD	00H
	DD	01H
; Function compile flags: /Ogsp
; File d:\lost saga for developer\youtube\tutorial\source\src\lsclient\gui\filelistwnd.cpp
xdata$x	ENDS
;	COMDAT ?SetDefaultDriveName@FileListWnd@@IAEXXZ
_TEXT	SEGMENT
$T520876 = -300						; size = 4
_vList$ = -296						; size = 16
_this$GSCopy$ = -280					; size = 4
_szUpperDriveAlphabat$ = -276				; size = 260
__$EHRec$ = -12						; size = 12
?SetDefaultDriveName@FileListWnd@@IAEXXZ PROC		; FileListWnd::SetDefaultDriveName, COMDAT
; _this$ = ecx

; 1134 : {

  00000	68 20 01 00 00	 push	 288			; 00000120H
  00005	b8 00 00 00 00	 mov	 eax, __ehhandler$?SetDefaultDriveName@FileListWnd@@IAEXXZ
  0000a	e8 00 00 00 00	 call	 __EH_prolog3_GS

; 1135 : 	// drive   
; 1136 : 	int iDriveMagicCode = 0;

  0000f	33 db		 xor	 ebx, ebx

; 1137 : 	char szUpperDriveAlphabat[MAX_PATH]="";

  00011	68 03 01 00 00	 push	 259			; 00000103H
  00016	8d 85 ed fe ff
	ff		 lea	 eax, DWORD PTR _szUpperDriveAlphabat$[ebp+1]
  0001c	8b f1		 mov	 esi, ecx
  0001e	53		 push	 ebx
  0001f	50		 push	 eax

; 1150 : 	for (int i = 0; i < iMax ; i++)

  00020	89 b5 e8 fe ff
	ff		 mov	 DWORD PTR _this$GSCopy$[ebp], esi
  00026	33 ff		 xor	 edi, edi
  00028	88 9d ec fe ff
	ff		 mov	 BYTE PTR _szUpperDriveAlphabat$[ebp], bl
  0002e	e8 00 00 00 00	 call	 _memset
  00033	83 c4 0c	 add	 esp, 12			; 0000000cH
  00036	8d 8e 84 01 00
	00		 lea	 ecx, DWORD PTR [esi+388]
  0003c	ff 15 00 00 00
	00		 call	 DWORD PTR __imp_?IsEmpty@ioHashString@@QBE_NXZ
  00042	84 c0		 test	 al, al
  00044	75 2b		 jne	 SHORT $LN7@SetDefault

; 1138 : 	if( !m_szRootFolder.IsEmpty() )
; 1139 : 	{
; 1140 : 		szUpperDriveAlphabat[0] = m_szRootFolder.At(0);

  00046	53		 push	 ebx
  00047	8d 8e 84 01 00
	00		 lea	 ecx, DWORD PTR [esi+388]
  0004d	ff 15 00 00 00
	00		 call	 DWORD PTR __imp_?At@ioHashString@@QBEDH@Z
  00053	88 85 ec fe ff
	ff		 mov	 BYTE PTR _szUpperDriveAlphabat$[ebp], al

; 1141 : 		strupr( szUpperDriveAlphabat );

  00059	8d 85 ec fe ff
	ff		 lea	 eax, DWORD PTR _szUpperDriveAlphabat$[ebp]
  0005f	50		 push	 eax
  00060	ff 15 00 00 00
	00		 call	 DWORD PTR __imp__strupr

; 1142 : 		iDriveMagicCode = (int)szUpperDriveAlphabat[0];
; 1143 : 		iDriveMagicCode = iDriveMagicCode - 65; // 65 A

  00066	0f be bd ec fe
	ff ff		 movsx	 edi, BYTE PTR _szUpperDriveAlphabat$[ebp]
  0006d	59		 pop	 ecx
  0006e	83 ef 41	 sub	 edi, 65			; 00000041H
$LN7@SetDefault:

; 1144 : 	}
; 1145 : 
; 1146 : 	vFileDriveItem vList;

  00071	89 9d d8 fe ff
	ff		 mov	 DWORD PTR _vList$[ebp], ebx
  00077	89 9d dc fe ff
	ff		 mov	 DWORD PTR _vList$[ebp+4], ebx
  0007d	89 9d e0 fe ff
	ff		 mov	 DWORD PTR _vList$[ebp+8], ebx

; 1147 : 	vList.reserve( 10 );

  00083	6a 0a		 push	 10			; 0000000aH
  00085	8d 8d d8 fe ff
	ff		 lea	 ecx, DWORD PTR _vList$[ebp]
  0008b	89 5d fc	 mov	 DWORD PTR __$EHRec$[ebp+8], ebx
  0008e	e8 00 00 00 00	 call	 ?reserve@?$vector@UFileDriveItem@@V?$allocator@UFileDriveItem@@@std@@@std@@QAEXI@Z ; std::vector<FileDriveItem,std::allocator<FileDriveItem> >::reserve

; 1148 : 	SetDriveList( vList );

  00093	8d 85 d8 fe ff
	ff		 lea	 eax, DWORD PTR _vList$[ebp]
  00099	50		 push	 eax
  0009a	8b ce		 mov	 ecx, esi
  0009c	e8 00 00 00 00	 call	 ?SetDriveList@FileListWnd@@IAEXAAV?$vector@UFileDriveItem@@V?$allocator@UFileDriveItem@@@std@@@std@@@Z ; FileListWnd::SetDriveList

; 1149 : 	int iMax = vList.size();

  000a1	8b 85 dc fe ff
	ff		 mov	 eax, DWORD PTR _vList$[ebp+4]
  000a7	8b 8d d8 fe ff
	ff		 mov	 ecx, DWORD PTR _vList$[ebp]
  000ad	2b c1		 sub	 eax, ecx
  000af	6a 14		 push	 20			; 00000014H
  000b1	99		 cdq
  000b2	5e		 pop	 esi
  000b3	f7 fe		 idiv	 esi

; 1150 : 	for (int i = 0; i < iMax ; i++)

  000b5	33 f6		 xor	 esi, esi
  000b7	3b c3		 cmp	 eax, ebx
  000b9	7e 45		 jle	 SHORT $LN2@SetDefault

; 1144 : 	}
; 1145 : 
; 1146 : 	vFileDriveItem vList;

  000bb	83 c1 10	 add	 ecx, 16			; 00000010H
$LL6@SetDefault:

; 1151 : 	{
; 1152 : 		if( iDriveMagicCode == vList[i].m_iMagicCode )

  000be	3b 39		 cmp	 edi, DWORD PTR [ecx]
  000c0	74 0a		 je	 SHORT $LN48@SetDefault

; 1150 : 	for (int i = 0; i < iMax ; i++)

  000c2	46		 inc	 esi
  000c3	83 c1 14	 add	 ecx, 20			; 00000014H
  000c6	3b f0		 cmp	 esi, eax
  000c8	7c f4		 jl	 SHORT $LL6@SetDefault

; 1151 : 	{
; 1152 : 		if( iDriveMagicCode == vList[i].m_iMagicCode )

  000ca	eb 34		 jmp	 SHORT $LN2@SetDefault
$LN48@SetDefault:

; 1153 : 		{
; 1154 : 			ioWnd *pWnd = FindChildWnd( ID_SELECT_DISK );

  000cc	8b 8d e8 fe ff
	ff		 mov	 ecx, DWORD PTR _this$GSCopy$[ebp]
  000d2	6a 03		 push	 3
  000d4	ff 15 00 00 00
	00		 call	 DWORD PTR __imp_?FindChildWnd@ioWnd@@QAEPAV1@K@Z
  000da	8b f8		 mov	 edi, eax

; 1155 : 			if( pWnd )

  000dc	3b fb		 cmp	 edi, ebx
  000de	74 20		 je	 SHORT $LN2@SetDefault

; 1156 : 				pWnd->SetTitleText( vList[i].m_szName.c_str() );

  000e0	6b f6 14	 imul	 esi, 20			; 00000014H
  000e3	03 b5 d8 fe ff
	ff		 add	 esi, DWORD PTR _vList$[ebp]
  000e9	53		 push	 ebx
  000ea	68 00 00 00 00	 push	 OFFSET ??_C@_00CNPNBAHC@?$AA@
  000ef	8b ce		 mov	 ecx, esi
  000f1	ff 15 00 00 00
	00		 call	 DWORD PTR __imp_?c_str@ioHashString@@QBEPBDXZ
  000f7	50		 push	 eax
  000f8	8b cf		 mov	 ecx, edi
  000fa	ff 15 00 00 00
	00		 call	 DWORD PTR __imp_?SetTitleText@ioWnd@@QAEXPBD0H@Z
$LN2@SetDefault:

; 1157 : 			break;
; 1158 : 		}
; 1159 : 	}
; 1160 : 	vList.clear();

  00100	ff b5 dc fe ff
	ff		 push	 DWORD PTR _vList$[ebp+4]
  00106	8d 85 d4 fe ff
	ff		 lea	 eax, DWORD PTR $T520876[ebp]
  0010c	ff b5 d8 fe ff
	ff		 push	 DWORD PTR _vList$[ebp]
  00112	8d 8d d8 fe ff
	ff		 lea	 ecx, DWORD PTR _vList$[ebp]
  00118	50		 push	 eax
  00119	e8 00 00 00 00	 call	 ?erase@?$vector@UFileDriveItem@@V?$allocator@UFileDriveItem@@@std@@@std@@QAE?AV?$_Vector_iterator@V?$_Vector_val@UFileDriveItem@@V?$allocator@UFileDriveItem@@@std@@@std@@@2@V?$_Vector_const_iterator@V?$_Vector_val@UFileDriveItem@@V?$allocator@UFileDriveItem@@@std@@@std@@@2@0@Z ; std::vector<FileDriveItem,std::allocator<FileDriveItem> >::erase

; 1161 : 	if( strlen( m_szRootFolder.c_str() ) == 2 ) // c:

  0011e	8b bd e8 fe ff
	ff		 mov	 edi, DWORD PTR _this$GSCopy$[ebp]
  00124	8d 8f 84 01 00
	00		 lea	 ecx, DWORD PTR [edi+388]
  0012a	ff 15 00 00 00
	00		 call	 DWORD PTR __imp_?c_str@ioHashString@@QBEPBDXZ
  00130	8d 70 01	 lea	 esi, DWORD PTR [eax+1]
$LL50@SetDefault:
  00133	8a 08		 mov	 cl, BYTE PTR [eax]
  00135	40		 inc	 eax
  00136	3a cb		 cmp	 cl, bl
  00138	75 f9		 jne	 SHORT $LL50@SetDefault
  0013a	2b c6		 sub	 eax, esi
  0013c	83 f8 02	 cmp	 eax, 2
  0013f	75 09		 jne	 SHORT $LN1@SetDefault

; 1162 : 		SetChildInActive( ID_PARENT_FOLDER );

  00141	50		 push	 eax
  00142	8b cf		 mov	 ecx, edi
  00144	ff 15 00 00 00
	00		 call	 DWORD PTR __imp_?SetChildInActive@ioWnd@@QAEXK@Z
$LN1@SetDefault:

; 1163 : }

  0014a	83 4d fc ff	 or	 DWORD PTR __$EHRec$[ebp+8], -1
  0014e	8d 8d d8 fe ff
	ff		 lea	 ecx, DWORD PTR _vList$[ebp]
  00154	e8 00 00 00 00	 call	 ?_Tidy@?$vector@UFileDriveItem@@V?$allocator@UFileDriveItem@@@std@@@std@@IAEXXZ ; std::vector<FileDriveItem,std::allocator<FileDriveItem> >::_Tidy
  00159	e8 00 00 00 00	 call	 __EH_epilog3_GS
  0015e	c3		 ret	 0
_TEXT	ENDS
;	COMDAT text$x
text$x	SEGMENT
__unwindfunclet$?SetDefaultDriveName@FileListWnd@@IAEXXZ$0:
  00000	8d 8d d8 fe ff
	ff		 lea	 ecx, DWORD PTR _vList$[ebp]
  00006	e9 00 00 00 00	 jmp	 ??1?$vector@UFileDriveItem@@V?$allocator@UFileDriveItem@@@std@@@std@@QAE@XZ ; std::vector<FileDriveItem,std::allocator<FileDriveItem> >::~vector<FileDriveItem,std::allocator<FileDriveItem> >
__ehhandler$?SetDefaultDriveName@FileListWnd@@IAEXXZ:
  0000b	8b 54 24 08	 mov	 edx, DWORD PTR [esp+8]
  0000f	8d 42 0c	 lea	 eax, DWORD PTR [edx+12]
  00012	8b 8a d0 fe ff
	ff		 mov	 ecx, DWORD PTR [edx-304]
  00018	33 c8		 xor	 ecx, eax
  0001a	e8 00 00 00 00	 call	 @__security_check_cookie@4
  0001f	8b 4a fc	 mov	 ecx, DWORD PTR [edx-4]
  00022	33 c8		 xor	 ecx, eax
  00024	e8 00 00 00 00	 call	 @__security_check_cookie@4
  00029	b8 00 00 00 00	 mov	 eax, OFFSET __ehfuncinfo$?SetDefaultDriveName@FileListWnd@@IAEXXZ
  0002e	e9 00 00 00 00	 jmp	 ___CxxFrameHandler3
text$x	ENDS
?SetDefaultDriveName@FileListWnd@@IAEXXZ ENDP		; FileListWnd::SetDefaultDriveName
PUBLIC	?UpdateByNewPath@FileListWnd@@IAEXPBD@Z		; FileListWnd::UpdateByNewPath
; Function compile flags: /Ogsp
;	COMDAT ?UpdateByNewPath@FileListWnd@@IAEXPBD@Z
_TEXT	SEGMENT
_szNewPath$ = 8						; size = 4
?UpdateByNewPath@FileListWnd@@IAEXPBD@Z PROC		; FileListWnd::UpdateByNewPath, COMDAT
; _this$ = ecx

; 1166 : {

  00000	55		 push	 ebp
  00001	8b ec		 mov	 ebp, esp
  00003	56		 push	 esi
  00004	8b f1		 mov	 esi, ecx

; 1167 : 	SetFileList( szNewPath, m_szFileExt.c_str() );

  00006	8d 8e 94 01 00
	00		 lea	 ecx, DWORD PTR [esi+404]
  0000c	ff 15 00 00 00
	00		 call	 DWORD PTR __imp_?c_str@ioHashString@@QBEPBDXZ
  00012	50		 push	 eax
  00013	ff 75 08	 push	 DWORD PTR _szNewPath$[ebp]
  00016	8b ce		 mov	 ecx, esi
  00018	e8 00 00 00 00	 call	 ?SetFileList@FileListWnd@@QAEXPBD0@Z ; FileListWnd::SetFileList

; 1168 : 	UpdateShowFileList();

  0001d	8b ce		 mov	 ecx, esi
  0001f	e8 00 00 00 00	 call	 ?UpdateShowFileList@FileListWnd@@IAEXXZ ; FileListWnd::UpdateShowFileList

; 1169 : 	SetScrollRange();

  00024	8b ce		 mov	 ecx, esi
  00026	e8 00 00 00 00	 call	 ?SetScrollRange@FileListWnd@@IAEXXZ ; FileListWnd::SetScrollRange
  0002b	5e		 pop	 esi

; 1170 : }

  0002c	5d		 pop	 ebp
  0002d	c2 04 00	 ret	 4
?UpdateByNewPath@FileListWnd@@IAEXPBD@Z ENDP		; FileListWnd::UpdateByNewPath
; Function compile flags: /Ogsp
_TEXT	ENDS
;	COMDAT ??_GFileListWnd@@UAEPAXI@Z
_TEXT	SEGMENT
___flags$ = 8						; size = 4
??_GFileListWnd@@UAEPAXI@Z PROC				; FileListWnd::`scalar deleting destructor', COMDAT
; _this$ = ecx
  00000	55		 push	 ebp
  00001	8b ec		 mov	 ebp, esp
  00003	56		 push	 esi
  00004	8b f1		 mov	 esi, ecx
  00006	e8 00 00 00 00	 call	 ??1FileListWnd@@UAE@XZ	; FileListWnd::~FileListWnd
  0000b	f6 45 08 01	 test	 BYTE PTR ___flags$[ebp], 1
  0000f	74 07		 je	 SHORT $LN1@scalar@8
  00011	56		 push	 esi
  00012	e8 00 00 00 00	 call	 ??3@YAXPAX@Z		; operator delete
  00017	59		 pop	 ecx
$LN1@scalar@8:
  00018	8b c6		 mov	 eax, esi
  0001a	5e		 pop	 esi
  0001b	5d		 pop	 ebp
  0001c	c2 04 00	 ret	 4
??_GFileListWnd@@UAEPAXI@Z ENDP				; FileListWnd::`scalar deleting destructor'
_TEXT	ENDS
EXTRN	?IsCustomLoadingBack@ioInterfaceBackground@@QAE_NXZ:PROC ; ioInterfaceBackground::IsCustomLoadingBack
EXTRN	?IsCustomBattleBack@ioInterfaceBackground@@QAE_NXZ:PROC ; ioInterfaceBackground::IsCustomBattleBack
EXTRN	?IsCustomLadderBack@ioInterfaceBackground@@QAE_NXZ:PROC ; ioInterfaceBackground::IsCustomLadderBack
EXTRN	__imp_?SetChildWndStyleAdd@ioWnd@@QAEXKK@Z:PROC
EXTRN	__imp_?SetChildWndStyleRemove@ioWnd@@QAEXKK@Z:PROC
EXTRN	?IsCustomLobbyBack@ioInterfaceBackground@@QAE_NXZ:PROC ; ioInterfaceBackground::IsCustomLobbyBack
EXTRN	?GetSingleton@ioInterfaceBackground@@SAAAV1@XZ:PROC ; ioInterfaceBackground::GetSingleton
EXTRN	__imp_?ShowChildWnd@ioWnd@@QAEXK_N@Z:PROC
; Function compile flags: /Ogsp
;	COMDAT ?iwm_show@FileListWnd@@UAEXXZ
_TEXT	SEGMENT
?iwm_show@FileListWnd@@UAEXXZ PROC			; FileListWnd::iwm_show, COMDAT
; _this$ = ecx

; 514  : {

  00000	56		 push	 esi
  00001	8b f1		 mov	 esi, ecx

; 515  : 	SetScrollRange();

  00003	e8 00 00 00 00	 call	 ?SetScrollRange@FileListWnd@@IAEXXZ ; FileListWnd::SetScrollRange

; 516  : 	UpdateShowFileList();

  00008	8b ce		 mov	 ecx, esi
  0000a	e8 00 00 00 00	 call	 ?UpdateShowFileList@FileListWnd@@IAEXXZ ; FileListWnd::UpdateShowFileList

; 517  : 	SetShowWndPos();

  0000f	8b ce		 mov	 ecx, esi
  00011	e8 00 00 00 00	 call	 ?SetShowWndPos@FileListWnd@@IAEXXZ ; FileListWnd::SetShowWndPos

; 518  : 	SetDefaultDriveName();

  00016	8b ce		 mov	 ecx, esi
  00018	e8 00 00 00 00	 call	 ?SetDefaultDriveName@FileListWnd@@IAEXXZ ; FileListWnd::SetDefaultDriveName

; 519  : 
; 520  : 	switch( m_eReturnType )

  0001d	8b 86 7c 01 00
	00		 mov	 eax, DWORD PTR [esi+380]
  00023	83 e8 03	 sub	 eax, 3
  00026	0f 84 9b 00 00
	00		 je	 $LN16@iwm_show@2
  0002c	48		 dec	 eax
  0002d	74 7e		 je	 SHORT $LN13@iwm_show@2
  0002f	48		 dec	 eax
  00030	74 61		 je	 SHORT $LN10@iwm_show@2
  00032	48		 dec	 eax
  00033	74 44		 je	 SHORT $LN7@iwm_show@2
  00035	48		 dec	 eax
  00036	48		 dec	 eax
  00037	75 32		 jne	 SHORT $LN2@iwm_show@2

; 555  : 				SetChildWndStyleAdd( ID_BACKGROUND_CLEAR, IWS_EXACTIVE );
; 556  : 		}
; 557  : 		break;
; 558  : 	case RWT_MODE_FIND_BACK_CHANGE_WND:
; 559  : 		{
; 560  : 			ShowChildWnd( ID_BACKGROUND_CLEAR );

  00039	50		 push	 eax
  0003a	6a 04		 push	 4
  0003c	8b ce		 mov	 ecx, esi
  0003e	ff 15 00 00 00
	00		 call	 DWORD PTR __imp_?ShowChildWnd@ioWnd@@QAEXK_N@Z

; 561  : 			if( g_BackgroundMgr.IsCustomLobbyBack() )

  00044	e8 00 00 00 00	 call	 ?GetSingleton@ioInterfaceBackground@@SAAAV1@XZ ; ioInterfaceBackground::GetSingleton
  00049	8b c8		 mov	 ecx, eax
  0004b	e8 00 00 00 00	 call	 ?IsCustomLobbyBack@ioInterfaceBackground@@QAE_NXZ ; ioInterfaceBackground::IsCustomLobbyBack

; 562  : 				SetChildWndStyleRemove( ID_BACKGROUND_CLEAR, IWS_EXACTIVE );

  00050	68 00 10 00 00	 push	 4096			; 00001000H
  00055	8b ce		 mov	 ecx, esi
  00057	6a 04		 push	 4
  00059	84 c0		 test	 al, al
  0005b	74 08		 je	 SHORT $LN3@iwm_show@2
  0005d	ff 15 00 00 00
	00		 call	 DWORD PTR __imp_?SetChildWndStyleRemove@ioWnd@@QAEXKK@Z

; 563  : 			else

  00063	eb 06		 jmp	 SHORT $LN2@iwm_show@2
$LN3@iwm_show@2:

; 564  : 				SetChildWndStyleAdd( ID_BACKGROUND_CLEAR, IWS_EXACTIVE );

  00065	ff 15 00 00 00
	00		 call	 DWORD PTR __imp_?SetChildWndStyleAdd@ioWnd@@QAEXKK@Z
$LN2@iwm_show@2:

; 565  : 		}
; 566  : 	default:
; 567  : 		HideChildWnd( ID_BACKGROUND_CLEAR );

  0006b	6a 00		 push	 0
  0006d	6a 04		 push	 4
  0006f	8b ce		 mov	 ecx, esi
  00071	ff 15 00 00 00
	00		 call	 DWORD PTR __imp_?HideChildWnd@ioWnd@@QAEXK_N@Z
  00077	5e		 pop	 esi

; 568  : 		break;
; 569  : 	}
; 570  : }

  00078	c3		 ret	 0
$LN7@iwm_show@2:

; 546  : 				SetChildWndStyleAdd( ID_BACKGROUND_CLEAR, IWS_EXACTIVE );
; 547  : 		}
; 548  : 		break;
; 549  : 	case RWT_LADDER_BACK_CHANGE_WND:
; 550  : 		{
; 551  : 			ShowChildWnd( ID_BACKGROUND_CLEAR );

  00079	6a 00		 push	 0
  0007b	6a 04		 push	 4
  0007d	8b ce		 mov	 ecx, esi
  0007f	ff 15 00 00 00
	00		 call	 DWORD PTR __imp_?ShowChildWnd@ioWnd@@QAEXK_N@Z

; 552  : 			if( g_BackgroundMgr.IsCustomLadderBack() )

  00085	e8 00 00 00 00	 call	 ?GetSingleton@ioInterfaceBackground@@SAAAV1@XZ ; ioInterfaceBackground::GetSingleton
  0008a	8b c8		 mov	 ecx, eax
  0008c	e8 00 00 00 00	 call	 ?IsCustomLadderBack@ioInterfaceBackground@@QAE_NXZ ; ioInterfaceBackground::IsCustomLadderBack

; 553  : 				SetChildWndStyleRemove( ID_BACKGROUND_CLEAR, IWS_EXACTIVE );
; 554  : 			else

  00091	eb 4c		 jmp	 SHORT $LN21@iwm_show@2
$LN10@iwm_show@2:

; 537  : 				SetChildWndStyleAdd( ID_BACKGROUND_CLEAR, IWS_EXACTIVE );
; 538  : 		}
; 539  : 		break;
; 540  : 	case RWT_BATTLE_BACK_CHANGE_WND:
; 541  : 		{
; 542  : 			ShowChildWnd( ID_BACKGROUND_CLEAR );

  00093	6a 00		 push	 0
  00095	6a 04		 push	 4
  00097	8b ce		 mov	 ecx, esi
  00099	ff 15 00 00 00
	00		 call	 DWORD PTR __imp_?ShowChildWnd@ioWnd@@QAEXK_N@Z

; 543  : 			if( g_BackgroundMgr.IsCustomBattleBack() )

  0009f	e8 00 00 00 00	 call	 ?GetSingleton@ioInterfaceBackground@@SAAAV1@XZ ; ioInterfaceBackground::GetSingleton
  000a4	8b c8		 mov	 ecx, eax
  000a6	e8 00 00 00 00	 call	 ?IsCustomBattleBack@ioInterfaceBackground@@QAE_NXZ ; ioInterfaceBackground::IsCustomBattleBack

; 544  : 				SetChildWndStyleRemove( ID_BACKGROUND_CLEAR, IWS_EXACTIVE );
; 545  : 			else

  000ab	eb 32		 jmp	 SHORT $LN21@iwm_show@2
$LN13@iwm_show@2:

; 529  : 		}
; 530  : 		break;
; 531  : 	case RWT_LOADING_BACK_CHANGE_WND:
; 532  : 		{
; 533  : 			ShowChildWnd( ID_BACKGROUND_CLEAR );

  000ad	6a 00		 push	 0
  000af	6a 04		 push	 4
  000b1	8b ce		 mov	 ecx, esi
  000b3	ff 15 00 00 00
	00		 call	 DWORD PTR __imp_?ShowChildWnd@ioWnd@@QAEXK_N@Z

; 534  : 			if( g_BackgroundMgr.IsCustomLoadingBack() )

  000b9	e8 00 00 00 00	 call	 ?GetSingleton@ioInterfaceBackground@@SAAAV1@XZ ; ioInterfaceBackground::GetSingleton
  000be	8b c8		 mov	 ecx, eax
  000c0	e8 00 00 00 00	 call	 ?IsCustomLoadingBack@ioInterfaceBackground@@QAE_NXZ ; ioInterfaceBackground::IsCustomLoadingBack

; 535  : 				SetChildWndStyleRemove( ID_BACKGROUND_CLEAR, IWS_EXACTIVE );
; 536  : 			else

  000c5	eb 18		 jmp	 SHORT $LN21@iwm_show@2
$LN16@iwm_show@2:

; 521  : 	{
; 522  : 	case RWT_LOBBY_BACK_CHANGE_WND:
; 523  : 		{
; 524  : 			ShowChildWnd( ID_BACKGROUND_CLEAR );

  000c7	6a 00		 push	 0
  000c9	6a 04		 push	 4
  000cb	8b ce		 mov	 ecx, esi
  000cd	ff 15 00 00 00
	00		 call	 DWORD PTR __imp_?ShowChildWnd@ioWnd@@QAEXK_N@Z

; 525  : 			if( g_BackgroundMgr.IsCustomLobbyBack() )

  000d3	e8 00 00 00 00	 call	 ?GetSingleton@ioInterfaceBackground@@SAAAV1@XZ ; ioInterfaceBackground::GetSingleton
  000d8	8b c8		 mov	 ecx, eax
  000da	e8 00 00 00 00	 call	 ?IsCustomLobbyBack@ioInterfaceBackground@@QAE_NXZ ; ioInterfaceBackground::IsCustomLobbyBack
$LN21@iwm_show@2:

; 526  : 				SetChildWndStyleRemove( ID_BACKGROUND_CLEAR, IWS_EXACTIVE );

  000df	68 00 10 00 00	 push	 4096			; 00001000H
  000e4	8b ce		 mov	 ecx, esi
  000e6	6a 04		 push	 4
  000e8	84 c0		 test	 al, al
  000ea	74 08		 je	 SHORT $LN6@iwm_show@2
  000ec	ff 15 00 00 00
	00		 call	 DWORD PTR __imp_?SetChildWndStyleRemove@ioWnd@@QAEXKK@Z
  000f2	5e		 pop	 esi

; 568  : 		break;
; 569  : 	}
; 570  : }

  000f3	c3		 ret	 0
$LN6@iwm_show@2:

; 527  : 			else
; 528  : 				SetChildWndStyleAdd( ID_BACKGROUND_CLEAR, IWS_EXACTIVE );

  000f4	ff 15 00 00 00
	00		 call	 DWORD PTR __imp_?SetChildWndStyleAdd@ioWnd@@QAEXKK@Z
  000fa	5e		 pop	 esi

; 568  : 		break;
; 569  : 	}
; 570  : }

  000fb	c3		 ret	 0
?iwm_show@FileListWnd@@UAEXXZ ENDP			; FileListWnd::iwm_show
_TEXT	ENDS
PUBLIC	??_R0?AVItemCustomMakeUploadWnd@@@8		; ItemCustomMakeUploadWnd `RTTI Type Descriptor'
PUBLIC	??_R0?AVioEdit@@@8				; ioEdit `RTTI Type Descriptor'
PUBLIC	??_C@_05BMGBEOOC@?$CFs?2?$CFs?$AA@		; `string'
PUBLIC	??_C@_0BL@OIPPCDIK@?$CFs?5Error?5Long?5Folder?5Name?4?$AA@ ; `string'
PUBLIC	??_C@_0BO@IKAEBEJC@FileListWnd?3?3SetFileNameBtnUP?$AA@ ; `string'
PUBLIC	?SetFileNameBtnUP@FileListWnd@@IAEXK@Z		; FileListWnd::SetFileNameBtnUP
EXTRN	?LoadCustomFindModeBack@ioInterfaceBackground@@QAEX_N@Z:PROC ; ioInterfaceBackground::LoadCustomFindModeBack
EXTRN	?CopyCustomFindModeBack@ioInterfaceBackground@@QAE_NPAD@Z:PROC ; ioInterfaceBackground::CopyCustomFindModeBack
EXTRN	?SetFilePath@ItemCustomMakeUploadWnd@@QAEXPAVioWnd@@ABVioHashString@@@Z:PROC ; ItemCustomMakeUploadWnd::SetFilePath
EXTRN	?LoadCustomLadderBack@ioInterfaceBackground@@QAEXXZ:PROC ; ioInterfaceBackground::LoadCustomLadderBack
EXTRN	?CopyCustomLadderBack@ioInterfaceBackground@@QAE_NPAD@Z:PROC ; ioInterfaceBackground::CopyCustomLadderBack
EXTRN	?LoadCustomBattleBack@ioInterfaceBackground@@QAEXXZ:PROC ; ioInterfaceBackground::LoadCustomBattleBack
EXTRN	?CopyCustomBattleBack@ioInterfaceBackground@@QAE_NPAD@Z:PROC ; ioInterfaceBackground::CopyCustomBattleBack
EXTRN	?LoadCustomLoadingBack@ioInterfaceBackground@@QAEXXZ:PROC ; ioInterfaceBackground::LoadCustomLoadingBack
EXTRN	?CopyCustomLoadingBack@ioInterfaceBackground@@QAE_NPAD@Z:PROC ; ioInterfaceBackground::CopyCustomLoadingBack
EXTRN	?LoadCustomLobbyBack@ioInterfaceBackground@@QAEX_N@Z:PROC ; ioInterfaceBackground::LoadCustomLobbyBack
EXTRN	?CopyCustomLobbyBack@ioInterfaceBackground@@QAE_NPAD@Z:PROC ; ioInterfaceBackground::CopyCustomLobbyBack
EXTRN	__imp_?SetText@ioEdit@@QAEXPBD@Z:PROC
EXTRN	?SetFileNameInfo@SettingCustomSoundItemWnd@@QAEXPBD@Z:PROC ; SettingCustomSoundItemWnd::SetFileNameInfo
EXTRN	__imp_?PrintTimeAndLog@CLog@@QAAXHPADZZ:PROC
EXTRN	__imp_?LOG@@3VCLog@@A:BYTE
EXTRN	__imp_?Length@ioHashString@@QBEHXZ:PROC
;	COMDAT ??_R0?AVItemCustomMakeUploadWnd@@@8
; File d:\lost saga for developer\youtube\tutorial\source\src\lsclient\iomyroommode.h
_DATA	SEGMENT
??_R0?AVItemCustomMakeUploadWnd@@@8 DD FLAT:??_7type_info@@6B@ ; ItemCustomMakeUploadWnd `RTTI Type Descriptor'
	DD	00H
	DB	'.?AVItemCustomMakeUploadWnd@@', 00H
_DATA	ENDS
;	COMDAT ??_R0?AVioEdit@@@8
_DATA	SEGMENT
??_R0?AVioEdit@@@8 DD FLAT:??_7type_info@@6B@		; ioEdit `RTTI Type Descriptor'
	DD	00H
	DB	'.?AVioEdit@@', 00H
_DATA	ENDS
;	COMDAT ??_C@_05BMGBEOOC@?$CFs?2?$CFs?$AA@
CONST	SEGMENT
??_C@_05BMGBEOOC@?$CFs?2?$CFs?$AA@ DB '%s\%s', 00H	; `string'
CONST	ENDS
;	COMDAT ??_C@_0BL@OIPPCDIK@?$CFs?5Error?5Long?5Folder?5Name?4?$AA@
CONST	SEGMENT
??_C@_0BL@OIPPCDIK@?$CFs?5Error?5Long?5Folder?5Name?4?$AA@ DB '%s Error L'
	DB	'ong Folder Name.', 00H			; `string'
CONST	ENDS
;	COMDAT ??_C@_0BO@IKAEBEJC@FileListWnd?3?3SetFileNameBtnUP?$AA@
CONST	SEGMENT
??_C@_0BO@IKAEBEJC@FileListWnd?3?3SetFileNameBtnUP?$AA@ DB 'FileListWnd::'
	DB	'SetFileNameBtnUP', 00H			; `string'
CONST	ENDS
;	COMDAT xdata$x
xdata$x	SEGMENT
__unwindtable$?SetFileNameBtnUP@FileListWnd@@IAEXK@Z DD 0ffffffffH
	DD	FLAT:__unwindfunclet$?SetFileNameBtnUP@FileListWnd@@IAEXK@Z$0
	DD	00H
	DD	FLAT:__unwindfunclet$?SetFileNameBtnUP@FileListWnd@@IAEXK@Z$1
__ehfuncinfo$?SetFileNameBtnUP@FileListWnd@@IAEXK@Z DD 019930522H
	DD	02H
	DD	FLAT:__unwindtable$?SetFileNameBtnUP@FileListWnd@@IAEXK@Z
	DD	2 DUP(00H)
	DD	2 DUP(00H)
	DD	00H
	DD	01H
; Function compile flags: /Ogsp
; File d:\lost saga for developer\youtube\tutorial\source\src\lsclient\gui\filelistwnd.cpp
xdata$x	ENDS
;	COMDAT ?SetFileNameBtnUP@FileListWnd@@IAEXK@Z
_TEXT	SEGMENT
$T520925 = -1356					; size = 16
tv647 = -1340						; size = 4
_szFileName$ = -1336					; size = 16
tv766 = -1320						; size = 4
_pItem$510066 = -1320					; size = 4
_pItem$ = -1320						; size = 4
_szFullPath$510126 = -1316				; size = 520
_szFolderName$510050 = -796				; size = 260
_szFullPath$510117 = -536				; size = 520
_szFullPath$510110 = -536				; size = 520
_szFullPath$510103 = -536				; size = 520
_szFullPath$510096 = -536				; size = 520
_szFullPath$510089 = -536				; size = 520
_szFullPath$510080 = -536				; size = 520
_szNewRootPath$510059 = -536				; size = 520
__$EHRec$ = -12						; size = 12
_dwID$ = 8						; size = 4
?SetFileNameBtnUP@FileListWnd@@IAEXK@Z PROC		; FileListWnd::SetFileNameBtnUP, COMDAT
; _this$ = ecx

; 700  : {

  00000	68 40 05 00 00	 push	 1344			; 00000540H
  00005	b8 00 00 00 00	 mov	 eax, __ehhandler$?SetFileNameBtnUP@FileListWnd@@IAEXK@Z
  0000a	e8 00 00 00 00	 call	 __EH_prolog3_GS
  0000f	8b 45 08	 mov	 eax, DWORD PTR _dwID$[ebp]

; 701  : 	FileListItem *pItem = dynamic_cast<FileListItem*> (FindChildWnd( dwID ) );

  00012	33 db		 xor	 ebx, ebx
  00014	53		 push	 ebx
  00015	68 00 00 00 00	 push	 OFFSET ??_R0?AVFileListItem@@@8
  0001a	bf 00 00 00 00	 mov	 edi, OFFSET ??_R0?AVioWnd@@@8
  0001f	57		 push	 edi
  00020	53		 push	 ebx
  00021	50		 push	 eax
  00022	8b f1		 mov	 esi, ecx
  00024	ff 15 00 00 00
	00		 call	 DWORD PTR __imp_?FindChildWnd@ioWnd@@QAEPAV1@K@Z
  0002a	50		 push	 eax
  0002b	e8 00 00 00 00	 call	 ___RTDynamicCast
  00030	83 c4 14	 add	 esp, 20			; 00000014H
  00033	89 85 d8 fa ff
	ff		 mov	 DWORD PTR _pItem$[ebp], eax

; 702  : 	if( !pItem )

  00039	3b c3		 cmp	 eax, ebx
  0003b	0f 84 b1 06 00
	00		 je	 $LN57@SetFileNam

; 703  : 		return;
; 704  : 
; 705  : 	ioHashString szFileName;

  00041	8d 8d c8 fa ff
	ff		 lea	 ecx, DWORD PTR _szFileName$[ebp]
  00047	ff 15 00 00 00
	00		 call	 DWORD PTR __imp_??0ioHashString@@QAE@XZ

; 706  : 	pItem->GetFileName( szFileName );

  0004d	8b 8d d8 fa ff
	ff		 mov	 ecx, DWORD PTR _pItem$[ebp]
  00053	8d 85 c8 fa ff
	ff		 lea	 eax, DWORD PTR _szFileName$[ebp]
  00059	50		 push	 eax
  0005a	89 5d fc	 mov	 DWORD PTR __$EHRec$[ebp+8], ebx
  0005d	e8 00 00 00 00	 call	 ?GetFileName@FileListItem@@QAEXAAVioHashString@@@Z ; FileListItem::GetFileName

; 707  : 
; 708  : 	if( szFileName.IsEmpty() )

  00062	8d 8d c8 fa ff
	ff		 lea	 ecx, DWORD PTR _szFileName$[ebp]
  00068	ff 15 00 00 00
	00		 call	 DWORD PTR __imp_?IsEmpty@ioHashString@@QBE_NXZ
  0006e	84 c0		 test	 al, al

; 709  : 		return;

  00070	0f 85 6c 06 00
	00		 jne	 $LN69@SetFileNam

; 710  : 
; 711  : 	if( pItem->IsFolder() )

  00076	8b 85 d8 fa ff
	ff		 mov	 eax, DWORD PTR _pItem$[ebp]
  0007c	38 98 60 01 00
	00		 cmp	 BYTE PTR [eax+352], bl
  00082	0f 84 ec 00 00
	00		 je	 $LN54@SetFileNam

; 712  : 	{
; 713  : 		char szFolderName[MAX_PATH]="";

  00088	68 03 01 00 00	 push	 259			; 00000103H
  0008d	8d 85 e5 fc ff
	ff		 lea	 eax, DWORD PTR _szFolderName$510050[ebp+1]
  00093	53		 push	 ebx
  00094	50		 push	 eax
  00095	88 9d e4 fc ff
	ff		 mov	 BYTE PTR _szFolderName$510050[ebp], bl
  0009b	e8 00 00 00 00	 call	 _memset
  000a0	83 c4 0c	 add	 esp, 12			; 0000000cH

; 714  : 		//  []
; 715  : 		int iLength = szFileName.Length();

  000a3	8d 8d c8 fa ff
	ff		 lea	 ecx, DWORD PTR _szFileName$[ebp]
  000a9	ff 15 00 00 00
	00		 call	 DWORD PTR __imp_?Length@ioHashString@@QBEHXZ

; 716  : 		if( iLength >= MAX_PATH )

  000af	3d 04 01 00 00	 cmp	 eax, 260		; 00000104H
  000b4	7c 1f		 jl	 SHORT $LN53@SetFileNam

; 717  : 		{
; 718  : 			LOG.PrintTimeAndLog( 0, "%s Error Long Folder Name.", __FUNCTION__ );

  000b6	68 00 00 00 00	 push	 OFFSET ??_C@_0BO@IKAEBEJC@FileListWnd?3?3SetFileNameBtnUP?$AA@
  000bb	68 00 00 00 00	 push	 OFFSET ??_C@_0BL@OIPPCDIK@?$CFs?5Error?5Long?5Folder?5Name?4?$AA@
  000c0	53		 push	 ebx
  000c1	ff 35 00 00 00
	00		 push	 DWORD PTR __imp_?LOG@@3VCLog@@A
  000c7	ff 15 00 00 00
	00		 call	 DWORD PTR __imp_?PrintTimeAndLog@CLog@@QAAXHPADZZ
  000cd	83 c4 10	 add	 esp, 16			; 00000010H

; 719  : 			return;

  000d0	e9 0d 06 00 00	 jmp	 $LN69@SetFileNam
$LN53@SetFileNam:

; 720  : 		}
; 721  : 		for (int i = 1; i < iLength-1 ; i++)

  000d5	33 ff		 xor	 edi, edi
  000d7	47		 inc	 edi
  000d8	48		 dec	 eax
  000d9	89 85 c4 fa ff
	ff		 mov	 DWORD PTR tv647[ebp], eax
  000df	3b c7		 cmp	 eax, edi
  000e1	7e 2c		 jle	 SHORT $LN50@SetFileNam
  000e3	8d 85 e4 fc ff
	ff		 lea	 eax, DWORD PTR _szFolderName$510050[ebp]
  000e9	48		 dec	 eax
  000ea	89 85 d8 fa ff
	ff		 mov	 DWORD PTR tv766[ebp], eax
$LL52@SetFileNam:

; 722  : 			szFolderName[i-1] = szFileName.At(i);

  000f0	57		 push	 edi
  000f1	8d 8d c8 fa ff
	ff		 lea	 ecx, DWORD PTR _szFileName$[ebp]
  000f7	ff 15 00 00 00
	00		 call	 DWORD PTR __imp_?At@ioHashString@@QBEDH@Z
  000fd	8b 8d d8 fa ff
	ff		 mov	 ecx, DWORD PTR tv766[ebp]
  00103	88 04 39	 mov	 BYTE PTR [ecx+edi], al
  00106	47		 inc	 edi
  00107	3b bd c4 fa ff
	ff		 cmp	 edi, DWORD PTR tv647[ebp]
  0010d	7c e1		 jl	 SHORT $LL52@SetFileNam
$LN50@SetFileNam:

; 723  : 	
; 724  : 		char szNewRootPath[MAX_PATH*2]="";

  0010f	68 07 02 00 00	 push	 519			; 00000207H
  00114	8d 85 e9 fd ff
	ff		 lea	 eax, DWORD PTR _szNewRootPath$510059[ebp+1]
  0011a	53		 push	 ebx
  0011b	50		 push	 eax
  0011c	88 9d e8 fd ff
	ff		 mov	 BYTE PTR _szNewRootPath$510059[ebp], bl
  00122	e8 00 00 00 00	 call	 _memset
  00127	83 c4 0c	 add	 esp, 12			; 0000000cH

; 725  : 		StringCbPrintf( szNewRootPath, sizeof( szNewRootPath ), "%s\\%s", m_szRootFolder.c_str(), szFolderName );

  0012a	8d 85 e4 fc ff
	ff		 lea	 eax, DWORD PTR _szFolderName$510050[ebp]
  00130	50		 push	 eax
  00131	8d 8e 84 01 00
	00		 lea	 ecx, DWORD PTR [esi+388]
  00137	ff 15 00 00 00
	00		 call	 DWORD PTR __imp_?c_str@ioHashString@@QBEPBDXZ
  0013d	50		 push	 eax
  0013e	68 00 00 00 00	 push	 OFFSET ??_C@_05BMGBEOOC@?$CFs?2?$CFs?$AA@
  00143	8d 85 e8 fd ff
	ff		 lea	 eax, DWORD PTR _szNewRootPath$510059[ebp]
  00149	68 08 02 00 00	 push	 520			; 00000208H
  0014e	50		 push	 eax
  0014f	e8 00 00 00 00	 call	 ?StringCbPrintfA@@YAJPADIPBDZZ ; StringCbPrintfA
  00154	83 c4 14	 add	 esp, 20			; 00000014H

; 726  : 		UpdateByNewPath( szNewRootPath );

  00157	8d 85 e8 fd ff
	ff		 lea	 eax, DWORD PTR _szNewRootPath$510059[ebp]
  0015d	50		 push	 eax
  0015e	8b ce		 mov	 ecx, esi
  00160	e8 00 00 00 00	 call	 ?UpdateByNewPath@FileListWnd@@IAEXPBD@Z ; FileListWnd::UpdateByNewPath

; 727  : 		SetChildActive( ID_PARENT_FOLDER );

  00165	6a 02		 push	 2
  00167	8b ce		 mov	 ecx, esi
  00169	ff 15 00 00 00
	00		 call	 DWORD PTR __imp_?SetChildActive@ioWnd@@QAEXK@Z

; 728  : 		return;

  0016f	e9 6e 05 00 00	 jmp	 $LN69@SetFileNam
$LN54@SetFileNam:

; 729  : 	}
; 730  : 
; 731  : 	if( !m_pReturnWnd )

  00174	8b 8e 78 01 00
	00		 mov	 ecx, DWORD PTR [esi+376]
  0017a	3b cb		 cmp	 ecx, ebx

; 732  : 		return;

  0017c	0f 84 60 05 00
	00		 je	 $LN69@SetFileNam

; 733  : 
; 734  : 	if( m_eReturnType == RWT_NONE )

  00182	8b 86 7c 01 00
	00		 mov	 eax, DWORD PTR [esi+380]
  00188	3b c3		 cmp	 eax, ebx
  0018a	75 32		 jne	 SHORT $LN48@SetFileNam

; 735  : 	{
; 736  : 		if( !m_pReturnWnd->IsShow() )

  0018c	ff 15 00 00 00
	00		 call	 DWORD PTR __imp_?IsShow@ioWnd@@QBE_NXZ

; 737  : 			return;

  00192	8d 8d c8 fa ff
	ff		 lea	 ecx, DWORD PTR _szFileName$[ebp]
  00198	84 c0		 test	 al, al
  0019a	0f 84 48 05 00
	00		 je	 $LN70@SetFileNam

; 738  : 		m_pReturnWnd->SetTitleText( szFileName.c_str() );

  001a0	53		 push	 ebx
  001a1	68 00 00 00 00	 push	 OFFSET ??_C@_00CNPNBAHC@?$AA@
  001a6	ff 15 00 00 00
	00		 call	 DWORD PTR __imp_?c_str@ioHashString@@QBEPBDXZ
  001ac	8b 8e 78 01 00
	00		 mov	 ecx, DWORD PTR [esi+376]
  001b2	50		 push	 eax
  001b3	ff 15 00 00 00
	00		 call	 DWORD PTR __imp_?SetTitleText@ioWnd@@QAEXPBD0H@Z
  001b9	e9 1c 05 00 00	 jmp	 $LN1@SetFileNam
$LN48@SetFileNam:

; 739  : 	}
; 740  : 	else if( m_eReturnType == RWT_COUSTOMSOUND_SETTING_ITEM_WND )

  001be	83 f8 01	 cmp	 eax, 1
  001c1	0f 85 92 00 00
	00		 jne	 $LN45@SetFileNam

; 741  : 	{
; 742  : 		SettingCustomSoundItemWnd *pItem = dynamic_cast<SettingCustomSoundItemWnd*> (m_pReturnWnd);

  001c7	53		 push	 ebx
  001c8	68 00 00 00 00	 push	 OFFSET ??_R0?AVSettingCustomSoundItemWnd@@@8
  001cd	57		 push	 edi
  001ce	53		 push	 ebx
  001cf	51		 push	 ecx
  001d0	e8 00 00 00 00	 call	 ___RTDynamicCast
  001d5	8b c8		 mov	 ecx, eax
  001d7	83 c4 14	 add	 esp, 20			; 00000014H
  001da	89 8d d8 fa ff
	ff		 mov	 DWORD PTR _pItem$510066[ebp], ecx

; 743  : 		if( !pItem )

  001e0	3b cb		 cmp	 ecx, ebx

; 744  : 			return;

  001e2	0f 84 fa 04 00
	00		 je	 $LN69@SetFileNam

; 745  : 		if( !pItem->IsShow() )

  001e8	ff 15 00 00 00
	00		 call	 DWORD PTR __imp_?IsShow@ioWnd@@QBE_NXZ
  001ee	84 c0		 test	 al, al

; 746  : 			return;

  001f0	0f 84 ec 04 00
	00		 je	 $LN69@SetFileNam

; 747  : 		GameOptionSettingCustomSoundTab *pParent = dynamic_cast<GameOptionSettingCustomSoundTab*> ( pItem->GetParent() );

  001f6	8b 8d d8 fa ff
	ff		 mov	 ecx, DWORD PTR _pItem$510066[ebp]
  001fc	53		 push	 ebx
  001fd	68 00 00 00 00	 push	 OFFSET ??_R0?AVGameOptionSettingCustomSoundTab@@@8
  00202	57		 push	 edi
  00203	53		 push	 ebx
  00204	ff 15 00 00 00
	00		 call	 DWORD PTR __imp_?GetParent@ioWnd@@QAEPAV1@XZ
  0020a	50		 push	 eax
  0020b	e8 00 00 00 00	 call	 ___RTDynamicCast
  00210	8b f8		 mov	 edi, eax
  00212	83 c4 14	 add	 esp, 20			; 00000014H

; 748  : 		if( !pParent )
; 749  : 			return;

  00215	8d 8d c8 fa ff
	ff		 lea	 ecx, DWORD PTR _szFileName$[ebp]
  0021b	3b fb		 cmp	 edi, ebx
  0021d	0f 84 c5 04 00
	00		 je	 $LN70@SetFileNam

; 750  : 		if( pParent->CheckWaveFile( szFileName.c_str() ) )

  00223	ff 15 00 00 00
	00		 call	 DWORD PTR __imp_?c_str@ioHashString@@QBEPBDXZ
  00229	50		 push	 eax
  0022a	8b cf		 mov	 ecx, edi
  0022c	e8 00 00 00 00	 call	 ?CheckWaveFile@GameOptionSettingCustomSoundTab@@QAE_NPBD@Z ; GameOptionSettingCustomSoundTab::CheckWaveFile
  00231	84 c0		 test	 al, al
  00233	74 0f		 je	 SHORT $LN41@SetFileNam

; 751  : 			pItem->SetFileNameInfo( szFileName.c_str() );

  00235	8d 8d c8 fa ff
	ff		 lea	 ecx, DWORD PTR _szFileName$[ebp]
  0023b	ff 15 00 00 00
	00		 call	 DWORD PTR __imp_?c_str@ioHashString@@QBEPBDXZ
  00241	50		 push	 eax

; 752  : 		else

  00242	eb 05		 jmp	 SHORT $LN73@SetFileNam
$LN41@SetFileNam:

; 753  : 			pItem->SetFileNameInfo( "" );

  00244	68 00 00 00 00	 push	 OFFSET ??_C@_00CNPNBAHC@?$AA@
$LN73@SetFileNam:
  00249	8b 8d d8 fa ff
	ff		 mov	 ecx, DWORD PTR _pItem$510066[ebp]
  0024f	e8 00 00 00 00	 call	 ?SetFileNameInfo@SettingCustomSoundItemWnd@@QAEXPBD@Z ; SettingCustomSoundItemWnd::SetFileNameInfo
  00254	e9 81 04 00 00	 jmp	 $LN1@SetFileNam
$LN45@SetFileNam:

; 754  : 	}	
; 755  : 	else if( m_eReturnType == RWT_GUILD_MARK_CHANGE_WND )

  00259	83 f8 02	 cmp	 eax, 2
  0025c	0f 85 a9 00 00
	00		 jne	 $LN38@SetFileNam

; 756  : 	{
; 757  : 		if( m_pReturnWnd )
; 758  : 		{
; 759  : 			char szFullPath[MAX_PATH*2]="";

  00262	68 07 02 00 00	 push	 519			; 00000207H
  00267	8d 85 e9 fd ff
	ff		 lea	 eax, DWORD PTR _szFullPath$510080[ebp+1]
  0026d	53		 push	 ebx
  0026e	50		 push	 eax
  0026f	88 9d e8 fd ff
	ff		 mov	 BYTE PTR _szFullPath$510080[ebp], bl
  00275	e8 00 00 00 00	 call	 _memset
  0027a	83 c4 0c	 add	 esp, 12			; 0000000cH

; 760  : 			StringCbPrintf( szFullPath, sizeof( szFullPath ), "%s\\%s", m_szRootFolder.c_str(), szFileName.c_str() );

  0027d	8d 8d c8 fa ff
	ff		 lea	 ecx, DWORD PTR _szFileName$[ebp]
  00283	ff 15 00 00 00
	00		 call	 DWORD PTR __imp_?c_str@ioHashString@@QBEPBDXZ
  00289	50		 push	 eax
  0028a	8d 8e 84 01 00
	00		 lea	 ecx, DWORD PTR [esi+388]
  00290	ff 15 00 00 00
	00		 call	 DWORD PTR __imp_?c_str@ioHashString@@QBEPBDXZ
  00296	50		 push	 eax
  00297	68 00 00 00 00	 push	 OFFSET ??_C@_05BMGBEOOC@?$CFs?2?$CFs?$AA@
  0029c	8d 85 e8 fd ff
	ff		 lea	 eax, DWORD PTR _szFullPath$510080[ebp]
  002a2	68 08 02 00 00	 push	 520			; 00000208H
  002a7	50		 push	 eax
  002a8	e8 00 00 00 00	 call	 ?StringCbPrintfA@@YAJPADIPBDZZ ; StringCbPrintfA

; 761  : 			ioEdit *pEdit = dynamic_cast<ioEdit*> (m_pReturnWnd);

  002ad	53		 push	 ebx
  002ae	68 00 00 00 00	 push	 OFFSET ??_R0?AVioEdit@@@8
  002b3	57		 push	 edi
  002b4	53		 push	 ebx
  002b5	ff b6 78 01 00
	00		 push	 DWORD PTR [esi+376]
  002bb	e8 00 00 00 00	 call	 ___RTDynamicCast
  002c0	8b f8		 mov	 edi, eax
  002c2	83 c4 28	 add	 esp, 40			; 00000028H

; 762  : 			if( pEdit )

  002c5	3b fb		 cmp	 edi, ebx
  002c7	0f 84 0d 04 00
	00		 je	 $LN1@SetFileNam

; 763  : 			{
; 764  : 				pEdit->SetText( szFullPath );

  002cd	8d 85 e8 fd ff
	ff		 lea	 eax, DWORD PTR _szFullPath$510080[ebp]
  002d3	50		 push	 eax
  002d4	8b cf		 mov	 ecx, edi
  002d6	ff 15 00 00 00
	00		 call	 DWORD PTR __imp_?SetText@ioEdit@@QAEXPBD@Z

; 765  : 				if( pEdit->GetParent() )

  002dc	8b cf		 mov	 ecx, edi
  002de	ff 15 00 00 00
	00		 call	 DWORD PTR __imp_?GetParent@ioWnd@@QAEPAV1@XZ
  002e4	85 c0		 test	 eax, eax
  002e6	0f 84 ee 03 00
	00		 je	 $LN1@SetFileNam

; 766  : 					pEdit->GetParent()->iwm_command( pEdit, IOBN_BTNUP, COMPLETE_FILE_NAME_PARAM );

  002ec	8b cf		 mov	 ecx, edi
  002ee	ff 15 00 00 00
	00		 call	 DWORD PTR __imp_?GetParent@ioWnd@@QAEPAV1@XZ
  002f4	8b 10		 mov	 edx, DWORD PTR [eax]
  002f6	68 a1 86 01 00	 push	 100001			; 000186a1H
  002fb	6a 11		 push	 17			; 00000011H
  002fd	57		 push	 edi
  002fe	8b c8		 mov	 ecx, eax
  00300	ff 92 8c 00 00
	00		 call	 DWORD PTR [edx+140]

; 767  : 			}
; 768  : 		}
; 769  : 	}

  00306	e9 cf 03 00 00	 jmp	 $LN1@SetFileNam
$LN38@SetFileNam:

; 770  : 	else if( m_eReturnType == RWT_LOBBY_BACK_CHANGE_WND )

  0030b	83 f8 03	 cmp	 eax, 3
  0030e	0f 85 93 00 00
	00		 jne	 $LN33@SetFileNam

; 771  : 	{
; 772  : 		if( m_pReturnWnd )
; 773  : 		{
; 774  : 			char szFullPath[MAX_PATH*2]="";

  00314	68 07 02 00 00	 push	 519			; 00000207H
  00319	8d 85 e9 fd ff
	ff		 lea	 eax, DWORD PTR _szFullPath$510089[ebp+1]
  0031f	53		 push	 ebx
  00320	50		 push	 eax
  00321	88 9d e8 fd ff
	ff		 mov	 BYTE PTR _szFullPath$510089[ebp], bl
  00327	e8 00 00 00 00	 call	 _memset
  0032c	83 c4 0c	 add	 esp, 12			; 0000000cH

; 775  : 			StringCbPrintf( szFullPath, sizeof( szFullPath ), "%s\\%s", m_szRootFolder.c_str(), szFileName.c_str() );

  0032f	8d 8d c8 fa ff
	ff		 lea	 ecx, DWORD PTR _szFileName$[ebp]
  00335	ff 15 00 00 00
	00		 call	 DWORD PTR __imp_?c_str@ioHashString@@QBEPBDXZ
  0033b	50		 push	 eax
  0033c	8d 8e 84 01 00
	00		 lea	 ecx, DWORD PTR [esi+388]
  00342	ff 15 00 00 00
	00		 call	 DWORD PTR __imp_?c_str@ioHashString@@QBEPBDXZ
  00348	50		 push	 eax
  00349	68 00 00 00 00	 push	 OFFSET ??_C@_05BMGBEOOC@?$CFs?2?$CFs?$AA@
  0034e	8d 85 e8 fd ff
	ff		 lea	 eax, DWORD PTR _szFullPath$510089[ebp]
  00354	68 08 02 00 00	 push	 520			; 00000208H
  00359	50		 push	 eax
  0035a	e8 00 00 00 00	 call	 ?StringCbPrintfA@@YAJPADIPBDZZ ; StringCbPrintfA
  0035f	83 c4 14	 add	 esp, 20			; 00000014H

; 776  : 			if( m_pReturnWnd )

  00362	39 9e 78 01 00
	00		 cmp	 DWORD PTR [esi+376], ebx
  00368	0f 84 6c 03 00
	00		 je	 $LN1@SetFileNam

; 777  : 			{
; 778  : 				if( g_BackgroundMgr.CopyCustomLobbyBack( szFullPath ) )

  0036e	8d 85 e8 fd ff
	ff		 lea	 eax, DWORD PTR _szFullPath$510089[ebp]
  00374	50		 push	 eax
  00375	e8 00 00 00 00	 call	 ?GetSingleton@ioInterfaceBackground@@SAAAV1@XZ ; ioInterfaceBackground::GetSingleton
  0037a	8b c8		 mov	 ecx, eax
  0037c	e8 00 00 00 00	 call	 ?CopyCustomLobbyBack@ioInterfaceBackground@@QAE_NPAD@Z ; ioInterfaceBackground::CopyCustomLobbyBack
  00381	84 c0		 test	 al, al
  00383	0f 84 25 03 00
	00		 je	 $LN2@SetFileNam

; 779  : 				{
; 780  : 					g_BackgroundMgr.LoadCustomLobbyBack( ( ioMyRoomMode::GetMyRoomType() == MRT_LOBBY ) );

  00389	39 1d 00 00 00
	00		 cmp	 DWORD PTR ?m_eMyRoomType@ioMyRoomMode@@1W4MyRoomType@@A, ebx ; ioMyRoomMode::m_eMyRoomType
  0038f	0f 94 c0	 sete	 al
  00392	0f b6 c0	 movzx	 eax, al
  00395	50		 push	 eax
  00396	e8 00 00 00 00	 call	 ?GetSingleton@ioInterfaceBackground@@SAAAV1@XZ ; ioInterfaceBackground::GetSingleton
  0039b	8b c8		 mov	 ecx, eax
  0039d	e8 00 00 00 00	 call	 ?LoadCustomLobbyBack@ioInterfaceBackground@@QAEX_N@Z ; ioInterfaceBackground::LoadCustomLobbyBack

; 781  : 				}
; 782  : 				else
; 783  : 				{
; 784  : 					g_GUIMgr.SetMsgBox( MB_OK, NULL, STR(1) );
; 785  : 				}
; 786  : 			}
; 787  : 		}
; 788  : 	}

  003a2	e9 33 03 00 00	 jmp	 $LN1@SetFileNam
$LN33@SetFileNam:

; 789  : 	else if( m_eReturnType == RWT_LOADING_BACK_CHANGE_WND )

  003a7	83 f8 04	 cmp	 eax, 4
  003aa	0f 85 8a 00 00
	00		 jne	 $LN27@SetFileNam

; 790  : 	{
; 791  : 		if( m_pReturnWnd )
; 792  : 		{
; 793  : 			char szFullPath[MAX_PATH*2]="";

  003b0	68 07 02 00 00	 push	 519			; 00000207H
  003b5	8d 85 e9 fd ff
	ff		 lea	 eax, DWORD PTR _szFullPath$510096[ebp+1]
  003bb	53		 push	 ebx
  003bc	50		 push	 eax
  003bd	88 9d e8 fd ff
	ff		 mov	 BYTE PTR _szFullPath$510096[ebp], bl
  003c3	e8 00 00 00 00	 call	 _memset
  003c8	83 c4 0c	 add	 esp, 12			; 0000000cH

; 794  : 			StringCbPrintf( szFullPath, sizeof( szFullPath ), "%s\\%s", m_szRootFolder.c_str(), szFileName.c_str() );

  003cb	8d 8d c8 fa ff
	ff		 lea	 ecx, DWORD PTR _szFileName$[ebp]
  003d1	ff 15 00 00 00
	00		 call	 DWORD PTR __imp_?c_str@ioHashString@@QBEPBDXZ
  003d7	50		 push	 eax
  003d8	8d 8e 84 01 00
	00		 lea	 ecx, DWORD PTR [esi+388]
  003de	ff 15 00 00 00
	00		 call	 DWORD PTR __imp_?c_str@ioHashString@@QBEPBDXZ
  003e4	50		 push	 eax
  003e5	68 00 00 00 00	 push	 OFFSET ??_C@_05BMGBEOOC@?$CFs?2?$CFs?$AA@
  003ea	8d 85 e8 fd ff
	ff		 lea	 eax, DWORD PTR _szFullPath$510096[ebp]
  003f0	68 08 02 00 00	 push	 520			; 00000208H
  003f5	50		 push	 eax
  003f6	e8 00 00 00 00	 call	 ?StringCbPrintfA@@YAJPADIPBDZZ ; StringCbPrintfA
  003fb	83 c4 14	 add	 esp, 20			; 00000014H

; 795  : 			if( m_pReturnWnd )

  003fe	39 9e 78 01 00
	00		 cmp	 DWORD PTR [esi+376], ebx
  00404	0f 84 d0 02 00
	00		 je	 $LN1@SetFileNam

; 796  : 			{
; 797  : 				if( g_BackgroundMgr.CopyCustomLoadingBack( szFullPath ) )

  0040a	8d 85 e8 fd ff
	ff		 lea	 eax, DWORD PTR _szFullPath$510096[ebp]
  00410	50		 push	 eax
  00411	e8 00 00 00 00	 call	 ?GetSingleton@ioInterfaceBackground@@SAAAV1@XZ ; ioInterfaceBackground::GetSingleton
  00416	8b c8		 mov	 ecx, eax
  00418	e8 00 00 00 00	 call	 ?CopyCustomLoadingBack@ioInterfaceBackground@@QAE_NPAD@Z ; ioInterfaceBackground::CopyCustomLoadingBack
  0041d	84 c0		 test	 al, al
  0041f	74 11		 je	 SHORT $LN24@SetFileNam

; 798  : 				{
; 799  : 					g_BackgroundMgr.LoadCustomLoadingBack();

  00421	e8 00 00 00 00	 call	 ?GetSingleton@ioInterfaceBackground@@SAAAV1@XZ ; ioInterfaceBackground::GetSingleton
  00426	8b c8		 mov	 ecx, eax
  00428	e8 00 00 00 00	 call	 ?LoadCustomLoadingBack@ioInterfaceBackground@@QAEXXZ ; ioInterfaceBackground::LoadCustomLoadingBack

; 800  : 				}
; 801  : 				else

  0042d	e9 a8 02 00 00	 jmp	 $LN1@SetFileNam
$LN24@SetFileNam:

; 802  : 				{
; 803  : 					g_GUIMgr.SetMsgBox( MB_OK, NULL, STR(2) );

  00432	53		 push	 ebx
  00433	6a 02		 push	 2

; 804  : 				}
; 805  : 			}
; 806  : 		}
; 807  : 	}

  00435	e9 77 02 00 00	 jmp	 $LN72@SetFileNam
$LN27@SetFileNam:

; 808  : 	else if( m_eReturnType == RWT_BATTLE_BACK_CHANGE_WND )

  0043a	83 f8 05	 cmp	 eax, 5
  0043d	0f 85 8a 00 00
	00		 jne	 $LN21@SetFileNam

; 809  : 	{
; 810  : 		if( m_pReturnWnd )
; 811  : 		{
; 812  : 			char szFullPath[MAX_PATH*2]="";

  00443	68 07 02 00 00	 push	 519			; 00000207H
  00448	8d 85 e9 fd ff
	ff		 lea	 eax, DWORD PTR _szFullPath$510103[ebp+1]
  0044e	53		 push	 ebx
  0044f	50		 push	 eax
  00450	88 9d e8 fd ff
	ff		 mov	 BYTE PTR _szFullPath$510103[ebp], bl
  00456	e8 00 00 00 00	 call	 _memset
  0045b	83 c4 0c	 add	 esp, 12			; 0000000cH

; 813  : 			StringCbPrintf( szFullPath, sizeof( szFullPath ), "%s\\%s", m_szRootFolder.c_str(), szFileName.c_str() );

  0045e	8d 8d c8 fa ff
	ff		 lea	 ecx, DWORD PTR _szFileName$[ebp]
  00464	ff 15 00 00 00
	00		 call	 DWORD PTR __imp_?c_str@ioHashString@@QBEPBDXZ
  0046a	50		 push	 eax
  0046b	8d 8e 84 01 00
	00		 lea	 ecx, DWORD PTR [esi+388]
  00471	ff 15 00 00 00
	00		 call	 DWORD PTR __imp_?c_str@ioHashString@@QBEPBDXZ
  00477	50		 push	 eax
  00478	68 00 00 00 00	 push	 OFFSET ??_C@_05BMGBEOOC@?$CFs?2?$CFs?$AA@
  0047d	8d 85 e8 fd ff
	ff		 lea	 eax, DWORD PTR _szFullPath$510103[ebp]
  00483	68 08 02 00 00	 push	 520			; 00000208H
  00488	50		 push	 eax
  00489	e8 00 00 00 00	 call	 ?StringCbPrintfA@@YAJPADIPBDZZ ; StringCbPrintfA
  0048e	83 c4 14	 add	 esp, 20			; 00000014H

; 814  : 			if( m_pReturnWnd )

  00491	39 9e 78 01 00
	00		 cmp	 DWORD PTR [esi+376], ebx
  00497	0f 84 3d 02 00
	00		 je	 $LN1@SetFileNam

; 815  : 			{
; 816  : 				if( g_BackgroundMgr.CopyCustomBattleBack( szFullPath ) )

  0049d	8d 85 e8 fd ff
	ff		 lea	 eax, DWORD PTR _szFullPath$510103[ebp]
  004a3	50		 push	 eax
  004a4	e8 00 00 00 00	 call	 ?GetSingleton@ioInterfaceBackground@@SAAAV1@XZ ; ioInterfaceBackground::GetSingleton
  004a9	8b c8		 mov	 ecx, eax
  004ab	e8 00 00 00 00	 call	 ?CopyCustomBattleBack@ioInterfaceBackground@@QAE_NPAD@Z ; ioInterfaceBackground::CopyCustomBattleBack
  004b0	84 c0		 test	 al, al
  004b2	74 11		 je	 SHORT $LN18@SetFileNam

; 817  : 				{
; 818  : 					g_BackgroundMgr.LoadCustomBattleBack();

  004b4	e8 00 00 00 00	 call	 ?GetSingleton@ioInterfaceBackground@@SAAAV1@XZ ; ioInterfaceBackground::GetSingleton
  004b9	8b c8		 mov	 ecx, eax
  004bb	e8 00 00 00 00	 call	 ?LoadCustomBattleBack@ioInterfaceBackground@@QAEXXZ ; ioInterfaceBackground::LoadCustomBattleBack

; 819  : 				}
; 820  : 				else

  004c0	e9 15 02 00 00	 jmp	 $LN1@SetFileNam
$LN18@SetFileNam:

; 821  : 				{
; 822  : 					g_GUIMgr.SetMsgBox( MB_OK, NULL, STR(3) );

  004c5	53		 push	 ebx
  004c6	6a 03		 push	 3

; 823  : 				}
; 824  : 			}
; 825  : 		}
; 826  : 	}

  004c8	e9 e4 01 00 00	 jmp	 $LN72@SetFileNam
$LN21@SetFileNam:

; 827  : 	else if( m_eReturnType == RWT_LADDER_BACK_CHANGE_WND )

  004cd	83 f8 06	 cmp	 eax, 6
  004d0	0f 85 8a 00 00
	00		 jne	 $LN15@SetFileNam

; 828  : 	{
; 829  : 		if( m_pReturnWnd )
; 830  : 		{
; 831  : 			char szFullPath[MAX_PATH*2]="";

  004d6	68 07 02 00 00	 push	 519			; 00000207H
  004db	8d 85 e9 fd ff
	ff		 lea	 eax, DWORD PTR _szFullPath$510110[ebp+1]
  004e1	53		 push	 ebx
  004e2	50		 push	 eax
  004e3	88 9d e8 fd ff
	ff		 mov	 BYTE PTR _szFullPath$510110[ebp], bl
  004e9	e8 00 00 00 00	 call	 _memset
  004ee	83 c4 0c	 add	 esp, 12			; 0000000cH

; 832  : 			StringCbPrintf( szFullPath, sizeof( szFullPath ), "%s\\%s", m_szRootFolder.c_str(), szFileName.c_str() );

  004f1	8d 8d c8 fa ff
	ff		 lea	 ecx, DWORD PTR _szFileName$[ebp]
  004f7	ff 15 00 00 00
	00		 call	 DWORD PTR __imp_?c_str@ioHashString@@QBEPBDXZ
  004fd	50		 push	 eax
  004fe	8d 8e 84 01 00
	00		 lea	 ecx, DWORD PTR [esi+388]
  00504	ff 15 00 00 00
	00		 call	 DWORD PTR __imp_?c_str@ioHashString@@QBEPBDXZ
  0050a	50		 push	 eax
  0050b	68 00 00 00 00	 push	 OFFSET ??_C@_05BMGBEOOC@?$CFs?2?$CFs?$AA@
  00510	8d 85 e8 fd ff
	ff		 lea	 eax, DWORD PTR _szFullPath$510110[ebp]
  00516	68 08 02 00 00	 push	 520			; 00000208H
  0051b	50		 push	 eax
  0051c	e8 00 00 00 00	 call	 ?StringCbPrintfA@@YAJPADIPBDZZ ; StringCbPrintfA
  00521	83 c4 14	 add	 esp, 20			; 00000014H

; 833  : 			if( m_pReturnWnd )

  00524	39 9e 78 01 00
	00		 cmp	 DWORD PTR [esi+376], ebx
  0052a	0f 84 aa 01 00
	00		 je	 $LN1@SetFileNam

; 834  : 			{
; 835  : 				if( g_BackgroundMgr.CopyCustomLadderBack( szFullPath ) )

  00530	8d 85 e8 fd ff
	ff		 lea	 eax, DWORD PTR _szFullPath$510110[ebp]
  00536	50		 push	 eax
  00537	e8 00 00 00 00	 call	 ?GetSingleton@ioInterfaceBackground@@SAAAV1@XZ ; ioInterfaceBackground::GetSingleton
  0053c	8b c8		 mov	 ecx, eax
  0053e	e8 00 00 00 00	 call	 ?CopyCustomLadderBack@ioInterfaceBackground@@QAE_NPAD@Z ; ioInterfaceBackground::CopyCustomLadderBack
  00543	84 c0		 test	 al, al
  00545	74 11		 je	 SHORT $LN12@SetFileNam

; 836  : 				{
; 837  : 					g_BackgroundMgr.LoadCustomLadderBack();

  00547	e8 00 00 00 00	 call	 ?GetSingleton@ioInterfaceBackground@@SAAAV1@XZ ; ioInterfaceBackground::GetSingleton
  0054c	8b c8		 mov	 ecx, eax
  0054e	e8 00 00 00 00	 call	 ?LoadCustomLadderBack@ioInterfaceBackground@@QAEXXZ ; ioInterfaceBackground::LoadCustomLadderBack

; 838  : 				}
; 839  : 				else

  00553	e9 82 01 00 00	 jmp	 $LN1@SetFileNam
$LN12@SetFileNam:

; 840  : 				{
; 841  : 					g_GUIMgr.SetMsgBox( MB_OK, NULL, STR(4) );

  00558	53		 push	 ebx
  00559	6a 04		 push	 4

; 842  : 				}
; 843  : 			}
; 844  : 		}
; 845  : 	}

  0055b	e9 51 01 00 00	 jmp	 $LN72@SetFileNam
$LN15@SetFileNam:

; 846  : 	else if( m_eReturnType == RWT_CUSTOM_TEXTURE_FIND_WND )

  00560	83 f8 07	 cmp	 eax, 7
  00563	0f 85 c0 00 00
	00		 jne	 $LN9@SetFileNam

; 847  : 	{
; 848  : 		if( m_pReturnWnd )
; 849  : 		{
; 850  : 			char szFullPath[MAX_PATH*2]="";

  00569	68 07 02 00 00	 push	 519			; 00000207H
  0056e	8d 85 e9 fd ff
	ff		 lea	 eax, DWORD PTR _szFullPath$510117[ebp+1]
  00574	53		 push	 ebx
  00575	50		 push	 eax
  00576	88 9d e8 fd ff
	ff		 mov	 BYTE PTR _szFullPath$510117[ebp], bl
  0057c	e8 00 00 00 00	 call	 _memset
  00581	83 c4 0c	 add	 esp, 12			; 0000000cH

; 851  : 			StringCbPrintf( szFullPath, sizeof( szFullPath ), "%s\\%s", m_szRootFolder.c_str(), szFileName.c_str() );

  00584	8d 8d c8 fa ff
	ff		 lea	 ecx, DWORD PTR _szFileName$[ebp]
  0058a	ff 15 00 00 00
	00		 call	 DWORD PTR __imp_?c_str@ioHashString@@QBEPBDXZ
  00590	50		 push	 eax
  00591	8d 8e 84 01 00
	00		 lea	 ecx, DWORD PTR [esi+388]
  00597	ff 15 00 00 00
	00		 call	 DWORD PTR __imp_?c_str@ioHashString@@QBEPBDXZ
  0059d	50		 push	 eax
  0059e	68 00 00 00 00	 push	 OFFSET ??_C@_05BMGBEOOC@?$CFs?2?$CFs?$AA@
  005a3	8d 85 e8 fd ff
	ff		 lea	 eax, DWORD PTR _szFullPath$510117[ebp]
  005a9	68 08 02 00 00	 push	 520			; 00000208H
  005ae	50		 push	 eax
  005af	e8 00 00 00 00	 call	 ?StringCbPrintfA@@YAJPADIPBDZZ ; StringCbPrintfA

; 852  : 						
; 853  : 			if( m_pReturnWnd->GetParent() )

  005b4	8b 8e 78 01 00
	00		 mov	 ecx, DWORD PTR [esi+376]
  005ba	83 c4 14	 add	 esp, 20			; 00000014H
  005bd	ff 15 00 00 00
	00		 call	 DWORD PTR __imp_?GetParent@ioWnd@@QAEPAV1@XZ
  005c3	85 c0		 test	 eax, eax
  005c5	0f 84 0f 01 00
	00		 je	 $LN1@SetFileNam

; 854  : 			{
; 855  : 				ItemCustomMakeUploadWnd *pCustomUploadWnd = dynamic_cast< ItemCustomMakeUploadWnd * >( m_pReturnWnd->GetParent() );

  005cb	8b 8e 78 01 00
	00		 mov	 ecx, DWORD PTR [esi+376]
  005d1	53		 push	 ebx
  005d2	68 00 00 00 00	 push	 OFFSET ??_R0?AVItemCustomMakeUploadWnd@@@8
  005d7	57		 push	 edi
  005d8	53		 push	 ebx
  005d9	ff 15 00 00 00
	00		 call	 DWORD PTR __imp_?GetParent@ioWnd@@QAEPAV1@XZ
  005df	50		 push	 eax
  005e0	e8 00 00 00 00	 call	 ___RTDynamicCast
  005e5	8b f8		 mov	 edi, eax
  005e7	83 c4 14	 add	 esp, 20			; 00000014H

; 856  : 				pCustomUploadWnd->SetFilePath( m_pReturnWnd, szFullPath );

  005ea	8d 85 e8 fd ff
	ff		 lea	 eax, DWORD PTR _szFullPath$510117[ebp]
  005f0	50		 push	 eax
  005f1	8d 8d b4 fa ff
	ff		 lea	 ecx, DWORD PTR $T520925[ebp]
  005f7	ff 15 00 00 00
	00		 call	 DWORD PTR __imp_??0ioHashString@@QAE@PBD@Z
  005fd	8d 85 b4 fa ff
	ff		 lea	 eax, DWORD PTR $T520925[ebp]
  00603	50		 push	 eax
  00604	ff b6 78 01 00
	00		 push	 DWORD PTR [esi+376]
  0060a	8b cf		 mov	 ecx, edi
  0060c	c6 45 fc 01	 mov	 BYTE PTR __$EHRec$[ebp+8], 1
  00610	e8 00 00 00 00	 call	 ?SetFilePath@ItemCustomMakeUploadWnd@@QAEXPAVioWnd@@ABVioHashString@@@Z ; ItemCustomMakeUploadWnd::SetFilePath
  00615	8d 8d b4 fa ff
	ff		 lea	 ecx, DWORD PTR $T520925[ebp]
  0061b	88 5d fc	 mov	 BYTE PTR __$EHRec$[ebp+8], bl
  0061e	ff 15 00 00 00
	00		 call	 DWORD PTR __imp_??1ioHashString@@QAE@XZ

; 857  : 			}
; 858  : 		}
; 859  : 	}

  00624	e9 b1 00 00 00	 jmp	 $LN1@SetFileNam
$LN9@SetFileNam:

; 860  : 	else if( m_eReturnType == RWT_MODE_FIND_BACK_CHANGE_WND )

  00629	83 f8 08	 cmp	 eax, 8
  0062c	0f 85 a8 00 00
	00		 jne	 $LN1@SetFileNam

; 861  : 	{
; 862  : 		if( m_pReturnWnd )
; 863  : 		{
; 864  : 			char szFullPath[MAX_PATH*2]="";

  00632	68 07 02 00 00	 push	 519			; 00000207H
  00637	8d 85 dd fa ff
	ff		 lea	 eax, DWORD PTR _szFullPath$510126[ebp+1]
  0063d	53		 push	 ebx
  0063e	50		 push	 eax
  0063f	88 9d dc fa ff
	ff		 mov	 BYTE PTR _szFullPath$510126[ebp], bl
  00645	e8 00 00 00 00	 call	 _memset
  0064a	83 c4 0c	 add	 esp, 12			; 0000000cH

; 865  : 			StringCbPrintf( szFullPath, sizeof( szFullPath ), "%s\\%s", m_szRootFolder.c_str(), szFileName.c_str() );

  0064d	8d 8d c8 fa ff
	ff		 lea	 ecx, DWORD PTR _szFileName$[ebp]
  00653	ff 15 00 00 00
	00		 call	 DWORD PTR __imp_?c_str@ioHashString@@QBEPBDXZ
  00659	50		 push	 eax
  0065a	8d 8e 84 01 00
	00		 lea	 ecx, DWORD PTR [esi+388]
  00660	ff 15 00 00 00
	00		 call	 DWORD PTR __imp_?c_str@ioHashString@@QBEPBDXZ
  00666	50		 push	 eax
  00667	68 00 00 00 00	 push	 OFFSET ??_C@_05BMGBEOOC@?$CFs?2?$CFs?$AA@
  0066c	8d 85 dc fa ff
	ff		 lea	 eax, DWORD PTR _szFullPath$510126[ebp]
  00672	68 08 02 00 00	 push	 520			; 00000208H
  00677	50		 push	 eax
  00678	e8 00 00 00 00	 call	 ?StringCbPrintfA@@YAJPADIPBDZZ ; StringCbPrintfA
  0067d	83 c4 14	 add	 esp, 20			; 00000014H

; 866  : 			if( m_pReturnWnd )

  00680	39 9e 78 01 00
	00		 cmp	 DWORD PTR [esi+376], ebx
  00686	74 52		 je	 SHORT $LN1@SetFileNam

; 867  : 			{
; 868  : 				if( g_BackgroundMgr.CopyCustomFindModeBack( szFullPath ) )

  00688	8d 85 dc fa ff
	ff		 lea	 eax, DWORD PTR _szFullPath$510126[ebp]
  0068e	50		 push	 eax
  0068f	e8 00 00 00 00	 call	 ?GetSingleton@ioInterfaceBackground@@SAAAV1@XZ ; ioInterfaceBackground::GetSingleton
  00694	8b c8		 mov	 ecx, eax
  00696	e8 00 00 00 00	 call	 ?CopyCustomFindModeBack@ioInterfaceBackground@@QAE_NPAD@Z ; ioInterfaceBackground::CopyCustomFindModeBack
  0069b	84 c0		 test	 al, al
  0069d	74 0f		 je	 SHORT $LN2@SetFileNam

; 869  : 				{
; 870  : 					g_BackgroundMgr.LoadCustomFindModeBack();

  0069f	53		 push	 ebx
  006a0	e8 00 00 00 00	 call	 ?GetSingleton@ioInterfaceBackground@@SAAAV1@XZ ; ioInterfaceBackground::GetSingleton
  006a5	8b c8		 mov	 ecx, eax
  006a7	e8 00 00 00 00	 call	 ?LoadCustomFindModeBack@ioInterfaceBackground@@QAEX_N@Z ; ioInterfaceBackground::LoadCustomFindModeBack

; 871  : 				}
; 872  : 				else

  006ac	eb 2c		 jmp	 SHORT $LN1@SetFileNam
$LN2@SetFileNam:

; 873  : 				{
; 874  : 					g_GUIMgr.SetMsgBox( MB_OK, NULL, STR(1) );

  006ae	53		 push	 ebx
  006af	6a 01		 push	 1
$LN72@SetFileNam:
  006b1	68 00 00 00 00	 push	 OFFSET ??_C@_00CNPNBAHC@?$AA@
  006b6	68 00 00 00 00	 push	 OFFSET ??_C@_0BO@IKAEBEJC@FileListWnd?3?3SetFileNameBtnUP?$AA@
  006bb	ff 15 00 00 00
	00		 call	 DWORD PTR __imp_?GetSingleton@ioStringManager@@SAAAV1@XZ
  006c1	8b c8		 mov	 ecx, eax
  006c3	ff 15 00 00 00
	00		 call	 DWORD PTR __imp_?GetString@ioStringManager@@QAEPADPBD0HW4FileNamePrefix@1@@Z
  006c9	50		 push	 eax
  006ca	53		 push	 ebx
  006cb	53		 push	 ebx
  006cc	e8 00 00 00 00	 call	 ?GetSingleton@ioSP2GUIManager@@SAAAV1@XZ ; ioSP2GUIManager::GetSingleton
  006d1	50		 push	 eax
  006d2	e8 00 00 00 00	 call	 ?SetMsgBox@ioSP2GUIManager@@QAAXHPAVioWnd@@PBDZZ ; ioSP2GUIManager::SetMsgBox
  006d7	83 c4 10	 add	 esp, 16			; 00000010H
$LN1@SetFileNam:

; 875  : 				}
; 876  : 			}
; 877  : 		}
; 878  : 	}
; 879  : 
; 880  : 	HideWnd();

  006da	8b ce		 mov	 ecx, esi
  006dc	ff 15 00 00 00
	00		 call	 DWORD PTR __imp_?HideWnd@ioWnd@@QAEXXZ
$LN69@SetFileNam:

; 881  : }

  006e2	8d 8d c8 fa ff
	ff		 lea	 ecx, DWORD PTR _szFileName$[ebp]
$LN70@SetFileNam:
  006e8	83 4d fc ff	 or	 DWORD PTR __$EHRec$[ebp+8], -1
  006ec	ff 15 00 00 00
	00		 call	 DWORD PTR __imp_??1ioHashString@@QAE@XZ
$LN57@SetFileNam:
  006f2	e8 00 00 00 00	 call	 __EH_epilog3_GS
  006f7	c2 04 00	 ret	 4
_TEXT	ENDS
;	COMDAT text$x
text$x	SEGMENT
__unwindfunclet$?SetFileNameBtnUP@FileListWnd@@IAEXK@Z$0:
  00000	8d 8d c8 fa ff
	ff		 lea	 ecx, DWORD PTR _szFileName$[ebp]
  00006	ff 25 00 00 00
	00		 jmp	 DWORD PTR __imp_??1ioHashString@@QAE@XZ
__unwindfunclet$?SetFileNameBtnUP@FileListWnd@@IAEXK@Z$1:
  0000c	8d 8d b4 fa ff
	ff		 lea	 ecx, DWORD PTR $T520925[ebp]
  00012	ff 25 00 00 00
	00		 jmp	 DWORD PTR __imp_??1ioHashString@@QAE@XZ
__ehhandler$?SetFileNameBtnUP@FileListWnd@@IAEXK@Z:
  00018	8b 54 24 08	 mov	 edx, DWORD PTR [esp+8]
  0001c	8d 42 0c	 lea	 eax, DWORD PTR [edx+12]
  0001f	8b 8a b0 fa ff
	ff		 mov	 ecx, DWORD PTR [edx-1360]
  00025	33 c8		 xor	 ecx, eax
  00027	e8 00 00 00 00	 call	 @__security_check_cookie@4
  0002c	8b 4a fc	 mov	 ecx, DWORD PTR [edx-4]
  0002f	33 c8		 xor	 ecx, eax
  00031	e8 00 00 00 00	 call	 @__security_check_cookie@4
  00036	b8 00 00 00 00	 mov	 eax, OFFSET __ehfuncinfo$?SetFileNameBtnUP@FileListWnd@@IAEXK@Z
  0003b	e9 00 00 00 00	 jmp	 ___CxxFrameHandler3
text$x	ENDS
?SetFileNameBtnUP@FileListWnd@@IAEXK@Z ENDP		; FileListWnd::SetFileNameBtnUP
PUBLIC	_this$GSCopy$
PUBLIC	__$ArrayPad$
PUBLIC	?SetParentFolderFileList@FileListWnd@@IAEXXZ	; FileListWnd::SetParentFolderFileList
; Function compile flags: /Ogsp
;	COMDAT ?SetParentFolderFileList@FileListWnd@@IAEXXZ
_TEXT	SEGMENT
_this$GSCopy$ = -528					; size = 4
_szNewRootFolder$ = -524				; size = 520
__$ArrayPad$ = -4					; size = 4
?SetParentFolderFileList@FileListWnd@@IAEXXZ PROC	; FileListWnd::SetParentFolderFileList, COMDAT
; _this$ = ecx

; 995  : {

  00000	55		 push	 ebp
  00001	8b ec		 mov	 ebp, esp
  00003	81 ec 10 02 00
	00		 sub	 esp, 528		; 00000210H
  00009	a1 00 00 00 00	 mov	 eax, DWORD PTR ___security_cookie
  0000e	33 c5		 xor	 eax, ebp
  00010	89 45 fc	 mov	 DWORD PTR __$ArrayPad$[ebp], eax
  00013	53		 push	 ebx
  00014	56		 push	 esi
  00015	8b f1		 mov	 esi, ecx

; 996  : 	if( m_szRootFolder.IsEmpty() ) return;

  00017	8d 9e 84 01 00
	00		 lea	 ebx, DWORD PTR [esi+388]
  0001d	8b cb		 mov	 ecx, ebx

; 1012 : 		return;
; 1013 : 
; 1014 : 	char szNewRootFolder[MAX_PATH*2]="";

  0001f	89 b5 f0 fd ff
	ff		 mov	 DWORD PTR _this$GSCopy$[ebp], esi
  00025	ff 15 00 00 00
	00		 call	 DWORD PTR __imp_?IsEmpty@ioHashString@@QBE_NXZ
  0002b	84 c0		 test	 al, al
  0002d	0f 85 b6 00 00
	00		 jne	 $LN1@SetParentF

; 997  : 	if( m_szFileExt.IsEmpty() ) return;

  00033	8d 8e 94 01 00
	00		 lea	 ecx, DWORD PTR [esi+404]
  00039	ff 15 00 00 00
	00		 call	 DWORD PTR __imp_?IsEmpty@ioHashString@@QBE_NXZ
  0003f	84 c0		 test	 al, al
  00041	0f 85 a2 00 00
	00		 jne	 $LN1@SetParentF

; 998  : 
; 999  : 	int iNewLength = 0;
; 1000 : 	int iLength = m_szRootFolder.Length();

  00047	8b cb		 mov	 ecx, ebx
  00049	ff 15 00 00 00
	00		 call	 DWORD PTR __imp_?Length@ioHashString@@QBEHXZ
  0004f	8b f0		 mov	 esi, eax

; 1001 : 	for (int i = iLength - 1; i >= 0 ; i--)

  00051	4e		 dec	 esi
  00052	0f 88 91 00 00
	00		 js	 $LN1@SetParentF
  00058	57		 push	 edi
  00059	8b 3d 00 00 00
	00		 mov	 edi, DWORD PTR __imp_?At@ioHashString@@QBEDH@Z
$LL7@SetParentF:

; 1002 : 	{
; 1003 : 		if( m_szRootFolder.At( i ) == '\\' || m_szRootFolder.At( i ) == '/' )

  0005f	56		 push	 esi
  00060	8b cb		 mov	 ecx, ebx
  00062	ff d7		 call	 edi
  00064	3c 5c		 cmp	 al, 92			; 0000005cH
  00066	74 0e		 je	 SHORT $LN13@SetParentF
  00068	56		 push	 esi
  00069	8b cb		 mov	 ecx, ebx
  0006b	ff d7		 call	 edi
  0006d	3c 2f		 cmp	 al, 47			; 0000002fH
  0006f	74 05		 je	 SHORT $LN13@SetParentF

; 1001 : 	for (int i = iLength - 1; i >= 0 ; i--)

  00071	4e		 dec	 esi
  00072	79 eb		 jns	 SHORT $LL7@SetParentF

; 1002 : 	{
; 1003 : 		if( m_szRootFolder.At( i ) == '\\' || m_szRootFolder.At( i ) == '/' )

  00074	eb 72		 jmp	 SHORT $LN16@SetParentF
$LN13@SetParentF:

; 1004 : 		{
; 1005 : 			iNewLength = i;
; 1006 : 			break;
; 1007 : 		}
; 1008 : 	}
; 1009 : 
; 1010 : 	//   \\, /   .
; 1011 : 	if( iNewLength == 0 )

  00076	85 f6		 test	 esi, esi
  00078	74 6e		 je	 SHORT $LN16@SetParentF

; 1012 : 		return;
; 1013 : 
; 1014 : 	char szNewRootFolder[MAX_PATH*2]="";

  0007a	68 07 02 00 00	 push	 519			; 00000207H
  0007f	8d 85 f5 fd ff
	ff		 lea	 eax, DWORD PTR _szNewRootFolder$[ebp+1]
  00085	6a 00		 push	 0
  00087	50		 push	 eax
  00088	c6 85 f4 fd ff
	ff 00		 mov	 BYTE PTR _szNewRootFolder$[ebp], 0
  0008f	e8 00 00 00 00	 call	 _memset
  00094	83 c4 0c	 add	 esp, 12			; 0000000cH

; 1015 : 	StringCbCopyN( szNewRootFolder, sizeof( szNewRootFolder ), m_szRootFolder.c_str(), iNewLength );

  00097	56		 push	 esi
  00098	8b cb		 mov	 ecx, ebx
  0009a	ff 15 00 00 00
	00		 call	 DWORD PTR __imp_?c_str@ioHashString@@QBEPBDXZ
  000a0	50		 push	 eax
  000a1	68 08 02 00 00	 push	 520			; 00000208H
  000a6	8d 85 f4 fd ff
	ff		 lea	 eax, DWORD PTR _szNewRootFolder$[ebp]
  000ac	50		 push	 eax
  000ad	e8 00 00 00 00	 call	 ?StringCbCopyNA@@YGJPADIPBDI@Z ; StringCbCopyNA

; 1016 : 	UpdateByNewPath( szNewRootFolder );

  000b2	8b 8d f0 fd ff
	ff		 mov	 ecx, DWORD PTR _this$GSCopy$[ebp]
  000b8	8d 85 f4 fd ff
	ff		 lea	 eax, DWORD PTR _szNewRootFolder$[ebp]
  000be	50		 push	 eax
  000bf	e8 00 00 00 00	 call	 ?UpdateByNewPath@FileListWnd@@IAEXPBD@Z ; FileListWnd::UpdateByNewPath

; 1017 : 	if( strlen( szNewRootFolder ) == 2 ) // c:

  000c4	8d 85 f4 fd ff
	ff		 lea	 eax, DWORD PTR _szNewRootFolder$[ebp]
  000ca	8d 48 01	 lea	 ecx, DWORD PTR [eax+1]
$LL15@SetParentF:
  000cd	8a 10		 mov	 dl, BYTE PTR [eax]
  000cf	40		 inc	 eax
  000d0	84 d2		 test	 dl, dl
  000d2	75 f9		 jne	 SHORT $LL15@SetParentF
  000d4	2b c1		 sub	 eax, ecx
  000d6	83 f8 02	 cmp	 eax, 2
  000d9	75 0d		 jne	 SHORT $LN16@SetParentF

; 1018 : 		SetChildInActive( ID_PARENT_FOLDER );

  000db	8b 8d f0 fd ff
	ff		 mov	 ecx, DWORD PTR _this$GSCopy$[ebp]
  000e1	50		 push	 eax
  000e2	ff 15 00 00 00
	00		 call	 DWORD PTR __imp_?SetChildInActive@ioWnd@@QAEXK@Z
$LN16@SetParentF:
  000e8	5f		 pop	 edi
$LN1@SetParentF:

; 1019 : }

  000e9	8b 4d fc	 mov	 ecx, DWORD PTR __$ArrayPad$[ebp]
  000ec	5e		 pop	 esi
  000ed	33 cd		 xor	 ecx, ebp
  000ef	5b		 pop	 ebx
  000f0	e8 00 00 00 00	 call	 @__security_check_cookie@4
  000f5	c9		 leave
  000f6	c3		 ret	 0
?SetParentFolderFileList@FileListWnd@@IAEXXZ ENDP	; FileListWnd::SetParentFolderFileList
_TEXT	ENDS
PUBLIC	?SetPullDownMenu@FileListWnd@@IAEXPAVioWnd@@@Z	; FileListWnd::SetPullDownMenu
;	COMDAT xdata$x
; File c:\program files (x86)\microsoft visual studio 10.0\vc\include\vector
xdata$x	SEGMENT
__unwindtable$?SetPullDownMenu@FileListWnd@@IAEXPAVioWnd@@@Z DD 0ffffffffH
	DD	FLAT:__unwindfunclet$?SetPullDownMenu@FileListWnd@@IAEXPAVioWnd@@@Z$0
__ehfuncinfo$?SetPullDownMenu@FileListWnd@@IAEXPAVioWnd@@@Z DD 019930522H
	DD	01H
	DD	FLAT:__unwindtable$?SetPullDownMenu@FileListWnd@@IAEXPAVioWnd@@@Z
	DD	2 DUP(00H)
	DD	2 DUP(00H)
	DD	00H
	DD	01H
; Function compile flags: /Ogsp
; File d:\lost saga for developer\youtube\tutorial\source\src\lsclient\gui\filelistwnd.cpp
xdata$x	ENDS
;	COMDAT ?SetPullDownMenu@FileListWnd@@IAEXPAVioWnd@@@Z
_TEXT	SEGMENT
_vList$510224 = -28					; size = 16
__$EHRec$ = -12						; size = 12
$T521049 = 8						; size = 4
_pOpenBtn$ = 8						; size = 4
?SetPullDownMenu@FileListWnd@@IAEXPAVioWnd@@@Z PROC	; FileListWnd::SetPullDownMenu, COMDAT
; _this$ = ecx

; 1022 : {

  00000	6a 10		 push	 16			; 00000010H
  00002	b8 00 00 00 00	 mov	 eax, __ehhandler$?SetPullDownMenu@FileListWnd@@IAEXPAVioWnd@@@Z
  00007	e8 00 00 00 00	 call	 __EH_prolog3
  0000c	8b d9		 mov	 ebx, ecx

; 1023 : 	if( !pOpenBtn ) return;

  0000e	33 f6		 xor	 esi, esi
  00010	39 75 08	 cmp	 DWORD PTR _pOpenBtn$[ebp], esi
  00013	74 7c		 je	 SHORT $LN34@SetPullDow

; 1024 : 
; 1025 : 	FileDriveListWnd *pPullDownWnd = dynamic_cast<FileDriveListWnd *>(FindChildWnd( ID_PULLDOWN_WND ));

  00015	56		 push	 esi
  00016	68 00 00 00 00	 push	 OFFSET ??_R0?AVFileDriveListWnd@@@8
  0001b	68 00 00 00 00	 push	 OFFSET ??_R0?AVioWnd@@@8
  00020	56		 push	 esi
  00021	68 e9 03 00 00	 push	 1001			; 000003e9H
  00026	ff 15 00 00 00
	00		 call	 DWORD PTR __imp_?FindChildWnd@ioWnd@@QAEPAV1@K@Z
  0002c	50		 push	 eax
  0002d	e8 00 00 00 00	 call	 ___RTDynamicCast
  00032	8b f8		 mov	 edi, eax
  00034	83 c4 14	 add	 esp, 20			; 00000014H

; 1026 : 	if( pPullDownWnd )

  00037	3b fe		 cmp	 edi, esi
  00039	74 56		 je	 SHORT $LN34@SetPullDow

; 1027 : 	{
; 1028 : 		if( pPullDownWnd->IsShow() )

  0003b	8b cf		 mov	 ecx, edi
  0003d	ff 15 00 00 00
	00		 call	 DWORD PTR __imp_?IsShow@ioWnd@@QBE_NXZ
  00043	84 c0		 test	 al, al
  00045	74 0a		 je	 SHORT $LN2@SetPullDow

; 1029 : 			pPullDownWnd->HideWnd();

  00047	8b cf		 mov	 ecx, edi
  00049	ff 15 00 00 00
	00		 call	 DWORD PTR __imp_?HideWnd@ioWnd@@QAEXXZ

; 1030 : 		else

  0004f	eb 40		 jmp	 SHORT $LN34@SetPullDow
$LN2@SetPullDow:

; 1031 : 		{			
; 1032 : 			vFileDriveItem vList;

  00051	89 75 e4	 mov	 DWORD PTR _vList$510224[ebp], esi
  00054	89 75 e8	 mov	 DWORD PTR _vList$510224[ebp+4], esi
  00057	89 75 ec	 mov	 DWORD PTR _vList$510224[ebp+8], esi

; 1033 : 			SetDriveList( vList );

  0005a	8d 45 e4	 lea	 eax, DWORD PTR _vList$510224[ebp]
  0005d	50		 push	 eax
  0005e	8b cb		 mov	 ecx, ebx
  00060	89 75 fc	 mov	 DWORD PTR __$EHRec$[ebp+8], esi
  00063	e8 00 00 00 00	 call	 ?SetDriveList@FileListWnd@@IAEXAAV?$vector@UFileDriveItem@@V?$allocator@UFileDriveItem@@@std@@@std@@@Z ; FileListWnd::SetDriveList

; 1034 : 			pPullDownWnd->ShowList( vList );

  00068	8d 45 e4	 lea	 eax, DWORD PTR _vList$510224[ebp]
  0006b	50		 push	 eax
  0006c	8b cf		 mov	 ecx, edi
  0006e	e8 00 00 00 00	 call	 ?ShowList@FileDriveListWnd@@QAEXAAV?$vector@UFileDriveItem@@V?$allocator@UFileDriveItem@@@std@@@std@@@Z ; FileDriveListWnd::ShowList

; 1035 : 			vList.clear();

  00073	ff 75 e8	 push	 DWORD PTR _vList$510224[ebp+4]
  00076	8d 45 08	 lea	 eax, DWORD PTR $T521049[ebp]
  00079	ff 75 e4	 push	 DWORD PTR _vList$510224[ebp]
  0007c	8d 4d e4	 lea	 ecx, DWORD PTR _vList$510224[ebp]
  0007f	50		 push	 eax
  00080	e8 00 00 00 00	 call	 ?erase@?$vector@UFileDriveItem@@V?$allocator@UFileDriveItem@@@std@@@std@@QAE?AV?$_Vector_iterator@V?$_Vector_val@UFileDriveItem@@V?$allocator@UFileDriveItem@@@std@@@std@@@2@V?$_Vector_const_iterator@V?$_Vector_val@UFileDriveItem@@V?$allocator@UFileDriveItem@@@std@@@std@@@2@0@Z ; std::vector<FileDriveItem,std::allocator<FileDriveItem> >::erase

; 1036 : 		}

  00085	83 4d fc ff	 or	 DWORD PTR __$EHRec$[ebp+8], -1
  00089	8d 4d e4	 lea	 ecx, DWORD PTR _vList$510224[ebp]
  0008c	e8 00 00 00 00	 call	 ?_Tidy@?$vector@UFileDriveItem@@V?$allocator@UFileDriveItem@@@std@@@std@@IAEXXZ ; std::vector<FileDriveItem,std::allocator<FileDriveItem> >::_Tidy
$LN34@SetPullDow:

; 1037 : 	}
; 1038 : }

  00091	e8 00 00 00 00	 call	 __EH_epilog3
  00096	c2 04 00	 ret	 4
_TEXT	ENDS
;	COMDAT text$x
text$x	SEGMENT
__unwindfunclet$?SetPullDownMenu@FileListWnd@@IAEXPAVioWnd@@@Z$0:
  00000	8d 4d e4	 lea	 ecx, DWORD PTR _vList$510224[ebp]
  00003	e9 00 00 00 00	 jmp	 ??1?$vector@UFileDriveItem@@V?$allocator@UFileDriveItem@@@std@@@std@@QAE@XZ ; std::vector<FileDriveItem,std::allocator<FileDriveItem> >::~vector<FileDriveItem,std::allocator<FileDriveItem> >
__ehhandler$?SetPullDownMenu@FileListWnd@@IAEXPAVioWnd@@@Z:
  00008	8b 54 24 08	 mov	 edx, DWORD PTR [esp+8]
  0000c	8d 42 0c	 lea	 eax, DWORD PTR [edx+12]
  0000f	8b 4a e0	 mov	 ecx, DWORD PTR [edx-32]
  00012	33 c8		 xor	 ecx, eax
  00014	e8 00 00 00 00	 call	 @__security_check_cookie@4
  00019	b8 00 00 00 00	 mov	 eax, OFFSET __ehfuncinfo$?SetPullDownMenu@FileListWnd@@IAEXPAVioWnd@@@Z
  0001e	e9 00 00 00 00	 jmp	 ___CxxFrameHandler3
text$x	ENDS
?SetPullDownMenu@FileListWnd@@IAEXPAVioWnd@@@Z ENDP	; FileListWnd::SetPullDownMenu
PUBLIC	??_C@_03CGGPNEOP@?$CFc?3?$AA@			; `string'
PUBLIC	??_C@_07CLAAGKKP@?$CFs?5Fail?$AA@		; `string'
PUBLIC	??_C@_0BO@HBBIHAKO@FileListWnd?3?3SetPullDownBtnUP?$AA@ ; `string'
PUBLIC	_this$GSCopy$
PUBLIC	?SetPullDownBtnUP@FileListWnd@@IAEXPAVioWnd@@@Z	; FileListWnd::SetPullDownBtnUP
;	COMDAT ??_C@_03CGGPNEOP@?$CFc?3?$AA@
CONST	SEGMENT
??_C@_03CGGPNEOP@?$CFc?3?$AA@ DB '%c:', 00H		; `string'
CONST	ENDS
;	COMDAT ??_C@_07CLAAGKKP@?$CFs?5Fail?$AA@
CONST	SEGMENT
??_C@_07CLAAGKKP@?$CFs?5Fail?$AA@ DB '%s Fail', 00H	; `string'
CONST	ENDS
;	COMDAT ??_C@_0BO@HBBIHAKO@FileListWnd?3?3SetPullDownBtnUP?$AA@
CONST	SEGMENT
??_C@_0BO@HBBIHAKO@FileListWnd?3?3SetPullDownBtnUP?$AA@ DB 'FileListWnd::'
	DB	'SetPullDownBtnUP', 00H			; `string'
CONST	ENDS
;	COMDAT xdata$x
xdata$x	SEGMENT
__unwindtable$?SetPullDownBtnUP@FileListWnd@@IAEXPAVioWnd@@@Z DD 0ffffffffH
	DD	FLAT:__unwindfunclet$?SetPullDownBtnUP@FileListWnd@@IAEXPAVioWnd@@@Z$0
__ehfuncinfo$?SetPullDownBtnUP@FileListWnd@@IAEXPAVioWnd@@@Z DD 019930522H
	DD	01H
	DD	FLAT:__unwindtable$?SetPullDownBtnUP@FileListWnd@@IAEXPAVioWnd@@@Z
	DD	2 DUP(00H)
	DD	2 DUP(00H)
	DD	00H
	DD	01H
; Function compile flags: /Ogsp
xdata$x	ENDS
;	COMDAT ?SetPullDownBtnUP@FileListWnd@@IAEXPAVioWnd@@@Z
_TEXT	SEGMENT
_kItem$510276 = -300					; size = 20
_this$GSCopy$ = -280					; size = 4
_szDriveName$510282 = -276				; size = 260
__$EHRec$ = -12						; size = 12
_pBtnUpWnd$ = 8						; size = 4
?SetPullDownBtnUP@FileListWnd@@IAEXPAVioWnd@@@Z PROC	; FileListWnd::SetPullDownBtnUP, COMDAT
; _this$ = ecx

; 1093 : {

  00000	68 20 01 00 00	 push	 288			; 00000120H
  00005	b8 00 00 00 00	 mov	 eax, __ehhandler$?SetPullDownBtnUP@FileListWnd@@IAEXPAVioWnd@@@Z
  0000a	e8 00 00 00 00	 call	 __EH_prolog3_GS
  0000f	8b 45 08	 mov	 eax, DWORD PTR _pBtnUpWnd$[ebp]

; 1094 : 	FileDriveListWnd *pPullDownWnd = dynamic_cast<FileDriveListWnd *>(pBtnUpWnd);

  00012	33 db		 xor	 ebx, ebx
  00014	53		 push	 ebx
  00015	68 00 00 00 00	 push	 OFFSET ??_R0?AVFileDriveListWnd@@@8
  0001a	68 00 00 00 00	 push	 OFFSET ??_R0?AVioWnd@@@8
  0001f	53		 push	 ebx
  00020	50		 push	 eax
  00021	89 8d e8 fe ff
	ff		 mov	 DWORD PTR _this$GSCopy$[ebp], ecx
  00027	e8 00 00 00 00	 call	 ___RTDynamicCast
  0002c	8b f8		 mov	 edi, eax
  0002e	83 c4 14	 add	 esp, 20			; 00000014H

; 1095 : 	if( pPullDownWnd )

  00031	3b fb		 cmp	 edi, ebx
  00033	0f 84 f0 00 00
	00		 je	 $LN3@SetPullDow@2

; 1096 : 	{
; 1097 : 		FileDriveItem kItem = pPullDownWnd->GetOverDriveItem();

  00039	8d b7 9c 01 00
	00		 lea	 esi, DWORD PTR [edi+412]
  0003f	56		 push	 esi
  00040	8d 8d d4 fe ff
	ff		 lea	 ecx, DWORD PTR _kItem$510276[ebp]
  00046	ff 15 00 00 00
	00		 call	 DWORD PTR __imp_??0ioHashString@@QAE@ABV0@@Z
  0004c	8b 46 10	 mov	 eax, DWORD PTR [esi+16]
  0004f	89 85 e4 fe ff
	ff		 mov	 DWORD PTR _kItem$510276[ebp+16], eax

; 1098 : 		if( kItem.m_szName.IsEmpty() )

  00055	8d 8d d4 fe ff
	ff		 lea	 ecx, DWORD PTR _kItem$510276[ebp]
  0005b	89 5d fc	 mov	 DWORD PTR __$EHRec$[ebp+8], ebx
  0005e	ff 15 00 00 00
	00		 call	 DWORD PTR __imp_?IsEmpty@ioHashString@@QBE_NXZ
  00064	84 c0		 test	 al, al
  00066	74 1f		 je	 SHORT $LN2@SetPullDow@2

; 1099 : 		{
; 1100 : 			LOG.PrintTimeAndLog( 0, "%s Fail", __FUNCTION__ );

  00068	68 00 00 00 00	 push	 OFFSET ??_C@_0BO@HBBIHAKO@FileListWnd?3?3SetPullDownBtnUP?$AA@
  0006d	68 00 00 00 00	 push	 OFFSET ??_C@_07CLAAGKKP@?$CFs?5Fail?$AA@
  00072	53		 push	 ebx
  00073	ff 35 00 00 00
	00		 push	 DWORD PTR __imp_?LOG@@3VCLog@@A
  00079	ff 15 00 00 00
	00		 call	 DWORD PTR __imp_?PrintTimeAndLog@CLog@@QAAXHPADZZ
  0007f	83 c4 10	 add	 esp, 16			; 00000010H

; 1101 : 			return;

  00082	e9 92 00 00 00	 jmp	 $LN19@SetPullDow@2
$LN2@SetPullDow@2:

; 1102 : 		}
; 1103 : 	
; 1104 : 		ioWnd *pDiskBtn = FindChildWnd( ID_SELECT_DISK );

  00087	8b 8d e8 fe ff
	ff		 mov	 ecx, DWORD PTR _this$GSCopy$[ebp]
  0008d	6a 03		 push	 3
  0008f	ff 15 00 00 00
	00		 call	 DWORD PTR __imp_?FindChildWnd@ioWnd@@QAEPAV1@K@Z
  00095	8b f0		 mov	 esi, eax

; 1105 : 		if( pDiskBtn )

  00097	3b f3		 cmp	 esi, ebx
  00099	74 1b		 je	 SHORT $LN1@SetPullDow@2

; 1106 : 			pDiskBtn->SetTitleText( kItem.m_szName.c_str() );

  0009b	53		 push	 ebx
  0009c	68 00 00 00 00	 push	 OFFSET ??_C@_00CNPNBAHC@?$AA@
  000a1	8d 8d d4 fe ff
	ff		 lea	 ecx, DWORD PTR _kItem$510276[ebp]
  000a7	ff 15 00 00 00
	00		 call	 DWORD PTR __imp_?c_str@ioHashString@@QBEPBDXZ
  000ad	50		 push	 eax
  000ae	8b ce		 mov	 ecx, esi
  000b0	ff 15 00 00 00
	00		 call	 DWORD PTR __imp_?SetTitleText@ioWnd@@QAEXPBD0H@Z
$LN1@SetPullDow@2:

; 1107 : 
; 1108 : 		char szDriveName[MAX_PATH]="";

  000b6	68 03 01 00 00	 push	 259			; 00000103H
  000bb	8d 85 ed fe ff
	ff		 lea	 eax, DWORD PTR _szDriveName$510282[ebp+1]
  000c1	53		 push	 ebx
  000c2	50		 push	 eax
  000c3	88 9d ec fe ff
	ff		 mov	 BYTE PTR _szDriveName$510282[ebp], bl
  000c9	e8 00 00 00 00	 call	 _memset

; 1109 : 		StringCbPrintf( szDriveName, sizeof( szDriveName ), "%c:", kItem.m_iMagicCode+65 ); // 65 A

  000ce	8b 85 e4 fe ff
	ff		 mov	 eax, DWORD PTR _kItem$510276[ebp+16]
  000d4	83 c0 41	 add	 eax, 65			; 00000041H
  000d7	50		 push	 eax
  000d8	68 00 00 00 00	 push	 OFFSET ??_C@_03CGGPNEOP@?$CFc?3?$AA@
  000dd	8d 85 ec fe ff
	ff		 lea	 eax, DWORD PTR _szDriveName$510282[ebp]
  000e3	68 04 01 00 00	 push	 260			; 00000104H
  000e8	50		 push	 eax
  000e9	e8 00 00 00 00	 call	 ?StringCbPrintfA@@YAJPADIPBDZZ ; StringCbPrintfA

; 1110 : 		UpdateByNewPath( szDriveName );

  000ee	8b 8d e8 fe ff
	ff		 mov	 ecx, DWORD PTR _this$GSCopy$[ebp]
  000f4	83 c4 1c	 add	 esp, 28			; 0000001cH
  000f7	8d 85 ec fe ff
	ff		 lea	 eax, DWORD PTR _szDriveName$510282[ebp]
  000fd	50		 push	 eax
  000fe	e8 00 00 00 00	 call	 ?UpdateByNewPath@FileListWnd@@IAEXPBD@Z ; FileListWnd::UpdateByNewPath

; 1111 : 		SetChildInActive( ID_PARENT_FOLDER );

  00103	8b 8d e8 fe ff
	ff		 mov	 ecx, DWORD PTR _this$GSCopy$[ebp]
  00109	6a 02		 push	 2
  0010b	ff 15 00 00 00
	00		 call	 DWORD PTR __imp_?SetChildInActive@ioWnd@@QAEXK@Z

; 1112 : 
; 1113 : 		pPullDownWnd->HideWnd();

  00111	8b cf		 mov	 ecx, edi
  00113	ff 15 00 00 00
	00		 call	 DWORD PTR __imp_?HideWnd@ioWnd@@QAEXXZ
$LN19@SetPullDow@2:

; 1114 : 	}

  00119	83 4d fc ff	 or	 DWORD PTR __$EHRec$[ebp+8], -1
  0011d	8d 8d d4 fe ff
	ff		 lea	 ecx, DWORD PTR _kItem$510276[ebp]
  00123	ff 15 00 00 00
	00		 call	 DWORD PTR __imp_??1ioHashString@@QAE@XZ
$LN3@SetPullDow@2:

; 1115 : }

  00129	e8 00 00 00 00	 call	 __EH_epilog3_GS
  0012e	c2 04 00	 ret	 4
_TEXT	ENDS
;	COMDAT text$x
text$x	SEGMENT
__unwindfunclet$?SetPullDownBtnUP@FileListWnd@@IAEXPAVioWnd@@@Z$0:
  00000	8d 8d d4 fe ff
	ff		 lea	 ecx, DWORD PTR _kItem$510276[ebp]
  00006	e9 00 00 00 00	 jmp	 ??1FileDriveItem@@QAE@XZ
__ehhandler$?SetPullDownBtnUP@FileListWnd@@IAEXPAVioWnd@@@Z:
  0000b	8b 54 24 08	 mov	 edx, DWORD PTR [esp+8]
  0000f	8d 42 0c	 lea	 eax, DWORD PTR [edx+12]
  00012	8b 8a d0 fe ff
	ff		 mov	 ecx, DWORD PTR [edx-304]
  00018	33 c8		 xor	 ecx, eax
  0001a	e8 00 00 00 00	 call	 @__security_check_cookie@4
  0001f	8b 4a fc	 mov	 ecx, DWORD PTR [edx-4]
  00022	33 c8		 xor	 ecx, eax
  00024	e8 00 00 00 00	 call	 @__security_check_cookie@4
  00029	b8 00 00 00 00	 mov	 eax, OFFSET __ehfuncinfo$?SetPullDownBtnUP@FileListWnd@@IAEXPAVioWnd@@@Z
  0002e	e9 00 00 00 00	 jmp	 ___CxxFrameHandler3
text$x	ENDS
?SetPullDownBtnUP@FileListWnd@@IAEXPAVioWnd@@@Z ENDP	; FileListWnd::SetPullDownBtnUP
PUBLIC	??_C@_0BJ@GMLPOBKB@FileListWnd?3?3iwm_command?$AA@ ; `string'
EXTRN	?ClearLobbyBackground@ioInterfaceBackground@@QAEXXZ:PROC ; ioInterfaceBackground::ClearLobbyBackground
EXTRN	?ClearLoadingBackground@ioInterfaceBackground@@QAEXXZ:PROC ; ioInterfaceBackground::ClearLoadingBackground
EXTRN	?ClearBattleBackground@ioInterfaceBackground@@QAEXXZ:PROC ; ioInterfaceBackground::ClearBattleBackground
EXTRN	?ClearLadderBackground@ioInterfaceBackground@@QAEXXZ:PROC ; ioInterfaceBackground::ClearLadderBackground
EXTRN	?ClearFindModeBackground@ioInterfaceBackground@@QAEXXZ:PROC ; ioInterfaceBackground::ClearFindModeBackground
;	COMDAT ??_C@_0BJ@GMLPOBKB@FileListWnd?3?3iwm_command?$AA@
CONST	SEGMENT
??_C@_0BJ@GMLPOBKB@FileListWnd?3?3iwm_command?$AA@ DB 'FileListWnd::iwm_c'
	DB	'ommand', 00H				; `string'
; Function compile flags: /Ogsp
CONST	ENDS
;	COMDAT ?iwm_command@FileListWnd@@UAEXPAVioWnd@@HK@Z
_TEXT	SEGMENT
_pWnd$ = 8						; size = 4
_cmd$ = 12						; size = 4
_param$ = 16						; size = 4
?iwm_command@FileListWnd@@UAEXPAVioWnd@@HK@Z PROC	; FileListWnd::iwm_command, COMDAT
; _this$ = ecx

; 581  : {

  00000	55		 push	 ebp
  00001	8b ec		 mov	 ebp, esp
  00003	57		 push	 edi
  00004	8b f9		 mov	 edi, ecx

; 582  : 	DWORD dwID = pWnd->GetID();

  00006	8b 4d 08	 mov	 ecx, DWORD PTR _pWnd$[ebp]
  00009	ff 15 00 00 00
	00		 call	 DWORD PTR __imp_?GetID@ioWnd@@QBEKXZ

; 583  : 	switch( dwID )

  0000f	83 f8 01	 cmp	 eax, 1
  00012	0f 84 66 01 00
	00		 je	 $LN19@iwm_comman@2
  00018	83 f8 02	 cmp	 eax, 2
  0001b	0f 84 4e 01 00
	00		 je	 $LN17@iwm_comman@2
  00021	83 f8 03	 cmp	 eax, 3
  00024	0f 84 33 01 00
	00		 je	 $LN15@iwm_comman@2
  0002a	83 f8 04	 cmp	 eax, 4
  0002d	74 56		 je	 SHORT $LN11@iwm_comman@2
  0002f	83 f8 64	 cmp	 eax, 100		; 00000064H
  00032	0f 86 54 01 00
	00		 jbe	 $LN18@iwm_comman@2
  00038	83 f8 71	 cmp	 eax, 113		; 00000071H
  0003b	76 24		 jbe	 SHORT $LN22@iwm_comman@2
  0003d	3d e9 03 00 00	 cmp	 eax, 1001		; 000003e9H
  00042	0f 85 44 01 00
	00		 jne	 $LN18@iwm_comman@2

; 624  : 	case ID_PULLDOWN_WND:
; 625  : 		if( cmd == IOBN_BTNUP )

  00048	83 7d 0c 11	 cmp	 DWORD PTR _cmd$[ebp], 17 ; 00000011H
  0004c	0f 85 3a 01 00
	00		 jne	 $LN18@iwm_comman@2

; 626  : 		{
; 627  : 			SetPullDownBtnUP( pWnd );

  00052	ff 75 08	 push	 DWORD PTR _pWnd$[ebp]
  00055	8b cf		 mov	 ecx, edi
  00057	e8 00 00 00 00	 call	 ?SetPullDownBtnUP@FileListWnd@@IAEXPAVioWnd@@@Z ; FileListWnd::SetPullDownBtnUP

; 628  : 		}
; 629  : 		break;

  0005c	e9 2b 01 00 00	 jmp	 $LN18@iwm_comman@2
$LN22@iwm_comman@2:

; 584  : 	{
; 585  : 	case ID_LIST_1:
; 586  : 	case ID_LIST_2:
; 587  : 	case ID_LIST_3:
; 588  : 	case ID_LIST_4:
; 589  : 	case ID_LIST_5:
; 590  : 	case ID_LIST_6:
; 591  : 	case ID_LIST_7:
; 592  : 	case ID_LIST_8:
; 593  : 	case ID_LIST_9:
; 594  : 	case ID_LIST_10:
; 595  : 	case ID_LIST_11:
; 596  : 	case ID_LIST_12:
; 597  : 	case ID_LIST_13:
; 598  : 		if( cmd == IOBN_BTNUP )

  00061	83 7d 0c 11	 cmp	 DWORD PTR _cmd$[ebp], 17 ; 00000011H
  00065	0f 85 21 01 00
	00		 jne	 $LN18@iwm_comman@2

; 599  : 		{
; 600  : 			if( param == FileListItem::ID_PARAM_FILENAME_BTNUP )

  0006b	81 7d 10 e9 03
	00 00		 cmp	 DWORD PTR _param$[ebp], 1001 ; 000003e9H
  00072	0f 85 14 01 00
	00		 jne	 $LN18@iwm_comman@2

; 601  : 			{
; 602  : 				SetFileNameBtnUP( dwID );

  00078	50		 push	 eax
  00079	8b cf		 mov	 ecx, edi
  0007b	e8 00 00 00 00	 call	 ?SetFileNameBtnUP@FileListWnd@@IAEXK@Z ; FileListWnd::SetFileNameBtnUP

; 603  : 			}
; 604  : 		}
; 605  : 		break;

  00080	e9 07 01 00 00	 jmp	 $LN18@iwm_comman@2
$LN11@iwm_comman@2:

; 630  : 	case ID_BACKGROUND_CLEAR:
; 631  : 		if( cmd == IOBN_BTNUP )

  00085	83 7d 0c 11	 cmp	 DWORD PTR _cmd$[ebp], 17 ; 00000011H
  00089	0f 85 97 00 00
	00		 jne	 $LN10@iwm_comman@2

; 632  : 		{
; 633  : 			g_GUIMgr.SetMsgBox( MB_OK, NULL, STR(1) );			

  0008f	6a 00		 push	 0
  00091	6a 01		 push	 1
  00093	68 00 00 00 00	 push	 OFFSET ??_C@_00CNPNBAHC@?$AA@
  00098	68 00 00 00 00	 push	 OFFSET ??_C@_0BJ@GMLPOBKB@FileListWnd?3?3iwm_command?$AA@
  0009d	ff 15 00 00 00
	00		 call	 DWORD PTR __imp_?GetSingleton@ioStringManager@@SAAAV1@XZ
  000a3	8b c8		 mov	 ecx, eax
  000a5	ff 15 00 00 00
	00		 call	 DWORD PTR __imp_?GetString@ioStringManager@@QAEPADPBD0HW4FileNamePrefix@1@@Z
  000ab	50		 push	 eax
  000ac	6a 00		 push	 0
  000ae	6a 00		 push	 0
  000b0	e8 00 00 00 00	 call	 ?GetSingleton@ioSP2GUIManager@@SAAAV1@XZ ; ioSP2GUIManager::GetSingleton
  000b5	50		 push	 eax
  000b6	e8 00 00 00 00	 call	 ?SetMsgBox@ioSP2GUIManager@@QAAXHPAVioWnd@@PBDZZ ; ioSP2GUIManager::SetMsgBox

; 634  : 			switch( m_eReturnType )

  000bb	8b 87 7c 01 00
	00		 mov	 eax, DWORD PTR [edi+380]
  000c1	83 c4 10	 add	 esp, 16			; 00000010H
  000c4	83 e8 03	 sub	 eax, 3
  000c7	74 4f		 je	 SHORT $LN7@iwm_comman@2
  000c9	48		 dec	 eax
  000ca	74 3e		 je	 SHORT $LN6@iwm_comman@2
  000cc	48		 dec	 eax
  000cd	74 2d		 je	 SHORT $LN5@iwm_comman@2
  000cf	48		 dec	 eax
  000d0	74 19		 je	 SHORT $LN4@iwm_comman@2
  000d2	48		 dec	 eax
  000d3	48		 dec	 eax
  000d4	0f 85 aa 00 00
	00		 jne	 $LN8@iwm_comman@2

; 648  : 			case RWT_MODE_FIND_BACK_CHANGE_WND:
; 649  : 				g_BackgroundMgr.ClearFindModeBackground();				

  000da	e8 00 00 00 00	 call	 ?GetSingleton@ioInterfaceBackground@@SAAAV1@XZ ; ioInterfaceBackground::GetSingleton
  000df	8b c8		 mov	 ecx, eax
  000e1	e8 00 00 00 00	 call	 ?ClearFindModeBackground@ioInterfaceBackground@@QAEXXZ ; ioInterfaceBackground::ClearFindModeBackground

; 650  : 				break;

  000e6	e9 99 00 00 00	 jmp	 $LN8@iwm_comman@2
$LN4@iwm_comman@2:

; 645  : 			case RWT_LADDER_BACK_CHANGE_WND:
; 646  : 				g_BackgroundMgr.ClearLadderBackground();

  000eb	e8 00 00 00 00	 call	 ?GetSingleton@ioInterfaceBackground@@SAAAV1@XZ ; ioInterfaceBackground::GetSingleton
  000f0	8b c8		 mov	 ecx, eax
  000f2	e8 00 00 00 00	 call	 ?ClearLadderBackground@ioInterfaceBackground@@QAEXXZ ; ioInterfaceBackground::ClearLadderBackground

; 647  : 				break;

  000f7	e9 88 00 00 00	 jmp	 $LN8@iwm_comman@2
$LN5@iwm_comman@2:

; 642  : 			case RWT_BATTLE_BACK_CHANGE_WND:
; 643  : 				g_BackgroundMgr.ClearBattleBackground();

  000fc	e8 00 00 00 00	 call	 ?GetSingleton@ioInterfaceBackground@@SAAAV1@XZ ; ioInterfaceBackground::GetSingleton
  00101	8b c8		 mov	 ecx, eax
  00103	e8 00 00 00 00	 call	 ?ClearBattleBackground@ioInterfaceBackground@@QAEXXZ ; ioInterfaceBackground::ClearBattleBackground

; 644  : 				break;

  00108	eb 7a		 jmp	 SHORT $LN8@iwm_comman@2
$LN6@iwm_comman@2:

; 638  : 				break;
; 639  : 			case RWT_LOADING_BACK_CHANGE_WND:
; 640  : 				g_BackgroundMgr.ClearLoadingBackground();

  0010a	e8 00 00 00 00	 call	 ?GetSingleton@ioInterfaceBackground@@SAAAV1@XZ ; ioInterfaceBackground::GetSingleton
  0010f	8b c8		 mov	 ecx, eax
  00111	e8 00 00 00 00	 call	 ?ClearLoadingBackground@ioInterfaceBackground@@QAEXXZ ; ioInterfaceBackground::ClearLoadingBackground

; 641  : 				break;

  00116	eb 6c		 jmp	 SHORT $LN8@iwm_comman@2
$LN7@iwm_comman@2:

; 635  : 			{
; 636  : 			case RWT_LOBBY_BACK_CHANGE_WND:
; 637  : 				g_BackgroundMgr.ClearLobbyBackground();

  00118	e8 00 00 00 00	 call	 ?GetSingleton@ioInterfaceBackground@@SAAAV1@XZ ; ioInterfaceBackground::GetSingleton
  0011d	8b c8		 mov	 ecx, eax
  0011f	e8 00 00 00 00	 call	 ?ClearLobbyBackground@ioInterfaceBackground@@QAEXXZ ; ioInterfaceBackground::ClearLobbyBackground

; 651  : 			}
; 652  : 			HideWnd();

  00124	eb 5e		 jmp	 SHORT $LN8@iwm_comman@2
$LN10@iwm_comman@2:

; 653  : 		}
; 654  : 		else if( cmd == IOEX_BTNUP )

  00126	83 7d 0c 16	 cmp	 DWORD PTR _cmd$[ebp], 22 ; 00000016H
  0012a	75 60		 jne	 SHORT $LN18@iwm_comman@2

; 655  : 		{
; 656  : 			g_GUIMgr.SetMsgBox( MB_OK, NULL, STR(2) );

  0012c	6a 00		 push	 0
  0012e	6a 02		 push	 2
  00130	68 00 00 00 00	 push	 OFFSET ??_C@_00CNPNBAHC@?$AA@
  00135	68 00 00 00 00	 push	 OFFSET ??_C@_0BJ@GMLPOBKB@FileListWnd?3?3iwm_command?$AA@
  0013a	ff 15 00 00 00
	00		 call	 DWORD PTR __imp_?GetSingleton@ioStringManager@@SAAAV1@XZ
  00140	8b c8		 mov	 ecx, eax
  00142	ff 15 00 00 00
	00		 call	 DWORD PTR __imp_?GetString@ioStringManager@@QAEPADPBD0HW4FileNamePrefix@1@@Z
  00148	50		 push	 eax
  00149	6a 00		 push	 0
  0014b	6a 00		 push	 0
  0014d	e8 00 00 00 00	 call	 ?GetSingleton@ioSP2GUIManager@@SAAAV1@XZ ; ioSP2GUIManager::GetSingleton
  00152	50		 push	 eax
  00153	e8 00 00 00 00	 call	 ?SetMsgBox@ioSP2GUIManager@@QAAXHPAVioWnd@@PBDZZ ; ioSP2GUIManager::SetMsgBox
  00158	83 c4 10	 add	 esp, 16			; 00000010H

; 657  : 		}
; 658  : 		break;

  0015b	eb 2f		 jmp	 SHORT $LN18@iwm_comman@2
$LN15@iwm_comman@2:

; 618  : 	case ID_SELECT_DISK:
; 619  : 		if( cmd == IOBN_BTNUP )

  0015d	83 7d 0c 11	 cmp	 DWORD PTR _cmd$[ebp], 17 ; 00000011H
  00161	75 29		 jne	 SHORT $LN18@iwm_comman@2

; 620  : 		{
; 621  : 			SetPullDownMenu( pWnd );

  00163	ff 75 08	 push	 DWORD PTR _pWnd$[ebp]
  00166	8b cf		 mov	 ecx, edi
  00168	e8 00 00 00 00	 call	 ?SetPullDownMenu@FileListWnd@@IAEXPAVioWnd@@@Z ; FileListWnd::SetPullDownMenu

; 622  : 		}
; 623  : 		break;

  0016d	eb 1d		 jmp	 SHORT $LN18@iwm_comman@2
$LN17@iwm_comman@2:

; 610  : 		}
; 611  : 		break;
; 612  : 	case ID_PARENT_FOLDER:
; 613  : 		if( cmd == IOBN_BTNUP )

  0016f	83 7d 0c 11	 cmp	 DWORD PTR _cmd$[ebp], 17 ; 00000011H
  00173	75 17		 jne	 SHORT $LN18@iwm_comman@2

; 614  : 		{
; 615  : 			SetParentFolderFileList();

  00175	8b cf		 mov	 ecx, edi
  00177	e8 00 00 00 00	 call	 ?SetParentFolderFileList@FileListWnd@@IAEXXZ ; FileListWnd::SetParentFolderFileList

; 616  : 		}
; 617  : 		break;

  0017c	eb 0e		 jmp	 SHORT $LN18@iwm_comman@2
$LN19@iwm_comman@2:

; 606  : 	case ID_EXIT:
; 607  : 		if( cmd == IOBN_BTNUP )

  0017e	83 7d 0c 11	 cmp	 DWORD PTR _cmd$[ebp], 17 ; 00000011H
  00182	75 08		 jne	 SHORT $LN18@iwm_comman@2
$LN8@iwm_comman@2:

; 608  : 		{
; 609  : 			HideWnd();

  00184	8b cf		 mov	 ecx, edi
  00186	ff 15 00 00 00
	00		 call	 DWORD PTR __imp_?HideWnd@ioWnd@@QAEXXZ
$LN18@iwm_comman@2:
  0018c	5f		 pop	 edi

; 659  : 	}
; 660  : }

  0018d	5d		 pop	 ebp
  0018e	c2 0c 00	 ret	 12			; 0000000cH
?iwm_command@FileListWnd@@UAEXPAVioWnd@@HK@Z ENDP	; FileListWnd::iwm_command
_TEXT	ENDS
END
