; Listing generated by Microsoft (R) Optimizing Compiler Version 16.00.30319.01 

	TITLE	D:\Lost Saga For Developer\Youtube\Tutorial\Source\src\LSClient\FindListPredicateImpl.cpp
	.686P
	.XMM
	include listing.inc
	.model	flat

INCLUDELIB MSVCRT
INCLUDELIB OLDNAMES

PUBLIC	?_EEM_DS@?$deque@UD3DXVECTOR3@@V?$allocator@UD3DXVECTOR3@@@std@@@std@@2HB ; std::deque<D3DXVECTOR3,std::allocator<D3DXVECTOR3> >::_EEM_DS
;	COMDAT ?_EEM_DS@?$deque@UD3DXVECTOR3@@V?$allocator@UD3DXVECTOR3@@@std@@@std@@2HB
CONST	SEGMENT
?_EEM_DS@?$deque@UD3DXVECTOR3@@V?$allocator@UD3DXVECTOR3@@@std@@@std@@2HB DD 01H ; std::deque<D3DXVECTOR3,std::allocator<D3DXVECTOR3> >::_EEM_DS
CONST	ENDS
PUBLIC	?return1@@YAIXZ					; return1
; Function compile flags: /Ogsp
; File d:\lost saga for developer\youtube\tutorial\source\src\lsclient\stdafx.h
;	COMDAT ?return1@@YAIXZ
_TEXT	SEGMENT
?return1@@YAIXZ PROC					; return1, COMDAT

; 17   : 	__forceinline unsigned int return1() { __asm mov eax, 1 };

  00000	b8 01 00 00 00	 mov	 eax, 1
  00005	c3		 ret	 0
?return1@@YAIXZ ENDP					; return1
_TEXT	ENDS
PUBLIC	?empty@?$list@PAVioPlayEntity@@V?$allocator@PAVioPlayEntity@@@std@@@std@@QBE_NXZ ; std::list<ioPlayEntity *,std::allocator<ioPlayEntity *> >::empty
; Function compile flags: /Ogsp
; File c:\program files (x86)\microsoft visual studio 10.0\vc\include\list
;	COMDAT ?empty@?$list@PAVioPlayEntity@@V?$allocator@PAVioPlayEntity@@@std@@@std@@QBE_NXZ
_TEXT	SEGMENT
?empty@?$list@PAVioPlayEntity@@V?$allocator@PAVioPlayEntity@@@std@@@std@@QBE_NXZ PROC ; std::list<ioPlayEntity *,std::allocator<ioPlayEntity *> >::empty, COMDAT
; _this$ = ecx

; 887  : 		return (this->_Mysize == 0);

  00000	33 c0		 xor	 eax, eax
  00002	39 41 04	 cmp	 DWORD PTR [ecx+4], eax
  00005	0f 94 c0	 sete	 al

; 888  : 		}

  00008	c3		 ret	 0
?empty@?$list@PAVioPlayEntity@@V?$allocator@PAVioPlayEntity@@@std@@@std@@QBE_NXZ ENDP ; std::list<ioPlayEntity *,std::allocator<ioPlayEntity *> >::empty
_TEXT	ENDS
PUBLIC	??0?$allocator@PAVioPlayEntity@@@std@@QAE@XZ	; std::allocator<ioPlayEntity *>::allocator<ioPlayEntity *>
; Function compile flags: /Ogsp
; File c:\program files (x86)\microsoft visual studio 10.0\vc\include\xmemory
;	COMDAT ??0?$allocator@PAVioPlayEntity@@@std@@QAE@XZ
_TEXT	SEGMENT
??0?$allocator@PAVioPlayEntity@@@std@@QAE@XZ PROC	; std::allocator<ioPlayEntity *>::allocator<ioPlayEntity *>, COMDAT
; _this$ = ecx

; 161  : 	_ALLOCATOR() _THROW0()

  00000	8b c1		 mov	 eax, ecx

; 162  : 		{	// construct default allocator (do nothing)
; 163  : 		}

  00002	c3		 ret	 0
??0?$allocator@PAVioPlayEntity@@@std@@QAE@XZ ENDP	; std::allocator<ioPlayEntity *>::allocator<ioPlayEntity *>
_TEXT	ENDS
PUBLIC	?_Nextnode@?$_List_val@PAVioGameEntity@@V?$allocator@PAVioGameEntity@@@std@@@std@@SAAAPAU_Node@?$_List_nod@PAVioGameEntity@@V?$allocator@PAVioGameEntity@@@std@@@2@PAU342@@Z ; std::_List_val<ioGameEntity *,std::allocator<ioGameEntity *> >::_Nextnode
; Function compile flags: /Ogsp
; File c:\program files (x86)\microsoft visual studio 10.0\vc\include\list
;	COMDAT ?_Nextnode@?$_List_val@PAVioGameEntity@@V?$allocator@PAVioGameEntity@@@std@@@std@@SAAAPAU_Node@?$_List_nod@PAVioGameEntity@@V?$allocator@PAVioGameEntity@@@std@@@2@PAU342@@Z
_TEXT	SEGMENT
__Pnode$ = 8						; size = 4
?_Nextnode@?$_List_val@PAVioGameEntity@@V?$allocator@PAVioGameEntity@@@std@@@std@@SAAAPAU_Node@?$_List_nod@PAVioGameEntity@@V?$allocator@PAVioGameEntity@@@std@@@2@PAU342@@Z PROC ; std::_List_val<ioGameEntity *,std::allocator<ioGameEntity *> >::_Nextnode, COMDAT

; 560  : 		{	// return reference to successor pointer in node

  00000	55		 push	 ebp
  00001	8b ec		 mov	 ebp, esp

; 561  : 		return ((_Nodepref)(*_Pnode)._Next);

  00003	8b 45 08	 mov	 eax, DWORD PTR __Pnode$[ebp]

; 562  : 		}

  00006	5d		 pop	 ebp
  00007	c3		 ret	 0
?_Nextnode@?$_List_val@PAVioGameEntity@@V?$allocator@PAVioGameEntity@@@std@@@std@@SAAAPAU_Node@?$_List_nod@PAVioGameEntity@@V?$allocator@PAVioGameEntity@@@std@@@2@PAU342@@Z ENDP ; std::_List_val<ioGameEntity *,std::allocator<ioGameEntity *> >::_Nextnode
_TEXT	ENDS
PUBLIC	?_Myval@?$_List_val@PAVioGameEntity@@V?$allocator@PAVioGameEntity@@@std@@@std@@SAAAPAVioGameEntity@@PAU_Node@?$_List_nod@PAVioGameEntity@@V?$allocator@PAVioGameEntity@@@std@@@2@@Z ; std::_List_val<ioGameEntity *,std::allocator<ioGameEntity *> >::_Myval
; Function compile flags: /Ogsp
;	COMDAT ?_Myval@?$_List_val@PAVioGameEntity@@V?$allocator@PAVioGameEntity@@@std@@@std@@SAAAPAVioGameEntity@@PAU_Node@?$_List_nod@PAVioGameEntity@@V?$allocator@PAVioGameEntity@@@std@@@2@@Z
_TEXT	SEGMENT
__Pnode$ = 8						; size = 4
?_Myval@?$_List_val@PAVioGameEntity@@V?$allocator@PAVioGameEntity@@@std@@@std@@SAAAPAVioGameEntity@@PAU_Node@?$_List_nod@PAVioGameEntity@@V?$allocator@PAVioGameEntity@@@std@@@2@@Z PROC ; std::_List_val<ioGameEntity *,std::allocator<ioGameEntity *> >::_Myval, COMDAT

; 570  : 		{	// return reference to value in node

  00000	55		 push	 ebp
  00001	8b ec		 mov	 ebp, esp

; 571  : 		return ((reference)(*_Pnode)._Myval);

  00003	8b 45 08	 mov	 eax, DWORD PTR __Pnode$[ebp]
  00006	83 c0 08	 add	 eax, 8

; 572  : 		}

  00009	5d		 pop	 ebp
  0000a	c3		 ret	 0
?_Myval@?$_List_val@PAVioGameEntity@@V?$allocator@PAVioGameEntity@@@std@@@std@@SAAAPAVioGameEntity@@PAU_Node@?$_List_nod@PAVioGameEntity@@V?$allocator@PAVioGameEntity@@@std@@@2@@Z ENDP ; std::_List_val<ioGameEntity *,std::allocator<ioGameEntity *> >::_Myval
_TEXT	ENDS
PUBLIC	??8?$_List_const_iterator@V?$_List_val@PAVioGameEntity@@V?$allocator@PAVioGameEntity@@@std@@@std@@@std@@QBE_NABV01@@Z ; std::_List_const_iterator<std::_List_val<ioGameEntity *,std::allocator<ioGameEntity *> > >::operator==
; Function compile flags: /Ogsp
;	COMDAT ??8?$_List_const_iterator@V?$_List_val@PAVioGameEntity@@V?$allocator@PAVioGameEntity@@@std@@@std@@@std@@QBE_NABV01@@Z
_TEXT	SEGMENT
__Right$ = 8						; size = 4
??8?$_List_const_iterator@V?$_List_val@PAVioGameEntity@@V?$allocator@PAVioGameEntity@@@std@@@std@@@std@@QBE_NABV01@@Z PROC ; std::_List_const_iterator<std::_List_val<ioGameEntity *,std::allocator<ioGameEntity *> > >::operator==, COMDAT
; _this$ = ecx

; 281  : 		{	// test for iterator equality

  00000	55		 push	 ebp
  00001	8b ec		 mov	 ebp, esp

; 282  :  #if _ITERATOR_DEBUG_LEVEL == 2
; 283  : 		if (this->_Getcont() == 0
; 284  : 			|| this->_Getcont() != _Right._Getcont())
; 285  : 			{	// report error
; 286  : 			_DEBUG_ERROR("list iterators incompatible");
; 287  : 			_SCL_SECURE_INVALID_ARGUMENT;
; 288  : 			}
; 289  : 
; 290  :  #elif _ITERATOR_DEBUG_LEVEL == 1
; 291  : 		_SCL_SECURE_VALIDATE(this->_Getcont() != 0
; 292  : 			&& this->_Getcont() == _Right._Getcont());
; 293  :  #endif /* _ITERATOR_DEBUG_LEVEL */
; 294  : 
; 295  : 		return (this->_Ptr == _Right._Ptr);

  00003	8b 01		 mov	 eax, DWORD PTR [ecx]
  00005	8b 4d 08	 mov	 ecx, DWORD PTR __Right$[ebp]
  00008	2b 01		 sub	 eax, DWORD PTR [ecx]
  0000a	f7 d8		 neg	 eax
  0000c	1b c0		 sbb	 eax, eax
  0000e	40		 inc	 eax

; 296  : 		}

  0000f	5d		 pop	 ebp
  00010	c2 04 00	 ret	 4
??8?$_List_const_iterator@V?$_List_val@PAVioGameEntity@@V?$allocator@PAVioGameEntity@@@std@@@std@@@std@@QBE_NABV01@@Z ENDP ; std::_List_const_iterator<std::_List_val<ioGameEntity *,std::allocator<ioGameEntity *> > >::operator==
_TEXT	ENDS
PUBLIC	??0?$_List_unchecked_const_iterator@V?$_List_val@PAVioGameEntity@@V?$allocator@PAVioGameEntity@@@std@@@std@@U_Iterator_base0@2@@std@@QAE@XZ ; std::_List_unchecked_const_iterator<std::_List_val<ioGameEntity *,std::allocator<ioGameEntity *> >,std::_Iterator_base0>::_List_unchecked_const_iterator<std::_List_val<ioGameEntity *,std::allocator<ioGameEntity *> >,std::_Iterator_base0>
; Function compile flags: /Ogsp
;	COMDAT ??0?$_List_unchecked_const_iterator@V?$_List_val@PAVioGameEntity@@V?$allocator@PAVioGameEntity@@@std@@@std@@U_Iterator_base0@2@@std@@QAE@XZ
_TEXT	SEGMENT
??0?$_List_unchecked_const_iterator@V?$_List_val@PAVioGameEntity@@V?$allocator@PAVioGameEntity@@@std@@@std@@U_Iterator_base0@2@@std@@QAE@XZ PROC ; std::_List_unchecked_const_iterator<std::_List_val<ioGameEntity *,std::allocator<ioGameEntity *> >,std::_Iterator_base0>::_List_unchecked_const_iterator<std::_List_val<ioGameEntity *,std::allocator<ioGameEntity *> >,std::_Iterator_base0>, COMDAT
; _this$ = ecx

; 36   : 		{	// construct with null node pointer

  00000	8b c1		 mov	 eax, ecx
  00002	83 20 00	 and	 DWORD PTR [eax], 0

; 37   : 		}

  00005	c3		 ret	 0
??0?$_List_unchecked_const_iterator@V?$_List_val@PAVioGameEntity@@V?$allocator@PAVioGameEntity@@@std@@@std@@U_Iterator_base0@2@@std@@QAE@XZ ENDP ; std::_List_unchecked_const_iterator<std::_List_val<ioGameEntity *,std::allocator<ioGameEntity *> >,std::_Iterator_base0>::_List_unchecked_const_iterator<std::_List_val<ioGameEntity *,std::allocator<ioGameEntity *> >,std::_Iterator_base0>
_TEXT	ENDS
PUBLIC	?_Nextnode@?$_List_val@PAVioPlayEntity@@V?$allocator@PAVioPlayEntity@@@std@@@std@@SAAAPAU_Node@?$_List_nod@PAVioPlayEntity@@V?$allocator@PAVioPlayEntity@@@std@@@2@PAU342@@Z ; std::_List_val<ioPlayEntity *,std::allocator<ioPlayEntity *> >::_Nextnode
; Function compile flags: /Ogsp
;	COMDAT ?_Nextnode@?$_List_val@PAVioPlayEntity@@V?$allocator@PAVioPlayEntity@@@std@@@std@@SAAAPAU_Node@?$_List_nod@PAVioPlayEntity@@V?$allocator@PAVioPlayEntity@@@std@@@2@PAU342@@Z
_TEXT	SEGMENT
__Pnode$ = 8						; size = 4
?_Nextnode@?$_List_val@PAVioPlayEntity@@V?$allocator@PAVioPlayEntity@@@std@@@std@@SAAAPAU_Node@?$_List_nod@PAVioPlayEntity@@V?$allocator@PAVioPlayEntity@@@std@@@2@PAU342@@Z PROC ; std::_List_val<ioPlayEntity *,std::allocator<ioPlayEntity *> >::_Nextnode, COMDAT

; 560  : 		{	// return reference to successor pointer in node

  00000	55		 push	 ebp
  00001	8b ec		 mov	 ebp, esp

; 561  : 		return ((_Nodepref)(*_Pnode)._Next);

  00003	8b 45 08	 mov	 eax, DWORD PTR __Pnode$[ebp]

; 562  : 		}

  00006	5d		 pop	 ebp
  00007	c3		 ret	 0
?_Nextnode@?$_List_val@PAVioPlayEntity@@V?$allocator@PAVioPlayEntity@@@std@@@std@@SAAAPAU_Node@?$_List_nod@PAVioPlayEntity@@V?$allocator@PAVioPlayEntity@@@std@@@2@PAU342@@Z ENDP ; std::_List_val<ioPlayEntity *,std::allocator<ioPlayEntity *> >::_Nextnode
_TEXT	ENDS
PUBLIC	?_Prevnode@?$_List_val@PAVioPlayEntity@@V?$allocator@PAVioPlayEntity@@@std@@@std@@SAAAPAU_Node@?$_List_nod@PAVioPlayEntity@@V?$allocator@PAVioPlayEntity@@@std@@@2@PAU342@@Z ; std::_List_val<ioPlayEntity *,std::allocator<ioPlayEntity *> >::_Prevnode
; Function compile flags: /Ogsp
;	COMDAT ?_Prevnode@?$_List_val@PAVioPlayEntity@@V?$allocator@PAVioPlayEntity@@@std@@@std@@SAAAPAU_Node@?$_List_nod@PAVioPlayEntity@@V?$allocator@PAVioPlayEntity@@@std@@@2@PAU342@@Z
_TEXT	SEGMENT
__Pnode$ = 8						; size = 4
?_Prevnode@?$_List_val@PAVioPlayEntity@@V?$allocator@PAVioPlayEntity@@@std@@@std@@SAAAPAU_Node@?$_List_nod@PAVioPlayEntity@@V?$allocator@PAVioPlayEntity@@@std@@@2@PAU342@@Z PROC ; std::_List_val<ioPlayEntity *,std::allocator<ioPlayEntity *> >::_Prevnode, COMDAT

; 565  : 		{	// return reference to predecessor pointer in node

  00000	55		 push	 ebp
  00001	8b ec		 mov	 ebp, esp

; 566  : 		return ((_Nodepref)(*_Pnode)._Prev);

  00003	8b 45 08	 mov	 eax, DWORD PTR __Pnode$[ebp]
  00006	83 c0 04	 add	 eax, 4

; 567  : 		}

  00009	5d		 pop	 ebp
  0000a	c3		 ret	 0
?_Prevnode@?$_List_val@PAVioPlayEntity@@V?$allocator@PAVioPlayEntity@@@std@@@std@@SAAAPAU_Node@?$_List_nod@PAVioPlayEntity@@V?$allocator@PAVioPlayEntity@@@std@@@2@PAU342@@Z ENDP ; std::_List_val<ioPlayEntity *,std::allocator<ioPlayEntity *> >::_Prevnode
_TEXT	ENDS
PUBLIC	??0?$allocator@PAVioPlayEntity@@@std@@QAE@ABV01@@Z ; std::allocator<ioPlayEntity *>::allocator<ioPlayEntity *>
; Function compile flags: /Ogsp
; File c:\program files (x86)\microsoft visual studio 10.0\vc\include\xmemory
;	COMDAT ??0?$allocator@PAVioPlayEntity@@@std@@QAE@ABV01@@Z
_TEXT	SEGMENT
___formal$ = 8						; size = 4
??0?$allocator@PAVioPlayEntity@@@std@@QAE@ABV01@@Z PROC	; std::allocator<ioPlayEntity *>::allocator<ioPlayEntity *>, COMDAT
; _this$ = ecx

; 165  : 	_ALLOCATOR(const _ALLOCATOR<_Ty>&) _THROW0()

  00000	8b c1		 mov	 eax, ecx

; 166  : 		{	// construct by copying (do nothing)
; 167  : 		}

  00002	c2 04 00	 ret	 4
??0?$allocator@PAVioPlayEntity@@@std@@QAE@ABV01@@Z ENDP	; std::allocator<ioPlayEntity *>::allocator<ioPlayEntity *>
_TEXT	ENDS
PUBLIC	?deallocate@?$allocator@U_Node@?$_List_nod@PAVioPlayEntity@@V?$allocator@PAVioPlayEntity@@@std@@@std@@@std@@QAEXPAU_Node@?$_List_nod@PAVioPlayEntity@@V?$allocator@PAVioPlayEntity@@@std@@@2@I@Z ; std::allocator<std::_List_nod<ioPlayEntity *,std::allocator<ioPlayEntity *> >::_Node>::deallocate
EXTRN	??3@YAXPAX@Z:PROC				; operator delete
; Function compile flags: /Ogsp
;	COMDAT ?deallocate@?$allocator@U_Node@?$_List_nod@PAVioPlayEntity@@V?$allocator@PAVioPlayEntity@@@std@@@std@@@std@@QAEXPAU_Node@?$_List_nod@PAVioPlayEntity@@V?$allocator@PAVioPlayEntity@@@std@@@2@I@Z
_TEXT	SEGMENT
__Ptr$ = 8						; size = 4
___formal$ = 12						; size = 4
?deallocate@?$allocator@U_Node@?$_List_nod@PAVioPlayEntity@@V?$allocator@PAVioPlayEntity@@@std@@@std@@@std@@QAEXPAU_Node@?$_List_nod@PAVioPlayEntity@@V?$allocator@PAVioPlayEntity@@@std@@@2@I@Z PROC ; std::allocator<std::_List_nod<ioPlayEntity *,std::allocator<ioPlayEntity *> >::_Node>::deallocate, COMDAT
; _this$ = ecx

; 181  : 		{	// deallocate object at _Ptr, ignore size

  00000	55		 push	 ebp
  00001	8b ec		 mov	 ebp, esp

; 182  : 		::operator delete(_Ptr);

  00003	ff 75 08	 push	 DWORD PTR __Ptr$[ebp]
  00006	e8 00 00 00 00	 call	 ??3@YAXPAX@Z		; operator delete
  0000b	59		 pop	 ecx

; 183  : 		}

  0000c	5d		 pop	 ebp
  0000d	c2 08 00	 ret	 8
?deallocate@?$allocator@U_Node@?$_List_nod@PAVioPlayEntity@@V?$allocator@PAVioPlayEntity@@@std@@@std@@@std@@QAEXPAU_Node@?$_List_nod@PAVioPlayEntity@@V?$allocator@PAVioPlayEntity@@@std@@@2@I@Z ENDP ; std::allocator<std::_List_nod<ioPlayEntity *,std::allocator<ioPlayEntity *> >::_Node>::deallocate
_TEXT	ENDS
PUBLIC	?_Mynode@?$_List_unchecked_const_iterator@V?$_List_val@PAVioPlayEntity@@V?$allocator@PAVioPlayEntity@@@std@@@std@@U_Iterator_base0@2@@std@@QBEPAU_Node@?$_List_nod@PAVioPlayEntity@@V?$allocator@PAVioPlayEntity@@@std@@@2@XZ ; std::_List_unchecked_const_iterator<std::_List_val<ioPlayEntity *,std::allocator<ioPlayEntity *> >,std::_Iterator_base0>::_Mynode
; Function compile flags: /Ogsp
; File c:\program files (x86)\microsoft visual studio 10.0\vc\include\list
;	COMDAT ?_Mynode@?$_List_unchecked_const_iterator@V?$_List_val@PAVioPlayEntity@@V?$allocator@PAVioPlayEntity@@@std@@@std@@U_Iterator_base0@2@@std@@QBEPAU_Node@?$_List_nod@PAVioPlayEntity@@V?$allocator@PAVioPlayEntity@@@std@@@2@XZ
_TEXT	SEGMENT
?_Mynode@?$_List_unchecked_const_iterator@V?$_List_val@PAVioPlayEntity@@V?$allocator@PAVioPlayEntity@@@std@@@std@@U_Iterator_base0@2@@std@@QBEPAU_Node@?$_List_nod@PAVioPlayEntity@@V?$allocator@PAVioPlayEntity@@@std@@@2@XZ PROC ; std::_List_unchecked_const_iterator<std::_List_val<ioPlayEntity *,std::allocator<ioPlayEntity *> >,std::_Iterator_base0>::_Mynode, COMDAT
; _this$ = ecx

; 93   : 		return (_Ptr);

  00000	8b 01		 mov	 eax, DWORD PTR [ecx]

; 94   : 		}

  00002	c3		 ret	 0
?_Mynode@?$_List_unchecked_const_iterator@V?$_List_val@PAVioPlayEntity@@V?$allocator@PAVioPlayEntity@@@std@@@std@@U_Iterator_base0@2@@std@@QBEPAU_Node@?$_List_nod@PAVioPlayEntity@@V?$allocator@PAVioPlayEntity@@@std@@@2@XZ ENDP ; std::_List_unchecked_const_iterator<std::_List_val<ioPlayEntity *,std::allocator<ioPlayEntity *> >,std::_Iterator_base0>::_Mynode
_TEXT	ENDS
PUBLIC	?_Myval@?$_List_val@PAVioPlayEntity@@V?$allocator@PAVioPlayEntity@@@std@@@std@@SAAAPAVioPlayEntity@@PAU_Node@?$_List_nod@PAVioPlayEntity@@V?$allocator@PAVioPlayEntity@@@std@@@2@@Z ; std::_List_val<ioPlayEntity *,std::allocator<ioPlayEntity *> >::_Myval
; Function compile flags: /Ogsp
;	COMDAT ?_Myval@?$_List_val@PAVioPlayEntity@@V?$allocator@PAVioPlayEntity@@@std@@@std@@SAAAPAVioPlayEntity@@PAU_Node@?$_List_nod@PAVioPlayEntity@@V?$allocator@PAVioPlayEntity@@@std@@@2@@Z
_TEXT	SEGMENT
__Pnode$ = 8						; size = 4
?_Myval@?$_List_val@PAVioPlayEntity@@V?$allocator@PAVioPlayEntity@@@std@@@std@@SAAAPAVioPlayEntity@@PAU_Node@?$_List_nod@PAVioPlayEntity@@V?$allocator@PAVioPlayEntity@@@std@@@2@@Z PROC ; std::_List_val<ioPlayEntity *,std::allocator<ioPlayEntity *> >::_Myval, COMDAT

; 570  : 		{	// return reference to value in node

  00000	55		 push	 ebp
  00001	8b ec		 mov	 ebp, esp

; 571  : 		return ((reference)(*_Pnode)._Myval);

  00003	8b 45 08	 mov	 eax, DWORD PTR __Pnode$[ebp]
  00006	83 c0 08	 add	 eax, 8

; 572  : 		}

  00009	5d		 pop	 ebp
  0000a	c3		 ret	 0
?_Myval@?$_List_val@PAVioPlayEntity@@V?$allocator@PAVioPlayEntity@@@std@@@std@@SAAAPAVioPlayEntity@@PAU_Node@?$_List_nod@PAVioPlayEntity@@V?$allocator@PAVioPlayEntity@@@std@@@2@@Z ENDP ; std::_List_val<ioPlayEntity *,std::allocator<ioPlayEntity *> >::_Myval
_TEXT	ENDS
PUBLIC	?max_size@?$allocator@PAVioPlayEntity@@@std@@QBEIXZ ; std::allocator<ioPlayEntity *>::max_size
; Function compile flags: /Ogsp
; File c:\program files (x86)\microsoft visual studio 10.0\vc\include\xmemory
;	COMDAT ?max_size@?$allocator@PAVioPlayEntity@@@std@@QBEIXZ
_TEXT	SEGMENT
?max_size@?$allocator@PAVioPlayEntity@@@std@@QBEIXZ PROC ; std::allocator<ioPlayEntity *>::max_size, COMDAT
; _this$ = ecx

; 218  : 		_SIZT _Count = (_SIZT)(-1) / sizeof (_Ty);
; 219  : 		return (0 < _Count ? _Count : 1);

  00000	b8 ff ff ff 3f	 mov	 eax, 1073741823		; 3fffffffH

; 220  : 		}

  00005	c3		 ret	 0
?max_size@?$allocator@PAVioPlayEntity@@@std@@QBEIXZ ENDP ; std::allocator<ioPlayEntity *>::max_size
_TEXT	ENDS
PUBLIC	??$addressof@PAVioPlayEntity@@@std@@YAPAPAVioPlayEntity@@AAPAV1@@Z ; std::addressof<ioPlayEntity *>
; Function compile flags: /Ogsp
;	COMDAT ??$addressof@PAVioPlayEntity@@@std@@YAPAPAVioPlayEntity@@AAPAV1@@Z
_TEXT	SEGMENT
__Val$ = 8						; size = 4
??$addressof@PAVioPlayEntity@@@std@@YAPAPAVioPlayEntity@@AAPAV1@@Z PROC ; std::addressof<ioPlayEntity *>, COMDAT

; 110  : 	{	// return address of _Val

  00000	55		 push	 ebp
  00001	8b ec		 mov	 ebp, esp

; 111  : 	return ((_Ty *) &(char&)_Val);

  00003	8b 45 08	 mov	 eax, DWORD PTR __Val$[ebp]

; 112  : 	}

  00006	5d		 pop	 ebp
  00007	c3		 ret	 0
??$addressof@PAVioPlayEntity@@@std@@YAPAPAVioPlayEntity@@AAPAV1@@Z ENDP ; std::addressof<ioPlayEntity *>
_TEXT	ENDS
PUBLIC	??$?0PAVioPlayEntity@@@?$allocator@U_Node@?$_List_nod@PAVioPlayEntity@@V?$allocator@PAVioPlayEntity@@@std@@@std@@@std@@QAE@ABV?$allocator@PAVioPlayEntity@@@1@@Z ; std::allocator<std::_List_nod<ioPlayEntity *,std::allocator<ioPlayEntity *> >::_Node>::allocator<std::_List_nod<ioPlayEntity *,std::allocator<ioPlayEntity *> >::_Node><ioPlayEntity *>
; Function compile flags: /Ogsp
;	COMDAT ??$?0PAVioPlayEntity@@@?$allocator@U_Node@?$_List_nod@PAVioPlayEntity@@V?$allocator@PAVioPlayEntity@@@std@@@std@@@std@@QAE@ABV?$allocator@PAVioPlayEntity@@@1@@Z
_TEXT	SEGMENT
___formal$ = 8						; size = 4
??$?0PAVioPlayEntity@@@?$allocator@U_Node@?$_List_nod@PAVioPlayEntity@@V?$allocator@PAVioPlayEntity@@@std@@@std@@@std@@QAE@ABV?$allocator@PAVioPlayEntity@@@1@@Z PROC ; std::allocator<std::_List_nod<ioPlayEntity *,std::allocator<ioPlayEntity *> >::_Node>::allocator<std::_List_nod<ioPlayEntity *,std::allocator<ioPlayEntity *> >::_Node><ioPlayEntity *>, COMDAT
; _this$ = ecx

; 170  : 		_ALLOCATOR(const _ALLOCATOR<_Other>&) _THROW0()

  00000	8b c1		 mov	 eax, ecx

; 171  : 		{	// construct from a related allocator (do nothing)
; 172  : 		}

  00002	c2 04 00	 ret	 4
??$?0PAVioPlayEntity@@@?$allocator@U_Node@?$_List_nod@PAVioPlayEntity@@V?$allocator@PAVioPlayEntity@@@std@@@std@@@std@@QAE@ABV?$allocator@PAVioPlayEntity@@@1@@Z ENDP ; std::allocator<std::_List_nod<ioPlayEntity *,std::allocator<ioPlayEntity *> >::_Node>::allocator<std::_List_nod<ioPlayEntity *,std::allocator<ioPlayEntity *> >::_Node><ioPlayEntity *>
_TEXT	ENDS
PUBLIC	??$forward@ABQAVioPlayEntity@@@std@@YAABQAVioPlayEntity@@ABQAV1@@Z ; std::forward<ioPlayEntity * const &>
; Function compile flags: /Ogsp
; File c:\program files (x86)\microsoft visual studio 10.0\vc\include\utility
;	COMDAT ??$forward@ABQAVioPlayEntity@@@std@@YAABQAVioPlayEntity@@ABQAV1@@Z
_TEXT	SEGMENT
__Arg$ = 8						; size = 4
??$forward@ABQAVioPlayEntity@@@std@@YAABQAVioPlayEntity@@ABQAV1@@Z PROC ; std::forward<ioPlayEntity * const &>, COMDAT

; 78   : 	{	// forward _Arg, given explicitly specified type parameter

  00000	55		 push	 ebp
  00001	8b ec		 mov	 ebp, esp

; 79   : 	return ((_Ty&&)_Arg);

  00003	8b 45 08	 mov	 eax, DWORD PTR __Arg$[ebp]

; 80   : 	}

  00006	5d		 pop	 ebp
  00007	c3		 ret	 0
??$forward@ABQAVioPlayEntity@@@std@@YAABQAVioPlayEntity@@ABQAV1@@Z ENDP ; std::forward<ioPlayEntity * const &>
_TEXT	ENDS
PUBLIC	??$_Destroy@U_Node@?$_List_nod@PAVioPlayEntity@@V?$allocator@PAVioPlayEntity@@@std@@@std@@@std@@YAXPAU_Node@?$_List_nod@PAVioPlayEntity@@V?$allocator@PAVioPlayEntity@@@std@@@0@@Z ; std::_Destroy<std::_List_nod<ioPlayEntity *,std::allocator<ioPlayEntity *> >::_Node>
; Function compile flags: /Ogsp
; File c:\program files (x86)\microsoft visual studio 10.0\vc\include\xmemory
;	COMDAT ??$_Destroy@U_Node@?$_List_nod@PAVioPlayEntity@@V?$allocator@PAVioPlayEntity@@@std@@@std@@@std@@YAXPAU_Node@?$_List_nod@PAVioPlayEntity@@V?$allocator@PAVioPlayEntity@@@std@@@0@@Z
_TEXT	SEGMENT
__Ptr$ = 8						; size = 4
??$_Destroy@U_Node@?$_List_nod@PAVioPlayEntity@@V?$allocator@PAVioPlayEntity@@@std@@@std@@@std@@YAXPAU_Node@?$_List_nod@PAVioPlayEntity@@V?$allocator@PAVioPlayEntity@@@std@@@0@@Z PROC ; std::_Destroy<std::_List_nod<ioPlayEntity *,std::allocator<ioPlayEntity *> >::_Node>, COMDAT

; 63   : 	_Ptr->~_Ty();
; 64   : 	}

  00000	c3		 ret	 0
??$_Destroy@U_Node@?$_List_nod@PAVioPlayEntity@@V?$allocator@PAVioPlayEntity@@@std@@@std@@@std@@YAXPAU_Node@?$_List_nod@PAVioPlayEntity@@V?$allocator@PAVioPlayEntity@@@std@@@0@@Z ENDP ; std::_Destroy<std::_List_nod<ioPlayEntity *,std::allocator<ioPlayEntity *> >::_Node>
_TEXT	ENDS
PUBLIC	??_7bad_alloc@std@@6B@				; std::bad_alloc::`vftable'
PUBLIC	??0bad_alloc@std@@QAE@PBD@Z			; std::bad_alloc::bad_alloc
PUBLIC	??_R4bad_alloc@std@@6B@				; std::bad_alloc::`RTTI Complete Object Locator'
PUBLIC	??_R0?AVbad_alloc@std@@@8			; std::bad_alloc `RTTI Type Descriptor'
PUBLIC	??_R3bad_alloc@std@@8				; std::bad_alloc::`RTTI Class Hierarchy Descriptor'
PUBLIC	??_R2bad_alloc@std@@8				; std::bad_alloc::`RTTI Base Class Array'
PUBLIC	??_R1A@?0A@EA@bad_alloc@std@@8			; std::bad_alloc::`RTTI Base Class Descriptor at (0,-1,0,64)'
PUBLIC	??_R1A@?0A@EA@exception@std@@8			; std::exception::`RTTI Base Class Descriptor at (0,-1,0,64)'
PUBLIC	??_R0?AVexception@std@@@8			; std::exception `RTTI Type Descriptor'
PUBLIC	??_R3exception@std@@8				; std::exception::`RTTI Class Hierarchy Descriptor'
PUBLIC	??_R2exception@std@@8				; std::exception::`RTTI Base Class Array'
EXTRN	__imp_??0exception@std@@QAE@ABQBD@Z:PROC
EXTRN	??_7type_info@@6B@:QWORD			; type_info::`vftable'
EXTRN	??_Ebad_alloc@std@@UAEPAXI@Z:PROC		; std::bad_alloc::`vector deleting destructor'
EXTRN	?what@exception@std@@UBEPBDXZ:PROC		; std::exception::what
;	COMDAT ??_R2exception@std@@8
; File c:\program files (x86)\microsoft visual studio 10.0\vc\include\exception
rdata$r	SEGMENT
??_R2exception@std@@8 DD FLAT:??_R1A@?0A@EA@exception@std@@8 ; std::exception::`RTTI Base Class Array'
rdata$r	ENDS
;	COMDAT ??_R3exception@std@@8
rdata$r	SEGMENT
??_R3exception@std@@8 DD 00H				; std::exception::`RTTI Class Hierarchy Descriptor'
	DD	00H
	DD	01H
	DD	FLAT:??_R2exception@std@@8
rdata$r	ENDS
;	COMDAT ??_R0?AVexception@std@@@8
_DATA	SEGMENT
??_R0?AVexception@std@@@8 DD FLAT:??_7type_info@@6B@	; std::exception `RTTI Type Descriptor'
	DD	00H
	DB	'.?AVexception@std@@', 00H
_DATA	ENDS
;	COMDAT ??_R1A@?0A@EA@exception@std@@8
rdata$r	SEGMENT
??_R1A@?0A@EA@exception@std@@8 DD FLAT:??_R0?AVexception@std@@@8 ; std::exception::`RTTI Base Class Descriptor at (0,-1,0,64)'
	DD	00H
	DD	00H
	DD	0ffffffffH
	DD	00H
	DD	040H
	DD	FLAT:??_R3exception@std@@8
rdata$r	ENDS
;	COMDAT ??_R1A@?0A@EA@bad_alloc@std@@8
rdata$r	SEGMENT
??_R1A@?0A@EA@bad_alloc@std@@8 DD FLAT:??_R0?AVbad_alloc@std@@@8 ; std::bad_alloc::`RTTI Base Class Descriptor at (0,-1,0,64)'
	DD	01H
	DD	00H
	DD	0ffffffffH
	DD	00H
	DD	040H
	DD	FLAT:??_R3bad_alloc@std@@8
rdata$r	ENDS
;	COMDAT ??_R2bad_alloc@std@@8
rdata$r	SEGMENT
??_R2bad_alloc@std@@8 DD FLAT:??_R1A@?0A@EA@bad_alloc@std@@8 ; std::bad_alloc::`RTTI Base Class Array'
	DD	FLAT:??_R1A@?0A@EA@exception@std@@8
rdata$r	ENDS
;	COMDAT ??_R3bad_alloc@std@@8
rdata$r	SEGMENT
??_R3bad_alloc@std@@8 DD 00H				; std::bad_alloc::`RTTI Class Hierarchy Descriptor'
	DD	00H
	DD	02H
	DD	FLAT:??_R2bad_alloc@std@@8
rdata$r	ENDS
;	COMDAT ??_R0?AVbad_alloc@std@@@8
_DATA	SEGMENT
??_R0?AVbad_alloc@std@@@8 DD FLAT:??_7type_info@@6B@	; std::bad_alloc `RTTI Type Descriptor'
	DD	00H
	DB	'.?AVbad_alloc@std@@', 00H
_DATA	ENDS
;	COMDAT ??_R4bad_alloc@std@@6B@
rdata$r	SEGMENT
??_R4bad_alloc@std@@6B@ DD 00H				; std::bad_alloc::`RTTI Complete Object Locator'
	DD	00H
	DD	00H
	DD	FLAT:??_R0?AVbad_alloc@std@@@8
	DD	FLAT:??_R3bad_alloc@std@@8
rdata$r	ENDS
;	COMDAT ??_7bad_alloc@std@@6B@
CONST	SEGMENT
??_7bad_alloc@std@@6B@ DD FLAT:??_R4bad_alloc@std@@6B@	; std::bad_alloc::`vftable'
	DD	FLAT:??_Ebad_alloc@std@@UAEPAXI@Z
	DD	FLAT:?what@exception@std@@UBEPBDXZ
; Function compile flags: /Ogsp
CONST	ENDS
;	COMDAT ??0bad_alloc@std@@QAE@PBD@Z
_TEXT	SEGMENT
__Message$ = 8						; size = 4
??0bad_alloc@std@@QAE@PBD@Z PROC			; std::bad_alloc::bad_alloc, COMDAT
; _this$ = ecx

; 345  : 		{	// construct from message string

  00000	55		 push	 ebp
  00001	8b ec		 mov	 ebp, esp
  00003	56		 push	 esi
  00004	8d 45 08	 lea	 eax, DWORD PTR __Message$[ebp]
  00007	50		 push	 eax
  00008	8b f1		 mov	 esi, ecx
  0000a	ff 15 00 00 00
	00		 call	 DWORD PTR __imp_??0exception@std@@QAE@ABQBD@Z
  00010	c7 06 00 00 00
	00		 mov	 DWORD PTR [esi], OFFSET ??_7bad_alloc@std@@6B@

; 346  : 		}

  00016	8b c6		 mov	 eax, esi
  00018	5e		 pop	 esi
  00019	5d		 pop	 ebp
  0001a	c2 04 00	 ret	 4
??0bad_alloc@std@@QAE@PBD@Z ENDP			; std::bad_alloc::bad_alloc
_TEXT	ENDS
PUBLIC	??1bad_alloc@std@@UAE@XZ			; std::bad_alloc::~bad_alloc
EXTRN	__imp_??1exception@std@@UAE@XZ:PROC
; Function compile flags: /Ogsp
;	COMDAT ??1bad_alloc@std@@UAE@XZ
_TEXT	SEGMENT
??1bad_alloc@std@@UAE@XZ PROC				; std::bad_alloc::~bad_alloc, COMDAT
; _this$ = ecx

; 354  : 		{	// destroy the object

  00000	c7 01 00 00 00
	00		 mov	 DWORD PTR [ecx], OFFSET ??_7bad_alloc@std@@6B@

; 355  : 		}

  00006	ff 25 00 00 00
	00		 jmp	 DWORD PTR __imp_??1exception@std@@UAE@XZ
??1bad_alloc@std@@UAE@XZ ENDP				; std::bad_alloc::~bad_alloc
; Function compile flags: /Ogsp
_TEXT	ENDS
;	COMDAT ??_Gbad_alloc@std@@UAEPAXI@Z
_TEXT	SEGMENT
___flags$ = 8						; size = 4
??_Gbad_alloc@std@@UAEPAXI@Z PROC			; std::bad_alloc::`scalar deleting destructor', COMDAT
; _this$ = ecx
  00000	55		 push	 ebp
  00001	8b ec		 mov	 ebp, esp
  00003	56		 push	 esi
  00004	8b f1		 mov	 esi, ecx
  00006	c7 06 00 00 00
	00		 mov	 DWORD PTR [esi], OFFSET ??_7bad_alloc@std@@6B@
  0000c	ff 15 00 00 00
	00		 call	 DWORD PTR __imp_??1exception@std@@UAE@XZ
  00012	f6 45 08 01	 test	 BYTE PTR ___flags$[ebp], 1
  00016	74 07		 je	 SHORT $LN1@scalar
  00018	56		 push	 esi
  00019	e8 00 00 00 00	 call	 ??3@YAXPAX@Z		; operator delete
  0001e	59		 pop	 ecx
$LN1@scalar:
  0001f	8b c6		 mov	 eax, esi
  00021	5e		 pop	 esi
  00022	5d		 pop	 ebp
  00023	c2 04 00	 ret	 4
??_Gbad_alloc@std@@UAEPAXI@Z ENDP			; std::bad_alloc::`scalar deleting destructor'
_TEXT	ENDS
PUBLIC	??2@YAPAXIPAX@Z					; operator new
; Function compile flags: /Ogsp
; File c:\program files (x86)\microsoft visual studio 10.0\vc\include\new
;	COMDAT ??2@YAPAXIPAX@Z
_TEXT	SEGMENT
___formal$ = 8						; size = 4
__Where$ = 12						; size = 4
??2@YAPAXIPAX@Z PROC					; operator new, COMDAT

; 56   : 	{	// construct array with placement at _Where

  00000	55		 push	 ebp
  00001	8b ec		 mov	 ebp, esp

; 57   : 	return (_Where);

  00003	8b 45 0c	 mov	 eax, DWORD PTR __Where$[ebp]

; 58   : 	}

  00006	5d		 pop	 ebp
  00007	c3		 ret	 0
??2@YAPAXIPAX@Z ENDP					; operator new
_TEXT	ENDS
PUBLIC	??3@YAXPAX0@Z					; operator delete
; Function compile flags: /Ogsp
;	COMDAT ??3@YAXPAX0@Z
_TEXT	SEGMENT
___formal$ = 8						; size = 4
___formal$ = 12						; size = 4
??3@YAXPAX0@Z PROC					; operator delete, COMDAT

; 62   : 	}

  00000	c3		 ret	 0
??3@YAXPAX0@Z ENDP					; operator delete
_TEXT	ENDS
PUBLIC	?_Adopt@_Iterator_base0@std@@QAEXPBX@Z		; std::_Iterator_base0::_Adopt
; Function compile flags: /Ogsp
; File c:\program files (x86)\microsoft visual studio 10.0\vc\include\xutility
;	COMDAT ?_Adopt@_Iterator_base0@std@@QAEXPBX@Z
_TEXT	SEGMENT
___formal$ = 8						; size = 4
?_Adopt@_Iterator_base0@std@@QAEXPBX@Z PROC		; std::_Iterator_base0::_Adopt, COMDAT
; _this$ = ecx

; 49   : 		}

  00000	c2 04 00	 ret	 4
?_Adopt@_Iterator_base0@std@@QAEXPBX@Z ENDP		; std::_Iterator_base0::_Adopt
_TEXT	ENDS
PUBLIC	??_R0?AVioGameEntity@@@8			; ioGameEntity `RTTI Type Descriptor'
PUBLIC	??_R0?AVioPlayEntity@@@8			; ioPlayEntity `RTTI Type Descriptor'
PUBLIC	?ToPlayEntity@@YAPAVioPlayEntity@@PAVioGameEntity@@@Z ; ToPlayEntity
EXTRN	___RTDynamicCast:PROC
;	COMDAT ??_R0?AVioGameEntity@@@8
; File d:\lost saga for developer\youtube\tutorial\source\src\lsclient\ioplayentity.h
_DATA	SEGMENT
??_R0?AVioGameEntity@@@8 DD FLAT:??_7type_info@@6B@	; ioGameEntity `RTTI Type Descriptor'
	DD	00H
	DB	'.?AVioGameEntity@@', 00H
_DATA	ENDS
;	COMDAT ??_R0?AVioPlayEntity@@@8
_DATA	SEGMENT
??_R0?AVioPlayEntity@@@8 DD FLAT:??_7type_info@@6B@	; ioPlayEntity `RTTI Type Descriptor'
	DD	00H
	DB	'.?AVioPlayEntity@@', 00H
; Function compile flags: /Ogsp
_DATA	ENDS
;	COMDAT ?ToPlayEntity@@YAPAVioPlayEntity@@PAVioGameEntity@@@Z
_TEXT	SEGMENT
_pObj$ = 8						; size = 4
?ToPlayEntity@@YAPAVioPlayEntity@@PAVioGameEntity@@@Z PROC ; ToPlayEntity, COMDAT

; 121  : {

  00000	55		 push	 ebp
  00001	8b ec		 mov	 ebp, esp
  00003	56		 push	 esi

; 122  : 	if( !pObj || pObj->GetTypeID() != ioGameEntity::GET_PLAY_ENTITY )

  00004	8b 75 08	 mov	 esi, DWORD PTR _pObj$[ebp]
  00007	85 f6		 test	 esi, esi
  00009	74 25		 je	 SHORT $LN1@ToPlayEnti
  0000b	8b 06		 mov	 eax, DWORD PTR [esi]
  0000d	8b ce		 mov	 ecx, esi
  0000f	ff 50 10	 call	 DWORD PTR [eax+16]
  00012	83 f8 01	 cmp	 eax, 1
  00015	75 19		 jne	 SHORT $LN1@ToPlayEnti

; 124  : 
; 125  : 	return dynamic_cast< ioPlayEntity* >( pObj );

  00017	6a 00		 push	 0
  00019	68 00 00 00 00	 push	 OFFSET ??_R0?AVioPlayEntity@@@8
  0001e	68 00 00 00 00	 push	 OFFSET ??_R0?AVioGameEntity@@@8
  00023	6a 00		 push	 0
  00025	56		 push	 esi
  00026	e8 00 00 00 00	 call	 ___RTDynamicCast
  0002b	83 c4 14	 add	 esp, 20			; 00000014H
  0002e	eb 02		 jmp	 SHORT $LN3@ToPlayEnti
$LN1@ToPlayEnti:

; 123  : 		return NULL;

  00030	33 c0		 xor	 eax, eax
$LN3@ToPlayEnti:
  00032	5e		 pop	 esi

; 126  : }

  00033	5d		 pop	 ebp
  00034	c3		 ret	 0
?ToPlayEntity@@YAPAVioPlayEntity@@PAVioGameEntity@@@Z ENDP ; ToPlayEntity
_TEXT	ENDS
PUBLIC	??0?$_List_const_iterator@V?$_List_val@PAVioGameEntity@@V?$allocator@PAVioGameEntity@@@std@@@std@@@std@@QAE@XZ ; std::_List_const_iterator<std::_List_val<ioGameEntity *,std::allocator<ioGameEntity *> > >::_List_const_iterator<std::_List_val<ioGameEntity *,std::allocator<ioGameEntity *> > >
; Function compile flags: /Ogsp
; File c:\program files (x86)\microsoft visual studio 10.0\vc\include\list
;	COMDAT ??0?$_List_const_iterator@V?$_List_val@PAVioGameEntity@@V?$allocator@PAVioGameEntity@@@std@@@std@@@std@@QAE@XZ
_TEXT	SEGMENT
??0?$_List_const_iterator@V?$_List_val@PAVioGameEntity@@V?$allocator@PAVioGameEntity@@@std@@@std@@@std@@QAE@XZ PROC ; std::_List_const_iterator<std::_List_val<ioGameEntity *,std::allocator<ioGameEntity *> > >::_List_const_iterator<std::_List_val<ioGameEntity *,std::allocator<ioGameEntity *> > >, COMDAT
; _this$ = ecx

; 179  : 		{	// construct with null node pointer

  00000	8b c1		 mov	 eax, ecx
  00002	83 20 00	 and	 DWORD PTR [eax], 0

; 180  : 		}

  00005	c3		 ret	 0
??0?$_List_const_iterator@V?$_List_val@PAVioGameEntity@@V?$allocator@PAVioGameEntity@@@std@@@std@@@std@@QAE@XZ ENDP ; std::_List_const_iterator<std::_List_val<ioGameEntity *,std::allocator<ioGameEntity *> > >::_List_const_iterator<std::_List_val<ioGameEntity *,std::allocator<ioGameEntity *> > >
_TEXT	ENDS
PUBLIC	??D?$_List_const_iterator@V?$_List_val@PAVioGameEntity@@V?$allocator@PAVioGameEntity@@@std@@@std@@@std@@QBEABQAVioGameEntity@@XZ ; std::_List_const_iterator<std::_List_val<ioGameEntity *,std::allocator<ioGameEntity *> > >::operator*
; Function compile flags: /Ogsp
;	COMDAT ??D?$_List_const_iterator@V?$_List_val@PAVioGameEntity@@V?$allocator@PAVioGameEntity@@@std@@@std@@@std@@QBEABQAVioGameEntity@@XZ
_TEXT	SEGMENT
??D?$_List_const_iterator@V?$_List_val@PAVioGameEntity@@V?$allocator@PAVioGameEntity@@@std@@@std@@@std@@QBEABQAVioGameEntity@@XZ PROC ; std::_List_const_iterator<std::_List_val<ioGameEntity *,std::allocator<ioGameEntity *> > >::operator*, COMDAT
; _this$ = ecx

; 202  :  #if _ITERATOR_DEBUG_LEVEL == 2
; 203  : 		if (this->_Getcont() == 0
; 204  : 			|| this->_Ptr == 0
; 205  : 			|| this->_Ptr == ((_Mylist *)this->_Getcont())->_Myhead)
; 206  : 			{	// report error
; 207  : 			_DEBUG_ERROR("list iterator not dereferencable");
; 208  : 			_SCL_SECURE_OUT_OF_RANGE;
; 209  : 			}
; 210  : 
; 211  :  #elif _ITERATOR_DEBUG_LEVEL == 1
; 212  : 		_SCL_SECURE_VALIDATE(this->_Getcont() != 0 && this->_Ptr != 0);
; 213  : 		_SCL_SECURE_VALIDATE_RANGE(this->_Ptr !=
; 214  : 			((_Mylist *)this->_Getcont())->_Myhead);
; 215  :  #endif /* _ITERATOR_DEBUG_LEVEL */
; 216  : 
; 217  : 		return (_Mylist::_Myval(this->_Ptr));

  00000	8b 01		 mov	 eax, DWORD PTR [ecx]
  00002	83 c0 08	 add	 eax, 8

; 218  : 		}

  00005	c3		 ret	 0
??D?$_List_const_iterator@V?$_List_val@PAVioGameEntity@@V?$allocator@PAVioGameEntity@@@std@@@std@@@std@@QBEABQAVioGameEntity@@XZ ENDP ; std::_List_const_iterator<std::_List_val<ioGameEntity *,std::allocator<ioGameEntity *> > >::operator*
_TEXT	ENDS
PUBLIC	??E?$_List_const_iterator@V?$_List_val@PAVioGameEntity@@V?$allocator@PAVioGameEntity@@@std@@@std@@@std@@QAEAAV01@XZ ; std::_List_const_iterator<std::_List_val<ioGameEntity *,std::allocator<ioGameEntity *> > >::operator++
; Function compile flags: /Ogsp
;	COMDAT ??E?$_List_const_iterator@V?$_List_val@PAVioGameEntity@@V?$allocator@PAVioGameEntity@@@std@@@std@@@std@@QAEAAV01@XZ
_TEXT	SEGMENT
??E?$_List_const_iterator@V?$_List_val@PAVioGameEntity@@V?$allocator@PAVioGameEntity@@@std@@@std@@@std@@QAEAAV01@XZ PROC ; std::_List_const_iterator<std::_List_val<ioGameEntity *,std::allocator<ioGameEntity *> > >::operator++, COMDAT
; _this$ = ecx

; 221  : 		{	// preincrement

  00000	8b c1		 mov	 eax, ecx

; 222  :  #if _ITERATOR_DEBUG_LEVEL == 2
; 223  : 		if (this->_Getcont() == 0
; 224  : 			|| this->_Ptr == 0
; 225  : 			|| this->_Ptr == ((_Mylist *)this->_Getcont())->_Myhead)
; 226  : 			{	// report error
; 227  : 			_DEBUG_ERROR("list iterator not incrementable");
; 228  : 			_SCL_SECURE_OUT_OF_RANGE;
; 229  : 			}
; 230  : 
; 231  :  #elif _ITERATOR_DEBUG_LEVEL == 1
; 232  : 		_SCL_SECURE_VALIDATE(this->_Getcont() != 0 && this->_Ptr != 0);
; 233  : 		_SCL_SECURE_VALIDATE_RANGE(this->_Ptr !=
; 234  : 			((_Mylist *)this->_Getcont())->_Myhead);
; 235  :  #endif /* _ITERATOR_DEBUG_LEVEL */
; 236  : 
; 237  : 		this->_Ptr = _Mylist::_Nextnode(this->_Ptr);

  00002	8b 08		 mov	 ecx, DWORD PTR [eax]
  00004	8b 09		 mov	 ecx, DWORD PTR [ecx]
  00006	89 08		 mov	 DWORD PTR [eax], ecx

; 238  : 		return (*this);
; 239  : 		}

  00008	c3		 ret	 0
??E?$_List_const_iterator@V?$_List_val@PAVioGameEntity@@V?$allocator@PAVioGameEntity@@@std@@@std@@@std@@QAEAAV01@XZ ENDP ; std::_List_const_iterator<std::_List_val<ioGameEntity *,std::allocator<ioGameEntity *> > >::operator++
_TEXT	ENDS
PUBLIC	??9?$_List_const_iterator@V?$_List_val@PAVioGameEntity@@V?$allocator@PAVioGameEntity@@@std@@@std@@@std@@QBE_NABV01@@Z ; std::_List_const_iterator<std::_List_val<ioGameEntity *,std::allocator<ioGameEntity *> > >::operator!=
; Function compile flags: /Ogsp
;	COMDAT ??9?$_List_const_iterator@V?$_List_val@PAVioGameEntity@@V?$allocator@PAVioGameEntity@@@std@@@std@@@std@@QBE_NABV01@@Z
_TEXT	SEGMENT
__Right$ = 8						; size = 4
??9?$_List_const_iterator@V?$_List_val@PAVioGameEntity@@V?$allocator@PAVioGameEntity@@@std@@@std@@@std@@QBE_NABV01@@Z PROC ; std::_List_const_iterator<std::_List_val<ioGameEntity *,std::allocator<ioGameEntity *> > >::operator!=, COMDAT
; _this$ = ecx

; 299  : 		{	// test for iterator inequality

  00000	55		 push	 ebp
  00001	8b ec		 mov	 ebp, esp

; 300  : 		return (!(*this == _Right));

  00003	8b 01		 mov	 eax, DWORD PTR [ecx]
  00005	8b 55 08	 mov	 edx, DWORD PTR __Right$[ebp]
  00008	33 c9		 xor	 ecx, ecx
  0000a	3b 02		 cmp	 eax, DWORD PTR [edx]
  0000c	0f 95 c0	 setne	 al

; 301  : 		}

  0000f	5d		 pop	 ebp
  00010	c2 04 00	 ret	 4
??9?$_List_const_iterator@V?$_List_val@PAVioGameEntity@@V?$allocator@PAVioGameEntity@@@std@@@std@@@std@@QBE_NABV01@@Z ENDP ; std::_List_const_iterator<std::_List_val<ioGameEntity *,std::allocator<ioGameEntity *> > >::operator!=
_TEXT	ENDS
PUBLIC	??1?$_List_val@PAVioPlayEntity@@V?$allocator@PAVioPlayEntity@@@std@@@std@@QAE@XZ ; std::_List_val<ioPlayEntity *,std::allocator<ioPlayEntity *> >::~_List_val<ioPlayEntity *,std::allocator<ioPlayEntity *> >
; Function compile flags: /Ogsp
;	COMDAT ??1?$_List_val@PAVioPlayEntity@@V?$allocator@PAVioPlayEntity@@@std@@@std@@QAE@XZ
_TEXT	SEGMENT
??1?$_List_val@PAVioPlayEntity@@V?$allocator@PAVioPlayEntity@@@std@@@std@@QAE@XZ PROC ; std::_List_val<ioPlayEntity *,std::allocator<ioPlayEntity *> >::~_List_val<ioPlayEntity *,std::allocator<ioPlayEntity *> >, COMDAT
; _this$ = ecx

; 502  : 		this->_Alnod.deallocate(this->_Myhead, 1);

  00000	ff 31		 push	 DWORD PTR [ecx]
  00002	e8 00 00 00 00	 call	 ??3@YAXPAX@Z		; operator delete
  00007	59		 pop	 ecx

; 503  : 		}

  00008	c3		 ret	 0
??1?$_List_val@PAVioPlayEntity@@V?$allocator@PAVioPlayEntity@@@std@@@std@@QAE@XZ ENDP ; std::_List_val<ioPlayEntity *,std::allocator<ioPlayEntity *> >::~_List_val<ioPlayEntity *,std::allocator<ioPlayEntity *> >
_TEXT	ENDS
PUBLIC	??0?$_List_nod@PAVioPlayEntity@@V?$allocator@PAVioPlayEntity@@@std@@@std@@QAE@V?$allocator@PAVioPlayEntity@@@1@@Z ; std::_List_nod<ioPlayEntity *,std::allocator<ioPlayEntity *> >::_List_nod<ioPlayEntity *,std::allocator<ioPlayEntity *> >
; Function compile flags: /Ogsp
;	COMDAT ??0?$_List_nod@PAVioPlayEntity@@V?$allocator@PAVioPlayEntity@@@std@@@std@@QAE@V?$allocator@PAVioPlayEntity@@@1@@Z
_TEXT	SEGMENT
__Al$ = 8						; size = 1
??0?$_List_nod@PAVioPlayEntity@@V?$allocator@PAVioPlayEntity@@@std@@@std@@QAE@V?$allocator@PAVioPlayEntity@@@1@@Z PROC ; std::_List_nod<ioPlayEntity *,std::allocator<ioPlayEntity *> >::_List_nod<ioPlayEntity *,std::allocator<ioPlayEntity *> >, COMDAT
; _this$ = ecx

; 438  : 		{	// construct allocators from _Al

  00000	8b c1		 mov	 eax, ecx

; 439  : 		}

  00002	c2 04 00	 ret	 4
??0?$_List_nod@PAVioPlayEntity@@V?$allocator@PAVioPlayEntity@@@std@@@std@@QAE@V?$allocator@PAVioPlayEntity@@@1@@Z ENDP ; std::_List_nod<ioPlayEntity *,std::allocator<ioPlayEntity *> >::_List_nod<ioPlayEntity *,std::allocator<ioPlayEntity *> >
_TEXT	ENDS
PUBLIC	??0?$_List_unchecked_const_iterator@V?$_List_val@PAVioGameEntity@@V?$allocator@PAVioGameEntity@@@std@@@std@@U_Iterator_base0@2@@std@@QAE@PAU_Node@?$_List_nod@PAVioGameEntity@@V?$allocator@PAVioGameEntity@@@std@@@1@PBV?$_List_val@PAVioGameEntity@@V?$allocator@PAVioGameEntity@@@std@@@1@@Z ; std::_List_unchecked_const_iterator<std::_List_val<ioGameEntity *,std::allocator<ioGameEntity *> >,std::_Iterator_base0>::_List_unchecked_const_iterator<std::_List_val<ioGameEntity *,std::allocator<ioGameEntity *> >,std::_Iterator_base0>
; Function compile flags: /Ogsp
;	COMDAT ??0?$_List_unchecked_const_iterator@V?$_List_val@PAVioGameEntity@@V?$allocator@PAVioGameEntity@@@std@@@std@@U_Iterator_base0@2@@std@@QAE@PAU_Node@?$_List_nod@PAVioGameEntity@@V?$allocator@PAVioGameEntity@@@std@@@1@PBV?$_List_val@PAVioGameEntity@@V?$allocator@PAVioGameEntity@@@std@@@1@@Z
_TEXT	SEGMENT
__Pnode$ = 8						; size = 4
__Plist$ = 12						; size = 4
??0?$_List_unchecked_const_iterator@V?$_List_val@PAVioGameEntity@@V?$allocator@PAVioGameEntity@@@std@@@std@@U_Iterator_base0@2@@std@@QAE@PAU_Node@?$_List_nod@PAVioGameEntity@@V?$allocator@PAVioGameEntity@@@std@@@1@PBV?$_List_val@PAVioGameEntity@@V?$allocator@PAVioGameEntity@@@std@@@1@@Z PROC ; std::_List_unchecked_const_iterator<std::_List_val<ioGameEntity *,std::allocator<ioGameEntity *> >,std::_Iterator_base0>::_List_unchecked_const_iterator<std::_List_val<ioGameEntity *,std::allocator<ioGameEntity *> >,std::_Iterator_base0>, COMDAT
; _this$ = ecx

; 41   : 		{	// construct with node pointer _Pnode

  00000	55		 push	 ebp
  00001	8b ec		 mov	 ebp, esp
  00003	8b c1		 mov	 eax, ecx
  00005	8b 4d 08	 mov	 ecx, DWORD PTR __Pnode$[ebp]
  00008	89 08		 mov	 DWORD PTR [eax], ecx

; 42   : 		this->_Adopt(_Plist);
; 43   : 		}

  0000a	5d		 pop	 ebp
  0000b	c2 08 00	 ret	 8
??0?$_List_unchecked_const_iterator@V?$_List_val@PAVioGameEntity@@V?$allocator@PAVioGameEntity@@@std@@@std@@U_Iterator_base0@2@@std@@QAE@PAU_Node@?$_List_nod@PAVioGameEntity@@V?$allocator@PAVioGameEntity@@@std@@@1@PBV?$_List_val@PAVioGameEntity@@V?$allocator@PAVioGameEntity@@@std@@@1@@Z ENDP ; std::_List_unchecked_const_iterator<std::_List_val<ioGameEntity *,std::allocator<ioGameEntity *> >,std::_Iterator_base0>::_List_unchecked_const_iterator<std::_List_val<ioGameEntity *,std::allocator<ioGameEntity *> >,std::_Iterator_base0>
_TEXT	ENDS
PUBLIC	?max_size@?$list@PAVioPlayEntity@@V?$allocator@PAVioPlayEntity@@@std@@@std@@QBEIXZ ; std::list<ioPlayEntity *,std::allocator<ioPlayEntity *> >::max_size
; Function compile flags: /Ogsp
;	COMDAT ?max_size@?$list@PAVioPlayEntity@@V?$allocator@PAVioPlayEntity@@@std@@@std@@QBEIXZ
_TEXT	SEGMENT
?max_size@?$list@PAVioPlayEntity@@V?$allocator@PAVioPlayEntity@@@std@@@std@@QBEIXZ PROC ; std::list<ioPlayEntity *,std::allocator<ioPlayEntity *> >::max_size, COMDAT
; _this$ = ecx

; 882  : 		return (this->_Alval.max_size());

  00000	b8 ff ff ff 3f	 mov	 eax, 1073741823		; 3fffffffH

; 883  : 		}

  00005	c3		 ret	 0
?max_size@?$list@PAVioPlayEntity@@V?$allocator@PAVioPlayEntity@@@std@@@std@@QBEIXZ ENDP ; std::list<ioPlayEntity *,std::allocator<ioPlayEntity *> >::max_size
_TEXT	ENDS
PUBLIC	??0?$_List_unchecked_const_iterator@V?$_List_val@PAVioPlayEntity@@V?$allocator@PAVioPlayEntity@@@std@@@std@@U_Iterator_base0@2@@std@@QAE@PAU_Node@?$_List_nod@PAVioPlayEntity@@V?$allocator@PAVioPlayEntity@@@std@@@1@PBV?$_List_val@PAVioPlayEntity@@V?$allocator@PAVioPlayEntity@@@std@@@1@@Z ; std::_List_unchecked_const_iterator<std::_List_val<ioPlayEntity *,std::allocator<ioPlayEntity *> >,std::_Iterator_base0>::_List_unchecked_const_iterator<std::_List_val<ioPlayEntity *,std::allocator<ioPlayEntity *> >,std::_Iterator_base0>
; Function compile flags: /Ogsp
;	COMDAT ??0?$_List_unchecked_const_iterator@V?$_List_val@PAVioPlayEntity@@V?$allocator@PAVioPlayEntity@@@std@@@std@@U_Iterator_base0@2@@std@@QAE@PAU_Node@?$_List_nod@PAVioPlayEntity@@V?$allocator@PAVioPlayEntity@@@std@@@1@PBV?$_List_val@PAVioPlayEntity@@V?$allocator@PAVioPlayEntity@@@std@@@1@@Z
_TEXT	SEGMENT
__Pnode$ = 8						; size = 4
__Plist$ = 12						; size = 4
??0?$_List_unchecked_const_iterator@V?$_List_val@PAVioPlayEntity@@V?$allocator@PAVioPlayEntity@@@std@@@std@@U_Iterator_base0@2@@std@@QAE@PAU_Node@?$_List_nod@PAVioPlayEntity@@V?$allocator@PAVioPlayEntity@@@std@@@1@PBV?$_List_val@PAVioPlayEntity@@V?$allocator@PAVioPlayEntity@@@std@@@1@@Z PROC ; std::_List_unchecked_const_iterator<std::_List_val<ioPlayEntity *,std::allocator<ioPlayEntity *> >,std::_Iterator_base0>::_List_unchecked_const_iterator<std::_List_val<ioPlayEntity *,std::allocator<ioPlayEntity *> >,std::_Iterator_base0>, COMDAT
; _this$ = ecx

; 41   : 		{	// construct with node pointer _Pnode

  00000	55		 push	 ebp
  00001	8b ec		 mov	 ebp, esp
  00003	8b c1		 mov	 eax, ecx
  00005	8b 4d 08	 mov	 ecx, DWORD PTR __Pnode$[ebp]
  00008	89 08		 mov	 DWORD PTR [eax], ecx

; 42   : 		this->_Adopt(_Plist);
; 43   : 		}

  0000a	5d		 pop	 ebp
  0000b	c2 08 00	 ret	 8
??0?$_List_unchecked_const_iterator@V?$_List_val@PAVioPlayEntity@@V?$allocator@PAVioPlayEntity@@@std@@@std@@U_Iterator_base0@2@@std@@QAE@PAU_Node@?$_List_nod@PAVioPlayEntity@@V?$allocator@PAVioPlayEntity@@@std@@@1@PBV?$_List_val@PAVioPlayEntity@@V?$allocator@PAVioPlayEntity@@@std@@@1@@Z ENDP ; std::_List_unchecked_const_iterator<std::_List_val<ioPlayEntity *,std::allocator<ioPlayEntity *> >,std::_Iterator_base0>::_List_unchecked_const_iterator<std::_List_val<ioPlayEntity *,std::allocator<ioPlayEntity *> >,std::_Iterator_base0>
_TEXT	ENDS
PUBLIC	__TI2?AVbad_alloc@std@@
PUBLIC	??$_Allocate@U_Node@?$_List_nod@PAVioPlayEntity@@V?$allocator@PAVioPlayEntity@@@std@@@std@@@std@@YAPAU_Node@?$_List_nod@PAVioPlayEntity@@V?$allocator@PAVioPlayEntity@@@std@@@0@IPAU120@@Z ; std::_Allocate<std::_List_nod<ioPlayEntity *,std::allocator<ioPlayEntity *> >::_Node>
PUBLIC	__CTA2?AVbad_alloc@std@@
PUBLIC	__CT??_R0?AVbad_alloc@std@@@8??0bad_alloc@std@@QAE@ABV01@@Z12
PUBLIC	??0bad_alloc@std@@QAE@ABV01@@Z			; std::bad_alloc::bad_alloc
PUBLIC	__CT??_R0?AVexception@std@@@8??0exception@std@@QAE@ABV01@@Z12
EXTRN	??2@YAPAXI@Z:PROC				; operator new
EXTRN	__CxxThrowException@8:PROC
EXTRN	??0exception@std@@QAE@ABV01@@Z:PROC		; std::exception::exception
;	COMDAT __CT??_R0?AVexception@std@@@8??0exception@std@@QAE@ABV01@@Z12
; File c:\program files (x86)\microsoft visual studio 10.0\vc\include\exception
xdata$x	SEGMENT
__CT??_R0?AVexception@std@@@8??0exception@std@@QAE@ABV01@@Z12 DD 00H
	DD	FLAT:??_R0?AVexception@std@@@8
	DD	00H
	DD	0ffffffffH
	ORG $+4
	DD	0cH
	DD	FLAT:??0exception@std@@QAE@ABV01@@Z
xdata$x	ENDS
;	COMDAT __CT??_R0?AVbad_alloc@std@@@8??0bad_alloc@std@@QAE@ABV01@@Z12
xdata$x	SEGMENT
__CT??_R0?AVbad_alloc@std@@@8??0bad_alloc@std@@QAE@ABV01@@Z12 DD 00H
	DD	FLAT:??_R0?AVbad_alloc@std@@@8
	DD	00H
	DD	0ffffffffH
	ORG $+4
	DD	0cH
	DD	FLAT:??0bad_alloc@std@@QAE@ABV01@@Z
xdata$x	ENDS
;	COMDAT __CTA2?AVbad_alloc@std@@
xdata$x	SEGMENT
__CTA2?AVbad_alloc@std@@ DD 02H
	DD	FLAT:__CT??_R0?AVbad_alloc@std@@@8??0bad_alloc@std@@QAE@ABV01@@Z12
	DD	FLAT:__CT??_R0?AVexception@std@@@8??0exception@std@@QAE@ABV01@@Z12
xdata$x	ENDS
;	COMDAT __TI2?AVbad_alloc@std@@
xdata$x	SEGMENT
__TI2?AVbad_alloc@std@@ DD 00H
	DD	FLAT:??1bad_alloc@std@@UAE@XZ
	DD	00H
	DD	FLAT:__CTA2?AVbad_alloc@std@@
; Function compile flags: /Ogsp
; File c:\program files (x86)\microsoft visual studio 10.0\vc\include\xmemory
xdata$x	ENDS
;	COMDAT ??$_Allocate@U_Node@?$_List_nod@PAVioPlayEntity@@V?$allocator@PAVioPlayEntity@@@std@@@std@@@std@@YAPAU_Node@?$_List_nod@PAVioPlayEntity@@V?$allocator@PAVioPlayEntity@@@std@@@0@IPAU120@@Z
_TEXT	SEGMENT
$T512636 = -12						; size = 12
$T512641 = 8						; size = 4
__Count$ = 8						; size = 4
___formal$ = 12						; size = 4
??$_Allocate@U_Node@?$_List_nod@PAVioPlayEntity@@V?$allocator@PAVioPlayEntity@@@std@@@std@@@std@@YAPAU_Node@?$_List_nod@PAVioPlayEntity@@V?$allocator@PAVioPlayEntity@@@std@@@0@IPAU120@@Z PROC ; std::_Allocate<std::_List_nod<ioPlayEntity *,std::allocator<ioPlayEntity *> >::_Node>, COMDAT

; 30   : 	{	// allocate storage for _Count elements of type _Ty

  00000	55		 push	 ebp
  00001	8b ec		 mov	 ebp, esp

; 31   : 	void *_Ptr = 0;
; 32   : 
; 33   : 	if (_Count <= 0)

  00003	8b 4d 08	 mov	 ecx, DWORD PTR __Count$[ebp]
  00006	83 ec 0c	 sub	 esp, 12			; 0000000cH
  00009	33 c0		 xor	 eax, eax
  0000b	85 c9		 test	 ecx, ecx

; 34   : 		_Count = 0;
; 35   : 	else if (((_SIZT)(-1) / sizeof (_Ty) < _Count)

  0000d	74 3c		 je	 SHORT $LN5@Allocate

; 36   : 		|| (_Ptr = ::operator new(_Count * sizeof (_Ty))) == 0)

  0000f	81 f9 55 55 55
	15		 cmp	 ecx, 357913941		; 15555555H
  00015	77 0e		 ja	 SHORT $LN1@Allocate
  00017	6b c9 0c	 imul	 ecx, 12			; 0000000cH
  0001a	51		 push	 ecx
  0001b	e8 00 00 00 00	 call	 ??2@YAPAXI@Z		; operator new
  00020	59		 pop	 ecx
  00021	85 c0		 test	 eax, eax

; 38   : 
; 39   : 	return ((_Ty _FARQ *)_Ptr);

  00023	75 26		 jne	 SHORT $LN5@Allocate
$LN1@Allocate:

; 37   : 		_THROW_NCEE(bad_alloc, 0);

  00025	83 65 08 00	 and	 DWORD PTR $T512641[ebp], 0
  00029	8d 45 08	 lea	 eax, DWORD PTR $T512641[ebp]
  0002c	50		 push	 eax
  0002d	8d 4d f4	 lea	 ecx, DWORD PTR $T512636[ebp]
  00030	ff 15 00 00 00
	00		 call	 DWORD PTR __imp_??0exception@std@@QAE@ABQBD@Z
  00036	68 00 00 00 00	 push	 OFFSET __TI2?AVbad_alloc@std@@
  0003b	8d 45 f4	 lea	 eax, DWORD PTR $T512636[ebp]
  0003e	50		 push	 eax
  0003f	c7 45 f4 00 00
	00 00		 mov	 DWORD PTR $T512636[ebp], OFFSET ??_7bad_alloc@std@@6B@
  00046	e8 00 00 00 00	 call	 __CxxThrowException@8
$LN10@Allocate:
$LN5@Allocate:

; 40   : 	}

  0004b	c9		 leave
  0004c	c3		 ret	 0
$LN9@Allocate:
??$_Allocate@U_Node@?$_List_nod@PAVioPlayEntity@@V?$allocator@PAVioPlayEntity@@@std@@@std@@@std@@YAPAU_Node@?$_List_nod@PAVioPlayEntity@@V?$allocator@PAVioPlayEntity@@@std@@@0@IPAU120@@Z ENDP ; std::_Allocate<std::_List_nod<ioPlayEntity *,std::allocator<ioPlayEntity *> >::_Node>
_TEXT	ENDS
EXTRN	__imp_??0exception@std@@QAE@ABV01@@Z:PROC
; Function compile flags: /Ogsp
;	COMDAT ??0bad_alloc@std@@QAE@ABV01@@Z
_TEXT	SEGMENT
___that$ = 8						; size = 4
??0bad_alloc@std@@QAE@ABV01@@Z PROC			; std::bad_alloc::bad_alloc, COMDAT
; _this$ = ecx
  00000	55		 push	 ebp
  00001	8b ec		 mov	 ebp, esp
  00003	56		 push	 esi
  00004	ff 75 08	 push	 DWORD PTR ___that$[ebp]
  00007	8b f1		 mov	 esi, ecx
  00009	ff 15 00 00 00
	00		 call	 DWORD PTR __imp_??0exception@std@@QAE@ABV01@@Z
  0000f	c7 06 00 00 00
	00		 mov	 DWORD PTR [esi], OFFSET ??_7bad_alloc@std@@6B@
  00015	8b c6		 mov	 eax, esi
  00017	5e		 pop	 esi
  00018	5d		 pop	 ebp
  00019	c2 04 00	 ret	 4
??0bad_alloc@std@@QAE@ABV01@@Z ENDP			; std::bad_alloc::bad_alloc
_TEXT	ENDS
PUBLIC	?destroy@?$allocator@U_Node@?$_List_nod@PAVioPlayEntity@@V?$allocator@PAVioPlayEntity@@@std@@@std@@@std@@QAEXPAU_Node@?$_List_nod@PAVioPlayEntity@@V?$allocator@PAVioPlayEntity@@@std@@@2@@Z ; std::allocator<std::_List_nod<ioPlayEntity *,std::allocator<ioPlayEntity *> >::_Node>::destroy
; Function compile flags: /Ogsp
;	COMDAT ?destroy@?$allocator@U_Node@?$_List_nod@PAVioPlayEntity@@V?$allocator@PAVioPlayEntity@@@std@@@std@@@std@@QAEXPAU_Node@?$_List_nod@PAVioPlayEntity@@V?$allocator@PAVioPlayEntity@@@std@@@2@@Z
_TEXT	SEGMENT
__Ptr$ = 8						; size = 4
?destroy@?$allocator@U_Node@?$_List_nod@PAVioPlayEntity@@V?$allocator@PAVioPlayEntity@@@std@@@std@@@std@@QAEXPAU_Node@?$_List_nod@PAVioPlayEntity@@V?$allocator@PAVioPlayEntity@@@std@@@2@@Z PROC ; std::allocator<std::_List_nod<ioPlayEntity *,std::allocator<ioPlayEntity *> >::_Node>::destroy, COMDAT
; _this$ = ecx

; 213  : 		_Destroy(_Ptr);
; 214  : 		}

  00000	c2 04 00	 ret	 4
?destroy@?$allocator@U_Node@?$_List_nod@PAVioPlayEntity@@V?$allocator@PAVioPlayEntity@@@std@@@std@@@std@@QAEXPAU_Node@?$_List_nod@PAVioPlayEntity@@V?$allocator@PAVioPlayEntity@@@std@@@2@@Z ENDP ; std::allocator<std::_List_nod<ioPlayEntity *,std::allocator<ioPlayEntity *> >::_Node>::destroy
_TEXT	ENDS
PUBLIC	??$_Construct@PAVioPlayEntity@@ABQAV1@@std@@YAXPAPAVioPlayEntity@@ABQAV1@@Z ; std::_Construct<ioPlayEntity *,ioPlayEntity * const &>
; Function compile flags: /Ogsp
;	COMDAT ??$_Construct@PAVioPlayEntity@@ABQAV1@@std@@YAXPAPAVioPlayEntity@@ABQAV1@@Z
_TEXT	SEGMENT
__Ptr$ = 8						; size = 4
__Val$ = 12						; size = 4
??$_Construct@PAVioPlayEntity@@ABQAV1@@std@@YAXPAPAVioPlayEntity@@ABQAV1@@Z PROC ; std::_Construct<ioPlayEntity *,ioPlayEntity * const &>, COMDAT

; 46   : 	{	// construct object at _Ptr with value _Val

  00000	55		 push	 ebp
  00001	8b ec		 mov	 ebp, esp

; 47   : 	void _FARQ *_Vptr = _Ptr;
; 48   : 	::new (_Vptr) _Ty1(_STD forward<_Ty2>(_Val));

  00003	8b 45 08	 mov	 eax, DWORD PTR __Ptr$[ebp]
  00006	85 c0		 test	 eax, eax
  00008	74 07		 je	 SHORT $LN3@Construct
  0000a	8b 4d 0c	 mov	 ecx, DWORD PTR __Val$[ebp]
  0000d	8b 09		 mov	 ecx, DWORD PTR [ecx]
  0000f	89 08		 mov	 DWORD PTR [eax], ecx
$LN3@Construct:

; 49   : 	}

  00011	5d		 pop	 ebp
  00012	c3		 ret	 0
??$_Construct@PAVioPlayEntity@@ABQAV1@@std@@YAXPAPAVioPlayEntity@@ABQAV1@@Z ENDP ; std::_Construct<ioPlayEntity *,ioPlayEntity * const &>
_TEXT	ENDS
PUBLIC	??0?$_List_const_iterator@V?$_List_val@PAVioGameEntity@@V?$allocator@PAVioGameEntity@@@std@@@std@@@std@@QAE@PAU_Node@?$_List_nod@PAVioGameEntity@@V?$allocator@PAVioGameEntity@@@std@@@1@PBV?$_List_val@PAVioGameEntity@@V?$allocator@PAVioGameEntity@@@std@@@1@@Z ; std::_List_const_iterator<std::_List_val<ioGameEntity *,std::allocator<ioGameEntity *> > >::_List_const_iterator<std::_List_val<ioGameEntity *,std::allocator<ioGameEntity *> > >
; Function compile flags: /Ogsp
; File c:\program files (x86)\microsoft visual studio 10.0\vc\include\list
;	COMDAT ??0?$_List_const_iterator@V?$_List_val@PAVioGameEntity@@V?$allocator@PAVioGameEntity@@@std@@@std@@@std@@QAE@PAU_Node@?$_List_nod@PAVioGameEntity@@V?$allocator@PAVioGameEntity@@@std@@@1@PBV?$_List_val@PAVioGameEntity@@V?$allocator@PAVioGameEntity@@@std@@@1@@Z
_TEXT	SEGMENT
__Pnode$ = 8						; size = 4
__Plist$ = 12						; size = 4
??0?$_List_const_iterator@V?$_List_val@PAVioGameEntity@@V?$allocator@PAVioGameEntity@@@std@@@std@@@std@@QAE@PAU_Node@?$_List_nod@PAVioGameEntity@@V?$allocator@PAVioGameEntity@@@std@@@1@PBV?$_List_val@PAVioGameEntity@@V?$allocator@PAVioGameEntity@@@std@@@1@@Z PROC ; std::_List_const_iterator<std::_List_val<ioGameEntity *,std::allocator<ioGameEntity *> > >::_List_const_iterator<std::_List_val<ioGameEntity *,std::allocator<ioGameEntity *> > >, COMDAT
; _this$ = ecx

; 184  : 		{	// construct with node pointer _Pnode

  00000	55		 push	 ebp
  00001	8b ec		 mov	 ebp, esp
  00003	8b c1		 mov	 eax, ecx
  00005	8b 4d 08	 mov	 ecx, DWORD PTR __Pnode$[ebp]
  00008	89 08		 mov	 DWORD PTR [eax], ecx

; 185  : 		}

  0000a	5d		 pop	 ebp
  0000b	c2 08 00	 ret	 8
??0?$_List_const_iterator@V?$_List_val@PAVioGameEntity@@V?$allocator@PAVioGameEntity@@@std@@@std@@@std@@QAE@PAU_Node@?$_List_nod@PAVioGameEntity@@V?$allocator@PAVioGameEntity@@@std@@@1@PBV?$_List_val@PAVioGameEntity@@V?$allocator@PAVioGameEntity@@@std@@@1@@Z ENDP ; std::_List_const_iterator<std::_List_val<ioGameEntity *,std::allocator<ioGameEntity *> > >::_List_const_iterator<std::_List_val<ioGameEntity *,std::allocator<ioGameEntity *> > >
_TEXT	ENDS
PUBLIC	??_C@_0BB@MOGOBHAF@list?$DMT?$DO?5too?5long?$AA@ ; `string'
PUBLIC	?_Incsize@?$list@PAVioPlayEntity@@V?$allocator@PAVioPlayEntity@@@std@@@std@@QAEXI@Z ; std::list<ioPlayEntity *,std::allocator<ioPlayEntity *> >::_Incsize
EXTRN	__imp_?_Xlength_error@std@@YAXPBD@Z:PROC
;	COMDAT ??_C@_0BB@MOGOBHAF@list?$DMT?$DO?5too?5long?$AA@
; File c:\program files (x86)\microsoft visual studio 10.0\vc\include\xmemory
CONST	SEGMENT
??_C@_0BB@MOGOBHAF@list?$DMT?$DO?5too?5long?$AA@ DB 'list<T> too long', 00H ; `string'
; Function compile flags: /Ogsp
; File c:\program files (x86)\microsoft visual studio 10.0\vc\include\list
CONST	ENDS
;	COMDAT ?_Incsize@?$list@PAVioPlayEntity@@V?$allocator@PAVioPlayEntity@@@std@@@std@@QAEXI@Z
_TEXT	SEGMENT
__Count$ = 8						; size = 4
?_Incsize@?$list@PAVioPlayEntity@@V?$allocator@PAVioPlayEntity@@@std@@@std@@QAEXI@Z PROC ; std::list<ioPlayEntity *,std::allocator<ioPlayEntity *> >::_Incsize, COMDAT
; _this$ = ecx

; 1519 : 		{	// alter element count, with checking

  00000	55		 push	 ebp
  00001	8b ec		 mov	 ebp, esp

; 1520 : 		if (max_size() - this->_Mysize - 1 < _Count)

  00003	8b 41 04	 mov	 eax, DWORD PTR [ecx+4]
  00006	8b 55 08	 mov	 edx, DWORD PTR __Count$[ebp]
  00009	56		 push	 esi
  0000a	be fe ff ff 3f	 mov	 esi, 1073741822		; 3ffffffeH
  0000f	2b f0		 sub	 esi, eax
  00011	3b f2		 cmp	 esi, edx
  00013	5e		 pop	 esi
  00014	73 0b		 jae	 SHORT $LN1@Incsize

; 1521 : 			_Xlength_error("list<T> too long");

  00016	68 00 00 00 00	 push	 OFFSET ??_C@_0BB@MOGOBHAF@list?$DMT?$DO?5too?5long?$AA@
  0001b	ff 15 00 00 00
	00		 call	 DWORD PTR __imp_?_Xlength_error@std@@YAXPBD@Z
$LN11@Incsize:
$LN1@Incsize:

; 1522 : 		this->_Mysize += _Count;

  00021	03 c2		 add	 eax, edx
  00023	89 41 04	 mov	 DWORD PTR [ecx+4], eax

; 1523 : 		}

  00026	5d		 pop	 ebp
  00027	c2 04 00	 ret	 4
$LN10@Incsize:
?_Incsize@?$list@PAVioPlayEntity@@V?$allocator@PAVioPlayEntity@@@std@@@std@@QAEXI@Z ENDP ; std::list<ioPlayEntity *,std::allocator<ioPlayEntity *> >::_Incsize
_TEXT	ENDS
PUBLIC	?allocate@?$allocator@U_Node@?$_List_nod@PAVioPlayEntity@@V?$allocator@PAVioPlayEntity@@@std@@@std@@@std@@QAEPAU_Node@?$_List_nod@PAVioPlayEntity@@V?$allocator@PAVioPlayEntity@@@std@@@2@I@Z ; std::allocator<std::_List_nod<ioPlayEntity *,std::allocator<ioPlayEntity *> >::_Node>::allocate
; Function compile flags: /Ogsp
; File c:\program files (x86)\microsoft visual studio 10.0\vc\include\xmemory
;	COMDAT ?allocate@?$allocator@U_Node@?$_List_nod@PAVioPlayEntity@@V?$allocator@PAVioPlayEntity@@@std@@@std@@@std@@QAEPAU_Node@?$_List_nod@PAVioPlayEntity@@V?$allocator@PAVioPlayEntity@@@std@@@2@I@Z
_TEXT	SEGMENT
__Count$ = 8						; size = 4
?allocate@?$allocator@U_Node@?$_List_nod@PAVioPlayEntity@@V?$allocator@PAVioPlayEntity@@@std@@@std@@@std@@QAEPAU_Node@?$_List_nod@PAVioPlayEntity@@V?$allocator@PAVioPlayEntity@@@std@@@2@I@Z PROC ; std::allocator<std::_List_nod<ioPlayEntity *,std::allocator<ioPlayEntity *> >::_Node>::allocate, COMDAT
; _this$ = ecx

; 186  : 		{	// allocate array of _Count elements

  00000	55		 push	 ebp
  00001	8b ec		 mov	 ebp, esp

; 187  : 		return (_Allocate(_Count, (pointer)0));

  00003	6a 00		 push	 0
  00005	ff 75 08	 push	 DWORD PTR __Count$[ebp]
  00008	e8 00 00 00 00	 call	 ??$_Allocate@U_Node@?$_List_nod@PAVioPlayEntity@@V?$allocator@PAVioPlayEntity@@@std@@@std@@@std@@YAPAU_Node@?$_List_nod@PAVioPlayEntity@@V?$allocator@PAVioPlayEntity@@@std@@@0@IPAU120@@Z ; std::_Allocate<std::_List_nod<ioPlayEntity *,std::allocator<ioPlayEntity *> >::_Node>
  0000d	59		 pop	 ecx
  0000e	59		 pop	 ecx

; 188  : 		}

  0000f	5d		 pop	 ebp
  00010	c2 04 00	 ret	 4
?allocate@?$allocator@U_Node@?$_List_nod@PAVioPlayEntity@@V?$allocator@PAVioPlayEntity@@@std@@@std@@@std@@QAEPAU_Node@?$_List_nod@PAVioPlayEntity@@V?$allocator@PAVioPlayEntity@@@std@@@2@I@Z ENDP ; std::allocator<std::_List_nod<ioPlayEntity *,std::allocator<ioPlayEntity *> >::_Node>::allocate
_TEXT	ENDS
PUBLIC	??0?$_List_const_iterator@V?$_List_val@PAVioPlayEntity@@V?$allocator@PAVioPlayEntity@@@std@@@std@@@std@@QAE@PAU_Node@?$_List_nod@PAVioPlayEntity@@V?$allocator@PAVioPlayEntity@@@std@@@1@PBV?$_List_val@PAVioPlayEntity@@V?$allocator@PAVioPlayEntity@@@std@@@1@@Z ; std::_List_const_iterator<std::_List_val<ioPlayEntity *,std::allocator<ioPlayEntity *> > >::_List_const_iterator<std::_List_val<ioPlayEntity *,std::allocator<ioPlayEntity *> > >
; Function compile flags: /Ogsp
; File c:\program files (x86)\microsoft visual studio 10.0\vc\include\list
;	COMDAT ??0?$_List_const_iterator@V?$_List_val@PAVioPlayEntity@@V?$allocator@PAVioPlayEntity@@@std@@@std@@@std@@QAE@PAU_Node@?$_List_nod@PAVioPlayEntity@@V?$allocator@PAVioPlayEntity@@@std@@@1@PBV?$_List_val@PAVioPlayEntity@@V?$allocator@PAVioPlayEntity@@@std@@@1@@Z
_TEXT	SEGMENT
__Pnode$ = 8						; size = 4
__Plist$ = 12						; size = 4
??0?$_List_const_iterator@V?$_List_val@PAVioPlayEntity@@V?$allocator@PAVioPlayEntity@@@std@@@std@@@std@@QAE@PAU_Node@?$_List_nod@PAVioPlayEntity@@V?$allocator@PAVioPlayEntity@@@std@@@1@PBV?$_List_val@PAVioPlayEntity@@V?$allocator@PAVioPlayEntity@@@std@@@1@@Z PROC ; std::_List_const_iterator<std::_List_val<ioPlayEntity *,std::allocator<ioPlayEntity *> > >::_List_const_iterator<std::_List_val<ioPlayEntity *,std::allocator<ioPlayEntity *> > >, COMDAT
; _this$ = ecx

; 184  : 		{	// construct with node pointer _Pnode

  00000	55		 push	 ebp
  00001	8b ec		 mov	 ebp, esp
  00003	8b c1		 mov	 eax, ecx
  00005	8b 4d 08	 mov	 ecx, DWORD PTR __Pnode$[ebp]
  00008	89 08		 mov	 DWORD PTR [eax], ecx

; 185  : 		}

  0000a	5d		 pop	 ebp
  0000b	c2 08 00	 ret	 8
??0?$_List_const_iterator@V?$_List_val@PAVioPlayEntity@@V?$allocator@PAVioPlayEntity@@@std@@@std@@@std@@QAE@PAU_Node@?$_List_nod@PAVioPlayEntity@@V?$allocator@PAVioPlayEntity@@@std@@@1@PBV?$_List_val@PAVioPlayEntity@@V?$allocator@PAVioPlayEntity@@@std@@@1@@Z ENDP ; std::_List_const_iterator<std::_List_val<ioPlayEntity *,std::allocator<ioPlayEntity *> > >::_List_const_iterator<std::_List_val<ioPlayEntity *,std::allocator<ioPlayEntity *> > >
_TEXT	ENDS
PUBLIC	??$_Dest_val@V?$allocator@U_Node@?$_List_nod@PAVioPlayEntity@@V?$allocator@PAVioPlayEntity@@@std@@@std@@@std@@U_Node@?$_List_nod@PAVioPlayEntity@@V?$allocator@PAVioPlayEntity@@@std@@@2@@std@@YAXAAV?$allocator@U_Node@?$_List_nod@PAVioPlayEntity@@V?$allocator@PAVioPlayEntity@@@std@@@std@@@0@PAU_Node@?$_List_nod@PAVioPlayEntity@@V?$allocator@PAVioPlayEntity@@@std@@@0@@Z ; std::_Dest_val<std::allocator<std::_List_nod<ioPlayEntity *,std::allocator<ioPlayEntity *> >::_Node>,std::_List_nod<ioPlayEntity *,std::allocator<ioPlayEntity *> >::_Node>
; Function compile flags: /Ogsp
; File c:\program files (x86)\microsoft visual studio 10.0\vc\include\xmemory
;	COMDAT ??$_Dest_val@V?$allocator@U_Node@?$_List_nod@PAVioPlayEntity@@V?$allocator@PAVioPlayEntity@@@std@@@std@@@std@@U_Node@?$_List_nod@PAVioPlayEntity@@V?$allocator@PAVioPlayEntity@@@std@@@2@@std@@YAXAAV?$allocator@U_Node@?$_List_nod@PAVioPlayEntity@@V?$allocator@PAVioPlayEntity@@@std@@@std@@@0@PAU_Node@?$_List_nod@PAVioPlayEntity@@V?$allocator@PAVioPlayEntity@@@std@@@0@@Z
_TEXT	SEGMENT
__Alval$ = 8						; size = 4
__Pdest$ = 12						; size = 4
??$_Dest_val@V?$allocator@U_Node@?$_List_nod@PAVioPlayEntity@@V?$allocator@PAVioPlayEntity@@@std@@@std@@@std@@U_Node@?$_List_nod@PAVioPlayEntity@@V?$allocator@PAVioPlayEntity@@@std@@@2@@std@@YAXAAV?$allocator@U_Node@?$_List_nod@PAVioPlayEntity@@V?$allocator@PAVioPlayEntity@@@std@@@std@@@0@PAU_Node@?$_List_nod@PAVioPlayEntity@@V?$allocator@PAVioPlayEntity@@@std@@@0@@Z PROC ; std::_Dest_val<std::allocator<std::_List_nod<ioPlayEntity *,std::allocator<ioPlayEntity *> >::_Node>,std::_List_nod<ioPlayEntity *,std::allocator<ioPlayEntity *> >::_Node>, COMDAT

; 287  : 	_Alval.destroy(_Pdest);
; 288  : 	}

  00000	c3		 ret	 0
??$_Dest_val@V?$allocator@U_Node@?$_List_nod@PAVioPlayEntity@@V?$allocator@PAVioPlayEntity@@@std@@@std@@@std@@U_Node@?$_List_nod@PAVioPlayEntity@@V?$allocator@PAVioPlayEntity@@@std@@@2@@std@@YAXAAV?$allocator@U_Node@?$_List_nod@PAVioPlayEntity@@V?$allocator@PAVioPlayEntity@@@std@@@std@@@0@PAU_Node@?$_List_nod@PAVioPlayEntity@@V?$allocator@PAVioPlayEntity@@@std@@@0@@Z ENDP ; std::_Dest_val<std::allocator<std::_List_nod<ioPlayEntity *,std::allocator<ioPlayEntity *> >::_Node>,std::_List_nod<ioPlayEntity *,std::allocator<ioPlayEntity *> >::_Node>
_TEXT	ENDS
PUBLIC	?construct@?$allocator@PAVioPlayEntity@@@std@@QAEXPAPAVioPlayEntity@@ABQAV3@@Z ; std::allocator<ioPlayEntity *>::construct
; Function compile flags: /Ogsp
;	COMDAT ?construct@?$allocator@PAVioPlayEntity@@@std@@QAEXPAPAVioPlayEntity@@ABQAV3@@Z
_TEXT	SEGMENT
__Ptr$ = 8						; size = 4
__Val$ = 12						; size = 4
?construct@?$allocator@PAVioPlayEntity@@@std@@QAEXPAPAVioPlayEntity@@ABQAV3@@Z PROC ; std::allocator<ioPlayEntity *>::construct, COMDAT
; _this$ = ecx

; 196  : 		{	// construct object at _Ptr with value _Val

  00000	55		 push	 ebp
  00001	8b ec		 mov	 ebp, esp

; 197  : 		_Construct(_Ptr, _Val);

  00003	8b 45 08	 mov	 eax, DWORD PTR __Ptr$[ebp]
  00006	85 c0		 test	 eax, eax
  00008	74 07		 je	 SHORT $LN5@construct
  0000a	8b 4d 0c	 mov	 ecx, DWORD PTR __Val$[ebp]
  0000d	8b 09		 mov	 ecx, DWORD PTR [ecx]
  0000f	89 08		 mov	 DWORD PTR [eax], ecx
$LN5@construct:

; 198  : 		}

  00011	5d		 pop	 ebp
  00012	c2 08 00	 ret	 8
?construct@?$allocator@PAVioPlayEntity@@@std@@QAEXPAPAVioPlayEntity@@ABQAV3@@Z ENDP ; std::allocator<ioPlayEntity *>::construct
_TEXT	ENDS
PUBLIC	?begin@?$list@PAVioGameEntity@@V?$allocator@PAVioGameEntity@@@std@@@std@@QBE?AV?$_List_const_iterator@V?$_List_val@PAVioGameEntity@@V?$allocator@PAVioGameEntity@@@std@@@std@@@2@XZ ; std::list<ioGameEntity *,std::allocator<ioGameEntity *> >::begin
; Function compile flags: /Ogsp
; File c:\program files (x86)\microsoft visual studio 10.0\vc\include\list
;	COMDAT ?begin@?$list@PAVioGameEntity@@V?$allocator@PAVioGameEntity@@@std@@@std@@QBE?AV?$_List_const_iterator@V?$_List_val@PAVioGameEntity@@V?$allocator@PAVioGameEntity@@@std@@@std@@@2@XZ
_TEXT	SEGMENT
___$ReturnUdt$ = 8					; size = 4
?begin@?$list@PAVioGameEntity@@V?$allocator@PAVioGameEntity@@@std@@@std@@QBE?AV?$_List_const_iterator@V?$_List_val@PAVioGameEntity@@V?$allocator@PAVioGameEntity@@@std@@@std@@@2@XZ PROC ; std::list<ioGameEntity *,std::allocator<ioGameEntity *> >::begin, COMDAT
; _this$ = ecx

; 786  : 		{	// return iterator for beginning of nonmutable sequence

  00000	55		 push	 ebp
  00001	8b ec		 mov	 ebp, esp

; 787  : 		return (const_iterator(this->_Nextnode(this->_Myhead), this));

  00003	8b 01		 mov	 eax, DWORD PTR [ecx]
  00005	8b 08		 mov	 ecx, DWORD PTR [eax]
  00007	8b 45 08	 mov	 eax, DWORD PTR ___$ReturnUdt$[ebp]
  0000a	89 08		 mov	 DWORD PTR [eax], ecx

; 788  : 		}

  0000c	5d		 pop	 ebp
  0000d	c2 04 00	 ret	 4
?begin@?$list@PAVioGameEntity@@V?$allocator@PAVioGameEntity@@@std@@@std@@QBE?AV?$_List_const_iterator@V?$_List_val@PAVioGameEntity@@V?$allocator@PAVioGameEntity@@@std@@@std@@@2@XZ ENDP ; std::list<ioGameEntity *,std::allocator<ioGameEntity *> >::begin
_TEXT	ENDS
PUBLIC	?end@?$list@PAVioGameEntity@@V?$allocator@PAVioGameEntity@@@std@@@std@@QBE?AV?$_List_const_iterator@V?$_List_val@PAVioGameEntity@@V?$allocator@PAVioGameEntity@@@std@@@std@@@2@XZ ; std::list<ioGameEntity *,std::allocator<ioGameEntity *> >::end
; Function compile flags: /Ogsp
;	COMDAT ?end@?$list@PAVioGameEntity@@V?$allocator@PAVioGameEntity@@@std@@@std@@QBE?AV?$_List_const_iterator@V?$_List_val@PAVioGameEntity@@V?$allocator@PAVioGameEntity@@@std@@@std@@@2@XZ
_TEXT	SEGMENT
___$ReturnUdt$ = 8					; size = 4
?end@?$list@PAVioGameEntity@@V?$allocator@PAVioGameEntity@@@std@@@std@@QBE?AV?$_List_const_iterator@V?$_List_val@PAVioGameEntity@@V?$allocator@PAVioGameEntity@@@std@@@std@@@2@XZ PROC ; std::list<ioGameEntity *,std::allocator<ioGameEntity *> >::end, COMDAT
; _this$ = ecx

; 796  : 		{	// return iterator for end of nonmutable sequence

  00000	55		 push	 ebp
  00001	8b ec		 mov	 ebp, esp

; 797  : 		return (const_iterator(this->_Myhead, this));

  00003	8b 09		 mov	 ecx, DWORD PTR [ecx]
  00005	8b 45 08	 mov	 eax, DWORD PTR ___$ReturnUdt$[ebp]
  00008	89 08		 mov	 DWORD PTR [eax], ecx

; 798  : 		}

  0000a	5d		 pop	 ebp
  0000b	c2 04 00	 ret	 4
?end@?$list@PAVioGameEntity@@V?$allocator@PAVioGameEntity@@@std@@@std@@QBE?AV?$_List_const_iterator@V?$_List_val@PAVioGameEntity@@V?$allocator@PAVioGameEntity@@@std@@@std@@@2@XZ ENDP ; std::list<ioGameEntity *,std::allocator<ioGameEntity *> >::end
_TEXT	ENDS
PUBLIC	??0?$_List_val@PAVioPlayEntity@@V?$allocator@PAVioPlayEntity@@@std@@@std@@QAE@V?$allocator@PAVioPlayEntity@@@1@@Z ; std::_List_val<ioPlayEntity *,std::allocator<ioPlayEntity *> >::_List_val<ioPlayEntity *,std::allocator<ioPlayEntity *> >
; Function compile flags: /Ogsp
;	COMDAT ??0?$_List_val@PAVioPlayEntity@@V?$allocator@PAVioPlayEntity@@@std@@@std@@QAE@V?$allocator@PAVioPlayEntity@@@1@@Z
_TEXT	SEGMENT
$T512833 = -16						; size = 12
$T512810 = -4						; size = 4
__Al$ = 8						; size = 1
??0?$_List_val@PAVioPlayEntity@@V?$allocator@PAVioPlayEntity@@@std@@@std@@QAE@V?$allocator@PAVioPlayEntity@@@1@@Z PROC ; std::_List_val<ioPlayEntity *,std::allocator<ioPlayEntity *> >::_List_val<ioPlayEntity *,std::allocator<ioPlayEntity *> >, COMDAT
; _this$ = ecx

; 493  : 		{	// construct base, and allocator from _Al

  00000	55		 push	 ebp
  00001	8b ec		 mov	 ebp, esp
  00003	83 ec 10	 sub	 esp, 16			; 00000010H
  00006	56		 push	 esi
  00007	8b f1		 mov	 esi, ecx

; 494  : 		this->_Mysize = 0;

  00009	83 66 04 00	 and	 DWORD PTR [esi+4], 0

; 495  : 		this->_Myhead = this->_Alnod.allocate(1);

  0000d	6a 0c		 push	 12			; 0000000cH
  0000f	e8 00 00 00 00	 call	 ??2@YAPAXI@Z		; operator new
  00014	59		 pop	 ecx
  00015	85 c0		 test	 eax, eax
  00017	74 10		 je	 SHORT $LN13@List_val
  00019	89 06		 mov	 DWORD PTR [esi], eax

; 496  : 		this->_Nextnode(this->_Myhead) = this->_Myhead;

  0001b	89 00		 mov	 DWORD PTR [eax], eax

; 497  : 		this->_Prevnode(this->_Myhead) = this->_Myhead;

  0001d	8b 06		 mov	 eax, DWORD PTR [esi]
  0001f	89 40 04	 mov	 DWORD PTR [eax+4], eax

; 498  : 		}

  00022	8b c6		 mov	 eax, esi
  00024	5e		 pop	 esi
  00025	c9		 leave
  00026	c2 04 00	 ret	 4

; 495  : 		this->_Myhead = this->_Alnod.allocate(1);

$LN13@List_val:
  00029	83 65 fc 00	 and	 DWORD PTR $T512810[ebp], 0
  0002d	8d 45 fc	 lea	 eax, DWORD PTR $T512810[ebp]
  00030	50		 push	 eax
  00031	8d 4d f0	 lea	 ecx, DWORD PTR $T512833[ebp]
  00034	ff 15 00 00 00
	00		 call	 DWORD PTR __imp_??0exception@std@@QAE@ABQBD@Z
  0003a	68 00 00 00 00	 push	 OFFSET __TI2?AVbad_alloc@std@@
  0003f	8d 45 f0	 lea	 eax, DWORD PTR $T512833[ebp]
  00042	50		 push	 eax
  00043	c7 45 f0 00 00
	00 00		 mov	 DWORD PTR $T512833[ebp], OFFSET ??_7bad_alloc@std@@6B@
  0004a	e8 00 00 00 00	 call	 __CxxThrowException@8
$LN29@List_val:
$LN28@List_val:
  0004f	cc		 int	 3
??0?$_List_val@PAVioPlayEntity@@V?$allocator@PAVioPlayEntity@@@std@@@std@@QAE@V?$allocator@PAVioPlayEntity@@@1@@Z ENDP ; std::_List_val<ioPlayEntity *,std::allocator<ioPlayEntity *> >::_List_val<ioPlayEntity *,std::allocator<ioPlayEntity *> >
_TEXT	ENDS
PUBLIC	?clear@?$list@PAVioPlayEntity@@V?$allocator@PAVioPlayEntity@@@std@@@std@@QAEXXZ ; std::list<ioPlayEntity *,std::allocator<ioPlayEntity *> >::clear
; Function compile flags: /Ogsp
;	COMDAT ?clear@?$list@PAVioPlayEntity@@V?$allocator@PAVioPlayEntity@@@std@@@std@@QAEXXZ
_TEXT	SEGMENT
?clear@?$list@PAVioPlayEntity@@V?$allocator@PAVioPlayEntity@@@std@@@std@@QAEXXZ PROC ; std::list<ioPlayEntity *,std::allocator<ioPlayEntity *> >::clear, COMDAT
; _this$ = ecx

; 1096 : 		{	// erase all

  00000	56		 push	 esi
  00001	8b f1		 mov	 esi, ecx

; 1097 :  #if _ITERATOR_DEBUG_LEVEL == 2
; 1098 : 		this->_Orphan_ptr(*this, 0);
; 1099 :  #endif /* _ITERATOR_DEBUG_LEVEL == 2 */
; 1100 : 
; 1101 : 		_Nodeptr _Pnext;
; 1102 : 		_Nodeptr _Pnode = this->_Nextnode(this->_Myhead);

  00003	8b 06		 mov	 eax, DWORD PTR [esi]
  00005	8b 08		 mov	 ecx, DWORD PTR [eax]

; 1103 : 		this->_Nextnode(this->_Myhead) = this->_Myhead;

  00007	89 00		 mov	 DWORD PTR [eax], eax

; 1104 : 		this->_Prevnode(this->_Myhead) = this->_Myhead;

  00009	8b 06		 mov	 eax, DWORD PTR [esi]
  0000b	89 40 04	 mov	 DWORD PTR [eax+4], eax

; 1105 : 		this->_Mysize = 0;

  0000e	83 66 04 00	 and	 DWORD PTR [esi+4], 0

; 1106 : 
; 1107 : 		for (; _Pnode != this->_Myhead; _Pnode = _Pnext)

  00012	3b 0e		 cmp	 ecx, DWORD PTR [esi]
  00014	74 11		 je	 SHORT $LN1@clear
  00016	57		 push	 edi
$LL3@clear:

; 1108 : 			{	// delete an element
; 1109 : 			_Pnext = this->_Nextnode(_Pnode);

  00017	8b 39		 mov	 edi, DWORD PTR [ecx]

; 1110 : 
; 1111 : 			_Dest_val(this->_Alnod, _Pnode);
; 1112 : 			this->_Alnod.deallocate(_Pnode, 1);

  00019	51		 push	 ecx
  0001a	e8 00 00 00 00	 call	 ??3@YAXPAX@Z		; operator delete
  0001f	59		 pop	 ecx
  00020	8b cf		 mov	 ecx, edi
  00022	3b 3e		 cmp	 edi, DWORD PTR [esi]
  00024	75 f1		 jne	 SHORT $LL3@clear
  00026	5f		 pop	 edi
$LN1@clear:
  00027	5e		 pop	 esi

; 1113 : 			}
; 1114 : 		}

  00028	c3		 ret	 0
?clear@?$list@PAVioPlayEntity@@V?$allocator@PAVioPlayEntity@@@std@@@std@@QAEXXZ ENDP ; std::list<ioPlayEntity *,std::allocator<ioPlayEntity *> >::clear
_TEXT	ENDS
PUBLIC	??0?$_List_iterator@V?$_List_val@PAVioPlayEntity@@V?$allocator@PAVioPlayEntity@@@std@@@std@@@std@@QAE@PAU_Node@?$_List_nod@PAVioPlayEntity@@V?$allocator@PAVioPlayEntity@@@std@@@1@PBV?$_List_val@PAVioPlayEntity@@V?$allocator@PAVioPlayEntity@@@std@@@1@@Z ; std::_List_iterator<std::_List_val<ioPlayEntity *,std::allocator<ioPlayEntity *> > >::_List_iterator<std::_List_val<ioPlayEntity *,std::allocator<ioPlayEntity *> > >
; Function compile flags: /Ogsp
;	COMDAT ??0?$_List_iterator@V?$_List_val@PAVioPlayEntity@@V?$allocator@PAVioPlayEntity@@@std@@@std@@@std@@QAE@PAU_Node@?$_List_nod@PAVioPlayEntity@@V?$allocator@PAVioPlayEntity@@@std@@@1@PBV?$_List_val@PAVioPlayEntity@@V?$allocator@PAVioPlayEntity@@@std@@@1@@Z
_TEXT	SEGMENT
__Pnode$ = 8						; size = 4
__Plist$ = 12						; size = 4
??0?$_List_iterator@V?$_List_val@PAVioPlayEntity@@V?$allocator@PAVioPlayEntity@@@std@@@std@@@std@@QAE@PAU_Node@?$_List_nod@PAVioPlayEntity@@V?$allocator@PAVioPlayEntity@@@std@@@1@PBV?$_List_val@PAVioPlayEntity@@V?$allocator@PAVioPlayEntity@@@std@@@1@@Z PROC ; std::_List_iterator<std::_List_val<ioPlayEntity *,std::allocator<ioPlayEntity *> > >::_List_iterator<std::_List_val<ioPlayEntity *,std::allocator<ioPlayEntity *> > >, COMDAT
; _this$ = ecx

; 342  : 		{	// construct with node pointer _Pnode

  00000	55		 push	 ebp
  00001	8b ec		 mov	 ebp, esp
  00003	8b c1		 mov	 eax, ecx
  00005	8b 4d 08	 mov	 ecx, DWORD PTR __Pnode$[ebp]
  00008	89 08		 mov	 DWORD PTR [eax], ecx

; 343  : 		}

  0000a	5d		 pop	 ebp
  0000b	c2 08 00	 ret	 8
??0?$_List_iterator@V?$_List_val@PAVioPlayEntity@@V?$allocator@PAVioPlayEntity@@@std@@@std@@@std@@QAE@PAU_Node@?$_List_nod@PAVioPlayEntity@@V?$allocator@PAVioPlayEntity@@@std@@@1@PBV?$_List_val@PAVioPlayEntity@@V?$allocator@PAVioPlayEntity@@@std@@@1@@Z ENDP ; std::_List_iterator<std::_List_val<ioPlayEntity *,std::allocator<ioPlayEntity *> > >::_List_iterator<std::_List_val<ioPlayEntity *,std::allocator<ioPlayEntity *> > >
_TEXT	ENDS
PUBLIC	??$_Cons_val@V?$allocator@PAVioPlayEntity@@@std@@PAVioPlayEntity@@ABQAV3@@std@@YAXAAV?$allocator@PAVioPlayEntity@@@0@PAPAVioPlayEntity@@ABQAV2@@Z ; std::_Cons_val<std::allocator<ioPlayEntity *>,ioPlayEntity *,ioPlayEntity * const &>
; Function compile flags: /Ogsp
; File c:\program files (x86)\microsoft visual studio 10.0\vc\include\xmemory
;	COMDAT ??$_Cons_val@V?$allocator@PAVioPlayEntity@@@std@@PAVioPlayEntity@@ABQAV3@@std@@YAXAAV?$allocator@PAVioPlayEntity@@@0@PAPAVioPlayEntity@@ABQAV2@@Z
_TEXT	SEGMENT
__Alval$ = 8						; size = 4
__Pdest$ = 12						; size = 4
__Src$ = 16						; size = 4
??$_Cons_val@V?$allocator@PAVioPlayEntity@@@std@@PAVioPlayEntity@@ABQAV3@@std@@YAXAAV?$allocator@PAVioPlayEntity@@@0@PAPAVioPlayEntity@@ABQAV2@@Z PROC ; std::_Cons_val<std::allocator<ioPlayEntity *>,ioPlayEntity *,ioPlayEntity * const &>, COMDAT

; 279  : 	{	// construct using allocator

  00000	55		 push	 ebp
  00001	8b ec		 mov	 ebp, esp

; 280  : 	_Alval.construct(_Pdest, _STD forward<_Ty2>(_Src));

  00003	8b 45 0c	 mov	 eax, DWORD PTR __Pdest$[ebp]
  00006	85 c0		 test	 eax, eax
  00008	74 07		 je	 SHORT $LN9@Cons_val
  0000a	8b 4d 10	 mov	 ecx, DWORD PTR __Src$[ebp]
  0000d	8b 09		 mov	 ecx, DWORD PTR [ecx]
  0000f	89 08		 mov	 DWORD PTR [eax], ecx
$LN9@Cons_val:

; 281  : 	}

  00011	5d		 pop	 ebp
  00012	c3		 ret	 0
??$_Cons_val@V?$allocator@PAVioPlayEntity@@@std@@PAVioPlayEntity@@ABQAV3@@std@@YAXAAV?$allocator@PAVioPlayEntity@@@0@PAPAVioPlayEntity@@ABQAV2@@Z ENDP ; std::_Cons_val<std::allocator<ioPlayEntity *>,ioPlayEntity *,ioPlayEntity * const &>
_TEXT	ENDS
PUBLIC	??0?$list@PAVioPlayEntity@@V?$allocator@PAVioPlayEntity@@@std@@@std@@QAE@XZ ; std::list<ioPlayEntity *,std::allocator<ioPlayEntity *> >::list<ioPlayEntity *,std::allocator<ioPlayEntity *> >
; Function compile flags: /Ogsp
; File c:\program files (x86)\microsoft visual studio 10.0\vc\include\list
;	COMDAT ??0?$list@PAVioPlayEntity@@V?$allocator@PAVioPlayEntity@@@std@@@std@@QAE@XZ
_TEXT	SEGMENT
$T512950 = -4						; size = 4
$T512945 = -4						; size = 4
??0?$list@PAVioPlayEntity@@V?$allocator@PAVioPlayEntity@@@std@@@std@@QAE@XZ PROC ; std::list<ioPlayEntity *,std::allocator<ioPlayEntity *> >::list<ioPlayEntity *,std::allocator<ioPlayEntity *> >, COMDAT
; _this$ = ecx

; 607  : 		{	// construct empty list

  00000	55		 push	 ebp
  00001	8b ec		 mov	 ebp, esp
  00003	51		 push	 ecx
  00004	56		 push	 esi
  00005	51		 push	 ecx
  00006	89 65 fc	 mov	 DWORD PTR $T512945[ebp], esp
  00009	8b f1		 mov	 esi, ecx
  0000b	89 65 fc	 mov	 DWORD PTR $T512950[ebp], esp
  0000e	e8 00 00 00 00	 call	 ??0?$_List_val@PAVioPlayEntity@@V?$allocator@PAVioPlayEntity@@@std@@@std@@QAE@V?$allocator@PAVioPlayEntity@@@1@@Z ; std::_List_val<ioPlayEntity *,std::allocator<ioPlayEntity *> >::_List_val<ioPlayEntity *,std::allocator<ioPlayEntity *> >

; 608  : 		}

  00013	8b c6		 mov	 eax, esi
  00015	5e		 pop	 esi
  00016	c9		 leave
  00017	c3		 ret	 0
??0?$list@PAVioPlayEntity@@V?$allocator@PAVioPlayEntity@@@std@@@std@@QAE@XZ ENDP ; std::list<ioPlayEntity *,std::allocator<ioPlayEntity *> >::list<ioPlayEntity *,std::allocator<ioPlayEntity *> >
_TEXT	ENDS
PUBLIC	?end@?$list@PAVioPlayEntity@@V?$allocator@PAVioPlayEntity@@@std@@@std@@QAE?AV?$_List_iterator@V?$_List_val@PAVioPlayEntity@@V?$allocator@PAVioPlayEntity@@@std@@@std@@@2@XZ ; std::list<ioPlayEntity *,std::allocator<ioPlayEntity *> >::end
; Function compile flags: /Ogsp
;	COMDAT ?end@?$list@PAVioPlayEntity@@V?$allocator@PAVioPlayEntity@@@std@@@std@@QAE?AV?$_List_iterator@V?$_List_val@PAVioPlayEntity@@V?$allocator@PAVioPlayEntity@@@std@@@std@@@2@XZ
_TEXT	SEGMENT
___$ReturnUdt$ = 8					; size = 4
?end@?$list@PAVioPlayEntity@@V?$allocator@PAVioPlayEntity@@@std@@@std@@QAE?AV?$_List_iterator@V?$_List_val@PAVioPlayEntity@@V?$allocator@PAVioPlayEntity@@@std@@@std@@@2@XZ PROC ; std::list<ioPlayEntity *,std::allocator<ioPlayEntity *> >::end, COMDAT
; _this$ = ecx

; 791  : 		{	// return iterator for end of mutable sequence

  00000	55		 push	 ebp
  00001	8b ec		 mov	 ebp, esp

; 792  : 		return (iterator(this->_Myhead, this));

  00003	8b 09		 mov	 ecx, DWORD PTR [ecx]
  00005	8b 45 08	 mov	 eax, DWORD PTR ___$ReturnUdt$[ebp]
  00008	89 08		 mov	 DWORD PTR [eax], ecx

; 793  : 		}

  0000a	5d		 pop	 ebp
  0000b	c2 04 00	 ret	 4
?end@?$list@PAVioPlayEntity@@V?$allocator@PAVioPlayEntity@@@std@@@std@@QAE?AV?$_List_iterator@V?$_List_val@PAVioPlayEntity@@V?$allocator@PAVioPlayEntity@@@std@@@std@@@2@XZ ENDP ; std::list<ioPlayEntity *,std::allocator<ioPlayEntity *> >::end
_TEXT	ENDS
PUBLIC	?_Tidy@?$list@PAVioPlayEntity@@V?$allocator@PAVioPlayEntity@@@std@@@std@@QAEXXZ ; std::list<ioPlayEntity *,std::allocator<ioPlayEntity *> >::_Tidy
; Function compile flags: /Ogsp
;	COMDAT ?_Tidy@?$list@PAVioPlayEntity@@V?$allocator@PAVioPlayEntity@@@std@@@std@@QAEXXZ
_TEXT	SEGMENT
?_Tidy@?$list@PAVioPlayEntity@@V?$allocator@PAVioPlayEntity@@@std@@@std@@QAEXXZ PROC ; std::list<ioPlayEntity *,std::allocator<ioPlayEntity *> >::_Tidy, COMDAT
; _this$ = ecx

; 1497 : 		clear();

  00000	e9 00 00 00 00	 jmp	 ?clear@?$list@PAVioPlayEntity@@V?$allocator@PAVioPlayEntity@@@std@@@std@@QAEXXZ ; std::list<ioPlayEntity *,std::allocator<ioPlayEntity *> >::clear
?_Tidy@?$list@PAVioPlayEntity@@V?$allocator@PAVioPlayEntity@@@std@@@std@@QAEXXZ ENDP ; std::list<ioPlayEntity *,std::allocator<ioPlayEntity *> >::_Tidy
_TEXT	ENDS
PUBLIC	?_Buynode@?$_List_val@PAVioPlayEntity@@V?$allocator@PAVioPlayEntity@@@std@@@std@@QAEPAU_Node@?$_List_nod@PAVioPlayEntity@@V?$allocator@PAVioPlayEntity@@@std@@@2@PAU342@0ABQAVioPlayEntity@@@Z ; std::_List_val<ioPlayEntity *,std::allocator<ioPlayEntity *> >::_Buynode
; Function compile flags: /Ogsp
;	COMDAT ?_Buynode@?$_List_val@PAVioPlayEntity@@V?$allocator@PAVioPlayEntity@@@std@@@std@@QAEPAU_Node@?$_List_nod@PAVioPlayEntity@@V?$allocator@PAVioPlayEntity@@@std@@@2@PAU342@0ABQAVioPlayEntity@@@Z
_TEXT	SEGMENT
$T513017 = -12						; size = 12
$T512994 = 8						; size = 4
__Next$ = 8						; size = 4
__Prev$ = 12						; size = 4
__Val$ = 16						; size = 4
?_Buynode@?$_List_val@PAVioPlayEntity@@V?$allocator@PAVioPlayEntity@@@std@@@std@@QAEPAU_Node@?$_List_nod@PAVioPlayEntity@@V?$allocator@PAVioPlayEntity@@@std@@@2@PAU342@0ABQAVioPlayEntity@@@Z PROC ; std::_List_val<ioPlayEntity *,std::allocator<ioPlayEntity *> >::_Buynode, COMDAT
; _this$ = ecx

; 507  : 		{	// allocate a node and set links and value

  00000	55		 push	 ebp
  00001	8b ec		 mov	 ebp, esp
  00003	83 ec 0c	 sub	 esp, 12			; 0000000cH

; 508  : 		_Nodeptr _Pnode = this->_Alnod.allocate(1);

  00006	6a 0c		 push	 12			; 0000000cH
  00008	e8 00 00 00 00	 call	 ??2@YAPAXI@Z		; operator new
  0000d	59		 pop	 ecx
  0000e	85 c0		 test	 eax, eax
  00010	74 1d		 je	 SHORT $LN10@Buynode

; 509  : 
; 510  : 		_TRY_BEGIN
; 511  : 		this->_Nextnode(_Pnode) = _Next;

  00012	8b 4d 08	 mov	 ecx, DWORD PTR __Next$[ebp]
  00015	89 08		 mov	 DWORD PTR [eax], ecx

; 512  : 		this->_Prevnode(_Pnode) = _Prev;

  00017	8b 4d 0c	 mov	 ecx, DWORD PTR __Prev$[ebp]
  0001a	89 48 04	 mov	 DWORD PTR [eax+4], ecx

; 513  : 		_Cons_val(this->_Alval, _STD addressof(this->_Myval(_Pnode)), _Val);

  0001d	8d 48 08	 lea	 ecx, DWORD PTR [eax+8]
  00020	85 c9		 test	 ecx, ecx
  00022	74 07		 je	 SHORT $LN2@Buynode
  00024	8b 55 10	 mov	 edx, DWORD PTR __Val$[ebp]
  00027	8b 12		 mov	 edx, DWORD PTR [edx]
  00029	89 11		 mov	 DWORD PTR [ecx], edx
$LN2@Buynode:

; 514  : 		_CATCH_ALL
; 515  : 		this->_Alnod.deallocate(_Pnode, 1);
; 516  : 		_RERAISE;
; 517  : 		_CATCH_END
; 518  : 
; 519  : 		return (_Pnode);
; 520  : 		}

  0002b	c9		 leave
  0002c	c2 0c 00	 ret	 12			; 0000000cH

; 508  : 		_Nodeptr _Pnode = this->_Alnod.allocate(1);

$LN10@Buynode:
  0002f	83 65 08 00	 and	 DWORD PTR $T512994[ebp], 0
  00033	8d 45 08	 lea	 eax, DWORD PTR $T512994[ebp]
  00036	50		 push	 eax
  00037	8d 4d f4	 lea	 ecx, DWORD PTR $T513017[ebp]
  0003a	ff 15 00 00 00
	00		 call	 DWORD PTR __imp_??0exception@std@@QAE@ABQBD@Z
  00040	68 00 00 00 00	 push	 OFFSET __TI2?AVbad_alloc@std@@
  00045	8d 45 f4	 lea	 eax, DWORD PTR $T513017[ebp]
  00048	50		 push	 eax
  00049	c7 45 f4 00 00
	00 00		 mov	 DWORD PTR $T513017[ebp], OFFSET ??_7bad_alloc@std@@6B@
  00050	e8 00 00 00 00	 call	 __CxxThrowException@8
$LN46@Buynode:
$LN45@Buynode:
  00055	cc		 int	 3
?_Buynode@?$_List_val@PAVioPlayEntity@@V?$allocator@PAVioPlayEntity@@@std@@@std@@QAEPAU_Node@?$_List_nod@PAVioPlayEntity@@V?$allocator@PAVioPlayEntity@@@std@@@2@PAU342@0ABQAVioPlayEntity@@@Z ENDP ; std::_List_val<ioPlayEntity *,std::allocator<ioPlayEntity *> >::_Buynode
_TEXT	ENDS
PUBLIC	??1?$list@PAVioPlayEntity@@V?$allocator@PAVioPlayEntity@@@std@@@std@@QAE@XZ ; std::list<ioPlayEntity *,std::allocator<ioPlayEntity *> >::~list<ioPlayEntity *,std::allocator<ioPlayEntity *> >
; Function compile flags: /Ogsp
;	COMDAT ??1?$list@PAVioPlayEntity@@V?$allocator@PAVioPlayEntity@@@std@@@std@@QAE@XZ
_TEXT	SEGMENT
??1?$list@PAVioPlayEntity@@V?$allocator@PAVioPlayEntity@@@std@@@std@@QAE@XZ PROC ; std::list<ioPlayEntity *,std::allocator<ioPlayEntity *> >::~list<ioPlayEntity *,std::allocator<ioPlayEntity *> >, COMDAT
; _this$ = ecx

; 769  : 		{	// destroy the object

  00000	56		 push	 esi
  00001	8b f1		 mov	 esi, ecx

; 770  : 		_Tidy();

  00003	e8 00 00 00 00	 call	 ?clear@?$list@PAVioPlayEntity@@V?$allocator@PAVioPlayEntity@@@std@@@std@@QAEXXZ ; std::list<ioPlayEntity *,std::allocator<ioPlayEntity *> >::clear

; 771  : 		}

  00008	ff 36		 push	 DWORD PTR [esi]
  0000a	e8 00 00 00 00	 call	 ??3@YAXPAX@Z		; operator delete
  0000f	59		 pop	 ecx
  00010	5e		 pop	 esi
  00011	c3		 ret	 0
??1?$list@PAVioPlayEntity@@V?$allocator@PAVioPlayEntity@@@std@@@std@@QAE@XZ ENDP ; std::list<ioPlayEntity *,std::allocator<ioPlayEntity *> >::~list<ioPlayEntity *,std::allocator<ioPlayEntity *> >
_TEXT	ENDS
PUBLIC	?_Insert@?$list@PAVioPlayEntity@@V?$allocator@PAVioPlayEntity@@@std@@@std@@QAEXV?$_List_const_iterator@V?$_List_val@PAVioPlayEntity@@V?$allocator@PAVioPlayEntity@@@std@@@std@@@2@ABQAVioPlayEntity@@@Z ; std::list<ioPlayEntity *,std::allocator<ioPlayEntity *> >::_Insert
; Function compile flags: /Ogsp
;	COMDAT ?_Insert@?$list@PAVioPlayEntity@@V?$allocator@PAVioPlayEntity@@@std@@@std@@QAEXV?$_List_const_iterator@V?$_List_val@PAVioPlayEntity@@V?$allocator@PAVioPlayEntity@@@std@@@std@@@2@ABQAVioPlayEntity@@@Z
_TEXT	SEGMENT
__Where$ = 8						; size = 4
__Val$ = 12						; size = 4
?_Insert@?$list@PAVioPlayEntity@@V?$allocator@PAVioPlayEntity@@@std@@@std@@QAEXV?$_List_const_iterator@V?$_List_val@PAVioPlayEntity@@V?$allocator@PAVioPlayEntity@@@std@@@std@@@2@ABQAVioPlayEntity@@@Z PROC ; std::list<ioPlayEntity *,std::allocator<ioPlayEntity *> >::_Insert, COMDAT
; _this$ = ecx

; 967  : 		{	// insert _Val at _Where

  00000	55		 push	 ebp
  00001	8b ec		 mov	 ebp, esp

; 968  :  #if _ITERATOR_DEBUG_LEVEL == 2
; 969  : 		if (_Where._Getcont() != this)
; 970  : 			_DEBUG_ERROR("list insert iterator outside range");
; 971  :  #endif /* _ITERATOR_DEBUG_LEVEL == 2 */
; 972  : 
; 973  : 		_Nodeptr _Pnode = _Where._Mynode();
; 974  : 		_Nodeptr _Newnode =
; 975  : 			this->_Buynode(_Pnode, this->_Prevnode(_Pnode), _Val);

  00003	8b 45 08	 mov	 eax, DWORD PTR __Where$[ebp]
  00006	53		 push	 ebx
  00007	56		 push	 esi
  00008	57		 push	 edi
  00009	ff 75 0c	 push	 DWORD PTR __Val$[ebp]
  0000c	8d 78 04	 lea	 edi, DWORD PTR [eax+4]
  0000f	ff 37		 push	 DWORD PTR [edi]
  00011	8b d9		 mov	 ebx, ecx
  00013	50		 push	 eax
  00014	e8 00 00 00 00	 call	 ?_Buynode@?$_List_val@PAVioPlayEntity@@V?$allocator@PAVioPlayEntity@@@std@@@std@@QAEPAU_Node@?$_List_nod@PAVioPlayEntity@@V?$allocator@PAVioPlayEntity@@@std@@@2@PAU342@0ABQAVioPlayEntity@@@Z ; std::_List_val<ioPlayEntity *,std::allocator<ioPlayEntity *> >::_Buynode

; 976  : 		_Incsize(1);

  00019	6a 01		 push	 1
  0001b	8b cb		 mov	 ecx, ebx
  0001d	8b f0		 mov	 esi, eax
  0001f	e8 00 00 00 00	 call	 ?_Incsize@?$list@PAVioPlayEntity@@V?$allocator@PAVioPlayEntity@@@std@@@std@@QAEXI@Z ; std::list<ioPlayEntity *,std::allocator<ioPlayEntity *> >::_Incsize

; 977  : 		this->_Prevnode(_Pnode) = _Newnode;

  00024	89 37		 mov	 DWORD PTR [edi], esi

; 978  : 		this->_Nextnode(this->_Prevnode(_Newnode)) = _Newnode;

  00026	8b 46 04	 mov	 eax, DWORD PTR [esi+4]
  00029	5f		 pop	 edi
  0002a	89 30		 mov	 DWORD PTR [eax], esi
  0002c	5e		 pop	 esi
  0002d	5b		 pop	 ebx

; 979  : 		}

  0002e	5d		 pop	 ebp
  0002f	c2 08 00	 ret	 8
?_Insert@?$list@PAVioPlayEntity@@V?$allocator@PAVioPlayEntity@@@std@@@std@@QAEXV?$_List_const_iterator@V?$_List_val@PAVioPlayEntity@@V?$allocator@PAVioPlayEntity@@@std@@@std@@@2@ABQAVioPlayEntity@@@Z ENDP ; std::list<ioPlayEntity *,std::allocator<ioPlayEntity *> >::_Insert
_TEXT	ENDS
PUBLIC	??_7FL_CollisionPlayEntity@@6B@			; FL_CollisionPlayEntity::`vftable'
PUBLIC	??0FL_CollisionPlayEntity@@QAE@ABVioOrientBox@@PAVioPlayEntity@@@Z ; FL_CollisionPlayEntity::FL_CollisionPlayEntity
PUBLIC	??_R4FL_CollisionPlayEntity@@6B@		; FL_CollisionPlayEntity::`RTTI Complete Object Locator'
PUBLIC	??_R0?AVFL_CollisionPlayEntity@@@8		; FL_CollisionPlayEntity `RTTI Type Descriptor'
PUBLIC	??_R3FL_CollisionPlayEntity@@8			; FL_CollisionPlayEntity::`RTTI Class Hierarchy Descriptor'
PUBLIC	??_R2FL_CollisionPlayEntity@@8			; FL_CollisionPlayEntity::`RTTI Base Class Array'
PUBLIC	??_R1A@?0A@EA@FL_CollisionPlayEntity@@8		; FL_CollisionPlayEntity::`RTTI Base Class Descriptor at (0,-1,0,64)'
PUBLIC	??_R1A@?0A@EA@FindListPredicate@@8		; FindListPredicate::`RTTI Base Class Descriptor at (0,-1,0,64)'
PUBLIC	??_R0?AVFindListPredicate@@@8			; FindListPredicate `RTTI Type Descriptor'
PUBLIC	??_R3FindListPredicate@@8			; FindListPredicate::`RTTI Class Hierarchy Descriptor'
PUBLIC	??_R2FindListPredicate@@8			; FindListPredicate::`RTTI Base Class Array'
PUBLIC	?FindList@FL_CollisionPlayEntity@@UAE_NABV?$list@PAVioGameEntity@@V?$allocator@PAVioGameEntity@@@std@@@std@@PAVioPlayStage@@@Z ; FL_CollisionPlayEntity::FindList
EXTRN	__imp_??1ioOrientBox@@QAE@XZ:PROC
EXTRN	??1FindListPredicate@@UAE@XZ:PROC		; FindListPredicate::~FindListPredicate
EXTRN	??0FindListPredicate@@QAE@XZ:PROC		; FindListPredicate::FindListPredicate
EXTRN	___CxxFrameHandler3:PROC
EXTRN	@__security_check_cookie@4:PROC
EXTRN	__EH_epilog3:PROC
EXTRN	__EH_prolog3:PROC
EXTRN	??_EFL_CollisionPlayEntity@@UAEPAXI@Z:PROC	; FL_CollisionPlayEntity::`vector deleting destructor'
;	COMDAT ??_R2FindListPredicate@@8
; File c:\program files (x86)\microsoft visual studio 10.0\vc\include\xmemory
rdata$r	SEGMENT
??_R2FindListPredicate@@8 DD FLAT:??_R1A@?0A@EA@FindListPredicate@@8 ; FindListPredicate::`RTTI Base Class Array'
rdata$r	ENDS
;	COMDAT ??_R3FindListPredicate@@8
rdata$r	SEGMENT
??_R3FindListPredicate@@8 DD 00H			; FindListPredicate::`RTTI Class Hierarchy Descriptor'
	DD	00H
	DD	01H
	DD	FLAT:??_R2FindListPredicate@@8
rdata$r	ENDS
;	COMDAT ??_R0?AVFindListPredicate@@@8
_DATA	SEGMENT
??_R0?AVFindListPredicate@@@8 DD FLAT:??_7type_info@@6B@ ; FindListPredicate `RTTI Type Descriptor'
	DD	00H
	DB	'.?AVFindListPredicate@@', 00H
_DATA	ENDS
;	COMDAT ??_R1A@?0A@EA@FindListPredicate@@8
rdata$r	SEGMENT
??_R1A@?0A@EA@FindListPredicate@@8 DD FLAT:??_R0?AVFindListPredicate@@@8 ; FindListPredicate::`RTTI Base Class Descriptor at (0,-1,0,64)'
	DD	00H
	DD	00H
	DD	0ffffffffH
	DD	00H
	DD	040H
	DD	FLAT:??_R3FindListPredicate@@8
rdata$r	ENDS
;	COMDAT ??_R1A@?0A@EA@FL_CollisionPlayEntity@@8
rdata$r	SEGMENT
??_R1A@?0A@EA@FL_CollisionPlayEntity@@8 DD FLAT:??_R0?AVFL_CollisionPlayEntity@@@8 ; FL_CollisionPlayEntity::`RTTI Base Class Descriptor at (0,-1,0,64)'
	DD	01H
	DD	00H
	DD	0ffffffffH
	DD	00H
	DD	040H
	DD	FLAT:??_R3FL_CollisionPlayEntity@@8
rdata$r	ENDS
;	COMDAT ??_R2FL_CollisionPlayEntity@@8
rdata$r	SEGMENT
??_R2FL_CollisionPlayEntity@@8 DD FLAT:??_R1A@?0A@EA@FL_CollisionPlayEntity@@8 ; FL_CollisionPlayEntity::`RTTI Base Class Array'
	DD	FLAT:??_R1A@?0A@EA@FindListPredicate@@8
rdata$r	ENDS
;	COMDAT ??_R3FL_CollisionPlayEntity@@8
rdata$r	SEGMENT
??_R3FL_CollisionPlayEntity@@8 DD 00H			; FL_CollisionPlayEntity::`RTTI Class Hierarchy Descriptor'
	DD	00H
	DD	02H
	DD	FLAT:??_R2FL_CollisionPlayEntity@@8
rdata$r	ENDS
;	COMDAT ??_R0?AVFL_CollisionPlayEntity@@@8
_DATA	SEGMENT
??_R0?AVFL_CollisionPlayEntity@@@8 DD FLAT:??_7type_info@@6B@ ; FL_CollisionPlayEntity `RTTI Type Descriptor'
	DD	00H
	DB	'.?AVFL_CollisionPlayEntity@@', 00H
_DATA	ENDS
;	COMDAT ??_R4FL_CollisionPlayEntity@@6B@
rdata$r	SEGMENT
??_R4FL_CollisionPlayEntity@@6B@ DD 00H			; FL_CollisionPlayEntity::`RTTI Complete Object Locator'
	DD	00H
	DD	00H
	DD	FLAT:??_R0?AVFL_CollisionPlayEntity@@@8
	DD	FLAT:??_R3FL_CollisionPlayEntity@@8
rdata$r	ENDS
;	COMDAT ??_7FL_CollisionPlayEntity@@6B@
CONST	SEGMENT
??_7FL_CollisionPlayEntity@@6B@ DD FLAT:??_R4FL_CollisionPlayEntity@@6B@ ; FL_CollisionPlayEntity::`vftable'
	DD	FLAT:?FindList@FL_CollisionPlayEntity@@UAE_NABV?$list@PAVioGameEntity@@V?$allocator@PAVioGameEntity@@@std@@@std@@PAVioPlayStage@@@Z
	DD	FLAT:??_EFL_CollisionPlayEntity@@UAEPAXI@Z
CONST	ENDS
;	COMDAT xdata$x
xdata$x	SEGMENT
__unwindtable$??0FL_CollisionPlayEntity@@QAE@ABVioOrientBox@@PAVioPlayEntity@@@Z DD 0ffffffffH
	DD	FLAT:__unwindfunclet$??0FL_CollisionPlayEntity@@QAE@ABVioOrientBox@@PAVioPlayEntity@@@Z$0
	DD	00H
	DD	FLAT:__unwindfunclet$??0FL_CollisionPlayEntity@@QAE@ABVioOrientBox@@PAVioPlayEntity@@@Z$1
__ehfuncinfo$??0FL_CollisionPlayEntity@@QAE@ABVioOrientBox@@PAVioPlayEntity@@@Z DD 019930522H
	DD	02H
	DD	FLAT:__unwindtable$??0FL_CollisionPlayEntity@@QAE@ABVioOrientBox@@PAVioPlayEntity@@@Z
	DD	2 DUP(00H)
	DD	2 DUP(00H)
	DD	00H
	DD	01H
; Function compile flags: /Ogsp
; File d:\lost saga for developer\youtube\tutorial\source\src\lsclient\findlistpredicateimpl.cpp
xdata$x	ENDS
;	COMDAT ??0FL_CollisionPlayEntity@@QAE@ABVioOrientBox@@PAVioPlayEntity@@@Z
_TEXT	SEGMENT
_this$ = -16						; size = 4
__$EHRec$ = -12						; size = 12
$T513145 = 8						; size = 4
$T513147 = 8						; size = 4
_rkBox$ = 8						; size = 4
_pOwner$ = 12						; size = 4
??0FL_CollisionPlayEntity@@QAE@ABVioOrientBox@@PAVioPlayEntity@@@Z PROC ; FL_CollisionPlayEntity::FL_CollisionPlayEntity, COMDAT
; _this$ = ecx

; 12   : {

  00000	6a 04		 push	 4
  00002	b8 00 00 00 00	 mov	 eax, __ehhandler$??0FL_CollisionPlayEntity@@QAE@ABVioOrientBox@@PAVioPlayEntity@@@Z
  00007	e8 00 00 00 00	 call	 __EH_prolog3
  0000c	8b d9		 mov	 ebx, ecx
  0000e	89 5d f0	 mov	 DWORD PTR _this$[ebp], ebx
  00011	e8 00 00 00 00	 call	 ??0FindListPredicate@@QAE@XZ ; FindListPredicate::FindListPredicate
  00016	8b 75 08	 mov	 esi, DWORD PTR _rkBox$[ebp]
  00019	83 65 fc 00	 and	 DWORD PTR __$EHRec$[ebp+8], 0
  0001d	6a 11		 push	 17			; 00000011H
  0001f	8d 7b 04	 lea	 edi, DWORD PTR [ebx+4]
  00022	59		 pop	 ecx
  00023	c7 03 00 00 00
	00		 mov	 DWORD PTR [ebx], OFFSET ??_7FL_CollisionPlayEntity@@6B@
  00029	f3 a5		 rep movsd
  0002b	8d 4b 4c	 lea	 ecx, DWORD PTR [ebx+76]
  0002e	51		 push	 ecx
  0002f	89 65 08	 mov	 DWORD PTR $T513147[ebp], esp
  00032	c6 45 fc 01	 mov	 BYTE PTR __$EHRec$[ebp+8], 1
  00036	89 65 08	 mov	 DWORD PTR $T513145[ebp], esp
  00039	e8 00 00 00 00	 call	 ??0?$_List_val@PAVioPlayEntity@@V?$allocator@PAVioPlayEntity@@@std@@@std@@QAE@V?$allocator@PAVioPlayEntity@@@1@@Z ; std::_List_val<ioPlayEntity *,std::allocator<ioPlayEntity *> >::_List_val<ioPlayEntity *,std::allocator<ioPlayEntity *> >

; 13   : 	m_pOwner = pOwner;

  0003e	8b 45 0c	 mov	 eax, DWORD PTR _pOwner$[ebp]
  00041	89 43 48	 mov	 DWORD PTR [ebx+72], eax

; 14   : }

  00044	8b c3		 mov	 eax, ebx
  00046	e8 00 00 00 00	 call	 __EH_epilog3
  0004b	c2 08 00	 ret	 8
_TEXT	ENDS
;	COMDAT text$x
text$x	SEGMENT
__unwindfunclet$??0FL_CollisionPlayEntity@@QAE@ABVioOrientBox@@PAVioPlayEntity@@@Z$0:
  00000	8b 4d f0	 mov	 ecx, DWORD PTR _this$[ebp]
  00003	e9 00 00 00 00	 jmp	 ??1FindListPredicate@@UAE@XZ ; FindListPredicate::~FindListPredicate
__unwindfunclet$??0FL_CollisionPlayEntity@@QAE@ABVioOrientBox@@PAVioPlayEntity@@@Z$1:
  00008	8b 4d f0	 mov	 ecx, DWORD PTR _this$[ebp]
  0000b	83 c1 04	 add	 ecx, 4
  0000e	ff 25 00 00 00
	00		 jmp	 DWORD PTR __imp_??1ioOrientBox@@QAE@XZ
__ehhandler$??0FL_CollisionPlayEntity@@QAE@ABVioOrientBox@@PAVioPlayEntity@@@Z:
  00014	8b 54 24 08	 mov	 edx, DWORD PTR [esp+8]
  00018	8d 42 0c	 lea	 eax, DWORD PTR [edx+12]
  0001b	8b 4a ec	 mov	 ecx, DWORD PTR [edx-20]
  0001e	33 c8		 xor	 ecx, eax
  00020	e8 00 00 00 00	 call	 @__security_check_cookie@4
  00025	b8 00 00 00 00	 mov	 eax, OFFSET __ehfuncinfo$??0FL_CollisionPlayEntity@@QAE@ABVioOrientBox@@PAVioPlayEntity@@@Z
  0002a	e9 00 00 00 00	 jmp	 ___CxxFrameHandler3
text$x	ENDS
??0FL_CollisionPlayEntity@@QAE@ABVioOrientBox@@PAVioPlayEntity@@@Z ENDP ; FL_CollisionPlayEntity::FL_CollisionPlayEntity
PUBLIC	??1FL_CollisionPlayEntity@@UAE@XZ		; FL_CollisionPlayEntity::~FL_CollisionPlayEntity
;	COMDAT xdata$x
; File c:\program files (x86)\microsoft visual studio 10.0\vc\include\xmemory
xdata$x	SEGMENT
__unwindtable$??1FL_CollisionPlayEntity@@UAE@XZ DD 0ffffffffH
	DD	FLAT:__unwindfunclet$??1FL_CollisionPlayEntity@@UAE@XZ$0
__ehfuncinfo$??1FL_CollisionPlayEntity@@UAE@XZ DD 019930522H
	DD	01H
	DD	FLAT:__unwindtable$??1FL_CollisionPlayEntity@@UAE@XZ
	DD	2 DUP(00H)
	DD	2 DUP(00H)
	DD	00H
	DD	01H
; Function compile flags: /Ogsp
; File d:\lost saga for developer\youtube\tutorial\source\src\lsclient\findlistpredicateimpl.cpp
xdata$x	ENDS
;	COMDAT ??1FL_CollisionPlayEntity@@UAE@XZ
_TEXT	SEGMENT
_this$ = -16						; size = 4
__$EHRec$ = -12						; size = 12
??1FL_CollisionPlayEntity@@UAE@XZ PROC			; FL_CollisionPlayEntity::~FL_CollisionPlayEntity, COMDAT
; _this$ = ecx

; 17   : {

  00000	6a 04		 push	 4
  00002	b8 00 00 00 00	 mov	 eax, __ehhandler$??1FL_CollisionPlayEntity@@UAE@XZ
  00007	e8 00 00 00 00	 call	 __EH_prolog3
  0000c	8b f1		 mov	 esi, ecx
  0000e	89 75 f0	 mov	 DWORD PTR _this$[ebp], esi
  00011	c7 06 00 00 00
	00		 mov	 DWORD PTR [esi], OFFSET ??_7FL_CollisionPlayEntity@@6B@
  00017	83 65 fc 00	 and	 DWORD PTR __$EHRec$[ebp+8], 0

; 18   : }

  0001b	8d 4e 4c	 lea	 ecx, DWORD PTR [esi+76]
  0001e	e8 00 00 00 00	 call	 ?clear@?$list@PAVioPlayEntity@@V?$allocator@PAVioPlayEntity@@@std@@@std@@QAEXXZ ; std::list<ioPlayEntity *,std::allocator<ioPlayEntity *> >::clear
  00023	ff 76 4c	 push	 DWORD PTR [esi+76]
  00026	e8 00 00 00 00	 call	 ??3@YAXPAX@Z		; operator delete
  0002b	59		 pop	 ecx
  0002c	8d 4e 04	 lea	 ecx, DWORD PTR [esi+4]
  0002f	ff 15 00 00 00
	00		 call	 DWORD PTR __imp_??1ioOrientBox@@QAE@XZ
  00035	83 4d fc ff	 or	 DWORD PTR __$EHRec$[ebp+8], -1
  00039	8b ce		 mov	 ecx, esi
  0003b	e8 00 00 00 00	 call	 ??1FindListPredicate@@UAE@XZ ; FindListPredicate::~FindListPredicate
  00040	e8 00 00 00 00	 call	 __EH_epilog3
  00045	c3		 ret	 0
_TEXT	ENDS
;	COMDAT text$x
text$x	SEGMENT
__unwindfunclet$??1FL_CollisionPlayEntity@@UAE@XZ$0:
  00000	8b 4d f0	 mov	 ecx, DWORD PTR _this$[ebp]
  00003	e9 00 00 00 00	 jmp	 ??1FindListPredicate@@UAE@XZ ; FindListPredicate::~FindListPredicate
__ehhandler$??1FL_CollisionPlayEntity@@UAE@XZ:
  00008	8b 54 24 08	 mov	 edx, DWORD PTR [esp+8]
  0000c	8d 42 0c	 lea	 eax, DWORD PTR [edx+12]
  0000f	8b 4a ec	 mov	 ecx, DWORD PTR [edx-20]
  00012	33 c8		 xor	 ecx, eax
  00014	e8 00 00 00 00	 call	 @__security_check_cookie@4
  00019	b8 00 00 00 00	 mov	 eax, OFFSET __ehfuncinfo$??1FL_CollisionPlayEntity@@UAE@XZ
  0001e	e9 00 00 00 00	 jmp	 ___CxxFrameHandler3
text$x	ENDS
??1FL_CollisionPlayEntity@@UAE@XZ ENDP			; FL_CollisionPlayEntity::~FL_CollisionPlayEntity
PUBLIC	?push_back@?$list@PAVioPlayEntity@@V?$allocator@PAVioPlayEntity@@@std@@@std@@QAEXABQAVioPlayEntity@@@Z ; std::list<ioPlayEntity *,std::allocator<ioPlayEntity *> >::push_back
; Function compile flags: /Ogsp
; File c:\program files (x86)\microsoft visual studio 10.0\vc\include\list
;	COMDAT ?push_back@?$list@PAVioPlayEntity@@V?$allocator@PAVioPlayEntity@@@std@@@std@@QAEXABQAVioPlayEntity@@@Z
_TEXT	SEGMENT
__Val$ = 8						; size = 4
?push_back@?$list@PAVioPlayEntity@@V?$allocator@PAVioPlayEntity@@@std@@@std@@QAEXABQAVioPlayEntity@@@Z PROC ; std::list<ioPlayEntity *,std::allocator<ioPlayEntity *> >::push_back, COMDAT
; _this$ = ecx

; 926  : 		{	// insert element at end

  00000	55		 push	 ebp
  00001	8b ec		 mov	 ebp, esp

; 927  : 		_Insert(end(), _Val);

  00003	ff 75 08	 push	 DWORD PTR __Val$[ebp]
  00006	8b 01		 mov	 eax, DWORD PTR [ecx]
  00008	50		 push	 eax
  00009	e8 00 00 00 00	 call	 ?_Insert@?$list@PAVioPlayEntity@@V?$allocator@PAVioPlayEntity@@@std@@@std@@QAEXV?$_List_const_iterator@V?$_List_val@PAVioPlayEntity@@V?$allocator@PAVioPlayEntity@@@std@@@std@@@2@ABQAVioPlayEntity@@@Z ; std::list<ioPlayEntity *,std::allocator<ioPlayEntity *> >::_Insert

; 928  : 		}

  0000e	5d		 pop	 ebp
  0000f	c2 04 00	 ret	 4
?push_back@?$list@PAVioPlayEntity@@V?$allocator@PAVioPlayEntity@@@std@@@std@@QAEXABQAVioPlayEntity@@@Z ENDP ; std::list<ioPlayEntity *,std::allocator<ioPlayEntity *> >::push_back
; Function compile flags: /Ogsp
_TEXT	ENDS
;	COMDAT ??_GFL_CollisionPlayEntity@@UAEPAXI@Z
_TEXT	SEGMENT
___flags$ = 8						; size = 4
??_GFL_CollisionPlayEntity@@UAEPAXI@Z PROC		; FL_CollisionPlayEntity::`scalar deleting destructor', COMDAT
; _this$ = ecx
  00000	55		 push	 ebp
  00001	8b ec		 mov	 ebp, esp
  00003	56		 push	 esi
  00004	8b f1		 mov	 esi, ecx
  00006	e8 00 00 00 00	 call	 ??1FL_CollisionPlayEntity@@UAE@XZ ; FL_CollisionPlayEntity::~FL_CollisionPlayEntity
  0000b	f6 45 08 01	 test	 BYTE PTR ___flags$[ebp], 1
  0000f	74 07		 je	 SHORT $LN1@scalar@2
  00011	56		 push	 esi
  00012	e8 00 00 00 00	 call	 ??3@YAXPAX@Z		; operator delete
  00017	59		 pop	 ecx
$LN1@scalar@2:
  00018	8b c6		 mov	 eax, esi
  0001a	5e		 pop	 esi
  0001b	5d		 pop	 ebp
  0001c	c2 04 00	 ret	 4
??_GFL_CollisionPlayEntity@@UAEPAXI@Z ENDP		; FL_CollisionPlayEntity::`scalar deleting destructor'
_TEXT	ENDS
PUBLIC	__real@4f800000
PUBLIC	_rkList$GSCopy$
PUBLIC	_this$GSCopy$
PUBLIC	_pStage$GSCopy$
EXTRN	?GetMapHeightByRay@ioPlayStage@@QAEMMMPBVioGameEntity@@_NM@Z:PROC ; ioPlayStage::GetMapHeightByRay
EXTRN	__imp_?GetCenter@ioOrientBox@@QBEABUD3DXVECTOR3@@XZ:PROC
EXTRN	__imp_?GetExtents@ioOrientBox@@QBEMH@Z:PROC
EXTRN	__imp_?TestIntersection@ioMath@@SA_NABVioOrientBox@@0PAM@Z:PROC
EXTRN	?GetWorldCollisionBox@ioGameEntity@@QBEABVioOrientBox@@XZ:PROC ; ioGameEntity::GetWorldCollisionBox
EXTRN	__fltused:DWORD
EXTRN	__EH_epilog3_GS:PROC
EXTRN	__EH_prolog3_GS:PROC
;	COMDAT __real@4f800000
CONST	SEGMENT
__real@4f800000 DD 04f800000r			; 4.29497e+009
CONST	ENDS
;	COMDAT xdata$x
xdata$x	SEGMENT
__unwindtable$?FindList@FL_CollisionPlayEntity@@UAE_NABV?$list@PAVioGameEntity@@V?$allocator@PAVioGameEntity@@@std@@@std@@PAVioPlayStage@@@Z DD 0ffffffffH
	DD	FLAT:__unwindfunclet$?FindList@FL_CollisionPlayEntity@@UAE_NABV?$list@PAVioGameEntity@@V?$allocator@PAVioGameEntity@@@std@@@std@@PAVioPlayStage@@@Z$0
__ehfuncinfo$?FindList@FL_CollisionPlayEntity@@UAE_NABV?$list@PAVioGameEntity@@V?$allocator@PAVioGameEntity@@@std@@@std@@PAVioPlayStage@@@Z DD 019930522H
	DD	01H
	DD	FLAT:__unwindtable$?FindList@FL_CollisionPlayEntity@@UAE_NABV?$list@PAVioGameEntity@@V?$allocator@PAVioGameEntity@@@std@@@std@@PAVioPlayStage@@@Z
	DD	2 DUP(00H)
	DD	2 DUP(00H)
	DD	00H
	DD	01H
; Function compile flags: /Ogsp
; File d:\lost saga for developer\youtube\tutorial\source\src\lsclient\findlistpredicateimpl.cpp
xdata$x	ENDS
;	COMDAT ?FindList@FL_CollisionPlayEntity@@UAE_NABV?$list@PAVioGameEntity@@V?$allocator@PAVioGameEntity@@@std@@@std@@PAVioPlayStage@@@Z
_TEXT	SEGMENT
_rkList$GSCopy$ = -120					; size = 4
_fMaxHeight$511985 = -116				; size = 4
_pEntity$511980 = -112					; size = 4
_pStage$GSCopy$ = -108					; size = 4
tv159 = -104						; size = 8
tv145 = -104						; size = 8
tv547 = -100						; size = 4
_fYHeight$511986 = -100					; size = 4
_this$GSCopy$ = -96					; size = 4
_iter$ = -92						; size = 4
$T513335 = -88						; size = 4
_fMapHeight$511988 = -88				; size = 4
_kColBox$511982 = -84					; size = 68
__$EHRec$ = -12						; size = 12
_rkList$ = 8						; size = 4
_pStage$ = 12						; size = 4
?FindList@FL_CollisionPlayEntity@@UAE_NABV?$list@PAVioGameEntity@@V?$allocator@PAVioGameEntity@@@std@@@std@@PAVioPlayStage@@@Z PROC ; FL_CollisionPlayEntity::FindList, COMDAT
; _this$ = ecx

; 21   : {

  00000	6a 6c		 push	 108			; 0000006cH
  00002	b8 00 00 00 00	 mov	 eax, __ehhandler$?FindList@FL_CollisionPlayEntity@@UAE_NABV?$list@PAVioGameEntity@@V?$allocator@PAVioGameEntity@@@std@@@std@@PAVioPlayStage@@@Z
  00007	e8 00 00 00 00	 call	 __EH_prolog3_GS
  0000c	8b 45 0c	 mov	 eax, DWORD PTR _pStage$[ebp]
  0000f	8b 7d 08	 mov	 edi, DWORD PTR _rkList$[ebp]

; 22   : 	GameEntityList::const_iterator iter;
; 23   : 	for( iter=rkList.begin() ; iter!=rkList.end() ; ++iter )

  00012	89 45 94	 mov	 DWORD PTR _pStage$GSCopy$[ebp], eax
  00015	8b 07		 mov	 eax, DWORD PTR [edi]
  00017	8b 30		 mov	 esi, DWORD PTR [eax]
  00019	89 4d a0	 mov	 DWORD PTR _this$GSCopy$[ebp], ecx
  0001c	89 7d 88	 mov	 DWORD PTR _rkList$GSCopy$[ebp], edi
  0001f	89 75 a4	 mov	 DWORD PTR _iter$[ebp], esi
  00022	3b f0		 cmp	 esi, eax
  00024	0f 84 43 01 00
	00		 je	 $LN6@FindList
  0002a	eb 03		 jmp	 SHORT $LN26@FindList
$LL76@FindList:
  0002c	8b 75 a4	 mov	 esi, DWORD PTR _iter$[ebp]
$LN26@FindList:

; 24   : 	{
; 25   : 		ioPlayEntity *pEntity = ToPlayEntity( *iter );

  0002f	ff 76 08	 push	 DWORD PTR [esi+8]
  00032	e8 00 00 00 00	 call	 ?ToPlayEntity@@YAPAVioPlayEntity@@PAVioGameEntity@@@Z ; ToPlayEntity
  00037	8b d8		 mov	 ebx, eax
  00039	59		 pop	 ecx
  0003a	89 5d 90	 mov	 DWORD PTR _pEntity$511980[ebp], ebx

; 26   : 		if( pEntity && pEntity != m_pOwner )

  0003d	85 db		 test	 ebx, ebx
  0003f	0f 84 1b 01 00
	00		 je	 $LN7@FindList
  00045	8b 45 a0	 mov	 eax, DWORD PTR _this$GSCopy$[ebp]
  00048	3b 58 48	 cmp	 ebx, DWORD PTR [eax+72]
  0004b	0f 84 0f 01 00
	00		 je	 $LN7@FindList

; 27   : 		{
; 28   : 			ioOrientBox kColBox = pEntity->GetWorldCollisionBox();

  00051	8b cb		 mov	 ecx, ebx
  00053	e8 00 00 00 00	 call	 ?GetWorldCollisionBox@ioGameEntity@@QBEABVioOrientBox@@XZ ; ioGameEntity::GetWorldCollisionBox
  00058	6a 11		 push	 17			; 00000011H
  0005a	59		 pop	 ecx
  0005b	8b f0		 mov	 esi, eax
  0005d	8d 7d ac	 lea	 edi, DWORD PTR _kColBox$511982[ebp]
  00060	f3 a5		 rep movsd

; 29   : 			if( ioMath::TestIntersection( kColBox, m_CollisionBox, NULL ) )

  00062	8b 7d a0	 mov	 edi, DWORD PTR _this$GSCopy$[ebp]
  00065	83 65 fc 00	 and	 DWORD PTR __$EHRec$[ebp+8], 0
  00069	6a 00		 push	 0
  0006b	8d 77 04	 lea	 esi, DWORD PTR [edi+4]
  0006e	8d 45 ac	 lea	 eax, DWORD PTR _kColBox$511982[ebp]
  00071	56		 push	 esi
  00072	50		 push	 eax
  00073	ff 15 00 00 00
	00		 call	 DWORD PTR __imp_?TestIntersection@ioMath@@SA_NABVioOrientBox@@0PAM@Z
  00079	83 c4 0c	 add	 esp, 12			; 0000000cH
  0007c	84 c0		 test	 al, al
  0007e	0f 84 c9 00 00
	00		 je	 $LN60@FindList

; 30   : 			{
; 31   : 				if( pStage )

  00084	83 7d 94 00	 cmp	 DWORD PTR _pStage$GSCopy$[ebp], 0
  00088	0f 84 b0 00 00
	00		 je	 $LN3@FindList

; 32   : 				{
; 33   : 					float fMaxHeight = kColBox.GetCenter().y + kColBox.GetExtents(1);

  0008e	6a 01		 push	 1
  00090	8d 4d ac	 lea	 ecx, DWORD PTR _kColBox$511982[ebp]
  00093	ff 15 00 00 00
	00		 call	 DWORD PTR __imp_?GetExtents@ioOrientBox@@QBEMH@Z
  00099	dd 5d 98	 fstp	 QWORD PTR tv145[ebp]
  0009c	8d 4d ac	 lea	 ecx, DWORD PTR _kColBox$511982[ebp]
  0009f	ff 15 00 00 00
	00		 call	 DWORD PTR __imp_?GetCenter@ioOrientBox@@QBEABUD3DXVECTOR3@@XZ
  000a5	f3 0f 10 40 04	 movss	 xmm0, DWORD PTR [eax+4]
  000aa	0f 5a c0	 cvtps2pd xmm0, xmm0
  000ad	f2 0f 58 45 98	 addsd	 xmm0, QWORD PTR tv145[ebp]
  000b2	66 0f 5a c0	 cvtpd2ps xmm0, xmm0
  000b6	f3 0f 11 45 8c	 movss	 DWORD PTR _fMaxHeight$511985[ebp], xmm0

; 34   : 					float fYHeight = m_CollisionBox.GetCenter().y + m_CollisionBox.GetExtents(1) + FLOAT1;

  000bb	b8 01 00 00 00	 mov	 eax, 1
  000c0	6a 01		 push	 1
  000c2	8b ce		 mov	 ecx, esi
  000c4	89 45 a8	 mov	 DWORD PTR $T513335[ebp], eax
  000c7	ff 15 00 00 00
	00		 call	 DWORD PTR __imp_?GetExtents@ioOrientBox@@QBEMH@Z
  000cd	dd 5d 98	 fstp	 QWORD PTR tv159[ebp]
  000d0	8b ce		 mov	 ecx, esi
  000d2	ff 15 00 00 00
	00		 call	 DWORD PTR __imp_?GetCenter@ioOrientBox@@QBEABUD3DXVECTOR3@@XZ
  000d8	d9 40 04	 fld	 DWORD PTR [eax+4]
  000db	8b 45 a8	 mov	 eax, DWORD PTR $T513335[ebp]
  000de	dc 45 98	 fadd	 QWORD PTR tv159[ebp]
  000e1	db 45 a8	 fild	 DWORD PTR $T513335[ebp]
  000e4	85 c0		 test	 eax, eax
  000e6	79 06		 jns	 SHORT $LN79@FindList
  000e8	d8 05 00 00 00
	00		 fadd	 DWORD PTR __real@4f800000
$LN79@FindList:

; 35   : 					float fMapHeight = pStage->GetMapHeightByRay( pEntity->GetWorldPosition().x,
; 36   : 																  pEntity->GetWorldPosition().z,
; 37   : 																  pEntity,
; 38   : 																  false,
; 39   : 																  fMaxHeight );

  000ee	8b 03		 mov	 eax, DWORD PTR [ebx]
  000f0	de c1		 faddp	 ST(1), ST(0)
  000f2	8b cb		 mov	 ecx, ebx
  000f4	d9 5d 9c	 fstp	 DWORD PTR _fYHeight$511986[ebp]
  000f7	ff 50 70	 call	 DWORD PTR [eax+112]
  000fa	f3 0f 10 45 8c	 movss	 xmm0, DWORD PTR _fMaxHeight$511985[ebp]
  000ff	51		 push	 ecx
  00100	f3 0f 11 04 24	 movss	 DWORD PTR [esp], xmm0
  00105	6a 00		 push	 0
  00107	8b f0		 mov	 esi, eax
  00109	8b 03		 mov	 eax, DWORD PTR [ebx]
  0010b	53		 push	 ebx
  0010c	8b cb		 mov	 ecx, ebx
  0010e	ff 50 70	 call	 DWORD PTR [eax+112]
  00111	f3 0f 10 40 08	 movss	 xmm0, DWORD PTR [eax+8]
  00116	51		 push	 ecx
  00117	51		 push	 ecx
  00118	8b 4d 94	 mov	 ecx, DWORD PTR _pStage$GSCopy$[ebp]
  0011b	f3 0f 11 44 24
	04		 movss	 DWORD PTR [esp+4], xmm0
  00121	f3 0f 10 06	 movss	 xmm0, DWORD PTR [esi]
  00125	f3 0f 11 04 24	 movss	 DWORD PTR [esp], xmm0
  0012a	e8 00 00 00 00	 call	 ?GetMapHeightByRay@ioPlayStage@@QAEMMMPBVioGameEntity@@_NM@Z ; ioPlayStage::GetMapHeightByRay
  0012f	d9 5d a8	 fstp	 DWORD PTR _fMapHeight$511988[ebp]

; 40   : 
; 41   : 					if( fMapHeight <= fYHeight )

  00132	d9 45 a8	 fld	 DWORD PTR _fMapHeight$511988[ebp]
  00135	d9 45 9c	 fld	 DWORD PTR _fYHeight$511986[ebp]
  00138	df f1		 fcomip	 ST(1)
  0013a	dd d8		 fstp	 ST(0)
  0013c	72 0f		 jb	 SHORT $LN60@FindList
$LN3@FindList:

; 42   : 					{
; 43   : 						m_ResultList.push_back( pEntity );
; 44   : 					}
; 45   : 				}
; 46   : 				else
; 47   : 				{
; 48   : 					m_ResultList.push_back( pEntity );

  0013e	8d 55 90	 lea	 edx, DWORD PTR _pEntity$511980[ebp]
  00141	8d 4f 4c	 lea	 ecx, DWORD PTR [edi+76]
  00144	8b 01		 mov	 eax, DWORD PTR [ecx]
  00146	52		 push	 edx
  00147	50		 push	 eax
  00148	e8 00 00 00 00	 call	 ?_Insert@?$list@PAVioPlayEntity@@V?$allocator@PAVioPlayEntity@@@std@@@std@@QAEXV?$_List_const_iterator@V?$_List_val@PAVioPlayEntity@@V?$allocator@PAVioPlayEntity@@@std@@@std@@@2@ABQAVioPlayEntity@@@Z ; std::list<ioPlayEntity *,std::allocator<ioPlayEntity *> >::_Insert
$LN60@FindList:

; 49   : 				}
; 50   : 
; 51   : 				//m_ResultList.push_back( pEntity );
; 52   : 			}
; 53   : 		}

  0014d	83 4d fc ff	 or	 DWORD PTR __$EHRec$[ebp+8], -1
  00151	8d 4d ac	 lea	 ecx, DWORD PTR _kColBox$511982[ebp]
  00154	ff 15 00 00 00
	00		 call	 DWORD PTR __imp_??1ioOrientBox@@QAE@XZ
  0015a	8b 7d 88	 mov	 edi, DWORD PTR _rkList$GSCopy$[ebp]
  0015d	8b 75 a4	 mov	 esi, DWORD PTR _iter$[ebp]
$LN7@FindList:

; 22   : 	GameEntityList::const_iterator iter;
; 23   : 	for( iter=rkList.begin() ; iter!=rkList.end() ; ++iter )

  00160	8b 36		 mov	 esi, DWORD PTR [esi]
  00162	89 75 a4	 mov	 DWORD PTR _iter$[ebp], esi
  00165	3b 37		 cmp	 esi, DWORD PTR [edi]
  00167	0f 85 bf fe ff
	ff		 jne	 $LL76@FindList
$LN6@FindList:

; 54   : 	}
; 55   : 
; 56   : 	return !m_ResultList.empty();

  0016d	8b 4d a0	 mov	 ecx, DWORD PTR _this$GSCopy$[ebp]
  00170	33 c0		 xor	 eax, eax
  00172	39 41 50	 cmp	 DWORD PTR [ecx+80], eax
  00175	0f 95 c0	 setne	 al

; 57   : }

  00178	e8 00 00 00 00	 call	 __EH_epilog3_GS
  0017d	c2 08 00	 ret	 8
_TEXT	ENDS
;	COMDAT text$x
text$x	SEGMENT
__unwindfunclet$?FindList@FL_CollisionPlayEntity@@UAE_NABV?$list@PAVioGameEntity@@V?$allocator@PAVioGameEntity@@@std@@@std@@PAVioPlayStage@@@Z$0:
  00000	8d 4d ac	 lea	 ecx, DWORD PTR _kColBox$511982[ebp]
  00003	ff 25 00 00 00
	00		 jmp	 DWORD PTR __imp_??1ioOrientBox@@QAE@XZ
__ehhandler$?FindList@FL_CollisionPlayEntity@@UAE_NABV?$list@PAVioGameEntity@@V?$allocator@PAVioGameEntity@@@std@@@std@@PAVioPlayStage@@@Z:
  00009	8b 54 24 08	 mov	 edx, DWORD PTR [esp+8]
  0000d	8d 42 0c	 lea	 eax, DWORD PTR [edx+12]
  00010	8b 4a 84	 mov	 ecx, DWORD PTR [edx-124]
  00013	33 c8		 xor	 ecx, eax
  00015	e8 00 00 00 00	 call	 @__security_check_cookie@4
  0001a	8b 4a fc	 mov	 ecx, DWORD PTR [edx-4]
  0001d	33 c8		 xor	 ecx, eax
  0001f	e8 00 00 00 00	 call	 @__security_check_cookie@4
  00024	b8 00 00 00 00	 mov	 eax, OFFSET __ehfuncinfo$?FindList@FL_CollisionPlayEntity@@UAE_NABV?$list@PAVioGameEntity@@V?$allocator@PAVioGameEntity@@@std@@@std@@PAVioPlayStage@@@Z
  00029	e9 00 00 00 00	 jmp	 ___CxxFrameHandler3
text$x	ENDS
?FindList@FL_CollisionPlayEntity@@UAE_NABV?$list@PAVioGameEntity@@V?$allocator@PAVioGameEntity@@@std@@@std@@PAVioPlayStage@@@Z ENDP ; FL_CollisionPlayEntity::FindList
END
