; Listing generated by Microsoft (R) Optimizing Compiler Version 16.00.30319.01 

	TITLE	D:\Lost Saga For Developer\Youtube\Tutorial\Source\src\LSClient\FindPredicateImpl.cpp
	.686P
	.XMM
	include listing.inc
	.model	flat

INCLUDELIB MSVCRT
INCLUDELIB OLDNAMES

PUBLIC	?return1@@YAIXZ					; return1
; Function compile flags: /Ogsp
; File d:\lost saga for developer\youtube\tutorial\source\src\lsclient\stdafx.h
;	COMDAT ?return1@@YAIXZ
_TEXT	SEGMENT
?return1@@YAIXZ PROC					; return1, COMDAT

; 17   : 	__forceinline unsigned int return1() { __asm mov eax, 1 };

  00000	b8 01 00 00 00	 mov	 eax, 1
  00005	c3		 ret	 0
?return1@@YAIXZ ENDP					; return1
_TEXT	ENDS
PUBLIC	?return5@@YAIXZ					; return5
; Function compile flags: /Ogsp
;	COMDAT ?return5@@YAIXZ
_TEXT	SEGMENT
?return5@@YAIXZ PROC					; return5, COMDAT

; 18   : 	__forceinline unsigned int return5() { __asm mov eax, 5 };

  00000	b8 05 00 00 00	 mov	 eax, 5
  00005	c3		 ret	 0
?return5@@YAIXZ ENDP					; return5
_TEXT	ENDS
PUBLIC	?return10@@YAIXZ				; return10
; Function compile flags: /Ogsp
;	COMDAT ?return10@@YAIXZ
_TEXT	SEGMENT
?return10@@YAIXZ PROC					; return10, COMDAT

; 21   : 	__forceinline unsigned int return10() { __asm mov eax, 10 };

  00000	b8 0a 00 00 00	 mov	 eax, 10			; 0000000aH
  00005	c3		 ret	 0
?return10@@YAIXZ ENDP					; return10
_TEXT	ENDS
PUBLIC	?GetBlowStopMotionState@ioBaseChar@@QBE_NXZ	; ioBaseChar::GetBlowStopMotionState
; Function compile flags: /Ogsp
; File d:\lost saga for developer\youtube\tutorial\source\src\lsclient\iobasechar.h
;	COMDAT ?GetBlowStopMotionState@ioBaseChar@@QBE_NXZ
_TEXT	SEGMENT
?GetBlowStopMotionState@ioBaseChar@@QBE_NXZ PROC	; ioBaseChar::GetBlowStopMotionState, COMDAT
; _this$ = ecx

; 1566 : 	inline bool GetBlowStopMotionState() const { return m_bBlowStopMotion; }

  00000	8a 81 c7 15 00
	00		 mov	 al, BYTE PTR [ecx+5575]
  00006	c3		 ret	 0
?GetBlowStopMotionState@ioBaseChar@@QBE_NXZ ENDP	; ioBaseChar::GetBlowStopMotionState
_TEXT	ENDS
PUBLIC	?GetBlowFrozenState@ioBaseChar@@QBE_NXZ		; ioBaseChar::GetBlowFrozenState
; Function compile flags: /Ogsp
;	COMDAT ?GetBlowFrozenState@ioBaseChar@@QBE_NXZ
_TEXT	SEGMENT
?GetBlowFrozenState@ioBaseChar@@QBE_NXZ PROC		; ioBaseChar::GetBlowFrozenState, COMDAT
; _this$ = ecx

; 1571 : 	inline bool GetBlowFrozenState() const { return m_bBlowFrozenState; }

  00000	8a 81 c5 15 00
	00		 mov	 al, BYTE PTR [ecx+5573]
  00006	c3		 ret	 0
?GetBlowFrozenState@ioBaseChar@@QBE_NXZ ENDP		; ioBaseChar::GetBlowFrozenState
_TEXT	ENDS
PUBLIC	?GetState@ioBaseChar@@QBE?AW4CharState@@XZ	; ioBaseChar::GetState
; Function compile flags: /Ogsp
;	COMDAT ?GetState@ioBaseChar@@QBE?AW4CharState@@XZ
_TEXT	SEGMENT
?GetState@ioBaseChar@@QBE?AW4CharState@@XZ PROC		; ioBaseChar::GetState, COMDAT
; _this$ = ecx

; 2156 : 	inline CharState GetState() const { return m_CharState; }	

  00000	8a 81 10 03 00
	00		 mov	 al, BYTE PTR [ecx+784]
  00006	c3		 ret	 0
?GetState@ioBaseChar@@QBE?AW4CharState@@XZ ENDP		; ioBaseChar::GetState
_TEXT	ENDS
PUBLIC	?GetCharName@ioBaseChar@@QBEABVioHashString@@XZ	; ioBaseChar::GetCharName
; Function compile flags: /Ogsp
;	COMDAT ?GetCharName@ioBaseChar@@QBEABVioHashString@@XZ
_TEXT	SEGMENT
?GetCharName@ioBaseChar@@QBEABVioHashString@@XZ PROC	; ioBaseChar::GetCharName, COMDAT
; _this$ = ecx

; 2594 : 	inline const ioHashString& GetCharName() const { return m_Name; }

  00000	8d 81 d4 02 00
	00		 lea	 eax, DWORD PTR [ecx+724]
  00006	c3		 ret	 0
?GetCharName@ioBaseChar@@QBEABVioHashString@@XZ ENDP	; ioBaseChar::GetCharName
_TEXT	ENDS
PUBLIC	?GetMoveDir@ioBaseChar@@QBEABUD3DXVECTOR3@@XZ	; ioBaseChar::GetMoveDir
; Function compile flags: /Ogsp
;	COMDAT ?GetMoveDir@ioBaseChar@@QBEABUD3DXVECTOR3@@XZ
_TEXT	SEGMENT
?GetMoveDir@ioBaseChar@@QBEABUD3DXVECTOR3@@XZ PROC	; ioBaseChar::GetMoveDir, COMDAT
; _this$ = ecx

; 2596 : 	inline const D3DXVECTOR3& GetMoveDir() const { return m_vMoveDir; }

  00000	8d 81 b4 06 00
	00		 lea	 eax, DWORD PTR [ecx+1716]
  00006	c3		 ret	 0
?GetMoveDir@ioBaseChar@@QBEABUD3DXVECTOR3@@XZ ENDP	; ioBaseChar::GetMoveDir
_TEXT	ENDS
PUBLIC	?GetTargetRot@ioBaseChar@@QBEABUD3DXQUATERNION@@XZ ; ioBaseChar::GetTargetRot
; Function compile flags: /Ogsp
;	COMDAT ?GetTargetRot@ioBaseChar@@QBEABUD3DXQUATERNION@@XZ
_TEXT	SEGMENT
?GetTargetRot@ioBaseChar@@QBEABUD3DXQUATERNION@@XZ PROC	; ioBaseChar::GetTargetRot, COMDAT
; _this$ = ecx

; 2599 : 	inline const D3DXQUATERNION& GetTargetRot() const { return m_qtTargetRot; }

  00000	8d 81 a4 06 00
	00		 lea	 eax, DWORD PTR [ecx+1700]
  00006	c3		 ret	 0
?GetTargetRot@ioBaseChar@@QBEABUD3DXQUATERNION@@XZ ENDP	; ioBaseChar::GetTargetRot
_TEXT	ENDS
PUBLIC	_acosf
EXTRN	__fltused:DWORD
EXTRN	__CIacos:PROC
; Function compile flags: /Ogsp
; File c:\program files (x86)\microsoft visual studio 10.0\vc\include\math.h
;	COMDAT _acosf
_TEXT	SEGMENT
tv69 = 8						; size = 4
__X$ = 8						; size = 4
_acosf	PROC						; COMDAT

; 400  :         {return ((float)acos((double)_X)); }

  00000	55		 push	 ebp
  00001	8b ec		 mov	 ebp, esp
  00003	d9 45 08	 fld	 DWORD PTR __X$[ebp]
  00006	e8 00 00 00 00	 call	 __CIacos
  0000b	d9 5d 08	 fstp	 DWORD PTR tv69[ebp]
  0000e	d9 45 08	 fld	 DWORD PTR tv69[ebp]
  00011	5d		 pop	 ebp
  00012	c3		 ret	 0
_acosf	ENDP
_TEXT	ENDS
PUBLIC	_cosf
EXTRN	__CIcos:PROC
; Function compile flags: /Ogsp
;	COMDAT _cosf
_TEXT	SEGMENT
tv69 = 8						; size = 4
__X$ = 8						; size = 4
_cosf	PROC						; COMDAT

; 410  :         {return ((float)cos((double)_X)); }

  00000	55		 push	 ebp
  00001	8b ec		 mov	 ebp, esp
  00003	d9 45 08	 fld	 DWORD PTR __X$[ebp]
  00006	e8 00 00 00 00	 call	 __CIcos
  0000b	d9 5d 08	 fstp	 DWORD PTR tv69[ebp]
  0000e	d9 45 08	 fld	 DWORD PTR tv69[ebp]
  00011	5d		 pop	 ebp
  00012	c3		 ret	 0
_cosf	ENDP
_TEXT	ENDS
PUBLIC	??_7bad_alloc@std@@6B@				; std::bad_alloc::`vftable'
PUBLIC	??0bad_alloc@std@@QAE@PBD@Z			; std::bad_alloc::bad_alloc
PUBLIC	??_R4bad_alloc@std@@6B@				; std::bad_alloc::`RTTI Complete Object Locator'
PUBLIC	??_R0?AVbad_alloc@std@@@8			; std::bad_alloc `RTTI Type Descriptor'
PUBLIC	??_R3bad_alloc@std@@8				; std::bad_alloc::`RTTI Class Hierarchy Descriptor'
PUBLIC	??_R2bad_alloc@std@@8				; std::bad_alloc::`RTTI Base Class Array'
PUBLIC	??_R1A@?0A@EA@bad_alloc@std@@8			; std::bad_alloc::`RTTI Base Class Descriptor at (0,-1,0,64)'
PUBLIC	??_R1A@?0A@EA@exception@std@@8			; std::exception::`RTTI Base Class Descriptor at (0,-1,0,64)'
PUBLIC	??_R0?AVexception@std@@@8			; std::exception `RTTI Type Descriptor'
PUBLIC	??_R3exception@std@@8				; std::exception::`RTTI Class Hierarchy Descriptor'
PUBLIC	??_R2exception@std@@8				; std::exception::`RTTI Base Class Array'
EXTRN	__imp_??0exception@std@@QAE@ABQBD@Z:PROC
EXTRN	??_7type_info@@6B@:QWORD			; type_info::`vftable'
EXTRN	??_Ebad_alloc@std@@UAEPAXI@Z:PROC		; std::bad_alloc::`vector deleting destructor'
EXTRN	?what@exception@std@@UBEPBDXZ:PROC		; std::exception::what
;	COMDAT ??_R2exception@std@@8
; File c:\program files (x86)\microsoft visual studio 10.0\vc\include\exception
rdata$r	SEGMENT
??_R2exception@std@@8 DD FLAT:??_R1A@?0A@EA@exception@std@@8 ; std::exception::`RTTI Base Class Array'
rdata$r	ENDS
;	COMDAT ??_R3exception@std@@8
rdata$r	SEGMENT
??_R3exception@std@@8 DD 00H				; std::exception::`RTTI Class Hierarchy Descriptor'
	DD	00H
	DD	01H
	DD	FLAT:??_R2exception@std@@8
rdata$r	ENDS
;	COMDAT ??_R0?AVexception@std@@@8
_DATA	SEGMENT
??_R0?AVexception@std@@@8 DD FLAT:??_7type_info@@6B@	; std::exception `RTTI Type Descriptor'
	DD	00H
	DB	'.?AVexception@std@@', 00H
_DATA	ENDS
;	COMDAT ??_R1A@?0A@EA@exception@std@@8
rdata$r	SEGMENT
??_R1A@?0A@EA@exception@std@@8 DD FLAT:??_R0?AVexception@std@@@8 ; std::exception::`RTTI Base Class Descriptor at (0,-1,0,64)'
	DD	00H
	DD	00H
	DD	0ffffffffH
	DD	00H
	DD	040H
	DD	FLAT:??_R3exception@std@@8
rdata$r	ENDS
;	COMDAT ??_R1A@?0A@EA@bad_alloc@std@@8
rdata$r	SEGMENT
??_R1A@?0A@EA@bad_alloc@std@@8 DD FLAT:??_R0?AVbad_alloc@std@@@8 ; std::bad_alloc::`RTTI Base Class Descriptor at (0,-1,0,64)'
	DD	01H
	DD	00H
	DD	0ffffffffH
	DD	00H
	DD	040H
	DD	FLAT:??_R3bad_alloc@std@@8
rdata$r	ENDS
;	COMDAT ??_R2bad_alloc@std@@8
rdata$r	SEGMENT
??_R2bad_alloc@std@@8 DD FLAT:??_R1A@?0A@EA@bad_alloc@std@@8 ; std::bad_alloc::`RTTI Base Class Array'
	DD	FLAT:??_R1A@?0A@EA@exception@std@@8
rdata$r	ENDS
;	COMDAT ??_R3bad_alloc@std@@8
rdata$r	SEGMENT
??_R3bad_alloc@std@@8 DD 00H				; std::bad_alloc::`RTTI Class Hierarchy Descriptor'
	DD	00H
	DD	02H
	DD	FLAT:??_R2bad_alloc@std@@8
rdata$r	ENDS
;	COMDAT ??_R0?AVbad_alloc@std@@@8
_DATA	SEGMENT
??_R0?AVbad_alloc@std@@@8 DD FLAT:??_7type_info@@6B@	; std::bad_alloc `RTTI Type Descriptor'
	DD	00H
	DB	'.?AVbad_alloc@std@@', 00H
_DATA	ENDS
;	COMDAT ??_R4bad_alloc@std@@6B@
rdata$r	SEGMENT
??_R4bad_alloc@std@@6B@ DD 00H				; std::bad_alloc::`RTTI Complete Object Locator'
	DD	00H
	DD	00H
	DD	FLAT:??_R0?AVbad_alloc@std@@@8
	DD	FLAT:??_R3bad_alloc@std@@8
rdata$r	ENDS
;	COMDAT ??_7bad_alloc@std@@6B@
CONST	SEGMENT
??_7bad_alloc@std@@6B@ DD FLAT:??_R4bad_alloc@std@@6B@	; std::bad_alloc::`vftable'
	DD	FLAT:??_Ebad_alloc@std@@UAEPAXI@Z
	DD	FLAT:?what@exception@std@@UBEPBDXZ
; Function compile flags: /Ogsp
CONST	ENDS
;	COMDAT ??0bad_alloc@std@@QAE@PBD@Z
_TEXT	SEGMENT
__Message$ = 8						; size = 4
??0bad_alloc@std@@QAE@PBD@Z PROC			; std::bad_alloc::bad_alloc, COMDAT
; _this$ = ecx

; 345  : 		{	// construct from message string

  00000	55		 push	 ebp
  00001	8b ec		 mov	 ebp, esp
  00003	56		 push	 esi
  00004	8d 45 08	 lea	 eax, DWORD PTR __Message$[ebp]
  00007	50		 push	 eax
  00008	8b f1		 mov	 esi, ecx
  0000a	ff 15 00 00 00
	00		 call	 DWORD PTR __imp_??0exception@std@@QAE@ABQBD@Z
  00010	c7 06 00 00 00
	00		 mov	 DWORD PTR [esi], OFFSET ??_7bad_alloc@std@@6B@

; 346  : 		}

  00016	8b c6		 mov	 eax, esi
  00018	5e		 pop	 esi
  00019	5d		 pop	 ebp
  0001a	c2 04 00	 ret	 4
??0bad_alloc@std@@QAE@PBD@Z ENDP			; std::bad_alloc::bad_alloc
_TEXT	ENDS
PUBLIC	??1bad_alloc@std@@UAE@XZ			; std::bad_alloc::~bad_alloc
EXTRN	__imp_??1exception@std@@UAE@XZ:PROC
; Function compile flags: /Ogsp
;	COMDAT ??1bad_alloc@std@@UAE@XZ
_TEXT	SEGMENT
??1bad_alloc@std@@UAE@XZ PROC				; std::bad_alloc::~bad_alloc, COMDAT
; _this$ = ecx

; 354  : 		{	// destroy the object

  00000	c7 01 00 00 00
	00		 mov	 DWORD PTR [ecx], OFFSET ??_7bad_alloc@std@@6B@

; 355  : 		}

  00006	ff 25 00 00 00
	00		 jmp	 DWORD PTR __imp_??1exception@std@@UAE@XZ
??1bad_alloc@std@@UAE@XZ ENDP				; std::bad_alloc::~bad_alloc
_TEXT	ENDS
EXTRN	??3@YAXPAX@Z:PROC				; operator delete
; Function compile flags: /Ogsp
;	COMDAT ??_Gbad_alloc@std@@UAEPAXI@Z
_TEXT	SEGMENT
___flags$ = 8						; size = 4
??_Gbad_alloc@std@@UAEPAXI@Z PROC			; std::bad_alloc::`scalar deleting destructor', COMDAT
; _this$ = ecx
  00000	55		 push	 ebp
  00001	8b ec		 mov	 ebp, esp
  00003	56		 push	 esi
  00004	8b f1		 mov	 esi, ecx
  00006	c7 06 00 00 00
	00		 mov	 DWORD PTR [esi], OFFSET ??_7bad_alloc@std@@6B@
  0000c	ff 15 00 00 00
	00		 call	 DWORD PTR __imp_??1exception@std@@UAE@XZ
  00012	f6 45 08 01	 test	 BYTE PTR ___flags$[ebp], 1
  00016	74 07		 je	 SHORT $LN1@scalar
  00018	56		 push	 esi
  00019	e8 00 00 00 00	 call	 ??3@YAXPAX@Z		; operator delete
  0001e	59		 pop	 ecx
$LN1@scalar:
  0001f	8b c6		 mov	 eax, esi
  00021	5e		 pop	 esi
  00022	5d		 pop	 ebp
  00023	c2 04 00	 ret	 4
??_Gbad_alloc@std@@UAEPAXI@Z ENDP			; std::bad_alloc::`scalar deleting destructor'
_TEXT	ENDS
PUBLIC	??2@YAPAXIPAX@Z					; operator new
; Function compile flags: /Ogsp
; File c:\program files (x86)\microsoft visual studio 10.0\vc\include\new
;	COMDAT ??2@YAPAXIPAX@Z
_TEXT	SEGMENT
___formal$ = 8						; size = 4
__Where$ = 12						; size = 4
??2@YAPAXIPAX@Z PROC					; operator new, COMDAT

; 56   : 	{	// construct array with placement at _Where

  00000	55		 push	 ebp
  00001	8b ec		 mov	 ebp, esp

; 57   : 	return (_Where);

  00003	8b 45 0c	 mov	 eax, DWORD PTR __Where$[ebp]

; 58   : 	}

  00006	5d		 pop	 ebp
  00007	c3		 ret	 0
??2@YAPAXIPAX@Z ENDP					; operator new
_TEXT	ENDS
PUBLIC	??3@YAXPAX0@Z					; operator delete
; Function compile flags: /Ogsp
;	COMDAT ??3@YAXPAX0@Z
_TEXT	SEGMENT
___formal$ = 8						; size = 4
___formal$ = 12						; size = 4
??3@YAXPAX0@Z PROC					; operator delete, COMDAT

; 62   : 	}

  00000	c3		 ret	 0
??3@YAXPAX0@Z ENDP					; operator delete
_TEXT	ENDS
PUBLIC	??_R0?AVioWeapon@@@8				; ioWeapon `RTTI Type Descriptor'
PUBLIC	??_R0?AVioChainWeapon@@@8			; ioChainWeapon `RTTI Type Descriptor'
PUBLIC	?ToChainWeapon@@YAPAVioChainWeapon@@PAVioWeapon@@@Z ; ToChainWeapon
EXTRN	___RTDynamicCast:PROC
;	COMDAT ??_R0?AVioWeapon@@@8
; File d:\lost saga for developer\youtube\tutorial\source\src\lsclient\iochainweapon.h
_DATA	SEGMENT
??_R0?AVioWeapon@@@8 DD FLAT:??_7type_info@@6B@		; ioWeapon `RTTI Type Descriptor'
	DD	00H
	DB	'.?AVioWeapon@@', 00H
_DATA	ENDS
;	COMDAT ??_R0?AVioChainWeapon@@@8
_DATA	SEGMENT
??_R0?AVioChainWeapon@@@8 DD FLAT:??_7type_info@@6B@	; ioChainWeapon `RTTI Type Descriptor'
	DD	00H
	DB	'.?AVioChainWeapon@@', 00H
; Function compile flags: /Ogsp
_DATA	ENDS
;	COMDAT ?ToChainWeapon@@YAPAVioChainWeapon@@PAVioWeapon@@@Z
_TEXT	SEGMENT
_pWeapon$ = 8						; size = 4
?ToChainWeapon@@YAPAVioChainWeapon@@PAVioWeapon@@@Z PROC ; ToChainWeapon, COMDAT

; 113  : {

  00000	55		 push	 ebp
  00001	8b ec		 mov	 ebp, esp
  00003	56		 push	 esi

; 114  : 	if( !pWeapon || pWeapon->GetType() != ioWeapon::WT_CHAIN )

  00004	8b 75 08	 mov	 esi, DWORD PTR _pWeapon$[ebp]
  00007	85 f6		 test	 esi, esi
  00009	74 28		 je	 SHORT $LN1@ToChainWea
  0000b	8b 06		 mov	 eax, DWORD PTR [esi]
  0000d	8b ce		 mov	 ecx, esi
  0000f	ff 90 10 01 00
	00		 call	 DWORD PTR [eax+272]
  00015	83 f8 17	 cmp	 eax, 23			; 00000017H
  00018	75 19		 jne	 SHORT $LN1@ToChainWea

; 116  : 
; 117  : 	return dynamic_cast< ioChainWeapon* >( pWeapon );

  0001a	6a 00		 push	 0
  0001c	68 00 00 00 00	 push	 OFFSET ??_R0?AVioChainWeapon@@@8
  00021	68 00 00 00 00	 push	 OFFSET ??_R0?AVioWeapon@@@8
  00026	6a 00		 push	 0
  00028	56		 push	 esi
  00029	e8 00 00 00 00	 call	 ___RTDynamicCast
  0002e	83 c4 14	 add	 esp, 20			; 00000014H
  00031	eb 02		 jmp	 SHORT $LN3@ToChainWea
$LN1@ToChainWea:

; 115  : 		return NULL;

  00033	33 c0		 xor	 eax, eax
$LN3@ToChainWea:
  00035	5e		 pop	 esi

; 118  : }

  00036	5d		 pop	 ebp
  00037	c3		 ret	 0
?ToChainWeapon@@YAPAVioChainWeapon@@PAVioWeapon@@@Z ENDP ; ToChainWeapon
_TEXT	ENDS
PUBLIC	?_Adopt@_Iterator_base0@std@@QAEXPBX@Z		; std::_Iterator_base0::_Adopt
; Function compile flags: /Ogsp
; File c:\program files (x86)\microsoft visual studio 10.0\vc\include\xutility
;	COMDAT ?_Adopt@_Iterator_base0@std@@QAEXPBX@Z
_TEXT	SEGMENT
___formal$ = 8						; size = 4
?_Adopt@_Iterator_base0@std@@QAEXPBX@Z PROC		; std::_Iterator_base0::_Adopt, COMDAT
; _this$ = ecx

; 49   : 		}

  00000	c2 04 00	 ret	 4
?_Adopt@_Iterator_base0@std@@QAEXPBX@Z ENDP		; std::_Iterator_base0::_Adopt
_TEXT	ENDS
PUBLIC	??_7FD_CloseAliveEnemy@@6B@			; FD_CloseAliveEnemy::`vftable'
PUBLIC	??0FD_CloseAliveEnemy@@QAE@PBVioBaseChar@@@Z	; FD_CloseAliveEnemy::FD_CloseAliveEnemy
PUBLIC	??_R4FD_CloseAliveEnemy@@6B@			; FD_CloseAliveEnemy::`RTTI Complete Object Locator'
PUBLIC	??_R0?AVFD_CloseAliveEnemy@@@8			; FD_CloseAliveEnemy `RTTI Type Descriptor'
PUBLIC	??_R3FD_CloseAliveEnemy@@8			; FD_CloseAliveEnemy::`RTTI Class Hierarchy Descriptor'
PUBLIC	??_R2FD_CloseAliveEnemy@@8			; FD_CloseAliveEnemy::`RTTI Base Class Array'
PUBLIC	??_R1A@?0A@EA@FD_CloseAliveEnemy@@8		; FD_CloseAliveEnemy::`RTTI Base Class Descriptor at (0,-1,0,64)'
PUBLIC	??_R1A@?0A@EA@FindPredicate@@8			; FindPredicate::`RTTI Base Class Descriptor at (0,-1,0,64)'
PUBLIC	??_R0?AVFindPredicate@@@8			; FindPredicate `RTTI Type Descriptor'
PUBLIC	??_R3FindPredicate@@8				; FindPredicate::`RTTI Class Hierarchy Descriptor'
PUBLIC	??_R2FindPredicate@@8				; FindPredicate::`RTTI Base Class Array'
PUBLIC	?GetFindChar@FD_CloseAliveEnemy@@UAEPAVioBaseChar@@ABV?$vector@PAVioBaseChar@@V?$allocator@PAVioBaseChar@@@std@@@std@@@Z ; FD_CloseAliveEnemy::GetFindChar
EXTRN	??0FindPredicate@@QAE@PBVioBaseChar@@@Z:PROC	; FindPredicate::FindPredicate
EXTRN	??_EFD_CloseAliveEnemy@@UAEPAXI@Z:PROC		; FD_CloseAliveEnemy::`vector deleting destructor'
;	COMDAT ??_R2FindPredicate@@8
; File d:\lost saga for developer\youtube\tutorial\source\src\lsclient\findpredicateimpl.cpp
rdata$r	SEGMENT
??_R2FindPredicate@@8 DD FLAT:??_R1A@?0A@EA@FindPredicate@@8 ; FindPredicate::`RTTI Base Class Array'
rdata$r	ENDS
;	COMDAT ??_R3FindPredicate@@8
rdata$r	SEGMENT
??_R3FindPredicate@@8 DD 00H				; FindPredicate::`RTTI Class Hierarchy Descriptor'
	DD	00H
	DD	01H
	DD	FLAT:??_R2FindPredicate@@8
rdata$r	ENDS
;	COMDAT ??_R0?AVFindPredicate@@@8
_DATA	SEGMENT
??_R0?AVFindPredicate@@@8 DD FLAT:??_7type_info@@6B@	; FindPredicate `RTTI Type Descriptor'
	DD	00H
	DB	'.?AVFindPredicate@@', 00H
_DATA	ENDS
;	COMDAT ??_R1A@?0A@EA@FindPredicate@@8
rdata$r	SEGMENT
??_R1A@?0A@EA@FindPredicate@@8 DD FLAT:??_R0?AVFindPredicate@@@8 ; FindPredicate::`RTTI Base Class Descriptor at (0,-1,0,64)'
	DD	00H
	DD	00H
	DD	0ffffffffH
	DD	00H
	DD	040H
	DD	FLAT:??_R3FindPredicate@@8
rdata$r	ENDS
;	COMDAT ??_R1A@?0A@EA@FD_CloseAliveEnemy@@8
rdata$r	SEGMENT
??_R1A@?0A@EA@FD_CloseAliveEnemy@@8 DD FLAT:??_R0?AVFD_CloseAliveEnemy@@@8 ; FD_CloseAliveEnemy::`RTTI Base Class Descriptor at (0,-1,0,64)'
	DD	01H
	DD	00H
	DD	0ffffffffH
	DD	00H
	DD	040H
	DD	FLAT:??_R3FD_CloseAliveEnemy@@8
rdata$r	ENDS
;	COMDAT ??_R2FD_CloseAliveEnemy@@8
rdata$r	SEGMENT
??_R2FD_CloseAliveEnemy@@8 DD FLAT:??_R1A@?0A@EA@FD_CloseAliveEnemy@@8 ; FD_CloseAliveEnemy::`RTTI Base Class Array'
	DD	FLAT:??_R1A@?0A@EA@FindPredicate@@8
rdata$r	ENDS
;	COMDAT ??_R3FD_CloseAliveEnemy@@8
rdata$r	SEGMENT
??_R3FD_CloseAliveEnemy@@8 DD 00H			; FD_CloseAliveEnemy::`RTTI Class Hierarchy Descriptor'
	DD	00H
	DD	02H
	DD	FLAT:??_R2FD_CloseAliveEnemy@@8
rdata$r	ENDS
;	COMDAT ??_R0?AVFD_CloseAliveEnemy@@@8
_DATA	SEGMENT
??_R0?AVFD_CloseAliveEnemy@@@8 DD FLAT:??_7type_info@@6B@ ; FD_CloseAliveEnemy `RTTI Type Descriptor'
	DD	00H
	DB	'.?AVFD_CloseAliveEnemy@@', 00H
_DATA	ENDS
;	COMDAT ??_R4FD_CloseAliveEnemy@@6B@
rdata$r	SEGMENT
??_R4FD_CloseAliveEnemy@@6B@ DD 00H			; FD_CloseAliveEnemy::`RTTI Complete Object Locator'
	DD	00H
	DD	00H
	DD	FLAT:??_R0?AVFD_CloseAliveEnemy@@@8
	DD	FLAT:??_R3FD_CloseAliveEnemy@@8
rdata$r	ENDS
;	COMDAT ??_7FD_CloseAliveEnemy@@6B@
CONST	SEGMENT
??_7FD_CloseAliveEnemy@@6B@ DD FLAT:??_R4FD_CloseAliveEnemy@@6B@ ; FD_CloseAliveEnemy::`vftable'
	DD	FLAT:?GetFindChar@FD_CloseAliveEnemy@@UAEPAVioBaseChar@@ABV?$vector@PAVioBaseChar@@V?$allocator@PAVioBaseChar@@@std@@@std@@@Z
	DD	FLAT:??_EFD_CloseAliveEnemy@@UAEPAXI@Z
; Function compile flags: /Ogsp
CONST	ENDS
;	COMDAT ??0FD_CloseAliveEnemy@@QAE@PBVioBaseChar@@@Z
_TEXT	SEGMENT
_pOwner$ = 8						; size = 4
??0FD_CloseAliveEnemy@@QAE@PBVioBaseChar@@@Z PROC	; FD_CloseAliveEnemy::FD_CloseAliveEnemy, COMDAT
; _this$ = ecx

; 13   : {

  00000	55		 push	 ebp
  00001	8b ec		 mov	 ebp, esp
  00003	56		 push	 esi
  00004	ff 75 08	 push	 DWORD PTR _pOwner$[ebp]
  00007	8b f1		 mov	 esi, ecx
  00009	e8 00 00 00 00	 call	 ??0FindPredicate@@QAE@PBVioBaseChar@@@Z ; FindPredicate::FindPredicate
  0000e	c7 06 00 00 00
	00		 mov	 DWORD PTR [esi], OFFSET ??_7FD_CloseAliveEnemy@@6B@

; 14   : }

  00014	8b c6		 mov	 eax, esi
  00016	5e		 pop	 esi
  00017	5d		 pop	 ebp
  00018	c2 04 00	 ret	 4
??0FD_CloseAliveEnemy@@QAE@PBVioBaseChar@@@Z ENDP	; FD_CloseAliveEnemy::FD_CloseAliveEnemy
_TEXT	ENDS
PUBLIC	??1FD_CloseAliveEnemy@@UAE@XZ			; FD_CloseAliveEnemy::~FD_CloseAliveEnemy
EXTRN	??1FindPredicate@@UAE@XZ:PROC			; FindPredicate::~FindPredicate
; Function compile flags: /Ogsp
;	COMDAT ??1FD_CloseAliveEnemy@@UAE@XZ
_TEXT	SEGMENT
??1FD_CloseAliveEnemy@@UAE@XZ PROC			; FD_CloseAliveEnemy::~FD_CloseAliveEnemy, COMDAT
; _this$ = ecx

; 17   : {

  00000	c7 01 00 00 00
	00		 mov	 DWORD PTR [ecx], OFFSET ??_7FD_CloseAliveEnemy@@6B@

; 18   : }

  00006	e9 00 00 00 00	 jmp	 ??1FindPredicate@@UAE@XZ ; FindPredicate::~FindPredicate
??1FD_CloseAliveEnemy@@UAE@XZ ENDP			; FD_CloseAliveEnemy::~FD_CloseAliveEnemy
_TEXT	ENDS
PUBLIC	??_7FD_AimTarget@@6B@				; FD_AimTarget::`vftable'
PUBLIC	??0FD_AimTarget@@QAE@PBVioBaseChar@@MMM_N1@Z	; FD_AimTarget::FD_AimTarget
PUBLIC	??_R4FD_AimTarget@@6B@				; FD_AimTarget::`RTTI Complete Object Locator'
PUBLIC	??_R0?AVFD_AimTarget@@@8			; FD_AimTarget `RTTI Type Descriptor'
PUBLIC	??_R3FD_AimTarget@@8				; FD_AimTarget::`RTTI Class Hierarchy Descriptor'
PUBLIC	??_R2FD_AimTarget@@8				; FD_AimTarget::`RTTI Base Class Array'
PUBLIC	??_R1A@?0A@EA@FD_AimTarget@@8			; FD_AimTarget::`RTTI Base Class Descriptor at (0,-1,0,64)'
PUBLIC	?GetFindChar@FD_AimTarget@@UAEPAVioBaseChar@@ABV?$vector@PAVioBaseChar@@V?$allocator@PAVioBaseChar@@@std@@@std@@@Z ; FD_AimTarget::GetFindChar
EXTRN	??_EFD_AimTarget@@UAEPAXI@Z:PROC		; FD_AimTarget::`vector deleting destructor'
;	COMDAT ??_R1A@?0A@EA@FD_AimTarget@@8
rdata$r	SEGMENT
??_R1A@?0A@EA@FD_AimTarget@@8 DD FLAT:??_R0?AVFD_AimTarget@@@8 ; FD_AimTarget::`RTTI Base Class Descriptor at (0,-1,0,64)'
	DD	01H
	DD	00H
	DD	0ffffffffH
	DD	00H
	DD	040H
	DD	FLAT:??_R3FD_AimTarget@@8
rdata$r	ENDS
;	COMDAT ??_R2FD_AimTarget@@8
rdata$r	SEGMENT
??_R2FD_AimTarget@@8 DD FLAT:??_R1A@?0A@EA@FD_AimTarget@@8 ; FD_AimTarget::`RTTI Base Class Array'
	DD	FLAT:??_R1A@?0A@EA@FindPredicate@@8
rdata$r	ENDS
;	COMDAT ??_R3FD_AimTarget@@8
rdata$r	SEGMENT
??_R3FD_AimTarget@@8 DD 00H				; FD_AimTarget::`RTTI Class Hierarchy Descriptor'
	DD	00H
	DD	02H
	DD	FLAT:??_R2FD_AimTarget@@8
rdata$r	ENDS
;	COMDAT ??_R0?AVFD_AimTarget@@@8
_DATA	SEGMENT
??_R0?AVFD_AimTarget@@@8 DD FLAT:??_7type_info@@6B@	; FD_AimTarget `RTTI Type Descriptor'
	DD	00H
	DB	'.?AVFD_AimTarget@@', 00H
_DATA	ENDS
;	COMDAT ??_R4FD_AimTarget@@6B@
rdata$r	SEGMENT
??_R4FD_AimTarget@@6B@ DD 00H				; FD_AimTarget::`RTTI Complete Object Locator'
	DD	00H
	DD	00H
	DD	FLAT:??_R0?AVFD_AimTarget@@@8
	DD	FLAT:??_R3FD_AimTarget@@8
rdata$r	ENDS
;	COMDAT ??_7FD_AimTarget@@6B@
CONST	SEGMENT
??_7FD_AimTarget@@6B@ DD FLAT:??_R4FD_AimTarget@@6B@	; FD_AimTarget::`vftable'
	DD	FLAT:?GetFindChar@FD_AimTarget@@UAEPAVioBaseChar@@ABV?$vector@PAVioBaseChar@@V?$allocator@PAVioBaseChar@@@std@@@std@@@Z
	DD	FLAT:??_EFD_AimTarget@@UAEPAXI@Z
; Function compile flags: /Ogsp
CONST	ENDS
;	COMDAT ??0FD_AimTarget@@QAE@PBVioBaseChar@@MMM_N1@Z
_TEXT	SEGMENT
_pOwner$ = 8						; size = 4
_fAngle$ = 12						; size = 4
_fMinRange$ = 16					; size = 4
_fRange$ = 20						; size = 4
_bDownAim$ = 24						; size = 1
_bOwnerTeam$ = 28					; size = 1
??0FD_AimTarget@@QAE@PBVioBaseChar@@MMM_N1@Z PROC	; FD_AimTarget::FD_AimTarget, COMDAT
; _this$ = ecx

; 48   : {

  00000	55		 push	 ebp
  00001	8b ec		 mov	 ebp, esp
  00003	56		 push	 esi
  00004	ff 75 08	 push	 DWORD PTR _pOwner$[ebp]
  00007	8b f1		 mov	 esi, ecx
  00009	e8 00 00 00 00	 call	 ??0FindPredicate@@QAE@PBVioBaseChar@@@Z ; FindPredicate::FindPredicate

; 49   : 	m_fAimAngle = fAngle;
; 50   : 	m_fAimRange = fRange;
; 51   : 	m_fMinRange = fMinRange;
; 52   : 	m_bOwnerTeam = bOwnerTeam;

  0000e	8a 45 1c	 mov	 al, BYTE PTR _bOwnerTeam$[ebp]
  00011	f3 0f 10 45 0c	 movss	 xmm0, DWORD PTR _fAngle$[ebp]
  00016	f3 0f 11 46 08	 movss	 DWORD PTR [esi+8], xmm0
  0001b	f3 0f 10 45 14	 movss	 xmm0, DWORD PTR _fRange$[ebp]
  00020	88 46 14	 mov	 BYTE PTR [esi+20], al

; 53   : 	m_bDownAim = bDownAim;

  00023	8a 45 18	 mov	 al, BYTE PTR _bDownAim$[ebp]
  00026	f3 0f 11 46 0c	 movss	 DWORD PTR [esi+12], xmm0
  0002b	f3 0f 10 45 10	 movss	 xmm0, DWORD PTR _fMinRange$[ebp]
  00030	88 46 15	 mov	 BYTE PTR [esi+21], al
  00033	c7 06 00 00 00
	00		 mov	 DWORD PTR [esi], OFFSET ??_7FD_AimTarget@@6B@
  00039	f3 0f 11 46 10	 movss	 DWORD PTR [esi+16], xmm0

; 54   : }

  0003e	8b c6		 mov	 eax, esi
  00040	5e		 pop	 esi
  00041	5d		 pop	 ebp
  00042	c2 18 00	 ret	 24			; 00000018H
??0FD_AimTarget@@QAE@PBVioBaseChar@@MMM_N1@Z ENDP	; FD_AimTarget::FD_AimTarget
_TEXT	ENDS
PUBLIC	??1FD_AimTarget@@UAE@XZ				; FD_AimTarget::~FD_AimTarget
; Function compile flags: /Ogsp
;	COMDAT ??1FD_AimTarget@@UAE@XZ
_TEXT	SEGMENT
??1FD_AimTarget@@UAE@XZ PROC				; FD_AimTarget::~FD_AimTarget, COMDAT
; _this$ = ecx

; 57   : {

  00000	c7 01 00 00 00
	00		 mov	 DWORD PTR [ecx], OFFSET ??_7FD_AimTarget@@6B@

; 58   : }

  00006	e9 00 00 00 00	 jmp	 ??1FindPredicate@@UAE@XZ ; FindPredicate::~FindPredicate
??1FD_AimTarget@@UAE@XZ ENDP				; FD_AimTarget::~FD_AimTarget
_TEXT	ENDS
PUBLIC	??_7FD_AimTarget_Staff@@6B@			; FD_AimTarget_Staff::`vftable'
PUBLIC	??0FD_AimTarget_Staff@@QAE@PBVioBaseChar@@MMM_N@Z ; FD_AimTarget_Staff::FD_AimTarget_Staff
PUBLIC	??_R4FD_AimTarget_Staff@@6B@			; FD_AimTarget_Staff::`RTTI Complete Object Locator'
PUBLIC	??_R0?AVFD_AimTarget_Staff@@@8			; FD_AimTarget_Staff `RTTI Type Descriptor'
PUBLIC	??_R3FD_AimTarget_Staff@@8			; FD_AimTarget_Staff::`RTTI Class Hierarchy Descriptor'
PUBLIC	??_R2FD_AimTarget_Staff@@8			; FD_AimTarget_Staff::`RTTI Base Class Array'
PUBLIC	??_R1A@?0A@EA@FD_AimTarget_Staff@@8		; FD_AimTarget_Staff::`RTTI Base Class Descriptor at (0,-1,0,64)'
PUBLIC	?GetFindChar@FD_AimTarget_Staff@@UAEPAVioBaseChar@@ABV?$vector@PAVioBaseChar@@V?$allocator@PAVioBaseChar@@@std@@@std@@@Z ; FD_AimTarget_Staff::GetFindChar
EXTRN	??_EFD_AimTarget_Staff@@UAEPAXI@Z:PROC		; FD_AimTarget_Staff::`vector deleting destructor'
;	COMDAT ??_R1A@?0A@EA@FD_AimTarget_Staff@@8
rdata$r	SEGMENT
??_R1A@?0A@EA@FD_AimTarget_Staff@@8 DD FLAT:??_R0?AVFD_AimTarget_Staff@@@8 ; FD_AimTarget_Staff::`RTTI Base Class Descriptor at (0,-1,0,64)'
	DD	01H
	DD	00H
	DD	0ffffffffH
	DD	00H
	DD	040H
	DD	FLAT:??_R3FD_AimTarget_Staff@@8
rdata$r	ENDS
;	COMDAT ??_R2FD_AimTarget_Staff@@8
rdata$r	SEGMENT
??_R2FD_AimTarget_Staff@@8 DD FLAT:??_R1A@?0A@EA@FD_AimTarget_Staff@@8 ; FD_AimTarget_Staff::`RTTI Base Class Array'
	DD	FLAT:??_R1A@?0A@EA@FindPredicate@@8
rdata$r	ENDS
;	COMDAT ??_R3FD_AimTarget_Staff@@8
rdata$r	SEGMENT
??_R3FD_AimTarget_Staff@@8 DD 00H			; FD_AimTarget_Staff::`RTTI Class Hierarchy Descriptor'
	DD	00H
	DD	02H
	DD	FLAT:??_R2FD_AimTarget_Staff@@8
rdata$r	ENDS
;	COMDAT ??_R0?AVFD_AimTarget_Staff@@@8
_DATA	SEGMENT
??_R0?AVFD_AimTarget_Staff@@@8 DD FLAT:??_7type_info@@6B@ ; FD_AimTarget_Staff `RTTI Type Descriptor'
	DD	00H
	DB	'.?AVFD_AimTarget_Staff@@', 00H
_DATA	ENDS
;	COMDAT ??_R4FD_AimTarget_Staff@@6B@
rdata$r	SEGMENT
??_R4FD_AimTarget_Staff@@6B@ DD 00H			; FD_AimTarget_Staff::`RTTI Complete Object Locator'
	DD	00H
	DD	00H
	DD	FLAT:??_R0?AVFD_AimTarget_Staff@@@8
	DD	FLAT:??_R3FD_AimTarget_Staff@@8
rdata$r	ENDS
;	COMDAT ??_7FD_AimTarget_Staff@@6B@
CONST	SEGMENT
??_7FD_AimTarget_Staff@@6B@ DD FLAT:??_R4FD_AimTarget_Staff@@6B@ ; FD_AimTarget_Staff::`vftable'
	DD	FLAT:?GetFindChar@FD_AimTarget_Staff@@UAEPAVioBaseChar@@ABV?$vector@PAVioBaseChar@@V?$allocator@PAVioBaseChar@@@std@@@std@@@Z
	DD	FLAT:??_EFD_AimTarget_Staff@@UAEPAXI@Z
; Function compile flags: /Ogsp
CONST	ENDS
;	COMDAT ??0FD_AimTarget_Staff@@QAE@PBVioBaseChar@@MMM_N@Z
_TEXT	SEGMENT
_pOwner$ = 8						; size = 4
_fAngle$ = 12						; size = 4
_fMinRange$ = 16					; size = 4
_fRange$ = 20						; size = 4
_bOwnerTeam$ = 24					; size = 1
??0FD_AimTarget_Staff@@QAE@PBVioBaseChar@@MMM_N@Z PROC	; FD_AimTarget_Staff::FD_AimTarget_Staff, COMDAT
; _this$ = ecx

; 139  : {

  00000	55		 push	 ebp
  00001	8b ec		 mov	 ebp, esp
  00003	56		 push	 esi
  00004	ff 75 08	 push	 DWORD PTR _pOwner$[ebp]
  00007	8b f1		 mov	 esi, ecx
  00009	e8 00 00 00 00	 call	 ??0FindPredicate@@QAE@PBVioBaseChar@@@Z ; FindPredicate::FindPredicate

; 140  : 	m_fAimAngle = fAngle;

  0000e	f3 0f 10 45 0c	 movss	 xmm0, DWORD PTR _fAngle$[ebp]

; 141  : 	m_fAimRange = fRange;
; 142  : 	m_fMinRange = fMinRange;
; 143  : 	m_bOwnerTeam = bOwnerTeam;

  00013	8a 45 18	 mov	 al, BYTE PTR _bOwnerTeam$[ebp]
  00016	f3 0f 11 46 08	 movss	 DWORD PTR [esi+8], xmm0
  0001b	f3 0f 10 45 14	 movss	 xmm0, DWORD PTR _fRange$[ebp]
  00020	f3 0f 11 46 0c	 movss	 DWORD PTR [esi+12], xmm0
  00025	f3 0f 10 45 10	 movss	 xmm0, DWORD PTR _fMinRange$[ebp]
  0002a	88 46 14	 mov	 BYTE PTR [esi+20], al
  0002d	c7 06 00 00 00
	00		 mov	 DWORD PTR [esi], OFFSET ??_7FD_AimTarget_Staff@@6B@
  00033	f3 0f 11 46 10	 movss	 DWORD PTR [esi+16], xmm0

; 144  : }

  00038	8b c6		 mov	 eax, esi
  0003a	5e		 pop	 esi
  0003b	5d		 pop	 ebp
  0003c	c2 14 00	 ret	 20			; 00000014H
??0FD_AimTarget_Staff@@QAE@PBVioBaseChar@@MMM_N@Z ENDP	; FD_AimTarget_Staff::FD_AimTarget_Staff
_TEXT	ENDS
PUBLIC	??1FD_AimTarget_Staff@@UAE@XZ			; FD_AimTarget_Staff::~FD_AimTarget_Staff
; Function compile flags: /Ogsp
;	COMDAT ??1FD_AimTarget_Staff@@UAE@XZ
_TEXT	SEGMENT
??1FD_AimTarget_Staff@@UAE@XZ PROC			; FD_AimTarget_Staff::~FD_AimTarget_Staff, COMDAT
; _this$ = ecx

; 147  : {

  00000	c7 01 00 00 00
	00		 mov	 DWORD PTR [ecx], OFFSET ??_7FD_AimTarget_Staff@@6B@

; 148  : }

  00006	e9 00 00 00 00	 jmp	 ??1FindPredicate@@UAE@XZ ; FindPredicate::~FindPredicate
??1FD_AimTarget_Staff@@UAE@XZ ENDP			; FD_AimTarget_Staff::~FD_AimTarget_Staff
_TEXT	ENDS
PUBLIC	??_7FD_AimTarget_Bow@@6B@			; FD_AimTarget_Bow::`vftable'
PUBLIC	??0FD_AimTarget_Bow@@QAE@PBVioBaseChar@@MMM_N1@Z ; FD_AimTarget_Bow::FD_AimTarget_Bow
PUBLIC	??_R4FD_AimTarget_Bow@@6B@			; FD_AimTarget_Bow::`RTTI Complete Object Locator'
PUBLIC	??_R0?AVFD_AimTarget_Bow@@@8			; FD_AimTarget_Bow `RTTI Type Descriptor'
PUBLIC	??_R3FD_AimTarget_Bow@@8			; FD_AimTarget_Bow::`RTTI Class Hierarchy Descriptor'
PUBLIC	??_R2FD_AimTarget_Bow@@8			; FD_AimTarget_Bow::`RTTI Base Class Array'
PUBLIC	??_R1A@?0A@EA@FD_AimTarget_Bow@@8		; FD_AimTarget_Bow::`RTTI Base Class Descriptor at (0,-1,0,64)'
PUBLIC	?GetFindChar@FD_AimTarget_Bow@@UAEPAVioBaseChar@@ABV?$vector@PAVioBaseChar@@V?$allocator@PAVioBaseChar@@@std@@@std@@@Z ; FD_AimTarget_Bow::GetFindChar
EXTRN	??_EFD_AimTarget_Bow@@UAEPAXI@Z:PROC		; FD_AimTarget_Bow::`vector deleting destructor'
;	COMDAT ??_R1A@?0A@EA@FD_AimTarget_Bow@@8
rdata$r	SEGMENT
??_R1A@?0A@EA@FD_AimTarget_Bow@@8 DD FLAT:??_R0?AVFD_AimTarget_Bow@@@8 ; FD_AimTarget_Bow::`RTTI Base Class Descriptor at (0,-1,0,64)'
	DD	01H
	DD	00H
	DD	0ffffffffH
	DD	00H
	DD	040H
	DD	FLAT:??_R3FD_AimTarget_Bow@@8
rdata$r	ENDS
;	COMDAT ??_R2FD_AimTarget_Bow@@8
rdata$r	SEGMENT
??_R2FD_AimTarget_Bow@@8 DD FLAT:??_R1A@?0A@EA@FD_AimTarget_Bow@@8 ; FD_AimTarget_Bow::`RTTI Base Class Array'
	DD	FLAT:??_R1A@?0A@EA@FindPredicate@@8
rdata$r	ENDS
;	COMDAT ??_R3FD_AimTarget_Bow@@8
rdata$r	SEGMENT
??_R3FD_AimTarget_Bow@@8 DD 00H				; FD_AimTarget_Bow::`RTTI Class Hierarchy Descriptor'
	DD	00H
	DD	02H
	DD	FLAT:??_R2FD_AimTarget_Bow@@8
rdata$r	ENDS
;	COMDAT ??_R0?AVFD_AimTarget_Bow@@@8
_DATA	SEGMENT
??_R0?AVFD_AimTarget_Bow@@@8 DD FLAT:??_7type_info@@6B@	; FD_AimTarget_Bow `RTTI Type Descriptor'
	DD	00H
	DB	'.?AVFD_AimTarget_Bow@@', 00H
_DATA	ENDS
;	COMDAT ??_R4FD_AimTarget_Bow@@6B@
rdata$r	SEGMENT
??_R4FD_AimTarget_Bow@@6B@ DD 00H			; FD_AimTarget_Bow::`RTTI Complete Object Locator'
	DD	00H
	DD	00H
	DD	FLAT:??_R0?AVFD_AimTarget_Bow@@@8
	DD	FLAT:??_R3FD_AimTarget_Bow@@8
rdata$r	ENDS
;	COMDAT ??_7FD_AimTarget_Bow@@6B@
CONST	SEGMENT
??_7FD_AimTarget_Bow@@6B@ DD FLAT:??_R4FD_AimTarget_Bow@@6B@ ; FD_AimTarget_Bow::`vftable'
	DD	FLAT:?GetFindChar@FD_AimTarget_Bow@@UAEPAVioBaseChar@@ABV?$vector@PAVioBaseChar@@V?$allocator@PAVioBaseChar@@@std@@@std@@@Z
	DD	FLAT:??_EFD_AimTarget_Bow@@UAEPAXI@Z
; Function compile flags: /Ogsp
CONST	ENDS
;	COMDAT ??0FD_AimTarget_Bow@@QAE@PBVioBaseChar@@MMM_N1@Z
_TEXT	SEGMENT
_pOwner$ = 8						; size = 4
_fAngle$ = 12						; size = 4
_fMinRange$ = 16					; size = 4
_fRange$ = 20						; size = 4
_bDownAim$ = 24						; size = 1
_bOwnerTeam$ = 28					; size = 1
??0FD_AimTarget_Bow@@QAE@PBVioBaseChar@@MMM_N1@Z PROC	; FD_AimTarget_Bow::FD_AimTarget_Bow, COMDAT
; _this$ = ecx

; 218  : {

  00000	55		 push	 ebp
  00001	8b ec		 mov	 ebp, esp
  00003	56		 push	 esi
  00004	ff 75 08	 push	 DWORD PTR _pOwner$[ebp]
  00007	8b f1		 mov	 esi, ecx
  00009	e8 00 00 00 00	 call	 ??0FindPredicate@@QAE@PBVioBaseChar@@@Z ; FindPredicate::FindPredicate

; 219  : 	m_fAimAngle = fAngle;
; 220  : 	m_fAimRange = fRange;
; 221  : 	m_fMinRange = fMinRange;
; 222  : 	m_bOwnerTeam = bOwnerTeam;

  0000e	8a 45 1c	 mov	 al, BYTE PTR _bOwnerTeam$[ebp]
  00011	f3 0f 10 45 0c	 movss	 xmm0, DWORD PTR _fAngle$[ebp]
  00016	f3 0f 11 46 08	 movss	 DWORD PTR [esi+8], xmm0
  0001b	f3 0f 10 45 14	 movss	 xmm0, DWORD PTR _fRange$[ebp]
  00020	88 46 14	 mov	 BYTE PTR [esi+20], al

; 223  : 	m_bDownAim = bDownAim;

  00023	8a 45 18	 mov	 al, BYTE PTR _bDownAim$[ebp]
  00026	f3 0f 11 46 0c	 movss	 DWORD PTR [esi+12], xmm0
  0002b	f3 0f 10 45 10	 movss	 xmm0, DWORD PTR _fMinRange$[ebp]
  00030	88 46 15	 mov	 BYTE PTR [esi+21], al
  00033	c7 06 00 00 00
	00		 mov	 DWORD PTR [esi], OFFSET ??_7FD_AimTarget_Bow@@6B@
  00039	f3 0f 11 46 10	 movss	 DWORD PTR [esi+16], xmm0

; 224  : }

  0003e	8b c6		 mov	 eax, esi
  00040	5e		 pop	 esi
  00041	5d		 pop	 ebp
  00042	c2 18 00	 ret	 24			; 00000018H
??0FD_AimTarget_Bow@@QAE@PBVioBaseChar@@MMM_N1@Z ENDP	; FD_AimTarget_Bow::FD_AimTarget_Bow
_TEXT	ENDS
PUBLIC	??1FD_AimTarget_Bow@@UAE@XZ			; FD_AimTarget_Bow::~FD_AimTarget_Bow
; Function compile flags: /Ogsp
;	COMDAT ??1FD_AimTarget_Bow@@UAE@XZ
_TEXT	SEGMENT
??1FD_AimTarget_Bow@@UAE@XZ PROC			; FD_AimTarget_Bow::~FD_AimTarget_Bow, COMDAT
; _this$ = ecx

; 227  : {

  00000	c7 01 00 00 00
	00		 mov	 DWORD PTR [ecx], OFFSET ??_7FD_AimTarget_Bow@@6B@

; 228  : }

  00006	e9 00 00 00 00	 jmp	 ??1FindPredicate@@UAE@XZ ; FindPredicate::~FindPredicate
??1FD_AimTarget_Bow@@UAE@XZ ENDP			; FD_AimTarget_Bow::~FD_AimTarget_Bow
_TEXT	ENDS
PUBLIC	??0SightTargetSort@FD_SightTarget@@QAE@W4TeamType@@@Z ; FD_SightTarget::SightTargetSort::SightTargetSort
; Function compile flags: /Ogsp
;	COMDAT ??0SightTargetSort@FD_SightTarget@@QAE@W4TeamType@@@Z
_TEXT	SEGMENT
_eOwnerTeam$ = 8					; size = 4
??0SightTargetSort@FD_SightTarget@@QAE@W4TeamType@@@Z PROC ; FD_SightTarget::SightTargetSort::SightTargetSort, COMDAT
; _this$ = ecx

; 297  : {

  00000	55		 push	 ebp
  00001	8b ec		 mov	 ebp, esp
  00003	8b c1		 mov	 eax, ecx

; 298  : 	m_OwnerTeam = eOwnerTeam;

  00005	8b 4d 08	 mov	 ecx, DWORD PTR _eOwnerTeam$[ebp]
  00008	89 08		 mov	 DWORD PTR [eax], ecx

; 299  : }

  0000a	5d		 pop	 ebp
  0000b	c2 04 00	 ret	 4
??0SightTargetSort@FD_SightTarget@@QAE@W4TeamType@@@Z ENDP ; FD_SightTarget::SightTargetSort::SightTargetSort
_TEXT	ENDS
PUBLIC	??_7FD_SightTarget@@6B@				; FD_SightTarget::`vftable'
PUBLIC	??0FD_SightTarget@@QAE@PBVioBaseChar@@MM@Z	; FD_SightTarget::FD_SightTarget
PUBLIC	??_R4FD_SightTarget@@6B@			; FD_SightTarget::`RTTI Complete Object Locator'
PUBLIC	??_R0?AVFD_SightTarget@@@8			; FD_SightTarget `RTTI Type Descriptor'
PUBLIC	??_R3FD_SightTarget@@8				; FD_SightTarget::`RTTI Class Hierarchy Descriptor'
PUBLIC	??_R2FD_SightTarget@@8				; FD_SightTarget::`RTTI Base Class Array'
PUBLIC	??_R1A@?0A@EA@FD_SightTarget@@8			; FD_SightTarget::`RTTI Base Class Descriptor at (0,-1,0,64)'
PUBLIC	?GetFindChar@FD_SightTarget@@UAEPAVioBaseChar@@ABV?$vector@PAVioBaseChar@@V?$allocator@PAVioBaseChar@@@std@@@std@@@Z ; FD_SightTarget::GetFindChar
EXTRN	??_EFD_SightTarget@@UAEPAXI@Z:PROC		; FD_SightTarget::`vector deleting destructor'
;	COMDAT ??_R1A@?0A@EA@FD_SightTarget@@8
rdata$r	SEGMENT
??_R1A@?0A@EA@FD_SightTarget@@8 DD FLAT:??_R0?AVFD_SightTarget@@@8 ; FD_SightTarget::`RTTI Base Class Descriptor at (0,-1,0,64)'
	DD	01H
	DD	00H
	DD	0ffffffffH
	DD	00H
	DD	040H
	DD	FLAT:??_R3FD_SightTarget@@8
rdata$r	ENDS
;	COMDAT ??_R2FD_SightTarget@@8
rdata$r	SEGMENT
??_R2FD_SightTarget@@8 DD FLAT:??_R1A@?0A@EA@FD_SightTarget@@8 ; FD_SightTarget::`RTTI Base Class Array'
	DD	FLAT:??_R1A@?0A@EA@FindPredicate@@8
rdata$r	ENDS
;	COMDAT ??_R3FD_SightTarget@@8
rdata$r	SEGMENT
??_R3FD_SightTarget@@8 DD 00H				; FD_SightTarget::`RTTI Class Hierarchy Descriptor'
	DD	00H
	DD	02H
	DD	FLAT:??_R2FD_SightTarget@@8
rdata$r	ENDS
;	COMDAT ??_R0?AVFD_SightTarget@@@8
_DATA	SEGMENT
??_R0?AVFD_SightTarget@@@8 DD FLAT:??_7type_info@@6B@	; FD_SightTarget `RTTI Type Descriptor'
	DD	00H
	DB	'.?AVFD_SightTarget@@', 00H
_DATA	ENDS
;	COMDAT ??_R4FD_SightTarget@@6B@
rdata$r	SEGMENT
??_R4FD_SightTarget@@6B@ DD 00H				; FD_SightTarget::`RTTI Complete Object Locator'
	DD	00H
	DD	00H
	DD	FLAT:??_R0?AVFD_SightTarget@@@8
	DD	FLAT:??_R3FD_SightTarget@@8
rdata$r	ENDS
;	COMDAT ??_7FD_SightTarget@@6B@
CONST	SEGMENT
??_7FD_SightTarget@@6B@ DD FLAT:??_R4FD_SightTarget@@6B@ ; FD_SightTarget::`vftable'
	DD	FLAT:?GetFindChar@FD_SightTarget@@UAEPAVioBaseChar@@ABV?$vector@PAVioBaseChar@@V?$allocator@PAVioBaseChar@@@std@@@std@@@Z
	DD	FLAT:??_EFD_SightTarget@@UAEPAXI@Z
; Function compile flags: /Ogsp
CONST	ENDS
;	COMDAT ??0FD_SightTarget@@QAE@PBVioBaseChar@@MM@Z
_TEXT	SEGMENT
_pOwner$ = 8						; size = 4
_fAngle$ = 12						; size = 4
_fRange$ = 16						; size = 4
??0FD_SightTarget@@QAE@PBVioBaseChar@@MM@Z PROC		; FD_SightTarget::FD_SightTarget, COMDAT
; _this$ = ecx

; 325  : {

  00000	55		 push	 ebp
  00001	8b ec		 mov	 ebp, esp
  00003	56		 push	 esi
  00004	ff 75 08	 push	 DWORD PTR _pOwner$[ebp]
  00007	8b f1		 mov	 esi, ecx
  00009	e8 00 00 00 00	 call	 ??0FindPredicate@@QAE@PBVioBaseChar@@@Z ; FindPredicate::FindPredicate

; 326  : 	m_fSightAngle = fAngle;

  0000e	f3 0f 10 45 0c	 movss	 xmm0, DWORD PTR _fAngle$[ebp]
  00013	f3 0f 11 46 08	 movss	 DWORD PTR [esi+8], xmm0

; 327  : 	m_fSightRange = fRange;

  00018	f3 0f 10 45 10	 movss	 xmm0, DWORD PTR _fRange$[ebp]
  0001d	c7 06 00 00 00
	00		 mov	 DWORD PTR [esi], OFFSET ??_7FD_SightTarget@@6B@
  00023	f3 0f 11 46 0c	 movss	 DWORD PTR [esi+12], xmm0

; 328  : }

  00028	8b c6		 mov	 eax, esi
  0002a	5e		 pop	 esi
  0002b	5d		 pop	 ebp
  0002c	c2 0c 00	 ret	 12			; 0000000cH
??0FD_SightTarget@@QAE@PBVioBaseChar@@MM@Z ENDP		; FD_SightTarget::FD_SightTarget
_TEXT	ENDS
PUBLIC	??1FD_SightTarget@@UAE@XZ			; FD_SightTarget::~FD_SightTarget
; Function compile flags: /Ogsp
;	COMDAT ??1FD_SightTarget@@UAE@XZ
_TEXT	SEGMENT
??1FD_SightTarget@@UAE@XZ PROC				; FD_SightTarget::~FD_SightTarget, COMDAT
; _this$ = ecx

; 331  : {

  00000	c7 01 00 00 00
	00		 mov	 DWORD PTR [ecx], OFFSET ??_7FD_SightTarget@@6B@

; 332  : }

  00006	e9 00 00 00 00	 jmp	 ??1FindPredicate@@UAE@XZ ; FindPredicate::~FindPredicate
??1FD_SightTarget@@UAE@XZ ENDP				; FD_SightTarget::~FD_SightTarget
_TEXT	ENDS
PUBLIC	??_7FD_AutoTarget@@6B@				; FD_AutoTarget::`vftable'
PUBLIC	??0FD_AutoTarget@@QAE@PBVioBaseChar@@MMM@Z	; FD_AutoTarget::FD_AutoTarget
PUBLIC	??_R4FD_AutoTarget@@6B@				; FD_AutoTarget::`RTTI Complete Object Locator'
PUBLIC	??_R0?AVFD_AutoTarget@@@8			; FD_AutoTarget `RTTI Type Descriptor'
PUBLIC	??_R3FD_AutoTarget@@8				; FD_AutoTarget::`RTTI Class Hierarchy Descriptor'
PUBLIC	??_R2FD_AutoTarget@@8				; FD_AutoTarget::`RTTI Base Class Array'
PUBLIC	??_R1A@?0A@EA@FD_AutoTarget@@8			; FD_AutoTarget::`RTTI Base Class Descriptor at (0,-1,0,64)'
PUBLIC	?GetFindChar@FD_AutoTarget@@UAEPAVioBaseChar@@ABV?$vector@PAVioBaseChar@@V?$allocator@PAVioBaseChar@@@std@@@std@@@Z ; FD_AutoTarget::GetFindChar
EXTRN	??_EFD_AutoTarget@@UAEPAXI@Z:PROC		; FD_AutoTarget::`vector deleting destructor'
;	COMDAT ??_R1A@?0A@EA@FD_AutoTarget@@8
rdata$r	SEGMENT
??_R1A@?0A@EA@FD_AutoTarget@@8 DD FLAT:??_R0?AVFD_AutoTarget@@@8 ; FD_AutoTarget::`RTTI Base Class Descriptor at (0,-1,0,64)'
	DD	01H
	DD	00H
	DD	0ffffffffH
	DD	00H
	DD	040H
	DD	FLAT:??_R3FD_AutoTarget@@8
rdata$r	ENDS
;	COMDAT ??_R2FD_AutoTarget@@8
rdata$r	SEGMENT
??_R2FD_AutoTarget@@8 DD FLAT:??_R1A@?0A@EA@FD_AutoTarget@@8 ; FD_AutoTarget::`RTTI Base Class Array'
	DD	FLAT:??_R1A@?0A@EA@FindPredicate@@8
rdata$r	ENDS
;	COMDAT ??_R3FD_AutoTarget@@8
rdata$r	SEGMENT
??_R3FD_AutoTarget@@8 DD 00H				; FD_AutoTarget::`RTTI Class Hierarchy Descriptor'
	DD	00H
	DD	02H
	DD	FLAT:??_R2FD_AutoTarget@@8
rdata$r	ENDS
;	COMDAT ??_R0?AVFD_AutoTarget@@@8
_DATA	SEGMENT
??_R0?AVFD_AutoTarget@@@8 DD FLAT:??_7type_info@@6B@	; FD_AutoTarget `RTTI Type Descriptor'
	DD	00H
	DB	'.?AVFD_AutoTarget@@', 00H
_DATA	ENDS
;	COMDAT ??_R4FD_AutoTarget@@6B@
rdata$r	SEGMENT
??_R4FD_AutoTarget@@6B@ DD 00H				; FD_AutoTarget::`RTTI Complete Object Locator'
	DD	00H
	DD	00H
	DD	FLAT:??_R0?AVFD_AutoTarget@@@8
	DD	FLAT:??_R3FD_AutoTarget@@8
rdata$r	ENDS
;	COMDAT ??_7FD_AutoTarget@@6B@
CONST	SEGMENT
??_7FD_AutoTarget@@6B@ DD FLAT:??_R4FD_AutoTarget@@6B@	; FD_AutoTarget::`vftable'
	DD	FLAT:?GetFindChar@FD_AutoTarget@@UAEPAVioBaseChar@@ABV?$vector@PAVioBaseChar@@V?$allocator@PAVioBaseChar@@@std@@@std@@@Z
	DD	FLAT:??_EFD_AutoTarget@@UAEPAXI@Z
; Function compile flags: /Ogsp
CONST	ENDS
;	COMDAT ??0FD_AutoTarget@@QAE@PBVioBaseChar@@MMM@Z
_TEXT	SEGMENT
_pOwner$ = 8						; size = 4
_fMinAngle$ = 12					; size = 4
_fMaxAngle$ = 16					; size = 4
_fRange$ = 20						; size = 4
??0FD_AutoTarget@@QAE@PBVioBaseChar@@MMM@Z PROC		; FD_AutoTarget::FD_AutoTarget, COMDAT
; _this$ = ecx

; 398  : {

  00000	55		 push	 ebp
  00001	8b ec		 mov	 ebp, esp
  00003	56		 push	 esi
  00004	ff 75 08	 push	 DWORD PTR _pOwner$[ebp]
  00007	8b f1		 mov	 esi, ecx
  00009	e8 00 00 00 00	 call	 ??0FindPredicate@@QAE@PBVioBaseChar@@@Z ; FindPredicate::FindPredicate

; 399  : 	m_fMinAngle = fMinAngle;

  0000e	f3 0f 10 45 0c	 movss	 xmm0, DWORD PTR _fMinAngle$[ebp]
  00013	f3 0f 11 46 08	 movss	 DWORD PTR [esi+8], xmm0

; 400  : 	m_fMaxAngle = fMaxAngle;

  00018	f3 0f 10 45 10	 movss	 xmm0, DWORD PTR _fMaxAngle$[ebp]
  0001d	f3 0f 11 46 0c	 movss	 DWORD PTR [esi+12], xmm0

; 401  : 	m_fRangeSq = fRange * fRange;

  00022	f3 0f 10 45 14	 movss	 xmm0, DWORD PTR _fRange$[ebp]
  00027	0f 5a c0	 cvtps2pd xmm0, xmm0
  0002a	f2 0f 59 c0	 mulsd	 xmm0, xmm0
  0002e	66 0f 5a c0	 cvtpd2ps xmm0, xmm0
  00032	c7 06 00 00 00
	00		 mov	 DWORD PTR [esi], OFFSET ??_7FD_AutoTarget@@6B@
  00038	f3 0f 11 46 10	 movss	 DWORD PTR [esi+16], xmm0

; 402  : }

  0003d	8b c6		 mov	 eax, esi
  0003f	5e		 pop	 esi
  00040	5d		 pop	 ebp
  00041	c2 10 00	 ret	 16			; 00000010H
??0FD_AutoTarget@@QAE@PBVioBaseChar@@MMM@Z ENDP		; FD_AutoTarget::FD_AutoTarget
_TEXT	ENDS
PUBLIC	??1FD_AutoTarget@@UAE@XZ			; FD_AutoTarget::~FD_AutoTarget
; Function compile flags: /Ogsp
;	COMDAT ??1FD_AutoTarget@@UAE@XZ
_TEXT	SEGMENT
??1FD_AutoTarget@@UAE@XZ PROC				; FD_AutoTarget::~FD_AutoTarget, COMDAT
; _this$ = ecx

; 405  : {

  00000	c7 01 00 00 00
	00		 mov	 DWORD PTR [ecx], OFFSET ??_7FD_AutoTarget@@6B@

; 406  : }

  00006	e9 00 00 00 00	 jmp	 ??1FindPredicate@@UAE@XZ ; FindPredicate::~FindPredicate
??1FD_AutoTarget@@UAE@XZ ENDP				; FD_AutoTarget::~FD_AutoTarget
_TEXT	ENDS
PUBLIC	__real@4f800000
PUBLIC	??_7FD_CloseChainTarget@@6B@			; FD_CloseChainTarget::`vftable'
PUBLIC	??0FD_CloseChainTarget@@QAE@PBVioBaseChar@@PAVioWeapon@@MM@Z ; FD_CloseChainTarget::FD_CloseChainTarget
PUBLIC	??_R4FD_CloseChainTarget@@6B@			; FD_CloseChainTarget::`RTTI Complete Object Locator'
PUBLIC	??_R0?AVFD_CloseChainTarget@@@8			; FD_CloseChainTarget `RTTI Type Descriptor'
PUBLIC	??_R3FD_CloseChainTarget@@8			; FD_CloseChainTarget::`RTTI Class Hierarchy Descriptor'
PUBLIC	??_R2FD_CloseChainTarget@@8			; FD_CloseChainTarget::`RTTI Base Class Array'
PUBLIC	??_R1A@?0A@EA@FD_CloseChainTarget@@8		; FD_CloseChainTarget::`RTTI Base Class Descriptor at (0,-1,0,64)'
PUBLIC	?GetFindChar@FD_CloseChainTarget@@UAEPAVioBaseChar@@ABV?$vector@PAVioBaseChar@@V?$allocator@PAVioBaseChar@@@std@@@std@@@Z ; FD_CloseChainTarget::GetFindChar
EXTRN	??_EFD_CloseChainTarget@@UAEPAXI@Z:PROC		; FD_CloseChainTarget::`vector deleting destructor'
;	COMDAT ??_R1A@?0A@EA@FD_CloseChainTarget@@8
; File d:\lost saga for developer\youtube\tutorial\source\src\lsclient\stdafx.h
rdata$r	SEGMENT
??_R1A@?0A@EA@FD_CloseChainTarget@@8 DD FLAT:??_R0?AVFD_CloseChainTarget@@@8 ; FD_CloseChainTarget::`RTTI Base Class Descriptor at (0,-1,0,64)'
	DD	01H
	DD	00H
	DD	0ffffffffH
	DD	00H
	DD	040H
	DD	FLAT:??_R3FD_CloseChainTarget@@8
rdata$r	ENDS
;	COMDAT ??_R2FD_CloseChainTarget@@8
rdata$r	SEGMENT
??_R2FD_CloseChainTarget@@8 DD FLAT:??_R1A@?0A@EA@FD_CloseChainTarget@@8 ; FD_CloseChainTarget::`RTTI Base Class Array'
	DD	FLAT:??_R1A@?0A@EA@FindPredicate@@8
rdata$r	ENDS
;	COMDAT ??_R3FD_CloseChainTarget@@8
rdata$r	SEGMENT
??_R3FD_CloseChainTarget@@8 DD 00H			; FD_CloseChainTarget::`RTTI Class Hierarchy Descriptor'
	DD	00H
	DD	02H
	DD	FLAT:??_R2FD_CloseChainTarget@@8
rdata$r	ENDS
;	COMDAT ??_R0?AVFD_CloseChainTarget@@@8
_DATA	SEGMENT
??_R0?AVFD_CloseChainTarget@@@8 DD FLAT:??_7type_info@@6B@ ; FD_CloseChainTarget `RTTI Type Descriptor'
	DD	00H
	DB	'.?AVFD_CloseChainTarget@@', 00H
_DATA	ENDS
;	COMDAT ??_R4FD_CloseChainTarget@@6B@
rdata$r	SEGMENT
??_R4FD_CloseChainTarget@@6B@ DD 00H			; FD_CloseChainTarget::`RTTI Complete Object Locator'
	DD	00H
	DD	00H
	DD	FLAT:??_R0?AVFD_CloseChainTarget@@@8
	DD	FLAT:??_R3FD_CloseChainTarget@@8
rdata$r	ENDS
;	COMDAT __real@4f800000
CONST	SEGMENT
__real@4f800000 DD 04f800000r			; 4.29497e+009
CONST	ENDS
;	COMDAT ??_7FD_CloseChainTarget@@6B@
CONST	SEGMENT
??_7FD_CloseChainTarget@@6B@ DD FLAT:??_R4FD_CloseChainTarget@@6B@ ; FD_CloseChainTarget::`vftable'
	DD	FLAT:?GetFindChar@FD_CloseChainTarget@@UAEPAVioBaseChar@@ABV?$vector@PAVioBaseChar@@V?$allocator@PAVioBaseChar@@@std@@@std@@@Z
	DD	FLAT:??_EFD_CloseChainTarget@@UAEPAXI@Z
; Function compile flags: /Ogsp
; File d:\lost saga for developer\youtube\tutorial\source\src\lsclient\findpredicateimpl.cpp
CONST	ENDS
;	COMDAT ??0FD_CloseChainTarget@@QAE@PBVioBaseChar@@PAVioWeapon@@MM@Z
_TEXT	SEGMENT
tv170 = 8						; size = 4
tv166 = 8						; size = 4
tv162 = 8						; size = 4
_pOwner$ = 8						; size = 4
_pWeapon$ = 12						; size = 4
_fRange$ = 16						; size = 4
_fAngle$ = 20						; size = 4
??0FD_CloseChainTarget@@QAE@PBVioBaseChar@@PAVioWeapon@@MM@Z PROC ; FD_CloseChainTarget::FD_CloseChainTarget, COMDAT
; _this$ = ecx

; 471  : {

  00000	55		 push	 ebp
  00001	8b ec		 mov	 ebp, esp
  00003	56		 push	 esi
  00004	ff 75 08	 push	 DWORD PTR _pOwner$[ebp]
  00007	8b f1		 mov	 esi, ecx
  00009	e8 00 00 00 00	 call	 ??0FindPredicate@@QAE@PBVioBaseChar@@@Z ; FindPredicate::FindPredicate

; 472  : 	m_fRangeSq = fRange * fRange;

  0000e	f3 0f 10 45 10	 movss	 xmm0, DWORD PTR _fRange$[ebp]
  00013	0f 5a c0	 cvtps2pd xmm0, xmm0
  00016	f2 0f 59 c0	 mulsd	 xmm0, xmm0
  0001a	66 0f 5a c0	 cvtpd2ps xmm0, xmm0
  0001e	c7 06 00 00 00
	00		 mov	 DWORD PTR [esi], OFFSET ??_7FD_CloseChainTarget@@6B@
  00024	f3 0f 11 46 08	 movss	 DWORD PTR [esi+8], xmm0

; 473  : 	// /2.0f 를 * FLOAT05로 변경
; 474  : 	m_fHalfAngle = fAngle * FLOAT05;

  00029	b8 05 00 00 00	 mov	 eax, 5
  0002e	8b c8		 mov	 ecx, eax
  00030	b8 0a 00 00 00	 mov	 eax, 10			; 0000000aH
  00035	89 4d 08	 mov	 DWORD PTR tv170[ebp], ecx
  00038	db 45 08	 fild	 DWORD PTR tv170[ebp]
  0003b	85 c9		 test	 ecx, ecx
  0003d	79 06		 jns	 SHORT $LN8@FD_CloseCh
  0003f	d8 05 00 00 00
	00		 fadd	 DWORD PTR __real@4f800000
$LN8@FD_CloseCh:
  00045	89 45 08	 mov	 DWORD PTR tv166[ebp], eax
  00048	db 45 08	 fild	 DWORD PTR tv166[ebp]
  0004b	85 c0		 test	 eax, eax
  0004d	79 06		 jns	 SHORT $LN9@FD_CloseCh
  0004f	d8 05 00 00 00
	00		 fadd	 DWORD PTR __real@4f800000
$LN9@FD_CloseCh:
  00055	de f9		 fdivp	 ST(1), ST(0)

; 475  : 	m_pWeapon = pWeapon;

  00057	8b 45 0c	 mov	 eax, DWORD PTR _pWeapon$[ebp]
  0005a	89 46 10	 mov	 DWORD PTR [esi+16], eax

; 476  : }

  0005d	8b c6		 mov	 eax, esi
  0005f	d9 5d 08	 fstp	 DWORD PTR tv162[ebp]
  00062	d9 45 08	 fld	 DWORD PTR tv162[ebp]
  00065	d8 4d 14	 fmul	 DWORD PTR _fAngle$[ebp]
  00068	d9 5e 0c	 fstp	 DWORD PTR [esi+12]
  0006b	5e		 pop	 esi
  0006c	5d		 pop	 ebp
  0006d	c2 10 00	 ret	 16			; 00000010H
??0FD_CloseChainTarget@@QAE@PBVioBaseChar@@PAVioWeapon@@MM@Z ENDP ; FD_CloseChainTarget::FD_CloseChainTarget
_TEXT	ENDS
PUBLIC	??1FD_CloseChainTarget@@UAE@XZ			; FD_CloseChainTarget::~FD_CloseChainTarget
; Function compile flags: /Ogsp
;	COMDAT ??1FD_CloseChainTarget@@UAE@XZ
_TEXT	SEGMENT
??1FD_CloseChainTarget@@UAE@XZ PROC			; FD_CloseChainTarget::~FD_CloseChainTarget, COMDAT
; _this$ = ecx

; 479  : {

  00000	c7 01 00 00 00
	00		 mov	 DWORD PTR [ecx], OFFSET ??_7FD_CloseChainTarget@@6B@

; 480  : }

  00006	e9 00 00 00 00	 jmp	 ??1FindPredicate@@UAE@XZ ; FindPredicate::~FindPredicate
??1FD_CloseChainTarget@@UAE@XZ ENDP			; FD_CloseChainTarget::~FD_CloseChainTarget
_TEXT	ENDS
PUBLIC	??_7FD_GrapplingAutoTarget@@6B@			; FD_GrapplingAutoTarget::`vftable'
PUBLIC	??0FD_GrapplingAutoTarget@@QAE@PBVioBaseChar@@MMM_N@Z ; FD_GrapplingAutoTarget::FD_GrapplingAutoTarget
PUBLIC	??_R4FD_GrapplingAutoTarget@@6B@		; FD_GrapplingAutoTarget::`RTTI Complete Object Locator'
PUBLIC	??_R0?AVFD_GrapplingAutoTarget@@@8		; FD_GrapplingAutoTarget `RTTI Type Descriptor'
PUBLIC	??_R3FD_GrapplingAutoTarget@@8			; FD_GrapplingAutoTarget::`RTTI Class Hierarchy Descriptor'
PUBLIC	??_R2FD_GrapplingAutoTarget@@8			; FD_GrapplingAutoTarget::`RTTI Base Class Array'
PUBLIC	??_R1A@?0A@EA@FD_GrapplingAutoTarget@@8		; FD_GrapplingAutoTarget::`RTTI Base Class Descriptor at (0,-1,0,64)'
PUBLIC	?GetFindChar@FD_GrapplingAutoTarget@@UAEPAVioBaseChar@@ABV?$vector@PAVioBaseChar@@V?$allocator@PAVioBaseChar@@@std@@@std@@@Z ; FD_GrapplingAutoTarget::GetFindChar
EXTRN	??_EFD_GrapplingAutoTarget@@UAEPAXI@Z:PROC	; FD_GrapplingAutoTarget::`vector deleting destructor'
;	COMDAT ??_R1A@?0A@EA@FD_GrapplingAutoTarget@@8
rdata$r	SEGMENT
??_R1A@?0A@EA@FD_GrapplingAutoTarget@@8 DD FLAT:??_R0?AVFD_GrapplingAutoTarget@@@8 ; FD_GrapplingAutoTarget::`RTTI Base Class Descriptor at (0,-1,0,64)'
	DD	01H
	DD	00H
	DD	0ffffffffH
	DD	00H
	DD	040H
	DD	FLAT:??_R3FD_GrapplingAutoTarget@@8
rdata$r	ENDS
;	COMDAT ??_R2FD_GrapplingAutoTarget@@8
rdata$r	SEGMENT
??_R2FD_GrapplingAutoTarget@@8 DD FLAT:??_R1A@?0A@EA@FD_GrapplingAutoTarget@@8 ; FD_GrapplingAutoTarget::`RTTI Base Class Array'
	DD	FLAT:??_R1A@?0A@EA@FindPredicate@@8
rdata$r	ENDS
;	COMDAT ??_R3FD_GrapplingAutoTarget@@8
rdata$r	SEGMENT
??_R3FD_GrapplingAutoTarget@@8 DD 00H			; FD_GrapplingAutoTarget::`RTTI Class Hierarchy Descriptor'
	DD	00H
	DD	02H
	DD	FLAT:??_R2FD_GrapplingAutoTarget@@8
rdata$r	ENDS
;	COMDAT ??_R0?AVFD_GrapplingAutoTarget@@@8
_DATA	SEGMENT
??_R0?AVFD_GrapplingAutoTarget@@@8 DD FLAT:??_7type_info@@6B@ ; FD_GrapplingAutoTarget `RTTI Type Descriptor'
	DD	00H
	DB	'.?AVFD_GrapplingAutoTarget@@', 00H
_DATA	ENDS
;	COMDAT ??_R4FD_GrapplingAutoTarget@@6B@
rdata$r	SEGMENT
??_R4FD_GrapplingAutoTarget@@6B@ DD 00H			; FD_GrapplingAutoTarget::`RTTI Complete Object Locator'
	DD	00H
	DD	00H
	DD	FLAT:??_R0?AVFD_GrapplingAutoTarget@@@8
	DD	FLAT:??_R3FD_GrapplingAutoTarget@@8
rdata$r	ENDS
;	COMDAT ??_7FD_GrapplingAutoTarget@@6B@
CONST	SEGMENT
??_7FD_GrapplingAutoTarget@@6B@ DD FLAT:??_R4FD_GrapplingAutoTarget@@6B@ ; FD_GrapplingAutoTarget::`vftable'
	DD	FLAT:?GetFindChar@FD_GrapplingAutoTarget@@UAEPAVioBaseChar@@ABV?$vector@PAVioBaseChar@@V?$allocator@PAVioBaseChar@@@std@@@std@@@Z
	DD	FLAT:??_EFD_GrapplingAutoTarget@@UAEPAXI@Z
; Function compile flags: /Ogsp
CONST	ENDS
;	COMDAT ??0FD_GrapplingAutoTarget@@QAE@PBVioBaseChar@@MMM_N@Z
_TEXT	SEGMENT
_pOwner$ = 8						; size = 4
_fMinAngle$ = 12					; size = 4
_fMaxAngle$ = 16					; size = 4
_fRange$ = 20						; size = 4
_bDownTarget$ = 24					; size = 1
??0FD_GrapplingAutoTarget@@QAE@PBVioBaseChar@@MMM_N@Z PROC ; FD_GrapplingAutoTarget::FD_GrapplingAutoTarget, COMDAT
; _this$ = ecx

; 560  : {

  00000	55		 push	 ebp
  00001	8b ec		 mov	 ebp, esp
  00003	56		 push	 esi
  00004	ff 75 08	 push	 DWORD PTR _pOwner$[ebp]
  00007	8b f1		 mov	 esi, ecx
  00009	e8 00 00 00 00	 call	 ??0FindPredicate@@QAE@PBVioBaseChar@@@Z ; FindPredicate::FindPredicate

; 561  : 	m_fMinAngle		= fMinAngle;

  0000e	f3 0f 10 45 0c	 movss	 xmm0, DWORD PTR _fMinAngle$[ebp]

; 562  : 	m_fMaxAngle		= fMaxAngle;
; 563  : 	m_fRangeSq		= fRange * fRange;
; 564  : 	m_bDownTarget	= bDownTarget;

  00013	8a 45 18	 mov	 al, BYTE PTR _bDownTarget$[ebp]
  00016	f3 0f 11 46 08	 movss	 DWORD PTR [esi+8], xmm0
  0001b	f3 0f 10 45 10	 movss	 xmm0, DWORD PTR _fMaxAngle$[ebp]
  00020	f3 0f 11 46 0c	 movss	 DWORD PTR [esi+12], xmm0
  00025	f3 0f 10 45 14	 movss	 xmm0, DWORD PTR _fRange$[ebp]
  0002a	0f 5a c0	 cvtps2pd xmm0, xmm0
  0002d	f2 0f 59 c0	 mulsd	 xmm0, xmm0
  00031	88 46 14	 mov	 BYTE PTR [esi+20], al
  00034	66 0f 5a c0	 cvtpd2ps xmm0, xmm0
  00038	c7 06 00 00 00
	00		 mov	 DWORD PTR [esi], OFFSET ??_7FD_GrapplingAutoTarget@@6B@
  0003e	f3 0f 11 46 10	 movss	 DWORD PTR [esi+16], xmm0

; 565  : }

  00043	8b c6		 mov	 eax, esi
  00045	5e		 pop	 esi
  00046	5d		 pop	 ebp
  00047	c2 14 00	 ret	 20			; 00000014H
??0FD_GrapplingAutoTarget@@QAE@PBVioBaseChar@@MMM_N@Z ENDP ; FD_GrapplingAutoTarget::FD_GrapplingAutoTarget
_TEXT	ENDS
PUBLIC	??1FD_GrapplingAutoTarget@@UAE@XZ		; FD_GrapplingAutoTarget::~FD_GrapplingAutoTarget
; Function compile flags: /Ogsp
;	COMDAT ??1FD_GrapplingAutoTarget@@UAE@XZ
_TEXT	SEGMENT
??1FD_GrapplingAutoTarget@@UAE@XZ PROC			; FD_GrapplingAutoTarget::~FD_GrapplingAutoTarget, COMDAT
; _this$ = ecx

; 568  : {

  00000	c7 01 00 00 00
	00		 mov	 DWORD PTR [ecx], OFFSET ??_7FD_GrapplingAutoTarget@@6B@

; 569  : }

  00006	e9 00 00 00 00	 jmp	 ??1FindPredicate@@UAE@XZ ; FindPredicate::~FindPredicate
??1FD_GrapplingAutoTarget@@UAE@XZ ENDP			; FD_GrapplingAutoTarget::~FD_GrapplingAutoTarget
_TEXT	ENDS
PUBLIC	??_7FD_RangeTarget@@6B@				; FD_RangeTarget::`vftable'
PUBLIC	??0FD_RangeTarget@@QAE@PBVioBaseChar@@MM_N1@Z	; FD_RangeTarget::FD_RangeTarget
PUBLIC	??_R4FD_RangeTarget@@6B@			; FD_RangeTarget::`RTTI Complete Object Locator'
PUBLIC	??_R0?AVFD_RangeTarget@@@8			; FD_RangeTarget `RTTI Type Descriptor'
PUBLIC	??_R3FD_RangeTarget@@8				; FD_RangeTarget::`RTTI Class Hierarchy Descriptor'
PUBLIC	??_R2FD_RangeTarget@@8				; FD_RangeTarget::`RTTI Base Class Array'
PUBLIC	??_R1A@?0A@EA@FD_RangeTarget@@8			; FD_RangeTarget::`RTTI Base Class Descriptor at (0,-1,0,64)'
PUBLIC	?GetFindChar@FD_RangeTarget@@UAEPAVioBaseChar@@ABV?$vector@PAVioBaseChar@@V?$allocator@PAVioBaseChar@@@std@@@std@@@Z ; FD_RangeTarget::GetFindChar
PUBLIC	?CheckFindUser@FD_RangeTarget@@UAE_NPAVioBaseChar@@@Z ; FD_RangeTarget::CheckFindUser
EXTRN	??_EFD_RangeTarget@@UAEPAXI@Z:PROC		; FD_RangeTarget::`vector deleting destructor'
;	COMDAT ??_R1A@?0A@EA@FD_RangeTarget@@8
rdata$r	SEGMENT
??_R1A@?0A@EA@FD_RangeTarget@@8 DD FLAT:??_R0?AVFD_RangeTarget@@@8 ; FD_RangeTarget::`RTTI Base Class Descriptor at (0,-1,0,64)'
	DD	01H
	DD	00H
	DD	0ffffffffH
	DD	00H
	DD	040H
	DD	FLAT:??_R3FD_RangeTarget@@8
rdata$r	ENDS
;	COMDAT ??_R2FD_RangeTarget@@8
rdata$r	SEGMENT
??_R2FD_RangeTarget@@8 DD FLAT:??_R1A@?0A@EA@FD_RangeTarget@@8 ; FD_RangeTarget::`RTTI Base Class Array'
	DD	FLAT:??_R1A@?0A@EA@FindPredicate@@8
rdata$r	ENDS
;	COMDAT ??_R3FD_RangeTarget@@8
rdata$r	SEGMENT
??_R3FD_RangeTarget@@8 DD 00H				; FD_RangeTarget::`RTTI Class Hierarchy Descriptor'
	DD	00H
	DD	02H
	DD	FLAT:??_R2FD_RangeTarget@@8
rdata$r	ENDS
;	COMDAT ??_R0?AVFD_RangeTarget@@@8
_DATA	SEGMENT
??_R0?AVFD_RangeTarget@@@8 DD FLAT:??_7type_info@@6B@	; FD_RangeTarget `RTTI Type Descriptor'
	DD	00H
	DB	'.?AVFD_RangeTarget@@', 00H
_DATA	ENDS
;	COMDAT ??_R4FD_RangeTarget@@6B@
rdata$r	SEGMENT
??_R4FD_RangeTarget@@6B@ DD 00H				; FD_RangeTarget::`RTTI Complete Object Locator'
	DD	00H
	DD	00H
	DD	FLAT:??_R0?AVFD_RangeTarget@@@8
	DD	FLAT:??_R3FD_RangeTarget@@8
rdata$r	ENDS
;	COMDAT ??_7FD_RangeTarget@@6B@
CONST	SEGMENT
??_7FD_RangeTarget@@6B@ DD FLAT:??_R4FD_RangeTarget@@6B@ ; FD_RangeTarget::`vftable'
	DD	FLAT:?GetFindChar@FD_RangeTarget@@UAEPAVioBaseChar@@ABV?$vector@PAVioBaseChar@@V?$allocator@PAVioBaseChar@@@std@@@std@@@Z
	DD	FLAT:??_EFD_RangeTarget@@UAEPAXI@Z
	DD	FLAT:?CheckFindUser@FD_RangeTarget@@UAE_NPAVioBaseChar@@@Z
; Function compile flags: /Ogsp
CONST	ENDS
;	COMDAT ??0FD_RangeTarget@@QAE@PBVioBaseChar@@MM_N1@Z
_TEXT	SEGMENT
_pOwner$ = 8						; size = 4
_fMaxRange$ = 12					; size = 4
_fMinRange$ = 16					; size = 4
_bDownAim$ = 20						; size = 1
_bOwnerTeam$ = 24					; size = 1
??0FD_RangeTarget@@QAE@PBVioBaseChar@@MM_N1@Z PROC	; FD_RangeTarget::FD_RangeTarget, COMDAT
; _this$ = ecx

; 650  : {

  00000	55		 push	 ebp
  00001	8b ec		 mov	 ebp, esp
  00003	56		 push	 esi
  00004	ff 75 08	 push	 DWORD PTR _pOwner$[ebp]
  00007	8b f1		 mov	 esi, ecx
  00009	e8 00 00 00 00	 call	 ??0FindPredicate@@QAE@PBVioBaseChar@@@Z ; FindPredicate::FindPredicate

; 651  : 	m_fMaxRange		= fMaxRange;
; 652  : 	m_fMinRange		= fMinRange;
; 653  : 	m_bOwnerTeam	= bOwnerTeam;

  0000e	8a 45 18	 mov	 al, BYTE PTR _bOwnerTeam$[ebp]
  00011	f3 0f 10 45 0c	 movss	 xmm0, DWORD PTR _fMaxRange$[ebp]
  00016	88 46 10	 mov	 BYTE PTR [esi+16], al

; 654  : 	m_bDownAim		= bDownAim;

  00019	8a 45 14	 mov	 al, BYTE PTR _bDownAim$[ebp]
  0001c	f3 0f 11 46 08	 movss	 DWORD PTR [esi+8], xmm0
  00021	f3 0f 10 45 10	 movss	 xmm0, DWORD PTR _fMinRange$[ebp]
  00026	88 46 11	 mov	 BYTE PTR [esi+17], al
  00029	c7 06 00 00 00
	00		 mov	 DWORD PTR [esi], OFFSET ??_7FD_RangeTarget@@6B@
  0002f	f3 0f 11 46 0c	 movss	 DWORD PTR [esi+12], xmm0

; 655  : }

  00034	8b c6		 mov	 eax, esi
  00036	5e		 pop	 esi
  00037	5d		 pop	 ebp
  00038	c2 14 00	 ret	 20			; 00000014H
??0FD_RangeTarget@@QAE@PBVioBaseChar@@MM_N1@Z ENDP	; FD_RangeTarget::FD_RangeTarget
_TEXT	ENDS
PUBLIC	??1FD_RangeTarget@@UAE@XZ			; FD_RangeTarget::~FD_RangeTarget
; Function compile flags: /Ogsp
;	COMDAT ??1FD_RangeTarget@@UAE@XZ
_TEXT	SEGMENT
??1FD_RangeTarget@@UAE@XZ PROC				; FD_RangeTarget::~FD_RangeTarget, COMDAT
; _this$ = ecx

; 658  : {

  00000	c7 01 00 00 00
	00		 mov	 DWORD PTR [ecx], OFFSET ??_7FD_RangeTarget@@6B@

; 659  : }

  00006	e9 00 00 00 00	 jmp	 ??1FindPredicate@@UAE@XZ ; FindPredicate::~FindPredicate
??1FD_RangeTarget@@UAE@XZ ENDP				; FD_RangeTarget::~FD_RangeTarget
; Function compile flags: /Ogsp
_TEXT	ENDS
;	COMDAT ?CheckFindUser@FD_RangeTarget@@UAE_NPAVioBaseChar@@@Z
_TEXT	SEGMENT
_pChar$ = 8						; size = 4
?CheckFindUser@FD_RangeTarget@@UAE_NPAVioBaseChar@@@Z PROC ; FD_RangeTarget::CheckFindUser, COMDAT
; _this$ = ecx

; 694  : 	return true;

  00000	b0 01		 mov	 al, 1

; 695  : }

  00002	c2 04 00	 ret	 4
?CheckFindUser@FD_RangeTarget@@UAE_NPAVioBaseChar@@@Z ENDP ; FD_RangeTarget::CheckFindUser
_TEXT	ENDS
PUBLIC	??_7FD_BuffHasTarget@@6B@			; FD_BuffHasTarget::`vftable'
PUBLIC	??0FD_BuffHasTarget@@QAE@PBVioBaseChar@@ABVioHashString@@MM_N2@Z ; FD_BuffHasTarget::FD_BuffHasTarget
PUBLIC	??_R4FD_BuffHasTarget@@6B@			; FD_BuffHasTarget::`RTTI Complete Object Locator'
PUBLIC	??_R0?AVFD_BuffHasTarget@@@8			; FD_BuffHasTarget `RTTI Type Descriptor'
PUBLIC	??_R3FD_BuffHasTarget@@8			; FD_BuffHasTarget::`RTTI Class Hierarchy Descriptor'
PUBLIC	??_R2FD_BuffHasTarget@@8			; FD_BuffHasTarget::`RTTI Base Class Array'
PUBLIC	??_R1A@?0A@EA@FD_BuffHasTarget@@8		; FD_BuffHasTarget::`RTTI Base Class Descriptor at (0,-1,0,64)'
PUBLIC	?CheckFindUser@FD_BuffHasTarget@@UAE_NPAVioBaseChar@@@Z ; FD_BuffHasTarget::CheckFindUser
EXTRN	__imp_??0ioHashString@@QAE@ABV0@@Z:PROC
EXTRN	___CxxFrameHandler3:PROC
EXTRN	@__security_check_cookie@4:PROC
EXTRN	__EH_epilog3:PROC
EXTRN	__EH_prolog3:PROC
EXTRN	??_EFD_BuffHasTarget@@UAEPAXI@Z:PROC		; FD_BuffHasTarget::`vector deleting destructor'
;	COMDAT ??_R1A@?0A@EA@FD_BuffHasTarget@@8
rdata$r	SEGMENT
??_R1A@?0A@EA@FD_BuffHasTarget@@8 DD FLAT:??_R0?AVFD_BuffHasTarget@@@8 ; FD_BuffHasTarget::`RTTI Base Class Descriptor at (0,-1,0,64)'
	DD	02H
	DD	00H
	DD	0ffffffffH
	DD	00H
	DD	040H
	DD	FLAT:??_R3FD_BuffHasTarget@@8
rdata$r	ENDS
;	COMDAT ??_R2FD_BuffHasTarget@@8
rdata$r	SEGMENT
??_R2FD_BuffHasTarget@@8 DD FLAT:??_R1A@?0A@EA@FD_BuffHasTarget@@8 ; FD_BuffHasTarget::`RTTI Base Class Array'
	DD	FLAT:??_R1A@?0A@EA@FD_RangeTarget@@8
	DD	FLAT:??_R1A@?0A@EA@FindPredicate@@8
rdata$r	ENDS
;	COMDAT ??_R3FD_BuffHasTarget@@8
rdata$r	SEGMENT
??_R3FD_BuffHasTarget@@8 DD 00H				; FD_BuffHasTarget::`RTTI Class Hierarchy Descriptor'
	DD	00H
	DD	03H
	DD	FLAT:??_R2FD_BuffHasTarget@@8
rdata$r	ENDS
;	COMDAT ??_R0?AVFD_BuffHasTarget@@@8
_DATA	SEGMENT
??_R0?AVFD_BuffHasTarget@@@8 DD FLAT:??_7type_info@@6B@	; FD_BuffHasTarget `RTTI Type Descriptor'
	DD	00H
	DB	'.?AVFD_BuffHasTarget@@', 00H
_DATA	ENDS
;	COMDAT ??_R4FD_BuffHasTarget@@6B@
rdata$r	SEGMENT
??_R4FD_BuffHasTarget@@6B@ DD 00H			; FD_BuffHasTarget::`RTTI Complete Object Locator'
	DD	00H
	DD	00H
	DD	FLAT:??_R0?AVFD_BuffHasTarget@@@8
	DD	FLAT:??_R3FD_BuffHasTarget@@8
rdata$r	ENDS
;	COMDAT ??_7FD_BuffHasTarget@@6B@
CONST	SEGMENT
??_7FD_BuffHasTarget@@6B@ DD FLAT:??_R4FD_BuffHasTarget@@6B@ ; FD_BuffHasTarget::`vftable'
	DD	FLAT:?GetFindChar@FD_RangeTarget@@UAEPAVioBaseChar@@ABV?$vector@PAVioBaseChar@@V?$allocator@PAVioBaseChar@@@std@@@std@@@Z
	DD	FLAT:??_EFD_BuffHasTarget@@UAEPAXI@Z
	DD	FLAT:?CheckFindUser@FD_BuffHasTarget@@UAE_NPAVioBaseChar@@@Z
CONST	ENDS
;	COMDAT xdata$x
xdata$x	SEGMENT
__unwindtable$??0FD_BuffHasTarget@@QAE@PBVioBaseChar@@ABVioHashString@@MM_N2@Z DD 0ffffffffH
	DD	FLAT:__unwindfunclet$??0FD_BuffHasTarget@@QAE@PBVioBaseChar@@ABVioHashString@@MM_N2@Z$0
__ehfuncinfo$??0FD_BuffHasTarget@@QAE@PBVioBaseChar@@ABVioHashString@@MM_N2@Z DD 019930522H
	DD	01H
	DD	FLAT:__unwindtable$??0FD_BuffHasTarget@@QAE@PBVioBaseChar@@ABVioHashString@@MM_N2@Z
	DD	2 DUP(00H)
	DD	2 DUP(00H)
	DD	00H
	DD	01H
; Function compile flags: /Ogsp
xdata$x	ENDS
;	COMDAT ??0FD_BuffHasTarget@@QAE@PBVioBaseChar@@ABVioHashString@@MM_N2@Z
_TEXT	SEGMENT
_this$ = -16						; size = 4
__$EHRec$ = -12						; size = 12
_pOwner$ = 8						; size = 4
_szTargetBuff$ = 12					; size = 4
_fMaxRange$ = 16					; size = 4
_fMinRange$ = 20					; size = 4
_bDownAim$ = 24						; size = 1
_bOwnerTeam$ = 28					; size = 1
??0FD_BuffHasTarget@@QAE@PBVioBaseChar@@ABVioHashString@@MM_N2@Z PROC ; FD_BuffHasTarget::FD_BuffHasTarget, COMDAT
; _this$ = ecx

; 701  : {

  00000	6a 04		 push	 4
  00002	b8 00 00 00 00	 mov	 eax, __ehhandler$??0FD_BuffHasTarget@@QAE@PBVioBaseChar@@ABVioHashString@@MM_N2@Z
  00007	e8 00 00 00 00	 call	 __EH_prolog3
  0000c	8b f1		 mov	 esi, ecx
  0000e	89 75 f0	 mov	 DWORD PTR _this$[ebp], esi
  00011	ff 75 1c	 push	 DWORD PTR _bOwnerTeam$[ebp]
  00014	f3 0f 10 45 14	 movss	 xmm0, DWORD PTR _fMinRange$[ebp]
  00019	ff 75 18	 push	 DWORD PTR _bDownAim$[ebp]
  0001c	51		 push	 ecx
  0001d	51		 push	 ecx
  0001e	f3 0f 11 44 24
	04		 movss	 DWORD PTR [esp+4], xmm0
  00024	f3 0f 10 45 10	 movss	 xmm0, DWORD PTR _fMaxRange$[ebp]
  00029	f3 0f 11 04 24	 movss	 DWORD PTR [esp], xmm0
  0002e	ff 75 08	 push	 DWORD PTR _pOwner$[ebp]
  00031	e8 00 00 00 00	 call	 ??0FD_RangeTarget@@QAE@PBVioBaseChar@@MM_N1@Z ; FD_RangeTarget::FD_RangeTarget
  00036	ff 75 0c	 push	 DWORD PTR _szTargetBuff$[ebp]
  00039	83 65 fc 00	 and	 DWORD PTR __$EHRec$[ebp+8], 0
  0003d	8d 4e 14	 lea	 ecx, DWORD PTR [esi+20]
  00040	c7 06 00 00 00
	00		 mov	 DWORD PTR [esi], OFFSET ??_7FD_BuffHasTarget@@6B@
  00046	ff 15 00 00 00
	00		 call	 DWORD PTR __imp_??0ioHashString@@QAE@ABV0@@Z

; 702  : 
; 703  : }

  0004c	8b c6		 mov	 eax, esi
  0004e	e8 00 00 00 00	 call	 __EH_epilog3
  00053	c2 18 00	 ret	 24			; 00000018H
_TEXT	ENDS
;	COMDAT text$x
text$x	SEGMENT
__unwindfunclet$??0FD_BuffHasTarget@@QAE@PBVioBaseChar@@ABVioHashString@@MM_N2@Z$0:
  00000	8b 4d f0	 mov	 ecx, DWORD PTR _this$[ebp]
  00003	e9 00 00 00 00	 jmp	 ??1FD_RangeTarget@@UAE@XZ ; FD_RangeTarget::~FD_RangeTarget
__ehhandler$??0FD_BuffHasTarget@@QAE@PBVioBaseChar@@ABVioHashString@@MM_N2@Z:
  00008	8b 54 24 08	 mov	 edx, DWORD PTR [esp+8]
  0000c	8d 42 0c	 lea	 eax, DWORD PTR [edx+12]
  0000f	8b 4a ec	 mov	 ecx, DWORD PTR [edx-20]
  00012	33 c8		 xor	 ecx, eax
  00014	e8 00 00 00 00	 call	 @__security_check_cookie@4
  00019	b8 00 00 00 00	 mov	 eax, OFFSET __ehfuncinfo$??0FD_BuffHasTarget@@QAE@PBVioBaseChar@@ABVioHashString@@MM_N2@Z
  0001e	e9 00 00 00 00	 jmp	 ___CxxFrameHandler3
text$x	ENDS
??0FD_BuffHasTarget@@QAE@PBVioBaseChar@@ABVioHashString@@MM_N2@Z ENDP ; FD_BuffHasTarget::FD_BuffHasTarget
PUBLIC	??1FD_BuffHasTarget@@UAE@XZ			; FD_BuffHasTarget::~FD_BuffHasTarget
EXTRN	__imp_??1ioHashString@@QAE@XZ:PROC
;	COMDAT xdata$x
xdata$x	SEGMENT
__unwindtable$??1FD_BuffHasTarget@@UAE@XZ DD 0ffffffffH
	DD	FLAT:__unwindfunclet$??1FD_BuffHasTarget@@UAE@XZ$0
__ehfuncinfo$??1FD_BuffHasTarget@@UAE@XZ DD 019930522H
	DD	01H
	DD	FLAT:__unwindtable$??1FD_BuffHasTarget@@UAE@XZ
	DD	2 DUP(00H)
	DD	2 DUP(00H)
	DD	00H
	DD	01H
; Function compile flags: /Ogsp
xdata$x	ENDS
;	COMDAT ??1FD_BuffHasTarget@@UAE@XZ
_TEXT	SEGMENT
_this$ = -16						; size = 4
__$EHRec$ = -12						; size = 12
??1FD_BuffHasTarget@@UAE@XZ PROC			; FD_BuffHasTarget::~FD_BuffHasTarget, COMDAT
; _this$ = ecx

; 706  : {

  00000	6a 04		 push	 4
  00002	b8 00 00 00 00	 mov	 eax, __ehhandler$??1FD_BuffHasTarget@@UAE@XZ
  00007	e8 00 00 00 00	 call	 __EH_prolog3
  0000c	8b f1		 mov	 esi, ecx
  0000e	89 75 f0	 mov	 DWORD PTR _this$[ebp], esi
  00011	c7 06 00 00 00
	00		 mov	 DWORD PTR [esi], OFFSET ??_7FD_BuffHasTarget@@6B@
  00017	83 65 fc 00	 and	 DWORD PTR __$EHRec$[ebp+8], 0

; 707  : 
; 708  : }

  0001b	8d 4e 14	 lea	 ecx, DWORD PTR [esi+20]
  0001e	ff 15 00 00 00
	00		 call	 DWORD PTR __imp_??1ioHashString@@QAE@XZ
  00024	83 4d fc ff	 or	 DWORD PTR __$EHRec$[ebp+8], -1
  00028	8b ce		 mov	 ecx, esi
  0002a	c7 06 00 00 00
	00		 mov	 DWORD PTR [esi], OFFSET ??_7FD_RangeTarget@@6B@
  00030	e8 00 00 00 00	 call	 ??1FindPredicate@@UAE@XZ ; FindPredicate::~FindPredicate
  00035	e8 00 00 00 00	 call	 __EH_epilog3
  0003a	c3		 ret	 0
_TEXT	ENDS
;	COMDAT text$x
text$x	SEGMENT
__unwindfunclet$??1FD_BuffHasTarget@@UAE@XZ$0:
  00000	8b 4d f0	 mov	 ecx, DWORD PTR _this$[ebp]
  00003	e9 00 00 00 00	 jmp	 ??1FD_RangeTarget@@UAE@XZ ; FD_RangeTarget::~FD_RangeTarget
__ehhandler$??1FD_BuffHasTarget@@UAE@XZ:
  00008	8b 54 24 08	 mov	 edx, DWORD PTR [esp+8]
  0000c	8d 42 0c	 lea	 eax, DWORD PTR [edx+12]
  0000f	8b 4a ec	 mov	 ecx, DWORD PTR [edx-20]
  00012	33 c8		 xor	 ecx, eax
  00014	e8 00 00 00 00	 call	 @__security_check_cookie@4
  00019	b8 00 00 00 00	 mov	 eax, OFFSET __ehfuncinfo$??1FD_BuffHasTarget@@UAE@XZ
  0001e	e9 00 00 00 00	 jmp	 ___CxxFrameHandler3
text$x	ENDS
??1FD_BuffHasTarget@@UAE@XZ ENDP			; FD_BuffHasTarget::~FD_BuffHasTarget
EXTRN	?HasBuff@ioBaseChar@@QBE_NABVioHashString@@@Z:PROC ; ioBaseChar::HasBuff
EXTRN	__imp_?IsEmpty@ioHashString@@QBE_NXZ:PROC
; Function compile flags: /Ogsp
;	COMDAT ?CheckFindUser@FD_BuffHasTarget@@UAE_NPAVioBaseChar@@@Z
_TEXT	SEGMENT
_pTarget$ = 8						; size = 4
?CheckFindUser@FD_BuffHasTarget@@UAE_NPAVioBaseChar@@@Z PROC ; FD_BuffHasTarget::CheckFindUser, COMDAT
; _this$ = ecx

; 711  : {

  00000	55		 push	 ebp
  00001	8b ec		 mov	 ebp, esp
  00003	56		 push	 esi

; 712  : 	if( m_szTargetBuff.IsEmpty() )

  00004	8d 71 14	 lea	 esi, DWORD PTR [ecx+20]
  00007	8b ce		 mov	 ecx, esi
  00009	ff 15 00 00 00
	00		 call	 DWORD PTR __imp_?IsEmpty@ioHashString@@QBE_NXZ
  0000f	84 c0		 test	 al, al
  00011	74 04		 je	 SHORT $LN3@CheckFindU

; 713  : 		return true;

  00013	b0 01		 mov	 al, 1
  00015	eb 16		 jmp	 SHORT $LN1@CheckFindU
$LN3@CheckFindU:

; 714  : 
; 715  : 	if( !pTarget )

  00017	8b 4d 08	 mov	 ecx, DWORD PTR _pTarget$[ebp]
  0001a	85 c9		 test	 ecx, ecx
  0001c	75 04		 jne	 SHORT $LN2@CheckFindU

; 716  : 		return false;

  0001e	32 c0		 xor	 al, al
  00020	eb 0b		 jmp	 SHORT $LN1@CheckFindU
$LN2@CheckFindU:

; 717  : 	
; 718  : 	if( !pTarget->HasBuff( m_szTargetBuff ) )

  00022	56		 push	 esi
  00023	e8 00 00 00 00	 call	 ?HasBuff@ioBaseChar@@QBE_NABVioHashString@@@Z ; ioBaseChar::HasBuff
  00028	84 c0		 test	 al, al
  0002a	0f 95 c0	 setne	 al
$LN1@CheckFindU:
  0002d	5e		 pop	 esi

; 719  : 		return false;
; 720  : 
; 721  : 	return true;
; 722  : }

  0002e	5d		 pop	 ebp
  0002f	c2 04 00	 ret	 4
?CheckFindUser@FD_BuffHasTarget@@UAE_NPAVioBaseChar@@@Z ENDP ; FD_BuffHasTarget::CheckFindUser
_TEXT	ENDS
PUBLIC	??_7FD_RangeMultipleTarget@@6B@			; FD_RangeMultipleTarget::`vftable'
PUBLIC	??0FD_RangeMultipleTarget@@QAE@PBVioBaseChar@@MMM_N11@Z ; FD_RangeMultipleTarget::FD_RangeMultipleTarget
PUBLIC	??_R4FD_RangeMultipleTarget@@6B@		; FD_RangeMultipleTarget::`RTTI Complete Object Locator'
PUBLIC	??_R0?AVFD_RangeMultipleTarget@@@8		; FD_RangeMultipleTarget `RTTI Type Descriptor'
PUBLIC	??_R3FD_RangeMultipleTarget@@8			; FD_RangeMultipleTarget::`RTTI Class Hierarchy Descriptor'
PUBLIC	??_R2FD_RangeMultipleTarget@@8			; FD_RangeMultipleTarget::`RTTI Base Class Array'
PUBLIC	??_R1A@?0A@EA@FD_RangeMultipleTarget@@8		; FD_RangeMultipleTarget::`RTTI Base Class Descriptor at (0,-1,0,64)'
PUBLIC	?CheckFindUser@FD_RangeMultipleTarget@@UAE_NPAVioBaseChar@@@Z ; FD_RangeMultipleTarget::CheckFindUser
PUBLIC	?GetFindCharList@FD_RangeMultipleTarget@@UAEXABV?$vector@PAVioBaseChar@@V?$allocator@PAVioBaseChar@@@std@@@std@@AAV23@1@Z ; FD_RangeMultipleTarget::GetFindCharList
EXTRN	??_EFD_RangeMultipleTarget@@UAEPAXI@Z:PROC	; FD_RangeMultipleTarget::`vector deleting destructor'
;	COMDAT ??_R1A@?0A@EA@FD_RangeMultipleTarget@@8
rdata$r	SEGMENT
??_R1A@?0A@EA@FD_RangeMultipleTarget@@8 DD FLAT:??_R0?AVFD_RangeMultipleTarget@@@8 ; FD_RangeMultipleTarget::`RTTI Base Class Descriptor at (0,-1,0,64)'
	DD	02H
	DD	00H
	DD	0ffffffffH
	DD	00H
	DD	040H
	DD	FLAT:??_R3FD_RangeMultipleTarget@@8
rdata$r	ENDS
;	COMDAT ??_R2FD_RangeMultipleTarget@@8
rdata$r	SEGMENT
??_R2FD_RangeMultipleTarget@@8 DD FLAT:??_R1A@?0A@EA@FD_RangeMultipleTarget@@8 ; FD_RangeMultipleTarget::`RTTI Base Class Array'
	DD	FLAT:??_R1A@?0A@EA@FD_RangeTarget@@8
	DD	FLAT:??_R1A@?0A@EA@FindPredicate@@8
rdata$r	ENDS
;	COMDAT ??_R3FD_RangeMultipleTarget@@8
rdata$r	SEGMENT
??_R3FD_RangeMultipleTarget@@8 DD 00H			; FD_RangeMultipleTarget::`RTTI Class Hierarchy Descriptor'
	DD	00H
	DD	03H
	DD	FLAT:??_R2FD_RangeMultipleTarget@@8
rdata$r	ENDS
;	COMDAT ??_R0?AVFD_RangeMultipleTarget@@@8
_DATA	SEGMENT
??_R0?AVFD_RangeMultipleTarget@@@8 DD FLAT:??_7type_info@@6B@ ; FD_RangeMultipleTarget `RTTI Type Descriptor'
	DD	00H
	DB	'.?AVFD_RangeMultipleTarget@@', 00H
_DATA	ENDS
;	COMDAT ??_R4FD_RangeMultipleTarget@@6B@
rdata$r	SEGMENT
??_R4FD_RangeMultipleTarget@@6B@ DD 00H			; FD_RangeMultipleTarget::`RTTI Complete Object Locator'
	DD	00H
	DD	00H
	DD	FLAT:??_R0?AVFD_RangeMultipleTarget@@@8
	DD	FLAT:??_R3FD_RangeMultipleTarget@@8
rdata$r	ENDS
;	COMDAT ??_7FD_RangeMultipleTarget@@6B@
CONST	SEGMENT
??_7FD_RangeMultipleTarget@@6B@ DD FLAT:??_R4FD_RangeMultipleTarget@@6B@ ; FD_RangeMultipleTarget::`vftable'
	DD	FLAT:?GetFindChar@FD_RangeTarget@@UAEPAVioBaseChar@@ABV?$vector@PAVioBaseChar@@V?$allocator@PAVioBaseChar@@@std@@@std@@@Z
	DD	FLAT:??_EFD_RangeMultipleTarget@@UAEPAXI@Z
	DD	FLAT:?CheckFindUser@FD_RangeMultipleTarget@@UAE_NPAVioBaseChar@@@Z
	DD	FLAT:?GetFindCharList@FD_RangeMultipleTarget@@UAEXABV?$vector@PAVioBaseChar@@V?$allocator@PAVioBaseChar@@@std@@@std@@AAV23@1@Z
; Function compile flags: /Ogsp
CONST	ENDS
;	COMDAT ??0FD_RangeMultipleTarget@@QAE@PBVioBaseChar@@MMM_N11@Z
_TEXT	SEGMENT
_pOwner$ = 8						; size = 4
_fMaxRange$ = 12					; size = 4
_fMinRange$ = 16					; size = 4
_fMaxAngle$ = 20					; size = 4
_bDownAim$ = 24						; size = 1
_bOwnerTeam$ = 28					; size = 1
_bHideTargetFind$ = 32					; size = 1
??0FD_RangeMultipleTarget@@QAE@PBVioBaseChar@@MMM_N11@Z PROC ; FD_RangeMultipleTarget::FD_RangeMultipleTarget, COMDAT
; _this$ = ecx

; 728  : {

  00000	55		 push	 ebp
  00001	8b ec		 mov	 ebp, esp
  00003	f3 0f 10 45 10	 movss	 xmm0, DWORD PTR _fMinRange$[ebp]
  00008	56		 push	 esi
  00009	ff 75 1c	 push	 DWORD PTR _bOwnerTeam$[ebp]
  0000c	8b f1		 mov	 esi, ecx
  0000e	ff 75 18	 push	 DWORD PTR _bDownAim$[ebp]
  00011	51		 push	 ecx
  00012	51		 push	 ecx
  00013	f3 0f 11 44 24
	04		 movss	 DWORD PTR [esp+4], xmm0
  00019	f3 0f 10 45 0c	 movss	 xmm0, DWORD PTR _fMaxRange$[ebp]
  0001e	f3 0f 11 04 24	 movss	 DWORD PTR [esp], xmm0
  00023	ff 75 08	 push	 DWORD PTR _pOwner$[ebp]
  00026	e8 00 00 00 00	 call	 ??0FD_RangeTarget@@QAE@PBVioBaseChar@@MM_N1@Z ; FD_RangeTarget::FD_RangeTarget

; 729  : 	m_bHideTargetFind = bHideTargetFind;

  0002b	8a 45 20	 mov	 al, BYTE PTR _bHideTargetFind$[ebp]
  0002e	f3 0f 10 45 14	 movss	 xmm0, DWORD PTR _fMaxAngle$[ebp]
  00033	88 46 18	 mov	 BYTE PTR [esi+24], al
  00036	c7 06 00 00 00
	00		 mov	 DWORD PTR [esi], OFFSET ??_7FD_RangeMultipleTarget@@6B@
  0003c	f3 0f 11 46 14	 movss	 DWORD PTR [esi+20], xmm0

; 730  : }

  00041	8b c6		 mov	 eax, esi
  00043	5e		 pop	 esi
  00044	5d		 pop	 ebp
  00045	c2 1c 00	 ret	 28			; 0000001cH
??0FD_RangeMultipleTarget@@QAE@PBVioBaseChar@@MMM_N11@Z ENDP ; FD_RangeMultipleTarget::FD_RangeMultipleTarget
_TEXT	ENDS
PUBLIC	??1FD_RangeMultipleTarget@@UAE@XZ		; FD_RangeMultipleTarget::~FD_RangeMultipleTarget
; Function compile flags: /Ogsp
;	COMDAT ??1FD_RangeMultipleTarget@@UAE@XZ
_TEXT	SEGMENT
??1FD_RangeMultipleTarget@@UAE@XZ PROC			; FD_RangeMultipleTarget::~FD_RangeMultipleTarget, COMDAT
; _this$ = ecx

; 734  : }

  00000	c7 01 00 00 00
	00		 mov	 DWORD PTR [ecx], OFFSET ??_7FD_RangeTarget@@6B@
  00006	e9 00 00 00 00	 jmp	 ??1FindPredicate@@UAE@XZ ; FindPredicate::~FindPredicate
??1FD_RangeMultipleTarget@@UAE@XZ ENDP			; FD_RangeMultipleTarget::~FD_RangeMultipleTarget
; Function compile flags: /Ogsp
_TEXT	ENDS
;	COMDAT ?CheckFindUser@FD_RangeMultipleTarget@@UAE_NPAVioBaseChar@@@Z
_TEXT	SEGMENT
_pChar$ = 8						; size = 4
?CheckFindUser@FD_RangeMultipleTarget@@UAE_NPAVioBaseChar@@@Z PROC ; FD_RangeMultipleTarget::CheckFindUser, COMDAT
; _this$ = ecx

; 804  : 	return true;

  00000	b0 01		 mov	 al, 1

; 805  : }

  00002	c2 04 00	 ret	 4
?CheckFindUser@FD_RangeMultipleTarget@@UAE_NPAVioBaseChar@@@Z ENDP ; FD_RangeMultipleTarget::CheckFindUser
_TEXT	ENDS
PUBLIC	??0?$_Vector_const_iterator@V?$_Vector_val@PAVioBaseChar@@V?$allocator@PAVioBaseChar@@@std@@@std@@@std@@QAE@XZ ; std::_Vector_const_iterator<std::_Vector_val<ioBaseChar *,std::allocator<ioBaseChar *> > >::_Vector_const_iterator<std::_Vector_val<ioBaseChar *,std::allocator<ioBaseChar *> > >
; Function compile flags: /Ogsp
; File c:\program files (x86)\microsoft visual studio 10.0\vc\include\vector
;	COMDAT ??0?$_Vector_const_iterator@V?$_Vector_val@PAVioBaseChar@@V?$allocator@PAVioBaseChar@@@std@@@std@@@std@@QAE@XZ
_TEXT	SEGMENT
??0?$_Vector_const_iterator@V?$_Vector_val@PAVioBaseChar@@V?$allocator@PAVioBaseChar@@@std@@@std@@@std@@QAE@XZ PROC ; std::_Vector_const_iterator<std::_Vector_val<ioBaseChar *,std::allocator<ioBaseChar *> > >::_Vector_const_iterator<std::_Vector_val<ioBaseChar *,std::allocator<ioBaseChar *> > >, COMDAT
; _this$ = ecx

; 40   : 		{	// construct with null pointer

  00000	8b c1		 mov	 eax, ecx
  00002	83 20 00	 and	 DWORD PTR [eax], 0

; 41   : 		}

  00005	c3		 ret	 0
??0?$_Vector_const_iterator@V?$_Vector_val@PAVioBaseChar@@V?$allocator@PAVioBaseChar@@@std@@@std@@@std@@QAE@XZ ENDP ; std::_Vector_const_iterator<std::_Vector_val<ioBaseChar *,std::allocator<ioBaseChar *> > >::_Vector_const_iterator<std::_Vector_val<ioBaseChar *,std::allocator<ioBaseChar *> > >
_TEXT	ENDS
PUBLIC	??D?$_Vector_const_iterator@V?$_Vector_val@PAVioBaseChar@@V?$allocator@PAVioBaseChar@@@std@@@std@@@std@@QBEABQAVioBaseChar@@XZ ; std::_Vector_const_iterator<std::_Vector_val<ioBaseChar *,std::allocator<ioBaseChar *> > >::operator*
; Function compile flags: /Ogsp
;	COMDAT ??D?$_Vector_const_iterator@V?$_Vector_val@PAVioBaseChar@@V?$allocator@PAVioBaseChar@@@std@@@std@@@std@@QBEABQAVioBaseChar@@XZ
_TEXT	SEGMENT
??D?$_Vector_const_iterator@V?$_Vector_val@PAVioBaseChar@@V?$allocator@PAVioBaseChar@@@std@@@std@@@std@@QBEABQAVioBaseChar@@XZ PROC ; std::_Vector_const_iterator<std::_Vector_val<ioBaseChar *,std::allocator<ioBaseChar *> > >::operator*, COMDAT
; _this$ = ecx

; 64   :  #if _ITERATOR_DEBUG_LEVEL == 2
; 65   : 		if (this->_Getcont() == 0
; 66   : 			|| this->_Ptr == 0
; 67   : 			|| this->_Ptr < ((_Myvec *)this->_Getcont())->_Myfirst
; 68   : 			|| ((_Myvec *)this->_Getcont())->_Mylast <= this->_Ptr)
; 69   : 			{	// report error
; 70   : 			_DEBUG_ERROR("vector iterator not dereferencable");
; 71   : 			_SCL_SECURE_OUT_OF_RANGE;
; 72   : 			}
; 73   : 
; 74   :  #elif _ITERATOR_DEBUG_LEVEL == 1
; 75   : 		_SCL_SECURE_VALIDATE(this->_Getcont() != 0);
; 76   : 		_SCL_SECURE_VALIDATE_RANGE(
; 77   : 			this->_Ptr != 0
; 78   : 			&& ((_Myvec *)this->_Getcont())->_Myfirst <= this->_Ptr
; 79   : 			&& this->_Ptr < ((_Myvec *)this->_Getcont())->_Mylast);
; 80   :  #endif /* _ITERATOR_DEBUG_LEVEL */
; 81   : 
; 82   : 		__analysis_assume(this->_Ptr != 0);
; 83   : 
; 84   : 		return (*this->_Ptr);

  00000	8b 01		 mov	 eax, DWORD PTR [ecx]

; 85   : 		}

  00002	c3		 ret	 0
??D?$_Vector_const_iterator@V?$_Vector_val@PAVioBaseChar@@V?$allocator@PAVioBaseChar@@@std@@@std@@@std@@QBEABQAVioBaseChar@@XZ ENDP ; std::_Vector_const_iterator<std::_Vector_val<ioBaseChar *,std::allocator<ioBaseChar *> > >::operator*
_TEXT	ENDS
PUBLIC	??E?$_Vector_const_iterator@V?$_Vector_val@PAVioBaseChar@@V?$allocator@PAVioBaseChar@@@std@@@std@@@std@@QAEAAV01@XZ ; std::_Vector_const_iterator<std::_Vector_val<ioBaseChar *,std::allocator<ioBaseChar *> > >::operator++
; Function compile flags: /Ogsp
;	COMDAT ??E?$_Vector_const_iterator@V?$_Vector_val@PAVioBaseChar@@V?$allocator@PAVioBaseChar@@@std@@@std@@@std@@QAEAAV01@XZ
_TEXT	SEGMENT
??E?$_Vector_const_iterator@V?$_Vector_val@PAVioBaseChar@@V?$allocator@PAVioBaseChar@@@std@@@std@@@std@@QAEAAV01@XZ PROC ; std::_Vector_const_iterator<std::_Vector_val<ioBaseChar *,std::allocator<ioBaseChar *> > >::operator++, COMDAT
; _this$ = ecx

; 93   : 		{	// preincrement

  00000	8b c1		 mov	 eax, ecx

; 94   :  #if _ITERATOR_DEBUG_LEVEL == 2
; 95   : 		if (this->_Getcont() == 0
; 96   : 			|| this->_Ptr == 0
; 97   : 			|| ((_Myvec *)this->_Getcont())->_Mylast <= this->_Ptr)
; 98   : 			{	// report error
; 99   : 			_DEBUG_ERROR("vector iterator not incrementable");
; 100  : 			_SCL_SECURE_OUT_OF_RANGE;
; 101  : 			}
; 102  : 
; 103  :  #elif _ITERATOR_DEBUG_LEVEL == 1
; 104  : 		_SCL_SECURE_VALIDATE(this->_Getcont() != 0);
; 105  : 		_SCL_SECURE_VALIDATE_RANGE(
; 106  : 			this->_Ptr != 0
; 107  : 			&& this->_Ptr < ((_Myvec *)this->_Getcont())->_Mylast);
; 108  :  #endif /* _ITERATOR_DEBUG_LEVEL */
; 109  : 
; 110  : 		++this->_Ptr;

  00002	83 00 04	 add	 DWORD PTR [eax], 4

; 111  : 		return (*this);
; 112  : 		}

  00005	c3		 ret	 0
??E?$_Vector_const_iterator@V?$_Vector_val@PAVioBaseChar@@V?$allocator@PAVioBaseChar@@@std@@@std@@@std@@QAEAAV01@XZ ENDP ; std::_Vector_const_iterator<std::_Vector_val<ioBaseChar *,std::allocator<ioBaseChar *> > >::operator++
_TEXT	ENDS
PUBLIC	?_Inside@?$vector@PAVioBaseChar@@V?$allocator@PAVioBaseChar@@@std@@@std@@IBE_NPBQAVioBaseChar@@@Z ; std::vector<ioBaseChar *,std::allocator<ioBaseChar *> >::_Inside
; Function compile flags: /Ogsp
;	COMDAT ?_Inside@?$vector@PAVioBaseChar@@V?$allocator@PAVioBaseChar@@@std@@@std@@IBE_NPBQAVioBaseChar@@@Z
_TEXT	SEGMENT
__Ptr$ = 8						; size = 4
?_Inside@?$vector@PAVioBaseChar@@V?$allocator@PAVioBaseChar@@@std@@@std@@IBE_NPBQAVioBaseChar@@@Z PROC ; std::vector<ioBaseChar *,std::allocator<ioBaseChar *> >::_Inside, COMDAT
; _this$ = ecx

; 1285 : 		{	// test if _Ptr points inside vector

  00000	55		 push	 ebp
  00001	8b ec		 mov	 ebp, esp

; 1286 : 		return (_Ptr < this->_Mylast && this->_Myfirst <= _Ptr);

  00003	8b 45 08	 mov	 eax, DWORD PTR __Ptr$[ebp]
  00006	3b 41 04	 cmp	 eax, DWORD PTR [ecx+4]
  00009	73 09		 jae	 SHORT $LN3@Inside
  0000b	39 01		 cmp	 DWORD PTR [ecx], eax
  0000d	77 05		 ja	 SHORT $LN3@Inside
  0000f	33 c0		 xor	 eax, eax
  00011	40		 inc	 eax
  00012	eb 02		 jmp	 SHORT $LN4@Inside
$LN3@Inside:
  00014	33 c0		 xor	 eax, eax
$LN4@Inside:

; 1287 : 		}

  00016	5d		 pop	 ebp
  00017	c2 04 00	 ret	 4
?_Inside@?$vector@PAVioBaseChar@@V?$allocator@PAVioBaseChar@@@std@@@std@@IBE_NPBQAVioBaseChar@@@Z ENDP ; std::vector<ioBaseChar *,std::allocator<ioBaseChar *> >::_Inside
_TEXT	ENDS
PUBLIC	?_Orphan_range@?$vector@PAVioBaseChar@@V?$allocator@PAVioBaseChar@@@std@@@std@@IBEXPAPAVioBaseChar@@0@Z ; std::vector<ioBaseChar *,std::allocator<ioBaseChar *> >::_Orphan_range
; Function compile flags: /Ogsp
;	COMDAT ?_Orphan_range@?$vector@PAVioBaseChar@@V?$allocator@PAVioBaseChar@@@std@@@std@@IBEXPAPAVioBaseChar@@0@Z
_TEXT	SEGMENT
___formal$ = 8						; size = 4
___formal$ = 12						; size = 4
?_Orphan_range@?$vector@PAVioBaseChar@@V?$allocator@PAVioBaseChar@@@std@@@std@@IBEXPAPAVioBaseChar@@0@Z PROC ; std::vector<ioBaseChar *,std::allocator<ioBaseChar *> >::_Orphan_range, COMDAT
; _this$ = ecx

; 1454 : 		}

  00000	c2 08 00	 ret	 8
?_Orphan_range@?$vector@PAVioBaseChar@@V?$allocator@PAVioBaseChar@@@std@@@std@@IBEXPAPAVioBaseChar@@0@Z ENDP ; std::vector<ioBaseChar *,std::allocator<ioBaseChar *> >::_Orphan_range
_TEXT	ENDS
PUBLIC	??0?$_Vector_const_iterator@V?$_Vector_val@UCharDistanceSq@FindPredicate@@V?$allocator@UCharDistanceSq@FindPredicate@@@std@@@std@@@std@@QAE@XZ ; std::_Vector_const_iterator<std::_Vector_val<FindPredicate::CharDistanceSq,std::allocator<FindPredicate::CharDistanceSq> > >::_Vector_const_iterator<std::_Vector_val<FindPredicate::CharDistanceSq,std::allocator<FindPredicate::CharDistanceSq> > >
; Function compile flags: /Ogsp
;	COMDAT ??0?$_Vector_const_iterator@V?$_Vector_val@UCharDistanceSq@FindPredicate@@V?$allocator@UCharDistanceSq@FindPredicate@@@std@@@std@@@std@@QAE@XZ
_TEXT	SEGMENT
??0?$_Vector_const_iterator@V?$_Vector_val@UCharDistanceSq@FindPredicate@@V?$allocator@UCharDistanceSq@FindPredicate@@@std@@@std@@@std@@QAE@XZ PROC ; std::_Vector_const_iterator<std::_Vector_val<FindPredicate::CharDistanceSq,std::allocator<FindPredicate::CharDistanceSq> > >::_Vector_const_iterator<std::_Vector_val<FindPredicate::CharDistanceSq,std::allocator<FindPredicate::CharDistanceSq> > >, COMDAT
; _this$ = ecx

; 40   : 		{	// construct with null pointer

  00000	8b c1		 mov	 eax, ecx
  00002	83 20 00	 and	 DWORD PTR [eax], 0

; 41   : 		}

  00005	c3		 ret	 0
??0?$_Vector_const_iterator@V?$_Vector_val@UCharDistanceSq@FindPredicate@@V?$allocator@UCharDistanceSq@FindPredicate@@@std@@@std@@@std@@QAE@XZ ENDP ; std::_Vector_const_iterator<std::_Vector_val<FindPredicate::CharDistanceSq,std::allocator<FindPredicate::CharDistanceSq> > >::_Vector_const_iterator<std::_Vector_val<FindPredicate::CharDistanceSq,std::allocator<FindPredicate::CharDistanceSq> > >
_TEXT	ENDS
PUBLIC	??E?$_Vector_const_iterator@V?$_Vector_val@UCharDistanceSq@FindPredicate@@V?$allocator@UCharDistanceSq@FindPredicate@@@std@@@std@@@std@@QAEAAV01@XZ ; std::_Vector_const_iterator<std::_Vector_val<FindPredicate::CharDistanceSq,std::allocator<FindPredicate::CharDistanceSq> > >::operator++
; Function compile flags: /Ogsp
;	COMDAT ??E?$_Vector_const_iterator@V?$_Vector_val@UCharDistanceSq@FindPredicate@@V?$allocator@UCharDistanceSq@FindPredicate@@@std@@@std@@@std@@QAEAAV01@XZ
_TEXT	SEGMENT
??E?$_Vector_const_iterator@V?$_Vector_val@UCharDistanceSq@FindPredicate@@V?$allocator@UCharDistanceSq@FindPredicate@@@std@@@std@@@std@@QAEAAV01@XZ PROC ; std::_Vector_const_iterator<std::_Vector_val<FindPredicate::CharDistanceSq,std::allocator<FindPredicate::CharDistanceSq> > >::operator++, COMDAT
; _this$ = ecx

; 93   : 		{	// preincrement

  00000	8b c1		 mov	 eax, ecx

; 94   :  #if _ITERATOR_DEBUG_LEVEL == 2
; 95   : 		if (this->_Getcont() == 0
; 96   : 			|| this->_Ptr == 0
; 97   : 			|| ((_Myvec *)this->_Getcont())->_Mylast <= this->_Ptr)
; 98   : 			{	// report error
; 99   : 			_DEBUG_ERROR("vector iterator not incrementable");
; 100  : 			_SCL_SECURE_OUT_OF_RANGE;
; 101  : 			}
; 102  : 
; 103  :  #elif _ITERATOR_DEBUG_LEVEL == 1
; 104  : 		_SCL_SECURE_VALIDATE(this->_Getcont() != 0);
; 105  : 		_SCL_SECURE_VALIDATE_RANGE(
; 106  : 			this->_Ptr != 0
; 107  : 			&& this->_Ptr < ((_Myvec *)this->_Getcont())->_Mylast);
; 108  :  #endif /* _ITERATOR_DEBUG_LEVEL */
; 109  : 
; 110  : 		++this->_Ptr;

  00002	83 00 08	 add	 DWORD PTR [eax], 8

; 111  : 		return (*this);
; 112  : 		}

  00005	c3		 ret	 0
??E?$_Vector_const_iterator@V?$_Vector_val@UCharDistanceSq@FindPredicate@@V?$allocator@UCharDistanceSq@FindPredicate@@@std@@@std@@@std@@QAEAAV01@XZ ENDP ; std::_Vector_const_iterator<std::_Vector_val<FindPredicate::CharDistanceSq,std::allocator<FindPredicate::CharDistanceSq> > >::operator++
_TEXT	ENDS
PUBLIC	??E?$_Vector_const_iterator@V?$_Vector_val@UCharAngle@FindPredicate@@V?$allocator@UCharAngle@FindPredicate@@@std@@@std@@@std@@QAEAAV01@XZ ; std::_Vector_const_iterator<std::_Vector_val<FindPredicate::CharAngle,std::allocator<FindPredicate::CharAngle> > >::operator++
; Function compile flags: /Ogsp
;	COMDAT ??E?$_Vector_const_iterator@V?$_Vector_val@UCharAngle@FindPredicate@@V?$allocator@UCharAngle@FindPredicate@@@std@@@std@@@std@@QAEAAV01@XZ
_TEXT	SEGMENT
??E?$_Vector_const_iterator@V?$_Vector_val@UCharAngle@FindPredicate@@V?$allocator@UCharAngle@FindPredicate@@@std@@@std@@@std@@QAEAAV01@XZ PROC ; std::_Vector_const_iterator<std::_Vector_val<FindPredicate::CharAngle,std::allocator<FindPredicate::CharAngle> > >::operator++, COMDAT
; _this$ = ecx

; 93   : 		{	// preincrement

  00000	8b c1		 mov	 eax, ecx

; 94   :  #if _ITERATOR_DEBUG_LEVEL == 2
; 95   : 		if (this->_Getcont() == 0
; 96   : 			|| this->_Ptr == 0
; 97   : 			|| ((_Myvec *)this->_Getcont())->_Mylast <= this->_Ptr)
; 98   : 			{	// report error
; 99   : 			_DEBUG_ERROR("vector iterator not incrementable");
; 100  : 			_SCL_SECURE_OUT_OF_RANGE;
; 101  : 			}
; 102  : 
; 103  :  #elif _ITERATOR_DEBUG_LEVEL == 1
; 104  : 		_SCL_SECURE_VALIDATE(this->_Getcont() != 0);
; 105  : 		_SCL_SECURE_VALIDATE_RANGE(
; 106  : 			this->_Ptr != 0
; 107  : 			&& this->_Ptr < ((_Myvec *)this->_Getcont())->_Mylast);
; 108  :  #endif /* _ITERATOR_DEBUG_LEVEL */
; 109  : 
; 110  : 		++this->_Ptr;

  00002	83 00 08	 add	 DWORD PTR [eax], 8

; 111  : 		return (*this);
; 112  : 		}

  00005	c3		 ret	 0
??E?$_Vector_const_iterator@V?$_Vector_val@UCharAngle@FindPredicate@@V?$allocator@UCharAngle@FindPredicate@@@std@@@std@@@std@@QAEAAV01@XZ ENDP ; std::_Vector_const_iterator<std::_Vector_val<FindPredicate::CharAngle,std::allocator<FindPredicate::CharAngle> > >::operator++
_TEXT	ENDS
PUBLIC	??0?$_Vector_const_iterator@V?$_Vector_val@PAVioBaseChar@@V?$allocator@PAVioBaseChar@@@std@@@std@@@std@@QAE@PAPAVioBaseChar@@PBU_Container_base0@1@@Z ; std::_Vector_const_iterator<std::_Vector_val<ioBaseChar *,std::allocator<ioBaseChar *> > >::_Vector_const_iterator<std::_Vector_val<ioBaseChar *,std::allocator<ioBaseChar *> > >
; Function compile flags: /Ogsp
;	COMDAT ??0?$_Vector_const_iterator@V?$_Vector_val@PAVioBaseChar@@V?$allocator@PAVioBaseChar@@@std@@@std@@@std@@QAE@PAPAVioBaseChar@@PBU_Container_base0@1@@Z
_TEXT	SEGMENT
__Parg$ = 8						; size = 4
__Pvector$ = 12						; size = 4
??0?$_Vector_const_iterator@V?$_Vector_val@PAVioBaseChar@@V?$allocator@PAVioBaseChar@@@std@@@std@@@std@@QAE@PAPAVioBaseChar@@PBU_Container_base0@1@@Z PROC ; std::_Vector_const_iterator<std::_Vector_val<ioBaseChar *,std::allocator<ioBaseChar *> > >::_Vector_const_iterator<std::_Vector_val<ioBaseChar *,std::allocator<ioBaseChar *> > >, COMDAT
; _this$ = ecx

; 45   : 		{	// construct with pointer _Parg

  00000	55		 push	 ebp
  00001	8b ec		 mov	 ebp, esp
  00003	8b c1		 mov	 eax, ecx
  00005	8b 4d 08	 mov	 ecx, DWORD PTR __Parg$[ebp]
  00008	89 08		 mov	 DWORD PTR [eax], ecx

; 46   : 		this->_Adopt(_Pvector);
; 47   : 		}

  0000a	5d		 pop	 ebp
  0000b	c2 08 00	 ret	 8
??0?$_Vector_const_iterator@V?$_Vector_val@PAVioBaseChar@@V?$allocator@PAVioBaseChar@@@std@@@std@@@std@@QAE@PAPAVioBaseChar@@PBU_Container_base0@1@@Z ENDP ; std::_Vector_const_iterator<std::_Vector_val<ioBaseChar *,std::allocator<ioBaseChar *> > >::_Vector_const_iterator<std::_Vector_val<ioBaseChar *,std::allocator<ioBaseChar *> > >
_TEXT	ENDS
PUBLIC	?capacity@?$vector@PAVioBaseChar@@V?$allocator@PAVioBaseChar@@@std@@@std@@QBEIXZ ; std::vector<ioBaseChar *,std::allocator<ioBaseChar *> >::capacity
; Function compile flags: /Ogsp
;	COMDAT ?capacity@?$vector@PAVioBaseChar@@V?$allocator@PAVioBaseChar@@@std@@@std@@QBEIXZ
_TEXT	SEGMENT
?capacity@?$vector@PAVioBaseChar@@V?$allocator@PAVioBaseChar@@@std@@@std@@QBEIXZ PROC ; std::vector<ioBaseChar *,std::allocator<ioBaseChar *> >::capacity, COMDAT
; _this$ = ecx

; 777  : 		return (this->_Myend - this->_Myfirst);

  00000	8b 41 08	 mov	 eax, DWORD PTR [ecx+8]
  00003	2b 01		 sub	 eax, DWORD PTR [ecx]
  00005	c1 f8 02	 sar	 eax, 2

; 778  : 		}

  00008	c3		 ret	 0
?capacity@?$vector@PAVioBaseChar@@V?$allocator@PAVioBaseChar@@@std@@@std@@QBEIXZ ENDP ; std::vector<ioBaseChar *,std::allocator<ioBaseChar *> >::capacity
_TEXT	ENDS
PUBLIC	?size@?$vector@PAVioBaseChar@@V?$allocator@PAVioBaseChar@@@std@@@std@@QBEIXZ ; std::vector<ioBaseChar *,std::allocator<ioBaseChar *> >::size
; Function compile flags: /Ogsp
;	COMDAT ?size@?$vector@PAVioBaseChar@@V?$allocator@PAVioBaseChar@@@std@@@std@@QBEIXZ
_TEXT	SEGMENT
?size@?$vector@PAVioBaseChar@@V?$allocator@PAVioBaseChar@@@std@@@std@@QBEIXZ PROC ; std::vector<ioBaseChar *,std::allocator<ioBaseChar *> >::size, COMDAT
; _this$ = ecx

; 879  : 		return (this->_Mylast - this->_Myfirst);

  00000	8b 41 04	 mov	 eax, DWORD PTR [ecx+4]
  00003	2b 01		 sub	 eax, DWORD PTR [ecx]
  00005	c1 f8 02	 sar	 eax, 2

; 880  : 		}

  00008	c3		 ret	 0
?size@?$vector@PAVioBaseChar@@V?$allocator@PAVioBaseChar@@@std@@@std@@QBEIXZ ENDP ; std::vector<ioBaseChar *,std::allocator<ioBaseChar *> >::size
_TEXT	ENDS
PUBLIC	??_C@_0BD@OLBABOEK@vector?$DMT?$DO?5too?5long?$AA@ ; `string'
PUBLIC	?_Xlen@?$vector@PAVioBaseChar@@V?$allocator@PAVioBaseChar@@@std@@@std@@IBEXXZ ; std::vector<ioBaseChar *,std::allocator<ioBaseChar *> >::_Xlen
EXTRN	__imp_?_Xlength_error@std@@YAXPBD@Z:PROC
;	COMDAT ??_C@_0BD@OLBABOEK@vector?$DMT?$DO?5too?5long?$AA@
CONST	SEGMENT
??_C@_0BD@OLBABOEK@vector?$DMT?$DO?5too?5long?$AA@ DB 'vector<T> too long'
	DB	00H						; `string'
; Function compile flags: /Ogsp
CONST	ENDS
;	COMDAT ?_Xlen@?$vector@PAVioBaseChar@@V?$allocator@PAVioBaseChar@@@std@@@std@@IBEXXZ
_TEXT	SEGMENT
?_Xlen@?$vector@PAVioBaseChar@@V?$allocator@PAVioBaseChar@@@std@@@std@@IBEXXZ PROC ; std::vector<ioBaseChar *,std::allocator<ioBaseChar *> >::_Xlen, COMDAT
; _this$ = ecx

; 1427 : 		_Xlength_error("vector<T> too long");

  00000	68 00 00 00 00	 push	 OFFSET ??_C@_0BD@OLBABOEK@vector?$DMT?$DO?5too?5long?$AA@
  00005	ff 15 00 00 00
	00		 call	 DWORD PTR __imp_?_Xlength_error@std@@YAXPBD@Z
$LN4@Xlen:
$LN3@Xlen:
  0000b	cc		 int	 3
?_Xlen@?$vector@PAVioBaseChar@@V?$allocator@PAVioBaseChar@@@std@@@std@@IBEXXZ ENDP ; std::vector<ioBaseChar *,std::allocator<ioBaseChar *> >::_Xlen
_TEXT	ENDS
PUBLIC	??0?$_Vector_const_iterator@V?$_Vector_val@UCharDistanceSq@FindPredicate@@V?$allocator@UCharDistanceSq@FindPredicate@@@std@@@std@@@std@@QAE@PAUCharDistanceSq@FindPredicate@@PBU_Container_base0@1@@Z ; std::_Vector_const_iterator<std::_Vector_val<FindPredicate::CharDistanceSq,std::allocator<FindPredicate::CharDistanceSq> > >::_Vector_const_iterator<std::_Vector_val<FindPredicate::CharDistanceSq,std::allocator<FindPredicate::CharDistanceSq> > >
; Function compile flags: /Ogsp
;	COMDAT ??0?$_Vector_const_iterator@V?$_Vector_val@UCharDistanceSq@FindPredicate@@V?$allocator@UCharDistanceSq@FindPredicate@@@std@@@std@@@std@@QAE@PAUCharDistanceSq@FindPredicate@@PBU_Container_base0@1@@Z
_TEXT	SEGMENT
__Parg$ = 8						; size = 4
__Pvector$ = 12						; size = 4
??0?$_Vector_const_iterator@V?$_Vector_val@UCharDistanceSq@FindPredicate@@V?$allocator@UCharDistanceSq@FindPredicate@@@std@@@std@@@std@@QAE@PAUCharDistanceSq@FindPredicate@@PBU_Container_base0@1@@Z PROC ; std::_Vector_const_iterator<std::_Vector_val<FindPredicate::CharDistanceSq,std::allocator<FindPredicate::CharDistanceSq> > >::_Vector_const_iterator<std::_Vector_val<FindPredicate::CharDistanceSq,std::allocator<FindPredicate::CharDistanceSq> > >, COMDAT
; _this$ = ecx

; 45   : 		{	// construct with pointer _Parg

  00000	55		 push	 ebp
  00001	8b ec		 mov	 ebp, esp
  00003	8b c1		 mov	 eax, ecx
  00005	8b 4d 08	 mov	 ecx, DWORD PTR __Parg$[ebp]
  00008	89 08		 mov	 DWORD PTR [eax], ecx

; 46   : 		this->_Adopt(_Pvector);
; 47   : 		}

  0000a	5d		 pop	 ebp
  0000b	c2 08 00	 ret	 8
??0?$_Vector_const_iterator@V?$_Vector_val@UCharDistanceSq@FindPredicate@@V?$allocator@UCharDistanceSq@FindPredicate@@@std@@@std@@@std@@QAE@PAUCharDistanceSq@FindPredicate@@PBU_Container_base0@1@@Z ENDP ; std::_Vector_const_iterator<std::_Vector_val<FindPredicate::CharDistanceSq,std::allocator<FindPredicate::CharDistanceSq> > >::_Vector_const_iterator<std::_Vector_val<FindPredicate::CharDistanceSq,std::allocator<FindPredicate::CharDistanceSq> > >
_TEXT	ENDS
PUBLIC	??D?$_Vector_const_iterator@V?$_Vector_val@UCharDistanceSq@FindPredicate@@V?$allocator@UCharDistanceSq@FindPredicate@@@std@@@std@@@std@@QBEABUCharDistanceSq@FindPredicate@@XZ ; std::_Vector_const_iterator<std::_Vector_val<FindPredicate::CharDistanceSq,std::allocator<FindPredicate::CharDistanceSq> > >::operator*
; Function compile flags: /Ogsp
;	COMDAT ??D?$_Vector_const_iterator@V?$_Vector_val@UCharDistanceSq@FindPredicate@@V?$allocator@UCharDistanceSq@FindPredicate@@@std@@@std@@@std@@QBEABUCharDistanceSq@FindPredicate@@XZ
_TEXT	SEGMENT
??D?$_Vector_const_iterator@V?$_Vector_val@UCharDistanceSq@FindPredicate@@V?$allocator@UCharDistanceSq@FindPredicate@@@std@@@std@@@std@@QBEABUCharDistanceSq@FindPredicate@@XZ PROC ; std::_Vector_const_iterator<std::_Vector_val<FindPredicate::CharDistanceSq,std::allocator<FindPredicate::CharDistanceSq> > >::operator*, COMDAT
; _this$ = ecx

; 64   :  #if _ITERATOR_DEBUG_LEVEL == 2
; 65   : 		if (this->_Getcont() == 0
; 66   : 			|| this->_Ptr == 0
; 67   : 			|| this->_Ptr < ((_Myvec *)this->_Getcont())->_Myfirst
; 68   : 			|| ((_Myvec *)this->_Getcont())->_Mylast <= this->_Ptr)
; 69   : 			{	// report error
; 70   : 			_DEBUG_ERROR("vector iterator not dereferencable");
; 71   : 			_SCL_SECURE_OUT_OF_RANGE;
; 72   : 			}
; 73   : 
; 74   :  #elif _ITERATOR_DEBUG_LEVEL == 1
; 75   : 		_SCL_SECURE_VALIDATE(this->_Getcont() != 0);
; 76   : 		_SCL_SECURE_VALIDATE_RANGE(
; 77   : 			this->_Ptr != 0
; 78   : 			&& ((_Myvec *)this->_Getcont())->_Myfirst <= this->_Ptr
; 79   : 			&& this->_Ptr < ((_Myvec *)this->_Getcont())->_Mylast);
; 80   :  #endif /* _ITERATOR_DEBUG_LEVEL */
; 81   : 
; 82   : 		__analysis_assume(this->_Ptr != 0);
; 83   : 
; 84   : 		return (*this->_Ptr);

  00000	8b 01		 mov	 eax, DWORD PTR [ecx]

; 85   : 		}

  00002	c3		 ret	 0
??D?$_Vector_const_iterator@V?$_Vector_val@UCharDistanceSq@FindPredicate@@V?$allocator@UCharDistanceSq@FindPredicate@@@std@@@std@@@std@@QBEABUCharDistanceSq@FindPredicate@@XZ ENDP ; std::_Vector_const_iterator<std::_Vector_val<FindPredicate::CharDistanceSq,std::allocator<FindPredicate::CharDistanceSq> > >::operator*
_TEXT	ENDS
PUBLIC	?_Compat@?$_Vector_const_iterator@V?$_Vector_val@UCharDistanceSq@FindPredicate@@V?$allocator@UCharDistanceSq@FindPredicate@@@std@@@std@@@std@@QBEXABV12@@Z ; std::_Vector_const_iterator<std::_Vector_val<FindPredicate::CharDistanceSq,std::allocator<FindPredicate::CharDistanceSq> > >::_Compat
; Function compile flags: /Ogsp
;	COMDAT ?_Compat@?$_Vector_const_iterator@V?$_Vector_val@UCharDistanceSq@FindPredicate@@V?$allocator@UCharDistanceSq@FindPredicate@@@std@@@std@@@std@@QBEXABV12@@Z
_TEXT	SEGMENT
___formal$ = 8						; size = 4
?_Compat@?$_Vector_const_iterator@V?$_Vector_val@UCharDistanceSq@FindPredicate@@V?$allocator@UCharDistanceSq@FindPredicate@@@std@@@std@@@std@@QBEXABV12@@Z PROC ; std::_Vector_const_iterator<std::_Vector_val<FindPredicate::CharDistanceSq,std::allocator<FindPredicate::CharDistanceSq> > >::_Compat, COMDAT
; _this$ = ecx

; 253  : 		}

  00000	c2 04 00	 ret	 4
?_Compat@?$_Vector_const_iterator@V?$_Vector_val@UCharDistanceSq@FindPredicate@@V?$allocator@UCharDistanceSq@FindPredicate@@@std@@@std@@@std@@QBEXABV12@@Z ENDP ; std::_Vector_const_iterator<std::_Vector_val<FindPredicate::CharDistanceSq,std::allocator<FindPredicate::CharDistanceSq> > >::_Compat
_TEXT	ENDS
PUBLIC	??0?$_Vector_const_iterator@V?$_Vector_val@UCharAngle@FindPredicate@@V?$allocator@UCharAngle@FindPredicate@@@std@@@std@@@std@@QAE@PAUCharAngle@FindPredicate@@PBU_Container_base0@1@@Z ; std::_Vector_const_iterator<std::_Vector_val<FindPredicate::CharAngle,std::allocator<FindPredicate::CharAngle> > >::_Vector_const_iterator<std::_Vector_val<FindPredicate::CharAngle,std::allocator<FindPredicate::CharAngle> > >
; Function compile flags: /Ogsp
;	COMDAT ??0?$_Vector_const_iterator@V?$_Vector_val@UCharAngle@FindPredicate@@V?$allocator@UCharAngle@FindPredicate@@@std@@@std@@@std@@QAE@PAUCharAngle@FindPredicate@@PBU_Container_base0@1@@Z
_TEXT	SEGMENT
__Parg$ = 8						; size = 4
__Pvector$ = 12						; size = 4
??0?$_Vector_const_iterator@V?$_Vector_val@UCharAngle@FindPredicate@@V?$allocator@UCharAngle@FindPredicate@@@std@@@std@@@std@@QAE@PAUCharAngle@FindPredicate@@PBU_Container_base0@1@@Z PROC ; std::_Vector_const_iterator<std::_Vector_val<FindPredicate::CharAngle,std::allocator<FindPredicate::CharAngle> > >::_Vector_const_iterator<std::_Vector_val<FindPredicate::CharAngle,std::allocator<FindPredicate::CharAngle> > >, COMDAT
; _this$ = ecx

; 45   : 		{	// construct with pointer _Parg

  00000	55		 push	 ebp
  00001	8b ec		 mov	 ebp, esp
  00003	8b c1		 mov	 eax, ecx
  00005	8b 4d 08	 mov	 ecx, DWORD PTR __Parg$[ebp]
  00008	89 08		 mov	 DWORD PTR [eax], ecx

; 46   : 		this->_Adopt(_Pvector);
; 47   : 		}

  0000a	5d		 pop	 ebp
  0000b	c2 08 00	 ret	 8
??0?$_Vector_const_iterator@V?$_Vector_val@UCharAngle@FindPredicate@@V?$allocator@UCharAngle@FindPredicate@@@std@@@std@@@std@@QAE@PAUCharAngle@FindPredicate@@PBU_Container_base0@1@@Z ENDP ; std::_Vector_const_iterator<std::_Vector_val<FindPredicate::CharAngle,std::allocator<FindPredicate::CharAngle> > >::_Vector_const_iterator<std::_Vector_val<FindPredicate::CharAngle,std::allocator<FindPredicate::CharAngle> > >
_TEXT	ENDS
PUBLIC	??D?$_Vector_const_iterator@V?$_Vector_val@UCharAngle@FindPredicate@@V?$allocator@UCharAngle@FindPredicate@@@std@@@std@@@std@@QBEABUCharAngle@FindPredicate@@XZ ; std::_Vector_const_iterator<std::_Vector_val<FindPredicate::CharAngle,std::allocator<FindPredicate::CharAngle> > >::operator*
; Function compile flags: /Ogsp
;	COMDAT ??D?$_Vector_const_iterator@V?$_Vector_val@UCharAngle@FindPredicate@@V?$allocator@UCharAngle@FindPredicate@@@std@@@std@@@std@@QBEABUCharAngle@FindPredicate@@XZ
_TEXT	SEGMENT
??D?$_Vector_const_iterator@V?$_Vector_val@UCharAngle@FindPredicate@@V?$allocator@UCharAngle@FindPredicate@@@std@@@std@@@std@@QBEABUCharAngle@FindPredicate@@XZ PROC ; std::_Vector_const_iterator<std::_Vector_val<FindPredicate::CharAngle,std::allocator<FindPredicate::CharAngle> > >::operator*, COMDAT
; _this$ = ecx

; 64   :  #if _ITERATOR_DEBUG_LEVEL == 2
; 65   : 		if (this->_Getcont() == 0
; 66   : 			|| this->_Ptr == 0
; 67   : 			|| this->_Ptr < ((_Myvec *)this->_Getcont())->_Myfirst
; 68   : 			|| ((_Myvec *)this->_Getcont())->_Mylast <= this->_Ptr)
; 69   : 			{	// report error
; 70   : 			_DEBUG_ERROR("vector iterator not dereferencable");
; 71   : 			_SCL_SECURE_OUT_OF_RANGE;
; 72   : 			}
; 73   : 
; 74   :  #elif _ITERATOR_DEBUG_LEVEL == 1
; 75   : 		_SCL_SECURE_VALIDATE(this->_Getcont() != 0);
; 76   : 		_SCL_SECURE_VALIDATE_RANGE(
; 77   : 			this->_Ptr != 0
; 78   : 			&& ((_Myvec *)this->_Getcont())->_Myfirst <= this->_Ptr
; 79   : 			&& this->_Ptr < ((_Myvec *)this->_Getcont())->_Mylast);
; 80   :  #endif /* _ITERATOR_DEBUG_LEVEL */
; 81   : 
; 82   : 		__analysis_assume(this->_Ptr != 0);
; 83   : 
; 84   : 		return (*this->_Ptr);

  00000	8b 01		 mov	 eax, DWORD PTR [ecx]

; 85   : 		}

  00002	c3		 ret	 0
??D?$_Vector_const_iterator@V?$_Vector_val@UCharAngle@FindPredicate@@V?$allocator@UCharAngle@FindPredicate@@@std@@@std@@@std@@QBEABUCharAngle@FindPredicate@@XZ ENDP ; std::_Vector_const_iterator<std::_Vector_val<FindPredicate::CharAngle,std::allocator<FindPredicate::CharAngle> > >::operator*
_TEXT	ENDS
PUBLIC	?_Compat@?$_Vector_const_iterator@V?$_Vector_val@UCharAngle@FindPredicate@@V?$allocator@UCharAngle@FindPredicate@@@std@@@std@@@std@@QBEXABV12@@Z ; std::_Vector_const_iterator<std::_Vector_val<FindPredicate::CharAngle,std::allocator<FindPredicate::CharAngle> > >::_Compat
; Function compile flags: /Ogsp
;	COMDAT ?_Compat@?$_Vector_const_iterator@V?$_Vector_val@UCharAngle@FindPredicate@@V?$allocator@UCharAngle@FindPredicate@@@std@@@std@@@std@@QBEXABV12@@Z
_TEXT	SEGMENT
___formal$ = 8						; size = 4
?_Compat@?$_Vector_const_iterator@V?$_Vector_val@UCharAngle@FindPredicate@@V?$allocator@UCharAngle@FindPredicate@@@std@@@std@@@std@@QBEXABV12@@Z PROC ; std::_Vector_const_iterator<std::_Vector_val<FindPredicate::CharAngle,std::allocator<FindPredicate::CharAngle> > >::_Compat, COMDAT
; _this$ = ecx

; 253  : 		}

  00000	c2 04 00	 ret	 4
?_Compat@?$_Vector_const_iterator@V?$_Vector_val@UCharAngle@FindPredicate@@V?$allocator@UCharAngle@FindPredicate@@@std@@@std@@@std@@QBEXABV12@@Z ENDP ; std::_Vector_const_iterator<std::_Vector_val<FindPredicate::CharAngle,std::allocator<FindPredicate::CharAngle> > >::_Compat
_TEXT	ENDS
PUBLIC	?_Compat@?$_Vector_const_iterator@V?$_Vector_val@PAVioBaseChar@@V?$allocator@PAVioBaseChar@@@std@@@std@@@std@@QBEXABV12@@Z ; std::_Vector_const_iterator<std::_Vector_val<ioBaseChar *,std::allocator<ioBaseChar *> > >::_Compat
; Function compile flags: /Ogsp
;	COMDAT ?_Compat@?$_Vector_const_iterator@V?$_Vector_val@PAVioBaseChar@@V?$allocator@PAVioBaseChar@@@std@@@std@@@std@@QBEXABV12@@Z
_TEXT	SEGMENT
___formal$ = 8						; size = 4
?_Compat@?$_Vector_const_iterator@V?$_Vector_val@PAVioBaseChar@@V?$allocator@PAVioBaseChar@@@std@@@std@@@std@@QBEXABV12@@Z PROC ; std::_Vector_const_iterator<std::_Vector_val<ioBaseChar *,std::allocator<ioBaseChar *> > >::_Compat, COMDAT
; _this$ = ecx

; 253  : 		}

  00000	c2 04 00	 ret	 4
?_Compat@?$_Vector_const_iterator@V?$_Vector_val@PAVioBaseChar@@V?$allocator@PAVioBaseChar@@@std@@@std@@@std@@QBEXABV12@@Z ENDP ; std::_Vector_const_iterator<std::_Vector_val<ioBaseChar *,std::allocator<ioBaseChar *> > >::_Compat
_TEXT	ENDS
PUBLIC	??0?$_Vector_iterator@V?$_Vector_val@PAVioBaseChar@@V?$allocator@PAVioBaseChar@@@std@@@std@@@std@@QAE@PAPAVioBaseChar@@PBU_Container_base0@1@@Z ; std::_Vector_iterator<std::_Vector_val<ioBaseChar *,std::allocator<ioBaseChar *> > >::_Vector_iterator<std::_Vector_val<ioBaseChar *,std::allocator<ioBaseChar *> > >
; Function compile flags: /Ogsp
;	COMDAT ??0?$_Vector_iterator@V?$_Vector_val@PAVioBaseChar@@V?$allocator@PAVioBaseChar@@@std@@@std@@@std@@QAE@PAPAVioBaseChar@@PBU_Container_base0@1@@Z
_TEXT	SEGMENT
__Parg$ = 8						; size = 4
__Pvector$ = 12						; size = 4
??0?$_Vector_iterator@V?$_Vector_val@PAVioBaseChar@@V?$allocator@PAVioBaseChar@@@std@@@std@@@std@@QAE@PAPAVioBaseChar@@PBU_Container_base0@1@@Z PROC ; std::_Vector_iterator<std::_Vector_val<ioBaseChar *,std::allocator<ioBaseChar *> > >::_Vector_iterator<std::_Vector_val<ioBaseChar *,std::allocator<ioBaseChar *> > >, COMDAT
; _this$ = ecx

; 304  : 		{	// construct with pointer _Parg

  00000	55		 push	 ebp
  00001	8b ec		 mov	 ebp, esp
  00003	8b c1		 mov	 eax, ecx
  00005	8b 4d 08	 mov	 ecx, DWORD PTR __Parg$[ebp]
  00008	89 08		 mov	 DWORD PTR [eax], ecx

; 305  : 		}

  0000a	5d		 pop	 ebp
  0000b	c2 08 00	 ret	 8
??0?$_Vector_iterator@V?$_Vector_val@PAVioBaseChar@@V?$allocator@PAVioBaseChar@@@std@@@std@@@std@@QAE@PAPAVioBaseChar@@PBU_Container_base0@1@@Z ENDP ; std::_Vector_iterator<std::_Vector_val<ioBaseChar *,std::allocator<ioBaseChar *> > >::_Vector_iterator<std::_Vector_val<ioBaseChar *,std::allocator<ioBaseChar *> > >
_TEXT	ENDS
PUBLIC	?deallocate@?$allocator@PAVioBaseChar@@@std@@QAEXPAPAVioBaseChar@@I@Z ; std::allocator<ioBaseChar *>::deallocate
; Function compile flags: /Ogsp
; File c:\program files (x86)\microsoft visual studio 10.0\vc\include\xmemory
;	COMDAT ?deallocate@?$allocator@PAVioBaseChar@@@std@@QAEXPAPAVioBaseChar@@I@Z
_TEXT	SEGMENT
__Ptr$ = 8						; size = 4
___formal$ = 12						; size = 4
?deallocate@?$allocator@PAVioBaseChar@@@std@@QAEXPAPAVioBaseChar@@I@Z PROC ; std::allocator<ioBaseChar *>::deallocate, COMDAT
; _this$ = ecx

; 181  : 		{	// deallocate object at _Ptr, ignore size

  00000	55		 push	 ebp
  00001	8b ec		 mov	 ebp, esp

; 182  : 		::operator delete(_Ptr);

  00003	ff 75 08	 push	 DWORD PTR __Ptr$[ebp]
  00006	e8 00 00 00 00	 call	 ??3@YAXPAX@Z		; operator delete
  0000b	59		 pop	 ecx

; 183  : 		}

  0000c	5d		 pop	 ebp
  0000d	c2 08 00	 ret	 8
?deallocate@?$allocator@PAVioBaseChar@@@std@@QAEXPAPAVioBaseChar@@I@Z ENDP ; std::allocator<ioBaseChar *>::deallocate
_TEXT	ENDS
PUBLIC	?max_size@?$allocator@PAVioBaseChar@@@std@@QBEIXZ ; std::allocator<ioBaseChar *>::max_size
; Function compile flags: /Ogsp
;	COMDAT ?max_size@?$allocator@PAVioBaseChar@@@std@@QBEIXZ
_TEXT	SEGMENT
?max_size@?$allocator@PAVioBaseChar@@@std@@QBEIXZ PROC	; std::allocator<ioBaseChar *>::max_size, COMDAT
; _this$ = ecx

; 218  : 		_SIZT _Count = (_SIZT)(-1) / sizeof (_Ty);
; 219  : 		return (0 < _Count ? _Count : 1);

  00000	b8 ff ff ff 3f	 mov	 eax, 1073741823		; 3fffffffH

; 220  : 		}

  00005	c3		 ret	 0
?max_size@?$allocator@PAVioBaseChar@@@std@@QBEIXZ ENDP	; std::allocator<ioBaseChar *>::max_size
_TEXT	ENDS
PUBLIC	__real@3f91df46a2526c7a
PUBLIC	??$DEGtoRAD@M@@YAMM@Z				; DEGtoRAD<float>
;	COMDAT __real@3f91df46a2526c7a
; File d:\lost saga for developer\youtube\tutorial\source\src\lsclient\veryoftenusedefine.h
CONST	SEGMENT
__real@3f91df46a2526c7a DQ 03f91df46a2526c7ar	; 0.0174533
; Function compile flags: /Ogsp
CONST	ENDS
;	COMDAT ??$DEGtoRAD@M@@YAMM@Z
_TEXT	SEGMENT
tv129 = 8						; size = 4
_val$ = 8						; size = 4
??$DEGtoRAD@M@@YAMM@Z PROC				; DEGtoRAD<float>, COMDAT

; 20   : type  DEGtoRAD (type val) {return (type) (val * 0.0174532925199);}

  00000	55		 push	 ebp
  00001	8b ec		 mov	 ebp, esp
  00003	d9 45 08	 fld	 DWORD PTR _val$[ebp]
  00006	dc 0d 00 00 00
	00		 fmul	 QWORD PTR __real@3f91df46a2526c7a
  0000c	d9 5d 08	 fstp	 DWORD PTR tv129[ebp]
  0000f	d9 45 08	 fld	 DWORD PTR tv129[ebp]
  00012	5d		 pop	 ebp
  00013	c3		 ret	 0
??$DEGtoRAD@M@@YAMM@Z ENDP				; DEGtoRAD<float>
_TEXT	ENDS
PUBLIC	??$addressof@QAVioBaseChar@@@std@@YAPBQAVioBaseChar@@ABQAV1@@Z ; std::addressof<ioBaseChar * const>
; Function compile flags: /Ogsp
; File c:\program files (x86)\microsoft visual studio 10.0\vc\include\xmemory
;	COMDAT ??$addressof@QAVioBaseChar@@@std@@YAPBQAVioBaseChar@@ABQAV1@@Z
_TEXT	SEGMENT
__Val$ = 8						; size = 4
??$addressof@QAVioBaseChar@@@std@@YAPBQAVioBaseChar@@ABQAV1@@Z PROC ; std::addressof<ioBaseChar * const>, COMDAT

; 110  : 	{	// return address of _Val

  00000	55		 push	 ebp
  00001	8b ec		 mov	 ebp, esp

; 111  : 	return ((_Ty *) &(char&)_Val);

  00003	8b 45 08	 mov	 eax, DWORD PTR __Val$[ebp]

; 112  : 	}

  00006	5d		 pop	 ebp
  00007	c3		 ret	 0
??$addressof@QAVioBaseChar@@@std@@YAPBQAVioBaseChar@@ABQAV1@@Z ENDP ; std::addressof<ioBaseChar * const>
_TEXT	ENDS
PUBLIC	__TI2?AVbad_alloc@std@@
PUBLIC	??$_Allocate@PAVioBaseChar@@@std@@YAPAPAVioBaseChar@@IPAPAV1@@Z ; std::_Allocate<ioBaseChar *>
PUBLIC	__CTA2?AVbad_alloc@std@@
PUBLIC	__CT??_R0?AVbad_alloc@std@@@8??0bad_alloc@std@@QAE@ABV01@@Z12
PUBLIC	??0bad_alloc@std@@QAE@ABV01@@Z			; std::bad_alloc::bad_alloc
PUBLIC	__CT??_R0?AVexception@std@@@8??0exception@std@@QAE@ABV01@@Z12
EXTRN	??2@YAPAXI@Z:PROC				; operator new
EXTRN	__CxxThrowException@8:PROC
EXTRN	??0exception@std@@QAE@ABV01@@Z:PROC		; std::exception::exception
;	COMDAT __CT??_R0?AVexception@std@@@8??0exception@std@@QAE@ABV01@@Z12
; File c:\program files (x86)\microsoft visual studio 10.0\vc\include\exception
xdata$x	SEGMENT
__CT??_R0?AVexception@std@@@8??0exception@std@@QAE@ABV01@@Z12 DD 00H
	DD	FLAT:??_R0?AVexception@std@@@8
	DD	00H
	DD	0ffffffffH
	ORG $+4
	DD	0cH
	DD	FLAT:??0exception@std@@QAE@ABV01@@Z
xdata$x	ENDS
;	COMDAT __CT??_R0?AVbad_alloc@std@@@8??0bad_alloc@std@@QAE@ABV01@@Z12
xdata$x	SEGMENT
__CT??_R0?AVbad_alloc@std@@@8??0bad_alloc@std@@QAE@ABV01@@Z12 DD 00H
	DD	FLAT:??_R0?AVbad_alloc@std@@@8
	DD	00H
	DD	0ffffffffH
	ORG $+4
	DD	0cH
	DD	FLAT:??0bad_alloc@std@@QAE@ABV01@@Z
xdata$x	ENDS
;	COMDAT __CTA2?AVbad_alloc@std@@
xdata$x	SEGMENT
__CTA2?AVbad_alloc@std@@ DD 02H
	DD	FLAT:__CT??_R0?AVbad_alloc@std@@@8??0bad_alloc@std@@QAE@ABV01@@Z12
	DD	FLAT:__CT??_R0?AVexception@std@@@8??0exception@std@@QAE@ABV01@@Z12
xdata$x	ENDS
;	COMDAT __TI2?AVbad_alloc@std@@
xdata$x	SEGMENT
__TI2?AVbad_alloc@std@@ DD 00H
	DD	FLAT:??1bad_alloc@std@@UAE@XZ
	DD	00H
	DD	FLAT:__CTA2?AVbad_alloc@std@@
; Function compile flags: /Ogsp
; File c:\program files (x86)\microsoft visual studio 10.0\vc\include\xmemory
xdata$x	ENDS
;	COMDAT ??$_Allocate@PAVioBaseChar@@@std@@YAPAPAVioBaseChar@@IPAPAV1@@Z
_TEXT	SEGMENT
$T545357 = -12						; size = 12
$T545362 = 8						; size = 4
__Count$ = 8						; size = 4
___formal$ = 12						; size = 4
??$_Allocate@PAVioBaseChar@@@std@@YAPAPAVioBaseChar@@IPAPAV1@@Z PROC ; std::_Allocate<ioBaseChar *>, COMDAT

; 30   : 	{	// allocate storage for _Count elements of type _Ty

  00000	55		 push	 ebp
  00001	8b ec		 mov	 ebp, esp

; 31   : 	void *_Ptr = 0;
; 32   : 
; 33   : 	if (_Count <= 0)

  00003	8b 4d 08	 mov	 ecx, DWORD PTR __Count$[ebp]
  00006	83 ec 0c	 sub	 esp, 12			; 0000000cH
  00009	33 c0		 xor	 eax, eax
  0000b	85 c9		 test	 ecx, ecx

; 34   : 		_Count = 0;
; 35   : 	else if (((_SIZT)(-1) / sizeof (_Ty) < _Count)

  0000d	74 3e		 je	 SHORT $LN5@Allocate

; 36   : 		|| (_Ptr = ::operator new(_Count * sizeof (_Ty))) == 0)

  0000f	81 f9 ff ff ff
	3f		 cmp	 ecx, 1073741823		; 3fffffffH
  00015	77 10		 ja	 SHORT $LN1@Allocate
  00017	8b c1		 mov	 eax, ecx
  00019	c1 e0 02	 shl	 eax, 2
  0001c	50		 push	 eax
  0001d	e8 00 00 00 00	 call	 ??2@YAPAXI@Z		; operator new
  00022	59		 pop	 ecx
  00023	85 c0		 test	 eax, eax

; 38   : 
; 39   : 	return ((_Ty _FARQ *)_Ptr);

  00025	75 26		 jne	 SHORT $LN5@Allocate
$LN1@Allocate:

; 37   : 		_THROW_NCEE(bad_alloc, 0);

  00027	83 65 08 00	 and	 DWORD PTR $T545362[ebp], 0
  0002b	8d 45 08	 lea	 eax, DWORD PTR $T545362[ebp]
  0002e	50		 push	 eax
  0002f	8d 4d f4	 lea	 ecx, DWORD PTR $T545357[ebp]
  00032	ff 15 00 00 00
	00		 call	 DWORD PTR __imp_??0exception@std@@QAE@ABQBD@Z
  00038	68 00 00 00 00	 push	 OFFSET __TI2?AVbad_alloc@std@@
  0003d	8d 45 f4	 lea	 eax, DWORD PTR $T545357[ebp]
  00040	50		 push	 eax
  00041	c7 45 f4 00 00
	00 00		 mov	 DWORD PTR $T545357[ebp], OFFSET ??_7bad_alloc@std@@6B@
  00048	e8 00 00 00 00	 call	 __CxxThrowException@8
$LN10@Allocate:
$LN5@Allocate:

; 40   : 	}

  0004d	c9		 leave
  0004e	c3		 ret	 0
$LN9@Allocate:
??$_Allocate@PAVioBaseChar@@@std@@YAPAPAVioBaseChar@@IPAPAV1@@Z ENDP ; std::_Allocate<ioBaseChar *>
_TEXT	ENDS
PUBLIC	??G?$_Vector_const_iterator@V?$_Vector_val@UCharDistanceSq@FindPredicate@@V?$allocator@UCharDistanceSq@FindPredicate@@@std@@@std@@@std@@QBEHABV01@@Z ; std::_Vector_const_iterator<std::_Vector_val<FindPredicate::CharDistanceSq,std::allocator<FindPredicate::CharDistanceSq> > >::operator-
; Function compile flags: /Ogsp
; File c:\program files (x86)\microsoft visual studio 10.0\vc\include\vector
;	COMDAT ??G?$_Vector_const_iterator@V?$_Vector_val@UCharDistanceSq@FindPredicate@@V?$allocator@UCharDistanceSq@FindPredicate@@@std@@@std@@@std@@QBEHABV01@@Z
_TEXT	SEGMENT
__Right$ = 8						; size = 4
??G?$_Vector_const_iterator@V?$_Vector_val@UCharDistanceSq@FindPredicate@@V?$allocator@UCharDistanceSq@FindPredicate@@@std@@@std@@@std@@QBEHABV01@@Z PROC ; std::_Vector_const_iterator<std::_Vector_val<FindPredicate::CharDistanceSq,std::allocator<FindPredicate::CharDistanceSq> > >::operator-, COMDAT
; _this$ = ecx

; 190  : 		{	// return difference of iterators

  00000	55		 push	 ebp
  00001	8b ec		 mov	 ebp, esp

; 191  : 		_Compat(_Right);
; 192  : 		return (this->_Ptr - _Right._Ptr);

  00003	8b 01		 mov	 eax, DWORD PTR [ecx]
  00005	8b 4d 08	 mov	 ecx, DWORD PTR __Right$[ebp]
  00008	2b 01		 sub	 eax, DWORD PTR [ecx]
  0000a	c1 f8 03	 sar	 eax, 3

; 193  : 		}

  0000d	5d		 pop	 ebp
  0000e	c2 04 00	 ret	 4
??G?$_Vector_const_iterator@V?$_Vector_val@UCharDistanceSq@FindPredicate@@V?$allocator@UCharDistanceSq@FindPredicate@@@std@@@std@@@std@@QBEHABV01@@Z ENDP ; std::_Vector_const_iterator<std::_Vector_val<FindPredicate::CharDistanceSq,std::allocator<FindPredicate::CharDistanceSq> > >::operator-
_TEXT	ENDS
PUBLIC	??$forward@AAPAVioBaseChar@@@std@@YAAAPAVioBaseChar@@AAPAV1@@Z ; std::forward<ioBaseChar * &>
; Function compile flags: /Ogsp
; File c:\program files (x86)\microsoft visual studio 10.0\vc\include\utility
;	COMDAT ??$forward@AAPAVioBaseChar@@@std@@YAAAPAVioBaseChar@@AAPAV1@@Z
_TEXT	SEGMENT
__Arg$ = 8						; size = 4
??$forward@AAPAVioBaseChar@@@std@@YAAAPAVioBaseChar@@AAPAV1@@Z PROC ; std::forward<ioBaseChar * &>, COMDAT

; 78   : 	{	// forward _Arg, given explicitly specified type parameter

  00000	55		 push	 ebp
  00001	8b ec		 mov	 ebp, esp

; 79   : 	return ((_Ty&&)_Arg);

  00003	8b 45 08	 mov	 eax, DWORD PTR __Arg$[ebp]

; 80   : 	}

  00006	5d		 pop	 ebp
  00007	c3		 ret	 0
??$forward@AAPAVioBaseChar@@@std@@YAAAPAVioBaseChar@@AAPAV1@@Z ENDP ; std::forward<ioBaseChar * &>
_TEXT	ENDS
PUBLIC	??$construct@AAPAVioBaseChar@@@?$allocator@PAVioBaseChar@@@std@@QAEXPAPAVioBaseChar@@AAPAV2@@Z ; std::allocator<ioBaseChar *>::construct<ioBaseChar * &>
; Function compile flags: /Ogsp
; File c:\program files (x86)\microsoft visual studio 10.0\vc\include\xmemory
;	COMDAT ??$construct@AAPAVioBaseChar@@@?$allocator@PAVioBaseChar@@@std@@QAEXPAPAVioBaseChar@@AAPAV2@@Z
_TEXT	SEGMENT
__Ptr$ = 8						; size = 4
__Val$ = 12						; size = 4
??$construct@AAPAVioBaseChar@@@?$allocator@PAVioBaseChar@@@std@@QAEXPAPAVioBaseChar@@AAPAV2@@Z PROC ; std::allocator<ioBaseChar *>::construct<ioBaseChar * &>, COMDAT
; _this$ = ecx

; 206  : 		void construct(pointer _Ptr, _Other&& _Val)

  00000	55		 push	 ebp
  00001	8b ec		 mov	 ebp, esp

; 207  : 		{	// construct object at _Ptr with value _Val
; 208  : 		::new ((void _FARQ *)_Ptr) _Ty(_STD forward<_Other>(_Val));

  00003	8b 45 08	 mov	 eax, DWORD PTR __Ptr$[ebp]
  00006	85 c0		 test	 eax, eax
  00008	74 07		 je	 SHORT $LN3@construct
  0000a	8b 4d 0c	 mov	 ecx, DWORD PTR __Val$[ebp]
  0000d	8b 09		 mov	 ecx, DWORD PTR [ecx]
  0000f	89 08		 mov	 DWORD PTR [eax], ecx
$LN3@construct:

; 209  : 		}

  00011	5d		 pop	 ebp
  00012	c2 08 00	 ret	 8
??$construct@AAPAVioBaseChar@@@?$allocator@PAVioBaseChar@@@std@@QAEXPAPAVioBaseChar@@AAPAV2@@Z ENDP ; std::allocator<ioBaseChar *>::construct<ioBaseChar * &>
_TEXT	ENDS
PUBLIC	??$forward@ABQAVioBaseChar@@@std@@YAABQAVioBaseChar@@ABQAV1@@Z ; std::forward<ioBaseChar * const &>
; Function compile flags: /Ogsp
; File c:\program files (x86)\microsoft visual studio 10.0\vc\include\utility
;	COMDAT ??$forward@ABQAVioBaseChar@@@std@@YAABQAVioBaseChar@@ABQAV1@@Z
_TEXT	SEGMENT
__Arg$ = 8						; size = 4
??$forward@ABQAVioBaseChar@@@std@@YAABQAVioBaseChar@@ABQAV1@@Z PROC ; std::forward<ioBaseChar * const &>, COMDAT

; 78   : 	{	// forward _Arg, given explicitly specified type parameter

  00000	55		 push	 ebp
  00001	8b ec		 mov	 ebp, esp

; 79   : 	return ((_Ty&&)_Arg);

  00003	8b 45 08	 mov	 eax, DWORD PTR __Arg$[ebp]

; 80   : 	}

  00006	5d		 pop	 ebp
  00007	c3		 ret	 0
??$forward@ABQAVioBaseChar@@@std@@YAABQAVioBaseChar@@ABQAV1@@Z ENDP ; std::forward<ioBaseChar * const &>
_TEXT	ENDS
PUBLIC	??$_Ptr_cat@PAVioBaseChar@@PAV1@@std@@YA?AU_Scalar_ptr_iterator_tag@0@PAPAVioBaseChar@@0@Z ; std::_Ptr_cat<ioBaseChar *,ioBaseChar *>
; Function compile flags: /Ogsp
; File c:\program files (x86)\microsoft visual studio 10.0\vc\include\xutility
;	COMDAT ??$_Ptr_cat@PAVioBaseChar@@PAV1@@std@@YA?AU_Scalar_ptr_iterator_tag@0@PAPAVioBaseChar@@0@Z
_TEXT	SEGMENT
__Cat$ = -1						; size = 1
___formal$ = 8						; size = 4
___formal$ = 12						; size = 4
??$_Ptr_cat@PAVioBaseChar@@PAV1@@std@@YA?AU_Scalar_ptr_iterator_tag@0@PAPAVioBaseChar@@0@Z PROC ; std::_Ptr_cat<ioBaseChar *,ioBaseChar *>, COMDAT

; 516  : 	{	// return pointer category from pointers

  00000	55		 push	 ebp
  00001	8b ec		 mov	 ebp, esp
  00003	51		 push	 ecx

; 517  : 	typename _Ptr_cat_helper<_Elem1, _Elem2>::_Type _Cat;
; 518  : 	return (_Cat);

  00004	8a 45 ff	 mov	 al, BYTE PTR __Cat$[ebp]

; 519  : 	}

  00007	c9		 leave
  00008	c3		 ret	 0
??$_Ptr_cat@PAVioBaseChar@@PAV1@@std@@YA?AU_Scalar_ptr_iterator_tag@0@PAPAVioBaseChar@@0@Z ENDP ; std::_Ptr_cat<ioBaseChar *,ioBaseChar *>
_TEXT	ENDS
PUBLIC	??$_Move@PAPAVioBaseChar@@PAPAV1@@std@@YAPAPAVioBaseChar@@PAPAV1@00U_Scalar_ptr_iterator_tag@0@@Z ; std::_Move<ioBaseChar * *,ioBaseChar * *>
EXTRN	__imp__memmove:PROC
; Function compile flags: /Ogsp
;	COMDAT ??$_Move@PAPAVioBaseChar@@PAPAV1@@std@@YAPAPAVioBaseChar@@PAPAV1@00U_Scalar_ptr_iterator_tag@0@@Z
_TEXT	SEGMENT
__First$ = 8						; size = 4
__Last$ = 12						; size = 4
__Dest$ = 16						; size = 4
___formal$ = 20						; size = 1
??$_Move@PAPAVioBaseChar@@PAPAV1@@std@@YAPAPAVioBaseChar@@PAPAV1@00U_Scalar_ptr_iterator_tag@0@@Z PROC ; std::_Move<ioBaseChar * *,ioBaseChar * *>, COMDAT

; 2522 : 	{	// move [_First, _Last) to [_Dest, ...), pointers to scalars

  00000	55		 push	 ebp
  00001	8b ec		 mov	 ebp, esp
  00003	56		 push	 esi

; 2523 : 	ptrdiff_t _Count = _Last - _First;

  00004	8b 75 0c	 mov	 esi, DWORD PTR __Last$[ebp]
  00007	2b 75 08	 sub	 esi, DWORD PTR __First$[ebp]
  0000a	57		 push	 edi

; 2524 : 	_CSTD memmove(&*_Dest, &*_First,
; 2525 : 		_Count * sizeof (*_First));

  0000b	8b 7d 10	 mov	 edi, DWORD PTR __Dest$[ebp]
  0000e	c1 fe 02	 sar	 esi, 2
  00011	c1 e6 02	 shl	 esi, 2
  00014	56		 push	 esi
  00015	ff 75 08	 push	 DWORD PTR __First$[ebp]
  00018	57		 push	 edi
  00019	ff 15 00 00 00
	00		 call	 DWORD PTR __imp__memmove
  0001f	83 c4 0c	 add	 esp, 12			; 0000000cH

; 2526 : 	return (_Dest + _Count);

  00022	8d 04 3e	 lea	 eax, DWORD PTR [esi+edi]
  00025	5f		 pop	 edi
  00026	5e		 pop	 esi

; 2527 : 	}

  00027	5d		 pop	 ebp
  00028	c3		 ret	 0
??$_Move@PAPAVioBaseChar@@PAPAV1@@std@@YAPAPAVioBaseChar@@PAPAV1@00U_Scalar_ptr_iterator_tag@0@@Z ENDP ; std::_Move<ioBaseChar * *,ioBaseChar * *>
_TEXT	ENDS
PUBLIC	??$_Destroy_range@V?$allocator@PAVioBaseChar@@@std@@@std@@YAXPAPAVioBaseChar@@0AAV?$allocator@PAVioBaseChar@@@0@U_Scalar_ptr_iterator_tag@0@@Z ; std::_Destroy_range<std::allocator<ioBaseChar *> >
; Function compile flags: /Ogsp
; File c:\program files (x86)\microsoft visual studio 10.0\vc\include\xmemory
;	COMDAT ??$_Destroy_range@V?$allocator@PAVioBaseChar@@@std@@@std@@YAXPAPAVioBaseChar@@0AAV?$allocator@PAVioBaseChar@@@0@U_Scalar_ptr_iterator_tag@0@@Z
_TEXT	SEGMENT
__First$ = 8						; size = 4
__Last$ = 12						; size = 4
__Al$ = 16						; size = 4
___formal$ = 20						; size = 1
??$_Destroy_range@V?$allocator@PAVioBaseChar@@@std@@@std@@YAXPAPAVioBaseChar@@0AAV?$allocator@PAVioBaseChar@@@0@U_Scalar_ptr_iterator_tag@0@@Z PROC ; std::_Destroy_range<std::allocator<ioBaseChar *> >, COMDAT

; 105  : 	}

  00000	c3		 ret	 0
??$_Destroy_range@V?$allocator@PAVioBaseChar@@@std@@@std@@YAXPAPAVioBaseChar@@0AAV?$allocator@PAVioBaseChar@@@0@U_Scalar_ptr_iterator_tag@0@@Z ENDP ; std::_Destroy_range<std::allocator<ioBaseChar *> >
_TEXT	ENDS
PUBLIC	??$_Construct@PAVioBaseChar@@ABQAV1@@std@@YAXPAPAVioBaseChar@@ABQAV1@@Z ; std::_Construct<ioBaseChar *,ioBaseChar * const &>
; Function compile flags: /Ogsp
;	COMDAT ??$_Construct@PAVioBaseChar@@ABQAV1@@std@@YAXPAPAVioBaseChar@@ABQAV1@@Z
_TEXT	SEGMENT
__Ptr$ = 8						; size = 4
__Val$ = 12						; size = 4
??$_Construct@PAVioBaseChar@@ABQAV1@@std@@YAXPAPAVioBaseChar@@ABQAV1@@Z PROC ; std::_Construct<ioBaseChar *,ioBaseChar * const &>, COMDAT

; 46   : 	{	// construct object at _Ptr with value _Val

  00000	55		 push	 ebp
  00001	8b ec		 mov	 ebp, esp

; 47   : 	void _FARQ *_Vptr = _Ptr;
; 48   : 	::new (_Vptr) _Ty1(_STD forward<_Ty2>(_Val));

  00003	8b 45 08	 mov	 eax, DWORD PTR __Ptr$[ebp]
  00006	85 c0		 test	 eax, eax
  00008	74 07		 je	 SHORT $LN3@Construct
  0000a	8b 4d 0c	 mov	 ecx, DWORD PTR __Val$[ebp]
  0000d	8b 09		 mov	 ecx, DWORD PTR [ecx]
  0000f	89 08		 mov	 DWORD PTR [eax], ecx
$LN3@Construct:

; 49   : 	}

  00011	5d		 pop	 ebp
  00012	c3		 ret	 0
??$_Construct@PAVioBaseChar@@ABQAV1@@std@@YAXPAPAVioBaseChar@@ABQAV1@@Z ENDP ; std::_Construct<ioBaseChar *,ioBaseChar * const &>
_TEXT	ENDS
PUBLIC	?_Unchecked@?$_Vector_iterator@V?$_Vector_val@UCharDistanceSq@FindPredicate@@V?$allocator@UCharDistanceSq@FindPredicate@@@std@@@std@@@std@@QBEPAUCharDistanceSq@FindPredicate@@XZ ; std::_Vector_iterator<std::_Vector_val<FindPredicate::CharDistanceSq,std::allocator<FindPredicate::CharDistanceSq> > >::_Unchecked
; Function compile flags: /Ogsp
; File c:\program files (x86)\microsoft visual studio 10.0\vc\include\vector
;	COMDAT ?_Unchecked@?$_Vector_iterator@V?$_Vector_val@UCharDistanceSq@FindPredicate@@V?$allocator@UCharDistanceSq@FindPredicate@@@std@@@std@@@std@@QBEPAUCharDistanceSq@FindPredicate@@XZ
_TEXT	SEGMENT
?_Unchecked@?$_Vector_iterator@V?$_Vector_val@UCharDistanceSq@FindPredicate@@V?$allocator@UCharDistanceSq@FindPredicate@@@std@@@std@@@std@@QBEPAUCharDistanceSq@FindPredicate@@XZ PROC ; std::_Vector_iterator<std::_Vector_val<FindPredicate::CharDistanceSq,std::allocator<FindPredicate::CharDistanceSq> > >::_Unchecked, COMDAT
; _this$ = ecx

; 317  : 		return (_Unchecked_type(this->_Ptr));

  00000	8b 01		 mov	 eax, DWORD PTR [ecx]

; 318  : 		}

  00002	c3		 ret	 0
?_Unchecked@?$_Vector_iterator@V?$_Vector_val@UCharDistanceSq@FindPredicate@@V?$allocator@UCharDistanceSq@FindPredicate@@@std@@@std@@@std@@QBEPAUCharDistanceSq@FindPredicate@@XZ ENDP ; std::_Vector_iterator<std::_Vector_val<FindPredicate::CharDistanceSq,std::allocator<FindPredicate::CharDistanceSq> > >::_Unchecked
_TEXT	ENDS
PUBLIC	??$_Val_type@PAPAVioBaseChar@@@std@@YAPAPAVioBaseChar@@PAPAV1@@Z ; std::_Val_type<ioBaseChar * *>
; Function compile flags: /Ogsp
; File c:\program files (x86)\microsoft visual studio 10.0\vc\include\xutility
;	COMDAT ??$_Val_type@PAPAVioBaseChar@@@std@@YAPAPAVioBaseChar@@PAPAV1@@Z
_TEXT	SEGMENT
___formal$ = 8						; size = 4
??$_Val_type@PAPAVioBaseChar@@@std@@YAPAPAVioBaseChar@@PAPAV1@@Z PROC ; std::_Val_type<ioBaseChar * *>, COMDAT

; 790  : 	return (0);

  00000	33 c0		 xor	 eax, eax

; 791  : 	}

  00002	c3		 ret	 0
??$_Val_type@PAPAVioBaseChar@@@std@@YAPAPAVioBaseChar@@PAPAV1@@Z ENDP ; std::_Val_type<ioBaseChar * *>
_TEXT	ENDS
PUBLIC	??$_Uninit_move@PAVioBaseChar@@PAV1@PAV1@@std@@YAPAPAVioBaseChar@@PAPAV1@00AAV?$allocator@PAVioBaseChar@@@0@0U_Scalar_ptr_iterator_tag@0@@Z ; std::_Uninit_move<ioBaseChar *,ioBaseChar *,ioBaseChar *>
; Function compile flags: /Ogsp
; File c:\program files (x86)\microsoft visual studio 10.0\vc\include\memory
;	COMDAT ??$_Uninit_move@PAVioBaseChar@@PAV1@PAV1@@std@@YAPAPAVioBaseChar@@PAPAV1@00AAV?$allocator@PAVioBaseChar@@@0@0U_Scalar_ptr_iterator_tag@0@@Z
_TEXT	SEGMENT
__First$ = 8						; size = 4
__Last$ = 12						; size = 4
__Dest$ = 16						; size = 4
___formal$ = 20						; size = 4
___formal$ = 24						; size = 4
___formal$ = 28						; size = 1
??$_Uninit_move@PAVioBaseChar@@PAV1@PAV1@@std@@YAPAPAVioBaseChar@@PAPAV1@00AAV?$allocator@PAVioBaseChar@@@0@0U_Scalar_ptr_iterator_tag@0@@Z PROC ; std::_Uninit_move<ioBaseChar *,ioBaseChar *,ioBaseChar *>, COMDAT

; 456  : 	{	// move [_First, _Last) to raw _Dest, scalar type

  00000	55		 push	 ebp
  00001	8b ec		 mov	 ebp, esp
  00003	56		 push	 esi

; 457  : 	_DEBUG_RANGE(_First, _Last);
; 458  : 	_DEBUG_POINTER(_Dest);
; 459  : 	size_t _Count = (size_t)(_Last - _First);

  00004	8b 75 0c	 mov	 esi, DWORD PTR __Last$[ebp]
  00007	2b 75 08	 sub	 esi, DWORD PTR __First$[ebp]
  0000a	c1 fe 02	 sar	 esi, 2

; 460  : 	return ((_Ty2 *)_CSTD memmove(&*_Dest, &*_First,
; 461  : 		_Count * sizeof (*_First)) + _Count);	// NB: non-overlapping move

  0000d	c1 e6 02	 shl	 esi, 2
  00010	56		 push	 esi
  00011	ff 75 08	 push	 DWORD PTR __First$[ebp]
  00014	ff 75 10	 push	 DWORD PTR __Dest$[ebp]
  00017	ff 15 00 00 00
	00		 call	 DWORD PTR __imp__memmove
  0001d	83 c4 0c	 add	 esp, 12			; 0000000cH
  00020	03 c6		 add	 eax, esi
  00022	5e		 pop	 esi

; 462  : 	}

  00023	5d		 pop	 ebp
  00024	c3		 ret	 0
??$_Uninit_move@PAVioBaseChar@@PAV1@PAV1@@std@@YAPAPAVioBaseChar@@PAPAV1@00AAV?$allocator@PAVioBaseChar@@@0@0U_Scalar_ptr_iterator_tag@0@@Z ENDP ; std::_Uninit_move<ioBaseChar *,ioBaseChar *,ioBaseChar *>
_TEXT	ENDS
PUBLIC	??$_Unchecked@PAUCharDistanceSq@FindPredicate@@@std@@YAPAUCharDistanceSq@FindPredicate@@PAU12@@Z ; std::_Unchecked<FindPredicate::CharDistanceSq *>
; Function compile flags: /Ogsp
; File c:\program files (x86)\microsoft visual studio 10.0\vc\include\xutility
;	COMDAT ??$_Unchecked@PAUCharDistanceSq@FindPredicate@@@std@@YAPAUCharDistanceSq@FindPredicate@@PAU12@@Z
_TEXT	SEGMENT
__Src$ = 8						; size = 4
??$_Unchecked@PAUCharDistanceSq@FindPredicate@@@std@@YAPAUCharDistanceSq@FindPredicate@@PAU12@@Z PROC ; std::_Unchecked<FindPredicate::CharDistanceSq *>, COMDAT

; 266  : 	{	// construct unchecked from checked, generic

  00000	55		 push	 ebp
  00001	8b ec		 mov	 ebp, esp

; 267  : 	return (_Src);

  00003	8b 45 08	 mov	 eax, DWORD PTR __Src$[ebp]

; 268  : 	}

  00006	5d		 pop	 ebp
  00007	c3		 ret	 0
??$_Unchecked@PAUCharDistanceSq@FindPredicate@@@std@@YAPAUCharDistanceSq@FindPredicate@@PAU12@@Z ENDP ; std::_Unchecked<FindPredicate::CharDistanceSq *>
_TEXT	ENDS
PUBLIC	??$_Dist_type@PAUCharDistanceSq@FindPredicate@@@std@@YAPAHPAUCharDistanceSq@FindPredicate@@@Z ; std::_Dist_type<FindPredicate::CharDistanceSq *>
; Function compile flags: /Ogsp
;	COMDAT ??$_Dist_type@PAUCharDistanceSq@FindPredicate@@@std@@YAPAHPAUCharDistanceSq@FindPredicate@@@Z
_TEXT	SEGMENT
___formal$ = 8						; size = 4
??$_Dist_type@PAUCharDistanceSq@FindPredicate@@@std@@YAPAHPAUCharDistanceSq@FindPredicate@@@Z PROC ; std::_Dist_type<FindPredicate::CharDistanceSq *>, COMDAT

; 850  : 	return (0);

  00000	33 c0		 xor	 eax, eax

; 851  : 	}

  00002	c3		 ret	 0
??$_Dist_type@PAUCharDistanceSq@FindPredicate@@@std@@YAPAHPAUCharDistanceSq@FindPredicate@@@Z ENDP ; std::_Dist_type<FindPredicate::CharDistanceSq *>
_TEXT	ENDS
PUBLIC	??$_Val_type@PAUCharDistanceSq@FindPredicate@@@std@@YAPAUCharDistanceSq@FindPredicate@@PAU12@@Z ; std::_Val_type<FindPredicate::CharDistanceSq *>
; Function compile flags: /Ogsp
;	COMDAT ??$_Val_type@PAUCharDistanceSq@FindPredicate@@@std@@YAPAUCharDistanceSq@FindPredicate@@PAU12@@Z
_TEXT	SEGMENT
___formal$ = 8						; size = 4
??$_Val_type@PAUCharDistanceSq@FindPredicate@@@std@@YAPAUCharDistanceSq@FindPredicate@@PAU12@@Z PROC ; std::_Val_type<FindPredicate::CharDistanceSq *>, COMDAT

; 790  : 	return (0);

  00000	33 c0		 xor	 eax, eax

; 791  : 	}

  00002	c3		 ret	 0
??$_Val_type@PAUCharDistanceSq@FindPredicate@@@std@@YAPAUCharDistanceSq@FindPredicate@@PAU12@@Z ENDP ; std::_Val_type<FindPredicate::CharDistanceSq *>
_TEXT	ENDS
PUBLIC	??$forward@AAPAUCharDistanceSq@FindPredicate@@@std@@YAAAPAUCharDistanceSq@FindPredicate@@AAPAU12@@Z ; std::forward<FindPredicate::CharDistanceSq * &>
; Function compile flags: /Ogsp
; File c:\program files (x86)\microsoft visual studio 10.0\vc\include\utility
;	COMDAT ??$forward@AAPAUCharDistanceSq@FindPredicate@@@std@@YAAAPAUCharDistanceSq@FindPredicate@@AAPAU12@@Z
_TEXT	SEGMENT
__Arg$ = 8						; size = 4
??$forward@AAPAUCharDistanceSq@FindPredicate@@@std@@YAAAPAUCharDistanceSq@FindPredicate@@AAPAU12@@Z PROC ; std::forward<FindPredicate::CharDistanceSq * &>, COMDAT

; 78   : 	{	// forward _Arg, given explicitly specified type parameter

  00000	55		 push	 ebp
  00001	8b ec		 mov	 ebp, esp

; 79   : 	return ((_Ty&&)_Arg);

  00003	8b 45 08	 mov	 eax, DWORD PTR __Arg$[ebp]

; 80   : 	}

  00006	5d		 pop	 ebp
  00007	c3		 ret	 0
??$forward@AAPAUCharDistanceSq@FindPredicate@@@std@@YAAAPAUCharDistanceSq@FindPredicate@@AAPAU12@@Z ENDP ; std::forward<FindPredicate::CharDistanceSq * &>
_TEXT	ENDS
PUBLIC	??$?0AAPAUCharDistanceSq@FindPredicate@@AAPAU01@@?$_Pair_base@PAUCharDistanceSq@FindPredicate@@PAU12@@std@@QAE@AAPAUCharDistanceSq@FindPredicate@@0@Z ; std::_Pair_base<FindPredicate::CharDistanceSq *,FindPredicate::CharDistanceSq *>::_Pair_base<FindPredicate::CharDistanceSq *,FindPredicate::CharDistanceSq *><FindPredicate::CharDistanceSq * &,FindPredicate::CharDistanceSq * &>
; Function compile flags: /Ogsp
;	COMDAT ??$?0AAPAUCharDistanceSq@FindPredicate@@AAPAU01@@?$_Pair_base@PAUCharDistanceSq@FindPredicate@@PAU12@@std@@QAE@AAPAUCharDistanceSq@FindPredicate@@0@Z
_TEXT	SEGMENT
__Val1$ = 8						; size = 4
__Val2$ = 12						; size = 4
??$?0AAPAUCharDistanceSq@FindPredicate@@AAPAU01@@?$_Pair_base@PAUCharDistanceSq@FindPredicate@@PAU12@@std@@QAE@AAPAUCharDistanceSq@FindPredicate@@0@Z PROC ; std::_Pair_base<FindPredicate::CharDistanceSq *,FindPredicate::CharDistanceSq *>::_Pair_base<FindPredicate::CharDistanceSq *,FindPredicate::CharDistanceSq *><FindPredicate::CharDistanceSq * &,FindPredicate::CharDistanceSq * &>, COMDAT
; _this$ = ecx

; 163  : 		{	// construct from moved values

  00000	55		 push	 ebp
  00001	8b ec		 mov	 ebp, esp
  00003	8b c1		 mov	 eax, ecx
  00005	8b 4d 08	 mov	 ecx, DWORD PTR __Val1$[ebp]
  00008	8b 09		 mov	 ecx, DWORD PTR [ecx]
  0000a	89 08		 mov	 DWORD PTR [eax], ecx
  0000c	8b 4d 0c	 mov	 ecx, DWORD PTR __Val2$[ebp]
  0000f	8b 09		 mov	 ecx, DWORD PTR [ecx]
  00011	89 48 04	 mov	 DWORD PTR [eax+4], ecx

; 164  : 		}

  00014	5d		 pop	 ebp
  00015	c2 08 00	 ret	 8
??$?0AAPAUCharDistanceSq@FindPredicate@@AAPAU01@@?$_Pair_base@PAUCharDistanceSq@FindPredicate@@PAU12@@std@@QAE@AAPAUCharDistanceSq@FindPredicate@@0@Z ENDP ; std::_Pair_base<FindPredicate::CharDistanceSq *,FindPredicate::CharDistanceSq *>::_Pair_base<FindPredicate::CharDistanceSq *,FindPredicate::CharDistanceSq *><FindPredicate::CharDistanceSq * &,FindPredicate::CharDistanceSq * &>
_TEXT	ENDS
PUBLIC	??$_Move@AAUCharDistanceSq@FindPredicate@@@std@@YA$$QAUCharDistanceSq@FindPredicate@@AAU12@@Z ; std::_Move<FindPredicate::CharDistanceSq &>
; Function compile flags: /Ogsp
;	COMDAT ??$_Move@AAUCharDistanceSq@FindPredicate@@@std@@YA$$QAUCharDistanceSq@FindPredicate@@AAU12@@Z
_TEXT	SEGMENT
__Arg$ = 8						; size = 4
??$_Move@AAUCharDistanceSq@FindPredicate@@@std@@YA$$QAUCharDistanceSq@FindPredicate@@AAU12@@Z PROC ; std::_Move<FindPredicate::CharDistanceSq &>, COMDAT

; 94   : 	{	// forward _Arg as movable

  00000	55		 push	 ebp
  00001	8b ec		 mov	 ebp, esp

; 95   : 	return ((typename tr1::_Remove_reference<_Ty>::_Type&&)_Arg);

  00003	8b 45 08	 mov	 eax, DWORD PTR __Arg$[ebp]

; 96   : 	}

  00006	5d		 pop	 ebp
  00007	c3		 ret	 0
??$_Move@AAUCharDistanceSq@FindPredicate@@@std@@YA$$QAUCharDistanceSq@FindPredicate@@AAU12@@Z ENDP ; std::_Move<FindPredicate::CharDistanceSq &>
_TEXT	ENDS
PUBLIC	??$_Ptr_cat@UCharDistanceSq@FindPredicate@@U12@@std@@YA?AU_Nonscalar_ptr_iterator_tag@0@PAUCharDistanceSq@FindPredicate@@0@Z ; std::_Ptr_cat<FindPredicate::CharDistanceSq,FindPredicate::CharDistanceSq>
; Function compile flags: /Ogsp
; File c:\program files (x86)\microsoft visual studio 10.0\vc\include\xutility
;	COMDAT ??$_Ptr_cat@UCharDistanceSq@FindPredicate@@U12@@std@@YA?AU_Nonscalar_ptr_iterator_tag@0@PAUCharDistanceSq@FindPredicate@@0@Z
_TEXT	SEGMENT
__Cat$ = -1						; size = 1
___formal$ = 8						; size = 4
___formal$ = 12						; size = 4
??$_Ptr_cat@UCharDistanceSq@FindPredicate@@U12@@std@@YA?AU_Nonscalar_ptr_iterator_tag@0@PAUCharDistanceSq@FindPredicate@@0@Z PROC ; std::_Ptr_cat<FindPredicate::CharDistanceSq,FindPredicate::CharDistanceSq>, COMDAT

; 516  : 	{	// return pointer category from pointers

  00000	55		 push	 ebp
  00001	8b ec		 mov	 ebp, esp
  00003	51		 push	 ecx

; 517  : 	typename _Ptr_cat_helper<_Elem1, _Elem2>::_Type _Cat;
; 518  : 	return (_Cat);

  00004	8a 45 ff	 mov	 al, BYTE PTR __Cat$[ebp]

; 519  : 	}

  00007	c9		 leave
  00008	c3		 ret	 0
??$_Ptr_cat@UCharDistanceSq@FindPredicate@@U12@@std@@YA?AU_Nonscalar_ptr_iterator_tag@0@PAUCharDistanceSq@FindPredicate@@0@Z ENDP ; std::_Ptr_cat<FindPredicate::CharDistanceSq,FindPredicate::CharDistanceSq>
_TEXT	ENDS
PUBLIC	??$move@AAUCharDistanceSq@FindPredicate@@@std@@YA$$QAUCharDistanceSq@FindPredicate@@AAU12@@Z ; std::move<FindPredicate::CharDistanceSq &>
; Function compile flags: /Ogsp
; File c:\program files (x86)\microsoft visual studio 10.0\vc\include\utility
;	COMDAT ??$move@AAUCharDistanceSq@FindPredicate@@@std@@YA$$QAUCharDistanceSq@FindPredicate@@AAU12@@Z
_TEXT	SEGMENT
__Arg$ = 8						; size = 4
??$move@AAUCharDistanceSq@FindPredicate@@@std@@YA$$QAUCharDistanceSq@FindPredicate@@AAU12@@Z PROC ; std::move<FindPredicate::CharDistanceSq &>, COMDAT

; 86   : 	{	// forward _Arg as movable

  00000	55		 push	 ebp
  00001	8b ec		 mov	 ebp, esp

; 87   : 	return ((typename tr1::_Remove_reference<_Ty>::_Type&&)_Arg);

  00003	8b 45 08	 mov	 eax, DWORD PTR __Arg$[ebp]

; 88   : 	}

  00006	5d		 pop	 ebp
  00007	c3		 ret	 0
??$move@AAUCharDistanceSq@FindPredicate@@@std@@YA$$QAUCharDistanceSq@FindPredicate@@AAU12@@Z ENDP ; std::move<FindPredicate::CharDistanceSq &>
_TEXT	ENDS
PUBLIC	??0D3DXVECTOR3@@QAE@XZ				; D3DXVECTOR3::D3DXVECTOR3
; Function compile flags: /Ogsp
; File c:\program files (x86)\microsoft directx sdk (june 2010)\include\d3dx9math.h
;	COMDAT ??0D3DXVECTOR3@@QAE@XZ
_TEXT	SEGMENT
??0D3DXVECTOR3@@QAE@XZ PROC				; D3DXVECTOR3::D3DXVECTOR3, COMDAT
; _this$ = ecx

; 165  :     D3DXVECTOR3() {};

  00000	8b c1		 mov	 eax, ecx
  00002	c3		 ret	 0
??0D3DXVECTOR3@@QAE@XZ ENDP				; D3DXVECTOR3::D3DXVECTOR3
_TEXT	ENDS
PUBLIC	??0D3DXVECTOR3@@QAE@MMM@Z			; D3DXVECTOR3::D3DXVECTOR3
; Function compile flags: /Ogsp
; File c:\program files (x86)\microsoft directx sdk (june 2010)\include\d3dx9math.inl
;	COMDAT ??0D3DXVECTOR3@@QAE@MMM@Z
_TEXT	SEGMENT
_fx$ = 8						; size = 4
_fy$ = 12						; size = 4
_fz$ = 16						; size = 4
??0D3DXVECTOR3@@QAE@MMM@Z PROC				; D3DXVECTOR3::D3DXVECTOR3, COMDAT
; _this$ = ecx

; 303  : {

  00000	55		 push	 ebp
  00001	8b ec		 mov	 ebp, esp

; 304  :     x = fx;

  00003	f3 0f 10 45 08	 movss	 xmm0, DWORD PTR _fx$[ebp]
  00008	8b c1		 mov	 eax, ecx
  0000a	f3 0f 11 00	 movss	 DWORD PTR [eax], xmm0

; 305  :     y = fy;

  0000e	f3 0f 10 45 0c	 movss	 xmm0, DWORD PTR _fy$[ebp]
  00013	f3 0f 11 40 04	 movss	 DWORD PTR [eax+4], xmm0

; 306  :     z = fz;

  00018	f3 0f 10 45 10	 movss	 xmm0, DWORD PTR _fz$[ebp]
  0001d	f3 0f 11 40 08	 movss	 DWORD PTR [eax+8], xmm0

; 307  : }

  00022	5d		 pop	 ebp
  00023	c2 0c 00	 ret	 12			; 0000000cH
??0D3DXVECTOR3@@QAE@MMM@Z ENDP				; D3DXVECTOR3::D3DXVECTOR3
_TEXT	ENDS
PUBLIC	??GD3DXVECTOR3@@QBE?AU0@ABU0@@Z			; D3DXVECTOR3::operator-
; Function compile flags: /Ogsp
;	COMDAT ??GD3DXVECTOR3@@QBE?AU0@ABU0@@Z
_TEXT	SEGMENT
___$ReturnUdt$ = 8					; size = 4
_v$ = 12						; size = 4
??GD3DXVECTOR3@@QBE?AU0@ABU0@@Z PROC			; D3DXVECTOR3::operator-, COMDAT
; _this$ = ecx

; 386  : {

  00000	55		 push	 ebp
  00001	8b ec		 mov	 ebp, esp

; 387  :     return D3DXVECTOR3(x - v.x, y - v.y, z - v.z);

  00003	8b 55 0c	 mov	 edx, DWORD PTR _v$[ebp]
  00006	f3 0f 10 01	 movss	 xmm0, DWORD PTR [ecx]
  0000a	f3 0f 10 0a	 movss	 xmm1, DWORD PTR [edx]
  0000e	8b 45 08	 mov	 eax, DWORD PTR ___$ReturnUdt$[ebp]
  00011	0f 5a c0	 cvtps2pd xmm0, xmm0
  00014	0f 5a c9	 cvtps2pd xmm1, xmm1
  00017	f2 0f 5c c1	 subsd	 xmm0, xmm1
  0001b	f3 0f 10 4a 04	 movss	 xmm1, DWORD PTR [edx+4]
  00020	66 0f 5a c0	 cvtpd2ps xmm0, xmm0
  00024	f3 0f 11 00	 movss	 DWORD PTR [eax], xmm0
  00028	f3 0f 10 41 04	 movss	 xmm0, DWORD PTR [ecx+4]
  0002d	0f 5a c0	 cvtps2pd xmm0, xmm0
  00030	0f 5a c9	 cvtps2pd xmm1, xmm1
  00033	f2 0f 5c c1	 subsd	 xmm0, xmm1
  00037	f3 0f 10 4a 08	 movss	 xmm1, DWORD PTR [edx+8]
  0003c	66 0f 5a c0	 cvtpd2ps xmm0, xmm0
  00040	f3 0f 11 40 04	 movss	 DWORD PTR [eax+4], xmm0
  00045	f3 0f 10 41 08	 movss	 xmm0, DWORD PTR [ecx+8]
  0004a	0f 5a c0	 cvtps2pd xmm0, xmm0
  0004d	0f 5a c9	 cvtps2pd xmm1, xmm1
  00050	f2 0f 5c c1	 subsd	 xmm0, xmm1
  00054	66 0f 5a c0	 cvtpd2ps xmm0, xmm0
  00058	f3 0f 11 40 08	 movss	 DWORD PTR [eax+8], xmm0

; 388  : }

  0005d	5d		 pop	 ebp
  0005e	c2 08 00	 ret	 8
??GD3DXVECTOR3@@QBE?AU0@ABU0@@Z ENDP			; D3DXVECTOR3::operator-
_TEXT	ENDS
PUBLIC	?D3DXVec3LengthSq@@YAMPBUD3DXVECTOR3@@@Z	; D3DXVec3LengthSq
; Function compile flags: /Ogsp
;	COMDAT ?D3DXVec3LengthSq@@YAMPBUD3DXVECTOR3@@@Z
_TEXT	SEGMENT
tv165 = 8						; size = 4
_pV$ = 8						; size = 4
?D3DXVec3LengthSq@@YAMPBUD3DXVECTOR3@@@Z PROC		; D3DXVec3LengthSq, COMDAT

; 1725 : {

  00000	55		 push	 ebp
  00001	8b ec		 mov	 ebp, esp

; 1726 : #ifdef D3DX_DEBUG
; 1727 :     if(!pV)
; 1728 :         return 0.0f;
; 1729 : #endif
; 1730 : 
; 1731 :     return pV->x * pV->x + pV->y * pV->y + pV->z * pV->z;

  00003	8b 45 08	 mov	 eax, DWORD PTR _pV$[ebp]
  00006	d9 40 04	 fld	 DWORD PTR [eax+4]
  00009	d9 00		 fld	 DWORD PTR [eax]
  0000b	d9 40 08	 fld	 DWORD PTR [eax+8]
  0000e	d9 c1		 fld	 ST(1)
  00010	de ca		 fmulp	 ST(2), ST(0)
  00012	d9 c2		 fld	 ST(2)
  00014	de cb		 fmulp	 ST(3), ST(0)
  00016	d9 c9		 fxch	 ST(1)
  00018	de c2		 faddp	 ST(2), ST(0)
  0001a	d9 c0		 fld	 ST(0)
  0001c	de c9		 fmulp	 ST(1), ST(0)
  0001e	de c1		 faddp	 ST(1), ST(0)
  00020	d9 5d 08	 fstp	 DWORD PTR tv165[ebp]
  00023	d9 45 08	 fld	 DWORD PTR tv165[ebp]

; 1732 : }

  00026	5d		 pop	 ebp
  00027	c3		 ret	 0
?D3DXVec3LengthSq@@YAMPBUD3DXVECTOR3@@@Z ENDP		; D3DXVec3LengthSq
_TEXT	ENDS
PUBLIC	?D3DXVec3Dot@@YAMPBUD3DXVECTOR3@@0@Z		; D3DXVec3Dot
; Function compile flags: /Ogsp
;	COMDAT ?D3DXVec3Dot@@YAMPBUD3DXVECTOR3@@0@Z
_TEXT	SEGMENT
tv188 = 8						; size = 4
_pV1$ = 8						; size = 4
_pV2$ = 12						; size = 4
?D3DXVec3Dot@@YAMPBUD3DXVECTOR3@@0@Z PROC		; D3DXVec3Dot, COMDAT

; 1736 : {

  00000	55		 push	 ebp
  00001	8b ec		 mov	 ebp, esp

; 1737 : #ifdef D3DX_DEBUG
; 1738 :     if(!pV1 || !pV2)
; 1739 :         return 0.0f;
; 1740 : #endif
; 1741 : 
; 1742 :     return pV1->x * pV2->x + pV1->y * pV2->y + pV1->z * pV2->z;

  00003	8b 45 08	 mov	 eax, DWORD PTR _pV1$[ebp]
  00006	8b 4d 0c	 mov	 ecx, DWORD PTR _pV2$[ebp]
  00009	d9 40 04	 fld	 DWORD PTR [eax+4]
  0000c	d8 49 04	 fmul	 DWORD PTR [ecx+4]
  0000f	d9 00		 fld	 DWORD PTR [eax]
  00011	d8 09		 fmul	 DWORD PTR [ecx]
  00013	de c1		 faddp	 ST(1), ST(0)
  00015	d9 40 08	 fld	 DWORD PTR [eax+8]
  00018	d8 49 08	 fmul	 DWORD PTR [ecx+8]
  0001b	de c1		 faddp	 ST(1), ST(0)
  0001d	d9 5d 08	 fstp	 DWORD PTR tv188[ebp]
  00020	d9 45 08	 fld	 DWORD PTR tv188[ebp]

; 1743 : }

  00023	5d		 pop	 ebp
  00024	c3		 ret	 0
?D3DXVec3Dot@@YAMPBUD3DXVECTOR3@@0@Z ENDP		; D3DXVec3Dot
_TEXT	ENDS
PUBLIC	?return57@@YAIXZ				; return57
; Function compile flags: /Ogsp
; File d:\lost saga for developer\youtube\tutorial\source\src\lsclient\veryoftenusedefine.h
;	COMDAT ?return57@@YAIXZ
_TEXT	SEGMENT
?return57@@YAIXZ PROC					; return57, COMDAT

; 15   : __forceinline unsigned int return57() { __asm mov eax, 57 };

  00000	b8 39 00 00 00	 mov	 eax, 57			; 00000039H
  00005	c3		 ret	 0
?return57@@YAIXZ ENDP					; return57
_TEXT	ENDS
PUBLIC	?DecryptValueToPool@?$CEncrypt@K@@QAEXPAK@Z	; CEncrypt<unsigned long>::DecryptValueToPool
EXTRN	?DecryptByte@ccddaabb@@QBEXPBDPADH@Z:PROC	; ccddaabb::DecryptByte
; Function compile flags: /Ogsp
; File d:\lost saga for developer\youtube\tutorial\source\src\lsclient\encryptvalue.h
;	COMDAT ?DecryptValueToPool@?$CEncrypt@K@@QAEXPAK@Z
_TEXT	SEGMENT
_value$ = 8						; size = 4
?DecryptValueToPool@?$CEncrypt@K@@QAEXPAK@Z PROC	; CEncrypt<unsigned long>::DecryptValueToPool, COMDAT
; _this$ = ecx

; 1256 : 	{

  00000	55		 push	 ebp
  00001	8b ec		 mov	 ebp, esp
  00003	56		 push	 esi

; 1257 : 		m_RC5.DecryptByte( m_MemPool, m_TempMem, 4 );

  00004	8d 71 28	 lea	 esi, DWORD PTR [ecx+40]
  00007	6a 04		 push	 4
  00009	8d 41 1c	 lea	 eax, DWORD PTR [ecx+28]
  0000c	56		 push	 esi
  0000d	50		 push	 eax
  0000e	83 c1 0c	 add	 ecx, 12			; 0000000cH
  00011	e8 00 00 00 00	 call	 ?DecryptByte@ccddaabb@@QBEXPBDPADH@Z ; ccddaabb::DecryptByte

; 1258 : 		*value = *((DWORD*)m_TempMem);

  00016	8b 06		 mov	 eax, DWORD PTR [esi]
  00018	8b 4d 08	 mov	 ecx, DWORD PTR _value$[ebp]
  0001b	89 01		 mov	 DWORD PTR [ecx], eax
  0001d	5e		 pop	 esi

; 1259 : 	}

  0001e	5d		 pop	 ebp
  0001f	c2 04 00	 ret	 4
?DecryptValueToPool@?$CEncrypt@K@@QAEXPAK@Z ENDP	; CEncrypt<unsigned long>::DecryptValueToPool
_TEXT	ENDS
PUBLIC	?DecryptValueToPool@?$CEncrypt@_N@@QAEXPA_N@Z	; CEncrypt<bool>::DecryptValueToPool
; Function compile flags: /Ogsp
;	COMDAT ?DecryptValueToPool@?$CEncrypt@_N@@QAEXPA_N@Z
_TEXT	SEGMENT
_value$ = 8						; size = 4
?DecryptValueToPool@?$CEncrypt@_N@@QAEXPA_N@Z PROC	; CEncrypt<bool>::DecryptValueToPool, COMDAT
; _this$ = ecx

; 219  : 	{

  00000	55		 push	 ebp
  00001	8b ec		 mov	 ebp, esp
  00003	56		 push	 esi

; 220  : 		m_RC5.DecryptByte( m_MemPool, m_TempMem, 4 );

  00004	8d 71 28	 lea	 esi, DWORD PTR [ecx+40]
  00007	6a 04		 push	 4
  00009	8d 41 1c	 lea	 eax, DWORD PTR [ecx+28]
  0000c	56		 push	 esi
  0000d	50		 push	 eax
  0000e	83 c1 0c	 add	 ecx, 12			; 0000000cH
  00011	e8 00 00 00 00	 call	 ?DecryptByte@ccddaabb@@QBEXPBDPADH@Z ; ccddaabb::DecryptByte

; 221  : 		*value = *((bool*)m_TempMem);

  00016	8a 06		 mov	 al, BYTE PTR [esi]
  00018	8b 4d 08	 mov	 ecx, DWORD PTR _value$[ebp]
  0001b	88 01		 mov	 BYTE PTR [ecx], al
  0001d	5e		 pop	 esi

; 222  : 	}

  0001e	5d		 pop	 ebp
  0001f	c2 04 00	 ret	 4
?DecryptValueToPool@?$CEncrypt@_N@@QAEXPA_N@Z ENDP	; CEncrypt<bool>::DecryptValueToPool
_TEXT	ENDS
PUBLIC	?DecryptValueToPool@?$CEncrypt@W4TeamType@@@@QAEXPAW4TeamType@@@Z ; CEncrypt<enum TeamType>::DecryptValueToPool
; Function compile flags: /Ogsp
;	COMDAT ?DecryptValueToPool@?$CEncrypt@W4TeamType@@@@QAEXPAW4TeamType@@@Z
_TEXT	SEGMENT
_value$ = 8						; size = 4
?DecryptValueToPool@?$CEncrypt@W4TeamType@@@@QAEXPAW4TeamType@@@Z PROC ; CEncrypt<enum TeamType>::DecryptValueToPool, COMDAT
; _this$ = ecx

; 2959 : 	{

  00000	55		 push	 ebp
  00001	8b ec		 mov	 ebp, esp
  00003	56		 push	 esi

; 2960 : 		m_RC5.DecryptByte( m_MemPool, m_TempMem, sizeof(TeamType) );

  00004	8d 71 28	 lea	 esi, DWORD PTR [ecx+40]
  00007	6a 04		 push	 4
  00009	8d 41 1c	 lea	 eax, DWORD PTR [ecx+28]
  0000c	56		 push	 esi
  0000d	50		 push	 eax
  0000e	83 c1 0c	 add	 ecx, 12			; 0000000cH
  00011	e8 00 00 00 00	 call	 ?DecryptByte@ccddaabb@@QBEXPBDPADH@Z ; ccddaabb::DecryptByte

; 2961 : 		*value = *((TeamType*)m_TempMem);

  00016	8b 06		 mov	 eax, DWORD PTR [esi]
  00018	8b 4d 08	 mov	 ecx, DWORD PTR _value$[ebp]
  0001b	89 01		 mov	 DWORD PTR [ecx], eax
  0001d	5e		 pop	 esi

; 2962 : 	}

  0001e	5d		 pop	 ebp
  0001f	c2 04 00	 ret	 4
?DecryptValueToPool@?$CEncrypt@W4TeamType@@@@QAEXPAW4TeamType@@@Z ENDP ; CEncrypt<enum TeamType>::DecryptValueToPool
_TEXT	ENDS
EXTRN	__imp_??0exception@std@@QAE@ABV01@@Z:PROC
; Function compile flags: /Ogsp
;	COMDAT ??0bad_alloc@std@@QAE@ABV01@@Z
_TEXT	SEGMENT
___that$ = 8						; size = 4
??0bad_alloc@std@@QAE@ABV01@@Z PROC			; std::bad_alloc::bad_alloc, COMDAT
; _this$ = ecx
  00000	55		 push	 ebp
  00001	8b ec		 mov	 ebp, esp
  00003	56		 push	 esi
  00004	ff 75 08	 push	 DWORD PTR ___that$[ebp]
  00007	8b f1		 mov	 esi, ecx
  00009	ff 15 00 00 00
	00		 call	 DWORD PTR __imp_??0exception@std@@QAE@ABV01@@Z
  0000f	c7 06 00 00 00
	00		 mov	 DWORD PTR [esi], OFFSET ??_7bad_alloc@std@@6B@
  00015	8b c6		 mov	 eax, esi
  00017	5e		 pop	 esi
  00018	5d		 pop	 ebp
  00019	c2 04 00	 ret	 4
??0bad_alloc@std@@QAE@ABV01@@Z ENDP			; std::bad_alloc::bad_alloc
; Function compile flags: /Ogsp
_TEXT	ENDS
;	COMDAT ??_GFD_CloseAliveEnemy@@UAEPAXI@Z
_TEXT	SEGMENT
___flags$ = 8						; size = 4
??_GFD_CloseAliveEnemy@@UAEPAXI@Z PROC			; FD_CloseAliveEnemy::`scalar deleting destructor', COMDAT
; _this$ = ecx
  00000	55		 push	 ebp
  00001	8b ec		 mov	 ebp, esp
  00003	56		 push	 esi
  00004	8b f1		 mov	 esi, ecx
  00006	c7 06 00 00 00
	00		 mov	 DWORD PTR [esi], OFFSET ??_7FD_CloseAliveEnemy@@6B@
  0000c	e8 00 00 00 00	 call	 ??1FindPredicate@@UAE@XZ ; FindPredicate::~FindPredicate
  00011	f6 45 08 01	 test	 BYTE PTR ___flags$[ebp], 1
  00015	74 07		 je	 SHORT $LN1@scalar@2
  00017	56		 push	 esi
  00018	e8 00 00 00 00	 call	 ??3@YAXPAX@Z		; operator delete
  0001d	59		 pop	 ecx
$LN1@scalar@2:
  0001e	8b c6		 mov	 eax, esi
  00020	5e		 pop	 esi
  00021	5d		 pop	 ebp
  00022	c2 04 00	 ret	 4
??_GFD_CloseAliveEnemy@@UAEPAXI@Z ENDP			; FD_CloseAliveEnemy::`scalar deleting destructor'
; Function compile flags: /Ogsp
_TEXT	ENDS
;	COMDAT ??_GFD_AimTarget@@UAEPAXI@Z
_TEXT	SEGMENT
___flags$ = 8						; size = 4
??_GFD_AimTarget@@UAEPAXI@Z PROC			; FD_AimTarget::`scalar deleting destructor', COMDAT
; _this$ = ecx
  00000	55		 push	 ebp
  00001	8b ec		 mov	 ebp, esp
  00003	56		 push	 esi
  00004	8b f1		 mov	 esi, ecx
  00006	c7 06 00 00 00
	00		 mov	 DWORD PTR [esi], OFFSET ??_7FD_AimTarget@@6B@
  0000c	e8 00 00 00 00	 call	 ??1FindPredicate@@UAE@XZ ; FindPredicate::~FindPredicate
  00011	f6 45 08 01	 test	 BYTE PTR ___flags$[ebp], 1
  00015	74 07		 je	 SHORT $LN1@scalar@3
  00017	56		 push	 esi
  00018	e8 00 00 00 00	 call	 ??3@YAXPAX@Z		; operator delete
  0001d	59		 pop	 ecx
$LN1@scalar@3:
  0001e	8b c6		 mov	 eax, esi
  00020	5e		 pop	 esi
  00021	5d		 pop	 ebp
  00022	c2 04 00	 ret	 4
??_GFD_AimTarget@@UAEPAXI@Z ENDP			; FD_AimTarget::`scalar deleting destructor'
; Function compile flags: /Ogsp
_TEXT	ENDS
;	COMDAT ??_GFD_AimTarget_Staff@@UAEPAXI@Z
_TEXT	SEGMENT
___flags$ = 8						; size = 4
??_GFD_AimTarget_Staff@@UAEPAXI@Z PROC			; FD_AimTarget_Staff::`scalar deleting destructor', COMDAT
; _this$ = ecx
  00000	55		 push	 ebp
  00001	8b ec		 mov	 ebp, esp
  00003	56		 push	 esi
  00004	8b f1		 mov	 esi, ecx
  00006	c7 06 00 00 00
	00		 mov	 DWORD PTR [esi], OFFSET ??_7FD_AimTarget_Staff@@6B@
  0000c	e8 00 00 00 00	 call	 ??1FindPredicate@@UAE@XZ ; FindPredicate::~FindPredicate
  00011	f6 45 08 01	 test	 BYTE PTR ___flags$[ebp], 1
  00015	74 07		 je	 SHORT $LN1@scalar@4
  00017	56		 push	 esi
  00018	e8 00 00 00 00	 call	 ??3@YAXPAX@Z		; operator delete
  0001d	59		 pop	 ecx
$LN1@scalar@4:
  0001e	8b c6		 mov	 eax, esi
  00020	5e		 pop	 esi
  00021	5d		 pop	 ebp
  00022	c2 04 00	 ret	 4
??_GFD_AimTarget_Staff@@UAEPAXI@Z ENDP			; FD_AimTarget_Staff::`scalar deleting destructor'
; Function compile flags: /Ogsp
_TEXT	ENDS
;	COMDAT ??_GFD_AimTarget_Bow@@UAEPAXI@Z
_TEXT	SEGMENT
___flags$ = 8						; size = 4
??_GFD_AimTarget_Bow@@UAEPAXI@Z PROC			; FD_AimTarget_Bow::`scalar deleting destructor', COMDAT
; _this$ = ecx
  00000	55		 push	 ebp
  00001	8b ec		 mov	 ebp, esp
  00003	56		 push	 esi
  00004	8b f1		 mov	 esi, ecx
  00006	c7 06 00 00 00
	00		 mov	 DWORD PTR [esi], OFFSET ??_7FD_AimTarget_Bow@@6B@
  0000c	e8 00 00 00 00	 call	 ??1FindPredicate@@UAE@XZ ; FindPredicate::~FindPredicate
  00011	f6 45 08 01	 test	 BYTE PTR ___flags$[ebp], 1
  00015	74 07		 je	 SHORT $LN1@scalar@5
  00017	56		 push	 esi
  00018	e8 00 00 00 00	 call	 ??3@YAXPAX@Z		; operator delete
  0001d	59		 pop	 ecx
$LN1@scalar@5:
  0001e	8b c6		 mov	 eax, esi
  00020	5e		 pop	 esi
  00021	5d		 pop	 ebp
  00022	c2 04 00	 ret	 4
??_GFD_AimTarget_Bow@@UAEPAXI@Z ENDP			; FD_AimTarget_Bow::`scalar deleting destructor'
; Function compile flags: /Ogsp
_TEXT	ENDS
;	COMDAT ??_GFD_SightTarget@@UAEPAXI@Z
_TEXT	SEGMENT
___flags$ = 8						; size = 4
??_GFD_SightTarget@@UAEPAXI@Z PROC			; FD_SightTarget::`scalar deleting destructor', COMDAT
; _this$ = ecx
  00000	55		 push	 ebp
  00001	8b ec		 mov	 ebp, esp
  00003	56		 push	 esi
  00004	8b f1		 mov	 esi, ecx
  00006	c7 06 00 00 00
	00		 mov	 DWORD PTR [esi], OFFSET ??_7FD_SightTarget@@6B@
  0000c	e8 00 00 00 00	 call	 ??1FindPredicate@@UAE@XZ ; FindPredicate::~FindPredicate
  00011	f6 45 08 01	 test	 BYTE PTR ___flags$[ebp], 1
  00015	74 07		 je	 SHORT $LN1@scalar@6
  00017	56		 push	 esi
  00018	e8 00 00 00 00	 call	 ??3@YAXPAX@Z		; operator delete
  0001d	59		 pop	 ecx
$LN1@scalar@6:
  0001e	8b c6		 mov	 eax, esi
  00020	5e		 pop	 esi
  00021	5d		 pop	 ebp
  00022	c2 04 00	 ret	 4
??_GFD_SightTarget@@UAEPAXI@Z ENDP			; FD_SightTarget::`scalar deleting destructor'
_TEXT	ENDS
PUBLIC	__real@00000000
PUBLIC	_pTarget$GSCopy$
PUBLIC	__$ArrayPad$
PUBLIC	?CheckUser@FD_SightTarget@@QAE_NPAVioBaseChar@@@Z ; FD_SightTarget::CheckUser
EXTRN	_D3DXVec3Normalize@8:PROC
EXTRN	___security_cookie:DWORD
;	COMDAT __real@00000000
; File c:\program files (x86)\microsoft directx sdk (june 2010)\include\d3dx9math.inl
CONST	SEGMENT
__real@00000000 DD 000000000r			; 0
; Function compile flags: /Ogsp
; File d:\lost saga for developer\youtube\tutorial\source\src\lsclient\findpredicateimpl.cpp
CONST	ENDS
;	COMDAT ?CheckUser@FD_SightTarget@@QAE_NPAVioBaseChar@@@Z
_TEXT	SEGMENT
_vOwnerPos$ = -52					; size = 12
_vCharDir$ = -40					; size = 12
tv284 = -28						; size = 8
tv349 = -24						; size = 4
tv346 = -24						; size = 4
tv342 = -24						; size = 4
tv338 = -24						; size = 4
_pTarget$GSCopy$ = -24					; size = 4
tv335 = -20						; size = 4
tv329 = -20						; size = 4
$T545507 = -20						; size = 4
_vDiff$ = -16						; size = 12
__$ArrayPad$ = -4					; size = 4
_pTarget$ = 8						; size = 4
?CheckUser@FD_SightTarget@@QAE_NPAVioBaseChar@@@Z PROC	; FD_SightTarget::CheckUser, COMDAT
; _this$ = ecx

; 374  : {

  00000	55		 push	 ebp
  00001	8b ec		 mov	 ebp, esp
  00003	83 ec 34	 sub	 esp, 52			; 00000034H
  00006	a1 00 00 00 00	 mov	 eax, DWORD PTR ___security_cookie
  0000b	33 c5		 xor	 eax, ebp
  0000d	89 45 fc	 mov	 DWORD PTR __$ArrayPad$[ebp], eax
  00010	8b 45 08	 mov	 eax, DWORD PTR _pTarget$[ebp]
  00013	53		 push	 ebx
  00014	8b d9		 mov	 ebx, ecx

; 375  : 	if(pTarget == NULL) return false;
; 376  : 
; 377  : 	D3DXVECTOR3 vCharDir  = m_pOwner->GetMoveDir();

  00016	89 45 e8	 mov	 DWORD PTR _pTarget$GSCopy$[ebp], eax
  00019	85 c0		 test	 eax, eax
  0001b	0f 84 e3 00 00
	00		 je	 $LN1@CheckUser

; 378  : 	D3DXVECTOR3 vOwnerPos = m_pOwner->GetWorldPosition();

  00021	8b 4b 04	 mov	 ecx, DWORD PTR [ebx+4]
  00024	8b 01		 mov	 eax, DWORD PTR [ecx]
  00026	56		 push	 esi
  00027	8b 73 04	 mov	 esi, DWORD PTR [ebx+4]
  0002a	57		 push	 edi
  0002b	81 c6 b4 06 00
	00		 add	 esi, 1716		; 000006b4H
  00031	8d 7d d8	 lea	 edi, DWORD PTR _vCharDir$[ebp]
  00034	a5		 movsd
  00035	a5		 movsd
  00036	a5		 movsd
  00037	ff 50 70	 call	 DWORD PTR [eax+112]
  0003a	8b f0		 mov	 esi, eax

; 379  : 	float fHalfCosine = cosf( DEGtoRAD( m_fSightAngle ) * FLOAT05 );

  0003c	d9 43 08	 fld	 DWORD PTR [ebx+8]
  0003f	8d 7d cc	 lea	 edi, DWORD PTR _vOwnerPos$[ebp]
  00042	dc 0d 00 00 00
	00		 fmul	 QWORD PTR __real@3f91df46a2526c7a
  00048	a5		 movsd
  00049	a5		 movsd
  0004a	d9 5d ec	 fstp	 DWORD PTR $T545507[ebp]
  0004d	a5		 movsd
  0004e	b8 05 00 00 00	 mov	 eax, 5
  00053	8b f0		 mov	 esi, eax
  00055	b8 0a 00 00 00	 mov	 eax, 10			; 0000000aH

; 380  : 
; 381  : 	D3DXVECTOR3 vDiff = pTarget->GetWorldPosition() - vOwnerPos;

  0005a	8b 4d e8	 mov	 ecx, DWORD PTR _pTarget$GSCopy$[ebp]
  0005d	8b f8		 mov	 edi, eax
  0005f	8b 01		 mov	 eax, DWORD PTR [ecx]
  00061	ff 50 70	 call	 DWORD PTR [eax+112]
  00064	d9 00		 fld	 DWORD PTR [eax]
  00066	f3 0f 10 40 08	 movss	 xmm0, DWORD PTR [eax+8]
  0006b	d8 65 cc	 fsub	 DWORD PTR _vOwnerPos$[ebp]
  0006e	f3 0f 10 4d d4	 movss	 xmm1, DWORD PTR _vOwnerPos$[ebp+8]

; 382  : 	vDiff.y = 0.0f;
; 383  : 	D3DXVec3Normalize( &vDiff, &vDiff );

  00073	8d 45 f0	 lea	 eax, DWORD PTR _vDiff$[ebp]
  00076	d9 5d f0	 fstp	 DWORD PTR _vDiff$[ebp]
  00079	0f 5a c0	 cvtps2pd xmm0, xmm0
  0007c	d9 ee		 fldz
  0007e	0f 5a c9	 cvtps2pd xmm1, xmm1
  00081	50		 push	 eax
  00082	d9 5d f4	 fstp	 DWORD PTR _vDiff$[ebp+4]
  00085	f2 0f 5c c1	 subsd	 xmm0, xmm1
  00089	66 0f 5a c0	 cvtpd2ps xmm0, xmm0
  0008d	50		 push	 eax
  0008e	f3 0f 11 45 f8	 movss	 DWORD PTR _vDiff$[ebp+8], xmm0
  00093	e8 00 00 00 00	 call	 _D3DXVec3Normalize@8

; 384  : 	
; 385  : 	if( D3DXVec3Dot( &vCharDir, &vDiff ) >= fHalfCosine )

  00098	d9 45 f0	 fld	 DWORD PTR _vDiff$[ebp]
  0009b	d8 4d d8	 fmul	 DWORD PTR _vCharDir$[ebp]
  0009e	d9 45 dc	 fld	 DWORD PTR _vCharDir$[ebp+4]
  000a1	d8 4d f4	 fmul	 DWORD PTR _vDiff$[ebp+4]
  000a4	de c1		 faddp	 ST(1), ST(0)
  000a6	d9 45 e0	 fld	 DWORD PTR _vCharDir$[ebp+8]
  000a9	d8 4d f8	 fmul	 DWORD PTR _vDiff$[ebp+8]
  000ac	de c1		 faddp	 ST(1), ST(0)
  000ae	d9 5d e8	 fstp	 DWORD PTR tv349[ebp]
  000b1	d9 45 e8	 fld	 DWORD PTR tv349[ebp]
  000b4	89 75 e8	 mov	 DWORD PTR tv346[ebp], esi
  000b7	db 45 e8	 fild	 DWORD PTR tv346[ebp]
  000ba	85 f6		 test	 esi, esi
  000bc	79 06		 jns	 SHORT $LN21@CheckUser
  000be	d8 05 00 00 00
	00		 fadd	 DWORD PTR __real@4f800000
$LN21@CheckUser:
  000c4	89 7d e8	 mov	 DWORD PTR tv342[ebp], edi
  000c7	db 45 e8	 fild	 DWORD PTR tv342[ebp]
  000ca	85 ff		 test	 edi, edi
  000cc	79 06		 jns	 SHORT $LN22@CheckUser
  000ce	d8 05 00 00 00
	00		 fadd	 DWORD PTR __real@4f800000
$LN22@CheckUser:

; 379  : 	float fHalfCosine = cosf( DEGtoRAD( m_fSightAngle ) * FLOAT05 );

  000d4	de f9		 fdivp	 ST(1), ST(0)

; 384  : 	
; 385  : 	if( D3DXVec3Dot( &vCharDir, &vDiff ) >= fHalfCosine )

  000d6	d9 5d e8	 fstp	 DWORD PTR tv338[ebp]
  000d9	d9 45 e8	 fld	 DWORD PTR tv338[ebp]
  000dc	d8 4d ec	 fmul	 DWORD PTR $T545507[ebp]
  000df	d9 5d ec	 fstp	 DWORD PTR tv335[ebp]
  000e2	d9 45 ec	 fld	 DWORD PTR tv335[ebp]
  000e5	d9 c9		 fxch	 ST(1)
  000e7	dd 5d e4	 fstp	 QWORD PTR tv284[ebp]
  000ea	e8 00 00 00 00	 call	 __CIcos
  000ef	d9 5d ec	 fstp	 DWORD PTR tv329[ebp]
  000f2	d9 45 ec	 fld	 DWORD PTR tv329[ebp]
  000f5	5f		 pop	 edi
  000f6	dd 45 e4	 fld	 QWORD PTR tv284[ebp]
  000f9	5e		 pop	 esi
  000fa	df f1		 fcomip	 ST(1)
  000fc	dd d8		 fstp	 ST(0)
  000fe	72 04		 jb	 SHORT $LN1@CheckUser

; 386  : 		return true;

  00100	b0 01		 mov	 al, 1
  00102	eb 02		 jmp	 SHORT $LN3@CheckUser
$LN1@CheckUser:

; 387  : 	
; 388  : 	return false;

  00104	32 c0		 xor	 al, al
$LN3@CheckUser:

; 389  : }

  00106	8b 4d fc	 mov	 ecx, DWORD PTR __$ArrayPad$[ebp]
  00109	33 cd		 xor	 ecx, ebp
  0010b	5b		 pop	 ebx
  0010c	e8 00 00 00 00	 call	 @__security_check_cookie@4
  00111	c9		 leave
  00112	c2 04 00	 ret	 4
?CheckUser@FD_SightTarget@@QAE_NPAVioBaseChar@@@Z ENDP	; FD_SightTarget::CheckUser
; Function compile flags: /Ogsp
_TEXT	ENDS
;	COMDAT ??_GFD_AutoTarget@@UAEPAXI@Z
_TEXT	SEGMENT
___flags$ = 8						; size = 4
??_GFD_AutoTarget@@UAEPAXI@Z PROC			; FD_AutoTarget::`scalar deleting destructor', COMDAT
; _this$ = ecx
  00000	55		 push	 ebp
  00001	8b ec		 mov	 ebp, esp
  00003	56		 push	 esi
  00004	8b f1		 mov	 esi, ecx
  00006	c7 06 00 00 00
	00		 mov	 DWORD PTR [esi], OFFSET ??_7FD_AutoTarget@@6B@
  0000c	e8 00 00 00 00	 call	 ??1FindPredicate@@UAE@XZ ; FindPredicate::~FindPredicate
  00011	f6 45 08 01	 test	 BYTE PTR ___flags$[ebp], 1
  00015	74 07		 je	 SHORT $LN1@scalar@7
  00017	56		 push	 esi
  00018	e8 00 00 00 00	 call	 ??3@YAXPAX@Z		; operator delete
  0001d	59		 pop	 ecx
$LN1@scalar@7:
  0001e	8b c6		 mov	 eax, esi
  00020	5e		 pop	 esi
  00021	5d		 pop	 ebp
  00022	c2 04 00	 ret	 4
??_GFD_AutoTarget@@UAEPAXI@Z ENDP			; FD_AutoTarget::`scalar deleting destructor'
; Function compile flags: /Ogsp
_TEXT	ENDS
;	COMDAT ??_GFD_CloseChainTarget@@UAEPAXI@Z
_TEXT	SEGMENT
___flags$ = 8						; size = 4
??_GFD_CloseChainTarget@@UAEPAXI@Z PROC			; FD_CloseChainTarget::`scalar deleting destructor', COMDAT
; _this$ = ecx
  00000	55		 push	 ebp
  00001	8b ec		 mov	 ebp, esp
  00003	56		 push	 esi
  00004	8b f1		 mov	 esi, ecx
  00006	c7 06 00 00 00
	00		 mov	 DWORD PTR [esi], OFFSET ??_7FD_CloseChainTarget@@6B@
  0000c	e8 00 00 00 00	 call	 ??1FindPredicate@@UAE@XZ ; FindPredicate::~FindPredicate
  00011	f6 45 08 01	 test	 BYTE PTR ___flags$[ebp], 1
  00015	74 07		 je	 SHORT $LN1@scalar@8
  00017	56		 push	 esi
  00018	e8 00 00 00 00	 call	 ??3@YAXPAX@Z		; operator delete
  0001d	59		 pop	 ecx
$LN1@scalar@8:
  0001e	8b c6		 mov	 eax, esi
  00020	5e		 pop	 esi
  00021	5d		 pop	 ebp
  00022	c2 04 00	 ret	 4
??_GFD_CloseChainTarget@@UAEPAXI@Z ENDP			; FD_CloseChainTarget::`scalar deleting destructor'
; Function compile flags: /Ogsp
_TEXT	ENDS
;	COMDAT ??_GFD_GrapplingAutoTarget@@UAEPAXI@Z
_TEXT	SEGMENT
___flags$ = 8						; size = 4
??_GFD_GrapplingAutoTarget@@UAEPAXI@Z PROC		; FD_GrapplingAutoTarget::`scalar deleting destructor', COMDAT
; _this$ = ecx
  00000	55		 push	 ebp
  00001	8b ec		 mov	 ebp, esp
  00003	56		 push	 esi
  00004	8b f1		 mov	 esi, ecx
  00006	c7 06 00 00 00
	00		 mov	 DWORD PTR [esi], OFFSET ??_7FD_GrapplingAutoTarget@@6B@
  0000c	e8 00 00 00 00	 call	 ??1FindPredicate@@UAE@XZ ; FindPredicate::~FindPredicate
  00011	f6 45 08 01	 test	 BYTE PTR ___flags$[ebp], 1
  00015	74 07		 je	 SHORT $LN1@scalar@9
  00017	56		 push	 esi
  00018	e8 00 00 00 00	 call	 ??3@YAXPAX@Z		; operator delete
  0001d	59		 pop	 ecx
$LN1@scalar@9:
  0001e	8b c6		 mov	 eax, esi
  00020	5e		 pop	 esi
  00021	5d		 pop	 ebp
  00022	c2 04 00	 ret	 4
??_GFD_GrapplingAutoTarget@@UAEPAXI@Z ENDP		; FD_GrapplingAutoTarget::`scalar deleting destructor'
; Function compile flags: /Ogsp
_TEXT	ENDS
;	COMDAT ??_GFD_RangeTarget@@UAEPAXI@Z
_TEXT	SEGMENT
___flags$ = 8						; size = 4
??_GFD_RangeTarget@@UAEPAXI@Z PROC			; FD_RangeTarget::`scalar deleting destructor', COMDAT
; _this$ = ecx
  00000	55		 push	 ebp
  00001	8b ec		 mov	 ebp, esp
  00003	56		 push	 esi
  00004	8b f1		 mov	 esi, ecx
  00006	c7 06 00 00 00
	00		 mov	 DWORD PTR [esi], OFFSET ??_7FD_RangeTarget@@6B@
  0000c	e8 00 00 00 00	 call	 ??1FindPredicate@@UAE@XZ ; FindPredicate::~FindPredicate
  00011	f6 45 08 01	 test	 BYTE PTR ___flags$[ebp], 1
  00015	74 07		 je	 SHORT $LN1@scalar@10
  00017	56		 push	 esi
  00018	e8 00 00 00 00	 call	 ??3@YAXPAX@Z		; operator delete
  0001d	59		 pop	 ecx
$LN1@scalar@10:
  0001e	8b c6		 mov	 eax, esi
  00020	5e		 pop	 esi
  00021	5d		 pop	 ebp
  00022	c2 04 00	 ret	 4
??_GFD_RangeTarget@@UAEPAXI@Z ENDP			; FD_RangeTarget::`scalar deleting destructor'
; Function compile flags: /Ogsp
_TEXT	ENDS
;	COMDAT ??_GFD_BuffHasTarget@@UAEPAXI@Z
_TEXT	SEGMENT
___flags$ = 8						; size = 4
??_GFD_BuffHasTarget@@UAEPAXI@Z PROC			; FD_BuffHasTarget::`scalar deleting destructor', COMDAT
; _this$ = ecx
  00000	55		 push	 ebp
  00001	8b ec		 mov	 ebp, esp
  00003	56		 push	 esi
  00004	8b f1		 mov	 esi, ecx
  00006	e8 00 00 00 00	 call	 ??1FD_BuffHasTarget@@UAE@XZ ; FD_BuffHasTarget::~FD_BuffHasTarget
  0000b	f6 45 08 01	 test	 BYTE PTR ___flags$[ebp], 1
  0000f	74 07		 je	 SHORT $LN1@scalar@11
  00011	56		 push	 esi
  00012	e8 00 00 00 00	 call	 ??3@YAXPAX@Z		; operator delete
  00017	59		 pop	 ecx
$LN1@scalar@11:
  00018	8b c6		 mov	 eax, esi
  0001a	5e		 pop	 esi
  0001b	5d		 pop	 ebp
  0001c	c2 04 00	 ret	 4
??_GFD_BuffHasTarget@@UAEPAXI@Z ENDP			; FD_BuffHasTarget::`scalar deleting destructor'
; Function compile flags: /Ogsp
_TEXT	ENDS
;	COMDAT ??_GFD_RangeMultipleTarget@@UAEPAXI@Z
_TEXT	SEGMENT
___flags$ = 8						; size = 4
??_GFD_RangeMultipleTarget@@UAEPAXI@Z PROC		; FD_RangeMultipleTarget::`scalar deleting destructor', COMDAT
; _this$ = ecx
  00000	55		 push	 ebp
  00001	8b ec		 mov	 ebp, esp
  00003	56		 push	 esi
  00004	8b f1		 mov	 esi, ecx
  00006	c7 06 00 00 00
	00		 mov	 DWORD PTR [esi], OFFSET ??_7FD_RangeTarget@@6B@
  0000c	e8 00 00 00 00	 call	 ??1FindPredicate@@UAE@XZ ; FindPredicate::~FindPredicate
  00011	f6 45 08 01	 test	 BYTE PTR ___flags$[ebp], 1
  00015	74 07		 je	 SHORT $LN1@scalar@12
  00017	56		 push	 esi
  00018	e8 00 00 00 00	 call	 ??3@YAXPAX@Z		; operator delete
  0001d	59		 pop	 ecx
$LN1@scalar@12:
  0001e	8b c6		 mov	 eax, esi
  00020	5e		 pop	 esi
  00021	5d		 pop	 ebp
  00022	c2 04 00	 ret	 4
??_GFD_RangeMultipleTarget@@UAEPAXI@Z ENDP		; FD_RangeMultipleTarget::`scalar deleting destructor'
_TEXT	ENDS
PUBLIC	?begin@?$vector@PAVioBaseChar@@V?$allocator@PAVioBaseChar@@@std@@@std@@QBE?AV?$_Vector_const_iterator@V?$_Vector_val@PAVioBaseChar@@V?$allocator@PAVioBaseChar@@@std@@@std@@@2@XZ ; std::vector<ioBaseChar *,std::allocator<ioBaseChar *> >::begin
; Function compile flags: /Ogsp
; File c:\program files (x86)\microsoft visual studio 10.0\vc\include\vector
;	COMDAT ?begin@?$vector@PAVioBaseChar@@V?$allocator@PAVioBaseChar@@@std@@@std@@QBE?AV?$_Vector_const_iterator@V?$_Vector_val@PAVioBaseChar@@V?$allocator@PAVioBaseChar@@@std@@@std@@@2@XZ
_TEXT	SEGMENT
___$ReturnUdt$ = 8					; size = 4
?begin@?$vector@PAVioBaseChar@@V?$allocator@PAVioBaseChar@@@std@@@std@@QBE?AV?$_Vector_const_iterator@V?$_Vector_val@PAVioBaseChar@@V?$allocator@PAVioBaseChar@@@std@@@std@@@2@XZ PROC ; std::vector<ioBaseChar *,std::allocator<ioBaseChar *> >::begin, COMDAT
; _this$ = ecx

; 786  : 		{	// return iterator for beginning of nonmutable sequence

  00000	55		 push	 ebp
  00001	8b ec		 mov	 ebp, esp

; 787  : 		return (const_iterator(this->_Myfirst, this));

  00003	8b 09		 mov	 ecx, DWORD PTR [ecx]
  00005	8b 45 08	 mov	 eax, DWORD PTR ___$ReturnUdt$[ebp]
  00008	89 08		 mov	 DWORD PTR [eax], ecx

; 788  : 		}

  0000a	5d		 pop	 ebp
  0000b	c2 04 00	 ret	 4
?begin@?$vector@PAVioBaseChar@@V?$allocator@PAVioBaseChar@@@std@@@std@@QBE?AV?$_Vector_const_iterator@V?$_Vector_val@PAVioBaseChar@@V?$allocator@PAVioBaseChar@@@std@@@std@@@2@XZ ENDP ; std::vector<ioBaseChar *,std::allocator<ioBaseChar *> >::begin
_TEXT	ENDS
PUBLIC	?end@?$vector@PAVioBaseChar@@V?$allocator@PAVioBaseChar@@@std@@@std@@QBE?AV?$_Vector_const_iterator@V?$_Vector_val@PAVioBaseChar@@V?$allocator@PAVioBaseChar@@@std@@@std@@@2@XZ ; std::vector<ioBaseChar *,std::allocator<ioBaseChar *> >::end
; Function compile flags: /Ogsp
;	COMDAT ?end@?$vector@PAVioBaseChar@@V?$allocator@PAVioBaseChar@@@std@@@std@@QBE?AV?$_Vector_const_iterator@V?$_Vector_val@PAVioBaseChar@@V?$allocator@PAVioBaseChar@@@std@@@std@@@2@XZ
_TEXT	SEGMENT
___$ReturnUdt$ = 8					; size = 4
?end@?$vector@PAVioBaseChar@@V?$allocator@PAVioBaseChar@@@std@@@std@@QBE?AV?$_Vector_const_iterator@V?$_Vector_val@PAVioBaseChar@@V?$allocator@PAVioBaseChar@@@std@@@std@@@2@XZ PROC ; std::vector<ioBaseChar *,std::allocator<ioBaseChar *> >::end, COMDAT
; _this$ = ecx

; 796  : 		{	// return iterator for end of nonmutable sequence

  00000	55		 push	 ebp
  00001	8b ec		 mov	 ebp, esp

; 797  : 		return (const_iterator(this->_Mylast, this));

  00003	8b 49 04	 mov	 ecx, DWORD PTR [ecx+4]
  00006	8b 45 08	 mov	 eax, DWORD PTR ___$ReturnUdt$[ebp]
  00009	89 08		 mov	 DWORD PTR [eax], ecx

; 798  : 		}

  0000b	5d		 pop	 ebp
  0000c	c2 04 00	 ret	 4
?end@?$vector@PAVioBaseChar@@V?$allocator@PAVioBaseChar@@@std@@@std@@QBE?AV?$_Vector_const_iterator@V?$_Vector_val@PAVioBaseChar@@V?$allocator@PAVioBaseChar@@@std@@@std@@@2@XZ ENDP ; std::vector<ioBaseChar *,std::allocator<ioBaseChar *> >::end
_TEXT	ENDS
PUBLIC	??0?$_Vector_iterator@V?$_Vector_val@UCharDistanceSq@FindPredicate@@V?$allocator@UCharDistanceSq@FindPredicate@@@std@@@std@@@std@@QAE@XZ ; std::_Vector_iterator<std::_Vector_val<FindPredicate::CharDistanceSq,std::allocator<FindPredicate::CharDistanceSq> > >::_Vector_iterator<std::_Vector_val<FindPredicate::CharDistanceSq,std::allocator<FindPredicate::CharDistanceSq> > >
; Function compile flags: /Ogsp
;	COMDAT ??0?$_Vector_iterator@V?$_Vector_val@UCharDistanceSq@FindPredicate@@V?$allocator@UCharDistanceSq@FindPredicate@@@std@@@std@@@std@@QAE@XZ
_TEXT	SEGMENT
??0?$_Vector_iterator@V?$_Vector_val@UCharDistanceSq@FindPredicate@@V?$allocator@UCharDistanceSq@FindPredicate@@@std@@@std@@@std@@QAE@XZ PROC ; std::_Vector_iterator<std::_Vector_val<FindPredicate::CharDistanceSq,std::allocator<FindPredicate::CharDistanceSq> > >::_Vector_iterator<std::_Vector_val<FindPredicate::CharDistanceSq,std::allocator<FindPredicate::CharDistanceSq> > >, COMDAT
; _this$ = ecx

; 298  : 	_Vector_iterator()

  00000	8b c1		 mov	 eax, ecx
  00002	83 20 00	 and	 DWORD PTR [eax], 0

; 299  : 		{	// construct with null vector pointer
; 300  : 		}

  00005	c3		 ret	 0
??0?$_Vector_iterator@V?$_Vector_val@UCharDistanceSq@FindPredicate@@V?$allocator@UCharDistanceSq@FindPredicate@@@std@@@std@@@std@@QAE@XZ ENDP ; std::_Vector_iterator<std::_Vector_val<FindPredicate::CharDistanceSq,std::allocator<FindPredicate::CharDistanceSq> > >::_Vector_iterator<std::_Vector_val<FindPredicate::CharDistanceSq,std::allocator<FindPredicate::CharDistanceSq> > >
_TEXT	ENDS
PUBLIC	??E?$_Vector_iterator@V?$_Vector_val@UCharDistanceSq@FindPredicate@@V?$allocator@UCharDistanceSq@FindPredicate@@@std@@@std@@@std@@QAEAAV01@XZ ; std::_Vector_iterator<std::_Vector_val<FindPredicate::CharDistanceSq,std::allocator<FindPredicate::CharDistanceSq> > >::operator++
; Function compile flags: /Ogsp
;	COMDAT ??E?$_Vector_iterator@V?$_Vector_val@UCharDistanceSq@FindPredicate@@V?$allocator@UCharDistanceSq@FindPredicate@@@std@@@std@@@std@@QAEAAV01@XZ
_TEXT	SEGMENT
??E?$_Vector_iterator@V?$_Vector_val@UCharDistanceSq@FindPredicate@@V?$allocator@UCharDistanceSq@FindPredicate@@@std@@@std@@@std@@QAEAAV01@XZ PROC ; std::_Vector_iterator<std::_Vector_val<FindPredicate::CharDistanceSq,std::allocator<FindPredicate::CharDistanceSq> > >::operator++, COMDAT
; _this$ = ecx

; 331  : 		{	// preincrement

  00000	8b c1		 mov	 eax, ecx

; 332  : 		++*(_Mybase *)this;

  00002	83 00 08	 add	 DWORD PTR [eax], 8

; 333  : 		return (*this);
; 334  : 		}

  00005	c3		 ret	 0
??E?$_Vector_iterator@V?$_Vector_val@UCharDistanceSq@FindPredicate@@V?$allocator@UCharDistanceSq@FindPredicate@@@std@@@std@@@std@@QAEAAV01@XZ ENDP ; std::_Vector_iterator<std::_Vector_val<FindPredicate::CharDistanceSq,std::allocator<FindPredicate::CharDistanceSq> > >::operator++
_TEXT	ENDS
PUBLIC	??E?$_Vector_iterator@V?$_Vector_val@UCharAngle@FindPredicate@@V?$allocator@UCharAngle@FindPredicate@@@std@@@std@@@std@@QAEAAV01@XZ ; std::_Vector_iterator<std::_Vector_val<FindPredicate::CharAngle,std::allocator<FindPredicate::CharAngle> > >::operator++
; Function compile flags: /Ogsp
;	COMDAT ??E?$_Vector_iterator@V?$_Vector_val@UCharAngle@FindPredicate@@V?$allocator@UCharAngle@FindPredicate@@@std@@@std@@@std@@QAEAAV01@XZ
_TEXT	SEGMENT
??E?$_Vector_iterator@V?$_Vector_val@UCharAngle@FindPredicate@@V?$allocator@UCharAngle@FindPredicate@@@std@@@std@@@std@@QAEAAV01@XZ PROC ; std::_Vector_iterator<std::_Vector_val<FindPredicate::CharAngle,std::allocator<FindPredicate::CharAngle> > >::operator++, COMDAT
; _this$ = ecx

; 331  : 		{	// preincrement

  00000	8b c1		 mov	 eax, ecx

; 332  : 		++*(_Mybase *)this;

  00002	83 00 08	 add	 DWORD PTR [eax], 8

; 333  : 		return (*this);
; 334  : 		}

  00005	c3		 ret	 0
??E?$_Vector_iterator@V?$_Vector_val@UCharAngle@FindPredicate@@V?$allocator@UCharAngle@FindPredicate@@@std@@@std@@@std@@QAEAAV01@XZ ENDP ; std::_Vector_iterator<std::_Vector_val<FindPredicate::CharAngle,std::allocator<FindPredicate::CharAngle> > >::operator++
_TEXT	ENDS
PUBLIC	?begin@?$vector@PAVioBaseChar@@V?$allocator@PAVioBaseChar@@@std@@@std@@QAE?AV?$_Vector_iterator@V?$_Vector_val@PAVioBaseChar@@V?$allocator@PAVioBaseChar@@@std@@@std@@@2@XZ ; std::vector<ioBaseChar *,std::allocator<ioBaseChar *> >::begin
; Function compile flags: /Ogsp
;	COMDAT ?begin@?$vector@PAVioBaseChar@@V?$allocator@PAVioBaseChar@@@std@@@std@@QAE?AV?$_Vector_iterator@V?$_Vector_val@PAVioBaseChar@@V?$allocator@PAVioBaseChar@@@std@@@std@@@2@XZ
_TEXT	SEGMENT
___$ReturnUdt$ = 8					; size = 4
?begin@?$vector@PAVioBaseChar@@V?$allocator@PAVioBaseChar@@@std@@@std@@QAE?AV?$_Vector_iterator@V?$_Vector_val@PAVioBaseChar@@V?$allocator@PAVioBaseChar@@@std@@@std@@@2@XZ PROC ; std::vector<ioBaseChar *,std::allocator<ioBaseChar *> >::begin, COMDAT
; _this$ = ecx

; 781  : 		{	// return iterator for beginning of mutable sequence

  00000	55		 push	 ebp
  00001	8b ec		 mov	 ebp, esp

; 782  : 		return (iterator(this->_Myfirst, this));

  00003	8b 09		 mov	 ecx, DWORD PTR [ecx]
  00005	8b 45 08	 mov	 eax, DWORD PTR ___$ReturnUdt$[ebp]
  00008	89 08		 mov	 DWORD PTR [eax], ecx

; 783  : 		}

  0000a	5d		 pop	 ebp
  0000b	c2 04 00	 ret	 4
?begin@?$vector@PAVioBaseChar@@V?$allocator@PAVioBaseChar@@@std@@@std@@QAE?AV?$_Vector_iterator@V?$_Vector_val@PAVioBaseChar@@V?$allocator@PAVioBaseChar@@@std@@@std@@@2@XZ ENDP ; std::vector<ioBaseChar *,std::allocator<ioBaseChar *> >::begin
_TEXT	ENDS
PUBLIC	?end@?$vector@PAVioBaseChar@@V?$allocator@PAVioBaseChar@@@std@@@std@@QAE?AV?$_Vector_iterator@V?$_Vector_val@PAVioBaseChar@@V?$allocator@PAVioBaseChar@@@std@@@std@@@2@XZ ; std::vector<ioBaseChar *,std::allocator<ioBaseChar *> >::end
; Function compile flags: /Ogsp
;	COMDAT ?end@?$vector@PAVioBaseChar@@V?$allocator@PAVioBaseChar@@@std@@@std@@QAE?AV?$_Vector_iterator@V?$_Vector_val@PAVioBaseChar@@V?$allocator@PAVioBaseChar@@@std@@@std@@@2@XZ
_TEXT	SEGMENT
___$ReturnUdt$ = 8					; size = 4
?end@?$vector@PAVioBaseChar@@V?$allocator@PAVioBaseChar@@@std@@@std@@QAE?AV?$_Vector_iterator@V?$_Vector_val@PAVioBaseChar@@V?$allocator@PAVioBaseChar@@@std@@@std@@@2@XZ PROC ; std::vector<ioBaseChar *,std::allocator<ioBaseChar *> >::end, COMDAT
; _this$ = ecx

; 791  : 		{	// return iterator for end of mutable sequence

  00000	55		 push	 ebp
  00001	8b ec		 mov	 ebp, esp

; 792  : 		return (iterator(this->_Mylast, this));

  00003	8b 49 04	 mov	 ecx, DWORD PTR [ecx+4]
  00006	8b 45 08	 mov	 eax, DWORD PTR ___$ReturnUdt$[ebp]
  00009	89 08		 mov	 DWORD PTR [eax], ecx

; 793  : 		}

  0000b	5d		 pop	 ebp
  0000c	c2 04 00	 ret	 4
?end@?$vector@PAVioBaseChar@@V?$allocator@PAVioBaseChar@@@std@@@std@@QAE?AV?$_Vector_iterator@V?$_Vector_val@PAVioBaseChar@@V?$allocator@PAVioBaseChar@@@std@@@std@@@2@XZ ENDP ; std::vector<ioBaseChar *,std::allocator<ioBaseChar *> >::end
_TEXT	ENDS
PUBLIC	??0?$_Vector_iterator@V?$_Vector_val@UCharDistanceSq@FindPredicate@@V?$allocator@UCharDistanceSq@FindPredicate@@@std@@@std@@@std@@QAE@PAUCharDistanceSq@FindPredicate@@PBU_Container_base0@1@@Z ; std::_Vector_iterator<std::_Vector_val<FindPredicate::CharDistanceSq,std::allocator<FindPredicate::CharDistanceSq> > >::_Vector_iterator<std::_Vector_val<FindPredicate::CharDistanceSq,std::allocator<FindPredicate::CharDistanceSq> > >
; Function compile flags: /Ogsp
;	COMDAT ??0?$_Vector_iterator@V?$_Vector_val@UCharDistanceSq@FindPredicate@@V?$allocator@UCharDistanceSq@FindPredicate@@@std@@@std@@@std@@QAE@PAUCharDistanceSq@FindPredicate@@PBU_Container_base0@1@@Z
_TEXT	SEGMENT
__Parg$ = 8						; size = 4
__Pvector$ = 12						; size = 4
??0?$_Vector_iterator@V?$_Vector_val@UCharDistanceSq@FindPredicate@@V?$allocator@UCharDistanceSq@FindPredicate@@@std@@@std@@@std@@QAE@PAUCharDistanceSq@FindPredicate@@PBU_Container_base0@1@@Z PROC ; std::_Vector_iterator<std::_Vector_val<FindPredicate::CharDistanceSq,std::allocator<FindPredicate::CharDistanceSq> > >::_Vector_iterator<std::_Vector_val<FindPredicate::CharDistanceSq,std::allocator<FindPredicate::CharDistanceSq> > >, COMDAT
; _this$ = ecx

; 304  : 		{	// construct with pointer _Parg

  00000	55		 push	 ebp
  00001	8b ec		 mov	 ebp, esp
  00003	8b c1		 mov	 eax, ecx
  00005	8b 4d 08	 mov	 ecx, DWORD PTR __Parg$[ebp]
  00008	89 08		 mov	 DWORD PTR [eax], ecx

; 305  : 		}

  0000a	5d		 pop	 ebp
  0000b	c2 08 00	 ret	 8
??0?$_Vector_iterator@V?$_Vector_val@UCharDistanceSq@FindPredicate@@V?$allocator@UCharDistanceSq@FindPredicate@@@std@@@std@@@std@@QAE@PAUCharDistanceSq@FindPredicate@@PBU_Container_base0@1@@Z ENDP ; std::_Vector_iterator<std::_Vector_val<FindPredicate::CharDistanceSq,std::allocator<FindPredicate::CharDistanceSq> > >::_Vector_iterator<std::_Vector_val<FindPredicate::CharDistanceSq,std::allocator<FindPredicate::CharDistanceSq> > >
_TEXT	ENDS
PUBLIC	??D?$_Vector_iterator@V?$_Vector_val@UCharDistanceSq@FindPredicate@@V?$allocator@UCharDistanceSq@FindPredicate@@@std@@@std@@@std@@QBEAAUCharDistanceSq@FindPredicate@@XZ ; std::_Vector_iterator<std::_Vector_val<FindPredicate::CharDistanceSq,std::allocator<FindPredicate::CharDistanceSq> > >::operator*
; Function compile flags: /Ogsp
;	COMDAT ??D?$_Vector_iterator@V?$_Vector_val@UCharDistanceSq@FindPredicate@@V?$allocator@UCharDistanceSq@FindPredicate@@@std@@@std@@@std@@QBEAAUCharDistanceSq@FindPredicate@@XZ
_TEXT	SEGMENT
??D?$_Vector_iterator@V?$_Vector_val@UCharDistanceSq@FindPredicate@@V?$allocator@UCharDistanceSq@FindPredicate@@@std@@@std@@@std@@QBEAAUCharDistanceSq@FindPredicate@@XZ PROC ; std::_Vector_iterator<std::_Vector_val<FindPredicate::CharDistanceSq,std::allocator<FindPredicate::CharDistanceSq> > >::operator*, COMDAT
; _this$ = ecx

; 322  : 		return ((reference)**(_Mybase *)this);

  00000	8b 01		 mov	 eax, DWORD PTR [ecx]

; 323  : 		}

  00002	c3		 ret	 0
??D?$_Vector_iterator@V?$_Vector_val@UCharDistanceSq@FindPredicate@@V?$allocator@UCharDistanceSq@FindPredicate@@@std@@@std@@@std@@QBEAAUCharDistanceSq@FindPredicate@@XZ ENDP ; std::_Vector_iterator<std::_Vector_val<FindPredicate::CharDistanceSq,std::allocator<FindPredicate::CharDistanceSq> > >::operator*
_TEXT	ENDS
PUBLIC	??8?$_Vector_const_iterator@V?$_Vector_val@UCharDistanceSq@FindPredicate@@V?$allocator@UCharDistanceSq@FindPredicate@@@std@@@std@@@std@@QBE_NABV01@@Z ; std::_Vector_const_iterator<std::_Vector_val<FindPredicate::CharDistanceSq,std::allocator<FindPredicate::CharDistanceSq> > >::operator==
; Function compile flags: /Ogsp
;	COMDAT ??8?$_Vector_const_iterator@V?$_Vector_val@UCharDistanceSq@FindPredicate@@V?$allocator@UCharDistanceSq@FindPredicate@@@std@@@std@@@std@@QBE_NABV01@@Z
_TEXT	SEGMENT
__Right$ = 8						; size = 4
??8?$_Vector_const_iterator@V?$_Vector_val@UCharDistanceSq@FindPredicate@@V?$allocator@UCharDistanceSq@FindPredicate@@@std@@@std@@@std@@QBE_NABV01@@Z PROC ; std::_Vector_const_iterator<std::_Vector_val<FindPredicate::CharDistanceSq,std::allocator<FindPredicate::CharDistanceSq> > >::operator==, COMDAT
; _this$ = ecx

; 201  : 		{	// test for iterator equality

  00000	55		 push	 ebp
  00001	8b ec		 mov	 ebp, esp

; 202  : 		_Compat(_Right);
; 203  : 		return (this->_Ptr == _Right._Ptr);

  00003	8b 01		 mov	 eax, DWORD PTR [ecx]
  00005	8b 4d 08	 mov	 ecx, DWORD PTR __Right$[ebp]
  00008	2b 01		 sub	 eax, DWORD PTR [ecx]
  0000a	f7 d8		 neg	 eax
  0000c	1b c0		 sbb	 eax, eax
  0000e	40		 inc	 eax

; 204  : 		}

  0000f	5d		 pop	 ebp
  00010	c2 04 00	 ret	 4
??8?$_Vector_const_iterator@V?$_Vector_val@UCharDistanceSq@FindPredicate@@V?$allocator@UCharDistanceSq@FindPredicate@@@std@@@std@@@std@@QBE_NABV01@@Z ENDP ; std::_Vector_const_iterator<std::_Vector_val<FindPredicate::CharDistanceSq,std::allocator<FindPredicate::CharDistanceSq> > >::operator==
_TEXT	ENDS
PUBLIC	??0?$_Vector_iterator@V?$_Vector_val@UCharAngle@FindPredicate@@V?$allocator@UCharAngle@FindPredicate@@@std@@@std@@@std@@QAE@PAUCharAngle@FindPredicate@@PBU_Container_base0@1@@Z ; std::_Vector_iterator<std::_Vector_val<FindPredicate::CharAngle,std::allocator<FindPredicate::CharAngle> > >::_Vector_iterator<std::_Vector_val<FindPredicate::CharAngle,std::allocator<FindPredicate::CharAngle> > >
; Function compile flags: /Ogsp
;	COMDAT ??0?$_Vector_iterator@V?$_Vector_val@UCharAngle@FindPredicate@@V?$allocator@UCharAngle@FindPredicate@@@std@@@std@@@std@@QAE@PAUCharAngle@FindPredicate@@PBU_Container_base0@1@@Z
_TEXT	SEGMENT
__Parg$ = 8						; size = 4
__Pvector$ = 12						; size = 4
??0?$_Vector_iterator@V?$_Vector_val@UCharAngle@FindPredicate@@V?$allocator@UCharAngle@FindPredicate@@@std@@@std@@@std@@QAE@PAUCharAngle@FindPredicate@@PBU_Container_base0@1@@Z PROC ; std::_Vector_iterator<std::_Vector_val<FindPredicate::CharAngle,std::allocator<FindPredicate::CharAngle> > >::_Vector_iterator<std::_Vector_val<FindPredicate::CharAngle,std::allocator<FindPredicate::CharAngle> > >, COMDAT
; _this$ = ecx

; 304  : 		{	// construct with pointer _Parg

  00000	55		 push	 ebp
  00001	8b ec		 mov	 ebp, esp
  00003	8b c1		 mov	 eax, ecx
  00005	8b 4d 08	 mov	 ecx, DWORD PTR __Parg$[ebp]
  00008	89 08		 mov	 DWORD PTR [eax], ecx

; 305  : 		}

  0000a	5d		 pop	 ebp
  0000b	c2 08 00	 ret	 8
??0?$_Vector_iterator@V?$_Vector_val@UCharAngle@FindPredicate@@V?$allocator@UCharAngle@FindPredicate@@@std@@@std@@@std@@QAE@PAUCharAngle@FindPredicate@@PBU_Container_base0@1@@Z ENDP ; std::_Vector_iterator<std::_Vector_val<FindPredicate::CharAngle,std::allocator<FindPredicate::CharAngle> > >::_Vector_iterator<std::_Vector_val<FindPredicate::CharAngle,std::allocator<FindPredicate::CharAngle> > >
_TEXT	ENDS
PUBLIC	??D?$_Vector_iterator@V?$_Vector_val@UCharAngle@FindPredicate@@V?$allocator@UCharAngle@FindPredicate@@@std@@@std@@@std@@QBEAAUCharAngle@FindPredicate@@XZ ; std::_Vector_iterator<std::_Vector_val<FindPredicate::CharAngle,std::allocator<FindPredicate::CharAngle> > >::operator*
; Function compile flags: /Ogsp
;	COMDAT ??D?$_Vector_iterator@V?$_Vector_val@UCharAngle@FindPredicate@@V?$allocator@UCharAngle@FindPredicate@@@std@@@std@@@std@@QBEAAUCharAngle@FindPredicate@@XZ
_TEXT	SEGMENT
??D?$_Vector_iterator@V?$_Vector_val@UCharAngle@FindPredicate@@V?$allocator@UCharAngle@FindPredicate@@@std@@@std@@@std@@QBEAAUCharAngle@FindPredicate@@XZ PROC ; std::_Vector_iterator<std::_Vector_val<FindPredicate::CharAngle,std::allocator<FindPredicate::CharAngle> > >::operator*, COMDAT
; _this$ = ecx

; 322  : 		return ((reference)**(_Mybase *)this);

  00000	8b 01		 mov	 eax, DWORD PTR [ecx]

; 323  : 		}

  00002	c3		 ret	 0
??D?$_Vector_iterator@V?$_Vector_val@UCharAngle@FindPredicate@@V?$allocator@UCharAngle@FindPredicate@@@std@@@std@@@std@@QBEAAUCharAngle@FindPredicate@@XZ ENDP ; std::_Vector_iterator<std::_Vector_val<FindPredicate::CharAngle,std::allocator<FindPredicate::CharAngle> > >::operator*
_TEXT	ENDS
PUBLIC	??8?$_Vector_const_iterator@V?$_Vector_val@UCharAngle@FindPredicate@@V?$allocator@UCharAngle@FindPredicate@@@std@@@std@@@std@@QBE_NABV01@@Z ; std::_Vector_const_iterator<std::_Vector_val<FindPredicate::CharAngle,std::allocator<FindPredicate::CharAngle> > >::operator==
; Function compile flags: /Ogsp
;	COMDAT ??8?$_Vector_const_iterator@V?$_Vector_val@UCharAngle@FindPredicate@@V?$allocator@UCharAngle@FindPredicate@@@std@@@std@@@std@@QBE_NABV01@@Z
_TEXT	SEGMENT
__Right$ = 8						; size = 4
??8?$_Vector_const_iterator@V?$_Vector_val@UCharAngle@FindPredicate@@V?$allocator@UCharAngle@FindPredicate@@@std@@@std@@@std@@QBE_NABV01@@Z PROC ; std::_Vector_const_iterator<std::_Vector_val<FindPredicate::CharAngle,std::allocator<FindPredicate::CharAngle> > >::operator==, COMDAT
; _this$ = ecx

; 201  : 		{	// test for iterator equality

  00000	55		 push	 ebp
  00001	8b ec		 mov	 ebp, esp

; 202  : 		_Compat(_Right);
; 203  : 		return (this->_Ptr == _Right._Ptr);

  00003	8b 01		 mov	 eax, DWORD PTR [ecx]
  00005	8b 4d 08	 mov	 ecx, DWORD PTR __Right$[ebp]
  00008	2b 01		 sub	 eax, DWORD PTR [ecx]
  0000a	f7 d8		 neg	 eax
  0000c	1b c0		 sbb	 eax, eax
  0000e	40		 inc	 eax

; 204  : 		}

  0000f	5d		 pop	 ebp
  00010	c2 04 00	 ret	 4
??8?$_Vector_const_iterator@V?$_Vector_val@UCharAngle@FindPredicate@@V?$allocator@UCharAngle@FindPredicate@@@std@@@std@@@std@@QBE_NABV01@@Z ENDP ; std::_Vector_const_iterator<std::_Vector_val<FindPredicate::CharAngle,std::allocator<FindPredicate::CharAngle> > >::operator==
_TEXT	ENDS
PUBLIC	??8?$_Vector_const_iterator@V?$_Vector_val@PAVioBaseChar@@V?$allocator@PAVioBaseChar@@@std@@@std@@@std@@QBE_NABV01@@Z ; std::_Vector_const_iterator<std::_Vector_val<ioBaseChar *,std::allocator<ioBaseChar *> > >::operator==
; Function compile flags: /Ogsp
;	COMDAT ??8?$_Vector_const_iterator@V?$_Vector_val@PAVioBaseChar@@V?$allocator@PAVioBaseChar@@@std@@@std@@@std@@QBE_NABV01@@Z
_TEXT	SEGMENT
__Right$ = 8						; size = 4
??8?$_Vector_const_iterator@V?$_Vector_val@PAVioBaseChar@@V?$allocator@PAVioBaseChar@@@std@@@std@@@std@@QBE_NABV01@@Z PROC ; std::_Vector_const_iterator<std::_Vector_val<ioBaseChar *,std::allocator<ioBaseChar *> > >::operator==, COMDAT
; _this$ = ecx

; 201  : 		{	// test for iterator equality

  00000	55		 push	 ebp
  00001	8b ec		 mov	 ebp, esp

; 202  : 		_Compat(_Right);
; 203  : 		return (this->_Ptr == _Right._Ptr);

  00003	8b 01		 mov	 eax, DWORD PTR [ecx]
  00005	8b 4d 08	 mov	 ecx, DWORD PTR __Right$[ebp]
  00008	2b 01		 sub	 eax, DWORD PTR [ecx]
  0000a	f7 d8		 neg	 eax
  0000c	1b c0		 sbb	 eax, eax
  0000e	40		 inc	 eax

; 204  : 		}

  0000f	5d		 pop	 ebp
  00010	c2 04 00	 ret	 4
??8?$_Vector_const_iterator@V?$_Vector_val@PAVioBaseChar@@V?$allocator@PAVioBaseChar@@@std@@@std@@@std@@QBE_NABV01@@Z ENDP ; std::_Vector_const_iterator<std::_Vector_val<ioBaseChar *,std::allocator<ioBaseChar *> > >::operator==
_TEXT	ENDS
PUBLIC	?_Make_iter@?$vector@PAVioBaseChar@@V?$allocator@PAVioBaseChar@@@std@@@std@@QBE?AV?$_Vector_iterator@V?$_Vector_val@PAVioBaseChar@@V?$allocator@PAVioBaseChar@@@std@@@std@@@2@V?$_Vector_const_iterator@V?$_Vector_val@PAVioBaseChar@@V?$allocator@PAVioBaseChar@@@std@@@std@@@2@@Z ; std::vector<ioBaseChar *,std::allocator<ioBaseChar *> >::_Make_iter
; Function compile flags: /Ogsp
;	COMDAT ?_Make_iter@?$vector@PAVioBaseChar@@V?$allocator@PAVioBaseChar@@@std@@@std@@QBE?AV?$_Vector_iterator@V?$_Vector_val@PAVioBaseChar@@V?$allocator@PAVioBaseChar@@@std@@@std@@@2@V?$_Vector_const_iterator@V?$_Vector_val@PAVioBaseChar@@V?$allocator@PAVioBaseChar@@@std@@@std@@@2@@Z
_TEXT	SEGMENT
___$ReturnUdt$ = 8					; size = 4
__Where$ = 12						; size = 4
?_Make_iter@?$vector@PAVioBaseChar@@V?$allocator@PAVioBaseChar@@@std@@@std@@QBE?AV?$_Vector_iterator@V?$_Vector_val@PAVioBaseChar@@V?$allocator@PAVioBaseChar@@@std@@@std@@@2@V?$_Vector_const_iterator@V?$_Vector_val@PAVioBaseChar@@V?$allocator@PAVioBaseChar@@@std@@@std@@@2@@Z PROC ; std::vector<ioBaseChar *,std::allocator<ioBaseChar *> >::_Make_iter, COMDAT
; _this$ = ecx

; 801  : 		{	// make iterator from const_iterator

  00000	55		 push	 ebp
  00001	8b ec		 mov	 ebp, esp

; 802  : 		return (iterator(_Where._Ptr, this));

  00003	8b 45 08	 mov	 eax, DWORD PTR ___$ReturnUdt$[ebp]
  00006	8b 4d 0c	 mov	 ecx, DWORD PTR __Where$[ebp]
  00009	89 08		 mov	 DWORD PTR [eax], ecx

; 803  : 		}

  0000b	5d		 pop	 ebp
  0000c	c2 08 00	 ret	 8
?_Make_iter@?$vector@PAVioBaseChar@@V?$allocator@PAVioBaseChar@@@std@@@std@@QBE?AV?$_Vector_iterator@V?$_Vector_val@PAVioBaseChar@@V?$allocator@PAVioBaseChar@@@std@@@std@@@2@V?$_Vector_const_iterator@V?$_Vector_val@PAVioBaseChar@@V?$allocator@PAVioBaseChar@@@std@@@std@@@2@@Z ENDP ; std::vector<ioBaseChar *,std::allocator<ioBaseChar *> >::_Make_iter
_TEXT	ENDS
PUBLIC	?max_size@?$vector@PAVioBaseChar@@V?$allocator@PAVioBaseChar@@@std@@@std@@QBEIXZ ; std::vector<ioBaseChar *,std::allocator<ioBaseChar *> >::max_size
; Function compile flags: /Ogsp
;	COMDAT ?max_size@?$vector@PAVioBaseChar@@V?$allocator@PAVioBaseChar@@@std@@@std@@QBEIXZ
_TEXT	SEGMENT
?max_size@?$vector@PAVioBaseChar@@V?$allocator@PAVioBaseChar@@@std@@@std@@QBEIXZ PROC ; std::vector<ioBaseChar *,std::allocator<ioBaseChar *> >::max_size, COMDAT
; _this$ = ecx

; 884  : 		return (this->_Alval.max_size());

  00000	b8 ff ff ff 3f	 mov	 eax, 1073741823		; 3fffffffH

; 885  : 		}

  00005	c3		 ret	 0
?max_size@?$vector@PAVioBaseChar@@V?$allocator@PAVioBaseChar@@@std@@@std@@QBEIXZ ENDP ; std::vector<ioBaseChar *,std::allocator<ioBaseChar *> >::max_size
_TEXT	ENDS
PUBLIC	?_Grow_to@?$vector@PAVioBaseChar@@V?$allocator@PAVioBaseChar@@@std@@@std@@IBEII@Z ; std::vector<ioBaseChar *,std::allocator<ioBaseChar *> >::_Grow_to
; Function compile flags: /Ogsp
;	COMDAT ?_Grow_to@?$vector@PAVioBaseChar@@V?$allocator@PAVioBaseChar@@@std@@@std@@IBEII@Z
_TEXT	SEGMENT
__Count$ = 8						; size = 4
?_Grow_to@?$vector@PAVioBaseChar@@V?$allocator@PAVioBaseChar@@@std@@@std@@IBEII@Z PROC ; std::vector<ioBaseChar *,std::allocator<ioBaseChar *> >::_Grow_to, COMDAT
; _this$ = ecx

; 1274 : 		{	// grow by 50% or at least to _Count

  00000	55		 push	 ebp
  00001	8b ec		 mov	 ebp, esp

; 1275 : 		size_type _Capacity = capacity();

  00003	8b 41 08	 mov	 eax, DWORD PTR [ecx+8]
  00006	2b 01		 sub	 eax, DWORD PTR [ecx]

; 1276 : 
; 1277 : 		_Capacity = max_size() - _Capacity / 2 < _Capacity
; 1278 : 			? 0 : _Capacity + _Capacity / 2;	// try to grow by 50%

  00008	ba ff ff ff 3f	 mov	 edx, 1073741823		; 3fffffffH
  0000d	c1 f8 02	 sar	 eax, 2
  00010	8b c8		 mov	 ecx, eax
  00012	d1 e9		 shr	 ecx, 1
  00014	2b d1		 sub	 edx, ecx
  00016	3b d0		 cmp	 edx, eax
  00018	73 04		 jae	 SHORT $LN4@Grow_to
  0001a	33 c0		 xor	 eax, eax
  0001c	eb 02		 jmp	 SHORT $LN5@Grow_to
$LN4@Grow_to:
  0001e	03 c1		 add	 eax, ecx
$LN5@Grow_to:

; 1279 : 		if (_Capacity < _Count)

  00020	3b 45 08	 cmp	 eax, DWORD PTR __Count$[ebp]

; 1280 : 			_Capacity = _Count;

  00023	0f 42 45 08	 cmovb	 eax, DWORD PTR __Count$[ebp]

; 1281 : 		return (_Capacity);
; 1282 : 		}

  00027	5d		 pop	 ebp
  00028	c2 04 00	 ret	 4
?_Grow_to@?$vector@PAVioBaseChar@@V?$allocator@PAVioBaseChar@@@std@@@std@@IBEII@Z ENDP ; std::vector<ioBaseChar *,std::allocator<ioBaseChar *> >::_Grow_to
_TEXT	ENDS
PUBLIC	?allocate@?$allocator@PAVioBaseChar@@@std@@QAEPAPAVioBaseChar@@I@Z ; std::allocator<ioBaseChar *>::allocate
; Function compile flags: /Ogsp
; File c:\program files (x86)\microsoft visual studio 10.0\vc\include\xmemory
;	COMDAT ?allocate@?$allocator@PAVioBaseChar@@@std@@QAEPAPAVioBaseChar@@I@Z
_TEXT	SEGMENT
__Count$ = 8						; size = 4
?allocate@?$allocator@PAVioBaseChar@@@std@@QAEPAPAVioBaseChar@@I@Z PROC ; std::allocator<ioBaseChar *>::allocate, COMDAT
; _this$ = ecx

; 186  : 		{	// allocate array of _Count elements

  00000	55		 push	 ebp
  00001	8b ec		 mov	 ebp, esp

; 187  : 		return (_Allocate(_Count, (pointer)0));

  00003	6a 00		 push	 0
  00005	ff 75 08	 push	 DWORD PTR __Count$[ebp]
  00008	e8 00 00 00 00	 call	 ??$_Allocate@PAVioBaseChar@@@std@@YAPAPAVioBaseChar@@IPAPAV1@@Z ; std::_Allocate<ioBaseChar *>
  0000d	59		 pop	 ecx
  0000e	59		 pop	 ecx

; 188  : 		}

  0000f	5d		 pop	 ebp
  00010	c2 04 00	 ret	 4
?allocate@?$allocator@PAVioBaseChar@@@std@@QAEPAPAVioBaseChar@@I@Z ENDP ; std::allocator<ioBaseChar *>::allocate
_TEXT	ENDS
PUBLIC	__real@3fd2ee0d320154cb
PUBLIC	__real@41f0000000000000
PUBLIC	??$RADtoDEG@M@@YAMM@Z				; RADtoDEG<float>
;	COMDAT __real@3fd2ee0d320154cb
; File d:\lost saga for developer\youtube\tutorial\source\src\lsclient\veryoftenusedefine.h
CONST	SEGMENT
__real@3fd2ee0d320154cb DQ 03fd2ee0d320154cbr	; 0.29578
CONST	ENDS
;	COMDAT __real@41f0000000000000
CONST	SEGMENT
__real@41f0000000000000 DQ 041f0000000000000r	; 4.29497e+009
; Function compile flags: /Ogsp
CONST	ENDS
;	COMDAT ??$RADtoDEG@M@@YAMM@Z
_TEXT	SEGMENT
tv130 = -4						; size = 4
tv75 = 8						; size = 4
_val$ = 8						; size = 4
??$RADtoDEG@M@@YAMM@Z PROC				; RADtoDEG<float>, COMDAT

; 18   : type  RADtoDEG (type val) {return (type) (val * (return57() + 0.2957795132)); }

  00000	55		 push	 ebp
  00001	8b ec		 mov	 ebp, esp
  00003	51		 push	 ecx
  00004	b8 39 00 00 00	 mov	 eax, 57			; 00000039H
  00009	89 45 fc	 mov	 DWORD PTR tv130[ebp], eax
  0000c	db 45 fc	 fild	 DWORD PTR tv130[ebp]
  0000f	85 c0		 test	 eax, eax
  00011	79 06		 jns	 SHORT $LN5@RADtoDEG
  00013	dc 05 00 00 00
	00		 fadd	 QWORD PTR __real@41f0000000000000
$LN5@RADtoDEG:
  00019	dc 05 00 00 00
	00		 fadd	 QWORD PTR __real@3fd2ee0d320154cb
  0001f	d8 4d 08	 fmul	 DWORD PTR _val$[ebp]
  00022	d9 5d 08	 fstp	 DWORD PTR tv75[ebp]
  00025	d9 45 08	 fld	 DWORD PTR tv75[ebp]
  00028	c9		 leave
  00029	c3		 ret	 0
??$RADtoDEG@M@@YAMM@Z ENDP				; RADtoDEG<float>
_TEXT	ENDS
PUBLIC	??$_Cons_val@V?$allocator@PAVioBaseChar@@@std@@PAVioBaseChar@@AAPAV3@@std@@YAXAAV?$allocator@PAVioBaseChar@@@0@PAPAVioBaseChar@@AAPAV2@@Z ; std::_Cons_val<std::allocator<ioBaseChar *>,ioBaseChar *,ioBaseChar * &>
; Function compile flags: /Ogsp
; File c:\program files (x86)\microsoft visual studio 10.0\vc\include\xmemory
;	COMDAT ??$_Cons_val@V?$allocator@PAVioBaseChar@@@std@@PAVioBaseChar@@AAPAV3@@std@@YAXAAV?$allocator@PAVioBaseChar@@@0@PAPAVioBaseChar@@AAPAV2@@Z
_TEXT	SEGMENT
__Alval$ = 8						; size = 4
__Pdest$ = 12						; size = 4
__Src$ = 16						; size = 4
??$_Cons_val@V?$allocator@PAVioBaseChar@@@std@@PAVioBaseChar@@AAPAV3@@std@@YAXAAV?$allocator@PAVioBaseChar@@@0@PAPAVioBaseChar@@AAPAV2@@Z PROC ; std::_Cons_val<std::allocator<ioBaseChar *>,ioBaseChar *,ioBaseChar * &>, COMDAT

; 279  : 	{	// construct using allocator

  00000	55		 push	 ebp
  00001	8b ec		 mov	 ebp, esp

; 280  : 	_Alval.construct(_Pdest, _STD forward<_Ty2>(_Src));

  00003	8b 45 0c	 mov	 eax, DWORD PTR __Pdest$[ebp]
  00006	85 c0		 test	 eax, eax
  00008	74 07		 je	 SHORT $LN7@Cons_val
  0000a	8b 4d 10	 mov	 ecx, DWORD PTR __Src$[ebp]
  0000d	8b 09		 mov	 ecx, DWORD PTR [ecx]
  0000f	89 08		 mov	 DWORD PTR [eax], ecx
$LN7@Cons_val:

; 281  : 	}

  00011	5d		 pop	 ebp
  00012	c3		 ret	 0
??$_Cons_val@V?$allocator@PAVioBaseChar@@@std@@PAVioBaseChar@@AAPAV3@@std@@YAXAAV?$allocator@PAVioBaseChar@@@0@PAPAVioBaseChar@@AAPAV2@@Z ENDP ; std::_Cons_val<std::allocator<ioBaseChar *>,ioBaseChar *,ioBaseChar * &>
_TEXT	ENDS
PUBLIC	??$_Move@PAPAVioBaseChar@@PAPAV1@@std@@YAPAPAVioBaseChar@@PAPAV1@00@Z ; std::_Move<ioBaseChar * *,ioBaseChar * *>
; Function compile flags: /Ogsp
; File c:\program files (x86)\microsoft visual studio 10.0\vc\include\xutility
;	COMDAT ??$_Move@PAPAVioBaseChar@@PAPAV1@@std@@YAPAPAVioBaseChar@@PAPAV1@00@Z
_TEXT	SEGMENT
__Cat$545799 = -4					; size = 1
__First$ = 8						; size = 4
__Last$ = 12						; size = 4
__Dest$ = 16						; size = 4
??$_Move@PAPAVioBaseChar@@PAPAV1@@std@@YAPAPAVioBaseChar@@PAPAV1@00@Z PROC ; std::_Move<ioBaseChar * *,ioBaseChar * *>, COMDAT

; 2533 : 	{	// move [_First, _Last) to [_Dest, ...), unchecked

  00000	55		 push	 ebp
  00001	8b ec		 mov	 ebp, esp
  00003	51		 push	 ecx

; 2534 : 	return (_Move(_First, _Last,
; 2535 : 		_Dest, _Ptr_cat(_First, _Dest)));

  00004	ff 75 fc	 push	 DWORD PTR __Cat$545799[ebp]
  00007	ff 75 10	 push	 DWORD PTR __Dest$[ebp]
  0000a	ff 75 0c	 push	 DWORD PTR __Last$[ebp]
  0000d	ff 75 08	 push	 DWORD PTR __First$[ebp]
  00010	e8 00 00 00 00	 call	 ??$_Move@PAPAVioBaseChar@@PAPAV1@@std@@YAPAPAVioBaseChar@@PAPAV1@00U_Scalar_ptr_iterator_tag@0@@Z ; std::_Move<ioBaseChar * *,ioBaseChar * *>
  00015	83 c4 10	 add	 esp, 16			; 00000010H

; 2536 : 	}

  00018	c9		 leave
  00019	c3		 ret	 0
??$_Move@PAPAVioBaseChar@@PAPAV1@@std@@YAPAPAVioBaseChar@@PAPAV1@00@Z ENDP ; std::_Move<ioBaseChar * *,ioBaseChar * *>
_TEXT	ENDS
PUBLIC	??$_Destroy_range@V?$allocator@PAVioBaseChar@@@std@@@std@@YAXPAPAVioBaseChar@@0AAV?$allocator@PAVioBaseChar@@@0@@Z ; std::_Destroy_range<std::allocator<ioBaseChar *> >
; Function compile flags: /Ogsp
; File c:\program files (x86)\microsoft visual studio 10.0\vc\include\xmemory
;	COMDAT ??$_Destroy_range@V?$allocator@PAVioBaseChar@@@std@@@std@@YAXPAPAVioBaseChar@@0AAV?$allocator@PAVioBaseChar@@@0@@Z
_TEXT	SEGMENT
__First$ = 8						; size = 4
__Last$ = 12						; size = 4
__Al$ = 16						; size = 4
??$_Destroy_range@V?$allocator@PAVioBaseChar@@@std@@@std@@YAXPAPAVioBaseChar@@0AAV?$allocator@PAVioBaseChar@@@0@@Z PROC ; std::_Destroy_range<std::allocator<ioBaseChar *> >, COMDAT

; 88   : 	_Destroy_range(_First, _Last, _Al, _Ptr_cat(_First, _Last));
; 89   : 	}

  00000	c3		 ret	 0
??$_Destroy_range@V?$allocator@PAVioBaseChar@@@std@@@std@@YAXPAPAVioBaseChar@@0AAV?$allocator@PAVioBaseChar@@@0@@Z ENDP ; std::_Destroy_range<std::allocator<ioBaseChar *> >
_TEXT	ENDS
PUBLIC	?construct@?$allocator@PAVioBaseChar@@@std@@QAEXPAPAVioBaseChar@@ABQAV3@@Z ; std::allocator<ioBaseChar *>::construct
; Function compile flags: /Ogsp
;	COMDAT ?construct@?$allocator@PAVioBaseChar@@@std@@QAEXPAPAVioBaseChar@@ABQAV3@@Z
_TEXT	SEGMENT
__Ptr$ = 8						; size = 4
__Val$ = 12						; size = 4
?construct@?$allocator@PAVioBaseChar@@@std@@QAEXPAPAVioBaseChar@@ABQAV3@@Z PROC ; std::allocator<ioBaseChar *>::construct, COMDAT
; _this$ = ecx

; 196  : 		{	// construct object at _Ptr with value _Val

  00000	55		 push	 ebp
  00001	8b ec		 mov	 ebp, esp

; 197  : 		_Construct(_Ptr, _Val);

  00003	8b 45 08	 mov	 eax, DWORD PTR __Ptr$[ebp]
  00006	85 c0		 test	 eax, eax
  00008	74 07		 je	 SHORT $LN5@construct@2
  0000a	8b 4d 0c	 mov	 ecx, DWORD PTR __Val$[ebp]
  0000d	8b 09		 mov	 ecx, DWORD PTR [ecx]
  0000f	89 08		 mov	 DWORD PTR [eax], ecx
$LN5@construct@2:

; 198  : 		}

  00011	5d		 pop	 ebp
  00012	c2 08 00	 ret	 8
?construct@?$allocator@PAVioBaseChar@@@std@@QAEXPAPAVioBaseChar@@ABQAV3@@Z ENDP ; std::allocator<ioBaseChar *>::construct
_TEXT	ENDS
PUBLIC	??G?$_Vector_iterator@V?$_Vector_val@UCharDistanceSq@FindPredicate@@V?$allocator@UCharDistanceSq@FindPredicate@@@std@@@std@@@std@@QBEHABV?$_Vector_const_iterator@V?$_Vector_val@UCharDistanceSq@FindPredicate@@V?$allocator@UCharDistanceSq@FindPredicate@@@std@@@std@@@1@@Z ; std::_Vector_iterator<std::_Vector_val<FindPredicate::CharDistanceSq,std::allocator<FindPredicate::CharDistanceSq> > >::operator-
; Function compile flags: /Ogsp
; File c:\program files (x86)\microsoft visual studio 10.0\vc\include\vector
;	COMDAT ??G?$_Vector_iterator@V?$_Vector_val@UCharDistanceSq@FindPredicate@@V?$allocator@UCharDistanceSq@FindPredicate@@@std@@@std@@@std@@QBEHABV?$_Vector_const_iterator@V?$_Vector_val@UCharDistanceSq@FindPredicate@@V?$allocator@UCharDistanceSq@FindPredicate@@@std@@@std@@@1@@Z
_TEXT	SEGMENT
__Right$ = 8						; size = 4
??G?$_Vector_iterator@V?$_Vector_val@UCharDistanceSq@FindPredicate@@V?$allocator@UCharDistanceSq@FindPredicate@@@std@@@std@@@std@@QBEHABV?$_Vector_const_iterator@V?$_Vector_val@UCharDistanceSq@FindPredicate@@V?$allocator@UCharDistanceSq@FindPredicate@@@std@@@std@@@1@@Z PROC ; std::_Vector_iterator<std::_Vector_val<FindPredicate::CharDistanceSq,std::allocator<FindPredicate::CharDistanceSq> > >::operator-, COMDAT
; _this$ = ecx

; 380  : 		{	// return difference of iterators

  00000	55		 push	 ebp
  00001	8b ec		 mov	 ebp, esp

; 381  : 		return (*(_Mybase *)this - _Right);

  00003	8b 01		 mov	 eax, DWORD PTR [ecx]
  00005	8b 4d 08	 mov	 ecx, DWORD PTR __Right$[ebp]
  00008	2b 01		 sub	 eax, DWORD PTR [ecx]
  0000a	c1 f8 03	 sar	 eax, 3

; 382  : 		}

  0000d	5d		 pop	 ebp
  0000e	c2 04 00	 ret	 4
??G?$_Vector_iterator@V?$_Vector_val@UCharDistanceSq@FindPredicate@@V?$allocator@UCharDistanceSq@FindPredicate@@@std@@@std@@@std@@QBEHABV?$_Vector_const_iterator@V?$_Vector_val@UCharDistanceSq@FindPredicate@@V?$allocator@UCharDistanceSq@FindPredicate@@@std@@@std@@@1@@Z ENDP ; std::_Vector_iterator<std::_Vector_val<FindPredicate::CharDistanceSq,std::allocator<FindPredicate::CharDistanceSq> > >::operator-
_TEXT	ENDS
PUBLIC	??$_Unchecked@V?$_Vector_val@UCharDistanceSq@FindPredicate@@V?$allocator@UCharDistanceSq@FindPredicate@@@std@@@std@@@std@@YAPAUCharDistanceSq@FindPredicate@@V?$_Vector_iterator@V?$_Vector_val@UCharDistanceSq@FindPredicate@@V?$allocator@UCharDistanceSq@FindPredicate@@@std@@@std@@@0@@Z ; std::_Unchecked<std::_Vector_val<FindPredicate::CharDistanceSq,std::allocator<FindPredicate::CharDistanceSq> > >
; Function compile flags: /Ogsp
;	COMDAT ??$_Unchecked@V?$_Vector_val@UCharDistanceSq@FindPredicate@@V?$allocator@UCharDistanceSq@FindPredicate@@@std@@@std@@@std@@YAPAUCharDistanceSq@FindPredicate@@V?$_Vector_iterator@V?$_Vector_val@UCharDistanceSq@FindPredicate@@V?$allocator@UCharDistanceSq@FindPredicate@@@std@@@std@@@0@@Z
_TEXT	SEGMENT
__Iter$ = 8						; size = 4
??$_Unchecked@V?$_Vector_val@UCharDistanceSq@FindPredicate@@V?$allocator@UCharDistanceSq@FindPredicate@@@std@@@std@@@std@@YAPAUCharDistanceSq@FindPredicate@@V?$_Vector_iterator@V?$_Vector_val@UCharDistanceSq@FindPredicate@@V?$allocator@UCharDistanceSq@FindPredicate@@@std@@@std@@@0@@Z PROC ; std::_Unchecked<std::_Vector_val<FindPredicate::CharDistanceSq,std::allocator<FindPredicate::CharDistanceSq> > >, COMDAT

; 393  : 	{	// convert to unchecked

  00000	55		 push	 ebp
  00001	8b ec		 mov	 ebp, esp

; 394  : 	return (_Iter._Unchecked());

  00003	8b 45 08	 mov	 eax, DWORD PTR __Iter$[ebp]

; 395  : 	}

  00006	5d		 pop	 ebp
  00007	c3		 ret	 0
??$_Unchecked@V?$_Vector_val@UCharDistanceSq@FindPredicate@@V?$allocator@UCharDistanceSq@FindPredicate@@@std@@@std@@@std@@YAPAUCharDistanceSq@FindPredicate@@V?$_Vector_iterator@V?$_Vector_val@UCharDistanceSq@FindPredicate@@V?$allocator@UCharDistanceSq@FindPredicate@@@std@@@std@@@0@@Z ENDP ; std::_Unchecked<std::_Vector_val<FindPredicate::CharDistanceSq,std::allocator<FindPredicate::CharDistanceSq> > >
_TEXT	ENDS
PUBLIC	??$_Uninitialized_move@PAPAVioBaseChar@@PAPAV1@V?$allocator@PAVioBaseChar@@@std@@@std@@YAPAPAVioBaseChar@@PAPAV1@00AAV?$allocator@PAVioBaseChar@@@0@@Z ; std::_Uninitialized_move<ioBaseChar * *,ioBaseChar * *,std::allocator<ioBaseChar *> >
; Function compile flags: /Ogsp
; File c:\program files (x86)\microsoft visual studio 10.0\vc\include\memory
;	COMDAT ??$_Uninitialized_move@PAPAVioBaseChar@@PAPAV1@V?$allocator@PAVioBaseChar@@@std@@@std@@YAPAPAVioBaseChar@@PAPAV1@00AAV?$allocator@PAVioBaseChar@@@0@@Z
_TEXT	SEGMENT
__First$ = 8						; size = 4
__Last$ = 12						; size = 4
__Dest$ = 16						; size = 4
__Al$ = 20						; size = 4
??$_Uninitialized_move@PAPAVioBaseChar@@PAPAV1@V?$allocator@PAVioBaseChar@@@std@@@std@@YAPAPAVioBaseChar@@PAPAV1@00AAV?$allocator@PAVioBaseChar@@@0@@Z PROC ; std::_Uninitialized_move<ioBaseChar * *,ioBaseChar * *,std::allocator<ioBaseChar *> >, COMDAT

; 469  : 	{	// move [_First, _Last) to raw _Dest, using _Al

  00000	55		 push	 ebp
  00001	8b ec		 mov	 ebp, esp
  00003	56		 push	 esi

; 470  : 	return (_Uninit_move(_First, _Last, _Dest, _Al,
; 471  : 		_Val_type(_First), _Ptr_cat(_First, _Dest)));

  00004	8b 75 0c	 mov	 esi, DWORD PTR __Last$[ebp]
  00007	2b 75 08	 sub	 esi, DWORD PTR __First$[ebp]
  0000a	c1 fe 02	 sar	 esi, 2
  0000d	c1 e6 02	 shl	 esi, 2
  00010	56		 push	 esi
  00011	ff 75 08	 push	 DWORD PTR __First$[ebp]
  00014	ff 75 10	 push	 DWORD PTR __Dest$[ebp]
  00017	ff 15 00 00 00
	00		 call	 DWORD PTR __imp__memmove
  0001d	83 c4 0c	 add	 esp, 12			; 0000000cH
  00020	03 c6		 add	 eax, esi
  00022	5e		 pop	 esi

; 472  : 	}

  00023	5d		 pop	 ebp
  00024	c3		 ret	 0
??$_Uninitialized_move@PAPAVioBaseChar@@PAPAV1@V?$allocator@PAVioBaseChar@@@std@@@std@@YAPAPAVioBaseChar@@PAPAV1@00AAV?$allocator@PAVioBaseChar@@@0@@Z ENDP ; std::_Uninitialized_move<ioBaseChar * *,ioBaseChar * *,std::allocator<ioBaseChar *> >
_TEXT	ENDS
PUBLIC	??$?0AAPAUCharDistanceSq@FindPredicate@@AAPAU01@@?$pair@PAUCharDistanceSq@FindPredicate@@PAU12@@std@@QAE@AAPAUCharDistanceSq@FindPredicate@@0@Z ; std::pair<FindPredicate::CharDistanceSq *,FindPredicate::CharDistanceSq *>::pair<FindPredicate::CharDistanceSq *,FindPredicate::CharDistanceSq *><FindPredicate::CharDistanceSq * &,FindPredicate::CharDistanceSq * &>
; Function compile flags: /Ogsp
; File c:\program files (x86)\microsoft visual studio 10.0\vc\include\utility
;	COMDAT ??$?0AAPAUCharDistanceSq@FindPredicate@@AAPAU01@@?$pair@PAUCharDistanceSq@FindPredicate@@PAU12@@std@@QAE@AAPAUCharDistanceSq@FindPredicate@@0@Z
_TEXT	SEGMENT
__Val1$ = 8						; size = 4
__Val2$ = 12						; size = 4
??$?0AAPAUCharDistanceSq@FindPredicate@@AAPAU01@@?$pair@PAUCharDistanceSq@FindPredicate@@PAU12@@std@@QAE@AAPAUCharDistanceSq@FindPredicate@@0@Z PROC ; std::pair<FindPredicate::CharDistanceSq *,FindPredicate::CharDistanceSq *>::pair<FindPredicate::CharDistanceSq *,FindPredicate::CharDistanceSq *><FindPredicate::CharDistanceSq * &,FindPredicate::CharDistanceSq * &>, COMDAT
; _this$ = ecx

; 247  : 		{	// construct from moved values

  00000	55		 push	 ebp
  00001	8b ec		 mov	 ebp, esp
  00003	8b c1		 mov	 eax, ecx
  00005	8b 4d 08	 mov	 ecx, DWORD PTR __Val1$[ebp]
  00008	8b 09		 mov	 ecx, DWORD PTR [ecx]
  0000a	89 08		 mov	 DWORD PTR [eax], ecx
  0000c	8b 4d 0c	 mov	 ecx, DWORD PTR __Val2$[ebp]
  0000f	8b 09		 mov	 ecx, DWORD PTR [ecx]
  00011	89 48 04	 mov	 DWORD PTR [eax+4], ecx

; 248  : 		}

  00014	5d		 pop	 ebp
  00015	c2 08 00	 ret	 8
??$?0AAPAUCharDistanceSq@FindPredicate@@AAPAU01@@?$pair@PAUCharDistanceSq@FindPredicate@@PAU12@@std@@QAE@AAPAUCharDistanceSq@FindPredicate@@0@Z ENDP ; std::pair<FindPredicate::CharDistanceSq *,FindPredicate::CharDistanceSq *>::pair<FindPredicate::CharDistanceSq *,FindPredicate::CharDistanceSq *><FindPredicate::CharDistanceSq * &,FindPredicate::CharDistanceSq * &>
_TEXT	ENDS
PUBLIC	??$swap@UCharDistanceSq@FindPredicate@@@std@@YAXAAUCharDistanceSq@FindPredicate@@0@Z ; std::swap<FindPredicate::CharDistanceSq>
; Function compile flags: /Ogsp
;	COMDAT ??$swap@UCharDistanceSq@FindPredicate@@@std@@YAXAAUCharDistanceSq@FindPredicate@@0@Z
_TEXT	SEGMENT
__Left$ = 8						; size = 4
__Right$ = 12						; size = 4
??$swap@UCharDistanceSq@FindPredicate@@@std@@YAXAAUCharDistanceSq@FindPredicate@@0@Z PROC ; std::swap<FindPredicate::CharDistanceSq>, COMDAT

; 101  : 	{	// exchange values stored at _Left and _Right

  00000	55		 push	 ebp
  00001	8b ec		 mov	 ebp, esp

; 102  : 	_Ty _Tmp = _Move(_Left);
; 103  : 	_Left = _Move(_Right);

  00003	8b 4d 0c	 mov	 ecx, DWORD PTR __Right$[ebp]
  00006	8b 45 08	 mov	 eax, DWORD PTR __Left$[ebp]
  00009	8b 10		 mov	 edx, DWORD PTR [eax]
  0000b	56		 push	 esi
  0000c	8b 70 04	 mov	 esi, DWORD PTR [eax+4]
  0000f	57		 push	 edi
  00010	8b 39		 mov	 edi, DWORD PTR [ecx]
  00012	89 38		 mov	 DWORD PTR [eax], edi
  00014	8b 79 04	 mov	 edi, DWORD PTR [ecx+4]
  00017	89 78 04	 mov	 DWORD PTR [eax+4], edi
  0001a	5f		 pop	 edi

; 104  : 	_Right = _Move(_Tmp);

  0001b	89 71 04	 mov	 DWORD PTR [ecx+4], esi
  0001e	89 11		 mov	 DWORD PTR [ecx], edx
  00020	5e		 pop	 esi

; 105  : 	}

  00021	5d		 pop	 ebp
  00022	c3		 ret	 0
??$swap@UCharDistanceSq@FindPredicate@@@std@@YAXAAUCharDistanceSq@FindPredicate@@0@Z ENDP ; std::swap<FindPredicate::CharDistanceSq>
_TEXT	ENDS
PUBLIC	??$_Move_backward@PAUCharDistanceSq@FindPredicate@@PAU12@@std@@YAPAUCharDistanceSq@FindPredicate@@PAU12@00U_Nonscalar_ptr_iterator_tag@0@@Z ; std::_Move_backward<FindPredicate::CharDistanceSq *,FindPredicate::CharDistanceSq *>
; Function compile flags: /Ogsp
; File c:\program files (x86)\microsoft visual studio 10.0\vc\include\xutility
;	COMDAT ??$_Move_backward@PAUCharDistanceSq@FindPredicate@@PAU12@@std@@YAPAUCharDistanceSq@FindPredicate@@PAU12@00U_Nonscalar_ptr_iterator_tag@0@@Z
_TEXT	SEGMENT
__First$ = 8						; size = 4
__Last$ = 12						; size = 4
__Dest$ = 16						; size = 4
___formal$ = 20						; size = 1
??$_Move_backward@PAUCharDistanceSq@FindPredicate@@PAU12@@std@@YAPAUCharDistanceSq@FindPredicate@@PAU12@00U_Nonscalar_ptr_iterator_tag@0@@Z PROC ; std::_Move_backward<FindPredicate::CharDistanceSq *,FindPredicate::CharDistanceSq *>, COMDAT

; 2617 : 	{	// move [_First, _Last) backwards to [..., _Dest), arbitrary iterators

  00000	55		 push	 ebp
  00001	8b ec		 mov	 ebp, esp

; 2618 : 	while (_First != _Last)

  00003	8b 4d 0c	 mov	 ecx, DWORD PTR __Last$[ebp]
  00006	8b 45 10	 mov	 eax, DWORD PTR __Dest$[ebp]
  00009	39 4d 08	 cmp	 DWORD PTR __First$[ebp], ecx
  0000c	74 15		 je	 SHORT $LN1@Move_backw
$LL2@Move_backw:

; 2619 : 		*--_Dest = _STD move(*--_Last);

  0000e	83 e9 08	 sub	 ecx, 8
  00011	8b 11		 mov	 edx, DWORD PTR [ecx]
  00013	83 e8 08	 sub	 eax, 8
  00016	89 10		 mov	 DWORD PTR [eax], edx
  00018	8b 51 04	 mov	 edx, DWORD PTR [ecx+4]
  0001b	89 50 04	 mov	 DWORD PTR [eax+4], edx
  0001e	3b 4d 08	 cmp	 ecx, DWORD PTR __First$[ebp]
  00021	75 eb		 jne	 SHORT $LL2@Move_backw
$LN1@Move_backw:

; 2620 : 	return (_Dest);
; 2621 : 	}

  00023	5d		 pop	 ebp
  00024	c3		 ret	 0
??$_Move_backward@PAUCharDistanceSq@FindPredicate@@PAU12@@std@@YAPAUCharDistanceSq@FindPredicate@@PAU12@00U_Nonscalar_ptr_iterator_tag@0@@Z ENDP ; std::_Move_backward<FindPredicate::CharDistanceSq *,FindPredicate::CharDistanceSq *>
_TEXT	ENDS
PUBLIC	??B?$CEncrypt@K@@QBEKXZ				; CEncrypt<unsigned long>::operator unsigned long
; Function compile flags: /Ogsp
; File d:\lost saga for developer\youtube\tutorial\source\src\lsclient\encryptvalue.h
;	COMDAT ??B?$CEncrypt@K@@QBEKXZ
_TEXT	SEGMENT
_value$ = -4						; size = 4
??B?$CEncrypt@K@@QBEKXZ PROC				; CEncrypt<unsigned long>::operator unsigned long, COMDAT
; _this$ = ecx

; 145  : 	{

  00000	55		 push	 ebp
  00001	8b ec		 mov	 ebp, esp
  00003	51		 push	 ecx

; 146  : 		//UJ 130829, const도 똑같이 하면 된다 --start
; 147  : 		type value;
; 148  : 		CEncrypt<type>* pThis = const_cast<CEncrypt<type>*>(this);
; 149  : 		pThis->DecryptValueToPool(&value);

  00004	8d 45 fc	 lea	 eax, DWORD PTR _value$[ebp]
  00007	50		 push	 eax
  00008	e8 00 00 00 00	 call	 ?DecryptValueToPool@?$CEncrypt@K@@QAEXPAK@Z ; CEncrypt<unsigned long>::DecryptValueToPool

; 150  : 		//// const에서 DecryptValueToPool 사용할 수 없으므로 아래와 같이함.
; 151  :  		//type value;
; 152  : 		//char szTempMem[MAX_ENCRYPT];
; 153  : 		//m_RC5.DecryptByte( m_MemPool, szTempMem, max(m_ValueSize, DEFAULT_ENCRYPT) );
; 154  : 		//memcpy( &value, szTempMem, m_ValueSize );
; 155  : 		//UJ --end
; 156  : 
; 157  : #ifdef _NOTUSE
; 158  : 		Debug();
; 159  : #endif
; 160  : 		return value;

  0000d	8b 45 fc	 mov	 eax, DWORD PTR _value$[ebp]

; 161  : 	}

  00010	c9		 leave
  00011	c3		 ret	 0
??B?$CEncrypt@K@@QBEKXZ ENDP				; CEncrypt<unsigned long>::operator unsigned long
_TEXT	ENDS
PUBLIC	??B?$CEncrypt@_N@@QBE_NXZ			; CEncrypt<bool>::operator bool
; Function compile flags: /Ogsp
;	COMDAT ??B?$CEncrypt@_N@@QBE_NXZ
_TEXT	SEGMENT
_value$ = -1						; size = 1
??B?$CEncrypt@_N@@QBE_NXZ PROC				; CEncrypt<bool>::operator bool, COMDAT
; _this$ = ecx

; 145  : 	{

  00000	55		 push	 ebp
  00001	8b ec		 mov	 ebp, esp
  00003	51		 push	 ecx

; 146  : 		//UJ 130829, const도 똑같이 하면 된다 --start
; 147  : 		type value;
; 148  : 		CEncrypt<type>* pThis = const_cast<CEncrypt<type>*>(this);
; 149  : 		pThis->DecryptValueToPool(&value);

  00004	8d 45 ff	 lea	 eax, DWORD PTR _value$[ebp]
  00007	50		 push	 eax
  00008	e8 00 00 00 00	 call	 ?DecryptValueToPool@?$CEncrypt@_N@@QAEXPA_N@Z ; CEncrypt<bool>::DecryptValueToPool

; 150  : 		//// const에서 DecryptValueToPool 사용할 수 없으므로 아래와 같이함.
; 151  :  		//type value;
; 152  : 		//char szTempMem[MAX_ENCRYPT];
; 153  : 		//m_RC5.DecryptByte( m_MemPool, szTempMem, max(m_ValueSize, DEFAULT_ENCRYPT) );
; 154  : 		//memcpy( &value, szTempMem, m_ValueSize );
; 155  : 		//UJ --end
; 156  : 
; 157  : #ifdef _NOTUSE
; 158  : 		Debug();
; 159  : #endif
; 160  : 		return value;

  0000d	8a 45 ff	 mov	 al, BYTE PTR _value$[ebp]

; 161  : 	}

  00010	c9		 leave
  00011	c3		 ret	 0
??B?$CEncrypt@_N@@QBE_NXZ ENDP				; CEncrypt<bool>::operator bool
_TEXT	ENDS
PUBLIC	??B?$CEncrypt@W4TeamType@@@@QBE?AW4TeamType@@XZ	; CEncrypt<enum TeamType>::operator enum TeamType
; Function compile flags: /Ogsp
;	COMDAT ??B?$CEncrypt@W4TeamType@@@@QBE?AW4TeamType@@XZ
_TEXT	SEGMENT
_value$ = -4						; size = 4
??B?$CEncrypt@W4TeamType@@@@QBE?AW4TeamType@@XZ PROC	; CEncrypt<enum TeamType>::operator enum TeamType, COMDAT
; _this$ = ecx

; 145  : 	{

  00000	55		 push	 ebp
  00001	8b ec		 mov	 ebp, esp
  00003	51		 push	 ecx

; 146  : 		//UJ 130829, const도 똑같이 하면 된다 --start
; 147  : 		type value;
; 148  : 		CEncrypt<type>* pThis = const_cast<CEncrypt<type>*>(this);
; 149  : 		pThis->DecryptValueToPool(&value);

  00004	8d 45 fc	 lea	 eax, DWORD PTR _value$[ebp]
  00007	50		 push	 eax
  00008	e8 00 00 00 00	 call	 ?DecryptValueToPool@?$CEncrypt@W4TeamType@@@@QAEXPAW4TeamType@@@Z ; CEncrypt<enum TeamType>::DecryptValueToPool

; 150  : 		//// const에서 DecryptValueToPool 사용할 수 없으므로 아래와 같이함.
; 151  :  		//type value;
; 152  : 		//char szTempMem[MAX_ENCRYPT];
; 153  : 		//m_RC5.DecryptByte( m_MemPool, szTempMem, max(m_ValueSize, DEFAULT_ENCRYPT) );
; 154  : 		//memcpy( &value, szTempMem, m_ValueSize );
; 155  : 		//UJ --end
; 156  : 
; 157  : #ifdef _NOTUSE
; 158  : 		Debug();
; 159  : #endif
; 160  : 		return value;

  0000d	8b 45 fc	 mov	 eax, DWORD PTR _value$[ebp]

; 161  : 	}

  00010	c9		 leave
  00011	c3		 ret	 0
??B?$CEncrypt@W4TeamType@@@@QBE?AW4TeamType@@XZ ENDP	; CEncrypt<enum TeamType>::operator enum TeamType
_TEXT	ENDS
PUBLIC	?IsPrisonerMode@ioBaseChar@@QBE_NXZ		; ioBaseChar::IsPrisonerMode
; Function compile flags: /Ogsp
; File d:\lost saga for developer\youtube\tutorial\source\src\lsclient\iobasechar.h
;	COMDAT ?IsPrisonerMode@ioBaseChar@@QBE_NXZ
_TEXT	SEGMENT
_value$545916 = -1					; size = 1
?IsPrisonerMode@ioBaseChar@@QBE_NXZ PROC		; ioBaseChar::IsPrisonerMode, COMDAT
; _this$ = ecx

; 2130 : 	inline bool IsPrisonerMode() const { return m_bPrisonerMode; }

  00000	55		 push	 ebp
  00001	8b ec		 mov	 ebp, esp
  00003	51		 push	 ecx
  00004	8d 45 ff	 lea	 eax, DWORD PTR _value$545916[ebp]
  00007	50		 push	 eax
  00008	81 c1 cc 14 00
	00		 add	 ecx, 5324		; 000014ccH
  0000e	e8 00 00 00 00	 call	 ?DecryptValueToPool@?$CEncrypt@_N@@QAEXPA_N@Z ; CEncrypt<bool>::DecryptValueToPool
  00013	8a 45 ff	 mov	 al, BYTE PTR _value$545916[ebp]
  00016	c9		 leave
  00017	c3		 ret	 0
?IsPrisonerMode@ioBaseChar@@QBE_NXZ ENDP		; ioBaseChar::IsPrisonerMode
_TEXT	ENDS
PUBLIC	?GetExperienceMode@ioBaseChar@@QBE?BKXZ		; ioBaseChar::GetExperienceMode
; Function compile flags: /Ogsp
;	COMDAT ?GetExperienceMode@ioBaseChar@@QBE?BKXZ
_TEXT	SEGMENT
_value$545923 = -4					; size = 4
?GetExperienceMode@ioBaseChar@@QBE?BKXZ PROC		; ioBaseChar::GetExperienceMode, COMDAT
; _this$ = ecx

; 3193 : 	inline const DWORD GetExperienceMode() const { return m_ExperienceMode; }

  00000	55		 push	 ebp
  00001	8b ec		 mov	 ebp, esp
  00003	51		 push	 ecx
  00004	8d 45 fc	 lea	 eax, DWORD PTR _value$545923[ebp]
  00007	50		 push	 eax
  00008	81 c1 94 1d 00
	00		 add	 ecx, 7572		; 00001d94H
  0000e	e8 00 00 00 00	 call	 ?DecryptValueToPool@?$CEncrypt@K@@QAEXPAK@Z ; CEncrypt<unsigned long>::DecryptValueToPool
  00013	8b 45 fc	 mov	 eax, DWORD PTR _value$545923[ebp]
  00016	c9		 leave
  00017	c3		 ret	 0
?GetExperienceMode@ioBaseChar@@QBE?BKXZ ENDP		; ioBaseChar::GetExperienceMode
_TEXT	ENDS
PUBLIC	?IsDisableDownTarget@ioChainWeapon@@QBE_NXZ	; ioChainWeapon::IsDisableDownTarget
; Function compile flags: /Ogsp
; File d:\lost saga for developer\youtube\tutorial\source\src\lsclient\iochainweapon.h
;	COMDAT ?IsDisableDownTarget@ioChainWeapon@@QBE_NXZ
_TEXT	SEGMENT
_value$545930 = -1					; size = 1
?IsDisableDownTarget@ioChainWeapon@@QBE_NXZ PROC	; ioChainWeapon::IsDisableDownTarget, COMDAT
; _this$ = ecx

; 74   : 	inline bool IsDisableDownTarget() const { return m_bDisableDownTarget; }

  00000	55		 push	 ebp
  00001	8b ec		 mov	 ebp, esp
  00003	51		 push	 ecx
  00004	8d 45 ff	 lea	 eax, DWORD PTR _value$545930[ebp]
  00007	50		 push	 eax
  00008	81 c1 78 09 00
	00		 add	 ecx, 2424		; 00000978H
  0000e	e8 00 00 00 00	 call	 ?DecryptValueToPool@?$CEncrypt@_N@@QAEXPA_N@Z ; CEncrypt<bool>::DecryptValueToPool
  00013	8a 45 ff	 mov	 al, BYTE PTR _value$545930[ebp]
  00016	c9		 leave
  00017	c3		 ret	 0
?IsDisableDownTarget@ioChainWeapon@@QBE_NXZ ENDP	; ioChainWeapon::IsDisableDownTarget
_TEXT	ENDS
PUBLIC	?begin@?$vector@UCharDistanceSq@FindPredicate@@V?$allocator@UCharDistanceSq@FindPredicate@@@std@@@std@@QAE?AV?$_Vector_iterator@V?$_Vector_val@UCharDistanceSq@FindPredicate@@V?$allocator@UCharDistanceSq@FindPredicate@@@std@@@std@@@2@XZ ; std::vector<FindPredicate::CharDistanceSq,std::allocator<FindPredicate::CharDistanceSq> >::begin
; Function compile flags: /Ogsp
; File c:\program files (x86)\microsoft visual studio 10.0\vc\include\vector
;	COMDAT ?begin@?$vector@UCharDistanceSq@FindPredicate@@V?$allocator@UCharDistanceSq@FindPredicate@@@std@@@std@@QAE?AV?$_Vector_iterator@V?$_Vector_val@UCharDistanceSq@FindPredicate@@V?$allocator@UCharDistanceSq@FindPredicate@@@std@@@std@@@2@XZ
_TEXT	SEGMENT
___$ReturnUdt$ = 8					; size = 4
?begin@?$vector@UCharDistanceSq@FindPredicate@@V?$allocator@UCharDistanceSq@FindPredicate@@@std@@@std@@QAE?AV?$_Vector_iterator@V?$_Vector_val@UCharDistanceSq@FindPredicate@@V?$allocator@UCharDistanceSq@FindPredicate@@@std@@@std@@@2@XZ PROC ; std::vector<FindPredicate::CharDistanceSq,std::allocator<FindPredicate::CharDistanceSq> >::begin, COMDAT
; _this$ = ecx

; 781  : 		{	// return iterator for beginning of mutable sequence

  00000	55		 push	 ebp
  00001	8b ec		 mov	 ebp, esp

; 782  : 		return (iterator(this->_Myfirst, this));

  00003	8b 09		 mov	 ecx, DWORD PTR [ecx]
  00005	8b 45 08	 mov	 eax, DWORD PTR ___$ReturnUdt$[ebp]
  00008	89 08		 mov	 DWORD PTR [eax], ecx

; 783  : 		}

  0000a	5d		 pop	 ebp
  0000b	c2 04 00	 ret	 4
?begin@?$vector@UCharDistanceSq@FindPredicate@@V?$allocator@UCharDistanceSq@FindPredicate@@@std@@@std@@QAE?AV?$_Vector_iterator@V?$_Vector_val@UCharDistanceSq@FindPredicate@@V?$allocator@UCharDistanceSq@FindPredicate@@@std@@@std@@@2@XZ ENDP ; std::vector<FindPredicate::CharDistanceSq,std::allocator<FindPredicate::CharDistanceSq> >::begin
_TEXT	ENDS
PUBLIC	?end@?$vector@UCharDistanceSq@FindPredicate@@V?$allocator@UCharDistanceSq@FindPredicate@@@std@@@std@@QAE?AV?$_Vector_iterator@V?$_Vector_val@UCharDistanceSq@FindPredicate@@V?$allocator@UCharDistanceSq@FindPredicate@@@std@@@std@@@2@XZ ; std::vector<FindPredicate::CharDistanceSq,std::allocator<FindPredicate::CharDistanceSq> >::end
; Function compile flags: /Ogsp
;	COMDAT ?end@?$vector@UCharDistanceSq@FindPredicate@@V?$allocator@UCharDistanceSq@FindPredicate@@@std@@@std@@QAE?AV?$_Vector_iterator@V?$_Vector_val@UCharDistanceSq@FindPredicate@@V?$allocator@UCharDistanceSq@FindPredicate@@@std@@@std@@@2@XZ
_TEXT	SEGMENT
___$ReturnUdt$ = 8					; size = 4
?end@?$vector@UCharDistanceSq@FindPredicate@@V?$allocator@UCharDistanceSq@FindPredicate@@@std@@@std@@QAE?AV?$_Vector_iterator@V?$_Vector_val@UCharDistanceSq@FindPredicate@@V?$allocator@UCharDistanceSq@FindPredicate@@@std@@@std@@@2@XZ PROC ; std::vector<FindPredicate::CharDistanceSq,std::allocator<FindPredicate::CharDistanceSq> >::end, COMDAT
; _this$ = ecx

; 791  : 		{	// return iterator for end of mutable sequence

  00000	55		 push	 ebp
  00001	8b ec		 mov	 ebp, esp

; 792  : 		return (iterator(this->_Mylast, this));

  00003	8b 49 04	 mov	 ecx, DWORD PTR [ecx+4]
  00006	8b 45 08	 mov	 eax, DWORD PTR ___$ReturnUdt$[ebp]
  00009	89 08		 mov	 DWORD PTR [eax], ecx

; 793  : 		}

  0000b	5d		 pop	 ebp
  0000c	c2 04 00	 ret	 4
?end@?$vector@UCharDistanceSq@FindPredicate@@V?$allocator@UCharDistanceSq@FindPredicate@@@std@@@std@@QAE?AV?$_Vector_iterator@V?$_Vector_val@UCharDistanceSq@FindPredicate@@V?$allocator@UCharDistanceSq@FindPredicate@@@std@@@std@@@2@XZ ENDP ; std::vector<FindPredicate::CharDistanceSq,std::allocator<FindPredicate::CharDistanceSq> >::end
_TEXT	ENDS
PUBLIC	?begin@?$vector@UCharAngle@FindPredicate@@V?$allocator@UCharAngle@FindPredicate@@@std@@@std@@QAE?AV?$_Vector_iterator@V?$_Vector_val@UCharAngle@FindPredicate@@V?$allocator@UCharAngle@FindPredicate@@@std@@@std@@@2@XZ ; std::vector<FindPredicate::CharAngle,std::allocator<FindPredicate::CharAngle> >::begin
; Function compile flags: /Ogsp
;	COMDAT ?begin@?$vector@UCharAngle@FindPredicate@@V?$allocator@UCharAngle@FindPredicate@@@std@@@std@@QAE?AV?$_Vector_iterator@V?$_Vector_val@UCharAngle@FindPredicate@@V?$allocator@UCharAngle@FindPredicate@@@std@@@std@@@2@XZ
_TEXT	SEGMENT
___$ReturnUdt$ = 8					; size = 4
?begin@?$vector@UCharAngle@FindPredicate@@V?$allocator@UCharAngle@FindPredicate@@@std@@@std@@QAE?AV?$_Vector_iterator@V?$_Vector_val@UCharAngle@FindPredicate@@V?$allocator@UCharAngle@FindPredicate@@@std@@@std@@@2@XZ PROC ; std::vector<FindPredicate::CharAngle,std::allocator<FindPredicate::CharAngle> >::begin, COMDAT
; _this$ = ecx

; 781  : 		{	// return iterator for beginning of mutable sequence

  00000	55		 push	 ebp
  00001	8b ec		 mov	 ebp, esp

; 782  : 		return (iterator(this->_Myfirst, this));

  00003	8b 09		 mov	 ecx, DWORD PTR [ecx]
  00005	8b 45 08	 mov	 eax, DWORD PTR ___$ReturnUdt$[ebp]
  00008	89 08		 mov	 DWORD PTR [eax], ecx

; 783  : 		}

  0000a	5d		 pop	 ebp
  0000b	c2 04 00	 ret	 4
?begin@?$vector@UCharAngle@FindPredicate@@V?$allocator@UCharAngle@FindPredicate@@@std@@@std@@QAE?AV?$_Vector_iterator@V?$_Vector_val@UCharAngle@FindPredicate@@V?$allocator@UCharAngle@FindPredicate@@@std@@@std@@@2@XZ ENDP ; std::vector<FindPredicate::CharAngle,std::allocator<FindPredicate::CharAngle> >::begin
_TEXT	ENDS
PUBLIC	?end@?$vector@UCharAngle@FindPredicate@@V?$allocator@UCharAngle@FindPredicate@@@std@@@std@@QAE?AV?$_Vector_iterator@V?$_Vector_val@UCharAngle@FindPredicate@@V?$allocator@UCharAngle@FindPredicate@@@std@@@std@@@2@XZ ; std::vector<FindPredicate::CharAngle,std::allocator<FindPredicate::CharAngle> >::end
; Function compile flags: /Ogsp
;	COMDAT ?end@?$vector@UCharAngle@FindPredicate@@V?$allocator@UCharAngle@FindPredicate@@@std@@@std@@QAE?AV?$_Vector_iterator@V?$_Vector_val@UCharAngle@FindPredicate@@V?$allocator@UCharAngle@FindPredicate@@@std@@@std@@@2@XZ
_TEXT	SEGMENT
___$ReturnUdt$ = 8					; size = 4
?end@?$vector@UCharAngle@FindPredicate@@V?$allocator@UCharAngle@FindPredicate@@@std@@@std@@QAE?AV?$_Vector_iterator@V?$_Vector_val@UCharAngle@FindPredicate@@V?$allocator@UCharAngle@FindPredicate@@@std@@@std@@@2@XZ PROC ; std::vector<FindPredicate::CharAngle,std::allocator<FindPredicate::CharAngle> >::end, COMDAT
; _this$ = ecx

; 791  : 		{	// return iterator for end of mutable sequence

  00000	55		 push	 ebp
  00001	8b ec		 mov	 ebp, esp

; 792  : 		return (iterator(this->_Mylast, this));

  00003	8b 49 04	 mov	 ecx, DWORD PTR [ecx+4]
  00006	8b 45 08	 mov	 eax, DWORD PTR ___$ReturnUdt$[ebp]
  00009	89 08		 mov	 DWORD PTR [eax], ecx

; 793  : 		}

  0000b	5d		 pop	 ebp
  0000c	c2 04 00	 ret	 4
?end@?$vector@UCharAngle@FindPredicate@@V?$allocator@UCharAngle@FindPredicate@@@std@@@std@@QAE?AV?$_Vector_iterator@V?$_Vector_val@UCharAngle@FindPredicate@@V?$allocator@UCharAngle@FindPredicate@@@std@@@std@@@2@XZ ENDP ; std::vector<FindPredicate::CharAngle,std::allocator<FindPredicate::CharAngle> >::end
_TEXT	ENDS
PUBLIC	??C?$_Vector_iterator@V?$_Vector_val@UCharDistanceSq@FindPredicate@@V?$allocator@UCharDistanceSq@FindPredicate@@@std@@@std@@@std@@QBEPAUCharDistanceSq@FindPredicate@@XZ ; std::_Vector_iterator<std::_Vector_val<FindPredicate::CharDistanceSq,std::allocator<FindPredicate::CharDistanceSq> > >::operator->
; Function compile flags: /Ogsp
;	COMDAT ??C?$_Vector_iterator@V?$_Vector_val@UCharDistanceSq@FindPredicate@@V?$allocator@UCharDistanceSq@FindPredicate@@@std@@@std@@@std@@QBEPAUCharDistanceSq@FindPredicate@@XZ
_TEXT	SEGMENT
??C?$_Vector_iterator@V?$_Vector_val@UCharDistanceSq@FindPredicate@@V?$allocator@UCharDistanceSq@FindPredicate@@@std@@@std@@@std@@QBEPAUCharDistanceSq@FindPredicate@@XZ PROC ; std::_Vector_iterator<std::_Vector_val<FindPredicate::CharDistanceSq,std::allocator<FindPredicate::CharDistanceSq> > >::operator->, COMDAT
; _this$ = ecx

; 327  : 		return (&**this);

  00000	8b 01		 mov	 eax, DWORD PTR [ecx]

; 328  : 		}

  00002	c3		 ret	 0
??C?$_Vector_iterator@V?$_Vector_val@UCharDistanceSq@FindPredicate@@V?$allocator@UCharDistanceSq@FindPredicate@@@std@@@std@@@std@@QBEPAUCharDistanceSq@FindPredicate@@XZ ENDP ; std::_Vector_iterator<std::_Vector_val<FindPredicate::CharDistanceSq,std::allocator<FindPredicate::CharDistanceSq> > >::operator->
_TEXT	ENDS
PUBLIC	??9?$_Vector_const_iterator@V?$_Vector_val@UCharDistanceSq@FindPredicate@@V?$allocator@UCharDistanceSq@FindPredicate@@@std@@@std@@@std@@QBE_NABV01@@Z ; std::_Vector_const_iterator<std::_Vector_val<FindPredicate::CharDistanceSq,std::allocator<FindPredicate::CharDistanceSq> > >::operator!=
; Function compile flags: /Ogsp
;	COMDAT ??9?$_Vector_const_iterator@V?$_Vector_val@UCharDistanceSq@FindPredicate@@V?$allocator@UCharDistanceSq@FindPredicate@@@std@@@std@@@std@@QBE_NABV01@@Z
_TEXT	SEGMENT
__Right$ = 8						; size = 4
??9?$_Vector_const_iterator@V?$_Vector_val@UCharDistanceSq@FindPredicate@@V?$allocator@UCharDistanceSq@FindPredicate@@@std@@@std@@@std@@QBE_NABV01@@Z PROC ; std::_Vector_const_iterator<std::_Vector_val<FindPredicate::CharDistanceSq,std::allocator<FindPredicate::CharDistanceSq> > >::operator!=, COMDAT
; _this$ = ecx

; 207  : 		{	// test for iterator inequality

  00000	55		 push	 ebp
  00001	8b ec		 mov	 ebp, esp

; 208  : 		return (!(*this == _Right));

  00003	8b 01		 mov	 eax, DWORD PTR [ecx]
  00005	8b 55 08	 mov	 edx, DWORD PTR __Right$[ebp]
  00008	33 c9		 xor	 ecx, ecx
  0000a	3b 02		 cmp	 eax, DWORD PTR [edx]
  0000c	0f 95 c0	 setne	 al

; 209  : 		}

  0000f	5d		 pop	 ebp
  00010	c2 04 00	 ret	 4
??9?$_Vector_const_iterator@V?$_Vector_val@UCharDistanceSq@FindPredicate@@V?$allocator@UCharDistanceSq@FindPredicate@@@std@@@std@@@std@@QBE_NABV01@@Z ENDP ; std::_Vector_const_iterator<std::_Vector_val<FindPredicate::CharDistanceSq,std::allocator<FindPredicate::CharDistanceSq> > >::operator!=
_TEXT	ENDS
PUBLIC	??C?$_Vector_iterator@V?$_Vector_val@UCharAngle@FindPredicate@@V?$allocator@UCharAngle@FindPredicate@@@std@@@std@@@std@@QBEPAUCharAngle@FindPredicate@@XZ ; std::_Vector_iterator<std::_Vector_val<FindPredicate::CharAngle,std::allocator<FindPredicate::CharAngle> > >::operator->
; Function compile flags: /Ogsp
;	COMDAT ??C?$_Vector_iterator@V?$_Vector_val@UCharAngle@FindPredicate@@V?$allocator@UCharAngle@FindPredicate@@@std@@@std@@@std@@QBEPAUCharAngle@FindPredicate@@XZ
_TEXT	SEGMENT
??C?$_Vector_iterator@V?$_Vector_val@UCharAngle@FindPredicate@@V?$allocator@UCharAngle@FindPredicate@@@std@@@std@@@std@@QBEPAUCharAngle@FindPredicate@@XZ PROC ; std::_Vector_iterator<std::_Vector_val<FindPredicate::CharAngle,std::allocator<FindPredicate::CharAngle> > >::operator->, COMDAT
; _this$ = ecx

; 327  : 		return (&**this);

  00000	8b 01		 mov	 eax, DWORD PTR [ecx]

; 328  : 		}

  00002	c3		 ret	 0
??C?$_Vector_iterator@V?$_Vector_val@UCharAngle@FindPredicate@@V?$allocator@UCharAngle@FindPredicate@@@std@@@std@@@std@@QBEPAUCharAngle@FindPredicate@@XZ ENDP ; std::_Vector_iterator<std::_Vector_val<FindPredicate::CharAngle,std::allocator<FindPredicate::CharAngle> > >::operator->
_TEXT	ENDS
PUBLIC	??9?$_Vector_const_iterator@V?$_Vector_val@UCharAngle@FindPredicate@@V?$allocator@UCharAngle@FindPredicate@@@std@@@std@@@std@@QBE_NABV01@@Z ; std::_Vector_const_iterator<std::_Vector_val<FindPredicate::CharAngle,std::allocator<FindPredicate::CharAngle> > >::operator!=
; Function compile flags: /Ogsp
;	COMDAT ??9?$_Vector_const_iterator@V?$_Vector_val@UCharAngle@FindPredicate@@V?$allocator@UCharAngle@FindPredicate@@@std@@@std@@@std@@QBE_NABV01@@Z
_TEXT	SEGMENT
__Right$ = 8						; size = 4
??9?$_Vector_const_iterator@V?$_Vector_val@UCharAngle@FindPredicate@@V?$allocator@UCharAngle@FindPredicate@@@std@@@std@@@std@@QBE_NABV01@@Z PROC ; std::_Vector_const_iterator<std::_Vector_val<FindPredicate::CharAngle,std::allocator<FindPredicate::CharAngle> > >::operator!=, COMDAT
; _this$ = ecx

; 207  : 		{	// test for iterator inequality

  00000	55		 push	 ebp
  00001	8b ec		 mov	 ebp, esp

; 208  : 		return (!(*this == _Right));

  00003	8b 01		 mov	 eax, DWORD PTR [ecx]
  00005	8b 55 08	 mov	 edx, DWORD PTR __Right$[ebp]
  00008	33 c9		 xor	 ecx, ecx
  0000a	3b 02		 cmp	 eax, DWORD PTR [edx]
  0000c	0f 95 c0	 setne	 al

; 209  : 		}

  0000f	5d		 pop	 ebp
  00010	c2 04 00	 ret	 4
??9?$_Vector_const_iterator@V?$_Vector_val@UCharAngle@FindPredicate@@V?$allocator@UCharAngle@FindPredicate@@@std@@@std@@@std@@QBE_NABV01@@Z ENDP ; std::_Vector_const_iterator<std::_Vector_val<FindPredicate::CharAngle,std::allocator<FindPredicate::CharAngle> > >::operator!=
_TEXT	ENDS
PUBLIC	??9?$_Vector_const_iterator@V?$_Vector_val@PAVioBaseChar@@V?$allocator@PAVioBaseChar@@@std@@@std@@@std@@QBE_NABV01@@Z ; std::_Vector_const_iterator<std::_Vector_val<ioBaseChar *,std::allocator<ioBaseChar *> > >::operator!=
; Function compile flags: /Ogsp
;	COMDAT ??9?$_Vector_const_iterator@V?$_Vector_val@PAVioBaseChar@@V?$allocator@PAVioBaseChar@@@std@@@std@@@std@@QBE_NABV01@@Z
_TEXT	SEGMENT
__Right$ = 8						; size = 4
??9?$_Vector_const_iterator@V?$_Vector_val@PAVioBaseChar@@V?$allocator@PAVioBaseChar@@@std@@@std@@@std@@QBE_NABV01@@Z PROC ; std::_Vector_const_iterator<std::_Vector_val<ioBaseChar *,std::allocator<ioBaseChar *> > >::operator!=, COMDAT
; _this$ = ecx

; 207  : 		{	// test for iterator inequality

  00000	55		 push	 ebp
  00001	8b ec		 mov	 ebp, esp

; 208  : 		return (!(*this == _Right));

  00003	8b 01		 mov	 eax, DWORD PTR [ecx]
  00005	8b 55 08	 mov	 edx, DWORD PTR __Right$[ebp]
  00008	33 c9		 xor	 ecx, ecx
  0000a	3b 02		 cmp	 eax, DWORD PTR [edx]
  0000c	0f 95 c0	 setne	 al

; 209  : 		}

  0000f	5d		 pop	 ebp
  00010	c2 04 00	 ret	 4
??9?$_Vector_const_iterator@V?$_Vector_val@PAVioBaseChar@@V?$allocator@PAVioBaseChar@@@std@@@std@@@std@@QBE_NABV01@@Z ENDP ; std::_Vector_const_iterator<std::_Vector_val<ioBaseChar *,std::allocator<ioBaseChar *> > >::operator!=
_TEXT	ENDS
PUBLIC	?_Destroy@?$vector@PAVioBaseChar@@V?$allocator@PAVioBaseChar@@@std@@@std@@IAEXPAPAVioBaseChar@@0@Z ; std::vector<ioBaseChar *,std::allocator<ioBaseChar *> >::_Destroy
; Function compile flags: /Ogsp
;	COMDAT ?_Destroy@?$vector@PAVioBaseChar@@V?$allocator@PAVioBaseChar@@@std@@@std@@IAEXPAPAVioBaseChar@@0@Z
_TEXT	SEGMENT
__First$ = 8						; size = 4
__Last$ = 12						; size = 4
?_Destroy@?$vector@PAVioBaseChar@@V?$allocator@PAVioBaseChar@@@std@@@std@@IAEXPAPAVioBaseChar@@0@Z PROC ; std::vector<ioBaseChar *,std::allocator<ioBaseChar *> >::_Destroy, COMDAT
; _this$ = ecx

; 1270 : 		_Destroy_range(_First, _Last, this->_Alval);
; 1271 : 		}

  00000	c2 08 00	 ret	 8
?_Destroy@?$vector@PAVioBaseChar@@V?$allocator@PAVioBaseChar@@@std@@@std@@IAEXPAPAVioBaseChar@@0@Z ENDP ; std::vector<ioBaseChar *,std::allocator<ioBaseChar *> >::_Destroy
_TEXT	ENDS
PUBLIC	??$_Cons_val@V?$allocator@PAVioBaseChar@@@std@@PAVioBaseChar@@ABQAV3@@std@@YAXAAV?$allocator@PAVioBaseChar@@@0@PAPAVioBaseChar@@ABQAV2@@Z ; std::_Cons_val<std::allocator<ioBaseChar *>,ioBaseChar *,ioBaseChar * const &>
; Function compile flags: /Ogsp
; File c:\program files (x86)\microsoft visual studio 10.0\vc\include\xmemory
;	COMDAT ??$_Cons_val@V?$allocator@PAVioBaseChar@@@std@@PAVioBaseChar@@ABQAV3@@std@@YAXAAV?$allocator@PAVioBaseChar@@@0@PAPAVioBaseChar@@ABQAV2@@Z
_TEXT	SEGMENT
__Alval$ = 8						; size = 4
__Pdest$ = 12						; size = 4
__Src$ = 16						; size = 4
??$_Cons_val@V?$allocator@PAVioBaseChar@@@std@@PAVioBaseChar@@ABQAV3@@std@@YAXAAV?$allocator@PAVioBaseChar@@@0@PAPAVioBaseChar@@ABQAV2@@Z PROC ; std::_Cons_val<std::allocator<ioBaseChar *>,ioBaseChar *,ioBaseChar * const &>, COMDAT

; 279  : 	{	// construct using allocator

  00000	55		 push	 ebp
  00001	8b ec		 mov	 ebp, esp

; 280  : 	_Alval.construct(_Pdest, _STD forward<_Ty2>(_Src));

  00003	8b 45 0c	 mov	 eax, DWORD PTR __Pdest$[ebp]
  00006	85 c0		 test	 eax, eax
  00008	74 07		 je	 SHORT $LN9@Cons_val@2
  0000a	8b 4d 10	 mov	 ecx, DWORD PTR __Src$[ebp]
  0000d	8b 09		 mov	 ecx, DWORD PTR [ecx]
  0000f	89 08		 mov	 DWORD PTR [eax], ecx
$LN9@Cons_val@2:

; 281  : 	}

  00011	5d		 pop	 ebp
  00012	c3		 ret	 0
??$_Cons_val@V?$allocator@PAVioBaseChar@@@std@@PAVioBaseChar@@ABQAV3@@std@@YAXAAV?$allocator@PAVioBaseChar@@@0@PAPAVioBaseChar@@ABQAV2@@Z ENDP ; std::_Cons_val<std::allocator<ioBaseChar *>,ioBaseChar *,ioBaseChar * const &>
_TEXT	ENDS
PUBLIC	??$_Umove@PAPAVioBaseChar@@@?$vector@PAVioBaseChar@@V?$allocator@PAVioBaseChar@@@std@@@std@@IAEPAPAVioBaseChar@@PAPAV2@00@Z ; std::vector<ioBaseChar *,std::allocator<ioBaseChar *> >::_Umove<ioBaseChar * *>
; Function compile flags: /Ogsp
; File c:\program files (x86)\microsoft visual studio 10.0\vc\include\vector
;	COMDAT ??$_Umove@PAPAVioBaseChar@@@?$vector@PAVioBaseChar@@V?$allocator@PAVioBaseChar@@@std@@@std@@IAEPAPAVioBaseChar@@PAPAV2@00@Z
_TEXT	SEGMENT
__First$ = 8						; size = 4
__Last$ = 12						; size = 4
__Ptr$ = 16						; size = 4
??$_Umove@PAPAVioBaseChar@@@?$vector@PAVioBaseChar@@V?$allocator@PAVioBaseChar@@@std@@@std@@IAEPAPAVioBaseChar@@PAPAV2@00@Z PROC ; std::vector<ioBaseChar *,std::allocator<ioBaseChar *> >::_Umove<ioBaseChar * *>, COMDAT
; _this$ = ecx

; 1322 : 		pointer _Umove(_Iter _First, _Iter _Last, pointer _Ptr)

  00000	55		 push	 ebp
  00001	8b ec		 mov	 ebp, esp

; 1323 : 		{	// move initializing [_First, _Last), using allocator
; 1324 : 		return (_Uninitialized_move(_First, _Last,
; 1325 : 			_Ptr, this->_Alval));

  00003	83 c1 0c	 add	 ecx, 12			; 0000000cH
  00006	51		 push	 ecx
  00007	ff 75 10	 push	 DWORD PTR __Ptr$[ebp]
  0000a	ff 75 0c	 push	 DWORD PTR __Last$[ebp]
  0000d	ff 75 08	 push	 DWORD PTR __First$[ebp]
  00010	e8 00 00 00 00	 call	 ??$_Uninitialized_move@PAPAVioBaseChar@@PAPAV1@V?$allocator@PAVioBaseChar@@@std@@@std@@YAPAPAVioBaseChar@@PAPAV1@00AAV?$allocator@PAVioBaseChar@@@0@@Z ; std::_Uninitialized_move<ioBaseChar * *,ioBaseChar * *,std::allocator<ioBaseChar *> >
  00015	83 c4 10	 add	 esp, 16			; 00000010H

; 1326 : 		}

  00018	5d		 pop	 ebp
  00019	c2 0c 00	 ret	 12			; 0000000cH
??$_Umove@PAPAVioBaseChar@@@?$vector@PAVioBaseChar@@V?$allocator@PAVioBaseChar@@@std@@@std@@IAEPAPAVioBaseChar@@PAPAV2@00@Z ENDP ; std::vector<ioBaseChar *,std::allocator<ioBaseChar *> >::_Umove<ioBaseChar * *>
_TEXT	ENDS
PUBLIC	??$iter_swap@PAUCharDistanceSq@FindPredicate@@PAU12@@std@@YAXPAUCharDistanceSq@FindPredicate@@0@Z ; std::iter_swap<FindPredicate::CharDistanceSq *,FindPredicate::CharDistanceSq *>
; Function compile flags: /Ogsp
; File c:\program files (x86)\microsoft visual studio 10.0\vc\include\xutility
;	COMDAT ??$iter_swap@PAUCharDistanceSq@FindPredicate@@PAU12@@std@@YAXPAUCharDistanceSq@FindPredicate@@0@Z
_TEXT	SEGMENT
__Left$ = 8						; size = 4
__Right$ = 12						; size = 4
??$iter_swap@PAUCharDistanceSq@FindPredicate@@PAU12@@std@@YAXPAUCharDistanceSq@FindPredicate@@0@Z PROC ; std::iter_swap<FindPredicate::CharDistanceSq *,FindPredicate::CharDistanceSq *>, COMDAT

; 2133 : 	{	// swap *_Left and *_Right

  00000	55		 push	 ebp
  00001	8b ec		 mov	 ebp, esp

; 2134 : 	swap(*_Left, *_Right);

  00003	8b 4d 0c	 mov	 ecx, DWORD PTR __Right$[ebp]
  00006	8b 45 08	 mov	 eax, DWORD PTR __Left$[ebp]
  00009	8b 10		 mov	 edx, DWORD PTR [eax]
  0000b	56		 push	 esi
  0000c	8b 70 04	 mov	 esi, DWORD PTR [eax+4]
  0000f	57		 push	 edi
  00010	8b 39		 mov	 edi, DWORD PTR [ecx]
  00012	89 38		 mov	 DWORD PTR [eax], edi
  00014	8b 79 04	 mov	 edi, DWORD PTR [ecx+4]
  00017	89 78 04	 mov	 DWORD PTR [eax+4], edi
  0001a	5f		 pop	 edi
  0001b	89 71 04	 mov	 DWORD PTR [ecx+4], esi
  0001e	89 11		 mov	 DWORD PTR [ecx], edx
  00020	5e		 pop	 esi

; 2135 : 	}

  00021	5d		 pop	 ebp
  00022	c3		 ret	 0
??$iter_swap@PAUCharDistanceSq@FindPredicate@@PAU12@@std@@YAXPAUCharDistanceSq@FindPredicate@@0@Z ENDP ; std::iter_swap<FindPredicate::CharDistanceSq *,FindPredicate::CharDistanceSq *>
_TEXT	ENDS
PUBLIC	??$_Move_backward@PAUCharDistanceSq@FindPredicate@@PAU12@@std@@YAPAUCharDistanceSq@FindPredicate@@PAU12@00@Z ; std::_Move_backward<FindPredicate::CharDistanceSq *,FindPredicate::CharDistanceSq *>
; Function compile flags: /Ogsp
;	COMDAT ??$_Move_backward@PAUCharDistanceSq@FindPredicate@@PAU12@@std@@YAPAUCharDistanceSq@FindPredicate@@PAU12@00@Z
_TEXT	SEGMENT
__Cat$546148 = -4					; size = 1
__First$ = 8						; size = 4
__Last$ = 12						; size = 4
__Dest$ = 16						; size = 4
??$_Move_backward@PAUCharDistanceSq@FindPredicate@@PAU12@@std@@YAPAUCharDistanceSq@FindPredicate@@PAU12@00@Z PROC ; std::_Move_backward<FindPredicate::CharDistanceSq *,FindPredicate::CharDistanceSq *>, COMDAT

; 2638 : 	{	// move [_First, _Last) backwards to [..., _Dest), unchecked

  00000	55		 push	 ebp
  00001	8b ec		 mov	 ebp, esp
  00003	51		 push	 ecx

; 2639 : 	return (_Move_backward(_First, _Last,
; 2640 : 		_Dest, _Ptr_cat(_First, _Dest)));

  00004	ff 75 fc	 push	 DWORD PTR __Cat$546148[ebp]
  00007	ff 75 10	 push	 DWORD PTR __Dest$[ebp]
  0000a	ff 75 0c	 push	 DWORD PTR __Last$[ebp]
  0000d	ff 75 08	 push	 DWORD PTR __First$[ebp]
  00010	e8 00 00 00 00	 call	 ??$_Move_backward@PAUCharDistanceSq@FindPredicate@@PAU12@@std@@YAPAUCharDistanceSq@FindPredicate@@PAU12@00U_Nonscalar_ptr_iterator_tag@0@@Z ; std::_Move_backward<FindPredicate::CharDistanceSq *,FindPredicate::CharDistanceSq *>
  00015	83 c4 10	 add	 esp, 16			; 00000010H

; 2641 : 	}

  00018	c9		 leave
  00019	c3		 ret	 0
??$_Move_backward@PAUCharDistanceSq@FindPredicate@@PAU12@@std@@YAPAUCharDistanceSq@FindPredicate@@PAU12@00@Z ENDP ; std::_Move_backward<FindPredicate::CharDistanceSq *,FindPredicate::CharDistanceSq *>
_TEXT	ENDS
PUBLIC	?GetTeam@ioPlayEntity@@QBE?AW4TeamType@@XZ	; ioPlayEntity::GetTeam
; Function compile flags: /Ogsp
; File d:\lost saga for developer\youtube\tutorial\source\src\lsclient\ioplayentity.h
;	COMDAT ?GetTeam@ioPlayEntity@@QBE?AW4TeamType@@XZ
_TEXT	SEGMENT
_value$546154 = -4					; size = 4
?GetTeam@ioPlayEntity@@QBE?AW4TeamType@@XZ PROC		; ioPlayEntity::GetTeam, COMDAT
; _this$ = ecx

; 107  : 	inline TeamType GetTeam() const { return m_TeamType; }

  00000	55		 push	 ebp
  00001	8b ec		 mov	 ebp, esp
  00003	51		 push	 ecx
  00004	8d 45 fc	 lea	 eax, DWORD PTR _value$546154[ebp]
  00007	50		 push	 eax
  00008	81 c1 90 00 00
	00		 add	 ecx, 144		; 00000090H
  0000e	e8 00 00 00 00	 call	 ?DecryptValueToPool@?$CEncrypt@W4TeamType@@@@QAEXPAW4TeamType@@@Z ; CEncrypt<enum TeamType>::DecryptValueToPool
  00013	8b 45 fc	 mov	 eax, DWORD PTR _value$546154[ebp]
  00016	c9		 leave
  00017	c3		 ret	 0
?GetTeam@ioPlayEntity@@QBE?AW4TeamType@@XZ ENDP		; ioPlayEntity::GetTeam
_TEXT	ENDS
EXTRN	?m_vDistanceSortList@FindPredicate@@1V?$vector@UCharDistanceSq@FindPredicate@@V?$allocator@UCharDistanceSq@FindPredicate@@@std@@@std@@A:BYTE ; FindPredicate::m_vDistanceSortList
EXTRN	?MakeMostCloseSortList@FindPredicate@@IAEXABV?$vector@PAVioBaseChar@@V?$allocator@PAVioBaseChar@@@std@@@std@@M@Z:PROC ; FindPredicate::MakeMostCloseSortList
EXTRN	__imp_?infinity@?$numeric_limits@M@std@@SAMXZ:PROC
EXTRN	?IsExperienceOwner@FindPredicate@@IAE_NXZ:PROC	; FindPredicate::IsExperienceOwner
; Function compile flags: /Ogsp
; File d:\lost saga for developer\youtube\tutorial\source\src\lsclient\findpredicateimpl.cpp
;	COMDAT ?GetFindChar@FD_CloseAliveEnemy@@UAEPAVioBaseChar@@ABV?$vector@PAVioBaseChar@@V?$allocator@PAVioBaseChar@@@std@@@std@@@Z
_TEXT	SEGMENT
_value$546322 = -12					; size = 4
_value$546298 = -8					; size = 4
_value$546284 = -4					; size = 4
_rkCandidateList$ = 8					; size = 4
_value$546311 = 11					; size = 1
?GetFindChar@FD_CloseAliveEnemy@@UAEPAVioBaseChar@@ABV?$vector@PAVioBaseChar@@V?$allocator@PAVioBaseChar@@@std@@@std@@@Z PROC ; FD_CloseAliveEnemy::GetFindChar, COMDAT
; _this$ = ecx

; 21   : {

  00000	55		 push	 ebp
  00001	8b ec		 mov	 ebp, esp
  00003	83 ec 0c	 sub	 esp, 12			; 0000000cH
  00006	53		 push	 ebx
  00007	8b d9		 mov	 ebx, ecx

; 22   : 	if( IsExperienceOwner() ) return NULL;

  00009	e8 00 00 00 00	 call	 ?IsExperienceOwner@FindPredicate@@IAE_NXZ ; FindPredicate::IsExperienceOwner
  0000e	84 c0		 test	 al, al
  00010	74 07		 je	 SHORT $LN5@GetFindCha
  00012	33 c0		 xor	 eax, eax
  00014	e9 9c 00 00 00	 jmp	 $LN6@GetFindCha
$LN5@GetFindCha:
  00019	56		 push	 esi
  0001a	57		 push	 edi

; 23   : 
; 24   : 	MakeMostCloseSortList( rkCandidateList, std::numeric_limits<float>::infinity() );

  0001b	ff 15 00 00 00
	00		 call	 DWORD PTR __imp_?infinity@?$numeric_limits@M@std@@SAMXZ
  00021	51		 push	 ecx
  00022	d9 1c 24	 fstp	 DWORD PTR [esp]
  00025	ff 75 08	 push	 DWORD PTR _rkCandidateList$[ebp]
  00028	8b cb		 mov	 ecx, ebx
  0002a	e8 00 00 00 00	 call	 ?MakeMostCloseSortList@FindPredicate@@IAEXABV?$vector@PAVioBaseChar@@V?$allocator@PAVioBaseChar@@@std@@@std@@M@Z ; FindPredicate::MakeMostCloseSortList

; 25   : 
; 26   : 	CharDistanceList::iterator iter;
; 27   : 	for( iter=m_vDistanceSortList.begin() ; iter!=m_vDistanceSortList.end() ; ++iter )

  0002f	8b 3d 00 00 00
	00		 mov	 edi, DWORD PTR ?m_vDistanceSortList@FindPredicate@@1V?$vector@UCharDistanceSq@FindPredicate@@V?$allocator@UCharDistanceSq@FindPredicate@@@std@@@std@@A
  00035	eb 72		 jmp	 SHORT $LN76@GetFindCha
$LL22@GetFindCha:

; 28   : 	{
; 29   : 		ioBaseChar *pChar = iter->pChar;

  00037	8b 37		 mov	 esi, DWORD PTR [edi]

; 30   : 		if( pChar->GetState() != CS_DIE
; 31   : 			&& pChar->GetState() != CS_VIEW
; 32   : 			&& pChar->GetState() != CS_OBSERVER
; 33   : 			&& pChar->GetState() != CS_LOADING
; 34   : 			&& pChar->GetState() != CS_CHANGE_WAIT
; 35   : 			&& m_pOwner->GetTeam() != pChar->GetTeam()
; 36   : 			&& !pChar->IsPrisonerMode() 
; 37   : 			&& pChar->GetExperienceMode() != EMS_EXPERIENCE )

  00039	8a 86 10 03 00
	00		 mov	 al, BYTE PTR [esi+784]
  0003f	3c 0e		 cmp	 al, 14			; 0000000eH
  00041	74 63		 je	 SHORT $LN3@GetFindCha
  00043	3c 1a		 cmp	 al, 26			; 0000001aH
  00045	74 5f		 je	 SHORT $LN3@GetFindCha
  00047	3c 2a		 cmp	 al, 42			; 0000002aH
  00049	74 5b		 je	 SHORT $LN3@GetFindCha
  0004b	3c 24		 cmp	 al, 36			; 00000024H
  0004d	74 57		 je	 SHORT $LN3@GetFindCha
  0004f	3c 1c		 cmp	 al, 28			; 0000001cH
  00051	74 53		 je	 SHORT $LN3@GetFindCha
  00053	8b 4b 04	 mov	 ecx, DWORD PTR [ebx+4]
  00056	8d 45 fc	 lea	 eax, DWORD PTR _value$546284[ebp]
  00059	50		 push	 eax
  0005a	81 c1 90 00 00
	00		 add	 ecx, 144		; 00000090H
  00060	e8 00 00 00 00	 call	 ?DecryptValueToPool@?$CEncrypt@W4TeamType@@@@QAEXPAW4TeamType@@@Z ; CEncrypt<enum TeamType>::DecryptValueToPool
  00065	8d 45 f8	 lea	 eax, DWORD PTR _value$546298[ebp]
  00068	50		 push	 eax
  00069	8d 8e 90 00 00
	00		 lea	 ecx, DWORD PTR [esi+144]
  0006f	e8 00 00 00 00	 call	 ?DecryptValueToPool@?$CEncrypt@W4TeamType@@@@QAEXPAW4TeamType@@@Z ; CEncrypt<enum TeamType>::DecryptValueToPool
  00074	8b 45 fc	 mov	 eax, DWORD PTR _value$546284[ebp]
  00077	3b 45 f8	 cmp	 eax, DWORD PTR _value$546298[ebp]
  0007a	74 2a		 je	 SHORT $LN3@GetFindCha
  0007c	8d 45 0b	 lea	 eax, DWORD PTR _value$546311[ebp]
  0007f	50		 push	 eax
  00080	8d 8e cc 14 00
	00		 lea	 ecx, DWORD PTR [esi+5324]
  00086	e8 00 00 00 00	 call	 ?DecryptValueToPool@?$CEncrypt@_N@@QAEXPA_N@Z ; CEncrypt<bool>::DecryptValueToPool
  0008b	80 7d 0b 00	 cmp	 BYTE PTR _value$546311[ebp], 0
  0008f	75 15		 jne	 SHORT $LN3@GetFindCha
  00091	8d 45 f4	 lea	 eax, DWORD PTR _value$546322[ebp]
  00094	50		 push	 eax
  00095	8d 8e 94 1d 00
	00		 lea	 ecx, DWORD PTR [esi+7572]
  0009b	e8 00 00 00 00	 call	 ?DecryptValueToPool@?$CEncrypt@K@@QAEXPAK@Z ; CEncrypt<unsigned long>::DecryptValueToPool
  000a0	83 7d f4 02	 cmp	 DWORD PTR _value$546322[ebp], 2
  000a4	75 14		 jne	 SHORT $LN71@GetFindCha
$LN3@GetFindCha:

; 25   : 
; 26   : 	CharDistanceList::iterator iter;
; 27   : 	for( iter=m_vDistanceSortList.begin() ; iter!=m_vDistanceSortList.end() ; ++iter )

  000a6	83 c7 08	 add	 edi, 8
$LN76@GetFindCha:
  000a9	3b 3d 04 00 00
	00		 cmp	 edi, DWORD PTR ?m_vDistanceSortList@FindPredicate@@1V?$vector@UCharDistanceSq@FindPredicate@@V?$allocator@UCharDistanceSq@FindPredicate@@@std@@@std@@A+4
  000af	75 86		 jne	 SHORT $LL22@GetFindCha

; 39   : 	}
; 40   : 
; 41   : 	return NULL;

  000b1	33 c0		 xor	 eax, eax
$LN74@GetFindCha:
  000b3	5f		 pop	 edi
  000b4	5e		 pop	 esi
$LN6@GetFindCha:
  000b5	5b		 pop	 ebx

; 42   : }

  000b6	c9		 leave
  000b7	c2 04 00	 ret	 4
$LN71@GetFindCha:

; 38   : 			return pChar;

  000ba	8b c6		 mov	 eax, esi
  000bc	eb f5		 jmp	 SHORT $LN74@GetFindCha
?GetFindChar@FD_CloseAliveEnemy@@UAEPAVioBaseChar@@ABV?$vector@PAVioBaseChar@@V?$allocator@PAVioBaseChar@@@std@@@std@@@Z ENDP ; FD_CloseAliveEnemy::GetFindChar
_TEXT	ENDS
PUBLIC	__$ArrayPad$
EXTRN	?HasHideBuff@ioBaseChar@@QAE?B_NXZ:PROC		; ioBaseChar::HasHideBuff
EXTRN	?IsChatModeState@ioBaseChar@@QBE_N_N@Z:PROC	; ioBaseChar::IsChatModeState
EXTRN	__imp_??9ioHashString@@QBE_NABV0@@Z:PROC
EXTRN	?GetDeveloperKCharName@Help@@YAABVioHashString@@XZ:PROC ; Help::GetDeveloperKCharName
EXTRN	?HasChangeTeamBuff@ioBaseChar@@QBE_N_N@Z:PROC	; ioBaseChar::HasChangeTeamBuff
EXTRN	?IsApplyDownState@ioBaseChar@@QAE_N_N@Z:PROC	; ioBaseChar::IsApplyDownState
EXTRN	?IsFloatingState@ioBaseChar@@QBE_NXZ:PROC	; ioBaseChar::IsFloatingState
EXTRN	?IsEnableTarget@ioBaseChar@@QAE_N_N0@Z:PROC	; ioBaseChar::IsEnableTarget
EXTRN	?IsSystemState@ioBaseChar@@QAE_NXZ:PROC		; ioBaseChar::IsSystemState
EXTRN	__imp_??D@YA?AUD3DXVECTOR3@@ABUD3DXQUATERNION@@ABU0@@Z:PROC
EXTRN	?MakeMostCloseSortList@FindPredicate@@IAEXABV?$vector@PAVioBaseChar@@V?$allocator@PAVioBaseChar@@@std@@@std@@MM@Z:PROC ; FindPredicate::MakeMostCloseSortList
; Function compile flags: /Ogsp
;	COMDAT ?GetFindChar@FD_AimTarget@@UAEPAVioBaseChar@@ABV?$vector@PAVioBaseChar@@V?$allocator@PAVioBaseChar@@@std@@@std@@@Z
_TEXT	SEGMENT
_vOwnerPos$ = -80					; size = 12
_value$546510 = -68					; size = 4
_qtRot$ = -64						; size = 16
_value$546523 = -48					; size = 4
tv721 = -44						; size = 4
_value$546497 = -44					; size = 4
tv748 = -40						; size = 4
tv729 = -40						; size = 4
tv725 = -40						; size = 4
_fHalfCosine$ = -40					; size = 4
tv718 = -36						; size = 4
tv712 = -36						; size = 4
_value$546484 = -36					; size = 4
$T546350 = -36						; size = 4
_eState$541724 = -29					; size = 1
_vCharDir$ = -28					; size = 12
_vDiff$541742 = -16					; size = 12
$T541706 = -16						; size = 12
__$ArrayPad$ = -4					; size = 4
_rkCandidateList$ = 8					; size = 4
?GetFindChar@FD_AimTarget@@UAEPAVioBaseChar@@ABV?$vector@PAVioBaseChar@@V?$allocator@PAVioBaseChar@@@std@@@std@@@Z PROC ; FD_AimTarget::GetFindChar, COMDAT
; _this$ = ecx

; 61   : {

  00000	55		 push	 ebp
  00001	8b ec		 mov	 ebp, esp
  00003	83 ec 50	 sub	 esp, 80			; 00000050H
  00006	a1 00 00 00 00	 mov	 eax, DWORD PTR ___security_cookie
  0000b	33 c5		 xor	 eax, ebp
  0000d	89 45 fc	 mov	 DWORD PTR __$ArrayPad$[ebp], eax
  00010	53		 push	 ebx
  00011	56		 push	 esi
  00012	8b 75 08	 mov	 esi, DWORD PTR _rkCandidateList$[ebp]
  00015	8b d9		 mov	 ebx, ecx

; 62   : 	if( IsExperienceOwner() ) return NULL;

  00017	e8 00 00 00 00	 call	 ?IsExperienceOwner@FindPredicate@@IAE_NXZ ; FindPredicate::IsExperienceOwner
  0001c	84 c0		 test	 al, al
  0001e	74 07		 je	 SHORT $LN22@GetFindCha@2
  00020	33 c0		 xor	 eax, eax
  00022	e9 49 03 00 00	 jmp	 $LN23@GetFindCha@2
$LN22@GetFindCha@2:

; 63   : 
; 64   : 	MakeMostCloseSortList( rkCandidateList, m_fMinRange*m_fMinRange, m_fAimRange*m_fAimRange );

  00027	f3 0f 10 43 0c	 movss	 xmm0, DWORD PTR [ebx+12]
  0002c	f3 0f 10 4b 10	 movss	 xmm1, DWORD PTR [ebx+16]
  00031	57		 push	 edi
  00032	0f 5a c0	 cvtps2pd xmm0, xmm0
  00035	51		 push	 ecx
  00036	51		 push	 ecx
  00037	f2 0f 59 c0	 mulsd	 xmm0, xmm0
  0003b	66 0f 5a c0	 cvtpd2ps xmm0, xmm0
  0003f	f3 0f 11 44 24
	04		 movss	 DWORD PTR [esp+4], xmm0
  00045	0f 5a c9	 cvtps2pd xmm1, xmm1
  00048	f2 0f 59 c9	 mulsd	 xmm1, xmm1
  0004c	0f 57 c0	 xorps	 xmm0, xmm0
  0004f	66 0f 5a c1	 cvtpd2ps xmm0, xmm1
  00053	f3 0f 11 04 24	 movss	 DWORD PTR [esp], xmm0
  00058	56		 push	 esi
  00059	8b cb		 mov	 ecx, ebx
  0005b	e8 00 00 00 00	 call	 ?MakeMostCloseSortList@FindPredicate@@IAEXABV?$vector@PAVioBaseChar@@V?$allocator@PAVioBaseChar@@@std@@@std@@MM@Z ; FindPredicate::MakeMostCloseSortList

; 65   : 
; 66   : 	//D3DXVECTOR3 vCharDir  = m_pOwner->GetMoveDir();
; 67   : 	D3DXQUATERNION qtRot = m_pOwner->GetTargetRot();

  00060	8b 73 04	 mov	 esi, DWORD PTR [ebx+4]
  00063	81 c6 a4 06 00
	00		 add	 esi, 1700		; 000006a4H
  00069	8d 7d c0	 lea	 edi, DWORD PTR _qtRot$[ebp]
  0006c	a5		 movsd
  0006d	a5		 movsd
  0006e	a5		 movsd
  0006f	a5		 movsd

; 68   : 	D3DXVECTOR3 vCharDir  = qtRot * D3DXVECTOR3( 0.0f, 0.0f, -FLOAT1 );

  00070	b8 01 00 00 00	 mov	 eax, 1
  00075	0f 57 c0	 xorps	 xmm0, xmm0
  00078	89 45 d8	 mov	 DWORD PTR tv748[ebp], eax
  0007b	db 45 d8	 fild	 DWORD PTR tv748[ebp]
  0007e	f3 0f 11 45 f0	 movss	 DWORD PTR $T541706[ebp], xmm0
  00083	f3 0f 11 45 f4	 movss	 DWORD PTR $T541706[ebp+4], xmm0
  00088	85 c0		 test	 eax, eax
  0008a	79 06		 jns	 SHORT $LN111@GetFindCha@2
  0008c	d8 05 00 00 00
	00		 fadd	 DWORD PTR __real@4f800000
$LN111@GetFindCha@2:
  00092	8d 45 f0	 lea	 eax, DWORD PTR $T541706[ebp]
  00095	d9 e0		 fchs
  00097	50		 push	 eax
  00098	d9 5d f8	 fstp	 DWORD PTR $T541706[ebp+8]
  0009b	8d 45 c0	 lea	 eax, DWORD PTR _qtRot$[ebp]
  0009e	50		 push	 eax
  0009f	8d 45 e4	 lea	 eax, DWORD PTR _vCharDir$[ebp]
  000a2	50		 push	 eax
  000a3	ff 15 00 00 00
	00		 call	 DWORD PTR __imp_??D@YA?AUD3DXVECTOR3@@ABUD3DXQUATERNION@@ABU0@@Z

; 69   : 	D3DXVECTOR3 vOwnerPos = m_pOwner->GetWorldPosition();

  000a9	8b 4b 04	 mov	 ecx, DWORD PTR [ebx+4]
  000ac	8b 01		 mov	 eax, DWORD PTR [ecx]
  000ae	83 c4 0c	 add	 esp, 12			; 0000000cH
  000b1	ff 50 70	 call	 DWORD PTR [eax+112]

; 70   : 	float fHalfCosine = cosf( DEGtoRAD( m_fAimAngle ) * FLOAT05 );

  000b4	d9 43 08	 fld	 DWORD PTR [ebx+8]
  000b7	dc 0d 00 00 00
	00		 fmul	 QWORD PTR __real@3f91df46a2526c7a
  000bd	8b f0		 mov	 esi, eax
  000bf	8d 7d b0	 lea	 edi, DWORD PTR _vOwnerPos$[ebp]
  000c2	a5		 movsd
  000c3	d9 5d dc	 fstp	 DWORD PTR $T546350[ebp]
  000c6	a5		 movsd
  000c7	a5		 movsd
  000c8	b8 05 00 00 00	 mov	 eax, 5
  000cd	8b c8		 mov	 ecx, eax
  000cf	b8 0a 00 00 00	 mov	 eax, 10			; 0000000aH
  000d4	89 4d d8	 mov	 DWORD PTR tv729[ebp], ecx
  000d7	db 45 d8	 fild	 DWORD PTR tv729[ebp]
  000da	85 c9		 test	 ecx, ecx
  000dc	79 06		 jns	 SHORT $LN112@GetFindCha@2
  000de	d8 05 00 00 00
	00		 fadd	 DWORD PTR __real@4f800000
$LN112@GetFindCha@2:
  000e4	89 45 d8	 mov	 DWORD PTR tv725[ebp], eax
  000e7	db 45 d8	 fild	 DWORD PTR tv725[ebp]
  000ea	85 c0		 test	 eax, eax
  000ec	79 06		 jns	 SHORT $LN113@GetFindCha@2
  000ee	d8 05 00 00 00
	00		 fadd	 DWORD PTR __real@4f800000
$LN113@GetFindCha@2:
  000f4	de f9		 fdivp	 ST(1), ST(0)
  000f6	d9 5d d4	 fstp	 DWORD PTR tv721[ebp]
  000f9	d9 45 d4	 fld	 DWORD PTR tv721[ebp]
  000fc	d8 4d dc	 fmul	 DWORD PTR $T546350[ebp]
  000ff	d9 5d dc	 fstp	 DWORD PTR tv718[ebp]
  00102	d9 45 dc	 fld	 DWORD PTR tv718[ebp]
  00105	e8 00 00 00 00	 call	 __CIcos
  0010a	d9 5d dc	 fstp	 DWORD PTR tv712[ebp]
  0010d	d9 45 dc	 fld	 DWORD PTR tv712[ebp]

; 71   : 
; 72   : 	CharDistanceList::iterator iter;
; 73   : 	for( iter=m_vDistanceSortList.begin() ; iter!=m_vDistanceSortList.end() ; ++iter )

  00110	8b 3d 00 00 00
	00		 mov	 edi, DWORD PTR ?m_vDistanceSortList@FindPredicate@@1V?$vector@UCharDistanceSq@FindPredicate@@V?$allocator@UCharDistanceSq@FindPredicate@@@std@@@std@@A
  00116	d9 5d d8	 fstp	 DWORD PTR _fHalfCosine$[ebp]
  00119	e9 43 02 00 00	 jmp	 $LN114@GetFindCha@2
$LL53@GetFindCha@2:

; 74   : 	{
; 75   : 		ioBaseChar *pChar = iter->pChar;

  0011e	8b 37		 mov	 esi, DWORD PTR [edi]

; 76   : 
; 77   : 		CharState eState = pChar->GetState();

  00120	8a 86 10 03 00
	00		 mov	 al, BYTE PTR [esi+784]

; 78   : 		if( pChar->IsSystemState() )

  00126	8b ce		 mov	 ecx, esi
  00128	88 45 e3	 mov	 BYTE PTR _eState$541724[ebp], al
  0012b	e8 00 00 00 00	 call	 ?IsSystemState@ioBaseChar@@QAE_NXZ ; ioBaseChar::IsSystemState
  00130	84 c0		 test	 al, al
  00132	0f 85 26 02 00
	00		 jne	 $LN20@GetFindCha@2

; 79   : 			continue;
; 80   : 		
; 81   : 		if( !pChar->IsEnableTarget( false ) ) 

  00138	6a 01		 push	 1
  0013a	6a 00		 push	 0
  0013c	8b ce		 mov	 ecx, esi
  0013e	e8 00 00 00 00	 call	 ?IsEnableTarget@ioBaseChar@@QAE_N_N0@Z ; ioBaseChar::IsEnableTarget
  00143	84 c0		 test	 al, al
  00145	0f 84 13 02 00
	00		 je	 $LN20@GetFindCha@2

; 82   : 			continue;
; 83   : 		if( eState == CS_FROZEN && pChar->GetBlowFrozenState() && !m_bDownAim )

  0014b	80 7d e3 17	 cmp	 BYTE PTR _eState$541724[ebp], 23 ; 00000017H
  0014f	75 17		 jne	 SHORT $LN16@GetFindCha@2
  00151	80 be c5 15 00
	00 00		 cmp	 BYTE PTR [esi+5573], 0
  00158	0f 84 a8 00 00
	00		 je	 $LN10@GetFindCha@2
  0015e	80 7b 15 00	 cmp	 BYTE PTR [ebx+21], 0
  00162	0f 84 f6 01 00
	00		 je	 $LN20@GetFindCha@2
$LN16@GetFindCha@2:

; 84   : 			continue;
; 85   : 
; 86   : 		if( eState == CS_BLOW_WOUNDED && !pChar->IsFloatingState() && !m_bDownAim )

  00168	80 7d e3 0c	 cmp	 BYTE PTR _eState$541724[ebp], 12 ; 0000000cH
  0016c	75 18		 jne	 SHORT $LN15@GetFindCha@2
  0016e	8b ce		 mov	 ecx, esi
  00170	e8 00 00 00 00	 call	 ?IsFloatingState@ioBaseChar@@QBE_NXZ ; ioBaseChar::IsFloatingState
  00175	84 c0		 test	 al, al
  00177	0f 85 89 00 00
	00		 jne	 $LN10@GetFindCha@2
  0017d	38 43 15	 cmp	 BYTE PTR [ebx+21], al
  00180	0f 84 d8 01 00
	00		 je	 $LN20@GetFindCha@2
$LN15@GetFindCha@2:

; 87   : 			continue;
; 88   : 
; 89   : 		if( eState == CS_BOUND_BLOW_WOUNDED && !pChar->IsFloatingState() && !m_bDownAim )

  00186	80 7d e3 31	 cmp	 BYTE PTR _eState$541724[ebp], 49 ; 00000031H
  0018a	75 14		 jne	 SHORT $LN14@GetFindCha@2
  0018c	8b ce		 mov	 ecx, esi
  0018e	e8 00 00 00 00	 call	 ?IsFloatingState@ioBaseChar@@QBE_NXZ ; ioBaseChar::IsFloatingState
  00193	84 c0		 test	 al, al
  00195	75 6f		 jne	 SHORT $LN10@GetFindCha@2
  00197	38 43 15	 cmp	 BYTE PTR [ebx+21], al
  0019a	0f 84 be 01 00
	00		 je	 $LN20@GetFindCha@2
$LN14@GetFindCha@2:

; 90   : 			continue;
; 91   : 
; 92   : 		if( eState == CS_ETC_STATE && pChar->IsApplyDownState(false) && !m_bDownAim )

  001a0	80 7d e3 0f	 cmp	 BYTE PTR _eState$541724[ebp], 15 ; 0000000fH
  001a4	75 17		 jne	 SHORT $LN13@GetFindCha@2
  001a6	6a 00		 push	 0
  001a8	8b ce		 mov	 ecx, esi
  001aa	e8 00 00 00 00	 call	 ?IsApplyDownState@ioBaseChar@@QAE_N_N@Z ; ioBaseChar::IsApplyDownState
  001af	84 c0		 test	 al, al
  001b1	74 53		 je	 SHORT $LN10@GetFindCha@2
  001b3	80 7b 15 00	 cmp	 BYTE PTR [ebx+21], 0
  001b7	0f 84 a1 01 00
	00		 je	 $LN20@GetFindCha@2
$LN13@GetFindCha@2:

; 93   : 			continue;
; 94   : 
; 95   : 		if( eState == CS_USING_SKILL && pChar->IsApplyDownState(false) && !m_bDownAim )

  001bd	80 7d e3 07	 cmp	 BYTE PTR _eState$541724[ebp], 7
  001c1	75 17		 jne	 SHORT $LN12@GetFindCha@2
  001c3	6a 00		 push	 0
  001c5	8b ce		 mov	 ecx, esi
  001c7	e8 00 00 00 00	 call	 ?IsApplyDownState@ioBaseChar@@QAE_N_N@Z ; ioBaseChar::IsApplyDownState
  001cc	84 c0		 test	 al, al
  001ce	74 36		 je	 SHORT $LN10@GetFindCha@2
  001d0	80 7b 15 00	 cmp	 BYTE PTR [ebx+21], 0
  001d4	0f 84 84 01 00
	00		 je	 $LN20@GetFindCha@2
$LN12@GetFindCha@2:

; 96   : 			continue;
; 97   : 		if( eState == CS_STOP_MOTION && pChar->GetBlowStopMotionState() && !m_bDownAim )

  001da	80 7d e3 26	 cmp	 BYTE PTR _eState$541724[ebp], 38 ; 00000026H
  001de	75 13		 jne	 SHORT $LN11@GetFindCha@2
  001e0	80 be c7 15 00
	00 00		 cmp	 BYTE PTR [esi+5575], 0
  001e7	74 1d		 je	 SHORT $LN10@GetFindCha@2
  001e9	80 7b 15 00	 cmp	 BYTE PTR [ebx+21], 0
  001ed	0f 84 6b 01 00
	00		 je	 $LN20@GetFindCha@2
$LN11@GetFindCha@2:

; 98   : 			continue;
; 99   : 
; 100  : 		if( eState == CS_ICE_STATE && pChar->GetBlowStopMotionState() )

  001f3	80 7d e3 3b	 cmp	 BYTE PTR _eState$541724[ebp], 59 ; 0000003bH
  001f7	75 0d		 jne	 SHORT $LN10@GetFindCha@2
  001f9	80 be c7 15 00
	00 00		 cmp	 BYTE PTR [esi+5575], 0
  00200	0f 85 58 01 00
	00		 jne	 $LN20@GetFindCha@2
$LN10@GetFindCha@2:

; 101  : 			continue;
; 102  : 
; 103  : 		if( pChar->HasChangeTeamBuff(true) )

  00206	6a 01		 push	 1
  00208	8b ce		 mov	 ecx, esi
  0020a	e8 00 00 00 00	 call	 ?HasChangeTeamBuff@ioBaseChar@@QBE_N_N@Z ; ioBaseChar::HasChangeTeamBuff
  0020f	84 c0		 test	 al, al
  00211	0f 85 47 01 00
	00		 jne	 $LN20@GetFindCha@2

; 104  : 			continue;
; 105  : 		
; 106  : 		//개발자 K는 팀에 구애받지 않고 힐이 가능하다.
; 107  : 		if( pChar->GetCharName() != Help::GetDeveloperKCharName() )        

  00217	e8 00 00 00 00	 call	 ?GetDeveloperKCharName@Help@@YAABVioHashString@@XZ ; Help::GetDeveloperKCharName
  0021c	50		 push	 eax
  0021d	8d 8e d4 02 00
	00		 lea	 ecx, DWORD PTR [esi+724]
  00223	ff 15 00 00 00
	00		 call	 DWORD PTR __imp_??9ioHashString@@QBE_NABV0@@Z
  00229	84 c0		 test	 al, al
  0022b	0f 84 81 00 00
	00		 je	 $LN2@GetFindCha@2

; 108  : 		{
; 109  : 			if( pChar->IsChatModeState( false ) )

  00231	6a 00		 push	 0
  00233	8b ce		 mov	 ecx, esi
  00235	e8 00 00 00 00	 call	 ?IsChatModeState@ioBaseChar@@QBE_N_N@Z ; ioBaseChar::IsChatModeState
  0023a	84 c0		 test	 al, al
  0023c	0f 85 1c 01 00
	00		 jne	 $LN20@GetFindCha@2

; 110  : 				continue;
; 111  : 
; 112  : 			if( m_bOwnerTeam )

  00242	38 43 14	 cmp	 BYTE PTR [ebx+20], al
  00245	74 3e		 je	 SHORT $LN6@GetFindCha@2

; 113  : 			{
; 114  : 				if( pChar->HasHideBuff() )

  00247	8b ce		 mov	 ecx, esi
  00249	e8 00 00 00 00	 call	 ?HasHideBuff@ioBaseChar@@QAE?B_NXZ ; ioBaseChar::HasHideBuff
  0024e	84 c0		 test	 al, al
  00250	0f 85 08 01 00
	00		 jne	 $LN20@GetFindCha@2

; 115  : 					continue;
; 116  : 
; 117  : 				if( pChar->GetTeam() == m_pOwner->GetTeam() )

  00256	8d 45 dc	 lea	 eax, DWORD PTR _value$546484[ebp]
  00259	50		 push	 eax
  0025a	8d 8e 90 00 00
	00		 lea	 ecx, DWORD PTR [esi+144]
  00260	e8 00 00 00 00	 call	 ?DecryptValueToPool@?$CEncrypt@W4TeamType@@@@QAEXPAW4TeamType@@@Z ; CEncrypt<enum TeamType>::DecryptValueToPool
  00265	8b 4b 04	 mov	 ecx, DWORD PTR [ebx+4]
  00268	8d 45 d4	 lea	 eax, DWORD PTR _value$546497[ebp]
  0026b	50		 push	 eax
  0026c	81 c1 90 00 00
	00		 add	 ecx, 144		; 00000090H
  00272	e8 00 00 00 00	 call	 ?DecryptValueToPool@?$CEncrypt@W4TeamType@@@@QAEXPAW4TeamType@@@Z ; CEncrypt<enum TeamType>::DecryptValueToPool
  00277	8b 45 dc	 mov	 eax, DWORD PTR _value$546484[ebp]
  0027a	3b 45 d4	 cmp	 eax, DWORD PTR _value$546497[ebp]
  0027d	0f 84 db 00 00
	00		 je	 $LN20@GetFindCha@2

; 118  : 					continue;
; 119  : 			}

  00283	eb 2d		 jmp	 SHORT $LN2@GetFindCha@2
$LN6@GetFindCha@2:

; 120  : 			else if(!m_bOwnerTeam && pChar->GetTeam() != m_pOwner->GetTeam() )

  00285	8d 45 bc	 lea	 eax, DWORD PTR _value$546510[ebp]
  00288	50		 push	 eax
  00289	8d 8e 90 00 00
	00		 lea	 ecx, DWORD PTR [esi+144]
  0028f	e8 00 00 00 00	 call	 ?DecryptValueToPool@?$CEncrypt@W4TeamType@@@@QAEXPAW4TeamType@@@Z ; CEncrypt<enum TeamType>::DecryptValueToPool
  00294	8b 4b 04	 mov	 ecx, DWORD PTR [ebx+4]
  00297	8d 45 d0	 lea	 eax, DWORD PTR _value$546523[ebp]
  0029a	50		 push	 eax
  0029b	81 c1 90 00 00
	00		 add	 ecx, 144		; 00000090H
  002a1	e8 00 00 00 00	 call	 ?DecryptValueToPool@?$CEncrypt@W4TeamType@@@@QAEXPAW4TeamType@@@Z ; CEncrypt<enum TeamType>::DecryptValueToPool
  002a6	8b 45 bc	 mov	 eax, DWORD PTR _value$546510[ebp]
  002a9	3b 45 d0	 cmp	 eax, DWORD PTR _value$546523[ebp]
  002ac	0f 85 ac 00 00
	00		 jne	 $LN20@GetFindCha@2
$LN2@GetFindCha@2:

; 121  : 				continue;
; 122  : 		}		
; 123  : 
; 124  : 		D3DXVECTOR3 vDiff = pChar->GetWorldPosition() - vOwnerPos;

  002b2	8b 06		 mov	 eax, DWORD PTR [esi]
  002b4	8b ce		 mov	 ecx, esi
  002b6	ff 50 70	 call	 DWORD PTR [eax+112]
  002b9	f3 0f 10 40 08	 movss	 xmm0, DWORD PTR [eax+8]
  002be	f3 0f 10 4d b8	 movss	 xmm1, DWORD PTR _vOwnerPos$[ebp+8]
  002c3	f3 0f 10 55 b0	 movss	 xmm2, DWORD PTR _vOwnerPos$[ebp]
  002c8	0f 5a c9	 cvtps2pd xmm1, xmm1
  002cb	0f 5a c0	 cvtps2pd xmm0, xmm0
  002ce	f2 0f 5c c1	 subsd	 xmm0, xmm1
  002d2	f3 0f 10 08	 movss	 xmm1, DWORD PTR [eax]

; 125  : 		vDiff.y = 0.0f;
; 126  : 		D3DXVec3Normalize( &vDiff, &vDiff );

  002d6	8d 45 f0	 lea	 eax, DWORD PTR _vDiff$541742[ebp]
  002d9	66 0f 5a c0	 cvtpd2ps xmm0, xmm0
  002dd	0f 5a c9	 cvtps2pd xmm1, xmm1
  002e0	0f 5a d2	 cvtps2pd xmm2, xmm2
  002e3	50		 push	 eax
  002e4	f2 0f 5c ca	 subsd	 xmm1, xmm2
  002e8	f3 0f 11 45 f8	 movss	 DWORD PTR _vDiff$541742[ebp+8], xmm0
  002ed	0f 57 c0	 xorps	 xmm0, xmm0
  002f0	66 0f 5a c9	 cvtpd2ps xmm1, xmm1
  002f4	50		 push	 eax
  002f5	f3 0f 11 4d f0	 movss	 DWORD PTR _vDiff$541742[ebp], xmm1
  002fa	f3 0f 11 45 f4	 movss	 DWORD PTR _vDiff$541742[ebp+4], xmm0
  002ff	e8 00 00 00 00	 call	 _D3DXVec3Normalize@8

; 127  : 
; 128  : 		if( D3DXVec3Dot( &vCharDir, &vDiff ) >= fHalfCosine )

  00304	f3 0f 10 4d e4	 movss	 xmm1, DWORD PTR _vCharDir$[ebp]
  00309	f3 0f 10 45 f0	 movss	 xmm0, DWORD PTR _vDiff$541742[ebp]
  0030e	f3 0f 10 55 f4	 movss	 xmm2, DWORD PTR _vDiff$541742[ebp+4]
  00313	0f 5a c9	 cvtps2pd xmm1, xmm1
  00316	0f 5a c0	 cvtps2pd xmm0, xmm0
  00319	f2 0f 59 c1	 mulsd	 xmm0, xmm1
  0031d	f3 0f 10 4d e8	 movss	 xmm1, DWORD PTR _vCharDir$[ebp+4]
  00322	0f 5a c9	 cvtps2pd xmm1, xmm1
  00325	0f 5a d2	 cvtps2pd xmm2, xmm2
  00328	f2 0f 59 ca	 mulsd	 xmm1, xmm2
  0032c	f3 0f 10 55 f8	 movss	 xmm2, DWORD PTR _vDiff$541742[ebp+8]
  00331	f2 0f 58 c1	 addsd	 xmm0, xmm1
  00335	f3 0f 10 4d ec	 movss	 xmm1, DWORD PTR _vCharDir$[ebp+8]
  0033a	0f 5a c9	 cvtps2pd xmm1, xmm1
  0033d	0f 5a d2	 cvtps2pd xmm2, xmm2
  00340	f2 0f 59 ca	 mulsd	 xmm1, xmm2
  00344	f2 0f 58 c1	 addsd	 xmm0, xmm1
  00348	f3 0f 10 4d d8	 movss	 xmm1, DWORD PTR _fHalfCosine$[ebp]
  0034d	66 0f 5a c0	 cvtpd2ps xmm0, xmm0
  00351	f3 0f 5a c0	 cvtss2sd xmm0, xmm0
  00355	0f 5a c9	 cvtps2pd xmm1, xmm1
  00358	66 0f 2f c1	 comisd	 xmm0, xmm1
  0035c	73 22		 jae	 SHORT $LN108@GetFindCha@2
$LN20@GetFindCha@2:

; 71   : 
; 72   : 	CharDistanceList::iterator iter;
; 73   : 	for( iter=m_vDistanceSortList.begin() ; iter!=m_vDistanceSortList.end() ; ++iter )

  0035e	83 c7 08	 add	 edi, 8
$LN114@GetFindCha@2:
  00361	3b 3d 04 00 00
	00		 cmp	 edi, DWORD PTR ?m_vDistanceSortList@FindPredicate@@1V?$vector@UCharDistanceSq@FindPredicate@@V?$allocator@UCharDistanceSq@FindPredicate@@@std@@@std@@A+4
  00367	0f 85 b1 fd ff
	ff		 jne	 $LL53@GetFindCha@2

; 130  : 	}
; 131  : 
; 132  : 	return NULL;

  0036d	33 c0		 xor	 eax, eax
$LN110@GetFindCha@2:
  0036f	5f		 pop	 edi
$LN23@GetFindCha@2:

; 133  : }

  00370	8b 4d fc	 mov	 ecx, DWORD PTR __$ArrayPad$[ebp]
  00373	5e		 pop	 esi
  00374	33 cd		 xor	 ecx, ebp
  00376	5b		 pop	 ebx
  00377	e8 00 00 00 00	 call	 @__security_check_cookie@4
  0037c	c9		 leave
  0037d	c2 04 00	 ret	 4
$LN108@GetFindCha@2:

; 129  : 			return pChar;

  00380	8b c6		 mov	 eax, esi
  00382	eb eb		 jmp	 SHORT $LN110@GetFindCha@2
?GetFindChar@FD_AimTarget@@UAEPAVioBaseChar@@ABV?$vector@PAVioBaseChar@@V?$allocator@PAVioBaseChar@@@std@@@std@@@Z ENDP ; FD_AimTarget::GetFindChar
_TEXT	ENDS
PUBLIC	__$ArrayPad$
; Function compile flags: /Ogsp
;	COMDAT ?GetFindChar@FD_AimTarget_Staff@@UAEPAVioBaseChar@@ABV?$vector@PAVioBaseChar@@V?$allocator@PAVioBaseChar@@@std@@@std@@@Z
_TEXT	SEGMENT
_vOwnerPos$ = -84					; size = 12
_value$546743 = -72					; size = 4
_qtRot$ = -68						; size = 16
_value$546756 = -52					; size = 4
tv669 = -48						; size = 4
_value$546730 = -48					; size = 4
tv696 = -44						; size = 4
tv677 = -44						; size = 4
tv673 = -44						; size = 4
_fHalfCosine$ = -44					; size = 4
_value$546701 = -37					; size = 1
tv666 = -36						; size = 4
tv660 = -36						; size = 4
_value$546716 = -36					; size = 4
$T546570 = -36						; size = 4
_eState$541782 = -29					; size = 1
_vCharDir$ = -28					; size = 12
_vDiff$541795 = -16					; size = 12
$T541768 = -16						; size = 12
__$ArrayPad$ = -4					; size = 4
_rkCandidateList$ = 8					; size = 4
?GetFindChar@FD_AimTarget_Staff@@UAEPAVioBaseChar@@ABV?$vector@PAVioBaseChar@@V?$allocator@PAVioBaseChar@@@std@@@std@@@Z PROC ; FD_AimTarget_Staff::GetFindChar, COMDAT
; _this$ = ecx

; 151  : {

  00000	55		 push	 ebp
  00001	8b ec		 mov	 ebp, esp
  00003	83 ec 54	 sub	 esp, 84			; 00000054H
  00006	a1 00 00 00 00	 mov	 eax, DWORD PTR ___security_cookie
  0000b	33 c5		 xor	 eax, ebp
  0000d	89 45 fc	 mov	 DWORD PTR __$ArrayPad$[ebp], eax
  00010	53		 push	 ebx
  00011	56		 push	 esi
  00012	8b 75 08	 mov	 esi, DWORD PTR _rkCandidateList$[ebp]
  00015	8b d9		 mov	 ebx, ecx

; 152  : 	if( IsExperienceOwner() ) return NULL;

  00017	e8 00 00 00 00	 call	 ?IsExperienceOwner@FindPredicate@@IAE_NXZ ; FindPredicate::IsExperienceOwner
  0001c	84 c0		 test	 al, al
  0001e	74 07		 je	 SHORT $LN17@GetFindCha@3
  00020	33 c0		 xor	 eax, eax
  00022	e9 d6 02 00 00	 jmp	 $LN18@GetFindCha@3
$LN17@GetFindCha@3:

; 153  : 
; 154  : 	MakeMostCloseSortList( rkCandidateList, m_fMinRange*m_fMinRange, m_fAimRange*m_fAimRange );

  00027	f3 0f 10 43 0c	 movss	 xmm0, DWORD PTR [ebx+12]
  0002c	f3 0f 10 4b 10	 movss	 xmm1, DWORD PTR [ebx+16]
  00031	57		 push	 edi
  00032	0f 5a c0	 cvtps2pd xmm0, xmm0
  00035	51		 push	 ecx
  00036	51		 push	 ecx
  00037	f2 0f 59 c0	 mulsd	 xmm0, xmm0
  0003b	66 0f 5a c0	 cvtpd2ps xmm0, xmm0
  0003f	f3 0f 11 44 24
	04		 movss	 DWORD PTR [esp+4], xmm0
  00045	0f 5a c9	 cvtps2pd xmm1, xmm1
  00048	f2 0f 59 c9	 mulsd	 xmm1, xmm1
  0004c	0f 57 c0	 xorps	 xmm0, xmm0
  0004f	66 0f 5a c1	 cvtpd2ps xmm0, xmm1
  00053	f3 0f 11 04 24	 movss	 DWORD PTR [esp], xmm0
  00058	56		 push	 esi
  00059	8b cb		 mov	 ecx, ebx
  0005b	e8 00 00 00 00	 call	 ?MakeMostCloseSortList@FindPredicate@@IAEXABV?$vector@PAVioBaseChar@@V?$allocator@PAVioBaseChar@@@std@@@std@@MM@Z ; FindPredicate::MakeMostCloseSortList

; 155  : 
; 156  : 	//D3DXVECTOR3 vCharDir  = m_pOwner->GetMoveDir();
; 157  : 	D3DXQUATERNION qtRot = m_pOwner->GetTargetRot();

  00060	8b 73 04	 mov	 esi, DWORD PTR [ebx+4]
  00063	81 c6 a4 06 00
	00		 add	 esi, 1700		; 000006a4H
  00069	8d 7d bc	 lea	 edi, DWORD PTR _qtRot$[ebp]
  0006c	a5		 movsd
  0006d	a5		 movsd
  0006e	a5		 movsd
  0006f	a5		 movsd

; 158  : 	D3DXVECTOR3 vCharDir  = qtRot * D3DXVECTOR3( 0.0f, 0.0f, -FLOAT1 );

  00070	b8 01 00 00 00	 mov	 eax, 1
  00075	0f 57 c0	 xorps	 xmm0, xmm0
  00078	89 45 d4	 mov	 DWORD PTR tv696[ebp], eax
  0007b	db 45 d4	 fild	 DWORD PTR tv696[ebp]
  0007e	f3 0f 11 45 f0	 movss	 DWORD PTR $T541768[ebp], xmm0
  00083	f3 0f 11 45 f4	 movss	 DWORD PTR $T541768[ebp+4], xmm0
  00088	85 c0		 test	 eax, eax
  0008a	79 06		 jns	 SHORT $LN110@GetFindCha@3
  0008c	d8 05 00 00 00
	00		 fadd	 DWORD PTR __real@4f800000
$LN110@GetFindCha@3:
  00092	8d 45 f0	 lea	 eax, DWORD PTR $T541768[ebp]
  00095	d9 e0		 fchs
  00097	50		 push	 eax
  00098	d9 5d f8	 fstp	 DWORD PTR $T541768[ebp+8]
  0009b	8d 45 bc	 lea	 eax, DWORD PTR _qtRot$[ebp]
  0009e	50		 push	 eax
  0009f	8d 45 e4	 lea	 eax, DWORD PTR _vCharDir$[ebp]
  000a2	50		 push	 eax
  000a3	ff 15 00 00 00
	00		 call	 DWORD PTR __imp_??D@YA?AUD3DXVECTOR3@@ABUD3DXQUATERNION@@ABU0@@Z

; 159  : 	D3DXVECTOR3 vOwnerPos = m_pOwner->GetWorldPosition();

  000a9	8b 4b 04	 mov	 ecx, DWORD PTR [ebx+4]
  000ac	8b 01		 mov	 eax, DWORD PTR [ecx]
  000ae	83 c4 0c	 add	 esp, 12			; 0000000cH
  000b1	ff 50 70	 call	 DWORD PTR [eax+112]

; 160  : 	float fHalfCosine = cosf( DEGtoRAD( m_fAimAngle ) * FLOAT05 );

  000b4	d9 43 08	 fld	 DWORD PTR [ebx+8]
  000b7	dc 0d 00 00 00
	00		 fmul	 QWORD PTR __real@3f91df46a2526c7a
  000bd	8b f0		 mov	 esi, eax
  000bf	8d 7d ac	 lea	 edi, DWORD PTR _vOwnerPos$[ebp]
  000c2	a5		 movsd
  000c3	d9 5d dc	 fstp	 DWORD PTR $T546570[ebp]
  000c6	a5		 movsd
  000c7	a5		 movsd
  000c8	b8 05 00 00 00	 mov	 eax, 5
  000cd	8b c8		 mov	 ecx, eax
  000cf	b8 0a 00 00 00	 mov	 eax, 10			; 0000000aH
  000d4	89 4d d4	 mov	 DWORD PTR tv677[ebp], ecx
  000d7	db 45 d4	 fild	 DWORD PTR tv677[ebp]
  000da	85 c9		 test	 ecx, ecx
  000dc	79 06		 jns	 SHORT $LN111@GetFindCha@3
  000de	d8 05 00 00 00
	00		 fadd	 DWORD PTR __real@4f800000
$LN111@GetFindCha@3:
  000e4	89 45 d4	 mov	 DWORD PTR tv673[ebp], eax
  000e7	db 45 d4	 fild	 DWORD PTR tv673[ebp]
  000ea	85 c0		 test	 eax, eax
  000ec	79 06		 jns	 SHORT $LN112@GetFindCha@3
  000ee	d8 05 00 00 00
	00		 fadd	 DWORD PTR __real@4f800000
$LN112@GetFindCha@3:
  000f4	de f9		 fdivp	 ST(1), ST(0)
  000f6	d9 5d d0	 fstp	 DWORD PTR tv669[ebp]
  000f9	d9 45 d0	 fld	 DWORD PTR tv669[ebp]
  000fc	d8 4d dc	 fmul	 DWORD PTR $T546570[ebp]
  000ff	d9 5d dc	 fstp	 DWORD PTR tv666[ebp]
  00102	d9 45 dc	 fld	 DWORD PTR tv666[ebp]
  00105	e8 00 00 00 00	 call	 __CIcos
  0010a	d9 5d dc	 fstp	 DWORD PTR tv660[ebp]
  0010d	d9 45 dc	 fld	 DWORD PTR tv660[ebp]

; 161  : 
; 162  : 	CharDistanceList::iterator iter;
; 163  : 	for( iter=m_vDistanceSortList.begin() ; iter!=m_vDistanceSortList.end() ; ++iter )

  00110	8b 3d 00 00 00
	00		 mov	 edi, DWORD PTR ?m_vDistanceSortList@FindPredicate@@1V?$vector@UCharDistanceSq@FindPredicate@@V?$allocator@UCharDistanceSq@FindPredicate@@@std@@@std@@A
  00116	d9 5d d4	 fstp	 DWORD PTR _fHalfCosine$[ebp]
  00119	e9 d0 01 00 00	 jmp	 $LN113@GetFindCha@3
$LL48@GetFindCha@3:

; 164  : 	{
; 165  : 		ioBaseChar *pChar = iter->pChar;

  0011e	8b 37		 mov	 esi, DWORD PTR [edi]

; 166  : 		CharState eState = pChar->GetState();		

  00120	8a 86 10 03 00
	00		 mov	 al, BYTE PTR [esi+784]

; 167  : 		if( pChar->IsSystemState() )

  00126	8b ce		 mov	 ecx, esi
  00128	88 45 e3	 mov	 BYTE PTR _eState$541782[ebp], al
  0012b	e8 00 00 00 00	 call	 ?IsSystemState@ioBaseChar@@QAE_NXZ ; ioBaseChar::IsSystemState
  00130	84 c0		 test	 al, al
  00132	0f 85 b3 01 00
	00		 jne	 $LN15@GetFindCha@3

; 168  : 			continue;
; 169  : 		
; 170  : 		if( !pChar->IsEnableTarget( false ) ) 

  00138	6a 01		 push	 1
  0013a	6a 00		 push	 0
  0013c	8b ce		 mov	 ecx, esi
  0013e	e8 00 00 00 00	 call	 ?IsEnableTarget@ioBaseChar@@QAE_N_N0@Z ; ioBaseChar::IsEnableTarget
  00143	84 c0		 test	 al, al
  00145	0f 84 a0 01 00
	00		 je	 $LN15@GetFindCha@3

; 171  : 			continue;
; 172  : 
; 173  : 		if( eState == CS_FROZEN && pChar->GetBlowFrozenState() )

  0014b	80 7d e3 17	 cmp	 BYTE PTR _eState$541782[ebp], 23 ; 00000017H
  0014f	75 0d		 jne	 SHORT $LN11@GetFindCha@3
  00151	80 be c5 15 00
	00 00		 cmp	 BYTE PTR [esi+5573], 0
  00158	0f 85 8d 01 00
	00		 jne	 $LN15@GetFindCha@3
$LN11@GetFindCha@3:

; 174  : 			continue;
; 175  : 
; 176  : 		if( eState == CS_STOP_MOTION && pChar->GetBlowStopMotionState() )

  0015e	80 7d e3 26	 cmp	 BYTE PTR _eState$541782[ebp], 38 ; 00000026H
  00162	75 0d		 jne	 SHORT $LN10@GetFindCha@3
  00164	80 be c7 15 00
	00 00		 cmp	 BYTE PTR [esi+5575], 0
  0016b	0f 85 7a 01 00
	00		 jne	 $LN15@GetFindCha@3
$LN10@GetFindCha@3:

; 177  : 			continue;
; 178  : 
; 179  : 		if( eState == CS_ICE_STATE && pChar->GetBlowStopMotionState() )

  00171	80 7d e3 3b	 cmp	 BYTE PTR _eState$541782[ebp], 59 ; 0000003bH
  00175	75 0d		 jne	 SHORT $LN9@GetFindCha@3
  00177	80 be c7 15 00
	00 00		 cmp	 BYTE PTR [esi+5575], 0
  0017e	0f 85 67 01 00
	00		 jne	 $LN15@GetFindCha@3
$LN9@GetFindCha@3:

; 180  : 			continue;
; 181  : 
; 182  : 		if( pChar->IsPrisonerMode() )

  00184	8d 45 db	 lea	 eax, DWORD PTR _value$546701[ebp]
  00187	50		 push	 eax
  00188	8d 8e cc 14 00
	00		 lea	 ecx, DWORD PTR [esi+5324]
  0018e	e8 00 00 00 00	 call	 ?DecryptValueToPool@?$CEncrypt@_N@@QAEXPA_N@Z ; CEncrypt<bool>::DecryptValueToPool
  00193	80 7d db 00	 cmp	 BYTE PTR _value$546701[ebp], 0
  00197	0f 85 4e 01 00
	00		 jne	 $LN15@GetFindCha@3

; 183  : 			continue;
; 184  : 		if( pChar->HasChangeTeamBuff(true) )

  0019d	6a 01		 push	 1
  0019f	8b ce		 mov	 ecx, esi
  001a1	e8 00 00 00 00	 call	 ?HasChangeTeamBuff@ioBaseChar@@QBE_N_N@Z ; ioBaseChar::HasChangeTeamBuff
  001a6	84 c0		 test	 al, al
  001a8	0f 85 3d 01 00
	00		 jne	 $LN15@GetFindCha@3

; 185  : 			continue;
; 186  : 		
; 187  : 		//개발자 K는 팀에 구애받지 않고 힐이 가능하다.
; 188  : 		if( pChar->GetCharName() != Help::GetDeveloperKCharName() )     

  001ae	e8 00 00 00 00	 call	 ?GetDeveloperKCharName@Help@@YAABVioHashString@@XZ ; Help::GetDeveloperKCharName
  001b3	50		 push	 eax
  001b4	8d 8e d4 02 00
	00		 lea	 ecx, DWORD PTR [esi+724]
  001ba	ff 15 00 00 00
	00		 call	 DWORD PTR __imp_??9ioHashString@@QBE_NABV0@@Z
  001c0	84 c0		 test	 al, al
  001c2	74 7b		 je	 SHORT $LN2@GetFindCha@3

; 189  : 		{
; 190  : 			if( pChar->IsChatModeState( false ) )

  001c4	6a 00		 push	 0
  001c6	8b ce		 mov	 ecx, esi
  001c8	e8 00 00 00 00	 call	 ?IsChatModeState@ioBaseChar@@QBE_N_N@Z ; ioBaseChar::IsChatModeState
  001cd	84 c0		 test	 al, al
  001cf	0f 85 16 01 00
	00		 jne	 $LN15@GetFindCha@3

; 191  : 				continue;
; 192  : 
; 193  : 			if( m_bOwnerTeam && pChar->GetTeam() != m_pOwner->GetTeam() )

  001d5	38 43 14	 cmp	 BYTE PTR [ebx+20], al
  001d8	74 2d		 je	 SHORT $LN4@GetFindCha@3
  001da	8d 45 dc	 lea	 eax, DWORD PTR _value$546716[ebp]
  001dd	50		 push	 eax
  001de	8d 8e 90 00 00
	00		 lea	 ecx, DWORD PTR [esi+144]
  001e4	e8 00 00 00 00	 call	 ?DecryptValueToPool@?$CEncrypt@W4TeamType@@@@QAEXPAW4TeamType@@@Z ; CEncrypt<enum TeamType>::DecryptValueToPool
  001e9	8b 4b 04	 mov	 ecx, DWORD PTR [ebx+4]
  001ec	8d 45 d0	 lea	 eax, DWORD PTR _value$546730[ebp]
  001ef	50		 push	 eax
  001f0	81 c1 90 00 00
	00		 add	 ecx, 144		; 00000090H
  001f6	e8 00 00 00 00	 call	 ?DecryptValueToPool@?$CEncrypt@W4TeamType@@@@QAEXPAW4TeamType@@@Z ; CEncrypt<enum TeamType>::DecryptValueToPool
  001fb	8b 45 dc	 mov	 eax, DWORD PTR _value$546716[ebp]
  001fe	3b 45 d0	 cmp	 eax, DWORD PTR _value$546730[ebp]
  00201	0f 85 e4 00 00
	00		 jne	 $LN15@GetFindCha@3
$LN4@GetFindCha@3:

; 194  : 				continue;
; 195  : 
; 196  : 			if( pChar->HasHideBuff() )

  00207	8b ce		 mov	 ecx, esi
  00209	e8 00 00 00 00	 call	 ?HasHideBuff@ioBaseChar@@QAE?B_NXZ ; ioBaseChar::HasHideBuff
  0020e	84 c0		 test	 al, al
  00210	74 2d		 je	 SHORT $LN2@GetFindCha@3

; 197  : 			{
; 198  : 				if( pChar->GetTeam() != m_pOwner->GetTeam() )

  00212	8d 45 b8	 lea	 eax, DWORD PTR _value$546743[ebp]
  00215	50		 push	 eax
  00216	8d 8e 90 00 00
	00		 lea	 ecx, DWORD PTR [esi+144]
  0021c	e8 00 00 00 00	 call	 ?DecryptValueToPool@?$CEncrypt@W4TeamType@@@@QAEXPAW4TeamType@@@Z ; CEncrypt<enum TeamType>::DecryptValueToPool
  00221	8b 4b 04	 mov	 ecx, DWORD PTR [ebx+4]
  00224	8d 45 cc	 lea	 eax, DWORD PTR _value$546756[ebp]
  00227	50		 push	 eax
  00228	81 c1 90 00 00
	00		 add	 ecx, 144		; 00000090H
  0022e	e8 00 00 00 00	 call	 ?DecryptValueToPool@?$CEncrypt@W4TeamType@@@@QAEXPAW4TeamType@@@Z ; CEncrypt<enum TeamType>::DecryptValueToPool
  00233	8b 45 b8	 mov	 eax, DWORD PTR _value$546743[ebp]
  00236	3b 45 cc	 cmp	 eax, DWORD PTR _value$546756[ebp]
  00239	0f 85 ac 00 00
	00		 jne	 $LN15@GetFindCha@3
$LN2@GetFindCha@3:

; 199  : 					continue;
; 200  : 			}
; 201  : 		}		
; 202  : 
; 203  : 		D3DXVECTOR3 vDiff = pChar->GetWorldPosition() - vOwnerPos;

  0023f	8b 06		 mov	 eax, DWORD PTR [esi]
  00241	8b ce		 mov	 ecx, esi
  00243	ff 50 70	 call	 DWORD PTR [eax+112]
  00246	f3 0f 10 40 08	 movss	 xmm0, DWORD PTR [eax+8]
  0024b	f3 0f 10 4d b4	 movss	 xmm1, DWORD PTR _vOwnerPos$[ebp+8]
  00250	f3 0f 10 55 ac	 movss	 xmm2, DWORD PTR _vOwnerPos$[ebp]
  00255	0f 5a c9	 cvtps2pd xmm1, xmm1
  00258	0f 5a c0	 cvtps2pd xmm0, xmm0
  0025b	f2 0f 5c c1	 subsd	 xmm0, xmm1
  0025f	f3 0f 10 08	 movss	 xmm1, DWORD PTR [eax]

; 204  : 		vDiff.y = 0.0f;
; 205  : 		D3DXVec3Normalize( &vDiff, &vDiff );

  00263	8d 45 f0	 lea	 eax, DWORD PTR _vDiff$541795[ebp]
  00266	66 0f 5a c0	 cvtpd2ps xmm0, xmm0
  0026a	0f 5a c9	 cvtps2pd xmm1, xmm1
  0026d	0f 5a d2	 cvtps2pd xmm2, xmm2
  00270	50		 push	 eax
  00271	f2 0f 5c ca	 subsd	 xmm1, xmm2
  00275	f3 0f 11 45 f8	 movss	 DWORD PTR _vDiff$541795[ebp+8], xmm0
  0027a	0f 57 c0	 xorps	 xmm0, xmm0
  0027d	66 0f 5a c9	 cvtpd2ps xmm1, xmm1
  00281	50		 push	 eax
  00282	f3 0f 11 4d f0	 movss	 DWORD PTR _vDiff$541795[ebp], xmm1
  00287	f3 0f 11 45 f4	 movss	 DWORD PTR _vDiff$541795[ebp+4], xmm0
  0028c	e8 00 00 00 00	 call	 _D3DXVec3Normalize@8

; 206  : 
; 207  : 		if( D3DXVec3Dot( &vCharDir, &vDiff ) >= fHalfCosine )

  00291	f3 0f 10 4d e4	 movss	 xmm1, DWORD PTR _vCharDir$[ebp]
  00296	f3 0f 10 45 f0	 movss	 xmm0, DWORD PTR _vDiff$541795[ebp]
  0029b	f3 0f 10 55 f4	 movss	 xmm2, DWORD PTR _vDiff$541795[ebp+4]
  002a0	0f 5a c9	 cvtps2pd xmm1, xmm1
  002a3	0f 5a c0	 cvtps2pd xmm0, xmm0
  002a6	f2 0f 59 c1	 mulsd	 xmm0, xmm1
  002aa	f3 0f 10 4d e8	 movss	 xmm1, DWORD PTR _vCharDir$[ebp+4]
  002af	0f 5a c9	 cvtps2pd xmm1, xmm1
  002b2	0f 5a d2	 cvtps2pd xmm2, xmm2
  002b5	f2 0f 59 ca	 mulsd	 xmm1, xmm2
  002b9	f3 0f 10 55 f8	 movss	 xmm2, DWORD PTR _vDiff$541795[ebp+8]
  002be	f2 0f 58 c1	 addsd	 xmm0, xmm1
  002c2	f3 0f 10 4d ec	 movss	 xmm1, DWORD PTR _vCharDir$[ebp+8]
  002c7	0f 5a c9	 cvtps2pd xmm1, xmm1
  002ca	0f 5a d2	 cvtps2pd xmm2, xmm2
  002cd	f2 0f 59 ca	 mulsd	 xmm1, xmm2
  002d1	f2 0f 58 c1	 addsd	 xmm0, xmm1
  002d5	f3 0f 10 4d d4	 movss	 xmm1, DWORD PTR _fHalfCosine$[ebp]
  002da	66 0f 5a c0	 cvtpd2ps xmm0, xmm0
  002de	f3 0f 5a c0	 cvtss2sd xmm0, xmm0
  002e2	0f 5a c9	 cvtps2pd xmm1, xmm1
  002e5	66 0f 2f c1	 comisd	 xmm0, xmm1
  002e9	73 22		 jae	 SHORT $LN107@GetFindCha@3
$LN15@GetFindCha@3:

; 161  : 
; 162  : 	CharDistanceList::iterator iter;
; 163  : 	for( iter=m_vDistanceSortList.begin() ; iter!=m_vDistanceSortList.end() ; ++iter )

  002eb	83 c7 08	 add	 edi, 8
$LN113@GetFindCha@3:
  002ee	3b 3d 04 00 00
	00		 cmp	 edi, DWORD PTR ?m_vDistanceSortList@FindPredicate@@1V?$vector@UCharDistanceSq@FindPredicate@@V?$allocator@UCharDistanceSq@FindPredicate@@@std@@@std@@A+4
  002f4	0f 85 24 fe ff
	ff		 jne	 $LL48@GetFindCha@3

; 209  : 	}
; 210  : 
; 211  : 	return NULL;

  002fa	33 c0		 xor	 eax, eax
$LN109@GetFindCha@3:
  002fc	5f		 pop	 edi
$LN18@GetFindCha@3:

; 212  : }

  002fd	8b 4d fc	 mov	 ecx, DWORD PTR __$ArrayPad$[ebp]
  00300	5e		 pop	 esi
  00301	33 cd		 xor	 ecx, ebp
  00303	5b		 pop	 ebx
  00304	e8 00 00 00 00	 call	 @__security_check_cookie@4
  00309	c9		 leave
  0030a	c2 04 00	 ret	 4
$LN107@GetFindCha@3:

; 208  : 			return pChar;

  0030d	8b c6		 mov	 eax, esi
  0030f	eb eb		 jmp	 SHORT $LN109@GetFindCha@3
?GetFindChar@FD_AimTarget_Staff@@UAEPAVioBaseChar@@ABV?$vector@PAVioBaseChar@@V?$allocator@PAVioBaseChar@@@std@@@std@@@Z ENDP ; FD_AimTarget_Staff::GetFindChar
_TEXT	ENDS
PUBLIC	__$ArrayPad$
; Function compile flags: /Ogsp
;	COMDAT ?GetFindChar@FD_AimTarget_Bow@@UAEPAVioBaseChar@@ABV?$vector@PAVioBaseChar@@V?$allocator@PAVioBaseChar@@@std@@@std@@@Z
_TEXT	SEGMENT
_vOwnerPos$ = -80					; size = 12
_value$546959 = -68					; size = 4
_qtRot$ = -64						; size = 16
_value$546972 = -48					; size = 4
tv713 = -44						; size = 4
_value$546946 = -44					; size = 4
tv741 = -40						; size = 4
tv721 = -40						; size = 4
tv717 = -40						; size = 4
_fHalfCosine$ = -40					; size = 4
tv710 = -36						; size = 4
tv704 = -36						; size = 4
_value$546933 = -36					; size = 4
$T546802 = -36						; size = 4
_eState$541836 = -29					; size = 1
_vCharDir$ = -28					; size = 12
_vDiff$541850 = -16					; size = 12
$T541822 = -16						; size = 12
__$ArrayPad$ = -4					; size = 4
_rkCandidateList$ = 8					; size = 4
?GetFindChar@FD_AimTarget_Bow@@UAEPAVioBaseChar@@ABV?$vector@PAVioBaseChar@@V?$allocator@PAVioBaseChar@@@std@@@std@@@Z PROC ; FD_AimTarget_Bow::GetFindChar, COMDAT
; _this$ = ecx

; 231  : {

  00000	55		 push	 ebp
  00001	8b ec		 mov	 ebp, esp
  00003	83 ec 50	 sub	 esp, 80			; 00000050H
  00006	a1 00 00 00 00	 mov	 eax, DWORD PTR ___security_cookie
  0000b	33 c5		 xor	 eax, ebp
  0000d	89 45 fc	 mov	 DWORD PTR __$ArrayPad$[ebp], eax
  00010	53		 push	 ebx
  00011	56		 push	 esi
  00012	8b 75 08	 mov	 esi, DWORD PTR _rkCandidateList$[ebp]
  00015	8b d9		 mov	 ebx, ecx

; 232  : 	if( IsExperienceOwner() ) return NULL;

  00017	e8 00 00 00 00	 call	 ?IsExperienceOwner@FindPredicate@@IAE_NXZ ; FindPredicate::IsExperienceOwner
  0001c	84 c0		 test	 al, al
  0001e	74 07		 je	 SHORT $LN18@GetFindCha@4
  00020	33 c0		 xor	 eax, eax
  00022	e9 03 03 00 00	 jmp	 $LN19@GetFindCha@4
$LN18@GetFindCha@4:

; 233  : 
; 234  : 	MakeMostCloseSortList( rkCandidateList, m_fMinRange*m_fMinRange, m_fAimRange*m_fAimRange );

  00027	f3 0f 10 43 0c	 movss	 xmm0, DWORD PTR [ebx+12]
  0002c	f3 0f 10 4b 10	 movss	 xmm1, DWORD PTR [ebx+16]
  00031	57		 push	 edi
  00032	0f 5a c0	 cvtps2pd xmm0, xmm0
  00035	51		 push	 ecx
  00036	51		 push	 ecx
  00037	f2 0f 59 c0	 mulsd	 xmm0, xmm0
  0003b	66 0f 5a c0	 cvtpd2ps xmm0, xmm0
  0003f	f3 0f 11 44 24
	04		 movss	 DWORD PTR [esp+4], xmm0
  00045	0f 5a c9	 cvtps2pd xmm1, xmm1
  00048	f2 0f 59 c9	 mulsd	 xmm1, xmm1
  0004c	0f 57 c0	 xorps	 xmm0, xmm0
  0004f	66 0f 5a c1	 cvtpd2ps xmm0, xmm1
  00053	f3 0f 11 04 24	 movss	 DWORD PTR [esp], xmm0
  00058	56		 push	 esi
  00059	8b cb		 mov	 ecx, ebx
  0005b	e8 00 00 00 00	 call	 ?MakeMostCloseSortList@FindPredicate@@IAEXABV?$vector@PAVioBaseChar@@V?$allocator@PAVioBaseChar@@@std@@@std@@MM@Z ; FindPredicate::MakeMostCloseSortList

; 235  : 
; 236  : 	D3DXQUATERNION qtRot = m_pOwner->GetTargetRot();

  00060	8b 73 04	 mov	 esi, DWORD PTR [ebx+4]
  00063	81 c6 a4 06 00
	00		 add	 esi, 1700		; 000006a4H
  00069	8d 7d c0	 lea	 edi, DWORD PTR _qtRot$[ebp]
  0006c	a5		 movsd
  0006d	a5		 movsd
  0006e	a5		 movsd
  0006f	a5		 movsd

; 237  : 	D3DXVECTOR3 vCharDir  = qtRot * D3DXVECTOR3( 0.0f, 0.0f, -FLOAT1 );

  00070	b8 01 00 00 00	 mov	 eax, 1
  00075	0f 57 c0	 xorps	 xmm0, xmm0
  00078	89 45 d8	 mov	 DWORD PTR tv741[ebp], eax
  0007b	db 45 d8	 fild	 DWORD PTR tv741[ebp]
  0007e	f3 0f 11 45 f0	 movss	 DWORD PTR $T541822[ebp], xmm0
  00083	f3 0f 11 45 f4	 movss	 DWORD PTR $T541822[ebp+4], xmm0
  00088	85 c0		 test	 eax, eax
  0008a	79 06		 jns	 SHORT $LN105@GetFindCha@4
  0008c	d8 05 00 00 00
	00		 fadd	 DWORD PTR __real@4f800000
$LN105@GetFindCha@4:
  00092	8d 45 f0	 lea	 eax, DWORD PTR $T541822[ebp]
  00095	d9 e0		 fchs
  00097	50		 push	 eax
  00098	d9 5d f8	 fstp	 DWORD PTR $T541822[ebp+8]
  0009b	8d 45 c0	 lea	 eax, DWORD PTR _qtRot$[ebp]
  0009e	50		 push	 eax
  0009f	8d 45 e4	 lea	 eax, DWORD PTR _vCharDir$[ebp]
  000a2	50		 push	 eax
  000a3	ff 15 00 00 00
	00		 call	 DWORD PTR __imp_??D@YA?AUD3DXVECTOR3@@ABUD3DXQUATERNION@@ABU0@@Z

; 238  : 	D3DXVECTOR3 vOwnerPos = m_pOwner->GetWorldPosition();

  000a9	8b 4b 04	 mov	 ecx, DWORD PTR [ebx+4]
  000ac	8b 01		 mov	 eax, DWORD PTR [ecx]
  000ae	83 c4 0c	 add	 esp, 12			; 0000000cH
  000b1	ff 50 70	 call	 DWORD PTR [eax+112]

; 239  : 	float fHalfCosine = cosf( DEGtoRAD( m_fAimAngle ) * FLOAT05 );

  000b4	d9 43 08	 fld	 DWORD PTR [ebx+8]
  000b7	dc 0d 00 00 00
	00		 fmul	 QWORD PTR __real@3f91df46a2526c7a
  000bd	8b f0		 mov	 esi, eax
  000bf	8d 7d b0	 lea	 edi, DWORD PTR _vOwnerPos$[ebp]
  000c2	a5		 movsd
  000c3	d9 5d dc	 fstp	 DWORD PTR $T546802[ebp]
  000c6	a5		 movsd
  000c7	a5		 movsd
  000c8	b8 05 00 00 00	 mov	 eax, 5
  000cd	8b c8		 mov	 ecx, eax
  000cf	b8 0a 00 00 00	 mov	 eax, 10			; 0000000aH
  000d4	89 4d d8	 mov	 DWORD PTR tv721[ebp], ecx
  000d7	db 45 d8	 fild	 DWORD PTR tv721[ebp]
  000da	85 c9		 test	 ecx, ecx
  000dc	79 06		 jns	 SHORT $LN106@GetFindCha@4
  000de	d8 05 00 00 00
	00		 fadd	 DWORD PTR __real@4f800000
$LN106@GetFindCha@4:
  000e4	89 45 d8	 mov	 DWORD PTR tv717[ebp], eax
  000e7	db 45 d8	 fild	 DWORD PTR tv717[ebp]
  000ea	85 c0		 test	 eax, eax
  000ec	79 06		 jns	 SHORT $LN107@GetFindCha@4
  000ee	d8 05 00 00 00
	00		 fadd	 DWORD PTR __real@4f800000
$LN107@GetFindCha@4:
  000f4	de f9		 fdivp	 ST(1), ST(0)
  000f6	d9 5d d4	 fstp	 DWORD PTR tv713[ebp]
  000f9	d9 45 d4	 fld	 DWORD PTR tv713[ebp]
  000fc	d8 4d dc	 fmul	 DWORD PTR $T546802[ebp]
  000ff	d9 5d dc	 fstp	 DWORD PTR tv710[ebp]
  00102	d9 45 dc	 fld	 DWORD PTR tv710[ebp]
  00105	e8 00 00 00 00	 call	 __CIcos
  0010a	d9 5d dc	 fstp	 DWORD PTR tv704[ebp]
  0010d	d9 45 dc	 fld	 DWORD PTR tv704[ebp]

; 240  : 
; 241  : 	CharDistanceList::iterator iter;
; 242  : 	for( iter=m_vDistanceSortList.begin() ; iter!=m_vDistanceSortList.end() ; ++iter )

  00110	8b 3d 00 00 00
	00		 mov	 edi, DWORD PTR ?m_vDistanceSortList@FindPredicate@@1V?$vector@UCharDistanceSq@FindPredicate@@V?$allocator@UCharDistanceSq@FindPredicate@@@std@@@std@@A
  00116	d9 5d d8	 fstp	 DWORD PTR _fHalfCosine$[ebp]
  00119	e9 fd 01 00 00	 jmp	 $LN108@GetFindCha@4
$LL49@GetFindCha@4:

; 243  : 	{
; 244  : 		ioBaseChar *pChar = iter->pChar;

  0011e	8b 37		 mov	 esi, DWORD PTR [edi]

; 245  : 
; 246  : 		CharState eState = pChar->GetState();

  00120	8a 86 10 03 00
	00		 mov	 al, BYTE PTR [esi+784]

; 247  : 		if( pChar->IsSystemState() )

  00126	8b ce		 mov	 ecx, esi
  00128	88 45 e3	 mov	 BYTE PTR _eState$541836[ebp], al
  0012b	e8 00 00 00 00	 call	 ?IsSystemState@ioBaseChar@@QAE_NXZ ; ioBaseChar::IsSystemState
  00130	84 c0		 test	 al, al
  00132	0f 85 e0 01 00
	00		 jne	 $LN16@GetFindCha@4

; 248  : 			continue;
; 249  : 		
; 250  : 		if( !pChar->IsEnableTarget( false ) ) 

  00138	6a 01		 push	 1
  0013a	6a 00		 push	 0
  0013c	8b ce		 mov	 ecx, esi
  0013e	e8 00 00 00 00	 call	 ?IsEnableTarget@ioBaseChar@@QAE_N_N0@Z ; ioBaseChar::IsEnableTarget
  00143	84 c0		 test	 al, al
  00145	0f 84 cd 01 00
	00		 je	 $LN16@GetFindCha@4

; 251  : 			continue;
; 252  : 
; 253  : 
; 254  : 		if( eState == CS_FROZEN && pChar->GetBlowFrozenState() ) 

  0014b	80 7d e3 17	 cmp	 BYTE PTR _eState$541836[ebp], 23 ; 00000017H
  0014f	75 0d		 jne	 SHORT $LN12@GetFindCha@4
  00151	80 be c5 15 00
	00 00		 cmp	 BYTE PTR [esi+5573], 0
  00158	0f 85 ba 01 00
	00		 jne	 $LN16@GetFindCha@4
$LN12@GetFindCha@4:

; 255  : 			continue;
; 256  : 
; 257  : 		if( eState == CS_BLOW_WOUNDED && !pChar->IsFloatingState() && !m_bDownAim )

  0015e	80 7d e3 0c	 cmp	 BYTE PTR _eState$541836[ebp], 12 ; 0000000cH
  00162	75 18		 jne	 SHORT $LN11@GetFindCha@4
  00164	8b ce		 mov	 ecx, esi
  00166	e8 00 00 00 00	 call	 ?IsFloatingState@ioBaseChar@@QBE_NXZ ; ioBaseChar::IsFloatingState
  0016b	84 c0		 test	 al, al
  0016d	0f 85 83 00 00
	00		 jne	 $LN6@GetFindCha@4
  00173	38 43 15	 cmp	 BYTE PTR [ebx+21], al
  00176	0f 84 9c 01 00
	00		 je	 $LN16@GetFindCha@4
$LN11@GetFindCha@4:

; 258  : 			continue;
; 259  : 
; 260  : 		if( eState == CS_BOUND_BLOW_WOUNDED && !pChar->IsFloatingState() && !m_bDownAim )

  0017c	80 7d e3 31	 cmp	 BYTE PTR _eState$541836[ebp], 49 ; 00000031H
  00180	75 14		 jne	 SHORT $LN10@GetFindCha@4
  00182	8b ce		 mov	 ecx, esi
  00184	e8 00 00 00 00	 call	 ?IsFloatingState@ioBaseChar@@QBE_NXZ ; ioBaseChar::IsFloatingState
  00189	84 c0		 test	 al, al
  0018b	75 69		 jne	 SHORT $LN6@GetFindCha@4
  0018d	38 43 15	 cmp	 BYTE PTR [ebx+21], al
  00190	0f 84 82 01 00
	00		 je	 $LN16@GetFindCha@4
$LN10@GetFindCha@4:

; 261  : 			continue;
; 262  : 
; 263  : 		if( eState == CS_ETC_STATE && pChar->IsApplyDownState(false) && !m_bDownAim )

  00196	80 7d e3 0f	 cmp	 BYTE PTR _eState$541836[ebp], 15 ; 0000000fH
  0019a	75 17		 jne	 SHORT $LN9@GetFindCha@4
  0019c	6a 00		 push	 0
  0019e	8b ce		 mov	 ecx, esi
  001a0	e8 00 00 00 00	 call	 ?IsApplyDownState@ioBaseChar@@QAE_N_N@Z ; ioBaseChar::IsApplyDownState
  001a5	84 c0		 test	 al, al
  001a7	74 4d		 je	 SHORT $LN6@GetFindCha@4
  001a9	80 7b 15 00	 cmp	 BYTE PTR [ebx+21], 0
  001ad	0f 84 65 01 00
	00		 je	 $LN16@GetFindCha@4
$LN9@GetFindCha@4:

; 264  : 			continue;
; 265  : 
; 266  : 		if( eState == CS_USING_SKILL && pChar->IsApplyDownState(false) && !m_bDownAim )

  001b3	80 7d e3 07	 cmp	 BYTE PTR _eState$541836[ebp], 7
  001b7	75 17		 jne	 SHORT $LN8@GetFindCha@4
  001b9	6a 00		 push	 0
  001bb	8b ce		 mov	 ecx, esi
  001bd	e8 00 00 00 00	 call	 ?IsApplyDownState@ioBaseChar@@QAE_N_N@Z ; ioBaseChar::IsApplyDownState
  001c2	84 c0		 test	 al, al
  001c4	74 30		 je	 SHORT $LN6@GetFindCha@4
  001c6	80 7b 15 00	 cmp	 BYTE PTR [ebx+21], 0
  001ca	0f 84 48 01 00
	00		 je	 $LN16@GetFindCha@4
$LN8@GetFindCha@4:

; 267  : 			continue;
; 268  : 
; 269  : 		if( eState == CS_STOP_MOTION && pChar->GetBlowStopMotionState() ) 

  001d0	80 7d e3 26	 cmp	 BYTE PTR _eState$541836[ebp], 38 ; 00000026H
  001d4	75 0d		 jne	 SHORT $LN7@GetFindCha@4
  001d6	80 be c7 15 00
	00 00		 cmp	 BYTE PTR [esi+5575], 0
  001dd	0f 85 35 01 00
	00		 jne	 $LN16@GetFindCha@4
$LN7@GetFindCha@4:

; 270  : 			continue;
; 271  : 
; 272  : 		if( eState == CS_ICE_STATE && pChar->GetBlowStopMotionState() ) 

  001e3	80 7d e3 3b	 cmp	 BYTE PTR _eState$541836[ebp], 59 ; 0000003bH
  001e7	75 0d		 jne	 SHORT $LN6@GetFindCha@4
  001e9	80 be c7 15 00
	00 00		 cmp	 BYTE PTR [esi+5575], 0
  001f0	0f 85 22 01 00
	00		 jne	 $LN16@GetFindCha@4
$LN6@GetFindCha@4:

; 273  : 			continue;
; 274  : 
; 275  : 		if( pChar->HasChangeTeamBuff(true) )

  001f6	6a 01		 push	 1
  001f8	8b ce		 mov	 ecx, esi
  001fa	e8 00 00 00 00	 call	 ?HasChangeTeamBuff@ioBaseChar@@QBE_N_N@Z ; ioBaseChar::HasChangeTeamBuff
  001ff	84 c0		 test	 al, al
  00201	0f 85 11 01 00
	00		 jne	 $LN16@GetFindCha@4

; 276  : 			continue;
; 277  : 
; 278  : 		if( m_bOwnerTeam && pChar->GetTeam() == m_pOwner->GetTeam() )

  00207	38 43 14	 cmp	 BYTE PTR [ebx+20], al
  0020a	74 33		 je	 SHORT $LN110@GetFindCha@4
  0020c	8d 45 dc	 lea	 eax, DWORD PTR _value$546933[ebp]
  0020f	50		 push	 eax
  00210	8d 8e 90 00 00
	00		 lea	 ecx, DWORD PTR [esi+144]
  00216	e8 00 00 00 00	 call	 ?DecryptValueToPool@?$CEncrypt@W4TeamType@@@@QAEXPAW4TeamType@@@Z ; CEncrypt<enum TeamType>::DecryptValueToPool
  0021b	8b 4b 04	 mov	 ecx, DWORD PTR [ebx+4]
  0021e	8d 45 d4	 lea	 eax, DWORD PTR _value$546946[ebp]
  00221	50		 push	 eax
  00222	81 c1 90 00 00
	00		 add	 ecx, 144		; 00000090H
  00228	e8 00 00 00 00	 call	 ?DecryptValueToPool@?$CEncrypt@W4TeamType@@@@QAEXPAW4TeamType@@@Z ; CEncrypt<enum TeamType>::DecryptValueToPool
  0022d	8b 45 dc	 mov	 eax, DWORD PTR _value$546933[ebp]
  00230	3b 45 d4	 cmp	 eax, DWORD PTR _value$546946[ebp]
  00233	0f 84 df 00 00
	00		 je	 $LN16@GetFindCha@4

; 279  : 			continue;
; 280  : 		else if(!m_bOwnerTeam && pChar->GetTeam() != m_pOwner->GetTeam() )

  00239	80 7b 14 00	 cmp	 BYTE PTR [ebx+20], 0
  0023d	75 2d		 jne	 SHORT $LN2@GetFindCha@4
$LN110@GetFindCha@4:
  0023f	8d 45 bc	 lea	 eax, DWORD PTR _value$546959[ebp]
  00242	50		 push	 eax
  00243	8d 8e 90 00 00
	00		 lea	 ecx, DWORD PTR [esi+144]
  00249	e8 00 00 00 00	 call	 ?DecryptValueToPool@?$CEncrypt@W4TeamType@@@@QAEXPAW4TeamType@@@Z ; CEncrypt<enum TeamType>::DecryptValueToPool
  0024e	8b 4b 04	 mov	 ecx, DWORD PTR [ebx+4]
  00251	8d 45 d0	 lea	 eax, DWORD PTR _value$546972[ebp]
  00254	50		 push	 eax
  00255	81 c1 90 00 00
	00		 add	 ecx, 144		; 00000090H
  0025b	e8 00 00 00 00	 call	 ?DecryptValueToPool@?$CEncrypt@W4TeamType@@@@QAEXPAW4TeamType@@@Z ; CEncrypt<enum TeamType>::DecryptValueToPool
  00260	8b 45 bc	 mov	 eax, DWORD PTR _value$546959[ebp]
  00263	3b 45 d0	 cmp	 eax, DWORD PTR _value$546972[ebp]
  00266	0f 85 ac 00 00
	00		 jne	 $LN16@GetFindCha@4
$LN2@GetFindCha@4:

; 281  : 			continue;
; 282  : 
; 283  : 		D3DXVECTOR3 vDiff = pChar->GetWorldPosition() - vOwnerPos;

  0026c	8b 06		 mov	 eax, DWORD PTR [esi]
  0026e	8b ce		 mov	 ecx, esi
  00270	ff 50 70	 call	 DWORD PTR [eax+112]
  00273	f3 0f 10 40 08	 movss	 xmm0, DWORD PTR [eax+8]
  00278	f3 0f 10 4d b8	 movss	 xmm1, DWORD PTR _vOwnerPos$[ebp+8]
  0027d	f3 0f 10 55 b0	 movss	 xmm2, DWORD PTR _vOwnerPos$[ebp]
  00282	0f 5a c9	 cvtps2pd xmm1, xmm1
  00285	0f 5a c0	 cvtps2pd xmm0, xmm0
  00288	f2 0f 5c c1	 subsd	 xmm0, xmm1
  0028c	f3 0f 10 08	 movss	 xmm1, DWORD PTR [eax]

; 284  : 		vDiff.y = 0.0f;
; 285  : 		D3DXVec3Normalize( &vDiff, &vDiff );

  00290	8d 45 f0	 lea	 eax, DWORD PTR _vDiff$541850[ebp]
  00293	66 0f 5a c0	 cvtpd2ps xmm0, xmm0
  00297	0f 5a c9	 cvtps2pd xmm1, xmm1
  0029a	0f 5a d2	 cvtps2pd xmm2, xmm2
  0029d	50		 push	 eax
  0029e	f2 0f 5c ca	 subsd	 xmm1, xmm2
  002a2	f3 0f 11 45 f8	 movss	 DWORD PTR _vDiff$541850[ebp+8], xmm0
  002a7	0f 57 c0	 xorps	 xmm0, xmm0
  002aa	66 0f 5a c9	 cvtpd2ps xmm1, xmm1
  002ae	50		 push	 eax
  002af	f3 0f 11 4d f0	 movss	 DWORD PTR _vDiff$541850[ebp], xmm1
  002b4	f3 0f 11 45 f4	 movss	 DWORD PTR _vDiff$541850[ebp+4], xmm0
  002b9	e8 00 00 00 00	 call	 _D3DXVec3Normalize@8

; 286  : 
; 287  : 		if( D3DXVec3Dot( &vCharDir, &vDiff ) >= fHalfCosine )

  002be	f3 0f 10 4d e4	 movss	 xmm1, DWORD PTR _vCharDir$[ebp]
  002c3	f3 0f 10 45 f0	 movss	 xmm0, DWORD PTR _vDiff$541850[ebp]
  002c8	f3 0f 10 55 f4	 movss	 xmm2, DWORD PTR _vDiff$541850[ebp+4]
  002cd	0f 5a c9	 cvtps2pd xmm1, xmm1
  002d0	0f 5a c0	 cvtps2pd xmm0, xmm0
  002d3	f2 0f 59 c1	 mulsd	 xmm0, xmm1
  002d7	f3 0f 10 4d e8	 movss	 xmm1, DWORD PTR _vCharDir$[ebp+4]
  002dc	0f 5a c9	 cvtps2pd xmm1, xmm1
  002df	0f 5a d2	 cvtps2pd xmm2, xmm2
  002e2	f2 0f 59 ca	 mulsd	 xmm1, xmm2
  002e6	f3 0f 10 55 f8	 movss	 xmm2, DWORD PTR _vDiff$541850[ebp+8]
  002eb	f2 0f 58 c1	 addsd	 xmm0, xmm1
  002ef	f3 0f 10 4d ec	 movss	 xmm1, DWORD PTR _vCharDir$[ebp+8]
  002f4	0f 5a c9	 cvtps2pd xmm1, xmm1
  002f7	0f 5a d2	 cvtps2pd xmm2, xmm2
  002fa	f2 0f 59 ca	 mulsd	 xmm1, xmm2
  002fe	f2 0f 58 c1	 addsd	 xmm0, xmm1
  00302	f3 0f 10 4d d8	 movss	 xmm1, DWORD PTR _fHalfCosine$[ebp]
  00307	66 0f 5a c0	 cvtpd2ps xmm0, xmm0
  0030b	f3 0f 5a c0	 cvtss2sd xmm0, xmm0
  0030f	0f 5a c9	 cvtps2pd xmm1, xmm1
  00312	66 0f 2f c1	 comisd	 xmm0, xmm1
  00316	73 22		 jae	 SHORT $LN102@GetFindCha@4
$LN16@GetFindCha@4:

; 240  : 
; 241  : 	CharDistanceList::iterator iter;
; 242  : 	for( iter=m_vDistanceSortList.begin() ; iter!=m_vDistanceSortList.end() ; ++iter )

  00318	83 c7 08	 add	 edi, 8
$LN108@GetFindCha@4:
  0031b	3b 3d 04 00 00
	00		 cmp	 edi, DWORD PTR ?m_vDistanceSortList@FindPredicate@@1V?$vector@UCharDistanceSq@FindPredicate@@V?$allocator@UCharDistanceSq@FindPredicate@@@std@@@std@@A+4
  00321	0f 85 f7 fd ff
	ff		 jne	 $LL49@GetFindCha@4

; 289  : 	}
; 290  : 
; 291  : 	return NULL;

  00327	33 c0		 xor	 eax, eax
$LN104@GetFindCha@4:
  00329	5f		 pop	 edi
$LN19@GetFindCha@4:

; 292  : }

  0032a	8b 4d fc	 mov	 ecx, DWORD PTR __$ArrayPad$[ebp]
  0032d	5e		 pop	 esi
  0032e	33 cd		 xor	 ecx, ebp
  00330	5b		 pop	 ebx
  00331	e8 00 00 00 00	 call	 @__security_check_cookie@4
  00336	c9		 leave
  00337	c2 04 00	 ret	 4
$LN102@GetFindCha@4:

; 288  : 			return pChar;

  0033a	8b c6		 mov	 eax, esi
  0033c	eb eb		 jmp	 SHORT $LN104@GetFindCha@4
?GetFindChar@FD_AimTarget_Bow@@UAEPAVioBaseChar@@ABV?$vector@PAVioBaseChar@@V?$allocator@PAVioBaseChar@@@std@@@std@@@Z ENDP ; FD_AimTarget_Bow::GetFindChar
_TEXT	ENDS
PUBLIC	??RSightTargetSort@FD_SightTarget@@QBE_NABUCharDistanceSq@FindPredicate@@0@Z ; FD_SightTarget::SightTargetSort::operator()
; Function compile flags: /Ogsp
;	COMDAT ??RSightTargetSort@FD_SightTarget@@QBE_NABUCharDistanceSq@FindPredicate@@0@Z
_TEXT	SEGMENT
_value$547014 = 8					; size = 4
_lhs$ = 8						; size = 4
_value$547027 = 12					; size = 4
_rhs$ = 12						; size = 4
??RSightTargetSort@FD_SightTarget@@QBE_NABUCharDistanceSq@FindPredicate@@0@Z PROC ; FD_SightTarget::SightTargetSort::operator(), COMDAT
; _this$ = ecx

; 302  : {

  00000	55		 push	 ebp
  00001	8b ec		 mov	 ebp, esp
  00003	53		 push	 ebx
  00004	56		 push	 esi
  00005	57		 push	 edi

; 303  : 	TeamType eLhsTeam = lhs.pChar->GetTeam();

  00006	8b 7d 08	 mov	 edi, DWORD PTR _lhs$[ebp]
  00009	8b 0f		 mov	 ecx, DWORD PTR [edi]
  0000b	8d 45 08	 lea	 eax, DWORD PTR _value$547014[ebp]
  0000e	be 90 00 00 00	 mov	 esi, 144		; 00000090H
  00013	50		 push	 eax
  00014	03 ce		 add	 ecx, esi
  00016	e8 00 00 00 00	 call	 ?DecryptValueToPool@?$CEncrypt@W4TeamType@@@@QAEXPAW4TeamType@@@Z ; CEncrypt<enum TeamType>::DecryptValueToPool

; 304  : 	TeamType eRhsTeam = rhs.pChar->GetTeam();

  0001b	8b 5d 0c	 mov	 ebx, DWORD PTR _rhs$[ebp]
  0001e	8b 0b		 mov	 ecx, DWORD PTR [ebx]
  00020	8d 45 0c	 lea	 eax, DWORD PTR _value$547027[ebp]
  00023	50		 push	 eax
  00024	03 ce		 add	 ecx, esi
  00026	e8 00 00 00 00	 call	 ?DecryptValueToPool@?$CEncrypt@W4TeamType@@@@QAEXPAW4TeamType@@@Z ; CEncrypt<enum TeamType>::DecryptValueToPool

; 305  : 
; 306  : 	if( eLhsTeam == eRhsTeam )

  0002b	8b 45 08	 mov	 eax, DWORD PTR _value$547014[ebp]
  0002e	3b 45 0c	 cmp	 eax, DWORD PTR _value$547027[ebp]
  00031	75 1a		 jne	 SHORT $LN3@operator

; 307  : 	{
; 308  : 		if( lhs.fDistanceSq < rhs.fDistanceSq )

  00033	f3 0f 10 47 04	 movss	 xmm0, DWORD PTR [edi+4]
  00038	f3 0f 10 4b 04	 movss	 xmm1, DWORD PTR [ebx+4]
  0003d	0f 5a c0	 cvtps2pd xmm0, xmm0
  00040	0f 5a c9	 cvtps2pd xmm1, xmm1
  00043	66 0f 2f c8	 comisd	 xmm1, xmm0
  00047	76 04		 jbe	 SHORT $LN3@operator

; 309  : 			return true;

  00049	b0 01		 mov	 al, 1
  0004b	eb 02		 jmp	 SHORT $LN4@operator
$LN3@operator:

; 310  : 
; 311  : 		return false;
; 312  : 	}
; 313  : 
; 314  : // 	if( eLhsTeam != m_OwnerTeam)
; 315  : // 		return true;
; 316  : 
; 317  : 	if( (eLhsTeam < m_OwnerTeam) && (eLhsTeam > m_OwnerTeam) )
; 318  : 		return true;
; 319  : 
; 320  : 	return false;

  0004d	32 c0		 xor	 al, al
$LN4@operator:
  0004f	5f		 pop	 edi
  00050	5e		 pop	 esi
  00051	5b		 pop	 ebx

; 321  : }

  00052	5d		 pop	 ebp
  00053	c2 08 00	 ret	 8
??RSightTargetSort@FD_SightTarget@@QBE_NABUCharDistanceSq@FindPredicate@@0@Z ENDP ; FD_SightTarget::SightTargetSort::operator()
_TEXT	ENDS
PUBLIC	__$ArrayPad$
EXTRN	?m_vAngleSortList@FindPredicate@@1V?$vector@UCharAngle@FindPredicate@@V?$allocator@UCharAngle@FindPredicate@@@std@@@std@@A:BYTE ; FindPredicate::m_vAngleSortList
EXTRN	?MakeSmallestAngleSortList@FindPredicate@@IAEXABV?$vector@PAVioBaseChar@@V?$allocator@PAVioBaseChar@@@std@@@std@@MM@Z:PROC ; FindPredicate::MakeSmallestAngleSortList
; Function compile flags: /Ogsp
;	COMDAT ?GetFindChar@FD_AutoTarget@@UAEPAVioBaseChar@@ABV?$vector@PAVioBaseChar@@V?$allocator@PAVioBaseChar@@@std@@@std@@@Z
_TEXT	SEGMENT
_vCharDir$ = -92					; size = 12
$T542124 = -80						; size = 12
_vOwnerPos$ = -68					; size = 12
_value$547155 = -56					; size = 4
_value$547168 = -52					; size = 4
tv696 = -48						; size = 4
tv649 = -48						; size = 4
tv772 = -44						; size = 4
tv768 = -44						; size = 4
_pChar$542114 = -44					; size = 4
$T547038 = -40						; size = 4
_fCurAngleRate$ = -40					; size = 4
tv686 = -36						; size = 4
tv683 = -36						; size = 4
tv679 = -36						; size = 4
tv674 = -36						; size = 4
tv670 = -32						; size = 4
tv667 = -32						; size = 4
tv660 = -32						; size = 4
_fCurAngle$ = -32					; size = 4
_value$547181 = -25					; size = 1
tv764 = -24						; size = 4
tv761 = -24						; size = 4
tv755 = -24						; size = 4
_iter$ = -24						; size = 4
_eState$542115 = -17					; size = 1
_vDiff$ = -16						; size = 12
__$ArrayPad$ = -4					; size = 4
_rkCandidateList$ = 8					; size = 4
?GetFindChar@FD_AutoTarget@@UAEPAVioBaseChar@@ABV?$vector@PAVioBaseChar@@V?$allocator@PAVioBaseChar@@@std@@@std@@@Z PROC ; FD_AutoTarget::GetFindChar, COMDAT
; _this$ = ecx

; 409  : {

  00000	55		 push	 ebp
  00001	8b ec		 mov	 ebp, esp
  00003	83 ec 5c	 sub	 esp, 92			; 0000005cH
  00006	a1 00 00 00 00	 mov	 eax, DWORD PTR ___security_cookie
  0000b	33 c5		 xor	 eax, ebp
  0000d	89 45 fc	 mov	 DWORD PTR __$ArrayPad$[ebp], eax
  00010	53		 push	 ebx
  00011	56		 push	 esi
  00012	8b 75 08	 mov	 esi, DWORD PTR _rkCandidateList$[ebp]
  00015	8b d9		 mov	 ebx, ecx

; 410  : 	if( IsExperienceOwner() ) return NULL;

  00017	e8 00 00 00 00	 call	 ?IsExperienceOwner@FindPredicate@@IAE_NXZ ; FindPredicate::IsExperienceOwner
  0001c	84 c0		 test	 al, al
  0001e	74 07		 je	 SHORT $LN13@GetFindCha@5
  00020	33 c0		 xor	 eax, eax
  00022	e9 d1 02 00 00	 jmp	 $LN14@GetFindCha@5
$LN13@GetFindCha@5:

; 411  : 
; 412  : 	float fCurAngle, fMaxHalfCosine, fHalfCosine, fCurAngleRate;
; 413  : 
; 414  : 	fMaxHalfCosine = cosf( DEGtoRAD( m_fMaxAngle ) * FLOAT05  );

  00027	d9 43 0c	 fld	 DWORD PTR [ebx+12]
  0002a	57		 push	 edi
  0002b	dc 0d 00 00 00
	00		 fmul	 QWORD PTR __real@3f91df46a2526c7a
  00031	d9 5d d8	 fstp	 DWORD PTR $T547038[ebp]
  00034	b8 05 00 00 00	 mov	 eax, 5
  00039	8b c8		 mov	 ecx, eax
  0003b	b8 0a 00 00 00	 mov	 eax, 10			; 0000000aH

; 415  : 	MakeSmallestAngleSortList( rkCandidateList, m_fRangeSq, fMaxHalfCosine );

  00040	89 4d d4	 mov	 DWORD PTR tv772[ebp], ecx
  00043	db 45 d4	 fild	 DWORD PTR tv772[ebp]
  00046	85 c9		 test	 ecx, ecx
  00048	79 06		 jns	 SHORT $LN96@GetFindCha@5
  0004a	d8 05 00 00 00
	00		 fadd	 DWORD PTR __real@4f800000
$LN96@GetFindCha@5:
  00050	89 45 d4	 mov	 DWORD PTR tv768[ebp], eax
  00053	db 45 d4	 fild	 DWORD PTR tv768[ebp]
  00056	85 c0		 test	 eax, eax
  00058	79 06		 jns	 SHORT $LN97@GetFindCha@5
  0005a	d8 05 00 00 00
	00		 fadd	 DWORD PTR __real@4f800000
$LN97@GetFindCha@5:

; 411  : 
; 412  : 	float fCurAngle, fMaxHalfCosine, fHalfCosine, fCurAngleRate;
; 413  : 
; 414  : 	fMaxHalfCosine = cosf( DEGtoRAD( m_fMaxAngle ) * FLOAT05  );

  00060	de f9		 fdivp	 ST(1), ST(0)

; 415  : 	MakeSmallestAngleSortList( rkCandidateList, m_fRangeSq, fMaxHalfCosine );

  00062	d9 5d e8	 fstp	 DWORD PTR tv764[ebp]
  00065	d9 45 e8	 fld	 DWORD PTR tv764[ebp]
  00068	d8 4d d8	 fmul	 DWORD PTR $T547038[ebp]
  0006b	d9 5d e8	 fstp	 DWORD PTR tv761[ebp]
  0006e	d9 45 e8	 fld	 DWORD PTR tv761[ebp]
  00071	e8 00 00 00 00	 call	 __CIcos
  00076	d9 5d e8	 fstp	 DWORD PTR tv755[ebp]
  00079	d9 45 e8	 fld	 DWORD PTR tv755[ebp]
  0007c	f3 0f 10 43 10	 movss	 xmm0, DWORD PTR [ebx+16]
  00081	51		 push	 ecx
  00082	51		 push	 ecx
  00083	d9 5c 24 04	 fstp	 DWORD PTR [esp+4]
  00087	f3 0f 11 04 24	 movss	 DWORD PTR [esp], xmm0
  0008c	56		 push	 esi
  0008d	8b cb		 mov	 ecx, ebx
  0008f	e8 00 00 00 00	 call	 ?MakeSmallestAngleSortList@FindPredicate@@IAEXABV?$vector@PAVioBaseChar@@V?$allocator@PAVioBaseChar@@@std@@@std@@MM@Z ; FindPredicate::MakeSmallestAngleSortList

; 416  : 
; 417  : 	D3DXVECTOR3 vCharDir  = m_pOwner->GetMoveDir();

  00094	8b 73 04	 mov	 esi, DWORD PTR [ebx+4]

; 418  : 	//D3DXVECTOR3 vCharDir  = m_pOwner->GetTargetRot() * D3DXVECTOR3( 0.0f, 0.0f, -FLOAT1 );
; 419  : 	D3DXVECTOR3 vOwnerPos = m_pOwner->GetWorldPosition();

  00097	8b 4b 04	 mov	 ecx, DWORD PTR [ebx+4]
  0009a	8b 01		 mov	 eax, DWORD PTR [ecx]
  0009c	81 c6 b4 06 00
	00		 add	 esi, 1716		; 000006b4H
  000a2	8d 7d a4	 lea	 edi, DWORD PTR _vCharDir$[ebp]
  000a5	a5		 movsd
  000a6	a5		 movsd
  000a7	a5		 movsd
  000a8	ff 50 70	 call	 DWORD PTR [eax+112]
  000ab	8b f0		 mov	 esi, eax
  000ad	8d 7d bc	 lea	 edi, DWORD PTR _vOwnerPos$[ebp]
  000b0	a5		 movsd
  000b1	a5		 movsd
  000b2	a5		 movsd

; 420  : 	D3DXVECTOR3 vDiff;
; 421  : 
; 422  : 	CharAngleSortList::iterator iter=m_vAngleSortList.begin();

  000b3	8b 3d 00 00 00
	00		 mov	 edi, DWORD PTR ?m_vAngleSortList@FindPredicate@@1V?$vector@UCharAngle@FindPredicate@@V?$allocator@UCharAngle@FindPredicate@@@std@@@std@@A
  000b9	e9 28 02 00 00	 jmp	 $LN101@GetFindCha@5

; 423  : 	for( ; iter!=m_vAngleSortList.end() ; ++iter )

$LL38@GetFindCha@5:

; 424  : 	{
; 425  : 		ioBaseChar *pChar = iter->pChar;

  000be	8b 37		 mov	 esi, DWORD PTR [edi]

; 426  : 		CharState eState = pChar->GetState();

  000c0	8a 86 10 03 00
	00		 mov	 al, BYTE PTR [esi+784]

; 427  : 		if( pChar->IsSystemState() )

  000c6	8b ce		 mov	 ecx, esi
  000c8	89 75 d4	 mov	 DWORD PTR _pChar$542114[ebp], esi
  000cb	88 45 ef	 mov	 BYTE PTR _eState$542115[ebp], al
  000ce	e8 00 00 00 00	 call	 ?IsSystemState@ioBaseChar@@QAE_NXZ ; ioBaseChar::IsSystemState
  000d3	84 c0		 test	 al, al
  000d5	0f 85 08 02 00
	00		 jne	 $LN11@GetFindCha@5

; 428  : 			continue;
; 429  : 		
; 430  : 		if( !pChar->IsEnableTarget( false ) ) 

  000db	6a 01		 push	 1
  000dd	6a 00		 push	 0
  000df	8b ce		 mov	 ecx, esi
  000e1	e8 00 00 00 00	 call	 ?IsEnableTarget@ioBaseChar@@QAE_N_N0@Z ; ioBaseChar::IsEnableTarget
  000e6	84 c0		 test	 al, al
  000e8	0f 84 f5 01 00
	00		 je	 $LN11@GetFindCha@5

; 431  : 			continue;
; 432  : 
; 433  : 		if( eState == CS_USING_SKILL && pChar->IsApplyDownState(false) )

  000ee	80 7d ef 07	 cmp	 BYTE PTR _eState$542115[ebp], 7
  000f2	75 11		 jne	 SHORT $LN7@GetFindCha@5
  000f4	6a 00		 push	 0
  000f6	8b ce		 mov	 ecx, esi
  000f8	e8 00 00 00 00	 call	 ?IsApplyDownState@ioBaseChar@@QAE_N_N@Z ; ioBaseChar::IsApplyDownState
  000fd	84 c0		 test	 al, al
  000ff	0f 85 de 01 00
	00		 jne	 $LN11@GetFindCha@5
$LN7@GetFindCha@5:

; 434  : 			continue;
; 435  : 
; 436  : 		if( eState == CS_BLOW_WOUNDED && !pChar->IsFloatingState() ) 

  00105	80 7d ef 0c	 cmp	 BYTE PTR _eState$542115[ebp], 12 ; 0000000cH
  00109	75 0f		 jne	 SHORT $LN6@GetFindCha@5
  0010b	8b ce		 mov	 ecx, esi
  0010d	e8 00 00 00 00	 call	 ?IsFloatingState@ioBaseChar@@QBE_NXZ ; ioBaseChar::IsFloatingState
  00112	84 c0		 test	 al, al
  00114	0f 84 c9 01 00
	00		 je	 $LN11@GetFindCha@5
$LN6@GetFindCha@5:

; 437  : 			continue;
; 438  : 
; 439  : 		if( eState == CS_BOUND_BLOW_WOUNDED && !pChar->IsFloatingState() )

  0011a	80 7d ef 31	 cmp	 BYTE PTR _eState$542115[ebp], 49 ; 00000031H
  0011e	75 0f		 jne	 SHORT $LN5@GetFindCha@5
  00120	8b ce		 mov	 ecx, esi
  00122	e8 00 00 00 00	 call	 ?IsFloatingState@ioBaseChar@@QBE_NXZ ; ioBaseChar::IsFloatingState
  00127	84 c0		 test	 al, al
  00129	0f 84 b4 01 00
	00		 je	 $LN11@GetFindCha@5
$LN5@GetFindCha@5:

; 440  : 			continue;
; 441  : 
; 442  : 		if( eState == CS_ETC_STATE && pChar->IsApplyDownState(false) )

  0012f	80 7d ef 0f	 cmp	 BYTE PTR _eState$542115[ebp], 15 ; 0000000fH
  00133	75 11		 jne	 SHORT $LN4@GetFindCha@5
  00135	6a 00		 push	 0
  00137	8b ce		 mov	 ecx, esi
  00139	e8 00 00 00 00	 call	 ?IsApplyDownState@ioBaseChar@@QAE_N_N@Z ; ioBaseChar::IsApplyDownState
  0013e	84 c0		 test	 al, al
  00140	0f 85 9d 01 00
	00		 jne	 $LN11@GetFindCha@5
$LN4@GetFindCha@5:

; 443  : 			continue;
; 444  : 		
; 445  : 		if( pChar->GetTeam() == m_pOwner->GetTeam() )

  00146	8d 45 c8	 lea	 eax, DWORD PTR _value$547155[ebp]
  00149	50		 push	 eax
  0014a	8d 8e 90 00 00
	00		 lea	 ecx, DWORD PTR [esi+144]
  00150	e8 00 00 00 00	 call	 ?DecryptValueToPool@?$CEncrypt@W4TeamType@@@@QAEXPAW4TeamType@@@Z ; CEncrypt<enum TeamType>::DecryptValueToPool
  00155	8b 4b 04	 mov	 ecx, DWORD PTR [ebx+4]
  00158	8d 45 cc	 lea	 eax, DWORD PTR _value$547168[ebp]
  0015b	50		 push	 eax
  0015c	81 c1 90 00 00
	00		 add	 ecx, 144		; 00000090H
  00162	e8 00 00 00 00	 call	 ?DecryptValueToPool@?$CEncrypt@W4TeamType@@@@QAEXPAW4TeamType@@@Z ; CEncrypt<enum TeamType>::DecryptValueToPool
  00167	8b 45 c8	 mov	 eax, DWORD PTR _value$547155[ebp]
  0016a	3b 45 cc	 cmp	 eax, DWORD PTR _value$547168[ebp]
  0016d	75 19		 jne	 SHORT $LN2@GetFindCha@5

; 446  : 		{
; 447  : 			if( !pChar->IsPrisonerMode() )

  0016f	8d 45 e7	 lea	 eax, DWORD PTR _value$547181[ebp]
  00172	50		 push	 eax
  00173	8d 8e cc 14 00
	00		 lea	 ecx, DWORD PTR [esi+5324]
  00179	e8 00 00 00 00	 call	 ?DecryptValueToPool@?$CEncrypt@_N@@QAEXPA_N@Z ; CEncrypt<bool>::DecryptValueToPool
  0017e	80 7d e7 00	 cmp	 BYTE PTR _value$547181[ebp], 0
  00182	0f 84 5b 01 00
	00		 je	 $LN11@GetFindCha@5
$LN2@GetFindCha@5:

; 448  : 				continue;
; 449  : 		}
; 450  : 
; 451  : 		vDiff = pChar->GetWorldPosition() - vOwnerPos;

  00188	8b 06		 mov	 eax, DWORD PTR [esi]
  0018a	8b ce		 mov	 ecx, esi
  0018c	ff 50 70	 call	 DWORD PTR [eax+112]
  0018f	f3 0f 10 00	 movss	 xmm0, DWORD PTR [eax]
  00193	f3 0f 10 4d bc	 movss	 xmm1, DWORD PTR _vOwnerPos$[ebp]
  00198	f3 0f 10 55 c0	 movss	 xmm2, DWORD PTR _vOwnerPos$[ebp+4]
  0019d	f3 0f 10 5d c4	 movss	 xmm3, DWORD PTR _vOwnerPos$[ebp+8]
  001a2	0f 5a c9	 cvtps2pd xmm1, xmm1
  001a5	0f 5a c0	 cvtps2pd xmm0, xmm0
  001a8	f2 0f 5c c1	 subsd	 xmm0, xmm1
  001ac	f3 0f 10 48 04	 movss	 xmm1, DWORD PTR [eax+4]
  001b1	0f 5a c9	 cvtps2pd xmm1, xmm1
  001b4	0f 5a d2	 cvtps2pd xmm2, xmm2
  001b7	f2 0f 5c ca	 subsd	 xmm1, xmm2
  001bb	f3 0f 10 50 08	 movss	 xmm2, DWORD PTR [eax+8]
  001c0	66 0f 5a c0	 cvtpd2ps xmm0, xmm0
  001c4	f3 0f 11 45 b0	 movss	 DWORD PTR $T542124[ebp], xmm0
  001c9	66 0f 5a c9	 cvtpd2ps xmm1, xmm1
  001cd	f3 0f 11 4d b4	 movss	 DWORD PTR $T542124[ebp+4], xmm1
  001d2	0f 5a d2	 cvtps2pd xmm2, xmm2
  001d5	0f 5a db	 cvtps2pd xmm3, xmm3
  001d8	f2 0f 5c d3	 subsd	 xmm2, xmm3
  001dc	66 0f 5a d2	 cvtpd2ps xmm2, xmm2
  001e0	f3 0f 11 55 b8	 movss	 DWORD PTR $T542124[ebp+8], xmm2

; 452  : 
; 453  : 		fCurAngleRate = D3DXVec3LengthSq( &vDiff ) / m_fRangeSq;

  001e5	f3 0f 5a c0	 cvtss2sd xmm0, xmm0
  001e9	f3 0f 5a c9	 cvtss2sd xmm1, xmm1
  001ed	f2 0f 59 c0	 mulsd	 xmm0, xmm0
  001f1	8d 75 b0	 lea	 esi, DWORD PTR $T542124[ebp]
  001f4	8d 7d f0	 lea	 edi, DWORD PTR _vDiff$[ebp]
  001f7	a5		 movsd
  001f8	f2 0f 59 c9	 mulsd	 xmm1, xmm1
  001fc	f2 0f 58 c8	 addsd	 xmm1, xmm0
  00200	0f 57 c0	 xorps	 xmm0, xmm0
  00203	f3 0f 5a d2	 cvtss2sd xmm2, xmm2
  00207	f2 0f 59 d2	 mulsd	 xmm2, xmm2
  0020b	f2 0f 58 ca	 addsd	 xmm1, xmm2
  0020f	66 0f 5a c1	 cvtpd2ps xmm0, xmm1
  00213	f3 0f 10 4b 10	 movss	 xmm1, DWORD PTR [ebx+16]
  00218	a5		 movsd
  00219	0f 5a c0	 cvtps2pd xmm0, xmm0
  0021c	0f 5a c9	 cvtps2pd xmm1, xmm1
  0021f	f2 0f 5e c1	 divsd	 xmm0, xmm1
  00223	66 0f 5a c0	 cvtpd2ps xmm0, xmm0
  00227	a5		 movsd
  00228	f3 0f 11 45 d8	 movss	 DWORD PTR _fCurAngleRate$[ebp], xmm0

; 454  : 		fCurAngle = m_fMinAngle * fCurAngleRate + m_fMaxAngle * (FLOAT1 - fCurAngleRate );

  0022d	b8 01 00 00 00	 mov	 eax, 1
  00232	89 45 d0	 mov	 DWORD PTR tv696[ebp], eax
  00235	db 45 d0	 fild	 DWORD PTR tv696[ebp]
  00238	85 c0		 test	 eax, eax
  0023a	79 06		 jns	 SHORT $LN98@GetFindCha@5
  0023c	d8 05 00 00 00
	00		 fadd	 DWORD PTR __real@4f800000
$LN98@GetFindCha@5:
  00242	d8 65 d8	 fsub	 DWORD PTR _fCurAngleRate$[ebp]
  00245	d8 4b 0c	 fmul	 DWORD PTR [ebx+12]
  00248	d9 43 08	 fld	 DWORD PTR [ebx+8]
  0024b	d8 4d d8	 fmul	 DWORD PTR _fCurAngleRate$[ebp]
  0024e	de c1		 faddp	 ST(1), ST(0)
  00250	d9 5d e0	 fstp	 DWORD PTR _fCurAngle$[ebp]

; 455  : 		fHalfCosine = cosf( DEGtoRAD( fCurAngle ) * FLOAT05 );

  00253	b8 05 00 00 00	 mov	 eax, 5
  00258	8b f0		 mov	 esi, eax
  0025a	b8 0a 00 00 00	 mov	 eax, 10			; 0000000aH

; 456  : 
; 457  : 		vDiff.y = 0.0f;

  0025f	d9 ee		 fldz
  00261	8b f8		 mov	 edi, eax
  00263	d9 5d f4	 fstp	 DWORD PTR _vDiff$[ebp+4]

; 458  : 		D3DXVec3Normalize( &vDiff, &vDiff );

  00266	8d 45 f0	 lea	 eax, DWORD PTR _vDiff$[ebp]
  00269	50		 push	 eax
  0026a	50		 push	 eax
  0026b	e8 00 00 00 00	 call	 _D3DXVec3Normalize@8

; 459  : 
; 460  : 		if( D3DXVec3Dot( &vCharDir, &vDiff ) >= fHalfCosine )

  00270	d9 45 a4	 fld	 DWORD PTR _vCharDir$[ebp]
  00273	d8 4d f0	 fmul	 DWORD PTR _vDiff$[ebp]
  00276	d9 45 a8	 fld	 DWORD PTR _vCharDir$[ebp+4]
  00279	d8 4d f4	 fmul	 DWORD PTR _vDiff$[ebp+4]
  0027c	de c1		 faddp	 ST(1), ST(0)
  0027e	d9 45 ac	 fld	 DWORD PTR _vCharDir$[ebp+8]
  00281	d8 4d f8	 fmul	 DWORD PTR _vDiff$[ebp+8]
  00284	de c1		 faddp	 ST(1), ST(0)
  00286	d9 5d dc	 fstp	 DWORD PTR tv686[ebp]
  00289	d9 45 dc	 fld	 DWORD PTR tv686[ebp]
  0028c	89 75 dc	 mov	 DWORD PTR tv683[ebp], esi
  0028f	d9 5d d0	 fstp	 DWORD PTR tv649[ebp]
  00292	db 45 dc	 fild	 DWORD PTR tv683[ebp]
  00295	85 f6		 test	 esi, esi
  00297	79 06		 jns	 SHORT $LN99@GetFindCha@5
  00299	d8 05 00 00 00
	00		 fadd	 DWORD PTR __real@4f800000
$LN99@GetFindCha@5:
  0029f	89 7d dc	 mov	 DWORD PTR tv679[ebp], edi
  002a2	db 45 dc	 fild	 DWORD PTR tv679[ebp]
  002a5	85 ff		 test	 edi, edi
  002a7	79 06		 jns	 SHORT $LN100@GetFindCha@5
  002a9	d8 05 00 00 00
	00		 fadd	 DWORD PTR __real@4f800000
$LN100@GetFindCha@5:

; 455  : 		fHalfCosine = cosf( DEGtoRAD( fCurAngle ) * FLOAT05 );

  002af	de f9		 fdivp	 ST(1), ST(0)

; 459  : 
; 460  : 		if( D3DXVec3Dot( &vCharDir, &vDiff ) >= fHalfCosine )

  002b1	d9 5d dc	 fstp	 DWORD PTR tv674[ebp]
  002b4	d9 45 dc	 fld	 DWORD PTR tv674[ebp]
  002b7	d9 45 e0	 fld	 DWORD PTR _fCurAngle$[ebp]
  002ba	dc 0d 00 00 00
	00		 fmul	 QWORD PTR __real@3f91df46a2526c7a
  002c0	d9 5d e0	 fstp	 DWORD PTR tv670[ebp]
  002c3	d8 4d e0	 fmul	 DWORD PTR tv670[ebp]
  002c6	d9 5d e0	 fstp	 DWORD PTR tv667[ebp]
  002c9	d9 45 e0	 fld	 DWORD PTR tv667[ebp]
  002cc	e8 00 00 00 00	 call	 __CIcos
  002d1	d9 5d e0	 fstp	 DWORD PTR tv660[ebp]
  002d4	d9 45 e0	 fld	 DWORD PTR tv660[ebp]
  002d7	d9 45 d0	 fld	 DWORD PTR tv649[ebp]
  002da	df f1		 fcomip	 ST(1)
  002dc	dd d8		 fstp	 ST(0)
  002de	73 28		 jae	 SHORT $LN93@GetFindCha@5
  002e0	8b 7d e8	 mov	 edi, DWORD PTR _iter$[ebp]
$LN11@GetFindCha@5:

; 423  : 	for( ; iter!=m_vAngleSortList.end() ; ++iter )

  002e3	83 c7 08	 add	 edi, 8
$LN101@GetFindCha@5:
  002e6	89 7d e8	 mov	 DWORD PTR _iter$[ebp], edi
  002e9	3b 3d 04 00 00
	00		 cmp	 edi, DWORD PTR ?m_vAngleSortList@FindPredicate@@1V?$vector@UCharAngle@FindPredicate@@V?$allocator@UCharAngle@FindPredicate@@@std@@@std@@A+4
  002ef	0f 85 c9 fd ff
	ff		 jne	 $LL38@GetFindCha@5

; 462  : 	}
; 463  : 
; 464  : 	return NULL;

  002f5	33 c0		 xor	 eax, eax
$LN95@GetFindCha@5:
  002f7	5f		 pop	 edi
$LN14@GetFindCha@5:

; 465  : }

  002f8	8b 4d fc	 mov	 ecx, DWORD PTR __$ArrayPad$[ebp]
  002fb	5e		 pop	 esi
  002fc	33 cd		 xor	 ecx, ebp
  002fe	5b		 pop	 ebx
  002ff	e8 00 00 00 00	 call	 @__security_check_cookie@4
  00304	c9		 leave
  00305	c2 04 00	 ret	 4
$LN93@GetFindCha@5:

; 461  : 			return pChar;

  00308	8b 45 d4	 mov	 eax, DWORD PTR _pChar$542114[ebp]
  0030b	eb ea		 jmp	 SHORT $LN95@GetFindCha@5
?GetFindChar@FD_AutoTarget@@UAEPAVioBaseChar@@ABV?$vector@PAVioBaseChar@@V?$allocator@PAVioBaseChar@@@std@@@std@@@Z ENDP ; FD_AutoTarget::GetFindChar
_TEXT	ENDS
PUBLIC	__$ArrayPad$
EXTRN	?GetMidPositionByRate@ioGameEntity@@QBE?AUD3DXVECTOR3@@M@Z:PROC ; ioGameEntity::GetMidPositionByRate
EXTRN	?GetOwner@ioWeapon@@QBEPAVioBaseChar@@XZ:PROC	; ioWeapon::GetOwner
; Function compile flags: /Ogsp
;	COMDAT ?GetFindChar@FD_CloseChainTarget@@UAEPAVioBaseChar@@ABV?$vector@PAVioBaseChar@@V?$allocator@PAVioBaseChar@@@std@@@std@@@Z
_TEXT	SEGMENT
_value$547344 = -72					; size = 4
_pAttacker$ = -68					; size = 4
_value$547357 = -64					; size = 4
tv643 = -60						; size = 4
$T547375 = -60						; size = 4
_iter$ = -56						; size = 4
_value$547369 = -49					; size = 1
tv639 = -48						; size = 4
tv635 = -48						; size = 4
tv620 = -48						; size = 4
tv613 = -48						; size = 4
$T547399 = -48						; size = 4
$T547379 = -48						; size = 4
_fGapAngle$542183 = -48					; size = 4
_eState$542162 = -41					; size = 1
$T542179 = -40						; size = 12
_vDir$542176 = -28					; size = 12
_vDiff$542178 = -16					; size = 12
__$ArrayPad$ = -4					; size = 4
_rkCandidateList$ = 8					; size = 4
?GetFindChar@FD_CloseChainTarget@@UAEPAVioBaseChar@@ABV?$vector@PAVioBaseChar@@V?$allocator@PAVioBaseChar@@@std@@@std@@@Z PROC ; FD_CloseChainTarget::GetFindChar, COMDAT
; _this$ = ecx

; 483  : {

  00000	55		 push	 ebp
  00001	8b ec		 mov	 ebp, esp
  00003	83 ec 48	 sub	 esp, 72			; 00000048H
  00006	a1 00 00 00 00	 mov	 eax, DWORD PTR ___security_cookie
  0000b	33 c5		 xor	 eax, ebp
  0000d	89 45 fc	 mov	 DWORD PTR __$ArrayPad$[ebp], eax
  00010	56		 push	 esi
  00011	57		 push	 edi
  00012	8b 7d 08	 mov	 edi, DWORD PTR _rkCandidateList$[ebp]
  00015	8b f1		 mov	 esi, ecx

; 484  : 	if( IsExperienceOwner() ) return NULL;

  00017	e8 00 00 00 00	 call	 ?IsExperienceOwner@FindPredicate@@IAE_NXZ ; FindPredicate::IsExperienceOwner
  0001c	84 c0		 test	 al, al
  0001e	74 07		 je	 SHORT $LN20@GetFindCha@6
$LN93@GetFindCha@6:
  00020	33 c0		 xor	 eax, eax
  00022	e9 52 02 00 00	 jmp	 $LN21@GetFindCha@6
$LN20@GetFindCha@6:

; 485  : 
; 486  : 	if( !m_pWeapon ) return NULL;

  00027	8b 4e 10	 mov	 ecx, DWORD PTR [esi+16]
  0002a	85 c9		 test	 ecx, ecx
  0002c	74 f2		 je	 SHORT $LN93@GetFindCha@6

; 487  : 	ioBaseChar *pAttacker = m_pWeapon->GetOwner();

  0002e	e8 00 00 00 00	 call	 ?GetOwner@ioWeapon@@QBEPAVioBaseChar@@XZ ; ioWeapon::GetOwner
  00033	89 45 bc	 mov	 DWORD PTR _pAttacker$[ebp], eax

; 488  : 	if( !pAttacker ) return NULL;

  00036	85 c0		 test	 eax, eax
  00038	74 e6		 je	 SHORT $LN93@GetFindCha@6

; 489  : 
; 490  : 	MakeMostCloseSortList( rkCandidateList, m_fRangeSq );

  0003a	f3 0f 10 46 08	 movss	 xmm0, DWORD PTR [esi+8]
  0003f	53		 push	 ebx
  00040	51		 push	 ecx
  00041	f3 0f 11 04 24	 movss	 DWORD PTR [esp], xmm0
  00046	57		 push	 edi
  00047	8b ce		 mov	 ecx, esi
  00049	e8 00 00 00 00	 call	 ?MakeMostCloseSortList@FindPredicate@@IAEXABV?$vector@PAVioBaseChar@@V?$allocator@PAVioBaseChar@@@std@@@std@@M@Z ; FindPredicate::MakeMostCloseSortList

; 491  : 
; 492  : 	CharDistanceList::iterator iter;
; 493  : 	for( iter=m_vDistanceSortList.begin() ; iter!=m_vDistanceSortList.end() ; ++iter )

  0004e	a1 00 00 00 00	 mov	 eax, DWORD PTR ?m_vDistanceSortList@FindPredicate@@1V?$vector@UCharDistanceSq@FindPredicate@@V?$allocator@UCharDistanceSq@FindPredicate@@@std@@@std@@A
  00053	e9 0f 02 00 00	 jmp	 $LN92@GetFindCha@6
$LL37@GetFindCha@6:

; 494  : 	{
; 495  : 		ioBaseChar *pChar = iter->pChar;

  00058	8b 18		 mov	 ebx, DWORD PTR [eax]

; 496  : 		CharState eState = pChar->GetState();

  0005a	8a 83 10 03 00
	00		 mov	 al, BYTE PTR [ebx+784]
  00060	88 45 d7	 mov	 BYTE PTR _eState$542162[ebp], al

; 497  : 
; 498  : 		if( !pChar )
; 499  : 			continue;
; 500  : 
; 501  : 		if( pChar == m_pOwner )

  00063	3b 5e 04	 cmp	 ebx, DWORD PTR [esi+4]
  00066	0f 84 f5 01 00
	00		 je	 $LN16@GetFindCha@6

; 502  : 			continue;
; 503  : 
; 504  : 		if( pChar == pAttacker )

  0006c	8b 7d bc	 mov	 edi, DWORD PTR _pAttacker$[ebp]
  0006f	3b df		 cmp	 ebx, edi
  00071	0f 84 ea 01 00
	00		 je	 $LN16@GetFindCha@6

; 505  : 			continue;
; 506  : 		
; 507  : 		if( m_pWeapon->IsAlreadyCollisioned( pChar ) )

  00077	8b 4e 10	 mov	 ecx, DWORD PTR [esi+16]
  0007a	8b 01		 mov	 eax, DWORD PTR [ecx]
  0007c	53		 push	 ebx
  0007d	ff 10		 call	 DWORD PTR [eax]
  0007f	84 c0		 test	 al, al
  00081	0f 85 da 01 00
	00		 jne	 $LN16@GetFindCha@6

; 508  : 			continue;
; 509  : 
; 510  : 		if( pChar->IsSystemState() )

  00087	8b cb		 mov	 ecx, ebx
  00089	e8 00 00 00 00	 call	 ?IsSystemState@ioBaseChar@@QAE_NXZ ; ioBaseChar::IsSystemState
  0008e	84 c0		 test	 al, al
  00090	0f 85 cb 01 00
	00		 jne	 $LN16@GetFindCha@6

; 511  : 			continue;
; 512  : 		
; 513  : 		if( !pChar->IsEnableTarget( false ) ) 

  00096	6a 01		 push	 1
  00098	6a 00		 push	 0
  0009a	8b cb		 mov	 ecx, ebx
  0009c	e8 00 00 00 00	 call	 ?IsEnableTarget@ioBaseChar@@QAE_N_N0@Z ; ioBaseChar::IsEnableTarget
  000a1	84 c0		 test	 al, al
  000a3	0f 84 b8 01 00
	00		 je	 $LN16@GetFindCha@6

; 514  : 			continue;
; 515  : 
; 516  : 
; 517  : 		if( pChar->GetTeam() == pAttacker->GetTeam() )

  000a9	8d 45 b8	 lea	 eax, DWORD PTR _value$547344[ebp]
  000ac	50		 push	 eax
  000ad	8d 8b 90 00 00
	00		 lea	 ecx, DWORD PTR [ebx+144]
  000b3	e8 00 00 00 00	 call	 ?DecryptValueToPool@?$CEncrypt@W4TeamType@@@@QAEXPAW4TeamType@@@Z ; CEncrypt<enum TeamType>::DecryptValueToPool
  000b8	8d 45 c0	 lea	 eax, DWORD PTR _value$547357[ebp]
  000bb	50		 push	 eax
  000bc	8d 8f 90 00 00
	00		 lea	 ecx, DWORD PTR [edi+144]
  000c2	e8 00 00 00 00	 call	 ?DecryptValueToPool@?$CEncrypt@W4TeamType@@@@QAEXPAW4TeamType@@@Z ; CEncrypt<enum TeamType>::DecryptValueToPool
  000c7	8b 45 b8	 mov	 eax, DWORD PTR _value$547344[ebp]
  000ca	3b 45 c0	 cmp	 eax, DWORD PTR _value$547357[ebp]
  000cd	0f 84 8e 01 00
	00		 je	 $LN16@GetFindCha@6

; 518  : 			continue;
; 519  : 
; 520  : 		ioChainWeapon *pChain = ToChainWeapon( m_pWeapon );

  000d3	ff 76 10	 push	 DWORD PTR [esi+16]
  000d6	e8 00 00 00 00	 call	 ?ToChainWeapon@@YAPAVioChainWeapon@@PAVioWeapon@@@Z ; ToChainWeapon
  000db	59		 pop	 ecx

; 521  : 		if( pChain && pChain->IsDisableDownTarget() )

  000dc	85 c0		 test	 eax, eax
  000de	74 6d		 je	 SHORT $LN3@GetFindCha@6
  000e0	8d 4d cf	 lea	 ecx, DWORD PTR _value$547369[ebp]
  000e3	51		 push	 ecx
  000e4	8d 88 78 09 00
	00		 lea	 ecx, DWORD PTR [eax+2424]
  000ea	e8 00 00 00 00	 call	 ?DecryptValueToPool@?$CEncrypt@_N@@QAEXPA_N@Z ; CEncrypt<bool>::DecryptValueToPool
  000ef	80 7d cf 00	 cmp	 BYTE PTR _value$547369[ebp], 0
  000f3	74 58		 je	 SHORT $LN3@GetFindCha@6

; 522  : 		{
; 523  : 			if( eState == CS_BLOW_WOUNDED && !pChar->IsFloatingState() )

  000f5	80 7d d7 0c	 cmp	 BYTE PTR _eState$542162[ebp], 12 ; 0000000cH
  000f9	75 0f		 jne	 SHORT $LN6@GetFindCha@6
  000fb	8b cb		 mov	 ecx, ebx
  000fd	e8 00 00 00 00	 call	 ?IsFloatingState@ioBaseChar@@QBE_NXZ ; ioBaseChar::IsFloatingState
  00102	84 c0		 test	 al, al
  00104	0f 84 57 01 00
	00		 je	 $LN16@GetFindCha@6
$LN6@GetFindCha@6:

; 524  : 				continue;
; 525  : 			if( eState == CS_BOUND_BLOW_WOUNDED && !pChar->IsFloatingState() )

  0010a	80 7d d7 31	 cmp	 BYTE PTR _eState$542162[ebp], 49 ; 00000031H
  0010e	75 0f		 jne	 SHORT $LN5@GetFindCha@6
  00110	8b cb		 mov	 ecx, ebx
  00112	e8 00 00 00 00	 call	 ?IsFloatingState@ioBaseChar@@QBE_NXZ ; ioBaseChar::IsFloatingState
  00117	84 c0		 test	 al, al
  00119	0f 84 42 01 00
	00		 je	 $LN16@GetFindCha@6
$LN5@GetFindCha@6:

; 526  : 				continue;
; 527  : 			if( eState == CS_ETC_STATE && pChar->IsApplyDownState(false) )

  0011f	80 7d d7 0f	 cmp	 BYTE PTR _eState$542162[ebp], 15 ; 0000000fH
  00123	75 11		 jne	 SHORT $LN4@GetFindCha@6
  00125	6a 00		 push	 0
  00127	8b cb		 mov	 ecx, ebx
  00129	e8 00 00 00 00	 call	 ?IsApplyDownState@ioBaseChar@@QAE_N_N@Z ; ioBaseChar::IsApplyDownState
  0012e	84 c0		 test	 al, al
  00130	0f 85 2b 01 00
	00		 jne	 $LN16@GetFindCha@6
$LN4@GetFindCha@6:

; 528  : 				continue;
; 529  : 			if( eState == CS_USING_SKILL && pChar->IsApplyDownState(false) )

  00136	80 7d d7 07	 cmp	 BYTE PTR _eState$542162[ebp], 7
  0013a	75 11		 jne	 SHORT $LN3@GetFindCha@6
  0013c	6a 00		 push	 0
  0013e	8b cb		 mov	 ecx, ebx
  00140	e8 00 00 00 00	 call	 ?IsApplyDownState@ioBaseChar@@QAE_N_N@Z ; ioBaseChar::IsApplyDownState
  00145	84 c0		 test	 al, al
  00147	0f 85 14 01 00
	00		 jne	 $LN16@GetFindCha@6
$LN3@GetFindCha@6:

; 530  : 				continue;
; 531  : 		}
; 532  : 
; 533  : 		D3DXVECTOR3 vDir = m_pWeapon->GetMoveDir();

  0014d	8b 4e 10	 mov	 ecx, DWORD PTR [esi+16]
  00150	8b 01		 mov	 eax, DWORD PTR [ecx]
  00152	8d 55 e4	 lea	 edx, DWORD PTR _vDir$542176[ebp]
  00155	52		 push	 edx
  00156	ff 90 08 01 00
	00		 call	 DWORD PTR [eax+264]

; 534  : 		vDir.y = 0.0f;

  0015c	0f 57 c0	 xorps	 xmm0, xmm0

; 535  : 		D3DXVec3Normalize( &vDir, &vDir );

  0015f	8d 45 e4	 lea	 eax, DWORD PTR _vDir$542176[ebp]
  00162	50		 push	 eax
  00163	50		 push	 eax
  00164	f3 0f 11 45 e8	 movss	 DWORD PTR _vDir$542176[ebp+4], xmm0
  00169	e8 00 00 00 00	 call	 _D3DXVec3Normalize@8

; 536  : 
; 537  : 		D3DXVECTOR3 vDiff = pChar->GetMidPositionByRate() - m_pWeapon->GetPosition();

  0016e	b8 05 00 00 00	 mov	 eax, 5
  00173	89 45 c4	 mov	 DWORD PTR $T547375[ebp], eax
  00176	b8 0a 00 00 00	 mov	 eax, 10			; 0000000aH
  0017b	8b 4e 10	 mov	 ecx, DWORD PTR [esi+16]
  0017e	89 45 d0	 mov	 DWORD PTR $T547379[ebp], eax
  00181	8b 01		 mov	 eax, DWORD PTR [ecx]
  00183	ff 50 70	 call	 DWORD PTR [eax+112]
  00186	db 45 c4	 fild	 DWORD PTR $T547375[ebp]
  00189	8b f8		 mov	 edi, eax
  0018b	8b 45 c4	 mov	 eax, DWORD PTR $T547375[ebp]
  0018e	85 c0		 test	 eax, eax
  00190	79 06		 jns	 SHORT $LN90@GetFindCha@6
  00192	d8 05 00 00 00
	00		 fadd	 DWORD PTR __real@4f800000
$LN90@GetFindCha@6:
  00198	8b 45 d0	 mov	 eax, DWORD PTR $T547379[ebp]
  0019b	db 45 d0	 fild	 DWORD PTR $T547379[ebp]
  0019e	85 c0		 test	 eax, eax
  001a0	79 06		 jns	 SHORT $LN91@GetFindCha@6
  001a2	d8 05 00 00 00
	00		 fadd	 DWORD PTR __real@4f800000
$LN91@GetFindCha@6:
  001a8	de f9		 fdivp	 ST(1), ST(0)
  001aa	51		 push	 ecx
  001ab	8d 45 d8	 lea	 eax, DWORD PTR $T542179[ebp]
  001ae	8b cb		 mov	 ecx, ebx
  001b0	d9 5d d0	 fstp	 DWORD PTR tv635[ebp]
  001b3	d9 45 d0	 fld	 DWORD PTR tv635[ebp]
  001b6	d9 1c 24	 fstp	 DWORD PTR [esp]
  001b9	50		 push	 eax
  001ba	e8 00 00 00 00	 call	 ?GetMidPositionByRate@ioGameEntity@@QBE?AUD3DXVECTOR3@@M@Z ; ioGameEntity::GetMidPositionByRate
  001bf	f3 0f 10 40 08	 movss	 xmm0, DWORD PTR [eax+8]
  001c4	f3 0f 10 4f 08	 movss	 xmm1, DWORD PTR [edi+8]
  001c9	f3 0f 10 17	 movss	 xmm2, DWORD PTR [edi]
  001cd	0f 5a c9	 cvtps2pd xmm1, xmm1
  001d0	0f 5a c0	 cvtps2pd xmm0, xmm0
  001d3	f2 0f 5c c1	 subsd	 xmm0, xmm1
  001d7	f3 0f 10 08	 movss	 xmm1, DWORD PTR [eax]

; 538  : 		vDiff.y = 0.0f;
; 539  : 		D3DXVec3Normalize( &vDiff, &vDiff );

  001db	8d 45 f0	 lea	 eax, DWORD PTR _vDiff$542178[ebp]
  001de	66 0f 5a c0	 cvtpd2ps xmm0, xmm0
  001e2	0f 5a c9	 cvtps2pd xmm1, xmm1
  001e5	0f 5a d2	 cvtps2pd xmm2, xmm2
  001e8	50		 push	 eax
  001e9	f2 0f 5c ca	 subsd	 xmm1, xmm2
  001ed	f3 0f 11 45 f8	 movss	 DWORD PTR _vDiff$542178[ebp+8], xmm0
  001f2	0f 57 c0	 xorps	 xmm0, xmm0
  001f5	66 0f 5a c9	 cvtpd2ps xmm1, xmm1
  001f9	50		 push	 eax
  001fa	f3 0f 11 4d f0	 movss	 DWORD PTR _vDiff$542178[ebp], xmm1
  001ff	f3 0f 11 45 f4	 movss	 DWORD PTR _vDiff$542178[ebp+4], xmm0
  00204	e8 00 00 00 00	 call	 _D3DXVec3Normalize@8

; 540  : 
; 541  : 		if( m_fHalfAngle > 0.0f )

  00209	f3 0f 10 46 0c	 movss	 xmm0, DWORD PTR [esi+12]
  0020e	0f 2f 05 00 00
	00 00		 comiss	 xmm0, DWORD PTR __real@00000000
  00215	76 72		 jbe	 SHORT $LN1@GetFindCha@6

; 542  : 		{
; 543  : 			float fDotValue = D3DXVec3Dot( &vDiff, &vDir );
; 544  : 			float fGapAngle = RADtoDEG( acosf( fDotValue ) );

  00217	d9 45 e4	 fld	 DWORD PTR _vDir$542176[ebp]
  0021a	d8 4d f0	 fmul	 DWORD PTR _vDiff$542178[ebp]
  0021d	d9 45 f4	 fld	 DWORD PTR _vDiff$542178[ebp+4]
  00220	d8 4d e8	 fmul	 DWORD PTR _vDir$542176[ebp+4]
  00223	de c1		 faddp	 ST(1), ST(0)
  00225	d9 45 ec	 fld	 DWORD PTR _vDir$542176[ebp+8]
  00228	d8 4d f8	 fmul	 DWORD PTR _vDiff$542178[ebp+8]
  0022b	de c1		 faddp	 ST(1), ST(0)
  0022d	d9 5d d0	 fstp	 DWORD PTR tv620[ebp]
  00230	d9 45 d0	 fld	 DWORD PTR tv620[ebp]
  00233	e8 00 00 00 00	 call	 __CIacos
  00238	d9 5d d0	 fstp	 DWORD PTR tv613[ebp]
  0023b	d9 45 d0	 fld	 DWORD PTR tv613[ebp]
  0023e	51		 push	 ecx
  0023f	d9 5d d0	 fstp	 DWORD PTR $T547399[ebp]
  00242	f3 0f 10 45 d0	 movss	 xmm0, DWORD PTR $T547399[ebp]
  00247	f3 0f 11 04 24	 movss	 DWORD PTR [esp], xmm0
  0024c	e8 00 00 00 00	 call	 ??$RADtoDEG@M@@YAMM@Z	; RADtoDEG<float>
  00251	d9 5d d0	 fstp	 DWORD PTR _fGapAngle$542183[ebp]

; 545  :             
; 546  : 			if( fGapAngle >= m_fHalfAngle )

  00254	d9 46 0c	 fld	 DWORD PTR [esi+12]
  00257	59		 pop	 ecx
  00258	d9 45 d0	 fld	 DWORD PTR _fGapAngle$542183[ebp]
  0025b	df f1		 fcomip	 ST(1)
  0025d	dd d8		 fstp	 ST(0)
  0025f	72 28		 jb	 SHORT $LN1@GetFindCha@6
$LN16@GetFindCha@6:

; 491  : 
; 492  : 	CharDistanceList::iterator iter;
; 493  : 	for( iter=m_vDistanceSortList.begin() ; iter!=m_vDistanceSortList.end() ; ++iter )

  00261	8b 45 c8	 mov	 eax, DWORD PTR _iter$[ebp]
  00264	83 c0 08	 add	 eax, 8
$LN92@GetFindCha@6:
  00267	89 45 c8	 mov	 DWORD PTR _iter$[ebp], eax
  0026a	3b 05 04 00 00
	00		 cmp	 eax, DWORD PTR ?m_vDistanceSortList@FindPredicate@@1V?$vector@UCharDistanceSq@FindPredicate@@V?$allocator@UCharDistanceSq@FindPredicate@@@std@@@std@@A+4
  00270	0f 85 e2 fd ff
	ff		 jne	 $LL37@GetFindCha@6

; 551  : 	}
; 552  : 
; 553  : 	return NULL;

  00276	33 c0		 xor	 eax, eax
$LN89@GetFindCha@6:
  00278	5b		 pop	 ebx
$LN21@GetFindCha@6:

; 554  : }

  00279	8b 4d fc	 mov	 ecx, DWORD PTR __$ArrayPad$[ebp]
  0027c	5f		 pop	 edi
  0027d	33 cd		 xor	 ecx, ebp
  0027f	5e		 pop	 esi
  00280	e8 00 00 00 00	 call	 @__security_check_cookie@4
  00285	c9		 leave
  00286	c2 04 00	 ret	 4
$LN1@GetFindCha@6:

; 547  : 				continue;
; 548  : 		}
; 549  : 
; 550  : 		return pChar;

  00289	8b c3		 mov	 eax, ebx
  0028b	eb eb		 jmp	 SHORT $LN89@GetFindCha@6
?GetFindChar@FD_CloseChainTarget@@UAEPAVioBaseChar@@ABV?$vector@PAVioBaseChar@@V?$allocator@PAVioBaseChar@@@std@@@std@@@Z ENDP ; FD_CloseChainTarget::GetFindChar
_TEXT	ENDS
PUBLIC	__$ArrayPad$
; Function compile flags: /Ogsp
;	COMDAT ?GetFindChar@FD_GrapplingAutoTarget@@UAEPAVioBaseChar@@ABV?$vector@PAVioBaseChar@@V?$allocator@PAVioBaseChar@@@std@@@std@@@Z
_TEXT	SEGMENT
_vCharDir$ = -88					; size = 12
$T542242 = -76						; size = 12
_vOwnerPos$ = -64					; size = 12
_value$547539 = -52					; size = 4
_value$547552 = -48					; size = 4
_fCurAngleRate$ = -44					; size = 4
_pTarget$ = -40						; size = 4
tv765 = -36						; size = 4
tv761 = -36						; size = 4
tv757 = -36						; size = 4
_fCheckAngle$ = -32					; size = 4
$T547418 = -28						; size = 4
_pChar$542228 = -28					; size = 4
tv842 = -24						; size = 4
tv839 = -24						; size = 4
tv833 = -24						; size = 4
_iter$ = -24						; size = 4
tv850 = -20						; size = 4
tv846 = -20						; size = 4
tv810 = -20						; size = 4
tv773 = -20						; size = 4
tv753 = -20						; size = 4
tv751 = -20						; size = 4
tv745 = -20						; size = 4
tv728 = -20						; size = 4
_fHalfCosine$ = -20					; size = 4
_fCurAngle$ = -20					; size = 4
_vDiff$ = -16						; size = 12
__$ArrayPad$ = -4					; size = 4
_rkCandidateList$ = 8					; size = 4
?GetFindChar@FD_GrapplingAutoTarget@@UAEPAVioBaseChar@@ABV?$vector@PAVioBaseChar@@V?$allocator@PAVioBaseChar@@@std@@@std@@@Z PROC ; FD_GrapplingAutoTarget::GetFindChar, COMDAT
; _this$ = ecx

; 572  : {

  00000	55		 push	 ebp
  00001	8b ec		 mov	 ebp, esp
  00003	83 ec 58	 sub	 esp, 88			; 00000058H
  00006	a1 00 00 00 00	 mov	 eax, DWORD PTR ___security_cookie
  0000b	33 c5		 xor	 eax, ebp
  0000d	89 45 fc	 mov	 DWORD PTR __$ArrayPad$[ebp], eax
  00010	53		 push	 ebx
  00011	56		 push	 esi
  00012	8b 75 08	 mov	 esi, DWORD PTR _rkCandidateList$[ebp]
  00015	8b d9		 mov	 ebx, ecx

; 573  : 	if( IsExperienceOwner() ) return NULL;

  00017	e8 00 00 00 00	 call	 ?IsExperienceOwner@FindPredicate@@IAE_NXZ ; FindPredicate::IsExperienceOwner
  0001c	84 c0		 test	 al, al
  0001e	74 07		 je	 SHORT $LN18@GetFindCha@7
  00020	33 c0		 xor	 eax, eax
  00022	e9 37 03 00 00	 jmp	 $LN19@GetFindCha@7
$LN18@GetFindCha@7:

; 574  : 
; 575  : 	float fCurAngle, fMaxHalfCosine, fHalfCosine, fCurAngleRate;
; 576  : 
; 577  : 	fMaxHalfCosine = cosf( DEGtoRAD( m_fMaxAngle ) * FLOAT05  );

  00027	d9 43 0c	 fld	 DWORD PTR [ebx+12]
  0002a	57		 push	 edi
  0002b	dc 0d 00 00 00
	00		 fmul	 QWORD PTR __real@3f91df46a2526c7a
  00031	d9 5d e4	 fstp	 DWORD PTR $T547418[ebp]
  00034	b8 05 00 00 00	 mov	 eax, 5
  00039	8b c8		 mov	 ecx, eax
  0003b	b8 0a 00 00 00	 mov	 eax, 10			; 0000000aH

; 578  : 	MakeSmallestAngleSortList( rkCandidateList, m_fRangeSq, fMaxHalfCosine );

  00040	89 4d ec	 mov	 DWORD PTR tv850[ebp], ecx
  00043	db 45 ec	 fild	 DWORD PTR tv850[ebp]
  00046	85 c9		 test	 ecx, ecx
  00048	79 06		 jns	 SHORT $LN106@GetFindCha@7
  0004a	d8 05 00 00 00
	00		 fadd	 DWORD PTR __real@4f800000
$LN106@GetFindCha@7:
  00050	89 45 ec	 mov	 DWORD PTR tv846[ebp], eax
  00053	db 45 ec	 fild	 DWORD PTR tv846[ebp]
  00056	85 c0		 test	 eax, eax
  00058	79 06		 jns	 SHORT $LN107@GetFindCha@7
  0005a	d8 05 00 00 00
	00		 fadd	 DWORD PTR __real@4f800000
$LN107@GetFindCha@7:

; 574  : 
; 575  : 	float fCurAngle, fMaxHalfCosine, fHalfCosine, fCurAngleRate;
; 576  : 
; 577  : 	fMaxHalfCosine = cosf( DEGtoRAD( m_fMaxAngle ) * FLOAT05  );

  00060	de f9		 fdivp	 ST(1), ST(0)

; 578  : 	MakeSmallestAngleSortList( rkCandidateList, m_fRangeSq, fMaxHalfCosine );

  00062	d9 5d e8	 fstp	 DWORD PTR tv842[ebp]
  00065	d9 45 e8	 fld	 DWORD PTR tv842[ebp]
  00068	d8 4d e4	 fmul	 DWORD PTR $T547418[ebp]
  0006b	d9 5d e8	 fstp	 DWORD PTR tv839[ebp]
  0006e	d9 45 e8	 fld	 DWORD PTR tv839[ebp]
  00071	e8 00 00 00 00	 call	 __CIcos
  00076	d9 5d e8	 fstp	 DWORD PTR tv833[ebp]
  00079	d9 45 e8	 fld	 DWORD PTR tv833[ebp]
  0007c	f3 0f 10 43 10	 movss	 xmm0, DWORD PTR [ebx+16]
  00081	51		 push	 ecx
  00082	51		 push	 ecx
  00083	d9 5c 24 04	 fstp	 DWORD PTR [esp+4]
  00087	f3 0f 11 04 24	 movss	 DWORD PTR [esp], xmm0
  0008c	56		 push	 esi
  0008d	8b cb		 mov	 ecx, ebx
  0008f	e8 00 00 00 00	 call	 ?MakeSmallestAngleSortList@FindPredicate@@IAEXABV?$vector@PAVioBaseChar@@V?$allocator@PAVioBaseChar@@@std@@@std@@MM@Z ; FindPredicate::MakeSmallestAngleSortList

; 579  : 
; 580  : 	D3DXVECTOR3 vCharDir  = m_pOwner->GetMoveDir();

  00094	8b 73 04	 mov	 esi, DWORD PTR [ebx+4]

; 581  : 	D3DXVECTOR3 vOwnerPos = m_pOwner->GetWorldPosition();

  00097	8b 4b 04	 mov	 ecx, DWORD PTR [ebx+4]
  0009a	8b 01		 mov	 eax, DWORD PTR [ecx]
  0009c	81 c6 b4 06 00
	00		 add	 esi, 1716		; 000006b4H
  000a2	8d 7d a8	 lea	 edi, DWORD PTR _vCharDir$[ebp]
  000a5	a5		 movsd
  000a6	a5		 movsd
  000a7	a5		 movsd
  000a8	ff 50 70	 call	 DWORD PTR [eax+112]

; 582  : 	D3DXVECTOR3 vDiff;
; 583  : 
; 584  : 	ioBaseChar *pTarget = NULL;

  000ab	83 65 d8 00	 and	 DWORD PTR _pTarget$[ebp], 0
  000af	8b f0		 mov	 esi, eax
  000b1	8d 7d c0	 lea	 edi, DWORD PTR _vOwnerPos$[ebp]
  000b4	a5		 movsd
  000b5	a5		 movsd
  000b6	a5		 movsd

; 585  : 	float fCheckAngle = -FLOAT1;

  000b7	b8 01 00 00 00	 mov	 eax, 1
  000bc	89 45 ec	 mov	 DWORD PTR tv810[ebp], eax
  000bf	db 45 ec	 fild	 DWORD PTR tv810[ebp]
  000c2	85 c0		 test	 eax, eax
  000c4	79 06		 jns	 SHORT $LN108@GetFindCha@7
  000c6	d8 05 00 00 00
	00		 fadd	 DWORD PTR __real@4f800000
$LN108@GetFindCha@7:

; 586  : 	CharAngleSortList::iterator iter=m_vAngleSortList.begin();

  000cc	a1 00 00 00 00	 mov	 eax, DWORD PTR ?m_vAngleSortList@FindPredicate@@1V?$vector@UCharAngle@FindPredicate@@V?$allocator@UCharAngle@FindPredicate@@@std@@@std@@A
  000d1	d9 e0		 fchs
  000d3	d9 5d e0	 fstp	 DWORD PTR _fCheckAngle$[ebp]
  000d6	e9 70 02 00 00	 jmp	 $LN113@GetFindCha@7
$LL105@GetFindCha@7:

; 588  : 	{
; 589  : 		ioBaseChar *pChar = iter->pChar;

  000db	8b 30		 mov	 esi, DWORD PTR [eax]
  000dd	89 75 e4	 mov	 DWORD PTR _pChar$542228[ebp], esi

; 590  : 		CharState eState = pChar->GetState();
; 591  : 
; 592  : 		if( pChar == m_pOwner )

  000e0	3b 73 04	 cmp	 esi, DWORD PTR [ebx+4]
  000e3	0f 84 5c 02 00
	00		 je	 $LN16@GetFindCha@7

; 593  : 			continue;
; 594  : 
; 595  : 		if( pChar->IsSystemState() )

  000e9	8b ce		 mov	 ecx, esi
  000eb	e8 00 00 00 00	 call	 ?IsSystemState@ioBaseChar@@QAE_NXZ ; ioBaseChar::IsSystemState
  000f0	84 c0		 test	 al, al
  000f2	0f 85 4d 02 00
	00		 jne	 $LN16@GetFindCha@7

; 596  : 			continue;
; 597  : 		
; 598  : 		if( !pChar->IsEnableTarget( false ) ) 

  000f8	6a 01		 push	 1
  000fa	6a 00		 push	 0
  000fc	8b ce		 mov	 ecx, esi
  000fe	e8 00 00 00 00	 call	 ?IsEnableTarget@ioBaseChar@@QAE_N_N0@Z ; ioBaseChar::IsEnableTarget
  00103	84 c0		 test	 al, al
  00105	0f 84 3a 02 00
	00		 je	 $LN16@GetFindCha@7

; 599  : 			continue;
; 600  : 
; 601  : 		if( pChar->GetTeam() == m_pOwner->GetTeam() )

  0010b	8d 45 cc	 lea	 eax, DWORD PTR _value$547539[ebp]
  0010e	50		 push	 eax
  0010f	8d 8e 90 00 00
	00		 lea	 ecx, DWORD PTR [esi+144]
  00115	e8 00 00 00 00	 call	 ?DecryptValueToPool@?$CEncrypt@W4TeamType@@@@QAEXPAW4TeamType@@@Z ; CEncrypt<enum TeamType>::DecryptValueToPool
  0011a	8b 4b 04	 mov	 ecx, DWORD PTR [ebx+4]
  0011d	8d 45 d0	 lea	 eax, DWORD PTR _value$547552[ebp]
  00120	50		 push	 eax
  00121	81 c1 90 00 00
	00		 add	 ecx, 144		; 00000090H
  00127	e8 00 00 00 00	 call	 ?DecryptValueToPool@?$CEncrypt@W4TeamType@@@@QAEXPAW4TeamType@@@Z ; CEncrypt<enum TeamType>::DecryptValueToPool
  0012c	8b 45 cc	 mov	 eax, DWORD PTR _value$547539[ebp]
  0012f	3b 45 d0	 cmp	 eax, DWORD PTR _value$547552[ebp]
  00132	0f 84 0d 02 00
	00		 je	 $LN16@GetFindCha@7

; 602  : 			continue;
; 603  : 
; 604  : 		switch( pChar->GetState() )

  00138	8a 86 10 03 00
	00		 mov	 al, BYTE PTR [esi+784]
  0013e	3c 07		 cmp	 al, 7
  00140	74 19		 je	 SHORT $LN6@GetFindCha@7
  00142	3c 0c		 cmp	 al, 12			; 0000000cH
  00144	74 08		 je	 SHORT $LN8@GetFindCha@7
  00146	3c 0f		 cmp	 al, 15			; 0000000fH
  00148	74 11		 je	 SHORT $LN6@GetFindCha@7
  0014a	3c 31		 cmp	 al, 49			; 00000031H
  0014c	75 24		 jne	 SHORT $LN5@GetFindCha@7
$LN8@GetFindCha@7:

; 605  : 		{
; 606  : 		case CS_BLOW_WOUNDED:
; 607  : 		case CS_BOUND_BLOW_WOUNDED:
; 608  : 			if( !pChar->IsFloatingState() && !m_bDownTarget )

  0014e	8b ce		 mov	 ecx, esi
  00150	e8 00 00 00 00	 call	 ?IsFloatingState@ioBaseChar@@QBE_NXZ ; ioBaseChar::IsFloatingState
  00155	84 c0		 test	 al, al
  00157	75 19		 jne	 SHORT $LN5@GetFindCha@7

; 609  : 				continue;
; 610  : 			break;

  00159	eb 0d		 jmp	 SHORT $LN114@GetFindCha@7
$LN6@GetFindCha@7:

; 611  : 		case CS_ETC_STATE:
; 612  : 		case CS_USING_SKILL:
; 613  : 			if( pChar->IsApplyDownState(false) && !m_bDownTarget )

  0015b	6a 00		 push	 0
  0015d	8b ce		 mov	 ecx, esi
  0015f	e8 00 00 00 00	 call	 ?IsApplyDownState@ioBaseChar@@QAE_N_N@Z ; ioBaseChar::IsApplyDownState
  00164	84 c0		 test	 al, al
  00166	74 0a		 je	 SHORT $LN5@GetFindCha@7
$LN114@GetFindCha@7:
  00168	80 7b 14 00	 cmp	 BYTE PTR [ebx+20], 0
  0016c	0f 84 d3 01 00
	00		 je	 $LN16@GetFindCha@7
$LN5@GetFindCha@7:

; 614  : 				continue;
; 615  : 			break;
; 616  : 		}
; 617  : 
; 618  : 		vDiff = pChar->GetWorldPosition() - vOwnerPos;

  00172	8b 06		 mov	 eax, DWORD PTR [esi]
  00174	8b ce		 mov	 ecx, esi
  00176	ff 50 70	 call	 DWORD PTR [eax+112]
  00179	f3 0f 10 00	 movss	 xmm0, DWORD PTR [eax]
  0017d	f3 0f 10 4d c0	 movss	 xmm1, DWORD PTR _vOwnerPos$[ebp]
  00182	f3 0f 10 55 c4	 movss	 xmm2, DWORD PTR _vOwnerPos$[ebp+4]
  00187	f3 0f 10 5d c8	 movss	 xmm3, DWORD PTR _vOwnerPos$[ebp+8]
  0018c	0f 5a c9	 cvtps2pd xmm1, xmm1
  0018f	0f 5a c0	 cvtps2pd xmm0, xmm0
  00192	f2 0f 5c c1	 subsd	 xmm0, xmm1
  00196	f3 0f 10 48 04	 movss	 xmm1, DWORD PTR [eax+4]
  0019b	0f 5a c9	 cvtps2pd xmm1, xmm1
  0019e	0f 5a d2	 cvtps2pd xmm2, xmm2
  001a1	f2 0f 5c ca	 subsd	 xmm1, xmm2
  001a5	f3 0f 10 50 08	 movss	 xmm2, DWORD PTR [eax+8]
  001aa	66 0f 5a c0	 cvtpd2ps xmm0, xmm0
  001ae	f3 0f 11 45 b4	 movss	 DWORD PTR $T542242[ebp], xmm0
  001b3	66 0f 5a c9	 cvtpd2ps xmm1, xmm1
  001b7	f3 0f 11 4d b8	 movss	 DWORD PTR $T542242[ebp+4], xmm1
  001bc	0f 5a d2	 cvtps2pd xmm2, xmm2
  001bf	0f 5a db	 cvtps2pd xmm3, xmm3
  001c2	f2 0f 5c d3	 subsd	 xmm2, xmm3
  001c6	66 0f 5a d2	 cvtpd2ps xmm2, xmm2
  001ca	f3 0f 11 55 bc	 movss	 DWORD PTR $T542242[ebp+8], xmm2

; 619  : 
; 620  : 		fCurAngleRate = D3DXVec3LengthSq( &vDiff ) / m_fRangeSq;

  001cf	f3 0f 5a c0	 cvtss2sd xmm0, xmm0
  001d3	f3 0f 5a c9	 cvtss2sd xmm1, xmm1
  001d7	f2 0f 59 c0	 mulsd	 xmm0, xmm0
  001db	8d 75 b4	 lea	 esi, DWORD PTR $T542242[ebp]
  001de	8d 7d f0	 lea	 edi, DWORD PTR _vDiff$[ebp]
  001e1	a5		 movsd
  001e2	f2 0f 59 c9	 mulsd	 xmm1, xmm1
  001e6	f2 0f 58 c8	 addsd	 xmm1, xmm0
  001ea	0f 57 c0	 xorps	 xmm0, xmm0
  001ed	f3 0f 5a d2	 cvtss2sd xmm2, xmm2
  001f1	f2 0f 59 d2	 mulsd	 xmm2, xmm2
  001f5	f2 0f 58 ca	 addsd	 xmm1, xmm2
  001f9	66 0f 5a c1	 cvtpd2ps xmm0, xmm1
  001fd	f3 0f 10 4b 10	 movss	 xmm1, DWORD PTR [ebx+16]
  00202	a5		 movsd
  00203	0f 5a c0	 cvtps2pd xmm0, xmm0
  00206	0f 5a c9	 cvtps2pd xmm1, xmm1
  00209	f2 0f 5e c1	 divsd	 xmm0, xmm1
  0020d	66 0f 5a c0	 cvtpd2ps xmm0, xmm0
  00211	a5		 movsd
  00212	f3 0f 11 45 d4	 movss	 DWORD PTR _fCurAngleRate$[ebp], xmm0

; 621  : 		fCurAngle = m_fMinAngle * fCurAngleRate + m_fMaxAngle * (FLOAT1 - fCurAngleRate );

  00217	b8 01 00 00 00	 mov	 eax, 1
  0021c	89 45 ec	 mov	 DWORD PTR tv773[ebp], eax
  0021f	db 45 ec	 fild	 DWORD PTR tv773[ebp]
  00222	85 c0		 test	 eax, eax
  00224	79 06		 jns	 SHORT $LN109@GetFindCha@7
  00226	d8 05 00 00 00
	00		 fadd	 DWORD PTR __real@4f800000
$LN109@GetFindCha@7:
  0022c	d8 65 d4	 fsub	 DWORD PTR _fCurAngleRate$[ebp]
  0022f	d8 4b 0c	 fmul	 DWORD PTR [ebx+12]
  00232	d9 43 08	 fld	 DWORD PTR [ebx+8]
  00235	d8 4d d4	 fmul	 DWORD PTR _fCurAngleRate$[ebp]
  00238	de c1		 faddp	 ST(1), ST(0)
  0023a	d9 5d ec	 fstp	 DWORD PTR _fCurAngle$[ebp]

; 622  : 		fHalfCosine = cosf( DEGtoRAD( fCurAngle ) * FLOAT05 );

  0023d	b8 05 00 00 00	 mov	 eax, 5
  00242	8b c8		 mov	 ecx, eax
  00244	b8 0a 00 00 00	 mov	 eax, 10			; 0000000aH
  00249	89 4d dc	 mov	 DWORD PTR tv765[ebp], ecx
  0024c	db 45 dc	 fild	 DWORD PTR tv765[ebp]
  0024f	85 c9		 test	 ecx, ecx
  00251	79 06		 jns	 SHORT $LN110@GetFindCha@7
  00253	d8 05 00 00 00
	00		 fadd	 DWORD PTR __real@4f800000
$LN110@GetFindCha@7:
  00259	89 45 dc	 mov	 DWORD PTR tv761[ebp], eax
  0025c	db 45 dc	 fild	 DWORD PTR tv761[ebp]
  0025f	85 c0		 test	 eax, eax
  00261	79 06		 jns	 SHORT $LN111@GetFindCha@7
  00263	d8 05 00 00 00
	00		 fadd	 DWORD PTR __real@4f800000
$LN111@GetFindCha@7:
  00269	de f9		 fdivp	 ST(1), ST(0)
  0026b	d9 5d dc	 fstp	 DWORD PTR tv757[ebp]
  0026e	d9 45 dc	 fld	 DWORD PTR tv757[ebp]
  00271	d9 45 ec	 fld	 DWORD PTR _fCurAngle$[ebp]
  00274	dc 0d 00 00 00
	00		 fmul	 QWORD PTR __real@3f91df46a2526c7a
  0027a	d9 5d ec	 fstp	 DWORD PTR tv753[ebp]
  0027d	d8 4d ec	 fmul	 DWORD PTR tv753[ebp]
  00280	d9 5d ec	 fstp	 DWORD PTR tv751[ebp]
  00283	d9 45 ec	 fld	 DWORD PTR tv751[ebp]
  00286	e8 00 00 00 00	 call	 __CIcos
  0028b	d9 5d ec	 fstp	 DWORD PTR tv745[ebp]
  0028e	d9 45 ec	 fld	 DWORD PTR tv745[ebp]

; 623  : 
; 624  : 		float fLengthSq = D3DXVec3LengthSq( &vDiff );
; 625  : 		vDiff.y = 0.0f;

  00291	0f 57 c0	 xorps	 xmm0, xmm0

; 626  : 		D3DXVec3Normalize( &vDiff, &vDiff );

  00294	8d 45 f0	 lea	 eax, DWORD PTR _vDiff$[ebp]
  00297	d9 5d ec	 fstp	 DWORD PTR _fHalfCosine$[ebp]
  0029a	50		 push	 eax
  0029b	50		 push	 eax
  0029c	f3 0f 11 45 f4	 movss	 DWORD PTR _vDiff$[ebp+4], xmm0
  002a1	e8 00 00 00 00	 call	 _D3DXVec3Normalize@8

; 627  : 
; 628  : 		if( D3DXVec3Dot( &vCharDir, &vDiff ) >= fHalfCosine )

  002a6	f3 0f 10 4d f0	 movss	 xmm1, DWORD PTR _vDiff$[ebp]
  002ab	f3 0f 10 45 a8	 movss	 xmm0, DWORD PTR _vCharDir$[ebp]
  002b0	f3 0f 10 55 f4	 movss	 xmm2, DWORD PTR _vDiff$[ebp+4]
  002b5	0f 5a c9	 cvtps2pd xmm1, xmm1
  002b8	0f 5a c0	 cvtps2pd xmm0, xmm0
  002bb	f2 0f 59 c1	 mulsd	 xmm0, xmm1
  002bf	f3 0f 10 4d ac	 movss	 xmm1, DWORD PTR _vCharDir$[ebp+4]
  002c4	0f 5a c9	 cvtps2pd xmm1, xmm1
  002c7	0f 5a d2	 cvtps2pd xmm2, xmm2
  002ca	f2 0f 59 ca	 mulsd	 xmm1, xmm2
  002ce	f3 0f 10 55 f8	 movss	 xmm2, DWORD PTR _vDiff$[ebp+8]
  002d3	f2 0f 58 c1	 addsd	 xmm0, xmm1
  002d7	f3 0f 10 4d b0	 movss	 xmm1, DWORD PTR _vCharDir$[ebp+8]
  002dc	0f 5a c9	 cvtps2pd xmm1, xmm1
  002df	0f 5a d2	 cvtps2pd xmm2, xmm2
  002e2	f2 0f 59 ca	 mulsd	 xmm1, xmm2
  002e6	f2 0f 58 c1	 addsd	 xmm0, xmm1
  002ea	f2 0f 5a c0	 cvtsd2ss xmm0, xmm0
  002ee	0f 57 c9	 xorps	 xmm1, xmm1
  002f1	f3 0f 5a c8	 cvtss2sd xmm1, xmm0
  002f5	f3 0f 10 45 ec	 movss	 xmm0, DWORD PTR _fHalfCosine$[ebp]
  002fa	0f 5a d0	 cvtps2pd xmm2, xmm0
  002fd	66 0f 2f ca	 comisd	 xmm1, xmm2
  00301	72 42		 jb	 SHORT $LN16@GetFindCha@7

; 629  : 		{
; 630  : 			if( fCheckAngle == -FLOAT1 )

  00303	b8 01 00 00 00	 mov	 eax, 1
  00308	d9 45 e0	 fld	 DWORD PTR _fCheckAngle$[ebp]
  0030b	89 45 ec	 mov	 DWORD PTR tv728[ebp], eax
  0030e	db 45 ec	 fild	 DWORD PTR tv728[ebp]
  00311	85 c0		 test	 eax, eax
  00313	79 06		 jns	 SHORT $LN112@GetFindCha@7
  00315	d8 05 00 00 00
	00		 fadd	 DWORD PTR __real@4f800000
$LN112@GetFindCha@7:
  0031b	d9 e0		 fchs
  0031d	d9 c9		 fxch	 ST(1)
  0031f	df e9		 fucomip ST(1)
  00321	dd d8		 fstp	 ST(0)
  00323	9f		 lahf
  00324	f6 c4 44	 test	 ah, 68			; 00000044H

; 631  : 			{
; 632  : 				fCheckAngle = fHalfCosine;
; 633  : 				pTarget = pChar;

  00327	7b 11		 jnp	 SHORT $LN115@GetFindCha@7

; 634  : 			}
; 635  : 			else if( fHalfCosine < fCheckAngle )

  00329	f3 0f 10 55 e0	 movss	 xmm2, DWORD PTR _fCheckAngle$[ebp]
  0032e	0f 5a c8	 cvtps2pd xmm1, xmm0
  00331	0f 5a d2	 cvtps2pd xmm2, xmm2
  00334	66 0f 2f d1	 comisd	 xmm2, xmm1
  00338	76 0b		 jbe	 SHORT $LN16@GetFindCha@7
$LN115@GetFindCha@7:

; 636  : 			{
; 637  : 				fCheckAngle = fHalfCosine;
; 638  : 				pTarget = pChar;

  0033a	8b 45 e4	 mov	 eax, DWORD PTR _pChar$542228[ebp]
  0033d	89 45 d8	 mov	 DWORD PTR _pTarget$[ebp], eax
  00340	f3 0f 11 45 e0	 movss	 DWORD PTR _fCheckAngle$[ebp], xmm0
$LN16@GetFindCha@7:

; 587  : 	for( ; iter!=m_vAngleSortList.end() ; ++iter )

  00345	8b 45 e8	 mov	 eax, DWORD PTR _iter$[ebp]
  00348	83 c0 08	 add	 eax, 8
$LN113@GetFindCha@7:
  0034b	89 45 e8	 mov	 DWORD PTR _iter$[ebp], eax
  0034e	3b 05 04 00 00
	00		 cmp	 eax, DWORD PTR ?m_vAngleSortList@FindPredicate@@1V?$vector@UCharAngle@FindPredicate@@V?$allocator@UCharAngle@FindPredicate@@@std@@@std@@A+4
  00354	0f 85 81 fd ff
	ff		 jne	 $LL105@GetFindCha@7

; 639  : 			}
; 640  : 		}
; 641  : 	}
; 642  : 
; 643  : 	return pTarget;

  0035a	8b 45 d8	 mov	 eax, DWORD PTR _pTarget$[ebp]
  0035d	5f		 pop	 edi
$LN19@GetFindCha@7:

; 644  : }

  0035e	8b 4d fc	 mov	 ecx, DWORD PTR __$ArrayPad$[ebp]
  00361	5e		 pop	 esi
  00362	33 cd		 xor	 ecx, ebp
  00364	5b		 pop	 ebx
  00365	e8 00 00 00 00	 call	 @__security_check_cookie@4
  0036a	c9		 leave
  0036b	c2 04 00	 ret	 4
?GetFindChar@FD_GrapplingAutoTarget@@UAEPAVioBaseChar@@ABV?$vector@PAVioBaseChar@@V?$allocator@PAVioBaseChar@@@std@@@std@@@Z ENDP ; FD_GrapplingAutoTarget::GetFindChar
_TEXT	ENDS
EXTRN	?CheckTargetState@FindPredicateUtil@@YA_NPAVioBaseChar@@_N1@Z:PROC ; FindPredicateUtil::CheckTargetState
; Function compile flags: /Ogsp
;	COMDAT ?GetFindChar@FD_RangeTarget@@UAEPAVioBaseChar@@ABV?$vector@PAVioBaseChar@@V?$allocator@PAVioBaseChar@@@std@@@std@@@Z
_TEXT	SEGMENT
_value$547771 = -16					; size = 4
_value$547758 = -12					; size = 4
_value$547744 = -8					; size = 4
_value$547731 = -4					; size = 4
_iter$ = 8						; size = 4
_rkCandidateList$ = 8					; size = 4
?GetFindChar@FD_RangeTarget@@UAEPAVioBaseChar@@ABV?$vector@PAVioBaseChar@@V?$allocator@PAVioBaseChar@@@std@@@std@@@Z PROC ; FD_RangeTarget::GetFindChar, COMDAT
; _this$ = ecx

; 662  : {

  00000	55		 push	 ebp
  00001	8b ec		 mov	 ebp, esp
  00003	83 ec 10	 sub	 esp, 16			; 00000010H
  00006	56		 push	 esi
  00007	8b f1		 mov	 esi, ecx

; 663  : 	if( IsExperienceOwner() )

  00009	e8 00 00 00 00	 call	 ?IsExperienceOwner@FindPredicate@@IAE_NXZ ; FindPredicate::IsExperienceOwner
  0000e	84 c0		 test	 al, al
  00010	74 07		 je	 SHORT $LN9@GetFindCha@8

; 664  : 		return NULL;

  00012	33 c0		 xor	 eax, eax
  00014	e9 e6 00 00 00	 jmp	 $LN10@GetFindCha@8
$LN9@GetFindCha@8:

; 665  : 
; 666  : 	MakeMostCloseSortList( rkCandidateList, m_fMinRange*m_fMinRange, m_fMaxRange*m_fMaxRange );

  00019	f3 0f 10 46 08	 movss	 xmm0, DWORD PTR [esi+8]
  0001e	f3 0f 10 4e 0c	 movss	 xmm1, DWORD PTR [esi+12]
  00023	53		 push	 ebx
  00024	0f 5a c0	 cvtps2pd xmm0, xmm0
  00027	57		 push	 edi
  00028	f2 0f 59 c0	 mulsd	 xmm0, xmm0
  0002c	66 0f 5a c0	 cvtpd2ps xmm0, xmm0
  00030	51		 push	 ecx
  00031	51		 push	 ecx
  00032	f3 0f 11 44 24
	04		 movss	 DWORD PTR [esp+4], xmm0
  00038	0f 5a c9	 cvtps2pd xmm1, xmm1
  0003b	f2 0f 59 c9	 mulsd	 xmm1, xmm1
  0003f	66 0f 5a c1	 cvtpd2ps xmm0, xmm1
  00043	f3 0f 11 04 24	 movss	 DWORD PTR [esp], xmm0
  00048	ff 75 08	 push	 DWORD PTR _rkCandidateList$[ebp]
  0004b	8b ce		 mov	 ecx, esi
  0004d	e8 00 00 00 00	 call	 ?MakeMostCloseSortList@FindPredicate@@IAEXABV?$vector@PAVioBaseChar@@V?$allocator@PAVioBaseChar@@@std@@@std@@MM@Z ; FindPredicate::MakeMostCloseSortList

; 667  : 	
; 668  : 	CharDistanceList::iterator iter;
; 669  : 	for( iter=m_vDistanceSortList.begin() ; iter!=m_vDistanceSortList.end() ; ++iter )

  00052	a1 00 00 00 00	 mov	 eax, DWORD PTR ?m_vDistanceSortList@FindPredicate@@1V?$vector@UCharDistanceSq@FindPredicate@@V?$allocator@UCharDistanceSq@FindPredicate@@@std@@@std@@A
  00057	89 45 08	 mov	 DWORD PTR _iter$[ebp], eax
  0005a	3b 05 04 00 00
	00		 cmp	 eax, DWORD PTR ?m_vDistanceSortList@FindPredicate@@1V?$vector@UCharDistanceSq@FindPredicate@@V?$allocator@UCharDistanceSq@FindPredicate@@@std@@@std@@A+4
  00060	0f 84 95 00 00
	00		 je	 $LN6@GetFindCha@8
  00066	bb 90 00 00 00	 mov	 ebx, 144		; 00000090H
  0006b	eb 03		 jmp	 SHORT $LN26@GetFindCha@8
$LL68@GetFindCha@8:
  0006d	8b 45 08	 mov	 eax, DWORD PTR _iter$[ebp]
$LN26@GetFindCha@8:

; 670  : 	{
; 671  : 		ioBaseChar *pChar = iter->pChar;

  00070	8b 38		 mov	 edi, DWORD PTR [eax]

; 672  : 		CharState eState = pChar->GetState();
; 673  : 
; 674  : 		if( !FindPredicateUtil::CheckTargetState( pChar, m_bDownAim ) )

  00072	0f b6 46 11	 movzx	 eax, BYTE PTR [esi+17]
  00076	6a 01		 push	 1
  00078	50		 push	 eax
  00079	57		 push	 edi
  0007a	e8 00 00 00 00	 call	 ?CheckTargetState@FindPredicateUtil@@YA_NPAVioBaseChar@@_N1@Z ; FindPredicateUtil::CheckTargetState
  0007f	83 c4 0c	 add	 esp, 12			; 0000000cH
  00082	84 c0		 test	 al, al
  00084	74 62		 je	 SHORT $LN7@GetFindCha@8

; 675  : 			continue;
; 676  : 
; 677  : 		if( m_bOwnerTeam && pChar->GetTeam() == m_pOwner->GetTeam() )

  00086	80 7e 10 00	 cmp	 BYTE PTR [esi+16], 0
  0008a	74 2b		 je	 SHORT $LN72@GetFindCha@8
  0008c	8d 45 fc	 lea	 eax, DWORD PTR _value$547731[ebp]
  0008f	50		 push	 eax
  00090	8d 8f 90 00 00
	00		 lea	 ecx, DWORD PTR [edi+144]
  00096	e8 00 00 00 00	 call	 ?DecryptValueToPool@?$CEncrypt@W4TeamType@@@@QAEXPAW4TeamType@@@Z ; CEncrypt<enum TeamType>::DecryptValueToPool
  0009b	8b 4e 04	 mov	 ecx, DWORD PTR [esi+4]
  0009e	8d 45 f8	 lea	 eax, DWORD PTR _value$547744[ebp]
  000a1	50		 push	 eax
  000a2	03 cb		 add	 ecx, ebx
  000a4	e8 00 00 00 00	 call	 ?DecryptValueToPool@?$CEncrypt@W4TeamType@@@@QAEXPAW4TeamType@@@Z ; CEncrypt<enum TeamType>::DecryptValueToPool
  000a9	8b 45 fc	 mov	 eax, DWORD PTR _value$547731[ebp]
  000ac	3b 45 f8	 cmp	 eax, DWORD PTR _value$547744[ebp]
  000af	74 37		 je	 SHORT $LN7@GetFindCha@8

; 678  : 			continue;
; 679  : 
; 680  : 		else if(!m_bOwnerTeam && pChar->GetTeam() != m_pOwner->GetTeam() )

  000b1	80 7e 10 00	 cmp	 BYTE PTR [esi+16], 0
  000b5	75 25		 jne	 SHORT $LN2@GetFindCha@8
$LN72@GetFindCha@8:
  000b7	8d 45 f4	 lea	 eax, DWORD PTR _value$547758[ebp]
  000ba	50		 push	 eax
  000bb	8d 8f 90 00 00
	00		 lea	 ecx, DWORD PTR [edi+144]
  000c1	e8 00 00 00 00	 call	 ?DecryptValueToPool@?$CEncrypt@W4TeamType@@@@QAEXPAW4TeamType@@@Z ; CEncrypt<enum TeamType>::DecryptValueToPool
  000c6	8b 4e 04	 mov	 ecx, DWORD PTR [esi+4]
  000c9	8d 45 f0	 lea	 eax, DWORD PTR _value$547771[ebp]
  000cc	50		 push	 eax
  000cd	03 cb		 add	 ecx, ebx
  000cf	e8 00 00 00 00	 call	 ?DecryptValueToPool@?$CEncrypt@W4TeamType@@@@QAEXPAW4TeamType@@@Z ; CEncrypt<enum TeamType>::DecryptValueToPool
  000d4	8b 45 f4	 mov	 eax, DWORD PTR _value$547758[ebp]
  000d7	3b 45 f0	 cmp	 eax, DWORD PTR _value$547771[ebp]
  000da	75 0c		 jne	 SHORT $LN7@GetFindCha@8
$LN2@GetFindCha@8:

; 681  : 			continue;
; 682  : 
; 683  : 		if( !CheckFindUser( pChar ) )

  000dc	8b 06		 mov	 eax, DWORD PTR [esi]
  000de	57		 push	 edi
  000df	8b ce		 mov	 ecx, esi
  000e1	ff 50 08	 call	 DWORD PTR [eax+8]
  000e4	84 c0		 test	 al, al
  000e6	75 1c		 jne	 SHORT $LN1@GetFindCha@8
$LN7@GetFindCha@8:

; 667  : 	
; 668  : 	CharDistanceList::iterator iter;
; 669  : 	for( iter=m_vDistanceSortList.begin() ; iter!=m_vDistanceSortList.end() ; ++iter )

  000e8	83 45 08 08	 add	 DWORD PTR _iter$[ebp], 8
  000ec	8b 45 08	 mov	 eax, DWORD PTR _iter$[ebp]
  000ef	3b 05 04 00 00
	00		 cmp	 eax, DWORD PTR ?m_vDistanceSortList@FindPredicate@@1V?$vector@UCharDistanceSq@FindPredicate@@V?$allocator@UCharDistanceSq@FindPredicate@@@std@@@std@@A+4
  000f5	0f 85 72 ff ff
	ff		 jne	 $LL68@GetFindCha@8
$LN6@GetFindCha@8:

; 687  : 	}
; 688  : 
; 689  : 	return NULL;

  000fb	33 c0		 xor	 eax, eax
$LN69@GetFindCha@8:
  000fd	5f		 pop	 edi
  000fe	5b		 pop	 ebx
$LN10@GetFindCha@8:
  000ff	5e		 pop	 esi

; 690  : }

  00100	c9		 leave
  00101	c2 04 00	 ret	 4
$LN1@GetFindCha@8:

; 684  : 			continue;
; 685  : 
; 686  : 		return pChar;

  00104	8b c7		 mov	 eax, edi
  00106	eb f5		 jmp	 SHORT $LN69@GetFindCha@8
?GetFindChar@FD_RangeTarget@@UAEPAVioBaseChar@@ABV?$vector@PAVioBaseChar@@V?$allocator@PAVioBaseChar@@@std@@@std@@@Z ENDP ; FD_RangeTarget::GetFindChar
_TEXT	ENDS
PUBLIC	?erase@?$vector@PAVioBaseChar@@V?$allocator@PAVioBaseChar@@@std@@@std@@QAE?AV?$_Vector_iterator@V?$_Vector_val@PAVioBaseChar@@V?$allocator@PAVioBaseChar@@@std@@@std@@@2@V?$_Vector_const_iterator@V?$_Vector_val@PAVioBaseChar@@V?$allocator@PAVioBaseChar@@@std@@@std@@@2@0@Z ; std::vector<ioBaseChar *,std::allocator<ioBaseChar *> >::erase
; Function compile flags: /Ogsp
; File c:\program files (x86)\microsoft visual studio 10.0\vc\include\vector
;	COMDAT ?erase@?$vector@PAVioBaseChar@@V?$allocator@PAVioBaseChar@@@std@@@std@@QAE?AV?$_Vector_iterator@V?$_Vector_val@PAVioBaseChar@@V?$allocator@PAVioBaseChar@@@std@@@std@@@2@V?$_Vector_const_iterator@V?$_Vector_val@PAVioBaseChar@@V?$allocator@PAVioBaseChar@@@std@@@std@@@2@0@Z
_TEXT	SEGMENT
___$ReturnUdt$ = 8					; size = 4
__First_arg$ = 12					; size = 4
__Cat$547855 = 16					; size = 1
__Last_arg$ = 16					; size = 4
?erase@?$vector@PAVioBaseChar@@V?$allocator@PAVioBaseChar@@@std@@@std@@QAE?AV?$_Vector_iterator@V?$_Vector_val@PAVioBaseChar@@V?$allocator@PAVioBaseChar@@@std@@@std@@@2@V?$_Vector_const_iterator@V?$_Vector_val@PAVioBaseChar@@V?$allocator@PAVioBaseChar@@@std@@@std@@@2@0@Z PROC ; std::vector<ioBaseChar *,std::allocator<ioBaseChar *> >::erase, COMDAT
; _this$ = ecx

; 1190 : 		{	// erase [_First, _Last)

  00000	55		 push	 ebp
  00001	8b ec		 mov	 ebp, esp

; 1191 : 		iterator _First = _Make_iter(_First_arg);

  00003	8b 45 0c	 mov	 eax, DWORD PTR __First_arg$[ebp]
  00006	56		 push	 esi
  00007	57		 push	 edi
  00008	8b 7d 08	 mov	 edi, DWORD PTR ___$ReturnUdt$[ebp]
  0000b	8b f1		 mov	 esi, ecx
  0000d	89 07		 mov	 DWORD PTR [edi], eax

; 1192 : 		iterator _Last = _Make_iter(_Last_arg);
; 1193 : 
; 1194 : 		if (_First != _Last)

  0000f	3b 45 10	 cmp	 eax, DWORD PTR __Last_arg$[ebp]
  00012	74 16		 je	 SHORT $LN1@erase

; 1195 : 			{	// worth doing, copy down over hole
; 1196 :  #if _ITERATOR_DEBUG_LEVEL == 2
; 1197 : 			if (_Last < _First || _VICONT(_First) != this
; 1198 : 				|| _VIPTR(_First) < this->_Myfirst
; 1199 : 				|| this->_Mylast < _VIPTR(_Last))
; 1200 : 				_DEBUG_ERROR("vector erase iterator outside range");
; 1201 : 			pointer _Ptr = _Move(_VIPTR(_Last), this->_Mylast,
; 1202 : 				_VIPTR(_First));
; 1203 : 			_Orphan_range(_VIPTR(_First), this->_Mylast);
; 1204 : 
; 1205 :  #else /* _ITERATOR_DEBUG_LEVEL == 2 */
; 1206 : 			pointer _Ptr = _Move(_VIPTR(_Last), this->_Mylast,
; 1207 : 				_VIPTR(_First));

  00014	ff 75 10	 push	 DWORD PTR __Cat$547855[ebp]
  00017	8b 4e 04	 mov	 ecx, DWORD PTR [esi+4]
  0001a	50		 push	 eax
  0001b	51		 push	 ecx
  0001c	ff 75 10	 push	 DWORD PTR __Last_arg$[ebp]
  0001f	e8 00 00 00 00	 call	 ??$_Move@PAPAVioBaseChar@@PAPAV1@@std@@YAPAPAVioBaseChar@@PAPAV1@00U_Scalar_ptr_iterator_tag@0@@Z ; std::_Move<ioBaseChar * *,ioBaseChar * *>
  00024	83 c4 10	 add	 esp, 16			; 00000010H

; 1208 :  #endif /* _ITERATOR_DEBUG_LEVEL == 2 */
; 1209 : 
; 1210 : 			_Destroy(_Ptr, this->_Mylast);
; 1211 : 			this->_Mylast = _Ptr;

  00027	89 46 04	 mov	 DWORD PTR [esi+4], eax
$LN1@erase:

; 1212 : 			}
; 1213 : 		return (_First);

  0002a	8b c7		 mov	 eax, edi
  0002c	5f		 pop	 edi
  0002d	5e		 pop	 esi

; 1214 : 		}

  0002e	5d		 pop	 ebp
  0002f	c2 0c 00	 ret	 12			; 0000000cH
?erase@?$vector@PAVioBaseChar@@V?$allocator@PAVioBaseChar@@@std@@@std@@QAE?AV?$_Vector_iterator@V?$_Vector_val@PAVioBaseChar@@V?$allocator@PAVioBaseChar@@@std@@@std@@@2@V?$_Vector_const_iterator@V?$_Vector_val@PAVioBaseChar@@V?$allocator@PAVioBaseChar@@@std@@@std@@@2@0@Z ENDP ; std::vector<ioBaseChar *,std::allocator<ioBaseChar *> >::erase
_TEXT	ENDS
PUBLIC	?reserve@?$vector@PAVioBaseChar@@V?$allocator@PAVioBaseChar@@@std@@@std@@QAEXI@Z ; std::vector<ioBaseChar *,std::allocator<ioBaseChar *> >::reserve
EXTRN	__imp_?_Orphan_all@_Container_base0@std@@QAEXXZ:PROC
; Function compile flags: /Ogsp
;	COMDAT ?reserve@?$vector@PAVioBaseChar@@V?$allocator@PAVioBaseChar@@@std@@@std@@QAEXI@Z
_TEXT	SEGMENT
__Count$ = 8						; size = 4
?reserve@?$vector@PAVioBaseChar@@V?$allocator@PAVioBaseChar@@@std@@@std@@QAEXI@Z PROC ; std::vector<ioBaseChar *,std::allocator<ioBaseChar *> >::reserve, COMDAT
; _this$ = ecx

; 746  : 		{	// determine new minimum length of allocated storage

  00000	55		 push	 ebp
  00001	8b ec		 mov	 ebp, esp

; 747  : 		if (max_size() < _Count)

  00003	81 7d 08 ff ff
	ff 3f		 cmp	 DWORD PTR __Count$[ebp], 1073741823 ; 3fffffffH
  0000a	56		 push	 esi
  0000b	8b f1		 mov	 esi, ecx
  0000d	76 0b		 jbe	 SHORT $LN5@reserve

; 748  : 			_Xlen();	// result too long

  0000f	68 00 00 00 00	 push	 OFFSET ??_C@_0BD@OLBABOEK@vector?$DMT?$DO?5too?5long?$AA@
  00014	ff 15 00 00 00
	00		 call	 DWORD PTR __imp_?_Xlength_error@std@@YAXPBD@Z
$LN43@reserve:
$LN5@reserve:

; 749  : 		else if (capacity() < _Count)

  0001a	8b 46 08	 mov	 eax, DWORD PTR [esi+8]
  0001d	2b 06		 sub	 eax, DWORD PTR [esi]
  0001f	c1 f8 02	 sar	 eax, 2
  00022	3b 45 08	 cmp	 eax, DWORD PTR __Count$[ebp]
  00025	73 52		 jae	 SHORT $LN3@reserve

; 750  : 			{	// not enough room, reallocate
; 751  : 			pointer _Ptr = this->_Alval.allocate(_Count);

  00027	53		 push	 ebx
  00028	57		 push	 edi
  00029	6a 00		 push	 0
  0002b	ff 75 08	 push	 DWORD PTR __Count$[ebp]
  0002e	e8 00 00 00 00	 call	 ??$_Allocate@PAVioBaseChar@@@std@@YAPAPAVioBaseChar@@IPAPAV1@@Z ; std::_Allocate<ioBaseChar *>

; 752  : 
; 753  : 			_TRY_BEGIN
; 754  : 			_Umove(this->_Myfirst, this->_Mylast, _Ptr);

  00033	8b 0e		 mov	 ecx, DWORD PTR [esi]
  00035	8d 56 0c	 lea	 edx, DWORD PTR [esi+12]
  00038	52		 push	 edx
  00039	8b d8		 mov	 ebx, eax
  0003b	8b 46 04	 mov	 eax, DWORD PTR [esi+4]
  0003e	53		 push	 ebx
  0003f	50		 push	 eax
  00040	51		 push	 ecx
  00041	e8 00 00 00 00	 call	 ??$_Uninitialized_move@PAPAVioBaseChar@@PAPAV1@V?$allocator@PAVioBaseChar@@@std@@@std@@YAPAPAVioBaseChar@@PAPAV1@00AAV?$allocator@PAVioBaseChar@@@0@@Z ; std::_Uninitialized_move<ioBaseChar * *,ioBaseChar * *,std::allocator<ioBaseChar *> >

; 755  : 			_CATCH_ALL
; 756  : 			this->_Alval.deallocate(_Ptr, _Count);
; 757  : 			_RERAISE;
; 758  : 			_CATCH_END
; 759  : 
; 760  : 			size_type _Size = size();

  00046	8b 06		 mov	 eax, DWORD PTR [esi]
  00048	8b 7e 04	 mov	 edi, DWORD PTR [esi+4]
  0004b	2b f8		 sub	 edi, eax
  0004d	83 c4 18	 add	 esp, 24			; 00000018H
  00050	c1 ff 02	 sar	 edi, 2

; 761  : 			if (this->_Myfirst != 0)

  00053	85 c0		 test	 eax, eax
  00055	74 07		 je	 SHORT $LN39@reserve

; 762  : 				{	// destroy and deallocate old array
; 763  : 				_Destroy(this->_Myfirst, this->_Mylast);
; 764  : 				this->_Alval.deallocate(this->_Myfirst,
; 765  : 					this->_Myend - this->_Myfirst);

  00057	50		 push	 eax
  00058	e8 00 00 00 00	 call	 ??3@YAXPAX@Z		; operator delete
  0005d	59		 pop	 ecx
$LN39@reserve:

; 766  : 				}
; 767  : 
; 768  : 			this->_Orphan_all();

  0005e	8b ce		 mov	 ecx, esi
  00060	ff 15 00 00 00
	00		 call	 DWORD PTR __imp_?_Orphan_all@_Container_base0@std@@QAEXXZ

; 769  : 			this->_Myend = _Ptr + _Count;

  00066	8b 45 08	 mov	 eax, DWORD PTR __Count$[ebp]
  00069	8d 04 83	 lea	 eax, DWORD PTR [ebx+eax*4]
  0006c	89 46 08	 mov	 DWORD PTR [esi+8], eax

; 770  : 			this->_Mylast = _Ptr + _Size;

  0006f	8d 04 bb	 lea	 eax, DWORD PTR [ebx+edi*4]
  00072	5f		 pop	 edi

; 771  : 			this->_Myfirst = _Ptr;

  00073	89 1e		 mov	 DWORD PTR [esi], ebx
  00075	89 46 04	 mov	 DWORD PTR [esi+4], eax
  00078	5b		 pop	 ebx
$LN3@reserve:
  00079	5e		 pop	 esi

; 772  : 			}
; 773  : 		}

  0007a	5d		 pop	 ebp
  0007b	c2 04 00	 ret	 4
$LN42@reserve:
?reserve@?$vector@PAVioBaseChar@@V?$allocator@PAVioBaseChar@@@std@@@std@@QAEXI@Z ENDP ; std::vector<ioBaseChar *,std::allocator<ioBaseChar *> >::reserve
_TEXT	ENDS
PUBLIC	??$_Insertion_sort1@PAUCharDistanceSq@FindPredicate@@VSightTargetSort@FD_SightTarget@@U12@@std@@YAXPAUCharDistanceSq@FindPredicate@@0VSightTargetSort@FD_SightTarget@@0@Z ; std::_Insertion_sort1<FindPredicate::CharDistanceSq *,FD_SightTarget::SightTargetSort,FindPredicate::CharDistanceSq>
; Function compile flags: /Ogsp
; File c:\program files (x86)\microsoft visual studio 10.0\vc\include\algorithm
;	COMDAT ??$_Insertion_sort1@PAUCharDistanceSq@FindPredicate@@VSightTargetSort@FD_SightTarget@@U12@@std@@YAXPAUCharDistanceSq@FindPredicate@@0VSightTargetSort@FD_SightTarget@@0@Z
_TEXT	SEGMENT
__Val$544076 = -12					; size = 8
__First1$544086 = -4					; size = 4
tv207 = 8						; size = 4
__First$ = 8						; size = 4
__Cat$547985 = 12					; size = 1
__Last$ = 12						; size = 4
__Pred$ = 16						; size = 4
___formal$ = 20						; size = 4
??$_Insertion_sort1@PAUCharDistanceSq@FindPredicate@@VSightTargetSort@FD_SightTarget@@U12@@std@@YAXPAUCharDistanceSq@FindPredicate@@0VSightTargetSort@FD_SightTarget@@0@Z PROC ; std::_Insertion_sort1<FindPredicate::CharDistanceSq *,FD_SightTarget::SightTargetSort,FindPredicate::CharDistanceSq>, COMDAT

; 3650 : 	{	// insertion sort [_First, _Last), using _Pred

  00000	55		 push	 ebp
  00001	8b ec		 mov	 ebp, esp
  00003	83 ec 0c	 sub	 esp, 12			; 0000000cH
  00006	53		 push	 ebx

; 3651 : 	if (_First != _Last)

  00007	8b 5d 08	 mov	 ebx, DWORD PTR __First$[ebp]
  0000a	3b 5d 0c	 cmp	 ebx, DWORD PTR __Last$[ebp]
  0000d	0f 84 92 00 00
	00		 je	 $LN6@Insertion_

; 3652 : 		for (_BidIt _Next = _First; ++_Next != _Last; )

  00013	56		 push	 esi
  00014	8d 73 08	 lea	 esi, DWORD PTR [ebx+8]
  00017	3b 75 0c	 cmp	 esi, DWORD PTR __Last$[ebp]
  0001a	0f 84 84 00 00
	00		 je	 $LN26@Insertion_
  00020	8d 46 f8	 lea	 eax, DWORD PTR [esi-8]
  00023	89 45 08	 mov	 DWORD PTR tv207[ebp], eax
  00026	57		 push	 edi
$LL7@Insertion_:

; 3653 : 			{	// order next element
; 3654 : 			_BidIt _Next1 = _Next;
; 3655 : 			_Ty _Val = _Move(*_Next);

  00027	8b 06		 mov	 eax, DWORD PTR [esi]
  00029	89 45 f4	 mov	 DWORD PTR __Val$544076[ebp], eax
  0002c	8b 46 04	 mov	 eax, DWORD PTR [esi+4]
  0002f	89 45 f8	 mov	 DWORD PTR __Val$544076[ebp+4], eax

; 3656 : 
; 3657 : 			if (_DEBUG_LT_PRED(_Pred, _Val, *_First))

  00032	53		 push	 ebx
  00033	8d 45 f4	 lea	 eax, DWORD PTR __Val$544076[ebp]
  00036	50		 push	 eax
  00037	8d 4d 10	 lea	 ecx, DWORD PTR __Pred$[ebp]
  0003a	8b fe		 mov	 edi, esi
  0003c	e8 00 00 00 00	 call	 ??RSightTargetSort@FD_SightTarget@@QBE_NABUCharDistanceSq@FindPredicate@@0@Z ; FD_SightTarget::SightTargetSort::operator()
  00041	84 c0		 test	 al, al

; 3658 : 				{	// found new earliest element, move to front
; 3659 : 				_Move_backward(_First, _Next, ++_Next1);

  00043	8b 45 08	 mov	 eax, DWORD PTR tv207[ebp]
  00046	74 30		 je	 SHORT $LN5@Insertion_
  00048	ff 75 0c	 push	 DWORD PTR __Cat$547985[ebp]
  0004b	83 c0 10	 add	 eax, 16			; 00000010H
  0004e	50		 push	 eax
  0004f	56		 push	 esi
  00050	53		 push	 ebx
  00051	e8 00 00 00 00	 call	 ??$_Move_backward@PAUCharDistanceSq@FindPredicate@@PAU12@@std@@YAPAUCharDistanceSq@FindPredicate@@PAU12@00U_Nonscalar_ptr_iterator_tag@0@@Z ; std::_Move_backward<FindPredicate::CharDistanceSq *,FindPredicate::CharDistanceSq *>

; 3660 : 				*_First = _Move(_Val);

  00056	8b 45 f4	 mov	 eax, DWORD PTR __Val$544076[ebp]
  00059	89 03		 mov	 DWORD PTR [ebx], eax
  0005b	8b 45 f8	 mov	 eax, DWORD PTR __Val$544076[ebp+4]
  0005e	83 c4 10	 add	 esp, 16			; 00000010H
  00061	89 43 04	 mov	 DWORD PTR [ebx+4], eax

; 3661 : 				}
; 3662 : 			else

  00064	eb 31		 jmp	 SHORT $LN4@Insertion_
$LL3@Insertion_:

; 3667 : 					*_Next1 = _Move(*_First1);	// move hole down

  00066	8b 45 fc	 mov	 eax, DWORD PTR __First1$544086[ebp]
  00069	8b 08		 mov	 ecx, DWORD PTR [eax]
  0006b	89 0f		 mov	 DWORD PTR [edi], ecx
  0006d	8b 48 04	 mov	 ecx, DWORD PTR [eax+4]
  00070	89 4f 04	 mov	 DWORD PTR [edi+4], ecx
  00073	8b f8		 mov	 edi, eax
  00075	83 e8 08	 sub	 eax, 8
$LN5@Insertion_:

; 3663 : 				{	// look for insertion point after first
; 3664 : 				for (_BidIt _First1 = _Next1;
; 3665 : 					_DEBUG_LT_PRED(_Pred, _Val, *--_First1);
; 3666 : 					_Next1 = _First1)

  00078	50		 push	 eax
  00079	89 45 fc	 mov	 DWORD PTR __First1$544086[ebp], eax
  0007c	8d 45 f4	 lea	 eax, DWORD PTR __Val$544076[ebp]
  0007f	50		 push	 eax
  00080	8d 4d 10	 lea	 ecx, DWORD PTR __Pred$[ebp]
  00083	e8 00 00 00 00	 call	 ??RSightTargetSort@FD_SightTarget@@QBE_NABUCharDistanceSq@FindPredicate@@0@Z ; FD_SightTarget::SightTargetSort::operator()
  00088	84 c0		 test	 al, al
  0008a	75 da		 jne	 SHORT $LL3@Insertion_

; 3668 : 				*_Next1 = _Move(_Val);	// insert element in hole

  0008c	8b 45 f4	 mov	 eax, DWORD PTR __Val$544076[ebp]
  0008f	89 07		 mov	 DWORD PTR [edi], eax
  00091	8b 45 f8	 mov	 eax, DWORD PTR __Val$544076[ebp+4]
  00094	89 47 04	 mov	 DWORD PTR [edi+4], eax
$LN4@Insertion_:

; 3652 : 		for (_BidIt _Next = _First; ++_Next != _Last; )

  00097	83 45 08 08	 add	 DWORD PTR tv207[ebp], 8
  0009b	83 c6 08	 add	 esi, 8
  0009e	3b 75 0c	 cmp	 esi, DWORD PTR __Last$[ebp]
  000a1	75 84		 jne	 SHORT $LL7@Insertion_
  000a3	5f		 pop	 edi
$LN26@Insertion_:
  000a4	5e		 pop	 esi
$LN6@Insertion_:
  000a5	5b		 pop	 ebx

; 3669 : 				}
; 3670 : 			}
; 3671 : 	}

  000a6	c9		 leave
  000a7	c3		 ret	 0
??$_Insertion_sort1@PAUCharDistanceSq@FindPredicate@@VSightTargetSort@FD_SightTarget@@U12@@std@@YAXPAUCharDistanceSq@FindPredicate@@0VSightTargetSort@FD_SightTarget@@0@Z ENDP ; std::_Insertion_sort1<FindPredicate::CharDistanceSq *,FD_SightTarget::SightTargetSort,FindPredicate::CharDistanceSq>
_TEXT	ENDS
PUBLIC	??$_Med3@PAUCharDistanceSq@FindPredicate@@VSightTargetSort@FD_SightTarget@@@std@@YAXPAUCharDistanceSq@FindPredicate@@00VSightTargetSort@FD_SightTarget@@@Z ; std::_Med3<FindPredicate::CharDistanceSq *,FD_SightTarget::SightTargetSort>
; Function compile flags: /Ogsp
;	COMDAT ??$_Med3@PAUCharDistanceSq@FindPredicate@@VSightTargetSort@FD_SightTarget@@@std@@YAXPAUCharDistanceSq@FindPredicate@@00VSightTargetSort@FD_SightTarget@@@Z
_TEXT	SEGMENT
__First$ = 8						; size = 4
__Mid$ = 12						; size = 4
__Last$ = 16						; size = 4
__Pred$ = 20						; size = 4
??$_Med3@PAUCharDistanceSq@FindPredicate@@VSightTargetSort@FD_SightTarget@@@std@@YAXPAUCharDistanceSq@FindPredicate@@00VSightTargetSort@FD_SightTarget@@@Z PROC ; std::_Med3<FindPredicate::CharDistanceSq *,FD_SightTarget::SightTargetSort>, COMDAT

; 3683 : 	{	// sort median of three elements to middle

  00000	55		 push	 ebp
  00001	8b ec		 mov	 ebp, esp
  00003	56		 push	 esi

; 3684 : 	if (_DEBUG_LT_PRED(_Pred, *_Mid, *_First))

  00004	8b 75 0c	 mov	 esi, DWORD PTR __Mid$[ebp]
  00007	57		 push	 edi
  00008	8b 7d 08	 mov	 edi, DWORD PTR __First$[ebp]
  0000b	57		 push	 edi
  0000c	56		 push	 esi
  0000d	8d 4d 14	 lea	 ecx, DWORD PTR __Pred$[ebp]
  00010	e8 00 00 00 00	 call	 ??RSightTargetSort@FD_SightTarget@@QBE_NABUCharDistanceSq@FindPredicate@@0@Z ; FD_SightTarget::SightTargetSort::operator()
  00015	84 c0		 test	 al, al
  00017	74 14		 je	 SHORT $LN8@Med3

; 3685 : 		_STD iter_swap(_Mid, _First);

  00019	8b 17		 mov	 edx, DWORD PTR [edi]
  0001b	8b 06		 mov	 eax, DWORD PTR [esi]
  0001d	8b 4e 04	 mov	 ecx, DWORD PTR [esi+4]
  00020	89 16		 mov	 DWORD PTR [esi], edx
  00022	8b 57 04	 mov	 edx, DWORD PTR [edi+4]
  00025	89 56 04	 mov	 DWORD PTR [esi+4], edx
  00028	89 07		 mov	 DWORD PTR [edi], eax
  0002a	89 4f 04	 mov	 DWORD PTR [edi+4], ecx
$LN8@Med3:

; 3686 : 	if (_DEBUG_LT_PRED(_Pred, *_Last, *_Mid))

  0002d	53		 push	 ebx
  0002e	8b 5d 10	 mov	 ebx, DWORD PTR __Last$[ebp]
  00031	56		 push	 esi
  00032	53		 push	 ebx
  00033	8d 4d 14	 lea	 ecx, DWORD PTR __Pred$[ebp]
  00036	e8 00 00 00 00	 call	 ??RSightTargetSort@FD_SightTarget@@QBE_NABUCharDistanceSq@FindPredicate@@0@Z ; FD_SightTarget::SightTargetSort::operator()
  0003b	84 c0		 test	 al, al
  0003d	74 14		 je	 SHORT $LN18@Med3

; 3687 : 		_STD iter_swap(_Last, _Mid);

  0003f	8b 16		 mov	 edx, DWORD PTR [esi]
  00041	8b 03		 mov	 eax, DWORD PTR [ebx]
  00043	8b 4b 04	 mov	 ecx, DWORD PTR [ebx+4]
  00046	89 13		 mov	 DWORD PTR [ebx], edx
  00048	8b 56 04	 mov	 edx, DWORD PTR [esi+4]
  0004b	89 53 04	 mov	 DWORD PTR [ebx+4], edx
  0004e	89 06		 mov	 DWORD PTR [esi], eax
  00050	89 4e 04	 mov	 DWORD PTR [esi+4], ecx
$LN18@Med3:

; 3688 : 	if (_DEBUG_LT_PRED(_Pred, *_Mid, *_First))

  00053	57		 push	 edi
  00054	56		 push	 esi
  00055	8d 4d 14	 lea	 ecx, DWORD PTR __Pred$[ebp]
  00058	e8 00 00 00 00	 call	 ??RSightTargetSort@FD_SightTarget@@QBE_NABUCharDistanceSq@FindPredicate@@0@Z ; FD_SightTarget::SightTargetSort::operator()
  0005d	5b		 pop	 ebx
  0005e	84 c0		 test	 al, al
  00060	74 14		 je	 SHORT $LN28@Med3

; 3689 : 		_STD iter_swap(_Mid, _First);

  00062	8b 17		 mov	 edx, DWORD PTR [edi]
  00064	8b 06		 mov	 eax, DWORD PTR [esi]
  00066	8b 4e 04	 mov	 ecx, DWORD PTR [esi+4]
  00069	89 16		 mov	 DWORD PTR [esi], edx
  0006b	8b 57 04	 mov	 edx, DWORD PTR [edi+4]
  0006e	89 56 04	 mov	 DWORD PTR [esi+4], edx
  00071	89 07		 mov	 DWORD PTR [edi], eax
  00073	89 4f 04	 mov	 DWORD PTR [edi+4], ecx
$LN28@Med3:
  00076	5f		 pop	 edi
  00077	5e		 pop	 esi

; 3690 : 	}

  00078	5d		 pop	 ebp
  00079	c3		 ret	 0
??$_Med3@PAUCharDistanceSq@FindPredicate@@VSightTargetSort@FD_SightTarget@@@std@@YAXPAUCharDistanceSq@FindPredicate@@00VSightTargetSort@FD_SightTarget@@@Z ENDP ; std::_Med3<FindPredicate::CharDistanceSq *,FD_SightTarget::SightTargetSort>
_TEXT	ENDS
PUBLIC	??$_Push_heap@PAUCharDistanceSq@FindPredicate@@HU12@VSightTargetSort@FD_SightTarget@@@std@@YAXPAUCharDistanceSq@FindPredicate@@HH$$QAU12@VSightTargetSort@FD_SightTarget@@@Z ; std::_Push_heap<FindPredicate::CharDistanceSq *,int,FindPredicate::CharDistanceSq,FD_SightTarget::SightTargetSort>
; Function compile flags: /Ogsp
;	COMDAT ??$_Push_heap@PAUCharDistanceSq@FindPredicate@@HU12@VSightTargetSort@FD_SightTarget@@@std@@YAXPAUCharDistanceSq@FindPredicate@@HH$$QAU12@VSightTargetSort@FD_SightTarget@@@Z
_TEXT	SEGMENT
__First$ = 8						; size = 4
__Hole$ = 12						; size = 4
__Top$ = 16						; size = 4
__Val$ = 20						; size = 4
__Pred$ = 24						; size = 4
??$_Push_heap@PAUCharDistanceSq@FindPredicate@@HU12@VSightTargetSort@FD_SightTarget@@@std@@YAXPAUCharDistanceSq@FindPredicate@@HH$$QAU12@VSightTargetSort@FD_SightTarget@@@Z PROC ; std::_Push_heap<FindPredicate::CharDistanceSq *,int,FindPredicate::CharDistanceSq,FD_SightTarget::SightTargetSort>, COMDAT

; 2455 : 	{	// percolate _Hole to _Top or where _Val belongs, using operator<

  00000	55		 push	 ebp
  00001	8b ec		 mov	 ebp, esp
  00003	53		 push	 ebx

; 2456 : 	for (_Diff _Idx = (_Hole - 1) / 2;
; 2457 : 		_Top < _Hole && _DEBUG_LT_PRED(_Pred, *(_First + _Idx), _Val);
; 2458 : 		_Idx = (_Hole - 1) / 2)

  00004	8b 5d 08	 mov	 ebx, DWORD PTR __First$[ebp]
  00007	56		 push	 esi
  00008	8b 75 0c	 mov	 esi, DWORD PTR __Hole$[ebp]
  0000b	8d 46 ff	 lea	 eax, DWORD PTR [esi-1]
  0000e	99		 cdq
  0000f	2b c2		 sub	 eax, edx
  00011	57		 push	 edi
  00012	8b f8		 mov	 edi, eax
  00014	d1 ff		 sar	 edi, 1
  00016	eb 2d		 jmp	 SHORT $LN12@Push_heap
$LL3@Push_heap:
  00018	ff 75 14	 push	 DWORD PTR __Val$[ebp]
  0001b	8d 04 fb	 lea	 eax, DWORD PTR [ebx+edi*8]
  0001e	50		 push	 eax
  0001f	8d 4d 18	 lea	 ecx, DWORD PTR __Pred$[ebp]
  00022	e8 00 00 00 00	 call	 ??RSightTargetSort@FD_SightTarget@@QBE_NABUCharDistanceSq@FindPredicate@@0@Z ; FD_SightTarget::SightTargetSort::operator()
  00027	84 c0		 test	 al, al
  00029	74 1f		 je	 SHORT $LN1@Push_heap

; 2459 : 		{	// move _Hole up to parent
; 2460 : 		*(_First + _Hole) = _Move(*(_First + _Idx));

  0002b	8b 04 fb	 mov	 eax, DWORD PTR [ebx+edi*8]
  0002e	89 04 f3	 mov	 DWORD PTR [ebx+esi*8], eax
  00031	8b 44 fb 04	 mov	 eax, DWORD PTR [ebx+edi*8+4]
  00035	89 44 f3 04	 mov	 DWORD PTR [ebx+esi*8+4], eax
  00039	8d 47 ff	 lea	 eax, DWORD PTR [edi-1]
  0003c	99		 cdq
  0003d	2b c2		 sub	 eax, edx
  0003f	d1 f8		 sar	 eax, 1

; 2461 : 		_Hole = _Idx;

  00041	8b f7		 mov	 esi, edi
  00043	8b f8		 mov	 edi, eax
$LN12@Push_heap:

; 2456 : 	for (_Diff _Idx = (_Hole - 1) / 2;
; 2457 : 		_Top < _Hole && _DEBUG_LT_PRED(_Pred, *(_First + _Idx), _Val);
; 2458 : 		_Idx = (_Hole - 1) / 2)

  00045	39 75 10	 cmp	 DWORD PTR __Top$[ebp], esi
  00048	7c ce		 jl	 SHORT $LL3@Push_heap
$LN1@Push_heap:

; 2462 : 		}
; 2463 : 
; 2464 : 	*(_First + _Hole) = _Move(_Val);	// drop _Val into final hole

  0004a	8b 45 14	 mov	 eax, DWORD PTR __Val$[ebp]
  0004d	8b 08		 mov	 ecx, DWORD PTR [eax]
  0004f	89 0c f3	 mov	 DWORD PTR [ebx+esi*8], ecx
  00052	8b 40 04	 mov	 eax, DWORD PTR [eax+4]
  00055	5f		 pop	 edi
  00056	89 44 f3 04	 mov	 DWORD PTR [ebx+esi*8+4], eax
  0005a	5e		 pop	 esi
  0005b	5b		 pop	 ebx

; 2465 : 	}

  0005c	5d		 pop	 ebp
  0005d	c3		 ret	 0
??$_Push_heap@PAUCharDistanceSq@FindPredicate@@HU12@VSightTargetSort@FD_SightTarget@@@std@@YAXPAUCharDistanceSq@FindPredicate@@HH$$QAU12@VSightTargetSort@FD_SightTarget@@@Z ENDP ; std::_Push_heap<FindPredicate::CharDistanceSq *,int,FindPredicate::CharDistanceSq,FD_SightTarget::SightTargetSort>
_TEXT	ENDS
PUBLIC	?clear@?$vector@PAVioBaseChar@@V?$allocator@PAVioBaseChar@@@std@@@std@@QAEXXZ ; std::vector<ioBaseChar *,std::allocator<ioBaseChar *> >::clear
; Function compile flags: /Ogsp
; File c:\program files (x86)\microsoft visual studio 10.0\vc\include\vector
;	COMDAT ?clear@?$vector@PAVioBaseChar@@V?$allocator@PAVioBaseChar@@@std@@@std@@QAEXXZ
_TEXT	SEGMENT
$T548114 = -4						; size = 4
?clear@?$vector@PAVioBaseChar@@V?$allocator@PAVioBaseChar@@@std@@@std@@QAEXXZ PROC ; std::vector<ioBaseChar *,std::allocator<ioBaseChar *> >::clear, COMDAT
; _this$ = ecx

; 1217 : 		{	// erase all

  00000	55		 push	 ebp
  00001	8b ec		 mov	 ebp, esp
  00003	51		 push	 ecx

; 1218 : 		erase(begin(), end());

  00004	8b 41 04	 mov	 eax, DWORD PTR [ecx+4]
  00007	8b 11		 mov	 edx, DWORD PTR [ecx]
  00009	50		 push	 eax
  0000a	52		 push	 edx
  0000b	8d 45 fc	 lea	 eax, DWORD PTR $T548114[ebp]
  0000e	50		 push	 eax
  0000f	e8 00 00 00 00	 call	 ?erase@?$vector@PAVioBaseChar@@V?$allocator@PAVioBaseChar@@@std@@@std@@QAE?AV?$_Vector_iterator@V?$_Vector_val@PAVioBaseChar@@V?$allocator@PAVioBaseChar@@@std@@@std@@@2@V?$_Vector_const_iterator@V?$_Vector_val@PAVioBaseChar@@V?$allocator@PAVioBaseChar@@@std@@@std@@@2@0@Z ; std::vector<ioBaseChar *,std::allocator<ioBaseChar *> >::erase

; 1219 : 		}

  00014	c9		 leave
  00015	c3		 ret	 0
?clear@?$vector@PAVioBaseChar@@V?$allocator@PAVioBaseChar@@@std@@@std@@QAEXXZ ENDP ; std::vector<ioBaseChar *,std::allocator<ioBaseChar *> >::clear
_TEXT	ENDS
PUBLIC	?_Reserve@?$vector@PAVioBaseChar@@V?$allocator@PAVioBaseChar@@@std@@@std@@IAEXI@Z ; std::vector<ioBaseChar *,std::allocator<ioBaseChar *> >::_Reserve
; Function compile flags: /Ogsp
;	COMDAT ?_Reserve@?$vector@PAVioBaseChar@@V?$allocator@PAVioBaseChar@@@std@@@std@@IAEXI@Z
_TEXT	SEGMENT
__Count$ = 8						; size = 4
?_Reserve@?$vector@PAVioBaseChar@@V?$allocator@PAVioBaseChar@@@std@@@std@@IAEXI@Z PROC ; std::vector<ioBaseChar *,std::allocator<ioBaseChar *> >::_Reserve, COMDAT
; _this$ = ecx

; 1290 : 		{	// ensure room for _Count new elements, grow exponentially

  00000	55		 push	 ebp
  00001	8b ec		 mov	 ebp, esp
  00003	56		 push	 esi
  00004	8b f1		 mov	 esi, ecx

; 1291 : 		size_type _Size = size();

  00006	8b 0e		 mov	 ecx, DWORD PTR [esi]
  00008	8b 46 04	 mov	 eax, DWORD PTR [esi+4]
  0000b	2b c1		 sub	 eax, ecx

; 1292 : 		if (max_size() - _Count < _Size)

  0000d	ba ff ff ff 3f	 mov	 edx, 1073741823		; 3fffffffH
  00012	2b 55 08	 sub	 edx, DWORD PTR __Count$[ebp]
  00015	c1 f8 02	 sar	 eax, 2
  00018	3b d0		 cmp	 edx, eax
  0001a	73 0b		 jae	 SHORT $LN4@Reserve

; 1293 : 			_Xlen();

  0001c	68 00 00 00 00	 push	 OFFSET ??_C@_0BD@OLBABOEK@vector?$DMT?$DO?5too?5long?$AA@
  00021	ff 15 00 00 00
	00		 call	 DWORD PTR __imp_?_Xlength_error@std@@YAXPBD@Z
$LN21@Reserve:
$LN4@Reserve:

; 1294 : 		else if ((_Size += _Count) <= capacity())

  00027	8b 56 08	 mov	 edx, DWORD PTR [esi+8]
  0002a	03 45 08	 add	 eax, DWORD PTR __Count$[ebp]
  0002d	2b d1		 sub	 edx, ecx
  0002f	c1 fa 02	 sar	 edx, 2
  00032	3b c2		 cmp	 eax, edx
  00034	76 10		 jbe	 SHORT $LN1@Reserve

; 1295 : 			;
; 1296 : 		else
; 1297 : 			reserve(_Grow_to(_Size));

  00036	50		 push	 eax
  00037	8b ce		 mov	 ecx, esi
  00039	e8 00 00 00 00	 call	 ?_Grow_to@?$vector@PAVioBaseChar@@V?$allocator@PAVioBaseChar@@@std@@@std@@IBEII@Z ; std::vector<ioBaseChar *,std::allocator<ioBaseChar *> >::_Grow_to
  0003e	50		 push	 eax
  0003f	8b ce		 mov	 ecx, esi
  00041	e8 00 00 00 00	 call	 ?reserve@?$vector@PAVioBaseChar@@V?$allocator@PAVioBaseChar@@@std@@@std@@QAEXI@Z ; std::vector<ioBaseChar *,std::allocator<ioBaseChar *> >::reserve
$LN1@Reserve:
  00046	5e		 pop	 esi

; 1298 : 		}

  00047	5d		 pop	 ebp
  00048	c2 04 00	 ret	 4
$LN20@Reserve:
?_Reserve@?$vector@PAVioBaseChar@@V?$allocator@PAVioBaseChar@@@std@@@std@@IAEXI@Z ENDP ; std::vector<ioBaseChar *,std::allocator<ioBaseChar *> >::_Reserve
_TEXT	ENDS
PUBLIC	??$_Insertion_sort@PAUCharDistanceSq@FindPredicate@@VSightTargetSort@FD_SightTarget@@@std@@YAXPAUCharDistanceSq@FindPredicate@@0VSightTargetSort@FD_SightTarget@@@Z ; std::_Insertion_sort<FindPredicate::CharDistanceSq *,FD_SightTarget::SightTargetSort>
; Function compile flags: /Ogsp
; File c:\program files (x86)\microsoft visual studio 10.0\vc\include\algorithm
;	COMDAT ??$_Insertion_sort@PAUCharDistanceSq@FindPredicate@@VSightTargetSort@FD_SightTarget@@@std@@YAXPAUCharDistanceSq@FindPredicate@@0VSightTargetSort@FD_SightTarget@@@Z
_TEXT	SEGMENT
__First$ = 8						; size = 4
__Last$ = 12						; size = 4
__Pred$ = 16						; size = 4
??$_Insertion_sort@PAUCharDistanceSq@FindPredicate@@VSightTargetSort@FD_SightTarget@@@std@@YAXPAUCharDistanceSq@FindPredicate@@0VSightTargetSort@FD_SightTarget@@@Z PROC ; std::_Insertion_sort<FindPredicate::CharDistanceSq *,FD_SightTarget::SightTargetSort>, COMDAT

; 3676 : 	{	// insertion sort [_First, _Last), using _Pred

  00000	55		 push	 ebp
  00001	8b ec		 mov	 ebp, esp

; 3677 : 	_Insertion_sort1(_First, _Last, _Pred, _Val_type(_First));

  00003	6a 00		 push	 0
  00005	ff 75 10	 push	 DWORD PTR __Pred$[ebp]
  00008	ff 75 0c	 push	 DWORD PTR __Last$[ebp]
  0000b	ff 75 08	 push	 DWORD PTR __First$[ebp]
  0000e	e8 00 00 00 00	 call	 ??$_Insertion_sort1@PAUCharDistanceSq@FindPredicate@@VSightTargetSort@FD_SightTarget@@U12@@std@@YAXPAUCharDistanceSq@FindPredicate@@0VSightTargetSort@FD_SightTarget@@0@Z ; std::_Insertion_sort1<FindPredicate::CharDistanceSq *,FD_SightTarget::SightTargetSort,FindPredicate::CharDistanceSq>
  00013	83 c4 10	 add	 esp, 16			; 00000010H

; 3678 : 	}

  00016	5d		 pop	 ebp
  00017	c3		 ret	 0
??$_Insertion_sort@PAUCharDistanceSq@FindPredicate@@VSightTargetSort@FD_SightTarget@@@std@@YAXPAUCharDistanceSq@FindPredicate@@0VSightTargetSort@FD_SightTarget@@@Z ENDP ; std::_Insertion_sort<FindPredicate::CharDistanceSq *,FD_SightTarget::SightTargetSort>
_TEXT	ENDS
PUBLIC	??$_Median@PAUCharDistanceSq@FindPredicate@@VSightTargetSort@FD_SightTarget@@@std@@YAXPAUCharDistanceSq@FindPredicate@@00VSightTargetSort@FD_SightTarget@@@Z ; std::_Median<FindPredicate::CharDistanceSq *,FD_SightTarget::SightTargetSort>
; Function compile flags: /Ogsp
;	COMDAT ??$_Median@PAUCharDistanceSq@FindPredicate@@VSightTargetSort@FD_SightTarget@@@std@@YAXPAUCharDistanceSq@FindPredicate@@00VSightTargetSort@FD_SightTarget@@@Z
_TEXT	SEGMENT
tv200 = 8						; size = 4
__First$ = 8						; size = 4
__Mid$ = 12						; size = 4
tv203 = 16						; size = 4
__Last$ = 16						; size = 4
__Pred$ = 20						; size = 4
??$_Median@PAUCharDistanceSq@FindPredicate@@VSightTargetSort@FD_SightTarget@@@std@@YAXPAUCharDistanceSq@FindPredicate@@00VSightTargetSort@FD_SightTarget@@@Z PROC ; std::_Median<FindPredicate::CharDistanceSq *,FD_SightTarget::SightTargetSort>, COMDAT

; 3695 : 	{	// sort median element to middle

  00000	55		 push	 ebp
  00001	8b ec		 mov	 ebp, esp

; 3696 : 	if (40 < _Last - _First)

  00003	8b 4d 08	 mov	 ecx, DWORD PTR __First$[ebp]
  00006	57		 push	 edi
  00007	8b 7d 10	 mov	 edi, DWORD PTR __Last$[ebp]
  0000a	8b c7		 mov	 eax, edi
  0000c	2b c1		 sub	 eax, ecx
  0000e	c1 f8 03	 sar	 eax, 3
  00011	83 f8 28	 cmp	 eax, 40			; 00000028H
  00014	7e 6a		 jle	 SHORT $LN2@Median

; 3697 : 		{	// median of nine
; 3698 : 		size_t _Step = (_Last - _First + 1) / 8;

  00016	40		 inc	 eax
  00017	99		 cdq
  00018	83 e2 07	 and	 edx, 7
  0001b	53		 push	 ebx
  0001c	03 c2		 add	 eax, edx
  0001e	c1 f8 03	 sar	 eax, 3
  00021	56		 push	 esi

; 3699 : 		_Med3(_First, _First + _Step, _First + 2 * _Step, _Pred);

  00022	ff 75 14	 push	 DWORD PTR __Pred$[ebp]
  00025	8b d8		 mov	 ebx, eax
  00027	8b f0		 mov	 esi, eax
  00029	c1 e3 04	 shl	 ebx, 4
  0002c	8d 14 0b	 lea	 edx, DWORD PTR [ebx+ecx]
  0002f	c1 e6 03	 shl	 esi, 3
  00032	8d 04 0e	 lea	 eax, DWORD PTR [esi+ecx]
  00035	52		 push	 edx
  00036	50		 push	 eax
  00037	51		 push	 ecx
  00038	89 45 08	 mov	 DWORD PTR tv200[ebp], eax
  0003b	e8 00 00 00 00	 call	 ??$_Med3@PAUCharDistanceSq@FindPredicate@@VSightTargetSort@FD_SightTarget@@@std@@YAXPAUCharDistanceSq@FindPredicate@@00VSightTargetSort@FD_SightTarget@@@Z ; std::_Med3<FindPredicate::CharDistanceSq *,FD_SightTarget::SightTargetSort>

; 3700 : 		_Med3(_Mid - _Step, _Mid, _Mid + _Step, _Pred);

  00040	ff 75 14	 push	 DWORD PTR __Pred$[ebp]
  00043	8b 45 0c	 mov	 eax, DWORD PTR __Mid$[ebp]
  00046	8d 0c 06	 lea	 ecx, DWORD PTR [esi+eax]
  00049	51		 push	 ecx
  0004a	50		 push	 eax
  0004b	2b c6		 sub	 eax, esi
  0004d	50		 push	 eax
  0004e	e8 00 00 00 00	 call	 ??$_Med3@PAUCharDistanceSq@FindPredicate@@VSightTargetSort@FD_SightTarget@@@std@@YAXPAUCharDistanceSq@FindPredicate@@00VSightTargetSort@FD_SightTarget@@@Z ; std::_Med3<FindPredicate::CharDistanceSq *,FD_SightTarget::SightTargetSort>

; 3701 : 		_Med3(_Last - 2 * _Step, _Last - _Step, _Last, _Pred);

  00053	ff 75 14	 push	 DWORD PTR __Pred$[ebp]
  00056	89 7d 10	 mov	 DWORD PTR tv203[ebp], edi
  00059	29 75 10	 sub	 DWORD PTR tv203[ebp], esi
  0005c	57		 push	 edi
  0005d	ff 75 10	 push	 DWORD PTR tv203[ebp]
  00060	2b fb		 sub	 edi, ebx
  00062	57		 push	 edi
  00063	e8 00 00 00 00	 call	 ??$_Med3@PAUCharDistanceSq@FindPredicate@@VSightTargetSort@FD_SightTarget@@@std@@YAXPAUCharDistanceSq@FindPredicate@@00VSightTargetSort@FD_SightTarget@@@Z ; std::_Med3<FindPredicate::CharDistanceSq *,FD_SightTarget::SightTargetSort>

; 3702 : 		_Med3(_First + _Step, _Mid, _Last - _Step, _Pred);

  00068	ff 75 14	 push	 DWORD PTR __Pred$[ebp]
  0006b	ff 75 10	 push	 DWORD PTR tv203[ebp]
  0006e	ff 75 0c	 push	 DWORD PTR __Mid$[ebp]
  00071	ff 75 08	 push	 DWORD PTR tv200[ebp]
  00074	e8 00 00 00 00	 call	 ??$_Med3@PAUCharDistanceSq@FindPredicate@@VSightTargetSort@FD_SightTarget@@@std@@YAXPAUCharDistanceSq@FindPredicate@@00VSightTargetSort@FD_SightTarget@@@Z ; std::_Med3<FindPredicate::CharDistanceSq *,FD_SightTarget::SightTargetSort>
  00079	83 c4 40	 add	 esp, 64			; 00000040H
  0007c	5e		 pop	 esi
  0007d	5b		 pop	 ebx

; 3703 : 		}
; 3704 : 	else

  0007e	eb 10		 jmp	 SHORT $LN1@Median
$LN2@Median:

; 3705 : 		_Med3(_First, _Mid, _Last, _Pred);

  00080	ff 75 14	 push	 DWORD PTR __Pred$[ebp]
  00083	57		 push	 edi
  00084	ff 75 0c	 push	 DWORD PTR __Mid$[ebp]
  00087	51		 push	 ecx
  00088	e8 00 00 00 00	 call	 ??$_Med3@PAUCharDistanceSq@FindPredicate@@VSightTargetSort@FD_SightTarget@@@std@@YAXPAUCharDistanceSq@FindPredicate@@00VSightTargetSort@FD_SightTarget@@@Z ; std::_Med3<FindPredicate::CharDistanceSq *,FD_SightTarget::SightTargetSort>
  0008d	83 c4 10	 add	 esp, 16			; 00000010H
$LN1@Median:
  00090	5f		 pop	 edi

; 3706 : 	}

  00091	5d		 pop	 ebp
  00092	c3		 ret	 0
??$_Median@PAUCharDistanceSq@FindPredicate@@VSightTargetSort@FD_SightTarget@@@std@@YAXPAUCharDistanceSq@FindPredicate@@00VSightTargetSort@FD_SightTarget@@@Z ENDP ; std::_Median<FindPredicate::CharDistanceSq *,FD_SightTarget::SightTargetSort>
_TEXT	ENDS
PUBLIC	??$_Adjust_heap@PAUCharDistanceSq@FindPredicate@@HU12@VSightTargetSort@FD_SightTarget@@@std@@YAXPAUCharDistanceSq@FindPredicate@@HH$$QAU12@VSightTargetSort@FD_SightTarget@@@Z ; std::_Adjust_heap<FindPredicate::CharDistanceSq *,int,FindPredicate::CharDistanceSq,FD_SightTarget::SightTargetSort>
; Function compile flags: /Ogsp
;	COMDAT ??$_Adjust_heap@PAUCharDistanceSq@FindPredicate@@HU12@VSightTargetSort@FD_SightTarget@@@std@@YAXPAUCharDistanceSq@FindPredicate@@HH$$QAU12@VSightTargetSort@FD_SightTarget@@@Z
_TEXT	SEGMENT
__First$ = 8						; size = 4
__Top$ = 12						; size = 4
__Hole$ = 12						; size = 4
__Bottom$ = 16						; size = 4
__Val$ = 20						; size = 4
__Pred$ = 24						; size = 4
??$_Adjust_heap@PAUCharDistanceSq@FindPredicate@@HU12@VSightTargetSort@FD_SightTarget@@@std@@YAXPAUCharDistanceSq@FindPredicate@@HH$$QAU12@VSightTargetSort@FD_SightTarget@@@Z PROC ; std::_Adjust_heap<FindPredicate::CharDistanceSq *,int,FindPredicate::CharDistanceSq,FD_SightTarget::SightTargetSort>, COMDAT

; 2565 : 	{	// percolate _Hole to _Bottom, then push _Val, using _Pred

  00000	55		 push	 ebp
  00001	8b ec		 mov	 ebp, esp

; 2566 : 	_Diff _Top = _Hole;
; 2567 : 	_Diff _Idx = 2 * _Hole + 2;
; 2568 : 
; 2569 : 	for (; _Idx < _Bottom; _Idx = 2 * _Idx + 2)

  00003	8b 45 10	 mov	 eax, DWORD PTR __Bottom$[ebp]
  00006	53		 push	 ebx
  00007	8b 5d 0c	 mov	 ebx, DWORD PTR __Hole$[ebp]
  0000a	56		 push	 esi
  0000b	8b 75 08	 mov	 esi, DWORD PTR __First$[ebp]
  0000e	57		 push	 edi
  0000f	8d 7c 1b 02	 lea	 edi, DWORD PTR [ebx+ebx+2]
  00013	89 5d 0c	 mov	 DWORD PTR __Top$[ebp], ebx
  00016	3b f8		 cmp	 edi, eax
  00018	7d 33		 jge	 SHORT $LN16@Adjust_hea
$LL5@Adjust_hea:

; 2570 : 		{	// move _Hole down to larger child
; 2571 : 		if (_DEBUG_LT_PRED(_Pred, *(_First + _Idx), *(_First + (_Idx - 1))))

  0001a	8d 04 fe	 lea	 eax, DWORD PTR [esi+edi*8]
  0001d	8d 48 f8	 lea	 ecx, DWORD PTR [eax-8]
  00020	51		 push	 ecx
  00021	50		 push	 eax
  00022	8d 4d 18	 lea	 ecx, DWORD PTR __Pred$[ebp]
  00025	e8 00 00 00 00	 call	 ??RSightTargetSort@FD_SightTarget@@QBE_NABUCharDistanceSq@FindPredicate@@0@Z ; FD_SightTarget::SightTargetSort::operator()
  0002a	84 c0		 test	 al, al
  0002c	74 01		 je	 SHORT $LN2@Adjust_hea

; 2572 : 			--_Idx;

  0002e	4f		 dec	 edi
$LN2@Adjust_hea:

; 2573 : 		*(_First + _Hole) = _Move(*(_First + _Idx));

  0002f	8b 04 fe	 mov	 eax, DWORD PTR [esi+edi*8]
  00032	89 04 de	 mov	 DWORD PTR [esi+ebx*8], eax
  00035	8b 44 fe 04	 mov	 eax, DWORD PTR [esi+edi*8+4]
  00039	89 44 de 04	 mov	 DWORD PTR [esi+ebx*8+4], eax

; 2574 : 		_Hole = _Idx;

  0003d	8b df		 mov	 ebx, edi
  0003f	8d 7c 3f 02	 lea	 edi, DWORD PTR [edi+edi+2]
  00043	3b 7d 10	 cmp	 edi, DWORD PTR __Bottom$[ebp]
  00046	7c d2		 jl	 SHORT $LL5@Adjust_hea

; 2575 : 		}
; 2576 : 
; 2577 : 	if (_Idx == _Bottom)

  00048	8b 45 10	 mov	 eax, DWORD PTR __Bottom$[ebp]
  0004b	3b f8		 cmp	 edi, eax
$LN16@Adjust_hea:
  0004d	75 12		 jne	 SHORT $LN1@Adjust_hea

; 2578 : 		{	// only child at bottom, move _Hole down to it
; 2579 : 		*(_First + _Hole) = _Move(*(_First + (_Bottom - 1)));

  0004f	8b 4c c6 f8	 mov	 ecx, DWORD PTR [esi+eax*8-8]
  00053	89 0c de	 mov	 DWORD PTR [esi+ebx*8], ecx
  00056	8b 4c c6 fc	 mov	 ecx, DWORD PTR [esi+eax*8-4]
  0005a	89 4c de 04	 mov	 DWORD PTR [esi+ebx*8+4], ecx

; 2580 : 		_Hole = _Bottom - 1;

  0005e	8d 58 ff	 lea	 ebx, DWORD PTR [eax-1]
$LN1@Adjust_hea:

; 2581 : 		}
; 2582 : 	_Push_heap(_First, _Hole, _Top, _Move(_Val), _Pred);

  00061	ff 75 18	 push	 DWORD PTR __Pred$[ebp]
  00064	ff 75 14	 push	 DWORD PTR __Val$[ebp]
  00067	ff 75 0c	 push	 DWORD PTR __Top$[ebp]
  0006a	53		 push	 ebx
  0006b	56		 push	 esi
  0006c	e8 00 00 00 00	 call	 ??$_Push_heap@PAUCharDistanceSq@FindPredicate@@HU12@VSightTargetSort@FD_SightTarget@@@std@@YAXPAUCharDistanceSq@FindPredicate@@HH$$QAU12@VSightTargetSort@FD_SightTarget@@@Z ; std::_Push_heap<FindPredicate::CharDistanceSq *,int,FindPredicate::CharDistanceSq,FD_SightTarget::SightTargetSort>
  00071	83 c4 14	 add	 esp, 20			; 00000014H
  00074	5f		 pop	 edi
  00075	5e		 pop	 esi
  00076	5b		 pop	 ebx

; 2583 : 	}

  00077	5d		 pop	 ebp
  00078	c3		 ret	 0
??$_Adjust_heap@PAUCharDistanceSq@FindPredicate@@HU12@VSightTargetSort@FD_SightTarget@@@std@@YAXPAUCharDistanceSq@FindPredicate@@HH$$QAU12@VSightTargetSort@FD_SightTarget@@@Z ENDP ; std::_Adjust_heap<FindPredicate::CharDistanceSq *,int,FindPredicate::CharDistanceSq,FD_SightTarget::SightTargetSort>
_TEXT	ENDS
PUBLIC	??$_Pop_heap@PAUCharDistanceSq@FindPredicate@@HU12@VSightTargetSort@FD_SightTarget@@@std@@YAXPAUCharDistanceSq@FindPredicate@@00$$QAU12@VSightTargetSort@FD_SightTarget@@PAH@Z ; std::_Pop_heap<FindPredicate::CharDistanceSq *,int,FindPredicate::CharDistanceSq,FD_SightTarget::SightTargetSort>
; Function compile flags: /Ogsp
;	COMDAT ??$_Pop_heap@PAUCharDistanceSq@FindPredicate@@HU12@VSightTargetSort@FD_SightTarget@@@std@@YAXPAUCharDistanceSq@FindPredicate@@00$$QAU12@VSightTargetSort@FD_SightTarget@@PAH@Z
_TEXT	SEGMENT
__First$ = 8						; size = 4
__Last$ = 12						; size = 4
__Dest$ = 16						; size = 4
__Val$ = 20						; size = 4
__Pred$ = 24						; size = 4
___formal$ = 28						; size = 4
??$_Pop_heap@PAUCharDistanceSq@FindPredicate@@HU12@VSightTargetSort@FD_SightTarget@@@std@@YAXPAUCharDistanceSq@FindPredicate@@00$$QAU12@VSightTargetSort@FD_SightTarget@@PAH@Z PROC ; std::_Pop_heap<FindPredicate::CharDistanceSq *,int,FindPredicate::CharDistanceSq,FD_SightTarget::SightTargetSort>, COMDAT

; 2591 : 	{	// pop *_First to *_Dest and reheap, using _Pred

  00000	55		 push	 ebp
  00001	8b ec		 mov	 ebp, esp

; 2592 : 	*_Dest = _Move(*_First);

  00003	8b 45 08	 mov	 eax, DWORD PTR __First$[ebp]
  00006	8b 10		 mov	 edx, DWORD PTR [eax]
  00008	8b 4d 10	 mov	 ecx, DWORD PTR __Dest$[ebp]

; 2593 : 	_Adjust_heap(_First, _Diff(0), _Diff(_Last - _First),
; 2594 : 		_Move(_Val), _Pred);

  0000b	ff 75 18	 push	 DWORD PTR __Pred$[ebp]
  0000e	89 11		 mov	 DWORD PTR [ecx], edx
  00010	8b 50 04	 mov	 edx, DWORD PTR [eax+4]
  00013	ff 75 14	 push	 DWORD PTR __Val$[ebp]
  00016	89 51 04	 mov	 DWORD PTR [ecx+4], edx
  00019	8b 4d 0c	 mov	 ecx, DWORD PTR __Last$[ebp]
  0001c	2b c8		 sub	 ecx, eax
  0001e	c1 f9 03	 sar	 ecx, 3
  00021	51		 push	 ecx
  00022	6a 00		 push	 0
  00024	50		 push	 eax
  00025	e8 00 00 00 00	 call	 ??$_Adjust_heap@PAUCharDistanceSq@FindPredicate@@HU12@VSightTargetSort@FD_SightTarget@@@std@@YAXPAUCharDistanceSq@FindPredicate@@HH$$QAU12@VSightTargetSort@FD_SightTarget@@@Z ; std::_Adjust_heap<FindPredicate::CharDistanceSq *,int,FindPredicate::CharDistanceSq,FD_SightTarget::SightTargetSort>
  0002a	83 c4 14	 add	 esp, 20			; 00000014H

; 2595 : 	}

  0002d	5d		 pop	 ebp
  0002e	c3		 ret	 0
??$_Pop_heap@PAUCharDistanceSq@FindPredicate@@HU12@VSightTargetSort@FD_SightTarget@@@std@@YAXPAUCharDistanceSq@FindPredicate@@00$$QAU12@VSightTargetSort@FD_SightTarget@@PAH@Z ENDP ; std::_Pop_heap<FindPredicate::CharDistanceSq *,int,FindPredicate::CharDistanceSq,FD_SightTarget::SightTargetSort>
_TEXT	ENDS
PUBLIC	?push_back@?$vector@PAVioBaseChar@@V?$allocator@PAVioBaseChar@@@std@@@std@@QAEXABQAVioBaseChar@@@Z ; std::vector<ioBaseChar *,std::allocator<ioBaseChar *> >::push_back
; Function compile flags: /Ogsp
; File c:\program files (x86)\microsoft visual studio 10.0\vc\include\vector
;	COMDAT ?push_back@?$vector@PAVioBaseChar@@V?$allocator@PAVioBaseChar@@@std@@@std@@QAEXABQAVioBaseChar@@@Z
_TEXT	SEGMENT
__Val$ = 8						; size = 4
?push_back@?$vector@PAVioBaseChar@@V?$allocator@PAVioBaseChar@@@std@@@std@@QAEXABQAVioBaseChar@@@Z PROC ; std::vector<ioBaseChar *,std::allocator<ioBaseChar *> >::push_back, COMDAT
; _this$ = ecx

; 976  : 		{	// insert element at end

  00000	55		 push	 ebp
  00001	8b ec		 mov	 ebp, esp
  00003	56		 push	 esi
  00004	8b f1		 mov	 esi, ecx

; 977  : 		if (_Inside(_STD addressof(_Val)))

  00006	8b 46 04	 mov	 eax, DWORD PTR [esi+4]
  00009	57		 push	 edi
  0000a	8b 7d 08	 mov	 edi, DWORD PTR __Val$[ebp]
  0000d	3b f8		 cmp	 edi, eax
  0000f	73 27		 jae	 SHORT $LN4@push_back
  00011	8b 0e		 mov	 ecx, DWORD PTR [esi]
  00013	3b cf		 cmp	 ecx, edi
  00015	77 21		 ja	 SHORT $LN4@push_back

; 978  : 			{	// push back an element
; 979  : 			size_type _Idx = _STD addressof(_Val) - this->_Myfirst;

  00017	2b f9		 sub	 edi, ecx
  00019	c1 ff 02	 sar	 edi, 2

; 980  : 			if (this->_Mylast == this->_Myend)

  0001c	3b 46 08	 cmp	 eax, DWORD PTR [esi+8]
  0001f	75 09		 jne	 SHORT $LN3@push_back

; 981  : 				_Reserve(1);

  00021	6a 01		 push	 1
  00023	8b ce		 mov	 ecx, esi
  00025	e8 00 00 00 00	 call	 ?_Reserve@?$vector@PAVioBaseChar@@V?$allocator@PAVioBaseChar@@@std@@@std@@IAEXI@Z ; std::vector<ioBaseChar *,std::allocator<ioBaseChar *> >::_Reserve
$LN3@push_back:

; 982  : 			_Orphan_range(this->_Mylast, this->_Mylast);
; 983  : 			_Cons_val(this->_Alval,
; 984  : 				this->_Mylast,
; 985  : 				this->_Myfirst[_Idx]);

  0002a	8b 46 04	 mov	 eax, DWORD PTR [esi+4]
  0002d	85 c0		 test	 eax, eax
  0002f	74 20		 je	 SHORT $LN39@push_back
  00031	8b 0e		 mov	 ecx, DWORD PTR [esi]
  00033	8b 0c b9	 mov	 ecx, DWORD PTR [ecx+edi*4]

; 986  : 			++this->_Mylast;
; 987  : 			}
; 988  : 		else

  00036	eb 17		 jmp	 SHORT $LN46@push_back
$LN4@push_back:

; 989  : 			{	// push back a non-element
; 990  : 			if (this->_Mylast == this->_Myend)

  00038	3b 46 08	 cmp	 eax, DWORD PTR [esi+8]
  0003b	75 09		 jne	 SHORT $LN1@push_back

; 991  : 				_Reserve(1);

  0003d	6a 01		 push	 1
  0003f	8b ce		 mov	 ecx, esi
  00041	e8 00 00 00 00	 call	 ?_Reserve@?$vector@PAVioBaseChar@@V?$allocator@PAVioBaseChar@@@std@@@std@@IAEXI@Z ; std::vector<ioBaseChar *,std::allocator<ioBaseChar *> >::_Reserve
$LN1@push_back:

; 992  : 			_Orphan_range(this->_Mylast, this->_Mylast);
; 993  : 			_Cons_val(this->_Alval,
; 994  : 				this->_Mylast,
; 995  : 				_Val);

  00046	8b 46 04	 mov	 eax, DWORD PTR [esi+4]
  00049	85 c0		 test	 eax, eax
  0004b	74 04		 je	 SHORT $LN39@push_back
  0004d	8b 0f		 mov	 ecx, DWORD PTR [edi]
$LN46@push_back:
  0004f	89 08		 mov	 DWORD PTR [eax], ecx
$LN39@push_back:

; 996  : 			++this->_Mylast;

  00051	83 46 04 04	 add	 DWORD PTR [esi+4], 4
  00055	5f		 pop	 edi
  00056	5e		 pop	 esi

; 997  : 			}
; 998  : 		}

  00057	5d		 pop	 ebp
  00058	c2 04 00	 ret	 4
?push_back@?$vector@PAVioBaseChar@@V?$allocator@PAVioBaseChar@@@std@@@std@@QAEXABQAVioBaseChar@@@Z ENDP ; std::vector<ioBaseChar *,std::allocator<ioBaseChar *> >::push_back
_TEXT	ENDS
PUBLIC	??$_Unguarded_partition@PAUCharDistanceSq@FindPredicate@@VSightTargetSort@FD_SightTarget@@@std@@YA?AU?$pair@PAUCharDistanceSq@FindPredicate@@PAU12@@0@PAUCharDistanceSq@FindPredicate@@0VSightTargetSort@FD_SightTarget@@@Z ; std::_Unguarded_partition<FindPredicate::CharDistanceSq *,FD_SightTarget::SightTargetSort>
; Function compile flags: /Ogsp
; File c:\program files (x86)\microsoft visual studio 10.0\vc\include\algorithm
;	COMDAT ??$_Unguarded_partition@PAUCharDistanceSq@FindPredicate@@VSightTargetSort@FD_SightTarget@@@std@@YA?AU?$pair@PAUCharDistanceSq@FindPredicate@@PAU12@@0@PAUCharDistanceSq@FindPredicate@@0VSightTargetSort@FD_SightTarget@@@Z
_TEXT	SEGMENT
__Tmp$548599 = -64					; size = 8
__Tmp$548566 = -56					; size = 8
__Tmp$548534 = -48					; size = 8
__Tmp$548468 = -40					; size = 8
__Tmp$548403 = -32					; size = 8
__Tmp$548371 = -24					; size = 8
__Tmp$548501 = -16					; size = 8
tv475 = -8						; size = 4
tv296 = -8						; size = 4
$T548510 = -8						; size = 4
__Glast$ = -4						; size = 4
___$ReturnUdt$ = 8					; size = 4
__First$ = 12						; size = 4
__Last$ = 16						; size = 4
__Pred$ = 20						; size = 4
??$_Unguarded_partition@PAUCharDistanceSq@FindPredicate@@VSightTargetSort@FD_SightTarget@@@std@@YA?AU?$pair@PAUCharDistanceSq@FindPredicate@@PAU12@@0@PAUCharDistanceSq@FindPredicate@@0VSightTargetSort@FD_SightTarget@@@Z PROC ; std::_Unguarded_partition<FindPredicate::CharDistanceSq *,FD_SightTarget::SightTargetSort>, COMDAT

; 3712 : 	{	// partition [_First, _Last), using _Pred

  00000	55		 push	 ebp
  00001	8b ec		 mov	 ebp, esp

; 3713 : 	_RanIt _Mid = _First + (_Last - _First) / 2;

  00003	8b 4d 10	 mov	 ecx, DWORD PTR __Last$[ebp]
  00006	83 ec 40	 sub	 esp, 64			; 00000040H
  00009	53		 push	 ebx
  0000a	56		 push	 esi
  0000b	57		 push	 edi
  0000c	8b 7d 0c	 mov	 edi, DWORD PTR __First$[ebp]

; 3714 : 	_Median(_First, _Mid, _Last - 1, _Pred);

  0000f	ff 75 14	 push	 DWORD PTR __Pred$[ebp]
  00012	8b c1		 mov	 eax, ecx
  00014	2b c7		 sub	 eax, edi
  00016	c1 f8 03	 sar	 eax, 3
  00019	99		 cdq
  0001a	2b c2		 sub	 eax, edx
  0001c	d1 f8		 sar	 eax, 1
  0001e	83 c1 f8	 add	 ecx, -8			; fffffff8H
  00021	51		 push	 ecx
  00022	8d 34 c7	 lea	 esi, DWORD PTR [edi+eax*8]
  00025	56		 push	 esi
  00026	57		 push	 edi
  00027	e8 00 00 00 00	 call	 ??$_Median@PAUCharDistanceSq@FindPredicate@@VSightTargetSort@FD_SightTarget@@@std@@YAXPAUCharDistanceSq@FindPredicate@@00VSightTargetSort@FD_SightTarget@@@Z ; std::_Median<FindPredicate::CharDistanceSq *,FD_SightTarget::SightTargetSort>
  0002c	83 c4 10	 add	 esp, 16			; 00000010H

; 3715 : 	_RanIt _Pfirst = _Mid;
; 3716 : 	_RanIt _Plast = _Pfirst + 1;

  0002f	8d 5e 08	 lea	 ebx, DWORD PTR [esi+8]
  00032	eb 27		 jmp	 SHORT $LN130@Unguarded_
$LL27@Unguarded_:

; 3717 : 
; 3718 : 	while (_First < _Pfirst
; 3719 : 		&& !_DEBUG_LT_PRED(_Pred, *(_Pfirst - 1), *_Pfirst)
; 3720 : 		&& !_Pred(*_Pfirst, *(_Pfirst - 1)))

  00034	8d 46 f8	 lea	 eax, DWORD PTR [esi-8]
  00037	56		 push	 esi
  00038	50		 push	 eax
  00039	8d 4d 14	 lea	 ecx, DWORD PTR __Pred$[ebp]
  0003c	89 45 f8	 mov	 DWORD PTR tv296[ebp], eax
  0003f	e8 00 00 00 00	 call	 ??RSightTargetSort@FD_SightTarget@@QBE_NABUCharDistanceSq@FindPredicate@@0@Z ; FD_SightTarget::SightTargetSort::operator()
  00044	84 c0		 test	 al, al
  00046	75 38		 jne	 SHORT $LN131@Unguarded_
  00048	ff 75 f8	 push	 DWORD PTR tv296[ebp]
  0004b	8d 4d 14	 lea	 ecx, DWORD PTR __Pred$[ebp]
  0004e	56		 push	 esi
  0004f	e8 00 00 00 00	 call	 ??RSightTargetSort@FD_SightTarget@@QBE_NABUCharDistanceSq@FindPredicate@@0@Z ; FD_SightTarget::SightTargetSort::operator()
  00054	84 c0		 test	 al, al
  00056	75 28		 jne	 SHORT $LN131@Unguarded_

; 3721 : 		--_Pfirst;

  00058	8b 75 f8	 mov	 esi, DWORD PTR tv296[ebp]
$LN130@Unguarded_:

; 3717 : 
; 3718 : 	while (_First < _Pfirst
; 3719 : 		&& !_DEBUG_LT_PRED(_Pred, *(_Pfirst - 1), *_Pfirst)
; 3720 : 		&& !_Pred(*_Pfirst, *(_Pfirst - 1)))

  0005b	3b fe		 cmp	 edi, esi
  0005d	72 d5		 jb	 SHORT $LL27@Unguarded_

; 3725 : 		++_Plast;

  0005f	eb 1f		 jmp	 SHORT $LN131@Unguarded_
$LL25@Unguarded_:

; 3722 : 	while (_Plast < _Last
; 3723 : 		&& !_DEBUG_LT_PRED(_Pred, *_Plast, *_Pfirst)
; 3724 : 		&& !_Pred(*_Pfirst, *_Plast))

  00061	56		 push	 esi
  00062	53		 push	 ebx
  00063	8d 4d 14	 lea	 ecx, DWORD PTR __Pred$[ebp]
  00066	e8 00 00 00 00	 call	 ??RSightTargetSort@FD_SightTarget@@QBE_NABUCharDistanceSq@FindPredicate@@0@Z ; FD_SightTarget::SightTargetSort::operator()
  0006b	84 c0		 test	 al, al
  0006d	75 16		 jne	 SHORT $LN24@Unguarded_
  0006f	53		 push	 ebx
  00070	56		 push	 esi
  00071	8d 4d 14	 lea	 ecx, DWORD PTR __Pred$[ebp]
  00074	e8 00 00 00 00	 call	 ??RSightTargetSort@FD_SightTarget@@QBE_NABUCharDistanceSq@FindPredicate@@0@Z ; FD_SightTarget::SightTargetSort::operator()
  00079	84 c0		 test	 al, al
  0007b	75 08		 jne	 SHORT $LN24@Unguarded_

; 3725 : 		++_Plast;

  0007d	83 c3 08	 add	 ebx, 8
$LN131@Unguarded_:

; 3722 : 	while (_Plast < _Last
; 3723 : 		&& !_DEBUG_LT_PRED(_Pred, *_Plast, *_Pfirst)
; 3724 : 		&& !_Pred(*_Pfirst, *_Plast))

  00080	3b 5d 10	 cmp	 ebx, DWORD PTR __Last$[ebp]
  00083	72 dc		 jb	 SHORT $LL25@Unguarded_
$LN24@Unguarded_:

; 3726 : 
; 3727 : 	_RanIt _Gfirst = _Plast;
; 3728 : 	_RanIt _Glast = _Pfirst;

  00085	8b c6		 mov	 eax, esi
  00087	8b fb		 mov	 edi, ebx
  00089	89 45 fc	 mov	 DWORD PTR __Glast$[ebp], eax
$LL23@Unguarded_:

; 3729 : 
; 3730 : 	for (; ; )
; 3731 : 		{	// partition
; 3732 : 		for (; _Gfirst < _Last; ++_Gfirst)

  0008c	3b 7d 10	 cmp	 edi, DWORD PTR __Last$[ebp]
  0008f	73 46		 jae	 SHORT $LN118@Unguarded_
$LL21@Unguarded_:

; 3733 : 			if (_DEBUG_LT_PRED(_Pred, *_Pfirst, *_Gfirst))

  00091	57		 push	 edi
  00092	56		 push	 esi
  00093	8d 4d 14	 lea	 ecx, DWORD PTR __Pred$[ebp]
  00096	e8 00 00 00 00	 call	 ??RSightTargetSort@FD_SightTarget@@QBE_NABUCharDistanceSq@FindPredicate@@0@Z ; FD_SightTarget::SightTargetSort::operator()
  0009b	84 c0		 test	 al, al
  0009d	75 2d		 jne	 SHORT $LN20@Unguarded_

; 3734 : 				;
; 3735 : 			else if (_Pred(*_Gfirst, *_Pfirst))

  0009f	56		 push	 esi
  000a0	57		 push	 edi
  000a1	8d 4d 14	 lea	 ecx, DWORD PTR __Pred$[ebp]
  000a4	e8 00 00 00 00	 call	 ??RSightTargetSort@FD_SightTarget@@QBE_NABUCharDistanceSq@FindPredicate@@0@Z ; FD_SightTarget::SightTargetSort::operator()
  000a9	84 c0		 test	 al, al
  000ab	75 27		 jne	 SHORT $LN126@Unguarded_

; 3736 : 				break;
; 3737 : 			else
; 3738 : 				_STD iter_swap(_Plast++, _Gfirst);

  000ad	8b c3		 mov	 eax, ebx
  000af	8b 50 04	 mov	 edx, DWORD PTR [eax+4]
  000b2	8b 08		 mov	 ecx, DWORD PTR [eax]
  000b4	89 55 ec	 mov	 DWORD PTR __Tmp$548371[ebp+4], edx
  000b7	8b 17		 mov	 edx, DWORD PTR [edi]
  000b9	89 10		 mov	 DWORD PTR [eax], edx
  000bb	8b 57 04	 mov	 edx, DWORD PTR [edi+4]
  000be	89 50 04	 mov	 DWORD PTR [eax+4], edx
  000c1	8b 45 ec	 mov	 eax, DWORD PTR __Tmp$548371[ebp+4]
  000c4	83 c3 08	 add	 ebx, 8
  000c7	89 0f		 mov	 DWORD PTR [edi], ecx
  000c9	89 47 04	 mov	 DWORD PTR [edi+4], eax
$LN20@Unguarded_:

; 3729 : 
; 3730 : 	for (; ; )
; 3731 : 		{	// partition
; 3732 : 		for (; _Gfirst < _Last; ++_Gfirst)

  000cc	83 c7 08	 add	 edi, 8
  000cf	3b 7d 10	 cmp	 edi, DWORD PTR __Last$[ebp]
  000d2	72 bd		 jb	 SHORT $LL21@Unguarded_
$LN126@Unguarded_:
  000d4	8b 45 fc	 mov	 eax, DWORD PTR __Glast$[ebp]
$LN118@Unguarded_:

; 3739 : 		for (; _First < _Glast; --_Glast)

  000d7	3b 45 0c	 cmp	 eax, DWORD PTR __First$[ebp]
  000da	76 63		 jbe	 SHORT $LN132@Unguarded_
  000dc	83 c0 f8	 add	 eax, -8			; fffffff8H
  000df	89 45 f8	 mov	 DWORD PTR tv475[ebp], eax
$LL127@Unguarded_:

; 3740 : 			if (_DEBUG_LT_PRED(_Pred, *(_Glast - 1), *_Pfirst))

  000e2	56		 push	 esi
  000e3	ff 75 f8	 push	 DWORD PTR tv475[ebp]
  000e6	8d 4d 14	 lea	 ecx, DWORD PTR __Pred$[ebp]
  000e9	e8 00 00 00 00	 call	 ??RSightTargetSort@FD_SightTarget@@QBE_NABUCharDistanceSq@FindPredicate@@0@Z ; FD_SightTarget::SightTargetSort::operator()
  000ee	84 c0		 test	 al, al
  000f0	75 32		 jne	 SHORT $LN128@Unguarded_

; 3741 : 				;
; 3742 : 			else if (_Pred(*_Pfirst, *(_Glast - 1)))

  000f2	ff 75 f8	 push	 DWORD PTR tv475[ebp]
  000f5	8d 4d 14	 lea	 ecx, DWORD PTR __Pred$[ebp]
  000f8	56		 push	 esi
  000f9	e8 00 00 00 00	 call	 ??RSightTargetSort@FD_SightTarget@@QBE_NABUCharDistanceSq@FindPredicate@@0@Z ; FD_SightTarget::SightTargetSort::operator()
  000fe	84 c0		 test	 al, al
  00100	75 37		 jne	 SHORT $LN129@Unguarded_

; 3743 : 				break;
; 3744 : 			else
; 3745 : 				_STD iter_swap(--_Pfirst, _Glast - 1);

  00102	8b 46 fc	 mov	 eax, DWORD PTR [esi-4]
  00105	83 ee 08	 sub	 esi, 8
  00108	8b 0e		 mov	 ecx, DWORD PTR [esi]
  0010a	89 45 e4	 mov	 DWORD PTR __Tmp$548403[ebp+4], eax
  0010d	8b 45 f8	 mov	 eax, DWORD PTR tv475[ebp]
  00110	8b 10		 mov	 edx, DWORD PTR [eax]
  00112	89 16		 mov	 DWORD PTR [esi], edx
  00114	8b 50 04	 mov	 edx, DWORD PTR [eax+4]
  00117	89 56 04	 mov	 DWORD PTR [esi+4], edx
  0011a	89 08		 mov	 DWORD PTR [eax], ecx
  0011c	8b 4d e4	 mov	 ecx, DWORD PTR __Tmp$548403[ebp+4]
  0011f	89 48 04	 mov	 DWORD PTR [eax+4], ecx
  00122	eb 03		 jmp	 SHORT $LN13@Unguarded_
$LN128@Unguarded_:
  00124	8b 45 f8	 mov	 eax, DWORD PTR tv475[ebp]
$LN13@Unguarded_:

; 3739 : 		for (; _First < _Glast; --_Glast)

  00127	83 6d fc 08	 sub	 DWORD PTR __Glast$[ebp], 8
  0012b	83 e8 08	 sub	 eax, 8
  0012e	89 45 f8	 mov	 DWORD PTR tv475[ebp], eax
  00131	8b 45 0c	 mov	 eax, DWORD PTR __First$[ebp]
  00134	3b 45 fc	 cmp	 eax, DWORD PTR __Glast$[ebp]
  00137	72 a9		 jb	 SHORT $LL127@Unguarded_
$LN129@Unguarded_:
  00139	8b 45 fc	 mov	 eax, DWORD PTR __Glast$[ebp]

; 3746 : 		if (_Glast == _First && _Gfirst == _Last)

  0013c	3b 45 0c	 cmp	 eax, DWORD PTR __First$[ebp]
$LN132@Unguarded_:
  0013f	75 63		 jne	 SHORT $LN6@Unguarded_
  00141	3b 7d 10	 cmp	 edi, DWORD PTR __Last$[ebp]
  00144	0f 84 ca 00 00
	00		 je	 $LN120@Unguarded_

; 3748 : 
; 3749 : 		if (_Glast == _First)
; 3750 : 			{	// no room at bottom, rotate pivot upward
; 3751 : 			if (_Plast != _Gfirst)

  0014a	3b df		 cmp	 ebx, edi
  0014c	74 1a		 je	 SHORT $LN64@Unguarded_

; 3752 : 				_STD iter_swap(_Pfirst, _Plast);

  0014e	8b 56 04	 mov	 edx, DWORD PTR [esi+4]
  00151	8b 0e		 mov	 ecx, DWORD PTR [esi]
  00153	89 55 dc	 mov	 DWORD PTR __Tmp$548468[ebp+4], edx
  00156	8b 13		 mov	 edx, DWORD PTR [ebx]
  00158	89 16		 mov	 DWORD PTR [esi], edx
  0015a	8b 53 04	 mov	 edx, DWORD PTR [ebx+4]
  0015d	89 56 04	 mov	 DWORD PTR [esi+4], edx
  00160	89 0b		 mov	 DWORD PTR [ebx], ecx
  00162	8b 4d dc	 mov	 ecx, DWORD PTR __Tmp$548468[ebp+4]
  00165	89 4b 04	 mov	 DWORD PTR [ebx+4], ecx
$LN64@Unguarded_:

; 3753 : 			++_Plast;
; 3754 : 			_STD iter_swap(_Pfirst++, _Gfirst++);

  00168	8b ce		 mov	 ecx, esi
  0016a	8b 11		 mov	 edx, DWORD PTR [ecx]
  0016c	89 55 f0	 mov	 DWORD PTR __Tmp$548501[ebp], edx
  0016f	8b 51 04	 mov	 edx, DWORD PTR [ecx+4]
  00172	89 55 f4	 mov	 DWORD PTR __Tmp$548501[ebp+4], edx
  00175	89 7d f8	 mov	 DWORD PTR $T548510[ebp], edi
  00178	8b 55 f8	 mov	 edx, DWORD PTR $T548510[ebp]
  0017b	8b 12		 mov	 edx, DWORD PTR [edx]
  0017d	89 11		 mov	 DWORD PTR [ecx], edx
  0017f	8b 55 f8	 mov	 edx, DWORD PTR $T548510[ebp]
  00182	8b 52 04	 mov	 edx, DWORD PTR [edx+4]
  00185	89 51 04	 mov	 DWORD PTR [ecx+4], edx
  00188	8b 55 f0	 mov	 edx, DWORD PTR __Tmp$548501[ebp]
  0018b	8b 4d f8	 mov	 ecx, DWORD PTR $T548510[ebp]
  0018e	89 11		 mov	 DWORD PTR [ecx], edx
  00190	8b 55 f4	 mov	 edx, DWORD PTR __Tmp$548501[ebp+4]
  00193	83 c3 08	 add	 ebx, 8
  00196	83 c6 08	 add	 esi, 8
  00199	83 c7 08	 add	 edi, 8
  0019c	89 51 04	 mov	 DWORD PTR [ecx+4], edx
  0019f	e9 e8 fe ff ff	 jmp	 $LL23@Unguarded_
$LN6@Unguarded_:

; 3755 : 			}
; 3756 : 		else if (_Gfirst == _Last)
; 3757 : 			{	// no room at top, rotate pivot downward
; 3758 : 			if (--_Glast != --_Pfirst)

  001a4	83 e8 08	 sub	 eax, 8
  001a7	89 45 fc	 mov	 DWORD PTR __Glast$[ebp], eax
  001aa	3b 7d 10	 cmp	 edi, DWORD PTR __Last$[ebp]
  001ad	75 43		 jne	 SHORT $LN3@Unguarded_
  001af	83 ee 08	 sub	 esi, 8
  001b2	3b c6		 cmp	 eax, esi
  001b4	74 1a		 je	 SHORT $LN84@Unguarded_

; 3759 : 				_STD iter_swap(_Glast, _Pfirst);

  001b6	8b 50 04	 mov	 edx, DWORD PTR [eax+4]
  001b9	8b 08		 mov	 ecx, DWORD PTR [eax]
  001bb	89 55 d4	 mov	 DWORD PTR __Tmp$548534[ebp+4], edx
  001be	8b 16		 mov	 edx, DWORD PTR [esi]
  001c0	89 10		 mov	 DWORD PTR [eax], edx
  001c2	8b 56 04	 mov	 edx, DWORD PTR [esi+4]
  001c5	89 50 04	 mov	 DWORD PTR [eax+4], edx
  001c8	89 0e		 mov	 DWORD PTR [esi], ecx
  001ca	8b 4d d4	 mov	 ecx, DWORD PTR __Tmp$548534[ebp+4]
  001cd	89 4e 04	 mov	 DWORD PTR [esi+4], ecx
$LN84@Unguarded_:

; 3760 : 			_STD iter_swap(_Pfirst, --_Plast);

  001d0	8b 56 04	 mov	 edx, DWORD PTR [esi+4]
  001d3	8b 0e		 mov	 ecx, DWORD PTR [esi]
  001d5	83 eb 08	 sub	 ebx, 8
  001d8	89 55 cc	 mov	 DWORD PTR __Tmp$548566[ebp+4], edx
  001db	8b 13		 mov	 edx, DWORD PTR [ebx]
  001dd	89 16		 mov	 DWORD PTR [esi], edx
  001df	8b 53 04	 mov	 edx, DWORD PTR [ebx+4]
  001e2	89 56 04	 mov	 DWORD PTR [esi+4], edx
  001e5	89 0b		 mov	 DWORD PTR [ebx], ecx
  001e7	8b 4d cc	 mov	 ecx, DWORD PTR __Tmp$548566[ebp+4]
  001ea	89 4b 04	 mov	 DWORD PTR [ebx+4], ecx

; 3761 : 			}
; 3762 : 		else

  001ed	e9 9a fe ff ff	 jmp	 $LL23@Unguarded_
$LN3@Unguarded_:

; 3763 : 			_STD iter_swap(_Gfirst++, --_Glast);

  001f2	8b 57 04	 mov	 edx, DWORD PTR [edi+4]
  001f5	8b 0f		 mov	 ecx, DWORD PTR [edi]
  001f7	89 55 c4	 mov	 DWORD PTR __Tmp$548599[ebp+4], edx
  001fa	8b 10		 mov	 edx, DWORD PTR [eax]
  001fc	89 17		 mov	 DWORD PTR [edi], edx
  001fe	8b 50 04	 mov	 edx, DWORD PTR [eax+4]
  00201	89 57 04	 mov	 DWORD PTR [edi+4], edx
  00204	89 08		 mov	 DWORD PTR [eax], ecx
  00206	8b 4d c4	 mov	 ecx, DWORD PTR __Tmp$548599[ebp+4]
  00209	89 48 04	 mov	 DWORD PTR [eax+4], ecx
  0020c	83 c7 08	 add	 edi, 8

; 3764 : 		}

  0020f	e9 78 fe ff ff	 jmp	 $LL23@Unguarded_
$LN120@Unguarded_:

; 3747 : 			return (_STD pair<_RanIt, _RanIt>(_Pfirst, _Plast));

  00214	8b 45 08	 mov	 eax, DWORD PTR ___$ReturnUdt$[ebp]
  00217	5f		 pop	 edi
  00218	89 30		 mov	 DWORD PTR [eax], esi
  0021a	5e		 pop	 esi
  0021b	89 58 04	 mov	 DWORD PTR [eax+4], ebx
  0021e	5b		 pop	 ebx

; 3765 : 	}

  0021f	c9		 leave
  00220	c3		 ret	 0
??$_Unguarded_partition@PAUCharDistanceSq@FindPredicate@@VSightTargetSort@FD_SightTarget@@@std@@YA?AU?$pair@PAUCharDistanceSq@FindPredicate@@PAU12@@0@PAUCharDistanceSq@FindPredicate@@0VSightTargetSort@FD_SightTarget@@@Z ENDP ; std::_Unguarded_partition<FindPredicate::CharDistanceSq *,FD_SightTarget::SightTargetSort>
_TEXT	ENDS
PUBLIC	??$_Make_heap@PAUCharDistanceSq@FindPredicate@@HU12@VSightTargetSort@FD_SightTarget@@@std@@YAXPAUCharDistanceSq@FindPredicate@@0VSightTargetSort@FD_SightTarget@@PAH0@Z ; std::_Make_heap<FindPredicate::CharDistanceSq *,int,FindPredicate::CharDistanceSq,FD_SightTarget::SightTargetSort>
; Function compile flags: /Ogsp
;	COMDAT ??$_Make_heap@PAUCharDistanceSq@FindPredicate@@HU12@VSightTargetSort@FD_SightTarget@@@std@@YAXPAUCharDistanceSq@FindPredicate@@0VSightTargetSort@FD_SightTarget@@PAH0@Z
_TEXT	SEGMENT
__Val$544032 = -8					; size = 8
__First$ = 8						; size = 4
__Last$ = 12						; size = 4
__Pred$ = 16						; size = 4
___formal$ = 20						; size = 4
___formal$ = 24						; size = 4
??$_Make_heap@PAUCharDistanceSq@FindPredicate@@HU12@VSightTargetSort@FD_SightTarget@@@std@@YAXPAUCharDistanceSq@FindPredicate@@0VSightTargetSort@FD_SightTarget@@PAH0@Z PROC ; std::_Make_heap<FindPredicate::CharDistanceSq *,int,FindPredicate::CharDistanceSq,FD_SightTarget::SightTargetSort>, COMDAT

; 2658 : 	{	// make nontrivial [_First, _Last) into a heap, using _Pred

  00000	55		 push	 ebp
  00001	8b ec		 mov	 ebp, esp
  00003	51		 push	 ecx
  00004	51		 push	 ecx
  00005	53		 push	 ebx

; 2659 : 	_Diff _Bottom = _Last - _First;

  00006	8b 5d 08	 mov	 ebx, DWORD PTR __First$[ebp]
  00009	56		 push	 esi
  0000a	57		 push	 edi
  0000b	8b 7d 0c	 mov	 edi, DWORD PTR __Last$[ebp]
  0000e	2b fb		 sub	 edi, ebx
  00010	c1 ff 03	 sar	 edi, 3

; 2660 : 	for (_Diff _Hole = _Bottom / 2; 0 < _Hole; )

  00013	8b c7		 mov	 eax, edi
  00015	99		 cdq
  00016	2b c2		 sub	 eax, edx
  00018	8b f0		 mov	 esi, eax
  0001a	d1 fe		 sar	 esi, 1
  0001c	85 f6		 test	 esi, esi
  0001e	7e 2a		 jle	 SHORT $LN1@Make_heap

; 2659 : 	_Diff _Bottom = _Last - _First;

  00020	8d 1c f3	 lea	 ebx, DWORD PTR [ebx+esi*8]
$LL2@Make_heap:

; 2661 : 		{	// reheap top half, bottom to top
; 2662 : 		--_Hole;
; 2663 : 		_Ty _Val = _Move(*(_First + _Hole));
; 2664 : 		_Adjust_heap(_First, _Hole, _Bottom,
; 2665 : 			_Move(_Val), _Pred);

  00023	ff 75 10	 push	 DWORD PTR __Pred$[ebp]
  00026	83 eb 08	 sub	 ebx, 8
  00029	8b 03		 mov	 eax, DWORD PTR [ebx]
  0002b	89 45 f8	 mov	 DWORD PTR __Val$544032[ebp], eax
  0002e	8b 43 04	 mov	 eax, DWORD PTR [ebx+4]
  00031	89 45 fc	 mov	 DWORD PTR __Val$544032[ebp+4], eax
  00034	8d 45 f8	 lea	 eax, DWORD PTR __Val$544032[ebp]
  00037	50		 push	 eax
  00038	57		 push	 edi
  00039	4e		 dec	 esi
  0003a	56		 push	 esi
  0003b	ff 75 08	 push	 DWORD PTR __First$[ebp]
  0003e	e8 00 00 00 00	 call	 ??$_Adjust_heap@PAUCharDistanceSq@FindPredicate@@HU12@VSightTargetSort@FD_SightTarget@@@std@@YAXPAUCharDistanceSq@FindPredicate@@HH$$QAU12@VSightTargetSort@FD_SightTarget@@@Z ; std::_Adjust_heap<FindPredicate::CharDistanceSq *,int,FindPredicate::CharDistanceSq,FD_SightTarget::SightTargetSort>
  00043	83 c4 14	 add	 esp, 20			; 00000014H
  00046	85 f6		 test	 esi, esi
  00048	7f d9		 jg	 SHORT $LL2@Make_heap
$LN1@Make_heap:
  0004a	5f		 pop	 edi
  0004b	5e		 pop	 esi
  0004c	5b		 pop	 ebx

; 2666 : 		}
; 2667 : 	}

  0004d	c9		 leave
  0004e	c3		 ret	 0
??$_Make_heap@PAUCharDistanceSq@FindPredicate@@HU12@VSightTargetSort@FD_SightTarget@@@std@@YAXPAUCharDistanceSq@FindPredicate@@0VSightTargetSort@FD_SightTarget@@PAH0@Z ENDP ; std::_Make_heap<FindPredicate::CharDistanceSq *,int,FindPredicate::CharDistanceSq,FD_SightTarget::SightTargetSort>
_TEXT	ENDS
PUBLIC	??$_Pop_heap_0@PAUCharDistanceSq@FindPredicate@@U12@VSightTargetSort@FD_SightTarget@@@std@@YAXPAUCharDistanceSq@FindPredicate@@0VSightTargetSort@FD_SightTarget@@0@Z ; std::_Pop_heap_0<FindPredicate::CharDistanceSq *,FindPredicate::CharDistanceSq,FD_SightTarget::SightTargetSort>
; Function compile flags: /Ogsp
;	COMDAT ??$_Pop_heap_0@PAUCharDistanceSq@FindPredicate@@U12@VSightTargetSort@FD_SightTarget@@@std@@YAXPAUCharDistanceSq@FindPredicate@@0VSightTargetSort@FD_SightTarget@@0@Z
_TEXT	SEGMENT
__Val$ = -8						; size = 8
__First$ = 8						; size = 4
__Last$ = 12						; size = 4
__Pred$ = 16						; size = 4
___formal$ = 20						; size = 4
??$_Pop_heap_0@PAUCharDistanceSq@FindPredicate@@U12@VSightTargetSort@FD_SightTarget@@@std@@YAXPAUCharDistanceSq@FindPredicate@@0VSightTargetSort@FD_SightTarget@@0@Z PROC ; std::_Pop_heap_0<FindPredicate::CharDistanceSq *,FindPredicate::CharDistanceSq,FD_SightTarget::SightTargetSort>, COMDAT

; 2601 : 	{	// pop *_First to *(_Last - 1) and reheap, using _Pred

  00000	55		 push	 ebp
  00001	8b ec		 mov	 ebp, esp
  00003	51		 push	 ecx
  00004	51		 push	 ecx

; 2602 : 	_Ty _Val = _Move(*(_Last - 1));

  00005	8b 45 0c	 mov	 eax, DWORD PTR __Last$[ebp]
  00008	83 c0 f8	 add	 eax, -8			; fffffff8H
  0000b	8b 08		 mov	 ecx, DWORD PTR [eax]

; 2603 : 	_Pop_heap(_First, _Last - 1, _Last - 1,
; 2604 : 		_Move(_Val), _Pred, _Dist_type(_First));

  0000d	6a 00		 push	 0
  0000f	ff 75 10	 push	 DWORD PTR __Pred$[ebp]
  00012	89 4d f8	 mov	 DWORD PTR __Val$[ebp], ecx
  00015	8b 48 04	 mov	 ecx, DWORD PTR [eax+4]
  00018	89 4d fc	 mov	 DWORD PTR __Val$[ebp+4], ecx
  0001b	8d 4d f8	 lea	 ecx, DWORD PTR __Val$[ebp]
  0001e	51		 push	 ecx
  0001f	50		 push	 eax
  00020	50		 push	 eax
  00021	ff 75 08	 push	 DWORD PTR __First$[ebp]
  00024	e8 00 00 00 00	 call	 ??$_Pop_heap@PAUCharDistanceSq@FindPredicate@@HU12@VSightTargetSort@FD_SightTarget@@@std@@YAXPAUCharDistanceSq@FindPredicate@@00$$QAU12@VSightTargetSort@FD_SightTarget@@PAH@Z ; std::_Pop_heap<FindPredicate::CharDistanceSq *,int,FindPredicate::CharDistanceSq,FD_SightTarget::SightTargetSort>
  00029	83 c4 18	 add	 esp, 24			; 00000018H

; 2605 : 	}

  0002c	c9		 leave
  0002d	c3		 ret	 0
??$_Pop_heap_0@PAUCharDistanceSq@FindPredicate@@U12@VSightTargetSort@FD_SightTarget@@@std@@YAXPAUCharDistanceSq@FindPredicate@@0VSightTargetSort@FD_SightTarget@@0@Z ENDP ; std::_Pop_heap_0<FindPredicate::CharDistanceSq *,FindPredicate::CharDistanceSq,FD_SightTarget::SightTargetSort>
_TEXT	ENDS
PUBLIC	__real@3fe0000000000000
PUBLIC	_rkNotTargetedCharList$GSCopy$
PUBLIC	_rkTargetedCharList$GSCopy$
PUBLIC	_rkCandidateList$GSCopy$
PUBLIC	__$ArrayPad$
;	COMDAT __real@3fe0000000000000
; File d:\lost saga for developer\youtube\tutorial\source\src\lsclient\encryptvalue.h
CONST	SEGMENT
__real@3fe0000000000000 DQ 03fe0000000000000r	; 0.5
; Function compile flags: /Ogsp
; File d:\lost saga for developer\youtube\tutorial\source\src\lsclient\findpredicateimpl.cpp
CONST	ENDS
;	COMDAT ?GetFindCharList@FD_RangeMultipleTarget@@UAEXABV?$vector@PAVioBaseChar@@V?$allocator@PAVioBaseChar@@@std@@@std@@AAV23@1@Z
_TEXT	SEGMENT
_vOwnerDir$542451 = -72					; size = 12
_value$548925 = -60					; size = 4
_value$548938 = -56					; size = 4
_rkTargetedCharList$GSCopy$ = -52			; size = 4
_value$548911 = -48					; size = 4
_iter$ = -44						; size = 4
_rkCandidateList$GSCopy$ = -40				; size = 4
_value$548952 = -36					; size = 4
$T548797 = -36						; size = 4
$T548717 = -36						; size = 4
tv791 = -32						; size = 4
$T548895 = -32						; size = 4
tv811 = -28						; size = 4
tv798 = -28						; size = 4
tv761 = -28						; size = 4
_rkNotTargetedCharList$GSCopy$ = -24			; size = 4
_pChar$542441 = -20					; size = 4
_vDiff$542445 = -16					; size = 12
__$ArrayPad$ = -4					; size = 4
_rkCandidateList$ = 8					; size = 4
_rkTargetedCharList$ = 12				; size = 4
_rkNotTargetedCharList$ = 16				; size = 4
?GetFindCharList@FD_RangeMultipleTarget@@UAEXABV?$vector@PAVioBaseChar@@V?$allocator@PAVioBaseChar@@@std@@@std@@AAV23@1@Z PROC ; FD_RangeMultipleTarget::GetFindCharList, COMDAT
; _this$ = ecx

; 737  : {

  00000	55		 push	 ebp
  00001	8b ec		 mov	 ebp, esp
  00003	83 ec 48	 sub	 esp, 72			; 00000048H
  00006	a1 00 00 00 00	 mov	 eax, DWORD PTR ___security_cookie
  0000b	33 c5		 xor	 eax, ebp
  0000d	89 45 fc	 mov	 DWORD PTR __$ArrayPad$[ebp], eax

; 743  : 
; 744  : 	BaseCharList::const_iterator iter;
; 745  : 	for( iter = rkCandidateList.begin() ; iter != rkCandidateList.end() ; ++iter )

  00010	8b 45 08	 mov	 eax, DWORD PTR _rkCandidateList$[ebp]
  00013	53		 push	 ebx
  00014	56		 push	 esi
  00015	8b 75 0c	 mov	 esi, DWORD PTR _rkTargetedCharList$[ebp]
  00018	57		 push	 edi
  00019	8b 7d 10	 mov	 edi, DWORD PTR _rkNotTargetedCharList$[ebp]
  0001c	8b d9		 mov	 ebx, ecx
  0001e	89 45 d8	 mov	 DWORD PTR _rkCandidateList$GSCopy$[ebp], eax
  00021	89 75 cc	 mov	 DWORD PTR _rkTargetedCharList$GSCopy$[ebp], esi
  00024	89 7d e8	 mov	 DWORD PTR _rkNotTargetedCharList$GSCopy$[ebp], edi
  00027	e8 00 00 00 00	 call	 ?IsExperienceOwner@FindPredicate@@IAE_NXZ ; FindPredicate::IsExperienceOwner
  0002c	84 c0		 test	 al, al
  0002e	0f 85 24 02 00
	00		 jne	 $LN11@GetFindCha@9

; 738  : 	if( IsExperienceOwner() )
; 739  : 		return;
; 740  : 
; 741  : 	rkTargetedCharList.clear();

  00034	8b 46 04	 mov	 eax, DWORD PTR [esi+4]
  00037	8b 0e		 mov	 ecx, DWORD PTR [esi]
  00039	50		 push	 eax
  0003a	51		 push	 ecx
  0003b	8d 45 dc	 lea	 eax, DWORD PTR $T548717[ebp]
  0003e	50		 push	 eax
  0003f	8b ce		 mov	 ecx, esi
  00041	e8 00 00 00 00	 call	 ?erase@?$vector@PAVioBaseChar@@V?$allocator@PAVioBaseChar@@@std@@@std@@QAE?AV?$_Vector_iterator@V?$_Vector_val@PAVioBaseChar@@V?$allocator@PAVioBaseChar@@@std@@@std@@@2@V?$_Vector_const_iterator@V?$_Vector_val@PAVioBaseChar@@V?$allocator@PAVioBaseChar@@@std@@@std@@@2@0@Z ; std::vector<ioBaseChar *,std::allocator<ioBaseChar *> >::erase

; 742  : 	rkNotTargetedCharList.clear();

  00046	8b 47 04	 mov	 eax, DWORD PTR [edi+4]
  00049	8b 0f		 mov	 ecx, DWORD PTR [edi]
  0004b	50		 push	 eax
  0004c	51		 push	 ecx
  0004d	8d 45 dc	 lea	 eax, DWORD PTR $T548797[ebp]
  00050	50		 push	 eax
  00051	8b cf		 mov	 ecx, edi
  00053	e8 00 00 00 00	 call	 ?erase@?$vector@PAVioBaseChar@@V?$allocator@PAVioBaseChar@@@std@@@std@@QAE?AV?$_Vector_iterator@V?$_Vector_val@PAVioBaseChar@@V?$allocator@PAVioBaseChar@@@std@@@std@@@2@V?$_Vector_const_iterator@V?$_Vector_val@PAVioBaseChar@@V?$allocator@PAVioBaseChar@@@std@@@std@@@2@0@Z ; std::vector<ioBaseChar *,std::allocator<ioBaseChar *> >::erase

; 743  : 
; 744  : 	BaseCharList::const_iterator iter;
; 745  : 	for( iter = rkCandidateList.begin() ; iter != rkCandidateList.end() ; ++iter )

  00058	8b 45 d8	 mov	 eax, DWORD PTR _rkCandidateList$GSCopy$[ebp]
  0005b	8b 08		 mov	 ecx, DWORD PTR [eax]
  0005d	e9 ea 01 00 00	 jmp	 $LN112@GetFindCha@9
$LL61@GetFindCha@9:

; 746  : 	{
; 747  : 		ioBaseChar *pChar = *iter;

  00062	8b 39		 mov	 edi, DWORD PTR [ecx]
  00064	89 7d ec	 mov	 DWORD PTR _pChar$542441[ebp], edi

; 748  : 		if( !pChar )

  00067	85 ff		 test	 edi, edi
  00069	0f 84 d4 01 00
	00		 je	 $LN12@GetFindCha@9

; 749  : 			continue;
; 750  : 
; 751  : 		CharState eState = pChar->GetState();		
; 752  : 		if( pChar == m_pOwner )

  0006f	3b 7b 04	 cmp	 edi, DWORD PTR [ebx+4]
  00072	0f 84 cb 01 00
	00		 je	 $LN12@GetFindCha@9

; 753  : 			continue;
; 754  : 		
; 755  : 		D3DXVECTOR3 vDiff = pChar->GetWorldPosition() - m_pOwner->GetWorldPosition();

  00078	8b 4b 04	 mov	 ecx, DWORD PTR [ebx+4]
  0007b	8b 01		 mov	 eax, DWORD PTR [ecx]
  0007d	ff 50 70	 call	 DWORD PTR [eax+112]
  00080	8b f0		 mov	 esi, eax
  00082	8b 07		 mov	 eax, DWORD PTR [edi]
  00084	8b cf		 mov	 ecx, edi
  00086	ff 50 70	 call	 DWORD PTR [eax+112]
  00089	f3 0f 10 4e 04	 movss	 xmm1, DWORD PTR [esi+4]
  0008e	f3 0f 10 40 04	 movss	 xmm0, DWORD PTR [eax+4]
  00093	f3 0f 10 56 08	 movss	 xmm2, DWORD PTR [esi+8]
  00098	f3 0f 10 1e	 movss	 xmm3, DWORD PTR [esi]
  0009c	0f 5a c0	 cvtps2pd xmm0, xmm0
  0009f	0f 5a c9	 cvtps2pd xmm1, xmm1
  000a2	f2 0f 5c c1	 subsd	 xmm0, xmm1
  000a6	f3 0f 10 48 08	 movss	 xmm1, DWORD PTR [eax+8]
  000ab	0f 5a d2	 cvtps2pd xmm2, xmm2
  000ae	0f 5a c9	 cvtps2pd xmm1, xmm1
  000b1	f2 0f 5c ca	 subsd	 xmm1, xmm2
  000b5	f3 0f 10 10	 movss	 xmm2, DWORD PTR [eax]
  000b9	66 0f 5a c0	 cvtpd2ps xmm0, xmm0
  000bd	0f 5a d2	 cvtps2pd xmm2, xmm2
  000c0	f3 0f 11 45 f4	 movss	 DWORD PTR _vDiff$542445[ebp+4], xmm0
  000c5	66 0f 5a c9	 cvtpd2ps xmm1, xmm1

; 756  : 		float fCurDistSq = D3DXVec3LengthSq( &vDiff );

  000c9	f3 0f 5a c0	 cvtss2sd xmm0, xmm0
  000cd	0f 5a db	 cvtps2pd xmm3, xmm3
  000d0	f2 0f 5c d3	 subsd	 xmm2, xmm3
  000d4	66 0f 5a d2	 cvtpd2ps xmm2, xmm2
  000d8	f3 0f 11 55 f0	 movss	 DWORD PTR _vDiff$542445[ebp], xmm2
  000dd	f3 0f 11 4d f8	 movss	 DWORD PTR _vDiff$542445[ebp+8], xmm1
  000e2	f2 0f 59 c0	 mulsd	 xmm0, xmm0
  000e6	f3 0f 5a d2	 cvtss2sd xmm2, xmm2
  000ea	f3 0f 5a c9	 cvtss2sd xmm1, xmm1
  000ee	f2 0f 59 d2	 mulsd	 xmm2, xmm2
  000f2	f2 0f 58 c2	 addsd	 xmm0, xmm2
  000f6	f2 0f 59 c9	 mulsd	 xmm1, xmm1
  000fa	f2 0f 58 c1	 addsd	 xmm0, xmm1
  000fe	0f 57 c9	 xorps	 xmm1, xmm1
  00101	66 0f 5a c8	 cvtpd2ps xmm1, xmm0

; 757  : 		if( m_fMaxRange * m_fMaxRange < fCurDistSq || m_fMinRange * m_fMinRange > fCurDistSq )

  00105	f3 0f 10 43 08	 movss	 xmm0, DWORD PTR [ebx+8]
  0010a	0f 5a c0	 cvtps2pd xmm0, xmm0
  0010d	0f 57 d2	 xorps	 xmm2, xmm2
  00110	f2 0f 59 c0	 mulsd	 xmm0, xmm0
  00114	0f 5a d1	 cvtps2pd xmm2, xmm1
  00117	66 0f 2f d0	 comisd	 xmm2, xmm0
  0011b	0f 87 16 01 00
	00		 ja	 $LN7@GetFindCha@9
  00121	f3 0f 10 43 0c	 movss	 xmm0, DWORD PTR [ebx+12]
  00126	0f 5a c0	 cvtps2pd xmm0, xmm0
  00129	f2 0f 59 c0	 mulsd	 xmm0, xmm0
  0012d	0f 5a c9	 cvtps2pd xmm1, xmm1
  00130	66 0f 2f c1	 comisd	 xmm0, xmm1
  00134	0f 87 fd 00 00
	00		 ja	 $LN7@GetFindCha@9

; 760  : 			continue;
; 761  : 		}
; 762  : 		
; 763  : 		float fMaxHalfCosine  = cosf( DEGtoRAD( m_fMaxAngle ) * 0.5f  );

  0013a	d9 43 14	 fld	 DWORD PTR [ebx+20]

; 764  : 		D3DXVECTOR3 vOwnerDir = m_pOwner->GetMoveDir();

  0013d	8b 73 04	 mov	 esi, DWORD PTR [ebx+4]
  00140	dc 0d 00 00 00
	00		 fmul	 QWORD PTR __real@3f91df46a2526c7a
  00146	81 c6 b4 06 00
	00		 add	 esi, 1716		; 000006b4H
  0014c	8d 7d b8	 lea	 edi, DWORD PTR _vOwnerDir$542451[ebp]
  0014f	a5		 movsd
  00150	d9 5d e4	 fstp	 DWORD PTR tv811[ebp]
  00153	d9 45 e4	 fld	 DWORD PTR tv811[ebp]
  00156	a5		 movsd
  00157	dc 0d 00 00 00
	00		 fmul	 QWORD PTR __real@3fe0000000000000

; 765  : 		vDiff.y = 0.0f;
; 766  : 		D3DXVec3Normalize( &vDiff, &vDiff );

  0015d	8d 45 f0	 lea	 eax, DWORD PTR _vDiff$542445[ebp]
  00160	d9 5d e0	 fstp	 DWORD PTR $T548895[ebp]
  00163	d9 ee		 fldz
  00165	50		 push	 eax
  00166	a5		 movsd
  00167	d9 5d f4	 fstp	 DWORD PTR _vDiff$542445[ebp+4]
  0016a	50		 push	 eax
  0016b	e8 00 00 00 00	 call	 _D3DXVec3Normalize@8

; 767  : 
; 768  : 		float fHalfCosine = D3DXVec3Dot( &vOwnerDir, &vDiff );
; 769  : 		if( fHalfCosine < fMaxHalfCosine )

  00170	d9 45 b8	 fld	 DWORD PTR _vOwnerDir$542451[ebp]
  00173	d8 4d f0	 fmul	 DWORD PTR _vDiff$542445[ebp]
  00176	d9 45 bc	 fld	 DWORD PTR _vOwnerDir$542451[ebp+4]
  00179	d8 4d f4	 fmul	 DWORD PTR _vDiff$542445[ebp+4]
  0017c	de c1		 faddp	 ST(1), ST(0)
  0017e	d9 45 c0	 fld	 DWORD PTR _vOwnerDir$542451[ebp+8]
  00181	d8 4d f8	 fmul	 DWORD PTR _vDiff$542445[ebp+8]
  00184	de c1		 faddp	 ST(1), ST(0)
  00186	d9 5d e4	 fstp	 DWORD PTR tv798[ebp]
  00189	d9 45 e4	 fld	 DWORD PTR tv798[ebp]
  0018c	d9 5d e4	 fstp	 DWORD PTR tv761[ebp]
  0018f	d9 45 e0	 fld	 DWORD PTR $T548895[ebp]
  00192	e8 00 00 00 00	 call	 __CIcos
  00197	d9 5d e0	 fstp	 DWORD PTR tv791[ebp]
  0019a	d9 45 e4	 fld	 DWORD PTR tv761[ebp]
  0019d	d9 45 e0	 fld	 DWORD PTR tv791[ebp]
  001a0	df f1		 fcomip	 ST(1)
  001a2	dd d8		 fstp	 ST(0)

; 770  : 		{
; 771  : 			rkNotTargetedCharList.push_back( pChar );
; 772  : 			continue;

  001a4	0f 87 8d 00 00
	00		 ja	 $LN7@GetFindCha@9

; 773  : 		}
; 774  : 		
; 775  : 		if( !FindPredicateUtil::CheckTargetState( pChar, m_bDownAim, m_bHideTargetFind ) )

  001aa	0f b6 43 18	 movzx	 eax, BYTE PTR [ebx+24]
  001ae	8b 75 ec	 mov	 esi, DWORD PTR _pChar$542441[ebp]
  001b1	50		 push	 eax
  001b2	0f b6 43 11	 movzx	 eax, BYTE PTR [ebx+17]
  001b6	50		 push	 eax
  001b7	56		 push	 esi
  001b8	e8 00 00 00 00	 call	 ?CheckTargetState@FindPredicateUtil@@YA_NPAVioBaseChar@@_N1@Z ; FindPredicateUtil::CheckTargetState
  001bd	83 c4 0c	 add	 esp, 12			; 0000000cH
  001c0	84 c0		 test	 al, al

; 776  : 		{
; 777  : 			rkNotTargetedCharList.push_back( pChar );
; 778  : 			continue;

  001c2	74 73		 je	 SHORT $LN7@GetFindCha@9

; 779  : 		}
; 780  : 
; 781  : 		if( m_bOwnerTeam && pChar->GetTeam() == m_pOwner->GetTeam() )

  001c4	80 7b 10 00	 cmp	 BYTE PTR [ebx+16], 0
  001c8	74 2f		 je	 SHORT $LN114@GetFindCha@9
  001ca	8d 45 d0	 lea	 eax, DWORD PTR _value$548911[ebp]
  001cd	50		 push	 eax
  001ce	8d 8e 90 00 00
	00		 lea	 ecx, DWORD PTR [esi+144]
  001d4	e8 00 00 00 00	 call	 ?DecryptValueToPool@?$CEncrypt@W4TeamType@@@@QAEXPAW4TeamType@@@Z ; CEncrypt<enum TeamType>::DecryptValueToPool
  001d9	8b 4b 04	 mov	 ecx, DWORD PTR [ebx+4]
  001dc	8d 45 c4	 lea	 eax, DWORD PTR _value$548925[ebp]
  001df	50		 push	 eax
  001e0	81 c1 90 00 00
	00		 add	 ecx, 144		; 00000090H
  001e6	e8 00 00 00 00	 call	 ?DecryptValueToPool@?$CEncrypt@W4TeamType@@@@QAEXPAW4TeamType@@@Z ; CEncrypt<enum TeamType>::DecryptValueToPool
  001eb	8b 45 d0	 mov	 eax, DWORD PTR _value$548911[ebp]
  001ee	3b 45 c4	 cmp	 eax, DWORD PTR _value$548925[ebp]

; 782  : 		{
; 783  : 			rkNotTargetedCharList.push_back( pChar );
; 784  : 			continue;

  001f1	74 44		 je	 SHORT $LN7@GetFindCha@9

; 785  : 		}
; 786  : 		else if(!m_bOwnerTeam && pChar->GetTeam() != m_pOwner->GetTeam() )

  001f3	80 7b 10 00	 cmp	 BYTE PTR [ebx+16], 0
  001f7	75 29		 jne	 SHORT $LN2@GetFindCha@9
$LN114@GetFindCha@9:
  001f9	8d 45 c8	 lea	 eax, DWORD PTR _value$548938[ebp]
  001fc	50		 push	 eax
  001fd	8d 8e 90 00 00
	00		 lea	 ecx, DWORD PTR [esi+144]
  00203	e8 00 00 00 00	 call	 ?DecryptValueToPool@?$CEncrypt@W4TeamType@@@@QAEXPAW4TeamType@@@Z ; CEncrypt<enum TeamType>::DecryptValueToPool
  00208	8b 4b 04	 mov	 ecx, DWORD PTR [ebx+4]
  0020b	8d 45 dc	 lea	 eax, DWORD PTR _value$548952[ebp]
  0020e	50		 push	 eax
  0020f	81 c1 90 00 00
	00		 add	 ecx, 144		; 00000090H
  00215	e8 00 00 00 00	 call	 ?DecryptValueToPool@?$CEncrypt@W4TeamType@@@@QAEXPAW4TeamType@@@Z ; CEncrypt<enum TeamType>::DecryptValueToPool
  0021a	8b 45 c8	 mov	 eax, DWORD PTR _value$548938[ebp]
  0021d	3b 45 dc	 cmp	 eax, DWORD PTR _value$548952[ebp]

; 787  : 		{
; 788  : 			rkNotTargetedCharList.push_back( pChar );
; 789  : 			continue;

  00220	75 15		 jne	 SHORT $LN7@GetFindCha@9
$LN2@GetFindCha@9:

; 790  : 		}
; 791  : 
; 792  : 		if( !CheckFindUser( pChar ) )

  00222	8b 03		 mov	 eax, DWORD PTR [ebx]
  00224	56		 push	 esi
  00225	8b cb		 mov	 ecx, ebx
  00227	ff 50 08	 call	 DWORD PTR [eax+8]
  0022a	84 c0		 test	 al, al

; 793  : 		{
; 794  : 			rkNotTargetedCharList.push_back( pChar );

  0022c	8d 45 ec	 lea	 eax, DWORD PTR _pChar$542441[ebp]
  0022f	50		 push	 eax

; 795  : 			continue;

  00230	74 09		 je	 SHORT $LN115@GetFindCha@9

; 796  : 		}
; 797  : 
; 798  : 		rkTargetedCharList.push_back( pChar );

  00232	8b 4d cc	 mov	 ecx, DWORD PTR _rkTargetedCharList$GSCopy$[ebp]

; 799  : 	}	

  00235	eb 07		 jmp	 SHORT $LN116@GetFindCha@9
$LN7@GetFindCha@9:

; 758  : 		{
; 759  : 			rkNotTargetedCharList.push_back( pChar );

  00237	8d 45 ec	 lea	 eax, DWORD PTR _pChar$542441[ebp]
  0023a	50		 push	 eax
$LN115@GetFindCha@9:
  0023b	8b 4d e8	 mov	 ecx, DWORD PTR _rkNotTargetedCharList$GSCopy$[ebp]
$LN116@GetFindCha@9:
  0023e	e8 00 00 00 00	 call	 ?push_back@?$vector@PAVioBaseChar@@V?$allocator@PAVioBaseChar@@@std@@@std@@QAEXABQAVioBaseChar@@@Z ; std::vector<ioBaseChar *,std::allocator<ioBaseChar *> >::push_back
$LN12@GetFindCha@9:

; 743  : 
; 744  : 	BaseCharList::const_iterator iter;
; 745  : 	for( iter = rkCandidateList.begin() ; iter != rkCandidateList.end() ; ++iter )

  00243	8b 4d d4	 mov	 ecx, DWORD PTR _iter$[ebp]
  00246	8b 45 d8	 mov	 eax, DWORD PTR _rkCandidateList$GSCopy$[ebp]
  00249	83 c1 04	 add	 ecx, 4
$LN112@GetFindCha@9:
  0024c	89 4d d4	 mov	 DWORD PTR _iter$[ebp], ecx
  0024f	3b 48 04	 cmp	 ecx, DWORD PTR [eax+4]
  00252	0f 85 0a fe ff
	ff		 jne	 $LL61@GetFindCha@9
$LN11@GetFindCha@9:

; 800  : }

  00258	8b 4d fc	 mov	 ecx, DWORD PTR __$ArrayPad$[ebp]
  0025b	5f		 pop	 edi
  0025c	5e		 pop	 esi
  0025d	33 cd		 xor	 ecx, ebp
  0025f	5b		 pop	 ebx
  00260	e8 00 00 00 00	 call	 @__security_check_cookie@4
  00265	c9		 leave
  00266	c2 0c 00	 ret	 12			; 0000000cH
?GetFindCharList@FD_RangeMultipleTarget@@UAEXABV?$vector@PAVioBaseChar@@V?$allocator@PAVioBaseChar@@@std@@@std@@AAV23@1@Z ENDP ; FD_RangeMultipleTarget::GetFindCharList
_TEXT	ENDS
PUBLIC	??$make_heap@PAUCharDistanceSq@FindPredicate@@VSightTargetSort@FD_SightTarget@@@std@@YAXPAUCharDistanceSq@FindPredicate@@0VSightTargetSort@FD_SightTarget@@@Z ; std::make_heap<FindPredicate::CharDistanceSq *,FD_SightTarget::SightTargetSort>
; Function compile flags: /Ogsp
; File c:\program files (x86)\microsoft visual studio 10.0\vc\include\algorithm
;	COMDAT ??$make_heap@PAUCharDistanceSq@FindPredicate@@VSightTargetSort@FD_SightTarget@@@std@@YAXPAUCharDistanceSq@FindPredicate@@0VSightTargetSort@FD_SightTarget@@@Z
_TEXT	SEGMENT
__First$ = 8						; size = 4
__Last$ = 12						; size = 4
__Pred$ = 16						; size = 4
??$make_heap@PAUCharDistanceSq@FindPredicate@@VSightTargetSort@FD_SightTarget@@@std@@YAXPAUCharDistanceSq@FindPredicate@@0VSightTargetSort@FD_SightTarget@@@Z PROC ; std::make_heap<FindPredicate::CharDistanceSq *,FD_SightTarget::SightTargetSort>, COMDAT

; 2672 : 	{	// make [_First, _Last) into a heap, using _Pred

  00000	55		 push	 ebp
  00001	8b ec		 mov	 ebp, esp

; 2673 : 	_DEBUG_RANGE(_First, _Last);
; 2674 : 	_DEBUG_POINTER(_Pred);
; 2675 : 	if (1 < _Last - _First)

  00003	8b 45 0c	 mov	 eax, DWORD PTR __Last$[ebp]
  00006	2b 45 08	 sub	 eax, DWORD PTR __First$[ebp]
  00009	83 e0 f8	 and	 eax, -8			; fffffff8H
  0000c	83 f8 08	 cmp	 eax, 8
  0000f	7e 15		 jle	 SHORT $LN1@make_heap

; 2676 : 		_Make_heap(_Unchecked(_First), _Unchecked(_Last), _Pred,
; 2677 : 			_Dist_type(_First), _Val_type(_First));

  00011	6a 00		 push	 0
  00013	6a 00		 push	 0
  00015	ff 75 10	 push	 DWORD PTR __Pred$[ebp]
  00018	ff 75 0c	 push	 DWORD PTR __Last$[ebp]
  0001b	ff 75 08	 push	 DWORD PTR __First$[ebp]
  0001e	e8 00 00 00 00	 call	 ??$_Make_heap@PAUCharDistanceSq@FindPredicate@@HU12@VSightTargetSort@FD_SightTarget@@@std@@YAXPAUCharDistanceSq@FindPredicate@@0VSightTargetSort@FD_SightTarget@@PAH0@Z ; std::_Make_heap<FindPredicate::CharDistanceSq *,int,FindPredicate::CharDistanceSq,FD_SightTarget::SightTargetSort>
  00023	83 c4 14	 add	 esp, 20			; 00000014H
$LN1@make_heap:

; 2678 : 	}

  00026	5d		 pop	 ebp
  00027	c3		 ret	 0
??$make_heap@PAUCharDistanceSq@FindPredicate@@VSightTargetSort@FD_SightTarget@@@std@@YAXPAUCharDistanceSq@FindPredicate@@0VSightTargetSort@FD_SightTarget@@@Z ENDP ; std::make_heap<FindPredicate::CharDistanceSq *,FD_SightTarget::SightTargetSort>
_TEXT	ENDS
PUBLIC	??$_Pop_heap@PAUCharDistanceSq@FindPredicate@@VSightTargetSort@FD_SightTarget@@@std@@YAXPAUCharDistanceSq@FindPredicate@@0VSightTargetSort@FD_SightTarget@@@Z ; std::_Pop_heap<FindPredicate::CharDistanceSq *,FD_SightTarget::SightTargetSort>
; Function compile flags: /Ogsp
;	COMDAT ??$_Pop_heap@PAUCharDistanceSq@FindPredicate@@VSightTargetSort@FD_SightTarget@@@std@@YAXPAUCharDistanceSq@FindPredicate@@0VSightTargetSort@FD_SightTarget@@@Z
_TEXT	SEGMENT
__First$ = 8						; size = 4
__Last$ = 12						; size = 4
__Pred$ = 16						; size = 4
??$_Pop_heap@PAUCharDistanceSq@FindPredicate@@VSightTargetSort@FD_SightTarget@@@std@@YAXPAUCharDistanceSq@FindPredicate@@0VSightTargetSort@FD_SightTarget@@@Z PROC ; std::_Pop_heap<FindPredicate::CharDistanceSq *,FD_SightTarget::SightTargetSort>, COMDAT

; 2610 : 	{	// pop *_First to *(_Last - 1) and reheap, using _Pred

  00000	55		 push	 ebp
  00001	8b ec		 mov	 ebp, esp

; 2611 : 	_Pop_heap_0(_Unchecked(_First), _Unchecked(_Last), _Pred,
; 2612 : 		_Val_type(_First));

  00003	6a 00		 push	 0
  00005	ff 75 10	 push	 DWORD PTR __Pred$[ebp]
  00008	ff 75 0c	 push	 DWORD PTR __Last$[ebp]
  0000b	ff 75 08	 push	 DWORD PTR __First$[ebp]
  0000e	e8 00 00 00 00	 call	 ??$_Pop_heap_0@PAUCharDistanceSq@FindPredicate@@U12@VSightTargetSort@FD_SightTarget@@@std@@YAXPAUCharDistanceSq@FindPredicate@@0VSightTargetSort@FD_SightTarget@@0@Z ; std::_Pop_heap_0<FindPredicate::CharDistanceSq *,FindPredicate::CharDistanceSq,FD_SightTarget::SightTargetSort>
  00013	83 c4 10	 add	 esp, 16			; 00000010H

; 2613 : 	}

  00016	5d		 pop	 ebp
  00017	c3		 ret	 0
??$_Pop_heap@PAUCharDistanceSq@FindPredicate@@VSightTargetSort@FD_SightTarget@@@std@@YAXPAUCharDistanceSq@FindPredicate@@0VSightTargetSort@FD_SightTarget@@@Z ENDP ; std::_Pop_heap<FindPredicate::CharDistanceSq *,FD_SightTarget::SightTargetSort>
_TEXT	ENDS
PUBLIC	??$_Sort_heap@PAUCharDistanceSq@FindPredicate@@VSightTargetSort@FD_SightTarget@@@std@@YAXPAUCharDistanceSq@FindPredicate@@0VSightTargetSort@FD_SightTarget@@@Z ; std::_Sort_heap<FindPredicate::CharDistanceSq *,FD_SightTarget::SightTargetSort>
; Function compile flags: /Ogsp
;	COMDAT ??$_Sort_heap@PAUCharDistanceSq@FindPredicate@@VSightTargetSort@FD_SightTarget@@@std@@YAXPAUCharDistanceSq@FindPredicate@@0VSightTargetSort@FD_SightTarget@@@Z
_TEXT	SEGMENT
__First$ = 8						; size = 4
__Last$ = 12						; size = 4
__Pred$ = 16						; size = 4
??$_Sort_heap@PAUCharDistanceSq@FindPredicate@@VSightTargetSort@FD_SightTarget@@@std@@YAXPAUCharDistanceSq@FindPredicate@@0VSightTargetSort@FD_SightTarget@@@Z PROC ; std::_Sort_heap<FindPredicate::CharDistanceSq *,FD_SightTarget::SightTargetSort>, COMDAT

; 2700 : 	{	// order heap by repeatedly popping, using _Pred

  00000	55		 push	 ebp
  00001	8b ec		 mov	 ebp, esp

; 2701 : 	for (; 1 < _Last - _First; --_Last)

  00003	8b 45 0c	 mov	 eax, DWORD PTR __Last$[ebp]
  00006	2b 45 08	 sub	 eax, DWORD PTR __First$[ebp]
  00009	8b c8		 mov	 ecx, eax
  0000b	83 e1 f8	 and	 ecx, -8			; fffffff8H
  0000e	83 f9 08	 cmp	 ecx, 8
  00011	7e 28		 jle	 SHORT $LN1@Sort_heap
  00013	57		 push	 edi
  00014	8b f8		 mov	 edi, eax
$LL3@Sort_heap:

; 2702 : 		_Pop_heap(_First, _Last, _Pred);

  00016	6a 00		 push	 0
  00018	ff 75 10	 push	 DWORD PTR __Pred$[ebp]
  0001b	ff 75 0c	 push	 DWORD PTR __Last$[ebp]
  0001e	ff 75 08	 push	 DWORD PTR __First$[ebp]
  00021	e8 00 00 00 00	 call	 ??$_Pop_heap_0@PAUCharDistanceSq@FindPredicate@@U12@VSightTargetSort@FD_SightTarget@@@std@@YAXPAUCharDistanceSq@FindPredicate@@0VSightTargetSort@FD_SightTarget@@0@Z ; std::_Pop_heap_0<FindPredicate::CharDistanceSq *,FindPredicate::CharDistanceSq,FD_SightTarget::SightTargetSort>
  00026	83 6d 0c 08	 sub	 DWORD PTR __Last$[ebp], 8
  0002a	83 ef 08	 sub	 edi, 8
  0002d	8b c7		 mov	 eax, edi
  0002f	83 e0 f8	 and	 eax, -8			; fffffff8H
  00032	83 c4 10	 add	 esp, 16			; 00000010H
  00035	83 f8 08	 cmp	 eax, 8
  00038	7f dc		 jg	 SHORT $LL3@Sort_heap
  0003a	5f		 pop	 edi
$LN1@Sort_heap:

; 2703 : 	}

  0003b	5d		 pop	 ebp
  0003c	c3		 ret	 0
??$_Sort_heap@PAUCharDistanceSq@FindPredicate@@VSightTargetSort@FD_SightTarget@@@std@@YAXPAUCharDistanceSq@FindPredicate@@0VSightTargetSort@FD_SightTarget@@@Z ENDP ; std::_Sort_heap<FindPredicate::CharDistanceSq *,FD_SightTarget::SightTargetSort>
_TEXT	ENDS
PUBLIC	??$sort_heap@PAUCharDistanceSq@FindPredicate@@VSightTargetSort@FD_SightTarget@@@std@@YAXPAUCharDistanceSq@FindPredicate@@0VSightTargetSort@FD_SightTarget@@@Z ; std::sort_heap<FindPredicate::CharDistanceSq *,FD_SightTarget::SightTargetSort>
; Function compile flags: /Ogsp
;	COMDAT ??$sort_heap@PAUCharDistanceSq@FindPredicate@@VSightTargetSort@FD_SightTarget@@@std@@YAXPAUCharDistanceSq@FindPredicate@@0VSightTargetSort@FD_SightTarget@@@Z
_TEXT	SEGMENT
__First$ = 8						; size = 4
__Last$ = 12						; size = 4
__Pred$ = 16						; size = 4
??$sort_heap@PAUCharDistanceSq@FindPredicate@@VSightTargetSort@FD_SightTarget@@@std@@YAXPAUCharDistanceSq@FindPredicate@@0VSightTargetSort@FD_SightTarget@@@Z PROC ; std::sort_heap<FindPredicate::CharDistanceSq *,FD_SightTarget::SightTargetSort>, COMDAT

; 2708 : 	{	// order heap by repeatedly popping, using _Pred

  00000	55		 push	 ebp
  00001	8b ec		 mov	 ebp, esp

; 2709 : 	_DEBUG_RANGE(_First, _Last);
; 2710 : 	_DEBUG_POINTER(_Pred);
; 2711 : 	_DEBUG_HEAP_PRED(_First, _Last, _Pred);
; 2712 : 	_Sort_heap(_Unchecked(_First), _Unchecked(_Last), _Pred);

  00003	ff 75 10	 push	 DWORD PTR __Pred$[ebp]
  00006	ff 75 0c	 push	 DWORD PTR __Last$[ebp]
  00009	ff 75 08	 push	 DWORD PTR __First$[ebp]
  0000c	e8 00 00 00 00	 call	 ??$_Sort_heap@PAUCharDistanceSq@FindPredicate@@VSightTargetSort@FD_SightTarget@@@std@@YAXPAUCharDistanceSq@FindPredicate@@0VSightTargetSort@FD_SightTarget@@@Z ; std::_Sort_heap<FindPredicate::CharDistanceSq *,FD_SightTarget::SightTargetSort>
  00011	83 c4 0c	 add	 esp, 12			; 0000000cH

; 2713 : 	}

  00014	5d		 pop	 ebp
  00015	c3		 ret	 0
??$sort_heap@PAUCharDistanceSq@FindPredicate@@VSightTargetSort@FD_SightTarget@@@std@@YAXPAUCharDistanceSq@FindPredicate@@0VSightTargetSort@FD_SightTarget@@@Z ENDP ; std::sort_heap<FindPredicate::CharDistanceSq *,FD_SightTarget::SightTargetSort>
_TEXT	ENDS
PUBLIC	??$_Sort@PAUCharDistanceSq@FindPredicate@@HVSightTargetSort@FD_SightTarget@@@std@@YAXPAUCharDistanceSq@FindPredicate@@0HVSightTargetSort@FD_SightTarget@@@Z ; std::_Sort<FindPredicate::CharDistanceSq *,int,FD_SightTarget::SightTargetSort>
; Function compile flags: /Ogsp
;	COMDAT ??$_Sort@PAUCharDistanceSq@FindPredicate@@HVSightTargetSort@FD_SightTarget@@@std@@YAXPAUCharDistanceSq@FindPredicate@@0HVSightTargetSort@FD_SightTarget@@@Z
_TEXT	SEGMENT
__Mid$543635 = -8					; size = 8
__First$ = 8						; size = 4
__Last$ = 12						; size = 4
__Ideal$ = 16						; size = 4
__Pred$ = 20						; size = 4
??$_Sort@PAUCharDistanceSq@FindPredicate@@HVSightTargetSort@FD_SightTarget@@@std@@YAXPAUCharDistanceSq@FindPredicate@@0HVSightTargetSort@FD_SightTarget@@@Z PROC ; std::_Sort<FindPredicate::CharDistanceSq *,int,FD_SightTarget::SightTargetSort>, COMDAT

; 3771 : 	{	// order [_First, _Last), using _Pred

  00000	55		 push	 ebp
  00001	8b ec		 mov	 ebp, esp
  00003	51		 push	 ecx
  00004	51		 push	 ecx
  00005	53		 push	 ebx

; 3772 : 	_Diff _Count;
; 3773 : 	for (; _ISORT_MAX < (_Count = _Last - _First) && 0 < _Ideal; )

  00006	8b 5d 08	 mov	 ebx, DWORD PTR __First$[ebp]
  00009	57		 push	 edi
  0000a	8b 7d 0c	 mov	 edi, DWORD PTR __Last$[ebp]
  0000d	8b c7		 mov	 eax, edi
  0000f	2b c3		 sub	 eax, ebx
  00011	c1 f8 03	 sar	 eax, 3
  00014	83 f8 20	 cmp	 eax, 32			; 00000020H
  00017	0f 8e 89 00 00
	00		 jle	 $LN22@Sort
  0001d	56		 push	 esi
  0001e	8b 75 10	 mov	 esi, DWORD PTR __Ideal$[ebp]
$LL7@Sort:
  00021	85 f6		 test	 esi, esi
  00023	7e 62		 jle	 SHORT $LN6@Sort

; 3774 : 		{	// divide and conquer by quicksort
; 3775 : 		_STD pair<_RanIt, _RanIt> _Mid =
; 3776 : 			_Unguarded_partition(_First, _Last, _Pred);

  00025	ff 75 14	 push	 DWORD PTR __Pred$[ebp]
  00028	8d 45 f8	 lea	 eax, DWORD PTR __Mid$543635[ebp]
  0002b	57		 push	 edi
  0002c	53		 push	 ebx
  0002d	50		 push	 eax
  0002e	e8 00 00 00 00	 call	 ??$_Unguarded_partition@PAUCharDistanceSq@FindPredicate@@VSightTargetSort@FD_SightTarget@@@std@@YA?AU?$pair@PAUCharDistanceSq@FindPredicate@@PAU12@@0@PAUCharDistanceSq@FindPredicate@@0VSightTargetSort@FD_SightTarget@@@Z ; std::_Unguarded_partition<FindPredicate::CharDistanceSq *,FD_SightTarget::SightTargetSort>

; 3777 : 		_Ideal /= 2, _Ideal += _Ideal / 2;	// allow 1.5 log2(N) divisions
; 3778 : 
; 3779 : 		if (_Mid.first - _First < _Last - _Mid.second)

  00033	8b 4d f8	 mov	 ecx, DWORD PTR __Mid$543635[ebp]
  00036	8b c6		 mov	 eax, esi
  00038	99		 cdq
  00039	2b c2		 sub	 eax, edx
  0003b	d1 f8		 sar	 eax, 1
  0003d	8b f0		 mov	 esi, eax
  0003f	99		 cdq
  00040	2b c2		 sub	 eax, edx
  00042	d1 f8		 sar	 eax, 1
  00044	03 f0		 add	 esi, eax
  00046	8b c7		 mov	 eax, edi
  00048	2b 45 fc	 sub	 eax, DWORD PTR __Mid$543635[ebp+4]
  0004b	83 c4 10	 add	 esp, 16			; 00000010H

; 3780 : 			{	// loop on second half
; 3781 : 			_Sort(_First, _Mid.first, _Ideal, _Pred);

  0004e	ff 75 14	 push	 DWORD PTR __Pred$[ebp]
  00051	2b cb		 sub	 ecx, ebx
  00053	83 e0 f8	 and	 eax, -8			; fffffff8H
  00056	83 e1 f8	 and	 ecx, -8			; fffffff8H
  00059	56		 push	 esi
  0005a	3b c8		 cmp	 ecx, eax
  0005c	7d 0e		 jge	 SHORT $LN5@Sort
  0005e	ff 75 f8	 push	 DWORD PTR __Mid$543635[ebp]
  00061	53		 push	 ebx
  00062	e8 00 00 00 00	 call	 ??$_Sort@PAUCharDistanceSq@FindPredicate@@HVSightTargetSort@FD_SightTarget@@@std@@YAXPAUCharDistanceSq@FindPredicate@@0HVSightTargetSort@FD_SightTarget@@@Z ; std::_Sort<FindPredicate::CharDistanceSq *,int,FD_SightTarget::SightTargetSort>

; 3782 : 			_First = _Mid.second;

  00067	8b 5d fc	 mov	 ebx, DWORD PTR __Mid$543635[ebp+4]

; 3783 : 			}
; 3784 : 		else

  0006a	eb 0c		 jmp	 SHORT $LN23@Sort
$LN5@Sort:

; 3785 : 			{	// loop on first half
; 3786 : 			_Sort(_Mid.second, _Last, _Ideal, _Pred);

  0006c	57		 push	 edi
  0006d	ff 75 fc	 push	 DWORD PTR __Mid$543635[ebp+4]
  00070	e8 00 00 00 00	 call	 ??$_Sort@PAUCharDistanceSq@FindPredicate@@HVSightTargetSort@FD_SightTarget@@@std@@YAXPAUCharDistanceSq@FindPredicate@@0HVSightTargetSort@FD_SightTarget@@@Z ; std::_Sort<FindPredicate::CharDistanceSq *,int,FD_SightTarget::SightTargetSort>

; 3787 : 			_Last = _Mid.first;

  00075	8b 7d f8	 mov	 edi, DWORD PTR __Mid$543635[ebp]
$LN23@Sort:

; 3772 : 	_Diff _Count;
; 3773 : 	for (; _ISORT_MAX < (_Count = _Last - _First) && 0 < _Ideal; )

  00078	8b c7		 mov	 eax, edi
  0007a	2b c3		 sub	 eax, ebx
  0007c	c1 f8 03	 sar	 eax, 3

; 3785 : 			{	// loop on first half
; 3786 : 			_Sort(_Mid.second, _Last, _Ideal, _Pred);

  0007f	83 c4 10	 add	 esp, 16			; 00000010H
  00082	83 f8 20	 cmp	 eax, 32			; 00000020H
  00085	7f 9a		 jg	 SHORT $LL7@Sort
$LN6@Sort:
  00087	5e		 pop	 esi

; 3788 : 			}
; 3789 : 		}
; 3790 : 
; 3791 : 	if (_ISORT_MAX < _Count)

  00088	83 f8 20	 cmp	 eax, 32			; 00000020H
  0008b	7e 19		 jle	 SHORT $LN22@Sort

; 3792 : 		{	// heap sort if too many divisions
; 3793 : 		_STD make_heap(_First, _Last, _Pred);

  0008d	ff 75 14	 push	 DWORD PTR __Pred$[ebp]
  00090	57		 push	 edi
  00091	53		 push	 ebx
  00092	e8 00 00 00 00	 call	 ??$make_heap@PAUCharDistanceSq@FindPredicate@@VSightTargetSort@FD_SightTarget@@@std@@YAXPAUCharDistanceSq@FindPredicate@@0VSightTargetSort@FD_SightTarget@@@Z ; std::make_heap<FindPredicate::CharDistanceSq *,FD_SightTarget::SightTargetSort>

; 3794 : 		_STD sort_heap(_First, _Last, _Pred);

  00097	ff 75 14	 push	 DWORD PTR __Pred$[ebp]
  0009a	57		 push	 edi
  0009b	53		 push	 ebx
  0009c	e8 00 00 00 00	 call	 ??$_Sort_heap@PAUCharDistanceSq@FindPredicate@@VSightTargetSort@FD_SightTarget@@@std@@YAXPAUCharDistanceSq@FindPredicate@@0VSightTargetSort@FD_SightTarget@@@Z ; std::_Sort_heap<FindPredicate::CharDistanceSq *,FD_SightTarget::SightTargetSort>
  000a1	83 c4 18	 add	 esp, 24			; 00000018H
  000a4	eb 14		 jmp	 SHORT $LN16@Sort
$LN22@Sort:

; 3795 : 		}
; 3796 : 	else if (1 < _Count)

  000a6	83 f8 01	 cmp	 eax, 1
  000a9	7e 0f		 jle	 SHORT $LN16@Sort

; 3797 : 		_Insertion_sort(_First, _Last, _Pred);	// small

  000ab	6a 00		 push	 0
  000ad	ff 75 14	 push	 DWORD PTR __Pred$[ebp]
  000b0	57		 push	 edi
  000b1	53		 push	 ebx
  000b2	e8 00 00 00 00	 call	 ??$_Insertion_sort1@PAUCharDistanceSq@FindPredicate@@VSightTargetSort@FD_SightTarget@@U12@@std@@YAXPAUCharDistanceSq@FindPredicate@@0VSightTargetSort@FD_SightTarget@@0@Z ; std::_Insertion_sort1<FindPredicate::CharDistanceSq *,FD_SightTarget::SightTargetSort,FindPredicate::CharDistanceSq>
  000b7	83 c4 10	 add	 esp, 16			; 00000010H
$LN16@Sort:
  000ba	5f		 pop	 edi
  000bb	5b		 pop	 ebx

; 3798 : 	}

  000bc	c9		 leave
  000bd	c3		 ret	 0
??$_Sort@PAUCharDistanceSq@FindPredicate@@HVSightTargetSort@FD_SightTarget@@@std@@YAXPAUCharDistanceSq@FindPredicate@@0HVSightTargetSort@FD_SightTarget@@@Z ENDP ; std::_Sort<FindPredicate::CharDistanceSq *,int,FD_SightTarget::SightTargetSort>
_TEXT	ENDS
PUBLIC	??$sort@V?$_Vector_iterator@V?$_Vector_val@UCharDistanceSq@FindPredicate@@V?$allocator@UCharDistanceSq@FindPredicate@@@std@@@std@@@std@@VSightTargetSort@FD_SightTarget@@@std@@YAXV?$_Vector_iterator@V?$_Vector_val@UCharDistanceSq@FindPredicate@@V?$allocator@UCharDistanceSq@FindPredicate@@@std@@@std@@@0@0VSightTargetSort@FD_SightTarget@@@Z ; std::sort<std::_Vector_iterator<std::_Vector_val<FindPredicate::CharDistanceSq,std::allocator<FindPredicate::CharDistanceSq> > >,FD_SightTarget::SightTargetSort>
; Function compile flags: /Ogsp
;	COMDAT ??$sort@V?$_Vector_iterator@V?$_Vector_val@UCharDistanceSq@FindPredicate@@V?$allocator@UCharDistanceSq@FindPredicate@@@std@@@std@@@std@@VSightTargetSort@FD_SightTarget@@@std@@YAXV?$_Vector_iterator@V?$_Vector_val@UCharDistanceSq@FindPredicate@@V?$allocator@UCharDistanceSq@FindPredicate@@@std@@@std@@@0@0VSightTargetSort@FD_SightTarget@@@Z
_TEXT	SEGMENT
__First$ = 8						; size = 4
__Last$ = 12						; size = 4
__Pred$ = 16						; size = 4
??$sort@V?$_Vector_iterator@V?$_Vector_val@UCharDistanceSq@FindPredicate@@V?$allocator@UCharDistanceSq@FindPredicate@@@std@@@std@@@std@@VSightTargetSort@FD_SightTarget@@@std@@YAXV?$_Vector_iterator@V?$_Vector_val@UCharDistanceSq@FindPredicate@@V?$allocator@UCharDistanceSq@FindPredicate@@@std@@@std@@@0@0VSightTargetSort@FD_SightTarget@@@Z PROC ; std::sort<std::_Vector_iterator<std::_Vector_val<FindPredicate::CharDistanceSq,std::allocator<FindPredicate::CharDistanceSq> > >,FD_SightTarget::SightTargetSort>, COMDAT

; 3803 : 	{	// order [_First, _Last), using _Pred

  00000	55		 push	 ebp
  00001	8b ec		 mov	 ebp, esp

; 3804 : 	_DEBUG_RANGE(_First, _Last);
; 3805 : 	_DEBUG_POINTER(_Pred);
; 3806 : 	_Sort(_Unchecked(_First), _Unchecked(_Last), _Last - _First, _Pred);

  00003	8b 45 0c	 mov	 eax, DWORD PTR __Last$[ebp]
  00006	ff 75 10	 push	 DWORD PTR __Pred$[ebp]
  00009	2b 45 08	 sub	 eax, DWORD PTR __First$[ebp]
  0000c	c1 f8 03	 sar	 eax, 3
  0000f	50		 push	 eax
  00010	ff 75 0c	 push	 DWORD PTR __Last$[ebp]
  00013	ff 75 08	 push	 DWORD PTR __First$[ebp]
  00016	e8 00 00 00 00	 call	 ??$_Sort@PAUCharDistanceSq@FindPredicate@@HVSightTargetSort@FD_SightTarget@@@std@@YAXPAUCharDistanceSq@FindPredicate@@0HVSightTargetSort@FD_SightTarget@@@Z ; std::_Sort<FindPredicate::CharDistanceSq *,int,FD_SightTarget::SightTargetSort>
  0001b	83 c4 10	 add	 esp, 16			; 00000010H

; 3807 : 	}

  0001e	5d		 pop	 ebp
  0001f	c3		 ret	 0
??$sort@V?$_Vector_iterator@V?$_Vector_val@UCharDistanceSq@FindPredicate@@V?$allocator@UCharDistanceSq@FindPredicate@@@std@@@std@@@std@@VSightTargetSort@FD_SightTarget@@@std@@YAXV?$_Vector_iterator@V?$_Vector_val@UCharDistanceSq@FindPredicate@@V?$allocator@UCharDistanceSq@FindPredicate@@@std@@@std@@@0@0VSightTargetSort@FD_SightTarget@@@Z ENDP ; std::sort<std::_Vector_iterator<std::_Vector_val<FindPredicate::CharDistanceSq,std::allocator<FindPredicate::CharDistanceSq> > >,FD_SightTarget::SightTargetSort>
_TEXT	ENDS
PUBLIC	__$ArrayPad$
; Function compile flags: /Ogsp
; File d:\lost saga for developer\youtube\tutorial\source\src\lsclient\findpredicateimpl.cpp
;	COMDAT ?GetFindChar@FD_SightTarget@@UAEPAVioBaseChar@@ABV?$vector@PAVioBaseChar@@V?$allocator@PAVioBaseChar@@@std@@@std@@@Z
_TEXT	SEGMENT
_vOwnerPos$ = -64					; size = 12
tv652 = -52						; size = 4
tv643 = -52						; size = 4
tv639 = -52						; size = 4
_pChar$541911 = -52					; size = 4
tv635 = -48						; size = 4
_value$549104 = -48					; size = 4
_fHalfCosine$ = -48					; size = 4
tv632 = -44						; size = 4
tv626 = -44						; size = 4
_value$549296 = -44					; size = 4
$T549174 = -44						; size = 4
$T541921 = -40						; size = 12
$T541898 = -40						; size = 12
_vCharDir$ = -28					; size = 12
_vDiff$ = -16						; size = 12
__$ArrayPad$ = -4					; size = 4
_rkCandidateList$ = 8					; size = 4
?GetFindChar@FD_SightTarget@@UAEPAVioBaseChar@@ABV?$vector@PAVioBaseChar@@V?$allocator@PAVioBaseChar@@@std@@@std@@@Z PROC ; FD_SightTarget::GetFindChar, COMDAT
; _this$ = ecx

; 335  : {

  00000	55		 push	 ebp
  00001	8b ec		 mov	 ebp, esp
  00003	83 ec 40	 sub	 esp, 64			; 00000040H
  00006	a1 00 00 00 00	 mov	 eax, DWORD PTR ___security_cookie
  0000b	33 c5		 xor	 eax, ebp
  0000d	89 45 fc	 mov	 DWORD PTR __$ArrayPad$[ebp], eax
  00010	53		 push	 ebx
  00011	56		 push	 esi
  00012	8b 75 08	 mov	 esi, DWORD PTR _rkCandidateList$[ebp]
  00015	8b d9		 mov	 ebx, ecx

; 336  : 	if( IsExperienceOwner() ) return NULL;

  00017	e8 00 00 00 00	 call	 ?IsExperienceOwner@FindPredicate@@IAE_NXZ ; FindPredicate::IsExperienceOwner
  0001c	84 c0		 test	 al, al
  0001e	74 07		 je	 SHORT $LN13@GetFindCha@10
  00020	33 c0		 xor	 eax, eax
  00022	e9 42 02 00 00	 jmp	 $LN14@GetFindCha@10
$LN13@GetFindCha@10:

; 337  : 
; 338  : 	MakeMostCloseSortList( rkCandidateList, m_fSightRange * m_fSightRange );

  00027	f3 0f 10 43 0c	 movss	 xmm0, DWORD PTR [ebx+12]
  0002c	57		 push	 edi
  0002d	0f 5a c0	 cvtps2pd xmm0, xmm0
  00030	51		 push	 ecx
  00031	f2 0f 59 c0	 mulsd	 xmm0, xmm0
  00035	66 0f 5a c0	 cvtpd2ps xmm0, xmm0
  00039	f3 0f 11 04 24	 movss	 DWORD PTR [esp], xmm0
  0003e	56		 push	 esi
  0003f	8b cb		 mov	 ecx, ebx
  00041	e8 00 00 00 00	 call	 ?MakeMostCloseSortList@FindPredicate@@IAEXABV?$vector@PAVioBaseChar@@V?$allocator@PAVioBaseChar@@@std@@@std@@M@Z ; FindPredicate::MakeMostCloseSortList

; 339  : 	std::sort( m_vDistanceSortList.begin(), m_vDistanceSortList.end(), SightTargetSort( m_pOwner->GetTeam() ) );

  00046	8b 4b 04	 mov	 ecx, DWORD PTR [ebx+4]
  00049	8d 45 d0	 lea	 eax, DWORD PTR _value$549104[ebp]
  0004c	50		 push	 eax
  0004d	81 c1 90 00 00
	00		 add	 ecx, 144		; 00000090H
  00053	e8 00 00 00 00	 call	 ?DecryptValueToPool@?$CEncrypt@W4TeamType@@@@QAEXPAW4TeamType@@@Z ; CEncrypt<enum TeamType>::DecryptValueToPool
  00058	ff 75 d0	 push	 DWORD PTR _value$549104[ebp]
  0005b	ff 35 04 00 00
	00		 push	 DWORD PTR ?m_vDistanceSortList@FindPredicate@@1V?$vector@UCharDistanceSq@FindPredicate@@V?$allocator@UCharDistanceSq@FindPredicate@@@std@@@std@@A+4
  00061	ff 35 00 00 00
	00		 push	 DWORD PTR ?m_vDistanceSortList@FindPredicate@@1V?$vector@UCharDistanceSq@FindPredicate@@V?$allocator@UCharDistanceSq@FindPredicate@@@std@@@std@@A
  00067	e8 00 00 00 00	 call	 ??$sort@V?$_Vector_iterator@V?$_Vector_val@UCharDistanceSq@FindPredicate@@V?$allocator@UCharDistanceSq@FindPredicate@@@std@@@std@@@std@@VSightTargetSort@FD_SightTarget@@@std@@YAXV?$_Vector_iterator@V?$_Vector_val@UCharDistanceSq@FindPredicate@@V?$allocator@UCharDistanceSq@FindPredicate@@@std@@@std@@@0@0VSightTargetSort@FD_SightTarget@@@Z ; std::sort<std::_Vector_iterator<std::_Vector_val<FindPredicate::CharDistanceSq,std::allocator<FindPredicate::CharDistanceSq> > >,FD_SightTarget::SightTargetSort>

; 340  : 
; 341  : 	D3DXVECTOR3 vOwnerPos = m_pOwner->GetWorldPosition();

  0006c	8b 4b 04	 mov	 ecx, DWORD PTR [ebx+4]
  0006f	8b 01		 mov	 eax, DWORD PTR [ecx]
  00071	83 c4 0c	 add	 esp, 12			; 0000000cH
  00074	ff 50 70	 call	 DWORD PTR [eax+112]
  00077	8b f0		 mov	 esi, eax
  00079	8d 7d c0	 lea	 edi, DWORD PTR _vOwnerPos$[ebp]
  0007c	a5		 movsd
  0007d	a5		 movsd
  0007e	a5		 movsd

; 342  : 	D3DXVECTOR3 vCharDir  = m_pOwner->GetTargetRot() * D3DXVECTOR3( 0.0f, 0.0f, -FLOAT1 );

  0007f	b8 01 00 00 00	 mov	 eax, 1
  00084	0f 57 c0	 xorps	 xmm0, xmm0
  00087	89 45 cc	 mov	 DWORD PTR tv652[ebp], eax
  0008a	db 45 cc	 fild	 DWORD PTR tv652[ebp]
  0008d	f3 0f 11 45 d8	 movss	 DWORD PTR $T541898[ebp], xmm0
  00092	f3 0f 11 45 dc	 movss	 DWORD PTR $T541898[ebp+4], xmm0
  00097	85 c0		 test	 eax, eax
  00099	79 06		 jns	 SHORT $LN107@GetFindCha@10
  0009b	d8 05 00 00 00
	00		 fadd	 DWORD PTR __real@4f800000
$LN107@GetFindCha@10:
  000a1	8d 45 d8	 lea	 eax, DWORD PTR $T541898[ebp]
  000a4	d9 e0		 fchs
  000a6	50		 push	 eax
  000a7	d9 5d e0	 fstp	 DWORD PTR $T541898[ebp+8]
  000aa	8b 43 04	 mov	 eax, DWORD PTR [ebx+4]
  000ad	05 a4 06 00 00	 add	 eax, 1700		; 000006a4H
  000b2	50		 push	 eax
  000b3	8d 45 e4	 lea	 eax, DWORD PTR _vCharDir$[ebp]
  000b6	50		 push	 eax
  000b7	ff 15 00 00 00
	00		 call	 DWORD PTR __imp_??D@YA?AUD3DXVECTOR3@@ABUD3DXQUATERNION@@ABU0@@Z

; 343  : 	float fHalfCosine = cosf( DEGtoRAD( m_fSightAngle ) * FLOAT05 );

  000bd	d9 43 08	 fld	 DWORD PTR [ebx+8]
  000c0	dc 0d 00 00 00
	00		 fmul	 QWORD PTR __real@3f91df46a2526c7a
  000c6	83 c4 0c	 add	 esp, 12			; 0000000cH
  000c9	d9 5d d4	 fstp	 DWORD PTR $T549174[ebp]
  000cc	b8 05 00 00 00	 mov	 eax, 5
  000d1	8b c8		 mov	 ecx, eax
  000d3	b8 0a 00 00 00	 mov	 eax, 10			; 0000000aH
  000d8	89 4d cc	 mov	 DWORD PTR tv643[ebp], ecx
  000db	db 45 cc	 fild	 DWORD PTR tv643[ebp]
  000de	85 c9		 test	 ecx, ecx
  000e0	79 06		 jns	 SHORT $LN108@GetFindCha@10
  000e2	d8 05 00 00 00
	00		 fadd	 DWORD PTR __real@4f800000
$LN108@GetFindCha@10:
  000e8	89 45 cc	 mov	 DWORD PTR tv639[ebp], eax
  000eb	db 45 cc	 fild	 DWORD PTR tv639[ebp]
  000ee	85 c0		 test	 eax, eax
  000f0	79 06		 jns	 SHORT $LN109@GetFindCha@10
  000f2	d8 05 00 00 00
	00		 fadd	 DWORD PTR __real@4f800000
$LN109@GetFindCha@10:
  000f8	de f9		 fdivp	 ST(1), ST(0)
  000fa	d9 5d d0	 fstp	 DWORD PTR tv635[ebp]
  000fd	d9 45 d0	 fld	 DWORD PTR tv635[ebp]
  00100	d8 4d d4	 fmul	 DWORD PTR $T549174[ebp]
  00103	d9 5d d4	 fstp	 DWORD PTR tv632[ebp]
  00106	d9 45 d4	 fld	 DWORD PTR tv632[ebp]
  00109	e8 00 00 00 00	 call	 __CIcos
  0010e	d9 5d d4	 fstp	 DWORD PTR tv626[ebp]
  00111	d9 45 d4	 fld	 DWORD PTR tv626[ebp]

; 344  : 
; 345  : 	D3DXVECTOR3 vDiff;
; 346  : 	CharDistanceList::iterator iter;
; 347  : 	for( iter=m_vDistanceSortList.begin() ; iter!=m_vDistanceSortList.end() ; ++iter )

  00114	8b 1d 00 00 00
	00		 mov	 ebx, DWORD PTR ?m_vDistanceSortList@FindPredicate@@1V?$vector@UCharDistanceSq@FindPredicate@@V?$allocator@UCharDistanceSq@FindPredicate@@@std@@@std@@A
  0011a	d9 5d d0	 fstp	 DWORD PTR _fHalfCosine$[ebp]
  0011d	e9 38 01 00 00	 jmp	 $LN110@GetFindCha@10
$LL68@GetFindCha@10:

; 348  : 	{
; 349  : 		ioBaseChar *pChar = iter->pChar;

  00122	8b 33		 mov	 esi, DWORD PTR [ebx]

; 350  : 		CharState eState = pChar->GetState();

  00124	8a 86 10 03 00
	00		 mov	 al, BYTE PTR [esi+784]
  0012a	89 75 cc	 mov	 DWORD PTR _pChar$541911[ebp], esi

; 351  : 
; 352  : 		if( eState == CS_DIE ) continue;

  0012d	3c 0e		 cmp	 al, 14			; 0000000eH
  0012f	0f 84 22 01 00
	00		 je	 $LN11@GetFindCha@10

; 353  : 		if( eState == CS_VIEW ) continue;

  00135	3c 1a		 cmp	 al, 26			; 0000001aH
  00137	0f 84 1a 01 00
	00		 je	 $LN11@GetFindCha@10

; 354  : 		if( eState == CS_OBSERVER ) continue;

  0013d	3c 2a		 cmp	 al, 42			; 0000002aH
  0013f	0f 84 12 01 00
	00		 je	 $LN11@GetFindCha@10

; 355  : 		if( eState == CS_READY ) continue;

  00145	3c 18		 cmp	 al, 24			; 00000018H
  00147	0f 84 0a 01 00
	00		 je	 $LN11@GetFindCha@10

; 356  : 		if( eState == CS_LOADING ) continue;

  0014d	3c 24		 cmp	 al, 36			; 00000024H
  0014f	0f 84 02 01 00
	00		 je	 $LN11@GetFindCha@10

; 357  : 		if( eState == CS_DROP_ZONE_DOWN ) continue;

  00155	3c 10		 cmp	 al, 16			; 00000010H
  00157	0f 84 fa 00 00
	00		 je	 $LN11@GetFindCha@10

; 358  : 		if( pChar->GetExperienceMode() == EMS_EXPERIENCE ) continue;

  0015d	8d 45 d4	 lea	 eax, DWORD PTR _value$549296[ebp]
  00160	50		 push	 eax
  00161	8d 8e 94 1d 00
	00		 lea	 ecx, DWORD PTR [esi+7572]
  00167	e8 00 00 00 00	 call	 ?DecryptValueToPool@?$CEncrypt@K@@QAEXPAK@Z ; CEncrypt<unsigned long>::DecryptValueToPool
  0016c	83 7d d4 02	 cmp	 DWORD PTR _value$549296[ebp], 2
  00170	0f 84 e1 00 00
	00		 je	 $LN11@GetFindCha@10

; 359  : 
; 360  : 		if( pChar->HasHideBuff() ) continue;

  00176	8b ce		 mov	 ecx, esi
  00178	e8 00 00 00 00	 call	 ?HasHideBuff@ioBaseChar@@QAE?B_NXZ ; ioBaseChar::HasHideBuff
  0017d	84 c0		 test	 al, al
  0017f	0f 85 d2 00 00
	00		 jne	 $LN11@GetFindCha@10

; 361  : 
; 362  : 		vDiff = pChar->GetWorldPosition() - vOwnerPos;

  00185	8b 06		 mov	 eax, DWORD PTR [esi]
  00187	8b ce		 mov	 ecx, esi
  00189	ff 50 70	 call	 DWORD PTR [eax+112]
  0018c	f3 0f 10 00	 movss	 xmm0, DWORD PTR [eax]
  00190	f3 0f 10 4d c0	 movss	 xmm1, DWORD PTR _vOwnerPos$[ebp]
  00195	0f 5a c0	 cvtps2pd xmm0, xmm0
  00198	0f 5a c9	 cvtps2pd xmm1, xmm1
  0019b	f2 0f 5c c1	 subsd	 xmm0, xmm1
  0019f	f3 0f 10 4d c4	 movss	 xmm1, DWORD PTR _vOwnerPos$[ebp+4]
  001a4	66 0f 5a c0	 cvtpd2ps xmm0, xmm0
  001a8	f3 0f 11 45 d8	 movss	 DWORD PTR $T541921[ebp], xmm0
  001ad	f3 0f 10 40 04	 movss	 xmm0, DWORD PTR [eax+4]
  001b2	0f 5a c0	 cvtps2pd xmm0, xmm0
  001b5	0f 5a c9	 cvtps2pd xmm1, xmm1
  001b8	f2 0f 5c c1	 subsd	 xmm0, xmm1
  001bc	f3 0f 10 4d c8	 movss	 xmm1, DWORD PTR _vOwnerPos$[ebp+8]
  001c1	66 0f 5a c0	 cvtpd2ps xmm0, xmm0
  001c5	f3 0f 11 45 dc	 movss	 DWORD PTR $T541921[ebp+4], xmm0
  001ca	f3 0f 10 40 08	 movss	 xmm0, DWORD PTR [eax+8]
  001cf	0f 5a c0	 cvtps2pd xmm0, xmm0
  001d2	0f 5a c9	 cvtps2pd xmm1, xmm1
  001d5	f2 0f 5c c1	 subsd	 xmm0, xmm1
  001d9	66 0f 5a c0	 cvtpd2ps xmm0, xmm0
  001dd	f3 0f 11 45 e0	 movss	 DWORD PTR $T541921[ebp+8], xmm0

; 363  : 		vDiff.y = 0.0f;

  001e2	0f 57 c0	 xorps	 xmm0, xmm0
  001e5	8d 75 d8	 lea	 esi, DWORD PTR $T541921[ebp]
  001e8	8d 7d f0	 lea	 edi, DWORD PTR _vDiff$[ebp]
  001eb	a5		 movsd
  001ec	a5		 movsd

; 364  : 		D3DXVec3Normalize( &vDiff, &vDiff );

  001ed	8d 45 f0	 lea	 eax, DWORD PTR _vDiff$[ebp]
  001f0	50		 push	 eax
  001f1	a5		 movsd
  001f2	50		 push	 eax
  001f3	f3 0f 11 45 f4	 movss	 DWORD PTR _vDiff$[ebp+4], xmm0
  001f8	e8 00 00 00 00	 call	 _D3DXVec3Normalize@8

; 365  : 
; 366  : 		if( D3DXVec3Dot( &vCharDir, &vDiff ) >= fHalfCosine )

  001fd	f3 0f 10 4d e4	 movss	 xmm1, DWORD PTR _vCharDir$[ebp]
  00202	f3 0f 10 45 f0	 movss	 xmm0, DWORD PTR _vDiff$[ebp]
  00207	f3 0f 10 55 f4	 movss	 xmm2, DWORD PTR _vDiff$[ebp+4]
  0020c	0f 5a c9	 cvtps2pd xmm1, xmm1
  0020f	0f 5a c0	 cvtps2pd xmm0, xmm0
  00212	f2 0f 59 c1	 mulsd	 xmm0, xmm1
  00216	f3 0f 10 4d e8	 movss	 xmm1, DWORD PTR _vCharDir$[ebp+4]
  0021b	0f 5a c9	 cvtps2pd xmm1, xmm1
  0021e	0f 5a d2	 cvtps2pd xmm2, xmm2
  00221	f2 0f 59 ca	 mulsd	 xmm1, xmm2
  00225	f3 0f 10 55 f8	 movss	 xmm2, DWORD PTR _vDiff$[ebp+8]
  0022a	f2 0f 58 c1	 addsd	 xmm0, xmm1
  0022e	f3 0f 10 4d ec	 movss	 xmm1, DWORD PTR _vCharDir$[ebp+8]
  00233	0f 5a c9	 cvtps2pd xmm1, xmm1
  00236	0f 5a d2	 cvtps2pd xmm2, xmm2
  00239	f2 0f 59 ca	 mulsd	 xmm1, xmm2
  0023d	f2 0f 58 c1	 addsd	 xmm0, xmm1
  00241	f3 0f 10 4d d0	 movss	 xmm1, DWORD PTR _fHalfCosine$[ebp]
  00246	66 0f 5a c0	 cvtpd2ps xmm0, xmm0
  0024a	f3 0f 5a c0	 cvtss2sd xmm0, xmm0
  0024e	0f 5a c9	 cvtps2pd xmm1, xmm1
  00251	66 0f 2f c1	 comisd	 xmm0, xmm1
  00255	73 22		 jae	 SHORT $LN103@GetFindCha@10
$LN11@GetFindCha@10:

; 344  : 
; 345  : 	D3DXVECTOR3 vDiff;
; 346  : 	CharDistanceList::iterator iter;
; 347  : 	for( iter=m_vDistanceSortList.begin() ; iter!=m_vDistanceSortList.end() ; ++iter )

  00257	83 c3 08	 add	 ebx, 8
$LN110@GetFindCha@10:
  0025a	3b 1d 04 00 00
	00		 cmp	 ebx, DWORD PTR ?m_vDistanceSortList@FindPredicate@@1V?$vector@UCharDistanceSq@FindPredicate@@V?$allocator@UCharDistanceSq@FindPredicate@@@std@@@std@@A+4
  00260	0f 85 bc fe ff
	ff		 jne	 $LL68@GetFindCha@10

; 368  : 	}
; 369  : 
; 370  : 	return NULL;

  00266	33 c0		 xor	 eax, eax
$LN106@GetFindCha@10:
  00268	5f		 pop	 edi
$LN14@GetFindCha@10:

; 371  : }

  00269	8b 4d fc	 mov	 ecx, DWORD PTR __$ArrayPad$[ebp]
  0026c	5e		 pop	 esi
  0026d	33 cd		 xor	 ecx, ebp
  0026f	5b		 pop	 ebx
  00270	e8 00 00 00 00	 call	 @__security_check_cookie@4
  00275	c9		 leave
  00276	c2 04 00	 ret	 4
$LN103@GetFindCha@10:

; 367  : 			return pChar;

  00279	8b 45 cc	 mov	 eax, DWORD PTR _pChar$541911[ebp]
  0027c	eb ea		 jmp	 SHORT $LN106@GetFindCha@10
?GetFindChar@FD_SightTarget@@UAEPAVioBaseChar@@ABV?$vector@PAVioBaseChar@@V?$allocator@PAVioBaseChar@@@std@@@std@@@Z ENDP ; FD_SightTarget::GetFindChar
_TEXT	ENDS
END
