; Listing generated by Microsoft (R) Optimizing Compiler Version 16.00.30319.01 

	TITLE	D:\Lost Saga For Developer\Youtube\Tutorial\Source\src\LSClient\FindPredicate.cpp
	.686P
	.XMM
	include listing.inc
	.model	flat

INCLUDELIB MSVCRT
INCLUDELIB OLDNAMES

PUBLIC	?GetBlowStopMotionState@ioBaseChar@@QBE_NXZ	; ioBaseChar::GetBlowStopMotionState
; Function compile flags: /Ogsp
; File d:\lost saga for developer\youtube\tutorial\source\src\lsclient\iobasechar.h
;	COMDAT ?GetBlowStopMotionState@ioBaseChar@@QBE_NXZ
_TEXT	SEGMENT
?GetBlowStopMotionState@ioBaseChar@@QBE_NXZ PROC	; ioBaseChar::GetBlowStopMotionState, COMDAT
; _this$ = ecx

; 1566 : 	inline bool GetBlowStopMotionState() const { return m_bBlowStopMotion; }

  00000	8a 81 c7 15 00
	00		 mov	 al, BYTE PTR [ecx+5575]
  00006	c3		 ret	 0
?GetBlowStopMotionState@ioBaseChar@@QBE_NXZ ENDP	; ioBaseChar::GetBlowStopMotionState
_TEXT	ENDS
PUBLIC	?GetBlowFrozenState@ioBaseChar@@QBE_NXZ		; ioBaseChar::GetBlowFrozenState
; Function compile flags: /Ogsp
;	COMDAT ?GetBlowFrozenState@ioBaseChar@@QBE_NXZ
_TEXT	SEGMENT
?GetBlowFrozenState@ioBaseChar@@QBE_NXZ PROC		; ioBaseChar::GetBlowFrozenState, COMDAT
; _this$ = ecx

; 1571 : 	inline bool GetBlowFrozenState() const { return m_bBlowFrozenState; }

  00000	8a 81 c5 15 00
	00		 mov	 al, BYTE PTR [ecx+5573]
  00006	c3		 ret	 0
?GetBlowFrozenState@ioBaseChar@@QBE_NXZ ENDP		; ioBaseChar::GetBlowFrozenState
_TEXT	ENDS
PUBLIC	?GetState@ioBaseChar@@QBE?AW4CharState@@XZ	; ioBaseChar::GetState
; Function compile flags: /Ogsp
;	COMDAT ?GetState@ioBaseChar@@QBE?AW4CharState@@XZ
_TEXT	SEGMENT
?GetState@ioBaseChar@@QBE?AW4CharState@@XZ PROC		; ioBaseChar::GetState, COMDAT
; _this$ = ecx

; 2156 : 	inline CharState GetState() const { return m_CharState; }	

  00000	8a 81 10 03 00
	00		 mov	 al, BYTE PTR [ecx+784]
  00006	c3		 ret	 0
?GetState@ioBaseChar@@QBE?AW4CharState@@XZ ENDP		; ioBaseChar::GetState
_TEXT	ENDS
PUBLIC	?GetMoveDir@ioBaseChar@@QBEABUD3DXVECTOR3@@XZ	; ioBaseChar::GetMoveDir
; Function compile flags: /Ogsp
;	COMDAT ?GetMoveDir@ioBaseChar@@QBEABUD3DXVECTOR3@@XZ
_TEXT	SEGMENT
?GetMoveDir@ioBaseChar@@QBEABUD3DXVECTOR3@@XZ PROC	; ioBaseChar::GetMoveDir, COMDAT
; _this$ = ecx

; 2596 : 	inline const D3DXVECTOR3& GetMoveDir() const { return m_vMoveDir; }

  00000	8d 81 b4 06 00
	00		 lea	 eax, DWORD PTR [ecx+1716]
  00006	c3		 ret	 0
?GetMoveDir@ioBaseChar@@QBEABUD3DXVECTOR3@@XZ ENDP	; ioBaseChar::GetMoveDir
_TEXT	ENDS
PUBLIC	??_7bad_alloc@std@@6B@				; std::bad_alloc::`vftable'
PUBLIC	??0bad_alloc@std@@QAE@PBD@Z			; std::bad_alloc::bad_alloc
PUBLIC	??_R4bad_alloc@std@@6B@				; std::bad_alloc::`RTTI Complete Object Locator'
PUBLIC	??_R0?AVbad_alloc@std@@@8			; std::bad_alloc `RTTI Type Descriptor'
PUBLIC	??_R3bad_alloc@std@@8				; std::bad_alloc::`RTTI Class Hierarchy Descriptor'
PUBLIC	??_R2bad_alloc@std@@8				; std::bad_alloc::`RTTI Base Class Array'
PUBLIC	??_R1A@?0A@EA@bad_alloc@std@@8			; std::bad_alloc::`RTTI Base Class Descriptor at (0,-1,0,64)'
PUBLIC	??_R1A@?0A@EA@exception@std@@8			; std::exception::`RTTI Base Class Descriptor at (0,-1,0,64)'
PUBLIC	??_R0?AVexception@std@@@8			; std::exception `RTTI Type Descriptor'
PUBLIC	??_R3exception@std@@8				; std::exception::`RTTI Class Hierarchy Descriptor'
PUBLIC	??_R2exception@std@@8				; std::exception::`RTTI Base Class Array'
EXTRN	__imp_??0exception@std@@QAE@ABQBD@Z:PROC
EXTRN	??_7type_info@@6B@:QWORD			; type_info::`vftable'
EXTRN	??_Ebad_alloc@std@@UAEPAXI@Z:PROC		; std::bad_alloc::`vector deleting destructor'
EXTRN	?what@exception@std@@UBEPBDXZ:PROC		; std::exception::what
;	COMDAT ??_R2exception@std@@8
; File c:\program files (x86)\microsoft visual studio 10.0\vc\include\exception
rdata$r	SEGMENT
??_R2exception@std@@8 DD FLAT:??_R1A@?0A@EA@exception@std@@8 ; std::exception::`RTTI Base Class Array'
rdata$r	ENDS
;	COMDAT ??_R3exception@std@@8
rdata$r	SEGMENT
??_R3exception@std@@8 DD 00H				; std::exception::`RTTI Class Hierarchy Descriptor'
	DD	00H
	DD	01H
	DD	FLAT:??_R2exception@std@@8
rdata$r	ENDS
;	COMDAT ??_R0?AVexception@std@@@8
_DATA	SEGMENT
??_R0?AVexception@std@@@8 DD FLAT:??_7type_info@@6B@	; std::exception `RTTI Type Descriptor'
	DD	00H
	DB	'.?AVexception@std@@', 00H
_DATA	ENDS
;	COMDAT ??_R1A@?0A@EA@exception@std@@8
rdata$r	SEGMENT
??_R1A@?0A@EA@exception@std@@8 DD FLAT:??_R0?AVexception@std@@@8 ; std::exception::`RTTI Base Class Descriptor at (0,-1,0,64)'
	DD	00H
	DD	00H
	DD	0ffffffffH
	DD	00H
	DD	040H
	DD	FLAT:??_R3exception@std@@8
rdata$r	ENDS
;	COMDAT ??_R1A@?0A@EA@bad_alloc@std@@8
rdata$r	SEGMENT
??_R1A@?0A@EA@bad_alloc@std@@8 DD FLAT:??_R0?AVbad_alloc@std@@@8 ; std::bad_alloc::`RTTI Base Class Descriptor at (0,-1,0,64)'
	DD	01H
	DD	00H
	DD	0ffffffffH
	DD	00H
	DD	040H
	DD	FLAT:??_R3bad_alloc@std@@8
rdata$r	ENDS
;	COMDAT ??_R2bad_alloc@std@@8
rdata$r	SEGMENT
??_R2bad_alloc@std@@8 DD FLAT:??_R1A@?0A@EA@bad_alloc@std@@8 ; std::bad_alloc::`RTTI Base Class Array'
	DD	FLAT:??_R1A@?0A@EA@exception@std@@8
rdata$r	ENDS
;	COMDAT ??_R3bad_alloc@std@@8
rdata$r	SEGMENT
??_R3bad_alloc@std@@8 DD 00H				; std::bad_alloc::`RTTI Class Hierarchy Descriptor'
	DD	00H
	DD	02H
	DD	FLAT:??_R2bad_alloc@std@@8
rdata$r	ENDS
;	COMDAT ??_R0?AVbad_alloc@std@@@8
_DATA	SEGMENT
??_R0?AVbad_alloc@std@@@8 DD FLAT:??_7type_info@@6B@	; std::bad_alloc `RTTI Type Descriptor'
	DD	00H
	DB	'.?AVbad_alloc@std@@', 00H
_DATA	ENDS
;	COMDAT ??_R4bad_alloc@std@@6B@
rdata$r	SEGMENT
??_R4bad_alloc@std@@6B@ DD 00H				; std::bad_alloc::`RTTI Complete Object Locator'
	DD	00H
	DD	00H
	DD	FLAT:??_R0?AVbad_alloc@std@@@8
	DD	FLAT:??_R3bad_alloc@std@@8
rdata$r	ENDS
;	COMDAT ??_7bad_alloc@std@@6B@
CONST	SEGMENT
??_7bad_alloc@std@@6B@ DD FLAT:??_R4bad_alloc@std@@6B@	; std::bad_alloc::`vftable'
	DD	FLAT:??_Ebad_alloc@std@@UAEPAXI@Z
	DD	FLAT:?what@exception@std@@UBEPBDXZ
; Function compile flags: /Ogsp
CONST	ENDS
;	COMDAT ??0bad_alloc@std@@QAE@PBD@Z
_TEXT	SEGMENT
__Message$ = 8						; size = 4
??0bad_alloc@std@@QAE@PBD@Z PROC			; std::bad_alloc::bad_alloc, COMDAT
; _this$ = ecx

; 345  : 		{	// construct from message string

  00000	55		 push	 ebp
  00001	8b ec		 mov	 ebp, esp
  00003	56		 push	 esi
  00004	8d 45 08	 lea	 eax, DWORD PTR __Message$[ebp]
  00007	50		 push	 eax
  00008	8b f1		 mov	 esi, ecx
  0000a	ff 15 00 00 00
	00		 call	 DWORD PTR __imp_??0exception@std@@QAE@ABQBD@Z
  00010	c7 06 00 00 00
	00		 mov	 DWORD PTR [esi], OFFSET ??_7bad_alloc@std@@6B@

; 346  : 		}

  00016	8b c6		 mov	 eax, esi
  00018	5e		 pop	 esi
  00019	5d		 pop	 ebp
  0001a	c2 04 00	 ret	 4
??0bad_alloc@std@@QAE@PBD@Z ENDP			; std::bad_alloc::bad_alloc
_TEXT	ENDS
PUBLIC	??1bad_alloc@std@@UAE@XZ			; std::bad_alloc::~bad_alloc
EXTRN	__imp_??1exception@std@@UAE@XZ:PROC
; Function compile flags: /Ogsp
;	COMDAT ??1bad_alloc@std@@UAE@XZ
_TEXT	SEGMENT
??1bad_alloc@std@@UAE@XZ PROC				; std::bad_alloc::~bad_alloc, COMDAT
; _this$ = ecx

; 354  : 		{	// destroy the object

  00000	c7 01 00 00 00
	00		 mov	 DWORD PTR [ecx], OFFSET ??_7bad_alloc@std@@6B@

; 355  : 		}

  00006	ff 25 00 00 00
	00		 jmp	 DWORD PTR __imp_??1exception@std@@UAE@XZ
??1bad_alloc@std@@UAE@XZ ENDP				; std::bad_alloc::~bad_alloc
_TEXT	ENDS
EXTRN	??3@YAXPAX@Z:PROC				; operator delete
; Function compile flags: /Ogsp
;	COMDAT ??_Gbad_alloc@std@@UAEPAXI@Z
_TEXT	SEGMENT
___flags$ = 8						; size = 4
??_Gbad_alloc@std@@UAEPAXI@Z PROC			; std::bad_alloc::`scalar deleting destructor', COMDAT
; _this$ = ecx
  00000	55		 push	 ebp
  00001	8b ec		 mov	 ebp, esp
  00003	56		 push	 esi
  00004	8b f1		 mov	 esi, ecx
  00006	c7 06 00 00 00
	00		 mov	 DWORD PTR [esi], OFFSET ??_7bad_alloc@std@@6B@
  0000c	ff 15 00 00 00
	00		 call	 DWORD PTR __imp_??1exception@std@@UAE@XZ
  00012	f6 45 08 01	 test	 BYTE PTR ___flags$[ebp], 1
  00016	74 07		 je	 SHORT $LN1@scalar
  00018	56		 push	 esi
  00019	e8 00 00 00 00	 call	 ??3@YAXPAX@Z		; operator delete
  0001e	59		 pop	 ecx
$LN1@scalar:
  0001f	8b c6		 mov	 eax, esi
  00021	5e		 pop	 esi
  00022	5d		 pop	 ebp
  00023	c2 04 00	 ret	 4
??_Gbad_alloc@std@@UAEPAXI@Z ENDP			; std::bad_alloc::`scalar deleting destructor'
_TEXT	ENDS
PUBLIC	??2@YAPAXIPAX@Z					; operator new
; Function compile flags: /Ogsp
; File c:\program files (x86)\microsoft visual studio 10.0\vc\include\new
;	COMDAT ??2@YAPAXIPAX@Z
_TEXT	SEGMENT
___formal$ = 8						; size = 4
__Where$ = 12						; size = 4
??2@YAPAXIPAX@Z PROC					; operator new, COMDAT

; 56   : 	{	// construct array with placement at _Where

  00000	55		 push	 ebp
  00001	8b ec		 mov	 ebp, esp

; 57   : 	return (_Where);

  00003	8b 45 0c	 mov	 eax, DWORD PTR __Where$[ebp]

; 58   : 	}

  00006	5d		 pop	 ebp
  00007	c3		 ret	 0
??2@YAPAXIPAX@Z ENDP					; operator new
_TEXT	ENDS
PUBLIC	??3@YAXPAX0@Z					; operator delete
; Function compile flags: /Ogsp
;	COMDAT ??3@YAXPAX0@Z
_TEXT	SEGMENT
___formal$ = 8						; size = 4
___formal$ = 12						; size = 4
??3@YAXPAX0@Z PROC					; operator delete, COMDAT

; 62   : 	}

  00000	c3		 ret	 0
??3@YAXPAX0@Z ENDP					; operator delete
_TEXT	ENDS
PUBLIC	??_7FindPredicate@@6B@				; FindPredicate::`vftable'
PUBLIC	??0FindPredicate@@QAE@PBVioBaseChar@@@Z		; FindPredicate::FindPredicate
PUBLIC	??_R4FindPredicate@@6B@				; FindPredicate::`RTTI Complete Object Locator'
PUBLIC	??_R0?AVFindPredicate@@@8			; FindPredicate `RTTI Type Descriptor'
PUBLIC	??_R3FindPredicate@@8				; FindPredicate::`RTTI Class Hierarchy Descriptor'
PUBLIC	??_R2FindPredicate@@8				; FindPredicate::`RTTI Base Class Array'
PUBLIC	??_R1A@?0A@EA@FindPredicate@@8			; FindPredicate::`RTTI Base Class Descriptor at (0,-1,0,64)'
EXTRN	__purecall:PROC
EXTRN	??_EFindPredicate@@UAEPAXI@Z:PROC		; FindPredicate::`vector deleting destructor'
;	COMDAT ??_R1A@?0A@EA@FindPredicate@@8
; File d:\lost saga for developer\youtube\tutorial\source\src\lsclient\findpredicate.cpp
rdata$r	SEGMENT
??_R1A@?0A@EA@FindPredicate@@8 DD FLAT:??_R0?AVFindPredicate@@@8 ; FindPredicate::`RTTI Base Class Descriptor at (0,-1,0,64)'
	DD	00H
	DD	00H
	DD	0ffffffffH
	DD	00H
	DD	040H
	DD	FLAT:??_R3FindPredicate@@8
rdata$r	ENDS
;	COMDAT ??_R2FindPredicate@@8
rdata$r	SEGMENT
??_R2FindPredicate@@8 DD FLAT:??_R1A@?0A@EA@FindPredicate@@8 ; FindPredicate::`RTTI Base Class Array'
rdata$r	ENDS
;	COMDAT ??_R3FindPredicate@@8
rdata$r	SEGMENT
??_R3FindPredicate@@8 DD 00H				; FindPredicate::`RTTI Class Hierarchy Descriptor'
	DD	00H
	DD	01H
	DD	FLAT:??_R2FindPredicate@@8
rdata$r	ENDS
;	COMDAT ??_R0?AVFindPredicate@@@8
_DATA	SEGMENT
??_R0?AVFindPredicate@@@8 DD FLAT:??_7type_info@@6B@	; FindPredicate `RTTI Type Descriptor'
	DD	00H
	DB	'.?AVFindPredicate@@', 00H
_DATA	ENDS
;	COMDAT ??_R4FindPredicate@@6B@
rdata$r	SEGMENT
??_R4FindPredicate@@6B@ DD 00H				; FindPredicate::`RTTI Complete Object Locator'
	DD	00H
	DD	00H
	DD	FLAT:??_R0?AVFindPredicate@@@8
	DD	FLAT:??_R3FindPredicate@@8
rdata$r	ENDS
;	COMDAT ??_7FindPredicate@@6B@
CONST	SEGMENT
??_7FindPredicate@@6B@ DD FLAT:??_R4FindPredicate@@6B@	; FindPredicate::`vftable'
	DD	FLAT:__purecall
	DD	FLAT:??_EFindPredicate@@UAEPAXI@Z
; Function compile flags: /Ogsp
CONST	ENDS
;	COMDAT ??0FindPredicate@@QAE@PBVioBaseChar@@@Z
_TEXT	SEGMENT
_pOwner$ = 8						; size = 4
??0FindPredicate@@QAE@PBVioBaseChar@@@Z PROC		; FindPredicate::FindPredicate, COMDAT
; _this$ = ecx

; 14   : {

  00000	55		 push	 ebp
  00001	8b ec		 mov	 ebp, esp
  00003	8b c1		 mov	 eax, ecx
  00005	8b 4d 08	 mov	 ecx, DWORD PTR _pOwner$[ebp]
  00008	c7 00 00 00 00
	00		 mov	 DWORD PTR [eax], OFFSET ??_7FindPredicate@@6B@
  0000e	89 48 04	 mov	 DWORD PTR [eax+4], ecx

; 15   : }

  00011	5d		 pop	 ebp
  00012	c2 04 00	 ret	 4
??0FindPredicate@@QAE@PBVioBaseChar@@@Z ENDP		; FindPredicate::FindPredicate
_TEXT	ENDS
PUBLIC	??1FindPredicate@@UAE@XZ			; FindPredicate::~FindPredicate
; Function compile flags: /Ogsp
;	COMDAT ??1FindPredicate@@UAE@XZ
_TEXT	SEGMENT
??1FindPredicate@@UAE@XZ PROC				; FindPredicate::~FindPredicate, COMDAT
; _this$ = ecx

; 18   : {

  00000	c7 01 00 00 00
	00		 mov	 DWORD PTR [ecx], OFFSET ??_7FindPredicate@@6B@

; 19   : }

  00006	c3		 ret	 0
??1FindPredicate@@UAE@XZ ENDP				; FindPredicate::~FindPredicate
_TEXT	ENDS
PUBLIC	??_7FindListPredicate@@6B@			; FindListPredicate::`vftable'
PUBLIC	??0FindListPredicate@@QAE@XZ			; FindListPredicate::FindListPredicate
PUBLIC	??_R4FindListPredicate@@6B@			; FindListPredicate::`RTTI Complete Object Locator'
PUBLIC	??_R0?AVFindListPredicate@@@8			; FindListPredicate `RTTI Type Descriptor'
PUBLIC	??_R3FindListPredicate@@8			; FindListPredicate::`RTTI Class Hierarchy Descriptor'
PUBLIC	??_R2FindListPredicate@@8			; FindListPredicate::`RTTI Base Class Array'
PUBLIC	??_R1A@?0A@EA@FindListPredicate@@8		; FindListPredicate::`RTTI Base Class Descriptor at (0,-1,0,64)'
EXTRN	??_EFindListPredicate@@UAEPAXI@Z:PROC		; FindListPredicate::`vector deleting destructor'
;	COMDAT ??_R1A@?0A@EA@FindListPredicate@@8
rdata$r	SEGMENT
??_R1A@?0A@EA@FindListPredicate@@8 DD FLAT:??_R0?AVFindListPredicate@@@8 ; FindListPredicate::`RTTI Base Class Descriptor at (0,-1,0,64)'
	DD	00H
	DD	00H
	DD	0ffffffffH
	DD	00H
	DD	040H
	DD	FLAT:??_R3FindListPredicate@@8
rdata$r	ENDS
;	COMDAT ??_R2FindListPredicate@@8
rdata$r	SEGMENT
??_R2FindListPredicate@@8 DD FLAT:??_R1A@?0A@EA@FindListPredicate@@8 ; FindListPredicate::`RTTI Base Class Array'
rdata$r	ENDS
;	COMDAT ??_R3FindListPredicate@@8
rdata$r	SEGMENT
??_R3FindListPredicate@@8 DD 00H			; FindListPredicate::`RTTI Class Hierarchy Descriptor'
	DD	00H
	DD	01H
	DD	FLAT:??_R2FindListPredicate@@8
rdata$r	ENDS
;	COMDAT ??_R0?AVFindListPredicate@@@8
_DATA	SEGMENT
??_R0?AVFindListPredicate@@@8 DD FLAT:??_7type_info@@6B@ ; FindListPredicate `RTTI Type Descriptor'
	DD	00H
	DB	'.?AVFindListPredicate@@', 00H
_DATA	ENDS
;	COMDAT ??_R4FindListPredicate@@6B@
rdata$r	SEGMENT
??_R4FindListPredicate@@6B@ DD 00H			; FindListPredicate::`RTTI Complete Object Locator'
	DD	00H
	DD	00H
	DD	FLAT:??_R0?AVFindListPredicate@@@8
	DD	FLAT:??_R3FindListPredicate@@8
rdata$r	ENDS
;	COMDAT ??_7FindListPredicate@@6B@
CONST	SEGMENT
??_7FindListPredicate@@6B@ DD FLAT:??_R4FindListPredicate@@6B@ ; FindListPredicate::`vftable'
	DD	FLAT:__purecall
	DD	FLAT:??_EFindListPredicate@@UAEPAXI@Z
; Function compile flags: /Ogsp
CONST	ENDS
;	COMDAT ??0FindListPredicate@@QAE@XZ
_TEXT	SEGMENT
??0FindListPredicate@@QAE@XZ PROC			; FindListPredicate::FindListPredicate, COMDAT
; _this$ = ecx

; 139  : {

  00000	8b c1		 mov	 eax, ecx
  00002	c7 00 00 00 00
	00		 mov	 DWORD PTR [eax], OFFSET ??_7FindListPredicate@@6B@

; 140  : }

  00008	c3		 ret	 0
??0FindListPredicate@@QAE@XZ ENDP			; FindListPredicate::FindListPredicate
_TEXT	ENDS
PUBLIC	??1FindListPredicate@@UAE@XZ			; FindListPredicate::~FindListPredicate
; Function compile flags: /Ogsp
;	COMDAT ??1FindListPredicate@@UAE@XZ
_TEXT	SEGMENT
??1FindListPredicate@@UAE@XZ PROC			; FindListPredicate::~FindListPredicate, COMDAT
; _this$ = ecx

; 143  : {

  00000	c7 01 00 00 00
	00		 mov	 DWORD PTR [ecx], OFFSET ??_7FindListPredicate@@6B@

; 144  : }

  00006	c3		 ret	 0
??1FindListPredicate@@UAE@XZ ENDP			; FindListPredicate::~FindListPredicate
_TEXT	ENDS
PUBLIC	?size@?$vector@PAVioBaseChar@@V?$allocator@PAVioBaseChar@@@std@@@std@@QBEIXZ ; std::vector<ioBaseChar *,std::allocator<ioBaseChar *> >::size
; Function compile flags: /Ogsp
; File c:\program files (x86)\microsoft visual studio 10.0\vc\include\vector
;	COMDAT ?size@?$vector@PAVioBaseChar@@V?$allocator@PAVioBaseChar@@@std@@@std@@QBEIXZ
_TEXT	SEGMENT
?size@?$vector@PAVioBaseChar@@V?$allocator@PAVioBaseChar@@@std@@@std@@QBEIXZ PROC ; std::vector<ioBaseChar *,std::allocator<ioBaseChar *> >::size, COMDAT
; _this$ = ecx

; 879  : 		return (this->_Mylast - this->_Myfirst);

  00000	8b 41 04	 mov	 eax, DWORD PTR [ecx+4]
  00003	2b 01		 sub	 eax, DWORD PTR [ecx]
  00005	c1 f8 02	 sar	 eax, 2

; 880  : 		}

  00008	c3		 ret	 0
?size@?$vector@PAVioBaseChar@@V?$allocator@PAVioBaseChar@@@std@@@std@@QBEIXZ ENDP ; std::vector<ioBaseChar *,std::allocator<ioBaseChar *> >::size
_TEXT	ENDS
PUBLIC	?empty@?$vector@PAVioBaseChar@@V?$allocator@PAVioBaseChar@@@std@@@std@@QBE_NXZ ; std::vector<ioBaseChar *,std::allocator<ioBaseChar *> >::empty
; Function compile flags: /Ogsp
;	COMDAT ?empty@?$vector@PAVioBaseChar@@V?$allocator@PAVioBaseChar@@@std@@@std@@QBE_NXZ
_TEXT	SEGMENT
?empty@?$vector@PAVioBaseChar@@V?$allocator@PAVioBaseChar@@@std@@@std@@QBE_NXZ PROC ; std::vector<ioBaseChar *,std::allocator<ioBaseChar *> >::empty, COMDAT
; _this$ = ecx

; 889  : 		return (this->_Myfirst == this->_Mylast);

  00000	8b 01		 mov	 eax, DWORD PTR [ecx]
  00002	2b 41 04	 sub	 eax, DWORD PTR [ecx+4]
  00005	f7 d8		 neg	 eax
  00007	1b c0		 sbb	 eax, eax
  00009	40		 inc	 eax

; 890  : 		}

  0000a	c3		 ret	 0
?empty@?$vector@PAVioBaseChar@@V?$allocator@PAVioBaseChar@@@std@@@std@@QBE_NXZ ENDP ; std::vector<ioBaseChar *,std::allocator<ioBaseChar *> >::empty
_TEXT	ENDS
PUBLIC	?_Adopt@_Iterator_base0@std@@QAEXPBX@Z		; std::_Iterator_base0::_Adopt
; Function compile flags: /Ogsp
; File c:\program files (x86)\microsoft visual studio 10.0\vc\include\xutility
;	COMDAT ?_Adopt@_Iterator_base0@std@@QAEXPBX@Z
_TEXT	SEGMENT
___formal$ = 8						; size = 4
?_Adopt@_Iterator_base0@std@@QAEXPBX@Z PROC		; std::_Iterator_base0::_Adopt, COMDAT
; _this$ = ecx

; 49   : 		}

  00000	c2 04 00	 ret	 4
?_Adopt@_Iterator_base0@std@@QAEXPBX@Z ENDP		; std::_Iterator_base0::_Adopt
_TEXT	ENDS
PUBLIC	??0?$_Vector_const_iterator@V?$_Vector_val@PAVioBaseChar@@V?$allocator@PAVioBaseChar@@@std@@@std@@@std@@QAE@XZ ; std::_Vector_const_iterator<std::_Vector_val<ioBaseChar *,std::allocator<ioBaseChar *> > >::_Vector_const_iterator<std::_Vector_val<ioBaseChar *,std::allocator<ioBaseChar *> > >
; Function compile flags: /Ogsp
; File c:\program files (x86)\microsoft visual studio 10.0\vc\include\vector
;	COMDAT ??0?$_Vector_const_iterator@V?$_Vector_val@PAVioBaseChar@@V?$allocator@PAVioBaseChar@@@std@@@std@@@std@@QAE@XZ
_TEXT	SEGMENT
??0?$_Vector_const_iterator@V?$_Vector_val@PAVioBaseChar@@V?$allocator@PAVioBaseChar@@@std@@@std@@@std@@QAE@XZ PROC ; std::_Vector_const_iterator<std::_Vector_val<ioBaseChar *,std::allocator<ioBaseChar *> > >::_Vector_const_iterator<std::_Vector_val<ioBaseChar *,std::allocator<ioBaseChar *> > >, COMDAT
; _this$ = ecx

; 40   : 		{	// construct with null pointer

  00000	8b c1		 mov	 eax, ecx
  00002	83 20 00	 and	 DWORD PTR [eax], 0

; 41   : 		}

  00005	c3		 ret	 0
??0?$_Vector_const_iterator@V?$_Vector_val@PAVioBaseChar@@V?$allocator@PAVioBaseChar@@@std@@@std@@@std@@QAE@XZ ENDP ; std::_Vector_const_iterator<std::_Vector_val<ioBaseChar *,std::allocator<ioBaseChar *> > >::_Vector_const_iterator<std::_Vector_val<ioBaseChar *,std::allocator<ioBaseChar *> > >
_TEXT	ENDS
PUBLIC	??D?$_Vector_const_iterator@V?$_Vector_val@PAVioBaseChar@@V?$allocator@PAVioBaseChar@@@std@@@std@@@std@@QBEABQAVioBaseChar@@XZ ; std::_Vector_const_iterator<std::_Vector_val<ioBaseChar *,std::allocator<ioBaseChar *> > >::operator*
; Function compile flags: /Ogsp
;	COMDAT ??D?$_Vector_const_iterator@V?$_Vector_val@PAVioBaseChar@@V?$allocator@PAVioBaseChar@@@std@@@std@@@std@@QBEABQAVioBaseChar@@XZ
_TEXT	SEGMENT
??D?$_Vector_const_iterator@V?$_Vector_val@PAVioBaseChar@@V?$allocator@PAVioBaseChar@@@std@@@std@@@std@@QBEABQAVioBaseChar@@XZ PROC ; std::_Vector_const_iterator<std::_Vector_val<ioBaseChar *,std::allocator<ioBaseChar *> > >::operator*, COMDAT
; _this$ = ecx

; 64   :  #if _ITERATOR_DEBUG_LEVEL == 2
; 65   : 		if (this->_Getcont() == 0
; 66   : 			|| this->_Ptr == 0
; 67   : 			|| this->_Ptr < ((_Myvec *)this->_Getcont())->_Myfirst
; 68   : 			|| ((_Myvec *)this->_Getcont())->_Mylast <= this->_Ptr)
; 69   : 			{	// report error
; 70   : 			_DEBUG_ERROR("vector iterator not dereferencable");
; 71   : 			_SCL_SECURE_OUT_OF_RANGE;
; 72   : 			}
; 73   : 
; 74   :  #elif _ITERATOR_DEBUG_LEVEL == 1
; 75   : 		_SCL_SECURE_VALIDATE(this->_Getcont() != 0);
; 76   : 		_SCL_SECURE_VALIDATE_RANGE(
; 77   : 			this->_Ptr != 0
; 78   : 			&& ((_Myvec *)this->_Getcont())->_Myfirst <= this->_Ptr
; 79   : 			&& this->_Ptr < ((_Myvec *)this->_Getcont())->_Mylast);
; 80   :  #endif /* _ITERATOR_DEBUG_LEVEL */
; 81   : 
; 82   : 		__analysis_assume(this->_Ptr != 0);
; 83   : 
; 84   : 		return (*this->_Ptr);

  00000	8b 01		 mov	 eax, DWORD PTR [ecx]

; 85   : 		}

  00002	c3		 ret	 0
??D?$_Vector_const_iterator@V?$_Vector_val@PAVioBaseChar@@V?$allocator@PAVioBaseChar@@@std@@@std@@@std@@QBEABQAVioBaseChar@@XZ ENDP ; std::_Vector_const_iterator<std::_Vector_val<ioBaseChar *,std::allocator<ioBaseChar *> > >::operator*
_TEXT	ENDS
PUBLIC	??E?$_Vector_const_iterator@V?$_Vector_val@PAVioBaseChar@@V?$allocator@PAVioBaseChar@@@std@@@std@@@std@@QAEAAV01@XZ ; std::_Vector_const_iterator<std::_Vector_val<ioBaseChar *,std::allocator<ioBaseChar *> > >::operator++
; Function compile flags: /Ogsp
;	COMDAT ??E?$_Vector_const_iterator@V?$_Vector_val@PAVioBaseChar@@V?$allocator@PAVioBaseChar@@@std@@@std@@@std@@QAEAAV01@XZ
_TEXT	SEGMENT
??E?$_Vector_const_iterator@V?$_Vector_val@PAVioBaseChar@@V?$allocator@PAVioBaseChar@@@std@@@std@@@std@@QAEAAV01@XZ PROC ; std::_Vector_const_iterator<std::_Vector_val<ioBaseChar *,std::allocator<ioBaseChar *> > >::operator++, COMDAT
; _this$ = ecx

; 93   : 		{	// preincrement

  00000	8b c1		 mov	 eax, ecx

; 94   :  #if _ITERATOR_DEBUG_LEVEL == 2
; 95   : 		if (this->_Getcont() == 0
; 96   : 			|| this->_Ptr == 0
; 97   : 			|| ((_Myvec *)this->_Getcont())->_Mylast <= this->_Ptr)
; 98   : 			{	// report error
; 99   : 			_DEBUG_ERROR("vector iterator not incrementable");
; 100  : 			_SCL_SECURE_OUT_OF_RANGE;
; 101  : 			}
; 102  : 
; 103  :  #elif _ITERATOR_DEBUG_LEVEL == 1
; 104  : 		_SCL_SECURE_VALIDATE(this->_Getcont() != 0);
; 105  : 		_SCL_SECURE_VALIDATE_RANGE(
; 106  : 			this->_Ptr != 0
; 107  : 			&& this->_Ptr < ((_Myvec *)this->_Getcont())->_Mylast);
; 108  :  #endif /* _ITERATOR_DEBUG_LEVEL */
; 109  : 
; 110  : 		++this->_Ptr;

  00002	83 00 04	 add	 DWORD PTR [eax], 4

; 111  : 		return (*this);
; 112  : 		}

  00005	c3		 ret	 0
??E?$_Vector_const_iterator@V?$_Vector_val@PAVioBaseChar@@V?$allocator@PAVioBaseChar@@@std@@@std@@@std@@QAEAAV01@XZ ENDP ; std::_Vector_const_iterator<std::_Vector_val<ioBaseChar *,std::allocator<ioBaseChar *> > >::operator++
_TEXT	ENDS
PUBLIC	?capacity@?$vector@UCharDistanceSq@FindPredicate@@V?$allocator@UCharDistanceSq@FindPredicate@@@std@@@std@@QBEIXZ ; std::vector<FindPredicate::CharDistanceSq,std::allocator<FindPredicate::CharDistanceSq> >::capacity
; Function compile flags: /Ogsp
;	COMDAT ?capacity@?$vector@UCharDistanceSq@FindPredicate@@V?$allocator@UCharDistanceSq@FindPredicate@@@std@@@std@@QBEIXZ
_TEXT	SEGMENT
?capacity@?$vector@UCharDistanceSq@FindPredicate@@V?$allocator@UCharDistanceSq@FindPredicate@@@std@@@std@@QBEIXZ PROC ; std::vector<FindPredicate::CharDistanceSq,std::allocator<FindPredicate::CharDistanceSq> >::capacity, COMDAT
; _this$ = ecx

; 777  : 		return (this->_Myend - this->_Myfirst);

  00000	8b 41 08	 mov	 eax, DWORD PTR [ecx+8]
  00003	2b 01		 sub	 eax, DWORD PTR [ecx]
  00005	c1 f8 03	 sar	 eax, 3

; 778  : 		}

  00008	c3		 ret	 0
?capacity@?$vector@UCharDistanceSq@FindPredicate@@V?$allocator@UCharDistanceSq@FindPredicate@@@std@@@std@@QBEIXZ ENDP ; std::vector<FindPredicate::CharDistanceSq,std::allocator<FindPredicate::CharDistanceSq> >::capacity
_TEXT	ENDS
PUBLIC	?size@?$vector@UCharDistanceSq@FindPredicate@@V?$allocator@UCharDistanceSq@FindPredicate@@@std@@@std@@QBEIXZ ; std::vector<FindPredicate::CharDistanceSq,std::allocator<FindPredicate::CharDistanceSq> >::size
; Function compile flags: /Ogsp
;	COMDAT ?size@?$vector@UCharDistanceSq@FindPredicate@@V?$allocator@UCharDistanceSq@FindPredicate@@@std@@@std@@QBEIXZ
_TEXT	SEGMENT
?size@?$vector@UCharDistanceSq@FindPredicate@@V?$allocator@UCharDistanceSq@FindPredicate@@@std@@@std@@QBEIXZ PROC ; std::vector<FindPredicate::CharDistanceSq,std::allocator<FindPredicate::CharDistanceSq> >::size, COMDAT
; _this$ = ecx

; 879  : 		return (this->_Mylast - this->_Myfirst);

  00000	8b 41 04	 mov	 eax, DWORD PTR [ecx+4]
  00003	2b 01		 sub	 eax, DWORD PTR [ecx]
  00005	c1 f8 03	 sar	 eax, 3

; 880  : 		}

  00008	c3		 ret	 0
?size@?$vector@UCharDistanceSq@FindPredicate@@V?$allocator@UCharDistanceSq@FindPredicate@@@std@@@std@@QBEIXZ ENDP ; std::vector<FindPredicate::CharDistanceSq,std::allocator<FindPredicate::CharDistanceSq> >::size
_TEXT	ENDS
PUBLIC	?_Inside@?$vector@UCharDistanceSq@FindPredicate@@V?$allocator@UCharDistanceSq@FindPredicate@@@std@@@std@@IBE_NPBUCharDistanceSq@FindPredicate@@@Z ; std::vector<FindPredicate::CharDistanceSq,std::allocator<FindPredicate::CharDistanceSq> >::_Inside
; Function compile flags: /Ogsp
;	COMDAT ?_Inside@?$vector@UCharDistanceSq@FindPredicate@@V?$allocator@UCharDistanceSq@FindPredicate@@@std@@@std@@IBE_NPBUCharDistanceSq@FindPredicate@@@Z
_TEXT	SEGMENT
__Ptr$ = 8						; size = 4
?_Inside@?$vector@UCharDistanceSq@FindPredicate@@V?$allocator@UCharDistanceSq@FindPredicate@@@std@@@std@@IBE_NPBUCharDistanceSq@FindPredicate@@@Z PROC ; std::vector<FindPredicate::CharDistanceSq,std::allocator<FindPredicate::CharDistanceSq> >::_Inside, COMDAT
; _this$ = ecx

; 1285 : 		{	// test if _Ptr points inside vector

  00000	55		 push	 ebp
  00001	8b ec		 mov	 ebp, esp

; 1286 : 		return (_Ptr < this->_Mylast && this->_Myfirst <= _Ptr);

  00003	8b 45 08	 mov	 eax, DWORD PTR __Ptr$[ebp]
  00006	3b 41 04	 cmp	 eax, DWORD PTR [ecx+4]
  00009	73 09		 jae	 SHORT $LN3@Inside
  0000b	39 01		 cmp	 DWORD PTR [ecx], eax
  0000d	77 05		 ja	 SHORT $LN3@Inside
  0000f	33 c0		 xor	 eax, eax
  00011	40		 inc	 eax
  00012	eb 02		 jmp	 SHORT $LN4@Inside
$LN3@Inside:
  00014	33 c0		 xor	 eax, eax
$LN4@Inside:

; 1287 : 		}

  00016	5d		 pop	 ebp
  00017	c2 04 00	 ret	 4
?_Inside@?$vector@UCharDistanceSq@FindPredicate@@V?$allocator@UCharDistanceSq@FindPredicate@@@std@@@std@@IBE_NPBUCharDistanceSq@FindPredicate@@@Z ENDP ; std::vector<FindPredicate::CharDistanceSq,std::allocator<FindPredicate::CharDistanceSq> >::_Inside
_TEXT	ENDS
PUBLIC	??_C@_0BD@OLBABOEK@vector?$DMT?$DO?5too?5long?$AA@ ; `string'
PUBLIC	?_Xlen@?$vector@UCharDistanceSq@FindPredicate@@V?$allocator@UCharDistanceSq@FindPredicate@@@std@@@std@@IBEXXZ ; std::vector<FindPredicate::CharDistanceSq,std::allocator<FindPredicate::CharDistanceSq> >::_Xlen
EXTRN	__imp_?_Xlength_error@std@@YAXPBD@Z:PROC
;	COMDAT ??_C@_0BD@OLBABOEK@vector?$DMT?$DO?5too?5long?$AA@
CONST	SEGMENT
??_C@_0BD@OLBABOEK@vector?$DMT?$DO?5too?5long?$AA@ DB 'vector<T> too long'
	DB	00H						; `string'
; Function compile flags: /Ogsp
CONST	ENDS
;	COMDAT ?_Xlen@?$vector@UCharDistanceSq@FindPredicate@@V?$allocator@UCharDistanceSq@FindPredicate@@@std@@@std@@IBEXXZ
_TEXT	SEGMENT
?_Xlen@?$vector@UCharDistanceSq@FindPredicate@@V?$allocator@UCharDistanceSq@FindPredicate@@@std@@@std@@IBEXXZ PROC ; std::vector<FindPredicate::CharDistanceSq,std::allocator<FindPredicate::CharDistanceSq> >::_Xlen, COMDAT
; _this$ = ecx

; 1427 : 		_Xlength_error("vector<T> too long");

  00000	68 00 00 00 00	 push	 OFFSET ??_C@_0BD@OLBABOEK@vector?$DMT?$DO?5too?5long?$AA@
  00005	ff 15 00 00 00
	00		 call	 DWORD PTR __imp_?_Xlength_error@std@@YAXPBD@Z
$LN4@Xlen:
$LN3@Xlen:
  0000b	cc		 int	 3
?_Xlen@?$vector@UCharDistanceSq@FindPredicate@@V?$allocator@UCharDistanceSq@FindPredicate@@@std@@@std@@IBEXXZ ENDP ; std::vector<FindPredicate::CharDistanceSq,std::allocator<FindPredicate::CharDistanceSq> >::_Xlen
_TEXT	ENDS
PUBLIC	?_Orphan_range@?$vector@UCharDistanceSq@FindPredicate@@V?$allocator@UCharDistanceSq@FindPredicate@@@std@@@std@@IBEXPAUCharDistanceSq@FindPredicate@@0@Z ; std::vector<FindPredicate::CharDistanceSq,std::allocator<FindPredicate::CharDistanceSq> >::_Orphan_range
; Function compile flags: /Ogsp
;	COMDAT ?_Orphan_range@?$vector@UCharDistanceSq@FindPredicate@@V?$allocator@UCharDistanceSq@FindPredicate@@@std@@@std@@IBEXPAUCharDistanceSq@FindPredicate@@0@Z
_TEXT	SEGMENT
___formal$ = 8						; size = 4
___formal$ = 12						; size = 4
?_Orphan_range@?$vector@UCharDistanceSq@FindPredicate@@V?$allocator@UCharDistanceSq@FindPredicate@@@std@@@std@@IBEXPAUCharDistanceSq@FindPredicate@@0@Z PROC ; std::vector<FindPredicate::CharDistanceSq,std::allocator<FindPredicate::CharDistanceSq> >::_Orphan_range, COMDAT
; _this$ = ecx

; 1454 : 		}

  00000	c2 08 00	 ret	 8
?_Orphan_range@?$vector@UCharDistanceSq@FindPredicate@@V?$allocator@UCharDistanceSq@FindPredicate@@@std@@@std@@IBEXPAUCharDistanceSq@FindPredicate@@0@Z ENDP ; std::vector<FindPredicate::CharDistanceSq,std::allocator<FindPredicate::CharDistanceSq> >::_Orphan_range
_TEXT	ENDS
PUBLIC	??1?$_Vector_val@UCharDistanceSq@FindPredicate@@V?$allocator@UCharDistanceSq@FindPredicate@@@std@@@std@@QAE@XZ ; std::_Vector_val<FindPredicate::CharDistanceSq,std::allocator<FindPredicate::CharDistanceSq> >::~_Vector_val<FindPredicate::CharDistanceSq,std::allocator<FindPredicate::CharDistanceSq> >
; Function compile flags: /Ogsp
;	COMDAT ??1?$_Vector_val@UCharDistanceSq@FindPredicate@@V?$allocator@UCharDistanceSq@FindPredicate@@@std@@@std@@QAE@XZ
_TEXT	SEGMENT
??1?$_Vector_val@UCharDistanceSq@FindPredicate@@V?$allocator@UCharDistanceSq@FindPredicate@@@std@@@std@@QAE@XZ PROC ; std::_Vector_val<FindPredicate::CharDistanceSq,std::allocator<FindPredicate::CharDistanceSq> >::~_Vector_val<FindPredicate::CharDistanceSq,std::allocator<FindPredicate::CharDistanceSq> >, COMDAT
; _this$ = ecx

; 434  : 		}

  00000	c3		 ret	 0
??1?$_Vector_val@UCharDistanceSq@FindPredicate@@V?$allocator@UCharDistanceSq@FindPredicate@@@std@@@std@@QAE@XZ ENDP ; std::_Vector_val<FindPredicate::CharDistanceSq,std::allocator<FindPredicate::CharDistanceSq> >::~_Vector_val<FindPredicate::CharDistanceSq,std::allocator<FindPredicate::CharDistanceSq> >
_TEXT	ENDS
PUBLIC	??0?$allocator@UCharDistanceSq@FindPredicate@@@std@@QAE@XZ ; std::allocator<FindPredicate::CharDistanceSq>::allocator<FindPredicate::CharDistanceSq>
; Function compile flags: /Ogsp
; File c:\program files (x86)\microsoft visual studio 10.0\vc\include\xmemory
;	COMDAT ??0?$allocator@UCharDistanceSq@FindPredicate@@@std@@QAE@XZ
_TEXT	SEGMENT
??0?$allocator@UCharDistanceSq@FindPredicate@@@std@@QAE@XZ PROC ; std::allocator<FindPredicate::CharDistanceSq>::allocator<FindPredicate::CharDistanceSq>, COMDAT
; _this$ = ecx

; 161  : 	_ALLOCATOR() _THROW0()

  00000	8b c1		 mov	 eax, ecx

; 162  : 		{	// construct default allocator (do nothing)
; 163  : 		}

  00002	c3		 ret	 0
??0?$allocator@UCharDistanceSq@FindPredicate@@@std@@QAE@XZ ENDP ; std::allocator<FindPredicate::CharDistanceSq>::allocator<FindPredicate::CharDistanceSq>
_TEXT	ENDS
PUBLIC	?deallocate@?$allocator@UCharDistanceSq@FindPredicate@@@std@@QAEXPAUCharDistanceSq@FindPredicate@@I@Z ; std::allocator<FindPredicate::CharDistanceSq>::deallocate
; Function compile flags: /Ogsp
;	COMDAT ?deallocate@?$allocator@UCharDistanceSq@FindPredicate@@@std@@QAEXPAUCharDistanceSq@FindPredicate@@I@Z
_TEXT	SEGMENT
__Ptr$ = 8						; size = 4
___formal$ = 12						; size = 4
?deallocate@?$allocator@UCharDistanceSq@FindPredicate@@@std@@QAEXPAUCharDistanceSq@FindPredicate@@I@Z PROC ; std::allocator<FindPredicate::CharDistanceSq>::deallocate, COMDAT
; _this$ = ecx

; 181  : 		{	// deallocate object at _Ptr, ignore size

  00000	55		 push	 ebp
  00001	8b ec		 mov	 ebp, esp

; 182  : 		::operator delete(_Ptr);

  00003	ff 75 08	 push	 DWORD PTR __Ptr$[ebp]
  00006	e8 00 00 00 00	 call	 ??3@YAXPAX@Z		; operator delete
  0000b	59		 pop	 ecx

; 183  : 		}

  0000c	5d		 pop	 ebp
  0000d	c2 08 00	 ret	 8
?deallocate@?$allocator@UCharDistanceSq@FindPredicate@@@std@@QAEXPAUCharDistanceSq@FindPredicate@@I@Z ENDP ; std::allocator<FindPredicate::CharDistanceSq>::deallocate
_TEXT	ENDS
PUBLIC	?capacity@?$vector@UCharAngle@FindPredicate@@V?$allocator@UCharAngle@FindPredicate@@@std@@@std@@QBEIXZ ; std::vector<FindPredicate::CharAngle,std::allocator<FindPredicate::CharAngle> >::capacity
; Function compile flags: /Ogsp
; File c:\program files (x86)\microsoft visual studio 10.0\vc\include\vector
;	COMDAT ?capacity@?$vector@UCharAngle@FindPredicate@@V?$allocator@UCharAngle@FindPredicate@@@std@@@std@@QBEIXZ
_TEXT	SEGMENT
?capacity@?$vector@UCharAngle@FindPredicate@@V?$allocator@UCharAngle@FindPredicate@@@std@@@std@@QBEIXZ PROC ; std::vector<FindPredicate::CharAngle,std::allocator<FindPredicate::CharAngle> >::capacity, COMDAT
; _this$ = ecx

; 777  : 		return (this->_Myend - this->_Myfirst);

  00000	8b 41 08	 mov	 eax, DWORD PTR [ecx+8]
  00003	2b 01		 sub	 eax, DWORD PTR [ecx]
  00005	c1 f8 03	 sar	 eax, 3

; 778  : 		}

  00008	c3		 ret	 0
?capacity@?$vector@UCharAngle@FindPredicate@@V?$allocator@UCharAngle@FindPredicate@@@std@@@std@@QBEIXZ ENDP ; std::vector<FindPredicate::CharAngle,std::allocator<FindPredicate::CharAngle> >::capacity
_TEXT	ENDS
PUBLIC	?size@?$vector@UCharAngle@FindPredicate@@V?$allocator@UCharAngle@FindPredicate@@@std@@@std@@QBEIXZ ; std::vector<FindPredicate::CharAngle,std::allocator<FindPredicate::CharAngle> >::size
; Function compile flags: /Ogsp
;	COMDAT ?size@?$vector@UCharAngle@FindPredicate@@V?$allocator@UCharAngle@FindPredicate@@@std@@@std@@QBEIXZ
_TEXT	SEGMENT
?size@?$vector@UCharAngle@FindPredicate@@V?$allocator@UCharAngle@FindPredicate@@@std@@@std@@QBEIXZ PROC ; std::vector<FindPredicate::CharAngle,std::allocator<FindPredicate::CharAngle> >::size, COMDAT
; _this$ = ecx

; 879  : 		return (this->_Mylast - this->_Myfirst);

  00000	8b 41 04	 mov	 eax, DWORD PTR [ecx+4]
  00003	2b 01		 sub	 eax, DWORD PTR [ecx]
  00005	c1 f8 03	 sar	 eax, 3

; 880  : 		}

  00008	c3		 ret	 0
?size@?$vector@UCharAngle@FindPredicate@@V?$allocator@UCharAngle@FindPredicate@@@std@@@std@@QBEIXZ ENDP ; std::vector<FindPredicate::CharAngle,std::allocator<FindPredicate::CharAngle> >::size
_TEXT	ENDS
PUBLIC	?_Inside@?$vector@UCharAngle@FindPredicate@@V?$allocator@UCharAngle@FindPredicate@@@std@@@std@@IBE_NPBUCharAngle@FindPredicate@@@Z ; std::vector<FindPredicate::CharAngle,std::allocator<FindPredicate::CharAngle> >::_Inside
; Function compile flags: /Ogsp
;	COMDAT ?_Inside@?$vector@UCharAngle@FindPredicate@@V?$allocator@UCharAngle@FindPredicate@@@std@@@std@@IBE_NPBUCharAngle@FindPredicate@@@Z
_TEXT	SEGMENT
__Ptr$ = 8						; size = 4
?_Inside@?$vector@UCharAngle@FindPredicate@@V?$allocator@UCharAngle@FindPredicate@@@std@@@std@@IBE_NPBUCharAngle@FindPredicate@@@Z PROC ; std::vector<FindPredicate::CharAngle,std::allocator<FindPredicate::CharAngle> >::_Inside, COMDAT
; _this$ = ecx

; 1285 : 		{	// test if _Ptr points inside vector

  00000	55		 push	 ebp
  00001	8b ec		 mov	 ebp, esp

; 1286 : 		return (_Ptr < this->_Mylast && this->_Myfirst <= _Ptr);

  00003	8b 45 08	 mov	 eax, DWORD PTR __Ptr$[ebp]
  00006	3b 41 04	 cmp	 eax, DWORD PTR [ecx+4]
  00009	73 09		 jae	 SHORT $LN3@Inside@2
  0000b	39 01		 cmp	 DWORD PTR [ecx], eax
  0000d	77 05		 ja	 SHORT $LN3@Inside@2
  0000f	33 c0		 xor	 eax, eax
  00011	40		 inc	 eax
  00012	eb 02		 jmp	 SHORT $LN4@Inside@2
$LN3@Inside@2:
  00014	33 c0		 xor	 eax, eax
$LN4@Inside@2:

; 1287 : 		}

  00016	5d		 pop	 ebp
  00017	c2 04 00	 ret	 4
?_Inside@?$vector@UCharAngle@FindPredicate@@V?$allocator@UCharAngle@FindPredicate@@@std@@@std@@IBE_NPBUCharAngle@FindPredicate@@@Z ENDP ; std::vector<FindPredicate::CharAngle,std::allocator<FindPredicate::CharAngle> >::_Inside
_TEXT	ENDS
PUBLIC	?_Xlen@?$vector@UCharAngle@FindPredicate@@V?$allocator@UCharAngle@FindPredicate@@@std@@@std@@IBEXXZ ; std::vector<FindPredicate::CharAngle,std::allocator<FindPredicate::CharAngle> >::_Xlen
; Function compile flags: /Ogsp
;	COMDAT ?_Xlen@?$vector@UCharAngle@FindPredicate@@V?$allocator@UCharAngle@FindPredicate@@@std@@@std@@IBEXXZ
_TEXT	SEGMENT
?_Xlen@?$vector@UCharAngle@FindPredicate@@V?$allocator@UCharAngle@FindPredicate@@@std@@@std@@IBEXXZ PROC ; std::vector<FindPredicate::CharAngle,std::allocator<FindPredicate::CharAngle> >::_Xlen, COMDAT
; _this$ = ecx

; 1427 : 		_Xlength_error("vector<T> too long");

  00000	68 00 00 00 00	 push	 OFFSET ??_C@_0BD@OLBABOEK@vector?$DMT?$DO?5too?5long?$AA@
  00005	ff 15 00 00 00
	00		 call	 DWORD PTR __imp_?_Xlength_error@std@@YAXPBD@Z
$LN4@Xlen@2:
$LN3@Xlen@2:
  0000b	cc		 int	 3
?_Xlen@?$vector@UCharAngle@FindPredicate@@V?$allocator@UCharAngle@FindPredicate@@@std@@@std@@IBEXXZ ENDP ; std::vector<FindPredicate::CharAngle,std::allocator<FindPredicate::CharAngle> >::_Xlen
_TEXT	ENDS
PUBLIC	?_Orphan_range@?$vector@UCharAngle@FindPredicate@@V?$allocator@UCharAngle@FindPredicate@@@std@@@std@@IBEXPAUCharAngle@FindPredicate@@0@Z ; std::vector<FindPredicate::CharAngle,std::allocator<FindPredicate::CharAngle> >::_Orphan_range
; Function compile flags: /Ogsp
;	COMDAT ?_Orphan_range@?$vector@UCharAngle@FindPredicate@@V?$allocator@UCharAngle@FindPredicate@@@std@@@std@@IBEXPAUCharAngle@FindPredicate@@0@Z
_TEXT	SEGMENT
___formal$ = 8						; size = 4
___formal$ = 12						; size = 4
?_Orphan_range@?$vector@UCharAngle@FindPredicate@@V?$allocator@UCharAngle@FindPredicate@@@std@@@std@@IBEXPAUCharAngle@FindPredicate@@0@Z PROC ; std::vector<FindPredicate::CharAngle,std::allocator<FindPredicate::CharAngle> >::_Orphan_range, COMDAT
; _this$ = ecx

; 1454 : 		}

  00000	c2 08 00	 ret	 8
?_Orphan_range@?$vector@UCharAngle@FindPredicate@@V?$allocator@UCharAngle@FindPredicate@@@std@@@std@@IBEXPAUCharAngle@FindPredicate@@0@Z ENDP ; std::vector<FindPredicate::CharAngle,std::allocator<FindPredicate::CharAngle> >::_Orphan_range
_TEXT	ENDS
PUBLIC	??1?$_Vector_val@UCharAngle@FindPredicate@@V?$allocator@UCharAngle@FindPredicate@@@std@@@std@@QAE@XZ ; std::_Vector_val<FindPredicate::CharAngle,std::allocator<FindPredicate::CharAngle> >::~_Vector_val<FindPredicate::CharAngle,std::allocator<FindPredicate::CharAngle> >
; Function compile flags: /Ogsp
;	COMDAT ??1?$_Vector_val@UCharAngle@FindPredicate@@V?$allocator@UCharAngle@FindPredicate@@@std@@@std@@QAE@XZ
_TEXT	SEGMENT
??1?$_Vector_val@UCharAngle@FindPredicate@@V?$allocator@UCharAngle@FindPredicate@@@std@@@std@@QAE@XZ PROC ; std::_Vector_val<FindPredicate::CharAngle,std::allocator<FindPredicate::CharAngle> >::~_Vector_val<FindPredicate::CharAngle,std::allocator<FindPredicate::CharAngle> >, COMDAT
; _this$ = ecx

; 434  : 		}

  00000	c3		 ret	 0
??1?$_Vector_val@UCharAngle@FindPredicate@@V?$allocator@UCharAngle@FindPredicate@@@std@@@std@@QAE@XZ ENDP ; std::_Vector_val<FindPredicate::CharAngle,std::allocator<FindPredicate::CharAngle> >::~_Vector_val<FindPredicate::CharAngle,std::allocator<FindPredicate::CharAngle> >
_TEXT	ENDS
PUBLIC	??0?$allocator@UCharAngle@FindPredicate@@@std@@QAE@XZ ; std::allocator<FindPredicate::CharAngle>::allocator<FindPredicate::CharAngle>
; Function compile flags: /Ogsp
; File c:\program files (x86)\microsoft visual studio 10.0\vc\include\xmemory
;	COMDAT ??0?$allocator@UCharAngle@FindPredicate@@@std@@QAE@XZ
_TEXT	SEGMENT
??0?$allocator@UCharAngle@FindPredicate@@@std@@QAE@XZ PROC ; std::allocator<FindPredicate::CharAngle>::allocator<FindPredicate::CharAngle>, COMDAT
; _this$ = ecx

; 161  : 	_ALLOCATOR() _THROW0()

  00000	8b c1		 mov	 eax, ecx

; 162  : 		{	// construct default allocator (do nothing)
; 163  : 		}

  00002	c3		 ret	 0
??0?$allocator@UCharAngle@FindPredicate@@@std@@QAE@XZ ENDP ; std::allocator<FindPredicate::CharAngle>::allocator<FindPredicate::CharAngle>
_TEXT	ENDS
PUBLIC	?deallocate@?$allocator@UCharAngle@FindPredicate@@@std@@QAEXPAUCharAngle@FindPredicate@@I@Z ; std::allocator<FindPredicate::CharAngle>::deallocate
; Function compile flags: /Ogsp
;	COMDAT ?deallocate@?$allocator@UCharAngle@FindPredicate@@@std@@QAEXPAUCharAngle@FindPredicate@@I@Z
_TEXT	SEGMENT
__Ptr$ = 8						; size = 4
___formal$ = 12						; size = 4
?deallocate@?$allocator@UCharAngle@FindPredicate@@@std@@QAEXPAUCharAngle@FindPredicate@@I@Z PROC ; std::allocator<FindPredicate::CharAngle>::deallocate, COMDAT
; _this$ = ecx

; 181  : 		{	// deallocate object at _Ptr, ignore size

  00000	55		 push	 ebp
  00001	8b ec		 mov	 ebp, esp

; 182  : 		::operator delete(_Ptr);

  00003	ff 75 08	 push	 DWORD PTR __Ptr$[ebp]
  00006	e8 00 00 00 00	 call	 ??3@YAXPAX@Z		; operator delete
  0000b	59		 pop	 ecx

; 183  : 		}

  0000c	5d		 pop	 ebp
  0000d	c2 08 00	 ret	 8
?deallocate@?$allocator@UCharAngle@FindPredicate@@@std@@QAEXPAUCharAngle@FindPredicate@@I@Z ENDP ; std::allocator<FindPredicate::CharAngle>::deallocate
_TEXT	ENDS
PUBLIC	??0?$_Vector_const_iterator@V?$_Vector_val@PAVioBaseChar@@V?$allocator@PAVioBaseChar@@@std@@@std@@@std@@QAE@PAPAVioBaseChar@@PBU_Container_base0@1@@Z ; std::_Vector_const_iterator<std::_Vector_val<ioBaseChar *,std::allocator<ioBaseChar *> > >::_Vector_const_iterator<std::_Vector_val<ioBaseChar *,std::allocator<ioBaseChar *> > >
; Function compile flags: /Ogsp
; File c:\program files (x86)\microsoft visual studio 10.0\vc\include\vector
;	COMDAT ??0?$_Vector_const_iterator@V?$_Vector_val@PAVioBaseChar@@V?$allocator@PAVioBaseChar@@@std@@@std@@@std@@QAE@PAPAVioBaseChar@@PBU_Container_base0@1@@Z
_TEXT	SEGMENT
__Parg$ = 8						; size = 4
__Pvector$ = 12						; size = 4
??0?$_Vector_const_iterator@V?$_Vector_val@PAVioBaseChar@@V?$allocator@PAVioBaseChar@@@std@@@std@@@std@@QAE@PAPAVioBaseChar@@PBU_Container_base0@1@@Z PROC ; std::_Vector_const_iterator<std::_Vector_val<ioBaseChar *,std::allocator<ioBaseChar *> > >::_Vector_const_iterator<std::_Vector_val<ioBaseChar *,std::allocator<ioBaseChar *> > >, COMDAT
; _this$ = ecx

; 45   : 		{	// construct with pointer _Parg

  00000	55		 push	 ebp
  00001	8b ec		 mov	 ebp, esp
  00003	8b c1		 mov	 eax, ecx
  00005	8b 4d 08	 mov	 ecx, DWORD PTR __Parg$[ebp]
  00008	89 08		 mov	 DWORD PTR [eax], ecx

; 46   : 		this->_Adopt(_Pvector);
; 47   : 		}

  0000a	5d		 pop	 ebp
  0000b	c2 08 00	 ret	 8
??0?$_Vector_const_iterator@V?$_Vector_val@PAVioBaseChar@@V?$allocator@PAVioBaseChar@@@std@@@std@@@std@@QAE@PAPAVioBaseChar@@PBU_Container_base0@1@@Z ENDP ; std::_Vector_const_iterator<std::_Vector_val<ioBaseChar *,std::allocator<ioBaseChar *> > >::_Vector_const_iterator<std::_Vector_val<ioBaseChar *,std::allocator<ioBaseChar *> > >
_TEXT	ENDS
PUBLIC	??0?$allocator@UCharDistanceSq@FindPredicate@@@std@@QAE@ABV01@@Z ; std::allocator<FindPredicate::CharDistanceSq>::allocator<FindPredicate::CharDistanceSq>
; Function compile flags: /Ogsp
; File c:\program files (x86)\microsoft visual studio 10.0\vc\include\xmemory
;	COMDAT ??0?$allocator@UCharDistanceSq@FindPredicate@@@std@@QAE@ABV01@@Z
_TEXT	SEGMENT
___formal$ = 8						; size = 4
??0?$allocator@UCharDistanceSq@FindPredicate@@@std@@QAE@ABV01@@Z PROC ; std::allocator<FindPredicate::CharDistanceSq>::allocator<FindPredicate::CharDistanceSq>, COMDAT
; _this$ = ecx

; 165  : 	_ALLOCATOR(const _ALLOCATOR<_Ty>&) _THROW0()

  00000	8b c1		 mov	 eax, ecx

; 166  : 		{	// construct by copying (do nothing)
; 167  : 		}

  00002	c2 04 00	 ret	 4
??0?$allocator@UCharDistanceSq@FindPredicate@@@std@@QAE@ABV01@@Z ENDP ; std::allocator<FindPredicate::CharDistanceSq>::allocator<FindPredicate::CharDistanceSq>
_TEXT	ENDS
PUBLIC	?max_size@?$allocator@UCharDistanceSq@FindPredicate@@@std@@QBEIXZ ; std::allocator<FindPredicate::CharDistanceSq>::max_size
; Function compile flags: /Ogsp
;	COMDAT ?max_size@?$allocator@UCharDistanceSq@FindPredicate@@@std@@QBEIXZ
_TEXT	SEGMENT
?max_size@?$allocator@UCharDistanceSq@FindPredicate@@@std@@QBEIXZ PROC ; std::allocator<FindPredicate::CharDistanceSq>::max_size, COMDAT
; _this$ = ecx

; 218  : 		_SIZT _Count = (_SIZT)(-1) / sizeof (_Ty);
; 219  : 		return (0 < _Count ? _Count : 1);

  00000	b8 ff ff ff 1f	 mov	 eax, 536870911		; 1fffffffH

; 220  : 		}

  00005	c3		 ret	 0
?max_size@?$allocator@UCharDistanceSq@FindPredicate@@@std@@QBEIXZ ENDP ; std::allocator<FindPredicate::CharDistanceSq>::max_size
_TEXT	ENDS
PUBLIC	??0?$allocator@UCharAngle@FindPredicate@@@std@@QAE@ABV01@@Z ; std::allocator<FindPredicate::CharAngle>::allocator<FindPredicate::CharAngle>
; Function compile flags: /Ogsp
;	COMDAT ??0?$allocator@UCharAngle@FindPredicate@@@std@@QAE@ABV01@@Z
_TEXT	SEGMENT
___formal$ = 8						; size = 4
??0?$allocator@UCharAngle@FindPredicate@@@std@@QAE@ABV01@@Z PROC ; std::allocator<FindPredicate::CharAngle>::allocator<FindPredicate::CharAngle>, COMDAT
; _this$ = ecx

; 165  : 	_ALLOCATOR(const _ALLOCATOR<_Ty>&) _THROW0()

  00000	8b c1		 mov	 eax, ecx

; 166  : 		{	// construct by copying (do nothing)
; 167  : 		}

  00002	c2 04 00	 ret	 4
??0?$allocator@UCharAngle@FindPredicate@@@std@@QAE@ABV01@@Z ENDP ; std::allocator<FindPredicate::CharAngle>::allocator<FindPredicate::CharAngle>
_TEXT	ENDS
PUBLIC	?max_size@?$allocator@UCharAngle@FindPredicate@@@std@@QBEIXZ ; std::allocator<FindPredicate::CharAngle>::max_size
; Function compile flags: /Ogsp
;	COMDAT ?max_size@?$allocator@UCharAngle@FindPredicate@@@std@@QBEIXZ
_TEXT	SEGMENT
?max_size@?$allocator@UCharAngle@FindPredicate@@@std@@QBEIXZ PROC ; std::allocator<FindPredicate::CharAngle>::max_size, COMDAT
; _this$ = ecx

; 218  : 		_SIZT _Count = (_SIZT)(-1) / sizeof (_Ty);
; 219  : 		return (0 < _Count ? _Count : 1);

  00000	b8 ff ff ff 1f	 mov	 eax, 536870911		; 1fffffffH

; 220  : 		}

  00005	c3		 ret	 0
?max_size@?$allocator@UCharAngle@FindPredicate@@@std@@QBEIXZ ENDP ; std::allocator<FindPredicate::CharAngle>::max_size
_TEXT	ENDS
PUBLIC	??0?$_Vector_const_iterator@V?$_Vector_val@UCharDistanceSq@FindPredicate@@V?$allocator@UCharDistanceSq@FindPredicate@@@std@@@std@@@std@@QAE@PAUCharDistanceSq@FindPredicate@@PBU_Container_base0@1@@Z ; std::_Vector_const_iterator<std::_Vector_val<FindPredicate::CharDistanceSq,std::allocator<FindPredicate::CharDistanceSq> > >::_Vector_const_iterator<std::_Vector_val<FindPredicate::CharDistanceSq,std::allocator<FindPredicate::CharDistanceSq> > >
; Function compile flags: /Ogsp
; File c:\program files (x86)\microsoft visual studio 10.0\vc\include\vector
;	COMDAT ??0?$_Vector_const_iterator@V?$_Vector_val@UCharDistanceSq@FindPredicate@@V?$allocator@UCharDistanceSq@FindPredicate@@@std@@@std@@@std@@QAE@PAUCharDistanceSq@FindPredicate@@PBU_Container_base0@1@@Z
_TEXT	SEGMENT
__Parg$ = 8						; size = 4
__Pvector$ = 12						; size = 4
??0?$_Vector_const_iterator@V?$_Vector_val@UCharDistanceSq@FindPredicate@@V?$allocator@UCharDistanceSq@FindPredicate@@@std@@@std@@@std@@QAE@PAUCharDistanceSq@FindPredicate@@PBU_Container_base0@1@@Z PROC ; std::_Vector_const_iterator<std::_Vector_val<FindPredicate::CharDistanceSq,std::allocator<FindPredicate::CharDistanceSq> > >::_Vector_const_iterator<std::_Vector_val<FindPredicate::CharDistanceSq,std::allocator<FindPredicate::CharDistanceSq> > >, COMDAT
; _this$ = ecx

; 45   : 		{	// construct with pointer _Parg

  00000	55		 push	 ebp
  00001	8b ec		 mov	 ebp, esp
  00003	8b c1		 mov	 eax, ecx
  00005	8b 4d 08	 mov	 ecx, DWORD PTR __Parg$[ebp]
  00008	89 08		 mov	 DWORD PTR [eax], ecx

; 46   : 		this->_Adopt(_Pvector);
; 47   : 		}

  0000a	5d		 pop	 ebp
  0000b	c2 08 00	 ret	 8
??0?$_Vector_const_iterator@V?$_Vector_val@UCharDistanceSq@FindPredicate@@V?$allocator@UCharDistanceSq@FindPredicate@@@std@@@std@@@std@@QAE@PAUCharDistanceSq@FindPredicate@@PBU_Container_base0@1@@Z ENDP ; std::_Vector_const_iterator<std::_Vector_val<FindPredicate::CharDistanceSq,std::allocator<FindPredicate::CharDistanceSq> > >::_Vector_const_iterator<std::_Vector_val<FindPredicate::CharDistanceSq,std::allocator<FindPredicate::CharDistanceSq> > >
_TEXT	ENDS
PUBLIC	?_Compat@?$_Vector_const_iterator@V?$_Vector_val@PAVioBaseChar@@V?$allocator@PAVioBaseChar@@@std@@@std@@@std@@QBEXABV12@@Z ; std::_Vector_const_iterator<std::_Vector_val<ioBaseChar *,std::allocator<ioBaseChar *> > >::_Compat
; Function compile flags: /Ogsp
;	COMDAT ?_Compat@?$_Vector_const_iterator@V?$_Vector_val@PAVioBaseChar@@V?$allocator@PAVioBaseChar@@@std@@@std@@@std@@QBEXABV12@@Z
_TEXT	SEGMENT
___formal$ = 8						; size = 4
?_Compat@?$_Vector_const_iterator@V?$_Vector_val@PAVioBaseChar@@V?$allocator@PAVioBaseChar@@@std@@@std@@@std@@QBEXABV12@@Z PROC ; std::_Vector_const_iterator<std::_Vector_val<ioBaseChar *,std::allocator<ioBaseChar *> > >::_Compat, COMDAT
; _this$ = ecx

; 253  : 		}

  00000	c2 04 00	 ret	 4
?_Compat@?$_Vector_const_iterator@V?$_Vector_val@PAVioBaseChar@@V?$allocator@PAVioBaseChar@@@std@@@std@@@std@@QBEXABV12@@Z ENDP ; std::_Vector_const_iterator<std::_Vector_val<ioBaseChar *,std::allocator<ioBaseChar *> > >::_Compat
_TEXT	ENDS
PUBLIC	??0?$_Vector_const_iterator@V?$_Vector_val@UCharAngle@FindPredicate@@V?$allocator@UCharAngle@FindPredicate@@@std@@@std@@@std@@QAE@PAUCharAngle@FindPredicate@@PBU_Container_base0@1@@Z ; std::_Vector_const_iterator<std::_Vector_val<FindPredicate::CharAngle,std::allocator<FindPredicate::CharAngle> > >::_Vector_const_iterator<std::_Vector_val<FindPredicate::CharAngle,std::allocator<FindPredicate::CharAngle> > >
; Function compile flags: /Ogsp
;	COMDAT ??0?$_Vector_const_iterator@V?$_Vector_val@UCharAngle@FindPredicate@@V?$allocator@UCharAngle@FindPredicate@@@std@@@std@@@std@@QAE@PAUCharAngle@FindPredicate@@PBU_Container_base0@1@@Z
_TEXT	SEGMENT
__Parg$ = 8						; size = 4
__Pvector$ = 12						; size = 4
??0?$_Vector_const_iterator@V?$_Vector_val@UCharAngle@FindPredicate@@V?$allocator@UCharAngle@FindPredicate@@@std@@@std@@@std@@QAE@PAUCharAngle@FindPredicate@@PBU_Container_base0@1@@Z PROC ; std::_Vector_const_iterator<std::_Vector_val<FindPredicate::CharAngle,std::allocator<FindPredicate::CharAngle> > >::_Vector_const_iterator<std::_Vector_val<FindPredicate::CharAngle,std::allocator<FindPredicate::CharAngle> > >, COMDAT
; _this$ = ecx

; 45   : 		{	// construct with pointer _Parg

  00000	55		 push	 ebp
  00001	8b ec		 mov	 ebp, esp
  00003	8b c1		 mov	 eax, ecx
  00005	8b 4d 08	 mov	 ecx, DWORD PTR __Parg$[ebp]
  00008	89 08		 mov	 DWORD PTR [eax], ecx

; 46   : 		this->_Adopt(_Pvector);
; 47   : 		}

  0000a	5d		 pop	 ebp
  0000b	c2 08 00	 ret	 8
??0?$_Vector_const_iterator@V?$_Vector_val@UCharAngle@FindPredicate@@V?$allocator@UCharAngle@FindPredicate@@@std@@@std@@@std@@QAE@PAUCharAngle@FindPredicate@@PBU_Container_base0@1@@Z ENDP ; std::_Vector_const_iterator<std::_Vector_val<FindPredicate::CharAngle,std::allocator<FindPredicate::CharAngle> > >::_Vector_const_iterator<std::_Vector_val<FindPredicate::CharAngle,std::allocator<FindPredicate::CharAngle> > >
_TEXT	ENDS
PUBLIC	?_Compat@?$_Vector_const_iterator@V?$_Vector_val@UCharDistanceSq@FindPredicate@@V?$allocator@UCharDistanceSq@FindPredicate@@@std@@@std@@@std@@QBEXABV12@@Z ; std::_Vector_const_iterator<std::_Vector_val<FindPredicate::CharDistanceSq,std::allocator<FindPredicate::CharDistanceSq> > >::_Compat
; Function compile flags: /Ogsp
;	COMDAT ?_Compat@?$_Vector_const_iterator@V?$_Vector_val@UCharDistanceSq@FindPredicate@@V?$allocator@UCharDistanceSq@FindPredicate@@@std@@@std@@@std@@QBEXABV12@@Z
_TEXT	SEGMENT
___formal$ = 8						; size = 4
?_Compat@?$_Vector_const_iterator@V?$_Vector_val@UCharDistanceSq@FindPredicate@@V?$allocator@UCharDistanceSq@FindPredicate@@@std@@@std@@@std@@QBEXABV12@@Z PROC ; std::_Vector_const_iterator<std::_Vector_val<FindPredicate::CharDistanceSq,std::allocator<FindPredicate::CharDistanceSq> > >::_Compat, COMDAT
; _this$ = ecx

; 253  : 		}

  00000	c2 04 00	 ret	 4
?_Compat@?$_Vector_const_iterator@V?$_Vector_val@UCharDistanceSq@FindPredicate@@V?$allocator@UCharDistanceSq@FindPredicate@@@std@@@std@@@std@@QBEXABV12@@Z ENDP ; std::_Vector_const_iterator<std::_Vector_val<FindPredicate::CharDistanceSq,std::allocator<FindPredicate::CharDistanceSq> > >::_Compat
_TEXT	ENDS
PUBLIC	?_Compat@?$_Vector_const_iterator@V?$_Vector_val@UCharAngle@FindPredicate@@V?$allocator@UCharAngle@FindPredicate@@@std@@@std@@@std@@QBEXABV12@@Z ; std::_Vector_const_iterator<std::_Vector_val<FindPredicate::CharAngle,std::allocator<FindPredicate::CharAngle> > >::_Compat
; Function compile flags: /Ogsp
;	COMDAT ?_Compat@?$_Vector_const_iterator@V?$_Vector_val@UCharAngle@FindPredicate@@V?$allocator@UCharAngle@FindPredicate@@@std@@@std@@@std@@QBEXABV12@@Z
_TEXT	SEGMENT
___formal$ = 8						; size = 4
?_Compat@?$_Vector_const_iterator@V?$_Vector_val@UCharAngle@FindPredicate@@V?$allocator@UCharAngle@FindPredicate@@@std@@@std@@@std@@QBEXABV12@@Z PROC ; std::_Vector_const_iterator<std::_Vector_val<FindPredicate::CharAngle,std::allocator<FindPredicate::CharAngle> > >::_Compat, COMDAT
; _this$ = ecx

; 253  : 		}

  00000	c2 04 00	 ret	 4
?_Compat@?$_Vector_const_iterator@V?$_Vector_val@UCharAngle@FindPredicate@@V?$allocator@UCharAngle@FindPredicate@@@std@@@std@@@std@@QBEXABV12@@Z ENDP ; std::_Vector_const_iterator<std::_Vector_val<FindPredicate::CharAngle,std::allocator<FindPredicate::CharAngle> > >::_Compat
_TEXT	ENDS
PUBLIC	??$addressof@$$CBUCharDistanceSq@FindPredicate@@@std@@YAPBUCharDistanceSq@FindPredicate@@ABU12@@Z ; std::addressof<FindPredicate::CharDistanceSq const >
; Function compile flags: /Ogsp
; File c:\program files (x86)\microsoft visual studio 10.0\vc\include\xmemory
;	COMDAT ??$addressof@$$CBUCharDistanceSq@FindPredicate@@@std@@YAPBUCharDistanceSq@FindPredicate@@ABU12@@Z
_TEXT	SEGMENT
__Val$ = 8						; size = 4
??$addressof@$$CBUCharDistanceSq@FindPredicate@@@std@@YAPBUCharDistanceSq@FindPredicate@@ABU12@@Z PROC ; std::addressof<FindPredicate::CharDistanceSq const >, COMDAT

; 110  : 	{	// return address of _Val

  00000	55		 push	 ebp
  00001	8b ec		 mov	 ebp, esp

; 111  : 	return ((_Ty *) &(char&)_Val);

  00003	8b 45 08	 mov	 eax, DWORD PTR __Val$[ebp]

; 112  : 	}

  00006	5d		 pop	 ebp
  00007	c3		 ret	 0
??$addressof@$$CBUCharDistanceSq@FindPredicate@@@std@@YAPBUCharDistanceSq@FindPredicate@@ABU12@@Z ENDP ; std::addressof<FindPredicate::CharDistanceSq const >
_TEXT	ENDS
PUBLIC	??$addressof@$$CBUCharAngle@FindPredicate@@@std@@YAPBUCharAngle@FindPredicate@@ABU12@@Z ; std::addressof<FindPredicate::CharAngle const >
; Function compile flags: /Ogsp
;	COMDAT ??$addressof@$$CBUCharAngle@FindPredicate@@@std@@YAPBUCharAngle@FindPredicate@@ABU12@@Z
_TEXT	SEGMENT
__Val$ = 8						; size = 4
??$addressof@$$CBUCharAngle@FindPredicate@@@std@@YAPBUCharAngle@FindPredicate@@ABU12@@Z PROC ; std::addressof<FindPredicate::CharAngle const >, COMDAT

; 110  : 	{	// return address of _Val

  00000	55		 push	 ebp
  00001	8b ec		 mov	 ebp, esp

; 111  : 	return ((_Ty *) &(char&)_Val);

  00003	8b 45 08	 mov	 eax, DWORD PTR __Val$[ebp]

; 112  : 	}

  00006	5d		 pop	 ebp
  00007	c3		 ret	 0
??$addressof@$$CBUCharAngle@FindPredicate@@@std@@YAPBUCharAngle@FindPredicate@@ABU12@@Z ENDP ; std::addressof<FindPredicate::CharAngle const >
_TEXT	ENDS
PUBLIC	__TI2?AVbad_alloc@std@@
PUBLIC	??$_Allocate@UCharDistanceSq@FindPredicate@@@std@@YAPAUCharDistanceSq@FindPredicate@@IPAU12@@Z ; std::_Allocate<FindPredicate::CharDistanceSq>
PUBLIC	__CTA2?AVbad_alloc@std@@
PUBLIC	__CT??_R0?AVbad_alloc@std@@@8??0bad_alloc@std@@QAE@ABV01@@Z12
PUBLIC	??0bad_alloc@std@@QAE@ABV01@@Z			; std::bad_alloc::bad_alloc
PUBLIC	__CT??_R0?AVexception@std@@@8??0exception@std@@QAE@ABV01@@Z12
EXTRN	??2@YAPAXI@Z:PROC				; operator new
EXTRN	__CxxThrowException@8:PROC
EXTRN	??0exception@std@@QAE@ABV01@@Z:PROC		; std::exception::exception
;	COMDAT __CT??_R0?AVexception@std@@@8??0exception@std@@QAE@ABV01@@Z12
; File c:\program files (x86)\microsoft visual studio 10.0\vc\include\exception
xdata$x	SEGMENT
__CT??_R0?AVexception@std@@@8??0exception@std@@QAE@ABV01@@Z12 DD 00H
	DD	FLAT:??_R0?AVexception@std@@@8
	DD	00H
	DD	0ffffffffH
	ORG $+4
	DD	0cH
	DD	FLAT:??0exception@std@@QAE@ABV01@@Z
xdata$x	ENDS
;	COMDAT __CT??_R0?AVbad_alloc@std@@@8??0bad_alloc@std@@QAE@ABV01@@Z12
xdata$x	SEGMENT
__CT??_R0?AVbad_alloc@std@@@8??0bad_alloc@std@@QAE@ABV01@@Z12 DD 00H
	DD	FLAT:??_R0?AVbad_alloc@std@@@8
	DD	00H
	DD	0ffffffffH
	ORG $+4
	DD	0cH
	DD	FLAT:??0bad_alloc@std@@QAE@ABV01@@Z
xdata$x	ENDS
;	COMDAT __CTA2?AVbad_alloc@std@@
xdata$x	SEGMENT
__CTA2?AVbad_alloc@std@@ DD 02H
	DD	FLAT:__CT??_R0?AVbad_alloc@std@@@8??0bad_alloc@std@@QAE@ABV01@@Z12
	DD	FLAT:__CT??_R0?AVexception@std@@@8??0exception@std@@QAE@ABV01@@Z12
xdata$x	ENDS
;	COMDAT __TI2?AVbad_alloc@std@@
xdata$x	SEGMENT
__TI2?AVbad_alloc@std@@ DD 00H
	DD	FLAT:??1bad_alloc@std@@UAE@XZ
	DD	00H
	DD	FLAT:__CTA2?AVbad_alloc@std@@
; Function compile flags: /Ogsp
; File c:\program files (x86)\microsoft visual studio 10.0\vc\include\xmemory
xdata$x	ENDS
;	COMDAT ??$_Allocate@UCharDistanceSq@FindPredicate@@@std@@YAPAUCharDistanceSq@FindPredicate@@IPAU12@@Z
_TEXT	SEGMENT
$T527175 = -12						; size = 12
$T527180 = 8						; size = 4
__Count$ = 8						; size = 4
___formal$ = 12						; size = 4
??$_Allocate@UCharDistanceSq@FindPredicate@@@std@@YAPAUCharDistanceSq@FindPredicate@@IPAU12@@Z PROC ; std::_Allocate<FindPredicate::CharDistanceSq>, COMDAT

; 30   : 	{	// allocate storage for _Count elements of type _Ty

  00000	55		 push	 ebp
  00001	8b ec		 mov	 ebp, esp

; 31   : 	void *_Ptr = 0;
; 32   : 
; 33   : 	if (_Count <= 0)

  00003	8b 4d 08	 mov	 ecx, DWORD PTR __Count$[ebp]
  00006	83 ec 0c	 sub	 esp, 12			; 0000000cH
  00009	33 c0		 xor	 eax, eax
  0000b	85 c9		 test	 ecx, ecx

; 34   : 		_Count = 0;
; 35   : 	else if (((_SIZT)(-1) / sizeof (_Ty) < _Count)

  0000d	74 3e		 je	 SHORT $LN5@Allocate

; 36   : 		|| (_Ptr = ::operator new(_Count * sizeof (_Ty))) == 0)

  0000f	81 f9 ff ff ff
	1f		 cmp	 ecx, 536870911		; 1fffffffH
  00015	77 10		 ja	 SHORT $LN1@Allocate
  00017	8b c1		 mov	 eax, ecx
  00019	c1 e0 03	 shl	 eax, 3
  0001c	50		 push	 eax
  0001d	e8 00 00 00 00	 call	 ??2@YAPAXI@Z		; operator new
  00022	59		 pop	 ecx
  00023	85 c0		 test	 eax, eax

; 38   : 
; 39   : 	return ((_Ty _FARQ *)_Ptr);

  00025	75 26		 jne	 SHORT $LN5@Allocate
$LN1@Allocate:

; 37   : 		_THROW_NCEE(bad_alloc, 0);

  00027	83 65 08 00	 and	 DWORD PTR $T527180[ebp], 0
  0002b	8d 45 08	 lea	 eax, DWORD PTR $T527180[ebp]
  0002e	50		 push	 eax
  0002f	8d 4d f4	 lea	 ecx, DWORD PTR $T527175[ebp]
  00032	ff 15 00 00 00
	00		 call	 DWORD PTR __imp_??0exception@std@@QAE@ABQBD@Z
  00038	68 00 00 00 00	 push	 OFFSET __TI2?AVbad_alloc@std@@
  0003d	8d 45 f4	 lea	 eax, DWORD PTR $T527175[ebp]
  00040	50		 push	 eax
  00041	c7 45 f4 00 00
	00 00		 mov	 DWORD PTR $T527175[ebp], OFFSET ??_7bad_alloc@std@@6B@
  00048	e8 00 00 00 00	 call	 __CxxThrowException@8
$LN10@Allocate:
$LN5@Allocate:

; 40   : 	}

  0004d	c9		 leave
  0004e	c3		 ret	 0
$LN9@Allocate:
??$_Allocate@UCharDistanceSq@FindPredicate@@@std@@YAPAUCharDistanceSq@FindPredicate@@IPAU12@@Z ENDP ; std::_Allocate<FindPredicate::CharDistanceSq>
_TEXT	ENDS
PUBLIC	??$_Allocate@UCharAngle@FindPredicate@@@std@@YAPAUCharAngle@FindPredicate@@IPAU12@@Z ; std::_Allocate<FindPredicate::CharAngle>
; Function compile flags: /Ogsp
;	COMDAT ??$_Allocate@UCharAngle@FindPredicate@@@std@@YAPAUCharAngle@FindPredicate@@IPAU12@@Z
_TEXT	SEGMENT
$T527185 = -12						; size = 12
$T527189 = 8						; size = 4
__Count$ = 8						; size = 4
___formal$ = 12						; size = 4
??$_Allocate@UCharAngle@FindPredicate@@@std@@YAPAUCharAngle@FindPredicate@@IPAU12@@Z PROC ; std::_Allocate<FindPredicate::CharAngle>, COMDAT

; 30   : 	{	// allocate storage for _Count elements of type _Ty

  00000	55		 push	 ebp
  00001	8b ec		 mov	 ebp, esp

; 31   : 	void *_Ptr = 0;
; 32   : 
; 33   : 	if (_Count <= 0)

  00003	8b 4d 08	 mov	 ecx, DWORD PTR __Count$[ebp]
  00006	83 ec 0c	 sub	 esp, 12			; 0000000cH
  00009	33 c0		 xor	 eax, eax
  0000b	85 c9		 test	 ecx, ecx

; 34   : 		_Count = 0;
; 35   : 	else if (((_SIZT)(-1) / sizeof (_Ty) < _Count)

  0000d	74 3e		 je	 SHORT $LN5@Allocate@2

; 36   : 		|| (_Ptr = ::operator new(_Count * sizeof (_Ty))) == 0)

  0000f	81 f9 ff ff ff
	1f		 cmp	 ecx, 536870911		; 1fffffffH
  00015	77 10		 ja	 SHORT $LN1@Allocate@2
  00017	8b c1		 mov	 eax, ecx
  00019	c1 e0 03	 shl	 eax, 3
  0001c	50		 push	 eax
  0001d	e8 00 00 00 00	 call	 ??2@YAPAXI@Z		; operator new
  00022	59		 pop	 ecx
  00023	85 c0		 test	 eax, eax

; 38   : 
; 39   : 	return ((_Ty _FARQ *)_Ptr);

  00025	75 26		 jne	 SHORT $LN5@Allocate@2
$LN1@Allocate@2:

; 37   : 		_THROW_NCEE(bad_alloc, 0);

  00027	83 65 08 00	 and	 DWORD PTR $T527189[ebp], 0
  0002b	8d 45 08	 lea	 eax, DWORD PTR $T527189[ebp]
  0002e	50		 push	 eax
  0002f	8d 4d f4	 lea	 ecx, DWORD PTR $T527185[ebp]
  00032	ff 15 00 00 00
	00		 call	 DWORD PTR __imp_??0exception@std@@QAE@ABQBD@Z
  00038	68 00 00 00 00	 push	 OFFSET __TI2?AVbad_alloc@std@@
  0003d	8d 45 f4	 lea	 eax, DWORD PTR $T527185[ebp]
  00040	50		 push	 eax
  00041	c7 45 f4 00 00
	00 00		 mov	 DWORD PTR $T527185[ebp], OFFSET ??_7bad_alloc@std@@6B@
  00048	e8 00 00 00 00	 call	 __CxxThrowException@8
$LN10@Allocate@2:
$LN5@Allocate@2:

; 40   : 	}

  0004d	c9		 leave
  0004e	c3		 ret	 0
$LN9@Allocate@2:
??$_Allocate@UCharAngle@FindPredicate@@@std@@YAPAUCharAngle@FindPredicate@@IPAU12@@Z ENDP ; std::_Allocate<FindPredicate::CharAngle>
_TEXT	ENDS
PUBLIC	??G?$_Vector_const_iterator@V?$_Vector_val@UCharDistanceSq@FindPredicate@@V?$allocator@UCharDistanceSq@FindPredicate@@@std@@@std@@@std@@QBEHABV01@@Z ; std::_Vector_const_iterator<std::_Vector_val<FindPredicate::CharDistanceSq,std::allocator<FindPredicate::CharDistanceSq> > >::operator-
; Function compile flags: /Ogsp
; File c:\program files (x86)\microsoft visual studio 10.0\vc\include\vector
;	COMDAT ??G?$_Vector_const_iterator@V?$_Vector_val@UCharDistanceSq@FindPredicate@@V?$allocator@UCharDistanceSq@FindPredicate@@@std@@@std@@@std@@QBEHABV01@@Z
_TEXT	SEGMENT
__Right$ = 8						; size = 4
??G?$_Vector_const_iterator@V?$_Vector_val@UCharDistanceSq@FindPredicate@@V?$allocator@UCharDistanceSq@FindPredicate@@@std@@@std@@@std@@QBEHABV01@@Z PROC ; std::_Vector_const_iterator<std::_Vector_val<FindPredicate::CharDistanceSq,std::allocator<FindPredicate::CharDistanceSq> > >::operator-, COMDAT
; _this$ = ecx

; 190  : 		{	// return difference of iterators

  00000	55		 push	 ebp
  00001	8b ec		 mov	 ebp, esp

; 191  : 		_Compat(_Right);
; 192  : 		return (this->_Ptr - _Right._Ptr);

  00003	8b 01		 mov	 eax, DWORD PTR [ecx]
  00005	8b 4d 08	 mov	 ecx, DWORD PTR __Right$[ebp]
  00008	2b 01		 sub	 eax, DWORD PTR [ecx]
  0000a	c1 f8 03	 sar	 eax, 3

; 193  : 		}

  0000d	5d		 pop	 ebp
  0000e	c2 04 00	 ret	 4
??G?$_Vector_const_iterator@V?$_Vector_val@UCharDistanceSq@FindPredicate@@V?$allocator@UCharDistanceSq@FindPredicate@@@std@@@std@@@std@@QBEHABV01@@Z ENDP ; std::_Vector_const_iterator<std::_Vector_val<FindPredicate::CharDistanceSq,std::allocator<FindPredicate::CharDistanceSq> > >::operator-
_TEXT	ENDS
PUBLIC	??G?$_Vector_const_iterator@V?$_Vector_val@UCharAngle@FindPredicate@@V?$allocator@UCharAngle@FindPredicate@@@std@@@std@@@std@@QBEHABV01@@Z ; std::_Vector_const_iterator<std::_Vector_val<FindPredicate::CharAngle,std::allocator<FindPredicate::CharAngle> > >::operator-
; Function compile flags: /Ogsp
;	COMDAT ??G?$_Vector_const_iterator@V?$_Vector_val@UCharAngle@FindPredicate@@V?$allocator@UCharAngle@FindPredicate@@@std@@@std@@@std@@QBEHABV01@@Z
_TEXT	SEGMENT
__Right$ = 8						; size = 4
??G?$_Vector_const_iterator@V?$_Vector_val@UCharAngle@FindPredicate@@V?$allocator@UCharAngle@FindPredicate@@@std@@@std@@@std@@QBEHABV01@@Z PROC ; std::_Vector_const_iterator<std::_Vector_val<FindPredicate::CharAngle,std::allocator<FindPredicate::CharAngle> > >::operator-, COMDAT
; _this$ = ecx

; 190  : 		{	// return difference of iterators

  00000	55		 push	 ebp
  00001	8b ec		 mov	 ebp, esp

; 191  : 		_Compat(_Right);
; 192  : 		return (this->_Ptr - _Right._Ptr);

  00003	8b 01		 mov	 eax, DWORD PTR [ecx]
  00005	8b 4d 08	 mov	 ecx, DWORD PTR __Right$[ebp]
  00008	2b 01		 sub	 eax, DWORD PTR [ecx]
  0000a	c1 f8 03	 sar	 eax, 3

; 193  : 		}

  0000d	5d		 pop	 ebp
  0000e	c2 04 00	 ret	 4
??G?$_Vector_const_iterator@V?$_Vector_val@UCharAngle@FindPredicate@@V?$allocator@UCharAngle@FindPredicate@@@std@@@std@@@std@@QBEHABV01@@Z ENDP ; std::_Vector_const_iterator<std::_Vector_val<FindPredicate::CharAngle,std::allocator<FindPredicate::CharAngle> > >::operator-
_TEXT	ENDS
PUBLIC	??$forward@AAUCharDistanceSq@FindPredicate@@@std@@YAAAUCharDistanceSq@FindPredicate@@AAU12@@Z ; std::forward<FindPredicate::CharDistanceSq &>
; Function compile flags: /Ogsp
; File c:\program files (x86)\microsoft visual studio 10.0\vc\include\utility
;	COMDAT ??$forward@AAUCharDistanceSq@FindPredicate@@@std@@YAAAUCharDistanceSq@FindPredicate@@AAU12@@Z
_TEXT	SEGMENT
__Arg$ = 8						; size = 4
??$forward@AAUCharDistanceSq@FindPredicate@@@std@@YAAAUCharDistanceSq@FindPredicate@@AAU12@@Z PROC ; std::forward<FindPredicate::CharDistanceSq &>, COMDAT

; 78   : 	{	// forward _Arg, given explicitly specified type parameter

  00000	55		 push	 ebp
  00001	8b ec		 mov	 ebp, esp

; 79   : 	return ((_Ty&&)_Arg);

  00003	8b 45 08	 mov	 eax, DWORD PTR __Arg$[ebp]

; 80   : 	}

  00006	5d		 pop	 ebp
  00007	c3		 ret	 0
??$forward@AAUCharDistanceSq@FindPredicate@@@std@@YAAAUCharDistanceSq@FindPredicate@@AAU12@@Z ENDP ; std::forward<FindPredicate::CharDistanceSq &>
_TEXT	ENDS
PUBLIC	??$construct@AAUCharDistanceSq@FindPredicate@@@?$allocator@UCharDistanceSq@FindPredicate@@@std@@QAEXPAUCharDistanceSq@FindPredicate@@AAU23@@Z ; std::allocator<FindPredicate::CharDistanceSq>::construct<FindPredicate::CharDistanceSq &>
; Function compile flags: /Ogsp
; File c:\program files (x86)\microsoft visual studio 10.0\vc\include\xmemory
;	COMDAT ??$construct@AAUCharDistanceSq@FindPredicate@@@?$allocator@UCharDistanceSq@FindPredicate@@@std@@QAEXPAUCharDistanceSq@FindPredicate@@AAU23@@Z
_TEXT	SEGMENT
__Ptr$ = 8						; size = 4
__Val$ = 12						; size = 4
??$construct@AAUCharDistanceSq@FindPredicate@@@?$allocator@UCharDistanceSq@FindPredicate@@@std@@QAEXPAUCharDistanceSq@FindPredicate@@AAU23@@Z PROC ; std::allocator<FindPredicate::CharDistanceSq>::construct<FindPredicate::CharDistanceSq &>, COMDAT
; _this$ = ecx

; 206  : 		void construct(pointer _Ptr, _Other&& _Val)

  00000	55		 push	 ebp
  00001	8b ec		 mov	 ebp, esp

; 207  : 		{	// construct object at _Ptr with value _Val
; 208  : 		::new ((void _FARQ *)_Ptr) _Ty(_STD forward<_Other>(_Val));

  00003	8b 45 08	 mov	 eax, DWORD PTR __Ptr$[ebp]
  00006	85 c0		 test	 eax, eax
  00008	74 0d		 je	 SHORT $LN3@construct
  0000a	8b 4d 0c	 mov	 ecx, DWORD PTR __Val$[ebp]
  0000d	8b 11		 mov	 edx, DWORD PTR [ecx]
  0000f	89 10		 mov	 DWORD PTR [eax], edx
  00011	8b 49 04	 mov	 ecx, DWORD PTR [ecx+4]
  00014	89 48 04	 mov	 DWORD PTR [eax+4], ecx
$LN3@construct:

; 209  : 		}

  00017	5d		 pop	 ebp
  00018	c2 08 00	 ret	 8
??$construct@AAUCharDistanceSq@FindPredicate@@@?$allocator@UCharDistanceSq@FindPredicate@@@std@@QAEXPAUCharDistanceSq@FindPredicate@@AAU23@@Z ENDP ; std::allocator<FindPredicate::CharDistanceSq>::construct<FindPredicate::CharDistanceSq &>
_TEXT	ENDS
PUBLIC	??$forward@ABUCharDistanceSq@FindPredicate@@@std@@YAABUCharDistanceSq@FindPredicate@@ABU12@@Z ; std::forward<FindPredicate::CharDistanceSq const &>
; Function compile flags: /Ogsp
; File c:\program files (x86)\microsoft visual studio 10.0\vc\include\utility
;	COMDAT ??$forward@ABUCharDistanceSq@FindPredicate@@@std@@YAABUCharDistanceSq@FindPredicate@@ABU12@@Z
_TEXT	SEGMENT
__Arg$ = 8						; size = 4
??$forward@ABUCharDistanceSq@FindPredicate@@@std@@YAABUCharDistanceSq@FindPredicate@@ABU12@@Z PROC ; std::forward<FindPredicate::CharDistanceSq const &>, COMDAT

; 78   : 	{	// forward _Arg, given explicitly specified type parameter

  00000	55		 push	 ebp
  00001	8b ec		 mov	 ebp, esp

; 79   : 	return ((_Ty&&)_Arg);

  00003	8b 45 08	 mov	 eax, DWORD PTR __Arg$[ebp]

; 80   : 	}

  00006	5d		 pop	 ebp
  00007	c3		 ret	 0
??$forward@ABUCharDistanceSq@FindPredicate@@@std@@YAABUCharDistanceSq@FindPredicate@@ABU12@@Z ENDP ; std::forward<FindPredicate::CharDistanceSq const &>
_TEXT	ENDS
PUBLIC	??$_Ptr_cat@UCharDistanceSq@FindPredicate@@U12@@std@@YA?AU_Nonscalar_ptr_iterator_tag@0@PAUCharDistanceSq@FindPredicate@@0@Z ; std::_Ptr_cat<FindPredicate::CharDistanceSq,FindPredicate::CharDistanceSq>
; Function compile flags: /Ogsp
; File c:\program files (x86)\microsoft visual studio 10.0\vc\include\xutility
;	COMDAT ??$_Ptr_cat@UCharDistanceSq@FindPredicate@@U12@@std@@YA?AU_Nonscalar_ptr_iterator_tag@0@PAUCharDistanceSq@FindPredicate@@0@Z
_TEXT	SEGMENT
__Cat$ = -1						; size = 1
___formal$ = 8						; size = 4
___formal$ = 12						; size = 4
??$_Ptr_cat@UCharDistanceSq@FindPredicate@@U12@@std@@YA?AU_Nonscalar_ptr_iterator_tag@0@PAUCharDistanceSq@FindPredicate@@0@Z PROC ; std::_Ptr_cat<FindPredicate::CharDistanceSq,FindPredicate::CharDistanceSq>, COMDAT

; 516  : 	{	// return pointer category from pointers

  00000	55		 push	 ebp
  00001	8b ec		 mov	 ebp, esp
  00003	51		 push	 ecx

; 517  : 	typename _Ptr_cat_helper<_Elem1, _Elem2>::_Type _Cat;
; 518  : 	return (_Cat);

  00004	8a 45 ff	 mov	 al, BYTE PTR __Cat$[ebp]

; 519  : 	}

  00007	c9		 leave
  00008	c3		 ret	 0
??$_Ptr_cat@UCharDistanceSq@FindPredicate@@U12@@std@@YA?AU_Nonscalar_ptr_iterator_tag@0@PAUCharDistanceSq@FindPredicate@@0@Z ENDP ; std::_Ptr_cat<FindPredicate::CharDistanceSq,FindPredicate::CharDistanceSq>
_TEXT	ENDS
PUBLIC	??$forward@AAUCharAngle@FindPredicate@@@std@@YAAAUCharAngle@FindPredicate@@AAU12@@Z ; std::forward<FindPredicate::CharAngle &>
; Function compile flags: /Ogsp
; File c:\program files (x86)\microsoft visual studio 10.0\vc\include\utility
;	COMDAT ??$forward@AAUCharAngle@FindPredicate@@@std@@YAAAUCharAngle@FindPredicate@@AAU12@@Z
_TEXT	SEGMENT
__Arg$ = 8						; size = 4
??$forward@AAUCharAngle@FindPredicate@@@std@@YAAAUCharAngle@FindPredicate@@AAU12@@Z PROC ; std::forward<FindPredicate::CharAngle &>, COMDAT

; 78   : 	{	// forward _Arg, given explicitly specified type parameter

  00000	55		 push	 ebp
  00001	8b ec		 mov	 ebp, esp

; 79   : 	return ((_Ty&&)_Arg);

  00003	8b 45 08	 mov	 eax, DWORD PTR __Arg$[ebp]

; 80   : 	}

  00006	5d		 pop	 ebp
  00007	c3		 ret	 0
??$forward@AAUCharAngle@FindPredicate@@@std@@YAAAUCharAngle@FindPredicate@@AAU12@@Z ENDP ; std::forward<FindPredicate::CharAngle &>
_TEXT	ENDS
PUBLIC	??$construct@AAUCharAngle@FindPredicate@@@?$allocator@UCharAngle@FindPredicate@@@std@@QAEXPAUCharAngle@FindPredicate@@AAU23@@Z ; std::allocator<FindPredicate::CharAngle>::construct<FindPredicate::CharAngle &>
; Function compile flags: /Ogsp
; File c:\program files (x86)\microsoft visual studio 10.0\vc\include\xmemory
;	COMDAT ??$construct@AAUCharAngle@FindPredicate@@@?$allocator@UCharAngle@FindPredicate@@@std@@QAEXPAUCharAngle@FindPredicate@@AAU23@@Z
_TEXT	SEGMENT
__Ptr$ = 8						; size = 4
__Val$ = 12						; size = 4
??$construct@AAUCharAngle@FindPredicate@@@?$allocator@UCharAngle@FindPredicate@@@std@@QAEXPAUCharAngle@FindPredicate@@AAU23@@Z PROC ; std::allocator<FindPredicate::CharAngle>::construct<FindPredicate::CharAngle &>, COMDAT
; _this$ = ecx

; 206  : 		void construct(pointer _Ptr, _Other&& _Val)

  00000	55		 push	 ebp
  00001	8b ec		 mov	 ebp, esp

; 207  : 		{	// construct object at _Ptr with value _Val
; 208  : 		::new ((void _FARQ *)_Ptr) _Ty(_STD forward<_Other>(_Val));

  00003	8b 45 08	 mov	 eax, DWORD PTR __Ptr$[ebp]
  00006	85 c0		 test	 eax, eax
  00008	74 0d		 je	 SHORT $LN3@construct@2
  0000a	8b 4d 0c	 mov	 ecx, DWORD PTR __Val$[ebp]
  0000d	8b 11		 mov	 edx, DWORD PTR [ecx]
  0000f	89 10		 mov	 DWORD PTR [eax], edx
  00011	8b 49 04	 mov	 ecx, DWORD PTR [ecx+4]
  00014	89 48 04	 mov	 DWORD PTR [eax+4], ecx
$LN3@construct@2:

; 209  : 		}

  00017	5d		 pop	 ebp
  00018	c2 08 00	 ret	 8
??$construct@AAUCharAngle@FindPredicate@@@?$allocator@UCharAngle@FindPredicate@@@std@@QAEXPAUCharAngle@FindPredicate@@AAU23@@Z ENDP ; std::allocator<FindPredicate::CharAngle>::construct<FindPredicate::CharAngle &>
_TEXT	ENDS
PUBLIC	??$forward@ABUCharAngle@FindPredicate@@@std@@YAABUCharAngle@FindPredicate@@ABU12@@Z ; std::forward<FindPredicate::CharAngle const &>
; Function compile flags: /Ogsp
; File c:\program files (x86)\microsoft visual studio 10.0\vc\include\utility
;	COMDAT ??$forward@ABUCharAngle@FindPredicate@@@std@@YAABUCharAngle@FindPredicate@@ABU12@@Z
_TEXT	SEGMENT
__Arg$ = 8						; size = 4
??$forward@ABUCharAngle@FindPredicate@@@std@@YAABUCharAngle@FindPredicate@@ABU12@@Z PROC ; std::forward<FindPredicate::CharAngle const &>, COMDAT

; 78   : 	{	// forward _Arg, given explicitly specified type parameter

  00000	55		 push	 ebp
  00001	8b ec		 mov	 ebp, esp

; 79   : 	return ((_Ty&&)_Arg);

  00003	8b 45 08	 mov	 eax, DWORD PTR __Arg$[ebp]

; 80   : 	}

  00006	5d		 pop	 ebp
  00007	c3		 ret	 0
??$forward@ABUCharAngle@FindPredicate@@@std@@YAABUCharAngle@FindPredicate@@ABU12@@Z ENDP ; std::forward<FindPredicate::CharAngle const &>
_TEXT	ENDS
PUBLIC	??$_Ptr_cat@UCharAngle@FindPredicate@@U12@@std@@YA?AU_Nonscalar_ptr_iterator_tag@0@PAUCharAngle@FindPredicate@@0@Z ; std::_Ptr_cat<FindPredicate::CharAngle,FindPredicate::CharAngle>
; Function compile flags: /Ogsp
; File c:\program files (x86)\microsoft visual studio 10.0\vc\include\xutility
;	COMDAT ??$_Ptr_cat@UCharAngle@FindPredicate@@U12@@std@@YA?AU_Nonscalar_ptr_iterator_tag@0@PAUCharAngle@FindPredicate@@0@Z
_TEXT	SEGMENT
__Cat$ = -1						; size = 1
___formal$ = 8						; size = 4
___formal$ = 12						; size = 4
??$_Ptr_cat@UCharAngle@FindPredicate@@U12@@std@@YA?AU_Nonscalar_ptr_iterator_tag@0@PAUCharAngle@FindPredicate@@0@Z PROC ; std::_Ptr_cat<FindPredicate::CharAngle,FindPredicate::CharAngle>, COMDAT

; 516  : 	{	// return pointer category from pointers

  00000	55		 push	 ebp
  00001	8b ec		 mov	 ebp, esp
  00003	51		 push	 ecx

; 517  : 	typename _Ptr_cat_helper<_Elem1, _Elem2>::_Type _Cat;
; 518  : 	return (_Cat);

  00004	8a 45 ff	 mov	 al, BYTE PTR __Cat$[ebp]

; 519  : 	}

  00007	c9		 leave
  00008	c3		 ret	 0
??$_Ptr_cat@UCharAngle@FindPredicate@@U12@@std@@YA?AU_Nonscalar_ptr_iterator_tag@0@PAUCharAngle@FindPredicate@@0@Z ENDP ; std::_Ptr_cat<FindPredicate::CharAngle,FindPredicate::CharAngle>
_TEXT	ENDS
PUBLIC	??$_Construct@UCharDistanceSq@FindPredicate@@ABU12@@std@@YAXPAUCharDistanceSq@FindPredicate@@ABU12@@Z ; std::_Construct<FindPredicate::CharDistanceSq,FindPredicate::CharDistanceSq const &>
; Function compile flags: /Ogsp
; File c:\program files (x86)\microsoft visual studio 10.0\vc\include\xmemory
;	COMDAT ??$_Construct@UCharDistanceSq@FindPredicate@@ABU12@@std@@YAXPAUCharDistanceSq@FindPredicate@@ABU12@@Z
_TEXT	SEGMENT
__Ptr$ = 8						; size = 4
__Val$ = 12						; size = 4
??$_Construct@UCharDistanceSq@FindPredicate@@ABU12@@std@@YAXPAUCharDistanceSq@FindPredicate@@ABU12@@Z PROC ; std::_Construct<FindPredicate::CharDistanceSq,FindPredicate::CharDistanceSq const &>, COMDAT

; 46   : 	{	// construct object at _Ptr with value _Val

  00000	55		 push	 ebp
  00001	8b ec		 mov	 ebp, esp

; 47   : 	void _FARQ *_Vptr = _Ptr;
; 48   : 	::new (_Vptr) _Ty1(_STD forward<_Ty2>(_Val));

  00003	8b 45 08	 mov	 eax, DWORD PTR __Ptr$[ebp]
  00006	85 c0		 test	 eax, eax
  00008	74 0d		 je	 SHORT $LN3@Construct
  0000a	8b 4d 0c	 mov	 ecx, DWORD PTR __Val$[ebp]
  0000d	8b 11		 mov	 edx, DWORD PTR [ecx]
  0000f	89 10		 mov	 DWORD PTR [eax], edx
  00011	8b 49 04	 mov	 ecx, DWORD PTR [ecx+4]
  00014	89 48 04	 mov	 DWORD PTR [eax+4], ecx
$LN3@Construct:

; 49   : 	}

  00017	5d		 pop	 ebp
  00018	c3		 ret	 0
??$_Construct@UCharDistanceSq@FindPredicate@@ABU12@@std@@YAXPAUCharDistanceSq@FindPredicate@@ABU12@@Z ENDP ; std::_Construct<FindPredicate::CharDistanceSq,FindPredicate::CharDistanceSq const &>
_TEXT	ENDS
PUBLIC	??$_Construct@UCharAngle@FindPredicate@@ABU12@@std@@YAXPAUCharAngle@FindPredicate@@ABU12@@Z ; std::_Construct<FindPredicate::CharAngle,FindPredicate::CharAngle const &>
; Function compile flags: /Ogsp
;	COMDAT ??$_Construct@UCharAngle@FindPredicate@@ABU12@@std@@YAXPAUCharAngle@FindPredicate@@ABU12@@Z
_TEXT	SEGMENT
__Ptr$ = 8						; size = 4
__Val$ = 12						; size = 4
??$_Construct@UCharAngle@FindPredicate@@ABU12@@std@@YAXPAUCharAngle@FindPredicate@@ABU12@@Z PROC ; std::_Construct<FindPredicate::CharAngle,FindPredicate::CharAngle const &>, COMDAT

; 46   : 	{	// construct object at _Ptr with value _Val

  00000	55		 push	 ebp
  00001	8b ec		 mov	 ebp, esp

; 47   : 	void _FARQ *_Vptr = _Ptr;
; 48   : 	::new (_Vptr) _Ty1(_STD forward<_Ty2>(_Val));

  00003	8b 45 08	 mov	 eax, DWORD PTR __Ptr$[ebp]
  00006	85 c0		 test	 eax, eax
  00008	74 0d		 je	 SHORT $LN3@Construct@2
  0000a	8b 4d 0c	 mov	 ecx, DWORD PTR __Val$[ebp]
  0000d	8b 11		 mov	 edx, DWORD PTR [ecx]
  0000f	89 10		 mov	 DWORD PTR [eax], edx
  00011	8b 49 04	 mov	 ecx, DWORD PTR [ecx+4]
  00014	89 48 04	 mov	 DWORD PTR [eax+4], ecx
$LN3@Construct@2:

; 49   : 	}

  00017	5d		 pop	 ebp
  00018	c3		 ret	 0
??$_Construct@UCharAngle@FindPredicate@@ABU12@@std@@YAXPAUCharAngle@FindPredicate@@ABU12@@Z ENDP ; std::_Construct<FindPredicate::CharAngle,FindPredicate::CharAngle const &>
_TEXT	ENDS
PUBLIC	?_Unchecked@?$_Vector_iterator@V?$_Vector_val@UCharDistanceSq@FindPredicate@@V?$allocator@UCharDistanceSq@FindPredicate@@@std@@@std@@@std@@QBEPAUCharDistanceSq@FindPredicate@@XZ ; std::_Vector_iterator<std::_Vector_val<FindPredicate::CharDistanceSq,std::allocator<FindPredicate::CharDistanceSq> > >::_Unchecked
; Function compile flags: /Ogsp
; File c:\program files (x86)\microsoft visual studio 10.0\vc\include\vector
;	COMDAT ?_Unchecked@?$_Vector_iterator@V?$_Vector_val@UCharDistanceSq@FindPredicate@@V?$allocator@UCharDistanceSq@FindPredicate@@@std@@@std@@@std@@QBEPAUCharDistanceSq@FindPredicate@@XZ
_TEXT	SEGMENT
?_Unchecked@?$_Vector_iterator@V?$_Vector_val@UCharDistanceSq@FindPredicate@@V?$allocator@UCharDistanceSq@FindPredicate@@@std@@@std@@@std@@QBEPAUCharDistanceSq@FindPredicate@@XZ PROC ; std::_Vector_iterator<std::_Vector_val<FindPredicate::CharDistanceSq,std::allocator<FindPredicate::CharDistanceSq> > >::_Unchecked, COMDAT
; _this$ = ecx

; 317  : 		return (_Unchecked_type(this->_Ptr));

  00000	8b 01		 mov	 eax, DWORD PTR [ecx]

; 318  : 		}

  00002	c3		 ret	 0
?_Unchecked@?$_Vector_iterator@V?$_Vector_val@UCharDistanceSq@FindPredicate@@V?$allocator@UCharDistanceSq@FindPredicate@@@std@@@std@@@std@@QBEPAUCharDistanceSq@FindPredicate@@XZ ENDP ; std::_Vector_iterator<std::_Vector_val<FindPredicate::CharDistanceSq,std::allocator<FindPredicate::CharDistanceSq> > >::_Unchecked
_TEXT	ENDS
PUBLIC	?_Unchecked@?$_Vector_iterator@V?$_Vector_val@UCharAngle@FindPredicate@@V?$allocator@UCharAngle@FindPredicate@@@std@@@std@@@std@@QBEPAUCharAngle@FindPredicate@@XZ ; std::_Vector_iterator<std::_Vector_val<FindPredicate::CharAngle,std::allocator<FindPredicate::CharAngle> > >::_Unchecked
; Function compile flags: /Ogsp
;	COMDAT ?_Unchecked@?$_Vector_iterator@V?$_Vector_val@UCharAngle@FindPredicate@@V?$allocator@UCharAngle@FindPredicate@@@std@@@std@@@std@@QBEPAUCharAngle@FindPredicate@@XZ
_TEXT	SEGMENT
?_Unchecked@?$_Vector_iterator@V?$_Vector_val@UCharAngle@FindPredicate@@V?$allocator@UCharAngle@FindPredicate@@@std@@@std@@@std@@QBEPAUCharAngle@FindPredicate@@XZ PROC ; std::_Vector_iterator<std::_Vector_val<FindPredicate::CharAngle,std::allocator<FindPredicate::CharAngle> > >::_Unchecked, COMDAT
; _this$ = ecx

; 317  : 		return (_Unchecked_type(this->_Ptr));

  00000	8b 01		 mov	 eax, DWORD PTR [ecx]

; 318  : 		}

  00002	c3		 ret	 0
?_Unchecked@?$_Vector_iterator@V?$_Vector_val@UCharAngle@FindPredicate@@V?$allocator@UCharAngle@FindPredicate@@@std@@@std@@@std@@QBEPAUCharAngle@FindPredicate@@XZ ENDP ; std::_Vector_iterator<std::_Vector_val<FindPredicate::CharAngle,std::allocator<FindPredicate::CharAngle> > >::_Unchecked
_TEXT	ENDS
PUBLIC	??$_Val_type@PAUCharDistanceSq@FindPredicate@@@std@@YAPAUCharDistanceSq@FindPredicate@@PAU12@@Z ; std::_Val_type<FindPredicate::CharDistanceSq *>
; Function compile flags: /Ogsp
; File c:\program files (x86)\microsoft visual studio 10.0\vc\include\xutility
;	COMDAT ??$_Val_type@PAUCharDistanceSq@FindPredicate@@@std@@YAPAUCharDistanceSq@FindPredicate@@PAU12@@Z
_TEXT	SEGMENT
___formal$ = 8						; size = 4
??$_Val_type@PAUCharDistanceSq@FindPredicate@@@std@@YAPAUCharDistanceSq@FindPredicate@@PAU12@@Z PROC ; std::_Val_type<FindPredicate::CharDistanceSq *>, COMDAT

; 790  : 	return (0);

  00000	33 c0		 xor	 eax, eax

; 791  : 	}

  00002	c3		 ret	 0
??$_Val_type@PAUCharDistanceSq@FindPredicate@@@std@@YAPAUCharDistanceSq@FindPredicate@@PAU12@@Z ENDP ; std::_Val_type<FindPredicate::CharDistanceSq *>
_TEXT	ENDS
PUBLIC	??$move@AAUCharDistanceSq@FindPredicate@@@std@@YA$$QAUCharDistanceSq@FindPredicate@@AAU12@@Z ; std::move<FindPredicate::CharDistanceSq &>
; Function compile flags: /Ogsp
; File c:\program files (x86)\microsoft visual studio 10.0\vc\include\utility
;	COMDAT ??$move@AAUCharDistanceSq@FindPredicate@@@std@@YA$$QAUCharDistanceSq@FindPredicate@@AAU12@@Z
_TEXT	SEGMENT
__Arg$ = 8						; size = 4
??$move@AAUCharDistanceSq@FindPredicate@@@std@@YA$$QAUCharDistanceSq@FindPredicate@@AAU12@@Z PROC ; std::move<FindPredicate::CharDistanceSq &>, COMDAT

; 86   : 	{	// forward _Arg as movable

  00000	55		 push	 ebp
  00001	8b ec		 mov	 ebp, esp

; 87   : 	return ((typename tr1::_Remove_reference<_Ty>::_Type&&)_Arg);

  00003	8b 45 08	 mov	 eax, DWORD PTR __Arg$[ebp]

; 88   : 	}

  00006	5d		 pop	 ebp
  00007	c3		 ret	 0
??$move@AAUCharDistanceSq@FindPredicate@@@std@@YA$$QAUCharDistanceSq@FindPredicate@@AAU12@@Z ENDP ; std::move<FindPredicate::CharDistanceSq &>
_TEXT	ENDS
PUBLIC	??$_Val_type@PAUCharAngle@FindPredicate@@@std@@YAPAUCharAngle@FindPredicate@@PAU12@@Z ; std::_Val_type<FindPredicate::CharAngle *>
; Function compile flags: /Ogsp
; File c:\program files (x86)\microsoft visual studio 10.0\vc\include\xutility
;	COMDAT ??$_Val_type@PAUCharAngle@FindPredicate@@@std@@YAPAUCharAngle@FindPredicate@@PAU12@@Z
_TEXT	SEGMENT
___formal$ = 8						; size = 4
??$_Val_type@PAUCharAngle@FindPredicate@@@std@@YAPAUCharAngle@FindPredicate@@PAU12@@Z PROC ; std::_Val_type<FindPredicate::CharAngle *>, COMDAT

; 790  : 	return (0);

  00000	33 c0		 xor	 eax, eax

; 791  : 	}

  00002	c3		 ret	 0
??$_Val_type@PAUCharAngle@FindPredicate@@@std@@YAPAUCharAngle@FindPredicate@@PAU12@@Z ENDP ; std::_Val_type<FindPredicate::CharAngle *>
_TEXT	ENDS
PUBLIC	??$move@AAUCharAngle@FindPredicate@@@std@@YA$$QAUCharAngle@FindPredicate@@AAU12@@Z ; std::move<FindPredicate::CharAngle &>
; Function compile flags: /Ogsp
; File c:\program files (x86)\microsoft visual studio 10.0\vc\include\utility
;	COMDAT ??$move@AAUCharAngle@FindPredicate@@@std@@YA$$QAUCharAngle@FindPredicate@@AAU12@@Z
_TEXT	SEGMENT
__Arg$ = 8						; size = 4
??$move@AAUCharAngle@FindPredicate@@@std@@YA$$QAUCharAngle@FindPredicate@@AAU12@@Z PROC ; std::move<FindPredicate::CharAngle &>, COMDAT

; 86   : 	{	// forward _Arg as movable

  00000	55		 push	 ebp
  00001	8b ec		 mov	 ebp, esp

; 87   : 	return ((typename tr1::_Remove_reference<_Ty>::_Type&&)_Arg);

  00003	8b 45 08	 mov	 eax, DWORD PTR __Arg$[ebp]

; 88   : 	}

  00006	5d		 pop	 ebp
  00007	c3		 ret	 0
??$move@AAUCharAngle@FindPredicate@@@std@@YA$$QAUCharAngle@FindPredicate@@AAU12@@Z ENDP ; std::move<FindPredicate::CharAngle &>
_TEXT	ENDS
PUBLIC	??$_Unchecked@PAUCharDistanceSq@FindPredicate@@@std@@YAPAUCharDistanceSq@FindPredicate@@PAU12@@Z ; std::_Unchecked<FindPredicate::CharDistanceSq *>
; Function compile flags: /Ogsp
; File c:\program files (x86)\microsoft visual studio 10.0\vc\include\xutility
;	COMDAT ??$_Unchecked@PAUCharDistanceSq@FindPredicate@@@std@@YAPAUCharDistanceSq@FindPredicate@@PAU12@@Z
_TEXT	SEGMENT
__Src$ = 8						; size = 4
??$_Unchecked@PAUCharDistanceSq@FindPredicate@@@std@@YAPAUCharDistanceSq@FindPredicate@@PAU12@@Z PROC ; std::_Unchecked<FindPredicate::CharDistanceSq *>, COMDAT

; 266  : 	{	// construct unchecked from checked, generic

  00000	55		 push	 ebp
  00001	8b ec		 mov	 ebp, esp

; 267  : 	return (_Src);

  00003	8b 45 08	 mov	 eax, DWORD PTR __Src$[ebp]

; 268  : 	}

  00006	5d		 pop	 ebp
  00007	c3		 ret	 0
??$_Unchecked@PAUCharDistanceSq@FindPredicate@@@std@@YAPAUCharDistanceSq@FindPredicate@@PAU12@@Z ENDP ; std::_Unchecked<FindPredicate::CharDistanceSq *>
_TEXT	ENDS
PUBLIC	??$_Dist_type@PAUCharDistanceSq@FindPredicate@@@std@@YAPAHPAUCharDistanceSq@FindPredicate@@@Z ; std::_Dist_type<FindPredicate::CharDistanceSq *>
; Function compile flags: /Ogsp
;	COMDAT ??$_Dist_type@PAUCharDistanceSq@FindPredicate@@@std@@YAPAHPAUCharDistanceSq@FindPredicate@@@Z
_TEXT	SEGMENT
___formal$ = 8						; size = 4
??$_Dist_type@PAUCharDistanceSq@FindPredicate@@@std@@YAPAHPAUCharDistanceSq@FindPredicate@@@Z PROC ; std::_Dist_type<FindPredicate::CharDistanceSq *>, COMDAT

; 850  : 	return (0);

  00000	33 c0		 xor	 eax, eax

; 851  : 	}

  00002	c3		 ret	 0
??$_Dist_type@PAUCharDistanceSq@FindPredicate@@@std@@YAPAHPAUCharDistanceSq@FindPredicate@@@Z ENDP ; std::_Dist_type<FindPredicate::CharDistanceSq *>
_TEXT	ENDS
PUBLIC	??$_Unchecked@PAUCharAngle@FindPredicate@@@std@@YAPAUCharAngle@FindPredicate@@PAU12@@Z ; std::_Unchecked<FindPredicate::CharAngle *>
; Function compile flags: /Ogsp
;	COMDAT ??$_Unchecked@PAUCharAngle@FindPredicate@@@std@@YAPAUCharAngle@FindPredicate@@PAU12@@Z
_TEXT	SEGMENT
__Src$ = 8						; size = 4
??$_Unchecked@PAUCharAngle@FindPredicate@@@std@@YAPAUCharAngle@FindPredicate@@PAU12@@Z PROC ; std::_Unchecked<FindPredicate::CharAngle *>, COMDAT

; 266  : 	{	// construct unchecked from checked, generic

  00000	55		 push	 ebp
  00001	8b ec		 mov	 ebp, esp

; 267  : 	return (_Src);

  00003	8b 45 08	 mov	 eax, DWORD PTR __Src$[ebp]

; 268  : 	}

  00006	5d		 pop	 ebp
  00007	c3		 ret	 0
??$_Unchecked@PAUCharAngle@FindPredicate@@@std@@YAPAUCharAngle@FindPredicate@@PAU12@@Z ENDP ; std::_Unchecked<FindPredicate::CharAngle *>
_TEXT	ENDS
PUBLIC	??$_Dist_type@PAUCharAngle@FindPredicate@@@std@@YAPAHPAUCharAngle@FindPredicate@@@Z ; std::_Dist_type<FindPredicate::CharAngle *>
; Function compile flags: /Ogsp
;	COMDAT ??$_Dist_type@PAUCharAngle@FindPredicate@@@std@@YAPAHPAUCharAngle@FindPredicate@@@Z
_TEXT	SEGMENT
___formal$ = 8						; size = 4
??$_Dist_type@PAUCharAngle@FindPredicate@@@std@@YAPAHPAUCharAngle@FindPredicate@@@Z PROC ; std::_Dist_type<FindPredicate::CharAngle *>, COMDAT

; 850  : 	return (0);

  00000	33 c0		 xor	 eax, eax

; 851  : 	}

  00002	c3		 ret	 0
??$_Dist_type@PAUCharAngle@FindPredicate@@@std@@YAPAHPAUCharAngle@FindPredicate@@@Z ENDP ; std::_Dist_type<FindPredicate::CharAngle *>
_TEXT	ENDS
PUBLIC	??$_Destroy@UCharDistanceSq@FindPredicate@@@std@@YAXPAUCharDistanceSq@FindPredicate@@@Z ; std::_Destroy<FindPredicate::CharDistanceSq>
; Function compile flags: /Ogsp
; File c:\program files (x86)\microsoft visual studio 10.0\vc\include\xmemory
;	COMDAT ??$_Destroy@UCharDistanceSq@FindPredicate@@@std@@YAXPAUCharDistanceSq@FindPredicate@@@Z
_TEXT	SEGMENT
__Ptr$ = 8						; size = 4
??$_Destroy@UCharDistanceSq@FindPredicate@@@std@@YAXPAUCharDistanceSq@FindPredicate@@@Z PROC ; std::_Destroy<FindPredicate::CharDistanceSq>, COMDAT

; 63   : 	_Ptr->~_Ty();
; 64   : 	}

  00000	c3		 ret	 0
??$_Destroy@UCharDistanceSq@FindPredicate@@@std@@YAXPAUCharDistanceSq@FindPredicate@@@Z ENDP ; std::_Destroy<FindPredicate::CharDistanceSq>
_TEXT	ENDS
PUBLIC	??$_Destroy@UCharAngle@FindPredicate@@@std@@YAXPAUCharAngle@FindPredicate@@@Z ; std::_Destroy<FindPredicate::CharAngle>
; Function compile flags: /Ogsp
;	COMDAT ??$_Destroy@UCharAngle@FindPredicate@@@std@@YAXPAUCharAngle@FindPredicate@@@Z
_TEXT	SEGMENT
__Ptr$ = 8						; size = 4
??$_Destroy@UCharAngle@FindPredicate@@@std@@YAXPAUCharAngle@FindPredicate@@@Z PROC ; std::_Destroy<FindPredicate::CharAngle>, COMDAT

; 63   : 	_Ptr->~_Ty();
; 64   : 	}

  00000	c3		 ret	 0
??$_Destroy@UCharAngle@FindPredicate@@@std@@YAXPAUCharAngle@FindPredicate@@@Z ENDP ; std::_Destroy<FindPredicate::CharAngle>
_TEXT	ENDS
PUBLIC	??$forward@AAPAUCharDistanceSq@FindPredicate@@@std@@YAAAPAUCharDistanceSq@FindPredicate@@AAPAU12@@Z ; std::forward<FindPredicate::CharDistanceSq * &>
; Function compile flags: /Ogsp
; File c:\program files (x86)\microsoft visual studio 10.0\vc\include\utility
;	COMDAT ??$forward@AAPAUCharDistanceSq@FindPredicate@@@std@@YAAAPAUCharDistanceSq@FindPredicate@@AAPAU12@@Z
_TEXT	SEGMENT
__Arg$ = 8						; size = 4
??$forward@AAPAUCharDistanceSq@FindPredicate@@@std@@YAAAPAUCharDistanceSq@FindPredicate@@AAPAU12@@Z PROC ; std::forward<FindPredicate::CharDistanceSq * &>, COMDAT

; 78   : 	{	// forward _Arg, given explicitly specified type parameter

  00000	55		 push	 ebp
  00001	8b ec		 mov	 ebp, esp

; 79   : 	return ((_Ty&&)_Arg);

  00003	8b 45 08	 mov	 eax, DWORD PTR __Arg$[ebp]

; 80   : 	}

  00006	5d		 pop	 ebp
  00007	c3		 ret	 0
??$forward@AAPAUCharDistanceSq@FindPredicate@@@std@@YAAAPAUCharDistanceSq@FindPredicate@@AAPAU12@@Z ENDP ; std::forward<FindPredicate::CharDistanceSq * &>
_TEXT	ENDS
PUBLIC	??$?0AAPAUCharDistanceSq@FindPredicate@@AAPAU01@@?$_Pair_base@PAUCharDistanceSq@FindPredicate@@PAU12@@std@@QAE@AAPAUCharDistanceSq@FindPredicate@@0@Z ; std::_Pair_base<FindPredicate::CharDistanceSq *,FindPredicate::CharDistanceSq *>::_Pair_base<FindPredicate::CharDistanceSq *,FindPredicate::CharDistanceSq *><FindPredicate::CharDistanceSq * &,FindPredicate::CharDistanceSq * &>
; Function compile flags: /Ogsp
;	COMDAT ??$?0AAPAUCharDistanceSq@FindPredicate@@AAPAU01@@?$_Pair_base@PAUCharDistanceSq@FindPredicate@@PAU12@@std@@QAE@AAPAUCharDistanceSq@FindPredicate@@0@Z
_TEXT	SEGMENT
__Val1$ = 8						; size = 4
__Val2$ = 12						; size = 4
??$?0AAPAUCharDistanceSq@FindPredicate@@AAPAU01@@?$_Pair_base@PAUCharDistanceSq@FindPredicate@@PAU12@@std@@QAE@AAPAUCharDistanceSq@FindPredicate@@0@Z PROC ; std::_Pair_base<FindPredicate::CharDistanceSq *,FindPredicate::CharDistanceSq *>::_Pair_base<FindPredicate::CharDistanceSq *,FindPredicate::CharDistanceSq *><FindPredicate::CharDistanceSq * &,FindPredicate::CharDistanceSq * &>, COMDAT
; _this$ = ecx

; 163  : 		{	// construct from moved values

  00000	55		 push	 ebp
  00001	8b ec		 mov	 ebp, esp
  00003	8b c1		 mov	 eax, ecx
  00005	8b 4d 08	 mov	 ecx, DWORD PTR __Val1$[ebp]
  00008	8b 09		 mov	 ecx, DWORD PTR [ecx]
  0000a	89 08		 mov	 DWORD PTR [eax], ecx
  0000c	8b 4d 0c	 mov	 ecx, DWORD PTR __Val2$[ebp]
  0000f	8b 09		 mov	 ecx, DWORD PTR [ecx]
  00011	89 48 04	 mov	 DWORD PTR [eax+4], ecx

; 164  : 		}

  00014	5d		 pop	 ebp
  00015	c2 08 00	 ret	 8
??$?0AAPAUCharDistanceSq@FindPredicate@@AAPAU01@@?$_Pair_base@PAUCharDistanceSq@FindPredicate@@PAU12@@std@@QAE@AAPAUCharDistanceSq@FindPredicate@@0@Z ENDP ; std::_Pair_base<FindPredicate::CharDistanceSq *,FindPredicate::CharDistanceSq *>::_Pair_base<FindPredicate::CharDistanceSq *,FindPredicate::CharDistanceSq *><FindPredicate::CharDistanceSq * &,FindPredicate::CharDistanceSq * &>
_TEXT	ENDS
PUBLIC	??$_Move@AAUCharDistanceSq@FindPredicate@@@std@@YA$$QAUCharDistanceSq@FindPredicate@@AAU12@@Z ; std::_Move<FindPredicate::CharDistanceSq &>
; Function compile flags: /Ogsp
;	COMDAT ??$_Move@AAUCharDistanceSq@FindPredicate@@@std@@YA$$QAUCharDistanceSq@FindPredicate@@AAU12@@Z
_TEXT	SEGMENT
__Arg$ = 8						; size = 4
??$_Move@AAUCharDistanceSq@FindPredicate@@@std@@YA$$QAUCharDistanceSq@FindPredicate@@AAU12@@Z PROC ; std::_Move<FindPredicate::CharDistanceSq &>, COMDAT

; 94   : 	{	// forward _Arg as movable

  00000	55		 push	 ebp
  00001	8b ec		 mov	 ebp, esp

; 95   : 	return ((typename tr1::_Remove_reference<_Ty>::_Type&&)_Arg);

  00003	8b 45 08	 mov	 eax, DWORD PTR __Arg$[ebp]

; 96   : 	}

  00006	5d		 pop	 ebp
  00007	c3		 ret	 0
??$_Move@AAUCharDistanceSq@FindPredicate@@@std@@YA$$QAUCharDistanceSq@FindPredicate@@AAU12@@Z ENDP ; std::_Move<FindPredicate::CharDistanceSq &>
_TEXT	ENDS
PUBLIC	??$forward@AAPAUCharAngle@FindPredicate@@@std@@YAAAPAUCharAngle@FindPredicate@@AAPAU12@@Z ; std::forward<FindPredicate::CharAngle * &>
; Function compile flags: /Ogsp
;	COMDAT ??$forward@AAPAUCharAngle@FindPredicate@@@std@@YAAAPAUCharAngle@FindPredicate@@AAPAU12@@Z
_TEXT	SEGMENT
__Arg$ = 8						; size = 4
??$forward@AAPAUCharAngle@FindPredicate@@@std@@YAAAPAUCharAngle@FindPredicate@@AAPAU12@@Z PROC ; std::forward<FindPredicate::CharAngle * &>, COMDAT

; 78   : 	{	// forward _Arg, given explicitly specified type parameter

  00000	55		 push	 ebp
  00001	8b ec		 mov	 ebp, esp

; 79   : 	return ((_Ty&&)_Arg);

  00003	8b 45 08	 mov	 eax, DWORD PTR __Arg$[ebp]

; 80   : 	}

  00006	5d		 pop	 ebp
  00007	c3		 ret	 0
??$forward@AAPAUCharAngle@FindPredicate@@@std@@YAAAPAUCharAngle@FindPredicate@@AAPAU12@@Z ENDP ; std::forward<FindPredicate::CharAngle * &>
_TEXT	ENDS
PUBLIC	??$?0AAPAUCharAngle@FindPredicate@@AAPAU01@@?$_Pair_base@PAUCharAngle@FindPredicate@@PAU12@@std@@QAE@AAPAUCharAngle@FindPredicate@@0@Z ; std::_Pair_base<FindPredicate::CharAngle *,FindPredicate::CharAngle *>::_Pair_base<FindPredicate::CharAngle *,FindPredicate::CharAngle *><FindPredicate::CharAngle * &,FindPredicate::CharAngle * &>
; Function compile flags: /Ogsp
;	COMDAT ??$?0AAPAUCharAngle@FindPredicate@@AAPAU01@@?$_Pair_base@PAUCharAngle@FindPredicate@@PAU12@@std@@QAE@AAPAUCharAngle@FindPredicate@@0@Z
_TEXT	SEGMENT
__Val1$ = 8						; size = 4
__Val2$ = 12						; size = 4
??$?0AAPAUCharAngle@FindPredicate@@AAPAU01@@?$_Pair_base@PAUCharAngle@FindPredicate@@PAU12@@std@@QAE@AAPAUCharAngle@FindPredicate@@0@Z PROC ; std::_Pair_base<FindPredicate::CharAngle *,FindPredicate::CharAngle *>::_Pair_base<FindPredicate::CharAngle *,FindPredicate::CharAngle *><FindPredicate::CharAngle * &,FindPredicate::CharAngle * &>, COMDAT
; _this$ = ecx

; 163  : 		{	// construct from moved values

  00000	55		 push	 ebp
  00001	8b ec		 mov	 ebp, esp
  00003	8b c1		 mov	 eax, ecx
  00005	8b 4d 08	 mov	 ecx, DWORD PTR __Val1$[ebp]
  00008	8b 09		 mov	 ecx, DWORD PTR [ecx]
  0000a	89 08		 mov	 DWORD PTR [eax], ecx
  0000c	8b 4d 0c	 mov	 ecx, DWORD PTR __Val2$[ebp]
  0000f	8b 09		 mov	 ecx, DWORD PTR [ecx]
  00011	89 48 04	 mov	 DWORD PTR [eax+4], ecx

; 164  : 		}

  00014	5d		 pop	 ebp
  00015	c2 08 00	 ret	 8
??$?0AAPAUCharAngle@FindPredicate@@AAPAU01@@?$_Pair_base@PAUCharAngle@FindPredicate@@PAU12@@std@@QAE@AAPAUCharAngle@FindPredicate@@0@Z ENDP ; std::_Pair_base<FindPredicate::CharAngle *,FindPredicate::CharAngle *>::_Pair_base<FindPredicate::CharAngle *,FindPredicate::CharAngle *><FindPredicate::CharAngle * &,FindPredicate::CharAngle * &>
_TEXT	ENDS
PUBLIC	??$_Move@AAUCharAngle@FindPredicate@@@std@@YA$$QAUCharAngle@FindPredicate@@AAU12@@Z ; std::_Move<FindPredicate::CharAngle &>
; Function compile flags: /Ogsp
;	COMDAT ??$_Move@AAUCharAngle@FindPredicate@@@std@@YA$$QAUCharAngle@FindPredicate@@AAU12@@Z
_TEXT	SEGMENT
__Arg$ = 8						; size = 4
??$_Move@AAUCharAngle@FindPredicate@@@std@@YA$$QAUCharAngle@FindPredicate@@AAU12@@Z PROC ; std::_Move<FindPredicate::CharAngle &>, COMDAT

; 94   : 	{	// forward _Arg as movable

  00000	55		 push	 ebp
  00001	8b ec		 mov	 ebp, esp

; 95   : 	return ((typename tr1::_Remove_reference<_Ty>::_Type&&)_Arg);

  00003	8b 45 08	 mov	 eax, DWORD PTR __Arg$[ebp]

; 96   : 	}

  00006	5d		 pop	 ebp
  00007	c3		 ret	 0
??$_Move@AAUCharAngle@FindPredicate@@@std@@YA$$QAUCharAngle@FindPredicate@@AAU12@@Z ENDP ; std::_Move<FindPredicate::CharAngle &>
_TEXT	ENDS
PUBLIC	??$forward@UCharDistanceSq@FindPredicate@@@std@@YA$$QAUCharDistanceSq@FindPredicate@@AAU12@@Z ; std::forward<FindPredicate::CharDistanceSq>
; Function compile flags: /Ogsp
;	COMDAT ??$forward@UCharDistanceSq@FindPredicate@@@std@@YA$$QAUCharDistanceSq@FindPredicate@@AAU12@@Z
_TEXT	SEGMENT
__Arg$ = 8						; size = 4
??$forward@UCharDistanceSq@FindPredicate@@@std@@YA$$QAUCharDistanceSq@FindPredicate@@AAU12@@Z PROC ; std::forward<FindPredicate::CharDistanceSq>, COMDAT

; 78   : 	{	// forward _Arg, given explicitly specified type parameter

  00000	55		 push	 ebp
  00001	8b ec		 mov	 ebp, esp

; 79   : 	return ((_Ty&&)_Arg);

  00003	8b 45 08	 mov	 eax, DWORD PTR __Arg$[ebp]

; 80   : 	}

  00006	5d		 pop	 ebp
  00007	c3		 ret	 0
??$forward@UCharDistanceSq@FindPredicate@@@std@@YA$$QAUCharDistanceSq@FindPredicate@@AAU12@@Z ENDP ; std::forward<FindPredicate::CharDistanceSq>
_TEXT	ENDS
PUBLIC	??$forward@UCharAngle@FindPredicate@@@std@@YA$$QAUCharAngle@FindPredicate@@AAU12@@Z ; std::forward<FindPredicate::CharAngle>
; Function compile flags: /Ogsp
;	COMDAT ??$forward@UCharAngle@FindPredicate@@@std@@YA$$QAUCharAngle@FindPredicate@@AAU12@@Z
_TEXT	SEGMENT
__Arg$ = 8						; size = 4
??$forward@UCharAngle@FindPredicate@@@std@@YA$$QAUCharAngle@FindPredicate@@AAU12@@Z PROC ; std::forward<FindPredicate::CharAngle>, COMDAT

; 78   : 	{	// forward _Arg, given explicitly specified type parameter

  00000	55		 push	 ebp
  00001	8b ec		 mov	 ebp, esp

; 79   : 	return ((_Ty&&)_Arg);

  00003	8b 45 08	 mov	 eax, DWORD PTR __Arg$[ebp]

; 80   : 	}

  00006	5d		 pop	 ebp
  00007	c3		 ret	 0
??$forward@UCharAngle@FindPredicate@@@std@@YA$$QAUCharAngle@FindPredicate@@AAU12@@Z ENDP ; std::forward<FindPredicate::CharAngle>
_TEXT	ENDS
PUBLIC	??$_Move_backward@PAUCharDistanceSq@FindPredicate@@PAU12@@std@@YAPAUCharDistanceSq@FindPredicate@@PAU12@00U_Nonscalar_ptr_iterator_tag@0@@Z ; std::_Move_backward<FindPredicate::CharDistanceSq *,FindPredicate::CharDistanceSq *>
; Function compile flags: /Ogsp
; File c:\program files (x86)\microsoft visual studio 10.0\vc\include\xutility
;	COMDAT ??$_Move_backward@PAUCharDistanceSq@FindPredicate@@PAU12@@std@@YAPAUCharDistanceSq@FindPredicate@@PAU12@00U_Nonscalar_ptr_iterator_tag@0@@Z
_TEXT	SEGMENT
__First$ = 8						; size = 4
__Last$ = 12						; size = 4
__Dest$ = 16						; size = 4
___formal$ = 20						; size = 1
??$_Move_backward@PAUCharDistanceSq@FindPredicate@@PAU12@@std@@YAPAUCharDistanceSq@FindPredicate@@PAU12@00U_Nonscalar_ptr_iterator_tag@0@@Z PROC ; std::_Move_backward<FindPredicate::CharDistanceSq *,FindPredicate::CharDistanceSq *>, COMDAT

; 2617 : 	{	// move [_First, _Last) backwards to [..., _Dest), arbitrary iterators

  00000	55		 push	 ebp
  00001	8b ec		 mov	 ebp, esp

; 2618 : 	while (_First != _Last)

  00003	8b 4d 0c	 mov	 ecx, DWORD PTR __Last$[ebp]
  00006	8b 45 10	 mov	 eax, DWORD PTR __Dest$[ebp]
  00009	39 4d 08	 cmp	 DWORD PTR __First$[ebp], ecx
  0000c	74 15		 je	 SHORT $LN1@Move_backw
$LL2@Move_backw:

; 2619 : 		*--_Dest = _STD move(*--_Last);

  0000e	83 e9 08	 sub	 ecx, 8
  00011	8b 11		 mov	 edx, DWORD PTR [ecx]
  00013	83 e8 08	 sub	 eax, 8
  00016	89 10		 mov	 DWORD PTR [eax], edx
  00018	8b 51 04	 mov	 edx, DWORD PTR [ecx+4]
  0001b	89 50 04	 mov	 DWORD PTR [eax+4], edx
  0001e	3b 4d 08	 cmp	 ecx, DWORD PTR __First$[ebp]
  00021	75 eb		 jne	 SHORT $LL2@Move_backw
$LN1@Move_backw:

; 2620 : 	return (_Dest);
; 2621 : 	}

  00023	5d		 pop	 ebp
  00024	c3		 ret	 0
??$_Move_backward@PAUCharDistanceSq@FindPredicate@@PAU12@@std@@YAPAUCharDistanceSq@FindPredicate@@PAU12@00U_Nonscalar_ptr_iterator_tag@0@@Z ENDP ; std::_Move_backward<FindPredicate::CharDistanceSq *,FindPredicate::CharDistanceSq *>
_TEXT	ENDS
PUBLIC	??$_Move_backward@PAUCharAngle@FindPredicate@@PAU12@@std@@YAPAUCharAngle@FindPredicate@@PAU12@00U_Nonscalar_ptr_iterator_tag@0@@Z ; std::_Move_backward<FindPredicate::CharAngle *,FindPredicate::CharAngle *>
; Function compile flags: /Ogsp
;	COMDAT ??$_Move_backward@PAUCharAngle@FindPredicate@@PAU12@@std@@YAPAUCharAngle@FindPredicate@@PAU12@00U_Nonscalar_ptr_iterator_tag@0@@Z
_TEXT	SEGMENT
__First$ = 8						; size = 4
__Last$ = 12						; size = 4
__Dest$ = 16						; size = 4
___formal$ = 20						; size = 1
??$_Move_backward@PAUCharAngle@FindPredicate@@PAU12@@std@@YAPAUCharAngle@FindPredicate@@PAU12@00U_Nonscalar_ptr_iterator_tag@0@@Z PROC ; std::_Move_backward<FindPredicate::CharAngle *,FindPredicate::CharAngle *>, COMDAT

; 2617 : 	{	// move [_First, _Last) backwards to [..., _Dest), arbitrary iterators

  00000	55		 push	 ebp
  00001	8b ec		 mov	 ebp, esp

; 2618 : 	while (_First != _Last)

  00003	8b 4d 0c	 mov	 ecx, DWORD PTR __Last$[ebp]
  00006	8b 45 10	 mov	 eax, DWORD PTR __Dest$[ebp]
  00009	39 4d 08	 cmp	 DWORD PTR __First$[ebp], ecx
  0000c	74 15		 je	 SHORT $LN1@Move_backw@2
$LL2@Move_backw@2:

; 2619 : 		*--_Dest = _STD move(*--_Last);

  0000e	83 e9 08	 sub	 ecx, 8
  00011	8b 11		 mov	 edx, DWORD PTR [ecx]
  00013	83 e8 08	 sub	 eax, 8
  00016	89 10		 mov	 DWORD PTR [eax], edx
  00018	8b 51 04	 mov	 edx, DWORD PTR [ecx+4]
  0001b	89 50 04	 mov	 DWORD PTR [eax+4], edx
  0001e	3b 4d 08	 cmp	 ecx, DWORD PTR __First$[ebp]
  00021	75 eb		 jne	 SHORT $LL2@Move_backw@2
$LN1@Move_backw@2:

; 2620 : 	return (_Dest);
; 2621 : 	}

  00023	5d		 pop	 ebp
  00024	c3		 ret	 0
??$_Move_backward@PAUCharAngle@FindPredicate@@PAU12@@std@@YAPAUCharAngle@FindPredicate@@PAU12@00U_Nonscalar_ptr_iterator_tag@0@@Z ENDP ; std::_Move_backward<FindPredicate::CharAngle *,FindPredicate::CharAngle *>
_TEXT	ENDS
PUBLIC	??0D3DXVECTOR3@@QAE@XZ				; D3DXVECTOR3::D3DXVECTOR3
; Function compile flags: /Ogsp
; File c:\program files (x86)\microsoft directx sdk (june 2010)\include\d3dx9math.h
;	COMDAT ??0D3DXVECTOR3@@QAE@XZ
_TEXT	SEGMENT
??0D3DXVECTOR3@@QAE@XZ PROC				; D3DXVECTOR3::D3DXVECTOR3, COMDAT
; _this$ = ecx

; 165  :     D3DXVECTOR3() {};

  00000	8b c1		 mov	 eax, ecx
  00002	c3		 ret	 0
??0D3DXVECTOR3@@QAE@XZ ENDP				; D3DXVECTOR3::D3DXVECTOR3
_TEXT	ENDS
PUBLIC	??0D3DXVECTOR3@@QAE@MMM@Z			; D3DXVECTOR3::D3DXVECTOR3
EXTRN	__fltused:DWORD
; Function compile flags: /Ogsp
; File c:\program files (x86)\microsoft directx sdk (june 2010)\include\d3dx9math.inl
;	COMDAT ??0D3DXVECTOR3@@QAE@MMM@Z
_TEXT	SEGMENT
_fx$ = 8						; size = 4
_fy$ = 12						; size = 4
_fz$ = 16						; size = 4
??0D3DXVECTOR3@@QAE@MMM@Z PROC				; D3DXVECTOR3::D3DXVECTOR3, COMDAT
; _this$ = ecx

; 303  : {

  00000	55		 push	 ebp
  00001	8b ec		 mov	 ebp, esp

; 304  :     x = fx;

  00003	f3 0f 10 45 08	 movss	 xmm0, DWORD PTR _fx$[ebp]
  00008	8b c1		 mov	 eax, ecx
  0000a	f3 0f 11 00	 movss	 DWORD PTR [eax], xmm0

; 305  :     y = fy;

  0000e	f3 0f 10 45 0c	 movss	 xmm0, DWORD PTR _fy$[ebp]
  00013	f3 0f 11 40 04	 movss	 DWORD PTR [eax+4], xmm0

; 306  :     z = fz;

  00018	f3 0f 10 45 10	 movss	 xmm0, DWORD PTR _fz$[ebp]
  0001d	f3 0f 11 40 08	 movss	 DWORD PTR [eax+8], xmm0

; 307  : }

  00022	5d		 pop	 ebp
  00023	c2 0c 00	 ret	 12			; 0000000cH
??0D3DXVECTOR3@@QAE@MMM@Z ENDP				; D3DXVECTOR3::D3DXVECTOR3
_TEXT	ENDS
PUBLIC	??GD3DXVECTOR3@@QBE?AU0@ABU0@@Z			; D3DXVECTOR3::operator-
; Function compile flags: /Ogsp
;	COMDAT ??GD3DXVECTOR3@@QBE?AU0@ABU0@@Z
_TEXT	SEGMENT
___$ReturnUdt$ = 8					; size = 4
_v$ = 12						; size = 4
??GD3DXVECTOR3@@QBE?AU0@ABU0@@Z PROC			; D3DXVECTOR3::operator-, COMDAT
; _this$ = ecx

; 386  : {

  00000	55		 push	 ebp
  00001	8b ec		 mov	 ebp, esp

; 387  :     return D3DXVECTOR3(x - v.x, y - v.y, z - v.z);

  00003	8b 55 0c	 mov	 edx, DWORD PTR _v$[ebp]
  00006	f3 0f 10 01	 movss	 xmm0, DWORD PTR [ecx]
  0000a	f3 0f 10 0a	 movss	 xmm1, DWORD PTR [edx]
  0000e	8b 45 08	 mov	 eax, DWORD PTR ___$ReturnUdt$[ebp]
  00011	0f 5a c0	 cvtps2pd xmm0, xmm0
  00014	0f 5a c9	 cvtps2pd xmm1, xmm1
  00017	f2 0f 5c c1	 subsd	 xmm0, xmm1
  0001b	f3 0f 10 4a 04	 movss	 xmm1, DWORD PTR [edx+4]
  00020	66 0f 5a c0	 cvtpd2ps xmm0, xmm0
  00024	f3 0f 11 00	 movss	 DWORD PTR [eax], xmm0
  00028	f3 0f 10 41 04	 movss	 xmm0, DWORD PTR [ecx+4]
  0002d	0f 5a c0	 cvtps2pd xmm0, xmm0
  00030	0f 5a c9	 cvtps2pd xmm1, xmm1
  00033	f2 0f 5c c1	 subsd	 xmm0, xmm1
  00037	f3 0f 10 4a 08	 movss	 xmm1, DWORD PTR [edx+8]
  0003c	66 0f 5a c0	 cvtpd2ps xmm0, xmm0
  00040	f3 0f 11 40 04	 movss	 DWORD PTR [eax+4], xmm0
  00045	f3 0f 10 41 08	 movss	 xmm0, DWORD PTR [ecx+8]
  0004a	0f 5a c0	 cvtps2pd xmm0, xmm0
  0004d	0f 5a c9	 cvtps2pd xmm1, xmm1
  00050	f2 0f 5c c1	 subsd	 xmm0, xmm1
  00054	66 0f 5a c0	 cvtpd2ps xmm0, xmm0
  00058	f3 0f 11 40 08	 movss	 DWORD PTR [eax+8], xmm0

; 388  : }

  0005d	5d		 pop	 ebp
  0005e	c2 08 00	 ret	 8
??GD3DXVECTOR3@@QBE?AU0@ABU0@@Z ENDP			; D3DXVECTOR3::operator-
_TEXT	ENDS
PUBLIC	?D3DXVec3LengthSq@@YAMPBUD3DXVECTOR3@@@Z	; D3DXVec3LengthSq
; Function compile flags: /Ogsp
;	COMDAT ?D3DXVec3LengthSq@@YAMPBUD3DXVECTOR3@@@Z
_TEXT	SEGMENT
tv165 = 8						; size = 4
_pV$ = 8						; size = 4
?D3DXVec3LengthSq@@YAMPBUD3DXVECTOR3@@@Z PROC		; D3DXVec3LengthSq, COMDAT

; 1725 : {

  00000	55		 push	 ebp
  00001	8b ec		 mov	 ebp, esp

; 1726 : #ifdef D3DX_DEBUG
; 1727 :     if(!pV)
; 1728 :         return 0.0f;
; 1729 : #endif
; 1730 : 
; 1731 :     return pV->x * pV->x + pV->y * pV->y + pV->z * pV->z;

  00003	8b 45 08	 mov	 eax, DWORD PTR _pV$[ebp]
  00006	d9 40 04	 fld	 DWORD PTR [eax+4]
  00009	d9 00		 fld	 DWORD PTR [eax]
  0000b	d9 40 08	 fld	 DWORD PTR [eax+8]
  0000e	d9 c1		 fld	 ST(1)
  00010	de ca		 fmulp	 ST(2), ST(0)
  00012	d9 c2		 fld	 ST(2)
  00014	de cb		 fmulp	 ST(3), ST(0)
  00016	d9 c9		 fxch	 ST(1)
  00018	de c2		 faddp	 ST(2), ST(0)
  0001a	d9 c0		 fld	 ST(0)
  0001c	de c9		 fmulp	 ST(1), ST(0)
  0001e	de c1		 faddp	 ST(1), ST(0)
  00020	d9 5d 08	 fstp	 DWORD PTR tv165[ebp]
  00023	d9 45 08	 fld	 DWORD PTR tv165[ebp]

; 1732 : }

  00026	5d		 pop	 ebp
  00027	c3		 ret	 0
?D3DXVec3LengthSq@@YAMPBUD3DXVECTOR3@@@Z ENDP		; D3DXVec3LengthSq
_TEXT	ENDS
PUBLIC	?D3DXVec3Dot@@YAMPBUD3DXVECTOR3@@0@Z		; D3DXVec3Dot
; Function compile flags: /Ogsp
;	COMDAT ?D3DXVec3Dot@@YAMPBUD3DXVECTOR3@@0@Z
_TEXT	SEGMENT
tv188 = 8						; size = 4
_pV1$ = 8						; size = 4
_pV2$ = 12						; size = 4
?D3DXVec3Dot@@YAMPBUD3DXVECTOR3@@0@Z PROC		; D3DXVec3Dot, COMDAT

; 1736 : {

  00000	55		 push	 ebp
  00001	8b ec		 mov	 ebp, esp

; 1737 : #ifdef D3DX_DEBUG
; 1738 :     if(!pV1 || !pV2)
; 1739 :         return 0.0f;
; 1740 : #endif
; 1741 : 
; 1742 :     return pV1->x * pV2->x + pV1->y * pV2->y + pV1->z * pV2->z;

  00003	8b 45 08	 mov	 eax, DWORD PTR _pV1$[ebp]
  00006	8b 4d 0c	 mov	 ecx, DWORD PTR _pV2$[ebp]
  00009	d9 40 04	 fld	 DWORD PTR [eax+4]
  0000c	d8 49 04	 fmul	 DWORD PTR [ecx+4]
  0000f	d9 00		 fld	 DWORD PTR [eax]
  00011	d8 09		 fmul	 DWORD PTR [ecx]
  00013	de c1		 faddp	 ST(1), ST(0)
  00015	d9 40 08	 fld	 DWORD PTR [eax+8]
  00018	d8 49 08	 fmul	 DWORD PTR [ecx+8]
  0001b	de c1		 faddp	 ST(1), ST(0)
  0001d	d9 5d 08	 fstp	 DWORD PTR tv188[ebp]
  00020	d9 45 08	 fld	 DWORD PTR tv188[ebp]

; 1743 : }

  00023	5d		 pop	 ebp
  00024	c3		 ret	 0
?D3DXVec3Dot@@YAMPBUD3DXVECTOR3@@0@Z ENDP		; D3DXVec3Dot
_TEXT	ENDS
PUBLIC	??MCharDistanceSq@FindPredicate@@QBE_NABU01@@Z	; FindPredicate::CharDistanceSq::operator<
; Function compile flags: /Ogsp
; File d:\lost saga for developer\youtube\tutorial\source\src\lsclient\findpredicate.h
;	COMDAT ??MCharDistanceSq@FindPredicate@@QBE_NABU01@@Z
_TEXT	SEGMENT
_rhs$ = 8						; size = 4
??MCharDistanceSq@FindPredicate@@QBE_NABU01@@Z PROC	; FindPredicate::CharDistanceSq::operator<, COMDAT
; _this$ = ecx

; 19   : 		{

  00000	55		 push	 ebp
  00001	8b ec		 mov	 ebp, esp

; 20   : 			return fDistanceSq < rhs.fDistanceSq;

  00003	8b 45 08	 mov	 eax, DWORD PTR _rhs$[ebp]
  00006	f3 0f 10 48 04	 movss	 xmm1, DWORD PTR [eax+4]
  0000b	f3 0f 10 41 04	 movss	 xmm0, DWORD PTR [ecx+4]
  00010	0f 5a c0	 cvtps2pd xmm0, xmm0
  00013	0f 5a c9	 cvtps2pd xmm1, xmm1
  00016	33 c0		 xor	 eax, eax
  00018	66 0f 2f c8	 comisd	 xmm1, xmm0
  0001c	76 01		 jbe	 SHORT $LN4@operator
  0001e	40		 inc	 eax
$LN4@operator:

; 21   : 		}

  0001f	5d		 pop	 ebp
  00020	c2 04 00	 ret	 4
??MCharDistanceSq@FindPredicate@@QBE_NABU01@@Z ENDP	; FindPredicate::CharDistanceSq::operator<
_TEXT	ENDS
PUBLIC	??MCharAngle@FindPredicate@@QBE_NABU01@@Z	; FindPredicate::CharAngle::operator<
; Function compile flags: /Ogsp
;	COMDAT ??MCharAngle@FindPredicate@@QBE_NABU01@@Z
_TEXT	SEGMENT
_rhs$ = 8						; size = 4
??MCharAngle@FindPredicate@@QBE_NABU01@@Z PROC		; FindPredicate::CharAngle::operator<, COMDAT
; _this$ = ecx

; 31   : 		{

  00000	55		 push	 ebp
  00001	8b ec		 mov	 ebp, esp

; 32   : 			return fHalfCosine < rhs.fHalfCosine;

  00003	8b 45 08	 mov	 eax, DWORD PTR _rhs$[ebp]
  00006	f3 0f 10 48 04	 movss	 xmm1, DWORD PTR [eax+4]
  0000b	f3 0f 10 41 04	 movss	 xmm0, DWORD PTR [ecx+4]
  00010	0f 5a c0	 cvtps2pd xmm0, xmm0
  00013	0f 5a c9	 cvtps2pd xmm1, xmm1
  00016	33 c0		 xor	 eax, eax
  00018	66 0f 2f c8	 comisd	 xmm1, xmm0
  0001c	76 01		 jbe	 SHORT $LN4@operator@2
  0001e	40		 inc	 eax
$LN4@operator@2:

; 33   : 		}

  0001f	5d		 pop	 ebp
  00020	c2 04 00	 ret	 4
??MCharAngle@FindPredicate@@QBE_NABU01@@Z ENDP		; FindPredicate::CharAngle::operator<
_TEXT	ENDS
PUBLIC	?DecryptValueToPool@?$CEncrypt@K@@QAEXPAK@Z	; CEncrypt<unsigned long>::DecryptValueToPool
EXTRN	?DecryptByte@ccddaabb@@QBEXPBDPADH@Z:PROC	; ccddaabb::DecryptByte
; Function compile flags: /Ogsp
; File d:\lost saga for developer\youtube\tutorial\source\src\lsclient\encryptvalue.h
;	COMDAT ?DecryptValueToPool@?$CEncrypt@K@@QAEXPAK@Z
_TEXT	SEGMENT
_value$ = 8						; size = 4
?DecryptValueToPool@?$CEncrypt@K@@QAEXPAK@Z PROC	; CEncrypt<unsigned long>::DecryptValueToPool, COMDAT
; _this$ = ecx

; 1256 : 	{

  00000	55		 push	 ebp
  00001	8b ec		 mov	 ebp, esp
  00003	56		 push	 esi

; 1257 : 		m_RC5.DecryptByte( m_MemPool, m_TempMem, 4 );

  00004	8d 71 28	 lea	 esi, DWORD PTR [ecx+40]
  00007	6a 04		 push	 4
  00009	8d 41 1c	 lea	 eax, DWORD PTR [ecx+28]
  0000c	56		 push	 esi
  0000d	50		 push	 eax
  0000e	83 c1 0c	 add	 ecx, 12			; 0000000cH
  00011	e8 00 00 00 00	 call	 ?DecryptByte@ccddaabb@@QBEXPBDPADH@Z ; ccddaabb::DecryptByte

; 1258 : 		*value = *((DWORD*)m_TempMem);

  00016	8b 06		 mov	 eax, DWORD PTR [esi]
  00018	8b 4d 08	 mov	 ecx, DWORD PTR _value$[ebp]
  0001b	89 01		 mov	 DWORD PTR [ecx], eax
  0001d	5e		 pop	 esi

; 1259 : 	}

  0001e	5d		 pop	 ebp
  0001f	c2 04 00	 ret	 4
?DecryptValueToPool@?$CEncrypt@K@@QAEXPAK@Z ENDP	; CEncrypt<unsigned long>::DecryptValueToPool
_TEXT	ENDS
PUBLIC	?DecryptValueToPool@?$CEncrypt@_N@@QAEXPA_N@Z	; CEncrypt<bool>::DecryptValueToPool
; Function compile flags: /Ogsp
;	COMDAT ?DecryptValueToPool@?$CEncrypt@_N@@QAEXPA_N@Z
_TEXT	SEGMENT
_value$ = 8						; size = 4
?DecryptValueToPool@?$CEncrypt@_N@@QAEXPA_N@Z PROC	; CEncrypt<bool>::DecryptValueToPool, COMDAT
; _this$ = ecx

; 219  : 	{

  00000	55		 push	 ebp
  00001	8b ec		 mov	 ebp, esp
  00003	56		 push	 esi

; 220  : 		m_RC5.DecryptByte( m_MemPool, m_TempMem, 4 );

  00004	8d 71 28	 lea	 esi, DWORD PTR [ecx+40]
  00007	6a 04		 push	 4
  00009	8d 41 1c	 lea	 eax, DWORD PTR [ecx+28]
  0000c	56		 push	 esi
  0000d	50		 push	 eax
  0000e	83 c1 0c	 add	 ecx, 12			; 0000000cH
  00011	e8 00 00 00 00	 call	 ?DecryptByte@ccddaabb@@QBEXPBDPADH@Z ; ccddaabb::DecryptByte

; 221  : 		*value = *((bool*)m_TempMem);

  00016	8a 06		 mov	 al, BYTE PTR [esi]
  00018	8b 4d 08	 mov	 ecx, DWORD PTR _value$[ebp]
  0001b	88 01		 mov	 BYTE PTR [ecx], al
  0001d	5e		 pop	 esi

; 222  : 	}

  0001e	5d		 pop	 ebp
  0001f	c2 04 00	 ret	 4
?DecryptValueToPool@?$CEncrypt@_N@@QAEXPA_N@Z ENDP	; CEncrypt<bool>::DecryptValueToPool
_TEXT	ENDS
EXTRN	__imp_??0exception@std@@QAE@ABV01@@Z:PROC
; Function compile flags: /Ogsp
;	COMDAT ??0bad_alloc@std@@QAE@ABV01@@Z
_TEXT	SEGMENT
___that$ = 8						; size = 4
??0bad_alloc@std@@QAE@ABV01@@Z PROC			; std::bad_alloc::bad_alloc, COMDAT
; _this$ = ecx
  00000	55		 push	 ebp
  00001	8b ec		 mov	 ebp, esp
  00003	56		 push	 esi
  00004	ff 75 08	 push	 DWORD PTR ___that$[ebp]
  00007	8b f1		 mov	 esi, ecx
  00009	ff 15 00 00 00
	00		 call	 DWORD PTR __imp_??0exception@std@@QAE@ABV01@@Z
  0000f	c7 06 00 00 00
	00		 mov	 DWORD PTR [esi], OFFSET ??_7bad_alloc@std@@6B@
  00015	8b c6		 mov	 eax, esi
  00017	5e		 pop	 esi
  00018	5d		 pop	 ebp
  00019	c2 04 00	 ret	 4
??0bad_alloc@std@@QAE@ABV01@@Z ENDP			; std::bad_alloc::bad_alloc
; Function compile flags: /Ogsp
_TEXT	ENDS
;	COMDAT ??_GFindPredicate@@UAEPAXI@Z
_TEXT	SEGMENT
___flags$ = 8						; size = 4
??_GFindPredicate@@UAEPAXI@Z PROC			; FindPredicate::`scalar deleting destructor', COMDAT
; _this$ = ecx
  00000	55		 push	 ebp
  00001	8b ec		 mov	 ebp, esp
  00003	f6 45 08 01	 test	 BYTE PTR ___flags$[ebp], 1
  00007	56		 push	 esi
  00008	8b f1		 mov	 esi, ecx
  0000a	c7 06 00 00 00
	00		 mov	 DWORD PTR [esi], OFFSET ??_7FindPredicate@@6B@
  00010	74 07		 je	 SHORT $LN1@scalar@2
  00012	56		 push	 esi
  00013	e8 00 00 00 00	 call	 ??3@YAXPAX@Z		; operator delete
  00018	59		 pop	 ecx
$LN1@scalar@2:
  00019	8b c6		 mov	 eax, esi
  0001b	5e		 pop	 esi
  0001c	5d		 pop	 ebp
  0001d	c2 04 00	 ret	 4
??_GFindPredicate@@UAEPAXI@Z ENDP			; FindPredicate::`scalar deleting destructor'
; Function compile flags: /Ogsp
_TEXT	ENDS
;	COMDAT ??_GFindListPredicate@@UAEPAXI@Z
_TEXT	SEGMENT
___flags$ = 8						; size = 4
??_GFindListPredicate@@UAEPAXI@Z PROC			; FindListPredicate::`scalar deleting destructor', COMDAT
; _this$ = ecx
  00000	55		 push	 ebp
  00001	8b ec		 mov	 ebp, esp
  00003	f6 45 08 01	 test	 BYTE PTR ___flags$[ebp], 1
  00007	56		 push	 esi
  00008	8b f1		 mov	 esi, ecx
  0000a	c7 06 00 00 00
	00		 mov	 DWORD PTR [esi], OFFSET ??_7FindListPredicate@@6B@
  00010	74 07		 je	 SHORT $LN1@scalar@3
  00012	56		 push	 esi
  00013	e8 00 00 00 00	 call	 ??3@YAXPAX@Z		; operator delete
  00018	59		 pop	 ecx
$LN1@scalar@3:
  00019	8b c6		 mov	 eax, esi
  0001b	5e		 pop	 esi
  0001c	5d		 pop	 ebp
  0001d	c2 04 00	 ret	 4
??_GFindListPredicate@@UAEPAXI@Z ENDP			; FindListPredicate::`scalar deleting destructor'
_TEXT	ENDS
PUBLIC	?begin@?$vector@PAVioBaseChar@@V?$allocator@PAVioBaseChar@@@std@@@std@@QBE?AV?$_Vector_const_iterator@V?$_Vector_val@PAVioBaseChar@@V?$allocator@PAVioBaseChar@@@std@@@std@@@2@XZ ; std::vector<ioBaseChar *,std::allocator<ioBaseChar *> >::begin
; Function compile flags: /Ogsp
; File c:\program files (x86)\microsoft visual studio 10.0\vc\include\vector
;	COMDAT ?begin@?$vector@PAVioBaseChar@@V?$allocator@PAVioBaseChar@@@std@@@std@@QBE?AV?$_Vector_const_iterator@V?$_Vector_val@PAVioBaseChar@@V?$allocator@PAVioBaseChar@@@std@@@std@@@2@XZ
_TEXT	SEGMENT
___$ReturnUdt$ = 8					; size = 4
?begin@?$vector@PAVioBaseChar@@V?$allocator@PAVioBaseChar@@@std@@@std@@QBE?AV?$_Vector_const_iterator@V?$_Vector_val@PAVioBaseChar@@V?$allocator@PAVioBaseChar@@@std@@@std@@@2@XZ PROC ; std::vector<ioBaseChar *,std::allocator<ioBaseChar *> >::begin, COMDAT
; _this$ = ecx

; 786  : 		{	// return iterator for beginning of nonmutable sequence

  00000	55		 push	 ebp
  00001	8b ec		 mov	 ebp, esp

; 787  : 		return (const_iterator(this->_Myfirst, this));

  00003	8b 09		 mov	 ecx, DWORD PTR [ecx]
  00005	8b 45 08	 mov	 eax, DWORD PTR ___$ReturnUdt$[ebp]
  00008	89 08		 mov	 DWORD PTR [eax], ecx

; 788  : 		}

  0000a	5d		 pop	 ebp
  0000b	c2 04 00	 ret	 4
?begin@?$vector@PAVioBaseChar@@V?$allocator@PAVioBaseChar@@@std@@@std@@QBE?AV?$_Vector_const_iterator@V?$_Vector_val@PAVioBaseChar@@V?$allocator@PAVioBaseChar@@@std@@@std@@@2@XZ ENDP ; std::vector<ioBaseChar *,std::allocator<ioBaseChar *> >::begin
_TEXT	ENDS
PUBLIC	?end@?$vector@PAVioBaseChar@@V?$allocator@PAVioBaseChar@@@std@@@std@@QBE?AV?$_Vector_const_iterator@V?$_Vector_val@PAVioBaseChar@@V?$allocator@PAVioBaseChar@@@std@@@std@@@2@XZ ; std::vector<ioBaseChar *,std::allocator<ioBaseChar *> >::end
; Function compile flags: /Ogsp
;	COMDAT ?end@?$vector@PAVioBaseChar@@V?$allocator@PAVioBaseChar@@@std@@@std@@QBE?AV?$_Vector_const_iterator@V?$_Vector_val@PAVioBaseChar@@V?$allocator@PAVioBaseChar@@@std@@@std@@@2@XZ
_TEXT	SEGMENT
___$ReturnUdt$ = 8					; size = 4
?end@?$vector@PAVioBaseChar@@V?$allocator@PAVioBaseChar@@@std@@@std@@QBE?AV?$_Vector_const_iterator@V?$_Vector_val@PAVioBaseChar@@V?$allocator@PAVioBaseChar@@@std@@@std@@@2@XZ PROC ; std::vector<ioBaseChar *,std::allocator<ioBaseChar *> >::end, COMDAT
; _this$ = ecx

; 796  : 		{	// return iterator for end of nonmutable sequence

  00000	55		 push	 ebp
  00001	8b ec		 mov	 ebp, esp

; 797  : 		return (const_iterator(this->_Mylast, this));

  00003	8b 49 04	 mov	 ecx, DWORD PTR [ecx+4]
  00006	8b 45 08	 mov	 eax, DWORD PTR ___$ReturnUdt$[ebp]
  00009	89 08		 mov	 DWORD PTR [eax], ecx

; 798  : 		}

  0000b	5d		 pop	 ebp
  0000c	c2 04 00	 ret	 4
?end@?$vector@PAVioBaseChar@@V?$allocator@PAVioBaseChar@@@std@@@std@@QBE?AV?$_Vector_const_iterator@V?$_Vector_val@PAVioBaseChar@@V?$allocator@PAVioBaseChar@@@std@@@std@@@2@XZ ENDP ; std::vector<ioBaseChar *,std::allocator<ioBaseChar *> >::end
_TEXT	ENDS
PUBLIC	?max_size@?$vector@UCharDistanceSq@FindPredicate@@V?$allocator@UCharDistanceSq@FindPredicate@@@std@@@std@@QBEIXZ ; std::vector<FindPredicate::CharDistanceSq,std::allocator<FindPredicate::CharDistanceSq> >::max_size
; Function compile flags: /Ogsp
;	COMDAT ?max_size@?$vector@UCharDistanceSq@FindPredicate@@V?$allocator@UCharDistanceSq@FindPredicate@@@std@@@std@@QBEIXZ
_TEXT	SEGMENT
?max_size@?$vector@UCharDistanceSq@FindPredicate@@V?$allocator@UCharDistanceSq@FindPredicate@@@std@@@std@@QBEIXZ PROC ; std::vector<FindPredicate::CharDistanceSq,std::allocator<FindPredicate::CharDistanceSq> >::max_size, COMDAT
; _this$ = ecx

; 884  : 		return (this->_Alval.max_size());

  00000	b8 ff ff ff 1f	 mov	 eax, 536870911		; 1fffffffH

; 885  : 		}

  00005	c3		 ret	 0
?max_size@?$vector@UCharDistanceSq@FindPredicate@@V?$allocator@UCharDistanceSq@FindPredicate@@@std@@@std@@QBEIXZ ENDP ; std::vector<FindPredicate::CharDistanceSq,std::allocator<FindPredicate::CharDistanceSq> >::max_size
_TEXT	ENDS
PUBLIC	??0?$_Vector_val@UCharDistanceSq@FindPredicate@@V?$allocator@UCharDistanceSq@FindPredicate@@@std@@@std@@QAE@V?$allocator@UCharDistanceSq@FindPredicate@@@1@@Z ; std::_Vector_val<FindPredicate::CharDistanceSq,std::allocator<FindPredicate::CharDistanceSq> >::_Vector_val<FindPredicate::CharDistanceSq,std::allocator<FindPredicate::CharDistanceSq> >
; Function compile flags: /Ogsp
;	COMDAT ??0?$_Vector_val@UCharDistanceSq@FindPredicate@@V?$allocator@UCharDistanceSq@FindPredicate@@@std@@@std@@QAE@V?$allocator@UCharDistanceSq@FindPredicate@@@1@@Z
_TEXT	SEGMENT
__Al$ = 8						; size = 1
??0?$_Vector_val@UCharDistanceSq@FindPredicate@@V?$allocator@UCharDistanceSq@FindPredicate@@@std@@@std@@QAE@V?$allocator@UCharDistanceSq@FindPredicate@@@1@@Z PROC ; std::_Vector_val<FindPredicate::CharDistanceSq,std::allocator<FindPredicate::CharDistanceSq> >::_Vector_val<FindPredicate::CharDistanceSq,std::allocator<FindPredicate::CharDistanceSq> >, COMDAT
; _this$ = ecx

; 426  : 		{	// construct allocator from _Al

  00000	8b c1		 mov	 eax, ecx

; 427  : 		_Myfirst = 0;

  00002	33 c9		 xor	 ecx, ecx
  00004	89 08		 mov	 DWORD PTR [eax], ecx

; 428  : 		_Mylast = 0;

  00006	89 48 04	 mov	 DWORD PTR [eax+4], ecx

; 429  : 		_Myend = 0;

  00009	89 48 08	 mov	 DWORD PTR [eax+8], ecx

; 430  : 		}

  0000c	c2 04 00	 ret	 4
??0?$_Vector_val@UCharDistanceSq@FindPredicate@@V?$allocator@UCharDistanceSq@FindPredicate@@@std@@@std@@QAE@V?$allocator@UCharDistanceSq@FindPredicate@@@1@@Z ENDP ; std::_Vector_val<FindPredicate::CharDistanceSq,std::allocator<FindPredicate::CharDistanceSq> >::_Vector_val<FindPredicate::CharDistanceSq,std::allocator<FindPredicate::CharDistanceSq> >
_TEXT	ENDS
PUBLIC	?allocate@?$allocator@UCharDistanceSq@FindPredicate@@@std@@QAEPAUCharDistanceSq@FindPredicate@@I@Z ; std::allocator<FindPredicate::CharDistanceSq>::allocate
; Function compile flags: /Ogsp
; File c:\program files (x86)\microsoft visual studio 10.0\vc\include\xmemory
;	COMDAT ?allocate@?$allocator@UCharDistanceSq@FindPredicate@@@std@@QAEPAUCharDistanceSq@FindPredicate@@I@Z
_TEXT	SEGMENT
__Count$ = 8						; size = 4
?allocate@?$allocator@UCharDistanceSq@FindPredicate@@@std@@QAEPAUCharDistanceSq@FindPredicate@@I@Z PROC ; std::allocator<FindPredicate::CharDistanceSq>::allocate, COMDAT
; _this$ = ecx

; 186  : 		{	// allocate array of _Count elements

  00000	55		 push	 ebp
  00001	8b ec		 mov	 ebp, esp

; 187  : 		return (_Allocate(_Count, (pointer)0));

  00003	6a 00		 push	 0
  00005	ff 75 08	 push	 DWORD PTR __Count$[ebp]
  00008	e8 00 00 00 00	 call	 ??$_Allocate@UCharDistanceSq@FindPredicate@@@std@@YAPAUCharDistanceSq@FindPredicate@@IPAU12@@Z ; std::_Allocate<FindPredicate::CharDistanceSq>
  0000d	59		 pop	 ecx
  0000e	59		 pop	 ecx

; 188  : 		}

  0000f	5d		 pop	 ebp
  00010	c2 04 00	 ret	 4
?allocate@?$allocator@UCharDistanceSq@FindPredicate@@@std@@QAEPAUCharDistanceSq@FindPredicate@@I@Z ENDP ; std::allocator<FindPredicate::CharDistanceSq>::allocate
_TEXT	ENDS
PUBLIC	?max_size@?$vector@UCharAngle@FindPredicate@@V?$allocator@UCharAngle@FindPredicate@@@std@@@std@@QBEIXZ ; std::vector<FindPredicate::CharAngle,std::allocator<FindPredicate::CharAngle> >::max_size
; Function compile flags: /Ogsp
; File c:\program files (x86)\microsoft visual studio 10.0\vc\include\vector
;	COMDAT ?max_size@?$vector@UCharAngle@FindPredicate@@V?$allocator@UCharAngle@FindPredicate@@@std@@@std@@QBEIXZ
_TEXT	SEGMENT
?max_size@?$vector@UCharAngle@FindPredicate@@V?$allocator@UCharAngle@FindPredicate@@@std@@@std@@QBEIXZ PROC ; std::vector<FindPredicate::CharAngle,std::allocator<FindPredicate::CharAngle> >::max_size, COMDAT
; _this$ = ecx

; 884  : 		return (this->_Alval.max_size());

  00000	b8 ff ff ff 1f	 mov	 eax, 536870911		; 1fffffffH

; 885  : 		}

  00005	c3		 ret	 0
?max_size@?$vector@UCharAngle@FindPredicate@@V?$allocator@UCharAngle@FindPredicate@@@std@@@std@@QBEIXZ ENDP ; std::vector<FindPredicate::CharAngle,std::allocator<FindPredicate::CharAngle> >::max_size
_TEXT	ENDS
PUBLIC	??0?$_Vector_val@UCharAngle@FindPredicate@@V?$allocator@UCharAngle@FindPredicate@@@std@@@std@@QAE@V?$allocator@UCharAngle@FindPredicate@@@1@@Z ; std::_Vector_val<FindPredicate::CharAngle,std::allocator<FindPredicate::CharAngle> >::_Vector_val<FindPredicate::CharAngle,std::allocator<FindPredicate::CharAngle> >
; Function compile flags: /Ogsp
;	COMDAT ??0?$_Vector_val@UCharAngle@FindPredicate@@V?$allocator@UCharAngle@FindPredicate@@@std@@@std@@QAE@V?$allocator@UCharAngle@FindPredicate@@@1@@Z
_TEXT	SEGMENT
__Al$ = 8						; size = 1
??0?$_Vector_val@UCharAngle@FindPredicate@@V?$allocator@UCharAngle@FindPredicate@@@std@@@std@@QAE@V?$allocator@UCharAngle@FindPredicate@@@1@@Z PROC ; std::_Vector_val<FindPredicate::CharAngle,std::allocator<FindPredicate::CharAngle> >::_Vector_val<FindPredicate::CharAngle,std::allocator<FindPredicate::CharAngle> >, COMDAT
; _this$ = ecx

; 426  : 		{	// construct allocator from _Al

  00000	8b c1		 mov	 eax, ecx

; 427  : 		_Myfirst = 0;

  00002	33 c9		 xor	 ecx, ecx
  00004	89 08		 mov	 DWORD PTR [eax], ecx

; 428  : 		_Mylast = 0;

  00006	89 48 04	 mov	 DWORD PTR [eax+4], ecx

; 429  : 		_Myend = 0;

  00009	89 48 08	 mov	 DWORD PTR [eax+8], ecx

; 430  : 		}

  0000c	c2 04 00	 ret	 4
??0?$_Vector_val@UCharAngle@FindPredicate@@V?$allocator@UCharAngle@FindPredicate@@@std@@@std@@QAE@V?$allocator@UCharAngle@FindPredicate@@@1@@Z ENDP ; std::_Vector_val<FindPredicate::CharAngle,std::allocator<FindPredicate::CharAngle> >::_Vector_val<FindPredicate::CharAngle,std::allocator<FindPredicate::CharAngle> >
_TEXT	ENDS
PUBLIC	?allocate@?$allocator@UCharAngle@FindPredicate@@@std@@QAEPAUCharAngle@FindPredicate@@I@Z ; std::allocator<FindPredicate::CharAngle>::allocate
; Function compile flags: /Ogsp
; File c:\program files (x86)\microsoft visual studio 10.0\vc\include\xmemory
;	COMDAT ?allocate@?$allocator@UCharAngle@FindPredicate@@@std@@QAEPAUCharAngle@FindPredicate@@I@Z
_TEXT	SEGMENT
__Count$ = 8						; size = 4
?allocate@?$allocator@UCharAngle@FindPredicate@@@std@@QAEPAUCharAngle@FindPredicate@@I@Z PROC ; std::allocator<FindPredicate::CharAngle>::allocate, COMDAT
; _this$ = ecx

; 186  : 		{	// allocate array of _Count elements

  00000	55		 push	 ebp
  00001	8b ec		 mov	 ebp, esp

; 187  : 		return (_Allocate(_Count, (pointer)0));

  00003	6a 00		 push	 0
  00005	ff 75 08	 push	 DWORD PTR __Count$[ebp]
  00008	e8 00 00 00 00	 call	 ??$_Allocate@UCharAngle@FindPredicate@@@std@@YAPAUCharAngle@FindPredicate@@IPAU12@@Z ; std::_Allocate<FindPredicate::CharAngle>
  0000d	59		 pop	 ecx
  0000e	59		 pop	 ecx

; 188  : 		}

  0000f	5d		 pop	 ebp
  00010	c2 04 00	 ret	 4
?allocate@?$allocator@UCharAngle@FindPredicate@@@std@@QAEPAUCharAngle@FindPredicate@@I@Z ENDP ; std::allocator<FindPredicate::CharAngle>::allocate
_TEXT	ENDS
PUBLIC	??0?$_Vector_iterator@V?$_Vector_val@UCharDistanceSq@FindPredicate@@V?$allocator@UCharDistanceSq@FindPredicate@@@std@@@std@@@std@@QAE@PAUCharDistanceSq@FindPredicate@@PBU_Container_base0@1@@Z ; std::_Vector_iterator<std::_Vector_val<FindPredicate::CharDistanceSq,std::allocator<FindPredicate::CharDistanceSq> > >::_Vector_iterator<std::_Vector_val<FindPredicate::CharDistanceSq,std::allocator<FindPredicate::CharDistanceSq> > >
; Function compile flags: /Ogsp
; File c:\program files (x86)\microsoft visual studio 10.0\vc\include\vector
;	COMDAT ??0?$_Vector_iterator@V?$_Vector_val@UCharDistanceSq@FindPredicate@@V?$allocator@UCharDistanceSq@FindPredicate@@@std@@@std@@@std@@QAE@PAUCharDistanceSq@FindPredicate@@PBU_Container_base0@1@@Z
_TEXT	SEGMENT
__Parg$ = 8						; size = 4
__Pvector$ = 12						; size = 4
??0?$_Vector_iterator@V?$_Vector_val@UCharDistanceSq@FindPredicate@@V?$allocator@UCharDistanceSq@FindPredicate@@@std@@@std@@@std@@QAE@PAUCharDistanceSq@FindPredicate@@PBU_Container_base0@1@@Z PROC ; std::_Vector_iterator<std::_Vector_val<FindPredicate::CharDistanceSq,std::allocator<FindPredicate::CharDistanceSq> > >::_Vector_iterator<std::_Vector_val<FindPredicate::CharDistanceSq,std::allocator<FindPredicate::CharDistanceSq> > >, COMDAT
; _this$ = ecx

; 304  : 		{	// construct with pointer _Parg

  00000	55		 push	 ebp
  00001	8b ec		 mov	 ebp, esp
  00003	8b c1		 mov	 eax, ecx
  00005	8b 4d 08	 mov	 ecx, DWORD PTR __Parg$[ebp]
  00008	89 08		 mov	 DWORD PTR [eax], ecx

; 305  : 		}

  0000a	5d		 pop	 ebp
  0000b	c2 08 00	 ret	 8
??0?$_Vector_iterator@V?$_Vector_val@UCharDistanceSq@FindPredicate@@V?$allocator@UCharDistanceSq@FindPredicate@@@std@@@std@@@std@@QAE@PAUCharDistanceSq@FindPredicate@@PBU_Container_base0@1@@Z ENDP ; std::_Vector_iterator<std::_Vector_val<FindPredicate::CharDistanceSq,std::allocator<FindPredicate::CharDistanceSq> > >::_Vector_iterator<std::_Vector_val<FindPredicate::CharDistanceSq,std::allocator<FindPredicate::CharDistanceSq> > >
_TEXT	ENDS
PUBLIC	??8?$_Vector_const_iterator@V?$_Vector_val@PAVioBaseChar@@V?$allocator@PAVioBaseChar@@@std@@@std@@@std@@QBE_NABV01@@Z ; std::_Vector_const_iterator<std::_Vector_val<ioBaseChar *,std::allocator<ioBaseChar *> > >::operator==
; Function compile flags: /Ogsp
;	COMDAT ??8?$_Vector_const_iterator@V?$_Vector_val@PAVioBaseChar@@V?$allocator@PAVioBaseChar@@@std@@@std@@@std@@QBE_NABV01@@Z
_TEXT	SEGMENT
__Right$ = 8						; size = 4
??8?$_Vector_const_iterator@V?$_Vector_val@PAVioBaseChar@@V?$allocator@PAVioBaseChar@@@std@@@std@@@std@@QBE_NABV01@@Z PROC ; std::_Vector_const_iterator<std::_Vector_val<ioBaseChar *,std::allocator<ioBaseChar *> > >::operator==, COMDAT
; _this$ = ecx

; 201  : 		{	// test for iterator equality

  00000	55		 push	 ebp
  00001	8b ec		 mov	 ebp, esp

; 202  : 		_Compat(_Right);
; 203  : 		return (this->_Ptr == _Right._Ptr);

  00003	8b 01		 mov	 eax, DWORD PTR [ecx]
  00005	8b 4d 08	 mov	 ecx, DWORD PTR __Right$[ebp]
  00008	2b 01		 sub	 eax, DWORD PTR [ecx]
  0000a	f7 d8		 neg	 eax
  0000c	1b c0		 sbb	 eax, eax
  0000e	40		 inc	 eax

; 204  : 		}

  0000f	5d		 pop	 ebp
  00010	c2 04 00	 ret	 4
??8?$_Vector_const_iterator@V?$_Vector_val@PAVioBaseChar@@V?$allocator@PAVioBaseChar@@@std@@@std@@@std@@QBE_NABV01@@Z ENDP ; std::_Vector_const_iterator<std::_Vector_val<ioBaseChar *,std::allocator<ioBaseChar *> > >::operator==
_TEXT	ENDS
PUBLIC	??0?$_Vector_iterator@V?$_Vector_val@UCharAngle@FindPredicate@@V?$allocator@UCharAngle@FindPredicate@@@std@@@std@@@std@@QAE@PAUCharAngle@FindPredicate@@PBU_Container_base0@1@@Z ; std::_Vector_iterator<std::_Vector_val<FindPredicate::CharAngle,std::allocator<FindPredicate::CharAngle> > >::_Vector_iterator<std::_Vector_val<FindPredicate::CharAngle,std::allocator<FindPredicate::CharAngle> > >
; Function compile flags: /Ogsp
;	COMDAT ??0?$_Vector_iterator@V?$_Vector_val@UCharAngle@FindPredicate@@V?$allocator@UCharAngle@FindPredicate@@@std@@@std@@@std@@QAE@PAUCharAngle@FindPredicate@@PBU_Container_base0@1@@Z
_TEXT	SEGMENT
__Parg$ = 8						; size = 4
__Pvector$ = 12						; size = 4
??0?$_Vector_iterator@V?$_Vector_val@UCharAngle@FindPredicate@@V?$allocator@UCharAngle@FindPredicate@@@std@@@std@@@std@@QAE@PAUCharAngle@FindPredicate@@PBU_Container_base0@1@@Z PROC ; std::_Vector_iterator<std::_Vector_val<FindPredicate::CharAngle,std::allocator<FindPredicate::CharAngle> > >::_Vector_iterator<std::_Vector_val<FindPredicate::CharAngle,std::allocator<FindPredicate::CharAngle> > >, COMDAT
; _this$ = ecx

; 304  : 		{	// construct with pointer _Parg

  00000	55		 push	 ebp
  00001	8b ec		 mov	 ebp, esp
  00003	8b c1		 mov	 eax, ecx
  00005	8b 4d 08	 mov	 ecx, DWORD PTR __Parg$[ebp]
  00008	89 08		 mov	 DWORD PTR [eax], ecx

; 305  : 		}

  0000a	5d		 pop	 ebp
  0000b	c2 08 00	 ret	 8
??0?$_Vector_iterator@V?$_Vector_val@UCharAngle@FindPredicate@@V?$allocator@UCharAngle@FindPredicate@@@std@@@std@@@std@@QAE@PAUCharAngle@FindPredicate@@PBU_Container_base0@1@@Z ENDP ; std::_Vector_iterator<std::_Vector_val<FindPredicate::CharAngle,std::allocator<FindPredicate::CharAngle> > >::_Vector_iterator<std::_Vector_val<FindPredicate::CharAngle,std::allocator<FindPredicate::CharAngle> > >
_TEXT	ENDS
PUBLIC	?_Grow_to@?$vector@UCharDistanceSq@FindPredicate@@V?$allocator@UCharDistanceSq@FindPredicate@@@std@@@std@@IBEII@Z ; std::vector<FindPredicate::CharDistanceSq,std::allocator<FindPredicate::CharDistanceSq> >::_Grow_to
; Function compile flags: /Ogsp
;	COMDAT ?_Grow_to@?$vector@UCharDistanceSq@FindPredicate@@V?$allocator@UCharDistanceSq@FindPredicate@@@std@@@std@@IBEII@Z
_TEXT	SEGMENT
__Count$ = 8						; size = 4
?_Grow_to@?$vector@UCharDistanceSq@FindPredicate@@V?$allocator@UCharDistanceSq@FindPredicate@@@std@@@std@@IBEII@Z PROC ; std::vector<FindPredicate::CharDistanceSq,std::allocator<FindPredicate::CharDistanceSq> >::_Grow_to, COMDAT
; _this$ = ecx

; 1274 : 		{	// grow by 50% or at least to _Count

  00000	55		 push	 ebp
  00001	8b ec		 mov	 ebp, esp

; 1275 : 		size_type _Capacity = capacity();

  00003	8b 41 08	 mov	 eax, DWORD PTR [ecx+8]
  00006	2b 01		 sub	 eax, DWORD PTR [ecx]

; 1276 : 
; 1277 : 		_Capacity = max_size() - _Capacity / 2 < _Capacity
; 1278 : 			? 0 : _Capacity + _Capacity / 2;	// try to grow by 50%

  00008	ba ff ff ff 1f	 mov	 edx, 536870911		; 1fffffffH
  0000d	c1 f8 03	 sar	 eax, 3
  00010	8b c8		 mov	 ecx, eax
  00012	d1 e9		 shr	 ecx, 1
  00014	2b d1		 sub	 edx, ecx
  00016	3b d0		 cmp	 edx, eax
  00018	73 04		 jae	 SHORT $LN4@Grow_to
  0001a	33 c0		 xor	 eax, eax
  0001c	eb 02		 jmp	 SHORT $LN5@Grow_to
$LN4@Grow_to:
  0001e	03 c1		 add	 eax, ecx
$LN5@Grow_to:

; 1279 : 		if (_Capacity < _Count)

  00020	3b 45 08	 cmp	 eax, DWORD PTR __Count$[ebp]

; 1280 : 			_Capacity = _Count;

  00023	0f 42 45 08	 cmovb	 eax, DWORD PTR __Count$[ebp]

; 1281 : 		return (_Capacity);
; 1282 : 		}

  00027	5d		 pop	 ebp
  00028	c2 04 00	 ret	 4
?_Grow_to@?$vector@UCharDistanceSq@FindPredicate@@V?$allocator@UCharDistanceSq@FindPredicate@@@std@@@std@@IBEII@Z ENDP ; std::vector<FindPredicate::CharDistanceSq,std::allocator<FindPredicate::CharDistanceSq> >::_Grow_to
_TEXT	ENDS
PUBLIC	?_Grow_to@?$vector@UCharAngle@FindPredicate@@V?$allocator@UCharAngle@FindPredicate@@@std@@@std@@IBEII@Z ; std::vector<FindPredicate::CharAngle,std::allocator<FindPredicate::CharAngle> >::_Grow_to
; Function compile flags: /Ogsp
;	COMDAT ?_Grow_to@?$vector@UCharAngle@FindPredicate@@V?$allocator@UCharAngle@FindPredicate@@@std@@@std@@IBEII@Z
_TEXT	SEGMENT
__Count$ = 8						; size = 4
?_Grow_to@?$vector@UCharAngle@FindPredicate@@V?$allocator@UCharAngle@FindPredicate@@@std@@@std@@IBEII@Z PROC ; std::vector<FindPredicate::CharAngle,std::allocator<FindPredicate::CharAngle> >::_Grow_to, COMDAT
; _this$ = ecx

; 1274 : 		{	// grow by 50% or at least to _Count

  00000	55		 push	 ebp
  00001	8b ec		 mov	 ebp, esp

; 1275 : 		size_type _Capacity = capacity();

  00003	8b 41 08	 mov	 eax, DWORD PTR [ecx+8]
  00006	2b 01		 sub	 eax, DWORD PTR [ecx]

; 1276 : 
; 1277 : 		_Capacity = max_size() - _Capacity / 2 < _Capacity
; 1278 : 			? 0 : _Capacity + _Capacity / 2;	// try to grow by 50%

  00008	ba ff ff ff 1f	 mov	 edx, 536870911		; 1fffffffH
  0000d	c1 f8 03	 sar	 eax, 3
  00010	8b c8		 mov	 ecx, eax
  00012	d1 e9		 shr	 ecx, 1
  00014	2b d1		 sub	 edx, ecx
  00016	3b d0		 cmp	 edx, eax
  00018	73 04		 jae	 SHORT $LN4@Grow_to@2
  0001a	33 c0		 xor	 eax, eax
  0001c	eb 02		 jmp	 SHORT $LN5@Grow_to@2
$LN4@Grow_to@2:
  0001e	03 c1		 add	 eax, ecx
$LN5@Grow_to@2:

; 1279 : 		if (_Capacity < _Count)

  00020	3b 45 08	 cmp	 eax, DWORD PTR __Count$[ebp]

; 1280 : 			_Capacity = _Count;

  00023	0f 42 45 08	 cmovb	 eax, DWORD PTR __Count$[ebp]

; 1281 : 		return (_Capacity);
; 1282 : 		}

  00027	5d		 pop	 ebp
  00028	c2 04 00	 ret	 4
?_Grow_to@?$vector@UCharAngle@FindPredicate@@V?$allocator@UCharAngle@FindPredicate@@@std@@@std@@IBEII@Z ENDP ; std::vector<FindPredicate::CharAngle,std::allocator<FindPredicate::CharAngle> >::_Grow_to
_TEXT	ENDS
PUBLIC	??8?$_Vector_const_iterator@V?$_Vector_val@UCharDistanceSq@FindPredicate@@V?$allocator@UCharDistanceSq@FindPredicate@@@std@@@std@@@std@@QBE_NABV01@@Z ; std::_Vector_const_iterator<std::_Vector_val<FindPredicate::CharDistanceSq,std::allocator<FindPredicate::CharDistanceSq> > >::operator==
; Function compile flags: /Ogsp
;	COMDAT ??8?$_Vector_const_iterator@V?$_Vector_val@UCharDistanceSq@FindPredicate@@V?$allocator@UCharDistanceSq@FindPredicate@@@std@@@std@@@std@@QBE_NABV01@@Z
_TEXT	SEGMENT
__Right$ = 8						; size = 4
??8?$_Vector_const_iterator@V?$_Vector_val@UCharDistanceSq@FindPredicate@@V?$allocator@UCharDistanceSq@FindPredicate@@@std@@@std@@@std@@QBE_NABV01@@Z PROC ; std::_Vector_const_iterator<std::_Vector_val<FindPredicate::CharDistanceSq,std::allocator<FindPredicate::CharDistanceSq> > >::operator==, COMDAT
; _this$ = ecx

; 201  : 		{	// test for iterator equality

  00000	55		 push	 ebp
  00001	8b ec		 mov	 ebp, esp

; 202  : 		_Compat(_Right);
; 203  : 		return (this->_Ptr == _Right._Ptr);

  00003	8b 01		 mov	 eax, DWORD PTR [ecx]
  00005	8b 4d 08	 mov	 ecx, DWORD PTR __Right$[ebp]
  00008	2b 01		 sub	 eax, DWORD PTR [ecx]
  0000a	f7 d8		 neg	 eax
  0000c	1b c0		 sbb	 eax, eax
  0000e	40		 inc	 eax

; 204  : 		}

  0000f	5d		 pop	 ebp
  00010	c2 04 00	 ret	 4
??8?$_Vector_const_iterator@V?$_Vector_val@UCharDistanceSq@FindPredicate@@V?$allocator@UCharDistanceSq@FindPredicate@@@std@@@std@@@std@@QBE_NABV01@@Z ENDP ; std::_Vector_const_iterator<std::_Vector_val<FindPredicate::CharDistanceSq,std::allocator<FindPredicate::CharDistanceSq> > >::operator==
_TEXT	ENDS
PUBLIC	??8?$_Vector_const_iterator@V?$_Vector_val@UCharAngle@FindPredicate@@V?$allocator@UCharAngle@FindPredicate@@@std@@@std@@@std@@QBE_NABV01@@Z ; std::_Vector_const_iterator<std::_Vector_val<FindPredicate::CharAngle,std::allocator<FindPredicate::CharAngle> > >::operator==
; Function compile flags: /Ogsp
;	COMDAT ??8?$_Vector_const_iterator@V?$_Vector_val@UCharAngle@FindPredicate@@V?$allocator@UCharAngle@FindPredicate@@@std@@@std@@@std@@QBE_NABV01@@Z
_TEXT	SEGMENT
__Right$ = 8						; size = 4
??8?$_Vector_const_iterator@V?$_Vector_val@UCharAngle@FindPredicate@@V?$allocator@UCharAngle@FindPredicate@@@std@@@std@@@std@@QBE_NABV01@@Z PROC ; std::_Vector_const_iterator<std::_Vector_val<FindPredicate::CharAngle,std::allocator<FindPredicate::CharAngle> > >::operator==, COMDAT
; _this$ = ecx

; 201  : 		{	// test for iterator equality

  00000	55		 push	 ebp
  00001	8b ec		 mov	 ebp, esp

; 202  : 		_Compat(_Right);
; 203  : 		return (this->_Ptr == _Right._Ptr);

  00003	8b 01		 mov	 eax, DWORD PTR [ecx]
  00005	8b 4d 08	 mov	 ecx, DWORD PTR __Right$[ebp]
  00008	2b 01		 sub	 eax, DWORD PTR [ecx]
  0000a	f7 d8		 neg	 eax
  0000c	1b c0		 sbb	 eax, eax
  0000e	40		 inc	 eax

; 204  : 		}

  0000f	5d		 pop	 ebp
  00010	c2 04 00	 ret	 4
??8?$_Vector_const_iterator@V?$_Vector_val@UCharAngle@FindPredicate@@V?$allocator@UCharAngle@FindPredicate@@@std@@@std@@@std@@QBE_NABV01@@Z ENDP ; std::_Vector_const_iterator<std::_Vector_val<FindPredicate::CharAngle,std::allocator<FindPredicate::CharAngle> > >::operator==
_TEXT	ENDS
PUBLIC	??$_Cons_val@V?$allocator@UCharDistanceSq@FindPredicate@@@std@@UCharDistanceSq@FindPredicate@@AAU34@@std@@YAXAAV?$allocator@UCharDistanceSq@FindPredicate@@@0@PAUCharDistanceSq@FindPredicate@@AAU23@@Z ; std::_Cons_val<std::allocator<FindPredicate::CharDistanceSq>,FindPredicate::CharDistanceSq,FindPredicate::CharDistanceSq &>
; Function compile flags: /Ogsp
; File c:\program files (x86)\microsoft visual studio 10.0\vc\include\xmemory
;	COMDAT ??$_Cons_val@V?$allocator@UCharDistanceSq@FindPredicate@@@std@@UCharDistanceSq@FindPredicate@@AAU34@@std@@YAXAAV?$allocator@UCharDistanceSq@FindPredicate@@@0@PAUCharDistanceSq@FindPredicate@@AAU23@@Z
_TEXT	SEGMENT
__Alval$ = 8						; size = 4
__Pdest$ = 12						; size = 4
__Src$ = 16						; size = 4
??$_Cons_val@V?$allocator@UCharDistanceSq@FindPredicate@@@std@@UCharDistanceSq@FindPredicate@@AAU34@@std@@YAXAAV?$allocator@UCharDistanceSq@FindPredicate@@@0@PAUCharDistanceSq@FindPredicate@@AAU23@@Z PROC ; std::_Cons_val<std::allocator<FindPredicate::CharDistanceSq>,FindPredicate::CharDistanceSq,FindPredicate::CharDistanceSq &>, COMDAT

; 279  : 	{	// construct using allocator

  00000	55		 push	 ebp
  00001	8b ec		 mov	 ebp, esp

; 280  : 	_Alval.construct(_Pdest, _STD forward<_Ty2>(_Src));

  00003	8b 45 0c	 mov	 eax, DWORD PTR __Pdest$[ebp]
  00006	85 c0		 test	 eax, eax
  00008	74 0d		 je	 SHORT $LN7@Cons_val
  0000a	8b 4d 10	 mov	 ecx, DWORD PTR __Src$[ebp]
  0000d	8b 11		 mov	 edx, DWORD PTR [ecx]
  0000f	89 10		 mov	 DWORD PTR [eax], edx
  00011	8b 49 04	 mov	 ecx, DWORD PTR [ecx+4]
  00014	89 48 04	 mov	 DWORD PTR [eax+4], ecx
$LN7@Cons_val:

; 281  : 	}

  00017	5d		 pop	 ebp
  00018	c3		 ret	 0
??$_Cons_val@V?$allocator@UCharDistanceSq@FindPredicate@@@std@@UCharDistanceSq@FindPredicate@@AAU34@@std@@YAXAAV?$allocator@UCharDistanceSq@FindPredicate@@@0@PAUCharDistanceSq@FindPredicate@@AAU23@@Z ENDP ; std::_Cons_val<std::allocator<FindPredicate::CharDistanceSq>,FindPredicate::CharDistanceSq,FindPredicate::CharDistanceSq &>
_TEXT	ENDS
PUBLIC	??$_Cons_val@V?$allocator@UCharAngle@FindPredicate@@@std@@UCharAngle@FindPredicate@@AAU34@@std@@YAXAAV?$allocator@UCharAngle@FindPredicate@@@0@PAUCharAngle@FindPredicate@@AAU23@@Z ; std::_Cons_val<std::allocator<FindPredicate::CharAngle>,FindPredicate::CharAngle,FindPredicate::CharAngle &>
; Function compile flags: /Ogsp
;	COMDAT ??$_Cons_val@V?$allocator@UCharAngle@FindPredicate@@@std@@UCharAngle@FindPredicate@@AAU34@@std@@YAXAAV?$allocator@UCharAngle@FindPredicate@@@0@PAUCharAngle@FindPredicate@@AAU23@@Z
_TEXT	SEGMENT
__Alval$ = 8						; size = 4
__Pdest$ = 12						; size = 4
__Src$ = 16						; size = 4
??$_Cons_val@V?$allocator@UCharAngle@FindPredicate@@@std@@UCharAngle@FindPredicate@@AAU34@@std@@YAXAAV?$allocator@UCharAngle@FindPredicate@@@0@PAUCharAngle@FindPredicate@@AAU23@@Z PROC ; std::_Cons_val<std::allocator<FindPredicate::CharAngle>,FindPredicate::CharAngle,FindPredicate::CharAngle &>, COMDAT

; 279  : 	{	// construct using allocator

  00000	55		 push	 ebp
  00001	8b ec		 mov	 ebp, esp

; 280  : 	_Alval.construct(_Pdest, _STD forward<_Ty2>(_Src));

  00003	8b 45 0c	 mov	 eax, DWORD PTR __Pdest$[ebp]
  00006	85 c0		 test	 eax, eax
  00008	74 0d		 je	 SHORT $LN7@Cons_val@2
  0000a	8b 4d 10	 mov	 ecx, DWORD PTR __Src$[ebp]
  0000d	8b 11		 mov	 edx, DWORD PTR [ecx]
  0000f	89 10		 mov	 DWORD PTR [eax], edx
  00011	8b 49 04	 mov	 ecx, DWORD PTR [ecx+4]
  00014	89 48 04	 mov	 DWORD PTR [eax+4], ecx
$LN7@Cons_val@2:

; 281  : 	}

  00017	5d		 pop	 ebp
  00018	c3		 ret	 0
??$_Cons_val@V?$allocator@UCharAngle@FindPredicate@@@std@@UCharAngle@FindPredicate@@AAU34@@std@@YAXAAV?$allocator@UCharAngle@FindPredicate@@@0@PAUCharAngle@FindPredicate@@AAU23@@Z ENDP ; std::_Cons_val<std::allocator<FindPredicate::CharAngle>,FindPredicate::CharAngle,FindPredicate::CharAngle &>
_TEXT	ENDS
PUBLIC	?construct@?$allocator@UCharDistanceSq@FindPredicate@@@std@@QAEXPAUCharDistanceSq@FindPredicate@@ABU34@@Z ; std::allocator<FindPredicate::CharDistanceSq>::construct
; Function compile flags: /Ogsp
;	COMDAT ?construct@?$allocator@UCharDistanceSq@FindPredicate@@@std@@QAEXPAUCharDistanceSq@FindPredicate@@ABU34@@Z
_TEXT	SEGMENT
__Ptr$ = 8						; size = 4
__Val$ = 12						; size = 4
?construct@?$allocator@UCharDistanceSq@FindPredicate@@@std@@QAEXPAUCharDistanceSq@FindPredicate@@ABU34@@Z PROC ; std::allocator<FindPredicate::CharDistanceSq>::construct, COMDAT
; _this$ = ecx

; 196  : 		{	// construct object at _Ptr with value _Val

  00000	55		 push	 ebp
  00001	8b ec		 mov	 ebp, esp

; 197  : 		_Construct(_Ptr, _Val);

  00003	8b 45 08	 mov	 eax, DWORD PTR __Ptr$[ebp]
  00006	85 c0		 test	 eax, eax
  00008	74 0d		 je	 SHORT $LN5@construct@3
  0000a	8b 4d 0c	 mov	 ecx, DWORD PTR __Val$[ebp]
  0000d	8b 11		 mov	 edx, DWORD PTR [ecx]
  0000f	89 10		 mov	 DWORD PTR [eax], edx
  00011	8b 49 04	 mov	 ecx, DWORD PTR [ecx+4]
  00014	89 48 04	 mov	 DWORD PTR [eax+4], ecx
$LN5@construct@3:

; 198  : 		}

  00017	5d		 pop	 ebp
  00018	c2 08 00	 ret	 8
?construct@?$allocator@UCharDistanceSq@FindPredicate@@@std@@QAEXPAUCharDistanceSq@FindPredicate@@ABU34@@Z ENDP ; std::allocator<FindPredicate::CharDistanceSq>::construct
_TEXT	ENDS
PUBLIC	?construct@?$allocator@UCharAngle@FindPredicate@@@std@@QAEXPAUCharAngle@FindPredicate@@ABU34@@Z ; std::allocator<FindPredicate::CharAngle>::construct
; Function compile flags: /Ogsp
;	COMDAT ?construct@?$allocator@UCharAngle@FindPredicate@@@std@@QAEXPAUCharAngle@FindPredicate@@ABU34@@Z
_TEXT	SEGMENT
__Ptr$ = 8						; size = 4
__Val$ = 12						; size = 4
?construct@?$allocator@UCharAngle@FindPredicate@@@std@@QAEXPAUCharAngle@FindPredicate@@ABU34@@Z PROC ; std::allocator<FindPredicate::CharAngle>::construct, COMDAT
; _this$ = ecx

; 196  : 		{	// construct object at _Ptr with value _Val

  00000	55		 push	 ebp
  00001	8b ec		 mov	 ebp, esp

; 197  : 		_Construct(_Ptr, _Val);

  00003	8b 45 08	 mov	 eax, DWORD PTR __Ptr$[ebp]
  00006	85 c0		 test	 eax, eax
  00008	74 0d		 je	 SHORT $LN5@construct@4
  0000a	8b 4d 0c	 mov	 ecx, DWORD PTR __Val$[ebp]
  0000d	8b 11		 mov	 edx, DWORD PTR [ecx]
  0000f	89 10		 mov	 DWORD PTR [eax], edx
  00011	8b 49 04	 mov	 ecx, DWORD PTR [ecx+4]
  00014	89 48 04	 mov	 DWORD PTR [eax+4], ecx
$LN5@construct@4:

; 198  : 		}

  00017	5d		 pop	 ebp
  00018	c2 08 00	 ret	 8
?construct@?$allocator@UCharAngle@FindPredicate@@@std@@QAEXPAUCharAngle@FindPredicate@@ABU34@@Z ENDP ; std::allocator<FindPredicate::CharAngle>::construct
_TEXT	ENDS
PUBLIC	??G?$_Vector_iterator@V?$_Vector_val@UCharDistanceSq@FindPredicate@@V?$allocator@UCharDistanceSq@FindPredicate@@@std@@@std@@@std@@QBEHABV?$_Vector_const_iterator@V?$_Vector_val@UCharDistanceSq@FindPredicate@@V?$allocator@UCharDistanceSq@FindPredicate@@@std@@@std@@@1@@Z ; std::_Vector_iterator<std::_Vector_val<FindPredicate::CharDistanceSq,std::allocator<FindPredicate::CharDistanceSq> > >::operator-
; Function compile flags: /Ogsp
; File c:\program files (x86)\microsoft visual studio 10.0\vc\include\vector
;	COMDAT ??G?$_Vector_iterator@V?$_Vector_val@UCharDistanceSq@FindPredicate@@V?$allocator@UCharDistanceSq@FindPredicate@@@std@@@std@@@std@@QBEHABV?$_Vector_const_iterator@V?$_Vector_val@UCharDistanceSq@FindPredicate@@V?$allocator@UCharDistanceSq@FindPredicate@@@std@@@std@@@1@@Z
_TEXT	SEGMENT
__Right$ = 8						; size = 4
??G?$_Vector_iterator@V?$_Vector_val@UCharDistanceSq@FindPredicate@@V?$allocator@UCharDistanceSq@FindPredicate@@@std@@@std@@@std@@QBEHABV?$_Vector_const_iterator@V?$_Vector_val@UCharDistanceSq@FindPredicate@@V?$allocator@UCharDistanceSq@FindPredicate@@@std@@@std@@@1@@Z PROC ; std::_Vector_iterator<std::_Vector_val<FindPredicate::CharDistanceSq,std::allocator<FindPredicate::CharDistanceSq> > >::operator-, COMDAT
; _this$ = ecx

; 380  : 		{	// return difference of iterators

  00000	55		 push	 ebp
  00001	8b ec		 mov	 ebp, esp

; 381  : 		return (*(_Mybase *)this - _Right);

  00003	8b 01		 mov	 eax, DWORD PTR [ecx]
  00005	8b 4d 08	 mov	 ecx, DWORD PTR __Right$[ebp]
  00008	2b 01		 sub	 eax, DWORD PTR [ecx]
  0000a	c1 f8 03	 sar	 eax, 3

; 382  : 		}

  0000d	5d		 pop	 ebp
  0000e	c2 04 00	 ret	 4
??G?$_Vector_iterator@V?$_Vector_val@UCharDistanceSq@FindPredicate@@V?$allocator@UCharDistanceSq@FindPredicate@@@std@@@std@@@std@@QBEHABV?$_Vector_const_iterator@V?$_Vector_val@UCharDistanceSq@FindPredicate@@V?$allocator@UCharDistanceSq@FindPredicate@@@std@@@std@@@1@@Z ENDP ; std::_Vector_iterator<std::_Vector_val<FindPredicate::CharDistanceSq,std::allocator<FindPredicate::CharDistanceSq> > >::operator-
_TEXT	ENDS
PUBLIC	??G?$_Vector_iterator@V?$_Vector_val@UCharAngle@FindPredicate@@V?$allocator@UCharAngle@FindPredicate@@@std@@@std@@@std@@QBEHABV?$_Vector_const_iterator@V?$_Vector_val@UCharAngle@FindPredicate@@V?$allocator@UCharAngle@FindPredicate@@@std@@@std@@@1@@Z ; std::_Vector_iterator<std::_Vector_val<FindPredicate::CharAngle,std::allocator<FindPredicate::CharAngle> > >::operator-
; Function compile flags: /Ogsp
;	COMDAT ??G?$_Vector_iterator@V?$_Vector_val@UCharAngle@FindPredicate@@V?$allocator@UCharAngle@FindPredicate@@@std@@@std@@@std@@QBEHABV?$_Vector_const_iterator@V?$_Vector_val@UCharAngle@FindPredicate@@V?$allocator@UCharAngle@FindPredicate@@@std@@@std@@@1@@Z
_TEXT	SEGMENT
__Right$ = 8						; size = 4
??G?$_Vector_iterator@V?$_Vector_val@UCharAngle@FindPredicate@@V?$allocator@UCharAngle@FindPredicate@@@std@@@std@@@std@@QBEHABV?$_Vector_const_iterator@V?$_Vector_val@UCharAngle@FindPredicate@@V?$allocator@UCharAngle@FindPredicate@@@std@@@std@@@1@@Z PROC ; std::_Vector_iterator<std::_Vector_val<FindPredicate::CharAngle,std::allocator<FindPredicate::CharAngle> > >::operator-, COMDAT
; _this$ = ecx

; 380  : 		{	// return difference of iterators

  00000	55		 push	 ebp
  00001	8b ec		 mov	 ebp, esp

; 381  : 		return (*(_Mybase *)this - _Right);

  00003	8b 01		 mov	 eax, DWORD PTR [ecx]
  00005	8b 4d 08	 mov	 ecx, DWORD PTR __Right$[ebp]
  00008	2b 01		 sub	 eax, DWORD PTR [ecx]
  0000a	c1 f8 03	 sar	 eax, 3

; 382  : 		}

  0000d	5d		 pop	 ebp
  0000e	c2 04 00	 ret	 4
??G?$_Vector_iterator@V?$_Vector_val@UCharAngle@FindPredicate@@V?$allocator@UCharAngle@FindPredicate@@@std@@@std@@@std@@QBEHABV?$_Vector_const_iterator@V?$_Vector_val@UCharAngle@FindPredicate@@V?$allocator@UCharAngle@FindPredicate@@@std@@@std@@@1@@Z ENDP ; std::_Vector_iterator<std::_Vector_val<FindPredicate::CharAngle,std::allocator<FindPredicate::CharAngle> > >::operator-
_TEXT	ENDS
PUBLIC	??$_Unchecked@V?$_Vector_val@UCharDistanceSq@FindPredicate@@V?$allocator@UCharDistanceSq@FindPredicate@@@std@@@std@@@std@@YAPAUCharDistanceSq@FindPredicate@@V?$_Vector_iterator@V?$_Vector_val@UCharDistanceSq@FindPredicate@@V?$allocator@UCharDistanceSq@FindPredicate@@@std@@@std@@@0@@Z ; std::_Unchecked<std::_Vector_val<FindPredicate::CharDistanceSq,std::allocator<FindPredicate::CharDistanceSq> > >
; Function compile flags: /Ogsp
;	COMDAT ??$_Unchecked@V?$_Vector_val@UCharDistanceSq@FindPredicate@@V?$allocator@UCharDistanceSq@FindPredicate@@@std@@@std@@@std@@YAPAUCharDistanceSq@FindPredicate@@V?$_Vector_iterator@V?$_Vector_val@UCharDistanceSq@FindPredicate@@V?$allocator@UCharDistanceSq@FindPredicate@@@std@@@std@@@0@@Z
_TEXT	SEGMENT
__Iter$ = 8						; size = 4
??$_Unchecked@V?$_Vector_val@UCharDistanceSq@FindPredicate@@V?$allocator@UCharDistanceSq@FindPredicate@@@std@@@std@@@std@@YAPAUCharDistanceSq@FindPredicate@@V?$_Vector_iterator@V?$_Vector_val@UCharDistanceSq@FindPredicate@@V?$allocator@UCharDistanceSq@FindPredicate@@@std@@@std@@@0@@Z PROC ; std::_Unchecked<std::_Vector_val<FindPredicate::CharDistanceSq,std::allocator<FindPredicate::CharDistanceSq> > >, COMDAT

; 393  : 	{	// convert to unchecked

  00000	55		 push	 ebp
  00001	8b ec		 mov	 ebp, esp

; 394  : 	return (_Iter._Unchecked());

  00003	8b 45 08	 mov	 eax, DWORD PTR __Iter$[ebp]

; 395  : 	}

  00006	5d		 pop	 ebp
  00007	c3		 ret	 0
??$_Unchecked@V?$_Vector_val@UCharDistanceSq@FindPredicate@@V?$allocator@UCharDistanceSq@FindPredicate@@@std@@@std@@@std@@YAPAUCharDistanceSq@FindPredicate@@V?$_Vector_iterator@V?$_Vector_val@UCharDistanceSq@FindPredicate@@V?$allocator@UCharDistanceSq@FindPredicate@@@std@@@std@@@0@@Z ENDP ; std::_Unchecked<std::_Vector_val<FindPredicate::CharDistanceSq,std::allocator<FindPredicate::CharDistanceSq> > >
_TEXT	ENDS
PUBLIC	??$_Unchecked@V?$_Vector_val@UCharAngle@FindPredicate@@V?$allocator@UCharAngle@FindPredicate@@@std@@@std@@@std@@YAPAUCharAngle@FindPredicate@@V?$_Vector_iterator@V?$_Vector_val@UCharAngle@FindPredicate@@V?$allocator@UCharAngle@FindPredicate@@@std@@@std@@@0@@Z ; std::_Unchecked<std::_Vector_val<FindPredicate::CharAngle,std::allocator<FindPredicate::CharAngle> > >
; Function compile flags: /Ogsp
;	COMDAT ??$_Unchecked@V?$_Vector_val@UCharAngle@FindPredicate@@V?$allocator@UCharAngle@FindPredicate@@@std@@@std@@@std@@YAPAUCharAngle@FindPredicate@@V?$_Vector_iterator@V?$_Vector_val@UCharAngle@FindPredicate@@V?$allocator@UCharAngle@FindPredicate@@@std@@@std@@@0@@Z
_TEXT	SEGMENT
__Iter$ = 8						; size = 4
??$_Unchecked@V?$_Vector_val@UCharAngle@FindPredicate@@V?$allocator@UCharAngle@FindPredicate@@@std@@@std@@@std@@YAPAUCharAngle@FindPredicate@@V?$_Vector_iterator@V?$_Vector_val@UCharAngle@FindPredicate@@V?$allocator@UCharAngle@FindPredicate@@@std@@@std@@@0@@Z PROC ; std::_Unchecked<std::_Vector_val<FindPredicate::CharAngle,std::allocator<FindPredicate::CharAngle> > >, COMDAT

; 393  : 	{	// convert to unchecked

  00000	55		 push	 ebp
  00001	8b ec		 mov	 ebp, esp

; 394  : 	return (_Iter._Unchecked());

  00003	8b 45 08	 mov	 eax, DWORD PTR __Iter$[ebp]

; 395  : 	}

  00006	5d		 pop	 ebp
  00007	c3		 ret	 0
??$_Unchecked@V?$_Vector_val@UCharAngle@FindPredicate@@V?$allocator@UCharAngle@FindPredicate@@@std@@@std@@@std@@YAPAUCharAngle@FindPredicate@@V?$_Vector_iterator@V?$_Vector_val@UCharAngle@FindPredicate@@V?$allocator@UCharAngle@FindPredicate@@@std@@@std@@@0@@Z ENDP ; std::_Unchecked<std::_Vector_val<FindPredicate::CharAngle,std::allocator<FindPredicate::CharAngle> > >
_TEXT	ENDS
PUBLIC	??$_Move@PAUCharDistanceSq@FindPredicate@@PAU12@@std@@YAPAUCharDistanceSq@FindPredicate@@PAU12@00U_Nonscalar_ptr_iterator_tag@0@@Z ; std::_Move<FindPredicate::CharDistanceSq *,FindPredicate::CharDistanceSq *>
; Function compile flags: /Ogsp
; File c:\program files (x86)\microsoft visual studio 10.0\vc\include\xutility
;	COMDAT ??$_Move@PAUCharDistanceSq@FindPredicate@@PAU12@@std@@YAPAUCharDistanceSq@FindPredicate@@PAU12@00U_Nonscalar_ptr_iterator_tag@0@@Z
_TEXT	SEGMENT
__First$ = 8						; size = 4
__Last$ = 12						; size = 4
__Dest$ = 16						; size = 4
___formal$ = 20						; size = 1
??$_Move@PAUCharDistanceSq@FindPredicate@@PAU12@@std@@YAPAUCharDistanceSq@FindPredicate@@PAU12@00U_Nonscalar_ptr_iterator_tag@0@@Z PROC ; std::_Move<FindPredicate::CharDistanceSq *,FindPredicate::CharDistanceSq *>, COMDAT

; 2512 : 	{	// move [_First, _Last) to [_Dest, ...), arbitrary iterators

  00000	55		 push	 ebp
  00001	8b ec		 mov	 ebp, esp

; 2513 : 	for (; _First != _Last; ++_Dest, ++_First)

  00003	8b 4d 08	 mov	 ecx, DWORD PTR __First$[ebp]
  00006	8b 45 10	 mov	 eax, DWORD PTR __Dest$[ebp]
$LN11@Move:
  00009	3b 4d 0c	 cmp	 ecx, DWORD PTR __Last$[ebp]
  0000c	74 12		 je	 SHORT $LN1@Move

; 2514 : 		*_Dest = _STD move(*_First);

  0000e	8b 11		 mov	 edx, DWORD PTR [ecx]
  00010	89 10		 mov	 DWORD PTR [eax], edx
  00012	8b 51 04	 mov	 edx, DWORD PTR [ecx+4]
  00015	89 50 04	 mov	 DWORD PTR [eax+4], edx
  00018	83 c0 08	 add	 eax, 8
  0001b	83 c1 08	 add	 ecx, 8
  0001e	eb e9		 jmp	 SHORT $LN11@Move
$LN1@Move:

; 2515 : 	return (_Dest);
; 2516 : 	}

  00020	5d		 pop	 ebp
  00021	c3		 ret	 0
??$_Move@PAUCharDistanceSq@FindPredicate@@PAU12@@std@@YAPAUCharDistanceSq@FindPredicate@@PAU12@00U_Nonscalar_ptr_iterator_tag@0@@Z ENDP ; std::_Move<FindPredicate::CharDistanceSq *,FindPredicate::CharDistanceSq *>
_TEXT	ENDS
PUBLIC	??$_Move@PAUCharAngle@FindPredicate@@PAU12@@std@@YAPAUCharAngle@FindPredicate@@PAU12@00U_Nonscalar_ptr_iterator_tag@0@@Z ; std::_Move<FindPredicate::CharAngle *,FindPredicate::CharAngle *>
; Function compile flags: /Ogsp
;	COMDAT ??$_Move@PAUCharAngle@FindPredicate@@PAU12@@std@@YAPAUCharAngle@FindPredicate@@PAU12@00U_Nonscalar_ptr_iterator_tag@0@@Z
_TEXT	SEGMENT
__First$ = 8						; size = 4
__Last$ = 12						; size = 4
__Dest$ = 16						; size = 4
___formal$ = 20						; size = 1
??$_Move@PAUCharAngle@FindPredicate@@PAU12@@std@@YAPAUCharAngle@FindPredicate@@PAU12@00U_Nonscalar_ptr_iterator_tag@0@@Z PROC ; std::_Move<FindPredicate::CharAngle *,FindPredicate::CharAngle *>, COMDAT

; 2512 : 	{	// move [_First, _Last) to [_Dest, ...), arbitrary iterators

  00000	55		 push	 ebp
  00001	8b ec		 mov	 ebp, esp

; 2513 : 	for (; _First != _Last; ++_Dest, ++_First)

  00003	8b 4d 08	 mov	 ecx, DWORD PTR __First$[ebp]
  00006	8b 45 10	 mov	 eax, DWORD PTR __Dest$[ebp]
$LN11@Move@2:
  00009	3b 4d 0c	 cmp	 ecx, DWORD PTR __Last$[ebp]
  0000c	74 12		 je	 SHORT $LN1@Move@2

; 2514 : 		*_Dest = _STD move(*_First);

  0000e	8b 11		 mov	 edx, DWORD PTR [ecx]
  00010	89 10		 mov	 DWORD PTR [eax], edx
  00012	8b 51 04	 mov	 edx, DWORD PTR [ecx+4]
  00015	89 50 04	 mov	 DWORD PTR [eax+4], edx
  00018	83 c0 08	 add	 eax, 8
  0001b	83 c1 08	 add	 ecx, 8
  0001e	eb e9		 jmp	 SHORT $LN11@Move@2
$LN1@Move@2:

; 2515 : 	return (_Dest);
; 2516 : 	}

  00020	5d		 pop	 ebp
  00021	c3		 ret	 0
??$_Move@PAUCharAngle@FindPredicate@@PAU12@@std@@YAPAUCharAngle@FindPredicate@@PAU12@00U_Nonscalar_ptr_iterator_tag@0@@Z ENDP ; std::_Move<FindPredicate::CharAngle *,FindPredicate::CharAngle *>
_TEXT	ENDS
PUBLIC	?destroy@?$allocator@UCharDistanceSq@FindPredicate@@@std@@QAEXPAUCharDistanceSq@FindPredicate@@@Z ; std::allocator<FindPredicate::CharDistanceSq>::destroy
; Function compile flags: /Ogsp
; File c:\program files (x86)\microsoft visual studio 10.0\vc\include\xmemory
;	COMDAT ?destroy@?$allocator@UCharDistanceSq@FindPredicate@@@std@@QAEXPAUCharDistanceSq@FindPredicate@@@Z
_TEXT	SEGMENT
__Ptr$ = 8						; size = 4
?destroy@?$allocator@UCharDistanceSq@FindPredicate@@@std@@QAEXPAUCharDistanceSq@FindPredicate@@@Z PROC ; std::allocator<FindPredicate::CharDistanceSq>::destroy, COMDAT
; _this$ = ecx

; 213  : 		_Destroy(_Ptr);
; 214  : 		}

  00000	c2 04 00	 ret	 4
?destroy@?$allocator@UCharDistanceSq@FindPredicate@@@std@@QAEXPAUCharDistanceSq@FindPredicate@@@Z ENDP ; std::allocator<FindPredicate::CharDistanceSq>::destroy
_TEXT	ENDS
PUBLIC	?destroy@?$allocator@UCharAngle@FindPredicate@@@std@@QAEXPAUCharAngle@FindPredicate@@@Z ; std::allocator<FindPredicate::CharAngle>::destroy
; Function compile flags: /Ogsp
;	COMDAT ?destroy@?$allocator@UCharAngle@FindPredicate@@@std@@QAEXPAUCharAngle@FindPredicate@@@Z
_TEXT	SEGMENT
__Ptr$ = 8						; size = 4
?destroy@?$allocator@UCharAngle@FindPredicate@@@std@@QAEXPAUCharAngle@FindPredicate@@@Z PROC ; std::allocator<FindPredicate::CharAngle>::destroy, COMDAT
; _this$ = ecx

; 213  : 		_Destroy(_Ptr);
; 214  : 		}

  00000	c2 04 00	 ret	 4
?destroy@?$allocator@UCharAngle@FindPredicate@@@std@@QAEXPAUCharAngle@FindPredicate@@@Z ENDP ; std::allocator<FindPredicate::CharAngle>::destroy
_TEXT	ENDS
PUBLIC	??$?0AAPAUCharDistanceSq@FindPredicate@@AAPAU01@@?$pair@PAUCharDistanceSq@FindPredicate@@PAU12@@std@@QAE@AAPAUCharDistanceSq@FindPredicate@@0@Z ; std::pair<FindPredicate::CharDistanceSq *,FindPredicate::CharDistanceSq *>::pair<FindPredicate::CharDistanceSq *,FindPredicate::CharDistanceSq *><FindPredicate::CharDistanceSq * &,FindPredicate::CharDistanceSq * &>
; Function compile flags: /Ogsp
; File c:\program files (x86)\microsoft visual studio 10.0\vc\include\utility
;	COMDAT ??$?0AAPAUCharDistanceSq@FindPredicate@@AAPAU01@@?$pair@PAUCharDistanceSq@FindPredicate@@PAU12@@std@@QAE@AAPAUCharDistanceSq@FindPredicate@@0@Z
_TEXT	SEGMENT
__Val1$ = 8						; size = 4
__Val2$ = 12						; size = 4
??$?0AAPAUCharDistanceSq@FindPredicate@@AAPAU01@@?$pair@PAUCharDistanceSq@FindPredicate@@PAU12@@std@@QAE@AAPAUCharDistanceSq@FindPredicate@@0@Z PROC ; std::pair<FindPredicate::CharDistanceSq *,FindPredicate::CharDistanceSq *>::pair<FindPredicate::CharDistanceSq *,FindPredicate::CharDistanceSq *><FindPredicate::CharDistanceSq * &,FindPredicate::CharDistanceSq * &>, COMDAT
; _this$ = ecx

; 247  : 		{	// construct from moved values

  00000	55		 push	 ebp
  00001	8b ec		 mov	 ebp, esp
  00003	8b c1		 mov	 eax, ecx
  00005	8b 4d 08	 mov	 ecx, DWORD PTR __Val1$[ebp]
  00008	8b 09		 mov	 ecx, DWORD PTR [ecx]
  0000a	89 08		 mov	 DWORD PTR [eax], ecx
  0000c	8b 4d 0c	 mov	 ecx, DWORD PTR __Val2$[ebp]
  0000f	8b 09		 mov	 ecx, DWORD PTR [ecx]
  00011	89 48 04	 mov	 DWORD PTR [eax+4], ecx

; 248  : 		}

  00014	5d		 pop	 ebp
  00015	c2 08 00	 ret	 8
??$?0AAPAUCharDistanceSq@FindPredicate@@AAPAU01@@?$pair@PAUCharDistanceSq@FindPredicate@@PAU12@@std@@QAE@AAPAUCharDistanceSq@FindPredicate@@0@Z ENDP ; std::pair<FindPredicate::CharDistanceSq *,FindPredicate::CharDistanceSq *>::pair<FindPredicate::CharDistanceSq *,FindPredicate::CharDistanceSq *><FindPredicate::CharDistanceSq * &,FindPredicate::CharDistanceSq * &>
_TEXT	ENDS
PUBLIC	??$?0AAPAUCharAngle@FindPredicate@@AAPAU01@@?$pair@PAUCharAngle@FindPredicate@@PAU12@@std@@QAE@AAPAUCharAngle@FindPredicate@@0@Z ; std::pair<FindPredicate::CharAngle *,FindPredicate::CharAngle *>::pair<FindPredicate::CharAngle *,FindPredicate::CharAngle *><FindPredicate::CharAngle * &,FindPredicate::CharAngle * &>
; Function compile flags: /Ogsp
;	COMDAT ??$?0AAPAUCharAngle@FindPredicate@@AAPAU01@@?$pair@PAUCharAngle@FindPredicate@@PAU12@@std@@QAE@AAPAUCharAngle@FindPredicate@@0@Z
_TEXT	SEGMENT
__Val1$ = 8						; size = 4
__Val2$ = 12						; size = 4
??$?0AAPAUCharAngle@FindPredicate@@AAPAU01@@?$pair@PAUCharAngle@FindPredicate@@PAU12@@std@@QAE@AAPAUCharAngle@FindPredicate@@0@Z PROC ; std::pair<FindPredicate::CharAngle *,FindPredicate::CharAngle *>::pair<FindPredicate::CharAngle *,FindPredicate::CharAngle *><FindPredicate::CharAngle * &,FindPredicate::CharAngle * &>, COMDAT
; _this$ = ecx

; 247  : 		{	// construct from moved values

  00000	55		 push	 ebp
  00001	8b ec		 mov	 ebp, esp
  00003	8b c1		 mov	 eax, ecx
  00005	8b 4d 08	 mov	 ecx, DWORD PTR __Val1$[ebp]
  00008	8b 09		 mov	 ecx, DWORD PTR [ecx]
  0000a	89 08		 mov	 DWORD PTR [eax], ecx
  0000c	8b 4d 0c	 mov	 ecx, DWORD PTR __Val2$[ebp]
  0000f	8b 09		 mov	 ecx, DWORD PTR [ecx]
  00011	89 48 04	 mov	 DWORD PTR [eax+4], ecx

; 248  : 		}

  00014	5d		 pop	 ebp
  00015	c2 08 00	 ret	 8
??$?0AAPAUCharAngle@FindPredicate@@AAPAU01@@?$pair@PAUCharAngle@FindPredicate@@PAU12@@std@@QAE@AAPAUCharAngle@FindPredicate@@0@Z ENDP ; std::pair<FindPredicate::CharAngle *,FindPredicate::CharAngle *>::pair<FindPredicate::CharAngle *,FindPredicate::CharAngle *><FindPredicate::CharAngle * &,FindPredicate::CharAngle * &>
_TEXT	ENDS
PUBLIC	?construct@?$allocator@UCharDistanceSq@FindPredicate@@@std@@QAEXPAUCharDistanceSq@FindPredicate@@$$QAU34@@Z ; std::allocator<FindPredicate::CharDistanceSq>::construct
; Function compile flags: /Ogsp
; File c:\program files (x86)\microsoft visual studio 10.0\vc\include\xmemory
;	COMDAT ?construct@?$allocator@UCharDistanceSq@FindPredicate@@@std@@QAEXPAUCharDistanceSq@FindPredicate@@$$QAU34@@Z
_TEXT	SEGMENT
__Ptr$ = 8						; size = 4
__Val$ = 12						; size = 4
?construct@?$allocator@UCharDistanceSq@FindPredicate@@@std@@QAEXPAUCharDistanceSq@FindPredicate@@$$QAU34@@Z PROC ; std::allocator<FindPredicate::CharDistanceSq>::construct, COMDAT
; _this$ = ecx

; 201  : 		{	// construct object at _Ptr with value _Val

  00000	55		 push	 ebp
  00001	8b ec		 mov	 ebp, esp

; 202  : 		::new ((void _FARQ *)_Ptr) _Ty(_STD forward<_Ty>(_Val));

  00003	8b 45 08	 mov	 eax, DWORD PTR __Ptr$[ebp]
  00006	85 c0		 test	 eax, eax
  00008	74 0d		 je	 SHORT $LN3@construct@5
  0000a	8b 4d 0c	 mov	 ecx, DWORD PTR __Val$[ebp]
  0000d	8b 11		 mov	 edx, DWORD PTR [ecx]
  0000f	89 10		 mov	 DWORD PTR [eax], edx
  00011	8b 49 04	 mov	 ecx, DWORD PTR [ecx+4]
  00014	89 48 04	 mov	 DWORD PTR [eax+4], ecx
$LN3@construct@5:

; 203  : 		}

  00017	5d		 pop	 ebp
  00018	c2 08 00	 ret	 8
?construct@?$allocator@UCharDistanceSq@FindPredicate@@@std@@QAEXPAUCharDistanceSq@FindPredicate@@$$QAU34@@Z ENDP ; std::allocator<FindPredicate::CharDistanceSq>::construct
_TEXT	ENDS
PUBLIC	?construct@?$allocator@UCharAngle@FindPredicate@@@std@@QAEXPAUCharAngle@FindPredicate@@$$QAU34@@Z ; std::allocator<FindPredicate::CharAngle>::construct
; Function compile flags: /Ogsp
;	COMDAT ?construct@?$allocator@UCharAngle@FindPredicate@@@std@@QAEXPAUCharAngle@FindPredicate@@$$QAU34@@Z
_TEXT	SEGMENT
__Ptr$ = 8						; size = 4
__Val$ = 12						; size = 4
?construct@?$allocator@UCharAngle@FindPredicate@@@std@@QAEXPAUCharAngle@FindPredicate@@$$QAU34@@Z PROC ; std::allocator<FindPredicate::CharAngle>::construct, COMDAT
; _this$ = ecx

; 201  : 		{	// construct object at _Ptr with value _Val

  00000	55		 push	 ebp
  00001	8b ec		 mov	 ebp, esp

; 202  : 		::new ((void _FARQ *)_Ptr) _Ty(_STD forward<_Ty>(_Val));

  00003	8b 45 08	 mov	 eax, DWORD PTR __Ptr$[ebp]
  00006	85 c0		 test	 eax, eax
  00008	74 0d		 je	 SHORT $LN3@construct@6
  0000a	8b 4d 0c	 mov	 ecx, DWORD PTR __Val$[ebp]
  0000d	8b 11		 mov	 edx, DWORD PTR [ecx]
  0000f	89 10		 mov	 DWORD PTR [eax], edx
  00011	8b 49 04	 mov	 ecx, DWORD PTR [ecx+4]
  00014	89 48 04	 mov	 DWORD PTR [eax+4], ecx
$LN3@construct@6:

; 203  : 		}

  00017	5d		 pop	 ebp
  00018	c2 08 00	 ret	 8
?construct@?$allocator@UCharAngle@FindPredicate@@@std@@QAEXPAUCharAngle@FindPredicate@@$$QAU34@@Z ENDP ; std::allocator<FindPredicate::CharAngle>::construct
_TEXT	ENDS
PUBLIC	??$swap@UCharDistanceSq@FindPredicate@@@std@@YAXAAUCharDistanceSq@FindPredicate@@0@Z ; std::swap<FindPredicate::CharDistanceSq>
; Function compile flags: /Ogsp
; File c:\program files (x86)\microsoft visual studio 10.0\vc\include\utility
;	COMDAT ??$swap@UCharDistanceSq@FindPredicate@@@std@@YAXAAUCharDistanceSq@FindPredicate@@0@Z
_TEXT	SEGMENT
__Left$ = 8						; size = 4
__Right$ = 12						; size = 4
??$swap@UCharDistanceSq@FindPredicate@@@std@@YAXAAUCharDistanceSq@FindPredicate@@0@Z PROC ; std::swap<FindPredicate::CharDistanceSq>, COMDAT

; 101  : 	{	// exchange values stored at _Left and _Right

  00000	55		 push	 ebp
  00001	8b ec		 mov	 ebp, esp

; 102  : 	_Ty _Tmp = _Move(_Left);
; 103  : 	_Left = _Move(_Right);

  00003	8b 4d 0c	 mov	 ecx, DWORD PTR __Right$[ebp]
  00006	8b 45 08	 mov	 eax, DWORD PTR __Left$[ebp]
  00009	8b 10		 mov	 edx, DWORD PTR [eax]
  0000b	56		 push	 esi
  0000c	8b 70 04	 mov	 esi, DWORD PTR [eax+4]
  0000f	57		 push	 edi
  00010	8b 39		 mov	 edi, DWORD PTR [ecx]
  00012	89 38		 mov	 DWORD PTR [eax], edi
  00014	8b 79 04	 mov	 edi, DWORD PTR [ecx+4]
  00017	89 78 04	 mov	 DWORD PTR [eax+4], edi
  0001a	5f		 pop	 edi

; 104  : 	_Right = _Move(_Tmp);

  0001b	89 71 04	 mov	 DWORD PTR [ecx+4], esi
  0001e	89 11		 mov	 DWORD PTR [ecx], edx
  00020	5e		 pop	 esi

; 105  : 	}

  00021	5d		 pop	 ebp
  00022	c3		 ret	 0
??$swap@UCharDistanceSq@FindPredicate@@@std@@YAXAAUCharDistanceSq@FindPredicate@@0@Z ENDP ; std::swap<FindPredicate::CharDistanceSq>
_TEXT	ENDS
PUBLIC	??$_Move_backward@PAUCharDistanceSq@FindPredicate@@PAU12@@std@@YAPAUCharDistanceSq@FindPredicate@@PAU12@00@Z ; std::_Move_backward<FindPredicate::CharDistanceSq *,FindPredicate::CharDistanceSq *>
; Function compile flags: /Ogsp
; File c:\program files (x86)\microsoft visual studio 10.0\vc\include\xutility
;	COMDAT ??$_Move_backward@PAUCharDistanceSq@FindPredicate@@PAU12@@std@@YAPAUCharDistanceSq@FindPredicate@@PAU12@00@Z
_TEXT	SEGMENT
__Cat$527771 = -4					; size = 1
__First$ = 8						; size = 4
__Last$ = 12						; size = 4
__Dest$ = 16						; size = 4
??$_Move_backward@PAUCharDistanceSq@FindPredicate@@PAU12@@std@@YAPAUCharDistanceSq@FindPredicate@@PAU12@00@Z PROC ; std::_Move_backward<FindPredicate::CharDistanceSq *,FindPredicate::CharDistanceSq *>, COMDAT

; 2638 : 	{	// move [_First, _Last) backwards to [..., _Dest), unchecked

  00000	55		 push	 ebp
  00001	8b ec		 mov	 ebp, esp
  00003	51		 push	 ecx

; 2639 : 	return (_Move_backward(_First, _Last,
; 2640 : 		_Dest, _Ptr_cat(_First, _Dest)));

  00004	ff 75 fc	 push	 DWORD PTR __Cat$527771[ebp]
  00007	ff 75 10	 push	 DWORD PTR __Dest$[ebp]
  0000a	ff 75 0c	 push	 DWORD PTR __Last$[ebp]
  0000d	ff 75 08	 push	 DWORD PTR __First$[ebp]
  00010	e8 00 00 00 00	 call	 ??$_Move_backward@PAUCharDistanceSq@FindPredicate@@PAU12@@std@@YAPAUCharDistanceSq@FindPredicate@@PAU12@00U_Nonscalar_ptr_iterator_tag@0@@Z ; std::_Move_backward<FindPredicate::CharDistanceSq *,FindPredicate::CharDistanceSq *>
  00015	83 c4 10	 add	 esp, 16			; 00000010H

; 2641 : 	}

  00018	c9		 leave
  00019	c3		 ret	 0
??$_Move_backward@PAUCharDistanceSq@FindPredicate@@PAU12@@std@@YAPAUCharDistanceSq@FindPredicate@@PAU12@00@Z ENDP ; std::_Move_backward<FindPredicate::CharDistanceSq *,FindPredicate::CharDistanceSq *>
_TEXT	ENDS
PUBLIC	??$swap@UCharAngle@FindPredicate@@@std@@YAXAAUCharAngle@FindPredicate@@0@Z ; std::swap<FindPredicate::CharAngle>
; Function compile flags: /Ogsp
; File c:\program files (x86)\microsoft visual studio 10.0\vc\include\utility
;	COMDAT ??$swap@UCharAngle@FindPredicate@@@std@@YAXAAUCharAngle@FindPredicate@@0@Z
_TEXT	SEGMENT
__Left$ = 8						; size = 4
__Right$ = 12						; size = 4
??$swap@UCharAngle@FindPredicate@@@std@@YAXAAUCharAngle@FindPredicate@@0@Z PROC ; std::swap<FindPredicate::CharAngle>, COMDAT

; 101  : 	{	// exchange values stored at _Left and _Right

  00000	55		 push	 ebp
  00001	8b ec		 mov	 ebp, esp

; 102  : 	_Ty _Tmp = _Move(_Left);
; 103  : 	_Left = _Move(_Right);

  00003	8b 4d 0c	 mov	 ecx, DWORD PTR __Right$[ebp]
  00006	8b 45 08	 mov	 eax, DWORD PTR __Left$[ebp]
  00009	8b 10		 mov	 edx, DWORD PTR [eax]
  0000b	56		 push	 esi
  0000c	8b 70 04	 mov	 esi, DWORD PTR [eax+4]
  0000f	57		 push	 edi
  00010	8b 39		 mov	 edi, DWORD PTR [ecx]
  00012	89 38		 mov	 DWORD PTR [eax], edi
  00014	8b 79 04	 mov	 edi, DWORD PTR [ecx+4]
  00017	89 78 04	 mov	 DWORD PTR [eax+4], edi
  0001a	5f		 pop	 edi

; 104  : 	_Right = _Move(_Tmp);

  0001b	89 71 04	 mov	 DWORD PTR [ecx+4], esi
  0001e	89 11		 mov	 DWORD PTR [ecx], edx
  00020	5e		 pop	 esi

; 105  : 	}

  00021	5d		 pop	 ebp
  00022	c3		 ret	 0
??$swap@UCharAngle@FindPredicate@@@std@@YAXAAUCharAngle@FindPredicate@@0@Z ENDP ; std::swap<FindPredicate::CharAngle>
_TEXT	ENDS
PUBLIC	??$_Move_backward@PAUCharAngle@FindPredicate@@PAU12@@std@@YAPAUCharAngle@FindPredicate@@PAU12@00@Z ; std::_Move_backward<FindPredicate::CharAngle *,FindPredicate::CharAngle *>
; Function compile flags: /Ogsp
; File c:\program files (x86)\microsoft visual studio 10.0\vc\include\xutility
;	COMDAT ??$_Move_backward@PAUCharAngle@FindPredicate@@PAU12@@std@@YAPAUCharAngle@FindPredicate@@PAU12@00@Z
_TEXT	SEGMENT
__Cat$527789 = -4					; size = 1
__First$ = 8						; size = 4
__Last$ = 12						; size = 4
__Dest$ = 16						; size = 4
??$_Move_backward@PAUCharAngle@FindPredicate@@PAU12@@std@@YAPAUCharAngle@FindPredicate@@PAU12@00@Z PROC ; std::_Move_backward<FindPredicate::CharAngle *,FindPredicate::CharAngle *>, COMDAT

; 2638 : 	{	// move [_First, _Last) backwards to [..., _Dest), unchecked

  00000	55		 push	 ebp
  00001	8b ec		 mov	 ebp, esp
  00003	51		 push	 ecx

; 2639 : 	return (_Move_backward(_First, _Last,
; 2640 : 		_Dest, _Ptr_cat(_First, _Dest)));

  00004	ff 75 fc	 push	 DWORD PTR __Cat$527789[ebp]
  00007	ff 75 10	 push	 DWORD PTR __Dest$[ebp]
  0000a	ff 75 0c	 push	 DWORD PTR __Last$[ebp]
  0000d	ff 75 08	 push	 DWORD PTR __First$[ebp]
  00010	e8 00 00 00 00	 call	 ??$_Move_backward@PAUCharAngle@FindPredicate@@PAU12@@std@@YAPAUCharAngle@FindPredicate@@PAU12@00U_Nonscalar_ptr_iterator_tag@0@@Z ; std::_Move_backward<FindPredicate::CharAngle *,FindPredicate::CharAngle *>
  00015	83 c4 10	 add	 esp, 16			; 00000010H

; 2641 : 	}

  00018	c9		 leave
  00019	c3		 ret	 0
??$_Move_backward@PAUCharAngle@FindPredicate@@PAU12@@std@@YAPAUCharAngle@FindPredicate@@PAU12@00@Z ENDP ; std::_Move_backward<FindPredicate::CharAngle *,FindPredicate::CharAngle *>
_TEXT	ENDS
PUBLIC	??$_Push_heap@PAUCharDistanceSq@FindPredicate@@HU12@@std@@YAXPAUCharDistanceSq@FindPredicate@@HH$$QAU12@@Z ; std::_Push_heap<FindPredicate::CharDistanceSq *,int,FindPredicate::CharDistanceSq>
; Function compile flags: /Ogsp
; File c:\program files (x86)\microsoft visual studio 10.0\vc\include\algorithm
;	COMDAT ??$_Push_heap@PAUCharDistanceSq@FindPredicate@@HU12@@std@@YAXPAUCharDistanceSq@FindPredicate@@HH$$QAU12@@Z
_TEXT	SEGMENT
__First$ = 8						; size = 4
__Hole$ = 12						; size = 4
__Top$ = 16						; size = 4
__Val$ = 20						; size = 4
??$_Push_heap@PAUCharDistanceSq@FindPredicate@@HU12@@std@@YAXPAUCharDistanceSq@FindPredicate@@HH$$QAU12@@Z PROC ; std::_Push_heap<FindPredicate::CharDistanceSq *,int,FindPredicate::CharDistanceSq>, COMDAT

; 2410 : 	{	// percolate _Hole to _Top or where _Val belongs, using operator<

  00000	55		 push	 ebp
  00001	8b ec		 mov	 ebp, esp

; 2411 : 	for (_Diff _Idx = (_Hole - 1) / 2;

  00003	8b 4d 0c	 mov	 ecx, DWORD PTR __Hole$[ebp]
  00006	56		 push	 esi

; 2412 : 		_Top < _Hole && _DEBUG_LT(*(_First + _Idx), _Val);
; 2413 : 		_Idx = (_Hole - 1) / 2)

  00007	8b 75 08	 mov	 esi, DWORD PTR __First$[ebp]
  0000a	57		 push	 edi
  0000b	8b 7d 14	 mov	 edi, DWORD PTR __Val$[ebp]
  0000e	8d 41 ff	 lea	 eax, DWORD PTR [ecx-1]
  00011	eb 28		 jmp	 SHORT $LN18@Push_heap
$LL3@Push_heap:
  00013	f3 0f 10 44 c6
	04		 movss	 xmm0, DWORD PTR [esi+eax*8+4]
  00019	f3 0f 10 4f 04	 movss	 xmm1, DWORD PTR [edi+4]
  0001e	0f 5a c0	 cvtps2pd xmm0, xmm0
  00021	0f 5a c9	 cvtps2pd xmm1, xmm1
  00024	66 0f 2f c8	 comisd	 xmm1, xmm0
  00028	76 1b		 jbe	 SHORT $LN8@Push_heap

; 2414 : 		{	// move _Hole up to parent
; 2415 : 		*(_First + _Hole) = _Move(*(_First + _Idx));

  0002a	8b 14 c6	 mov	 edx, DWORD PTR [esi+eax*8]
  0002d	89 14 ce	 mov	 DWORD PTR [esi+ecx*8], edx
  00030	8b 54 c6 04	 mov	 edx, DWORD PTR [esi+eax*8+4]
  00034	89 54 ce 04	 mov	 DWORD PTR [esi+ecx*8+4], edx

; 2416 : 		_Hole = _Idx;

  00038	8b c8		 mov	 ecx, eax
  0003a	48		 dec	 eax
$LN18@Push_heap:

; 2412 : 		_Top < _Hole && _DEBUG_LT(*(_First + _Idx), _Val);
; 2413 : 		_Idx = (_Hole - 1) / 2)

  0003b	99		 cdq
  0003c	2b c2		 sub	 eax, edx
  0003e	d1 f8		 sar	 eax, 1
  00040	39 4d 10	 cmp	 DWORD PTR __Top$[ebp], ecx
  00043	7c ce		 jl	 SHORT $LL3@Push_heap
$LN8@Push_heap:

; 2417 : 		}
; 2418 : 
; 2419 : 	*(_First + _Hole) = _Move(_Val);	// drop _Val into final hole

  00045	8b 07		 mov	 eax, DWORD PTR [edi]
  00047	89 04 ce	 mov	 DWORD PTR [esi+ecx*8], eax
  0004a	8b 47 04	 mov	 eax, DWORD PTR [edi+4]
  0004d	5f		 pop	 edi
  0004e	89 44 ce 04	 mov	 DWORD PTR [esi+ecx*8+4], eax
  00052	5e		 pop	 esi

; 2420 : 	}

  00053	5d		 pop	 ebp
  00054	c3		 ret	 0
??$_Push_heap@PAUCharDistanceSq@FindPredicate@@HU12@@std@@YAXPAUCharDistanceSq@FindPredicate@@HH$$QAU12@@Z ENDP ; std::_Push_heap<FindPredicate::CharDistanceSq *,int,FindPredicate::CharDistanceSq>
_TEXT	ENDS
PUBLIC	??$_Push_heap@PAUCharAngle@FindPredicate@@HU12@@std@@YAXPAUCharAngle@FindPredicate@@HH$$QAU12@@Z ; std::_Push_heap<FindPredicate::CharAngle *,int,FindPredicate::CharAngle>
; Function compile flags: /Ogsp
;	COMDAT ??$_Push_heap@PAUCharAngle@FindPredicate@@HU12@@std@@YAXPAUCharAngle@FindPredicate@@HH$$QAU12@@Z
_TEXT	SEGMENT
__First$ = 8						; size = 4
__Hole$ = 12						; size = 4
__Top$ = 16						; size = 4
__Val$ = 20						; size = 4
??$_Push_heap@PAUCharAngle@FindPredicate@@HU12@@std@@YAXPAUCharAngle@FindPredicate@@HH$$QAU12@@Z PROC ; std::_Push_heap<FindPredicate::CharAngle *,int,FindPredicate::CharAngle>, COMDAT

; 2410 : 	{	// percolate _Hole to _Top or where _Val belongs, using operator<

  00000	55		 push	 ebp
  00001	8b ec		 mov	 ebp, esp

; 2411 : 	for (_Diff _Idx = (_Hole - 1) / 2;

  00003	8b 4d 0c	 mov	 ecx, DWORD PTR __Hole$[ebp]
  00006	56		 push	 esi

; 2412 : 		_Top < _Hole && _DEBUG_LT(*(_First + _Idx), _Val);
; 2413 : 		_Idx = (_Hole - 1) / 2)

  00007	8b 75 08	 mov	 esi, DWORD PTR __First$[ebp]
  0000a	57		 push	 edi
  0000b	8b 7d 14	 mov	 edi, DWORD PTR __Val$[ebp]
  0000e	8d 41 ff	 lea	 eax, DWORD PTR [ecx-1]
  00011	eb 28		 jmp	 SHORT $LN18@Push_heap@2
$LL3@Push_heap@2:
  00013	f3 0f 10 44 c6
	04		 movss	 xmm0, DWORD PTR [esi+eax*8+4]
  00019	f3 0f 10 4f 04	 movss	 xmm1, DWORD PTR [edi+4]
  0001e	0f 5a c0	 cvtps2pd xmm0, xmm0
  00021	0f 5a c9	 cvtps2pd xmm1, xmm1
  00024	66 0f 2f c8	 comisd	 xmm1, xmm0
  00028	76 1b		 jbe	 SHORT $LN8@Push_heap@2

; 2414 : 		{	// move _Hole up to parent
; 2415 : 		*(_First + _Hole) = _Move(*(_First + _Idx));

  0002a	8b 14 c6	 mov	 edx, DWORD PTR [esi+eax*8]
  0002d	89 14 ce	 mov	 DWORD PTR [esi+ecx*8], edx
  00030	8b 54 c6 04	 mov	 edx, DWORD PTR [esi+eax*8+4]
  00034	89 54 ce 04	 mov	 DWORD PTR [esi+ecx*8+4], edx

; 2416 : 		_Hole = _Idx;

  00038	8b c8		 mov	 ecx, eax
  0003a	48		 dec	 eax
$LN18@Push_heap@2:

; 2412 : 		_Top < _Hole && _DEBUG_LT(*(_First + _Idx), _Val);
; 2413 : 		_Idx = (_Hole - 1) / 2)

  0003b	99		 cdq
  0003c	2b c2		 sub	 eax, edx
  0003e	d1 f8		 sar	 eax, 1
  00040	39 4d 10	 cmp	 DWORD PTR __Top$[ebp], ecx
  00043	7c ce		 jl	 SHORT $LL3@Push_heap@2
$LN8@Push_heap@2:

; 2417 : 		}
; 2418 : 
; 2419 : 	*(_First + _Hole) = _Move(_Val);	// drop _Val into final hole

  00045	8b 07		 mov	 eax, DWORD PTR [edi]
  00047	89 04 ce	 mov	 DWORD PTR [esi+ecx*8], eax
  0004a	8b 47 04	 mov	 eax, DWORD PTR [edi+4]
  0004d	5f		 pop	 edi
  0004e	89 44 ce 04	 mov	 DWORD PTR [esi+ecx*8+4], eax
  00052	5e		 pop	 esi

; 2420 : 	}

  00053	5d		 pop	 ebp
  00054	c3		 ret	 0
??$_Push_heap@PAUCharAngle@FindPredicate@@HU12@@std@@YAXPAUCharAngle@FindPredicate@@HH$$QAU12@@Z ENDP ; std::_Push_heap<FindPredicate::CharAngle *,int,FindPredicate::CharAngle>
_TEXT	ENDS
PUBLIC	??B?$CEncrypt@K@@QBEKXZ				; CEncrypt<unsigned long>::operator unsigned long
; Function compile flags: /Ogsp
; File d:\lost saga for developer\youtube\tutorial\source\src\lsclient\encryptvalue.h
;	COMDAT ??B?$CEncrypt@K@@QBEKXZ
_TEXT	SEGMENT
_value$ = -4						; size = 4
??B?$CEncrypt@K@@QBEKXZ PROC				; CEncrypt<unsigned long>::operator unsigned long, COMDAT
; _this$ = ecx

; 145  : 	{

  00000	55		 push	 ebp
  00001	8b ec		 mov	 ebp, esp
  00003	51		 push	 ecx

; 146  : 		//UJ 130829, const    --start
; 147  : 		type value;
; 148  : 		CEncrypt<type>* pThis = const_cast<CEncrypt<type>*>(this);
; 149  : 		pThis->DecryptValueToPool(&value);

  00004	8d 45 fc	 lea	 eax, DWORD PTR _value$[ebp]
  00007	50		 push	 eax
  00008	e8 00 00 00 00	 call	 ?DecryptValueToPool@?$CEncrypt@K@@QAEXPAK@Z ; CEncrypt<unsigned long>::DecryptValueToPool

; 150  : 		//// const DecryptValueToPool     .
; 151  :  		//type value;
; 152  : 		//char szTempMem[MAX_ENCRYPT];
; 153  : 		//m_RC5.DecryptByte( m_MemPool, szTempMem, max(m_ValueSize, DEFAULT_ENCRYPT) );
; 154  : 		//memcpy( &value, szTempMem, m_ValueSize );
; 155  : 		//UJ --end
; 156  : 
; 157  : #ifdef _NOTUSE
; 158  : 		Debug();
; 159  : #endif
; 160  : 		return value;

  0000d	8b 45 fc	 mov	 eax, DWORD PTR _value$[ebp]

; 161  : 	}

  00010	c9		 leave
  00011	c3		 ret	 0
??B?$CEncrypt@K@@QBEKXZ ENDP				; CEncrypt<unsigned long>::operator unsigned long
_TEXT	ENDS
PUBLIC	??B?$CEncrypt@_N@@QBE_NXZ			; CEncrypt<bool>::operator bool
; Function compile flags: /Ogsp
;	COMDAT ??B?$CEncrypt@_N@@QBE_NXZ
_TEXT	SEGMENT
_value$ = -1						; size = 1
??B?$CEncrypt@_N@@QBE_NXZ PROC				; CEncrypt<bool>::operator bool, COMDAT
; _this$ = ecx

; 145  : 	{

  00000	55		 push	 ebp
  00001	8b ec		 mov	 ebp, esp
  00003	51		 push	 ecx

; 146  : 		//UJ 130829, const    --start
; 147  : 		type value;
; 148  : 		CEncrypt<type>* pThis = const_cast<CEncrypt<type>*>(this);
; 149  : 		pThis->DecryptValueToPool(&value);

  00004	8d 45 ff	 lea	 eax, DWORD PTR _value$[ebp]
  00007	50		 push	 eax
  00008	e8 00 00 00 00	 call	 ?DecryptValueToPool@?$CEncrypt@_N@@QAEXPA_N@Z ; CEncrypt<bool>::DecryptValueToPool

; 150  : 		//// const DecryptValueToPool     .
; 151  :  		//type value;
; 152  : 		//char szTempMem[MAX_ENCRYPT];
; 153  : 		//m_RC5.DecryptByte( m_MemPool, szTempMem, max(m_ValueSize, DEFAULT_ENCRYPT) );
; 154  : 		//memcpy( &value, szTempMem, m_ValueSize );
; 155  : 		//UJ --end
; 156  : 
; 157  : #ifdef _NOTUSE
; 158  : 		Debug();
; 159  : #endif
; 160  : 		return value;

  0000d	8a 45 ff	 mov	 al, BYTE PTR _value$[ebp]

; 161  : 	}

  00010	c9		 leave
  00011	c3		 ret	 0
??B?$CEncrypt@_N@@QBE_NXZ ENDP				; CEncrypt<bool>::operator bool
_TEXT	ENDS
PUBLIC	?GetExperienceMode@ioBaseChar@@QBE?BKXZ		; ioBaseChar::GetExperienceMode
; Function compile flags: /Ogsp
; File d:\lost saga for developer\youtube\tutorial\source\src\lsclient\iobasechar.h
;	COMDAT ?GetExperienceMode@ioBaseChar@@QBE?BKXZ
_TEXT	SEGMENT
_value$527839 = -4					; size = 4
?GetExperienceMode@ioBaseChar@@QBE?BKXZ PROC		; ioBaseChar::GetExperienceMode, COMDAT
; _this$ = ecx

; 3193 : 	inline const DWORD GetExperienceMode() const { return m_ExperienceMode; }

  00000	55		 push	 ebp
  00001	8b ec		 mov	 ebp, esp
  00003	51		 push	 ecx
  00004	8d 45 fc	 lea	 eax, DWORD PTR _value$527839[ebp]
  00007	50		 push	 eax
  00008	81 c1 94 1d 00
	00		 add	 ecx, 7572		; 00001d94H
  0000e	e8 00 00 00 00	 call	 ?DecryptValueToPool@?$CEncrypt@K@@QAEXPAK@Z ; CEncrypt<unsigned long>::DecryptValueToPool
  00013	8b 45 fc	 mov	 eax, DWORD PTR _value$527839[ebp]
  00016	c9		 leave
  00017	c3		 ret	 0
?GetExperienceMode@ioBaseChar@@QBE?BKXZ ENDP		; ioBaseChar::GetExperienceMode
_TEXT	ENDS
PUBLIC	?IsExcavating@ioBaseChar@@QBE_NXZ		; ioBaseChar::IsExcavating
; Function compile flags: /Ogsp
;	COMDAT ?IsExcavating@ioBaseChar@@QBE_NXZ
_TEXT	SEGMENT
_value$527846 = -1					; size = 1
?IsExcavating@ioBaseChar@@QBE_NXZ PROC			; ioBaseChar::IsExcavating, COMDAT
; _this$ = ecx

; 4001 : 	bool IsExcavating() const { return m_bExcavating; }

  00000	55		 push	 ebp
  00001	8b ec		 mov	 ebp, esp
  00003	51		 push	 ecx
  00004	8d 45 ff	 lea	 eax, DWORD PTR _value$527846[ebp]
  00007	50		 push	 eax
  00008	81 c1 20 30 00
	00		 add	 ecx, 12320		; 00003020H
  0000e	e8 00 00 00 00	 call	 ?DecryptValueToPool@?$CEncrypt@_N@@QAEXPA_N@Z ; CEncrypt<bool>::DecryptValueToPool
  00013	8a 45 ff	 mov	 al, BYTE PTR _value$527846[ebp]
  00016	c9		 leave
  00017	c3		 ret	 0
?IsExcavating@ioBaseChar@@QBE_NXZ ENDP			; ioBaseChar::IsExcavating
_TEXT	ENDS
PUBLIC	?IsExperienceOwner@FindPredicate@@IAE_NXZ	; FindPredicate::IsExperienceOwner
; Function compile flags: /Ogsp
; File d:\lost saga for developer\youtube\tutorial\source\src\lsclient\findpredicate.cpp
;	COMDAT ?IsExperienceOwner@FindPredicate@@IAE_NXZ
_TEXT	SEGMENT
_value$527860 = -4					; size = 4
?IsExperienceOwner@FindPredicate@@IAE_NXZ PROC		; FindPredicate::IsExperienceOwner, COMDAT
; _this$ = ecx

; 22   : {

  00000	55		 push	 ebp
  00001	8b ec		 mov	 ebp, esp
  00003	51		 push	 ecx

; 23   : 	if( m_pOwner == NULL )

  00004	8b 41 04	 mov	 eax, DWORD PTR [ecx+4]
  00007	85 c0		 test	 eax, eax
  00009	75 04		 jne	 SHORT $LN1@IsExperien

; 24   : 		return false;

  0000b	32 c0		 xor	 al, al

; 27   : }

  0000d	c9		 leave
  0000e	c3		 ret	 0
$LN1@IsExperien:

; 25   : 
; 26   : 	return ( m_pOwner->GetExperienceMode() == EMS_EXPERIENCE );

  0000f	8d 4d fc	 lea	 ecx, DWORD PTR _value$527860[ebp]
  00012	51		 push	 ecx
  00013	8d 88 94 1d 00
	00		 lea	 ecx, DWORD PTR [eax+7572]
  00019	e8 00 00 00 00	 call	 ?DecryptValueToPool@?$CEncrypt@K@@QAEXPAK@Z ; CEncrypt<unsigned long>::DecryptValueToPool
  0001e	33 c0		 xor	 eax, eax
  00020	83 7d fc 02	 cmp	 DWORD PTR _value$527860[ebp], 2
  00024	0f 94 c0	 sete	 al

; 27   : }

  00027	c9		 leave
  00028	c3		 ret	 0
?IsExperienceOwner@FindPredicate@@IAE_NXZ ENDP		; FindPredicate::IsExperienceOwner
_TEXT	ENDS
PUBLIC	?CheckTargetState@FindPredicateUtil@@YA_NPAVioBaseChar@@_N1@Z ; FindPredicateUtil::CheckTargetState
EXTRN	?HasChangeTeamBuff@ioBaseChar@@QBE_N_N@Z:PROC	; ioBaseChar::HasChangeTeamBuff
EXTRN	?IsChatModeState@ioBaseChar@@QBE_N_N@Z:PROC	; ioBaseChar::IsChatModeState
EXTRN	?HasHideBuff@ioBaseChar@@QAE?B_NXZ:PROC		; ioBaseChar::HasHideBuff
EXTRN	?IsApplyDownState@ioBaseChar@@QAE_N_N@Z:PROC	; ioBaseChar::IsApplyDownState
EXTRN	?IsFloatingState@ioBaseChar@@QBE_NXZ:PROC	; ioBaseChar::IsFloatingState
EXTRN	?IsSystemState@ioBaseChar@@QAE_NXZ:PROC		; ioBaseChar::IsSystemState
; Function compile flags: /Ogsp
;	COMDAT ?CheckTargetState@FindPredicateUtil@@YA_NPAVioBaseChar@@_N1@Z
_TEXT	SEGMENT
_value$527903 = 8					; size = 4
_pTarget$ = 8						; size = 4
_value$527891 = 11					; size = 1
_bDownTargetFind$ = 12					; size = 1
_bHideTargetFind$ = 16					; size = 1
?CheckTargetState@FindPredicateUtil@@YA_NPAVioBaseChar@@_N1@Z PROC ; FindPredicateUtil::CheckTargetState, COMDAT

; 149  : {

  00000	55		 push	 ebp
  00001	8b ec		 mov	 ebp, esp
  00003	53		 push	 ebx
  00004	56		 push	 esi

; 150  : 	if( !pTarget )

  00005	8b 75 08	 mov	 esi, DWORD PTR _pTarget$[ebp]
  00008	33 db		 xor	 ebx, ebx
  0000a	3b f3		 cmp	 esi, ebx
  0000c	75 07		 jne	 SHORT $LN19@CheckTarge
$LN38@CheckTarge:

; 151  : 		return false;

  0000e	32 c0		 xor	 al, al
  00010	e9 b9 00 00 00	 jmp	 $LN1@CheckTarge
$LN19@CheckTarge:

; 152  : 
; 153  : 	if( pTarget->IsSystemState() )

  00015	8b ce		 mov	 ecx, esi
  00017	e8 00 00 00 00	 call	 ?IsSystemState@ioBaseChar@@QAE_NXZ ; ioBaseChar::IsSystemState
  0001c	84 c0		 test	 al, al

; 154  : 		return false;

  0001e	75 ee		 jne	 SHORT $LN38@CheckTarge

; 155  : 
; 156  : 	switch( pTarget->GetState() )

  00020	8a 86 10 03 00
	00		 mov	 al, BYTE PTR [esi+784]
  00026	3c 07		 cmp	 al, 7
  00028	74 3c		 je	 SHORT $LN11@CheckTarge
  0002a	3c 0c		 cmp	 al, 12			; 0000000cH
  0002c	74 26		 je	 SHORT $LN13@CheckTarge
  0002e	3c 0f		 cmp	 al, 15			; 0000000fH
  00030	74 34		 je	 SHORT $LN11@CheckTarge
  00032	3c 17		 cmp	 al, 23			; 00000017H
  00034	74 14		 je	 SHORT $LN15@CheckTarge
  00036	3c 26		 cmp	 al, 38			; 00000026H
  00038	74 08		 je	 SHORT $LN9@CheckTarge
  0003a	3c 31		 cmp	 al, 49			; 00000031H
  0003c	74 16		 je	 SHORT $LN13@CheckTarge
  0003e	3c 3b		 cmp	 al, 59			; 0000003bH
  00040	75 30		 jne	 SHORT $LN10@CheckTarge
$LN9@CheckTarge:

; 171  : 		break;		
; 172  : 	case CS_STOP_MOTION:
; 173  : 		if( pTarget->GetBlowStopMotionState() )

  00042	38 9e c7 15 00
	00		 cmp	 BYTE PTR [esi+5575], bl

; 174  : 			return false;

  00048	eb 06		 jmp	 SHORT $LN39@CheckTarge
$LN15@CheckTarge:

; 157  : 	{
; 158  : 	case CS_FROZEN:
; 159  : 		if( pTarget->GetBlowFrozenState() )

  0004a	38 9e c5 15 00
	00		 cmp	 BYTE PTR [esi+5573], bl
$LN39@CheckTarge:
  00050	74 20		 je	 SHORT $LN10@CheckTarge

; 160  : 			return false;

  00052	eb ba		 jmp	 SHORT $LN38@CheckTarge
$LN13@CheckTarge:

; 161  : 		break;
; 162  : 	case CS_BLOW_WOUNDED:
; 163  : 	case CS_BOUND_BLOW_WOUNDED:
; 164  : 		if( !pTarget->IsFloatingState() && !bDownTargetFind )

  00054	8b ce		 mov	 ecx, esi
  00056	e8 00 00 00 00	 call	 ?IsFloatingState@ioBaseChar@@QBE_NXZ ; ioBaseChar::IsFloatingState
  0005b	84 c0		 test	 al, al
  0005d	75 13		 jne	 SHORT $LN10@CheckTarge
$LN40@CheckTarge:
  0005f	38 5d 0c	 cmp	 BYTE PTR _bDownTargetFind$[ebp], bl
  00062	75 0e		 jne	 SHORT $LN10@CheckTarge

; 165  : 			return false;

  00064	eb a8		 jmp	 SHORT $LN38@CheckTarge
$LN11@CheckTarge:

; 166  : 		break;
; 167  : 	case CS_ETC_STATE:
; 168  : 	case CS_USING_SKILL:
; 169  : 		if( pTarget->IsApplyDownState(false) && !bDownTargetFind )

  00066	53		 push	 ebx
  00067	8b ce		 mov	 ecx, esi
  00069	e8 00 00 00 00	 call	 ?IsApplyDownState@ioBaseChar@@QAE_N_N@Z ; ioBaseChar::IsApplyDownState
  0006e	84 c0		 test	 al, al

; 170  : 			return false;

  00070	75 ed		 jne	 SHORT $LN40@CheckTarge
$LN10@CheckTarge:

; 175  : 		break;
; 176  : 	case CS_ICE_STATE:
; 177  : 		if( pTarget->GetBlowStopMotionState() )
; 178  : 			return false;
; 179  : 		break;
; 180  : 	}
; 181  : 
; 182  : 	if( bHideTargetFind && pTarget->HasHideBuff() )

  00072	38 5d 10	 cmp	 BYTE PTR _bHideTargetFind$[ebp], bl
  00075	74 0b		 je	 SHORT $LN5@CheckTarge
  00077	8b ce		 mov	 ecx, esi
  00079	e8 00 00 00 00	 call	 ?HasHideBuff@ioBaseChar@@QAE?B_NXZ ; ioBaseChar::HasHideBuff
  0007e	84 c0		 test	 al, al

; 183  : 		return false;

  00080	75 8c		 jne	 SHORT $LN38@CheckTarge
$LN5@CheckTarge:

; 184  : 
; 185  : 	if( pTarget->IsChatModeState( false ) )

  00082	53		 push	 ebx
  00083	8b ce		 mov	 ecx, esi
  00085	e8 00 00 00 00	 call	 ?IsChatModeState@ioBaseChar@@QBE_N_N@Z ; ioBaseChar::IsChatModeState
  0008a	84 c0		 test	 al, al

; 186  : 		return false;

  0008c	75 80		 jne	 SHORT $LN38@CheckTarge

; 187  : 
; 188  : 	if( pTarget->IsExcavating() )

  0008e	8d 45 0b	 lea	 eax, DWORD PTR _value$527891[ebp]
  00091	50		 push	 eax
  00092	8d 8e 20 30 00
	00		 lea	 ecx, DWORD PTR [esi+12320]
  00098	e8 00 00 00 00	 call	 ?DecryptValueToPool@?$CEncrypt@_N@@QAEXPA_N@Z ; CEncrypt<bool>::DecryptValueToPool
  0009d	38 5d 0b	 cmp	 BYTE PTR _value$527891[ebp], bl

; 189  : 		return false;

  000a0	0f 85 68 ff ff
	ff		 jne	 $LN38@CheckTarge

; 190  : 
; 191  : 	if( pTarget->GetExperienceMode() == EMS_EXPERIENCE )

  000a6	8d 45 08	 lea	 eax, DWORD PTR _value$527903[ebp]
  000a9	50		 push	 eax
  000aa	8d 8e 94 1d 00
	00		 lea	 ecx, DWORD PTR [esi+7572]
  000b0	e8 00 00 00 00	 call	 ?DecryptValueToPool@?$CEncrypt@K@@QAEXPAK@Z ; CEncrypt<unsigned long>::DecryptValueToPool
  000b5	83 7d 08 02	 cmp	 DWORD PTR _value$527903[ebp], 2

; 192  : 		return false;

  000b9	0f 84 4f ff ff
	ff		 je	 $LN38@CheckTarge

; 193  : 
; 194  : 	if( pTarget->HasChangeTeamBuff(true) )

  000bf	6a 01		 push	 1
  000c1	8b ce		 mov	 ecx, esi
  000c3	e8 00 00 00 00	 call	 ?HasChangeTeamBuff@ioBaseChar@@QBE_N_N@Z ; ioBaseChar::HasChangeTeamBuff
  000c8	f6 d8		 neg	 al
  000ca	1a c0		 sbb	 al, al
  000cc	fe c0		 inc	 al
$LN1@CheckTarge:
  000ce	5e		 pop	 esi
  000cf	5b		 pop	 ebx

; 195  : 		return false;
; 196  : 
; 197  : 	return true;
; 198  : }

  000d0	5d		 pop	 ebp
  000d1	c3		 ret	 0
?CheckTargetState@FindPredicateUtil@@YA_NPAVioBaseChar@@_N1@Z ENDP ; FindPredicateUtil::CheckTargetState
_TEXT	ENDS
PUBLIC	??0?$vector@UCharDistanceSq@FindPredicate@@V?$allocator@UCharDistanceSq@FindPredicate@@@std@@@std@@QAE@XZ ; std::vector<FindPredicate::CharDistanceSq,std::allocator<FindPredicate::CharDistanceSq> >::vector<FindPredicate::CharDistanceSq,std::allocator<FindPredicate::CharDistanceSq> >
; Function compile flags: /Ogsp
; File c:\program files (x86)\microsoft visual studio 10.0\vc\include\vector
;	COMDAT ??0?$vector@UCharDistanceSq@FindPredicate@@V?$allocator@UCharDistanceSq@FindPredicate@@@std@@@std@@QAE@XZ
_TEXT	SEGMENT
??0?$vector@UCharDistanceSq@FindPredicate@@V?$allocator@UCharDistanceSq@FindPredicate@@@std@@@std@@QAE@XZ PROC ; std::vector<FindPredicate::CharDistanceSq,std::allocator<FindPredicate::CharDistanceSq> >::vector<FindPredicate::CharDistanceSq,std::allocator<FindPredicate::CharDistanceSq> >, COMDAT
; _this$ = ecx

; 507  : 		{	// construct empty vector

  00000	8b c1		 mov	 eax, ecx
  00002	33 c9		 xor	 ecx, ecx
  00004	89 08		 mov	 DWORD PTR [eax], ecx
  00006	89 48 04	 mov	 DWORD PTR [eax+4], ecx
  00009	89 48 08	 mov	 DWORD PTR [eax+8], ecx

; 508  : 		}

  0000c	c3		 ret	 0
??0?$vector@UCharDistanceSq@FindPredicate@@V?$allocator@UCharDistanceSq@FindPredicate@@@std@@@std@@QAE@XZ ENDP ; std::vector<FindPredicate::CharDistanceSq,std::allocator<FindPredicate::CharDistanceSq> >::vector<FindPredicate::CharDistanceSq,std::allocator<FindPredicate::CharDistanceSq> >
_TEXT	ENDS
PUBLIC	?begin@?$vector@UCharDistanceSq@FindPredicate@@V?$allocator@UCharDistanceSq@FindPredicate@@@std@@@std@@QAE?AV?$_Vector_iterator@V?$_Vector_val@UCharDistanceSq@FindPredicate@@V?$allocator@UCharDistanceSq@FindPredicate@@@std@@@std@@@2@XZ ; std::vector<FindPredicate::CharDistanceSq,std::allocator<FindPredicate::CharDistanceSq> >::begin
; Function compile flags: /Ogsp
;	COMDAT ?begin@?$vector@UCharDistanceSq@FindPredicate@@V?$allocator@UCharDistanceSq@FindPredicate@@@std@@@std@@QAE?AV?$_Vector_iterator@V?$_Vector_val@UCharDistanceSq@FindPredicate@@V?$allocator@UCharDistanceSq@FindPredicate@@@std@@@std@@@2@XZ
_TEXT	SEGMENT
___$ReturnUdt$ = 8					; size = 4
?begin@?$vector@UCharDistanceSq@FindPredicate@@V?$allocator@UCharDistanceSq@FindPredicate@@@std@@@std@@QAE?AV?$_Vector_iterator@V?$_Vector_val@UCharDistanceSq@FindPredicate@@V?$allocator@UCharDistanceSq@FindPredicate@@@std@@@std@@@2@XZ PROC ; std::vector<FindPredicate::CharDistanceSq,std::allocator<FindPredicate::CharDistanceSq> >::begin, COMDAT
; _this$ = ecx

; 781  : 		{	// return iterator for beginning of mutable sequence

  00000	55		 push	 ebp
  00001	8b ec		 mov	 ebp, esp

; 782  : 		return (iterator(this->_Myfirst, this));

  00003	8b 09		 mov	 ecx, DWORD PTR [ecx]
  00005	8b 45 08	 mov	 eax, DWORD PTR ___$ReturnUdt$[ebp]
  00008	89 08		 mov	 DWORD PTR [eax], ecx

; 783  : 		}

  0000a	5d		 pop	 ebp
  0000b	c2 04 00	 ret	 4
?begin@?$vector@UCharDistanceSq@FindPredicate@@V?$allocator@UCharDistanceSq@FindPredicate@@@std@@@std@@QAE?AV?$_Vector_iterator@V?$_Vector_val@UCharDistanceSq@FindPredicate@@V?$allocator@UCharDistanceSq@FindPredicate@@@std@@@std@@@2@XZ ENDP ; std::vector<FindPredicate::CharDistanceSq,std::allocator<FindPredicate::CharDistanceSq> >::begin
_TEXT	ENDS
PUBLIC	?end@?$vector@UCharDistanceSq@FindPredicate@@V?$allocator@UCharDistanceSq@FindPredicate@@@std@@@std@@QAE?AV?$_Vector_iterator@V?$_Vector_val@UCharDistanceSq@FindPredicate@@V?$allocator@UCharDistanceSq@FindPredicate@@@std@@@std@@@2@XZ ; std::vector<FindPredicate::CharDistanceSq,std::allocator<FindPredicate::CharDistanceSq> >::end
; Function compile flags: /Ogsp
;	COMDAT ?end@?$vector@UCharDistanceSq@FindPredicate@@V?$allocator@UCharDistanceSq@FindPredicate@@@std@@@std@@QAE?AV?$_Vector_iterator@V?$_Vector_val@UCharDistanceSq@FindPredicate@@V?$allocator@UCharDistanceSq@FindPredicate@@@std@@@std@@@2@XZ
_TEXT	SEGMENT
___$ReturnUdt$ = 8					; size = 4
?end@?$vector@UCharDistanceSq@FindPredicate@@V?$allocator@UCharDistanceSq@FindPredicate@@@std@@@std@@QAE?AV?$_Vector_iterator@V?$_Vector_val@UCharDistanceSq@FindPredicate@@V?$allocator@UCharDistanceSq@FindPredicate@@@std@@@std@@@2@XZ PROC ; std::vector<FindPredicate::CharDistanceSq,std::allocator<FindPredicate::CharDistanceSq> >::end, COMDAT
; _this$ = ecx

; 791  : 		{	// return iterator for end of mutable sequence

  00000	55		 push	 ebp
  00001	8b ec		 mov	 ebp, esp

; 792  : 		return (iterator(this->_Mylast, this));

  00003	8b 49 04	 mov	 ecx, DWORD PTR [ecx+4]
  00006	8b 45 08	 mov	 eax, DWORD PTR ___$ReturnUdt$[ebp]
  00009	89 08		 mov	 DWORD PTR [eax], ecx

; 793  : 		}

  0000b	5d		 pop	 ebp
  0000c	c2 04 00	 ret	 4
?end@?$vector@UCharDistanceSq@FindPredicate@@V?$allocator@UCharDistanceSq@FindPredicate@@@std@@@std@@QAE?AV?$_Vector_iterator@V?$_Vector_val@UCharDistanceSq@FindPredicate@@V?$allocator@UCharDistanceSq@FindPredicate@@@std@@@std@@@2@XZ ENDP ; std::vector<FindPredicate::CharDistanceSq,std::allocator<FindPredicate::CharDistanceSq> >::end
_TEXT	ENDS
PUBLIC	??0?$vector@UCharAngle@FindPredicate@@V?$allocator@UCharAngle@FindPredicate@@@std@@@std@@QAE@XZ ; std::vector<FindPredicate::CharAngle,std::allocator<FindPredicate::CharAngle> >::vector<FindPredicate::CharAngle,std::allocator<FindPredicate::CharAngle> >
; Function compile flags: /Ogsp
;	COMDAT ??0?$vector@UCharAngle@FindPredicate@@V?$allocator@UCharAngle@FindPredicate@@@std@@@std@@QAE@XZ
_TEXT	SEGMENT
??0?$vector@UCharAngle@FindPredicate@@V?$allocator@UCharAngle@FindPredicate@@@std@@@std@@QAE@XZ PROC ; std::vector<FindPredicate::CharAngle,std::allocator<FindPredicate::CharAngle> >::vector<FindPredicate::CharAngle,std::allocator<FindPredicate::CharAngle> >, COMDAT
; _this$ = ecx

; 507  : 		{	// construct empty vector

  00000	8b c1		 mov	 eax, ecx
  00002	33 c9		 xor	 ecx, ecx
  00004	89 08		 mov	 DWORD PTR [eax], ecx
  00006	89 48 04	 mov	 DWORD PTR [eax+4], ecx
  00009	89 48 08	 mov	 DWORD PTR [eax+8], ecx

; 508  : 		}

  0000c	c3		 ret	 0
??0?$vector@UCharAngle@FindPredicate@@V?$allocator@UCharAngle@FindPredicate@@@std@@@std@@QAE@XZ ENDP ; std::vector<FindPredicate::CharAngle,std::allocator<FindPredicate::CharAngle> >::vector<FindPredicate::CharAngle,std::allocator<FindPredicate::CharAngle> >
_TEXT	ENDS
PUBLIC	?begin@?$vector@UCharAngle@FindPredicate@@V?$allocator@UCharAngle@FindPredicate@@@std@@@std@@QAE?AV?$_Vector_iterator@V?$_Vector_val@UCharAngle@FindPredicate@@V?$allocator@UCharAngle@FindPredicate@@@std@@@std@@@2@XZ ; std::vector<FindPredicate::CharAngle,std::allocator<FindPredicate::CharAngle> >::begin
; Function compile flags: /Ogsp
;	COMDAT ?begin@?$vector@UCharAngle@FindPredicate@@V?$allocator@UCharAngle@FindPredicate@@@std@@@std@@QAE?AV?$_Vector_iterator@V?$_Vector_val@UCharAngle@FindPredicate@@V?$allocator@UCharAngle@FindPredicate@@@std@@@std@@@2@XZ
_TEXT	SEGMENT
___$ReturnUdt$ = 8					; size = 4
?begin@?$vector@UCharAngle@FindPredicate@@V?$allocator@UCharAngle@FindPredicate@@@std@@@std@@QAE?AV?$_Vector_iterator@V?$_Vector_val@UCharAngle@FindPredicate@@V?$allocator@UCharAngle@FindPredicate@@@std@@@std@@@2@XZ PROC ; std::vector<FindPredicate::CharAngle,std::allocator<FindPredicate::CharAngle> >::begin, COMDAT
; _this$ = ecx

; 781  : 		{	// return iterator for beginning of mutable sequence

  00000	55		 push	 ebp
  00001	8b ec		 mov	 ebp, esp

; 782  : 		return (iterator(this->_Myfirst, this));

  00003	8b 09		 mov	 ecx, DWORD PTR [ecx]
  00005	8b 45 08	 mov	 eax, DWORD PTR ___$ReturnUdt$[ebp]
  00008	89 08		 mov	 DWORD PTR [eax], ecx

; 783  : 		}

  0000a	5d		 pop	 ebp
  0000b	c2 04 00	 ret	 4
?begin@?$vector@UCharAngle@FindPredicate@@V?$allocator@UCharAngle@FindPredicate@@@std@@@std@@QAE?AV?$_Vector_iterator@V?$_Vector_val@UCharAngle@FindPredicate@@V?$allocator@UCharAngle@FindPredicate@@@std@@@std@@@2@XZ ENDP ; std::vector<FindPredicate::CharAngle,std::allocator<FindPredicate::CharAngle> >::begin
_TEXT	ENDS
PUBLIC	?end@?$vector@UCharAngle@FindPredicate@@V?$allocator@UCharAngle@FindPredicate@@@std@@@std@@QAE?AV?$_Vector_iterator@V?$_Vector_val@UCharAngle@FindPredicate@@V?$allocator@UCharAngle@FindPredicate@@@std@@@std@@@2@XZ ; std::vector<FindPredicate::CharAngle,std::allocator<FindPredicate::CharAngle> >::end
; Function compile flags: /Ogsp
;	COMDAT ?end@?$vector@UCharAngle@FindPredicate@@V?$allocator@UCharAngle@FindPredicate@@@std@@@std@@QAE?AV?$_Vector_iterator@V?$_Vector_val@UCharAngle@FindPredicate@@V?$allocator@UCharAngle@FindPredicate@@@std@@@std@@@2@XZ
_TEXT	SEGMENT
___$ReturnUdt$ = 8					; size = 4
?end@?$vector@UCharAngle@FindPredicate@@V?$allocator@UCharAngle@FindPredicate@@@std@@@std@@QAE?AV?$_Vector_iterator@V?$_Vector_val@UCharAngle@FindPredicate@@V?$allocator@UCharAngle@FindPredicate@@@std@@@std@@@2@XZ PROC ; std::vector<FindPredicate::CharAngle,std::allocator<FindPredicate::CharAngle> >::end, COMDAT
; _this$ = ecx

; 791  : 		{	// return iterator for end of mutable sequence

  00000	55		 push	 ebp
  00001	8b ec		 mov	 ebp, esp

; 792  : 		return (iterator(this->_Mylast, this));

  00003	8b 49 04	 mov	 ecx, DWORD PTR [ecx+4]
  00006	8b 45 08	 mov	 eax, DWORD PTR ___$ReturnUdt$[ebp]
  00009	89 08		 mov	 DWORD PTR [eax], ecx

; 793  : 		}

  0000b	5d		 pop	 ebp
  0000c	c2 04 00	 ret	 4
?end@?$vector@UCharAngle@FindPredicate@@V?$allocator@UCharAngle@FindPredicate@@@std@@@std@@QAE?AV?$_Vector_iterator@V?$_Vector_val@UCharAngle@FindPredicate@@V?$allocator@UCharAngle@FindPredicate@@@std@@@std@@@2@XZ ENDP ; std::vector<FindPredicate::CharAngle,std::allocator<FindPredicate::CharAngle> >::end
_TEXT	ENDS
PUBLIC	??9?$_Vector_const_iterator@V?$_Vector_val@PAVioBaseChar@@V?$allocator@PAVioBaseChar@@@std@@@std@@@std@@QBE_NABV01@@Z ; std::_Vector_const_iterator<std::_Vector_val<ioBaseChar *,std::allocator<ioBaseChar *> > >::operator!=
; Function compile flags: /Ogsp
;	COMDAT ??9?$_Vector_const_iterator@V?$_Vector_val@PAVioBaseChar@@V?$allocator@PAVioBaseChar@@@std@@@std@@@std@@QBE_NABV01@@Z
_TEXT	SEGMENT
__Right$ = 8						; size = 4
??9?$_Vector_const_iterator@V?$_Vector_val@PAVioBaseChar@@V?$allocator@PAVioBaseChar@@@std@@@std@@@std@@QBE_NABV01@@Z PROC ; std::_Vector_const_iterator<std::_Vector_val<ioBaseChar *,std::allocator<ioBaseChar *> > >::operator!=, COMDAT
; _this$ = ecx

; 207  : 		{	// test for iterator inequality

  00000	55		 push	 ebp
  00001	8b ec		 mov	 ebp, esp

; 208  : 		return (!(*this == _Right));

  00003	8b 01		 mov	 eax, DWORD PTR [ecx]
  00005	8b 55 08	 mov	 edx, DWORD PTR __Right$[ebp]
  00008	33 c9		 xor	 ecx, ecx
  0000a	3b 02		 cmp	 eax, DWORD PTR [edx]
  0000c	0f 95 c0	 setne	 al

; 209  : 		}

  0000f	5d		 pop	 ebp
  00010	c2 04 00	 ret	 4
??9?$_Vector_const_iterator@V?$_Vector_val@PAVioBaseChar@@V?$allocator@PAVioBaseChar@@@std@@@std@@@std@@QBE_NABV01@@Z ENDP ; std::_Vector_const_iterator<std::_Vector_val<ioBaseChar *,std::allocator<ioBaseChar *> > >::operator!=
_TEXT	ENDS
PUBLIC	?_Make_iter@?$vector@UCharDistanceSq@FindPredicate@@V?$allocator@UCharDistanceSq@FindPredicate@@@std@@@std@@QBE?AV?$_Vector_iterator@V?$_Vector_val@UCharDistanceSq@FindPredicate@@V?$allocator@UCharDistanceSq@FindPredicate@@@std@@@std@@@2@V?$_Vector_const_iterator@V?$_Vector_val@UCharDistanceSq@FindPredicate@@V?$allocator@UCharDistanceSq@FindPredicate@@@std@@@std@@@2@@Z ; std::vector<FindPredicate::CharDistanceSq,std::allocator<FindPredicate::CharDistanceSq> >::_Make_iter
; Function compile flags: /Ogsp
;	COMDAT ?_Make_iter@?$vector@UCharDistanceSq@FindPredicate@@V?$allocator@UCharDistanceSq@FindPredicate@@@std@@@std@@QBE?AV?$_Vector_iterator@V?$_Vector_val@UCharDistanceSq@FindPredicate@@V?$allocator@UCharDistanceSq@FindPredicate@@@std@@@std@@@2@V?$_Vector_const_iterator@V?$_Vector_val@UCharDistanceSq@FindPredicate@@V?$allocator@UCharDistanceSq@FindPredicate@@@std@@@std@@@2@@Z
_TEXT	SEGMENT
___$ReturnUdt$ = 8					; size = 4
__Where$ = 12						; size = 4
?_Make_iter@?$vector@UCharDistanceSq@FindPredicate@@V?$allocator@UCharDistanceSq@FindPredicate@@@std@@@std@@QBE?AV?$_Vector_iterator@V?$_Vector_val@UCharDistanceSq@FindPredicate@@V?$allocator@UCharDistanceSq@FindPredicate@@@std@@@std@@@2@V?$_Vector_const_iterator@V?$_Vector_val@UCharDistanceSq@FindPredicate@@V?$allocator@UCharDistanceSq@FindPredicate@@@std@@@std@@@2@@Z PROC ; std::vector<FindPredicate::CharDistanceSq,std::allocator<FindPredicate::CharDistanceSq> >::_Make_iter, COMDAT
; _this$ = ecx

; 801  : 		{	// make iterator from const_iterator

  00000	55		 push	 ebp
  00001	8b ec		 mov	 ebp, esp

; 802  : 		return (iterator(_Where._Ptr, this));

  00003	8b 45 08	 mov	 eax, DWORD PTR ___$ReturnUdt$[ebp]
  00006	8b 4d 0c	 mov	 ecx, DWORD PTR __Where$[ebp]
  00009	89 08		 mov	 DWORD PTR [eax], ecx

; 803  : 		}

  0000b	5d		 pop	 ebp
  0000c	c2 08 00	 ret	 8
?_Make_iter@?$vector@UCharDistanceSq@FindPredicate@@V?$allocator@UCharDistanceSq@FindPredicate@@@std@@@std@@QBE?AV?$_Vector_iterator@V?$_Vector_val@UCharDistanceSq@FindPredicate@@V?$allocator@UCharDistanceSq@FindPredicate@@@std@@@std@@@2@V?$_Vector_const_iterator@V?$_Vector_val@UCharDistanceSq@FindPredicate@@V?$allocator@UCharDistanceSq@FindPredicate@@@std@@@std@@@2@@Z ENDP ; std::vector<FindPredicate::CharDistanceSq,std::allocator<FindPredicate::CharDistanceSq> >::_Make_iter
_TEXT	ENDS
PUBLIC	?_Make_iter@?$vector@UCharAngle@FindPredicate@@V?$allocator@UCharAngle@FindPredicate@@@std@@@std@@QBE?AV?$_Vector_iterator@V?$_Vector_val@UCharAngle@FindPredicate@@V?$allocator@UCharAngle@FindPredicate@@@std@@@std@@@2@V?$_Vector_const_iterator@V?$_Vector_val@UCharAngle@FindPredicate@@V?$allocator@UCharAngle@FindPredicate@@@std@@@std@@@2@@Z ; std::vector<FindPredicate::CharAngle,std::allocator<FindPredicate::CharAngle> >::_Make_iter
; Function compile flags: /Ogsp
;	COMDAT ?_Make_iter@?$vector@UCharAngle@FindPredicate@@V?$allocator@UCharAngle@FindPredicate@@@std@@@std@@QBE?AV?$_Vector_iterator@V?$_Vector_val@UCharAngle@FindPredicate@@V?$allocator@UCharAngle@FindPredicate@@@std@@@std@@@2@V?$_Vector_const_iterator@V?$_Vector_val@UCharAngle@FindPredicate@@V?$allocator@UCharAngle@FindPredicate@@@std@@@std@@@2@@Z
_TEXT	SEGMENT
___$ReturnUdt$ = 8					; size = 4
__Where$ = 12						; size = 4
?_Make_iter@?$vector@UCharAngle@FindPredicate@@V?$allocator@UCharAngle@FindPredicate@@@std@@@std@@QBE?AV?$_Vector_iterator@V?$_Vector_val@UCharAngle@FindPredicate@@V?$allocator@UCharAngle@FindPredicate@@@std@@@std@@@2@V?$_Vector_const_iterator@V?$_Vector_val@UCharAngle@FindPredicate@@V?$allocator@UCharAngle@FindPredicate@@@std@@@std@@@2@@Z PROC ; std::vector<FindPredicate::CharAngle,std::allocator<FindPredicate::CharAngle> >::_Make_iter, COMDAT
; _this$ = ecx

; 801  : 		{	// make iterator from const_iterator

  00000	55		 push	 ebp
  00001	8b ec		 mov	 ebp, esp

; 802  : 		return (iterator(_Where._Ptr, this));

  00003	8b 45 08	 mov	 eax, DWORD PTR ___$ReturnUdt$[ebp]
  00006	8b 4d 0c	 mov	 ecx, DWORD PTR __Where$[ebp]
  00009	89 08		 mov	 DWORD PTR [eax], ecx

; 803  : 		}

  0000b	5d		 pop	 ebp
  0000c	c2 08 00	 ret	 8
?_Make_iter@?$vector@UCharAngle@FindPredicate@@V?$allocator@UCharAngle@FindPredicate@@@std@@@std@@QBE?AV?$_Vector_iterator@V?$_Vector_val@UCharAngle@FindPredicate@@V?$allocator@UCharAngle@FindPredicate@@@std@@@std@@@2@V?$_Vector_const_iterator@V?$_Vector_val@UCharAngle@FindPredicate@@V?$allocator@UCharAngle@FindPredicate@@@std@@@std@@@2@@Z ENDP ; std::vector<FindPredicate::CharAngle,std::allocator<FindPredicate::CharAngle> >::_Make_iter
_TEXT	ENDS
PUBLIC	??9?$_Vector_const_iterator@V?$_Vector_val@UCharDistanceSq@FindPredicate@@V?$allocator@UCharDistanceSq@FindPredicate@@@std@@@std@@@std@@QBE_NABV01@@Z ; std::_Vector_const_iterator<std::_Vector_val<FindPredicate::CharDistanceSq,std::allocator<FindPredicate::CharDistanceSq> > >::operator!=
; Function compile flags: /Ogsp
;	COMDAT ??9?$_Vector_const_iterator@V?$_Vector_val@UCharDistanceSq@FindPredicate@@V?$allocator@UCharDistanceSq@FindPredicate@@@std@@@std@@@std@@QBE_NABV01@@Z
_TEXT	SEGMENT
__Right$ = 8						; size = 4
??9?$_Vector_const_iterator@V?$_Vector_val@UCharDistanceSq@FindPredicate@@V?$allocator@UCharDistanceSq@FindPredicate@@@std@@@std@@@std@@QBE_NABV01@@Z PROC ; std::_Vector_const_iterator<std::_Vector_val<FindPredicate::CharDistanceSq,std::allocator<FindPredicate::CharDistanceSq> > >::operator!=, COMDAT
; _this$ = ecx

; 207  : 		{	// test for iterator inequality

  00000	55		 push	 ebp
  00001	8b ec		 mov	 ebp, esp

; 208  : 		return (!(*this == _Right));

  00003	8b 01		 mov	 eax, DWORD PTR [ecx]
  00005	8b 55 08	 mov	 edx, DWORD PTR __Right$[ebp]
  00008	33 c9		 xor	 ecx, ecx
  0000a	3b 02		 cmp	 eax, DWORD PTR [edx]
  0000c	0f 95 c0	 setne	 al

; 209  : 		}

  0000f	5d		 pop	 ebp
  00010	c2 04 00	 ret	 4
??9?$_Vector_const_iterator@V?$_Vector_val@UCharDistanceSq@FindPredicate@@V?$allocator@UCharDistanceSq@FindPredicate@@@std@@@std@@@std@@QBE_NABV01@@Z ENDP ; std::_Vector_const_iterator<std::_Vector_val<FindPredicate::CharDistanceSq,std::allocator<FindPredicate::CharDistanceSq> > >::operator!=
_TEXT	ENDS
PUBLIC	??9?$_Vector_const_iterator@V?$_Vector_val@UCharAngle@FindPredicate@@V?$allocator@UCharAngle@FindPredicate@@@std@@@std@@@std@@QBE_NABV01@@Z ; std::_Vector_const_iterator<std::_Vector_val<FindPredicate::CharAngle,std::allocator<FindPredicate::CharAngle> > >::operator!=
; Function compile flags: /Ogsp
;	COMDAT ??9?$_Vector_const_iterator@V?$_Vector_val@UCharAngle@FindPredicate@@V?$allocator@UCharAngle@FindPredicate@@@std@@@std@@@std@@QBE_NABV01@@Z
_TEXT	SEGMENT
__Right$ = 8						; size = 4
??9?$_Vector_const_iterator@V?$_Vector_val@UCharAngle@FindPredicate@@V?$allocator@UCharAngle@FindPredicate@@@std@@@std@@@std@@QBE_NABV01@@Z PROC ; std::_Vector_const_iterator<std::_Vector_val<FindPredicate::CharAngle,std::allocator<FindPredicate::CharAngle> > >::operator!=, COMDAT
; _this$ = ecx

; 207  : 		{	// test for iterator inequality

  00000	55		 push	 ebp
  00001	8b ec		 mov	 ebp, esp

; 208  : 		return (!(*this == _Right));

  00003	8b 01		 mov	 eax, DWORD PTR [ecx]
  00005	8b 55 08	 mov	 edx, DWORD PTR __Right$[ebp]
  00008	33 c9		 xor	 ecx, ecx
  0000a	3b 02		 cmp	 eax, DWORD PTR [edx]
  0000c	0f 95 c0	 setne	 al

; 209  : 		}

  0000f	5d		 pop	 ebp
  00010	c2 04 00	 ret	 4
??9?$_Vector_const_iterator@V?$_Vector_val@UCharAngle@FindPredicate@@V?$allocator@UCharAngle@FindPredicate@@@std@@@std@@@std@@QBE_NABV01@@Z ENDP ; std::_Vector_const_iterator<std::_Vector_val<FindPredicate::CharAngle,std::allocator<FindPredicate::CharAngle> > >::operator!=
_TEXT	ENDS
PUBLIC	??$_Cons_val@V?$allocator@UCharDistanceSq@FindPredicate@@@std@@UCharDistanceSq@FindPredicate@@ABU34@@std@@YAXAAV?$allocator@UCharDistanceSq@FindPredicate@@@0@PAUCharDistanceSq@FindPredicate@@ABU23@@Z ; std::_Cons_val<std::allocator<FindPredicate::CharDistanceSq>,FindPredicate::CharDistanceSq,FindPredicate::CharDistanceSq const &>
; Function compile flags: /Ogsp
; File c:\program files (x86)\microsoft visual studio 10.0\vc\include\xmemory
;	COMDAT ??$_Cons_val@V?$allocator@UCharDistanceSq@FindPredicate@@@std@@UCharDistanceSq@FindPredicate@@ABU34@@std@@YAXAAV?$allocator@UCharDistanceSq@FindPredicate@@@0@PAUCharDistanceSq@FindPredicate@@ABU23@@Z
_TEXT	SEGMENT
__Alval$ = 8						; size = 4
__Pdest$ = 12						; size = 4
__Src$ = 16						; size = 4
??$_Cons_val@V?$allocator@UCharDistanceSq@FindPredicate@@@std@@UCharDistanceSq@FindPredicate@@ABU34@@std@@YAXAAV?$allocator@UCharDistanceSq@FindPredicate@@@0@PAUCharDistanceSq@FindPredicate@@ABU23@@Z PROC ; std::_Cons_val<std::allocator<FindPredicate::CharDistanceSq>,FindPredicate::CharDistanceSq,FindPredicate::CharDistanceSq const &>, COMDAT

; 279  : 	{	// construct using allocator

  00000	55		 push	 ebp
  00001	8b ec		 mov	 ebp, esp

; 280  : 	_Alval.construct(_Pdest, _STD forward<_Ty2>(_Src));

  00003	8b 45 0c	 mov	 eax, DWORD PTR __Pdest$[ebp]
  00006	85 c0		 test	 eax, eax
  00008	74 0d		 je	 SHORT $LN9@Cons_val@3
  0000a	8b 4d 10	 mov	 ecx, DWORD PTR __Src$[ebp]
  0000d	8b 11		 mov	 edx, DWORD PTR [ecx]
  0000f	89 10		 mov	 DWORD PTR [eax], edx
  00011	8b 49 04	 mov	 ecx, DWORD PTR [ecx+4]
  00014	89 48 04	 mov	 DWORD PTR [eax+4], ecx
$LN9@Cons_val@3:

; 281  : 	}

  00017	5d		 pop	 ebp
  00018	c3		 ret	 0
??$_Cons_val@V?$allocator@UCharDistanceSq@FindPredicate@@@std@@UCharDistanceSq@FindPredicate@@ABU34@@std@@YAXAAV?$allocator@UCharDistanceSq@FindPredicate@@@0@PAUCharDistanceSq@FindPredicate@@ABU23@@Z ENDP ; std::_Cons_val<std::allocator<FindPredicate::CharDistanceSq>,FindPredicate::CharDistanceSq,FindPredicate::CharDistanceSq const &>
_TEXT	ENDS
PUBLIC	??$_Move@PAUCharDistanceSq@FindPredicate@@PAU12@@std@@YAPAUCharDistanceSq@FindPredicate@@PAU12@00@Z ; std::_Move<FindPredicate::CharDistanceSq *,FindPredicate::CharDistanceSq *>
; Function compile flags: /Ogsp
; File c:\program files (x86)\microsoft visual studio 10.0\vc\include\xutility
;	COMDAT ??$_Move@PAUCharDistanceSq@FindPredicate@@PAU12@@std@@YAPAUCharDistanceSq@FindPredicate@@PAU12@00@Z
_TEXT	SEGMENT
__Cat$528124 = -4					; size = 1
__First$ = 8						; size = 4
__Last$ = 12						; size = 4
__Dest$ = 16						; size = 4
??$_Move@PAUCharDistanceSq@FindPredicate@@PAU12@@std@@YAPAUCharDistanceSq@FindPredicate@@PAU12@00@Z PROC ; std::_Move<FindPredicate::CharDistanceSq *,FindPredicate::CharDistanceSq *>, COMDAT

; 2533 : 	{	// move [_First, _Last) to [_Dest, ...), unchecked

  00000	55		 push	 ebp
  00001	8b ec		 mov	 ebp, esp
  00003	51		 push	 ecx

; 2534 : 	return (_Move(_First, _Last,
; 2535 : 		_Dest, _Ptr_cat(_First, _Dest)));

  00004	ff 75 fc	 push	 DWORD PTR __Cat$528124[ebp]
  00007	ff 75 10	 push	 DWORD PTR __Dest$[ebp]
  0000a	ff 75 0c	 push	 DWORD PTR __Last$[ebp]
  0000d	ff 75 08	 push	 DWORD PTR __First$[ebp]
  00010	e8 00 00 00 00	 call	 ??$_Move@PAUCharDistanceSq@FindPredicate@@PAU12@@std@@YAPAUCharDistanceSq@FindPredicate@@PAU12@00U_Nonscalar_ptr_iterator_tag@0@@Z ; std::_Move<FindPredicate::CharDistanceSq *,FindPredicate::CharDistanceSq *>
  00015	83 c4 10	 add	 esp, 16			; 00000010H

; 2536 : 	}

  00018	c9		 leave
  00019	c3		 ret	 0
??$_Move@PAUCharDistanceSq@FindPredicate@@PAU12@@std@@YAPAUCharDistanceSq@FindPredicate@@PAU12@00@Z ENDP ; std::_Move<FindPredicate::CharDistanceSq *,FindPredicate::CharDistanceSq *>
_TEXT	ENDS
PUBLIC	??$_Cons_val@V?$allocator@UCharAngle@FindPredicate@@@std@@UCharAngle@FindPredicate@@ABU34@@std@@YAXAAV?$allocator@UCharAngle@FindPredicate@@@0@PAUCharAngle@FindPredicate@@ABU23@@Z ; std::_Cons_val<std::allocator<FindPredicate::CharAngle>,FindPredicate::CharAngle,FindPredicate::CharAngle const &>
; Function compile flags: /Ogsp
; File c:\program files (x86)\microsoft visual studio 10.0\vc\include\xmemory
;	COMDAT ??$_Cons_val@V?$allocator@UCharAngle@FindPredicate@@@std@@UCharAngle@FindPredicate@@ABU34@@std@@YAXAAV?$allocator@UCharAngle@FindPredicate@@@0@PAUCharAngle@FindPredicate@@ABU23@@Z
_TEXT	SEGMENT
__Alval$ = 8						; size = 4
__Pdest$ = 12						; size = 4
__Src$ = 16						; size = 4
??$_Cons_val@V?$allocator@UCharAngle@FindPredicate@@@std@@UCharAngle@FindPredicate@@ABU34@@std@@YAXAAV?$allocator@UCharAngle@FindPredicate@@@0@PAUCharAngle@FindPredicate@@ABU23@@Z PROC ; std::_Cons_val<std::allocator<FindPredicate::CharAngle>,FindPredicate::CharAngle,FindPredicate::CharAngle const &>, COMDAT

; 279  : 	{	// construct using allocator

  00000	55		 push	 ebp
  00001	8b ec		 mov	 ebp, esp

; 280  : 	_Alval.construct(_Pdest, _STD forward<_Ty2>(_Src));

  00003	8b 45 0c	 mov	 eax, DWORD PTR __Pdest$[ebp]
  00006	85 c0		 test	 eax, eax
  00008	74 0d		 je	 SHORT $LN9@Cons_val@4
  0000a	8b 4d 10	 mov	 ecx, DWORD PTR __Src$[ebp]
  0000d	8b 11		 mov	 edx, DWORD PTR [ecx]
  0000f	89 10		 mov	 DWORD PTR [eax], edx
  00011	8b 49 04	 mov	 ecx, DWORD PTR [ecx+4]
  00014	89 48 04	 mov	 DWORD PTR [eax+4], ecx
$LN9@Cons_val@4:

; 281  : 	}

  00017	5d		 pop	 ebp
  00018	c3		 ret	 0
??$_Cons_val@V?$allocator@UCharAngle@FindPredicate@@@std@@UCharAngle@FindPredicate@@ABU34@@std@@YAXAAV?$allocator@UCharAngle@FindPredicate@@@0@PAUCharAngle@FindPredicate@@ABU23@@Z ENDP ; std::_Cons_val<std::allocator<FindPredicate::CharAngle>,FindPredicate::CharAngle,FindPredicate::CharAngle const &>
_TEXT	ENDS
PUBLIC	??$_Move@PAUCharAngle@FindPredicate@@PAU12@@std@@YAPAUCharAngle@FindPredicate@@PAU12@00@Z ; std::_Move<FindPredicate::CharAngle *,FindPredicate::CharAngle *>
; Function compile flags: /Ogsp
; File c:\program files (x86)\microsoft visual studio 10.0\vc\include\xutility
;	COMDAT ??$_Move@PAUCharAngle@FindPredicate@@PAU12@@std@@YAPAUCharAngle@FindPredicate@@PAU12@00@Z
_TEXT	SEGMENT
__Cat$528172 = -4					; size = 1
__First$ = 8						; size = 4
__Last$ = 12						; size = 4
__Dest$ = 16						; size = 4
??$_Move@PAUCharAngle@FindPredicate@@PAU12@@std@@YAPAUCharAngle@FindPredicate@@PAU12@00@Z PROC ; std::_Move<FindPredicate::CharAngle *,FindPredicate::CharAngle *>, COMDAT

; 2533 : 	{	// move [_First, _Last) to [_Dest, ...), unchecked

  00000	55		 push	 ebp
  00001	8b ec		 mov	 ebp, esp
  00003	51		 push	 ecx

; 2534 : 	return (_Move(_First, _Last,
; 2535 : 		_Dest, _Ptr_cat(_First, _Dest)));

  00004	ff 75 fc	 push	 DWORD PTR __Cat$528172[ebp]
  00007	ff 75 10	 push	 DWORD PTR __Dest$[ebp]
  0000a	ff 75 0c	 push	 DWORD PTR __Last$[ebp]
  0000d	ff 75 08	 push	 DWORD PTR __First$[ebp]
  00010	e8 00 00 00 00	 call	 ??$_Move@PAUCharAngle@FindPredicate@@PAU12@@std@@YAPAUCharAngle@FindPredicate@@PAU12@00U_Nonscalar_ptr_iterator_tag@0@@Z ; std::_Move<FindPredicate::CharAngle *,FindPredicate::CharAngle *>
  00015	83 c4 10	 add	 esp, 16			; 00000010H

; 2536 : 	}

  00018	c9		 leave
  00019	c3		 ret	 0
??$_Move@PAUCharAngle@FindPredicate@@PAU12@@std@@YAPAUCharAngle@FindPredicate@@PAU12@00@Z ENDP ; std::_Move<FindPredicate::CharAngle *,FindPredicate::CharAngle *>
_TEXT	ENDS
PUBLIC	??$_Dest_val@V?$allocator@UCharDistanceSq@FindPredicate@@@std@@UCharDistanceSq@FindPredicate@@@std@@YAXAAV?$allocator@UCharDistanceSq@FindPredicate@@@0@PAUCharDistanceSq@FindPredicate@@@Z ; std::_Dest_val<std::allocator<FindPredicate::CharDistanceSq>,FindPredicate::CharDistanceSq>
; Function compile flags: /Ogsp
; File c:\program files (x86)\microsoft visual studio 10.0\vc\include\xmemory
;	COMDAT ??$_Dest_val@V?$allocator@UCharDistanceSq@FindPredicate@@@std@@UCharDistanceSq@FindPredicate@@@std@@YAXAAV?$allocator@UCharDistanceSq@FindPredicate@@@0@PAUCharDistanceSq@FindPredicate@@@Z
_TEXT	SEGMENT
__Alval$ = 8						; size = 4
__Pdest$ = 12						; size = 4
??$_Dest_val@V?$allocator@UCharDistanceSq@FindPredicate@@@std@@UCharDistanceSq@FindPredicate@@@std@@YAXAAV?$allocator@UCharDistanceSq@FindPredicate@@@0@PAUCharDistanceSq@FindPredicate@@@Z PROC ; std::_Dest_val<std::allocator<FindPredicate::CharDistanceSq>,FindPredicate::CharDistanceSq>, COMDAT

; 287  : 	_Alval.destroy(_Pdest);
; 288  : 	}

  00000	c3		 ret	 0
??$_Dest_val@V?$allocator@UCharDistanceSq@FindPredicate@@@std@@UCharDistanceSq@FindPredicate@@@std@@YAXAAV?$allocator@UCharDistanceSq@FindPredicate@@@0@PAUCharDistanceSq@FindPredicate@@@Z ENDP ; std::_Dest_val<std::allocator<FindPredicate::CharDistanceSq>,FindPredicate::CharDistanceSq>
_TEXT	ENDS
PUBLIC	??$_Dest_val@V?$allocator@UCharAngle@FindPredicate@@@std@@UCharAngle@FindPredicate@@@std@@YAXAAV?$allocator@UCharAngle@FindPredicate@@@0@PAUCharAngle@FindPredicate@@@Z ; std::_Dest_val<std::allocator<FindPredicate::CharAngle>,FindPredicate::CharAngle>
; Function compile flags: /Ogsp
;	COMDAT ??$_Dest_val@V?$allocator@UCharAngle@FindPredicate@@@std@@UCharAngle@FindPredicate@@@std@@YAXAAV?$allocator@UCharAngle@FindPredicate@@@0@PAUCharAngle@FindPredicate@@@Z
_TEXT	SEGMENT
__Alval$ = 8						; size = 4
__Pdest$ = 12						; size = 4
??$_Dest_val@V?$allocator@UCharAngle@FindPredicate@@@std@@UCharAngle@FindPredicate@@@std@@YAXAAV?$allocator@UCharAngle@FindPredicate@@@0@PAUCharAngle@FindPredicate@@@Z PROC ; std::_Dest_val<std::allocator<FindPredicate::CharAngle>,FindPredicate::CharAngle>, COMDAT

; 287  : 	_Alval.destroy(_Pdest);
; 288  : 	}

  00000	c3		 ret	 0
??$_Dest_val@V?$allocator@UCharAngle@FindPredicate@@@std@@UCharAngle@FindPredicate@@@std@@YAXAAV?$allocator@UCharAngle@FindPredicate@@@0@PAUCharAngle@FindPredicate@@@Z ENDP ; std::_Dest_val<std::allocator<FindPredicate::CharAngle>,FindPredicate::CharAngle>
_TEXT	ENDS
PUBLIC	??$iter_swap@PAUCharDistanceSq@FindPredicate@@PAU12@@std@@YAXPAUCharDistanceSq@FindPredicate@@0@Z ; std::iter_swap<FindPredicate::CharDistanceSq *,FindPredicate::CharDistanceSq *>
; Function compile flags: /Ogsp
; File c:\program files (x86)\microsoft visual studio 10.0\vc\include\xutility
;	COMDAT ??$iter_swap@PAUCharDistanceSq@FindPredicate@@PAU12@@std@@YAXPAUCharDistanceSq@FindPredicate@@0@Z
_TEXT	SEGMENT
__Left$ = 8						; size = 4
__Right$ = 12						; size = 4
??$iter_swap@PAUCharDistanceSq@FindPredicate@@PAU12@@std@@YAXPAUCharDistanceSq@FindPredicate@@0@Z PROC ; std::iter_swap<FindPredicate::CharDistanceSq *,FindPredicate::CharDistanceSq *>, COMDAT

; 2133 : 	{	// swap *_Left and *_Right

  00000	55		 push	 ebp
  00001	8b ec		 mov	 ebp, esp

; 2134 : 	swap(*_Left, *_Right);

  00003	8b 4d 0c	 mov	 ecx, DWORD PTR __Right$[ebp]
  00006	8b 45 08	 mov	 eax, DWORD PTR __Left$[ebp]
  00009	8b 10		 mov	 edx, DWORD PTR [eax]
  0000b	56		 push	 esi
  0000c	8b 70 04	 mov	 esi, DWORD PTR [eax+4]
  0000f	57		 push	 edi
  00010	8b 39		 mov	 edi, DWORD PTR [ecx]
  00012	89 38		 mov	 DWORD PTR [eax], edi
  00014	8b 79 04	 mov	 edi, DWORD PTR [ecx+4]
  00017	89 78 04	 mov	 DWORD PTR [eax+4], edi
  0001a	5f		 pop	 edi
  0001b	89 71 04	 mov	 DWORD PTR [ecx+4], esi
  0001e	89 11		 mov	 DWORD PTR [ecx], edx
  00020	5e		 pop	 esi

; 2135 : 	}

  00021	5d		 pop	 ebp
  00022	c3		 ret	 0
??$iter_swap@PAUCharDistanceSq@FindPredicate@@PAU12@@std@@YAXPAUCharDistanceSq@FindPredicate@@0@Z ENDP ; std::iter_swap<FindPredicate::CharDistanceSq *,FindPredicate::CharDistanceSq *>
_TEXT	ENDS
PUBLIC	??$_Insertion_sort1@PAUCharDistanceSq@FindPredicate@@U12@@std@@YAXPAUCharDistanceSq@FindPredicate@@00@Z ; std::_Insertion_sort1<FindPredicate::CharDistanceSq *,FindPredicate::CharDistanceSq>
; Function compile flags: /Ogsp
; File c:\program files (x86)\microsoft visual studio 10.0\vc\include\algorithm
;	COMDAT ??$_Insertion_sort1@PAUCharDistanceSq@FindPredicate@@U12@@std@@YAXPAUCharDistanceSq@FindPredicate@@00@Z
_TEXT	SEGMENT
__Val$526270 = -8					; size = 8
__First$ = 8						; size = 4
__Cat$528239 = 12					; size = 1
__Last$ = 12						; size = 4
___formal$ = 16						; size = 4
??$_Insertion_sort1@PAUCharDistanceSq@FindPredicate@@U12@@std@@YAXPAUCharDistanceSq@FindPredicate@@00@Z PROC ; std::_Insertion_sort1<FindPredicate::CharDistanceSq *,FindPredicate::CharDistanceSq>, COMDAT

; 3493 : 	{	// insertion sort [_First, _Last), using operator<

  00000	55		 push	 ebp
  00001	8b ec		 mov	 ebp, esp
  00003	51		 push	 ecx
  00004	51		 push	 ecx
  00005	57		 push	 edi

; 3494 : 	if (_First != _Last)

  00006	8b 7d 08	 mov	 edi, DWORD PTR __First$[ebp]
  00009	3b 7d 0c	 cmp	 edi, DWORD PTR __Last$[ebp]
  0000c	0f 84 80 00 00
	00		 je	 $LN6@Insertion_

; 3495 : 		for (_BidIt _Next = _First; ++_Next != _Last; )

  00012	56		 push	 esi
  00013	8d 77 08	 lea	 esi, DWORD PTR [edi+8]
  00016	3b 75 0c	 cmp	 esi, DWORD PTR __Last$[ebp]
  00019	74 76		 je	 SHORT $LN35@Insertion_
  0001b	53		 push	 ebx
$LL7@Insertion_:

; 3496 : 			{	// order next element
; 3497 : 			_BidIt _Next1 = _Next;
; 3498 : 			_Ty _Val = _Move(*_Next);

  0001c	8b 4e 04	 mov	 ecx, DWORD PTR [esi+4]

; 3499 : 
; 3500 : 			if (_DEBUG_LT(_Val, *_First))

  0001f	f3 0f 10 4f 04	 movss	 xmm1, DWORD PTR [edi+4]
  00024	8b 1e		 mov	 ebx, DWORD PTR [esi]
  00026	89 4d fc	 mov	 DWORD PTR __Val$526270[ebp+4], ecx
  00029	f3 0f 10 45 fc	 movss	 xmm0, DWORD PTR __Val$526270[ebp+4]
  0002e	0f 5a c0	 cvtps2pd xmm0, xmm0
  00031	0f 5a c9	 cvtps2pd xmm1, xmm1
  00034	66 0f 2f c8	 comisd	 xmm1, xmm0
  00038	8b c6		 mov	 eax, esi
  0003a	76 1b		 jbe	 SHORT $LN5@Insertion_

; 3501 : 				{	// found new earliest element, move to front
; 3502 : 				_Move_backward(_First, _Next, ++_Next1);

  0003c	ff 75 0c	 push	 DWORD PTR __Cat$528239[ebp]
  0003f	8d 46 08	 lea	 eax, DWORD PTR [esi+8]
  00042	50		 push	 eax
  00043	56		 push	 esi
  00044	57		 push	 edi
  00045	e8 00 00 00 00	 call	 ??$_Move_backward@PAUCharDistanceSq@FindPredicate@@PAU12@@std@@YAPAUCharDistanceSq@FindPredicate@@PAU12@00U_Nonscalar_ptr_iterator_tag@0@@Z ; std::_Move_backward<FindPredicate::CharDistanceSq *,FindPredicate::CharDistanceSq *>

; 3503 : 				*_First = _Move(_Val);

  0004a	8b 45 fc	 mov	 eax, DWORD PTR __Val$526270[ebp+4]
  0004d	83 c4 10	 add	 esp, 16			; 00000010H
  00050	89 1f		 mov	 DWORD PTR [edi], ebx
  00052	89 47 04	 mov	 DWORD PTR [edi+4], eax

; 3504 : 				}
; 3505 : 			else

  00055	eb 31		 jmp	 SHORT $LN4@Insertion_
$LN5@Insertion_:

; 3506 : 				{	// look for insertion point after first
; 3507 : 				for (_BidIt _First1 = _Next1;

  00057	8b ce		 mov	 ecx, esi
$LL3@Insertion_:

; 3508 : 					_DEBUG_LT(_Val, *--_First1);
; 3509 : 					_Next1 = _First1)

  00059	f3 0f 10 45 fc	 movss	 xmm0, DWORD PTR __Val$526270[ebp+4]
  0005e	f3 0f 10 49 fc	 movss	 xmm1, DWORD PTR [ecx-4]
  00063	83 e9 08	 sub	 ecx, 8
  00066	0f 5a c0	 cvtps2pd xmm0, xmm0
  00069	0f 5a c9	 cvtps2pd xmm1, xmm1
  0006c	66 0f 2f c8	 comisd	 xmm1, xmm0
  00070	76 0e		 jbe	 SHORT $LN25@Insertion_

; 3510 : 					*_Next1 = _Move(*_First1);	// move hole down

  00072	8b 11		 mov	 edx, DWORD PTR [ecx]
  00074	89 10		 mov	 DWORD PTR [eax], edx
  00076	8b 51 04	 mov	 edx, DWORD PTR [ecx+4]
  00079	89 50 04	 mov	 DWORD PTR [eax+4], edx
  0007c	8b c1		 mov	 eax, ecx
  0007e	eb d9		 jmp	 SHORT $LL3@Insertion_

; 3508 : 					_DEBUG_LT(_Val, *--_First1);
; 3509 : 					_Next1 = _First1)

$LN25@Insertion_:

; 3511 : 				*_Next1 = _Move(_Val);	// insert element in hole

  00080	8b 4d fc	 mov	 ecx, DWORD PTR __Val$526270[ebp+4]
  00083	89 18		 mov	 DWORD PTR [eax], ebx
  00085	89 48 04	 mov	 DWORD PTR [eax+4], ecx
$LN4@Insertion_:

; 3495 : 		for (_BidIt _Next = _First; ++_Next != _Last; )

  00088	83 c6 08	 add	 esi, 8
  0008b	3b 75 0c	 cmp	 esi, DWORD PTR __Last$[ebp]
  0008e	75 8c		 jne	 SHORT $LL7@Insertion_
  00090	5b		 pop	 ebx
$LN35@Insertion_:
  00091	5e		 pop	 esi
$LN6@Insertion_:
  00092	5f		 pop	 edi

; 3512 : 				}
; 3513 : 			}
; 3514 : 	}

  00093	c9		 leave
  00094	c3		 ret	 0
??$_Insertion_sort1@PAUCharDistanceSq@FindPredicate@@U12@@std@@YAXPAUCharDistanceSq@FindPredicate@@00@Z ENDP ; std::_Insertion_sort1<FindPredicate::CharDistanceSq *,FindPredicate::CharDistanceSq>
_TEXT	ENDS
PUBLIC	??$iter_swap@PAUCharAngle@FindPredicate@@PAU12@@std@@YAXPAUCharAngle@FindPredicate@@0@Z ; std::iter_swap<FindPredicate::CharAngle *,FindPredicate::CharAngle *>
; Function compile flags: /Ogsp
; File c:\program files (x86)\microsoft visual studio 10.0\vc\include\xutility
;	COMDAT ??$iter_swap@PAUCharAngle@FindPredicate@@PAU12@@std@@YAXPAUCharAngle@FindPredicate@@0@Z
_TEXT	SEGMENT
__Left$ = 8						; size = 4
__Right$ = 12						; size = 4
??$iter_swap@PAUCharAngle@FindPredicate@@PAU12@@std@@YAXPAUCharAngle@FindPredicate@@0@Z PROC ; std::iter_swap<FindPredicate::CharAngle *,FindPredicate::CharAngle *>, COMDAT

; 2133 : 	{	// swap *_Left and *_Right

  00000	55		 push	 ebp
  00001	8b ec		 mov	 ebp, esp

; 2134 : 	swap(*_Left, *_Right);

  00003	8b 4d 0c	 mov	 ecx, DWORD PTR __Right$[ebp]
  00006	8b 45 08	 mov	 eax, DWORD PTR __Left$[ebp]
  00009	8b 10		 mov	 edx, DWORD PTR [eax]
  0000b	56		 push	 esi
  0000c	8b 70 04	 mov	 esi, DWORD PTR [eax+4]
  0000f	57		 push	 edi
  00010	8b 39		 mov	 edi, DWORD PTR [ecx]
  00012	89 38		 mov	 DWORD PTR [eax], edi
  00014	8b 79 04	 mov	 edi, DWORD PTR [ecx+4]
  00017	89 78 04	 mov	 DWORD PTR [eax+4], edi
  0001a	5f		 pop	 edi
  0001b	89 71 04	 mov	 DWORD PTR [ecx+4], esi
  0001e	89 11		 mov	 DWORD PTR [ecx], edx
  00020	5e		 pop	 esi

; 2135 : 	}

  00021	5d		 pop	 ebp
  00022	c3		 ret	 0
??$iter_swap@PAUCharAngle@FindPredicate@@PAU12@@std@@YAXPAUCharAngle@FindPredicate@@0@Z ENDP ; std::iter_swap<FindPredicate::CharAngle *,FindPredicate::CharAngle *>
_TEXT	ENDS
PUBLIC	??$_Insertion_sort1@PAUCharAngle@FindPredicate@@U12@@std@@YAXPAUCharAngle@FindPredicate@@00@Z ; std::_Insertion_sort1<FindPredicate::CharAngle *,FindPredicate::CharAngle>
; Function compile flags: /Ogsp
; File c:\program files (x86)\microsoft visual studio 10.0\vc\include\algorithm
;	COMDAT ??$_Insertion_sort1@PAUCharAngle@FindPredicate@@U12@@std@@YAXPAUCharAngle@FindPredicate@@00@Z
_TEXT	SEGMENT
__Val$526364 = -8					; size = 8
__First$ = 8						; size = 4
__Cat$528306 = 12					; size = 1
__Last$ = 12						; size = 4
___formal$ = 16						; size = 4
??$_Insertion_sort1@PAUCharAngle@FindPredicate@@U12@@std@@YAXPAUCharAngle@FindPredicate@@00@Z PROC ; std::_Insertion_sort1<FindPredicate::CharAngle *,FindPredicate::CharAngle>, COMDAT

; 3493 : 	{	// insertion sort [_First, _Last), using operator<

  00000	55		 push	 ebp
  00001	8b ec		 mov	 ebp, esp
  00003	51		 push	 ecx
  00004	51		 push	 ecx
  00005	57		 push	 edi

; 3494 : 	if (_First != _Last)

  00006	8b 7d 08	 mov	 edi, DWORD PTR __First$[ebp]
  00009	3b 7d 0c	 cmp	 edi, DWORD PTR __Last$[ebp]
  0000c	0f 84 80 00 00
	00		 je	 $LN6@Insertion_@2

; 3495 : 		for (_BidIt _Next = _First; ++_Next != _Last; )

  00012	56		 push	 esi
  00013	8d 77 08	 lea	 esi, DWORD PTR [edi+8]
  00016	3b 75 0c	 cmp	 esi, DWORD PTR __Last$[ebp]
  00019	74 76		 je	 SHORT $LN35@Insertion_@2
  0001b	53		 push	 ebx
$LL7@Insertion_@2:

; 3496 : 			{	// order next element
; 3497 : 			_BidIt _Next1 = _Next;
; 3498 : 			_Ty _Val = _Move(*_Next);

  0001c	8b 4e 04	 mov	 ecx, DWORD PTR [esi+4]

; 3499 : 
; 3500 : 			if (_DEBUG_LT(_Val, *_First))

  0001f	f3 0f 10 4f 04	 movss	 xmm1, DWORD PTR [edi+4]
  00024	8b 1e		 mov	 ebx, DWORD PTR [esi]
  00026	89 4d fc	 mov	 DWORD PTR __Val$526364[ebp+4], ecx
  00029	f3 0f 10 45 fc	 movss	 xmm0, DWORD PTR __Val$526364[ebp+4]
  0002e	0f 5a c0	 cvtps2pd xmm0, xmm0
  00031	0f 5a c9	 cvtps2pd xmm1, xmm1
  00034	66 0f 2f c8	 comisd	 xmm1, xmm0
  00038	8b c6		 mov	 eax, esi
  0003a	76 1b		 jbe	 SHORT $LN5@Insertion_@2

; 3501 : 				{	// found new earliest element, move to front
; 3502 : 				_Move_backward(_First, _Next, ++_Next1);

  0003c	ff 75 0c	 push	 DWORD PTR __Cat$528306[ebp]
  0003f	8d 46 08	 lea	 eax, DWORD PTR [esi+8]
  00042	50		 push	 eax
  00043	56		 push	 esi
  00044	57		 push	 edi
  00045	e8 00 00 00 00	 call	 ??$_Move_backward@PAUCharAngle@FindPredicate@@PAU12@@std@@YAPAUCharAngle@FindPredicate@@PAU12@00U_Nonscalar_ptr_iterator_tag@0@@Z ; std::_Move_backward<FindPredicate::CharAngle *,FindPredicate::CharAngle *>

; 3503 : 				*_First = _Move(_Val);

  0004a	8b 45 fc	 mov	 eax, DWORD PTR __Val$526364[ebp+4]
  0004d	83 c4 10	 add	 esp, 16			; 00000010H
  00050	89 1f		 mov	 DWORD PTR [edi], ebx
  00052	89 47 04	 mov	 DWORD PTR [edi+4], eax

; 3504 : 				}
; 3505 : 			else

  00055	eb 31		 jmp	 SHORT $LN4@Insertion_@2
$LN5@Insertion_@2:

; 3506 : 				{	// look for insertion point after first
; 3507 : 				for (_BidIt _First1 = _Next1;

  00057	8b ce		 mov	 ecx, esi
$LL3@Insertion_@2:

; 3508 : 					_DEBUG_LT(_Val, *--_First1);
; 3509 : 					_Next1 = _First1)

  00059	f3 0f 10 45 fc	 movss	 xmm0, DWORD PTR __Val$526364[ebp+4]
  0005e	f3 0f 10 49 fc	 movss	 xmm1, DWORD PTR [ecx-4]
  00063	83 e9 08	 sub	 ecx, 8
  00066	0f 5a c0	 cvtps2pd xmm0, xmm0
  00069	0f 5a c9	 cvtps2pd xmm1, xmm1
  0006c	66 0f 2f c8	 comisd	 xmm1, xmm0
  00070	76 0e		 jbe	 SHORT $LN25@Insertion_@2

; 3510 : 					*_Next1 = _Move(*_First1);	// move hole down

  00072	8b 11		 mov	 edx, DWORD PTR [ecx]
  00074	89 10		 mov	 DWORD PTR [eax], edx
  00076	8b 51 04	 mov	 edx, DWORD PTR [ecx+4]
  00079	89 50 04	 mov	 DWORD PTR [eax+4], edx
  0007c	8b c1		 mov	 eax, ecx
  0007e	eb d9		 jmp	 SHORT $LL3@Insertion_@2

; 3508 : 					_DEBUG_LT(_Val, *--_First1);
; 3509 : 					_Next1 = _First1)

$LN25@Insertion_@2:

; 3511 : 				*_Next1 = _Move(_Val);	// insert element in hole

  00080	8b 4d fc	 mov	 ecx, DWORD PTR __Val$526364[ebp+4]
  00083	89 18		 mov	 DWORD PTR [eax], ebx
  00085	89 48 04	 mov	 DWORD PTR [eax+4], ecx
$LN4@Insertion_@2:

; 3495 : 		for (_BidIt _Next = _First; ++_Next != _Last; )

  00088	83 c6 08	 add	 esi, 8
  0008b	3b 75 0c	 cmp	 esi, DWORD PTR __Last$[ebp]
  0008e	75 8c		 jne	 SHORT $LL7@Insertion_@2
  00090	5b		 pop	 ebx
$LN35@Insertion_@2:
  00091	5e		 pop	 esi
$LN6@Insertion_@2:
  00092	5f		 pop	 edi

; 3512 : 				}
; 3513 : 			}
; 3514 : 	}

  00093	c9		 leave
  00094	c3		 ret	 0
??$_Insertion_sort1@PAUCharAngle@FindPredicate@@U12@@std@@YAXPAUCharAngle@FindPredicate@@00@Z ENDP ; std::_Insertion_sort1<FindPredicate::CharAngle *,FindPredicate::CharAngle>
_TEXT	ENDS
PUBLIC	??$_Cons_val@V?$allocator@UCharDistanceSq@FindPredicate@@@std@@UCharDistanceSq@FindPredicate@@U34@@std@@YAXAAV?$allocator@UCharDistanceSq@FindPredicate@@@0@PAUCharDistanceSq@FindPredicate@@$$QAU23@@Z ; std::_Cons_val<std::allocator<FindPredicate::CharDistanceSq>,FindPredicate::CharDistanceSq,FindPredicate::CharDistanceSq>
; Function compile flags: /Ogsp
; File c:\program files (x86)\microsoft visual studio 10.0\vc\include\xmemory
;	COMDAT ??$_Cons_val@V?$allocator@UCharDistanceSq@FindPredicate@@@std@@UCharDistanceSq@FindPredicate@@U34@@std@@YAXAAV?$allocator@UCharDistanceSq@FindPredicate@@@0@PAUCharDistanceSq@FindPredicate@@$$QAU23@@Z
_TEXT	SEGMENT
__Alval$ = 8						; size = 4
__Pdest$ = 12						; size = 4
__Src$ = 16						; size = 4
??$_Cons_val@V?$allocator@UCharDistanceSq@FindPredicate@@@std@@UCharDistanceSq@FindPredicate@@U34@@std@@YAXAAV?$allocator@UCharDistanceSq@FindPredicate@@@0@PAUCharDistanceSq@FindPredicate@@$$QAU23@@Z PROC ; std::_Cons_val<std::allocator<FindPredicate::CharDistanceSq>,FindPredicate::CharDistanceSq,FindPredicate::CharDistanceSq>, COMDAT

; 279  : 	{	// construct using allocator

  00000	55		 push	 ebp
  00001	8b ec		 mov	 ebp, esp

; 280  : 	_Alval.construct(_Pdest, _STD forward<_Ty2>(_Src));

  00003	8b 45 0c	 mov	 eax, DWORD PTR __Pdest$[ebp]
  00006	85 c0		 test	 eax, eax
  00008	74 0d		 je	 SHORT $LN7@Cons_val@5
  0000a	8b 4d 10	 mov	 ecx, DWORD PTR __Src$[ebp]
  0000d	8b 11		 mov	 edx, DWORD PTR [ecx]
  0000f	89 10		 mov	 DWORD PTR [eax], edx
  00011	8b 49 04	 mov	 ecx, DWORD PTR [ecx+4]
  00014	89 48 04	 mov	 DWORD PTR [eax+4], ecx
$LN7@Cons_val@5:

; 281  : 	}

  00017	5d		 pop	 ebp
  00018	c3		 ret	 0
??$_Cons_val@V?$allocator@UCharDistanceSq@FindPredicate@@@std@@UCharDistanceSq@FindPredicate@@U34@@std@@YAXAAV?$allocator@UCharDistanceSq@FindPredicate@@@0@PAUCharDistanceSq@FindPredicate@@$$QAU23@@Z ENDP ; std::_Cons_val<std::allocator<FindPredicate::CharDistanceSq>,FindPredicate::CharDistanceSq,FindPredicate::CharDistanceSq>
_TEXT	ENDS
PUBLIC	??$_Cons_val@V?$allocator@UCharAngle@FindPredicate@@@std@@UCharAngle@FindPredicate@@U34@@std@@YAXAAV?$allocator@UCharAngle@FindPredicate@@@0@PAUCharAngle@FindPredicate@@$$QAU23@@Z ; std::_Cons_val<std::allocator<FindPredicate::CharAngle>,FindPredicate::CharAngle,FindPredicate::CharAngle>
; Function compile flags: /Ogsp
;	COMDAT ??$_Cons_val@V?$allocator@UCharAngle@FindPredicate@@@std@@UCharAngle@FindPredicate@@U34@@std@@YAXAAV?$allocator@UCharAngle@FindPredicate@@@0@PAUCharAngle@FindPredicate@@$$QAU23@@Z
_TEXT	SEGMENT
__Alval$ = 8						; size = 4
__Pdest$ = 12						; size = 4
__Src$ = 16						; size = 4
??$_Cons_val@V?$allocator@UCharAngle@FindPredicate@@@std@@UCharAngle@FindPredicate@@U34@@std@@YAXAAV?$allocator@UCharAngle@FindPredicate@@@0@PAUCharAngle@FindPredicate@@$$QAU23@@Z PROC ; std::_Cons_val<std::allocator<FindPredicate::CharAngle>,FindPredicate::CharAngle,FindPredicate::CharAngle>, COMDAT

; 279  : 	{	// construct using allocator

  00000	55		 push	 ebp
  00001	8b ec		 mov	 ebp, esp

; 280  : 	_Alval.construct(_Pdest, _STD forward<_Ty2>(_Src));

  00003	8b 45 0c	 mov	 eax, DWORD PTR __Pdest$[ebp]
  00006	85 c0		 test	 eax, eax
  00008	74 0d		 je	 SHORT $LN7@Cons_val@6
  0000a	8b 4d 10	 mov	 ecx, DWORD PTR __Src$[ebp]
  0000d	8b 11		 mov	 edx, DWORD PTR [ecx]
  0000f	89 10		 mov	 DWORD PTR [eax], edx
  00011	8b 49 04	 mov	 ecx, DWORD PTR [ecx+4]
  00014	89 48 04	 mov	 DWORD PTR [eax+4], ecx
$LN7@Cons_val@6:

; 281  : 	}

  00017	5d		 pop	 ebp
  00018	c3		 ret	 0
??$_Cons_val@V?$allocator@UCharAngle@FindPredicate@@@std@@UCharAngle@FindPredicate@@U34@@std@@YAXAAV?$allocator@UCharAngle@FindPredicate@@@0@PAUCharAngle@FindPredicate@@$$QAU23@@Z ENDP ; std::_Cons_val<std::allocator<FindPredicate::CharAngle>,FindPredicate::CharAngle,FindPredicate::CharAngle>
_TEXT	ENDS
PUBLIC	??$_Med3@PAUCharDistanceSq@FindPredicate@@@std@@YAXPAUCharDistanceSq@FindPredicate@@00@Z ; std::_Med3<FindPredicate::CharDistanceSq *>
; Function compile flags: /Ogsp
; File c:\program files (x86)\microsoft visual studio 10.0\vc\include\algorithm
;	COMDAT ??$_Med3@PAUCharDistanceSq@FindPredicate@@@std@@YAXPAUCharDistanceSq@FindPredicate@@00@Z
_TEXT	SEGMENT
__First$ = 8						; size = 4
__Mid$ = 12						; size = 4
__Last$ = 16						; size = 4
??$_Med3@PAUCharDistanceSq@FindPredicate@@@std@@YAXPAUCharDistanceSq@FindPredicate@@00@Z PROC ; std::_Med3<FindPredicate::CharDistanceSq *>, COMDAT

; 3524 : 	{	// sort median of three elements to middle

  00000	55		 push	 ebp
  00001	8b ec		 mov	 ebp, esp

; 3525 : 	if (_DEBUG_LT(*_Mid, *_First))

  00003	8b 45 0c	 mov	 eax, DWORD PTR __Mid$[ebp]
  00006	8b 4d 08	 mov	 ecx, DWORD PTR __First$[ebp]
  00009	f3 0f 10 40 04	 movss	 xmm0, DWORD PTR [eax+4]
  0000e	f3 0f 10 49 04	 movss	 xmm1, DWORD PTR [ecx+4]
  00013	56		 push	 esi
  00014	0f 5a c0	 cvtps2pd xmm0, xmm0
  00017	0f 5a c9	 cvtps2pd xmm1, xmm1
  0001a	66 0f 2f c8	 comisd	 xmm1, xmm0
  0001e	57		 push	 edi
  0001f	76 14		 jbe	 SHORT $LN12@Med3

; 3526 : 		_STD iter_swap(_Mid, _First);

  00021	8b 39		 mov	 edi, DWORD PTR [ecx]
  00023	8b 10		 mov	 edx, DWORD PTR [eax]
  00025	8b 70 04	 mov	 esi, DWORD PTR [eax+4]
  00028	89 38		 mov	 DWORD PTR [eax], edi
  0002a	8b 79 04	 mov	 edi, DWORD PTR [ecx+4]
  0002d	89 78 04	 mov	 DWORD PTR [eax+4], edi
  00030	89 11		 mov	 DWORD PTR [ecx], edx
  00032	89 71 04	 mov	 DWORD PTR [ecx+4], esi
$LN12@Med3:

; 3527 : 	if (_DEBUG_LT(*_Last, *_Mid))

  00035	8b 55 10	 mov	 edx, DWORD PTR __Last$[ebp]
  00038	f3 0f 10 42 04	 movss	 xmm0, DWORD PTR [edx+4]
  0003d	f3 0f 10 48 04	 movss	 xmm1, DWORD PTR [eax+4]
  00042	0f 5a c0	 cvtps2pd xmm0, xmm0
  00045	0f 5a c9	 cvtps2pd xmm1, xmm1
  00048	66 0f 2f c8	 comisd	 xmm1, xmm0
  0004c	76 16		 jbe	 SHORT $LN26@Med3

; 3528 : 		_STD iter_swap(_Last, _Mid);

  0004e	8b 32		 mov	 esi, DWORD PTR [edx]
  00050	8b 7a 04	 mov	 edi, DWORD PTR [edx+4]
  00053	53		 push	 ebx
  00054	8b 18		 mov	 ebx, DWORD PTR [eax]
  00056	89 1a		 mov	 DWORD PTR [edx], ebx
  00058	8b 58 04	 mov	 ebx, DWORD PTR [eax+4]
  0005b	89 5a 04	 mov	 DWORD PTR [edx+4], ebx
  0005e	89 30		 mov	 DWORD PTR [eax], esi
  00060	89 78 04	 mov	 DWORD PTR [eax+4], edi
  00063	5b		 pop	 ebx
$LN26@Med3:

; 3529 : 	if (_DEBUG_LT(*_Mid, *_First))

  00064	f3 0f 10 40 04	 movss	 xmm0, DWORD PTR [eax+4]
  00069	f3 0f 10 49 04	 movss	 xmm1, DWORD PTR [ecx+4]
  0006e	0f 5a c0	 cvtps2pd xmm0, xmm0
  00071	0f 5a c9	 cvtps2pd xmm1, xmm1
  00074	66 0f 2f c8	 comisd	 xmm1, xmm0
  00078	76 14		 jbe	 SHORT $LN40@Med3

; 3530 : 		_STD iter_swap(_Mid, _First);

  0007a	8b 39		 mov	 edi, DWORD PTR [ecx]
  0007c	8b 10		 mov	 edx, DWORD PTR [eax]
  0007e	8b 70 04	 mov	 esi, DWORD PTR [eax+4]
  00081	89 38		 mov	 DWORD PTR [eax], edi
  00083	8b 79 04	 mov	 edi, DWORD PTR [ecx+4]
  00086	89 78 04	 mov	 DWORD PTR [eax+4], edi
  00089	89 11		 mov	 DWORD PTR [ecx], edx
  0008b	89 71 04	 mov	 DWORD PTR [ecx+4], esi
$LN40@Med3:
  0008e	5f		 pop	 edi
  0008f	5e		 pop	 esi

; 3531 : 	}

  00090	5d		 pop	 ebp
  00091	c3		 ret	 0
??$_Med3@PAUCharDistanceSq@FindPredicate@@@std@@YAXPAUCharDistanceSq@FindPredicate@@00@Z ENDP ; std::_Med3<FindPredicate::CharDistanceSq *>
_TEXT	ENDS
PUBLIC	??$_Adjust_heap@PAUCharDistanceSq@FindPredicate@@HU12@@std@@YAXPAUCharDistanceSq@FindPredicate@@HH$$QAU12@@Z ; std::_Adjust_heap<FindPredicate::CharDistanceSq *,int,FindPredicate::CharDistanceSq>
; Function compile flags: /Ogsp
;	COMDAT ??$_Adjust_heap@PAUCharDistanceSq@FindPredicate@@HU12@@std@@YAXPAUCharDistanceSq@FindPredicate@@HH$$QAU12@@Z
_TEXT	SEGMENT
__First$ = 8						; size = 4
__Hole$ = 12						; size = 4
__Bottom$ = 16						; size = 4
__Val$ = 20						; size = 4
??$_Adjust_heap@PAUCharDistanceSq@FindPredicate@@HU12@@std@@YAXPAUCharDistanceSq@FindPredicate@@HH$$QAU12@@Z PROC ; std::_Adjust_heap<FindPredicate::CharDistanceSq *,int,FindPredicate::CharDistanceSq>, COMDAT

; 2502 : 	{	// percolate _Hole to _Bottom, then push _Val, using operator<

  00000	55		 push	 ebp
  00001	8b ec		 mov	 ebp, esp

; 2503 : 	_Diff _Top = _Hole;

  00003	8b 55 0c	 mov	 edx, DWORD PTR __Hole$[ebp]

; 2504 : 	_Diff _Idx = 2 * _Hole + 2;
; 2505 : 
; 2506 : 	for (; _Idx < _Bottom; _Idx = 2 * _Idx + 2)

  00006	8b 45 08	 mov	 eax, DWORD PTR __First$[ebp]
  00009	56		 push	 esi
  0000a	8b 75 10	 mov	 esi, DWORD PTR __Bottom$[ebp]
  0000d	8d 4c 12 02	 lea	 ecx, DWORD PTR [edx+edx+2]
  00011	57		 push	 edi
  00012	8b fa		 mov	 edi, edx
  00014	3b ce		 cmp	 ecx, esi
  00016	7d 33		 jge	 SHORT $LN21@Adjust_hea
  00018	53		 push	 ebx
$LL5@Adjust_hea:

; 2507 : 		{	// move _Hole down to larger child
; 2508 : 		if (_DEBUG_LT(*(_First + _Idx), *(_First + (_Idx - 1))))

  00019	f3 0f 10 44 c8
	04		 movss	 xmm0, DWORD PTR [eax+ecx*8+4]
  0001f	f3 0f 10 4c c8
	fc		 movss	 xmm1, DWORD PTR [eax+ecx*8-4]
  00025	0f 5a c0	 cvtps2pd xmm0, xmm0
  00028	0f 5a c9	 cvtps2pd xmm1, xmm1
  0002b	66 0f 2f c8	 comisd	 xmm1, xmm0
  0002f	76 01		 jbe	 SHORT $LN2@Adjust_hea

; 2509 : 			--_Idx;

  00031	49		 dec	 ecx
$LN2@Adjust_hea:

; 2510 : 		*(_First + _Hole) = _Move(*(_First + _Idx));

  00032	8b 1c c8	 mov	 ebx, DWORD PTR [eax+ecx*8]
  00035	89 1c d0	 mov	 DWORD PTR [eax+edx*8], ebx
  00038	8b 5c c8 04	 mov	 ebx, DWORD PTR [eax+ecx*8+4]
  0003c	89 5c d0 04	 mov	 DWORD PTR [eax+edx*8+4], ebx

; 2511 : 		_Hole = _Idx;

  00040	8b d1		 mov	 edx, ecx
  00042	8d 4c 09 02	 lea	 ecx, DWORD PTR [ecx+ecx+2]
  00046	3b ce		 cmp	 ecx, esi
  00048	7c cf		 jl	 SHORT $LL5@Adjust_hea
  0004a	5b		 pop	 ebx
$LN21@Adjust_hea:

; 2512 : 		}
; 2513 : 
; 2514 : 	if (_Idx == _Bottom)

  0004b	75 12		 jne	 SHORT $LN1@Adjust_hea

; 2515 : 		{	// only child at bottom, move _Hole down to it
; 2516 : 		*(_First + _Hole) = _Move(*(_First + (_Bottom - 1)));

  0004d	8b 4c f0 f8	 mov	 ecx, DWORD PTR [eax+esi*8-8]
  00051	89 0c d0	 mov	 DWORD PTR [eax+edx*8], ecx
  00054	8b 4c f0 fc	 mov	 ecx, DWORD PTR [eax+esi*8-4]
  00058	89 4c d0 04	 mov	 DWORD PTR [eax+edx*8+4], ecx

; 2517 : 		_Hole = _Bottom - 1;

  0005c	8d 56 ff	 lea	 edx, DWORD PTR [esi-1]
$LN1@Adjust_hea:

; 2518 : 		}
; 2519 : 	_Push_heap(_First, _Hole, _Top, _Move(_Val));

  0005f	ff 75 14	 push	 DWORD PTR __Val$[ebp]
  00062	57		 push	 edi
  00063	52		 push	 edx
  00064	50		 push	 eax
  00065	e8 00 00 00 00	 call	 ??$_Push_heap@PAUCharDistanceSq@FindPredicate@@HU12@@std@@YAXPAUCharDistanceSq@FindPredicate@@HH$$QAU12@@Z ; std::_Push_heap<FindPredicate::CharDistanceSq *,int,FindPredicate::CharDistanceSq>
  0006a	83 c4 10	 add	 esp, 16			; 00000010H
  0006d	5f		 pop	 edi
  0006e	5e		 pop	 esi

; 2520 : 	}

  0006f	5d		 pop	 ebp
  00070	c3		 ret	 0
??$_Adjust_heap@PAUCharDistanceSq@FindPredicate@@HU12@@std@@YAXPAUCharDistanceSq@FindPredicate@@HH$$QAU12@@Z ENDP ; std::_Adjust_heap<FindPredicate::CharDistanceSq *,int,FindPredicate::CharDistanceSq>
_TEXT	ENDS
PUBLIC	??$_Med3@PAUCharAngle@FindPredicate@@@std@@YAXPAUCharAngle@FindPredicate@@00@Z ; std::_Med3<FindPredicate::CharAngle *>
; Function compile flags: /Ogsp
;	COMDAT ??$_Med3@PAUCharAngle@FindPredicate@@@std@@YAXPAUCharAngle@FindPredicate@@00@Z
_TEXT	SEGMENT
__First$ = 8						; size = 4
__Mid$ = 12						; size = 4
__Last$ = 16						; size = 4
??$_Med3@PAUCharAngle@FindPredicate@@@std@@YAXPAUCharAngle@FindPredicate@@00@Z PROC ; std::_Med3<FindPredicate::CharAngle *>, COMDAT

; 3524 : 	{	// sort median of three elements to middle

  00000	55		 push	 ebp
  00001	8b ec		 mov	 ebp, esp

; 3525 : 	if (_DEBUG_LT(*_Mid, *_First))

  00003	8b 45 0c	 mov	 eax, DWORD PTR __Mid$[ebp]
  00006	8b 4d 08	 mov	 ecx, DWORD PTR __First$[ebp]
  00009	f3 0f 10 40 04	 movss	 xmm0, DWORD PTR [eax+4]
  0000e	f3 0f 10 49 04	 movss	 xmm1, DWORD PTR [ecx+4]
  00013	56		 push	 esi
  00014	0f 5a c0	 cvtps2pd xmm0, xmm0
  00017	0f 5a c9	 cvtps2pd xmm1, xmm1
  0001a	66 0f 2f c8	 comisd	 xmm1, xmm0
  0001e	57		 push	 edi
  0001f	76 14		 jbe	 SHORT $LN12@Med3@2

; 3526 : 		_STD iter_swap(_Mid, _First);

  00021	8b 39		 mov	 edi, DWORD PTR [ecx]
  00023	8b 10		 mov	 edx, DWORD PTR [eax]
  00025	8b 70 04	 mov	 esi, DWORD PTR [eax+4]
  00028	89 38		 mov	 DWORD PTR [eax], edi
  0002a	8b 79 04	 mov	 edi, DWORD PTR [ecx+4]
  0002d	89 78 04	 mov	 DWORD PTR [eax+4], edi
  00030	89 11		 mov	 DWORD PTR [ecx], edx
  00032	89 71 04	 mov	 DWORD PTR [ecx+4], esi
$LN12@Med3@2:

; 3527 : 	if (_DEBUG_LT(*_Last, *_Mid))

  00035	8b 55 10	 mov	 edx, DWORD PTR __Last$[ebp]
  00038	f3 0f 10 42 04	 movss	 xmm0, DWORD PTR [edx+4]
  0003d	f3 0f 10 48 04	 movss	 xmm1, DWORD PTR [eax+4]
  00042	0f 5a c0	 cvtps2pd xmm0, xmm0
  00045	0f 5a c9	 cvtps2pd xmm1, xmm1
  00048	66 0f 2f c8	 comisd	 xmm1, xmm0
  0004c	76 16		 jbe	 SHORT $LN26@Med3@2

; 3528 : 		_STD iter_swap(_Last, _Mid);

  0004e	8b 32		 mov	 esi, DWORD PTR [edx]
  00050	8b 7a 04	 mov	 edi, DWORD PTR [edx+4]
  00053	53		 push	 ebx
  00054	8b 18		 mov	 ebx, DWORD PTR [eax]
  00056	89 1a		 mov	 DWORD PTR [edx], ebx
  00058	8b 58 04	 mov	 ebx, DWORD PTR [eax+4]
  0005b	89 5a 04	 mov	 DWORD PTR [edx+4], ebx
  0005e	89 30		 mov	 DWORD PTR [eax], esi
  00060	89 78 04	 mov	 DWORD PTR [eax+4], edi
  00063	5b		 pop	 ebx
$LN26@Med3@2:

; 3529 : 	if (_DEBUG_LT(*_Mid, *_First))

  00064	f3 0f 10 40 04	 movss	 xmm0, DWORD PTR [eax+4]
  00069	f3 0f 10 49 04	 movss	 xmm1, DWORD PTR [ecx+4]
  0006e	0f 5a c0	 cvtps2pd xmm0, xmm0
  00071	0f 5a c9	 cvtps2pd xmm1, xmm1
  00074	66 0f 2f c8	 comisd	 xmm1, xmm0
  00078	76 14		 jbe	 SHORT $LN40@Med3@2

; 3530 : 		_STD iter_swap(_Mid, _First);

  0007a	8b 39		 mov	 edi, DWORD PTR [ecx]
  0007c	8b 10		 mov	 edx, DWORD PTR [eax]
  0007e	8b 70 04	 mov	 esi, DWORD PTR [eax+4]
  00081	89 38		 mov	 DWORD PTR [eax], edi
  00083	8b 79 04	 mov	 edi, DWORD PTR [ecx+4]
  00086	89 78 04	 mov	 DWORD PTR [eax+4], edi
  00089	89 11		 mov	 DWORD PTR [ecx], edx
  0008b	89 71 04	 mov	 DWORD PTR [ecx+4], esi
$LN40@Med3@2:
  0008e	5f		 pop	 edi
  0008f	5e		 pop	 esi

; 3531 : 	}

  00090	5d		 pop	 ebp
  00091	c3		 ret	 0
??$_Med3@PAUCharAngle@FindPredicate@@@std@@YAXPAUCharAngle@FindPredicate@@00@Z ENDP ; std::_Med3<FindPredicate::CharAngle *>
_TEXT	ENDS
PUBLIC	??$_Adjust_heap@PAUCharAngle@FindPredicate@@HU12@@std@@YAXPAUCharAngle@FindPredicate@@HH$$QAU12@@Z ; std::_Adjust_heap<FindPredicate::CharAngle *,int,FindPredicate::CharAngle>
; Function compile flags: /Ogsp
;	COMDAT ??$_Adjust_heap@PAUCharAngle@FindPredicate@@HU12@@std@@YAXPAUCharAngle@FindPredicate@@HH$$QAU12@@Z
_TEXT	SEGMENT
__First$ = 8						; size = 4
__Hole$ = 12						; size = 4
__Bottom$ = 16						; size = 4
__Val$ = 20						; size = 4
??$_Adjust_heap@PAUCharAngle@FindPredicate@@HU12@@std@@YAXPAUCharAngle@FindPredicate@@HH$$QAU12@@Z PROC ; std::_Adjust_heap<FindPredicate::CharAngle *,int,FindPredicate::CharAngle>, COMDAT

; 2502 : 	{	// percolate _Hole to _Bottom, then push _Val, using operator<

  00000	55		 push	 ebp
  00001	8b ec		 mov	 ebp, esp

; 2503 : 	_Diff _Top = _Hole;

  00003	8b 55 0c	 mov	 edx, DWORD PTR __Hole$[ebp]

; 2504 : 	_Diff _Idx = 2 * _Hole + 2;
; 2505 : 
; 2506 : 	for (; _Idx < _Bottom; _Idx = 2 * _Idx + 2)

  00006	8b 45 08	 mov	 eax, DWORD PTR __First$[ebp]
  00009	56		 push	 esi
  0000a	8b 75 10	 mov	 esi, DWORD PTR __Bottom$[ebp]
  0000d	8d 4c 12 02	 lea	 ecx, DWORD PTR [edx+edx+2]
  00011	57		 push	 edi
  00012	8b fa		 mov	 edi, edx
  00014	3b ce		 cmp	 ecx, esi
  00016	7d 33		 jge	 SHORT $LN21@Adjust_hea@2
  00018	53		 push	 ebx
$LL5@Adjust_hea@2:

; 2507 : 		{	// move _Hole down to larger child
; 2508 : 		if (_DEBUG_LT(*(_First + _Idx), *(_First + (_Idx - 1))))

  00019	f3 0f 10 44 c8
	04		 movss	 xmm0, DWORD PTR [eax+ecx*8+4]
  0001f	f3 0f 10 4c c8
	fc		 movss	 xmm1, DWORD PTR [eax+ecx*8-4]
  00025	0f 5a c0	 cvtps2pd xmm0, xmm0
  00028	0f 5a c9	 cvtps2pd xmm1, xmm1
  0002b	66 0f 2f c8	 comisd	 xmm1, xmm0
  0002f	76 01		 jbe	 SHORT $LN2@Adjust_hea@2

; 2509 : 			--_Idx;

  00031	49		 dec	 ecx
$LN2@Adjust_hea@2:

; 2510 : 		*(_First + _Hole) = _Move(*(_First + _Idx));

  00032	8b 1c c8	 mov	 ebx, DWORD PTR [eax+ecx*8]
  00035	89 1c d0	 mov	 DWORD PTR [eax+edx*8], ebx
  00038	8b 5c c8 04	 mov	 ebx, DWORD PTR [eax+ecx*8+4]
  0003c	89 5c d0 04	 mov	 DWORD PTR [eax+edx*8+4], ebx

; 2511 : 		_Hole = _Idx;

  00040	8b d1		 mov	 edx, ecx
  00042	8d 4c 09 02	 lea	 ecx, DWORD PTR [ecx+ecx+2]
  00046	3b ce		 cmp	 ecx, esi
  00048	7c cf		 jl	 SHORT $LL5@Adjust_hea@2
  0004a	5b		 pop	 ebx
$LN21@Adjust_hea@2:

; 2512 : 		}
; 2513 : 
; 2514 : 	if (_Idx == _Bottom)

  0004b	75 12		 jne	 SHORT $LN1@Adjust_hea@2

; 2515 : 		{	// only child at bottom, move _Hole down to it
; 2516 : 		*(_First + _Hole) = _Move(*(_First + (_Bottom - 1)));

  0004d	8b 4c f0 f8	 mov	 ecx, DWORD PTR [eax+esi*8-8]
  00051	89 0c d0	 mov	 DWORD PTR [eax+edx*8], ecx
  00054	8b 4c f0 fc	 mov	 ecx, DWORD PTR [eax+esi*8-4]
  00058	89 4c d0 04	 mov	 DWORD PTR [eax+edx*8+4], ecx

; 2517 : 		_Hole = _Bottom - 1;

  0005c	8d 56 ff	 lea	 edx, DWORD PTR [esi-1]
$LN1@Adjust_hea@2:

; 2518 : 		}
; 2519 : 	_Push_heap(_First, _Hole, _Top, _Move(_Val));

  0005f	ff 75 14	 push	 DWORD PTR __Val$[ebp]
  00062	57		 push	 edi
  00063	52		 push	 edx
  00064	50		 push	 eax
  00065	e8 00 00 00 00	 call	 ??$_Push_heap@PAUCharAngle@FindPredicate@@HU12@@std@@YAXPAUCharAngle@FindPredicate@@HH$$QAU12@@Z ; std::_Push_heap<FindPredicate::CharAngle *,int,FindPredicate::CharAngle>
  0006a	83 c4 10	 add	 esp, 16			; 00000010H
  0006d	5f		 pop	 edi
  0006e	5e		 pop	 esi

; 2520 : 	}

  0006f	5d		 pop	 ebp
  00070	c3		 ret	 0
??$_Adjust_heap@PAUCharAngle@FindPredicate@@HU12@@std@@YAXPAUCharAngle@FindPredicate@@HH$$QAU12@@Z ENDP ; std::_Adjust_heap<FindPredicate::CharAngle *,int,FindPredicate::CharAngle>
_TEXT	ENDS
PUBLIC	??$_Pop_heap@PAUCharDistanceSq@FindPredicate@@HU12@@std@@YAXPAUCharDistanceSq@FindPredicate@@00$$QAU12@PAH@Z ; std::_Pop_heap<FindPredicate::CharDistanceSq *,int,FindPredicate::CharDistanceSq>
; Function compile flags: /Ogsp
;	COMDAT ??$_Pop_heap@PAUCharDistanceSq@FindPredicate@@HU12@@std@@YAXPAUCharDistanceSq@FindPredicate@@00$$QAU12@PAH@Z
_TEXT	SEGMENT
__First$ = 8						; size = 4
__Last$ = 12						; size = 4
__Dest$ = 16						; size = 4
__Val$ = 20						; size = 4
___formal$ = 24						; size = 4
??$_Pop_heap@PAUCharDistanceSq@FindPredicate@@HU12@@std@@YAXPAUCharDistanceSq@FindPredicate@@00$$QAU12@PAH@Z PROC ; std::_Pop_heap<FindPredicate::CharDistanceSq *,int,FindPredicate::CharDistanceSq>, COMDAT

; 2527 : 	{	// pop *_First to *_Dest and reheap, using operator<

  00000	55		 push	 ebp
  00001	8b ec		 mov	 ebp, esp

; 2528 : 	*_Dest = _Move(*_First);

  00003	8b 45 08	 mov	 eax, DWORD PTR __First$[ebp]
  00006	8b 10		 mov	 edx, DWORD PTR [eax]
  00008	8b 4d 10	 mov	 ecx, DWORD PTR __Dest$[ebp]

; 2529 : 	_Adjust_heap(_First, _Diff(0), _Diff(_Last - _First),
; 2530 : 		_Move(_Val));

  0000b	ff 75 14	 push	 DWORD PTR __Val$[ebp]
  0000e	89 11		 mov	 DWORD PTR [ecx], edx
  00010	8b 50 04	 mov	 edx, DWORD PTR [eax+4]
  00013	89 51 04	 mov	 DWORD PTR [ecx+4], edx
  00016	8b 4d 0c	 mov	 ecx, DWORD PTR __Last$[ebp]
  00019	2b c8		 sub	 ecx, eax
  0001b	c1 f9 03	 sar	 ecx, 3
  0001e	51		 push	 ecx
  0001f	6a 00		 push	 0
  00021	50		 push	 eax
  00022	e8 00 00 00 00	 call	 ??$_Adjust_heap@PAUCharDistanceSq@FindPredicate@@HU12@@std@@YAXPAUCharDistanceSq@FindPredicate@@HH$$QAU12@@Z ; std::_Adjust_heap<FindPredicate::CharDistanceSq *,int,FindPredicate::CharDistanceSq>
  00027	83 c4 10	 add	 esp, 16			; 00000010H

; 2531 : 	}

  0002a	5d		 pop	 ebp
  0002b	c3		 ret	 0
??$_Pop_heap@PAUCharDistanceSq@FindPredicate@@HU12@@std@@YAXPAUCharDistanceSq@FindPredicate@@00$$QAU12@PAH@Z ENDP ; std::_Pop_heap<FindPredicate::CharDistanceSq *,int,FindPredicate::CharDistanceSq>
_TEXT	ENDS
PUBLIC	??$_Pop_heap@PAUCharAngle@FindPredicate@@HU12@@std@@YAXPAUCharAngle@FindPredicate@@00$$QAU12@PAH@Z ; std::_Pop_heap<FindPredicate::CharAngle *,int,FindPredicate::CharAngle>
; Function compile flags: /Ogsp
;	COMDAT ??$_Pop_heap@PAUCharAngle@FindPredicate@@HU12@@std@@YAXPAUCharAngle@FindPredicate@@00$$QAU12@PAH@Z
_TEXT	SEGMENT
__First$ = 8						; size = 4
__Last$ = 12						; size = 4
__Dest$ = 16						; size = 4
__Val$ = 20						; size = 4
___formal$ = 24						; size = 4
??$_Pop_heap@PAUCharAngle@FindPredicate@@HU12@@std@@YAXPAUCharAngle@FindPredicate@@00$$QAU12@PAH@Z PROC ; std::_Pop_heap<FindPredicate::CharAngle *,int,FindPredicate::CharAngle>, COMDAT

; 2527 : 	{	// pop *_First to *_Dest and reheap, using operator<

  00000	55		 push	 ebp
  00001	8b ec		 mov	 ebp, esp

; 2528 : 	*_Dest = _Move(*_First);

  00003	8b 45 08	 mov	 eax, DWORD PTR __First$[ebp]
  00006	8b 10		 mov	 edx, DWORD PTR [eax]
  00008	8b 4d 10	 mov	 ecx, DWORD PTR __Dest$[ebp]

; 2529 : 	_Adjust_heap(_First, _Diff(0), _Diff(_Last - _First),
; 2530 : 		_Move(_Val));

  0000b	ff 75 14	 push	 DWORD PTR __Val$[ebp]
  0000e	89 11		 mov	 DWORD PTR [ecx], edx
  00010	8b 50 04	 mov	 edx, DWORD PTR [eax+4]
  00013	89 51 04	 mov	 DWORD PTR [ecx+4], edx
  00016	8b 4d 0c	 mov	 ecx, DWORD PTR __Last$[ebp]
  00019	2b c8		 sub	 ecx, eax
  0001b	c1 f9 03	 sar	 ecx, 3
  0001e	51		 push	 ecx
  0001f	6a 00		 push	 0
  00021	50		 push	 eax
  00022	e8 00 00 00 00	 call	 ??$_Adjust_heap@PAUCharAngle@FindPredicate@@HU12@@std@@YAXPAUCharAngle@FindPredicate@@HH$$QAU12@@Z ; std::_Adjust_heap<FindPredicate::CharAngle *,int,FindPredicate::CharAngle>
  00027	83 c4 10	 add	 esp, 16			; 00000010H

; 2531 : 	}

  0002a	5d		 pop	 ebp
  0002b	c3		 ret	 0
??$_Pop_heap@PAUCharAngle@FindPredicate@@HU12@@std@@YAXPAUCharAngle@FindPredicate@@00$$QAU12@PAH@Z ENDP ; std::_Pop_heap<FindPredicate::CharAngle *,int,FindPredicate::CharAngle>
_TEXT	ENDS
PUBLIC	??$_Destroy_range@V?$allocator@UCharDistanceSq@FindPredicate@@@std@@@std@@YAXPAUCharDistanceSq@FindPredicate@@0AAV?$allocator@UCharDistanceSq@FindPredicate@@@0@U_Nonscalar_ptr_iterator_tag@0@@Z ; std::_Destroy_range<std::allocator<FindPredicate::CharDistanceSq> >
; Function compile flags: /Ogsp
; File c:\program files (x86)\microsoft visual studio 10.0\vc\include\xmemory
;	COMDAT ??$_Destroy_range@V?$allocator@UCharDistanceSq@FindPredicate@@@std@@@std@@YAXPAUCharDistanceSq@FindPredicate@@0AAV?$allocator@UCharDistanceSq@FindPredicate@@@0@U_Nonscalar_ptr_iterator_tag@0@@Z
_TEXT	SEGMENT
__First$ = 8						; size = 4
__Last$ = 12						; size = 4
__Al$ = 16						; size = 4
___formal$ = 20						; size = 1
??$_Destroy_range@V?$allocator@UCharDistanceSq@FindPredicate@@@std@@@std@@YAXPAUCharDistanceSq@FindPredicate@@0AAV?$allocator@UCharDistanceSq@FindPredicate@@@0@U_Nonscalar_ptr_iterator_tag@0@@Z PROC ; std::_Destroy_range<std::allocator<FindPredicate::CharDistanceSq> >, COMDAT

; 96   : 	for (; _First != _Last; ++_First)
; 97   : 		_Dest_val(_Al, _First);
; 98   : 	}

  00000	c3		 ret	 0
??$_Destroy_range@V?$allocator@UCharDistanceSq@FindPredicate@@@std@@@std@@YAXPAUCharDistanceSq@FindPredicate@@0AAV?$allocator@UCharDistanceSq@FindPredicate@@@0@U_Nonscalar_ptr_iterator_tag@0@@Z ENDP ; std::_Destroy_range<std::allocator<FindPredicate::CharDistanceSq> >
_TEXT	ENDS
PUBLIC	??$_Destroy_range@V?$allocator@UCharAngle@FindPredicate@@@std@@@std@@YAXPAUCharAngle@FindPredicate@@0AAV?$allocator@UCharAngle@FindPredicate@@@0@U_Nonscalar_ptr_iterator_tag@0@@Z ; std::_Destroy_range<std::allocator<FindPredicate::CharAngle> >
; Function compile flags: /Ogsp
;	COMDAT ??$_Destroy_range@V?$allocator@UCharAngle@FindPredicate@@@std@@@std@@YAXPAUCharAngle@FindPredicate@@0AAV?$allocator@UCharAngle@FindPredicate@@@0@U_Nonscalar_ptr_iterator_tag@0@@Z
_TEXT	SEGMENT
__First$ = 8						; size = 4
__Last$ = 12						; size = 4
__Al$ = 16						; size = 4
___formal$ = 20						; size = 1
??$_Destroy_range@V?$allocator@UCharAngle@FindPredicate@@@std@@@std@@YAXPAUCharAngle@FindPredicate@@0AAV?$allocator@UCharAngle@FindPredicate@@@0@U_Nonscalar_ptr_iterator_tag@0@@Z PROC ; std::_Destroy_range<std::allocator<FindPredicate::CharAngle> >, COMDAT

; 96   : 	for (; _First != _Last; ++_First)
; 97   : 		_Dest_val(_Al, _First);
; 98   : 	}

  00000	c3		 ret	 0
??$_Destroy_range@V?$allocator@UCharAngle@FindPredicate@@@std@@@std@@YAXPAUCharAngle@FindPredicate@@0AAV?$allocator@UCharAngle@FindPredicate@@@0@U_Nonscalar_ptr_iterator_tag@0@@Z ENDP ; std::_Destroy_range<std::allocator<FindPredicate::CharAngle> >
_TEXT	ENDS
PUBLIC	??$_Insertion_sort@PAUCharDistanceSq@FindPredicate@@@std@@YAXPAUCharDistanceSq@FindPredicate@@0@Z ; std::_Insertion_sort<FindPredicate::CharDistanceSq *>
; Function compile flags: /Ogsp
; File c:\program files (x86)\microsoft visual studio 10.0\vc\include\algorithm
;	COMDAT ??$_Insertion_sort@PAUCharDistanceSq@FindPredicate@@@std@@YAXPAUCharDistanceSq@FindPredicate@@0@Z
_TEXT	SEGMENT
__First$ = 8						; size = 4
__Last$ = 12						; size = 4
??$_Insertion_sort@PAUCharDistanceSq@FindPredicate@@@std@@YAXPAUCharDistanceSq@FindPredicate@@0@Z PROC ; std::_Insertion_sort<FindPredicate::CharDistanceSq *>, COMDAT

; 3518 : 	{	// insertion sort [_First, _Last), using operator<

  00000	55		 push	 ebp
  00001	8b ec		 mov	 ebp, esp

; 3519 : 	_Insertion_sort1(_First, _Last, _Val_type(_First));

  00003	6a 00		 push	 0
  00005	ff 75 0c	 push	 DWORD PTR __Last$[ebp]
  00008	ff 75 08	 push	 DWORD PTR __First$[ebp]
  0000b	e8 00 00 00 00	 call	 ??$_Insertion_sort1@PAUCharDistanceSq@FindPredicate@@U12@@std@@YAXPAUCharDistanceSq@FindPredicate@@00@Z ; std::_Insertion_sort1<FindPredicate::CharDistanceSq *,FindPredicate::CharDistanceSq>
  00010	83 c4 0c	 add	 esp, 12			; 0000000cH

; 3520 : 	}

  00013	5d		 pop	 ebp
  00014	c3		 ret	 0
??$_Insertion_sort@PAUCharDistanceSq@FindPredicate@@@std@@YAXPAUCharDistanceSq@FindPredicate@@0@Z ENDP ; std::_Insertion_sort<FindPredicate::CharDistanceSq *>
_TEXT	ENDS
PUBLIC	??$_Insertion_sort@PAUCharAngle@FindPredicate@@@std@@YAXPAUCharAngle@FindPredicate@@0@Z ; std::_Insertion_sort<FindPredicate::CharAngle *>
; Function compile flags: /Ogsp
;	COMDAT ??$_Insertion_sort@PAUCharAngle@FindPredicate@@@std@@YAXPAUCharAngle@FindPredicate@@0@Z
_TEXT	SEGMENT
__First$ = 8						; size = 4
__Last$ = 12						; size = 4
??$_Insertion_sort@PAUCharAngle@FindPredicate@@@std@@YAXPAUCharAngle@FindPredicate@@0@Z PROC ; std::_Insertion_sort<FindPredicate::CharAngle *>, COMDAT

; 3518 : 	{	// insertion sort [_First, _Last), using operator<

  00000	55		 push	 ebp
  00001	8b ec		 mov	 ebp, esp

; 3519 : 	_Insertion_sort1(_First, _Last, _Val_type(_First));

  00003	6a 00		 push	 0
  00005	ff 75 0c	 push	 DWORD PTR __Last$[ebp]
  00008	ff 75 08	 push	 DWORD PTR __First$[ebp]
  0000b	e8 00 00 00 00	 call	 ??$_Insertion_sort1@PAUCharAngle@FindPredicate@@U12@@std@@YAXPAUCharAngle@FindPredicate@@00@Z ; std::_Insertion_sort1<FindPredicate::CharAngle *,FindPredicate::CharAngle>
  00010	83 c4 0c	 add	 esp, 12			; 0000000cH

; 3520 : 	}

  00013	5d		 pop	 ebp
  00014	c3		 ret	 0
??$_Insertion_sort@PAUCharAngle@FindPredicate@@@std@@YAXPAUCharAngle@FindPredicate@@0@Z ENDP ; std::_Insertion_sort<FindPredicate::CharAngle *>
_TEXT	ENDS
PUBLIC	??$_Uninit_move@PAUCharDistanceSq@FindPredicate@@PAU12@V?$allocator@UCharDistanceSq@FindPredicate@@@std@@U12@@std@@YAPAUCharDistanceSq@FindPredicate@@PAU12@00AAV?$allocator@UCharDistanceSq@FindPredicate@@@0@0U_Nonscalar_ptr_iterator_tag@0@@Z ; std::_Uninit_move<FindPredicate::CharDistanceSq *,FindPredicate::CharDistanceSq *,std::allocator<FindPredicate::CharDistanceSq>,FindPredicate::CharDistanceSq>
; Function compile flags: /Ogsp
; File c:\program files (x86)\microsoft visual studio 10.0\vc\include\memory
;	COMDAT ??$_Uninit_move@PAUCharDistanceSq@FindPredicate@@PAU12@V?$allocator@UCharDistanceSq@FindPredicate@@@std@@U12@@std@@YAPAUCharDistanceSq@FindPredicate@@PAU12@00AAV?$allocator@UCharDistanceSq@FindPredicate@@@0@0U_Nonscalar_ptr_iterator_tag@0@@Z
_TEXT	SEGMENT
__First$ = 8						; size = 4
__Last$ = 12						; size = 4
__Dest$ = 16						; size = 4
__Al$ = 20						; size = 4
___formal$ = 24						; size = 4
___formal$ = 28						; size = 1
??$_Uninit_move@PAUCharDistanceSq@FindPredicate@@PAU12@V?$allocator@UCharDistanceSq@FindPredicate@@@std@@U12@@std@@YAPAUCharDistanceSq@FindPredicate@@PAU12@00AAV?$allocator@UCharDistanceSq@FindPredicate@@@0@0U_Nonscalar_ptr_iterator_tag@0@@Z PROC ; std::_Uninit_move<FindPredicate::CharDistanceSq *,FindPredicate::CharDistanceSq *,std::allocator<FindPredicate::CharDistanceSq>,FindPredicate::CharDistanceSq>, COMDAT

; 424  : 	{	// move [_First, _Last) to raw _Dest, using _Al, arbitrary type

  00000	55		 push	 ebp
  00001	8b ec		 mov	 ebp, esp
  00003	56		 push	 esi

; 425  : 	_DEBUG_RANGE(_First, _Last);
; 426  : 	_DEBUG_POINTER(_Dest);
; 427  : 	_FwdIt _Next = _Dest;
; 428  : 
; 429  : 	_TRY_BEGIN
; 430  : 	for (; _First != _Last; ++_Dest, ++_First)

  00004	8b 75 08	 mov	 esi, DWORD PTR __First$[ebp]
  00007	eb 16		 jmp	 SHORT $LN24@Uninit_mov
$LL6@Uninit_mov:

; 431  : 		_Cons_val(_Al, _Dest, (_Valty &&)*_First);

  00009	56		 push	 esi
  0000a	ff 75 10	 push	 DWORD PTR __Dest$[ebp]
  0000d	ff 75 14	 push	 DWORD PTR __Al$[ebp]
  00010	e8 00 00 00 00	 call	 ??$_Cons_val@V?$allocator@UCharDistanceSq@FindPredicate@@@std@@UCharDistanceSq@FindPredicate@@U34@@std@@YAXAAV?$allocator@UCharDistanceSq@FindPredicate@@@0@PAUCharDistanceSq@FindPredicate@@$$QAU23@@Z ; std::_Cons_val<std::allocator<FindPredicate::CharDistanceSq>,FindPredicate::CharDistanceSq,FindPredicate::CharDistanceSq>
  00015	83 45 10 08	 add	 DWORD PTR __Dest$[ebp], 8
  00019	83 c4 0c	 add	 esp, 12			; 0000000cH
  0001c	83 c6 08	 add	 esi, 8
$LN24@Uninit_mov:

; 425  : 	_DEBUG_RANGE(_First, _Last);
; 426  : 	_DEBUG_POINTER(_Dest);
; 427  : 	_FwdIt _Next = _Dest;
; 428  : 
; 429  : 	_TRY_BEGIN
; 430  : 	for (; _First != _Last; ++_Dest, ++_First)

  0001f	3b 75 0c	 cmp	 esi, DWORD PTR __Last$[ebp]
  00022	75 e5		 jne	 SHORT $LL6@Uninit_mov

; 432  : 	_CATCH_ALL
; 433  : 	for (; _Next != _Dest; ++_Next)
; 434  : 		_Dest_val(_Al, _Next);
; 435  : 	_RERAISE;
; 436  : 	_CATCH_END
; 437  : 	return (_Dest);

  00024	8b 45 10	 mov	 eax, DWORD PTR __Dest$[ebp]
  00027	5e		 pop	 esi

; 438  : 	}

  00028	5d		 pop	 ebp
  00029	c3		 ret	 0
??$_Uninit_move@PAUCharDistanceSq@FindPredicate@@PAU12@V?$allocator@UCharDistanceSq@FindPredicate@@@std@@U12@@std@@YAPAUCharDistanceSq@FindPredicate@@PAU12@00AAV?$allocator@UCharDistanceSq@FindPredicate@@@0@0U_Nonscalar_ptr_iterator_tag@0@@Z ENDP ; std::_Uninit_move<FindPredicate::CharDistanceSq *,FindPredicate::CharDistanceSq *,std::allocator<FindPredicate::CharDistanceSq>,FindPredicate::CharDistanceSq>
_TEXT	ENDS
PUBLIC	??$_Uninit_move@PAUCharAngle@FindPredicate@@PAU12@V?$allocator@UCharAngle@FindPredicate@@@std@@U12@@std@@YAPAUCharAngle@FindPredicate@@PAU12@00AAV?$allocator@UCharAngle@FindPredicate@@@0@0U_Nonscalar_ptr_iterator_tag@0@@Z ; std::_Uninit_move<FindPredicate::CharAngle *,FindPredicate::CharAngle *,std::allocator<FindPredicate::CharAngle>,FindPredicate::CharAngle>
; Function compile flags: /Ogsp
;	COMDAT ??$_Uninit_move@PAUCharAngle@FindPredicate@@PAU12@V?$allocator@UCharAngle@FindPredicate@@@std@@U12@@std@@YAPAUCharAngle@FindPredicate@@PAU12@00AAV?$allocator@UCharAngle@FindPredicate@@@0@0U_Nonscalar_ptr_iterator_tag@0@@Z
_TEXT	SEGMENT
__First$ = 8						; size = 4
__Last$ = 12						; size = 4
__Dest$ = 16						; size = 4
__Al$ = 20						; size = 4
___formal$ = 24						; size = 4
___formal$ = 28						; size = 1
??$_Uninit_move@PAUCharAngle@FindPredicate@@PAU12@V?$allocator@UCharAngle@FindPredicate@@@std@@U12@@std@@YAPAUCharAngle@FindPredicate@@PAU12@00AAV?$allocator@UCharAngle@FindPredicate@@@0@0U_Nonscalar_ptr_iterator_tag@0@@Z PROC ; std::_Uninit_move<FindPredicate::CharAngle *,FindPredicate::CharAngle *,std::allocator<FindPredicate::CharAngle>,FindPredicate::CharAngle>, COMDAT

; 424  : 	{	// move [_First, _Last) to raw _Dest, using _Al, arbitrary type

  00000	55		 push	 ebp
  00001	8b ec		 mov	 ebp, esp
  00003	56		 push	 esi

; 425  : 	_DEBUG_RANGE(_First, _Last);
; 426  : 	_DEBUG_POINTER(_Dest);
; 427  : 	_FwdIt _Next = _Dest;
; 428  : 
; 429  : 	_TRY_BEGIN
; 430  : 	for (; _First != _Last; ++_Dest, ++_First)

  00004	8b 75 08	 mov	 esi, DWORD PTR __First$[ebp]
  00007	eb 16		 jmp	 SHORT $LN24@Uninit_mov@2
$LL6@Uninit_mov@2:

; 431  : 		_Cons_val(_Al, _Dest, (_Valty &&)*_First);

  00009	56		 push	 esi
  0000a	ff 75 10	 push	 DWORD PTR __Dest$[ebp]
  0000d	ff 75 14	 push	 DWORD PTR __Al$[ebp]
  00010	e8 00 00 00 00	 call	 ??$_Cons_val@V?$allocator@UCharAngle@FindPredicate@@@std@@UCharAngle@FindPredicate@@U34@@std@@YAXAAV?$allocator@UCharAngle@FindPredicate@@@0@PAUCharAngle@FindPredicate@@$$QAU23@@Z ; std::_Cons_val<std::allocator<FindPredicate::CharAngle>,FindPredicate::CharAngle,FindPredicate::CharAngle>
  00015	83 45 10 08	 add	 DWORD PTR __Dest$[ebp], 8
  00019	83 c4 0c	 add	 esp, 12			; 0000000cH
  0001c	83 c6 08	 add	 esi, 8
$LN24@Uninit_mov@2:

; 425  : 	_DEBUG_RANGE(_First, _Last);
; 426  : 	_DEBUG_POINTER(_Dest);
; 427  : 	_FwdIt _Next = _Dest;
; 428  : 
; 429  : 	_TRY_BEGIN
; 430  : 	for (; _First != _Last; ++_Dest, ++_First)

  0001f	3b 75 0c	 cmp	 esi, DWORD PTR __Last$[ebp]
  00022	75 e5		 jne	 SHORT $LL6@Uninit_mov@2

; 432  : 	_CATCH_ALL
; 433  : 	for (; _Next != _Dest; ++_Next)
; 434  : 		_Dest_val(_Al, _Next);
; 435  : 	_RERAISE;
; 436  : 	_CATCH_END
; 437  : 	return (_Dest);

  00024	8b 45 10	 mov	 eax, DWORD PTR __Dest$[ebp]
  00027	5e		 pop	 esi

; 438  : 	}

  00028	5d		 pop	 ebp
  00029	c3		 ret	 0
??$_Uninit_move@PAUCharAngle@FindPredicate@@PAU12@V?$allocator@UCharAngle@FindPredicate@@@std@@U12@@std@@YAPAUCharAngle@FindPredicate@@PAU12@00AAV?$allocator@UCharAngle@FindPredicate@@@0@0U_Nonscalar_ptr_iterator_tag@0@@Z ENDP ; std::_Uninit_move<FindPredicate::CharAngle *,FindPredicate::CharAngle *,std::allocator<FindPredicate::CharAngle>,FindPredicate::CharAngle>
_TEXT	ENDS
PUBLIC	??$_Median@PAUCharDistanceSq@FindPredicate@@@std@@YAXPAUCharDistanceSq@FindPredicate@@00@Z ; std::_Median<FindPredicate::CharDistanceSq *>
; Function compile flags: /Ogsp
; File c:\program files (x86)\microsoft visual studio 10.0\vc\include\algorithm
;	COMDAT ??$_Median@PAUCharDistanceSq@FindPredicate@@@std@@YAXPAUCharDistanceSq@FindPredicate@@00@Z
_TEXT	SEGMENT
tv200 = 8						; size = 4
__First$ = 8						; size = 4
__Mid$ = 12						; size = 4
tv203 = 16						; size = 4
__Last$ = 16						; size = 4
??$_Median@PAUCharDistanceSq@FindPredicate@@@std@@YAXPAUCharDistanceSq@FindPredicate@@00@Z PROC ; std::_Median<FindPredicate::CharDistanceSq *>, COMDAT

; 3535 : 	{	// sort median element to middle

  00000	55		 push	 ebp
  00001	8b ec		 mov	 ebp, esp

; 3536 : 	if (40 < _Last - _First)

  00003	8b 4d 08	 mov	 ecx, DWORD PTR __First$[ebp]
  00006	57		 push	 edi
  00007	8b 7d 10	 mov	 edi, DWORD PTR __Last$[ebp]
  0000a	8b c7		 mov	 eax, edi
  0000c	2b c1		 sub	 eax, ecx
  0000e	c1 f8 03	 sar	 eax, 3
  00011	83 f8 28	 cmp	 eax, 40			; 00000028H
  00014	7e 5e		 jle	 SHORT $LN2@Median

; 3537 : 		{	// median of nine
; 3538 : 		size_t _Step = (_Last - _First + 1) / 8;

  00016	40		 inc	 eax
  00017	99		 cdq
  00018	83 e2 07	 and	 edx, 7
  0001b	03 c2		 add	 eax, edx
  0001d	53		 push	 ebx
  0001e	c1 f8 03	 sar	 eax, 3
  00021	56		 push	 esi

; 3539 : 		_Med3(_First, _First + _Step, _First + 2 * _Step);

  00022	8b d8		 mov	 ebx, eax
  00024	8b f0		 mov	 esi, eax
  00026	c1 e3 04	 shl	 ebx, 4
  00029	8d 14 0b	 lea	 edx, DWORD PTR [ebx+ecx]
  0002c	c1 e6 03	 shl	 esi, 3
  0002f	8d 04 0e	 lea	 eax, DWORD PTR [esi+ecx]
  00032	52		 push	 edx
  00033	50		 push	 eax
  00034	51		 push	 ecx
  00035	89 45 08	 mov	 DWORD PTR tv200[ebp], eax
  00038	e8 00 00 00 00	 call	 ??$_Med3@PAUCharDistanceSq@FindPredicate@@@std@@YAXPAUCharDistanceSq@FindPredicate@@00@Z ; std::_Med3<FindPredicate::CharDistanceSq *>

; 3540 : 		_Med3(_Mid - _Step, _Mid, _Mid + _Step);

  0003d	8b 45 0c	 mov	 eax, DWORD PTR __Mid$[ebp]
  00040	8d 0c 06	 lea	 ecx, DWORD PTR [esi+eax]
  00043	51		 push	 ecx
  00044	50		 push	 eax
  00045	2b c6		 sub	 eax, esi
  00047	50		 push	 eax
  00048	e8 00 00 00 00	 call	 ??$_Med3@PAUCharDistanceSq@FindPredicate@@@std@@YAXPAUCharDistanceSq@FindPredicate@@00@Z ; std::_Med3<FindPredicate::CharDistanceSq *>

; 3541 : 		_Med3(_Last - 2 * _Step, _Last - _Step, _Last);

  0004d	89 7d 10	 mov	 DWORD PTR tv203[ebp], edi
  00050	29 75 10	 sub	 DWORD PTR tv203[ebp], esi
  00053	57		 push	 edi
  00054	ff 75 10	 push	 DWORD PTR tv203[ebp]
  00057	2b fb		 sub	 edi, ebx
  00059	57		 push	 edi
  0005a	e8 00 00 00 00	 call	 ??$_Med3@PAUCharDistanceSq@FindPredicate@@@std@@YAXPAUCharDistanceSq@FindPredicate@@00@Z ; std::_Med3<FindPredicate::CharDistanceSq *>

; 3542 : 		_Med3(_First + _Step, _Mid, _Last - _Step);

  0005f	ff 75 10	 push	 DWORD PTR tv203[ebp]
  00062	ff 75 0c	 push	 DWORD PTR __Mid$[ebp]
  00065	ff 75 08	 push	 DWORD PTR tv200[ebp]
  00068	e8 00 00 00 00	 call	 ??$_Med3@PAUCharDistanceSq@FindPredicate@@@std@@YAXPAUCharDistanceSq@FindPredicate@@00@Z ; std::_Med3<FindPredicate::CharDistanceSq *>
  0006d	83 c4 30	 add	 esp, 48			; 00000030H
  00070	5e		 pop	 esi
  00071	5b		 pop	 ebx

; 3543 : 		}
; 3544 : 	else

  00072	eb 0d		 jmp	 SHORT $LN1@Median
$LN2@Median:

; 3545 : 		_Med3(_First, _Mid, _Last);

  00074	57		 push	 edi
  00075	ff 75 0c	 push	 DWORD PTR __Mid$[ebp]
  00078	51		 push	 ecx
  00079	e8 00 00 00 00	 call	 ??$_Med3@PAUCharDistanceSq@FindPredicate@@@std@@YAXPAUCharDistanceSq@FindPredicate@@00@Z ; std::_Med3<FindPredicate::CharDistanceSq *>
  0007e	83 c4 0c	 add	 esp, 12			; 0000000cH
$LN1@Median:
  00081	5f		 pop	 edi

; 3546 : 	}

  00082	5d		 pop	 ebp
  00083	c3		 ret	 0
??$_Median@PAUCharDistanceSq@FindPredicate@@@std@@YAXPAUCharDistanceSq@FindPredicate@@00@Z ENDP ; std::_Median<FindPredicate::CharDistanceSq *>
_TEXT	ENDS
PUBLIC	??$_Make_heap@PAUCharDistanceSq@FindPredicate@@HU12@@std@@YAXPAUCharDistanceSq@FindPredicate@@0PAH0@Z ; std::_Make_heap<FindPredicate::CharDistanceSq *,int,FindPredicate::CharDistanceSq>
; Function compile flags: /Ogsp
;	COMDAT ??$_Make_heap@PAUCharDistanceSq@FindPredicate@@HU12@@std@@YAXPAUCharDistanceSq@FindPredicate@@0PAH0@Z
_TEXT	SEGMENT
__Val$526239 = -8					; size = 8
__First$ = 8						; size = 4
__Last$ = 12						; size = 4
___formal$ = 16						; size = 4
___formal$ = 20						; size = 4
??$_Make_heap@PAUCharDistanceSq@FindPredicate@@HU12@@std@@YAXPAUCharDistanceSq@FindPredicate@@0PAH0@Z PROC ; std::_Make_heap<FindPredicate::CharDistanceSq *,int,FindPredicate::CharDistanceSq>, COMDAT

; 2631 : 	{	// make nontrivial [_First, _Last) into a heap, using operator<

  00000	55		 push	 ebp
  00001	8b ec		 mov	 ebp, esp
  00003	51		 push	 ecx
  00004	51		 push	 ecx
  00005	53		 push	 ebx

; 2632 : 	_Diff _Bottom = _Last - _First;

  00006	8b 5d 08	 mov	 ebx, DWORD PTR __First$[ebp]
  00009	56		 push	 esi
  0000a	57		 push	 edi
  0000b	8b 7d 0c	 mov	 edi, DWORD PTR __Last$[ebp]
  0000e	2b fb		 sub	 edi, ebx
  00010	c1 ff 03	 sar	 edi, 3

; 2633 : 
; 2634 : 	for (_Diff _Hole = _Bottom / 2; 0 < _Hole; )

  00013	8b c7		 mov	 eax, edi
  00015	99		 cdq
  00016	2b c2		 sub	 eax, edx
  00018	8b f0		 mov	 esi, eax
  0001a	d1 fe		 sar	 esi, 1
  0001c	85 f6		 test	 esi, esi
  0001e	7e 27		 jle	 SHORT $LN1@Make_heap

; 2632 : 	_Diff _Bottom = _Last - _First;

  00020	8d 1c f3	 lea	 ebx, DWORD PTR [ebx+esi*8]
$LL2@Make_heap:

; 2635 : 		{	// reheap top half, bottom to top
; 2636 : 		--_Hole;

  00023	83 eb 08	 sub	 ebx, 8

; 2637 : 		_Ty _Val = _Move(*(_First + _Hole));

  00026	8b 03		 mov	 eax, DWORD PTR [ebx]
  00028	89 45 f8	 mov	 DWORD PTR __Val$526239[ebp], eax
  0002b	8b 43 04	 mov	 eax, DWORD PTR [ebx+4]
  0002e	89 45 fc	 mov	 DWORD PTR __Val$526239[ebp+4], eax

; 2638 : 		_Adjust_heap(_First, _Hole, _Bottom,
; 2639 : 			_Move(_Val));

  00031	8d 45 f8	 lea	 eax, DWORD PTR __Val$526239[ebp]
  00034	50		 push	 eax
  00035	57		 push	 edi
  00036	4e		 dec	 esi
  00037	56		 push	 esi
  00038	ff 75 08	 push	 DWORD PTR __First$[ebp]
  0003b	e8 00 00 00 00	 call	 ??$_Adjust_heap@PAUCharDistanceSq@FindPredicate@@HU12@@std@@YAXPAUCharDistanceSq@FindPredicate@@HH$$QAU12@@Z ; std::_Adjust_heap<FindPredicate::CharDistanceSq *,int,FindPredicate::CharDistanceSq>
  00040	83 c4 10	 add	 esp, 16			; 00000010H
  00043	85 f6		 test	 esi, esi
  00045	7f dc		 jg	 SHORT $LL2@Make_heap
$LN1@Make_heap:
  00047	5f		 pop	 edi
  00048	5e		 pop	 esi
  00049	5b		 pop	 ebx

; 2640 : 		}
; 2641 : 	}

  0004a	c9		 leave
  0004b	c3		 ret	 0
??$_Make_heap@PAUCharDistanceSq@FindPredicate@@HU12@@std@@YAXPAUCharDistanceSq@FindPredicate@@0PAH0@Z ENDP ; std::_Make_heap<FindPredicate::CharDistanceSq *,int,FindPredicate::CharDistanceSq>
_TEXT	ENDS
PUBLIC	??$_Median@PAUCharAngle@FindPredicate@@@std@@YAXPAUCharAngle@FindPredicate@@00@Z ; std::_Median<FindPredicate::CharAngle *>
; Function compile flags: /Ogsp
;	COMDAT ??$_Median@PAUCharAngle@FindPredicate@@@std@@YAXPAUCharAngle@FindPredicate@@00@Z
_TEXT	SEGMENT
tv200 = 8						; size = 4
__First$ = 8						; size = 4
__Mid$ = 12						; size = 4
tv203 = 16						; size = 4
__Last$ = 16						; size = 4
??$_Median@PAUCharAngle@FindPredicate@@@std@@YAXPAUCharAngle@FindPredicate@@00@Z PROC ; std::_Median<FindPredicate::CharAngle *>, COMDAT

; 3535 : 	{	// sort median element to middle

  00000	55		 push	 ebp
  00001	8b ec		 mov	 ebp, esp

; 3536 : 	if (40 < _Last - _First)

  00003	8b 4d 08	 mov	 ecx, DWORD PTR __First$[ebp]
  00006	57		 push	 edi
  00007	8b 7d 10	 mov	 edi, DWORD PTR __Last$[ebp]
  0000a	8b c7		 mov	 eax, edi
  0000c	2b c1		 sub	 eax, ecx
  0000e	c1 f8 03	 sar	 eax, 3
  00011	83 f8 28	 cmp	 eax, 40			; 00000028H
  00014	7e 5e		 jle	 SHORT $LN2@Median@2

; 3537 : 		{	// median of nine
; 3538 : 		size_t _Step = (_Last - _First + 1) / 8;

  00016	40		 inc	 eax
  00017	99		 cdq
  00018	83 e2 07	 and	 edx, 7
  0001b	03 c2		 add	 eax, edx
  0001d	53		 push	 ebx
  0001e	c1 f8 03	 sar	 eax, 3
  00021	56		 push	 esi

; 3539 : 		_Med3(_First, _First + _Step, _First + 2 * _Step);

  00022	8b d8		 mov	 ebx, eax
  00024	8b f0		 mov	 esi, eax
  00026	c1 e3 04	 shl	 ebx, 4
  00029	8d 14 0b	 lea	 edx, DWORD PTR [ebx+ecx]
  0002c	c1 e6 03	 shl	 esi, 3
  0002f	8d 04 0e	 lea	 eax, DWORD PTR [esi+ecx]
  00032	52		 push	 edx
  00033	50		 push	 eax
  00034	51		 push	 ecx
  00035	89 45 08	 mov	 DWORD PTR tv200[ebp], eax
  00038	e8 00 00 00 00	 call	 ??$_Med3@PAUCharAngle@FindPredicate@@@std@@YAXPAUCharAngle@FindPredicate@@00@Z ; std::_Med3<FindPredicate::CharAngle *>

; 3540 : 		_Med3(_Mid - _Step, _Mid, _Mid + _Step);

  0003d	8b 45 0c	 mov	 eax, DWORD PTR __Mid$[ebp]
  00040	8d 0c 06	 lea	 ecx, DWORD PTR [esi+eax]
  00043	51		 push	 ecx
  00044	50		 push	 eax
  00045	2b c6		 sub	 eax, esi
  00047	50		 push	 eax
  00048	e8 00 00 00 00	 call	 ??$_Med3@PAUCharAngle@FindPredicate@@@std@@YAXPAUCharAngle@FindPredicate@@00@Z ; std::_Med3<FindPredicate::CharAngle *>

; 3541 : 		_Med3(_Last - 2 * _Step, _Last - _Step, _Last);

  0004d	89 7d 10	 mov	 DWORD PTR tv203[ebp], edi
  00050	29 75 10	 sub	 DWORD PTR tv203[ebp], esi
  00053	57		 push	 edi
  00054	ff 75 10	 push	 DWORD PTR tv203[ebp]
  00057	2b fb		 sub	 edi, ebx
  00059	57		 push	 edi
  0005a	e8 00 00 00 00	 call	 ??$_Med3@PAUCharAngle@FindPredicate@@@std@@YAXPAUCharAngle@FindPredicate@@00@Z ; std::_Med3<FindPredicate::CharAngle *>

; 3542 : 		_Med3(_First + _Step, _Mid, _Last - _Step);

  0005f	ff 75 10	 push	 DWORD PTR tv203[ebp]
  00062	ff 75 0c	 push	 DWORD PTR __Mid$[ebp]
  00065	ff 75 08	 push	 DWORD PTR tv200[ebp]
  00068	e8 00 00 00 00	 call	 ??$_Med3@PAUCharAngle@FindPredicate@@@std@@YAXPAUCharAngle@FindPredicate@@00@Z ; std::_Med3<FindPredicate::CharAngle *>
  0006d	83 c4 30	 add	 esp, 48			; 00000030H
  00070	5e		 pop	 esi
  00071	5b		 pop	 ebx

; 3543 : 		}
; 3544 : 	else

  00072	eb 0d		 jmp	 SHORT $LN1@Median@2
$LN2@Median@2:

; 3545 : 		_Med3(_First, _Mid, _Last);

  00074	57		 push	 edi
  00075	ff 75 0c	 push	 DWORD PTR __Mid$[ebp]
  00078	51		 push	 ecx
  00079	e8 00 00 00 00	 call	 ??$_Med3@PAUCharAngle@FindPredicate@@@std@@YAXPAUCharAngle@FindPredicate@@00@Z ; std::_Med3<FindPredicate::CharAngle *>
  0007e	83 c4 0c	 add	 esp, 12			; 0000000cH
$LN1@Median@2:
  00081	5f		 pop	 edi

; 3546 : 	}

  00082	5d		 pop	 ebp
  00083	c3		 ret	 0
??$_Median@PAUCharAngle@FindPredicate@@@std@@YAXPAUCharAngle@FindPredicate@@00@Z ENDP ; std::_Median<FindPredicate::CharAngle *>
_TEXT	ENDS
PUBLIC	??$_Make_heap@PAUCharAngle@FindPredicate@@HU12@@std@@YAXPAUCharAngle@FindPredicate@@0PAH0@Z ; std::_Make_heap<FindPredicate::CharAngle *,int,FindPredicate::CharAngle>
; Function compile flags: /Ogsp
;	COMDAT ??$_Make_heap@PAUCharAngle@FindPredicate@@HU12@@std@@YAXPAUCharAngle@FindPredicate@@0PAH0@Z
_TEXT	SEGMENT
__Val$526333 = -8					; size = 8
__First$ = 8						; size = 4
__Last$ = 12						; size = 4
___formal$ = 16						; size = 4
___formal$ = 20						; size = 4
??$_Make_heap@PAUCharAngle@FindPredicate@@HU12@@std@@YAXPAUCharAngle@FindPredicate@@0PAH0@Z PROC ; std::_Make_heap<FindPredicate::CharAngle *,int,FindPredicate::CharAngle>, COMDAT

; 2631 : 	{	// make nontrivial [_First, _Last) into a heap, using operator<

  00000	55		 push	 ebp
  00001	8b ec		 mov	 ebp, esp
  00003	51		 push	 ecx
  00004	51		 push	 ecx
  00005	53		 push	 ebx

; 2632 : 	_Diff _Bottom = _Last - _First;

  00006	8b 5d 08	 mov	 ebx, DWORD PTR __First$[ebp]
  00009	56		 push	 esi
  0000a	57		 push	 edi
  0000b	8b 7d 0c	 mov	 edi, DWORD PTR __Last$[ebp]
  0000e	2b fb		 sub	 edi, ebx
  00010	c1 ff 03	 sar	 edi, 3

; 2633 : 
; 2634 : 	for (_Diff _Hole = _Bottom / 2; 0 < _Hole; )

  00013	8b c7		 mov	 eax, edi
  00015	99		 cdq
  00016	2b c2		 sub	 eax, edx
  00018	8b f0		 mov	 esi, eax
  0001a	d1 fe		 sar	 esi, 1
  0001c	85 f6		 test	 esi, esi
  0001e	7e 27		 jle	 SHORT $LN1@Make_heap@2

; 2632 : 	_Diff _Bottom = _Last - _First;

  00020	8d 1c f3	 lea	 ebx, DWORD PTR [ebx+esi*8]
$LL2@Make_heap@2:

; 2635 : 		{	// reheap top half, bottom to top
; 2636 : 		--_Hole;

  00023	83 eb 08	 sub	 ebx, 8

; 2637 : 		_Ty _Val = _Move(*(_First + _Hole));

  00026	8b 03		 mov	 eax, DWORD PTR [ebx]
  00028	89 45 f8	 mov	 DWORD PTR __Val$526333[ebp], eax
  0002b	8b 43 04	 mov	 eax, DWORD PTR [ebx+4]
  0002e	89 45 fc	 mov	 DWORD PTR __Val$526333[ebp+4], eax

; 2638 : 		_Adjust_heap(_First, _Hole, _Bottom,
; 2639 : 			_Move(_Val));

  00031	8d 45 f8	 lea	 eax, DWORD PTR __Val$526333[ebp]
  00034	50		 push	 eax
  00035	57		 push	 edi
  00036	4e		 dec	 esi
  00037	56		 push	 esi
  00038	ff 75 08	 push	 DWORD PTR __First$[ebp]
  0003b	e8 00 00 00 00	 call	 ??$_Adjust_heap@PAUCharAngle@FindPredicate@@HU12@@std@@YAXPAUCharAngle@FindPredicate@@HH$$QAU12@@Z ; std::_Adjust_heap<FindPredicate::CharAngle *,int,FindPredicate::CharAngle>
  00040	83 c4 10	 add	 esp, 16			; 00000010H
  00043	85 f6		 test	 esi, esi
  00045	7f dc		 jg	 SHORT $LL2@Make_heap@2
$LN1@Make_heap@2:
  00047	5f		 pop	 edi
  00048	5e		 pop	 esi
  00049	5b		 pop	 ebx

; 2640 : 		}
; 2641 : 	}

  0004a	c9		 leave
  0004b	c3		 ret	 0
??$_Make_heap@PAUCharAngle@FindPredicate@@HU12@@std@@YAXPAUCharAngle@FindPredicate@@0PAH0@Z ENDP ; std::_Make_heap<FindPredicate::CharAngle *,int,FindPredicate::CharAngle>
_TEXT	ENDS
PUBLIC	??$_Pop_heap_0@PAUCharDistanceSq@FindPredicate@@U12@@std@@YAXPAUCharDistanceSq@FindPredicate@@00@Z ; std::_Pop_heap_0<FindPredicate::CharDistanceSq *,FindPredicate::CharDistanceSq>
; Function compile flags: /Ogsp
;	COMDAT ??$_Pop_heap_0@PAUCharDistanceSq@FindPredicate@@U12@@std@@YAXPAUCharDistanceSq@FindPredicate@@00@Z
_TEXT	SEGMENT
__Val$ = -8						; size = 8
__First$ = 8						; size = 4
__Last$ = 12						; size = 4
___formal$ = 16						; size = 4
??$_Pop_heap_0@PAUCharDistanceSq@FindPredicate@@U12@@std@@YAXPAUCharDistanceSq@FindPredicate@@00@Z PROC ; std::_Pop_heap_0<FindPredicate::CharDistanceSq *,FindPredicate::CharDistanceSq>, COMDAT

; 2536 : 	{	// pop *_First to *(_Last - 1) and reheap, using operator<

  00000	55		 push	 ebp
  00001	8b ec		 mov	 ebp, esp
  00003	51		 push	 ecx
  00004	51		 push	 ecx

; 2537 : 	_Ty _Val = _Move(*(_Last - 1));

  00005	8b 45 0c	 mov	 eax, DWORD PTR __Last$[ebp]
  00008	83 c0 f8	 add	 eax, -8			; fffffff8H
  0000b	8b 08		 mov	 ecx, DWORD PTR [eax]
  0000d	89 4d f8	 mov	 DWORD PTR __Val$[ebp], ecx
  00010	8b 48 04	 mov	 ecx, DWORD PTR [eax+4]

; 2538 : 	_Pop_heap(_First, _Last - 1, _Last - 1,
; 2539 : 		_Move(_Val), _Dist_type(_First));

  00013	6a 00		 push	 0
  00015	89 4d fc	 mov	 DWORD PTR __Val$[ebp+4], ecx
  00018	8d 4d f8	 lea	 ecx, DWORD PTR __Val$[ebp]
  0001b	51		 push	 ecx
  0001c	50		 push	 eax
  0001d	50		 push	 eax
  0001e	ff 75 08	 push	 DWORD PTR __First$[ebp]
  00021	e8 00 00 00 00	 call	 ??$_Pop_heap@PAUCharDistanceSq@FindPredicate@@HU12@@std@@YAXPAUCharDistanceSq@FindPredicate@@00$$QAU12@PAH@Z ; std::_Pop_heap<FindPredicate::CharDistanceSq *,int,FindPredicate::CharDistanceSq>
  00026	83 c4 14	 add	 esp, 20			; 00000014H

; 2540 : 	}

  00029	c9		 leave
  0002a	c3		 ret	 0
??$_Pop_heap_0@PAUCharDistanceSq@FindPredicate@@U12@@std@@YAXPAUCharDistanceSq@FindPredicate@@00@Z ENDP ; std::_Pop_heap_0<FindPredicate::CharDistanceSq *,FindPredicate::CharDistanceSq>
_TEXT	ENDS
PUBLIC	??$_Pop_heap_0@PAUCharAngle@FindPredicate@@U12@@std@@YAXPAUCharAngle@FindPredicate@@00@Z ; std::_Pop_heap_0<FindPredicate::CharAngle *,FindPredicate::CharAngle>
; Function compile flags: /Ogsp
;	COMDAT ??$_Pop_heap_0@PAUCharAngle@FindPredicate@@U12@@std@@YAXPAUCharAngle@FindPredicate@@00@Z
_TEXT	SEGMENT
__Val$ = -8						; size = 8
__First$ = 8						; size = 4
__Last$ = 12						; size = 4
___formal$ = 16						; size = 4
??$_Pop_heap_0@PAUCharAngle@FindPredicate@@U12@@std@@YAXPAUCharAngle@FindPredicate@@00@Z PROC ; std::_Pop_heap_0<FindPredicate::CharAngle *,FindPredicate::CharAngle>, COMDAT

; 2536 : 	{	// pop *_First to *(_Last - 1) and reheap, using operator<

  00000	55		 push	 ebp
  00001	8b ec		 mov	 ebp, esp
  00003	51		 push	 ecx
  00004	51		 push	 ecx

; 2537 : 	_Ty _Val = _Move(*(_Last - 1));

  00005	8b 45 0c	 mov	 eax, DWORD PTR __Last$[ebp]
  00008	83 c0 f8	 add	 eax, -8			; fffffff8H
  0000b	8b 08		 mov	 ecx, DWORD PTR [eax]
  0000d	89 4d f8	 mov	 DWORD PTR __Val$[ebp], ecx
  00010	8b 48 04	 mov	 ecx, DWORD PTR [eax+4]

; 2538 : 	_Pop_heap(_First, _Last - 1, _Last - 1,
; 2539 : 		_Move(_Val), _Dist_type(_First));

  00013	6a 00		 push	 0
  00015	89 4d fc	 mov	 DWORD PTR __Val$[ebp+4], ecx
  00018	8d 4d f8	 lea	 ecx, DWORD PTR __Val$[ebp]
  0001b	51		 push	 ecx
  0001c	50		 push	 eax
  0001d	50		 push	 eax
  0001e	ff 75 08	 push	 DWORD PTR __First$[ebp]
  00021	e8 00 00 00 00	 call	 ??$_Pop_heap@PAUCharAngle@FindPredicate@@HU12@@std@@YAXPAUCharAngle@FindPredicate@@00$$QAU12@PAH@Z ; std::_Pop_heap<FindPredicate::CharAngle *,int,FindPredicate::CharAngle>
  00026	83 c4 14	 add	 esp, 20			; 00000014H

; 2540 : 	}

  00029	c9		 leave
  0002a	c3		 ret	 0
??$_Pop_heap_0@PAUCharAngle@FindPredicate@@U12@@std@@YAXPAUCharAngle@FindPredicate@@00@Z ENDP ; std::_Pop_heap_0<FindPredicate::CharAngle *,FindPredicate::CharAngle>
_TEXT	ENDS
PUBLIC	??$_Destroy_range@V?$allocator@UCharDistanceSq@FindPredicate@@@std@@@std@@YAXPAUCharDistanceSq@FindPredicate@@0AAV?$allocator@UCharDistanceSq@FindPredicate@@@0@@Z ; std::_Destroy_range<std::allocator<FindPredicate::CharDistanceSq> >
; Function compile flags: /Ogsp
; File c:\program files (x86)\microsoft visual studio 10.0\vc\include\xmemory
;	COMDAT ??$_Destroy_range@V?$allocator@UCharDistanceSq@FindPredicate@@@std@@@std@@YAXPAUCharDistanceSq@FindPredicate@@0AAV?$allocator@UCharDistanceSq@FindPredicate@@@0@@Z
_TEXT	SEGMENT
__First$ = 8						; size = 4
__Last$ = 12						; size = 4
__Al$ = 16						; size = 4
??$_Destroy_range@V?$allocator@UCharDistanceSq@FindPredicate@@@std@@@std@@YAXPAUCharDistanceSq@FindPredicate@@0AAV?$allocator@UCharDistanceSq@FindPredicate@@@0@@Z PROC ; std::_Destroy_range<std::allocator<FindPredicate::CharDistanceSq> >, COMDAT

; 88   : 	_Destroy_range(_First, _Last, _Al, _Ptr_cat(_First, _Last));
; 89   : 	}

  00000	c3		 ret	 0
??$_Destroy_range@V?$allocator@UCharDistanceSq@FindPredicate@@@std@@@std@@YAXPAUCharDistanceSq@FindPredicate@@0AAV?$allocator@UCharDistanceSq@FindPredicate@@@0@@Z ENDP ; std::_Destroy_range<std::allocator<FindPredicate::CharDistanceSq> >
_TEXT	ENDS
PUBLIC	??$_Destroy_range@V?$allocator@UCharAngle@FindPredicate@@@std@@@std@@YAXPAUCharAngle@FindPredicate@@0AAV?$allocator@UCharAngle@FindPredicate@@@0@@Z ; std::_Destroy_range<std::allocator<FindPredicate::CharAngle> >
; Function compile flags: /Ogsp
;	COMDAT ??$_Destroy_range@V?$allocator@UCharAngle@FindPredicate@@@std@@@std@@YAXPAUCharAngle@FindPredicate@@0AAV?$allocator@UCharAngle@FindPredicate@@@0@@Z
_TEXT	SEGMENT
__First$ = 8						; size = 4
__Last$ = 12						; size = 4
__Al$ = 16						; size = 4
??$_Destroy_range@V?$allocator@UCharAngle@FindPredicate@@@std@@@std@@YAXPAUCharAngle@FindPredicate@@0AAV?$allocator@UCharAngle@FindPredicate@@@0@@Z PROC ; std::_Destroy_range<std::allocator<FindPredicate::CharAngle> >, COMDAT

; 88   : 	_Destroy_range(_First, _Last, _Al, _Ptr_cat(_First, _Last));
; 89   : 	}

  00000	c3		 ret	 0
??$_Destroy_range@V?$allocator@UCharAngle@FindPredicate@@@std@@@std@@YAXPAUCharAngle@FindPredicate@@0AAV?$allocator@UCharAngle@FindPredicate@@@0@@Z ENDP ; std::_Destroy_range<std::allocator<FindPredicate::CharAngle> >
_TEXT	ENDS
PUBLIC	??$_Uninitialized_move@PAUCharDistanceSq@FindPredicate@@PAU12@V?$allocator@UCharDistanceSq@FindPredicate@@@std@@@std@@YAPAUCharDistanceSq@FindPredicate@@PAU12@00AAV?$allocator@UCharDistanceSq@FindPredicate@@@0@@Z ; std::_Uninitialized_move<FindPredicate::CharDistanceSq *,FindPredicate::CharDistanceSq *,std::allocator<FindPredicate::CharDistanceSq> >
; Function compile flags: /Ogsp
; File c:\program files (x86)\microsoft visual studio 10.0\vc\include\memory
;	COMDAT ??$_Uninitialized_move@PAUCharDistanceSq@FindPredicate@@PAU12@V?$allocator@UCharDistanceSq@FindPredicate@@@std@@@std@@YAPAUCharDistanceSq@FindPredicate@@PAU12@00AAV?$allocator@UCharDistanceSq@FindPredicate@@@0@@Z
_TEXT	SEGMENT
__Cat$528917 = -4					; size = 1
__First$ = 8						; size = 4
__Last$ = 12						; size = 4
__Dest$ = 16						; size = 4
__Al$ = 20						; size = 4
??$_Uninitialized_move@PAUCharDistanceSq@FindPredicate@@PAU12@V?$allocator@UCharDistanceSq@FindPredicate@@@std@@@std@@YAPAUCharDistanceSq@FindPredicate@@PAU12@00AAV?$allocator@UCharDistanceSq@FindPredicate@@@0@@Z PROC ; std::_Uninitialized_move<FindPredicate::CharDistanceSq *,FindPredicate::CharDistanceSq *,std::allocator<FindPredicate::CharDistanceSq> >, COMDAT

; 469  : 	{	// move [_First, _Last) to raw _Dest, using _Al

  00000	55		 push	 ebp
  00001	8b ec		 mov	 ebp, esp
  00003	51		 push	 ecx

; 470  : 	return (_Uninit_move(_First, _Last, _Dest, _Al,
; 471  : 		_Val_type(_First), _Ptr_cat(_First, _Dest)));

  00004	ff 75 fc	 push	 DWORD PTR __Cat$528917[ebp]
  00007	6a 00		 push	 0
  00009	ff 75 14	 push	 DWORD PTR __Al$[ebp]
  0000c	ff 75 10	 push	 DWORD PTR __Dest$[ebp]
  0000f	ff 75 0c	 push	 DWORD PTR __Last$[ebp]
  00012	ff 75 08	 push	 DWORD PTR __First$[ebp]
  00015	e8 00 00 00 00	 call	 ??$_Uninit_move@PAUCharDistanceSq@FindPredicate@@PAU12@V?$allocator@UCharDistanceSq@FindPredicate@@@std@@U12@@std@@YAPAUCharDistanceSq@FindPredicate@@PAU12@00AAV?$allocator@UCharDistanceSq@FindPredicate@@@0@0U_Nonscalar_ptr_iterator_tag@0@@Z ; std::_Uninit_move<FindPredicate::CharDistanceSq *,FindPredicate::CharDistanceSq *,std::allocator<FindPredicate::CharDistanceSq>,FindPredicate::CharDistanceSq>
  0001a	83 c4 18	 add	 esp, 24			; 00000018H

; 472  : 	}

  0001d	c9		 leave
  0001e	c3		 ret	 0
??$_Uninitialized_move@PAUCharDistanceSq@FindPredicate@@PAU12@V?$allocator@UCharDistanceSq@FindPredicate@@@std@@@std@@YAPAUCharDistanceSq@FindPredicate@@PAU12@00AAV?$allocator@UCharDistanceSq@FindPredicate@@@0@@Z ENDP ; std::_Uninitialized_move<FindPredicate::CharDistanceSq *,FindPredicate::CharDistanceSq *,std::allocator<FindPredicate::CharDistanceSq> >
_TEXT	ENDS
PUBLIC	??$_Uninitialized_move@PAUCharAngle@FindPredicate@@PAU12@V?$allocator@UCharAngle@FindPredicate@@@std@@@std@@YAPAUCharAngle@FindPredicate@@PAU12@00AAV?$allocator@UCharAngle@FindPredicate@@@0@@Z ; std::_Uninitialized_move<FindPredicate::CharAngle *,FindPredicate::CharAngle *,std::allocator<FindPredicate::CharAngle> >
; Function compile flags: /Ogsp
;	COMDAT ??$_Uninitialized_move@PAUCharAngle@FindPredicate@@PAU12@V?$allocator@UCharAngle@FindPredicate@@@std@@@std@@YAPAUCharAngle@FindPredicate@@PAU12@00AAV?$allocator@UCharAngle@FindPredicate@@@0@@Z
_TEXT	SEGMENT
__Cat$528928 = -4					; size = 1
__First$ = 8						; size = 4
__Last$ = 12						; size = 4
__Dest$ = 16						; size = 4
__Al$ = 20						; size = 4
??$_Uninitialized_move@PAUCharAngle@FindPredicate@@PAU12@V?$allocator@UCharAngle@FindPredicate@@@std@@@std@@YAPAUCharAngle@FindPredicate@@PAU12@00AAV?$allocator@UCharAngle@FindPredicate@@@0@@Z PROC ; std::_Uninitialized_move<FindPredicate::CharAngle *,FindPredicate::CharAngle *,std::allocator<FindPredicate::CharAngle> >, COMDAT

; 469  : 	{	// move [_First, _Last) to raw _Dest, using _Al

  00000	55		 push	 ebp
  00001	8b ec		 mov	 ebp, esp
  00003	51		 push	 ecx

; 470  : 	return (_Uninit_move(_First, _Last, _Dest, _Al,
; 471  : 		_Val_type(_First), _Ptr_cat(_First, _Dest)));

  00004	ff 75 fc	 push	 DWORD PTR __Cat$528928[ebp]
  00007	6a 00		 push	 0
  00009	ff 75 14	 push	 DWORD PTR __Al$[ebp]
  0000c	ff 75 10	 push	 DWORD PTR __Dest$[ebp]
  0000f	ff 75 0c	 push	 DWORD PTR __Last$[ebp]
  00012	ff 75 08	 push	 DWORD PTR __First$[ebp]
  00015	e8 00 00 00 00	 call	 ??$_Uninit_move@PAUCharAngle@FindPredicate@@PAU12@V?$allocator@UCharAngle@FindPredicate@@@std@@U12@@std@@YAPAUCharAngle@FindPredicate@@PAU12@00AAV?$allocator@UCharAngle@FindPredicate@@@0@0U_Nonscalar_ptr_iterator_tag@0@@Z ; std::_Uninit_move<FindPredicate::CharAngle *,FindPredicate::CharAngle *,std::allocator<FindPredicate::CharAngle>,FindPredicate::CharAngle>
  0001a	83 c4 18	 add	 esp, 24			; 00000018H

; 472  : 	}

  0001d	c9		 leave
  0001e	c3		 ret	 0
??$_Uninitialized_move@PAUCharAngle@FindPredicate@@PAU12@V?$allocator@UCharAngle@FindPredicate@@@std@@@std@@YAPAUCharAngle@FindPredicate@@PAU12@00AAV?$allocator@UCharAngle@FindPredicate@@@0@@Z ENDP ; std::_Uninitialized_move<FindPredicate::CharAngle *,FindPredicate::CharAngle *,std::allocator<FindPredicate::CharAngle> >
_TEXT	ENDS
PUBLIC	??$_Unguarded_partition@PAUCharDistanceSq@FindPredicate@@@std@@YA?AU?$pair@PAUCharDistanceSq@FindPredicate@@PAU12@@0@PAUCharDistanceSq@FindPredicate@@0@Z ; std::_Unguarded_partition<FindPredicate::CharDistanceSq *>
; Function compile flags: /Ogsp
; File c:\program files (x86)\microsoft visual studio 10.0\vc\include\algorithm
;	COMDAT ??$_Unguarded_partition@PAUCharDistanceSq@FindPredicate@@@std@@YA?AU?$pair@PAUCharDistanceSq@FindPredicate@@PAU12@@0@PAUCharDistanceSq@FindPredicate@@0@Z
_TEXT	SEGMENT
__Tmp$529240 = -52					; size = 8
__Tmp$529207 = -44					; size = 8
__Tmp$529175 = -36					; size = 8
__Tmp$529142 = -28					; size = 8
__Tmp$529044 = -20					; size = 8
__Tmp$528998 = -12					; size = 8
__Glast$ = -4						; size = 4
___$ReturnUdt$ = 8					; size = 4
__First$ = 12						; size = 4
__Last$ = 16						; size = 4
??$_Unguarded_partition@PAUCharDistanceSq@FindPredicate@@@std@@YA?AU?$pair@PAUCharDistanceSq@FindPredicate@@PAU12@@0@PAUCharDistanceSq@FindPredicate@@0@Z PROC ; std::_Unguarded_partition<FindPredicate::CharDistanceSq *>, COMDAT

; 3551 : 	{	// partition [_First, _Last), using operator<

  00000	55		 push	 ebp
  00001	8b ec		 mov	 ebp, esp
  00003	83 ec 34	 sub	 esp, 52			; 00000034H
  00006	53		 push	 ebx

; 3552 : 	_RanIt _Mid = _First + (_Last - _First) / 2;	// sort median to _Mid

  00007	8b 5d 10	 mov	 ebx, DWORD PTR __Last$[ebp]
  0000a	56		 push	 esi
  0000b	57		 push	 edi
  0000c	8b 7d 0c	 mov	 edi, DWORD PTR __First$[ebp]
  0000f	8b c3		 mov	 eax, ebx
  00011	2b c7		 sub	 eax, edi
  00013	c1 f8 03	 sar	 eax, 3
  00016	99		 cdq
  00017	2b c2		 sub	 eax, edx
  00019	d1 f8		 sar	 eax, 1
  0001b	8d 34 c7	 lea	 esi, DWORD PTR [edi+eax*8]

; 3553 : 	_Median(_First, _Mid, _Last - 1);

  0001e	8d 43 f8	 lea	 eax, DWORD PTR [ebx-8]
  00021	50		 push	 eax
  00022	56		 push	 esi
  00023	57		 push	 edi
  00024	e8 00 00 00 00	 call	 ??$_Median@PAUCharDistanceSq@FindPredicate@@@std@@YAXPAUCharDistanceSq@FindPredicate@@00@Z ; std::_Median<FindPredicate::CharDistanceSq *>
  00029	83 c4 0c	 add	 esp, 12			; 0000000cH

; 3554 : 	_RanIt _Pfirst = _Mid;

  0002c	8b ce		 mov	 ecx, esi

; 3555 : 	_RanIt _Plast = _Pfirst + 1;

  0002e	8d 56 08	 lea	 edx, DWORD PTR [esi+8]

; 3556 : 
; 3557 : 	while (_First < _Pfirst
; 3558 : 		&& !_DEBUG_LT(*(_Pfirst - 1), *_Pfirst)
; 3559 : 		&& !(*_Pfirst < *(_Pfirst - 1)))

  00031	3b fe		 cmp	 edi, esi
  00033	73 29		 jae	 SHORT $LN158@Unguarded_
$LL27@Unguarded_:
  00035	f3 0f 10 41 fc	 movss	 xmm0, DWORD PTR [ecx-4]
  0003a	f3 0f 10 49 04	 movss	 xmm1, DWORD PTR [ecx+4]
  0003f	0f 5a d0	 cvtps2pd xmm2, xmm0
  00042	0f 5a d9	 cvtps2pd xmm3, xmm1
  00045	66 0f 2f da	 comisd	 xmm3, xmm2
  00049	77 13		 ja	 SHORT $LN158@Unguarded_
  0004b	0f 5a c9	 cvtps2pd xmm1, xmm1
  0004e	0f 5a c0	 cvtps2pd xmm0, xmm0
  00051	66 0f 2f c1	 comisd	 xmm0, xmm1
  00055	77 07		 ja	 SHORT $LN158@Unguarded_

; 3560 : 		--_Pfirst;

  00057	83 e9 08	 sub	 ecx, 8
  0005a	3b f9		 cmp	 edi, ecx
  0005c	72 d7		 jb	 SHORT $LL27@Unguarded_
$LN158@Unguarded_:

; 3561 : 	while (_Plast < _Last
; 3562 : 		&& !_DEBUG_LT(*_Plast, *_Pfirst)
; 3563 : 		&& !(*_Pfirst < *_Plast))

  0005e	3b d3		 cmp	 edx, ebx
  00060	73 31		 jae	 SHORT $LN160@Unguarded_
  00062	f3 0f 10 49 04	 movss	 xmm1, DWORD PTR [ecx+4]
$LL25@Unguarded_:
  00067	f3 0f 10 42 04	 movss	 xmm0, DWORD PTR [edx+4]
  0006c	0f 57 db	 xorps	 xmm3, xmm3
  0006f	0f 5a d0	 cvtps2pd xmm2, xmm0
  00072	f3 0f 5a d9	 cvtss2sd xmm3, xmm1
  00076	66 0f 2f da	 comisd	 xmm3, xmm2
  0007a	77 17		 ja	 SHORT $LN160@Unguarded_
  0007c	0f 57 d2	 xorps	 xmm2, xmm2
  0007f	f3 0f 5a d1	 cvtss2sd xmm2, xmm1
  00083	0f 5a c0	 cvtps2pd xmm0, xmm0
  00086	66 0f 2f c2	 comisd	 xmm0, xmm2
  0008a	77 07		 ja	 SHORT $LN160@Unguarded_

; 3564 : 		++_Plast;

  0008c	83 c2 08	 add	 edx, 8
  0008f	3b d3		 cmp	 edx, ebx
  00091	72 d4		 jb	 SHORT $LL25@Unguarded_
$LN160@Unguarded_:

; 3565 : 
; 3566 : 	_RanIt _Gfirst = _Plast;
; 3567 : 	_RanIt _Glast = _Pfirst;

  00093	8b f1		 mov	 esi, ecx
  00095	8b c2		 mov	 eax, edx
  00097	89 75 fc	 mov	 DWORD PTR __Glast$[ebp], esi

; 3568 : 
; 3569 : 	for (; ; )
; 3570 : 		{	// partition
; 3571 : 		for (; _Gfirst < _Last; ++_Gfirst)

  0009a	eb 4a		 jmp	 SHORT $LN166@Unguarded_
$LL21@Unguarded_:

; 3572 : 			if (_DEBUG_LT(*_Pfirst, *_Gfirst))

  0009c	f3 0f 10 41 04	 movss	 xmm0, DWORD PTR [ecx+4]
  000a1	f3 0f 10 48 04	 movss	 xmm1, DWORD PTR [eax+4]
  000a6	0f 5a d0	 cvtps2pd xmm2, xmm0
  000a9	0f 5a d9	 cvtps2pd xmm3, xmm1
  000ac	66 0f 2f da	 comisd	 xmm3, xmm2
  000b0	77 31		 ja	 SHORT $LN20@Unguarded_

; 3573 : 				;
; 3574 : 			else if (*_Gfirst < *_Pfirst)

  000b2	0f 5a c9	 cvtps2pd xmm1, xmm1
  000b5	0f 5a c0	 cvtps2pd xmm0, xmm0
  000b8	66 0f 2f c1	 comisd	 xmm0, xmm1
  000bc	77 2d		 ja	 SHORT $LN161@Unguarded_

; 3575 : 				break;
; 3576 : 			else
; 3577 : 				_STD iter_swap(_Plast++, _Gfirst);

  000be	8b fa		 mov	 edi, edx
  000c0	8b 1f		 mov	 ebx, DWORD PTR [edi]
  000c2	89 5d f4	 mov	 DWORD PTR __Tmp$528998[ebp], ebx
  000c5	8b 5f 04	 mov	 ebx, DWORD PTR [edi+4]
  000c8	89 5d f8	 mov	 DWORD PTR __Tmp$528998[ebp+4], ebx
  000cb	8b 18		 mov	 ebx, DWORD PTR [eax]
  000cd	89 1f		 mov	 DWORD PTR [edi], ebx
  000cf	8b 58 04	 mov	 ebx, DWORD PTR [eax+4]
  000d2	89 5f 04	 mov	 DWORD PTR [edi+4], ebx
  000d5	8b 7d f4	 mov	 edi, DWORD PTR __Tmp$528998[ebp]
  000d8	89 38		 mov	 DWORD PTR [eax], edi
  000da	8b 7d f8	 mov	 edi, DWORD PTR __Tmp$528998[ebp+4]
  000dd	89 78 04	 mov	 DWORD PTR [eax+4], edi
$LN168@Unguarded_:
  000e0	83 c2 08	 add	 edx, 8
$LN20@Unguarded_:

; 3568 : 
; 3569 : 	for (; ; )
; 3570 : 		{	// partition
; 3571 : 		for (; _Gfirst < _Last; ++_Gfirst)

  000e3	83 c0 08	 add	 eax, 8
$LN166@Unguarded_:
  000e6	3b 45 10	 cmp	 eax, DWORD PTR __Last$[ebp]
  000e9	72 b1		 jb	 SHORT $LL21@Unguarded_
$LN161@Unguarded_:

; 3578 : 		for (; _First < _Glast; --_Glast)

  000eb	3b 75 0c	 cmp	 esi, DWORD PTR __First$[ebp]
  000ee	76 59		 jbe	 SHORT $LN167@Unguarded_
  000f0	8d 7e f8	 lea	 edi, DWORD PTR [esi-8]
$LL163@Unguarded_:

; 3579 : 			if (_DEBUG_LT(*(_Glast - 1), *_Pfirst))

  000f3	f3 0f 10 47 04	 movss	 xmm0, DWORD PTR [edi+4]
  000f8	f3 0f 10 49 04	 movss	 xmm1, DWORD PTR [ecx+4]
  000fd	0f 5a d0	 cvtps2pd xmm2, xmm0
  00100	0f 5a d9	 cvtps2pd xmm3, xmm1
  00103	66 0f 2f da	 comisd	 xmm3, xmm2
  00107	77 2f		 ja	 SHORT $LN13@Unguarded_

; 3580 : 				;
; 3581 : 			else if (*_Pfirst < *(_Glast - 1))

  00109	0f 5a c9	 cvtps2pd xmm1, xmm1
  0010c	0f 5a c0	 cvtps2pd xmm0, xmm0
  0010f	66 0f 2f c1	 comisd	 xmm0, xmm1
  00113	77 31		 ja	 SHORT $LN162@Unguarded_

; 3582 : 				break;
; 3583 : 			else
; 3584 : 				_STD iter_swap(--_Pfirst, _Glast - 1);

  00115	83 e9 08	 sub	 ecx, 8
  00118	8b 19		 mov	 ebx, DWORD PTR [ecx]
  0011a	89 5d ec	 mov	 DWORD PTR __Tmp$529044[ebp], ebx
  0011d	8b 59 04	 mov	 ebx, DWORD PTR [ecx+4]
  00120	89 5d f0	 mov	 DWORD PTR __Tmp$529044[ebp+4], ebx
  00123	8b 1f		 mov	 ebx, DWORD PTR [edi]
  00125	89 19		 mov	 DWORD PTR [ecx], ebx
  00127	8b 5f 04	 mov	 ebx, DWORD PTR [edi+4]
  0012a	89 59 04	 mov	 DWORD PTR [ecx+4], ebx
  0012d	8b 5d ec	 mov	 ebx, DWORD PTR __Tmp$529044[ebp]
  00130	89 1f		 mov	 DWORD PTR [edi], ebx
  00132	8b 5d f0	 mov	 ebx, DWORD PTR __Tmp$529044[ebp+4]
  00135	89 5f 04	 mov	 DWORD PTR [edi+4], ebx
$LN13@Unguarded_:

; 3578 : 		for (; _First < _Glast; --_Glast)

  00138	83 ee 08	 sub	 esi, 8
  0013b	83 ef 08	 sub	 edi, 8
  0013e	89 75 fc	 mov	 DWORD PTR __Glast$[ebp], esi
  00141	39 75 0c	 cmp	 DWORD PTR __First$[ebp], esi
  00144	72 ad		 jb	 SHORT $LL163@Unguarded_
$LN162@Unguarded_:

; 3585 : 		if (_Glast == _First && _Gfirst == _Last)

  00146	3b 75 0c	 cmp	 esi, DWORD PTR __First$[ebp]
$LN167@Unguarded_:
  00149	75 50		 jne	 SHORT $LN6@Unguarded_
  0014b	3b 45 10	 cmp	 eax, DWORD PTR __Last$[ebp]
  0014e	0f 84 b4 00 00
	00		 je	 $LN152@Unguarded_

; 3587 : 
; 3588 : 		if (_Glast == _First)
; 3589 : 			{	// no room at bottom, rotate pivot upward
; 3590 : 			if (_Plast != _Gfirst)

  00154	3b d0		 cmp	 edx, eax
  00156	74 14		 je	 SHORT $LN96@Unguarded_

; 3591 : 				_STD iter_swap(_Pfirst, _Plast);

  00158	8b 1a		 mov	 ebx, DWORD PTR [edx]
  0015a	8b 31		 mov	 esi, DWORD PTR [ecx]
  0015c	8b 79 04	 mov	 edi, DWORD PTR [ecx+4]
  0015f	89 19		 mov	 DWORD PTR [ecx], ebx
  00161	8b 5a 04	 mov	 ebx, DWORD PTR [edx+4]
  00164	89 59 04	 mov	 DWORD PTR [ecx+4], ebx
  00167	89 32		 mov	 DWORD PTR [edx], esi
  00169	89 7a 04	 mov	 DWORD PTR [edx+4], edi
$LN96@Unguarded_:

; 3592 : 			++_Plast;
; 3593 : 			_STD iter_swap(_Pfirst++, _Gfirst++);

  0016c	8b f9		 mov	 edi, ecx
  0016e	8b 1f		 mov	 ebx, DWORD PTR [edi]
  00170	89 5d e4	 mov	 DWORD PTR __Tmp$529142[ebp], ebx
  00173	8b 5f 04	 mov	 ebx, DWORD PTR [edi+4]
  00176	8b f0		 mov	 esi, eax
  00178	89 5d e8	 mov	 DWORD PTR __Tmp$529142[ebp+4], ebx
  0017b	8b 1e		 mov	 ebx, DWORD PTR [esi]
  0017d	89 1f		 mov	 DWORD PTR [edi], ebx
  0017f	8b 5e 04	 mov	 ebx, DWORD PTR [esi+4]
  00182	89 5f 04	 mov	 DWORD PTR [edi+4], ebx
  00185	8b 7d e4	 mov	 edi, DWORD PTR __Tmp$529142[ebp]
  00188	89 3e		 mov	 DWORD PTR [esi], edi
  0018a	8b 7d e8	 mov	 edi, DWORD PTR __Tmp$529142[ebp+4]
  0018d	89 7e 04	 mov	 DWORD PTR [esi+4], edi
  00190	8b 75 fc	 mov	 esi, DWORD PTR __Glast$[ebp]
  00193	83 c1 08	 add	 ecx, 8
  00196	e9 45 ff ff ff	 jmp	 $LN168@Unguarded_
$LN6@Unguarded_:

; 3594 : 			}
; 3595 : 		else if (_Gfirst == _Last)
; 3596 : 			{	// no room at top, rotate pivot downward
; 3597 : 			if (--_Glast != --_Pfirst)

  0019b	83 ee 08	 sub	 esi, 8
  0019e	89 75 fc	 mov	 DWORD PTR __Glast$[ebp], esi
  001a1	3b 45 10	 cmp	 eax, DWORD PTR __Last$[ebp]
  001a4	75 43		 jne	 SHORT $LN3@Unguarded_
  001a6	83 e9 08	 sub	 ecx, 8
  001a9	3b f1		 cmp	 esi, ecx
  001ab	74 1a		 je	 SHORT $LN116@Unguarded_

; 3598 : 				_STD iter_swap(_Glast, _Pfirst);

  001ad	8b 5e 04	 mov	 ebx, DWORD PTR [esi+4]
  001b0	8b 3e		 mov	 edi, DWORD PTR [esi]
  001b2	89 5d e0	 mov	 DWORD PTR __Tmp$529175[ebp+4], ebx
  001b5	8b 19		 mov	 ebx, DWORD PTR [ecx]
  001b7	89 1e		 mov	 DWORD PTR [esi], ebx
  001b9	8b 59 04	 mov	 ebx, DWORD PTR [ecx+4]
  001bc	89 5e 04	 mov	 DWORD PTR [esi+4], ebx
  001bf	89 39		 mov	 DWORD PTR [ecx], edi
  001c1	8b 7d e0	 mov	 edi, DWORD PTR __Tmp$529175[ebp+4]
  001c4	89 79 04	 mov	 DWORD PTR [ecx+4], edi
$LN116@Unguarded_:

; 3599 : 			_STD iter_swap(_Pfirst, --_Plast);

  001c7	8b 59 04	 mov	 ebx, DWORD PTR [ecx+4]
  001ca	8b 39		 mov	 edi, DWORD PTR [ecx]
  001cc	83 ea 08	 sub	 edx, 8
  001cf	89 5d d8	 mov	 DWORD PTR __Tmp$529207[ebp+4], ebx
  001d2	8b 1a		 mov	 ebx, DWORD PTR [edx]
  001d4	89 19		 mov	 DWORD PTR [ecx], ebx
  001d6	8b 5a 04	 mov	 ebx, DWORD PTR [edx+4]
  001d9	89 59 04	 mov	 DWORD PTR [ecx+4], ebx
  001dc	89 3a		 mov	 DWORD PTR [edx], edi
  001de	8b 7d d8	 mov	 edi, DWORD PTR __Tmp$529207[ebp+4]
  001e1	89 7a 04	 mov	 DWORD PTR [edx+4], edi

; 3600 : 			}
; 3601 : 		else

  001e4	e9 fd fe ff ff	 jmp	 $LN166@Unguarded_
$LN3@Unguarded_:

; 3602 : 			_STD iter_swap(_Gfirst++, --_Glast);

  001e9	8b 58 04	 mov	 ebx, DWORD PTR [eax+4]
  001ec	8b 38		 mov	 edi, DWORD PTR [eax]
  001ee	89 5d d0	 mov	 DWORD PTR __Tmp$529240[ebp+4], ebx
  001f1	8b 1e		 mov	 ebx, DWORD PTR [esi]
  001f3	89 18		 mov	 DWORD PTR [eax], ebx
  001f5	8b 5e 04	 mov	 ebx, DWORD PTR [esi+4]
  001f8	89 58 04	 mov	 DWORD PTR [eax+4], ebx
  001fb	89 3e		 mov	 DWORD PTR [esi], edi
  001fd	8b 7d d0	 mov	 edi, DWORD PTR __Tmp$529240[ebp+4]
  00200	89 7e 04	 mov	 DWORD PTR [esi+4], edi

; 3603 : 		}

  00203	e9 db fe ff ff	 jmp	 $LN20@Unguarded_
$LN152@Unguarded_:

; 3586 : 			return (_STD pair<_RanIt, _RanIt>(_Pfirst, _Plast));

  00208	8b 45 08	 mov	 eax, DWORD PTR ___$ReturnUdt$[ebp]
  0020b	5f		 pop	 edi
  0020c	5e		 pop	 esi
  0020d	89 08		 mov	 DWORD PTR [eax], ecx
  0020f	89 50 04	 mov	 DWORD PTR [eax+4], edx
  00212	5b		 pop	 ebx

; 3604 : 	}

  00213	c9		 leave
  00214	c3		 ret	 0
??$_Unguarded_partition@PAUCharDistanceSq@FindPredicate@@@std@@YA?AU?$pair@PAUCharDistanceSq@FindPredicate@@PAU12@@0@PAUCharDistanceSq@FindPredicate@@0@Z ENDP ; std::_Unguarded_partition<FindPredicate::CharDistanceSq *>
_TEXT	ENDS
PUBLIC	??$make_heap@PAUCharDistanceSq@FindPredicate@@@std@@YAXPAUCharDistanceSq@FindPredicate@@0@Z ; std::make_heap<FindPredicate::CharDistanceSq *>
; Function compile flags: /Ogsp
;	COMDAT ??$make_heap@PAUCharDistanceSq@FindPredicate@@@std@@YAXPAUCharDistanceSq@FindPredicate@@0@Z
_TEXT	SEGMENT
__First$ = 8						; size = 4
__Last$ = 12						; size = 4
??$make_heap@PAUCharDistanceSq@FindPredicate@@@std@@YAXPAUCharDistanceSq@FindPredicate@@0@Z PROC ; std::make_heap<FindPredicate::CharDistanceSq *>, COMDAT

; 2645 : 	{	// make [_First, _Last) into a heap, using operator<

  00000	55		 push	 ebp
  00001	8b ec		 mov	 ebp, esp

; 2646 : 	_DEBUG_RANGE(_First, _Last);
; 2647 : 	if (1 < _Last - _First)

  00003	8b 45 0c	 mov	 eax, DWORD PTR __Last$[ebp]
  00006	2b 45 08	 sub	 eax, DWORD PTR __First$[ebp]
  00009	83 e0 f8	 and	 eax, -8			; fffffff8H
  0000c	83 f8 08	 cmp	 eax, 8
  0000f	7e 12		 jle	 SHORT $LN1@make_heap

; 2648 : 		_Make_heap(_Unchecked(_First), _Unchecked(_Last),
; 2649 : 			_Dist_type(_First), _Val_type(_First));

  00011	6a 00		 push	 0
  00013	6a 00		 push	 0
  00015	ff 75 0c	 push	 DWORD PTR __Last$[ebp]
  00018	ff 75 08	 push	 DWORD PTR __First$[ebp]
  0001b	e8 00 00 00 00	 call	 ??$_Make_heap@PAUCharDistanceSq@FindPredicate@@HU12@@std@@YAXPAUCharDistanceSq@FindPredicate@@0PAH0@Z ; std::_Make_heap<FindPredicate::CharDistanceSq *,int,FindPredicate::CharDistanceSq>
  00020	83 c4 10	 add	 esp, 16			; 00000010H
$LN1@make_heap:

; 2650 : 	}

  00023	5d		 pop	 ebp
  00024	c3		 ret	 0
??$make_heap@PAUCharDistanceSq@FindPredicate@@@std@@YAXPAUCharDistanceSq@FindPredicate@@0@Z ENDP ; std::make_heap<FindPredicate::CharDistanceSq *>
_TEXT	ENDS
PUBLIC	??$_Unguarded_partition@PAUCharAngle@FindPredicate@@@std@@YA?AU?$pair@PAUCharAngle@FindPredicate@@PAU12@@0@PAUCharAngle@FindPredicate@@0@Z ; std::_Unguarded_partition<FindPredicate::CharAngle *>
; Function compile flags: /Ogsp
;	COMDAT ??$_Unguarded_partition@PAUCharAngle@FindPredicate@@@std@@YA?AU?$pair@PAUCharAngle@FindPredicate@@PAU12@@0@PAUCharAngle@FindPredicate@@0@Z
_TEXT	SEGMENT
__Tmp$529598 = -52					; size = 8
__Tmp$529571 = -44					; size = 8
__Tmp$529539 = -36					; size = 8
__Tmp$529506 = -28					; size = 8
__Tmp$529402 = -20					; size = 8
__Tmp$529355 = -12					; size = 8
__Glast$ = -4						; size = 4
___$ReturnUdt$ = 8					; size = 4
__First$ = 12						; size = 4
__Last$ = 16						; size = 4
??$_Unguarded_partition@PAUCharAngle@FindPredicate@@@std@@YA?AU?$pair@PAUCharAngle@FindPredicate@@PAU12@@0@PAUCharAngle@FindPredicate@@0@Z PROC ; std::_Unguarded_partition<FindPredicate::CharAngle *>, COMDAT

; 3551 : 	{	// partition [_First, _Last), using operator<

  00000	55		 push	 ebp
  00001	8b ec		 mov	 ebp, esp
  00003	83 ec 34	 sub	 esp, 52			; 00000034H
  00006	53		 push	 ebx

; 3552 : 	_RanIt _Mid = _First + (_Last - _First) / 2;	// sort median to _Mid

  00007	8b 5d 10	 mov	 ebx, DWORD PTR __Last$[ebp]
  0000a	56		 push	 esi
  0000b	57		 push	 edi
  0000c	8b 7d 0c	 mov	 edi, DWORD PTR __First$[ebp]
  0000f	8b c3		 mov	 eax, ebx
  00011	2b c7		 sub	 eax, edi
  00013	c1 f8 03	 sar	 eax, 3
  00016	99		 cdq
  00017	2b c2		 sub	 eax, edx
  00019	d1 f8		 sar	 eax, 1
  0001b	8d 34 c7	 lea	 esi, DWORD PTR [edi+eax*8]

; 3553 : 	_Median(_First, _Mid, _Last - 1);

  0001e	8d 43 f8	 lea	 eax, DWORD PTR [ebx-8]
  00021	50		 push	 eax
  00022	56		 push	 esi
  00023	57		 push	 edi
  00024	e8 00 00 00 00	 call	 ??$_Median@PAUCharAngle@FindPredicate@@@std@@YAXPAUCharAngle@FindPredicate@@00@Z ; std::_Median<FindPredicate::CharAngle *>
  00029	83 c4 0c	 add	 esp, 12			; 0000000cH

; 3554 : 	_RanIt _Pfirst = _Mid;

  0002c	8b ce		 mov	 ecx, esi

; 3555 : 	_RanIt _Plast = _Pfirst + 1;

  0002e	8d 56 08	 lea	 edx, DWORD PTR [esi+8]

; 3556 : 
; 3557 : 	while (_First < _Pfirst
; 3558 : 		&& !_DEBUG_LT(*(_Pfirst - 1), *_Pfirst)
; 3559 : 		&& !(*_Pfirst < *(_Pfirst - 1)))

  00031	3b fe		 cmp	 edi, esi
  00033	73 29		 jae	 SHORT $LN158@Unguarded_@2
$LL27@Unguarded_@2:
  00035	f3 0f 10 41 fc	 movss	 xmm0, DWORD PTR [ecx-4]
  0003a	f3 0f 10 49 04	 movss	 xmm1, DWORD PTR [ecx+4]
  0003f	0f 5a d0	 cvtps2pd xmm2, xmm0
  00042	0f 5a d9	 cvtps2pd xmm3, xmm1
  00045	66 0f 2f da	 comisd	 xmm3, xmm2
  00049	77 13		 ja	 SHORT $LN158@Unguarded_@2
  0004b	0f 5a c9	 cvtps2pd xmm1, xmm1
  0004e	0f 5a c0	 cvtps2pd xmm0, xmm0
  00051	66 0f 2f c1	 comisd	 xmm0, xmm1
  00055	77 07		 ja	 SHORT $LN158@Unguarded_@2

; 3560 : 		--_Pfirst;

  00057	83 e9 08	 sub	 ecx, 8
  0005a	3b f9		 cmp	 edi, ecx
  0005c	72 d7		 jb	 SHORT $LL27@Unguarded_@2
$LN158@Unguarded_@2:

; 3561 : 	while (_Plast < _Last
; 3562 : 		&& !_DEBUG_LT(*_Plast, *_Pfirst)
; 3563 : 		&& !(*_Pfirst < *_Plast))

  0005e	3b d3		 cmp	 edx, ebx
  00060	73 31		 jae	 SHORT $LN160@Unguarded_@2
  00062	f3 0f 10 49 04	 movss	 xmm1, DWORD PTR [ecx+4]
$LL25@Unguarded_@2:
  00067	f3 0f 10 42 04	 movss	 xmm0, DWORD PTR [edx+4]
  0006c	0f 57 db	 xorps	 xmm3, xmm3
  0006f	0f 5a d0	 cvtps2pd xmm2, xmm0
  00072	f3 0f 5a d9	 cvtss2sd xmm3, xmm1
  00076	66 0f 2f da	 comisd	 xmm3, xmm2
  0007a	77 17		 ja	 SHORT $LN160@Unguarded_@2
  0007c	0f 57 d2	 xorps	 xmm2, xmm2
  0007f	f3 0f 5a d1	 cvtss2sd xmm2, xmm1
  00083	0f 5a c0	 cvtps2pd xmm0, xmm0
  00086	66 0f 2f c2	 comisd	 xmm0, xmm2
  0008a	77 07		 ja	 SHORT $LN160@Unguarded_@2

; 3564 : 		++_Plast;

  0008c	83 c2 08	 add	 edx, 8
  0008f	3b d3		 cmp	 edx, ebx
  00091	72 d4		 jb	 SHORT $LL25@Unguarded_@2
$LN160@Unguarded_@2:

; 3565 : 
; 3566 : 	_RanIt _Gfirst = _Plast;
; 3567 : 	_RanIt _Glast = _Pfirst;

  00093	8b f1		 mov	 esi, ecx
  00095	8b c2		 mov	 eax, edx
  00097	89 75 fc	 mov	 DWORD PTR __Glast$[ebp], esi

; 3568 : 
; 3569 : 	for (; ; )
; 3570 : 		{	// partition
; 3571 : 		for (; _Gfirst < _Last; ++_Gfirst)

  0009a	eb 4a		 jmp	 SHORT $LN166@Unguarded_@2
$LL21@Unguarded_@2:

; 3572 : 			if (_DEBUG_LT(*_Pfirst, *_Gfirst))

  0009c	f3 0f 10 41 04	 movss	 xmm0, DWORD PTR [ecx+4]
  000a1	f3 0f 10 48 04	 movss	 xmm1, DWORD PTR [eax+4]
  000a6	0f 5a d0	 cvtps2pd xmm2, xmm0
  000a9	0f 5a d9	 cvtps2pd xmm3, xmm1
  000ac	66 0f 2f da	 comisd	 xmm3, xmm2
  000b0	77 31		 ja	 SHORT $LN20@Unguarded_@2

; 3573 : 				;
; 3574 : 			else if (*_Gfirst < *_Pfirst)

  000b2	0f 5a c9	 cvtps2pd xmm1, xmm1
  000b5	0f 5a c0	 cvtps2pd xmm0, xmm0
  000b8	66 0f 2f c1	 comisd	 xmm0, xmm1
  000bc	77 2d		 ja	 SHORT $LN161@Unguarded_@2

; 3575 : 				break;
; 3576 : 			else
; 3577 : 				_STD iter_swap(_Plast++, _Gfirst);

  000be	8b fa		 mov	 edi, edx
  000c0	8b 1f		 mov	 ebx, DWORD PTR [edi]
  000c2	89 5d f4	 mov	 DWORD PTR __Tmp$529355[ebp], ebx
  000c5	8b 5f 04	 mov	 ebx, DWORD PTR [edi+4]
  000c8	89 5d f8	 mov	 DWORD PTR __Tmp$529355[ebp+4], ebx
  000cb	8b 18		 mov	 ebx, DWORD PTR [eax]
  000cd	89 1f		 mov	 DWORD PTR [edi], ebx
  000cf	8b 58 04	 mov	 ebx, DWORD PTR [eax+4]
  000d2	89 5f 04	 mov	 DWORD PTR [edi+4], ebx
  000d5	8b 7d f4	 mov	 edi, DWORD PTR __Tmp$529355[ebp]
  000d8	89 38		 mov	 DWORD PTR [eax], edi
  000da	8b 7d f8	 mov	 edi, DWORD PTR __Tmp$529355[ebp+4]
  000dd	89 78 04	 mov	 DWORD PTR [eax+4], edi
$LN168@Unguarded_@2:
  000e0	83 c2 08	 add	 edx, 8
$LN20@Unguarded_@2:

; 3568 : 
; 3569 : 	for (; ; )
; 3570 : 		{	// partition
; 3571 : 		for (; _Gfirst < _Last; ++_Gfirst)

  000e3	83 c0 08	 add	 eax, 8
$LN166@Unguarded_@2:
  000e6	3b 45 10	 cmp	 eax, DWORD PTR __Last$[ebp]
  000e9	72 b1		 jb	 SHORT $LL21@Unguarded_@2
$LN161@Unguarded_@2:

; 3578 : 		for (; _First < _Glast; --_Glast)

  000eb	3b 75 0c	 cmp	 esi, DWORD PTR __First$[ebp]
  000ee	76 59		 jbe	 SHORT $LN167@Unguarded_@2
  000f0	8d 7e f8	 lea	 edi, DWORD PTR [esi-8]
$LL163@Unguarded_@2:

; 3579 : 			if (_DEBUG_LT(*(_Glast - 1), *_Pfirst))

  000f3	f3 0f 10 47 04	 movss	 xmm0, DWORD PTR [edi+4]
  000f8	f3 0f 10 49 04	 movss	 xmm1, DWORD PTR [ecx+4]
  000fd	0f 5a d0	 cvtps2pd xmm2, xmm0
  00100	0f 5a d9	 cvtps2pd xmm3, xmm1
  00103	66 0f 2f da	 comisd	 xmm3, xmm2
  00107	77 2f		 ja	 SHORT $LN13@Unguarded_@2

; 3580 : 				;
; 3581 : 			else if (*_Pfirst < *(_Glast - 1))

  00109	0f 5a c9	 cvtps2pd xmm1, xmm1
  0010c	0f 5a c0	 cvtps2pd xmm0, xmm0
  0010f	66 0f 2f c1	 comisd	 xmm0, xmm1
  00113	77 31		 ja	 SHORT $LN162@Unguarded_@2

; 3582 : 				break;
; 3583 : 			else
; 3584 : 				_STD iter_swap(--_Pfirst, _Glast - 1);

  00115	83 e9 08	 sub	 ecx, 8
  00118	8b 19		 mov	 ebx, DWORD PTR [ecx]
  0011a	89 5d ec	 mov	 DWORD PTR __Tmp$529402[ebp], ebx
  0011d	8b 59 04	 mov	 ebx, DWORD PTR [ecx+4]
  00120	89 5d f0	 mov	 DWORD PTR __Tmp$529402[ebp+4], ebx
  00123	8b 1f		 mov	 ebx, DWORD PTR [edi]
  00125	89 19		 mov	 DWORD PTR [ecx], ebx
  00127	8b 5f 04	 mov	 ebx, DWORD PTR [edi+4]
  0012a	89 59 04	 mov	 DWORD PTR [ecx+4], ebx
  0012d	8b 5d ec	 mov	 ebx, DWORD PTR __Tmp$529402[ebp]
  00130	89 1f		 mov	 DWORD PTR [edi], ebx
  00132	8b 5d f0	 mov	 ebx, DWORD PTR __Tmp$529402[ebp+4]
  00135	89 5f 04	 mov	 DWORD PTR [edi+4], ebx
$LN13@Unguarded_@2:

; 3578 : 		for (; _First < _Glast; --_Glast)

  00138	83 ee 08	 sub	 esi, 8
  0013b	83 ef 08	 sub	 edi, 8
  0013e	89 75 fc	 mov	 DWORD PTR __Glast$[ebp], esi
  00141	39 75 0c	 cmp	 DWORD PTR __First$[ebp], esi
  00144	72 ad		 jb	 SHORT $LL163@Unguarded_@2
$LN162@Unguarded_@2:

; 3585 : 		if (_Glast == _First && _Gfirst == _Last)

  00146	3b 75 0c	 cmp	 esi, DWORD PTR __First$[ebp]
$LN167@Unguarded_@2:
  00149	75 50		 jne	 SHORT $LN6@Unguarded_@2
  0014b	3b 45 10	 cmp	 eax, DWORD PTR __Last$[ebp]
  0014e	0f 84 b4 00 00
	00		 je	 $LN152@Unguarded_@2

; 3587 : 
; 3588 : 		if (_Glast == _First)
; 3589 : 			{	// no room at bottom, rotate pivot upward
; 3590 : 			if (_Plast != _Gfirst)

  00154	3b d0		 cmp	 edx, eax
  00156	74 14		 je	 SHORT $LN96@Unguarded_@2

; 3591 : 				_STD iter_swap(_Pfirst, _Plast);

  00158	8b 1a		 mov	 ebx, DWORD PTR [edx]
  0015a	8b 31		 mov	 esi, DWORD PTR [ecx]
  0015c	8b 79 04	 mov	 edi, DWORD PTR [ecx+4]
  0015f	89 19		 mov	 DWORD PTR [ecx], ebx
  00161	8b 5a 04	 mov	 ebx, DWORD PTR [edx+4]
  00164	89 59 04	 mov	 DWORD PTR [ecx+4], ebx
  00167	89 32		 mov	 DWORD PTR [edx], esi
  00169	89 7a 04	 mov	 DWORD PTR [edx+4], edi
$LN96@Unguarded_@2:

; 3592 : 			++_Plast;
; 3593 : 			_STD iter_swap(_Pfirst++, _Gfirst++);

  0016c	8b f9		 mov	 edi, ecx
  0016e	8b 1f		 mov	 ebx, DWORD PTR [edi]
  00170	89 5d e4	 mov	 DWORD PTR __Tmp$529506[ebp], ebx
  00173	8b 5f 04	 mov	 ebx, DWORD PTR [edi+4]
  00176	8b f0		 mov	 esi, eax
  00178	89 5d e8	 mov	 DWORD PTR __Tmp$529506[ebp+4], ebx
  0017b	8b 1e		 mov	 ebx, DWORD PTR [esi]
  0017d	89 1f		 mov	 DWORD PTR [edi], ebx
  0017f	8b 5e 04	 mov	 ebx, DWORD PTR [esi+4]
  00182	89 5f 04	 mov	 DWORD PTR [edi+4], ebx
  00185	8b 7d e4	 mov	 edi, DWORD PTR __Tmp$529506[ebp]
  00188	89 3e		 mov	 DWORD PTR [esi], edi
  0018a	8b 7d e8	 mov	 edi, DWORD PTR __Tmp$529506[ebp+4]
  0018d	89 7e 04	 mov	 DWORD PTR [esi+4], edi
  00190	8b 75 fc	 mov	 esi, DWORD PTR __Glast$[ebp]
  00193	83 c1 08	 add	 ecx, 8
  00196	e9 45 ff ff ff	 jmp	 $LN168@Unguarded_@2
$LN6@Unguarded_@2:

; 3594 : 			}
; 3595 : 		else if (_Gfirst == _Last)
; 3596 : 			{	// no room at top, rotate pivot downward
; 3597 : 			if (--_Glast != --_Pfirst)

  0019b	83 ee 08	 sub	 esi, 8
  0019e	89 75 fc	 mov	 DWORD PTR __Glast$[ebp], esi
  001a1	3b 45 10	 cmp	 eax, DWORD PTR __Last$[ebp]
  001a4	75 43		 jne	 SHORT $LN3@Unguarded_@2
  001a6	83 e9 08	 sub	 ecx, 8
  001a9	3b f1		 cmp	 esi, ecx
  001ab	74 1a		 je	 SHORT $LN116@Unguarded_@2

; 3598 : 				_STD iter_swap(_Glast, _Pfirst);

  001ad	8b 5e 04	 mov	 ebx, DWORD PTR [esi+4]
  001b0	8b 3e		 mov	 edi, DWORD PTR [esi]
  001b2	89 5d e0	 mov	 DWORD PTR __Tmp$529539[ebp+4], ebx
  001b5	8b 19		 mov	 ebx, DWORD PTR [ecx]
  001b7	89 1e		 mov	 DWORD PTR [esi], ebx
  001b9	8b 59 04	 mov	 ebx, DWORD PTR [ecx+4]
  001bc	89 5e 04	 mov	 DWORD PTR [esi+4], ebx
  001bf	89 39		 mov	 DWORD PTR [ecx], edi
  001c1	8b 7d e0	 mov	 edi, DWORD PTR __Tmp$529539[ebp+4]
  001c4	89 79 04	 mov	 DWORD PTR [ecx+4], edi
$LN116@Unguarded_@2:

; 3599 : 			_STD iter_swap(_Pfirst, --_Plast);

  001c7	8b 59 04	 mov	 ebx, DWORD PTR [ecx+4]
  001ca	8b 39		 mov	 edi, DWORD PTR [ecx]
  001cc	83 ea 08	 sub	 edx, 8
  001cf	89 5d d8	 mov	 DWORD PTR __Tmp$529571[ebp+4], ebx
  001d2	8b 1a		 mov	 ebx, DWORD PTR [edx]
  001d4	89 19		 mov	 DWORD PTR [ecx], ebx
  001d6	8b 5a 04	 mov	 ebx, DWORD PTR [edx+4]
  001d9	89 59 04	 mov	 DWORD PTR [ecx+4], ebx
  001dc	89 3a		 mov	 DWORD PTR [edx], edi
  001de	8b 7d d8	 mov	 edi, DWORD PTR __Tmp$529571[ebp+4]
  001e1	89 7a 04	 mov	 DWORD PTR [edx+4], edi

; 3600 : 			}
; 3601 : 		else

  001e4	e9 fd fe ff ff	 jmp	 $LN166@Unguarded_@2
$LN3@Unguarded_@2:

; 3602 : 			_STD iter_swap(_Gfirst++, --_Glast);

  001e9	8b 58 04	 mov	 ebx, DWORD PTR [eax+4]
  001ec	8b 38		 mov	 edi, DWORD PTR [eax]
  001ee	89 5d d0	 mov	 DWORD PTR __Tmp$529598[ebp+4], ebx
  001f1	8b 1e		 mov	 ebx, DWORD PTR [esi]
  001f3	89 18		 mov	 DWORD PTR [eax], ebx
  001f5	8b 5e 04	 mov	 ebx, DWORD PTR [esi+4]
  001f8	89 58 04	 mov	 DWORD PTR [eax+4], ebx
  001fb	89 3e		 mov	 DWORD PTR [esi], edi
  001fd	8b 7d d0	 mov	 edi, DWORD PTR __Tmp$529598[ebp+4]
  00200	89 7e 04	 mov	 DWORD PTR [esi+4], edi

; 3603 : 		}

  00203	e9 db fe ff ff	 jmp	 $LN20@Unguarded_@2
$LN152@Unguarded_@2:

; 3586 : 			return (_STD pair<_RanIt, _RanIt>(_Pfirst, _Plast));

  00208	8b 45 08	 mov	 eax, DWORD PTR ___$ReturnUdt$[ebp]
  0020b	5f		 pop	 edi
  0020c	5e		 pop	 esi
  0020d	89 08		 mov	 DWORD PTR [eax], ecx
  0020f	89 50 04	 mov	 DWORD PTR [eax+4], edx
  00212	5b		 pop	 ebx

; 3604 : 	}

  00213	c9		 leave
  00214	c3		 ret	 0
??$_Unguarded_partition@PAUCharAngle@FindPredicate@@@std@@YA?AU?$pair@PAUCharAngle@FindPredicate@@PAU12@@0@PAUCharAngle@FindPredicate@@0@Z ENDP ; std::_Unguarded_partition<FindPredicate::CharAngle *>
_TEXT	ENDS
PUBLIC	??$make_heap@PAUCharAngle@FindPredicate@@@std@@YAXPAUCharAngle@FindPredicate@@0@Z ; std::make_heap<FindPredicate::CharAngle *>
; Function compile flags: /Ogsp
;	COMDAT ??$make_heap@PAUCharAngle@FindPredicate@@@std@@YAXPAUCharAngle@FindPredicate@@0@Z
_TEXT	SEGMENT
__First$ = 8						; size = 4
__Last$ = 12						; size = 4
??$make_heap@PAUCharAngle@FindPredicate@@@std@@YAXPAUCharAngle@FindPredicate@@0@Z PROC ; std::make_heap<FindPredicate::CharAngle *>, COMDAT

; 2645 : 	{	// make [_First, _Last) into a heap, using operator<

  00000	55		 push	 ebp
  00001	8b ec		 mov	 ebp, esp

; 2646 : 	_DEBUG_RANGE(_First, _Last);
; 2647 : 	if (1 < _Last - _First)

  00003	8b 45 0c	 mov	 eax, DWORD PTR __Last$[ebp]
  00006	2b 45 08	 sub	 eax, DWORD PTR __First$[ebp]
  00009	83 e0 f8	 and	 eax, -8			; fffffff8H
  0000c	83 f8 08	 cmp	 eax, 8
  0000f	7e 12		 jle	 SHORT $LN1@make_heap@2

; 2648 : 		_Make_heap(_Unchecked(_First), _Unchecked(_Last),
; 2649 : 			_Dist_type(_First), _Val_type(_First));

  00011	6a 00		 push	 0
  00013	6a 00		 push	 0
  00015	ff 75 0c	 push	 DWORD PTR __Last$[ebp]
  00018	ff 75 08	 push	 DWORD PTR __First$[ebp]
  0001b	e8 00 00 00 00	 call	 ??$_Make_heap@PAUCharAngle@FindPredicate@@HU12@@std@@YAXPAUCharAngle@FindPredicate@@0PAH0@Z ; std::_Make_heap<FindPredicate::CharAngle *,int,FindPredicate::CharAngle>
  00020	83 c4 10	 add	 esp, 16			; 00000010H
$LN1@make_heap@2:

; 2650 : 	}

  00023	5d		 pop	 ebp
  00024	c3		 ret	 0
??$make_heap@PAUCharAngle@FindPredicate@@@std@@YAXPAUCharAngle@FindPredicate@@0@Z ENDP ; std::make_heap<FindPredicate::CharAngle *>
_TEXT	ENDS
PUBLIC	??$_Pop_heap@PAUCharDistanceSq@FindPredicate@@@std@@YAXPAUCharDistanceSq@FindPredicate@@0@Z ; std::_Pop_heap<FindPredicate::CharDistanceSq *>
; Function compile flags: /Ogsp
;	COMDAT ??$_Pop_heap@PAUCharDistanceSq@FindPredicate@@@std@@YAXPAUCharDistanceSq@FindPredicate@@0@Z
_TEXT	SEGMENT
__First$ = 8						; size = 4
__Last$ = 12						; size = 4
??$_Pop_heap@PAUCharDistanceSq@FindPredicate@@@std@@YAXPAUCharDistanceSq@FindPredicate@@0@Z PROC ; std::_Pop_heap<FindPredicate::CharDistanceSq *>, COMDAT

; 2544 : 	{	// pop *_First to *(_Last - 1) and reheap, using operator<

  00000	55		 push	 ebp
  00001	8b ec		 mov	 ebp, esp

; 2545 : 	_Pop_heap_0(_Unchecked(_First), _Unchecked(_Last),
; 2546 : 		_Val_type(_First));

  00003	6a 00		 push	 0
  00005	ff 75 0c	 push	 DWORD PTR __Last$[ebp]
  00008	ff 75 08	 push	 DWORD PTR __First$[ebp]
  0000b	e8 00 00 00 00	 call	 ??$_Pop_heap_0@PAUCharDistanceSq@FindPredicate@@U12@@std@@YAXPAUCharDistanceSq@FindPredicate@@00@Z ; std::_Pop_heap_0<FindPredicate::CharDistanceSq *,FindPredicate::CharDistanceSq>
  00010	83 c4 0c	 add	 esp, 12			; 0000000cH

; 2547 : 	}

  00013	5d		 pop	 ebp
  00014	c3		 ret	 0
??$_Pop_heap@PAUCharDistanceSq@FindPredicate@@@std@@YAXPAUCharDistanceSq@FindPredicate@@0@Z ENDP ; std::_Pop_heap<FindPredicate::CharDistanceSq *>
_TEXT	ENDS
PUBLIC	??$_Pop_heap@PAUCharAngle@FindPredicate@@@std@@YAXPAUCharAngle@FindPredicate@@0@Z ; std::_Pop_heap<FindPredicate::CharAngle *>
; Function compile flags: /Ogsp
;	COMDAT ??$_Pop_heap@PAUCharAngle@FindPredicate@@@std@@YAXPAUCharAngle@FindPredicate@@0@Z
_TEXT	SEGMENT
__First$ = 8						; size = 4
__Last$ = 12						; size = 4
??$_Pop_heap@PAUCharAngle@FindPredicate@@@std@@YAXPAUCharAngle@FindPredicate@@0@Z PROC ; std::_Pop_heap<FindPredicate::CharAngle *>, COMDAT

; 2544 : 	{	// pop *_First to *(_Last - 1) and reheap, using operator<

  00000	55		 push	 ebp
  00001	8b ec		 mov	 ebp, esp

; 2545 : 	_Pop_heap_0(_Unchecked(_First), _Unchecked(_Last),
; 2546 : 		_Val_type(_First));

  00003	6a 00		 push	 0
  00005	ff 75 0c	 push	 DWORD PTR __Last$[ebp]
  00008	ff 75 08	 push	 DWORD PTR __First$[ebp]
  0000b	e8 00 00 00 00	 call	 ??$_Pop_heap_0@PAUCharAngle@FindPredicate@@U12@@std@@YAXPAUCharAngle@FindPredicate@@00@Z ; std::_Pop_heap_0<FindPredicate::CharAngle *,FindPredicate::CharAngle>
  00010	83 c4 0c	 add	 esp, 12			; 0000000cH

; 2547 : 	}

  00013	5d		 pop	 ebp
  00014	c3		 ret	 0
??$_Pop_heap@PAUCharAngle@FindPredicate@@@std@@YAXPAUCharAngle@FindPredicate@@0@Z ENDP ; std::_Pop_heap<FindPredicate::CharAngle *>
_TEXT	ENDS
PUBLIC	?_Destroy@?$vector@UCharDistanceSq@FindPredicate@@V?$allocator@UCharDistanceSq@FindPredicate@@@std@@@std@@IAEXPAUCharDistanceSq@FindPredicate@@0@Z ; std::vector<FindPredicate::CharDistanceSq,std::allocator<FindPredicate::CharDistanceSq> >::_Destroy
; Function compile flags: /Ogsp
; File c:\program files (x86)\microsoft visual studio 10.0\vc\include\vector
;	COMDAT ?_Destroy@?$vector@UCharDistanceSq@FindPredicate@@V?$allocator@UCharDistanceSq@FindPredicate@@@std@@@std@@IAEXPAUCharDistanceSq@FindPredicate@@0@Z
_TEXT	SEGMENT
__First$ = 8						; size = 4
__Last$ = 12						; size = 4
?_Destroy@?$vector@UCharDistanceSq@FindPredicate@@V?$allocator@UCharDistanceSq@FindPredicate@@@std@@@std@@IAEXPAUCharDistanceSq@FindPredicate@@0@Z PROC ; std::vector<FindPredicate::CharDistanceSq,std::allocator<FindPredicate::CharDistanceSq> >::_Destroy, COMDAT
; _this$ = ecx

; 1270 : 		_Destroy_range(_First, _Last, this->_Alval);
; 1271 : 		}

  00000	c2 08 00	 ret	 8
?_Destroy@?$vector@UCharDistanceSq@FindPredicate@@V?$allocator@UCharDistanceSq@FindPredicate@@@std@@@std@@IAEXPAUCharDistanceSq@FindPredicate@@0@Z ENDP ; std::vector<FindPredicate::CharDistanceSq,std::allocator<FindPredicate::CharDistanceSq> >::_Destroy
_TEXT	ENDS
PUBLIC	?_Tidy@?$vector@UCharDistanceSq@FindPredicate@@V?$allocator@UCharDistanceSq@FindPredicate@@@std@@@std@@IAEXXZ ; std::vector<FindPredicate::CharDistanceSq,std::allocator<FindPredicate::CharDistanceSq> >::_Tidy
EXTRN	__imp_?_Orphan_all@_Container_base0@std@@QAEXXZ:PROC
; Function compile flags: /Ogsp
;	COMDAT ?_Tidy@?$vector@UCharDistanceSq@FindPredicate@@V?$allocator@UCharDistanceSq@FindPredicate@@@std@@@std@@IAEXXZ
_TEXT	SEGMENT
?_Tidy@?$vector@UCharDistanceSq@FindPredicate@@V?$allocator@UCharDistanceSq@FindPredicate@@@std@@@std@@IAEXXZ PROC ; std::vector<FindPredicate::CharDistanceSq,std::allocator<FindPredicate::CharDistanceSq> >::_Tidy, COMDAT
; _this$ = ecx

; 1301 : 		{	// free all storage

  00000	56		 push	 esi
  00001	8b f1		 mov	 esi, ecx

; 1302 : 		if (this->_Myfirst != 0)

  00003	83 3e 00	 cmp	 DWORD PTR [esi], 0
  00006	74 0e		 je	 SHORT $LN21@Tidy

; 1303 : 			{	// something to free, destroy and deallocate it
; 1304 : 			this->_Orphan_all();

  00008	ff 15 00 00 00
	00		 call	 DWORD PTR __imp_?_Orphan_all@_Container_base0@std@@QAEXXZ

; 1305 : 			_Destroy(this->_Myfirst, this->_Mylast);
; 1306 : 			this->_Alval.deallocate(this->_Myfirst,
; 1307 : 				this->_Myend - this->_Myfirst);

  0000e	ff 36		 push	 DWORD PTR [esi]
  00010	e8 00 00 00 00	 call	 ??3@YAXPAX@Z		; operator delete
  00015	59		 pop	 ecx
$LN21@Tidy:

; 1308 : 			}
; 1309 : 		this->_Myfirst = 0;

  00016	83 26 00	 and	 DWORD PTR [esi], 0

; 1310 : 		this->_Mylast = 0;

  00019	83 66 04 00	 and	 DWORD PTR [esi+4], 0

; 1311 : 		this->_Myend = 0;

  0001d	83 66 08 00	 and	 DWORD PTR [esi+8], 0
  00021	5e		 pop	 esi

; 1312 : 		}

  00022	c3		 ret	 0
?_Tidy@?$vector@UCharDistanceSq@FindPredicate@@V?$allocator@UCharDistanceSq@FindPredicate@@@std@@@std@@IAEXXZ ENDP ; std::vector<FindPredicate::CharDistanceSq,std::allocator<FindPredicate::CharDistanceSq> >::_Tidy
_TEXT	ENDS
PUBLIC	?_Destroy@?$vector@UCharAngle@FindPredicate@@V?$allocator@UCharAngle@FindPredicate@@@std@@@std@@IAEXPAUCharAngle@FindPredicate@@0@Z ; std::vector<FindPredicate::CharAngle,std::allocator<FindPredicate::CharAngle> >::_Destroy
; Function compile flags: /Ogsp
;	COMDAT ?_Destroy@?$vector@UCharAngle@FindPredicate@@V?$allocator@UCharAngle@FindPredicate@@@std@@@std@@IAEXPAUCharAngle@FindPredicate@@0@Z
_TEXT	SEGMENT
__First$ = 8						; size = 4
__Last$ = 12						; size = 4
?_Destroy@?$vector@UCharAngle@FindPredicate@@V?$allocator@UCharAngle@FindPredicate@@@std@@@std@@IAEXPAUCharAngle@FindPredicate@@0@Z PROC ; std::vector<FindPredicate::CharAngle,std::allocator<FindPredicate::CharAngle> >::_Destroy, COMDAT
; _this$ = ecx

; 1270 : 		_Destroy_range(_First, _Last, this->_Alval);
; 1271 : 		}

  00000	c2 08 00	 ret	 8
?_Destroy@?$vector@UCharAngle@FindPredicate@@V?$allocator@UCharAngle@FindPredicate@@@std@@@std@@IAEXPAUCharAngle@FindPredicate@@0@Z ENDP ; std::vector<FindPredicate::CharAngle,std::allocator<FindPredicate::CharAngle> >::_Destroy
_TEXT	ENDS
PUBLIC	?_Tidy@?$vector@UCharAngle@FindPredicate@@V?$allocator@UCharAngle@FindPredicate@@@std@@@std@@IAEXXZ ; std::vector<FindPredicate::CharAngle,std::allocator<FindPredicate::CharAngle> >::_Tidy
; Function compile flags: /Ogsp
;	COMDAT ?_Tidy@?$vector@UCharAngle@FindPredicate@@V?$allocator@UCharAngle@FindPredicate@@@std@@@std@@IAEXXZ
_TEXT	SEGMENT
?_Tidy@?$vector@UCharAngle@FindPredicate@@V?$allocator@UCharAngle@FindPredicate@@@std@@@std@@IAEXXZ PROC ; std::vector<FindPredicate::CharAngle,std::allocator<FindPredicate::CharAngle> >::_Tidy, COMDAT
; _this$ = ecx

; 1301 : 		{	// free all storage

  00000	56		 push	 esi
  00001	8b f1		 mov	 esi, ecx

; 1302 : 		if (this->_Myfirst != 0)

  00003	83 3e 00	 cmp	 DWORD PTR [esi], 0
  00006	74 0e		 je	 SHORT $LN21@Tidy@2

; 1303 : 			{	// something to free, destroy and deallocate it
; 1304 : 			this->_Orphan_all();

  00008	ff 15 00 00 00
	00		 call	 DWORD PTR __imp_?_Orphan_all@_Container_base0@std@@QAEXXZ

; 1305 : 			_Destroy(this->_Myfirst, this->_Mylast);
; 1306 : 			this->_Alval.deallocate(this->_Myfirst,
; 1307 : 				this->_Myend - this->_Myfirst);

  0000e	ff 36		 push	 DWORD PTR [esi]
  00010	e8 00 00 00 00	 call	 ??3@YAXPAX@Z		; operator delete
  00015	59		 pop	 ecx
$LN21@Tidy@2:

; 1308 : 			}
; 1309 : 		this->_Myfirst = 0;

  00016	83 26 00	 and	 DWORD PTR [esi], 0

; 1310 : 		this->_Mylast = 0;

  00019	83 66 04 00	 and	 DWORD PTR [esi+4], 0

; 1311 : 		this->_Myend = 0;

  0001d	83 66 08 00	 and	 DWORD PTR [esi+8], 0
  00021	5e		 pop	 esi

; 1312 : 		}

  00022	c3		 ret	 0
?_Tidy@?$vector@UCharAngle@FindPredicate@@V?$allocator@UCharAngle@FindPredicate@@@std@@@std@@IAEXXZ ENDP ; std::vector<FindPredicate::CharAngle,std::allocator<FindPredicate::CharAngle> >::_Tidy
_TEXT	ENDS
PUBLIC	??$_Umove@PAUCharDistanceSq@FindPredicate@@@?$vector@UCharDistanceSq@FindPredicate@@V?$allocator@UCharDistanceSq@FindPredicate@@@std@@@std@@IAEPAUCharDistanceSq@FindPredicate@@PAU23@00@Z ; std::vector<FindPredicate::CharDistanceSq,std::allocator<FindPredicate::CharDistanceSq> >::_Umove<FindPredicate::CharDistanceSq *>
; Function compile flags: /Ogsp
;	COMDAT ??$_Umove@PAUCharDistanceSq@FindPredicate@@@?$vector@UCharDistanceSq@FindPredicate@@V?$allocator@UCharDistanceSq@FindPredicate@@@std@@@std@@IAEPAUCharDistanceSq@FindPredicate@@PAU23@00@Z
_TEXT	SEGMENT
__First$ = 8						; size = 4
__Last$ = 12						; size = 4
__Ptr$ = 16						; size = 4
??$_Umove@PAUCharDistanceSq@FindPredicate@@@?$vector@UCharDistanceSq@FindPredicate@@V?$allocator@UCharDistanceSq@FindPredicate@@@std@@@std@@IAEPAUCharDistanceSq@FindPredicate@@PAU23@00@Z PROC ; std::vector<FindPredicate::CharDistanceSq,std::allocator<FindPredicate::CharDistanceSq> >::_Umove<FindPredicate::CharDistanceSq *>, COMDAT
; _this$ = ecx

; 1322 : 		pointer _Umove(_Iter _First, _Iter _Last, pointer _Ptr)

  00000	55		 push	 ebp
  00001	8b ec		 mov	 ebp, esp

; 1323 : 		{	// move initializing [_First, _Last), using allocator
; 1324 : 		return (_Uninitialized_move(_First, _Last,
; 1325 : 			_Ptr, this->_Alval));

  00003	83 c1 0c	 add	 ecx, 12			; 0000000cH
  00006	51		 push	 ecx
  00007	ff 75 10	 push	 DWORD PTR __Ptr$[ebp]
  0000a	ff 75 0c	 push	 DWORD PTR __Last$[ebp]
  0000d	ff 75 08	 push	 DWORD PTR __First$[ebp]
  00010	e8 00 00 00 00	 call	 ??$_Uninitialized_move@PAUCharDistanceSq@FindPredicate@@PAU12@V?$allocator@UCharDistanceSq@FindPredicate@@@std@@@std@@YAPAUCharDistanceSq@FindPredicate@@PAU12@00AAV?$allocator@UCharDistanceSq@FindPredicate@@@0@@Z ; std::_Uninitialized_move<FindPredicate::CharDistanceSq *,FindPredicate::CharDistanceSq *,std::allocator<FindPredicate::CharDistanceSq> >
  00015	83 c4 10	 add	 esp, 16			; 00000010H

; 1326 : 		}

  00018	5d		 pop	 ebp
  00019	c2 0c 00	 ret	 12			; 0000000cH
??$_Umove@PAUCharDistanceSq@FindPredicate@@@?$vector@UCharDistanceSq@FindPredicate@@V?$allocator@UCharDistanceSq@FindPredicate@@@std@@@std@@IAEPAUCharDistanceSq@FindPredicate@@PAU23@00@Z ENDP ; std::vector<FindPredicate::CharDistanceSq,std::allocator<FindPredicate::CharDistanceSq> >::_Umove<FindPredicate::CharDistanceSq *>
_TEXT	ENDS
PUBLIC	??$_Umove@PAUCharAngle@FindPredicate@@@?$vector@UCharAngle@FindPredicate@@V?$allocator@UCharAngle@FindPredicate@@@std@@@std@@IAEPAUCharAngle@FindPredicate@@PAU23@00@Z ; std::vector<FindPredicate::CharAngle,std::allocator<FindPredicate::CharAngle> >::_Umove<FindPredicate::CharAngle *>
; Function compile flags: /Ogsp
;	COMDAT ??$_Umove@PAUCharAngle@FindPredicate@@@?$vector@UCharAngle@FindPredicate@@V?$allocator@UCharAngle@FindPredicate@@@std@@@std@@IAEPAUCharAngle@FindPredicate@@PAU23@00@Z
_TEXT	SEGMENT
__First$ = 8						; size = 4
__Last$ = 12						; size = 4
__Ptr$ = 16						; size = 4
??$_Umove@PAUCharAngle@FindPredicate@@@?$vector@UCharAngle@FindPredicate@@V?$allocator@UCharAngle@FindPredicate@@@std@@@std@@IAEPAUCharAngle@FindPredicate@@PAU23@00@Z PROC ; std::vector<FindPredicate::CharAngle,std::allocator<FindPredicate::CharAngle> >::_Umove<FindPredicate::CharAngle *>, COMDAT
; _this$ = ecx

; 1322 : 		pointer _Umove(_Iter _First, _Iter _Last, pointer _Ptr)

  00000	55		 push	 ebp
  00001	8b ec		 mov	 ebp, esp

; 1323 : 		{	// move initializing [_First, _Last), using allocator
; 1324 : 		return (_Uninitialized_move(_First, _Last,
; 1325 : 			_Ptr, this->_Alval));

  00003	83 c1 0c	 add	 ecx, 12			; 0000000cH
  00006	51		 push	 ecx
  00007	ff 75 10	 push	 DWORD PTR __Ptr$[ebp]
  0000a	ff 75 0c	 push	 DWORD PTR __Last$[ebp]
  0000d	ff 75 08	 push	 DWORD PTR __First$[ebp]
  00010	e8 00 00 00 00	 call	 ??$_Uninitialized_move@PAUCharAngle@FindPredicate@@PAU12@V?$allocator@UCharAngle@FindPredicate@@@std@@@std@@YAPAUCharAngle@FindPredicate@@PAU12@00AAV?$allocator@UCharAngle@FindPredicate@@@0@@Z ; std::_Uninitialized_move<FindPredicate::CharAngle *,FindPredicate::CharAngle *,std::allocator<FindPredicate::CharAngle> >
  00015	83 c4 10	 add	 esp, 16			; 00000010H

; 1326 : 		}

  00018	5d		 pop	 ebp
  00019	c2 0c 00	 ret	 12			; 0000000cH
??$_Umove@PAUCharAngle@FindPredicate@@@?$vector@UCharAngle@FindPredicate@@V?$allocator@UCharAngle@FindPredicate@@@std@@@std@@IAEPAUCharAngle@FindPredicate@@PAU23@00@Z ENDP ; std::vector<FindPredicate::CharAngle,std::allocator<FindPredicate::CharAngle> >::_Umove<FindPredicate::CharAngle *>
_TEXT	ENDS
PUBLIC	??$_Sort_heap@PAUCharDistanceSq@FindPredicate@@@std@@YAXPAUCharDistanceSq@FindPredicate@@0@Z ; std::_Sort_heap<FindPredicate::CharDistanceSq *>
; Function compile flags: /Ogsp
; File c:\program files (x86)\microsoft visual studio 10.0\vc\include\algorithm
;	COMDAT ??$_Sort_heap@PAUCharDistanceSq@FindPredicate@@@std@@YAXPAUCharDistanceSq@FindPredicate@@0@Z
_TEXT	SEGMENT
__First$ = 8						; size = 4
__Last$ = 12						; size = 4
??$_Sort_heap@PAUCharDistanceSq@FindPredicate@@@std@@YAXPAUCharDistanceSq@FindPredicate@@0@Z PROC ; std::_Sort_heap<FindPredicate::CharDistanceSq *>, COMDAT

; 2683 : 	{	// order heap by repeatedly popping, using operator<

  00000	55		 push	 ebp
  00001	8b ec		 mov	 ebp, esp

; 2684 : 	for (; 1 < _Last - _First; --_Last)

  00003	8b 45 0c	 mov	 eax, DWORD PTR __Last$[ebp]
  00006	2b 45 08	 sub	 eax, DWORD PTR __First$[ebp]
  00009	8b c8		 mov	 ecx, eax
  0000b	83 e1 f8	 and	 ecx, -8			; fffffff8H
  0000e	83 f9 08	 cmp	 ecx, 8
  00011	7e 25		 jle	 SHORT $LN1@Sort_heap
  00013	57		 push	 edi
  00014	8b f8		 mov	 edi, eax
$LL3@Sort_heap:

; 2685 : 		_Pop_heap(_First, _Last);

  00016	6a 00		 push	 0
  00018	ff 75 0c	 push	 DWORD PTR __Last$[ebp]
  0001b	ff 75 08	 push	 DWORD PTR __First$[ebp]
  0001e	e8 00 00 00 00	 call	 ??$_Pop_heap_0@PAUCharDistanceSq@FindPredicate@@U12@@std@@YAXPAUCharDistanceSq@FindPredicate@@00@Z ; std::_Pop_heap_0<FindPredicate::CharDistanceSq *,FindPredicate::CharDistanceSq>
  00023	83 6d 0c 08	 sub	 DWORD PTR __Last$[ebp], 8
  00027	83 ef 08	 sub	 edi, 8
  0002a	8b c7		 mov	 eax, edi
  0002c	83 e0 f8	 and	 eax, -8			; fffffff8H
  0002f	83 c4 0c	 add	 esp, 12			; 0000000cH
  00032	83 f8 08	 cmp	 eax, 8
  00035	7f df		 jg	 SHORT $LL3@Sort_heap
  00037	5f		 pop	 edi
$LN1@Sort_heap:

; 2686 : 	}

  00038	5d		 pop	 ebp
  00039	c3		 ret	 0
??$_Sort_heap@PAUCharDistanceSq@FindPredicate@@@std@@YAXPAUCharDistanceSq@FindPredicate@@0@Z ENDP ; std::_Sort_heap<FindPredicate::CharDistanceSq *>
_TEXT	ENDS
PUBLIC	??$_Sort_heap@PAUCharAngle@FindPredicate@@@std@@YAXPAUCharAngle@FindPredicate@@0@Z ; std::_Sort_heap<FindPredicate::CharAngle *>
; Function compile flags: /Ogsp
;	COMDAT ??$_Sort_heap@PAUCharAngle@FindPredicate@@@std@@YAXPAUCharAngle@FindPredicate@@0@Z
_TEXT	SEGMENT
__First$ = 8						; size = 4
__Last$ = 12						; size = 4
??$_Sort_heap@PAUCharAngle@FindPredicate@@@std@@YAXPAUCharAngle@FindPredicate@@0@Z PROC ; std::_Sort_heap<FindPredicate::CharAngle *>, COMDAT

; 2683 : 	{	// order heap by repeatedly popping, using operator<

  00000	55		 push	 ebp
  00001	8b ec		 mov	 ebp, esp

; 2684 : 	for (; 1 < _Last - _First; --_Last)

  00003	8b 45 0c	 mov	 eax, DWORD PTR __Last$[ebp]
  00006	2b 45 08	 sub	 eax, DWORD PTR __First$[ebp]
  00009	8b c8		 mov	 ecx, eax
  0000b	83 e1 f8	 and	 ecx, -8			; fffffff8H
  0000e	83 f9 08	 cmp	 ecx, 8
  00011	7e 25		 jle	 SHORT $LN1@Sort_heap@2
  00013	57		 push	 edi
  00014	8b f8		 mov	 edi, eax
$LL3@Sort_heap@2:

; 2685 : 		_Pop_heap(_First, _Last);

  00016	6a 00		 push	 0
  00018	ff 75 0c	 push	 DWORD PTR __Last$[ebp]
  0001b	ff 75 08	 push	 DWORD PTR __First$[ebp]
  0001e	e8 00 00 00 00	 call	 ??$_Pop_heap_0@PAUCharAngle@FindPredicate@@U12@@std@@YAXPAUCharAngle@FindPredicate@@00@Z ; std::_Pop_heap_0<FindPredicate::CharAngle *,FindPredicate::CharAngle>
  00023	83 6d 0c 08	 sub	 DWORD PTR __Last$[ebp], 8
  00027	83 ef 08	 sub	 edi, 8
  0002a	8b c7		 mov	 eax, edi
  0002c	83 e0 f8	 and	 eax, -8			; fffffff8H
  0002f	83 c4 0c	 add	 esp, 12			; 0000000cH
  00032	83 f8 08	 cmp	 eax, 8
  00035	7f df		 jg	 SHORT $LL3@Sort_heap@2
  00037	5f		 pop	 edi
$LN1@Sort_heap@2:

; 2686 : 	}

  00038	5d		 pop	 ebp
  00039	c3		 ret	 0
??$_Sort_heap@PAUCharAngle@FindPredicate@@@std@@YAXPAUCharAngle@FindPredicate@@0@Z ENDP ; std::_Sort_heap<FindPredicate::CharAngle *>
_TEXT	ENDS
PUBLIC	??1?$vector@UCharDistanceSq@FindPredicate@@V?$allocator@UCharDistanceSq@FindPredicate@@@std@@@std@@QAE@XZ ; std::vector<FindPredicate::CharDistanceSq,std::allocator<FindPredicate::CharDistanceSq> >::~vector<FindPredicate::CharDistanceSq,std::allocator<FindPredicate::CharDistanceSq> >
; Function compile flags: /Ogsp
; File c:\program files (x86)\microsoft visual studio 10.0\vc\include\vector
;	COMDAT ??1?$vector@UCharDistanceSq@FindPredicate@@V?$allocator@UCharDistanceSq@FindPredicate@@@std@@@std@@QAE@XZ
_TEXT	SEGMENT
??1?$vector@UCharDistanceSq@FindPredicate@@V?$allocator@UCharDistanceSq@FindPredicate@@@std@@@std@@QAE@XZ PROC ; std::vector<FindPredicate::CharDistanceSq,std::allocator<FindPredicate::CharDistanceSq> >::~vector<FindPredicate::CharDistanceSq,std::allocator<FindPredicate::CharDistanceSq> >, COMDAT
; _this$ = ecx

; 705  : 		_Tidy();

  00000	e9 00 00 00 00	 jmp	 ?_Tidy@?$vector@UCharDistanceSq@FindPredicate@@V?$allocator@UCharDistanceSq@FindPredicate@@@std@@@std@@IAEXXZ ; std::vector<FindPredicate::CharDistanceSq,std::allocator<FindPredicate::CharDistanceSq> >::_Tidy
??1?$vector@UCharDistanceSq@FindPredicate@@V?$allocator@UCharDistanceSq@FindPredicate@@@std@@@std@@QAE@XZ ENDP ; std::vector<FindPredicate::CharDistanceSq,std::allocator<FindPredicate::CharDistanceSq> >::~vector<FindPredicate::CharDistanceSq,std::allocator<FindPredicate::CharDistanceSq> >
_TEXT	ENDS
PUBLIC	?reserve@?$vector@UCharDistanceSq@FindPredicate@@V?$allocator@UCharDistanceSq@FindPredicate@@@std@@@std@@QAEXI@Z ; std::vector<FindPredicate::CharDistanceSq,std::allocator<FindPredicate::CharDistanceSq> >::reserve
EXTRN	___CxxFrameHandler3:PROC
EXTRN	@__security_check_cookie@4:PROC
EXTRN	__EH_epilog3:PROC
EXTRN	__EH_prolog3_catch:PROC
;	COMDAT xdata$x
; File c:\program files (x86)\microsoft visual studio 10.0\vc\include\xmemory
xdata$x	SEGMENT
__catchsym$?reserve@?$vector@UCharDistanceSq@FindPredicate@@V?$allocator@UCharDistanceSq@FindPredicate@@@std@@@std@@QAEXI@Z$2 DD 040H
	DD	00H
	DD	00H
	DD	FLAT:__catch$?reserve@?$vector@UCharDistanceSq@FindPredicate@@V?$allocator@UCharDistanceSq@FindPredicate@@@std@@@std@@QAEXI@Z$0
__unwindtable$?reserve@?$vector@UCharDistanceSq@FindPredicate@@V?$allocator@UCharDistanceSq@FindPredicate@@@std@@@std@@QAEXI@Z DD 0ffffffffH
	DD	00H
	DD	0ffffffffH
	DD	00H
__tryblocktable$?reserve@?$vector@UCharDistanceSq@FindPredicate@@V?$allocator@UCharDistanceSq@FindPredicate@@@std@@@std@@QAEXI@Z DD 00H
	DD	00H
	DD	01H
	DD	01H
	DD	FLAT:__catchsym$?reserve@?$vector@UCharDistanceSq@FindPredicate@@V?$allocator@UCharDistanceSq@FindPredicate@@@std@@@std@@QAEXI@Z$2
__ehfuncinfo$?reserve@?$vector@UCharDistanceSq@FindPredicate@@V?$allocator@UCharDistanceSq@FindPredicate@@@std@@@std@@QAEXI@Z DD 019930522H
	DD	02H
	DD	FLAT:__unwindtable$?reserve@?$vector@UCharDistanceSq@FindPredicate@@V?$allocator@UCharDistanceSq@FindPredicate@@@std@@@std@@QAEXI@Z
	DD	01H
	DD	FLAT:__tryblocktable$?reserve@?$vector@UCharDistanceSq@FindPredicate@@V?$allocator@UCharDistanceSq@FindPredicate@@@std@@@std@@QAEXI@Z
	DD	2 DUP(00H)
	DD	00H
	DD	01H
; Function compile flags: /Ogsp
; File c:\program files (x86)\microsoft visual studio 10.0\vc\include\vector
xdata$x	ENDS
;	COMDAT ?reserve@?$vector@UCharDistanceSq@FindPredicate@@V?$allocator@UCharDistanceSq@FindPredicate@@@std@@@std@@QAEXI@Z
_TEXT	SEGMENT
__Ptr$524236 = -20					; size = 4
__$EHRec$ = -16						; size = 16
__Count$ = 8						; size = 4
?reserve@?$vector@UCharDistanceSq@FindPredicate@@V?$allocator@UCharDistanceSq@FindPredicate@@@std@@@std@@QAEXI@Z PROC ; std::vector<FindPredicate::CharDistanceSq,std::allocator<FindPredicate::CharDistanceSq> >::reserve, COMDAT
; _this$ = ecx

; 746  : 		{	// determine new minimum length of allocated storage

  00000	6a 08		 push	 8
  00002	b8 00 00 00 00	 mov	 eax, __ehhandler$?reserve@?$vector@UCharDistanceSq@FindPredicate@@V?$allocator@UCharDistanceSq@FindPredicate@@@std@@@std@@QAEXI@Z
  00007	e8 00 00 00 00	 call	 __EH_prolog3_catch
  0000c	8b f1		 mov	 esi, ecx

; 747  : 		if (max_size() < _Count)

  0000e	81 7d 08 ff ff
	ff 1f		 cmp	 DWORD PTR __Count$[ebp], 536870911 ; 1fffffffH
  00015	76 0b		 jbe	 SHORT $LN5@reserve

; 748  : 			_Xlen();	// result too long

  00017	68 00 00 00 00	 push	 OFFSET ??_C@_0BD@OLBABOEK@vector?$DMT?$DO?5too?5long?$AA@
  0001c	ff 15 00 00 00
	00		 call	 DWORD PTR __imp_?_Xlength_error@std@@YAXPBD@Z
$LN56@reserve:
$LN5@reserve:

; 749  : 		else if (capacity() < _Count)

  00022	8b 46 08	 mov	 eax, DWORD PTR [esi+8]
  00025	2b 06		 sub	 eax, DWORD PTR [esi]
  00027	c1 f8 03	 sar	 eax, 3
  0002a	3b 45 08	 cmp	 eax, DWORD PTR __Count$[ebp]
  0002d	73 65		 jae	 SHORT $LN3@reserve

; 750  : 			{	// not enough room, reallocate
; 751  : 			pointer _Ptr = this->_Alval.allocate(_Count);

  0002f	6a 00		 push	 0
  00031	ff 75 08	 push	 DWORD PTR __Count$[ebp]
  00034	e8 00 00 00 00	 call	 ??$_Allocate@UCharDistanceSq@FindPredicate@@@std@@YAPAUCharDistanceSq@FindPredicate@@IPAU12@@Z ; std::_Allocate<FindPredicate::CharDistanceSq>

; 752  : 
; 753  : 			_TRY_BEGIN
; 754  : 			_Umove(this->_Myfirst, this->_Mylast, _Ptr);

  00039	8b 0e		 mov	 ecx, DWORD PTR [esi]
  0003b	83 65 fc 00	 and	 DWORD PTR __$EHRec$[ebp+12], 0
  0003f	8b d8		 mov	 ebx, eax
  00041	8b 46 04	 mov	 eax, DWORD PTR [esi+4]
  00044	8d 56 0c	 lea	 edx, DWORD PTR [esi+12]
  00047	52		 push	 edx
  00048	53		 push	 ebx
  00049	50		 push	 eax
  0004a	51		 push	 ecx
  0004b	89 5d ec	 mov	 DWORD PTR __Ptr$524236[ebp], ebx
  0004e	e8 00 00 00 00	 call	 ??$_Uninitialized_move@PAUCharDistanceSq@FindPredicate@@PAU12@V?$allocator@UCharDistanceSq@FindPredicate@@@std@@@std@@YAPAUCharDistanceSq@FindPredicate@@PAU12@00AAV?$allocator@UCharDistanceSq@FindPredicate@@@0@@Z ; std::_Uninitialized_move<FindPredicate::CharDistanceSq *,FindPredicate::CharDistanceSq *,std::allocator<FindPredicate::CharDistanceSq> >

; 758  : 			_CATCH_END
; 759  : 
; 760  : 			size_type _Size = size();

  00053	8b 4e 04	 mov	 ecx, DWORD PTR [esi+4]
  00056	8b 06		 mov	 eax, DWORD PTR [esi]
  00058	83 4d fc ff	 or	 DWORD PTR __$EHRec$[ebp+12], -1
  0005c	8b f9		 mov	 edi, ecx
  0005e	2b f8		 sub	 edi, eax
  00060	83 c4 18	 add	 esp, 24			; 00000018H
  00063	c1 ff 03	 sar	 edi, 3
  00066	85 c0		 test	 eax, eax
  00068	74 11		 je	 SHORT $LN48@reserve

; 761  : 			if (this->_Myfirst != 0)

  0006a	eb 03		 jmp	 SHORT $LN55@reserve

; 762  : 				{	// destroy and deallocate old array
; 763  : 				_Destroy(this->_Myfirst, this->_Mylast);

$LL39@reserve:
  0006c	83 c0 08	 add	 eax, 8
$LN55@reserve:
  0006f	3b c1		 cmp	 eax, ecx
  00071	75 f9		 jne	 SHORT $LL39@reserve

; 764  : 				this->_Alval.deallocate(this->_Myfirst,
; 765  : 					this->_Myend - this->_Myfirst);

  00073	ff 36		 push	 DWORD PTR [esi]
  00075	e8 00 00 00 00	 call	 ??3@YAXPAX@Z		; operator delete
  0007a	59		 pop	 ecx
$LN48@reserve:

; 766  : 				}
; 767  : 
; 768  : 			this->_Orphan_all();

  0007b	8b ce		 mov	 ecx, esi
  0007d	ff 15 00 00 00
	00		 call	 DWORD PTR __imp_?_Orphan_all@_Container_base0@std@@QAEXXZ

; 769  : 			this->_Myend = _Ptr + _Count;

  00083	8b 45 08	 mov	 eax, DWORD PTR __Count$[ebp]
  00086	8d 04 c3	 lea	 eax, DWORD PTR [ebx+eax*8]
  00089	89 46 08	 mov	 DWORD PTR [esi+8], eax

; 770  : 			this->_Mylast = _Ptr + _Size;

  0008c	8d 04 fb	 lea	 eax, DWORD PTR [ebx+edi*8]
  0008f	89 46 04	 mov	 DWORD PTR [esi+4], eax

; 771  : 			this->_Myfirst = _Ptr;

  00092	89 1e		 mov	 DWORD PTR [esi], ebx
$LN3@reserve:

; 772  : 			}
; 773  : 		}

  00094	e8 00 00 00 00	 call	 __EH_epilog3
  00099	c2 04 00	 ret	 4
__catch$?reserve@?$vector@UCharDistanceSq@FindPredicate@@V?$allocator@UCharDistanceSq@FindPredicate@@@std@@@std@@QAEXI@Z$0:

; 755  : 			_CATCH_ALL
; 756  : 			this->_Alval.deallocate(_Ptr, _Count);

  0009c	ff 75 ec	 push	 DWORD PTR __Ptr$524236[ebp]
  0009f	e8 00 00 00 00	 call	 ??3@YAXPAX@Z		; operator delete
  000a4	59		 pop	 ecx

; 757  : 			_RERAISE;

  000a5	6a 00		 push	 0
  000a7	6a 00		 push	 0
  000a9	e8 00 00 00 00	 call	 __CxxThrowException@8
$LN57@reserve:
$LN54@reserve:
  000ae	cc		 int	 3
_TEXT	ENDS
;	COMDAT text$x
text$x	SEGMENT
__ehhandler$?reserve@?$vector@UCharDistanceSq@FindPredicate@@V?$allocator@UCharDistanceSq@FindPredicate@@@std@@@std@@QAEXI@Z:
  00000	8b 54 24 08	 mov	 edx, DWORD PTR [esp+8]
  00004	8d 42 0c	 lea	 eax, DWORD PTR [edx+12]
  00007	8b 4a e8	 mov	 ecx, DWORD PTR [edx-24]
  0000a	33 c8		 xor	 ecx, eax
  0000c	e8 00 00 00 00	 call	 @__security_check_cookie@4
  00011	b8 00 00 00 00	 mov	 eax, OFFSET __ehfuncinfo$?reserve@?$vector@UCharDistanceSq@FindPredicate@@V?$allocator@UCharDistanceSq@FindPredicate@@@std@@@std@@QAEXI@Z
  00016	e9 00 00 00 00	 jmp	 ___CxxFrameHandler3
text$x	ENDS
?reserve@?$vector@UCharDistanceSq@FindPredicate@@V?$allocator@UCharDistanceSq@FindPredicate@@@std@@@std@@QAEXI@Z ENDP ; std::vector<FindPredicate::CharDistanceSq,std::allocator<FindPredicate::CharDistanceSq> >::reserve
PUBLIC	?erase@?$vector@UCharDistanceSq@FindPredicate@@V?$allocator@UCharDistanceSq@FindPredicate@@@std@@@std@@QAE?AV?$_Vector_iterator@V?$_Vector_val@UCharDistanceSq@FindPredicate@@V?$allocator@UCharDistanceSq@FindPredicate@@@std@@@std@@@2@V?$_Vector_const_iterator@V?$_Vector_val@UCharDistanceSq@FindPredicate@@V?$allocator@UCharDistanceSq@FindPredicate@@@std@@@std@@@2@0@Z ; std::vector<FindPredicate::CharDistanceSq,std::allocator<FindPredicate::CharDistanceSq> >::erase
; Function compile flags: /Ogsp
;	COMDAT ?erase@?$vector@UCharDistanceSq@FindPredicate@@V?$allocator@UCharDistanceSq@FindPredicate@@@std@@@std@@QAE?AV?$_Vector_iterator@V?$_Vector_val@UCharDistanceSq@FindPredicate@@V?$allocator@UCharDistanceSq@FindPredicate@@@std@@@std@@@2@V?$_Vector_const_iterator@V?$_Vector_val@UCharDistanceSq@FindPredicate@@V?$allocator@UCharDistanceSq@FindPredicate@@@std@@@std@@@2@0@Z
_TEXT	SEGMENT
___$ReturnUdt$ = 8					; size = 4
__First_arg$ = 12					; size = 4
__Cat$530210 = 16					; size = 1
__Last_arg$ = 16					; size = 4
?erase@?$vector@UCharDistanceSq@FindPredicate@@V?$allocator@UCharDistanceSq@FindPredicate@@@std@@@std@@QAE?AV?$_Vector_iterator@V?$_Vector_val@UCharDistanceSq@FindPredicate@@V?$allocator@UCharDistanceSq@FindPredicate@@@std@@@std@@@2@V?$_Vector_const_iterator@V?$_Vector_val@UCharDistanceSq@FindPredicate@@V?$allocator@UCharDistanceSq@FindPredicate@@@std@@@std@@@2@0@Z PROC ; std::vector<FindPredicate::CharDistanceSq,std::allocator<FindPredicate::CharDistanceSq> >::erase, COMDAT
; _this$ = ecx

; 1190 : 		{	// erase [_First, _Last)

  00000	55		 push	 ebp
  00001	8b ec		 mov	 ebp, esp

; 1191 : 		iterator _First = _Make_iter(_First_arg);

  00003	8b 45 0c	 mov	 eax, DWORD PTR __First_arg$[ebp]
  00006	56		 push	 esi
  00007	57		 push	 edi
  00008	8b 7d 08	 mov	 edi, DWORD PTR ___$ReturnUdt$[ebp]
  0000b	8b f1		 mov	 esi, ecx
  0000d	89 07		 mov	 DWORD PTR [edi], eax

; 1192 : 		iterator _Last = _Make_iter(_Last_arg);
; 1193 : 
; 1194 : 		if (_First != _Last)

  0000f	3b 45 10	 cmp	 eax, DWORD PTR __Last_arg$[ebp]
  00012	74 16		 je	 SHORT $LN1@erase

; 1195 : 			{	// worth doing, copy down over hole
; 1196 :  #if _ITERATOR_DEBUG_LEVEL == 2
; 1197 : 			if (_Last < _First || _VICONT(_First) != this
; 1198 : 				|| _VIPTR(_First) < this->_Myfirst
; 1199 : 				|| this->_Mylast < _VIPTR(_Last))
; 1200 : 				_DEBUG_ERROR("vector erase iterator outside range");
; 1201 : 			pointer _Ptr = _Move(_VIPTR(_Last), this->_Mylast,
; 1202 : 				_VIPTR(_First));
; 1203 : 			_Orphan_range(_VIPTR(_First), this->_Mylast);
; 1204 : 
; 1205 :  #else /* _ITERATOR_DEBUG_LEVEL == 2 */
; 1206 : 			pointer _Ptr = _Move(_VIPTR(_Last), this->_Mylast,
; 1207 : 				_VIPTR(_First));

  00014	ff 75 10	 push	 DWORD PTR __Cat$530210[ebp]
  00017	8b 4e 04	 mov	 ecx, DWORD PTR [esi+4]
  0001a	50		 push	 eax
  0001b	51		 push	 ecx
  0001c	ff 75 10	 push	 DWORD PTR __Last_arg$[ebp]
  0001f	e8 00 00 00 00	 call	 ??$_Move@PAUCharDistanceSq@FindPredicate@@PAU12@@std@@YAPAUCharDistanceSq@FindPredicate@@PAU12@00U_Nonscalar_ptr_iterator_tag@0@@Z ; std::_Move<FindPredicate::CharDistanceSq *,FindPredicate::CharDistanceSq *>
  00024	83 c4 10	 add	 esp, 16			; 00000010H

; 1208 :  #endif /* _ITERATOR_DEBUG_LEVEL == 2 */
; 1209 : 
; 1210 : 			_Destroy(_Ptr, this->_Mylast);
; 1211 : 			this->_Mylast = _Ptr;

  00027	89 46 04	 mov	 DWORD PTR [esi+4], eax
$LN1@erase:

; 1212 : 			}
; 1213 : 		return (_First);

  0002a	8b c7		 mov	 eax, edi
  0002c	5f		 pop	 edi
  0002d	5e		 pop	 esi

; 1214 : 		}

  0002e	5d		 pop	 ebp
  0002f	c2 0c 00	 ret	 12			; 0000000cH
?erase@?$vector@UCharDistanceSq@FindPredicate@@V?$allocator@UCharDistanceSq@FindPredicate@@@std@@@std@@QAE?AV?$_Vector_iterator@V?$_Vector_val@UCharDistanceSq@FindPredicate@@V?$allocator@UCharDistanceSq@FindPredicate@@@std@@@std@@@2@V?$_Vector_const_iterator@V?$_Vector_val@UCharDistanceSq@FindPredicate@@V?$allocator@UCharDistanceSq@FindPredicate@@@std@@@std@@@2@0@Z ENDP ; std::vector<FindPredicate::CharDistanceSq,std::allocator<FindPredicate::CharDistanceSq> >::erase
_TEXT	ENDS
PUBLIC	??1?$vector@UCharAngle@FindPredicate@@V?$allocator@UCharAngle@FindPredicate@@@std@@@std@@QAE@XZ ; std::vector<FindPredicate::CharAngle,std::allocator<FindPredicate::CharAngle> >::~vector<FindPredicate::CharAngle,std::allocator<FindPredicate::CharAngle> >
; Function compile flags: /Ogsp
;	COMDAT ??1?$vector@UCharAngle@FindPredicate@@V?$allocator@UCharAngle@FindPredicate@@@std@@@std@@QAE@XZ
_TEXT	SEGMENT
??1?$vector@UCharAngle@FindPredicate@@V?$allocator@UCharAngle@FindPredicate@@@std@@@std@@QAE@XZ PROC ; std::vector<FindPredicate::CharAngle,std::allocator<FindPredicate::CharAngle> >::~vector<FindPredicate::CharAngle,std::allocator<FindPredicate::CharAngle> >, COMDAT
; _this$ = ecx

; 705  : 		_Tidy();

  00000	e9 00 00 00 00	 jmp	 ?_Tidy@?$vector@UCharAngle@FindPredicate@@V?$allocator@UCharAngle@FindPredicate@@@std@@@std@@IAEXXZ ; std::vector<FindPredicate::CharAngle,std::allocator<FindPredicate::CharAngle> >::_Tidy
??1?$vector@UCharAngle@FindPredicate@@V?$allocator@UCharAngle@FindPredicate@@@std@@@std@@QAE@XZ ENDP ; std::vector<FindPredicate::CharAngle,std::allocator<FindPredicate::CharAngle> >::~vector<FindPredicate::CharAngle,std::allocator<FindPredicate::CharAngle> >
_TEXT	ENDS
PUBLIC	?reserve@?$vector@UCharAngle@FindPredicate@@V?$allocator@UCharAngle@FindPredicate@@@std@@@std@@QAEXI@Z ; std::vector<FindPredicate::CharAngle,std::allocator<FindPredicate::CharAngle> >::reserve
;	COMDAT xdata$x
; File c:\program files (x86)\microsoft visual studio 10.0\vc\include\xmemory
xdata$x	SEGMENT
__catchsym$?reserve@?$vector@UCharAngle@FindPredicate@@V?$allocator@UCharAngle@FindPredicate@@@std@@@std@@QAEXI@Z$2 DD 040H
	DD	00H
	DD	00H
	DD	FLAT:__catch$?reserve@?$vector@UCharAngle@FindPredicate@@V?$allocator@UCharAngle@FindPredicate@@@std@@@std@@QAEXI@Z$0
__unwindtable$?reserve@?$vector@UCharAngle@FindPredicate@@V?$allocator@UCharAngle@FindPredicate@@@std@@@std@@QAEXI@Z DD 0ffffffffH
	DD	00H
	DD	0ffffffffH
	DD	00H
__tryblocktable$?reserve@?$vector@UCharAngle@FindPredicate@@V?$allocator@UCharAngle@FindPredicate@@@std@@@std@@QAEXI@Z DD 00H
	DD	00H
	DD	01H
	DD	01H
	DD	FLAT:__catchsym$?reserve@?$vector@UCharAngle@FindPredicate@@V?$allocator@UCharAngle@FindPredicate@@@std@@@std@@QAEXI@Z$2
__ehfuncinfo$?reserve@?$vector@UCharAngle@FindPredicate@@V?$allocator@UCharAngle@FindPredicate@@@std@@@std@@QAEXI@Z DD 019930522H
	DD	02H
	DD	FLAT:__unwindtable$?reserve@?$vector@UCharAngle@FindPredicate@@V?$allocator@UCharAngle@FindPredicate@@@std@@@std@@QAEXI@Z
	DD	01H
	DD	FLAT:__tryblocktable$?reserve@?$vector@UCharAngle@FindPredicate@@V?$allocator@UCharAngle@FindPredicate@@@std@@@std@@QAEXI@Z
	DD	2 DUP(00H)
	DD	00H
	DD	01H
; Function compile flags: /Ogsp
; File c:\program files (x86)\microsoft visual studio 10.0\vc\include\vector
xdata$x	ENDS
;	COMDAT ?reserve@?$vector@UCharAngle@FindPredicate@@V?$allocator@UCharAngle@FindPredicate@@@std@@@std@@QAEXI@Z
_TEXT	SEGMENT
__Ptr$524329 = -20					; size = 4
__$EHRec$ = -16						; size = 16
__Count$ = 8						; size = 4
?reserve@?$vector@UCharAngle@FindPredicate@@V?$allocator@UCharAngle@FindPredicate@@@std@@@std@@QAEXI@Z PROC ; std::vector<FindPredicate::CharAngle,std::allocator<FindPredicate::CharAngle> >::reserve, COMDAT
; _this$ = ecx

; 746  : 		{	// determine new minimum length of allocated storage

  00000	6a 08		 push	 8
  00002	b8 00 00 00 00	 mov	 eax, __ehhandler$?reserve@?$vector@UCharAngle@FindPredicate@@V?$allocator@UCharAngle@FindPredicate@@@std@@@std@@QAEXI@Z
  00007	e8 00 00 00 00	 call	 __EH_prolog3_catch
  0000c	8b f1		 mov	 esi, ecx

; 747  : 		if (max_size() < _Count)

  0000e	81 7d 08 ff ff
	ff 1f		 cmp	 DWORD PTR __Count$[ebp], 536870911 ; 1fffffffH
  00015	76 0b		 jbe	 SHORT $LN5@reserve@2

; 748  : 			_Xlen();	// result too long

  00017	68 00 00 00 00	 push	 OFFSET ??_C@_0BD@OLBABOEK@vector?$DMT?$DO?5too?5long?$AA@
  0001c	ff 15 00 00 00
	00		 call	 DWORD PTR __imp_?_Xlength_error@std@@YAXPBD@Z
$LN56@reserve@2:
$LN5@reserve@2:

; 749  : 		else if (capacity() < _Count)

  00022	8b 46 08	 mov	 eax, DWORD PTR [esi+8]
  00025	2b 06		 sub	 eax, DWORD PTR [esi]
  00027	c1 f8 03	 sar	 eax, 3
  0002a	3b 45 08	 cmp	 eax, DWORD PTR __Count$[ebp]
  0002d	73 65		 jae	 SHORT $LN3@reserve@2

; 750  : 			{	// not enough room, reallocate
; 751  : 			pointer _Ptr = this->_Alval.allocate(_Count);

  0002f	6a 00		 push	 0
  00031	ff 75 08	 push	 DWORD PTR __Count$[ebp]
  00034	e8 00 00 00 00	 call	 ??$_Allocate@UCharAngle@FindPredicate@@@std@@YAPAUCharAngle@FindPredicate@@IPAU12@@Z ; std::_Allocate<FindPredicate::CharAngle>

; 752  : 
; 753  : 			_TRY_BEGIN
; 754  : 			_Umove(this->_Myfirst, this->_Mylast, _Ptr);

  00039	8b 0e		 mov	 ecx, DWORD PTR [esi]
  0003b	83 65 fc 00	 and	 DWORD PTR __$EHRec$[ebp+12], 0
  0003f	8b d8		 mov	 ebx, eax
  00041	8b 46 04	 mov	 eax, DWORD PTR [esi+4]
  00044	8d 56 0c	 lea	 edx, DWORD PTR [esi+12]
  00047	52		 push	 edx
  00048	53		 push	 ebx
  00049	50		 push	 eax
  0004a	51		 push	 ecx
  0004b	89 5d ec	 mov	 DWORD PTR __Ptr$524329[ebp], ebx
  0004e	e8 00 00 00 00	 call	 ??$_Uninitialized_move@PAUCharAngle@FindPredicate@@PAU12@V?$allocator@UCharAngle@FindPredicate@@@std@@@std@@YAPAUCharAngle@FindPredicate@@PAU12@00AAV?$allocator@UCharAngle@FindPredicate@@@0@@Z ; std::_Uninitialized_move<FindPredicate::CharAngle *,FindPredicate::CharAngle *,std::allocator<FindPredicate::CharAngle> >

; 758  : 			_CATCH_END
; 759  : 
; 760  : 			size_type _Size = size();

  00053	8b 4e 04	 mov	 ecx, DWORD PTR [esi+4]
  00056	8b 06		 mov	 eax, DWORD PTR [esi]
  00058	83 4d fc ff	 or	 DWORD PTR __$EHRec$[ebp+12], -1
  0005c	8b f9		 mov	 edi, ecx
  0005e	2b f8		 sub	 edi, eax
  00060	83 c4 18	 add	 esp, 24			; 00000018H
  00063	c1 ff 03	 sar	 edi, 3
  00066	85 c0		 test	 eax, eax
  00068	74 11		 je	 SHORT $LN48@reserve@2

; 761  : 			if (this->_Myfirst != 0)

  0006a	eb 03		 jmp	 SHORT $LN55@reserve@2

; 762  : 				{	// destroy and deallocate old array
; 763  : 				_Destroy(this->_Myfirst, this->_Mylast);

$LL39@reserve@2:
  0006c	83 c0 08	 add	 eax, 8
$LN55@reserve@2:
  0006f	3b c1		 cmp	 eax, ecx
  00071	75 f9		 jne	 SHORT $LL39@reserve@2

; 764  : 				this->_Alval.deallocate(this->_Myfirst,
; 765  : 					this->_Myend - this->_Myfirst);

  00073	ff 36		 push	 DWORD PTR [esi]
  00075	e8 00 00 00 00	 call	 ??3@YAXPAX@Z		; operator delete
  0007a	59		 pop	 ecx
$LN48@reserve@2:

; 766  : 				}
; 767  : 
; 768  : 			this->_Orphan_all();

  0007b	8b ce		 mov	 ecx, esi
  0007d	ff 15 00 00 00
	00		 call	 DWORD PTR __imp_?_Orphan_all@_Container_base0@std@@QAEXXZ

; 769  : 			this->_Myend = _Ptr + _Count;

  00083	8b 45 08	 mov	 eax, DWORD PTR __Count$[ebp]
  00086	8d 04 c3	 lea	 eax, DWORD PTR [ebx+eax*8]
  00089	89 46 08	 mov	 DWORD PTR [esi+8], eax

; 770  : 			this->_Mylast = _Ptr + _Size;

  0008c	8d 04 fb	 lea	 eax, DWORD PTR [ebx+edi*8]
  0008f	89 46 04	 mov	 DWORD PTR [esi+4], eax

; 771  : 			this->_Myfirst = _Ptr;

  00092	89 1e		 mov	 DWORD PTR [esi], ebx
$LN3@reserve@2:

; 772  : 			}
; 773  : 		}

  00094	e8 00 00 00 00	 call	 __EH_epilog3
  00099	c2 04 00	 ret	 4
__catch$?reserve@?$vector@UCharAngle@FindPredicate@@V?$allocator@UCharAngle@FindPredicate@@@std@@@std@@QAEXI@Z$0:

; 755  : 			_CATCH_ALL
; 756  : 			this->_Alval.deallocate(_Ptr, _Count);

  0009c	ff 75 ec	 push	 DWORD PTR __Ptr$524329[ebp]
  0009f	e8 00 00 00 00	 call	 ??3@YAXPAX@Z		; operator delete
  000a4	59		 pop	 ecx

; 757  : 			_RERAISE;

  000a5	6a 00		 push	 0
  000a7	6a 00		 push	 0
  000a9	e8 00 00 00 00	 call	 __CxxThrowException@8
$LN57@reserve@2:
$LN54@reserve@2:
  000ae	cc		 int	 3
_TEXT	ENDS
;	COMDAT text$x
text$x	SEGMENT
__ehhandler$?reserve@?$vector@UCharAngle@FindPredicate@@V?$allocator@UCharAngle@FindPredicate@@@std@@@std@@QAEXI@Z:
  00000	8b 54 24 08	 mov	 edx, DWORD PTR [esp+8]
  00004	8d 42 0c	 lea	 eax, DWORD PTR [edx+12]
  00007	8b 4a e8	 mov	 ecx, DWORD PTR [edx-24]
  0000a	33 c8		 xor	 ecx, eax
  0000c	e8 00 00 00 00	 call	 @__security_check_cookie@4
  00011	b8 00 00 00 00	 mov	 eax, OFFSET __ehfuncinfo$?reserve@?$vector@UCharAngle@FindPredicate@@V?$allocator@UCharAngle@FindPredicate@@@std@@@std@@QAEXI@Z
  00016	e9 00 00 00 00	 jmp	 ___CxxFrameHandler3
text$x	ENDS
?reserve@?$vector@UCharAngle@FindPredicate@@V?$allocator@UCharAngle@FindPredicate@@@std@@@std@@QAEXI@Z ENDP ; std::vector<FindPredicate::CharAngle,std::allocator<FindPredicate::CharAngle> >::reserve
PUBLIC	?erase@?$vector@UCharAngle@FindPredicate@@V?$allocator@UCharAngle@FindPredicate@@@std@@@std@@QAE?AV?$_Vector_iterator@V?$_Vector_val@UCharAngle@FindPredicate@@V?$allocator@UCharAngle@FindPredicate@@@std@@@std@@@2@V?$_Vector_const_iterator@V?$_Vector_val@UCharAngle@FindPredicate@@V?$allocator@UCharAngle@FindPredicate@@@std@@@std@@@2@0@Z ; std::vector<FindPredicate::CharAngle,std::allocator<FindPredicate::CharAngle> >::erase
; Function compile flags: /Ogsp
;	COMDAT ?erase@?$vector@UCharAngle@FindPredicate@@V?$allocator@UCharAngle@FindPredicate@@@std@@@std@@QAE?AV?$_Vector_iterator@V?$_Vector_val@UCharAngle@FindPredicate@@V?$allocator@UCharAngle@FindPredicate@@@std@@@std@@@2@V?$_Vector_const_iterator@V?$_Vector_val@UCharAngle@FindPredicate@@V?$allocator@UCharAngle@FindPredicate@@@std@@@std@@@2@0@Z
_TEXT	SEGMENT
___$ReturnUdt$ = 8					; size = 4
__First_arg$ = 12					; size = 4
__Cat$530504 = 16					; size = 1
__Last_arg$ = 16					; size = 4
?erase@?$vector@UCharAngle@FindPredicate@@V?$allocator@UCharAngle@FindPredicate@@@std@@@std@@QAE?AV?$_Vector_iterator@V?$_Vector_val@UCharAngle@FindPredicate@@V?$allocator@UCharAngle@FindPredicate@@@std@@@std@@@2@V?$_Vector_const_iterator@V?$_Vector_val@UCharAngle@FindPredicate@@V?$allocator@UCharAngle@FindPredicate@@@std@@@std@@@2@0@Z PROC ; std::vector<FindPredicate::CharAngle,std::allocator<FindPredicate::CharAngle> >::erase, COMDAT
; _this$ = ecx

; 1190 : 		{	// erase [_First, _Last)

  00000	55		 push	 ebp
  00001	8b ec		 mov	 ebp, esp

; 1191 : 		iterator _First = _Make_iter(_First_arg);

  00003	8b 45 0c	 mov	 eax, DWORD PTR __First_arg$[ebp]
  00006	56		 push	 esi
  00007	57		 push	 edi
  00008	8b 7d 08	 mov	 edi, DWORD PTR ___$ReturnUdt$[ebp]
  0000b	8b f1		 mov	 esi, ecx
  0000d	89 07		 mov	 DWORD PTR [edi], eax

; 1192 : 		iterator _Last = _Make_iter(_Last_arg);
; 1193 : 
; 1194 : 		if (_First != _Last)

  0000f	3b 45 10	 cmp	 eax, DWORD PTR __Last_arg$[ebp]
  00012	74 16		 je	 SHORT $LN1@erase@2

; 1195 : 			{	// worth doing, copy down over hole
; 1196 :  #if _ITERATOR_DEBUG_LEVEL == 2
; 1197 : 			if (_Last < _First || _VICONT(_First) != this
; 1198 : 				|| _VIPTR(_First) < this->_Myfirst
; 1199 : 				|| this->_Mylast < _VIPTR(_Last))
; 1200 : 				_DEBUG_ERROR("vector erase iterator outside range");
; 1201 : 			pointer _Ptr = _Move(_VIPTR(_Last), this->_Mylast,
; 1202 : 				_VIPTR(_First));
; 1203 : 			_Orphan_range(_VIPTR(_First), this->_Mylast);
; 1204 : 
; 1205 :  #else /* _ITERATOR_DEBUG_LEVEL == 2 */
; 1206 : 			pointer _Ptr = _Move(_VIPTR(_Last), this->_Mylast,
; 1207 : 				_VIPTR(_First));

  00014	ff 75 10	 push	 DWORD PTR __Cat$530504[ebp]
  00017	8b 4e 04	 mov	 ecx, DWORD PTR [esi+4]
  0001a	50		 push	 eax
  0001b	51		 push	 ecx
  0001c	ff 75 10	 push	 DWORD PTR __Last_arg$[ebp]
  0001f	e8 00 00 00 00	 call	 ??$_Move@PAUCharAngle@FindPredicate@@PAU12@@std@@YAPAUCharAngle@FindPredicate@@PAU12@00U_Nonscalar_ptr_iterator_tag@0@@Z ; std::_Move<FindPredicate::CharAngle *,FindPredicate::CharAngle *>
  00024	83 c4 10	 add	 esp, 16			; 00000010H

; 1208 :  #endif /* _ITERATOR_DEBUG_LEVEL == 2 */
; 1209 : 
; 1210 : 			_Destroy(_Ptr, this->_Mylast);
; 1211 : 			this->_Mylast = _Ptr;

  00027	89 46 04	 mov	 DWORD PTR [esi+4], eax
$LN1@erase@2:

; 1212 : 			}
; 1213 : 		return (_First);

  0002a	8b c7		 mov	 eax, edi
  0002c	5f		 pop	 edi
  0002d	5e		 pop	 esi

; 1214 : 		}

  0002e	5d		 pop	 ebp
  0002f	c2 0c 00	 ret	 12			; 0000000cH
?erase@?$vector@UCharAngle@FindPredicate@@V?$allocator@UCharAngle@FindPredicate@@@std@@@std@@QAE?AV?$_Vector_iterator@V?$_Vector_val@UCharAngle@FindPredicate@@V?$allocator@UCharAngle@FindPredicate@@@std@@@std@@@2@V?$_Vector_const_iterator@V?$_Vector_val@UCharAngle@FindPredicate@@V?$allocator@UCharAngle@FindPredicate@@@std@@@std@@@2@0@Z ENDP ; std::vector<FindPredicate::CharAngle,std::allocator<FindPredicate::CharAngle> >::erase
_TEXT	ENDS
PUBLIC	?_Reserve@?$vector@UCharDistanceSq@FindPredicate@@V?$allocator@UCharDistanceSq@FindPredicate@@@std@@@std@@IAEXI@Z ; std::vector<FindPredicate::CharDistanceSq,std::allocator<FindPredicate::CharDistanceSq> >::_Reserve
; Function compile flags: /Ogsp
;	COMDAT ?_Reserve@?$vector@UCharDistanceSq@FindPredicate@@V?$allocator@UCharDistanceSq@FindPredicate@@@std@@@std@@IAEXI@Z
_TEXT	SEGMENT
__Count$ = 8						; size = 4
?_Reserve@?$vector@UCharDistanceSq@FindPredicate@@V?$allocator@UCharDistanceSq@FindPredicate@@@std@@@std@@IAEXI@Z PROC ; std::vector<FindPredicate::CharDistanceSq,std::allocator<FindPredicate::CharDistanceSq> >::_Reserve, COMDAT
; _this$ = ecx

; 1290 : 		{	// ensure room for _Count new elements, grow exponentially

  00000	55		 push	 ebp
  00001	8b ec		 mov	 ebp, esp
  00003	56		 push	 esi
  00004	8b f1		 mov	 esi, ecx

; 1291 : 		size_type _Size = size();

  00006	8b 0e		 mov	 ecx, DWORD PTR [esi]
  00008	8b 46 04	 mov	 eax, DWORD PTR [esi+4]
  0000b	2b c1		 sub	 eax, ecx

; 1292 : 		if (max_size() - _Count < _Size)

  0000d	ba ff ff ff 1f	 mov	 edx, 536870911		; 1fffffffH
  00012	2b 55 08	 sub	 edx, DWORD PTR __Count$[ebp]
  00015	c1 f8 03	 sar	 eax, 3
  00018	3b d0		 cmp	 edx, eax
  0001a	73 0b		 jae	 SHORT $LN4@Reserve

; 1293 : 			_Xlen();

  0001c	68 00 00 00 00	 push	 OFFSET ??_C@_0BD@OLBABOEK@vector?$DMT?$DO?5too?5long?$AA@
  00021	ff 15 00 00 00
	00		 call	 DWORD PTR __imp_?_Xlength_error@std@@YAXPBD@Z
$LN21@Reserve:
$LN4@Reserve:

; 1294 : 		else if ((_Size += _Count) <= capacity())

  00027	8b 56 08	 mov	 edx, DWORD PTR [esi+8]
  0002a	03 45 08	 add	 eax, DWORD PTR __Count$[ebp]
  0002d	2b d1		 sub	 edx, ecx
  0002f	c1 fa 03	 sar	 edx, 3
  00032	3b c2		 cmp	 eax, edx
  00034	76 10		 jbe	 SHORT $LN1@Reserve

; 1295 : 			;
; 1296 : 		else
; 1297 : 			reserve(_Grow_to(_Size));

  00036	50		 push	 eax
  00037	8b ce		 mov	 ecx, esi
  00039	e8 00 00 00 00	 call	 ?_Grow_to@?$vector@UCharDistanceSq@FindPredicate@@V?$allocator@UCharDistanceSq@FindPredicate@@@std@@@std@@IBEII@Z ; std::vector<FindPredicate::CharDistanceSq,std::allocator<FindPredicate::CharDistanceSq> >::_Grow_to
  0003e	50		 push	 eax
  0003f	8b ce		 mov	 ecx, esi
  00041	e8 00 00 00 00	 call	 ?reserve@?$vector@UCharDistanceSq@FindPredicate@@V?$allocator@UCharDistanceSq@FindPredicate@@@std@@@std@@QAEXI@Z ; std::vector<FindPredicate::CharDistanceSq,std::allocator<FindPredicate::CharDistanceSq> >::reserve
$LN1@Reserve:
  00046	5e		 pop	 esi

; 1298 : 		}

  00047	5d		 pop	 ebp
  00048	c2 04 00	 ret	 4
$LN20@Reserve:
?_Reserve@?$vector@UCharDistanceSq@FindPredicate@@V?$allocator@UCharDistanceSq@FindPredicate@@@std@@@std@@IAEXI@Z ENDP ; std::vector<FindPredicate::CharDistanceSq,std::allocator<FindPredicate::CharDistanceSq> >::_Reserve
_TEXT	ENDS
PUBLIC	?_Reserve@?$vector@UCharAngle@FindPredicate@@V?$allocator@UCharAngle@FindPredicate@@@std@@@std@@IAEXI@Z ; std::vector<FindPredicate::CharAngle,std::allocator<FindPredicate::CharAngle> >::_Reserve
; Function compile flags: /Ogsp
;	COMDAT ?_Reserve@?$vector@UCharAngle@FindPredicate@@V?$allocator@UCharAngle@FindPredicate@@@std@@@std@@IAEXI@Z
_TEXT	SEGMENT
__Count$ = 8						; size = 4
?_Reserve@?$vector@UCharAngle@FindPredicate@@V?$allocator@UCharAngle@FindPredicate@@@std@@@std@@IAEXI@Z PROC ; std::vector<FindPredicate::CharAngle,std::allocator<FindPredicate::CharAngle> >::_Reserve, COMDAT
; _this$ = ecx

; 1290 : 		{	// ensure room for _Count new elements, grow exponentially

  00000	55		 push	 ebp
  00001	8b ec		 mov	 ebp, esp
  00003	56		 push	 esi
  00004	8b f1		 mov	 esi, ecx

; 1291 : 		size_type _Size = size();

  00006	8b 0e		 mov	 ecx, DWORD PTR [esi]
  00008	8b 46 04	 mov	 eax, DWORD PTR [esi+4]
  0000b	2b c1		 sub	 eax, ecx

; 1292 : 		if (max_size() - _Count < _Size)

  0000d	ba ff ff ff 1f	 mov	 edx, 536870911		; 1fffffffH
  00012	2b 55 08	 sub	 edx, DWORD PTR __Count$[ebp]
  00015	c1 f8 03	 sar	 eax, 3
  00018	3b d0		 cmp	 edx, eax
  0001a	73 0b		 jae	 SHORT $LN4@Reserve@2

; 1293 : 			_Xlen();

  0001c	68 00 00 00 00	 push	 OFFSET ??_C@_0BD@OLBABOEK@vector?$DMT?$DO?5too?5long?$AA@
  00021	ff 15 00 00 00
	00		 call	 DWORD PTR __imp_?_Xlength_error@std@@YAXPBD@Z
$LN21@Reserve@2:
$LN4@Reserve@2:

; 1294 : 		else if ((_Size += _Count) <= capacity())

  00027	8b 56 08	 mov	 edx, DWORD PTR [esi+8]
  0002a	03 45 08	 add	 eax, DWORD PTR __Count$[ebp]
  0002d	2b d1		 sub	 edx, ecx
  0002f	c1 fa 03	 sar	 edx, 3
  00032	3b c2		 cmp	 eax, edx
  00034	76 10		 jbe	 SHORT $LN1@Reserve@2

; 1295 : 			;
; 1296 : 		else
; 1297 : 			reserve(_Grow_to(_Size));

  00036	50		 push	 eax
  00037	8b ce		 mov	 ecx, esi
  00039	e8 00 00 00 00	 call	 ?_Grow_to@?$vector@UCharAngle@FindPredicate@@V?$allocator@UCharAngle@FindPredicate@@@std@@@std@@IBEII@Z ; std::vector<FindPredicate::CharAngle,std::allocator<FindPredicate::CharAngle> >::_Grow_to
  0003e	50		 push	 eax
  0003f	8b ce		 mov	 ecx, esi
  00041	e8 00 00 00 00	 call	 ?reserve@?$vector@UCharAngle@FindPredicate@@V?$allocator@UCharAngle@FindPredicate@@@std@@@std@@QAEXI@Z ; std::vector<FindPredicate::CharAngle,std::allocator<FindPredicate::CharAngle> >::reserve
$LN1@Reserve@2:
  00046	5e		 pop	 esi

; 1298 : 		}

  00047	5d		 pop	 ebp
  00048	c2 04 00	 ret	 4
$LN20@Reserve@2:
?_Reserve@?$vector@UCharAngle@FindPredicate@@V?$allocator@UCharAngle@FindPredicate@@@std@@@std@@IAEXI@Z ENDP ; std::vector<FindPredicate::CharAngle,std::allocator<FindPredicate::CharAngle> >::_Reserve
_TEXT	ENDS
PUBLIC	??$sort_heap@PAUCharDistanceSq@FindPredicate@@@std@@YAXPAUCharDistanceSq@FindPredicate@@0@Z ; std::sort_heap<FindPredicate::CharDistanceSq *>
; Function compile flags: /Ogsp
; File c:\program files (x86)\microsoft visual studio 10.0\vc\include\algorithm
;	COMDAT ??$sort_heap@PAUCharDistanceSq@FindPredicate@@@std@@YAXPAUCharDistanceSq@FindPredicate@@0@Z
_TEXT	SEGMENT
__First$ = 8						; size = 4
__Last$ = 12						; size = 4
??$sort_heap@PAUCharDistanceSq@FindPredicate@@@std@@YAXPAUCharDistanceSq@FindPredicate@@0@Z PROC ; std::sort_heap<FindPredicate::CharDistanceSq *>, COMDAT

; 2690 : 	{	// order heap by repeatedly popping, using operator<

  00000	55		 push	 ebp
  00001	8b ec		 mov	 ebp, esp

; 2694 : 	}

  00003	5d		 pop	 ebp

; 2691 : 	_DEBUG_RANGE(_First, _Last);
; 2692 : 	_DEBUG_HEAP(_First, _Last);
; 2693 : 	_Sort_heap(_Unchecked(_First), _Unchecked(_Last));

  00004	e9 00 00 00 00	 jmp	 ??$_Sort_heap@PAUCharDistanceSq@FindPredicate@@@std@@YAXPAUCharDistanceSq@FindPredicate@@0@Z ; std::_Sort_heap<FindPredicate::CharDistanceSq *>
??$sort_heap@PAUCharDistanceSq@FindPredicate@@@std@@YAXPAUCharDistanceSq@FindPredicate@@0@Z ENDP ; std::sort_heap<FindPredicate::CharDistanceSq *>
_TEXT	ENDS
PUBLIC	??$sort_heap@PAUCharAngle@FindPredicate@@@std@@YAXPAUCharAngle@FindPredicate@@0@Z ; std::sort_heap<FindPredicate::CharAngle *>
; Function compile flags: /Ogsp
;	COMDAT ??$sort_heap@PAUCharAngle@FindPredicate@@@std@@YAXPAUCharAngle@FindPredicate@@0@Z
_TEXT	SEGMENT
__First$ = 8						; size = 4
__Last$ = 12						; size = 4
??$sort_heap@PAUCharAngle@FindPredicate@@@std@@YAXPAUCharAngle@FindPredicate@@0@Z PROC ; std::sort_heap<FindPredicate::CharAngle *>, COMDAT

; 2690 : 	{	// order heap by repeatedly popping, using operator<

  00000	55		 push	 ebp
  00001	8b ec		 mov	 ebp, esp

; 2694 : 	}

  00003	5d		 pop	 ebp

; 2691 : 	_DEBUG_RANGE(_First, _Last);
; 2692 : 	_DEBUG_HEAP(_First, _Last);
; 2693 : 	_Sort_heap(_Unchecked(_First), _Unchecked(_Last));

  00004	e9 00 00 00 00	 jmp	 ??$_Sort_heap@PAUCharAngle@FindPredicate@@@std@@YAXPAUCharAngle@FindPredicate@@0@Z ; std::_Sort_heap<FindPredicate::CharAngle *>
??$sort_heap@PAUCharAngle@FindPredicate@@@std@@YAXPAUCharAngle@FindPredicate@@0@Z ENDP ; std::sort_heap<FindPredicate::CharAngle *>
_TEXT	ENDS
PUBLIC	?push_back@?$vector@UCharDistanceSq@FindPredicate@@V?$allocator@UCharDistanceSq@FindPredicate@@@std@@@std@@QAEXABUCharDistanceSq@FindPredicate@@@Z ; std::vector<FindPredicate::CharDistanceSq,std::allocator<FindPredicate::CharDistanceSq> >::push_back
; Function compile flags: /Ogsp
; File c:\program files (x86)\microsoft visual studio 10.0\vc\include\vector
;	COMDAT ?push_back@?$vector@UCharDistanceSq@FindPredicate@@V?$allocator@UCharDistanceSq@FindPredicate@@@std@@@std@@QAEXABUCharDistanceSq@FindPredicate@@@Z
_TEXT	SEGMENT
__Val$ = 8						; size = 4
?push_back@?$vector@UCharDistanceSq@FindPredicate@@V?$allocator@UCharDistanceSq@FindPredicate@@@std@@@std@@QAEXABUCharDistanceSq@FindPredicate@@@Z PROC ; std::vector<FindPredicate::CharDistanceSq,std::allocator<FindPredicate::CharDistanceSq> >::push_back, COMDAT
; _this$ = ecx

; 976  : 		{	// insert element at end

  00000	55		 push	 ebp
  00001	8b ec		 mov	 ebp, esp
  00003	56		 push	 esi
  00004	8b f1		 mov	 esi, ecx

; 977  : 		if (_Inside(_STD addressof(_Val)))

  00006	8b 46 04	 mov	 eax, DWORD PTR [esi+4]
  00009	57		 push	 edi
  0000a	8b 7d 08	 mov	 edi, DWORD PTR __Val$[ebp]
  0000d	3b f8		 cmp	 edi, eax
  0000f	73 2d		 jae	 SHORT $LN4@push_back
  00011	8b 0e		 mov	 ecx, DWORD PTR [esi]
  00013	3b cf		 cmp	 ecx, edi
  00015	77 27		 ja	 SHORT $LN4@push_back

; 978  : 			{	// push back an element
; 979  : 			size_type _Idx = _STD addressof(_Val) - this->_Myfirst;

  00017	2b f9		 sub	 edi, ecx
  00019	c1 ff 03	 sar	 edi, 3

; 980  : 			if (this->_Mylast == this->_Myend)

  0001c	3b 46 08	 cmp	 eax, DWORD PTR [esi+8]
  0001f	75 09		 jne	 SHORT $LN3@push_back

; 981  : 				_Reserve(1);

  00021	6a 01		 push	 1
  00023	8b ce		 mov	 ecx, esi
  00025	e8 00 00 00 00	 call	 ?_Reserve@?$vector@UCharDistanceSq@FindPredicate@@V?$allocator@UCharDistanceSq@FindPredicate@@@std@@@std@@IAEXI@Z ; std::vector<FindPredicate::CharDistanceSq,std::allocator<FindPredicate::CharDistanceSq> >::_Reserve
$LN3@push_back:

; 982  : 			_Orphan_range(this->_Mylast, this->_Mylast);
; 983  : 			_Cons_val(this->_Alval,
; 984  : 				this->_Mylast,
; 985  : 				this->_Myfirst[_Idx]);

  0002a	8b 06		 mov	 eax, DWORD PTR [esi]
  0002c	8d 04 f8	 lea	 eax, DWORD PTR [eax+edi*8]
  0002f	50		 push	 eax
  00030	ff 76 04	 push	 DWORD PTR [esi+4]
  00033	8d 46 0c	 lea	 eax, DWORD PTR [esi+12]
  00036	50		 push	 eax
  00037	e8 00 00 00 00	 call	 ??$_Cons_val@V?$allocator@UCharDistanceSq@FindPredicate@@@std@@UCharDistanceSq@FindPredicate@@AAU34@@std@@YAXAAV?$allocator@UCharDistanceSq@FindPredicate@@@0@PAUCharDistanceSq@FindPredicate@@AAU23@@Z ; std::_Cons_val<std::allocator<FindPredicate::CharDistanceSq>,FindPredicate::CharDistanceSq,FindPredicate::CharDistanceSq &>

; 986  : 			++this->_Mylast;
; 987  : 			}
; 988  : 		else

  0003c	eb 1b		 jmp	 SHORT $LN20@push_back
$LN4@push_back:

; 989  : 			{	// push back a non-element
; 990  : 			if (this->_Mylast == this->_Myend)

  0003e	3b 46 08	 cmp	 eax, DWORD PTR [esi+8]
  00041	75 09		 jne	 SHORT $LN1@push_back

; 991  : 				_Reserve(1);

  00043	6a 01		 push	 1
  00045	8b ce		 mov	 ecx, esi
  00047	e8 00 00 00 00	 call	 ?_Reserve@?$vector@UCharDistanceSq@FindPredicate@@V?$allocator@UCharDistanceSq@FindPredicate@@@std@@@std@@IAEXI@Z ; std::vector<FindPredicate::CharDistanceSq,std::allocator<FindPredicate::CharDistanceSq> >::_Reserve
$LN1@push_back:

; 992  : 			_Orphan_range(this->_Mylast, this->_Mylast);
; 993  : 			_Cons_val(this->_Alval,
; 994  : 				this->_Mylast,
; 995  : 				_Val);

  0004c	57		 push	 edi
  0004d	ff 76 04	 push	 DWORD PTR [esi+4]
  00050	8d 46 0c	 lea	 eax, DWORD PTR [esi+12]
  00053	50		 push	 eax
  00054	e8 00 00 00 00	 call	 ??$_Cons_val@V?$allocator@UCharDistanceSq@FindPredicate@@@std@@UCharDistanceSq@FindPredicate@@ABU34@@std@@YAXAAV?$allocator@UCharDistanceSq@FindPredicate@@@0@PAUCharDistanceSq@FindPredicate@@ABU23@@Z ; std::_Cons_val<std::allocator<FindPredicate::CharDistanceSq>,FindPredicate::CharDistanceSq,FindPredicate::CharDistanceSq const &>
$LN20@push_back:
  00059	83 c4 0c	 add	 esp, 12			; 0000000cH

; 996  : 			++this->_Mylast;

  0005c	83 46 04 08	 add	 DWORD PTR [esi+4], 8
  00060	5f		 pop	 edi
  00061	5e		 pop	 esi

; 997  : 			}
; 998  : 		}

  00062	5d		 pop	 ebp
  00063	c2 04 00	 ret	 4
?push_back@?$vector@UCharDistanceSq@FindPredicate@@V?$allocator@UCharDistanceSq@FindPredicate@@@std@@@std@@QAEXABUCharDistanceSq@FindPredicate@@@Z ENDP ; std::vector<FindPredicate::CharDistanceSq,std::allocator<FindPredicate::CharDistanceSq> >::push_back
_TEXT	ENDS
PUBLIC	?push_back@?$vector@UCharAngle@FindPredicate@@V?$allocator@UCharAngle@FindPredicate@@@std@@@std@@QAEXABUCharAngle@FindPredicate@@@Z ; std::vector<FindPredicate::CharAngle,std::allocator<FindPredicate::CharAngle> >::push_back
; Function compile flags: /Ogsp
;	COMDAT ?push_back@?$vector@UCharAngle@FindPredicate@@V?$allocator@UCharAngle@FindPredicate@@@std@@@std@@QAEXABUCharAngle@FindPredicate@@@Z
_TEXT	SEGMENT
__Val$ = 8						; size = 4
?push_back@?$vector@UCharAngle@FindPredicate@@V?$allocator@UCharAngle@FindPredicate@@@std@@@std@@QAEXABUCharAngle@FindPredicate@@@Z PROC ; std::vector<FindPredicate::CharAngle,std::allocator<FindPredicate::CharAngle> >::push_back, COMDAT
; _this$ = ecx

; 976  : 		{	// insert element at end

  00000	55		 push	 ebp
  00001	8b ec		 mov	 ebp, esp
  00003	56		 push	 esi
  00004	8b f1		 mov	 esi, ecx

; 977  : 		if (_Inside(_STD addressof(_Val)))

  00006	8b 46 04	 mov	 eax, DWORD PTR [esi+4]
  00009	57		 push	 edi
  0000a	8b 7d 08	 mov	 edi, DWORD PTR __Val$[ebp]
  0000d	3b f8		 cmp	 edi, eax
  0000f	73 2d		 jae	 SHORT $LN4@push_back@2
  00011	8b 0e		 mov	 ecx, DWORD PTR [esi]
  00013	3b cf		 cmp	 ecx, edi
  00015	77 27		 ja	 SHORT $LN4@push_back@2

; 978  : 			{	// push back an element
; 979  : 			size_type _Idx = _STD addressof(_Val) - this->_Myfirst;

  00017	2b f9		 sub	 edi, ecx
  00019	c1 ff 03	 sar	 edi, 3

; 980  : 			if (this->_Mylast == this->_Myend)

  0001c	3b 46 08	 cmp	 eax, DWORD PTR [esi+8]
  0001f	75 09		 jne	 SHORT $LN3@push_back@2

; 981  : 				_Reserve(1);

  00021	6a 01		 push	 1
  00023	8b ce		 mov	 ecx, esi
  00025	e8 00 00 00 00	 call	 ?_Reserve@?$vector@UCharAngle@FindPredicate@@V?$allocator@UCharAngle@FindPredicate@@@std@@@std@@IAEXI@Z ; std::vector<FindPredicate::CharAngle,std::allocator<FindPredicate::CharAngle> >::_Reserve
$LN3@push_back@2:

; 982  : 			_Orphan_range(this->_Mylast, this->_Mylast);
; 983  : 			_Cons_val(this->_Alval,
; 984  : 				this->_Mylast,
; 985  : 				this->_Myfirst[_Idx]);

  0002a	8b 06		 mov	 eax, DWORD PTR [esi]
  0002c	8d 04 f8	 lea	 eax, DWORD PTR [eax+edi*8]
  0002f	50		 push	 eax
  00030	ff 76 04	 push	 DWORD PTR [esi+4]
  00033	8d 46 0c	 lea	 eax, DWORD PTR [esi+12]
  00036	50		 push	 eax
  00037	e8 00 00 00 00	 call	 ??$_Cons_val@V?$allocator@UCharAngle@FindPredicate@@@std@@UCharAngle@FindPredicate@@AAU34@@std@@YAXAAV?$allocator@UCharAngle@FindPredicate@@@0@PAUCharAngle@FindPredicate@@AAU23@@Z ; std::_Cons_val<std::allocator<FindPredicate::CharAngle>,FindPredicate::CharAngle,FindPredicate::CharAngle &>

; 986  : 			++this->_Mylast;
; 987  : 			}
; 988  : 		else

  0003c	eb 1b		 jmp	 SHORT $LN20@push_back@2
$LN4@push_back@2:

; 989  : 			{	// push back a non-element
; 990  : 			if (this->_Mylast == this->_Myend)

  0003e	3b 46 08	 cmp	 eax, DWORD PTR [esi+8]
  00041	75 09		 jne	 SHORT $LN1@push_back@2

; 991  : 				_Reserve(1);

  00043	6a 01		 push	 1
  00045	8b ce		 mov	 ecx, esi
  00047	e8 00 00 00 00	 call	 ?_Reserve@?$vector@UCharAngle@FindPredicate@@V?$allocator@UCharAngle@FindPredicate@@@std@@@std@@IAEXI@Z ; std::vector<FindPredicate::CharAngle,std::allocator<FindPredicate::CharAngle> >::_Reserve
$LN1@push_back@2:

; 992  : 			_Orphan_range(this->_Mylast, this->_Mylast);
; 993  : 			_Cons_val(this->_Alval,
; 994  : 				this->_Mylast,
; 995  : 				_Val);

  0004c	57		 push	 edi
  0004d	ff 76 04	 push	 DWORD PTR [esi+4]
  00050	8d 46 0c	 lea	 eax, DWORD PTR [esi+12]
  00053	50		 push	 eax
  00054	e8 00 00 00 00	 call	 ??$_Cons_val@V?$allocator@UCharAngle@FindPredicate@@@std@@UCharAngle@FindPredicate@@ABU34@@std@@YAXAAV?$allocator@UCharAngle@FindPredicate@@@0@PAUCharAngle@FindPredicate@@ABU23@@Z ; std::_Cons_val<std::allocator<FindPredicate::CharAngle>,FindPredicate::CharAngle,FindPredicate::CharAngle const &>
$LN20@push_back@2:
  00059	83 c4 0c	 add	 esp, 12			; 0000000cH

; 996  : 			++this->_Mylast;

  0005c	83 46 04 08	 add	 DWORD PTR [esi+4], 8
  00060	5f		 pop	 edi
  00061	5e		 pop	 esi

; 997  : 			}
; 998  : 		}

  00062	5d		 pop	 ebp
  00063	c2 04 00	 ret	 4
?push_back@?$vector@UCharAngle@FindPredicate@@V?$allocator@UCharAngle@FindPredicate@@@std@@@std@@QAEXABUCharAngle@FindPredicate@@@Z ENDP ; std::vector<FindPredicate::CharAngle,std::allocator<FindPredicate::CharAngle> >::push_back
_TEXT	ENDS
PUBLIC	??$_Sort@PAUCharDistanceSq@FindPredicate@@H@std@@YAXPAUCharDistanceSq@FindPredicate@@0H@Z ; std::_Sort<FindPredicate::CharDistanceSq *,int>
; Function compile flags: /Ogsp
; File c:\program files (x86)\microsoft visual studio 10.0\vc\include\algorithm
;	COMDAT ??$_Sort@PAUCharDistanceSq@FindPredicate@@H@std@@YAXPAUCharDistanceSq@FindPredicate@@0H@Z
_TEXT	SEGMENT
__Mid$525489 = -8					; size = 8
__First$ = 8						; size = 4
__Last$ = 12						; size = 4
__Ideal$ = 16						; size = 4
??$_Sort@PAUCharDistanceSq@FindPredicate@@H@std@@YAXPAUCharDistanceSq@FindPredicate@@0H@Z PROC ; std::_Sort<FindPredicate::CharDistanceSq *,int>, COMDAT

; 3609 : 	{	// order [_First, _Last), using operator<

  00000	55		 push	 ebp
  00001	8b ec		 mov	 ebp, esp
  00003	51		 push	 ecx
  00004	51		 push	 ecx
  00005	53		 push	 ebx

; 3610 : 	_Diff _Count;
; 3611 : 	for (; _ISORT_MAX < (_Count = _Last - _First) && 0 < _Ideal; )

  00006	8b 5d 08	 mov	 ebx, DWORD PTR __First$[ebp]
  00009	57		 push	 edi
  0000a	8b 7d 0c	 mov	 edi, DWORD PTR __Last$[ebp]
  0000d	8b c7		 mov	 eax, edi
  0000f	2b c3		 sub	 eax, ebx
  00011	c1 f8 03	 sar	 eax, 3
  00014	83 f8 20	 cmp	 eax, 32			; 00000020H
  00017	7e 7d		 jle	 SHORT $LN22@Sort
  00019	56		 push	 esi
  0001a	8b 75 10	 mov	 esi, DWORD PTR __Ideal$[ebp]
$LL7@Sort:
  0001d	85 f6		 test	 esi, esi
  0001f	7e 5c		 jle	 SHORT $LN6@Sort

; 3612 : 		{	// divide and conquer by quicksort
; 3613 : 		_STD pair<_RanIt, _RanIt> _Mid =
; 3614 : 			_Unguarded_partition(_First, _Last);

  00021	57		 push	 edi
  00022	8d 45 f8	 lea	 eax, DWORD PTR __Mid$525489[ebp]
  00025	53		 push	 ebx
  00026	50		 push	 eax
  00027	e8 00 00 00 00	 call	 ??$_Unguarded_partition@PAUCharDistanceSq@FindPredicate@@@std@@YA?AU?$pair@PAUCharDistanceSq@FindPredicate@@PAU12@@0@PAUCharDistanceSq@FindPredicate@@0@Z ; std::_Unguarded_partition<FindPredicate::CharDistanceSq *>

; 3615 : 		_Ideal /= 2, _Ideal += _Ideal / 2;	// allow 1.5 log2(N) divisions
; 3616 : 
; 3617 : 		if (_Mid.first - _First < _Last - _Mid.second)

  0002c	8b 4d f8	 mov	 ecx, DWORD PTR __Mid$525489[ebp]
  0002f	8b c6		 mov	 eax, esi
  00031	99		 cdq
  00032	2b c2		 sub	 eax, edx
  00034	d1 f8		 sar	 eax, 1
  00036	8b f0		 mov	 esi, eax
  00038	99		 cdq
  00039	2b c2		 sub	 eax, edx
  0003b	d1 f8		 sar	 eax, 1
  0003d	03 f0		 add	 esi, eax
  0003f	8b c7		 mov	 eax, edi
  00041	2b 45 fc	 sub	 eax, DWORD PTR __Mid$525489[ebp+4]
  00044	2b cb		 sub	 ecx, ebx
  00046	83 c4 0c	 add	 esp, 12			; 0000000cH
  00049	83 e0 f8	 and	 eax, -8			; fffffff8H
  0004c	83 e1 f8	 and	 ecx, -8			; fffffff8H

; 3618 : 			{	// loop on second half
; 3619 : 			_Sort(_First, _Mid.first, _Ideal);

  0004f	56		 push	 esi
  00050	3b c8		 cmp	 ecx, eax
  00052	7d 0e		 jge	 SHORT $LN5@Sort
  00054	ff 75 f8	 push	 DWORD PTR __Mid$525489[ebp]
  00057	53		 push	 ebx
  00058	e8 00 00 00 00	 call	 ??$_Sort@PAUCharDistanceSq@FindPredicate@@H@std@@YAXPAUCharDistanceSq@FindPredicate@@0H@Z ; std::_Sort<FindPredicate::CharDistanceSq *,int>

; 3620 : 			_First = _Mid.second;

  0005d	8b 5d fc	 mov	 ebx, DWORD PTR __Mid$525489[ebp+4]

; 3621 : 			}
; 3622 : 		else

  00060	eb 0c		 jmp	 SHORT $LN23@Sort
$LN5@Sort:

; 3623 : 			{	// loop on first half
; 3624 : 			_Sort(_Mid.second, _Last, _Ideal);

  00062	57		 push	 edi
  00063	ff 75 fc	 push	 DWORD PTR __Mid$525489[ebp+4]
  00066	e8 00 00 00 00	 call	 ??$_Sort@PAUCharDistanceSq@FindPredicate@@H@std@@YAXPAUCharDistanceSq@FindPredicate@@0H@Z ; std::_Sort<FindPredicate::CharDistanceSq *,int>

; 3625 : 			_Last = _Mid.first;

  0006b	8b 7d f8	 mov	 edi, DWORD PTR __Mid$525489[ebp]
$LN23@Sort:

; 3610 : 	_Diff _Count;
; 3611 : 	for (; _ISORT_MAX < (_Count = _Last - _First) && 0 < _Ideal; )

  0006e	8b c7		 mov	 eax, edi
  00070	2b c3		 sub	 eax, ebx
  00072	c1 f8 03	 sar	 eax, 3

; 3623 : 			{	// loop on first half
; 3624 : 			_Sort(_Mid.second, _Last, _Ideal);

  00075	83 c4 0c	 add	 esp, 12			; 0000000cH
  00078	83 f8 20	 cmp	 eax, 32			; 00000020H
  0007b	7f a0		 jg	 SHORT $LL7@Sort
$LN6@Sort:
  0007d	5e		 pop	 esi

; 3626 : 			}
; 3627 : 		}
; 3628 : 
; 3629 : 	if (_ISORT_MAX < _Count)

  0007e	83 f8 20	 cmp	 eax, 32			; 00000020H
  00081	7e 13		 jle	 SHORT $LN22@Sort

; 3630 : 		{	// heap sort if too many divisions
; 3631 : 		_STD make_heap(_First, _Last);

  00083	57		 push	 edi
  00084	53		 push	 ebx
  00085	e8 00 00 00 00	 call	 ??$make_heap@PAUCharDistanceSq@FindPredicate@@@std@@YAXPAUCharDistanceSq@FindPredicate@@0@Z ; std::make_heap<FindPredicate::CharDistanceSq *>

; 3632 : 		_STD sort_heap(_First, _Last);

  0008a	57		 push	 edi
  0008b	53		 push	 ebx
  0008c	e8 00 00 00 00	 call	 ??$_Sort_heap@PAUCharDistanceSq@FindPredicate@@@std@@YAXPAUCharDistanceSq@FindPredicate@@0@Z ; std::_Sort_heap<FindPredicate::CharDistanceSq *>
  00091	83 c4 10	 add	 esp, 16			; 00000010H
  00094	eb 11		 jmp	 SHORT $LN16@Sort
$LN22@Sort:

; 3633 : 		}
; 3634 : 	else if (1 < _Count)

  00096	83 f8 01	 cmp	 eax, 1
  00099	7e 0c		 jle	 SHORT $LN16@Sort

; 3635 : 		_Insertion_sort(_First, _Last);	// small

  0009b	6a 00		 push	 0
  0009d	57		 push	 edi
  0009e	53		 push	 ebx
  0009f	e8 00 00 00 00	 call	 ??$_Insertion_sort1@PAUCharDistanceSq@FindPredicate@@U12@@std@@YAXPAUCharDistanceSq@FindPredicate@@00@Z ; std::_Insertion_sort1<FindPredicate::CharDistanceSq *,FindPredicate::CharDistanceSq>
  000a4	83 c4 0c	 add	 esp, 12			; 0000000cH
$LN16@Sort:
  000a7	5f		 pop	 edi
  000a8	5b		 pop	 ebx

; 3636 : 	}

  000a9	c9		 leave
  000aa	c3		 ret	 0
??$_Sort@PAUCharDistanceSq@FindPredicate@@H@std@@YAXPAUCharDistanceSq@FindPredicate@@0H@Z ENDP ; std::_Sort<FindPredicate::CharDistanceSq *,int>
_TEXT	ENDS
PUBLIC	??$_Sort@PAUCharAngle@FindPredicate@@H@std@@YAXPAUCharAngle@FindPredicate@@0H@Z ; std::_Sort<FindPredicate::CharAngle *,int>
; Function compile flags: /Ogsp
;	COMDAT ??$_Sort@PAUCharAngle@FindPredicate@@H@std@@YAXPAUCharAngle@FindPredicate@@0H@Z
_TEXT	SEGMENT
__Mid$525673 = -8					; size = 8
__First$ = 8						; size = 4
__Last$ = 12						; size = 4
__Ideal$ = 16						; size = 4
??$_Sort@PAUCharAngle@FindPredicate@@H@std@@YAXPAUCharAngle@FindPredicate@@0H@Z PROC ; std::_Sort<FindPredicate::CharAngle *,int>, COMDAT

; 3609 : 	{	// order [_First, _Last), using operator<

  00000	55		 push	 ebp
  00001	8b ec		 mov	 ebp, esp
  00003	51		 push	 ecx
  00004	51		 push	 ecx
  00005	53		 push	 ebx

; 3610 : 	_Diff _Count;
; 3611 : 	for (; _ISORT_MAX < (_Count = _Last - _First) && 0 < _Ideal; )

  00006	8b 5d 08	 mov	 ebx, DWORD PTR __First$[ebp]
  00009	57		 push	 edi
  0000a	8b 7d 0c	 mov	 edi, DWORD PTR __Last$[ebp]
  0000d	8b c7		 mov	 eax, edi
  0000f	2b c3		 sub	 eax, ebx
  00011	c1 f8 03	 sar	 eax, 3
  00014	83 f8 20	 cmp	 eax, 32			; 00000020H
  00017	7e 7d		 jle	 SHORT $LN22@Sort@2
  00019	56		 push	 esi
  0001a	8b 75 10	 mov	 esi, DWORD PTR __Ideal$[ebp]
$LL7@Sort@2:
  0001d	85 f6		 test	 esi, esi
  0001f	7e 5c		 jle	 SHORT $LN6@Sort@2

; 3612 : 		{	// divide and conquer by quicksort
; 3613 : 		_STD pair<_RanIt, _RanIt> _Mid =
; 3614 : 			_Unguarded_partition(_First, _Last);

  00021	57		 push	 edi
  00022	8d 45 f8	 lea	 eax, DWORD PTR __Mid$525673[ebp]
  00025	53		 push	 ebx
  00026	50		 push	 eax
  00027	e8 00 00 00 00	 call	 ??$_Unguarded_partition@PAUCharAngle@FindPredicate@@@std@@YA?AU?$pair@PAUCharAngle@FindPredicate@@PAU12@@0@PAUCharAngle@FindPredicate@@0@Z ; std::_Unguarded_partition<FindPredicate::CharAngle *>

; 3615 : 		_Ideal /= 2, _Ideal += _Ideal / 2;	// allow 1.5 log2(N) divisions
; 3616 : 
; 3617 : 		if (_Mid.first - _First < _Last - _Mid.second)

  0002c	8b 4d f8	 mov	 ecx, DWORD PTR __Mid$525673[ebp]
  0002f	8b c6		 mov	 eax, esi
  00031	99		 cdq
  00032	2b c2		 sub	 eax, edx
  00034	d1 f8		 sar	 eax, 1
  00036	8b f0		 mov	 esi, eax
  00038	99		 cdq
  00039	2b c2		 sub	 eax, edx
  0003b	d1 f8		 sar	 eax, 1
  0003d	03 f0		 add	 esi, eax
  0003f	8b c7		 mov	 eax, edi
  00041	2b 45 fc	 sub	 eax, DWORD PTR __Mid$525673[ebp+4]
  00044	2b cb		 sub	 ecx, ebx
  00046	83 c4 0c	 add	 esp, 12			; 0000000cH
  00049	83 e0 f8	 and	 eax, -8			; fffffff8H
  0004c	83 e1 f8	 and	 ecx, -8			; fffffff8H

; 3618 : 			{	// loop on second half
; 3619 : 			_Sort(_First, _Mid.first, _Ideal);

  0004f	56		 push	 esi
  00050	3b c8		 cmp	 ecx, eax
  00052	7d 0e		 jge	 SHORT $LN5@Sort@2
  00054	ff 75 f8	 push	 DWORD PTR __Mid$525673[ebp]
  00057	53		 push	 ebx
  00058	e8 00 00 00 00	 call	 ??$_Sort@PAUCharAngle@FindPredicate@@H@std@@YAXPAUCharAngle@FindPredicate@@0H@Z ; std::_Sort<FindPredicate::CharAngle *,int>

; 3620 : 			_First = _Mid.second;

  0005d	8b 5d fc	 mov	 ebx, DWORD PTR __Mid$525673[ebp+4]

; 3621 : 			}
; 3622 : 		else

  00060	eb 0c		 jmp	 SHORT $LN23@Sort@2
$LN5@Sort@2:

; 3623 : 			{	// loop on first half
; 3624 : 			_Sort(_Mid.second, _Last, _Ideal);

  00062	57		 push	 edi
  00063	ff 75 fc	 push	 DWORD PTR __Mid$525673[ebp+4]
  00066	e8 00 00 00 00	 call	 ??$_Sort@PAUCharAngle@FindPredicate@@H@std@@YAXPAUCharAngle@FindPredicate@@0H@Z ; std::_Sort<FindPredicate::CharAngle *,int>

; 3625 : 			_Last = _Mid.first;

  0006b	8b 7d f8	 mov	 edi, DWORD PTR __Mid$525673[ebp]
$LN23@Sort@2:

; 3610 : 	_Diff _Count;
; 3611 : 	for (; _ISORT_MAX < (_Count = _Last - _First) && 0 < _Ideal; )

  0006e	8b c7		 mov	 eax, edi
  00070	2b c3		 sub	 eax, ebx
  00072	c1 f8 03	 sar	 eax, 3

; 3623 : 			{	// loop on first half
; 3624 : 			_Sort(_Mid.second, _Last, _Ideal);

  00075	83 c4 0c	 add	 esp, 12			; 0000000cH
  00078	83 f8 20	 cmp	 eax, 32			; 00000020H
  0007b	7f a0		 jg	 SHORT $LL7@Sort@2
$LN6@Sort@2:
  0007d	5e		 pop	 esi

; 3626 : 			}
; 3627 : 		}
; 3628 : 
; 3629 : 	if (_ISORT_MAX < _Count)

  0007e	83 f8 20	 cmp	 eax, 32			; 00000020H
  00081	7e 13		 jle	 SHORT $LN22@Sort@2

; 3630 : 		{	// heap sort if too many divisions
; 3631 : 		_STD make_heap(_First, _Last);

  00083	57		 push	 edi
  00084	53		 push	 ebx
  00085	e8 00 00 00 00	 call	 ??$make_heap@PAUCharAngle@FindPredicate@@@std@@YAXPAUCharAngle@FindPredicate@@0@Z ; std::make_heap<FindPredicate::CharAngle *>

; 3632 : 		_STD sort_heap(_First, _Last);

  0008a	57		 push	 edi
  0008b	53		 push	 ebx
  0008c	e8 00 00 00 00	 call	 ??$_Sort_heap@PAUCharAngle@FindPredicate@@@std@@YAXPAUCharAngle@FindPredicate@@0@Z ; std::_Sort_heap<FindPredicate::CharAngle *>
  00091	83 c4 10	 add	 esp, 16			; 00000010H
  00094	eb 11		 jmp	 SHORT $LN16@Sort@2
$LN22@Sort@2:

; 3633 : 		}
; 3634 : 	else if (1 < _Count)

  00096	83 f8 01	 cmp	 eax, 1
  00099	7e 0c		 jle	 SHORT $LN16@Sort@2

; 3635 : 		_Insertion_sort(_First, _Last);	// small

  0009b	6a 00		 push	 0
  0009d	57		 push	 edi
  0009e	53		 push	 ebx
  0009f	e8 00 00 00 00	 call	 ??$_Insertion_sort1@PAUCharAngle@FindPredicate@@U12@@std@@YAXPAUCharAngle@FindPredicate@@00@Z ; std::_Insertion_sort1<FindPredicate::CharAngle *,FindPredicate::CharAngle>
  000a4	83 c4 0c	 add	 esp, 12			; 0000000cH
$LN16@Sort@2:
  000a7	5f		 pop	 edi
  000a8	5b		 pop	 ebx

; 3636 : 	}

  000a9	c9		 leave
  000aa	c3		 ret	 0
??$_Sort@PAUCharAngle@FindPredicate@@H@std@@YAXPAUCharAngle@FindPredicate@@0H@Z ENDP ; std::_Sort<FindPredicate::CharAngle *,int>
_TEXT	ENDS
PUBLIC	??$sort@V?$_Vector_iterator@V?$_Vector_val@UCharDistanceSq@FindPredicate@@V?$allocator@UCharDistanceSq@FindPredicate@@@std@@@std@@@std@@@std@@YAXV?$_Vector_iterator@V?$_Vector_val@UCharDistanceSq@FindPredicate@@V?$allocator@UCharDistanceSq@FindPredicate@@@std@@@std@@@0@0@Z ; std::sort<std::_Vector_iterator<std::_Vector_val<FindPredicate::CharDistanceSq,std::allocator<FindPredicate::CharDistanceSq> > > >
; Function compile flags: /Ogsp
;	COMDAT ??$sort@V?$_Vector_iterator@V?$_Vector_val@UCharDistanceSq@FindPredicate@@V?$allocator@UCharDistanceSq@FindPredicate@@@std@@@std@@@std@@@std@@YAXV?$_Vector_iterator@V?$_Vector_val@UCharDistanceSq@FindPredicate@@V?$allocator@UCharDistanceSq@FindPredicate@@@std@@@std@@@0@0@Z
_TEXT	SEGMENT
__First$ = 8						; size = 4
__Last$ = 12						; size = 4
??$sort@V?$_Vector_iterator@V?$_Vector_val@UCharDistanceSq@FindPredicate@@V?$allocator@UCharDistanceSq@FindPredicate@@@std@@@std@@@std@@@std@@YAXV?$_Vector_iterator@V?$_Vector_val@UCharDistanceSq@FindPredicate@@V?$allocator@UCharDistanceSq@FindPredicate@@@std@@@std@@@0@0@Z PROC ; std::sort<std::_Vector_iterator<std::_Vector_val<FindPredicate::CharDistanceSq,std::allocator<FindPredicate::CharDistanceSq> > > >, COMDAT

; 3640 : 	{	// order [_First, _Last), using operator<

  00000	55		 push	 ebp
  00001	8b ec		 mov	 ebp, esp

; 3641 : 	_DEBUG_RANGE(_First, _Last);
; 3642 : 	_Sort(_Unchecked(_First), _Unchecked(_Last), _Last - _First);

  00003	8b 45 0c	 mov	 eax, DWORD PTR __Last$[ebp]
  00006	2b 45 08	 sub	 eax, DWORD PTR __First$[ebp]
  00009	c1 f8 03	 sar	 eax, 3
  0000c	50		 push	 eax
  0000d	ff 75 0c	 push	 DWORD PTR __Last$[ebp]
  00010	ff 75 08	 push	 DWORD PTR __First$[ebp]
  00013	e8 00 00 00 00	 call	 ??$_Sort@PAUCharDistanceSq@FindPredicate@@H@std@@YAXPAUCharDistanceSq@FindPredicate@@0H@Z ; std::_Sort<FindPredicate::CharDistanceSq *,int>
  00018	83 c4 0c	 add	 esp, 12			; 0000000cH

; 3643 : 	}

  0001b	5d		 pop	 ebp
  0001c	c3		 ret	 0
??$sort@V?$_Vector_iterator@V?$_Vector_val@UCharDistanceSq@FindPredicate@@V?$allocator@UCharDistanceSq@FindPredicate@@@std@@@std@@@std@@@std@@YAXV?$_Vector_iterator@V?$_Vector_val@UCharDistanceSq@FindPredicate@@V?$allocator@UCharDistanceSq@FindPredicate@@@std@@@std@@@0@0@Z ENDP ; std::sort<std::_Vector_iterator<std::_Vector_val<FindPredicate::CharDistanceSq,std::allocator<FindPredicate::CharDistanceSq> > > >
_TEXT	ENDS
PUBLIC	??$sort@V?$_Vector_iterator@V?$_Vector_val@UCharAngle@FindPredicate@@V?$allocator@UCharAngle@FindPredicate@@@std@@@std@@@std@@@std@@YAXV?$_Vector_iterator@V?$_Vector_val@UCharAngle@FindPredicate@@V?$allocator@UCharAngle@FindPredicate@@@std@@@std@@@0@0@Z ; std::sort<std::_Vector_iterator<std::_Vector_val<FindPredicate::CharAngle,std::allocator<FindPredicate::CharAngle> > > >
; Function compile flags: /Ogsp
;	COMDAT ??$sort@V?$_Vector_iterator@V?$_Vector_val@UCharAngle@FindPredicate@@V?$allocator@UCharAngle@FindPredicate@@@std@@@std@@@std@@@std@@YAXV?$_Vector_iterator@V?$_Vector_val@UCharAngle@FindPredicate@@V?$allocator@UCharAngle@FindPredicate@@@std@@@std@@@0@0@Z
_TEXT	SEGMENT
__First$ = 8						; size = 4
__Last$ = 12						; size = 4
??$sort@V?$_Vector_iterator@V?$_Vector_val@UCharAngle@FindPredicate@@V?$allocator@UCharAngle@FindPredicate@@@std@@@std@@@std@@@std@@YAXV?$_Vector_iterator@V?$_Vector_val@UCharAngle@FindPredicate@@V?$allocator@UCharAngle@FindPredicate@@@std@@@std@@@0@0@Z PROC ; std::sort<std::_Vector_iterator<std::_Vector_val<FindPredicate::CharAngle,std::allocator<FindPredicate::CharAngle> > > >, COMDAT

; 3640 : 	{	// order [_First, _Last), using operator<

  00000	55		 push	 ebp
  00001	8b ec		 mov	 ebp, esp

; 3641 : 	_DEBUG_RANGE(_First, _Last);
; 3642 : 	_Sort(_Unchecked(_First), _Unchecked(_Last), _Last - _First);

  00003	8b 45 0c	 mov	 eax, DWORD PTR __Last$[ebp]
  00006	2b 45 08	 sub	 eax, DWORD PTR __First$[ebp]
  00009	c1 f8 03	 sar	 eax, 3
  0000c	50		 push	 eax
  0000d	ff 75 0c	 push	 DWORD PTR __Last$[ebp]
  00010	ff 75 08	 push	 DWORD PTR __First$[ebp]
  00013	e8 00 00 00 00	 call	 ??$_Sort@PAUCharAngle@FindPredicate@@H@std@@YAXPAUCharAngle@FindPredicate@@0H@Z ; std::_Sort<FindPredicate::CharAngle *,int>
  00018	83 c4 0c	 add	 esp, 12			; 0000000cH

; 3643 : 	}

  0001b	5d		 pop	 ebp
  0001c	c3		 ret	 0
??$sort@V?$_Vector_iterator@V?$_Vector_val@UCharAngle@FindPredicate@@V?$allocator@UCharAngle@FindPredicate@@@std@@@std@@@std@@@std@@YAXV?$_Vector_iterator@V?$_Vector_val@UCharAngle@FindPredicate@@V?$allocator@UCharAngle@FindPredicate@@@std@@@std@@@0@0@Z ENDP ; std::sort<std::_Vector_iterator<std::_Vector_val<FindPredicate::CharAngle,std::allocator<FindPredicate::CharAngle> > > >
_TEXT	ENDS
PUBLIC	?MakeMostCloseSortList@FindPredicate@@IAEXABV?$vector@PAVioBaseChar@@V?$allocator@PAVioBaseChar@@@std@@@std@@M@Z ; FindPredicate::MakeMostCloseSortList
; Function compile flags: /Ogsp
; File d:\lost saga for developer\youtube\tutorial\source\src\lsclient\findpredicate.cpp
;	COMDAT ?MakeMostCloseSortList@FindPredicate@@IAEXABV?$vector@PAVioBaseChar@@V?$allocator@PAVioBaseChar@@@std@@@std@@M@Z
_TEXT	SEGMENT
_vOwnerPos$ = -24					; size = 12
_kCharDist$523973 = -12					; size = 8
_this$ = -4						; size = 4
$T530839 = 8						; size = 4
_rkCandidateList$ = 8					; size = 4
_fLimitDistSq$ = 12					; size = 4
?MakeMostCloseSortList@FindPredicate@@IAEXABV?$vector@PAVioBaseChar@@V?$allocator@PAVioBaseChar@@@std@@@std@@M@Z PROC ; FindPredicate::MakeMostCloseSortList, COMDAT
; _this$ = ecx

; 30   : {

  00000	55		 push	 ebp
  00001	8b ec		 mov	 ebp, esp
  00003	83 ec 18	 sub	 esp, 24			; 00000018H
  00006	53		 push	 ebx

; 31   : 	if( rkCandidateList.empty() )

  00007	8b 5d 08	 mov	 ebx, DWORD PTR _rkCandidateList$[ebp]
  0000a	8b 03		 mov	 eax, DWORD PTR [ebx]
  0000c	57		 push	 edi
  0000d	8b f9		 mov	 edi, ecx
  0000f	89 7d fc	 mov	 DWORD PTR _this$[ebp], edi
  00012	3b 43 04	 cmp	 eax, DWORD PTR [ebx+4]
  00015	0f 84 10 01 00
	00		 je	 $LN7@MakeMostCl

; 32   : 		return;
; 33   : 
; 34   : 	m_vDistanceSortList.erase( m_vDistanceSortList.begin(), m_vDistanceSortList.end() );

  0001b	56		 push	 esi
  0001c	ff 35 04 00 00
	00		 push	 DWORD PTR ?m_vDistanceSortList@FindPredicate@@1V?$vector@UCharDistanceSq@FindPredicate@@V?$allocator@UCharDistanceSq@FindPredicate@@@std@@@std@@A+4
  00022	8d 45 08	 lea	 eax, DWORD PTR $T530839[ebp]
  00025	ff 35 00 00 00
	00		 push	 DWORD PTR ?m_vDistanceSortList@FindPredicate@@1V?$vector@UCharDistanceSq@FindPredicate@@V?$allocator@UCharDistanceSq@FindPredicate@@@std@@@std@@A
  0002b	be 00 00 00 00	 mov	 esi, OFFSET ?m_vDistanceSortList@FindPredicate@@1V?$vector@UCharDistanceSq@FindPredicate@@V?$allocator@UCharDistanceSq@FindPredicate@@@std@@@std@@A ; FindPredicate::m_vDistanceSortList
  00030	50		 push	 eax
  00031	8b ce		 mov	 ecx, esi
  00033	e8 00 00 00 00	 call	 ?erase@?$vector@UCharDistanceSq@FindPredicate@@V?$allocator@UCharDistanceSq@FindPredicate@@@std@@@std@@QAE?AV?$_Vector_iterator@V?$_Vector_val@UCharDistanceSq@FindPredicate@@V?$allocator@UCharDistanceSq@FindPredicate@@@std@@@std@@@2@V?$_Vector_const_iterator@V?$_Vector_val@UCharDistanceSq@FindPredicate@@V?$allocator@UCharDistanceSq@FindPredicate@@@std@@@std@@@2@0@Z ; std::vector<FindPredicate::CharDistanceSq,std::allocator<FindPredicate::CharDistanceSq> >::erase

; 35   : 	m_vDistanceSortList.reserve( rkCandidateList.size() );

  00038	8b 43 04	 mov	 eax, DWORD PTR [ebx+4]
  0003b	2b 03		 sub	 eax, DWORD PTR [ebx]
  0003d	8b ce		 mov	 ecx, esi
  0003f	c1 f8 02	 sar	 eax, 2
  00042	50		 push	 eax
  00043	e8 00 00 00 00	 call	 ?reserve@?$vector@UCharDistanceSq@FindPredicate@@V?$allocator@UCharDistanceSq@FindPredicate@@@std@@@std@@QAEXI@Z ; std::vector<FindPredicate::CharDistanceSq,std::allocator<FindPredicate::CharDistanceSq> >::reserve

; 36   : 
; 37   : 	D3DXVECTOR3 vDiff;
; 38   : 	D3DXVECTOR3 vOwnerPos = m_pOwner->GetWorldPosition();

  00048	8b 4f 04	 mov	 ecx, DWORD PTR [edi+4]
  0004b	8b 01		 mov	 eax, DWORD PTR [ecx]
  0004d	ff 50 70	 call	 DWORD PTR [eax+112]
  00050	8b f0		 mov	 esi, eax
  00052	8d 7d e8	 lea	 edi, DWORD PTR _vOwnerPos$[ebp]
  00055	a5		 movsd
  00056	a5		 movsd
  00057	a5		 movsd

; 39   : 
; 40   : 	BaseCharList::const_iterator iter;
; 41   : 	for( iter=rkCandidateList.begin() ; iter!=rkCandidateList.end() ; ++iter )

  00058	8b 33		 mov	 esi, DWORD PTR [ebx]
  0005a	e9 af 00 00 00	 jmp	 $LN79@MakeMostCl
$LL39@MakeMostCl:

; 42   : 	{
; 43   : 		ioBaseChar *pCurChar = *iter;

  0005f	8b 3e		 mov	 edi, DWORD PTR [esi]

; 44   : 		if( pCurChar != m_pOwner )

  00061	8b 45 fc	 mov	 eax, DWORD PTR _this$[ebp]
  00064	3b 78 04	 cmp	 edi, DWORD PTR [eax+4]
  00067	0f 84 9e 00 00
	00		 je	 $LN4@MakeMostCl

; 45   : 		{
; 46   : 			vDiff = pCurChar->GetWorldPosition() - vOwnerPos;

  0006d	8b 07		 mov	 eax, DWORD PTR [edi]
  0006f	8b cf		 mov	 ecx, edi
  00071	ff 50 70	 call	 DWORD PTR [eax+112]
  00074	f3 0f 10 00	 movss	 xmm0, DWORD PTR [eax]
  00078	f3 0f 10 4d e8	 movss	 xmm1, DWORD PTR _vOwnerPos$[ebp]
  0007d	f3 0f 10 55 ec	 movss	 xmm2, DWORD PTR _vOwnerPos$[ebp+4]
  00082	f3 0f 10 5d f0	 movss	 xmm3, DWORD PTR _vOwnerPos$[ebp+8]
  00087	0f 5a c0	 cvtps2pd xmm0, xmm0
  0008a	0f 5a c9	 cvtps2pd xmm1, xmm1
  0008d	f2 0f 5c c1	 subsd	 xmm0, xmm1
  00091	0f 57 c9	 xorps	 xmm1, xmm1
  00094	66 0f 5a c8	 cvtpd2ps xmm1, xmm0
  00098	f3 0f 10 40 04	 movss	 xmm0, DWORD PTR [eax+4]
  0009d	0f 5a d2	 cvtps2pd xmm2, xmm2
  000a0	0f 5a c0	 cvtps2pd xmm0, xmm0
  000a3	f2 0f 5c c2	 subsd	 xmm0, xmm2
  000a7	f3 0f 10 50 08	 movss	 xmm2, DWORD PTR [eax+8]
  000ac	0f 5a d2	 cvtps2pd xmm2, xmm2
  000af	0f 5a db	 cvtps2pd xmm3, xmm3
  000b2	f2 0f 5c d3	 subsd	 xmm2, xmm3
  000b6	66 0f 5a d2	 cvtpd2ps xmm2, xmm2
  000ba	66 0f 5a c0	 cvtpd2ps xmm0, xmm0

; 47   : 			float fCurDistSq = D3DXVec3LengthSq( &vDiff );

  000be	0f 5a c9	 cvtps2pd xmm1, xmm1
  000c1	f3 0f 5a d2	 cvtss2sd xmm2, xmm2
  000c5	f3 0f 5a c0	 cvtss2sd xmm0, xmm0
  000c9	f2 0f 59 c9	 mulsd	 xmm1, xmm1
  000cd	f2 0f 59 d2	 mulsd	 xmm2, xmm2
  000d1	f2 0f 59 c0	 mulsd	 xmm0, xmm0
  000d5	f2 0f 58 c8	 addsd	 xmm1, xmm0
  000d9	f2 0f 58 ca	 addsd	 xmm1, xmm2
  000dd	0f 57 c0	 xorps	 xmm0, xmm0
  000e0	66 0f 5a c1	 cvtpd2ps xmm0, xmm1

; 48   : 
; 49   : 			if( fLimitDistSq >= fCurDistSq )

  000e4	f3 0f 10 4d 0c	 movss	 xmm1, DWORD PTR _fLimitDistSq$[ebp]
  000e9	0f 5a c9	 cvtps2pd xmm1, xmm1
  000ec	0f 5a d0	 cvtps2pd xmm2, xmm0
  000ef	66 0f 2f ca	 comisd	 xmm1, xmm2
  000f3	72 16		 jb	 SHORT $LN4@MakeMostCl

; 50   : 			{
; 51   : 				CharDistanceSq kCharDist;
; 52   : 				kCharDist.pChar = pCurChar;
; 53   : 				kCharDist.fDistanceSq = fCurDistSq;
; 54   : 
; 55   : 				m_vDistanceSortList.push_back( kCharDist );

  000f5	8d 45 f4	 lea	 eax, DWORD PTR _kCharDist$523973[ebp]
  000f8	50		 push	 eax
  000f9	b9 00 00 00 00	 mov	 ecx, OFFSET ?m_vDistanceSortList@FindPredicate@@1V?$vector@UCharDistanceSq@FindPredicate@@V?$allocator@UCharDistanceSq@FindPredicate@@@std@@@std@@A ; FindPredicate::m_vDistanceSortList
  000fe	89 7d f4	 mov	 DWORD PTR _kCharDist$523973[ebp], edi
  00101	f3 0f 11 45 f8	 movss	 DWORD PTR _kCharDist$523973[ebp+4], xmm0
  00106	e8 00 00 00 00	 call	 ?push_back@?$vector@UCharDistanceSq@FindPredicate@@V?$allocator@UCharDistanceSq@FindPredicate@@@std@@@std@@QAEXABUCharDistanceSq@FindPredicate@@@Z ; std::vector<FindPredicate::CharDistanceSq,std::allocator<FindPredicate::CharDistanceSq> >::push_back
$LN4@MakeMostCl:

; 39   : 
; 40   : 	BaseCharList::const_iterator iter;
; 41   : 	for( iter=rkCandidateList.begin() ; iter!=rkCandidateList.end() ; ++iter )

  0010b	83 c6 04	 add	 esi, 4
$LN79@MakeMostCl:
  0010e	3b 73 04	 cmp	 esi, DWORD PTR [ebx+4]
  00111	0f 85 48 ff ff
	ff		 jne	 $LL39@MakeMostCl

; 56   : 			}
; 57   : 		}
; 58   : 	}
; 59   : 
; 60   : 	std::sort( m_vDistanceSortList.begin(), m_vDistanceSortList.end() );

  00117	ff 35 04 00 00
	00		 push	 DWORD PTR ?m_vDistanceSortList@FindPredicate@@1V?$vector@UCharDistanceSq@FindPredicate@@V?$allocator@UCharDistanceSq@FindPredicate@@@std@@@std@@A+4
  0011d	ff 35 00 00 00
	00		 push	 DWORD PTR ?m_vDistanceSortList@FindPredicate@@1V?$vector@UCharDistanceSq@FindPredicate@@V?$allocator@UCharDistanceSq@FindPredicate@@@std@@@std@@A
  00123	e8 00 00 00 00	 call	 ??$sort@V?$_Vector_iterator@V?$_Vector_val@UCharDistanceSq@FindPredicate@@V?$allocator@UCharDistanceSq@FindPredicate@@@std@@@std@@@std@@@std@@YAXV?$_Vector_iterator@V?$_Vector_val@UCharDistanceSq@FindPredicate@@V?$allocator@UCharDistanceSq@FindPredicate@@@std@@@std@@@0@0@Z ; std::sort<std::_Vector_iterator<std::_Vector_val<FindPredicate::CharDistanceSq,std::allocator<FindPredicate::CharDistanceSq> > > >
  00128	59		 pop	 ecx
  00129	59		 pop	 ecx
  0012a	5e		 pop	 esi
$LN7@MakeMostCl:
  0012b	5f		 pop	 edi
  0012c	5b		 pop	 ebx

; 61   : }

  0012d	c9		 leave
  0012e	c2 08 00	 ret	 8
?MakeMostCloseSortList@FindPredicate@@IAEXABV?$vector@PAVioBaseChar@@V?$allocator@PAVioBaseChar@@@std@@@std@@M@Z ENDP ; FindPredicate::MakeMostCloseSortList
_TEXT	ENDS
PUBLIC	?MakeMostCloseSortList@FindPredicate@@IAEXABV?$vector@PAVioBaseChar@@V?$allocator@PAVioBaseChar@@@std@@@std@@MM@Z ; FindPredicate::MakeMostCloseSortList
; Function compile flags: /Ogsp
;	COMDAT ?MakeMostCloseSortList@FindPredicate@@IAEXABV?$vector@PAVioBaseChar@@V?$allocator@PAVioBaseChar@@@std@@@std@@MM@Z
_TEXT	SEGMENT
_vOwnerPos$ = -24					; size = 12
_kCharDist$524006 = -12					; size = 8
_this$ = -4						; size = 4
$T531032 = 8						; size = 4
_rkCandidateList$ = 8					; size = 4
_fMinDistSq$ = 12					; size = 4
_fLimitDistSq$ = 16					; size = 4
?MakeMostCloseSortList@FindPredicate@@IAEXABV?$vector@PAVioBaseChar@@V?$allocator@PAVioBaseChar@@@std@@@std@@MM@Z PROC ; FindPredicate::MakeMostCloseSortList, COMDAT
; _this$ = ecx

; 64   : {

  00000	55		 push	 ebp
  00001	8b ec		 mov	 ebp, esp
  00003	83 ec 18	 sub	 esp, 24			; 00000018H
  00006	53		 push	 ebx

; 65   : 	if( rkCandidateList.empty() )

  00007	8b 5d 08	 mov	 ebx, DWORD PTR _rkCandidateList$[ebp]
  0000a	8b 03		 mov	 eax, DWORD PTR [ebx]
  0000c	57		 push	 edi
  0000d	8b f9		 mov	 edi, ecx
  0000f	89 7d fc	 mov	 DWORD PTR _this$[ebp], edi
  00012	3b 43 04	 cmp	 eax, DWORD PTR [ebx+4]
  00015	0f 84 21 01 00
	00		 je	 $LN7@MakeMostCl@2

; 66   : 		return;
; 67   : 
; 68   : 	m_vDistanceSortList.erase( m_vDistanceSortList.begin(), m_vDistanceSortList.end() );

  0001b	56		 push	 esi
  0001c	ff 35 04 00 00
	00		 push	 DWORD PTR ?m_vDistanceSortList@FindPredicate@@1V?$vector@UCharDistanceSq@FindPredicate@@V?$allocator@UCharDistanceSq@FindPredicate@@@std@@@std@@A+4
  00022	8d 45 08	 lea	 eax, DWORD PTR $T531032[ebp]
  00025	ff 35 00 00 00
	00		 push	 DWORD PTR ?m_vDistanceSortList@FindPredicate@@1V?$vector@UCharDistanceSq@FindPredicate@@V?$allocator@UCharDistanceSq@FindPredicate@@@std@@@std@@A
  0002b	be 00 00 00 00	 mov	 esi, OFFSET ?m_vDistanceSortList@FindPredicate@@1V?$vector@UCharDistanceSq@FindPredicate@@V?$allocator@UCharDistanceSq@FindPredicate@@@std@@@std@@A ; FindPredicate::m_vDistanceSortList
  00030	50		 push	 eax
  00031	8b ce		 mov	 ecx, esi
  00033	e8 00 00 00 00	 call	 ?erase@?$vector@UCharDistanceSq@FindPredicate@@V?$allocator@UCharDistanceSq@FindPredicate@@@std@@@std@@QAE?AV?$_Vector_iterator@V?$_Vector_val@UCharDistanceSq@FindPredicate@@V?$allocator@UCharDistanceSq@FindPredicate@@@std@@@std@@@2@V?$_Vector_const_iterator@V?$_Vector_val@UCharDistanceSq@FindPredicate@@V?$allocator@UCharDistanceSq@FindPredicate@@@std@@@std@@@2@0@Z ; std::vector<FindPredicate::CharDistanceSq,std::allocator<FindPredicate::CharDistanceSq> >::erase

; 69   : 	m_vDistanceSortList.reserve( rkCandidateList.size() );

  00038	8b 43 04	 mov	 eax, DWORD PTR [ebx+4]
  0003b	2b 03		 sub	 eax, DWORD PTR [ebx]
  0003d	8b ce		 mov	 ecx, esi
  0003f	c1 f8 02	 sar	 eax, 2
  00042	50		 push	 eax
  00043	e8 00 00 00 00	 call	 ?reserve@?$vector@UCharDistanceSq@FindPredicate@@V?$allocator@UCharDistanceSq@FindPredicate@@@std@@@std@@QAEXI@Z ; std::vector<FindPredicate::CharDistanceSq,std::allocator<FindPredicate::CharDistanceSq> >::reserve

; 70   : 
; 71   : 	D3DXVECTOR3 vDiff;
; 72   : 	D3DXVECTOR3 vOwnerPos = m_pOwner->GetWorldPosition();

  00048	8b 4f 04	 mov	 ecx, DWORD PTR [edi+4]
  0004b	8b 01		 mov	 eax, DWORD PTR [ecx]
  0004d	ff 50 70	 call	 DWORD PTR [eax+112]
  00050	8b f0		 mov	 esi, eax
  00052	8d 7d e8	 lea	 edi, DWORD PTR _vOwnerPos$[ebp]
  00055	a5		 movsd
  00056	a5		 movsd
  00057	a5		 movsd

; 73   : 
; 74   : 	BaseCharList::const_iterator iter;
; 75   : 	for( iter=rkCandidateList.begin() ; iter!=rkCandidateList.end() ; ++iter )

  00058	8b 33		 mov	 esi, DWORD PTR [ebx]
  0005a	e9 c0 00 00 00	 jmp	 $LN79@MakeMostCl@2
$LL39@MakeMostCl@2:

; 76   : 	{
; 77   : 		ioBaseChar *pCurChar = *iter;

  0005f	8b 3e		 mov	 edi, DWORD PTR [esi]

; 78   : 		if( pCurChar != m_pOwner )

  00061	8b 45 fc	 mov	 eax, DWORD PTR _this$[ebp]
  00064	3b 78 04	 cmp	 edi, DWORD PTR [eax+4]
  00067	0f 84 af 00 00
	00		 je	 $LN4@MakeMostCl@2

; 79   : 		{
; 80   : 			vDiff = pCurChar->GetWorldPosition() - vOwnerPos;

  0006d	8b 07		 mov	 eax, DWORD PTR [edi]
  0006f	8b cf		 mov	 ecx, edi
  00071	ff 50 70	 call	 DWORD PTR [eax+112]
  00074	f3 0f 10 00	 movss	 xmm0, DWORD PTR [eax]
  00078	f3 0f 10 4d e8	 movss	 xmm1, DWORD PTR _vOwnerPos$[ebp]
  0007d	f3 0f 10 55 ec	 movss	 xmm2, DWORD PTR _vOwnerPos$[ebp+4]
  00082	f3 0f 10 5d f0	 movss	 xmm3, DWORD PTR _vOwnerPos$[ebp+8]
  00087	0f 5a c0	 cvtps2pd xmm0, xmm0
  0008a	0f 5a c9	 cvtps2pd xmm1, xmm1
  0008d	f2 0f 5c c1	 subsd	 xmm0, xmm1
  00091	0f 57 c9	 xorps	 xmm1, xmm1
  00094	66 0f 5a c8	 cvtpd2ps xmm1, xmm0
  00098	f3 0f 10 40 04	 movss	 xmm0, DWORD PTR [eax+4]
  0009d	0f 5a d2	 cvtps2pd xmm2, xmm2
  000a0	0f 5a c0	 cvtps2pd xmm0, xmm0
  000a3	f2 0f 5c c2	 subsd	 xmm0, xmm2
  000a7	f3 0f 10 50 08	 movss	 xmm2, DWORD PTR [eax+8]
  000ac	0f 5a d2	 cvtps2pd xmm2, xmm2
  000af	0f 5a db	 cvtps2pd xmm3, xmm3
  000b2	f2 0f 5c d3	 subsd	 xmm2, xmm3
  000b6	66 0f 5a d2	 cvtpd2ps xmm2, xmm2
  000ba	66 0f 5a c0	 cvtpd2ps xmm0, xmm0

; 81   : 			float fCurDistSq = D3DXVec3LengthSq( &vDiff );

  000be	0f 5a c9	 cvtps2pd xmm1, xmm1
  000c1	f3 0f 5a d2	 cvtss2sd xmm2, xmm2
  000c5	f3 0f 5a c0	 cvtss2sd xmm0, xmm0
  000c9	f2 0f 59 c9	 mulsd	 xmm1, xmm1
  000cd	f2 0f 59 d2	 mulsd	 xmm2, xmm2
  000d1	f2 0f 59 c0	 mulsd	 xmm0, xmm0
  000d5	f2 0f 58 c8	 addsd	 xmm1, xmm0
  000d9	f2 0f 58 ca	 addsd	 xmm1, xmm2
  000dd	0f 57 c0	 xorps	 xmm0, xmm0
  000e0	66 0f 5a c1	 cvtpd2ps xmm0, xmm1

; 82   : 
; 83   : 			if( (fLimitDistSq >= fCurDistSq) && (fMinDistSq <= fCurDistSq) )

  000e4	f3 0f 10 4d 10	 movss	 xmm1, DWORD PTR _fLimitDistSq$[ebp]
  000e9	0f 5a c9	 cvtps2pd xmm1, xmm1
  000ec	0f 5a d0	 cvtps2pd xmm2, xmm0
  000ef	66 0f 2f ca	 comisd	 xmm1, xmm2
  000f3	72 27		 jb	 SHORT $LN4@MakeMostCl@2
  000f5	f3 0f 10 4d 0c	 movss	 xmm1, DWORD PTR _fMinDistSq$[ebp]
  000fa	0f 5a c9	 cvtps2pd xmm1, xmm1
  000fd	0f 5a d0	 cvtps2pd xmm2, xmm0
  00100	66 0f 2f d1	 comisd	 xmm2, xmm1
  00104	72 16		 jb	 SHORT $LN4@MakeMostCl@2

; 84   : 			{
; 85   : 				CharDistanceSq kCharDist;
; 86   : 				kCharDist.pChar = pCurChar;
; 87   : 				kCharDist.fDistanceSq = fCurDistSq;
; 88   : 				m_vDistanceSortList.push_back( kCharDist );

  00106	8d 45 f4	 lea	 eax, DWORD PTR _kCharDist$524006[ebp]
  00109	50		 push	 eax
  0010a	b9 00 00 00 00	 mov	 ecx, OFFSET ?m_vDistanceSortList@FindPredicate@@1V?$vector@UCharDistanceSq@FindPredicate@@V?$allocator@UCharDistanceSq@FindPredicate@@@std@@@std@@A ; FindPredicate::m_vDistanceSortList
  0010f	89 7d f4	 mov	 DWORD PTR _kCharDist$524006[ebp], edi
  00112	f3 0f 11 45 f8	 movss	 DWORD PTR _kCharDist$524006[ebp+4], xmm0
  00117	e8 00 00 00 00	 call	 ?push_back@?$vector@UCharDistanceSq@FindPredicate@@V?$allocator@UCharDistanceSq@FindPredicate@@@std@@@std@@QAEXABUCharDistanceSq@FindPredicate@@@Z ; std::vector<FindPredicate::CharDistanceSq,std::allocator<FindPredicate::CharDistanceSq> >::push_back
$LN4@MakeMostCl@2:

; 73   : 
; 74   : 	BaseCharList::const_iterator iter;
; 75   : 	for( iter=rkCandidateList.begin() ; iter!=rkCandidateList.end() ; ++iter )

  0011c	83 c6 04	 add	 esi, 4
$LN79@MakeMostCl@2:
  0011f	3b 73 04	 cmp	 esi, DWORD PTR [ebx+4]
  00122	0f 85 37 ff ff
	ff		 jne	 $LL39@MakeMostCl@2

; 89   : 			}
; 90   : 		}
; 91   : 	}
; 92   : 
; 93   : 	std::sort( m_vDistanceSortList.begin(), m_vDistanceSortList.end() );

  00128	ff 35 04 00 00
	00		 push	 DWORD PTR ?m_vDistanceSortList@FindPredicate@@1V?$vector@UCharDistanceSq@FindPredicate@@V?$allocator@UCharDistanceSq@FindPredicate@@@std@@@std@@A+4
  0012e	ff 35 00 00 00
	00		 push	 DWORD PTR ?m_vDistanceSortList@FindPredicate@@1V?$vector@UCharDistanceSq@FindPredicate@@V?$allocator@UCharDistanceSq@FindPredicate@@@std@@@std@@A
  00134	e8 00 00 00 00	 call	 ??$sort@V?$_Vector_iterator@V?$_Vector_val@UCharDistanceSq@FindPredicate@@V?$allocator@UCharDistanceSq@FindPredicate@@@std@@@std@@@std@@@std@@YAXV?$_Vector_iterator@V?$_Vector_val@UCharDistanceSq@FindPredicate@@V?$allocator@UCharDistanceSq@FindPredicate@@@std@@@std@@@0@0@Z ; std::sort<std::_Vector_iterator<std::_Vector_val<FindPredicate::CharDistanceSq,std::allocator<FindPredicate::CharDistanceSq> > > >
  00139	59		 pop	 ecx
  0013a	59		 pop	 ecx
  0013b	5e		 pop	 esi
$LN7@MakeMostCl@2:
  0013c	5f		 pop	 edi
  0013d	5b		 pop	 ebx

; 94   : }

  0013e	c9		 leave
  0013f	c2 0c 00	 ret	 12			; 0000000cH
?MakeMostCloseSortList@FindPredicate@@IAEXABV?$vector@PAVioBaseChar@@V?$allocator@PAVioBaseChar@@@std@@@std@@MM@Z ENDP ; FindPredicate::MakeMostCloseSortList
_TEXT	ENDS
PUBLIC	__real@bff0000000000000
PUBLIC	_this$GSCopy$
PUBLIC	__$ArrayPad$
PUBLIC	?MakeSmallestAngleSortList@FindPredicate@@IAEXABV?$vector@PAVioBaseChar@@V?$allocator@PAVioBaseChar@@@std@@@std@@MM@Z ; FindPredicate::MakeSmallestAngleSortList
EXTRN	_D3DXVec3Normalize@8:PROC
EXTRN	___security_cookie:DWORD
;	COMDAT __real@bff0000000000000
; File c:\program files (x86)\microsoft visual studio 10.0\vc\include\xutility
CONST	SEGMENT
__real@bff0000000000000 DQ 0bff0000000000000r	; -1
; Function compile flags: /Ogsp
; File d:\lost saga for developer\youtube\tutorial\source\src\lsclient\findpredicate.cpp
CONST	ENDS
;	COMDAT ?MakeSmallestAngleSortList@FindPredicate@@IAEXABV?$vector@PAVioBaseChar@@V?$allocator@PAVioBaseChar@@@std@@@std@@MM@Z
_TEXT	SEGMENT
_vCharDir$ = -72					; size = 12
_vOwnerPos$ = -60					; size = 12
$T524158 = -48						; size = 12
_kCharAngle$524163 = -36				; size = 8
_pCurChar$524156 = -28					; size = 4
$T531225 = -28						; size = 4
_this$GSCopy$ = -24					; size = 4
_iter$ = -20						; size = 4
_vDiff$ = -16						; size = 12
__$ArrayPad$ = -4					; size = 4
_rkCandidateList$ = 8					; size = 4
_fLimitDistSq$ = 12					; size = 4
_fMaxHalfCosine$ = 16					; size = 4
?MakeSmallestAngleSortList@FindPredicate@@IAEXABV?$vector@PAVioBaseChar@@V?$allocator@PAVioBaseChar@@@std@@@std@@MM@Z PROC ; FindPredicate::MakeSmallestAngleSortList, COMDAT
; _this$ = ecx

; 97   : {

  00000	55		 push	 ebp
  00001	8b ec		 mov	 ebp, esp
  00003	83 ec 48	 sub	 esp, 72			; 00000048H
  00006	a1 00 00 00 00	 mov	 eax, DWORD PTR ___security_cookie
  0000b	33 c5		 xor	 eax, ebp
  0000d	89 45 fc	 mov	 DWORD PTR __$ArrayPad$[ebp], eax
  00010	53		 push	 ebx
  00011	8b 5d 08	 mov	 ebx, DWORD PTR _rkCandidateList$[ebp]

; 98   : 	if( rkCandidateList.empty() )

  00014	8b 03		 mov	 eax, DWORD PTR [ebx]
  00016	57		 push	 edi
  00017	8b f9		 mov	 edi, ecx

; 107  : 
; 108  : 	BaseCharList::const_iterator iter;
; 109  : 	for( iter=rkCandidateList.begin() ; iter!=rkCandidateList.end() ; ++iter )

  00019	89 7d e8	 mov	 DWORD PTR _this$GSCopy$[ebp], edi
  0001c	3b 43 04	 cmp	 eax, DWORD PTR [ebx+4]
  0001f	0f 84 c5 01 00
	00		 je	 $LN8@MakeSmalle

; 99   : 		return;
; 100  : 
; 101  : 	m_vAngleSortList.erase( m_vAngleSortList.begin(), m_vAngleSortList.end() );

  00025	56		 push	 esi
  00026	ff 35 04 00 00
	00		 push	 DWORD PTR ?m_vAngleSortList@FindPredicate@@1V?$vector@UCharAngle@FindPredicate@@V?$allocator@UCharAngle@FindPredicate@@@std@@@std@@A+4
  0002c	8d 45 e4	 lea	 eax, DWORD PTR $T531225[ebp]
  0002f	ff 35 00 00 00
	00		 push	 DWORD PTR ?m_vAngleSortList@FindPredicate@@1V?$vector@UCharAngle@FindPredicate@@V?$allocator@UCharAngle@FindPredicate@@@std@@@std@@A
  00035	be 00 00 00 00	 mov	 esi, OFFSET ?m_vAngleSortList@FindPredicate@@1V?$vector@UCharAngle@FindPredicate@@V?$allocator@UCharAngle@FindPredicate@@@std@@@std@@A ; FindPredicate::m_vAngleSortList
  0003a	50		 push	 eax
  0003b	8b ce		 mov	 ecx, esi
  0003d	e8 00 00 00 00	 call	 ?erase@?$vector@UCharAngle@FindPredicate@@V?$allocator@UCharAngle@FindPredicate@@@std@@@std@@QAE?AV?$_Vector_iterator@V?$_Vector_val@UCharAngle@FindPredicate@@V?$allocator@UCharAngle@FindPredicate@@@std@@@std@@@2@V?$_Vector_const_iterator@V?$_Vector_val@UCharAngle@FindPredicate@@V?$allocator@UCharAngle@FindPredicate@@@std@@@std@@@2@0@Z ; std::vector<FindPredicate::CharAngle,std::allocator<FindPredicate::CharAngle> >::erase

; 102  : 	m_vAngleSortList.reserve( rkCandidateList.size() );

  00042	8b 43 04	 mov	 eax, DWORD PTR [ebx+4]
  00045	2b 03		 sub	 eax, DWORD PTR [ebx]
  00047	8b ce		 mov	 ecx, esi
  00049	c1 f8 02	 sar	 eax, 2
  0004c	50		 push	 eax
  0004d	e8 00 00 00 00	 call	 ?reserve@?$vector@UCharAngle@FindPredicate@@V?$allocator@UCharAngle@FindPredicate@@@std@@@std@@QAEXI@Z ; std::vector<FindPredicate::CharAngle,std::allocator<FindPredicate::CharAngle> >::reserve

; 103  : 
; 104  : 	D3DXVECTOR3 vDiff;
; 105  : 	D3DXVECTOR3 vOwnerPos = m_pOwner->GetWorldPosition();

  00052	8b 4f 04	 mov	 ecx, DWORD PTR [edi+4]
  00055	8b 01		 mov	 eax, DWORD PTR [ecx]
  00057	ff 50 70	 call	 DWORD PTR [eax+112]
  0005a	8b f0		 mov	 esi, eax

; 106  : 	D3DXVECTOR3 vCharDir  = m_pOwner->GetMoveDir();

  0005c	8b 45 e8	 mov	 eax, DWORD PTR _this$GSCopy$[ebp]
  0005f	8d 7d c4	 lea	 edi, DWORD PTR _vOwnerPos$[ebp]
  00062	a5		 movsd
  00063	a5		 movsd
  00064	a5		 movsd
  00065	8b 70 04	 mov	 esi, DWORD PTR [eax+4]

; 107  : 
; 108  : 	BaseCharList::const_iterator iter;
; 109  : 	for( iter=rkCandidateList.begin() ; iter!=rkCandidateList.end() ; ++iter )

  00068	8b 03		 mov	 eax, DWORD PTR [ebx]
  0006a	81 c6 b4 06 00
	00		 add	 esi, 1716		; 000006b4H
  00070	8d 7d b8	 lea	 edi, DWORD PTR _vCharDir$[ebp]
  00073	a5		 movsd
  00074	a5		 movsd
  00075	a5		 movsd
  00076	e9 4f 01 00 00	 jmp	 $LN86@MakeSmalle
$LL85@MakeSmalle:

; 110  : 	{
; 111  : 		ioBaseChar *pCurChar = *iter;

  0007b	8b 08		 mov	 ecx, DWORD PTR [eax]

; 112  : 		if( pCurChar != m_pOwner )

  0007d	8b 55 e8	 mov	 edx, DWORD PTR _this$GSCopy$[ebp]
  00080	89 4d e4	 mov	 DWORD PTR _pCurChar$524156[ebp], ecx
  00083	3b 4a 04	 cmp	 ecx, DWORD PTR [edx+4]
  00086	0f 84 3b 01 00
	00		 je	 $LN5@MakeSmalle

; 113  : 		{
; 114  : 			vDiff = pCurChar->GetWorldPosition() - vOwnerPos;

  0008c	8b 01		 mov	 eax, DWORD PTR [ecx]
  0008e	ff 50 70	 call	 DWORD PTR [eax+112]
  00091	f3 0f 10 00	 movss	 xmm0, DWORD PTR [eax]
  00095	f3 0f 10 4d c4	 movss	 xmm1, DWORD PTR _vOwnerPos$[ebp]
  0009a	f3 0f 10 55 c8	 movss	 xmm2, DWORD PTR _vOwnerPos$[ebp+4]
  0009f	f3 0f 10 5d cc	 movss	 xmm3, DWORD PTR _vOwnerPos$[ebp+8]
  000a4	0f 5a c9	 cvtps2pd xmm1, xmm1
  000a7	0f 5a c0	 cvtps2pd xmm0, xmm0
  000aa	f2 0f 5c c1	 subsd	 xmm0, xmm1
  000ae	f3 0f 10 48 04	 movss	 xmm1, DWORD PTR [eax+4]
  000b3	0f 5a d2	 cvtps2pd xmm2, xmm2
  000b6	0f 5a c9	 cvtps2pd xmm1, xmm1
  000b9	f2 0f 5c ca	 subsd	 xmm1, xmm2
  000bd	f3 0f 10 50 08	 movss	 xmm2, DWORD PTR [eax+8]
  000c2	66 0f 5a c0	 cvtpd2ps xmm0, xmm0
  000c6	f3 0f 11 45 d0	 movss	 DWORD PTR $T524158[ebp], xmm0
  000cb	0f 5a d2	 cvtps2pd xmm2, xmm2
  000ce	66 0f 5a c9	 cvtpd2ps xmm1, xmm1
  000d2	f3 0f 11 4d d4	 movss	 DWORD PTR $T524158[ebp+4], xmm1
  000d7	0f 5a db	 cvtps2pd xmm3, xmm3
  000da	f2 0f 5c d3	 subsd	 xmm2, xmm3

; 115  : 			float fCurDistSq = D3DXVec3LengthSq( &vDiff );
; 116  : 			if( fLimitDistSq < fCurDistSq ) continue;

  000de	f3 0f 10 5d 0c	 movss	 xmm3, DWORD PTR _fLimitDistSq$[ebp]
  000e3	66 0f 5a d2	 cvtpd2ps xmm2, xmm2
  000e7	f3 0f 11 55 d8	 movss	 DWORD PTR $T524158[ebp+8], xmm2
  000ec	8d 75 d0	 lea	 esi, DWORD PTR $T524158[ebp]
  000ef	8d 7d f0	 lea	 edi, DWORD PTR _vDiff$[ebp]
  000f2	a5		 movsd
  000f3	f3 0f 5a c0	 cvtss2sd xmm0, xmm0
  000f7	f3 0f 5a c9	 cvtss2sd xmm1, xmm1
  000fb	f2 0f 59 c0	 mulsd	 xmm0, xmm0
  000ff	f2 0f 59 c9	 mulsd	 xmm1, xmm1
  00103	f2 0f 58 c8	 addsd	 xmm1, xmm0
  00107	f3 0f 5a d2	 cvtss2sd xmm2, xmm2
  0010b	a5		 movsd
  0010c	f2 0f 59 d2	 mulsd	 xmm2, xmm2
  00110	0f 57 c0	 xorps	 xmm0, xmm0
  00113	f2 0f 58 ca	 addsd	 xmm1, xmm2
  00117	66 0f 5a c1	 cvtpd2ps xmm0, xmm1
  0011b	0f 5a db	 cvtps2pd xmm3, xmm3
  0011e	0f 5a c0	 cvtps2pd xmm0, xmm0
  00121	66 0f 2f c3	 comisd	 xmm0, xmm3
  00125	a5		 movsd
  00126	0f 87 98 00 00
	00		 ja	 $LN84@MakeSmalle

; 117  : 
; 118  : 			vDiff.y = 0.0f;

  0012c	0f 57 c0	 xorps	 xmm0, xmm0

; 119  : 			D3DXVec3Normalize( &vDiff, &vDiff );

  0012f	8d 45 f0	 lea	 eax, DWORD PTR _vDiff$[ebp]
  00132	50		 push	 eax
  00133	50		 push	 eax
  00134	f3 0f 11 45 f4	 movss	 DWORD PTR _vDiff$[ebp+4], xmm0
  00139	e8 00 00 00 00	 call	 _D3DXVec3Normalize@8

; 120  : 			float fHalfCosine = D3DXVec3Dot( &vCharDir, &vDiff );

  0013e	f3 0f 10 4d f0	 movss	 xmm1, DWORD PTR _vDiff$[ebp]
  00143	f3 0f 10 45 b8	 movss	 xmm0, DWORD PTR _vCharDir$[ebp]
  00148	f3 0f 10 55 f4	 movss	 xmm2, DWORD PTR _vDiff$[ebp+4]
  0014d	0f 5a c9	 cvtps2pd xmm1, xmm1
  00150	0f 5a c0	 cvtps2pd xmm0, xmm0
  00153	f2 0f 59 c1	 mulsd	 xmm0, xmm1
  00157	f3 0f 10 4d bc	 movss	 xmm1, DWORD PTR _vCharDir$[ebp+4]
  0015c	0f 5a c9	 cvtps2pd xmm1, xmm1
  0015f	0f 5a d2	 cvtps2pd xmm2, xmm2
  00162	f2 0f 59 ca	 mulsd	 xmm1, xmm2
  00166	f3 0f 10 55 c0	 movss	 xmm2, DWORD PTR _vCharDir$[ebp+8]
  0016b	f2 0f 58 c1	 addsd	 xmm0, xmm1
  0016f	f3 0f 10 4d f8	 movss	 xmm1, DWORD PTR _vDiff$[ebp+8]
  00174	0f 5a c9	 cvtps2pd xmm1, xmm1
  00177	0f 5a d2	 cvtps2pd xmm2, xmm2
  0017a	f2 0f 59 ca	 mulsd	 xmm1, xmm2

; 121  : 
; 122  : 			if( fHalfCosine >= fMaxHalfCosine )

  0017e	f3 0f 10 55 10	 movss	 xmm2, DWORD PTR _fMaxHalfCosine$[ebp]
  00183	f2 0f 58 c1	 addsd	 xmm0, xmm1
  00187	f2 0f 5a c0	 cvtsd2ss xmm0, xmm0
  0018b	0f 57 c9	 xorps	 xmm1, xmm1
  0018e	f3 0f 5a c8	 cvtss2sd xmm1, xmm0
  00192	0f 5a d2	 cvtps2pd xmm2, xmm2
  00195	66 0f 2f ca	 comisd	 xmm1, xmm2
  00199	72 29		 jb	 SHORT $LN84@MakeSmalle

; 123  : 			{
; 124  : 				CharAngle kCharAngle;
; 125  : 				kCharAngle.pChar = pCurChar;

  0019b	8b 45 e4	 mov	 eax, DWORD PTR _pCurChar$524156[ebp]
  0019e	89 45 dc	 mov	 DWORD PTR _kCharAngle$524163[ebp], eax

; 126  : 				kCharAngle.fHalfCosine = fHalfCosine * -1;

  001a1	f3 0f 5a c0	 cvtss2sd xmm0, xmm0
  001a5	f2 0f 59 05 00
	00 00 00	 mulsd	 xmm0, QWORD PTR __real@bff0000000000000

; 127  : 				m_vAngleSortList.push_back( kCharAngle );

  001ad	8d 45 dc	 lea	 eax, DWORD PTR _kCharAngle$524163[ebp]
  001b0	f2 0f 5a c0	 cvtsd2ss xmm0, xmm0
  001b4	50		 push	 eax
  001b5	b9 00 00 00 00	 mov	 ecx, OFFSET ?m_vAngleSortList@FindPredicate@@1V?$vector@UCharAngle@FindPredicate@@V?$allocator@UCharAngle@FindPredicate@@@std@@@std@@A ; FindPredicate::m_vAngleSortList
  001ba	f3 0f 11 45 e0	 movss	 DWORD PTR _kCharAngle$524163[ebp+4], xmm0
  001bf	e8 00 00 00 00	 call	 ?push_back@?$vector@UCharAngle@FindPredicate@@V?$allocator@UCharAngle@FindPredicate@@@std@@@std@@QAEXABUCharAngle@FindPredicate@@@Z ; std::vector<FindPredicate::CharAngle,std::allocator<FindPredicate::CharAngle> >::push_back
$LN84@MakeSmalle:
  001c4	8b 45 ec	 mov	 eax, DWORD PTR _iter$[ebp]
$LN5@MakeSmalle:

; 107  : 
; 108  : 	BaseCharList::const_iterator iter;
; 109  : 	for( iter=rkCandidateList.begin() ; iter!=rkCandidateList.end() ; ++iter )

  001c7	83 c0 04	 add	 eax, 4
$LN86@MakeSmalle:
  001ca	89 45 ec	 mov	 DWORD PTR _iter$[ebp], eax
  001cd	3b 43 04	 cmp	 eax, DWORD PTR [ebx+4]
  001d0	0f 85 a5 fe ff
	ff		 jne	 $LL85@MakeSmalle

; 128  : 			}
; 129  : 		}
; 130  : 	}
; 131  : 
; 132  : 	std::sort( m_vAngleSortList.begin(), m_vAngleSortList.end() );

  001d6	ff 35 04 00 00
	00		 push	 DWORD PTR ?m_vAngleSortList@FindPredicate@@1V?$vector@UCharAngle@FindPredicate@@V?$allocator@UCharAngle@FindPredicate@@@std@@@std@@A+4
  001dc	ff 35 00 00 00
	00		 push	 DWORD PTR ?m_vAngleSortList@FindPredicate@@1V?$vector@UCharAngle@FindPredicate@@V?$allocator@UCharAngle@FindPredicate@@@std@@@std@@A
  001e2	e8 00 00 00 00	 call	 ??$sort@V?$_Vector_iterator@V?$_Vector_val@UCharAngle@FindPredicate@@V?$allocator@UCharAngle@FindPredicate@@@std@@@std@@@std@@@std@@YAXV?$_Vector_iterator@V?$_Vector_val@UCharAngle@FindPredicate@@V?$allocator@UCharAngle@FindPredicate@@@std@@@std@@@0@0@Z ; std::sort<std::_Vector_iterator<std::_Vector_val<FindPredicate::CharAngle,std::allocator<FindPredicate::CharAngle> > > >
  001e7	59		 pop	 ecx
  001e8	59		 pop	 ecx
  001e9	5e		 pop	 esi
$LN8@MakeSmalle:

; 133  : }

  001ea	8b 4d fc	 mov	 ecx, DWORD PTR __$ArrayPad$[ebp]
  001ed	5f		 pop	 edi
  001ee	33 cd		 xor	 ecx, ebp
  001f0	5b		 pop	 ebx
  001f1	e8 00 00 00 00	 call	 @__security_check_cookie@4
  001f6	c9		 leave
  001f7	c2 0c 00	 ret	 12			; 0000000cH
?MakeSmallestAngleSortList@FindPredicate@@IAEXABV?$vector@PAVioBaseChar@@V?$allocator@PAVioBaseChar@@@std@@@std@@MM@Z ENDP ; FindPredicate::MakeSmallestAngleSortList
_TEXT	ENDS
EXTRN	_atexit:PROC
; Function compile flags: /Ogsp
;	COMDAT ??__E?m_vDistanceSortList@FindPredicate@@1V?$vector@UCharDistanceSq@FindPredicate@@V?$allocator@UCharDistanceSq@FindPredicate@@@std@@@std@@A@@YAXXZ
text$yc	SEGMENT
??__E?m_vDistanceSortList@FindPredicate@@1V?$vector@UCharDistanceSq@FindPredicate@@V?$allocator@UCharDistanceSq@FindPredicate@@@std@@@std@@A@@YAXXZ PROC ; `dynamic initializer for 'FindPredicate::m_vDistanceSortList'', COMDAT

; 9    : FindPredicate::CharDistanceList FindPredicate::m_vDistanceSortList;

  00000	68 00 00 00 00	 push	 OFFSET ??__F?m_vDistanceSortList@FindPredicate@@1V?$vector@UCharDistanceSq@FindPredicate@@V?$allocator@UCharDistanceSq@FindPredicate@@@std@@@std@@A@@YAXXZ ; `dynamic atexit destructor for 'FindPredicate::m_vDistanceSortList''
  00005	e8 00 00 00 00	 call	 _atexit
  0000a	59		 pop	 ecx
  0000b	c3		 ret	 0
??__E?m_vDistanceSortList@FindPredicate@@1V?$vector@UCharDistanceSq@FindPredicate@@V?$allocator@UCharDistanceSq@FindPredicate@@@std@@@std@@A@@YAXXZ ENDP ; `dynamic initializer for 'FindPredicate::m_vDistanceSortList''
; Function compile flags: /Ogsp
text$yc	ENDS
;	COMDAT ??__E?m_vAngleSortList@FindPredicate@@1V?$vector@UCharAngle@FindPredicate@@V?$allocator@UCharAngle@FindPredicate@@@std@@@std@@A@@YAXXZ
text$yc	SEGMENT
??__E?m_vAngleSortList@FindPredicate@@1V?$vector@UCharAngle@FindPredicate@@V?$allocator@UCharAngle@FindPredicate@@@std@@@std@@A@@YAXXZ PROC ; `dynamic initializer for 'FindPredicate::m_vAngleSortList'', COMDAT

; 10   : FindPredicate::CharAngleSortList FindPredicate::m_vAngleSortList;

  00000	68 00 00 00 00	 push	 OFFSET ??__F?m_vAngleSortList@FindPredicate@@1V?$vector@UCharAngle@FindPredicate@@V?$allocator@UCharAngle@FindPredicate@@@std@@@std@@A@@YAXXZ ; `dynamic atexit destructor for 'FindPredicate::m_vAngleSortList''
  00005	e8 00 00 00 00	 call	 _atexit
  0000a	59		 pop	 ecx
  0000b	c3		 ret	 0
??__E?m_vAngleSortList@FindPredicate@@1V?$vector@UCharAngle@FindPredicate@@V?$allocator@UCharAngle@FindPredicate@@@std@@@std@@A@@YAXXZ ENDP ; `dynamic initializer for 'FindPredicate::m_vAngleSortList''
; Function compile flags: /Ogsp
text$yc	ENDS
;	COMDAT ??__F?m_vDistanceSortList@FindPredicate@@1V?$vector@UCharDistanceSq@FindPredicate@@V?$allocator@UCharDistanceSq@FindPredicate@@@std@@@std@@A@@YAXXZ
text$yd	SEGMENT
??__F?m_vDistanceSortList@FindPredicate@@1V?$vector@UCharDistanceSq@FindPredicate@@V?$allocator@UCharDistanceSq@FindPredicate@@@std@@@std@@A@@YAXXZ PROC ; `dynamic atexit destructor for 'FindPredicate::m_vDistanceSortList'', COMDAT
  00000	b9 00 00 00 00	 mov	 ecx, OFFSET ?m_vDistanceSortList@FindPredicate@@1V?$vector@UCharDistanceSq@FindPredicate@@V?$allocator@UCharDistanceSq@FindPredicate@@@std@@@std@@A ; FindPredicate::m_vDistanceSortList
  00005	e9 00 00 00 00	 jmp	 ?_Tidy@?$vector@UCharDistanceSq@FindPredicate@@V?$allocator@UCharDistanceSq@FindPredicate@@@std@@@std@@IAEXXZ ; std::vector<FindPredicate::CharDistanceSq,std::allocator<FindPredicate::CharDistanceSq> >::_Tidy
??__F?m_vDistanceSortList@FindPredicate@@1V?$vector@UCharDistanceSq@FindPredicate@@V?$allocator@UCharDistanceSq@FindPredicate@@@std@@@std@@A@@YAXXZ ENDP ; `dynamic atexit destructor for 'FindPredicate::m_vDistanceSortList''
; Function compile flags: /Ogsp
text$yd	ENDS
;	COMDAT ??__F?m_vAngleSortList@FindPredicate@@1V?$vector@UCharAngle@FindPredicate@@V?$allocator@UCharAngle@FindPredicate@@@std@@@std@@A@@YAXXZ
text$yd	SEGMENT
??__F?m_vAngleSortList@FindPredicate@@1V?$vector@UCharAngle@FindPredicate@@V?$allocator@UCharAngle@FindPredicate@@@std@@@std@@A@@YAXXZ PROC ; `dynamic atexit destructor for 'FindPredicate::m_vAngleSortList'', COMDAT
  00000	b9 00 00 00 00	 mov	 ecx, OFFSET ?m_vAngleSortList@FindPredicate@@1V?$vector@UCharAngle@FindPredicate@@V?$allocator@UCharAngle@FindPredicate@@@std@@@std@@A ; FindPredicate::m_vAngleSortList
  00005	e9 00 00 00 00	 jmp	 ?_Tidy@?$vector@UCharAngle@FindPredicate@@V?$allocator@UCharAngle@FindPredicate@@@std@@@std@@IAEXXZ ; std::vector<FindPredicate::CharAngle,std::allocator<FindPredicate::CharAngle> >::_Tidy
??__F?m_vAngleSortList@FindPredicate@@1V?$vector@UCharAngle@FindPredicate@@V?$allocator@UCharAngle@FindPredicate@@@std@@@std@@A@@YAXXZ ENDP ; `dynamic atexit destructor for 'FindPredicate::m_vAngleSortList''
text$yd	ENDS
PUBLIC	?m_vAngleSortList@FindPredicate@@1V?$vector@UCharAngle@FindPredicate@@V?$allocator@UCharAngle@FindPredicate@@@std@@@std@@A ; FindPredicate::m_vAngleSortList
PUBLIC	?m_vDistanceSortList@FindPredicate@@1V?$vector@UCharDistanceSq@FindPredicate@@V?$allocator@UCharDistanceSq@FindPredicate@@@std@@@std@@A ; FindPredicate::m_vDistanceSortList
_BSS	SEGMENT
?m_vAngleSortList@FindPredicate@@1V?$vector@UCharAngle@FindPredicate@@V?$allocator@UCharAngle@FindPredicate@@@std@@@std@@A DB 010H DUP (?) ; FindPredicate::m_vAngleSortList
?m_vDistanceSortList@FindPredicate@@1V?$vector@UCharDistanceSq@FindPredicate@@V?$allocator@UCharDistanceSq@FindPredicate@@@std@@@std@@A DB 010H DUP (?) ; FindPredicate::m_vDistanceSortList
_BSS	ENDS
CRT$XCU	SEGMENT
?m_vDistanceSortList$initializer$@FindPredicate@@1P6AXXZA DD FLAT:??__E?m_vDistanceSortList@FindPredicate@@1V?$vector@UCharDistanceSq@FindPredicate@@V?$allocator@UCharDistanceSq@FindPredicate@@@std@@@std@@A@@YAXXZ ; FindPredicate::m_vDistanceSortList$initializer$
?m_vAngleSortList$initializer$@FindPredicate@@1P6AXXZA DD FLAT:??__E?m_vAngleSortList@FindPredicate@@1V?$vector@UCharAngle@FindPredicate@@V?$allocator@UCharAngle@FindPredicate@@@std@@@std@@A@@YAXXZ ; FindPredicate::m_vAngleSortList$initializer$
CRT$XCU	ENDS
END
