; Listing generated by Microsoft (R) Optimizing Compiler Version 16.00.30319.01 

	TITLE	D:\Lost Saga For Developer\Youtube\Tutorial\Source\src\LSClient\GUI\FSMStateMgr.cpp
	.686P
	.XMM
	include listing.inc
	.model	flat

INCLUDELIB MSVCRT
INCLUDELIB OLDNAMES

PUBLIC	?size@?$vector@PAVFSMState@@V?$allocator@PAVFSMState@@@std@@@std@@QBEIXZ ; std::vector<FSMState *,std::allocator<FSMState *> >::size
; Function compile flags: /Ogsp
; File c:\program files (x86)\microsoft visual studio 10.0\vc\include\vector
;	COMDAT ?size@?$vector@PAVFSMState@@V?$allocator@PAVFSMState@@@std@@@std@@QBEIXZ
_TEXT	SEGMENT
?size@?$vector@PAVFSMState@@V?$allocator@PAVFSMState@@@std@@@std@@QBEIXZ PROC ; std::vector<FSMState *,std::allocator<FSMState *> >::size, COMDAT
; _this$ = ecx

; 879  : 		return (this->_Mylast - this->_Myfirst);

  00000	8b 41 04	 mov	 eax, DWORD PTR [ecx+4]
  00003	2b 01		 sub	 eax, DWORD PTR [ecx]
  00005	c1 f8 02	 sar	 eax, 2

; 880  : 		}

  00008	c3		 ret	 0
?size@?$vector@PAVFSMState@@V?$allocator@PAVFSMState@@@std@@@std@@QBEIXZ ENDP ; std::vector<FSMState *,std::allocator<FSMState *> >::size
_TEXT	ENDS
PUBLIC	??A?$vector@PAVFSMState@@V?$allocator@PAVFSMState@@@std@@@std@@QAEAAPAVFSMState@@I@Z ; std::vector<FSMState *,std::allocator<FSMState *> >::operator[]
; Function compile flags: /Ogsp
;	COMDAT ??A?$vector@PAVFSMState@@V?$allocator@PAVFSMState@@@std@@@std@@QAEAAPAVFSMState@@I@Z
_TEXT	SEGMENT
__Pos$ = 8						; size = 4
??A?$vector@PAVFSMState@@V?$allocator@PAVFSMState@@@std@@@std@@QAEAAPAVFSMState@@I@Z PROC ; std::vector<FSMState *,std::allocator<FSMState *> >::operator[], COMDAT
; _this$ = ecx

; 928  : 		{	// subscript mutable sequence

  00000	55		 push	 ebp
  00001	8b ec		 mov	 ebp, esp

; 929  :  #if _ITERATOR_DEBUG_LEVEL == 2
; 930  : 		if (size() <= _Pos)
; 931  : 			{	// report error
; 932  : 			_DEBUG_ERROR("vector subscript out of range");
; 933  : 			_SCL_SECURE_OUT_OF_RANGE;
; 934  : 			}
; 935  : 
; 936  :  #elif _ITERATOR_DEBUG_LEVEL == 1
; 937  : 		_SCL_SECURE_VALIDATE_RANGE(_Pos < size());
; 938  :  #endif /* _ITERATOR_DEBUG_LEVEL */
; 939  : 
; 940  : 		return (*(this->_Myfirst + _Pos));

  00003	8b 01		 mov	 eax, DWORD PTR [ecx]
  00005	8b 4d 08	 mov	 ecx, DWORD PTR __Pos$[ebp]
  00008	8d 04 88	 lea	 eax, DWORD PTR [eax+ecx*4]

; 941  : 		}

  0000b	5d		 pop	 ebp
  0000c	c2 04 00	 ret	 4
??A?$vector@PAVFSMState@@V?$allocator@PAVFSMState@@@std@@@std@@QAEAAPAVFSMState@@I@Z ENDP ; std::vector<FSMState *,std::allocator<FSMState *> >::operator[]
_TEXT	ENDS
PUBLIC	?_Inside@?$vector@HV?$allocator@H@std@@@std@@IBE_NPBH@Z ; std::vector<int,std::allocator<int> >::_Inside
; Function compile flags: /Ogsp
;	COMDAT ?_Inside@?$vector@HV?$allocator@H@std@@@std@@IBE_NPBH@Z
_TEXT	SEGMENT
__Ptr$ = 8						; size = 4
?_Inside@?$vector@HV?$allocator@H@std@@@std@@IBE_NPBH@Z PROC ; std::vector<int,std::allocator<int> >::_Inside, COMDAT
; _this$ = ecx

; 1285 : 		{	// test if _Ptr points inside vector

  00000	55		 push	 ebp
  00001	8b ec		 mov	 ebp, esp

; 1286 : 		return (_Ptr < this->_Mylast && this->_Myfirst <= _Ptr);

  00003	8b 45 08	 mov	 eax, DWORD PTR __Ptr$[ebp]
  00006	3b 41 04	 cmp	 eax, DWORD PTR [ecx+4]
  00009	73 09		 jae	 SHORT $LN3@Inside
  0000b	39 01		 cmp	 DWORD PTR [ecx], eax
  0000d	77 05		 ja	 SHORT $LN3@Inside
  0000f	33 c0		 xor	 eax, eax
  00011	40		 inc	 eax
  00012	eb 02		 jmp	 SHORT $LN4@Inside
$LN3@Inside:
  00014	33 c0		 xor	 eax, eax
$LN4@Inside:

; 1287 : 		}

  00016	5d		 pop	 ebp
  00017	c2 04 00	 ret	 4
?_Inside@?$vector@HV?$allocator@H@std@@@std@@IBE_NPBH@Z ENDP ; std::vector<int,std::allocator<int> >::_Inside
_TEXT	ENDS
PUBLIC	?_Orphan_range@?$vector@HV?$allocator@H@std@@@std@@IBEXPAH0@Z ; std::vector<int,std::allocator<int> >::_Orphan_range
; Function compile flags: /Ogsp
;	COMDAT ?_Orphan_range@?$vector@HV?$allocator@H@std@@@std@@IBEXPAH0@Z
_TEXT	SEGMENT
___formal$ = 8						; size = 4
___formal$ = 12						; size = 4
?_Orphan_range@?$vector@HV?$allocator@H@std@@@std@@IBEXPAH0@Z PROC ; std::vector<int,std::allocator<int> >::_Orphan_range, COMDAT
; _this$ = ecx

; 1454 : 		}

  00000	c2 08 00	 ret	 8
?_Orphan_range@?$vector@HV?$allocator@H@std@@@std@@IBEXPAH0@Z ENDP ; std::vector<int,std::allocator<int> >::_Orphan_range
_TEXT	ENDS
PUBLIC	?capacity@?$vector@PAVFSMState@@V?$allocator@PAVFSMState@@@std@@@std@@QBEIXZ ; std::vector<FSMState *,std::allocator<FSMState *> >::capacity
; Function compile flags: /Ogsp
;	COMDAT ?capacity@?$vector@PAVFSMState@@V?$allocator@PAVFSMState@@@std@@@std@@QBEIXZ
_TEXT	SEGMENT
?capacity@?$vector@PAVFSMState@@V?$allocator@PAVFSMState@@@std@@@std@@QBEIXZ PROC ; std::vector<FSMState *,std::allocator<FSMState *> >::capacity, COMDAT
; _this$ = ecx

; 777  : 		return (this->_Myend - this->_Myfirst);

  00000	8b 41 08	 mov	 eax, DWORD PTR [ecx+8]
  00003	2b 01		 sub	 eax, DWORD PTR [ecx]
  00005	c1 f8 02	 sar	 eax, 2

; 778  : 		}

  00008	c3		 ret	 0
?capacity@?$vector@PAVFSMState@@V?$allocator@PAVFSMState@@@std@@@std@@QBEIXZ ENDP ; std::vector<FSMState *,std::allocator<FSMState *> >::capacity
_TEXT	ENDS
PUBLIC	?_Inside@?$vector@PAVFSMState@@V?$allocator@PAVFSMState@@@std@@@std@@IBE_NPBQAVFSMState@@@Z ; std::vector<FSMState *,std::allocator<FSMState *> >::_Inside
; Function compile flags: /Ogsp
;	COMDAT ?_Inside@?$vector@PAVFSMState@@V?$allocator@PAVFSMState@@@std@@@std@@IBE_NPBQAVFSMState@@@Z
_TEXT	SEGMENT
__Ptr$ = 8						; size = 4
?_Inside@?$vector@PAVFSMState@@V?$allocator@PAVFSMState@@@std@@@std@@IBE_NPBQAVFSMState@@@Z PROC ; std::vector<FSMState *,std::allocator<FSMState *> >::_Inside, COMDAT
; _this$ = ecx

; 1285 : 		{	// test if _Ptr points inside vector

  00000	55		 push	 ebp
  00001	8b ec		 mov	 ebp, esp

; 1286 : 		return (_Ptr < this->_Mylast && this->_Myfirst <= _Ptr);

  00003	8b 45 08	 mov	 eax, DWORD PTR __Ptr$[ebp]
  00006	3b 41 04	 cmp	 eax, DWORD PTR [ecx+4]
  00009	73 09		 jae	 SHORT $LN3@Inside@2
  0000b	39 01		 cmp	 DWORD PTR [ecx], eax
  0000d	77 05		 ja	 SHORT $LN3@Inside@2
  0000f	33 c0		 xor	 eax, eax
  00011	40		 inc	 eax
  00012	eb 02		 jmp	 SHORT $LN4@Inside@2
$LN3@Inside@2:
  00014	33 c0		 xor	 eax, eax
$LN4@Inside@2:

; 1287 : 		}

  00016	5d		 pop	 ebp
  00017	c2 04 00	 ret	 4
?_Inside@?$vector@PAVFSMState@@V?$allocator@PAVFSMState@@@std@@@std@@IBE_NPBQAVFSMState@@@Z ENDP ; std::vector<FSMState *,std::allocator<FSMState *> >::_Inside
_TEXT	ENDS
PUBLIC	??_7bad_alloc@std@@6B@				; std::bad_alloc::`vftable'
PUBLIC	??0bad_alloc@std@@QAE@PBD@Z			; std::bad_alloc::bad_alloc
PUBLIC	??_R4bad_alloc@std@@6B@				; std::bad_alloc::`RTTI Complete Object Locator'
PUBLIC	??_R0?AVbad_alloc@std@@@8			; std::bad_alloc `RTTI Type Descriptor'
PUBLIC	??_R3bad_alloc@std@@8				; std::bad_alloc::`RTTI Class Hierarchy Descriptor'
PUBLIC	??_R2bad_alloc@std@@8				; std::bad_alloc::`RTTI Base Class Array'
PUBLIC	??_R1A@?0A@EA@bad_alloc@std@@8			; std::bad_alloc::`RTTI Base Class Descriptor at (0,-1,0,64)'
PUBLIC	??_R1A@?0A@EA@exception@std@@8			; std::exception::`RTTI Base Class Descriptor at (0,-1,0,64)'
PUBLIC	??_R0?AVexception@std@@@8			; std::exception `RTTI Type Descriptor'
PUBLIC	??_R3exception@std@@8				; std::exception::`RTTI Class Hierarchy Descriptor'
PUBLIC	??_R2exception@std@@8				; std::exception::`RTTI Base Class Array'
EXTRN	__imp_??0exception@std@@QAE@ABQBD@Z:PROC
EXTRN	??_7type_info@@6B@:QWORD			; type_info::`vftable'
EXTRN	??_Ebad_alloc@std@@UAEPAXI@Z:PROC		; std::bad_alloc::`vector deleting destructor'
EXTRN	?what@exception@std@@UBEPBDXZ:PROC		; std::exception::what
;	COMDAT ??_R2exception@std@@8
; File c:\program files (x86)\microsoft visual studio 10.0\vc\include\exception
rdata$r	SEGMENT
??_R2exception@std@@8 DD FLAT:??_R1A@?0A@EA@exception@std@@8 ; std::exception::`RTTI Base Class Array'
rdata$r	ENDS
;	COMDAT ??_R3exception@std@@8
rdata$r	SEGMENT
??_R3exception@std@@8 DD 00H				; std::exception::`RTTI Class Hierarchy Descriptor'
	DD	00H
	DD	01H
	DD	FLAT:??_R2exception@std@@8
rdata$r	ENDS
;	COMDAT ??_R0?AVexception@std@@@8
_DATA	SEGMENT
??_R0?AVexception@std@@@8 DD FLAT:??_7type_info@@6B@	; std::exception `RTTI Type Descriptor'
	DD	00H
	DB	'.?AVexception@std@@', 00H
_DATA	ENDS
;	COMDAT ??_R1A@?0A@EA@exception@std@@8
rdata$r	SEGMENT
??_R1A@?0A@EA@exception@std@@8 DD FLAT:??_R0?AVexception@std@@@8 ; std::exception::`RTTI Base Class Descriptor at (0,-1,0,64)'
	DD	00H
	DD	00H
	DD	0ffffffffH
	DD	00H
	DD	040H
	DD	FLAT:??_R3exception@std@@8
rdata$r	ENDS
;	COMDAT ??_R1A@?0A@EA@bad_alloc@std@@8
rdata$r	SEGMENT
??_R1A@?0A@EA@bad_alloc@std@@8 DD FLAT:??_R0?AVbad_alloc@std@@@8 ; std::bad_alloc::`RTTI Base Class Descriptor at (0,-1,0,64)'
	DD	01H
	DD	00H
	DD	0ffffffffH
	DD	00H
	DD	040H
	DD	FLAT:??_R3bad_alloc@std@@8
rdata$r	ENDS
;	COMDAT ??_R2bad_alloc@std@@8
rdata$r	SEGMENT
??_R2bad_alloc@std@@8 DD FLAT:??_R1A@?0A@EA@bad_alloc@std@@8 ; std::bad_alloc::`RTTI Base Class Array'
	DD	FLAT:??_R1A@?0A@EA@exception@std@@8
rdata$r	ENDS
;	COMDAT ??_R3bad_alloc@std@@8
rdata$r	SEGMENT
??_R3bad_alloc@std@@8 DD 00H				; std::bad_alloc::`RTTI Class Hierarchy Descriptor'
	DD	00H
	DD	02H
	DD	FLAT:??_R2bad_alloc@std@@8
rdata$r	ENDS
;	COMDAT ??_R0?AVbad_alloc@std@@@8
_DATA	SEGMENT
??_R0?AVbad_alloc@std@@@8 DD FLAT:??_7type_info@@6B@	; std::bad_alloc `RTTI Type Descriptor'
	DD	00H
	DB	'.?AVbad_alloc@std@@', 00H
_DATA	ENDS
;	COMDAT ??_R4bad_alloc@std@@6B@
rdata$r	SEGMENT
??_R4bad_alloc@std@@6B@ DD 00H				; std::bad_alloc::`RTTI Complete Object Locator'
	DD	00H
	DD	00H
	DD	FLAT:??_R0?AVbad_alloc@std@@@8
	DD	FLAT:??_R3bad_alloc@std@@8
rdata$r	ENDS
;	COMDAT ??_7bad_alloc@std@@6B@
CONST	SEGMENT
??_7bad_alloc@std@@6B@ DD FLAT:??_R4bad_alloc@std@@6B@	; std::bad_alloc::`vftable'
	DD	FLAT:??_Ebad_alloc@std@@UAEPAXI@Z
	DD	FLAT:?what@exception@std@@UBEPBDXZ
; Function compile flags: /Ogsp
CONST	ENDS
;	COMDAT ??0bad_alloc@std@@QAE@PBD@Z
_TEXT	SEGMENT
__Message$ = 8						; size = 4
??0bad_alloc@std@@QAE@PBD@Z PROC			; std::bad_alloc::bad_alloc, COMDAT
; _this$ = ecx

; 345  : 		{	// construct from message string

  00000	55		 push	 ebp
  00001	8b ec		 mov	 ebp, esp
  00003	56		 push	 esi
  00004	8d 45 08	 lea	 eax, DWORD PTR __Message$[ebp]
  00007	50		 push	 eax
  00008	8b f1		 mov	 esi, ecx
  0000a	ff 15 00 00 00
	00		 call	 DWORD PTR __imp_??0exception@std@@QAE@ABQBD@Z
  00010	c7 06 00 00 00
	00		 mov	 DWORD PTR [esi], OFFSET ??_7bad_alloc@std@@6B@

; 346  : 		}

  00016	8b c6		 mov	 eax, esi
  00018	5e		 pop	 esi
  00019	5d		 pop	 ebp
  0001a	c2 04 00	 ret	 4
??0bad_alloc@std@@QAE@PBD@Z ENDP			; std::bad_alloc::bad_alloc
_TEXT	ENDS
PUBLIC	??1bad_alloc@std@@UAE@XZ			; std::bad_alloc::~bad_alloc
EXTRN	__imp_??1exception@std@@UAE@XZ:PROC
; Function compile flags: /Ogsp
;	COMDAT ??1bad_alloc@std@@UAE@XZ
_TEXT	SEGMENT
??1bad_alloc@std@@UAE@XZ PROC				; std::bad_alloc::~bad_alloc, COMDAT
; _this$ = ecx

; 354  : 		{	// destroy the object

  00000	c7 01 00 00 00
	00		 mov	 DWORD PTR [ecx], OFFSET ??_7bad_alloc@std@@6B@

; 355  : 		}

  00006	ff 25 00 00 00
	00		 jmp	 DWORD PTR __imp_??1exception@std@@UAE@XZ
??1bad_alloc@std@@UAE@XZ ENDP				; std::bad_alloc::~bad_alloc
_TEXT	ENDS
PUBLIC	??_C@_0BD@OLBABOEK@vector?$DMT?$DO?5too?5long?$AA@ ; `string'
PUBLIC	?_Xlen@?$vector@PAVFSMState@@V?$allocator@PAVFSMState@@@std@@@std@@IBEXXZ ; std::vector<FSMState *,std::allocator<FSMState *> >::_Xlen
EXTRN	__imp_?_Xlength_error@std@@YAXPBD@Z:PROC
;	COMDAT ??_C@_0BD@OLBABOEK@vector?$DMT?$DO?5too?5long?$AA@
; File c:\program files (x86)\microsoft visual studio 10.0\vc\include\vector
CONST	SEGMENT
??_C@_0BD@OLBABOEK@vector?$DMT?$DO?5too?5long?$AA@ DB 'vector<T> too long'
	DB	00H						; `string'
; Function compile flags: /Ogsp
CONST	ENDS
;	COMDAT ?_Xlen@?$vector@PAVFSMState@@V?$allocator@PAVFSMState@@@std@@@std@@IBEXXZ
_TEXT	SEGMENT
?_Xlen@?$vector@PAVFSMState@@V?$allocator@PAVFSMState@@@std@@@std@@IBEXXZ PROC ; std::vector<FSMState *,std::allocator<FSMState *> >::_Xlen, COMDAT
; _this$ = ecx

; 1427 : 		_Xlength_error("vector<T> too long");

  00000	68 00 00 00 00	 push	 OFFSET ??_C@_0BD@OLBABOEK@vector?$DMT?$DO?5too?5long?$AA@
  00005	ff 15 00 00 00
	00		 call	 DWORD PTR __imp_?_Xlength_error@std@@YAXPBD@Z
$LN4@Xlen:
$LN3@Xlen:
  0000b	cc		 int	 3
?_Xlen@?$vector@PAVFSMState@@V?$allocator@PAVFSMState@@@std@@@std@@IBEXXZ ENDP ; std::vector<FSMState *,std::allocator<FSMState *> >::_Xlen
_TEXT	ENDS
EXTRN	??3@YAXPAX@Z:PROC				; operator delete
; Function compile flags: /Ogsp
;	COMDAT ??_Gbad_alloc@std@@UAEPAXI@Z
_TEXT	SEGMENT
___flags$ = 8						; size = 4
??_Gbad_alloc@std@@UAEPAXI@Z PROC			; std::bad_alloc::`scalar deleting destructor', COMDAT
; _this$ = ecx
  00000	55		 push	 ebp
  00001	8b ec		 mov	 ebp, esp
  00003	56		 push	 esi
  00004	8b f1		 mov	 esi, ecx
  00006	c7 06 00 00 00
	00		 mov	 DWORD PTR [esi], OFFSET ??_7bad_alloc@std@@6B@
  0000c	ff 15 00 00 00
	00		 call	 DWORD PTR __imp_??1exception@std@@UAE@XZ
  00012	f6 45 08 01	 test	 BYTE PTR ___flags$[ebp], 1
  00016	74 07		 je	 SHORT $LN1@scalar
  00018	56		 push	 esi
  00019	e8 00 00 00 00	 call	 ??3@YAXPAX@Z		; operator delete
  0001e	59		 pop	 ecx
$LN1@scalar:
  0001f	8b c6		 mov	 eax, esi
  00021	5e		 pop	 esi
  00022	5d		 pop	 ebp
  00023	c2 04 00	 ret	 4
??_Gbad_alloc@std@@UAEPAXI@Z ENDP			; std::bad_alloc::`scalar deleting destructor'
_TEXT	ENDS
PUBLIC	?_Orphan_range@?$vector@PAVFSMState@@V?$allocator@PAVFSMState@@@std@@@std@@IBEXPAPAVFSMState@@0@Z ; std::vector<FSMState *,std::allocator<FSMState *> >::_Orphan_range
; Function compile flags: /Ogsp
;	COMDAT ?_Orphan_range@?$vector@PAVFSMState@@V?$allocator@PAVFSMState@@@std@@@std@@IBEXPAPAVFSMState@@0@Z
_TEXT	SEGMENT
___formal$ = 8						; size = 4
___formal$ = 12						; size = 4
?_Orphan_range@?$vector@PAVFSMState@@V?$allocator@PAVFSMState@@@std@@@std@@IBEXPAPAVFSMState@@0@Z PROC ; std::vector<FSMState *,std::allocator<FSMState *> >::_Orphan_range, COMDAT
; _this$ = ecx

; 1454 : 		}

  00000	c2 08 00	 ret	 8
?_Orphan_range@?$vector@PAVFSMState@@V?$allocator@PAVFSMState@@@std@@@std@@IBEXPAPAVFSMState@@0@Z ENDP ; std::vector<FSMState *,std::allocator<FSMState *> >::_Orphan_range
_TEXT	ENDS
PUBLIC	??1?$_Vector_val@PAVFSMState@@V?$allocator@PAVFSMState@@@std@@@std@@QAE@XZ ; std::_Vector_val<FSMState *,std::allocator<FSMState *> >::~_Vector_val<FSMState *,std::allocator<FSMState *> >
; Function compile flags: /Ogsp
;	COMDAT ??1?$_Vector_val@PAVFSMState@@V?$allocator@PAVFSMState@@@std@@@std@@QAE@XZ
_TEXT	SEGMENT
??1?$_Vector_val@PAVFSMState@@V?$allocator@PAVFSMState@@@std@@@std@@QAE@XZ PROC ; std::_Vector_val<FSMState *,std::allocator<FSMState *> >::~_Vector_val<FSMState *,std::allocator<FSMState *> >, COMDAT
; _this$ = ecx

; 434  : 		}

  00000	c3		 ret	 0
??1?$_Vector_val@PAVFSMState@@V?$allocator@PAVFSMState@@@std@@@std@@QAE@XZ ENDP ; std::_Vector_val<FSMState *,std::allocator<FSMState *> >::~_Vector_val<FSMState *,std::allocator<FSMState *> >
_TEXT	ENDS
PUBLIC	??0?$allocator@PAVFSMState@@@std@@QAE@XZ	; std::allocator<FSMState *>::allocator<FSMState *>
; Function compile flags: /Ogsp
; File c:\program files (x86)\microsoft visual studio 10.0\vc\include\xmemory
;	COMDAT ??0?$allocator@PAVFSMState@@@std@@QAE@XZ
_TEXT	SEGMENT
??0?$allocator@PAVFSMState@@@std@@QAE@XZ PROC		; std::allocator<FSMState *>::allocator<FSMState *>, COMDAT
; _this$ = ecx

; 161  : 	_ALLOCATOR() _THROW0()

  00000	8b c1		 mov	 eax, ecx

; 162  : 		{	// construct default allocator (do nothing)
; 163  : 		}

  00002	c3		 ret	 0
??0?$allocator@PAVFSMState@@@std@@QAE@XZ ENDP		; std::allocator<FSMState *>::allocator<FSMState *>
_TEXT	ENDS
PUBLIC	?deallocate@?$allocator@PAVFSMState@@@std@@QAEXPAPAVFSMState@@I@Z ; std::allocator<FSMState *>::deallocate
; Function compile flags: /Ogsp
;	COMDAT ?deallocate@?$allocator@PAVFSMState@@@std@@QAEXPAPAVFSMState@@I@Z
_TEXT	SEGMENT
__Ptr$ = 8						; size = 4
___formal$ = 12						; size = 4
?deallocate@?$allocator@PAVFSMState@@@std@@QAEXPAPAVFSMState@@I@Z PROC ; std::allocator<FSMState *>::deallocate, COMDAT
; _this$ = ecx

; 181  : 		{	// deallocate object at _Ptr, ignore size

  00000	55		 push	 ebp
  00001	8b ec		 mov	 ebp, esp

; 182  : 		::operator delete(_Ptr);

  00003	ff 75 08	 push	 DWORD PTR __Ptr$[ebp]
  00006	e8 00 00 00 00	 call	 ??3@YAXPAX@Z		; operator delete
  0000b	59		 pop	 ecx

; 183  : 		}

  0000c	5d		 pop	 ebp
  0000d	c2 08 00	 ret	 8
?deallocate@?$allocator@PAVFSMState@@@std@@QAEXPAPAVFSMState@@I@Z ENDP ; std::allocator<FSMState *>::deallocate
_TEXT	ENDS
PUBLIC	??D?$_Vector_const_iterator@V?$_Vector_val@PAVFSMState@@V?$allocator@PAVFSMState@@@std@@@std@@@std@@QBEABQAVFSMState@@XZ ; std::_Vector_const_iterator<std::_Vector_val<FSMState *,std::allocator<FSMState *> > >::operator*
; Function compile flags: /Ogsp
; File c:\program files (x86)\microsoft visual studio 10.0\vc\include\vector
;	COMDAT ??D?$_Vector_const_iterator@V?$_Vector_val@PAVFSMState@@V?$allocator@PAVFSMState@@@std@@@std@@@std@@QBEABQAVFSMState@@XZ
_TEXT	SEGMENT
??D?$_Vector_const_iterator@V?$_Vector_val@PAVFSMState@@V?$allocator@PAVFSMState@@@std@@@std@@@std@@QBEABQAVFSMState@@XZ PROC ; std::_Vector_const_iterator<std::_Vector_val<FSMState *,std::allocator<FSMState *> > >::operator*, COMDAT
; _this$ = ecx

; 64   :  #if _ITERATOR_DEBUG_LEVEL == 2
; 65   : 		if (this->_Getcont() == 0
; 66   : 			|| this->_Ptr == 0
; 67   : 			|| this->_Ptr < ((_Myvec *)this->_Getcont())->_Myfirst
; 68   : 			|| ((_Myvec *)this->_Getcont())->_Mylast <= this->_Ptr)
; 69   : 			{	// report error
; 70   : 			_DEBUG_ERROR("vector iterator not dereferencable");
; 71   : 			_SCL_SECURE_OUT_OF_RANGE;
; 72   : 			}
; 73   : 
; 74   :  #elif _ITERATOR_DEBUG_LEVEL == 1
; 75   : 		_SCL_SECURE_VALIDATE(this->_Getcont() != 0);
; 76   : 		_SCL_SECURE_VALIDATE_RANGE(
; 77   : 			this->_Ptr != 0
; 78   : 			&& ((_Myvec *)this->_Getcont())->_Myfirst <= this->_Ptr
; 79   : 			&& this->_Ptr < ((_Myvec *)this->_Getcont())->_Mylast);
; 80   :  #endif /* _ITERATOR_DEBUG_LEVEL */
; 81   : 
; 82   : 		__analysis_assume(this->_Ptr != 0);
; 83   : 
; 84   : 		return (*this->_Ptr);

  00000	8b 01		 mov	 eax, DWORD PTR [ecx]

; 85   : 		}

  00002	c3		 ret	 0
??D?$_Vector_const_iterator@V?$_Vector_val@PAVFSMState@@V?$allocator@PAVFSMState@@@std@@@std@@@std@@QBEABQAVFSMState@@XZ ENDP ; std::_Vector_const_iterator<std::_Vector_val<FSMState *,std::allocator<FSMState *> > >::operator*
_TEXT	ENDS
PUBLIC	??E?$_Vector_const_iterator@V?$_Vector_val@PAVFSMState@@V?$allocator@PAVFSMState@@@std@@@std@@@std@@QAEAAV01@XZ ; std::_Vector_const_iterator<std::_Vector_val<FSMState *,std::allocator<FSMState *> > >::operator++
; Function compile flags: /Ogsp
;	COMDAT ??E?$_Vector_const_iterator@V?$_Vector_val@PAVFSMState@@V?$allocator@PAVFSMState@@@std@@@std@@@std@@QAEAAV01@XZ
_TEXT	SEGMENT
??E?$_Vector_const_iterator@V?$_Vector_val@PAVFSMState@@V?$allocator@PAVFSMState@@@std@@@std@@@std@@QAEAAV01@XZ PROC ; std::_Vector_const_iterator<std::_Vector_val<FSMState *,std::allocator<FSMState *> > >::operator++, COMDAT
; _this$ = ecx

; 93   : 		{	// preincrement

  00000	8b c1		 mov	 eax, ecx

; 94   :  #if _ITERATOR_DEBUG_LEVEL == 2
; 95   : 		if (this->_Getcont() == 0
; 96   : 			|| this->_Ptr == 0
; 97   : 			|| ((_Myvec *)this->_Getcont())->_Mylast <= this->_Ptr)
; 98   : 			{	// report error
; 99   : 			_DEBUG_ERROR("vector iterator not incrementable");
; 100  : 			_SCL_SECURE_OUT_OF_RANGE;
; 101  : 			}
; 102  : 
; 103  :  #elif _ITERATOR_DEBUG_LEVEL == 1
; 104  : 		_SCL_SECURE_VALIDATE(this->_Getcont() != 0);
; 105  : 		_SCL_SECURE_VALIDATE_RANGE(
; 106  : 			this->_Ptr != 0
; 107  : 			&& this->_Ptr < ((_Myvec *)this->_Getcont())->_Mylast);
; 108  :  #endif /* _ITERATOR_DEBUG_LEVEL */
; 109  : 
; 110  : 		++this->_Ptr;

  00002	83 00 04	 add	 DWORD PTR [eax], 4

; 111  : 		return (*this);
; 112  : 		}

  00005	c3		 ret	 0
??E?$_Vector_const_iterator@V?$_Vector_val@PAVFSMState@@V?$allocator@PAVFSMState@@@std@@@std@@@std@@QAEAAV01@XZ ENDP ; std::_Vector_const_iterator<std::_Vector_val<FSMState *,std::allocator<FSMState *> > >::operator++
_TEXT	ENDS
PUBLIC	??0?$allocator@PAVFSMState@@@std@@QAE@ABV01@@Z	; std::allocator<FSMState *>::allocator<FSMState *>
; Function compile flags: /Ogsp
; File c:\program files (x86)\microsoft visual studio 10.0\vc\include\xmemory
;	COMDAT ??0?$allocator@PAVFSMState@@@std@@QAE@ABV01@@Z
_TEXT	SEGMENT
___formal$ = 8						; size = 4
??0?$allocator@PAVFSMState@@@std@@QAE@ABV01@@Z PROC	; std::allocator<FSMState *>::allocator<FSMState *>, COMDAT
; _this$ = ecx

; 165  : 	_ALLOCATOR(const _ALLOCATOR<_Ty>&) _THROW0()

  00000	8b c1		 mov	 eax, ecx

; 166  : 		{	// construct by copying (do nothing)
; 167  : 		}

  00002	c2 04 00	 ret	 4
??0?$allocator@PAVFSMState@@@std@@QAE@ABV01@@Z ENDP	; std::allocator<FSMState *>::allocator<FSMState *>
_TEXT	ENDS
PUBLIC	?max_size@?$allocator@PAVFSMState@@@std@@QBEIXZ	; std::allocator<FSMState *>::max_size
; Function compile flags: /Ogsp
;	COMDAT ?max_size@?$allocator@PAVFSMState@@@std@@QBEIXZ
_TEXT	SEGMENT
?max_size@?$allocator@PAVFSMState@@@std@@QBEIXZ PROC	; std::allocator<FSMState *>::max_size, COMDAT
; _this$ = ecx

; 218  : 		_SIZT _Count = (_SIZT)(-1) / sizeof (_Ty);
; 219  : 		return (0 < _Count ? _Count : 1);

  00000	b8 ff ff ff 3f	 mov	 eax, 1073741823		; 3fffffffH

; 220  : 		}

  00005	c3		 ret	 0
?max_size@?$allocator@PAVFSMState@@@std@@QBEIXZ ENDP	; std::allocator<FSMState *>::max_size
_TEXT	ENDS
PUBLIC	?_Compat@?$_Vector_const_iterator@V?$_Vector_val@PAVFSMState@@V?$allocator@PAVFSMState@@@std@@@std@@@std@@QBEXABV12@@Z ; std::_Vector_const_iterator<std::_Vector_val<FSMState *,std::allocator<FSMState *> > >::_Compat
; Function compile flags: /Ogsp
; File c:\program files (x86)\microsoft visual studio 10.0\vc\include\vector
;	COMDAT ?_Compat@?$_Vector_const_iterator@V?$_Vector_val@PAVFSMState@@V?$allocator@PAVFSMState@@@std@@@std@@@std@@QBEXABV12@@Z
_TEXT	SEGMENT
___formal$ = 8						; size = 4
?_Compat@?$_Vector_const_iterator@V?$_Vector_val@PAVFSMState@@V?$allocator@PAVFSMState@@@std@@@std@@@std@@QBEXABV12@@Z PROC ; std::_Vector_const_iterator<std::_Vector_val<FSMState *,std::allocator<FSMState *> > >::_Compat, COMDAT
; _this$ = ecx

; 253  : 		}

  00000	c2 04 00	 ret	 4
?_Compat@?$_Vector_const_iterator@V?$_Vector_val@PAVFSMState@@V?$allocator@PAVFSMState@@@std@@@std@@@std@@QBEXABV12@@Z ENDP ; std::_Vector_const_iterator<std::_Vector_val<FSMState *,std::allocator<FSMState *> > >::_Compat
_TEXT	ENDS
PUBLIC	??$addressof@$$CBH@std@@YAPBHABH@Z		; std::addressof<int const >
; Function compile flags: /Ogsp
; File c:\program files (x86)\microsoft visual studio 10.0\vc\include\xmemory
;	COMDAT ??$addressof@$$CBH@std@@YAPBHABH@Z
_TEXT	SEGMENT
__Val$ = 8						; size = 4
??$addressof@$$CBH@std@@YAPBHABH@Z PROC			; std::addressof<int const >, COMDAT

; 110  : 	{	// return address of _Val

  00000	55		 push	 ebp
  00001	8b ec		 mov	 ebp, esp

; 111  : 	return ((_Ty *) &(char&)_Val);

  00003	8b 45 08	 mov	 eax, DWORD PTR __Val$[ebp]

; 112  : 	}

  00006	5d		 pop	 ebp
  00007	c3		 ret	 0
??$addressof@$$CBH@std@@YAPBHABH@Z ENDP			; std::addressof<int const >
_TEXT	ENDS
PUBLIC	??$addressof@QAVFSMState@@@std@@YAPBQAVFSMState@@ABQAV1@@Z ; std::addressof<FSMState * const>
; Function compile flags: /Ogsp
;	COMDAT ??$addressof@QAVFSMState@@@std@@YAPBQAVFSMState@@ABQAV1@@Z
_TEXT	SEGMENT
__Val$ = 8						; size = 4
??$addressof@QAVFSMState@@@std@@YAPBQAVFSMState@@ABQAV1@@Z PROC ; std::addressof<FSMState * const>, COMDAT

; 110  : 	{	// return address of _Val

  00000	55		 push	 ebp
  00001	8b ec		 mov	 ebp, esp

; 111  : 	return ((_Ty *) &(char&)_Val);

  00003	8b 45 08	 mov	 eax, DWORD PTR __Val$[ebp]

; 112  : 	}

  00006	5d		 pop	 ebp
  00007	c3		 ret	 0
??$addressof@QAVFSMState@@@std@@YAPBQAVFSMState@@ABQAV1@@Z ENDP ; std::addressof<FSMState * const>
_TEXT	ENDS
PUBLIC	??2@YAPAXIPAX@Z					; operator new
; Function compile flags: /Ogsp
; File c:\program files (x86)\microsoft visual studio 10.0\vc\include\new
;	COMDAT ??2@YAPAXIPAX@Z
_TEXT	SEGMENT
___formal$ = 8						; size = 4
__Where$ = 12						; size = 4
??2@YAPAXIPAX@Z PROC					; operator new, COMDAT

; 56   : 	{	// construct array with placement at _Where

  00000	55		 push	 ebp
  00001	8b ec		 mov	 ebp, esp

; 57   : 	return (_Where);

  00003	8b 45 0c	 mov	 eax, DWORD PTR __Where$[ebp]

; 58   : 	}

  00006	5d		 pop	 ebp
  00007	c3		 ret	 0
??2@YAPAXIPAX@Z ENDP					; operator new
_TEXT	ENDS
PUBLIC	??3@YAXPAX0@Z					; operator delete
; Function compile flags: /Ogsp
;	COMDAT ??3@YAXPAX0@Z
_TEXT	SEGMENT
___formal$ = 8						; size = 4
___formal$ = 12						; size = 4
??3@YAXPAX0@Z PROC					; operator delete, COMDAT

; 62   : 	}

  00000	c3		 ret	 0
??3@YAXPAX0@Z ENDP					; operator delete
_TEXT	ENDS
PUBLIC	__TI2?AVbad_alloc@std@@
PUBLIC	??$_Allocate@PAVFSMState@@@std@@YAPAPAVFSMState@@IPAPAV1@@Z ; std::_Allocate<FSMState *>
PUBLIC	__CTA2?AVbad_alloc@std@@
PUBLIC	__CT??_R0?AVbad_alloc@std@@@8??0bad_alloc@std@@QAE@ABV01@@Z12
PUBLIC	??0bad_alloc@std@@QAE@ABV01@@Z			; std::bad_alloc::bad_alloc
PUBLIC	__CT??_R0?AVexception@std@@@8??0exception@std@@QAE@ABV01@@Z12
EXTRN	??2@YAPAXI@Z:PROC				; operator new
EXTRN	__CxxThrowException@8:PROC
EXTRN	??0exception@std@@QAE@ABV01@@Z:PROC		; std::exception::exception
;	COMDAT __CT??_R0?AVexception@std@@@8??0exception@std@@QAE@ABV01@@Z12
; File c:\program files (x86)\microsoft visual studio 10.0\vc\include\exception
xdata$x	SEGMENT
__CT??_R0?AVexception@std@@@8??0exception@std@@QAE@ABV01@@Z12 DD 00H
	DD	FLAT:??_R0?AVexception@std@@@8
	DD	00H
	DD	0ffffffffH
	ORG $+4
	DD	0cH
	DD	FLAT:??0exception@std@@QAE@ABV01@@Z
xdata$x	ENDS
;	COMDAT __CT??_R0?AVbad_alloc@std@@@8??0bad_alloc@std@@QAE@ABV01@@Z12
xdata$x	SEGMENT
__CT??_R0?AVbad_alloc@std@@@8??0bad_alloc@std@@QAE@ABV01@@Z12 DD 00H
	DD	FLAT:??_R0?AVbad_alloc@std@@@8
	DD	00H
	DD	0ffffffffH
	ORG $+4
	DD	0cH
	DD	FLAT:??0bad_alloc@std@@QAE@ABV01@@Z
xdata$x	ENDS
;	COMDAT __CTA2?AVbad_alloc@std@@
xdata$x	SEGMENT
__CTA2?AVbad_alloc@std@@ DD 02H
	DD	FLAT:__CT??_R0?AVbad_alloc@std@@@8??0bad_alloc@std@@QAE@ABV01@@Z12
	DD	FLAT:__CT??_R0?AVexception@std@@@8??0exception@std@@QAE@ABV01@@Z12
xdata$x	ENDS
;	COMDAT __TI2?AVbad_alloc@std@@
xdata$x	SEGMENT
__TI2?AVbad_alloc@std@@ DD 00H
	DD	FLAT:??1bad_alloc@std@@UAE@XZ
	DD	00H
	DD	FLAT:__CTA2?AVbad_alloc@std@@
; Function compile flags: /Ogsp
; File c:\program files (x86)\microsoft visual studio 10.0\vc\include\xmemory
xdata$x	ENDS
;	COMDAT ??$_Allocate@PAVFSMState@@@std@@YAPAPAVFSMState@@IPAPAV1@@Z
_TEXT	SEGMENT
$T506315 = -12						; size = 12
$T506320 = 8						; size = 4
__Count$ = 8						; size = 4
___formal$ = 12						; size = 4
??$_Allocate@PAVFSMState@@@std@@YAPAPAVFSMState@@IPAPAV1@@Z PROC ; std::_Allocate<FSMState *>, COMDAT

; 30   : 	{	// allocate storage for _Count elements of type _Ty

  00000	55		 push	 ebp
  00001	8b ec		 mov	 ebp, esp

; 31   : 	void *_Ptr = 0;
; 32   : 
; 33   : 	if (_Count <= 0)

  00003	8b 4d 08	 mov	 ecx, DWORD PTR __Count$[ebp]
  00006	83 ec 0c	 sub	 esp, 12			; 0000000cH
  00009	33 c0		 xor	 eax, eax
  0000b	85 c9		 test	 ecx, ecx

; 34   : 		_Count = 0;
; 35   : 	else if (((_SIZT)(-1) / sizeof (_Ty) < _Count)

  0000d	74 3e		 je	 SHORT $LN5@Allocate

; 36   : 		|| (_Ptr = ::operator new(_Count * sizeof (_Ty))) == 0)

  0000f	81 f9 ff ff ff
	3f		 cmp	 ecx, 1073741823		; 3fffffffH
  00015	77 10		 ja	 SHORT $LN1@Allocate
  00017	8b c1		 mov	 eax, ecx
  00019	c1 e0 02	 shl	 eax, 2
  0001c	50		 push	 eax
  0001d	e8 00 00 00 00	 call	 ??2@YAPAXI@Z		; operator new
  00022	59		 pop	 ecx
  00023	85 c0		 test	 eax, eax

; 38   : 
; 39   : 	return ((_Ty _FARQ *)_Ptr);

  00025	75 26		 jne	 SHORT $LN5@Allocate
$LN1@Allocate:

; 37   : 		_THROW_NCEE(bad_alloc, 0);

  00027	83 65 08 00	 and	 DWORD PTR $T506320[ebp], 0
  0002b	8d 45 08	 lea	 eax, DWORD PTR $T506320[ebp]
  0002e	50		 push	 eax
  0002f	8d 4d f4	 lea	 ecx, DWORD PTR $T506315[ebp]
  00032	ff 15 00 00 00
	00		 call	 DWORD PTR __imp_??0exception@std@@QAE@ABQBD@Z
  00038	68 00 00 00 00	 push	 OFFSET __TI2?AVbad_alloc@std@@
  0003d	8d 45 f4	 lea	 eax, DWORD PTR $T506315[ebp]
  00040	50		 push	 eax
  00041	c7 45 f4 00 00
	00 00		 mov	 DWORD PTR $T506315[ebp], OFFSET ??_7bad_alloc@std@@6B@
  00048	e8 00 00 00 00	 call	 __CxxThrowException@8
$LN10@Allocate:
$LN5@Allocate:

; 40   : 	}

  0004d	c9		 leave
  0004e	c3		 ret	 0
$LN9@Allocate:
??$_Allocate@PAVFSMState@@@std@@YAPAPAVFSMState@@IPAPAV1@@Z ENDP ; std::_Allocate<FSMState *>
_TEXT	ENDS
PUBLIC	??$forward@ABH@std@@YAABHABH@Z			; std::forward<int const &>
; Function compile flags: /Ogsp
; File c:\program files (x86)\microsoft visual studio 10.0\vc\include\utility
;	COMDAT ??$forward@ABH@std@@YAABHABH@Z
_TEXT	SEGMENT
__Arg$ = 8						; size = 4
??$forward@ABH@std@@YAABHABH@Z PROC			; std::forward<int const &>, COMDAT

; 78   : 	{	// forward _Arg, given explicitly specified type parameter

  00000	55		 push	 ebp
  00001	8b ec		 mov	 ebp, esp

; 79   : 	return ((_Ty&&)_Arg);

  00003	8b 45 08	 mov	 eax, DWORD PTR __Arg$[ebp]

; 80   : 	}

  00006	5d		 pop	 ebp
  00007	c3		 ret	 0
??$forward@ABH@std@@YAABHABH@Z ENDP			; std::forward<int const &>
_TEXT	ENDS
PUBLIC	??$forward@AAPAVFSMState@@@std@@YAAAPAVFSMState@@AAPAV1@@Z ; std::forward<FSMState * &>
; Function compile flags: /Ogsp
;	COMDAT ??$forward@AAPAVFSMState@@@std@@YAAAPAVFSMState@@AAPAV1@@Z
_TEXT	SEGMENT
__Arg$ = 8						; size = 4
??$forward@AAPAVFSMState@@@std@@YAAAPAVFSMState@@AAPAV1@@Z PROC ; std::forward<FSMState * &>, COMDAT

; 78   : 	{	// forward _Arg, given explicitly specified type parameter

  00000	55		 push	 ebp
  00001	8b ec		 mov	 ebp, esp

; 79   : 	return ((_Ty&&)_Arg);

  00003	8b 45 08	 mov	 eax, DWORD PTR __Arg$[ebp]

; 80   : 	}

  00006	5d		 pop	 ebp
  00007	c3		 ret	 0
??$forward@AAPAVFSMState@@@std@@YAAAPAVFSMState@@AAPAV1@@Z ENDP ; std::forward<FSMState * &>
_TEXT	ENDS
PUBLIC	??$construct@AAPAVFSMState@@@?$allocator@PAVFSMState@@@std@@QAEXPAPAVFSMState@@AAPAV2@@Z ; std::allocator<FSMState *>::construct<FSMState * &>
; Function compile flags: /Ogsp
; File c:\program files (x86)\microsoft visual studio 10.0\vc\include\xmemory
;	COMDAT ??$construct@AAPAVFSMState@@@?$allocator@PAVFSMState@@@std@@QAEXPAPAVFSMState@@AAPAV2@@Z
_TEXT	SEGMENT
__Ptr$ = 8						; size = 4
__Val$ = 12						; size = 4
??$construct@AAPAVFSMState@@@?$allocator@PAVFSMState@@@std@@QAEXPAPAVFSMState@@AAPAV2@@Z PROC ; std::allocator<FSMState *>::construct<FSMState * &>, COMDAT
; _this$ = ecx

; 206  : 		void construct(pointer _Ptr, _Other&& _Val)

  00000	55		 push	 ebp
  00001	8b ec		 mov	 ebp, esp

; 207  : 		{	// construct object at _Ptr with value _Val
; 208  : 		::new ((void _FARQ *)_Ptr) _Ty(_STD forward<_Other>(_Val));

  00003	8b 45 08	 mov	 eax, DWORD PTR __Ptr$[ebp]
  00006	85 c0		 test	 eax, eax
  00008	74 07		 je	 SHORT $LN3@construct
  0000a	8b 4d 0c	 mov	 ecx, DWORD PTR __Val$[ebp]
  0000d	8b 09		 mov	 ecx, DWORD PTR [ecx]
  0000f	89 08		 mov	 DWORD PTR [eax], ecx
$LN3@construct:

; 209  : 		}

  00011	5d		 pop	 ebp
  00012	c2 08 00	 ret	 8
??$construct@AAPAVFSMState@@@?$allocator@PAVFSMState@@@std@@QAEXPAPAVFSMState@@AAPAV2@@Z ENDP ; std::allocator<FSMState *>::construct<FSMState * &>
_TEXT	ENDS
PUBLIC	??$forward@ABQAVFSMState@@@std@@YAABQAVFSMState@@ABQAV1@@Z ; std::forward<FSMState * const &>
; Function compile flags: /Ogsp
; File c:\program files (x86)\microsoft visual studio 10.0\vc\include\utility
;	COMDAT ??$forward@ABQAVFSMState@@@std@@YAABQAVFSMState@@ABQAV1@@Z
_TEXT	SEGMENT
__Arg$ = 8						; size = 4
??$forward@ABQAVFSMState@@@std@@YAABQAVFSMState@@ABQAV1@@Z PROC ; std::forward<FSMState * const &>, COMDAT

; 78   : 	{	// forward _Arg, given explicitly specified type parameter

  00000	55		 push	 ebp
  00001	8b ec		 mov	 ebp, esp

; 79   : 	return ((_Ty&&)_Arg);

  00003	8b 45 08	 mov	 eax, DWORD PTR __Arg$[ebp]

; 80   : 	}

  00006	5d		 pop	 ebp
  00007	c3		 ret	 0
??$forward@ABQAVFSMState@@@std@@YAABQAVFSMState@@ABQAV1@@Z ENDP ; std::forward<FSMState * const &>
_TEXT	ENDS
PUBLIC	??$_Ptr_cat@PAVFSMState@@PAV1@@std@@YA?AU_Scalar_ptr_iterator_tag@0@PAPAVFSMState@@0@Z ; std::_Ptr_cat<FSMState *,FSMState *>
; Function compile flags: /Ogsp
; File c:\program files (x86)\microsoft visual studio 10.0\vc\include\xutility
;	COMDAT ??$_Ptr_cat@PAVFSMState@@PAV1@@std@@YA?AU_Scalar_ptr_iterator_tag@0@PAPAVFSMState@@0@Z
_TEXT	SEGMENT
__Cat$ = -1						; size = 1
___formal$ = 8						; size = 4
___formal$ = 12						; size = 4
??$_Ptr_cat@PAVFSMState@@PAV1@@std@@YA?AU_Scalar_ptr_iterator_tag@0@PAPAVFSMState@@0@Z PROC ; std::_Ptr_cat<FSMState *,FSMState *>, COMDAT

; 516  : 	{	// return pointer category from pointers

  00000	55		 push	 ebp
  00001	8b ec		 mov	 ebp, esp
  00003	51		 push	 ecx

; 517  : 	typename _Ptr_cat_helper<_Elem1, _Elem2>::_Type _Cat;
; 518  : 	return (_Cat);

  00004	8a 45 ff	 mov	 al, BYTE PTR __Cat$[ebp]

; 519  : 	}

  00007	c9		 leave
  00008	c3		 ret	 0
??$_Ptr_cat@PAVFSMState@@PAV1@@std@@YA?AU_Scalar_ptr_iterator_tag@0@PAPAVFSMState@@0@Z ENDP ; std::_Ptr_cat<FSMState *,FSMState *>
_TEXT	ENDS
PUBLIC	??$_Move@PAPAVFSMState@@PAPAV1@@std@@YAPAPAVFSMState@@PAPAV1@00U_Scalar_ptr_iterator_tag@0@@Z ; std::_Move<FSMState * *,FSMState * *>
EXTRN	__imp__memmove:PROC
; Function compile flags: /Ogsp
;	COMDAT ??$_Move@PAPAVFSMState@@PAPAV1@@std@@YAPAPAVFSMState@@PAPAV1@00U_Scalar_ptr_iterator_tag@0@@Z
_TEXT	SEGMENT
__First$ = 8						; size = 4
__Last$ = 12						; size = 4
__Dest$ = 16						; size = 4
___formal$ = 20						; size = 1
??$_Move@PAPAVFSMState@@PAPAV1@@std@@YAPAPAVFSMState@@PAPAV1@00U_Scalar_ptr_iterator_tag@0@@Z PROC ; std::_Move<FSMState * *,FSMState * *>, COMDAT

; 2522 : 	{	// move [_First, _Last) to [_Dest, ...), pointers to scalars

  00000	55		 push	 ebp
  00001	8b ec		 mov	 ebp, esp
  00003	56		 push	 esi

; 2523 : 	ptrdiff_t _Count = _Last - _First;

  00004	8b 75 0c	 mov	 esi, DWORD PTR __Last$[ebp]
  00007	2b 75 08	 sub	 esi, DWORD PTR __First$[ebp]
  0000a	57		 push	 edi

; 2524 : 	_CSTD memmove(&*_Dest, &*_First,
; 2525 : 		_Count * sizeof (*_First));

  0000b	8b 7d 10	 mov	 edi, DWORD PTR __Dest$[ebp]
  0000e	c1 fe 02	 sar	 esi, 2
  00011	c1 e6 02	 shl	 esi, 2
  00014	56		 push	 esi
  00015	ff 75 08	 push	 DWORD PTR __First$[ebp]
  00018	57		 push	 edi
  00019	ff 15 00 00 00
	00		 call	 DWORD PTR __imp__memmove
  0001f	83 c4 0c	 add	 esp, 12			; 0000000cH

; 2526 : 	return (_Dest + _Count);

  00022	8d 04 3e	 lea	 eax, DWORD PTR [esi+edi]
  00025	5f		 pop	 edi
  00026	5e		 pop	 esi

; 2527 : 	}

  00027	5d		 pop	 ebp
  00028	c3		 ret	 0
??$_Move@PAPAVFSMState@@PAPAV1@@std@@YAPAPAVFSMState@@PAPAV1@00U_Scalar_ptr_iterator_tag@0@@Z ENDP ; std::_Move<FSMState * *,FSMState * *>
_TEXT	ENDS
PUBLIC	??$_Destroy_range@V?$allocator@PAVFSMState@@@std@@@std@@YAXPAPAVFSMState@@0AAV?$allocator@PAVFSMState@@@0@U_Scalar_ptr_iterator_tag@0@@Z ; std::_Destroy_range<std::allocator<FSMState *> >
; Function compile flags: /Ogsp
; File c:\program files (x86)\microsoft visual studio 10.0\vc\include\xmemory
;	COMDAT ??$_Destroy_range@V?$allocator@PAVFSMState@@@std@@@std@@YAXPAPAVFSMState@@0AAV?$allocator@PAVFSMState@@@0@U_Scalar_ptr_iterator_tag@0@@Z
_TEXT	SEGMENT
__First$ = 8						; size = 4
__Last$ = 12						; size = 4
__Al$ = 16						; size = 4
___formal$ = 20						; size = 1
??$_Destroy_range@V?$allocator@PAVFSMState@@@std@@@std@@YAXPAPAVFSMState@@0AAV?$allocator@PAVFSMState@@@0@U_Scalar_ptr_iterator_tag@0@@Z PROC ; std::_Destroy_range<std::allocator<FSMState *> >, COMDAT

; 105  : 	}

  00000	c3		 ret	 0
??$_Destroy_range@V?$allocator@PAVFSMState@@@std@@@std@@YAXPAPAVFSMState@@0AAV?$allocator@PAVFSMState@@@0@U_Scalar_ptr_iterator_tag@0@@Z ENDP ; std::_Destroy_range<std::allocator<FSMState *> >
_TEXT	ENDS
PUBLIC	??$_Construct@HABH@std@@YAXPAHABH@Z		; std::_Construct<int,int const &>
; Function compile flags: /Ogsp
;	COMDAT ??$_Construct@HABH@std@@YAXPAHABH@Z
_TEXT	SEGMENT
__Ptr$ = 8						; size = 4
__Val$ = 12						; size = 4
??$_Construct@HABH@std@@YAXPAHABH@Z PROC		; std::_Construct<int,int const &>, COMDAT

; 46   : 	{	// construct object at _Ptr with value _Val

  00000	55		 push	 ebp
  00001	8b ec		 mov	 ebp, esp

; 47   : 	void _FARQ *_Vptr = _Ptr;
; 48   : 	::new (_Vptr) _Ty1(_STD forward<_Ty2>(_Val));

  00003	8b 45 08	 mov	 eax, DWORD PTR __Ptr$[ebp]
  00006	85 c0		 test	 eax, eax
  00008	74 07		 je	 SHORT $LN3@Construct
  0000a	8b 4d 0c	 mov	 ecx, DWORD PTR __Val$[ebp]
  0000d	8b 09		 mov	 ecx, DWORD PTR [ecx]
  0000f	89 08		 mov	 DWORD PTR [eax], ecx
$LN3@Construct:

; 49   : 	}

  00011	5d		 pop	 ebp
  00012	c3		 ret	 0
??$_Construct@HABH@std@@YAXPAHABH@Z ENDP		; std::_Construct<int,int const &>
_TEXT	ENDS
PUBLIC	??$_Construct@PAVFSMState@@ABQAV1@@std@@YAXPAPAVFSMState@@ABQAV1@@Z ; std::_Construct<FSMState *,FSMState * const &>
; Function compile flags: /Ogsp
;	COMDAT ??$_Construct@PAVFSMState@@ABQAV1@@std@@YAXPAPAVFSMState@@ABQAV1@@Z
_TEXT	SEGMENT
__Ptr$ = 8						; size = 4
__Val$ = 12						; size = 4
??$_Construct@PAVFSMState@@ABQAV1@@std@@YAXPAPAVFSMState@@ABQAV1@@Z PROC ; std::_Construct<FSMState *,FSMState * const &>, COMDAT

; 46   : 	{	// construct object at _Ptr with value _Val

  00000	55		 push	 ebp
  00001	8b ec		 mov	 ebp, esp

; 47   : 	void _FARQ *_Vptr = _Ptr;
; 48   : 	::new (_Vptr) _Ty1(_STD forward<_Ty2>(_Val));

  00003	8b 45 08	 mov	 eax, DWORD PTR __Ptr$[ebp]
  00006	85 c0		 test	 eax, eax
  00008	74 07		 je	 SHORT $LN3@Construct@2
  0000a	8b 4d 0c	 mov	 ecx, DWORD PTR __Val$[ebp]
  0000d	8b 09		 mov	 ecx, DWORD PTR [ecx]
  0000f	89 08		 mov	 DWORD PTR [eax], ecx
$LN3@Construct@2:

; 49   : 	}

  00011	5d		 pop	 ebp
  00012	c3		 ret	 0
??$_Construct@PAVFSMState@@ABQAV1@@std@@YAXPAPAVFSMState@@ABQAV1@@Z ENDP ; std::_Construct<FSMState *,FSMState * const &>
_TEXT	ENDS
PUBLIC	??$_Val_type@PAPAVFSMState@@@std@@YAPAPAVFSMState@@PAPAV1@@Z ; std::_Val_type<FSMState * *>
; Function compile flags: /Ogsp
; File c:\program files (x86)\microsoft visual studio 10.0\vc\include\xutility
;	COMDAT ??$_Val_type@PAPAVFSMState@@@std@@YAPAPAVFSMState@@PAPAV1@@Z
_TEXT	SEGMENT
___formal$ = 8						; size = 4
??$_Val_type@PAPAVFSMState@@@std@@YAPAPAVFSMState@@PAPAV1@@Z PROC ; std::_Val_type<FSMState * *>, COMDAT

; 790  : 	return (0);

  00000	33 c0		 xor	 eax, eax

; 791  : 	}

  00002	c3		 ret	 0
??$_Val_type@PAPAVFSMState@@@std@@YAPAPAVFSMState@@PAPAV1@@Z ENDP ; std::_Val_type<FSMState * *>
_TEXT	ENDS
PUBLIC	??$_Uninit_move@PAVFSMState@@PAV1@PAV1@@std@@YAPAPAVFSMState@@PAPAV1@00AAV?$allocator@PAVFSMState@@@0@0U_Scalar_ptr_iterator_tag@0@@Z ; std::_Uninit_move<FSMState *,FSMState *,FSMState *>
; Function compile flags: /Ogsp
; File c:\program files (x86)\microsoft visual studio 10.0\vc\include\memory
;	COMDAT ??$_Uninit_move@PAVFSMState@@PAV1@PAV1@@std@@YAPAPAVFSMState@@PAPAV1@00AAV?$allocator@PAVFSMState@@@0@0U_Scalar_ptr_iterator_tag@0@@Z
_TEXT	SEGMENT
__First$ = 8						; size = 4
__Last$ = 12						; size = 4
__Dest$ = 16						; size = 4
___formal$ = 20						; size = 4
___formal$ = 24						; size = 4
___formal$ = 28						; size = 1
??$_Uninit_move@PAVFSMState@@PAV1@PAV1@@std@@YAPAPAVFSMState@@PAPAV1@00AAV?$allocator@PAVFSMState@@@0@0U_Scalar_ptr_iterator_tag@0@@Z PROC ; std::_Uninit_move<FSMState *,FSMState *,FSMState *>, COMDAT

; 456  : 	{	// move [_First, _Last) to raw _Dest, scalar type

  00000	55		 push	 ebp
  00001	8b ec		 mov	 ebp, esp
  00003	56		 push	 esi

; 457  : 	_DEBUG_RANGE(_First, _Last);
; 458  : 	_DEBUG_POINTER(_Dest);
; 459  : 	size_t _Count = (size_t)(_Last - _First);

  00004	8b 75 0c	 mov	 esi, DWORD PTR __Last$[ebp]
  00007	2b 75 08	 sub	 esi, DWORD PTR __First$[ebp]
  0000a	c1 fe 02	 sar	 esi, 2

; 460  : 	return ((_Ty2 *)_CSTD memmove(&*_Dest, &*_First,
; 461  : 		_Count * sizeof (*_First)) + _Count);	// NB: non-overlapping move

  0000d	c1 e6 02	 shl	 esi, 2
  00010	56		 push	 esi
  00011	ff 75 08	 push	 DWORD PTR __First$[ebp]
  00014	ff 75 10	 push	 DWORD PTR __Dest$[ebp]
  00017	ff 15 00 00 00
	00		 call	 DWORD PTR __imp__memmove
  0001d	83 c4 0c	 add	 esp, 12			; 0000000cH
  00020	03 c6		 add	 eax, esi
  00022	5e		 pop	 esi

; 462  : 	}

  00023	5d		 pop	 ebp
  00024	c3		 ret	 0
??$_Uninit_move@PAVFSMState@@PAV1@PAV1@@std@@YAPAPAVFSMState@@PAPAV1@00AAV?$allocator@PAVFSMState@@@0@0U_Scalar_ptr_iterator_tag@0@@Z ENDP ; std::_Uninit_move<FSMState *,FSMState *,FSMState *>
_TEXT	ENDS
PUBLIC	?_Adopt@_Iterator_base0@std@@QAEXPBX@Z		; std::_Iterator_base0::_Adopt
; Function compile flags: /Ogsp
; File c:\program files (x86)\microsoft visual studio 10.0\vc\include\xutility
;	COMDAT ?_Adopt@_Iterator_base0@std@@QAEXPBX@Z
_TEXT	SEGMENT
___formal$ = 8						; size = 4
?_Adopt@_Iterator_base0@std@@QAEXPBX@Z PROC		; std::_Iterator_base0::_Adopt, COMDAT
; _this$ = ecx

; 49   : 		}

  00000	c2 04 00	 ret	 4
?_Adopt@_Iterator_base0@std@@QAEXPBX@Z ENDP		; std::_Iterator_base0::_Adopt
_TEXT	ENDS
PUBLIC	?GetState@FSMState@@QBEHXZ			; FSMState::GetState
; Function compile flags: /Ogsp
; File d:\lost saga for developer\youtube\tutorial\source\src\lsclient\gui\fsmstatemgr.h
;	COMDAT ?GetState@FSMState@@QBEHXZ
_TEXT	SEGMENT
?GetState@FSMState@@QBEHXZ PROC				; FSMState::GetState, COMDAT
; _this$ = ecx

; 17   : 	int GetState()const { return m_iState; }

  00000	8b 41 04	 mov	 eax, DWORD PTR [ecx+4]
  00003	c3		 ret	 0
?GetState@FSMState@@QBEHXZ ENDP				; FSMState::GetState
_TEXT	ENDS
PUBLIC	?size@?$vector@HV?$allocator@H@std@@@std@@QBEIXZ ; std::vector<int,std::allocator<int> >::size
; Function compile flags: /Ogsp
; File c:\program files (x86)\microsoft visual studio 10.0\vc\include\vector
;	COMDAT ?size@?$vector@HV?$allocator@H@std@@@std@@QBEIXZ
_TEXT	SEGMENT
?size@?$vector@HV?$allocator@H@std@@@std@@QBEIXZ PROC	; std::vector<int,std::allocator<int> >::size, COMDAT
; _this$ = ecx

; 879  : 		return (this->_Mylast - this->_Myfirst);

  00000	8b 41 04	 mov	 eax, DWORD PTR [ecx+4]
  00003	2b 01		 sub	 eax, DWORD PTR [ecx]
  00005	c1 f8 02	 sar	 eax, 2

; 880  : 		}

  00008	c3		 ret	 0
?size@?$vector@HV?$allocator@H@std@@@std@@QBEIXZ ENDP	; std::vector<int,std::allocator<int> >::size
_TEXT	ENDS
PUBLIC	??A?$vector@HV?$allocator@H@std@@@std@@QAEAAHI@Z ; std::vector<int,std::allocator<int> >::operator[]
; Function compile flags: /Ogsp
;	COMDAT ??A?$vector@HV?$allocator@H@std@@@std@@QAEAAHI@Z
_TEXT	SEGMENT
__Pos$ = 8						; size = 4
??A?$vector@HV?$allocator@H@std@@@std@@QAEAAHI@Z PROC	; std::vector<int,std::allocator<int> >::operator[], COMDAT
; _this$ = ecx

; 928  : 		{	// subscript mutable sequence

  00000	55		 push	 ebp
  00001	8b ec		 mov	 ebp, esp

; 929  :  #if _ITERATOR_DEBUG_LEVEL == 2
; 930  : 		if (size() <= _Pos)
; 931  : 			{	// report error
; 932  : 			_DEBUG_ERROR("vector subscript out of range");
; 933  : 			_SCL_SECURE_OUT_OF_RANGE;
; 934  : 			}
; 935  : 
; 936  :  #elif _ITERATOR_DEBUG_LEVEL == 1
; 937  : 		_SCL_SECURE_VALIDATE_RANGE(_Pos < size());
; 938  :  #endif /* _ITERATOR_DEBUG_LEVEL */
; 939  : 
; 940  : 		return (*(this->_Myfirst + _Pos));

  00003	8b 01		 mov	 eax, DWORD PTR [ecx]
  00005	8b 4d 08	 mov	 ecx, DWORD PTR __Pos$[ebp]
  00008	8d 04 88	 lea	 eax, DWORD PTR [eax+ecx*4]

; 941  : 		}

  0000b	5d		 pop	 ebp
  0000c	c2 04 00	 ret	 4
??A?$vector@HV?$allocator@H@std@@@std@@QAEAAHI@Z ENDP	; std::vector<int,std::allocator<int> >::operator[]
_TEXT	ENDS
PUBLIC	??0?$allocator@H@std@@QAE@XZ			; std::allocator<int>::allocator<int>
; Function compile flags: /Ogsp
; File c:\program files (x86)\microsoft visual studio 10.0\vc\include\xmemory
;	COMDAT ??0?$allocator@H@std@@QAE@XZ
_TEXT	SEGMENT
??0?$allocator@H@std@@QAE@XZ PROC			; std::allocator<int>::allocator<int>, COMDAT
; _this$ = ecx

; 161  : 	_ALLOCATOR() _THROW0()

  00000	8b c1		 mov	 eax, ecx

; 162  : 		{	// construct default allocator (do nothing)
; 163  : 		}

  00002	c3		 ret	 0
??0?$allocator@H@std@@QAE@XZ ENDP			; std::allocator<int>::allocator<int>
_TEXT	ENDS
PUBLIC	??1?$_Vector_val@HV?$allocator@H@std@@@std@@QAE@XZ ; std::_Vector_val<int,std::allocator<int> >::~_Vector_val<int,std::allocator<int> >
; Function compile flags: /Ogsp
; File c:\program files (x86)\microsoft visual studio 10.0\vc\include\vector
;	COMDAT ??1?$_Vector_val@HV?$allocator@H@std@@@std@@QAE@XZ
_TEXT	SEGMENT
??1?$_Vector_val@HV?$allocator@H@std@@@std@@QAE@XZ PROC	; std::_Vector_val<int,std::allocator<int> >::~_Vector_val<int,std::allocator<int> >, COMDAT
; _this$ = ecx

; 434  : 		}

  00000	c3		 ret	 0
??1?$_Vector_val@HV?$allocator@H@std@@@std@@QAE@XZ ENDP	; std::_Vector_val<int,std::allocator<int> >::~_Vector_val<int,std::allocator<int> >
_TEXT	ENDS
PUBLIC	??0?$_Vector_const_iterator@V?$_Vector_val@HV?$allocator@H@std@@@std@@@std@@QAE@PAHPBU_Container_base0@1@@Z ; std::_Vector_const_iterator<std::_Vector_val<int,std::allocator<int> > >::_Vector_const_iterator<std::_Vector_val<int,std::allocator<int> > >
; Function compile flags: /Ogsp
;	COMDAT ??0?$_Vector_const_iterator@V?$_Vector_val@HV?$allocator@H@std@@@std@@@std@@QAE@PAHPBU_Container_base0@1@@Z
_TEXT	SEGMENT
__Parg$ = 8						; size = 4
__Pvector$ = 12						; size = 4
??0?$_Vector_const_iterator@V?$_Vector_val@HV?$allocator@H@std@@@std@@@std@@QAE@PAHPBU_Container_base0@1@@Z PROC ; std::_Vector_const_iterator<std::_Vector_val<int,std::allocator<int> > >::_Vector_const_iterator<std::_Vector_val<int,std::allocator<int> > >, COMDAT
; _this$ = ecx

; 45   : 		{	// construct with pointer _Parg

  00000	55		 push	 ebp
  00001	8b ec		 mov	 ebp, esp
  00003	8b c1		 mov	 eax, ecx
  00005	8b 4d 08	 mov	 ecx, DWORD PTR __Parg$[ebp]
  00008	89 08		 mov	 DWORD PTR [eax], ecx

; 46   : 		this->_Adopt(_Pvector);
; 47   : 		}

  0000a	5d		 pop	 ebp
  0000b	c2 08 00	 ret	 8
??0?$_Vector_const_iterator@V?$_Vector_val@HV?$allocator@H@std@@@std@@@std@@QAE@PAHPBU_Container_base0@1@@Z ENDP ; std::_Vector_const_iterator<std::_Vector_val<int,std::allocator<int> > >::_Vector_const_iterator<std::_Vector_val<int,std::allocator<int> > >
_TEXT	ENDS
PUBLIC	??0?$_Vector_iterator@V?$_Vector_val@HV?$allocator@H@std@@@std@@@std@@QAE@PAHPBU_Container_base0@1@@Z ; std::_Vector_iterator<std::_Vector_val<int,std::allocator<int> > >::_Vector_iterator<std::_Vector_val<int,std::allocator<int> > >
; Function compile flags: /Ogsp
;	COMDAT ??0?$_Vector_iterator@V?$_Vector_val@HV?$allocator@H@std@@@std@@@std@@QAE@PAHPBU_Container_base0@1@@Z
_TEXT	SEGMENT
__Parg$ = 8						; size = 4
__Pvector$ = 12						; size = 4
??0?$_Vector_iterator@V?$_Vector_val@HV?$allocator@H@std@@@std@@@std@@QAE@PAHPBU_Container_base0@1@@Z PROC ; std::_Vector_iterator<std::_Vector_val<int,std::allocator<int> > >::_Vector_iterator<std::_Vector_val<int,std::allocator<int> > >, COMDAT
; _this$ = ecx

; 304  : 		{	// construct with pointer _Parg

  00000	55		 push	 ebp
  00001	8b ec		 mov	 ebp, esp
  00003	8b c1		 mov	 eax, ecx
  00005	8b 4d 08	 mov	 ecx, DWORD PTR __Parg$[ebp]
  00008	89 08		 mov	 DWORD PTR [eax], ecx

; 305  : 		}

  0000a	5d		 pop	 ebp
  0000b	c2 08 00	 ret	 8
??0?$_Vector_iterator@V?$_Vector_val@HV?$allocator@H@std@@@std@@@std@@QAE@PAHPBU_Container_base0@1@@Z ENDP ; std::_Vector_iterator<std::_Vector_val<int,std::allocator<int> > >::_Vector_iterator<std::_Vector_val<int,std::allocator<int> > >
_TEXT	ENDS
PUBLIC	??0?$allocator@H@std@@QAE@ABV01@@Z		; std::allocator<int>::allocator<int>
; Function compile flags: /Ogsp
; File c:\program files (x86)\microsoft visual studio 10.0\vc\include\xmemory
;	COMDAT ??0?$allocator@H@std@@QAE@ABV01@@Z
_TEXT	SEGMENT
___formal$ = 8						; size = 4
??0?$allocator@H@std@@QAE@ABV01@@Z PROC			; std::allocator<int>::allocator<int>, COMDAT
; _this$ = ecx

; 165  : 	_ALLOCATOR(const _ALLOCATOR<_Ty>&) _THROW0()

  00000	8b c1		 mov	 eax, ecx

; 166  : 		{	// construct by copying (do nothing)
; 167  : 		}

  00002	c2 04 00	 ret	 4
??0?$allocator@H@std@@QAE@ABV01@@Z ENDP			; std::allocator<int>::allocator<int>
_TEXT	ENDS
PUBLIC	?deallocate@?$allocator@H@std@@QAEXPAHI@Z	; std::allocator<int>::deallocate
; Function compile flags: /Ogsp
;	COMDAT ?deallocate@?$allocator@H@std@@QAEXPAHI@Z
_TEXT	SEGMENT
__Ptr$ = 8						; size = 4
___formal$ = 12						; size = 4
?deallocate@?$allocator@H@std@@QAEXPAHI@Z PROC		; std::allocator<int>::deallocate, COMDAT
; _this$ = ecx

; 181  : 		{	// deallocate object at _Ptr, ignore size

  00000	55		 push	 ebp
  00001	8b ec		 mov	 ebp, esp

; 182  : 		::operator delete(_Ptr);

  00003	ff 75 08	 push	 DWORD PTR __Ptr$[ebp]
  00006	e8 00 00 00 00	 call	 ??3@YAXPAX@Z		; operator delete
  0000b	59		 pop	 ecx

; 183  : 		}

  0000c	5d		 pop	 ebp
  0000d	c2 08 00	 ret	 8
?deallocate@?$allocator@H@std@@QAEXPAHI@Z ENDP		; std::allocator<int>::deallocate
_TEXT	ENDS
PUBLIC	?capacity@?$vector@HV?$allocator@H@std@@@std@@QBEIXZ ; std::vector<int,std::allocator<int> >::capacity
; Function compile flags: /Ogsp
; File c:\program files (x86)\microsoft visual studio 10.0\vc\include\vector
;	COMDAT ?capacity@?$vector@HV?$allocator@H@std@@@std@@QBEIXZ
_TEXT	SEGMENT
?capacity@?$vector@HV?$allocator@H@std@@@std@@QBEIXZ PROC ; std::vector<int,std::allocator<int> >::capacity, COMDAT
; _this$ = ecx

; 777  : 		return (this->_Myend - this->_Myfirst);

  00000	8b 41 08	 mov	 eax, DWORD PTR [ecx+8]
  00003	2b 01		 sub	 eax, DWORD PTR [ecx]
  00005	c1 f8 02	 sar	 eax, 2

; 778  : 		}

  00008	c3		 ret	 0
?capacity@?$vector@HV?$allocator@H@std@@@std@@QBEIXZ ENDP ; std::vector<int,std::allocator<int> >::capacity
_TEXT	ENDS
PUBLIC	?_Make_iter@?$vector@HV?$allocator@H@std@@@std@@QBE?AV?$_Vector_iterator@V?$_Vector_val@HV?$allocator@H@std@@@std@@@2@V?$_Vector_const_iterator@V?$_Vector_val@HV?$allocator@H@std@@@std@@@2@@Z ; std::vector<int,std::allocator<int> >::_Make_iter
; Function compile flags: /Ogsp
;	COMDAT ?_Make_iter@?$vector@HV?$allocator@H@std@@@std@@QBE?AV?$_Vector_iterator@V?$_Vector_val@HV?$allocator@H@std@@@std@@@2@V?$_Vector_const_iterator@V?$_Vector_val@HV?$allocator@H@std@@@std@@@2@@Z
_TEXT	SEGMENT
___$ReturnUdt$ = 8					; size = 4
__Where$ = 12						; size = 4
?_Make_iter@?$vector@HV?$allocator@H@std@@@std@@QBE?AV?$_Vector_iterator@V?$_Vector_val@HV?$allocator@H@std@@@std@@@2@V?$_Vector_const_iterator@V?$_Vector_val@HV?$allocator@H@std@@@std@@@2@@Z PROC ; std::vector<int,std::allocator<int> >::_Make_iter, COMDAT
; _this$ = ecx

; 801  : 		{	// make iterator from const_iterator

  00000	55		 push	 ebp
  00001	8b ec		 mov	 ebp, esp

; 802  : 		return (iterator(_Where._Ptr, this));

  00003	8b 45 08	 mov	 eax, DWORD PTR ___$ReturnUdt$[ebp]
  00006	8b 4d 0c	 mov	 ecx, DWORD PTR __Where$[ebp]
  00009	89 08		 mov	 DWORD PTR [eax], ecx

; 803  : 		}

  0000b	5d		 pop	 ebp
  0000c	c2 08 00	 ret	 8
?_Make_iter@?$vector@HV?$allocator@H@std@@@std@@QBE?AV?$_Vector_iterator@V?$_Vector_val@HV?$allocator@H@std@@@std@@@2@V?$_Vector_const_iterator@V?$_Vector_val@HV?$allocator@H@std@@@std@@@2@@Z ENDP ; std::vector<int,std::allocator<int> >::_Make_iter
_TEXT	ENDS
PUBLIC	?_Xlen@?$vector@HV?$allocator@H@std@@@std@@IBEXXZ ; std::vector<int,std::allocator<int> >::_Xlen
; Function compile flags: /Ogsp
;	COMDAT ?_Xlen@?$vector@HV?$allocator@H@std@@@std@@IBEXXZ
_TEXT	SEGMENT
?_Xlen@?$vector@HV?$allocator@H@std@@@std@@IBEXXZ PROC	; std::vector<int,std::allocator<int> >::_Xlen, COMDAT
; _this$ = ecx

; 1427 : 		_Xlength_error("vector<T> too long");

  00000	68 00 00 00 00	 push	 OFFSET ??_C@_0BD@OLBABOEK@vector?$DMT?$DO?5too?5long?$AA@
  00005	ff 15 00 00 00
	00		 call	 DWORD PTR __imp_?_Xlength_error@std@@YAXPBD@Z
$LN4@Xlen@2:
$LN3@Xlen@2:
  0000b	cc		 int	 3
?_Xlen@?$vector@HV?$allocator@H@std@@@std@@IBEXXZ ENDP	; std::vector<int,std::allocator<int> >::_Xlen
_TEXT	ENDS
PUBLIC	?max_size@?$allocator@H@std@@QBEIXZ		; std::allocator<int>::max_size
; Function compile flags: /Ogsp
; File c:\program files (x86)\microsoft visual studio 10.0\vc\include\xmemory
;	COMDAT ?max_size@?$allocator@H@std@@QBEIXZ
_TEXT	SEGMENT
?max_size@?$allocator@H@std@@QBEIXZ PROC		; std::allocator<int>::max_size, COMDAT
; _this$ = ecx

; 218  : 		_SIZT _Count = (_SIZT)(-1) / sizeof (_Ty);
; 219  : 		return (0 < _Count ? _Count : 1);

  00000	b8 ff ff ff 3f	 mov	 eax, 1073741823		; 3fffffffH

; 220  : 		}

  00005	c3		 ret	 0
?max_size@?$allocator@H@std@@QBEIXZ ENDP		; std::allocator<int>::max_size
_TEXT	ENDS
PUBLIC	??Y?$_Vector_const_iterator@V?$_Vector_val@HV?$allocator@H@std@@@std@@@std@@QAEAAV01@H@Z ; std::_Vector_const_iterator<std::_Vector_val<int,std::allocator<int> > >::operator+=
; Function compile flags: /Ogsp
; File c:\program files (x86)\microsoft visual studio 10.0\vc\include\vector
;	COMDAT ??Y?$_Vector_const_iterator@V?$_Vector_val@HV?$allocator@H@std@@@std@@@std@@QAEAAV01@H@Z
_TEXT	SEGMENT
__Off$ = 8						; size = 4
??Y?$_Vector_const_iterator@V?$_Vector_val@HV?$allocator@H@std@@@std@@@std@@QAEAAV01@H@Z PROC ; std::_Vector_const_iterator<std::_Vector_val<int,std::allocator<int> > >::operator+=, COMDAT
; _this$ = ecx

; 151  : 		{	// increment by integer

  00000	55		 push	 ebp
  00001	8b ec		 mov	 ebp, esp
  00003	8b c1		 mov	 eax, ecx

; 152  :  #if _ITERATOR_DEBUG_LEVEL == 2
; 153  : 		if (this->_Getcont() == 0
; 154  : 			|| this->_Ptr + _Off < ((_Myvec *)this->_Getcont())->_Myfirst
; 155  : 			|| ((_Myvec *)this->_Getcont())->_Mylast < this->_Ptr + _Off)
; 156  : 			{	// report error
; 157  : 			_DEBUG_ERROR("vector iterator + offset out of range");
; 158  : 			_SCL_SECURE_OUT_OF_RANGE;
; 159  : 			}
; 160  : 
; 161  :  #elif _ITERATOR_DEBUG_LEVEL == 1
; 162  : 		_SCL_SECURE_VALIDATE(this->_Getcont() != 0);
; 163  : 		_SCL_SECURE_VALIDATE_RANGE(
; 164  : 			((_Myvec *)this->_Getcont())->_Myfirst <= this->_Ptr + _Off
; 165  : 			&& this->_Ptr + _Off <= ((_Myvec *)this->_Getcont())->_Mylast);
; 166  :  #endif /* _ITERATOR_DEBUG_LEVEL */
; 167  : 
; 168  : 		_Ptr += _Off;

  00005	8b 4d 08	 mov	 ecx, DWORD PTR __Off$[ebp]
  00008	c1 e1 02	 shl	 ecx, 2
  0000b	01 08		 add	 DWORD PTR [eax], ecx

; 169  : 		return (*this);
; 170  : 		}

  0000d	5d		 pop	 ebp
  0000e	c2 04 00	 ret	 4
??Y?$_Vector_const_iterator@V?$_Vector_val@HV?$allocator@H@std@@@std@@@std@@QAEAAV01@H@Z ENDP ; std::_Vector_const_iterator<std::_Vector_val<int,std::allocator<int> > >::operator+=
_TEXT	ENDS
PUBLIC	?_Compat@?$_Vector_const_iterator@V?$_Vector_val@HV?$allocator@H@std@@@std@@@std@@QBEXABV12@@Z ; std::_Vector_const_iterator<std::_Vector_val<int,std::allocator<int> > >::_Compat
; Function compile flags: /Ogsp
;	COMDAT ?_Compat@?$_Vector_const_iterator@V?$_Vector_val@HV?$allocator@H@std@@@std@@@std@@QBEXABV12@@Z
_TEXT	SEGMENT
___formal$ = 8						; size = 4
?_Compat@?$_Vector_const_iterator@V?$_Vector_val@HV?$allocator@H@std@@@std@@@std@@QBEXABV12@@Z PROC ; std::_Vector_const_iterator<std::_Vector_val<int,std::allocator<int> > >::_Compat, COMDAT
; _this$ = ecx

; 253  : 		}

  00000	c2 04 00	 ret	 4
?_Compat@?$_Vector_const_iterator@V?$_Vector_val@HV?$allocator@H@std@@@std@@@std@@QBEXABV12@@Z ENDP ; std::_Vector_const_iterator<std::_Vector_val<int,std::allocator<int> > >::_Compat
_TEXT	ENDS
PUBLIC	??$_Allocate@H@std@@YAPAHIPAH@Z			; std::_Allocate<int>
; Function compile flags: /Ogsp
; File c:\program files (x86)\microsoft visual studio 10.0\vc\include\xmemory
;	COMDAT ??$_Allocate@H@std@@YAPAHIPAH@Z
_TEXT	SEGMENT
$T506454 = -12						; size = 12
$T506458 = 8						; size = 4
__Count$ = 8						; size = 4
___formal$ = 12						; size = 4
??$_Allocate@H@std@@YAPAHIPAH@Z PROC			; std::_Allocate<int>, COMDAT

; 30   : 	{	// allocate storage for _Count elements of type _Ty

  00000	55		 push	 ebp
  00001	8b ec		 mov	 ebp, esp

; 31   : 	void *_Ptr = 0;
; 32   : 
; 33   : 	if (_Count <= 0)

  00003	8b 4d 08	 mov	 ecx, DWORD PTR __Count$[ebp]
  00006	83 ec 0c	 sub	 esp, 12			; 0000000cH
  00009	33 c0		 xor	 eax, eax
  0000b	85 c9		 test	 ecx, ecx

; 34   : 		_Count = 0;
; 35   : 	else if (((_SIZT)(-1) / sizeof (_Ty) < _Count)

  0000d	74 3e		 je	 SHORT $LN5@Allocate@2

; 36   : 		|| (_Ptr = ::operator new(_Count * sizeof (_Ty))) == 0)

  0000f	81 f9 ff ff ff
	3f		 cmp	 ecx, 1073741823		; 3fffffffH
  00015	77 10		 ja	 SHORT $LN1@Allocate@2
  00017	8b c1		 mov	 eax, ecx
  00019	c1 e0 02	 shl	 eax, 2
  0001c	50		 push	 eax
  0001d	e8 00 00 00 00	 call	 ??2@YAPAXI@Z		; operator new
  00022	59		 pop	 ecx
  00023	85 c0		 test	 eax, eax

; 38   : 
; 39   : 	return ((_Ty _FARQ *)_Ptr);

  00025	75 26		 jne	 SHORT $LN5@Allocate@2
$LN1@Allocate@2:

; 37   : 		_THROW_NCEE(bad_alloc, 0);

  00027	83 65 08 00	 and	 DWORD PTR $T506458[ebp], 0
  0002b	8d 45 08	 lea	 eax, DWORD PTR $T506458[ebp]
  0002e	50		 push	 eax
  0002f	8d 4d f4	 lea	 ecx, DWORD PTR $T506454[ebp]
  00032	ff 15 00 00 00
	00		 call	 DWORD PTR __imp_??0exception@std@@QAE@ABQBD@Z
  00038	68 00 00 00 00	 push	 OFFSET __TI2?AVbad_alloc@std@@
  0003d	8d 45 f4	 lea	 eax, DWORD PTR $T506454[ebp]
  00040	50		 push	 eax
  00041	c7 45 f4 00 00
	00 00		 mov	 DWORD PTR $T506454[ebp], OFFSET ??_7bad_alloc@std@@6B@
  00048	e8 00 00 00 00	 call	 __CxxThrowException@8
$LN10@Allocate@2:
$LN5@Allocate@2:

; 40   : 	}

  0004d	c9		 leave
  0004e	c3		 ret	 0
$LN9@Allocate@2:
??$_Allocate@H@std@@YAPAHIPAH@Z ENDP			; std::_Allocate<int>
_TEXT	ENDS
EXTRN	__imp_??0exception@std@@QAE@ABV01@@Z:PROC
; Function compile flags: /Ogsp
;	COMDAT ??0bad_alloc@std@@QAE@ABV01@@Z
_TEXT	SEGMENT
___that$ = 8						; size = 4
??0bad_alloc@std@@QAE@ABV01@@Z PROC			; std::bad_alloc::bad_alloc, COMDAT
; _this$ = ecx
  00000	55		 push	 ebp
  00001	8b ec		 mov	 ebp, esp
  00003	56		 push	 esi
  00004	ff 75 08	 push	 DWORD PTR ___that$[ebp]
  00007	8b f1		 mov	 esi, ecx
  00009	ff 15 00 00 00
	00		 call	 DWORD PTR __imp_??0exception@std@@QAE@ABV01@@Z
  0000f	c7 06 00 00 00
	00		 mov	 DWORD PTR [esi], OFFSET ??_7bad_alloc@std@@6B@
  00015	8b c6		 mov	 eax, esi
  00017	5e		 pop	 esi
  00018	5d		 pop	 ebp
  00019	c2 04 00	 ret	 4
??0bad_alloc@std@@QAE@ABV01@@Z ENDP			; std::bad_alloc::bad_alloc
_TEXT	ENDS
PUBLIC	??$forward@AAH@std@@YAAAHAAH@Z			; std::forward<int &>
; Function compile flags: /Ogsp
; File c:\program files (x86)\microsoft visual studio 10.0\vc\include\utility
;	COMDAT ??$forward@AAH@std@@YAAAHAAH@Z
_TEXT	SEGMENT
__Arg$ = 8						; size = 4
??$forward@AAH@std@@YAAAHAAH@Z PROC			; std::forward<int &>, COMDAT

; 78   : 	{	// forward _Arg, given explicitly specified type parameter

  00000	55		 push	 ebp
  00001	8b ec		 mov	 ebp, esp

; 79   : 	return ((_Ty&&)_Arg);

  00003	8b 45 08	 mov	 eax, DWORD PTR __Arg$[ebp]

; 80   : 	}

  00006	5d		 pop	 ebp
  00007	c3		 ret	 0
??$forward@AAH@std@@YAAAHAAH@Z ENDP			; std::forward<int &>
_TEXT	ENDS
PUBLIC	??$_Val_type@PAH@std@@YAPAHPAH@Z		; std::_Val_type<int *>
; Function compile flags: /Ogsp
; File c:\program files (x86)\microsoft visual studio 10.0\vc\include\xutility
;	COMDAT ??$_Val_type@PAH@std@@YAPAHPAH@Z
_TEXT	SEGMENT
___formal$ = 8						; size = 4
??$_Val_type@PAH@std@@YAPAHPAH@Z PROC			; std::_Val_type<int *>, COMDAT

; 790  : 	return (0);

  00000	33 c0		 xor	 eax, eax

; 791  : 	}

  00002	c3		 ret	 0
??$_Val_type@PAH@std@@YAPAHPAH@Z ENDP			; std::_Val_type<int *>
_TEXT	ENDS
PUBLIC	??$_Ptr_cat@HH@std@@YA?AU_Scalar_ptr_iterator_tag@0@PAH0@Z ; std::_Ptr_cat<int,int>
; Function compile flags: /Ogsp
;	COMDAT ??$_Ptr_cat@HH@std@@YA?AU_Scalar_ptr_iterator_tag@0@PAH0@Z
_TEXT	SEGMENT
__Cat$ = -1						; size = 1
___formal$ = 8						; size = 4
___formal$ = 12						; size = 4
??$_Ptr_cat@HH@std@@YA?AU_Scalar_ptr_iterator_tag@0@PAH0@Z PROC ; std::_Ptr_cat<int,int>, COMDAT

; 516  : 	{	// return pointer category from pointers

  00000	55		 push	 ebp
  00001	8b ec		 mov	 ebp, esp
  00003	51		 push	 ecx

; 517  : 	typename _Ptr_cat_helper<_Elem1, _Elem2>::_Type _Cat;
; 518  : 	return (_Cat);

  00004	8a 45 ff	 mov	 al, BYTE PTR __Cat$[ebp]

; 519  : 	}

  00007	c9		 leave
  00008	c3		 ret	 0
??$_Ptr_cat@HH@std@@YA?AU_Scalar_ptr_iterator_tag@0@PAH0@Z ENDP ; std::_Ptr_cat<int,int>
_TEXT	ENDS
PUBLIC	??$_Move@PAHPAH@std@@YAPAHPAH00U_Scalar_ptr_iterator_tag@0@@Z ; std::_Move<int *,int *>
; Function compile flags: /Ogsp
;	COMDAT ??$_Move@PAHPAH@std@@YAPAHPAH00U_Scalar_ptr_iterator_tag@0@@Z
_TEXT	SEGMENT
__First$ = 8						; size = 4
__Last$ = 12						; size = 4
__Dest$ = 16						; size = 4
___formal$ = 20						; size = 1
??$_Move@PAHPAH@std@@YAPAHPAH00U_Scalar_ptr_iterator_tag@0@@Z PROC ; std::_Move<int *,int *>, COMDAT

; 2522 : 	{	// move [_First, _Last) to [_Dest, ...), pointers to scalars

  00000	55		 push	 ebp
  00001	8b ec		 mov	 ebp, esp
  00003	56		 push	 esi

; 2523 : 	ptrdiff_t _Count = _Last - _First;

  00004	8b 75 0c	 mov	 esi, DWORD PTR __Last$[ebp]
  00007	2b 75 08	 sub	 esi, DWORD PTR __First$[ebp]
  0000a	57		 push	 edi

; 2524 : 	_CSTD memmove(&*_Dest, &*_First,
; 2525 : 		_Count * sizeof (*_First));

  0000b	8b 7d 10	 mov	 edi, DWORD PTR __Dest$[ebp]
  0000e	c1 fe 02	 sar	 esi, 2
  00011	c1 e6 02	 shl	 esi, 2
  00014	56		 push	 esi
  00015	ff 75 08	 push	 DWORD PTR __First$[ebp]
  00018	57		 push	 edi
  00019	ff 15 00 00 00
	00		 call	 DWORD PTR __imp__memmove
  0001f	83 c4 0c	 add	 esp, 12			; 0000000cH

; 2526 : 	return (_Dest + _Count);

  00022	8d 04 3e	 lea	 eax, DWORD PTR [esi+edi]
  00025	5f		 pop	 edi
  00026	5e		 pop	 esi

; 2527 : 	}

  00027	5d		 pop	 ebp
  00028	c3		 ret	 0
??$_Move@PAHPAH@std@@YAPAHPAH00U_Scalar_ptr_iterator_tag@0@@Z ENDP ; std::_Move<int *,int *>
_TEXT	ENDS
PUBLIC	??$_Destroy_range@V?$allocator@H@std@@@std@@YAXPAH0AAV?$allocator@H@0@U_Scalar_ptr_iterator_tag@0@@Z ; std::_Destroy_range<std::allocator<int> >
; Function compile flags: /Ogsp
; File c:\program files (x86)\microsoft visual studio 10.0\vc\include\xmemory
;	COMDAT ??$_Destroy_range@V?$allocator@H@std@@@std@@YAXPAH0AAV?$allocator@H@0@U_Scalar_ptr_iterator_tag@0@@Z
_TEXT	SEGMENT
__First$ = 8						; size = 4
__Last$ = 12						; size = 4
__Al$ = 16						; size = 4
___formal$ = 20						; size = 1
??$_Destroy_range@V?$allocator@H@std@@@std@@YAXPAH0AAV?$allocator@H@0@U_Scalar_ptr_iterator_tag@0@@Z PROC ; std::_Destroy_range<std::allocator<int> >, COMDAT

; 105  : 	}

  00000	c3		 ret	 0
??$_Destroy_range@V?$allocator@H@std@@@std@@YAXPAH0AAV?$allocator@H@0@U_Scalar_ptr_iterator_tag@0@@Z ENDP ; std::_Destroy_range<std::allocator<int> >
_TEXT	ENDS
PUBLIC	??$_Uninit_move@HHH@std@@YAPAHPAH00AAV?$allocator@H@0@0U_Scalar_ptr_iterator_tag@0@@Z ; std::_Uninit_move<int,int,int>
; Function compile flags: /Ogsp
; File c:\program files (x86)\microsoft visual studio 10.0\vc\include\memory
;	COMDAT ??$_Uninit_move@HHH@std@@YAPAHPAH00AAV?$allocator@H@0@0U_Scalar_ptr_iterator_tag@0@@Z
_TEXT	SEGMENT
__First$ = 8						; size = 4
__Last$ = 12						; size = 4
__Dest$ = 16						; size = 4
___formal$ = 20						; size = 4
___formal$ = 24						; size = 4
___formal$ = 28						; size = 1
??$_Uninit_move@HHH@std@@YAPAHPAH00AAV?$allocator@H@0@0U_Scalar_ptr_iterator_tag@0@@Z PROC ; std::_Uninit_move<int,int,int>, COMDAT

; 456  : 	{	// move [_First, _Last) to raw _Dest, scalar type

  00000	55		 push	 ebp
  00001	8b ec		 mov	 ebp, esp
  00003	56		 push	 esi

; 457  : 	_DEBUG_RANGE(_First, _Last);
; 458  : 	_DEBUG_POINTER(_Dest);
; 459  : 	size_t _Count = (size_t)(_Last - _First);

  00004	8b 75 0c	 mov	 esi, DWORD PTR __Last$[ebp]
  00007	2b 75 08	 sub	 esi, DWORD PTR __First$[ebp]
  0000a	c1 fe 02	 sar	 esi, 2

; 460  : 	return ((_Ty2 *)_CSTD memmove(&*_Dest, &*_First,
; 461  : 		_Count * sizeof (*_First)) + _Count);	// NB: non-overlapping move

  0000d	c1 e6 02	 shl	 esi, 2
  00010	56		 push	 esi
  00011	ff 75 08	 push	 DWORD PTR __First$[ebp]
  00014	ff 75 10	 push	 DWORD PTR __Dest$[ebp]
  00017	ff 15 00 00 00
	00		 call	 DWORD PTR __imp__memmove
  0001d	83 c4 0c	 add	 esp, 12			; 0000000cH
  00020	03 c6		 add	 eax, esi
  00022	5e		 pop	 esi

; 462  : 	}

  00023	5d		 pop	 ebp
  00024	c3		 ret	 0
??$_Uninit_move@HHH@std@@YAPAHPAH00AAV?$allocator@H@0@0U_Scalar_ptr_iterator_tag@0@@Z ENDP ; std::_Uninit_move<int,int,int>
_TEXT	ENDS
PUBLIC	?GetOutput@FSMState@@QAEHHK@Z			; FSMState::GetOutput
; Function compile flags: /Ogsp
; File d:\lost saga for developer\youtube\tutorial\source\src\lsclient\gui\fsmstatemgr.cpp
;	COMDAT ?GetOutput@FSMState@@QAEHHK@Z
_TEXT	SEGMENT
_a_iInput$ = 8						; size = 4
_a_dwCurTime$ = 12					; size = 4
?GetOutput@FSMState@@QAEHHK@Z PROC			; FSMState::GetOutput, COMDAT
; _this$ = ecx

; 21   : {

  00000	55		 push	 ebp
  00001	8b ec		 mov	 ebp, esp

; 22   : 	int iSize = m_vInput.size();

  00003	8b 41 0c	 mov	 eax, DWORD PTR [ecx+12]
  00006	56		 push	 esi
  00007	8b 71 08	 mov	 esi, DWORD PTR [ecx+8]
  0000a	2b c6		 sub	 eax, esi
  0000c	c1 f8 02	 sar	 eax, 2

; 23   : 	for (int i = 0; i < iSize ; i++)

  0000f	33 d2		 xor	 edx, edx
  00011	57		 push	 edi
  00012	85 c0		 test	 eax, eax
  00014	7e 1d		 jle	 SHORT $LN4@GetOutput
$LL6@GetOutput:

; 24   : 	{
; 25   : 		if( a_iInput == m_vInput[i] )

  00016	8b 7d 08	 mov	 edi, DWORD PTR _a_iInput$[ebp]
  00019	3b 3c 96	 cmp	 edi, DWORD PTR [esi+edx*4]
  0001c	75 10		 jne	 SHORT $LN5@GetOutput

; 26   : 		{
; 27   : 			if( m_vDelay[i] == NONE_VALUE )

  0001e	8b 79 28	 mov	 edi, DWORD PTR [ecx+40]
  00021	8b 3c 97	 mov	 edi, DWORD PTR [edi+edx*4]
  00024	83 ff ff	 cmp	 edi, -1
  00027	74 13		 je	 SHORT $LN22@GetOutput

; 29   : 
; 30   : 			if( (int)m_vDelay[i] < (int)a_dwCurTime )

  00029	3b 7d 0c	 cmp	 edi, DWORD PTR _a_dwCurTime$[ebp]
  0002c	7c 0e		 jl	 SHORT $LN22@GetOutput
$LN5@GetOutput:

; 23   : 	for (int i = 0; i < iSize ; i++)

  0002e	42		 inc	 edx
  0002f	3b d0		 cmp	 edx, eax
  00031	7c e3		 jl	 SHORT $LL6@GetOutput
$LN4@GetOutput:

; 31   : 				return m_vOutput[i];
; 32   : 		}
; 33   : 	}
; 34   : 
; 35   : 	return m_iState;

  00033	8b 41 04	 mov	 eax, DWORD PTR [ecx+4]
$LN7@GetOutput:
  00036	5f		 pop	 edi
  00037	5e		 pop	 esi

; 36   : }

  00038	5d		 pop	 ebp
  00039	c2 08 00	 ret	 8
$LN22@GetOutput:

; 28   : 				return m_vOutput[i];

  0003c	8b 41 18	 mov	 eax, DWORD PTR [ecx+24]
  0003f	8b 04 90	 mov	 eax, DWORD PTR [eax+edx*4]
  00042	eb f2		 jmp	 SHORT $LN7@GetOutput
?GetOutput@FSMState@@QAEHHK@Z ENDP			; FSMState::GetOutput
_TEXT	ENDS
PUBLIC	?GetDelay@FSMState@@QAEHH@Z			; FSMState::GetDelay
; Function compile flags: /Ogsp
;	COMDAT ?GetDelay@FSMState@@QAEHH@Z
_TEXT	SEGMENT
_a_iInput$ = 8						; size = 4
?GetDelay@FSMState@@QAEHH@Z PROC			; FSMState::GetDelay, COMDAT
; _this$ = ecx

; 61   : {

  00000	55		 push	 ebp
  00001	8b ec		 mov	 ebp, esp

; 62   : 	int iSize = m_vInput.size();

  00003	8b 41 0c	 mov	 eax, DWORD PTR [ecx+12]
  00006	2b 41 08	 sub	 eax, DWORD PTR [ecx+8]
  00009	56		 push	 esi
  0000a	c1 f8 02	 sar	 eax, 2

; 63   : 	for (int i = 0; i < iSize ; i++)

  0000d	33 f6		 xor	 esi, esi
  0000f	57		 push	 edi
  00010	85 c0		 test	 eax, eax
  00012	7e 12		 jle	 SHORT $LN2@GetDelay

; 62   : 	int iSize = m_vInput.size();

  00014	8b 51 08	 mov	 edx, DWORD PTR [ecx+8]
$LL4@GetDelay:

; 64   : 	{
; 65   : 		if( a_iInput == m_vInput[i] )

  00017	8b 7d 08	 mov	 edi, DWORD PTR _a_iInput$[ebp]
  0001a	3b 3a		 cmp	 edi, DWORD PTR [edx]
  0001c	74 11		 je	 SHORT $LN14@GetDelay

; 63   : 	for (int i = 0; i < iSize ; i++)

  0001e	46		 inc	 esi
  0001f	83 c2 04	 add	 edx, 4
  00022	3b f0		 cmp	 esi, eax
  00024	7c f1		 jl	 SHORT $LL4@GetDelay
$LN2@GetDelay:

; 68   : 		}
; 69   : 	}
; 70   : 	return NONE_VALUE;

  00026	83 c8 ff	 or	 eax, -1
$LN5@GetDelay:
  00029	5f		 pop	 edi
  0002a	5e		 pop	 esi

; 71   : }

  0002b	5d		 pop	 ebp
  0002c	c2 04 00	 ret	 4
$LN14@GetDelay:

; 66   : 		{
; 67   : 			return m_vDelay[i];

  0002f	8b 41 28	 mov	 eax, DWORD PTR [ecx+40]
  00032	8b 04 b0	 mov	 eax, DWORD PTR [eax+esi*4]
  00035	eb f2		 jmp	 SHORT $LN5@GetDelay
?GetDelay@FSMState@@QAEHH@Z ENDP			; FSMState::GetDelay
_TEXT	ENDS
PUBLIC	?GetArray@FSMStateMgr@@IAEHXZ			; FSMStateMgr::GetArray
; Function compile flags: /Ogsp
;	COMDAT ?GetArray@FSMStateMgr@@IAEHXZ
_TEXT	SEGMENT
?GetArray@FSMStateMgr@@IAEHXZ PROC			; FSMStateMgr::GetArray, COMDAT
; _this$ = ecx

; 177  : 	int iSize = m_vState.size();

  00000	8b 51 1c	 mov	 edx, DWORD PTR [ecx+28]
  00003	53		 push	 ebx
  00004	56		 push	 esi
  00005	8b 71 18	 mov	 esi, DWORD PTR [ecx+24]
  00008	2b d6		 sub	 edx, esi
  0000a	c1 fa 02	 sar	 edx, 2

; 178  : 	for (int i = 0; i < iSize ; i++)

  0000d	33 c0		 xor	 eax, eax
  0000f	57		 push	 edi
  00010	85 d2		 test	 edx, edx
  00012	7e 17		 jle	 SHORT $LN3@GetArray
$LL18@GetArray:

; 179  : 	{
; 180  : 		if( !m_vState[i] ) continue;

  00014	83 3e 00	 cmp	 DWORD PTR [esi], 0
  00017	74 0a		 je	 SHORT $LN4@GetArray

; 181  : 		if( m_iCurState != m_vState[i]->GetState() ) continue;

  00019	8b 3e		 mov	 edi, DWORD PTR [esi]
  0001b	8b 59 04	 mov	 ebx, DWORD PTR [ecx+4]
  0001e	3b 5f 04	 cmp	 ebx, DWORD PTR [edi+4]
  00021	74 0b		 je	 SHORT $LN6@GetArray
$LN4@GetArray:

; 178  : 	for (int i = 0; i < iSize ; i++)

  00023	40		 inc	 eax
  00024	83 c6 04	 add	 esi, 4
  00027	3b c2		 cmp	 eax, edx
  00029	7c e9		 jl	 SHORT $LL18@GetArray
$LN3@GetArray:

; 182  : 		
; 183  : 		return i;
; 184  : 	}
; 185  : 
; 186  : 	return FSMState::NONE_VALUE;

  0002b	83 c8 ff	 or	 eax, -1
$LN6@GetArray:
  0002e	5f		 pop	 edi
  0002f	5e		 pop	 esi
  00030	5b		 pop	 ebx

; 187  : }

  00031	c3		 ret	 0
?GetArray@FSMStateMgr@@IAEHXZ ENDP			; FSMStateMgr::GetArray
_TEXT	ENDS
PUBLIC	??D?$_Vector_iterator@V?$_Vector_val@PAVFSMState@@V?$allocator@PAVFSMState@@@std@@@std@@@std@@QBEAAPAVFSMState@@XZ ; std::_Vector_iterator<std::_Vector_val<FSMState *,std::allocator<FSMState *> > >::operator*
; Function compile flags: /Ogsp
; File c:\program files (x86)\microsoft visual studio 10.0\vc\include\vector
;	COMDAT ??D?$_Vector_iterator@V?$_Vector_val@PAVFSMState@@V?$allocator@PAVFSMState@@@std@@@std@@@std@@QBEAAPAVFSMState@@XZ
_TEXT	SEGMENT
??D?$_Vector_iterator@V?$_Vector_val@PAVFSMState@@V?$allocator@PAVFSMState@@@std@@@std@@@std@@QBEAAPAVFSMState@@XZ PROC ; std::_Vector_iterator<std::_Vector_val<FSMState *,std::allocator<FSMState *> > >::operator*, COMDAT
; _this$ = ecx

; 322  : 		return ((reference)**(_Mybase *)this);

  00000	8b 01		 mov	 eax, DWORD PTR [ecx]

; 323  : 		}

  00002	c3		 ret	 0
??D?$_Vector_iterator@V?$_Vector_val@PAVFSMState@@V?$allocator@PAVFSMState@@@std@@@std@@@std@@QBEAAPAVFSMState@@XZ ENDP ; std::_Vector_iterator<std::_Vector_val<FSMState *,std::allocator<FSMState *> > >::operator*
_TEXT	ENDS
PUBLIC	??E?$_Vector_iterator@V?$_Vector_val@PAVFSMState@@V?$allocator@PAVFSMState@@@std@@@std@@@std@@QAEAAV01@XZ ; std::_Vector_iterator<std::_Vector_val<FSMState *,std::allocator<FSMState *> > >::operator++
; Function compile flags: /Ogsp
;	COMDAT ??E?$_Vector_iterator@V?$_Vector_val@PAVFSMState@@V?$allocator@PAVFSMState@@@std@@@std@@@std@@QAEAAV01@XZ
_TEXT	SEGMENT
??E?$_Vector_iterator@V?$_Vector_val@PAVFSMState@@V?$allocator@PAVFSMState@@@std@@@std@@@std@@QAEAAV01@XZ PROC ; std::_Vector_iterator<std::_Vector_val<FSMState *,std::allocator<FSMState *> > >::operator++, COMDAT
; _this$ = ecx

; 331  : 		{	// preincrement

  00000	8b c1		 mov	 eax, ecx

; 332  : 		++*(_Mybase *)this;

  00002	83 00 04	 add	 DWORD PTR [eax], 4

; 333  : 		return (*this);
; 334  : 		}

  00005	c3		 ret	 0
??E?$_Vector_iterator@V?$_Vector_val@PAVFSMState@@V?$allocator@PAVFSMState@@@std@@@std@@@std@@QAEAAV01@XZ ENDP ; std::_Vector_iterator<std::_Vector_val<FSMState *,std::allocator<FSMState *> > >::operator++
_TEXT	ENDS
PUBLIC	?max_size@?$vector@PAVFSMState@@V?$allocator@PAVFSMState@@@std@@@std@@QBEIXZ ; std::vector<FSMState *,std::allocator<FSMState *> >::max_size
; Function compile flags: /Ogsp
;	COMDAT ?max_size@?$vector@PAVFSMState@@V?$allocator@PAVFSMState@@@std@@@std@@QBEIXZ
_TEXT	SEGMENT
?max_size@?$vector@PAVFSMState@@V?$allocator@PAVFSMState@@@std@@@std@@QBEIXZ PROC ; std::vector<FSMState *,std::allocator<FSMState *> >::max_size, COMDAT
; _this$ = ecx

; 884  : 		return (this->_Alval.max_size());

  00000	b8 ff ff ff 3f	 mov	 eax, 1073741823		; 3fffffffH

; 885  : 		}

  00005	c3		 ret	 0
?max_size@?$vector@PAVFSMState@@V?$allocator@PAVFSMState@@@std@@@std@@QBEIXZ ENDP ; std::vector<FSMState *,std::allocator<FSMState *> >::max_size
_TEXT	ENDS
PUBLIC	??0?$_Vector_val@PAVFSMState@@V?$allocator@PAVFSMState@@@std@@@std@@QAE@V?$allocator@PAVFSMState@@@1@@Z ; std::_Vector_val<FSMState *,std::allocator<FSMState *> >::_Vector_val<FSMState *,std::allocator<FSMState *> >
; Function compile flags: /Ogsp
;	COMDAT ??0?$_Vector_val@PAVFSMState@@V?$allocator@PAVFSMState@@@std@@@std@@QAE@V?$allocator@PAVFSMState@@@1@@Z
_TEXT	SEGMENT
__Al$ = 8						; size = 1
??0?$_Vector_val@PAVFSMState@@V?$allocator@PAVFSMState@@@std@@@std@@QAE@V?$allocator@PAVFSMState@@@1@@Z PROC ; std::_Vector_val<FSMState *,std::allocator<FSMState *> >::_Vector_val<FSMState *,std::allocator<FSMState *> >, COMDAT
; _this$ = ecx

; 426  : 		{	// construct allocator from _Al

  00000	8b c1		 mov	 eax, ecx

; 427  : 		_Myfirst = 0;

  00002	33 c9		 xor	 ecx, ecx
  00004	89 08		 mov	 DWORD PTR [eax], ecx

; 428  : 		_Mylast = 0;

  00006	89 48 04	 mov	 DWORD PTR [eax+4], ecx

; 429  : 		_Myend = 0;

  00009	89 48 08	 mov	 DWORD PTR [eax+8], ecx

; 430  : 		}

  0000c	c2 04 00	 ret	 4
??0?$_Vector_val@PAVFSMState@@V?$allocator@PAVFSMState@@@std@@@std@@QAE@V?$allocator@PAVFSMState@@@1@@Z ENDP ; std::_Vector_val<FSMState *,std::allocator<FSMState *> >::_Vector_val<FSMState *,std::allocator<FSMState *> >
_TEXT	ENDS
PUBLIC	?allocate@?$allocator@PAVFSMState@@@std@@QAEPAPAVFSMState@@I@Z ; std::allocator<FSMState *>::allocate
; Function compile flags: /Ogsp
; File c:\program files (x86)\microsoft visual studio 10.0\vc\include\xmemory
;	COMDAT ?allocate@?$allocator@PAVFSMState@@@std@@QAEPAPAVFSMState@@I@Z
_TEXT	SEGMENT
__Count$ = 8						; size = 4
?allocate@?$allocator@PAVFSMState@@@std@@QAEPAPAVFSMState@@I@Z PROC ; std::allocator<FSMState *>::allocate, COMDAT
; _this$ = ecx

; 186  : 		{	// allocate array of _Count elements

  00000	55		 push	 ebp
  00001	8b ec		 mov	 ebp, esp

; 187  : 		return (_Allocate(_Count, (pointer)0));

  00003	6a 00		 push	 0
  00005	ff 75 08	 push	 DWORD PTR __Count$[ebp]
  00008	e8 00 00 00 00	 call	 ??$_Allocate@PAVFSMState@@@std@@YAPAPAVFSMState@@IPAPAV1@@Z ; std::_Allocate<FSMState *>
  0000d	59		 pop	 ecx
  0000e	59		 pop	 ecx

; 188  : 		}

  0000f	5d		 pop	 ebp
  00010	c2 04 00	 ret	 4
?allocate@?$allocator@PAVFSMState@@@std@@QAEPAPAVFSMState@@I@Z ENDP ; std::allocator<FSMState *>::allocate
_TEXT	ENDS
PUBLIC	??8?$_Vector_const_iterator@V?$_Vector_val@PAVFSMState@@V?$allocator@PAVFSMState@@@std@@@std@@@std@@QBE_NABV01@@Z ; std::_Vector_const_iterator<std::_Vector_val<FSMState *,std::allocator<FSMState *> > >::operator==
; Function compile flags: /Ogsp
; File c:\program files (x86)\microsoft visual studio 10.0\vc\include\vector
;	COMDAT ??8?$_Vector_const_iterator@V?$_Vector_val@PAVFSMState@@V?$allocator@PAVFSMState@@@std@@@std@@@std@@QBE_NABV01@@Z
_TEXT	SEGMENT
__Right$ = 8						; size = 4
??8?$_Vector_const_iterator@V?$_Vector_val@PAVFSMState@@V?$allocator@PAVFSMState@@@std@@@std@@@std@@QBE_NABV01@@Z PROC ; std::_Vector_const_iterator<std::_Vector_val<FSMState *,std::allocator<FSMState *> > >::operator==, COMDAT
; _this$ = ecx

; 201  : 		{	// test for iterator equality

  00000	55		 push	 ebp
  00001	8b ec		 mov	 ebp, esp

; 202  : 		_Compat(_Right);
; 203  : 		return (this->_Ptr == _Right._Ptr);

  00003	8b 01		 mov	 eax, DWORD PTR [ecx]
  00005	8b 4d 08	 mov	 ecx, DWORD PTR __Right$[ebp]
  00008	2b 01		 sub	 eax, DWORD PTR [ecx]
  0000a	f7 d8		 neg	 eax
  0000c	1b c0		 sbb	 eax, eax
  0000e	40		 inc	 eax

; 204  : 		}

  0000f	5d		 pop	 ebp
  00010	c2 04 00	 ret	 4
??8?$_Vector_const_iterator@V?$_Vector_val@PAVFSMState@@V?$allocator@PAVFSMState@@@std@@@std@@@std@@QBE_NABV01@@Z ENDP ; std::_Vector_const_iterator<std::_Vector_val<FSMState *,std::allocator<FSMState *> > >::operator==
_TEXT	ENDS
PUBLIC	?_Grow_to@?$vector@PAVFSMState@@V?$allocator@PAVFSMState@@@std@@@std@@IBEII@Z ; std::vector<FSMState *,std::allocator<FSMState *> >::_Grow_to
; Function compile flags: /Ogsp
;	COMDAT ?_Grow_to@?$vector@PAVFSMState@@V?$allocator@PAVFSMState@@@std@@@std@@IBEII@Z
_TEXT	SEGMENT
__Count$ = 8						; size = 4
?_Grow_to@?$vector@PAVFSMState@@V?$allocator@PAVFSMState@@@std@@@std@@IBEII@Z PROC ; std::vector<FSMState *,std::allocator<FSMState *> >::_Grow_to, COMDAT
; _this$ = ecx

; 1274 : 		{	// grow by 50% or at least to _Count

  00000	55		 push	 ebp
  00001	8b ec		 mov	 ebp, esp

; 1275 : 		size_type _Capacity = capacity();

  00003	8b 41 08	 mov	 eax, DWORD PTR [ecx+8]
  00006	2b 01		 sub	 eax, DWORD PTR [ecx]

; 1276 : 
; 1277 : 		_Capacity = max_size() - _Capacity / 2 < _Capacity
; 1278 : 			? 0 : _Capacity + _Capacity / 2;	// try to grow by 50%

  00008	ba ff ff ff 3f	 mov	 edx, 1073741823		; 3fffffffH
  0000d	c1 f8 02	 sar	 eax, 2
  00010	8b c8		 mov	 ecx, eax
  00012	d1 e9		 shr	 ecx, 1
  00014	2b d1		 sub	 edx, ecx
  00016	3b d0		 cmp	 edx, eax
  00018	73 04		 jae	 SHORT $LN4@Grow_to
  0001a	33 c0		 xor	 eax, eax
  0001c	eb 02		 jmp	 SHORT $LN5@Grow_to
$LN4@Grow_to:
  0001e	03 c1		 add	 eax, ecx
$LN5@Grow_to:

; 1279 : 		if (_Capacity < _Count)

  00020	3b 45 08	 cmp	 eax, DWORD PTR __Count$[ebp]

; 1280 : 			_Capacity = _Count;

  00023	0f 42 45 08	 cmovb	 eax, DWORD PTR __Count$[ebp]

; 1281 : 		return (_Capacity);
; 1282 : 		}

  00027	5d		 pop	 ebp
  00028	c2 04 00	 ret	 4
?_Grow_to@?$vector@PAVFSMState@@V?$allocator@PAVFSMState@@@std@@@std@@IBEII@Z ENDP ; std::vector<FSMState *,std::allocator<FSMState *> >::_Grow_to
_TEXT	ENDS
PUBLIC	??0?$_Vector_const_iterator@V?$_Vector_val@PAVFSMState@@V?$allocator@PAVFSMState@@@std@@@std@@@std@@QAE@PAPAVFSMState@@PBU_Container_base0@1@@Z ; std::_Vector_const_iterator<std::_Vector_val<FSMState *,std::allocator<FSMState *> > >::_Vector_const_iterator<std::_Vector_val<FSMState *,std::allocator<FSMState *> > >
; Function compile flags: /Ogsp
;	COMDAT ??0?$_Vector_const_iterator@V?$_Vector_val@PAVFSMState@@V?$allocator@PAVFSMState@@@std@@@std@@@std@@QAE@PAPAVFSMState@@PBU_Container_base0@1@@Z
_TEXT	SEGMENT
__Parg$ = 8						; size = 4
__Pvector$ = 12						; size = 4
??0?$_Vector_const_iterator@V?$_Vector_val@PAVFSMState@@V?$allocator@PAVFSMState@@@std@@@std@@@std@@QAE@PAPAVFSMState@@PBU_Container_base0@1@@Z PROC ; std::_Vector_const_iterator<std::_Vector_val<FSMState *,std::allocator<FSMState *> > >::_Vector_const_iterator<std::_Vector_val<FSMState *,std::allocator<FSMState *> > >, COMDAT
; _this$ = ecx

; 45   : 		{	// construct with pointer _Parg

  00000	55		 push	 ebp
  00001	8b ec		 mov	 ebp, esp
  00003	8b c1		 mov	 eax, ecx
  00005	8b 4d 08	 mov	 ecx, DWORD PTR __Parg$[ebp]
  00008	89 08		 mov	 DWORD PTR [eax], ecx

; 46   : 		this->_Adopt(_Pvector);
; 47   : 		}

  0000a	5d		 pop	 ebp
  0000b	c2 08 00	 ret	 8
??0?$_Vector_const_iterator@V?$_Vector_val@PAVFSMState@@V?$allocator@PAVFSMState@@@std@@@std@@@std@@QAE@PAPAVFSMState@@PBU_Container_base0@1@@Z ENDP ; std::_Vector_const_iterator<std::_Vector_val<FSMState *,std::allocator<FSMState *> > >::_Vector_const_iterator<std::_Vector_val<FSMState *,std::allocator<FSMState *> > >
_TEXT	ENDS
PUBLIC	??$_Cons_val@V?$allocator@PAVFSMState@@@std@@PAVFSMState@@AAPAV3@@std@@YAXAAV?$allocator@PAVFSMState@@@0@PAPAVFSMState@@AAPAV2@@Z ; std::_Cons_val<std::allocator<FSMState *>,FSMState *,FSMState * &>
; Function compile flags: /Ogsp
; File c:\program files (x86)\microsoft visual studio 10.0\vc\include\xmemory
;	COMDAT ??$_Cons_val@V?$allocator@PAVFSMState@@@std@@PAVFSMState@@AAPAV3@@std@@YAXAAV?$allocator@PAVFSMState@@@0@PAPAVFSMState@@AAPAV2@@Z
_TEXT	SEGMENT
__Alval$ = 8						; size = 4
__Pdest$ = 12						; size = 4
__Src$ = 16						; size = 4
??$_Cons_val@V?$allocator@PAVFSMState@@@std@@PAVFSMState@@AAPAV3@@std@@YAXAAV?$allocator@PAVFSMState@@@0@PAPAVFSMState@@AAPAV2@@Z PROC ; std::_Cons_val<std::allocator<FSMState *>,FSMState *,FSMState * &>, COMDAT

; 279  : 	{	// construct using allocator

  00000	55		 push	 ebp
  00001	8b ec		 mov	 ebp, esp

; 280  : 	_Alval.construct(_Pdest, _STD forward<_Ty2>(_Src));

  00003	8b 45 0c	 mov	 eax, DWORD PTR __Pdest$[ebp]
  00006	85 c0		 test	 eax, eax
  00008	74 07		 je	 SHORT $LN7@Cons_val
  0000a	8b 4d 10	 mov	 ecx, DWORD PTR __Src$[ebp]
  0000d	8b 09		 mov	 ecx, DWORD PTR [ecx]
  0000f	89 08		 mov	 DWORD PTR [eax], ecx
$LN7@Cons_val:

; 281  : 	}

  00011	5d		 pop	 ebp
  00012	c3		 ret	 0
??$_Cons_val@V?$allocator@PAVFSMState@@@std@@PAVFSMState@@AAPAV3@@std@@YAXAAV?$allocator@PAVFSMState@@@0@PAPAVFSMState@@AAPAV2@@Z ENDP ; std::_Cons_val<std::allocator<FSMState *>,FSMState *,FSMState * &>
_TEXT	ENDS
PUBLIC	??$_Move@PAPAVFSMState@@PAPAV1@@std@@YAPAPAVFSMState@@PAPAV1@00@Z ; std::_Move<FSMState * *,FSMState * *>
; Function compile flags: /Ogsp
; File c:\program files (x86)\microsoft visual studio 10.0\vc\include\xutility
;	COMDAT ??$_Move@PAPAVFSMState@@PAPAV1@@std@@YAPAPAVFSMState@@PAPAV1@00@Z
_TEXT	SEGMENT
__Cat$506634 = -4					; size = 1
__First$ = 8						; size = 4
__Last$ = 12						; size = 4
__Dest$ = 16						; size = 4
??$_Move@PAPAVFSMState@@PAPAV1@@std@@YAPAPAVFSMState@@PAPAV1@00@Z PROC ; std::_Move<FSMState * *,FSMState * *>, COMDAT

; 2533 : 	{	// move [_First, _Last) to [_Dest, ...), unchecked

  00000	55		 push	 ebp
  00001	8b ec		 mov	 ebp, esp
  00003	51		 push	 ecx

; 2534 : 	return (_Move(_First, _Last,
; 2535 : 		_Dest, _Ptr_cat(_First, _Dest)));

  00004	ff 75 fc	 push	 DWORD PTR __Cat$506634[ebp]
  00007	ff 75 10	 push	 DWORD PTR __Dest$[ebp]
  0000a	ff 75 0c	 push	 DWORD PTR __Last$[ebp]
  0000d	ff 75 08	 push	 DWORD PTR __First$[ebp]
  00010	e8 00 00 00 00	 call	 ??$_Move@PAPAVFSMState@@PAPAV1@@std@@YAPAPAVFSMState@@PAPAV1@00U_Scalar_ptr_iterator_tag@0@@Z ; std::_Move<FSMState * *,FSMState * *>
  00015	83 c4 10	 add	 esp, 16			; 00000010H

; 2536 : 	}

  00018	c9		 leave
  00019	c3		 ret	 0
??$_Move@PAPAVFSMState@@PAPAV1@@std@@YAPAPAVFSMState@@PAPAV1@00@Z ENDP ; std::_Move<FSMState * *,FSMState * *>
_TEXT	ENDS
PUBLIC	??$_Destroy_range@V?$allocator@PAVFSMState@@@std@@@std@@YAXPAPAVFSMState@@0AAV?$allocator@PAVFSMState@@@0@@Z ; std::_Destroy_range<std::allocator<FSMState *> >
; Function compile flags: /Ogsp
; File c:\program files (x86)\microsoft visual studio 10.0\vc\include\xmemory
;	COMDAT ??$_Destroy_range@V?$allocator@PAVFSMState@@@std@@@std@@YAXPAPAVFSMState@@0AAV?$allocator@PAVFSMState@@@0@@Z
_TEXT	SEGMENT
__First$ = 8						; size = 4
__Last$ = 12						; size = 4
__Al$ = 16						; size = 4
??$_Destroy_range@V?$allocator@PAVFSMState@@@std@@@std@@YAXPAPAVFSMState@@0AAV?$allocator@PAVFSMState@@@0@@Z PROC ; std::_Destroy_range<std::allocator<FSMState *> >, COMDAT

; 88   : 	_Destroy_range(_First, _Last, _Al, _Ptr_cat(_First, _Last));
; 89   : 	}

  00000	c3		 ret	 0
??$_Destroy_range@V?$allocator@PAVFSMState@@@std@@@std@@YAXPAPAVFSMState@@0AAV?$allocator@PAVFSMState@@@0@@Z ENDP ; std::_Destroy_range<std::allocator<FSMState *> >
_TEXT	ENDS
PUBLIC	?construct@?$allocator@H@std@@QAEXPAHABH@Z	; std::allocator<int>::construct
; Function compile flags: /Ogsp
;	COMDAT ?construct@?$allocator@H@std@@QAEXPAHABH@Z
_TEXT	SEGMENT
__Ptr$ = 8						; size = 4
__Val$ = 12						; size = 4
?construct@?$allocator@H@std@@QAEXPAHABH@Z PROC		; std::allocator<int>::construct, COMDAT
; _this$ = ecx

; 196  : 		{	// construct object at _Ptr with value _Val

  00000	55		 push	 ebp
  00001	8b ec		 mov	 ebp, esp

; 197  : 		_Construct(_Ptr, _Val);

  00003	8b 45 08	 mov	 eax, DWORD PTR __Ptr$[ebp]
  00006	85 c0		 test	 eax, eax
  00008	74 07		 je	 SHORT $LN5@construct@2
  0000a	8b 4d 0c	 mov	 ecx, DWORD PTR __Val$[ebp]
  0000d	8b 09		 mov	 ecx, DWORD PTR [ecx]
  0000f	89 08		 mov	 DWORD PTR [eax], ecx
$LN5@construct@2:

; 198  : 		}

  00011	5d		 pop	 ebp
  00012	c2 08 00	 ret	 8
?construct@?$allocator@H@std@@QAEXPAHABH@Z ENDP		; std::allocator<int>::construct
_TEXT	ENDS
PUBLIC	?construct@?$allocator@PAVFSMState@@@std@@QAEXPAPAVFSMState@@ABQAV3@@Z ; std::allocator<FSMState *>::construct
; Function compile flags: /Ogsp
;	COMDAT ?construct@?$allocator@PAVFSMState@@@std@@QAEXPAPAVFSMState@@ABQAV3@@Z
_TEXT	SEGMENT
__Ptr$ = 8						; size = 4
__Val$ = 12						; size = 4
?construct@?$allocator@PAVFSMState@@@std@@QAEXPAPAVFSMState@@ABQAV3@@Z PROC ; std::allocator<FSMState *>::construct, COMDAT
; _this$ = ecx

; 196  : 		{	// construct object at _Ptr with value _Val

  00000	55		 push	 ebp
  00001	8b ec		 mov	 ebp, esp

; 197  : 		_Construct(_Ptr, _Val);

  00003	8b 45 08	 mov	 eax, DWORD PTR __Ptr$[ebp]
  00006	85 c0		 test	 eax, eax
  00008	74 07		 je	 SHORT $LN5@construct@3
  0000a	8b 4d 0c	 mov	 ecx, DWORD PTR __Val$[ebp]
  0000d	8b 09		 mov	 ecx, DWORD PTR [ecx]
  0000f	89 08		 mov	 DWORD PTR [eax], ecx
$LN5@construct@3:

; 198  : 		}

  00011	5d		 pop	 ebp
  00012	c2 08 00	 ret	 8
?construct@?$allocator@PAVFSMState@@@std@@QAEXPAPAVFSMState@@ABQAV3@@Z ENDP ; std::allocator<FSMState *>::construct
_TEXT	ENDS
PUBLIC	??$construct@AAH@?$allocator@H@std@@QAEXPAHAAH@Z ; std::allocator<int>::construct<int &>
; Function compile flags: /Ogsp
;	COMDAT ??$construct@AAH@?$allocator@H@std@@QAEXPAHAAH@Z
_TEXT	SEGMENT
__Ptr$ = 8						; size = 4
__Val$ = 12						; size = 4
??$construct@AAH@?$allocator@H@std@@QAEXPAHAAH@Z PROC	; std::allocator<int>::construct<int &>, COMDAT
; _this$ = ecx

; 206  : 		void construct(pointer _Ptr, _Other&& _Val)

  00000	55		 push	 ebp
  00001	8b ec		 mov	 ebp, esp

; 207  : 		{	// construct object at _Ptr with value _Val
; 208  : 		::new ((void _FARQ *)_Ptr) _Ty(_STD forward<_Other>(_Val));

  00003	8b 45 08	 mov	 eax, DWORD PTR __Ptr$[ebp]
  00006	85 c0		 test	 eax, eax
  00008	74 07		 je	 SHORT $LN3@construct@4
  0000a	8b 4d 0c	 mov	 ecx, DWORD PTR __Val$[ebp]
  0000d	8b 09		 mov	 ecx, DWORD PTR [ecx]
  0000f	89 08		 mov	 DWORD PTR [eax], ecx
$LN3@construct@4:

; 209  : 		}

  00011	5d		 pop	 ebp
  00012	c2 08 00	 ret	 8
??$construct@AAH@?$allocator@H@std@@QAEXPAHAAH@Z ENDP	; std::allocator<int>::construct<int &>
_TEXT	ENDS
PUBLIC	??$_Uninitialized_move@PAPAVFSMState@@PAPAV1@V?$allocator@PAVFSMState@@@std@@@std@@YAPAPAVFSMState@@PAPAV1@00AAV?$allocator@PAVFSMState@@@0@@Z ; std::_Uninitialized_move<FSMState * *,FSMState * *,std::allocator<FSMState *> >
; Function compile flags: /Ogsp
; File c:\program files (x86)\microsoft visual studio 10.0\vc\include\memory
;	COMDAT ??$_Uninitialized_move@PAPAVFSMState@@PAPAV1@V?$allocator@PAVFSMState@@@std@@@std@@YAPAPAVFSMState@@PAPAV1@00AAV?$allocator@PAVFSMState@@@0@@Z
_TEXT	SEGMENT
__First$ = 8						; size = 4
__Last$ = 12						; size = 4
__Dest$ = 16						; size = 4
__Al$ = 20						; size = 4
??$_Uninitialized_move@PAPAVFSMState@@PAPAV1@V?$allocator@PAVFSMState@@@std@@@std@@YAPAPAVFSMState@@PAPAV1@00AAV?$allocator@PAVFSMState@@@0@@Z PROC ; std::_Uninitialized_move<FSMState * *,FSMState * *,std::allocator<FSMState *> >, COMDAT

; 469  : 	{	// move [_First, _Last) to raw _Dest, using _Al

  00000	55		 push	 ebp
  00001	8b ec		 mov	 ebp, esp
  00003	56		 push	 esi

; 470  : 	return (_Uninit_move(_First, _Last, _Dest, _Al,
; 471  : 		_Val_type(_First), _Ptr_cat(_First, _Dest)));

  00004	8b 75 0c	 mov	 esi, DWORD PTR __Last$[ebp]
  00007	2b 75 08	 sub	 esi, DWORD PTR __First$[ebp]
  0000a	c1 fe 02	 sar	 esi, 2
  0000d	c1 e6 02	 shl	 esi, 2
  00010	56		 push	 esi
  00011	ff 75 08	 push	 DWORD PTR __First$[ebp]
  00014	ff 75 10	 push	 DWORD PTR __Dest$[ebp]
  00017	ff 15 00 00 00
	00		 call	 DWORD PTR __imp__memmove
  0001d	83 c4 0c	 add	 esp, 12			; 0000000cH
  00020	03 c6		 add	 eax, esi
  00022	5e		 pop	 esi

; 472  : 	}

  00023	5d		 pop	 ebp
  00024	c3		 ret	 0
??$_Uninitialized_move@PAPAVFSMState@@PAPAV1@V?$allocator@PAVFSMState@@@std@@@std@@YAPAPAVFSMState@@PAPAV1@00AAV?$allocator@PAVFSMState@@@0@@Z ENDP ; std::_Uninitialized_move<FSMState * *,FSMState * *,std::allocator<FSMState *> >
_TEXT	ENDS
PUBLIC	?begin@?$vector@HV?$allocator@H@std@@@std@@QAE?AV?$_Vector_iterator@V?$_Vector_val@HV?$allocator@H@std@@@std@@@2@XZ ; std::vector<int,std::allocator<int> >::begin
; Function compile flags: /Ogsp
; File c:\program files (x86)\microsoft visual studio 10.0\vc\include\vector
;	COMDAT ?begin@?$vector@HV?$allocator@H@std@@@std@@QAE?AV?$_Vector_iterator@V?$_Vector_val@HV?$allocator@H@std@@@std@@@2@XZ
_TEXT	SEGMENT
___$ReturnUdt$ = 8					; size = 4
?begin@?$vector@HV?$allocator@H@std@@@std@@QAE?AV?$_Vector_iterator@V?$_Vector_val@HV?$allocator@H@std@@@std@@@2@XZ PROC ; std::vector<int,std::allocator<int> >::begin, COMDAT
; _this$ = ecx

; 781  : 		{	// return iterator for beginning of mutable sequence

  00000	55		 push	 ebp
  00001	8b ec		 mov	 ebp, esp

; 782  : 		return (iterator(this->_Myfirst, this));

  00003	8b 09		 mov	 ecx, DWORD PTR [ecx]
  00005	8b 45 08	 mov	 eax, DWORD PTR ___$ReturnUdt$[ebp]
  00008	89 08		 mov	 DWORD PTR [eax], ecx

; 783  : 		}

  0000a	5d		 pop	 ebp
  0000b	c2 04 00	 ret	 4
?begin@?$vector@HV?$allocator@H@std@@@std@@QAE?AV?$_Vector_iterator@V?$_Vector_val@HV?$allocator@H@std@@@std@@@2@XZ ENDP ; std::vector<int,std::allocator<int> >::begin
_TEXT	ENDS
PUBLIC	?end@?$vector@HV?$allocator@H@std@@@std@@QAE?AV?$_Vector_iterator@V?$_Vector_val@HV?$allocator@H@std@@@std@@@2@XZ ; std::vector<int,std::allocator<int> >::end
; Function compile flags: /Ogsp
;	COMDAT ?end@?$vector@HV?$allocator@H@std@@@std@@QAE?AV?$_Vector_iterator@V?$_Vector_val@HV?$allocator@H@std@@@std@@@2@XZ
_TEXT	SEGMENT
___$ReturnUdt$ = 8					; size = 4
?end@?$vector@HV?$allocator@H@std@@@std@@QAE?AV?$_Vector_iterator@V?$_Vector_val@HV?$allocator@H@std@@@std@@@2@XZ PROC ; std::vector<int,std::allocator<int> >::end, COMDAT
; _this$ = ecx

; 791  : 		{	// return iterator for end of mutable sequence

  00000	55		 push	 ebp
  00001	8b ec		 mov	 ebp, esp

; 792  : 		return (iterator(this->_Mylast, this));

  00003	8b 49 04	 mov	 ecx, DWORD PTR [ecx+4]
  00006	8b 45 08	 mov	 eax, DWORD PTR ___$ReturnUdt$[ebp]
  00009	89 08		 mov	 DWORD PTR [eax], ecx

; 793  : 		}

  0000b	5d		 pop	 ebp
  0000c	c2 04 00	 ret	 4
?end@?$vector@HV?$allocator@H@std@@@std@@QAE?AV?$_Vector_iterator@V?$_Vector_val@HV?$allocator@H@std@@@std@@@2@XZ ENDP ; std::vector<int,std::allocator<int> >::end
_TEXT	ENDS
PUBLIC	??0?$_Vector_val@HV?$allocator@H@std@@@std@@QAE@V?$allocator@H@1@@Z ; std::_Vector_val<int,std::allocator<int> >::_Vector_val<int,std::allocator<int> >
; Function compile flags: /Ogsp
;	COMDAT ??0?$_Vector_val@HV?$allocator@H@std@@@std@@QAE@V?$allocator@H@1@@Z
_TEXT	SEGMENT
__Al$ = 8						; size = 1
??0?$_Vector_val@HV?$allocator@H@std@@@std@@QAE@V?$allocator@H@1@@Z PROC ; std::_Vector_val<int,std::allocator<int> >::_Vector_val<int,std::allocator<int> >, COMDAT
; _this$ = ecx

; 426  : 		{	// construct allocator from _Al

  00000	8b c1		 mov	 eax, ecx

; 427  : 		_Myfirst = 0;

  00002	33 c9		 xor	 ecx, ecx
  00004	89 08		 mov	 DWORD PTR [eax], ecx

; 428  : 		_Mylast = 0;

  00006	89 48 04	 mov	 DWORD PTR [eax+4], ecx

; 429  : 		_Myend = 0;

  00009	89 48 08	 mov	 DWORD PTR [eax+8], ecx

; 430  : 		}

  0000c	c2 04 00	 ret	 4
??0?$_Vector_val@HV?$allocator@H@std@@@std@@QAE@V?$allocator@H@1@@Z ENDP ; std::_Vector_val<int,std::allocator<int> >::_Vector_val<int,std::allocator<int> >
_TEXT	ENDS
PUBLIC	?max_size@?$vector@HV?$allocator@H@std@@@std@@QBEIXZ ; std::vector<int,std::allocator<int> >::max_size
; Function compile flags: /Ogsp
;	COMDAT ?max_size@?$vector@HV?$allocator@H@std@@@std@@QBEIXZ
_TEXT	SEGMENT
?max_size@?$vector@HV?$allocator@H@std@@@std@@QBEIXZ PROC ; std::vector<int,std::allocator<int> >::max_size, COMDAT
; _this$ = ecx

; 884  : 		return (this->_Alval.max_size());

  00000	b8 ff ff ff 3f	 mov	 eax, 1073741823		; 3fffffffH

; 885  : 		}

  00005	c3		 ret	 0
?max_size@?$vector@HV?$allocator@H@std@@@std@@QBEIXZ ENDP ; std::vector<int,std::allocator<int> >::max_size
_TEXT	ENDS
PUBLIC	?_Grow_to@?$vector@HV?$allocator@H@std@@@std@@IBEII@Z ; std::vector<int,std::allocator<int> >::_Grow_to
; Function compile flags: /Ogsp
;	COMDAT ?_Grow_to@?$vector@HV?$allocator@H@std@@@std@@IBEII@Z
_TEXT	SEGMENT
__Count$ = 8						; size = 4
?_Grow_to@?$vector@HV?$allocator@H@std@@@std@@IBEII@Z PROC ; std::vector<int,std::allocator<int> >::_Grow_to, COMDAT
; _this$ = ecx

; 1274 : 		{	// grow by 50% or at least to _Count

  00000	55		 push	 ebp
  00001	8b ec		 mov	 ebp, esp

; 1275 : 		size_type _Capacity = capacity();

  00003	8b 41 08	 mov	 eax, DWORD PTR [ecx+8]
  00006	2b 01		 sub	 eax, DWORD PTR [ecx]

; 1276 : 
; 1277 : 		_Capacity = max_size() - _Capacity / 2 < _Capacity
; 1278 : 			? 0 : _Capacity + _Capacity / 2;	// try to grow by 50%

  00008	ba ff ff ff 3f	 mov	 edx, 1073741823		; 3fffffffH
  0000d	c1 f8 02	 sar	 eax, 2
  00010	8b c8		 mov	 ecx, eax
  00012	d1 e9		 shr	 ecx, 1
  00014	2b d1		 sub	 edx, ecx
  00016	3b d0		 cmp	 edx, eax
  00018	73 04		 jae	 SHORT $LN4@Grow_to@2
  0001a	33 c0		 xor	 eax, eax
  0001c	eb 02		 jmp	 SHORT $LN5@Grow_to@2
$LN4@Grow_to@2:
  0001e	03 c1		 add	 eax, ecx
$LN5@Grow_to@2:

; 1279 : 		if (_Capacity < _Count)

  00020	3b 45 08	 cmp	 eax, DWORD PTR __Count$[ebp]

; 1280 : 			_Capacity = _Count;

  00023	0f 42 45 08	 cmovb	 eax, DWORD PTR __Count$[ebp]

; 1281 : 		return (_Capacity);
; 1282 : 		}

  00027	5d		 pop	 ebp
  00028	c2 04 00	 ret	 4
?_Grow_to@?$vector@HV?$allocator@H@std@@@std@@IBEII@Z ENDP ; std::vector<int,std::allocator<int> >::_Grow_to
_TEXT	ENDS
PUBLIC	??Y?$_Vector_iterator@V?$_Vector_val@HV?$allocator@H@std@@@std@@@std@@QAEAAV01@H@Z ; std::_Vector_iterator<std::_Vector_val<int,std::allocator<int> > >::operator+=
; Function compile flags: /Ogsp
;	COMDAT ??Y?$_Vector_iterator@V?$_Vector_val@HV?$allocator@H@std@@@std@@@std@@QAEAAV01@H@Z
_TEXT	SEGMENT
__Off$ = 8						; size = 4
??Y?$_Vector_iterator@V?$_Vector_val@HV?$allocator@H@std@@@std@@@std@@QAEAAV01@H@Z PROC ; std::_Vector_iterator<std::_Vector_val<int,std::allocator<int> > >::operator+=, COMDAT
; _this$ = ecx

; 357  : 		{	// increment by integer

  00000	55		 push	 ebp
  00001	8b ec		 mov	 ebp, esp
  00003	8b c1		 mov	 eax, ecx

; 358  : 		*(_Mybase *)this += _Off;

  00005	8b 4d 08	 mov	 ecx, DWORD PTR __Off$[ebp]
  00008	c1 e1 02	 shl	 ecx, 2
  0000b	01 08		 add	 DWORD PTR [eax], ecx

; 359  : 		return (*this);
; 360  : 		}

  0000d	5d		 pop	 ebp
  0000e	c2 04 00	 ret	 4
??Y?$_Vector_iterator@V?$_Vector_val@HV?$allocator@H@std@@@std@@@std@@QAEAAV01@H@Z ENDP ; std::_Vector_iterator<std::_Vector_val<int,std::allocator<int> > >::operator+=
_TEXT	ENDS
PUBLIC	?allocate@?$allocator@H@std@@QAEPAHI@Z		; std::allocator<int>::allocate
; Function compile flags: /Ogsp
; File c:\program files (x86)\microsoft visual studio 10.0\vc\include\xmemory
;	COMDAT ?allocate@?$allocator@H@std@@QAEPAHI@Z
_TEXT	SEGMENT
__Count$ = 8						; size = 4
?allocate@?$allocator@H@std@@QAEPAHI@Z PROC		; std::allocator<int>::allocate, COMDAT
; _this$ = ecx

; 186  : 		{	// allocate array of _Count elements

  00000	55		 push	 ebp
  00001	8b ec		 mov	 ebp, esp

; 187  : 		return (_Allocate(_Count, (pointer)0));

  00003	6a 00		 push	 0
  00005	ff 75 08	 push	 DWORD PTR __Count$[ebp]
  00008	e8 00 00 00 00	 call	 ??$_Allocate@H@std@@YAPAHIPAH@Z ; std::_Allocate<int>
  0000d	59		 pop	 ecx
  0000e	59		 pop	 ecx

; 188  : 		}

  0000f	5d		 pop	 ebp
  00010	c2 04 00	 ret	 4
?allocate@?$allocator@H@std@@QAEPAHI@Z ENDP		; std::allocator<int>::allocate
_TEXT	ENDS
PUBLIC	??8?$_Vector_const_iterator@V?$_Vector_val@HV?$allocator@H@std@@@std@@@std@@QBE_NABV01@@Z ; std::_Vector_const_iterator<std::_Vector_val<int,std::allocator<int> > >::operator==
; Function compile flags: /Ogsp
; File c:\program files (x86)\microsoft visual studio 10.0\vc\include\vector
;	COMDAT ??8?$_Vector_const_iterator@V?$_Vector_val@HV?$allocator@H@std@@@std@@@std@@QBE_NABV01@@Z
_TEXT	SEGMENT
__Right$ = 8						; size = 4
??8?$_Vector_const_iterator@V?$_Vector_val@HV?$allocator@H@std@@@std@@@std@@QBE_NABV01@@Z PROC ; std::_Vector_const_iterator<std::_Vector_val<int,std::allocator<int> > >::operator==, COMDAT
; _this$ = ecx

; 201  : 		{	// test for iterator equality

  00000	55		 push	 ebp
  00001	8b ec		 mov	 ebp, esp

; 202  : 		_Compat(_Right);
; 203  : 		return (this->_Ptr == _Right._Ptr);

  00003	8b 01		 mov	 eax, DWORD PTR [ecx]
  00005	8b 4d 08	 mov	 ecx, DWORD PTR __Right$[ebp]
  00008	2b 01		 sub	 eax, DWORD PTR [ecx]
  0000a	f7 d8		 neg	 eax
  0000c	1b c0		 sbb	 eax, eax
  0000e	40		 inc	 eax

; 204  : 		}

  0000f	5d		 pop	 ebp
  00010	c2 04 00	 ret	 4
??8?$_Vector_const_iterator@V?$_Vector_val@HV?$allocator@H@std@@@std@@@std@@QBE_NABV01@@Z ENDP ; std::_Vector_const_iterator<std::_Vector_val<int,std::allocator<int> > >::operator==
_TEXT	ENDS
PUBLIC	??$_Move@PAHPAH@std@@YAPAHPAH00@Z		; std::_Move<int *,int *>
; Function compile flags: /Ogsp
; File c:\program files (x86)\microsoft visual studio 10.0\vc\include\xutility
;	COMDAT ??$_Move@PAHPAH@std@@YAPAHPAH00@Z
_TEXT	SEGMENT
__Cat$506815 = -4					; size = 1
__First$ = 8						; size = 4
__Last$ = 12						; size = 4
__Dest$ = 16						; size = 4
??$_Move@PAHPAH@std@@YAPAHPAH00@Z PROC			; std::_Move<int *,int *>, COMDAT

; 2533 : 	{	// move [_First, _Last) to [_Dest, ...), unchecked

  00000	55		 push	 ebp
  00001	8b ec		 mov	 ebp, esp
  00003	51		 push	 ecx

; 2534 : 	return (_Move(_First, _Last,
; 2535 : 		_Dest, _Ptr_cat(_First, _Dest)));

  00004	ff 75 fc	 push	 DWORD PTR __Cat$506815[ebp]
  00007	ff 75 10	 push	 DWORD PTR __Dest$[ebp]
  0000a	ff 75 0c	 push	 DWORD PTR __Last$[ebp]
  0000d	ff 75 08	 push	 DWORD PTR __First$[ebp]
  00010	e8 00 00 00 00	 call	 ??$_Move@PAHPAH@std@@YAPAHPAH00U_Scalar_ptr_iterator_tag@0@@Z ; std::_Move<int *,int *>
  00015	83 c4 10	 add	 esp, 16			; 00000010H

; 2536 : 	}

  00018	c9		 leave
  00019	c3		 ret	 0
??$_Move@PAHPAH@std@@YAPAHPAH00@Z ENDP			; std::_Move<int *,int *>
_TEXT	ENDS
PUBLIC	??$_Destroy_range@V?$allocator@H@std@@@std@@YAXPAH0AAV?$allocator@H@0@@Z ; std::_Destroy_range<std::allocator<int> >
; Function compile flags: /Ogsp
; File c:\program files (x86)\microsoft visual studio 10.0\vc\include\xmemory
;	COMDAT ??$_Destroy_range@V?$allocator@H@std@@@std@@YAXPAH0AAV?$allocator@H@0@@Z
_TEXT	SEGMENT
__First$ = 8						; size = 4
__Last$ = 12						; size = 4
__Al$ = 16						; size = 4
??$_Destroy_range@V?$allocator@H@std@@@std@@YAXPAH0AAV?$allocator@H@0@@Z PROC ; std::_Destroy_range<std::allocator<int> >, COMDAT

; 88   : 	_Destroy_range(_First, _Last, _Al, _Ptr_cat(_First, _Last));
; 89   : 	}

  00000	c3		 ret	 0
??$_Destroy_range@V?$allocator@H@std@@@std@@YAXPAH0AAV?$allocator@H@0@@Z ENDP ; std::_Destroy_range<std::allocator<int> >
_TEXT	ENDS
PUBLIC	??$_Uninitialized_move@PAHPAHV?$allocator@H@std@@@std@@YAPAHPAH00AAV?$allocator@H@0@@Z ; std::_Uninitialized_move<int *,int *,std::allocator<int> >
; Function compile flags: /Ogsp
; File c:\program files (x86)\microsoft visual studio 10.0\vc\include\memory
;	COMDAT ??$_Uninitialized_move@PAHPAHV?$allocator@H@std@@@std@@YAPAHPAH00AAV?$allocator@H@0@@Z
_TEXT	SEGMENT
__First$ = 8						; size = 4
__Last$ = 12						; size = 4
__Dest$ = 16						; size = 4
__Al$ = 20						; size = 4
??$_Uninitialized_move@PAHPAHV?$allocator@H@std@@@std@@YAPAHPAH00AAV?$allocator@H@0@@Z PROC ; std::_Uninitialized_move<int *,int *,std::allocator<int> >, COMDAT

; 469  : 	{	// move [_First, _Last) to raw _Dest, using _Al

  00000	55		 push	 ebp
  00001	8b ec		 mov	 ebp, esp
  00003	56		 push	 esi

; 470  : 	return (_Uninit_move(_First, _Last, _Dest, _Al,
; 471  : 		_Val_type(_First), _Ptr_cat(_First, _Dest)));

  00004	8b 75 0c	 mov	 esi, DWORD PTR __Last$[ebp]
  00007	2b 75 08	 sub	 esi, DWORD PTR __First$[ebp]
  0000a	c1 fe 02	 sar	 esi, 2
  0000d	c1 e6 02	 shl	 esi, 2
  00010	56		 push	 esi
  00011	ff 75 08	 push	 DWORD PTR __First$[ebp]
  00014	ff 75 10	 push	 DWORD PTR __Dest$[ebp]
  00017	ff 15 00 00 00
	00		 call	 DWORD PTR __imp__memmove
  0001d	83 c4 0c	 add	 esp, 12			; 0000000cH
  00020	03 c6		 add	 eax, esi
  00022	5e		 pop	 esi

; 472  : 	}

  00023	5d		 pop	 ebp
  00024	c3		 ret	 0
??$_Uninitialized_move@PAHPAHV?$allocator@H@std@@@std@@YAPAHPAH00AAV?$allocator@H@0@@Z ENDP ; std::_Uninitialized_move<int *,int *,std::allocator<int> >
_TEXT	ENDS
PUBLIC	??0?$vector@PAVFSMState@@V?$allocator@PAVFSMState@@@std@@@std@@QAE@XZ ; std::vector<FSMState *,std::allocator<FSMState *> >::vector<FSMState *,std::allocator<FSMState *> >
; Function compile flags: /Ogsp
; File c:\program files (x86)\microsoft visual studio 10.0\vc\include\vector
;	COMDAT ??0?$vector@PAVFSMState@@V?$allocator@PAVFSMState@@@std@@@std@@QAE@XZ
_TEXT	SEGMENT
??0?$vector@PAVFSMState@@V?$allocator@PAVFSMState@@@std@@@std@@QAE@XZ PROC ; std::vector<FSMState *,std::allocator<FSMState *> >::vector<FSMState *,std::allocator<FSMState *> >, COMDAT
; _this$ = ecx

; 507  : 		{	// construct empty vector

  00000	8b c1		 mov	 eax, ecx
  00002	33 c9		 xor	 ecx, ecx
  00004	89 08		 mov	 DWORD PTR [eax], ecx
  00006	89 48 04	 mov	 DWORD PTR [eax+4], ecx
  00009	89 48 08	 mov	 DWORD PTR [eax+8], ecx

; 508  : 		}

  0000c	c3		 ret	 0
??0?$vector@PAVFSMState@@V?$allocator@PAVFSMState@@@std@@@std@@QAE@XZ ENDP ; std::vector<FSMState *,std::allocator<FSMState *> >::vector<FSMState *,std::allocator<FSMState *> >
_TEXT	ENDS
PUBLIC	??9?$_Vector_const_iterator@V?$_Vector_val@PAVFSMState@@V?$allocator@PAVFSMState@@@std@@@std@@@std@@QBE_NABV01@@Z ; std::_Vector_const_iterator<std::_Vector_val<FSMState *,std::allocator<FSMState *> > >::operator!=
; Function compile flags: /Ogsp
;	COMDAT ??9?$_Vector_const_iterator@V?$_Vector_val@PAVFSMState@@V?$allocator@PAVFSMState@@@std@@@std@@@std@@QBE_NABV01@@Z
_TEXT	SEGMENT
__Right$ = 8						; size = 4
??9?$_Vector_const_iterator@V?$_Vector_val@PAVFSMState@@V?$allocator@PAVFSMState@@@std@@@std@@@std@@QBE_NABV01@@Z PROC ; std::_Vector_const_iterator<std::_Vector_val<FSMState *,std::allocator<FSMState *> > >::operator!=, COMDAT
; _this$ = ecx

; 207  : 		{	// test for iterator inequality

  00000	55		 push	 ebp
  00001	8b ec		 mov	 ebp, esp

; 208  : 		return (!(*this == _Right));

  00003	8b 01		 mov	 eax, DWORD PTR [ecx]
  00005	8b 55 08	 mov	 edx, DWORD PTR __Right$[ebp]
  00008	33 c9		 xor	 ecx, ecx
  0000a	3b 02		 cmp	 eax, DWORD PTR [edx]
  0000c	0f 95 c0	 setne	 al

; 209  : 		}

  0000f	5d		 pop	 ebp
  00010	c2 04 00	 ret	 4
??9?$_Vector_const_iterator@V?$_Vector_val@PAVFSMState@@V?$allocator@PAVFSMState@@@std@@@std@@@std@@QBE_NABV01@@Z ENDP ; std::_Vector_const_iterator<std::_Vector_val<FSMState *,std::allocator<FSMState *> > >::operator!=
_TEXT	ENDS
PUBLIC	?_Destroy@?$vector@PAVFSMState@@V?$allocator@PAVFSMState@@@std@@@std@@IAEXPAPAVFSMState@@0@Z ; std::vector<FSMState *,std::allocator<FSMState *> >::_Destroy
; Function compile flags: /Ogsp
;	COMDAT ?_Destroy@?$vector@PAVFSMState@@V?$allocator@PAVFSMState@@@std@@@std@@IAEXPAPAVFSMState@@0@Z
_TEXT	SEGMENT
__First$ = 8						; size = 4
__Last$ = 12						; size = 4
?_Destroy@?$vector@PAVFSMState@@V?$allocator@PAVFSMState@@@std@@@std@@IAEXPAPAVFSMState@@0@Z PROC ; std::vector<FSMState *,std::allocator<FSMState *> >::_Destroy, COMDAT
; _this$ = ecx

; 1270 : 		_Destroy_range(_First, _Last, this->_Alval);
; 1271 : 		}

  00000	c2 08 00	 ret	 8
?_Destroy@?$vector@PAVFSMState@@V?$allocator@PAVFSMState@@@std@@@std@@IAEXPAPAVFSMState@@0@Z ENDP ; std::vector<FSMState *,std::allocator<FSMState *> >::_Destroy
_TEXT	ENDS
PUBLIC	?_Tidy@?$vector@PAVFSMState@@V?$allocator@PAVFSMState@@@std@@@std@@IAEXXZ ; std::vector<FSMState *,std::allocator<FSMState *> >::_Tidy
EXTRN	__imp_?_Orphan_all@_Container_base0@std@@QAEXXZ:PROC
; Function compile flags: /Ogsp
;	COMDAT ?_Tidy@?$vector@PAVFSMState@@V?$allocator@PAVFSMState@@@std@@@std@@IAEXXZ
_TEXT	SEGMENT
?_Tidy@?$vector@PAVFSMState@@V?$allocator@PAVFSMState@@@std@@@std@@IAEXXZ PROC ; std::vector<FSMState *,std::allocator<FSMState *> >::_Tidy, COMDAT
; _this$ = ecx

; 1301 : 		{	// free all storage

  00000	56		 push	 esi
  00001	8b f1		 mov	 esi, ecx

; 1302 : 		if (this->_Myfirst != 0)

  00003	83 3e 00	 cmp	 DWORD PTR [esi], 0
  00006	74 0e		 je	 SHORT $LN12@Tidy

; 1303 : 			{	// something to free, destroy and deallocate it
; 1304 : 			this->_Orphan_all();

  00008	ff 15 00 00 00
	00		 call	 DWORD PTR __imp_?_Orphan_all@_Container_base0@std@@QAEXXZ

; 1305 : 			_Destroy(this->_Myfirst, this->_Mylast);
; 1306 : 			this->_Alval.deallocate(this->_Myfirst,
; 1307 : 				this->_Myend - this->_Myfirst);

  0000e	ff 36		 push	 DWORD PTR [esi]
  00010	e8 00 00 00 00	 call	 ??3@YAXPAX@Z		; operator delete
  00015	59		 pop	 ecx
$LN12@Tidy:

; 1308 : 			}
; 1309 : 		this->_Myfirst = 0;

  00016	83 26 00	 and	 DWORD PTR [esi], 0

; 1310 : 		this->_Mylast = 0;

  00019	83 66 04 00	 and	 DWORD PTR [esi+4], 0

; 1311 : 		this->_Myend = 0;

  0001d	83 66 08 00	 and	 DWORD PTR [esi+8], 0
  00021	5e		 pop	 esi

; 1312 : 		}

  00022	c3		 ret	 0
?_Tidy@?$vector@PAVFSMState@@V?$allocator@PAVFSMState@@@std@@@std@@IAEXXZ ENDP ; std::vector<FSMState *,std::allocator<FSMState *> >::_Tidy
_TEXT	ENDS
PUBLIC	??0?$_Vector_iterator@V?$_Vector_val@PAVFSMState@@V?$allocator@PAVFSMState@@@std@@@std@@@std@@QAE@PAPAVFSMState@@PBU_Container_base0@1@@Z ; std::_Vector_iterator<std::_Vector_val<FSMState *,std::allocator<FSMState *> > >::_Vector_iterator<std::_Vector_val<FSMState *,std::allocator<FSMState *> > >
; Function compile flags: /Ogsp
;	COMDAT ??0?$_Vector_iterator@V?$_Vector_val@PAVFSMState@@V?$allocator@PAVFSMState@@@std@@@std@@@std@@QAE@PAPAVFSMState@@PBU_Container_base0@1@@Z
_TEXT	SEGMENT
__Parg$ = 8						; size = 4
__Pvector$ = 12						; size = 4
??0?$_Vector_iterator@V?$_Vector_val@PAVFSMState@@V?$allocator@PAVFSMState@@@std@@@std@@@std@@QAE@PAPAVFSMState@@PBU_Container_base0@1@@Z PROC ; std::_Vector_iterator<std::_Vector_val<FSMState *,std::allocator<FSMState *> > >::_Vector_iterator<std::_Vector_val<FSMState *,std::allocator<FSMState *> > >, COMDAT
; _this$ = ecx

; 304  : 		{	// construct with pointer _Parg

  00000	55		 push	 ebp
  00001	8b ec		 mov	 ebp, esp
  00003	8b c1		 mov	 eax, ecx
  00005	8b 4d 08	 mov	 ecx, DWORD PTR __Parg$[ebp]
  00008	89 08		 mov	 DWORD PTR [eax], ecx

; 305  : 		}

  0000a	5d		 pop	 ebp
  0000b	c2 08 00	 ret	 8
??0?$_Vector_iterator@V?$_Vector_val@PAVFSMState@@V?$allocator@PAVFSMState@@@std@@@std@@@std@@QAE@PAPAVFSMState@@PBU_Container_base0@1@@Z ENDP ; std::_Vector_iterator<std::_Vector_val<FSMState *,std::allocator<FSMState *> > >::_Vector_iterator<std::_Vector_val<FSMState *,std::allocator<FSMState *> > >
_TEXT	ENDS
PUBLIC	??$_Cons_val@V?$allocator@H@std@@HAAH@std@@YAXAAV?$allocator@H@0@PAHAAH@Z ; std::_Cons_val<std::allocator<int>,int,int &>
; Function compile flags: /Ogsp
; File c:\program files (x86)\microsoft visual studio 10.0\vc\include\xmemory
;	COMDAT ??$_Cons_val@V?$allocator@H@std@@HAAH@std@@YAXAAV?$allocator@H@0@PAHAAH@Z
_TEXT	SEGMENT
__Alval$ = 8						; size = 4
__Pdest$ = 12						; size = 4
__Src$ = 16						; size = 4
??$_Cons_val@V?$allocator@H@std@@HAAH@std@@YAXAAV?$allocator@H@0@PAHAAH@Z PROC ; std::_Cons_val<std::allocator<int>,int,int &>, COMDAT

; 279  : 	{	// construct using allocator

  00000	55		 push	 ebp
  00001	8b ec		 mov	 ebp, esp

; 280  : 	_Alval.construct(_Pdest, _STD forward<_Ty2>(_Src));

  00003	8b 45 0c	 mov	 eax, DWORD PTR __Pdest$[ebp]
  00006	85 c0		 test	 eax, eax
  00008	74 07		 je	 SHORT $LN7@Cons_val@2
  0000a	8b 4d 10	 mov	 ecx, DWORD PTR __Src$[ebp]
  0000d	8b 09		 mov	 ecx, DWORD PTR [ecx]
  0000f	89 08		 mov	 DWORD PTR [eax], ecx
$LN7@Cons_val@2:

; 281  : 	}

  00011	5d		 pop	 ebp
  00012	c3		 ret	 0
??$_Cons_val@V?$allocator@H@std@@HAAH@std@@YAXAAV?$allocator@H@0@PAHAAH@Z ENDP ; std::_Cons_val<std::allocator<int>,int,int &>
_TEXT	ENDS
PUBLIC	??$_Cons_val@V?$allocator@H@std@@HABH@std@@YAXAAV?$allocator@H@0@PAHABH@Z ; std::_Cons_val<std::allocator<int>,int,int const &>
; Function compile flags: /Ogsp
;	COMDAT ??$_Cons_val@V?$allocator@H@std@@HABH@std@@YAXAAV?$allocator@H@0@PAHABH@Z
_TEXT	SEGMENT
__Alval$ = 8						; size = 4
__Pdest$ = 12						; size = 4
__Src$ = 16						; size = 4
??$_Cons_val@V?$allocator@H@std@@HABH@std@@YAXAAV?$allocator@H@0@PAHABH@Z PROC ; std::_Cons_val<std::allocator<int>,int,int const &>, COMDAT

; 279  : 	{	// construct using allocator

  00000	55		 push	 ebp
  00001	8b ec		 mov	 ebp, esp

; 280  : 	_Alval.construct(_Pdest, _STD forward<_Ty2>(_Src));

  00003	8b 45 0c	 mov	 eax, DWORD PTR __Pdest$[ebp]
  00006	85 c0		 test	 eax, eax
  00008	74 07		 je	 SHORT $LN9@Cons_val@3
  0000a	8b 4d 10	 mov	 ecx, DWORD PTR __Src$[ebp]
  0000d	8b 09		 mov	 ecx, DWORD PTR [ecx]
  0000f	89 08		 mov	 DWORD PTR [eax], ecx
$LN9@Cons_val@3:

; 281  : 	}

  00011	5d		 pop	 ebp
  00012	c3		 ret	 0
??$_Cons_val@V?$allocator@H@std@@HABH@std@@YAXAAV?$allocator@H@0@PAHABH@Z ENDP ; std::_Cons_val<std::allocator<int>,int,int const &>
_TEXT	ENDS
PUBLIC	??$_Umove@PAPAVFSMState@@@?$vector@PAVFSMState@@V?$allocator@PAVFSMState@@@std@@@std@@IAEPAPAVFSMState@@PAPAV2@00@Z ; std::vector<FSMState *,std::allocator<FSMState *> >::_Umove<FSMState * *>
; Function compile flags: /Ogsp
; File c:\program files (x86)\microsoft visual studio 10.0\vc\include\vector
;	COMDAT ??$_Umove@PAPAVFSMState@@@?$vector@PAVFSMState@@V?$allocator@PAVFSMState@@@std@@@std@@IAEPAPAVFSMState@@PAPAV2@00@Z
_TEXT	SEGMENT
__First$ = 8						; size = 4
__Last$ = 12						; size = 4
__Ptr$ = 16						; size = 4
??$_Umove@PAPAVFSMState@@@?$vector@PAVFSMState@@V?$allocator@PAVFSMState@@@std@@@std@@IAEPAPAVFSMState@@PAPAV2@00@Z PROC ; std::vector<FSMState *,std::allocator<FSMState *> >::_Umove<FSMState * *>, COMDAT
; _this$ = ecx

; 1322 : 		pointer _Umove(_Iter _First, _Iter _Last, pointer _Ptr)

  00000	55		 push	 ebp
  00001	8b ec		 mov	 ebp, esp

; 1323 : 		{	// move initializing [_First, _Last), using allocator
; 1324 : 		return (_Uninitialized_move(_First, _Last,
; 1325 : 			_Ptr, this->_Alval));

  00003	83 c1 0c	 add	 ecx, 12			; 0000000cH
  00006	51		 push	 ecx
  00007	ff 75 10	 push	 DWORD PTR __Ptr$[ebp]
  0000a	ff 75 0c	 push	 DWORD PTR __Last$[ebp]
  0000d	ff 75 08	 push	 DWORD PTR __First$[ebp]
  00010	e8 00 00 00 00	 call	 ??$_Uninitialized_move@PAPAVFSMState@@PAPAV1@V?$allocator@PAVFSMState@@@std@@@std@@YAPAPAVFSMState@@PAPAV1@00AAV?$allocator@PAVFSMState@@@0@@Z ; std::_Uninitialized_move<FSMState * *,FSMState * *,std::allocator<FSMState *> >
  00015	83 c4 10	 add	 esp, 16			; 00000010H

; 1326 : 		}

  00018	5d		 pop	 ebp
  00019	c2 0c 00	 ret	 12			; 0000000cH
??$_Umove@PAPAVFSMState@@@?$vector@PAVFSMState@@V?$allocator@PAVFSMState@@@std@@@std@@IAEPAPAVFSMState@@PAPAV2@00@Z ENDP ; std::vector<FSMState *,std::allocator<FSMState *> >::_Umove<FSMState * *>
_TEXT	ENDS
PUBLIC	??$_Cons_val@V?$allocator@PAVFSMState@@@std@@PAVFSMState@@ABQAV3@@std@@YAXAAV?$allocator@PAVFSMState@@@0@PAPAVFSMState@@ABQAV2@@Z ; std::_Cons_val<std::allocator<FSMState *>,FSMState *,FSMState * const &>
; Function compile flags: /Ogsp
; File c:\program files (x86)\microsoft visual studio 10.0\vc\include\xmemory
;	COMDAT ??$_Cons_val@V?$allocator@PAVFSMState@@@std@@PAVFSMState@@ABQAV3@@std@@YAXAAV?$allocator@PAVFSMState@@@0@PAPAVFSMState@@ABQAV2@@Z
_TEXT	SEGMENT
__Alval$ = 8						; size = 4
__Pdest$ = 12						; size = 4
__Src$ = 16						; size = 4
??$_Cons_val@V?$allocator@PAVFSMState@@@std@@PAVFSMState@@ABQAV3@@std@@YAXAAV?$allocator@PAVFSMState@@@0@PAPAVFSMState@@ABQAV2@@Z PROC ; std::_Cons_val<std::allocator<FSMState *>,FSMState *,FSMState * const &>, COMDAT

; 279  : 	{	// construct using allocator

  00000	55		 push	 ebp
  00001	8b ec		 mov	 ebp, esp

; 280  : 	_Alval.construct(_Pdest, _STD forward<_Ty2>(_Src));

  00003	8b 45 0c	 mov	 eax, DWORD PTR __Pdest$[ebp]
  00006	85 c0		 test	 eax, eax
  00008	74 07		 je	 SHORT $LN9@Cons_val@4
  0000a	8b 4d 10	 mov	 ecx, DWORD PTR __Src$[ebp]
  0000d	8b 09		 mov	 ecx, DWORD PTR [ecx]
  0000f	89 08		 mov	 DWORD PTR [eax], ecx
$LN9@Cons_val@4:

; 281  : 	}

  00011	5d		 pop	 ebp
  00012	c3		 ret	 0
??$_Cons_val@V?$allocator@PAVFSMState@@@std@@PAVFSMState@@ABQAV3@@std@@YAXAAV?$allocator@PAVFSMState@@@0@PAPAVFSMState@@ABQAV2@@Z ENDP ; std::_Cons_val<std::allocator<FSMState *>,FSMState *,FSMState * const &>
_TEXT	ENDS
PUBLIC	??0?$vector@HV?$allocator@H@std@@@std@@QAE@XZ	; std::vector<int,std::allocator<int> >::vector<int,std::allocator<int> >
; Function compile flags: /Ogsp
; File c:\program files (x86)\microsoft visual studio 10.0\vc\include\vector
;	COMDAT ??0?$vector@HV?$allocator@H@std@@@std@@QAE@XZ
_TEXT	SEGMENT
??0?$vector@HV?$allocator@H@std@@@std@@QAE@XZ PROC	; std::vector<int,std::allocator<int> >::vector<int,std::allocator<int> >, COMDAT
; _this$ = ecx

; 507  : 		{	// construct empty vector

  00000	8b c1		 mov	 eax, ecx
  00002	33 c9		 xor	 ecx, ecx
  00004	89 08		 mov	 DWORD PTR [eax], ecx
  00006	89 48 04	 mov	 DWORD PTR [eax+4], ecx
  00009	89 48 08	 mov	 DWORD PTR [eax+8], ecx

; 508  : 		}

  0000c	c3		 ret	 0
??0?$vector@HV?$allocator@H@std@@@std@@QAE@XZ ENDP	; std::vector<int,std::allocator<int> >::vector<int,std::allocator<int> >
_TEXT	ENDS
PUBLIC	??H?$_Vector_iterator@V?$_Vector_val@HV?$allocator@H@std@@@std@@@std@@QBE?AV01@H@Z ; std::_Vector_iterator<std::_Vector_val<int,std::allocator<int> > >::operator+
; Function compile flags: /Ogsp
;	COMDAT ??H?$_Vector_iterator@V?$_Vector_val@HV?$allocator@H@std@@@std@@@std@@QBE?AV01@H@Z
_TEXT	SEGMENT
___$ReturnUdt$ = 8					; size = 4
__Off$ = 12						; size = 4
??H?$_Vector_iterator@V?$_Vector_val@HV?$allocator@H@std@@@std@@@std@@QBE?AV01@H@Z PROC ; std::_Vector_iterator<std::_Vector_val<int,std::allocator<int> > >::operator+, COMDAT
; _this$ = ecx

; 363  : 		{	// return this + integer

  00000	55		 push	 ebp
  00001	8b ec		 mov	 ebp, esp

; 364  : 		_Myiter _Tmp = *this;
; 365  : 		return (_Tmp += _Off);

  00003	8b 01		 mov	 eax, DWORD PTR [ecx]
  00005	8b 4d 0c	 mov	 ecx, DWORD PTR __Off$[ebp]
  00008	8d 0c 88	 lea	 ecx, DWORD PTR [eax+ecx*4]
  0000b	8b 45 08	 mov	 eax, DWORD PTR ___$ReturnUdt$[ebp]
  0000e	89 08		 mov	 DWORD PTR [eax], ecx

; 366  : 		}

  00010	5d		 pop	 ebp
  00011	c2 08 00	 ret	 8
??H?$_Vector_iterator@V?$_Vector_val@HV?$allocator@H@std@@@std@@@std@@QBE?AV01@H@Z ENDP ; std::_Vector_iterator<std::_Vector_val<int,std::allocator<int> > >::operator+
_TEXT	ENDS
PUBLIC	?_Destroy@?$vector@HV?$allocator@H@std@@@std@@IAEXPAH0@Z ; std::vector<int,std::allocator<int> >::_Destroy
; Function compile flags: /Ogsp
;	COMDAT ?_Destroy@?$vector@HV?$allocator@H@std@@@std@@IAEXPAH0@Z
_TEXT	SEGMENT
__First$ = 8						; size = 4
__Last$ = 12						; size = 4
?_Destroy@?$vector@HV?$allocator@H@std@@@std@@IAEXPAH0@Z PROC ; std::vector<int,std::allocator<int> >::_Destroy, COMDAT
; _this$ = ecx

; 1270 : 		_Destroy_range(_First, _Last, this->_Alval);
; 1271 : 		}

  00000	c2 08 00	 ret	 8
?_Destroy@?$vector@HV?$allocator@H@std@@@std@@IAEXPAH0@Z ENDP ; std::vector<int,std::allocator<int> >::_Destroy
_TEXT	ENDS
PUBLIC	??9?$_Vector_const_iterator@V?$_Vector_val@HV?$allocator@H@std@@@std@@@std@@QBE_NABV01@@Z ; std::_Vector_const_iterator<std::_Vector_val<int,std::allocator<int> > >::operator!=
; Function compile flags: /Ogsp
;	COMDAT ??9?$_Vector_const_iterator@V?$_Vector_val@HV?$allocator@H@std@@@std@@@std@@QBE_NABV01@@Z
_TEXT	SEGMENT
__Right$ = 8						; size = 4
??9?$_Vector_const_iterator@V?$_Vector_val@HV?$allocator@H@std@@@std@@@std@@QBE_NABV01@@Z PROC ; std::_Vector_const_iterator<std::_Vector_val<int,std::allocator<int> > >::operator!=, COMDAT
; _this$ = ecx

; 207  : 		{	// test for iterator inequality

  00000	55		 push	 ebp
  00001	8b ec		 mov	 ebp, esp

; 208  : 		return (!(*this == _Right));

  00003	8b 01		 mov	 eax, DWORD PTR [ecx]
  00005	8b 55 08	 mov	 edx, DWORD PTR __Right$[ebp]
  00008	33 c9		 xor	 ecx, ecx
  0000a	3b 02		 cmp	 eax, DWORD PTR [edx]
  0000c	0f 95 c0	 setne	 al

; 209  : 		}

  0000f	5d		 pop	 ebp
  00010	c2 04 00	 ret	 4
??9?$_Vector_const_iterator@V?$_Vector_val@HV?$allocator@H@std@@@std@@@std@@QBE_NABV01@@Z ENDP ; std::_Vector_const_iterator<std::_Vector_val<int,std::allocator<int> > >::operator!=
_TEXT	ENDS
PUBLIC	??$_Umove@PAH@?$vector@HV?$allocator@H@std@@@std@@IAEPAHPAH00@Z ; std::vector<int,std::allocator<int> >::_Umove<int *>
; Function compile flags: /Ogsp
;	COMDAT ??$_Umove@PAH@?$vector@HV?$allocator@H@std@@@std@@IAEPAHPAH00@Z
_TEXT	SEGMENT
__First$ = 8						; size = 4
__Last$ = 12						; size = 4
__Ptr$ = 16						; size = 4
??$_Umove@PAH@?$vector@HV?$allocator@H@std@@@std@@IAEPAHPAH00@Z PROC ; std::vector<int,std::allocator<int> >::_Umove<int *>, COMDAT
; _this$ = ecx

; 1322 : 		pointer _Umove(_Iter _First, _Iter _Last, pointer _Ptr)

  00000	55		 push	 ebp
  00001	8b ec		 mov	 ebp, esp

; 1323 : 		{	// move initializing [_First, _Last), using allocator
; 1324 : 		return (_Uninitialized_move(_First, _Last,
; 1325 : 			_Ptr, this->_Alval));

  00003	83 c1 0c	 add	 ecx, 12			; 0000000cH
  00006	51		 push	 ecx
  00007	ff 75 10	 push	 DWORD PTR __Ptr$[ebp]
  0000a	ff 75 0c	 push	 DWORD PTR __Last$[ebp]
  0000d	ff 75 08	 push	 DWORD PTR __First$[ebp]
  00010	e8 00 00 00 00	 call	 ??$_Uninitialized_move@PAHPAHV?$allocator@H@std@@@std@@YAPAHPAH00AAV?$allocator@H@0@@Z ; std::_Uninitialized_move<int *,int *,std::allocator<int> >
  00015	83 c4 10	 add	 esp, 16			; 00000010H

; 1326 : 		}

  00018	5d		 pop	 ebp
  00019	c2 0c 00	 ret	 12			; 0000000cH
??$_Umove@PAH@?$vector@HV?$allocator@H@std@@@std@@IAEPAHPAH00@Z ENDP ; std::vector<int,std::allocator<int> >::_Umove<int *>
_TEXT	ENDS
PUBLIC	?erase@?$vector@HV?$allocator@H@std@@@std@@QAE?AV?$_Vector_iterator@V?$_Vector_val@HV?$allocator@H@std@@@std@@@2@V?$_Vector_const_iterator@V?$_Vector_val@HV?$allocator@H@std@@@std@@@2@@Z ; std::vector<int,std::allocator<int> >::erase
; Function compile flags: /Ogsp
;	COMDAT ?erase@?$vector@HV?$allocator@H@std@@@std@@QAE?AV?$_Vector_iterator@V?$_Vector_val@HV?$allocator@H@std@@@std@@@2@V?$_Vector_const_iterator@V?$_Vector_val@HV?$allocator@H@std@@@std@@@2@@Z
_TEXT	SEGMENT
___$ReturnUdt$ = 8					; size = 4
__Cat$507116 = 12					; size = 1
__Where$ = 12						; size = 4
?erase@?$vector@HV?$allocator@H@std@@@std@@QAE?AV?$_Vector_iterator@V?$_Vector_val@HV?$allocator@H@std@@@std@@@2@V?$_Vector_const_iterator@V?$_Vector_val@HV?$allocator@H@std@@@std@@@2@@Z PROC ; std::vector<int,std::allocator<int> >::erase, COMDAT
; _this$ = ecx

; 1179 : 		{	// erase element at where

  00000	55		 push	 ebp
  00001	8b ec		 mov	 ebp, esp

; 1180 : 		_Move(_VIPTR(_Where) + 1, this->_Mylast,
; 1181 : 			_VIPTR(_Where));

  00003	8b 45 0c	 mov	 eax, DWORD PTR __Where$[ebp]
  00006	56		 push	 esi
  00007	ff 75 0c	 push	 DWORD PTR __Cat$507116[ebp]
  0000a	8b f1		 mov	 esi, ecx
  0000c	50		 push	 eax
  0000d	ff 76 04	 push	 DWORD PTR [esi+4]
  00010	83 c0 04	 add	 eax, 4
  00013	50		 push	 eax
  00014	e8 00 00 00 00	 call	 ??$_Move@PAHPAH@std@@YAPAHPAH00U_Scalar_ptr_iterator_tag@0@@Z ; std::_Move<int *,int *>

; 1182 : 		_Destroy(this->_Mylast - 1, this->_Mylast);
; 1183 : 		--this->_Mylast;
; 1184 : 		return (_Make_iter(_Where));

  00019	8b 45 08	 mov	 eax, DWORD PTR ___$ReturnUdt$[ebp]
  0001c	8b 4d 0c	 mov	 ecx, DWORD PTR __Where$[ebp]
  0001f	83 c4 10	 add	 esp, 16			; 00000010H
  00022	83 46 04 fc	 add	 DWORD PTR [esi+4], -4	; fffffffcH
  00026	89 08		 mov	 DWORD PTR [eax], ecx
  00028	5e		 pop	 esi

; 1185 : 		}

  00029	5d		 pop	 ebp
  0002a	c2 08 00	 ret	 8
?erase@?$vector@HV?$allocator@H@std@@@std@@QAE?AV?$_Vector_iterator@V?$_Vector_val@HV?$allocator@H@std@@@std@@@2@V?$_Vector_const_iterator@V?$_Vector_val@HV?$allocator@H@std@@@std@@@2@@Z ENDP ; std::vector<int,std::allocator<int> >::erase
_TEXT	ENDS
PUBLIC	??1?$vector@PAVFSMState@@V?$allocator@PAVFSMState@@@std@@@std@@QAE@XZ ; std::vector<FSMState *,std::allocator<FSMState *> >::~vector<FSMState *,std::allocator<FSMState *> >
; Function compile flags: /Ogsp
;	COMDAT ??1?$vector@PAVFSMState@@V?$allocator@PAVFSMState@@@std@@@std@@QAE@XZ
_TEXT	SEGMENT
??1?$vector@PAVFSMState@@V?$allocator@PAVFSMState@@@std@@@std@@QAE@XZ PROC ; std::vector<FSMState *,std::allocator<FSMState *> >::~vector<FSMState *,std::allocator<FSMState *> >, COMDAT
; _this$ = ecx

; 705  : 		_Tidy();

  00000	e9 00 00 00 00	 jmp	 ?_Tidy@?$vector@PAVFSMState@@V?$allocator@PAVFSMState@@@std@@@std@@IAEXXZ ; std::vector<FSMState *,std::allocator<FSMState *> >::_Tidy
??1?$vector@PAVFSMState@@V?$allocator@PAVFSMState@@@std@@@std@@QAE@XZ ENDP ; std::vector<FSMState *,std::allocator<FSMState *> >::~vector<FSMState *,std::allocator<FSMState *> >
_TEXT	ENDS
PUBLIC	?reserve@?$vector@PAVFSMState@@V?$allocator@PAVFSMState@@@std@@@std@@QAEXI@Z ; std::vector<FSMState *,std::allocator<FSMState *> >::reserve
; Function compile flags: /Ogsp
;	COMDAT ?reserve@?$vector@PAVFSMState@@V?$allocator@PAVFSMState@@@std@@@std@@QAEXI@Z
_TEXT	SEGMENT
__Count$ = 8						; size = 4
?reserve@?$vector@PAVFSMState@@V?$allocator@PAVFSMState@@@std@@@std@@QAEXI@Z PROC ; std::vector<FSMState *,std::allocator<FSMState *> >::reserve, COMDAT
; _this$ = ecx

; 746  : 		{	// determine new minimum length of allocated storage

  00000	55		 push	 ebp
  00001	8b ec		 mov	 ebp, esp

; 747  : 		if (max_size() < _Count)

  00003	81 7d 08 ff ff
	ff 3f		 cmp	 DWORD PTR __Count$[ebp], 1073741823 ; 3fffffffH
  0000a	56		 push	 esi
  0000b	8b f1		 mov	 esi, ecx
  0000d	76 0b		 jbe	 SHORT $LN5@reserve

; 748  : 			_Xlen();	// result too long

  0000f	68 00 00 00 00	 push	 OFFSET ??_C@_0BD@OLBABOEK@vector?$DMT?$DO?5too?5long?$AA@
  00014	ff 15 00 00 00
	00		 call	 DWORD PTR __imp_?_Xlength_error@std@@YAXPBD@Z
$LN43@reserve:
$LN5@reserve:

; 749  : 		else if (capacity() < _Count)

  0001a	8b 46 08	 mov	 eax, DWORD PTR [esi+8]
  0001d	2b 06		 sub	 eax, DWORD PTR [esi]
  0001f	c1 f8 02	 sar	 eax, 2
  00022	3b 45 08	 cmp	 eax, DWORD PTR __Count$[ebp]
  00025	73 52		 jae	 SHORT $LN3@reserve

; 750  : 			{	// not enough room, reallocate
; 751  : 			pointer _Ptr = this->_Alval.allocate(_Count);

  00027	53		 push	 ebx
  00028	57		 push	 edi
  00029	6a 00		 push	 0
  0002b	ff 75 08	 push	 DWORD PTR __Count$[ebp]
  0002e	e8 00 00 00 00	 call	 ??$_Allocate@PAVFSMState@@@std@@YAPAPAVFSMState@@IPAPAV1@@Z ; std::_Allocate<FSMState *>

; 752  : 
; 753  : 			_TRY_BEGIN
; 754  : 			_Umove(this->_Myfirst, this->_Mylast, _Ptr);

  00033	8b 0e		 mov	 ecx, DWORD PTR [esi]
  00035	8d 56 0c	 lea	 edx, DWORD PTR [esi+12]
  00038	52		 push	 edx
  00039	8b d8		 mov	 ebx, eax
  0003b	8b 46 04	 mov	 eax, DWORD PTR [esi+4]
  0003e	53		 push	 ebx
  0003f	50		 push	 eax
  00040	51		 push	 ecx
  00041	e8 00 00 00 00	 call	 ??$_Uninitialized_move@PAPAVFSMState@@PAPAV1@V?$allocator@PAVFSMState@@@std@@@std@@YAPAPAVFSMState@@PAPAV1@00AAV?$allocator@PAVFSMState@@@0@@Z ; std::_Uninitialized_move<FSMState * *,FSMState * *,std::allocator<FSMState *> >

; 755  : 			_CATCH_ALL
; 756  : 			this->_Alval.deallocate(_Ptr, _Count);
; 757  : 			_RERAISE;
; 758  : 			_CATCH_END
; 759  : 
; 760  : 			size_type _Size = size();

  00046	8b 06		 mov	 eax, DWORD PTR [esi]
  00048	8b 7e 04	 mov	 edi, DWORD PTR [esi+4]
  0004b	2b f8		 sub	 edi, eax
  0004d	83 c4 18	 add	 esp, 24			; 00000018H
  00050	c1 ff 02	 sar	 edi, 2

; 761  : 			if (this->_Myfirst != 0)

  00053	85 c0		 test	 eax, eax
  00055	74 07		 je	 SHORT $LN39@reserve

; 762  : 				{	// destroy and deallocate old array
; 763  : 				_Destroy(this->_Myfirst, this->_Mylast);
; 764  : 				this->_Alval.deallocate(this->_Myfirst,
; 765  : 					this->_Myend - this->_Myfirst);

  00057	50		 push	 eax
  00058	e8 00 00 00 00	 call	 ??3@YAXPAX@Z		; operator delete
  0005d	59		 pop	 ecx
$LN39@reserve:

; 766  : 				}
; 767  : 
; 768  : 			this->_Orphan_all();

  0005e	8b ce		 mov	 ecx, esi
  00060	ff 15 00 00 00
	00		 call	 DWORD PTR __imp_?_Orphan_all@_Container_base0@std@@QAEXXZ

; 769  : 			this->_Myend = _Ptr + _Count;

  00066	8b 45 08	 mov	 eax, DWORD PTR __Count$[ebp]
  00069	8d 04 83	 lea	 eax, DWORD PTR [ebx+eax*4]
  0006c	89 46 08	 mov	 DWORD PTR [esi+8], eax

; 770  : 			this->_Mylast = _Ptr + _Size;

  0006f	8d 04 bb	 lea	 eax, DWORD PTR [ebx+edi*4]
  00072	5f		 pop	 edi

; 771  : 			this->_Myfirst = _Ptr;

  00073	89 1e		 mov	 DWORD PTR [esi], ebx
  00075	89 46 04	 mov	 DWORD PTR [esi+4], eax
  00078	5b		 pop	 ebx
$LN3@reserve:
  00079	5e		 pop	 esi

; 772  : 			}
; 773  : 		}

  0007a	5d		 pop	 ebp
  0007b	c2 04 00	 ret	 4
$LN42@reserve:
?reserve@?$vector@PAVFSMState@@V?$allocator@PAVFSMState@@@std@@@std@@QAEXI@Z ENDP ; std::vector<FSMState *,std::allocator<FSMState *> >::reserve
_TEXT	ENDS
PUBLIC	?begin@?$vector@PAVFSMState@@V?$allocator@PAVFSMState@@@std@@@std@@QAE?AV?$_Vector_iterator@V?$_Vector_val@PAVFSMState@@V?$allocator@PAVFSMState@@@std@@@std@@@2@XZ ; std::vector<FSMState *,std::allocator<FSMState *> >::begin
; Function compile flags: /Ogsp
;	COMDAT ?begin@?$vector@PAVFSMState@@V?$allocator@PAVFSMState@@@std@@@std@@QAE?AV?$_Vector_iterator@V?$_Vector_val@PAVFSMState@@V?$allocator@PAVFSMState@@@std@@@std@@@2@XZ
_TEXT	SEGMENT
___$ReturnUdt$ = 8					; size = 4
?begin@?$vector@PAVFSMState@@V?$allocator@PAVFSMState@@@std@@@std@@QAE?AV?$_Vector_iterator@V?$_Vector_val@PAVFSMState@@V?$allocator@PAVFSMState@@@std@@@std@@@2@XZ PROC ; std::vector<FSMState *,std::allocator<FSMState *> >::begin, COMDAT
; _this$ = ecx

; 781  : 		{	// return iterator for beginning of mutable sequence

  00000	55		 push	 ebp
  00001	8b ec		 mov	 ebp, esp

; 782  : 		return (iterator(this->_Myfirst, this));

  00003	8b 09		 mov	 ecx, DWORD PTR [ecx]
  00005	8b 45 08	 mov	 eax, DWORD PTR ___$ReturnUdt$[ebp]
  00008	89 08		 mov	 DWORD PTR [eax], ecx

; 783  : 		}

  0000a	5d		 pop	 ebp
  0000b	c2 04 00	 ret	 4
?begin@?$vector@PAVFSMState@@V?$allocator@PAVFSMState@@@std@@@std@@QAE?AV?$_Vector_iterator@V?$_Vector_val@PAVFSMState@@V?$allocator@PAVFSMState@@@std@@@std@@@2@XZ ENDP ; std::vector<FSMState *,std::allocator<FSMState *> >::begin
_TEXT	ENDS
PUBLIC	?end@?$vector@PAVFSMState@@V?$allocator@PAVFSMState@@@std@@@std@@QAE?AV?$_Vector_iterator@V?$_Vector_val@PAVFSMState@@V?$allocator@PAVFSMState@@@std@@@std@@@2@XZ ; std::vector<FSMState *,std::allocator<FSMState *> >::end
; Function compile flags: /Ogsp
;	COMDAT ?end@?$vector@PAVFSMState@@V?$allocator@PAVFSMState@@@std@@@std@@QAE?AV?$_Vector_iterator@V?$_Vector_val@PAVFSMState@@V?$allocator@PAVFSMState@@@std@@@std@@@2@XZ
_TEXT	SEGMENT
___$ReturnUdt$ = 8					; size = 4
?end@?$vector@PAVFSMState@@V?$allocator@PAVFSMState@@@std@@@std@@QAE?AV?$_Vector_iterator@V?$_Vector_val@PAVFSMState@@V?$allocator@PAVFSMState@@@std@@@std@@@2@XZ PROC ; std::vector<FSMState *,std::allocator<FSMState *> >::end, COMDAT
; _this$ = ecx

; 791  : 		{	// return iterator for end of mutable sequence

  00000	55		 push	 ebp
  00001	8b ec		 mov	 ebp, esp

; 792  : 		return (iterator(this->_Mylast, this));

  00003	8b 49 04	 mov	 ecx, DWORD PTR [ecx+4]
  00006	8b 45 08	 mov	 eax, DWORD PTR ___$ReturnUdt$[ebp]
  00009	89 08		 mov	 DWORD PTR [eax], ecx

; 793  : 		}

  0000b	5d		 pop	 ebp
  0000c	c2 04 00	 ret	 4
?end@?$vector@PAVFSMState@@V?$allocator@PAVFSMState@@@std@@@std@@QAE?AV?$_Vector_iterator@V?$_Vector_val@PAVFSMState@@V?$allocator@PAVFSMState@@@std@@@std@@@2@XZ ENDP ; std::vector<FSMState *,std::allocator<FSMState *> >::end
_TEXT	ENDS
PUBLIC	?_Make_iter@?$vector@PAVFSMState@@V?$allocator@PAVFSMState@@@std@@@std@@QBE?AV?$_Vector_iterator@V?$_Vector_val@PAVFSMState@@V?$allocator@PAVFSMState@@@std@@@std@@@2@V?$_Vector_const_iterator@V?$_Vector_val@PAVFSMState@@V?$allocator@PAVFSMState@@@std@@@std@@@2@@Z ; std::vector<FSMState *,std::allocator<FSMState *> >::_Make_iter
; Function compile flags: /Ogsp
;	COMDAT ?_Make_iter@?$vector@PAVFSMState@@V?$allocator@PAVFSMState@@@std@@@std@@QBE?AV?$_Vector_iterator@V?$_Vector_val@PAVFSMState@@V?$allocator@PAVFSMState@@@std@@@std@@@2@V?$_Vector_const_iterator@V?$_Vector_val@PAVFSMState@@V?$allocator@PAVFSMState@@@std@@@std@@@2@@Z
_TEXT	SEGMENT
___$ReturnUdt$ = 8					; size = 4
__Where$ = 12						; size = 4
?_Make_iter@?$vector@PAVFSMState@@V?$allocator@PAVFSMState@@@std@@@std@@QBE?AV?$_Vector_iterator@V?$_Vector_val@PAVFSMState@@V?$allocator@PAVFSMState@@@std@@@std@@@2@V?$_Vector_const_iterator@V?$_Vector_val@PAVFSMState@@V?$allocator@PAVFSMState@@@std@@@std@@@2@@Z PROC ; std::vector<FSMState *,std::allocator<FSMState *> >::_Make_iter, COMDAT
; _this$ = ecx

; 801  : 		{	// make iterator from const_iterator

  00000	55		 push	 ebp
  00001	8b ec		 mov	 ebp, esp

; 802  : 		return (iterator(_Where._Ptr, this));

  00003	8b 45 08	 mov	 eax, DWORD PTR ___$ReturnUdt$[ebp]
  00006	8b 4d 0c	 mov	 ecx, DWORD PTR __Where$[ebp]
  00009	89 08		 mov	 DWORD PTR [eax], ecx

; 803  : 		}

  0000b	5d		 pop	 ebp
  0000c	c2 08 00	 ret	 8
?_Make_iter@?$vector@PAVFSMState@@V?$allocator@PAVFSMState@@@std@@@std@@QBE?AV?$_Vector_iterator@V?$_Vector_val@PAVFSMState@@V?$allocator@PAVFSMState@@@std@@@std@@@2@V?$_Vector_const_iterator@V?$_Vector_val@PAVFSMState@@V?$allocator@PAVFSMState@@@std@@@std@@@2@@Z ENDP ; std::vector<FSMState *,std::allocator<FSMState *> >::_Make_iter
_TEXT	ENDS
PUBLIC	?erase@?$vector@PAVFSMState@@V?$allocator@PAVFSMState@@@std@@@std@@QAE?AV?$_Vector_iterator@V?$_Vector_val@PAVFSMState@@V?$allocator@PAVFSMState@@@std@@@std@@@2@V?$_Vector_const_iterator@V?$_Vector_val@PAVFSMState@@V?$allocator@PAVFSMState@@@std@@@std@@@2@0@Z ; std::vector<FSMState *,std::allocator<FSMState *> >::erase
; Function compile flags: /Ogsp
;	COMDAT ?erase@?$vector@PAVFSMState@@V?$allocator@PAVFSMState@@@std@@@std@@QAE?AV?$_Vector_iterator@V?$_Vector_val@PAVFSMState@@V?$allocator@PAVFSMState@@@std@@@std@@@2@V?$_Vector_const_iterator@V?$_Vector_val@PAVFSMState@@V?$allocator@PAVFSMState@@@std@@@std@@@2@0@Z
_TEXT	SEGMENT
___$ReturnUdt$ = 8					; size = 4
__First_arg$ = 12					; size = 4
__Cat$507388 = 16					; size = 1
__Last_arg$ = 16					; size = 4
?erase@?$vector@PAVFSMState@@V?$allocator@PAVFSMState@@@std@@@std@@QAE?AV?$_Vector_iterator@V?$_Vector_val@PAVFSMState@@V?$allocator@PAVFSMState@@@std@@@std@@@2@V?$_Vector_const_iterator@V?$_Vector_val@PAVFSMState@@V?$allocator@PAVFSMState@@@std@@@std@@@2@0@Z PROC ; std::vector<FSMState *,std::allocator<FSMState *> >::erase, COMDAT
; _this$ = ecx

; 1190 : 		{	// erase [_First, _Last)

  00000	55		 push	 ebp
  00001	8b ec		 mov	 ebp, esp

; 1191 : 		iterator _First = _Make_iter(_First_arg);

  00003	8b 45 0c	 mov	 eax, DWORD PTR __First_arg$[ebp]
  00006	56		 push	 esi
  00007	57		 push	 edi
  00008	8b 7d 08	 mov	 edi, DWORD PTR ___$ReturnUdt$[ebp]
  0000b	8b f1		 mov	 esi, ecx
  0000d	89 07		 mov	 DWORD PTR [edi], eax

; 1192 : 		iterator _Last = _Make_iter(_Last_arg);
; 1193 : 
; 1194 : 		if (_First != _Last)

  0000f	3b 45 10	 cmp	 eax, DWORD PTR __Last_arg$[ebp]
  00012	74 16		 je	 SHORT $LN1@erase

; 1195 : 			{	// worth doing, copy down over hole
; 1196 :  #if _ITERATOR_DEBUG_LEVEL == 2
; 1197 : 			if (_Last < _First || _VICONT(_First) != this
; 1198 : 				|| _VIPTR(_First) < this->_Myfirst
; 1199 : 				|| this->_Mylast < _VIPTR(_Last))
; 1200 : 				_DEBUG_ERROR("vector erase iterator outside range");
; 1201 : 			pointer _Ptr = _Move(_VIPTR(_Last), this->_Mylast,
; 1202 : 				_VIPTR(_First));
; 1203 : 			_Orphan_range(_VIPTR(_First), this->_Mylast);
; 1204 : 
; 1205 :  #else /* _ITERATOR_DEBUG_LEVEL == 2 */
; 1206 : 			pointer _Ptr = _Move(_VIPTR(_Last), this->_Mylast,
; 1207 : 				_VIPTR(_First));

  00014	ff 75 10	 push	 DWORD PTR __Cat$507388[ebp]
  00017	8b 4e 04	 mov	 ecx, DWORD PTR [esi+4]
  0001a	50		 push	 eax
  0001b	51		 push	 ecx
  0001c	ff 75 10	 push	 DWORD PTR __Last_arg$[ebp]
  0001f	e8 00 00 00 00	 call	 ??$_Move@PAPAVFSMState@@PAPAV1@@std@@YAPAPAVFSMState@@PAPAV1@00U_Scalar_ptr_iterator_tag@0@@Z ; std::_Move<FSMState * *,FSMState * *>
  00024	83 c4 10	 add	 esp, 16			; 00000010H

; 1208 :  #endif /* _ITERATOR_DEBUG_LEVEL == 2 */
; 1209 : 
; 1210 : 			_Destroy(_Ptr, this->_Mylast);
; 1211 : 			this->_Mylast = _Ptr;

  00027	89 46 04	 mov	 DWORD PTR [esi+4], eax
$LN1@erase:

; 1212 : 			}
; 1213 : 		return (_First);

  0002a	8b c7		 mov	 eax, edi
  0002c	5f		 pop	 edi
  0002d	5e		 pop	 esi

; 1214 : 		}

  0002e	5d		 pop	 ebp
  0002f	c2 0c 00	 ret	 12			; 0000000cH
?erase@?$vector@PAVFSMState@@V?$allocator@PAVFSMState@@@std@@@std@@QAE?AV?$_Vector_iterator@V?$_Vector_val@PAVFSMState@@V?$allocator@PAVFSMState@@@std@@@std@@@2@V?$_Vector_const_iterator@V?$_Vector_val@PAVFSMState@@V?$allocator@PAVFSMState@@@std@@@std@@@2@0@Z ENDP ; std::vector<FSMState *,std::allocator<FSMState *> >::erase
_TEXT	ENDS
PUBLIC	?_Reserve@?$vector@PAVFSMState@@V?$allocator@PAVFSMState@@@std@@@std@@IAEXI@Z ; std::vector<FSMState *,std::allocator<FSMState *> >::_Reserve
; Function compile flags: /Ogsp
;	COMDAT ?_Reserve@?$vector@PAVFSMState@@V?$allocator@PAVFSMState@@@std@@@std@@IAEXI@Z
_TEXT	SEGMENT
__Count$ = 8						; size = 4
?_Reserve@?$vector@PAVFSMState@@V?$allocator@PAVFSMState@@@std@@@std@@IAEXI@Z PROC ; std::vector<FSMState *,std::allocator<FSMState *> >::_Reserve, COMDAT
; _this$ = ecx

; 1290 : 		{	// ensure room for _Count new elements, grow exponentially

  00000	55		 push	 ebp
  00001	8b ec		 mov	 ebp, esp
  00003	56		 push	 esi
  00004	8b f1		 mov	 esi, ecx

; 1291 : 		size_type _Size = size();

  00006	8b 0e		 mov	 ecx, DWORD PTR [esi]
  00008	8b 46 04	 mov	 eax, DWORD PTR [esi+4]
  0000b	2b c1		 sub	 eax, ecx

; 1292 : 		if (max_size() - _Count < _Size)

  0000d	ba ff ff ff 3f	 mov	 edx, 1073741823		; 3fffffffH
  00012	2b 55 08	 sub	 edx, DWORD PTR __Count$[ebp]
  00015	c1 f8 02	 sar	 eax, 2
  00018	3b d0		 cmp	 edx, eax
  0001a	73 0b		 jae	 SHORT $LN4@Reserve

; 1293 : 			_Xlen();

  0001c	68 00 00 00 00	 push	 OFFSET ??_C@_0BD@OLBABOEK@vector?$DMT?$DO?5too?5long?$AA@
  00021	ff 15 00 00 00
	00		 call	 DWORD PTR __imp_?_Xlength_error@std@@YAXPBD@Z
$LN21@Reserve:
$LN4@Reserve:

; 1294 : 		else if ((_Size += _Count) <= capacity())

  00027	8b 56 08	 mov	 edx, DWORD PTR [esi+8]
  0002a	03 45 08	 add	 eax, DWORD PTR __Count$[ebp]
  0002d	2b d1		 sub	 edx, ecx
  0002f	c1 fa 02	 sar	 edx, 2
  00032	3b c2		 cmp	 eax, edx
  00034	76 10		 jbe	 SHORT $LN1@Reserve

; 1295 : 			;
; 1296 : 		else
; 1297 : 			reserve(_Grow_to(_Size));

  00036	50		 push	 eax
  00037	8b ce		 mov	 ecx, esi
  00039	e8 00 00 00 00	 call	 ?_Grow_to@?$vector@PAVFSMState@@V?$allocator@PAVFSMState@@@std@@@std@@IBEII@Z ; std::vector<FSMState *,std::allocator<FSMState *> >::_Grow_to
  0003e	50		 push	 eax
  0003f	8b ce		 mov	 ecx, esi
  00041	e8 00 00 00 00	 call	 ?reserve@?$vector@PAVFSMState@@V?$allocator@PAVFSMState@@@std@@@std@@QAEXI@Z ; std::vector<FSMState *,std::allocator<FSMState *> >::reserve
$LN1@Reserve:
  00046	5e		 pop	 esi

; 1298 : 		}

  00047	5d		 pop	 ebp
  00048	c2 04 00	 ret	 4
$LN20@Reserve:
?_Reserve@?$vector@PAVFSMState@@V?$allocator@PAVFSMState@@@std@@@std@@IAEXI@Z ENDP ; std::vector<FSMState *,std::allocator<FSMState *> >::_Reserve
_TEXT	ENDS
PUBLIC	?erase@?$vector@HV?$allocator@H@std@@@std@@QAE?AV?$_Vector_iterator@V?$_Vector_val@HV?$allocator@H@std@@@std@@@2@V?$_Vector_const_iterator@V?$_Vector_val@HV?$allocator@H@std@@@std@@@2@0@Z ; std::vector<int,std::allocator<int> >::erase
; Function compile flags: /Ogsp
;	COMDAT ?erase@?$vector@HV?$allocator@H@std@@@std@@QAE?AV?$_Vector_iterator@V?$_Vector_val@HV?$allocator@H@std@@@std@@@2@V?$_Vector_const_iterator@V?$_Vector_val@HV?$allocator@H@std@@@std@@@2@0@Z
_TEXT	SEGMENT
___$ReturnUdt$ = 8					; size = 4
__First_arg$ = 12					; size = 4
__Cat$507527 = 16					; size = 1
__Last_arg$ = 16					; size = 4
?erase@?$vector@HV?$allocator@H@std@@@std@@QAE?AV?$_Vector_iterator@V?$_Vector_val@HV?$allocator@H@std@@@std@@@2@V?$_Vector_const_iterator@V?$_Vector_val@HV?$allocator@H@std@@@std@@@2@0@Z PROC ; std::vector<int,std::allocator<int> >::erase, COMDAT
; _this$ = ecx

; 1190 : 		{	// erase [_First, _Last)

  00000	55		 push	 ebp
  00001	8b ec		 mov	 ebp, esp

; 1191 : 		iterator _First = _Make_iter(_First_arg);

  00003	8b 45 0c	 mov	 eax, DWORD PTR __First_arg$[ebp]
  00006	56		 push	 esi
  00007	57		 push	 edi
  00008	8b 7d 08	 mov	 edi, DWORD PTR ___$ReturnUdt$[ebp]
  0000b	8b f1		 mov	 esi, ecx
  0000d	89 07		 mov	 DWORD PTR [edi], eax

; 1192 : 		iterator _Last = _Make_iter(_Last_arg);
; 1193 : 
; 1194 : 		if (_First != _Last)

  0000f	3b 45 10	 cmp	 eax, DWORD PTR __Last_arg$[ebp]
  00012	74 16		 je	 SHORT $LN1@erase@2

; 1195 : 			{	// worth doing, copy down over hole
; 1196 :  #if _ITERATOR_DEBUG_LEVEL == 2
; 1197 : 			if (_Last < _First || _VICONT(_First) != this
; 1198 : 				|| _VIPTR(_First) < this->_Myfirst
; 1199 : 				|| this->_Mylast < _VIPTR(_Last))
; 1200 : 				_DEBUG_ERROR("vector erase iterator outside range");
; 1201 : 			pointer _Ptr = _Move(_VIPTR(_Last), this->_Mylast,
; 1202 : 				_VIPTR(_First));
; 1203 : 			_Orphan_range(_VIPTR(_First), this->_Mylast);
; 1204 : 
; 1205 :  #else /* _ITERATOR_DEBUG_LEVEL == 2 */
; 1206 : 			pointer _Ptr = _Move(_VIPTR(_Last), this->_Mylast,
; 1207 : 				_VIPTR(_First));

  00014	ff 75 10	 push	 DWORD PTR __Cat$507527[ebp]
  00017	8b 4e 04	 mov	 ecx, DWORD PTR [esi+4]
  0001a	50		 push	 eax
  0001b	51		 push	 ecx
  0001c	ff 75 10	 push	 DWORD PTR __Last_arg$[ebp]
  0001f	e8 00 00 00 00	 call	 ??$_Move@PAHPAH@std@@YAPAHPAH00U_Scalar_ptr_iterator_tag@0@@Z ; std::_Move<int *,int *>
  00024	83 c4 10	 add	 esp, 16			; 00000010H

; 1208 :  #endif /* _ITERATOR_DEBUG_LEVEL == 2 */
; 1209 : 
; 1210 : 			_Destroy(_Ptr, this->_Mylast);
; 1211 : 			this->_Mylast = _Ptr;

  00027	89 46 04	 mov	 DWORD PTR [esi+4], eax
$LN1@erase@2:

; 1212 : 			}
; 1213 : 		return (_First);

  0002a	8b c7		 mov	 eax, edi
  0002c	5f		 pop	 edi
  0002d	5e		 pop	 esi

; 1214 : 		}

  0002e	5d		 pop	 ebp
  0002f	c2 0c 00	 ret	 12			; 0000000cH
?erase@?$vector@HV?$allocator@H@std@@@std@@QAE?AV?$_Vector_iterator@V?$_Vector_val@HV?$allocator@H@std@@@std@@@2@V?$_Vector_const_iterator@V?$_Vector_val@HV?$allocator@H@std@@@std@@@2@0@Z ENDP ; std::vector<int,std::allocator<int> >::erase
_TEXT	ENDS
PUBLIC	?_Tidy@?$vector@HV?$allocator@H@std@@@std@@IAEXXZ ; std::vector<int,std::allocator<int> >::_Tidy
; Function compile flags: /Ogsp
;	COMDAT ?_Tidy@?$vector@HV?$allocator@H@std@@@std@@IAEXXZ
_TEXT	SEGMENT
?_Tidy@?$vector@HV?$allocator@H@std@@@std@@IAEXXZ PROC	; std::vector<int,std::allocator<int> >::_Tidy, COMDAT
; _this$ = ecx

; 1301 : 		{	// free all storage

  00000	56		 push	 esi
  00001	8b f1		 mov	 esi, ecx

; 1302 : 		if (this->_Myfirst != 0)

  00003	83 3e 00	 cmp	 DWORD PTR [esi], 0
  00006	74 0e		 je	 SHORT $LN12@Tidy@2

; 1303 : 			{	// something to free, destroy and deallocate it
; 1304 : 			this->_Orphan_all();

  00008	ff 15 00 00 00
	00		 call	 DWORD PTR __imp_?_Orphan_all@_Container_base0@std@@QAEXXZ

; 1305 : 			_Destroy(this->_Myfirst, this->_Mylast);
; 1306 : 			this->_Alval.deallocate(this->_Myfirst,
; 1307 : 				this->_Myend - this->_Myfirst);

  0000e	ff 36		 push	 DWORD PTR [esi]
  00010	e8 00 00 00 00	 call	 ??3@YAXPAX@Z		; operator delete
  00015	59		 pop	 ecx
$LN12@Tidy@2:

; 1308 : 			}
; 1309 : 		this->_Myfirst = 0;

  00016	83 26 00	 and	 DWORD PTR [esi], 0

; 1310 : 		this->_Mylast = 0;

  00019	83 66 04 00	 and	 DWORD PTR [esi+4], 0

; 1311 : 		this->_Myend = 0;

  0001d	83 66 08 00	 and	 DWORD PTR [esi+8], 0
  00021	5e		 pop	 esi

; 1312 : 		}

  00022	c3		 ret	 0
?_Tidy@?$vector@HV?$allocator@H@std@@@std@@IAEXXZ ENDP	; std::vector<int,std::allocator<int> >::_Tidy
_TEXT	ENDS
PUBLIC	?reserve@?$vector@HV?$allocator@H@std@@@std@@QAEXI@Z ; std::vector<int,std::allocator<int> >::reserve
; Function compile flags: /Ogsp
;	COMDAT ?reserve@?$vector@HV?$allocator@H@std@@@std@@QAEXI@Z
_TEXT	SEGMENT
__Count$ = 8						; size = 4
?reserve@?$vector@HV?$allocator@H@std@@@std@@QAEXI@Z PROC ; std::vector<int,std::allocator<int> >::reserve, COMDAT
; _this$ = ecx

; 746  : 		{	// determine new minimum length of allocated storage

  00000	55		 push	 ebp
  00001	8b ec		 mov	 ebp, esp

; 747  : 		if (max_size() < _Count)

  00003	81 7d 08 ff ff
	ff 3f		 cmp	 DWORD PTR __Count$[ebp], 1073741823 ; 3fffffffH
  0000a	56		 push	 esi
  0000b	8b f1		 mov	 esi, ecx
  0000d	76 0b		 jbe	 SHORT $LN5@reserve@2

; 748  : 			_Xlen();	// result too long

  0000f	68 00 00 00 00	 push	 OFFSET ??_C@_0BD@OLBABOEK@vector?$DMT?$DO?5too?5long?$AA@
  00014	ff 15 00 00 00
	00		 call	 DWORD PTR __imp_?_Xlength_error@std@@YAXPBD@Z
$LN43@reserve@2:
$LN5@reserve@2:

; 749  : 		else if (capacity() < _Count)

  0001a	8b 46 08	 mov	 eax, DWORD PTR [esi+8]
  0001d	2b 06		 sub	 eax, DWORD PTR [esi]
  0001f	c1 f8 02	 sar	 eax, 2
  00022	3b 45 08	 cmp	 eax, DWORD PTR __Count$[ebp]
  00025	73 52		 jae	 SHORT $LN3@reserve@2

; 750  : 			{	// not enough room, reallocate
; 751  : 			pointer _Ptr = this->_Alval.allocate(_Count);

  00027	53		 push	 ebx
  00028	57		 push	 edi
  00029	6a 00		 push	 0
  0002b	ff 75 08	 push	 DWORD PTR __Count$[ebp]
  0002e	e8 00 00 00 00	 call	 ??$_Allocate@H@std@@YAPAHIPAH@Z ; std::_Allocate<int>

; 752  : 
; 753  : 			_TRY_BEGIN
; 754  : 			_Umove(this->_Myfirst, this->_Mylast, _Ptr);

  00033	8b 0e		 mov	 ecx, DWORD PTR [esi]
  00035	8d 56 0c	 lea	 edx, DWORD PTR [esi+12]
  00038	52		 push	 edx
  00039	8b d8		 mov	 ebx, eax
  0003b	8b 46 04	 mov	 eax, DWORD PTR [esi+4]
  0003e	53		 push	 ebx
  0003f	50		 push	 eax
  00040	51		 push	 ecx
  00041	e8 00 00 00 00	 call	 ??$_Uninitialized_move@PAHPAHV?$allocator@H@std@@@std@@YAPAHPAH00AAV?$allocator@H@0@@Z ; std::_Uninitialized_move<int *,int *,std::allocator<int> >

; 755  : 			_CATCH_ALL
; 756  : 			this->_Alval.deallocate(_Ptr, _Count);
; 757  : 			_RERAISE;
; 758  : 			_CATCH_END
; 759  : 
; 760  : 			size_type _Size = size();

  00046	8b 06		 mov	 eax, DWORD PTR [esi]
  00048	8b 7e 04	 mov	 edi, DWORD PTR [esi+4]
  0004b	2b f8		 sub	 edi, eax
  0004d	83 c4 18	 add	 esp, 24			; 00000018H
  00050	c1 ff 02	 sar	 edi, 2

; 761  : 			if (this->_Myfirst != 0)

  00053	85 c0		 test	 eax, eax
  00055	74 07		 je	 SHORT $LN39@reserve@2

; 762  : 				{	// destroy and deallocate old array
; 763  : 				_Destroy(this->_Myfirst, this->_Mylast);
; 764  : 				this->_Alval.deallocate(this->_Myfirst,
; 765  : 					this->_Myend - this->_Myfirst);

  00057	50		 push	 eax
  00058	e8 00 00 00 00	 call	 ??3@YAXPAX@Z		; operator delete
  0005d	59		 pop	 ecx
$LN39@reserve@2:

; 766  : 				}
; 767  : 
; 768  : 			this->_Orphan_all();

  0005e	8b ce		 mov	 ecx, esi
  00060	ff 15 00 00 00
	00		 call	 DWORD PTR __imp_?_Orphan_all@_Container_base0@std@@QAEXXZ

; 769  : 			this->_Myend = _Ptr + _Count;

  00066	8b 45 08	 mov	 eax, DWORD PTR __Count$[ebp]
  00069	8d 04 83	 lea	 eax, DWORD PTR [ebx+eax*4]
  0006c	89 46 08	 mov	 DWORD PTR [esi+8], eax

; 770  : 			this->_Mylast = _Ptr + _Size;

  0006f	8d 04 bb	 lea	 eax, DWORD PTR [ebx+edi*4]
  00072	5f		 pop	 edi

; 771  : 			this->_Myfirst = _Ptr;

  00073	89 1e		 mov	 DWORD PTR [esi], ebx
  00075	89 46 04	 mov	 DWORD PTR [esi+4], eax
  00078	5b		 pop	 ebx
$LN3@reserve@2:
  00079	5e		 pop	 esi

; 772  : 			}
; 773  : 		}

  0007a	5d		 pop	 ebp
  0007b	c2 04 00	 ret	 4
$LN42@reserve@2:
?reserve@?$vector@HV?$allocator@H@std@@@std@@QAEXI@Z ENDP ; std::vector<int,std::allocator<int> >::reserve
_TEXT	ENDS
PUBLIC	?Delete@FSMState@@QAEXH@Z			; FSMState::Delete
; Function compile flags: /Ogsp
; File d:\lost saga for developer\youtube\tutorial\source\src\lsclient\gui\fsmstatemgr.cpp
;	COMDAT ?Delete@FSMState@@QAEXH@Z
_TEXT	SEGMENT
_i$505106 = -4						; size = 4
$T507690 = 8						; size = 4
$T507686 = 8						; size = 4
$T507682 = 8						; size = 4
_a_iInput$ = 8						; size = 4
?Delete@FSMState@@QAEXH@Z PROC				; FSMState::Delete, COMDAT
; _this$ = ecx

; 46   : {

  00000	55		 push	 ebp
  00001	8b ec		 mov	 ebp, esp
  00003	51		 push	 ecx

; 48   : 	for (int i = 0; i < iSize ; i++)

  00004	83 65 fc 00	 and	 DWORD PTR _i$505106[ebp], 0
  00008	57		 push	 edi
  00009	8b f9		 mov	 edi, ecx
  0000b	8d 4f 08	 lea	 ecx, DWORD PTR [edi+8]
  0000e	8b 41 04	 mov	 eax, DWORD PTR [ecx+4]
  00011	2b 01		 sub	 eax, DWORD PTR [ecx]
  00013	c1 f8 02	 sar	 eax, 2
  00016	85 c0		 test	 eax, eax
  00018	7e 51		 jle	 SHORT $LN2@Delete

; 47   : 	int iSize = m_vInput.size();

  0001a	8b 11		 mov	 edx, DWORD PTR [ecx]
  0001c	56		 push	 esi
  0001d	8b f2		 mov	 esi, edx
  0001f	53		 push	 ebx
$LL4@Delete:

; 49   : 	{
; 50   : 		if( a_iInput == m_vInput[i] )

  00020	8b 5d 08	 mov	 ebx, DWORD PTR _a_iInput$[ebp]
  00023	3b 1e		 cmp	 ebx, DWORD PTR [esi]
  00025	74 0d		 je	 SHORT $LN54@Delete

; 48   : 	for (int i = 0; i < iSize ; i++)

  00027	ff 45 fc	 inc	 DWORD PTR _i$505106[ebp]
  0002a	83 c6 04	 add	 esi, 4
  0002d	39 45 fc	 cmp	 DWORD PTR _i$505106[ebp], eax
  00030	7c ee		 jl	 SHORT $LL4@Delete

; 49   : 	{
; 50   : 		if( a_iInput == m_vInput[i] )

  00032	eb 35		 jmp	 SHORT $LN57@Delete
$LN54@Delete:

; 51   : 		{
; 52   : 			m_vInput.erase(m_vInput.begin() + i);

  00034	8b 75 fc	 mov	 esi, DWORD PTR _i$505106[ebp]
  00037	c1 e6 02	 shl	 esi, 2
  0003a	8d 04 32	 lea	 eax, DWORD PTR [edx+esi]
  0003d	50		 push	 eax
  0003e	8d 45 08	 lea	 eax, DWORD PTR $T507682[ebp]
  00041	50		 push	 eax
  00042	e8 00 00 00 00	 call	 ?erase@?$vector@HV?$allocator@H@std@@@std@@QAE?AV?$_Vector_iterator@V?$_Vector_val@HV?$allocator@H@std@@@std@@@2@V?$_Vector_const_iterator@V?$_Vector_val@HV?$allocator@H@std@@@std@@@2@@Z ; std::vector<int,std::allocator<int> >::erase

; 53   : 			m_vOutput.erase(m_vOutput.begin() + i);

  00047	8d 4f 18	 lea	 ecx, DWORD PTR [edi+24]
  0004a	8b 01		 mov	 eax, DWORD PTR [ecx]
  0004c	03 c6		 add	 eax, esi
  0004e	50		 push	 eax
  0004f	8d 45 08	 lea	 eax, DWORD PTR $T507686[ebp]
  00052	50		 push	 eax
  00053	e8 00 00 00 00	 call	 ?erase@?$vector@HV?$allocator@H@std@@@std@@QAE?AV?$_Vector_iterator@V?$_Vector_val@HV?$allocator@H@std@@@std@@@2@V?$_Vector_const_iterator@V?$_Vector_val@HV?$allocator@H@std@@@std@@@2@@Z ; std::vector<int,std::allocator<int> >::erase

; 54   : 			m_vDelay.erase(m_vDelay.begin() + i);

  00058	8d 4f 28	 lea	 ecx, DWORD PTR [edi+40]
  0005b	8b 01		 mov	 eax, DWORD PTR [ecx]
  0005d	03 c6		 add	 eax, esi
  0005f	50		 push	 eax
  00060	8d 45 08	 lea	 eax, DWORD PTR $T507690[ebp]
  00063	50		 push	 eax
  00064	e8 00 00 00 00	 call	 ?erase@?$vector@HV?$allocator@H@std@@@std@@QAE?AV?$_Vector_iterator@V?$_Vector_val@HV?$allocator@H@std@@@std@@@2@V?$_Vector_const_iterator@V?$_Vector_val@HV?$allocator@H@std@@@std@@@2@@Z ; std::vector<int,std::allocator<int> >::erase
$LN57@Delete:
  00069	5b		 pop	 ebx
  0006a	5e		 pop	 esi
$LN2@Delete:
  0006b	5f		 pop	 edi

; 55   : 			break;
; 56   : 		}
; 57   : 	}
; 58   : }

  0006c	c9		 leave
  0006d	c2 04 00	 ret	 4
?Delete@FSMState@@QAEXH@Z ENDP				; FSMState::Delete
_TEXT	ENDS
PUBLIC	??_7FSMStateMgr@@6B@				; FSMStateMgr::`vftable'
PUBLIC	??0FSMStateMgr@@QAE@XZ				; FSMStateMgr::FSMStateMgr
PUBLIC	??_R4FSMStateMgr@@6B@				; FSMStateMgr::`RTTI Complete Object Locator'
PUBLIC	??_R0?AVFSMStateMgr@@@8				; FSMStateMgr `RTTI Type Descriptor'
PUBLIC	??_R3FSMStateMgr@@8				; FSMStateMgr::`RTTI Class Hierarchy Descriptor'
PUBLIC	??_R2FSMStateMgr@@8				; FSMStateMgr::`RTTI Base Class Array'
PUBLIC	??_R1A@?0A@EA@FSMStateMgr@@8			; FSMStateMgr::`RTTI Base Class Descriptor at (0,-1,0,64)'
EXTRN	___CxxFrameHandler3:PROC
EXTRN	@__security_check_cookie@4:PROC
EXTRN	__EH_epilog3:PROC
EXTRN	__EH_prolog3:PROC
EXTRN	??_EFSMStateMgr@@UAEPAXI@Z:PROC			; FSMStateMgr::`vector deleting destructor'
;	COMDAT ??_R1A@?0A@EA@FSMStateMgr@@8
; File c:\program files (x86)\microsoft visual studio 10.0\vc\include\xmemory
rdata$r	SEGMENT
??_R1A@?0A@EA@FSMStateMgr@@8 DD FLAT:??_R0?AVFSMStateMgr@@@8 ; FSMStateMgr::`RTTI Base Class Descriptor at (0,-1,0,64)'
	DD	00H
	DD	00H
	DD	0ffffffffH
	DD	00H
	DD	040H
	DD	FLAT:??_R3FSMStateMgr@@8
rdata$r	ENDS
;	COMDAT ??_R2FSMStateMgr@@8
rdata$r	SEGMENT
??_R2FSMStateMgr@@8 DD FLAT:??_R1A@?0A@EA@FSMStateMgr@@8 ; FSMStateMgr::`RTTI Base Class Array'
rdata$r	ENDS
;	COMDAT ??_R3FSMStateMgr@@8
rdata$r	SEGMENT
??_R3FSMStateMgr@@8 DD 00H				; FSMStateMgr::`RTTI Class Hierarchy Descriptor'
	DD	00H
	DD	01H
	DD	FLAT:??_R2FSMStateMgr@@8
rdata$r	ENDS
;	COMDAT ??_R0?AVFSMStateMgr@@@8
_DATA	SEGMENT
??_R0?AVFSMStateMgr@@@8 DD FLAT:??_7type_info@@6B@	; FSMStateMgr `RTTI Type Descriptor'
	DD	00H
	DB	'.?AVFSMStateMgr@@', 00H
_DATA	ENDS
;	COMDAT ??_R4FSMStateMgr@@6B@
rdata$r	SEGMENT
??_R4FSMStateMgr@@6B@ DD 00H				; FSMStateMgr::`RTTI Complete Object Locator'
	DD	00H
	DD	00H
	DD	FLAT:??_R0?AVFSMStateMgr@@@8
	DD	FLAT:??_R3FSMStateMgr@@8
rdata$r	ENDS
;	COMDAT ??_7FSMStateMgr@@6B@
CONST	SEGMENT
??_7FSMStateMgr@@6B@ DD FLAT:??_R4FSMStateMgr@@6B@	; FSMStateMgr::`vftable'
	DD	FLAT:??_EFSMStateMgr@@UAEPAXI@Z
CONST	ENDS
;	COMDAT xdata$x
xdata$x	SEGMENT
__unwindtable$??0FSMStateMgr@@QAE@XZ DD 0ffffffffH
	DD	FLAT:__unwindfunclet$??0FSMStateMgr@@QAE@XZ$0
__ehfuncinfo$??0FSMStateMgr@@QAE@XZ DD 019930522H
	DD	01H
	DD	FLAT:__unwindtable$??0FSMStateMgr@@QAE@XZ
	DD	2 DUP(00H)
	DD	2 DUP(00H)
	DD	00H
	DD	01H
; Function compile flags: /Ogsp
; File d:\lost saga for developer\youtube\tutorial\source\src\lsclient\gui\fsmstatemgr.cpp
xdata$x	ENDS
;	COMDAT ??0FSMStateMgr@@QAE@XZ
_TEXT	SEGMENT
_this$ = -16						; size = 4
__$EHRec$ = -12						; size = 12
??0FSMStateMgr@@QAE@XZ PROC				; FSMStateMgr::FSMStateMgr, COMDAT
; _this$ = ecx

; 75   : {

  00000	6a 04		 push	 4
  00002	b8 00 00 00 00	 mov	 eax, __ehhandler$??0FSMStateMgr@@QAE@XZ
  00007	e8 00 00 00 00	 call	 __EH_prolog3
  0000c	8b f1		 mov	 esi, ecx
  0000e	89 75 f0	 mov	 DWORD PTR _this$[ebp], esi
  00011	8d 4e 18	 lea	 ecx, DWORD PTR [esi+24]
  00014	33 c0		 xor	 eax, eax
  00016	c7 06 00 00 00
	00		 mov	 DWORD PTR [esi], OFFSET ??_7FSMStateMgr@@6B@
  0001c	89 01		 mov	 DWORD PTR [ecx], eax
  0001e	89 41 04	 mov	 DWORD PTR [ecx+4], eax
  00021	89 41 08	 mov	 DWORD PTR [ecx+8], eax

; 76   : 	m_iCurState   = FSMState::NONE_VALUE;
; 77   : 	m_dwStartTime = 0;
; 78   : 	m_iCurState   = 0;
; 79   : 	m_iCurDelay   = FSMState::NONE_VALUE;

  00024	83 4e 10 ff	 or	 DWORD PTR [esi+16], -1

; 80   : 	m_iCurArray   = FSMState::NONE_VALUE;

  00028	83 4e 14 ff	 or	 DWORD PTR [esi+20], -1

; 81   : 	m_vState.reserve(10);

  0002c	6a 0a		 push	 10			; 0000000aH
  0002e	89 45 fc	 mov	 DWORD PTR __$EHRec$[ebp+8], eax
  00031	89 46 08	 mov	 DWORD PTR [esi+8], eax
  00034	89 46 04	 mov	 DWORD PTR [esi+4], eax
  00037	e8 00 00 00 00	 call	 ?reserve@?$vector@PAVFSMState@@V?$allocator@PAVFSMState@@@std@@@std@@QAEXI@Z ; std::vector<FSMState *,std::allocator<FSMState *> >::reserve

; 82   : }

  0003c	8b c6		 mov	 eax, esi
  0003e	e8 00 00 00 00	 call	 __EH_epilog3
  00043	c3		 ret	 0
_TEXT	ENDS
;	COMDAT text$x
text$x	SEGMENT
__unwindfunclet$??0FSMStateMgr@@QAE@XZ$0:
  00000	8b 4d f0	 mov	 ecx, DWORD PTR _this$[ebp]
  00003	83 c1 18	 add	 ecx, 24			; 00000018H
  00006	e9 00 00 00 00	 jmp	 ??1?$vector@PAVFSMState@@V?$allocator@PAVFSMState@@@std@@@std@@QAE@XZ ; std::vector<FSMState *,std::allocator<FSMState *> >::~vector<FSMState *,std::allocator<FSMState *> >
__ehhandler$??0FSMStateMgr@@QAE@XZ:
  0000b	8b 54 24 08	 mov	 edx, DWORD PTR [esp+8]
  0000f	8d 42 0c	 lea	 eax, DWORD PTR [edx+12]
  00012	8b 4a ec	 mov	 ecx, DWORD PTR [edx-20]
  00015	33 c8		 xor	 ecx, eax
  00017	e8 00 00 00 00	 call	 @__security_check_cookie@4
  0001c	b8 00 00 00 00	 mov	 eax, OFFSET __ehfuncinfo$??0FSMStateMgr@@QAE@XZ
  00021	e9 00 00 00 00	 jmp	 ___CxxFrameHandler3
text$x	ENDS
??0FSMStateMgr@@QAE@XZ ENDP				; FSMStateMgr::FSMStateMgr
PUBLIC	?GetDelay@FSMStateMgr@@IAEHH@Z			; FSMStateMgr::GetDelay
; Function compile flags: /Ogsp
;	COMDAT ?GetDelay@FSMStateMgr@@IAEHH@Z
_TEXT	SEGMENT
_a_iInput$ = 8						; size = 4
?GetDelay@FSMStateMgr@@IAEHH@Z PROC			; FSMStateMgr::GetDelay, COMDAT
; _this$ = ecx

; 145  : {

  00000	55		 push	 ebp
  00001	8b ec		 mov	 ebp, esp
  00003	56		 push	 esi
  00004	8b c1		 mov	 eax, ecx

; 146  : 	for(vState::iterator it = m_vState.begin(); it != m_vState.end(); ++it)

  00006	8b 50 18	 mov	 edx, DWORD PTR [eax+24]
  00009	8b 70 1c	 mov	 esi, DWORD PTR [eax+28]
  0000c	57		 push	 edi
  0000d	eb 11		 jmp	 SHORT $LN44@GetDelay@2
$LL18@GetDelay@2:

; 147  : 	{
; 148  : 		FSMState *pState = (*it);

  0000f	8b 0a		 mov	 ecx, DWORD PTR [edx]

; 149  : 		if( !pState ) continue;

  00011	85 c9		 test	 ecx, ecx
  00013	74 08		 je	 SHORT $LN4@GetDelay@2

; 150  : 		if( m_iCurState != pState->GetState() ) continue;

  00015	8b 78 04	 mov	 edi, DWORD PTR [eax+4]
  00018	3b 79 04	 cmp	 edi, DWORD PTR [ecx+4]
  0001b	74 10		 je	 SHORT $LN1@GetDelay@2
$LN4@GetDelay@2:

; 146  : 	for(vState::iterator it = m_vState.begin(); it != m_vState.end(); ++it)

  0001d	83 c2 04	 add	 edx, 4
$LN44@GetDelay@2:
  00020	3b d6		 cmp	 edx, esi
  00022	75 eb		 jne	 SHORT $LL18@GetDelay@2

; 153  : 	}
; 154  : 
; 155  : 	return FSMState::NONE_VALUE;

  00024	5f		 pop	 edi
  00025	83 c8 ff	 or	 eax, -1
  00028	5e		 pop	 esi

; 156  : }

  00029	5d		 pop	 ebp
  0002a	c2 04 00	 ret	 4
$LN1@GetDelay@2:
  0002d	5f		 pop	 edi
  0002e	5e		 pop	 esi
  0002f	5d		 pop	 ebp

; 151  : 
; 152  : 		return pState->GetDelay( a_iInput );

  00030	e9 00 00 00 00	 jmp	 ?GetDelay@FSMState@@QAEHH@Z ; FSMState::GetDelay
?GetDelay@FSMStateMgr@@IAEHH@Z ENDP			; FSMStateMgr::GetDelay
_TEXT	ENDS
PUBLIC	?UpdateTime@FSMStateMgr@@QAEXXZ			; FSMStateMgr::UpdateTime
EXTRN	__imp_?GetLoopSec@ioFrameTimer@@QBEKXZ:PROC
EXTRN	__imp_?GetSingleton@ioFrameTimer@@SAAAV1@XZ:PROC
; Function compile flags: /Ogsp
;	COMDAT ?UpdateTime@FSMStateMgr@@QAEXXZ
_TEXT	SEGMENT
?UpdateTime@FSMStateMgr@@QAEXXZ PROC			; FSMStateMgr::UpdateTime, COMDAT
; _this$ = ecx

; 159  : {

  00000	56		 push	 esi
  00001	8b f1		 mov	 esi, ecx

; 160  : 	if( !COMPARE( m_iCurArray, 0, (int) m_vState.size() ) ) return;

  00003	8b 46 14	 mov	 eax, DWORD PTR [esi+20]
  00006	85 c0		 test	 eax, eax
  00008	78 69		 js	 SHORT $LN2@UpdateTime
  0000a	8b 4e 1c	 mov	 ecx, DWORD PTR [esi+28]
  0000d	2b 4e 18	 sub	 ecx, DWORD PTR [esi+24]
  00010	c1 f9 02	 sar	 ecx, 2
  00013	3b c1		 cmp	 eax, ecx
  00015	7d 5c		 jge	 SHORT $LN2@UpdateTime

; 161  : 	
; 162  : 	m_dwCurTime = FRAMEGETTIME() - m_dwStartTime;

  00017	53		 push	 ebx
  00018	57		 push	 edi
  00019	8b 3d 00 00 00
	00		 mov	 edi, DWORD PTR __imp_?GetSingleton@ioFrameTimer@@SAAAV1@XZ
  0001f	ff d7		 call	 edi
  00021	8b c8		 mov	 ecx, eax
  00023	ff 15 00 00 00
	00		 call	 DWORD PTR __imp_?GetLoopSec@ioFrameTimer@@QBEKXZ
  00029	2b 46 08	 sub	 eax, DWORD PTR [esi+8]

; 163  : 	int iCurState = m_vState[m_iCurArray]->GetOutput( m_iCurState,  m_dwCurTime );

  0002c	8b 4e 18	 mov	 ecx, DWORD PTR [esi+24]
  0002f	89 46 0c	 mov	 DWORD PTR [esi+12], eax
  00032	50		 push	 eax
  00033	8b 46 14	 mov	 eax, DWORD PTR [esi+20]
  00036	ff 76 04	 push	 DWORD PTR [esi+4]
  00039	8b 0c 81	 mov	 ecx, DWORD PTR [ecx+eax*4]
  0003c	e8 00 00 00 00	 call	 ?GetOutput@FSMState@@QAEHHK@Z ; FSMState::GetOutput
  00041	8b d8		 mov	 ebx, eax

; 164  : 
; 165  : 	if( iCurState != m_iCurState )

  00043	3b 5e 04	 cmp	 ebx, DWORD PTR [esi+4]
  00046	74 29		 je	 SHORT $LN10@UpdateTime

; 166  : 	{
; 167  : 		m_dwStartTime = FRAMEGETTIME();

  00048	ff d7		 call	 edi
  0004a	8b c8		 mov	 ecx, eax
  0004c	ff 15 00 00 00
	00		 call	 DWORD PTR __imp_?GetLoopSec@ioFrameTimer@@QBEKXZ

; 168  : 		m_dwCurTime   = 0;

  00052	83 66 0c 00	 and	 DWORD PTR [esi+12], 0

; 169  : 		m_iCurState   = iCurState;
; 170  : 		m_iCurDelay   = GetDelay( m_iCurState );

  00056	53		 push	 ebx
  00057	8b ce		 mov	 ecx, esi
  00059	89 46 08	 mov	 DWORD PTR [esi+8], eax
  0005c	89 5e 04	 mov	 DWORD PTR [esi+4], ebx
  0005f	e8 00 00 00 00	 call	 ?GetDelay@FSMStateMgr@@IAEHH@Z ; FSMStateMgr::GetDelay

; 171  : 		m_iCurArray   = GetArray();

  00064	8b ce		 mov	 ecx, esi
  00066	89 46 10	 mov	 DWORD PTR [esi+16], eax
  00069	e8 00 00 00 00	 call	 ?GetArray@FSMStateMgr@@IAEHXZ ; FSMStateMgr::GetArray
  0006e	89 46 14	 mov	 DWORD PTR [esi+20], eax
$LN10@UpdateTime:
  00071	5f		 pop	 edi
  00072	5b		 pop	 ebx
$LN2@UpdateTime:
  00073	5e		 pop	 esi

; 172  : 	}
; 173  : }

  00074	c3		 ret	 0
?UpdateTime@FSMStateMgr@@QAEXXZ ENDP			; FSMStateMgr::UpdateTime
_TEXT	ENDS
PUBLIC	?SetCurState@FSMStateMgr@@QAEXH@Z		; FSMStateMgr::SetCurState
; Function compile flags: /Ogsp
;	COMDAT ?SetCurState@FSMStateMgr@@QAEXH@Z
_TEXT	SEGMENT
_iCurState$ = 8						; size = 4
?SetCurState@FSMStateMgr@@QAEXH@Z PROC			; FSMStateMgr::SetCurState, COMDAT
; _this$ = ecx

; 190  : {

  00000	55		 push	 ebp
  00001	8b ec		 mov	 ebp, esp
  00003	56		 push	 esi
  00004	8b f1		 mov	 esi, ecx

; 191  : 	m_dwStartTime = FRAMEGETTIME();

  00006	ff 15 00 00 00
	00		 call	 DWORD PTR __imp_?GetSingleton@ioFrameTimer@@SAAAV1@XZ
  0000c	8b c8		 mov	 ecx, eax
  0000e	ff 15 00 00 00
	00		 call	 DWORD PTR __imp_?GetLoopSec@ioFrameTimer@@QBEKXZ

; 192  : 	m_dwCurTime   = 0;

  00014	83 66 0c 00	 and	 DWORD PTR [esi+12], 0
  00018	89 46 08	 mov	 DWORD PTR [esi+8], eax

; 193  : 	m_iCurState   = iCurState;

  0001b	8b 45 08	 mov	 eax, DWORD PTR _iCurState$[ebp]

; 194  : 	m_iCurDelay   = GetDelay( m_iCurState );

  0001e	50		 push	 eax
  0001f	8b ce		 mov	 ecx, esi
  00021	89 46 04	 mov	 DWORD PTR [esi+4], eax
  00024	e8 00 00 00 00	 call	 ?GetDelay@FSMStateMgr@@IAEHH@Z ; FSMStateMgr::GetDelay

; 195  : 	m_iCurArray   = GetArray();

  00029	8b ce		 mov	 ecx, esi
  0002b	89 46 10	 mov	 DWORD PTR [esi+16], eax
  0002e	e8 00 00 00 00	 call	 ?GetArray@FSMStateMgr@@IAEHXZ ; FSMStateMgr::GetArray
  00033	89 46 14	 mov	 DWORD PTR [esi+20], eax
  00036	5e		 pop	 esi

; 196  : }

  00037	5d		 pop	 ebp
  00038	c2 04 00	 ret	 4
?SetCurState@FSMStateMgr@@QAEXH@Z ENDP			; FSMStateMgr::SetCurState
_TEXT	ENDS
PUBLIC	?push_back@?$vector@PAVFSMState@@V?$allocator@PAVFSMState@@@std@@@std@@QAEXABQAVFSMState@@@Z ; std::vector<FSMState *,std::allocator<FSMState *> >::push_back
; Function compile flags: /Ogsp
; File c:\program files (x86)\microsoft visual studio 10.0\vc\include\vector
;	COMDAT ?push_back@?$vector@PAVFSMState@@V?$allocator@PAVFSMState@@@std@@@std@@QAEXABQAVFSMState@@@Z
_TEXT	SEGMENT
__Val$ = 8						; size = 4
?push_back@?$vector@PAVFSMState@@V?$allocator@PAVFSMState@@@std@@@std@@QAEXABQAVFSMState@@@Z PROC ; std::vector<FSMState *,std::allocator<FSMState *> >::push_back, COMDAT
; _this$ = ecx

; 976  : 		{	// insert element at end

  00000	55		 push	 ebp
  00001	8b ec		 mov	 ebp, esp
  00003	56		 push	 esi
  00004	8b f1		 mov	 esi, ecx

; 977  : 		if (_Inside(_STD addressof(_Val)))

  00006	8b 46 04	 mov	 eax, DWORD PTR [esi+4]
  00009	57		 push	 edi
  0000a	8b 7d 08	 mov	 edi, DWORD PTR __Val$[ebp]
  0000d	3b f8		 cmp	 edi, eax
  0000f	73 27		 jae	 SHORT $LN4@push_back
  00011	8b 0e		 mov	 ecx, DWORD PTR [esi]
  00013	3b cf		 cmp	 ecx, edi
  00015	77 21		 ja	 SHORT $LN4@push_back

; 978  : 			{	// push back an element
; 979  : 			size_type _Idx = _STD addressof(_Val) - this->_Myfirst;

  00017	2b f9		 sub	 edi, ecx
  00019	c1 ff 02	 sar	 edi, 2

; 980  : 			if (this->_Mylast == this->_Myend)

  0001c	3b 46 08	 cmp	 eax, DWORD PTR [esi+8]
  0001f	75 09		 jne	 SHORT $LN3@push_back

; 981  : 				_Reserve(1);

  00021	6a 01		 push	 1
  00023	8b ce		 mov	 ecx, esi
  00025	e8 00 00 00 00	 call	 ?_Reserve@?$vector@PAVFSMState@@V?$allocator@PAVFSMState@@@std@@@std@@IAEXI@Z ; std::vector<FSMState *,std::allocator<FSMState *> >::_Reserve
$LN3@push_back:

; 982  : 			_Orphan_range(this->_Mylast, this->_Mylast);
; 983  : 			_Cons_val(this->_Alval,
; 984  : 				this->_Mylast,
; 985  : 				this->_Myfirst[_Idx]);

  0002a	8b 46 04	 mov	 eax, DWORD PTR [esi+4]
  0002d	85 c0		 test	 eax, eax
  0002f	74 20		 je	 SHORT $LN39@push_back
  00031	8b 0e		 mov	 ecx, DWORD PTR [esi]
  00033	8b 0c b9	 mov	 ecx, DWORD PTR [ecx+edi*4]

; 986  : 			++this->_Mylast;
; 987  : 			}
; 988  : 		else

  00036	eb 17		 jmp	 SHORT $LN46@push_back
$LN4@push_back:

; 989  : 			{	// push back a non-element
; 990  : 			if (this->_Mylast == this->_Myend)

  00038	3b 46 08	 cmp	 eax, DWORD PTR [esi+8]
  0003b	75 09		 jne	 SHORT $LN1@push_back

; 991  : 				_Reserve(1);

  0003d	6a 01		 push	 1
  0003f	8b ce		 mov	 ecx, esi
  00041	e8 00 00 00 00	 call	 ?_Reserve@?$vector@PAVFSMState@@V?$allocator@PAVFSMState@@@std@@@std@@IAEXI@Z ; std::vector<FSMState *,std::allocator<FSMState *> >::_Reserve
$LN1@push_back:

; 992  : 			_Orphan_range(this->_Mylast, this->_Mylast);
; 993  : 			_Cons_val(this->_Alval,
; 994  : 				this->_Mylast,
; 995  : 				_Val);

  00046	8b 46 04	 mov	 eax, DWORD PTR [esi+4]
  00049	85 c0		 test	 eax, eax
  0004b	74 04		 je	 SHORT $LN39@push_back
  0004d	8b 0f		 mov	 ecx, DWORD PTR [edi]
$LN46@push_back:
  0004f	89 08		 mov	 DWORD PTR [eax], ecx
$LN39@push_back:

; 996  : 			++this->_Mylast;

  00051	83 46 04 04	 add	 DWORD PTR [esi+4], 4
  00055	5f		 pop	 edi
  00056	5e		 pop	 esi

; 997  : 			}
; 998  : 		}

  00057	5d		 pop	 ebp
  00058	c2 04 00	 ret	 4
?push_back@?$vector@PAVFSMState@@V?$allocator@PAVFSMState@@@std@@@std@@QAEXABQAVFSMState@@@Z ENDP ; std::vector<FSMState *,std::allocator<FSMState *> >::push_back
_TEXT	ENDS
PUBLIC	?erase@?$vector@PAVFSMState@@V?$allocator@PAVFSMState@@@std@@@std@@QAE?AV?$_Vector_iterator@V?$_Vector_val@PAVFSMState@@V?$allocator@PAVFSMState@@@std@@@std@@@2@V?$_Vector_const_iterator@V?$_Vector_val@PAVFSMState@@V?$allocator@PAVFSMState@@@std@@@std@@@2@@Z ; std::vector<FSMState *,std::allocator<FSMState *> >::erase
; Function compile flags: /Ogsp
;	COMDAT ?erase@?$vector@PAVFSMState@@V?$allocator@PAVFSMState@@@std@@@std@@QAE?AV?$_Vector_iterator@V?$_Vector_val@PAVFSMState@@V?$allocator@PAVFSMState@@@std@@@std@@@2@V?$_Vector_const_iterator@V?$_Vector_val@PAVFSMState@@V?$allocator@PAVFSMState@@@std@@@std@@@2@@Z
_TEXT	SEGMENT
___$ReturnUdt$ = 8					; size = 4
__Cat$508104 = 12					; size = 1
__Where$ = 12						; size = 4
?erase@?$vector@PAVFSMState@@V?$allocator@PAVFSMState@@@std@@@std@@QAE?AV?$_Vector_iterator@V?$_Vector_val@PAVFSMState@@V?$allocator@PAVFSMState@@@std@@@std@@@2@V?$_Vector_const_iterator@V?$_Vector_val@PAVFSMState@@V?$allocator@PAVFSMState@@@std@@@std@@@2@@Z PROC ; std::vector<FSMState *,std::allocator<FSMState *> >::erase, COMDAT
; _this$ = ecx

; 1179 : 		{	// erase element at where

  00000	55		 push	 ebp
  00001	8b ec		 mov	 ebp, esp

; 1180 : 		_Move(_VIPTR(_Where) + 1, this->_Mylast,
; 1181 : 			_VIPTR(_Where));

  00003	8b 45 0c	 mov	 eax, DWORD PTR __Where$[ebp]
  00006	56		 push	 esi
  00007	ff 75 0c	 push	 DWORD PTR __Cat$508104[ebp]
  0000a	8b f1		 mov	 esi, ecx
  0000c	50		 push	 eax
  0000d	ff 76 04	 push	 DWORD PTR [esi+4]
  00010	83 c0 04	 add	 eax, 4
  00013	50		 push	 eax
  00014	e8 00 00 00 00	 call	 ??$_Move@PAPAVFSMState@@PAPAV1@@std@@YAPAPAVFSMState@@PAPAV1@00U_Scalar_ptr_iterator_tag@0@@Z ; std::_Move<FSMState * *,FSMState * *>

; 1182 : 		_Destroy(this->_Mylast - 1, this->_Mylast);
; 1183 : 		--this->_Mylast;
; 1184 : 		return (_Make_iter(_Where));

  00019	8b 45 08	 mov	 eax, DWORD PTR ___$ReturnUdt$[ebp]
  0001c	8b 4d 0c	 mov	 ecx, DWORD PTR __Where$[ebp]
  0001f	83 c4 10	 add	 esp, 16			; 00000010H
  00022	83 46 04 fc	 add	 DWORD PTR [esi+4], -4	; fffffffcH
  00026	89 08		 mov	 DWORD PTR [eax], ecx
  00028	5e		 pop	 esi

; 1185 : 		}

  00029	5d		 pop	 ebp
  0002a	c2 08 00	 ret	 8
?erase@?$vector@PAVFSMState@@V?$allocator@PAVFSMState@@@std@@@std@@QAE?AV?$_Vector_iterator@V?$_Vector_val@PAVFSMState@@V?$allocator@PAVFSMState@@@std@@@std@@@2@V?$_Vector_const_iterator@V?$_Vector_val@PAVFSMState@@V?$allocator@PAVFSMState@@@std@@@std@@@2@@Z ENDP ; std::vector<FSMState *,std::allocator<FSMState *> >::erase
_TEXT	ENDS
PUBLIC	?clear@?$vector@PAVFSMState@@V?$allocator@PAVFSMState@@@std@@@std@@QAEXXZ ; std::vector<FSMState *,std::allocator<FSMState *> >::clear
; Function compile flags: /Ogsp
;	COMDAT ?clear@?$vector@PAVFSMState@@V?$allocator@PAVFSMState@@@std@@@std@@QAEXXZ
_TEXT	SEGMENT
$T508166 = -4						; size = 4
?clear@?$vector@PAVFSMState@@V?$allocator@PAVFSMState@@@std@@@std@@QAEXXZ PROC ; std::vector<FSMState *,std::allocator<FSMState *> >::clear, COMDAT
; _this$ = ecx

; 1217 : 		{	// erase all

  00000	55		 push	 ebp
  00001	8b ec		 mov	 ebp, esp
  00003	51		 push	 ecx

; 1218 : 		erase(begin(), end());

  00004	8b 41 04	 mov	 eax, DWORD PTR [ecx+4]
  00007	8b 11		 mov	 edx, DWORD PTR [ecx]
  00009	50		 push	 eax
  0000a	52		 push	 edx
  0000b	8d 45 fc	 lea	 eax, DWORD PTR $T508166[ebp]
  0000e	50		 push	 eax
  0000f	e8 00 00 00 00	 call	 ?erase@?$vector@PAVFSMState@@V?$allocator@PAVFSMState@@@std@@@std@@QAE?AV?$_Vector_iterator@V?$_Vector_val@PAVFSMState@@V?$allocator@PAVFSMState@@@std@@@std@@@2@V?$_Vector_const_iterator@V?$_Vector_val@PAVFSMState@@V?$allocator@PAVFSMState@@@std@@@std@@@2@0@Z ; std::vector<FSMState *,std::allocator<FSMState *> >::erase

; 1219 : 		}

  00014	c9		 leave
  00015	c3		 ret	 0
?clear@?$vector@PAVFSMState@@V?$allocator@PAVFSMState@@@std@@@std@@QAEXXZ ENDP ; std::vector<FSMState *,std::allocator<FSMState *> >::clear
_TEXT	ENDS
PUBLIC	??1?$vector@HV?$allocator@H@std@@@std@@QAE@XZ	; std::vector<int,std::allocator<int> >::~vector<int,std::allocator<int> >
; Function compile flags: /Ogsp
;	COMDAT ??1?$vector@HV?$allocator@H@std@@@std@@QAE@XZ
_TEXT	SEGMENT
??1?$vector@HV?$allocator@H@std@@@std@@QAE@XZ PROC	; std::vector<int,std::allocator<int> >::~vector<int,std::allocator<int> >, COMDAT
; _this$ = ecx

; 705  : 		_Tidy();

  00000	e9 00 00 00 00	 jmp	 ?_Tidy@?$vector@HV?$allocator@H@std@@@std@@IAEXXZ ; std::vector<int,std::allocator<int> >::_Tidy
??1?$vector@HV?$allocator@H@std@@@std@@QAE@XZ ENDP	; std::vector<int,std::allocator<int> >::~vector<int,std::allocator<int> >
_TEXT	ENDS
PUBLIC	?clear@?$vector@HV?$allocator@H@std@@@std@@QAEXXZ ; std::vector<int,std::allocator<int> >::clear
; Function compile flags: /Ogsp
;	COMDAT ?clear@?$vector@HV?$allocator@H@std@@@std@@QAEXXZ
_TEXT	SEGMENT
$T508230 = -4						; size = 4
?clear@?$vector@HV?$allocator@H@std@@@std@@QAEXXZ PROC	; std::vector<int,std::allocator<int> >::clear, COMDAT
; _this$ = ecx

; 1217 : 		{	// erase all

  00000	55		 push	 ebp
  00001	8b ec		 mov	 ebp, esp
  00003	51		 push	 ecx

; 1218 : 		erase(begin(), end());

  00004	8b 41 04	 mov	 eax, DWORD PTR [ecx+4]
  00007	8b 11		 mov	 edx, DWORD PTR [ecx]
  00009	50		 push	 eax
  0000a	52		 push	 edx
  0000b	8d 45 fc	 lea	 eax, DWORD PTR $T508230[ebp]
  0000e	50		 push	 eax
  0000f	e8 00 00 00 00	 call	 ?erase@?$vector@HV?$allocator@H@std@@@std@@QAE?AV?$_Vector_iterator@V?$_Vector_val@HV?$allocator@H@std@@@std@@@2@V?$_Vector_const_iterator@V?$_Vector_val@HV?$allocator@H@std@@@std@@@2@0@Z ; std::vector<int,std::allocator<int> >::erase

; 1219 : 		}

  00014	c9		 leave
  00015	c3		 ret	 0
?clear@?$vector@HV?$allocator@H@std@@@std@@QAEXXZ ENDP	; std::vector<int,std::allocator<int> >::clear
_TEXT	ENDS
PUBLIC	?_Reserve@?$vector@HV?$allocator@H@std@@@std@@IAEXI@Z ; std::vector<int,std::allocator<int> >::_Reserve
; Function compile flags: /Ogsp
;	COMDAT ?_Reserve@?$vector@HV?$allocator@H@std@@@std@@IAEXI@Z
_TEXT	SEGMENT
__Count$ = 8						; size = 4
?_Reserve@?$vector@HV?$allocator@H@std@@@std@@IAEXI@Z PROC ; std::vector<int,std::allocator<int> >::_Reserve, COMDAT
; _this$ = ecx

; 1290 : 		{	// ensure room for _Count new elements, grow exponentially

  00000	55		 push	 ebp
  00001	8b ec		 mov	 ebp, esp
  00003	56		 push	 esi
  00004	8b f1		 mov	 esi, ecx

; 1291 : 		size_type _Size = size();

  00006	8b 0e		 mov	 ecx, DWORD PTR [esi]
  00008	8b 46 04	 mov	 eax, DWORD PTR [esi+4]
  0000b	2b c1		 sub	 eax, ecx

; 1292 : 		if (max_size() - _Count < _Size)

  0000d	ba ff ff ff 3f	 mov	 edx, 1073741823		; 3fffffffH
  00012	2b 55 08	 sub	 edx, DWORD PTR __Count$[ebp]
  00015	c1 f8 02	 sar	 eax, 2
  00018	3b d0		 cmp	 edx, eax
  0001a	73 0b		 jae	 SHORT $LN4@Reserve@2

; 1293 : 			_Xlen();

  0001c	68 00 00 00 00	 push	 OFFSET ??_C@_0BD@OLBABOEK@vector?$DMT?$DO?5too?5long?$AA@
  00021	ff 15 00 00 00
	00		 call	 DWORD PTR __imp_?_Xlength_error@std@@YAXPBD@Z
$LN21@Reserve@2:
$LN4@Reserve@2:

; 1294 : 		else if ((_Size += _Count) <= capacity())

  00027	8b 56 08	 mov	 edx, DWORD PTR [esi+8]
  0002a	03 45 08	 add	 eax, DWORD PTR __Count$[ebp]
  0002d	2b d1		 sub	 edx, ecx
  0002f	c1 fa 02	 sar	 edx, 2
  00032	3b c2		 cmp	 eax, edx
  00034	76 10		 jbe	 SHORT $LN1@Reserve@2

; 1295 : 			;
; 1296 : 		else
; 1297 : 			reserve(_Grow_to(_Size));

  00036	50		 push	 eax
  00037	8b ce		 mov	 ecx, esi
  00039	e8 00 00 00 00	 call	 ?_Grow_to@?$vector@HV?$allocator@H@std@@@std@@IBEII@Z ; std::vector<int,std::allocator<int> >::_Grow_to
  0003e	50		 push	 eax
  0003f	8b ce		 mov	 ecx, esi
  00041	e8 00 00 00 00	 call	 ?reserve@?$vector@HV?$allocator@H@std@@@std@@QAEXI@Z ; std::vector<int,std::allocator<int> >::reserve
$LN1@Reserve@2:
  00046	5e		 pop	 esi

; 1298 : 		}

  00047	5d		 pop	 ebp
  00048	c2 04 00	 ret	 4
$LN20@Reserve@2:
?_Reserve@?$vector@HV?$allocator@H@std@@@std@@IAEXI@Z ENDP ; std::vector<int,std::allocator<int> >::_Reserve
_TEXT	ENDS
PUBLIC	??_7FSMState@@6B@				; FSMState::`vftable'
PUBLIC	??0FSMState@@QAE@H@Z				; FSMState::FSMState
PUBLIC	??_R4FSMState@@6B@				; FSMState::`RTTI Complete Object Locator'
PUBLIC	??_R0?AVFSMState@@@8				; FSMState `RTTI Type Descriptor'
PUBLIC	??_R3FSMState@@8				; FSMState::`RTTI Class Hierarchy Descriptor'
PUBLIC	??_R2FSMState@@8				; FSMState::`RTTI Base Class Array'
PUBLIC	??_R1A@?0A@EA@FSMState@@8			; FSMState::`RTTI Base Class Descriptor at (0,-1,0,64)'
EXTRN	??_EFSMState@@UAEPAXI@Z:PROC			; FSMState::`vector deleting destructor'
;	COMDAT ??_R1A@?0A@EA@FSMState@@8
; File c:\program files (x86)\microsoft visual studio 10.0\vc\include\xmemory
rdata$r	SEGMENT
??_R1A@?0A@EA@FSMState@@8 DD FLAT:??_R0?AVFSMState@@@8	; FSMState::`RTTI Base Class Descriptor at (0,-1,0,64)'
	DD	00H
	DD	00H
	DD	0ffffffffH
	DD	00H
	DD	040H
	DD	FLAT:??_R3FSMState@@8
rdata$r	ENDS
;	COMDAT ??_R2FSMState@@8
rdata$r	SEGMENT
??_R2FSMState@@8 DD FLAT:??_R1A@?0A@EA@FSMState@@8	; FSMState::`RTTI Base Class Array'
rdata$r	ENDS
;	COMDAT ??_R3FSMState@@8
rdata$r	SEGMENT
??_R3FSMState@@8 DD 00H					; FSMState::`RTTI Class Hierarchy Descriptor'
	DD	00H
	DD	01H
	DD	FLAT:??_R2FSMState@@8
rdata$r	ENDS
;	COMDAT ??_R0?AVFSMState@@@8
_DATA	SEGMENT
??_R0?AVFSMState@@@8 DD FLAT:??_7type_info@@6B@		; FSMState `RTTI Type Descriptor'
	DD	00H
	DB	'.?AVFSMState@@', 00H
_DATA	ENDS
;	COMDAT ??_R4FSMState@@6B@
rdata$r	SEGMENT
??_R4FSMState@@6B@ DD 00H				; FSMState::`RTTI Complete Object Locator'
	DD	00H
	DD	00H
	DD	FLAT:??_R0?AVFSMState@@@8
	DD	FLAT:??_R3FSMState@@8
rdata$r	ENDS
;	COMDAT ??_7FSMState@@6B@
CONST	SEGMENT
??_7FSMState@@6B@ DD FLAT:??_R4FSMState@@6B@		; FSMState::`vftable'
	DD	FLAT:??_EFSMState@@UAEPAXI@Z
CONST	ENDS
;	COMDAT xdata$x
xdata$x	SEGMENT
__unwindtable$??0FSMState@@QAE@H@Z DD 0ffffffffH
	DD	FLAT:__unwindfunclet$??0FSMState@@QAE@H@Z$0
	DD	00H
	DD	FLAT:__unwindfunclet$??0FSMState@@QAE@H@Z$1
	DD	01H
	DD	FLAT:__unwindfunclet$??0FSMState@@QAE@H@Z$2
__ehfuncinfo$??0FSMState@@QAE@H@Z DD 019930522H
	DD	03H
	DD	FLAT:__unwindtable$??0FSMState@@QAE@H@Z
	DD	2 DUP(00H)
	DD	2 DUP(00H)
	DD	00H
	DD	01H
; Function compile flags: /Ogsp
; File d:\lost saga for developer\youtube\tutorial\source\src\lsclient\gui\fsmstatemgr.cpp
xdata$x	ENDS
;	COMDAT ??0FSMState@@QAE@H@Z
_TEXT	SEGMENT
_this$ = -16						; size = 4
__$EHRec$ = -12						; size = 12
_a_iState$ = 8						; size = 4
??0FSMState@@QAE@H@Z PROC				; FSMState::FSMState, COMDAT
; _this$ = ecx

; 5    : {

  00000	6a 04		 push	 4
  00002	b8 00 00 00 00	 mov	 eax, __ehhandler$??0FSMState@@QAE@H@Z
  00007	e8 00 00 00 00	 call	 __EH_prolog3
  0000c	8b f1		 mov	 esi, ecx
  0000e	89 75 f0	 mov	 DWORD PTR _this$[ebp], esi
  00011	8d 4e 08	 lea	 ecx, DWORD PTR [esi+8]
  00014	33 c0		 xor	 eax, eax
  00016	c7 06 00 00 00
	00		 mov	 DWORD PTR [esi], OFFSET ??_7FSMState@@6B@
  0001c	89 01		 mov	 DWORD PTR [ecx], eax
  0001e	89 41 04	 mov	 DWORD PTR [ecx+4], eax
  00021	89 41 08	 mov	 DWORD PTR [ecx+8], eax
  00024	89 45 fc	 mov	 DWORD PTR __$EHRec$[ebp+8], eax
  00027	89 46 18	 mov	 DWORD PTR [esi+24], eax
  0002a	89 46 1c	 mov	 DWORD PTR [esi+28], eax
  0002d	89 46 20	 mov	 DWORD PTR [esi+32], eax
  00030	89 46 28	 mov	 DWORD PTR [esi+40], eax
  00033	89 46 2c	 mov	 DWORD PTR [esi+44], eax
  00036	89 46 30	 mov	 DWORD PTR [esi+48], eax

; 6    : 	m_iState = a_iState;

  00039	8b 45 08	 mov	 eax, DWORD PTR _a_iState$[ebp]

; 7    : 
; 8    : 	m_vInput.reserve(10);

  0003c	6a 0a		 push	 10			; 0000000aH
  0003e	c6 45 fc 02	 mov	 BYTE PTR __$EHRec$[ebp+8], 2
  00042	89 46 04	 mov	 DWORD PTR [esi+4], eax
  00045	e8 00 00 00 00	 call	 ?reserve@?$vector@HV?$allocator@H@std@@@std@@QAEXI@Z ; std::vector<int,std::allocator<int> >::reserve

; 9    : 	m_vOutput.reserve(10);

  0004a	6a 0a		 push	 10			; 0000000aH
  0004c	8d 4e 18	 lea	 ecx, DWORD PTR [esi+24]
  0004f	e8 00 00 00 00	 call	 ?reserve@?$vector@HV?$allocator@H@std@@@std@@QAEXI@Z ; std::vector<int,std::allocator<int> >::reserve

; 10   : 	m_vDelay.reserve(10);

  00054	6a 0a		 push	 10			; 0000000aH
  00056	8d 4e 28	 lea	 ecx, DWORD PTR [esi+40]
  00059	e8 00 00 00 00	 call	 ?reserve@?$vector@HV?$allocator@H@std@@@std@@QAEXI@Z ; std::vector<int,std::allocator<int> >::reserve

; 11   : }

  0005e	8b c6		 mov	 eax, esi
  00060	e8 00 00 00 00	 call	 __EH_epilog3
  00065	c2 04 00	 ret	 4
_TEXT	ENDS
;	COMDAT text$x
text$x	SEGMENT
__unwindfunclet$??0FSMState@@QAE@H@Z$0:
  00000	8b 4d f0	 mov	 ecx, DWORD PTR _this$[ebp]
  00003	83 c1 08	 add	 ecx, 8
  00006	e9 00 00 00 00	 jmp	 ??1?$vector@HV?$allocator@H@std@@@std@@QAE@XZ ; std::vector<int,std::allocator<int> >::~vector<int,std::allocator<int> >
__unwindfunclet$??0FSMState@@QAE@H@Z$1:
  0000b	8b 4d f0	 mov	 ecx, DWORD PTR _this$[ebp]
  0000e	83 c1 18	 add	 ecx, 24			; 00000018H
  00011	e9 00 00 00 00	 jmp	 ??1?$vector@HV?$allocator@H@std@@@std@@QAE@XZ ; std::vector<int,std::allocator<int> >::~vector<int,std::allocator<int> >
__unwindfunclet$??0FSMState@@QAE@H@Z$2:
  00016	8b 4d f0	 mov	 ecx, DWORD PTR _this$[ebp]
  00019	83 c1 28	 add	 ecx, 40			; 00000028H
  0001c	e9 00 00 00 00	 jmp	 ??1?$vector@HV?$allocator@H@std@@@std@@QAE@XZ ; std::vector<int,std::allocator<int> >::~vector<int,std::allocator<int> >
__ehhandler$??0FSMState@@QAE@H@Z:
  00021	8b 54 24 08	 mov	 edx, DWORD PTR [esp+8]
  00025	8d 42 0c	 lea	 eax, DWORD PTR [edx+12]
  00028	8b 4a ec	 mov	 ecx, DWORD PTR [edx-20]
  0002b	33 c8		 xor	 ecx, eax
  0002d	e8 00 00 00 00	 call	 @__security_check_cookie@4
  00032	b8 00 00 00 00	 mov	 eax, OFFSET __ehfuncinfo$??0FSMState@@QAE@H@Z
  00037	e9 00 00 00 00	 jmp	 ___CxxFrameHandler3
text$x	ENDS
??0FSMState@@QAE@H@Z ENDP				; FSMState::FSMState
PUBLIC	??1FSMState@@UAE@XZ				; FSMState::~FSMState
;	COMDAT xdata$x
; File c:\program files (x86)\microsoft visual studio 10.0\vc\include\vector
xdata$x	SEGMENT
__unwindtable$??1FSMState@@UAE@XZ DD 0ffffffffH
	DD	FLAT:__unwindfunclet$??1FSMState@@UAE@XZ$0
	DD	00H
	DD	FLAT:__unwindfunclet$??1FSMState@@UAE@XZ$1
__ehfuncinfo$??1FSMState@@UAE@XZ DD 019930522H
	DD	02H
	DD	FLAT:__unwindtable$??1FSMState@@UAE@XZ
	DD	2 DUP(00H)
	DD	2 DUP(00H)
	DD	00H
	DD	01H
; Function compile flags: /Ogsp
; File d:\lost saga for developer\youtube\tutorial\source\src\lsclient\gui\fsmstatemgr.cpp
xdata$x	ENDS
;	COMDAT ??1FSMState@@UAE@XZ
_TEXT	SEGMENT
$T508624 = -20						; size = 4
$T508544 = -20						; size = 4
$T508463 = -20						; size = 4
_this$ = -16						; size = 4
__$EHRec$ = -12						; size = 12
??1FSMState@@UAE@XZ PROC				; FSMState::~FSMState, COMDAT
; _this$ = ecx

; 14   : {

  00000	6a 08		 push	 8
  00002	b8 00 00 00 00	 mov	 eax, __ehhandler$??1FSMState@@UAE@XZ
  00007	e8 00 00 00 00	 call	 __EH_prolog3
  0000c	8b f1		 mov	 esi, ecx
  0000e	89 75 f0	 mov	 DWORD PTR _this$[ebp], esi
  00011	c7 06 00 00 00
	00		 mov	 DWORD PTR [esi], OFFSET ??_7FSMState@@6B@

; 15   : 	m_vInput.clear();

  00017	8b 46 0c	 mov	 eax, DWORD PTR [esi+12]
  0001a	8b 4e 08	 mov	 ecx, DWORD PTR [esi+8]
  0001d	50		 push	 eax
  0001e	51		 push	 ecx
  0001f	8d 45 ec	 lea	 eax, DWORD PTR $T508463[ebp]
  00022	50		 push	 eax
  00023	8d 4e 08	 lea	 ecx, DWORD PTR [esi+8]
  00026	c7 45 fc 01 00
	00 00		 mov	 DWORD PTR __$EHRec$[ebp+8], 1
  0002d	e8 00 00 00 00	 call	 ?erase@?$vector@HV?$allocator@H@std@@@std@@QAE?AV?$_Vector_iterator@V?$_Vector_val@HV?$allocator@H@std@@@std@@@2@V?$_Vector_const_iterator@V?$_Vector_val@HV?$allocator@H@std@@@std@@@2@0@Z ; std::vector<int,std::allocator<int> >::erase

; 16   : 	m_vOutput.clear();

  00032	8b 46 1c	 mov	 eax, DWORD PTR [esi+28]
  00035	8b 4e 18	 mov	 ecx, DWORD PTR [esi+24]
  00038	50		 push	 eax
  00039	51		 push	 ecx
  0003a	8d 45 ec	 lea	 eax, DWORD PTR $T508544[ebp]
  0003d	50		 push	 eax
  0003e	8d 4e 18	 lea	 ecx, DWORD PTR [esi+24]
  00041	e8 00 00 00 00	 call	 ?erase@?$vector@HV?$allocator@H@std@@@std@@QAE?AV?$_Vector_iterator@V?$_Vector_val@HV?$allocator@H@std@@@std@@@2@V?$_Vector_const_iterator@V?$_Vector_val@HV?$allocator@H@std@@@std@@@2@0@Z ; std::vector<int,std::allocator<int> >::erase

; 17   : 	m_vDelay.clear();

  00046	8b 46 2c	 mov	 eax, DWORD PTR [esi+44]
  00049	8b 4e 28	 mov	 ecx, DWORD PTR [esi+40]
  0004c	50		 push	 eax
  0004d	51		 push	 ecx
  0004e	8d 45 ec	 lea	 eax, DWORD PTR $T508624[ebp]
  00051	50		 push	 eax
  00052	8d 4e 28	 lea	 ecx, DWORD PTR [esi+40]
  00055	e8 00 00 00 00	 call	 ?erase@?$vector@HV?$allocator@H@std@@@std@@QAE?AV?$_Vector_iterator@V?$_Vector_val@HV?$allocator@H@std@@@std@@@2@V?$_Vector_const_iterator@V?$_Vector_val@HV?$allocator@H@std@@@std@@@2@0@Z ; std::vector<int,std::allocator<int> >::erase

; 18   : }

  0005a	8d 4e 28	 lea	 ecx, DWORD PTR [esi+40]
  0005d	e8 00 00 00 00	 call	 ?_Tidy@?$vector@HV?$allocator@H@std@@@std@@IAEXXZ ; std::vector<int,std::allocator<int> >::_Tidy
  00062	8d 4e 18	 lea	 ecx, DWORD PTR [esi+24]
  00065	c6 45 fc 00	 mov	 BYTE PTR __$EHRec$[ebp+8], 0
  00069	e8 00 00 00 00	 call	 ?_Tidy@?$vector@HV?$allocator@H@std@@@std@@IAEXXZ ; std::vector<int,std::allocator<int> >::_Tidy
  0006e	83 4d fc ff	 or	 DWORD PTR __$EHRec$[ebp+8], -1
  00072	8d 4e 08	 lea	 ecx, DWORD PTR [esi+8]
  00075	e8 00 00 00 00	 call	 ?_Tidy@?$vector@HV?$allocator@H@std@@@std@@IAEXXZ ; std::vector<int,std::allocator<int> >::_Tidy
  0007a	e8 00 00 00 00	 call	 __EH_epilog3
  0007f	c3		 ret	 0
_TEXT	ENDS
;	COMDAT text$x
text$x	SEGMENT
__unwindfunclet$??1FSMState@@UAE@XZ$0:
  00000	8b 4d f0	 mov	 ecx, DWORD PTR _this$[ebp]
  00003	83 c1 08	 add	 ecx, 8
  00006	e9 00 00 00 00	 jmp	 ??1?$vector@HV?$allocator@H@std@@@std@@QAE@XZ ; std::vector<int,std::allocator<int> >::~vector<int,std::allocator<int> >
__unwindfunclet$??1FSMState@@UAE@XZ$1:
  0000b	8b 4d f0	 mov	 ecx, DWORD PTR _this$[ebp]
  0000e	83 c1 18	 add	 ecx, 24			; 00000018H
  00011	e9 00 00 00 00	 jmp	 ??1?$vector@HV?$allocator@H@std@@@std@@QAE@XZ ; std::vector<int,std::allocator<int> >::~vector<int,std::allocator<int> >
__ehhandler$??1FSMState@@UAE@XZ:
  00016	8b 54 24 08	 mov	 edx, DWORD PTR [esp+8]
  0001a	8d 42 0c	 lea	 eax, DWORD PTR [edx+12]
  0001d	8b 4a e8	 mov	 ecx, DWORD PTR [edx-24]
  00020	33 c8		 xor	 ecx, eax
  00022	e8 00 00 00 00	 call	 @__security_check_cookie@4
  00027	b8 00 00 00 00	 mov	 eax, OFFSET __ehfuncinfo$??1FSMState@@UAE@XZ
  0002c	e9 00 00 00 00	 jmp	 ___CxxFrameHandler3
text$x	ENDS
??1FSMState@@UAE@XZ ENDP				; FSMState::~FSMState
PUBLIC	??1FSMStateMgr@@UAE@XZ				; FSMStateMgr::~FSMStateMgr
;	COMDAT xdata$x
; File c:\program files (x86)\microsoft visual studio 10.0\vc\include\vector
xdata$x	SEGMENT
__unwindtable$??1FSMStateMgr@@UAE@XZ DD 0ffffffffH
	DD	FLAT:__unwindfunclet$??1FSMStateMgr@@UAE@XZ$0
__ehfuncinfo$??1FSMStateMgr@@UAE@XZ DD 019930522H
	DD	01H
	DD	FLAT:__unwindtable$??1FSMStateMgr@@UAE@XZ
	DD	2 DUP(00H)
	DD	2 DUP(00H)
	DD	00H
	DD	01H
; Function compile flags: /Ogsp
; File d:\lost saga for developer\youtube\tutorial\source\src\lsclient\gui\fsmstatemgr.cpp
xdata$x	ENDS
;	COMDAT ??1FSMStateMgr@@UAE@XZ
_TEXT	SEGMENT
$T508823 = -16						; size = 4
_this$ = -16						; size = 4
__$EHRec$ = -12						; size = 12
??1FSMStateMgr@@UAE@XZ PROC				; FSMStateMgr::~FSMStateMgr, COMDAT
; _this$ = ecx

; 85   : {

  00000	6a 04		 push	 4
  00002	b8 00 00 00 00	 mov	 eax, __ehhandler$??1FSMStateMgr@@UAE@XZ
  00007	e8 00 00 00 00	 call	 __EH_prolog3
  0000c	8b f1		 mov	 esi, ecx
  0000e	89 75 f0	 mov	 DWORD PTR _this$[ebp], esi
  00011	c7 06 00 00 00
	00		 mov	 DWORD PTR [esi], OFFSET ??_7FSMStateMgr@@6B@
  00017	83 65 fc 00	 and	 DWORD PTR __$EHRec$[ebp+8], 0

; 86   : 	for(vState::iterator it = m_vState.begin(); it != m_vState.end(); ++it)

  0001b	8b 5e 18	 mov	 ebx, DWORD PTR [esi+24]
  0001e	eb 0f		 jmp	 SHORT $LN65@FSMStateMg
$LN19@FSMStateMg:

; 87   : 	{
; 88   : 		delete (*it);

  00020	8b 0b		 mov	 ecx, DWORD PTR [ebx]
  00022	85 c9		 test	 ecx, ecx
  00024	74 06		 je	 SHORT $LN2@FSMStateMg
  00026	8b 01		 mov	 eax, DWORD PTR [ecx]
  00028	6a 01		 push	 1
  0002a	ff 10		 call	 DWORD PTR [eax]
$LN2@FSMStateMg:

; 86   : 	for(vState::iterator it = m_vState.begin(); it != m_vState.end(); ++it)

  0002c	83 c3 04	 add	 ebx, 4
$LN65@FSMStateMg:
  0002f	3b 5e 1c	 cmp	 ebx, DWORD PTR [esi+28]
  00032	75 ec		 jne	 SHORT $LN19@FSMStateMg

; 89   : 	}
; 90   : 	m_vState.clear();

  00034	8b 46 1c	 mov	 eax, DWORD PTR [esi+28]
  00037	8b 4e 18	 mov	 ecx, DWORD PTR [esi+24]
  0003a	50		 push	 eax
  0003b	51		 push	 ecx
  0003c	8d 45 f0	 lea	 eax, DWORD PTR $T508823[ebp]
  0003f	50		 push	 eax
  00040	8d 4e 18	 lea	 ecx, DWORD PTR [esi+24]
  00043	e8 00 00 00 00	 call	 ?erase@?$vector@PAVFSMState@@V?$allocator@PAVFSMState@@@std@@@std@@QAE?AV?$_Vector_iterator@V?$_Vector_val@PAVFSMState@@V?$allocator@PAVFSMState@@@std@@@std@@@2@V?$_Vector_const_iterator@V?$_Vector_val@PAVFSMState@@V?$allocator@PAVFSMState@@@std@@@std@@@2@0@Z ; std::vector<FSMState *,std::allocator<FSMState *> >::erase

; 91   : }

  00048	83 4d fc ff	 or	 DWORD PTR __$EHRec$[ebp+8], -1
  0004c	8d 4e 18	 lea	 ecx, DWORD PTR [esi+24]
  0004f	e8 00 00 00 00	 call	 ?_Tidy@?$vector@PAVFSMState@@V?$allocator@PAVFSMState@@@std@@@std@@IAEXXZ ; std::vector<FSMState *,std::allocator<FSMState *> >::_Tidy
  00054	e8 00 00 00 00	 call	 __EH_epilog3
  00059	c3		 ret	 0
_TEXT	ENDS
;	COMDAT text$x
text$x	SEGMENT
__unwindfunclet$??1FSMStateMgr@@UAE@XZ$0:
  00000	8b 4d f0	 mov	 ecx, DWORD PTR _this$[ebp]
  00003	83 c1 18	 add	 ecx, 24			; 00000018H
  00006	e9 00 00 00 00	 jmp	 ??1?$vector@PAVFSMState@@V?$allocator@PAVFSMState@@@std@@@std@@QAE@XZ ; std::vector<FSMState *,std::allocator<FSMState *> >::~vector<FSMState *,std::allocator<FSMState *> >
__ehhandler$??1FSMStateMgr@@UAE@XZ:
  0000b	8b 54 24 08	 mov	 edx, DWORD PTR [esp+8]
  0000f	8d 42 0c	 lea	 eax, DWORD PTR [edx+12]
  00012	8b 4a ec	 mov	 ecx, DWORD PTR [edx-20]
  00015	33 c8		 xor	 ecx, eax
  00017	e8 00 00 00 00	 call	 @__security_check_cookie@4
  0001c	b8 00 00 00 00	 mov	 eax, OFFSET __ehfuncinfo$??1FSMStateMgr@@UAE@XZ
  00021	e9 00 00 00 00	 jmp	 ___CxxFrameHandler3
text$x	ENDS
??1FSMStateMgr@@UAE@XZ ENDP				; FSMStateMgr::~FSMStateMgr
PUBLIC	?ChangeState@FSMStateMgr@@QAEHH@Z		; FSMStateMgr::ChangeState
; Function compile flags: /Ogsp
;	COMDAT ?ChangeState@FSMStateMgr@@QAEHH@Z
_TEXT	SEGMENT
_a_iInput$ = 8						; size = 4
?ChangeState@FSMStateMgr@@QAEHH@Z PROC			; FSMStateMgr::ChangeState, COMDAT
; _this$ = ecx

; 94   : {

  00000	55		 push	 ebp
  00001	8b ec		 mov	 ebp, esp
  00003	53		 push	 ebx
  00004	56		 push	 esi
  00005	8b f1		 mov	 esi, ecx

; 95   : 	bool bChange = false;
; 96   : 	int iCurState = FSMState::NONE_VALUE;
; 97   : 	for(vState::iterator it = m_vState.begin(); it != m_vState.end(); ++it)

  00007	8b 5e 18	 mov	 ebx, DWORD PTR [esi+24]
  0000a	3b 5e 1c	 cmp	 ebx, DWORD PTR [esi+28]
  0000d	74 58		 je	 SHORT $LN1@ChangeStat
  0000f	57		 push	 edi
$LL20@ChangeStat:

; 98   : 	{
; 99   : 		FSMState *pState = (*it);

  00010	8b 0b		 mov	 ecx, DWORD PTR [ebx]

; 100  : 		if( !pState ) continue;

  00012	85 c9		 test	 ecx, ecx
  00014	74 19		 je	 SHORT $LN6@ChangeStat

; 101  : 		if( m_iCurState != pState->GetState() ) continue;

  00016	8b 46 04	 mov	 eax, DWORD PTR [esi+4]
  00019	3b 41 04	 cmp	 eax, DWORD PTR [ecx+4]
  0001c	75 11		 jne	 SHORT $LN6@ChangeStat

; 102  : 
; 103  : 		iCurState = pState->GetOutput( a_iInput,  NONE_CHECK_TIME );

  0001e	6a 00		 push	 0
  00020	ff 75 08	 push	 DWORD PTR _a_iInput$[ebp]
  00023	e8 00 00 00 00	 call	 ?GetOutput@FSMState@@QAEHHK@Z ; FSMState::GetOutput
  00028	8b f8		 mov	 edi, eax

; 104  : 
; 105  : 		if( iCurState != m_iCurState )

  0002a	3b 7e 04	 cmp	 edi, DWORD PTR [esi+4]
  0002d	75 0a		 jne	 SHORT $LN43@ChangeStat
$LN6@ChangeStat:

; 95   : 	bool bChange = false;
; 96   : 	int iCurState = FSMState::NONE_VALUE;
; 97   : 	for(vState::iterator it = m_vState.begin(); it != m_vState.end(); ++it)

  0002f	83 c3 04	 add	 ebx, 4
  00032	3b 5e 1c	 cmp	 ebx, DWORD PTR [esi+28]
  00035	75 d9		 jne	 SHORT $LL20@ChangeStat

; 104  : 
; 105  : 		if( iCurState != m_iCurState )

  00037	eb 2d		 jmp	 SHORT $LN45@ChangeStat
$LN43@ChangeStat:

; 106  : 		{
; 107  : 			bChange = true;
; 108  : 			break;
; 109  : 		}
; 110  : 	}
; 111  : 
; 112  : 	if( bChange )
; 113  : 	{
; 114  : 		m_dwStartTime = FRAMEGETTIME();

  00039	ff 15 00 00 00
	00		 call	 DWORD PTR __imp_?GetSingleton@ioFrameTimer@@SAAAV1@XZ
  0003f	8b c8		 mov	 ecx, eax
  00041	ff 15 00 00 00
	00		 call	 DWORD PTR __imp_?GetLoopSec@ioFrameTimer@@QBEKXZ

; 115  : 		m_dwCurTime   = 0;

  00047	83 66 0c 00	 and	 DWORD PTR [esi+12], 0

; 116  : 		m_iCurState   = iCurState;
; 117  : 		m_iCurDelay   = GetDelay( m_iCurState );

  0004b	57		 push	 edi
  0004c	8b ce		 mov	 ecx, esi
  0004e	89 46 08	 mov	 DWORD PTR [esi+8], eax
  00051	89 7e 04	 mov	 DWORD PTR [esi+4], edi
  00054	e8 00 00 00 00	 call	 ?GetDelay@FSMStateMgr@@IAEHH@Z ; FSMStateMgr::GetDelay

; 118  : 		m_iCurArray   = GetArray();

  00059	8b ce		 mov	 ecx, esi
  0005b	89 46 10	 mov	 DWORD PTR [esi+16], eax
  0005e	e8 00 00 00 00	 call	 ?GetArray@FSMStateMgr@@IAEHXZ ; FSMStateMgr::GetArray
  00063	89 46 14	 mov	 DWORD PTR [esi+20], eax
$LN45@ChangeStat:
  00066	5f		 pop	 edi
$LN1@ChangeStat:

; 119  : 	}
; 120  : 
; 121  : 	return m_iCurState;

  00067	8b 46 04	 mov	 eax, DWORD PTR [esi+4]
  0006a	5e		 pop	 esi
  0006b	5b		 pop	 ebx

; 122  : }

  0006c	5d		 pop	 ebp
  0006d	c2 04 00	 ret	 4
?ChangeState@FSMStateMgr@@QAEHH@Z ENDP			; FSMStateMgr::ChangeState
_TEXT	ENDS
PUBLIC	?Add@FSMStateMgr@@QAEXPAVFSMState@@@Z		; FSMStateMgr::Add
; Function compile flags: /Ogsp
;	COMDAT ?Add@FSMStateMgr@@QAEXPAVFSMState@@@Z
_TEXT	SEGMENT
_a_pState$ = 8						; size = 4
?Add@FSMStateMgr@@QAEXPAVFSMState@@@Z PROC		; FSMStateMgr::Add, COMDAT
; _this$ = ecx

; 125  : {

  00000	55		 push	 ebp
  00001	8b ec		 mov	 ebp, esp

; 126  : 	m_vState.push_back( a_pState );

  00003	8d 45 08	 lea	 eax, DWORD PTR _a_pState$[ebp]
  00006	50		 push	 eax
  00007	83 c1 18	 add	 ecx, 24			; 00000018H
  0000a	e8 00 00 00 00	 call	 ?push_back@?$vector@PAVFSMState@@V?$allocator@PAVFSMState@@@std@@@std@@QAEXABQAVFSMState@@@Z ; std::vector<FSMState *,std::allocator<FSMState *> >::push_back

; 127  : }

  0000f	5d		 pop	 ebp
  00010	c2 04 00	 ret	 4
?Add@FSMStateMgr@@QAEXPAVFSMState@@@Z ENDP		; FSMStateMgr::Add
_TEXT	ENDS
PUBLIC	?Delete@FSMStateMgr@@QAEXH@Z			; FSMStateMgr::Delete
; Function compile flags: /Ogsp
;	COMDAT ?Delete@FSMStateMgr@@QAEXH@Z
_TEXT	SEGMENT
$T508957 = 8						; size = 4
_a_iState$ = 8						; size = 4
?Delete@FSMStateMgr@@QAEXH@Z PROC			; FSMStateMgr::Delete, COMDAT
; _this$ = ecx

; 130  : {

  00000	55		 push	 ebp
  00001	8b ec		 mov	 ebp, esp
  00003	8b c1		 mov	 eax, ecx

; 131  : 	for(vState::iterator it = m_vState.begin(); it != m_vState.end(); ++it)

  00005	8d 48 18	 lea	 ecx, DWORD PTR [eax+24]
  00008	8b 11		 mov	 edx, DWORD PTR [ecx]
  0000a	8b 40 1c	 mov	 eax, DWORD PTR [eax+28]
  0000d	3b d0		 cmp	 edx, eax
  0000f	74 25		 je	 SHORT $LN3@Delete@2
  00011	56		 push	 esi
  00012	57		 push	 edi
$LL18@Delete@2:

; 132  : 	{
; 133  : 		FSMState *pState = (*it);

  00013	8b 32		 mov	 esi, DWORD PTR [edx]

; 134  : 		if( !pState ) continue;

  00015	85 f6		 test	 esi, esi
  00017	74 08		 je	 SHORT $LN4@Delete@2

; 135  : 
; 136  : 		if( a_iState == pState->GetState() )

  00019	8b 7d 08	 mov	 edi, DWORD PTR _a_iState$[ebp]
  0001c	3b 7e 04	 cmp	 edi, DWORD PTR [esi+4]
  0001f	74 09		 je	 SHORT $LN41@Delete@2
$LN4@Delete@2:

; 131  : 	for(vState::iterator it = m_vState.begin(); it != m_vState.end(); ++it)

  00021	83 c2 04	 add	 edx, 4
  00024	3b d0		 cmp	 edx, eax
  00026	75 eb		 jne	 SHORT $LL18@Delete@2

; 135  : 
; 136  : 		if( a_iState == pState->GetState() )

  00028	eb 0a		 jmp	 SHORT $LN43@Delete@2
$LN41@Delete@2:

; 137  : 		{
; 138  : 			m_vState.erase( it );

  0002a	52		 push	 edx
  0002b	8d 45 08	 lea	 eax, DWORD PTR $T508957[ebp]
  0002e	50		 push	 eax
  0002f	e8 00 00 00 00	 call	 ?erase@?$vector@PAVFSMState@@V?$allocator@PAVFSMState@@@std@@@std@@QAE?AV?$_Vector_iterator@V?$_Vector_val@PAVFSMState@@V?$allocator@PAVFSMState@@@std@@@std@@@2@V?$_Vector_const_iterator@V?$_Vector_val@PAVFSMState@@V?$allocator@PAVFSMState@@@std@@@std@@@2@@Z ; std::vector<FSMState *,std::allocator<FSMState *> >::erase
$LN43@Delete@2:
  00034	5f		 pop	 edi
  00035	5e		 pop	 esi
$LN3@Delete@2:

; 139  : 			break;
; 140  : 		}
; 141  : 	}
; 142  : }

  00036	5d		 pop	 ebp
  00037	c2 04 00	 ret	 4
?Delete@FSMStateMgr@@QAEXH@Z ENDP			; FSMStateMgr::Delete
_TEXT	ENDS
PUBLIC	?ClearState@FSMStateMgr@@QAEXXZ			; FSMStateMgr::ClearState
; Function compile flags: /Ogsp
;	COMDAT ?ClearState@FSMStateMgr@@QAEXXZ
_TEXT	SEGMENT
$T509197 = -4						; size = 4
?ClearState@FSMStateMgr@@QAEXXZ PROC			; FSMStateMgr::ClearState, COMDAT
; _this$ = ecx

; 199  : {

  00000	55		 push	 ebp
  00001	8b ec		 mov	 ebp, esp
  00003	51		 push	 ecx
  00004	53		 push	 ebx
  00005	56		 push	 esi
  00006	8b f1		 mov	 esi, ecx

; 200  : 	for(vState::iterator it = m_vState.begin(); it != m_vState.end(); ++it)

  00008	8b 5e 18	 mov	 ebx, DWORD PTR [esi+24]
  0000b	57		 push	 edi
  0000c	eb 0f		 jmp	 SHORT $LN58@ClearState
$LL18@ClearState:

; 201  : 	{
; 202  : 		delete (*it);

  0000e	8b 0b		 mov	 ecx, DWORD PTR [ebx]
  00010	85 c9		 test	 ecx, ecx
  00012	74 06		 je	 SHORT $LN2@ClearState
  00014	8b 01		 mov	 eax, DWORD PTR [ecx]
  00016	6a 01		 push	 1
  00018	ff 10		 call	 DWORD PTR [eax]
$LN2@ClearState:

; 200  : 	for(vState::iterator it = m_vState.begin(); it != m_vState.end(); ++it)

  0001a	83 c3 04	 add	 ebx, 4
$LN58@ClearState:
  0001d	3b 5e 1c	 cmp	 ebx, DWORD PTR [esi+28]
  00020	75 ec		 jne	 SHORT $LL18@ClearState

; 203  : 	}
; 204  : 	m_vState.clear();

  00022	8b 46 1c	 mov	 eax, DWORD PTR [esi+28]
  00025	8b 4e 18	 mov	 ecx, DWORD PTR [esi+24]
  00028	50		 push	 eax
  00029	51		 push	 ecx
  0002a	8d 45 fc	 lea	 eax, DWORD PTR $T509197[ebp]
  0002d	50		 push	 eax
  0002e	8d 4e 18	 lea	 ecx, DWORD PTR [esi+24]
  00031	e8 00 00 00 00	 call	 ?erase@?$vector@PAVFSMState@@V?$allocator@PAVFSMState@@@std@@@std@@QAE?AV?$_Vector_iterator@V?$_Vector_val@PAVFSMState@@V?$allocator@PAVFSMState@@@std@@@std@@@2@V?$_Vector_const_iterator@V?$_Vector_val@PAVFSMState@@V?$allocator@PAVFSMState@@@std@@@std@@@2@0@Z ; std::vector<FSMState *,std::allocator<FSMState *> >::erase

; 205  : 
; 206  : 	m_dwStartTime = 0;

  00036	83 66 08 00	 and	 DWORD PTR [esi+8], 0

; 207  : 	m_iCurState   = 0;

  0003a	83 66 04 00	 and	 DWORD PTR [esi+4], 0

; 208  : 	m_iCurDelay   = FSMState::NONE_VALUE;

  0003e	83 4e 10 ff	 or	 DWORD PTR [esi+16], -1

; 209  : 	m_iCurArray   = FSMState::NONE_VALUE;

  00042	83 4e 14 ff	 or	 DWORD PTR [esi+20], -1
  00046	5f		 pop	 edi
  00047	5e		 pop	 esi
  00048	5b		 pop	 ebx

; 210  : }

  00049	c9		 leave
  0004a	c3		 ret	 0
?ClearState@FSMStateMgr@@QAEXXZ ENDP			; FSMStateMgr::ClearState
_TEXT	ENDS
PUBLIC	?push_back@?$vector@HV?$allocator@H@std@@@std@@QAEXABH@Z ; std::vector<int,std::allocator<int> >::push_back
; Function compile flags: /Ogsp
; File c:\program files (x86)\microsoft visual studio 10.0\vc\include\vector
;	COMDAT ?push_back@?$vector@HV?$allocator@H@std@@@std@@QAEXABH@Z
_TEXT	SEGMENT
__Val$ = 8						; size = 4
?push_back@?$vector@HV?$allocator@H@std@@@std@@QAEXABH@Z PROC ; std::vector<int,std::allocator<int> >::push_back, COMDAT
; _this$ = ecx

; 976  : 		{	// insert element at end

  00000	55		 push	 ebp
  00001	8b ec		 mov	 ebp, esp
  00003	56		 push	 esi
  00004	8b f1		 mov	 esi, ecx

; 977  : 		if (_Inside(_STD addressof(_Val)))

  00006	8b 46 04	 mov	 eax, DWORD PTR [esi+4]
  00009	57		 push	 edi
  0000a	8b 7d 08	 mov	 edi, DWORD PTR __Val$[ebp]
  0000d	3b f8		 cmp	 edi, eax
  0000f	73 27		 jae	 SHORT $LN4@push_back@2
  00011	8b 0e		 mov	 ecx, DWORD PTR [esi]
  00013	3b cf		 cmp	 ecx, edi
  00015	77 21		 ja	 SHORT $LN4@push_back@2

; 978  : 			{	// push back an element
; 979  : 			size_type _Idx = _STD addressof(_Val) - this->_Myfirst;

  00017	2b f9		 sub	 edi, ecx
  00019	c1 ff 02	 sar	 edi, 2

; 980  : 			if (this->_Mylast == this->_Myend)

  0001c	3b 46 08	 cmp	 eax, DWORD PTR [esi+8]
  0001f	75 09		 jne	 SHORT $LN3@push_back@2

; 981  : 				_Reserve(1);

  00021	6a 01		 push	 1
  00023	8b ce		 mov	 ecx, esi
  00025	e8 00 00 00 00	 call	 ?_Reserve@?$vector@HV?$allocator@H@std@@@std@@IAEXI@Z ; std::vector<int,std::allocator<int> >::_Reserve
$LN3@push_back@2:

; 982  : 			_Orphan_range(this->_Mylast, this->_Mylast);
; 983  : 			_Cons_val(this->_Alval,
; 984  : 				this->_Mylast,
; 985  : 				this->_Myfirst[_Idx]);

  0002a	8b 46 04	 mov	 eax, DWORD PTR [esi+4]
  0002d	85 c0		 test	 eax, eax
  0002f	74 20		 je	 SHORT $LN39@push_back@2
  00031	8b 0e		 mov	 ecx, DWORD PTR [esi]
  00033	8b 0c b9	 mov	 ecx, DWORD PTR [ecx+edi*4]

; 986  : 			++this->_Mylast;
; 987  : 			}
; 988  : 		else

  00036	eb 17		 jmp	 SHORT $LN46@push_back@2
$LN4@push_back@2:

; 989  : 			{	// push back a non-element
; 990  : 			if (this->_Mylast == this->_Myend)

  00038	3b 46 08	 cmp	 eax, DWORD PTR [esi+8]
  0003b	75 09		 jne	 SHORT $LN1@push_back@2

; 991  : 				_Reserve(1);

  0003d	6a 01		 push	 1
  0003f	8b ce		 mov	 ecx, esi
  00041	e8 00 00 00 00	 call	 ?_Reserve@?$vector@HV?$allocator@H@std@@@std@@IAEXI@Z ; std::vector<int,std::allocator<int> >::_Reserve
$LN1@push_back@2:

; 992  : 			_Orphan_range(this->_Mylast, this->_Mylast);
; 993  : 			_Cons_val(this->_Alval,
; 994  : 				this->_Mylast,
; 995  : 				_Val);

  00046	8b 46 04	 mov	 eax, DWORD PTR [esi+4]
  00049	85 c0		 test	 eax, eax
  0004b	74 04		 je	 SHORT $LN39@push_back@2
  0004d	8b 0f		 mov	 ecx, DWORD PTR [edi]
$LN46@push_back@2:
  0004f	89 08		 mov	 DWORD PTR [eax], ecx
$LN39@push_back@2:

; 996  : 			++this->_Mylast;

  00051	83 46 04 04	 add	 DWORD PTR [esi+4], 4
  00055	5f		 pop	 edi
  00056	5e		 pop	 esi

; 997  : 			}
; 998  : 		}

  00057	5d		 pop	 ebp
  00058	c2 04 00	 ret	 4
?push_back@?$vector@HV?$allocator@H@std@@@std@@QAEXABH@Z ENDP ; std::vector<int,std::allocator<int> >::push_back
; Function compile flags: /Ogsp
_TEXT	ENDS
;	COMDAT ??_GFSMState@@UAEPAXI@Z
_TEXT	SEGMENT
___flags$ = 8						; size = 4
??_GFSMState@@UAEPAXI@Z PROC				; FSMState::`scalar deleting destructor', COMDAT
; _this$ = ecx
  00000	55		 push	 ebp
  00001	8b ec		 mov	 ebp, esp
  00003	56		 push	 esi
  00004	8b f1		 mov	 esi, ecx
  00006	e8 00 00 00 00	 call	 ??1FSMState@@UAE@XZ	; FSMState::~FSMState
  0000b	f6 45 08 01	 test	 BYTE PTR ___flags$[ebp], 1
  0000f	74 07		 je	 SHORT $LN1@scalar@2
  00011	56		 push	 esi
  00012	e8 00 00 00 00	 call	 ??3@YAXPAX@Z		; operator delete
  00017	59		 pop	 ecx
$LN1@scalar@2:
  00018	8b c6		 mov	 eax, esi
  0001a	5e		 pop	 esi
  0001b	5d		 pop	 ebp
  0001c	c2 04 00	 ret	 4
??_GFSMState@@UAEPAXI@Z ENDP				; FSMState::`scalar deleting destructor'
_TEXT	ENDS
PUBLIC	?Add@FSMState@@QAEXHHH@Z			; FSMState::Add
; Function compile flags: /Ogsp
; File d:\lost saga for developer\youtube\tutorial\source\src\lsclient\gui\fsmstatemgr.cpp
;	COMDAT ?Add@FSMState@@QAEXHHH@Z
_TEXT	SEGMENT
_a_iInput$ = 8						; size = 4
_a_iOutput$ = 12					; size = 4
_a_iDelay$ = 16						; size = 4
?Add@FSMState@@QAEXHHH@Z PROC				; FSMState::Add, COMDAT
; _this$ = ecx

; 39   : {

  00000	55		 push	 ebp
  00001	8b ec		 mov	 ebp, esp
  00003	56		 push	 esi
  00004	8b f1		 mov	 esi, ecx

; 40   : 	m_vInput.push_back( a_iInput );

  00006	8d 45 08	 lea	 eax, DWORD PTR _a_iInput$[ebp]
  00009	50		 push	 eax
  0000a	8d 4e 08	 lea	 ecx, DWORD PTR [esi+8]
  0000d	e8 00 00 00 00	 call	 ?push_back@?$vector@HV?$allocator@H@std@@@std@@QAEXABH@Z ; std::vector<int,std::allocator<int> >::push_back

; 41   : 	m_vOutput.push_back( a_iOutput );

  00012	8d 45 0c	 lea	 eax, DWORD PTR _a_iOutput$[ebp]
  00015	50		 push	 eax
  00016	8d 4e 18	 lea	 ecx, DWORD PTR [esi+24]
  00019	e8 00 00 00 00	 call	 ?push_back@?$vector@HV?$allocator@H@std@@@std@@QAEXABH@Z ; std::vector<int,std::allocator<int> >::push_back

; 42   : 	m_vDelay.push_back( a_iDelay );

  0001e	8d 45 10	 lea	 eax, DWORD PTR _a_iDelay$[ebp]
  00021	50		 push	 eax
  00022	8d 4e 28	 lea	 ecx, DWORD PTR [esi+40]
  00025	e8 00 00 00 00	 call	 ?push_back@?$vector@HV?$allocator@H@std@@@std@@QAEXABH@Z ; std::vector<int,std::allocator<int> >::push_back
  0002a	5e		 pop	 esi

; 43   : }

  0002b	5d		 pop	 ebp
  0002c	c2 0c 00	 ret	 12			; 0000000cH
?Add@FSMState@@QAEXHHH@Z ENDP				; FSMState::Add
; Function compile flags: /Ogsp
_TEXT	ENDS
;	COMDAT ??_GFSMStateMgr@@UAEPAXI@Z
_TEXT	SEGMENT
___flags$ = 8						; size = 4
??_GFSMStateMgr@@UAEPAXI@Z PROC				; FSMStateMgr::`scalar deleting destructor', COMDAT
; _this$ = ecx
  00000	55		 push	 ebp
  00001	8b ec		 mov	 ebp, esp
  00003	56		 push	 esi
  00004	8b f1		 mov	 esi, ecx
  00006	e8 00 00 00 00	 call	 ??1FSMStateMgr@@UAE@XZ	; FSMStateMgr::~FSMStateMgr
  0000b	f6 45 08 01	 test	 BYTE PTR ___flags$[ebp], 1
  0000f	74 07		 je	 SHORT $LN1@scalar@3
  00011	56		 push	 esi
  00012	e8 00 00 00 00	 call	 ??3@YAXPAX@Z		; operator delete
  00017	59		 pop	 ecx
$LN1@scalar@3:
  00018	8b c6		 mov	 eax, esi
  0001a	5e		 pop	 esi
  0001b	5d		 pop	 ebp
  0001c	c2 04 00	 ret	 4
??_GFSMStateMgr@@UAEPAXI@Z ENDP				; FSMStateMgr::`scalar deleting destructor'
_TEXT	ENDS
END
