; Listing generated by Microsoft (R) Optimizing Compiler Version 16.00.30319.01 

	TITLE	D:\Lost Saga For Developer\Youtube\Tutorial\Source\src\LSClient\GUI\GameOptionWnd.cpp
	.686P
	.XMM
	include listing.inc
	.model	flat

INCLUDELIB MSVCRT
INCLUDELIB OLDNAMES

PUBLIC	?_EEM_DS@?$deque@UD3DXVECTOR3@@V?$allocator@UD3DXVECTOR3@@@std@@@std@@2HB ; std::deque<D3DXVECTOR3,std::allocator<D3DXVECTOR3> >::_EEM_DS
;	COMDAT ?_EEM_DS@?$deque@UD3DXVECTOR3@@V?$allocator@UD3DXVECTOR3@@@std@@@std@@2HB
CONST	SEGMENT
?_EEM_DS@?$deque@UD3DXVECTOR3@@V?$allocator@UD3DXVECTOR3@@@std@@@std@@2HB DD 01H ; std::deque<D3DXVECTOR3,std::allocator<D3DXVECTOR3> >::_EEM_DS
CONST	ENDS
PUBLIC	?GetState@ioBaseChar@@QBE?AW4CharState@@XZ	; ioBaseChar::GetState
; Function compile flags: /Ogsp
; File d:\lost saga for developer\youtube\tutorial\source\src\lsclient\iobasechar.h
;	COMDAT ?GetState@ioBaseChar@@QBE?AW4CharState@@XZ
_TEXT	SEGMENT
?GetState@ioBaseChar@@QBE?AW4CharState@@XZ PROC		; ioBaseChar::GetState, COMDAT
; _this$ = ecx

; 2156 : 	inline CharState GetState() const { return m_CharState; }	

  00000	8a 81 10 03 00
	00		 mov	 al, BYTE PTR [ecx+784]
  00006	c3		 ret	 0
?GetState@ioBaseChar@@QBE?AW4CharState@@XZ ENDP		; ioBaseChar::GetState
_TEXT	ENDS
PUBLIC	??_7bad_alloc@std@@6B@				; std::bad_alloc::`vftable'
PUBLIC	??0bad_alloc@std@@QAE@PBD@Z			; std::bad_alloc::bad_alloc
PUBLIC	??_R4bad_alloc@std@@6B@				; std::bad_alloc::`RTTI Complete Object Locator'
PUBLIC	??_R0?AVbad_alloc@std@@@8			; std::bad_alloc `RTTI Type Descriptor'
PUBLIC	??_R3bad_alloc@std@@8				; std::bad_alloc::`RTTI Class Hierarchy Descriptor'
PUBLIC	??_R2bad_alloc@std@@8				; std::bad_alloc::`RTTI Base Class Array'
PUBLIC	??_R1A@?0A@EA@bad_alloc@std@@8			; std::bad_alloc::`RTTI Base Class Descriptor at (0,-1,0,64)'
PUBLIC	??_R1A@?0A@EA@exception@std@@8			; std::exception::`RTTI Base Class Descriptor at (0,-1,0,64)'
PUBLIC	??_R0?AVexception@std@@@8			; std::exception `RTTI Type Descriptor'
PUBLIC	??_R3exception@std@@8				; std::exception::`RTTI Class Hierarchy Descriptor'
PUBLIC	??_R2exception@std@@8				; std::exception::`RTTI Base Class Array'
EXTRN	__imp_??0exception@std@@QAE@ABQBD@Z:PROC
EXTRN	??_7type_info@@6B@:QWORD			; type_info::`vftable'
EXTRN	??_Ebad_alloc@std@@UAEPAXI@Z:PROC		; std::bad_alloc::`vector deleting destructor'
EXTRN	?what@exception@std@@UBEPBDXZ:PROC		; std::exception::what
;	COMDAT ??_R2exception@std@@8
; File c:\program files (x86)\microsoft visual studio 10.0\vc\include\exception
rdata$r	SEGMENT
??_R2exception@std@@8 DD FLAT:??_R1A@?0A@EA@exception@std@@8 ; std::exception::`RTTI Base Class Array'
rdata$r	ENDS
;	COMDAT ??_R3exception@std@@8
rdata$r	SEGMENT
??_R3exception@std@@8 DD 00H				; std::exception::`RTTI Class Hierarchy Descriptor'
	DD	00H
	DD	01H
	DD	FLAT:??_R2exception@std@@8
rdata$r	ENDS
;	COMDAT ??_R0?AVexception@std@@@8
_DATA	SEGMENT
??_R0?AVexception@std@@@8 DD FLAT:??_7type_info@@6B@	; std::exception `RTTI Type Descriptor'
	DD	00H
	DB	'.?AVexception@std@@', 00H
_DATA	ENDS
;	COMDAT ??_R1A@?0A@EA@exception@std@@8
rdata$r	SEGMENT
??_R1A@?0A@EA@exception@std@@8 DD FLAT:??_R0?AVexception@std@@@8 ; std::exception::`RTTI Base Class Descriptor at (0,-1,0,64)'
	DD	00H
	DD	00H
	DD	0ffffffffH
	DD	00H
	DD	040H
	DD	FLAT:??_R3exception@std@@8
rdata$r	ENDS
;	COMDAT ??_R1A@?0A@EA@bad_alloc@std@@8
rdata$r	SEGMENT
??_R1A@?0A@EA@bad_alloc@std@@8 DD FLAT:??_R0?AVbad_alloc@std@@@8 ; std::bad_alloc::`RTTI Base Class Descriptor at (0,-1,0,64)'
	DD	01H
	DD	00H
	DD	0ffffffffH
	DD	00H
	DD	040H
	DD	FLAT:??_R3bad_alloc@std@@8
rdata$r	ENDS
;	COMDAT ??_R2bad_alloc@std@@8
rdata$r	SEGMENT
??_R2bad_alloc@std@@8 DD FLAT:??_R1A@?0A@EA@bad_alloc@std@@8 ; std::bad_alloc::`RTTI Base Class Array'
	DD	FLAT:??_R1A@?0A@EA@exception@std@@8
rdata$r	ENDS
;	COMDAT ??_R3bad_alloc@std@@8
rdata$r	SEGMENT
??_R3bad_alloc@std@@8 DD 00H				; std::bad_alloc::`RTTI Class Hierarchy Descriptor'
	DD	00H
	DD	02H
	DD	FLAT:??_R2bad_alloc@std@@8
rdata$r	ENDS
;	COMDAT ??_R0?AVbad_alloc@std@@@8
_DATA	SEGMENT
??_R0?AVbad_alloc@std@@@8 DD FLAT:??_7type_info@@6B@	; std::bad_alloc `RTTI Type Descriptor'
	DD	00H
	DB	'.?AVbad_alloc@std@@', 00H
_DATA	ENDS
;	COMDAT ??_R4bad_alloc@std@@6B@
rdata$r	SEGMENT
??_R4bad_alloc@std@@6B@ DD 00H				; std::bad_alloc::`RTTI Complete Object Locator'
	DD	00H
	DD	00H
	DD	FLAT:??_R0?AVbad_alloc@std@@@8
	DD	FLAT:??_R3bad_alloc@std@@8
rdata$r	ENDS
;	COMDAT ??_7bad_alloc@std@@6B@
CONST	SEGMENT
??_7bad_alloc@std@@6B@ DD FLAT:??_R4bad_alloc@std@@6B@	; std::bad_alloc::`vftable'
	DD	FLAT:??_Ebad_alloc@std@@UAEPAXI@Z
	DD	FLAT:?what@exception@std@@UBEPBDXZ
; Function compile flags: /Ogsp
CONST	ENDS
;	COMDAT ??0bad_alloc@std@@QAE@PBD@Z
_TEXT	SEGMENT
__Message$ = 8						; size = 4
??0bad_alloc@std@@QAE@PBD@Z PROC			; std::bad_alloc::bad_alloc, COMDAT
; _this$ = ecx

; 345  : 		{	// construct from message string

  00000	55		 push	 ebp
  00001	8b ec		 mov	 ebp, esp
  00003	56		 push	 esi
  00004	8d 45 08	 lea	 eax, DWORD PTR __Message$[ebp]
  00007	50		 push	 eax
  00008	8b f1		 mov	 esi, ecx
  0000a	ff 15 00 00 00
	00		 call	 DWORD PTR __imp_??0exception@std@@QAE@ABQBD@Z
  00010	c7 06 00 00 00
	00		 mov	 DWORD PTR [esi], OFFSET ??_7bad_alloc@std@@6B@

; 346  : 		}

  00016	8b c6		 mov	 eax, esi
  00018	5e		 pop	 esi
  00019	5d		 pop	 ebp
  0001a	c2 04 00	 ret	 4
??0bad_alloc@std@@QAE@PBD@Z ENDP			; std::bad_alloc::bad_alloc
_TEXT	ENDS
PUBLIC	??1bad_alloc@std@@UAE@XZ			; std::bad_alloc::~bad_alloc
EXTRN	__imp_??1exception@std@@UAE@XZ:PROC
; Function compile flags: /Ogsp
;	COMDAT ??1bad_alloc@std@@UAE@XZ
_TEXT	SEGMENT
??1bad_alloc@std@@UAE@XZ PROC				; std::bad_alloc::~bad_alloc, COMDAT
; _this$ = ecx

; 354  : 		{	// destroy the object

  00000	c7 01 00 00 00
	00		 mov	 DWORD PTR [ecx], OFFSET ??_7bad_alloc@std@@6B@

; 355  : 		}

  00006	ff 25 00 00 00
	00		 jmp	 DWORD PTR __imp_??1exception@std@@UAE@XZ
??1bad_alloc@std@@UAE@XZ ENDP				; std::bad_alloc::~bad_alloc
_TEXT	ENDS
EXTRN	??3@YAXPAX@Z:PROC				; operator delete
; Function compile flags: /Ogsp
;	COMDAT ??_Gbad_alloc@std@@UAEPAXI@Z
_TEXT	SEGMENT
___flags$ = 8						; size = 4
??_Gbad_alloc@std@@UAEPAXI@Z PROC			; std::bad_alloc::`scalar deleting destructor', COMDAT
; _this$ = ecx
  00000	55		 push	 ebp
  00001	8b ec		 mov	 ebp, esp
  00003	56		 push	 esi
  00004	8b f1		 mov	 esi, ecx
  00006	c7 06 00 00 00
	00		 mov	 DWORD PTR [esi], OFFSET ??_7bad_alloc@std@@6B@
  0000c	ff 15 00 00 00
	00		 call	 DWORD PTR __imp_??1exception@std@@UAE@XZ
  00012	f6 45 08 01	 test	 BYTE PTR ___flags$[ebp], 1
  00016	74 07		 je	 SHORT $LN1@scalar
  00018	56		 push	 esi
  00019	e8 00 00 00 00	 call	 ??3@YAXPAX@Z		; operator delete
  0001e	59		 pop	 ecx
$LN1@scalar:
  0001f	8b c6		 mov	 eax, esi
  00021	5e		 pop	 esi
  00022	5d		 pop	 ebp
  00023	c2 04 00	 ret	 4
??_Gbad_alloc@std@@UAEPAXI@Z ENDP			; std::bad_alloc::`scalar deleting destructor'
_TEXT	ENDS
PUBLIC	??2@YAPAXIPAX@Z					; operator new
; Function compile flags: /Ogsp
; File c:\program files (x86)\microsoft visual studio 10.0\vc\include\new
;	COMDAT ??2@YAPAXIPAX@Z
_TEXT	SEGMENT
___formal$ = 8						; size = 4
__Where$ = 12						; size = 4
??2@YAPAXIPAX@Z PROC					; operator new, COMDAT

; 56   : 	{	// construct array with placement at _Where

  00000	55		 push	 ebp
  00001	8b ec		 mov	 ebp, esp

; 57   : 	return (_Where);

  00003	8b 45 0c	 mov	 eax, DWORD PTR __Where$[ebp]

; 58   : 	}

  00006	5d		 pop	 ebp
  00007	c3		 ret	 0
??2@YAPAXIPAX@Z ENDP					; operator new
_TEXT	ENDS
PUBLIC	??3@YAXPAX0@Z					; operator delete
; Function compile flags: /Ogsp
;	COMDAT ??3@YAXPAX0@Z
_TEXT	SEGMENT
___formal$ = 8						; size = 4
___formal$ = 12						; size = 4
??3@YAXPAX0@Z PROC					; operator delete, COMDAT

; 62   : 	}

  00000	c3		 ret	 0
??3@YAXPAX0@Z ENDP					; operator delete
_TEXT	ENDS
PUBLIC	?length@?$char_traits@D@std@@SAIPBD@Z		; std::char_traits<char>::length
; Function compile flags: /Ogsp
; File c:\program files (x86)\microsoft visual studio 10.0\vc\include\iosfwd
;	COMDAT ?length@?$char_traits@D@std@@SAIPBD@Z
_TEXT	SEGMENT
__First$ = 8						; size = 4
?length@?$char_traits@D@std@@SAIPBD@Z PROC		; std::char_traits<char>::length, COMDAT

; 490  : 		{	// find length of null-terminated string

  00000	55		 push	 ebp
  00001	8b ec		 mov	 ebp, esp

; 491  : 		return (_CSTD strlen(_First));

  00003	8b 45 08	 mov	 eax, DWORD PTR __First$[ebp]
  00006	8d 50 01	 lea	 edx, DWORD PTR [eax+1]
$LL3@length:
  00009	8a 08		 mov	 cl, BYTE PTR [eax]
  0000b	40		 inc	 eax
  0000c	84 c9		 test	 cl, cl
  0000e	75 f9		 jne	 SHORT $LL3@length
  00010	2b c2		 sub	 eax, edx

; 492  : 		}

  00012	5d		 pop	 ebp
  00013	c3		 ret	 0
?length@?$char_traits@D@std@@SAIPBD@Z ENDP		; std::char_traits<char>::length
_TEXT	ENDS
PUBLIC	?copy@?$char_traits@D@std@@SAPADPADPBDI@Z	; std::char_traits<char>::copy
EXTRN	_memcpy:PROC
; Function compile flags: /Ogsp
;	COMDAT ?copy@?$char_traits@D@std@@SAPADPADPBDI@Z
_TEXT	SEGMENT
__First1$ = 8						; size = 4
__First2$ = 12						; size = 4
__Count$ = 16						; size = 4
?copy@?$char_traits@D@std@@SAPADPADPBDI@Z PROC		; std::char_traits<char>::copy, COMDAT

; 496  : 		{	// copy [_First1, _First1 + _Count) to [_First2, ...)

  00000	55		 push	 ebp
  00001	8b ec		 mov	 ebp, esp

; 498  : 		}

  00003	5d		 pop	 ebp

; 497  : 		return ((_Elem *)_CSTD memcpy(_First1, _First2, _Count));

  00004	e9 00 00 00 00	 jmp	 _memcpy
?copy@?$char_traits@D@std@@SAPADPADPBDI@Z ENDP		; std::char_traits<char>::copy
_TEXT	ENDS
PUBLIC	?move@?$char_traits@D@std@@SAPADPADPBDI@Z	; std::char_traits<char>::move
EXTRN	__imp__memmove:PROC
; Function compile flags: /Ogsp
;	COMDAT ?move@?$char_traits@D@std@@SAPADPADPBDI@Z
_TEXT	SEGMENT
__First1$ = 8						; size = 4
__First2$ = 12						; size = 4
__Count$ = 16						; size = 4
?move@?$char_traits@D@std@@SAPADPADPBDI@Z PROC		; std::char_traits<char>::move, COMDAT

; 516  : 		{	// copy [_First1, _First1 + _Count) to [_First2, ...)

  00000	55		 push	 ebp
  00001	8b ec		 mov	 ebp, esp

; 518  : 		}

  00003	5d		 pop	 ebp

; 517  : 		return ((_Elem *)_CSTD memmove(_First1, _First2, _Count));

  00004	ff 25 00 00 00
	00		 jmp	 DWORD PTR __imp__memmove
?move@?$char_traits@D@std@@SAPADPADPBDI@Z ENDP		; std::char_traits<char>::move
_TEXT	ENDS
PUBLIC	?assign@?$char_traits@D@std@@SAXAADABD@Z	; std::char_traits<char>::assign
; Function compile flags: /Ogsp
;	COMDAT ?assign@?$char_traits@D@std@@SAXAADABD@Z
_TEXT	SEGMENT
__Left$ = 8						; size = 4
__Right$ = 12						; size = 4
?assign@?$char_traits@D@std@@SAXAADABD@Z PROC		; std::char_traits<char>::assign, COMDAT

; 526  : 		{	// assign an element

  00000	55		 push	 ebp
  00001	8b ec		 mov	 ebp, esp

; 527  : 		_Left = _Right;

  00003	8b 45 0c	 mov	 eax, DWORD PTR __Right$[ebp]
  00006	8a 00		 mov	 al, BYTE PTR [eax]
  00008	8b 4d 08	 mov	 ecx, DWORD PTR __Left$[ebp]
  0000b	88 01		 mov	 BYTE PTR [ecx], al

; 528  : 		}

  0000d	5d		 pop	 ebp
  0000e	c3		 ret	 0
?assign@?$char_traits@D@std@@SAXAADABD@Z ENDP		; std::char_traits<char>::assign
_TEXT	ENDS
PUBLIC	?SetPlayStage@GameOptionSpecTab@@QAEXPAVioPlayStage@@@Z ; GameOptionSpecTab::SetPlayStage
; Function compile flags: /Ogsp
; File d:\lost saga for developer\youtube\tutorial\source\src\lsclient\gui\gameoptionwnd.h
;	COMDAT ?SetPlayStage@GameOptionSpecTab@@QAEXPAVioPlayStage@@@Z
_TEXT	SEGMENT
_pPlayStage$ = 8					; size = 4
?SetPlayStage@GameOptionSpecTab@@QAEXPAVioPlayStage@@@Z PROC ; GameOptionSpecTab::SetPlayStage, COMDAT
; _this$ = ecx

; 239  : 	void SetPlayStage( ioPlayStage *pPlayStage ) { m_pPlayStage = pPlayStage; }

  00000	55		 push	 ebp
  00001	8b ec		 mov	 ebp, esp
  00003	8b 45 08	 mov	 eax, DWORD PTR _pPlayStage$[ebp]
  00006	89 81 14 02 00
	00		 mov	 DWORD PTR [ecx+532], eax
  0000c	5d		 pop	 ebp
  0000d	c2 04 00	 ret	 4
?SetPlayStage@GameOptionSpecTab@@QAEXPAVioPlayStage@@@Z ENDP ; GameOptionSpecTab::SetPlayStage
_TEXT	ENDS
PUBLIC	??0SettingOption@@QAE@XZ			; SettingOption::SettingOption
EXTRN	__imp_??0ioHashString@@QAE@XZ:PROC
; Function compile flags: /Ogsp
;	COMDAT ??0SettingOption@@QAE@XZ
_TEXT	SEGMENT
??0SettingOption@@QAE@XZ PROC				; SettingOption::SettingOption, COMDAT
; _this$ = ecx
  00000	56		 push	 esi
  00001	8b f1		 mov	 esi, ecx
  00003	8d 4e 4c	 lea	 ecx, DWORD PTR [esi+76]
  00006	ff 15 00 00 00
	00		 call	 DWORD PTR __imp_??0ioHashString@@QAE@XZ
  0000c	8b c6		 mov	 eax, esi
  0000e	5e		 pop	 esi
  0000f	c3		 ret	 0
??0SettingOption@@QAE@XZ ENDP				; SettingOption::SettingOption
_TEXT	ENDS
PUBLIC	??1SettingOption@@QAE@XZ			; SettingOption::~SettingOption
EXTRN	__imp_??1ioHashString@@QAE@XZ:PROC
; Function compile flags: /Ogsp
;	COMDAT ??1SettingOption@@QAE@XZ
_TEXT	SEGMENT
??1SettingOption@@QAE@XZ PROC				; SettingOption::~SettingOption, COMDAT
; _this$ = ecx
  00000	83 c1 4c	 add	 ecx, 76			; 0000004cH
  00003	ff 25 00 00 00
	00		 jmp	 DWORD PTR __imp_??1ioHashString@@QAE@XZ
??1SettingOption@@QAE@XZ ENDP				; SettingOption::~SettingOption
_TEXT	ENDS
PUBLIC	??_7GameOptionBasicWnd@@6B@			; GameOptionBasicWnd::`vftable'
PUBLIC	??1GameOptionBasicWnd@@UAE@XZ			; GameOptionBasicWnd::~GameOptionBasicWnd
PUBLIC	??_R4GameOptionBasicWnd@@6B@			; GameOptionBasicWnd::`RTTI Complete Object Locator'
PUBLIC	??_R0?AVGameOptionBasicWnd@@@8			; GameOptionBasicWnd `RTTI Type Descriptor'
PUBLIC	??_R3GameOptionBasicWnd@@8			; GameOptionBasicWnd::`RTTI Class Hierarchy Descriptor'
PUBLIC	??_R2GameOptionBasicWnd@@8			; GameOptionBasicWnd::`RTTI Base Class Array'
PUBLIC	??_R1A@?0A@EA@GameOptionBasicWnd@@8		; GameOptionBasicWnd::`RTTI Base Class Descriptor at (0,-1,0,64)'
PUBLIC	??_R1A@?0A@EA@ioWnd@@8				; ioWnd::`RTTI Base Class Descriptor at (0,-1,0,64)'
PUBLIC	??_R0?AVioWnd@@@8				; ioWnd `RTTI Type Descriptor'
PUBLIC	??_R3ioWnd@@8					; ioWnd::`RTTI Class Hierarchy Descriptor'
PUBLIC	??_R2ioWnd@@8					; ioWnd::`RTTI Base Class Array'
PUBLIC	?iwm_show@GameOptionBasicWnd@@UAEXXZ		; GameOptionBasicWnd::iwm_show
PUBLIC	?CheckResolutionChange@GameOptionBasicWnd@@MAE_NABUSettingOption@@@Z ; GameOptionBasicWnd::CheckResolutionChange
EXTRN	__imp_??1ioWnd@@UAE@XZ:PROC
EXTRN	___CxxFrameHandler3:PROC
EXTRN	@__security_check_cookie@4:PROC
EXTRN	__EH_epilog3:PROC
EXTRN	__EH_prolog3:PROC
EXTRN	?AddRenderFrame@ioWnd@@UAEXABVioHashString@@PAVioUIRenderFrame@@@Z:PROC ; ioWnd::AddRenderFrame
EXTRN	?AddRenderImage@ioWnd@@UAEXABVioHashString@@PAVioUIRenderImage@@@Z:PROC ; ioWnd::AddRenderImage
EXTRN	?AddTooltipHelp@ioWnd@@UAEXABVioHashString@@00@Z:PROC ; ioWnd::AddTooltipHelp
EXTRN	?ParseExtraInfo@ioWnd@@UAEXAAVioXMLElement@@@Z:PROC ; ioWnd::ParseExtraInfo
EXTRN	?AddNamedRenderImage@ioWnd@@UAEXABVioHashString@@PAVioUIRenderImage@@@Z:PROC ; ioWnd::AddNamedRenderImage
EXTRN	?RemoveNamedRenderImage@ioWnd@@UAEXABVioHashString@@@Z:PROC ; ioWnd::RemoveNamedRenderImage
EXTRN	?GetNamedRenderImage@ioWnd@@UBEPAVioUIRenderImage@@ABVioHashString@@@Z:PROC ; ioWnd::GetNamedRenderImage
EXTRN	?SetWindowAlpha@ioWnd@@UAEXH@Z:PROC		; ioWnd::SetWindowAlpha
EXTRN	?SetActive@ioWnd@@UAEXXZ:PROC			; ioWnd::SetActive
EXTRN	?SetInActive@ioWnd@@UAEXXZ:PROC			; ioWnd::SetInActive
EXTRN	?ClearElementImageList@ioWnd@@UAEXXZ:PROC	; ioWnd::ClearElementImageList
EXTRN	?SetSize@ioWnd@@UAEXHH@Z:PROC			; ioWnd::SetSize
EXTRN	?SetPositionToDefault@ioWnd@@UAEXHH_N0@Z:PROC	; ioWnd::SetPositionToDefault
EXTRN	?IsNeedProcess@ioWnd@@UBE_NXZ:PROC		; ioWnd::IsNeedProcess
EXTRN	?IsCanMouseReaction@ioWnd@@UBE_NXZ:PROC		; ioWnd::IsCanMouseReaction
EXTRN	?AddChild@ioWnd@@UAEXPAV1@@Z:PROC		; ioWnd::AddChild
EXTRN	?DeleteChild@ioWnd@@UAEXK@Z:PROC		; ioWnd::DeleteChild
EXTRN	?DeleteAllChild@ioWnd@@UAEXXZ:PROC		; ioWnd::DeleteAllChild
EXTRN	?OnRenderShowAndHide@ioWnd@@MAE_NXZ:PROC	; ioWnd::OnRenderShowAndHide
EXTRN	?OnRenderShowAndHideByDefault@ioWnd@@MAE_NK@Z:PROC ; ioWnd::OnRenderShowAndHideByDefault
EXTRN	?OnRenderShowAndHideByTop@ioWnd@@MAE_NK@Z:PROC	; ioWnd::OnRenderShowAndHideByTop
EXTRN	?OnRenderShowAndHideByDown@ioWnd@@MAE_NK@Z:PROC	; ioWnd::OnRenderShowAndHideByDown
EXTRN	?OnRender@ioWnd@@MAEXXZ:PROC			; ioWnd::OnRender
EXTRN	?OnRenderAfterChild@ioWnd@@MAEXXZ:PROC		; ioWnd::OnRenderAfterChild
EXTRN	?OnProcess@ioWnd@@MAEXM@Z:PROC			; ioWnd::OnProcess
EXTRN	?OnMouseProcess@ioWnd@@MAEXABVioMouse@@@Z:PROC	; ioWnd::OnMouseProcess
EXTRN	?CheckFrameReSize@ioWnd@@MAEXHHHH@Z:PROC	; ioWnd::CheckFrameReSize
EXTRN	?RenderImageList@ioWnd@@MAEXHHW4UIRenderType@@@Z:PROC ; ioWnd::RenderImageList
EXTRN	?iwm_create@ioWnd@@UAEXXZ:PROC			; ioWnd::iwm_create
EXTRN	?iwm_destroy@ioWnd@@UAEXXZ:PROC			; ioWnd::iwm_destroy
EXTRN	?iwm_lbuttondown@ioWnd@@UAEXABVioMouse@@@Z:PROC	; ioWnd::iwm_lbuttondown
EXTRN	?iwm_lbuttonup@ioWnd@@UAEXABVioMouse@@@Z:PROC	; ioWnd::iwm_lbuttonup
EXTRN	?iwm_lbuttonDBLCLK@ioWnd@@UAEXABVioMouse@@@Z:PROC ; ioWnd::iwm_lbuttonDBLCLK
EXTRN	?iwm_rbuttondown@ioWnd@@UAEXABVioMouse@@@Z:PROC	; ioWnd::iwm_rbuttondown
EXTRN	?iwm_rbuttonup@ioWnd@@UAEXABVioMouse@@@Z:PROC	; ioWnd::iwm_rbuttonup
EXTRN	?iwm_command@ioWnd@@UAEXPAV1@HK@Z:PROC		; ioWnd::iwm_command
EXTRN	?iwm_mouseover@ioWnd@@UAEXABVioMouse@@@Z:PROC	; ioWnd::iwm_mouseover
EXTRN	?iwm_mousemove@ioWnd@@UAEXABVioMouse@@@Z:PROC	; ioWnd::iwm_mousemove
EXTRN	?iwm_mouseleave@ioWnd@@UAEXABVioMouse@@@Z:PROC	; ioWnd::iwm_mouseleave
EXTRN	?iwm_vscroll@ioWnd@@UAEXKH@Z:PROC		; ioWnd::iwm_vscroll
EXTRN	?iwm_wheel@ioWnd@@UAEXH@Z:PROC			; ioWnd::iwm_wheel
EXTRN	?iwm_hide@ioWnd@@UAEXXZ:PROC			; ioWnd::iwm_hide
EXTRN	?iwm_esc@ioWnd@@UAE_NXZ:PROC			; ioWnd::iwm_esc
EXTRN	?iwm_spacebar@ioWnd@@UAE_NXZ:PROC		; ioWnd::iwm_spacebar
EXTRN	?iwm_gototop@ioWnd@@UAEXXZ:PROC			; ioWnd::iwm_gototop
EXTRN	?iwm_dragenter@ioWnd@@UAE?AW4IWDropEffect@@PAVioDragItem@@ABVioMouse@@@Z:PROC ; ioWnd::iwm_dragenter
EXTRN	?iwm_dragover@ioWnd@@UAE?AW4IWDropEffect@@PAVioDragItem@@ABVioMouse@@@Z:PROC ; ioWnd::iwm_dragover
EXTRN	?iwm_dragleave@ioWnd@@UAEXXZ:PROC		; ioWnd::iwm_dragleave
EXTRN	?iwm_dropitem@ioWnd@@UAE_NPAVioDragItem@@ABVioMouse@@PAV1@@Z:PROC ; ioWnd::iwm_dropitem
EXTRN	?iwm_dropdone@ioWnd@@UAEXPAVioDragItem@@PAV1@_N@Z:PROC ; ioWnd::iwm_dropdone
EXTRN	?IsEXType@ioWnd@@UBE_NXZ:PROC			; ioWnd::IsEXType
EXTRN	?GetWndType@ioWnd@@UBEKXZ:PROC			; ioWnd::GetWndType
EXTRN	?RenderWnd@ioWnd@@UAEXXZ:PROC			; ioWnd::RenderWnd
EXTRN	?SetIDEX@ioWnd@@UAEXAAK_N@Z:PROC		; ioWnd::SetIDEX
EXTRN	?ParseXML@ioWnd@@UAEXAAVioXMLElement@@@Z:PROC	; ioWnd::ParseXML
EXTRN	?GetHeaderFileName@ioWnd@@UAEPBDXZ:PROC		; ioWnd::GetHeaderFileName
EXTRN	?GetTemplateName@ioWnd@@UAEPBDXZ:PROC		; ioWnd::GetTemplateName
EXTRN	?GetDefClassName@ioWnd@@UBEPBDXZ:PROC		; ioWnd::GetDefClassName
EXTRN	?_Clone@ioWnd@@UAEPAV1@XZ:PROC			; ioWnd::_Clone
EXTRN	?Copy@ioWnd@@UAEXPAV1@@Z:PROC			; ioWnd::Copy
EXTRN	?Save@ioWnd@@UAE_NAAVioXMLElement@@@Z:PROC	; ioWnd::Save
EXTRN	?SetSaveData@ioWnd@@UAEXAAVioXMLElement@@@Z:PROC ; ioWnd::SetSaveData
EXTRN	?SetPosX@ioWnd@@UAEXH@Z:PROC			; ioWnd::SetPosX
EXTRN	?SetPosY@ioWnd@@UAEXH@Z:PROC			; ioWnd::SetPosY
EXTRN	?SetWidth@ioWnd@@UAEXH@Z:PROC			; ioWnd::SetWidth
EXTRN	?SetHeight@ioWnd@@UAEXH@Z:PROC			; ioWnd::SetHeight
EXTRN	?GetNumFixedRenderFrame@ioWnd@@UBEHXZ:PROC	; ioWnd::GetNumFixedRenderFrame
EXTRN	?GetFixedRenderFrameType@ioWnd@@UAEPBDH@Z:PROC	; ioWnd::GetFixedRenderFrameType
EXTRN	?GetRenderFrame@ioWnd@@UAEPAPAVioUIRenderElement@@PBD@Z:PROC ; ioWnd::GetRenderFrame
EXTRN	?GetNumFixedRenderImage@ioWnd@@UBEHXZ:PROC	; ioWnd::GetNumFixedRenderImage
EXTRN	?GetFixedRenderImageType@ioWnd@@UAEPBDH@Z:PROC	; ioWnd::GetFixedRenderImageType
EXTRN	?GetRenderImage@ioWnd@@UAEPAPAVioUIRenderElement@@PBD@Z:PROC ; ioWnd::GetRenderImage
EXTRN	?AddEffect@ioWnd@@UAEXABVioHashString@@PAVioUI3DEffectRender@@@Z:PROC ; ioWnd::AddEffect
EXTRN	?GetEffect@ioWnd@@UAEPAVioUI3DEffectRender@@VioHashString@@@Z:PROC ; ioWnd::GetEffect
EXTRN	??_EGameOptionBasicWnd@@UAEPAXI@Z:PROC		; GameOptionBasicWnd::`vector deleting destructor'
EXTRN	__purecall:PROC
;	COMDAT ??_R2ioWnd@@8
; File d:\lost saga for developer\youtube\tutorial\source\src\lsclient\gui\gameoptionwnd.cpp
rdata$r	SEGMENT
??_R2ioWnd@@8 DD FLAT:??_R1A@?0A@EA@ioWnd@@8		; ioWnd::`RTTI Base Class Array'
rdata$r	ENDS
;	COMDAT ??_R3ioWnd@@8
rdata$r	SEGMENT
??_R3ioWnd@@8 DD 00H					; ioWnd::`RTTI Class Hierarchy Descriptor'
	DD	00H
	DD	01H
	DD	FLAT:??_R2ioWnd@@8
rdata$r	ENDS
;	COMDAT ??_R0?AVioWnd@@@8
_DATA	SEGMENT
??_R0?AVioWnd@@@8 DD FLAT:??_7type_info@@6B@		; ioWnd `RTTI Type Descriptor'
	DD	00H
	DB	'.?AVioWnd@@', 00H
_DATA	ENDS
;	COMDAT ??_R1A@?0A@EA@ioWnd@@8
rdata$r	SEGMENT
??_R1A@?0A@EA@ioWnd@@8 DD FLAT:??_R0?AVioWnd@@@8	; ioWnd::`RTTI Base Class Descriptor at (0,-1,0,64)'
	DD	00H
	DD	00H
	DD	0ffffffffH
	DD	00H
	DD	040H
	DD	FLAT:??_R3ioWnd@@8
rdata$r	ENDS
;	COMDAT ??_R1A@?0A@EA@GameOptionBasicWnd@@8
rdata$r	SEGMENT
??_R1A@?0A@EA@GameOptionBasicWnd@@8 DD FLAT:??_R0?AVGameOptionBasicWnd@@@8 ; GameOptionBasicWnd::`RTTI Base Class Descriptor at (0,-1,0,64)'
	DD	01H
	DD	00H
	DD	0ffffffffH
	DD	00H
	DD	040H
	DD	FLAT:??_R3GameOptionBasicWnd@@8
rdata$r	ENDS
;	COMDAT ??_R2GameOptionBasicWnd@@8
rdata$r	SEGMENT
??_R2GameOptionBasicWnd@@8 DD FLAT:??_R1A@?0A@EA@GameOptionBasicWnd@@8 ; GameOptionBasicWnd::`RTTI Base Class Array'
	DD	FLAT:??_R1A@?0A@EA@ioWnd@@8
rdata$r	ENDS
;	COMDAT ??_R3GameOptionBasicWnd@@8
rdata$r	SEGMENT
??_R3GameOptionBasicWnd@@8 DD 00H			; GameOptionBasicWnd::`RTTI Class Hierarchy Descriptor'
	DD	00H
	DD	02H
	DD	FLAT:??_R2GameOptionBasicWnd@@8
rdata$r	ENDS
;	COMDAT ??_R0?AVGameOptionBasicWnd@@@8
_DATA	SEGMENT
??_R0?AVGameOptionBasicWnd@@@8 DD FLAT:??_7type_info@@6B@ ; GameOptionBasicWnd `RTTI Type Descriptor'
	DD	00H
	DB	'.?AVGameOptionBasicWnd@@', 00H
_DATA	ENDS
;	COMDAT ??_R4GameOptionBasicWnd@@6B@
rdata$r	SEGMENT
??_R4GameOptionBasicWnd@@6B@ DD 00H			; GameOptionBasicWnd::`RTTI Complete Object Locator'
	DD	00H
	DD	00H
	DD	FLAT:??_R0?AVGameOptionBasicWnd@@@8
	DD	FLAT:??_R3GameOptionBasicWnd@@8
rdata$r	ENDS
;	COMDAT ??_7GameOptionBasicWnd@@6B@
CONST	SEGMENT
??_7GameOptionBasicWnd@@6B@ DD FLAT:??_R4GameOptionBasicWnd@@6B@ ; GameOptionBasicWnd::`vftable'
	DD	FLAT:?AddRenderFrame@ioWnd@@UAEXABVioHashString@@PAVioUIRenderFrame@@@Z
	DD	FLAT:?AddRenderImage@ioWnd@@UAEXABVioHashString@@PAVioUIRenderImage@@@Z
	DD	FLAT:?AddTooltipHelp@ioWnd@@UAEXABVioHashString@@00@Z
	DD	FLAT:?ParseExtraInfo@ioWnd@@UAEXAAVioXMLElement@@@Z
	DD	FLAT:?AddNamedRenderImage@ioWnd@@UAEXABVioHashString@@PAVioUIRenderImage@@@Z
	DD	FLAT:?RemoveNamedRenderImage@ioWnd@@UAEXABVioHashString@@@Z
	DD	FLAT:?GetNamedRenderImage@ioWnd@@UBEPAVioUIRenderImage@@ABVioHashString@@@Z
	DD	FLAT:?SetWindowAlpha@ioWnd@@UAEXH@Z
	DD	FLAT:?SetActive@ioWnd@@UAEXXZ
	DD	FLAT:?SetInActive@ioWnd@@UAEXXZ
	DD	FLAT:?ClearElementImageList@ioWnd@@UAEXXZ
	DD	FLAT:?SetSize@ioWnd@@UAEXHH@Z
	DD	FLAT:?SetPositionToDefault@ioWnd@@UAEXHH_N0@Z
	DD	FLAT:?IsNeedProcess@ioWnd@@UBE_NXZ
	DD	FLAT:?IsCanMouseReaction@ioWnd@@UBE_NXZ
	DD	FLAT:?AddChild@ioWnd@@UAEXPAV1@@Z
	DD	FLAT:?DeleteChild@ioWnd@@UAEXK@Z
	DD	FLAT:?DeleteAllChild@ioWnd@@UAEXXZ
	DD	FLAT:?OnRenderShowAndHide@ioWnd@@MAE_NXZ
	DD	FLAT:?OnRenderShowAndHideByDefault@ioWnd@@MAE_NK@Z
	DD	FLAT:?OnRenderShowAndHideByTop@ioWnd@@MAE_NK@Z
	DD	FLAT:?OnRenderShowAndHideByDown@ioWnd@@MAE_NK@Z
	DD	FLAT:?OnRender@ioWnd@@MAEXXZ
	DD	FLAT:?OnRenderAfterChild@ioWnd@@MAEXXZ
	DD	FLAT:?OnProcess@ioWnd@@MAEXM@Z
	DD	FLAT:?OnMouseProcess@ioWnd@@MAEXABVioMouse@@@Z
	DD	FLAT:?CheckFrameReSize@ioWnd@@MAEXHHHH@Z
	DD	FLAT:?RenderImageList@ioWnd@@MAEXHHW4UIRenderType@@@Z
	DD	FLAT:?iwm_create@ioWnd@@UAEXXZ
	DD	FLAT:?iwm_destroy@ioWnd@@UAEXXZ
	DD	FLAT:?iwm_lbuttondown@ioWnd@@UAEXABVioMouse@@@Z
	DD	FLAT:?iwm_lbuttonup@ioWnd@@UAEXABVioMouse@@@Z
	DD	FLAT:?iwm_lbuttonDBLCLK@ioWnd@@UAEXABVioMouse@@@Z
	DD	FLAT:?iwm_rbuttondown@ioWnd@@UAEXABVioMouse@@@Z
	DD	FLAT:?iwm_rbuttonup@ioWnd@@UAEXABVioMouse@@@Z
	DD	FLAT:?iwm_command@ioWnd@@UAEXPAV1@HK@Z
	DD	FLAT:?iwm_mouseover@ioWnd@@UAEXABVioMouse@@@Z
	DD	FLAT:?iwm_mousemove@ioWnd@@UAEXABVioMouse@@@Z
	DD	FLAT:?iwm_mouseleave@ioWnd@@UAEXABVioMouse@@@Z
	DD	FLAT:?iwm_vscroll@ioWnd@@UAEXKH@Z
	DD	FLAT:?iwm_wheel@ioWnd@@UAEXH@Z
	DD	FLAT:?iwm_show@GameOptionBasicWnd@@UAEXXZ
	DD	FLAT:?iwm_hide@ioWnd@@UAEXXZ
	DD	FLAT:?iwm_esc@ioWnd@@UAE_NXZ
	DD	FLAT:?iwm_spacebar@ioWnd@@UAE_NXZ
	DD	FLAT:?iwm_gototop@ioWnd@@UAEXXZ
	DD	FLAT:?iwm_dragenter@ioWnd@@UAE?AW4IWDropEffect@@PAVioDragItem@@ABVioMouse@@@Z
	DD	FLAT:?iwm_dragover@ioWnd@@UAE?AW4IWDropEffect@@PAVioDragItem@@ABVioMouse@@@Z
	DD	FLAT:?iwm_dragleave@ioWnd@@UAEXXZ
	DD	FLAT:?iwm_dropitem@ioWnd@@UAE_NPAVioDragItem@@ABVioMouse@@PAV1@@Z
	DD	FLAT:?iwm_dropdone@ioWnd@@UAEXPAVioDragItem@@PAV1@_N@Z
	DD	FLAT:?IsEXType@ioWnd@@UBE_NXZ
	DD	FLAT:?GetWndType@ioWnd@@UBEKXZ
	DD	FLAT:?RenderWnd@ioWnd@@UAEXXZ
	DD	FLAT:?SetIDEX@ioWnd@@UAEXAAK_N@Z
	DD	FLAT:?ParseXML@ioWnd@@UAEXAAVioXMLElement@@@Z
	DD	FLAT:?GetHeaderFileName@ioWnd@@UAEPBDXZ
	DD	FLAT:?GetTemplateName@ioWnd@@UAEPBDXZ
	DD	FLAT:?GetDefClassName@ioWnd@@UBEPBDXZ
	DD	FLAT:?_Clone@ioWnd@@UAEPAV1@XZ
	DD	FLAT:?Copy@ioWnd@@UAEXPAV1@@Z
	DD	FLAT:?Save@ioWnd@@UAE_NAAVioXMLElement@@@Z
	DD	FLAT:?SetSaveData@ioWnd@@UAEXAAVioXMLElement@@@Z
	DD	FLAT:?SetPosX@ioWnd@@UAEXH@Z
	DD	FLAT:?SetPosY@ioWnd@@UAEXH@Z
	DD	FLAT:?SetWidth@ioWnd@@UAEXH@Z
	DD	FLAT:?SetHeight@ioWnd@@UAEXH@Z
	DD	FLAT:?GetNumFixedRenderFrame@ioWnd@@UBEHXZ
	DD	FLAT:?GetFixedRenderFrameType@ioWnd@@UAEPBDH@Z
	DD	FLAT:?GetRenderFrame@ioWnd@@UAEPAPAVioUIRenderElement@@PBD@Z
	DD	FLAT:?GetNumFixedRenderImage@ioWnd@@UBEHXZ
	DD	FLAT:?GetFixedRenderImageType@ioWnd@@UAEPBDH@Z
	DD	FLAT:?GetRenderImage@ioWnd@@UAEPAPAVioUIRenderElement@@PBD@Z
	DD	FLAT:?AddEffect@ioWnd@@UAEXABVioHashString@@PAVioUI3DEffectRender@@@Z
	DD	FLAT:?GetEffect@ioWnd@@UAEPAVioUI3DEffectRender@@VioHashString@@@Z
	DD	FLAT:??_EGameOptionBasicWnd@@UAEPAXI@Z
	DD	FLAT:__purecall
	DD	FLAT:?CheckResolutionChange@GameOptionBasicWnd@@MAE_NABUSettingOption@@@Z
CONST	ENDS
;	COMDAT xdata$x
xdata$x	SEGMENT
__unwindtable$??1GameOptionBasicWnd@@UAE@XZ DD 0ffffffffH
	DD	FLAT:__unwindfunclet$??1GameOptionBasicWnd@@UAE@XZ$0
__ehfuncinfo$??1GameOptionBasicWnd@@UAE@XZ DD 019930522H
	DD	01H
	DD	FLAT:__unwindtable$??1GameOptionBasicWnd@@UAE@XZ
	DD	2 DUP(00H)
	DD	2 DUP(00H)
	DD	00H
	DD	01H
; Function compile flags: /Ogsp
xdata$x	ENDS
;	COMDAT ??1GameOptionBasicWnd@@UAE@XZ
_TEXT	SEGMENT
_this$ = -16						; size = 4
__$EHRec$ = -12						; size = 12
??1GameOptionBasicWnd@@UAE@XZ PROC			; GameOptionBasicWnd::~GameOptionBasicWnd, COMDAT
; _this$ = ecx

; 54   : {

  00000	6a 04		 push	 4
  00002	b8 00 00 00 00	 mov	 eax, __ehhandler$??1GameOptionBasicWnd@@UAE@XZ
  00007	e8 00 00 00 00	 call	 __EH_prolog3
  0000c	8b f1		 mov	 esi, ecx
  0000e	89 75 f0	 mov	 DWORD PTR _this$[ebp], esi
  00011	c7 06 00 00 00
	00		 mov	 DWORD PTR [esi], OFFSET ??_7GameOptionBasicWnd@@6B@
  00017	83 65 fc 00	 and	 DWORD PTR __$EHRec$[ebp+8], 0

; 55   : }

  0001b	8d 8e b0 01 00
	00		 lea	 ecx, DWORD PTR [esi+432]
  00021	ff 15 00 00 00
	00		 call	 DWORD PTR __imp_??1ioHashString@@QAE@XZ
  00027	83 4d fc ff	 or	 DWORD PTR __$EHRec$[ebp+8], -1
  0002b	8b ce		 mov	 ecx, esi
  0002d	ff 15 00 00 00
	00		 call	 DWORD PTR __imp_??1ioWnd@@UAE@XZ
  00033	e8 00 00 00 00	 call	 __EH_epilog3
  00038	c3		 ret	 0
_TEXT	ENDS
;	COMDAT text$x
text$x	SEGMENT
__unwindfunclet$??1GameOptionBasicWnd@@UAE@XZ$0:
  00000	8b 4d f0	 mov	 ecx, DWORD PTR _this$[ebp]
  00003	ff 25 00 00 00
	00		 jmp	 DWORD PTR __imp_??1ioWnd@@UAE@XZ
__ehhandler$??1GameOptionBasicWnd@@UAE@XZ:
  00009	8b 54 24 08	 mov	 edx, DWORD PTR [esp+8]
  0000d	8d 42 0c	 lea	 eax, DWORD PTR [edx+12]
  00010	8b 4a ec	 mov	 ecx, DWORD PTR [edx-20]
  00013	33 c8		 xor	 ecx, eax
  00015	e8 00 00 00 00	 call	 @__security_check_cookie@4
  0001a	b8 00 00 00 00	 mov	 eax, OFFSET __ehfuncinfo$??1GameOptionBasicWnd@@UAE@XZ
  0001f	e9 00 00 00 00	 jmp	 ___CxxFrameHandler3
text$x	ENDS
??1GameOptionBasicWnd@@UAE@XZ ENDP			; GameOptionBasicWnd::~GameOptionBasicWnd
PUBLIC	??0SettingOption@@QAE@ABU0@@Z			; SettingOption::SettingOption
EXTRN	__imp_??0ioHashString@@QAE@ABV0@@Z:PROC
; Function compile flags: /Ogsp
;	COMDAT ??0SettingOption@@QAE@ABU0@@Z
_TEXT	SEGMENT
___that$ = 8						; size = 4
??0SettingOption@@QAE@ABU0@@Z PROC			; SettingOption::SettingOption, COMDAT
; _this$ = ecx
  00000	55		 push	 ebp
  00001	8b ec		 mov	 ebp, esp
  00003	56		 push	 esi
  00004	8b f1		 mov	 esi, ecx
  00006	57		 push	 edi
  00007	8b 7d 08	 mov	 edi, DWORD PTR ___that$[ebp]
  0000a	8a 07		 mov	 al, BYTE PTR [edi]
  0000c	88 06		 mov	 BYTE PTR [esi], al
  0000e	8a 47 01	 mov	 al, BYTE PTR [edi+1]
  00011	88 46 01	 mov	 BYTE PTR [esi+1], al
  00014	8a 47 02	 mov	 al, BYTE PTR [edi+2]
  00017	88 46 02	 mov	 BYTE PTR [esi+2], al
  0001a	8a 47 03	 mov	 al, BYTE PTR [edi+3]
  0001d	88 46 03	 mov	 BYTE PTR [esi+3], al
  00020	8a 47 04	 mov	 al, BYTE PTR [edi+4]
  00023	88 46 04	 mov	 BYTE PTR [esi+4], al
  00026	8a 47 05	 mov	 al, BYTE PTR [edi+5]
  00029	88 46 05	 mov	 BYTE PTR [esi+5], al
  0002c	8a 47 06	 mov	 al, BYTE PTR [edi+6]
  0002f	88 46 06	 mov	 BYTE PTR [esi+6], al
  00032	8a 47 07	 mov	 al, BYTE PTR [edi+7]
  00035	88 46 07	 mov	 BYTE PTR [esi+7], al
  00038	8a 47 08	 mov	 al, BYTE PTR [edi+8]
  0003b	88 46 08	 mov	 BYTE PTR [esi+8], al
  0003e	8a 47 09	 mov	 al, BYTE PTR [edi+9]
  00041	88 46 09	 mov	 BYTE PTR [esi+9], al
  00044	8a 47 0a	 mov	 al, BYTE PTR [edi+10]
  00047	88 46 0a	 mov	 BYTE PTR [esi+10], al
  0004a	8b 47 0c	 mov	 eax, DWORD PTR [edi+12]
  0004d	89 46 0c	 mov	 DWORD PTR [esi+12], eax
  00050	8b 47 10	 mov	 eax, DWORD PTR [edi+16]
  00053	89 46 10	 mov	 DWORD PTR [esi+16], eax
  00056	8b 47 14	 mov	 eax, DWORD PTR [edi+20]
  00059	89 46 14	 mov	 DWORD PTR [esi+20], eax
  0005c	8b 47 18	 mov	 eax, DWORD PTR [edi+24]
  0005f	89 46 18	 mov	 DWORD PTR [esi+24], eax
  00062	8b 47 1c	 mov	 eax, DWORD PTR [edi+28]
  00065	89 46 1c	 mov	 DWORD PTR [esi+28], eax
  00068	8b 47 20	 mov	 eax, DWORD PTR [edi+32]
  0006b	89 46 20	 mov	 DWORD PTR [esi+32], eax
  0006e	8b 47 24	 mov	 eax, DWORD PTR [edi+36]
  00071	89 46 24	 mov	 DWORD PTR [esi+36], eax
  00074	8b 47 28	 mov	 eax, DWORD PTR [edi+40]
  00077	89 46 28	 mov	 DWORD PTR [esi+40], eax
  0007a	8b 47 2c	 mov	 eax, DWORD PTR [edi+44]
  0007d	89 46 2c	 mov	 DWORD PTR [esi+44], eax
  00080	8b 47 30	 mov	 eax, DWORD PTR [edi+48]
  00083	89 46 30	 mov	 DWORD PTR [esi+48], eax
  00086	8b 47 34	 mov	 eax, DWORD PTR [edi+52]
  00089	89 46 34	 mov	 DWORD PTR [esi+52], eax
  0008c	8b 47 38	 mov	 eax, DWORD PTR [edi+56]
  0008f	89 46 38	 mov	 DWORD PTR [esi+56], eax
  00092	8b 47 3c	 mov	 eax, DWORD PTR [edi+60]
  00095	89 46 3c	 mov	 DWORD PTR [esi+60], eax
  00098	8a 47 40	 mov	 al, BYTE PTR [edi+64]
  0009b	88 46 40	 mov	 BYTE PTR [esi+64], al
  0009e	8a 47 41	 mov	 al, BYTE PTR [edi+65]
  000a1	88 46 41	 mov	 BYTE PTR [esi+65], al
  000a4	8a 47 42	 mov	 al, BYTE PTR [edi+66]
  000a7	88 46 42	 mov	 BYTE PTR [esi+66], al
  000aa	8a 47 43	 mov	 al, BYTE PTR [edi+67]
  000ad	88 46 43	 mov	 BYTE PTR [esi+67], al
  000b0	8a 47 44	 mov	 al, BYTE PTR [edi+68]
  000b3	88 46 44	 mov	 BYTE PTR [esi+68], al
  000b6	8a 47 45	 mov	 al, BYTE PTR [edi+69]
  000b9	88 46 45	 mov	 BYTE PTR [esi+69], al
  000bc	8a 47 46	 mov	 al, BYTE PTR [edi+70]
  000bf	88 46 46	 mov	 BYTE PTR [esi+70], al
  000c2	8a 47 47	 mov	 al, BYTE PTR [edi+71]
  000c5	88 46 47	 mov	 BYTE PTR [esi+71], al
  000c8	8a 47 48	 mov	 al, BYTE PTR [edi+72]
  000cb	88 46 48	 mov	 BYTE PTR [esi+72], al
  000ce	8a 47 49	 mov	 al, BYTE PTR [edi+73]
  000d1	88 46 49	 mov	 BYTE PTR [esi+73], al
  000d4	8a 47 4a	 mov	 al, BYTE PTR [edi+74]
  000d7	88 46 4a	 mov	 BYTE PTR [esi+74], al
  000da	8d 47 4c	 lea	 eax, DWORD PTR [edi+76]
  000dd	50		 push	 eax
  000de	8d 4e 4c	 lea	 ecx, DWORD PTR [esi+76]
  000e1	ff 15 00 00 00
	00		 call	 DWORD PTR __imp_??0ioHashString@@QAE@ABV0@@Z
  000e7	8a 47 5c	 mov	 al, BYTE PTR [edi+92]
  000ea	88 46 5c	 mov	 BYTE PTR [esi+92], al
  000ed	8a 47 5d	 mov	 al, BYTE PTR [edi+93]
  000f0	88 46 5d	 mov	 BYTE PTR [esi+93], al
  000f3	8a 47 5e	 mov	 al, BYTE PTR [edi+94]
  000f6	88 46 5e	 mov	 BYTE PTR [esi+94], al
  000f9	8a 47 5f	 mov	 al, BYTE PTR [edi+95]
  000fc	88 46 5f	 mov	 BYTE PTR [esi+95], al
  000ff	8a 47 60	 mov	 al, BYTE PTR [edi+96]
  00102	88 46 60	 mov	 BYTE PTR [esi+96], al
  00105	8a 47 61	 mov	 al, BYTE PTR [edi+97]
  00108	88 46 61	 mov	 BYTE PTR [esi+97], al
  0010b	8a 47 62	 mov	 al, BYTE PTR [edi+98]
  0010e	88 46 62	 mov	 BYTE PTR [esi+98], al
  00111	8a 47 63	 mov	 al, BYTE PTR [edi+99]
  00114	88 46 63	 mov	 BYTE PTR [esi+99], al
  00117	8a 47 64	 mov	 al, BYTE PTR [edi+100]
  0011a	88 46 64	 mov	 BYTE PTR [esi+100], al
  0011d	8a 47 65	 mov	 al, BYTE PTR [edi+101]
  00120	88 46 65	 mov	 BYTE PTR [esi+101], al
  00123	8a 47 66	 mov	 al, BYTE PTR [edi+102]
  00126	88 46 66	 mov	 BYTE PTR [esi+102], al
  00129	8a 47 67	 mov	 al, BYTE PTR [edi+103]
  0012c	88 46 67	 mov	 BYTE PTR [esi+103], al
  0012f	8a 47 68	 mov	 al, BYTE PTR [edi+104]
  00132	88 46 68	 mov	 BYTE PTR [esi+104], al
  00135	8a 47 69	 mov	 al, BYTE PTR [edi+105]
  00138	88 46 69	 mov	 BYTE PTR [esi+105], al
  0013b	8a 47 6a	 mov	 al, BYTE PTR [edi+106]
  0013e	88 46 6a	 mov	 BYTE PTR [esi+106], al
  00141	8a 47 6b	 mov	 al, BYTE PTR [edi+107]
  00144	88 46 6b	 mov	 BYTE PTR [esi+107], al
  00147	8a 47 6c	 mov	 al, BYTE PTR [edi+108]
  0014a	88 46 6c	 mov	 BYTE PTR [esi+108], al
  0014d	8a 47 6d	 mov	 al, BYTE PTR [edi+109]
  00150	88 46 6d	 mov	 BYTE PTR [esi+109], al
  00153	8a 47 6e	 mov	 al, BYTE PTR [edi+110]
  00156	88 46 6e	 mov	 BYTE PTR [esi+110], al
  00159	8a 47 6f	 mov	 al, BYTE PTR [edi+111]
  0015c	88 46 6f	 mov	 BYTE PTR [esi+111], al
  0015f	8a 47 70	 mov	 al, BYTE PTR [edi+112]
  00162	88 46 70	 mov	 BYTE PTR [esi+112], al
  00165	8a 47 71	 mov	 al, BYTE PTR [edi+113]
  00168	88 46 71	 mov	 BYTE PTR [esi+113], al
  0016b	8a 47 72	 mov	 al, BYTE PTR [edi+114]
  0016e	88 46 72	 mov	 BYTE PTR [esi+114], al
  00171	8b 47 74	 mov	 eax, DWORD PTR [edi+116]
  00174	89 46 74	 mov	 DWORD PTR [esi+116], eax
  00177	8b 47 78	 mov	 eax, DWORD PTR [edi+120]
  0017a	89 46 78	 mov	 DWORD PTR [esi+120], eax
  0017d	8b 47 7c	 mov	 eax, DWORD PTR [edi+124]
  00180	89 46 7c	 mov	 DWORD PTR [esi+124], eax
  00183	8b 87 80 00 00
	00		 mov	 eax, DWORD PTR [edi+128]
  00189	89 86 80 00 00
	00		 mov	 DWORD PTR [esi+128], eax
  0018f	8b 87 84 00 00
	00		 mov	 eax, DWORD PTR [edi+132]
  00195	89 86 84 00 00
	00		 mov	 DWORD PTR [esi+132], eax
  0019b	8b 87 88 00 00
	00		 mov	 eax, DWORD PTR [edi+136]
  001a1	89 86 88 00 00
	00		 mov	 DWORD PTR [esi+136], eax
  001a7	8b 87 8c 00 00
	00		 mov	 eax, DWORD PTR [edi+140]
  001ad	89 86 8c 00 00
	00		 mov	 DWORD PTR [esi+140], eax
  001b3	8a 87 90 00 00
	00		 mov	 al, BYTE PTR [edi+144]
  001b9	88 86 90 00 00
	00		 mov	 BYTE PTR [esi+144], al
  001bf	8a 87 91 00 00
	00		 mov	 al, BYTE PTR [edi+145]
  001c5	88 86 91 00 00
	00		 mov	 BYTE PTR [esi+145], al
  001cb	8b 87 94 00 00
	00		 mov	 eax, DWORD PTR [edi+148]
  001d1	89 86 94 00 00
	00		 mov	 DWORD PTR [esi+148], eax
  001d7	8a 87 98 00 00
	00		 mov	 al, BYTE PTR [edi+152]
  001dd	88 86 98 00 00
	00		 mov	 BYTE PTR [esi+152], al
  001e3	8a 87 99 00 00
	00		 mov	 al, BYTE PTR [edi+153]
  001e9	88 86 99 00 00
	00		 mov	 BYTE PTR [esi+153], al
  001ef	8a 87 9a 00 00
	00		 mov	 al, BYTE PTR [edi+154]
  001f5	88 86 9a 00 00
	00		 mov	 BYTE PTR [esi+154], al
  001fb	8b 87 9c 00 00
	00		 mov	 eax, DWORD PTR [edi+156]
  00201	89 86 9c 00 00
	00		 mov	 DWORD PTR [esi+156], eax
  00207	5f		 pop	 edi
  00208	8b c6		 mov	 eax, esi
  0020a	5e		 pop	 esi
  0020b	5d		 pop	 ebp
  0020c	c2 04 00	 ret	 4
??0SettingOption@@QAE@ABU0@@Z ENDP			; SettingOption::SettingOption
; Function compile flags: /Ogsp
_TEXT	ENDS
;	COMDAT ?CheckResolutionChange@GameOptionBasicWnd@@MAE_NABUSettingOption@@@Z
_TEXT	SEGMENT
_rkPreOption$ = 8					; size = 4
?CheckResolutionChange@GameOptionBasicWnd@@MAE_NABUSettingOption@@@Z PROC ; GameOptionBasicWnd::CheckResolutionChange, COMDAT
; _this$ = ecx

; 104  : 	return false;

  00000	32 c0		 xor	 al, al

; 105  : }

  00002	c2 04 00	 ret	 4
?CheckResolutionChange@GameOptionBasicWnd@@MAE_NABUSettingOption@@@Z ENDP ; GameOptionBasicWnd::CheckResolutionChange
_TEXT	ENDS
PUBLIC	??_R0?AVioCheckButton@@@8			; ioCheckButton `RTTI Type Descriptor'
PUBLIC	?SetButtonCheck@GameOptionBasicWnd@@IAEXK_N@Z	; GameOptionBasicWnd::SetButtonCheck
EXTRN	__imp_?SetCheck@ioCheckButton@@QAEX_N@Z:PROC
EXTRN	__imp_?FindChildWnd@ioWnd@@QAEPAV1@K@Z:PROC
EXTRN	___RTDynamicCast:PROC
;	COMDAT ??_R0?AVioCheckButton@@@8
_DATA	SEGMENT
??_R0?AVioCheckButton@@@8 DD FLAT:??_7type_info@@6B@	; ioCheckButton `RTTI Type Descriptor'
	DD	00H
	DB	'.?AVioCheckButton@@', 00H
; Function compile flags: /Ogsp
_DATA	ENDS
;	COMDAT ?SetButtonCheck@GameOptionBasicWnd@@IAEXK_N@Z
_TEXT	SEGMENT
_dwID$ = 8						; size = 4
_bCheck$ = 12						; size = 1
?SetButtonCheck@GameOptionBasicWnd@@IAEXK_N@Z PROC	; GameOptionBasicWnd::SetButtonCheck, COMDAT
; _this$ = ecx

; 120  : {

  00000	55		 push	 ebp
  00001	8b ec		 mov	 ebp, esp
  00003	56		 push	 esi

; 121  : 	ioWnd *pWnd = FindChildWnd( dwID );

  00004	ff 75 08	 push	 DWORD PTR _dwID$[ebp]
  00007	ff 15 00 00 00
	00		 call	 DWORD PTR __imp_?FindChildWnd@ioWnd@@QAEPAV1@K@Z
  0000d	8b f0		 mov	 esi, eax

; 122  : 	if( pWnd && pWnd->GetWndType() == IWT_CHECK_BOX )

  0000f	85 f6		 test	 esi, esi
  00011	74 31		 je	 SHORT $LN1@SetButtonC
  00013	8b 06		 mov	 eax, DWORD PTR [esi]
  00015	8b ce		 mov	 ecx, esi
  00017	ff 90 d0 00 00
	00		 call	 DWORD PTR [eax+208]
  0001d	83 f8 08	 cmp	 eax, 8
  00020	75 22		 jne	 SHORT $LN1@SetButtonC

; 123  : 	{
; 124  : 		ioCheckButton *pCheck = dynamic_cast< ioCheckButton* >( pWnd );

  00022	6a 00		 push	 0
  00024	68 00 00 00 00	 push	 OFFSET ??_R0?AVioCheckButton@@@8
  00029	68 00 00 00 00	 push	 OFFSET ??_R0?AVioWnd@@@8
  0002e	6a 00		 push	 0
  00030	56		 push	 esi
  00031	e8 00 00 00 00	 call	 ___RTDynamicCast
  00036	83 c4 14	 add	 esp, 20			; 00000014H

; 125  : 		pCheck->SetCheck( bCheck );

  00039	ff 75 0c	 push	 DWORD PTR _bCheck$[ebp]
  0003c	8b c8		 mov	 ecx, eax
  0003e	ff 15 00 00 00
	00		 call	 DWORD PTR __imp_?SetCheck@ioCheckButton@@QAEX_N@Z
$LN1@SetButtonC:
  00044	5e		 pop	 esi

; 126  : 	}	
; 127  : }

  00045	5d		 pop	 ebp
  00046	c2 08 00	 ret	 8
?SetButtonCheck@GameOptionBasicWnd@@IAEXK_N@Z ENDP	; GameOptionBasicWnd::SetButtonCheck
_TEXT	ENDS
PUBLIC	??_7GameOptionVolumeTab@@6B@			; GameOptionVolumeTab::`vftable'
PUBLIC	??1GameOptionVolumeTab@@UAE@XZ			; GameOptionVolumeTab::~GameOptionVolumeTab
PUBLIC	??_R4GameOptionVolumeTab@@6B@			; GameOptionVolumeTab::`RTTI Complete Object Locator'
PUBLIC	??_R0?AVGameOptionVolumeTab@@@8			; GameOptionVolumeTab `RTTI Type Descriptor'
PUBLIC	??_R3GameOptionVolumeTab@@8			; GameOptionVolumeTab::`RTTI Class Hierarchy Descriptor'
PUBLIC	??_R2GameOptionVolumeTab@@8			; GameOptionVolumeTab::`RTTI Base Class Array'
PUBLIC	??_R1A@?0A@EA@GameOptionVolumeTab@@8		; GameOptionVolumeTab::`RTTI Base Class Descriptor at (0,-1,0,64)'
PUBLIC	?AddRenderImage@GameOptionVolumeTab@@MAEXABVioHashString@@PAVioUIRenderImage@@@Z ; GameOptionVolumeTab::AddRenderImage
PUBLIC	?ParseExtraInfo@GameOptionVolumeTab@@UAEXAAVioXMLElement@@@Z ; GameOptionVolumeTab::ParseExtraInfo
PUBLIC	?OnRender@GameOptionVolumeTab@@MAEXXZ		; GameOptionVolumeTab::OnRender
PUBLIC	?iwm_create@GameOptionVolumeTab@@UAEXXZ		; GameOptionVolumeTab::iwm_create
PUBLIC	?iwm_command@GameOptionVolumeTab@@UAEXPAVioWnd@@HK@Z ; GameOptionVolumeTab::iwm_command
PUBLIC	?iwm_vscroll@GameOptionVolumeTab@@UAEXKH@Z	; GameOptionVolumeTab::iwm_vscroll
PUBLIC	?iwm_show@GameOptionVolumeTab@@UAEXXZ		; GameOptionVolumeTab::iwm_show
PUBLIC	?iwm_hide@GameOptionVolumeTab@@UAEXXZ		; GameOptionVolumeTab::iwm_hide
PUBLIC	?UpdateByCurrentOption@GameOptionVolumeTab@@MAEXXZ ; GameOptionVolumeTab::UpdateByCurrentOption
EXTRN	??_EGameOptionVolumeTab@@UAEPAXI@Z:PROC		; GameOptionVolumeTab::`vector deleting destructor'
;	COMDAT ??_R1A@?0A@EA@GameOptionVolumeTab@@8
rdata$r	SEGMENT
??_R1A@?0A@EA@GameOptionVolumeTab@@8 DD FLAT:??_R0?AVGameOptionVolumeTab@@@8 ; GameOptionVolumeTab::`RTTI Base Class Descriptor at (0,-1,0,64)'
	DD	02H
	DD	00H
	DD	0ffffffffH
	DD	00H
	DD	040H
	DD	FLAT:??_R3GameOptionVolumeTab@@8
rdata$r	ENDS
;	COMDAT ??_R2GameOptionVolumeTab@@8
rdata$r	SEGMENT
??_R2GameOptionVolumeTab@@8 DD FLAT:??_R1A@?0A@EA@GameOptionVolumeTab@@8 ; GameOptionVolumeTab::`RTTI Base Class Array'
	DD	FLAT:??_R1A@?0A@EA@GameOptionBasicWnd@@8
	DD	FLAT:??_R1A@?0A@EA@ioWnd@@8
rdata$r	ENDS
;	COMDAT ??_R3GameOptionVolumeTab@@8
rdata$r	SEGMENT
??_R3GameOptionVolumeTab@@8 DD 00H			; GameOptionVolumeTab::`RTTI Class Hierarchy Descriptor'
	DD	00H
	DD	03H
	DD	FLAT:??_R2GameOptionVolumeTab@@8
rdata$r	ENDS
;	COMDAT ??_R0?AVGameOptionVolumeTab@@@8
_DATA	SEGMENT
??_R0?AVGameOptionVolumeTab@@@8 DD FLAT:??_7type_info@@6B@ ; GameOptionVolumeTab `RTTI Type Descriptor'
	DD	00H
	DB	'.?AVGameOptionVolumeTab@@', 00H
_DATA	ENDS
;	COMDAT ??_R4GameOptionVolumeTab@@6B@
rdata$r	SEGMENT
??_R4GameOptionVolumeTab@@6B@ DD 00H			; GameOptionVolumeTab::`RTTI Complete Object Locator'
	DD	00H
	DD	00H
	DD	FLAT:??_R0?AVGameOptionVolumeTab@@@8
	DD	FLAT:??_R3GameOptionVolumeTab@@8
rdata$r	ENDS
;	COMDAT ??_7GameOptionVolumeTab@@6B@
CONST	SEGMENT
??_7GameOptionVolumeTab@@6B@ DD FLAT:??_R4GameOptionVolumeTab@@6B@ ; GameOptionVolumeTab::`vftable'
	DD	FLAT:?AddRenderFrame@ioWnd@@UAEXABVioHashString@@PAVioUIRenderFrame@@@Z
	DD	FLAT:?AddRenderImage@GameOptionVolumeTab@@MAEXABVioHashString@@PAVioUIRenderImage@@@Z
	DD	FLAT:?AddTooltipHelp@ioWnd@@UAEXABVioHashString@@00@Z
	DD	FLAT:?ParseExtraInfo@GameOptionVolumeTab@@UAEXAAVioXMLElement@@@Z
	DD	FLAT:?AddNamedRenderImage@ioWnd@@UAEXABVioHashString@@PAVioUIRenderImage@@@Z
	DD	FLAT:?RemoveNamedRenderImage@ioWnd@@UAEXABVioHashString@@@Z
	DD	FLAT:?GetNamedRenderImage@ioWnd@@UBEPAVioUIRenderImage@@ABVioHashString@@@Z
	DD	FLAT:?SetWindowAlpha@ioWnd@@UAEXH@Z
	DD	FLAT:?SetActive@ioWnd@@UAEXXZ
	DD	FLAT:?SetInActive@ioWnd@@UAEXXZ
	DD	FLAT:?ClearElementImageList@ioWnd@@UAEXXZ
	DD	FLAT:?SetSize@ioWnd@@UAEXHH@Z
	DD	FLAT:?SetPositionToDefault@ioWnd@@UAEXHH_N0@Z
	DD	FLAT:?IsNeedProcess@ioWnd@@UBE_NXZ
	DD	FLAT:?IsCanMouseReaction@ioWnd@@UBE_NXZ
	DD	FLAT:?AddChild@ioWnd@@UAEXPAV1@@Z
	DD	FLAT:?DeleteChild@ioWnd@@UAEXK@Z
	DD	FLAT:?DeleteAllChild@ioWnd@@UAEXXZ
	DD	FLAT:?OnRenderShowAndHide@ioWnd@@MAE_NXZ
	DD	FLAT:?OnRenderShowAndHideByDefault@ioWnd@@MAE_NK@Z
	DD	FLAT:?OnRenderShowAndHideByTop@ioWnd@@MAE_NK@Z
	DD	FLAT:?OnRenderShowAndHideByDown@ioWnd@@MAE_NK@Z
	DD	FLAT:?OnRender@GameOptionVolumeTab@@MAEXXZ
	DD	FLAT:?OnRenderAfterChild@ioWnd@@MAEXXZ
	DD	FLAT:?OnProcess@ioWnd@@MAEXM@Z
	DD	FLAT:?OnMouseProcess@ioWnd@@MAEXABVioMouse@@@Z
	DD	FLAT:?CheckFrameReSize@ioWnd@@MAEXHHHH@Z
	DD	FLAT:?RenderImageList@ioWnd@@MAEXHHW4UIRenderType@@@Z
	DD	FLAT:?iwm_create@GameOptionVolumeTab@@UAEXXZ
	DD	FLAT:?iwm_destroy@ioWnd@@UAEXXZ
	DD	FLAT:?iwm_lbuttondown@ioWnd@@UAEXABVioMouse@@@Z
	DD	FLAT:?iwm_lbuttonup@ioWnd@@UAEXABVioMouse@@@Z
	DD	FLAT:?iwm_lbuttonDBLCLK@ioWnd@@UAEXABVioMouse@@@Z
	DD	FLAT:?iwm_rbuttondown@ioWnd@@UAEXABVioMouse@@@Z
	DD	FLAT:?iwm_rbuttonup@ioWnd@@UAEXABVioMouse@@@Z
	DD	FLAT:?iwm_command@GameOptionVolumeTab@@UAEXPAVioWnd@@HK@Z
	DD	FLAT:?iwm_mouseover@ioWnd@@UAEXABVioMouse@@@Z
	DD	FLAT:?iwm_mousemove@ioWnd@@UAEXABVioMouse@@@Z
	DD	FLAT:?iwm_mouseleave@ioWnd@@UAEXABVioMouse@@@Z
	DD	FLAT:?iwm_vscroll@GameOptionVolumeTab@@UAEXKH@Z
	DD	FLAT:?iwm_wheel@ioWnd@@UAEXH@Z
	DD	FLAT:?iwm_show@GameOptionVolumeTab@@UAEXXZ
	DD	FLAT:?iwm_hide@GameOptionVolumeTab@@UAEXXZ
	DD	FLAT:?iwm_esc@ioWnd@@UAE_NXZ
	DD	FLAT:?iwm_spacebar@ioWnd@@UAE_NXZ
	DD	FLAT:?iwm_gototop@ioWnd@@UAEXXZ
	DD	FLAT:?iwm_dragenter@ioWnd@@UAE?AW4IWDropEffect@@PAVioDragItem@@ABVioMouse@@@Z
	DD	FLAT:?iwm_dragover@ioWnd@@UAE?AW4IWDropEffect@@PAVioDragItem@@ABVioMouse@@@Z
	DD	FLAT:?iwm_dragleave@ioWnd@@UAEXXZ
	DD	FLAT:?iwm_dropitem@ioWnd@@UAE_NPAVioDragItem@@ABVioMouse@@PAV1@@Z
	DD	FLAT:?iwm_dropdone@ioWnd@@UAEXPAVioDragItem@@PAV1@_N@Z
	DD	FLAT:?IsEXType@ioWnd@@UBE_NXZ
	DD	FLAT:?GetWndType@ioWnd@@UBEKXZ
	DD	FLAT:?RenderWnd@ioWnd@@UAEXXZ
	DD	FLAT:?SetIDEX@ioWnd@@UAEXAAK_N@Z
	DD	FLAT:?ParseXML@ioWnd@@UAEXAAVioXMLElement@@@Z
	DD	FLAT:?GetHeaderFileName@ioWnd@@UAEPBDXZ
	DD	FLAT:?GetTemplateName@ioWnd@@UAEPBDXZ
	DD	FLAT:?GetDefClassName@ioWnd@@UBEPBDXZ
	DD	FLAT:?_Clone@ioWnd@@UAEPAV1@XZ
	DD	FLAT:?Copy@ioWnd@@UAEXPAV1@@Z
	DD	FLAT:?Save@ioWnd@@UAE_NAAVioXMLElement@@@Z
	DD	FLAT:?SetSaveData@ioWnd@@UAEXAAVioXMLElement@@@Z
	DD	FLAT:?SetPosX@ioWnd@@UAEXH@Z
	DD	FLAT:?SetPosY@ioWnd@@UAEXH@Z
	DD	FLAT:?SetWidth@ioWnd@@UAEXH@Z
	DD	FLAT:?SetHeight@ioWnd@@UAEXH@Z
	DD	FLAT:?GetNumFixedRenderFrame@ioWnd@@UBEHXZ
	DD	FLAT:?GetFixedRenderFrameType@ioWnd@@UAEPBDH@Z
	DD	FLAT:?GetRenderFrame@ioWnd@@UAEPAPAVioUIRenderElement@@PBD@Z
	DD	FLAT:?GetNumFixedRenderImage@ioWnd@@UBEHXZ
	DD	FLAT:?GetFixedRenderImageType@ioWnd@@UAEPBDH@Z
	DD	FLAT:?GetRenderImage@ioWnd@@UAEPAPAVioUIRenderElement@@PBD@Z
	DD	FLAT:?AddEffect@ioWnd@@UAEXABVioHashString@@PAVioUI3DEffectRender@@@Z
	DD	FLAT:?GetEffect@ioWnd@@UAEPAVioUI3DEffectRender@@VioHashString@@@Z
	DD	FLAT:??_EGameOptionVolumeTab@@UAEPAXI@Z
	DD	FLAT:?UpdateByCurrentOption@GameOptionVolumeTab@@MAEXXZ
	DD	FLAT:?CheckResolutionChange@GameOptionBasicWnd@@MAE_NABUSettingOption@@@Z
CONST	ENDS
;	COMDAT xdata$x
xdata$x	SEGMENT
__unwindtable$??1GameOptionVolumeTab@@UAE@XZ DD 0ffffffffH
	DD	FLAT:__unwindfunclet$??1GameOptionVolumeTab@@UAE@XZ$0
__ehfuncinfo$??1GameOptionVolumeTab@@UAE@XZ DD 019930522H
	DD	01H
	DD	FLAT:__unwindtable$??1GameOptionVolumeTab@@UAE@XZ
	DD	2 DUP(00H)
	DD	2 DUP(00H)
	DD	00H
	DD	01H
; Function compile flags: /Ogsp
xdata$x	ENDS
;	COMDAT ??1GameOptionVolumeTab@@UAE@XZ
_TEXT	SEGMENT
_this$ = -16						; size = 4
__$EHRec$ = -12						; size = 12
??1GameOptionVolumeTab@@UAE@XZ PROC			; GameOptionVolumeTab::~GameOptionVolumeTab, COMDAT
; _this$ = ecx

; 148  : {

  00000	6a 04		 push	 4
  00002	b8 00 00 00 00	 mov	 eax, __ehhandler$??1GameOptionVolumeTab@@UAE@XZ
  00007	e8 00 00 00 00	 call	 __EH_prolog3
  0000c	8b f1		 mov	 esi, ecx
  0000e	89 75 f0	 mov	 DWORD PTR _this$[ebp], esi
  00011	c7 06 00 00 00
	00		 mov	 DWORD PTR [esi], OFFSET ??_7GameOptionVolumeTab@@6B@

; 149  : 	SAFEDELETE( m_pIconBack );

  00017	8b 8e 04 02 00
	00		 mov	 ecx, DWORD PTR [esi+516]
  0001d	83 65 fc 00	 and	 DWORD PTR __$EHRec$[ebp+8], 0
  00021	85 c9		 test	 ecx, ecx
  00023	74 0e		 je	 SHORT $LN3@GameOption
  00025	8b 01		 mov	 eax, DWORD PTR [ecx]
  00027	6a 01		 push	 1
  00029	ff 50 40	 call	 DWORD PTR [eax+64]
  0002c	83 a6 04 02 00
	00 00		 and	 DWORD PTR [esi+516], 0
$LN3@GameOption:

; 150  : 	SAFEDELETE( m_pIconVolume );

  00033	8b 8e 08 02 00
	00		 mov	 ecx, DWORD PTR [esi+520]
  00039	85 c9		 test	 ecx, ecx
  0003b	74 0e		 je	 SHORT $LN2@GameOption
  0003d	8b 01		 mov	 eax, DWORD PTR [ecx]
  0003f	6a 01		 push	 1
  00041	ff 50 40	 call	 DWORD PTR [eax+64]
  00044	83 a6 08 02 00
	00 00		 and	 DWORD PTR [esi+520], 0
$LN2@GameOption:

; 151  : 	SAFEDELETE( m_pIconMic );

  0004b	8b 8e 0c 02 00
	00		 mov	 ecx, DWORD PTR [esi+524]
  00051	85 c9		 test	 ecx, ecx
  00053	74 0e		 je	 SHORT $LN1@GameOption
  00055	8b 01		 mov	 eax, DWORD PTR [ecx]
  00057	6a 01		 push	 1
  00059	ff 50 40	 call	 DWORD PTR [eax+64]
  0005c	83 a6 0c 02 00
	00 00		 and	 DWORD PTR [esi+524], 0
$LN1@GameOption:

; 152  : }

  00063	83 4d fc ff	 or	 DWORD PTR __$EHRec$[ebp+8], -1
  00067	8b ce		 mov	 ecx, esi
  00069	e8 00 00 00 00	 call	 ??1GameOptionBasicWnd@@UAE@XZ ; GameOptionBasicWnd::~GameOptionBasicWnd
  0006e	e8 00 00 00 00	 call	 __EH_epilog3
  00073	c3		 ret	 0
_TEXT	ENDS
;	COMDAT text$x
text$x	SEGMENT
__unwindfunclet$??1GameOptionVolumeTab@@UAE@XZ$0:
  00000	8b 4d f0	 mov	 ecx, DWORD PTR _this$[ebp]
  00003	e9 00 00 00 00	 jmp	 ??1GameOptionBasicWnd@@UAE@XZ ; GameOptionBasicWnd::~GameOptionBasicWnd
__ehhandler$??1GameOptionVolumeTab@@UAE@XZ:
  00008	8b 54 24 08	 mov	 edx, DWORD PTR [esp+8]
  0000c	8d 42 0c	 lea	 eax, DWORD PTR [edx+12]
  0000f	8b 4a ec	 mov	 ecx, DWORD PTR [edx-20]
  00012	33 c8		 xor	 ecx, eax
  00014	e8 00 00 00 00	 call	 @__security_check_cookie@4
  00019	b8 00 00 00 00	 mov	 eax, OFFSET __ehfuncinfo$??1GameOptionVolumeTab@@UAE@XZ
  0001e	e9 00 00 00 00	 jmp	 ___CxxFrameHandler3
text$x	ENDS
??1GameOptionVolumeTab@@UAE@XZ ENDP			; GameOptionVolumeTab::~GameOptionVolumeTab
EXTRN	__imp_?SetChildActive@ioWnd@@QAEXK@Z:PROC
EXTRN	__imp_?SetChildInActive@ioWnd@@QAEXK@Z:PROC
; Function compile flags: /Ogsp
;	COMDAT ?UpdateByCurrentOption@GameOptionVolumeTab@@MAEXXZ
_TEXT	SEGMENT
?UpdateByCurrentOption@GameOptionVolumeTab@@MAEXXZ PROC	; GameOptionVolumeTab::UpdateByCurrentOption, COMDAT
; _this$ = ecx

; 398  : {

  00000	53		 push	 ebx
  00001	56		 push	 esi
  00002	8b f1		 mov	 esi, ecx

; 399  : 	SetButtonCheck( ID_BGM_BUTTON, m_CurrentOption.m_bUseBGM );

  00004	0f b6 86 a4 01
	00 00		 movzx	 eax, BYTE PTR [esi+420]
  0000b	57		 push	 edi
  0000c	50		 push	 eax
  0000d	6a 05		 push	 5
  0000f	e8 00 00 00 00	 call	 ?SetButtonCheck@GameOptionBasicWnd@@IAEXK_N@Z ; GameOptionBasicWnd::SetButtonCheck

; 400  : 	SetButtonCheck( ID_EFFECT_BUTTON, m_CurrentOption.m_bUseEffectSound );

  00014	0f b6 86 a5 01
	00 00		 movzx	 eax, BYTE PTR [esi+421]
  0001b	50		 push	 eax
  0001c	6a 06		 push	 6
  0001e	8b ce		 mov	 ecx, esi
  00020	e8 00 00 00 00	 call	 ?SetButtonCheck@GameOptionBasicWnd@@IAEXK_N@Z ; GameOptionBasicWnd::SetButtonCheck

; 401  : 	SetButtonCheck( ID_OTHER_VOICE_BUTTON, m_CurrentOption.m_bUseOtherVoiceChat );

  00025	0f b6 86 a6 01
	00 00		 movzx	 eax, BYTE PTR [esi+422]
  0002c	50		 push	 eax
  0002d	6a 07		 push	 7
  0002f	8b ce		 mov	 ecx, esi
  00031	e8 00 00 00 00	 call	 ?SetButtonCheck@GameOptionBasicWnd@@IAEXK_N@Z ; GameOptionBasicWnd::SetButtonCheck

; 402  : 	SetButtonCheck( ID_MIC_BUTTON, m_CurrentOption.m_bUseMIC );

  00036	0f b6 86 a7 01
	00 00		 movzx	 eax, BYTE PTR [esi+423]
  0003d	50		 push	 eax
  0003e	6a 08		 push	 8
  00040	8b ce		 mov	 ecx, esi
  00042	e8 00 00 00 00	 call	 ?SetButtonCheck@GameOptionBasicWnd@@IAEXK_N@Z ; GameOptionBasicWnd::SetButtonCheck

; 403  : 	SetButtonCheck( ID_VOICE_CHAT, m_CurrentOption.m_bUseVoiceChat );

  00047	0f b6 86 a8 01
	00 00		 movzx	 eax, BYTE PTR [esi+424]
  0004e	50		 push	 eax
  0004f	6a 0c		 push	 12			; 0000000cH
  00051	8b ce		 mov	 ecx, esi
  00053	e8 00 00 00 00	 call	 ?SetButtonCheck@GameOptionBasicWnd@@IAEXK_N@Z ; GameOptionBasicWnd::SetButtonCheck

; 404  : 	SetButtonCheck( ID_CUSTOM_BUTTON, m_CurrentOption.m_bUseCustomSound );

  00058	0f b6 86 a9 01
	00 00		 movzx	 eax, BYTE PTR [esi+425]
  0005f	50		 push	 eax
  00060	6a 0e		 push	 14			; 0000000eH
  00062	8b ce		 mov	 ecx, esi
  00064	e8 00 00 00 00	 call	 ?SetButtonCheck@GameOptionBasicWnd@@IAEXK_N@Z ; GameOptionBasicWnd::SetButtonCheck

; 405  : 	SetButtonCheck( ID_PLAY_KILL_SOUND_BUTTON, m_CurrentOption.m_bPlayKillSound );

  00069	0f b6 86 c9 01
	00 00		 movzx	 eax, BYTE PTR [esi+457]
  00070	50		 push	 eax
  00071	6a 0f		 push	 15			; 0000000fH
  00073	8b ce		 mov	 ecx, esi
  00075	e8 00 00 00 00	 call	 ?SetButtonCheck@GameOptionBasicWnd@@IAEXK_N@Z ; GameOptionBasicWnd::SetButtonCheck

; 406  : 	SetButtonCheck( ID_PLAY_COMBO_SOUND_BUTTON, m_CurrentOption.m_bPlayComboSound );

  0007a	0f b6 86 ca 01
	00 00		 movzx	 eax, BYTE PTR [esi+458]
  00081	50		 push	 eax
  00082	6a 10		 push	 16			; 00000010H
  00084	8b ce		 mov	 ecx, esi
  00086	e8 00 00 00 00	 call	 ?SetButtonCheck@GameOptionBasicWnd@@IAEXK_N@Z ; GameOptionBasicWnd::SetButtonCheck

; 407  : 	SetButtonCheck( ID_PLAY_EXTEND_SOUND_BUTTON, m_CurrentOption.m_bPlayExtendSound );

  0008b	0f b6 86 cc 01
	00 00		 movzx	 eax, BYTE PTR [esi+460]
  00092	50		 push	 eax
  00093	6a 11		 push	 17			; 00000011H
  00095	8b ce		 mov	 ecx, esi
  00097	e8 00 00 00 00	 call	 ?SetButtonCheck@GameOptionBasicWnd@@IAEXK_N@Z ; GameOptionBasicWnd::SetButtonCheck

; 408  : 
; 409  : 	if( m_CurrentOption.m_bUseBGM )

  0009c	80 be a4 01 00
	00 00		 cmp	 BYTE PTR [esi+420], 0
  000a3	8b 3d 00 00 00
	00		 mov	 edi, DWORD PTR __imp_?SetChildInActive@ioWnd@@QAEXK@Z
  000a9	8b 1d 00 00 00
	00		 mov	 ebx, DWORD PTR __imp_?SetChildActive@ioWnd@@QAEXK@Z

; 410  : 		SetChildActive(ID_HORZ_SCROLL_BGM);

  000af	6a 01		 push	 1
  000b1	8b ce		 mov	 ecx, esi
  000b3	74 04		 je	 SHORT $LN12@UpdateByCu
  000b5	ff d3		 call	 ebx

; 411  : 	else

  000b7	eb 02		 jmp	 SHORT $LN11@UpdateByCu
$LN12@UpdateByCu:

; 412  : 		SetChildInActive(ID_HORZ_SCROLL_BGM);

  000b9	ff d7		 call	 edi
$LN11@UpdateByCu:

; 413  : 
; 414  : 	if( m_CurrentOption.m_bUseEffectSound )

  000bb	80 be a5 01 00
	00 00		 cmp	 BYTE PTR [esi+421], 0

; 415  : 		SetChildActive(ID_HORZ_SCROLL_EFFECT);

  000c2	6a 02		 push	 2
  000c4	8b ce		 mov	 ecx, esi
  000c6	74 04		 je	 SHORT $LN10@UpdateByCu
  000c8	ff d3		 call	 ebx

; 416  : 	else

  000ca	eb 02		 jmp	 SHORT $LN9@UpdateByCu
$LN10@UpdateByCu:

; 417  : 		SetChildInActive(ID_HORZ_SCROLL_EFFECT);

  000cc	ff d7		 call	 edi
$LN9@UpdateByCu:

; 418  : 
; 419  : 	if( m_CurrentOption.m_bUseOtherVoiceChat )

  000ce	80 be a6 01 00
	00 00		 cmp	 BYTE PTR [esi+422], 0

; 420  : 		SetChildActive(ID_HORZ_SCROLL_VOICE);

  000d5	6a 03		 push	 3
  000d7	8b ce		 mov	 ecx, esi
  000d9	74 04		 je	 SHORT $LN8@UpdateByCu
  000db	ff d3		 call	 ebx

; 421  : 	else

  000dd	eb 02		 jmp	 SHORT $LN7@UpdateByCu
$LN8@UpdateByCu:

; 422  : 		SetChildInActive(ID_HORZ_SCROLL_VOICE);

  000df	ff d7		 call	 edi
$LN7@UpdateByCu:

; 423  : 
; 424  : 	if( m_CurrentOption.m_bUseVoiceChat )

  000e1	80 be a8 01 00
	00 00		 cmp	 BYTE PTR [esi+424], 0

; 425  : 	{
; 426  : 		SetChildActive( ID_MIC_BUTTON );

  000e8	8b ce		 mov	 ecx, esi
  000ea	74 15		 je	 SHORT $LN6@UpdateByCu
  000ec	6a 08		 push	 8
  000ee	ff d3		 call	 ebx

; 427  : 
; 428  : 		if( m_CurrentOption.m_bUseMIC )

  000f0	80 be a7 01 00
	00 00		 cmp	 BYTE PTR [esi+423], 0

; 429  : 			SetChildActive(ID_HORZ_SCROLL_MIC);

  000f7	6a 04		 push	 4
  000f9	8b ce		 mov	 ecx, esi
  000fb	74 17		 je	 SHORT $LN5@UpdateByCu
  000fd	ff d3		 call	 ebx

; 430  : 		else

  000ff	eb 15		 jmp	 SHORT $LN3@UpdateByCu
$LN6@UpdateByCu:

; 431  : 			SetChildInActive(ID_HORZ_SCROLL_MIC);
; 432  : 	}
; 433  : 	else
; 434  : 	{
; 435  : 		SetButtonCheck( ID_MIC_BUTTON, false );

  00101	6a 00		 push	 0
  00103	6a 08		 push	 8
  00105	e8 00 00 00 00	 call	 ?SetButtonCheck@GameOptionBasicWnd@@IAEXK_N@Z ; GameOptionBasicWnd::SetButtonCheck

; 436  : 		SetChildInActive( ID_MIC_BUTTON );

  0010a	6a 08		 push	 8
  0010c	8b ce		 mov	 ecx, esi
  0010e	ff d7		 call	 edi

; 437  : 		SetChildInActive(ID_HORZ_SCROLL_MIC);

  00110	6a 04		 push	 4
  00112	8b ce		 mov	 ecx, esi
$LN5@UpdateByCu:
  00114	ff d7		 call	 edi
$LN3@UpdateByCu:

; 438  : 	}
; 439  : 
; 440  : 	if( m_CurrentOption.m_bUseCustomSound )

  00116	80 be a9 01 00
	00 00		 cmp	 BYTE PTR [esi+425], 0

; 441  : 		SetChildActive( ID_HORZ_SCROLL_CUSTOM );

  0011d	6a 0d		 push	 13			; 0000000dH
  0011f	8b ce		 mov	 ecx, esi
  00121	74 04		 je	 SHORT $LN2@UpdateByCu
  00123	ff d3		 call	 ebx

; 442  : 	else

  00125	eb 02		 jmp	 SHORT $LN1@UpdateByCu
$LN2@UpdateByCu:

; 443  : 		SetChildInActive( ID_HORZ_SCROLL_CUSTOM );

  00127	ff d7		 call	 edi
$LN1@UpdateByCu:
  00129	5f		 pop	 edi
  0012a	5e		 pop	 esi
  0012b	5b		 pop	 ebx

; 444  : }

  0012c	c3		 ret	 0
?UpdateByCurrentOption@GameOptionVolumeTab@@MAEXXZ ENDP	; GameOptionVolumeTab::UpdateByCurrentOption
; Function compile flags: /Ogsp
_TEXT	ENDS
;	COMDAT ?ParseExtraInfo@GameOptionVolumeTab@@UAEXAAVioXMLElement@@@Z
_TEXT	SEGMENT
_xElement$ = 8						; size = 4
?ParseExtraInfo@GameOptionVolumeTab@@UAEXAAVioXMLElement@@@Z PROC ; GameOptionVolumeTab::ParseExtraInfo, COMDAT
; _this$ = ecx

; 494  : }

  00000	c2 04 00	 ret	 4
?ParseExtraInfo@GameOptionVolumeTab@@UAEXAAVioXMLElement@@@Z ENDP ; GameOptionVolumeTab::ParseExtraInfo
_TEXT	ENDS
PUBLIC	__real@3e99999a
PUBLIC	__real@3f333333
PUBLIC	??_C@_0BO@JBIOJAMK@GameOptionVolumeTab?3?3OnRender?$AA@ ; `string'
PUBLIC	??_C@_00CNPNBAHC@?$AA@				; `string'
EXTRN	__imp_?PrintText@ioFontManager@@QAAXMMMPBDZZ:PROC
EXTRN	__imp_?GetString@ioStringManager@@QAEPADPBD0HW4FileNamePrefix@1@@Z:PROC
EXTRN	__imp_?GetSingleton@ioStringManager@@SAAAV1@XZ:PROC
EXTRN	__imp_?SetTextColor@ioFontManager@@QAEXK@Z:PROC
EXTRN	__imp_?SetBkColor@ioFontManager@@QAEXHHH@Z:PROC
EXTRN	__imp_?SetTextStyle@ioFontManager@@QAEXW4TextStyle@@@Z:PROC
EXTRN	__imp_?SetAlignType@ioFontManager@@QAEXW4TextAlignType@@@Z:PROC
EXTRN	__imp_?GetSingleton@ioFontManager@@SAAAV1@XZ:PROC
EXTRN	__imp_?GetDerivedPosY@ioWnd@@QBEHXZ:PROC
EXTRN	__imp_?GetDerivedPosX@ioWnd@@QBEHXZ:PROC
EXTRN	__imp_?OnRender@ioWnd@@MAEXXZ:PROC
EXTRN	__fltused:DWORD
;	COMDAT __real@3e99999a
CONST	SEGMENT
__real@3e99999a DD 03e99999ar			; 0.3
CONST	ENDS
;	COMDAT __real@3f333333
CONST	SEGMENT
__real@3f333333 DD 03f333333r			; 0.7
CONST	ENDS
;	COMDAT ??_C@_0BO@JBIOJAMK@GameOptionVolumeTab?3?3OnRender?$AA@
CONST	SEGMENT
??_C@_0BO@JBIOJAMK@GameOptionVolumeTab?3?3OnRender?$AA@ DB 'GameOptionVol'
	DB	'umeTab::OnRender', 00H			; `string'
CONST	ENDS
;	COMDAT ??_C@_00CNPNBAHC@?$AA@
CONST	SEGMENT
??_C@_00CNPNBAHC@?$AA@ DB 00H				; `string'
; Function compile flags: /Ogsp
CONST	ENDS
;	COMDAT ?OnRender@GameOptionVolumeTab@@MAEXXZ
_TEXT	SEGMENT
tv434 = -24						; size = 4
tv406 = -24						; size = 4
tv385 = -20						; size = 4
_iXPos$ = -16						; size = 4
tv387 = -12						; size = 4
_this$ = -8						; size = 4
_iYPos$ = -4						; size = 4
?OnRender@GameOptionVolumeTab@@MAEXXZ PROC		; GameOptionVolumeTab::OnRender, COMDAT
; _this$ = ecx

; 497  : {

  00000	55		 push	 ebp
  00001	8b ec		 mov	 ebp, esp
  00003	83 ec 18	 sub	 esp, 24			; 00000018H
  00006	53		 push	 ebx
  00007	56		 push	 esi
  00008	8b f1		 mov	 esi, ecx
  0000a	57		 push	 edi
  0000b	89 75 f8	 mov	 DWORD PTR _this$[ebp], esi

; 498  : 	GameOptionBasicWnd::OnRender();

  0000e	ff 15 00 00 00
	00		 call	 DWORD PTR __imp_?OnRender@ioWnd@@MAEXXZ

; 499  : 	
; 500  : 	int iXPos = GetDerivedPosX();

  00014	8b ce		 mov	 ecx, esi
  00016	ff 15 00 00 00
	00		 call	 DWORD PTR __imp_?GetDerivedPosX@ioWnd@@QBEHXZ
  0001c	8b d8		 mov	 ebx, eax

; 501  : 	int iYPos = GetDerivedPosY();

  0001e	8b ce		 mov	 ecx, esi
  00020	89 5d f0	 mov	 DWORD PTR _iXPos$[ebp], ebx
  00023	ff 15 00 00 00
	00		 call	 DWORD PTR __imp_?GetDerivedPosY@ioWnd@@QBEHXZ

; 502  : 
; 503  : 	g_FontMgr.SetAlignType( TAT_LEFT );

  00029	8b 35 00 00 00
	00		 mov	 esi, DWORD PTR __imp_?GetSingleton@ioFontManager@@SAAAV1@XZ
  0002f	33 ff		 xor	 edi, edi
  00031	57		 push	 edi
  00032	89 45 fc	 mov	 DWORD PTR _iYPos$[ebp], eax
  00035	ff d6		 call	 esi
  00037	8b c8		 mov	 ecx, eax
  00039	ff 15 00 00 00
	00		 call	 DWORD PTR __imp_?SetAlignType@ioFontManager@@QAEXW4TextAlignType@@@Z

; 504  : 	g_FontMgr.SetTextStyle( TS_NORMAL );

  0003f	57		 push	 edi
  00040	ff d6		 call	 esi
  00042	8b c8		 mov	 ecx, eax
  00044	ff 15 00 00 00
	00		 call	 DWORD PTR __imp_?SetTextStyle@ioFontManager@@QAEXW4TextStyle@@@Z

; 505  : 	g_FontMgr.SetBkColor( 0, 0, 0 );

  0004a	57		 push	 edi
  0004b	57		 push	 edi
  0004c	57		 push	 edi
  0004d	ff d6		 call	 esi
  0004f	8b c8		 mov	 ecx, eax
  00051	ff 15 00 00 00
	00		 call	 DWORD PTR __imp_?SetBkColor@ioFontManager@@QAEXHHH@Z

; 506  : 	g_FontMgr.SetTextColor( TCT_DEFAULT_DARKGRAY );

  00057	68 3a 3a 3a ff	 push	 -12961222		; ff3a3a3aH
  0005c	ff d6		 call	 esi
  0005e	8b c8		 mov	 ecx, eax
  00060	ff 15 00 00 00
	00		 call	 DWORD PTR __imp_?SetTextColor@ioFontManager@@QAEXK@Z

; 507  : 	g_FontMgr.PrintText( iXPos + 44, iYPos + 19, FONT_SIZE_14, STR(1) );

  00066	8b 45 fc	 mov	 eax, DWORD PTR _iYPos$[ebp]
  00069	0f 57 c0	 xorps	 xmm0, xmm0
  0006c	57		 push	 edi
  0006d	83 c0 13	 add	 eax, 19			; 00000013H
  00070	f3 0f 2a c0	 cvtsi2ss xmm0, eax
  00074	f3 0f 11 45 ec	 movss	 DWORD PTR tv385[ebp], xmm0
  00079	6a 01		 push	 1
  0007b	83 c3 2c	 add	 ebx, 44			; 0000002cH
  0007e	0f 57 c0	 xorps	 xmm0, xmm0
  00081	f3 0f 2a c3	 cvtsi2ss xmm0, ebx
  00085	8b 1d 00 00 00
	00		 mov	 ebx, DWORD PTR __imp_?GetSingleton@ioStringManager@@SAAAV1@XZ
  0008b	68 00 00 00 00	 push	 OFFSET ??_C@_00CNPNBAHC@?$AA@
  00090	68 00 00 00 00	 push	 OFFSET ??_C@_0BO@JBIOJAMK@GameOptionVolumeTab?3?3OnRender?$AA@
  00095	f3 0f 11 45 f4	 movss	 DWORD PTR tv387[ebp], xmm0
  0009a	ff d3		 call	 ebx
  0009c	8b c8		 mov	 ecx, eax
  0009e	ff 15 00 00 00
	00		 call	 DWORD PTR __imp_?GetString@ioStringManager@@QAEPADPBD0HW4FileNamePrefix@1@@Z
  000a4	f3 0f 10 05 00
	00 00 00	 movss	 xmm0, DWORD PTR __real@3f333333
  000ac	50		 push	 eax
  000ad	83 ec 0c	 sub	 esp, 12			; 0000000cH
  000b0	f3 0f 11 44 24
	08		 movss	 DWORD PTR [esp+8], xmm0
  000b6	f3 0f 10 45 ec	 movss	 xmm0, DWORD PTR tv385[ebp]
  000bb	f3 0f 11 44 24
	04		 movss	 DWORD PTR [esp+4], xmm0
  000c1	f3 0f 10 45 f4	 movss	 xmm0, DWORD PTR tv387[ebp]
  000c6	f3 0f 11 04 24	 movss	 DWORD PTR [esp], xmm0
  000cb	ff d6		 call	 esi
  000cd	50		 push	 eax
  000ce	ff 15 00 00 00
	00		 call	 DWORD PTR __imp_?PrintText@ioFontManager@@QAAXMMMPBDZZ

; 508  : 
; 509  : 	if( m_pIconBack )

  000d4	8b 45 f8	 mov	 eax, DWORD PTR _this$[ebp]
  000d7	83 c4 14	 add	 esp, 20			; 00000014H
  000da	39 b8 04 02 00
	00		 cmp	 DWORD PTR [eax+516], edi
  000e0	0f 84 90 00 00
	00		 je	 $LN3@OnRender

; 510  : 	{
; 511  : 		m_pIconBack->SetScale( 0.30f );

  000e6	8b 88 04 02 00
	00		 mov	 ecx, DWORD PTR [eax+516]
  000ec	f3 0f 10 05 00
	00 00 00	 movss	 xmm0, DWORD PTR __real@3e99999a
  000f4	8b 01		 mov	 eax, DWORD PTR [ecx]
  000f6	51		 push	 ecx
  000f7	f3 0f 11 04 24	 movss	 DWORD PTR [esp], xmm0
  000fc	ff 50 1c	 call	 DWORD PTR [eax+28]

; 512  : 		m_pIconBack->Render( iXPos + 30, iYPos + 27, UI_RENDER_MULTIPLY, TFO_BILINEAR );

  000ff	8b 45 f8	 mov	 eax, DWORD PTR _this$[ebp]
  00102	8b 88 04 02 00
	00		 mov	 ecx, DWORD PTR [eax+516]
  00108	8b 45 f0	 mov	 eax, DWORD PTR _iXPos$[ebp]
  0010b	8b 55 fc	 mov	 edx, DWORD PTR _iYPos$[ebp]
  0010e	57		 push	 edi
  0010f	57		 push	 edi
  00110	6a 01		 push	 1
  00112	6a 08		 push	 8
  00114	83 c0 1e	 add	 eax, 30			; 0000001eH
  00117	51		 push	 ecx
  00118	83 c2 1b	 add	 edx, 27			; 0000001bH
  0011b	51		 push	 ecx
  0011c	0f 57 c0	 xorps	 xmm0, xmm0
  0011f	f3 0f 2a c0	 cvtsi2ss xmm0, eax
  00123	8b 01		 mov	 eax, DWORD PTR [ecx]
  00125	0f 57 c9	 xorps	 xmm1, xmm1
  00128	f3 0f 2a ca	 cvtsi2ss xmm1, edx
  0012c	f3 0f 11 4c 24
	04		 movss	 DWORD PTR [esp+4], xmm1
  00132	f3 0f 11 45 e8	 movss	 DWORD PTR tv406[ebp], xmm0
  00137	f3 0f 11 04 24	 movss	 DWORD PTR [esp], xmm0
  0013c	ff 10		 call	 DWORD PTR [eax]

; 513  : 		m_pIconBack->Render( iXPos + 30, iYPos + 219, UI_RENDER_MULTIPLY, TFO_BILINEAR );

  0013e	8b 45 f8	 mov	 eax, DWORD PTR _this$[ebp]
  00141	8b 88 04 02 00
	00		 mov	 ecx, DWORD PTR [eax+516]
  00147	8b 55 fc	 mov	 edx, DWORD PTR _iYPos$[ebp]
  0014a	8b 01		 mov	 eax, DWORD PTR [ecx]
  0014c	57		 push	 edi
  0014d	57		 push	 edi
  0014e	6a 01		 push	 1
  00150	6a 08		 push	 8
  00152	51		 push	 ecx
  00153	81 c2 db 00 00
	00		 add	 edx, 219		; 000000dbH
  00159	0f 57 c0	 xorps	 xmm0, xmm0
  0015c	51		 push	 ecx
  0015d	f3 0f 2a c2	 cvtsi2ss xmm0, edx
  00161	f3 0f 11 44 24
	04		 movss	 DWORD PTR [esp+4], xmm0
  00167	f3 0f 10 45 e8	 movss	 xmm0, DWORD PTR tv406[ebp]
  0016c	f3 0f 11 04 24	 movss	 DWORD PTR [esp], xmm0
  00171	ff 10		 call	 DWORD PTR [eax]
  00173	8b 45 f8	 mov	 eax, DWORD PTR _this$[ebp]
$LN3@OnRender:

; 514  : 	}
; 515  : 	if( m_pIconVolume )

  00176	39 b8 08 02 00
	00		 cmp	 DWORD PTR [eax+520], edi
  0017c	74 57		 je	 SHORT $LN2@OnRender

; 516  : 	{
; 517  : 		m_pIconVolume->SetScale( 0.30f );

  0017e	8b 80 08 02 00
	00		 mov	 eax, DWORD PTR [eax+520]
  00184	f3 0f 10 05 00
	00 00 00	 movss	 xmm0, DWORD PTR __real@3e99999a
  0018c	8b 10		 mov	 edx, DWORD PTR [eax]
  0018e	51		 push	 ecx
  0018f	8b c8		 mov	 ecx, eax
  00191	f3 0f 11 04 24	 movss	 DWORD PTR [esp], xmm0
  00196	ff 52 1c	 call	 DWORD PTR [edx+28]

; 518  : 		m_pIconVolume->Render( iXPos + 30, iYPos + 27, UI_RENDER_NORMAL, TFO_BILINEAR );

  00199	8b 45 f8	 mov	 eax, DWORD PTR _this$[ebp]
  0019c	8b 88 08 02 00
	00		 mov	 ecx, DWORD PTR [eax+520]
  001a2	8b 55 fc	 mov	 edx, DWORD PTR _iYPos$[ebp]
  001a5	8b 01		 mov	 eax, DWORD PTR [ecx]
  001a7	57		 push	 edi
  001a8	57		 push	 edi
  001a9	6a 01		 push	 1
  001ab	57		 push	 edi
  001ac	83 c2 1b	 add	 edx, 27			; 0000001bH
  001af	0f 57 c0	 xorps	 xmm0, xmm0
  001b2	f3 0f 2a c2	 cvtsi2ss xmm0, edx
  001b6	8b 55 f0	 mov	 edx, DWORD PTR _iXPos$[ebp]
  001b9	51		 push	 ecx
  001ba	51		 push	 ecx
  001bb	f3 0f 11 44 24
	04		 movss	 DWORD PTR [esp+4], xmm0
  001c1	83 c2 1e	 add	 edx, 30			; 0000001eH
  001c4	0f 57 c0	 xorps	 xmm0, xmm0
  001c7	f3 0f 2a c2	 cvtsi2ss xmm0, edx
  001cb	f3 0f 11 04 24	 movss	 DWORD PTR [esp], xmm0
  001d0	ff 10		 call	 DWORD PTR [eax]
  001d2	8b 45 f8	 mov	 eax, DWORD PTR _this$[ebp]
$LN2@OnRender:

; 519  : 	}
; 520  : 	if( m_pIconMic )

  001d5	05 0c 02 00 00	 add	 eax, 524		; 0000020cH
  001da	89 45 e8	 mov	 DWORD PTR tv434[ebp], eax
  001dd	39 38		 cmp	 DWORD PTR [eax], edi
  001df	74 4d		 je	 SHORT $LN1@OnRender

; 521  : 	{
; 522  : 		m_pIconMic->SetScale( 0.30f );

  001e1	8b 08		 mov	 ecx, DWORD PTR [eax]
  001e3	f3 0f 10 05 00
	00 00 00	 movss	 xmm0, DWORD PTR __real@3e99999a
  001eb	8b 01		 mov	 eax, DWORD PTR [ecx]
  001ed	51		 push	 ecx
  001ee	f3 0f 11 04 24	 movss	 DWORD PTR [esp], xmm0
  001f3	ff 50 1c	 call	 DWORD PTR [eax+28]

; 523  : 		m_pIconMic->Render( iXPos + 30, iYPos + 219, UI_RENDER_NORMAL, TFO_BILINEAR );

  001f6	8b 45 e8	 mov	 eax, DWORD PTR tv434[ebp]
  001f9	8b 08		 mov	 ecx, DWORD PTR [eax]
  001fb	8b 55 fc	 mov	 edx, DWORD PTR _iYPos$[ebp]
  001fe	8b 01		 mov	 eax, DWORD PTR [ecx]
  00200	57		 push	 edi
  00201	57		 push	 edi
  00202	6a 01		 push	 1
  00204	57		 push	 edi
  00205	81 c2 db 00 00
	00		 add	 edx, 219		; 000000dbH
  0020b	0f 57 c0	 xorps	 xmm0, xmm0
  0020e	f3 0f 2a c2	 cvtsi2ss xmm0, edx
  00212	8b 55 f0	 mov	 edx, DWORD PTR _iXPos$[ebp]
  00215	51		 push	 ecx
  00216	51		 push	 ecx
  00217	f3 0f 11 44 24
	04		 movss	 DWORD PTR [esp+4], xmm0
  0021d	83 c2 1e	 add	 edx, 30			; 0000001eH
  00220	0f 57 c0	 xorps	 xmm0, xmm0
  00223	f3 0f 2a c2	 cvtsi2ss xmm0, edx
  00227	f3 0f 11 04 24	 movss	 DWORD PTR [esp], xmm0
  0022c	ff 10		 call	 DWORD PTR [eax]
$LN1@OnRender:

; 524  : 	}
; 525  : 
; 526  : 	g_FontMgr.SetAlignType( TAT_LEFT );

  0022e	57		 push	 edi
  0022f	ff d6		 call	 esi
  00231	8b c8		 mov	 ecx, eax
  00233	ff 15 00 00 00
	00		 call	 DWORD PTR __imp_?SetAlignType@ioFontManager@@QAEXW4TextAlignType@@@Z

; 527  : 	g_FontMgr.SetTextStyle( TS_NORMAL );

  00239	57		 push	 edi
  0023a	ff d6		 call	 esi
  0023c	8b c8		 mov	 ecx, eax
  0023e	ff 15 00 00 00
	00		 call	 DWORD PTR __imp_?SetTextStyle@ioFontManager@@QAEXW4TextStyle@@@Z

; 528  : 	g_FontMgr.SetBkColor( 0, 0, 0 );

  00244	57		 push	 edi
  00245	57		 push	 edi
  00246	57		 push	 edi
  00247	ff d6		 call	 esi
  00249	8b c8		 mov	 ecx, eax
  0024b	ff 15 00 00 00
	00		 call	 DWORD PTR __imp_?SetBkColor@ioFontManager@@QAEXHHH@Z

; 529  : 	g_FontMgr.SetTextColor( TCT_DEFAULT_DARKGRAY );

  00251	68 3a 3a 3a ff	 push	 -12961222		; ff3a3a3aH
  00256	ff d6		 call	 esi
  00258	8b c8		 mov	 ecx, eax
  0025a	ff 15 00 00 00
	00		 call	 DWORD PTR __imp_?SetTextColor@ioFontManager@@QAEXK@Z

; 530  : 	g_FontMgr.PrintText( iXPos + 44, iYPos + 19, FONT_SIZE_14, STR(1) );

  00260	57		 push	 edi
  00261	6a 01		 push	 1
  00263	68 00 00 00 00	 push	 OFFSET ??_C@_00CNPNBAHC@?$AA@
  00268	68 00 00 00 00	 push	 OFFSET ??_C@_0BO@JBIOJAMK@GameOptionVolumeTab?3?3OnRender?$AA@
  0026d	ff d3		 call	 ebx
  0026f	8b c8		 mov	 ecx, eax
  00271	ff 15 00 00 00
	00		 call	 DWORD PTR __imp_?GetString@ioStringManager@@QAEPADPBD0HW4FileNamePrefix@1@@Z
  00277	f3 0f 10 05 00
	00 00 00	 movss	 xmm0, DWORD PTR __real@3f333333
  0027f	50		 push	 eax
  00280	83 ec 0c	 sub	 esp, 12			; 0000000cH
  00283	f3 0f 11 44 24
	08		 movss	 DWORD PTR [esp+8], xmm0
  00289	f3 0f 10 45 ec	 movss	 xmm0, DWORD PTR tv385[ebp]
  0028e	f3 0f 11 44 24
	04		 movss	 DWORD PTR [esp+4], xmm0
  00294	f3 0f 10 45 f4	 movss	 xmm0, DWORD PTR tv387[ebp]
  00299	f3 0f 11 04 24	 movss	 DWORD PTR [esp], xmm0
  0029e	ff d6		 call	 esi
  002a0	50		 push	 eax
  002a1	ff 15 00 00 00
	00		 call	 DWORD PTR __imp_?PrintText@ioFontManager@@QAAXMMMPBDZZ
  002a7	83 c4 14	 add	 esp, 20			; 00000014H

; 531  : 	g_FontMgr.PrintText( iXPos + 44, iYPos + 187, FONT_SIZE_14, STR(2) );

  002aa	57		 push	 edi
  002ab	6a 02		 push	 2
  002ad	68 00 00 00 00	 push	 OFFSET ??_C@_00CNPNBAHC@?$AA@
  002b2	68 00 00 00 00	 push	 OFFSET ??_C@_0BO@JBIOJAMK@GameOptionVolumeTab?3?3OnRender?$AA@
  002b7	ff d3		 call	 ebx
  002b9	8b c8		 mov	 ecx, eax
  002bb	ff 15 00 00 00
	00		 call	 DWORD PTR __imp_?GetString@ioStringManager@@QAEPADPBD0HW4FileNamePrefix@1@@Z
  002c1	f3 0f 10 05 00
	00 00 00	 movss	 xmm0, DWORD PTR __real@3f333333
  002c9	50		 push	 eax
  002ca	8b 45 fc	 mov	 eax, DWORD PTR _iYPos$[ebp]
  002cd	83 ec 0c	 sub	 esp, 12			; 0000000cH
  002d0	f3 0f 11 44 24
	08		 movss	 DWORD PTR [esp+8], xmm0
  002d6	05 bb 00 00 00	 add	 eax, 187		; 000000bbH
  002db	0f 57 c0	 xorps	 xmm0, xmm0
  002de	f3 0f 2a c0	 cvtsi2ss xmm0, eax
  002e2	f3 0f 11 44 24
	04		 movss	 DWORD PTR [esp+4], xmm0
  002e8	f3 0f 10 45 f4	 movss	 xmm0, DWORD PTR tv387[ebp]
  002ed	f3 0f 11 04 24	 movss	 DWORD PTR [esp], xmm0
  002f2	ff d6		 call	 esi
  002f4	50		 push	 eax
  002f5	ff 15 00 00 00
	00		 call	 DWORD PTR __imp_?PrintText@ioFontManager@@QAAXMMMPBDZZ
  002fb	83 c4 14	 add	 esp, 20			; 00000014H

; 532  : 	g_FontMgr.PrintText( iXPos + 44, iYPos + 19, FONT_SIZE_14, STR(1) );

  002fe	57		 push	 edi
  002ff	6a 01		 push	 1
  00301	68 00 00 00 00	 push	 OFFSET ??_C@_00CNPNBAHC@?$AA@
  00306	68 00 00 00 00	 push	 OFFSET ??_C@_0BO@JBIOJAMK@GameOptionVolumeTab?3?3OnRender?$AA@
  0030b	ff d3		 call	 ebx
  0030d	8b c8		 mov	 ecx, eax
  0030f	ff 15 00 00 00
	00		 call	 DWORD PTR __imp_?GetString@ioStringManager@@QAEPADPBD0HW4FileNamePrefix@1@@Z
  00315	f3 0f 10 05 00
	00 00 00	 movss	 xmm0, DWORD PTR __real@3f333333
  0031d	50		 push	 eax
  0031e	83 ec 0c	 sub	 esp, 12			; 0000000cH
  00321	f3 0f 11 44 24
	08		 movss	 DWORD PTR [esp+8], xmm0
  00327	f3 0f 10 45 ec	 movss	 xmm0, DWORD PTR tv385[ebp]
  0032c	f3 0f 11 44 24
	04		 movss	 DWORD PTR [esp+4], xmm0
  00332	f3 0f 10 45 f4	 movss	 xmm0, DWORD PTR tv387[ebp]
  00337	f3 0f 11 04 24	 movss	 DWORD PTR [esp], xmm0
  0033c	ff d6		 call	 esi
  0033e	50		 push	 eax
  0033f	ff 15 00 00 00
	00		 call	 DWORD PTR __imp_?PrintText@ioFontManager@@QAAXMMMPBDZZ
  00345	83 c4 14	 add	 esp, 20			; 00000014H

; 533  : 	g_FontMgr.PrintText( iXPos + 44, iYPos + 211, FONT_SIZE_14, STR(2) );

  00348	57		 push	 edi
  00349	6a 02		 push	 2
  0034b	68 00 00 00 00	 push	 OFFSET ??_C@_00CNPNBAHC@?$AA@
  00350	68 00 00 00 00	 push	 OFFSET ??_C@_0BO@JBIOJAMK@GameOptionVolumeTab?3?3OnRender?$AA@
  00355	ff d3		 call	 ebx
  00357	8b c8		 mov	 ecx, eax
  00359	ff 15 00 00 00
	00		 call	 DWORD PTR __imp_?GetString@ioStringManager@@QAEPADPBD0HW4FileNamePrefix@1@@Z
  0035f	f3 0f 10 05 00
	00 00 00	 movss	 xmm0, DWORD PTR __real@3f333333
  00367	50		 push	 eax
  00368	8b 45 fc	 mov	 eax, DWORD PTR _iYPos$[ebp]
  0036b	83 ec 0c	 sub	 esp, 12			; 0000000cH
  0036e	f3 0f 11 44 24
	08		 movss	 DWORD PTR [esp+8], xmm0
  00374	05 d3 00 00 00	 add	 eax, 211		; 000000d3H
  00379	0f 57 c0	 xorps	 xmm0, xmm0
  0037c	f3 0f 2a c0	 cvtsi2ss xmm0, eax
  00380	f3 0f 11 44 24
	04		 movss	 DWORD PTR [esp+4], xmm0
  00386	f3 0f 10 45 f4	 movss	 xmm0, DWORD PTR tv387[ebp]
  0038b	f3 0f 11 04 24	 movss	 DWORD PTR [esp], xmm0
  00390	ff d6		 call	 esi
  00392	50		 push	 eax
  00393	ff 15 00 00 00
	00		 call	 DWORD PTR __imp_?PrintText@ioFontManager@@QAAXMMMPBDZZ
  00399	83 c4 14	 add	 esp, 20			; 00000014H
  0039c	5f		 pop	 edi
  0039d	5e		 pop	 esi
  0039e	5b		 pop	 ebx

; 534  : }

  0039f	c9		 leave
  003a0	c3		 ret	 0
?OnRender@GameOptionVolumeTab@@MAEXXZ ENDP		; GameOptionVolumeTab::OnRender
_TEXT	ENDS
PUBLIC	??_7GameSpecRadioBtn@@6B@			; GameSpecRadioBtn::`vftable'
PUBLIC	??0GameSpecRadioBtn@@QAE@XZ			; GameSpecRadioBtn::GameSpecRadioBtn
PUBLIC	??_R4GameSpecRadioBtn@@6B@			; GameSpecRadioBtn::`RTTI Complete Object Locator'
PUBLIC	??_R0?AVGameSpecRadioBtn@@@8			; GameSpecRadioBtn `RTTI Type Descriptor'
PUBLIC	??_R3GameSpecRadioBtn@@8			; GameSpecRadioBtn::`RTTI Class Hierarchy Descriptor'
PUBLIC	??_R2GameSpecRadioBtn@@8			; GameSpecRadioBtn::`RTTI Base Class Array'
PUBLIC	??_R1A@?0A@EA@GameSpecRadioBtn@@8		; GameSpecRadioBtn::`RTTI Base Class Descriptor at (0,-1,0,64)'
PUBLIC	??_R1A@?0A@EA@ioButton@@8			; ioButton::`RTTI Base Class Descriptor at (0,-1,0,64)'
PUBLIC	??_R0?AVioButton@@@8				; ioButton `RTTI Type Descriptor'
PUBLIC	??_R3ioButton@@8				; ioButton::`RTTI Class Hierarchy Descriptor'
PUBLIC	??_R2ioButton@@8				; ioButton::`RTTI Base Class Array'
PUBLIC	?AddRenderImage@GameSpecRadioBtn@@MAEXABVioHashString@@PAVioUIRenderImage@@@Z ; GameSpecRadioBtn::AddRenderImage
PUBLIC	?OnRender@GameSpecRadioBtn@@MAEXXZ		; GameSpecRadioBtn::OnRender
EXTRN	__imp_??0ioButton@@QAE@XZ:PROC
EXTRN	?AddRenderFrame@ioButton@@UAEXABVioHashString@@PAVioUIRenderFrame@@@Z:PROC ; ioButton::AddRenderFrame
EXTRN	?ParseExtraInfo@ioButton@@UAEXAAVioXMLElement@@@Z:PROC ; ioButton::ParseExtraInfo
EXTRN	?SetWindowAlpha@ioButton@@UAEXH@Z:PROC		; ioButton::SetWindowAlpha
EXTRN	?CheckFrameReSize@ioButton@@MAEXHHHH@Z:PROC	; ioButton::CheckFrameReSize
EXTRN	?iwm_lbuttondown@ioButton@@UAEXABVioMouse@@@Z:PROC ; ioButton::iwm_lbuttondown
EXTRN	?iwm_lbuttonup@ioButton@@UAEXABVioMouse@@@Z:PROC ; ioButton::iwm_lbuttonup
EXTRN	?iwm_lbuttonDBLCLK@ioButton@@UAEXABVioMouse@@@Z:PROC ; ioButton::iwm_lbuttonDBLCLK
EXTRN	?iwm_rbuttondown@ioButton@@UAEXABVioMouse@@@Z:PROC ; ioButton::iwm_rbuttondown
EXTRN	?iwm_rbuttonup@ioButton@@UAEXABVioMouse@@@Z:PROC ; ioButton::iwm_rbuttonup
EXTRN	?iwm_mouseover@ioButton@@UAEXABVioMouse@@@Z:PROC ; ioButton::iwm_mouseover
EXTRN	?iwm_show@ioWnd@@UAEXXZ:PROC			; ioWnd::iwm_show
EXTRN	?GetWndType@ioButton@@UBEKXZ:PROC		; ioButton::GetWndType
EXTRN	?GetHeaderFileName@ioButton@@UAEPBDXZ:PROC	; ioButton::GetHeaderFileName
EXTRN	?GetTemplateName@ioButton@@UAEPBDXZ:PROC	; ioButton::GetTemplateName
EXTRN	?GetDefClassName@ioButton@@UBEPBDXZ:PROC	; ioButton::GetDefClassName
EXTRN	?_Clone@ioButton@@UAEPAVioWnd@@XZ:PROC		; ioButton::_Clone
EXTRN	?Copy@ioButton@@UAEXPAVioWnd@@@Z:PROC		; ioButton::Copy
EXTRN	?SetSaveData@ioButton@@UAEXAAVioXMLElement@@@Z:PROC ; ioButton::SetSaveData
EXTRN	?GetNumFixedRenderFrame@ioButton@@UBEHXZ:PROC	; ioButton::GetNumFixedRenderFrame
EXTRN	?GetFixedRenderFrameType@ioButton@@UAEPBDH@Z:PROC ; ioButton::GetFixedRenderFrameType
EXTRN	?GetRenderFrame@ioButton@@UAEPAPAVioUIRenderElement@@PBD@Z:PROC ; ioButton::GetRenderFrame
EXTRN	?GetNumFixedRenderImage@ioButton@@UBEHXZ:PROC	; ioButton::GetNumFixedRenderImage
EXTRN	?GetFixedRenderImageType@ioButton@@UAEPBDH@Z:PROC ; ioButton::GetFixedRenderImageType
EXTRN	?GetRenderImage@ioButton@@UAEPAPAVioUIRenderElement@@PBD@Z:PROC ; ioButton::GetRenderImage
EXTRN	??_EGameSpecRadioBtn@@UAEPAXI@Z:PROC		; GameSpecRadioBtn::`vector deleting destructor'
EXTRN	?OnDrawNormal@ioButton@@MAEXHH@Z:PROC		; ioButton::OnDrawNormal
EXTRN	?OnDrawOvered@ioButton@@MAEXHH@Z:PROC		; ioButton::OnDrawOvered
EXTRN	?OnDrawOveredAdd@ioButton@@MAEXHH@Z:PROC	; ioButton::OnDrawOveredAdd
EXTRN	?OnDrawPushed@ioButton@@MAEXHH@Z:PROC		; ioButton::OnDrawPushed
EXTRN	?OnDrawDisabled@ioButton@@MAEXHH@Z:PROC		; ioButton::OnDrawDisabled
EXTRN	?OnDrawExDisabledNormal@ioButton@@MAEXHH@Z:PROC	; ioButton::OnDrawExDisabledNormal
EXTRN	?OnDrawExDisabledOvered@ioButton@@MAEXHH@Z:PROC	; ioButton::OnDrawExDisabledOvered
EXTRN	?OnDrawExDisabledPushed@ioButton@@MAEXHH@Z:PROC	; ioButton::OnDrawExDisabledPushed
EXTRN	?OnDrawBack@ioButton@@MAEXHH@Z:PROC		; ioButton::OnDrawBack
EXTRN	?OnDrawNormalList@ioButton@@MAEXHH@Z:PROC	; ioButton::OnDrawNormalList
EXTRN	?OnDrawDisableList@ioButton@@MAEXHH@Z:PROC	; ioButton::OnDrawDisableList
;	COMDAT ??_R2ioButton@@8
rdata$r	SEGMENT
??_R2ioButton@@8 DD FLAT:??_R1A@?0A@EA@ioButton@@8	; ioButton::`RTTI Base Class Array'
	DD	FLAT:??_R1A@?0A@EA@ioWnd@@8
rdata$r	ENDS
;	COMDAT ??_R3ioButton@@8
rdata$r	SEGMENT
??_R3ioButton@@8 DD 00H					; ioButton::`RTTI Class Hierarchy Descriptor'
	DD	00H
	DD	02H
	DD	FLAT:??_R2ioButton@@8
rdata$r	ENDS
;	COMDAT ??_R0?AVioButton@@@8
_DATA	SEGMENT
??_R0?AVioButton@@@8 DD FLAT:??_7type_info@@6B@		; ioButton `RTTI Type Descriptor'
	DD	00H
	DB	'.?AVioButton@@', 00H
_DATA	ENDS
;	COMDAT ??_R1A@?0A@EA@ioButton@@8
rdata$r	SEGMENT
??_R1A@?0A@EA@ioButton@@8 DD FLAT:??_R0?AVioButton@@@8	; ioButton::`RTTI Base Class Descriptor at (0,-1,0,64)'
	DD	01H
	DD	00H
	DD	0ffffffffH
	DD	00H
	DD	040H
	DD	FLAT:??_R3ioButton@@8
rdata$r	ENDS
;	COMDAT ??_R1A@?0A@EA@GameSpecRadioBtn@@8
rdata$r	SEGMENT
??_R1A@?0A@EA@GameSpecRadioBtn@@8 DD FLAT:??_R0?AVGameSpecRadioBtn@@@8 ; GameSpecRadioBtn::`RTTI Base Class Descriptor at (0,-1,0,64)'
	DD	02H
	DD	00H
	DD	0ffffffffH
	DD	00H
	DD	040H
	DD	FLAT:??_R3GameSpecRadioBtn@@8
rdata$r	ENDS
;	COMDAT ??_R2GameSpecRadioBtn@@8
rdata$r	SEGMENT
??_R2GameSpecRadioBtn@@8 DD FLAT:??_R1A@?0A@EA@GameSpecRadioBtn@@8 ; GameSpecRadioBtn::`RTTI Base Class Array'
	DD	FLAT:??_R1A@?0A@EA@ioButton@@8
	DD	FLAT:??_R1A@?0A@EA@ioWnd@@8
rdata$r	ENDS
;	COMDAT ??_R3GameSpecRadioBtn@@8
rdata$r	SEGMENT
??_R3GameSpecRadioBtn@@8 DD 00H				; GameSpecRadioBtn::`RTTI Class Hierarchy Descriptor'
	DD	00H
	DD	03H
	DD	FLAT:??_R2GameSpecRadioBtn@@8
rdata$r	ENDS
;	COMDAT ??_R0?AVGameSpecRadioBtn@@@8
_DATA	SEGMENT
??_R0?AVGameSpecRadioBtn@@@8 DD FLAT:??_7type_info@@6B@	; GameSpecRadioBtn `RTTI Type Descriptor'
	DD	00H
	DB	'.?AVGameSpecRadioBtn@@', 00H
_DATA	ENDS
;	COMDAT ??_R4GameSpecRadioBtn@@6B@
rdata$r	SEGMENT
??_R4GameSpecRadioBtn@@6B@ DD 00H			; GameSpecRadioBtn::`RTTI Complete Object Locator'
	DD	00H
	DD	00H
	DD	FLAT:??_R0?AVGameSpecRadioBtn@@@8
	DD	FLAT:??_R3GameSpecRadioBtn@@8
rdata$r	ENDS
;	COMDAT ??_7GameSpecRadioBtn@@6B@
CONST	SEGMENT
??_7GameSpecRadioBtn@@6B@ DD FLAT:??_R4GameSpecRadioBtn@@6B@ ; GameSpecRadioBtn::`vftable'
	DD	FLAT:?AddRenderFrame@ioButton@@UAEXABVioHashString@@PAVioUIRenderFrame@@@Z
	DD	FLAT:?AddRenderImage@GameSpecRadioBtn@@MAEXABVioHashString@@PAVioUIRenderImage@@@Z
	DD	FLAT:?AddTooltipHelp@ioWnd@@UAEXABVioHashString@@00@Z
	DD	FLAT:?ParseExtraInfo@ioButton@@UAEXAAVioXMLElement@@@Z
	DD	FLAT:?AddNamedRenderImage@ioWnd@@UAEXABVioHashString@@PAVioUIRenderImage@@@Z
	DD	FLAT:?RemoveNamedRenderImage@ioWnd@@UAEXABVioHashString@@@Z
	DD	FLAT:?GetNamedRenderImage@ioWnd@@UBEPAVioUIRenderImage@@ABVioHashString@@@Z
	DD	FLAT:?SetWindowAlpha@ioButton@@UAEXH@Z
	DD	FLAT:?SetActive@ioWnd@@UAEXXZ
	DD	FLAT:?SetInActive@ioWnd@@UAEXXZ
	DD	FLAT:?ClearElementImageList@ioWnd@@UAEXXZ
	DD	FLAT:?SetSize@ioWnd@@UAEXHH@Z
	DD	FLAT:?SetPositionToDefault@ioWnd@@UAEXHH_N0@Z
	DD	FLAT:?IsNeedProcess@ioWnd@@UBE_NXZ
	DD	FLAT:?IsCanMouseReaction@ioWnd@@UBE_NXZ
	DD	FLAT:?AddChild@ioWnd@@UAEXPAV1@@Z
	DD	FLAT:?DeleteChild@ioWnd@@UAEXK@Z
	DD	FLAT:?DeleteAllChild@ioWnd@@UAEXXZ
	DD	FLAT:?OnRenderShowAndHide@ioWnd@@MAE_NXZ
	DD	FLAT:?OnRenderShowAndHideByDefault@ioWnd@@MAE_NK@Z
	DD	FLAT:?OnRenderShowAndHideByTop@ioWnd@@MAE_NK@Z
	DD	FLAT:?OnRenderShowAndHideByDown@ioWnd@@MAE_NK@Z
	DD	FLAT:?OnRender@GameSpecRadioBtn@@MAEXXZ
	DD	FLAT:?OnRenderAfterChild@ioWnd@@MAEXXZ
	DD	FLAT:?OnProcess@ioWnd@@MAEXM@Z
	DD	FLAT:?OnMouseProcess@ioWnd@@MAEXABVioMouse@@@Z
	DD	FLAT:?CheckFrameReSize@ioButton@@MAEXHHHH@Z
	DD	FLAT:?RenderImageList@ioWnd@@MAEXHHW4UIRenderType@@@Z
	DD	FLAT:?iwm_create@ioWnd@@UAEXXZ
	DD	FLAT:?iwm_destroy@ioWnd@@UAEXXZ
	DD	FLAT:?iwm_lbuttondown@ioButton@@UAEXABVioMouse@@@Z
	DD	FLAT:?iwm_lbuttonup@ioButton@@UAEXABVioMouse@@@Z
	DD	FLAT:?iwm_lbuttonDBLCLK@ioButton@@UAEXABVioMouse@@@Z
	DD	FLAT:?iwm_rbuttondown@ioButton@@UAEXABVioMouse@@@Z
	DD	FLAT:?iwm_rbuttonup@ioButton@@UAEXABVioMouse@@@Z
	DD	FLAT:?iwm_command@ioWnd@@UAEXPAV1@HK@Z
	DD	FLAT:?iwm_mouseover@ioButton@@UAEXABVioMouse@@@Z
	DD	FLAT:?iwm_mousemove@ioWnd@@UAEXABVioMouse@@@Z
	DD	FLAT:?iwm_mouseleave@ioWnd@@UAEXABVioMouse@@@Z
	DD	FLAT:?iwm_vscroll@ioWnd@@UAEXKH@Z
	DD	FLAT:?iwm_wheel@ioWnd@@UAEXH@Z
	DD	FLAT:?iwm_show@ioWnd@@UAEXXZ
	DD	FLAT:?iwm_hide@ioWnd@@UAEXXZ
	DD	FLAT:?iwm_esc@ioWnd@@UAE_NXZ
	DD	FLAT:?iwm_spacebar@ioWnd@@UAE_NXZ
	DD	FLAT:?iwm_gototop@ioWnd@@UAEXXZ
	DD	FLAT:?iwm_dragenter@ioWnd@@UAE?AW4IWDropEffect@@PAVioDragItem@@ABVioMouse@@@Z
	DD	FLAT:?iwm_dragover@ioWnd@@UAE?AW4IWDropEffect@@PAVioDragItem@@ABVioMouse@@@Z
	DD	FLAT:?iwm_dragleave@ioWnd@@UAEXXZ
	DD	FLAT:?iwm_dropitem@ioWnd@@UAE_NPAVioDragItem@@ABVioMouse@@PAV1@@Z
	DD	FLAT:?iwm_dropdone@ioWnd@@UAEXPAVioDragItem@@PAV1@_N@Z
	DD	FLAT:?IsEXType@ioWnd@@UBE_NXZ
	DD	FLAT:?GetWndType@ioButton@@UBEKXZ
	DD	FLAT:?RenderWnd@ioWnd@@UAEXXZ
	DD	FLAT:?SetIDEX@ioWnd@@UAEXAAK_N@Z
	DD	FLAT:?ParseXML@ioWnd@@UAEXAAVioXMLElement@@@Z
	DD	FLAT:?GetHeaderFileName@ioButton@@UAEPBDXZ
	DD	FLAT:?GetTemplateName@ioButton@@UAEPBDXZ
	DD	FLAT:?GetDefClassName@ioButton@@UBEPBDXZ
	DD	FLAT:?_Clone@ioButton@@UAEPAVioWnd@@XZ
	DD	FLAT:?Copy@ioButton@@UAEXPAVioWnd@@@Z
	DD	FLAT:?Save@ioWnd@@UAE_NAAVioXMLElement@@@Z
	DD	FLAT:?SetSaveData@ioButton@@UAEXAAVioXMLElement@@@Z
	DD	FLAT:?SetPosX@ioWnd@@UAEXH@Z
	DD	FLAT:?SetPosY@ioWnd@@UAEXH@Z
	DD	FLAT:?SetWidth@ioWnd@@UAEXH@Z
	DD	FLAT:?SetHeight@ioWnd@@UAEXH@Z
	DD	FLAT:?GetNumFixedRenderFrame@ioButton@@UBEHXZ
	DD	FLAT:?GetFixedRenderFrameType@ioButton@@UAEPBDH@Z
	DD	FLAT:?GetRenderFrame@ioButton@@UAEPAPAVioUIRenderElement@@PBD@Z
	DD	FLAT:?GetNumFixedRenderImage@ioButton@@UBEHXZ
	DD	FLAT:?GetFixedRenderImageType@ioButton@@UAEPBDH@Z
	DD	FLAT:?GetRenderImage@ioButton@@UAEPAPAVioUIRenderElement@@PBD@Z
	DD	FLAT:?AddEffect@ioWnd@@UAEXABVioHashString@@PAVioUI3DEffectRender@@@Z
	DD	FLAT:?GetEffect@ioWnd@@UAEPAVioUI3DEffectRender@@VioHashString@@@Z
	DD	FLAT:??_EGameSpecRadioBtn@@UAEPAXI@Z
	DD	FLAT:?OnDrawNormal@ioButton@@MAEXHH@Z
	DD	FLAT:?OnDrawOvered@ioButton@@MAEXHH@Z
	DD	FLAT:?OnDrawOveredAdd@ioButton@@MAEXHH@Z
	DD	FLAT:?OnDrawPushed@ioButton@@MAEXHH@Z
	DD	FLAT:?OnDrawDisabled@ioButton@@MAEXHH@Z
	DD	FLAT:?OnDrawExDisabledNormal@ioButton@@MAEXHH@Z
	DD	FLAT:?OnDrawExDisabledOvered@ioButton@@MAEXHH@Z
	DD	FLAT:?OnDrawExDisabledPushed@ioButton@@MAEXHH@Z
	DD	FLAT:?OnDrawBack@ioButton@@MAEXHH@Z
	DD	FLAT:?OnDrawNormalList@ioButton@@MAEXHH@Z
	DD	FLAT:?OnDrawDisableList@ioButton@@MAEXHH@Z
; Function compile flags: /Ogsp
CONST	ENDS
;	COMDAT ??0GameSpecRadioBtn@@QAE@XZ
_TEXT	SEGMENT
??0GameSpecRadioBtn@@QAE@XZ PROC			; GameSpecRadioBtn::GameSpecRadioBtn, COMDAT
; _this$ = ecx

; 537  : {

  00000	56		 push	 esi
  00001	8b f1		 mov	 esi, ecx
  00003	ff 15 00 00 00
	00		 call	 DWORD PTR __imp_??0ioButton@@QAE@XZ

; 538  : 	m_pChecked = NULL;

  00009	83 a6 fc 01 00
	00 00		 and	 DWORD PTR [esi+508], 0
  00010	c7 06 00 00 00
	00		 mov	 DWORD PTR [esi], OFFSET ??_7GameSpecRadioBtn@@6B@

; 539  : }

  00016	8b c6		 mov	 eax, esi
  00018	5e		 pop	 esi
  00019	c3		 ret	 0
??0GameSpecRadioBtn@@QAE@XZ ENDP			; GameSpecRadioBtn::GameSpecRadioBtn
_TEXT	ENDS
PUBLIC	??1GameSpecRadioBtn@@UAE@XZ			; GameSpecRadioBtn::~GameSpecRadioBtn
EXTRN	__imp_??1ioButton@@UAE@XZ:PROC
;	COMDAT xdata$x
xdata$x	SEGMENT
__unwindtable$??1GameSpecRadioBtn@@UAE@XZ DD 0ffffffffH
	DD	FLAT:__unwindfunclet$??1GameSpecRadioBtn@@UAE@XZ$0
__ehfuncinfo$??1GameSpecRadioBtn@@UAE@XZ DD 019930522H
	DD	01H
	DD	FLAT:__unwindtable$??1GameSpecRadioBtn@@UAE@XZ
	DD	2 DUP(00H)
	DD	2 DUP(00H)
	DD	00H
	DD	01H
; Function compile flags: /Ogsp
xdata$x	ENDS
;	COMDAT ??1GameSpecRadioBtn@@UAE@XZ
_TEXT	SEGMENT
_this$ = -16						; size = 4
__$EHRec$ = -12						; size = 12
??1GameSpecRadioBtn@@UAE@XZ PROC			; GameSpecRadioBtn::~GameSpecRadioBtn, COMDAT
; _this$ = ecx

; 542  : {

  00000	6a 04		 push	 4
  00002	b8 00 00 00 00	 mov	 eax, __ehhandler$??1GameSpecRadioBtn@@UAE@XZ
  00007	e8 00 00 00 00	 call	 __EH_prolog3
  0000c	8b f9		 mov	 edi, ecx
  0000e	89 7d f0	 mov	 DWORD PTR _this$[ebp], edi
  00011	c7 07 00 00 00
	00		 mov	 DWORD PTR [edi], OFFSET ??_7GameSpecRadioBtn@@6B@

; 543  : 	SAFEDELETE( m_pChecked );

  00017	8b 8f fc 01 00
	00		 mov	 ecx, DWORD PTR [edi+508]
  0001d	83 65 fc 00	 and	 DWORD PTR __$EHRec$[ebp+8], 0
  00021	85 c9		 test	 ecx, ecx
  00023	74 0e		 je	 SHORT $LN1@GameSpecRa
  00025	8b 01		 mov	 eax, DWORD PTR [ecx]
  00027	6a 01		 push	 1
  00029	ff 50 40	 call	 DWORD PTR [eax+64]
  0002c	83 a7 fc 01 00
	00 00		 and	 DWORD PTR [edi+508], 0
$LN1@GameSpecRa:

; 544  : }

  00033	83 4d fc ff	 or	 DWORD PTR __$EHRec$[ebp+8], -1
  00037	8b cf		 mov	 ecx, edi
  00039	ff 15 00 00 00
	00		 call	 DWORD PTR __imp_??1ioButton@@UAE@XZ
  0003f	e8 00 00 00 00	 call	 __EH_epilog3
  00044	c3		 ret	 0
_TEXT	ENDS
;	COMDAT text$x
text$x	SEGMENT
__unwindfunclet$??1GameSpecRadioBtn@@UAE@XZ$0:
  00000	8b 4d f0	 mov	 ecx, DWORD PTR _this$[ebp]
  00003	ff 25 00 00 00
	00		 jmp	 DWORD PTR __imp_??1ioButton@@UAE@XZ
__ehhandler$??1GameSpecRadioBtn@@UAE@XZ:
  00009	8b 54 24 08	 mov	 edx, DWORD PTR [esp+8]
  0000d	8d 42 0c	 lea	 eax, DWORD PTR [edx+12]
  00010	8b 4a ec	 mov	 ecx, DWORD PTR [edx-20]
  00013	33 c8		 xor	 ecx, eax
  00015	e8 00 00 00 00	 call	 @__security_check_cookie@4
  0001a	b8 00 00 00 00	 mov	 eax, OFFSET __ehfuncinfo$??1GameSpecRadioBtn@@UAE@XZ
  0001f	e9 00 00 00 00	 jmp	 ___CxxFrameHandler3
text$x	ENDS
??1GameSpecRadioBtn@@UAE@XZ ENDP			; GameSpecRadioBtn::~GameSpecRadioBtn
PUBLIC	??_7GameOptionSpecTab@@6B@			; GameOptionSpecTab::`vftable'
PUBLIC	??1GameOptionSpecTab@@UAE@XZ			; GameOptionSpecTab::~GameOptionSpecTab
PUBLIC	??_R4GameOptionSpecTab@@6B@			; GameOptionSpecTab::`RTTI Complete Object Locator'
PUBLIC	??_R0?AVGameOptionSpecTab@@@8			; GameOptionSpecTab `RTTI Type Descriptor'
PUBLIC	??_R3GameOptionSpecTab@@8			; GameOptionSpecTab::`RTTI Class Hierarchy Descriptor'
PUBLIC	??_R2GameOptionSpecTab@@8			; GameOptionSpecTab::`RTTI Base Class Array'
PUBLIC	??_R1A@?0A@EA@GameOptionSpecTab@@8		; GameOptionSpecTab::`RTTI Base Class Descriptor at (0,-1,0,64)'
PUBLIC	?AddRenderImage@GameOptionSpecTab@@MAEXABVioHashString@@PAVioUIRenderImage@@@Z ; GameOptionSpecTab::AddRenderImage
PUBLIC	?OnRender@GameOptionSpecTab@@MAEXXZ		; GameOptionSpecTab::OnRender
PUBLIC	?iwm_command@GameOptionSpecTab@@UAEXPAVioWnd@@HK@Z ; GameOptionSpecTab::iwm_command
PUBLIC	?UpdateByCurrentOption@GameOptionSpecTab@@MAEXXZ ; GameOptionSpecTab::UpdateByCurrentOption
PUBLIC	?CheckResolutionChange@GameOptionSpecTab@@MAE_NABUSettingOption@@@Z ; GameOptionSpecTab::CheckResolutionChange
EXTRN	??_EGameOptionSpecTab@@UAEPAXI@Z:PROC		; GameOptionSpecTab::`vector deleting destructor'
;	COMDAT ??_R1A@?0A@EA@GameOptionSpecTab@@8
rdata$r	SEGMENT
??_R1A@?0A@EA@GameOptionSpecTab@@8 DD FLAT:??_R0?AVGameOptionSpecTab@@@8 ; GameOptionSpecTab::`RTTI Base Class Descriptor at (0,-1,0,64)'
	DD	02H
	DD	00H
	DD	0ffffffffH
	DD	00H
	DD	040H
	DD	FLAT:??_R3GameOptionSpecTab@@8
rdata$r	ENDS
;	COMDAT ??_R2GameOptionSpecTab@@8
rdata$r	SEGMENT
??_R2GameOptionSpecTab@@8 DD FLAT:??_R1A@?0A@EA@GameOptionSpecTab@@8 ; GameOptionSpecTab::`RTTI Base Class Array'
	DD	FLAT:??_R1A@?0A@EA@GameOptionBasicWnd@@8
	DD	FLAT:??_R1A@?0A@EA@ioWnd@@8
rdata$r	ENDS
;	COMDAT ??_R3GameOptionSpecTab@@8
rdata$r	SEGMENT
??_R3GameOptionSpecTab@@8 DD 00H			; GameOptionSpecTab::`RTTI Class Hierarchy Descriptor'
	DD	00H
	DD	03H
	DD	FLAT:??_R2GameOptionSpecTab@@8
rdata$r	ENDS
;	COMDAT ??_R0?AVGameOptionSpecTab@@@8
_DATA	SEGMENT
??_R0?AVGameOptionSpecTab@@@8 DD FLAT:??_7type_info@@6B@ ; GameOptionSpecTab `RTTI Type Descriptor'
	DD	00H
	DB	'.?AVGameOptionSpecTab@@', 00H
_DATA	ENDS
;	COMDAT ??_R4GameOptionSpecTab@@6B@
rdata$r	SEGMENT
??_R4GameOptionSpecTab@@6B@ DD 00H			; GameOptionSpecTab::`RTTI Complete Object Locator'
	DD	00H
	DD	00H
	DD	FLAT:??_R0?AVGameOptionSpecTab@@@8
	DD	FLAT:??_R3GameOptionSpecTab@@8
rdata$r	ENDS
;	COMDAT ??_7GameOptionSpecTab@@6B@
CONST	SEGMENT
??_7GameOptionSpecTab@@6B@ DD FLAT:??_R4GameOptionSpecTab@@6B@ ; GameOptionSpecTab::`vftable'
	DD	FLAT:?AddRenderFrame@ioWnd@@UAEXABVioHashString@@PAVioUIRenderFrame@@@Z
	DD	FLAT:?AddRenderImage@GameOptionSpecTab@@MAEXABVioHashString@@PAVioUIRenderImage@@@Z
	DD	FLAT:?AddTooltipHelp@ioWnd@@UAEXABVioHashString@@00@Z
	DD	FLAT:?ParseExtraInfo@ioWnd@@UAEXAAVioXMLElement@@@Z
	DD	FLAT:?AddNamedRenderImage@ioWnd@@UAEXABVioHashString@@PAVioUIRenderImage@@@Z
	DD	FLAT:?RemoveNamedRenderImage@ioWnd@@UAEXABVioHashString@@@Z
	DD	FLAT:?GetNamedRenderImage@ioWnd@@UBEPAVioUIRenderImage@@ABVioHashString@@@Z
	DD	FLAT:?SetWindowAlpha@ioWnd@@UAEXH@Z
	DD	FLAT:?SetActive@ioWnd@@UAEXXZ
	DD	FLAT:?SetInActive@ioWnd@@UAEXXZ
	DD	FLAT:?ClearElementImageList@ioWnd@@UAEXXZ
	DD	FLAT:?SetSize@ioWnd@@UAEXHH@Z
	DD	FLAT:?SetPositionToDefault@ioWnd@@UAEXHH_N0@Z
	DD	FLAT:?IsNeedProcess@ioWnd@@UBE_NXZ
	DD	FLAT:?IsCanMouseReaction@ioWnd@@UBE_NXZ
	DD	FLAT:?AddChild@ioWnd@@UAEXPAV1@@Z
	DD	FLAT:?DeleteChild@ioWnd@@UAEXK@Z
	DD	FLAT:?DeleteAllChild@ioWnd@@UAEXXZ
	DD	FLAT:?OnRenderShowAndHide@ioWnd@@MAE_NXZ
	DD	FLAT:?OnRenderShowAndHideByDefault@ioWnd@@MAE_NK@Z
	DD	FLAT:?OnRenderShowAndHideByTop@ioWnd@@MAE_NK@Z
	DD	FLAT:?OnRenderShowAndHideByDown@ioWnd@@MAE_NK@Z
	DD	FLAT:?OnRender@GameOptionSpecTab@@MAEXXZ
	DD	FLAT:?OnRenderAfterChild@ioWnd@@MAEXXZ
	DD	FLAT:?OnProcess@ioWnd@@MAEXM@Z
	DD	FLAT:?OnMouseProcess@ioWnd@@MAEXABVioMouse@@@Z
	DD	FLAT:?CheckFrameReSize@ioWnd@@MAEXHHHH@Z
	DD	FLAT:?RenderImageList@ioWnd@@MAEXHHW4UIRenderType@@@Z
	DD	FLAT:?iwm_create@ioWnd@@UAEXXZ
	DD	FLAT:?iwm_destroy@ioWnd@@UAEXXZ
	DD	FLAT:?iwm_lbuttondown@ioWnd@@UAEXABVioMouse@@@Z
	DD	FLAT:?iwm_lbuttonup@ioWnd@@UAEXABVioMouse@@@Z
	DD	FLAT:?iwm_lbuttonDBLCLK@ioWnd@@UAEXABVioMouse@@@Z
	DD	FLAT:?iwm_rbuttondown@ioWnd@@UAEXABVioMouse@@@Z
	DD	FLAT:?iwm_rbuttonup@ioWnd@@UAEXABVioMouse@@@Z
	DD	FLAT:?iwm_command@GameOptionSpecTab@@UAEXPAVioWnd@@HK@Z
	DD	FLAT:?iwm_mouseover@ioWnd@@UAEXABVioMouse@@@Z
	DD	FLAT:?iwm_mousemove@ioWnd@@UAEXABVioMouse@@@Z
	DD	FLAT:?iwm_mouseleave@ioWnd@@UAEXABVioMouse@@@Z
	DD	FLAT:?iwm_vscroll@ioWnd@@UAEXKH@Z
	DD	FLAT:?iwm_wheel@ioWnd@@UAEXH@Z
	DD	FLAT:?iwm_show@GameOptionBasicWnd@@UAEXXZ
	DD	FLAT:?iwm_hide@ioWnd@@UAEXXZ
	DD	FLAT:?iwm_esc@ioWnd@@UAE_NXZ
	DD	FLAT:?iwm_spacebar@ioWnd@@UAE_NXZ
	DD	FLAT:?iwm_gototop@ioWnd@@UAEXXZ
	DD	FLAT:?iwm_dragenter@ioWnd@@UAE?AW4IWDropEffect@@PAVioDragItem@@ABVioMouse@@@Z
	DD	FLAT:?iwm_dragover@ioWnd@@UAE?AW4IWDropEffect@@PAVioDragItem@@ABVioMouse@@@Z
	DD	FLAT:?iwm_dragleave@ioWnd@@UAEXXZ
	DD	FLAT:?iwm_dropitem@ioWnd@@UAE_NPAVioDragItem@@ABVioMouse@@PAV1@@Z
	DD	FLAT:?iwm_dropdone@ioWnd@@UAEXPAVioDragItem@@PAV1@_N@Z
	DD	FLAT:?IsEXType@ioWnd@@UBE_NXZ
	DD	FLAT:?GetWndType@ioWnd@@UBEKXZ
	DD	FLAT:?RenderWnd@ioWnd@@UAEXXZ
	DD	FLAT:?SetIDEX@ioWnd@@UAEXAAK_N@Z
	DD	FLAT:?ParseXML@ioWnd@@UAEXAAVioXMLElement@@@Z
	DD	FLAT:?GetHeaderFileName@ioWnd@@UAEPBDXZ
	DD	FLAT:?GetTemplateName@ioWnd@@UAEPBDXZ
	DD	FLAT:?GetDefClassName@ioWnd@@UBEPBDXZ
	DD	FLAT:?_Clone@ioWnd@@UAEPAV1@XZ
	DD	FLAT:?Copy@ioWnd@@UAEXPAV1@@Z
	DD	FLAT:?Save@ioWnd@@UAE_NAAVioXMLElement@@@Z
	DD	FLAT:?SetSaveData@ioWnd@@UAEXAAVioXMLElement@@@Z
	DD	FLAT:?SetPosX@ioWnd@@UAEXH@Z
	DD	FLAT:?SetPosY@ioWnd@@UAEXH@Z
	DD	FLAT:?SetWidth@ioWnd@@UAEXH@Z
	DD	FLAT:?SetHeight@ioWnd@@UAEXH@Z
	DD	FLAT:?GetNumFixedRenderFrame@ioWnd@@UBEHXZ
	DD	FLAT:?GetFixedRenderFrameType@ioWnd@@UAEPBDH@Z
	DD	FLAT:?GetRenderFrame@ioWnd@@UAEPAPAVioUIRenderElement@@PBD@Z
	DD	FLAT:?GetNumFixedRenderImage@ioWnd@@UBEHXZ
	DD	FLAT:?GetFixedRenderImageType@ioWnd@@UAEPBDH@Z
	DD	FLAT:?GetRenderImage@ioWnd@@UAEPAPAVioUIRenderElement@@PBD@Z
	DD	FLAT:?AddEffect@ioWnd@@UAEXABVioHashString@@PAVioUI3DEffectRender@@@Z
	DD	FLAT:?GetEffect@ioWnd@@UAEPAVioUI3DEffectRender@@VioHashString@@@Z
	DD	FLAT:??_EGameOptionSpecTab@@UAEPAXI@Z
	DD	FLAT:?UpdateByCurrentOption@GameOptionSpecTab@@MAEXXZ
	DD	FLAT:?CheckResolutionChange@GameOptionSpecTab@@MAE_NABUSettingOption@@@Z
CONST	ENDS
;	COMDAT xdata$x
xdata$x	SEGMENT
__unwindtable$??1GameOptionSpecTab@@UAE@XZ DD 0ffffffffH
	DD	FLAT:__unwindfunclet$??1GameOptionSpecTab@@UAE@XZ$0
__ehfuncinfo$??1GameOptionSpecTab@@UAE@XZ DD 019930522H
	DD	01H
	DD	FLAT:__unwindtable$??1GameOptionSpecTab@@UAE@XZ
	DD	2 DUP(00H)
	DD	2 DUP(00H)
	DD	00H
	DD	01H
; Function compile flags: /Ogsp
xdata$x	ENDS
;	COMDAT ??1GameOptionSpecTab@@UAE@XZ
_TEXT	SEGMENT
_this$ = -16						; size = 4
__$EHRec$ = -12						; size = 12
??1GameOptionSpecTab@@UAE@XZ PROC			; GameOptionSpecTab::~GameOptionSpecTab, COMDAT
; _this$ = ecx

; 584  : {

  00000	6a 04		 push	 4
  00002	b8 00 00 00 00	 mov	 eax, __ehhandler$??1GameOptionSpecTab@@UAE@XZ
  00007	e8 00 00 00 00	 call	 __EH_prolog3
  0000c	8b f9		 mov	 edi, ecx
  0000e	89 7d f0	 mov	 DWORD PTR _this$[ebp], edi
  00011	c7 07 00 00 00
	00		 mov	 DWORD PTR [edi], OFFSET ??_7GameOptionSpecTab@@6B@

; 585  : 	SAFEDELETE( m_pDot );

  00017	8b 8f 04 02 00
	00		 mov	 ecx, DWORD PTR [edi+516]
  0001d	83 65 fc 00	 and	 DWORD PTR __$EHRec$[ebp+8], 0
  00021	85 c9		 test	 ecx, ecx
  00023	74 0e		 je	 SHORT $LN1@GameOption@2
  00025	8b 01		 mov	 eax, DWORD PTR [ecx]
  00027	6a 01		 push	 1
  00029	ff 50 40	 call	 DWORD PTR [eax+64]
  0002c	83 a7 04 02 00
	00 00		 and	 DWORD PTR [edi+516], 0
$LN1@GameOption@2:

; 586  : }

  00033	83 4d fc ff	 or	 DWORD PTR __$EHRec$[ebp+8], -1
  00037	8b cf		 mov	 ecx, edi
  00039	e8 00 00 00 00	 call	 ??1GameOptionBasicWnd@@UAE@XZ ; GameOptionBasicWnd::~GameOptionBasicWnd
  0003e	e8 00 00 00 00	 call	 __EH_epilog3
  00043	c3		 ret	 0
_TEXT	ENDS
;	COMDAT text$x
text$x	SEGMENT
__unwindfunclet$??1GameOptionSpecTab@@UAE@XZ$0:
  00000	8b 4d f0	 mov	 ecx, DWORD PTR _this$[ebp]
  00003	e9 00 00 00 00	 jmp	 ??1GameOptionBasicWnd@@UAE@XZ ; GameOptionBasicWnd::~GameOptionBasicWnd
__ehhandler$??1GameOptionSpecTab@@UAE@XZ:
  00008	8b 54 24 08	 mov	 edx, DWORD PTR [esp+8]
  0000c	8d 42 0c	 lea	 eax, DWORD PTR [edx+12]
  0000f	8b 4a ec	 mov	 ecx, DWORD PTR [edx-20]
  00012	33 c8		 xor	 ecx, eax
  00014	e8 00 00 00 00	 call	 @__security_check_cookie@4
  00019	b8 00 00 00 00	 mov	 eax, OFFSET __ehfuncinfo$??1GameOptionSpecTab@@UAE@XZ
  0001e	e9 00 00 00 00	 jmp	 ___CxxFrameHandler3
text$x	ENDS
??1GameOptionSpecTab@@UAE@XZ ENDP			; GameOptionSpecTab::~GameOptionSpecTab
PUBLIC	??_C@_03MCBFNPGG@Dot?$AA@			; `string'
EXTRN	__imp_?AddRenderImage@ioWnd@@UAEXABVioHashString@@PAVioUIRenderImage@@@Z:PROC
EXTRN	__imp_?c_str@ioHashString@@QBEPBDXZ:PROC
;	COMDAT ??_C@_03MCBFNPGG@Dot?$AA@
CONST	SEGMENT
??_C@_03MCBFNPGG@Dot?$AA@ DB 'Dot', 00H			; `string'
; Function compile flags: /Ogsp
CONST	ENDS
;	COMDAT ?AddRenderImage@GameOptionSpecTab@@MAEXABVioHashString@@PAVioUIRenderImage@@@Z
_TEXT	SEGMENT
_szType$ = 8						; size = 4
_pImage$ = 12						; size = 4
?AddRenderImage@GameOptionSpecTab@@MAEXABVioHashString@@PAVioUIRenderImage@@@Z PROC ; GameOptionSpecTab::AddRenderImage, COMDAT
; _this$ = ecx

; 589  : {

  00000	55		 push	 ebp
  00001	8b ec		 mov	 ebp, esp
  00003	53		 push	 ebx
  00004	56		 push	 esi
  00005	8b d9		 mov	 ebx, ecx

; 590  : 	if( strcmp(szType.c_str(), "Dot") == 0 )

  00007	8b 4d 08	 mov	 ecx, DWORD PTR _szType$[ebp]
  0000a	57		 push	 edi
  0000b	bf 00 00 00 00	 mov	 edi, OFFSET ??_C@_03MCBFNPGG@Dot?$AA@
  00010	ff 15 00 00 00
	00		 call	 DWORD PTR __imp_?c_str@ioHashString@@QBEPBDXZ
  00016	8b f0		 mov	 esi, eax
  00018	6a 04		 push	 4
  0001a	59		 pop	 ecx
  0001b	33 c0		 xor	 eax, eax
  0001d	f3 a6		 repe cmpsb
  0001f	75 23		 jne	 SHORT $LN3@AddRenderI

; 591  : 	{
; 592  : 		SAFEDELETE( m_pDot );

  00021	8b 8b 04 02 00
	00		 mov	 ecx, DWORD PTR [ebx+516]
  00027	85 c9		 test	 ecx, ecx
  00029	74 0e		 je	 SHORT $LN2@AddRenderI
  0002b	8b 01		 mov	 eax, DWORD PTR [ecx]
  0002d	6a 01		 push	 1
  0002f	ff 50 40	 call	 DWORD PTR [eax+64]
  00032	83 a3 04 02 00
	00 00		 and	 DWORD PTR [ebx+516], 0
$LN2@AddRenderI:

; 593  : 		m_pDot = pImage;

  00039	8b 45 0c	 mov	 eax, DWORD PTR _pImage$[ebp]
  0003c	89 83 04 02 00
	00		 mov	 DWORD PTR [ebx+516], eax

; 594  : 	}
; 595  : 	else

  00042	eb 0e		 jmp	 SHORT $LN1@AddRenderI
$LN3@AddRenderI:

; 596  : 	{
; 597  : 		ioWnd::AddRenderImage( szType, pImage );

  00044	ff 75 0c	 push	 DWORD PTR _pImage$[ebp]
  00047	8b cb		 mov	 ecx, ebx
  00049	ff 75 08	 push	 DWORD PTR _szType$[ebp]
  0004c	ff 15 00 00 00
	00		 call	 DWORD PTR __imp_?AddRenderImage@ioWnd@@UAEXABVioHashString@@PAVioUIRenderImage@@@Z
$LN1@AddRenderI:
  00052	5f		 pop	 edi
  00053	5e		 pop	 esi
  00054	5b		 pop	 ebx

; 598  : 	}
; 599  : }

  00055	5d		 pop	 ebp
  00056	c2 08 00	 ret	 8
?AddRenderImage@GameOptionSpecTab@@MAEXABVioHashString@@PAVioUIRenderImage@@@Z ENDP ; GameOptionSpecTab::AddRenderImage
_TEXT	ENDS
PUBLIC	?GetDefaultSpecButtonID@GameOptionSpecTab@@QAEKXZ ; GameOptionSpecTab::GetDefaultSpecButtonID
; Function compile flags: /Ogsp
;	COMDAT ?GetDefaultSpecButtonID@GameOptionSpecTab@@QAEKXZ
_TEXT	SEGMENT
?GetDefaultSpecButtonID@GameOptionSpecTab@@QAEKXZ PROC	; GameOptionSpecTab::GetDefaultSpecButtonID, COMDAT
; _this$ = ecx

; 603  : 	switch( m_DefaultSpec )

  00000	8b 81 60 01 00
	00		 mov	 eax, DWORD PTR [ecx+352]
  00006	83 e8 00	 sub	 eax, 0
  00009	74 26		 je	 SHORT $LN5@GetDefault
  0000b	48		 dec	 eax
  0000c	74 1f		 je	 SHORT $LN4@GetDefault
  0000e	48		 dec	 eax
  0000f	74 18		 je	 SHORT $LN3@GetDefault
  00011	48		 dec	 eax
  00012	74 11		 je	 SHORT $LN2@GetDefault
  00014	48		 dec	 eax
  00015	74 0a		 je	 SHORT $LN1@GetDefault
  00017	48		 dec	 eax
  00018	74 03		 je	 SHORT $LN6@GetDefault

; 617  : 	}
; 618  : 	return 0;

  0001a	33 c0		 xor	 eax, eax

; 619  : }

  0001c	c3		 ret	 0
$LN6@GetDefault:

; 604  : 	{
; 605  : 	case Setting::VERY_HIGH_SPEC:
; 606  : 		return ID_VERY_HIGH_SPEC;

  0001d	33 c0		 xor	 eax, eax
  0001f	40		 inc	 eax

; 619  : }

  00020	c3		 ret	 0
$LN1@GetDefault:

; 615  : 	case Setting::CUSTOM_SPEC:
; 616  : 		return ID_CUSTOM_SPEC;

  00021	6a 06		 push	 6

; 607  : 	case Setting::HIGH_SPEC:
; 608  : 		return ID_HIGH_SPEC;

  00023	58		 pop	 eax

; 619  : }

  00024	c3		 ret	 0
$LN2@GetDefault:

; 613  : 	case Setting::MINIMUM_SPEC:
; 614  : 		return ID_MINIMUM_SPEC;

  00025	6a 05		 push	 5

; 607  : 	case Setting::HIGH_SPEC:
; 608  : 		return ID_HIGH_SPEC;

  00027	58		 pop	 eax

; 619  : }

  00028	c3		 ret	 0
$LN3@GetDefault:

; 611  : 	case Setting::LOW_SPEC:
; 612  : 		return ID_LOW_SPEC;

  00029	6a 04		 push	 4

; 607  : 	case Setting::HIGH_SPEC:
; 608  : 		return ID_HIGH_SPEC;

  0002b	58		 pop	 eax

; 619  : }

  0002c	c3		 ret	 0
$LN4@GetDefault:

; 609  : 	case Setting::MIDDLE_SPEC:
; 610  : 		return ID_MIDDLE_SPEC;

  0002d	6a 03		 push	 3

; 607  : 	case Setting::HIGH_SPEC:
; 608  : 		return ID_HIGH_SPEC;

  0002f	58		 pop	 eax

; 619  : }

  00030	c3		 ret	 0
$LN5@GetDefault:

; 607  : 	case Setting::HIGH_SPEC:
; 608  : 		return ID_HIGH_SPEC;

  00031	6a 02		 push	 2
  00033	58		 pop	 eax

; 619  : }

  00034	c3		 ret	 0
?GetDefaultSpecButtonID@GameOptionSpecTab@@QAEKXZ ENDP	; GameOptionSpecTab::GetDefaultSpecButtonID
_TEXT	ENDS
PUBLIC	??_R0?AVResolutionConfirm@@@8			; ResolutionConfirm `RTTI Type Descriptor'
EXTRN	?OpenConfirm@ResolutionConfirm@@QAEXPAVioWnd@@HH@Z:PROC ; ResolutionConfirm::OpenConfirm
EXTRN	__imp_?FindWnd@ioGUIManager@@QAEPAVioWnd@@K@Z:PROC
EXTRN	?GetSingleton@ioSP2GUIManager@@SAAAV1@XZ:PROC	; ioSP2GUIManager::GetSingleton
;	COMDAT ??_R0?AVResolutionConfirm@@@8
_DATA	SEGMENT
??_R0?AVResolutionConfirm@@@8 DD FLAT:??_7type_info@@6B@ ; ResolutionConfirm `RTTI Type Descriptor'
	DD	00H
	DB	'.?AVResolutionConfirm@@', 00H
; Function compile flags: /Ogsp
_DATA	ENDS
;	COMDAT ?CheckResolutionChange@GameOptionSpecTab@@MAE_NABUSettingOption@@@Z
_TEXT	SEGMENT
_rkPreOption$ = 8					; size = 4
?CheckResolutionChange@GameOptionSpecTab@@MAE_NABUSettingOption@@@Z PROC ; GameOptionSpecTab::CheckResolutionChange, COMDAT
; _this$ = ecx

; 810  : {

  00000	55		 push	 ebp
  00001	8b ec		 mov	 ebp, esp
  00003	53		 push	 ebx
  00004	56		 push	 esi
  00005	8b f1		 mov	 esi, ecx

; 811  : 	if( !m_CurrentOption.m_bFullScreen )

  00007	8a 9e 64 01 00
	00		 mov	 bl, BYTE PTR [esi+356]
  0000d	84 db		 test	 bl, bl
  0000f	75 04		 jne	 SHORT $LN4@CheckResol
$LN7@CheckResol:

; 812  : 		return false;

  00011	32 c0		 xor	 al, al
  00013	eb 7c		 jmp	 SHORT $LN5@CheckResol
$LN4@CheckResol:

; 813  : 
; 814  : 	m_iRestoreWidth  = rkPreOption.m_iWidth;

  00015	8b 4d 08	 mov	 ecx, DWORD PTR _rkPreOption$[ebp]
  00018	8b 51 28	 mov	 edx, DWORD PTR [ecx+40]
  0001b	57		 push	 edi
  0001c	89 96 08 02 00
	00		 mov	 DWORD PTR [esi+520], edx

; 815  : 	m_iRestoreHeight = rkPreOption.m_iHeight;

  00022	8b 79 2c	 mov	 edi, DWORD PTR [ecx+44]
  00025	89 be 0c 02 00
	00		 mov	 DWORD PTR [esi+524], edi

; 816  : 	m_bRestoreFullScreen = rkPreOption.m_bFullScreen;

  0002b	8a 09		 mov	 cl, BYTE PTR [ecx]
  0002d	88 8e 10 02 00
	00		 mov	 BYTE PTR [esi+528], cl
  00033	5f		 pop	 edi

; 817  : 
; 818  : 	if( m_iRestoreWidth != m_CurrentOption.m_iWidth ||
; 819  : 		m_iRestoreHeight != m_CurrentOption.m_iHeight ||
; 820  : 		m_bRestoreFullScreen != m_CurrentOption.m_bFullScreen )	//  .

  00034	3b 96 8c 01 00
	00		 cmp	 edx, DWORD PTR [esi+396]
  0003a	75 12		 jne	 SHORT $LN2@CheckResol
  0003c	8b 86 0c 02 00
	00		 mov	 eax, DWORD PTR [esi+524]
  00042	3b 86 90 01 00
	00		 cmp	 eax, DWORD PTR [esi+400]
  00048	75 04		 jne	 SHORT $LN2@CheckResol
  0004a	3a cb		 cmp	 cl, bl

; 829  : 	}
; 830  : 
; 831  : 	return false;

  0004c	74 c3		 je	 SHORT $LN7@CheckResol
$LN2@CheckResol:

; 821  : 	{
; 822  : 		ResolutionConfirm *pConfirm = dynamic_cast<ResolutionConfirm*> (g_GUIMgr.FindWnd( RESOLUTION_CONFIRM_WND ));

  0004e	6a 00		 push	 0
  00050	68 00 00 00 00	 push	 OFFSET ??_R0?AVResolutionConfirm@@@8
  00055	68 00 00 00 00	 push	 OFFSET ??_R0?AVioWnd@@@8
  0005a	6a 00		 push	 0
  0005c	68 b6 17 00 00	 push	 6070			; 000017b6H
  00061	e8 00 00 00 00	 call	 ?GetSingleton@ioSP2GUIManager@@SAAAV1@XZ ; ioSP2GUIManager::GetSingleton
  00066	8b c8		 mov	 ecx, eax
  00068	ff 15 00 00 00
	00		 call	 DWORD PTR __imp_?FindWnd@ioGUIManager@@QAEPAVioWnd@@K@Z
  0006e	50		 push	 eax
  0006f	e8 00 00 00 00	 call	 ___RTDynamicCast
  00074	83 c4 14	 add	 esp, 20			; 00000014H

; 823  : 		if( pConfirm )

  00077	85 c0		 test	 eax, eax
  00079	74 14		 je	 SHORT $LN1@CheckResol

; 824  : 		{
; 825  : 			pConfirm->OpenConfirm( this, m_CurrentOption.m_iWidth, m_CurrentOption.m_iHeight );

  0007b	ff b6 90 01 00
	00		 push	 DWORD PTR [esi+400]
  00081	8b c8		 mov	 ecx, eax
  00083	ff b6 8c 01 00
	00		 push	 DWORD PTR [esi+396]
  00089	56		 push	 esi
  0008a	e8 00 00 00 00	 call	 ?OpenConfirm@ResolutionConfirm@@QAEXPAVioWnd@@HH@Z ; ResolutionConfirm::OpenConfirm
$LN1@CheckResol:

; 826  : 		}
; 827  : 
; 828  : 		return true;	//    .

  0008f	b0 01		 mov	 al, 1
$LN5@CheckResol:
  00091	5e		 pop	 esi
  00092	5b		 pop	 ebx

; 832  : }

  00093	5d		 pop	 ebp
  00094	c2 04 00	 ret	 4
?CheckResolutionChange@GameOptionSpecTab@@MAE_NABUSettingOption@@@Z ENDP ; GameOptionSpecTab::CheckResolutionChange
_TEXT	ENDS
PUBLIC	?SetCustomSpec@GameOptionSpecTab@@IAEXXZ	; GameOptionSpecTab::SetCustomSpec
; Function compile flags: /Ogsp
;	COMDAT ?SetCustomSpec@GameOptionSpecTab@@IAEXXZ
_TEXT	SEGMENT
?SetCustomSpec@GameOptionSpecTab@@IAEXXZ PROC		; GameOptionSpecTab::SetCustomSpec, COMDAT
; _this$ = ecx

; 836  : 	m_DefaultSpec = Setting::CUSTOM_SPEC;

  00000	c7 81 60 01 00
	00 04 00 00 00	 mov	 DWORD PTR [ecx+352], 4

; 837  : }

  0000a	c3		 ret	 0
?SetCustomSpec@GameOptionSpecTab@@IAEXXZ ENDP		; GameOptionSpecTab::SetCustomSpec
_TEXT	ENDS
PUBLIC	?UnCheckAutoSpec@GameOptionSpecTab@@IAEXXZ	; GameOptionSpecTab::UnCheckAutoSpec
; Function compile flags: /Ogsp
;	COMDAT ?UnCheckAutoSpec@GameOptionSpecTab@@IAEXXZ
_TEXT	SEGMENT
?UnCheckAutoSpec@GameOptionSpecTab@@IAEXXZ PROC		; GameOptionSpecTab::UnCheckAutoSpec, COMDAT
; _this$ = ecx

; 841  : 	m_CurrentOption.m_bSpecAutoCheck = false;
; 842  : 	SetButtonCheck( ID_SPEC_AUTO_CHECK, false );

  00000	6a 00		 push	 0
  00002	6a 38		 push	 56			; 00000038H
  00004	c6 81 6d 01 00
	00 00		 mov	 BYTE PTR [ecx+365], 0
  0000b	e8 00 00 00 00	 call	 ?SetButtonCheck@GameOptionBasicWnd@@IAEXK_N@Z ; GameOptionBasicWnd::SetButtonCheck

; 843  : }

  00010	c3		 ret	 0
?UnCheckAutoSpec@GameOptionSpecTab@@IAEXXZ ENDP		; GameOptionSpecTab::UnCheckAutoSpec
_TEXT	ENDS
PUBLIC	?SetSpecOption@GameOptionSpecTab@@IAEXK@Z	; GameOptionSpecTab::SetSpecOption
EXTRN	?SetOptionBySpec@Setting@@SAXAAUSettingOption@@W4Spec@1@@Z:PROC ; Setting::SetOptionBySpec
; Function compile flags: /Ogsp
;	COMDAT ?SetSpecOption@GameOptionSpecTab@@IAEXK@Z
_TEXT	SEGMENT
_dwID$ = 8						; size = 4
?SetSpecOption@GameOptionSpecTab@@IAEXK@Z PROC		; GameOptionSpecTab::SetSpecOption, COMDAT
; _this$ = ecx

; 846  : {

  00000	55		 push	 ebp
  00001	8b ec		 mov	 ebp, esp

; 847  : 	switch( dwID )

  00003	8b 45 08	 mov	 eax, DWORD PTR _dwID$[ebp]
  00006	48		 dec	 eax
  00007	56		 push	 esi
  00008	6a 04		 push	 4
  0000a	8b f1		 mov	 esi, ecx
  0000c	59		 pop	 ecx
  0000d	74 44		 je	 SHORT $LN7@SetSpecOpt
  0000f	48		 dec	 eax
  00010	74 38		 je	 SHORT $LN6@SetSpecOpt
  00012	48		 dec	 eax
  00013	74 29		 je	 SHORT $LN5@SetSpecOpt
  00015	48		 dec	 eax
  00016	74 1a		 je	 SHORT $LN4@SetSpecOpt
  00018	48		 dec	 eax
  00019	74 0b		 je	 SHORT $LN3@SetSpecOpt
  0001b	48		 dec	 eax
  0001c	75 3f		 jne	 SHORT $LN8@SetSpecOpt

; 864  : 	case ID_CUSTOM_SPEC:
; 865  : 		m_DefaultSpec = Setting::CUSTOM_SPEC;

  0001e	89 8e 60 01 00
	00		 mov	 DWORD PTR [esi+352], ecx

; 866  : 		break;

  00024	eb 37		 jmp	 SHORT $LN8@SetSpecOpt
$LN3@SetSpecOpt:

; 861  : 	case ID_MINIMUM_SPEC:
; 862  : 		m_DefaultSpec = Setting::MINIMUM_SPEC;

  00026	c7 86 60 01 00
	00 03 00 00 00	 mov	 DWORD PTR [esi+352], 3

; 863  : 		break;

  00030	eb 2b		 jmp	 SHORT $LN8@SetSpecOpt
$LN4@SetSpecOpt:

; 858  : 	case ID_LOW_SPEC:
; 859  : 		m_DefaultSpec = Setting::LOW_SPEC;

  00032	c7 86 60 01 00
	00 02 00 00 00	 mov	 DWORD PTR [esi+352], 2

; 860  : 		break;

  0003c	eb 1f		 jmp	 SHORT $LN8@SetSpecOpt
$LN5@SetSpecOpt:

; 855  : 	case ID_MIDDLE_SPEC:
; 856  : 		m_DefaultSpec = Setting::MIDDLE_SPEC;

  0003e	c7 86 60 01 00
	00 01 00 00 00	 mov	 DWORD PTR [esi+352], 1

; 857  : 		break;

  00048	eb 13		 jmp	 SHORT $LN8@SetSpecOpt
$LN6@SetSpecOpt:

; 851  : 		break;
; 852  : 	case ID_HIGH_SPEC:
; 853  : 		m_DefaultSpec = Setting::HIGH_SPEC;

  0004a	83 a6 60 01 00
	00 00		 and	 DWORD PTR [esi+352], 0

; 854  : 		break;

  00051	eb 0a		 jmp	 SHORT $LN8@SetSpecOpt
$LN7@SetSpecOpt:

; 848  : 	{
; 849  : 	case ID_VERY_HIGH_SPEC:
; 850  : 		m_DefaultSpec = Setting::VERY_HIGH_SPEC;

  00053	c7 86 60 01 00
	00 05 00 00 00	 mov	 DWORD PTR [esi+352], 5
$LN8@SetSpecOpt:

; 867  : 	}
; 868  : 
; 869  : 	if( m_DefaultSpec != Setting::CUSTOM_SPEC )

  0005d	8b 86 60 01 00
	00		 mov	 eax, DWORD PTR [esi+352]
  00063	3b c1		 cmp	 eax, ecx
  00065	74 0f		 je	 SHORT $LN1@SetSpecOpt

; 870  : 	{
; 871  : 		Setting::SetOptionBySpec( m_CurrentOption, m_DefaultSpec );

  00067	50		 push	 eax
  00068	8d 86 64 01 00
	00		 lea	 eax, DWORD PTR [esi+356]
  0006e	50		 push	 eax
  0006f	e8 00 00 00 00	 call	 ?SetOptionBySpec@Setting@@SAXAAUSettingOption@@W4Spec@1@@Z ; Setting::SetOptionBySpec
  00074	59		 pop	 ecx
  00075	59		 pop	 ecx
$LN1@SetSpecOpt:

; 872  : 	}
; 873  : 
; 874  : 	UnCheckAutoSpec();

  00076	8b ce		 mov	 ecx, esi
  00078	e8 00 00 00 00	 call	 ?UnCheckAutoSpec@GameOptionSpecTab@@IAEXXZ ; GameOptionSpecTab::UnCheckAutoSpec

; 875  : 
; 876  : 	UpdateByCurrentOption();

  0007d	8b 06		 mov	 eax, DWORD PTR [esi]
  0007f	8b ce		 mov	 ecx, esi
  00081	ff 90 30 01 00
	00		 call	 DWORD PTR [eax+304]

; 877  : 	SetChildActive( ID_APPLY );

  00087	6a 34		 push	 52			; 00000034H
  00089	8b ce		 mov	 ecx, esi
  0008b	ff 15 00 00 00
	00		 call	 DWORD PTR __imp_?SetChildActive@ioWnd@@QAEXK@Z
  00091	5e		 pop	 esi

; 878  : }

  00092	5d		 pop	 ebp
  00093	c2 04 00	 ret	 4
?SetSpecOption@GameOptionSpecTab@@IAEXK@Z ENDP		; GameOptionSpecTab::SetSpecOption
_TEXT	ENDS
PUBLIC	?SetOnOffOption@GameOptionSpecTab@@IAEXAA_N@Z	; GameOptionSpecTab::SetOnOffOption
; Function compile flags: /Ogsp
;	COMDAT ?SetOnOffOption@GameOptionSpecTab@@IAEXAA_N@Z
_TEXT	SEGMENT
_bOption$ = 8						; size = 4
?SetOnOffOption@GameOptionSpecTab@@IAEXAA_N@Z PROC	; GameOptionSpecTab::SetOnOffOption, COMDAT
; _this$ = ecx

; 881  : {

  00000	55		 push	 ebp
  00001	8b ec		 mov	 ebp, esp

; 882  : 	bOption = !bOption;

  00003	8b 45 08	 mov	 eax, DWORD PTR _bOption$[ebp]
  00006	80 38 00	 cmp	 BYTE PTR [eax], 0
  00009	56		 push	 esi
  0000a	8b f1		 mov	 esi, ecx
  0000c	0f 94 c1	 sete	 cl
  0000f	88 08		 mov	 BYTE PTR [eax], cl

; 883  : 
; 884  : 	SetCustomSpec();
; 885  : 	UnCheckAutoSpec();

  00011	8b ce		 mov	 ecx, esi
  00013	c7 86 60 01 00
	00 04 00 00 00	 mov	 DWORD PTR [esi+352], 4
  0001d	e8 00 00 00 00	 call	 ?UnCheckAutoSpec@GameOptionSpecTab@@IAEXXZ ; GameOptionSpecTab::UnCheckAutoSpec

; 886  : 
; 887  : 	SetChildActive( ID_APPLY );

  00022	6a 34		 push	 52			; 00000034H
  00024	8b ce		 mov	 ecx, esi
  00026	ff 15 00 00 00
	00		 call	 DWORD PTR __imp_?SetChildActive@ioWnd@@QAEXK@Z
  0002c	5e		 pop	 esi

; 888  : }

  0002d	5d		 pop	 ebp
  0002e	c2 04 00	 ret	 4
?SetOnOffOption@GameOptionSpecTab@@IAEXAA_N@Z ENDP	; GameOptionSpecTab::SetOnOffOption
_TEXT	ENDS
PUBLIC	??_C@_0CJ@OODLPJMF@GameOptionSpecTab?3?3SetAntiAliasi@ ; `string'
PUBLIC	?SetAntiAliasingOption@GameOptionSpecTab@@IAEXK@Z ; GameOptionSpecTab::SetAntiAliasingOption
EXTRN	?SetMsgBox@ioSP2GUIManager@@QAAXHPAVioWnd@@PBDZZ:PROC ; ioSP2GUIManager::SetMsgBox
EXTRN	__imp_?CheckRadioButton@ioWnd@@QAEXKKK@Z:PROC
;	COMDAT ??_C@_0CJ@OODLPJMF@GameOptionSpecTab?3?3SetAntiAliasi@
CONST	SEGMENT
??_C@_0CJ@OODLPJMF@GameOptionSpecTab?3?3SetAntiAliasi@ DB 'GameOptionSpec'
	DB	'Tab::SetAntiAliasingOption', 00H		; `string'
; Function compile flags: /Ogsp
CONST	ENDS
;	COMDAT ?SetAntiAliasingOption@GameOptionSpecTab@@IAEXK@Z
_TEXT	SEGMENT
_dwID$ = 8						; size = 4
?SetAntiAliasingOption@GameOptionSpecTab@@IAEXK@Z PROC	; GameOptionSpecTab::SetAntiAliasingOption, COMDAT
; _this$ = ecx

; 891  : {

  00000	55		 push	 ebp
  00001	8b ec		 mov	 ebp, esp
  00003	53		 push	 ebx
  00004	56		 push	 esi
  00005	8b f1		 mov	 esi, ecx
  00007	33 db		 xor	 ebx, ebx
$LL13@SetAntiAli:

; 892  : 	CheckRadioButton( ID_ANTI_ALIASING_QUALITY, ID_ANTI_ALIASING_LOW, dwID );

  00009	ff 75 08	 push	 DWORD PTR _dwID$[ebp]
  0000c	8b ce		 mov	 ecx, esi
  0000e	6a 0e		 push	 14			; 0000000eH
  00010	6a 0b		 push	 11			; 0000000bH
  00012	ff 15 00 00 00
	00		 call	 DWORD PTR __imp_?CheckRadioButton@ioWnd@@QAEXKKK@Z

; 893  : 
; 894  : 	switch( dwID )

  00018	8b 45 08	 mov	 eax, DWORD PTR _dwID$[ebp]
  0001b	83 e8 0b	 sub	 eax, 11			; 0000000bH
  0001e	74 2d		 je	 SHORT $LN6@SetAntiAli
  00020	48		 dec	 eax
  00021	74 1e		 je	 SHORT $LN5@SetAntiAli
  00023	48		 dec	 eax
  00024	74 0f		 je	 SHORT $LN4@SetAntiAli
  00026	48		 dec	 eax
  00027	75 2a		 jne	 SHORT $LN7@SetAntiAli

; 905  : 	case ID_ANTI_ALIASING_LOW:
; 906  : 		m_CurrentOption.m_AntiAliasingQuality = AQ_LOW;

  00029	c7 86 70 01 00
	00 01 00 00 00	 mov	 DWORD PTR [esi+368], 1

; 907  : 		break;

  00033	eb 26		 jmp	 SHORT $LN15@SetAntiAli
$LN4@SetAntiAli:

; 902  : 	case ID_ANTI_ALIASING_MIDDLE:
; 903  : 		m_CurrentOption.m_AntiAliasingQuality = AQ_MIDDLE;

  00035	c7 86 70 01 00
	00 02 00 00 00	 mov	 DWORD PTR [esi+368], 2

; 904  : 		break;

  0003f	eb 1a		 jmp	 SHORT $LN15@SetAntiAli
$LN5@SetAntiAli:

; 898  : 		break;
; 899  : 	case ID_ANTI_ALIASING_HIGH:
; 900  : 		m_CurrentOption.m_AntiAliasingQuality = AQ_HIGH;

  00041	c7 86 70 01 00
	00 03 00 00 00	 mov	 DWORD PTR [esi+368], 3

; 901  : 		break;

  0004b	eb 0e		 jmp	 SHORT $LN15@SetAntiAli
$LN6@SetAntiAli:

; 895  : 	{
; 896  : 	case ID_ANTI_ALIASING_QUALITY:
; 897  : 		m_CurrentOption.m_AntiAliasingQuality = AQ_NONE;

  0004d	89 9e 70 01 00
	00		 mov	 DWORD PTR [esi+368], ebx
$LN7@SetAntiAli:

; 908  : 	}
; 909  : 
; 910  : 	if( m_CurrentOption.m_AntiAliasingQuality != AQ_NONE )

  00053	39 9e 70 01 00
	00		 cmp	 DWORD PTR [esi+368], ebx
  00059	74 40		 je	 SHORT $LN1@SetAntiAli
$LN15@SetAntiAli:

; 911  : 	{
; 912  : 		if( m_CurrentOption.m_bSwapCopy )

  0005b	38 9e 6e 01 00
	00		 cmp	 BYTE PTR [esi+366], bl
  00061	74 38		 je	 SHORT $LN1@SetAntiAli

; 913  : 		{
; 914  : 			g_GUIMgr.SetMsgBox( MB_OK, NULL, STR(1) );

  00063	53		 push	 ebx
  00064	6a 01		 push	 1
  00066	68 00 00 00 00	 push	 OFFSET ??_C@_00CNPNBAHC@?$AA@
  0006b	68 00 00 00 00	 push	 OFFSET ??_C@_0CJ@OODLPJMF@GameOptionSpecTab?3?3SetAntiAliasi@
  00070	ff 15 00 00 00
	00		 call	 DWORD PTR __imp_?GetSingleton@ioStringManager@@SAAAV1@XZ
  00076	8b c8		 mov	 ecx, eax
  00078	ff 15 00 00 00
	00		 call	 DWORD PTR __imp_?GetString@ioStringManager@@QAEPADPBD0HW4FileNamePrefix@1@@Z
  0007e	50		 push	 eax
  0007f	53		 push	 ebx
  00080	53		 push	 ebx
  00081	e8 00 00 00 00	 call	 ?GetSingleton@ioSP2GUIManager@@SAAAV1@XZ ; ioSP2GUIManager::GetSingleton
  00086	50		 push	 eax
  00087	e8 00 00 00 00	 call	 ?SetMsgBox@ioSP2GUIManager@@QAAXHPAVioWnd@@PBDZZ ; ioSP2GUIManager::SetMsgBox
  0008c	83 c4 10	 add	 esp, 16			; 00000010H

; 915  : 			SetAntiAliasingOption( ID_ANTI_ALIASING_QUALITY );

  0008f	c7 45 08 0b 00
	00 00		 mov	 DWORD PTR _dwID$[ebp], 11 ; 0000000bH
  00096	e9 6e ff ff ff	 jmp	 $LL13@SetAntiAli
$LN1@SetAntiAli:

; 916  : 			return;
; 917  : 		}
; 918  : 	}
; 919  : 
; 920  : 	SetCustomSpec();
; 921  : 	UnCheckAutoSpec();

  0009b	8b ce		 mov	 ecx, esi
  0009d	c7 86 60 01 00
	00 04 00 00 00	 mov	 DWORD PTR [esi+352], 4
  000a7	e8 00 00 00 00	 call	 ?UnCheckAutoSpec@GameOptionSpecTab@@IAEXXZ ; GameOptionSpecTab::UnCheckAutoSpec

; 922  : 	SetChildActive( ID_APPLY );

  000ac	6a 34		 push	 52			; 00000034H
  000ae	8b ce		 mov	 ecx, esi
  000b0	ff 15 00 00 00
	00		 call	 DWORD PTR __imp_?SetChildActive@ioWnd@@QAEXK@Z
  000b6	5e		 pop	 esi
  000b7	5b		 pop	 ebx

; 923  : }

  000b8	5d		 pop	 ebp
  000b9	c2 04 00	 ret	 4
?SetAntiAliasingOption@GameOptionSpecTab@@IAEXK@Z ENDP	; GameOptionSpecTab::SetAntiAliasingOption
_TEXT	ENDS
PUBLIC	?SetTextureOption@GameOptionSpecTab@@IAEXK@Z	; GameOptionSpecTab::SetTextureOption
; Function compile flags: /Ogsp
;	COMDAT ?SetTextureOption@GameOptionSpecTab@@IAEXK@Z
_TEXT	SEGMENT
_dwID$ = 8						; size = 4
?SetTextureOption@GameOptionSpecTab@@IAEXK@Z PROC	; GameOptionSpecTab::SetTextureOption, COMDAT
; _this$ = ecx

; 926  : {

  00000	55		 push	 ebp
  00001	8b ec		 mov	 ebp, esp
  00003	56		 push	 esi

; 927  : 	CheckRadioButton( ID_TEXTURE_HIGH, ID_TEXTURE_LOW, dwID );

  00004	ff 75 08	 push	 DWORD PTR _dwID$[ebp]
  00007	8b f1		 mov	 esi, ecx
  00009	6a 26		 push	 38			; 00000026H
  0000b	6a 24		 push	 36			; 00000024H
  0000d	ff 15 00 00 00
	00		 call	 DWORD PTR __imp_?CheckRadioButton@ioWnd@@QAEXKKK@Z

; 928  : 
; 929  : 	switch( dwID )

  00013	8b 45 08	 mov	 eax, DWORD PTR _dwID$[ebp]
  00016	83 e8 24	 sub	 eax, 36			; 00000024H
  00019	74 1e		 je	 SHORT $LN3@SetTexture
  0001b	48		 dec	 eax
  0001c	74 0f		 je	 SHORT $LN2@SetTexture
  0001e	48		 dec	 eax
  0001f	75 22		 jne	 SHORT $LN4@SetTexture

; 937  : 	case ID_TEXTURE_LOW:
; 938  : 		m_CurrentOption.m_TextureQuality = TQ_LOW;

  00021	c7 86 74 01 00
	00 01 00 00 00	 mov	 DWORD PTR [esi+372], 1

; 939  : 		break;

  0002b	eb 16		 jmp	 SHORT $LN4@SetTexture
$LN2@SetTexture:

; 933  : 		break;
; 934  : 	case ID_TEXTURE_MIDDLE:
; 935  : 		m_CurrentOption.m_TextureQuality = TQ_MIDDLE;

  0002d	c7 86 74 01 00
	00 02 00 00 00	 mov	 DWORD PTR [esi+372], 2

; 936  : 		break;

  00037	eb 0a		 jmp	 SHORT $LN4@SetTexture
$LN3@SetTexture:

; 930  : 	{
; 931  : 	case ID_TEXTURE_HIGH:
; 932  : 		m_CurrentOption.m_TextureQuality = TQ_HIGH;

  00039	c7 86 74 01 00
	00 03 00 00 00	 mov	 DWORD PTR [esi+372], 3
$LN4@SetTexture:

; 940  : 	}
; 941  : 
; 942  : 	SetCustomSpec();
; 943  : 	UnCheckAutoSpec();

  00043	8b ce		 mov	 ecx, esi
  00045	c7 86 60 01 00
	00 04 00 00 00	 mov	 DWORD PTR [esi+352], 4
  0004f	e8 00 00 00 00	 call	 ?UnCheckAutoSpec@GameOptionSpecTab@@IAEXXZ ; GameOptionSpecTab::UnCheckAutoSpec

; 944  : 
; 945  : 	SetChildActive( ID_APPLY );

  00054	6a 34		 push	 52			; 00000034H
  00056	8b ce		 mov	 ecx, esi
  00058	ff 15 00 00 00
	00		 call	 DWORD PTR __imp_?SetChildActive@ioWnd@@QAEXK@Z
  0005e	5e		 pop	 esi

; 946  : }

  0005f	5d		 pop	 ebp
  00060	c2 04 00	 ret	 4
?SetTextureOption@GameOptionSpecTab@@IAEXK@Z ENDP	; GameOptionSpecTab::SetTextureOption
_TEXT	ENDS
PUBLIC	?SetLightOption@GameOptionSpecTab@@IAEXK@Z	; GameOptionSpecTab::SetLightOption
; Function compile flags: /Ogsp
;	COMDAT ?SetLightOption@GameOptionSpecTab@@IAEXK@Z
_TEXT	SEGMENT
_dwID$ = 8						; size = 4
?SetLightOption@GameOptionSpecTab@@IAEXK@Z PROC		; GameOptionSpecTab::SetLightOption, COMDAT
; _this$ = ecx

; 949  : {

  00000	55		 push	 ebp
  00001	8b ec		 mov	 ebp, esp
  00003	56		 push	 esi

; 950  : 	CheckRadioButton( ID_LIGHT_HIGH, ID_LIGHT_LOW, dwID );

  00004	ff 75 08	 push	 DWORD PTR _dwID$[ebp]
  00007	8b f1		 mov	 esi, ecx
  00009	6a 1c		 push	 28			; 0000001cH
  0000b	6a 1a		 push	 26			; 0000001aH
  0000d	ff 15 00 00 00
	00		 call	 DWORD PTR __imp_?CheckRadioButton@ioWnd@@QAEXKKK@Z

; 951  : 
; 952  : 	switch( dwID )

  00013	8b 45 08	 mov	 eax, DWORD PTR _dwID$[ebp]
  00016	83 e8 1a	 sub	 eax, 26			; 0000001aH
  00019	74 1a		 je	 SHORT $LN3@SetLightOp
  0001b	48		 dec	 eax
  0001c	74 0b		 je	 SHORT $LN2@SetLightOp
  0001e	48		 dec	 eax
  0001f	75 1e		 jne	 SHORT $LN4@SetLightOp

; 960  : 	case ID_LIGHT_LOW:
; 961  : 		m_CurrentOption.m_LightQuality = LQ_LOW;

  00021	21 86 78 01 00
	00		 and	 DWORD PTR [esi+376], eax

; 962  : 		break;

  00027	eb 16		 jmp	 SHORT $LN4@SetLightOp
$LN2@SetLightOp:

; 956  : 		break;
; 957  : 	case ID_LIGHT_MIDDLE:
; 958  : 		m_CurrentOption.m_LightQuality = LQ_MIDDLE;

  00029	c7 86 78 01 00
	00 01 00 00 00	 mov	 DWORD PTR [esi+376], 1

; 959  : 		break;

  00033	eb 0a		 jmp	 SHORT $LN4@SetLightOp
$LN3@SetLightOp:

; 953  : 	{
; 954  : 	case ID_LIGHT_HIGH:
; 955  : 		m_CurrentOption.m_LightQuality = LQ_HIGH;

  00035	c7 86 78 01 00
	00 02 00 00 00	 mov	 DWORD PTR [esi+376], 2
$LN4@SetLightOp:

; 963  : 	}
; 964  : 
; 965  : 	SetCustomSpec();
; 966  : 	UnCheckAutoSpec();

  0003f	8b ce		 mov	 ecx, esi
  00041	c7 86 60 01 00
	00 04 00 00 00	 mov	 DWORD PTR [esi+352], 4
  0004b	e8 00 00 00 00	 call	 ?UnCheckAutoSpec@GameOptionSpecTab@@IAEXXZ ; GameOptionSpecTab::UnCheckAutoSpec

; 967  : 
; 968  : 	SetChildActive( ID_APPLY );

  00050	6a 34		 push	 52			; 00000034H
  00052	8b ce		 mov	 ecx, esi
  00054	ff 15 00 00 00
	00		 call	 DWORD PTR __imp_?SetChildActive@ioWnd@@QAEXK@Z
  0005a	5e		 pop	 esi

; 969  : }

  0005b	5d		 pop	 ebp
  0005c	c2 04 00	 ret	 4
?SetLightOption@GameOptionSpecTab@@IAEXK@Z ENDP		; GameOptionSpecTab::SetLightOption
_TEXT	ENDS
PUBLIC	?SetEffectOption@GameOptionSpecTab@@IAEXK@Z	; GameOptionSpecTab::SetEffectOption
; Function compile flags: /Ogsp
;	COMDAT ?SetEffectOption@GameOptionSpecTab@@IAEXK@Z
_TEXT	SEGMENT
_dwID$ = 8						; size = 4
?SetEffectOption@GameOptionSpecTab@@IAEXK@Z PROC	; GameOptionSpecTab::SetEffectOption, COMDAT
; _this$ = ecx

; 972  : {

  00000	55		 push	 ebp
  00001	8b ec		 mov	 ebp, esp
  00003	56		 push	 esi

; 973  : 	CheckRadioButton( ID_EFFECT_HIGH, ID_EFFECT_LOW, dwID );

  00004	ff 75 08	 push	 DWORD PTR _dwID$[ebp]
  00007	8b f1		 mov	 esi, ecx
  00009	6a 2b		 push	 43			; 0000002bH
  0000b	6a 29		 push	 41			; 00000029H
  0000d	ff 15 00 00 00
	00		 call	 DWORD PTR __imp_?CheckRadioButton@ioWnd@@QAEXKKK@Z

; 974  : 
; 975  : 	switch( dwID )

  00013	8b 45 08	 mov	 eax, DWORD PTR _dwID$[ebp]
  00016	83 e8 29	 sub	 eax, 41			; 00000029H
  00019	74 1a		 je	 SHORT $LN3@SetEffectO
  0001b	48		 dec	 eax
  0001c	74 0b		 je	 SHORT $LN2@SetEffectO
  0001e	48		 dec	 eax
  0001f	75 1e		 jne	 SHORT $LN4@SetEffectO

; 983  : 	case ID_EFFECT_LOW:
; 984  : 		m_CurrentOption.m_EffectQuality = EQ_LOW;

  00021	21 86 7c 01 00
	00		 and	 DWORD PTR [esi+380], eax

; 985  : 		break;

  00027	eb 16		 jmp	 SHORT $LN4@SetEffectO
$LN2@SetEffectO:

; 979  : 		break;
; 980  : 	case ID_EFFECT_MIDDLE:
; 981  : 		m_CurrentOption.m_EffectQuality = EQ_MIDDLE;

  00029	c7 86 7c 01 00
	00 01 00 00 00	 mov	 DWORD PTR [esi+380], 1

; 982  : 		break;

  00033	eb 0a		 jmp	 SHORT $LN4@SetEffectO
$LN3@SetEffectO:

; 976  : 	{
; 977  : 	case ID_EFFECT_HIGH:
; 978  : 		m_CurrentOption.m_EffectQuality = EQ_HIGH;

  00035	c7 86 7c 01 00
	00 02 00 00 00	 mov	 DWORD PTR [esi+380], 2
$LN4@SetEffectO:

; 986  : 	}
; 987  : 
; 988  : 	SetCustomSpec();
; 989  : 	UnCheckAutoSpec();

  0003f	8b ce		 mov	 ecx, esi
  00041	c7 86 60 01 00
	00 04 00 00 00	 mov	 DWORD PTR [esi+352], 4
  0004b	e8 00 00 00 00	 call	 ?UnCheckAutoSpec@GameOptionSpecTab@@IAEXXZ ; GameOptionSpecTab::UnCheckAutoSpec

; 990  : 
; 991  : 	SetChildActive( ID_APPLY );

  00050	6a 34		 push	 52			; 00000034H
  00052	8b ce		 mov	 ecx, esi
  00054	ff 15 00 00 00
	00		 call	 DWORD PTR __imp_?SetChildActive@ioWnd@@QAEXK@Z
  0005a	5e		 pop	 esi

; 992  : }

  0005b	5d		 pop	 ebp
  0005c	c2 04 00	 ret	 4
?SetEffectOption@GameOptionSpecTab@@IAEXK@Z ENDP	; GameOptionSpecTab::SetEffectOption
_TEXT	ENDS
PUBLIC	?SetMapObjectOption@GameOptionSpecTab@@IAEXK@Z	; GameOptionSpecTab::SetMapObjectOption
; Function compile flags: /Ogsp
;	COMDAT ?SetMapObjectOption@GameOptionSpecTab@@IAEXK@Z
_TEXT	SEGMENT
_dwID$ = 8						; size = 4
?SetMapObjectOption@GameOptionSpecTab@@IAEXK@Z PROC	; GameOptionSpecTab::SetMapObjectOption, COMDAT
; _this$ = ecx

; 995  : {

  00000	55		 push	 ebp
  00001	8b ec		 mov	 ebp, esp
  00003	56		 push	 esi

; 996  : 	CheckRadioButton( ID_MAP_OBJECT_HIGH, ID_MAP_OBJECT_LOW, dwID );

  00004	ff 75 08	 push	 DWORD PTR _dwID$[ebp]
  00007	8b f1		 mov	 esi, ecx
  00009	6a 12		 push	 18			; 00000012H
  0000b	6a 10		 push	 16			; 00000010H
  0000d	ff 15 00 00 00
	00		 call	 DWORD PTR __imp_?CheckRadioButton@ioWnd@@QAEXKKK@Z

; 997  : 
; 998  : 	switch( dwID )

  00013	8b 45 08	 mov	 eax, DWORD PTR _dwID$[ebp]
  00016	83 e8 10	 sub	 eax, 16			; 00000010H
  00019	74 1a		 je	 SHORT $LN3@SetMapObje
  0001b	48		 dec	 eax
  0001c	74 0b		 je	 SHORT $LN2@SetMapObje
  0001e	48		 dec	 eax
  0001f	75 1e		 jne	 SHORT $LN4@SetMapObje

; 1006 : 	case ID_MAP_OBJECT_LOW:
; 1007 : 		m_CurrentOption.m_MapObjectQuality = MQ_LOW;

  00021	21 86 80 01 00
	00		 and	 DWORD PTR [esi+384], eax

; 1008 : 		break;

  00027	eb 16		 jmp	 SHORT $LN4@SetMapObje
$LN2@SetMapObje:

; 1002 : 		break;
; 1003 : 	case ID_MAP_OBJECT_MIDDLE:
; 1004 : 		m_CurrentOption.m_MapObjectQuality = MQ_MIDDLE;

  00029	c7 86 80 01 00
	00 01 00 00 00	 mov	 DWORD PTR [esi+384], 1

; 1005 : 		break;

  00033	eb 0a		 jmp	 SHORT $LN4@SetMapObje
$LN3@SetMapObje:

; 999  : 	{
; 1000 : 	case ID_MAP_OBJECT_HIGH:
; 1001 : 		m_CurrentOption.m_MapObjectQuality = MQ_HIGH;

  00035	c7 86 80 01 00
	00 02 00 00 00	 mov	 DWORD PTR [esi+384], 2
$LN4@SetMapObje:

; 1009 : 	}
; 1010 : 
; 1011 :     SetCustomSpec();
; 1012 : 	UnCheckAutoSpec();

  0003f	8b ce		 mov	 ecx, esi
  00041	c7 86 60 01 00
	00 04 00 00 00	 mov	 DWORD PTR [esi+352], 4
  0004b	e8 00 00 00 00	 call	 ?UnCheckAutoSpec@GameOptionSpecTab@@IAEXXZ ; GameOptionSpecTab::UnCheckAutoSpec

; 1013 : 
; 1014 : 	SetChildActive( ID_APPLY );

  00050	6a 34		 push	 52			; 00000034H
  00052	8b ce		 mov	 ecx, esi
  00054	ff 15 00 00 00
	00		 call	 DWORD PTR __imp_?SetChildActive@ioWnd@@QAEXK@Z
  0005a	5e		 pop	 esi

; 1015 : }

  0005b	5d		 pop	 ebp
  0005c	c2 04 00	 ret	 4
?SetMapObjectOption@GameOptionSpecTab@@IAEXK@Z ENDP	; GameOptionSpecTab::SetMapObjectOption
_TEXT	ENDS
PUBLIC	??_C@_0CD@HGJBOJF@GameOptionSpecTab?3?3ToggleMovieMo@ ; `string'
PUBLIC	?ToggleMovieMode@GameOptionSpecTab@@IAEXXZ	; GameOptionSpecTab::ToggleMovieMode
;	COMDAT ??_C@_0CD@HGJBOJF@GameOptionSpecTab?3?3ToggleMovieMo@
CONST	SEGMENT
??_C@_0CD@HGJBOJF@GameOptionSpecTab?3?3ToggleMovieMo@ DB 'GameOptionSpecT'
	DB	'ab::ToggleMovieMode', 00H			; `string'
; Function compile flags: /Ogsp
CONST	ENDS
;	COMDAT ?ToggleMovieMode@GameOptionSpecTab@@IAEXXZ
_TEXT	SEGMENT
?ToggleMovieMode@GameOptionSpecTab@@IAEXXZ PROC		; GameOptionSpecTab::ToggleMovieMode, COMDAT
; _this$ = ecx

; 1018 : {

  00000	53		 push	 ebx
  00001	56		 push	 esi
  00002	8b f1		 mov	 esi, ecx

; 1019 : 	if( m_CurrentOption.m_AntiAliasingQuality != AQ_NONE &&
; 1020 : 		!m_CurrentOption.m_bSwapCopy )	//  false..? =>   true 

  00004	33 db		 xor	 ebx, ebx
  00006	39 9e 70 01 00
	00		 cmp	 DWORD PTR [esi+368], ebx
  0000c	74 62		 je	 SHORT $LN2@ToggleMovi
  0000e	38 9e 6e 01 00
	00		 cmp	 BYTE PTR [esi+366], bl
  00014	75 60		 jne	 SHORT $LN7@ToggleMovi

; 1021 : 	{
; 1022 : 		g_GUIMgr.SetMsgBox( MB_OK, NULL, STR(1) );

  00016	53		 push	 ebx
  00017	6a 01		 push	 1
  00019	68 00 00 00 00	 push	 OFFSET ??_C@_00CNPNBAHC@?$AA@
  0001e	68 00 00 00 00	 push	 OFFSET ??_C@_0CD@HGJBOJF@GameOptionSpecTab?3?3ToggleMovieMo@
  00023	ff 15 00 00 00
	00		 call	 DWORD PTR __imp_?GetSingleton@ioStringManager@@SAAAV1@XZ
  00029	8b c8		 mov	 ecx, eax
  0002b	ff 15 00 00 00
	00		 call	 DWORD PTR __imp_?GetString@ioStringManager@@QAEPADPBD0HW4FileNamePrefix@1@@Z
  00031	50		 push	 eax
  00032	53		 push	 ebx
  00033	53		 push	 ebx
  00034	e8 00 00 00 00	 call	 ?GetSingleton@ioSP2GUIManager@@SAAAV1@XZ ; ioSP2GUIManager::GetSingleton
  00039	50		 push	 eax
  0003a	e8 00 00 00 00	 call	 ?SetMsgBox@ioSP2GUIManager@@QAAXHPAVioWnd@@PBDZZ ; ioSP2GUIManager::SetMsgBox
  0003f	83 c4 10	 add	 esp, 16			; 00000010H

; 1023 : 
; 1024 : 		ioCheckButton *pCheck = dynamic_cast<ioCheckButton*>( FindChildWnd( ID_MOVIE_MODE ) );

  00042	53		 push	 ebx
  00043	68 00 00 00 00	 push	 OFFSET ??_R0?AVioCheckButton@@@8
  00048	68 00 00 00 00	 push	 OFFSET ??_R0?AVioWnd@@@8
  0004d	53		 push	 ebx
  0004e	6a 39		 push	 57			; 00000039H
  00050	8b ce		 mov	 ecx, esi
  00052	ff 15 00 00 00
	00		 call	 DWORD PTR __imp_?FindChildWnd@ioWnd@@QAEPAV1@K@Z
  00058	50		 push	 eax
  00059	e8 00 00 00 00	 call	 ___RTDynamicCast
  0005e	83 c4 14	 add	 esp, 20			; 00000014H

; 1025 : 		if( pCheck )

  00061	3b c3		 cmp	 eax, ebx
  00063	74 35		 je	 SHORT $LN3@ToggleMovi

; 1026 : 		{
; 1027 : 			pCheck->SetCheck( false );

  00065	53		 push	 ebx
  00066	8b c8		 mov	 ecx, eax
  00068	ff 15 00 00 00
	00		 call	 DWORD PTR __imp_?SetCheck@ioCheckButton@@QAEX_N@Z

; 1028 : 		}
; 1029 : 
; 1030 : 		return;

  0006e	eb 2a		 jmp	 SHORT $LN3@ToggleMovi
$LN2@ToggleMovi:

; 1031 : 	}
; 1032 : 
; 1033 : 	m_CurrentOption.m_bSwapCopy = !m_CurrentOption.m_bSwapCopy;

  00070	38 9e 6e 01 00
	00		 cmp	 BYTE PTR [esi+366], bl
$LN7@ToggleMovi:
  00076	0f 94 c1	 sete	 cl
  00079	88 8e 6e 01 00
	00		 mov	 BYTE PTR [esi+366], cl

; 1034 : 
; 1035 : 	SetCustomSpec();
; 1036 : 	UnCheckAutoSpec();

  0007f	8b ce		 mov	 ecx, esi
  00081	c7 86 60 01 00
	00 04 00 00 00	 mov	 DWORD PTR [esi+352], 4
  0008b	e8 00 00 00 00	 call	 ?UnCheckAutoSpec@GameOptionSpecTab@@IAEXXZ ; GameOptionSpecTab::UnCheckAutoSpec

; 1037 : 	SetChildActive( ID_APPLY );

  00090	6a 34		 push	 52			; 00000034H
  00092	8b ce		 mov	 ecx, esi
  00094	ff 15 00 00 00
	00		 call	 DWORD PTR __imp_?SetChildActive@ioWnd@@QAEXK@Z
$LN3@ToggleMovi:

; 1038 : }

  0009a	5e		 pop	 esi
  0009b	5b		 pop	 ebx
  0009c	c3		 ret	 0
?ToggleMovieMode@GameOptionSpecTab@@IAEXXZ ENDP		; GameOptionSpecTab::ToggleMovieMode
_TEXT	ENDS
PUBLIC	??_C@_0CH@NBFEJJEJ@GameOptionSpecTab?3?3UpdateScreenB@ ; `string'
PUBLIC	?UpdateScreenBoxText@GameOptionSpecTab@@IAEXXZ	; GameOptionSpecTab::UpdateScreenBoxText
EXTRN	__imp_?SetTitleText@ioWnd@@QAEXPBD0H@Z:PROC
;	COMDAT ??_C@_0CH@NBFEJJEJ@GameOptionSpecTab?3?3UpdateScreenB@
CONST	SEGMENT
??_C@_0CH@NBFEJJEJ@GameOptionSpecTab?3?3UpdateScreenB@ DB 'GameOptionSpec'
	DB	'Tab::UpdateScreenBoxText', 00H		; `string'
; Function compile flags: /Ogsp
CONST	ENDS
;	COMDAT ?UpdateScreenBoxText@GameOptionSpecTab@@IAEXXZ
_TEXT	SEGMENT
?UpdateScreenBoxText@GameOptionSpecTab@@IAEXXZ PROC	; GameOptionSpecTab::UpdateScreenBoxText, COMDAT
; _this$ = ecx

; 1072 : {

  00000	56		 push	 esi
  00001	57		 push	 edi

; 1073 : 	ioWnd *pWnd = FindChildWnd( ID_SCREEN_BOX );

  00002	6a 17		 push	 23			; 00000017H
  00004	8b f1		 mov	 esi, ecx
  00006	ff 15 00 00 00
	00		 call	 DWORD PTR __imp_?FindChildWnd@ioWnd@@QAEPAV1@K@Z
  0000c	8b f8		 mov	 edi, eax

; 1074 : 	if( !pWnd )	return;

  0000e	33 c9		 xor	 ecx, ecx
  00010	3b f9		 cmp	 edi, ecx
  00012	74 33		 je	 SHORT $LN1@UpdateScre

; 1075 : 
; 1076 : 	if( m_CurrentOption.m_bFullScreen )
; 1077 : 	{
; 1078 : 		pWnd->SetTitleText( STR(1) );

  00014	51		 push	 ecx
  00015	b8 00 00 00 00	 mov	 eax, OFFSET ??_C@_00CNPNBAHC@?$AA@
  0001a	50		 push	 eax
  0001b	51		 push	 ecx
  0001c	38 8e 64 01 00
	00		 cmp	 BYTE PTR [esi+356], cl
  00022	74 04		 je	 SHORT $LN2@UpdateScre
  00024	6a 01		 push	 1

; 1079 : 	}
; 1080 : 	else

  00026	eb 02		 jmp	 SHORT $LN6@UpdateScre
$LN2@UpdateScre:

; 1081 : 	{
; 1082 : 		pWnd->SetTitleText( STR(2) );

  00028	6a 02		 push	 2
$LN6@UpdateScre:
  0002a	50		 push	 eax
  0002b	68 00 00 00 00	 push	 OFFSET ??_C@_0CH@NBFEJJEJ@GameOptionSpecTab?3?3UpdateScreenB@
  00030	ff 15 00 00 00
	00		 call	 DWORD PTR __imp_?GetSingleton@ioStringManager@@SAAAV1@XZ
  00036	8b c8		 mov	 ecx, eax
  00038	ff 15 00 00 00
	00		 call	 DWORD PTR __imp_?GetString@ioStringManager@@QAEPADPBD0HW4FileNamePrefix@1@@Z
  0003e	50		 push	 eax
  0003f	8b cf		 mov	 ecx, edi
  00041	ff 15 00 00 00
	00		 call	 DWORD PTR __imp_?SetTitleText@ioWnd@@QAEXPBD0H@Z
$LN1@UpdateScre:

; 1083 : 	}
; 1084 : }

  00047	5f		 pop	 edi
  00048	5e		 pop	 esi
  00049	c3		 ret	 0
?UpdateScreenBoxText@GameOptionSpecTab@@IAEXXZ ENDP	; GameOptionSpecTab::UpdateScreenBoxText
_TEXT	ENDS
PUBLIC	?OpenResolutionList@GameOptionSpecTab@@IAEXPAVioWnd@@@Z ; GameOptionSpecTab::OpenResolutionList
EXTRN	?OpenList@ResolutionList@@QAEXPAVioWnd@@HH@Z:PROC ; ResolutionList::OpenList
; Function compile flags: /Ogsp
;	COMDAT ?OpenResolutionList@GameOptionSpecTab@@IAEXPAVioWnd@@@Z
_TEXT	SEGMENT
_pOpenBtn$ = 8						; size = 4
?OpenResolutionList@GameOptionSpecTab@@IAEXPAVioWnd@@@Z PROC ; GameOptionSpecTab::OpenResolutionList, COMDAT
; _this$ = ecx

; 1087 : {

  00000	55		 push	 ebp
  00001	8b ec		 mov	 ebp, esp
  00003	56		 push	 esi

; 1088 : 	ResolutionList *pList = (ResolutionList*)FindChildWnd( ID_RESOLUTION_LIST );

  00004	68 74 0e 00 00	 push	 3700			; 00000e74H
  00009	8b f1		 mov	 esi, ecx
  0000b	ff 15 00 00 00
	00		 call	 DWORD PTR __imp_?FindChildWnd@ioWnd@@QAEPAV1@K@Z

; 1089 : 	if( pList )

  00011	85 c0		 test	 eax, eax
  00013	74 16		 je	 SHORT $LN1@OpenResolu

; 1090 : 	{
; 1091 : 		pList->OpenList( pOpenBtn,
; 1092 : 						 m_CurrentOption.m_iWidth,
; 1093 : 						 m_CurrentOption.m_iHeight );

  00015	ff b6 90 01 00
	00		 push	 DWORD PTR [esi+400]
  0001b	8b c8		 mov	 ecx, eax
  0001d	ff b6 8c 01 00
	00		 push	 DWORD PTR [esi+396]
  00023	ff 75 08	 push	 DWORD PTR _pOpenBtn$[ebp]
  00026	e8 00 00 00 00	 call	 ?OpenList@ResolutionList@@QAEXPAVioWnd@@HH@Z ; ResolutionList::OpenList
$LN1@OpenResolu:
  0002b	5e		 pop	 esi

; 1094 : 	}
; 1095 : }

  0002c	5d		 pop	 ebp
  0002d	c2 04 00	 ret	 4
?OpenResolutionList@GameOptionSpecTab@@IAEXPAVioWnd@@@Z ENDP ; GameOptionSpecTab::OpenResolutionList
_TEXT	ENDS
PUBLIC	??_C@_0CH@MJLPDJOC@GameOptionSpecTab?3?3UpdateFilterB@ ; `string'
PUBLIC	??_C@_07KANOLDAO@GRAY?540?$AA@			; `string'
PUBLIC	??_C@_07KJMEEKGK@GRAY?580?$AA@			; `string'
PUBLIC	??_C@_08PIADFHF@GRAY?5100?$AA@			; `string'
PUBLIC	??_C@_08BFDENAA@SEPIA?540?$AA@			; `string'
PUBLIC	??_C@_08IEJLEGE@SEPIA?580?$AA@			; `string'
PUBLIC	??_C@_09OIJJJFIM@SEPIA?5100?$AA@		; `string'
PUBLIC	?UpdateFilterBoxText@GameOptionSpecTab@@IAEXXZ	; GameOptionSpecTab::UpdateFilterBoxText
;	COMDAT ??_C@_0CH@MJLPDJOC@GameOptionSpecTab?3?3UpdateFilterB@
CONST	SEGMENT
??_C@_0CH@MJLPDJOC@GameOptionSpecTab?3?3UpdateFilterB@ DB 'GameOptionSpec'
	DB	'Tab::UpdateFilterBoxText', 00H		; `string'
CONST	ENDS
;	COMDAT ??_C@_07KANOLDAO@GRAY?540?$AA@
CONST	SEGMENT
??_C@_07KANOLDAO@GRAY?540?$AA@ DB 'GRAY 40', 00H	; `string'
CONST	ENDS
;	COMDAT ??_C@_07KJMEEKGK@GRAY?580?$AA@
CONST	SEGMENT
??_C@_07KJMEEKGK@GRAY?580?$AA@ DB 'GRAY 80', 00H	; `string'
CONST	ENDS
;	COMDAT ??_C@_08PIADFHF@GRAY?5100?$AA@
CONST	SEGMENT
??_C@_08PIADFHF@GRAY?5100?$AA@ DB 'GRAY 100', 00H	; `string'
CONST	ENDS
;	COMDAT ??_C@_08BFDENAA@SEPIA?540?$AA@
CONST	SEGMENT
??_C@_08BFDENAA@SEPIA?540?$AA@ DB 'SEPIA 40', 00H	; `string'
CONST	ENDS
;	COMDAT ??_C@_08IEJLEGE@SEPIA?580?$AA@
CONST	SEGMENT
??_C@_08IEJLEGE@SEPIA?580?$AA@ DB 'SEPIA 80', 00H	; `string'
CONST	ENDS
;	COMDAT ??_C@_09OIJJJFIM@SEPIA?5100?$AA@
CONST	SEGMENT
??_C@_09OIJJJFIM@SEPIA?5100?$AA@ DB 'SEPIA 100', 00H	; `string'
; Function compile flags: /Ogsp
CONST	ENDS
;	COMDAT ?UpdateFilterBoxText@GameOptionSpecTab@@IAEXXZ
_TEXT	SEGMENT
?UpdateFilterBoxText@GameOptionSpecTab@@IAEXXZ PROC	; GameOptionSpecTab::UpdateFilterBoxText, COMDAT
; _this$ = ecx

; 1139 : {

  00000	56		 push	 esi
  00001	57		 push	 edi

; 1140 : 	ioWnd *pWnd = FindChildWnd( ID_FILTER_BOX );

  00002	6a 3d		 push	 61			; 0000003dH
  00004	8b f1		 mov	 esi, ecx
  00006	ff 15 00 00 00
	00		 call	 DWORD PTR __imp_?FindChildWnd@ioWnd@@QAEPAV1@K@Z
  0000c	8b f8		 mov	 edi, eax

; 1141 : 	if( !pWnd )	return;

  0000e	33 c9		 xor	 ecx, ecx
  00010	3b f9		 cmp	 edi, ecx
  00012	0f 84 91 00 00
	00		 je	 $LN8@UpdateFilt

; 1142 : 
; 1143 : 	switch( m_CurrentOption.m_FilterType )

  00018	8b 86 84 01 00
	00		 mov	 eax, DWORD PTR [esi+388]
  0001e	2b c1		 sub	 eax, ecx
  00020	74 60		 je	 SHORT $LN7@UpdateFilt
  00022	48		 dec	 eax
  00023	74 50		 je	 SHORT $LN6@UpdateFilt
  00025	48		 dec	 eax
  00026	74 40		 je	 SHORT $LN5@UpdateFilt
  00028	48		 dec	 eax
  00029	74 30		 je	 SHORT $LN4@UpdateFilt
  0002b	48		 dec	 eax
  0002c	74 20		 je	 SHORT $LN3@UpdateFilt
  0002e	48		 dec	 eax
  0002f	74 10		 je	 SHORT $LN2@UpdateFilt
  00031	48		 dec	 eax
  00032	75 75		 jne	 SHORT $LN8@UpdateFilt

; 1163 : 	case FILTER_SEPIA100:
; 1164 : 		pWnd->SetTitleText( "SEPIA 100" );		

  00034	51		 push	 ecx
  00035	68 00 00 00 00	 push	 OFFSET ??_C@_00CNPNBAHC@?$AA@
  0003a	68 00 00 00 00	 push	 OFFSET ??_C@_09OIJJJFIM@SEPIA?5100?$AA@

; 1165 : 		break;

  0003f	eb 60		 jmp	 SHORT $LN13@UpdateFilt
$LN2@UpdateFilt:

; 1160 : 	case FILTER_SEPIA80:
; 1161 : 		pWnd->SetTitleText( "SEPIA 80" );

  00041	51		 push	 ecx
  00042	68 00 00 00 00	 push	 OFFSET ??_C@_00CNPNBAHC@?$AA@
  00047	68 00 00 00 00	 push	 OFFSET ??_C@_08IEJLEGE@SEPIA?580?$AA@

; 1162 : 		break;

  0004c	eb 53		 jmp	 SHORT $LN13@UpdateFilt
$LN3@UpdateFilt:

; 1157 : 	case FILTER_SEPIA40:
; 1158 : 		pWnd->SetTitleText( "SEPIA 40" );		

  0004e	51		 push	 ecx
  0004f	68 00 00 00 00	 push	 OFFSET ??_C@_00CNPNBAHC@?$AA@
  00054	68 00 00 00 00	 push	 OFFSET ??_C@_08BFDENAA@SEPIA?540?$AA@

; 1159 : 		break;

  00059	eb 46		 jmp	 SHORT $LN13@UpdateFilt
$LN4@UpdateFilt:

; 1154 : 	case FILTER_GRAY100:
; 1155 : 		pWnd->SetTitleText( "GRAY 100" );

  0005b	51		 push	 ecx
  0005c	68 00 00 00 00	 push	 OFFSET ??_C@_00CNPNBAHC@?$AA@
  00061	68 00 00 00 00	 push	 OFFSET ??_C@_08PIADFHF@GRAY?5100?$AA@

; 1156 : 		break;

  00066	eb 39		 jmp	 SHORT $LN13@UpdateFilt
$LN5@UpdateFilt:

; 1151 : 	case FILTER_GRAY80:
; 1152 : 		pWnd->SetTitleText( "GRAY 80" );

  00068	51		 push	 ecx
  00069	68 00 00 00 00	 push	 OFFSET ??_C@_00CNPNBAHC@?$AA@
  0006e	68 00 00 00 00	 push	 OFFSET ??_C@_07KJMEEKGK@GRAY?580?$AA@

; 1153 : 		break;

  00073	eb 2c		 jmp	 SHORT $LN13@UpdateFilt
$LN6@UpdateFilt:

; 1147 : 		break;
; 1148 : 	case FILTER_GRAY40:
; 1149 : 		pWnd->SetTitleText( "GRAY 40" );

  00075	51		 push	 ecx
  00076	68 00 00 00 00	 push	 OFFSET ??_C@_00CNPNBAHC@?$AA@
  0007b	68 00 00 00 00	 push	 OFFSET ??_C@_07KANOLDAO@GRAY?540?$AA@

; 1150 : 		break;

  00080	eb 1f		 jmp	 SHORT $LN13@UpdateFilt
$LN7@UpdateFilt:

; 1144 : 	{
; 1145 : 	case FILTER_NONE:
; 1146 : 		pWnd->SetTitleText( STR(1) );

  00082	51		 push	 ecx
  00083	b8 00 00 00 00	 mov	 eax, OFFSET ??_C@_00CNPNBAHC@?$AA@
  00088	50		 push	 eax
  00089	51		 push	 ecx
  0008a	6a 01		 push	 1
  0008c	50		 push	 eax
  0008d	68 00 00 00 00	 push	 OFFSET ??_C@_0CH@MJLPDJOC@GameOptionSpecTab?3?3UpdateFilterB@
  00092	ff 15 00 00 00
	00		 call	 DWORD PTR __imp_?GetSingleton@ioStringManager@@SAAAV1@XZ
  00098	8b c8		 mov	 ecx, eax
  0009a	ff 15 00 00 00
	00		 call	 DWORD PTR __imp_?GetString@ioStringManager@@QAEPADPBD0HW4FileNamePrefix@1@@Z
  000a0	50		 push	 eax
$LN13@UpdateFilt:
  000a1	8b cf		 mov	 ecx, edi
  000a3	ff 15 00 00 00
	00		 call	 DWORD PTR __imp_?SetTitleText@ioWnd@@QAEXPBD0H@Z
$LN8@UpdateFilt:

; 1166 : 	}
; 1167 : }

  000a9	5f		 pop	 edi
  000aa	5e		 pop	 esi
  000ab	c3		 ret	 0
?UpdateFilterBoxText@GameOptionSpecTab@@IAEXXZ ENDP	; GameOptionSpecTab::UpdateFilterBoxText
_TEXT	ENDS
PUBLIC	??_C@_0CH@KDMHLDI@GameOptionSpecTab?3?3UpdateOverayB@ ; `string'
PUBLIC	??_C@_05NDFHNKHM@BLACK?$AA@			; `string'
PUBLIC	??_C@_05DHJCFPAA@WHITE?$AA@			; `string'
PUBLIC	?UpdateOverayBoxText@GameOptionSpecTab@@IAEXXZ	; GameOptionSpecTab::UpdateOverayBoxText
;	COMDAT ??_C@_0CH@KDMHLDI@GameOptionSpecTab?3?3UpdateOverayB@
CONST	SEGMENT
??_C@_0CH@KDMHLDI@GameOptionSpecTab?3?3UpdateOverayB@ DB 'GameOptionSpecT'
	DB	'ab::UpdateOverayBoxText', 00H		; `string'
CONST	ENDS
;	COMDAT ??_C@_05NDFHNKHM@BLACK?$AA@
CONST	SEGMENT
??_C@_05NDFHNKHM@BLACK?$AA@ DB 'BLACK', 00H		; `string'
CONST	ENDS
;	COMDAT ??_C@_05DHJCFPAA@WHITE?$AA@
CONST	SEGMENT
??_C@_05DHJCFPAA@WHITE?$AA@ DB 'WHITE', 00H		; `string'
; Function compile flags: /Ogsp
CONST	ENDS
;	COMDAT ?UpdateOverayBoxText@GameOptionSpecTab@@IAEXXZ
_TEXT	SEGMENT
?UpdateOverayBoxText@GameOptionSpecTab@@IAEXXZ PROC	; GameOptionSpecTab::UpdateOverayBoxText, COMDAT
; _this$ = ecx

; 1207 : {

  00000	56		 push	 esi
  00001	57		 push	 edi

; 1208 : 	ioWnd *pWnd = FindChildWnd( ID_OVERAY_BOX );

  00002	6a 42		 push	 66			; 00000042H
  00004	8b f1		 mov	 esi, ecx
  00006	ff 15 00 00 00
	00		 call	 DWORD PTR __imp_?FindChildWnd@ioWnd@@QAEPAV1@K@Z
  0000c	8b f8		 mov	 edi, eax

; 1209 : 	if( !pWnd )	return;

  0000e	33 c9		 xor	 ecx, ecx
  00010	3b f9		 cmp	 edi, ecx
  00012	74 51		 je	 SHORT $LN4@UpdateOver

; 1210 : 
; 1211 : 	switch( m_CurrentOption.m_OverayType )

  00014	8b 86 88 01 00
	00		 mov	 eax, DWORD PTR [esi+392]
  0001a	2b c1		 sub	 eax, ecx
  0001c	74 20		 je	 SHORT $LN3@UpdateOver
  0001e	48		 dec	 eax
  0001f	74 10		 je	 SHORT $LN2@UpdateOver
  00021	48		 dec	 eax
  00022	75 41		 jne	 SHORT $LN4@UpdateOver

; 1219 : 	case OVERAY_WHITE:
; 1220 : 		pWnd->SetTitleText( "WHITE" );

  00024	51		 push	 ecx
  00025	68 00 00 00 00	 push	 OFFSET ??_C@_00CNPNBAHC@?$AA@
  0002a	68 00 00 00 00	 push	 OFFSET ??_C@_05DHJCFPAA@WHITE?$AA@

; 1221 : 		break;

  0002f	eb 2c		 jmp	 SHORT $LN9@UpdateOver
$LN2@UpdateOver:

; 1215 : 		break;
; 1216 : 	case OVERAY_BLACK:
; 1217 : 		pWnd->SetTitleText( "BLACK" );

  00031	51		 push	 ecx
  00032	68 00 00 00 00	 push	 OFFSET ??_C@_00CNPNBAHC@?$AA@
  00037	68 00 00 00 00	 push	 OFFSET ??_C@_05NDFHNKHM@BLACK?$AA@

; 1218 : 		break;

  0003c	eb 1f		 jmp	 SHORT $LN9@UpdateOver
$LN3@UpdateOver:

; 1212 : 	{
; 1213 : 	case OVERAY_NONE:
; 1214 : 		pWnd->SetTitleText( STR(1) );

  0003e	51		 push	 ecx
  0003f	b8 00 00 00 00	 mov	 eax, OFFSET ??_C@_00CNPNBAHC@?$AA@
  00044	50		 push	 eax
  00045	51		 push	 ecx
  00046	6a 01		 push	 1
  00048	50		 push	 eax
  00049	68 00 00 00 00	 push	 OFFSET ??_C@_0CH@KDMHLDI@GameOptionSpecTab?3?3UpdateOverayB@
  0004e	ff 15 00 00 00
	00		 call	 DWORD PTR __imp_?GetSingleton@ioStringManager@@SAAAV1@XZ
  00054	8b c8		 mov	 ecx, eax
  00056	ff 15 00 00 00
	00		 call	 DWORD PTR __imp_?GetString@ioStringManager@@QAEPADPBD0HW4FileNamePrefix@1@@Z
  0005c	50		 push	 eax
$LN9@UpdateOver:
  0005d	8b cf		 mov	 ecx, edi
  0005f	ff 15 00 00 00
	00		 call	 DWORD PTR __imp_?SetTitleText@ioWnd@@QAEXPBD0H@Z
$LN4@UpdateOver:

; 1222 : 	}
; 1223 : }

  00065	5f		 pop	 edi
  00066	5e		 pop	 esi
  00067	c3		 ret	 0
?UpdateOverayBoxText@GameOptionSpecTab@@IAEXXZ ENDP	; GameOptionSpecTab::UpdateOverayBoxText
_TEXT	ENDS
PUBLIC	??_C@_07FJJAPPM@?$CFd?5x?5?$CFd?$AA@		; `string'
PUBLIC	__$ArrayPad$
PUBLIC	?ChangeResolutionText@GameOptionSpecTab@@IAEXHH@Z ; GameOptionSpecTab::ChangeResolutionText
EXTRN	__imp__wsprintfA:PROC
EXTRN	___security_cookie:DWORD
;	COMDAT ??_C@_07FJJAPPM@?$CFd?5x?5?$CFd?$AA@
CONST	SEGMENT
??_C@_07FJJAPPM@?$CFd?5x?5?$CFd?$AA@ DB '%d x %d', 00H	; `string'
; Function compile flags: /Ogsp
CONST	ENDS
;	COMDAT ?ChangeResolutionText@GameOptionSpecTab@@IAEXHH@Z
_TEXT	SEGMENT
_szResolution$535662 = -264				; size = 260
__$ArrayPad$ = -4					; size = 4
_iWidth$ = 8						; size = 4
_iHeight$ = 12						; size = 4
?ChangeResolutionText@GameOptionSpecTab@@IAEXHH@Z PROC	; GameOptionSpecTab::ChangeResolutionText, COMDAT
; _this$ = ecx

; 1248 : {

  00000	55		 push	 ebp
  00001	8b ec		 mov	 ebp, esp
  00003	81 ec 08 01 00
	00		 sub	 esp, 264		; 00000108H
  00009	a1 00 00 00 00	 mov	 eax, DWORD PTR ___security_cookie
  0000e	33 c5		 xor	 eax, ebp
  00010	89 45 fc	 mov	 DWORD PTR __$ArrayPad$[ebp], eax
  00013	56		 push	 esi

; 1249 : 	ioWnd *pResolution = FindChildWnd( ID_RESOLUTION_BOX );

  00014	6a 09		 push	 9
  00016	ff 15 00 00 00
	00		 call	 DWORD PTR __imp_?FindChildWnd@ioWnd@@QAEPAV1@K@Z
  0001c	8b f0		 mov	 esi, eax

; 1250 : 	if( pResolution )

  0001e	85 f6		 test	 esi, esi
  00020	74 31		 je	 SHORT $LN1@ChangeReso

; 1251 : 	{
; 1252 : 		char szResolution[MAX_PATH];
; 1253 : 		wsprintf( szResolution, "%d x %d", iWidth, iHeight );

  00022	ff 75 0c	 push	 DWORD PTR _iHeight$[ebp]
  00025	8d 85 f8 fe ff
	ff		 lea	 eax, DWORD PTR _szResolution$535662[ebp]
  0002b	ff 75 08	 push	 DWORD PTR _iWidth$[ebp]
  0002e	68 00 00 00 00	 push	 OFFSET ??_C@_07FJJAPPM@?$CFd?5x?5?$CFd?$AA@
  00033	50		 push	 eax
  00034	ff 15 00 00 00
	00		 call	 DWORD PTR __imp__wsprintfA
  0003a	83 c4 10	 add	 esp, 16			; 00000010H

; 1254 : 		pResolution->SetTitleText( szResolution );

  0003d	6a 00		 push	 0
  0003f	68 00 00 00 00	 push	 OFFSET ??_C@_00CNPNBAHC@?$AA@
  00044	8d 85 f8 fe ff
	ff		 lea	 eax, DWORD PTR _szResolution$535662[ebp]
  0004a	50		 push	 eax
  0004b	8b ce		 mov	 ecx, esi
  0004d	ff 15 00 00 00
	00		 call	 DWORD PTR __imp_?SetTitleText@ioWnd@@QAEXPBD0H@Z
$LN1@ChangeReso:

; 1255 : 	}
; 1256 : }

  00053	8b 4d fc	 mov	 ecx, DWORD PTR __$ArrayPad$[ebp]
  00056	33 cd		 xor	 ecx, ebp
  00058	5e		 pop	 esi
  00059	e8 00 00 00 00	 call	 @__security_check_cookie@4
  0005e	c9		 leave
  0005f	c2 08 00	 ret	 8
?ChangeResolutionText@GameOptionSpecTab@@IAEXHH@Z ENDP	; GameOptionSpecTab::ChangeResolutionText
; Function compile flags: /Ogsp
_TEXT	ENDS
;	COMDAT ?OnRender@GameOptionSpecTab@@MAEXXZ
_TEXT	SEGMENT
tv172 = -8						; size = 4
tv66 = -4						; size = 4
?OnRender@GameOptionSpecTab@@MAEXXZ PROC		; GameOptionSpecTab::OnRender, COMDAT
; _this$ = ecx

; 1580 : {

  00000	55		 push	 ebp
  00001	8b ec		 mov	 ebp, esp
  00003	51		 push	 ecx
  00004	51		 push	 ecx
  00005	53		 push	 ebx
  00006	56		 push	 esi
  00007	57		 push	 edi
  00008	8b f1		 mov	 esi, ecx

; 1581 : 	ioWnd::OnRender();

  0000a	ff 15 00 00 00
	00		 call	 DWORD PTR __imp_?OnRender@ioWnd@@MAEXXZ

; 1582 : 
; 1583 : 	int iXPos = GetDerivedPosX();

  00010	8b ce		 mov	 ecx, esi
  00012	ff 15 00 00 00
	00		 call	 DWORD PTR __imp_?GetDerivedPosX@ioWnd@@QBEHXZ

; 1584 : 	int iYPos = GetDerivedPosY();

  00018	8b ce		 mov	 ecx, esi
  0001a	8b d8		 mov	 ebx, eax
  0001c	ff 15 00 00 00
	00		 call	 DWORD PTR __imp_?GetDerivedPosY@ioWnd@@QBEHXZ

; 1585 : 	if( m_pDot )

  00022	33 ff		 xor	 edi, edi
  00024	39 be 04 02 00
	00		 cmp	 DWORD PTR [esi+516], edi
  0002a	74 44		 je	 SHORT $LN1@OnRender@2

; 1586 : 	{
; 1587 : 		for(int i = 0;i < 68;i++)

  0002c	0f 57 c0	 xorps	 xmm0, xmm0
  0002f	f3 0f 2a c3	 cvtsi2ss xmm0, ebx
  00033	f3 0f 11 45 f8	 movss	 DWORD PTR tv172[ebp], xmm0
  00038	8b d8		 mov	 ebx, eax
  0003a	c7 45 fc 44 00
	00 00		 mov	 DWORD PTR tv66[ebp], 68	; 00000044H
$LL9@OnRender@2:

; 1588 : 		{
; 1589 : 			m_pDot->Render( iXPos, iYPos + (i*5) );

  00041	8b 8e 04 02 00
	00		 mov	 ecx, DWORD PTR [esi+516]
  00047	8b 01		 mov	 eax, DWORD PTR [ecx]
  00049	57		 push	 edi
  0004a	57		 push	 edi
  0004b	57		 push	 edi
  0004c	57		 push	 edi
  0004d	51		 push	 ecx
  0004e	0f 57 c0	 xorps	 xmm0, xmm0
  00051	51		 push	 ecx
  00052	f3 0f 2a c3	 cvtsi2ss xmm0, ebx
  00056	f3 0f 11 44 24
	04		 movss	 DWORD PTR [esp+4], xmm0
  0005c	f3 0f 10 45 f8	 movss	 xmm0, DWORD PTR tv172[ebp]
  00061	f3 0f 11 04 24	 movss	 DWORD PTR [esp], xmm0
  00066	ff 10		 call	 DWORD PTR [eax]
  00068	83 c3 05	 add	 ebx, 5
  0006b	ff 4d fc	 dec	 DWORD PTR tv66[ebp]
  0006e	75 d1		 jne	 SHORT $LL9@OnRender@2
$LN1@OnRender@2:
  00070	5f		 pop	 edi
  00071	5e		 pop	 esi
  00072	5b		 pop	 ebx

; 1590 : 		}
; 1591 : 	}
; 1592 : }

  00073	c9		 leave
  00074	c3		 ret	 0
?OnRender@GameOptionSpecTab@@MAEXXZ ENDP		; GameOptionSpecTab::OnRender
_TEXT	ENDS
PUBLIC	??_7GameOptionWnd@@6B@				; GameOptionWnd::`vftable'
PUBLIC	??0GameOptionWnd@@QAE@XZ			; GameOptionWnd::GameOptionWnd
PUBLIC	??_R4GameOptionWnd@@6B@				; GameOptionWnd::`RTTI Complete Object Locator'
PUBLIC	??_R0?AVGameOptionWnd@@@8			; GameOptionWnd `RTTI Type Descriptor'
PUBLIC	??_R3GameOptionWnd@@8				; GameOptionWnd::`RTTI Class Hierarchy Descriptor'
PUBLIC	??_R2GameOptionWnd@@8				; GameOptionWnd::`RTTI Base Class Array'
PUBLIC	??_R1A@?0A@EA@GameOptionWnd@@8			; GameOptionWnd::`RTTI Base Class Descriptor at (0,-1,0,64)'
PUBLIC	??_R1A@?0A@EA@ioMovingWnd@@8			; ioMovingWnd::`RTTI Base Class Descriptor at (0,-1,0,64)'
PUBLIC	??_R0?AVioMovingWnd@@@8				; ioMovingWnd `RTTI Type Descriptor'
PUBLIC	??_R3ioMovingWnd@@8				; ioMovingWnd::`RTTI Class Hierarchy Descriptor'
PUBLIC	??_R2ioMovingWnd@@8				; ioMovingWnd::`RTTI Base Class Array'
PUBLIC	?SetPositionToDefault@GameOptionWnd@@UAEXHH_N0@Z ; GameOptionWnd::SetPositionToDefault
PUBLIC	?iwm_create@GameOptionWnd@@UAEXXZ		; GameOptionWnd::iwm_create
PUBLIC	?iwm_command@GameOptionWnd@@UAEXPAVioWnd@@HK@Z	; GameOptionWnd::iwm_command
PUBLIC	?iwm_show@GameOptionWnd@@UAEXXZ			; GameOptionWnd::iwm_show
PUBLIC	?iwm_hide@GameOptionWnd@@UAEXXZ			; GameOptionWnd::iwm_hide
EXTRN	__imp_??0ioMovingWnd@@QAE@XZ:PROC
EXTRN	?OnMouseProcess@ioMovingWnd@@MAEXABVioMouse@@@Z:PROC ; ioMovingWnd::OnMouseProcess
EXTRN	?iwm_lbuttondown@ioMovingWnd@@UAEXABVioMouse@@@Z:PROC ; ioMovingWnd::iwm_lbuttondown
EXTRN	?iwm_lbuttonup@ioMovingWnd@@UAEXABVioMouse@@@Z:PROC ; ioMovingWnd::iwm_lbuttonup
EXTRN	??_EGameOptionWnd@@UAEPAXI@Z:PROC		; GameOptionWnd::`vector deleting destructor'
;	COMDAT ??_R2ioMovingWnd@@8
rdata$r	SEGMENT
??_R2ioMovingWnd@@8 DD FLAT:??_R1A@?0A@EA@ioMovingWnd@@8 ; ioMovingWnd::`RTTI Base Class Array'
	DD	FLAT:??_R1A@?0A@EA@ioWnd@@8
rdata$r	ENDS
;	COMDAT ??_R3ioMovingWnd@@8
rdata$r	SEGMENT
??_R3ioMovingWnd@@8 DD 00H				; ioMovingWnd::`RTTI Class Hierarchy Descriptor'
	DD	00H
	DD	02H
	DD	FLAT:??_R2ioMovingWnd@@8
rdata$r	ENDS
;	COMDAT ??_R0?AVioMovingWnd@@@8
_DATA	SEGMENT
??_R0?AVioMovingWnd@@@8 DD FLAT:??_7type_info@@6B@	; ioMovingWnd `RTTI Type Descriptor'
	DD	00H
	DB	'.?AVioMovingWnd@@', 00H
_DATA	ENDS
;	COMDAT ??_R1A@?0A@EA@ioMovingWnd@@8
rdata$r	SEGMENT
??_R1A@?0A@EA@ioMovingWnd@@8 DD FLAT:??_R0?AVioMovingWnd@@@8 ; ioMovingWnd::`RTTI Base Class Descriptor at (0,-1,0,64)'
	DD	01H
	DD	00H
	DD	0ffffffffH
	DD	00H
	DD	040H
	DD	FLAT:??_R3ioMovingWnd@@8
rdata$r	ENDS
;	COMDAT ??_R1A@?0A@EA@GameOptionWnd@@8
rdata$r	SEGMENT
??_R1A@?0A@EA@GameOptionWnd@@8 DD FLAT:??_R0?AVGameOptionWnd@@@8 ; GameOptionWnd::`RTTI Base Class Descriptor at (0,-1,0,64)'
	DD	02H
	DD	00H
	DD	0ffffffffH
	DD	00H
	DD	040H
	DD	FLAT:??_R3GameOptionWnd@@8
rdata$r	ENDS
;	COMDAT ??_R2GameOptionWnd@@8
rdata$r	SEGMENT
??_R2GameOptionWnd@@8 DD FLAT:??_R1A@?0A@EA@GameOptionWnd@@8 ; GameOptionWnd::`RTTI Base Class Array'
	DD	FLAT:??_R1A@?0A@EA@ioMovingWnd@@8
	DD	FLAT:??_R1A@?0A@EA@ioWnd@@8
rdata$r	ENDS
;	COMDAT ??_R3GameOptionWnd@@8
rdata$r	SEGMENT
??_R3GameOptionWnd@@8 DD 00H				; GameOptionWnd::`RTTI Class Hierarchy Descriptor'
	DD	00H
	DD	03H
	DD	FLAT:??_R2GameOptionWnd@@8
rdata$r	ENDS
;	COMDAT ??_R0?AVGameOptionWnd@@@8
_DATA	SEGMENT
??_R0?AVGameOptionWnd@@@8 DD FLAT:??_7type_info@@6B@	; GameOptionWnd `RTTI Type Descriptor'
	DD	00H
	DB	'.?AVGameOptionWnd@@', 00H
_DATA	ENDS
;	COMDAT ??_R4GameOptionWnd@@6B@
rdata$r	SEGMENT
??_R4GameOptionWnd@@6B@ DD 00H				; GameOptionWnd::`RTTI Complete Object Locator'
	DD	00H
	DD	00H
	DD	FLAT:??_R0?AVGameOptionWnd@@@8
	DD	FLAT:??_R3GameOptionWnd@@8
rdata$r	ENDS
;	COMDAT ??_7GameOptionWnd@@6B@
CONST	SEGMENT
??_7GameOptionWnd@@6B@ DD FLAT:??_R4GameOptionWnd@@6B@	; GameOptionWnd::`vftable'
	DD	FLAT:?AddRenderFrame@ioWnd@@UAEXABVioHashString@@PAVioUIRenderFrame@@@Z
	DD	FLAT:?AddRenderImage@ioWnd@@UAEXABVioHashString@@PAVioUIRenderImage@@@Z
	DD	FLAT:?AddTooltipHelp@ioWnd@@UAEXABVioHashString@@00@Z
	DD	FLAT:?ParseExtraInfo@ioWnd@@UAEXAAVioXMLElement@@@Z
	DD	FLAT:?AddNamedRenderImage@ioWnd@@UAEXABVioHashString@@PAVioUIRenderImage@@@Z
	DD	FLAT:?RemoveNamedRenderImage@ioWnd@@UAEXABVioHashString@@@Z
	DD	FLAT:?GetNamedRenderImage@ioWnd@@UBEPAVioUIRenderImage@@ABVioHashString@@@Z
	DD	FLAT:?SetWindowAlpha@ioWnd@@UAEXH@Z
	DD	FLAT:?SetActive@ioWnd@@UAEXXZ
	DD	FLAT:?SetInActive@ioWnd@@UAEXXZ
	DD	FLAT:?ClearElementImageList@ioWnd@@UAEXXZ
	DD	FLAT:?SetSize@ioWnd@@UAEXHH@Z
	DD	FLAT:?SetPositionToDefault@GameOptionWnd@@UAEXHH_N0@Z
	DD	FLAT:?IsNeedProcess@ioWnd@@UBE_NXZ
	DD	FLAT:?IsCanMouseReaction@ioWnd@@UBE_NXZ
	DD	FLAT:?AddChild@ioWnd@@UAEXPAV1@@Z
	DD	FLAT:?DeleteChild@ioWnd@@UAEXK@Z
	DD	FLAT:?DeleteAllChild@ioWnd@@UAEXXZ
	DD	FLAT:?OnRenderShowAndHide@ioWnd@@MAE_NXZ
	DD	FLAT:?OnRenderShowAndHideByDefault@ioWnd@@MAE_NK@Z
	DD	FLAT:?OnRenderShowAndHideByTop@ioWnd@@MAE_NK@Z
	DD	FLAT:?OnRenderShowAndHideByDown@ioWnd@@MAE_NK@Z
	DD	FLAT:?OnRender@ioWnd@@MAEXXZ
	DD	FLAT:?OnRenderAfterChild@ioWnd@@MAEXXZ
	DD	FLAT:?OnProcess@ioWnd@@MAEXM@Z
	DD	FLAT:?OnMouseProcess@ioMovingWnd@@MAEXABVioMouse@@@Z
	DD	FLAT:?CheckFrameReSize@ioWnd@@MAEXHHHH@Z
	DD	FLAT:?RenderImageList@ioWnd@@MAEXHHW4UIRenderType@@@Z
	DD	FLAT:?iwm_create@GameOptionWnd@@UAEXXZ
	DD	FLAT:?iwm_destroy@ioWnd@@UAEXXZ
	DD	FLAT:?iwm_lbuttondown@ioMovingWnd@@UAEXABVioMouse@@@Z
	DD	FLAT:?iwm_lbuttonup@ioMovingWnd@@UAEXABVioMouse@@@Z
	DD	FLAT:?iwm_lbuttonDBLCLK@ioWnd@@UAEXABVioMouse@@@Z
	DD	FLAT:?iwm_rbuttondown@ioWnd@@UAEXABVioMouse@@@Z
	DD	FLAT:?iwm_rbuttonup@ioWnd@@UAEXABVioMouse@@@Z
	DD	FLAT:?iwm_command@GameOptionWnd@@UAEXPAVioWnd@@HK@Z
	DD	FLAT:?iwm_mouseover@ioWnd@@UAEXABVioMouse@@@Z
	DD	FLAT:?iwm_mousemove@ioWnd@@UAEXABVioMouse@@@Z
	DD	FLAT:?iwm_mouseleave@ioWnd@@UAEXABVioMouse@@@Z
	DD	FLAT:?iwm_vscroll@ioWnd@@UAEXKH@Z
	DD	FLAT:?iwm_wheel@ioWnd@@UAEXH@Z
	DD	FLAT:?iwm_show@GameOptionWnd@@UAEXXZ
	DD	FLAT:?iwm_hide@GameOptionWnd@@UAEXXZ
	DD	FLAT:?iwm_esc@ioWnd@@UAE_NXZ
	DD	FLAT:?iwm_spacebar@ioWnd@@UAE_NXZ
	DD	FLAT:?iwm_gototop@ioWnd@@UAEXXZ
	DD	FLAT:?iwm_dragenter@ioWnd@@UAE?AW4IWDropEffect@@PAVioDragItem@@ABVioMouse@@@Z
	DD	FLAT:?iwm_dragover@ioWnd@@UAE?AW4IWDropEffect@@PAVioDragItem@@ABVioMouse@@@Z
	DD	FLAT:?iwm_dragleave@ioWnd@@UAEXXZ
	DD	FLAT:?iwm_dropitem@ioWnd@@UAE_NPAVioDragItem@@ABVioMouse@@PAV1@@Z
	DD	FLAT:?iwm_dropdone@ioWnd@@UAEXPAVioDragItem@@PAV1@_N@Z
	DD	FLAT:?IsEXType@ioWnd@@UBE_NXZ
	DD	FLAT:?GetWndType@ioWnd@@UBEKXZ
	DD	FLAT:?RenderWnd@ioWnd@@UAEXXZ
	DD	FLAT:?SetIDEX@ioWnd@@UAEXAAK_N@Z
	DD	FLAT:?ParseXML@ioWnd@@UAEXAAVioXMLElement@@@Z
	DD	FLAT:?GetHeaderFileName@ioWnd@@UAEPBDXZ
	DD	FLAT:?GetTemplateName@ioWnd@@UAEPBDXZ
	DD	FLAT:?GetDefClassName@ioWnd@@UBEPBDXZ
	DD	FLAT:?_Clone@ioWnd@@UAEPAV1@XZ
	DD	FLAT:?Copy@ioWnd@@UAEXPAV1@@Z
	DD	FLAT:?Save@ioWnd@@UAE_NAAVioXMLElement@@@Z
	DD	FLAT:?SetSaveData@ioWnd@@UAEXAAVioXMLElement@@@Z
	DD	FLAT:?SetPosX@ioWnd@@UAEXH@Z
	DD	FLAT:?SetPosY@ioWnd@@UAEXH@Z
	DD	FLAT:?SetWidth@ioWnd@@UAEXH@Z
	DD	FLAT:?SetHeight@ioWnd@@UAEXH@Z
	DD	FLAT:?GetNumFixedRenderFrame@ioWnd@@UBEHXZ
	DD	FLAT:?GetFixedRenderFrameType@ioWnd@@UAEPBDH@Z
	DD	FLAT:?GetRenderFrame@ioWnd@@UAEPAPAVioUIRenderElement@@PBD@Z
	DD	FLAT:?GetNumFixedRenderImage@ioWnd@@UBEHXZ
	DD	FLAT:?GetFixedRenderImageType@ioWnd@@UAEPBDH@Z
	DD	FLAT:?GetRenderImage@ioWnd@@UAEPAPAVioUIRenderElement@@PBD@Z
	DD	FLAT:?AddEffect@ioWnd@@UAEXABVioHashString@@PAVioUI3DEffectRender@@@Z
	DD	FLAT:?GetEffect@ioWnd@@UAEPAVioUI3DEffectRender@@VioHashString@@@Z
	DD	FLAT:??_EGameOptionWnd@@UAEPAXI@Z
; Function compile flags: /Ogsp
CONST	ENDS
;	COMDAT ??0GameOptionWnd@@QAE@XZ
_TEXT	SEGMENT
??0GameOptionWnd@@QAE@XZ PROC				; GameOptionWnd::GameOptionWnd, COMDAT
; _this$ = ecx

; 1597 : {

  00000	56		 push	 esi
  00001	8b f1		 mov	 esi, ecx
  00003	ff 15 00 00 00
	00		 call	 DWORD PTR __imp_??0ioMovingWnd@@QAE@XZ

; 1598 : 	m_dwCheckBtn = ID_SPEC_TAB_BTN;
; 1599 : 	m_pPlayStage = NULL;

  00009	83 a6 90 01 00
	00 00		 and	 DWORD PTR [esi+400], 0
  00010	c7 06 00 00 00
	00		 mov	 DWORD PTR [esi], OFFSET ??_7GameOptionWnd@@6B@
  00016	c7 86 94 01 00
	00 03 00 00 00	 mov	 DWORD PTR [esi+404], 3

; 1600 : }

  00020	8b c6		 mov	 eax, esi
  00022	5e		 pop	 esi
  00023	c3		 ret	 0
??0GameOptionWnd@@QAE@XZ ENDP				; GameOptionWnd::GameOptionWnd
_TEXT	ENDS
PUBLIC	??1GameOptionWnd@@UAE@XZ			; GameOptionWnd::~GameOptionWnd
EXTRN	__imp_??1ioMovingWnd@@UAE@XZ:PROC
; Function compile flags: /Ogsp
;	COMDAT ??1GameOptionWnd@@UAE@XZ
_TEXT	SEGMENT
??1GameOptionWnd@@UAE@XZ PROC				; GameOptionWnd::~GameOptionWnd, COMDAT
; _this$ = ecx

; 1603 : {

  00000	c7 01 00 00 00
	00		 mov	 DWORD PTR [ecx], OFFSET ??_7GameOptionWnd@@6B@

; 1604 : 
; 1605 : }

  00006	ff 25 00 00 00
	00		 jmp	 DWORD PTR __imp_??1ioMovingWnd@@UAE@XZ
??1GameOptionWnd@@UAE@XZ ENDP				; GameOptionWnd::~GameOptionWnd
_TEXT	ENDS
PUBLIC	??_C@_0CD@HPIFIOJA@XML?1GameOptionSettingJoyKeyTab?4x@ ; `string'
PUBLIC	??_C@_0CA@IFLAMNDJ@XML?1gameoptionsettingkeytab?4xml?$AA@ ; `string'
PUBLIC	??_C@_0CJ@GMFOKLMM@XML?1gameoptionsettingmovieandsho@ ; `string'
PUBLIC	??_C@_0CB@LLJHNANE@XML?1GameOptionSettingGameTab?4xml@ ; `string'
PUBLIC	??_C@_0BM@CIINIHBH@XML?1GameOptionVolumeTab?4xml?$AA@ ; `string'
PUBLIC	??_C@_0BK@OKONJJCD@XML?1GameOptionSpecTab?4xml?$AA@ ; `string'
EXTRN	__imp_?AddWnd@ioGUIManager@@QAEPAVioWnd@@PBDPAV2@@Z:PROC
;	COMDAT ??_C@_0CD@HPIFIOJA@XML?1GameOptionSettingJoyKeyTab?4x@
CONST	SEGMENT
??_C@_0CD@HPIFIOJA@XML?1GameOptionSettingJoyKeyTab?4x@ DB 'XML/GameOption'
	DB	'SettingJoyKeyTab.xml', 00H			; `string'
CONST	ENDS
;	COMDAT ??_C@_0CA@IFLAMNDJ@XML?1gameoptionsettingkeytab?4xml?$AA@
CONST	SEGMENT
??_C@_0CA@IFLAMNDJ@XML?1gameoptionsettingkeytab?4xml?$AA@ DB 'XML/gameopt'
	DB	'ionsettingkeytab.xml', 00H			; `string'
CONST	ENDS
;	COMDAT ??_C@_0CJ@GMFOKLMM@XML?1gameoptionsettingmovieandsho@
CONST	SEGMENT
??_C@_0CJ@GMFOKLMM@XML?1gameoptionsettingmovieandsho@ DB 'XML/gameoptions'
	DB	'ettingmovieandshottab.xml', 00H		; `string'
CONST	ENDS
;	COMDAT ??_C@_0CB@LLJHNANE@XML?1GameOptionSettingGameTab?4xml@
CONST	SEGMENT
??_C@_0CB@LLJHNANE@XML?1GameOptionSettingGameTab?4xml@ DB 'XML/GameOption'
	DB	'SettingGameTab.xml', 00H			; `string'
CONST	ENDS
;	COMDAT ??_C@_0BM@CIINIHBH@XML?1GameOptionVolumeTab?4xml?$AA@
CONST	SEGMENT
??_C@_0BM@CIINIHBH@XML?1GameOptionVolumeTab?4xml?$AA@ DB 'XML/GameOptionV'
	DB	'olumeTab.xml', 00H				; `string'
CONST	ENDS
;	COMDAT ??_C@_0BK@OKONJJCD@XML?1GameOptionSpecTab?4xml?$AA@
CONST	SEGMENT
??_C@_0BK@OKONJJCD@XML?1GameOptionSpecTab?4xml?$AA@ DB 'XML/GameOptionSpe'
	DB	'cTab.xml', 00H				; `string'
; Function compile flags: /Ogsp
CONST	ENDS
;	COMDAT ?iwm_create@GameOptionWnd@@UAEXXZ
_TEXT	SEGMENT
?iwm_create@GameOptionWnd@@UAEXXZ PROC			; GameOptionWnd::iwm_create, COMDAT
; _this$ = ecx

; 1608 : {

  00000	56		 push	 esi
  00001	57		 push	 edi
  00002	8b f9		 mov	 edi, ecx

; 1609 : 	g_GUIMgr.AddWnd( "XML/GameOptionSpecTab.xml", this );

  00004	57		 push	 edi
  00005	68 00 00 00 00	 push	 OFFSET ??_C@_0BK@OKONJJCD@XML?1GameOptionSpecTab?4xml?$AA@
  0000a	e8 00 00 00 00	 call	 ?GetSingleton@ioSP2GUIManager@@SAAAV1@XZ ; ioSP2GUIManager::GetSingleton
  0000f	8b 35 00 00 00
	00		 mov	 esi, DWORD PTR __imp_?AddWnd@ioGUIManager@@QAEPAVioWnd@@PBDPAV2@@Z
  00015	8b c8		 mov	 ecx, eax
  00017	ff d6		 call	 esi

; 1610 : 	g_GUIMgr.AddWnd( "XML/GameOptionVolumeTab.xml", this );

  00019	57		 push	 edi
  0001a	68 00 00 00 00	 push	 OFFSET ??_C@_0BM@CIINIHBH@XML?1GameOptionVolumeTab?4xml?$AA@
  0001f	e8 00 00 00 00	 call	 ?GetSingleton@ioSP2GUIManager@@SAAAV1@XZ ; ioSP2GUIManager::GetSingleton
  00024	8b c8		 mov	 ecx, eax
  00026	ff d6		 call	 esi

; 1611 : 	g_GUIMgr.AddWnd( "XML/GameOptionSettingGameTab.xml", this );

  00028	57		 push	 edi
  00029	68 00 00 00 00	 push	 OFFSET ??_C@_0CB@LLJHNANE@XML?1GameOptionSettingGameTab?4xml@
  0002e	e8 00 00 00 00	 call	 ?GetSingleton@ioSP2GUIManager@@SAAAV1@XZ ; ioSP2GUIManager::GetSingleton
  00033	8b c8		 mov	 ecx, eax
  00035	ff d6		 call	 esi

; 1612 : 	g_GUIMgr.AddWnd( "XML/gameoptionsettingmovieandshottab.xml", this );

  00037	57		 push	 edi
  00038	68 00 00 00 00	 push	 OFFSET ??_C@_0CJ@GMFOKLMM@XML?1gameoptionsettingmovieandsho@
  0003d	e8 00 00 00 00	 call	 ?GetSingleton@ioSP2GUIManager@@SAAAV1@XZ ; ioSP2GUIManager::GetSingleton
  00042	8b c8		 mov	 ecx, eax
  00044	ff d6		 call	 esi

; 1613 : 	g_GUIMgr.AddWnd( "XML/gameoptionsettingkeytab.xml", this );

  00046	57		 push	 edi
  00047	68 00 00 00 00	 push	 OFFSET ??_C@_0CA@IFLAMNDJ@XML?1gameoptionsettingkeytab?4xml?$AA@
  0004c	e8 00 00 00 00	 call	 ?GetSingleton@ioSP2GUIManager@@SAAAV1@XZ ; ioSP2GUIManager::GetSingleton
  00051	8b c8		 mov	 ecx, eax
  00053	ff d6		 call	 esi

; 1614 : 	g_GUIMgr.AddWnd( "XML/GameOptionSettingJoyKeyTab.xml", this );

  00055	57		 push	 edi
  00056	68 00 00 00 00	 push	 OFFSET ??_C@_0CD@HPIFIOJA@XML?1GameOptionSettingJoyKeyTab?4x@
  0005b	e8 00 00 00 00	 call	 ?GetSingleton@ioSP2GUIManager@@SAAAV1@XZ ; ioSP2GUIManager::GetSingleton
  00060	8b c8		 mov	 ecx, eax
  00062	ff d6		 call	 esi
  00064	5f		 pop	 edi
  00065	5e		 pop	 esi

; 1615 : }

  00066	c3		 ret	 0
?iwm_create@GameOptionWnd@@UAEXXZ ENDP			; GameOptionWnd::iwm_create
_TEXT	ENDS
EXTRN	__imp_?HideChildWnd@ioWnd@@QAEXK_N@Z:PROC
; Function compile flags: /Ogsp
;	COMDAT ?iwm_hide@GameOptionWnd@@UAEXXZ
_TEXT	SEGMENT
?iwm_hide@GameOptionWnd@@UAEXXZ PROC			; GameOptionWnd::iwm_hide, COMDAT
; _this$ = ecx

; 1650 : {

  00000	53		 push	 ebx
  00001	56		 push	 esi

; 1651 : 	HideChildWnd( ID_SPEC_TAB_WND );

  00002	8b 35 00 00 00
	00		 mov	 esi, DWORD PTR __imp_?HideChildWnd@ioWnd@@QAEXK_N@Z
  00008	57		 push	 edi
  00009	33 db		 xor	 ebx, ebx
  0000b	53		 push	 ebx
  0000c	6a 65		 push	 101			; 00000065H
  0000e	8b f9		 mov	 edi, ecx
  00010	ff d6		 call	 esi

; 1652 : 	HideChildWnd( ID_VOLUME_TAB_WND );

  00012	53		 push	 ebx
  00013	6a 66		 push	 102			; 00000066H
  00015	8b cf		 mov	 ecx, edi
  00017	ff d6		 call	 esi

; 1653 : 	HideChildWnd( ID_GAME_TAB_WND );

  00019	53		 push	 ebx
  0001a	6a 67		 push	 103			; 00000067H
  0001c	8b cf		 mov	 ecx, edi
  0001e	ff d6		 call	 esi

; 1654 : 	HideChildWnd( ID_MOVIE_SCREENSHOT_TAB_WND );

  00020	53		 push	 ebx
  00021	6a 68		 push	 104			; 00000068H
  00023	8b cf		 mov	 ecx, edi
  00025	ff d6		 call	 esi

; 1655 : 	HideChildWnd( ID_KEYBOARD_TAB_WND );

  00027	53		 push	 ebx
  00028	6a 69		 push	 105			; 00000069H
  0002a	8b cf		 mov	 ecx, edi
  0002c	ff d6		 call	 esi

; 1656 : 	HideChildWnd( ID_JOYPAD_TAB_WND );

  0002e	53		 push	 ebx
  0002f	6a 6a		 push	 106			; 0000006aH
  00031	8b cf		 mov	 ecx, edi
  00033	ff d6		 call	 esi
  00035	5f		 pop	 edi
  00036	5e		 pop	 esi
  00037	5b		 pop	 ebx

; 1657 : }

  00038	c3		 ret	 0
?iwm_hide@GameOptionWnd@@UAEXXZ ENDP			; GameOptionWnd::iwm_hide
_TEXT	ENDS
PUBLIC	?SetPlayStage@GameOptionWnd@@QAEXPAVioPlayStage@@@Z ; GameOptionWnd::SetPlayStage
; Function compile flags: /Ogsp
;	COMDAT ?SetPlayStage@GameOptionWnd@@QAEXPAVioPlayStage@@@Z
_TEXT	SEGMENT
_pPlayStage$ = 8					; size = 4
?SetPlayStage@GameOptionWnd@@QAEXPAVioPlayStage@@@Z PROC ; GameOptionWnd::SetPlayStage, COMDAT
; _this$ = ecx

; 1660 : {

  00000	55		 push	 ebp
  00001	8b ec		 mov	 ebp, esp

; 1661 : 	m_pPlayStage = pPlayStage; 

  00003	8b 45 08	 mov	 eax, DWORD PTR _pPlayStage$[ebp]
  00006	56		 push	 esi

; 1662 : 
; 1663 : 	GameOptionSpecTab *pSpecTab = dynamic_cast< GameOptionSpecTab * >( FindChildWnd( ID_SPEC_TAB_WND ) );

  00007	6a 00		 push	 0
  00009	68 00 00 00 00	 push	 OFFSET ??_R0?AVGameOptionSpecTab@@@8
  0000e	68 00 00 00 00	 push	 OFFSET ??_R0?AVioWnd@@@8
  00013	6a 00		 push	 0
  00015	8b f1		 mov	 esi, ecx
  00017	6a 65		 push	 101			; 00000065H
  00019	89 86 90 01 00
	00		 mov	 DWORD PTR [esi+400], eax
  0001f	ff 15 00 00 00
	00		 call	 DWORD PTR __imp_?FindChildWnd@ioWnd@@QAEPAV1@K@Z
  00025	50		 push	 eax
  00026	e8 00 00 00 00	 call	 ___RTDynamicCast
  0002b	83 c4 14	 add	 esp, 20			; 00000014H

; 1664 : 	if( pSpecTab )

  0002e	85 c0		 test	 eax, eax
  00030	74 0c		 je	 SHORT $LN4@SetPlaySta

; 1665 : 	{
; 1666 : 		pSpecTab->SetPlayStage( m_pPlayStage );

  00032	8b 8e 90 01 00
	00		 mov	 ecx, DWORD PTR [esi+400]
  00038	89 88 14 02 00
	00		 mov	 DWORD PTR [eax+532], ecx
$LN4@SetPlaySta:
  0003e	5e		 pop	 esi

; 1667 : 	}
; 1668 : }

  0003f	5d		 pop	 ebp
  00040	c2 04 00	 ret	 4
?SetPlayStage@GameOptionWnd@@QAEXPAVioPlayStage@@@Z ENDP ; GameOptionWnd::SetPlayStage
_TEXT	ENDS
PUBLIC	?ChangeWindow@GameOptionWnd@@IAEXK@Z		; GameOptionWnd::ChangeWindow
EXTRN	__imp_?ShowChildWnd@ioWnd@@QAEXK_N@Z:PROC
; Function compile flags: /Ogsp
;	COMDAT ?ChangeWindow@GameOptionWnd@@IAEXK@Z
_TEXT	SEGMENT
_dwBtn$ = 8						; size = 4
?ChangeWindow@GameOptionWnd@@IAEXK@Z PROC		; GameOptionWnd::ChangeWindow, COMDAT
; _this$ = ecx

; 1717 : {

  00000	55		 push	 ebp
  00001	8b ec		 mov	 ebp, esp

; 1718 : 	m_dwCheckBtn = dwBtn;

  00003	8b 45 08	 mov	 eax, DWORD PTR _dwBtn$[ebp]
  00006	53		 push	 ebx
  00007	56		 push	 esi
  00008	57		 push	 edi

; 1719 : 
; 1720 : 	CheckRadioButton( ID_SPEC_TAB_BTN, ID_JOYPAD_TAB_BTN, m_dwCheckBtn );

  00009	50		 push	 eax
  0000a	6a 08		 push	 8
  0000c	8b f9		 mov	 edi, ecx
  0000e	6a 03		 push	 3
  00010	89 87 94 01 00
	00		 mov	 DWORD PTR [edi+404], eax
  00016	ff 15 00 00 00
	00		 call	 DWORD PTR __imp_?CheckRadioButton@ioWnd@@QAEXKKK@Z

; 1721 : 
; 1722 : 	HideChildWnd( ID_SPEC_TAB_WND );

  0001c	8b 35 00 00 00
	00		 mov	 esi, DWORD PTR __imp_?HideChildWnd@ioWnd@@QAEXK_N@Z
  00022	33 db		 xor	 ebx, ebx
  00024	53		 push	 ebx
  00025	6a 65		 push	 101			; 00000065H
  00027	8b cf		 mov	 ecx, edi
  00029	ff d6		 call	 esi

; 1723 : 	HideChildWnd( ID_VOLUME_TAB_WND );

  0002b	53		 push	 ebx
  0002c	6a 66		 push	 102			; 00000066H
  0002e	8b cf		 mov	 ecx, edi
  00030	ff d6		 call	 esi

; 1724 : 	HideChildWnd( ID_GAME_TAB_WND );

  00032	53		 push	 ebx
  00033	6a 67		 push	 103			; 00000067H
  00035	8b cf		 mov	 ecx, edi
  00037	ff d6		 call	 esi

; 1725 : 	HideChildWnd( ID_MOVIE_SCREENSHOT_TAB_WND );

  00039	53		 push	 ebx
  0003a	6a 68		 push	 104			; 00000068H
  0003c	8b cf		 mov	 ecx, edi
  0003e	ff d6		 call	 esi

; 1726 : 	HideChildWnd( ID_KEYBOARD_TAB_WND );

  00040	53		 push	 ebx
  00041	6a 69		 push	 105			; 00000069H
  00043	8b cf		 mov	 ecx, edi
  00045	ff d6		 call	 esi

; 1727 : 	HideChildWnd( ID_JOYPAD_TAB_WND );

  00047	53		 push	 ebx
  00048	6a 6a		 push	 106			; 0000006aH
  0004a	8b cf		 mov	 ecx, edi
  0004c	ff d6		 call	 esi

; 1728 : 	switch( m_dwCheckBtn )

  0004e	8b 87 94 01 00
	00		 mov	 eax, DWORD PTR [edi+404]
  00054	83 e8 03	 sub	 eax, 3
  00057	74 28		 je	 SHORT $LN6@ChangeWind
  00059	48		 dec	 eax
  0005a	74 20		 je	 SHORT $LN5@ChangeWind
  0005c	48		 dec	 eax
  0005d	74 18		 je	 SHORT $LN4@ChangeWind
  0005f	48		 dec	 eax
  00060	74 10		 je	 SHORT $LN3@ChangeWind
  00062	48		 dec	 eax
  00063	74 08		 je	 SHORT $LN2@ChangeWind
  00065	48		 dec	 eax
  00066	75 24		 jne	 SHORT $LN7@ChangeWind

; 1745 : 	case ID_JOYPAD_TAB_BTN:
; 1746 : 		ShowChildWnd( ID_JOYPAD_TAB_WND );

  00068	53		 push	 ebx
  00069	6a 6a		 push	 106			; 0000006aH

; 1747 : 		break;

  0006b	eb 17		 jmp	 SHORT $LN11@ChangeWind
$LN2@ChangeWind:

; 1742 : 	case ID_KEYBOARD_TAB_BTN:
; 1743 : 		ShowChildWnd( ID_KEYBOARD_TAB_WND );

  0006d	53		 push	 ebx
  0006e	6a 69		 push	 105			; 00000069H

; 1744 : 		break;

  00070	eb 12		 jmp	 SHORT $LN11@ChangeWind
$LN3@ChangeWind:

; 1739 : 	case ID_MOVIE_SCREENSHOT_TAB_BTN:
; 1740 : 		ShowChildWnd( ID_MOVIE_SCREENSHOT_TAB_WND );

  00072	53		 push	 ebx
  00073	6a 68		 push	 104			; 00000068H

; 1741 : 		break;

  00075	eb 0d		 jmp	 SHORT $LN11@ChangeWind
$LN4@ChangeWind:

; 1736 : 	case ID_GAME_TAB_BTN:
; 1737 : 		ShowChildWnd( ID_GAME_TAB_WND );

  00077	53		 push	 ebx
  00078	6a 67		 push	 103			; 00000067H

; 1738 : 		break;

  0007a	eb 08		 jmp	 SHORT $LN11@ChangeWind
$LN5@ChangeWind:

; 1732 : 		break;
; 1733 : 	case ID_VOLUME_TAB_BTN:
; 1734 : 		ShowChildWnd( ID_VOLUME_TAB_WND );

  0007c	53		 push	 ebx
  0007d	6a 66		 push	 102			; 00000066H

; 1735 : 		break;

  0007f	eb 03		 jmp	 SHORT $LN11@ChangeWind
$LN6@ChangeWind:

; 1729 : 	{
; 1730 : 	case ID_SPEC_TAB_BTN:
; 1731 : 		ShowChildWnd( ID_SPEC_TAB_WND );

  00081	53		 push	 ebx
  00082	6a 65		 push	 101			; 00000065H
$LN11@ChangeWind:
  00084	8b cf		 mov	 ecx, edi
  00086	ff 15 00 00 00
	00		 call	 DWORD PTR __imp_?ShowChildWnd@ioWnd@@QAEXK_N@Z
$LN7@ChangeWind:
  0008c	5f		 pop	 edi
  0008d	5e		 pop	 esi
  0008e	5b		 pop	 ebx

; 1748 : 	}
; 1749 : }

  0008f	5d		 pop	 ebp
  00090	c2 04 00	 ret	 4
?ChangeWindow@GameOptionWnd@@IAEXK@Z ENDP		; GameOptionWnd::ChangeWindow
_TEXT	ENDS
EXTRN	__imp_?SetPositionToDefault@ioMovingWnd@@UAEXHH_N0@Z:PROC
; Function compile flags: /Ogsp
;	COMDAT ?SetPositionToDefault@GameOptionWnd@@UAEXHH_N0@Z
_TEXT	SEGMENT
_iParentWidth$ = 8					; size = 4
_iParentHeight$ = 12					; size = 4
_bChildMove$ = 16					; size = 1
_bCreate$ = 20						; size = 1
?SetPositionToDefault@GameOptionWnd@@UAEXHH_N0@Z PROC	; GameOptionWnd::SetPositionToDefault, COMDAT
; _this$ = ecx

; 1752 : {

  00000	55		 push	 ebp
  00001	8b ec		 mov	 ebp, esp
  00003	56		 push	 esi

; 1753 : 	ioMovingWnd::SetPositionToDefault( iParentWidth, iParentHeight, bChildMove, bCreate );

  00004	ff 75 14	 push	 DWORD PTR _bCreate$[ebp]
  00007	8b f1		 mov	 esi, ecx
  00009	ff 75 10	 push	 DWORD PTR _bChildMove$[ebp]
  0000c	ff 75 0c	 push	 DWORD PTR _iParentHeight$[ebp]
  0000f	ff 75 08	 push	 DWORD PTR _iParentWidth$[ebp]
  00012	ff 15 00 00 00
	00		 call	 DWORD PTR __imp_?SetPositionToDefault@ioMovingWnd@@UAEXHH_N0@Z

; 1754 : 	
; 1755 : 	if( !bCreate )

  00018	80 7d 14 00	 cmp	 BYTE PTR _bCreate$[ebp], 0
  0001c	75 0d		 jne	 SHORT $LN1@SetPositio

; 1756 : 	{
; 1757 : 		ChangeWindow( m_dwCheckBtn );

  0001e	ff b6 94 01 00
	00		 push	 DWORD PTR [esi+404]
  00024	8b ce		 mov	 ecx, esi
  00026	e8 00 00 00 00	 call	 ?ChangeWindow@GameOptionWnd@@IAEXK@Z ; GameOptionWnd::ChangeWindow
$LN1@SetPositio:
  0002b	5e		 pop	 esi

; 1758 : 	}
; 1759 : }

  0002c	5d		 pop	 ebp
  0002d	c2 10 00	 ret	 16			; 00000010H
?SetPositionToDefault@GameOptionWnd@@UAEXHH_N0@Z ENDP	; GameOptionWnd::SetPositionToDefault
_TEXT	ENDS
PUBLIC	?ShowSelectTab@GameOptionWnd@@QAEXKK@Z		; GameOptionWnd::ShowSelectTab
EXTRN	__imp_?ShowWnd@ioWnd@@QAEXXZ:PROC
EXTRN	__imp_?IsShow@ioWnd@@QBE_NXZ:PROC
; Function compile flags: /Ogsp
;	COMDAT ?ShowSelectTab@GameOptionWnd@@QAEXKK@Z
_TEXT	SEGMENT
_dwTabBtnID$ = 8					; size = 4
_dwChildTabBtnID$ = 12					; size = 4
?ShowSelectTab@GameOptionWnd@@QAEXKK@Z PROC		; GameOptionWnd::ShowSelectTab, COMDAT
; _this$ = ecx

; 1762 : {

  00000	55		 push	 ebp
  00001	8b ec		 mov	 ebp, esp
  00003	56		 push	 esi
  00004	57		 push	 edi
  00005	8b f9		 mov	 edi, ecx

; 1763 : 	if( !IsShow() )

  00007	ff 15 00 00 00
	00		 call	 DWORD PTR __imp_?IsShow@ioWnd@@QBE_NXZ
  0000d	84 c0		 test	 al, al
  0000f	75 08		 jne	 SHORT $LN8@ShowSelect

; 1764 : 		ShowWnd();

  00011	8b cf		 mov	 ecx, edi
  00013	ff 15 00 00 00
	00		 call	 DWORD PTR __imp_?ShowWnd@ioWnd@@QAEXXZ
$LN8@ShowSelect:

; 1765 : 
; 1766 : 	ioWnd *pTabBtn = FindChildWnd( dwTabBtnID );

  00019	ff 75 08	 push	 DWORD PTR _dwTabBtnID$[ebp]
  0001c	8b 35 00 00 00
	00		 mov	 esi, DWORD PTR __imp_?FindChildWnd@ioWnd@@QAEPAV1@K@Z
  00022	8b cf		 mov	 ecx, edi
  00024	ff d6		 call	 esi

; 1767 : 	if( !pTabBtn )

  00026	85 c0		 test	 eax, eax
  00028	74 47		 je	 SHORT $LN9@ShowSelect

; 1768 : 		return;
; 1769 : 
; 1770 : 	iwm_command( pTabBtn, IOBN_BTNDOWN, 0 );

  0002a	8b 17		 mov	 edx, DWORD PTR [edi]
  0002c	6a 00		 push	 0
  0002e	6a 10		 push	 16			; 00000010H
  00030	50		 push	 eax
  00031	8b cf		 mov	 ecx, edi
  00033	ff 92 8c 00 00
	00		 call	 DWORD PTR [edx+140]

; 1771 : 
; 1772 : 	ioWnd *pTabWnd = NULL;
; 1773 : 	if( dwTabBtnID == ID_SPEC_TAB_BTN )

  00039	83 7d 08 03	 cmp	 DWORD PTR _dwTabBtnID$[ebp], 3

; 1774 : 		pTabWnd = FindChildWnd( ID_GAME_TAB_WND );

  0003d	74 10		 je	 SHORT $LN11@ShowSelect

; 1775 : 	else if( dwTabBtnID == ID_VOLUME_TAB_BTN )

  0003f	83 7d 08 04	 cmp	 DWORD PTR _dwTabBtnID$[ebp], 4
  00043	75 04		 jne	 SHORT $LN4@ShowSelect

; 1776 : 		pTabWnd = FindChildWnd( ID_VOLUME_TAB_WND );

  00045	6a 66		 push	 102			; 00000066H
  00047	eb 08		 jmp	 SHORT $LN12@ShowSelect
$LN4@ShowSelect:

; 1777 : 	else if( dwChildTabBtnID == ID_GAME_TAB_BTN )

  00049	83 7d 0c 05	 cmp	 DWORD PTR _dwChildTabBtnID$[ebp], 5
  0004d	75 22		 jne	 SHORT $LN9@ShowSelect
$LN11@ShowSelect:

; 1778 : 		pTabWnd = FindChildWnd( ID_GAME_TAB_WND );

  0004f	6a 67		 push	 103			; 00000067H
$LN12@ShowSelect:
  00051	8b cf		 mov	 ecx, edi
  00053	ff d6		 call	 esi
  00055	8b f8		 mov	 edi, eax

; 1779 : 
; 1780 : 	if( !pTabWnd )

  00057	85 ff		 test	 edi, edi
  00059	74 16		 je	 SHORT $LN9@ShowSelect

; 1781 : 		return;
; 1782 : 
; 1783 : 	ioWnd *pChildTabBtn = pTabWnd->FindChildWnd( dwChildTabBtnID );

  0005b	ff 75 0c	 push	 DWORD PTR _dwChildTabBtnID$[ebp]
  0005e	8b cf		 mov	 ecx, edi
  00060	ff d6		 call	 esi

; 1784 : 	pTabWnd->iwm_command( pChildTabBtn, IOBN_BTNDOWN, 0 );

  00062	8b 17		 mov	 edx, DWORD PTR [edi]
  00064	6a 00		 push	 0
  00066	6a 10		 push	 16			; 00000010H
  00068	50		 push	 eax
  00069	8b cf		 mov	 ecx, edi
  0006b	ff 92 8c 00 00
	00		 call	 DWORD PTR [edx+140]
$LN9@ShowSelect:
  00071	5f		 pop	 edi
  00072	5e		 pop	 esi

; 1785 : }

  00073	5d		 pop	 ebp
  00074	c2 08 00	 ret	 8
?ShowSelectTab@GameOptionWnd@@QAEXKK@Z ENDP		; GameOptionWnd::ShowSelectTab
_TEXT	ENDS
PUBLIC	??_7BackgroundChangeBtn@@6B@			; BackgroundChangeBtn::`vftable'
PUBLIC	??0BackgroundChangeBtn@@QAE@XZ			; BackgroundChangeBtn::BackgroundChangeBtn
PUBLIC	??_R4BackgroundChangeBtn@@6B@			; BackgroundChangeBtn::`RTTI Complete Object Locator'
PUBLIC	??_R0?AVBackgroundChangeBtn@@@8			; BackgroundChangeBtn `RTTI Type Descriptor'
PUBLIC	??_R3BackgroundChangeBtn@@8			; BackgroundChangeBtn::`RTTI Class Hierarchy Descriptor'
PUBLIC	??_R2BackgroundChangeBtn@@8			; BackgroundChangeBtn::`RTTI Base Class Array'
PUBLIC	??_R1A@?0A@EA@BackgroundChangeBtn@@8		; BackgroundChangeBtn::`RTTI Base Class Descriptor at (0,-1,0,64)'
PUBLIC	?AddRenderFrame@BackgroundChangeBtn@@MAEXABVioHashString@@PAVioUIRenderFrame@@@Z ; BackgroundChangeBtn::AddRenderFrame
PUBLIC	?AddRenderImage@BackgroundChangeBtn@@MAEXABVioHashString@@PAVioUIRenderImage@@@Z ; BackgroundChangeBtn::AddRenderImage
PUBLIC	?OnRender@BackgroundChangeBtn@@MAEXXZ		; BackgroundChangeBtn::OnRender
PUBLIC	?iwm_show@BackgroundChangeBtn@@UAEXXZ		; BackgroundChangeBtn::iwm_show
EXTRN	??_EBackgroundChangeBtn@@UAEPAXI@Z:PROC		; BackgroundChangeBtn::`vector deleting destructor'
;	COMDAT ??_R1A@?0A@EA@BackgroundChangeBtn@@8
rdata$r	SEGMENT
??_R1A@?0A@EA@BackgroundChangeBtn@@8 DD FLAT:??_R0?AVBackgroundChangeBtn@@@8 ; BackgroundChangeBtn::`RTTI Base Class Descriptor at (0,-1,0,64)'
	DD	02H
	DD	00H
	DD	0ffffffffH
	DD	00H
	DD	040H
	DD	FLAT:??_R3BackgroundChangeBtn@@8
rdata$r	ENDS
;	COMDAT ??_R2BackgroundChangeBtn@@8
rdata$r	SEGMENT
??_R2BackgroundChangeBtn@@8 DD FLAT:??_R1A@?0A@EA@BackgroundChangeBtn@@8 ; BackgroundChangeBtn::`RTTI Base Class Array'
	DD	FLAT:??_R1A@?0A@EA@ioButton@@8
	DD	FLAT:??_R1A@?0A@EA@ioWnd@@8
rdata$r	ENDS
;	COMDAT ??_R3BackgroundChangeBtn@@8
rdata$r	SEGMENT
??_R3BackgroundChangeBtn@@8 DD 00H			; BackgroundChangeBtn::`RTTI Class Hierarchy Descriptor'
	DD	00H
	DD	03H
	DD	FLAT:??_R2BackgroundChangeBtn@@8
rdata$r	ENDS
;	COMDAT ??_R0?AVBackgroundChangeBtn@@@8
_DATA	SEGMENT
??_R0?AVBackgroundChangeBtn@@@8 DD FLAT:??_7type_info@@6B@ ; BackgroundChangeBtn `RTTI Type Descriptor'
	DD	00H
	DB	'.?AVBackgroundChangeBtn@@', 00H
_DATA	ENDS
;	COMDAT ??_R4BackgroundChangeBtn@@6B@
rdata$r	SEGMENT
??_R4BackgroundChangeBtn@@6B@ DD 00H			; BackgroundChangeBtn::`RTTI Complete Object Locator'
	DD	00H
	DD	00H
	DD	FLAT:??_R0?AVBackgroundChangeBtn@@@8
	DD	FLAT:??_R3BackgroundChangeBtn@@8
rdata$r	ENDS
;	COMDAT ??_7BackgroundChangeBtn@@6B@
CONST	SEGMENT
??_7BackgroundChangeBtn@@6B@ DD FLAT:??_R4BackgroundChangeBtn@@6B@ ; BackgroundChangeBtn::`vftable'
	DD	FLAT:?AddRenderFrame@BackgroundChangeBtn@@MAEXABVioHashString@@PAVioUIRenderFrame@@@Z
	DD	FLAT:?AddRenderImage@BackgroundChangeBtn@@MAEXABVioHashString@@PAVioUIRenderImage@@@Z
	DD	FLAT:?AddTooltipHelp@ioWnd@@UAEXABVioHashString@@00@Z
	DD	FLAT:?ParseExtraInfo@ioButton@@UAEXAAVioXMLElement@@@Z
	DD	FLAT:?AddNamedRenderImage@ioWnd@@UAEXABVioHashString@@PAVioUIRenderImage@@@Z
	DD	FLAT:?RemoveNamedRenderImage@ioWnd@@UAEXABVioHashString@@@Z
	DD	FLAT:?GetNamedRenderImage@ioWnd@@UBEPAVioUIRenderImage@@ABVioHashString@@@Z
	DD	FLAT:?SetWindowAlpha@ioButton@@UAEXH@Z
	DD	FLAT:?SetActive@ioWnd@@UAEXXZ
	DD	FLAT:?SetInActive@ioWnd@@UAEXXZ
	DD	FLAT:?ClearElementImageList@ioWnd@@UAEXXZ
	DD	FLAT:?SetSize@ioWnd@@UAEXHH@Z
	DD	FLAT:?SetPositionToDefault@ioWnd@@UAEXHH_N0@Z
	DD	FLAT:?IsNeedProcess@ioWnd@@UBE_NXZ
	DD	FLAT:?IsCanMouseReaction@ioWnd@@UBE_NXZ
	DD	FLAT:?AddChild@ioWnd@@UAEXPAV1@@Z
	DD	FLAT:?DeleteChild@ioWnd@@UAEXK@Z
	DD	FLAT:?DeleteAllChild@ioWnd@@UAEXXZ
	DD	FLAT:?OnRenderShowAndHide@ioWnd@@MAE_NXZ
	DD	FLAT:?OnRenderShowAndHideByDefault@ioWnd@@MAE_NK@Z
	DD	FLAT:?OnRenderShowAndHideByTop@ioWnd@@MAE_NK@Z
	DD	FLAT:?OnRenderShowAndHideByDown@ioWnd@@MAE_NK@Z
	DD	FLAT:?OnRender@BackgroundChangeBtn@@MAEXXZ
	DD	FLAT:?OnRenderAfterChild@ioWnd@@MAEXXZ
	DD	FLAT:?OnProcess@ioWnd@@MAEXM@Z
	DD	FLAT:?OnMouseProcess@ioWnd@@MAEXABVioMouse@@@Z
	DD	FLAT:?CheckFrameReSize@ioButton@@MAEXHHHH@Z
	DD	FLAT:?RenderImageList@ioWnd@@MAEXHHW4UIRenderType@@@Z
	DD	FLAT:?iwm_create@ioWnd@@UAEXXZ
	DD	FLAT:?iwm_destroy@ioWnd@@UAEXXZ
	DD	FLAT:?iwm_lbuttondown@ioButton@@UAEXABVioMouse@@@Z
	DD	FLAT:?iwm_lbuttonup@ioButton@@UAEXABVioMouse@@@Z
	DD	FLAT:?iwm_lbuttonDBLCLK@ioButton@@UAEXABVioMouse@@@Z
	DD	FLAT:?iwm_rbuttondown@ioButton@@UAEXABVioMouse@@@Z
	DD	FLAT:?iwm_rbuttonup@ioButton@@UAEXABVioMouse@@@Z
	DD	FLAT:?iwm_command@ioWnd@@UAEXPAV1@HK@Z
	DD	FLAT:?iwm_mouseover@ioButton@@UAEXABVioMouse@@@Z
	DD	FLAT:?iwm_mousemove@ioWnd@@UAEXABVioMouse@@@Z
	DD	FLAT:?iwm_mouseleave@ioWnd@@UAEXABVioMouse@@@Z
	DD	FLAT:?iwm_vscroll@ioWnd@@UAEXKH@Z
	DD	FLAT:?iwm_wheel@ioWnd@@UAEXH@Z
	DD	FLAT:?iwm_show@BackgroundChangeBtn@@UAEXXZ
	DD	FLAT:?iwm_hide@ioWnd@@UAEXXZ
	DD	FLAT:?iwm_esc@ioWnd@@UAE_NXZ
	DD	FLAT:?iwm_spacebar@ioWnd@@UAE_NXZ
	DD	FLAT:?iwm_gototop@ioWnd@@UAEXXZ
	DD	FLAT:?iwm_dragenter@ioWnd@@UAE?AW4IWDropEffect@@PAVioDragItem@@ABVioMouse@@@Z
	DD	FLAT:?iwm_dragover@ioWnd@@UAE?AW4IWDropEffect@@PAVioDragItem@@ABVioMouse@@@Z
	DD	FLAT:?iwm_dragleave@ioWnd@@UAEXXZ
	DD	FLAT:?iwm_dropitem@ioWnd@@UAE_NPAVioDragItem@@ABVioMouse@@PAV1@@Z
	DD	FLAT:?iwm_dropdone@ioWnd@@UAEXPAVioDragItem@@PAV1@_N@Z
	DD	FLAT:?IsEXType@ioWnd@@UBE_NXZ
	DD	FLAT:?GetWndType@ioButton@@UBEKXZ
	DD	FLAT:?RenderWnd@ioWnd@@UAEXXZ
	DD	FLAT:?SetIDEX@ioWnd@@UAEXAAK_N@Z
	DD	FLAT:?ParseXML@ioWnd@@UAEXAAVioXMLElement@@@Z
	DD	FLAT:?GetHeaderFileName@ioButton@@UAEPBDXZ
	DD	FLAT:?GetTemplateName@ioButton@@UAEPBDXZ
	DD	FLAT:?GetDefClassName@ioButton@@UBEPBDXZ
	DD	FLAT:?_Clone@ioButton@@UAEPAVioWnd@@XZ
	DD	FLAT:?Copy@ioButton@@UAEXPAVioWnd@@@Z
	DD	FLAT:?Save@ioWnd@@UAE_NAAVioXMLElement@@@Z
	DD	FLAT:?SetSaveData@ioButton@@UAEXAAVioXMLElement@@@Z
	DD	FLAT:?SetPosX@ioWnd@@UAEXH@Z
	DD	FLAT:?SetPosY@ioWnd@@UAEXH@Z
	DD	FLAT:?SetWidth@ioWnd@@UAEXH@Z
	DD	FLAT:?SetHeight@ioWnd@@UAEXH@Z
	DD	FLAT:?GetNumFixedRenderFrame@ioButton@@UBEHXZ
	DD	FLAT:?GetFixedRenderFrameType@ioButton@@UAEPBDH@Z
	DD	FLAT:?GetRenderFrame@ioButton@@UAEPAPAVioUIRenderElement@@PBD@Z
	DD	FLAT:?GetNumFixedRenderImage@ioButton@@UBEHXZ
	DD	FLAT:?GetFixedRenderImageType@ioButton@@UAEPBDH@Z
	DD	FLAT:?GetRenderImage@ioButton@@UAEPAPAVioUIRenderElement@@PBD@Z
	DD	FLAT:?AddEffect@ioWnd@@UAEXABVioHashString@@PAVioUI3DEffectRender@@@Z
	DD	FLAT:?GetEffect@ioWnd@@UAEPAVioUI3DEffectRender@@VioHashString@@@Z
	DD	FLAT:??_EBackgroundChangeBtn@@UAEPAXI@Z
	DD	FLAT:?OnDrawNormal@ioButton@@MAEXHH@Z
	DD	FLAT:?OnDrawOvered@ioButton@@MAEXHH@Z
	DD	FLAT:?OnDrawOveredAdd@ioButton@@MAEXHH@Z
	DD	FLAT:?OnDrawPushed@ioButton@@MAEXHH@Z
	DD	FLAT:?OnDrawDisabled@ioButton@@MAEXHH@Z
	DD	FLAT:?OnDrawExDisabledNormal@ioButton@@MAEXHH@Z
	DD	FLAT:?OnDrawExDisabledOvered@ioButton@@MAEXHH@Z
	DD	FLAT:?OnDrawExDisabledPushed@ioButton@@MAEXHH@Z
	DD	FLAT:?OnDrawBack@ioButton@@MAEXHH@Z
	DD	FLAT:?OnDrawNormalList@ioButton@@MAEXHH@Z
	DD	FLAT:?OnDrawDisableList@ioButton@@MAEXHH@Z
; Function compile flags: /Ogsp
CONST	ENDS
;	COMDAT ??0BackgroundChangeBtn@@QAE@XZ
_TEXT	SEGMENT
??0BackgroundChangeBtn@@QAE@XZ PROC			; BackgroundChangeBtn::BackgroundChangeBtn, COMDAT
; _this$ = ecx

; 1789 : {

  00000	56		 push	 esi
  00001	8b f1		 mov	 esi, ecx
  00003	ff 15 00 00 00
	00		 call	 DWORD PTR __imp_??0ioButton@@QAE@XZ

; 1790 : 	m_pDefaultBack = NULL;

  00009	33 c0		 xor	 eax, eax
  0000b	89 86 fc 01 00
	00		 mov	 DWORD PTR [esi+508], eax

; 1791 : 	m_pStripBlack  = NULL;

  00011	89 86 00 02 00
	00		 mov	 DWORD PTR [esi+512], eax

; 1792 : 	m_pLineFrame   = NULL;

  00017	89 86 04 02 00
	00		 mov	 DWORD PTR [esi+516], eax

; 1793 : 	m_pCustomBack  = NULL;

  0001d	89 86 08 02 00
	00		 mov	 DWORD PTR [esi+520], eax
  00023	c7 06 00 00 00
	00		 mov	 DWORD PTR [esi], OFFSET ??_7BackgroundChangeBtn@@6B@

; 1794 : }

  00029	8b c6		 mov	 eax, esi
  0002b	5e		 pop	 esi
  0002c	c3		 ret	 0
??0BackgroundChangeBtn@@QAE@XZ ENDP			; BackgroundChangeBtn::BackgroundChangeBtn
_TEXT	ENDS
PUBLIC	??1BackgroundChangeBtn@@UAE@XZ			; BackgroundChangeBtn::~BackgroundChangeBtn
;	COMDAT xdata$x
xdata$x	SEGMENT
__unwindtable$??1BackgroundChangeBtn@@UAE@XZ DD 0ffffffffH
	DD	FLAT:__unwindfunclet$??1BackgroundChangeBtn@@UAE@XZ$0
__ehfuncinfo$??1BackgroundChangeBtn@@UAE@XZ DD 019930522H
	DD	01H
	DD	FLAT:__unwindtable$??1BackgroundChangeBtn@@UAE@XZ
	DD	2 DUP(00H)
	DD	2 DUP(00H)
	DD	00H
	DD	01H
; Function compile flags: /Ogsp
xdata$x	ENDS
;	COMDAT ??1BackgroundChangeBtn@@UAE@XZ
_TEXT	SEGMENT
_this$ = -16						; size = 4
__$EHRec$ = -12						; size = 12
??1BackgroundChangeBtn@@UAE@XZ PROC			; BackgroundChangeBtn::~BackgroundChangeBtn, COMDAT
; _this$ = ecx

; 1797 : {

  00000	6a 04		 push	 4
  00002	b8 00 00 00 00	 mov	 eax, __ehhandler$??1BackgroundChangeBtn@@UAE@XZ
  00007	e8 00 00 00 00	 call	 __EH_prolog3
  0000c	8b f1		 mov	 esi, ecx
  0000e	89 75 f0	 mov	 DWORD PTR _this$[ebp], esi
  00011	c7 06 00 00 00
	00		 mov	 DWORD PTR [esi], OFFSET ??_7BackgroundChangeBtn@@6B@

; 1798 : 	SAFEDELETE( m_pDefaultBack );

  00017	8b 8e fc 01 00
	00		 mov	 ecx, DWORD PTR [esi+508]
  0001d	83 65 fc 00	 and	 DWORD PTR __$EHRec$[ebp+8], 0
  00021	85 c9		 test	 ecx, ecx
  00023	74 0e		 je	 SHORT $LN3@Background
  00025	8b 01		 mov	 eax, DWORD PTR [ecx]
  00027	6a 01		 push	 1
  00029	ff 50 40	 call	 DWORD PTR [eax+64]
  0002c	83 a6 fc 01 00
	00 00		 and	 DWORD PTR [esi+508], 0
$LN3@Background:

; 1799 : 	SAFEDELETE( m_pStripBlack );

  00033	8b 8e 00 02 00
	00		 mov	 ecx, DWORD PTR [esi+512]
  00039	85 c9		 test	 ecx, ecx
  0003b	74 0e		 je	 SHORT $LN2@Background
  0003d	8b 01		 mov	 eax, DWORD PTR [ecx]
  0003f	6a 01		 push	 1
  00041	ff 50 40	 call	 DWORD PTR [eax+64]
  00044	83 a6 00 02 00
	00 00		 and	 DWORD PTR [esi+512], 0
$LN2@Background:

; 1800 : 	SAFEDELETE( m_pLineFrame );

  0004b	8b 8e 04 02 00
	00		 mov	 ecx, DWORD PTR [esi+516]
  00051	85 c9		 test	 ecx, ecx
  00053	74 0e		 je	 SHORT $LN1@Background
  00055	8b 01		 mov	 eax, DWORD PTR [ecx]
  00057	6a 01		 push	 1
  00059	ff 50 40	 call	 DWORD PTR [eax+64]
  0005c	83 a6 04 02 00
	00 00		 and	 DWORD PTR [esi+516], 0
$LN1@Background:

; 1801 : }

  00063	83 4d fc ff	 or	 DWORD PTR __$EHRec$[ebp+8], -1
  00067	8b ce		 mov	 ecx, esi
  00069	ff 15 00 00 00
	00		 call	 DWORD PTR __imp_??1ioButton@@UAE@XZ
  0006f	e8 00 00 00 00	 call	 __EH_epilog3
  00074	c3		 ret	 0
_TEXT	ENDS
;	COMDAT text$x
text$x	SEGMENT
__unwindfunclet$??1BackgroundChangeBtn@@UAE@XZ$0:
  00000	8b 4d f0	 mov	 ecx, DWORD PTR _this$[ebp]
  00003	ff 25 00 00 00
	00		 jmp	 DWORD PTR __imp_??1ioButton@@UAE@XZ
__ehhandler$??1BackgroundChangeBtn@@UAE@XZ:
  00009	8b 54 24 08	 mov	 edx, DWORD PTR [esp+8]
  0000d	8d 42 0c	 lea	 eax, DWORD PTR [edx+12]
  00010	8b 4a ec	 mov	 ecx, DWORD PTR [edx-20]
  00013	33 c8		 xor	 ecx, eax
  00015	e8 00 00 00 00	 call	 @__security_check_cookie@4
  0001a	b8 00 00 00 00	 mov	 eax, OFFSET __ehfuncinfo$??1BackgroundChangeBtn@@UAE@XZ
  0001f	e9 00 00 00 00	 jmp	 ___CxxFrameHandler3
text$x	ENDS
??1BackgroundChangeBtn@@UAE@XZ ENDP			; BackgroundChangeBtn::~BackgroundChangeBtn
EXTRN	?GetBackgroundRes@ioInterfaceBackground@@QAEPAVioUIRenderImage@@W4BackGroundType@@@Z:PROC ; ioInterfaceBackground::GetBackgroundRes
EXTRN	?GetLoading@ioInterfaceBackground@@QAEPAVioUIRenderImage@@_NHH@Z:PROC ; ioInterfaceBackground::GetLoading
EXTRN	?IsCustomLoadingBack@ioInterfaceBackground@@QAE_NXZ:PROC ; ioInterfaceBackground::IsCustomLoadingBack
EXTRN	?GetSingleton@ioInterfaceBackground@@SAAAV1@XZ:PROC ; ioInterfaceBackground::GetSingleton
EXTRN	__imp_?GetID@ioWnd@@QBEKXZ:PROC
; Function compile flags: /Ogsp
;	COMDAT ?iwm_show@BackgroundChangeBtn@@UAEXXZ
_TEXT	SEGMENT
?iwm_show@BackgroundChangeBtn@@UAEXXZ PROC		; BackgroundChangeBtn::iwm_show, COMDAT
; _this$ = ecx

; 1835 : {

  00000	56		 push	 esi
  00001	8b f1		 mov	 esi, ecx

; 1836 : 	m_pCustomBack = NULL;

  00003	83 a6 08 02 00
	00 00		 and	 DWORD PTR [esi+520], 0

; 1837 : 	switch( GetID() )

  0000a	ff 15 00 00 00
	00		 call	 DWORD PTR __imp_?GetID@ioWnd@@QBEKXZ
  00010	48		 dec	 eax
  00011	48		 dec	 eax
  00012	74 44		 je	 SHORT $LN7@iwm_show
  00014	48		 dec	 eax
  00015	74 15		 je	 SHORT $LN6@iwm_show
  00017	48		 dec	 eax
  00018	74 0e		 je	 SHORT $LN3@iwm_show
  0001a	48		 dec	 eax
  0001b	74 07		 je	 SHORT $LN2@iwm_show
  0001d	48		 dec	 eax
  0001e	75 4c		 jne	 SHORT $LN8@iwm_show

; 1862 : 	case BackgroundChangeWnd::ID_MODE_FIND_CHANGE:
; 1863 : 		{
; 1864 : 			m_pCustomBack = g_BackgroundMgr.GetBackgroundRes( BGT_MODE );

  00020	6a 05		 push	 5

; 1865 : 		}
; 1866 : 		break;

  00022	eb 36		 jmp	 SHORT $LN12@iwm_show
$LN2@iwm_show:

; 1857 : 	case BackgroundChangeWnd::ID_LADDER_CHANGE:
; 1858 : 		{
; 1859 : 			m_pCustomBack = g_BackgroundMgr.GetBackgroundRes( BGT_LADDER );

  00024	6a 03		 push	 3

; 1860 : 		}
; 1861 : 		break;

  00026	eb 32		 jmp	 SHORT $LN12@iwm_show
$LN3@iwm_show:

; 1852 : 	case BackgroundChangeWnd::ID_BATTLE_CHANGE:
; 1853 : 		{
; 1854 : 			m_pCustomBack = g_BackgroundMgr.GetBackgroundRes( BGT_BATTLE );

  00028	6a 02		 push	 2

; 1855 : 		}
; 1856 : 		break;

  0002a	eb 2e		 jmp	 SHORT $LN12@iwm_show
$LN6@iwm_show:

; 1842 : 		}
; 1843 : 		break;
; 1844 : 	case BackgroundChangeWnd::ID_LOADING_CHANGE:
; 1845 : 		{
; 1846 : 			if( g_BackgroundMgr.IsCustomLoadingBack() )

  0002c	e8 00 00 00 00	 call	 ?GetSingleton@ioInterfaceBackground@@SAAAV1@XZ ; ioInterfaceBackground::GetSingleton
  00031	8b c8		 mov	 ecx, eax
  00033	e8 00 00 00 00	 call	 ?IsCustomLoadingBack@ioInterfaceBackground@@QAE_NXZ ; ioInterfaceBackground::IsCustomLoadingBack
  00038	84 c0		 test	 al, al
  0003a	74 14		 je	 SHORT $LN5@iwm_show

; 1847 : 				m_pCustomBack = g_BackgroundMgr.GetLoading( false, -1, 0 );

  0003c	6a 00		 push	 0
  0003e	6a ff		 push	 -1
  00040	6a 00		 push	 0
  00042	e8 00 00 00 00	 call	 ?GetSingleton@ioInterfaceBackground@@SAAAV1@XZ ; ioInterfaceBackground::GetSingleton
  00047	8b c8		 mov	 ecx, eax
  00049	e8 00 00 00 00	 call	 ?GetLoading@ioInterfaceBackground@@QAEPAVioUIRenderImage@@_NHH@Z ; ioInterfaceBackground::GetLoading

; 1848 : 			else

  0004e	eb 16		 jmp	 SHORT $LN13@iwm_show
$LN5@iwm_show:

; 1849 : 				m_pCustomBack = m_pDefaultBack;

  00050	8b 86 fc 01 00
	00		 mov	 eax, DWORD PTR [esi+508]

; 1850 : 		}
; 1851 : 		break;

  00056	eb 0e		 jmp	 SHORT $LN13@iwm_show
$LN7@iwm_show:

; 1838 : 	{
; 1839 : 	case BackgroundChangeWnd::ID_LOBBY_CHANGE:
; 1840 : 		{
; 1841 : 			m_pCustomBack = g_BackgroundMgr.GetBackgroundRes( BGT_LOBBY );

  00058	6a 01		 push	 1
$LN12@iwm_show:
  0005a	e8 00 00 00 00	 call	 ?GetSingleton@ioInterfaceBackground@@SAAAV1@XZ ; ioInterfaceBackground::GetSingleton
  0005f	8b c8		 mov	 ecx, eax
  00061	e8 00 00 00 00	 call	 ?GetBackgroundRes@ioInterfaceBackground@@QAEPAVioUIRenderImage@@W4BackGroundType@@@Z ; ioInterfaceBackground::GetBackgroundRes
$LN13@iwm_show:
  00066	89 86 08 02 00
	00		 mov	 DWORD PTR [esi+520], eax
$LN8@iwm_show:
  0006c	5e		 pop	 esi

; 1867 : 	}
; 1868 : }

  0006d	c3		 ret	 0
?iwm_show@BackgroundChangeBtn@@UAEXXZ ENDP		; BackgroundChangeBtn::iwm_show
_TEXT	ENDS
PUBLIC	??_7BackgroundChangeWnd@@6B@			; BackgroundChangeWnd::`vftable'
PUBLIC	??0BackgroundChangeWnd@@QAE@XZ			; BackgroundChangeWnd::BackgroundChangeWnd
PUBLIC	??_R4BackgroundChangeWnd@@6B@			; BackgroundChangeWnd::`RTTI Complete Object Locator'
PUBLIC	??_R0?AVBackgroundChangeWnd@@@8			; BackgroundChangeWnd `RTTI Type Descriptor'
PUBLIC	??_R3BackgroundChangeWnd@@8			; BackgroundChangeWnd::`RTTI Class Hierarchy Descriptor'
PUBLIC	??_R2BackgroundChangeWnd@@8			; BackgroundChangeWnd::`RTTI Base Class Array'
PUBLIC	??_R1A@?0A@EA@BackgroundChangeWnd@@8		; BackgroundChangeWnd::`RTTI Base Class Descriptor at (0,-1,0,64)'
PUBLIC	?iwm_command@BackgroundChangeWnd@@UAEXPAVioWnd@@HK@Z ; BackgroundChangeWnd::iwm_command
PUBLIC	?iwm_show@BackgroundChangeWnd@@UAEXXZ		; BackgroundChangeWnd::iwm_show
PUBLIC	?iwm_hide@BackgroundChangeWnd@@UAEXXZ		; BackgroundChangeWnd::iwm_hide
EXTRN	__imp_??0ioWnd@@QAE@XZ:PROC
EXTRN	??_EBackgroundChangeWnd@@UAEPAXI@Z:PROC		; BackgroundChangeWnd::`vector deleting destructor'
;	COMDAT ??_R1A@?0A@EA@BackgroundChangeWnd@@8
rdata$r	SEGMENT
??_R1A@?0A@EA@BackgroundChangeWnd@@8 DD FLAT:??_R0?AVBackgroundChangeWnd@@@8 ; BackgroundChangeWnd::`RTTI Base Class Descriptor at (0,-1,0,64)'
	DD	01H
	DD	00H
	DD	0ffffffffH
	DD	00H
	DD	040H
	DD	FLAT:??_R3BackgroundChangeWnd@@8
rdata$r	ENDS
;	COMDAT ??_R2BackgroundChangeWnd@@8
rdata$r	SEGMENT
??_R2BackgroundChangeWnd@@8 DD FLAT:??_R1A@?0A@EA@BackgroundChangeWnd@@8 ; BackgroundChangeWnd::`RTTI Base Class Array'
	DD	FLAT:??_R1A@?0A@EA@ioWnd@@8
rdata$r	ENDS
;	COMDAT ??_R3BackgroundChangeWnd@@8
rdata$r	SEGMENT
??_R3BackgroundChangeWnd@@8 DD 00H			; BackgroundChangeWnd::`RTTI Class Hierarchy Descriptor'
	DD	00H
	DD	02H
	DD	FLAT:??_R2BackgroundChangeWnd@@8
rdata$r	ENDS
;	COMDAT ??_R0?AVBackgroundChangeWnd@@@8
_DATA	SEGMENT
??_R0?AVBackgroundChangeWnd@@@8 DD FLAT:??_7type_info@@6B@ ; BackgroundChangeWnd `RTTI Type Descriptor'
	DD	00H
	DB	'.?AVBackgroundChangeWnd@@', 00H
_DATA	ENDS
;	COMDAT ??_R4BackgroundChangeWnd@@6B@
rdata$r	SEGMENT
??_R4BackgroundChangeWnd@@6B@ DD 00H			; BackgroundChangeWnd::`RTTI Complete Object Locator'
	DD	00H
	DD	00H
	DD	FLAT:??_R0?AVBackgroundChangeWnd@@@8
	DD	FLAT:??_R3BackgroundChangeWnd@@8
rdata$r	ENDS
;	COMDAT ??_7BackgroundChangeWnd@@6B@
CONST	SEGMENT
??_7BackgroundChangeWnd@@6B@ DD FLAT:??_R4BackgroundChangeWnd@@6B@ ; BackgroundChangeWnd::`vftable'
	DD	FLAT:?AddRenderFrame@ioWnd@@UAEXABVioHashString@@PAVioUIRenderFrame@@@Z
	DD	FLAT:?AddRenderImage@ioWnd@@UAEXABVioHashString@@PAVioUIRenderImage@@@Z
	DD	FLAT:?AddTooltipHelp@ioWnd@@UAEXABVioHashString@@00@Z
	DD	FLAT:?ParseExtraInfo@ioWnd@@UAEXAAVioXMLElement@@@Z
	DD	FLAT:?AddNamedRenderImage@ioWnd@@UAEXABVioHashString@@PAVioUIRenderImage@@@Z
	DD	FLAT:?RemoveNamedRenderImage@ioWnd@@UAEXABVioHashString@@@Z
	DD	FLAT:?GetNamedRenderImage@ioWnd@@UBEPAVioUIRenderImage@@ABVioHashString@@@Z
	DD	FLAT:?SetWindowAlpha@ioWnd@@UAEXH@Z
	DD	FLAT:?SetActive@ioWnd@@UAEXXZ
	DD	FLAT:?SetInActive@ioWnd@@UAEXXZ
	DD	FLAT:?ClearElementImageList@ioWnd@@UAEXXZ
	DD	FLAT:?SetSize@ioWnd@@UAEXHH@Z
	DD	FLAT:?SetPositionToDefault@ioWnd@@UAEXHH_N0@Z
	DD	FLAT:?IsNeedProcess@ioWnd@@UBE_NXZ
	DD	FLAT:?IsCanMouseReaction@ioWnd@@UBE_NXZ
	DD	FLAT:?AddChild@ioWnd@@UAEXPAV1@@Z
	DD	FLAT:?DeleteChild@ioWnd@@UAEXK@Z
	DD	FLAT:?DeleteAllChild@ioWnd@@UAEXXZ
	DD	FLAT:?OnRenderShowAndHide@ioWnd@@MAE_NXZ
	DD	FLAT:?OnRenderShowAndHideByDefault@ioWnd@@MAE_NK@Z
	DD	FLAT:?OnRenderShowAndHideByTop@ioWnd@@MAE_NK@Z
	DD	FLAT:?OnRenderShowAndHideByDown@ioWnd@@MAE_NK@Z
	DD	FLAT:?OnRender@ioWnd@@MAEXXZ
	DD	FLAT:?OnRenderAfterChild@ioWnd@@MAEXXZ
	DD	FLAT:?OnProcess@ioWnd@@MAEXM@Z
	DD	FLAT:?OnMouseProcess@ioWnd@@MAEXABVioMouse@@@Z
	DD	FLAT:?CheckFrameReSize@ioWnd@@MAEXHHHH@Z
	DD	FLAT:?RenderImageList@ioWnd@@MAEXHHW4UIRenderType@@@Z
	DD	FLAT:?iwm_create@ioWnd@@UAEXXZ
	DD	FLAT:?iwm_destroy@ioWnd@@UAEXXZ
	DD	FLAT:?iwm_lbuttondown@ioWnd@@UAEXABVioMouse@@@Z
	DD	FLAT:?iwm_lbuttonup@ioWnd@@UAEXABVioMouse@@@Z
	DD	FLAT:?iwm_lbuttonDBLCLK@ioWnd@@UAEXABVioMouse@@@Z
	DD	FLAT:?iwm_rbuttondown@ioWnd@@UAEXABVioMouse@@@Z
	DD	FLAT:?iwm_rbuttonup@ioWnd@@UAEXABVioMouse@@@Z
	DD	FLAT:?iwm_command@BackgroundChangeWnd@@UAEXPAVioWnd@@HK@Z
	DD	FLAT:?iwm_mouseover@ioWnd@@UAEXABVioMouse@@@Z
	DD	FLAT:?iwm_mousemove@ioWnd@@UAEXABVioMouse@@@Z
	DD	FLAT:?iwm_mouseleave@ioWnd@@UAEXABVioMouse@@@Z
	DD	FLAT:?iwm_vscroll@ioWnd@@UAEXKH@Z
	DD	FLAT:?iwm_wheel@ioWnd@@UAEXH@Z
	DD	FLAT:?iwm_show@BackgroundChangeWnd@@UAEXXZ
	DD	FLAT:?iwm_hide@BackgroundChangeWnd@@UAEXXZ
	DD	FLAT:?iwm_esc@ioWnd@@UAE_NXZ
	DD	FLAT:?iwm_spacebar@ioWnd@@UAE_NXZ
	DD	FLAT:?iwm_gototop@ioWnd@@UAEXXZ
	DD	FLAT:?iwm_dragenter@ioWnd@@UAE?AW4IWDropEffect@@PAVioDragItem@@ABVioMouse@@@Z
	DD	FLAT:?iwm_dragover@ioWnd@@UAE?AW4IWDropEffect@@PAVioDragItem@@ABVioMouse@@@Z
	DD	FLAT:?iwm_dragleave@ioWnd@@UAEXXZ
	DD	FLAT:?iwm_dropitem@ioWnd@@UAE_NPAVioDragItem@@ABVioMouse@@PAV1@@Z
	DD	FLAT:?iwm_dropdone@ioWnd@@UAEXPAVioDragItem@@PAV1@_N@Z
	DD	FLAT:?IsEXType@ioWnd@@UBE_NXZ
	DD	FLAT:?GetWndType@ioWnd@@UBEKXZ
	DD	FLAT:?RenderWnd@ioWnd@@UAEXXZ
	DD	FLAT:?SetIDEX@ioWnd@@UAEXAAK_N@Z
	DD	FLAT:?ParseXML@ioWnd@@UAEXAAVioXMLElement@@@Z
	DD	FLAT:?GetHeaderFileName@ioWnd@@UAEPBDXZ
	DD	FLAT:?GetTemplateName@ioWnd@@UAEPBDXZ
	DD	FLAT:?GetDefClassName@ioWnd@@UBEPBDXZ
	DD	FLAT:?_Clone@ioWnd@@UAEPAV1@XZ
	DD	FLAT:?Copy@ioWnd@@UAEXPAV1@@Z
	DD	FLAT:?Save@ioWnd@@UAE_NAAVioXMLElement@@@Z
	DD	FLAT:?SetSaveData@ioWnd@@UAEXAAVioXMLElement@@@Z
	DD	FLAT:?SetPosX@ioWnd@@UAEXH@Z
	DD	FLAT:?SetPosY@ioWnd@@UAEXH@Z
	DD	FLAT:?SetWidth@ioWnd@@UAEXH@Z
	DD	FLAT:?SetHeight@ioWnd@@UAEXH@Z
	DD	FLAT:?GetNumFixedRenderFrame@ioWnd@@UBEHXZ
	DD	FLAT:?GetFixedRenderFrameType@ioWnd@@UAEPBDH@Z
	DD	FLAT:?GetRenderFrame@ioWnd@@UAEPAPAVioUIRenderElement@@PBD@Z
	DD	FLAT:?GetNumFixedRenderImage@ioWnd@@UBEHXZ
	DD	FLAT:?GetFixedRenderImageType@ioWnd@@UAEPBDH@Z
	DD	FLAT:?GetRenderImage@ioWnd@@UAEPAPAVioUIRenderElement@@PBD@Z
	DD	FLAT:?AddEffect@ioWnd@@UAEXABVioHashString@@PAVioUI3DEffectRender@@@Z
	DD	FLAT:?GetEffect@ioWnd@@UAEPAVioUI3DEffectRender@@VioHashString@@@Z
	DD	FLAT:??_EBackgroundChangeWnd@@UAEPAXI@Z
; Function compile flags: /Ogsp
CONST	ENDS
;	COMDAT ??0BackgroundChangeWnd@@QAE@XZ
_TEXT	SEGMENT
??0BackgroundChangeWnd@@QAE@XZ PROC			; BackgroundChangeWnd::BackgroundChangeWnd, COMDAT
; _this$ = ecx

; 1933 : {

  00000	56		 push	 esi
  00001	8b f1		 mov	 esi, ecx
  00003	ff 15 00 00 00
	00		 call	 DWORD PTR __imp_??0ioWnd@@QAE@XZ
  00009	c7 06 00 00 00
	00		 mov	 DWORD PTR [esi], OFFSET ??_7BackgroundChangeWnd@@6B@

; 1934 : 
; 1935 : }

  0000f	8b c6		 mov	 eax, esi
  00011	5e		 pop	 esi
  00012	c3		 ret	 0
??0BackgroundChangeWnd@@QAE@XZ ENDP			; BackgroundChangeWnd::BackgroundChangeWnd
_TEXT	ENDS
PUBLIC	??1BackgroundChangeWnd@@UAE@XZ			; BackgroundChangeWnd::~BackgroundChangeWnd
; Function compile flags: /Ogsp
;	COMDAT ??1BackgroundChangeWnd@@UAE@XZ
_TEXT	SEGMENT
??1BackgroundChangeWnd@@UAE@XZ PROC			; BackgroundChangeWnd::~BackgroundChangeWnd, COMDAT
; _this$ = ecx

; 1938 : {

  00000	c7 01 00 00 00
	00		 mov	 DWORD PTR [ecx], OFFSET ??_7BackgroundChangeWnd@@6B@

; 1939 : 
; 1940 : }

  00006	ff 25 00 00 00
	00		 jmp	 DWORD PTR __imp_??1ioWnd@@UAE@XZ
??1BackgroundChangeWnd@@UAE@XZ ENDP			; BackgroundChangeWnd::~BackgroundChangeWnd
; Function compile flags: /Ogsp
_TEXT	ENDS
;	COMDAT ?iwm_hide@BackgroundChangeWnd@@UAEXXZ
_TEXT	SEGMENT
?iwm_hide@BackgroundChangeWnd@@UAEXXZ PROC		; BackgroundChangeWnd::iwm_hide, COMDAT
; _this$ = ecx

; 1961 : {

  00000	53		 push	 ebx
  00001	56		 push	 esi

; 1962 : 	HideChildWnd( ID_LOBBY_CHANGE );

  00002	8b 35 00 00 00
	00		 mov	 esi, DWORD PTR __imp_?HideChildWnd@ioWnd@@QAEXK_N@Z
  00008	57		 push	 edi
  00009	33 db		 xor	 ebx, ebx
  0000b	53		 push	 ebx
  0000c	6a 02		 push	 2
  0000e	8b f9		 mov	 edi, ecx
  00010	ff d6		 call	 esi

; 1963 : 	HideChildWnd( ID_LOADING_CHANGE );

  00012	53		 push	 ebx
  00013	6a 03		 push	 3
  00015	8b cf		 mov	 ecx, edi
  00017	ff d6		 call	 esi

; 1964 : 	HideChildWnd( ID_BATTLE_CHANGE );

  00019	53		 push	 ebx
  0001a	6a 04		 push	 4
  0001c	8b cf		 mov	 ecx, edi
  0001e	ff d6		 call	 esi

; 1965 : 	HideChildWnd( ID_LADDER_CHANGE );

  00020	53		 push	 ebx
  00021	6a 05		 push	 5
  00023	8b cf		 mov	 ecx, edi
  00025	ff d6		 call	 esi

; 1966 : 	HideChildWnd( ID_MODE_FIND_CHANGE );

  00027	53		 push	 ebx
  00028	6a 06		 push	 6
  0002a	8b cf		 mov	 ecx, edi
  0002c	ff d6		 call	 esi
  0002e	5f		 pop	 edi
  0002f	5e		 pop	 esi
  00030	5b		 pop	 ebx

; 1967 : }

  00031	c3		 ret	 0
?iwm_hide@BackgroundChangeWnd@@UAEXXZ ENDP		; BackgroundChangeWnd::iwm_hide
_TEXT	ENDS
PUBLIC	??_C@_03PEGNKCLE@jpg?$AA@			; `string'
PUBLIC	??_C@_02DKCKIIND@?$CFs?$AA@			; `string'
PUBLIC	??_C@_0BF@CHBNJJJL@?$CFs?5Error?5FileListWnd?$AA@ ; `string'
PUBLIC	??_C@_0CF@DMGDHHII@BackgroundChangeWnd?3?3OpenFileLis@ ; `string'
PUBLIC	_this$GSCopy$
PUBLIC	??_R0?AVFileListWnd@@@8				; FileListWnd `RTTI Type Descriptor'
PUBLIC	__$ArrayPad$
PUBLIC	?OpenFileListWnd@BackgroundChangeWnd@@IAEXPAVioWnd@@H@Z ; BackgroundChangeWnd::OpenFileListWnd
EXTRN	?SetReturnInfo@FileListWnd@@QAEXPAVioWnd@@W4ReturnWndType@1@@Z:PROC ; FileListWnd::SetReturnInfo
EXTRN	?SetFileList@FileListWnd@@QAEXPBD0@Z:PROC	; FileListWnd::SetFileList
EXTRN	__imp__sprintf:PROC
EXTRN	__imp___splitpath:PROC
EXTRN	__imp__GetCurrentDirectoryA@8:PROC
EXTRN	__imp_?HideWnd@ioWnd@@QAEXXZ:PROC
EXTRN	__imp_?PrintTimeAndLog@CLog@@QAAXHPADZZ:PROC
EXTRN	__imp_?LOG@@3VCLog@@A:BYTE
EXTRN	_memset:PROC
;	COMDAT ??_C@_03PEGNKCLE@jpg?$AA@
CONST	SEGMENT
??_C@_03PEGNKCLE@jpg?$AA@ DB 'jpg', 00H			; `string'
CONST	ENDS
;	COMDAT ??_C@_02DKCKIIND@?$CFs?$AA@
CONST	SEGMENT
??_C@_02DKCKIIND@?$CFs?$AA@ DB '%s', 00H		; `string'
CONST	ENDS
;	COMDAT ??_C@_0BF@CHBNJJJL@?$CFs?5Error?5FileListWnd?$AA@
CONST	SEGMENT
??_C@_0BF@CHBNJJJL@?$CFs?5Error?5FileListWnd?$AA@ DB '%s Error FileListWn'
	DB	'd', 00H					; `string'
CONST	ENDS
;	COMDAT ??_C@_0CF@DMGDHHII@BackgroundChangeWnd?3?3OpenFileLis@
CONST	SEGMENT
??_C@_0CF@DMGDHHII@BackgroundChangeWnd?3?3OpenFileLis@ DB 'BackgroundChan'
	DB	'geWnd::OpenFileListWnd', 00H		; `string'
CONST	ENDS
;	COMDAT ??_R0?AVFileListWnd@@@8
_DATA	SEGMENT
??_R0?AVFileListWnd@@@8 DD FLAT:??_7type_info@@6B@	; FileListWnd `RTTI Type Descriptor'
	DD	00H
	DB	'.?AVFileListWnd@@', 00H
; Function compile flags: /Ogsp
_DATA	ENDS
;	COMDAT ?OpenFileListWnd@BackgroundChangeWnd@@IAEXPAVioWnd@@H@Z
_TEXT	SEGMENT
_this$GSCopy$ = -788					; size = 4
_szCurPath$ = -784					; size = 520
_szDrive$ = -264					; size = 260
__$ArrayPad$ = -4					; size = 4
_pReturnBtn$ = 8					; size = 4
_iRwtType$ = 12						; size = 4
?OpenFileListWnd@BackgroundChangeWnd@@IAEXPAVioWnd@@H@Z PROC ; BackgroundChangeWnd::OpenFileListWnd, COMDAT
; _this$ = ecx

; 2016 : {

  00000	55		 push	 ebp
  00001	8b ec		 mov	 ebp, esp
  00003	81 ec 14 03 00
	00		 sub	 esp, 788		; 00000314H
  00009	a1 00 00 00 00	 mov	 eax, DWORD PTR ___security_cookie
  0000e	33 c5		 xor	 eax, ebp
  00010	89 45 fc	 mov	 DWORD PTR __$ArrayPad$[ebp], eax
  00013	53		 push	 ebx
  00014	56		 push	 esi
  00015	57		 push	 edi
  00016	8b 7d 08	 mov	 edi, DWORD PTR _pReturnBtn$[ebp]

; 2017 : 	FileListWnd *pFileListWnd = dynamic_cast<FileListWnd*> (g_GUIMgr.FindWnd( BACKGROUND_FILE_LIST_WND ) );

  00019	33 db		 xor	 ebx, ebx
  0001b	53		 push	 ebx
  0001c	68 00 00 00 00	 push	 OFFSET ??_R0?AVFileListWnd@@@8
  00021	68 00 00 00 00	 push	 OFFSET ??_R0?AVioWnd@@@8
  00026	53		 push	 ebx
  00027	68 9a 17 00 00	 push	 6042			; 0000179aH
  0002c	89 8d ec fc ff
	ff		 mov	 DWORD PTR _this$GSCopy$[ebp], ecx
  00032	e8 00 00 00 00	 call	 ?GetSingleton@ioSP2GUIManager@@SAAAV1@XZ ; ioSP2GUIManager::GetSingleton
  00037	8b c8		 mov	 ecx, eax
  00039	ff 15 00 00 00
	00		 call	 DWORD PTR __imp_?FindWnd@ioGUIManager@@QAEPAVioWnd@@K@Z
  0003f	50		 push	 eax
  00040	e8 00 00 00 00	 call	 ___RTDynamicCast
  00045	8b f0		 mov	 esi, eax
  00047	83 c4 14	 add	 esp, 20			; 00000014H

; 2018 : 	if( !pFileListWnd )

  0004a	3b f3		 cmp	 esi, ebx
  0004c	75 1f		 jne	 SHORT $LN1@OpenFileLi

; 2019 : 	{
; 2020 : 		LOG.PrintTimeAndLog( 0, "%s Error FileListWnd", __FUNCTION__ );

  0004e	68 00 00 00 00	 push	 OFFSET ??_C@_0CF@DMGDHHII@BackgroundChangeWnd?3?3OpenFileLis@
  00053	68 00 00 00 00	 push	 OFFSET ??_C@_0BF@CHBNJJJL@?$CFs?5Error?5FileListWnd?$AA@
  00058	53		 push	 ebx
  00059	ff 35 00 00 00
	00		 push	 DWORD PTR __imp_?LOG@@3VCLog@@A
  0005f	ff 15 00 00 00
	00		 call	 DWORD PTR __imp_?PrintTimeAndLog@CLog@@QAAXHPADZZ
  00065	83 c4 10	 add	 esp, 16			; 00000010H

; 2021 : 		return;

  00068	e9 aa 00 00 00	 jmp	 $LN2@OpenFileLi
$LN1@OpenFileLi:

; 2022 : 	}
; 2023 : 	HideWnd();

  0006d	8b 8d ec fc ff
	ff		 mov	 ecx, DWORD PTR _this$GSCopy$[ebp]
  00073	ff 15 00 00 00
	00		 call	 DWORD PTR __imp_?HideWnd@ioWnd@@QAEXXZ

; 2024 : 
; 2025 : 	char szCurPath[MAX_PATH*2]="";

  00079	68 07 02 00 00	 push	 519			; 00000207H
  0007e	8d 85 f1 fc ff
	ff		 lea	 eax, DWORD PTR _szCurPath$[ebp+1]
  00084	53		 push	 ebx
  00085	50		 push	 eax
  00086	88 9d f0 fc ff
	ff		 mov	 BYTE PTR _szCurPath$[ebp], bl
  0008c	e8 00 00 00 00	 call	 _memset
  00091	83 c4 0c	 add	 esp, 12			; 0000000cH

; 2026 : 	GetCurrentDirectory( sizeof( szCurPath ), szCurPath );

  00094	8d 85 f0 fc ff
	ff		 lea	 eax, DWORD PTR _szCurPath$[ebp]
  0009a	50		 push	 eax
  0009b	68 08 02 00 00	 push	 520			; 00000208H
  000a0	ff 15 00 00 00
	00		 call	 DWORD PTR __imp__GetCurrentDirectoryA@8

; 2027 : 	char szDrive[MAX_PATH]="";

  000a6	68 03 01 00 00	 push	 259			; 00000103H
  000ab	8d 85 f9 fe ff
	ff		 lea	 eax, DWORD PTR _szDrive$[ebp+1]
  000b1	53		 push	 ebx
  000b2	50		 push	 eax
  000b3	88 9d f8 fe ff
	ff		 mov	 BYTE PTR _szDrive$[ebp], bl
  000b9	e8 00 00 00 00	 call	 _memset

; 2028 : 	_splitpath( szCurPath, szDrive, NULL, NULL, NULL );

  000be	53		 push	 ebx
  000bf	53		 push	 ebx
  000c0	53		 push	 ebx
  000c1	8d 85 f8 fe ff
	ff		 lea	 eax, DWORD PTR _szDrive$[ebp]
  000c7	50		 push	 eax
  000c8	8d 85 f0 fc ff
	ff		 lea	 eax, DWORD PTR _szCurPath$[ebp]
  000ce	50		 push	 eax
  000cf	ff 15 00 00 00
	00		 call	 DWORD PTR __imp___splitpath

; 2029 : 	sprintf( szCurPath, "%s", szDrive );

  000d5	8d 85 f8 fe ff
	ff		 lea	 eax, DWORD PTR _szDrive$[ebp]
  000db	50		 push	 eax
  000dc	8d 85 f0 fc ff
	ff		 lea	 eax, DWORD PTR _szCurPath$[ebp]
  000e2	68 00 00 00 00	 push	 OFFSET ??_C@_02DKCKIIND@?$CFs?$AA@
  000e7	50		 push	 eax
  000e8	ff 15 00 00 00
	00		 call	 DWORD PTR __imp__sprintf
  000ee	83 c4 2c	 add	 esp, 44			; 0000002cH

; 2030 : 
; 2031 : 	pFileListWnd->SetFileList( szCurPath, "jpg" );

  000f1	68 00 00 00 00	 push	 OFFSET ??_C@_03PEGNKCLE@jpg?$AA@
  000f6	8d 85 f0 fc ff
	ff		 lea	 eax, DWORD PTR _szCurPath$[ebp]
  000fc	50		 push	 eax
  000fd	8b ce		 mov	 ecx, esi
  000ff	e8 00 00 00 00	 call	 ?SetFileList@FileListWnd@@QAEXPBD0@Z ; FileListWnd::SetFileList

; 2032 : 	pFileListWnd->SetReturnInfo( pReturnBtn, (FileListWnd::ReturnWndType)iRwtType );

  00104	ff 75 0c	 push	 DWORD PTR _iRwtType$[ebp]
  00107	8b ce		 mov	 ecx, esi
  00109	57		 push	 edi
  0010a	e8 00 00 00 00	 call	 ?SetReturnInfo@FileListWnd@@QAEXPAVioWnd@@W4ReturnWndType@1@@Z ; FileListWnd::SetReturnInfo

; 2033 : 	pFileListWnd->ShowWnd();

  0010f	8b ce		 mov	 ecx, esi
  00111	ff 15 00 00 00
	00		 call	 DWORD PTR __imp_?ShowWnd@ioWnd@@QAEXXZ
$LN2@OpenFileLi:

; 2034 : }

  00117	8b 4d fc	 mov	 ecx, DWORD PTR __$ArrayPad$[ebp]
  0011a	5f		 pop	 edi
  0011b	5e		 pop	 esi
  0011c	33 cd		 xor	 ecx, ebp
  0011e	5b		 pop	 ebx
  0011f	e8 00 00 00 00	 call	 @__security_check_cookie@4
  00124	c9		 leave
  00125	c2 08 00	 ret	 8
?OpenFileListWnd@BackgroundChangeWnd@@IAEXPAVioWnd@@H@Z ENDP ; BackgroundChangeWnd::OpenFileListWnd
_TEXT	ENDS
PUBLIC	?capacity@?$vector@V?$basic_string@DU?$char_traits@D@std@@V?$allocator@D@2@@std@@V?$allocator@V?$basic_string@DU?$char_traits@D@std@@V?$allocator@D@2@@std@@@2@@std@@QBEIXZ ; std::vector<std::basic_string<char,std::char_traits<char>,std::allocator<char> >,std::allocator<std::basic_string<char,std::char_traits<char>,std::allocator<char> > > >::capacity
; Function compile flags: /Ogsp
; File c:\program files (x86)\microsoft visual studio 10.0\vc\include\vector
;	COMDAT ?capacity@?$vector@V?$basic_string@DU?$char_traits@D@std@@V?$allocator@D@2@@std@@V?$allocator@V?$basic_string@DU?$char_traits@D@std@@V?$allocator@D@2@@std@@@2@@std@@QBEIXZ
_TEXT	SEGMENT
?capacity@?$vector@V?$basic_string@DU?$char_traits@D@std@@V?$allocator@D@2@@std@@V?$allocator@V?$basic_string@DU?$char_traits@D@std@@V?$allocator@D@2@@std@@@2@@std@@QBEIXZ PROC ; std::vector<std::basic_string<char,std::char_traits<char>,std::allocator<char> >,std::allocator<std::basic_string<char,std::char_traits<char>,std::allocator<char> > > >::capacity, COMDAT
; _this$ = ecx

; 777  : 		return (this->_Myend - this->_Myfirst);

  00000	8b 41 08	 mov	 eax, DWORD PTR [ecx+8]
  00003	2b 01		 sub	 eax, DWORD PTR [ecx]
  00005	6a 1c		 push	 28			; 0000001cH
  00007	99		 cdq
  00008	59		 pop	 ecx
  00009	f7 f9		 idiv	 ecx

; 778  : 		}

  0000b	c3		 ret	 0
?capacity@?$vector@V?$basic_string@DU?$char_traits@D@std@@V?$allocator@D@2@@std@@V?$allocator@V?$basic_string@DU?$char_traits@D@std@@V?$allocator@D@2@@std@@@2@@std@@QBEIXZ ENDP ; std::vector<std::basic_string<char,std::char_traits<char>,std::allocator<char> >,std::allocator<std::basic_string<char,std::char_traits<char>,std::allocator<char> > > >::capacity
_TEXT	ENDS
PUBLIC	?size@?$vector@V?$basic_string@DU?$char_traits@D@std@@V?$allocator@D@2@@std@@V?$allocator@V?$basic_string@DU?$char_traits@D@std@@V?$allocator@D@2@@std@@@2@@std@@QBEIXZ ; std::vector<std::basic_string<char,std::char_traits<char>,std::allocator<char> >,std::allocator<std::basic_string<char,std::char_traits<char>,std::allocator<char> > > >::size
; Function compile flags: /Ogsp
;	COMDAT ?size@?$vector@V?$basic_string@DU?$char_traits@D@std@@V?$allocator@D@2@@std@@V?$allocator@V?$basic_string@DU?$char_traits@D@std@@V?$allocator@D@2@@std@@@2@@std@@QBEIXZ
_TEXT	SEGMENT
?size@?$vector@V?$basic_string@DU?$char_traits@D@std@@V?$allocator@D@2@@std@@V?$allocator@V?$basic_string@DU?$char_traits@D@std@@V?$allocator@D@2@@std@@@2@@std@@QBEIXZ PROC ; std::vector<std::basic_string<char,std::char_traits<char>,std::allocator<char> >,std::allocator<std::basic_string<char,std::char_traits<char>,std::allocator<char> > > >::size, COMDAT
; _this$ = ecx

; 879  : 		return (this->_Mylast - this->_Myfirst);

  00000	8b 41 04	 mov	 eax, DWORD PTR [ecx+4]
  00003	2b 01		 sub	 eax, DWORD PTR [ecx]
  00005	6a 1c		 push	 28			; 0000001cH
  00007	99		 cdq
  00008	59		 pop	 ecx
  00009	f7 f9		 idiv	 ecx

; 880  : 		}

  0000b	c3		 ret	 0
?size@?$vector@V?$basic_string@DU?$char_traits@D@std@@V?$allocator@D@2@@std@@V?$allocator@V?$basic_string@DU?$char_traits@D@std@@V?$allocator@D@2@@std@@@2@@std@@QBEIXZ ENDP ; std::vector<std::basic_string<char,std::char_traits<char>,std::allocator<char> >,std::allocator<std::basic_string<char,std::char_traits<char>,std::allocator<char> > > >::size
_TEXT	ENDS
PUBLIC	?_Inside@?$vector@V?$basic_string@DU?$char_traits@D@std@@V?$allocator@D@2@@std@@V?$allocator@V?$basic_string@DU?$char_traits@D@std@@V?$allocator@D@2@@std@@@2@@std@@IBE_NPBV?$basic_string@DU?$char_traits@D@std@@V?$allocator@D@2@@2@@Z ; std::vector<std::basic_string<char,std::char_traits<char>,std::allocator<char> >,std::allocator<std::basic_string<char,std::char_traits<char>,std::allocator<char> > > >::_Inside
; Function compile flags: /Ogsp
;	COMDAT ?_Inside@?$vector@V?$basic_string@DU?$char_traits@D@std@@V?$allocator@D@2@@std@@V?$allocator@V?$basic_string@DU?$char_traits@D@std@@V?$allocator@D@2@@std@@@2@@std@@IBE_NPBV?$basic_string@DU?$char_traits@D@std@@V?$allocator@D@2@@2@@Z
_TEXT	SEGMENT
__Ptr$ = 8						; size = 4
?_Inside@?$vector@V?$basic_string@DU?$char_traits@D@std@@V?$allocator@D@2@@std@@V?$allocator@V?$basic_string@DU?$char_traits@D@std@@V?$allocator@D@2@@std@@@2@@std@@IBE_NPBV?$basic_string@DU?$char_traits@D@std@@V?$allocator@D@2@@2@@Z PROC ; std::vector<std::basic_string<char,std::char_traits<char>,std::allocator<char> >,std::allocator<std::basic_string<char,std::char_traits<char>,std::allocator<char> > > >::_Inside, COMDAT
; _this$ = ecx

; 1285 : 		{	// test if _Ptr points inside vector

  00000	55		 push	 ebp
  00001	8b ec		 mov	 ebp, esp

; 1286 : 		return (_Ptr < this->_Mylast && this->_Myfirst <= _Ptr);

  00003	8b 45 08	 mov	 eax, DWORD PTR __Ptr$[ebp]
  00006	3b 41 04	 cmp	 eax, DWORD PTR [ecx+4]
  00009	73 09		 jae	 SHORT $LN3@Inside
  0000b	39 01		 cmp	 DWORD PTR [ecx], eax
  0000d	77 05		 ja	 SHORT $LN3@Inside
  0000f	33 c0		 xor	 eax, eax
  00011	40		 inc	 eax
  00012	eb 02		 jmp	 SHORT $LN4@Inside
$LN3@Inside:
  00014	33 c0		 xor	 eax, eax
$LN4@Inside:

; 1287 : 		}

  00016	5d		 pop	 ebp
  00017	c2 04 00	 ret	 4
?_Inside@?$vector@V?$basic_string@DU?$char_traits@D@std@@V?$allocator@D@2@@std@@V?$allocator@V?$basic_string@DU?$char_traits@D@std@@V?$allocator@D@2@@std@@@2@@std@@IBE_NPBV?$basic_string@DU?$char_traits@D@std@@V?$allocator@D@2@@2@@Z ENDP ; std::vector<std::basic_string<char,std::char_traits<char>,std::allocator<char> >,std::allocator<std::basic_string<char,std::char_traits<char>,std::allocator<char> > > >::_Inside
_TEXT	ENDS
PUBLIC	??_C@_0BD@OLBABOEK@vector?$DMT?$DO?5too?5long?$AA@ ; `string'
PUBLIC	?_Xlen@?$vector@V?$basic_string@DU?$char_traits@D@std@@V?$allocator@D@2@@std@@V?$allocator@V?$basic_string@DU?$char_traits@D@std@@V?$allocator@D@2@@std@@@2@@std@@IBEXXZ ; std::vector<std::basic_string<char,std::char_traits<char>,std::allocator<char> >,std::allocator<std::basic_string<char,std::char_traits<char>,std::allocator<char> > > >::_Xlen
EXTRN	__imp_?_Xlength_error@std@@YAXPBD@Z:PROC
;	COMDAT ??_C@_0BD@OLBABOEK@vector?$DMT?$DO?5too?5long?$AA@
CONST	SEGMENT
??_C@_0BD@OLBABOEK@vector?$DMT?$DO?5too?5long?$AA@ DB 'vector<T> too long'
	DB	00H						; `string'
; Function compile flags: /Ogsp
CONST	ENDS
;	COMDAT ?_Xlen@?$vector@V?$basic_string@DU?$char_traits@D@std@@V?$allocator@D@2@@std@@V?$allocator@V?$basic_string@DU?$char_traits@D@std@@V?$allocator@D@2@@std@@@2@@std@@IBEXXZ
_TEXT	SEGMENT
?_Xlen@?$vector@V?$basic_string@DU?$char_traits@D@std@@V?$allocator@D@2@@std@@V?$allocator@V?$basic_string@DU?$char_traits@D@std@@V?$allocator@D@2@@std@@@2@@std@@IBEXXZ PROC ; std::vector<std::basic_string<char,std::char_traits<char>,std::allocator<char> >,std::allocator<std::basic_string<char,std::char_traits<char>,std::allocator<char> > > >::_Xlen, COMDAT
; _this$ = ecx

; 1427 : 		_Xlength_error("vector<T> too long");

  00000	68 00 00 00 00	 push	 OFFSET ??_C@_0BD@OLBABOEK@vector?$DMT?$DO?5too?5long?$AA@
  00005	ff 15 00 00 00
	00		 call	 DWORD PTR __imp_?_Xlength_error@std@@YAXPBD@Z
$LN4@Xlen:
$LN3@Xlen:
  0000b	cc		 int	 3
?_Xlen@?$vector@V?$basic_string@DU?$char_traits@D@std@@V?$allocator@D@2@@std@@V?$allocator@V?$basic_string@DU?$char_traits@D@std@@V?$allocator@D@2@@std@@@2@@std@@IBEXXZ ENDP ; std::vector<std::basic_string<char,std::char_traits<char>,std::allocator<char> >,std::allocator<std::basic_string<char,std::char_traits<char>,std::allocator<char> > > >::_Xlen
_TEXT	ENDS
PUBLIC	?_Orphan_range@?$vector@V?$basic_string@DU?$char_traits@D@std@@V?$allocator@D@2@@std@@V?$allocator@V?$basic_string@DU?$char_traits@D@std@@V?$allocator@D@2@@std@@@2@@std@@IBEXPAV?$basic_string@DU?$char_traits@D@std@@V?$allocator@D@2@@2@0@Z ; std::vector<std::basic_string<char,std::char_traits<char>,std::allocator<char> >,std::allocator<std::basic_string<char,std::char_traits<char>,std::allocator<char> > > >::_Orphan_range
; Function compile flags: /Ogsp
;	COMDAT ?_Orphan_range@?$vector@V?$basic_string@DU?$char_traits@D@std@@V?$allocator@D@2@@std@@V?$allocator@V?$basic_string@DU?$char_traits@D@std@@V?$allocator@D@2@@std@@@2@@std@@IBEXPAV?$basic_string@DU?$char_traits@D@std@@V?$allocator@D@2@@2@0@Z
_TEXT	SEGMENT
___formal$ = 8						; size = 4
___formal$ = 12						; size = 4
?_Orphan_range@?$vector@V?$basic_string@DU?$char_traits@D@std@@V?$allocator@D@2@@std@@V?$allocator@V?$basic_string@DU?$char_traits@D@std@@V?$allocator@D@2@@std@@@2@@std@@IBEXPAV?$basic_string@DU?$char_traits@D@std@@V?$allocator@D@2@@2@0@Z PROC ; std::vector<std::basic_string<char,std::char_traits<char>,std::allocator<char> >,std::allocator<std::basic_string<char,std::char_traits<char>,std::allocator<char> > > >::_Orphan_range, COMDAT
; _this$ = ecx

; 1454 : 		}

  00000	c2 08 00	 ret	 8
?_Orphan_range@?$vector@V?$basic_string@DU?$char_traits@D@std@@V?$allocator@D@2@@std@@V?$allocator@V?$basic_string@DU?$char_traits@D@std@@V?$allocator@D@2@@std@@@2@@std@@IBEXPAV?$basic_string@DU?$char_traits@D@std@@V?$allocator@D@2@@2@0@Z ENDP ; std::vector<std::basic_string<char,std::char_traits<char>,std::allocator<char> >,std::allocator<std::basic_string<char,std::char_traits<char>,std::allocator<char> > > >::_Orphan_range
_TEXT	ENDS
PUBLIC	??0?$allocator@V?$basic_string@DU?$char_traits@D@std@@V?$allocator@D@2@@std@@@std@@QAE@XZ ; std::allocator<std::basic_string<char,std::char_traits<char>,std::allocator<char> > >::allocator<std::basic_string<char,std::char_traits<char>,std::allocator<char> > >
; Function compile flags: /Ogsp
; File c:\program files (x86)\microsoft visual studio 10.0\vc\include\xmemory
;	COMDAT ??0?$allocator@V?$basic_string@DU?$char_traits@D@std@@V?$allocator@D@2@@std@@@std@@QAE@XZ
_TEXT	SEGMENT
??0?$allocator@V?$basic_string@DU?$char_traits@D@std@@V?$allocator@D@2@@std@@@std@@QAE@XZ PROC ; std::allocator<std::basic_string<char,std::char_traits<char>,std::allocator<char> > >::allocator<std::basic_string<char,std::char_traits<char>,std::allocator<char> > >, COMDAT
; _this$ = ecx

; 161  : 	_ALLOCATOR() _THROW0()

  00000	8b c1		 mov	 eax, ecx

; 162  : 		{	// construct default allocator (do nothing)
; 163  : 		}

  00002	c3		 ret	 0
??0?$allocator@V?$basic_string@DU?$char_traits@D@std@@V?$allocator@D@2@@std@@@std@@QAE@XZ ENDP ; std::allocator<std::basic_string<char,std::char_traits<char>,std::allocator<char> > >::allocator<std::basic_string<char,std::char_traits<char>,std::allocator<char> > >
_TEXT	ENDS
PUBLIC	??0?$allocator@V?$basic_string@DU?$char_traits@D@std@@V?$allocator@D@2@@std@@@std@@QAE@ABV01@@Z ; std::allocator<std::basic_string<char,std::char_traits<char>,std::allocator<char> > >::allocator<std::basic_string<char,std::char_traits<char>,std::allocator<char> > >
; Function compile flags: /Ogsp
;	COMDAT ??0?$allocator@V?$basic_string@DU?$char_traits@D@std@@V?$allocator@D@2@@std@@@std@@QAE@ABV01@@Z
_TEXT	SEGMENT
___formal$ = 8						; size = 4
??0?$allocator@V?$basic_string@DU?$char_traits@D@std@@V?$allocator@D@2@@std@@@std@@QAE@ABV01@@Z PROC ; std::allocator<std::basic_string<char,std::char_traits<char>,std::allocator<char> > >::allocator<std::basic_string<char,std::char_traits<char>,std::allocator<char> > >, COMDAT
; _this$ = ecx

; 165  : 	_ALLOCATOR(const _ALLOCATOR<_Ty>&) _THROW0()

  00000	8b c1		 mov	 eax, ecx

; 166  : 		{	// construct by copying (do nothing)
; 167  : 		}

  00002	c2 04 00	 ret	 4
??0?$allocator@V?$basic_string@DU?$char_traits@D@std@@V?$allocator@D@2@@std@@@std@@QAE@ABV01@@Z ENDP ; std::allocator<std::basic_string<char,std::char_traits<char>,std::allocator<char> > >::allocator<std::basic_string<char,std::char_traits<char>,std::allocator<char> > >
_TEXT	ENDS
PUBLIC	?max_size@?$allocator@V?$basic_string@DU?$char_traits@D@std@@V?$allocator@D@2@@std@@@std@@QBEIXZ ; std::allocator<std::basic_string<char,std::char_traits<char>,std::allocator<char> > >::max_size
; Function compile flags: /Ogsp
;	COMDAT ?max_size@?$allocator@V?$basic_string@DU?$char_traits@D@std@@V?$allocator@D@2@@std@@@std@@QBEIXZ
_TEXT	SEGMENT
?max_size@?$allocator@V?$basic_string@DU?$char_traits@D@std@@V?$allocator@D@2@@std@@@std@@QBEIXZ PROC ; std::allocator<std::basic_string<char,std::char_traits<char>,std::allocator<char> > >::max_size, COMDAT
; _this$ = ecx

; 218  : 		_SIZT _Count = (_SIZT)(-1) / sizeof (_Ty);
; 219  : 		return (0 < _Count ? _Count : 1);

  00000	b8 49 92 24 09	 mov	 eax, 153391689		; 09249249H

; 220  : 		}

  00005	c3		 ret	 0
?max_size@?$allocator@V?$basic_string@DU?$char_traits@D@std@@V?$allocator@D@2@@std@@@std@@QBEIXZ ENDP ; std::allocator<std::basic_string<char,std::char_traits<char>,std::allocator<char> > >::max_size
_TEXT	ENDS
PUBLIC	??$addressof@V?$basic_string@DU?$char_traits@D@std@@V?$allocator@D@2@@std@@@std@@YAPAV?$basic_string@DU?$char_traits@D@std@@V?$allocator@D@2@@0@AAV10@@Z ; std::addressof<std::basic_string<char,std::char_traits<char>,std::allocator<char> > >
; Function compile flags: /Ogsp
;	COMDAT ??$addressof@V?$basic_string@DU?$char_traits@D@std@@V?$allocator@D@2@@std@@@std@@YAPAV?$basic_string@DU?$char_traits@D@std@@V?$allocator@D@2@@0@AAV10@@Z
_TEXT	SEGMENT
__Val$ = 8						; size = 4
??$addressof@V?$basic_string@DU?$char_traits@D@std@@V?$allocator@D@2@@std@@@std@@YAPAV?$basic_string@DU?$char_traits@D@std@@V?$allocator@D@2@@0@AAV10@@Z PROC ; std::addressof<std::basic_string<char,std::char_traits<char>,std::allocator<char> > >, COMDAT

; 110  : 	{	// return address of _Val

  00000	55		 push	 ebp
  00001	8b ec		 mov	 ebp, esp

; 111  : 	return ((_Ty *) &(char&)_Val);

  00003	8b 45 08	 mov	 eax, DWORD PTR __Val$[ebp]

; 112  : 	}

  00006	5d		 pop	 ebp
  00007	c3		 ret	 0
??$addressof@V?$basic_string@DU?$char_traits@D@std@@V?$allocator@D@2@@std@@@std@@YAPAV?$basic_string@DU?$char_traits@D@std@@V?$allocator@D@2@@0@AAV10@@Z ENDP ; std::addressof<std::basic_string<char,std::char_traits<char>,std::allocator<char> > >
_TEXT	ENDS
PUBLIC	__TI2?AVbad_alloc@std@@
PUBLIC	??$_Allocate@V?$basic_string@DU?$char_traits@D@std@@V?$allocator@D@2@@std@@@std@@YAPAV?$basic_string@DU?$char_traits@D@std@@V?$allocator@D@2@@0@IPAV10@@Z ; std::_Allocate<std::basic_string<char,std::char_traits<char>,std::allocator<char> > >
PUBLIC	__CTA2?AVbad_alloc@std@@
PUBLIC	__CT??_R0?AVbad_alloc@std@@@8??0bad_alloc@std@@QAE@ABV01@@Z12
PUBLIC	??0bad_alloc@std@@QAE@ABV01@@Z			; std::bad_alloc::bad_alloc
PUBLIC	__CT??_R0?AVexception@std@@@8??0exception@std@@QAE@ABV01@@Z12
EXTRN	??2@YAPAXI@Z:PROC				; operator new
EXTRN	__CxxThrowException@8:PROC
EXTRN	??0exception@std@@QAE@ABV01@@Z:PROC		; std::exception::exception
;	COMDAT __CT??_R0?AVexception@std@@@8??0exception@std@@QAE@ABV01@@Z12
; File c:\program files (x86)\microsoft visual studio 10.0\vc\include\exception
xdata$x	SEGMENT
__CT??_R0?AVexception@std@@@8??0exception@std@@QAE@ABV01@@Z12 DD 00H
	DD	FLAT:??_R0?AVexception@std@@@8
	DD	00H
	DD	0ffffffffH
	ORG $+4
	DD	0cH
	DD	FLAT:??0exception@std@@QAE@ABV01@@Z
xdata$x	ENDS
;	COMDAT __CT??_R0?AVbad_alloc@std@@@8??0bad_alloc@std@@QAE@ABV01@@Z12
xdata$x	SEGMENT
__CT??_R0?AVbad_alloc@std@@@8??0bad_alloc@std@@QAE@ABV01@@Z12 DD 00H
	DD	FLAT:??_R0?AVbad_alloc@std@@@8
	DD	00H
	DD	0ffffffffH
	ORG $+4
	DD	0cH
	DD	FLAT:??0bad_alloc@std@@QAE@ABV01@@Z
xdata$x	ENDS
;	COMDAT __CTA2?AVbad_alloc@std@@
xdata$x	SEGMENT
__CTA2?AVbad_alloc@std@@ DD 02H
	DD	FLAT:__CT??_R0?AVbad_alloc@std@@@8??0bad_alloc@std@@QAE@ABV01@@Z12
	DD	FLAT:__CT??_R0?AVexception@std@@@8??0exception@std@@QAE@ABV01@@Z12
xdata$x	ENDS
;	COMDAT __TI2?AVbad_alloc@std@@
xdata$x	SEGMENT
__TI2?AVbad_alloc@std@@ DD 00H
	DD	FLAT:??1bad_alloc@std@@UAE@XZ
	DD	00H
	DD	FLAT:__CTA2?AVbad_alloc@std@@
; Function compile flags: /Ogsp
; File c:\program files (x86)\microsoft visual studio 10.0\vc\include\xmemory
xdata$x	ENDS
;	COMDAT ??$_Allocate@V?$basic_string@DU?$char_traits@D@std@@V?$allocator@D@2@@std@@@std@@YAPAV?$basic_string@DU?$char_traits@D@std@@V?$allocator@D@2@@0@IPAV10@@Z
_TEXT	SEGMENT
$T538221 = -12						; size = 12
$T538226 = 8						; size = 4
__Count$ = 8						; size = 4
___formal$ = 12						; size = 4
??$_Allocate@V?$basic_string@DU?$char_traits@D@std@@V?$allocator@D@2@@std@@@std@@YAPAV?$basic_string@DU?$char_traits@D@std@@V?$allocator@D@2@@0@IPAV10@@Z PROC ; std::_Allocate<std::basic_string<char,std::char_traits<char>,std::allocator<char> > >, COMDAT

; 30   : 	{	// allocate storage for _Count elements of type _Ty

  00000	55		 push	 ebp
  00001	8b ec		 mov	 ebp, esp

; 31   : 	void *_Ptr = 0;
; 32   : 
; 33   : 	if (_Count <= 0)

  00003	8b 4d 08	 mov	 ecx, DWORD PTR __Count$[ebp]
  00006	83 ec 0c	 sub	 esp, 12			; 0000000cH
  00009	33 c0		 xor	 eax, eax
  0000b	85 c9		 test	 ecx, ecx

; 34   : 		_Count = 0;
; 35   : 	else if (((_SIZT)(-1) / sizeof (_Ty) < _Count)

  0000d	74 3c		 je	 SHORT $LN5@Allocate

; 36   : 		|| (_Ptr = ::operator new(_Count * sizeof (_Ty))) == 0)

  0000f	81 f9 49 92 24
	09		 cmp	 ecx, 153391689		; 09249249H
  00015	77 0e		 ja	 SHORT $LN1@Allocate
  00017	6b c9 1c	 imul	 ecx, 28			; 0000001cH
  0001a	51		 push	 ecx
  0001b	e8 00 00 00 00	 call	 ??2@YAPAXI@Z		; operator new
  00020	59		 pop	 ecx
  00021	85 c0		 test	 eax, eax

; 38   : 
; 39   : 	return ((_Ty _FARQ *)_Ptr);

  00023	75 26		 jne	 SHORT $LN5@Allocate
$LN1@Allocate:

; 37   : 		_THROW_NCEE(bad_alloc, 0);

  00025	83 65 08 00	 and	 DWORD PTR $T538226[ebp], 0
  00029	8d 45 08	 lea	 eax, DWORD PTR $T538226[ebp]
  0002c	50		 push	 eax
  0002d	8d 4d f4	 lea	 ecx, DWORD PTR $T538221[ebp]
  00030	ff 15 00 00 00
	00		 call	 DWORD PTR __imp_??0exception@std@@QAE@ABQBD@Z
  00036	68 00 00 00 00	 push	 OFFSET __TI2?AVbad_alloc@std@@
  0003b	8d 45 f4	 lea	 eax, DWORD PTR $T538221[ebp]
  0003e	50		 push	 eax
  0003f	c7 45 f4 00 00
	00 00		 mov	 DWORD PTR $T538221[ebp], OFFSET ??_7bad_alloc@std@@6B@
  00046	e8 00 00 00 00	 call	 __CxxThrowException@8
$LN10@Allocate:
$LN5@Allocate:

; 40   : 	}

  0004b	c9		 leave
  0004c	c3		 ret	 0
$LN9@Allocate:
??$_Allocate@V?$basic_string@DU?$char_traits@D@std@@V?$allocator@D@2@@std@@@std@@YAPAV?$basic_string@DU?$char_traits@D@std@@V?$allocator@D@2@@0@IPAV10@@Z ENDP ; std::_Allocate<std::basic_string<char,std::char_traits<char>,std::allocator<char> > >
_TEXT	ENDS
PUBLIC	??$_Val_type@PAV?$basic_string@DU?$char_traits@D@std@@V?$allocator@D@2@@std@@@std@@YAPAV?$basic_string@DU?$char_traits@D@std@@V?$allocator@D@2@@0@PAV10@@Z ; std::_Val_type<std::basic_string<char,std::char_traits<char>,std::allocator<char> > *>
; Function compile flags: /Ogsp
; File c:\program files (x86)\microsoft visual studio 10.0\vc\include\xutility
;	COMDAT ??$_Val_type@PAV?$basic_string@DU?$char_traits@D@std@@V?$allocator@D@2@@std@@@std@@YAPAV?$basic_string@DU?$char_traits@D@std@@V?$allocator@D@2@@0@PAV10@@Z
_TEXT	SEGMENT
___formal$ = 8						; size = 4
??$_Val_type@PAV?$basic_string@DU?$char_traits@D@std@@V?$allocator@D@2@@std@@@std@@YAPAV?$basic_string@DU?$char_traits@D@std@@V?$allocator@D@2@@0@PAV10@@Z PROC ; std::_Val_type<std::basic_string<char,std::char_traits<char>,std::allocator<char> > *>, COMDAT

; 790  : 	return (0);

  00000	33 c0		 xor	 eax, eax

; 791  : 	}

  00002	c3		 ret	 0
??$_Val_type@PAV?$basic_string@DU?$char_traits@D@std@@V?$allocator@D@2@@std@@@std@@YAPAV?$basic_string@DU?$char_traits@D@std@@V?$allocator@D@2@@0@PAV10@@Z ENDP ; std::_Val_type<std::basic_string<char,std::char_traits<char>,std::allocator<char> > *>
_TEXT	ENDS
PUBLIC	?_DECSTR@@YAXPADH@Z				; _DECSTR
; Function compile flags: /Ogsp
; File d:\lost saga for developer\youtube\tutorial\source\src\lsclient\stringprotect.h
;	COMDAT ?_DECSTR@@YAXPADH@Z
_TEXT	SEGMENT
_s$ = 8							; size = 4
_l$ = 12						; size = 4
?_DECSTR@@YAXPADH@Z PROC				; _DECSTR, COMDAT

; 40   : __forceinline void _DECSTR(char* s, int l){int i=0,l4=(l-1)/4,*p=(int*)s;s[l-1]=0;for(;i<l4;++i)*(p++)^=0xEAEBECED;for(i=l4*4;i<l-1;++i)s[i]^=0xED-i%4;}

  00000	55		 push	 ebp
  00001	8b ec		 mov	 ebp, esp
  00003	8b 4d 0c	 mov	 ecx, DWORD PTR _l$[ebp]
  00006	56		 push	 esi
  00007	8b 75 08	 mov	 esi, DWORD PTR _s$[ebp]
  0000a	57		 push	 edi
  0000b	8d 79 ff	 lea	 edi, DWORD PTR [ecx-1]
  0000e	8b c7		 mov	 eax, edi
  00010	99		 cdq
  00011	83 e2 03	 and	 edx, 3
  00014	03 c2		 add	 eax, edx
  00016	c1 f8 02	 sar	 eax, 2
  00019	8b d6		 mov	 edx, esi
  0001b	c6 44 0e ff 00	 mov	 BYTE PTR [esi+ecx-1], 0
  00020	85 c0		 test	 eax, eax
  00022	7e 0e		 jle	 SHORT $LN4@DECSTR
  00024	8b c8		 mov	 ecx, eax
$LL6@DECSTR:
  00026	81 32 ed ec eb
	ea		 xor	 DWORD PTR [edx], -353637139 ; eaebecedH
  0002c	83 c2 04	 add	 edx, 4
  0002f	49		 dec	 ecx
  00030	75 f4		 jne	 SHORT $LL6@DECSTR
$LN4@DECSTR:
  00032	c1 e0 02	 shl	 eax, 2
  00035	eb 17		 jmp	 SHORT $LN14@DECSTR
$LL3@DECSTR:
  00037	8b c8		 mov	 ecx, eax
  00039	81 e1 03 00 00
	80		 and	 ecx, -2147483645	; 80000003H
  0003f	79 05		 jns	 SHORT $LN13@DECSTR
  00041	49		 dec	 ecx
  00042	83 c9 fc	 or	 ecx, -4			; fffffffcH
  00045	41		 inc	 ecx
$LN13@DECSTR:
  00046	b2 ed		 mov	 dl, -19			; ffffffedH
  00048	2a d1		 sub	 dl, cl
  0004a	30 14 30	 xor	 BYTE PTR [eax+esi], dl
  0004d	40		 inc	 eax
$LN14@DECSTR:
  0004e	3b c7		 cmp	 eax, edi
  00050	7c e5		 jl	 SHORT $LL3@DECSTR
  00052	5f		 pop	 edi
  00053	5e		 pop	 esi
  00054	5d		 pop	 ebp
  00055	c3		 ret	 0
?_DECSTR@@YAXPADH@Z ENDP				; _DECSTR
_TEXT	ENDS
PUBLIC	?IsMovieCapturing@ioMovieMaker@@QAE_NXZ		; ioMovieMaker::IsMovieCapturing
; Function compile flags: /Ogsp
; File d:\lost saga for developer\youtube\tutorial\source\src\lsclient\iomoviemaker.h
;	COMDAT ?IsMovieCapturing@ioMovieMaker@@QAE_NXZ
_TEXT	SEGMENT
?IsMovieCapturing@ioMovieMaker@@QAE_NXZ PROC		; ioMovieMaker::IsMovieCapturing, COMDAT
; _this$ = ecx

; 180  : 	bool  IsMovieCapturing(){ return m_bMovieCapture; }

  00000	8a 81 c8 04 00
	00		 mov	 al, BYTE PTR [ecx+1224]
  00006	c3		 ret	 0
?IsMovieCapturing@ioMovieMaker@@QAE_NXZ ENDP		; ioMovieMaker::IsMovieCapturing
_TEXT	ENDS
PUBLIC	?SetSpec@Setting@@SAXW4Spec@1@@Z		; Setting::SetSpec
EXTRN	?m_DefaultSpec@Setting@@1W4Spec@1@A:DWORD	; Setting::m_DefaultSpec
; Function compile flags: /Ogsp
; File d:\lost saga for developer\youtube\tutorial\source\src\lsclient\setting.h
;	COMDAT ?SetSpec@Setting@@SAXW4Spec@1@@Z
_TEXT	SEGMENT
_eSpec$ = 8						; size = 4
?SetSpec@Setting@@SAXW4Spec@1@@Z PROC			; Setting::SetSpec, COMDAT

; 187  : 	static void SetSpec( Spec eSpec ) { m_DefaultSpec = eSpec; }

  00000	55		 push	 ebp
  00001	8b ec		 mov	 ebp, esp
  00003	8b 45 08	 mov	 eax, DWORD PTR _eSpec$[ebp]
  00006	a3 00 00 00 00	 mov	 DWORD PTR ?m_DefaultSpec@Setting@@1W4Spec@1@A, eax ; Setting::m_DefaultSpec
  0000b	5d		 pop	 ebp
  0000c	c3		 ret	 0
?SetSpec@Setting@@SAXW4Spec@1@@Z ENDP			; Setting::SetSpec
_TEXT	ENDS
PUBLIC	?GetSpec@Setting@@SA?AW4Spec@1@XZ		; Setting::GetSpec
; Function compile flags: /Ogsp
;	COMDAT ?GetSpec@Setting@@SA?AW4Spec@1@XZ
_TEXT	SEGMENT
?GetSpec@Setting@@SA?AW4Spec@1@XZ PROC			; Setting::GetSpec, COMDAT

; 188  : 	static Spec GetSpec() { return m_DefaultSpec; }

  00000	a1 00 00 00 00	 mov	 eax, DWORD PTR ?m_DefaultSpec@Setting@@1W4Spec@1@A ; Setting::m_DefaultSpec
  00005	c3		 ret	 0
?GetSpec@Setting@@SA?AW4Spec@1@XZ ENDP			; Setting::GetSpec
_TEXT	ENDS
PUBLIC	?GetSettingOption@Setting@@SAABUSettingOption@@XZ ; Setting::GetSettingOption
EXTRN	?m_Option@Setting@@1USettingOption@@A:BYTE	; Setting::m_Option
; Function compile flags: /Ogsp
;	COMDAT ?GetSettingOption@Setting@@SAABUSettingOption@@XZ
_TEXT	SEGMENT
?GetSettingOption@Setting@@SAABUSettingOption@@XZ PROC	; Setting::GetSettingOption, COMDAT

; 193  : 	static const SettingOption& GetSettingOption() { return m_Option; }

  00000	b8 00 00 00 00	 mov	 eax, OFFSET ?m_Option@Setting@@1USettingOption@@A ; Setting::m_Option
  00005	c3		 ret	 0
?GetSettingOption@Setting@@SAABUSettingOption@@XZ ENDP	; Setting::GetSettingOption
_TEXT	ENDS
PUBLIC	?GetPixelShaderVersion@Setting@@SAHXZ		; Setting::GetPixelShaderVersion
EXTRN	?m_iPixelShader@Setting@@1HA:DWORD		; Setting::m_iPixelShader
; Function compile flags: /Ogsp
;	COMDAT ?GetPixelShaderVersion@Setting@@SAHXZ
_TEXT	SEGMENT
?GetPixelShaderVersion@Setting@@SAHXZ PROC		; Setting::GetPixelShaderVersion, COMDAT

; 205  : 	static int GetPixelShaderVersion() { return m_iPixelShader; }

  00000	a1 00 00 00 00	 mov	 eax, DWORD PTR ?m_iPixelShader@Setting@@1HA ; Setting::m_iPixelShader
  00005	c3		 ret	 0
?GetPixelShaderVersion@Setting@@SAHXZ ENDP		; Setting::GetPixelShaderVersion
_TEXT	ENDS
PUBLIC	?GetBGMVolume@Setting@@SAHXZ			; Setting::GetBGMVolume
; Function compile flags: /Ogsp
;	COMDAT ?GetBGMVolume@Setting@@SAHXZ
_TEXT	SEGMENT
?GetBGMVolume@Setting@@SAHXZ PROC			; Setting::GetBGMVolume, COMDAT

; 284  : 	static int  GetBGMVolume() { return m_Option.m_iBGMVolume; }

  00000	a1 30 00 00 00	 mov	 eax, DWORD PTR ?m_Option@Setting@@1USettingOption@@A+48
  00005	c3		 ret	 0
?GetBGMVolume@Setting@@SAHXZ ENDP			; Setting::GetBGMVolume
_TEXT	ENDS
PUBLIC	?SetBGMVolume@Setting@@SAXH@Z			; Setting::SetBGMVolume
; Function compile flags: /Ogsp
;	COMDAT ?SetBGMVolume@Setting@@SAXH@Z
_TEXT	SEGMENT
_iBGMVolume$ = 8					; size = 4
?SetBGMVolume@Setting@@SAXH@Z PROC			; Setting::SetBGMVolume, COMDAT

; 285  : 	static void SetBGMVolume( int iBGMVolume ) { m_Option.m_iBGMVolume = iBGMVolume ;}

  00000	55		 push	 ebp
  00001	8b ec		 mov	 ebp, esp
  00003	8b 45 08	 mov	 eax, DWORD PTR _iBGMVolume$[ebp]
  00006	a3 30 00 00 00	 mov	 DWORD PTR ?m_Option@Setting@@1USettingOption@@A+48, eax
  0000b	5d		 pop	 ebp
  0000c	c3		 ret	 0
?SetBGMVolume@Setting@@SAXH@Z ENDP			; Setting::SetBGMVolume
_TEXT	ENDS
PUBLIC	?GetEffectSoundVolume@Setting@@SAHXZ		; Setting::GetEffectSoundVolume
; Function compile flags: /Ogsp
;	COMDAT ?GetEffectSoundVolume@Setting@@SAHXZ
_TEXT	SEGMENT
?GetEffectSoundVolume@Setting@@SAHXZ PROC		; Setting::GetEffectSoundVolume, COMDAT

; 287  : 	static int  GetEffectSoundVolume() { return m_Option.m_iEffectSoundVolume; }

  00000	a1 34 00 00 00	 mov	 eax, DWORD PTR ?m_Option@Setting@@1USettingOption@@A+52
  00005	c3		 ret	 0
?GetEffectSoundVolume@Setting@@SAHXZ ENDP		; Setting::GetEffectSoundVolume
_TEXT	ENDS
PUBLIC	?SetEffectSoundVolume@Setting@@SAXH@Z		; Setting::SetEffectSoundVolume
; Function compile flags: /Ogsp
;	COMDAT ?SetEffectSoundVolume@Setting@@SAXH@Z
_TEXT	SEGMENT
_iEffectSoundVolume$ = 8				; size = 4
?SetEffectSoundVolume@Setting@@SAXH@Z PROC		; Setting::SetEffectSoundVolume, COMDAT

; 288  : 	static void SetEffectSoundVolume( int iEffectSoundVolume ) { m_Option.m_iEffectSoundVolume = iEffectSoundVolume ;}

  00000	55		 push	 ebp
  00001	8b ec		 mov	 ebp, esp
  00003	8b 45 08	 mov	 eax, DWORD PTR _iEffectSoundVolume$[ebp]
  00006	a3 34 00 00 00	 mov	 DWORD PTR ?m_Option@Setting@@1USettingOption@@A+52, eax
  0000b	5d		 pop	 ebp
  0000c	c3		 ret	 0
?SetEffectSoundVolume@Setting@@SAXH@Z ENDP		; Setting::SetEffectSoundVolume
_TEXT	ENDS
PUBLIC	?GetVoiceVolume@Setting@@SAHXZ			; Setting::GetVoiceVolume
; Function compile flags: /Ogsp
;	COMDAT ?GetVoiceVolume@Setting@@SAHXZ
_TEXT	SEGMENT
?GetVoiceVolume@Setting@@SAHXZ PROC			; Setting::GetVoiceVolume, COMDAT

; 290  : 	static int  GetVoiceVolume() { return m_Option.m_iVoiceVolume; }

  00000	a1 38 00 00 00	 mov	 eax, DWORD PTR ?m_Option@Setting@@1USettingOption@@A+56
  00005	c3		 ret	 0
?GetVoiceVolume@Setting@@SAHXZ ENDP			; Setting::GetVoiceVolume
_TEXT	ENDS
PUBLIC	?SetVoiceVolume@Setting@@SAXH@Z			; Setting::SetVoiceVolume
; Function compile flags: /Ogsp
;	COMDAT ?SetVoiceVolume@Setting@@SAXH@Z
_TEXT	SEGMENT
_iVoiceVolume$ = 8					; size = 4
?SetVoiceVolume@Setting@@SAXH@Z PROC			; Setting::SetVoiceVolume, COMDAT

; 291  : 	static void SetVoiceVolume( int iVoiceVolume ) { m_Option.m_iVoiceVolume = iVoiceVolume ;}

  00000	55		 push	 ebp
  00001	8b ec		 mov	 ebp, esp
  00003	8b 45 08	 mov	 eax, DWORD PTR _iVoiceVolume$[ebp]
  00006	a3 38 00 00 00	 mov	 DWORD PTR ?m_Option@Setting@@1USettingOption@@A+56, eax
  0000b	5d		 pop	 ebp
  0000c	c3		 ret	 0
?SetVoiceVolume@Setting@@SAXH@Z ENDP			; Setting::SetVoiceVolume
_TEXT	ENDS
PUBLIC	?GetCustomSoundVolume@Setting@@SAHXZ		; Setting::GetCustomSoundVolume
; Function compile flags: /Ogsp
;	COMDAT ?GetCustomSoundVolume@Setting@@SAHXZ
_TEXT	SEGMENT
?GetCustomSoundVolume@Setting@@SAHXZ PROC		; Setting::GetCustomSoundVolume, COMDAT

; 293  : 	static int  GetCustomSoundVolume() { return m_Option.m_iCustomSoundVolume; }

  00000	a1 3c 00 00 00	 mov	 eax, DWORD PTR ?m_Option@Setting@@1USettingOption@@A+60
  00005	c3		 ret	 0
?GetCustomSoundVolume@Setting@@SAHXZ ENDP		; Setting::GetCustomSoundVolume
_TEXT	ENDS
PUBLIC	?SetCustomSoundVolume@Setting@@SAXH@Z		; Setting::SetCustomSoundVolume
; Function compile flags: /Ogsp
;	COMDAT ?SetCustomSoundVolume@Setting@@SAXH@Z
_TEXT	SEGMENT
_iCustomSoundVolume$ = 8				; size = 4
?SetCustomSoundVolume@Setting@@SAXH@Z PROC		; Setting::SetCustomSoundVolume, COMDAT

; 294  : 	static void SetCustomSoundVolume( int iCustomSoundVolume ) { m_Option.m_iCustomSoundVolume = iCustomSoundVolume; }

  00000	55		 push	 ebp
  00001	8b ec		 mov	 ebp, esp
  00003	8b 45 08	 mov	 eax, DWORD PTR _iCustomSoundVolume$[ebp]
  00006	a3 3c 00 00 00	 mov	 DWORD PTR ?m_Option@Setting@@1USettingOption@@A+60, eax
  0000b	5d		 pop	 ebp
  0000c	c3		 ret	 0
?SetCustomSoundVolume@Setting@@SAXH@Z ENDP		; Setting::SetCustomSoundVolume
_TEXT	ENDS
PUBLIC	?SetUseVoiceChat@Setting@@SAX_N@Z		; Setting::SetUseVoiceChat
; Function compile flags: /Ogsp
;	COMDAT ?SetUseVoiceChat@Setting@@SAX_N@Z
_TEXT	SEGMENT
_bUse$ = 8						; size = 1
?SetUseVoiceChat@Setting@@SAX_N@Z PROC			; Setting::SetUseVoiceChat, COMDAT

; 309  : 	static void SetUseVoiceChat( bool bUse ) { m_Option.m_bUseVoiceChat = bUse; }

  00000	55		 push	 ebp
  00001	8b ec		 mov	 ebp, esp
  00003	8a 45 08	 mov	 al, BYTE PTR _bUse$[ebp]
  00006	a2 44 00 00 00	 mov	 BYTE PTR ?m_Option@Setting@@1USettingOption@@A+68, al
  0000b	5d		 pop	 ebp
  0000c	c3		 ret	 0
?SetUseVoiceChat@Setting@@SAX_N@Z ENDP			; Setting::SetUseVoiceChat
_TEXT	ENDS
PUBLIC	??4SettingOption@@QAEAAU0@ABU0@@Z		; SettingOption::operator=
EXTRN	__imp_??4ioHashString@@QAEAAV0@ABV0@@Z:PROC
; Function compile flags: /Ogsp
;	COMDAT ??4SettingOption@@QAEAAU0@ABU0@@Z
_TEXT	SEGMENT
___that$ = 8						; size = 4
??4SettingOption@@QAEAAU0@ABU0@@Z PROC			; SettingOption::operator=, COMDAT
; _this$ = ecx
  00000	55		 push	 ebp
  00001	8b ec		 mov	 ebp, esp
  00003	56		 push	 esi
  00004	8b f1		 mov	 esi, ecx
  00006	57		 push	 edi
  00007	8b 7d 08	 mov	 edi, DWORD PTR ___that$[ebp]
  0000a	8a 07		 mov	 al, BYTE PTR [edi]
  0000c	88 06		 mov	 BYTE PTR [esi], al
  0000e	8a 47 01	 mov	 al, BYTE PTR [edi+1]
  00011	88 46 01	 mov	 BYTE PTR [esi+1], al
  00014	8a 47 02	 mov	 al, BYTE PTR [edi+2]
  00017	88 46 02	 mov	 BYTE PTR [esi+2], al
  0001a	8a 47 03	 mov	 al, BYTE PTR [edi+3]
  0001d	88 46 03	 mov	 BYTE PTR [esi+3], al
  00020	8a 47 04	 mov	 al, BYTE PTR [edi+4]
  00023	88 46 04	 mov	 BYTE PTR [esi+4], al
  00026	8a 47 05	 mov	 al, BYTE PTR [edi+5]
  00029	88 46 05	 mov	 BYTE PTR [esi+5], al
  0002c	8a 47 06	 mov	 al, BYTE PTR [edi+6]
  0002f	88 46 06	 mov	 BYTE PTR [esi+6], al
  00032	8a 47 07	 mov	 al, BYTE PTR [edi+7]
  00035	88 46 07	 mov	 BYTE PTR [esi+7], al
  00038	8a 47 08	 mov	 al, BYTE PTR [edi+8]
  0003b	88 46 08	 mov	 BYTE PTR [esi+8], al
  0003e	8a 47 09	 mov	 al, BYTE PTR [edi+9]
  00041	88 46 09	 mov	 BYTE PTR [esi+9], al
  00044	8a 47 0a	 mov	 al, BYTE PTR [edi+10]
  00047	88 46 0a	 mov	 BYTE PTR [esi+10], al
  0004a	8b 47 0c	 mov	 eax, DWORD PTR [edi+12]
  0004d	89 46 0c	 mov	 DWORD PTR [esi+12], eax
  00050	8b 47 10	 mov	 eax, DWORD PTR [edi+16]
  00053	89 46 10	 mov	 DWORD PTR [esi+16], eax
  00056	8b 47 14	 mov	 eax, DWORD PTR [edi+20]
  00059	89 46 14	 mov	 DWORD PTR [esi+20], eax
  0005c	8b 47 18	 mov	 eax, DWORD PTR [edi+24]
  0005f	89 46 18	 mov	 DWORD PTR [esi+24], eax
  00062	8b 47 1c	 mov	 eax, DWORD PTR [edi+28]
  00065	89 46 1c	 mov	 DWORD PTR [esi+28], eax
  00068	8b 47 20	 mov	 eax, DWORD PTR [edi+32]
  0006b	89 46 20	 mov	 DWORD PTR [esi+32], eax
  0006e	8b 47 24	 mov	 eax, DWORD PTR [edi+36]
  00071	89 46 24	 mov	 DWORD PTR [esi+36], eax
  00074	8b 47 28	 mov	 eax, DWORD PTR [edi+40]
  00077	89 46 28	 mov	 DWORD PTR [esi+40], eax
  0007a	8b 47 2c	 mov	 eax, DWORD PTR [edi+44]
  0007d	89 46 2c	 mov	 DWORD PTR [esi+44], eax
  00080	8b 47 30	 mov	 eax, DWORD PTR [edi+48]
  00083	89 46 30	 mov	 DWORD PTR [esi+48], eax
  00086	8b 47 34	 mov	 eax, DWORD PTR [edi+52]
  00089	89 46 34	 mov	 DWORD PTR [esi+52], eax
  0008c	8b 47 38	 mov	 eax, DWORD PTR [edi+56]
  0008f	89 46 38	 mov	 DWORD PTR [esi+56], eax
  00092	8b 47 3c	 mov	 eax, DWORD PTR [edi+60]
  00095	89 46 3c	 mov	 DWORD PTR [esi+60], eax
  00098	8a 47 40	 mov	 al, BYTE PTR [edi+64]
  0009b	88 46 40	 mov	 BYTE PTR [esi+64], al
  0009e	8a 47 41	 mov	 al, BYTE PTR [edi+65]
  000a1	88 46 41	 mov	 BYTE PTR [esi+65], al
  000a4	8a 47 42	 mov	 al, BYTE PTR [edi+66]
  000a7	88 46 42	 mov	 BYTE PTR [esi+66], al
  000aa	8a 47 43	 mov	 al, BYTE PTR [edi+67]
  000ad	88 46 43	 mov	 BYTE PTR [esi+67], al
  000b0	8a 47 44	 mov	 al, BYTE PTR [edi+68]
  000b3	88 46 44	 mov	 BYTE PTR [esi+68], al
  000b6	8a 47 45	 mov	 al, BYTE PTR [edi+69]
  000b9	88 46 45	 mov	 BYTE PTR [esi+69], al
  000bc	8a 47 46	 mov	 al, BYTE PTR [edi+70]
  000bf	88 46 46	 mov	 BYTE PTR [esi+70], al
  000c2	8a 47 47	 mov	 al, BYTE PTR [edi+71]
  000c5	88 46 47	 mov	 BYTE PTR [esi+71], al
  000c8	8a 47 48	 mov	 al, BYTE PTR [edi+72]
  000cb	88 46 48	 mov	 BYTE PTR [esi+72], al
  000ce	8a 47 49	 mov	 al, BYTE PTR [edi+73]
  000d1	88 46 49	 mov	 BYTE PTR [esi+73], al
  000d4	8a 47 4a	 mov	 al, BYTE PTR [edi+74]
  000d7	88 46 4a	 mov	 BYTE PTR [esi+74], al
  000da	8d 47 4c	 lea	 eax, DWORD PTR [edi+76]
  000dd	50		 push	 eax
  000de	8d 4e 4c	 lea	 ecx, DWORD PTR [esi+76]
  000e1	ff 15 00 00 00
	00		 call	 DWORD PTR __imp_??4ioHashString@@QAEAAV0@ABV0@@Z
  000e7	8a 47 5c	 mov	 al, BYTE PTR [edi+92]
  000ea	88 46 5c	 mov	 BYTE PTR [esi+92], al
  000ed	8a 47 5d	 mov	 al, BYTE PTR [edi+93]
  000f0	88 46 5d	 mov	 BYTE PTR [esi+93], al
  000f3	8a 47 5e	 mov	 al, BYTE PTR [edi+94]
  000f6	88 46 5e	 mov	 BYTE PTR [esi+94], al
  000f9	8a 47 5f	 mov	 al, BYTE PTR [edi+95]
  000fc	88 46 5f	 mov	 BYTE PTR [esi+95], al
  000ff	8a 47 60	 mov	 al, BYTE PTR [edi+96]
  00102	88 46 60	 mov	 BYTE PTR [esi+96], al
  00105	8a 47 61	 mov	 al, BYTE PTR [edi+97]
  00108	88 46 61	 mov	 BYTE PTR [esi+97], al
  0010b	8a 47 62	 mov	 al, BYTE PTR [edi+98]
  0010e	88 46 62	 mov	 BYTE PTR [esi+98], al
  00111	8a 47 63	 mov	 al, BYTE PTR [edi+99]
  00114	88 46 63	 mov	 BYTE PTR [esi+99], al
  00117	8a 47 64	 mov	 al, BYTE PTR [edi+100]
  0011a	88 46 64	 mov	 BYTE PTR [esi+100], al
  0011d	8a 47 65	 mov	 al, BYTE PTR [edi+101]
  00120	88 46 65	 mov	 BYTE PTR [esi+101], al
  00123	8a 47 66	 mov	 al, BYTE PTR [edi+102]
  00126	88 46 66	 mov	 BYTE PTR [esi+102], al
  00129	8a 47 67	 mov	 al, BYTE PTR [edi+103]
  0012c	88 46 67	 mov	 BYTE PTR [esi+103], al
  0012f	8a 47 68	 mov	 al, BYTE PTR [edi+104]
  00132	88 46 68	 mov	 BYTE PTR [esi+104], al
  00135	8a 47 69	 mov	 al, BYTE PTR [edi+105]
  00138	88 46 69	 mov	 BYTE PTR [esi+105], al
  0013b	8a 47 6a	 mov	 al, BYTE PTR [edi+106]
  0013e	88 46 6a	 mov	 BYTE PTR [esi+106], al
  00141	8a 47 6b	 mov	 al, BYTE PTR [edi+107]
  00144	88 46 6b	 mov	 BYTE PTR [esi+107], al
  00147	8a 47 6c	 mov	 al, BYTE PTR [edi+108]
  0014a	88 46 6c	 mov	 BYTE PTR [esi+108], al
  0014d	8a 47 6d	 mov	 al, BYTE PTR [edi+109]
  00150	88 46 6d	 mov	 BYTE PTR [esi+109], al
  00153	8a 47 6e	 mov	 al, BYTE PTR [edi+110]
  00156	88 46 6e	 mov	 BYTE PTR [esi+110], al
  00159	8a 47 6f	 mov	 al, BYTE PTR [edi+111]
  0015c	88 46 6f	 mov	 BYTE PTR [esi+111], al
  0015f	8a 47 70	 mov	 al, BYTE PTR [edi+112]
  00162	88 46 70	 mov	 BYTE PTR [esi+112], al
  00165	8a 47 71	 mov	 al, BYTE PTR [edi+113]
  00168	88 46 71	 mov	 BYTE PTR [esi+113], al
  0016b	8a 47 72	 mov	 al, BYTE PTR [edi+114]
  0016e	88 46 72	 mov	 BYTE PTR [esi+114], al
  00171	8b 47 74	 mov	 eax, DWORD PTR [edi+116]
  00174	89 46 74	 mov	 DWORD PTR [esi+116], eax
  00177	8b 47 78	 mov	 eax, DWORD PTR [edi+120]
  0017a	89 46 78	 mov	 DWORD PTR [esi+120], eax
  0017d	8b 47 7c	 mov	 eax, DWORD PTR [edi+124]
  00180	89 46 7c	 mov	 DWORD PTR [esi+124], eax
  00183	8b 87 80 00 00
	00		 mov	 eax, DWORD PTR [edi+128]
  00189	89 86 80 00 00
	00		 mov	 DWORD PTR [esi+128], eax
  0018f	8b 87 84 00 00
	00		 mov	 eax, DWORD PTR [edi+132]
  00195	89 86 84 00 00
	00		 mov	 DWORD PTR [esi+132], eax
  0019b	8b 87 88 00 00
	00		 mov	 eax, DWORD PTR [edi+136]
  001a1	89 86 88 00 00
	00		 mov	 DWORD PTR [esi+136], eax
  001a7	8b 87 8c 00 00
	00		 mov	 eax, DWORD PTR [edi+140]
  001ad	89 86 8c 00 00
	00		 mov	 DWORD PTR [esi+140], eax
  001b3	8a 87 90 00 00
	00		 mov	 al, BYTE PTR [edi+144]
  001b9	88 86 90 00 00
	00		 mov	 BYTE PTR [esi+144], al
  001bf	8a 87 91 00 00
	00		 mov	 al, BYTE PTR [edi+145]
  001c5	88 86 91 00 00
	00		 mov	 BYTE PTR [esi+145], al
  001cb	8b 87 94 00 00
	00		 mov	 eax, DWORD PTR [edi+148]
  001d1	89 86 94 00 00
	00		 mov	 DWORD PTR [esi+148], eax
  001d7	8a 87 98 00 00
	00		 mov	 al, BYTE PTR [edi+152]
  001dd	88 86 98 00 00
	00		 mov	 BYTE PTR [esi+152], al
  001e3	8a 87 99 00 00
	00		 mov	 al, BYTE PTR [edi+153]
  001e9	88 86 99 00 00
	00		 mov	 BYTE PTR [esi+153], al
  001ef	8a 87 9a 00 00
	00		 mov	 al, BYTE PTR [edi+154]
  001f5	88 86 9a 00 00
	00		 mov	 BYTE PTR [esi+154], al
  001fb	8b 87 9c 00 00
	00		 mov	 eax, DWORD PTR [edi+156]
  00201	89 86 9c 00 00
	00		 mov	 DWORD PTR [esi+156], eax
  00207	5f		 pop	 edi
  00208	8b c6		 mov	 eax, esi
  0020a	5e		 pop	 esi
  0020b	5d		 pop	 ebp
  0020c	c2 04 00	 ret	 4
??4SettingOption@@QAEAAU0@ABU0@@Z ENDP			; SettingOption::operator=
_TEXT	ENDS
PUBLIC	?GetConnectedMoveMode@ioApplication@@QAE?AW4ConnectedMoveMode@1@XZ ; ioApplication::GetConnectedMoveMode
; Function compile flags: /Ogsp
; File d:\lost saga for developer\youtube\tutorial\source\src\lsclient\ioapplication.h
;	COMDAT ?GetConnectedMoveMode@ioApplication@@QAE?AW4ConnectedMoveMode@1@XZ
_TEXT	SEGMENT
?GetConnectedMoveMode@ioApplication@@QAE?AW4ConnectedMoveMode@1@XZ PROC ; ioApplication::GetConnectedMoveMode, COMDAT
; _this$ = ecx

; 1225 : 	inline ConnectedMoveMode GetConnectedMoveMode(){ return static_cast<ConnectedMoveMode>( m_eConnectedMoveMode ); }

  00000	8b 81 ac 06 00
	00		 mov	 eax, DWORD PTR [ecx+1708]
  00006	c3		 ret	 0
?GetConnectedMoveMode@ioApplication@@QAE?AW4ConnectedMoveMode@1@XZ ENDP ; ioApplication::GetConnectedMoveMode
_TEXT	ENDS
PUBLIC	?GetPublicID@ioMyInfo@@QBEABVioHashString@@XZ	; ioMyInfo::GetPublicID
; Function compile flags: /Ogsp
; File d:\lost saga for developer\youtube\tutorial\source\src\lsclient\iomyinfo.h
;	COMDAT ?GetPublicID@ioMyInfo@@QBEABVioHashString@@XZ
_TEXT	SEGMENT
?GetPublicID@ioMyInfo@@QBEABVioHashString@@XZ PROC	; ioMyInfo::GetPublicID, COMDAT
; _this$ = ecx

; 517  : 	const ioHashString& GetPublicID() const { return m_user_data.m_public_id; }    

  00000	8d 41 1c	 lea	 eax, DWORD PTR [ecx+28]
  00003	c3		 ret	 0
?GetPublicID@ioMyInfo@@QBEABVioHashString@@XZ ENDP	; ioMyInfo::GetPublicID
_TEXT	ENDS
PUBLIC	?GetMyRoomType@ioMyRoomMode@@SA?AW4MyRoomType@@XZ ; ioMyRoomMode::GetMyRoomType
EXTRN	?m_eMyRoomType@ioMyRoomMode@@1W4MyRoomType@@A:DWORD ; ioMyRoomMode::m_eMyRoomType
; Function compile flags: /Ogsp
; File d:\lost saga for developer\youtube\tutorial\source\src\lsclient\iomyroommode.h
;	COMDAT ?GetMyRoomType@ioMyRoomMode@@SA?AW4MyRoomType@@XZ
_TEXT	SEGMENT
?GetMyRoomType@ioMyRoomMode@@SA?AW4MyRoomType@@XZ PROC	; ioMyRoomMode::GetMyRoomType, COMDAT

; 194  : 	static MyRoomType GetMyRoomType(){ return m_eMyRoomType; }

  00000	a1 00 00 00 00	 mov	 eax, DWORD PTR ?m_eMyRoomType@ioMyRoomMode@@1W4MyRoomType@@A ; ioMyRoomMode::m_eMyRoomType
  00005	c3		 ret	 0
?GetMyRoomType@ioMyRoomMode@@SA?AW4MyRoomType@@XZ ENDP	; ioMyRoomMode::GetMyRoomType
_TEXT	ENDS
PUBLIC	?size@?$basic_string@DU?$char_traits@D@std@@V?$allocator@D@2@@std@@QBEIXZ ; std::basic_string<char,std::char_traits<char>,std::allocator<char> >::size
; Function compile flags: /Ogsp
; File c:\program files (x86)\microsoft visual studio 10.0\vc\include\xstring
;	COMDAT ?size@?$basic_string@DU?$char_traits@D@std@@V?$allocator@D@2@@std@@QBEIXZ
_TEXT	SEGMENT
?size@?$basic_string@DU?$char_traits@D@std@@V?$allocator@D@2@@std@@QBEIXZ PROC ; std::basic_string<char,std::char_traits<char>,std::allocator<char> >::size, COMDAT
; _this$ = ecx

; 1512 : 		return (this->_Mysize);

  00000	8b 41 10	 mov	 eax, DWORD PTR [ecx+16]

; 1513 : 		}

  00003	c3		 ret	 0
?size@?$basic_string@DU?$char_traits@D@std@@V?$allocator@D@2@@std@@QBEIXZ ENDP ; std::basic_string<char,std::char_traits<char>,std::allocator<char> >::size
_TEXT	ENDS
PUBLIC	?size@?$vector@W4_D3DMULTISAMPLE_TYPE@@V?$allocator@W4_D3DMULTISAMPLE_TYPE@@@std@@@std@@QBEIXZ ; std::vector<enum _D3DMULTISAMPLE_TYPE,std::allocator<enum _D3DMULTISAMPLE_TYPE> >::size
; Function compile flags: /Ogsp
; File c:\program files (x86)\microsoft visual studio 10.0\vc\include\vector
;	COMDAT ?size@?$vector@W4_D3DMULTISAMPLE_TYPE@@V?$allocator@W4_D3DMULTISAMPLE_TYPE@@@std@@@std@@QBEIXZ
_TEXT	SEGMENT
?size@?$vector@W4_D3DMULTISAMPLE_TYPE@@V?$allocator@W4_D3DMULTISAMPLE_TYPE@@@std@@@std@@QBEIXZ PROC ; std::vector<enum _D3DMULTISAMPLE_TYPE,std::allocator<enum _D3DMULTISAMPLE_TYPE> >::size, COMDAT
; _this$ = ecx

; 879  : 		return (this->_Mylast - this->_Myfirst);

  00000	8b 41 04	 mov	 eax, DWORD PTR [ecx+4]
  00003	2b 01		 sub	 eax, DWORD PTR [ecx]
  00005	c1 f8 02	 sar	 eax, 2

; 880  : 		}

  00008	c3		 ret	 0
?size@?$vector@W4_D3DMULTISAMPLE_TYPE@@V?$allocator@W4_D3DMULTISAMPLE_TYPE@@@std@@@std@@QBEIXZ ENDP ; std::vector<enum _D3DMULTISAMPLE_TYPE,std::allocator<enum _D3DMULTISAMPLE_TYPE> >::size
_TEXT	ENDS
PUBLIC	?_Myptr@?$basic_string@DU?$char_traits@D@std@@V?$allocator@D@2@@std@@QBEPBDXZ ; std::basic_string<char,std::char_traits<char>,std::allocator<char> >::_Myptr
; Function compile flags: /Ogsp
; File c:\program files (x86)\microsoft visual studio 10.0\vc\include\xstring
;	COMDAT ?_Myptr@?$basic_string@DU?$char_traits@D@std@@V?$allocator@D@2@@std@@QBEPBDXZ
_TEXT	SEGMENT
?_Myptr@?$basic_string@DU?$char_traits@D@std@@V?$allocator@D@2@@std@@QBEPBDXZ PROC ; std::basic_string<char,std::char_traits<char>,std::allocator<char> >::_Myptr, COMDAT
; _this$ = ecx

; 2010 : 		return (this->_BUF_SIZE <= this->_Myres ? this->_Bx._Ptr
; 2011 : 			: this->_Bx._Buf);

  00000	83 79 14 10	 cmp	 DWORD PTR [ecx+20], 16	; 00000010H
  00004	72 03		 jb	 SHORT $LN3@Myptr
  00006	8b 01		 mov	 eax, DWORD PTR [ecx]

; 2012 : 		}

  00008	c3		 ret	 0
$LN3@Myptr:

; 2010 : 		return (this->_BUF_SIZE <= this->_Myres ? this->_Bx._Ptr
; 2011 : 			: this->_Bx._Buf);

  00009	8b c1		 mov	 eax, ecx

; 2012 : 		}

  0000b	c3		 ret	 0
?_Myptr@?$basic_string@DU?$char_traits@D@std@@V?$allocator@D@2@@std@@QBEPBDXZ ENDP ; std::basic_string<char,std::char_traits<char>,std::allocator<char> >::_Myptr
_TEXT	ENDS
PUBLIC	??1?$_String_val@DV?$allocator@D@std@@@std@@QAE@XZ ; std::_String_val<char,std::allocator<char> >::~_String_val<char,std::allocator<char> >
; Function compile flags: /Ogsp
;	COMDAT ??1?$_String_val@DV?$allocator@D@std@@@std@@QAE@XZ
_TEXT	SEGMENT
??1?$_String_val@DV?$allocator@D@std@@@std@@QAE@XZ PROC	; std::_String_val<char,std::allocator<char> >::~_String_val<char,std::allocator<char> >, COMDAT
; _this$ = ecx

; 459  : 		}

  00000	c3		 ret	 0
??1?$_String_val@DV?$allocator@D@std@@@std@@QAE@XZ ENDP	; std::_String_val<char,std::allocator<char> >::~_String_val<char,std::allocator<char> >
_TEXT	ENDS
PUBLIC	??0?$allocator@D@std@@QAE@XZ			; std::allocator<char>::allocator<char>
; Function compile flags: /Ogsp
; File c:\program files (x86)\microsoft visual studio 10.0\vc\include\xmemory
;	COMDAT ??0?$allocator@D@std@@QAE@XZ
_TEXT	SEGMENT
??0?$allocator@D@std@@QAE@XZ PROC			; std::allocator<char>::allocator<char>, COMDAT
; _this$ = ecx

; 161  : 	_ALLOCATOR() _THROW0()

  00000	8b c1		 mov	 eax, ecx

; 162  : 		{	// construct default allocator (do nothing)
; 163  : 		}

  00002	c3		 ret	 0
??0?$allocator@D@std@@QAE@XZ ENDP			; std::allocator<char>::allocator<char>
_TEXT	ENDS
PUBLIC	??0?$allocator@D@std@@QAE@ABV01@@Z		; std::allocator<char>::allocator<char>
; Function compile flags: /Ogsp
;	COMDAT ??0?$allocator@D@std@@QAE@ABV01@@Z
_TEXT	SEGMENT
___formal$ = 8						; size = 4
??0?$allocator@D@std@@QAE@ABV01@@Z PROC			; std::allocator<char>::allocator<char>, COMDAT
; _this$ = ecx

; 165  : 	_ALLOCATOR(const _ALLOCATOR<_Ty>&) _THROW0()

  00000	8b c1		 mov	 eax, ecx

; 166  : 		{	// construct by copying (do nothing)
; 167  : 		}

  00002	c2 04 00	 ret	 4
??0?$allocator@D@std@@QAE@ABV01@@Z ENDP			; std::allocator<char>::allocator<char>
_TEXT	ENDS
PUBLIC	?DecryptValueToPool@?$CEncrypt@W4ModeType@@@@QAEXPAW4ModeType@@@Z ; CEncrypt<enum ModeType>::DecryptValueToPool
EXTRN	?DecryptByte@ccddaabb@@QBEXPBDPADH@Z:PROC	; ccddaabb::DecryptByte
; Function compile flags: /Ogsp
; File d:\lost saga for developer\youtube\tutorial\source\src\lsclient\encryptvalue.h
;	COMDAT ?DecryptValueToPool@?$CEncrypt@W4ModeType@@@@QAEXPAW4ModeType@@@Z
_TEXT	SEGMENT
_value$ = 8						; size = 4
?DecryptValueToPool@?$CEncrypt@W4ModeType@@@@QAEXPAW4ModeType@@@Z PROC ; CEncrypt<enum ModeType>::DecryptValueToPool, COMDAT
; _this$ = ecx

; 3039 : 	{

  00000	55		 push	 ebp
  00001	8b ec		 mov	 ebp, esp
  00003	56		 push	 esi

; 3040 : 		m_RC5.DecryptByte( m_MemPool, m_TempMem, sizeof(ModeType) );

  00004	8d 71 28	 lea	 esi, DWORD PTR [ecx+40]
  00007	6a 04		 push	 4
  00009	8d 41 1c	 lea	 eax, DWORD PTR [ecx+28]
  0000c	56		 push	 esi
  0000d	50		 push	 eax
  0000e	83 c1 0c	 add	 ecx, 12			; 0000000cH
  00011	e8 00 00 00 00	 call	 ?DecryptByte@ccddaabb@@QBEXPBDPADH@Z ; ccddaabb::DecryptByte

; 3041 : 		*value = *((ModeType*)m_TempMem);

  00016	8b 06		 mov	 eax, DWORD PTR [esi]
  00018	8b 4d 08	 mov	 ecx, DWORD PTR _value$[ebp]
  0001b	89 01		 mov	 DWORD PTR [ecx], eax
  0001d	5e		 pop	 esi

; 3042 : 	}

  0001e	5d		 pop	 ebp
  0001f	c2 04 00	 ret	 4
?DecryptValueToPool@?$CEncrypt@W4ModeType@@@@QAEXPAW4ModeType@@@Z ENDP ; CEncrypt<enum ModeType>::DecryptValueToPool
_TEXT	ENDS
PUBLIC	?get_allocator@?$basic_string@DU?$char_traits@D@std@@V?$allocator@D@2@@std@@QBE?AV?$allocator@D@2@XZ ; std::basic_string<char,std::char_traits<char>,std::allocator<char> >::get_allocator
; Function compile flags: /Ogsp
; File c:\program files (x86)\microsoft visual studio 10.0\vc\include\xstring
;	COMDAT ?get_allocator@?$basic_string@DU?$char_traits@D@std@@V?$allocator@D@2@@std@@QBE?AV?$allocator@D@2@XZ
_TEXT	SEGMENT
___$ReturnUdt$ = 8					; size = 4
?get_allocator@?$basic_string@DU?$char_traits@D@std@@V?$allocator@D@2@@std@@QBE?AV?$allocator@D@2@XZ PROC ; std::basic_string<char,std::char_traits<char>,std::allocator<char> >::get_allocator, COMDAT
; _this$ = ecx

; 1906 : 		{	// return allocator object for values

  00000	55		 push	 ebp
  00001	8b ec		 mov	 ebp, esp

; 1907 : 		return (this->_Alval);

  00003	8b 45 08	 mov	 eax, DWORD PTR ___$ReturnUdt$[ebp]

; 1908 : 		}

  00006	5d		 pop	 ebp
  00007	c2 04 00	 ret	 4
?get_allocator@?$basic_string@DU?$char_traits@D@std@@V?$allocator@D@2@@std@@QBE?AV?$allocator@D@2@XZ ENDP ; std::basic_string<char,std::char_traits<char>,std::allocator<char> >::get_allocator
_TEXT	ENDS
PUBLIC	?_Myptr@?$basic_string@DU?$char_traits@D@std@@V?$allocator@D@2@@std@@QAEPADXZ ; std::basic_string<char,std::char_traits<char>,std::allocator<char> >::_Myptr
; Function compile flags: /Ogsp
;	COMDAT ?_Myptr@?$basic_string@DU?$char_traits@D@std@@V?$allocator@D@2@@std@@QAEPADXZ
_TEXT	SEGMENT
?_Myptr@?$basic_string@DU?$char_traits@D@std@@V?$allocator@D@2@@std@@QAEPADXZ PROC ; std::basic_string<char,std::char_traits<char>,std::allocator<char> >::_Myptr, COMDAT
; _this$ = ecx

; 2004 : 		return (this->_BUF_SIZE <= this->_Myres ? this->_Bx._Ptr
; 2005 : 			: this->_Bx._Buf);

  00000	83 79 14 10	 cmp	 DWORD PTR [ecx+20], 16	; 00000010H
  00004	72 03		 jb	 SHORT $LN3@Myptr@2
  00006	8b 01		 mov	 eax, DWORD PTR [ecx]

; 2006 : 		}

  00008	c3		 ret	 0
$LN3@Myptr@2:

; 2004 : 		return (this->_BUF_SIZE <= this->_Myres ? this->_Bx._Ptr
; 2005 : 			: this->_Bx._Buf);

  00009	8b c1		 mov	 eax, ecx

; 2006 : 		}

  0000b	c3		 ret	 0
?_Myptr@?$basic_string@DU?$char_traits@D@std@@V?$allocator@D@2@@std@@QAEPADXZ ENDP ; std::basic_string<char,std::char_traits<char>,std::allocator<char> >::_Myptr
_TEXT	ENDS
PUBLIC	??_C@_0BA@JFNIOLAK@string?5too?5long?$AA@	; `string'
PUBLIC	?_Xlen@?$basic_string@DU?$char_traits@D@std@@V?$allocator@D@2@@std@@QBEXXZ ; std::basic_string<char,std::char_traits<char>,std::allocator<char> >::_Xlen
;	COMDAT ??_C@_0BA@JFNIOLAK@string?5too?5long?$AA@
CONST	SEGMENT
??_C@_0BA@JFNIOLAK@string?5too?5long?$AA@ DB 'string too long', 00H ; `string'
; Function compile flags: /Ogsp
CONST	ENDS
;	COMDAT ?_Xlen@?$basic_string@DU?$char_traits@D@std@@V?$allocator@D@2@@std@@QBEXXZ
_TEXT	SEGMENT
?_Xlen@?$basic_string@DU?$char_traits@D@std@@V?$allocator@D@2@@std@@QBEXXZ PROC ; std::basic_string<char,std::char_traits<char>,std::allocator<char> >::_Xlen, COMDAT
; _this$ = ecx

; 2016 : 		_Xlength_error("string too long");

  00000	68 00 00 00 00	 push	 OFFSET ??_C@_0BA@JFNIOLAK@string?5too?5long?$AA@
  00005	ff 15 00 00 00
	00		 call	 DWORD PTR __imp_?_Xlength_error@std@@YAXPBD@Z
$LN4@Xlen@2:
$LN3@Xlen@2:
  0000b	cc		 int	 3
?_Xlen@?$basic_string@DU?$char_traits@D@std@@V?$allocator@D@2@@std@@QBEXXZ ENDP ; std::basic_string<char,std::char_traits<char>,std::allocator<char> >::_Xlen
_TEXT	ENDS
PUBLIC	??_C@_0BI@CFPLBAOH@invalid?5string?5position?$AA@ ; `string'
PUBLIC	?_Xran@?$basic_string@DU?$char_traits@D@std@@V?$allocator@D@2@@std@@QBEXXZ ; std::basic_string<char,std::char_traits<char>,std::allocator<char> >::_Xran
EXTRN	__imp_?_Xout_of_range@std@@YAXPBD@Z:PROC
;	COMDAT ??_C@_0BI@CFPLBAOH@invalid?5string?5position?$AA@
CONST	SEGMENT
??_C@_0BI@CFPLBAOH@invalid?5string?5position?$AA@ DB 'invalid string posi'
	DB	'tion', 00H					; `string'
; Function compile flags: /Ogsp
CONST	ENDS
;	COMDAT ?_Xran@?$basic_string@DU?$char_traits@D@std@@V?$allocator@D@2@@std@@QBEXXZ
_TEXT	SEGMENT
?_Xran@?$basic_string@DU?$char_traits@D@std@@V?$allocator@D@2@@std@@QBEXXZ PROC ; std::basic_string<char,std::char_traits<char>,std::allocator<char> >::_Xran, COMDAT
; _this$ = ecx

; 2021 : 		_Xout_of_range("invalid string position");

  00000	68 00 00 00 00	 push	 OFFSET ??_C@_0BI@CFPLBAOH@invalid?5string?5position?$AA@
  00005	ff 15 00 00 00
	00		 call	 DWORD PTR __imp_?_Xout_of_range@std@@YAXPBD@Z
$LN4@Xran:
$LN3@Xran:
  0000b	cc		 int	 3
?_Xran@?$basic_string@DU?$char_traits@D@std@@V?$allocator@D@2@@std@@QBEXXZ ENDP ; std::basic_string<char,std::char_traits<char>,std::allocator<char> >::_Xran
_TEXT	ENDS
PUBLIC	?deallocate@?$allocator@D@std@@QAEXPADI@Z	; std::allocator<char>::deallocate
; Function compile flags: /Ogsp
; File c:\program files (x86)\microsoft visual studio 10.0\vc\include\xmemory
;	COMDAT ?deallocate@?$allocator@D@std@@QAEXPADI@Z
_TEXT	SEGMENT
__Ptr$ = 8						; size = 4
___formal$ = 12						; size = 4
?deallocate@?$allocator@D@std@@QAEXPADI@Z PROC		; std::allocator<char>::deallocate, COMDAT
; _this$ = ecx

; 181  : 		{	// deallocate object at _Ptr, ignore size

  00000	55		 push	 ebp
  00001	8b ec		 mov	 ebp, esp

; 182  : 		::operator delete(_Ptr);

  00003	ff 75 08	 push	 DWORD PTR __Ptr$[ebp]
  00006	e8 00 00 00 00	 call	 ??3@YAXPAX@Z		; operator delete
  0000b	59		 pop	 ecx

; 183  : 		}

  0000c	5d		 pop	 ebp
  0000d	c2 08 00	 ret	 8
?deallocate@?$allocator@D@std@@QAEXPADI@Z ENDP		; std::allocator<char>::deallocate
_TEXT	ENDS
PUBLIC	?_Inside@?$basic_string@DU?$char_traits@D@std@@V?$allocator@D@2@@std@@QAE_NPBD@Z ; std::basic_string<char,std::char_traits<char>,std::allocator<char> >::_Inside
; Function compile flags: /Ogsp
; File c:\program files (x86)\microsoft visual studio 10.0\vc\include\xstring
;	COMDAT ?_Inside@?$basic_string@DU?$char_traits@D@std@@V?$allocator@D@2@@std@@QAE_NPBD@Z
_TEXT	SEGMENT
__Ptr$ = 8						; size = 4
?_Inside@?$basic_string@DU?$char_traits@D@std@@V?$allocator@D@2@@std@@QAE_NPBD@Z PROC ; std::basic_string<char,std::char_traits<char>,std::allocator<char> >::_Inside, COMDAT
; _this$ = ecx

; 1973 : 		{	// test if _Ptr points inside string

  00000	55		 push	 ebp
  00001	8b ec		 mov	 ebp, esp

; 1974 : 		if (_Ptr == 0 || _Ptr < _Myptr() || _Myptr() + this->_Mysize <= _Ptr)

  00003	83 7d 08 00	 cmp	 DWORD PTR __Ptr$[ebp], 0
  00007	74 2c		 je	 SHORT $LN2@Inside@2
  00009	8b 51 14	 mov	 edx, DWORD PTR [ecx+20]
  0000c	83 fa 10	 cmp	 edx, 16			; 00000010H
  0000f	72 04		 jb	 SHORT $LN8@Inside@2
  00011	8b 01		 mov	 eax, DWORD PTR [ecx]
  00013	eb 02		 jmp	 SHORT $LN9@Inside@2
$LN8@Inside@2:
  00015	8b c1		 mov	 eax, ecx
$LN9@Inside@2:
  00017	39 45 08	 cmp	 DWORD PTR __Ptr$[ebp], eax
  0001a	72 19		 jb	 SHORT $LN2@Inside@2
  0001c	83 fa 10	 cmp	 edx, 16			; 00000010H
  0001f	72 04		 jb	 SHORT $LN12@Inside@2
  00021	8b 01		 mov	 eax, DWORD PTR [ecx]
  00023	eb 02		 jmp	 SHORT $LN13@Inside@2
$LN12@Inside@2:
  00025	8b c1		 mov	 eax, ecx
$LN13@Inside@2:
  00027	8b 49 10	 mov	 ecx, DWORD PTR [ecx+16]
  0002a	03 c8		 add	 ecx, eax
  0002c	3b 4d 08	 cmp	 ecx, DWORD PTR __Ptr$[ebp]
  0002f	76 04		 jbe	 SHORT $LN2@Inside@2

; 1976 : 		else
; 1977 : 			return (true);

  00031	b0 01		 mov	 al, 1
  00033	eb 02		 jmp	 SHORT $LN1@Inside@2
$LN2@Inside@2:

; 1975 : 			return (false);	// don't ask

  00035	32 c0		 xor	 al, al
$LN1@Inside@2:

; 1978 : 		}

  00037	5d		 pop	 ebp
  00038	c2 04 00	 ret	 4
?_Inside@?$basic_string@DU?$char_traits@D@std@@V?$allocator@D@2@@std@@QAE_NPBD@Z ENDP ; std::basic_string<char,std::char_traits<char>,std::allocator<char> >::_Inside
_TEXT	ENDS
PUBLIC	?max_size@?$allocator@D@std@@QBEIXZ		; std::allocator<char>::max_size
; Function compile flags: /Ogsp
; File c:\program files (x86)\microsoft visual studio 10.0\vc\include\xmemory
;	COMDAT ?max_size@?$allocator@D@std@@QBEIXZ
_TEXT	SEGMENT
?max_size@?$allocator@D@std@@QBEIXZ PROC		; std::allocator<char>::max_size, COMDAT
; _this$ = ecx

; 218  : 		_SIZT _Count = (_SIZT)(-1) / sizeof (_Ty);
; 219  : 		return (0 < _Count ? _Count : 1);

  00000	83 c8 ff	 or	 eax, -1

; 220  : 		}

  00003	c3		 ret	 0
?max_size@?$allocator@D@std@@QBEIXZ ENDP		; std::allocator<char>::max_size
_TEXT	ENDS
PUBLIC	??$forward@V?$allocator@D@std@@@std@@YA$$QAV?$allocator@D@0@AAV10@@Z ; std::forward<std::allocator<char> >
; Function compile flags: /Ogsp
; File c:\program files (x86)\microsoft visual studio 10.0\vc\include\utility
;	COMDAT ??$forward@V?$allocator@D@std@@@std@@YA$$QAV?$allocator@D@0@AAV10@@Z
_TEXT	SEGMENT
__Arg$ = 8						; size = 4
??$forward@V?$allocator@D@std@@@std@@YA$$QAV?$allocator@D@0@AAV10@@Z PROC ; std::forward<std::allocator<char> >, COMDAT

; 78   : 	{	// forward _Arg, given explicitly specified type parameter

  00000	55		 push	 ebp
  00001	8b ec		 mov	 ebp, esp

; 79   : 	return ((_Ty&&)_Arg);

  00003	8b 45 08	 mov	 eax, DWORD PTR __Arg$[ebp]

; 80   : 	}

  00006	5d		 pop	 ebp
  00007	c3		 ret	 0
??$forward@V?$allocator@D@std@@@std@@YA$$QAV?$allocator@D@0@AAV10@@Z ENDP ; std::forward<std::allocator<char> >
_TEXT	ENDS
PUBLIC	??$forward@V?$basic_string@DU?$char_traits@D@std@@V?$allocator@D@2@@std@@@std@@YA$$QAV?$basic_string@DU?$char_traits@D@std@@V?$allocator@D@2@@0@AAV10@@Z ; std::forward<std::basic_string<char,std::char_traits<char>,std::allocator<char> > >
; Function compile flags: /Ogsp
;	COMDAT ??$forward@V?$basic_string@DU?$char_traits@D@std@@V?$allocator@D@2@@std@@@std@@YA$$QAV?$basic_string@DU?$char_traits@D@std@@V?$allocator@D@2@@0@AAV10@@Z
_TEXT	SEGMENT
__Arg$ = 8						; size = 4
??$forward@V?$basic_string@DU?$char_traits@D@std@@V?$allocator@D@2@@std@@@std@@YA$$QAV?$basic_string@DU?$char_traits@D@std@@V?$allocator@D@2@@0@AAV10@@Z PROC ; std::forward<std::basic_string<char,std::char_traits<char>,std::allocator<char> > >, COMDAT

; 78   : 	{	// forward _Arg, given explicitly specified type parameter

  00000	55		 push	 ebp
  00001	8b ec		 mov	 ebp, esp

; 79   : 	return ((_Ty&&)_Arg);

  00003	8b 45 08	 mov	 eax, DWORD PTR __Arg$[ebp]

; 80   : 	}

  00006	5d		 pop	 ebp
  00007	c3		 ret	 0
??$forward@V?$basic_string@DU?$char_traits@D@std@@V?$allocator@D@2@@std@@@std@@YA$$QAV?$basic_string@DU?$char_traits@D@std@@V?$allocator@D@2@@0@AAV10@@Z ENDP ; std::forward<std::basic_string<char,std::char_traits<char>,std::allocator<char> > >
_TEXT	ENDS
PUBLIC	??$_Allocate@D@std@@YAPADIPAD@Z			; std::_Allocate<char>
; Function compile flags: /Ogsp
; File c:\program files (x86)\microsoft visual studio 10.0\vc\include\xmemory
;	COMDAT ??$_Allocate@D@std@@YAPADIPAD@Z
_TEXT	SEGMENT
$T538358 = -12						; size = 12
$T538362 = 8						; size = 4
__Count$ = 8						; size = 4
___formal$ = 12						; size = 4
??$_Allocate@D@std@@YAPADIPAD@Z PROC			; std::_Allocate<char>, COMDAT

; 30   : 	{	// allocate storage for _Count elements of type _Ty

  00000	55		 push	 ebp
  00001	8b ec		 mov	 ebp, esp

; 31   : 	void *_Ptr = 0;

  00003	33 c0		 xor	 eax, eax
  00005	83 ec 0c	 sub	 esp, 12			; 0000000cH

; 32   : 
; 33   : 	if (_Count <= 0)

  00008	39 45 08	 cmp	 DWORD PTR __Count$[ebp], eax

; 34   : 		_Count = 0;
; 35   : 	else if (((_SIZT)(-1) / sizeof (_Ty) < _Count)

  0000b	76 39		 jbe	 SHORT $LN5@Allocate@2

; 36   : 		|| (_Ptr = ::operator new(_Count * sizeof (_Ty))) == 0)

  0000d	83 7d 08 ff	 cmp	 DWORD PTR __Count$[ebp], -1
  00011	77 0d		 ja	 SHORT $LN1@Allocate@2
  00013	ff 75 08	 push	 DWORD PTR __Count$[ebp]
  00016	e8 00 00 00 00	 call	 ??2@YAPAXI@Z		; operator new
  0001b	59		 pop	 ecx
  0001c	85 c0		 test	 eax, eax

; 38   : 
; 39   : 	return ((_Ty _FARQ *)_Ptr);

  0001e	75 26		 jne	 SHORT $LN5@Allocate@2
$LN1@Allocate@2:

; 37   : 		_THROW_NCEE(bad_alloc, 0);

  00020	83 65 08 00	 and	 DWORD PTR $T538362[ebp], 0
  00024	8d 45 08	 lea	 eax, DWORD PTR $T538362[ebp]
  00027	50		 push	 eax
  00028	8d 4d f4	 lea	 ecx, DWORD PTR $T538358[ebp]
  0002b	ff 15 00 00 00
	00		 call	 DWORD PTR __imp_??0exception@std@@QAE@ABQBD@Z
  00031	68 00 00 00 00	 push	 OFFSET __TI2?AVbad_alloc@std@@
  00036	8d 45 f4	 lea	 eax, DWORD PTR $T538358[ebp]
  00039	50		 push	 eax
  0003a	c7 45 f4 00 00
	00 00		 mov	 DWORD PTR $T538358[ebp], OFFSET ??_7bad_alloc@std@@6B@
  00041	e8 00 00 00 00	 call	 __CxxThrowException@8
$LN10@Allocate@2:
$LN5@Allocate@2:

; 40   : 	}

  00046	c9		 leave
  00047	c3		 ret	 0
$LN9@Allocate@2:
??$_Allocate@D@std@@YAPADIPAD@Z ENDP			; std::_Allocate<char>
_TEXT	ENDS
EXTRN	__imp_??0exception@std@@QAE@ABV01@@Z:PROC
; Function compile flags: /Ogsp
;	COMDAT ??0bad_alloc@std@@QAE@ABV01@@Z
_TEXT	SEGMENT
___that$ = 8						; size = 4
??0bad_alloc@std@@QAE@ABV01@@Z PROC			; std::bad_alloc::bad_alloc, COMDAT
; _this$ = ecx
  00000	55		 push	 ebp
  00001	8b ec		 mov	 ebp, esp
  00003	56		 push	 esi
  00004	ff 75 08	 push	 DWORD PTR ___that$[ebp]
  00007	8b f1		 mov	 esi, ecx
  00009	ff 15 00 00 00
	00		 call	 DWORD PTR __imp_??0exception@std@@QAE@ABV01@@Z
  0000f	c7 06 00 00 00
	00		 mov	 DWORD PTR [esi], OFFSET ??_7bad_alloc@std@@6B@
  00015	8b c6		 mov	 eax, esi
  00017	5e		 pop	 esi
  00018	5d		 pop	 ebp
  00019	c2 04 00	 ret	 4
??0bad_alloc@std@@QAE@ABV01@@Z ENDP			; std::bad_alloc::bad_alloc
_TEXT	ENDS
PUBLIC	??$?8DD@std@@YA_NABV?$allocator@D@0@0@Z		; std::operator==<char,char>
; Function compile flags: /Ogsp
;	COMDAT ??$?8DD@std@@YA_NABV?$allocator@D@0@0@Z
_TEXT	SEGMENT
___formal$ = 8						; size = 4
___formal$ = 12						; size = 4
??$?8DD@std@@YA_NABV?$allocator@D@0@0@Z PROC		; std::operator==<char,char>, COMDAT

; 263  : 	return (true);

  00000	b0 01		 mov	 al, 1

; 264  : 	}

  00002	c3		 ret	 0
??$?8DD@std@@YA_NABV?$allocator@D@0@0@Z ENDP		; std::operator==<char,char>
_TEXT	ENDS
PUBLIC	??1?$_Vector_val@V?$basic_string@DU?$char_traits@D@std@@V?$allocator@D@2@@std@@V?$allocator@V?$basic_string@DU?$char_traits@D@std@@V?$allocator@D@2@@std@@@2@@std@@QAE@XZ ; std::_Vector_val<std::basic_string<char,std::char_traits<char>,std::allocator<char> >,std::allocator<std::basic_string<char,std::char_traits<char>,std::allocator<char> > > >::~_Vector_val<std::basic_string<char,std::char_traits<char>,std::allocator<char> >,std::allocator<std::basic_string<char,std::char_traits<char>,std::allocator<char> > > >
; Function compile flags: /Ogsp
; File c:\program files (x86)\microsoft visual studio 10.0\vc\include\vector
;	COMDAT ??1?$_Vector_val@V?$basic_string@DU?$char_traits@D@std@@V?$allocator@D@2@@std@@V?$allocator@V?$basic_string@DU?$char_traits@D@std@@V?$allocator@D@2@@std@@@2@@std@@QAE@XZ
_TEXT	SEGMENT
??1?$_Vector_val@V?$basic_string@DU?$char_traits@D@std@@V?$allocator@D@2@@std@@V?$allocator@V?$basic_string@DU?$char_traits@D@std@@V?$allocator@D@2@@std@@@2@@std@@QAE@XZ PROC ; std::_Vector_val<std::basic_string<char,std::char_traits<char>,std::allocator<char> >,std::allocator<std::basic_string<char,std::char_traits<char>,std::allocator<char> > > >::~_Vector_val<std::basic_string<char,std::char_traits<char>,std::allocator<char> >,std::allocator<std::basic_string<char,std::char_traits<char>,std::allocator<char> > > >, COMDAT
; _this$ = ecx

; 434  : 		}

  00000	c3		 ret	 0
??1?$_Vector_val@V?$basic_string@DU?$char_traits@D@std@@V?$allocator@D@2@@std@@V?$allocator@V?$basic_string@DU?$char_traits@D@std@@V?$allocator@D@2@@std@@@2@@std@@QAE@XZ ENDP ; std::_Vector_val<std::basic_string<char,std::char_traits<char>,std::allocator<char> >,std::allocator<std::basic_string<char,std::char_traits<char>,std::allocator<char> > > >::~_Vector_val<std::basic_string<char,std::char_traits<char>,std::allocator<char> >,std::allocator<std::basic_string<char,std::char_traits<char>,std::allocator<char> > > >
_TEXT	ENDS
PUBLIC	?deallocate@?$allocator@V?$basic_string@DU?$char_traits@D@std@@V?$allocator@D@2@@std@@@std@@QAEXPAV?$basic_string@DU?$char_traits@D@std@@V?$allocator@D@2@@2@I@Z ; std::allocator<std::basic_string<char,std::char_traits<char>,std::allocator<char> > >::deallocate
; Function compile flags: /Ogsp
; File c:\program files (x86)\microsoft visual studio 10.0\vc\include\xmemory
;	COMDAT ?deallocate@?$allocator@V?$basic_string@DU?$char_traits@D@std@@V?$allocator@D@2@@std@@@std@@QAEXPAV?$basic_string@DU?$char_traits@D@std@@V?$allocator@D@2@@2@I@Z
_TEXT	SEGMENT
__Ptr$ = 8						; size = 4
___formal$ = 12						; size = 4
?deallocate@?$allocator@V?$basic_string@DU?$char_traits@D@std@@V?$allocator@D@2@@std@@@std@@QAEXPAV?$basic_string@DU?$char_traits@D@std@@V?$allocator@D@2@@2@I@Z PROC ; std::allocator<std::basic_string<char,std::char_traits<char>,std::allocator<char> > >::deallocate, COMDAT
; _this$ = ecx

; 181  : 		{	// deallocate object at _Ptr, ignore size

  00000	55		 push	 ebp
  00001	8b ec		 mov	 ebp, esp

; 182  : 		::operator delete(_Ptr);

  00003	ff 75 08	 push	 DWORD PTR __Ptr$[ebp]
  00006	e8 00 00 00 00	 call	 ??3@YAXPAX@Z		; operator delete
  0000b	59		 pop	 ecx

; 183  : 		}

  0000c	5d		 pop	 ebp
  0000d	c2 08 00	 ret	 8
?deallocate@?$allocator@V?$basic_string@DU?$char_traits@D@std@@V?$allocator@D@2@@std@@@std@@QAEXPAV?$basic_string@DU?$char_traits@D@std@@V?$allocator@D@2@@2@I@Z ENDP ; std::allocator<std::basic_string<char,std::char_traits<char>,std::allocator<char> > >::deallocate
_TEXT	ENDS
PUBLIC	??$_Ptr_cat@V?$basic_string@DU?$char_traits@D@std@@V?$allocator@D@2@@std@@V12@@std@@YA?AU_Nonscalar_ptr_iterator_tag@0@PAV?$basic_string@DU?$char_traits@D@std@@V?$allocator@D@2@@0@0@Z ; std::_Ptr_cat<std::basic_string<char,std::char_traits<char>,std::allocator<char> >,std::basic_string<char,std::char_traits<char>,std::allocator<char> > >
; Function compile flags: /Ogsp
; File c:\program files (x86)\microsoft visual studio 10.0\vc\include\xutility
;	COMDAT ??$_Ptr_cat@V?$basic_string@DU?$char_traits@D@std@@V?$allocator@D@2@@std@@V12@@std@@YA?AU_Nonscalar_ptr_iterator_tag@0@PAV?$basic_string@DU?$char_traits@D@std@@V?$allocator@D@2@@0@0@Z
_TEXT	SEGMENT
__Cat$ = -1						; size = 1
___formal$ = 8						; size = 4
___formal$ = 12						; size = 4
??$_Ptr_cat@V?$basic_string@DU?$char_traits@D@std@@V?$allocator@D@2@@std@@V12@@std@@YA?AU_Nonscalar_ptr_iterator_tag@0@PAV?$basic_string@DU?$char_traits@D@std@@V?$allocator@D@2@@0@0@Z PROC ; std::_Ptr_cat<std::basic_string<char,std::char_traits<char>,std::allocator<char> >,std::basic_string<char,std::char_traits<char>,std::allocator<char> > >, COMDAT

; 516  : 	{	// return pointer category from pointers

  00000	55		 push	 ebp
  00001	8b ec		 mov	 ebp, esp
  00003	51		 push	 ecx

; 517  : 	typename _Ptr_cat_helper<_Elem1, _Elem2>::_Type _Cat;
; 518  : 	return (_Cat);

  00004	8a 45 ff	 mov	 al, BYTE PTR __Cat$[ebp]

; 519  : 	}

  00007	c9		 leave
  00008	c3		 ret	 0
??$_Ptr_cat@V?$basic_string@DU?$char_traits@D@std@@V?$allocator@D@2@@std@@V12@@std@@YA?AU_Nonscalar_ptr_iterator_tag@0@PAV?$basic_string@DU?$char_traits@D@std@@V?$allocator@D@2@@0@0@Z ENDP ; std::_Ptr_cat<std::basic_string<char,std::char_traits<char>,std::allocator<char> >,std::basic_string<char,std::char_traits<char>,std::allocator<char> > >
_TEXT	ENDS
PUBLIC	??0GameOptionBasicWnd@@QAE@XZ			; GameOptionBasicWnd::GameOptionBasicWnd
;	COMDAT xdata$x
; File d:\lost saga for developer\youtube\tutorial\source\src\lsclient\setting.h
xdata$x	SEGMENT
__unwindtable$??0GameOptionBasicWnd@@QAE@XZ DD 0ffffffffH
	DD	FLAT:__unwindfunclet$??0GameOptionBasicWnd@@QAE@XZ$0
	DD	00H
	DD	FLAT:__unwindfunclet$??0GameOptionBasicWnd@@QAE@XZ$1
__ehfuncinfo$??0GameOptionBasicWnd@@QAE@XZ DD 019930522H
	DD	02H
	DD	FLAT:__unwindtable$??0GameOptionBasicWnd@@QAE@XZ
	DD	2 DUP(00H)
	DD	2 DUP(00H)
	DD	00H
	DD	01H
; Function compile flags: /Ogsp
; File d:\lost saga for developer\youtube\tutorial\source\src\lsclient\gui\gameoptionwnd.cpp
xdata$x	ENDS
;	COMDAT ??0GameOptionBasicWnd@@QAE@XZ
_TEXT	SEGMENT
_this$ = -16						; size = 4
__$EHRec$ = -12						; size = 12
??0GameOptionBasicWnd@@QAE@XZ PROC			; GameOptionBasicWnd::GameOptionBasicWnd, COMDAT
; _this$ = ecx

; 48   : {

  00000	6a 04		 push	 4
  00002	b8 00 00 00 00	 mov	 eax, __ehhandler$??0GameOptionBasicWnd@@QAE@XZ
  00007	e8 00 00 00 00	 call	 __EH_prolog3
  0000c	8b f1		 mov	 esi, ecx
  0000e	89 75 f0	 mov	 DWORD PTR _this$[ebp], esi
  00011	ff 15 00 00 00
	00		 call	 DWORD PTR __imp_??0ioWnd@@QAE@XZ
  00017	83 65 fc 00	 and	 DWORD PTR __$EHRec$[ebp+8], 0
  0001b	8d 8e b0 01 00
	00		 lea	 ecx, DWORD PTR [esi+432]
  00021	c7 06 00 00 00
	00		 mov	 DWORD PTR [esi], OFFSET ??_7GameOptionBasicWnd@@6B@
  00027	ff 15 00 00 00
	00		 call	 DWORD PTR __imp_??0ioHashString@@QAE@XZ

; 49   : 	m_DefaultSpec   = Setting::GetSpec();

  0002d	a1 00 00 00 00	 mov	 eax, DWORD PTR ?m_DefaultSpec@Setting@@1W4Spec@1@A ; Setting::m_DefaultSpec

; 50   : 	m_CurrentOption = Setting::GetSettingOption();

  00032	68 00 00 00 00	 push	 OFFSET ?m_Option@Setting@@1USettingOption@@A ; Setting::m_Option
  00037	8d 8e 64 01 00
	00		 lea	 ecx, DWORD PTR [esi+356]
  0003d	c6 45 fc 01	 mov	 BYTE PTR __$EHRec$[ebp+8], 1
  00041	89 86 60 01 00
	00		 mov	 DWORD PTR [esi+352], eax
  00047	e8 00 00 00 00	 call	 ??4SettingOption@@QAEAAU0@ABU0@@Z

; 51   : }

  0004c	8b c6		 mov	 eax, esi
  0004e	e8 00 00 00 00	 call	 __EH_epilog3
  00053	c3		 ret	 0
_TEXT	ENDS
;	COMDAT text$x
text$x	SEGMENT
__unwindfunclet$??0GameOptionBasicWnd@@QAE@XZ$0:
  00000	8b 4d f0	 mov	 ecx, DWORD PTR _this$[ebp]
  00003	ff 25 00 00 00
	00		 jmp	 DWORD PTR __imp_??1ioWnd@@UAE@XZ
__unwindfunclet$??0GameOptionBasicWnd@@QAE@XZ$1:
  00009	8b 4d f0	 mov	 ecx, DWORD PTR _this$[ebp]
  0000c	81 c1 64 01 00
	00		 add	 ecx, 356		; 00000164H
  00012	e9 00 00 00 00	 jmp	 ??1SettingOption@@QAE@XZ
__ehhandler$??0GameOptionBasicWnd@@QAE@XZ:
  00017	8b 54 24 08	 mov	 edx, DWORD PTR [esp+8]
  0001b	8d 42 0c	 lea	 eax, DWORD PTR [edx+12]
  0001e	8b 4a ec	 mov	 ecx, DWORD PTR [edx-20]
  00021	33 c8		 xor	 ecx, eax
  00023	e8 00 00 00 00	 call	 @__security_check_cookie@4
  00028	b8 00 00 00 00	 mov	 eax, OFFSET __ehfuncinfo$??0GameOptionBasicWnd@@QAE@XZ
  0002d	e9 00 00 00 00	 jmp	 ___CxxFrameHandler3
text$x	ENDS
??0GameOptionBasicWnd@@QAE@XZ ENDP			; GameOptionBasicWnd::GameOptionBasicWnd
; Function compile flags: /Ogsp
;	COMDAT ??_GGameOptionBasicWnd@@UAEPAXI@Z
_TEXT	SEGMENT
___flags$ = 8						; size = 4
??_GGameOptionBasicWnd@@UAEPAXI@Z PROC			; GameOptionBasicWnd::`scalar deleting destructor', COMDAT
; _this$ = ecx
  00000	55		 push	 ebp
  00001	8b ec		 mov	 ebp, esp
  00003	56		 push	 esi
  00004	8b f1		 mov	 esi, ecx
  00006	e8 00 00 00 00	 call	 ??1GameOptionBasicWnd@@UAE@XZ ; GameOptionBasicWnd::~GameOptionBasicWnd
  0000b	f6 45 08 01	 test	 BYTE PTR ___flags$[ebp], 1
  0000f	74 07		 je	 SHORT $LN1@scalar@2
  00011	56		 push	 esi
  00012	e8 00 00 00 00	 call	 ??3@YAXPAX@Z		; operator delete
  00017	59		 pop	 ecx
$LN1@scalar@2:
  00018	8b c6		 mov	 eax, esi
  0001a	5e		 pop	 esi
  0001b	5d		 pop	 ebp
  0001c	c2 04 00	 ret	 4
??_GGameOptionBasicWnd@@UAEPAXI@Z ENDP			; GameOptionBasicWnd::`scalar deleting destructor'
_TEXT	ENDS
PUBLIC	?SaveCurrentSetting@GameOptionBasicWnd@@IAEX_N@Z ; GameOptionBasicWnd::SaveCurrentSetting
EXTRN	?SaveSetting@Setting@@SAXABVioHashString@@_N@Z:PROC ; Setting::SaveSetting
EXTRN	?GetSingleton@ioMyInfo@@SAAAV1@XZ:PROC		; ioMyInfo::GetSingleton
; Function compile flags: /Ogsp
;	COMDAT ?SaveCurrentSetting@GameOptionBasicWnd@@IAEX_N@Z
_TEXT	SEGMENT
_bExceptResolution$ = 8					; size = 1
?SaveCurrentSetting@GameOptionBasicWnd@@IAEX_N@Z PROC	; GameOptionBasicWnd::SaveCurrentSetting, COMDAT
; _this$ = ecx

; 108  : {

  00000	55		 push	 ebp
  00001	8b ec		 mov	 ebp, esp

; 109  : #ifdef SHIPPING
; 110  : 	Setting::SaveSetting( g_MyInfo.GetPublicID(), bExceptResolution );

  00003	e8 00 00 00 00	 call	 ?GetSingleton@ioMyInfo@@SAAAV1@XZ ; ioMyInfo::GetSingleton
  00008	ff 75 08	 push	 DWORD PTR _bExceptResolution$[ebp]
  0000b	83 c0 1c	 add	 eax, 28			; 0000001cH
  0000e	50		 push	 eax
  0000f	e8 00 00 00 00	 call	 ?SaveSetting@Setting@@SAXABVioHashString@@_N@Z ; Setting::SaveSetting
  00014	59		 pop	 ecx
  00015	59		 pop	 ecx

; 111  : #else
; 112  : 	if( !P2PNetwork::IsNetworkPlaying() )
; 113  : 		Setting::SaveSetting( "character1", bExceptResolution );
; 114  : 	else
; 115  : 		Setting::SaveSetting( g_MyInfo.GetPublicID(), bExceptResolution );
; 116  : #endif
; 117  : }

  00016	5d		 pop	 ebp
  00017	c2 04 00	 ret	 4
?SaveCurrentSetting@GameOptionBasicWnd@@IAEX_N@Z ENDP	; GameOptionBasicWnd::SaveCurrentSetting
; Function compile flags: /Ogsp
_TEXT	ENDS
;	COMDAT ?iwm_show@GameOptionBasicWnd@@UAEXXZ
_TEXT	SEGMENT
?iwm_show@GameOptionBasicWnd@@UAEXXZ PROC		; GameOptionBasicWnd::iwm_show, COMDAT
; _this$ = ecx

; 131  : 	m_DefaultSpec   = Setting::GetSpec();

  00000	a1 00 00 00 00	 mov	 eax, DWORD PTR ?m_DefaultSpec@Setting@@1W4Spec@1@A ; Setting::m_DefaultSpec
  00005	56		 push	 esi
  00006	8b f1		 mov	 esi, ecx

; 132  : 	m_CurrentOption = Setting::GetSettingOption();

  00008	68 00 00 00 00	 push	 OFFSET ?m_Option@Setting@@1USettingOption@@A ; Setting::m_Option
  0000d	8d 8e 64 01 00
	00		 lea	 ecx, DWORD PTR [esi+356]
  00013	89 86 60 01 00
	00		 mov	 DWORD PTR [esi+352], eax
  00019	e8 00 00 00 00	 call	 ??4SettingOption@@QAEAAU0@ABU0@@Z

; 133  : 
; 134  : 	UpdateByCurrentOption();

  0001e	8b 06		 mov	 eax, DWORD PTR [esi]
  00020	8b ce		 mov	 ecx, esi
  00022	5e		 pop	 esi
  00023	ff a0 30 01 00
	00		 jmp	 DWORD PTR [eax+304]
?iwm_show@GameOptionBasicWnd@@UAEXXZ ENDP		; GameOptionBasicWnd::iwm_show
_TEXT	ENDS
PUBLIC	??0GameOptionVolumeTab@@QAE@XZ			; GameOptionVolumeTab::GameOptionVolumeTab
; Function compile flags: /Ogsp
;	COMDAT ??0GameOptionVolumeTab@@QAE@XZ
_TEXT	SEGMENT
??0GameOptionVolumeTab@@QAE@XZ PROC			; GameOptionVolumeTab::GameOptionVolumeTab, COMDAT
; _this$ = ecx

; 139  : {

  00000	56		 push	 esi
  00001	8b f1		 mov	 esi, ecx
  00003	e8 00 00 00 00	 call	 ??0GameOptionBasicWnd@@QAE@XZ ; GameOptionBasicWnd::GameOptionBasicWnd

; 140  : 	m_iMicVolumePerMax = 0;

  00008	33 c0		 xor	 eax, eax
  0000a	89 86 10 02 00
	00		 mov	 DWORD PTR [esi+528], eax

; 141  : 	
; 142  : 	m_pIconBack	 = NULL;

  00010	89 86 04 02 00
	00		 mov	 DWORD PTR [esi+516], eax

; 143  : 	m_pIconVolume= NULL;	

  00016	89 86 08 02 00
	00		 mov	 DWORD PTR [esi+520], eax

; 144  : 	m_pIconMic	 = NULL;

  0001c	89 86 0c 02 00
	00		 mov	 DWORD PTR [esi+524], eax
  00022	c7 06 00 00 00
	00		 mov	 DWORD PTR [esi], OFFSET ??_7GameOptionVolumeTab@@6B@

; 145  : }

  00028	8b c6		 mov	 eax, esi
  0002a	5e		 pop	 esi
  0002b	c3		 ret	 0
??0GameOptionVolumeTab@@QAE@XZ ENDP			; GameOptionVolumeTab::GameOptionVolumeTab
; Function compile flags: /Ogsp
_TEXT	ENDS
;	COMDAT ??_GGameOptionVolumeTab@@UAEPAXI@Z
_TEXT	SEGMENT
___flags$ = 8						; size = 4
??_GGameOptionVolumeTab@@UAEPAXI@Z PROC			; GameOptionVolumeTab::`scalar deleting destructor', COMDAT
; _this$ = ecx
  00000	55		 push	 ebp
  00001	8b ec		 mov	 ebp, esp
  00003	56		 push	 esi
  00004	8b f1		 mov	 esi, ecx
  00006	e8 00 00 00 00	 call	 ??1GameOptionVolumeTab@@UAE@XZ ; GameOptionVolumeTab::~GameOptionVolumeTab
  0000b	f6 45 08 01	 test	 BYTE PTR ___flags$[ebp], 1
  0000f	74 07		 je	 SHORT $LN1@scalar@3
  00011	56		 push	 esi
  00012	e8 00 00 00 00	 call	 ??3@YAXPAX@Z		; operator delete
  00017	59		 pop	 ecx
$LN1@scalar@3:
  00018	8b c6		 mov	 eax, esi
  0001a	5e		 pop	 esi
  0001b	5d		 pop	 ebp
  0001c	c2 04 00	 ret	 4
??_GGameOptionVolumeTab@@UAEPAXI@Z ENDP			; GameOptionVolumeTab::`scalar deleting destructor'
_TEXT	ENDS
EXTRN	__imp_?SetVolumePiece@ioSoundManager@@QAEXH@Z:PROC
EXTRN	__imp_?SetRecoderVolumeValue@CVoiceChat@@QBE_NK@Z:PROC
EXTRN	__imp_?GetRecoderMinimum@CVoiceChat@@QAEHXZ:PROC
EXTRN	__imp_?SetAllVolume@CSoundPlayerManager@@QAEXH@Z:PROC
EXTRN	__imp_?GetInstance@CVoiceChat@@SAAAV1@XZ:PROC
EXTRN	__imp_?SetVolume3D@ioSoundManager@@QAEXH@Z:PROC
EXTRN	__imp_?SetVolumeNormal@ioSoundManager@@QAEXH@Z:PROC
EXTRN	__imp_?SetOggVolume@ioSoundManager@@QAEXH@Z:PROC
EXTRN	__imp_?SetVolumeStream@ioSoundManager@@QAEXH@Z:PROC
EXTRN	__imp_?GetSingleton@ioSoundManager@@SAAAV1@XZ:PROC
EXTRN	?GetDSVolume@Help@@YAHHW4VolumeType@1@@Z:PROC	; Help::GetDSVolume
; Function compile flags: /Ogsp
;	COMDAT ?iwm_vscroll@GameOptionVolumeTab@@UAEXKH@Z
_TEXT	SEGMENT
_dwID$ = 8						; size = 4
_curPos$ = 12						; size = 4
?iwm_vscroll@GameOptionVolumeTab@@UAEXKH@Z PROC		; GameOptionVolumeTab::iwm_vscroll, COMDAT
; _this$ = ecx

; 179  : {

  00000	55		 push	 ebp
  00001	8b ec		 mov	 ebp, esp

; 180  : 	//#define DSBVOLUME_MIN               -10000
; 181  : 	//#define DSBVOLUME_MAX               0
; 182  : 
; 183  : 	//   
; 184  : 	if(dwID == ID_HORZ_SCROLL_BGM)

  00003	8b 45 08	 mov	 eax, DWORD PTR _dwID$[ebp]
  00006	56		 push	 esi
  00007	57		 push	 edi
  00008	8b f1		 mov	 esi, ecx
  0000a	83 f8 01	 cmp	 eax, 1
  0000d	75 4b		 jne	 SHORT $LN14@iwm_vscrol

; 185  : 	{
; 186  : 		if(m_CurrentOption.m_bUseBGM) //     .

  0000f	80 be a4 01 00
	00 00		 cmp	 BYTE PTR [esi+420], 0
  00016	0f 84 29 01 00
	00		 je	 $LN1@iwm_vscrol

; 187  : 		{
; 188  : 			Setting::SetBGMVolume(curPos);

  0001c	8b 7d 0c	 mov	 edi, DWORD PTR _curPos$[ebp]

; 189  : 			g_SoundMgr.SetVolumeStream( Help::GetDSVolume(curPos, Help::VT_STREAM) );

  0001f	6a 03		 push	 3
  00021	57		 push	 edi
  00022	89 3d 30 00 00
	00		 mov	 DWORD PTR ?m_Option@Setting@@1USettingOption@@A+48, edi
  00028	e8 00 00 00 00	 call	 ?GetDSVolume@Help@@YAHHW4VolumeType@1@@Z ; Help::GetDSVolume
  0002d	8b 35 00 00 00
	00		 mov	 esi, DWORD PTR __imp_?GetSingleton@ioSoundManager@@SAAAV1@XZ
  00033	59		 pop	 ecx
  00034	59		 pop	 ecx
  00035	50		 push	 eax
  00036	ff d6		 call	 esi
  00038	8b c8		 mov	 ecx, eax
  0003a	ff 15 00 00 00
	00		 call	 DWORD PTR __imp_?SetVolumeStream@ioSoundManager@@QAEXH@Z

; 190  : 			g_SoundMgr.SetOggVolume( Help::GetDSVolume(curPos, Help::VT_STREAM) );

  00040	6a 03		 push	 3
  00042	57		 push	 edi
  00043	e8 00 00 00 00	 call	 ?GetDSVolume@Help@@YAHHW4VolumeType@1@@Z ; Help::GetDSVolume
  00048	59		 pop	 ecx
  00049	59		 pop	 ecx
  0004a	50		 push	 eax
  0004b	ff d6		 call	 esi
  0004d	8b c8		 mov	 ecx, eax
  0004f	ff 15 00 00 00
	00		 call	 DWORD PTR __imp_?SetOggVolume@ioSoundManager@@QAEXH@Z

; 191  : 		}
; 192  : 	}

  00055	e9 eb 00 00 00	 jmp	 $LN1@iwm_vscrol
$LN14@iwm_vscrol:

; 193  : 	else if(dwID == ID_HORZ_SCROLL_EFFECT)

  0005a	83 f8 02	 cmp	 eax, 2
  0005d	75 4b		 jne	 SHORT $LN11@iwm_vscrol

; 194  : 	{
; 195  : 		if( m_CurrentOption.m_bUseEffectSound )

  0005f	80 be a5 01 00
	00 00		 cmp	 BYTE PTR [esi+421], 0
  00066	0f 84 d9 00 00
	00		 je	 $LN1@iwm_vscrol

; 196  : 		{
; 197  : 			Setting::SetEffectSoundVolume(curPos);

  0006c	8b 7d 0c	 mov	 edi, DWORD PTR _curPos$[ebp]

; 198  : 			g_SoundMgr.SetVolumeNormal( Help::GetDSVolume(curPos, Help::VT_NORMAL) );

  0006f	6a 01		 push	 1
  00071	57		 push	 edi
  00072	89 3d 34 00 00
	00		 mov	 DWORD PTR ?m_Option@Setting@@1USettingOption@@A+52, edi
  00078	e8 00 00 00 00	 call	 ?GetDSVolume@Help@@YAHHW4VolumeType@1@@Z ; Help::GetDSVolume
  0007d	8b 35 00 00 00
	00		 mov	 esi, DWORD PTR __imp_?GetSingleton@ioSoundManager@@SAAAV1@XZ
  00083	59		 pop	 ecx
  00084	59		 pop	 ecx
  00085	50		 push	 eax
  00086	ff d6		 call	 esi
  00088	8b c8		 mov	 ecx, eax
  0008a	ff 15 00 00 00
	00		 call	 DWORD PTR __imp_?SetVolumeNormal@ioSoundManager@@QAEXH@Z

; 199  : 			g_SoundMgr.SetVolume3D ( Help::GetDSVolume(curPos, Help::VT_3D) );

  00090	6a 02		 push	 2
  00092	57		 push	 edi
  00093	e8 00 00 00 00	 call	 ?GetDSVolume@Help@@YAHHW4VolumeType@1@@Z ; Help::GetDSVolume
  00098	59		 pop	 ecx
  00099	59		 pop	 ecx
  0009a	50		 push	 eax
  0009b	ff d6		 call	 esi
  0009d	8b c8		 mov	 ecx, eax
  0009f	ff 15 00 00 00
	00		 call	 DWORD PTR __imp_?SetVolume3D@ioSoundManager@@QAEXH@Z

; 200  : 		}
; 201  : 	}

  000a5	e9 9b 00 00 00	 jmp	 $LN1@iwm_vscrol
$LN11@iwm_vscrol:

; 202  : 	else if(dwID == ID_HORZ_SCROLL_VOICE)

  000aa	83 f8 03	 cmp	 eax, 3
  000ad	75 30		 jne	 SHORT $LN8@iwm_vscrol

; 203  : 	{
; 204  : 		if( m_CurrentOption.m_bUseOtherVoiceChat )

  000af	80 be a6 01 00
	00 00		 cmp	 BYTE PTR [esi+422], 0
  000b6	0f 84 89 00 00
	00		 je	 $LN1@iwm_vscrol

; 205  : 		{
; 206  : 			Setting::SetVoiceVolume(curPos);

  000bc	8b 45 0c	 mov	 eax, DWORD PTR _curPos$[ebp]

; 207  : 			g_VoiceChat.SetAllVolume( Help::GetDSVolume(curPos, Help::VT_NONE) );

  000bf	6a 00		 push	 0
  000c1	50		 push	 eax
  000c2	a3 38 00 00 00	 mov	 DWORD PTR ?m_Option@Setting@@1USettingOption@@A+56, eax
  000c7	e8 00 00 00 00	 call	 ?GetDSVolume@Help@@YAHHW4VolumeType@1@@Z ; Help::GetDSVolume
  000cc	59		 pop	 ecx
  000cd	59		 pop	 ecx
  000ce	50		 push	 eax
  000cf	ff 15 00 00 00
	00		 call	 DWORD PTR __imp_?GetInstance@CVoiceChat@@SAAAV1@XZ
  000d5	8b c8		 mov	 ecx, eax
  000d7	ff 15 00 00 00
	00		 call	 DWORD PTR __imp_?SetAllVolume@CSoundPlayerManager@@QAEXH@Z

; 208  : 		}
; 209  : 	}

  000dd	eb 66		 jmp	 SHORT $LN1@iwm_vscrol
$LN8@iwm_vscrol:

; 210  : 	else if(dwID==ID_HORZ_SCROLL_MIC) //       .

  000df	83 f8 04	 cmp	 eax, 4
  000e2	75 32		 jne	 SHORT $LN5@iwm_vscrol

; 211  : 	{
; 212  : 		if(m_CurrentOption.m_bUseMIC)

  000e4	80 be a7 01 00
	00 00		 cmp	 BYTE PTR [esi+423], 0
  000eb	74 58		 je	 SHORT $LN1@iwm_vscrol

; 213  : 		{
; 214  : 			int dwVolume = g_VoiceChat.GetRecoderMinimum() + ( m_iMicVolumePerMax * curPos);

  000ed	8b 3d 00 00 00
	00		 mov	 edi, DWORD PTR __imp_?GetInstance@CVoiceChat@@SAAAV1@XZ
  000f3	ff d7		 call	 edi
  000f5	8b c8		 mov	 ecx, eax
  000f7	ff 15 00 00 00
	00		 call	 DWORD PTR __imp_?GetRecoderMinimum@CVoiceChat@@QAEHXZ
  000fd	8b 8e 10 02 00
	00		 mov	 ecx, DWORD PTR [esi+528]
  00103	0f af 4d 0c	 imul	 ecx, DWORD PTR _curPos$[ebp]
  00107	03 c1		 add	 eax, ecx

; 215  : 			g_VoiceChat.SetRecoderVolumeValue(dwVolume);

  00109	50		 push	 eax
  0010a	ff d7		 call	 edi
  0010c	8b c8		 mov	 ecx, eax
  0010e	ff 15 00 00 00
	00		 call	 DWORD PTR __imp_?SetRecoderVolumeValue@CVoiceChat@@QBE_NK@Z

; 216  : 		}
; 217  : 	}

  00114	eb 2f		 jmp	 SHORT $LN1@iwm_vscrol
$LN5@iwm_vscrol:

; 218  : 	else if( dwID == ID_HORZ_SCROLL_CUSTOM )

  00116	83 f8 0d	 cmp	 eax, 13			; 0000000dH
  00119	75 2a		 jne	 SHORT $LN1@iwm_vscrol

; 219  : 	{
; 220  : 		if( m_CurrentOption.m_bUseCustomSound )

  0011b	80 be a9 01 00
	00 00		 cmp	 BYTE PTR [esi+425], 0
  00122	74 21		 je	 SHORT $LN1@iwm_vscrol

; 221  : 		{
; 222  : 			Setting::SetCustomSoundVolume( curPos );

  00124	8b 45 0c	 mov	 eax, DWORD PTR _curPos$[ebp]

; 223  : 			g_SoundMgr.SetVolumePiece( Help::GetDSVolume( curPos, Help::VT_NONE ));

  00127	6a 00		 push	 0
  00129	50		 push	 eax
  0012a	a3 3c 00 00 00	 mov	 DWORD PTR ?m_Option@Setting@@1USettingOption@@A+60, eax
  0012f	e8 00 00 00 00	 call	 ?GetDSVolume@Help@@YAHHW4VolumeType@1@@Z ; Help::GetDSVolume
  00134	59		 pop	 ecx
  00135	59		 pop	 ecx
  00136	50		 push	 eax
  00137	ff 15 00 00 00
	00		 call	 DWORD PTR __imp_?GetSingleton@ioSoundManager@@SAAAV1@XZ
  0013d	8b c8		 mov	 ecx, eax
  0013f	ff 15 00 00 00
	00		 call	 DWORD PTR __imp_?SetVolumePiece@ioSoundManager@@QAEXH@Z
$LN1@iwm_vscrol:
  00145	5f		 pop	 edi
  00146	5e		 pop	 esi

; 224  : 		}
; 225  : 	}
; 226  : }

  00147	5d		 pop	 ebp
  00148	c2 08 00	 ret	 8
?iwm_vscroll@GameOptionVolumeTab@@UAEXKH@Z ENDP		; GameOptionVolumeTab::iwm_vscroll
_TEXT	ENDS
PUBLIC	??_C@_0BO@FKBNCNIL@GameOptionVolumeTab?3?3iwm_show?$AA@ ; `string'
EXTRN	?GetBlockType@ioMyInfo@@QBE?AW4BlockType@@XZ:PROC ; ioMyInfo::GetBlockType
EXTRN	?IsObserverUser@ioBattleRoomMgr@@QAE_NABVioHashString@@@Z:PROC ; ioBattleRoomMgr::IsObserverUser
EXTRN	?GetSingleton@ioBattleRoomMgr@@SAAAV1@XZ:PROC	; ioBattleRoomMgr::GetSingleton
EXTRN	__imp_?GetRecoderVolumeValue@CVoiceChat@@QBE_NAAK@Z:PROC
EXTRN	__imp_?GetRecoderMaximum@CVoiceChat@@QAEHXZ:PROC
EXTRN	__imp_?IsWorkRecordVolume@CVoiceChat@@QBE_NXZ:PROC
;	COMDAT ??_C@_0BO@FKBNCNIL@GameOptionVolumeTab?3?3iwm_show?$AA@
; File d:\lost saga for developer\youtube\tutorial\source\src\lsclient\iomyinfo.h
CONST	SEGMENT
??_C@_0BO@FKBNCNIL@GameOptionVolumeTab?3?3iwm_show?$AA@ DB 'GameOptionVol'
	DB	'umeTab::iwm_show', 00H			; `string'
; Function compile flags: /Ogsp
; File d:\lost saga for developer\youtube\tutorial\source\src\lsclient\gui\gameoptionwnd.cpp
CONST	ENDS
;	COMDAT ?iwm_show@GameOptionVolumeTab@@UAEXXZ
_TEXT	SEGMENT
tv344 = -8						; size = 4
_pScroll$535187 = -8					; size = 4
_dwVolume$535190 = -4					; size = 4
?iwm_show@GameOptionVolumeTab@@UAEXXZ PROC		; GameOptionVolumeTab::iwm_show, COMDAT
; _this$ = ecx

; 229  : {

  00000	55		 push	 ebp
  00001	8b ec		 mov	 ebp, esp
  00003	51		 push	 ecx
  00004	51		 push	 ecx

; 230  : 	m_DefaultSpec   = Setting::GetSpec();

  00005	a1 00 00 00 00	 mov	 eax, DWORD PTR ?m_DefaultSpec@Setting@@1W4Spec@1@A ; Setting::m_DefaultSpec
  0000a	53		 push	 ebx
  0000b	56		 push	 esi
  0000c	57		 push	 edi
  0000d	8b f9		 mov	 edi, ecx

; 231  : 	m_CurrentOption = Setting::GetSettingOption();

  0000f	68 00 00 00 00	 push	 OFFSET ?m_Option@Setting@@1USettingOption@@A ; Setting::m_Option
  00014	8d 8f 64 01 00
	00		 lea	 ecx, DWORD PTR [edi+356]
  0001a	89 87 60 01 00
	00		 mov	 DWORD PTR [edi+352], eax
  00020	e8 00 00 00 00	 call	 ??4SettingOption@@QAEAAU0@ABU0@@Z

; 232  : 
; 233  : 	// scroll setting
; 234  : 	ioScroll *pScroll = (ioScroll*)FindChildWnd( ID_HORZ_SCROLL_BGM );

  00025	8b 1d 00 00 00
	00		 mov	 ebx, DWORD PTR __imp_?FindChildWnd@ioWnd@@QAEPAV1@K@Z
  0002b	6a 01		 push	 1
  0002d	8b cf		 mov	 ecx, edi
  0002f	ff d3		 call	 ebx
  00031	8b f0		 mov	 esi, eax

; 235  : 	if( pScroll )

  00033	85 f6		 test	 esi, esi
  00035	74 1e		 je	 SHORT $LN31@iwm_show@2

; 236  : 	{
; 237  : 		pScroll->SetScrollRange( 0, Help::MAX_VOLUME ); 

  00037	8b 06		 mov	 eax, DWORD PTR [esi]
  00039	6a 0a		 push	 10			; 0000000aH
  0003b	6a 00		 push	 0
  0003d	8b ce		 mov	 ecx, esi
  0003f	ff 90 30 01 00
	00		 call	 DWORD PTR [eax+304]

; 238  : 		pScroll->SetScrollPos( Setting::GetBGMVolume());

  00045	ff 35 30 00 00
	00		 push	 DWORD PTR ?m_Option@Setting@@1USettingOption@@A+48
  0004b	8b 06		 mov	 eax, DWORD PTR [esi]
  0004d	8b ce		 mov	 ecx, esi
  0004f	ff 90 38 01 00
	00		 call	 DWORD PTR [eax+312]
$LN31@iwm_show@2:

; 239  : 	}
; 240  : 
; 241  : 	pScroll = (ioScroll*)FindChildWnd( ID_HORZ_SCROLL_EFFECT );

  00055	6a 02		 push	 2
  00057	8b cf		 mov	 ecx, edi
  00059	ff d3		 call	 ebx
  0005b	8b f0		 mov	 esi, eax

; 242  : 	if( pScroll )

  0005d	85 f6		 test	 esi, esi
  0005f	74 1e		 je	 SHORT $LN33@iwm_show@2

; 243  : 	{
; 244  : 		pScroll->SetScrollRange( 0, Help::MAX_VOLUME ); 

  00061	8b 06		 mov	 eax, DWORD PTR [esi]
  00063	6a 0a		 push	 10			; 0000000aH
  00065	6a 00		 push	 0
  00067	8b ce		 mov	 ecx, esi
  00069	ff 90 30 01 00
	00		 call	 DWORD PTR [eax+304]

; 245  : 		pScroll->SetScrollPos( Setting::GetEffectSoundVolume());

  0006f	ff 35 34 00 00
	00		 push	 DWORD PTR ?m_Option@Setting@@1USettingOption@@A+52
  00075	8b 06		 mov	 eax, DWORD PTR [esi]
  00077	8b ce		 mov	 ecx, esi
  00079	ff 90 38 01 00
	00		 call	 DWORD PTR [eax+312]
$LN33@iwm_show@2:

; 246  : 	}
; 247  : 
; 248  : 	pScroll = (ioScroll*)FindChildWnd( ID_HORZ_SCROLL_VOICE );

  0007f	6a 03		 push	 3
  00081	8b cf		 mov	 ecx, edi
  00083	ff d3		 call	 ebx
  00085	8b f0		 mov	 esi, eax

; 249  : 	if( pScroll )

  00087	85 f6		 test	 esi, esi
  00089	74 1e		 je	 SHORT $LN12@iwm_show@2

; 250  : 	{
; 251  : 		pScroll->SetScrollRange( 0, Help::MAX_VOLUME ); 

  0008b	8b 06		 mov	 eax, DWORD PTR [esi]
  0008d	6a 0a		 push	 10			; 0000000aH
  0008f	6a 00		 push	 0
  00091	8b ce		 mov	 ecx, esi
  00093	ff 90 30 01 00
	00		 call	 DWORD PTR [eax+304]

; 252  : 		pScroll->SetScrollPos( Setting::GetVoiceVolume());

  00099	ff 35 38 00 00
	00		 push	 DWORD PTR ?m_Option@Setting@@1USettingOption@@A+56
  0009f	8b 06		 mov	 eax, DWORD PTR [esi]
  000a1	8b ce		 mov	 ecx, esi
  000a3	ff 90 38 01 00
	00		 call	 DWORD PTR [eax+312]
$LN12@iwm_show@2:

; 253  : 	}
; 254  : 
; 255  : 	pScroll = (ioScroll*)FindChildWnd( ID_HORZ_SCROLL_CUSTOM );

  000a9	6a 0d		 push	 13			; 0000000dH
  000ab	8b cf		 mov	 ecx, edi
  000ad	ff d3		 call	 ebx
  000af	8b f0		 mov	 esi, eax

; 256  : 	if( pScroll )

  000b1	85 f6		 test	 esi, esi
  000b3	74 1e		 je	 SHORT $LN11@iwm_show@2

; 257  : 	{
; 258  : 		pScroll->SetScrollRange( 0, Help::MAX_VOLUME ); 

  000b5	8b 06		 mov	 eax, DWORD PTR [esi]
  000b7	6a 0a		 push	 10			; 0000000aH
  000b9	6a 00		 push	 0
  000bb	8b ce		 mov	 ecx, esi
  000bd	ff 90 30 01 00
	00		 call	 DWORD PTR [eax+304]

; 259  : 		pScroll->SetScrollPos( Setting::GetCustomSoundVolume());

  000c3	ff 35 3c 00 00
	00		 push	 DWORD PTR ?m_Option@Setting@@1USettingOption@@A+60
  000c9	8b 06		 mov	 eax, DWORD PTR [esi]
  000cb	8b ce		 mov	 ecx, esi
  000cd	ff 90 38 01 00
	00		 call	 DWORD PTR [eax+312]
$LN11@iwm_show@2:

; 260  : 	}
; 261  : 
; 262  : 
; 263  : 	if(g_VoiceChat.IsWorkRecordVolume())

  000d3	8b 35 00 00 00
	00		 mov	 esi, DWORD PTR __imp_?GetInstance@CVoiceChat@@SAAAV1@XZ
  000d9	ff d6		 call	 esi
  000db	8b c8		 mov	 ecx, eax
  000dd	ff 15 00 00 00
	00		 call	 DWORD PTR __imp_?IsWorkRecordVolume@CVoiceChat@@QBE_NXZ

; 264  : 	{
; 265  : 		ioScroll *pScroll = (ioScroll*)FindChildWnd( ID_HORZ_SCROLL_MIC );

  000e3	8b cf		 mov	 ecx, edi
  000e5	84 c0		 test	 al, al
  000e7	0f 84 bc 00 00
	00		 je	 $LN10@iwm_show@2
  000ed	6a 04		 push	 4
  000ef	ff d3		 call	 ebx
  000f1	89 45 f8	 mov	 DWORD PTR _pScroll$535187[ebp], eax

; 266  : 		if( pScroll )

  000f4	85 c0		 test	 eax, eax
  000f6	74 72		 je	 SHORT $LN32@iwm_show@2

; 267  : 		{
; 268  : 			pScroll->SetScrollRange( 0, Help::MAX_VOLUME ); 

  000f8	8b 10		 mov	 edx, DWORD PTR [eax]
  000fa	6a 0a		 push	 10			; 0000000aH
  000fc	6a 00		 push	 0
  000fe	8b c8		 mov	 ecx, eax
  00100	ff 92 30 01 00
	00		 call	 DWORD PTR [edx+304]

; 269  : 
; 270  : 			m_iMicVolumePerMax = (g_VoiceChat.GetRecoderMaximum() - g_VoiceChat.GetRecoderMinimum()) 
; 271  : 				/ (Help::MAX_VOLUME-1);

  00106	ff d6		 call	 esi
  00108	8b c8		 mov	 ecx, eax
  0010a	ff 15 00 00 00
	00		 call	 DWORD PTR __imp_?GetRecoderMinimum@CVoiceChat@@QAEHXZ
  00110	8b d8		 mov	 ebx, eax
  00112	ff d6		 call	 esi
  00114	8b c8		 mov	 ecx, eax
  00116	ff 15 00 00 00
	00		 call	 DWORD PTR __imp_?GetRecoderMaximum@CVoiceChat@@QAEHXZ
  0011c	2b c3		 sub	 eax, ebx
  0011e	99		 cdq
  0011f	6a 09		 push	 9
  00121	59		 pop	 ecx
  00122	f7 f9		 idiv	 ecx

; 272  : 			DWORD dwVolume = 0;

  00124	83 65 fc 00	 and	 DWORD PTR _dwVolume$535190[ebp], 0
  00128	89 87 10 02 00
	00		 mov	 DWORD PTR [edi+528], eax

; 273  : 			g_VoiceChat.GetRecoderVolumeValue(dwVolume);

  0012e	8d 45 fc	 lea	 eax, DWORD PTR _dwVolume$535190[ebp]
  00131	50		 push	 eax
  00132	ff d6		 call	 esi
  00134	8b c8		 mov	 ecx, eax
  00136	ff 15 00 00 00
	00		 call	 DWORD PTR __imp_?GetRecoderVolumeValue@CVoiceChat@@QBE_NAAK@Z

; 274  : 			pScroll->SetScrollPos( (dwVolume+g_VoiceChat.GetRecoderMinimum()) % (Help::MAX_VOLUME));

  0013c	8b 5d f8	 mov	 ebx, DWORD PTR _pScroll$535187[ebp]
  0013f	8b 03		 mov	 eax, DWORD PTR [ebx]
  00141	89 45 f8	 mov	 DWORD PTR tv344[ebp], eax
  00144	ff d6		 call	 esi
  00146	8b c8		 mov	 ecx, eax
  00148	ff 15 00 00 00
	00		 call	 DWORD PTR __imp_?GetRecoderMinimum@CVoiceChat@@QAEHXZ
  0014e	03 45 fc	 add	 eax, DWORD PTR _dwVolume$535190[ebp]
  00151	6a 0a		 push	 10			; 0000000aH
  00153	59		 pop	 ecx
  00154	33 d2		 xor	 edx, edx
  00156	f7 f1		 div	 ecx
  00158	8b 45 f8	 mov	 eax, DWORD PTR tv344[ebp]
  0015b	8b cb		 mov	 ecx, ebx
  0015d	52		 push	 edx
  0015e	ff 90 38 01 00
	00		 call	 DWORD PTR [eax+312]

; 275  : 		}
; 276  : 	}
; 277  : 	else

  00164	8b 1d 00 00 00
	00		 mov	 ebx, DWORD PTR __imp_?FindChildWnd@ioWnd@@QAEPAV1@K@Z
$LN32@iwm_show@2:
  0016a	8b 35 00 00 00
	00		 mov	 esi, DWORD PTR __imp_?SetChildInActive@ioWnd@@QAEXK@Z
$LN8@iwm_show@2:

; 281  : 	}
; 282  : 	//
; 283  : 
; 284  : 	ioWnd *pWnd = dynamic_cast<ioWnd*> ( FindChildWnd(ID_VOICE_CHAT) );

  00170	6a 0c		 push	 12			; 0000000cH
  00172	8b cf		 mov	 ecx, edi
  00174	ff d3		 call	 ebx
  00176	8b d8		 mov	 ebx, eax

; 285  : 	if( g_BattleRoomMgr.IsObserverUser( g_MyInfo.GetPublicID() ) )

  00178	e8 00 00 00 00	 call	 ?GetSingleton@ioMyInfo@@SAAAV1@XZ ; ioMyInfo::GetSingleton
  0017d	83 c0 1c	 add	 eax, 28			; 0000001cH
  00180	50		 push	 eax
  00181	e8 00 00 00 00	 call	 ?GetSingleton@ioBattleRoomMgr@@SAAAV1@XZ ; ioBattleRoomMgr::GetSingleton
  00186	8b c8		 mov	 ecx, eax
  00188	e8 00 00 00 00	 call	 ?IsObserverUser@ioBattleRoomMgr@@QAE_NABVioHashString@@@Z ; ioBattleRoomMgr::IsObserverUser
  0018d	84 c0		 test	 al, al
  0018f	74 2a		 je	 SHORT $LN7@iwm_show@2

; 286  : 	{
; 287  : 		SetChildInActive( ID_VOICE_CHAT );

  00191	6a 0c		 push	 12			; 0000000cH
  00193	8b cf		 mov	 ecx, edi
  00195	ff d6		 call	 esi

; 288  : 		if(pWnd)

  00197	85 db		 test	 ebx, ebx
  00199	74 7c		 je	 SHORT $LN1@iwm_show@2

; 289  : 		{
; 290  : 			pWnd->SetTitleText(STR(1));

  0019b	6a 00		 push	 0
  0019d	b8 00 00 00 00	 mov	 eax, OFFSET ??_C@_00CNPNBAHC@?$AA@
  001a2	50		 push	 eax
  001a3	6a 00		 push	 0
  001a5	6a 01		 push	 1

; 291  : 		}
; 292  : 	}

  001a7	eb 51		 jmp	 SHORT $LN34@iwm_show@2
$LN10@iwm_show@2:

; 278  : 	{
; 279  : 		SetChildInActive(ID_MIC_BUTTON);

  001a9	8b 35 00 00 00
	00		 mov	 esi, DWORD PTR __imp_?SetChildInActive@ioWnd@@QAEXK@Z
  001af	6a 08		 push	 8
  001b1	ff d6		 call	 esi

; 280  : 		SetChildInActive(ID_HORZ_SCROLL_MIC);

  001b3	6a 04		 push	 4
  001b5	8b cf		 mov	 ecx, edi
  001b7	ff d6		 call	 esi
  001b9	eb b5		 jmp	 SHORT $LN8@iwm_show@2
$LN7@iwm_show@2:

; 293  : 	else if( g_MyInfo.GetBlockType() == BKT_LIMITATION )

  001bb	e8 00 00 00 00	 call	 ?GetSingleton@ioMyInfo@@SAAAV1@XZ ; ioMyInfo::GetSingleton
  001c0	8b c8		 mov	 ecx, eax
  001c2	e8 00 00 00 00	 call	 ?GetBlockType@ioMyInfo@@QBE?AW4BlockType@@XZ ; ioMyInfo::GetBlockType

; 294  : 	{
; 295  : 		SetChildInActive( ID_VOICE_CHAT );

  001c7	6a 0c		 push	 12			; 0000000cH
  001c9	8b cf		 mov	 ecx, edi
  001cb	83 f8 14	 cmp	 eax, 20			; 00000014H
  001ce	75 14		 jne	 SHORT $LN4@iwm_show@2
  001d0	ff d6		 call	 esi

; 296  : 		if(pWnd)

  001d2	85 db		 test	 ebx, ebx
  001d4	74 41		 je	 SHORT $LN1@iwm_show@2

; 297  : 		{
; 298  : 			pWnd->SetTitleText(STR(2));

  001d6	6a 00		 push	 0
  001d8	b8 00 00 00 00	 mov	 eax, OFFSET ??_C@_00CNPNBAHC@?$AA@
  001dd	50		 push	 eax
  001de	6a 00		 push	 0
  001e0	6a 02		 push	 2

; 299  : 		}
; 300  : 	}
; 301  : 	else

  001e2	eb 16		 jmp	 SHORT $LN34@iwm_show@2
$LN4@iwm_show@2:

; 302  : 	{
; 303  : 		SetChildActive( ID_VOICE_CHAT );

  001e4	ff 15 00 00 00
	00		 call	 DWORD PTR __imp_?SetChildActive@ioWnd@@QAEXK@Z

; 304  : 		if(pWnd)

  001ea	85 db		 test	 ebx, ebx
  001ec	74 29		 je	 SHORT $LN1@iwm_show@2

; 305  : 		{
; 306  : 			pWnd->SetTitleText( STR(3) );

  001ee	6a 00		 push	 0
  001f0	b8 00 00 00 00	 mov	 eax, OFFSET ??_C@_00CNPNBAHC@?$AA@
  001f5	50		 push	 eax
  001f6	6a 00		 push	 0
  001f8	6a 03		 push	 3
$LN34@iwm_show@2:
  001fa	50		 push	 eax
  001fb	68 00 00 00 00	 push	 OFFSET ??_C@_0BO@FKBNCNIL@GameOptionVolumeTab?3?3iwm_show?$AA@
  00200	ff 15 00 00 00
	00		 call	 DWORD PTR __imp_?GetSingleton@ioStringManager@@SAAAV1@XZ
  00206	8b c8		 mov	 ecx, eax
  00208	ff 15 00 00 00
	00		 call	 DWORD PTR __imp_?GetString@ioStringManager@@QAEPADPBD0HW4FileNamePrefix@1@@Z
  0020e	50		 push	 eax
  0020f	8b cb		 mov	 ecx, ebx
  00211	ff 15 00 00 00
	00		 call	 DWORD PTR __imp_?SetTitleText@ioWnd@@QAEXPBD0H@Z
$LN1@iwm_show@2:

; 307  : 		}
; 308  : 	}
; 309  : 	
; 310  : 	SetChildInActive( ID_APPLY );

  00217	6a 0b		 push	 11			; 0000000bH
  00219	8b cf		 mov	 ecx, edi
  0021b	ff d6		 call	 esi

; 311  : 	UpdateByCurrentOption();

  0021d	8b 07		 mov	 eax, DWORD PTR [edi]
  0021f	8b cf		 mov	 ecx, edi
  00221	ff 90 30 01 00
	00		 call	 DWORD PTR [eax+304]
  00227	5f		 pop	 edi
  00228	5e		 pop	 esi
  00229	5b		 pop	 ebx

; 312  : }

  0022a	c9		 leave
  0022b	c3		 ret	 0
?iwm_show@GameOptionVolumeTab@@UAEXXZ ENDP		; GameOptionVolumeTab::iwm_show
; Function compile flags: /Ogsp
_TEXT	ENDS
;	COMDAT ?iwm_create@GameOptionVolumeTab@@UAEXXZ
_TEXT	SEGMENT
?iwm_create@GameOptionVolumeTab@@UAEXXZ PROC		; GameOptionVolumeTab::iwm_create, COMDAT
; _this$ = ecx

; 488  : 	if( g_MyInfo.GetBlockType() == BKT_LIMITATION )

  00000	e8 00 00 00 00	 call	 ?GetSingleton@ioMyInfo@@SAAAV1@XZ ; ioMyInfo::GetSingleton
  00005	8b c8		 mov	 ecx, eax
  00007	e8 00 00 00 00	 call	 ?GetBlockType@ioMyInfo@@QBE?AW4BlockType@@XZ ; ioMyInfo::GetBlockType
  0000c	83 f8 14	 cmp	 eax, 20			; 00000014H
  0000f	75 07		 jne	 SHORT $LN4@iwm_create

; 489  : 		Setting::SetUseVoiceChat( false );

  00011	c6 05 44 00 00
	00 00		 mov	 BYTE PTR ?m_Option@Setting@@1USettingOption@@A+68, 0
$LN4@iwm_create:

; 490  : }

  00018	c3		 ret	 0
?iwm_create@GameOptionVolumeTab@@UAEXXZ ENDP		; GameOptionVolumeTab::iwm_create
; Function compile flags: /Ogsp
_TEXT	ENDS
;	COMDAT ??_GGameSpecRadioBtn@@UAEPAXI@Z
_TEXT	SEGMENT
___flags$ = 8						; size = 4
??_GGameSpecRadioBtn@@UAEPAXI@Z PROC			; GameSpecRadioBtn::`scalar deleting destructor', COMDAT
; _this$ = ecx
  00000	55		 push	 ebp
  00001	8b ec		 mov	 ebp, esp
  00003	56		 push	 esi
  00004	8b f1		 mov	 esi, ecx
  00006	e8 00 00 00 00	 call	 ??1GameSpecRadioBtn@@UAE@XZ ; GameSpecRadioBtn::~GameSpecRadioBtn
  0000b	f6 45 08 01	 test	 BYTE PTR ___flags$[ebp], 1
  0000f	74 07		 je	 SHORT $LN1@scalar@4
  00011	56		 push	 esi
  00012	e8 00 00 00 00	 call	 ??3@YAXPAX@Z		; operator delete
  00017	59		 pop	 ecx
$LN1@scalar@4:
  00018	8b c6		 mov	 eax, esi
  0001a	5e		 pop	 esi
  0001b	5d		 pop	 ebp
  0001c	c2 04 00	 ret	 4
??_GGameSpecRadioBtn@@UAEPAXI@Z ENDP			; GameSpecRadioBtn::`scalar deleting destructor'
_TEXT	ENDS
EXTRN	__imp_?GetParent@ioWnd@@QAEPAV1@XZ:PROC
EXTRN	__imp_?IsExDisabled@ioButton@@QBE_NXZ:PROC
EXTRN	__imp_?IsDisabled@ioButton@@QBE_NXZ:PROC
EXTRN	__imp_?OnRender@ioButton@@MAEXXZ:PROC
; Function compile flags: /Ogsp
;	COMDAT ?OnRender@GameSpecRadioBtn@@MAEXXZ
_TEXT	SEGMENT
?OnRender@GameSpecRadioBtn@@MAEXXZ PROC			; GameSpecRadioBtn::OnRender, COMDAT
; _this$ = ecx

; 560  : {

  00000	56		 push	 esi
  00001	8b f1		 mov	 esi, ecx

; 561  : 	ioButton::OnRender();

  00003	ff 15 00 00 00
	00		 call	 DWORD PTR __imp_?OnRender@ioButton@@MAEXXZ

; 562  : 
; 563  : 	if( IsDisabled() || IsExDisabled() )

  00009	8b ce		 mov	 ecx, esi
  0000b	ff 15 00 00 00
	00		 call	 DWORD PTR __imp_?IsDisabled@ioButton@@QBE_NXZ
  00011	84 c0		 test	 al, al
  00013	0f 85 94 00 00
	00		 jne	 $LN3@OnRender@3
  00019	8b ce		 mov	 ecx, esi
  0001b	ff 15 00 00 00
	00		 call	 DWORD PTR __imp_?IsExDisabled@ioButton@@QBE_NXZ
  00021	84 c0		 test	 al, al
  00023	0f 85 84 00 00
	00		 jne	 $LN3@OnRender@3

; 564  : 		return;
; 565  : 
; 566  : 	GameOptionSpecTab *pParent = dynamic_cast<GameOptionSpecTab*>( GetParent() );

  00029	53		 push	 ebx
  0002a	57		 push	 edi
  0002b	33 db		 xor	 ebx, ebx
  0002d	53		 push	 ebx
  0002e	68 00 00 00 00	 push	 OFFSET ??_R0?AVGameOptionSpecTab@@@8
  00033	68 00 00 00 00	 push	 OFFSET ??_R0?AVioWnd@@@8
  00038	53		 push	 ebx
  00039	8b ce		 mov	 ecx, esi
  0003b	ff 15 00 00 00
	00		 call	 DWORD PTR __imp_?GetParent@ioWnd@@QAEPAV1@XZ
  00041	50		 push	 eax
  00042	e8 00 00 00 00	 call	 ___RTDynamicCast
  00047	8b f8		 mov	 edi, eax
  00049	83 c4 14	 add	 esp, 20			; 00000014H

; 567  : 	if( pParent && pParent->GetDefaultSpecButtonID() == GetID() )

  0004c	3b fb		 cmp	 edi, ebx
  0004e	74 5b		 je	 SHORT $LN7@OnRender@3
  00050	8b ce		 mov	 ecx, esi
  00052	ff 15 00 00 00
	00		 call	 DWORD PTR __imp_?GetID@ioWnd@@QBEKXZ
  00058	8b cf		 mov	 ecx, edi
  0005a	8b d0		 mov	 edx, eax
  0005c	e8 00 00 00 00	 call	 ?GetDefaultSpecButtonID@GameOptionSpecTab@@QAEKXZ ; GameOptionSpecTab::GetDefaultSpecButtonID
  00061	3b c2		 cmp	 eax, edx
  00063	75 46		 jne	 SHORT $LN7@OnRender@3

; 568  : 	{
; 569  : 		if( m_pChecked )

  00065	39 9e fc 01 00
	00		 cmp	 DWORD PTR [esi+508], ebx
  0006b	74 3e		 je	 SHORT $LN7@OnRender@3

; 570  : 			m_pChecked->Render( GetDerivedPosX(), GetDerivedPosY() );

  0006d	8b 86 fc 01 00
	00		 mov	 eax, DWORD PTR [esi+508]
  00073	8b 38		 mov	 edi, DWORD PTR [eax]
  00075	53		 push	 ebx
  00076	53		 push	 ebx
  00077	53		 push	 ebx
  00078	53		 push	 ebx
  00079	8b ce		 mov	 ecx, esi
  0007b	ff 15 00 00 00
	00		 call	 DWORD PTR __imp_?GetDerivedPosY@ioWnd@@QBEHXZ
  00081	51		 push	 ecx
  00082	0f 57 c0	 xorps	 xmm0, xmm0
  00085	f3 0f 2a c0	 cvtsi2ss xmm0, eax
  00089	8b ce		 mov	 ecx, esi
  0008b	f3 0f 11 04 24	 movss	 DWORD PTR [esp], xmm0
  00090	ff 15 00 00 00
	00		 call	 DWORD PTR __imp_?GetDerivedPosX@ioWnd@@QBEHXZ
  00096	51		 push	 ecx
  00097	8b 8e fc 01 00
	00		 mov	 ecx, DWORD PTR [esi+508]
  0009d	0f 57 c0	 xorps	 xmm0, xmm0
  000a0	f3 0f 2a c0	 cvtsi2ss xmm0, eax
  000a4	f3 0f 11 04 24	 movss	 DWORD PTR [esp], xmm0
  000a9	ff 17		 call	 DWORD PTR [edi]
$LN7@OnRender@3:
  000ab	5f		 pop	 edi
  000ac	5b		 pop	 ebx
$LN3@OnRender@3:
  000ad	5e		 pop	 esi

; 571  : 	}
; 572  : }

  000ae	c3		 ret	 0
?OnRender@GameSpecRadioBtn@@MAEXXZ ENDP			; GameSpecRadioBtn::OnRender
_TEXT	ENDS
PUBLIC	??0GameOptionSpecTab@@QAE@XZ			; GameOptionSpecTab::GameOptionSpecTab
; Function compile flags: /Ogsp
;	COMDAT ??0GameOptionSpecTab@@QAE@XZ
_TEXT	SEGMENT
??0GameOptionSpecTab@@QAE@XZ PROC			; GameOptionSpecTab::GameOptionSpecTab, COMDAT
; _this$ = ecx

; 575  : {

  00000	56		 push	 esi
  00001	8b f1		 mov	 esi, ecx
  00003	e8 00 00 00 00	 call	 ??0GameOptionBasicWnd@@QAE@XZ ; GameOptionBasicWnd::GameOptionBasicWnd

; 576  : 	m_iRestoreWidth  = 0;

  00008	33 c0		 xor	 eax, eax
  0000a	89 86 08 02 00
	00		 mov	 DWORD PTR [esi+520], eax

; 577  : 	m_iRestoreHeight = 0;

  00010	89 86 0c 02 00
	00		 mov	 DWORD PTR [esi+524], eax

; 578  : 
; 579  : 	m_pPlayStage = NULL;

  00016	89 86 14 02 00
	00		 mov	 DWORD PTR [esi+532], eax

; 580  : 	m_pDot		 = NULL;

  0001c	89 86 04 02 00
	00		 mov	 DWORD PTR [esi+516], eax
  00022	c7 06 00 00 00
	00		 mov	 DWORD PTR [esi], OFFSET ??_7GameOptionSpecTab@@6B@

; 581  : }

  00028	8b c6		 mov	 eax, esi
  0002a	5e		 pop	 esi
  0002b	c3		 ret	 0
??0GameOptionSpecTab@@QAE@XZ ENDP			; GameOptionSpecTab::GameOptionSpecTab
; Function compile flags: /Ogsp
_TEXT	ENDS
;	COMDAT ??_GGameOptionSpecTab@@UAEPAXI@Z
_TEXT	SEGMENT
___flags$ = 8						; size = 4
??_GGameOptionSpecTab@@UAEPAXI@Z PROC			; GameOptionSpecTab::`scalar deleting destructor', COMDAT
; _this$ = ecx
  00000	55		 push	 ebp
  00001	8b ec		 mov	 ebp, esp
  00003	56		 push	 esi
  00004	8b f1		 mov	 esi, ecx
  00006	e8 00 00 00 00	 call	 ??1GameOptionSpecTab@@UAE@XZ ; GameOptionSpecTab::~GameOptionSpecTab
  0000b	f6 45 08 01	 test	 BYTE PTR ___flags$[ebp], 1
  0000f	74 07		 je	 SHORT $LN1@scalar@5
  00011	56		 push	 esi
  00012	e8 00 00 00 00	 call	 ??3@YAXPAX@Z		; operator delete
  00017	59		 pop	 ecx
$LN1@scalar@5:
  00018	8b c6		 mov	 eax, esi
  0001a	5e		 pop	 esi
  0001b	5d		 pop	 ebp
  0001c	c2 04 00	 ret	 4
??_GGameOptionSpecTab@@UAEPAXI@Z ENDP			; GameOptionSpecTab::`scalar deleting destructor'
_TEXT	ENDS
PUBLIC	?SetChangeScreen@GameOptionSpecTab@@IAEXH@Z	; GameOptionSpecTab::SetChangeScreen
; Function compile flags: /Ogsp
;	COMDAT ?SetChangeScreen@GameOptionSpecTab@@IAEXH@Z
_TEXT	SEGMENT
_iIndex$ = 8						; size = 4
?SetChangeScreen@GameOptionSpecTab@@IAEXH@Z PROC	; GameOptionSpecTab::SetChangeScreen, COMDAT
; _this$ = ecx

; 1054 : {

  00000	55		 push	 ebp
  00001	8b ec		 mov	 ebp, esp
  00003	56		 push	 esi

; 1055 : 	HideChildWnd( ID_SCREEN_LIST );

  00004	6a 00		 push	 0
  00006	68 92 0e 00 00	 push	 3730			; 00000e92H
  0000b	8b f1		 mov	 esi, ecx
  0000d	ff 15 00 00 00
	00		 call	 DWORD PTR __imp_?HideChildWnd@ioWnd@@QAEXK_N@Z

; 1056 : 
; 1057 : 	bool bFullScreen = ( (iIndex == 0) ? true : false );

  00013	83 7d 08 00	 cmp	 DWORD PTR _iIndex$[ebp], 0
  00017	0f 94 c1	 sete	 cl

; 1058 : 	if( m_CurrentOption.m_bFullScreen == bFullScreen )

  0001a	38 8e 64 01 00
	00		 cmp	 BYTE PTR [esi+356], cl
  00020	74 28		 je	 SHORT $LN2@SetChangeS

; 1059 : 		return;
; 1060 : 
; 1061 : 	m_CurrentOption.m_bFullScreen = bFullScreen;

  00022	88 8e 64 01 00
	00		 mov	 BYTE PTR [esi+356], cl

; 1062 : 
; 1063 : 	UpdateScreenBoxText();

  00028	8b ce		 mov	 ecx, esi
  0002a	e8 00 00 00 00	 call	 ?UpdateScreenBoxText@GameOptionSpecTab@@IAEXXZ ; GameOptionSpecTab::UpdateScreenBoxText

; 1064 : 
; 1065 : 	SetCustomSpec();
; 1066 : 	UnCheckAutoSpec();

  0002f	8b ce		 mov	 ecx, esi
  00031	c7 86 60 01 00
	00 04 00 00 00	 mov	 DWORD PTR [esi+352], 4
  0003b	e8 00 00 00 00	 call	 ?UnCheckAutoSpec@GameOptionSpecTab@@IAEXXZ ; GameOptionSpecTab::UnCheckAutoSpec

; 1067 : 
; 1068 : 	SetChildActive( ID_APPLY );

  00040	6a 34		 push	 52			; 00000034H
  00042	8b ce		 mov	 ecx, esi
  00044	ff 15 00 00 00
	00		 call	 DWORD PTR __imp_?SetChildActive@ioWnd@@QAEXK@Z
$LN2@SetChangeS:
  0004a	5e		 pop	 esi

; 1069 : }

  0004b	5d		 pop	 ebp
  0004c	c2 04 00	 ret	 4
?SetChangeScreen@GameOptionSpecTab@@IAEXH@Z ENDP	; GameOptionSpecTab::SetChangeScreen
_TEXT	ENDS
PUBLIC	?SetChangeFilter@GameOptionSpecTab@@IAEXH@Z	; GameOptionSpecTab::SetChangeFilter
; Function compile flags: /Ogsp
;	COMDAT ?SetChangeFilter@GameOptionSpecTab@@IAEXH@Z
_TEXT	SEGMENT
_iIndex$ = 8						; size = 4
?SetChangeFilter@GameOptionSpecTab@@IAEXH@Z PROC	; GameOptionSpecTab::SetChangeFilter, COMDAT
; _this$ = ecx

; 1118 : {

  00000	55		 push	 ebp
  00001	8b ec		 mov	 ebp, esp
  00003	56		 push	 esi

; 1119 : 	HideChildWnd( ID_FILTER_LIST );

  00004	6a 00		 push	 0
  00006	68 7e 0e 00 00	 push	 3710			; 00000e7eH
  0000b	8b f1		 mov	 esi, ecx
  0000d	ff 15 00 00 00
	00		 call	 DWORD PTR __imp_?HideChildWnd@ioWnd@@QAEXK_N@Z

; 1120 : 
; 1121 : 	if( !COMPARE( iIndex, FILTER_NONE, FILTER_MAX ) )

  00013	8b 4d 08	 mov	 ecx, DWORD PTR _iIndex$[ebp]
  00016	83 f9 06	 cmp	 ecx, 6
  00019	77 30		 ja	 SHORT $LN2@SetChangeF

; 1122 : 		return;
; 1123 : 
; 1124 : 	FilterType eNewFilter = (FilterType)iIndex;
; 1125 : 	if( m_CurrentOption.m_FilterType == eNewFilter )

  0001b	39 8e 84 01 00
	00		 cmp	 DWORD PTR [esi+388], ecx
  00021	74 28		 je	 SHORT $LN2@SetChangeF

; 1126 : 		return;
; 1127 : 
; 1128 : 	m_CurrentOption.m_FilterType = eNewFilter;

  00023	89 8e 84 01 00
	00		 mov	 DWORD PTR [esi+388], ecx

; 1129 : 
; 1130 : 	UpdateFilterBoxText();

  00029	8b ce		 mov	 ecx, esi
  0002b	e8 00 00 00 00	 call	 ?UpdateFilterBoxText@GameOptionSpecTab@@IAEXXZ ; GameOptionSpecTab::UpdateFilterBoxText

; 1131 : 
; 1132 : 	SetCustomSpec();
; 1133 : 	UnCheckAutoSpec();

  00030	8b ce		 mov	 ecx, esi
  00032	c7 86 60 01 00
	00 04 00 00 00	 mov	 DWORD PTR [esi+352], 4
  0003c	e8 00 00 00 00	 call	 ?UnCheckAutoSpec@GameOptionSpecTab@@IAEXXZ ; GameOptionSpecTab::UnCheckAutoSpec

; 1134 : 
; 1135 : 	SetChildActive( ID_APPLY );

  00041	6a 34		 push	 52			; 00000034H
  00043	8b ce		 mov	 ecx, esi
  00045	ff 15 00 00 00
	00		 call	 DWORD PTR __imp_?SetChildActive@ioWnd@@QAEXK@Z
$LN2@SetChangeF:
  0004b	5e		 pop	 esi

; 1136 : }

  0004c	5d		 pop	 ebp
  0004d	c2 04 00	 ret	 4
?SetChangeFilter@GameOptionSpecTab@@IAEXH@Z ENDP	; GameOptionSpecTab::SetChangeFilter
_TEXT	ENDS
PUBLIC	?SetChangeOveray@GameOptionSpecTab@@IAEXH@Z	; GameOptionSpecTab::SetChangeOveray
; Function compile flags: /Ogsp
;	COMDAT ?SetChangeOveray@GameOptionSpecTab@@IAEXH@Z
_TEXT	SEGMENT
_iIndex$ = 8						; size = 4
?SetChangeOveray@GameOptionSpecTab@@IAEXH@Z PROC	; GameOptionSpecTab::SetChangeOveray, COMDAT
; _this$ = ecx

; 1186 : {

  00000	55		 push	 ebp
  00001	8b ec		 mov	 ebp, esp
  00003	56		 push	 esi

; 1187 : 	HideChildWnd( ID_OVERAY_LIST );

  00004	6a 00		 push	 0
  00006	68 88 0e 00 00	 push	 3720			; 00000e88H
  0000b	8b f1		 mov	 esi, ecx
  0000d	ff 15 00 00 00
	00		 call	 DWORD PTR __imp_?HideChildWnd@ioWnd@@QAEXK_N@Z

; 1188 : 
; 1189 : 	if( !COMPARE( iIndex, OVERAY_NONE, OVERAY_MAX ) )

  00013	8b 4d 08	 mov	 ecx, DWORD PTR _iIndex$[ebp]
  00016	83 f9 02	 cmp	 ecx, 2
  00019	77 30		 ja	 SHORT $LN2@SetChangeO

; 1190 : 		return;
; 1191 : 
; 1192 : 	OverayType eNewOveray = (OverayType)iIndex;
; 1193 : 	if( m_CurrentOption.m_OverayType == eNewOveray )

  0001b	39 8e 88 01 00
	00		 cmp	 DWORD PTR [esi+392], ecx
  00021	74 28		 je	 SHORT $LN2@SetChangeO

; 1194 : 		return;
; 1195 : 
; 1196 : 	m_CurrentOption.m_OverayType = eNewOveray;

  00023	89 8e 88 01 00
	00		 mov	 DWORD PTR [esi+392], ecx

; 1197 : 
; 1198 : 	UpdateOverayBoxText();

  00029	8b ce		 mov	 ecx, esi
  0002b	e8 00 00 00 00	 call	 ?UpdateOverayBoxText@GameOptionSpecTab@@IAEXXZ ; GameOptionSpecTab::UpdateOverayBoxText

; 1199 : 
; 1200 : 	SetCustomSpec();
; 1201 : 	UnCheckAutoSpec();

  00030	8b ce		 mov	 ecx, esi
  00032	c7 86 60 01 00
	00 04 00 00 00	 mov	 DWORD PTR [esi+352], 4
  0003c	e8 00 00 00 00	 call	 ?UnCheckAutoSpec@GameOptionSpecTab@@IAEXXZ ; GameOptionSpecTab::UnCheckAutoSpec

; 1202 : 
; 1203 : 	SetChildActive( ID_APPLY );

  00041	6a 34		 push	 52			; 00000034H
  00043	8b ce		 mov	 ecx, esi
  00045	ff 15 00 00 00
	00		 call	 DWORD PTR __imp_?SetChildActive@ioWnd@@QAEXK@Z
$LN2@SetChangeO:
  0004b	5e		 pop	 esi

; 1204 : }

  0004c	5d		 pop	 ebp
  0004d	c2 04 00	 ret	 4
?SetChangeOveray@GameOptionSpecTab@@IAEXH@Z ENDP	; GameOptionSpecTab::SetChangeOveray
_TEXT	ENDS
PUBLIC	?SetChangeResolution@GameOptionSpecTab@@IAEXH@Z	; GameOptionSpecTab::SetChangeResolution
EXTRN	?GetResolution@Setting@@SA_NHAAH0@Z:PROC	; Setting::GetResolution
; Function compile flags: /Ogsp
;	COMDAT ?SetChangeResolution@GameOptionSpecTab@@IAEXH@Z
_TEXT	SEGMENT
_iHeight$ = -8						; size = 4
_iWidth$ = -4						; size = 4
_iIndex$ = 8						; size = 4
?SetChangeResolution@GameOptionSpecTab@@IAEXH@Z PROC	; GameOptionSpecTab::SetChangeResolution, COMDAT
; _this$ = ecx

; 1226 : {

  00000	55		 push	 ebp
  00001	8b ec		 mov	 ebp, esp
  00003	51		 push	 ecx
  00004	51		 push	 ecx
  00005	56		 push	 esi

; 1227 : 	HideChildWnd( ID_RESOLUTION_LIST );

  00006	6a 00		 push	 0
  00008	68 74 0e 00 00	 push	 3700			; 00000e74H
  0000d	8b f1		 mov	 esi, ecx
  0000f	ff 15 00 00 00
	00		 call	 DWORD PTR __imp_?HideChildWnd@ioWnd@@QAEXK_N@Z

; 1228 : 
; 1229 : 	int iWidth, iHeight;
; 1230 : 	if( !Setting::GetResolution( iIndex, iWidth, iHeight ) )

  00015	8d 45 f8	 lea	 eax, DWORD PTR _iHeight$[ebp]
  00018	50		 push	 eax
  00019	8d 45 fc	 lea	 eax, DWORD PTR _iWidth$[ebp]
  0001c	50		 push	 eax
  0001d	ff 75 08	 push	 DWORD PTR _iIndex$[ebp]
  00020	e8 00 00 00 00	 call	 ?GetResolution@Setting@@SA_NHAAH0@Z ; Setting::GetResolution
  00025	83 c4 0c	 add	 esp, 12			; 0000000cH
  00028	84 c0		 test	 al, al
  0002a	74 46		 je	 SHORT $LN3@SetChangeR

; 1231 : 		return;
; 1232 : 
; 1233 : 	// check Same Resolution?
; 1234 : 	if( m_CurrentOption.m_iWidth == iWidth && m_CurrentOption.m_iHeight == iHeight )

  0002c	8b 4d fc	 mov	 ecx, DWORD PTR _iWidth$[ebp]
  0002f	8b 55 f8	 mov	 edx, DWORD PTR _iHeight$[ebp]
  00032	39 8e 8c 01 00
	00		 cmp	 DWORD PTR [esi+396], ecx
  00038	75 08		 jne	 SHORT $LN1@SetChangeR
  0003a	39 96 90 01 00
	00		 cmp	 DWORD PTR [esi+400], edx
  00040	74 30		 je	 SHORT $LN3@SetChangeR
$LN1@SetChangeR:

; 1235 : 		return;
; 1236 : 
; 1237 : 	m_CurrentOption.m_iWidth  = iWidth;
; 1238 : 	m_CurrentOption.m_iHeight = iHeight;
; 1239 : 	ChangeResolutionText( iWidth, iHeight );

  00042	52		 push	 edx
  00043	89 8e 8c 01 00
	00		 mov	 DWORD PTR [esi+396], ecx
  00049	51		 push	 ecx
  0004a	8b ce		 mov	 ecx, esi
  0004c	89 96 90 01 00
	00		 mov	 DWORD PTR [esi+400], edx
  00052	e8 00 00 00 00	 call	 ?ChangeResolutionText@GameOptionSpecTab@@IAEXHH@Z ; GameOptionSpecTab::ChangeResolutionText

; 1240 : 
; 1241 : 	SetCustomSpec();
; 1242 : 	UnCheckAutoSpec();

  00057	8b ce		 mov	 ecx, esi
  00059	c7 86 60 01 00
	00 04 00 00 00	 mov	 DWORD PTR [esi+352], 4
  00063	e8 00 00 00 00	 call	 ?UnCheckAutoSpec@GameOptionSpecTab@@IAEXXZ ; GameOptionSpecTab::UnCheckAutoSpec

; 1243 : 
; 1244 : 	SetChildActive( ID_APPLY );

  00068	6a 34		 push	 52			; 00000034H
  0006a	8b ce		 mov	 ecx, esi
  0006c	ff 15 00 00 00
	00		 call	 DWORD PTR __imp_?SetChildActive@ioWnd@@QAEXK@Z
$LN3@SetChangeR:
  00072	5e		 pop	 esi

; 1245 : }

  00073	c9		 leave
  00074	c2 04 00	 ret	 4
?SetChangeResolution@GameOptionSpecTab@@IAEXH@Z ENDP	; GameOptionSpecTab::SetChangeResolution
_TEXT	ENDS
PUBLIC	?RestoreResolution@GameOptionSpecTab@@IAEXXZ	; GameOptionSpecTab::RestoreResolution
EXTRN	?ApplyOptionChange@ioApplication@@QAE_NABUSettingOption@@@Z:PROC ; ioApplication::ApplyOptionChange
EXTRN	?GetSingleton@ioApplication@@SAAAV1@XZ:PROC	; ioApplication::GetSingleton
; Function compile flags: /Ogsp
;	COMDAT ?RestoreResolution@GameOptionSpecTab@@IAEXXZ
_TEXT	SEGMENT
?RestoreResolution@GameOptionSpecTab@@IAEXXZ PROC	; GameOptionSpecTab::RestoreResolution, COMDAT
; _this$ = ecx

; 1562 : {

  00000	53		 push	 ebx
  00001	56		 push	 esi
  00002	8b f1		 mov	 esi, ecx

; 1563 : 	m_CurrentOption.m_iWidth  = m_iRestoreWidth;

  00004	8b 86 08 02 00
	00		 mov	 eax, DWORD PTR [esi+520]
  0000a	89 86 8c 01 00
	00		 mov	 DWORD PTR [esi+396], eax

; 1564 : 	m_CurrentOption.m_iHeight = m_iRestoreHeight;

  00010	8b 86 0c 02 00
	00		 mov	 eax, DWORD PTR [esi+524]
  00016	89 86 90 01 00
	00		 mov	 DWORD PTR [esi+400], eax

; 1565 : 	m_CurrentOption.m_bFullScreen = m_bRestoreFullScreen;

  0001c	8a 86 10 02 00
	00		 mov	 al, BYTE PTR [esi+528]
  00022	8d 9e 64 01 00
	00		 lea	 ebx, DWORD PTR [esi+356]
  00028	57		 push	 edi
  00029	88 03		 mov	 BYTE PTR [ebx], al

; 1566 : 
; 1567 : 	SetCustomSpec();

  0002b	c7 86 60 01 00
	00 04 00 00 00	 mov	 DWORD PTR [esi+352], 4

; 1568 : 	UnCheckAutoSpec();

  00035	e8 00 00 00 00	 call	 ?UnCheckAutoSpec@GameOptionSpecTab@@IAEXXZ ; GameOptionSpecTab::UnCheckAutoSpec

; 1569 : 
; 1570 : 	Setting::SetSpec( m_DefaultSpec );

  0003a	8b 86 60 01 00
	00		 mov	 eax, DWORD PTR [esi+352]

; 1571 : 	g_App.ApplyOptionChange( m_CurrentOption );

  00040	53		 push	 ebx
  00041	a3 00 00 00 00	 mov	 DWORD PTR ?m_DefaultSpec@Setting@@1W4Spec@1@A, eax ; Setting::m_DefaultSpec
  00046	e8 00 00 00 00	 call	 ?GetSingleton@ioApplication@@SAAAV1@XZ ; ioApplication::GetSingleton
  0004b	8b c8		 mov	 ecx, eax
  0004d	e8 00 00 00 00	 call	 ?ApplyOptionChange@ioApplication@@QAE_NABUSettingOption@@@Z ; ioApplication::ApplyOptionChange

; 1572 : 
; 1573 : 	m_CurrentOption = Setting::GetSettingOption();

  00052	68 00 00 00 00	 push	 OFFSET ?m_Option@Setting@@1USettingOption@@A ; Setting::m_Option
  00057	8b cb		 mov	 ecx, ebx
  00059	e8 00 00 00 00	 call	 ??4SettingOption@@QAEAAU0@ABU0@@Z

; 1574 : 	UpdateByCurrentOption();

  0005e	8b 06		 mov	 eax, DWORD PTR [esi]
  00060	8b ce		 mov	 ecx, esi
  00062	ff 90 30 01 00
	00		 call	 DWORD PTR [eax+304]

; 1575 : 
; 1576 : 	SaveCurrentSetting( false );

  00068	6a 00		 push	 0
  0006a	8b ce		 mov	 ecx, esi
  0006c	e8 00 00 00 00	 call	 ?SaveCurrentSetting@GameOptionBasicWnd@@IAEX_N@Z ; GameOptionBasicWnd::SaveCurrentSetting
  00071	5f		 pop	 edi
  00072	5e		 pop	 esi
  00073	5b		 pop	 ebx

; 1577 : }

  00074	c3		 ret	 0
?RestoreResolution@GameOptionSpecTab@@IAEXXZ ENDP	; GameOptionSpecTab::RestoreResolution
; Function compile flags: /Ogsp
_TEXT	ENDS
;	COMDAT ??_GGameOptionWnd@@UAEPAXI@Z
_TEXT	SEGMENT
___flags$ = 8						; size = 4
??_GGameOptionWnd@@UAEPAXI@Z PROC			; GameOptionWnd::`scalar deleting destructor', COMDAT
; _this$ = ecx
  00000	55		 push	 ebp
  00001	8b ec		 mov	 ebp, esp
  00003	56		 push	 esi
  00004	8b f1		 mov	 esi, ecx
  00006	e8 00 00 00 00	 call	 ??1GameOptionWnd@@UAE@XZ ; GameOptionWnd::~GameOptionWnd
  0000b	f6 45 08 01	 test	 BYTE PTR ___flags$[ebp], 1
  0000f	74 07		 je	 SHORT $LN1@scalar@6
  00011	56		 push	 esi
  00012	e8 00 00 00 00	 call	 ??3@YAXPAX@Z		; operator delete
  00017	59		 pop	 ecx
$LN1@scalar@6:
  00018	8b c6		 mov	 eax, esi
  0001a	5e		 pop	 esi
  0001b	5d		 pop	 ebp
  0001c	c2 04 00	 ret	 4
??_GGameOptionWnd@@UAEPAXI@Z ENDP			; GameOptionWnd::`scalar deleting destructor'
_TEXT	ENDS
PUBLIC	??_R0?AVGameOptionSettingJoyKeyTab@@@8		; GameOptionSettingJoyKeyTab `RTTI Type Descriptor'
PUBLIC	??_R0?AVGameOptionSettingKeyTab@@@8		; GameOptionSettingKeyTab `RTTI Type Descriptor'
PUBLIC	??_R0?AVGameOptionMovieScreenShotTab@@@8	; GameOptionMovieScreenShotTab `RTTI Type Descriptor'
PUBLIC	??_R0?AVGameOptionSettingGameTab@@@8		; GameOptionSettingGameTab `RTTI Type Descriptor'
EXTRN	?IsEnableJoyStick@CDirectInput@@QAI_NXZ:PROC	; CDirectInput::IsEnableJoyStick
EXTRN	?GetSingleton@CDirectInput@@SAAAV1@XZ:PROC	; CDirectInput::GetSingleton
EXTRN	?Init@GameOptionSettingJoyKeyTab@@QAEXXZ:PROC	; GameOptionSettingJoyKeyTab::Init
EXTRN	?Init@GameOptionSettingKeyTab@@QAEXXZ:PROC	; GameOptionSettingKeyTab::Init
EXTRN	?Init@GameOptionMovieScreenShotTab@@QAEXXZ:PROC	; GameOptionMovieScreenShotTab::Init
EXTRN	?Init@GameOptionSettingGameTab@@QAEXXZ:PROC	; GameOptionSettingGameTab::Init
;	COMDAT ??_R0?AVGameOptionSettingJoyKeyTab@@@8
_DATA	SEGMENT
??_R0?AVGameOptionSettingJoyKeyTab@@@8 DD FLAT:??_7type_info@@6B@ ; GameOptionSettingJoyKeyTab `RTTI Type Descriptor'
	DD	00H
	DB	'.?AVGameOptionSettingJoyKeyTab@@', 00H
_DATA	ENDS
;	COMDAT ??_R0?AVGameOptionSettingKeyTab@@@8
_DATA	SEGMENT
??_R0?AVGameOptionSettingKeyTab@@@8 DD FLAT:??_7type_info@@6B@ ; GameOptionSettingKeyTab `RTTI Type Descriptor'
	DD	00H
	DB	'.?AVGameOptionSettingKeyTab@@', 00H
_DATA	ENDS
;	COMDAT ??_R0?AVGameOptionMovieScreenShotTab@@@8
_DATA	SEGMENT
??_R0?AVGameOptionMovieScreenShotTab@@@8 DD FLAT:??_7type_info@@6B@ ; GameOptionMovieScreenShotTab `RTTI Type Descriptor'
	DD	00H
	DB	'.?AVGameOptionMovieScreenShotTab@@', 00H
_DATA	ENDS
;	COMDAT ??_R0?AVGameOptionSettingGameTab@@@8
_DATA	SEGMENT
??_R0?AVGameOptionSettingGameTab@@@8 DD FLAT:??_7type_info@@6B@ ; GameOptionSettingGameTab `RTTI Type Descriptor'
	DD	00H
	DB	'.?AVGameOptionSettingGameTab@@', 00H
; Function compile flags: /Ogsp
_DATA	ENDS
;	COMDAT ?iwm_show@GameOptionWnd@@UAEXXZ
_TEXT	SEGMENT
_this$ = -4						; size = 4
?iwm_show@GameOptionWnd@@UAEXXZ PROC			; GameOptionWnd::iwm_show, COMDAT
; _this$ = ecx

; 1618 : {

  00000	55		 push	 ebp
  00001	8b ec		 mov	 ebp, esp
  00003	51		 push	 ecx
  00004	53		 push	 ebx
  00005	56		 push	 esi

; 1619 : 	GameOptionSettingGameTab *pGameChild = dynamic_cast<GameOptionSettingGameTab*> ( FindChildWnd( ID_GAME_TAB_WND ) ) ;

  00006	8b 35 00 00 00
	00		 mov	 esi, DWORD PTR __imp_?FindChildWnd@ioWnd@@QAEPAV1@K@Z
  0000c	57		 push	 edi
  0000d	33 db		 xor	 ebx, ebx
  0000f	53		 push	 ebx
  00010	68 00 00 00 00	 push	 OFFSET ??_R0?AVGameOptionSettingGameTab@@@8
  00015	bf 00 00 00 00	 mov	 edi, OFFSET ??_R0?AVioWnd@@@8
  0001a	57		 push	 edi
  0001b	53		 push	 ebx
  0001c	6a 67		 push	 103			; 00000067H
  0001e	89 4d fc	 mov	 DWORD PTR _this$[ebp], ecx
  00021	ff d6		 call	 esi
  00023	50		 push	 eax
  00024	e8 00 00 00 00	 call	 ___RTDynamicCast
  00029	83 c4 14	 add	 esp, 20			; 00000014H

; 1620 : 	if( pGameChild )

  0002c	3b c3		 cmp	 eax, ebx
  0002e	74 07		 je	 SHORT $LN6@iwm_show@3

; 1621 : 		pGameChild->Init();

  00030	8b c8		 mov	 ecx, eax
  00032	e8 00 00 00 00	 call	 ?Init@GameOptionSettingGameTab@@QAEXXZ ; GameOptionSettingGameTab::Init
$LN6@iwm_show@3:

; 1622 : 
; 1623 : 	GameOptionMovieScreenShotTab *pMovieChild = dynamic_cast<GameOptionMovieScreenShotTab*> ( FindChildWnd( ID_MOVIE_SCREENSHOT_TAB_WND ) );

  00037	8b 4d fc	 mov	 ecx, DWORD PTR _this$[ebp]
  0003a	53		 push	 ebx
  0003b	68 00 00 00 00	 push	 OFFSET ??_R0?AVGameOptionMovieScreenShotTab@@@8
  00040	57		 push	 edi
  00041	53		 push	 ebx
  00042	6a 68		 push	 104			; 00000068H
  00044	ff d6		 call	 esi
  00046	50		 push	 eax
  00047	e8 00 00 00 00	 call	 ___RTDynamicCast
  0004c	83 c4 14	 add	 esp, 20			; 00000014H

; 1624 : 	if( pMovieChild )

  0004f	3b c3		 cmp	 eax, ebx
  00051	74 07		 je	 SHORT $LN5@iwm_show@3

; 1625 : 		pMovieChild->Init();

  00053	8b c8		 mov	 ecx, eax
  00055	e8 00 00 00 00	 call	 ?Init@GameOptionMovieScreenShotTab@@QAEXXZ ; GameOptionMovieScreenShotTab::Init
$LN5@iwm_show@3:

; 1626 : 
; 1627 : 	GameOptionSettingKeyTab *pKeyChild = dynamic_cast<GameOptionSettingKeyTab*> ( FindChildWnd( ID_KEYBOARD_TAB_WND ) ) ;

  0005a	8b 4d fc	 mov	 ecx, DWORD PTR _this$[ebp]
  0005d	53		 push	 ebx
  0005e	68 00 00 00 00	 push	 OFFSET ??_R0?AVGameOptionSettingKeyTab@@@8
  00063	57		 push	 edi
  00064	53		 push	 ebx
  00065	6a 69		 push	 105			; 00000069H
  00067	ff d6		 call	 esi
  00069	50		 push	 eax
  0006a	e8 00 00 00 00	 call	 ___RTDynamicCast
  0006f	83 c4 14	 add	 esp, 20			; 00000014H

; 1628 : 	if( pKeyChild )

  00072	3b c3		 cmp	 eax, ebx
  00074	74 07		 je	 SHORT $LN4@iwm_show@3

; 1629 : 		pKeyChild->Init();

  00076	8b c8		 mov	 ecx, eax
  00078	e8 00 00 00 00	 call	 ?Init@GameOptionSettingKeyTab@@QAEXXZ ; GameOptionSettingKeyTab::Init
$LN4@iwm_show@3:

; 1630 : 
; 1631 : 	GameOptionSettingJoyKeyTab *pJoyKeyChild = dynamic_cast<GameOptionSettingJoyKeyTab*> ( FindChildWnd( ID_JOYPAD_TAB_WND ) ) ;

  0007d	53		 push	 ebx
  0007e	68 00 00 00 00	 push	 OFFSET ??_R0?AVGameOptionSettingJoyKeyTab@@@8
  00083	57		 push	 edi
  00084	8b 7d fc	 mov	 edi, DWORD PTR _this$[ebp]
  00087	53		 push	 ebx
  00088	6a 6a		 push	 106			; 0000006aH
  0008a	8b cf		 mov	 ecx, edi
  0008c	ff d6		 call	 esi
  0008e	50		 push	 eax
  0008f	e8 00 00 00 00	 call	 ___RTDynamicCast
  00094	83 c4 14	 add	 esp, 20			; 00000014H

; 1632 : 	if( pJoyKeyChild )

  00097	3b c3		 cmp	 eax, ebx
  00099	74 07		 je	 SHORT $LN3@iwm_show@3

; 1633 : 		pJoyKeyChild->Init();

  0009b	8b c8		 mov	 ecx, eax
  0009d	e8 00 00 00 00	 call	 ?Init@GameOptionSettingJoyKeyTab@@QAEXXZ ; GameOptionSettingJoyKeyTab::Init
$LN3@iwm_show@3:

; 1634 : 
; 1635 : 	if( g_Input.IsEnableJoyStick() )

  000a2	e8 00 00 00 00	 call	 ?GetSingleton@CDirectInput@@SAAAV1@XZ ; CDirectInput::GetSingleton
  000a7	8b c8		 mov	 ecx, eax
  000a9	e8 00 00 00 00	 call	 ?IsEnableJoyStick@CDirectInput@@QAI_NXZ ; CDirectInput::IsEnableJoyStick

; 1636 : 		SetChildActive( ID_JOYPAD_TAB_BTN );

  000ae	6a 08		 push	 8
  000b0	8b cf		 mov	 ecx, edi
  000b2	84 c0		 test	 al, al
  000b4	74 08		 je	 SHORT $LN2@iwm_show@3
  000b6	ff 15 00 00 00
	00		 call	 DWORD PTR __imp_?SetChildActive@ioWnd@@QAEXK@Z

; 1637 : 	else

  000bc	eb 06		 jmp	 SHORT $LN1@iwm_show@3
$LN2@iwm_show@3:

; 1638 : 		SetChildInActive( ID_JOYPAD_TAB_BTN );

  000be	ff 15 00 00 00
	00		 call	 DWORD PTR __imp_?SetChildInActive@ioWnd@@QAEXK@Z
$LN1@iwm_show@3:

; 1639 : 
; 1640 : 	ChangeWindow( ID_SPEC_TAB_BTN );

  000c4	6a 03		 push	 3
  000c6	8b cf		 mov	 ecx, edi
  000c8	e8 00 00 00 00	 call	 ?ChangeWindow@GameOptionWnd@@IAEXK@Z ; GameOptionWnd::ChangeWindow
  000cd	5f		 pop	 edi
  000ce	5e		 pop	 esi
  000cf	5b		 pop	 ebx

; 1641 : 
; 1642 : #if defined( USE_GA )
; 1643 : 	// WND_OPTION
; 1644 : 	g_HttpMng.GA_PageVIewTracking( g_MyInfo.GetUserIndex(), "%2FWND%2FOPTION" );
; 1645 : #endif
; 1646 : 
; 1647 : }

  000d0	c9		 leave
  000d1	c3		 ret	 0
?iwm_show@GameOptionWnd@@UAEXXZ ENDP			; GameOptionWnd::iwm_show
_TEXT	ENDS
PUBLIC	__real@3f266666
PUBLIC	??_C@_0BL@PBKAOMEO@GameOptionWnd?3?3iwm_command?$AA@ ; `string'
EXTRN	??_M@YGXPAXIHP6EX0@Z@Z:PROC			; `eh vector destructor iterator'
EXTRN	?SetPrevMsgListBoxWithTitle@ioSP2GUIManager@@QAEXPAVioWnd@@H0PAVioComplexStringPrinter@@PBD222W4TextAlignType@@@Z:PROC ; ioSP2GUIManager::SetPrevMsgListBoxWithTitle
EXTRN	?AddTextPiece@ioComplexStringPrinter@@QAAXMPBDZZ:PROC ; ioComplexStringPrinter::AddTextPiece
EXTRN	?SetTextColor@ioComplexStringPrinter@@QAEXK@Z:PROC ; ioComplexStringPrinter::SetTextColor
EXTRN	?SetBkColor@ioComplexStringPrinter@@QAEXHHH@Z:PROC ; ioComplexStringPrinter::SetBkColor
EXTRN	?SetTextStyle@ioComplexStringPrinter@@QAEXW4TextStyle@@@Z:PROC ; ioComplexStringPrinter::SetTextStyle
EXTRN	??_L@YGXPAXIHP6EX0@Z1@Z:PROC			; `eh vector constructor iterator'
EXTRN	??0ioComplexStringPrinter@@QAE@XZ:PROC		; ioComplexStringPrinter::ioComplexStringPrinter
EXTRN	??1ioComplexStringPrinter@@QAE@XZ:PROC		; ioComplexStringPrinter::~ioComplexStringPrinter
EXTRN	?MySoldierDefPos@ioPlayStage@@QAEXXZ:PROC	; ioPlayStage::MySoldierDefPos
EXTRN	?SetUIPostionToDefault@ioSP2GUIManager@@QAEXXZ:PROC ; ioSP2GUIManager::SetUIPostionToDefault
EXTRN	__EH_epilog3_GS:PROC
EXTRN	__EH_prolog3_GS:PROC
;	COMDAT __real@3f266666
CONST	SEGMENT
__real@3f266666 DD 03f266666r			; 0.65
CONST	ENDS
;	COMDAT ??_C@_0BL@PBKAOMEO@GameOptionWnd?3?3iwm_command?$AA@
CONST	SEGMENT
??_C@_0BL@PBKAOMEO@GameOptionWnd?3?3iwm_command?$AA@ DB 'GameOptionWnd::i'
	DB	'wm_command', 00H				; `string'
CONST	ENDS
;	COMDAT xdata$x
xdata$x	SEGMENT
__unwindtable$?iwm_command@GameOptionWnd@@UAEXPAVioWnd@@HK@Z DD 0ffffffffH
	DD	FLAT:__unwindfunclet$?iwm_command@GameOptionWnd@@UAEXPAVioWnd@@HK@Z$0
__ehfuncinfo$?iwm_command@GameOptionWnd@@UAEXPAVioWnd@@HK@Z DD 019930522H
	DD	01H
	DD	FLAT:__unwindtable$?iwm_command@GameOptionWnd@@UAEXPAVioWnd@@HK@Z
	DD	2 DUP(00H)
	DD	2 DUP(00H)
	DD	00H
	DD	01H
; Function compile flags: /Ogsp
xdata$x	ENDS
;	COMDAT ?iwm_command@GameOptionWnd@@UAEXPAVioWnd@@HK@Z
_TEXT	SEGMENT
_kPrinter$535849 = -400					; size = 384
__$EHRec$ = -12						; size = 12
_pWnd$ = 8						; size = 4
_cmd$ = 12						; size = 4
_param$ = 16						; size = 4
?iwm_command@GameOptionWnd@@UAEXPAVioWnd@@HK@Z PROC	; GameOptionWnd::iwm_command, COMDAT
; _this$ = ecx

; 1671 : {

  00000	68 84 01 00 00	 push	 388			; 00000184H
  00005	b8 00 00 00 00	 mov	 eax, __ehhandler$?iwm_command@GameOptionWnd@@UAEXPAVioWnd@@HK@Z
  0000a	e8 00 00 00 00	 call	 __EH_prolog3_GS
  0000f	8b f1		 mov	 esi, ecx
  00011	8b 4d 08	 mov	 ecx, DWORD PTR _pWnd$[ebp]

; 1672 : 	DWORD dwID = pWnd->GetID();

  00014	ff 15 00 00 00
	00		 call	 DWORD PTR __imp_?GetID@ioWnd@@QBEKXZ

; 1673 : 	switch( dwID )

  0001a	83 f8 01	 cmp	 eax, 1
  0001d	0f 84 ab 01 00
	00		 je	 $LN7@iwm_comman
  00023	83 f8 02	 cmp	 eax, 2
  00026	74 26		 je	 SHORT $LN5@iwm_comman
  00028	0f 86 ae 01 00
	00		 jbe	 $LN6@iwm_comman
  0002e	83 f8 08	 cmp	 eax, 8
  00031	0f 87 a5 01 00
	00		 ja	 $LN6@iwm_comman

; 1702 : 	case ID_SPEC_TAB_BTN:
; 1703 : 	case ID_VOLUME_TAB_BTN:
; 1704 : 	case ID_GAME_TAB_BTN:
; 1705 : 	case ID_MOVIE_SCREENSHOT_TAB_BTN:
; 1706 : 	case ID_KEYBOARD_TAB_BTN:
; 1707 : 	case ID_JOYPAD_TAB_BTN:
; 1708 : 		if( cmd == IOBN_BTNDOWN )

  00037	83 7d 0c 10	 cmp	 DWORD PTR _cmd$[ebp], 16 ; 00000010H
  0003b	0f 85 9b 01 00
	00		 jne	 $LN6@iwm_comman

; 1709 : 		{
; 1710 : 			ChangeWindow( dwID );

  00041	50		 push	 eax
  00042	8b ce		 mov	 ecx, esi
  00044	e8 00 00 00 00	 call	 ?ChangeWindow@GameOptionWnd@@IAEXK@Z ; GameOptionWnd::ChangeWindow

; 1711 : 		}
; 1712 : 		break;

  00049	e9 8e 01 00 00	 jmp	 $LN6@iwm_comman
$LN5@iwm_comman:

; 1679 : 		}
; 1680 : 		break;
; 1681 : 	case ID_UI_INIT:
; 1682 : 		if( cmd == IOBN_BTNUP )

  0004e	83 7d 0c 11	 cmp	 DWORD PTR _cmd$[ebp], 17 ; 00000011H
  00052	0f 85 84 01 00
	00		 jne	 $LN6@iwm_comman

; 1683 : 		{
; 1684 : 			g_GUIMgr.SetUIPostionToDefault();

  00058	e8 00 00 00 00	 call	 ?GetSingleton@ioSP2GUIManager@@SAAAV1@XZ ; ioSP2GUIManager::GetSingleton
  0005d	8b c8		 mov	 ecx, eax
  0005f	e8 00 00 00 00	 call	 ?SetUIPostionToDefault@ioSP2GUIManager@@QAEXXZ ; ioSP2GUIManager::SetUIPostionToDefault

; 1685 : 			if( m_pPlayStage )

  00064	8b 8e 90 01 00
	00		 mov	 ecx, DWORD PTR [esi+400]
  0006a	33 f6		 xor	 esi, esi
  0006c	3b ce		 cmp	 ecx, esi
  0006e	74 05		 je	 SHORT $LN3@iwm_comman

; 1686 : 				m_pPlayStage->MySoldierDefPos();

  00070	e8 00 00 00 00	 call	 ?MySoldierDefPos@ioPlayStage@@QAEXXZ ; ioPlayStage::MySoldierDefPos
$LN3@iwm_comman:

; 1687 : 
; 1688 : 			ioComplexStringPrinter kPrinter[MAX_MSG_LIST_SIZE];

  00075	68 00 00 00 00	 push	 OFFSET ??1ioComplexStringPrinter@@QAE@XZ ; ioComplexStringPrinter::~ioComplexStringPrinter
  0007a	68 00 00 00 00	 push	 OFFSET ??0ioComplexStringPrinter@@QAE@XZ ; ioComplexStringPrinter::ioComplexStringPrinter
  0007f	6a 0c		 push	 12			; 0000000cH
  00081	6a 20		 push	 32			; 00000020H
  00083	8d 85 70 fe ff
	ff		 lea	 eax, DWORD PTR _kPrinter$535849[ebp]
  00089	50		 push	 eax
  0008a	e8 00 00 00 00	 call	 ??_L@YGXPAXIHP6EX0@Z1@Z

; 1689 : 			kPrinter[0].SetTextStyle( TS_NORMAL );

  0008f	56		 push	 esi
  00090	8d 8d 70 fe ff
	ff		 lea	 ecx, DWORD PTR _kPrinter$535849[ebp]
  00096	89 75 fc	 mov	 DWORD PTR __$EHRec$[ebp+8], esi
  00099	e8 00 00 00 00	 call	 ?SetTextStyle@ioComplexStringPrinter@@QAEXW4TextStyle@@@Z ; ioComplexStringPrinter::SetTextStyle

; 1690 : 			kPrinter[0].SetBkColor( 0, 0, 0 );	

  0009e	56		 push	 esi
  0009f	56		 push	 esi
  000a0	56		 push	 esi
  000a1	8d 8d 70 fe ff
	ff		 lea	 ecx, DWORD PTR _kPrinter$535849[ebp]
  000a7	e8 00 00 00 00	 call	 ?SetBkColor@ioComplexStringPrinter@@QAEXHHH@Z ; ioComplexStringPrinter::SetBkColor

; 1691 : 			kPrinter[0].SetTextColor( TCT_DEFAULT_DARKGRAY );

  000ac	68 3a 3a 3a ff	 push	 -12961222		; ff3a3a3aH
  000b1	8d 8d 70 fe ff
	ff		 lea	 ecx, DWORD PTR _kPrinter$535849[ebp]
  000b7	e8 00 00 00 00	 call	 ?SetTextColor@ioComplexStringPrinter@@QAEXK@Z ; ioComplexStringPrinter::SetTextColor

; 1692 : 			kPrinter[0].AddTextPiece( FONT_SIZE_13, STR(1) );

  000bc	56		 push	 esi
  000bd	8b 35 00 00 00
	00		 mov	 esi, DWORD PTR __imp_?GetSingleton@ioStringManager@@SAAAV1@XZ
  000c3	6a 01		 push	 1
  000c5	68 00 00 00 00	 push	 OFFSET ??_C@_00CNPNBAHC@?$AA@
  000ca	bb 00 00 00 00	 mov	 ebx, OFFSET ??_C@_0BL@PBKAOMEO@GameOptionWnd?3?3iwm_command?$AA@
  000cf	53		 push	 ebx
  000d0	ff d6		 call	 esi
  000d2	8b 3d 00 00 00
	00		 mov	 edi, DWORD PTR __imp_?GetString@ioStringManager@@QAEPADPBD0HW4FileNamePrefix@1@@Z
  000d8	8b c8		 mov	 ecx, eax
  000da	ff d7		 call	 edi
  000dc	f3 0f 10 05 00
	00 00 00	 movss	 xmm0, DWORD PTR __real@3f266666
  000e4	50		 push	 eax
  000e5	51		 push	 ecx
  000e6	8d 85 70 fe ff
	ff		 lea	 eax, DWORD PTR _kPrinter$535849[ebp]
  000ec	f3 0f 11 04 24	 movss	 DWORD PTR [esp], xmm0
  000f1	50		 push	 eax
  000f2	e8 00 00 00 00	 call	 ?AddTextPiece@ioComplexStringPrinter@@QAAXMPBDZZ ; ioComplexStringPrinter::AddTextPiece
  000f7	83 c4 0c	 add	 esp, 12			; 0000000cH

; 1693 : 
; 1694 : 			kPrinter[1].SetTextStyle( TS_NORMAL );

  000fa	6a 00		 push	 0
  000fc	8d 8d 90 fe ff
	ff		 lea	 ecx, DWORD PTR _kPrinter$535849[ebp+32]
  00102	e8 00 00 00 00	 call	 ?SetTextStyle@ioComplexStringPrinter@@QAEXW4TextStyle@@@Z ; ioComplexStringPrinter::SetTextStyle

; 1695 : 			kPrinter[1].SetBkColor( 0, 0, 0 );	

  00107	33 c0		 xor	 eax, eax
  00109	50		 push	 eax
  0010a	50		 push	 eax
  0010b	50		 push	 eax
  0010c	8d 8d 90 fe ff
	ff		 lea	 ecx, DWORD PTR _kPrinter$535849[ebp+32]
  00112	e8 00 00 00 00	 call	 ?SetBkColor@ioComplexStringPrinter@@QAEXHHH@Z ; ioComplexStringPrinter::SetBkColor

; 1696 : 			kPrinter[1].SetTextColor( TCT_DEFAULT_DARKGRAY );

  00117	68 3a 3a 3a ff	 push	 -12961222		; ff3a3a3aH
  0011c	8d 8d 90 fe ff
	ff		 lea	 ecx, DWORD PTR _kPrinter$535849[ebp+32]
  00122	e8 00 00 00 00	 call	 ?SetTextColor@ioComplexStringPrinter@@QAEXK@Z ; ioComplexStringPrinter::SetTextColor

; 1697 : 			kPrinter[1].AddTextPiece( FONT_SIZE_13, STR(2) );

  00127	6a 00		 push	 0
  00129	6a 02		 push	 2
  0012b	68 00 00 00 00	 push	 OFFSET ??_C@_00CNPNBAHC@?$AA@
  00130	53		 push	 ebx
  00131	ff d6		 call	 esi
  00133	8b c8		 mov	 ecx, eax
  00135	ff d7		 call	 edi
  00137	f3 0f 10 05 00
	00 00 00	 movss	 xmm0, DWORD PTR __real@3f266666
  0013f	50		 push	 eax
  00140	51		 push	 ecx
  00141	8d 85 90 fe ff
	ff		 lea	 eax, DWORD PTR _kPrinter$535849[ebp+32]
  00147	f3 0f 11 04 24	 movss	 DWORD PTR [esp], xmm0
  0014c	50		 push	 eax
  0014d	e8 00 00 00 00	 call	 ?AddTextPiece@ioComplexStringPrinter@@QAAXMPBDZZ ; ioComplexStringPrinter::AddTextPiece
  00152	83 c4 0c	 add	 esp, 12			; 0000000cH

; 1698 : 
; 1699 : 			g_GUIMgr.SetPrevMsgListBoxWithTitle( NULL, MB_OK, NULL, kPrinter, STR(3), STR(4), STR(5), STR(6) );

  00155	6a 01		 push	 1
  00157	6a 00		 push	 0
  00159	6a 06		 push	 6
  0015b	68 00 00 00 00	 push	 OFFSET ??_C@_00CNPNBAHC@?$AA@
  00160	53		 push	 ebx
  00161	ff d6		 call	 esi
  00163	8b c8		 mov	 ecx, eax
  00165	ff d7		 call	 edi
  00167	50		 push	 eax
  00168	6a 00		 push	 0
  0016a	6a 05		 push	 5
  0016c	68 00 00 00 00	 push	 OFFSET ??_C@_00CNPNBAHC@?$AA@
  00171	53		 push	 ebx
  00172	ff d6		 call	 esi
  00174	8b c8		 mov	 ecx, eax
  00176	ff d7		 call	 edi
  00178	50		 push	 eax
  00179	6a 00		 push	 0
  0017b	6a 04		 push	 4
  0017d	68 00 00 00 00	 push	 OFFSET ??_C@_00CNPNBAHC@?$AA@
  00182	53		 push	 ebx
  00183	ff d6		 call	 esi
  00185	8b c8		 mov	 ecx, eax
  00187	ff d7		 call	 edi
  00189	50		 push	 eax
  0018a	6a 00		 push	 0
  0018c	6a 03		 push	 3
  0018e	68 00 00 00 00	 push	 OFFSET ??_C@_00CNPNBAHC@?$AA@
  00193	53		 push	 ebx
  00194	ff d6		 call	 esi
  00196	8b c8		 mov	 ecx, eax
  00198	ff d7		 call	 edi
  0019a	50		 push	 eax
  0019b	8d 85 70 fe ff
	ff		 lea	 eax, DWORD PTR _kPrinter$535849[ebp]
  001a1	50		 push	 eax
  001a2	33 c0		 xor	 eax, eax
  001a4	50		 push	 eax
  001a5	50		 push	 eax
  001a6	50		 push	 eax
  001a7	e8 00 00 00 00	 call	 ?GetSingleton@ioSP2GUIManager@@SAAAV1@XZ ; ioSP2GUIManager::GetSingleton
  001ac	8b c8		 mov	 ecx, eax
  001ae	e8 00 00 00 00	 call	 ?SetPrevMsgListBoxWithTitle@ioSP2GUIManager@@QAEXPAVioWnd@@H0PAVioComplexStringPrinter@@PBD222W4TextAlignType@@@Z ; ioSP2GUIManager::SetPrevMsgListBoxWithTitle

; 1700 : 		}

  001b3	83 4d fc ff	 or	 DWORD PTR __$EHRec$[ebp+8], -1
  001b7	68 00 00 00 00	 push	 OFFSET ??1ioComplexStringPrinter@@QAE@XZ ; ioComplexStringPrinter::~ioComplexStringPrinter
  001bc	6a 0c		 push	 12			; 0000000cH
  001be	6a 20		 push	 32			; 00000020H
  001c0	8d 85 70 fe ff
	ff		 lea	 eax, DWORD PTR _kPrinter$535849[ebp]
  001c6	50		 push	 eax
  001c7	e8 00 00 00 00	 call	 ??_M@YGXPAXIHP6EX0@Z@Z

; 1701 : 		break;

  001cc	eb 0e		 jmp	 SHORT $LN6@iwm_comman
$LN7@iwm_comman:

; 1674 : 	{
; 1675 : 	case ID_EXIT:
; 1676 : 		if( cmd == IOBN_BTNUP )

  001ce	83 7d 0c 11	 cmp	 DWORD PTR _cmd$[ebp], 17 ; 00000011H
  001d2	75 08		 jne	 SHORT $LN6@iwm_comman

; 1677 : 		{
; 1678 : 			HideWnd();

  001d4	8b ce		 mov	 ecx, esi
  001d6	ff 15 00 00 00
	00		 call	 DWORD PTR __imp_?HideWnd@ioWnd@@QAEXXZ
$LN6@iwm_comman:

; 1713 : 	}
; 1714 : }

  001dc	e8 00 00 00 00	 call	 __EH_epilog3_GS
  001e1	c2 0c 00	 ret	 12			; 0000000cH
_TEXT	ENDS
;	COMDAT text$x
text$x	SEGMENT
__unwindfunclet$?iwm_command@GameOptionWnd@@UAEXPAVioWnd@@HK@Z$0:
  00000	68 00 00 00 00	 push	 OFFSET ??1ioComplexStringPrinter@@QAE@XZ ; ioComplexStringPrinter::~ioComplexStringPrinter
  00005	6a 0c		 push	 12			; 0000000cH
  00007	6a 20		 push	 32			; 00000020H
  00009	8d 85 70 fe ff
	ff		 lea	 eax, DWORD PTR _kPrinter$535849[ebp]
  0000f	50		 push	 eax
  00010	e8 00 00 00 00	 call	 ??_M@YGXPAXIHP6EX0@Z@Z
  00015	c3		 ret	 0
__ehhandler$?iwm_command@GameOptionWnd@@UAEXPAVioWnd@@HK@Z:
  00016	8b 54 24 08	 mov	 edx, DWORD PTR [esp+8]
  0001a	8d 42 0c	 lea	 eax, DWORD PTR [edx+12]
  0001d	8b 8a 6c fe ff
	ff		 mov	 ecx, DWORD PTR [edx-404]
  00023	33 c8		 xor	 ecx, eax
  00025	e8 00 00 00 00	 call	 @__security_check_cookie@4
  0002a	8b 4a fc	 mov	 ecx, DWORD PTR [edx-4]
  0002d	33 c8		 xor	 ecx, eax
  0002f	e8 00 00 00 00	 call	 @__security_check_cookie@4
  00034	b8 00 00 00 00	 mov	 eax, OFFSET __ehfuncinfo$?iwm_command@GameOptionWnd@@UAEXPAVioWnd@@HK@Z
  00039	e9 00 00 00 00	 jmp	 ___CxxFrameHandler3
text$x	ENDS
?iwm_command@GameOptionWnd@@UAEXPAVioWnd@@HK@Z ENDP	; GameOptionWnd::iwm_command
; Function compile flags: /Ogsp
;	COMDAT ??_GBackgroundChangeBtn@@UAEPAXI@Z
_TEXT	SEGMENT
___flags$ = 8						; size = 4
??_GBackgroundChangeBtn@@UAEPAXI@Z PROC			; BackgroundChangeBtn::`scalar deleting destructor', COMDAT
; _this$ = ecx
  00000	55		 push	 ebp
  00001	8b ec		 mov	 ebp, esp
  00003	56		 push	 esi
  00004	8b f1		 mov	 esi, ecx
  00006	e8 00 00 00 00	 call	 ??1BackgroundChangeBtn@@UAE@XZ ; BackgroundChangeBtn::~BackgroundChangeBtn
  0000b	f6 45 08 01	 test	 BYTE PTR ___flags$[ebp], 1
  0000f	74 07		 je	 SHORT $LN1@scalar@7
  00011	56		 push	 esi
  00012	e8 00 00 00 00	 call	 ??3@YAXPAX@Z		; operator delete
  00017	59		 pop	 ecx
$LN1@scalar@7:
  00018	8b c6		 mov	 eax, esi
  0001a	5e		 pop	 esi
  0001b	5d		 pop	 ebp
  0001c	c2 04 00	 ret	 4
??_GBackgroundChangeBtn@@UAEPAXI@Z ENDP			; BackgroundChangeBtn::`scalar deleting destructor'
_TEXT	ENDS
PUBLIC	__real@3f19999a
PUBLIC	??_C@_0BO@FECNOMID@BackgroundChangeBtn?3?3OnRender?$AA@ ; `string'
EXTRN	__imp_?IsClicked@ioWnd@@QBE_NXZ:PROC
EXTRN	__imp_?IsOver@ioWnd@@QBE_NXZ:PROC
EXTRN	__imp_?GetWidth@ioWnd@@QBEHXZ:PROC
EXTRN	__imp_?GetHeight@ioWnd@@QBEHXZ:PROC
EXTRN	__imp_?SetVertFormatting@ioUIRenderImage@@QAEXW4VertFormatting@1@@Z:PROC
EXTRN	__imp_?SetHorzFormatting@ioUIRenderImage@@QAEXW4HorzFormatting@1@@Z:PROC
;	COMDAT __real@3f19999a
; File d:\lost saga for developer\youtube\tutorial\source\src\lsclient\ioapplication.h
CONST	SEGMENT
__real@3f19999a DD 03f19999ar			; 0.6
CONST	ENDS
;	COMDAT ??_C@_0BO@FECNOMID@BackgroundChangeBtn?3?3OnRender?$AA@
CONST	SEGMENT
??_C@_0BO@FECNOMID@BackgroundChangeBtn?3?3OnRender?$AA@ DB 'BackgroundCha'
	DB	'ngeBtn::OnRender', 00H			; `string'
; Function compile flags: /Ogsp
; File d:\lost saga for developer\youtube\tutorial\source\src\lsclient\gui\gameoptionwnd.cpp
CONST	ENDS
;	COMDAT ?OnRender@BackgroundChangeBtn@@MAEXXZ
_TEXT	SEGMENT
tv464 = -16						; size = 4
tv463 = -12						; size = 4
_iXPos$ = -8						; size = 4
_iYPos$ = -4						; size = 4
?OnRender@BackgroundChangeBtn@@MAEXXZ PROC		; BackgroundChangeBtn::OnRender, COMDAT
; _this$ = ecx

; 1871 : {

  00000	55		 push	 ebp
  00001	8b ec		 mov	 ebp, esp
  00003	83 ec 10	 sub	 esp, 16			; 00000010H
  00006	53		 push	 ebx
  00007	56		 push	 esi
  00008	57		 push	 edi
  00009	8b f1		 mov	 esi, ecx

; 1872 : 	ioButton::OnRender();

  0000b	ff 15 00 00 00
	00		 call	 DWORD PTR __imp_?OnRender@ioButton@@MAEXXZ

; 1873 : 
; 1874 : 	int iXPos = GetDerivedPosX();

  00011	8b ce		 mov	 ecx, esi
  00013	ff 15 00 00 00
	00		 call	 DWORD PTR __imp_?GetDerivedPosX@ioWnd@@QBEHXZ

; 1875 : 	int iYPos = GetDerivedPosY();

  00019	8b ce		 mov	 ecx, esi
  0001b	89 45 f8	 mov	 DWORD PTR _iXPos$[ebp], eax
  0001e	ff 15 00 00 00
	00		 call	 DWORD PTR __imp_?GetDerivedPosY@ioWnd@@QBEHXZ

; 1876 : 
; 1877 : 	if( m_pCustomBack )

  00024	8b 8e 08 02 00
	00		 mov	 ecx, DWORD PTR [esi+520]
  0002a	33 db		 xor	 ebx, ebx
  0002c	89 45 fc	 mov	 DWORD PTR _iYPos$[ebp], eax
  0002f	3b cb		 cmp	 ecx, ebx
  00031	0f 84 ae 00 00
	00		 je	 $LN15@OnRender@4

; 1878 : 	{
; 1879 : 		m_pCustomBack->SetHorzFormatting( ioUIRenderImage::HF_STRETCH );

  00037	6a 03		 push	 3
  00039	ff 15 00 00 00
	00		 call	 DWORD PTR __imp_?SetHorzFormatting@ioUIRenderImage@@QAEXW4HorzFormatting@1@@Z

; 1880 : 		m_pCustomBack->SetVertFormatting( ioUIRenderImage::VF_STRETCH );

  0003f	8b 8e 08 02 00
	00		 mov	 ecx, DWORD PTR [esi+520]
  00045	6a 03		 push	 3
  00047	ff 15 00 00 00
	00		 call	 DWORD PTR __imp_?SetVertFormatting@ioUIRenderImage@@QAEXW4VertFormatting@1@@Z

; 1881 : 		m_pCustomBack->SetSize( GetWidth(), GetHeight() );

  0004d	8b 86 08 02 00
	00		 mov	 eax, DWORD PTR [esi+520]
  00053	8b 38		 mov	 edi, DWORD PTR [eax]
  00055	8b ce		 mov	 ecx, esi
  00057	ff 15 00 00 00
	00		 call	 DWORD PTR __imp_?GetHeight@ioWnd@@QBEHXZ
  0005d	50		 push	 eax
  0005e	8b ce		 mov	 ecx, esi
  00060	ff 15 00 00 00
	00		 call	 DWORD PTR __imp_?GetWidth@ioWnd@@QBEHXZ
  00066	8b 8e 08 02 00
	00		 mov	 ecx, DWORD PTR [esi+520]
  0006c	50		 push	 eax
  0006d	ff 57 10	 call	 DWORD PTR [edi+16]

; 1882 : 		m_pCustomBack->Render( iXPos, iYPos, UI_RENDER_NORMAL, TFO_BILINEAR );

  00070	8b 8e 08 02 00
	00		 mov	 ecx, DWORD PTR [esi+520]
  00076	66 0f 6e 45 fc	 movd	 xmm0, DWORD PTR _iYPos$[ebp]
  0007b	66 0f 6e 4d f8	 movd	 xmm1, DWORD PTR _iXPos$[ebp]
  00080	8b 01		 mov	 eax, DWORD PTR [ecx]
  00082	53		 push	 ebx
  00083	53		 push	 ebx
  00084	6a 01		 push	 1
  00086	53		 push	 ebx
  00087	51		 push	 ecx
  00088	51		 push	 ecx
  00089	0f 5b c0	 cvtdq2ps xmm0, xmm0
  0008c	0f 5b c9	 cvtdq2ps xmm1, xmm1
  0008f	f3 0f 11 44 24
	04		 movss	 DWORD PTR [esp+4], xmm0
  00095	f3 0f 11 45 f4	 movss	 DWORD PTR tv463[ebp], xmm0
  0009a	f3 0f 11 4d f0	 movss	 DWORD PTR tv464[ebp], xmm1
  0009f	f3 0f 11 0c 24	 movss	 DWORD PTR [esp], xmm1
  000a4	ff 10		 call	 DWORD PTR [eax]

; 1883 : 
; 1884 : 		if( IsOver() || IsClicked() )

  000a6	8b ce		 mov	 ecx, esi
  000a8	ff 15 00 00 00
	00		 call	 DWORD PTR __imp_?IsOver@ioWnd@@QBE_NXZ
  000ae	84 c0		 test	 al, al
  000b0	75 0c		 jne	 SHORT $LN14@OnRender@4
  000b2	8b ce		 mov	 ecx, esi
  000b4	ff 15 00 00 00
	00		 call	 DWORD PTR __imp_?IsClicked@ioWnd@@QBE_NXZ
  000ba	84 c0		 test	 al, al
  000bc	74 27		 je	 SHORT $LN15@OnRender@4
$LN14@OnRender@4:

; 1885 : 			m_pCustomBack->Render( iXPos, iYPos, UI_RENDER_SCREEN, TFO_BILINEAR );

  000be	8b 8e 08 02 00
	00		 mov	 ecx, DWORD PTR [esi+520]
  000c4	f3 0f 10 45 f4	 movss	 xmm0, DWORD PTR tv463[ebp]
  000c9	8b 01		 mov	 eax, DWORD PTR [ecx]
  000cb	53		 push	 ebx
  000cc	53		 push	 ebx
  000cd	6a 01		 push	 1
  000cf	6a 01		 push	 1
  000d1	51		 push	 ecx
  000d2	51		 push	 ecx
  000d3	f3 0f 11 44 24
	04		 movss	 DWORD PTR [esp+4], xmm0
  000d9	f3 0f 10 45 f0	 movss	 xmm0, DWORD PTR tv464[ebp]
  000de	f3 0f 11 04 24	 movss	 DWORD PTR [esp], xmm0
  000e3	ff 10		 call	 DWORD PTR [eax]
$LN15@OnRender@4:

; 1886 : 	}
; 1887 : 
; 1888 : 	if( m_pStripBlack )

  000e5	39 9e 00 02 00
	00		 cmp	 DWORD PTR [esi+512], ebx
  000eb	74 3f		 je	 SHORT $LN21@OnRender@4

; 1889 : 	{
; 1890 : 		m_pStripBlack->SetAlpha( (float)MAX_ALPHA_RATE * 0.4f );

  000ed	8b 8e 00 02 00
	00		 mov	 ecx, DWORD PTR [esi+512]
  000f3	8b 01		 mov	 eax, DWORD PTR [ecx]
  000f5	6a 66		 push	 102			; 00000066H
  000f7	ff 50 30	 call	 DWORD PTR [eax+48]

; 1891 : 		m_pStripBlack->Render( iXPos, iYPos + 74 );

  000fa	8b 4d fc	 mov	 ecx, DWORD PTR _iYPos$[ebp]
  000fd	8b be 00 02 00
	00		 mov	 edi, DWORD PTR [esi+512]
  00103	8b 07		 mov	 eax, DWORD PTR [edi]
  00105	53		 push	 ebx
  00106	53		 push	 ebx
  00107	53		 push	 ebx
  00108	83 c1 4a	 add	 ecx, 74			; 0000004aH
  0010b	53		 push	 ebx
  0010c	51		 push	 ecx
  0010d	0f 57 c0	 xorps	 xmm0, xmm0
  00110	f3 0f 2a c1	 cvtsi2ss xmm0, ecx
  00114	51		 push	 ecx
  00115	f3 0f 11 44 24
	04		 movss	 DWORD PTR [esp+4], xmm0
  0011b	66 0f 6e 45 f8	 movd	 xmm0, DWORD PTR _iXPos$[ebp]
  00120	0f 5b c0	 cvtdq2ps xmm0, xmm0
  00123	8b cf		 mov	 ecx, edi
  00125	f3 0f 11 04 24	 movss	 DWORD PTR [esp], xmm0
  0012a	ff 10		 call	 DWORD PTR [eax]
$LN21@OnRender@4:

; 1892 : 	}
; 1893 : 
; 1894 : 	if( m_pLineFrame )

  0012c	39 9e 04 02 00
	00		 cmp	 DWORD PTR [esi+516], ebx
  00132	74 35		 je	 SHORT $LN12@OnRender@4

; 1895 : 	{
; 1896 : 		m_pLineFrame->Render( iXPos - 2, iYPos - 2 );

  00134	8b 8e 04 02 00
	00		 mov	 ecx, DWORD PTR [esi+516]
  0013a	8b 55 fc	 mov	 edx, DWORD PTR _iYPos$[ebp]
  0013d	8b 01		 mov	 eax, DWORD PTR [ecx]
  0013f	53		 push	 ebx
  00140	53		 push	 ebx
  00141	53		 push	 ebx
  00142	53		 push	 ebx
  00143	83 c2 fe	 add	 edx, -2			; fffffffeH
  00146	0f 57 c0	 xorps	 xmm0, xmm0
  00149	f3 0f 2a c2	 cvtsi2ss xmm0, edx
  0014d	8b 55 f8	 mov	 edx, DWORD PTR _iXPos$[ebp]
  00150	51		 push	 ecx
  00151	51		 push	 ecx
  00152	f3 0f 11 44 24
	04		 movss	 DWORD PTR [esp+4], xmm0
  00158	83 c2 fe	 add	 edx, -2			; fffffffeH
  0015b	0f 57 c0	 xorps	 xmm0, xmm0
  0015e	f3 0f 2a c2	 cvtsi2ss xmm0, edx
  00162	f3 0f 11 04 24	 movss	 DWORD PTR [esp], xmm0
  00167	ff 10		 call	 DWORD PTR [eax]
$LN12@OnRender@4:

; 1897 : 	}
; 1898 : 
; 1899 : 	g_FontMgr.SetAlignType( TAT_RIGHT );

  00169	8b 3d 00 00 00
	00		 mov	 edi, DWORD PTR __imp_?GetSingleton@ioFontManager@@SAAAV1@XZ
  0016f	6a 02		 push	 2
  00171	ff d7		 call	 edi
  00173	8b c8		 mov	 ecx, eax
  00175	ff 15 00 00 00
	00		 call	 DWORD PTR __imp_?SetAlignType@ioFontManager@@QAEXW4TextAlignType@@@Z

; 1900 : 	g_FontMgr.SetTextStyle( TS_NORMAL );

  0017b	53		 push	 ebx
  0017c	ff d7		 call	 edi
  0017e	8b c8		 mov	 ecx, eax
  00180	ff 15 00 00 00
	00		 call	 DWORD PTR __imp_?SetTextStyle@ioFontManager@@QAEXW4TextStyle@@@Z

; 1901 : 	g_FontMgr.SetBkColor( 0, 0, 0 );

  00186	53		 push	 ebx
  00187	53		 push	 ebx
  00188	53		 push	 ebx
  00189	ff d7		 call	 edi
  0018b	8b c8		 mov	 ecx, eax
  0018d	ff 15 00 00 00
	00		 call	 DWORD PTR __imp_?SetBkColor@ioFontManager@@QAEXHHH@Z

; 1902 : 	g_FontMgr.SetTextColor( TCT_DEFAULT_WHITE );

  00193	6a ff		 push	 -1
  00195	ff d7		 call	 edi
  00197	8b c8		 mov	 ecx, eax
  00199	ff 15 00 00 00
	00		 call	 DWORD PTR __imp_?SetTextColor@ioFontManager@@QAEXK@Z

; 1903 : 	if( GetID() == BackgroundChangeWnd::ID_LOBBY_CHANGE )

  0019f	8b ce		 mov	 ecx, esi
  001a1	ff 15 00 00 00
	00		 call	 DWORD PTR __imp_?GetID@ioWnd@@QBEKXZ
  001a7	83 f8 02	 cmp	 eax, 2
  001aa	75 05		 jne	 SHORT $LN11@OnRender@4
$LN23@OnRender@4:

; 1904 : 	{
; 1905 : 		g_FontMgr.PrintText( iXPos + 116, iYPos + 75, FONT_SIZE_12, STR(1) );

  001ac	53		 push	 ebx
  001ad	6a 01		 push	 1
  001af	eb 4e		 jmp	 SHORT $LN22@OnRender@4
$LN11@OnRender@4:

; 1906 : 	}
; 1907 : 	else if( GetID() == BackgroundChangeWnd::ID_LOADING_CHANGE )

  001b1	8b ce		 mov	 ecx, esi
  001b3	ff 15 00 00 00
	00		 call	 DWORD PTR __imp_?GetID@ioWnd@@QBEKXZ
  001b9	83 f8 03	 cmp	 eax, 3

; 1908 : 	{
; 1909 : 		g_FontMgr.PrintText( iXPos + 116, iYPos + 75, FONT_SIZE_12, STR(2) );

  001bc	74 3e		 je	 SHORT $LN2@OnRender@4

; 1910 : 	}
; 1911 : 	else if( GetID() == BackgroundChangeWnd::ID_BATTLE_CHANGE )

  001be	8b ce		 mov	 ecx, esi
  001c0	ff 15 00 00 00
	00		 call	 DWORD PTR __imp_?GetID@ioWnd@@QBEKXZ
  001c6	83 f8 04	 cmp	 eax, 4
  001c9	75 05		 jne	 SHORT $LN7@OnRender@4

; 1912 : 	{
; 1913 : 		g_FontMgr.PrintText( iXPos + 116, iYPos + 75, FONT_SIZE_12, STR(3) );

  001cb	53		 push	 ebx
  001cc	6a 03		 push	 3
  001ce	eb 2f		 jmp	 SHORT $LN22@OnRender@4
$LN7@OnRender@4:

; 1914 : 	}
; 1915 : 	else if( GetID() == BackgroundChangeWnd::ID_LADDER_CHANGE )

  001d0	8b ce		 mov	 ecx, esi
  001d2	ff 15 00 00 00
	00		 call	 DWORD PTR __imp_?GetID@ioWnd@@QBEKXZ
  001d8	83 f8 05	 cmp	 eax, 5
  001db	75 05		 jne	 SHORT $LN5@OnRender@4

; 1916 : 	{
; 1917 : 		g_FontMgr.PrintText( iXPos + 116, iYPos + 75, FONT_SIZE_12, STR(4) );

  001dd	53		 push	 ebx
  001de	6a 04		 push	 4
  001e0	eb 1d		 jmp	 SHORT $LN22@OnRender@4
$LN5@OnRender@4:

; 1918 : 	}
; 1919 : 	else if( GetID() == BackgroundChangeWnd::ID_MODE_FIND_CHANGE )

  001e2	8b ce		 mov	 ecx, esi
  001e4	ff 15 00 00 00
	00		 call	 DWORD PTR __imp_?GetID@ioWnd@@QBEKXZ
  001ea	83 f8 06	 cmp	 eax, 6
  001ed	75 6b		 jne	 SHORT $LN1@OnRender@4

; 1920 : 	{
; 1921 : 		if( g_App.GetConnectedMoveMode() == ioApplication::CMM_PLAZA )

  001ef	e8 00 00 00 00	 call	 ?GetSingleton@ioApplication@@SAAAV1@XZ ; ioApplication::GetSingleton
  001f4	39 98 ac 06 00
	00		 cmp	 DWORD PTR [eax+1708], ebx

; 1922 : 		{
; 1923 : 			g_FontMgr.PrintText( iXPos + 116, iYPos + 75, FONT_SIZE_12, STR(1) );
; 1924 : 		}
; 1925 : 		else

  001fa	74 b0		 je	 SHORT $LN23@OnRender@4
$LN2@OnRender@4:

; 1926 : 		{
; 1927 : 			g_FontMgr.PrintText( iXPos + 116, iYPos + 75, FONT_SIZE_12, STR(2) );

  001fc	53		 push	 ebx
  001fd	6a 02		 push	 2
$LN22@OnRender@4:
  001ff	68 00 00 00 00	 push	 OFFSET ??_C@_00CNPNBAHC@?$AA@
  00204	68 00 00 00 00	 push	 OFFSET ??_C@_0BO@FECNOMID@BackgroundChangeBtn?3?3OnRender?$AA@
  00209	ff 15 00 00 00
	00		 call	 DWORD PTR __imp_?GetSingleton@ioStringManager@@SAAAV1@XZ
  0020f	8b c8		 mov	 ecx, eax
  00211	ff 15 00 00 00
	00		 call	 DWORD PTR __imp_?GetString@ioStringManager@@QAEPADPBD0HW4FileNamePrefix@1@@Z
  00217	f3 0f 10 05 00
	00 00 00	 movss	 xmm0, DWORD PTR __real@3f19999a
  0021f	50		 push	 eax
  00220	8b 45 fc	 mov	 eax, DWORD PTR _iYPos$[ebp]
  00223	83 ec 0c	 sub	 esp, 12			; 0000000cH
  00226	f3 0f 11 44 24
	08		 movss	 DWORD PTR [esp+8], xmm0
  0022c	83 c0 4b	 add	 eax, 75			; 0000004bH
  0022f	0f 57 c0	 xorps	 xmm0, xmm0
  00232	f3 0f 2a c0	 cvtsi2ss xmm0, eax
  00236	8b 45 f8	 mov	 eax, DWORD PTR _iXPos$[ebp]
  00239	f3 0f 11 44 24
	04		 movss	 DWORD PTR [esp+4], xmm0
  0023f	83 c0 74	 add	 eax, 116		; 00000074H
  00242	0f 57 c0	 xorps	 xmm0, xmm0
  00245	f3 0f 2a c0	 cvtsi2ss xmm0, eax
  00249	f3 0f 11 04 24	 movss	 DWORD PTR [esp], xmm0
  0024e	ff d7		 call	 edi
  00250	50		 push	 eax
  00251	ff 15 00 00 00
	00		 call	 DWORD PTR __imp_?PrintText@ioFontManager@@QAAXMMMPBDZZ
  00257	83 c4 14	 add	 esp, 20			; 00000014H
$LN1@OnRender@4:
  0025a	5f		 pop	 edi
  0025b	5e		 pop	 esi
  0025c	5b		 pop	 ebx

; 1928 : 		}
; 1929 : 	}
; 1930 : }

  0025d	c9		 leave
  0025e	c3		 ret	 0
?OnRender@BackgroundChangeBtn@@MAEXXZ ENDP		; BackgroundChangeBtn::OnRender
; Function compile flags: /Ogsp
_TEXT	ENDS
;	COMDAT ??_GBackgroundChangeWnd@@UAEPAXI@Z
_TEXT	SEGMENT
___flags$ = 8						; size = 4
??_GBackgroundChangeWnd@@UAEPAXI@Z PROC			; BackgroundChangeWnd::`scalar deleting destructor', COMDAT
; _this$ = ecx
  00000	55		 push	 ebp
  00001	8b ec		 mov	 ebp, esp
  00003	56		 push	 esi
  00004	8b f1		 mov	 esi, ecx
  00006	e8 00 00 00 00	 call	 ??1BackgroundChangeWnd@@UAE@XZ ; BackgroundChangeWnd::~BackgroundChangeWnd
  0000b	f6 45 08 01	 test	 BYTE PTR ___flags$[ebp], 1
  0000f	74 07		 je	 SHORT $LN1@scalar@8
  00011	56		 push	 esi
  00012	e8 00 00 00 00	 call	 ??3@YAXPAX@Z		; operator delete
  00017	59		 pop	 ecx
$LN1@scalar@8:
  00018	8b c6		 mov	 eax, esi
  0001a	5e		 pop	 esi
  0001b	5d		 pop	 ebp
  0001c	c2 04 00	 ret	 4
??_GBackgroundChangeWnd@@UAEPAXI@Z ENDP			; BackgroundChangeWnd::`scalar deleting destructor'
; Function compile flags: /Ogsp
_TEXT	ENDS
;	COMDAT ?iwm_show@BackgroundChangeWnd@@UAEXXZ
_TEXT	SEGMENT
?iwm_show@BackgroundChangeWnd@@UAEXXZ PROC		; BackgroundChangeWnd::iwm_show, COMDAT
; _this$ = ecx

; 1943 : {

  00000	53		 push	 ebx
  00001	56		 push	 esi
  00002	57		 push	 edi
  00003	8b f9		 mov	 edi, ecx

; 1944 : 	if( g_App.GetConnectedMoveMode() == ioApplication::CMM_LOBBY )

  00005	e8 00 00 00 00	 call	 ?GetSingleton@ioApplication@@SAAAV1@XZ ; ioApplication::GetSingleton

; 1945 : 	{
; 1946 : 		HideChildWnd( ID_MODE_FIND_CHANGE );

  0000a	33 db		 xor	 ebx, ebx
  0000c	83 b8 ac 06 00
	00 02		 cmp	 DWORD PTR [eax+1708], 2
  00013	53		 push	 ebx
  00014	8b cf		 mov	 ecx, edi
  00016	6a 06		 push	 6
  00018	75 15		 jne	 SHORT $LN2@iwm_show@4
  0001a	ff 15 00 00 00
	00		 call	 DWORD PTR __imp_?HideChildWnd@ioWnd@@QAEXK_N@Z

; 1947 : 		ShowChildWnd( ID_LOBBY_CHANGE );

  00020	8b 35 00 00 00
	00		 mov	 esi, DWORD PTR __imp_?ShowChildWnd@ioWnd@@QAEXK_N@Z
  00026	53		 push	 ebx
  00027	6a 02		 push	 2
  00029	8b cf		 mov	 ecx, edi
  0002b	ff d6		 call	 esi

; 1948 : 	}
; 1949 : 	else

  0002d	eb 13		 jmp	 SHORT $LN1@iwm_show@4
$LN2@iwm_show@4:

; 1950 : 	{
; 1951 : 		ShowChildWnd( ID_MODE_FIND_CHANGE );

  0002f	8b 35 00 00 00
	00		 mov	 esi, DWORD PTR __imp_?ShowChildWnd@ioWnd@@QAEXK_N@Z
  00035	ff d6		 call	 esi

; 1952 : 		HideChildWnd( ID_LOBBY_CHANGE );

  00037	53		 push	 ebx
  00038	6a 02		 push	 2
  0003a	8b cf		 mov	 ecx, edi
  0003c	ff 15 00 00 00
	00		 call	 DWORD PTR __imp_?HideChildWnd@ioWnd@@QAEXK_N@Z
$LN1@iwm_show@4:

; 1953 : 	}
; 1954 : 
; 1955 : 	ShowChildWnd( ID_LOADING_CHANGE );

  00042	53		 push	 ebx
  00043	6a 03		 push	 3
  00045	8b cf		 mov	 ecx, edi
  00047	ff d6		 call	 esi

; 1956 : 	ShowChildWnd( ID_BATTLE_CHANGE );

  00049	53		 push	 ebx
  0004a	6a 04		 push	 4
  0004c	8b cf		 mov	 ecx, edi
  0004e	ff d6		 call	 esi

; 1957 : 	ShowChildWnd( ID_LADDER_CHANGE );

  00050	53		 push	 ebx
  00051	6a 05		 push	 5
  00053	8b cf		 mov	 ecx, edi
  00055	ff d6		 call	 esi
  00057	5f		 pop	 edi
  00058	5e		 pop	 esi
  00059	5b		 pop	 ebx

; 1958 : }

  0005a	c3		 ret	 0
?iwm_show@BackgroundChangeWnd@@UAEXXZ ENDP		; BackgroundChangeWnd::iwm_show
; Function compile flags: /Ogsp
_TEXT	ENDS
;	COMDAT ?iwm_command@BackgroundChangeWnd@@UAEXPAVioWnd@@HK@Z
_TEXT	SEGMENT
_pWnd$ = 8						; size = 4
_cmd$ = 12						; size = 4
_param$ = 16						; size = 4
?iwm_command@BackgroundChangeWnd@@UAEXPAVioWnd@@HK@Z PROC ; BackgroundChangeWnd::iwm_command, COMDAT
; _this$ = ecx

; 1970 : {

  00000	55		 push	 ebp
  00001	8b ec		 mov	 ebp, esp
  00003	56		 push	 esi
  00004	8b f1		 mov	 esi, ecx

; 1971 : 	DWORD dwID = pWnd->GetID();

  00006	8b 4d 08	 mov	 ecx, DWORD PTR _pWnd$[ebp]
  00009	ff 15 00 00 00
	00		 call	 DWORD PTR __imp_?GetID@ioWnd@@QBEKXZ

; 1972 : 	switch( dwID )

  0000f	48		 dec	 eax
  00010	74 57		 je	 SHORT $LN13@iwm_comman@2
  00012	48		 dec	 eax
  00013	74 42		 je	 SHORT $LN11@iwm_comman@2
  00015	48		 dec	 eax
  00016	74 35		 je	 SHORT $LN9@iwm_comman@2
  00018	48		 dec	 eax
  00019	74 28		 je	 SHORT $LN7@iwm_comman@2
  0001b	48		 dec	 eax
  0001c	74 1b		 je	 SHORT $LN5@iwm_comman@2
  0001e	48		 dec	 eax
  0001f	75 56		 jne	 SHORT $LN12@iwm_comman@2

; 2002 : 	case ID_MODE_FIND_CHANGE:
; 2003 : 		if( cmd == IOBN_BTNUP )

  00021	83 7d 0c 11	 cmp	 DWORD PTR _cmd$[ebp], 17 ; 00000011H
  00025	75 50		 jne	 SHORT $LN12@iwm_comman@2

; 2004 : 		{
; 2005 : 			///     
; 2006 : 			if( g_App.GetConnectedMoveMode() != ioApplication::CMM_LOBBY )

  00027	e8 00 00 00 00	 call	 ?GetSingleton@ioApplication@@SAAAV1@XZ ; ioApplication::GetSingleton
  0002c	83 b8 ac 06 00
	00 02		 cmp	 DWORD PTR [eax+1708], 2
  00033	74 42		 je	 SHORT $LN12@iwm_comman@2

; 2007 : 			{
; 2008 : 				OpenFileListWnd( this, FileListWnd::RWT_MODE_FIND_BACK_CHANGE_WND );

  00035	6a 08		 push	 8

; 2009 : 			}
; 2010 : 		}
; 2011 : 		break;

  00037	eb 26		 jmp	 SHORT $LN20@iwm_comman@2
$LN5@iwm_comman@2:

; 1996 : 	case ID_LADDER_CHANGE:
; 1997 : 		if( cmd == IOBN_BTNUP )

  00039	83 7d 0c 11	 cmp	 DWORD PTR _cmd$[ebp], 17 ; 00000011H
  0003d	75 38		 jne	 SHORT $LN12@iwm_comman@2

; 1998 : 		{
; 1999 : 			OpenFileListWnd( this, FileListWnd::RWT_LADDER_BACK_CHANGE_WND );

  0003f	6a 06		 push	 6

; 2000 : 		}
; 2001 : 		break;	

  00041	eb 1c		 jmp	 SHORT $LN20@iwm_comman@2
$LN7@iwm_comman@2:

; 1990 : 	case ID_BATTLE_CHANGE:
; 1991 : 		if( cmd == IOBN_BTNUP )

  00043	83 7d 0c 11	 cmp	 DWORD PTR _cmd$[ebp], 17 ; 00000011H
  00047	75 2e		 jne	 SHORT $LN12@iwm_comman@2

; 1992 : 		{
; 1993 : 			OpenFileListWnd( this, FileListWnd::RWT_BATTLE_BACK_CHANGE_WND );

  00049	6a 05		 push	 5

; 1994 : 		}
; 1995 : 		break;

  0004b	eb 12		 jmp	 SHORT $LN20@iwm_comman@2
$LN9@iwm_comman@2:

; 1984 : 	case ID_LOADING_CHANGE:
; 1985 : 		if( cmd == IOBN_BTNUP )

  0004d	83 7d 0c 11	 cmp	 DWORD PTR _cmd$[ebp], 17 ; 00000011H
  00051	75 24		 jne	 SHORT $LN12@iwm_comman@2

; 1986 : 		{
; 1987 : 			OpenFileListWnd( this, FileListWnd::RWT_LOADING_BACK_CHANGE_WND );

  00053	6a 04		 push	 4

; 1988 : 		}
; 1989 : 		break;

  00055	eb 08		 jmp	 SHORT $LN20@iwm_comman@2
$LN11@iwm_comman@2:

; 1977 : 		break;
; 1978 : 	case ID_LOBBY_CHANGE:
; 1979 : 		if( cmd == IOBN_BTNUP )

  00057	83 7d 0c 11	 cmp	 DWORD PTR _cmd$[ebp], 17 ; 00000011H
  0005b	75 1a		 jne	 SHORT $LN12@iwm_comman@2

; 1980 : 		{
; 1981 : 			OpenFileListWnd( this, FileListWnd::RWT_LOBBY_BACK_CHANGE_WND );

  0005d	6a 03		 push	 3
$LN20@iwm_comman@2:
  0005f	56		 push	 esi
  00060	8b ce		 mov	 ecx, esi
  00062	e8 00 00 00 00	 call	 ?OpenFileListWnd@BackgroundChangeWnd@@IAEXPAVioWnd@@H@Z ; BackgroundChangeWnd::OpenFileListWnd

; 1982 : 		}
; 1983 : 		break;

  00067	eb 0e		 jmp	 SHORT $LN12@iwm_comman@2
$LN13@iwm_comman@2:

; 1973 : 	{
; 1974 : 	case ID_EXIT:
; 1975 : 		if( cmd == IOBN_BTNUP )

  00069	83 7d 0c 11	 cmp	 DWORD PTR _cmd$[ebp], 17 ; 00000011H
  0006d	75 08		 jne	 SHORT $LN12@iwm_comman@2

; 1976 : 			HideWnd();

  0006f	8b ce		 mov	 ecx, esi
  00071	ff 15 00 00 00
	00		 call	 DWORD PTR __imp_?HideWnd@ioWnd@@QAEXXZ
$LN12@iwm_comman@2:
  00077	5e		 pop	 esi

; 2012 : 	}
; 2013 : }

  00078	5d		 pop	 ebp
  00079	c2 0c 00	 ret	 12			; 0000000cH
?iwm_command@BackgroundChangeWnd@@UAEXPAVioWnd@@HK@Z ENDP ; BackgroundChangeWnd::iwm_command
_TEXT	ENDS
PUBLIC	?max_size@?$vector@V?$basic_string@DU?$char_traits@D@std@@V?$allocator@D@2@@std@@V?$allocator@V?$basic_string@DU?$char_traits@D@std@@V?$allocator@D@2@@std@@@2@@std@@QBEIXZ ; std::vector<std::basic_string<char,std::char_traits<char>,std::allocator<char> >,std::allocator<std::basic_string<char,std::char_traits<char>,std::allocator<char> > > >::max_size
; Function compile flags: /Ogsp
; File c:\program files (x86)\microsoft visual studio 10.0\vc\include\vector
;	COMDAT ?max_size@?$vector@V?$basic_string@DU?$char_traits@D@std@@V?$allocator@D@2@@std@@V?$allocator@V?$basic_string@DU?$char_traits@D@std@@V?$allocator@D@2@@std@@@2@@std@@QBEIXZ
_TEXT	SEGMENT
?max_size@?$vector@V?$basic_string@DU?$char_traits@D@std@@V?$allocator@D@2@@std@@V?$allocator@V?$basic_string@DU?$char_traits@D@std@@V?$allocator@D@2@@std@@@2@@std@@QBEIXZ PROC ; std::vector<std::basic_string<char,std::char_traits<char>,std::allocator<char> >,std::allocator<std::basic_string<char,std::char_traits<char>,std::allocator<char> > > >::max_size, COMDAT
; _this$ = ecx

; 884  : 		return (this->_Alval.max_size());

  00000	b8 49 92 24 09	 mov	 eax, 153391689		; 09249249H

; 885  : 		}

  00005	c3		 ret	 0
?max_size@?$vector@V?$basic_string@DU?$char_traits@D@std@@V?$allocator@D@2@@std@@V?$allocator@V?$basic_string@DU?$char_traits@D@std@@V?$allocator@D@2@@std@@@2@@std@@QBEIXZ ENDP ; std::vector<std::basic_string<char,std::char_traits<char>,std::allocator<char> >,std::allocator<std::basic_string<char,std::char_traits<char>,std::allocator<char> > > >::max_size
_TEXT	ENDS
PUBLIC	??0?$_Vector_val@V?$basic_string@DU?$char_traits@D@std@@V?$allocator@D@2@@std@@V?$allocator@V?$basic_string@DU?$char_traits@D@std@@V?$allocator@D@2@@std@@@2@@std@@QAE@V?$allocator@V?$basic_string@DU?$char_traits@D@std@@V?$allocator@D@2@@std@@@1@@Z ; std::_Vector_val<std::basic_string<char,std::char_traits<char>,std::allocator<char> >,std::allocator<std::basic_string<char,std::char_traits<char>,std::allocator<char> > > >::_Vector_val<std::basic_string<char,std::char_traits<char>,std::allocator<char> >,std::allocator<std::basic_string<char,std::char_traits<char>,std::allocator<char> > > >
; Function compile flags: /Ogsp
;	COMDAT ??0?$_Vector_val@V?$basic_string@DU?$char_traits@D@std@@V?$allocator@D@2@@std@@V?$allocator@V?$basic_string@DU?$char_traits@D@std@@V?$allocator@D@2@@std@@@2@@std@@QAE@V?$allocator@V?$basic_string@DU?$char_traits@D@std@@V?$allocator@D@2@@std@@@1@@Z
_TEXT	SEGMENT
__Al$ = 8						; size = 1
??0?$_Vector_val@V?$basic_string@DU?$char_traits@D@std@@V?$allocator@D@2@@std@@V?$allocator@V?$basic_string@DU?$char_traits@D@std@@V?$allocator@D@2@@std@@@2@@std@@QAE@V?$allocator@V?$basic_string@DU?$char_traits@D@std@@V?$allocator@D@2@@std@@@1@@Z PROC ; std::_Vector_val<std::basic_string<char,std::char_traits<char>,std::allocator<char> >,std::allocator<std::basic_string<char,std::char_traits<char>,std::allocator<char> > > >::_Vector_val<std::basic_string<char,std::char_traits<char>,std::allocator<char> >,std::allocator<std::basic_string<char,std::char_traits<char>,std::allocator<char> > > >, COMDAT
; _this$ = ecx

; 426  : 		{	// construct allocator from _Al

  00000	8b c1		 mov	 eax, ecx

; 427  : 		_Myfirst = 0;

  00002	33 c9		 xor	 ecx, ecx
  00004	89 08		 mov	 DWORD PTR [eax], ecx

; 428  : 		_Mylast = 0;

  00006	89 48 04	 mov	 DWORD PTR [eax+4], ecx

; 429  : 		_Myend = 0;

  00009	89 48 08	 mov	 DWORD PTR [eax+8], ecx

; 430  : 		}

  0000c	c2 04 00	 ret	 4
??0?$_Vector_val@V?$basic_string@DU?$char_traits@D@std@@V?$allocator@D@2@@std@@V?$allocator@V?$basic_string@DU?$char_traits@D@std@@V?$allocator@D@2@@std@@@2@@std@@QAE@V?$allocator@V?$basic_string@DU?$char_traits@D@std@@V?$allocator@D@2@@std@@@1@@Z ENDP ; std::_Vector_val<std::basic_string<char,std::char_traits<char>,std::allocator<char> >,std::allocator<std::basic_string<char,std::char_traits<char>,std::allocator<char> > > >::_Vector_val<std::basic_string<char,std::char_traits<char>,std::allocator<char> >,std::allocator<std::basic_string<char,std::char_traits<char>,std::allocator<char> > > >
_TEXT	ENDS
PUBLIC	?allocate@?$allocator@V?$basic_string@DU?$char_traits@D@std@@V?$allocator@D@2@@std@@@std@@QAEPAV?$basic_string@DU?$char_traits@D@std@@V?$allocator@D@2@@2@I@Z ; std::allocator<std::basic_string<char,std::char_traits<char>,std::allocator<char> > >::allocate
; Function compile flags: /Ogsp
; File c:\program files (x86)\microsoft visual studio 10.0\vc\include\xmemory
;	COMDAT ?allocate@?$allocator@V?$basic_string@DU?$char_traits@D@std@@V?$allocator@D@2@@std@@@std@@QAEPAV?$basic_string@DU?$char_traits@D@std@@V?$allocator@D@2@@2@I@Z
_TEXT	SEGMENT
__Count$ = 8						; size = 4
?allocate@?$allocator@V?$basic_string@DU?$char_traits@D@std@@V?$allocator@D@2@@std@@@std@@QAEPAV?$basic_string@DU?$char_traits@D@std@@V?$allocator@D@2@@2@I@Z PROC ; std::allocator<std::basic_string<char,std::char_traits<char>,std::allocator<char> > >::allocate, COMDAT
; _this$ = ecx

; 186  : 		{	// allocate array of _Count elements

  00000	55		 push	 ebp
  00001	8b ec		 mov	 ebp, esp

; 187  : 		return (_Allocate(_Count, (pointer)0));

  00003	6a 00		 push	 0
  00005	ff 75 08	 push	 DWORD PTR __Count$[ebp]
  00008	e8 00 00 00 00	 call	 ??$_Allocate@V?$basic_string@DU?$char_traits@D@std@@V?$allocator@D@2@@std@@@std@@YAPAV?$basic_string@DU?$char_traits@D@std@@V?$allocator@D@2@@0@IPAV10@@Z ; std::_Allocate<std::basic_string<char,std::char_traits<char>,std::allocator<char> > >
  0000d	59		 pop	 ecx
  0000e	59		 pop	 ecx

; 188  : 		}

  0000f	5d		 pop	 ebp
  00010	c2 04 00	 ret	 4
?allocate@?$allocator@V?$basic_string@DU?$char_traits@D@std@@V?$allocator@D@2@@std@@@std@@QAEPAV?$basic_string@DU?$char_traits@D@std@@V?$allocator@D@2@@2@I@Z ENDP ; std::allocator<std::basic_string<char,std::char_traits<char>,std::allocator<char> > >::allocate
_TEXT	ENDS
PUBLIC	?_Grow_to@?$vector@V?$basic_string@DU?$char_traits@D@std@@V?$allocator@D@2@@std@@V?$allocator@V?$basic_string@DU?$char_traits@D@std@@V?$allocator@D@2@@std@@@2@@std@@IBEII@Z ; std::vector<std::basic_string<char,std::char_traits<char>,std::allocator<char> >,std::allocator<std::basic_string<char,std::char_traits<char>,std::allocator<char> > > >::_Grow_to
; Function compile flags: /Ogsp
; File c:\program files (x86)\microsoft visual studio 10.0\vc\include\vector
;	COMDAT ?_Grow_to@?$vector@V?$basic_string@DU?$char_traits@D@std@@V?$allocator@D@2@@std@@V?$allocator@V?$basic_string@DU?$char_traits@D@std@@V?$allocator@D@2@@std@@@2@@std@@IBEII@Z
_TEXT	SEGMENT
__Count$ = 8						; size = 4
?_Grow_to@?$vector@V?$basic_string@DU?$char_traits@D@std@@V?$allocator@D@2@@std@@V?$allocator@V?$basic_string@DU?$char_traits@D@std@@V?$allocator@D@2@@std@@@2@@std@@IBEII@Z PROC ; std::vector<std::basic_string<char,std::char_traits<char>,std::allocator<char> >,std::allocator<std::basic_string<char,std::char_traits<char>,std::allocator<char> > > >::_Grow_to, COMDAT
; _this$ = ecx

; 1274 : 		{	// grow by 50% or at least to _Count

  00000	55		 push	 ebp
  00001	8b ec		 mov	 ebp, esp

; 1275 : 		size_type _Capacity = capacity();

  00003	8b 41 08	 mov	 eax, DWORD PTR [ecx+8]
  00006	2b 01		 sub	 eax, DWORD PTR [ecx]
  00008	6a 1c		 push	 28			; 0000001cH
  0000a	99		 cdq
  0000b	59		 pop	 ecx
  0000c	f7 f9		 idiv	 ecx

; 1276 : 
; 1277 : 		_Capacity = max_size() - _Capacity / 2 < _Capacity
; 1278 : 			? 0 : _Capacity + _Capacity / 2;	// try to grow by 50%

  0000e	ba 49 92 24 09	 mov	 edx, 153391689		; 09249249H
  00013	8b c8		 mov	 ecx, eax
  00015	d1 e9		 shr	 ecx, 1
  00017	2b d1		 sub	 edx, ecx
  00019	3b d0		 cmp	 edx, eax
  0001b	73 04		 jae	 SHORT $LN4@Grow_to
  0001d	33 c0		 xor	 eax, eax
  0001f	eb 02		 jmp	 SHORT $LN5@Grow_to
$LN4@Grow_to:
  00021	03 c1		 add	 eax, ecx
$LN5@Grow_to:

; 1279 : 		if (_Capacity < _Count)

  00023	3b 45 08	 cmp	 eax, DWORD PTR __Count$[ebp]

; 1280 : 			_Capacity = _Count;

  00026	0f 42 45 08	 cmovb	 eax, DWORD PTR __Count$[ebp]

; 1281 : 		return (_Capacity);
; 1282 : 		}

  0002a	5d		 pop	 ebp
  0002b	c2 04 00	 ret	 4
?_Grow_to@?$vector@V?$basic_string@DU?$char_traits@D@std@@V?$allocator@D@2@@std@@V?$allocator@V?$basic_string@DU?$char_traits@D@std@@V?$allocator@D@2@@std@@@2@@std@@IBEII@Z ENDP ; std::vector<std::basic_string<char,std::char_traits<char>,std::allocator<char> >,std::allocator<std::basic_string<char,std::char_traits<char>,std::allocator<char> > > >::_Grow_to
_TEXT	ENDS
PUBLIC	__$ArrayPad$
PUBLIC	??$?8$08@@YA_NABVioHashString@@AAY08$$CBD@Z	; operator==<9>
; Function compile flags: /Ogsp
; File d:\lost saga for developer\youtube\tutorial\source\src\io3dengine\iohashstring.h
;	COMDAT ??$?8$08@@YA_NABVioHashString@@AAY08$$CBD@Z
_TEXT	SEGMENT
__t$ = -20						; size = 9
__$ArrayPad$ = -4					; size = 4
_lhs$ = 8						; size = 4
_t$ = 12						; size = 4
??$?8$08@@YA_NABVioHashString@@AAY08$$CBD@Z PROC	; operator==<9>, COMDAT

; 146  : {

  00000	55		 push	 ebp
  00001	8b ec		 mov	 ebp, esp
  00003	83 ec 14	 sub	 esp, 20			; 00000014H
  00006	a1 00 00 00 00	 mov	 eax, DWORD PTR ___security_cookie
  0000b	33 c5		 xor	 eax, ebp
  0000d	89 45 fc	 mov	 DWORD PTR __$ArrayPad$[ebp], eax
  00010	8b 45 0c	 mov	 eax, DWORD PTR _t$[ebp]

; 147  : 	_ENCSTR(t, _t); return ( strcmp( lhs.c_str(), _t ) == 0 );

  00013	8a 10		 mov	 dl, BYTE PTR [eax]
  00015	8b 4d 08	 mov	 ecx, DWORD PTR _lhs$[ebp]
  00018	84 d2		 test	 dl, dl
  0001a	0f 84 ee 00 00
	00		 je	 $LN96@operator
  00020	80 f2 ed	 xor	 dl, -19			; ffffffedH
  00023	88 55 ec	 mov	 BYTE PTR __t$[ebp], dl
  00026	8a 50 01	 mov	 dl, BYTE PTR [eax+1]
  00029	84 d2		 test	 dl, dl
  0002b	0f 84 d7 00 00
	00		 je	 $LN95@operator
  00031	80 f2 ec	 xor	 dl, -20			; ffffffecH
  00034	88 55 ed	 mov	 BYTE PTR __t$[ebp+1], dl
  00037	8a 50 02	 mov	 dl, BYTE PTR [eax+2]
  0003a	84 d2		 test	 dl, dl
  0003c	0f 84 c0 00 00
	00		 je	 $LN94@operator
  00042	80 f2 eb	 xor	 dl, -21			; ffffffebH
  00045	88 55 ee	 mov	 BYTE PTR __t$[ebp+2], dl
  00048	8a 50 03	 mov	 dl, BYTE PTR [eax+3]
  0004b	84 d2		 test	 dl, dl
  0004d	0f 84 a9 00 00
	00		 je	 $LN93@operator
  00053	80 f2 ea	 xor	 dl, -22			; ffffffeaH
  00056	88 55 ef	 mov	 BYTE PTR __t$[ebp+3], dl
  00059	8a 50 04	 mov	 dl, BYTE PTR [eax+4]
  0005c	84 d2		 test	 dl, dl
  0005e	0f 84 92 00 00
	00		 je	 $LN92@operator
  00064	80 f2 ed	 xor	 dl, -19			; ffffffedH
  00067	88 55 f0	 mov	 BYTE PTR __t$[ebp+4], dl
  0006a	8a 50 05	 mov	 dl, BYTE PTR [eax+5]
  0006d	84 d2		 test	 dl, dl
  0006f	74 7f		 je	 SHORT $LN91@operator
  00071	80 f2 ec	 xor	 dl, -20			; ffffffecH
  00074	88 55 f1	 mov	 BYTE PTR __t$[ebp+5], dl
  00077	8a 50 06	 mov	 dl, BYTE PTR [eax+6]
  0007a	84 d2		 test	 dl, dl
  0007c	74 6c		 je	 SHORT $LN90@operator
  0007e	80 f2 eb	 xor	 dl, -21			; ffffffebH
  00081	88 55 f2	 mov	 BYTE PTR __t$[ebp+6], dl
  00084	8a 50 07	 mov	 dl, BYTE PTR [eax+7]
  00087	84 d2		 test	 dl, dl
  00089	74 59		 je	 SHORT $LN89@operator
  0008b	80 f2 ea	 xor	 dl, -22			; ffffffeaH
  0008e	80 78 08 00	 cmp	 BYTE PTR [eax+8], 0
  00092	88 55 f3	 mov	 BYTE PTR __t$[ebp+7], dl
  00095	74 7b		 je	 SHORT $LN1@operator
  00097	8a 50 09	 mov	 dl, BYTE PTR [eax+9]
  0009a	84 d2		 test	 dl, dl
  0009c	74 40		 je	 SHORT $LN87@operator
  0009e	80 f2 ec	 xor	 dl, -20			; ffffffecH
  000a1	88 55 f5	 mov	 BYTE PTR __t$[ebp+9], dl
  000a4	8a 50 0a	 mov	 dl, BYTE PTR [eax+10]
  000a7	84 d2		 test	 dl, dl
  000a9	74 2d		 je	 SHORT $LN86@operator
  000ab	80 f2 eb	 xor	 dl, -21			; ffffffebH
  000ae	88 55 f6	 mov	 BYTE PTR __t$[ebp+10], dl
  000b1	8a 50 0b	 mov	 dl, BYTE PTR [eax+11]
  000b4	84 d2		 test	 dl, dl
  000b6	74 1a		 je	 SHORT $LN85@operator
  000b8	8a 40 0c	 mov	 al, BYTE PTR [eax+12]
  000bb	80 f2 ea	 xor	 dl, -22			; ffffffeaH
  000be	88 55 f7	 mov	 BYTE PTR __t$[ebp+11], dl
  000c1	84 c0		 test	 al, al
  000c3	74 07		 je	 SHORT $LN84@operator
  000c5	34 ed		 xor	 al, -19			; ffffffedH
  000c7	88 45 f8	 mov	 BYTE PTR __t$[ebp+12], al
  000ca	eb 46		 jmp	 SHORT $LN1@operator
$LN84@operator:
  000cc	c6 45 f8 ed	 mov	 BYTE PTR __t$[ebp+12], -19 ; ffffffedH
  000d0	eb 40		 jmp	 SHORT $LN1@operator
$LN85@operator:
  000d2	c6 45 f7 ea	 mov	 BYTE PTR __t$[ebp+11], -22 ; ffffffeaH
  000d6	eb 3a		 jmp	 SHORT $LN1@operator
$LN86@operator:
  000d8	c6 45 f6 eb	 mov	 BYTE PTR __t$[ebp+10], -21 ; ffffffebH
  000dc	eb 34		 jmp	 SHORT $LN1@operator
$LN87@operator:
  000de	c6 45 f5 ec	 mov	 BYTE PTR __t$[ebp+9], -20 ; ffffffecH
  000e2	eb 2e		 jmp	 SHORT $LN1@operator
$LN89@operator:
  000e4	c6 45 f3 ea	 mov	 BYTE PTR __t$[ebp+7], -22 ; ffffffeaH
  000e8	eb 28		 jmp	 SHORT $LN1@operator
$LN90@operator:
  000ea	c6 45 f2 eb	 mov	 BYTE PTR __t$[ebp+6], -21 ; ffffffebH
  000ee	eb 22		 jmp	 SHORT $LN1@operator
$LN91@operator:
  000f0	c6 45 f1 ec	 mov	 BYTE PTR __t$[ebp+5], -20 ; ffffffecH
  000f4	eb 1c		 jmp	 SHORT $LN1@operator
$LN92@operator:
  000f6	c6 45 f0 ed	 mov	 BYTE PTR __t$[ebp+4], -19 ; ffffffedH
  000fa	eb 16		 jmp	 SHORT $LN1@operator
$LN93@operator:
  000fc	c6 45 ef ea	 mov	 BYTE PTR __t$[ebp+3], -22 ; ffffffeaH
  00100	eb 10		 jmp	 SHORT $LN1@operator
$LN94@operator:
  00102	c6 45 ee eb	 mov	 BYTE PTR __t$[ebp+2], -21 ; ffffffebH
  00106	eb 0a		 jmp	 SHORT $LN1@operator
$LN95@operator:
  00108	c6 45 ed ec	 mov	 BYTE PTR __t$[ebp+1], -20 ; ffffffecH
  0010c	eb 04		 jmp	 SHORT $LN1@operator
$LN96@operator:
  0010e	c6 45 ec ed	 mov	 BYTE PTR __t$[ebp], -19	; ffffffedH
$LN1@operator:
  00112	6a 02		 push	 2
  00114	8d 45 ec	 lea	 eax, DWORD PTR __t$[ebp]
  00117	c6 45 f4 00	 mov	 BYTE PTR __t$[ebp+8], 0
  0011b	5a		 pop	 edx
$LL104@operator:
  0011c	81 30 ed ec eb
	ea		 xor	 DWORD PTR [eax], -353637139 ; eaebecedH
  00122	83 c0 04	 add	 eax, 4
  00125	4a		 dec	 edx
  00126	75 f4		 jne	 SHORT $LL104@operator
  00128	56		 push	 esi
  00129	8d 75 ec	 lea	 esi, DWORD PTR __t$[ebp]
  0012c	ff 15 00 00 00
	00		 call	 DWORD PTR __imp_?c_str@ioHashString@@QBEPBDXZ
$LL111@operator:
  00132	8a 08		 mov	 cl, BYTE PTR [eax]
  00134	3a 0e		 cmp	 cl, BYTE PTR [esi]
  00136	75 1a		 jne	 SHORT $LN112@operator
  00138	84 c9		 test	 cl, cl
  0013a	74 12		 je	 SHORT $LN113@operator
  0013c	8a 48 01	 mov	 cl, BYTE PTR [eax+1]
  0013f	3a 4e 01	 cmp	 cl, BYTE PTR [esi+1]
  00142	75 0e		 jne	 SHORT $LN112@operator
  00144	83 c0 02	 add	 eax, 2
  00147	83 c6 02	 add	 esi, 2
  0014a	84 c9		 test	 cl, cl
  0014c	75 e4		 jne	 SHORT $LL111@operator
$LN113@operator:
  0014e	33 c0		 xor	 eax, eax
  00150	eb 05		 jmp	 SHORT $LN114@operator
$LN112@operator:
  00152	1b c0		 sbb	 eax, eax
  00154	83 d8 ff	 sbb	 eax, -1
$LN114@operator:
  00157	33 c9		 xor	 ecx, ecx
  00159	85 c0		 test	 eax, eax
  0015b	0f 94 c0	 sete	 al

; 148  : }

  0015e	8b 4d fc	 mov	 ecx, DWORD PTR __$ArrayPad$[ebp]
  00161	33 cd		 xor	 ecx, ebp
  00163	5e		 pop	 esi
  00164	e8 00 00 00 00	 call	 @__security_check_cookie@4
  00169	c9		 leave
  0016a	c3		 ret	 0
??$?8$08@@YA_NABVioHashString@@AAY08$$CBD@Z ENDP	; operator==<9>
_TEXT	ENDS
PUBLIC	__$ArrayPad$
PUBLIC	??$?8$0L@@@YA_NABVioHashString@@AAY0L@$$CBD@Z	; operator==<11>
; Function compile flags: /Ogsp
;	COMDAT ??$?8$0L@@@YA_NABVioHashString@@AAY0L@$$CBD@Z
_TEXT	SEGMENT
__t$ = -20						; size = 11
__$ArrayPad$ = -4					; size = 4
_lhs$ = 8						; size = 4
_t$ = 12						; size = 4
??$?8$0L@@@YA_NABVioHashString@@AAY0L@$$CBD@Z PROC	; operator==<11>, COMDAT

; 146  : {

  00000	55		 push	 ebp
  00001	8b ec		 mov	 ebp, esp
  00003	83 ec 14	 sub	 esp, 20			; 00000014H
  00006	a1 00 00 00 00	 mov	 eax, DWORD PTR ___security_cookie
  0000b	33 c5		 xor	 eax, ebp
  0000d	89 45 fc	 mov	 DWORD PTR __$ArrayPad$[ebp], eax
  00010	8b 45 0c	 mov	 eax, DWORD PTR _t$[ebp]

; 147  : 	_ENCSTR(t, _t); return ( strcmp( lhs.c_str(), _t ) == 0 );

  00013	8a 10		 mov	 dl, BYTE PTR [eax]
  00015	56		 push	 esi
  00016	57		 push	 edi
  00017	8b 7d 08	 mov	 edi, DWORD PTR _lhs$[ebp]
  0001a	84 d2		 test	 dl, dl
  0001c	0f 84 24 01 00
	00		 je	 $LN96@operator@2
  00022	80 f2 ed	 xor	 dl, -19			; ffffffedH
  00025	88 55 ec	 mov	 BYTE PTR __t$[ebp], dl
  00028	8a 50 01	 mov	 dl, BYTE PTR [eax+1]
  0002b	84 d2		 test	 dl, dl
  0002d	0f 84 0d 01 00
	00		 je	 $LN95@operator@2
  00033	80 f2 ec	 xor	 dl, -20			; ffffffecH
  00036	88 55 ed	 mov	 BYTE PTR __t$[ebp+1], dl
  00039	8a 50 02	 mov	 dl, BYTE PTR [eax+2]
  0003c	84 d2		 test	 dl, dl
  0003e	0f 84 f6 00 00
	00		 je	 $LN94@operator@2
  00044	80 f2 eb	 xor	 dl, -21			; ffffffebH
  00047	88 55 ee	 mov	 BYTE PTR __t$[ebp+2], dl
  0004a	8a 50 03	 mov	 dl, BYTE PTR [eax+3]
  0004d	84 d2		 test	 dl, dl
  0004f	0f 84 df 00 00
	00		 je	 $LN93@operator@2
  00055	80 f2 ea	 xor	 dl, -22			; ffffffeaH
  00058	88 55 ef	 mov	 BYTE PTR __t$[ebp+3], dl
  0005b	8a 50 04	 mov	 dl, BYTE PTR [eax+4]
  0005e	84 d2		 test	 dl, dl
  00060	0f 84 c8 00 00
	00		 je	 $LN92@operator@2
  00066	80 f2 ed	 xor	 dl, -19			; ffffffedH
  00069	88 55 f0	 mov	 BYTE PTR __t$[ebp+4], dl
  0006c	8a 50 05	 mov	 dl, BYTE PTR [eax+5]
  0006f	84 d2		 test	 dl, dl
  00071	0f 84 b1 00 00
	00		 je	 $LN91@operator@2
  00077	80 f2 ec	 xor	 dl, -20			; ffffffecH
  0007a	88 55 f1	 mov	 BYTE PTR __t$[ebp+5], dl
  0007d	8a 50 06	 mov	 dl, BYTE PTR [eax+6]
  00080	84 d2		 test	 dl, dl
  00082	0f 84 9a 00 00
	00		 je	 $LN90@operator@2
  00088	80 f2 eb	 xor	 dl, -21			; ffffffebH
  0008b	88 55 f2	 mov	 BYTE PTR __t$[ebp+6], dl
  0008e	8a 50 07	 mov	 dl, BYTE PTR [eax+7]
  00091	84 d2		 test	 dl, dl
  00093	0f 84 83 00 00
	00		 je	 $LN89@operator@2
  00099	80 f2 ea	 xor	 dl, -22			; ffffffeaH
  0009c	88 55 f3	 mov	 BYTE PTR __t$[ebp+7], dl
  0009f	8a 50 08	 mov	 dl, BYTE PTR [eax+8]
  000a2	84 d2		 test	 dl, dl
  000a4	74 70		 je	 SHORT $LN88@operator@2
  000a6	80 f2 ed	 xor	 dl, -19			; ffffffedH
  000a9	88 55 f4	 mov	 BYTE PTR __t$[ebp+8], dl
  000ac	8a 50 09	 mov	 dl, BYTE PTR [eax+9]
  000af	84 d2		 test	 dl, dl
  000b1	74 5d		 je	 SHORT $LN87@operator@2
  000b3	80 f2 ec	 xor	 dl, -20			; ffffffecH
  000b6	80 78 0a 00	 cmp	 BYTE PTR [eax+10], 0
  000ba	88 55 f5	 mov	 BYTE PTR __t$[ebp+9], dl
  000bd	0f 84 87 00 00
	00		 je	 $LN1@operator@2
  000c3	8a 50 0b	 mov	 dl, BYTE PTR [eax+11]
  000c6	84 d2		 test	 dl, dl
  000c8	74 40		 je	 SHORT $LN85@operator@2
  000ca	80 f2 ea	 xor	 dl, -22			; ffffffeaH
  000cd	88 55 f7	 mov	 BYTE PTR __t$[ebp+11], dl
  000d0	8a 50 0c	 mov	 dl, BYTE PTR [eax+12]
  000d3	84 d2		 test	 dl, dl
  000d5	74 2d		 je	 SHORT $LN84@operator@2
  000d7	80 f2 ed	 xor	 dl, -19			; ffffffedH
  000da	88 55 f8	 mov	 BYTE PTR __t$[ebp+12], dl
  000dd	8a 50 0d	 mov	 dl, BYTE PTR [eax+13]
  000e0	84 d2		 test	 dl, dl
  000e2	74 1a		 je	 SHORT $LN83@operator@2
  000e4	8a 40 0e	 mov	 al, BYTE PTR [eax+14]
  000e7	80 f2 ec	 xor	 dl, -20			; ffffffecH
  000ea	88 55 f9	 mov	 BYTE PTR __t$[ebp+13], dl
  000ed	84 c0		 test	 al, al
  000ef	74 07		 je	 SHORT $LN82@operator@2
  000f1	34 eb		 xor	 al, -21			; ffffffebH
  000f3	88 45 fa	 mov	 BYTE PTR __t$[ebp+14], al
  000f6	eb 52		 jmp	 SHORT $LN1@operator@2
$LN82@operator@2:
  000f8	c6 45 fa eb	 mov	 BYTE PTR __t$[ebp+14], -21 ; ffffffebH
  000fc	eb 4c		 jmp	 SHORT $LN1@operator@2
$LN83@operator@2:
  000fe	c6 45 f9 ec	 mov	 BYTE PTR __t$[ebp+13], -20 ; ffffffecH
  00102	eb 46		 jmp	 SHORT $LN1@operator@2
$LN84@operator@2:
  00104	c6 45 f8 ed	 mov	 BYTE PTR __t$[ebp+12], -19 ; ffffffedH
  00108	eb 40		 jmp	 SHORT $LN1@operator@2
$LN85@operator@2:
  0010a	c6 45 f7 ea	 mov	 BYTE PTR __t$[ebp+11], -22 ; ffffffeaH
  0010e	eb 3a		 jmp	 SHORT $LN1@operator@2
$LN87@operator@2:
  00110	c6 45 f5 ec	 mov	 BYTE PTR __t$[ebp+9], -20 ; ffffffecH
  00114	eb 34		 jmp	 SHORT $LN1@operator@2
$LN88@operator@2:
  00116	c6 45 f4 ed	 mov	 BYTE PTR __t$[ebp+8], -19 ; ffffffedH
  0011a	eb 2e		 jmp	 SHORT $LN1@operator@2
$LN89@operator@2:
  0011c	c6 45 f3 ea	 mov	 BYTE PTR __t$[ebp+7], -22 ; ffffffeaH
  00120	eb 28		 jmp	 SHORT $LN1@operator@2
$LN90@operator@2:
  00122	c6 45 f2 eb	 mov	 BYTE PTR __t$[ebp+6], -21 ; ffffffebH
  00126	eb 22		 jmp	 SHORT $LN1@operator@2
$LN91@operator@2:
  00128	c6 45 f1 ec	 mov	 BYTE PTR __t$[ebp+5], -20 ; ffffffecH
  0012c	eb 1c		 jmp	 SHORT $LN1@operator@2
$LN92@operator@2:
  0012e	c6 45 f0 ed	 mov	 BYTE PTR __t$[ebp+4], -19 ; ffffffedH
  00132	eb 16		 jmp	 SHORT $LN1@operator@2
$LN93@operator@2:
  00134	c6 45 ef ea	 mov	 BYTE PTR __t$[ebp+3], -22 ; ffffffeaH
  00138	eb 10		 jmp	 SHORT $LN1@operator@2
$LN94@operator@2:
  0013a	c6 45 ee eb	 mov	 BYTE PTR __t$[ebp+2], -21 ; ffffffebH
  0013e	eb 0a		 jmp	 SHORT $LN1@operator@2
$LN95@operator@2:
  00140	c6 45 ed ec	 mov	 BYTE PTR __t$[ebp+1], -20 ; ffffffecH
  00144	eb 04		 jmp	 SHORT $LN1@operator@2
$LN96@operator@2:
  00146	c6 45 ec ed	 mov	 BYTE PTR __t$[ebp], -19	; ffffffedH
$LN1@operator@2:
  0014a	6a 02		 push	 2
  0014c	8d 45 ec	 lea	 eax, DWORD PTR __t$[ebp]
  0014f	c6 45 f6 00	 mov	 BYTE PTR __t$[ebp+10], 0
  00153	5a		 pop	 edx
$LL104@operator@2:
  00154	81 30 ed ec eb
	ea		 xor	 DWORD PTR [eax], -353637139 ; eaebecedH
  0015a	83 c0 04	 add	 eax, 4
  0015d	4a		 dec	 edx
  0015e	75 f4		 jne	 SHORT $LL104@operator@2
  00160	6a 08		 push	 8
  00162	58		 pop	 eax
$LL101@operator@2:
  00163	8b c8		 mov	 ecx, eax
  00165	81 e1 03 00 00
	80		 and	 ecx, -2147483645	; 80000003H
  0016b	79 05		 jns	 SHORT $LN115@operator@2
  0016d	49		 dec	 ecx
  0016e	83 c9 fc	 or	 ecx, -4			; fffffffcH
  00171	41		 inc	 ecx
$LN115@operator@2:
  00172	b2 ed		 mov	 dl, -19			; ffffffedH
  00174	2a d1		 sub	 dl, cl
  00176	30 54 05 ec	 xor	 BYTE PTR __t$[ebp+eax], dl
  0017a	40		 inc	 eax
  0017b	83 f8 0a	 cmp	 eax, 10			; 0000000aH
  0017e	7c e3		 jl	 SHORT $LL101@operator@2
  00180	8b cf		 mov	 ecx, edi
  00182	8d 75 ec	 lea	 esi, DWORD PTR __t$[ebp]
  00185	ff 15 00 00 00
	00		 call	 DWORD PTR __imp_?c_str@ioHashString@@QBEPBDXZ
$LL111@operator@2:
  0018b	8a 08		 mov	 cl, BYTE PTR [eax]
  0018d	3a 0e		 cmp	 cl, BYTE PTR [esi]
  0018f	75 1a		 jne	 SHORT $LN112@operator@2
  00191	84 c9		 test	 cl, cl
  00193	74 12		 je	 SHORT $LN113@operator@2
  00195	8a 48 01	 mov	 cl, BYTE PTR [eax+1]
  00198	3a 4e 01	 cmp	 cl, BYTE PTR [esi+1]
  0019b	75 0e		 jne	 SHORT $LN112@operator@2
  0019d	83 c0 02	 add	 eax, 2
  001a0	83 c6 02	 add	 esi, 2
  001a3	84 c9		 test	 cl, cl
  001a5	75 e4		 jne	 SHORT $LL111@operator@2
$LN113@operator@2:
  001a7	33 c0		 xor	 eax, eax
  001a9	eb 05		 jmp	 SHORT $LN114@operator@2
$LN112@operator@2:
  001ab	1b c0		 sbb	 eax, eax
  001ad	83 d8 ff	 sbb	 eax, -1
$LN114@operator@2:
  001b0	33 c9		 xor	 ecx, ecx
  001b2	85 c0		 test	 eax, eax
  001b4	0f 94 c0	 sete	 al

; 148  : }

  001b7	8b 4d fc	 mov	 ecx, DWORD PTR __$ArrayPad$[ebp]
  001ba	5f		 pop	 edi
  001bb	33 cd		 xor	 ecx, ebp
  001bd	5e		 pop	 esi
  001be	e8 00 00 00 00	 call	 @__security_check_cookie@4
  001c3	c9		 leave
  001c4	c3		 ret	 0
??$?8$0L@@@YA_NABVioHashString@@AAY0L@$$CBD@Z ENDP	; operator==<11>
_TEXT	ENDS
PUBLIC	__$ArrayPad$
PUBLIC	??$?8$07@@YA_NABVioHashString@@AAY07$$CBD@Z	; operator==<8>
; Function compile flags: /Ogsp
;	COMDAT ??$?8$07@@YA_NABVioHashString@@AAY07$$CBD@Z
_TEXT	SEGMENT
__t$ = -16						; size = 8
__$ArrayPad$ = -4					; size = 4
_lhs$ = 8						; size = 4
_t$ = 12						; size = 4
??$?8$07@@YA_NABVioHashString@@AAY07$$CBD@Z PROC	; operator==<8>, COMDAT

; 146  : {

  00000	55		 push	 ebp
  00001	8b ec		 mov	 ebp, esp
  00003	83 ec 10	 sub	 esp, 16			; 00000010H
  00006	a1 00 00 00 00	 mov	 eax, DWORD PTR ___security_cookie
  0000b	33 c5		 xor	 eax, ebp
  0000d	89 45 fc	 mov	 DWORD PTR __$ArrayPad$[ebp], eax
  00010	8b 45 0c	 mov	 eax, DWORD PTR _t$[ebp]

; 147  : 	_ENCSTR(t, _t); return ( strcmp( lhs.c_str(), _t ) == 0 );

  00013	8a 10		 mov	 dl, BYTE PTR [eax]
  00015	56		 push	 esi
  00016	57		 push	 edi
  00017	8b 7d 08	 mov	 edi, DWORD PTR _lhs$[ebp]
  0001a	84 d2		 test	 dl, dl
  0001c	0f 84 d7 00 00
	00		 je	 $LN96@operator@3
  00022	80 f2 ed	 xor	 dl, -19			; ffffffedH
  00025	88 55 f0	 mov	 BYTE PTR __t$[ebp], dl
  00028	8a 50 01	 mov	 dl, BYTE PTR [eax+1]
  0002b	84 d2		 test	 dl, dl
  0002d	0f 84 c0 00 00
	00		 je	 $LN95@operator@3
  00033	80 f2 ec	 xor	 dl, -20			; ffffffecH
  00036	88 55 f1	 mov	 BYTE PTR __t$[ebp+1], dl
  00039	8a 50 02	 mov	 dl, BYTE PTR [eax+2]
  0003c	84 d2		 test	 dl, dl
  0003e	0f 84 a9 00 00
	00		 je	 $LN94@operator@3
  00044	80 f2 eb	 xor	 dl, -21			; ffffffebH
  00047	88 55 f2	 mov	 BYTE PTR __t$[ebp+2], dl
  0004a	8a 50 03	 mov	 dl, BYTE PTR [eax+3]
  0004d	84 d2		 test	 dl, dl
  0004f	0f 84 92 00 00
	00		 je	 $LN93@operator@3
  00055	80 f2 ea	 xor	 dl, -22			; ffffffeaH
  00058	88 55 f3	 mov	 BYTE PTR __t$[ebp+3], dl
  0005b	8a 50 04	 mov	 dl, BYTE PTR [eax+4]
  0005e	84 d2		 test	 dl, dl
  00060	74 7f		 je	 SHORT $LN92@operator@3
  00062	80 f2 ed	 xor	 dl, -19			; ffffffedH
  00065	88 55 f4	 mov	 BYTE PTR __t$[ebp+4], dl
  00068	8a 50 05	 mov	 dl, BYTE PTR [eax+5]
  0006b	84 d2		 test	 dl, dl
  0006d	74 6c		 je	 SHORT $LN91@operator@3
  0006f	80 f2 ec	 xor	 dl, -20			; ffffffecH
  00072	88 55 f5	 mov	 BYTE PTR __t$[ebp+5], dl
  00075	8a 50 06	 mov	 dl, BYTE PTR [eax+6]
  00078	84 d2		 test	 dl, dl
  0007a	74 59		 je	 SHORT $LN90@operator@3
  0007c	80 f2 eb	 xor	 dl, -21			; ffffffebH
  0007f	80 78 07 00	 cmp	 BYTE PTR [eax+7], 0
  00083	88 55 f6	 mov	 BYTE PTR __t$[ebp+6], dl
  00086	74 75		 je	 SHORT $LN1@operator@3
  00088	8a 50 08	 mov	 dl, BYTE PTR [eax+8]
  0008b	84 d2		 test	 dl, dl
  0008d	74 40		 je	 SHORT $LN88@operator@3
  0008f	80 f2 ed	 xor	 dl, -19			; ffffffedH
  00092	88 55 f8	 mov	 BYTE PTR __t$[ebp+8], dl
  00095	8a 50 09	 mov	 dl, BYTE PTR [eax+9]
  00098	84 d2		 test	 dl, dl
  0009a	74 2d		 je	 SHORT $LN87@operator@3
  0009c	80 f2 ec	 xor	 dl, -20			; ffffffecH
  0009f	88 55 f9	 mov	 BYTE PTR __t$[ebp+9], dl
  000a2	8a 50 0a	 mov	 dl, BYTE PTR [eax+10]
  000a5	84 d2		 test	 dl, dl
  000a7	74 1a		 je	 SHORT $LN86@operator@3
  000a9	8a 40 0b	 mov	 al, BYTE PTR [eax+11]
  000ac	80 f2 eb	 xor	 dl, -21			; ffffffebH
  000af	88 55 fa	 mov	 BYTE PTR __t$[ebp+10], dl
  000b2	84 c0		 test	 al, al
  000b4	74 07		 je	 SHORT $LN85@operator@3
  000b6	34 ea		 xor	 al, -22			; ffffffeaH
  000b8	88 45 fb	 mov	 BYTE PTR __t$[ebp+11], al
  000bb	eb 40		 jmp	 SHORT $LN1@operator@3
$LN85@operator@3:
  000bd	c6 45 fb ea	 mov	 BYTE PTR __t$[ebp+11], -22 ; ffffffeaH
  000c1	eb 3a		 jmp	 SHORT $LN1@operator@3
$LN86@operator@3:
  000c3	c6 45 fa eb	 mov	 BYTE PTR __t$[ebp+10], -21 ; ffffffebH
  000c7	eb 34		 jmp	 SHORT $LN1@operator@3
$LN87@operator@3:
  000c9	c6 45 f9 ec	 mov	 BYTE PTR __t$[ebp+9], -20 ; ffffffecH
  000cd	eb 2e		 jmp	 SHORT $LN1@operator@3
$LN88@operator@3:
  000cf	c6 45 f8 ed	 mov	 BYTE PTR __t$[ebp+8], -19 ; ffffffedH
  000d3	eb 28		 jmp	 SHORT $LN1@operator@3
$LN90@operator@3:
  000d5	c6 45 f6 eb	 mov	 BYTE PTR __t$[ebp+6], -21 ; ffffffebH
  000d9	eb 22		 jmp	 SHORT $LN1@operator@3
$LN91@operator@3:
  000db	c6 45 f5 ec	 mov	 BYTE PTR __t$[ebp+5], -20 ; ffffffecH
  000df	eb 1c		 jmp	 SHORT $LN1@operator@3
$LN92@operator@3:
  000e1	c6 45 f4 ed	 mov	 BYTE PTR __t$[ebp+4], -19 ; ffffffedH
  000e5	eb 16		 jmp	 SHORT $LN1@operator@3
$LN93@operator@3:
  000e7	c6 45 f3 ea	 mov	 BYTE PTR __t$[ebp+3], -22 ; ffffffeaH
  000eb	eb 10		 jmp	 SHORT $LN1@operator@3
$LN94@operator@3:
  000ed	c6 45 f2 eb	 mov	 BYTE PTR __t$[ebp+2], -21 ; ffffffebH
  000f1	eb 0a		 jmp	 SHORT $LN1@operator@3
$LN95@operator@3:
  000f3	c6 45 f1 ec	 mov	 BYTE PTR __t$[ebp+1], -20 ; ffffffecH
  000f7	eb 04		 jmp	 SHORT $LN1@operator@3
$LN96@operator@3:
  000f9	c6 45 f0 ed	 mov	 BYTE PTR __t$[ebp], -19	; ffffffedH
$LN1@operator@3:
  000fd	81 75 f0 ed ec
	eb ea		 xor	 DWORD PTR __t$[ebp], -353637139 ; eaebecedH
  00104	6a 04		 push	 4
  00106	c6 45 f7 00	 mov	 BYTE PTR __t$[ebp+7], 0
  0010a	58		 pop	 eax
$LL101@operator@3:
  0010b	8b c8		 mov	 ecx, eax
  0010d	81 e1 03 00 00
	80		 and	 ecx, -2147483645	; 80000003H
  00113	79 05		 jns	 SHORT $LN115@operator@3
  00115	49		 dec	 ecx
  00116	83 c9 fc	 or	 ecx, -4			; fffffffcH
  00119	41		 inc	 ecx
$LN115@operator@3:
  0011a	b2 ed		 mov	 dl, -19			; ffffffedH
  0011c	2a d1		 sub	 dl, cl
  0011e	30 54 05 f0	 xor	 BYTE PTR __t$[ebp+eax], dl
  00122	40		 inc	 eax
  00123	83 f8 07	 cmp	 eax, 7
  00126	7c e3		 jl	 SHORT $LL101@operator@3
  00128	8b cf		 mov	 ecx, edi
  0012a	8d 75 f0	 lea	 esi, DWORD PTR __t$[ebp]
  0012d	ff 15 00 00 00
	00		 call	 DWORD PTR __imp_?c_str@ioHashString@@QBEPBDXZ
$LL111@operator@3:
  00133	8a 08		 mov	 cl, BYTE PTR [eax]
  00135	3a 0e		 cmp	 cl, BYTE PTR [esi]
  00137	75 1a		 jne	 SHORT $LN112@operator@3
  00139	84 c9		 test	 cl, cl
  0013b	74 12		 je	 SHORT $LN113@operator@3
  0013d	8a 48 01	 mov	 cl, BYTE PTR [eax+1]
  00140	3a 4e 01	 cmp	 cl, BYTE PTR [esi+1]
  00143	75 0e		 jne	 SHORT $LN112@operator@3
  00145	83 c0 02	 add	 eax, 2
  00148	83 c6 02	 add	 esi, 2
  0014b	84 c9		 test	 cl, cl
  0014d	75 e4		 jne	 SHORT $LL111@operator@3
$LN113@operator@3:
  0014f	33 c0		 xor	 eax, eax
  00151	eb 05		 jmp	 SHORT $LN114@operator@3
$LN112@operator@3:
  00153	1b c0		 sbb	 eax, eax
  00155	83 d8 ff	 sbb	 eax, -1
$LN114@operator@3:
  00158	33 c9		 xor	 ecx, ecx
  0015a	85 c0		 test	 eax, eax
  0015c	0f 94 c0	 sete	 al

; 148  : }

  0015f	8b 4d fc	 mov	 ecx, DWORD PTR __$ArrayPad$[ebp]
  00162	5f		 pop	 edi
  00163	33 cd		 xor	 ecx, ebp
  00165	5e		 pop	 esi
  00166	e8 00 00 00 00	 call	 @__security_check_cookie@4
  0016b	c9		 leave
  0016c	c3		 ret	 0
??$?8$07@@YA_NABVioHashString@@AAY07$$CBD@Z ENDP	; operator==<8>
_TEXT	ENDS
PUBLIC	__$ArrayPad$
PUBLIC	??$?8$0M@@@YA_NABVioHashString@@AAY0M@$$CBD@Z	; operator==<12>
; Function compile flags: /Ogsp
;	COMDAT ??$?8$0M@@@YA_NABVioHashString@@AAY0M@$$CBD@Z
_TEXT	SEGMENT
__t$ = -20						; size = 12
__$ArrayPad$ = -4					; size = 4
_lhs$ = 8						; size = 4
_t$ = 12						; size = 4
??$?8$0M@@@YA_NABVioHashString@@AAY0M@$$CBD@Z PROC	; operator==<12>, COMDAT

; 146  : {

  00000	55		 push	 ebp
  00001	8b ec		 mov	 ebp, esp
  00003	83 ec 14	 sub	 esp, 20			; 00000014H
  00006	a1 00 00 00 00	 mov	 eax, DWORD PTR ___security_cookie
  0000b	33 c5		 xor	 eax, ebp
  0000d	89 45 fc	 mov	 DWORD PTR __$ArrayPad$[ebp], eax
  00010	8b 45 0c	 mov	 eax, DWORD PTR _t$[ebp]

; 147  : 	_ENCSTR(t, _t); return ( strcmp( lhs.c_str(), _t ) == 0 );

  00013	8a 10		 mov	 dl, BYTE PTR [eax]
  00015	56		 push	 esi
  00016	57		 push	 edi
  00017	8b 7d 08	 mov	 edi, DWORD PTR _lhs$[ebp]
  0001a	84 d2		 test	 dl, dl
  0001c	0f 84 32 01 00
	00		 je	 $LN96@operator@4
  00022	80 f2 ed	 xor	 dl, -19			; ffffffedH
  00025	88 55 ec	 mov	 BYTE PTR __t$[ebp], dl
  00028	8a 50 01	 mov	 dl, BYTE PTR [eax+1]
  0002b	84 d2		 test	 dl, dl
  0002d	0f 84 1b 01 00
	00		 je	 $LN95@operator@4
  00033	80 f2 ec	 xor	 dl, -20			; ffffffecH
  00036	88 55 ed	 mov	 BYTE PTR __t$[ebp+1], dl
  00039	8a 50 02	 mov	 dl, BYTE PTR [eax+2]
  0003c	84 d2		 test	 dl, dl
  0003e	0f 84 04 01 00
	00		 je	 $LN94@operator@4
  00044	b1 eb		 mov	 cl, -21			; ffffffebH
  00046	32 d1		 xor	 dl, cl
  00048	88 55 ee	 mov	 BYTE PTR __t$[ebp+2], dl
  0004b	8a 50 03	 mov	 dl, BYTE PTR [eax+3]
  0004e	84 d2		 test	 dl, dl
  00050	0f 84 ec 00 00
	00		 je	 $LN93@operator@4
  00056	80 f2 ea	 xor	 dl, -22			; ffffffeaH
  00059	88 55 ef	 mov	 BYTE PTR __t$[ebp+3], dl
  0005c	8a 50 04	 mov	 dl, BYTE PTR [eax+4]
  0005f	84 d2		 test	 dl, dl
  00061	0f 84 d5 00 00
	00		 je	 $LN92@operator@4
  00067	80 f2 ed	 xor	 dl, -19			; ffffffedH
  0006a	88 55 f0	 mov	 BYTE PTR __t$[ebp+4], dl
  0006d	8a 50 05	 mov	 dl, BYTE PTR [eax+5]
  00070	84 d2		 test	 dl, dl
  00072	0f 84 be 00 00
	00		 je	 $LN91@operator@4
  00078	80 f2 ec	 xor	 dl, -20			; ffffffecH
  0007b	88 55 f1	 mov	 BYTE PTR __t$[ebp+5], dl
  0007e	8a 50 06	 mov	 dl, BYTE PTR [eax+6]
  00081	84 d2		 test	 dl, dl
  00083	0f 84 a8 00 00
	00		 je	 $LN90@operator@4
  00089	32 d1		 xor	 dl, cl
  0008b	88 55 f2	 mov	 BYTE PTR __t$[ebp+6], dl
  0008e	8a 50 07	 mov	 dl, BYTE PTR [eax+7]
  00091	84 d2		 test	 dl, dl
  00093	0f 84 92 00 00
	00		 je	 $LN89@operator@4
  00099	80 f2 ea	 xor	 dl, -22			; ffffffeaH
  0009c	88 55 f3	 mov	 BYTE PTR __t$[ebp+7], dl
  0009f	8a 50 08	 mov	 dl, BYTE PTR [eax+8]
  000a2	84 d2		 test	 dl, dl
  000a4	74 7f		 je	 SHORT $LN88@operator@4
  000a6	80 f2 ed	 xor	 dl, -19			; ffffffedH
  000a9	88 55 f4	 mov	 BYTE PTR __t$[ebp+8], dl
  000ac	8a 50 09	 mov	 dl, BYTE PTR [eax+9]
  000af	84 d2		 test	 dl, dl
  000b1	74 6c		 je	 SHORT $LN87@operator@4
  000b3	80 f2 ec	 xor	 dl, -20			; ffffffecH
  000b6	88 55 f5	 mov	 BYTE PTR __t$[ebp+9], dl
  000b9	8a 50 0a	 mov	 dl, BYTE PTR [eax+10]
  000bc	84 d2		 test	 dl, dl
  000be	74 5a		 je	 SHORT $LN86@operator@4
  000c0	32 d1		 xor	 dl, cl
  000c2	80 78 0b 00	 cmp	 BYTE PTR [eax+11], 0
  000c6	88 55 f6	 mov	 BYTE PTR __t$[ebp+10], dl
  000c9	0f 84 89 00 00
	00		 je	 $LN1@operator@4
  000cf	8a 50 0c	 mov	 dl, BYTE PTR [eax+12]
  000d2	84 d2		 test	 dl, dl
  000d4	74 3e		 je	 SHORT $LN84@operator@4
  000d6	80 f2 ed	 xor	 dl, -19			; ffffffedH
  000d9	88 55 f8	 mov	 BYTE PTR __t$[ebp+12], dl
  000dc	8a 50 0d	 mov	 dl, BYTE PTR [eax+13]
  000df	84 d2		 test	 dl, dl
  000e1	74 2b		 je	 SHORT $LN83@operator@4
  000e3	80 f2 ec	 xor	 dl, -20			; ffffffecH
  000e6	88 55 f9	 mov	 BYTE PTR __t$[ebp+13], dl
  000e9	8a 50 0e	 mov	 dl, BYTE PTR [eax+14]
  000ec	84 d2		 test	 dl, dl
  000ee	74 19		 je	 SHORT $LN82@operator@4
  000f0	8a 40 0f	 mov	 al, BYTE PTR [eax+15]
  000f3	32 d1		 xor	 dl, cl
  000f5	88 55 fa	 mov	 BYTE PTR __t$[ebp+14], dl
  000f8	84 c0		 test	 al, al
  000fa	74 07		 je	 SHORT $LN81@operator@4
  000fc	34 ea		 xor	 al, -22			; ffffffeaH
  000fe	88 45 fb	 mov	 BYTE PTR __t$[ebp+15], al
  00101	eb 55		 jmp	 SHORT $LN1@operator@4
$LN81@operator@4:
  00103	c6 45 fb ea	 mov	 BYTE PTR __t$[ebp+15], -22 ; ffffffeaH
  00107	eb 4f		 jmp	 SHORT $LN1@operator@4
$LN82@operator@4:
  00109	88 4d fa	 mov	 BYTE PTR __t$[ebp+14], cl
  0010c	eb 4a		 jmp	 SHORT $LN1@operator@4
$LN83@operator@4:
  0010e	c6 45 f9 ec	 mov	 BYTE PTR __t$[ebp+13], -20 ; ffffffecH
  00112	eb 44		 jmp	 SHORT $LN1@operator@4
$LN84@operator@4:
  00114	c6 45 f8 ed	 mov	 BYTE PTR __t$[ebp+12], -19 ; ffffffedH
  00118	eb 3e		 jmp	 SHORT $LN1@operator@4
$LN86@operator@4:
  0011a	88 4d f6	 mov	 BYTE PTR __t$[ebp+10], cl
  0011d	eb 39		 jmp	 SHORT $LN1@operator@4
$LN87@operator@4:
  0011f	c6 45 f5 ec	 mov	 BYTE PTR __t$[ebp+9], -20 ; ffffffecH
  00123	eb 33		 jmp	 SHORT $LN1@operator@4
$LN88@operator@4:
  00125	c6 45 f4 ed	 mov	 BYTE PTR __t$[ebp+8], -19 ; ffffffedH
  00129	eb 2d		 jmp	 SHORT $LN1@operator@4
$LN89@operator@4:
  0012b	c6 45 f3 ea	 mov	 BYTE PTR __t$[ebp+7], -22 ; ffffffeaH
  0012f	eb 27		 jmp	 SHORT $LN1@operator@4
$LN90@operator@4:
  00131	88 4d f2	 mov	 BYTE PTR __t$[ebp+6], cl
  00134	eb 22		 jmp	 SHORT $LN1@operator@4
$LN91@operator@4:
  00136	c6 45 f1 ec	 mov	 BYTE PTR __t$[ebp+5], -20 ; ffffffecH
  0013a	eb 1c		 jmp	 SHORT $LN1@operator@4
$LN92@operator@4:
  0013c	c6 45 f0 ed	 mov	 BYTE PTR __t$[ebp+4], -19 ; ffffffedH
  00140	eb 16		 jmp	 SHORT $LN1@operator@4
$LN93@operator@4:
  00142	c6 45 ef ea	 mov	 BYTE PTR __t$[ebp+3], -22 ; ffffffeaH
  00146	eb 10		 jmp	 SHORT $LN1@operator@4
$LN94@operator@4:
  00148	c6 45 ee eb	 mov	 BYTE PTR __t$[ebp+2], -21 ; ffffffebH
  0014c	eb 0a		 jmp	 SHORT $LN1@operator@4
$LN95@operator@4:
  0014e	c6 45 ed ec	 mov	 BYTE PTR __t$[ebp+1], -20 ; ffffffecH
  00152	eb 04		 jmp	 SHORT $LN1@operator@4
$LN96@operator@4:
  00154	c6 45 ec ed	 mov	 BYTE PTR __t$[ebp], -19	; ffffffedH
$LN1@operator@4:
  00158	6a 02		 push	 2
  0015a	8d 45 ec	 lea	 eax, DWORD PTR __t$[ebp]
  0015d	c6 45 f7 00	 mov	 BYTE PTR __t$[ebp+11], 0
  00161	5a		 pop	 edx
$LL104@operator@4:
  00162	81 30 ed ec eb
	ea		 xor	 DWORD PTR [eax], -353637139 ; eaebecedH
  00168	83 c0 04	 add	 eax, 4
  0016b	4a		 dec	 edx
  0016c	75 f4		 jne	 SHORT $LL104@operator@4
  0016e	6a 08		 push	 8
  00170	58		 pop	 eax
$LL101@operator@4:
  00171	8b c8		 mov	 ecx, eax
  00173	81 e1 03 00 00
	80		 and	 ecx, -2147483645	; 80000003H
  00179	79 05		 jns	 SHORT $LN115@operator@4
  0017b	49		 dec	 ecx
  0017c	83 c9 fc	 or	 ecx, -4			; fffffffcH
  0017f	41		 inc	 ecx
$LN115@operator@4:
  00180	b2 ed		 mov	 dl, -19			; ffffffedH
  00182	2a d1		 sub	 dl, cl
  00184	30 54 05 ec	 xor	 BYTE PTR __t$[ebp+eax], dl
  00188	40		 inc	 eax
  00189	83 f8 0b	 cmp	 eax, 11			; 0000000bH
  0018c	7c e3		 jl	 SHORT $LL101@operator@4
  0018e	8b cf		 mov	 ecx, edi
  00190	8d 75 ec	 lea	 esi, DWORD PTR __t$[ebp]
  00193	ff 15 00 00 00
	00		 call	 DWORD PTR __imp_?c_str@ioHashString@@QBEPBDXZ
$LL111@operator@4:
  00199	8a 08		 mov	 cl, BYTE PTR [eax]
  0019b	3a 0e		 cmp	 cl, BYTE PTR [esi]
  0019d	75 1a		 jne	 SHORT $LN112@operator@4
  0019f	84 c9		 test	 cl, cl
  001a1	74 12		 je	 SHORT $LN113@operator@4
  001a3	8a 48 01	 mov	 cl, BYTE PTR [eax+1]
  001a6	3a 4e 01	 cmp	 cl, BYTE PTR [esi+1]
  001a9	75 0e		 jne	 SHORT $LN112@operator@4
  001ab	83 c0 02	 add	 eax, 2
  001ae	83 c6 02	 add	 esi, 2
  001b1	84 c9		 test	 cl, cl
  001b3	75 e4		 jne	 SHORT $LL111@operator@4
$LN113@operator@4:
  001b5	33 c0		 xor	 eax, eax
  001b7	eb 05		 jmp	 SHORT $LN114@operator@4
$LN112@operator@4:
  001b9	1b c0		 sbb	 eax, eax
  001bb	83 d8 ff	 sbb	 eax, -1
$LN114@operator@4:
  001be	33 c9		 xor	 ecx, ecx
  001c0	85 c0		 test	 eax, eax
  001c2	0f 94 c0	 sete	 al

; 148  : }

  001c5	8b 4d fc	 mov	 ecx, DWORD PTR __$ArrayPad$[ebp]
  001c8	5f		 pop	 edi
  001c9	33 cd		 xor	 ecx, ebp
  001cb	5e		 pop	 esi
  001cc	e8 00 00 00 00	 call	 @__security_check_cookie@4
  001d1	c9		 leave
  001d2	c3		 ret	 0
??$?8$0M@@@YA_NABVioHashString@@AAY0M@$$CBD@Z ENDP	; operator==<12>
_TEXT	ENDS
PUBLIC	__$ArrayPad$
PUBLIC	??$?8$09@@YA_NABVioHashString@@AAY09$$CBD@Z	; operator==<10>
; Function compile flags: /Ogsp
;	COMDAT ??$?8$09@@YA_NABVioHashString@@AAY09$$CBD@Z
_TEXT	SEGMENT
__t$ = -20						; size = 10
__$ArrayPad$ = -4					; size = 4
_lhs$ = 8						; size = 4
_t$ = 12						; size = 4
??$?8$09@@YA_NABVioHashString@@AAY09$$CBD@Z PROC	; operator==<10>, COMDAT

; 146  : {

  00000	55		 push	 ebp
  00001	8b ec		 mov	 ebp, esp
  00003	83 ec 14	 sub	 esp, 20			; 00000014H
  00006	a1 00 00 00 00	 mov	 eax, DWORD PTR ___security_cookie
  0000b	33 c5		 xor	 eax, ebp
  0000d	89 45 fc	 mov	 DWORD PTR __$ArrayPad$[ebp], eax
  00010	8b 45 0c	 mov	 eax, DWORD PTR _t$[ebp]

; 147  : 	_ENCSTR(t, _t); return ( strcmp( lhs.c_str(), _t ) == 0 );

  00013	8a 10		 mov	 dl, BYTE PTR [eax]
  00015	8b 4d 08	 mov	 ecx, DWORD PTR _lhs$[ebp]
  00018	84 d2		 test	 dl, dl
  0001a	0f 84 0d 01 00
	00		 je	 $LN96@operator@5
  00020	80 f2 ed	 xor	 dl, -19			; ffffffedH
  00023	88 55 ec	 mov	 BYTE PTR __t$[ebp], dl
  00026	8a 50 01	 mov	 dl, BYTE PTR [eax+1]
  00029	84 d2		 test	 dl, dl
  0002b	0f 84 f6 00 00
	00		 je	 $LN95@operator@5
  00031	80 f2 ec	 xor	 dl, -20			; ffffffecH
  00034	88 55 ed	 mov	 BYTE PTR __t$[ebp+1], dl
  00037	8a 50 02	 mov	 dl, BYTE PTR [eax+2]
  0003a	84 d2		 test	 dl, dl
  0003c	0f 84 df 00 00
	00		 je	 $LN94@operator@5
  00042	80 f2 eb	 xor	 dl, -21			; ffffffebH
  00045	88 55 ee	 mov	 BYTE PTR __t$[ebp+2], dl
  00048	8a 50 03	 mov	 dl, BYTE PTR [eax+3]
  0004b	84 d2		 test	 dl, dl
  0004d	0f 84 c8 00 00
	00		 je	 $LN93@operator@5
  00053	80 f2 ea	 xor	 dl, -22			; ffffffeaH
  00056	88 55 ef	 mov	 BYTE PTR __t$[ebp+3], dl
  00059	8a 50 04	 mov	 dl, BYTE PTR [eax+4]
  0005c	84 d2		 test	 dl, dl
  0005e	0f 84 b1 00 00
	00		 je	 $LN92@operator@5
  00064	80 f2 ed	 xor	 dl, -19			; ffffffedH
  00067	88 55 f0	 mov	 BYTE PTR __t$[ebp+4], dl
  0006a	8a 50 05	 mov	 dl, BYTE PTR [eax+5]
  0006d	84 d2		 test	 dl, dl
  0006f	0f 84 9a 00 00
	00		 je	 $LN91@operator@5
  00075	80 f2 ec	 xor	 dl, -20			; ffffffecH
  00078	88 55 f1	 mov	 BYTE PTR __t$[ebp+5], dl
  0007b	8a 50 06	 mov	 dl, BYTE PTR [eax+6]
  0007e	84 d2		 test	 dl, dl
  00080	0f 84 83 00 00
	00		 je	 $LN90@operator@5
  00086	80 f2 eb	 xor	 dl, -21			; ffffffebH
  00089	88 55 f2	 mov	 BYTE PTR __t$[ebp+6], dl
  0008c	8a 50 07	 mov	 dl, BYTE PTR [eax+7]
  0008f	84 d2		 test	 dl, dl
  00091	74 70		 je	 SHORT $LN89@operator@5
  00093	80 f2 ea	 xor	 dl, -22			; ffffffeaH
  00096	88 55 f3	 mov	 BYTE PTR __t$[ebp+7], dl
  00099	8a 50 08	 mov	 dl, BYTE PTR [eax+8]
  0009c	84 d2		 test	 dl, dl
  0009e	74 5d		 je	 SHORT $LN88@operator@5
  000a0	80 f2 ed	 xor	 dl, -19			; ffffffedH
  000a3	80 78 09 00	 cmp	 BYTE PTR [eax+9], 0
  000a7	88 55 f4	 mov	 BYTE PTR __t$[ebp+8], dl
  000aa	0f 84 81 00 00
	00		 je	 $LN1@operator@5
  000b0	8a 50 0a	 mov	 dl, BYTE PTR [eax+10]
  000b3	84 d2		 test	 dl, dl
  000b5	74 40		 je	 SHORT $LN86@operator@5
  000b7	80 f2 eb	 xor	 dl, -21			; ffffffebH
  000ba	88 55 f6	 mov	 BYTE PTR __t$[ebp+10], dl
  000bd	8a 50 0b	 mov	 dl, BYTE PTR [eax+11]
  000c0	84 d2		 test	 dl, dl
  000c2	74 2d		 je	 SHORT $LN85@operator@5
  000c4	80 f2 ea	 xor	 dl, -22			; ffffffeaH
  000c7	88 55 f7	 mov	 BYTE PTR __t$[ebp+11], dl
  000ca	8a 50 0c	 mov	 dl, BYTE PTR [eax+12]
  000cd	84 d2		 test	 dl, dl
  000cf	74 1a		 je	 SHORT $LN84@operator@5
  000d1	8a 40 0d	 mov	 al, BYTE PTR [eax+13]
  000d4	80 f2 ed	 xor	 dl, -19			; ffffffedH
  000d7	88 55 f8	 mov	 BYTE PTR __t$[ebp+12], dl
  000da	84 c0		 test	 al, al
  000dc	74 07		 je	 SHORT $LN83@operator@5
  000de	34 ec		 xor	 al, -20			; ffffffecH
  000e0	88 45 f9	 mov	 BYTE PTR __t$[ebp+13], al
  000e3	eb 4c		 jmp	 SHORT $LN1@operator@5
$LN83@operator@5:
  000e5	c6 45 f9 ec	 mov	 BYTE PTR __t$[ebp+13], -20 ; ffffffecH
  000e9	eb 46		 jmp	 SHORT $LN1@operator@5
$LN84@operator@5:
  000eb	c6 45 f8 ed	 mov	 BYTE PTR __t$[ebp+12], -19 ; ffffffedH
  000ef	eb 40		 jmp	 SHORT $LN1@operator@5
$LN85@operator@5:
  000f1	c6 45 f7 ea	 mov	 BYTE PTR __t$[ebp+11], -22 ; ffffffeaH
  000f5	eb 3a		 jmp	 SHORT $LN1@operator@5
$LN86@operator@5:
  000f7	c6 45 f6 eb	 mov	 BYTE PTR __t$[ebp+10], -21 ; ffffffebH
  000fb	eb 34		 jmp	 SHORT $LN1@operator@5
$LN88@operator@5:
  000fd	c6 45 f4 ed	 mov	 BYTE PTR __t$[ebp+8], -19 ; ffffffedH
  00101	eb 2e		 jmp	 SHORT $LN1@operator@5
$LN89@operator@5:
  00103	c6 45 f3 ea	 mov	 BYTE PTR __t$[ebp+7], -22 ; ffffffeaH
  00107	eb 28		 jmp	 SHORT $LN1@operator@5
$LN90@operator@5:
  00109	c6 45 f2 eb	 mov	 BYTE PTR __t$[ebp+6], -21 ; ffffffebH
  0010d	eb 22		 jmp	 SHORT $LN1@operator@5
$LN91@operator@5:
  0010f	c6 45 f1 ec	 mov	 BYTE PTR __t$[ebp+5], -20 ; ffffffecH
  00113	eb 1c		 jmp	 SHORT $LN1@operator@5
$LN92@operator@5:
  00115	c6 45 f0 ed	 mov	 BYTE PTR __t$[ebp+4], -19 ; ffffffedH
  00119	eb 16		 jmp	 SHORT $LN1@operator@5
$LN93@operator@5:
  0011b	c6 45 ef ea	 mov	 BYTE PTR __t$[ebp+3], -22 ; ffffffeaH
  0011f	eb 10		 jmp	 SHORT $LN1@operator@5
$LN94@operator@5:
  00121	c6 45 ee eb	 mov	 BYTE PTR __t$[ebp+2], -21 ; ffffffebH
  00125	eb 0a		 jmp	 SHORT $LN1@operator@5
$LN95@operator@5:
  00127	c6 45 ed ec	 mov	 BYTE PTR __t$[ebp+1], -20 ; ffffffecH
  0012b	eb 04		 jmp	 SHORT $LN1@operator@5
$LN96@operator@5:
  0012d	c6 45 ec ed	 mov	 BYTE PTR __t$[ebp], -19	; ffffffedH
$LN1@operator@5:
  00131	6a 02		 push	 2
  00133	8d 45 ec	 lea	 eax, DWORD PTR __t$[ebp]
  00136	c6 45 f5 00	 mov	 BYTE PTR __t$[ebp+9], 0
  0013a	5a		 pop	 edx
$LL104@operator@5:
  0013b	81 30 ed ec eb
	ea		 xor	 DWORD PTR [eax], -353637139 ; eaebecedH
  00141	83 c0 04	 add	 eax, 4
  00144	4a		 dec	 edx
  00145	75 f4		 jne	 SHORT $LL104@operator@5
  00147	80 75 f4 ed	 xor	 BYTE PTR __t$[ebp+8], -19 ; ffffffedH
  0014b	56		 push	 esi
  0014c	8d 75 ec	 lea	 esi, DWORD PTR __t$[ebp]
  0014f	ff 15 00 00 00
	00		 call	 DWORD PTR __imp_?c_str@ioHashString@@QBEPBDXZ
$LL111@operator@5:
  00155	8a 08		 mov	 cl, BYTE PTR [eax]
  00157	3a 0e		 cmp	 cl, BYTE PTR [esi]
  00159	75 1a		 jne	 SHORT $LN112@operator@5
  0015b	84 c9		 test	 cl, cl
  0015d	74 12		 je	 SHORT $LN113@operator@5
  0015f	8a 48 01	 mov	 cl, BYTE PTR [eax+1]
  00162	3a 4e 01	 cmp	 cl, BYTE PTR [esi+1]
  00165	75 0e		 jne	 SHORT $LN112@operator@5
  00167	83 c0 02	 add	 eax, 2
  0016a	83 c6 02	 add	 esi, 2
  0016d	84 c9		 test	 cl, cl
  0016f	75 e4		 jne	 SHORT $LL111@operator@5
$LN113@operator@5:
  00171	33 c0		 xor	 eax, eax
  00173	eb 05		 jmp	 SHORT $LN114@operator@5
$LN112@operator@5:
  00175	1b c0		 sbb	 eax, eax
  00177	83 d8 ff	 sbb	 eax, -1
$LN114@operator@5:
  0017a	33 c9		 xor	 ecx, ecx
  0017c	85 c0		 test	 eax, eax
  0017e	0f 94 c0	 sete	 al

; 148  : }

  00181	8b 4d fc	 mov	 ecx, DWORD PTR __$ArrayPad$[ebp]
  00184	33 cd		 xor	 ecx, ebp
  00186	5e		 pop	 esi
  00187	e8 00 00 00 00	 call	 @__security_check_cookie@4
  0018c	c9		 leave
  0018d	c3		 ret	 0
??$?8$09@@YA_NABVioHashString@@AAY09$$CBD@Z ENDP	; operator==<10>
_TEXT	ENDS
PUBLIC	?GetEnableMultiSampleCount@Setting@@SAHXZ	; Setting::GetEnableMultiSampleCount
EXTRN	?m_EnableSampleList@Setting@@1V?$vector@W4_D3DMULTISAMPLE_TYPE@@V?$allocator@W4_D3DMULTISAMPLE_TYPE@@@std@@@std@@A:BYTE ; Setting::m_EnableSampleList
; Function compile flags: /Ogsp
; File d:\lost saga for developer\youtube\tutorial\source\src\lsclient\setting.h
;	COMDAT ?GetEnableMultiSampleCount@Setting@@SAHXZ
_TEXT	SEGMENT
?GetEnableMultiSampleCount@Setting@@SAHXZ PROC		; Setting::GetEnableMultiSampleCount, COMDAT

; 203  : 	static int GetEnableMultiSampleCount() { return m_EnableSampleList.size(); }

  00000	a1 04 00 00 00	 mov	 eax, DWORD PTR ?m_EnableSampleList@Setting@@1V?$vector@W4_D3DMULTISAMPLE_TYPE@@V?$allocator@W4_D3DMULTISAMPLE_TYPE@@@std@@@std@@A+4
  00005	2b 05 00 00 00
	00		 sub	 eax, DWORD PTR ?m_EnableSampleList@Setting@@1V?$vector@W4_D3DMULTISAMPLE_TYPE@@V?$allocator@W4_D3DMULTISAMPLE_TYPE@@@std@@@std@@A
  0000b	c1 f8 02	 sar	 eax, 2
  0000e	c3		 ret	 0
?GetEnableMultiSampleCount@Setting@@SAHXZ ENDP		; Setting::GetEnableMultiSampleCount
_TEXT	ENDS
PUBLIC	??B?$CEncrypt@W4ModeType@@@@QAE?AW4ModeType@@XZ	; CEncrypt<enum ModeType>::operator enum ModeType
; Function compile flags: /Ogsp
; File d:\lost saga for developer\youtube\tutorial\source\src\lsclient\encryptvalue.h
;	COMDAT ??B?$CEncrypt@W4ModeType@@@@QAE?AW4ModeType@@XZ
_TEXT	SEGMENT
_value$ = -4						; size = 4
??B?$CEncrypt@W4ModeType@@@@QAE?AW4ModeType@@XZ PROC	; CEncrypt<enum ModeType>::operator enum ModeType, COMDAT
; _this$ = ecx

; 134  : 	{

  00000	55		 push	 ebp
  00001	8b ec		 mov	 ebp, esp
  00003	51		 push	 ecx

; 135  : 		type value;
; 136  : 		DecryptValueToPool(&value);

  00004	8d 45 fc	 lea	 eax, DWORD PTR _value$[ebp]
  00007	50		 push	 eax
  00008	e8 00 00 00 00	 call	 ?DecryptValueToPool@?$CEncrypt@W4ModeType@@@@QAEXPAW4ModeType@@@Z ; CEncrypt<enum ModeType>::DecryptValueToPool

; 137  : 
; 138  : #ifdef _NOTUSE
; 139  : 		Debug();
; 140  : #endif
; 141  : 		return value;

  0000d	8b 45 fc	 mov	 eax, DWORD PTR _value$[ebp]

; 142  : 	}

  00010	c9		 leave
  00011	c3		 ret	 0
??B?$CEncrypt@W4ModeType@@@@QAE?AW4ModeType@@XZ ENDP	; CEncrypt<enum ModeType>::operator enum ModeType
_TEXT	ENDS
PUBLIC	??0?$_String_val@DV?$allocator@D@std@@@std@@QAE@V?$allocator@D@1@@Z ; std::_String_val<char,std::allocator<char> >::_String_val<char,std::allocator<char> >
; Function compile flags: /Ogsp
; File c:\program files (x86)\microsoft visual studio 10.0\vc\include\xstring
;	COMDAT ??0?$_String_val@DV?$allocator@D@std@@@std@@QAE@V?$allocator@D@1@@Z
_TEXT	SEGMENT
__Al$ = 8						; size = 1
??0?$_String_val@DV?$allocator@D@std@@@std@@QAE@V?$allocator@D@1@@Z PROC ; std::_String_val<char,std::allocator<char> >::_String_val<char,std::allocator<char> >, COMDAT
; _this$ = ecx

; 454  : 		{	// construct allocator from _Al

  00000	8b c1		 mov	 eax, ecx

; 455  : 		}

  00002	c2 04 00	 ret	 4
??0?$_String_val@DV?$allocator@D@std@@@std@@QAE@V?$allocator@D@1@@Z ENDP ; std::_String_val<char,std::allocator<char> >::_String_val<char,std::allocator<char> >
_TEXT	ENDS
PUBLIC	?_Eos@?$basic_string@DU?$char_traits@D@std@@V?$allocator@D@2@@std@@QAEXI@Z ; std::basic_string<char,std::char_traits<char>,std::allocator<char> >::_Eos
; Function compile flags: /Ogsp
;	COMDAT ?_Eos@?$basic_string@DU?$char_traits@D@std@@V?$allocator@D@2@@std@@QAEXI@Z
_TEXT	SEGMENT
__Newsize$ = 8						; size = 4
?_Eos@?$basic_string@DU?$char_traits@D@std@@V?$allocator@D@2@@std@@QAEXI@Z PROC ; std::basic_string<char,std::char_traits<char>,std::allocator<char> >::_Eos, COMDAT
; _this$ = ecx

; 1953 : 		{	// set new length and null terminator

  00000	55		 push	 ebp
  00001	8b ec		 mov	 ebp, esp

; 1954 : 		_Traits::assign(_Myptr()[this->_Mysize = _Newsize], _Elem());

  00003	83 79 14 10	 cmp	 DWORD PTR [ecx+20], 16	; 00000010H
  00007	8b 45 08	 mov	 eax, DWORD PTR __Newsize$[ebp]
  0000a	89 41 10	 mov	 DWORD PTR [ecx+16], eax
  0000d	72 02		 jb	 SHORT $LN5@Eos
  0000f	8b 09		 mov	 ecx, DWORD PTR [ecx]
$LN5@Eos:
  00011	c6 04 01 00	 mov	 BYTE PTR [ecx+eax], 0

; 1955 : 		}

  00015	5d		 pop	 ebp
  00016	c2 04 00	 ret	 4
?_Eos@?$basic_string@DU?$char_traits@D@std@@V?$allocator@D@2@@std@@QAEXI@Z ENDP ; std::basic_string<char,std::char_traits<char>,std::allocator<char> >::_Eos
_TEXT	ENDS
PUBLIC	?max_size@?$basic_string@DU?$char_traits@D@std@@V?$allocator@D@2@@std@@QBEIXZ ; std::basic_string<char,std::char_traits<char>,std::allocator<char> >::max_size
; Function compile flags: /Ogsp
;	COMDAT ?max_size@?$basic_string@DU?$char_traits@D@std@@V?$allocator@D@2@@std@@QBEIXZ
_TEXT	SEGMENT
?max_size@?$basic_string@DU?$char_traits@D@std@@V?$allocator@D@2@@std@@QBEIXZ PROC ; std::basic_string<char,std::char_traits<char>,std::allocator<char> >::max_size, COMDAT
; _this$ = ecx

; 1517 : 		size_type _Num = this->_Alval.max_size();
; 1518 : 		return (_Num <= 1 ? 1 : _Num - 1);

  00000	6a fe		 push	 -2			; fffffffeH
  00002	58		 pop	 eax

; 1519 : 		}

  00003	c3		 ret	 0
?max_size@?$basic_string@DU?$char_traits@D@std@@V?$allocator@D@2@@std@@QBEIXZ ENDP ; std::basic_string<char,std::char_traits<char>,std::allocator<char> >::max_size
_TEXT	ENDS
PUBLIC	?allocate@?$allocator@D@std@@QAEPADI@Z		; std::allocator<char>::allocate
; Function compile flags: /Ogsp
; File c:\program files (x86)\microsoft visual studio 10.0\vc\include\xmemory
;	COMDAT ?allocate@?$allocator@D@std@@QAEPADI@Z
_TEXT	SEGMENT
__Count$ = 8						; size = 4
?allocate@?$allocator@D@std@@QAEPADI@Z PROC		; std::allocator<char>::allocate, COMDAT
; _this$ = ecx

; 186  : 		{	// allocate array of _Count elements

  00000	55		 push	 ebp
  00001	8b ec		 mov	 ebp, esp

; 187  : 		return (_Allocate(_Count, (pointer)0));

  00003	6a 00		 push	 0
  00005	ff 75 08	 push	 DWORD PTR __Count$[ebp]
  00008	e8 00 00 00 00	 call	 ??$_Allocate@D@std@@YAPADIPAD@Z ; std::_Allocate<char>
  0000d	59		 pop	 ecx
  0000e	59		 pop	 ecx

; 188  : 		}

  0000f	5d		 pop	 ebp
  00010	c2 04 00	 ret	 4
?allocate@?$allocator@D@std@@QAEPADI@Z ENDP		; std::allocator<char>::allocate
_TEXT	ENDS
PUBLIC	??$?9DD@std@@YA_NABV?$allocator@D@0@0@Z		; std::operator!=<char,char>
; Function compile flags: /Ogsp
;	COMDAT ??$?9DD@std@@YA_NABV?$allocator@D@0@0@Z
_TEXT	SEGMENT
__Left$ = 8						; size = 4
__Right$ = 12						; size = 4
??$?9DD@std@@YA_NABV?$allocator@D@0@0@Z PROC		; std::operator!=<char,char>, COMDAT

; 271  : 	return (!(_Left == _Right));

  00000	32 c0		 xor	 al, al

; 272  : 	}

  00002	c3		 ret	 0
??$?9DD@std@@YA_NABV?$allocator@D@0@0@Z ENDP		; std::operator!=<char,char>
_TEXT	ENDS
PUBLIC	??_C@_0CH@MCAALJKP@GameOptionBasicWnd?3?3ApplyChanged@ ; `string'
PUBLIC	?ApplyChangedOption@GameOptionBasicWnd@@IAE_NXZ	; GameOptionBasicWnd::ApplyChangedOption
EXTRN	?IsOptionChanged@SettingOption@@QAE_NABU1@@Z:PROC ; SettingOption::IsOptionChanged
;	COMDAT ??_C@_0CH@MCAALJKP@GameOptionBasicWnd?3?3ApplyChanged@
; File d:\lost saga for developer\youtube\tutorial\source\src\lsclient\gui\gameoptionwnd.cpp
CONST	SEGMENT
??_C@_0CH@MCAALJKP@GameOptionBasicWnd?3?3ApplyChanged@ DB 'GameOptionBasi'
	DB	'cWnd::ApplyChangedOption', 00H		; `string'
CONST	ENDS
;	COMDAT xdata$x
xdata$x	SEGMENT
__unwindtable$?ApplyChangedOption@GameOptionBasicWnd@@IAE_NXZ DD 0ffffffffH
	DD	FLAT:__unwindfunclet$?ApplyChangedOption@GameOptionBasicWnd@@IAE_NXZ$0
__ehfuncinfo$?ApplyChangedOption@GameOptionBasicWnd@@IAE_NXZ DD 019930522H
	DD	01H
	DD	FLAT:__unwindtable$?ApplyChangedOption@GameOptionBasicWnd@@IAE_NXZ
	DD	2 DUP(00H)
	DD	2 DUP(00H)
	DD	00H
	DD	01H
; Function compile flags: /Ogsp
xdata$x	ENDS
;	COMDAT ?ApplyChangedOption@GameOptionBasicWnd@@IAE_NXZ
_TEXT	SEGMENT
_kBackUpOption$535059 = -180				; size = 160
_bExceptResolution$ = -17				; size = 1
_bOptionChanged$ = -13					; size = 1
__$EHRec$ = -12						; size = 12
?ApplyChangedOption@GameOptionBasicWnd@@IAE_NXZ PROC	; GameOptionBasicWnd::ApplyChangedOption, COMDAT
; _this$ = ecx

; 58   : {

  00000	68 a8 00 00 00	 push	 168			; 000000a8H
  00005	b8 00 00 00 00	 mov	 eax, __ehhandler$?ApplyChangedOption@GameOptionBasicWnd@@IAE_NXZ
  0000a	e8 00 00 00 00	 call	 __EH_prolog3
  0000f	8b f1		 mov	 esi, ecx

; 59   : 	bool bOptionChanged = false;
; 60   : 	bool bExceptResolution = false;
; 61   : 
; 62   : 	if( Setting::GetSpec() != m_DefaultSpec )

  00011	8b 86 60 01 00
	00		 mov	 eax, DWORD PTR [esi+352]
  00017	c6 45 f3 00	 mov	 BYTE PTR _bOptionChanged$[ebp], 0
  0001b	c6 45 ef 00	 mov	 BYTE PTR _bExceptResolution$[ebp], 0
  0001f	39 05 00 00 00
	00		 cmp	 DWORD PTR ?m_DefaultSpec@Setting@@1W4Spec@1@A, eax ; Setting::m_DefaultSpec
  00025	74 09		 je	 SHORT $LN6@ApplyChang

; 63   : 	{
; 64   : 		Setting::SetSpec( m_DefaultSpec );

  00027	a3 00 00 00 00	 mov	 DWORD PTR ?m_DefaultSpec@Setting@@1W4Spec@1@A, eax ; Setting::m_DefaultSpec

; 65   : 		bOptionChanged = true;

  0002c	c6 45 f3 01	 mov	 BYTE PTR _bOptionChanged$[ebp], 1
$LN6@ApplyChang:

; 66   : 	}
; 67   : 
; 68   : 	if( m_CurrentOption.IsOptionChanged( Setting::GetSettingOption() ) )

  00030	8d 9e 64 01 00
	00		 lea	 ebx, DWORD PTR [esi+356]
  00036	bf 00 00 00 00	 mov	 edi, OFFSET ?m_Option@Setting@@1USettingOption@@A ; Setting::m_Option
  0003b	57		 push	 edi
  0003c	8b cb		 mov	 ecx, ebx
  0003e	e8 00 00 00 00	 call	 ?IsOptionChanged@SettingOption@@QAE_NABU1@@Z ; SettingOption::IsOptionChanged
  00043	84 c0		 test	 al, al
  00045	0f 84 9c 00 00
	00		 je	 $LN5@ApplyChang

; 69   : 	{
; 70   : 		SettingOption kBackUpOption = Setting::GetSettingOption();

  0004b	57		 push	 edi
  0004c	8d 8d 4c ff ff
	ff		 lea	 ecx, DWORD PTR _kBackUpOption$535059[ebp]
  00052	e8 00 00 00 00	 call	 ??0SettingOption@@QAE@ABU0@@Z
  00057	83 65 fc 00	 and	 DWORD PTR __$EHRec$[ebp+8], 0

; 71   : 
; 72   : 		if( g_App.ApplyOptionChange( m_CurrentOption ) )

  0005b	53		 push	 ebx
  0005c	e8 00 00 00 00	 call	 ?GetSingleton@ioApplication@@SAAAV1@XZ ; ioApplication::GetSingleton
  00061	8b c8		 mov	 ecx, eax
  00063	e8 00 00 00 00	 call	 ?ApplyOptionChange@ioApplication@@QAE_NABUSettingOption@@@Z ; ioApplication::ApplyOptionChange
  00068	84 c0		 test	 al, al
  0006a	74 16		 je	 SHORT $LN4@ApplyChang

; 73   : 		{
; 74   : 			bExceptResolution = CheckResolutionChange( kBackUpOption );

  0006c	8b 06		 mov	 eax, DWORD PTR [esi]
  0006e	8d 8d 4c ff ff
	ff		 lea	 ecx, DWORD PTR _kBackUpOption$535059[ebp]
  00074	51		 push	 ecx
  00075	8b ce		 mov	 ecx, esi
  00077	ff 90 34 01 00
	00		 call	 DWORD PTR [eax+308]
  0007d	88 45 ef	 mov	 BYTE PTR _bExceptResolution$[ebp], al

; 75   : 		}
; 76   : 		else

  00080	eb 42		 jmp	 SHORT $LN3@ApplyChang
$LN4@ApplyChang:

; 77   : 		{
; 78   : 			//       
; 79   : 
; 80   : 			if( !g_App.ApplyOptionChange( kBackUpOption ) )

  00082	8d 85 4c ff ff
	ff		 lea	 eax, DWORD PTR _kBackUpOption$535059[ebp]
  00088	50		 push	 eax
  00089	e8 00 00 00 00	 call	 ?GetSingleton@ioApplication@@SAAAV1@XZ ; ioApplication::GetSingleton
  0008e	8b c8		 mov	 ecx, eax
  00090	e8 00 00 00 00	 call	 ?ApplyOptionChange@ioApplication@@QAE_NABUSettingOption@@@Z ; ioApplication::ApplyOptionChange

; 81   : 			{
; 82   : 				//  ... ..
; 83   : 			}
; 84   : 
; 85   : 			g_GUIMgr.SetMsgBox( MB_OK, NULL, STR(1) );

  00095	6a 00		 push	 0
  00097	6a 01		 push	 1
  00099	68 00 00 00 00	 push	 OFFSET ??_C@_00CNPNBAHC@?$AA@
  0009e	68 00 00 00 00	 push	 OFFSET ??_C@_0CH@MCAALJKP@GameOptionBasicWnd?3?3ApplyChanged@
  000a3	ff 15 00 00 00
	00		 call	 DWORD PTR __imp_?GetSingleton@ioStringManager@@SAAAV1@XZ
  000a9	8b c8		 mov	 ecx, eax
  000ab	ff 15 00 00 00
	00		 call	 DWORD PTR __imp_?GetString@ioStringManager@@QAEPADPBD0HW4FileNamePrefix@1@@Z
  000b1	50		 push	 eax
  000b2	6a 00		 push	 0
  000b4	6a 00		 push	 0
  000b6	e8 00 00 00 00	 call	 ?GetSingleton@ioSP2GUIManager@@SAAAV1@XZ ; ioSP2GUIManager::GetSingleton
  000bb	50		 push	 eax
  000bc	e8 00 00 00 00	 call	 ?SetMsgBox@ioSP2GUIManager@@QAAXHPAVioWnd@@PBDZZ ; ioSP2GUIManager::SetMsgBox
  000c1	83 c4 10	 add	 esp, 16			; 00000010H
$LN3@ApplyChang:

; 86   : 		}
; 87   : 
; 88   : 		m_CurrentOption = Setting::GetSettingOption();

  000c4	57		 push	 edi
  000c5	8b cb		 mov	 ecx, ebx
  000c7	e8 00 00 00 00	 call	 ??4SettingOption@@QAEAAU0@ABU0@@Z

; 89   : 		UpdateByCurrentOption();

  000cc	8b 06		 mov	 eax, DWORD PTR [esi]
  000ce	8b ce		 mov	 ecx, esi
  000d0	ff 90 30 01 00
	00		 call	 DWORD PTR [eax+304]

; 90   : 
; 91   : 		bOptionChanged = true;
; 92   : 	}

  000d6	83 4d fc ff	 or	 DWORD PTR __$EHRec$[ebp+8], -1
  000da	8d 4d 98	 lea	 ecx, DWORD PTR _kBackUpOption$535059[ebp+76]
  000dd	c6 45 f3 01	 mov	 BYTE PTR _bOptionChanged$[ebp], 1
  000e1	ff 15 00 00 00
	00		 call	 DWORD PTR __imp_??1ioHashString@@QAE@XZ
$LN5@ApplyChang:

; 93   : 
; 94   : 	if( bOptionChanged )

  000e7	80 7d f3 00	 cmp	 BYTE PTR _bOptionChanged$[ebp], 0
  000eb	74 0a		 je	 SHORT $LN1@ApplyChang

; 95   : 	{
; 96   : 		SaveCurrentSetting( bExceptResolution );

  000ed	ff 75 ef	 push	 DWORD PTR _bExceptResolution$[ebp]
  000f0	8b ce		 mov	 ecx, esi
  000f2	e8 00 00 00 00	 call	 ?SaveCurrentSetting@GameOptionBasicWnd@@IAEX_N@Z ; GameOptionBasicWnd::SaveCurrentSetting
$LN1@ApplyChang:

; 97   : 	}
; 98   : 
; 99   : 	return bOptionChanged;

  000f7	8a 45 f3	 mov	 al, BYTE PTR _bOptionChanged$[ebp]

; 100  : }

  000fa	e8 00 00 00 00	 call	 __EH_epilog3
  000ff	c3		 ret	 0
_TEXT	ENDS
;	COMDAT text$x
text$x	SEGMENT
__unwindfunclet$?ApplyChangedOption@GameOptionBasicWnd@@IAE_NXZ$0:
  00000	8d 8d 4c ff ff
	ff		 lea	 ecx, DWORD PTR _kBackUpOption$535059[ebp]
  00006	e9 00 00 00 00	 jmp	 ??1SettingOption@@QAE@XZ
__ehhandler$?ApplyChangedOption@GameOptionBasicWnd@@IAE_NXZ:
  0000b	8b 54 24 08	 mov	 edx, DWORD PTR [esp+8]
  0000f	8d 42 0c	 lea	 eax, DWORD PTR [edx+12]
  00012	8b 8a 48 ff ff
	ff		 mov	 ecx, DWORD PTR [edx-184]
  00018	33 c8		 xor	 ecx, eax
  0001a	e8 00 00 00 00	 call	 @__security_check_cookie@4
  0001f	b8 00 00 00 00	 mov	 eax, OFFSET __ehfuncinfo$?ApplyChangedOption@GameOptionBasicWnd@@IAE_NXZ
  00024	e9 00 00 00 00	 jmp	 ___CxxFrameHandler3
text$x	ENDS
?ApplyChangedOption@GameOptionBasicWnd@@IAE_NXZ ENDP	; GameOptionBasicWnd::ApplyChangedOption
PUBLIC	_szType$GSCopy$
PUBLIC	_pImage$GSCopy$
PUBLIC	_this$GSCopy$
PUBLIC	__$ArrayPad$
; Function compile flags: /Ogsp
;	COMDAT ?AddRenderImage@GameOptionVolumeTab@@MAEXABVioHashString@@PAVioUIRenderImage@@@Z
_TEXT	SEGMENT
_szType$GSCopy$ = -32					; size = 4
_pImage$GSCopy$ = -28					; size = 4
_this$GSCopy$ = -24					; size = 4
__t$539189 = -20					; size = 8
__t$538984 = -20					; size = 11
__t$538859 = -20					; size = 9
__$ArrayPad$ = -4					; size = 4
_szType$ = 8						; size = 4
_pImage$ = 12						; size = 4
?AddRenderImage@GameOptionVolumeTab@@MAEXABVioHashString@@PAVioUIRenderImage@@@Z PROC ; GameOptionVolumeTab::AddRenderImage, COMDAT
; _this$ = ecx

; 155  : {

  00000	55		 push	 ebp
  00001	8b ec		 mov	 ebp, esp
  00003	83 ec 20	 sub	 esp, 32			; 00000020H
  00006	a1 00 00 00 00	 mov	 eax, DWORD PTR ___security_cookie
  0000b	33 c5		 xor	 eax, ebp
  0000d	89 45 fc	 mov	 DWORD PTR __$ArrayPad$[ebp], eax
  00010	8b 45 0c	 mov	 eax, DWORD PTR _pImage$[ebp]
  00013	8b 55 08	 mov	 edx, DWORD PTR _szType$[ebp]
  00016	53		 push	 ebx
  00017	56		 push	 esi
  00018	57		 push	 edi

; 156  : 	if( szType == "IconBack" )

  00019	33 db		 xor	 ebx, ebx
  0001b	6a 02		 push	 2
  0001d	89 4d e8	 mov	 DWORD PTR _this$GSCopy$[ebp], ecx

; 168  : 	{
; 169  : 		SAFEDELETE( m_pIconMic );

  00020	89 45 e4	 mov	 DWORD PTR _pImage$GSCopy$[ebp], eax
  00023	89 55 e0	 mov	 DWORD PTR _szType$GSCopy$[ebp], edx
  00026	c7 45 ec a4 8f
	84 84		 mov	 DWORD PTR __t$538859[ebp], -2071687260 ; 84848fa4H
  0002d	c7 45 f0 af 8d
	88 81		 mov	 DWORD PTR __t$538859[ebp+4], -2121757265 ; 81888dafH
  00034	8d 45 ec	 lea	 eax, DWORD PTR __t$538859[ebp]
  00037	88 5d f4	 mov	 BYTE PTR __t$538859[ebp+8], bl
  0003a	59		 pop	 ecx
  0003b	bf ed ec eb ea	 mov	 edi, -353637139		; eaebecedH
$LL121@AddRenderI@2:

; 156  : 	if( szType == "IconBack" )

  00040	31 38		 xor	 DWORD PTR [eax], edi
  00042	83 c0 04	 add	 eax, 4
  00045	49		 dec	 ecx
  00046	75 f8		 jne	 SHORT $LL121@AddRenderI@2
  00048	8b ca		 mov	 ecx, edx
  0004a	8d 75 ec	 lea	 esi, DWORD PTR __t$538859[ebp]
  0004d	ff 15 00 00 00
	00		 call	 DWORD PTR __imp_?c_str@ioHashString@@QBEPBDXZ
$LL350@AddRenderI@2:
  00053	8a 08		 mov	 cl, BYTE PTR [eax]
  00055	3a 0e		 cmp	 cl, BYTE PTR [esi]
  00057	75 1a		 jne	 SHORT $LN351@AddRenderI@2
  00059	3a cb		 cmp	 cl, bl
  0005b	74 12		 je	 SHORT $LN352@AddRenderI@2
  0005d	8a 48 01	 mov	 cl, BYTE PTR [eax+1]
  00060	3a 4e 01	 cmp	 cl, BYTE PTR [esi+1]
  00063	75 0e		 jne	 SHORT $LN351@AddRenderI@2
  00065	83 c0 02	 add	 eax, 2
  00068	83 c6 02	 add	 esi, 2
  0006b	3a cb		 cmp	 cl, bl
  0006d	75 e4		 jne	 SHORT $LL350@AddRenderI@2
$LN352@AddRenderI@2:
  0006f	33 c0		 xor	 eax, eax
  00071	eb 05		 jmp	 SHORT $LN353@AddRenderI@2
$LN351@AddRenderI@2:
  00073	1b c0		 sbb	 eax, eax
  00075	83 d8 ff	 sbb	 eax, -1
$LN353@AddRenderI@2:
  00078	3b c3		 cmp	 eax, ebx
  0007a	75 28		 jne	 SHORT $LN348@AddRenderI@2

; 157  : 	{
; 158  : 		SAFEDELETE( m_pIconBack );

  0007c	8b 75 e8	 mov	 esi, DWORD PTR _this$GSCopy$[ebp]
  0007f	8b 8e 04 02 00
	00		 mov	 ecx, DWORD PTR [esi+516]
  00085	3b cb		 cmp	 ecx, ebx
  00087	74 0d		 je	 SHORT $LN8@AddRenderI@2
  00089	8b 01		 mov	 eax, DWORD PTR [ecx]
  0008b	6a 01		 push	 1
  0008d	ff 50 40	 call	 DWORD PTR [eax+64]
  00090	89 9e 04 02 00
	00		 mov	 DWORD PTR [esi+516], ebx
$LN8@AddRenderI@2:

; 159  : 		m_pIconBack = pImage;

  00096	8b 45 e4	 mov	 eax, DWORD PTR _pImage$GSCopy$[ebp]
  00099	89 86 04 02 00
	00		 mov	 DWORD PTR [esi+516], eax
  0009f	e9 3c 01 00 00	 jmp	 $LN1@AddRenderI@2
$LN348@AddRenderI@2:

; 160  : 	}
; 161  : 	else if( szType == "IconVolume" )

  000a4	6a 02		 push	 2
  000a6	c7 45 ec a4 8f
	84 84		 mov	 DWORD PTR __t$538984[ebp], -2071687260 ; 84848fa4H
  000ad	c7 45 f0 bb 83
	87 9f		 mov	 DWORD PTR __t$538984[ebp+4], -1618508869 ; 9f8783bbH
  000b4	66 c7 45 f4 80
	89		 mov	 WORD PTR __t$538984[ebp+8], 35200 ; 00008980H
  000ba	8d 45 ec	 lea	 eax, DWORD PTR __t$538984[ebp]
  000bd	88 5d f6	 mov	 BYTE PTR __t$538984[ebp+10], bl
  000c0	59		 pop	 ecx
$LL227@AddRenderI@2:
  000c1	31 38		 xor	 DWORD PTR [eax], edi
  000c3	83 c0 04	 add	 eax, 4
  000c6	49		 dec	 ecx
  000c7	75 f8		 jne	 SHORT $LL227@AddRenderI@2
  000c9	6a 08		 push	 8
  000cb	58		 pop	 eax
$LL224@AddRenderI@2:
  000cc	8b c8		 mov	 ecx, eax
  000ce	81 e1 03 00 00
	80		 and	 ecx, -2147483645	; 80000003H
  000d4	79 05		 jns	 SHORT $LN362@AddRenderI@2
  000d6	49		 dec	 ecx
  000d7	83 c9 fc	 or	 ecx, -4			; fffffffcH
  000da	41		 inc	 ecx
$LN362@AddRenderI@2:
  000db	b2 ed		 mov	 dl, -19			; ffffffedH
  000dd	2a d1		 sub	 dl, cl
  000df	30 54 05 ec	 xor	 BYTE PTR __t$538984[ebp+eax], dl
  000e3	40		 inc	 eax
  000e4	83 f8 0a	 cmp	 eax, 10			; 0000000aH
  000e7	7c e3		 jl	 SHORT $LL224@AddRenderI@2
  000e9	8b 4d e0	 mov	 ecx, DWORD PTR _szType$GSCopy$[ebp]
  000ec	8d 75 ec	 lea	 esi, DWORD PTR __t$538984[ebp]
  000ef	ff 15 00 00 00
	00		 call	 DWORD PTR __imp_?c_str@ioHashString@@QBEPBDXZ
$LL354@AddRenderI@2:
  000f5	8a 08		 mov	 cl, BYTE PTR [eax]
  000f7	3a 0e		 cmp	 cl, BYTE PTR [esi]
  000f9	75 1a		 jne	 SHORT $LN355@AddRenderI@2
  000fb	3a cb		 cmp	 cl, bl
  000fd	74 12		 je	 SHORT $LN356@AddRenderI@2
  000ff	8a 48 01	 mov	 cl, BYTE PTR [eax+1]
  00102	3a 4e 01	 cmp	 cl, BYTE PTR [esi+1]
  00105	75 0e		 jne	 SHORT $LN355@AddRenderI@2
  00107	83 c0 02	 add	 eax, 2
  0010a	83 c6 02	 add	 esi, 2
  0010d	3a cb		 cmp	 cl, bl
  0010f	75 e4		 jne	 SHORT $LL354@AddRenderI@2
$LN356@AddRenderI@2:
  00111	33 c0		 xor	 eax, eax
  00113	eb 05		 jmp	 SHORT $LN357@AddRenderI@2
$LN355@AddRenderI@2:
  00115	1b c0		 sbb	 eax, eax
  00117	83 d8 ff	 sbb	 eax, -1
$LN357@AddRenderI@2:
  0011a	3b c3		 cmp	 eax, ebx
  0011c	75 28		 jne	 SHORT $LN349@AddRenderI@2

; 162  : 	{
; 163  : 		SAFEDELETE( m_pIconVolume );

  0011e	8b 75 e8	 mov	 esi, DWORD PTR _this$GSCopy$[ebp]
  00121	8b 8e 08 02 00
	00		 mov	 ecx, DWORD PTR [esi+520]
  00127	3b cb		 cmp	 ecx, ebx
  00129	74 0d		 je	 SHORT $LN5@AddRenderI@2
  0012b	8b 01		 mov	 eax, DWORD PTR [ecx]
  0012d	6a 01		 push	 1
  0012f	ff 50 40	 call	 DWORD PTR [eax+64]
  00132	89 9e 08 02 00
	00		 mov	 DWORD PTR [esi+520], ebx
$LN5@AddRenderI@2:

; 164  : 		m_pIconVolume = pImage;

  00138	8b 45 e4	 mov	 eax, DWORD PTR _pImage$GSCopy$[ebp]
  0013b	89 86 08 02 00
	00		 mov	 DWORD PTR [esi+520], eax
  00141	e9 9a 00 00 00	 jmp	 $LN1@AddRenderI@2
$LN349@AddRenderI@2:

; 165  : 
; 166  : 	}
; 167  : 	else if( szType == "IconMic" )

  00146	6a 04		 push	 4
  00148	c7 45 ec a4 8f
	84 84		 mov	 DWORD PTR __t$539189[ebp], -2071687260 ; 84848fa4H
  0014f	31 7d ec	 xor	 DWORD PTR __t$539189[ebp], edi
  00152	c7 45 f0 a0 85
	88 00		 mov	 DWORD PTR __t$539189[ebp+4], 8947104 ; 008885a0H
  00159	58		 pop	 eax
$LL330@AddRenderI@2:
  0015a	8b c8		 mov	 ecx, eax
  0015c	81 e1 03 00 00
	80		 and	 ecx, -2147483645	; 80000003H
  00162	79 05		 jns	 SHORT $LN363@AddRenderI@2
  00164	49		 dec	 ecx
  00165	83 c9 fc	 or	 ecx, -4			; fffffffcH
  00168	41		 inc	 ecx
$LN363@AddRenderI@2:
  00169	b2 ed		 mov	 dl, -19			; ffffffedH
  0016b	2a d1		 sub	 dl, cl
  0016d	30 54 05 ec	 xor	 BYTE PTR __t$539189[ebp+eax], dl
  00171	40		 inc	 eax
  00172	83 f8 07	 cmp	 eax, 7
  00175	7c e3		 jl	 SHORT $LL330@AddRenderI@2
  00177	8b 4d e0	 mov	 ecx, DWORD PTR _szType$GSCopy$[ebp]
  0017a	8d 75 ec	 lea	 esi, DWORD PTR __t$539189[ebp]
  0017d	ff 15 00 00 00
	00		 call	 DWORD PTR __imp_?c_str@ioHashString@@QBEPBDXZ
$LL358@AddRenderI@2:
  00183	8a 08		 mov	 cl, BYTE PTR [eax]
  00185	3a 0e		 cmp	 cl, BYTE PTR [esi]
  00187	75 1a		 jne	 SHORT $LN359@AddRenderI@2
  00189	3a cb		 cmp	 cl, bl
  0018b	74 12		 je	 SHORT $LN360@AddRenderI@2
  0018d	8a 48 01	 mov	 cl, BYTE PTR [eax+1]
  00190	3a 4e 01	 cmp	 cl, BYTE PTR [esi+1]
  00193	75 0e		 jne	 SHORT $LN359@AddRenderI@2
  00195	83 c0 02	 add	 eax, 2
  00198	83 c6 02	 add	 esi, 2
  0019b	3a cb		 cmp	 cl, bl
  0019d	75 e4		 jne	 SHORT $LL358@AddRenderI@2
$LN360@AddRenderI@2:
  0019f	33 c0		 xor	 eax, eax
  001a1	eb 05		 jmp	 SHORT $LN361@AddRenderI@2
$LN359@AddRenderI@2:
  001a3	1b c0		 sbb	 eax, eax
  001a5	83 d8 ff	 sbb	 eax, -1
$LN361@AddRenderI@2:
  001a8	3b c3		 cmp	 eax, ebx
  001aa	75 25		 jne	 SHORT $LN3@AddRenderI@2

; 168  : 	{
; 169  : 		SAFEDELETE( m_pIconMic );

  001ac	8b 75 e8	 mov	 esi, DWORD PTR _this$GSCopy$[ebp]
  001af	8b 8e 0c 02 00
	00		 mov	 ecx, DWORD PTR [esi+524]
  001b5	3b cb		 cmp	 ecx, ebx
  001b7	74 0d		 je	 SHORT $LN2@AddRenderI@2
  001b9	8b 01		 mov	 eax, DWORD PTR [ecx]
  001bb	6a 01		 push	 1
  001bd	ff 50 40	 call	 DWORD PTR [eax+64]
  001c0	89 9e 0c 02 00
	00		 mov	 DWORD PTR [esi+524], ebx
$LN2@AddRenderI@2:

; 170  : 		m_pIconMic = pImage;

  001c6	8b 45 e4	 mov	 eax, DWORD PTR _pImage$GSCopy$[ebp]
  001c9	89 86 0c 02 00
	00		 mov	 DWORD PTR [esi+524], eax

; 171  : 	}
; 172  : 	else

  001cf	eb 0f		 jmp	 SHORT $LN1@AddRenderI@2
$LN3@AddRenderI@2:

; 173  : 	{
; 174  : 		GameOptionBasicWnd::AddRenderImage( szType, pImage );

  001d1	ff 75 e4	 push	 DWORD PTR _pImage$GSCopy$[ebp]
  001d4	8b 4d e8	 mov	 ecx, DWORD PTR _this$GSCopy$[ebp]
  001d7	ff 75 e0	 push	 DWORD PTR _szType$GSCopy$[ebp]
  001da	ff 15 00 00 00
	00		 call	 DWORD PTR __imp_?AddRenderImage@ioWnd@@UAEXABVioHashString@@PAVioUIRenderImage@@@Z
$LN1@AddRenderI@2:

; 175  : 	}
; 176  : }

  001e0	8b 4d fc	 mov	 ecx, DWORD PTR __$ArrayPad$[ebp]
  001e3	5f		 pop	 edi
  001e4	5e		 pop	 esi
  001e5	33 cd		 xor	 ecx, ebp
  001e7	5b		 pop	 ebx
  001e8	e8 00 00 00 00	 call	 @__security_check_cookie@4
  001ed	c9		 leave
  001ee	c2 08 00	 ret	 8
?AddRenderImage@GameOptionVolumeTab@@MAEXABVioHashString@@PAVioUIRenderImage@@@Z ENDP ; GameOptionVolumeTab::AddRenderImage
_TEXT	ENDS
PUBLIC	?ChangeMic@GameOptionVolumeTab@@QAEXXZ		; GameOptionVolumeTab::ChangeMic
; Function compile flags: /Ogsp
;	COMDAT ?ChangeMic@GameOptionVolumeTab@@QAEXXZ
_TEXT	SEGMENT
?ChangeMic@GameOptionVolumeTab@@QAEXXZ PROC		; GameOptionVolumeTab::ChangeMic, COMDAT
; _this$ = ecx

; 448  : {

  00000	56		 push	 esi
  00001	8b f1		 mov	 esi, ecx

; 449  : 	if(IsShow()) 

  00003	ff 15 00 00 00
	00		 call	 DWORD PTR __imp_?IsShow@ioWnd@@QBE_NXZ
  00009	84 c0		 test	 al, al
  0000b	74 18		 je	 SHORT $LN2@ChangeMic
$LN11@ChangeMic:

; 450  : 	{
; 451  : 		m_CurrentOption.m_bUseMIC = !m_CurrentOption.m_bUseMIC;

  0000d	80 be a7 01 00
	00 00		 cmp	 BYTE PTR [esi+423], 0
  00014	0f 94 c1	 sete	 cl
  00017	88 8e a7 01 00
	00		 mov	 BYTE PTR [esi+423], cl

; 452  : 		ApplyChangedOption();

  0001d	8b ce		 mov	 ecx, esi
  0001f	5e		 pop	 esi
  00020	e9 00 00 00 00	 jmp	 ?ApplyChangedOption@GameOptionBasicWnd@@IAE_NXZ ; GameOptionBasicWnd::ApplyChangedOption
$LN2@ChangeMic:

; 453  : 	}
; 454  : 	else
; 455  : 	{
; 456  : 		// 
; 457  : 		m_DefaultSpec   = Setting::GetSpec();

  00025	a1 00 00 00 00	 mov	 eax, DWORD PTR ?m_DefaultSpec@Setting@@1W4Spec@1@A ; Setting::m_DefaultSpec

; 458  : 		m_CurrentOption = Setting::GetSettingOption();

  0002a	68 00 00 00 00	 push	 OFFSET ?m_Option@Setting@@1USettingOption@@A ; Setting::m_Option
  0002f	8d 8e 64 01 00
	00		 lea	 ecx, DWORD PTR [esi+356]
  00035	89 86 60 01 00
	00		 mov	 DWORD PTR [esi+352], eax
  0003b	e8 00 00 00 00	 call	 ??4SettingOption@@QAEAAU0@ABU0@@Z

; 459  : 		m_CurrentOption.m_bUseMIC = !m_CurrentOption.m_bUseMIC;
; 460  : 		ApplyChangedOption();

  00040	eb cb		 jmp	 SHORT $LN11@ChangeMic
?ChangeMic@GameOptionVolumeTab@@QAEXXZ ENDP		; GameOptionVolumeTab::ChangeMic
_TEXT	ENDS
PUBLIC	?ChangeOtherVoice@GameOptionVolumeTab@@QAEXXZ	; GameOptionVolumeTab::ChangeOtherVoice
; Function compile flags: /Ogsp
;	COMDAT ?ChangeOtherVoice@GameOptionVolumeTab@@QAEXXZ
_TEXT	SEGMENT
?ChangeOtherVoice@GameOptionVolumeTab@@QAEXXZ PROC	; GameOptionVolumeTab::ChangeOtherVoice, COMDAT
; _this$ = ecx

; 465  : {

  00000	56		 push	 esi
  00001	8b f1		 mov	 esi, ecx

; 466  : 	if(IsShow()) 

  00003	ff 15 00 00 00
	00		 call	 DWORD PTR __imp_?IsShow@ioWnd@@QBE_NXZ
  00009	84 c0		 test	 al, al
  0000b	74 18		 je	 SHORT $LN2@ChangeOthe
$LN11@ChangeOthe:

; 467  : 	{
; 468  : 		m_CurrentOption.m_bUseOtherVoiceChat = !m_CurrentOption.m_bUseOtherVoiceChat;

  0000d	80 be a6 01 00
	00 00		 cmp	 BYTE PTR [esi+422], 0
  00014	0f 94 c1	 sete	 cl
  00017	88 8e a6 01 00
	00		 mov	 BYTE PTR [esi+422], cl

; 469  : 		ApplyChangedOption();

  0001d	8b ce		 mov	 ecx, esi
  0001f	5e		 pop	 esi
  00020	e9 00 00 00 00	 jmp	 ?ApplyChangedOption@GameOptionBasicWnd@@IAE_NXZ ; GameOptionBasicWnd::ApplyChangedOption
$LN2@ChangeOthe:

; 470  : 	}
; 471  : 	else
; 472  : 	{
; 473  : 		// 
; 474  : 		m_DefaultSpec   = Setting::GetSpec();

  00025	a1 00 00 00 00	 mov	 eax, DWORD PTR ?m_DefaultSpec@Setting@@1W4Spec@1@A ; Setting::m_DefaultSpec

; 475  : 		m_CurrentOption = Setting::GetSettingOption();

  0002a	68 00 00 00 00	 push	 OFFSET ?m_Option@Setting@@1USettingOption@@A ; Setting::m_Option
  0002f	8d 8e 64 01 00
	00		 lea	 ecx, DWORD PTR [esi+356]
  00035	89 86 60 01 00
	00		 mov	 DWORD PTR [esi+352], eax
  0003b	e8 00 00 00 00	 call	 ??4SettingOption@@QAEAAU0@ABU0@@Z

; 476  : 		m_CurrentOption.m_bUseOtherVoiceChat = !m_CurrentOption.m_bUseOtherVoiceChat;
; 477  : 		ApplyChangedOption();

  00040	eb cb		 jmp	 SHORT $LN11@ChangeOthe
?ChangeOtherVoice@GameOptionVolumeTab@@QAEXXZ ENDP	; GameOptionVolumeTab::ChangeOtherVoice
; Function compile flags: /Ogsp
_TEXT	ENDS
;	COMDAT ?iwm_hide@GameOptionVolumeTab@@UAEXXZ
_TEXT	SEGMENT
?iwm_hide@GameOptionVolumeTab@@UAEXXZ PROC		; GameOptionVolumeTab::iwm_hide, COMDAT
; _this$ = ecx

; 483  : 	ApplyChangedOption();

  00000	e9 00 00 00 00	 jmp	 ?ApplyChangedOption@GameOptionBasicWnd@@IAE_NXZ ; GameOptionBasicWnd::ApplyChangedOption
?iwm_hide@GameOptionVolumeTab@@UAEXXZ ENDP		; GameOptionVolumeTab::iwm_hide
_TEXT	ENDS
PUBLIC	_this$GSCopy$
PUBLIC	__$ArrayPad$
EXTRN	__imp_?AddRenderImage@ioButton@@UAEXABVioHashString@@PAVioUIRenderImage@@@Z:PROC
; Function compile flags: /Ogsp
;	COMDAT ?AddRenderImage@GameSpecRadioBtn@@MAEXABVioHashString@@PAVioUIRenderImage@@@Z
_TEXT	SEGMENT
_this$GSCopy$ = -20					; size = 4
__t$539379 = -16					; size = 8
__$ArrayPad$ = -4					; size = 4
_szType$ = 8						; size = 4
_pImage$ = 12						; size = 4
?AddRenderImage@GameSpecRadioBtn@@MAEXABVioHashString@@PAVioUIRenderImage@@@Z PROC ; GameSpecRadioBtn::AddRenderImage, COMDAT
; _this$ = ecx

; 547  : {

  00000	55		 push	 ebp
  00001	8b ec		 mov	 ebp, esp
  00003	83 ec 14	 sub	 esp, 20			; 00000014H
  00006	a1 00 00 00 00	 mov	 eax, DWORD PTR ___security_cookie
  0000b	33 c5		 xor	 eax, ebp
  0000d	89 45 fc	 mov	 DWORD PTR __$ArrayPad$[ebp], eax
  00010	53		 push	 ebx
  00011	8b 5d 0c	 mov	 ebx, DWORD PTR _pImage$[ebp]
  00014	56		 push	 esi
  00015	57		 push	 edi
  00016	8b 7d 08	 mov	 edi, DWORD PTR _szType$[ebp]

; 548  : 	if( szType == "Checked" )

  00019	6a 04		 push	 4
  0001b	c7 45 f0 ae 84
	8e 89		 mov	 DWORD PTR __t$539379[ebp], -1987148626 ; 898e84aeH
  00022	81 75 f0 ed ec
	eb ea		 xor	 DWORD PTR __t$539379[ebp], -353637139 ; eaebecedH
  00029	89 4d ec	 mov	 DWORD PTR _this$GSCopy$[ebp], ecx
  0002c	c7 45 f4 86 89
	8f 00		 mov	 DWORD PTR __t$539379[ebp+4], 9406854 ; 008f8986H
  00033	58		 pop	 eax
$LL108@AddRenderI@3:
  00034	8b c8		 mov	 ecx, eax
  00036	81 e1 03 00 00
	80		 and	 ecx, -2147483645	; 80000003H
  0003c	79 05		 jns	 SHORT $LN122@AddRenderI@3
  0003e	49		 dec	 ecx
  0003f	83 c9 fc	 or	 ecx, -4			; fffffffcH
  00042	41		 inc	 ecx
$LN122@AddRenderI@3:
  00043	b2 ed		 mov	 dl, -19			; ffffffedH
  00045	2a d1		 sub	 dl, cl
  00047	30 54 05 f0	 xor	 BYTE PTR __t$539379[ebp+eax], dl
  0004b	40		 inc	 eax
  0004c	83 f8 07	 cmp	 eax, 7
  0004f	7c e3		 jl	 SHORT $LL108@AddRenderI@3
  00051	8b cf		 mov	 ecx, edi
  00053	8d 75 f0	 lea	 esi, DWORD PTR __t$539379[ebp]
  00056	ff 15 00 00 00
	00		 call	 DWORD PTR __imp_?c_str@ioHashString@@QBEPBDXZ
$LL118@AddRenderI@3:
  0005c	8a 08		 mov	 cl, BYTE PTR [eax]
  0005e	3a 0e		 cmp	 cl, BYTE PTR [esi]
  00060	75 1a		 jne	 SHORT $LN119@AddRenderI@3
  00062	84 c9		 test	 cl, cl
  00064	74 12		 je	 SHORT $LN120@AddRenderI@3
  00066	8a 48 01	 mov	 cl, BYTE PTR [eax+1]
  00069	3a 4e 01	 cmp	 cl, BYTE PTR [esi+1]
  0006c	75 0e		 jne	 SHORT $LN119@AddRenderI@3
  0006e	83 c0 02	 add	 eax, 2
  00071	83 c6 02	 add	 esi, 2
  00074	84 c9		 test	 cl, cl
  00076	75 e4		 jne	 SHORT $LL118@AddRenderI@3
$LN120@AddRenderI@3:
  00078	33 c0		 xor	 eax, eax
  0007a	eb 05		 jmp	 SHORT $LN121@AddRenderI@3
$LN119@AddRenderI@3:
  0007c	1b c0		 sbb	 eax, eax
  0007e	83 d8 ff	 sbb	 eax, -1
$LN121@AddRenderI@3:
  00081	85 c0		 test	 eax, eax
  00083	75 23		 jne	 SHORT $LN3@AddRenderI@3

; 549  : 	{
; 550  : 		SAFEDELETE( m_pChecked );

  00085	8b 75 ec	 mov	 esi, DWORD PTR _this$GSCopy$[ebp]
  00088	8b 8e fc 01 00
	00		 mov	 ecx, DWORD PTR [esi+508]
  0008e	85 c9		 test	 ecx, ecx
  00090	74 0e		 je	 SHORT $LN2@AddRenderI@3
  00092	8b 01		 mov	 eax, DWORD PTR [ecx]
  00094	6a 01		 push	 1
  00096	ff 50 40	 call	 DWORD PTR [eax+64]
  00099	83 a6 fc 01 00
	00 00		 and	 DWORD PTR [esi+508], 0
$LN2@AddRenderI@3:

; 551  : 		m_pChecked = pImage;

  000a0	89 9e fc 01 00
	00		 mov	 DWORD PTR [esi+508], ebx

; 552  : 	}
; 553  : 	else

  000a6	eb 0b		 jmp	 SHORT $LN1@AddRenderI@3
$LN3@AddRenderI@3:

; 554  : 	{
; 555  : 		ioButton::AddRenderImage( szType, pImage );

  000a8	8b 4d ec	 mov	 ecx, DWORD PTR _this$GSCopy$[ebp]
  000ab	53		 push	 ebx
  000ac	57		 push	 edi
  000ad	ff 15 00 00 00
	00		 call	 DWORD PTR __imp_?AddRenderImage@ioButton@@UAEXABVioHashString@@PAVioUIRenderImage@@@Z
$LN1@AddRenderI@3:

; 556  : 	}
; 557  : }

  000b3	8b 4d fc	 mov	 ecx, DWORD PTR __$ArrayPad$[ebp]
  000b6	5f		 pop	 edi
  000b7	5e		 pop	 esi
  000b8	33 cd		 xor	 ecx, ebp
  000ba	5b		 pop	 ebx
  000bb	e8 00 00 00 00	 call	 @__security_check_cookie@4
  000c0	c9		 leave
  000c1	c2 08 00	 ret	 8
?AddRenderImage@GameSpecRadioBtn@@MAEXABVioHashString@@PAVioUIRenderImage@@@Z ENDP ; GameSpecRadioBtn::AddRenderImage
_TEXT	ENDS
PUBLIC	?SetAntiOptionEnable@GameOptionSpecTab@@IAEX_N@Z ; GameOptionSpecTab::SetAntiOptionEnable
; Function compile flags: /Ogsp
;	COMDAT ?SetAntiOptionEnable@GameOptionSpecTab@@IAEX_N@Z
_TEXT	SEGMENT
_bEnable$ = 8						; size = 1
?SetAntiOptionEnable@GameOptionSpecTab@@IAEX_N@Z PROC	; GameOptionSpecTab::SetAntiOptionEnable, COMDAT
; _this$ = ecx

; 622  : {

  00000	55		 push	 ebp
  00001	8b ec		 mov	 ebp, esp
  00003	53		 push	 ebx
  00004	56		 push	 esi

; 623  : 	SetChildInActive( ID_ANTI_ALIASING_HIGH );

  00005	8b 35 00 00 00
	00		 mov	 esi, DWORD PTR __imp_?SetChildInActive@ioWnd@@QAEXK@Z
  0000b	6a 0c		 push	 12			; 0000000cH
  0000d	8b d9		 mov	 ebx, ecx
  0000f	ff d6		 call	 esi

; 624  : 	SetChildInActive( ID_ANTI_ALIASING_MIDDLE );

  00011	6a 0d		 push	 13			; 0000000dH
  00013	8b cb		 mov	 ecx, ebx
  00015	ff d6		 call	 esi

; 625  : 	SetChildInActive( ID_ANTI_ALIASING_LOW );

  00017	6a 0e		 push	 14			; 0000000eH
  00019	8b cb		 mov	 ecx, ebx
  0001b	ff d6		 call	 esi

; 626  : 
; 627  : 	if( bEnable )

  0001d	80 7d 08 00	 cmp	 BYTE PTR _bEnable$[ebp], 0
  00021	74 38		 je	 SHORT $LN1@SetAntiOpt

; 628  : 	{
; 629  : 		int iMaxCount = Setting::GetEnableMultiSampleCount();
; 630  : 		
; 631  : 		if( iMaxCount >= 3 )

  00023	8b 35 00 00 00
	00		 mov	 esi, DWORD PTR __imp_?SetChildActive@ioWnd@@QAEXK@Z
  00029	57		 push	 edi
  0002a	8b 3d 04 00 00
	00		 mov	 edi, DWORD PTR ?m_EnableSampleList@Setting@@1V?$vector@W4_D3DMULTISAMPLE_TYPE@@V?$allocator@W4_D3DMULTISAMPLE_TYPE@@@std@@@std@@A+4
  00030	2b 3d 00 00 00
	00		 sub	 edi, DWORD PTR ?m_EnableSampleList@Setting@@1V?$vector@W4_D3DMULTISAMPLE_TYPE@@V?$allocator@W4_D3DMULTISAMPLE_TYPE@@@std@@@std@@A
  00036	c1 ff 02	 sar	 edi, 2
  00039	83 ff 03	 cmp	 edi, 3
  0003c	7c 06		 jl	 SHORT $LN3@SetAntiOpt

; 632  : 			SetChildActive( ID_ANTI_ALIASING_HIGH );

  0003e	6a 0c		 push	 12			; 0000000cH
  00040	8b cb		 mov	 ecx, ebx
  00042	ff d6		 call	 esi
$LN3@SetAntiOpt:

; 633  : 
; 634  : 		if( iMaxCount >= 2 )

  00044	83 ff 02	 cmp	 edi, 2
  00047	7c 06		 jl	 SHORT $LN2@SetAntiOpt

; 635  : 			SetChildActive( ID_ANTI_ALIASING_MIDDLE );

  00049	6a 0d		 push	 13			; 0000000dH
  0004b	8b cb		 mov	 ecx, ebx
  0004d	ff d6		 call	 esi
$LN2@SetAntiOpt:

; 636  : 
; 637  : 		if( iMaxCount >= 1 )

  0004f	83 ff 01	 cmp	 edi, 1
  00052	5f		 pop	 edi
  00053	7c 06		 jl	 SHORT $LN1@SetAntiOpt

; 638  : 			SetChildActive( ID_ANTI_ALIASING_LOW );

  00055	6a 0e		 push	 14			; 0000000eH
  00057	8b cb		 mov	 ecx, ebx
  00059	ff d6		 call	 esi
$LN1@SetAntiOpt:
  0005b	5e		 pop	 esi
  0005c	5b		 pop	 ebx

; 639  : 	}
; 640  : }

  0005d	5d		 pop	 ebp
  0005e	c2 04 00	 ret	 4
?SetAntiOptionEnable@GameOptionSpecTab@@IAEX_N@Z ENDP	; GameOptionSpecTab::SetAntiOptionEnable
_TEXT	ENDS
PUBLIC	_pImage$GSCopy$
PUBLIC	_this$GSCopy$
PUBLIC	_szType$GSCopy$
PUBLIC	__$ArrayPad$
; Function compile flags: /Ogsp
;	COMDAT ?AddRenderImage@BackgroundChangeBtn@@MAEXABVioHashString@@PAVioUIRenderImage@@@Z
_TEXT	SEGMENT
_pImage$GSCopy$ = -32					; size = 4
_this$GSCopy$ = -28					; size = 4
_szType$GSCopy$ = -24					; size = 4
__t$539568 = -20					; size = 11
__t$539443 = -20					; size = 12
__$ArrayPad$ = -4					; size = 4
_szType$ = 8						; size = 4
_pImage$ = 12						; size = 4
?AddRenderImage@BackgroundChangeBtn@@MAEXABVioHashString@@PAVioUIRenderImage@@@Z PROC ; BackgroundChangeBtn::AddRenderImage, COMDAT
; _this$ = ecx

; 1804 : {

  00000	55		 push	 ebp
  00001	8b ec		 mov	 ebp, esp
  00003	83 ec 20	 sub	 esp, 32			; 00000020H
  00006	a1 00 00 00 00	 mov	 eax, DWORD PTR ___security_cookie
  0000b	33 c5		 xor	 eax, ebp
  0000d	89 45 fc	 mov	 DWORD PTR __$ArrayPad$[ebp], eax
  00010	8b 45 08	 mov	 eax, DWORD PTR _szType$[ebp]
  00013	53		 push	 ebx
  00014	56		 push	 esi
  00015	57		 push	 edi

; 1809 : 	}
; 1810 : 	else if( szType == "StripBlack" )

  00016	89 45 e8	 mov	 DWORD PTR _szType$GSCopy$[ebp], eax
  00019	8b 45 0c	 mov	 eax, DWORD PTR _pImage$[ebp]
  0001c	6a 02		 push	 2
  0001e	5b		 pop	 ebx
  0001f	89 4d e4	 mov	 DWORD PTR _this$GSCopy$[ebp], ecx
  00022	89 45 e0	 mov	 DWORD PTR _pImage$GSCopy$[ebp], eax
  00025	c7 45 ec a9 89
	8d 8b		 mov	 DWORD PTR __t$539443[ebp], -1953658455 ; 8b8d89a9H
  0002c	c7 45 f0 98 80
	9f a8		 mov	 DWORD PTR __t$539443[ebp+4], -1465941864 ; a89f8098H
  00033	8d 45 ec	 lea	 eax, DWORD PTR __t$539443[ebp]
  00036	c7 45 f4 8c 8f
	80 00		 mov	 DWORD PTR __t$539443[ebp+8], 8425356 ; 00808f8cH
  0003d	8b cb		 mov	 ecx, ebx
  0003f	bf ed ec eb ea	 mov	 edi, -353637139		; eaebecedH
$LL116@AddRenderI@4:

; 1805 : 	if( szType == "DefaultBack" )

  00044	31 38		 xor	 DWORD PTR [eax], edi
  00046	83 c0 04	 add	 eax, 4
  00049	49		 dec	 ecx
  0004a	75 f8		 jne	 SHORT $LL116@AddRenderI@4
  0004c	6a 08		 push	 8
  0004e	58		 pop	 eax
$LL113@AddRenderI@4:
  0004f	8b c8		 mov	 ecx, eax
  00051	81 e1 03 00 00
	80		 and	 ecx, -2147483645	; 80000003H
  00057	79 05		 jns	 SHORT $LN242@AddRenderI@4
  00059	49		 dec	 ecx
  0005a	83 c9 fc	 or	 ecx, -4			; fffffffcH
  0005d	41		 inc	 ecx
$LN242@AddRenderI@4:
  0005e	b2 ed		 mov	 dl, -19			; ffffffedH
  00060	2a d1		 sub	 dl, cl
  00062	30 54 05 ec	 xor	 BYTE PTR __t$539443[ebp+eax], dl
  00066	40		 inc	 eax
  00067	83 f8 0b	 cmp	 eax, 11			; 0000000bH
  0006a	7c e3		 jl	 SHORT $LL113@AddRenderI@4
  0006c	8b 4d e8	 mov	 ecx, DWORD PTR _szType$GSCopy$[ebp]
  0006f	8d 75 ec	 lea	 esi, DWORD PTR __t$539443[ebp]
  00072	ff 15 00 00 00
	00		 call	 DWORD PTR __imp_?c_str@ioHashString@@QBEPBDXZ
$LL234@AddRenderI@4:
  00078	8a 08		 mov	 cl, BYTE PTR [eax]
  0007a	3a 0e		 cmp	 cl, BYTE PTR [esi]
  0007c	75 18		 jne	 SHORT $LN235@AddRenderI@4
  0007e	84 c9		 test	 cl, cl
  00080	74 10		 je	 SHORT $LN236@AddRenderI@4
  00082	8a 48 01	 mov	 cl, BYTE PTR [eax+1]
  00085	3a 4e 01	 cmp	 cl, BYTE PTR [esi+1]
  00088	75 0c		 jne	 SHORT $LN235@AddRenderI@4
  0008a	03 c3		 add	 eax, ebx
  0008c	03 f3		 add	 esi, ebx
  0008e	84 c9		 test	 cl, cl
  00090	75 e6		 jne	 SHORT $LL234@AddRenderI@4
$LN236@AddRenderI@4:
  00092	33 c0		 xor	 eax, eax
  00094	eb 05		 jmp	 SHORT $LN237@AddRenderI@4
$LN235@AddRenderI@4:
  00096	1b c0		 sbb	 eax, eax
  00098	83 d8 ff	 sbb	 eax, -1
$LN237@AddRenderI@4:
  0009b	85 c0		 test	 eax, eax
  0009d	75 29		 jne	 SHORT $LN233@AddRenderI@4

; 1806 : 	{
; 1807 : 		SAFEDELETE( m_pDefaultBack );

  0009f	8b 75 e4	 mov	 esi, DWORD PTR _this$GSCopy$[ebp]
  000a2	8b 8e fc 01 00
	00		 mov	 ecx, DWORD PTR [esi+508]
  000a8	85 c9		 test	 ecx, ecx
  000aa	74 0e		 je	 SHORT $LN5@AddRenderI@4
  000ac	8b 01		 mov	 eax, DWORD PTR [ecx]
  000ae	6a 01		 push	 1
  000b0	ff 50 40	 call	 DWORD PTR [eax+64]
  000b3	83 a6 fc 01 00
	00 00		 and	 DWORD PTR [esi+508], 0
$LN5@AddRenderI@4:

; 1808 : 		m_pDefaultBack = pImage;

  000ba	8b 45 e0	 mov	 eax, DWORD PTR _pImage$GSCopy$[ebp]
  000bd	89 86 fc 01 00
	00		 mov	 DWORD PTR [esi+508], eax
  000c3	e9 ad 00 00 00	 jmp	 $LN1@AddRenderI@4
$LN233@AddRenderI@4:

; 1809 : 	}
; 1810 : 	else if( szType == "StripBlack" )

  000c8	c7 45 ec be 98
	99 83		 mov	 DWORD PTR __t$539568[ebp], -2087085890 ; 839998beH
  000cf	c7 45 f0 9d ae
	87 8b		 mov	 DWORD PTR __t$539568[ebp+4], -1954042211 ; 8b87ae9dH
  000d6	66 c7 45 f4 8e
	87		 mov	 WORD PTR __t$539568[ebp+8], 34702 ; 0000878eH
  000dc	8d 45 ec	 lea	 eax, DWORD PTR __t$539568[ebp]
  000df	c6 45 f6 00	 mov	 BYTE PTR __t$539568[ebp+10], 0
  000e3	8b cb		 mov	 ecx, ebx
$LL222@AddRenderI@4:
  000e5	31 38		 xor	 DWORD PTR [eax], edi
  000e7	83 c0 04	 add	 eax, 4
  000ea	49		 dec	 ecx
  000eb	75 f8		 jne	 SHORT $LL222@AddRenderI@4
  000ed	6a 08		 push	 8
  000ef	58		 pop	 eax
$LL219@AddRenderI@4:
  000f0	8b c8		 mov	 ecx, eax
  000f2	81 e1 03 00 00
	80		 and	 ecx, -2147483645	; 80000003H
  000f8	79 05		 jns	 SHORT $LN243@AddRenderI@4
  000fa	49		 dec	 ecx
  000fb	83 c9 fc	 or	 ecx, -4			; fffffffcH
  000fe	41		 inc	 ecx
$LN243@AddRenderI@4:
  000ff	b2 ed		 mov	 dl, -19			; ffffffedH
  00101	2a d1		 sub	 dl, cl
  00103	30 54 05 ec	 xor	 BYTE PTR __t$539568[ebp+eax], dl
  00107	40		 inc	 eax
  00108	83 f8 0a	 cmp	 eax, 10			; 0000000aH
  0010b	7c e3		 jl	 SHORT $LL219@AddRenderI@4
  0010d	8b 4d e8	 mov	 ecx, DWORD PTR _szType$GSCopy$[ebp]
  00110	8d 75 ec	 lea	 esi, DWORD PTR __t$539568[ebp]
  00113	ff 15 00 00 00
	00		 call	 DWORD PTR __imp_?c_str@ioHashString@@QBEPBDXZ
$LL238@AddRenderI@4:
  00119	8a 08		 mov	 cl, BYTE PTR [eax]
  0011b	3a 0e		 cmp	 cl, BYTE PTR [esi]
  0011d	75 18		 jne	 SHORT $LN239@AddRenderI@4
  0011f	84 c9		 test	 cl, cl
  00121	74 10		 je	 SHORT $LN240@AddRenderI@4
  00123	8a 48 01	 mov	 cl, BYTE PTR [eax+1]
  00126	3a 4e 01	 cmp	 cl, BYTE PTR [esi+1]
  00129	75 0c		 jne	 SHORT $LN239@AddRenderI@4
  0012b	03 c3		 add	 eax, ebx
  0012d	03 f3		 add	 esi, ebx
  0012f	84 c9		 test	 cl, cl
  00131	75 e6		 jne	 SHORT $LL238@AddRenderI@4
$LN240@AddRenderI@4:
  00133	33 c0		 xor	 eax, eax
  00135	eb 05		 jmp	 SHORT $LN241@AddRenderI@4
$LN239@AddRenderI@4:
  00137	1b c0		 sbb	 eax, eax
  00139	83 d8 ff	 sbb	 eax, -1
$LN241@AddRenderI@4:
  0013c	85 c0		 test	 eax, eax
  0013e	75 26		 jne	 SHORT $LN3@AddRenderI@4

; 1811 : 	{
; 1812 : 		SAFEDELETE( m_pStripBlack );

  00140	8b 75 e4	 mov	 esi, DWORD PTR _this$GSCopy$[ebp]
  00143	8b 8e 00 02 00
	00		 mov	 ecx, DWORD PTR [esi+512]
  00149	85 c9		 test	 ecx, ecx
  0014b	74 0e		 je	 SHORT $LN2@AddRenderI@4
  0014d	8b 01		 mov	 eax, DWORD PTR [ecx]
  0014f	6a 01		 push	 1
  00151	ff 50 40	 call	 DWORD PTR [eax+64]
  00154	83 a6 00 02 00
	00 00		 and	 DWORD PTR [esi+512], 0
$LN2@AddRenderI@4:

; 1813 : 		m_pStripBlack = pImage;

  0015b	8b 45 e0	 mov	 eax, DWORD PTR _pImage$GSCopy$[ebp]
  0015e	89 86 00 02 00
	00		 mov	 DWORD PTR [esi+512], eax

; 1814 : 	}
; 1815 : 	else

  00164	eb 0f		 jmp	 SHORT $LN1@AddRenderI@4
$LN3@AddRenderI@4:

; 1816 : 	{
; 1817 : 		ioButton::AddRenderImage( szType, pImage );

  00166	ff 75 e0	 push	 DWORD PTR _pImage$GSCopy$[ebp]
  00169	8b 4d e4	 mov	 ecx, DWORD PTR _this$GSCopy$[ebp]
  0016c	ff 75 e8	 push	 DWORD PTR _szType$GSCopy$[ebp]
  0016f	ff 15 00 00 00
	00		 call	 DWORD PTR __imp_?AddRenderImage@ioButton@@UAEXABVioHashString@@PAVioUIRenderImage@@@Z
$LN1@AddRenderI@4:

; 1818 : 	}
; 1819 : }

  00175	8b 4d fc	 mov	 ecx, DWORD PTR __$ArrayPad$[ebp]
  00178	5f		 pop	 edi
  00179	5e		 pop	 esi
  0017a	33 cd		 xor	 ecx, ebp
  0017c	5b		 pop	 ebx
  0017d	e8 00 00 00 00	 call	 @__security_check_cookie@4
  00182	c9		 leave
  00183	c2 08 00	 ret	 8
?AddRenderImage@BackgroundChangeBtn@@MAEXABVioHashString@@PAVioUIRenderImage@@@Z ENDP ; BackgroundChangeBtn::AddRenderImage
_TEXT	ENDS
PUBLIC	_this$GSCopy$
PUBLIC	__$ArrayPad$
EXTRN	__imp_?AddRenderFrame@ioButton@@UAEXABVioHashString@@PAVioUIRenderFrame@@@Z:PROC
; Function compile flags: /Ogsp
;	COMDAT ?AddRenderFrame@BackgroundChangeBtn@@MAEXABVioHashString@@PAVioUIRenderFrame@@@Z
_TEXT	SEGMENT
_this$GSCopy$ = -24					; size = 4
__t$539734 = -20					; size = 10
__$ArrayPad$ = -4					; size = 4
_szType$ = 8						; size = 4
_pFrame$ = 12						; size = 4
?AddRenderFrame@BackgroundChangeBtn@@MAEXABVioHashString@@PAVioUIRenderFrame@@@Z PROC ; BackgroundChangeBtn::AddRenderFrame, COMDAT
; _this$ = ecx

; 1822 : {

  00000	55		 push	 ebp
  00001	8b ec		 mov	 ebp, esp
  00003	83 ec 18	 sub	 esp, 24			; 00000018H
  00006	a1 00 00 00 00	 mov	 eax, DWORD PTR ___security_cookie
  0000b	33 c5		 xor	 eax, ebp
  0000d	89 45 fc	 mov	 DWORD PTR __$ArrayPad$[ebp], eax
  00010	53		 push	 ebx
  00011	8b 5d 0c	 mov	 ebx, DWORD PTR _pFrame$[ebp]
  00014	56		 push	 esi
  00015	57		 push	 edi
  00016	8b 7d 08	 mov	 edi, DWORD PTR _szType$[ebp]

; 1823 : 	if( szType == "LineFrame" )

  00019	6a 02		 push	 2
  0001b	89 4d e8	 mov	 DWORD PTR _this$GSCopy$[ebp], ecx
  0001e	c7 45 ec a1 85
	85 8f		 mov	 DWORD PTR __t$539734[ebp], -1887074911 ; 8f8585a1H
  00025	c7 45 f0 ab 9e
	8a 87		 mov	 DWORD PTR __t$539734[ebp+4], -2020958549 ; 878a9eabH
  0002c	8d 45 ec	 lea	 eax, DWORD PTR __t$539734[ebp]
  0002f	66 c7 45 f4 88
	00		 mov	 WORD PTR __t$539734[ebp+8], 136 ; 00000088H
  00035	59		 pop	 ecx
$LL111@AddRenderF:
  00036	81 30 ed ec eb
	ea		 xor	 DWORD PTR [eax], -353637139 ; eaebecedH
  0003c	83 c0 04	 add	 eax, 4
  0003f	49		 dec	 ecx
  00040	75 f4		 jne	 SHORT $LL111@AddRenderF
  00042	80 75 f4 ed	 xor	 BYTE PTR __t$539734[ebp+8], -19 ; ffffffedH
  00046	8b cf		 mov	 ecx, edi
  00048	8d 75 ec	 lea	 esi, DWORD PTR __t$539734[ebp]
  0004b	ff 15 00 00 00
	00		 call	 DWORD PTR __imp_?c_str@ioHashString@@QBEPBDXZ
$LL118@AddRenderF:
  00051	8a 08		 mov	 cl, BYTE PTR [eax]
  00053	3a 0e		 cmp	 cl, BYTE PTR [esi]
  00055	75 1a		 jne	 SHORT $LN119@AddRenderF
  00057	84 c9		 test	 cl, cl
  00059	74 12		 je	 SHORT $LN120@AddRenderF
  0005b	8a 48 01	 mov	 cl, BYTE PTR [eax+1]
  0005e	3a 4e 01	 cmp	 cl, BYTE PTR [esi+1]
  00061	75 0e		 jne	 SHORT $LN119@AddRenderF
  00063	83 c0 02	 add	 eax, 2
  00066	83 c6 02	 add	 esi, 2
  00069	84 c9		 test	 cl, cl
  0006b	75 e4		 jne	 SHORT $LL118@AddRenderF
$LN120@AddRenderF:
  0006d	33 c0		 xor	 eax, eax
  0006f	eb 05		 jmp	 SHORT $LN121@AddRenderF
$LN119@AddRenderF:
  00071	1b c0		 sbb	 eax, eax
  00073	83 d8 ff	 sbb	 eax, -1
$LN121@AddRenderF:
  00076	85 c0		 test	 eax, eax
  00078	75 23		 jne	 SHORT $LN3@AddRenderF

; 1824 : 	{
; 1825 : 		SAFEDELETE( m_pLineFrame );

  0007a	8b 75 e8	 mov	 esi, DWORD PTR _this$GSCopy$[ebp]
  0007d	8b 8e 04 02 00
	00		 mov	 ecx, DWORD PTR [esi+516]
  00083	85 c9		 test	 ecx, ecx
  00085	74 0e		 je	 SHORT $LN2@AddRenderF
  00087	8b 01		 mov	 eax, DWORD PTR [ecx]
  00089	6a 01		 push	 1
  0008b	ff 50 40	 call	 DWORD PTR [eax+64]
  0008e	83 a6 04 02 00
	00 00		 and	 DWORD PTR [esi+516], 0
$LN2@AddRenderF:

; 1826 : 		m_pLineFrame = pFrame;

  00095	89 9e 04 02 00
	00		 mov	 DWORD PTR [esi+516], ebx

; 1827 : 	}
; 1828 : 	else

  0009b	eb 0b		 jmp	 SHORT $LN1@AddRenderF
$LN3@AddRenderF:

; 1829 : 	{
; 1830 : 		ioButton::AddRenderFrame( szType, pFrame );

  0009d	8b 4d e8	 mov	 ecx, DWORD PTR _this$GSCopy$[ebp]
  000a0	53		 push	 ebx
  000a1	57		 push	 edi
  000a2	ff 15 00 00 00
	00		 call	 DWORD PTR __imp_?AddRenderFrame@ioButton@@UAEXABVioHashString@@PAVioUIRenderFrame@@@Z
$LN1@AddRenderF:

; 1831 : 	}
; 1832 : }

  000a8	8b 4d fc	 mov	 ecx, DWORD PTR __$ArrayPad$[ebp]
  000ab	5f		 pop	 edi
  000ac	5e		 pop	 esi
  000ad	33 cd		 xor	 ecx, ebp
  000af	5b		 pop	 ebx
  000b0	e8 00 00 00 00	 call	 @__security_check_cookie@4
  000b5	c9		 leave
  000b6	c2 08 00	 ret	 8
?AddRenderFrame@BackgroundChangeBtn@@MAEXABVioHashString@@PAVioUIRenderFrame@@@Z ENDP ; BackgroundChangeBtn::AddRenderFrame
_TEXT	ENDS
PUBLIC	??0?$vector@V?$basic_string@DU?$char_traits@D@std@@V?$allocator@D@2@@std@@V?$allocator@V?$basic_string@DU?$char_traits@D@std@@V?$allocator@D@2@@std@@@2@@std@@QAE@XZ ; std::vector<std::basic_string<char,std::char_traits<char>,std::allocator<char> >,std::allocator<std::basic_string<char,std::char_traits<char>,std::allocator<char> > > >::vector<std::basic_string<char,std::char_traits<char>,std::allocator<char> >,std::allocator<std::basic_string<char,std::char_traits<char>,std::allocator<char> > > >
; Function compile flags: /Ogsp
; File c:\program files (x86)\microsoft visual studio 10.0\vc\include\vector
;	COMDAT ??0?$vector@V?$basic_string@DU?$char_traits@D@std@@V?$allocator@D@2@@std@@V?$allocator@V?$basic_string@DU?$char_traits@D@std@@V?$allocator@D@2@@std@@@2@@std@@QAE@XZ
_TEXT	SEGMENT
??0?$vector@V?$basic_string@DU?$char_traits@D@std@@V?$allocator@D@2@@std@@V?$allocator@V?$basic_string@DU?$char_traits@D@std@@V?$allocator@D@2@@std@@@2@@std@@QAE@XZ PROC ; std::vector<std::basic_string<char,std::char_traits<char>,std::allocator<char> >,std::allocator<std::basic_string<char,std::char_traits<char>,std::allocator<char> > > >::vector<std::basic_string<char,std::char_traits<char>,std::allocator<char> >,std::allocator<std::basic_string<char,std::char_traits<char>,std::allocator<char> > > >, COMDAT
; _this$ = ecx

; 507  : 		{	// construct empty vector

  00000	8b c1		 mov	 eax, ecx
  00002	33 c9		 xor	 ecx, ecx
  00004	89 08		 mov	 DWORD PTR [eax], ecx
  00006	89 48 04	 mov	 DWORD PTR [eax+4], ecx
  00009	89 48 08	 mov	 DWORD PTR [eax+8], ecx

; 508  : 		}

  0000c	c3		 ret	 0
??0?$vector@V?$basic_string@DU?$char_traits@D@std@@V?$allocator@D@2@@std@@V?$allocator@V?$basic_string@DU?$char_traits@D@std@@V?$allocator@D@2@@std@@@2@@std@@QAE@XZ ENDP ; std::vector<std::basic_string<char,std::char_traits<char>,std::allocator<char> >,std::allocator<std::basic_string<char,std::char_traits<char>,std::allocator<char> > > >::vector<std::basic_string<char,std::char_traits<char>,std::allocator<char> >,std::allocator<std::basic_string<char,std::char_traits<char>,std::allocator<char> > > >
_TEXT	ENDS
PUBLIC	?GetModeType@ioPlayMode@@SA?AW4ModeType@@XZ	; ioPlayMode::GetModeType
EXTRN	?m_ModeType@ioPlayMode@@1V?$CEncrypt@W4ModeType@@@@A:BYTE ; ioPlayMode::m_ModeType
; Function compile flags: /Ogsp
; File d:\lost saga for developer\youtube\tutorial\source\src\lsclient\ioplaymode.h
;	COMDAT ?GetModeType@ioPlayMode@@SA?AW4ModeType@@XZ
_TEXT	SEGMENT
?GetModeType@ioPlayMode@@SA?AW4ModeType@@XZ PROC	; ioPlayMode::GetModeType, COMDAT

; 782  : 	static ModeType GetModeType() { return m_ModeType; }

  00000	6a 04		 push	 4
  00002	68 28 00 00 00	 push	 OFFSET ?m_ModeType@ioPlayMode@@1V?$CEncrypt@W4ModeType@@@@A+40
  00007	68 1c 00 00 00	 push	 OFFSET ?m_ModeType@ioPlayMode@@1V?$CEncrypt@W4ModeType@@@@A+28
  0000c	b9 0c 00 00 00	 mov	 ecx, OFFSET ?m_ModeType@ioPlayMode@@1V?$CEncrypt@W4ModeType@@@@A+12
  00011	e8 00 00 00 00	 call	 ?DecryptByte@ccddaabb@@QBEXPBDPADH@Z ; ccddaabb::DecryptByte
  00016	a1 28 00 00 00	 mov	 eax, DWORD PTR ?m_ModeType@ioPlayMode@@1V?$CEncrypt@W4ModeType@@@@A+40
  0001b	c3		 ret	 0
?GetModeType@ioPlayMode@@SA?AW4ModeType@@XZ ENDP	; ioPlayMode::GetModeType
_TEXT	ENDS
PUBLIC	?_Tidy@?$basic_string@DU?$char_traits@D@std@@V?$allocator@D@2@@std@@QAEX_NI@Z ; std::basic_string<char,std::char_traits<char>,std::allocator<char> >::_Tidy
; Function compile flags: /Ogsp
; File c:\program files (x86)\microsoft visual studio 10.0\vc\include\xstring
;	COMDAT ?_Tidy@?$basic_string@DU?$char_traits@D@std@@V?$allocator@D@2@@std@@QAEX_NI@Z
_TEXT	SEGMENT
__Built$ = 8						; size = 1
__Newsize$ = 12						; size = 4
?_Tidy@?$basic_string@DU?$char_traits@D@std@@V?$allocator@D@2@@std@@QAEX_NI@Z PROC ; std::basic_string<char,std::char_traits<char>,std::allocator<char> >::_Tidy, COMDAT
; _this$ = ecx

; 1988 : 		{	// initialize buffer, deallocating any storage

  00000	55		 push	 ebp
  00001	8b ec		 mov	 ebp, esp

; 1989 : 		if (!_Built)

  00003	80 7d 08 00	 cmp	 BYTE PTR __Built$[ebp], 0
  00007	56		 push	 esi
  00008	57		 push	 edi
  00009	8b 7d 0c	 mov	 edi, DWORD PTR __Newsize$[ebp]
  0000c	8b f1		 mov	 esi, ecx
  0000e	74 20		 je	 SHORT $LN9@Tidy

; 1990 : 			;
; 1991 : 		else if (this->_BUF_SIZE <= this->_Myres)

  00010	83 7e 14 10	 cmp	 DWORD PTR [esi+20], 16	; 00000010H
  00014	72 1a		 jb	 SHORT $LN9@Tidy

; 1992 : 			{	// copy any leftovers to small buffer and deallocate
; 1993 : 			_Elem *_Ptr = this->_Bx._Ptr;

  00016	53		 push	 ebx
  00017	8b 1e		 mov	 ebx, DWORD PTR [esi]

; 1994 : 			if (0 < _Newsize)

  00019	85 ff		 test	 edi, edi
  0001b	74 0b		 je	 SHORT $LN7@Tidy

; 1995 : 				_Traits::copy(this->_Bx._Buf, _Ptr, _Newsize);

  0001d	57		 push	 edi
  0001e	53		 push	 ebx
  0001f	56		 push	 esi
  00020	e8 00 00 00 00	 call	 _memcpy
  00025	83 c4 0c	 add	 esp, 12			; 0000000cH
$LN7@Tidy:

; 1996 : 			this->_Alval.deallocate(_Ptr, this->_Myres + 1);

  00028	53		 push	 ebx
  00029	e8 00 00 00 00	 call	 ??3@YAXPAX@Z		; operator delete
  0002e	59		 pop	 ecx
  0002f	5b		 pop	 ebx
$LN9@Tidy:

; 1997 : 			}
; 1998 : 		this->_Myres = this->_BUF_SIZE - 1;
; 1999 : 		_Eos(_Newsize);

  00030	89 7e 10	 mov	 DWORD PTR [esi+16], edi
  00033	c7 46 14 0f 00
	00 00		 mov	 DWORD PTR [esi+20], 15	; 0000000fH
  0003a	c6 04 37 00	 mov	 BYTE PTR [edi+esi], 0
  0003e	5f		 pop	 edi
  0003f	5e		 pop	 esi

; 2000 : 		}

  00040	5d		 pop	 ebp
  00041	c2 08 00	 ret	 8
?_Tidy@?$basic_string@DU?$char_traits@D@std@@V?$allocator@D@2@@std@@QAEX_NI@Z ENDP ; std::basic_string<char,std::char_traits<char>,std::allocator<char> >::_Tidy
_TEXT	ENDS
PUBLIC	?erase@?$basic_string@DU?$char_traits@D@std@@V?$allocator@D@2@@std@@QAEAAV12@II@Z ; std::basic_string<char,std::char_traits<char>,std::allocator<char> >::erase
; Function compile flags: /Ogsp
;	COMDAT ?erase@?$basic_string@DU?$char_traits@D@std@@V?$allocator@D@2@@std@@QAEAAV12@II@Z
_TEXT	SEGMENT
__Off$ = 8						; size = 4
__Count$ = 12						; size = 4
?erase@?$basic_string@DU?$char_traits@D@std@@V?$allocator@D@2@@std@@QAEAAV12@II@Z PROC ; std::basic_string<char,std::char_traits<char>,std::allocator<char> >::erase, COMDAT
; _this$ = ecx

; 1109 : 		{	// erase elements [_Off, _Off + _Count)

  00000	55		 push	 ebp
  00001	8b ec		 mov	 ebp, esp
  00003	53		 push	 ebx
  00004	56		 push	 esi
  00005	8b f1		 mov	 esi, ecx

; 1110 : 		if (this->_Mysize < _Off)

  00007	8b 46 10	 mov	 eax, DWORD PTR [esi+16]
  0000a	8b 4d 08	 mov	 ecx, DWORD PTR __Off$[ebp]
  0000d	3b c1		 cmp	 eax, ecx
  0000f	73 0b		 jae	 SHORT $LN3@erase

; 1111 : 			_Xran();	// _Off off end

  00011	68 00 00 00 00	 push	 OFFSET ??_C@_0BI@CFPLBAOH@invalid?5string?5position?$AA@
  00016	ff 15 00 00 00
	00		 call	 DWORD PTR __imp_?_Xout_of_range@std@@YAXPBD@Z
$LN28@erase:
$LN3@erase:

; 1112 : 		if (this->_Mysize - _Off < _Count)

  0001c	8b 5d 0c	 mov	 ebx, DWORD PTR __Count$[ebp]
  0001f	2b c1		 sub	 eax, ecx
  00021	3b c3		 cmp	 eax, ebx

; 1113 : 			_Count = this->_Mysize - _Off;	// trim _Count

  00023	0f 42 d8	 cmovb	 ebx, eax

; 1114 : 		if (0 < _Count)

  00026	85 db		 test	 ebx, ebx
  00028	74 47		 je	 SHORT $LN25@erase

; 1115 : 			{	// move elements down
; 1116 : 			_Traits::move(_Myptr() + _Off, _Myptr() + _Off + _Count,
; 1117 : 				this->_Mysize - _Off - _Count);

  0002a	8b 56 14	 mov	 edx, DWORD PTR [esi+20]
  0002d	57		 push	 edi
  0002e	83 fa 10	 cmp	 edx, 16			; 00000010H
  00031	72 04		 jb	 SHORT $LN11@erase
  00033	8b 3e		 mov	 edi, DWORD PTR [esi]
  00035	eb 02		 jmp	 SHORT $LN12@erase
$LN11@erase:
  00037	8b fe		 mov	 edi, esi
$LN12@erase:
  00039	83 fa 10	 cmp	 edx, 16			; 00000010H
  0003c	72 04		 jb	 SHORT $LN15@erase
  0003e	8b 16		 mov	 edx, DWORD PTR [esi]
  00040	eb 02		 jmp	 SHORT $LN16@erase
$LN15@erase:
  00042	8b d6		 mov	 edx, esi
$LN16@erase:
  00044	2b c3		 sub	 eax, ebx
  00046	03 f9		 add	 edi, ecx
  00048	50		 push	 eax
  00049	03 fb		 add	 edi, ebx
  0004b	03 d1		 add	 edx, ecx
  0004d	57		 push	 edi
  0004e	52		 push	 edx
  0004f	ff 15 00 00 00
	00		 call	 DWORD PTR __imp__memmove

; 1118 : 			size_type _Newsize = this->_Mysize - _Count;

  00055	8b 46 10	 mov	 eax, DWORD PTR [esi+16]
  00058	83 c4 0c	 add	 esp, 12			; 0000000cH
  0005b	2b c3		 sub	 eax, ebx

; 1119 : 			_Eos(_Newsize);

  0005d	83 7e 14 10	 cmp	 DWORD PTR [esi+20], 16	; 00000010H
  00061	89 46 10	 mov	 DWORD PTR [esi+16], eax
  00064	5f		 pop	 edi
  00065	72 04		 jb	 SHORT $LN23@erase
  00067	8b 0e		 mov	 ecx, DWORD PTR [esi]
  00069	eb 02		 jmp	 SHORT $LN24@erase
$LN23@erase:
  0006b	8b ce		 mov	 ecx, esi
$LN24@erase:
  0006d	c6 04 01 00	 mov	 BYTE PTR [ecx+eax], 0
$LN25@erase:

; 1120 : 			}
; 1121 : 		return (*this);

  00071	8b c6		 mov	 eax, esi
  00073	5e		 pop	 esi
  00074	5b		 pop	 ebx

; 1122 : 		}

  00075	5d		 pop	 ebp
  00076	c2 08 00	 ret	 8
$LN27@erase:
?erase@?$basic_string@DU?$char_traits@D@std@@V?$allocator@D@2@@std@@QAEAAV12@II@Z ENDP ; std::basic_string<char,std::char_traits<char>,std::allocator<char> >::erase
_TEXT	ENDS
PUBLIC	?_Copy@?$basic_string@DU?$char_traits@D@std@@V?$allocator@D@2@@std@@QAEXII@Z ; std::basic_string<char,std::char_traits<char>,std::allocator<char> >::_Copy
EXTRN	__EH_prolog3_catch:PROC
;	COMDAT xdata$x
; File c:\program files (x86)\microsoft visual studio 10.0\vc\include\iosfwd
xdata$x	SEGMENT
__catchsym$?_Copy@?$basic_string@DU?$char_traits@D@std@@V?$allocator@D@2@@std@@QAEXII@Z$5 DD 040H
	DD	00H
	DD	00H
	DD	FLAT:__catch$?_Copy@?$basic_string@DU?$char_traits@D@std@@V?$allocator@D@2@@std@@QAEXII@Z$0
__catchsym$?_Copy@?$basic_string@DU?$char_traits@D@std@@V?$allocator@D@2@@std@@QAEXII@Z$4 DD 040H
	DD	00H
	DD	00H
	DD	FLAT:__catch$?_Copy@?$basic_string@DU?$char_traits@D@std@@V?$allocator@D@2@@std@@QAEXII@Z$1
__unwindtable$?_Copy@?$basic_string@DU?$char_traits@D@std@@V?$allocator@D@2@@std@@QAEXII@Z DD 0ffffffffH
	DD	00H
	DD	0ffffffffH
	DD	00H
	DD	01H
	DD	00H
	DD	01H
	DD	00H
__ehfuncinfo$?_Copy@?$basic_string@DU?$char_traits@D@std@@V?$allocator@D@2@@std@@QAEXII@Z DD 019930522H
	DD	04H
	DD	FLAT:__unwindtable$?_Copy@?$basic_string@DU?$char_traits@D@std@@V?$allocator@D@2@@std@@QAEXII@Z
	DD	02H
	DD	FLAT:__tryblocktable$?_Copy@?$basic_string@DU?$char_traits@D@std@@V?$allocator@D@2@@std@@QAEXII@Z
	DD	2 DUP(00H)
	DD	00H
	DD	01H
__tryblocktable$?_Copy@?$basic_string@DU?$char_traits@D@std@@V?$allocator@D@2@@std@@QAEXII@Z DD 02H
	DD	02H
	DD	03H
	DD	01H
	DD	FLAT:__catchsym$?_Copy@?$basic_string@DU?$char_traits@D@std@@V?$allocator@D@2@@std@@QAEXII@Z$4
	DD	00H
	DD	00H
	DD	03H
	DD	01H
	DD	FLAT:__catchsym$?_Copy@?$basic_string@DU?$char_traits@D@std@@V?$allocator@D@2@@std@@QAEXII@Z$5
; Function compile flags: /Ogsp
; File c:\program files (x86)\microsoft visual studio 10.0\vc\include\xstring
xdata$x	ENDS
;	COMDAT ?_Copy@?$basic_string@DU?$char_traits@D@std@@V?$allocator@D@2@@std@@QAEXII@Z
_TEXT	SEGMENT
_this$ = -24						; size = 4
tv296 = -20						; size = 4
__Newres$ = -20						; size = 4
__$EHRec$ = -16						; size = 16
__Ptr$ = 8						; size = 4
__Newsize$ = 8						; size = 4
__Oldlen$ = 12						; size = 4
?_Copy@?$basic_string@DU?$char_traits@D@std@@V?$allocator@D@2@@std@@QAEXII@Z PROC ; std::basic_string<char,std::char_traits<char>,std::allocator<char> >::_Copy, COMDAT
; _this$ = ecx

; 1919 : 		{	// copy _Oldlen elements to newly allocated buffer

  00000	6a 0c		 push	 12			; 0000000cH
  00002	b8 00 00 00 00	 mov	 eax, __ehhandler$?_Copy@?$basic_string@DU?$char_traits@D@std@@V?$allocator@D@2@@std@@QAEXII@Z
  00007	e8 00 00 00 00	 call	 __EH_prolog3_catch
  0000c	8b f1		 mov	 esi, ecx
  0000e	89 75 e8	 mov	 DWORD PTR _this$[ebp], esi

; 1920 : 		size_type _Newres = _Newsize | this->_ALLOC_MASK;

  00011	8b 7d 08	 mov	 edi, DWORD PTR __Newsize$[ebp]
  00014	83 cf 0f	 or	 edi, 15			; 0000000fH

; 1921 : 		if (max_size() < _Newres)

  00017	83 ff fe	 cmp	 edi, -2			; fffffffeH
  0001a	76 05		 jbe	 SHORT $LN9@Copy

; 1922 : 			_Newres = _Newsize;	// undo roundup if too big

  0001c	8b 7d 08	 mov	 edi, DWORD PTR __Newsize$[ebp]
  0001f	eb 27		 jmp	 SHORT $LN5@Copy
$LN9@Copy:

; 1923 : 		else if (this->_Myres / 2 <= _Newres / 3)

  00021	33 d2		 xor	 edx, edx
  00023	6a 03		 push	 3
  00025	8b c7		 mov	 eax, edi
  00027	5b		 pop	 ebx
  00028	f7 f3		 div	 ebx
  0002a	8b 4e 14	 mov	 ecx, DWORD PTR [esi+20]
  0002d	89 4d ec	 mov	 DWORD PTR tv296[ebp], ecx
  00030	d1 6d ec	 shr	 DWORD PTR tv296[ebp], 1
  00033	8b 55 ec	 mov	 edx, DWORD PTR tv296[ebp]
  00036	3b d0		 cmp	 edx, eax
  00038	76 0e		 jbe	 SHORT $LN5@Copy

; 1924 : 			;
; 1925 : 		else if (this->_Myres <= max_size() - this->_Myres / 2)

  0003a	6a fe		 push	 -2			; fffffffeH
  0003c	5f		 pop	 edi
  0003d	8b c7		 mov	 eax, edi
  0003f	2b c2		 sub	 eax, edx
  00041	3b c8		 cmp	 ecx, eax
  00043	77 03		 ja	 SHORT $LN5@Copy

; 1926 : 			_Newres = this->_Myres
; 1927 : 				+ this->_Myres / 2;	// grow exponentially if possible

  00045	8d 3c 0a	 lea	 edi, DWORD PTR [edx+ecx]
$LN5@Copy:

; 1928 : 		else
; 1929 : 			_Newres = max_size();	// settle for max_size()
; 1930 : 
; 1931 : 		_Elem *_Ptr;
; 1932 : 		_TRY_BEGIN

  00048	83 65 fc 00	 and	 DWORD PTR __$EHRec$[ebp+12], 0

; 1933 : 			_Ptr = this->_Alval.allocate(_Newres + 1);

  0004c	8d 47 01	 lea	 eax, DWORD PTR [edi+1]
  0004f	6a 00		 push	 0
  00051	50		 push	 eax
  00052	e8 00 00 00 00	 call	 ??$_Allocate@D@std@@YAPADIPAD@Z ; std::_Allocate<char>
  00057	59		 pop	 ecx
  00058	59		 pop	 ecx
  00059	89 45 08	 mov	 DWORD PTR __Ptr$[ebp], eax
  0005c	eb 27		 jmp	 SHORT $LN19@Copy
__catch$?_Copy@?$basic_string@DU?$char_traits@D@std@@V?$allocator@D@2@@std@@QAEXII@Z$0:

; 1934 : 		_CATCH_ALL
; 1935 : 			_Newres = _Newsize;	// allocation failed, undo roundup and retry

  0005e	8b 45 08	 mov	 eax, DWORD PTR __Newsize$[ebp]
  00061	89 65 f0	 mov	 DWORD PTR __$EHRec$[ebp], esp
  00064	89 45 ec	 mov	 DWORD PTR __Newres$[ebp], eax

; 1936 : 			_TRY_BEGIN
; 1937 : 				_Ptr = this->_Alval.allocate(_Newres + 1);

  00067	40		 inc	 eax
  00068	6a 00		 push	 0
  0006a	50		 push	 eax
  0006b	c6 45 fc 02	 mov	 BYTE PTR __$EHRec$[ebp+12], 2
  0006f	e8 00 00 00 00	 call	 ??$_Allocate@D@std@@YAPADIPAD@Z ; std::_Allocate<char>
  00074	59		 pop	 ecx
  00075	89 45 08	 mov	 DWORD PTR __Ptr$[ebp], eax
  00078	59		 pop	 ecx

; 1941 : 			_CATCH_END
; 1942 : 		_CATCH_END

  00079	b8 00 00 00 00	 mov	 eax, $LN63@Copy
  0007e	c3		 ret	 0
$LN63@Copy:
  0007f	8b 75 e8	 mov	 esi, DWORD PTR _this$[ebp]
  00082	8b 7d ec	 mov	 edi, DWORD PTR __Newres$[ebp]
$LN19@Copy:

; 1943 : 
; 1944 : 		if (0 < _Oldlen)

  00085	8b 5d 0c	 mov	 ebx, DWORD PTR __Oldlen$[ebp]
  00088	85 db		 test	 ebx, ebx
  0008a	74 19		 je	 SHORT $LN52@Copy

; 1945 : 			_Traits::copy(_Ptr, _Myptr(), _Oldlen);	// copy existing elements

  0008c	83 7e 14 10	 cmp	 DWORD PTR [esi+20], 16	; 00000010H
  00090	72 04		 jb	 SHORT $LN50@Copy
  00092	8b 06		 mov	 eax, DWORD PTR [esi]
  00094	eb 02		 jmp	 SHORT $LN51@Copy
$LN50@Copy:
  00096	8b c6		 mov	 eax, esi
$LN51@Copy:
  00098	53		 push	 ebx
  00099	50		 push	 eax
  0009a	ff 75 08	 push	 DWORD PTR __Ptr$[ebp]
  0009d	e8 00 00 00 00	 call	 _memcpy
  000a2	83 c4 0c	 add	 esp, 12			; 0000000cH
$LN52@Copy:

; 1946 : 		_Tidy(true);

  000a5	6a 00		 push	 0
  000a7	6a 01		 push	 1
  000a9	8b ce		 mov	 ecx, esi
  000ab	e8 00 00 00 00	 call	 ?_Tidy@?$basic_string@DU?$char_traits@D@std@@V?$allocator@D@2@@std@@QAEX_NI@Z ; std::basic_string<char,std::char_traits<char>,std::allocator<char> >::_Tidy

; 1947 : 		this->_Bx._Ptr = _Ptr;

  000b0	8b 45 08	 mov	 eax, DWORD PTR __Ptr$[ebp]
  000b3	89 06		 mov	 DWORD PTR [esi], eax

; 1948 : 		this->_Myres = _Newres;
; 1949 : 		_Eos(_Oldlen);

  000b5	83 ff 10	 cmp	 edi, 16			; 00000010H
  000b8	89 7e 14	 mov	 DWORD PTR [esi+20], edi
  000bb	89 5e 10	 mov	 DWORD PTR [esi+16], ebx
  000be	0f 42 c6	 cmovb	 eax, esi
  000c1	c6 04 18 00	 mov	 BYTE PTR [eax+ebx], 0

; 1950 : 		}

  000c5	e8 00 00 00 00	 call	 __EH_epilog3
  000ca	c2 08 00	 ret	 8
__catch$?_Copy@?$basic_string@DU?$char_traits@D@std@@V?$allocator@D@2@@std@@QAEXII@Z$1:

; 1938 : 			_CATCH_ALL
; 1939 : 			_Tidy(true);	// failed again, discard storage and reraise

  000cd	8b 4d e8	 mov	 ecx, DWORD PTR _this$[ebp]
  000d0	33 f6		 xor	 esi, esi
  000d2	56		 push	 esi
  000d3	6a 01		 push	 1
  000d5	e8 00 00 00 00	 call	 ?_Tidy@?$basic_string@DU?$char_traits@D@std@@V?$allocator@D@2@@std@@QAEX_NI@Z ; std::basic_string<char,std::char_traits<char>,std::allocator<char> >::_Tidy

; 1940 : 			_RERAISE;

  000da	56		 push	 esi
  000db	56		 push	 esi
  000dc	e8 00 00 00 00	 call	 __CxxThrowException@8
$LN67@Copy:
$LN66@Copy:
  000e1	cc		 int	 3
_TEXT	ENDS
;	COMDAT text$x
text$x	SEGMENT
__ehhandler$?_Copy@?$basic_string@DU?$char_traits@D@std@@V?$allocator@D@2@@std@@QAEXII@Z:
  00000	8b 54 24 08	 mov	 edx, DWORD PTR [esp+8]
  00004	8d 42 0c	 lea	 eax, DWORD PTR [edx+12]
  00007	8b 4a e4	 mov	 ecx, DWORD PTR [edx-28]
  0000a	33 c8		 xor	 ecx, eax
  0000c	e8 00 00 00 00	 call	 @__security_check_cookie@4
  00011	b8 00 00 00 00	 mov	 eax, OFFSET __ehfuncinfo$?_Copy@?$basic_string@DU?$char_traits@D@std@@V?$allocator@D@2@@std@@QAEXII@Z
  00016	e9 00 00 00 00	 jmp	 ___CxxFrameHandler3
text$x	ENDS
?_Copy@?$basic_string@DU?$char_traits@D@std@@V?$allocator@D@2@@std@@QAEXII@Z ENDP ; std::basic_string<char,std::char_traits<char>,std::allocator<char> >::_Copy
; Function compile flags: /Ogsp
; File d:\lost saga for developer\youtube\tutorial\source\src\lsclient\gui\gameoptionwnd.cpp
;	COMDAT ?iwm_command@GameOptionVolumeTab@@UAEXPAVioWnd@@HK@Z
_TEXT	SEGMENT
_pWnd$ = 8						; size = 4
_cmd$ = 12						; size = 4
_param$ = 16						; size = 4
?iwm_command@GameOptionVolumeTab@@UAEXPAVioWnd@@HK@Z PROC ; GameOptionVolumeTab::iwm_command, COMDAT
; _this$ = ecx

; 316  : {

  00000	55		 push	 ebp
  00001	8b ec		 mov	 ebp, esp
  00003	56		 push	 esi
  00004	8b f1		 mov	 esi, ecx

; 317  : 	DWORD dwID = pWnd->GetID();

  00006	8b 4d 08	 mov	 ecx, DWORD PTR _pWnd$[ebp]
  00009	ff 15 00 00 00
	00		 call	 DWORD PTR __imp_?GetID@ioWnd@@QBEKXZ

; 318  : 
; 319  : 	switch( dwID )

  0000f	83 c0 fb	 add	 eax, -5			; fffffffbH
  00012	83 f8 0c	 cmp	 eax, 12			; 0000000cH
  00015	0f 87 12 01 00
	00		 ja	 $LN1@iwm_comman@3
  0001b	ff 24 85 00 00
	00 00		 jmp	 DWORD PTR $LN31@iwm_comman@3[eax*4]
$LN25@iwm_comman@3:

; 320  : 	{
; 321  : 	case ID_BGM_BUTTON:
; 322  : 		if( cmd == IOBN_BTNUP )

  00022	83 7d 0c 11	 cmp	 DWORD PTR _cmd$[ebp], 17 ; 00000011H
  00026	0f 85 01 01 00
	00		 jne	 $LN1@iwm_comman@3

; 323  : 		{
; 324  : 			m_CurrentOption.m_bUseBGM = !m_CurrentOption.m_bUseBGM;

  0002c	80 be a4 01 00
	00 00		 cmp	 BYTE PTR [esi+420], 0
  00033	0f 94 c1	 sete	 cl
  00036	88 8e a4 01 00
	00		 mov	 BYTE PTR [esi+420], cl

; 325  : 			ApplyChangedOption();
; 326  : 		}
; 327  : 		break;

  0003c	e9 e5 00 00 00	 jmp	 $LN30@iwm_comman@3
$LN23@iwm_comman@3:

; 328  : 	case ID_EFFECT_BUTTON:
; 329  : 		if( cmd == IOBN_BTNUP )

  00041	83 7d 0c 11	 cmp	 DWORD PTR _cmd$[ebp], 17 ; 00000011H
  00045	0f 85 e2 00 00
	00		 jne	 $LN1@iwm_comman@3

; 330  : 		{
; 331  : 			m_CurrentOption.m_bUseEffectSound = !m_CurrentOption.m_bUseEffectSound;

  0004b	80 be a5 01 00
	00 00		 cmp	 BYTE PTR [esi+421], 0
  00052	0f 94 c1	 sete	 cl
  00055	88 8e a5 01 00
	00		 mov	 BYTE PTR [esi+421], cl

; 332  : 			ApplyChangedOption();
; 333  : 		}
; 334  : 		break;

  0005b	e9 c6 00 00 00	 jmp	 $LN30@iwm_comman@3
$LN21@iwm_comman@3:

; 335  : 	case ID_OTHER_VOICE_BUTTON:
; 336  : 		if( cmd == IOBN_BTNUP )

  00060	83 7d 0c 11	 cmp	 DWORD PTR _cmd$[ebp], 17 ; 00000011H
  00064	0f 85 c3 00 00
	00		 jne	 $LN1@iwm_comman@3

; 337  : 			ChangeOtherVoice();

  0006a	8b ce		 mov	 ecx, esi
  0006c	e8 00 00 00 00	 call	 ?ChangeOtherVoice@GameOptionVolumeTab@@QAEXXZ ; GameOptionVolumeTab::ChangeOtherVoice

; 338  : 		break;

  00071	e9 b7 00 00 00	 jmp	 $LN1@iwm_comman@3
$LN19@iwm_comman@3:

; 339  : 	case ID_MIC_BUTTON:
; 340  : 		if( cmd == IOBN_BTNUP )

  00076	83 7d 0c 11	 cmp	 DWORD PTR _cmd$[ebp], 17 ; 00000011H
  0007a	0f 85 ad 00 00
	00		 jne	 $LN1@iwm_comman@3

; 341  : 			ChangeMic();

  00080	8b ce		 mov	 ecx, esi
  00082	e8 00 00 00 00	 call	 ?ChangeMic@GameOptionVolumeTab@@QAEXXZ ; GameOptionVolumeTab::ChangeMic

; 342  : 		break;

  00087	e9 a1 00 00 00	 jmp	 $LN1@iwm_comman@3
$LN17@iwm_comman@3:

; 343  : 	case ID_CUSTOM_BUTTON:
; 344  : 		if( cmd == IOBN_BTNUP )

  0008c	83 7d 0c 11	 cmp	 DWORD PTR _cmd$[ebp], 17 ; 00000011H
  00090	0f 85 97 00 00
	00		 jne	 $LN1@iwm_comman@3

; 345  : 		{
; 346  : 			m_CurrentOption.m_bUseCustomSound = !m_CurrentOption.m_bUseCustomSound;

  00096	80 be a9 01 00
	00 00		 cmp	 BYTE PTR [esi+425], 0
  0009d	0f 94 c1	 sete	 cl
  000a0	88 8e a9 01 00
	00		 mov	 BYTE PTR [esi+425], cl

; 347  : 			ApplyChangedOption();
; 348  : 		}
; 349  : 		break;

  000a6	eb 7e		 jmp	 SHORT $LN30@iwm_comman@3
$LN15@iwm_comman@3:

; 350  : 	case ID_VOICE_CHAT:
; 351  : 		if( cmd == IOBN_BTNUP )

  000a8	83 7d 0c 11	 cmp	 DWORD PTR _cmd$[ebp], 17 ; 00000011H
  000ac	75 7f		 jne	 SHORT $LN1@iwm_comman@3

; 352  : 		{
; 353  : 			m_CurrentOption.m_bUseVoiceChat = !m_CurrentOption.m_bUseVoiceChat;

  000ae	80 be a8 01 00
	00 00		 cmp	 BYTE PTR [esi+424], 0
  000b5	0f 94 c1	 sete	 cl
  000b8	88 8e a8 01 00
	00		 mov	 BYTE PTR [esi+424], cl

; 354  : 			if(m_CurrentOption.m_bUseVoiceChat)

  000be	84 c9		 test	 cl, cl
  000c0	74 64		 je	 SHORT $LN30@iwm_comman@3

; 355  : 				m_CurrentOption.m_bUseMIC = true;

  000c2	c6 86 a7 01 00
	00 01		 mov	 BYTE PTR [esi+423], 1

; 356  : 			ApplyChangedOption();
; 357  : 		}
; 358  : 		break;

  000c9	eb 5b		 jmp	 SHORT $LN30@iwm_comman@3
$LN12@iwm_comman@3:

; 359  : 	case ID_COMMIT:
; 360  : 		if( cmd == IOBN_BTNUP )

  000cb	83 7d 0c 11	 cmp	 DWORD PTR _cmd$[ebp], 17 ; 00000011H
  000cf	75 5c		 jne	 SHORT $LN1@iwm_comman@3

; 361  : 		{
; 362  : 			if(m_pParent)

  000d1	8b 4e 40	 mov	 ecx, DWORD PTR [esi+64]
  000d4	85 c9		 test	 ecx, ecx
  000d6	74 55		 je	 SHORT $LN1@iwm_comman@3

; 363  : 				m_pParent->HideWnd();

  000d8	ff 15 00 00 00
	00		 call	 DWORD PTR __imp_?HideWnd@ioWnd@@QAEXXZ

; 364  : 		}
; 365  : 		break;

  000de	eb 4d		 jmp	 SHORT $LN1@iwm_comman@3
$LN6@iwm_comman@3:

; 366  : 	case ID_CANCEL:
; 367  : 		if( cmd == IOBN_BTNUP )
; 368  : 		{
; 369  : 			if(m_pParent)
; 370  : 				m_pParent->HideWnd();
; 371  : 		}
; 372  : 		break;
; 373  : 	case ID_PLAY_KILL_SOUND_BUTTON:
; 374  : 		if( cmd == IOBN_BTNUP )

  000e0	83 7d 0c 11	 cmp	 DWORD PTR _cmd$[ebp], 17 ; 00000011H
  000e4	75 47		 jne	 SHORT $LN1@iwm_comman@3

; 375  : 		{
; 376  : 			m_CurrentOption.m_bPlayKillSound = !m_CurrentOption.m_bPlayKillSound;

  000e6	80 be c9 01 00
	00 00		 cmp	 BYTE PTR [esi+457], 0
  000ed	0f 94 c1	 sete	 cl
  000f0	88 8e c9 01 00
	00		 mov	 BYTE PTR [esi+457], cl

; 377  : 			ApplyChangedOption();
; 378  : 		}
; 379  : 		break;

  000f6	eb 2e		 jmp	 SHORT $LN30@iwm_comman@3
$LN4@iwm_comman@3:

; 380  : 	case ID_PLAY_COMBO_SOUND_BUTTON:
; 381  : 		if( cmd == IOBN_BTNUP )

  000f8	83 7d 0c 11	 cmp	 DWORD PTR _cmd$[ebp], 17 ; 00000011H
  000fc	75 2f		 jne	 SHORT $LN1@iwm_comman@3

; 382  : 		{
; 383  : 			m_CurrentOption.m_bPlayComboSound = !m_CurrentOption.m_bPlayComboSound;

  000fe	80 be ca 01 00
	00 00		 cmp	 BYTE PTR [esi+458], 0
  00105	0f 94 c1	 sete	 cl
  00108	88 8e ca 01 00
	00		 mov	 BYTE PTR [esi+458], cl

; 384  : 			ApplyChangedOption();
; 385  : 		}
; 386  : 		break;

  0010e	eb 16		 jmp	 SHORT $LN30@iwm_comman@3
$LN2@iwm_comman@3:

; 387  : 	case ID_PLAY_EXTEND_SOUND_BUTTON:
; 388  : 		if( cmd == IOBN_BTNUP )

  00110	83 7d 0c 11	 cmp	 DWORD PTR _cmd$[ebp], 17 ; 00000011H
  00114	75 17		 jne	 SHORT $LN1@iwm_comman@3

; 389  : 		{
; 390  : 			m_CurrentOption.m_bPlayExtendSound = !m_CurrentOption.m_bPlayExtendSound;

  00116	80 be cc 01 00
	00 00		 cmp	 BYTE PTR [esi+460], 0
  0011d	0f 94 c1	 sete	 cl
  00120	88 8e cc 01 00
	00		 mov	 BYTE PTR [esi+460], cl
$LN30@iwm_comman@3:

; 391  : 			ApplyChangedOption();

  00126	8b ce		 mov	 ecx, esi
  00128	e8 00 00 00 00	 call	 ?ApplyChangedOption@GameOptionBasicWnd@@IAE_NXZ ; GameOptionBasicWnd::ApplyChangedOption
$LN1@iwm_comman@3:
  0012d	5e		 pop	 esi

; 392  : 		}
; 393  : 		break;
; 394  : 	}
; 395  : }

  0012e	5d		 pop	 ebp
  0012f	c2 0c 00	 ret	 12			; 0000000cH
  00132	8b ff		 npad	 2
$LN31@iwm_comman@3:
  00134	00 00 00 00	 DD	 $LN25@iwm_comman@3
  00138	00 00 00 00	 DD	 $LN23@iwm_comman@3
  0013c	00 00 00 00	 DD	 $LN21@iwm_comman@3
  00140	00 00 00 00	 DD	 $LN19@iwm_comman@3
  00144	00 00 00 00	 DD	 $LN12@iwm_comman@3
  00148	00 00 00 00	 DD	 $LN12@iwm_comman@3
  0014c	00 00 00 00	 DD	 $LN1@iwm_comman@3
  00150	00 00 00 00	 DD	 $LN15@iwm_comman@3
  00154	00 00 00 00	 DD	 $LN1@iwm_comman@3
  00158	00 00 00 00	 DD	 $LN17@iwm_comman@3
  0015c	00 00 00 00	 DD	 $LN6@iwm_comman@3
  00160	00 00 00 00	 DD	 $LN4@iwm_comman@3
  00164	00 00 00 00	 DD	 $LN2@iwm_comman@3
?iwm_command@GameOptionVolumeTab@@UAEXPAVioWnd@@HK@Z ENDP ; GameOptionVolumeTab::iwm_command
_TEXT	ENDS
EXTRN	__imp_?SetChildWndStyleAdd@ioWnd@@QAEXKK@Z:PROC
EXTRN	__imp_?SetChildWndStyleRemove@ioWnd@@QAEXKK@Z:PROC
; Function compile flags: /Ogsp
;	COMDAT ?UpdateByCurrentOption@GameOptionSpecTab@@MAEXXZ
_TEXT	SEGMENT
?UpdateByCurrentOption@GameOptionSpecTab@@MAEXXZ PROC	; GameOptionSpecTab::UpdateByCurrentOption, COMDAT
; _this$ = ecx

; 644  : 	if( Setting::GetEnableMultiSampleCount() <= 0 )

  00000	a1 04 00 00 00	 mov	 eax, DWORD PTR ?m_EnableSampleList@Setting@@1V?$vector@W4_D3DMULTISAMPLE_TYPE@@V?$allocator@W4_D3DMULTISAMPLE_TYPE@@@std@@@std@@A+4
  00005	2b 05 00 00 00
	00		 sub	 eax, DWORD PTR ?m_EnableSampleList@Setting@@1V?$vector@W4_D3DMULTISAMPLE_TYPE@@V?$allocator@W4_D3DMULTISAMPLE_TYPE@@@std@@@std@@A
  0000b	53		 push	 ebx
  0000c	8b 1d 00 00 00
	00		 mov	 ebx, DWORD PTR __imp_?SetChildInActive@ioWnd@@QAEXK@Z
  00012	56		 push	 esi
  00013	8b f1		 mov	 esi, ecx
  00015	a9 fc ff ff ff	 test	 eax, -4			; fffffffcH
  0001a	7f 04		 jg	 SHORT $LN44@UpdateByCu@2

; 645  : 	{
; 646  : 		SetChildInActive( ID_VERY_HIGH_SPEC );

  0001c	6a 01		 push	 1
  0001e	ff d3		 call	 ebx
$LN44@UpdateByCu@2:

; 647  : 	}
; 648  : 	if( Setting::GetPixelShaderVersion() < 20 )

  00020	83 3d 00 00 00
	00 14		 cmp	 DWORD PTR ?m_iPixelShader@Setting@@1HA, 20 ; Setting::m_iPixelShader, 00000014H
  00027	7d 0c		 jge	 SHORT $LN43@UpdateByCu@2

; 649  : 	{
; 650  : 		SetChildInActive( ID_VERY_HIGH_SPEC );

  00029	6a 01		 push	 1
  0002b	8b ce		 mov	 ecx, esi
  0002d	ff d3		 call	 ebx

; 651  : 		SetChildInActive( ID_HIGH_SPEC );

  0002f	6a 02		 push	 2
  00031	8b ce		 mov	 ecx, esi
  00033	ff d3		 call	 ebx
$LN43@UpdateByCu@2:

; 652  : 	}
; 653  : 	if( Setting::GetPixelShaderVersion() < 10 )

  00035	83 3d 00 00 00
	00 0a		 cmp	 DWORD PTR ?m_iPixelShader@Setting@@1HA, 10 ; Setting::m_iPixelShader, 0000000aH
  0003c	7d 0c		 jge	 SHORT $LN42@UpdateByCu@2

; 654  : 	{
; 655  : 		SetChildInActive( ID_MIDDLE_SPEC );

  0003e	6a 03		 push	 3
  00040	8b ce		 mov	 ecx, esi
  00042	ff d3		 call	 ebx

; 656  : 		SetChildInActive( ID_LOW_SPEC );

  00044	6a 04		 push	 4
  00046	8b ce		 mov	 ecx, esi
  00048	ff d3		 call	 ebx
$LN42@UpdateByCu@2:

; 657  : 	}
; 658  : 
; 659  : 	UpdateScreenBoxText();

  0004a	57		 push	 edi
  0004b	8b ce		 mov	 ecx, esi
  0004d	e8 00 00 00 00	 call	 ?UpdateScreenBoxText@GameOptionSpecTab@@IAEXXZ ; GameOptionSpecTab::UpdateScreenBoxText

; 660  : 
; 661  : 	SetButtonCheck( ID_SCREEN_GLOW, m_CurrentOption.m_bGlow );

  00052	0f b6 86 66 01
	00 00		 movzx	 eax, BYTE PTR [esi+358]
  00059	50		 push	 eax
  0005a	6a 13		 push	 19			; 00000013H
  0005c	8b ce		 mov	 ecx, esi
  0005e	e8 00 00 00 00	 call	 ?SetButtonCheck@GameOptionBasicWnd@@IAEXK_N@Z ; GameOptionBasicWnd::SetButtonCheck

; 662  : 	SetButtonCheck( ID_TRAIL_GLOW, m_CurrentOption.m_bTrailGlow );

  00063	0f b6 86 68 01
	00 00		 movzx	 eax, BYTE PTR [esi+360]
  0006a	50		 push	 eax
  0006b	6a 0a		 push	 10			; 0000000aH
  0006d	8b ce		 mov	 ecx, esi
  0006f	e8 00 00 00 00	 call	 ?SetButtonCheck@GameOptionBasicWnd@@IAEXK_N@Z ; GameOptionBasicWnd::SetButtonCheck

; 663  : 	SetButtonCheck( ID_MAP_EFFECT, m_CurrentOption.m_bShowMapEffect );

  00074	0f b6 86 67 01
	00 00		 movzx	 eax, BYTE PTR [esi+359]
  0007b	50		 push	 eax
  0007c	6a 14		 push	 20			; 00000014H
  0007e	8b ce		 mov	 ecx, esi
  00080	e8 00 00 00 00	 call	 ?SetButtonCheck@GameOptionBasicWnd@@IAEXK_N@Z ; GameOptionBasicWnd::SetButtonCheck

; 664  : 	SetButtonCheck( ID_SHADOW, m_CurrentOption.m_bShadow );

  00085	0f b6 86 65 01
	00 00		 movzx	 eax, BYTE PTR [esi+357]
  0008c	50		 push	 eax
  0008d	6a 15		 push	 21			; 00000015H
  0008f	8b ce		 mov	 ecx, esi
  00091	e8 00 00 00 00	 call	 ?SetButtonCheck@GameOptionBasicWnd@@IAEXK_N@Z ; GameOptionBasicWnd::SetButtonCheck

; 665  : 	SetButtonCheck( ID_16BIT_FRAMEBUFFER, m_CurrentOption.m_bUse16bitFrameBuffer );

  00096	0f b6 86 6a 01
	00 00		 movzx	 eax, BYTE PTR [esi+362]
  0009d	50		 push	 eax
  0009e	6a 2d		 push	 45			; 0000002dH
  000a0	8b ce		 mov	 ecx, esi
  000a2	e8 00 00 00 00	 call	 ?SetButtonCheck@GameOptionBasicWnd@@IAEXK_N@Z ; GameOptionBasicWnd::SetButtonCheck

; 666  : 	SetButtonCheck( ID_SOFT_SKINNING, m_CurrentOption.m_bSoftSkinning );

  000a7	0f b6 86 69 01
	00 00		 movzx	 eax, BYTE PTR [esi+361]
  000ae	50		 push	 eax
  000af	6a 2e		 push	 46			; 0000002eH
  000b1	8b ce		 mov	 ecx, esi
  000b3	e8 00 00 00 00	 call	 ?SetButtonCheck@GameOptionBasicWnd@@IAEXK_N@Z ; GameOptionBasicWnd::SetButtonCheck

; 667  : 	SetButtonCheck( ID_MAP_EDGE, m_CurrentOption.m_bUseMapEdge );

  000b8	0f b6 86 6b 01
	00 00		 movzx	 eax, BYTE PTR [esi+363]
  000bf	50		 push	 eax
  000c0	6a 1f		 push	 31			; 0000001fH
  000c2	8b ce		 mov	 ecx, esi
  000c4	e8 00 00 00 00	 call	 ?SetButtonCheck@GameOptionBasicWnd@@IAEXK_N@Z ; GameOptionBasicWnd::SetButtonCheck

; 668  : 	SetButtonCheck( ID_OBJECT_EDGE, m_CurrentOption.m_bUseObjectEdge );

  000c9	0f b6 86 6c 01
	00 00		 movzx	 eax, BYTE PTR [esi+364]
  000d0	50		 push	 eax
  000d1	6a 1e		 push	 30			; 0000001eH
  000d3	8b ce		 mov	 ecx, esi
  000d5	e8 00 00 00 00	 call	 ?SetButtonCheck@GameOptionBasicWnd@@IAEXK_N@Z ; GameOptionBasicWnd::SetButtonCheck

; 669  : 	SetButtonCheck( ID_SPEC_AUTO_CHECK, m_CurrentOption.m_bSpecAutoCheck );

  000da	0f b6 86 6d 01
	00 00		 movzx	 eax, BYTE PTR [esi+365]
  000e1	50		 push	 eax
  000e2	6a 38		 push	 56			; 00000038H
  000e4	8b ce		 mov	 ecx, esi
  000e6	e8 00 00 00 00	 call	 ?SetButtonCheck@GameOptionBasicWnd@@IAEXK_N@Z ; GameOptionBasicWnd::SetButtonCheck

; 670  : 	SetButtonCheck( ID_MOVIE_MODE, m_CurrentOption.m_bSwapCopy );

  000eb	0f b6 86 6e 01
	00 00		 movzx	 eax, BYTE PTR [esi+366]
  000f2	50		 push	 eax
  000f3	6a 39		 push	 57			; 00000039H
  000f5	8b ce		 mov	 ecx, esi
  000f7	e8 00 00 00 00	 call	 ?SetButtonCheck@GameOptionBasicWnd@@IAEXK_N@Z ; GameOptionBasicWnd::SetButtonCheck

; 671  : 
; 672  : 	SetAntiOptionEnable( true );

  000fc	6a 01		 push	 1
  000fe	8b ce		 mov	 ecx, esi
  00100	e8 00 00 00 00	 call	 ?SetAntiOptionEnable@GameOptionSpecTab@@IAEX_N@Z ; GameOptionSpecTab::SetAntiOptionEnable

; 673  : 	switch( m_CurrentOption.m_AntiAliasingQuality )

  00105	8b 86 70 01 00
	00		 mov	 eax, DWORD PTR [esi+368]
  0010b	83 e8 00	 sub	 eax, 0
  0010e	8b 3d 00 00 00
	00		 mov	 edi, DWORD PTR __imp_?CheckRadioButton@ioWnd@@QAEXKKK@Z
  00114	74 15		 je	 SHORT $LN36@UpdateByCu@2
  00116	48		 dec	 eax
  00117	74 0e		 je	 SHORT $LN37@UpdateByCu@2
  00119	48		 dec	 eax
  0011a	74 07		 je	 SHORT $LN38@UpdateByCu@2
  0011c	48		 dec	 eax
  0011d	75 16		 jne	 SHORT $LN40@UpdateByCu@2

; 674  : 	{
; 675  : 	case AQ_HIGH:
; 676  : 		CheckRadioButton( ID_ANTI_ALIASING_QUALITY, ID_ANTI_ALIASING_LOW, ID_ANTI_ALIASING_HIGH );	

  0011f	6a 0c		 push	 12			; 0000000cH

; 677  : 		break;

  00121	eb 0a		 jmp	 SHORT $LN67@UpdateByCu@2
$LN38@UpdateByCu@2:

; 678  : 	case AQ_MIDDLE:
; 679  : 		CheckRadioButton( ID_ANTI_ALIASING_QUALITY, ID_ANTI_ALIASING_LOW, ID_ANTI_ALIASING_MIDDLE );

  00123	6a 0d		 push	 13			; 0000000dH

; 680  : 		break;

  00125	eb 06		 jmp	 SHORT $LN67@UpdateByCu@2
$LN37@UpdateByCu@2:

; 681  : 	case AQ_LOW:
; 682  : 		CheckRadioButton( ID_ANTI_ALIASING_QUALITY, ID_ANTI_ALIASING_LOW, ID_ANTI_ALIASING_LOW );

  00127	6a 0e		 push	 14			; 0000000eH

; 683  : 		break;

  00129	eb 02		 jmp	 SHORT $LN67@UpdateByCu@2
$LN36@UpdateByCu@2:

; 684  : 	case AQ_NONE:
; 685  : 		CheckRadioButton( ID_ANTI_ALIASING_QUALITY, ID_ANTI_ALIASING_LOW, ID_ANTI_ALIASING_QUALITY );

  0012b	6a 0b		 push	 11			; 0000000bH
$LN67@UpdateByCu@2:
  0012d	6a 0e		 push	 14			; 0000000eH
  0012f	6a 0b		 push	 11			; 0000000bH
  00131	8b ce		 mov	 ecx, esi
  00133	ff d7		 call	 edi
$LN40@UpdateByCu@2:

; 686  : 		break;
; 687  : 	}
; 688  : 
; 689  : 	switch( m_CurrentOption.m_LightQuality )

  00135	8b 86 78 01 00
	00		 mov	 eax, DWORD PTR [esi+376]
  0013b	83 e8 00	 sub	 eax, 0
  0013e	74 0e		 je	 SHORT $LN31@UpdateByCu@2
  00140	48		 dec	 eax
  00141	74 07		 je	 SHORT $LN32@UpdateByCu@2
  00143	48		 dec	 eax
  00144	75 12		 jne	 SHORT $LN34@UpdateByCu@2

; 690  : 	{
; 691  : 	case LQ_HIGH:
; 692  : 		CheckRadioButton( ID_LIGHT_HIGH, ID_LIGHT_LOW, ID_LIGHT_HIGH );

  00146	6a 1a		 push	 26			; 0000001aH

; 693  : 		break;

  00148	eb 06		 jmp	 SHORT $LN68@UpdateByCu@2
$LN32@UpdateByCu@2:

; 694  : 	case LQ_MIDDLE:
; 695  : 		CheckRadioButton( ID_LIGHT_HIGH, ID_LIGHT_LOW, ID_LIGHT_MIDDLE );

  0014a	6a 1b		 push	 27			; 0000001bH

; 696  : 		break;

  0014c	eb 02		 jmp	 SHORT $LN68@UpdateByCu@2
$LN31@UpdateByCu@2:

; 697  : 	case LQ_LOW:
; 698  : 		CheckRadioButton( ID_LIGHT_HIGH, ID_LIGHT_LOW, ID_LIGHT_LOW );

  0014e	6a 1c		 push	 28			; 0000001cH
$LN68@UpdateByCu@2:
  00150	6a 1c		 push	 28			; 0000001cH
  00152	6a 1a		 push	 26			; 0000001aH
  00154	8b ce		 mov	 ecx, esi
  00156	ff d7		 call	 edi
$LN34@UpdateByCu@2:

; 699  : 		break;
; 700  : 	}
; 701  : 
; 702  : 	switch( m_CurrentOption.m_TextureQuality )

  00158	8b 86 74 01 00
	00		 mov	 eax, DWORD PTR [esi+372]
  0015e	48		 dec	 eax
  0015f	74 0e		 je	 SHORT $LN26@UpdateByCu@2
  00161	48		 dec	 eax
  00162	74 07		 je	 SHORT $LN27@UpdateByCu@2
  00164	48		 dec	 eax
  00165	75 12		 jne	 SHORT $LN29@UpdateByCu@2

; 703  : 	{
; 704  : 	case TQ_HIGH:
; 705  : 		CheckRadioButton( ID_TEXTURE_HIGH, ID_TEXTURE_LOW, ID_TEXTURE_HIGH );

  00167	6a 24		 push	 36			; 00000024H

; 706  : 		break;

  00169	eb 06		 jmp	 SHORT $LN69@UpdateByCu@2
$LN27@UpdateByCu@2:

; 707  : 	case TQ_MIDDLE:
; 708  : 		CheckRadioButton( ID_TEXTURE_HIGH, ID_TEXTURE_LOW, ID_TEXTURE_MIDDLE );

  0016b	6a 25		 push	 37			; 00000025H

; 709  : 		break;

  0016d	eb 02		 jmp	 SHORT $LN69@UpdateByCu@2
$LN26@UpdateByCu@2:

; 710  : 	case TQ_LOW:
; 711  : 		CheckRadioButton( ID_TEXTURE_HIGH, ID_TEXTURE_LOW, ID_TEXTURE_LOW );

  0016f	6a 26		 push	 38			; 00000026H
$LN69@UpdateByCu@2:
  00171	6a 26		 push	 38			; 00000026H
  00173	6a 24		 push	 36			; 00000024H
  00175	8b ce		 mov	 ecx, esi
  00177	ff d7		 call	 edi
$LN29@UpdateByCu@2:

; 712  : 		break;
; 713  : 	}
; 714  : 
; 715  : 	switch( m_CurrentOption.m_EffectQuality )

  00179	8b 86 7c 01 00
	00		 mov	 eax, DWORD PTR [esi+380]
  0017f	83 e8 00	 sub	 eax, 0
  00182	74 0e		 je	 SHORT $LN21@UpdateByCu@2
  00184	48		 dec	 eax
  00185	74 07		 je	 SHORT $LN22@UpdateByCu@2
  00187	48		 dec	 eax
  00188	75 12		 jne	 SHORT $LN24@UpdateByCu@2

; 716  : 	{
; 717  : 	case EQ_HIGH:
; 718  : 		CheckRadioButton( ID_EFFECT_HIGH, ID_EFFECT_LOW, ID_EFFECT_HIGH );

  0018a	6a 29		 push	 41			; 00000029H

; 719  : 		break;

  0018c	eb 06		 jmp	 SHORT $LN70@UpdateByCu@2
$LN22@UpdateByCu@2:

; 720  : 	case EQ_MIDDLE:
; 721  : 		CheckRadioButton( ID_EFFECT_HIGH, ID_EFFECT_LOW, ID_EFFECT_MIDDLE );

  0018e	6a 2a		 push	 42			; 0000002aH

; 722  : 		break;

  00190	eb 02		 jmp	 SHORT $LN70@UpdateByCu@2
$LN21@UpdateByCu@2:

; 723  : 	case EQ_LOW:
; 724  : 		CheckRadioButton( ID_EFFECT_HIGH, ID_EFFECT_LOW, ID_EFFECT_LOW );

  00192	6a 2b		 push	 43			; 0000002bH
$LN70@UpdateByCu@2:
  00194	6a 2b		 push	 43			; 0000002bH
  00196	6a 29		 push	 41			; 00000029H
  00198	8b ce		 mov	 ecx, esi
  0019a	ff d7		 call	 edi
$LN24@UpdateByCu@2:

; 725  : 		break;
; 726  : 	}
; 727  : 
; 728  : 	switch( m_CurrentOption.m_MapObjectQuality )

  0019c	8b 86 80 01 00
	00		 mov	 eax, DWORD PTR [esi+384]
  001a2	83 e8 00	 sub	 eax, 0
  001a5	74 0e		 je	 SHORT $LN16@UpdateByCu@2
  001a7	48		 dec	 eax
  001a8	74 07		 je	 SHORT $LN17@UpdateByCu@2
  001aa	48		 dec	 eax
  001ab	75 12		 jne	 SHORT $LN19@UpdateByCu@2

; 729  : 	{
; 730  : 	case MQ_HIGH:
; 731  : 		CheckRadioButton( ID_MAP_OBJECT_HIGH, ID_MAP_OBJECT_LOW, ID_MAP_OBJECT_HIGH );

  001ad	6a 10		 push	 16			; 00000010H

; 732  : 		break;

  001af	eb 06		 jmp	 SHORT $LN71@UpdateByCu@2
$LN17@UpdateByCu@2:

; 733  : 	case MQ_MIDDLE:
; 734  : 		CheckRadioButton( ID_MAP_OBJECT_HIGH, ID_MAP_OBJECT_LOW, ID_MAP_OBJECT_MIDDLE );

  001b1	6a 11		 push	 17			; 00000011H

; 735  : 		break;

  001b3	eb 02		 jmp	 SHORT $LN71@UpdateByCu@2
$LN16@UpdateByCu@2:

; 736  : 	case MQ_LOW:
; 737  : 		CheckRadioButton( ID_MAP_OBJECT_HIGH, ID_MAP_OBJECT_LOW, ID_MAP_OBJECT_LOW );

  001b5	6a 12		 push	 18			; 00000012H
$LN71@UpdateByCu@2:
  001b7	6a 12		 push	 18			; 00000012H
  001b9	6a 10		 push	 16			; 00000010H
  001bb	8b ce		 mov	 ecx, esi
  001bd	ff d7		 call	 edi
$LN19@UpdateByCu@2:

; 738  : 		break;
; 739  : 	}
; 740  : 
; 741  : 	if( Setting::GetPixelShaderVersion() < 20 )

  001bf	83 3d 00 00 00
	00 14		 cmp	 DWORD PTR ?m_iPixelShader@Setting@@1HA, 20 ; Setting::m_iPixelShader, 00000014H
  001c6	5f		 pop	 edi
  001c7	7d 18		 jge	 SHORT $LN66@UpdateByCu@2

; 742  : 	{
; 743  : 		SetChildInActive( ID_SCREEN_GLOW );

  001c9	6a 13		 push	 19			; 00000013H
  001cb	8b ce		 mov	 ecx, esi
  001cd	ff d3		 call	 ebx

; 744  : 		SetChildInActive( ID_TRAIL_GLOW );

  001cf	6a 0a		 push	 10			; 0000000aH
  001d1	8b ce		 mov	 ecx, esi
  001d3	ff d3		 call	 ebx

; 745  : 		SetChildInActive( ID_SHADOW );

  001d5	6a 15		 push	 21			; 00000015H
  001d7	8b ce		 mov	 ecx, esi
  001d9	ff d3		 call	 ebx

; 746  : 		SetChildInActive( ID_FILTER_BOX );

  001db	6a 3d		 push	 61			; 0000003dH
  001dd	8b ce		 mov	 ecx, esi
  001df	ff d3		 call	 ebx
$LN66@UpdateByCu@2:

; 747  : 	}
; 748  : 
; 749  : 	if( Setting::GetPixelShaderVersion() < 10 )

  001e1	83 3d 00 00 00
	00 0a		 cmp	 DWORD PTR ?m_iPixelShader@Setting@@1HA, 10 ; Setting::m_iPixelShader, 0000000aH
  001e8	7d 0c		 jge	 SHORT $LN14@UpdateByCu@2

; 750  : 	{
; 751  : 		SetChildInActive( ID_LIGHT_HIGH );

  001ea	6a 1a		 push	 26			; 0000001aH
  001ec	8b ce		 mov	 ecx, esi
  001ee	ff d3		 call	 ebx

; 752  : 		SetChildInActive( ID_LIGHT_MIDDLE );

  001f0	6a 1b		 push	 27			; 0000001bH
  001f2	8b ce		 mov	 ecx, esi
  001f4	ff d3		 call	 ebx
$LN14@UpdateByCu@2:

; 753  : 	}
; 754  : 
; 755  : 	ChangeResolutionText( m_CurrentOption.m_iWidth, m_CurrentOption.m_iHeight );

  001f6	ff b6 90 01 00
	00		 push	 DWORD PTR [esi+400]
  001fc	8b ce		 mov	 ecx, esi
  001fe	ff b6 8c 01 00
	00		 push	 DWORD PTR [esi+396]
  00204	e8 00 00 00 00	 call	 ?ChangeResolutionText@GameOptionSpecTab@@IAEXHH@Z ; GameOptionSpecTab::ChangeResolutionText

; 756  : 
; 757  : 	UpdateFilterBoxText();

  00209	8b ce		 mov	 ecx, esi
  0020b	e8 00 00 00 00	 call	 ?UpdateFilterBoxText@GameOptionSpecTab@@IAEXXZ ; GameOptionSpecTab::UpdateFilterBoxText

; 758  : 	UpdateOverayBoxText();

  00210	8b ce		 mov	 ecx, esi
  00212	e8 00 00 00 00	 call	 ?UpdateOverayBoxText@GameOptionSpecTab@@IAEXXZ ; GameOptionSpecTab::UpdateOverayBoxText

; 759  : 
; 760  : 	SetChildInActive( ID_APPLY );

  00217	6a 34		 push	 52			; 00000034H
  00219	8b ce		 mov	 ecx, esi
  0021b	ff d3		 call	 ebx

; 761  : 
; 762  : 	bool bCheckMode = false;
; 763  : 	if( g_App.GetConnectedMoveMode() == ioApplication::CMM_LOBBY )

  0021d	e8 00 00 00 00	 call	 ?GetSingleton@ioApplication@@SAAAV1@XZ ; ioApplication::GetSingleton
  00222	83 b8 ac 06 00
	00 02		 cmp	 DWORD PTR [eax+1708], 2
  00229	75 0a		 jne	 SHORT $LN13@UpdateByCu@2

; 764  : 	{
; 765  : 		if( ioPlayMode::GetModeType() == MT_MYROOM )

  0022b	e8 00 00 00 00	 call	 ?GetModeType@ioPlayMode@@SA?AW4ModeType@@XZ ; ioPlayMode::GetModeType
  00230	83 f8 18	 cmp	 eax, 24			; 00000018H

; 766  : 		{
; 767  : 			bCheckMode = true;
; 768  : 		}		
; 769  : 	}
; 770  : 	else

  00233	eb 26		 jmp	 SHORT $LN72@UpdateByCu@2
$LN13@UpdateByCu@2:

; 771  : 	{
; 772  : 		if( ioPlayMode::GetModeType() == MT_MYROOM || ioPlayMode::GetModeType() == MT_TRAINING || ioPlayMode::GetModeType() == MT_HEADQUARTERS || ioPlayMode::GetModeType() == MT_HOUSE )

  00235	e8 00 00 00 00	 call	 ?GetModeType@ioPlayMode@@SA?AW4ModeType@@XZ ; ioPlayMode::GetModeType
  0023a	83 f8 18	 cmp	 eax, 24			; 00000018H
  0023d	74 1e		 je	 SHORT $LN9@UpdateByCu@2
  0023f	e8 00 00 00 00	 call	 ?GetModeType@ioPlayMode@@SA?AW4ModeType@@XZ ; ioPlayMode::GetModeType
  00244	83 f8 04	 cmp	 eax, 4
  00247	74 14		 je	 SHORT $LN9@UpdateByCu@2
  00249	e8 00 00 00 00	 call	 ?GetModeType@ioPlayMode@@SA?AW4ModeType@@XZ ; ioPlayMode::GetModeType
  0024e	83 f8 0d	 cmp	 eax, 13			; 0000000dH
  00251	74 0a		 je	 SHORT $LN9@UpdateByCu@2
  00253	e8 00 00 00 00	 call	 ?GetModeType@ioPlayMode@@SA?AW4ModeType@@XZ ; ioPlayMode::GetModeType
  00258	83 f8 17	 cmp	 eax, 23			; 00000017H
$LN72@UpdateByCu@2:
  0025b	75 32		 jne	 SHORT $LN8@UpdateByCu@2
$LN9@UpdateByCu@2:

; 773  : 		{
; 774  : 			bCheckMode = true;
; 775  : 		}
; 776  : 	}
; 777  : 
; 778  : 	if( bCheckMode )
; 779  : 	{		
; 780  : 		switch( ioMyRoomMode::GetMyRoomType() )

  0025d	a1 00 00 00 00	 mov	 eax, DWORD PTR ?m_eMyRoomType@ioMyRoomMode@@1W4MyRoomType@@A ; ioMyRoomMode::m_eMyRoomType
  00262	83 e8 00	 sub	 eax, 0
  00265	74 17		 je	 SHORT $LN5@UpdateByCu@2
  00267	83 e8 03	 sub	 eax, 3
  0026a	74 12		 je	 SHORT $LN5@UpdateByCu@2
  0026c	48		 dec	 eax
  0026d	48		 dec	 eax

; 791  : 				{
; 792  : 					SetChildWndStyleRemove( ID_BACKGROUND_CHANGE, IWS_EXACTIVE );
; 793  : 				}
; 794  : 			}
; 795  : 			break;
; 796  : 		default:
; 797  : 			{
; 798  : 				SetChildWndStyleAdd( ID_BACKGROUND_CHANGE, IWS_EXACTIVE );
; 799  : 			}
; 800  : 			break;

  0026e	75 1f		 jne	 SHORT $LN8@UpdateByCu@2

; 786  : 			}
; 787  : 			break;
; 788  : 		case MRT_FIND_MODE:
; 789  : 			{
; 790  : 				if( g_App.GetConnectedMoveMode() != ioApplication::CMM_LOBBY )

  00270	e8 00 00 00 00	 call	 ?GetSingleton@ioApplication@@SAAAV1@XZ ; ioApplication::GetSingleton
  00275	83 b8 ac 06 00
	00 02		 cmp	 DWORD PTR [eax+1708], 2
  0027c	74 20		 je	 SHORT $LN1@UpdateByCu@2
$LN5@UpdateByCu@2:

; 781  : 		{
; 782  : 		case MRT_LOBBY:
; 783  : 		case MRT_PRACTICE:		
; 784  : 			{
; 785  : 				SetChildWndStyleRemove( ID_BACKGROUND_CHANGE, IWS_EXACTIVE );

  0027e	68 00 10 00 00	 push	 4096			; 00001000H
  00283	6a 35		 push	 53			; 00000035H
  00285	8b ce		 mov	 ecx, esi
  00287	ff 15 00 00 00
	00		 call	 DWORD PTR __imp_?SetChildWndStyleRemove@ioWnd@@QAEXKK@Z

; 801  : 		}
; 802  : 	}
; 803  : 	else

  0028d	eb 0f		 jmp	 SHORT $LN1@UpdateByCu@2
$LN8@UpdateByCu@2:

; 804  : 	{
; 805  : 		SetChildWndStyleAdd( ID_BACKGROUND_CHANGE, IWS_EXACTIVE );

  0028f	68 00 10 00 00	 push	 4096			; 00001000H
  00294	6a 35		 push	 53			; 00000035H
  00296	8b ce		 mov	 ecx, esi
  00298	ff 15 00 00 00
	00		 call	 DWORD PTR __imp_?SetChildWndStyleAdd@ioWnd@@QAEXKK@Z
$LN1@UpdateByCu@2:

; 806  : 	}
; 807  : }

  0029e	5e		 pop	 esi
  0029f	5b		 pop	 ebx
  002a0	c3		 ret	 0
?UpdateByCurrentOption@GameOptionSpecTab@@MAEXXZ ENDP	; GameOptionSpecTab::UpdateByCurrentOption
_TEXT	ENDS
PUBLIC	??1?$basic_string@DU?$char_traits@D@std@@V?$allocator@D@2@@std@@QAE@XZ ; std::basic_string<char,std::char_traits<char>,std::allocator<char> >::~basic_string<char,std::char_traits<char>,std::allocator<char> >
; Function compile flags: /Ogsp
; File c:\program files (x86)\microsoft visual studio 10.0\vc\include\xstring
;	COMDAT ??1?$basic_string@DU?$char_traits@D@std@@V?$allocator@D@2@@std@@QAE@XZ
_TEXT	SEGMENT
??1?$basic_string@DU?$char_traits@D@std@@V?$allocator@D@2@@std@@QAE@XZ PROC ; std::basic_string<char,std::char_traits<char>,std::allocator<char> >::~basic_string<char,std::char_traits<char>,std::allocator<char> >, COMDAT
; _this$ = ecx

; 754  : 		_Tidy(true);

  00000	6a 00		 push	 0
  00002	6a 01		 push	 1
  00004	e8 00 00 00 00	 call	 ?_Tidy@?$basic_string@DU?$char_traits@D@std@@V?$allocator@D@2@@std@@QAEX_NI@Z ; std::basic_string<char,std::char_traits<char>,std::allocator<char> >::_Tidy

; 755  : 		}

  00009	c3		 ret	 0
??1?$basic_string@DU?$char_traits@D@std@@V?$allocator@D@2@@std@@QAE@XZ ENDP ; std::basic_string<char,std::char_traits<char>,std::allocator<char> >::~basic_string<char,std::char_traits<char>,std::allocator<char> >
_TEXT	ENDS
PUBLIC	?_Grow@?$basic_string@DU?$char_traits@D@std@@V?$allocator@D@2@@std@@QAE_NI_N@Z ; std::basic_string<char,std::char_traits<char>,std::allocator<char> >::_Grow
; Function compile flags: /Ogsp
;	COMDAT ?_Grow@?$basic_string@DU?$char_traits@D@std@@V?$allocator@D@2@@std@@QAE_NI_N@Z
_TEXT	SEGMENT
__Newsize$ = 8						; size = 4
__Trim$ = 12						; size = 1
?_Grow@?$basic_string@DU?$char_traits@D@std@@V?$allocator@D@2@@std@@QAE_NI_N@Z PROC ; std::basic_string<char,std::char_traits<char>,std::allocator<char> >::_Grow, COMDAT
; _this$ = ecx

; 1959 : 		{	// ensure buffer is big enough, trim to size if _Trim is true

  00000	55		 push	 ebp
  00001	8b ec		 mov	 ebp, esp
  00003	56		 push	 esi

; 1960 : 		if (max_size() < _Newsize)

  00004	8b 75 08	 mov	 esi, DWORD PTR __Newsize$[ebp]
  00007	83 fe fe	 cmp	 esi, -2			; fffffffeH
  0000a	76 0b		 jbe	 SHORT $LN6@Grow

; 1961 : 			_Xlen();	// result too long

  0000c	68 00 00 00 00	 push	 OFFSET ??_C@_0BA@JFNIOLAK@string?5too?5long?$AA@
  00011	ff 15 00 00 00
	00		 call	 DWORD PTR __imp_?_Xlength_error@std@@YAXPBD@Z
$LN31@Grow:
$LN6@Grow:

; 1962 : 		if (this->_Myres < _Newsize)

  00017	8b 41 14	 mov	 eax, DWORD PTR [ecx+20]
  0001a	3b c6		 cmp	 eax, esi
  0001c	73 0b		 jae	 SHORT $LN5@Grow

; 1963 : 			_Copy(_Newsize, this->_Mysize);	// reallocate to grow

  0001e	ff 71 10	 push	 DWORD PTR [ecx+16]
  00021	56		 push	 esi
  00022	e8 00 00 00 00	 call	 ?_Copy@?$basic_string@DU?$char_traits@D@std@@V?$allocator@D@2@@std@@QAEXII@Z ; std::basic_string<char,std::char_traits<char>,std::allocator<char> >::_Copy
  00027	eb 2e		 jmp	 SHORT $LN28@Grow
$LN5@Grow:

; 1964 : 		else if (_Trim && _Newsize < this->_BUF_SIZE)

  00029	33 d2		 xor	 edx, edx
  0002b	38 55 0c	 cmp	 BYTE PTR __Trim$[ebp], dl
  0002e	74 17		 je	 SHORT $LN3@Grow
  00030	83 fe 10	 cmp	 esi, 16			; 00000010H
  00033	73 12		 jae	 SHORT $LN3@Grow

; 1965 : 			_Tidy(true,	// copy and deallocate if trimming to small string
; 1966 : 				_Newsize < this->_Mysize ? _Newsize : this->_Mysize);

  00035	8b 41 10	 mov	 eax, DWORD PTR [ecx+16]
  00038	3b f0		 cmp	 esi, eax
  0003a	0f 42 c6	 cmovb	 eax, esi
  0003d	50		 push	 eax
  0003e	6a 01		 push	 1
  00040	e8 00 00 00 00	 call	 ?_Tidy@?$basic_string@DU?$char_traits@D@std@@V?$allocator@D@2@@std@@QAEX_NI@Z ; std::basic_string<char,std::char_traits<char>,std::allocator<char> >::_Tidy
  00045	eb 10		 jmp	 SHORT $LN28@Grow
$LN3@Grow:

; 1967 : 		else if (_Newsize == 0)

  00047	3b f2		 cmp	 esi, edx
  00049	75 0c		 jne	 SHORT $LN28@Grow

; 1968 : 			_Eos(0);	// new size is zero, just null terminate

  0004b	89 51 10	 mov	 DWORD PTR [ecx+16], edx
  0004e	83 f8 10	 cmp	 eax, 16			; 00000010H
  00051	72 02		 jb	 SHORT $LN26@Grow
  00053	8b 09		 mov	 ecx, DWORD PTR [ecx]
$LN26@Grow:
  00055	88 11		 mov	 BYTE PTR [ecx], dl
$LN28@Grow:

; 1969 : 		return (0 < _Newsize);	// return true only if more work to do

  00057	33 c0		 xor	 eax, eax
  00059	3b c6		 cmp	 eax, esi
  0005b	1b c0		 sbb	 eax, eax
  0005d	f7 d8		 neg	 eax
  0005f	5e		 pop	 esi

; 1970 : 		}

  00060	5d		 pop	 ebp
  00061	c2 08 00	 ret	 8
$LN30@Grow:
?_Grow@?$basic_string@DU?$char_traits@D@std@@V?$allocator@D@2@@std@@QAE_NI_N@Z ENDP ; std::basic_string<char,std::char_traits<char>,std::allocator<char> >::_Grow
_TEXT	ENDS
PUBLIC	??_G?$basic_string@DU?$char_traits@D@std@@V?$allocator@D@2@@std@@QAEPAXI@Z ; std::basic_string<char,std::char_traits<char>,std::allocator<char> >::`scalar deleting destructor'
; Function compile flags: /Ogsp
;	COMDAT ??_G?$basic_string@DU?$char_traits@D@std@@V?$allocator@D@2@@std@@QAEPAXI@Z
_TEXT	SEGMENT
___flags$ = 8						; size = 4
??_G?$basic_string@DU?$char_traits@D@std@@V?$allocator@D@2@@std@@QAEPAXI@Z PROC ; std::basic_string<char,std::char_traits<char>,std::allocator<char> >::`scalar deleting destructor', COMDAT
; _this$ = ecx
  00000	55		 push	 ebp
  00001	8b ec		 mov	 ebp, esp
  00003	56		 push	 esi
  00004	6a 00		 push	 0
  00006	6a 01		 push	 1
  00008	8b f1		 mov	 esi, ecx
  0000a	e8 00 00 00 00	 call	 ?_Tidy@?$basic_string@DU?$char_traits@D@std@@V?$allocator@D@2@@std@@QAEX_NI@Z ; std::basic_string<char,std::char_traits<char>,std::allocator<char> >::_Tidy
  0000f	f6 45 08 01	 test	 BYTE PTR ___flags$[ebp], 1
  00013	74 07		 je	 SHORT $LN1@scalar@9
  00015	56		 push	 esi
  00016	e8 00 00 00 00	 call	 ??3@YAXPAX@Z		; operator delete
  0001b	59		 pop	 ecx
$LN1@scalar@9:
  0001c	8b c6		 mov	 eax, esi
  0001e	5e		 pop	 esi
  0001f	5d		 pop	 ebp
  00020	c2 04 00	 ret	 4
??_G?$basic_string@DU?$char_traits@D@std@@V?$allocator@D@2@@std@@QAEPAXI@Z ENDP ; std::basic_string<char,std::char_traits<char>,std::allocator<char> >::`scalar deleting destructor'
_TEXT	ENDS
PUBLIC	?assign@?$basic_string@DU?$char_traits@D@std@@V?$allocator@D@2@@std@@QAEAAV12@ABV12@II@Z ; std::basic_string<char,std::char_traits<char>,std::allocator<char> >::assign
; Function compile flags: /Ogsp
;	COMDAT ?assign@?$basic_string@DU?$char_traits@D@std@@V?$allocator@D@2@@std@@QAEAAV12@ABV12@II@Z
_TEXT	SEGMENT
__Right$ = 8						; size = 4
__Roff$ = 12						; size = 4
__Count$ = 16						; size = 4
?assign@?$basic_string@DU?$char_traits@D@std@@V?$allocator@D@2@@std@@QAEAAV12@ABV12@II@Z PROC ; std::basic_string<char,std::char_traits<char>,std::allocator<char> >::assign, COMDAT
; _this$ = ecx

; 893  : 		{	// assign _Right [_Roff, _Roff + _Count)

  00000	55		 push	 ebp
  00001	8b ec		 mov	 ebp, esp
  00003	53		 push	 ebx

; 894  : 		if (_Right.size() < _Roff)

  00004	8b 5d 08	 mov	 ebx, DWORD PTR __Right$[ebp]
  00007	8b 43 10	 mov	 eax, DWORD PTR [ebx+16]
  0000a	56		 push	 esi
  0000b	8b f1		 mov	 esi, ecx
  0000d	8b 4d 0c	 mov	 ecx, DWORD PTR __Roff$[ebp]
  00010	57		 push	 edi
  00011	3b c1		 cmp	 eax, ecx
  00013	73 0b		 jae	 SHORT $LN5@assign

; 895  : 			_Xran();	// _Roff off end

  00015	68 00 00 00 00	 push	 OFFSET ??_C@_0BI@CFPLBAOH@invalid?5string?5position?$AA@
  0001a	ff 15 00 00 00
	00		 call	 DWORD PTR __imp_?_Xout_of_range@std@@YAXPBD@Z
$LN34@assign:
$LN5@assign:

; 896  : 		size_type _Num = _Right.size() - _Roff;

  00020	2b c1		 sub	 eax, ecx
  00022	8b f8		 mov	 edi, eax

; 897  : 		if (_Count < _Num)

  00024	39 7d 10	 cmp	 DWORD PTR __Count$[ebp], edi

; 898  : 			_Num = _Count;	// trim _Num to size

  00027	0f 42 7d 10	 cmovb	 edi, DWORD PTR __Count$[ebp]

; 899  : 
; 900  : 		if (this == &_Right)

  0002b	3b f3		 cmp	 esi, ebx
  0002d	75 1a		 jne	 SHORT $LN3@assign

; 901  : 			erase((size_type)(_Roff + _Num)), erase(0, _Roff);	// substring

  0002f	03 f9		 add	 edi, ecx
  00031	6a ff		 push	 -1
  00033	57		 push	 edi
  00034	8b ce		 mov	 ecx, esi
  00036	e8 00 00 00 00	 call	 ?erase@?$basic_string@DU?$char_traits@D@std@@V?$allocator@D@2@@std@@QAEAAV12@II@Z ; std::basic_string<char,std::char_traits<char>,std::allocator<char> >::erase
  0003b	ff 75 0c	 push	 DWORD PTR __Roff$[ebp]
  0003e	8b ce		 mov	 ecx, esi
  00040	6a 00		 push	 0
  00042	e8 00 00 00 00	 call	 ?erase@?$basic_string@DU?$char_traits@D@std@@V?$allocator@D@2@@std@@QAEAAV12@II@Z ; std::basic_string<char,std::char_traits<char>,std::allocator<char> >::erase
  00047	eb 47		 jmp	 SHORT $LN31@assign
$LN3@assign:

; 902  : 		else if (_Grow(_Num))

  00049	6a 00		 push	 0
  0004b	57		 push	 edi
  0004c	8b ce		 mov	 ecx, esi
  0004e	e8 00 00 00 00	 call	 ?_Grow@?$basic_string@DU?$char_traits@D@std@@V?$allocator@D@2@@std@@QAE_NI_N@Z ; std::basic_string<char,std::char_traits<char>,std::allocator<char> >::_Grow
  00053	84 c0		 test	 al, al
  00055	74 39		 je	 SHORT $LN31@assign

; 903  : 			{	// make room and assign new stuff
; 904  : 			_Traits::copy(_Myptr(), _Right._Myptr() + _Roff, _Num);

  00057	83 7b 14 10	 cmp	 DWORD PTR [ebx+20], 16	; 00000010H
  0005b	72 04		 jb	 SHORT $LN17@assign
  0005d	8b 03		 mov	 eax, DWORD PTR [ebx]
  0005f	eb 02		 jmp	 SHORT $LN18@assign
$LN17@assign:
  00061	8b c3		 mov	 eax, ebx
$LN18@assign:
  00063	83 7e 14 10	 cmp	 DWORD PTR [esi+20], 16	; 00000010H
  00067	72 04		 jb	 SHORT $LN21@assign
  00069	8b 0e		 mov	 ecx, DWORD PTR [esi]
  0006b	eb 02		 jmp	 SHORT $LN22@assign
$LN21@assign:
  0006d	8b ce		 mov	 ecx, esi
$LN22@assign:
  0006f	03 45 0c	 add	 eax, DWORD PTR __Roff$[ebp]
  00072	57		 push	 edi
  00073	50		 push	 eax
  00074	51		 push	 ecx
  00075	e8 00 00 00 00	 call	 _memcpy
  0007a	83 c4 0c	 add	 esp, 12			; 0000000cH

; 905  : 			_Eos(_Num);

  0007d	83 7e 14 10	 cmp	 DWORD PTR [esi+20], 16	; 00000010H
  00081	89 7e 10	 mov	 DWORD PTR [esi+16], edi
  00084	72 04		 jb	 SHORT $LN29@assign
  00086	8b 06		 mov	 eax, DWORD PTR [esi]
  00088	eb 02		 jmp	 SHORT $LN30@assign
$LN29@assign:
  0008a	8b c6		 mov	 eax, esi
$LN30@assign:
  0008c	c6 04 38 00	 mov	 BYTE PTR [eax+edi], 0
$LN31@assign:

; 906  : 			}
; 907  : 		return (*this);

  00090	5f		 pop	 edi
  00091	8b c6		 mov	 eax, esi
  00093	5e		 pop	 esi
  00094	5b		 pop	 ebx

; 908  : 		}

  00095	5d		 pop	 ebp
  00096	c2 0c 00	 ret	 12			; 0000000cH
$LN33@assign:
?assign@?$basic_string@DU?$char_traits@D@std@@V?$allocator@D@2@@std@@QAEAAV12@ABV12@II@Z ENDP ; std::basic_string<char,std::char_traits<char>,std::allocator<char> >::assign
_TEXT	ENDS
PUBLIC	?assign@?$basic_string@DU?$char_traits@D@std@@V?$allocator@D@2@@std@@QAEAAV12@PBDI@Z ; std::basic_string<char,std::char_traits<char>,std::allocator<char> >::assign
; Function compile flags: /Ogsp
;	COMDAT ?assign@?$basic_string@DU?$char_traits@D@std@@V?$allocator@D@2@@std@@QAEAAV12@PBDI@Z
_TEXT	SEGMENT
__Ptr$ = 8						; size = 4
__Count$ = 12						; size = 4
?assign@?$basic_string@DU?$char_traits@D@std@@V?$allocator@D@2@@std@@QAEAAV12@PBDI@Z PROC ; std::basic_string<char,std::char_traits<char>,std::allocator<char> >::assign, COMDAT
; _this$ = ecx

; 911  : 		{	// assign [_Ptr, _Ptr + _Count)

  00000	55		 push	 ebp
  00001	8b ec		 mov	 ebp, esp
  00003	53		 push	 ebx

; 912  :  #if _ITERATOR_DEBUG_LEVEL == 2
; 913  : 		if (_Count != 0)
; 914  : 			_DEBUG_POINTER(_Ptr);
; 915  :  #endif /* _ITERATOR_DEBUG_LEVEL == 2 */
; 916  : 
; 917  : 		if (_Inside(_Ptr))

  00004	8b 5d 08	 mov	 ebx, DWORD PTR __Ptr$[ebp]
  00007	56		 push	 esi
  00008	53		 push	 ebx
  00009	8b f1		 mov	 esi, ecx
  0000b	e8 00 00 00 00	 call	 ?_Inside@?$basic_string@DU?$char_traits@D@std@@V?$allocator@D@2@@std@@QAE_NPBD@Z ; std::basic_string<char,std::char_traits<char>,std::allocator<char> >::_Inside
  00010	84 c0		 test	 al, al
  00012	74 1c		 je	 SHORT $LN2@assign@2

; 918  : 			return (assign(*this, _Ptr - _Myptr(), _Count));	// substring

  00014	83 7e 14 10	 cmp	 DWORD PTR [esi+20], 16	; 00000010H
  00018	72 04		 jb	 SHORT $LN7@assign@2
  0001a	8b 06		 mov	 eax, DWORD PTR [esi]
  0001c	eb 02		 jmp	 SHORT $LN8@assign@2
$LN7@assign@2:
  0001e	8b c6		 mov	 eax, esi
$LN8@assign@2:
  00020	ff 75 0c	 push	 DWORD PTR __Count$[ebp]
  00023	2b d8		 sub	 ebx, eax
  00025	53		 push	 ebx
  00026	56		 push	 esi
  00027	8b ce		 mov	 ecx, esi
  00029	e8 00 00 00 00	 call	 ?assign@?$basic_string@DU?$char_traits@D@std@@V?$allocator@D@2@@std@@QAEAAV12@ABV12@II@Z ; std::basic_string<char,std::char_traits<char>,std::allocator<char> >::assign
  0002e	eb 3f		 jmp	 SHORT $LN3@assign@2
$LN2@assign@2:
  00030	57		 push	 edi

; 919  : 
; 920  : 		if (_Grow(_Count))

  00031	8b 7d 0c	 mov	 edi, DWORD PTR __Count$[ebp]
  00034	6a 00		 push	 0
  00036	57		 push	 edi
  00037	8b ce		 mov	 ecx, esi
  00039	e8 00 00 00 00	 call	 ?_Grow@?$basic_string@DU?$char_traits@D@std@@V?$allocator@D@2@@std@@QAE_NI_N@Z ; std::basic_string<char,std::char_traits<char>,std::allocator<char> >::_Grow
  0003e	84 c0		 test	 al, al
  00040	74 2a		 je	 SHORT $LN21@assign@2

; 921  : 			{	// make room and assign new stuff
; 922  : 			_Traits::copy(_Myptr(), _Ptr, _Count);

  00042	83 7e 14 10	 cmp	 DWORD PTR [esi+20], 16	; 00000010H
  00046	72 04		 jb	 SHORT $LN11@assign@2
  00048	8b 06		 mov	 eax, DWORD PTR [esi]
  0004a	eb 02		 jmp	 SHORT $LN12@assign@2
$LN11@assign@2:
  0004c	8b c6		 mov	 eax, esi
$LN12@assign@2:
  0004e	57		 push	 edi
  0004f	53		 push	 ebx
  00050	50		 push	 eax
  00051	e8 00 00 00 00	 call	 _memcpy
  00056	83 c4 0c	 add	 esp, 12			; 0000000cH

; 923  : 			_Eos(_Count);

  00059	83 7e 14 10	 cmp	 DWORD PTR [esi+20], 16	; 00000010H
  0005d	89 7e 10	 mov	 DWORD PTR [esi+16], edi
  00060	72 04		 jb	 SHORT $LN19@assign@2
  00062	8b 06		 mov	 eax, DWORD PTR [esi]
  00064	eb 02		 jmp	 SHORT $LN20@assign@2
$LN19@assign@2:
  00066	8b c6		 mov	 eax, esi
$LN20@assign@2:
  00068	c6 04 38 00	 mov	 BYTE PTR [eax+edi], 0
$LN21@assign@2:

; 924  : 			}
; 925  : 		return (*this);

  0006c	8b c6		 mov	 eax, esi
  0006e	5f		 pop	 edi
$LN3@assign@2:
  0006f	5e		 pop	 esi
  00070	5b		 pop	 ebx

; 926  : 		}

  00071	5d		 pop	 ebp
  00072	c2 08 00	 ret	 8
?assign@?$basic_string@DU?$char_traits@D@std@@V?$allocator@D@2@@std@@QAEAAV12@PBDI@Z ENDP ; std::basic_string<char,std::char_traits<char>,std::allocator<char> >::assign
_TEXT	ENDS
PUBLIC	??$_Destroy@V?$basic_string@DU?$char_traits@D@std@@V?$allocator@D@2@@std@@@std@@YAXPAV?$basic_string@DU?$char_traits@D@std@@V?$allocator@D@2@@0@@Z ; std::_Destroy<std::basic_string<char,std::char_traits<char>,std::allocator<char> > >
; Function compile flags: /Ogsp
; File c:\program files (x86)\microsoft visual studio 10.0\vc\include\xmemory
;	COMDAT ??$_Destroy@V?$basic_string@DU?$char_traits@D@std@@V?$allocator@D@2@@std@@@std@@YAXPAV?$basic_string@DU?$char_traits@D@std@@V?$allocator@D@2@@0@@Z
_TEXT	SEGMENT
__Ptr$ = 8						; size = 4
??$_Destroy@V?$basic_string@DU?$char_traits@D@std@@V?$allocator@D@2@@std@@@std@@YAXPAV?$basic_string@DU?$char_traits@D@std@@V?$allocator@D@2@@0@@Z PROC ; std::_Destroy<std::basic_string<char,std::char_traits<char>,std::allocator<char> > >, COMDAT

; 62   : 	{	// destroy object at _Ptr

  00000	55		 push	 ebp
  00001	8b ec		 mov	 ebp, esp

; 63   : 	_Ptr->~_Ty();

  00003	8b 4d 08	 mov	 ecx, DWORD PTR __Ptr$[ebp]
  00006	6a 00		 push	 0
  00008	6a 01		 push	 1
  0000a	e8 00 00 00 00	 call	 ?_Tidy@?$basic_string@DU?$char_traits@D@std@@V?$allocator@D@2@@std@@QAEX_NI@Z ; std::basic_string<char,std::char_traits<char>,std::allocator<char> >::_Tidy

; 64   : 	}

  0000f	5d		 pop	 ebp
  00010	c3		 ret	 0
??$_Destroy@V?$basic_string@DU?$char_traits@D@std@@V?$allocator@D@2@@std@@@std@@YAXPAV?$basic_string@DU?$char_traits@D@std@@V?$allocator@D@2@@0@@Z ENDP ; std::_Destroy<std::basic_string<char,std::char_traits<char>,std::allocator<char> > >
_TEXT	ENDS
PUBLIC	?assign@?$basic_string@DU?$char_traits@D@std@@V?$allocator@D@2@@std@@QAEAAV12@ABV12@@Z ; std::basic_string<char,std::char_traits<char>,std::allocator<char> >::assign
; Function compile flags: /Ogsp
; File c:\program files (x86)\microsoft visual studio 10.0\vc\include\xstring
;	COMDAT ?assign@?$basic_string@DU?$char_traits@D@std@@V?$allocator@D@2@@std@@QAEAAV12@ABV12@@Z
_TEXT	SEGMENT
__Right$ = 8						; size = 4
?assign@?$basic_string@DU?$char_traits@D@std@@V?$allocator@D@2@@std@@QAEAAV12@ABV12@@Z PROC ; std::basic_string<char,std::char_traits<char>,std::allocator<char> >::assign, COMDAT
; _this$ = ecx

; 887  : 		{	// assign _Right

  00000	55		 push	 ebp
  00001	8b ec		 mov	 ebp, esp

; 888  : 		return (assign(_Right, 0, npos));

  00003	6a ff		 push	 -1
  00005	6a 00		 push	 0
  00007	ff 75 08	 push	 DWORD PTR __Right$[ebp]
  0000a	e8 00 00 00 00	 call	 ?assign@?$basic_string@DU?$char_traits@D@std@@V?$allocator@D@2@@std@@QAEAAV12@ABV12@II@Z ; std::basic_string<char,std::char_traits<char>,std::allocator<char> >::assign

; 889  : 		}

  0000f	5d		 pop	 ebp
  00010	c2 04 00	 ret	 4
?assign@?$basic_string@DU?$char_traits@D@std@@V?$allocator@D@2@@std@@QAEAAV12@ABV12@@Z ENDP ; std::basic_string<char,std::char_traits<char>,std::allocator<char> >::assign
_TEXT	ENDS
PUBLIC	?assign@?$basic_string@DU?$char_traits@D@std@@V?$allocator@D@2@@std@@QAEAAV12@PBD@Z ; std::basic_string<char,std::char_traits<char>,std::allocator<char> >::assign
; Function compile flags: /Ogsp
;	COMDAT ?assign@?$basic_string@DU?$char_traits@D@std@@V?$allocator@D@2@@std@@QAEAAV12@PBD@Z
_TEXT	SEGMENT
__Ptr$ = 8						; size = 4
?assign@?$basic_string@DU?$char_traits@D@std@@V?$allocator@D@2@@std@@QAEAAV12@PBD@Z PROC ; std::basic_string<char,std::char_traits<char>,std::allocator<char> >::assign, COMDAT
; _this$ = ecx

; 929  : 		{	// assign [_Ptr, <null>)

  00000	55		 push	 ebp
  00001	8b ec		 mov	 ebp, esp

; 930  : 		_DEBUG_POINTER(_Ptr);
; 931  : 		return (assign(_Ptr, _Traits::length(_Ptr)));

  00003	8b 45 08	 mov	 eax, DWORD PTR __Ptr$[ebp]
  00006	8d 50 01	 lea	 edx, DWORD PTR [eax+1]
  00009	53		 push	 ebx
$LL5@assign@3:
  0000a	8a 18		 mov	 bl, BYTE PTR [eax]
  0000c	40		 inc	 eax
  0000d	84 db		 test	 bl, bl
  0000f	75 f9		 jne	 SHORT $LL5@assign@3
  00011	2b c2		 sub	 eax, edx
  00013	50		 push	 eax
  00014	ff 75 08	 push	 DWORD PTR __Ptr$[ebp]
  00017	e8 00 00 00 00	 call	 ?assign@?$basic_string@DU?$char_traits@D@std@@V?$allocator@D@2@@std@@QAEAAV12@PBDI@Z ; std::basic_string<char,std::char_traits<char>,std::allocator<char> >::assign
  0001c	5b		 pop	 ebx

; 932  : 		}

  0001d	5d		 pop	 ebp
  0001e	c2 04 00	 ret	 4
?assign@?$basic_string@DU?$char_traits@D@std@@V?$allocator@D@2@@std@@QAEAAV12@PBD@Z ENDP ; std::basic_string<char,std::char_traits<char>,std::allocator<char> >::assign
_TEXT	ENDS
PUBLIC	?destroy@?$allocator@V?$basic_string@DU?$char_traits@D@std@@V?$allocator@D@2@@std@@@std@@QAEXPAV?$basic_string@DU?$char_traits@D@std@@V?$allocator@D@2@@2@@Z ; std::allocator<std::basic_string<char,std::char_traits<char>,std::allocator<char> > >::destroy
; Function compile flags: /Ogsp
; File c:\program files (x86)\microsoft visual studio 10.0\vc\include\xmemory
;	COMDAT ?destroy@?$allocator@V?$basic_string@DU?$char_traits@D@std@@V?$allocator@D@2@@std@@@std@@QAEXPAV?$basic_string@DU?$char_traits@D@std@@V?$allocator@D@2@@2@@Z
_TEXT	SEGMENT
__Ptr$ = 8						; size = 4
?destroy@?$allocator@V?$basic_string@DU?$char_traits@D@std@@V?$allocator@D@2@@std@@@std@@QAEXPAV?$basic_string@DU?$char_traits@D@std@@V?$allocator@D@2@@2@@Z PROC ; std::allocator<std::basic_string<char,std::char_traits<char>,std::allocator<char> > >::destroy, COMDAT
; _this$ = ecx

; 212  : 		{	// destroy object at _Ptr

  00000	55		 push	 ebp
  00001	8b ec		 mov	 ebp, esp

; 213  : 		_Destroy(_Ptr);

  00003	8b 4d 08	 mov	 ecx, DWORD PTR __Ptr$[ebp]
  00006	6a 00		 push	 0
  00008	6a 01		 push	 1
  0000a	e8 00 00 00 00	 call	 ?_Tidy@?$basic_string@DU?$char_traits@D@std@@V?$allocator@D@2@@std@@QAEX_NI@Z ; std::basic_string<char,std::char_traits<char>,std::allocator<char> >::_Tidy

; 214  : 		}

  0000f	5d		 pop	 ebp
  00010	c2 04 00	 ret	 4
?destroy@?$allocator@V?$basic_string@DU?$char_traits@D@std@@V?$allocator@D@2@@std@@@std@@QAEXPAV?$basic_string@DU?$char_traits@D@std@@V?$allocator@D@2@@2@@Z ENDP ; std::allocator<std::basic_string<char,std::char_traits<char>,std::allocator<char> > >::destroy
_TEXT	ENDS
PUBLIC	??0?$basic_string@DU?$char_traits@D@std@@V?$allocator@D@2@@std@@QAE@PBD@Z ; std::basic_string<char,std::char_traits<char>,std::allocator<char> >::basic_string<char,std::char_traits<char>,std::allocator<char> >
; Function compile flags: /Ogsp
; File c:\program files (x86)\microsoft visual studio 10.0\vc\include\xstring
;	COMDAT ??0?$basic_string@DU?$char_traits@D@std@@V?$allocator@D@2@@std@@QAE@PBD@Z
_TEXT	SEGMENT
__Ptr$ = 8						; size = 4
??0?$basic_string@DU?$char_traits@D@std@@V?$allocator@D@2@@std@@QAE@PBD@Z PROC ; std::basic_string<char,std::char_traits<char>,std::allocator<char> >::basic_string<char,std::char_traits<char>,std::allocator<char> >, COMDAT
; _this$ = ecx

; 592  : 		{	// construct from [_Ptr, <null>)

  00000	55		 push	 ebp
  00001	8b ec		 mov	 ebp, esp
  00003	56		 push	 esi

; 593  : 		_Tidy();
; 594  : 		assign(_Ptr);

  00004	ff 75 08	 push	 DWORD PTR __Ptr$[ebp]
  00007	8b f1		 mov	 esi, ecx
  00009	83 66 10 00	 and	 DWORD PTR [esi+16], 0
  0000d	c7 46 14 0f 00
	00 00		 mov	 DWORD PTR [esi+20], 15	; 0000000fH
  00014	c6 06 00	 mov	 BYTE PTR [esi], 0
  00017	e8 00 00 00 00	 call	 ?assign@?$basic_string@DU?$char_traits@D@std@@V?$allocator@D@2@@std@@QAEAAV12@PBD@Z ; std::basic_string<char,std::char_traits<char>,std::allocator<char> >::assign

; 595  : 		}

  0001c	8b c6		 mov	 eax, esi
  0001e	5e		 pop	 esi
  0001f	5d		 pop	 ebp
  00020	c2 04 00	 ret	 4
??0?$basic_string@DU?$char_traits@D@std@@V?$allocator@D@2@@std@@QAE@PBD@Z ENDP ; std::basic_string<char,std::char_traits<char>,std::allocator<char> >::basic_string<char,std::char_traits<char>,std::allocator<char> >
_TEXT	ENDS
PUBLIC	??4?$basic_string@DU?$char_traits@D@std@@V?$allocator@D@2@@std@@QAEAAV01@ABV01@@Z ; std::basic_string<char,std::char_traits<char>,std::allocator<char> >::operator=
; Function compile flags: /Ogsp
;	COMDAT ??4?$basic_string@DU?$char_traits@D@std@@V?$allocator@D@2@@std@@QAEAAV01@ABV01@@Z
_TEXT	SEGMENT
__Right$ = 8						; size = 4
??4?$basic_string@DU?$char_traits@D@std@@V?$allocator@D@2@@std@@QAEAAV01@ABV01@@Z PROC ; std::basic_string<char,std::char_traits<char>,std::allocator<char> >::operator=, COMDAT
; _this$ = ecx

; 763  : 		{	// assign _Right

  00000	55		 push	 ebp
  00001	8b ec		 mov	 ebp, esp

; 764  : 		return (assign(_Right));

  00003	6a ff		 push	 -1
  00005	6a 00		 push	 0
  00007	ff 75 08	 push	 DWORD PTR __Right$[ebp]
  0000a	e8 00 00 00 00	 call	 ?assign@?$basic_string@DU?$char_traits@D@std@@V?$allocator@D@2@@std@@QAEAAV12@ABV12@II@Z ; std::basic_string<char,std::char_traits<char>,std::allocator<char> >::assign

; 765  : 		}

  0000f	5d		 pop	 ebp
  00010	c2 04 00	 ret	 4
??4?$basic_string@DU?$char_traits@D@std@@V?$allocator@D@2@@std@@QAEAAV01@ABV01@@Z ENDP ; std::basic_string<char,std::char_traits<char>,std::allocator<char> >::operator=
_TEXT	ENDS
PUBLIC	?assign@?$basic_string@DU?$char_traits@D@std@@V?$allocator@D@2@@std@@QAEAAV12@$$QAV12@@Z ; std::basic_string<char,std::char_traits<char>,std::allocator<char> >::assign
; Function compile flags: /Ogsp
;	COMDAT ?assign@?$basic_string@DU?$char_traits@D@std@@V?$allocator@D@2@@std@@QAEAAV12@$$QAV12@@Z
_TEXT	SEGMENT
__Right$ = 8						; size = 4
?assign@?$basic_string@DU?$char_traits@D@std@@V?$allocator@D@2@@std@@QAEAAV12@$$QAV12@@Z PROC ; std::basic_string<char,std::char_traits<char>,std::allocator<char> >::assign, COMDAT
; _this$ = ecx

; 713  : 		{	// assign by moving _Right

  00000	55		 push	 ebp
  00001	8b ec		 mov	 ebp, esp
  00003	56		 push	 esi

; 714  : 		if (this == &_Right)

  00004	8b 75 08	 mov	 esi, DWORD PTR __Right$[ebp]
  00007	57		 push	 edi
  00008	8b f9		 mov	 edi, ecx
  0000a	3b fe		 cmp	 edi, esi
  0000c	74 3c		 je	 SHORT $LN3@assign@4

; 715  : 			;
; 716  : 		else if (get_allocator() != _Right.get_allocator()
; 717  : 			&& this->_BUF_SIZE <= _Right._Myres)
; 718  : 			*this = _Right;
; 719  : 		else
; 720  : 			{	// not same, clear this and steal from _Right
; 721  : 			_Tidy(true);

  0000e	6a 00		 push	 0
  00010	6a 01		 push	 1
  00012	e8 00 00 00 00	 call	 ?_Tidy@?$basic_string@DU?$char_traits@D@std@@V?$allocator@D@2@@std@@QAEX_NI@Z ; std::basic_string<char,std::char_traits<char>,std::allocator<char> >::_Tidy

; 722  : 			if (_Right._Myres < this->_BUF_SIZE)

  00017	83 7e 14 10	 cmp	 DWORD PTR [esi+20], 16	; 00000010H
  0001b	73 12		 jae	 SHORT $LN2@assign@4

; 723  : 				_Traits::move(this->_Bx._Buf, _Right._Bx._Buf,
; 724  : 					_Right._Mysize + 1);

  0001d	8b 46 10	 mov	 eax, DWORD PTR [esi+16]
  00020	40		 inc	 eax
  00021	50		 push	 eax
  00022	56		 push	 esi
  00023	57		 push	 edi
  00024	ff 15 00 00 00
	00		 call	 DWORD PTR __imp__memmove
  0002a	83 c4 0c	 add	 esp, 12			; 0000000cH

; 725  : 			else

  0002d	eb 07		 jmp	 SHORT $LN1@assign@4
$LN2@assign@4:

; 726  : 				{	// copy pointer
; 727  : 				this->_Bx._Ptr = _Right._Bx._Ptr;

  0002f	8b 06		 mov	 eax, DWORD PTR [esi]
  00031	89 07		 mov	 DWORD PTR [edi], eax

; 728  : 				_Right._Bx._Ptr = 0;

  00033	83 26 00	 and	 DWORD PTR [esi], 0
$LN1@assign@4:

; 729  : 				}
; 730  : 			this->_Mysize = _Right._Mysize;

  00036	8b 46 10	 mov	 eax, DWORD PTR [esi+16]
  00039	89 47 10	 mov	 DWORD PTR [edi+16], eax

; 731  : 			this->_Myres = _Right._Myres;

  0003c	8b 46 14	 mov	 eax, DWORD PTR [esi+20]
  0003f	89 47 14	 mov	 DWORD PTR [edi+20], eax

; 732  : 
; 733  : 			_Right._Mysize = 0;

  00042	83 66 10 00	 and	 DWORD PTR [esi+16], 0

; 734  : 			_Right._Myres = 0;

  00046	83 66 14 00	 and	 DWORD PTR [esi+20], 0
$LN3@assign@4:

; 735  : 			}
; 736  : 		return (*this);

  0004a	8b c7		 mov	 eax, edi
  0004c	5f		 pop	 edi
  0004d	5e		 pop	 esi

; 737  : 		}

  0004e	5d		 pop	 ebp
  0004f	c2 04 00	 ret	 4
?assign@?$basic_string@DU?$char_traits@D@std@@V?$allocator@D@2@@std@@QAEAAV12@$$QAV12@@Z ENDP ; std::basic_string<char,std::char_traits<char>,std::allocator<char> >::assign
_TEXT	ENDS
PUBLIC	??$_Dest_val@V?$allocator@V?$basic_string@DU?$char_traits@D@std@@V?$allocator@D@2@@std@@@std@@V?$basic_string@DU?$char_traits@D@std@@V?$allocator@D@2@@2@@std@@YAXAAV?$allocator@V?$basic_string@DU?$char_traits@D@std@@V?$allocator@D@2@@std@@@0@PAV?$basic_string@DU?$char_traits@D@std@@V?$allocator@D@2@@0@@Z ; std::_Dest_val<std::allocator<std::basic_string<char,std::char_traits<char>,std::allocator<char> > >,std::basic_string<char,std::char_traits<char>,std::allocator<char> > >
; Function compile flags: /Ogsp
; File c:\program files (x86)\microsoft visual studio 10.0\vc\include\xmemory
;	COMDAT ??$_Dest_val@V?$allocator@V?$basic_string@DU?$char_traits@D@std@@V?$allocator@D@2@@std@@@std@@V?$basic_string@DU?$char_traits@D@std@@V?$allocator@D@2@@2@@std@@YAXAAV?$allocator@V?$basic_string@DU?$char_traits@D@std@@V?$allocator@D@2@@std@@@0@PAV?$basic_string@DU?$char_traits@D@std@@V?$allocator@D@2@@0@@Z
_TEXT	SEGMENT
__Alval$ = 8						; size = 4
__Pdest$ = 12						; size = 4
??$_Dest_val@V?$allocator@V?$basic_string@DU?$char_traits@D@std@@V?$allocator@D@2@@std@@@std@@V?$basic_string@DU?$char_traits@D@std@@V?$allocator@D@2@@2@@std@@YAXAAV?$allocator@V?$basic_string@DU?$char_traits@D@std@@V?$allocator@D@2@@std@@@0@PAV?$basic_string@DU?$char_traits@D@std@@V?$allocator@D@2@@0@@Z PROC ; std::_Dest_val<std::allocator<std::basic_string<char,std::char_traits<char>,std::allocator<char> > >,std::basic_string<char,std::char_traits<char>,std::allocator<char> > >, COMDAT

; 286  : 	{	// destroy using allocator

  00000	55		 push	 ebp
  00001	8b ec		 mov	 ebp, esp

; 287  : 	_Alval.destroy(_Pdest);

  00003	8b 4d 0c	 mov	 ecx, DWORD PTR __Pdest$[ebp]
  00006	6a 00		 push	 0
  00008	6a 01		 push	 1
  0000a	e8 00 00 00 00	 call	 ?_Tidy@?$basic_string@DU?$char_traits@D@std@@V?$allocator@D@2@@std@@QAEX_NI@Z ; std::basic_string<char,std::char_traits<char>,std::allocator<char> >::_Tidy

; 288  : 	}

  0000f	5d		 pop	 ebp
  00010	c3		 ret	 0
??$_Dest_val@V?$allocator@V?$basic_string@DU?$char_traits@D@std@@V?$allocator@D@2@@std@@@std@@V?$basic_string@DU?$char_traits@D@std@@V?$allocator@D@2@@2@@std@@YAXAAV?$allocator@V?$basic_string@DU?$char_traits@D@std@@V?$allocator@D@2@@std@@@0@PAV?$basic_string@DU?$char_traits@D@std@@V?$allocator@D@2@@0@@Z ENDP ; std::_Dest_val<std::allocator<std::basic_string<char,std::char_traits<char>,std::allocator<char> > >,std::basic_string<char,std::char_traits<char>,std::allocator<char> > >
_TEXT	ENDS
PUBLIC	??0?$basic_string@DU?$char_traits@D@std@@V?$allocator@D@2@@std@@QAE@$$QAV01@@Z ; std::basic_string<char,std::char_traits<char>,std::allocator<char> >::basic_string<char,std::char_traits<char>,std::allocator<char> >
; Function compile flags: /Ogsp
; File c:\program files (x86)\microsoft visual studio 10.0\vc\include\xstring
;	COMDAT ??0?$basic_string@DU?$char_traits@D@std@@V?$allocator@D@2@@std@@QAE@$$QAV01@@Z
_TEXT	SEGMENT
__Right$ = 8						; size = 4
??0?$basic_string@DU?$char_traits@D@std@@V?$allocator@D@2@@std@@QAE@$$QAV01@@Z PROC ; std::basic_string<char,std::char_traits<char>,std::allocator<char> >::basic_string<char,std::char_traits<char>,std::allocator<char> >, COMDAT
; _this$ = ecx

; 702  : 		{	// construct by moving _Right

  00000	55		 push	 ebp
  00001	8b ec		 mov	 ebp, esp
  00003	56		 push	 esi

; 703  : 		_Tidy();
; 704  : 		assign(_STD forward<_Myt>(_Right));

  00004	ff 75 08	 push	 DWORD PTR __Right$[ebp]
  00007	8b f1		 mov	 esi, ecx
  00009	83 66 10 00	 and	 DWORD PTR [esi+16], 0
  0000d	c7 46 14 0f 00
	00 00		 mov	 DWORD PTR [esi+20], 15	; 0000000fH
  00014	c6 06 00	 mov	 BYTE PTR [esi], 0
  00017	e8 00 00 00 00	 call	 ?assign@?$basic_string@DU?$char_traits@D@std@@V?$allocator@D@2@@std@@QAEAAV12@$$QAV12@@Z ; std::basic_string<char,std::char_traits<char>,std::allocator<char> >::assign

; 705  : 		}

  0001c	8b c6		 mov	 eax, esi
  0001e	5e		 pop	 esi
  0001f	5d		 pop	 ebp
  00020	c2 04 00	 ret	 4
??0?$basic_string@DU?$char_traits@D@std@@V?$allocator@D@2@@std@@QAE@$$QAV01@@Z ENDP ; std::basic_string<char,std::char_traits<char>,std::allocator<char> >::basic_string<char,std::char_traits<char>,std::allocator<char> >
_TEXT	ENDS
PUBLIC	??$_Destroy_range@V?$allocator@V?$basic_string@DU?$char_traits@D@std@@V?$allocator@D@2@@std@@@std@@@std@@YAXPAV?$basic_string@DU?$char_traits@D@std@@V?$allocator@D@2@@0@0AAV?$allocator@V?$basic_string@DU?$char_traits@D@std@@V?$allocator@D@2@@std@@@0@U_Nonscalar_ptr_iterator_tag@0@@Z ; std::_Destroy_range<std::allocator<std::basic_string<char,std::char_traits<char>,std::allocator<char> > > >
; Function compile flags: /Ogsp
; File c:\program files (x86)\microsoft visual studio 10.0\vc\include\xmemory
;	COMDAT ??$_Destroy_range@V?$allocator@V?$basic_string@DU?$char_traits@D@std@@V?$allocator@D@2@@std@@@std@@@std@@YAXPAV?$basic_string@DU?$char_traits@D@std@@V?$allocator@D@2@@0@0AAV?$allocator@V?$basic_string@DU?$char_traits@D@std@@V?$allocator@D@2@@std@@@0@U_Nonscalar_ptr_iterator_tag@0@@Z
_TEXT	SEGMENT
__First$ = 8						; size = 4
__Last$ = 12						; size = 4
__Al$ = 16						; size = 4
___formal$ = 20						; size = 1
??$_Destroy_range@V?$allocator@V?$basic_string@DU?$char_traits@D@std@@V?$allocator@D@2@@std@@@std@@@std@@YAXPAV?$basic_string@DU?$char_traits@D@std@@V?$allocator@D@2@@0@0AAV?$allocator@V?$basic_string@DU?$char_traits@D@std@@V?$allocator@D@2@@std@@@0@U_Nonscalar_ptr_iterator_tag@0@@Z PROC ; std::_Destroy_range<std::allocator<std::basic_string<char,std::char_traits<char>,std::allocator<char> > > >, COMDAT

; 95   : 	{	// destroy [_First, _Last), arbitrary type

  00000	55		 push	 ebp
  00001	8b ec		 mov	 ebp, esp
  00003	56		 push	 esi

; 96   : 	for (; _First != _Last; ++_First)

  00004	8b 75 08	 mov	 esi, DWORD PTR __First$[ebp]
  00007	eb 0e		 jmp	 SHORT $LN21@Destroy_ra
$LL3@Destroy_ra:

; 97   : 		_Dest_val(_Al, _First);

  00009	6a 00		 push	 0
  0000b	6a 01		 push	 1
  0000d	8b ce		 mov	 ecx, esi
  0000f	e8 00 00 00 00	 call	 ?_Tidy@?$basic_string@DU?$char_traits@D@std@@V?$allocator@D@2@@std@@QAEX_NI@Z ; std::basic_string<char,std::char_traits<char>,std::allocator<char> >::_Tidy
  00014	83 c6 1c	 add	 esi, 28			; 0000001cH
$LN21@Destroy_ra:

; 96   : 	for (; _First != _Last; ++_First)

  00017	3b 75 0c	 cmp	 esi, DWORD PTR __Last$[ebp]
  0001a	75 ed		 jne	 SHORT $LL3@Destroy_ra
  0001c	5e		 pop	 esi

; 98   : 	}

  0001d	5d		 pop	 ebp
  0001e	c3		 ret	 0
??$_Destroy_range@V?$allocator@V?$basic_string@DU?$char_traits@D@std@@V?$allocator@D@2@@std@@@std@@@std@@YAXPAV?$basic_string@DU?$char_traits@D@std@@V?$allocator@D@2@@0@0AAV?$allocator@V?$basic_string@DU?$char_traits@D@std@@V?$allocator@D@2@@std@@@0@U_Nonscalar_ptr_iterator_tag@0@@Z ENDP ; std::_Destroy_range<std::allocator<std::basic_string<char,std::char_traits<char>,std::allocator<char> > > >
_TEXT	ENDS
PUBLIC	?construct@?$allocator@V?$basic_string@DU?$char_traits@D@std@@V?$allocator@D@2@@std@@@std@@QAEXPAV?$basic_string@DU?$char_traits@D@std@@V?$allocator@D@2@@2@$$QAV32@@Z ; std::allocator<std::basic_string<char,std::char_traits<char>,std::allocator<char> > >::construct
;	COMDAT xdata$x
; File c:\program files (x86)\microsoft visual studio 10.0\vc\include\utility
xdata$x	SEGMENT
__unwindtable$?construct@?$allocator@V?$basic_string@DU?$char_traits@D@std@@V?$allocator@D@2@@std@@@std@@QAEXPAV?$basic_string@DU?$char_traits@D@std@@V?$allocator@D@2@@2@$$QAV32@@Z DD 0ffffffffH
	DD	FLAT:__unwindfunclet$?construct@?$allocator@V?$basic_string@DU?$char_traits@D@std@@V?$allocator@D@2@@std@@@std@@QAEXPAV?$basic_string@DU?$char_traits@D@std@@V?$allocator@D@2@@2@$$QAV32@@Z$0
__ehfuncinfo$?construct@?$allocator@V?$basic_string@DU?$char_traits@D@std@@V?$allocator@D@2@@std@@@std@@QAEXPAV?$basic_string@DU?$char_traits@D@std@@V?$allocator@D@2@@2@$$QAV32@@Z DD 019930522H
	DD	01H
	DD	FLAT:__unwindtable$?construct@?$allocator@V?$basic_string@DU?$char_traits@D@std@@V?$allocator@D@2@@std@@@std@@QAEXPAV?$basic_string@DU?$char_traits@D@std@@V?$allocator@D@2@@2@$$QAV32@@Z
	DD	2 DUP(00H)
	DD	2 DUP(00H)
	DD	00H
	DD	01H
; Function compile flags: /Ogsp
; File c:\program files (x86)\microsoft visual studio 10.0\vc\include\xmemory
xdata$x	ENDS
;	COMDAT ?construct@?$allocator@V?$basic_string@DU?$char_traits@D@std@@V?$allocator@D@2@@std@@@std@@QAEXPAV?$basic_string@DU?$char_traits@D@std@@V?$allocator@D@2@@2@$$QAV32@@Z
_TEXT	SEGMENT
$T540621 = -16						; size = 4
__$EHRec$ = -12						; size = 12
__Ptr$ = 8						; size = 4
__Val$ = 12						; size = 4
?construct@?$allocator@V?$basic_string@DU?$char_traits@D@std@@V?$allocator@D@2@@std@@@std@@QAEXPAV?$basic_string@DU?$char_traits@D@std@@V?$allocator@D@2@@2@$$QAV32@@Z PROC ; std::allocator<std::basic_string<char,std::char_traits<char>,std::allocator<char> > >::construct, COMDAT
; _this$ = ecx

; 201  : 		{	// construct object at _Ptr with value _Val

  00000	6a 04		 push	 4
  00002	b8 00 00 00 00	 mov	 eax, __ehhandler$?construct@?$allocator@V?$basic_string@DU?$char_traits@D@std@@V?$allocator@D@2@@std@@@std@@QAEXPAV?$basic_string@DU?$char_traits@D@std@@V?$allocator@D@2@@2@$$QAV32@@Z
  00007	e8 00 00 00 00	 call	 __EH_prolog3

; 202  : 		::new ((void _FARQ *)_Ptr) _Ty(_STD forward<_Ty>(_Val));

  0000c	8b 4d 08	 mov	 ecx, DWORD PTR __Ptr$[ebp]
  0000f	89 4d f0	 mov	 DWORD PTR $T540621[ebp], ecx
  00012	83 65 fc 00	 and	 DWORD PTR __$EHRec$[ebp+8], 0
  00016	85 c9		 test	 ecx, ecx
  00018	74 08		 je	 SHORT $LN3@construct
  0001a	ff 75 0c	 push	 DWORD PTR __Val$[ebp]
  0001d	e8 00 00 00 00	 call	 ??0?$basic_string@DU?$char_traits@D@std@@V?$allocator@D@2@@std@@QAE@$$QAV01@@Z ; std::basic_string<char,std::char_traits<char>,std::allocator<char> >::basic_string<char,std::char_traits<char>,std::allocator<char> >
$LN3@construct:

; 203  : 		}

  00022	e8 00 00 00 00	 call	 __EH_epilog3
  00027	c2 08 00	 ret	 8
_TEXT	ENDS
;	COMDAT text$x
text$x	SEGMENT
__unwindfunclet$?construct@?$allocator@V?$basic_string@DU?$char_traits@D@std@@V?$allocator@D@2@@std@@@std@@QAEXPAV?$basic_string@DU?$char_traits@D@std@@V?$allocator@D@2@@2@$$QAV32@@Z$0:
  00000	ff 75 08	 push	 DWORD PTR __Ptr$[ebp]
  00003	ff 75 f0	 push	 DWORD PTR $T540621[ebp]
  00006	e8 00 00 00 00	 call	 ??3@YAXPAX0@Z		; operator delete
  0000b	59		 pop	 ecx
  0000c	59		 pop	 ecx
  0000d	c3		 ret	 0
__ehhandler$?construct@?$allocator@V?$basic_string@DU?$char_traits@D@std@@V?$allocator@D@2@@std@@@std@@QAEXPAV?$basic_string@DU?$char_traits@D@std@@V?$allocator@D@2@@2@$$QAV32@@Z:
  0000e	8b 54 24 08	 mov	 edx, DWORD PTR [esp+8]
  00012	8d 42 0c	 lea	 eax, DWORD PTR [edx+12]
  00015	8b 4a ec	 mov	 ecx, DWORD PTR [edx-20]
  00018	33 c8		 xor	 ecx, eax
  0001a	e8 00 00 00 00	 call	 @__security_check_cookie@4
  0001f	b8 00 00 00 00	 mov	 eax, OFFSET __ehfuncinfo$?construct@?$allocator@V?$basic_string@DU?$char_traits@D@std@@V?$allocator@D@2@@std@@@std@@QAEXPAV?$basic_string@DU?$char_traits@D@std@@V?$allocator@D@2@@2@$$QAV32@@Z
  00024	e9 00 00 00 00	 jmp	 ___CxxFrameHandler3
text$x	ENDS
?construct@?$allocator@V?$basic_string@DU?$char_traits@D@std@@V?$allocator@D@2@@std@@@std@@QAEXPAV?$basic_string@DU?$char_traits@D@std@@V?$allocator@D@2@@2@$$QAV32@@Z ENDP ; std::allocator<std::basic_string<char,std::char_traits<char>,std::allocator<char> > >::construct
PUBLIC	??$_Destroy_range@V?$allocator@V?$basic_string@DU?$char_traits@D@std@@V?$allocator@D@2@@std@@@std@@@std@@YAXPAV?$basic_string@DU?$char_traits@D@std@@V?$allocator@D@2@@0@0AAV?$allocator@V?$basic_string@DU?$char_traits@D@std@@V?$allocator@D@2@@std@@@0@@Z ; std::_Destroy_range<std::allocator<std::basic_string<char,std::char_traits<char>,std::allocator<char> > > >
; Function compile flags: /Ogsp
;	COMDAT ??$_Destroy_range@V?$allocator@V?$basic_string@DU?$char_traits@D@std@@V?$allocator@D@2@@std@@@std@@@std@@YAXPAV?$basic_string@DU?$char_traits@D@std@@V?$allocator@D@2@@0@0AAV?$allocator@V?$basic_string@DU?$char_traits@D@std@@V?$allocator@D@2@@std@@@0@@Z
_TEXT	SEGMENT
__Cat$540642 = -4					; size = 1
__First$ = 8						; size = 4
__Last$ = 12						; size = 4
__Al$ = 16						; size = 4
??$_Destroy_range@V?$allocator@V?$basic_string@DU?$char_traits@D@std@@V?$allocator@D@2@@std@@@std@@@std@@YAXPAV?$basic_string@DU?$char_traits@D@std@@V?$allocator@D@2@@0@0AAV?$allocator@V?$basic_string@DU?$char_traits@D@std@@V?$allocator@D@2@@std@@@0@@Z PROC ; std::_Destroy_range<std::allocator<std::basic_string<char,std::char_traits<char>,std::allocator<char> > > >, COMDAT

; 87   : 	{	// destroy [_First, _Last)

  00000	55		 push	 ebp
  00001	8b ec		 mov	 ebp, esp
  00003	51		 push	 ecx

; 88   : 	_Destroy_range(_First, _Last, _Al, _Ptr_cat(_First, _Last));

  00004	ff 75 fc	 push	 DWORD PTR __Cat$540642[ebp]
  00007	ff 75 10	 push	 DWORD PTR __Al$[ebp]
  0000a	ff 75 0c	 push	 DWORD PTR __Last$[ebp]
  0000d	ff 75 08	 push	 DWORD PTR __First$[ebp]
  00010	e8 00 00 00 00	 call	 ??$_Destroy_range@V?$allocator@V?$basic_string@DU?$char_traits@D@std@@V?$allocator@D@2@@std@@@std@@@std@@YAXPAV?$basic_string@DU?$char_traits@D@std@@V?$allocator@D@2@@0@0AAV?$allocator@V?$basic_string@DU?$char_traits@D@std@@V?$allocator@D@2@@std@@@0@U_Nonscalar_ptr_iterator_tag@0@@Z ; std::_Destroy_range<std::allocator<std::basic_string<char,std::char_traits<char>,std::allocator<char> > > >
  00015	83 c4 10	 add	 esp, 16			; 00000010H

; 89   : 	}

  00018	c9		 leave
  00019	c3		 ret	 0
??$_Destroy_range@V?$allocator@V?$basic_string@DU?$char_traits@D@std@@V?$allocator@D@2@@std@@@std@@@std@@YAXPAV?$basic_string@DU?$char_traits@D@std@@V?$allocator@D@2@@0@0AAV?$allocator@V?$basic_string@DU?$char_traits@D@std@@V?$allocator@D@2@@std@@@0@@Z ENDP ; std::_Destroy_range<std::allocator<std::basic_string<char,std::char_traits<char>,std::allocator<char> > > >
_TEXT	ENDS
PUBLIC	??$_Cons_val@V?$allocator@V?$basic_string@DU?$char_traits@D@std@@V?$allocator@D@2@@std@@@std@@V?$basic_string@DU?$char_traits@D@std@@V?$allocator@D@2@@2@V32@@std@@YAXAAV?$allocator@V?$basic_string@DU?$char_traits@D@std@@V?$allocator@D@2@@std@@@0@PAV?$basic_string@DU?$char_traits@D@std@@V?$allocator@D@2@@0@$$QAV20@@Z ; std::_Cons_val<std::allocator<std::basic_string<char,std::char_traits<char>,std::allocator<char> > >,std::basic_string<char,std::char_traits<char>,std::allocator<char> >,std::basic_string<char,std::char_traits<char>,std::allocator<char> > >
;	COMDAT xdata$x
; File c:\program files (x86)\microsoft visual studio 10.0\vc\include\utility
xdata$x	SEGMENT
__unwindtable$??$_Cons_val@V?$allocator@V?$basic_string@DU?$char_traits@D@std@@V?$allocator@D@2@@std@@@std@@V?$basic_string@DU?$char_traits@D@std@@V?$allocator@D@2@@2@V32@@std@@YAXAAV?$allocator@V?$basic_string@DU?$char_traits@D@std@@V?$allocator@D@2@@std@@@0@PAV?$basic_string@DU?$char_traits@D@std@@V?$allocator@D@2@@0@$$QAV20@@Z DD 0ffffffffH
	DD	FLAT:__unwindfunclet$??$_Cons_val@V?$allocator@V?$basic_string@DU?$char_traits@D@std@@V?$allocator@D@2@@std@@@std@@V?$basic_string@DU?$char_traits@D@std@@V?$allocator@D@2@@2@V32@@std@@YAXAAV?$allocator@V?$basic_string@DU?$char_traits@D@std@@V?$allocator@D@2@@std@@@0@PAV?$basic_string@DU?$char_traits@D@std@@V?$allocator@D@2@@0@$$QAV20@@Z$0
__ehfuncinfo$??$_Cons_val@V?$allocator@V?$basic_string@DU?$char_traits@D@std@@V?$allocator@D@2@@std@@@std@@V?$basic_string@DU?$char_traits@D@std@@V?$allocator@D@2@@2@V32@@std@@YAXAAV?$allocator@V?$basic_string@DU?$char_traits@D@std@@V?$allocator@D@2@@std@@@0@PAV?$basic_string@DU?$char_traits@D@std@@V?$allocator@D@2@@0@$$QAV20@@Z DD 019930522H
	DD	01H
	DD	FLAT:__unwindtable$??$_Cons_val@V?$allocator@V?$basic_string@DU?$char_traits@D@std@@V?$allocator@D@2@@std@@@std@@V?$basic_string@DU?$char_traits@D@std@@V?$allocator@D@2@@2@V32@@std@@YAXAAV?$allocator@V?$basic_string@DU?$char_traits@D@std@@V?$allocator@D@2@@std@@@0@PAV?$basic_string@DU?$char_traits@D@std@@V?$allocator@D@2@@0@$$QAV20@@Z
	DD	2 DUP(00H)
	DD	2 DUP(00H)
	DD	00H
	DD	01H
; Function compile flags: /Ogsp
; File c:\program files (x86)\microsoft visual studio 10.0\vc\include\xmemory
xdata$x	ENDS
;	COMDAT ??$_Cons_val@V?$allocator@V?$basic_string@DU?$char_traits@D@std@@V?$allocator@D@2@@std@@@std@@V?$basic_string@DU?$char_traits@D@std@@V?$allocator@D@2@@2@V32@@std@@YAXAAV?$allocator@V?$basic_string@DU?$char_traits@D@std@@V?$allocator@D@2@@std@@@0@PAV?$basic_string@DU?$char_traits@D@std@@V?$allocator@D@2@@0@$$QAV20@@Z
_TEXT	SEGMENT
$T540664 = -16						; size = 4
__$EHRec$ = -12						; size = 12
__Alval$ = 8						; size = 4
__Pdest$ = 12						; size = 4
__Src$ = 16						; size = 4
??$_Cons_val@V?$allocator@V?$basic_string@DU?$char_traits@D@std@@V?$allocator@D@2@@std@@@std@@V?$basic_string@DU?$char_traits@D@std@@V?$allocator@D@2@@2@V32@@std@@YAXAAV?$allocator@V?$basic_string@DU?$char_traits@D@std@@V?$allocator@D@2@@std@@@0@PAV?$basic_string@DU?$char_traits@D@std@@V?$allocator@D@2@@0@$$QAV20@@Z PROC ; std::_Cons_val<std::allocator<std::basic_string<char,std::char_traits<char>,std::allocator<char> > >,std::basic_string<char,std::char_traits<char>,std::allocator<char> >,std::basic_string<char,std::char_traits<char>,std::allocator<char> > >, COMDAT

; 279  : 	{	// construct using allocator

  00000	6a 04		 push	 4
  00002	b8 00 00 00 00	 mov	 eax, __ehhandler$??$_Cons_val@V?$allocator@V?$basic_string@DU?$char_traits@D@std@@V?$allocator@D@2@@std@@@std@@V?$basic_string@DU?$char_traits@D@std@@V?$allocator@D@2@@2@V32@@std@@YAXAAV?$allocator@V?$basic_string@DU?$char_traits@D@std@@V?$allocator@D@2@@std@@@0@PAV?$basic_string@DU?$char_traits@D@std@@V?$allocator@D@2@@0@$$QAV20@@Z
  00007	e8 00 00 00 00	 call	 __EH_prolog3

; 280  : 	_Alval.construct(_Pdest, _STD forward<_Ty2>(_Src));

  0000c	8b 4d 0c	 mov	 ecx, DWORD PTR __Pdest$[ebp]
  0000f	89 4d f0	 mov	 DWORD PTR $T540664[ebp], ecx
  00012	83 65 fc 00	 and	 DWORD PTR __$EHRec$[ebp+8], 0
  00016	85 c9		 test	 ecx, ecx
  00018	74 08		 je	 SHORT $LN7@Cons_val
  0001a	ff 75 10	 push	 DWORD PTR __Src$[ebp]
  0001d	e8 00 00 00 00	 call	 ??0?$basic_string@DU?$char_traits@D@std@@V?$allocator@D@2@@std@@QAE@$$QAV01@@Z ; std::basic_string<char,std::char_traits<char>,std::allocator<char> >::basic_string<char,std::char_traits<char>,std::allocator<char> >
$LN7@Cons_val:

; 281  : 	}

  00022	e8 00 00 00 00	 call	 __EH_epilog3
  00027	c3		 ret	 0
_TEXT	ENDS
;	COMDAT text$x
text$x	SEGMENT
__unwindfunclet$??$_Cons_val@V?$allocator@V?$basic_string@DU?$char_traits@D@std@@V?$allocator@D@2@@std@@@std@@V?$basic_string@DU?$char_traits@D@std@@V?$allocator@D@2@@2@V32@@std@@YAXAAV?$allocator@V?$basic_string@DU?$char_traits@D@std@@V?$allocator@D@2@@std@@@0@PAV?$basic_string@DU?$char_traits@D@std@@V?$allocator@D@2@@0@$$QAV20@@Z$0:
  00000	ff 75 0c	 push	 DWORD PTR __Pdest$[ebp]
  00003	ff 75 f0	 push	 DWORD PTR $T540664[ebp]
  00006	e8 00 00 00 00	 call	 ??3@YAXPAX0@Z		; operator delete
  0000b	59		 pop	 ecx
  0000c	59		 pop	 ecx
  0000d	c3		 ret	 0
__ehhandler$??$_Cons_val@V?$allocator@V?$basic_string@DU?$char_traits@D@std@@V?$allocator@D@2@@std@@@std@@V?$basic_string@DU?$char_traits@D@std@@V?$allocator@D@2@@2@V32@@std@@YAXAAV?$allocator@V?$basic_string@DU?$char_traits@D@std@@V?$allocator@D@2@@std@@@0@PAV?$basic_string@DU?$char_traits@D@std@@V?$allocator@D@2@@0@$$QAV20@@Z:
  0000e	8b 54 24 08	 mov	 edx, DWORD PTR [esp+8]
  00012	8d 42 0c	 lea	 eax, DWORD PTR [edx+12]
  00015	8b 4a ec	 mov	 ecx, DWORD PTR [edx-20]
  00018	33 c8		 xor	 ecx, eax
  0001a	e8 00 00 00 00	 call	 @__security_check_cookie@4
  0001f	b8 00 00 00 00	 mov	 eax, OFFSET __ehfuncinfo$??$_Cons_val@V?$allocator@V?$basic_string@DU?$char_traits@D@std@@V?$allocator@D@2@@std@@@std@@V?$basic_string@DU?$char_traits@D@std@@V?$allocator@D@2@@2@V32@@std@@YAXAAV?$allocator@V?$basic_string@DU?$char_traits@D@std@@V?$allocator@D@2@@std@@@0@PAV?$basic_string@DU?$char_traits@D@std@@V?$allocator@D@2@@0@$$QAV20@@Z
  00024	e9 00 00 00 00	 jmp	 ___CxxFrameHandler3
text$x	ENDS
??$_Cons_val@V?$allocator@V?$basic_string@DU?$char_traits@D@std@@V?$allocator@D@2@@std@@@std@@V?$basic_string@DU?$char_traits@D@std@@V?$allocator@D@2@@2@V32@@std@@YAXAAV?$allocator@V?$basic_string@DU?$char_traits@D@std@@V?$allocator@D@2@@std@@@0@PAV?$basic_string@DU?$char_traits@D@std@@V?$allocator@D@2@@0@$$QAV20@@Z ENDP ; std::_Cons_val<std::allocator<std::basic_string<char,std::char_traits<char>,std::allocator<char> > >,std::basic_string<char,std::char_traits<char>,std::allocator<char> >,std::basic_string<char,std::char_traits<char>,std::allocator<char> > >
PUBLIC	??$_Uninit_move@PAV?$basic_string@DU?$char_traits@D@std@@V?$allocator@D@2@@std@@PAV12@V?$allocator@V?$basic_string@DU?$char_traits@D@std@@V?$allocator@D@2@@std@@@2@V12@@std@@YAPAV?$basic_string@DU?$char_traits@D@std@@V?$allocator@D@2@@0@PAV10@00AAV?$allocator@V?$basic_string@DU?$char_traits@D@std@@V?$allocator@D@2@@std@@@0@0U_Nonscalar_ptr_iterator_tag@0@@Z ; std::_Uninit_move<std::basic_string<char,std::char_traits<char>,std::allocator<char> > *,std::basic_string<char,std::char_traits<char>,std::allocator<char> > *,std::allocator<std::basic_string<char,std::char_traits<char>,std::allocator<char> > >,std::basic_string<char,std::char_traits<char>,std::allocator<char> > >
;	COMDAT xdata$x
; File c:\program files (x86)\microsoft visual studio 10.0\vc\include\xstring
xdata$x	SEGMENT
__catchsym$??$_Uninit_move@PAV?$basic_string@DU?$char_traits@D@std@@V?$allocator@D@2@@std@@PAV12@V?$allocator@V?$basic_string@DU?$char_traits@D@std@@V?$allocator@D@2@@std@@@2@V12@@std@@YAPAV?$basic_string@DU?$char_traits@D@std@@V?$allocator@D@2@@0@PAV10@00AAV?$allocator@V?$basic_string@DU?$char_traits@D@std@@V?$allocator@D@2@@std@@@0@0U_Nonscalar_ptr_iterator_tag@0@@Z$2 DD 040H
	DD	00H
	DD	00H
	DD	FLAT:__catch$??$_Uninit_move@PAV?$basic_string@DU?$char_traits@D@std@@V?$allocator@D@2@@std@@PAV12@V?$allocator@V?$basic_string@DU?$char_traits@D@std@@V?$allocator@D@2@@std@@@2@V12@@std@@YAPAV?$basic_string@DU?$char_traits@D@std@@V?$allocator@D@2@@0@PAV10@00AAV?$allocator@V?$basic_string@DU?$char_traits@D@std@@V?$allocator@D@2@@std@@@0@0U_Nonscalar_ptr_iterator_tag@0@@Z$0
__unwindtable$??$_Uninit_move@PAV?$basic_string@DU?$char_traits@D@std@@V?$allocator@D@2@@std@@PAV12@V?$allocator@V?$basic_string@DU?$char_traits@D@std@@V?$allocator@D@2@@std@@@2@V12@@std@@YAPAV?$basic_string@DU?$char_traits@D@std@@V?$allocator@D@2@@0@PAV10@00AAV?$allocator@V?$basic_string@DU?$char_traits@D@std@@V?$allocator@D@2@@std@@@0@0U_Nonscalar_ptr_iterator_tag@0@@Z DD 0ffffffffH
	DD	00H
	DD	0ffffffffH
	DD	00H
__tryblocktable$??$_Uninit_move@PAV?$basic_string@DU?$char_traits@D@std@@V?$allocator@D@2@@std@@PAV12@V?$allocator@V?$basic_string@DU?$char_traits@D@std@@V?$allocator@D@2@@std@@@2@V12@@std@@YAPAV?$basic_string@DU?$char_traits@D@std@@V?$allocator@D@2@@0@PAV10@00AAV?$allocator@V?$basic_string@DU?$char_traits@D@std@@V?$allocator@D@2@@std@@@0@0U_Nonscalar_ptr_iterator_tag@0@@Z DD 00H
	DD	00H
	DD	01H
	DD	01H
	DD	FLAT:__catchsym$??$_Uninit_move@PAV?$basic_string@DU?$char_traits@D@std@@V?$allocator@D@2@@std@@PAV12@V?$allocator@V?$basic_string@DU?$char_traits@D@std@@V?$allocator@D@2@@std@@@2@V12@@std@@YAPAV?$basic_string@DU?$char_traits@D@std@@V?$allocator@D@2@@0@PAV10@00AAV?$allocator@V?$basic_string@DU?$char_traits@D@std@@V?$allocator@D@2@@std@@@0@0U_Nonscalar_ptr_iterator_tag@0@@Z$2
__ehfuncinfo$??$_Uninit_move@PAV?$basic_string@DU?$char_traits@D@std@@V?$allocator@D@2@@std@@PAV12@V?$allocator@V?$basic_string@DU?$char_traits@D@std@@V?$allocator@D@2@@std@@@2@V12@@std@@YAPAV?$basic_string@DU?$char_traits@D@std@@V?$allocator@D@2@@0@PAV10@00AAV?$allocator@V?$basic_string@DU?$char_traits@D@std@@V?$allocator@D@2@@std@@@0@0U_Nonscalar_ptr_iterator_tag@0@@Z DD 019930522H
	DD	02H
	DD	FLAT:__unwindtable$??$_Uninit_move@PAV?$basic_string@DU?$char_traits@D@std@@V?$allocator@D@2@@std@@PAV12@V?$allocator@V?$basic_string@DU?$char_traits@D@std@@V?$allocator@D@2@@std@@@2@V12@@std@@YAPAV?$basic_string@DU?$char_traits@D@std@@V?$allocator@D@2@@0@PAV10@00AAV?$allocator@V?$basic_string@DU?$char_traits@D@std@@V?$allocator@D@2@@std@@@0@0U_Nonscalar_ptr_iterator_tag@0@@Z
	DD	01H
	DD	FLAT:__tryblocktable$??$_Uninit_move@PAV?$basic_string@DU?$char_traits@D@std@@V?$allocator@D@2@@std@@PAV12@V?$allocator@V?$basic_string@DU?$char_traits@D@std@@V?$allocator@D@2@@std@@@2@V12@@std@@YAPAV?$basic_string@DU?$char_traits@D@std@@V?$allocator@D@2@@0@PAV10@00AAV?$allocator@V?$basic_string@DU?$char_traits@D@std@@V?$allocator@D@2@@std@@@0@0U_Nonscalar_ptr_iterator_tag@0@@Z
	DD	2 DUP(00H)
	DD	00H
	DD	01H
; Function compile flags: /Ogsp
; File c:\program files (x86)\microsoft visual studio 10.0\vc\include\memory
xdata$x	ENDS
;	COMDAT ??$_Uninit_move@PAV?$basic_string@DU?$char_traits@D@std@@V?$allocator@D@2@@std@@PAV12@V?$allocator@V?$basic_string@DU?$char_traits@D@std@@V?$allocator@D@2@@std@@@2@V12@@std@@YAPAV?$basic_string@DU?$char_traits@D@std@@V?$allocator@D@2@@0@PAV10@00AAV?$allocator@V?$basic_string@DU?$char_traits@D@std@@V?$allocator@D@2@@std@@@0@0U_Nonscalar_ptr_iterator_tag@0@@Z
_TEXT	SEGMENT
__Next$ = -20						; size = 4
__$EHRec$ = -16						; size = 16
__First$ = 8						; size = 4
__Last$ = 12						; size = 4
__Dest$ = 16						; size = 4
__Al$ = 20						; size = 4
___formal$ = 24						; size = 4
___formal$ = 28						; size = 1
??$_Uninit_move@PAV?$basic_string@DU?$char_traits@D@std@@V?$allocator@D@2@@std@@PAV12@V?$allocator@V?$basic_string@DU?$char_traits@D@std@@V?$allocator@D@2@@std@@@2@V12@@std@@YAPAV?$basic_string@DU?$char_traits@D@std@@V?$allocator@D@2@@0@PAV10@00AAV?$allocator@V?$basic_string@DU?$char_traits@D@std@@V?$allocator@D@2@@std@@@0@0U_Nonscalar_ptr_iterator_tag@0@@Z PROC ; std::_Uninit_move<std::basic_string<char,std::char_traits<char>,std::allocator<char> > *,std::basic_string<char,std::char_traits<char>,std::allocator<char> > *,std::allocator<std::basic_string<char,std::char_traits<char>,std::allocator<char> > >,std::basic_string<char,std::char_traits<char>,std::allocator<char> > >, COMDAT

; 424  : 	{	// move [_First, _Last) to raw _Dest, using _Al, arbitrary type

  00000	6a 08		 push	 8
  00002	b8 00 00 00 00	 mov	 eax, __ehhandler$??$_Uninit_move@PAV?$basic_string@DU?$char_traits@D@std@@V?$allocator@D@2@@std@@PAV12@V?$allocator@V?$basic_string@DU?$char_traits@D@std@@V?$allocator@D@2@@std@@@2@V12@@std@@YAPAV?$basic_string@DU?$char_traits@D@std@@V?$allocator@D@2@@0@PAV10@00AAV?$allocator@V?$basic_string@DU?$char_traits@D@std@@V?$allocator@D@2@@std@@@0@0U_Nonscalar_ptr_iterator_tag@0@@Z
  00007	e8 00 00 00 00	 call	 __EH_prolog3_catch

; 425  : 	_DEBUG_RANGE(_First, _Last);
; 426  : 	_DEBUG_POINTER(_Dest);
; 427  : 	_FwdIt _Next = _Dest;

  0000c	8b 45 10	 mov	 eax, DWORD PTR __Dest$[ebp]

; 428  : 
; 429  : 	_TRY_BEGIN

  0000f	83 65 fc 00	 and	 DWORD PTR __$EHRec$[ebp+12], 0
  00013	8b 75 08	 mov	 esi, DWORD PTR __First$[ebp]
  00016	89 45 ec	 mov	 DWORD PTR __Next$[ebp], eax
$LL6@Uninit_mov:

; 430  : 	for (; _First != _Last; ++_Dest, ++_First)

  00019	3b 75 0c	 cmp	 esi, DWORD PTR __Last$[ebp]
  0001c	74 37		 je	 SHORT $LN4@Uninit_mov

; 431  : 		_Cons_val(_Al, _Dest, (_Valty &&)*_First);

  0001e	56		 push	 esi
  0001f	ff 75 10	 push	 DWORD PTR __Dest$[ebp]
  00022	ff 75 14	 push	 DWORD PTR __Al$[ebp]
  00025	e8 00 00 00 00	 call	 ??$_Cons_val@V?$allocator@V?$basic_string@DU?$char_traits@D@std@@V?$allocator@D@2@@std@@@std@@V?$basic_string@DU?$char_traits@D@std@@V?$allocator@D@2@@2@V32@@std@@YAXAAV?$allocator@V?$basic_string@DU?$char_traits@D@std@@V?$allocator@D@2@@std@@@0@PAV?$basic_string@DU?$char_traits@D@std@@V?$allocator@D@2@@0@$$QAV20@@Z ; std::_Cons_val<std::allocator<std::basic_string<char,std::char_traits<char>,std::allocator<char> > >,std::basic_string<char,std::char_traits<char>,std::allocator<char> >,std::basic_string<char,std::char_traits<char>,std::allocator<char> > >
  0002a	83 45 10 1c	 add	 DWORD PTR __Dest$[ebp], 28 ; 0000001cH
  0002e	83 c4 0c	 add	 esp, 12			; 0000000cH
  00031	83 c6 1c	 add	 esi, 28			; 0000001cH
  00034	eb e3		 jmp	 SHORT $LL6@Uninit_mov
__catch$??$_Uninit_move@PAV?$basic_string@DU?$char_traits@D@std@@V?$allocator@D@2@@std@@PAV12@V?$allocator@V?$basic_string@DU?$char_traits@D@std@@V?$allocator@D@2@@std@@@2@V12@@std@@YAPAV?$basic_string@DU?$char_traits@D@std@@V?$allocator@D@2@@0@PAV10@00AAV?$allocator@V?$basic_string@DU?$char_traits@D@std@@V?$allocator@D@2@@std@@@0@0U_Nonscalar_ptr_iterator_tag@0@@Z$0:

; 432  : 	_CATCH_ALL
; 433  : 	for (; _Next != _Dest; ++_Next)

  00036	8b 75 ec	 mov	 esi, DWORD PTR __Next$[ebp]
  00039	eb 0c		 jmp	 SHORT $LN34@Uninit_mov
$LL3@Uninit_mov:

; 434  : 		_Dest_val(_Al, _Next);

  0003b	6a 01		 push	 1
  0003d	8b ce		 mov	 ecx, esi
  0003f	e8 00 00 00 00	 call	 ?_Tidy@?$basic_string@DU?$char_traits@D@std@@V?$allocator@D@2@@std@@QAEX_NI@Z ; std::basic_string<char,std::char_traits<char>,std::allocator<char> >::_Tidy
  00044	83 c6 1c	 add	 esi, 28			; 0000001cH
$LN34@Uninit_mov:

; 435  : 	_RERAISE;

  00047	6a 00		 push	 0
  00049	3b 75 10	 cmp	 esi, DWORD PTR __Dest$[ebp]
  0004c	75 ed		 jne	 SHORT $LL3@Uninit_mov
  0004e	6a 00		 push	 0
  00050	e8 00 00 00 00	 call	 __CxxThrowException@8
$LN35@Uninit_mov:
$LN4@Uninit_mov:

; 436  : 	_CATCH_END
; 437  : 	return (_Dest);

  00055	8b 45 10	 mov	 eax, DWORD PTR __Dest$[ebp]

; 438  : 	}

  00058	e8 00 00 00 00	 call	 __EH_epilog3
  0005d	c3		 ret	 0
$LN33@Uninit_mov:
_TEXT	ENDS
;	COMDAT text$x
text$x	SEGMENT
__ehhandler$??$_Uninit_move@PAV?$basic_string@DU?$char_traits@D@std@@V?$allocator@D@2@@std@@PAV12@V?$allocator@V?$basic_string@DU?$char_traits@D@std@@V?$allocator@D@2@@std@@@2@V12@@std@@YAPAV?$basic_string@DU?$char_traits@D@std@@V?$allocator@D@2@@0@PAV10@00AAV?$allocator@V?$basic_string@DU?$char_traits@D@std@@V?$allocator@D@2@@std@@@0@0U_Nonscalar_ptr_iterator_tag@0@@Z:
  00000	8b 54 24 08	 mov	 edx, DWORD PTR [esp+8]
  00004	8d 42 0c	 lea	 eax, DWORD PTR [edx+12]
  00007	8b 4a e8	 mov	 ecx, DWORD PTR [edx-24]
  0000a	33 c8		 xor	 ecx, eax
  0000c	e8 00 00 00 00	 call	 @__security_check_cookie@4
  00011	b8 00 00 00 00	 mov	 eax, OFFSET __ehfuncinfo$??$_Uninit_move@PAV?$basic_string@DU?$char_traits@D@std@@V?$allocator@D@2@@std@@PAV12@V?$allocator@V?$basic_string@DU?$char_traits@D@std@@V?$allocator@D@2@@std@@@2@V12@@std@@YAPAV?$basic_string@DU?$char_traits@D@std@@V?$allocator@D@2@@0@PAV10@00AAV?$allocator@V?$basic_string@DU?$char_traits@D@std@@V?$allocator@D@2@@std@@@0@0U_Nonscalar_ptr_iterator_tag@0@@Z
  00016	e9 00 00 00 00	 jmp	 ___CxxFrameHandler3
text$x	ENDS
??$_Uninit_move@PAV?$basic_string@DU?$char_traits@D@std@@V?$allocator@D@2@@std@@PAV12@V?$allocator@V?$basic_string@DU?$char_traits@D@std@@V?$allocator@D@2@@std@@@2@V12@@std@@YAPAV?$basic_string@DU?$char_traits@D@std@@V?$allocator@D@2@@0@PAV10@00AAV?$allocator@V?$basic_string@DU?$char_traits@D@std@@V?$allocator@D@2@@std@@@0@0U_Nonscalar_ptr_iterator_tag@0@@Z ENDP ; std::_Uninit_move<std::basic_string<char,std::char_traits<char>,std::allocator<char> > *,std::basic_string<char,std::char_traits<char>,std::allocator<char> > *,std::allocator<std::basic_string<char,std::char_traits<char>,std::allocator<char> > >,std::basic_string<char,std::char_traits<char>,std::allocator<char> > >
PUBLIC	?_Destroy@?$vector@V?$basic_string@DU?$char_traits@D@std@@V?$allocator@D@2@@std@@V?$allocator@V?$basic_string@DU?$char_traits@D@std@@V?$allocator@D@2@@std@@@2@@std@@IAEXPAV?$basic_string@DU?$char_traits@D@std@@V?$allocator@D@2@@2@0@Z ; std::vector<std::basic_string<char,std::char_traits<char>,std::allocator<char> >,std::allocator<std::basic_string<char,std::char_traits<char>,std::allocator<char> > > >::_Destroy
; Function compile flags: /Ogsp
; File c:\program files (x86)\microsoft visual studio 10.0\vc\include\vector
;	COMDAT ?_Destroy@?$vector@V?$basic_string@DU?$char_traits@D@std@@V?$allocator@D@2@@std@@V?$allocator@V?$basic_string@DU?$char_traits@D@std@@V?$allocator@D@2@@std@@@2@@std@@IAEXPAV?$basic_string@DU?$char_traits@D@std@@V?$allocator@D@2@@2@0@Z
_TEXT	SEGMENT
__First$ = 8						; size = 4
__Cat$540762 = 12					; size = 1
__Last$ = 12						; size = 4
?_Destroy@?$vector@V?$basic_string@DU?$char_traits@D@std@@V?$allocator@D@2@@std@@V?$allocator@V?$basic_string@DU?$char_traits@D@std@@V?$allocator@D@2@@std@@@2@@std@@IAEXPAV?$basic_string@DU?$char_traits@D@std@@V?$allocator@D@2@@2@0@Z PROC ; std::vector<std::basic_string<char,std::char_traits<char>,std::allocator<char> >,std::allocator<std::basic_string<char,std::char_traits<char>,std::allocator<char> > > >::_Destroy, COMDAT
; _this$ = ecx

; 1269 : 		{	// destroy [_First, _Last) using allocator

  00000	55		 push	 ebp
  00001	8b ec		 mov	 ebp, esp

; 1270 : 		_Destroy_range(_First, _Last, this->_Alval);

  00003	ff 75 0c	 push	 DWORD PTR __Cat$540762[ebp]
  00006	83 c1 0c	 add	 ecx, 12			; 0000000cH
  00009	51		 push	 ecx
  0000a	ff 75 0c	 push	 DWORD PTR __Last$[ebp]
  0000d	ff 75 08	 push	 DWORD PTR __First$[ebp]
  00010	e8 00 00 00 00	 call	 ??$_Destroy_range@V?$allocator@V?$basic_string@DU?$char_traits@D@std@@V?$allocator@D@2@@std@@@std@@@std@@YAXPAV?$basic_string@DU?$char_traits@D@std@@V?$allocator@D@2@@0@0AAV?$allocator@V?$basic_string@DU?$char_traits@D@std@@V?$allocator@D@2@@std@@@0@U_Nonscalar_ptr_iterator_tag@0@@Z ; std::_Destroy_range<std::allocator<std::basic_string<char,std::char_traits<char>,std::allocator<char> > > >
  00015	83 c4 10	 add	 esp, 16			; 00000010H

; 1271 : 		}

  00018	5d		 pop	 ebp
  00019	c2 08 00	 ret	 8
?_Destroy@?$vector@V?$basic_string@DU?$char_traits@D@std@@V?$allocator@D@2@@std@@V?$allocator@V?$basic_string@DU?$char_traits@D@std@@V?$allocator@D@2@@std@@@2@@std@@IAEXPAV?$basic_string@DU?$char_traits@D@std@@V?$allocator@D@2@@2@0@Z ENDP ; std::vector<std::basic_string<char,std::char_traits<char>,std::allocator<char> >,std::allocator<std::basic_string<char,std::char_traits<char>,std::allocator<char> > > >::_Destroy
_TEXT	ENDS
PUBLIC	??$_Uninitialized_move@PAV?$basic_string@DU?$char_traits@D@std@@V?$allocator@D@2@@std@@PAV12@V?$allocator@V?$basic_string@DU?$char_traits@D@std@@V?$allocator@D@2@@std@@@2@@std@@YAPAV?$basic_string@DU?$char_traits@D@std@@V?$allocator@D@2@@0@PAV10@00AAV?$allocator@V?$basic_string@DU?$char_traits@D@std@@V?$allocator@D@2@@std@@@0@@Z ; std::_Uninitialized_move<std::basic_string<char,std::char_traits<char>,std::allocator<char> > *,std::basic_string<char,std::char_traits<char>,std::allocator<char> > *,std::allocator<std::basic_string<char,std::char_traits<char>,std::allocator<char> > > >
; Function compile flags: /Ogsp
; File c:\program files (x86)\microsoft visual studio 10.0\vc\include\memory
;	COMDAT ??$_Uninitialized_move@PAV?$basic_string@DU?$char_traits@D@std@@V?$allocator@D@2@@std@@PAV12@V?$allocator@V?$basic_string@DU?$char_traits@D@std@@V?$allocator@D@2@@std@@@2@@std@@YAPAV?$basic_string@DU?$char_traits@D@std@@V?$allocator@D@2@@0@PAV10@00AAV?$allocator@V?$basic_string@DU?$char_traits@D@std@@V?$allocator@D@2@@std@@@0@@Z
_TEXT	SEGMENT
__Cat$540770 = -4					; size = 1
__First$ = 8						; size = 4
__Last$ = 12						; size = 4
__Dest$ = 16						; size = 4
__Al$ = 20						; size = 4
??$_Uninitialized_move@PAV?$basic_string@DU?$char_traits@D@std@@V?$allocator@D@2@@std@@PAV12@V?$allocator@V?$basic_string@DU?$char_traits@D@std@@V?$allocator@D@2@@std@@@2@@std@@YAPAV?$basic_string@DU?$char_traits@D@std@@V?$allocator@D@2@@0@PAV10@00AAV?$allocator@V?$basic_string@DU?$char_traits@D@std@@V?$allocator@D@2@@std@@@0@@Z PROC ; std::_Uninitialized_move<std::basic_string<char,std::char_traits<char>,std::allocator<char> > *,std::basic_string<char,std::char_traits<char>,std::allocator<char> > *,std::allocator<std::basic_string<char,std::char_traits<char>,std::allocator<char> > > >, COMDAT

; 469  : 	{	// move [_First, _Last) to raw _Dest, using _Al

  00000	55		 push	 ebp
  00001	8b ec		 mov	 ebp, esp
  00003	51		 push	 ecx

; 470  : 	return (_Uninit_move(_First, _Last, _Dest, _Al,
; 471  : 		_Val_type(_First), _Ptr_cat(_First, _Dest)));

  00004	ff 75 fc	 push	 DWORD PTR __Cat$540770[ebp]
  00007	6a 00		 push	 0
  00009	ff 75 14	 push	 DWORD PTR __Al$[ebp]
  0000c	ff 75 10	 push	 DWORD PTR __Dest$[ebp]
  0000f	ff 75 0c	 push	 DWORD PTR __Last$[ebp]
  00012	ff 75 08	 push	 DWORD PTR __First$[ebp]
  00015	e8 00 00 00 00	 call	 ??$_Uninit_move@PAV?$basic_string@DU?$char_traits@D@std@@V?$allocator@D@2@@std@@PAV12@V?$allocator@V?$basic_string@DU?$char_traits@D@std@@V?$allocator@D@2@@std@@@2@V12@@std@@YAPAV?$basic_string@DU?$char_traits@D@std@@V?$allocator@D@2@@0@PAV10@00AAV?$allocator@V?$basic_string@DU?$char_traits@D@std@@V?$allocator@D@2@@std@@@0@0U_Nonscalar_ptr_iterator_tag@0@@Z ; std::_Uninit_move<std::basic_string<char,std::char_traits<char>,std::allocator<char> > *,std::basic_string<char,std::char_traits<char>,std::allocator<char> > *,std::allocator<std::basic_string<char,std::char_traits<char>,std::allocator<char> > >,std::basic_string<char,std::char_traits<char>,std::allocator<char> > >
  0001a	83 c4 18	 add	 esp, 24			; 00000018H

; 472  : 	}

  0001d	c9		 leave
  0001e	c3		 ret	 0
??$_Uninitialized_move@PAV?$basic_string@DU?$char_traits@D@std@@V?$allocator@D@2@@std@@PAV12@V?$allocator@V?$basic_string@DU?$char_traits@D@std@@V?$allocator@D@2@@std@@@2@@std@@YAPAV?$basic_string@DU?$char_traits@D@std@@V?$allocator@D@2@@0@PAV10@00AAV?$allocator@V?$basic_string@DU?$char_traits@D@std@@V?$allocator@D@2@@std@@@0@@Z ENDP ; std::_Uninitialized_move<std::basic_string<char,std::char_traits<char>,std::allocator<char> > *,std::basic_string<char,std::char_traits<char>,std::allocator<char> > *,std::allocator<std::basic_string<char,std::char_traits<char>,std::allocator<char> > > >
_TEXT	ENDS
PUBLIC	?_Tidy@?$vector@V?$basic_string@DU?$char_traits@D@std@@V?$allocator@D@2@@std@@V?$allocator@V?$basic_string@DU?$char_traits@D@std@@V?$allocator@D@2@@std@@@2@@std@@IAEXXZ ; std::vector<std::basic_string<char,std::char_traits<char>,std::allocator<char> >,std::allocator<std::basic_string<char,std::char_traits<char>,std::allocator<char> > > >::_Tidy
EXTRN	__imp_?_Orphan_all@_Container_base0@std@@QAEXXZ:PROC
; Function compile flags: /Ogsp
; File c:\program files (x86)\microsoft visual studio 10.0\vc\include\vector
;	COMDAT ?_Tidy@?$vector@V?$basic_string@DU?$char_traits@D@std@@V?$allocator@D@2@@std@@V?$allocator@V?$basic_string@DU?$char_traits@D@std@@V?$allocator@D@2@@std@@@2@@std@@IAEXXZ
_TEXT	SEGMENT
__Cat$540794 = -4					; size = 1
?_Tidy@?$vector@V?$basic_string@DU?$char_traits@D@std@@V?$allocator@D@2@@std@@V?$allocator@V?$basic_string@DU?$char_traits@D@std@@V?$allocator@D@2@@std@@@2@@std@@IAEXXZ PROC ; std::vector<std::basic_string<char,std::char_traits<char>,std::allocator<char> >,std::allocator<std::basic_string<char,std::char_traits<char>,std::allocator<char> > > >::_Tidy, COMDAT
; _this$ = ecx

; 1301 : 		{	// free all storage

  00000	55		 push	 ebp
  00001	8b ec		 mov	 ebp, esp
  00003	51		 push	 ecx
  00004	56		 push	 esi
  00005	8b f1		 mov	 esi, ecx

; 1302 : 		if (this->_Myfirst != 0)

  00007	83 3e 00	 cmp	 DWORD PTR [esi], 0
  0000a	74 21		 je	 SHORT $LN10@Tidy@2

; 1303 : 			{	// something to free, destroy and deallocate it
; 1304 : 			this->_Orphan_all();

  0000c	ff 15 00 00 00
	00		 call	 DWORD PTR __imp_?_Orphan_all@_Container_base0@std@@QAEXXZ

; 1305 : 			_Destroy(this->_Myfirst, this->_Mylast);

  00012	ff 75 fc	 push	 DWORD PTR __Cat$540794[ebp]
  00015	8d 46 0c	 lea	 eax, DWORD PTR [esi+12]
  00018	50		 push	 eax
  00019	ff 76 04	 push	 DWORD PTR [esi+4]
  0001c	ff 36		 push	 DWORD PTR [esi]
  0001e	e8 00 00 00 00	 call	 ??$_Destroy_range@V?$allocator@V?$basic_string@DU?$char_traits@D@std@@V?$allocator@D@2@@std@@@std@@@std@@YAXPAV?$basic_string@DU?$char_traits@D@std@@V?$allocator@D@2@@0@0AAV?$allocator@V?$basic_string@DU?$char_traits@D@std@@V?$allocator@D@2@@std@@@0@U_Nonscalar_ptr_iterator_tag@0@@Z ; std::_Destroy_range<std::allocator<std::basic_string<char,std::char_traits<char>,std::allocator<char> > > >

; 1306 : 			this->_Alval.deallocate(this->_Myfirst,
; 1307 : 				this->_Myend - this->_Myfirst);

  00023	ff 36		 push	 DWORD PTR [esi]
  00025	e8 00 00 00 00	 call	 ??3@YAXPAX@Z		; operator delete
  0002a	83 c4 14	 add	 esp, 20			; 00000014H
$LN10@Tidy@2:

; 1308 : 			}
; 1309 : 		this->_Myfirst = 0;

  0002d	83 26 00	 and	 DWORD PTR [esi], 0

; 1310 : 		this->_Mylast = 0;

  00030	83 66 04 00	 and	 DWORD PTR [esi+4], 0

; 1311 : 		this->_Myend = 0;

  00034	83 66 08 00	 and	 DWORD PTR [esi+8], 0
  00038	5e		 pop	 esi

; 1312 : 		}

  00039	c9		 leave
  0003a	c3		 ret	 0
?_Tidy@?$vector@V?$basic_string@DU?$char_traits@D@std@@V?$allocator@D@2@@std@@V?$allocator@V?$basic_string@DU?$char_traits@D@std@@V?$allocator@D@2@@std@@@2@@std@@IAEXXZ ENDP ; std::vector<std::basic_string<char,std::char_traits<char>,std::allocator<char> >,std::allocator<std::basic_string<char,std::char_traits<char>,std::allocator<char> > > >::_Tidy
_TEXT	ENDS
PUBLIC	??$_Umove@PAV?$basic_string@DU?$char_traits@D@std@@V?$allocator@D@2@@std@@@?$vector@V?$basic_string@DU?$char_traits@D@std@@V?$allocator@D@2@@std@@V?$allocator@V?$basic_string@DU?$char_traits@D@std@@V?$allocator@D@2@@std@@@2@@std@@IAEPAV?$basic_string@DU?$char_traits@D@std@@V?$allocator@D@2@@1@PAV21@00@Z ; std::vector<std::basic_string<char,std::char_traits<char>,std::allocator<char> >,std::allocator<std::basic_string<char,std::char_traits<char>,std::allocator<char> > > >::_Umove<std::basic_string<char,std::char_traits<char>,std::allocator<char> > *>
; Function compile flags: /Ogsp
;	COMDAT ??$_Umove@PAV?$basic_string@DU?$char_traits@D@std@@V?$allocator@D@2@@std@@@?$vector@V?$basic_string@DU?$char_traits@D@std@@V?$allocator@D@2@@std@@V?$allocator@V?$basic_string@DU?$char_traits@D@std@@V?$allocator@D@2@@std@@@2@@std@@IAEPAV?$basic_string@DU?$char_traits@D@std@@V?$allocator@D@2@@1@PAV21@00@Z
_TEXT	SEGMENT
__First$ = 8						; size = 4
__Last$ = 12						; size = 4
__Ptr$ = 16						; size = 4
??$_Umove@PAV?$basic_string@DU?$char_traits@D@std@@V?$allocator@D@2@@std@@@?$vector@V?$basic_string@DU?$char_traits@D@std@@V?$allocator@D@2@@std@@V?$allocator@V?$basic_string@DU?$char_traits@D@std@@V?$allocator@D@2@@std@@@2@@std@@IAEPAV?$basic_string@DU?$char_traits@D@std@@V?$allocator@D@2@@1@PAV21@00@Z PROC ; std::vector<std::basic_string<char,std::char_traits<char>,std::allocator<char> >,std::allocator<std::basic_string<char,std::char_traits<char>,std::allocator<char> > > >::_Umove<std::basic_string<char,std::char_traits<char>,std::allocator<char> > *>, COMDAT
; _this$ = ecx

; 1322 : 		pointer _Umove(_Iter _First, _Iter _Last, pointer _Ptr)

  00000	55		 push	 ebp
  00001	8b ec		 mov	 ebp, esp

; 1323 : 		{	// move initializing [_First, _Last), using allocator
; 1324 : 		return (_Uninitialized_move(_First, _Last,
; 1325 : 			_Ptr, this->_Alval));

  00003	83 c1 0c	 add	 ecx, 12			; 0000000cH
  00006	51		 push	 ecx
  00007	ff 75 10	 push	 DWORD PTR __Ptr$[ebp]
  0000a	ff 75 0c	 push	 DWORD PTR __Last$[ebp]
  0000d	ff 75 08	 push	 DWORD PTR __First$[ebp]
  00010	e8 00 00 00 00	 call	 ??$_Uninitialized_move@PAV?$basic_string@DU?$char_traits@D@std@@V?$allocator@D@2@@std@@PAV12@V?$allocator@V?$basic_string@DU?$char_traits@D@std@@V?$allocator@D@2@@std@@@2@@std@@YAPAV?$basic_string@DU?$char_traits@D@std@@V?$allocator@D@2@@0@PAV10@00AAV?$allocator@V?$basic_string@DU?$char_traits@D@std@@V?$allocator@D@2@@std@@@0@@Z ; std::_Uninitialized_move<std::basic_string<char,std::char_traits<char>,std::allocator<char> > *,std::basic_string<char,std::char_traits<char>,std::allocator<char> > *,std::allocator<std::basic_string<char,std::char_traits<char>,std::allocator<char> > > >
  00015	83 c4 10	 add	 esp, 16			; 00000010H

; 1326 : 		}

  00018	5d		 pop	 ebp
  00019	c2 0c 00	 ret	 12			; 0000000cH
??$_Umove@PAV?$basic_string@DU?$char_traits@D@std@@V?$allocator@D@2@@std@@@?$vector@V?$basic_string@DU?$char_traits@D@std@@V?$allocator@D@2@@std@@V?$allocator@V?$basic_string@DU?$char_traits@D@std@@V?$allocator@D@2@@std@@@2@@std@@IAEPAV?$basic_string@DU?$char_traits@D@std@@V?$allocator@D@2@@1@PAV21@00@Z ENDP ; std::vector<std::basic_string<char,std::char_traits<char>,std::allocator<char> >,std::allocator<std::basic_string<char,std::char_traits<char>,std::allocator<char> > > >::_Umove<std::basic_string<char,std::char_traits<char>,std::allocator<char> > *>
_TEXT	ENDS
PUBLIC	??1?$vector@V?$basic_string@DU?$char_traits@D@std@@V?$allocator@D@2@@std@@V?$allocator@V?$basic_string@DU?$char_traits@D@std@@V?$allocator@D@2@@std@@@2@@std@@QAE@XZ ; std::vector<std::basic_string<char,std::char_traits<char>,std::allocator<char> >,std::allocator<std::basic_string<char,std::char_traits<char>,std::allocator<char> > > >::~vector<std::basic_string<char,std::char_traits<char>,std::allocator<char> >,std::allocator<std::basic_string<char,std::char_traits<char>,std::allocator<char> > > >
; Function compile flags: /Ogsp
;	COMDAT ??1?$vector@V?$basic_string@DU?$char_traits@D@std@@V?$allocator@D@2@@std@@V?$allocator@V?$basic_string@DU?$char_traits@D@std@@V?$allocator@D@2@@std@@@2@@std@@QAE@XZ
_TEXT	SEGMENT
??1?$vector@V?$basic_string@DU?$char_traits@D@std@@V?$allocator@D@2@@std@@V?$allocator@V?$basic_string@DU?$char_traits@D@std@@V?$allocator@D@2@@std@@@2@@std@@QAE@XZ PROC ; std::vector<std::basic_string<char,std::char_traits<char>,std::allocator<char> >,std::allocator<std::basic_string<char,std::char_traits<char>,std::allocator<char> > > >::~vector<std::basic_string<char,std::char_traits<char>,std::allocator<char> >,std::allocator<std::basic_string<char,std::char_traits<char>,std::allocator<char> > > >, COMDAT
; _this$ = ecx

; 705  : 		_Tidy();

  00000	e9 00 00 00 00	 jmp	 ?_Tidy@?$vector@V?$basic_string@DU?$char_traits@D@std@@V?$allocator@D@2@@std@@V?$allocator@V?$basic_string@DU?$char_traits@D@std@@V?$allocator@D@2@@std@@@2@@std@@IAEXXZ ; std::vector<std::basic_string<char,std::char_traits<char>,std::allocator<char> >,std::allocator<std::basic_string<char,std::char_traits<char>,std::allocator<char> > > >::_Tidy
??1?$vector@V?$basic_string@DU?$char_traits@D@std@@V?$allocator@D@2@@std@@V?$allocator@V?$basic_string@DU?$char_traits@D@std@@V?$allocator@D@2@@std@@@2@@std@@QAE@XZ ENDP ; std::vector<std::basic_string<char,std::char_traits<char>,std::allocator<char> >,std::allocator<std::basic_string<char,std::char_traits<char>,std::allocator<char> > > >::~vector<std::basic_string<char,std::char_traits<char>,std::allocator<char> >,std::allocator<std::basic_string<char,std::char_traits<char>,std::allocator<char> > > >
_TEXT	ENDS
PUBLIC	?reserve@?$vector@V?$basic_string@DU?$char_traits@D@std@@V?$allocator@D@2@@std@@V?$allocator@V?$basic_string@DU?$char_traits@D@std@@V?$allocator@D@2@@std@@@2@@std@@QAEXI@Z ; std::vector<std::basic_string<char,std::char_traits<char>,std::allocator<char> >,std::allocator<std::basic_string<char,std::char_traits<char>,std::allocator<char> > > >::reserve
;	COMDAT xdata$x
; File c:\program files (x86)\microsoft visual studio 10.0\vc\include\xmemory
xdata$x	SEGMENT
__catchsym$?reserve@?$vector@V?$basic_string@DU?$char_traits@D@std@@V?$allocator@D@2@@std@@V?$allocator@V?$basic_string@DU?$char_traits@D@std@@V?$allocator@D@2@@std@@@2@@std@@QAEXI@Z$2 DD 040H
	DD	00H
	DD	00H
	DD	FLAT:__catch$?reserve@?$vector@V?$basic_string@DU?$char_traits@D@std@@V?$allocator@D@2@@std@@V?$allocator@V?$basic_string@DU?$char_traits@D@std@@V?$allocator@D@2@@std@@@2@@std@@QAEXI@Z$0
__unwindtable$?reserve@?$vector@V?$basic_string@DU?$char_traits@D@std@@V?$allocator@D@2@@std@@V?$allocator@V?$basic_string@DU?$char_traits@D@std@@V?$allocator@D@2@@std@@@2@@std@@QAEXI@Z DD 0ffffffffH
	DD	00H
	DD	0ffffffffH
	DD	00H
__tryblocktable$?reserve@?$vector@V?$basic_string@DU?$char_traits@D@std@@V?$allocator@D@2@@std@@V?$allocator@V?$basic_string@DU?$char_traits@D@std@@V?$allocator@D@2@@std@@@2@@std@@QAEXI@Z DD 00H
	DD	00H
	DD	01H
	DD	01H
	DD	FLAT:__catchsym$?reserve@?$vector@V?$basic_string@DU?$char_traits@D@std@@V?$allocator@D@2@@std@@V?$allocator@V?$basic_string@DU?$char_traits@D@std@@V?$allocator@D@2@@std@@@2@@std@@QAEXI@Z$2
__ehfuncinfo$?reserve@?$vector@V?$basic_string@DU?$char_traits@D@std@@V?$allocator@D@2@@std@@V?$allocator@V?$basic_string@DU?$char_traits@D@std@@V?$allocator@D@2@@std@@@2@@std@@QAEXI@Z DD 019930522H
	DD	02H
	DD	FLAT:__unwindtable$?reserve@?$vector@V?$basic_string@DU?$char_traits@D@std@@V?$allocator@D@2@@std@@V?$allocator@V?$basic_string@DU?$char_traits@D@std@@V?$allocator@D@2@@std@@@2@@std@@QAEXI@Z
	DD	01H
	DD	FLAT:__tryblocktable$?reserve@?$vector@V?$basic_string@DU?$char_traits@D@std@@V?$allocator@D@2@@std@@V?$allocator@V?$basic_string@DU?$char_traits@D@std@@V?$allocator@D@2@@std@@@2@@std@@QAEXI@Z
	DD	2 DUP(00H)
	DD	00H
	DD	01H
; Function compile flags: /Ogsp
; File c:\program files (x86)\microsoft visual studio 10.0\vc\include\vector
xdata$x	ENDS
;	COMDAT ?reserve@?$vector@V?$basic_string@DU?$char_traits@D@std@@V?$allocator@D@2@@std@@V?$allocator@V?$basic_string@DU?$char_traits@D@std@@V?$allocator@D@2@@std@@@2@@std@@QAEXI@Z
_TEXT	SEGMENT
__$EHRec$ = -16						; size = 16
__Cat$540874 = 8					; size = 1
__Ptr$536091 = 8					; size = 4
__Count$ = 8						; size = 4
?reserve@?$vector@V?$basic_string@DU?$char_traits@D@std@@V?$allocator@D@2@@std@@V?$allocator@V?$basic_string@DU?$char_traits@D@std@@V?$allocator@D@2@@std@@@2@@std@@QAEXI@Z PROC ; std::vector<std::basic_string<char,std::char_traits<char>,std::allocator<char> >,std::allocator<std::basic_string<char,std::char_traits<char>,std::allocator<char> > > >::reserve, COMDAT
; _this$ = ecx

; 746  : 		{	// determine new minimum length of allocated storage

  00000	6a 04		 push	 4
  00002	b8 00 00 00 00	 mov	 eax, __ehhandler$?reserve@?$vector@V?$basic_string@DU?$char_traits@D@std@@V?$allocator@D@2@@std@@V?$allocator@V?$basic_string@DU?$char_traits@D@std@@V?$allocator@D@2@@std@@@2@@std@@QAEXI@Z
  00007	e8 00 00 00 00	 call	 __EH_prolog3_catch
  0000c	8b f1		 mov	 esi, ecx

; 747  : 		if (max_size() < _Count)

  0000e	8b 5d 08	 mov	 ebx, DWORD PTR __Count$[ebp]
  00011	81 fb 49 92 24
	09		 cmp	 ebx, 153391689		; 09249249H
  00017	76 0b		 jbe	 SHORT $LN5@reserve

; 748  : 			_Xlen();	// result too long

  00019	68 00 00 00 00	 push	 OFFSET ??_C@_0BD@OLBABOEK@vector?$DMT?$DO?5too?5long?$AA@
  0001e	ff 15 00 00 00
	00		 call	 DWORD PTR __imp_?_Xlength_error@std@@YAXPBD@Z
$LN42@reserve:
$LN5@reserve:

; 749  : 		else if (capacity() < _Count)

  00024	8b 46 08	 mov	 eax, DWORD PTR [esi+8]
  00027	2b 06		 sub	 eax, DWORD PTR [esi]
  00029	6a 1c		 push	 28			; 0000001cH
  0002b	99		 cdq
  0002c	59		 pop	 ecx
  0002d	f7 f9		 idiv	 ecx
  0002f	3b c3		 cmp	 eax, ebx
  00031	73 73		 jae	 SHORT $LN3@reserve

; 750  : 			{	// not enough room, reallocate
; 751  : 			pointer _Ptr = this->_Alval.allocate(_Count);

  00033	6a 00		 push	 0
  00035	53		 push	 ebx
  00036	e8 00 00 00 00	 call	 ??$_Allocate@V?$basic_string@DU?$char_traits@D@std@@V?$allocator@D@2@@std@@@std@@YAPAV?$basic_string@DU?$char_traits@D@std@@V?$allocator@D@2@@0@IPAV10@@Z ; std::_Allocate<std::basic_string<char,std::char_traits<char>,std::allocator<char> > >

; 752  : 
; 753  : 			_TRY_BEGIN
; 754  : 			_Umove(this->_Myfirst, this->_Mylast, _Ptr);

  0003b	8b 0e		 mov	 ecx, DWORD PTR [esi]
  0003d	83 65 fc 00	 and	 DWORD PTR __$EHRec$[ebp+12], 0
  00041	8d 56 0c	 lea	 edx, DWORD PTR [esi+12]
  00044	52		 push	 edx
  00045	89 45 08	 mov	 DWORD PTR __Ptr$536091[ebp], eax
  00048	ff 75 08	 push	 DWORD PTR __Ptr$536091[ebp]
  0004b	8b 46 04	 mov	 eax, DWORD PTR [esi+4]
  0004e	50		 push	 eax
  0004f	51		 push	 ecx
  00050	e8 00 00 00 00	 call	 ??$_Uninitialized_move@PAV?$basic_string@DU?$char_traits@D@std@@V?$allocator@D@2@@std@@PAV12@V?$allocator@V?$basic_string@DU?$char_traits@D@std@@V?$allocator@D@2@@std@@@2@@std@@YAPAV?$basic_string@DU?$char_traits@D@std@@V?$allocator@D@2@@0@PAV10@00AAV?$allocator@V?$basic_string@DU?$char_traits@D@std@@V?$allocator@D@2@@std@@@0@@Z ; std::_Uninitialized_move<std::basic_string<char,std::char_traits<char>,std::allocator<char> > *,std::basic_string<char,std::char_traits<char>,std::allocator<char> > *,std::allocator<std::basic_string<char,std::char_traits<char>,std::allocator<char> > > >

; 758  : 			_CATCH_END
; 759  : 
; 760  : 			size_type _Size = size();

  00055	8b 0e		 mov	 ecx, DWORD PTR [esi]
  00057	8b 46 04	 mov	 eax, DWORD PTR [esi+4]
  0005a	83 c4 18	 add	 esp, 24			; 00000018H
  0005d	2b c1		 sub	 eax, ecx
  0005f	6a 1c		 push	 28			; 0000001cH
  00061	99		 cdq
  00062	5f		 pop	 edi
  00063	f7 ff		 idiv	 edi
  00065	83 4d fc ff	 or	 DWORD PTR __$EHRec$[ebp+12], -1
  00069	8b f8		 mov	 edi, eax
  0006b	85 c9		 test	 ecx, ecx
  0006d	74 1a		 je	 SHORT $LN37@reserve

; 761  : 			if (this->_Myfirst != 0)
; 762  : 				{	// destroy and deallocate old array
; 763  : 				_Destroy(this->_Myfirst, this->_Mylast);

  0006f	ff 75 08	 push	 DWORD PTR __Cat$540874[ebp]
  00072	8d 46 0c	 lea	 eax, DWORD PTR [esi+12]
  00075	50		 push	 eax
  00076	ff 76 04	 push	 DWORD PTR [esi+4]
  00079	51		 push	 ecx
  0007a	e8 00 00 00 00	 call	 ??$_Destroy_range@V?$allocator@V?$basic_string@DU?$char_traits@D@std@@V?$allocator@D@2@@std@@@std@@@std@@YAXPAV?$basic_string@DU?$char_traits@D@std@@V?$allocator@D@2@@0@0AAV?$allocator@V?$basic_string@DU?$char_traits@D@std@@V?$allocator@D@2@@std@@@0@U_Nonscalar_ptr_iterator_tag@0@@Z ; std::_Destroy_range<std::allocator<std::basic_string<char,std::char_traits<char>,std::allocator<char> > > >

; 764  : 				this->_Alval.deallocate(this->_Myfirst,
; 765  : 					this->_Myend - this->_Myfirst);

  0007f	ff 36		 push	 DWORD PTR [esi]
  00081	e8 00 00 00 00	 call	 ??3@YAXPAX@Z		; operator delete
  00086	83 c4 14	 add	 esp, 20			; 00000014H
$LN37@reserve:

; 766  : 				}
; 767  : 
; 768  : 			this->_Orphan_all();

  00089	8b ce		 mov	 ecx, esi
  0008b	ff 15 00 00 00
	00		 call	 DWORD PTR __imp_?_Orphan_all@_Container_base0@std@@QAEXXZ

; 769  : 			this->_Myend = _Ptr + _Count;

  00091	6b db 1c	 imul	 ebx, 28			; 0000001cH

; 770  : 			this->_Mylast = _Ptr + _Size;

  00094	6b ff 1c	 imul	 edi, 28			; 0000001cH
  00097	8b 45 08	 mov	 eax, DWORD PTR __Ptr$536091[ebp]
  0009a	03 d8		 add	 ebx, eax
  0009c	03 f8		 add	 edi, eax
  0009e	89 5e 08	 mov	 DWORD PTR [esi+8], ebx
  000a1	89 7e 04	 mov	 DWORD PTR [esi+4], edi

; 771  : 			this->_Myfirst = _Ptr;

  000a4	89 06		 mov	 DWORD PTR [esi], eax
$LN3@reserve:

; 772  : 			}
; 773  : 		}

  000a6	e8 00 00 00 00	 call	 __EH_epilog3
  000ab	c2 04 00	 ret	 4
__catch$?reserve@?$vector@V?$basic_string@DU?$char_traits@D@std@@V?$allocator@D@2@@std@@V?$allocator@V?$basic_string@DU?$char_traits@D@std@@V?$allocator@D@2@@std@@@2@@std@@QAEXI@Z$0:

; 755  : 			_CATCH_ALL
; 756  : 			this->_Alval.deallocate(_Ptr, _Count);

  000ae	ff 75 08	 push	 DWORD PTR __Ptr$536091[ebp]
  000b1	e8 00 00 00 00	 call	 ??3@YAXPAX@Z		; operator delete
  000b6	59		 pop	 ecx

; 757  : 			_RERAISE;

  000b7	6a 00		 push	 0
  000b9	6a 00		 push	 0
  000bb	e8 00 00 00 00	 call	 __CxxThrowException@8
$LN43@reserve:
$LN41@reserve:
  000c0	cc		 int	 3
_TEXT	ENDS
;	COMDAT text$x
text$x	SEGMENT
__ehhandler$?reserve@?$vector@V?$basic_string@DU?$char_traits@D@std@@V?$allocator@D@2@@std@@V?$allocator@V?$basic_string@DU?$char_traits@D@std@@V?$allocator@D@2@@std@@@2@@std@@QAEXI@Z:
  00000	8b 54 24 08	 mov	 edx, DWORD PTR [esp+8]
  00004	8d 42 0c	 lea	 eax, DWORD PTR [edx+12]
  00007	8b 4a ec	 mov	 ecx, DWORD PTR [edx-20]
  0000a	33 c8		 xor	 ecx, eax
  0000c	e8 00 00 00 00	 call	 @__security_check_cookie@4
  00011	b8 00 00 00 00	 mov	 eax, OFFSET __ehfuncinfo$?reserve@?$vector@V?$basic_string@DU?$char_traits@D@std@@V?$allocator@D@2@@std@@V?$allocator@V?$basic_string@DU?$char_traits@D@std@@V?$allocator@D@2@@std@@@2@@std@@QAEXI@Z
  00016	e9 00 00 00 00	 jmp	 ___CxxFrameHandler3
text$x	ENDS
?reserve@?$vector@V?$basic_string@DU?$char_traits@D@std@@V?$allocator@D@2@@std@@V?$allocator@V?$basic_string@DU?$char_traits@D@std@@V?$allocator@D@2@@std@@@2@@std@@QAEXI@Z ENDP ; std::vector<std::basic_string<char,std::char_traits<char>,std::allocator<char> >,std::allocator<std::basic_string<char,std::char_traits<char>,std::allocator<char> > > >::reserve
PUBLIC	?_Reserve@?$vector@V?$basic_string@DU?$char_traits@D@std@@V?$allocator@D@2@@std@@V?$allocator@V?$basic_string@DU?$char_traits@D@std@@V?$allocator@D@2@@std@@@2@@std@@IAEXI@Z ; std::vector<std::basic_string<char,std::char_traits<char>,std::allocator<char> >,std::allocator<std::basic_string<char,std::char_traits<char>,std::allocator<char> > > >::_Reserve
; Function compile flags: /Ogsp
;	COMDAT ?_Reserve@?$vector@V?$basic_string@DU?$char_traits@D@std@@V?$allocator@D@2@@std@@V?$allocator@V?$basic_string@DU?$char_traits@D@std@@V?$allocator@D@2@@std@@@2@@std@@IAEXI@Z
_TEXT	SEGMENT
__Count$ = 8						; size = 4
?_Reserve@?$vector@V?$basic_string@DU?$char_traits@D@std@@V?$allocator@D@2@@std@@V?$allocator@V?$basic_string@DU?$char_traits@D@std@@V?$allocator@D@2@@std@@@2@@std@@IAEXI@Z PROC ; std::vector<std::basic_string<char,std::char_traits<char>,std::allocator<char> >,std::allocator<std::basic_string<char,std::char_traits<char>,std::allocator<char> > > >::_Reserve, COMDAT
; _this$ = ecx

; 1290 : 		{	// ensure room for _Count new elements, grow exponentially

  00000	55		 push	 ebp
  00001	8b ec		 mov	 ebp, esp
  00003	56		 push	 esi
  00004	8b f1		 mov	 esi, ecx

; 1291 : 		size_type _Size = size();

  00006	8b 0e		 mov	 ecx, DWORD PTR [esi]
  00008	8b 46 04	 mov	 eax, DWORD PTR [esi+4]
  0000b	2b c1		 sub	 eax, ecx
  0000d	57		 push	 edi
  0000e	99		 cdq
  0000f	6a 1c		 push	 28			; 0000001cH
  00011	5f		 pop	 edi
  00012	f7 ff		 idiv	 edi
  00014	8b f8		 mov	 edi, eax

; 1292 : 		if (max_size() - _Count < _Size)

  00016	b8 49 92 24 09	 mov	 eax, 153391689		; 09249249H
  0001b	2b 45 08	 sub	 eax, DWORD PTR __Count$[ebp]
  0001e	3b c7		 cmp	 eax, edi
  00020	73 0b		 jae	 SHORT $LN4@Reserve

; 1293 : 			_Xlen();

  00022	68 00 00 00 00	 push	 OFFSET ??_C@_0BD@OLBABOEK@vector?$DMT?$DO?5too?5long?$AA@
  00027	ff 15 00 00 00
	00		 call	 DWORD PTR __imp_?_Xlength_error@std@@YAXPBD@Z
$LN21@Reserve:
$LN4@Reserve:

; 1294 : 		else if ((_Size += _Count) <= capacity())

  0002d	8b 46 08	 mov	 eax, DWORD PTR [esi+8]
  00030	2b c1		 sub	 eax, ecx
  00032	6a 1c		 push	 28			; 0000001cH
  00034	99		 cdq
  00035	59		 pop	 ecx
  00036	f7 f9		 idiv	 ecx
  00038	03 7d 08	 add	 edi, DWORD PTR __Count$[ebp]
  0003b	3b f8		 cmp	 edi, eax
  0003d	76 10		 jbe	 SHORT $LN1@Reserve

; 1295 : 			;
; 1296 : 		else
; 1297 : 			reserve(_Grow_to(_Size));

  0003f	57		 push	 edi
  00040	8b ce		 mov	 ecx, esi
  00042	e8 00 00 00 00	 call	 ?_Grow_to@?$vector@V?$basic_string@DU?$char_traits@D@std@@V?$allocator@D@2@@std@@V?$allocator@V?$basic_string@DU?$char_traits@D@std@@V?$allocator@D@2@@std@@@2@@std@@IBEII@Z ; std::vector<std::basic_string<char,std::char_traits<char>,std::allocator<char> >,std::allocator<std::basic_string<char,std::char_traits<char>,std::allocator<char> > > >::_Grow_to
  00047	50		 push	 eax
  00048	8b ce		 mov	 ecx, esi
  0004a	e8 00 00 00 00	 call	 ?reserve@?$vector@V?$basic_string@DU?$char_traits@D@std@@V?$allocator@D@2@@std@@V?$allocator@V?$basic_string@DU?$char_traits@D@std@@V?$allocator@D@2@@std@@@2@@std@@QAEXI@Z ; std::vector<std::basic_string<char,std::char_traits<char>,std::allocator<char> >,std::allocator<std::basic_string<char,std::char_traits<char>,std::allocator<char> > > >::reserve
$LN1@Reserve:
  0004f	5f		 pop	 edi
  00050	5e		 pop	 esi

; 1298 : 		}

  00051	5d		 pop	 ebp
  00052	c2 04 00	 ret	 4
$LN20@Reserve:
?_Reserve@?$vector@V?$basic_string@DU?$char_traits@D@std@@V?$allocator@D@2@@std@@V?$allocator@V?$basic_string@DU?$char_traits@D@std@@V?$allocator@D@2@@std@@@2@@std@@IAEXI@Z ENDP ; std::vector<std::basic_string<char,std::char_traits<char>,std::allocator<char> >,std::allocator<std::basic_string<char,std::char_traits<char>,std::allocator<char> > > >::_Reserve
_TEXT	ENDS
PUBLIC	?push_back@?$vector@V?$basic_string@DU?$char_traits@D@std@@V?$allocator@D@2@@std@@V?$allocator@V?$basic_string@DU?$char_traits@D@std@@V?$allocator@D@2@@std@@@2@@std@@QAEX$$QAV?$basic_string@DU?$char_traits@D@std@@V?$allocator@D@2@@2@@Z ; std::vector<std::basic_string<char,std::char_traits<char>,std::allocator<char> >,std::allocator<std::basic_string<char,std::char_traits<char>,std::allocator<char> > > >::push_back
; Function compile flags: /Ogsp
;	COMDAT ?push_back@?$vector@V?$basic_string@DU?$char_traits@D@std@@V?$allocator@D@2@@std@@V?$allocator@V?$basic_string@DU?$char_traits@D@std@@V?$allocator@D@2@@std@@@2@@std@@QAEX$$QAV?$basic_string@DU?$char_traits@D@std@@V?$allocator@D@2@@2@@Z
_TEXT	SEGMENT
__Val$ = 8						; size = 4
?push_back@?$vector@V?$basic_string@DU?$char_traits@D@std@@V?$allocator@D@2@@std@@V?$allocator@V?$basic_string@DU?$char_traits@D@std@@V?$allocator@D@2@@std@@@2@@std@@QAEX$$QAV?$basic_string@DU?$char_traits@D@std@@V?$allocator@D@2@@2@@Z PROC ; std::vector<std::basic_string<char,std::char_traits<char>,std::allocator<char> >,std::allocator<std::basic_string<char,std::char_traits<char>,std::allocator<char> > > >::push_back, COMDAT
; _this$ = ecx

; 631  : 		{	// insert element at end

  00000	55		 push	 ebp
  00001	8b ec		 mov	 ebp, esp
  00003	56		 push	 esi
  00004	8b f1		 mov	 esi, ecx

; 632  : 		if (_Inside(_STD addressof(_Val)))

  00006	8b 4e 04	 mov	 ecx, DWORD PTR [esi+4]
  00009	57		 push	 edi
  0000a	8b 7d 08	 mov	 edi, DWORD PTR __Val$[ebp]
  0000d	3b f9		 cmp	 edi, ecx
  0000f	73 27		 jae	 SHORT $LN4@push_back
  00011	8b 16		 mov	 edx, DWORD PTR [esi]
  00013	3b d7		 cmp	 edx, edi
  00015	77 21		 ja	 SHORT $LN4@push_back

; 633  : 			{	// push back an element
; 634  : 			size_type _Idx = _STD addressof(_Val) - this->_Myfirst;

  00017	8b c7		 mov	 eax, edi
  00019	2b c2		 sub	 eax, edx
  0001b	6a 1c		 push	 28			; 0000001cH
  0001d	99		 cdq
  0001e	5f		 pop	 edi
  0001f	f7 ff		 idiv	 edi
  00021	8b f8		 mov	 edi, eax

; 635  : 			if (this->_Mylast == this->_Myend)

  00023	3b 4e 08	 cmp	 ecx, DWORD PTR [esi+8]
  00026	75 09		 jne	 SHORT $LN3@push_back

; 636  : 				_Reserve(1);

  00028	6a 01		 push	 1
  0002a	8b ce		 mov	 ecx, esi
  0002c	e8 00 00 00 00	 call	 ?_Reserve@?$vector@V?$basic_string@DU?$char_traits@D@std@@V?$allocator@D@2@@std@@V?$allocator@V?$basic_string@DU?$char_traits@D@std@@V?$allocator@D@2@@std@@@2@@std@@IAEXI@Z ; std::vector<std::basic_string<char,std::char_traits<char>,std::allocator<char> >,std::allocator<std::basic_string<char,std::char_traits<char>,std::allocator<char> > > >::_Reserve
$LN3@push_back:

; 637  : 			_Orphan_range(this->_Mylast, this->_Mylast);
; 638  : 			_Cons_val(this->_Alval,
; 639  : 				this->_Mylast,
; 640  : 				_STD forward<_Ty>(this->_Myfirst[_Idx]));

  00031	6b ff 1c	 imul	 edi, 28			; 0000001cH
  00034	03 3e		 add	 edi, DWORD PTR [esi]

; 641  : 			++this->_Mylast;
; 642  : 			}
; 643  : 		else

  00036	eb 0e		 jmp	 SHORT $LN1@push_back
$LN4@push_back:

; 644  : 			{	// push back a non-element
; 645  : 			if (this->_Mylast == this->_Myend)

  00038	3b 4e 08	 cmp	 ecx, DWORD PTR [esi+8]
  0003b	75 09		 jne	 SHORT $LN1@push_back

; 646  : 				_Reserve(1);

  0003d	6a 01		 push	 1
  0003f	8b ce		 mov	 ecx, esi
  00041	e8 00 00 00 00	 call	 ?_Reserve@?$vector@V?$basic_string@DU?$char_traits@D@std@@V?$allocator@D@2@@std@@V?$allocator@V?$basic_string@DU?$char_traits@D@std@@V?$allocator@D@2@@std@@@2@@std@@IAEXI@Z ; std::vector<std::basic_string<char,std::char_traits<char>,std::allocator<char> >,std::allocator<std::basic_string<char,std::char_traits<char>,std::allocator<char> > > >::_Reserve
$LN1@push_back:

; 647  : 			_Orphan_range(this->_Mylast, this->_Mylast);
; 648  : 			_Cons_val(this->_Alval,
; 649  : 				this->_Mylast,
; 650  : 				_STD forward<_Ty>(_Val));

  00046	57		 push	 edi
  00047	ff 76 04	 push	 DWORD PTR [esi+4]
  0004a	8d 46 0c	 lea	 eax, DWORD PTR [esi+12]
  0004d	50		 push	 eax
  0004e	e8 00 00 00 00	 call	 ??$_Cons_val@V?$allocator@V?$basic_string@DU?$char_traits@D@std@@V?$allocator@D@2@@std@@@std@@V?$basic_string@DU?$char_traits@D@std@@V?$allocator@D@2@@2@V32@@std@@YAXAAV?$allocator@V?$basic_string@DU?$char_traits@D@std@@V?$allocator@D@2@@std@@@0@PAV?$basic_string@DU?$char_traits@D@std@@V?$allocator@D@2@@0@$$QAV20@@Z ; std::_Cons_val<std::allocator<std::basic_string<char,std::char_traits<char>,std::allocator<char> > >,std::basic_string<char,std::char_traits<char>,std::allocator<char> >,std::basic_string<char,std::char_traits<char>,std::allocator<char> > >
  00053	83 c4 0c	 add	 esp, 12			; 0000000cH

; 651  : 			++this->_Mylast;

  00056	83 46 04 1c	 add	 DWORD PTR [esi+4], 28	; 0000001cH
  0005a	5f		 pop	 edi
  0005b	5e		 pop	 esi

; 652  : 			}
; 653  : 		}

  0005c	5d		 pop	 ebp
  0005d	c2 04 00	 ret	 4
?push_back@?$vector@V?$basic_string@DU?$char_traits@D@std@@V?$allocator@D@2@@std@@V?$allocator@V?$basic_string@DU?$char_traits@D@std@@V?$allocator@D@2@@std@@@2@@std@@QAEX$$QAV?$basic_string@DU?$char_traits@D@std@@V?$allocator@D@2@@2@@Z ENDP ; std::vector<std::basic_string<char,std::char_traits<char>,std::allocator<char> >,std::allocator<std::basic_string<char,std::char_traits<char>,std::allocator<char> > > >::push_back
_TEXT	ENDS
PUBLIC	??_C@_0CC@EPMPHAMG@GameOptionSpecTab?3?3OpenScreenLis@ ; `string'
PUBLIC	_pOpenBtn$GSCopy$
PUBLIC	_this$GSCopy$
PUBLIC	?OpenScreenList@GameOptionSpecTab@@IAEXPAVioWnd@@@Z ; GameOptionSpecTab::OpenScreenList
EXTRN	?OpenList@StringSelectList@@QAEXPAVioWnd@@AAV?$vector@V?$basic_string@DU?$char_traits@D@std@@V?$allocator@D@2@@std@@V?$allocator@V?$basic_string@DU?$char_traits@D@std@@V?$allocator@D@2@@std@@@2@@std@@HK@Z:PROC ; StringSelectList::OpenList
;	COMDAT ??_C@_0CC@EPMPHAMG@GameOptionSpecTab?3?3OpenScreenLis@
CONST	SEGMENT
??_C@_0CC@EPMPHAMG@GameOptionSpecTab?3?3OpenScreenLis@ DB 'GameOptionSpec'
	DB	'Tab::OpenScreenList', 00H			; `string'
CONST	ENDS
;	COMDAT xdata$x
xdata$x	SEGMENT
__unwindtable$?OpenScreenList@GameOptionSpecTab@@IAEXPAVioWnd@@@Z DD 0ffffffffH
	DD	FLAT:__unwindfunclet$?OpenScreenList@GameOptionSpecTab@@IAEXPAVioWnd@@@Z$0
	DD	00H
	DD	FLAT:__unwindfunclet$?OpenScreenList@GameOptionSpecTab@@IAEXPAVioWnd@@@Z$1
	DD	00H
	DD	FLAT:__unwindfunclet$?OpenScreenList@GameOptionSpecTab@@IAEXPAVioWnd@@@Z$2
__ehfuncinfo$?OpenScreenList@GameOptionSpecTab@@IAEXPAVioWnd@@@Z DD 019930522H
	DD	03H
	DD	FLAT:__unwindtable$?OpenScreenList@GameOptionSpecTab@@IAEXPAVioWnd@@@Z
	DD	2 DUP(00H)
	DD	2 DUP(00H)
	DD	00H
	DD	01H
; Function compile flags: /Ogsp
; File d:\lost saga for developer\youtube\tutorial\source\src\lsclient\gui\gameoptionwnd.cpp
xdata$x	ENDS
;	COMDAT ?OpenScreenList@GameOptionSpecTab@@IAEXPAVioWnd@@@Z
_TEXT	SEGMENT
_pOpenBtn$GSCopy$ = -72					; size = 4
_this$GSCopy$ = -68					; size = 4
_vNameList$535535 = -64					; size = 16
_pList$ = -48						; size = 4
$T535538 = -44						; size = 28
$T535536 = -44						; size = 28
__$EHRec$ = -12						; size = 12
_pOpenBtn$ = 8						; size = 4
?OpenScreenList@GameOptionSpecTab@@IAEXPAVioWnd@@@Z PROC ; GameOptionSpecTab::OpenScreenList, COMDAT
; _this$ = ecx

; 1041 : {

  00000	6a 3c		 push	 60			; 0000003cH
  00002	b8 00 00 00 00	 mov	 eax, __ehhandler$?OpenScreenList@GameOptionSpecTab@@IAEXPAVioWnd@@@Z
  00007	e8 00 00 00 00	 call	 __EH_prolog3_GS
  0000c	8b 45 08	 mov	 eax, DWORD PTR _pOpenBtn$[ebp]

; 1042 : 	StringSelectList *pList = (StringSelectList*)FindChildWnd( ID_SCREEN_LIST );

  0000f	68 92 0e 00 00	 push	 3730			; 00000e92H
  00014	89 4d bc	 mov	 DWORD PTR _this$GSCopy$[ebp], ecx
  00017	89 45 b8	 mov	 DWORD PTR _pOpenBtn$GSCopy$[ebp], eax
  0001a	ff 15 00 00 00
	00		 call	 DWORD PTR __imp_?FindChildWnd@ioWnd@@QAEPAV1@K@Z

; 1043 : 	if( pList )

  00020	33 db		 xor	 ebx, ebx
  00022	89 45 d0	 mov	 DWORD PTR _pList$[ebp], eax
  00025	3b c3		 cmp	 eax, ebx
  00027	0f 84 df 00 00
	00		 je	 $LN75@OpenScreen

; 1044 : 	{
; 1045 : 		StringVector vNameList;

  0002d	89 5d c0	 mov	 DWORD PTR _vNameList$535535[ebp], ebx
  00030	89 5d c4	 mov	 DWORD PTR _vNameList$535535[ebp+4], ebx
  00033	89 5d c8	 mov	 DWORD PTR _vNameList$535535[ebp+8], ebx

; 1046 : 		vNameList.reserve( 2 );

  00036	6a 02		 push	 2
  00038	8d 4d c0	 lea	 ecx, DWORD PTR _vNameList$535535[ebp]
  0003b	89 5d fc	 mov	 DWORD PTR __$EHRec$[ebp+8], ebx
  0003e	e8 00 00 00 00	 call	 ?reserve@?$vector@V?$basic_string@DU?$char_traits@D@std@@V?$allocator@D@2@@std@@V?$allocator@V?$basic_string@DU?$char_traits@D@std@@V?$allocator@D@2@@std@@@2@@std@@QAEXI@Z ; std::vector<std::basic_string<char,std::char_traits<char>,std::allocator<char> >,std::allocator<std::basic_string<char,std::char_traits<char>,std::allocator<char> > > >::reserve

; 1047 : 		vNameList.push_back( std::string( STR(1) ) );

  00043	8b 35 00 00 00
	00		 mov	 esi, DWORD PTR __imp_?GetSingleton@ioStringManager@@SAAAV1@XZ
  00049	53		 push	 ebx
  0004a	6a 01		 push	 1
  0004c	68 00 00 00 00	 push	 OFFSET ??_C@_00CNPNBAHC@?$AA@
  00051	68 00 00 00 00	 push	 OFFSET ??_C@_0CC@EPMPHAMG@GameOptionSpecTab?3?3OpenScreenLis@
  00056	ff d6		 call	 esi
  00058	8b 3d 00 00 00
	00		 mov	 edi, DWORD PTR __imp_?GetString@ioStringManager@@QAEPADPBD0HW4FileNamePrefix@1@@Z
  0005e	8b c8		 mov	 ecx, eax
  00060	ff d7		 call	 edi
  00062	50		 push	 eax
  00063	8d 4d d4	 lea	 ecx, DWORD PTR $T535536[ebp]
  00066	c7 45 e8 0f 00
	00 00		 mov	 DWORD PTR $T535536[ebp+20], 15 ; 0000000fH
  0006d	89 5d e4	 mov	 DWORD PTR $T535536[ebp+16], ebx
  00070	88 5d d4	 mov	 BYTE PTR $T535536[ebp], bl
  00073	e8 00 00 00 00	 call	 ?assign@?$basic_string@DU?$char_traits@D@std@@V?$allocator@D@2@@std@@QAEAAV12@PBD@Z ; std::basic_string<char,std::char_traits<char>,std::allocator<char> >::assign
  00078	8d 45 d4	 lea	 eax, DWORD PTR $T535536[ebp]
  0007b	50		 push	 eax
  0007c	8d 4d c0	 lea	 ecx, DWORD PTR _vNameList$535535[ebp]
  0007f	c6 45 fc 01	 mov	 BYTE PTR __$EHRec$[ebp+8], 1
  00083	e8 00 00 00 00	 call	 ?push_back@?$vector@V?$basic_string@DU?$char_traits@D@std@@V?$allocator@D@2@@std@@V?$allocator@V?$basic_string@DU?$char_traits@D@std@@V?$allocator@D@2@@std@@@2@@std@@QAEX$$QAV?$basic_string@DU?$char_traits@D@std@@V?$allocator@D@2@@2@@Z ; std::vector<std::basic_string<char,std::char_traits<char>,std::allocator<char> >,std::allocator<std::basic_string<char,std::char_traits<char>,std::allocator<char> > > >::push_back
  00088	53		 push	 ebx
  00089	6a 01		 push	 1
  0008b	8d 4d d4	 lea	 ecx, DWORD PTR $T535536[ebp]
  0008e	88 5d fc	 mov	 BYTE PTR __$EHRec$[ebp+8], bl
  00091	e8 00 00 00 00	 call	 ?_Tidy@?$basic_string@DU?$char_traits@D@std@@V?$allocator@D@2@@std@@QAEX_NI@Z ; std::basic_string<char,std::char_traits<char>,std::allocator<char> >::_Tidy

; 1048 : 		vNameList.push_back( std::string( STR(2) ) );

  00096	53		 push	 ebx
  00097	6a 02		 push	 2
  00099	68 00 00 00 00	 push	 OFFSET ??_C@_00CNPNBAHC@?$AA@
  0009e	68 00 00 00 00	 push	 OFFSET ??_C@_0CC@EPMPHAMG@GameOptionSpecTab?3?3OpenScreenLis@
  000a3	ff d6		 call	 esi
  000a5	8b c8		 mov	 ecx, eax
  000a7	ff d7		 call	 edi
  000a9	50		 push	 eax
  000aa	8d 4d d4	 lea	 ecx, DWORD PTR $T535538[ebp]
  000ad	c7 45 e8 0f 00
	00 00		 mov	 DWORD PTR $T535538[ebp+20], 15 ; 0000000fH
  000b4	89 5d e4	 mov	 DWORD PTR $T535538[ebp+16], ebx
  000b7	88 5d d4	 mov	 BYTE PTR $T535538[ebp], bl
  000ba	e8 00 00 00 00	 call	 ?assign@?$basic_string@DU?$char_traits@D@std@@V?$allocator@D@2@@std@@QAEAAV12@PBD@Z ; std::basic_string<char,std::char_traits<char>,std::allocator<char> >::assign
  000bf	8d 45 d4	 lea	 eax, DWORD PTR $T535538[ebp]
  000c2	50		 push	 eax
  000c3	8d 4d c0	 lea	 ecx, DWORD PTR _vNameList$535535[ebp]
  000c6	c6 45 fc 02	 mov	 BYTE PTR __$EHRec$[ebp+8], 2
  000ca	e8 00 00 00 00	 call	 ?push_back@?$vector@V?$basic_string@DU?$char_traits@D@std@@V?$allocator@D@2@@std@@V?$allocator@V?$basic_string@DU?$char_traits@D@std@@V?$allocator@D@2@@std@@@2@@std@@QAEX$$QAV?$basic_string@DU?$char_traits@D@std@@V?$allocator@D@2@@2@@Z ; std::vector<std::basic_string<char,std::char_traits<char>,std::allocator<char> >,std::allocator<std::basic_string<char,std::char_traits<char>,std::allocator<char> > > >::push_back
  000cf	53		 push	 ebx
  000d0	6a 01		 push	 1
  000d2	8d 4d d4	 lea	 ecx, DWORD PTR $T535538[ebp]
  000d5	88 5d fc	 mov	 BYTE PTR __$EHRec$[ebp+8], bl
  000d8	e8 00 00 00 00	 call	 ?_Tidy@?$basic_string@DU?$char_traits@D@std@@V?$allocator@D@2@@std@@QAEX_NI@Z ; std::basic_string<char,std::char_traits<char>,std::allocator<char> >::_Tidy

; 1049 : 		pList->OpenList( pOpenBtn, vNameList, (int)(!m_CurrentOption.m_bFullScreen), IO_SCREEN_MODE_CHANGE );

  000dd	8b 4d bc	 mov	 ecx, DWORD PTR _this$GSCopy$[ebp]
  000e0	33 c0		 xor	 eax, eax
  000e2	38 99 64 01 00
	00		 cmp	 BYTE PTR [ecx+356], bl
  000e8	8b 4d d0	 mov	 ecx, DWORD PTR _pList$[ebp]
  000eb	0f 94 c0	 sete	 al
  000ee	68 0e 10 00 00	 push	 4110			; 0000100eH
  000f3	50		 push	 eax
  000f4	8d 45 c0	 lea	 eax, DWORD PTR _vNameList$535535[ebp]
  000f7	50		 push	 eax
  000f8	ff 75 b8	 push	 DWORD PTR _pOpenBtn$GSCopy$[ebp]
  000fb	e8 00 00 00 00	 call	 ?OpenList@StringSelectList@@QAEXPAVioWnd@@AAV?$vector@V?$basic_string@DU?$char_traits@D@std@@V?$allocator@D@2@@std@@V?$allocator@V?$basic_string@DU?$char_traits@D@std@@V?$allocator@D@2@@std@@@2@@std@@HK@Z ; StringSelectList::OpenList

; 1050 : 	}

  00100	83 4d fc ff	 or	 DWORD PTR __$EHRec$[ebp+8], -1
  00104	8d 4d c0	 lea	 ecx, DWORD PTR _vNameList$535535[ebp]
  00107	e8 00 00 00 00	 call	 ?_Tidy@?$vector@V?$basic_string@DU?$char_traits@D@std@@V?$allocator@D@2@@std@@V?$allocator@V?$basic_string@DU?$char_traits@D@std@@V?$allocator@D@2@@std@@@2@@std@@IAEXXZ ; std::vector<std::basic_string<char,std::char_traits<char>,std::allocator<char> >,std::allocator<std::basic_string<char,std::char_traits<char>,std::allocator<char> > > >::_Tidy
$LN75@OpenScreen:

; 1051 : }

  0010c	e8 00 00 00 00	 call	 __EH_epilog3_GS
  00111	c2 04 00	 ret	 4
_TEXT	ENDS
;	COMDAT text$x
text$x	SEGMENT
__unwindfunclet$?OpenScreenList@GameOptionSpecTab@@IAEXPAVioWnd@@@Z$0:
  00000	8d 4d c0	 lea	 ecx, DWORD PTR _vNameList$535535[ebp]
  00003	e9 00 00 00 00	 jmp	 ??1?$vector@V?$basic_string@DU?$char_traits@D@std@@V?$allocator@D@2@@std@@V?$allocator@V?$basic_string@DU?$char_traits@D@std@@V?$allocator@D@2@@std@@@2@@std@@QAE@XZ ; std::vector<std::basic_string<char,std::char_traits<char>,std::allocator<char> >,std::allocator<std::basic_string<char,std::char_traits<char>,std::allocator<char> > > >::~vector<std::basic_string<char,std::char_traits<char>,std::allocator<char> >,std::allocator<std::basic_string<char,std::char_traits<char>,std::allocator<char> > > >
__unwindfunclet$?OpenScreenList@GameOptionSpecTab@@IAEXPAVioWnd@@@Z$1:
  00008	8d 4d d4	 lea	 ecx, DWORD PTR $T535536[ebp]
  0000b	e9 00 00 00 00	 jmp	 ??1?$basic_string@DU?$char_traits@D@std@@V?$allocator@D@2@@std@@QAE@XZ ; std::basic_string<char,std::char_traits<char>,std::allocator<char> >::~basic_string<char,std::char_traits<char>,std::allocator<char> >
__unwindfunclet$?OpenScreenList@GameOptionSpecTab@@IAEXPAVioWnd@@@Z$2:
  00010	8d 4d d4	 lea	 ecx, DWORD PTR $T535538[ebp]
  00013	e9 00 00 00 00	 jmp	 ??1?$basic_string@DU?$char_traits@D@std@@V?$allocator@D@2@@std@@QAE@XZ ; std::basic_string<char,std::char_traits<char>,std::allocator<char> >::~basic_string<char,std::char_traits<char>,std::allocator<char> >
__ehhandler$?OpenScreenList@GameOptionSpecTab@@IAEXPAVioWnd@@@Z:
  00018	8b 54 24 08	 mov	 edx, DWORD PTR [esp+8]
  0001c	8d 42 0c	 lea	 eax, DWORD PTR [edx+12]
  0001f	8b 4a b4	 mov	 ecx, DWORD PTR [edx-76]
  00022	33 c8		 xor	 ecx, eax
  00024	e8 00 00 00 00	 call	 @__security_check_cookie@4
  00029	8b 4a fc	 mov	 ecx, DWORD PTR [edx-4]
  0002c	33 c8		 xor	 ecx, eax
  0002e	e8 00 00 00 00	 call	 @__security_check_cookie@4
  00033	b8 00 00 00 00	 mov	 eax, OFFSET __ehfuncinfo$?OpenScreenList@GameOptionSpecTab@@IAEXPAVioWnd@@@Z
  00038	e9 00 00 00 00	 jmp	 ___CxxFrameHandler3
text$x	ENDS
?OpenScreenList@GameOptionSpecTab@@IAEXPAVioWnd@@@Z ENDP ; GameOptionSpecTab::OpenScreenList
PUBLIC	??_C@_0CC@CHELOCDA@GameOptionSpecTab?3?3OpenFilterLis@ ; `string'
PUBLIC	_pOpenBtn$GSCopy$
PUBLIC	_this$GSCopy$
PUBLIC	?OpenFilterList@GameOptionSpecTab@@IAEXPAVioWnd@@@Z ; GameOptionSpecTab::OpenFilterList
;	COMDAT ??_C@_0CC@CHELOCDA@GameOptionSpecTab?3?3OpenFilterLis@
; File c:\program files (x86)\microsoft visual studio 10.0\vc\include\vector
CONST	SEGMENT
??_C@_0CC@CHELOCDA@GameOptionSpecTab?3?3OpenFilterLis@ DB 'GameOptionSpec'
	DB	'Tab::OpenFilterList', 00H			; `string'
CONST	ENDS
;	COMDAT xdata$x
xdata$x	SEGMENT
__ehfuncinfo$?OpenFilterList@GameOptionSpecTab@@IAEXPAVioWnd@@@Z DD 019930522H
	DD	08H
	DD	FLAT:__unwindtable$?OpenFilterList@GameOptionSpecTab@@IAEXPAVioWnd@@@Z
	DD	2 DUP(00H)
	DD	2 DUP(00H)
	DD	00H
	DD	01H
__unwindtable$?OpenFilterList@GameOptionSpecTab@@IAEXPAVioWnd@@@Z DD 0ffffffffH
	DD	FLAT:__unwindfunclet$?OpenFilterList@GameOptionSpecTab@@IAEXPAVioWnd@@@Z$0
	DD	00H
	DD	FLAT:__unwindfunclet$?OpenFilterList@GameOptionSpecTab@@IAEXPAVioWnd@@@Z$1
	DD	00H
	DD	FLAT:__unwindfunclet$?OpenFilterList@GameOptionSpecTab@@IAEXPAVioWnd@@@Z$2
	DD	00H
	DD	FLAT:__unwindfunclet$?OpenFilterList@GameOptionSpecTab@@IAEXPAVioWnd@@@Z$3
	DD	00H
	DD	FLAT:__unwindfunclet$?OpenFilterList@GameOptionSpecTab@@IAEXPAVioWnd@@@Z$4
	DD	00H
	DD	FLAT:__unwindfunclet$?OpenFilterList@GameOptionSpecTab@@IAEXPAVioWnd@@@Z$5
	DD	00H
	DD	FLAT:__unwindfunclet$?OpenFilterList@GameOptionSpecTab@@IAEXPAVioWnd@@@Z$6
	DD	00H
	DD	FLAT:__unwindfunclet$?OpenFilterList@GameOptionSpecTab@@IAEXPAVioWnd@@@Z$7
; Function compile flags: /Ogsp
; File d:\lost saga for developer\youtube\tutorial\source\src\lsclient\gui\gameoptionwnd.cpp
xdata$x	ENDS
;	COMDAT ?OpenFilterList@GameOptionSpecTab@@IAEXPAVioWnd@@@Z
_TEXT	SEGMENT
_this$GSCopy$ = -72					; size = 4
_pOpenBtn$GSCopy$ = -68					; size = 4
_pList$ = -64						; size = 4
_vNameList$535568 = -60					; size = 16
$T535581 = -44						; size = 28
$T535579 = -44						; size = 28
$T535577 = -44						; size = 28
$T535575 = -44						; size = 28
$T535573 = -44						; size = 28
$T535571 = -44						; size = 28
$T535569 = -44						; size = 28
__$EHRec$ = -12						; size = 12
_pOpenBtn$ = 8						; size = 4
?OpenFilterList@GameOptionSpecTab@@IAEXPAVioWnd@@@Z PROC ; GameOptionSpecTab::OpenFilterList, COMDAT
; _this$ = ecx

; 1098 : {

  00000	6a 3c		 push	 60			; 0000003cH
  00002	b8 00 00 00 00	 mov	 eax, __ehhandler$?OpenFilterList@GameOptionSpecTab@@IAEXPAVioWnd@@@Z
  00007	e8 00 00 00 00	 call	 __EH_prolog3_GS
  0000c	8b 45 08	 mov	 eax, DWORD PTR _pOpenBtn$[ebp]

; 1099 : 	StringSelectList *pList = (StringSelectList*)FindChildWnd( ID_FILTER_LIST );

  0000f	68 7e 0e 00 00	 push	 3710			; 00000e7eH
  00014	89 4d b8	 mov	 DWORD PTR _this$GSCopy$[ebp], ecx
  00017	89 45 bc	 mov	 DWORD PTR _pOpenBtn$GSCopy$[ebp], eax
  0001a	ff 15 00 00 00
	00		 call	 DWORD PTR __imp_?FindChildWnd@ioWnd@@QAEPAV1@K@Z

; 1100 : 	if( pList )

  00020	33 db		 xor	 ebx, ebx
  00022	89 45 c0	 mov	 DWORD PTR _pList$[ebp], eax
  00025	3b c3		 cmp	 eax, ebx
  00027	0f 84 cc 01 00
	00		 je	 $LN254@OpenFilter

; 1101 : 	{
; 1102 : 		StringVector vNameList;

  0002d	89 5d c4	 mov	 DWORD PTR _vNameList$535568[ebp], ebx
  00030	89 5d c8	 mov	 DWORD PTR _vNameList$535568[ebp+4], ebx
  00033	89 5d cc	 mov	 DWORD PTR _vNameList$535568[ebp+8], ebx

; 1103 : 		vNameList.reserve( 7 );

  00036	6a 07		 push	 7
  00038	8d 4d c4	 lea	 ecx, DWORD PTR _vNameList$535568[ebp]
  0003b	89 5d fc	 mov	 DWORD PTR __$EHRec$[ebp+8], ebx
  0003e	e8 00 00 00 00	 call	 ?reserve@?$vector@V?$basic_string@DU?$char_traits@D@std@@V?$allocator@D@2@@std@@V?$allocator@V?$basic_string@DU?$char_traits@D@std@@V?$allocator@D@2@@std@@@2@@std@@QAEXI@Z ; std::vector<std::basic_string<char,std::char_traits<char>,std::allocator<char> >,std::allocator<std::basic_string<char,std::char_traits<char>,std::allocator<char> > > >::reserve

; 1104 : 
; 1105 : 		vNameList.push_back( std::string( STR(1) ) );

  00043	53		 push	 ebx
  00044	33 ff		 xor	 edi, edi
  00046	47		 inc	 edi
  00047	57		 push	 edi
  00048	68 00 00 00 00	 push	 OFFSET ??_C@_00CNPNBAHC@?$AA@
  0004d	68 00 00 00 00	 push	 OFFSET ??_C@_0CC@CHELOCDA@GameOptionSpecTab?3?3OpenFilterLis@
  00052	ff 15 00 00 00
	00		 call	 DWORD PTR __imp_?GetSingleton@ioStringManager@@SAAAV1@XZ
  00058	8b c8		 mov	 ecx, eax
  0005a	ff 15 00 00 00
	00		 call	 DWORD PTR __imp_?GetString@ioStringManager@@QAEPADPBD0HW4FileNamePrefix@1@@Z
  00060	6a 0f		 push	 15			; 0000000fH
  00062	5e		 pop	 esi
  00063	50		 push	 eax
  00064	8d 4d d4	 lea	 ecx, DWORD PTR $T535569[ebp]
  00067	89 75 e8	 mov	 DWORD PTR $T535569[ebp+20], esi
  0006a	89 5d e4	 mov	 DWORD PTR $T535569[ebp+16], ebx
  0006d	88 5d d4	 mov	 BYTE PTR $T535569[ebp], bl
  00070	e8 00 00 00 00	 call	 ?assign@?$basic_string@DU?$char_traits@D@std@@V?$allocator@D@2@@std@@QAEAAV12@PBD@Z ; std::basic_string<char,std::char_traits<char>,std::allocator<char> >::assign
  00075	8d 45 d4	 lea	 eax, DWORD PTR $T535569[ebp]
  00078	50		 push	 eax
  00079	8d 4d c4	 lea	 ecx, DWORD PTR _vNameList$535568[ebp]
  0007c	c6 45 fc 01	 mov	 BYTE PTR __$EHRec$[ebp+8], 1
  00080	e8 00 00 00 00	 call	 ?push_back@?$vector@V?$basic_string@DU?$char_traits@D@std@@V?$allocator@D@2@@std@@V?$allocator@V?$basic_string@DU?$char_traits@D@std@@V?$allocator@D@2@@std@@@2@@std@@QAEX$$QAV?$basic_string@DU?$char_traits@D@std@@V?$allocator@D@2@@2@@Z ; std::vector<std::basic_string<char,std::char_traits<char>,std::allocator<char> >,std::allocator<std::basic_string<char,std::char_traits<char>,std::allocator<char> > > >::push_back
  00085	53		 push	 ebx
  00086	57		 push	 edi
  00087	8d 4d d4	 lea	 ecx, DWORD PTR $T535569[ebp]
  0008a	88 5d fc	 mov	 BYTE PTR __$EHRec$[ebp+8], bl
  0008d	e8 00 00 00 00	 call	 ?_Tidy@?$basic_string@DU?$char_traits@D@std@@V?$allocator@D@2@@std@@QAEX_NI@Z ; std::basic_string<char,std::char_traits<char>,std::allocator<char> >::_Tidy

; 1106 : 		vNameList.push_back( std::string( "GRAY 40" ) );

  00092	6a 07		 push	 7
  00094	68 00 00 00 00	 push	 OFFSET ??_C@_07KANOLDAO@GRAY?540?$AA@
  00099	8d 4d d4	 lea	 ecx, DWORD PTR $T535571[ebp]
  0009c	89 75 e8	 mov	 DWORD PTR $T535571[ebp+20], esi
  0009f	89 5d e4	 mov	 DWORD PTR $T535571[ebp+16], ebx
  000a2	88 5d d4	 mov	 BYTE PTR $T535571[ebp], bl
  000a5	e8 00 00 00 00	 call	 ?assign@?$basic_string@DU?$char_traits@D@std@@V?$allocator@D@2@@std@@QAEAAV12@PBDI@Z ; std::basic_string<char,std::char_traits<char>,std::allocator<char> >::assign
  000aa	8d 45 d4	 lea	 eax, DWORD PTR $T535571[ebp]
  000ad	50		 push	 eax
  000ae	8d 4d c4	 lea	 ecx, DWORD PTR _vNameList$535568[ebp]
  000b1	c6 45 fc 02	 mov	 BYTE PTR __$EHRec$[ebp+8], 2
  000b5	e8 00 00 00 00	 call	 ?push_back@?$vector@V?$basic_string@DU?$char_traits@D@std@@V?$allocator@D@2@@std@@V?$allocator@V?$basic_string@DU?$char_traits@D@std@@V?$allocator@D@2@@std@@@2@@std@@QAEX$$QAV?$basic_string@DU?$char_traits@D@std@@V?$allocator@D@2@@2@@Z ; std::vector<std::basic_string<char,std::char_traits<char>,std::allocator<char> >,std::allocator<std::basic_string<char,std::char_traits<char>,std::allocator<char> > > >::push_back
  000ba	53		 push	 ebx
  000bb	57		 push	 edi
  000bc	8d 4d d4	 lea	 ecx, DWORD PTR $T535571[ebp]
  000bf	88 5d fc	 mov	 BYTE PTR __$EHRec$[ebp+8], bl
  000c2	e8 00 00 00 00	 call	 ?_Tidy@?$basic_string@DU?$char_traits@D@std@@V?$allocator@D@2@@std@@QAEX_NI@Z ; std::basic_string<char,std::char_traits<char>,std::allocator<char> >::_Tidy

; 1107 : 		vNameList.push_back( std::string( "GRAY 80" ) );

  000c7	6a 07		 push	 7
  000c9	68 00 00 00 00	 push	 OFFSET ??_C@_07KJMEEKGK@GRAY?580?$AA@
  000ce	8d 4d d4	 lea	 ecx, DWORD PTR $T535573[ebp]
  000d1	89 75 e8	 mov	 DWORD PTR $T535573[ebp+20], esi
  000d4	89 5d e4	 mov	 DWORD PTR $T535573[ebp+16], ebx
  000d7	88 5d d4	 mov	 BYTE PTR $T535573[ebp], bl
  000da	e8 00 00 00 00	 call	 ?assign@?$basic_string@DU?$char_traits@D@std@@V?$allocator@D@2@@std@@QAEAAV12@PBDI@Z ; std::basic_string<char,std::char_traits<char>,std::allocator<char> >::assign
  000df	8d 45 d4	 lea	 eax, DWORD PTR $T535573[ebp]
  000e2	50		 push	 eax
  000e3	8d 4d c4	 lea	 ecx, DWORD PTR _vNameList$535568[ebp]
  000e6	c6 45 fc 03	 mov	 BYTE PTR __$EHRec$[ebp+8], 3
  000ea	e8 00 00 00 00	 call	 ?push_back@?$vector@V?$basic_string@DU?$char_traits@D@std@@V?$allocator@D@2@@std@@V?$allocator@V?$basic_string@DU?$char_traits@D@std@@V?$allocator@D@2@@std@@@2@@std@@QAEX$$QAV?$basic_string@DU?$char_traits@D@std@@V?$allocator@D@2@@2@@Z ; std::vector<std::basic_string<char,std::char_traits<char>,std::allocator<char> >,std::allocator<std::basic_string<char,std::char_traits<char>,std::allocator<char> > > >::push_back
  000ef	53		 push	 ebx
  000f0	57		 push	 edi
  000f1	8d 4d d4	 lea	 ecx, DWORD PTR $T535573[ebp]
  000f4	88 5d fc	 mov	 BYTE PTR __$EHRec$[ebp+8], bl
  000f7	e8 00 00 00 00	 call	 ?_Tidy@?$basic_string@DU?$char_traits@D@std@@V?$allocator@D@2@@std@@QAEX_NI@Z ; std::basic_string<char,std::char_traits<char>,std::allocator<char> >::_Tidy

; 1108 : 		vNameList.push_back( std::string( "GRAY 100" ) );

  000fc	6a 08		 push	 8
  000fe	68 00 00 00 00	 push	 OFFSET ??_C@_08PIADFHF@GRAY?5100?$AA@
  00103	8d 4d d4	 lea	 ecx, DWORD PTR $T535575[ebp]
  00106	89 75 e8	 mov	 DWORD PTR $T535575[ebp+20], esi
  00109	89 5d e4	 mov	 DWORD PTR $T535575[ebp+16], ebx
  0010c	88 5d d4	 mov	 BYTE PTR $T535575[ebp], bl
  0010f	e8 00 00 00 00	 call	 ?assign@?$basic_string@DU?$char_traits@D@std@@V?$allocator@D@2@@std@@QAEAAV12@PBDI@Z ; std::basic_string<char,std::char_traits<char>,std::allocator<char> >::assign
  00114	c6 45 fc 04	 mov	 BYTE PTR __$EHRec$[ebp+8], 4
  00118	8d 45 d4	 lea	 eax, DWORD PTR $T535575[ebp]
  0011b	50		 push	 eax
  0011c	8d 4d c4	 lea	 ecx, DWORD PTR _vNameList$535568[ebp]
  0011f	e8 00 00 00 00	 call	 ?push_back@?$vector@V?$basic_string@DU?$char_traits@D@std@@V?$allocator@D@2@@std@@V?$allocator@V?$basic_string@DU?$char_traits@D@std@@V?$allocator@D@2@@std@@@2@@std@@QAEX$$QAV?$basic_string@DU?$char_traits@D@std@@V?$allocator@D@2@@2@@Z ; std::vector<std::basic_string<char,std::char_traits<char>,std::allocator<char> >,std::allocator<std::basic_string<char,std::char_traits<char>,std::allocator<char> > > >::push_back
  00124	53		 push	 ebx
  00125	57		 push	 edi
  00126	8d 4d d4	 lea	 ecx, DWORD PTR $T535575[ebp]
  00129	88 5d fc	 mov	 BYTE PTR __$EHRec$[ebp+8], bl
  0012c	e8 00 00 00 00	 call	 ?_Tidy@?$basic_string@DU?$char_traits@D@std@@V?$allocator@D@2@@std@@QAEX_NI@Z ; std::basic_string<char,std::char_traits<char>,std::allocator<char> >::_Tidy

; 1109 : 		vNameList.push_back( std::string( "SEPIA 40" ) );

  00131	6a 08		 push	 8
  00133	68 00 00 00 00	 push	 OFFSET ??_C@_08BFDENAA@SEPIA?540?$AA@
  00138	8d 4d d4	 lea	 ecx, DWORD PTR $T535577[ebp]
  0013b	89 75 e8	 mov	 DWORD PTR $T535577[ebp+20], esi
  0013e	89 5d e4	 mov	 DWORD PTR $T535577[ebp+16], ebx
  00141	88 5d d4	 mov	 BYTE PTR $T535577[ebp], bl
  00144	e8 00 00 00 00	 call	 ?assign@?$basic_string@DU?$char_traits@D@std@@V?$allocator@D@2@@std@@QAEAAV12@PBDI@Z ; std::basic_string<char,std::char_traits<char>,std::allocator<char> >::assign
  00149	8d 45 d4	 lea	 eax, DWORD PTR $T535577[ebp]
  0014c	50		 push	 eax
  0014d	8d 4d c4	 lea	 ecx, DWORD PTR _vNameList$535568[ebp]
  00150	c6 45 fc 05	 mov	 BYTE PTR __$EHRec$[ebp+8], 5
  00154	e8 00 00 00 00	 call	 ?push_back@?$vector@V?$basic_string@DU?$char_traits@D@std@@V?$allocator@D@2@@std@@V?$allocator@V?$basic_string@DU?$char_traits@D@std@@V?$allocator@D@2@@std@@@2@@std@@QAEX$$QAV?$basic_string@DU?$char_traits@D@std@@V?$allocator@D@2@@2@@Z ; std::vector<std::basic_string<char,std::char_traits<char>,std::allocator<char> >,std::allocator<std::basic_string<char,std::char_traits<char>,std::allocator<char> > > >::push_back
  00159	53		 push	 ebx
  0015a	57		 push	 edi
  0015b	8d 4d d4	 lea	 ecx, DWORD PTR $T535577[ebp]
  0015e	88 5d fc	 mov	 BYTE PTR __$EHRec$[ebp+8], bl
  00161	e8 00 00 00 00	 call	 ?_Tidy@?$basic_string@DU?$char_traits@D@std@@V?$allocator@D@2@@std@@QAEX_NI@Z ; std::basic_string<char,std::char_traits<char>,std::allocator<char> >::_Tidy

; 1110 : 		vNameList.push_back( std::string( "SEPIA 80" ) );

  00166	6a 08		 push	 8
  00168	68 00 00 00 00	 push	 OFFSET ??_C@_08IEJLEGE@SEPIA?580?$AA@
  0016d	8d 4d d4	 lea	 ecx, DWORD PTR $T535579[ebp]
  00170	89 75 e8	 mov	 DWORD PTR $T535579[ebp+20], esi
  00173	89 5d e4	 mov	 DWORD PTR $T535579[ebp+16], ebx
  00176	88 5d d4	 mov	 BYTE PTR $T535579[ebp], bl
  00179	e8 00 00 00 00	 call	 ?assign@?$basic_string@DU?$char_traits@D@std@@V?$allocator@D@2@@std@@QAEAAV12@PBDI@Z ; std::basic_string<char,std::char_traits<char>,std::allocator<char> >::assign
  0017e	8d 45 d4	 lea	 eax, DWORD PTR $T535579[ebp]
  00181	50		 push	 eax
  00182	8d 4d c4	 lea	 ecx, DWORD PTR _vNameList$535568[ebp]
  00185	c6 45 fc 06	 mov	 BYTE PTR __$EHRec$[ebp+8], 6
  00189	e8 00 00 00 00	 call	 ?push_back@?$vector@V?$basic_string@DU?$char_traits@D@std@@V?$allocator@D@2@@std@@V?$allocator@V?$basic_string@DU?$char_traits@D@std@@V?$allocator@D@2@@std@@@2@@std@@QAEX$$QAV?$basic_string@DU?$char_traits@D@std@@V?$allocator@D@2@@2@@Z ; std::vector<std::basic_string<char,std::char_traits<char>,std::allocator<char> >,std::allocator<std::basic_string<char,std::char_traits<char>,std::allocator<char> > > >::push_back
  0018e	53		 push	 ebx
  0018f	57		 push	 edi
  00190	8d 4d d4	 lea	 ecx, DWORD PTR $T535579[ebp]
  00193	88 5d fc	 mov	 BYTE PTR __$EHRec$[ebp+8], bl
  00196	e8 00 00 00 00	 call	 ?_Tidy@?$basic_string@DU?$char_traits@D@std@@V?$allocator@D@2@@std@@QAEX_NI@Z ; std::basic_string<char,std::char_traits<char>,std::allocator<char> >::_Tidy

; 1111 : 		vNameList.push_back( std::string( "SEPIA 100" ) );

  0019b	6a 09		 push	 9
  0019d	68 00 00 00 00	 push	 OFFSET ??_C@_09OIJJJFIM@SEPIA?5100?$AA@
  001a2	8d 4d d4	 lea	 ecx, DWORD PTR $T535581[ebp]
  001a5	89 75 e8	 mov	 DWORD PTR $T535581[ebp+20], esi
  001a8	89 5d e4	 mov	 DWORD PTR $T535581[ebp+16], ebx
  001ab	88 5d d4	 mov	 BYTE PTR $T535581[ebp], bl
  001ae	e8 00 00 00 00	 call	 ?assign@?$basic_string@DU?$char_traits@D@std@@V?$allocator@D@2@@std@@QAEAAV12@PBDI@Z ; std::basic_string<char,std::char_traits<char>,std::allocator<char> >::assign
  001b3	8d 45 d4	 lea	 eax, DWORD PTR $T535581[ebp]
  001b6	50		 push	 eax
  001b7	8d 4d c4	 lea	 ecx, DWORD PTR _vNameList$535568[ebp]
  001ba	c6 45 fc 07	 mov	 BYTE PTR __$EHRec$[ebp+8], 7
  001be	e8 00 00 00 00	 call	 ?push_back@?$vector@V?$basic_string@DU?$char_traits@D@std@@V?$allocator@D@2@@std@@V?$allocator@V?$basic_string@DU?$char_traits@D@std@@V?$allocator@D@2@@std@@@2@@std@@QAEX$$QAV?$basic_string@DU?$char_traits@D@std@@V?$allocator@D@2@@2@@Z ; std::vector<std::basic_string<char,std::char_traits<char>,std::allocator<char> >,std::allocator<std::basic_string<char,std::char_traits<char>,std::allocator<char> > > >::push_back
  001c3	53		 push	 ebx
  001c4	57		 push	 edi
  001c5	8d 4d d4	 lea	 ecx, DWORD PTR $T535581[ebp]
  001c8	88 5d fc	 mov	 BYTE PTR __$EHRec$[ebp+8], bl
  001cb	e8 00 00 00 00	 call	 ?_Tidy@?$basic_string@DU?$char_traits@D@std@@V?$allocator@D@2@@std@@QAEX_NI@Z ; std::basic_string<char,std::char_traits<char>,std::allocator<char> >::_Tidy

; 1112 : 
; 1113 : 		pList->OpenList( pOpenBtn, vNameList, (int)m_CurrentOption.m_FilterType, IO_FILTER_CHANGE );

  001d0	8b 45 b8	 mov	 eax, DWORD PTR _this$GSCopy$[ebp]
  001d3	8b 4d c0	 mov	 ecx, DWORD PTR _pList$[ebp]
  001d6	68 0b 10 00 00	 push	 4107			; 0000100bH
  001db	ff b0 84 01 00
	00		 push	 DWORD PTR [eax+388]
  001e1	8d 45 c4	 lea	 eax, DWORD PTR _vNameList$535568[ebp]
  001e4	50		 push	 eax
  001e5	ff 75 bc	 push	 DWORD PTR _pOpenBtn$GSCopy$[ebp]
  001e8	e8 00 00 00 00	 call	 ?OpenList@StringSelectList@@QAEXPAVioWnd@@AAV?$vector@V?$basic_string@DU?$char_traits@D@std@@V?$allocator@D@2@@std@@V?$allocator@V?$basic_string@DU?$char_traits@D@std@@V?$allocator@D@2@@std@@@2@@std@@HK@Z ; StringSelectList::OpenList

; 1114 : 	}

  001ed	83 4d fc ff	 or	 DWORD PTR __$EHRec$[ebp+8], -1
  001f1	8d 4d c4	 lea	 ecx, DWORD PTR _vNameList$535568[ebp]
  001f4	e8 00 00 00 00	 call	 ?_Tidy@?$vector@V?$basic_string@DU?$char_traits@D@std@@V?$allocator@D@2@@std@@V?$allocator@V?$basic_string@DU?$char_traits@D@std@@V?$allocator@D@2@@std@@@2@@std@@IAEXXZ ; std::vector<std::basic_string<char,std::char_traits<char>,std::allocator<char> >,std::allocator<std::basic_string<char,std::char_traits<char>,std::allocator<char> > > >::_Tidy
$LN254@OpenFilter:

; 1115 : }

  001f9	e8 00 00 00 00	 call	 __EH_epilog3_GS
  001fe	c2 04 00	 ret	 4
_TEXT	ENDS
;	COMDAT text$x
text$x	SEGMENT
__unwindfunclet$?OpenFilterList@GameOptionSpecTab@@IAEXPAVioWnd@@@Z$0:
  00000	8d 4d c4	 lea	 ecx, DWORD PTR _vNameList$535568[ebp]
  00003	e9 00 00 00 00	 jmp	 ??1?$vector@V?$basic_string@DU?$char_traits@D@std@@V?$allocator@D@2@@std@@V?$allocator@V?$basic_string@DU?$char_traits@D@std@@V?$allocator@D@2@@std@@@2@@std@@QAE@XZ ; std::vector<std::basic_string<char,std::char_traits<char>,std::allocator<char> >,std::allocator<std::basic_string<char,std::char_traits<char>,std::allocator<char> > > >::~vector<std::basic_string<char,std::char_traits<char>,std::allocator<char> >,std::allocator<std::basic_string<char,std::char_traits<char>,std::allocator<char> > > >
__unwindfunclet$?OpenFilterList@GameOptionSpecTab@@IAEXPAVioWnd@@@Z$1:
  00008	8d 4d d4	 lea	 ecx, DWORD PTR $T535569[ebp]
  0000b	e9 00 00 00 00	 jmp	 ??1?$basic_string@DU?$char_traits@D@std@@V?$allocator@D@2@@std@@QAE@XZ ; std::basic_string<char,std::char_traits<char>,std::allocator<char> >::~basic_string<char,std::char_traits<char>,std::allocator<char> >
__unwindfunclet$?OpenFilterList@GameOptionSpecTab@@IAEXPAVioWnd@@@Z$2:
  00010	8d 4d d4	 lea	 ecx, DWORD PTR $T535571[ebp]
  00013	e9 00 00 00 00	 jmp	 ??1?$basic_string@DU?$char_traits@D@std@@V?$allocator@D@2@@std@@QAE@XZ ; std::basic_string<char,std::char_traits<char>,std::allocator<char> >::~basic_string<char,std::char_traits<char>,std::allocator<char> >
__unwindfunclet$?OpenFilterList@GameOptionSpecTab@@IAEXPAVioWnd@@@Z$3:
  00018	8d 4d d4	 lea	 ecx, DWORD PTR $T535573[ebp]
  0001b	e9 00 00 00 00	 jmp	 ??1?$basic_string@DU?$char_traits@D@std@@V?$allocator@D@2@@std@@QAE@XZ ; std::basic_string<char,std::char_traits<char>,std::allocator<char> >::~basic_string<char,std::char_traits<char>,std::allocator<char> >
__unwindfunclet$?OpenFilterList@GameOptionSpecTab@@IAEXPAVioWnd@@@Z$4:
  00020	8d 4d d4	 lea	 ecx, DWORD PTR $T535575[ebp]
  00023	e9 00 00 00 00	 jmp	 ??1?$basic_string@DU?$char_traits@D@std@@V?$allocator@D@2@@std@@QAE@XZ ; std::basic_string<char,std::char_traits<char>,std::allocator<char> >::~basic_string<char,std::char_traits<char>,std::allocator<char> >
__unwindfunclet$?OpenFilterList@GameOptionSpecTab@@IAEXPAVioWnd@@@Z$5:
  00028	8d 4d d4	 lea	 ecx, DWORD PTR $T535577[ebp]
  0002b	e9 00 00 00 00	 jmp	 ??1?$basic_string@DU?$char_traits@D@std@@V?$allocator@D@2@@std@@QAE@XZ ; std::basic_string<char,std::char_traits<char>,std::allocator<char> >::~basic_string<char,std::char_traits<char>,std::allocator<char> >
__unwindfunclet$?OpenFilterList@GameOptionSpecTab@@IAEXPAVioWnd@@@Z$6:
  00030	8d 4d d4	 lea	 ecx, DWORD PTR $T535579[ebp]
  00033	e9 00 00 00 00	 jmp	 ??1?$basic_string@DU?$char_traits@D@std@@V?$allocator@D@2@@std@@QAE@XZ ; std::basic_string<char,std::char_traits<char>,std::allocator<char> >::~basic_string<char,std::char_traits<char>,std::allocator<char> >
__unwindfunclet$?OpenFilterList@GameOptionSpecTab@@IAEXPAVioWnd@@@Z$7:
  00038	8d 4d d4	 lea	 ecx, DWORD PTR $T535581[ebp]
  0003b	e9 00 00 00 00	 jmp	 ??1?$basic_string@DU?$char_traits@D@std@@V?$allocator@D@2@@std@@QAE@XZ ; std::basic_string<char,std::char_traits<char>,std::allocator<char> >::~basic_string<char,std::char_traits<char>,std::allocator<char> >
__ehhandler$?OpenFilterList@GameOptionSpecTab@@IAEXPAVioWnd@@@Z:
  00040	8b 54 24 08	 mov	 edx, DWORD PTR [esp+8]
  00044	8d 42 0c	 lea	 eax, DWORD PTR [edx+12]
  00047	8b 4a b4	 mov	 ecx, DWORD PTR [edx-76]
  0004a	33 c8		 xor	 ecx, eax
  0004c	e8 00 00 00 00	 call	 @__security_check_cookie@4
  00051	8b 4a fc	 mov	 ecx, DWORD PTR [edx-4]
  00054	33 c8		 xor	 ecx, eax
  00056	e8 00 00 00 00	 call	 @__security_check_cookie@4
  0005b	b8 00 00 00 00	 mov	 eax, OFFSET __ehfuncinfo$?OpenFilterList@GameOptionSpecTab@@IAEXPAVioWnd@@@Z
  00060	e9 00 00 00 00	 jmp	 ___CxxFrameHandler3
text$x	ENDS
?OpenFilterList@GameOptionSpecTab@@IAEXPAVioWnd@@@Z ENDP ; GameOptionSpecTab::OpenFilterList
PUBLIC	??_C@_0CC@HOOHGNNM@GameOptionSpecTab?3?3OpenOverayLis@ ; `string'
PUBLIC	_pOpenBtn$GSCopy$
PUBLIC	?OpenOverayList@GameOptionSpecTab@@IAEXPAVioWnd@@@Z ; GameOptionSpecTab::OpenOverayList
;	COMDAT ??_C@_0CC@HOOHGNNM@GameOptionSpecTab?3?3OpenOverayLis@
; File c:\program files (x86)\microsoft visual studio 10.0\vc\include\vector
CONST	SEGMENT
??_C@_0CC@HOOHGNNM@GameOptionSpecTab?3?3OpenOverayLis@ DB 'GameOptionSpec'
	DB	'Tab::OpenOverayList', 00H			; `string'
CONST	ENDS
;	COMDAT xdata$x
xdata$x	SEGMENT
__unwindtable$?OpenOverayList@GameOptionSpecTab@@IAEXPAVioWnd@@@Z DD 0ffffffffH
	DD	FLAT:__unwindfunclet$?OpenOverayList@GameOptionSpecTab@@IAEXPAVioWnd@@@Z$0
	DD	00H
	DD	FLAT:__unwindfunclet$?OpenOverayList@GameOptionSpecTab@@IAEXPAVioWnd@@@Z$1
	DD	00H
	DD	FLAT:__unwindfunclet$?OpenOverayList@GameOptionSpecTab@@IAEXPAVioWnd@@@Z$2
	DD	00H
	DD	FLAT:__unwindfunclet$?OpenOverayList@GameOptionSpecTab@@IAEXPAVioWnd@@@Z$3
__ehfuncinfo$?OpenOverayList@GameOptionSpecTab@@IAEXPAVioWnd@@@Z DD 019930522H
	DD	04H
	DD	FLAT:__unwindtable$?OpenOverayList@GameOptionSpecTab@@IAEXPAVioWnd@@@Z
	DD	2 DUP(00H)
	DD	2 DUP(00H)
	DD	00H
	DD	01H
; Function compile flags: /Ogsp
; File d:\lost saga for developer\youtube\tutorial\source\src\lsclient\gui\gameoptionwnd.cpp
xdata$x	ENDS
;	COMDAT ?OpenOverayList@GameOptionSpecTab@@IAEXPAVioWnd@@@Z
_TEXT	SEGMENT
_pOpenBtn$GSCopy$ = -68					; size = 4
_pList$ = -64						; size = 4
_vNameList$535617 = -60					; size = 16
$T535622 = -44						; size = 28
$T535620 = -44						; size = 28
$T535618 = -44						; size = 28
__$EHRec$ = -12						; size = 12
_pOpenBtn$ = 8						; size = 4
?OpenOverayList@GameOptionSpecTab@@IAEXPAVioWnd@@@Z PROC ; GameOptionSpecTab::OpenOverayList, COMDAT
; _this$ = ecx

; 1170 : {

  00000	6a 38		 push	 56			; 00000038H
  00002	b8 00 00 00 00	 mov	 eax, __ehhandler$?OpenOverayList@GameOptionSpecTab@@IAEXPAVioWnd@@@Z
  00007	e8 00 00 00 00	 call	 __EH_prolog3_GS
  0000c	8b 45 08	 mov	 eax, DWORD PTR _pOpenBtn$[ebp]

; 1171 : 	StringSelectList *pList = (StringSelectList*)FindChildWnd( ID_OVERAY_LIST );

  0000f	68 88 0e 00 00	 push	 3720			; 00000e88H
  00014	8b f9		 mov	 edi, ecx
  00016	89 45 bc	 mov	 DWORD PTR _pOpenBtn$GSCopy$[ebp], eax
  00019	ff 15 00 00 00
	00		 call	 DWORD PTR __imp_?FindChildWnd@ioWnd@@QAEPAV1@K@Z

; 1172 : 	if( pList )

  0001f	33 db		 xor	 ebx, ebx
  00021	89 45 c0	 mov	 DWORD PTR _pList$[ebp], eax
  00024	3b c3		 cmp	 eax, ebx
  00026	0f 84 f6 00 00
	00		 je	 $LN114@OpenOveray

; 1173 : 	{
; 1174 : 		StringVector vNameList;

  0002c	89 5d c4	 mov	 DWORD PTR _vNameList$535617[ebp], ebx
  0002f	89 5d c8	 mov	 DWORD PTR _vNameList$535617[ebp+4], ebx
  00032	89 5d cc	 mov	 DWORD PTR _vNameList$535617[ebp+8], ebx

; 1175 : 		vNameList.reserve( 3 );

  00035	6a 03		 push	 3
  00037	8d 4d c4	 lea	 ecx, DWORD PTR _vNameList$535617[ebp]
  0003a	89 5d fc	 mov	 DWORD PTR __$EHRec$[ebp+8], ebx
  0003d	e8 00 00 00 00	 call	 ?reserve@?$vector@V?$basic_string@DU?$char_traits@D@std@@V?$allocator@D@2@@std@@V?$allocator@V?$basic_string@DU?$char_traits@D@std@@V?$allocator@D@2@@std@@@2@@std@@QAEXI@Z ; std::vector<std::basic_string<char,std::char_traits<char>,std::allocator<char> >,std::allocator<std::basic_string<char,std::char_traits<char>,std::allocator<char> > > >::reserve

; 1176 : 
; 1177 : 		vNameList.push_back( std::string( STR(1) ) );

  00042	53		 push	 ebx
  00043	6a 01		 push	 1
  00045	68 00 00 00 00	 push	 OFFSET ??_C@_00CNPNBAHC@?$AA@
  0004a	68 00 00 00 00	 push	 OFFSET ??_C@_0CC@HOOHGNNM@GameOptionSpecTab?3?3OpenOverayLis@
  0004f	ff 15 00 00 00
	00		 call	 DWORD PTR __imp_?GetSingleton@ioStringManager@@SAAAV1@XZ
  00055	8b c8		 mov	 ecx, eax
  00057	ff 15 00 00 00
	00		 call	 DWORD PTR __imp_?GetString@ioStringManager@@QAEPADPBD0HW4FileNamePrefix@1@@Z
  0005d	6a 0f		 push	 15			; 0000000fH
  0005f	5e		 pop	 esi
  00060	50		 push	 eax
  00061	8d 4d d4	 lea	 ecx, DWORD PTR $T535618[ebp]
  00064	89 75 e8	 mov	 DWORD PTR $T535618[ebp+20], esi
  00067	89 5d e4	 mov	 DWORD PTR $T535618[ebp+16], ebx
  0006a	88 5d d4	 mov	 BYTE PTR $T535618[ebp], bl
  0006d	e8 00 00 00 00	 call	 ?assign@?$basic_string@DU?$char_traits@D@std@@V?$allocator@D@2@@std@@QAEAAV12@PBD@Z ; std::basic_string<char,std::char_traits<char>,std::allocator<char> >::assign
  00072	8d 45 d4	 lea	 eax, DWORD PTR $T535618[ebp]
  00075	50		 push	 eax
  00076	8d 4d c4	 lea	 ecx, DWORD PTR _vNameList$535617[ebp]
  00079	c6 45 fc 01	 mov	 BYTE PTR __$EHRec$[ebp+8], 1
  0007d	e8 00 00 00 00	 call	 ?push_back@?$vector@V?$basic_string@DU?$char_traits@D@std@@V?$allocator@D@2@@std@@V?$allocator@V?$basic_string@DU?$char_traits@D@std@@V?$allocator@D@2@@std@@@2@@std@@QAEX$$QAV?$basic_string@DU?$char_traits@D@std@@V?$allocator@D@2@@2@@Z ; std::vector<std::basic_string<char,std::char_traits<char>,std::allocator<char> >,std::allocator<std::basic_string<char,std::char_traits<char>,std::allocator<char> > > >::push_back
  00082	53		 push	 ebx
  00083	6a 01		 push	 1
  00085	8d 4d d4	 lea	 ecx, DWORD PTR $T535618[ebp]
  00088	88 5d fc	 mov	 BYTE PTR __$EHRec$[ebp+8], bl
  0008b	e8 00 00 00 00	 call	 ?_Tidy@?$basic_string@DU?$char_traits@D@std@@V?$allocator@D@2@@std@@QAEX_NI@Z ; std::basic_string<char,std::char_traits<char>,std::allocator<char> >::_Tidy

; 1178 : 		vNameList.push_back( std::string( "BLACK" ) );

  00090	6a 05		 push	 5
  00092	68 00 00 00 00	 push	 OFFSET ??_C@_05NDFHNKHM@BLACK?$AA@
  00097	8d 4d d4	 lea	 ecx, DWORD PTR $T535620[ebp]
  0009a	89 75 e8	 mov	 DWORD PTR $T535620[ebp+20], esi
  0009d	89 5d e4	 mov	 DWORD PTR $T535620[ebp+16], ebx
  000a0	88 5d d4	 mov	 BYTE PTR $T535620[ebp], bl
  000a3	e8 00 00 00 00	 call	 ?assign@?$basic_string@DU?$char_traits@D@std@@V?$allocator@D@2@@std@@QAEAAV12@PBDI@Z ; std::basic_string<char,std::char_traits<char>,std::allocator<char> >::assign
  000a8	8d 45 d4	 lea	 eax, DWORD PTR $T535620[ebp]
  000ab	50		 push	 eax
  000ac	8d 4d c4	 lea	 ecx, DWORD PTR _vNameList$535617[ebp]
  000af	c6 45 fc 02	 mov	 BYTE PTR __$EHRec$[ebp+8], 2
  000b3	e8 00 00 00 00	 call	 ?push_back@?$vector@V?$basic_string@DU?$char_traits@D@std@@V?$allocator@D@2@@std@@V?$allocator@V?$basic_string@DU?$char_traits@D@std@@V?$allocator@D@2@@std@@@2@@std@@QAEX$$QAV?$basic_string@DU?$char_traits@D@std@@V?$allocator@D@2@@2@@Z ; std::vector<std::basic_string<char,std::char_traits<char>,std::allocator<char> >,std::allocator<std::basic_string<char,std::char_traits<char>,std::allocator<char> > > >::push_back
  000b8	53		 push	 ebx
  000b9	6a 01		 push	 1
  000bb	8d 4d d4	 lea	 ecx, DWORD PTR $T535620[ebp]
  000be	88 5d fc	 mov	 BYTE PTR __$EHRec$[ebp+8], bl
  000c1	e8 00 00 00 00	 call	 ?_Tidy@?$basic_string@DU?$char_traits@D@std@@V?$allocator@D@2@@std@@QAEX_NI@Z ; std::basic_string<char,std::char_traits<char>,std::allocator<char> >::_Tidy

; 1179 : 		vNameList.push_back( std::string( "WHITE" ) );

  000c6	6a 05		 push	 5
  000c8	68 00 00 00 00	 push	 OFFSET ??_C@_05DHJCFPAA@WHITE?$AA@
  000cd	8d 4d d4	 lea	 ecx, DWORD PTR $T535622[ebp]
  000d0	89 75 e8	 mov	 DWORD PTR $T535622[ebp+20], esi
  000d3	89 5d e4	 mov	 DWORD PTR $T535622[ebp+16], ebx
  000d6	88 5d d4	 mov	 BYTE PTR $T535622[ebp], bl
  000d9	e8 00 00 00 00	 call	 ?assign@?$basic_string@DU?$char_traits@D@std@@V?$allocator@D@2@@std@@QAEAAV12@PBDI@Z ; std::basic_string<char,std::char_traits<char>,std::allocator<char> >::assign
  000de	8d 45 d4	 lea	 eax, DWORD PTR $T535622[ebp]
  000e1	50		 push	 eax
  000e2	8d 4d c4	 lea	 ecx, DWORD PTR _vNameList$535617[ebp]
  000e5	c6 45 fc 03	 mov	 BYTE PTR __$EHRec$[ebp+8], 3
  000e9	e8 00 00 00 00	 call	 ?push_back@?$vector@V?$basic_string@DU?$char_traits@D@std@@V?$allocator@D@2@@std@@V?$allocator@V?$basic_string@DU?$char_traits@D@std@@V?$allocator@D@2@@std@@@2@@std@@QAEX$$QAV?$basic_string@DU?$char_traits@D@std@@V?$allocator@D@2@@2@@Z ; std::vector<std::basic_string<char,std::char_traits<char>,std::allocator<char> >,std::allocator<std::basic_string<char,std::char_traits<char>,std::allocator<char> > > >::push_back
  000ee	53		 push	 ebx
  000ef	6a 01		 push	 1
  000f1	8d 4d d4	 lea	 ecx, DWORD PTR $T535622[ebp]
  000f4	88 5d fc	 mov	 BYTE PTR __$EHRec$[ebp+8], bl
  000f7	e8 00 00 00 00	 call	 ?_Tidy@?$basic_string@DU?$char_traits@D@std@@V?$allocator@D@2@@std@@QAEX_NI@Z ; std::basic_string<char,std::char_traits<char>,std::allocator<char> >::_Tidy

; 1180 : 
; 1181 : 		pList->OpenList( pOpenBtn, vNameList, (int)m_CurrentOption.m_OverayType, IO_OVERAY_CHANGE );

  000fc	8b 4d c0	 mov	 ecx, DWORD PTR _pList$[ebp]
  000ff	68 0c 10 00 00	 push	 4108			; 0000100cH
  00104	ff b7 88 01 00
	00		 push	 DWORD PTR [edi+392]
  0010a	8d 45 c4	 lea	 eax, DWORD PTR _vNameList$535617[ebp]
  0010d	50		 push	 eax
  0010e	ff 75 bc	 push	 DWORD PTR _pOpenBtn$GSCopy$[ebp]
  00111	e8 00 00 00 00	 call	 ?OpenList@StringSelectList@@QAEXPAVioWnd@@AAV?$vector@V?$basic_string@DU?$char_traits@D@std@@V?$allocator@D@2@@std@@V?$allocator@V?$basic_string@DU?$char_traits@D@std@@V?$allocator@D@2@@std@@@2@@std@@HK@Z ; StringSelectList::OpenList

; 1182 : 	}

  00116	83 4d fc ff	 or	 DWORD PTR __$EHRec$[ebp+8], -1
  0011a	8d 4d c4	 lea	 ecx, DWORD PTR _vNameList$535617[ebp]
  0011d	e8 00 00 00 00	 call	 ?_Tidy@?$vector@V?$basic_string@DU?$char_traits@D@std@@V?$allocator@D@2@@std@@V?$allocator@V?$basic_string@DU?$char_traits@D@std@@V?$allocator@D@2@@std@@@2@@std@@IAEXXZ ; std::vector<std::basic_string<char,std::char_traits<char>,std::allocator<char> >,std::allocator<std::basic_string<char,std::char_traits<char>,std::allocator<char> > > >::_Tidy
$LN114@OpenOveray:

; 1183 : }

  00122	e8 00 00 00 00	 call	 __EH_epilog3_GS
  00127	c2 04 00	 ret	 4
_TEXT	ENDS
;	COMDAT text$x
text$x	SEGMENT
__unwindfunclet$?OpenOverayList@GameOptionSpecTab@@IAEXPAVioWnd@@@Z$0:
  00000	8d 4d c4	 lea	 ecx, DWORD PTR _vNameList$535617[ebp]
  00003	e9 00 00 00 00	 jmp	 ??1?$vector@V?$basic_string@DU?$char_traits@D@std@@V?$allocator@D@2@@std@@V?$allocator@V?$basic_string@DU?$char_traits@D@std@@V?$allocator@D@2@@std@@@2@@std@@QAE@XZ ; std::vector<std::basic_string<char,std::char_traits<char>,std::allocator<char> >,std::allocator<std::basic_string<char,std::char_traits<char>,std::allocator<char> > > >::~vector<std::basic_string<char,std::char_traits<char>,std::allocator<char> >,std::allocator<std::basic_string<char,std::char_traits<char>,std::allocator<char> > > >
__unwindfunclet$?OpenOverayList@GameOptionSpecTab@@IAEXPAVioWnd@@@Z$1:
  00008	8d 4d d4	 lea	 ecx, DWORD PTR $T535618[ebp]
  0000b	e9 00 00 00 00	 jmp	 ??1?$basic_string@DU?$char_traits@D@std@@V?$allocator@D@2@@std@@QAE@XZ ; std::basic_string<char,std::char_traits<char>,std::allocator<char> >::~basic_string<char,std::char_traits<char>,std::allocator<char> >
__unwindfunclet$?OpenOverayList@GameOptionSpecTab@@IAEXPAVioWnd@@@Z$2:
  00010	8d 4d d4	 lea	 ecx, DWORD PTR $T535620[ebp]
  00013	e9 00 00 00 00	 jmp	 ??1?$basic_string@DU?$char_traits@D@std@@V?$allocator@D@2@@std@@QAE@XZ ; std::basic_string<char,std::char_traits<char>,std::allocator<char> >::~basic_string<char,std::char_traits<char>,std::allocator<char> >
__unwindfunclet$?OpenOverayList@GameOptionSpecTab@@IAEXPAVioWnd@@@Z$3:
  00018	8d 4d d4	 lea	 ecx, DWORD PTR $T535622[ebp]
  0001b	e9 00 00 00 00	 jmp	 ??1?$basic_string@DU?$char_traits@D@std@@V?$allocator@D@2@@std@@QAE@XZ ; std::basic_string<char,std::char_traits<char>,std::allocator<char> >::~basic_string<char,std::char_traits<char>,std::allocator<char> >
__ehhandler$?OpenOverayList@GameOptionSpecTab@@IAEXPAVioWnd@@@Z:
  00020	8b 54 24 08	 mov	 edx, DWORD PTR [esp+8]
  00024	8d 42 0c	 lea	 eax, DWORD PTR [edx+12]
  00027	8b 4a b8	 mov	 ecx, DWORD PTR [edx-72]
  0002a	33 c8		 xor	 ecx, eax
  0002c	e8 00 00 00 00	 call	 @__security_check_cookie@4
  00031	8b 4a fc	 mov	 ecx, DWORD PTR [edx-4]
  00034	33 c8		 xor	 ecx, eax
  00036	e8 00 00 00 00	 call	 @__security_check_cookie@4
  0003b	b8 00 00 00 00	 mov	 eax, OFFSET __ehfuncinfo$?OpenOverayList@GameOptionSpecTab@@IAEXPAVioWnd@@@Z
  00040	e9 00 00 00 00	 jmp	 ___CxxFrameHandler3
text$x	ENDS
?OpenOverayList@GameOptionSpecTab@@IAEXPAVioWnd@@@Z ENDP ; GameOptionSpecTab::OpenOverayList
PUBLIC	??_C@_0BP@BENDCCDH@GameOptionSpecTab?3?3iwm_command?$AA@ ; `string'
EXTRN	__imp_?HasWndStyle@ioWnd@@QBE_NK@Z:PROC
EXTRN	?ToggleMovieCapture@ioMovieMaker@@QAE_NXZ:PROC	; ioMovieMaker::ToggleMovieCapture
EXTRN	?GetSingleton@ioMovieMaker@@SAAAV1@XZ:PROC	; ioMovieMaker::GetSingleton
EXTRN	?GetOwnerChar@ioPlayStage@@QAEPAVioBaseChar@@XZ:PROC ; ioPlayStage::GetOwnerChar
EXTRN	?GetModeType@ioPlayStage@@QBE?AW4ModeType@@XZ:PROC ; ioPlayStage::GetModeType
EXTRN	__imp_?ShowWnd@ioGUIManager@@QAEXK_N@Z:PROC
EXTRN	?CheckHardwareSpec@Setting@@SA?AW4Spec@1@XZ:PROC ; Setting::CheckHardwareSpec
;	COMDAT ??_C@_0BP@BENDCCDH@GameOptionSpecTab?3?3iwm_command?$AA@
; File d:\lost saga for developer\youtube\tutorial\source\src\lsclient\ioapplication.h
CONST	SEGMENT
??_C@_0BP@BENDCCDH@GameOptionSpecTab?3?3iwm_command?$AA@ DB 'GameOptionSp'
	DB	'ecTab::iwm_command', 00H			; `string'
; Function compile flags: /Ogsp
; File d:\lost saga for developer\youtube\tutorial\source\src\lsclient\gui\gameoptionwnd.cpp
CONST	ENDS
;	COMDAT ?iwm_command@GameOptionSpecTab@@UAEXPAVioWnd@@HK@Z
_TEXT	SEGMENT
_pWnd$ = 8						; size = 4
_cmd$ = 12						; size = 4
_param$ = 16						; size = 4
?iwm_command@GameOptionSpecTab@@UAEXPAVioWnd@@HK@Z PROC	; GameOptionSpecTab::iwm_command, COMDAT
; _this$ = ecx

; 1259 : {

  00000	55		 push	 ebp
  00001	8b ec		 mov	 ebp, esp
  00003	53		 push	 ebx
  00004	56		 push	 esi
  00005	57		 push	 edi

; 1260 : 	DWORD dwID = pWnd->GetID();

  00006	8b 7d 08	 mov	 edi, DWORD PTR _pWnd$[ebp]
  00009	8b f1		 mov	 esi, ecx
  0000b	8b cf		 mov	 ecx, edi
  0000d	ff 15 00 00 00
	00		 call	 DWORD PTR __imp_?GetID@ioWnd@@QBEKXZ

; 1261 : 
; 1262 : 	switch( dwID )

  00013	83 f8 2d	 cmp	 eax, 45			; 0000002dH
  00016	0f 87 ed 01 00
	00		 ja	 $LN93@iwm_comman@4
  0001c	0f 84 d2 01 00
	00		 je	 $LN30@iwm_comman@4
  00022	83 f8 15	 cmp	 eax, 21			; 00000015H
  00025	0f 87 00 01 00
	00		 ja	 $LN94@iwm_comman@4
  0002b	0f 84 e5 00 00
	00		 je	 $LN32@iwm_comman@4
  00031	83 f8 0e	 cmp	 eax, 14			; 0000000eH
  00034	0f 87 82 00 00
	00		 ja	 $LN95@iwm_comman@4
  0003a	83 f8 0b	 cmp	 eax, 11			; 0000000bH
  0003d	73 66		 jae	 SHORT $LN76@iwm_comman@4
  0003f	85 c0		 test	 eax, eax
  00041	0f 84 9b 05 00
	00		 je	 $LN77@iwm_comman@4
  00047	83 f8 06	 cmp	 eax, 6
  0004a	76 42		 jbe	 SHORT $LN86@iwm_comman@4
  0004c	83 f8 09	 cmp	 eax, 9
  0004f	74 26		 je	 SHORT $LN82@iwm_comman@4
  00051	83 f8 0a	 cmp	 eax, 10			; 0000000aH
  00054	0f 85 88 05 00
	00		 jne	 $LN77@iwm_comman@4

; 1435 : 	case ID_TRAIL_GLOW:
; 1436 : 		if( cmd == IOBN_BTNUP )

  0005a	83 7d 0c 11	 cmp	 DWORD PTR _cmd$[ebp], 17 ; 00000011H
  0005e	0f 85 7e 05 00
	00		 jne	 $LN77@iwm_comman@4

; 1437 : 		{
; 1438 : 			SetOnOffOption( m_CurrentOption.m_bTrailGlow );

  00064	8d 86 68 01 00
	00		 lea	 eax, DWORD PTR [esi+360]
$LN111@iwm_comman@4:
  0006a	50		 push	 eax
  0006b	8b ce		 mov	 ecx, esi
  0006d	e8 00 00 00 00	 call	 ?SetOnOffOption@GameOptionSpecTab@@IAEXAA_N@Z ; GameOptionSpecTab::SetOnOffOption

; 1439 : 		}
; 1440 : 		break;

  00072	e9 6b 05 00 00	 jmp	 $LN77@iwm_comman@4
$LN82@iwm_comman@4:

; 1281 : 	case ID_RESOLUTION_BOX:
; 1282 : 		if( cmd == IOBN_BTNUP )

  00077	83 7d 0c 11	 cmp	 DWORD PTR _cmd$[ebp], 17 ; 00000011H
  0007b	0f 85 61 05 00
	00		 jne	 $LN77@iwm_comman@4

; 1283 : 		{
; 1284 : 			OpenResolutionList( pWnd );

  00081	57		 push	 edi
  00082	8b ce		 mov	 ecx, esi
  00084	e8 00 00 00 00	 call	 ?OpenResolutionList@GameOptionSpecTab@@IAEXPAVioWnd@@@Z ; GameOptionSpecTab::OpenResolutionList

; 1285 : 		}
; 1286 : 		break;

  00089	e9 54 05 00 00	 jmp	 $LN77@iwm_comman@4
$LN86@iwm_comman@4:

; 1263 : 	{
; 1264 : 	case ID_VERY_HIGH_SPEC:
; 1265 : 	case ID_HIGH_SPEC:
; 1266 : 	case ID_MIDDLE_SPEC:
; 1267 : 	case ID_LOW_SPEC:
; 1268 : 	case ID_MINIMUM_SPEC:
; 1269 : 	case ID_CUSTOM_SPEC:
; 1270 : 		if( cmd == IOBN_BTNUP )

  0008e	83 7d 0c 11	 cmp	 DWORD PTR _cmd$[ebp], 17 ; 00000011H
  00092	0f 85 4a 05 00
	00		 jne	 $LN77@iwm_comman@4

; 1271 : 		{
; 1272 : 			SetSpecOption( dwID );

  00098	50		 push	 eax
  00099	8b ce		 mov	 ecx, esi
  0009b	e8 00 00 00 00	 call	 ?SetSpecOption@GameOptionSpecTab@@IAEXK@Z ; GameOptionSpecTab::SetSpecOption

; 1273 : 		}
; 1274 : 		break;

  000a0	e9 3d 05 00 00	 jmp	 $LN77@iwm_comman@4
$LN76@iwm_comman@4:

; 1297 : 		}
; 1298 : 		break;
; 1299 : 	case ID_ANTI_ALIASING_QUALITY:
; 1300 : 	case ID_ANTI_ALIASING_HIGH:
; 1301 : 	case ID_ANTI_ALIASING_MIDDLE:
; 1302 : 	case ID_ANTI_ALIASING_LOW:
; 1303 : 		if( cmd == IOBN_BTNDOWN )

  000a5	83 7d 0c 10	 cmp	 DWORD PTR _cmd$[ebp], 16 ; 00000010H
  000a9	0f 85 33 05 00
	00		 jne	 $LN77@iwm_comman@4

; 1304 : 		{
; 1305 : 			SetAntiAliasingOption( dwID );

  000af	50		 push	 eax
  000b0	8b ce		 mov	 ecx, esi
  000b2	e8 00 00 00 00	 call	 ?SetAntiAliasingOption@GameOptionSpecTab@@IAEXK@Z ; GameOptionSpecTab::SetAntiAliasingOption

; 1306 : 		}
; 1307 : 		break;

  000b7	e9 26 05 00 00	 jmp	 $LN77@iwm_comman@4
$LN95@iwm_comman@4:

; 1261 : 
; 1262 : 	switch( dwID )

  000bc	83 f8 10	 cmp	 eax, 16			; 00000010H
  000bf	0f 82 1d 05 00
	00		 jb	 $LN77@iwm_comman@4
  000c5	83 f8 12	 cmp	 eax, 18			; 00000012H
  000c8	76 35		 jbe	 SHORT $LN14@iwm_comman@4
  000ca	83 f8 13	 cmp	 eax, 19			; 00000013H
  000cd	74 1b		 je	 SHORT $LN36@iwm_comman@4
  000cf	83 f8 14	 cmp	 eax, 20			; 00000014H
  000d2	0f 85 0a 05 00
	00		 jne	 $LN77@iwm_comman@4

; 1447 : 	case ID_MAP_EFFECT:
; 1448 : 		if( cmd == IOBN_BTNUP )

  000d8	83 7d 0c 11	 cmp	 DWORD PTR _cmd$[ebp], 17 ; 00000011H
  000dc	0f 85 00 05 00
	00		 jne	 $LN77@iwm_comman@4

; 1449 : 		{
; 1450 : 			SetOnOffOption( m_CurrentOption.m_bShowMapEffect );

  000e2	8d 86 67 01 00
	00		 lea	 eax, DWORD PTR [esi+359]

; 1451 : 		}
; 1452 : 		break;

  000e8	eb 80		 jmp	 SHORT $LN111@iwm_comman@4
$LN36@iwm_comman@4:

; 1441 : 	case ID_SCREEN_GLOW:
; 1442 : 		if( cmd == IOBN_BTNUP )

  000ea	83 7d 0c 11	 cmp	 DWORD PTR _cmd$[ebp], 17 ; 00000011H
  000ee	0f 85 ee 04 00
	00		 jne	 $LN77@iwm_comman@4

; 1443 : 		{
; 1444 : 			SetOnOffOption( m_CurrentOption.m_bGlow );

  000f4	8d 86 66 01 00
	00		 lea	 eax, DWORD PTR [esi+358]

; 1445 : 		}
; 1446 : 		break;

  000fa	e9 6b ff ff ff	 jmp	 $LN111@iwm_comman@4
$LN14@iwm_comman@4:

; 1513 : 	case ID_MAP_OBJECT_HIGH:
; 1514 : 	case ID_MAP_OBJECT_MIDDLE:
; 1515 : 	case ID_MAP_OBJECT_LOW:
; 1516 : 		if( cmd == IOBN_BTNDOWN )

  000ff	83 7d 0c 10	 cmp	 DWORD PTR _cmd$[ebp], 16 ; 00000010H
  00103	0f 85 d9 04 00
	00		 jne	 $LN77@iwm_comman@4

; 1517 : 		{
; 1518 : 			SetMapObjectOption( dwID );

  00109	50		 push	 eax
  0010a	8b ce		 mov	 ecx, esi
  0010c	e8 00 00 00 00	 call	 ?SetMapObjectOption@GameOptionSpecTab@@IAEXK@Z ; GameOptionSpecTab::SetMapObjectOption

; 1519 : 		}
; 1520 : 		break;

  00111	e9 cc 04 00 00	 jmp	 $LN77@iwm_comman@4
$LN32@iwm_comman@4:

; 1453 : 	case ID_SHADOW:
; 1454 : 		if( cmd == IOBN_BTNUP )

  00116	83 7d 0c 11	 cmp	 DWORD PTR _cmd$[ebp], 17 ; 00000011H
  0011a	0f 85 c2 04 00
	00		 jne	 $LN77@iwm_comman@4

; 1455 : 		{
; 1456 : 			SetOnOffOption( m_CurrentOption.m_bShadow );

  00120	8d 86 65 01 00
	00		 lea	 eax, DWORD PTR [esi+357]

; 1457 : 		}
; 1458 : 		break;

  00126	e9 3f ff ff ff	 jmp	 $LN111@iwm_comman@4
$LN94@iwm_comman@4:

; 1261 : 
; 1262 : 	switch( dwID )

  0012b	83 f8 1f	 cmp	 eax, 31			; 0000001fH
  0012e	77 76		 ja	 SHORT $LN96@iwm_comman@4
  00130	74 5f		 je	 SHORT $LN26@iwm_comman@4
  00132	83 f8 17	 cmp	 eax, 23			; 00000017H
  00135	74 43		 je	 SHORT $LN84@iwm_comman@4
  00137	83 f8 19	 cmp	 eax, 25			; 00000019H
  0013a	0f 86 a2 04 00
	00		 jbe	 $LN77@iwm_comman@4
  00140	83 f8 1c	 cmp	 eax, 28			; 0000001cH
  00143	76 1e		 jbe	 SHORT $LN20@iwm_comman@4
  00145	83 f8 1e	 cmp	 eax, 30			; 0000001eH
  00148	0f 85 94 04 00
	00		 jne	 $LN77@iwm_comman@4

; 1477 : 	case ID_OBJECT_EDGE:
; 1478 : 		if( cmd == IOBN_BTNUP )

  0014e	83 7d 0c 11	 cmp	 DWORD PTR _cmd$[ebp], 17 ; 00000011H
  00152	0f 85 8a 04 00
	00		 jne	 $LN77@iwm_comman@4

; 1479 : 		{
; 1480 : 			SetOnOffOption( m_CurrentOption.m_bUseObjectEdge );

  00158	8d 86 6c 01 00
	00		 lea	 eax, DWORD PTR [esi+364]

; 1481 : 		}
; 1482 : 		break;

  0015e	e9 07 ff ff ff	 jmp	 $LN111@iwm_comman@4
$LN20@iwm_comman@4:

; 1491 : 	case ID_LIGHT_HIGH:
; 1492 : 	case ID_LIGHT_MIDDLE:
; 1493 : 	case ID_LIGHT_LOW:
; 1494 : 		if( cmd == IOBN_BTNDOWN )

  00163	83 7d 0c 10	 cmp	 DWORD PTR _cmd$[ebp], 16 ; 00000010H
  00167	0f 85 75 04 00
	00		 jne	 $LN77@iwm_comman@4

; 1495 : 		{
; 1496 : 			SetLightOption( dwID );

  0016d	50		 push	 eax
  0016e	8b ce		 mov	 ecx, esi
  00170	e8 00 00 00 00	 call	 ?SetLightOption@GameOptionSpecTab@@IAEXK@Z ; GameOptionSpecTab::SetLightOption

; 1497 : 		}
; 1498 : 		break;

  00175	e9 68 04 00 00	 jmp	 $LN77@iwm_comman@4
$LN84@iwm_comman@4:

; 1275 : 	case ID_SCREEN_BOX:
; 1276 : 		if( cmd == IOBN_BTNUP )

  0017a	83 7d 0c 11	 cmp	 DWORD PTR _cmd$[ebp], 17 ; 00000011H
  0017e	0f 85 5e 04 00
	00		 jne	 $LN77@iwm_comman@4

; 1277 : 		{
; 1278 : 			OpenScreenList( pWnd );

  00184	57		 push	 edi
  00185	8b ce		 mov	 ecx, esi
  00187	e8 00 00 00 00	 call	 ?OpenScreenList@GameOptionSpecTab@@IAEXPAVioWnd@@@Z ; GameOptionSpecTab::OpenScreenList

; 1279 : 		}
; 1280 : 		break;

  0018c	e9 51 04 00 00	 jmp	 $LN77@iwm_comman@4
$LN26@iwm_comman@4:

; 1471 : 	case ID_MAP_EDGE:
; 1472 : 		if( cmd == IOBN_BTNUP )

  00191	83 7d 0c 11	 cmp	 DWORD PTR _cmd$[ebp], 17 ; 00000011H
  00195	0f 85 47 04 00
	00		 jne	 $LN77@iwm_comman@4

; 1473 : 		{
; 1474 : 			SetOnOffOption( m_CurrentOption.m_bUseMapEdge );

  0019b	8d 86 6b 01 00
	00		 lea	 eax, DWORD PTR [esi+363]

; 1475 : 		}
; 1476 : 		break;

  001a1	e9 c4 fe ff ff	 jmp	 $LN111@iwm_comman@4
$LN96@iwm_comman@4:

; 1261 : 
; 1262 : 	switch( dwID )

  001a6	83 f8 24	 cmp	 eax, 36			; 00000024H
  001a9	0f 82 33 04 00
	00		 jb	 $LN77@iwm_comman@4
  001af	83 f8 26	 cmp	 eax, 38			; 00000026H
  001b2	76 29		 jbe	 SHORT $LN22@iwm_comman@4
  001b4	83 f8 28	 cmp	 eax, 40			; 00000028H
  001b7	0f 86 25 04 00
	00		 jbe	 $LN77@iwm_comman@4
  001bd	83 f8 2b	 cmp	 eax, 43			; 0000002bH
  001c0	0f 87 1c 04 00
	00		 ja	 $LN77@iwm_comman@4

; 1499 : 	case ID_EFFECT_HIGH:
; 1500 : 	case ID_EFFECT_MIDDLE:
; 1501 : 	case ID_EFFECT_LOW:
; 1502 : 		if( cmd == IOBN_BTNDOWN )

  001c6	83 7d 0c 10	 cmp	 DWORD PTR _cmd$[ebp], 16 ; 00000010H
  001ca	0f 85 12 04 00
	00		 jne	 $LN77@iwm_comman@4

; 1503 : 		{
; 1504 : 			SetEffectOption( dwID );

  001d0	50		 push	 eax
  001d1	8b ce		 mov	 ecx, esi
  001d3	e8 00 00 00 00	 call	 ?SetEffectOption@GameOptionSpecTab@@IAEXK@Z ; GameOptionSpecTab::SetEffectOption

; 1505 : 		}
; 1506 : 		break;

  001d8	e9 05 04 00 00	 jmp	 $LN77@iwm_comman@4
$LN22@iwm_comman@4:

; 1483 : 	case ID_TEXTURE_HIGH:
; 1484 : 	case ID_TEXTURE_MIDDLE:
; 1485 : 	case ID_TEXTURE_LOW:
; 1486 : 		if( cmd == IOBN_BTNDOWN )

  001dd	83 7d 0c 10	 cmp	 DWORD PTR _cmd$[ebp], 16 ; 00000010H
  001e1	0f 85 fb 03 00
	00		 jne	 $LN77@iwm_comman@4

; 1487 : 		{
; 1488 : 			SetTextureOption( dwID );

  001e7	50		 push	 eax
  001e8	8b ce		 mov	 ecx, esi
  001ea	e8 00 00 00 00	 call	 ?SetTextureOption@GameOptionSpecTab@@IAEXK@Z ; GameOptionSpecTab::SetTextureOption

; 1489 : 		}
; 1490 : 		break;

  001ef	e9 ee 03 00 00	 jmp	 $LN77@iwm_comman@4
$LN30@iwm_comman@4:

; 1459 : 	case ID_16BIT_FRAMEBUFFER:
; 1460 : 		if( cmd == IOBN_BTNUP )

  001f4	83 7d 0c 11	 cmp	 DWORD PTR _cmd$[ebp], 17 ; 00000011H
  001f8	0f 85 e4 03 00
	00		 jne	 $LN77@iwm_comman@4

; 1461 : 		{
; 1462 : 			SetOnOffOption( m_CurrentOption.m_bUse16bitFrameBuffer );

  001fe	8d 86 6a 01 00
	00		 lea	 eax, DWORD PTR [esi+362]

; 1463 : 		}
; 1464 : 		break;

  00204	e9 61 fe ff ff	 jmp	 $LN111@iwm_comman@4
$LN93@iwm_comman@4:

; 1261 : 
; 1262 : 	switch( dwID )

  00209	83 f8 3d	 cmp	 eax, 61			; 0000003dH
  0020c	0f 87 24 03 00
	00		 ja	 $LN97@iwm_comman@4
  00212	0f 84 07 03 00
	00		 je	 $LN80@iwm_comman@4
  00218	83 e8 2e	 sub	 eax, 46			; 0000002eH
  0021b	0f 84 e9 02 00
	00		 je	 $LN28@iwm_comman@4
  00221	83 e8 04	 sub	 eax, 4
  00224	0f 84 cd 01 00
	00		 je	 $LN71@iwm_comman@4
  0022a	48		 dec	 eax
  0022b	0f 84 b2 01 00
	00		 je	 $LN58@iwm_comman@4
  00231	48		 dec	 eax
  00232	0f 84 d8 00 00
	00		 je	 $LN55@iwm_comman@4
  00238	48		 dec	 eax
  00239	74 74		 je	 SHORT $LN44@iwm_comman@4
  0023b	83 e8 03	 sub	 eax, 3
  0023e	74 1d		 je	 SHORT $LN74@iwm_comman@4
  00240	48		 dec	 eax
  00241	0f 85 9b 03 00
	00		 jne	 $LN77@iwm_comman@4

; 1507 : 	case ID_MOVIE_MODE:
; 1508 : 		if( cmd == IOBN_BTNUP )

  00247	83 7d 0c 11	 cmp	 DWORD PTR _cmd$[ebp], 17 ; 00000011H
  0024b	0f 85 91 03 00
	00		 jne	 $LN77@iwm_comman@4

; 1509 : 		{
; 1510 : 			ToggleMovieMode();

  00251	8b ce		 mov	 ecx, esi
  00253	e8 00 00 00 00	 call	 ?ToggleMovieMode@GameOptionSpecTab@@IAEXXZ ; GameOptionSpecTab::ToggleMovieMode

; 1511 : 		}
; 1512 : 		break;

  00258	e9 85 03 00 00	 jmp	 $LN77@iwm_comman@4
$LN74@iwm_comman@4:

; 1308 : 	case ID_SPEC_AUTO_CHECK:
; 1309 : 		if( cmd == IOBN_BTNUP )

  0025d	83 7d 0c 11	 cmp	 DWORD PTR _cmd$[ebp], 17 ; 00000011H
  00261	0f 85 7b 03 00
	00		 jne	 $LN77@iwm_comman@4

; 1310 : 		{
; 1311 : 			m_CurrentOption.m_bSpecAutoCheck = !m_CurrentOption.m_bSpecAutoCheck;

  00267	33 db		 xor	 ebx, ebx
  00269	38 9e 6d 01 00
	00		 cmp	 BYTE PTR [esi+365], bl
  0026f	0f 94 c1	 sete	 cl
  00272	88 8e 6d 01 00
	00		 mov	 BYTE PTR [esi+365], cl

; 1312 : 
; 1313 : 			if( m_CurrentOption.m_bSpecAutoCheck )

  00278	3a cb		 cmp	 cl, bl
  0027a	74 24		 je	 SHORT $LN72@iwm_comman@4

; 1314 : 			{
; 1315 : 				m_DefaultSpec = Setting::CheckHardwareSpec();

  0027c	e8 00 00 00 00	 call	 ?CheckHardwareSpec@Setting@@SA?AW4Spec@1@XZ ; Setting::CheckHardwareSpec

; 1316 : 				Setting::SetOptionBySpec( m_CurrentOption, m_DefaultSpec );

  00281	50		 push	 eax
  00282	89 86 60 01 00
	00		 mov	 DWORD PTR [esi+352], eax
  00288	8d 86 64 01 00
	00		 lea	 eax, DWORD PTR [esi+356]
  0028e	50		 push	 eax
  0028f	e8 00 00 00 00	 call	 ?SetOptionBySpec@Setting@@SAXAAUSettingOption@@W4Spec@1@@Z ; Setting::SetOptionBySpec

; 1317 : 				UpdateByCurrentOption();

  00294	8b 06		 mov	 eax, DWORD PTR [esi]
  00296	59		 pop	 ecx
  00297	59		 pop	 ecx
  00298	8b ce		 mov	 ecx, esi
  0029a	ff 90 30 01 00
	00		 call	 DWORD PTR [eax+304]
$LN72@iwm_comman@4:

; 1318 : 			}
; 1319 : 
; 1320 : 			SetChildActive( ID_APPLY );

  002a0	6a 34		 push	 52			; 00000034H
  002a2	8b ce		 mov	 ecx, esi
  002a4	ff 15 00 00 00
	00		 call	 DWORD PTR __imp_?SetChildActive@ioWnd@@QAEXK@Z

; 1321 : 		}
; 1322 : 		break;

  002aa	e9 33 03 00 00	 jmp	 $LN77@iwm_comman@4
$LN44@iwm_comman@4:

; 1417 : 	case ID_BACKGROUND_CHANGE:
; 1418 : 		if( cmd == IOBN_BTNUP )

  002af	83 7d 0c 11	 cmp	 DWORD PTR _cmd$[ebp], 17 ; 00000011H
  002b3	75 19		 jne	 SHORT $LN43@iwm_comman@4

; 1419 : 		{
; 1420 : 			g_GUIMgr.ShowWnd( BACKGROUND_CHANGE_WND );

  002b5	6a 00		 push	 0
  002b7	68 9b 17 00 00	 push	 6043			; 0000179bH
  002bc	e8 00 00 00 00	 call	 ?GetSingleton@ioSP2GUIManager@@SAAAV1@XZ ; ioSP2GUIManager::GetSingleton
  002c1	8b c8		 mov	 ecx, eax
  002c3	ff 15 00 00 00
	00		 call	 DWORD PTR __imp_?ShowWnd@ioGUIManager@@QAEXK_N@Z
  002c9	e9 14 03 00 00	 jmp	 $LN77@iwm_comman@4
$LN43@iwm_comman@4:

; 1421 : 		}
; 1422 : 		else if( cmd == IOEX_BTNUP )

  002ce	83 7d 0c 16	 cmp	 DWORD PTR _cmd$[ebp], 22 ; 00000016H
  002d2	0f 85 0a 03 00
	00		 jne	 $LN77@iwm_comman@4

; 1423 : 		{
; 1424 : 			if( g_App.GetConnectedMoveMode() == ioApplication::CMM_LOBBY )

  002d8	e8 00 00 00 00	 call	 ?GetSingleton@ioApplication@@SAAAV1@XZ ; ioApplication::GetSingleton

; 1425 : 			{
; 1426 : 				g_GUIMgr.SetMsgBox( MB_OK, NULL, STR(1) );

  002dd	33 db		 xor	 ebx, ebx
  002df	53		 push	 ebx
  002e0	6a 01		 push	 1
$LN112@iwm_comman@4:
  002e2	68 00 00 00 00	 push	 OFFSET ??_C@_00CNPNBAHC@?$AA@
  002e7	68 00 00 00 00	 push	 OFFSET ??_C@_0BP@BENDCCDH@GameOptionSpecTab?3?3iwm_command?$AA@

; 1427 : 			}
; 1428 : 			else
; 1429 : 			{
; 1430 : 				g_GUIMgr.SetMsgBox( MB_OK, NULL, STR(1) );

  002ec	ff 15 00 00 00
	00		 call	 DWORD PTR __imp_?GetSingleton@ioStringManager@@SAAAV1@XZ
  002f2	8b c8		 mov	 ecx, eax
  002f4	ff 15 00 00 00
	00		 call	 DWORD PTR __imp_?GetString@ioStringManager@@QAEPADPBD0HW4FileNamePrefix@1@@Z
  002fa	50		 push	 eax
  002fb	53		 push	 ebx
  002fc	53		 push	 ebx
  002fd	e8 00 00 00 00	 call	 ?GetSingleton@ioSP2GUIManager@@SAAAV1@XZ ; ioSP2GUIManager::GetSingleton
  00302	50		 push	 eax
  00303	e8 00 00 00 00	 call	 ?SetMsgBox@ioSP2GUIManager@@QAAXHPAVioWnd@@PBDZZ ; ioSP2GUIManager::SetMsgBox
  00308	83 c4 10	 add	 esp, 16			; 00000010H

; 1431 : 			}
; 1432 : 			
; 1433 : 		}
; 1434 : 		break;

  0030b	e9 d2 02 00 00	 jmp	 $LN77@iwm_comman@4
$LN55@iwm_comman@4:

; 1377 : 	case ID_APPLY:
; 1378 : 		if( cmd == IOBN_BTNUP )

  00310	83 7d 0c 11	 cmp	 DWORD PTR _cmd$[ebp], 17 ; 00000011H
  00314	0f 85 c8 02 00
	00		 jne	 $LN77@iwm_comman@4

; 1379 : 		{
; 1380 : 			//   
; 1381 : 			if( m_pPlayStage )

  0031a	8b 8e 14 02 00
	00		 mov	 ecx, DWORD PTR [esi+532]
  00320	33 db		 xor	 ebx, ebx
  00322	3b cb		 cmp	 ecx, ebx
  00324	0f 84 86 00 00
	00		 je	 $LN48@iwm_comman@4

; 1382 : 			{
; 1383 : 				if( m_pPlayStage->GetModeType() != MT_MYROOM && m_pPlayStage->GetModeType() != MT_TRAINING && m_pPlayStage->GetModeType() != MT_HEADQUARTERS && m_pPlayStage->GetModeType() != MT_HOUSE )

  0032a	e8 00 00 00 00	 call	 ?GetModeType@ioPlayStage@@QBE?AW4ModeType@@XZ ; ioPlayStage::GetModeType
  0032f	83 f8 18	 cmp	 eax, 24			; 00000018H
  00332	74 7c		 je	 SHORT $LN48@iwm_comman@4
  00334	8b 8e 14 02 00
	00		 mov	 ecx, DWORD PTR [esi+532]
  0033a	e8 00 00 00 00	 call	 ?GetModeType@ioPlayStage@@QBE?AW4ModeType@@XZ ; ioPlayStage::GetModeType
  0033f	83 f8 04	 cmp	 eax, 4
  00342	74 6c		 je	 SHORT $LN48@iwm_comman@4
  00344	8b 8e 14 02 00
	00		 mov	 ecx, DWORD PTR [esi+532]
  0034a	e8 00 00 00 00	 call	 ?GetModeType@ioPlayStage@@QBE?AW4ModeType@@XZ ; ioPlayStage::GetModeType
  0034f	83 f8 0d	 cmp	 eax, 13			; 0000000dH
  00352	74 5c		 je	 SHORT $LN48@iwm_comman@4
  00354	8b 8e 14 02 00
	00		 mov	 ecx, DWORD PTR [esi+532]
  0035a	e8 00 00 00 00	 call	 ?GetModeType@ioPlayStage@@QBE?AW4ModeType@@XZ ; ioPlayStage::GetModeType
  0035f	83 f8 17	 cmp	 eax, 23			; 00000017H
  00362	74 4c		 je	 SHORT $LN48@iwm_comman@4

; 1384 : 				{
; 1385 : 					//
; 1386 : 					ioBaseChar *pOwnerChar = m_pPlayStage->GetOwnerChar();

  00364	8b 8e 14 02 00
	00		 mov	 ecx, DWORD PTR [esi+532]
  0036a	e8 00 00 00 00	 call	 ?GetOwnerChar@ioPlayStage@@QAEPAVioBaseChar@@XZ ; ioPlayStage::GetOwnerChar

; 1387 : 					if( pOwnerChar )

  0036f	3b c3		 cmp	 eax, ebx
  00371	74 3d		 je	 SHORT $LN48@iwm_comman@4

; 1388 : 					{
; 1389 : 						switch( pOwnerChar->GetState() )

  00373	0f b6 80 10 03
	00 00		 movzx	 eax, BYTE PTR [eax+784]
  0037a	83 f8 1a	 cmp	 eax, 26			; 0000001aH
  0037d	7f 15		 jg	 SHORT $LN92@iwm_comman@4
  0037f	74 2f		 je	 SHORT $LN48@iwm_comman@4
  00381	3b c3		 cmp	 eax, ebx
  00383	74 2b		 je	 SHORT $LN48@iwm_comman@4
  00385	83 f8 0e	 cmp	 eax, 14			; 0000000eH
  00388	74 26		 je	 SHORT $LN48@iwm_comman@4
  0038a	83 f8 13	 cmp	 eax, 19			; 00000013H
  0038d	74 21		 je	 SHORT $LN48@iwm_comman@4
  0038f	83 f8 18	 cmp	 eax, 24			; 00000018H
  00392	eb 16		 jmp	 SHORT $LN108@iwm_comman@4
$LN92@iwm_comman@4:
  00394	83 f8 24	 cmp	 eax, 36			; 00000024H
  00397	74 17		 je	 SHORT $LN48@iwm_comman@4
  00399	83 f8 28	 cmp	 eax, 40			; 00000028H
  0039c	0f 8e 26 01 00
	00		 jle	 $LN62@iwm_comman@4
  003a2	83 f8 2a	 cmp	 eax, 42			; 0000002aH
  003a5	7e 09		 jle	 SHORT $LN48@iwm_comman@4
  003a7	83 f8 39	 cmp	 eax, 57			; 00000039H
$LN108@iwm_comman@4:

; 1390 : 						{
; 1391 : 						case CS_DELAY:
; 1392 : 						case CS_ETCITEM_MOTION:
; 1393 : 						case CS_SPECIAL_MOTION:
; 1394 : 						case CS_DIE:
; 1395 : 						case CS_READY:
; 1396 : 						case CS_LOADING:
; 1397 : 						case CS_OBSERVER:
; 1398 : 						case CS_VIEW:
; 1399 : 						case CS_ENDMOTION:
; 1400 : 							break;
; 1401 : 						default:
; 1402 : 							g_GUIMgr.SetMsgBox( MB_OK, NULL, STR(2) );
; 1403 : 							return;

  003aa	0f 85 18 01 00
	00		 jne	 $LN62@iwm_comman@4
$LN48@iwm_comman@4:

; 1404 : 						}
; 1405 : 					}
; 1406 : 				}
; 1407 : 			}
; 1408 : 
; 1409 : 			if( ApplyChangedOption() )

  003b0	8b ce		 mov	 ecx, esi
  003b2	e8 00 00 00 00	 call	 ?ApplyChangedOption@GameOptionBasicWnd@@IAE_NXZ ; GameOptionBasicWnd::ApplyChangedOption
  003b7	84 c0		 test	 al, al
  003b9	74 19		 je	 SHORT $LN45@iwm_comman@4

; 1410 : 			{
; 1411 : 				if( g_MovieMaker.IsMovieCapturing() )

  003bb	e8 00 00 00 00	 call	 ?GetSingleton@ioMovieMaker@@SAAAV1@XZ ; ioMovieMaker::GetSingleton
  003c0	38 98 c8 04 00
	00		 cmp	 BYTE PTR [eax+1224], bl
  003c6	74 0c		 je	 SHORT $LN45@iwm_comman@4

; 1412 : 					g_MovieMaker.ToggleMovieCapture();

  003c8	e8 00 00 00 00	 call	 ?GetSingleton@ioMovieMaker@@SAAAV1@XZ ; ioMovieMaker::GetSingleton
  003cd	8b c8		 mov	 ecx, eax
  003cf	e8 00 00 00 00	 call	 ?ToggleMovieCapture@ioMovieMaker@@QAE_NXZ ; ioMovieMaker::ToggleMovieCapture
$LN45@iwm_comman@4:

; 1413 : 			}
; 1414 : 			SetChildInActive( ID_APPLY );

  003d4	6a 34		 push	 52			; 00000034H
  003d6	8b ce		 mov	 ecx, esi
  003d8	ff 15 00 00 00
	00		 call	 DWORD PTR __imp_?SetChildInActive@ioWnd@@QAEXK@Z

; 1415 : 		}
; 1416 : 		break;

  003de	e9 ff 01 00 00	 jmp	 $LN77@iwm_comman@4
$LN58@iwm_comman@4:

; 1370 : 	case ID_CANCEL:
; 1371 : 		if( cmd == IOBN_BTNUP )

  003e3	83 7d 0c 11	 cmp	 DWORD PTR _cmd$[ebp], 17 ; 00000011H
  003e7	0f 85 f5 01 00
	00		 jne	 $LN77@iwm_comman@4

; 1372 : 		{
; 1373 : 			if(m_pParent)

  003ed	8b 4e 40	 mov	 ecx, DWORD PTR [esi+64]
  003f0	85 c9		 test	 ecx, ecx

; 1374 : 				m_pParent->HideWnd();
; 1375 : 		}
; 1376 : 		break;

  003f2	e9 02 01 00 00	 jmp	 $LN110@iwm_comman@4
$LN71@iwm_comman@4:

; 1323 : 	case ID_COMMIT:
; 1324 : 		if( cmd == IOBN_BTNUP )

  003f7	83 7d 0c 11	 cmp	 DWORD PTR _cmd$[ebp], 17 ; 00000011H
  003fb	0f 85 e1 01 00
	00		 jne	 $LN77@iwm_comman@4

; 1325 : 		{	
; 1326 : 			ioButton *pApplyBtn = dynamic_cast< ioButton * >( FindChildWnd( ID_APPLY ) );

  00401	33 db		 xor	 ebx, ebx
  00403	53		 push	 ebx
  00404	68 00 00 00 00	 push	 OFFSET ??_R0?AVioButton@@@8
  00409	68 00 00 00 00	 push	 OFFSET ??_R0?AVioWnd@@@8
  0040e	53		 push	 ebx
  0040f	6a 34		 push	 52			; 00000034H
  00411	8b ce		 mov	 ecx, esi
  00413	ff 15 00 00 00
	00		 call	 DWORD PTR __imp_?FindChildWnd@ioWnd@@QAEPAV1@K@Z
  00419	50		 push	 eax
  0041a	e8 00 00 00 00	 call	 ___RTDynamicCast
  0041f	83 c4 14	 add	 esp, 20			; 00000014H

; 1327 : 			if( pApplyBtn && !pApplyBtn->HasWndStyle( IWS_INACTIVE ) )

  00422	3b c3		 cmp	 eax, ebx
  00424	0f 84 a6 00 00
	00		 je	 $LN63@iwm_comman@4
  0042a	6a 02		 push	 2
  0042c	8b c8		 mov	 ecx, eax
  0042e	ff 15 00 00 00
	00		 call	 DWORD PTR __imp_?HasWndStyle@ioWnd@@QBE_NK@Z
  00434	84 c0		 test	 al, al
  00436	0f 85 94 00 00
	00		 jne	 $LN63@iwm_comman@4

; 1328 : 			{
; 1329 : 				//   
; 1330 : 				//   
; 1331 : 				if( m_pPlayStage )

  0043c	8b 8e 14 02 00
	00		 mov	 ecx, DWORD PTR [esi+532]
  00442	3b cb		 cmp	 ecx, ebx
  00444	0f 84 86 00 00
	00		 je	 $LN63@iwm_comman@4

; 1332 : 				{
; 1333 : 					if( m_pPlayStage->GetModeType() != MT_MYROOM && m_pPlayStage->GetModeType() != MT_TRAINING && m_pPlayStage->GetModeType() != MT_HEADQUARTERS && m_pPlayStage->GetModeType() != MT_HOUSE )

  0044a	e8 00 00 00 00	 call	 ?GetModeType@ioPlayStage@@QBE?AW4ModeType@@XZ ; ioPlayStage::GetModeType
  0044f	83 f8 18	 cmp	 eax, 24			; 00000018H
  00452	74 7c		 je	 SHORT $LN63@iwm_comman@4
  00454	8b 8e 14 02 00
	00		 mov	 ecx, DWORD PTR [esi+532]
  0045a	e8 00 00 00 00	 call	 ?GetModeType@ioPlayStage@@QBE?AW4ModeType@@XZ ; ioPlayStage::GetModeType
  0045f	83 f8 04	 cmp	 eax, 4
  00462	74 6c		 je	 SHORT $LN63@iwm_comman@4
  00464	8b 8e 14 02 00
	00		 mov	 ecx, DWORD PTR [esi+532]
  0046a	e8 00 00 00 00	 call	 ?GetModeType@ioPlayStage@@QBE?AW4ModeType@@XZ ; ioPlayStage::GetModeType
  0046f	83 f8 0d	 cmp	 eax, 13			; 0000000dH
  00472	74 5c		 je	 SHORT $LN63@iwm_comman@4
  00474	8b 8e 14 02 00
	00		 mov	 ecx, DWORD PTR [esi+532]
  0047a	e8 00 00 00 00	 call	 ?GetModeType@ioPlayStage@@QBE?AW4ModeType@@XZ ; ioPlayStage::GetModeType
  0047f	83 f8 17	 cmp	 eax, 23			; 00000017H
  00482	74 4c		 je	 SHORT $LN63@iwm_comman@4

; 1334 : 					{
; 1335 : 						//
; 1336 : 						ioBaseChar *pOwnerChar = m_pPlayStage->GetOwnerChar();

  00484	8b 8e 14 02 00
	00		 mov	 ecx, DWORD PTR [esi+532]
  0048a	e8 00 00 00 00	 call	 ?GetOwnerChar@ioPlayStage@@QAEPAVioBaseChar@@XZ ; ioPlayStage::GetOwnerChar

; 1337 : 						if( pOwnerChar )

  0048f	3b c3		 cmp	 eax, ebx
  00491	74 3d		 je	 SHORT $LN63@iwm_comman@4

; 1338 : 						{
; 1339 : 							switch( pOwnerChar->GetState() )

  00493	0f b6 80 10 03
	00 00		 movzx	 eax, BYTE PTR [eax+784]
  0049a	83 f8 1a	 cmp	 eax, 26			; 0000001aH
  0049d	7f 15		 jg	 SHORT $LN91@iwm_comman@4
  0049f	74 2f		 je	 SHORT $LN63@iwm_comman@4
  004a1	3b c3		 cmp	 eax, ebx
  004a3	74 2b		 je	 SHORT $LN63@iwm_comman@4
  004a5	83 f8 0e	 cmp	 eax, 14			; 0000000eH
  004a8	74 26		 je	 SHORT $LN63@iwm_comman@4
  004aa	83 f8 13	 cmp	 eax, 19			; 00000013H
  004ad	74 21		 je	 SHORT $LN63@iwm_comman@4
  004af	83 f8 18	 cmp	 eax, 24			; 00000018H
  004b2	eb 12		 jmp	 SHORT $LN109@iwm_comman@4
$LN91@iwm_comman@4:
  004b4	83 f8 24	 cmp	 eax, 36			; 00000024H
  004b7	74 17		 je	 SHORT $LN63@iwm_comman@4
  004b9	83 f8 28	 cmp	 eax, 40			; 00000028H
  004bc	7e 0a		 jle	 SHORT $LN62@iwm_comman@4
  004be	83 f8 2a	 cmp	 eax, 42			; 0000002aH
  004c1	7e 0d		 jle	 SHORT $LN63@iwm_comman@4
  004c3	83 f8 39	 cmp	 eax, 57			; 00000039H
$LN109@iwm_comman@4:
  004c6	74 08		 je	 SHORT $LN63@iwm_comman@4
$LN62@iwm_comman@4:

; 1340 : 							{
; 1341 : 							case CS_DELAY:
; 1342 : 							case CS_ETCITEM_MOTION:
; 1343 : 							case CS_SPECIAL_MOTION:
; 1344 : 							case CS_DIE:
; 1345 : 							case CS_READY:
; 1346 : 							case CS_LOADING:
; 1347 : 							case CS_OBSERVER:
; 1348 : 							case CS_VIEW:
; 1349 : 							case CS_ENDMOTION:
; 1350 : 								break;
; 1351 : 							default:
; 1352 : 								g_GUIMgr.SetMsgBox( MB_OK, NULL, STR(2) );

  004c8	53		 push	 ebx
  004c9	6a 02		 push	 2

; 1353 : 								return;

  004cb	e9 12 fe ff ff	 jmp	 $LN112@iwm_comman@4
$LN63@iwm_comman@4:

; 1354 : 							}
; 1355 : 						}
; 1356 : 					}
; 1357 : 				}
; 1358 : 			}
; 1359 : 
; 1360 : 			if( ApplyChangedOption() )

  004d0	8b ce		 mov	 ecx, esi
  004d2	e8 00 00 00 00	 call	 ?ApplyChangedOption@GameOptionBasicWnd@@IAE_NXZ ; GameOptionBasicWnd::ApplyChangedOption
  004d7	84 c0		 test	 al, al
  004d9	74 19		 je	 SHORT $LN60@iwm_comman@4

; 1361 : 			{
; 1362 : 				if( g_MovieMaker.IsMovieCapturing() )

  004db	e8 00 00 00 00	 call	 ?GetSingleton@ioMovieMaker@@SAAAV1@XZ ; ioMovieMaker::GetSingleton
  004e0	38 98 c8 04 00
	00		 cmp	 BYTE PTR [eax+1224], bl
  004e6	74 0c		 je	 SHORT $LN60@iwm_comman@4

; 1363 : 					g_MovieMaker.ToggleMovieCapture();

  004e8	e8 00 00 00 00	 call	 ?GetSingleton@ioMovieMaker@@SAAAV1@XZ ; ioMovieMaker::GetSingleton
  004ed	8b c8		 mov	 ecx, eax
  004ef	e8 00 00 00 00	 call	 ?ToggleMovieCapture@ioMovieMaker@@QAE_NXZ ; ioMovieMaker::ToggleMovieCapture
$LN60@iwm_comman@4:

; 1364 : 			}
; 1365 : 
; 1366 : 			if(m_pParent)

  004f4	8b 4e 40	 mov	 ecx, DWORD PTR [esi+64]
  004f7	3b cb		 cmp	 ecx, ebx
$LN110@iwm_comman@4:
  004f9	0f 84 e3 00 00
	00		 je	 $LN77@iwm_comman@4

; 1367 : 				m_pParent->HideWnd();

  004ff	ff 15 00 00 00
	00		 call	 DWORD PTR __imp_?HideWnd@ioWnd@@QAEXXZ

; 1368 : 		}
; 1369 : 		break;

  00505	e9 d8 00 00 00	 jmp	 $LN77@iwm_comman@4
$LN28@iwm_comman@4:

; 1465 : 	case ID_SOFT_SKINNING:
; 1466 : 		if( cmd == IOBN_BTNUP )

  0050a	83 7d 0c 11	 cmp	 DWORD PTR _cmd$[ebp], 17 ; 00000011H
  0050e	0f 85 ce 00 00
	00		 jne	 $LN77@iwm_comman@4

; 1467 : 		{
; 1468 : 			SetOnOffOption( m_CurrentOption.m_bSoftSkinning );

  00514	8d 86 69 01 00
	00		 lea	 eax, DWORD PTR [esi+361]

; 1469 : 		}
; 1470 : 		break;

  0051a	e9 4b fb ff ff	 jmp	 $LN111@iwm_comman@4
$LN80@iwm_comman@4:

; 1287 : 	case ID_FILTER_BOX:
; 1288 : 		if( cmd == IOBN_BTNUP )

  0051f	83 7d 0c 11	 cmp	 DWORD PTR _cmd$[ebp], 17 ; 00000011H
  00523	0f 85 b9 00 00
	00		 jne	 $LN77@iwm_comman@4

; 1289 : 		{
; 1290 : 			OpenFilterList( pWnd );

  00529	57		 push	 edi
  0052a	8b ce		 mov	 ecx, esi
  0052c	e8 00 00 00 00	 call	 ?OpenFilterList@GameOptionSpecTab@@IAEXPAVioWnd@@@Z ; GameOptionSpecTab::OpenFilterList

; 1291 : 		}
; 1292 : 		break;

  00531	e9 ac 00 00 00	 jmp	 $LN77@iwm_comman@4
$LN97@iwm_comman@4:

; 1261 : 
; 1262 : 	switch( dwID )

  00536	83 e8 42	 sub	 eax, 66			; 00000042H
  00539	0f 84 95 00 00
	00		 je	 $LN78@iwm_comman@4
  0053f	2d 32 0e 00 00	 sub	 eax, 3634		; 00000e32H
  00544	74 79		 je	 SHORT $LN12@iwm_comman@4
  00546	83 e8 0a	 sub	 eax, 10			; 0000000aH
  00549	74 5f		 je	 SHORT $LN10@iwm_comman@4
  0054b	83 e8 0a	 sub	 eax, 10			; 0000000aH
  0054e	74 45		 je	 SHORT $LN8@iwm_comman@4
  00550	83 e8 0a	 sub	 eax, 10			; 0000000aH
  00553	74 2b		 je	 SHORT $LN6@iwm_comman@4
  00555	2d 24 09 00 00	 sub	 eax, 2340		; 00000924H
  0055a	0f 85 82 00 00
	00		 jne	 $LN77@iwm_comman@4

; 1545 : 	case RESOLUTION_CONFIRM_WND:
; 1546 : 		if( cmd == IO_RESOLUTION_CONFIRM )

  00560	81 7d 0c 0d 10
	00 00		 cmp	 DWORD PTR _cmd$[ebp], 4109 ; 0000100dH
  00567	75 79		 jne	 SHORT $LN77@iwm_comman@4

; 1547 : 		{
; 1548 : 			if( param == 1 )

  00569	83 7d 10 01	 cmp	 DWORD PTR _param$[ebp], 1

; 1549 : 			{
; 1550 : 				SaveCurrentSetting( false );	//   

  0056d	8b ce		 mov	 ecx, esi
  0056f	75 08		 jne	 SHORT $LN2@iwm_comman@4
  00571	50		 push	 eax
  00572	e8 00 00 00 00	 call	 ?SaveCurrentSetting@GameOptionBasicWnd@@IAEX_N@Z ; GameOptionBasicWnd::SaveCurrentSetting

; 1551 : 			}
; 1552 : 			else

  00577	eb 69		 jmp	 SHORT $LN77@iwm_comman@4
$LN2@iwm_comman@4:

; 1553 : 			{
; 1554 : 				RestoreResolution();

  00579	e8 00 00 00 00	 call	 ?RestoreResolution@GameOptionSpecTab@@IAEXXZ ; GameOptionSpecTab::RestoreResolution

; 1555 : 			}
; 1556 : 		}
; 1557 : 		break;

  0057e	eb 62		 jmp	 SHORT $LN77@iwm_comman@4
$LN6@iwm_comman@4:

; 1539 : 	case ID_SCREEN_LIST:
; 1540 : 		if( cmd == IO_SCREEN_MODE_CHANGE )

  00580	81 7d 0c 0e 10
	00 00		 cmp	 DWORD PTR _cmd$[ebp], 4110 ; 0000100eH
  00587	75 59		 jne	 SHORT $LN77@iwm_comman@4

; 1541 : 		{
; 1542 : 			SetChangeScreen( param );

  00589	ff 75 10	 push	 DWORD PTR _param$[ebp]
  0058c	8b ce		 mov	 ecx, esi
  0058e	e8 00 00 00 00	 call	 ?SetChangeScreen@GameOptionSpecTab@@IAEXH@Z ; GameOptionSpecTab::SetChangeScreen

; 1543 : 		}
; 1544 : 		break;

  00593	eb 4d		 jmp	 SHORT $LN77@iwm_comman@4
$LN8@iwm_comman@4:

; 1533 : 	case ID_OVERAY_LIST:
; 1534 : 		if( cmd == IO_OVERAY_CHANGE )	

  00595	81 7d 0c 0c 10
	00 00		 cmp	 DWORD PTR _cmd$[ebp], 4108 ; 0000100cH
  0059c	75 44		 jne	 SHORT $LN77@iwm_comman@4

; 1535 : 		{
; 1536 : 			SetChangeOveray( param );

  0059e	ff 75 10	 push	 DWORD PTR _param$[ebp]
  005a1	8b ce		 mov	 ecx, esi
  005a3	e8 00 00 00 00	 call	 ?SetChangeOveray@GameOptionSpecTab@@IAEXH@Z ; GameOptionSpecTab::SetChangeOveray

; 1537 : 		}
; 1538 : 		break;

  005a8	eb 38		 jmp	 SHORT $LN77@iwm_comman@4
$LN10@iwm_comman@4:

; 1527 : 	case ID_FILTER_LIST:
; 1528 : 		if( cmd == IO_FILTER_CHANGE )	

  005aa	81 7d 0c 0b 10
	00 00		 cmp	 DWORD PTR _cmd$[ebp], 4107 ; 0000100bH
  005b1	75 2f		 jne	 SHORT $LN77@iwm_comman@4

; 1529 : 		{
; 1530 : 			SetChangeFilter( param );

  005b3	ff 75 10	 push	 DWORD PTR _param$[ebp]
  005b6	8b ce		 mov	 ecx, esi
  005b8	e8 00 00 00 00	 call	 ?SetChangeFilter@GameOptionSpecTab@@IAEXH@Z ; GameOptionSpecTab::SetChangeFilter

; 1531 : 		}
; 1532 : 		break;

  005bd	eb 23		 jmp	 SHORT $LN77@iwm_comman@4
$LN12@iwm_comman@4:

; 1521 : 	case ID_RESOLUTION_LIST:
; 1522 : 		if( cmd == IO_RESOLUTION_CHANGE )	

  005bf	81 7d 0c 0a 10
	00 00		 cmp	 DWORD PTR _cmd$[ebp], 4106 ; 0000100aH
  005c6	75 1a		 jne	 SHORT $LN77@iwm_comman@4

; 1523 : 		{
; 1524 : 			SetChangeResolution( param );

  005c8	ff 75 10	 push	 DWORD PTR _param$[ebp]
  005cb	8b ce		 mov	 ecx, esi
  005cd	e8 00 00 00 00	 call	 ?SetChangeResolution@GameOptionSpecTab@@IAEXH@Z ; GameOptionSpecTab::SetChangeResolution

; 1525 : 		}
; 1526 : 		break;

  005d2	eb 0e		 jmp	 SHORT $LN77@iwm_comman@4
$LN78@iwm_comman@4:

; 1293 : 	case ID_OVERAY_BOX:
; 1294 : 		if( cmd == IOBN_BTNUP )

  005d4	83 7d 0c 11	 cmp	 DWORD PTR _cmd$[ebp], 17 ; 00000011H
  005d8	75 08		 jne	 SHORT $LN77@iwm_comman@4

; 1295 : 		{
; 1296 : 			OpenOverayList( pWnd );

  005da	57		 push	 edi
  005db	8b ce		 mov	 ecx, esi
  005dd	e8 00 00 00 00	 call	 ?OpenOverayList@GameOptionSpecTab@@IAEXPAVioWnd@@@Z ; GameOptionSpecTab::OpenOverayList
$LN77@iwm_comman@4:
  005e2	5f		 pop	 edi
  005e3	5e		 pop	 esi
  005e4	5b		 pop	 ebx

; 1558 : 	}
; 1559 : }

  005e5	5d		 pop	 ebp
  005e6	c2 0c 00	 ret	 12			; 0000000cH
?iwm_command@GameOptionSpecTab@@UAEXPAVioWnd@@HK@Z ENDP	; GameOptionSpecTab::iwm_command
_TEXT	ENDS
END
